(dp0
S'fr'
p1
(lp2
(S'par'
p3
(dp4
S'NOUN'
p5
F7.6e-05
sS'ADP'
p6
F0.999924
s(lp7
S'in'
p8
atp9
a(S'\xc3\xa9crit'
p10
(dp11
S'VERB'
p12
F0.035327000000000004
sS'NOUN'
p13
F0.964674
s(lp14
S'writing'
p15
atp16
a(S'.'
p17
(dp18
g17
F1.0
s(lp19
g17
atp20
a(S'-'
p21
(dp22
g17
F1.0
s(lp23
g21
atp24
a(S'('
p25
(dp26
g17
F1.0
s(lp27
g25
atp28
a(S'sv'
p29
(dp30
S'VERB'
p31
F0.004419
sS'NOUN'
p32
F0.9955809999999999
s(lp33
S'sv'
p34
atp35
a(S')'
p36
(dp37
g17
F1.0
s(lp38
g36
atp39
a(S'lorsque'
p40
(dp41
S'CONJ'
p42
F1.0
s(lp43
S'when'
p44
atp45
a(S"l'"
p46
(dp47
S'NOUN'
p48
F0.050387
sS'VERB'
p49
F0.8915730000000001
sS'ADJ'
p50
F0.05804
s(lp51
S'the'
p52
atp53
a(S'union'
p54
(dp55
S'NOUN'
p56
F1.0
s(lp57
S'eu'
p58
atp59
a(S','
p60
(dp61
g17
F1.0
s(lp62
g60
atp63
a(S'le'
p64
(dp65
S'PRON'
p66
F0.303394
sS'DET'
p67
F0.696606
s(lp68
S'the'
p69
atp70
a(S'plus'
p71
(dp72
S'ADV'
p73
F0.999649
sS'VERB'
p74
F0.000351
s(lp75
tp76
a(S'grand'
p77
(dp78
S'ADJ'
p79
F1.0
s(lp80
S'largest'
p81
atp82
a(S'donateur'
p83
(dp84
S'NOUN'
p85
F1.0
s(lp86
S'donor'
p87
atp88
a(S'de'
p89
(dp90
S'ADP'
p91
F1.0
s(lp92
tp93
a(S'la'
p94
(dp95
S'PRON'
p96
F0.000116
sS'DET'
p97
F0.999883
sS'NOUN'
p98
F0.0
s(lp99
S"'s"
p100
atp101
a(S'plan\xc3\xa8te'
p102
(dp103
S'VERB'
p104
F0.00014600000000000003
sS'NOUN'
p105
F0.999854
s(lp106
S'world'
p107
atp108
a(g60
(dp109
g17
F1.0
s(lp110
g60
atp111
a(S'op\xc3\xa8re'
p112
(dp113
S'VERB'
p114
F1.0
s(lp115
S'operates'
p116
atp117
a(S'dans'
p118
(dp119
S'NOUN'
p120
F3.2e-05
sS'ADP'
p121
F0.999968
s(lp122
S'in'
p123
atp124
a(S'le'
p125
(dp126
S'PRON'
p127
F0.000268
sS'DET'
p128
F0.999732
s(lp129
S'the'
p130
atp131
a(S'monde'
p132
(dp133
S'ADJ'
p134
F0.00549
sS'VERB'
p135
F0.00021799999999999999
sS'NOUN'
p136
F0.994293
s(lp137
S'world'
p138
atp139
a(S'en'
p140
(dp141
S'PRON'
p142
F0.000405
sS'ADP'
p143
F0.999595
s(lp144
S'developing'
p145
atp146
a(S'd\xc3\xa9veloppement'
p147
(dp148
S'NOUN'
p149
F1.0
s(lp150
tp151
a(g60
(dp152
g17
F1.0
s(lp153
g60
atp154
a(S'elle'
p155
(dp156
S'PRON'
p157
F1.0
s(lp158
S'our'
p159
atp160
a(S'doit'
p161
(dp162
S'VERB'
p163
F0.999986
sS'NOUN'
p164
F1.4e-05
s(lp165
S'must'
p166
atp167
a(S'le'
p168
(dp169
S'PRON'
p170
F0.756172
sS'DET'
p171
F0.243828
s(lp172
g145
atp173
a(S'faire'
p174
(dp175
S'VERB'
p176
F1.0
s(lp177
S'be'
p178
atp179
a(S'au'
p180
(dp181
S'ADP'
p182
F1.0
s(lp183
S'aid'
p184
atp185
a(S'nom'
p186
(dp187
S'NOUN'
p188
F1.0
s(lp189
tp190
a(S'de'
p191
(dp192
S'ADP'
p193
F1.0
s(lp194
S'of'
p195
atp196
a(S'valeurs'
p197
(dp198
S'NOUN'
p199
F1.0
s(lp200
S'values'
p201
atp202
a(S'claires'
p203
(dp204
S'NOUN'
p205
F0.012852
sS'ADJ'
p206
F0.987148
s(lp207
S'clear'
p208
atp209
a(g17
(dp210
g17
F1.0
s(lp211
g17
atp212
asS'en'
p213
(lp214
(g8
(dp215
S'ADV'
p216
F0.002573
sS'PRT'
p217
F0.0
sS'ADP'
p218
F0.997427
s(lp219
g8
atp220
a(g15
(dp221
S'VERB'
p222
F0.650532
sS'NOUN'
p223
F0.349468
s(lp224
g15
atp225
a(g17
(dp226
g17
F1.0
s(lp227
g17
atp228
a(g21
(dp229
g17
F1.0
s(lp230
g21
atp231
a(g25
(dp232
g17
F1.0
s(lp233
g25
atp234
a(g34
(dp235
S'ADV'
p236
F7.8e-05
sS'ADJ'
p237
F0.003265
sS'VERB'
p238
F0.001399
sS'NOUN'
p239
F0.99526
s(lp240
g34
atp241
a(g36
(dp242
g17
F1.0
s(lp243
g36
atp244
a(g44
(dp245
S'ADV'
p246
F0.999683
sS'ADP'
p247
F0.000318
s(lp248
g44
atp249
a(g52
(dp250
S'NOUN'
p251
F1.1e-05
sS'DET'
p252
F0.999989
s(lp253
g52
atp254
a(g58
(dp255
S'ADV'
p256
F0.00011
sS'ADJ'
p257
F0.001103
sS'VERB'
p258
F0.00019400000000000003
sS'NOUN'
p259
F0.998592
s(lp260
g58
atp261
a(g60
(dp262
g17
F1.0
s(lp263
g60
atp264
a(g69
(dp265
S'NOUN'
p266
F4e-06
sS'DET'
p267
F0.999996
s(lp268
g69
atp269
a(g107
(dp270
S'NOUN'
p271
F1.0
s(lp272
g107
atp273
a(g100
(dp274
S'PRT'
p275
F0.782559
sg17
F0.217441
s(lp276
g100
atp277
a(g81
(dp278
S'ADJ'
p279
F1.0
s(lp280
g81
atp281
a(g87
(dp282
S'NOUN'
p283
F1.0
s(lp284
g87
atp285
a(g195
(dp286
S'ADP'
p287
F1.0
s(lp288
g195
atp289
a(g184
(dp290
S'VERB'
p291
F0.000196
sS'NOUN'
p292
F0.999804
s(lp293
g184
atp294
a(g60
(dp295
g17
F1.0
s(lp296
g60
atp297
a(g116
(dp298
S'VERB'
p299
F1.0
s(lp300
g116
atp301
a(g123
(dp302
S'ADV'
p303
F0.002569
sS'PRT'
p304
F0.011119
sS'ADP'
p305
F0.986312
s(lp306
g123
atp307
a(g130
(dp308
S'NOUN'
p309
F1e-06
sS'DET'
p310
F0.999999
s(lp311
g130
atp312
a(g145
(dp313
S'NOUN'
p314
F0.086829
sS'VERB'
p315
F0.492757
sS'ADJ'
p316
F0.420414
s(lp317
g145
atp318
a(g138
(dp319
S'NOUN'
p320
F1.0
s(lp321
g138
atp322
a(g60
(dp323
g17
F1.0
s(lp324
g60
atp325
a(g159
(dp326
S'PRON'
p327
F1.0
s(lp328
g159
atp329
a(g201
(dp330
S'VERB'
p331
F1e-05
sS'NOUN'
p332
F0.99999
s(lp333
g201
atp334
a(g166
(dp335
S'VERB'
p336
F1.0
sS'NOUN'
p337
F0.0
s(lp338
g166
atp339
a(g178
(dp340
S'VERB'
p341
F1.0
s(lp342
g178
atp343
a(g208
(dp344
S'VERB'
p345
F0.003435
sS'ADJ'
p346
F0.996565
s(lp347
g208
atp348
a(g17
(dp349
g17
F1.0
s(lp350
g17
atp351
asS'nl'
p352
(lp353
(S'schriftelijk'
p354
(dp355
S'ADJ'
p356
F1.0
s(lp357
g15
atp358
a(g17
(dp359
g17
F1.0
s(lp360
g17
atp361
a(g21
(dp362
g17
F1.0
s(lp363
g21
atp364
a(g25
(dp365
g17
F1.0
s(lp366
g25
atp367
a(S'sv'
p368
(dp369
S'ADJ'
p370
F0.06221
sS'NOUN'
p371
F0.93779
s(lp372
g34
atp373
a(g36
(dp374
g17
F1.0
s(lp375
g36
atp376
a(S'wanneer'
p377
(dp378
S'ADV'
p379
F0.011961
sS'CONJ'
p380
F0.988039
s(lp381
g44
atp382
a(S'de'
p383
(dp384
S'DET'
p385
F1.0
s(lp386
g52
atp387
a(S'eu'
p388
(dp389
S'NOUN'
p390
F1.0
s(lp391
g58
atp392
a(S'als'
p393
(dp394
S'CONJ'
p395
F1.0
s(lp396
g69
atp397
a(S'grootste'
p398
(dp399
S'NOUN'
p400
F0.000491
sS'ADJ'
p401
F0.999509
s(lp402
g81
atp403
a(S'donor'
p404
(dp405
S'NOUN'
p406
F1.0
s(lp407
g87
atp408
a(S'in'
p409
(dp410
S'ADV'
p411
F0.002979
sS'VERB'
p412
F2e-06
sS'ADP'
p413
F0.997018
s(lp414
g123
atp415
a(S'de'
p416
(dp417
S'DET'
p418
F1.0
s(lp419
g130
atp420
a(S'ontwikkelingslanden'
p421
(dp422
S'NOUN'
p423
F1.0
s(lp424
g145
atp425
a(S'actief'
p426
(dp427
S'ADJ'
p428
F1.0
s(lp429
tp430
a(S'is'
p431
(dp432
S'VERB'
p433
F1.0
s(lp434
g116
atp435
a(g60
(dp436
g17
F1.0
s(lp437
g60
atp438
a(S'moeten'
p439
(dp440
S'VERB'
p441
F0.9999979999999999
sS'NOUN'
p442
F2e-06
s(lp443
g166
atp444
a(S'onze'
p445
(dp446
S'PRON'
p447
F1.0
s(lp448
g159
atp449
a(S'normen'
p450
(dp451
S'NOUN'
p452
F1.0
s(lp453
tp454
a(S'en'
p455
(dp456
S'CONJ'
p457
F1.0
s(lp458
tp459
a(S'waarden'
p460
(dp461
S'NOUN'
p462
F1.0
s(lp463
g201
atp464
a(S'duidelijk'
p465
(dp466
S'ADJ'
p467
F1.0
s(lp468
g208
atp469
a(S'zijn'
p470
(dp471
S'PRON'
p472
F6.5e-05
sS'VERB'
p473
F0.996388
sS'NOUN'
p474
F0.003547
s(lp475
g178
atp476
a(g17
(dp477
g17
F1.0
s(lp478
g17
atp479
asS'de'
p480
(lp481
(S'schriftlich'
p482
(dp483
S'ADJ'
p484
F1.0
s(lp485
g15
atp486
a(g17
(dp487
g17
F1.0
s(lp488
g17
atp489
a(g21
(dp490
g17
F1.0
s(lp491
g21
atp492
a(g25
(dp493
g17
F1.0
s(lp494
g25
atp495
a(S'sv'
p496
(dp497
S'ADJ'
p498
F0.006334
sS'NOUN'
p499
F0.986417
s(lp500
g34
atp501
a(g36
(dp502
g17
F1.0
s(lp503
g36
atp504
a(S'wenn'
p505
(dp506
S'CONJ'
p507
F1.0
s(lp508
g44
atp509
a(S'die'
p510
(dp511
S'PRON'
p512
F0.050531
sS'DET'
p513
F0.946417
s(lp514
g52
atp515
a(S'eu'
p516
(dp517
S'NOUN'
p518
F0.333929
sS'ADJ'
p519
F0.377817
s(lp520
g58
atp521
a(S'als'
p522
(dp523
S'CONJ'
p524
F0.998788
s(lp525
g69
atp526
a(S'weltgr\xc3\xb6\xc3\x9fter'
p527
(dp528
S'ADJ'
p529
F1.0
s(lp530
g81
atp531
a(S'entwicklungshilfegeber'
p532
(dp533
S'ADJ'
p534
F0.001827
sS'NOUN'
p535
F0.994982
s(lp536
g87
atp537
a(S'in'
p538
(dp539
S'ADP'
p540
F1.0
s(lp541
g123
atp542
a(S'der'
p543
(dp544
S'PRON'
p545
F6.7e-05
sS'DET'
p546
F0.999928
s(lp547
g130
atp548
a(S'dritten'
p549
(dp550
S'ADJ'
p551
F1.0
s(lp552
g145
atp553
a(S'welt'
p554
(dp555
S'ADJ'
p556
F0.002571
sS'NOUN'
p557
F0.995028
s(lp558
g138
atp559
a(S'agiert'
p560
(dp561
S'VERB'
p562
F1.0
s(lp563
g116
atp564
a(g60
(dp565
g17
F1.0
s(lp566
g60
atp567
a(S'm\xc3\xbcssen'
p568
(dp569
S'VERB'
p570
F1.0
s(lp571
g166
atp572
a(S'unsere'
p573
(dp574
S'PRON'
p575
F1.0
s(lp576
g159
atp577
a(S'werte'
p578
(dp579
S'VERB'
p580
F1.0
s(lp581
g201
atp582
a(S'deutlich'
p583
(dp584
S'ADJ'
p585
F1.0
s(lp586
tp587
a(S'gemacht'
p588
(dp589
S'VERB'
p590
F0.999317
sS'ADJ'
p591
F0.000683
s(lp592
g208
atp593
a(S'werden'
p594
(dp595
S'VERB'
p596
F0.999996
s(lp597
g178
atp598
a(g17
(dp599
g17
F1.0
s(lp600
g17
atp601
asS'it'
p602
(lp603
(S'per'
p604
(dp605
S'CONJ'
p606
F0.030106
sS'ADP'
p607
F0.969894
s(lp608
g8
atp609
a(S'iscritto'
p610
(dp611
S'NOUN'
p612
F0.123774
sS'VERB'
p613
F0.030022
sS'ADJ'
p614
F0.846204
s(lp615
g15
atp616
a(g17
(dp617
g17
F1.0
s(lp618
g17
atp619
a(g21
(dp620
S'X'
p621
F1.8e-05
sg17
F0.999982
s(lp622
g21
atp623
a(g25
(dp624
g17
F1.0
s(lp625
g25
atp626
a(S'sv'
p627
(dp628
S'ADJ'
p629
F0.349771
sS'VERB'
p630
F0.021455000000000002
sS'NOUN'
p631
F0.628774
s(lp632
g34
atp633
a(g36
(dp634
g17
F1.0
s(lp635
g36
atp636
a(S'quando'
p637
(dp638
S'ADV'
p639
F0.025372
sS'PRON'
p640
F0.009033
sS'CONJ'
p641
F0.965539
sS'NOUN'
p642
F5.6e-05
s(lp643
g44
atp644
a(S"l'"
p645
(dp646
S'NOUN'
p647
F0.000818
sS'VERB'
p648
F0.988625
sS'ADJ'
p649
F0.010556
s(lp650
g52
atp651
a(S'ue'
p652
(dp653
S'ADJ'
p654
F0.002161
sS'VERB'
p655
F0.026514
sS'NOUN'
p656
F0.971324
s(lp657
g58
atp658
a(g60
(dp659
g17
F1.0
s(lp660
g60
atp661
a(S'il'
p662
(dp663
S'DET'
p664
F1.0
s(lp665
g69
atp666
a(S'pi\xc3\xb9'
p667
(dp668
S'ADV'
p669
F0.969705
sS'NOUN'
p670
F0.006431
sS'ADJ'
p671
F0.023863
sS'ADP'
p672
F1e-06
s(lp673
tp674
a(S'grande'
p675
(dp676
S'NOUN'
p677
F0.000146
sS'ADJ'
p678
F0.999854
s(lp679
g81
atp680
a(S'donatore'
p681
(dp682
S'NOUN'
p683
F1.0
s(lp684
g87
atp685
a(S'di'
p686
(dp687
S'CONJ'
p688
F4e-06
sS'ADP'
p689
F0.999996
s(lp690
g195
atp691
a(S'aiuti'
p692
(dp693
S'VERB'
p694
F0.002042
sS'NOUN'
p695
F0.997958
s(lp696
g184
atp697
a(S'a'
p698
(dp699
S'CONJ'
p700
F0.000227
sS'ADP'
p701
F0.999773
s(lp702
tp703
a(S'livello'
p704
(dp705
S'VERB'
p706
F5.8e-05
sS'NOUN'
p707
F0.999942
s(lp708
tp709
a(S'globale'
p710
(dp711
S'ADJ'
p712
F1.0
s(lp713
g107
atp714
a(g60
(dp715
g17
F1.0
s(lp716
g60
atp717
a(S'opera'
p718
(dp719
S'VERB'
p720
F0.031002000000000002
sS'NOUN'
p721
F0.968998
s(lp722
g116
atp723
a(S'nei'
p724
(dp725
S'NOUN'
p726
F2.5e-05
sS'ADP'
p727
F0.999975
s(lp728
g123
atp729
a(S'paesi'
p730
(dp731
S'NOUN'
p732
F1.0
s(lp733
g138
atp734
a(S'in'
p735
(dp736
S'ADP'
p737
F1.0
s(lp738
g145
atp739
a(S'via'
p740
(dp741
S'ADV'
p742
F0.101479
sg621
F5e-06
sS'NOUN'
p743
F0.898517
s(lp744
tp745
a(S'di'
p746
(dp747
S'CONJ'
p748
F4e-06
sS'ADP'
p749
F0.999996
s(lp750
tp751
a(S'sviluppo'
p752
(dp753
S'VERB'
p754
F1.6e-05
sS'NOUN'
p755
F0.999984
s(lp756
g145
atp757
a(g60
(dp758
g17
F1.0
s(lp759
g60
atp760
a(S'i'
p761
(dp762
S'DET'
p763
F1.0
s(lp764
tp765
a(S'nostri'
p766
(dp767
S'PRON'
p768
F1.0
s(lp769
g159
atp770
a(S'valori'
p771
(dp772
S'NOUN'
p773
F1.0
s(lp774
g201
atp775
a(S'devono'
p776
(dp777
S'VERB'
p778
F1.0
s(lp779
g166
atp780
a(S'essere'
p781
(dp782
S'VERB'
p783
F0.99967
sS'NOUN'
p784
F0.00033
s(lp785
g178
atp786
a(S'chiari'
p787
(dp788
S'NOUN'
p789
F0.104543
sS'ADJ'
p790
F0.895457
s(lp791
g208
atp792
a(g17
(dp793
g17
F1.0
s(lp794
g17
atp795
asS'sk'
p796
(lp797
(S'p\xc3\xadsomne'
p798
(dp799
S'ADV'
p800
F1.0
s(lp801
g15
atp802
a(g17
(dp803
g17
F1.0
s(lp804
g17
atp805
a(g21
(dp806
g17
F1.0
s(lp807
g21
atp808
a(g25
(dp809
g17
F1.0
s(lp810
g25
atp811
a(S'sv'
p812
(dp813
g621
F1.0
s(lp814
g34
atp815
a(g36
(dp816
g17
F1.0
s(lp817
g36
atp818
a(S'ke\xc4\x8f'
p819
(dp820
g621
F0.0007
sS'CONJ'
p821
F0.9993
s(lp822
g44
atp823
a(S'eur\xc3\xb3pska'
p824
(dp825
S'ADJ'
p826
F1.0
s(lp827
g52
atp828
a(S'\xc3\xbania'
p829
(dp830
S'NOUN'
p831
F1.0
s(lp832
g58
atp833
a(g60
(dp834
g17
F1.0
s(lp835
g60
atp836
a(S'najv\xc3\xa4\xc4\x8d\xc5\xa1\xc3\xad'
p837
(dp838
S'ADJ'
p839
F1.0
s(lp840
g81
atp841
a(S'svetov\xc3\xbd'
p842
(dp843
S'ADJ'
p844
F1.0
s(lp845
g107
atp846
a(S'poskytovate\xc4\xbe'
p847
(dp848
S'NOUN'
p849
F1.0
s(lp850
g87
atp851
a(S'pomoci'
p852
(dp853
S'NOUN'
p854
F1.0
s(lp855
g184
atp856
a(g60
(dp857
g17
F1.0
s(lp858
g60
atp859
a(S'uskuto\xc4\x8d\xc5\x88uje'
p860
(dp861
S'VERB'
p862
F1.0
s(lp863
g116
atp864
a(S'svoje'
p865
(dp866
S'PRON'
p867
F1.0
s(lp868
g116
atp869
a(S'aktivity'
p870
(dp871
S'NOUN'
p872
F1.0
s(lp873
g116
atp874
a(S'v'
p875
(dp876
g621
F4.599999999999999e-05
sS'ADP'
p877
F0.999955
s(lp878
g123
atp879
a(S'rozvojovom'
p880
(dp881
S'ADJ'
p882
F1.0
s(lp883
g145
atp884
a(S'svete'
p885
(dp886
S'NOUN'
p887
F1.0
s(lp888
g138
atp889
a(g60
(dp890
g17
F1.0
s(lp891
g60
atp892
a(S'potrebuje'
p893
(dp894
S'VERB'
p895
F1.0
s(lp896
g116
atp897
a(S'ma\xc5\xa5'
p898
(dp899
S'VERB'
p900
F0.997861
sS'NOUN'
p901
F0.002139
s(lp902
g116
atp903
a(S'z\xc3\xa1rove\xc5\x88'
p904
(dp905
S'ADV'
p906
F1.0
s(lp907
tp908
a(S'ujasnen\xc3\xa9'
p909
(dp910
S'NOUN'
p911
F0.000395
sS'VERB'
p912
F0.985918
sS'ADJ'
p913
F0.013687000000000001
s(lp914
g116
atp915
a(S'svoje'
p916
(dp917
S'PRON'
p918
F1.0
s(lp919
g159
atp920
a(S'hodnoty'
p921
(dp922
S'NOUN'
p923
F1.0
s(lp924
g201
atp925
a(g17
(dp926
g17
F1.0
s(lp927
g17
atp928
asS'pl'
p929
(lp930
(S'na'
p931
(dp932
g621
F1e-06
sS'VERB'
p933
F0.0
sS'NOUN'
p934
F0.0
sS'ADP'
p935
F0.999997
sS'PRT'
p936
F1e-06
s(lp937
tp938
a(S'pi\xc5\x9bmie'
p939
(dp940
S'NOUN'
p941
F1.0
s(lp942
g15
atp943
a(g17
(dp944
g17
F1.0
s(lp945
g17
atp946
a(g21
(dp947
g621
F0.001074
sS'NUM'
p948
F0.0
sS'NOUN'
p949
F0.001806
sg17
F0.99712
s(lp950
g21
atp951
a(g25
(dp952
S'NOUN'
p953
F0.000357
sg17
F0.999643
s(lp954
g25
atp955
a(S'sv'
p956
(dp957
S'ADV'
p958
F0.002642
sS'ADJ'
p959
F0.001658
sS'VERB'
p960
F0.009786
sS'NOUN'
p961
F0.985915
s(lp962
g34
atp963
a(g36
(dp964
g17
F1.0
s(lp965
g36
atp966
a(S'gdy'
p967
(dp968
S'ADV'
p969
F1.0
s(lp970
g44
atp971
a(S'ue'
p972
(dp973
S'ADJ'
p974
F0.0014379999999999998
sS'VERB'
p975
F0.014855
sS'NOUN'
p976
F0.983707
s(lp977
g58
atp978
a(g60
(dp979
g621
F0.0
sg17
F1.0
s(lp980
g60
atp981
a(S'najwi\xc4\x99kszy'
p982
(dp983
S'ADJ'
p984
F1.0000010000000001
s(lp985
g81
atp986
a(S'na'
p987
(dp988
g621
F1e-06
sS'VERB'
p989
F0.0
sS'NOUN'
p990
F0.0
sS'ADP'
p991
F0.999999
sS'PRT'
p992
F0.0
s(lp993
g69
atp994
a(S'\xc5\x9bwiecie'
p995
(dp996
S'NOUN'
p997
F1.0
s(lp998
g107
atp999
a(S'dawca'
p1000
(dp1001
S'NOUN'
p1002
F1.0
s(lp1003
g87
atp1004
a(S'pomocy'
p1005
(dp1006
S'NOUN'
p1007
F1.0
s(lp1008
g184
atp1009
a(g60
(dp1010
g621
F0.0
sg17
F1.0
s(lp1011
g60
atp1012
a(S'dzia\xc5\x82a'
p1013
(dp1014
S'VERB'
p1015
F0.963473
sS'NOUN'
p1016
F0.036527
s(lp1017
g116
atp1018
a(S'w'
p1019
(dp1020
S'ADJ'
p1021
F0.0
sg621
F0.0
sS'NOUN'
p1022
F0.0
sS'ADP'
p1023
F0.9999999999999999
s(lp1024
g123
atp1025
a(S'krajach'
p1026
(dp1027
S'NOUN'
p1028
F1.0
s(lp1029
tp1030
a(S'rozwijaj\xc4\x85cych'
p1031
(dp1032
S'VERB'
p1033
F1.0
s(lp1034
g145
atp1035
a(S'si\xc4\x99'
p1036
(dp1037
S'PRT'
p1038
F1.0
s(lp1039
g138
atp1040
a(g60
(dp1041
g621
F0.0
sg17
F1.0
s(lp1042
g60
atp1043
a(S'nasze'
p1044
(dp1045
g621
F6e-05
sS'ADJ'
p1046
F0.9999399999999998
s(lp1047
g159
atp1048
a(S'warto\xc5\x9bci'
p1049
(dp1050
S'NOUN'
p1051
F1.000001
s(lp1052
g201
atp1053
a(S'powinny'
p1054
(dp1055
S'VERB'
p1056
F0.9999999999999999
s(lp1057
g166
atp1058
a(S'by\xc4\x87'
p1059
(dp1060
S'VERB'
p1061
F1.0
s(lp1062
g178
atp1063
a(S'jasno'
p1064
(dp1065
S'ADV'
p1066
F0.999991
sS'ADJ'
p1067
F9e-06
s(lp1068
tp1069
a(S'okre\xc5\x9blone'
p1070
(dp1071
S'VERB'
p1072
F0.9750060000000002
sS'ADJ'
p1073
F0.024994
s(lp1074
g208
atp1075
a(g17
(dp1076
g17
F1.0
s(lp1077
g17
atp1078
asS'sl'
p1079
(lp1080
(g875
(dp1081
S'ADP'
p1082
F1.0
s(lp1083
g8
atp1084
a(S'pisni'
p1085
(dp1086
S'ADJ'
p1087
F1.0
s(lp1088
tp1089
a(S'obliki'
p1090
(dp1091
S'NOUN'
p1092
F1.0
s(lp1093
g15
atp1094
a(g17
(dp1095
g17
F1.0
s(lp1096
g17
atp1097
a(g21
(dp1098
g17
F1.0
s(lp1099
g21
atp1100
a(g25
(dp1101
g17
F1.0
s(lp1102
g25
atp1103
a(S'sv'
p1104
(dp1105
S'ADV'
p1106
F0.002863
sS'ADJ'
p1107
F0.042035
sS'CONJ'
p1108
F3.4e-05
sS'VERB'
p1109
F0.000548
sS'NOUN'
p1110
F0.954521
s(lp1111
g34
atp1112
a(g36
(dp1113
g17
F1.0
s(lp1114
g36
atp1115
a(S'ko'
p1116
(dp1117
S'CONJ'
p1118
F1.0
s(lp1119
g44
atp1120
a(S'eu'
p1121
(dp1122
S'ADV'
p1123
F0.006613
sS'ADJ'
p1124
F0.093469
sS'VERB'
p1125
F0.000264
sS'NOUN'
p1126
F0.899653
s(lp1127
g58
atp1128
a(g60
(dp1129
g17
F1.0
s(lp1130
g60
atp1131
a(S'ki'
p1132
(dp1133
S'CONJ'
p1134
F1.0
s(lp1135
tp1136
a(S'je'
p1137
(dp1138
S'PRON'
p1139
F0.000764
sS'VERB'
p1140
F0.999236
sg621
F0.0
s(lp1141
g69
atp1142
a(S'najve\xc4\x8dja'
p1143
(dp1144
S'ADJ'
p1145
F1.000001
s(lp1146
g81
atp1147
a(S'donatorka'
p1148
(dp1149
S'ADV'
p1150
F2.1e-05
sS'ADJ'
p1151
F0.03019
sS'VERB'
p1152
F1.6e-05
sS'NOUN'
p1153
F0.9697699999999999
s(lp1154
g87
atp1155
a(S'pomo\xc4\x8di'
p1156
(dp1157
S'NOUN'
p1158
F1.0
s(lp1159
g184
atp1160
a(S'na'
p1161
(dp1162
S'ADP'
p1163
F1.0
s(lp1164
g100
atp1165
a(S'svetu'
p1166
(dp1167
S'NOUN'
p1168
F1.0
s(lp1169
g107
atp1170
a(g60
(dp1171
g17
F1.0
s(lp1172
g60
atp1173
a(S'deluje'
p1174
(dp1175
S'VERB'
p1176
F1.0
s(lp1177
g116
atp1178
a(g875
(dp1179
S'ADP'
p1180
F1.0
s(lp1181
g123
atp1182
a(S'dr\xc5\xbeavah'
p1183
(dp1184
S'NOUN'
p1185
F1.0
s(lp1186
g145
atp1187
a(g875
(dp1188
S'ADP'
p1189
F1.0
s(lp1190
tp1191
a(S'razvoju'
p1192
(dp1193
S'NOUN'
p1194
F1.0
s(lp1195
g145
atp1196
a(g60
(dp1197
g17
F1.0
s(lp1198
g60
atp1199
a(S'morajo'
p1200
(dp1201
S'VERB'
p1202
F1.0
s(lp1203
g166
atp1204
a(S'biti'
p1205
(dp1206
S'VERB'
p1207
F0.999956
sS'NOUN'
p1208
F4.3e-05
s(lp1209
g178
atp1210
a(S'na\xc5\xa1e'
p1211
(dp1212
S'PRON'
p1213
F0.999999
s(lp1214
g159
atp1215
a(S'vrednote'
p1216
(dp1217
S'NOUN'
p1218
F1.0
s(lp1219
g201
atp1220
a(S'jasne'
p1221
(dp1222
S'ADJ'
p1223
F1.0
s(lp1224
g208
atp1225
a(g17
(dp1226
g17
F1.0
s(lp1227
g17
atp1228
asS'es'
p1229
(lp1230
(S'por'
p1231
(dp1232
S'ADP'
p1233
F1.0
s(lp1234
tp1235
a(S'escrito'
p1236
(dp1237
S'VERB'
p1238
F0.31338
sS'ADJ'
p1239
F0.68662
s(lp1240
g15
atp1241
a(g17
(dp1242
g17
F1.0
s(lp1243
g17
atp1244
a(g21
(dp1245
g17
F1.0
s(lp1246
g21
atp1247
a(g25
(dp1248
g17
F1.0
s(lp1249
g25
atp1250
a(S'sv'
p1251
(dp1252
S'NOUN'
p1253
F1.0
s(lp1254
g34
atp1255
a(g36
(dp1256
g17
F1.0
s(lp1257
g36
atp1258
a(S'la'
p1259
(dp1260
g621
F3.7e-05
sS'PRON'
p1261
F0.0
sS'DET'
p1262
F0.999962
sS'NOUN'
p1263
F1e-06
s(lp1264
tp1265
a(S'intervenci\xc3\xb3n'
p1266
(dp1267
S'NOUN'
p1268
F1.0
s(lp1269
g44
atp1270
a(S'de'
p1271
(dp1272
g621
F0.0
sS'CONJ'
p1273
F1.7e-05
sS'ADP'
p1274
F0.999983
s(lp1275
tp1276
a(S'la'
p1277
(dp1278
g621
F0.0
sS'PRON'
p1279
F0.0
sS'DET'
p1280
F0.999999
sS'NOUN'
p1281
F0.0
s(lp1282
g52
atp1283
a(S'ue'
p1284
(dp1285
S'VERB'
p1286
F1e-05
sS'NOUN'
p1287
F0.9999910000000001
s(lp1288
g58
atp1289
a(g60
(dp1290
g17
F1.0
s(lp1291
g60
atp1292
a(S'el'
p1293
(dp1294
S'PRON'
p1295
F0.000295
sS'DET'
p1296
F0.999705
s(lp1297
g69
atp1298
a(S'principal'
p1299
(dp1300
g621
F0.000267
sS'ADJ'
p1301
F0.999733
s(lp1302
g81
atp1303
a(S'donante'
p1304
(dp1305
S'NOUN'
p1306
F1.0
s(lp1307
g87
atp1308
a(S'de'
p1309
(dp1310
g621
F2.9e-05
sS'CONJ'
p1311
F0.000449
sS'ADP'
p1312
F0.999522
s(lp1313
g195
atp1314
a(S'ayuda'
p1315
(dp1316
S'NOUN'
p1317
F1.0
s(lp1318
g184
atp1319
a(S'del'
p1320
(dp1321
S'ADP'
p1322
F1.0
s(lp1323
g100
atp1324
a(S'mundo'
p1325
(dp1326
S'NOUN'
p1327
F1.0
s(lp1328
g107
atp1329
a(g60
(dp1330
g17
F1.0
s(lp1331
g60
atp1332
a(S'en'
p1333
(dp1334
g621
F0.0
sS'CONJ'
p1335
F1e-06
sS'ADP'
p1336
F0.999998
s(lp1337
g123
atp1338
a(S'los'
p1339
(dp1340
S'PRON'
p1341
F0.0
sS'DET'
p1342
F1.0
s(lp1343
g130
atp1344
a(S'pa\xc3\xadses'
p1345
(dp1346
S'NOUN'
p1347
F1.0
s(lp1348
g138
atp1349
a(S'en'
p1350
(dp1351
g621
F1.8e-05
sS'CONJ'
p1352
F1e-05
sS'ADP'
p1353
F0.999972
s(lp1354
tp1355
a(S'desarrollo'
p1356
(dp1357
S'NOUN'
p1358
F1.0
s(lp1359
g145
atp1360
a(S'requiere'
p1361
(dp1362
S'VERB'
p1363
F1.0
s(lp1364
g166
atp1365
a(S'que'
p1366
(dp1367
g621
F0.0
sS'CONJ'
p1368
F1.0
s(lp1369
g60
atp1370
a(S'nuestros'
p1371
(dp1372
S'PRON'
p1373
F1.0
s(lp1374
g159
atp1375
a(S'valores'
p1376
(dp1377
S'NOUN'
p1378
F1.0
s(lp1379
g201
atp1380
a(S'sean'
p1381
(dp1382
S'VERB'
p1383
F1.0
s(lp1384
g178
atp1385
a(S'claros'
p1386
(dp1387
S'ADJ'
p1388
F1.0
s(lp1389
g208
atp1390
a(g17
(dp1391
g17
F1.0
s(lp1392
g17
atp1393
as.