(dp0
S'fr'
p1
(lp2
(S"j'"
p3
(dp4
S'ADJ'
p5
F0.10952
sS'X'
p6
F0.13611
sS'VERB'
p7
F0.004198999999999999
sS'NOUN'
p8
F0.750172
s(lp9
S'i'
p10
atp11
a(S'ai'
p12
(dp13
S'VERB'
p14
F1.0
s(lp15
S'am'
p16
atp17
a(S'bon'
p18
(dp19
S'ADV'
p20
F0.035733
sS'NOUN'
p21
F0.000308
sS'ADJ'
p22
F0.963958
s(lp23
tp24
a(S'espoir'
p25
(dp26
S'NOUN'
p27
F1.0
s(lp28
S'hopeful'
p29
atp30
a(S'que'
p31
(dp32
S'ADV'
p33
F0.011214
sS'PRON'
p34
F0.472832
sS'CONJ'
p35
F0.515954
s(lp36
S'that'
p37
atp38
a(S"l'"
p39
(dp40
S'ADJ'
p41
F0.035353
sS'VERB'
p42
F0.928426
sS'NOUN'
p43
F0.03622
s(lp44
S'the'
p45
atp46
a(S'accord'
p47
(dp48
S'NOUN'
p49
F1.0
s(lp50
S'agreement'
p51
atp52
a(S'n\xc3\xa9goci\xc3\xa9'
p53
(dp54
S'VERB'
p55
F1.0
s(lp56
S'negotiated'
p57
atp58
a(S'avec'
p59
(dp60
S'ADV'
p61
F0.002746
sS'ADP'
p62
F0.997254
s(lp63
S'with'
p64
atp65
a(S'le'
p66
(dp67
S'PRON'
p68
F6.2e-05
sS'DET'
p69
F0.999938
s(lp70
tp71
a(S'cameroun'
p72
(dp73
S'ADJ'
p74
F0.003286
sS'NOUN'
p75
F0.996714
s(lp76
S'cameroon'
p77
atp78
a(S'combattra'
p79
(dp80
S'VERB'
p81
F1.0
s(lp82
S'combat'
p83
atp84
a(S'efficacement'
p85
(dp86
S'ADV'
p87
F1.0
s(lp88
S'effectively'
p89
atp90
a(S"l'"
p91
(dp92
S'NOUN'
p93
F0.037162
sS'VERB'
p94
F0.7565829999999999
sS'ADJ'
p95
F0.206256
s(lp96
S'logging'
p97
atp98
a(S'exploitation'
p99
(dp100
S'NOUN'
p101
F1.0
s(lp102
tp103
a(S'ill\xc3\xa9gale'
p104
(dp105
S'ADJ'
p106
F1.0
s(lp107
S'illegal'
p108
atp109
a(S'de'
p110
(dp111
S'ADP'
p112
F1.0
s(lp113
tp114
a(S'bois'
p115
(dp116
S'VERB'
p117
F0.000281
sS'NOUN'
p118
F0.999719
s(lp119
g97
atp120
a(S'dans'
p121
(dp122
S'NOUN'
p123
F3e-06
sS'ADP'
p124
F0.999997
s(lp125
S'in'
p126
atp127
a(S'ce'
p128
(dp129
S'PRON'
p130
F1.0
s(lp131
S'the'
p132
atp133
a(S'pays'
p134
(dp135
S'NOUN'
p136
F1.0
s(lp137
S'country'
p138
atp139
a(S'en'
p140
(dp141
S'PRON'
p142
F0.07269
sS'ADP'
p143
F0.92731
s(lp144
S'thus'
p145
atp146
a(S'contribuant'
p147
(dp148
S'VERB'
p149
F1.0
s(lp150
tp151
a(S'ainsi'
p152
(dp153
S'ADV'
p154
F0.960327
sS'CONJ'
p155
F0.039673
s(lp156
S'contributing'
p157
atp158
a(S'\xc3\xa0'
p159
(dp160
S'ADP'
p161
F1.0
s(lp162
S'to'
p163
atp164
a(S'am\xc3\xa9liorer'
p165
(dp166
S'VERB'
p167
F1.0
s(lp168
S'improving'
p169
atp170
a(S'les'
p171
(dp172
S'PRON'
p173
F3.1e-05
sS'DET'
p174
F0.999948
sS'ADP'
p175
F2.1e-05
s(lp176
tp177
a(S'conditions'
p178
(dp179
S'NOUN'
p180
F1.0
s(lp181
S'conditions'
p182
atp183
a(S'des'
p184
(dp185
S'DET'
p186
F2.1e-05
sS'ADP'
p187
F0.999979
s(lp188
S'for'
p189
atp190
a(S'populations'
p191
(dp192
S'NOUN'
p193
F1.0
s(lp194
S'populations'
p195
atp196
a(S'qui'
p197
(dp198
S'PRON'
p199
F1.0
s(lp200
S'living'
p201
atp202
a(S'd\xc3\xa9pendent'
p203
(dp204
S'VERB'
p205
F1.0
s(lp206
S'income'
p207
atp208
a(S'de'
p209
(dp210
S'ADP'
p211
F1.0
s(lp212
S'from'
p213
atp214
a(S'ce'
p215
(dp216
S'PRON'
p217
F1.0
s(lp218
S'this'
p219
atp220
a(S'secteur'
p221
(dp222
S'NOUN'
p223
F1.0
s(lp224
S'sector'
p225
atp226
a(S'\xc3\xa9conomique'
p227
(dp228
S'NOUN'
p229
F0.002475
sS'ADJ'
p230
F0.997525
s(lp231
S'economic'
p232
atp233
a(S'et'
p234
(dp235
S'CONJ'
p236
F1.0
s(lp237
S'and'
p238
atp239
a(S"qu'"
p240
(dp241
S'NOUN'
p242
F0.109289
sS'VERB'
p243
F0.472141
sS'ADJ'
p244
F0.418571
s(lp245
S'that'
p246
atp247
a(S'il'
p248
(dp249
S'PRON'
p250
F1.0
s(lp251
S'it'
p252
atp253
a(S'contribuera'
p254
(dp255
S'VERB'
p256
F1.0
s(lp257
S'contribute'
p258
atp259
a(S'aussi'
p260
(dp261
S'ADV'
p262
F0.999522
sS'CONJ'
p263
F0.000478
s(lp264
S'also'
p265
atp266
a(S'\xc3\xa0'
p267
(dp268
S'ADP'
p269
F1.0
s(lp270
S'to'
p271
atp272
a(S'am\xc3\xa9liorer'
p273
(dp274
S'VERB'
p275
F1.0
s(lp276
S'improving'
p277
atp278
a(S'la'
p279
(dp280
S'PRON'
p281
F6e-06
sS'DET'
p282
F0.999994
sS'NOUN'
p283
F0.0
s(lp284
tp285
a(S'biodiversit\xc3\xa9'
p286
(dp287
S'NOUN'
p288
F1.0
s(lp289
S'biodiversity'
p290
atp291
a(S'et'
p292
(dp293
S'CONJ'
p294
F1.0
s(lp295
S'and'
p296
atp297
a(S'\xc3\xa0'
p298
(dp299
S'ADP'
p300
F1.0
s(lp301
tp302
a(S'prot\xc3\xa9ger'
p303
(dp304
S'VERB'
p305
F1.0
s(lp306
S'protecting'
p307
atp308
a(S'les'
p309
(dp310
S'PRON'
p311
F0.000324
sS'DET'
p312
F0.999655
sS'ADP'
p313
F2.1e-05
s(lp314
tp315
a(S'ressources'
p316
(dp317
S'VERB'
p318
F0.00033600000000000004
sS'NOUN'
p319
F0.999664
s(lp320
S'resources'
p321
atp322
a(S'naturelles'
p323
(dp324
S'NOUN'
p325
F0.018194
sS'ADJ'
p326
F0.981806
s(lp327
S'natural'
p328
atp329
a(S'au'
p330
(dp331
S'ADP'
p332
F1.0
s(lp333
S'in'
p334
atp335
a(S'cameroun'
p336
(dp337
S'ADJ'
p338
F0.003014
sS'NOUN'
p339
F0.996986
s(lp340
S'cameroon'
p341
atp342
a(S'.'
p343
(dp344
g343
F1.0
s(lp345
g343
atp346
asS'en'
p347
(lp348
(g10
(dp349
g6
F0.000587
sS'NOUN'
p350
F0.9994120000000001
s(lp351
g10
atp352
a(g16
(dp353
S'ADV'
p354
F0.010022
sS'VERB'
p355
F0.989978
s(lp356
g16
atp357
a(g29
(dp358
S'NOUN'
p359
F0.022386
sS'ADJ'
p360
F0.977614
s(lp361
g29
atp362
a(g37
(dp363
S'ADV'
p364
F0.000303
sS'DET'
p365
F0.0026089999999999998
sS'ADP'
p366
F0.997088
s(lp367
g37
atp368
a(g45
(dp369
S'NOUN'
p370
F3e-06
sS'DET'
p371
F0.999997
s(lp372
g45
atp373
a(g51
(dp374
S'NOUN'
p375
F1.0
s(lp376
g51
atp377
a(g57
(dp378
S'VERB'
p379
F0.9960199999999999
sS'ADJ'
p380
F0.003979
s(lp381
g57
atp382
a(g64
(dp383
S'ADP'
p384
F1.0
s(lp385
g64
atp386
a(g77
(dp387
S'ADJ'
p388
F0.000508
sS'NOUN'
p389
F0.9994930000000001
s(lp390
g77
atp391
a(S'will'
p392
(dp393
S'VERB'
p394
F0.9993639999999999
sS'NOUN'
p395
F0.000636
s(lp396
g392
atp397
a(g89
(dp398
S'ADV'
p399
F1.0
s(lp400
g89
atp401
a(g83
(dp402
S'VERB'
p403
F0.9336289999999999
sS'NOUN'
p404
F0.066371
s(lp405
g83
atp406
a(g108
(dp407
S'ADJ'
p408
F1.0
s(lp409
g108
atp410
a(g97
(dp411
S'VERB'
p412
F0.155886
sS'NOUN'
p413
F0.844114
s(lp414
g97
atp415
a(g126
(dp416
S'ADV'
p417
F0.000317
sS'PRT'
p418
F0.002428
sS'ADP'
p419
F0.997255
s(lp420
g126
atp421
a(g132
(dp422
S'NOUN'
p423
F1e-06
sS'DET'
p424
F0.999999
s(lp425
g132
atp426
a(g138
(dp427
S'NOUN'
p428
F1.0
s(lp429
g138
atp430
a(S','
p431
(dp432
g343
F1.0
s(lp433
g431
atp434
a(g145
(dp435
S'ADV'
p436
F1.0
s(lp437
g145
atp438
a(g157
(dp439
S'VERB'
p440
F0.980211
sS'ADJ'
p441
F0.019789
s(lp442
g157
atp443
a(g163
(dp444
S'ADV'
p445
F2e-06
sS'PRT'
p446
F0.999994
sS'ADP'
p447
F4e-06
s(lp448
g163
atp449
a(g169
(dp450
S'VERB'
p451
F0.959403
sS'NOUN'
p452
F0.040597
s(lp453
g169
atp454
a(g182
(dp455
S'VERB'
p456
F1.6e-05
sS'NOUN'
p457
F0.999984
s(lp458
g182
atp459
a(g189
(dp460
S'ADP'
p461
F1.0
s(lp462
g189
atp463
a(g195
(dp464
S'NOUN'
p465
F1.0
s(lp466
g195
atp467
a(g201
(dp468
S'ADJ'
p469
F0.002617
sS'VERB'
p470
F0.98081
sS'NOUN'
p471
F0.016574
s(lp472
g201
atp473
a(S'off'
p474
(dp475
S'ADV'
p476
F0.02833
sS'PRT'
p477
F0.582211
sS'ADJ'
p478
F0.08012
sS'ADP'
p479
F0.309272
sS'NOUN'
p480
F6.7e-05
s(lp481
g474
atp482
a(g207
(dp483
S'NOUN'
p484
F1.0
s(lp485
g207
atp486
a(g213
(dp487
S'ADP'
p488
F1.0
s(lp489
g213
atp490
a(g219
(dp491
S'ADV'
p492
F2.9e-05
sS'NOUN'
p493
F4e-06
sS'DET'
p494
F0.999967
s(lp495
g219
atp496
a(g232
(dp497
S'ADJ'
p498
F1.0
s(lp499
g232
atp500
a(g225
(dp501
S'NOUN'
p502
F1.0
s(lp503
g225
atp504
a(g431
(dp505
g343
F1.0
s(lp506
g431
atp507
a(g238
(dp508
S'CONJ'
p509
F0.999992
sS'NOUN'
p510
F8e-06
s(lp511
g238
atp512
a(g246
(dp513
S'ADV'
p514
F0.002952
sS'DET'
p515
F0.028923
sS'ADP'
p516
F0.968125
s(lp517
g246
atp518
a(g252
(dp519
S'PRON'
p520
F1.0
s(lp521
g252
atp522
a(S'will'
p523
(dp524
S'VERB'
p525
F1.0
sS'NOUN'
p526
F0.0
s(lp527
g523
atp528
a(g265
(dp529
S'ADV'
p530
F1.0
s(lp531
g265
atp532
a(g258
(dp533
S'VERB'
p534
F1.0
s(lp535
g258
atp536
a(g271
(dp537
S'ADV'
p538
F4e-06
sS'PRT'
p539
F0.999993
sS'ADP'
p540
F2e-06
s(lp541
g271
atp542
a(g277
(dp543
S'VERB'
p544
F0.972268
sS'NOUN'
p545
F0.027732
s(lp546
g277
atp547
a(g290
(dp548
S'ADJ'
p549
F0.0056
sS'NOUN'
p550
F0.9944
s(lp551
g290
atp552
a(g296
(dp553
S'CONJ'
p554
F1.0
sS'NOUN'
p555
F0.0
s(lp556
g296
atp557
a(g307
(dp558
S'VERB'
p559
F1.0
s(lp560
g307
atp561
a(g328
(dp562
S'NOUN'
p563
F0.012131
sS'ADJ'
p564
F0.987869
s(lp565
g328
atp566
a(g321
(dp567
S'NOUN'
p568
F1.0
s(lp569
g321
atp570
a(g334
(dp571
S'ADV'
p572
F0.000162
sS'PRT'
p573
F0.000163
sS'ADP'
p574
F0.999676
s(lp575
g334
atp576
a(g341
(dp577
S'ADJ'
p578
F0.003114
sS'NOUN'
p579
F0.996886
s(lp580
g341
atp581
a(g343
(dp582
g343
F1.0
s(lp583
g343
atp584
asS'nl'
p585
(lp586
(S'ik'
p587
(dp588
S'PRON'
p589
F0.999986
sS'NOUN'
p590
F1.4e-05
s(lp591
g10
atp592
a(S'hoop'
p593
(dp594
S'VERB'
p595
F0.662027
sS'NOUN'
p596
F0.337973
s(lp597
g29
atp598
a(S'dat'
p599
(dp600
S'PRON'
p601
F0.042265
sS'CONJ'
p602
F0.957735
s(lp603
g37
atp604
a(S'de'
p605
(dp606
S'DET'
p607
F1.0
s(lp608
g45
atp609
a(S'sluiting'
p610
(dp611
S'NOUN'
p612
F1.0
s(lp613
tp614
a(S'van'
p615
(dp616
S'ADP'
p617
F1.0
s(lp618
tp619
a(S'de'
p620
(dp621
S'DET'
p622
F1.0
s(lp623
tp624
a(S'overeenkomst'
p625
(dp626
S'NOUN'
p627
F1.0
s(lp628
g51
atp629
a(S'met'
p630
(dp631
S'ADP'
p632
F1.0
s(lp633
g64
atp634
a(S'kameroen'
p635
(dp636
S'NOUN'
p637
F1.0
s(lp638
g77
atp639
a(S'effectief'
p640
(dp641
S'ADJ'
p642
F1.0
s(lp643
g89
atp644
a(S'zal'
p645
(dp646
S'VERB'
p647
F1.0
s(lp648
g392
atp649
a(S'bijdragen'
p650
(dp651
S'VERB'
p652
F0.899995
sS'NOUN'
p653
F0.100005
s(lp654
g258
atp655
a(S'aan'
p656
(dp657
S'ADV'
p658
F0.002143
sS'ADP'
p659
F0.997857
s(lp660
tp661
a(S'de'
p662
(dp663
S'DET'
p664
F1.0
s(lp665
tp666
a(S'bestrijding'
p667
(dp668
S'NOUN'
p669
F1.0
s(lp670
g83
atp671
a(S'van'
p672
(dp673
S'ADP'
p674
F1.0
s(lp675
tp676
a(S'illegale'
p677
(dp678
S'NOUN'
p679
F0.007927
sS'ADJ'
p680
F0.992073
s(lp681
g108
atp682
a(S'houtkap'
p683
(dp684
S'NOUN'
p685
F1.0
s(lp686
g97
atp687
a(S'in'
p688
(dp689
S'ADV'
p690
F0.002982
sS'VERB'
p691
F3e-06
sS'ADP'
p692
F0.997016
s(lp693
g126
atp694
a(S'het'
p695
(dp696
S'PRON'
p697
F0.000933
sS'DET'
p698
F0.999067
s(lp699
g132
atp700
a(S'land'
p701
(dp702
S'VERB'
p703
F5e-06
sS'NOUN'
p704
F0.999995
s(lp705
g138
atp706
a(S'en'
p707
(dp708
S'CONJ'
p709
F1.0
s(lp710
g431
atp711
a(S'zal'
p712
(dp713
S'VERB'
p714
F1.0
s(lp715
g157
atp716
a(S'leiden'
p717
(dp718
S'VERB'
p719
F0.999658
sS'NOUN'
p720
F0.000342
s(lp721
g258
atp722
a(S'tot'
p723
(dp724
S'CONJ'
p725
F0.000204
sS'ADP'
p726
F0.999796
s(lp727
g163
atp728
a(S'een'
p729
(dp730
S'ADJ'
p731
F1e-06
sS'PRON'
p732
F1.4e-05
sS'NUM'
p733
F0.0
sS'DET'
p734
F0.999985
s(lp735
tp736
a(S'verbetering'
p737
(dp738
S'NOUN'
p739
F1.0
s(lp740
g169
atp741
a(S'van'
p742
(dp743
S'ADP'
p744
F1.0
s(lp745
tp746
a(S'de'
p747
(dp748
S'DET'
p749
F1.0
s(lp750
tp751
a(S'omstandigheden'
p752
(dp753
S'NOUN'
p754
F1.0
s(lp755
g182
atp756
a(S'van'
p757
(dp758
S'ADP'
p759
F1.0
s(lp760
g189
atp761
a(S'de'
p762
(dp763
S'DET'
p764
F1.0
s(lp765
g169
atp766
a(S'bevolking'
p767
(dp768
S'NOUN'
p769
F1.0
s(lp770
g195
atp771
a(S'die'
p772
(dp773
S'PRON'
p774
F1.0
s(lp775
g201
atp776
a(S'haar'
p777
(dp778
S'ADV'
p779
F2.2e-05
sS'PRON'
p780
F0.999978
sS'NOUN'
p781
F0.0
s(lp782
g157
atp783
a(S'inkomsten'
p784
(dp785
S'NOUN'
p786
F1.0
s(lp787
g207
atp788
a(S'uit'
p789
(dp790
S'ADV'
p791
F0.039369
sS'VERB'
p792
F3.1e-05
sS'ADP'
p793
F0.9606
s(lp794
g213
atp795
a(S'deze'
p796
(dp797
S'PRON'
p798
F1.0
s(lp799
g219
atp800
a(S'economische'
p801
(dp802
S'NOUN'
p803
F9.7e-05
sS'ADJ'
p804
F0.999903
s(lp805
g232
atp806
a(S'sector'
p807
(dp808
S'NOUN'
p809
F1.0
s(lp810
g225
atp811
a(S'haalt'
p812
(dp813
S'VERB'
p814
F1.0
s(lp815
g474
atp816
a(g431
(dp817
g343
F1.0
s(lp818
g431
atp819
a(S'en'
p820
(dp821
S'CONJ'
p822
F1.0
s(lp823
g238
atp824
a(S'dat'
p825
(dp826
S'PRON'
p827
F0.192468
sS'CONJ'
p828
F0.807532
s(lp829
g246
atp830
a(S'ze'
p831
(dp832
S'PRON'
p833
F1.0
s(lp834
g252
atp835
a(S'tegelijkertijd'
p836
(dp837
S'ADV'
p838
F1.0
s(lp839
g265
atp840
a(S'de'
p841
(dp842
S'DET'
p843
F1.0
s(lp844
g277
atp845
a(S'bescherming'
p846
(dp847
S'NOUN'
p848
F1.0
s(lp849
g307
atp850
a(S'van'
p851
(dp852
S'ADP'
p853
F1.0
s(lp854
tp855
a(S'de'
p856
(dp857
S'DET'
p858
F1.0
s(lp859
tp860
a(S'biodiversiteit'
p861
(dp862
S'NOUN'
p863
F1.0
s(lp864
g290
atp865
a(S'en'
p866
(dp867
S'CONJ'
p868
F1.0
s(lp869
g296
atp870
a(S'de'
p871
(dp872
S'DET'
p873
F1.0
s(lp874
g277
atp875
a(S'natuurlijke'
p876
(dp877
S'NOUN'
p878
F1e-06
sS'ADJ'
p879
F0.999999
s(lp880
g328
atp881
a(S'rijkdommen'
p882
(dp883
S'NOUN'
p884
F1.0
s(lp885
g321
atp886
a(S'van'
p887
(dp888
S'ADP'
p889
F1.0
s(lp890
g334
atp891
a(S'kameroen'
p892
(dp893
S'NOUN'
p894
F1.0
s(lp895
g341
atp896
a(S'in'
p897
(dp898
S'ADV'
p899
F0.002979
sS'VERB'
p900
F2e-06
sS'ADP'
p901
F0.997018
s(lp902
tp903
a(S'de'
p904
(dp905
S'DET'
p906
F1.0
s(lp907
g307
atp908
a(S'hand'
p909
(dp910
S'NOUN'
p911
F1.0
s(lp912
tp913
a(S'zal'
p914
(dp915
S'VERB'
p916
F1.0
s(lp917
g523
atp918
a(S'werken'
p919
(dp920
S'VERB'
p921
F0.9969279999999999
sS'NOUN'
p922
F0.003072
s(lp923
g341
atp924
a(g343
(dp925
g343
F1.0
s(lp926
g343
atp927
asS'de'
p928
(lp929
(S'ich'
p930
(dp931
S'PRON'
p932
F1.0
s(lp933
g10
atp934
a(S'bin'
p935
(dp936
S'VERB'
p937
F1.0
s(lp938
g16
atp939
a(S'hoffnungsvoll'
p940
(dp941
S'ADJ'
p942
F1.0
s(lp943
g29
atp944
a(g431
(dp945
g343
F1.0
s(lp946
tp947
a(S'dass'
p948
(dp949
S'CONJ'
p950
F1.0
s(lp951
g37
atp952
a(S'das'
p953
(dp954
S'PRON'
p955
F0.769024
sS'DET'
p956
F0.222989
s(lp957
tp958
a(S'mit'
p959
(dp960
S'PRT'
p961
F0.002
sS'ADP'
p962
F0.998
s(lp963
g64
atp964
a(S'kamerun'
p965
(dp966
S'ADJ'
p967
F0.337525
sS'NOUN'
p968
F0.600408
s(lp969
g77
atp970
a(S'ausgehandelte'
p971
(dp972
S'ADJ'
p973
F1.0
s(lp974
g57
atp975
a(S'abkommen'
p976
(dp977
S'VERB'
p978
F1.0
s(lp979
g51
atp980
a(S'den'
p981
(dp982
S'PRON'
p983
F0.001378
sS'DET'
p984
F0.998622
s(lp985
g45
atp986
a(S'illegalen'
p987
(dp988
S'ADJ'
p989
F1.0
s(lp990
g108
atp991
a(S'holzeinschlag'
p992
(dp993
S'ADJ'
p994
F0.002243
sS'NOUN'
p995
F0.995744
s(lp996
g97
atp997
a(S'in'
p998
(dp999
S'ADP'
p1000
F1.0
s(lp1001
g126
atp1002
a(S'dem'
p1003
(dp1004
S'PRON'
p1005
F0.002561
sS'DET'
p1006
F0.99725
s(lp1007
g132
atp1008
a(S'land'
p1009
(dp1010
S'NOUN'
p1011
F0.366173
sS'ADJ'
p1012
F0.408064
s(lp1013
g138
atp1014
a(S'wirksam'
p1015
(dp1016
S'ADJ'
p1017
F1.0
s(lp1018
g89
atp1019
a(S'bek\xc3\xa4mpfen'
p1020
(dp1021
S'VERB'
p1022
F1.0
s(lp1023
g83
atp1024
a(S'und'
p1025
(dp1026
S'CONJ'
p1027
F1.0
s(lp1028
g431
atp1029
a(S'somit'
p1030
(dp1031
S'ADV'
p1032
F1.0
s(lp1033
g145
atp1034
a(S'zu'
p1035
(dp1036
S'PRT'
p1037
F0.215023
sS'ADP'
p1038
F0.598047
s(lp1039
g163
atp1040
a(S'verbesserten'
p1041
(dp1042
S'VERB'
p1043
F0.000502
sS'ADJ'
p1044
F0.999498
s(lp1045
tp1046
a(S'bedingungen'
p1047
(dp1048
g6
F0.002962
sS'NOUN'
p1049
F0.99273
s(lp1050
g182
atp1051
a(S'f\xc3\xbcr'
p1052
(dp1053
S'ADP'
p1054
F1.0
s(lp1055
g189
atp1056
a(S'die'
p1057
(dp1058
S'PRON'
p1059
F0.000213
sS'DET'
p1060
F0.99973
s(lp1061
g169
atp1062
a(S'bev\xc3\xb6lkerung'
p1063
(dp1064
S'ADJ'
p1065
F0.027077
sS'NOUN'
p1066
F0.958602
s(lp1067
g195
atp1068
a(S'beitragen'
p1069
(dp1070
S'VERB'
p1071
F1.0
s(lp1072
tp1073
a(S'wird'
p1074
(dp1075
S'VERB'
p1076
F1.0
s(lp1077
g392
atp1078
a(g431
(dp1079
g343
F1.0
s(lp1080
tp1081
a(S'die'
p1082
(dp1083
S'PRON'
p1084
F0.969166
sS'DET'
p1085
F0.026175
s(lp1086
tp1087
a(S'von'
p1088
(dp1089
S'NOUN'
p1090
F9.6e-05
sS'ADP'
p1091
F0.999904
s(lp1092
tp1093
a(S'dem'
p1094
(dp1095
S'PRON'
p1096
F0.452359
sS'DET'
p1097
F0.543852
s(lp1098
g474
atp1099
a(S'einkommen'
p1100
(dp1101
S'VERB'
p1102
F1.0
s(lp1103
g207
atp1104
a(S'aus'
p1105
(dp1106
S'PRT'
p1107
F0.001026
sS'ADP'
p1108
F0.998931
s(lp1109
g213
atp1110
a(S'diesem'
p1111
(dp1112
S'PRON'
p1113
F1.0
s(lp1114
g219
atp1115
a(S'wirtschaftsbereich'
p1116
(dp1117
S'ADJ'
p1118
F0.01739
sS'NOUN'
p1119
F0.981515
s(lp1120
g232
atp1121
a(S'leben'
p1122
(dp1123
S'VERB'
p1124
F1.0
s(lp1125
g201
atp1126
a(g431
(dp1127
g343
F1.0
s(lp1128
g431
atp1129
a(S'und'
p1130
(dp1131
S'CONJ'
p1132
F1.0
s(lp1133
g238
atp1134
a(S'dass'
p1135
(dp1136
S'CONJ'
p1137
F1.0
s(lp1138
g246
atp1139
a(S'es'
p1140
(dp1141
S'PRON'
p1142
F1.0
s(lp1143
g252
atp1144
a(S'auch'
p1145
(dp1146
S'ADV'
p1147
F1.0
s(lp1148
g265
atp1149
a(S'zu'
p1150
(dp1151
S'ADV'
p1152
F0.002094
sS'ADP'
p1153
F0.995388
s(lp1154
g271
atp1155
a(S'einer'
p1156
(dp1157
S'PRON'
p1158
F0.000501
sS'DET'
p1159
F0.998726
s(lp1160
g277
atp1161
a(S'verbesserung'
p1162
(dp1163
S'VERB'
p1164
F0.000106
sS'NOUN'
p1165
F0.999735
s(lp1166
tp1167
a(S'der'
p1168
(dp1169
S'PRON'
p1170
F8.6e-05
sS'DET'
p1171
F0.999906
s(lp1172
g277
atp1173
a(S'biologischen'
p1174
(dp1175
S'ADJ'
p1176
F1.0
s(lp1177
tp1178
a(S'vielfalt'
p1179
(dp1180
S'ADJ'
p1181
F0.044108
sS'NOUN'
p1182
F0.954433
s(lp1183
g290
atp1184
a(S'und'
p1185
(dp1186
S'CONJ'
p1187
F1.0
s(lp1188
g296
atp1189
a(S'den'
p1190
(dp1191
S'PRON'
p1192
F0.003479
sS'DET'
p1193
F0.996132
s(lp1194
tp1195
a(S'schutz'
p1196
(dp1197
S'ADJ'
p1198
F0.013055
sS'NOUN'
p1199
F0.970932
s(lp1200
g307
atp1201
a(S'der'
p1202
(dp1203
S'PRON'
p1204
F9e-05
sS'DET'
p1205
F0.99988
s(lp1206
tp1207
a(S'nat\xc3\xbcrlichen'
p1208
(dp1209
S'ADJ'
p1210
F1.0
s(lp1211
g328
atp1212
a(S'ressourcen'
p1213
(dp1214
S'NOUN'
p1215
F0.9907659999999999
s(lp1216
g321
atp1217
a(S'in'
p1218
(dp1219
S'ADP'
p1220
F1.0
s(lp1221
g334
atp1222
a(S'kamerun'
p1223
(dp1224
S'ADJ'
p1225
F0.130118
sS'NOUN'
p1226
F0.858171
s(lp1227
g341
atp1228
a(S'beitragen'
p1229
(dp1230
S'VERB'
p1231
F1.0
s(lp1232
g258
atp1233
a(S'wird'
p1234
(dp1235
S'VERB'
p1236
F1.0
s(lp1237
tp1238
a(g343
(dp1239
g343
F1.0
s(lp1240
g343
atp1241
asS'it'
p1242
(lp1243
(S'mi'
p1244
(dp1245
S'PRON'
p1246
F1.0
s(lp1247
g10
atp1248
a(S'auguro'
p1249
(dp1250
S'VERB'
p1251
F1.0
s(lp1252
g29
atp1253
a(S'che'
p1254
(dp1255
S'PRON'
p1256
F0.86208
sS'CONJ'
p1257
F0.137494
sS'ADJ'
p1258
F0.000427
s(lp1259
g37
atp1260
a(S"l'"
p1261
(dp1262
S'NOUN'
p1263
F0.00217
sS'VERB'
p1264
F0.9889040000000001
sS'ADJ'
p1265
F0.008924
s(lp1266
g45
atp1267
a(S'accordo'
p1268
(dp1269
S'VERB'
p1270
F0.065709
sS'NOUN'
p1271
F0.934291
s(lp1272
g51
atp1273
a(S'negoziato'
p1274
(dp1275
S'ADJ'
p1276
F0.181919
sS'VERB'
p1277
F0.458027
sS'NOUN'
p1278
F0.360055
s(lp1279
g57
atp1280
a(S'con'
p1281
(dp1282
S'ADP'
p1283
F1.0
s(lp1284
g64
atp1285
a(S'il'
p1286
(dp1287
S'DET'
p1288
F1.0
s(lp1289
g77
atp1290
a(S'camerun'
p1291
(dp1292
S'NOUN'
p1293
F1.0
s(lp1294
tp1295
a(S'serva'
p1296
(dp1297
S'VERB'
p1298
F0.9480299999999999
sS'NOUN'
p1299
F0.05197
s(lp1300
g77
atp1301
a(S'a'
p1302
(dp1303
S'CONJ'
p1304
F6.9e-05
sS'ADP'
p1305
F0.999931
s(lp1306
g392
atp1307
a(S'combattere'
p1308
(dp1309
S'VERB'
p1310
F1.0
s(lp1311
g83
atp1312
a(S'realmente'
p1313
(dp1314
S'ADV'
p1315
F1.0
s(lp1316
g89
atp1317
a(S'tale'
p1318
(dp1319
S'PRON'
p1320
F0.996331
sS'CONJ'
p1321
F0.003634
sS'NOUN'
p1322
F3.4e-05
s(lp1323
tp1324
a(S'fenomeno'
p1325
(dp1326
S'NOUN'
p1327
F1.0
s(lp1328
g97
atp1329
a(S'illegale'
p1330
(dp1331
S'ADJ'
p1332
F1.0
s(lp1333
g108
atp1334
a(S'nel'
p1335
(dp1336
S'ADP'
p1337
F1.0
s(lp1338
g126
atp1339
a(S'paese'
p1340
(dp1341
S'NOUN'
p1342
F1.0
s(lp1343
g138
atp1344
a(g431
(dp1345
g343
F1.0
s(lp1346
g431
atp1347
a(S'contribuendo'
p1348
(dp1349
S'VERB'
p1350
F1.0
s(lp1351
g157
atp1352
a(S'cos\xc3\xac'
p1353
(dp1354
S'ADV'
p1355
F0.952513
sS'CONJ'
p1356
F0.047487
s(lp1357
g145
atp1358
a(g1302
(dp1359
S'CONJ'
p1360
F0.000247
sS'ADP'
p1361
F0.999753
s(lp1362
g163
atp1363
a(S'migliorare'
p1364
(dp1365
S'VERB'
p1366
F1.0
s(lp1367
g169
atp1368
a(S'le'
p1369
(dp1370
S'PRON'
p1371
F0.0
sS'DET'
p1372
F1.0
s(lp1373
tp1374
a(S'condizioni'
p1375
(dp1376
S'VERB'
p1377
F5.2e-05
sS'NOUN'
p1378
F0.999948
s(lp1379
g182
atp1380
a(S'della'
p1381
(dp1382
S'DEF'
p1383
F0.00159
sS'ADP'
p1384
F0.99841
s(lp1385
g189
atp1386
a(S'popolazione'
p1387
(dp1388
S'NOUN'
p1389
F1.0
s(lp1390
g195
atp1391
a(g431
(dp1392
g343
F1.0
s(lp1393
g431
atp1394
a(S'il'
p1395
(dp1396
S'DET'
p1397
F1.0
s(lp1398
tp1399
a(S'cui'
p1400
(dp1401
S'PRON'
p1402
F1.0
s(lp1403
g246
atp1404
a(S'sostentamento'
p1405
(dp1406
S'NOUN'
p1407
F1.0
s(lp1408
g201
atp1409
a(S'si'
p1410
(dp1411
S'PRON'
p1412
F0.999997
sS'NOUN'
p1413
F3e-06
s(lp1414
tp1415
a(S'basa'
p1416
(dp1417
S'VERB'
p1418
F1.0
s(lp1419
g474
atp1420
a(S'su'
p1421
(dp1422
S'ADV'
p1423
F0.02598
sS'ADP'
p1424
F0.97402
s(lp1425
g213
atp1426
a(S'questo'
p1427
(dp1428
S'PRON'
p1429
F1.0
s(lp1430
g219
atp1431
a(S'settore'
p1432
(dp1433
S'ADJ'
p1434
F0.004341
sS'NOUN'
p1435
F0.995659
s(lp1436
g225
atp1437
a(S'economico'
p1438
(dp1439
S'ADJ'
p1440
F1.0
s(lp1441
g232
atp1442
a(S'oltre'
p1443
(dp1444
S'ADV'
p1445
F0.527375
sS'CONJ'
p1446
F0.466257
sS'ADP'
p1447
F0.006368
s(lp1448
g265
atp1449
a(g1302
(dp1450
S'CONJ'
p1451
F0.000213
sS'ADP'
p1452
F0.999787
s(lp1453
g271
atp1454
a(S'migliorare'
p1455
(dp1456
S'VERB'
p1457
F1.0
s(lp1458
g277
atp1459
a(S'la'
p1460
(dp1461
S'PRON'
p1462
F0.0
sS'DET'
p1463
F1.0
s(lp1464
g290
atp1465
a(S'situazione'
p1466
(dp1467
S'NOUN'
p1468
F1.0
s(lp1469
g252
atp1470
a(S'della'
p1471
(dp1472
S'DEF'
p1473
F0.001587
sS'ADP'
p1474
F0.998413
s(lp1475
tp1476
a(S'biodiversit\xc3\xa0'
p1477
(dp1478
S'NOUN'
p1479
F1.0
s(lp1480
g290
atp1481
a(S'e'
p1482
(dp1483
S'CONJ'
p1484
F1.0
s(lp1485
g296
atp1486
a(g1302
(dp1487
S'CONJ'
p1488
F0.00017
sS'ADP'
p1489
F0.99983
s(lp1490
g334
atp1491
a(S'proteggere'
p1492
(dp1493
S'VERB'
p1494
F1.0
s(lp1495
g307
atp1496
a(S'le'
p1497
(dp1498
S'PRON'
p1499
F1e-06
sS'DET'
p1500
F0.999999
s(lp1501
tp1502
a(S'risorse'
p1503
(dp1504
S'VERB'
p1505
F3e-06
sS'NOUN'
p1506
F0.999997
s(lp1507
g321
atp1508
a(S'naturali'
p1509
(dp1510
S'NOUN'
p1511
F0.0167
sS'ADJ'
p1512
F0.9833
s(lp1513
g328
atp1514
a(S'del'
p1515
(dp1516
S'DEF'
p1517
F0.002124
sS'ADP'
p1518
F0.997876
s(lp1519
tp1520
a(S'camerun'
p1521
(dp1522
S'NOUN'
p1523
F1.0
s(lp1524
g341
atp1525
a(g343
(dp1526
g343
F1.0
s(lp1527
g343
atp1528
asS'sk'
p1529
(lp1530
(S'd\xc3\xbafam'
p1531
(dp1532
S'VERB'
p1533
F1.0
s(lp1534
g29
atp1535
a(g431
(dp1536
g343
F1.0
s(lp1537
tp1538
a(S'\xc5\xbee'
p1539
(dp1540
g6
F0.00032700000000000003
sS'CONJ'
p1541
F0.999673
s(lp1542
g37
atp1543
a(S'dohoda'
p1544
(dp1545
S'NOUN'
p1546
F1.0
s(lp1547
g51
atp1548
a(S'uzatvoren\xc3\xa1'
p1549
(dp1550
S'VERB'
p1551
F1.0
s(lp1552
g57
atp1553
a(S's'
p1554
(dp1555
g6
F0.001052
sS'CONJ'
p1556
F6.3e-05
sS'NOUN'
p1557
F3.4e-05
sS'ADP'
p1558
F0.998833
sS'PRT'
p1559
F1.8e-05
s(lp1560
g64
atp1561
a(S'kamerunom'
p1562
(dp1563
S'NOUN'
p1564
F1.0
s(lp1565
g77
atp1566
a(S'bude'
p1567
(dp1568
g6
F0.0023420000000000003
sS'VERB'
p1569
F0.997657
s(lp1570
g392
atp1571
a(S'\xc3\xba\xc4\x8dinne'
p1572
(dp1573
S'ADV'
p1574
F1.0
s(lp1575
g89
atp1576
a(S'bojova\xc5\xa5'
p1577
(dp1578
S'VERB'
p1579
F1.0
s(lp1580
tp1581
a(S'proti'
p1582
(dp1583
S'ADV'
p1584
F0.001034
sS'ADP'
p1585
F0.998966
s(lp1586
g83
atp1587
a(S'nez\xc3\xa1konnej'
p1588
(dp1589
S'ADJ'
p1590
F1.0
s(lp1591
g108
atp1592
a(S'\xc5\xa5a\xc5\xbebe'
p1593
(dp1594
S'NOUN'
p1595
F1.0
s(lp1596
tp1597
a(S'dreva'
p1598
(dp1599
S'NOUN'
p1600
F1.0
s(lp1601
g97
atp1602
a(S'v'
p1603
(dp1604
g6
F0.000506
sS'ADP'
p1605
F0.999495
s(lp1606
g126
atp1607
a(S'krajine'
p1608
(dp1609
S'NOUN'
p1610
F1.0
s(lp1611
g138
atp1612
a(g431
(dp1613
g343
F1.0
s(lp1614
tp1615
a(g1302
(dp1616
g6
F0.00035500000000000006
sS'CONJ'
p1617
F0.999637
sS'NOUN'
p1618
F1e-06
sS'ADP'
p1619
F0.0
sS'PRT'
p1620
F5e-06
s(lp1621
g431
atp1622
a(S'tak'
p1623
(dp1624
S'PRON'
p1625
F0.734809
sS'CONJ'
p1626
F0.083499
sg6
F0.18169100000000002
s(lp1627
g145
atp1628
a(S'prispeje'
p1629
(dp1630
S'VERB'
p1631
F1.0
s(lp1632
tp1633
a(S'k'
p1634
(dp1635
g6
F0.000389
sS'NOUN'
p1636
F9e-06
sS'ADP'
p1637
F0.999602
s(lp1638
g157
atp1639
a(S'zlep\xc5\xa1eniu'
p1640
(dp1641
S'NOUN'
p1642
F1.0
s(lp1643
g169
atp1644
a(S'podmienok'
p1645
(dp1646
S'NOUN'
p1647
F1.0
s(lp1648
g182
atp1649
a(S'pre'
p1650
(dp1651
g6
F5e-06
sS'ADP'
p1652
F0.999995
s(lp1653
g189
atp1654
a(S'obyvate\xc4\xbestvo'
p1655
(dp1656
S'NOUN'
p1657
F1.0
s(lp1658
g195
atp1659
a(S'\xc5\xbeij\xc3\xbace'
p1660
(dp1661
S'VERB'
p1662
F1.0
s(lp1663
g201
atp1664
a(S'z'
p1665
(dp1666
g6
F0.00041799999999999997
sS'NOUN'
p1667
F8.5e-05
sS'ADP'
p1668
F0.999497
s(lp1669
g474
atp1670
a(S'pr\xc3\xadjmu'
p1671
(dp1672
S'VERB'
p1673
F6e-06
sS'NOUN'
p1674
F0.999994
s(lp1675
g207
atp1676
a(g1665
(dp1677
g6
F6.500000000000001e-05
sS'NOUN'
p1678
F1.9e-05
sS'ADP'
p1679
F0.999915
s(lp1680
g213
atp1681
a(S'tohto'
p1682
(dp1683
S'PRON'
p1684
F0.99999
sg6
F1e-05
s(lp1685
g219
atp1686
a(S'hospod\xc3\xa1rskeho'
p1687
(dp1688
S'ADJ'
p1689
F1.0
s(lp1690
g232
atp1691
a(S'odvetvia'
p1692
(dp1693
S'NOUN'
p1694
F1.0
s(lp1695
g225
atp1696
a(g1302
(dp1697
g6
F0.0018859999999999999
sS'CONJ'
p1698
F0.998015
sS'NOUN'
p1699
F9.2e-05
sS'ADP'
p1700
F0.0
sS'PRT'
p1701
F7e-06
s(lp1702
g238
atp1703
a(S'\xc5\xbee'
p1704
(dp1705
g6
F0.003611
sS'CONJ'
p1706
F0.996389
s(lp1707
g246
atp1708
a(S'tie\xc5\xbe'
p1709
(dp1710
g6
F1.0
s(lp1711
g265
atp1712
a(S'prispeje'
p1713
(dp1714
S'VERB'
p1715
F1.0
s(lp1716
tp1717
a(g1634
(dp1718
g6
F0.000389
sS'NOUN'
p1719
F9e-06
sS'ADP'
p1720
F0.999602
s(lp1721
g258
atp1722
a(S'zlep\xc5\xa1eniu'
p1723
(dp1724
S'NOUN'
p1725
F1.0
s(lp1726
g277
atp1727
a(S'biodiverzity'
p1728
(dp1729
S'NOUN'
p1730
F1.0
s(lp1731
g290
atp1732
a(g1302
(dp1733
g6
F0.0025380000000000003
sS'CONJ'
p1734
F0.996478
sS'NOUN'
p1735
F0.00018700000000000002
sS'ADP'
p1736
F0.00077
sS'PRT'
p1737
F2.7e-05
s(lp1738
g296
atp1739
a(S'ochrane'
p1740
(dp1741
S'NOUN'
p1742
F1.0
s(lp1743
g307
atp1744
a(S'pr\xc3\xadrodn\xc3\xbdch'
p1745
(dp1746
S'ADJ'
p1747
F1.0
s(lp1748
g328
atp1749
a(S'zdrojov'
p1750
(dp1751
S'NOUN'
p1752
F1.0
s(lp1753
g321
atp1754
a(g1603
(dp1755
g6
F0.000112
sS'ADP'
p1756
F0.999888
s(lp1757
g334
atp1758
a(S'kamerune'
p1759
(dp1760
S'NOUN'
p1761
F1.0
s(lp1762
g341
atp1763
a(g343
(dp1764
g343
F1.0
s(lp1765
g343
atp1766
asS'pl'
p1767
(lp1768
(S'mam'
p1769
(dp1770
S'VERB'
p1771
F0.999999
sS'NOUN'
p1772
F1e-06
s(lp1773
g10
atp1774
a(S'nadziej\xc4\x99'
p1775
(dp1776
S'NOUN'
p1777
F1.0
s(lp1778
g29
atp1779
a(g431
(dp1780
g6
F0.0
sg343
F1.0
s(lp1781
tp1782
a(S'\xc5\xbce'
p1783
(dp1784
S'PRT'
p1785
F9.9e-05
sS'CONJ'
p1786
F0.999902
s(lp1787
g37
atp1788
a(S'umowa'
p1789
(dp1790
S'NOUN'
p1791
F1.0
s(lp1792
g51
atp1793
a(S'wynegocjowana'
p1794
(dp1795
S'ADV'
p1796
F0.00033
sS'ADJ'
p1797
F0.283543
sS'VERB'
p1798
F0.318379
sS'NOUN'
p1799
F0.397749
s(lp1800
g57
atp1801
a(g1665
(dp1802
S'PRT'
p1803
F2.9e-05
sS'VERB'
p1804
F1e-06
sS'NOUN'
p1805
F0.0
sS'ADP'
p1806
F0.9999690000000001
sg6
F0.0
s(lp1807
g64
atp1808
a(S'kamerunem'
p1809
(dp1810
S'ADJ'
p1811
F0.000196
sS'VERB'
p1812
F0.009843
sS'NOUN'
p1813
F0.9899590000000001
s(lp1814
g77
atp1815
a(S'pozwoli'
p1816
(dp1817
S'VERB'
p1818
F1.0
s(lp1819
g392
atp1820
a(S'na'
p1821
(dp1822
S'PRT'
p1823
F0.153764
sS'VERB'
p1824
F0.000582
sS'NOUN'
p1825
F0.001452
sS'ADP'
p1826
F0.8437629999999999
sg6
F0.000439
s(lp1827
tp1828
a(S'skuteczn\xc4\x85'
p1829
(dp1830
S'ADJ'
p1831
F1.0
s(lp1832
g89
atp1833
a(S'walk\xc4\x99'
p1834
(dp1835
S'NOUN'
p1836
F1.0
s(lp1837
tp1838
a(g1665
(dp1839
S'PRT'
p1840
F1e-06
sS'VERB'
p1841
F1e-06
sS'NOUN'
p1842
F0.0
sS'ADP'
p1843
F0.9999979999999999
sg6
F0.0
s(lp1844
g83
atp1845
a(S'nielegalnym'
p1846
(dp1847
S'ADJ'
p1848
F1.0
s(lp1849
g108
atp1850
a(S'wyr\xc4\x99bem'
p1851
(dp1852
S'ADV'
p1853
F1e-06
sS'VERB'
p1854
F0.477884
sS'NOUN'
p1855
F0.522116
s(lp1856
tp1857
a(S'las\xc3\xb3w'
p1858
(dp1859
S'NOUN'
p1860
F1.0
s(lp1861
g97
atp1862
a(S'w'
p1863
(dp1864
S'ADJ'
p1865
F0.0
sg6
F0.0
sS'NOUN'
p1866
F0.0
sS'ADP'
p1867
F1.000001
s(lp1868
g126
atp1869
a(S'tym'
p1870
(dp1871
S'ADV'
p1872
F2e-06
sS'NOUN'
p1873
F0.06377500000000001
sS'CONJ'
p1874
F1e-06
sS'ADJ'
p1875
F0.936222
sS'PRT'
p1876
F0.0
s(lp1877
g132
atp1878
a(S'kraju'
p1879
(dp1880
S'NOUN'
p1881
F1.0
s(lp1882
g138
atp1883
a(g431
(dp1884
g6
F0.0
sg343
F1.0
s(lp1885
g431
atp1886
a(S'przyczyniaj\xc4\x85c'
p1887
(dp1888
S'ADV'
p1889
F0.000134
sS'ADJ'
p1890
F3.7999999999999995e-05
sS'VERB'
p1891
F0.9996689999999999
sS'NOUN'
p1892
F0.00016
s(lp1893
tp1894
a(S'si\xc4\x99'
p1895
(dp1896
S'PRT'
p1897
F1.0
s(lp1898
g157
atp1899
a(S'tym'
p1900
(dp1901
S'ADV'
p1902
F0.005668
sS'ADJ'
p1903
F0.144549
sS'CONJ'
p1904
F0.002667
sS'NOUN'
p1905
F0.8468559999999999
sS'PRT'
p1906
F0.00026
s(lp1907
tp1908
a(S'samym'
p1909
(dp1910
S'ADJ'
p1911
F0.9999989999999999
s(lp1912
g145
atp1913
a(S'do'
p1914
(dp1915
g6
F0.0
sS'NOUN'
p1916
F7e-06
sS'ADP'
p1917
F0.999993
s(lp1918
g163
atp1919
a(S'poprawy'
p1920
(dp1921
S'NOUN'
p1922
F1.0
s(lp1923
g169
atp1924
a(S'warunk\xc3\xb3w'
p1925
(dp1926
S'NOUN'
p1927
F1.0
s(lp1928
g182
atp1929
a(S'\xc5\xbcycia'
p1930
(dp1931
S'VERB'
p1932
F0.128924
sS'NOUN'
p1933
F0.871076
s(lp1934
g201
atp1935
a(S'ludno\xc5\x9bci'
p1936
(dp1937
S'NOUN'
p1938
F1.0
s(lp1939
tp1940
a(S'utrzymuj\xc4\x85cej'
p1941
(dp1942
S'ADV'
p1943
F0.004912
sS'NOUN'
p1944
F0.032897
sS'VERB'
p1945
F0.45616700000000004
sS'ADJ'
p1946
F0.5057980000000001
sS'PRT'
p1947
F0.000227
s(lp1948
g195
atp1949
a(S'si\xc4\x99'
p1950
(dp1951
S'PRT'
p1952
F1.0
s(lp1953
g474
atp1954
a(g1665
(dp1955
S'PRT'
p1956
F0.003986
sS'VERB'
p1957
F5.5e-05
sS'NOUN'
p1958
F2.5e-05
sS'ADP'
p1959
F0.995934
sg6
F0.0
s(lp1960
tp1961
a(S'pracy'
p1962
(dp1963
S'NOUN'
p1964
F1.0
s(lp1965
g474
atp1966
a(g1863
(dp1967
g6
F0.0
sS'ADJ'
p1968
F0.0
sS'ADP'
p1969
F0.9999990000000001
sS'NOUN'
p1970
F0.0
s(lp1971
g213
atp1972
a(S'tym'
p1973
(dp1974
S'ADV'
p1975
F1e-06
sS'NOUN'
p1976
F0.006241
sS'CONJ'
p1977
F0.0
sS'ADJ'
p1978
F0.993757
sS'PRT'
p1979
F0.0
s(lp1980
g219
atp1981
a(S'sektorze'
p1982
(dp1983
S'NOUN'
p1984
F1.0
s(lp1985
g225
atp1986
a(g431
(dp1987
g6
F0.0
sg343
F1.0
s(lp1988
g431
atp1989
a(g10
(dp1990
S'PRT'
p1991
F0.004298
sS'CONJ'
p1992
F0.995579
sS'PRON'
p1993
F2.7e-05
sS'NOUN'
p1994
F1.4999999999999999e-05
sg6
F8.2e-05
s(lp1995
g238
atp1996
a(S'\xc5\xbce'
p1997
(dp1998
S'PRT'
p1999
F0.021172
sS'CONJ'
p2000
F0.978828
s(lp2001
g246
atp2002
a(S'przyczyni'
p2003
(dp2004
S'VERB'
p2005
F1.0
s(lp2006
tp2007
a(S'si\xc4\x99'
p2008
(dp2009
S'PRT'
p2010
F1.0
s(lp2011
g258
atp2012
a(S'r\xc3\xb3wnie\xc5\xbc'
p2013
(dp2014
S'PRT'
p2015
F0.974032
sS'CONJ'
p2016
F0.025968
s(lp2017
g265
atp2018
a(S'do'
p2019
(dp2020
g6
F0.0
sS'NOUN'
p2021
F6e-06
sS'ADP'
p2022
F0.999994
s(lp2023
g271
atp2024
a(S'poprawy'
p2025
(dp2026
S'NOUN'
p2027
F1.0
s(lp2028
g277
atp2029
a(S'r\xc3\xb3\xc5\xbcnorodno\xc5\x9bci'
p2030
(dp2031
S'NOUN'
p2032
F1.0
s(lp2033
tp2034
a(S'biologicznej'
p2035
(dp2036
S'ADJ'
p2037
F1.0
s(lp2038
g290
atp2039
a(g10
(dp2040
S'PRT'
p2041
F0.002298
sS'CONJ'
p2042
F0.99762
sS'PRON'
p2043
F4.9999999999999996e-06
sS'NOUN'
p2044
F5.1e-05
sg6
F2.7e-05
s(lp2045
g296
atp2046
a(S'ochrony'
p2047
(dp2048
S'NOUN'
p2049
F1.0
s(lp2050
g307
atp2051
a(S'zasob\xc3\xb3w'
p2052
(dp2053
S'NOUN'
p2054
F1.0
s(lp2055
g321
atp2056
a(S'naturalnych'
p2057
(dp2058
S'ADJ'
p2059
F1.0
s(lp2060
g328
atp2061
a(S'kamerunu'
p2062
(dp2063
S'NOUN'
p2064
F0.9999999999999999
s(lp2065
g341
atp2066
a(g343
(dp2067
g343
F1.0
s(lp2068
g343
atp2069
asS'sl'
p2070
(lp2071
(S'upam'
p2072
(dp2073
S'VERB'
p2074
F1.0
s(lp2075
g29
atp2076
a(g431
(dp2077
g343
F1.0
s(lp2078
tp2079
a(S'da'
p2080
(dp2081
S'PRT'
p2082
F0.000131
sS'CONJ'
p2083
F0.999856
sS'VERB'
p2084
F1.2e-05
sg6
F0.0
s(lp2085
g37
atp2086
a(S'bo'
p2087
(dp2088
S'VERB'
p2089
F1.0
s(lp2090
g392
atp2091
a(S'sporazum'
p2092
(dp2093
S'NOUN'
p2094
F1.0
s(lp2095
g51
atp2096
a(g431
(dp2097
g343
F1.0
s(lp2098
tp2099
a(S'dogovorjen'
p2100
(dp2101
S'ADJ'
p2102
F1.0
s(lp2103
g57
atp2104
a(g1554
(dp2105
S'VERB'
p2106
F1e-06
sS'NOUN'
p2107
F5.4e-05
sS'ADP'
p2108
F0.999945
s(lp2109
g64
atp2110
a(S'kamerunom'
p2111
(dp2112
S'ADV'
p2113
F1.2e-05
sS'ADJ'
p2114
F2e-06
sS'VERB'
p2115
F5.999999999999999e-06
sS'NOUN'
p2116
F0.9999810000000001
s(lp2117
g77
atp2118
a(g431
(dp2119
g343
F1.0
s(lp2120
tp2121
a(S'u\xc4\x8dinkovito'
p2122
(dp2123
S'ADV'
p2124
F0.02497
sS'ADJ'
p2125
F0.97503
s(lp2126
tp2127
a(S'sredstvo'
p2128
(dp2129
S'NOUN'
p2130
F1.0
s(lp2131
g89
atp2132
a(S'za'
p2133
(dp2134
S'ADV'
p2135
F2.2e-05
sg6
F2e-06
sS'ADP'
p2136
F0.999976
s(lp2137
g271
atp2138
a(S'boj'
p2139
(dp2140
S'NOUN'
p2141
F1.0
s(lp2142
tp2143
a(S'proti'
p2144
(dp2145
S'ADV'
p2146
F0.000307
sS'ADP'
p2147
F0.999693
s(lp2148
g83
atp2149
a(S'nezakoniti'
p2150
(dp2151
S'ADV'
p2152
F4.3e-05
sS'NOUN'
p2153
F5.0999999999999986e-05
sS'VERB'
p2154
F0.000852
sS'ADJ'
p2155
F0.999051
s(lp2156
g108
atp2157
a(S'se\xc4\x8dnji'
p2158
(dp2159
S'NOUN'
p2160
F1.0
s(lp2161
g97
atp2162
a(g1603
(dp2163
S'ADP'
p2164
F1.0
s(lp2165
g126
atp2166
a(S'dr\xc5\xbeavi'
p2167
(dp2168
S'NOUN'
p2169
F1.0
s(lp2170
g138
atp2171
a(g431
(dp2172
g343
F1.0
s(lp2173
g431
atp2174
a(S'kar'
p2175
(dp2176
S'ADV'
p2177
F0.030688
sS'PRON'
p2178
F0.9693120000000001
s(lp2179
tp2180
a(S'bo'
p2181
(dp2182
S'VERB'
p2183
F1.0
s(lp2184
g145
atp2185
a(S'prispevalo'
p2186
(dp2187
S'VERB'
p2188
F1.0
s(lp2189
tp2190
a(g1634
(dp2191
S'NOUN'
p2192
F0.000469
sS'ADP'
p2193
F0.999531
s(lp2194
g157
atp2195
a(S'bolj\xc5\xa1im'
p2196
(dp2197
S'ADJ'
p2198
F1.0
s(lp2199
g169
atp2200
a(S'razmeram'
p2201
(dp2202
S'NOUN'
p2203
F1.0
s(lp2204
g182
atp2205
a(S'za'
p2206
(dp2207
S'ADV'
p2208
F2.8e-05
sg6
F5e-06
sS'ADP'
p2209
F0.999968
s(lp2210
g189
atp2211
a(S'prebivalstvo'
p2212
(dp2213
S'NOUN'
p2214
F1.0
s(lp2215
g195
atp2216
a(g431
(dp2217
g343
F1.0
s(lp2218
tp2219
a(S'ki'
p2220
(dp2221
S'CONJ'
p2222
F1.0
s(lp2223
g201
atp2224
a(S'se'
p2225
(dp2226
S'PRON'
p2227
F1.0
sg6
F0.0
s(lp2228
tp2229
a(S'pre\xc5\xbeivlja'
p2230
(dp2231
S'VERB'
p2232
F1.0
s(lp2233
g474
atp2234
a(g1554
(dp2235
S'VERB'
p2236
F5.1e-05
sS'NOUN'
p2237
F0.000165
sS'ADP'
p2238
F0.999783
s(lp2239
g213
atp2240
a(S'to'
p2241
(dp2242
S'PRON'
p2243
F0.9999170000000001
sg6
F8.3e-05
s(lp2244
g219
atp2245
a(S'gospodarsko'
p2246
(dp2247
S'ADV'
p2248
F0.001934
sS'ADJ'
p2249
F0.998066
s(lp2250
g232
atp2251
a(S'panogo'
p2252
(dp2253
S'NOUN'
p2254
F1.0
s(lp2255
g225
atp2256
a(g431
(dp2257
g343
F1.0
s(lp2258
g431
atp2259
a(S'in'
p2260
(dp2261
S'ADV'
p2262
F0.000124
sg6
F1.1e-05
sS'CONJ'
p2263
F0.999857
sS'NOUN'
p2264
F8e-06
s(lp2265
g238
atp2266
a(S'da'
p2267
(dp2268
S'PRT'
p2269
F0.005462
sS'CONJ'
p2270
F0.994145
sS'VERB'
p2271
F0.000385
sg6
F9e-06
s(lp2272
g246
atp2273
a(S'bo'
p2274
(dp2275
S'VERB'
p2276
F1.0
s(lp2277
g523
atp2278
a(S'prispeval'
p2279
(dp2280
S'VERB'
p2281
F1.0
s(lp2282
tp2283
a(S'tudi'
p2284
(dp2285
S'PRT'
p2286
F1.0
s(lp2287
g265
atp2288
a(g1634
(dp2289
S'NOUN'
p2290
F7e-06
sS'ADP'
p2291
F0.999993
s(lp2292
g258
atp2293
a(S've\xc4\x8dji'
p2294
(dp2295
S'ADJ'
p2296
F0.9999990000000001
s(lp2297
g277
atp2298
a(S'biotski'
p2299
(dp2300
S'ADV'
p2301
F0.000211
sS'ADJ'
p2302
F0.17695000000000002
sS'VERB'
p2303
F0.001029
sS'NOUN'
p2304
F0.8218089999999999
s(lp2305
tp2306
a(S'raznovrstnosti'
p2307
(dp2308
S'NOUN'
p2309
F1.0
s(lp2310
g290
atp2311
a(S'in'
p2312
(dp2313
S'ADV'
p2314
F0.00017
sg6
F2.2e-05
sS'CONJ'
p2315
F0.99978
sS'NOUN'
p2316
F2.8e-05
s(lp2317
g296
atp2318
a(S'za\xc5\xa1\xc4\x8diti'
p2319
(dp2320
S'VERB'
p2321
F0.257561
sS'NOUN'
p2322
F0.742439
s(lp2323
g307
atp2324
a(S'naravnih'
p2325
(dp2326
S'ADJ'
p2327
F1.0
s(lp2328
g328
atp2329
a(S'virov'
p2330
(dp2331
S'NOUN'
p2332
F1.0
s(lp2333
g321
atp2334
a(g1603
(dp2335
S'ADP'
p2336
F1.0
s(lp2337
g334
atp2338
a(S'kamerunu'
p2339
(dp2340
S'ADV'
p2341
F2e-05
sS'ADJ'
p2342
F7.4e-05
sS'VERB'
p2343
F7e-06
sS'NOUN'
p2344
F0.9998980000000001
s(lp2345
g341
atp2346
a(g343
(dp2347
g343
F1.0
s(lp2348
g343
atp2349
asS'es'
p2350
(lp2351
(S'espero'
p2352
(dp2353
S'VERB'
p2354
F1.0
s(lp2355
g29
atp2356
a(S'que'
p2357
(dp2358
g6
F0.0
sS'CONJ'
p2359
F1.0
s(lp2360
g37
atp2361
a(S'el'
p2362
(dp2363
S'PRON'
p2364
F0.000589
sS'DET'
p2365
F0.999411
s(lp2366
g45
atp2367
a(S'acuerdo'
p2368
(dp2369
S'VERB'
p2370
F0.000652
sS'NOUN'
p2371
F0.999348
s(lp2372
g51
atp2373
a(S'negociado'
p2374
(dp2375
S'VERB'
p2376
F1.0
s(lp2377
g57
atp2378
a(S'con'
p2379
(dp2380
S'ADP'
p2381
F1.0
s(lp2382
g64
atp2383
a(S'camer\xc3\xban'
p2384
(dp2385
S'NOUN'
p2386
F1.0
s(lp2387
g77
atp2388
a(S'luche'
p2389
(dp2390
S'VERB'
p2391
F1.0
s(lp2392
tp2393
a(S'efectivamente'
p2394
(dp2395
S'ADV'
p2396
F1.0
s(lp2397
g89
atp2398
a(S'contra'
p2399
(dp2400
S'ADP'
p2401
F1.0
s(lp2402
g83
atp2403
a(S'la'
p2404
(dp2405
S'NOUN'
p2406
F0.0
sS'PRON'
p2407
F0.0
sS'DET'
p2408
F0.999999
sg6
F0.0
s(lp2409
tp2410
a(S'explotaci\xc3\xb3n'
p2411
(dp2412
S'NOUN'
p2413
F1.0
s(lp2414
tp2415
a(S'forestal'
p2416
(dp2417
S'ADJ'
p2418
F1.0
s(lp2419
g97
atp2420
a(S'ilegal'
p2421
(dp2422
S'ADJ'
p2423
F1.0
s(lp2424
g108
atp2425
a(S'en'
p2426
(dp2427
g6
F0.0
sS'CONJ'
p2428
F1.2e-05
sS'ADP'
p2429
F0.999988
s(lp2430
g126
atp2431
a(S'dicho'
p2432
(dp2433
S'VERB'
p2434
F3.3e-05
sS'ADJ'
p2435
F0.9999669999999999
s(lp2436
g132
atp2437
a(S'pa\xc3\xads'
p2438
(dp2439
S'NOUN'
p2440
F1.0
s(lp2441
g138
atp2442
a(g431
(dp2443
g343
F1.0
s(lp2444
g431
atp2445
a(S'contribuyendo'
p2446
(dp2447
S'VERB'
p2448
F1.0
s(lp2449
g157
atp2450
a(S'as\xc3\xad'
p2451
(dp2452
S'ADV'
p2453
F0.96021
sS'CONJ'
p2454
F0.03979
s(lp2455
g145
atp2456
a(g1302
(dp2457
g6
F0.000287
sS'CONJ'
p2458
F0.355299
sS'ADP'
p2459
F0.644414
s(lp2460
g163
atp2461
a(S'mejorar'
p2462
(dp2463
S'VERB'
p2464
F1.0
s(lp2465
g169
atp2466
a(S'las'
p2467
(dp2468
S'PRON'
p2469
F2e-06
sS'DET'
p2470
F0.999998
s(lp2471
tp2472
a(S'condiciones'
p2473
(dp2474
S'NOUN'
p2475
F1.0
s(lp2476
g182
atp2477
a(S'de'
p2478
(dp2479
g6
F0.0
sS'CONJ'
p2480
F1.7e-05
sS'ADP'
p2481
F0.999983
s(lp2482
g189
atp2483
a(S'las'
p2484
(dp2485
S'PRON'
p2486
F0.0
sS'DET'
p2487
F1.0
s(lp2488
tp2489
a(S'poblaciones'
p2490
(dp2491
S'NOUN'
p2492
F1.0
s(lp2493
g195
atp2494
a(S'que'
p2495
(dp2496
g6
F3e-06
sS'CONJ'
p2497
F0.999997
s(lp2498
tp2499
a(S'viven'
p2500
(dp2501
S'VERB'
p2502
F1.0
s(lp2503
g201
atp2504
a(S'de'
p2505
(dp2506
g6
F0.0
sS'CONJ'
p2507
F2.6e-05
sS'ADP'
p2508
F0.999974
s(lp2509
g474
atp2510
a(S'los'
p2511
(dp2512
S'PRON'
p2513
F0.0
sS'DET'
p2514
F1.0
s(lp2515
g207
atp2516
a(S'ingresos'
p2517
(dp2518
S'NOUN'
p2519
F1.0
s(lp2520
tp2521
a(S'derivados'
p2522
(dp2523
S'VERB'
p2524
F0.72722
sS'ADJ'
p2525
F0.27278
s(lp2526
g207
atp2527
a(S'de'
p2528
(dp2529
g6
F0.0
sS'CONJ'
p2530
F4.7e-05
sS'ADP'
p2531
F0.999953
s(lp2532
g213
atp2533
a(S'este'
p2534
(dp2535
S'PRON'
p2536
F0.999828
sS'NOUN'
p2537
F0.000172
s(lp2538
g219
atp2539
a(S'sector'
p2540
(dp2541
S'NOUN'
p2542
F1.0
s(lp2543
g225
atp2544
a(S'econ\xc3\xb3mico'
p2545
(dp2546
S'ADJ'
p2547
F1.0
s(lp2548
g232
atp2549
a(g431
(dp2550
g343
F1.0
s(lp2551
g431
atp2552
a(S'y'
p2553
(dp2554
g6
F0.000728
sS'CONJ'
p2555
F0.999272
s(lp2556
g238
atp2557
a(S'que'
p2558
(dp2559
g6
F0.0
sS'CONJ'
p2560
F1.0
s(lp2561
g246
atp2562
a(S'tambi\xc3\xa9n'
p2563
(dp2564
S'ADV'
p2565
F1.0
s(lp2566
g265
atp2567
a(S'ayude'
p2568
(dp2569
S'VERB'
p2570
F1.0
s(lp2571
g258
atp2572
a(g1302
(dp2573
g6
F1.3000000000000001e-05
sS'CONJ'
p2574
F0.113064
sS'ADP'
p2575
F0.886923
s(lp2576
g271
atp2577
a(S'mejorar'
p2578
(dp2579
S'VERB'
p2580
F1.0
s(lp2581
g277
atp2582
a(S'la'
p2583
(dp2584
S'PRON'
p2585
F4e-06
sS'DET'
p2586
F0.999995
sS'NOUN'
p2587
F0.0
sg6
F1e-06
s(lp2588
tp2589
a(S'biodiversidad'
p2590
(dp2591
S'NOUN'
p2592
F1.0
s(lp2593
g290
atp2594
a(g2553
(dp2595
g6
F0.001045
sS'CONJ'
p2596
F0.998955
s(lp2597
g296
atp2598
a(g1302
(dp2599
g6
F0.000234
sS'CONJ'
p2600
F0.007543
sS'ADP'
p2601
F0.992222
s(lp2602
tp2603
a(S'proteger'
p2604
(dp2605
S'VERB'
p2606
F1.0
s(lp2607
g307
atp2608
a(S'los'
p2609
(dp2610
S'PRON'
p2611
F3e-06
sS'DET'
p2612
F0.999997
s(lp2613
tp2614
a(S'recursos'
p2615
(dp2616
S'NOUN'
p2617
F1.0
s(lp2618
g321
atp2619
a(S'naturales'
p2620
(dp2621
S'ADJ'
p2622
F1.0
s(lp2623
g328
atp2624
a(S'de'
p2625
(dp2626
g6
F3.1e-05
sS'CONJ'
p2627
F0.001497
sS'ADP'
p2628
F0.998472
s(lp2629
g334
atp2630
a(S'camer\xc3\xban'
p2631
(dp2632
S'NOUN'
p2633
F1.0
s(lp2634
g341
atp2635
a(g343
(dp2636
g343
F1.0
s(lp2637
g343
atp2638
as.