(dp0
S'fr'
p1
(lp2
(S'nous'
p3
(dp4
S'PRON'
p5
F1.0
s(lp6
S'we'
p7
atp8
a(S'estimons'
p9
(dp10
S'VERB'
p11
F1.0
s(lp12
S'believe'
p13
atp14
a(S'que'
p15
(dp16
S'ADV'
p17
F0.112792
sS'PRON'
p18
F0.035686999999999997
sS'CONJ'
p19
F0.85152
s(lp20
S'that'
p21
atp22
a(S'le'
p23
(dp24
S'PRON'
p25
F0.000546
sS'DET'
p26
F0.999454
s(lp27
S'the'
p28
atp29
a(S'partenariat'
p30
(dp31
S'NOUN'
p32
F1.0
s(lp33
S'partnership'
p34
atp35
a(S'strat\xc3\xa9gique'
p36
(dp37
S'ADJ'
p38
F1.0
s(lp39
S'strategic'
p40
atp41
a(S'ue-mexique'
p42
(dp43
S'ADJ'
p44
F0.001147
sS'NOUN'
p45
F0.998853
s(lp46
S'eu-mexico'
p47
atp48
a(S'constitue'
p49
(dp50
S'VERB'
p51
F1.0
s(lp52
S'provides'
p53
atp54
a(S'le'
p55
(dp56
S'PRON'
p57
F0.008629
sS'DET'
p58
F0.991371
s(lp59
tp60
a(S'cadre'
p61
(dp62
S'VERB'
p63
F0.008771
sS'NOUN'
p64
F0.991229
s(lp65
S'framework'
p66
atp67
a(S'le'
p68
(dp69
S'PRON'
p70
F0.246222
sS'DET'
p71
F0.753778
s(lp72
S'the'
p73
atp74
a(S'plus'
p75
(dp76
S'ADV'
p77
F0.999408
sS'VERB'
p78
F0.0005920000000000001
s(lp79
tp80
a(S'appropri\xc3\xa9'
p81
(dp82
S'VERB'
p83
F0.42089
sS'ADJ'
p84
F0.57911
s(lp85
S'best'
p86
atp87
a(S'afin'
p88
(dp89
S'CONJ'
p90
F1.0
s(lp91
tp92
a(S'que'
p93
(dp94
S'ADV'
p95
F0.02513
sS'PRON'
p96
F0.496893
sS'CONJ'
p97
F0.477976
s(lp98
S'for'
p99
atp100
a(S"l'"
p101
(dp102
S'NOUN'
p103
F0.035322
sS'VERB'
p104
F0.928502
sS'ADJ'
p105
F0.036177
s(lp106
S'the'
p107
atp108
a(S'ue'
p109
(dp110
S'VERB'
p111
F0.00027
sS'NOUN'
p112
F0.99973
s(lp113
S'eu'
p114
atp115
a(S'puisse'
p116
(dp117
S'VERB'
p118
F1.0
s(lp119
S'to'
p120
atp121
a(S'apporter'
p122
(dp123
S'VERB'
p124
F1.0
s(lp125
S'support'
p126
atp127
a(S'son'
p128
(dp129
S'PRON'
p130
F0.999997
sS'NOUN'
p131
F3e-06
s(lp132
tp133
a(S'soutien'
p134
(dp135
S'NOUN'
p136
F1.0
s(lp137
g126
atp138
a(S'au'
p139
(dp140
S'ADP'
p141
F1.0
s(lp142
tp143
a(S'mexique'
p144
(dp145
S'ADJ'
p146
F0.404134
sS'VERB'
p147
F0.000142
sS'NOUN'
p148
F0.595724
s(lp149
S'mexico'
p150
atp151
a(S'dans'
p152
(dp153
S'NOUN'
p154
F3.8e-05
sS'ADP'
p155
F0.999962
s(lp156
S'in'
p157
atp158
a(S'les'
p159
(dp160
S'PRON'
p161
F5.6e-05
sS'DET'
p162
F0.999943
sS'ADP'
p163
F2e-06
s(lp164
S'the'
p165
atp166
a(S'domaines'
p167
(dp168
S'NOUN'
p169
F1.0
s(lp170
S'areas'
p171
atp172
a(S'de'
p173
(dp174
S'ADP'
p175
F1.0
s(lp176
S'of'
p177
atp178
a(S'la'
p179
(dp180
S'PRON'
p181
F1.2e-05
sS'DET'
p182
F0.999988
sS'NOUN'
p183
F0.0
s(lp184
tp185
a(S's\xc3\xa9curit\xc3\xa9'
p186
(dp187
S'NOUN'
p188
F1.0
s(lp189
S'security'
p190
atp191
a(S'publique'
p192
(dp193
S'NOUN'
p194
F0.00057
sS'ADJ'
p195
F0.99943
s(lp196
S'public'
p197
atp198
a(S'et'
p199
(dp200
S'CONJ'
p201
F1.0
s(lp202
S'and'
p203
atp204
a(S'de'
p205
(dp206
S'ADP'
p207
F1.0
s(lp208
tp209
a(S"l'"
p210
(dp211
S'ADJ'
p212
F0.160704
sS'VERB'
p213
F0.06480800000000002
sS'NOUN'
p214
F0.774488
s(lp215
S'the'
p216
atp217
a(S'\xc3\xa9tat'
p218
(dp219
S'NOUN'
p220
F1.0
s(lp221
S'rule'
p222
atp223
a(S'de'
p224
(dp225
S'ADP'
p226
F1.0
s(lp227
S'of'
p228
atp229
a(S'droit'
p230
(dp231
S'ADV'
p232
F0.003087
sS'ADJ'
p233
F0.145882
sS'NOUN'
p234
F0.851031
s(lp235
S'law'
p236
atp237
a(S'.'
p238
(dp239
g238
F1.0
s(lp240
g238
atp241
asS'en'
p242
(lp243
(g7
(dp244
S'PRON'
p245
F1.0
s(lp246
g7
atp247
a(g13
(dp248
S'VERB'
p249
F1.0
s(lp250
g13
atp251
a(g21
(dp252
S'ADV'
p253
F0.000432
sS'DET'
p254
F0.0012560000000000002
sS'ADP'
p255
F0.998311
s(lp256
g21
atp257
a(g28
(dp258
S'NOUN'
p259
F1.2e-05
sS'DET'
p260
F0.999988
s(lp261
g28
atp262
a(g47
(dp263
S'ADV'
p264
F0.001548
sS'ADJ'
p265
F0.040968
sS'VERB'
p266
F0.0037029999999999997
sS'NOUN'
p267
F0.9537810000000001
s(lp268
g47
atp269
a(g40
(dp270
S'ADJ'
p271
F1.0
s(lp272
g40
atp273
a(g34
(dp274
S'NOUN'
p275
F1.0
s(lp276
g34
atp277
a(g53
(dp278
S'VERB'
p279
F1.0
s(lp280
g53
atp281
a(g73
(dp282
S'NOUN'
p283
F0.0
sS'DET'
p284
F1.0
s(lp285
g73
atp286
a(g86
(dp287
S'ADV'
p288
F0.0014
sS'VERB'
p289
F9e-06
sS'ADJ'
p290
F0.99859
s(lp291
g86
atp292
a(g66
(dp293
S'NOUN'
p294
F1.0
s(lp295
g66
atp296
a(g99
(dp297
S'ADP'
p298
F1.0
s(lp299
g99
atp300
a(g107
(dp301
S'NOUN'
p302
F3e-06
sS'DET'
p303
F0.999997
s(lp304
g107
atp305
a(g114
(dp306
S'ADV'
p307
F8.6e-05
sS'ADJ'
p308
F0.001745
sS'VERB'
p309
F0.001155
sS'NOUN'
p310
F0.997015
s(lp311
g114
atp312
a(g120
(dp313
S'ADV'
p314
F0.0
sS'PRT'
p315
F1.0
sS'ADP'
p316
F0.0
s(lp317
g120
atp318
a(g126
(dp319
S'VERB'
p320
F0.961444
sS'NOUN'
p321
F0.038556
s(lp322
g126
atp323
a(g150
(dp324
S'ADV'
p325
F0.004489
sS'ADJ'
p326
F0.002661
sS'VERB'
p327
F0.003963
sS'NOUN'
p328
F0.988887
s(lp329
g150
atp330
a(g157
(dp331
S'ADV'
p332
F0.000204
sS'PRT'
p333
F0.000333
sS'ADP'
p334
F0.999462
s(lp335
g157
atp336
a(g165
(dp337
S'NOUN'
p338
F1.1e-05
sS'DET'
p339
F0.999989
s(lp340
g165
atp341
a(g171
(dp342
S'NOUN'
p343
F1.0
s(lp344
g171
atp345
a(g177
(dp346
S'ADP'
p347
F1.0
s(lp348
g177
atp349
a(g197
(dp350
S'NOUN'
p351
F0.062725
sS'ADJ'
p352
F0.937275
s(lp353
g197
atp354
a(g190
(dp355
S'NOUN'
p356
F1.0
s(lp357
g190
atp358
a(g203
(dp359
S'CONJ'
p360
F1.0
sS'NOUN'
p361
F0.0
s(lp362
g203
atp363
a(g216
(dp364
S'NOUN'
p365
F2e-06
sS'DET'
p366
F0.999998
s(lp367
g216
atp368
a(g222
(dp369
S'VERB'
p370
F0.000626
sS'NOUN'
p371
F0.999374
s(lp372
g222
atp373
a(g228
(dp374
S'ADP'
p375
F1.0
s(lp376
g228
atp377
a(g236
(dp378
S'NOUN'
p379
F1.0
s(lp380
g236
atp381
a(g238
(dp382
g238
F1.0
s(lp383
g238
atp384
asS'nl'
p385
(lp386
(S'wij'
p387
(dp388
S'PRON'
p389
F1.0
s(lp390
g7
atp391
a(S'geloven'
p392
(dp393
S'VERB'
p394
F0.9440120000000001
sS'NOUN'
p395
F0.055987999999999996
s(lp396
g13
atp397
a(S'dat'
p398
(dp399
S'PRON'
p400
F0.056413000000000005
sS'CONJ'
p401
F0.943588
s(lp402
g21
atp403
a(S'het'
p404
(dp405
S'PRON'
p406
F0.09067900000000001
sS'DET'
p407
F0.909322
s(lp408
g28
atp409
a(S'strategisch'
p410
(dp411
S'ADJ'
p412
F1.0
s(lp413
g40
atp414
a(S'partnerschap'
p415
(dp416
S'NOUN'
p417
F1.0
s(lp418
g34
atp419
a(S'eu-mexico'
p420
(dp421
S'ADJ'
p422
F0.347891
sS'NOUN'
p423
F0.65211
s(lp424
g47
atp425
a(S'het'
p426
(dp427
S'PRON'
p428
F0.0036839999999999998
sS'DET'
p429
F0.996317
s(lp430
g73
atp431
a(S'beste'
p432
(dp433
S'NOUN'
p434
F0.006159
sS'ADJ'
p435
F0.993841
s(lp436
g86
atp437
a(S'kader'
p438
(dp439
S'NOUN'
p440
F1.0
s(lp441
g66
atp442
a(S'voor'
p443
(dp444
S'ADV'
p445
F0.001935
sS'CONJ'
p446
F3e-06
sS'NOUN'
p447
F0.0
sS'ADP'
p448
F0.998062
s(lp449
g99
atp450
a(S'de'
p451
(dp452
S'DET'
p453
F1.0
s(lp454
g107
atp455
a(S'eu'
p456
(dp457
S'NOUN'
p458
F1.0
s(lp459
g114
atp460
a(S'biedt'
p461
(dp462
S'VERB'
p463
F1.0
s(lp464
g53
atp465
a(S'om'
p466
(dp467
S'ADV'
p468
F0.005415
sS'CONJ'
p469
F0.710287
sS'ADP'
p470
F0.284297
s(lp471
tp472
a(S'mexico'
p473
(dp474
S'ADJ'
p475
F0.014655
sS'NOUN'
p476
F0.9853449999999999
s(lp477
g150
atp478
a(S'op'
p479
(dp480
S'ADV'
p481
F0.003488
sS'ADJ'
p482
F0.0
sS'ADP'
p483
F0.996512
s(lp484
g157
atp485
a(S'het'
p486
(dp487
S'PRON'
p488
F0.000936
sS'DET'
p489
F0.999064
s(lp490
g165
atp491
a(S'gebied'
p492
(dp493
S'VERB'
p494
F8e-06
sS'NOUN'
p495
F0.999992
s(lp496
g171
atp497
a(S'van'
p498
(dp499
S'ADP'
p500
F1.0
s(lp501
g177
atp502
a(S'de'
p503
(dp504
S'DET'
p505
F1.0
s(lp506
tp507
a(S'openbare'
p508
(dp509
S'NOUN'
p510
F1.7e-05
sS'ADJ'
p511
F0.999983
s(lp512
g197
atp513
a(S'veiligheid'
p514
(dp515
S'NOUN'
p516
F1.0
s(lp517
g190
atp518
a(S'en'
p519
(dp520
S'CONJ'
p521
F1.0
s(lp522
g203
atp523
a(S'de'
p524
(dp525
S'DET'
p526
F1.0
s(lp527
g216
atp528
a(S'rechtshandhaving'
p529
(dp530
S'NOUN'
p531
F1.0
s(lp532
g236
atp533
a(S'te'
p534
(dp535
S'PRT'
p536
F1.0
s(lp537
g120
atp538
a(S'ondersteunen'
p539
(dp540
S'VERB'
p541
F1.0
sS'NOUN'
p542
F0.0
s(lp543
g126
atp544
a(g238
(dp545
g238
F1.0
s(lp546
g238
atp547
asS'de'
p548
(lp549
(S'wir'
p550
(dp551
S'PRON'
p552
F1.0
s(lp553
g7
atp554
a(S'denken'
p555
(dp556
S'VERB'
p557
F1.0
s(lp558
g13
atp559
a(S','
p560
(dp561
g238
F1.0
s(lp562
tp563
a(S'dass'
p564
(dp565
S'CONJ'
p566
F1.0
s(lp567
g21
atp568
a(S'die'
p569
(dp570
S'PRON'
p571
F0.003644
sS'DET'
p572
F0.996227
s(lp573
g28
atp574
a(S'strategische'
p575
(dp576
S'ADJ'
p577
F1.0
s(lp578
g40
atp579
a(S'partnerschaft'
p580
(dp581
S'ADJ'
p582
F0.000348
sS'NOUN'
p583
F0.999609
s(lp584
g34
atp585
a(S'eu-mexiko'
p586
(dp587
S'ADJ'
p588
F0.423743
sS'NOUN'
p589
F0.569735
s(lp590
g47
atp591
a(S'f\xc3\xbcr'
p592
(dp593
S'ADP'
p594
F1.0
s(lp595
g99
atp596
a(S'die'
p597
(dp598
S'PRON'
p599
F0.005107
sS'DET'
p600
F0.99474
s(lp601
g107
atp602
a(S'eu'
p603
(dp604
S'ADJ'
p605
F0.285168
sS'NOUN'
p606
F0.61882
s(lp607
g114
atp608
a(S'den'
p609
(dp610
S'PRON'
p611
F0.004208
sS'DET'
p612
F0.991924
s(lp613
g73
atp614
a(S'besten'
p615
(dp616
S'ADJ'
p617
F1.0
s(lp618
g86
atp619
a(S'rahmen'
p620
(dp621
S'VERB'
p622
F1.0
s(lp623
g66
atp624
a(S'bietet'
p625
(dp626
S'VERB'
p627
F1.0
s(lp628
g53
atp629
a(g560
(dp630
g238
F1.0
s(lp631
tp632
a(S'mexiko'
p633
(dp634
S'NOUN'
p635
F0.475164
sS'ADJ'
p636
F0.505326
s(lp637
g150
atp638
a(S'in'
p639
(dp640
S'ADP'
p641
F1.0
s(lp642
g157
atp643
a(S'den'
p644
(dp645
S'PRON'
p646
F0.000122
sS'DET'
p647
F0.999877
s(lp648
g165
atp649
a(S'bereichen'
p650
(dp651
S'ADJ'
p652
F0.183404
sS'NOUN'
p653
F0.816362
s(lp654
g171
atp655
a(S'der'
p656
(dp657
S'PRON'
p658
F0.000239
sS'DET'
p659
F0.999654
s(lp660
g177
atp661
a(S'\xc3\xb6ffentlichen'
p662
(dp663
S'ADJ'
p664
F1.0
s(lp665
g197
atp666
a(S'sicherheit'
p667
(dp668
S'ADJ'
p669
F0.0003
sS'NOUN'
p670
F0.999677
s(lp671
g190
atp672
a(S'und'
p673
(dp674
S'CONJ'
p675
F1.0
s(lp676
g203
atp677
a(S'der'
p678
(dp679
S'PRON'
p680
F0.004887
sS'DET'
p681
F0.990318
s(lp682
g216
atp683
a(S'rechtsstaatlichkeit'
p684
(dp685
S'ADJ'
p686
F0.041853
sS'NOUN'
p687
F0.955929
s(lp688
g222
atp689
a(S'zu'
p690
(dp691
S'PRT'
p692
F0.99997
s(lp693
g120
atp694
a(S'unterst\xc3\xbctzen'
p695
(dp696
S'VERB'
p697
F1.0
s(lp698
g126
atp699
a(g238
(dp700
g238
F1.0
s(lp701
g238
atp702
asS'it'
p703
(lp704
(S'riteniamo'
p705
(dp706
S'VERB'
p707
F1.0
s(lp708
g13
atp709
a(S'che'
p710
(dp711
S'PRON'
p712
F0.984203
sS'CONJ'
p713
F0.01514
sS'ADJ'
p714
F0.000657
s(lp715
g21
atp716
a(S'il'
p717
(dp718
S'DET'
p719
F1.0
s(lp720
g28
atp721
a(S'partenariato'
p722
(dp723
S'NOUN'
p724
F1.0
s(lp725
g34
atp726
a(S'strategico'
p727
(dp728
S'ADJ'
p729
F1.0
s(lp730
g40
atp731
a(S'ue-messico'
p732
(dp733
S'ADJ'
p734
F0.001143
sS'NOUN'
p735
F0.998857
s(lp736
g47
atp737
a(S'rappresenti'
p738
(dp739
S'VERB'
p740
F1.0
s(lp741
g53
atp742
a(S'il'
p743
(dp744
S'DET'
p745
F1.0
s(lp746
g73
atp747
a(S'quadro'
p748
(dp749
S'ADJ'
p750
F0.023773
sS'VERB'
p751
F2.3e-05
sS'NOUN'
p752
F0.976204
s(lp753
g66
atp754
a(S'migliore'
p755
(dp756
S'NOUN'
p757
F0.019327
sS'ADJ'
p758
F0.980673
s(lp759
g86
atp760
a(S'per'
p761
(dp762
S'CONJ'
p763
F0.060866
sS'ADP'
p764
F0.939134
s(lp765
g99
atp766
a(S'il'
p767
(dp768
S'DET'
p769
F1.0
s(lp770
g107
atp771
a(S'sostegno'
p772
(dp773
S'NOUN'
p774
F1.0
s(lp775
g126
atp776
a(S"dell'"
p777
(dp778
S'ADJ'
p779
F0.040682
sS'VERB'
p780
F0.006560999999999999
sS'NOUN'
p781
F0.952757
s(lp782
tp783
a(S'unione'
p784
(dp785
S'NOUN'
p786
F1.0
s(lp787
g114
atp788
a(S'al'
p789
(dp790
S'ADP'
p791
F1.0
s(lp792
g120
atp793
a(S'messico'
p794
(dp795
S'ADJ'
p796
F0.297909
sS'NOUN'
p797
F0.702091
s(lp798
g150
atp799
a(S'nel'
p800
(dp801
S'ADP'
p802
F1.0
s(lp803
g157
atp804
a(S'campo'
p805
(dp806
S'VERB'
p807
F7.7e-05
sS'NOUN'
p808
F0.999923
s(lp809
g171
atp810
a(S'della'
p811
(dp812
S'DEF'
p813
F0.001592
sS'ADP'
p814
F0.998408
s(lp815
g177
atp816
a(S'sicurezza'
p817
(dp818
S'NOUN'
p819
F1.0
s(lp820
g190
atp821
a(S'pubblica'
p822
(dp823
S'VERB'
p824
F0.020503
sS'ADJ'
p825
F0.979497
s(lp826
g197
atp827
a(S'e'
p828
(dp829
S'CONJ'
p830
F1.0
s(lp831
g203
atp832
a(S'dello'
p833
(dp834
S'DEF'
p835
F0.001386
sS'ADP'
p836
F0.998614
s(lp837
tp838
a(S'stato'
p839
(dp840
S'VERB'
p841
F0.425004
sS'NOUN'
p842
F0.574996
s(lp843
g222
atp844
a(S'di'
p845
(dp846
S'CONJ'
p847
F3e-06
sS'ADP'
p848
F0.999997
s(lp849
g228
atp850
a(S'diritto'
p851
(dp852
S'ADJ'
p853
F0.065698
sS'NOUN'
p854
F0.934302
s(lp855
g236
atp856
a(g238
(dp857
g238
F1.0
s(lp858
g238
atp859
asS'sk'
p860
(lp861
(S'sme'
p862
(dp863
S'X'
p864
F0.000255
sS'VERB'
p865
F0.999745
s(lp866
g7
atp867
a(S'presved\xc4\x8den\xc3\xad'
p868
(dp869
S'VERB'
p870
F0.818679
sS'NOUN'
p871
F0.181321
s(lp872
tp873
a(g560
(dp874
g238
F1.0
s(lp875
g13
atp876
a(S'\xc5\xbee'
p877
(dp878
g864
F0.000497
sS'CONJ'
p879
F0.999503
s(lp880
g21
atp881
a(S'strategick\xc3\xa9'
p882
(dp883
S'ADJ'
p884
F1.0
s(lp885
g40
atp886
a(S'partnerstvo'
p887
(dp888
S'NOUN'
p889
F1.0
s(lp890
g34
atp891
a(S'e\xc3\x9a'
p892
(dp893
S'ADV'
p894
F0.003618
sS'NOUN'
p895
F0.260236
sS'VERB'
p896
F0.124058
sS'ADJ'
p897
F0.605889
sg864
F0.006201
s(lp898
g47
atp899
a(S'a'
p900
(dp901
g864
F0.001769
sS'CONJ'
p902
F0.99747
sS'NOUN'
p903
F0.000317
sS'ADP'
p904
F0.000423
sS'PRT'
p905
F2.1e-05
s(lp906
tp907
a(S'mexika'
p908
(dp909
S'ADJ'
p910
F0.06642300000000001
sS'NOUN'
p911
F0.933578
s(lp912
g47
atp913
a(S'poskytne'
p914
(dp915
S'VERB'
p916
F1.0
s(lp917
g53
atp918
a(S'najlep\xc5\xa1\xc3\xad'
p919
(dp920
S'ADJ'
p921
F1.0
s(lp922
g86
atp923
a(S'r\xc3\xa1mec'
p924
(dp925
S'NOUN'
p926
F1.0
s(lp927
g66
atp928
a(S'na'
p929
(dp930
g864
F0.000156
sS'CONJ'
p931
F1.5e-05
sS'ADP'
p932
F0.999826
sS'PRT'
p933
F3e-06
s(lp934
g120
atp935
a(S'podporu'
p936
(dp937
S'NOUN'
p938
F1.0
s(lp939
g126
atp940
a(S'mexika'
p941
(dp942
S'ADJ'
p943
F0.068723
sS'NOUN'
p944
F0.931276
s(lp945
g150
atp946
a(S'zo'
p947
(dp948
g864
F0.004082
sS'ADP'
p949
F0.995918
s(lp950
g99
atp951
a(S'strany'
p952
(dp953
S'NOUN'
p954
F1.0
s(lp955
g107
atp956
a(S'e\xc3\x9a'
p957
(dp958
S'ADV'
p959
F0.003342
sS'ADJ'
p960
F0.05252
sS'VERB'
p961
F0.737886
sS'NOUN'
p962
F0.202871
sg864
F0.003381
s(lp963
g114
atp964
a(S'v'
p965
(dp966
g864
F0.00043100000000000007
sS'ADP'
p967
F0.999569
s(lp968
g157
atp969
a(S'oblastiach'
p970
(dp971
S'NOUN'
p972
F1.0
s(lp973
g171
atp974
a(S'verejnej'
p975
(dp976
S'ADJ'
p977
F1.0
s(lp978
g197
atp979
a(S'bezpe\xc4\x8dnosti'
p980
(dp981
S'NOUN'
p982
F1.0
s(lp983
g190
atp984
a(g900
(dp985
g864
F0.001131
sS'CONJ'
p986
F0.998072
sS'NOUN'
p987
F0.000173
sS'ADP'
p988
F0.000598
sS'PRT'
p989
F2.6e-05
s(lp990
g203
atp991
a(S'pr\xc3\xa1vneho'
p992
(dp993
S'ADJ'
p994
F1.0
s(lp995
tp996
a(S'\xc5\xa1t\xc3\xa1tu'
p997
(dp998
S'NOUN'
p999
F1.0
s(lp1000
g222
atp1001
a(g238
(dp1002
g238
F1.0
s(lp1003
g238
atp1004
asS'pl'
p1005
(lp1006
(S'uwa\xc5\xbcamy'
p1007
(dp1008
S'VERB'
p1009
F1.0
s(lp1010
g13
atp1011
a(g560
(dp1012
g864
F0.0
sg238
F1.0
s(lp1013
tp1014
a(S'\xc5\xbce'
p1015
(dp1016
S'PRT'
p1017
F0.000117
sS'CONJ'
p1018
F0.999884
s(lp1019
g21
atp1020
a(S'partnerstwo'
p1021
(dp1022
S'NOUN'
p1023
F1.0
s(lp1024
g34
atp1025
a(S'strategiczne'
p1026
(dp1027
S'ADJ'
p1028
F1.0000010000000001
s(lp1029
g40
atp1030
a(S'ue-meksyk'
p1031
(dp1032
S'ADV'
p1033
F0.008342
sS'ADJ'
p1034
F0.001285
sS'VERB'
p1035
F0.005517
sS'NOUN'
p1036
F0.9848589999999999
s(lp1037
g47
atp1038
a(S'stanowi'
p1039
(dp1040
S'VERB'
p1041
F1.0
s(lp1042
g53
atp1043
a(S'najlepsze'
p1044
(dp1045
S'NOUN'
p1046
F3e-05
sS'ADJ'
p1047
F0.999969
s(lp1048
g86
atp1049
a(S'ramy'
p1050
(dp1051
S'NOUN'
p1052
F1.0
s(lp1053
g66
atp1054
a(S'dla'
p1055
(dp1056
S'ADP'
p1057
F1.0
s(lp1058
g99
atp1059
a(S'wspierania'
p1060
(dp1061
S'VERB'
p1062
F1.0
s(lp1063
g126
atp1064
a(S'meksyku'
p1065
(dp1066
S'ADV'
p1067
F0.000335
sS'ADJ'
p1068
F0.0020469999999999993
sS'VERB'
p1069
F0.009401
sS'NOUN'
p1070
F0.9882160000000001
s(lp1071
g150
atp1072
a(S'w'
p1073
(dp1074
S'ADJ'
p1075
F0.0
sg864
F0.0
sS'NOUN'
p1076
F0.0
sS'ADP'
p1077
F0.999999
s(lp1078
g157
atp1079
a(S'obszarach'
p1080
(dp1081
S'NOUN'
p1082
F1.0
s(lp1083
g171
atp1084
a(S'bezpiecze\xc5\x84stwa'
p1085
(dp1086
S'NOUN'
p1087
F1.0
s(lp1088
g190
atp1089
a(S'publicznego'
p1090
(dp1091
S'ADJ'
p1092
F1.0
s(lp1093
g197
atp1094
a(S'i'
p1095
(dp1096
S'PRT'
p1097
F0.003793
sS'CONJ'
p1098
F0.996161
sS'NOUN'
p1099
F3.6e-05
sg864
F2e-06
sS'PRON'
p1100
F7e-06
s(lp1101
g203
atp1102
a(S'rz\xc4\x85d\xc3\xb3w'
p1103
(dp1104
S'NOUN'
p1105
F1.0
s(lp1106
g222
atp1107
a(S'prawa'
p1108
(dp1109
S'ADJ'
p1110
F0.00027
sS'NOUN'
p1111
F0.9997309999999999
s(lp1112
g236
atp1113
a(g238
(dp1114
g238
F1.0
s(lp1115
g238
atp1116
asS'sl'
p1117
(lp1118
(S'menimo'
p1119
(dp1120
S'VERB'
p1121
F1.0
s(lp1122
g13
atp1123
a(g560
(dp1124
g238
F1.0
s(lp1125
tp1126
a(S'da'
p1127
(dp1128
S'PRT'
p1129
F0.000319
sS'CONJ'
p1130
F0.999647
sS'VERB'
p1131
F3.2e-05
sg864
F2e-06
s(lp1132
g21
atp1133
a(S'zagotavlja'
p1134
(dp1135
S'VERB'
p1136
F1.0
s(lp1137
g53
atp1138
a(S'strate\xc5\xa1ko'
p1139
(dp1140
S'ADV'
p1141
F0.9301
sS'ADJ'
p1142
F0.0699
s(lp1143
g40
atp1144
a(S'partnerstvo'
p1145
(dp1146
S'NOUN'
p1147
F1.0
s(lp1148
g34
atp1149
a(S'eu-mehika'
p1150
(dp1151
S'ADV'
p1152
F0.095629
sS'ADJ'
p1153
F0.010373
sS'NOUN'
p1154
F0.893998
s(lp1155
g47
atp1156
a(S'najbolj\xc5\xa1i'
p1157
(dp1158
S'ADJ'
p1159
F1.0
s(lp1160
g86
atp1161
a(S'okvir'
p1162
(dp1163
S'NOUN'
p1164
F1.0
s(lp1165
g66
atp1166
a(S'za'
p1167
(dp1168
S'ADV'
p1169
F0.000175
sg864
F0.000278
sS'ADP'
p1170
F0.999548
s(lp1171
g99
atp1172
a(S'eu'
p1173
(dp1174
S'ADV'
p1175
F0.005772
sS'ADJ'
p1176
F0.12013300000000002
sS'VERB'
p1177
F6.1e-05
sS'NOUN'
p1178
F0.8740330000000003
s(lp1179
g114
atp1180
a(g560
(dp1181
g238
F1.0
s(lp1182
tp1183
a(S'da'
p1184
(dp1185
S'PRT'
p1186
F0.00034
sS'CONJ'
p1187
F0.999605
sS'VERB'
p1188
F5.4e-05
sg864
F2e-06
s(lp1189
g120
atp1190
a(S'podpre'
p1191
(dp1192
S'VERB'
p1193
F1.0
s(lp1194
g126
atp1195
a(S'mehiko'
p1196
(dp1197
S'ADV'
p1198
F0.082236
sS'ADJ'
p1199
F0.015184
sS'VERB'
p1200
F0.000478
sS'NOUN'
p1201
F0.9021000000000002
s(lp1202
g150
atp1203
a(S'na'
p1204
(dp1205
S'ADP'
p1206
F1.0
s(lp1207
g157
atp1208
a(S'podro\xc4\x8djih'
p1209
(dp1210
S'NOUN'
p1211
F1.0
s(lp1212
g171
atp1213
a(S'javne'
p1214
(dp1215
S'ADJ'
p1216
F0.9999999999999999
s(lp1217
g197
atp1218
a(S'varnosti'
p1219
(dp1220
S'NOUN'
p1221
F1.0
s(lp1222
g190
atp1223
a(S'in'
p1224
(dp1225
S'ADV'
p1226
F7.7e-05
sg864
F1.2e-05
sS'CONJ'
p1227
F0.999845
sS'NOUN'
p1228
F6.6e-05
s(lp1229
g203
atp1230
a(S'pravne'
p1231
(dp1232
S'ADJ'
p1233
F0.999999
s(lp1234
g222
atp1235
a(S'dr\xc5\xbeave'
p1236
(dp1237
S'NOUN'
p1238
F1.0
s(lp1239
g236
atp1240
a(g238
(dp1241
g238
F1.0
s(lp1242
g238
atp1243
asS'es'
p1244
(lp1245
(S'creemos'
p1246
(dp1247
S'VERB'
p1248
F1.0
s(lp1249
g13
atp1250
a(S'que'
p1251
(dp1252
g864
F0.0
sS'CONJ'
p1253
F1.0
s(lp1254
g21
atp1255
a(S'la'
p1256
(dp1257
S'PRON'
p1258
F0.00027
sS'DET'
p1259
F0.99973
sg864
F0.0
sS'NOUN'
p1260
F0.0
s(lp1261
g28
atp1262
a(S'asociaci\xc3\xb3n'
p1263
(dp1264
S'NOUN'
p1265
F1.0
s(lp1266
g34
atp1267
a(S'estrat\xc3\xa9gica'
p1268
(dp1269
S'ADJ'
p1270
F1.0
s(lp1271
g40
atp1272
a(S'ue-m\xc3\xa9xico'
p1273
(dp1274
S'ADJ'
p1275
F0.001296
sS'NOUN'
p1276
F0.998704
s(lp1277
g47
atp1278
a(S'proporciona'
p1279
(dp1280
S'VERB'
p1281
F1.0
s(lp1282
g53
atp1283
a(S'el'
p1284
(dp1285
S'PRON'
p1286
F3.8e-05
sS'DET'
p1287
F0.999962
s(lp1288
g73
atp1289
a(S'mejor'
p1290
(dp1291
S'ADJ'
p1292
F1.0
s(lp1293
tp1294
a(S'marco'
p1295
(dp1296
S'NOUN'
p1297
F1.0
s(lp1298
g66
atp1299
a(S'posible'
p1300
(dp1301
S'ADJ'
p1302
F1.0
s(lp1303
g86
atp1304
a(S'para'
p1305
(dp1306
S'CONJ'
p1307
F0.416085
sS'ADP'
p1308
F0.583915
s(lp1309
tp1310
a(S'que'
p1311
(dp1312
g864
F0.0
sS'CONJ'
p1313
F1.0
s(lp1314
g99
atp1315
a(S'la'
p1316
(dp1317
S'PRON'
p1318
F0.000362
sS'DET'
p1319
F0.999637
sg864
F0.0
sS'NOUN'
p1320
F0.0
s(lp1321
g107
atp1322
a(S'ue'
p1323
(dp1324
S'VERB'
p1325
F3.8e-05
sS'NOUN'
p1326
F0.999961
s(lp1327
g114
atp1328
a(S'apoye'
p1329
(dp1330
S'VERB'
p1331
F1.0
s(lp1332
g126
atp1333
a(g900
(dp1334
g864
F0.0017879999999999999
sS'CONJ'
p1335
F0.000157
sS'ADP'
p1336
F0.998055
s(lp1337
g120
atp1338
a(S'm\xc3\xa9xico'
p1339
(dp1340
S'NOUN'
p1341
F0.44543699999999997
sS'ADJ'
p1342
F0.554562
s(lp1343
g150
atp1344
a(S'en'
p1345
(dp1346
S'ADP'
p1347
F1.0
s(lp1348
g157
atp1349
a(S'materia'
p1350
(dp1351
S'ADP'
p1352
F1.0
s(lp1353
g171
atp1354
a(S'de'
p1355
(dp1356
S'ADP'
p1357
F1.0
s(lp1358
g177
atp1359
a(S'seguridad'
p1360
(dp1361
S'NOUN'
p1362
F1.0
s(lp1363
g190
atp1364
a(S'p\xc3\xbablica'
p1365
(dp1366
S'ADJ'
p1367
F1.0
s(lp1368
g197
atp1369
a(S'y'
p1370
(dp1371
g864
F0.000297
sS'CONJ'
p1372
F0.999703
s(lp1373
g203
atp1374
a(S'estado'
p1375
(dp1376
S'VERB'
p1377
F1.1e-05
sS'NOUN'
p1378
F0.999989
s(lp1379
g222
atp1380
a(S'de'
p1381
(dp1382
g864
F0.000156
sS'CONJ'
p1383
F0.000634
sS'ADP'
p1384
F0.99921
s(lp1385
g228
atp1386
a(S'derecho'
p1387
(dp1388
S'ADV'
p1389
F0.022878
sS'ADJ'
p1390
F0.46842
sS'NOUN'
p1391
F0.508702
s(lp1392
g236
atp1393
a(g238
(dp1394
g238
F1.0
s(lp1395
g238
atp1396
as.