(dp0
S'fr'
p1
(lp2
(S'permettez-moi'
p3
(dp4
S'VERB'
p5
F1.0
s(lp6
S'allow'
p7
atp8
a(S','
p9
(dp10
S'.'
p11
F1.0
s(lp12
S'me'
p13
atp14
a(S"s'"
p15
(dp16
S'ADJ'
p17
F0.13429
sS'VERB'
p18
F0.638201
sS'NOUN'
p19
F0.227509
s(lp20
S'please'
p21
atp22
a(S'il'
p23
(dp24
S'PRON'
p25
F1.0
s(lp26
g21
atp27
a(S'vous'
p28
(dp29
S'PRON'
p30
F1.0
s(lp31
g21
atp32
a(S'pla\xc3\xaet'
p33
(dp34
S'VERB'
p35
F1.0
s(lp36
tp37
a(g9
(dp38
g11
F1.0
s(lp39
g21
atp40
a(S"d'"
p41
(dp42
S'ADJ'
p43
F0.13429
sS'VERB'
p44
F0.638201
sS'NOUN'
p45
F0.227509
s(lp46
S'to'
p47
atp48
a(S'effectuer'
p49
(dp50
S'VERB'
p51
F1.0
s(lp52
S'make'
p53
atp54
a(S'trois'
p55
(dp56
S'NUM'
p57
F0.999982
sS'NOUN'
p58
F1.8e-05
s(lp59
S'three'
p60
atp61
a(S'observations'
p62
(dp63
S'NOUN'
p64
F1.0
s(lp65
S'comments'
p66
atp67
a(S'compl\xc3\xa9mentaires'
p68
(dp69
S'NOUN'
p70
F0.003318
sS'ADJ'
p71
F0.996682
s(lp72
S'additional'
p73
atp74
a(g11
(dp75
g11
F1.0
s(lp76
g11
atp77
asS'en'
p78
(lp79
(g21
(dp80
S'ADV'
p81
F0.144524
sS'X'
p82
F0.803664
sS'VERB'
p83
F0.051810999999999996
s(lp84
g21
atp85
a(g7
(dp86
S'VERB'
p87
F1.0
s(lp88
g7
atp89
a(g13
(dp90
S'PRON'
p91
F0.992545
sg82
F0.007455
s(lp92
g13
atp93
a(g47
(dp94
S'ADV'
p95
F1e-06
sS'PRT'
p96
F0.999999
sS'ADP'
p97
F0.0
s(lp98
g47
atp99
a(g53
(dp100
S'VERB'
p101
F0.99999
sS'NOUN'
p102
F1e-05
s(lp103
g53
atp104
a(g60
(dp105
S'NUM'
p106
F0.999982
sS'NOUN'
p107
F1.8e-05
s(lp108
g60
atp109
a(g73
(dp110
S'ADJ'
p111
F1.0
s(lp112
g73
atp113
a(g66
(dp114
S'VERB'
p115
F6.6e-05
sS'NOUN'
p116
F0.999934
s(lp117
g66
atp118
a(g11
(dp119
g11
F1.0
s(lp120
g11
atp121
asS'nl'
p122
(lp123
(S'staat'
p124
(dp125
S'VERB'
p126
F0.972051
sS'NOUN'
p127
F0.027949
s(lp128
tp129
a(S'u'
p130
(dp131
S'PRON'
p132
F0.999979
sS'NOUN'
p133
F2.1000000000000002e-05
s(lp134
tp135
a(S'mij'
p136
(dp137
S'PRON'
p138
F1.0
s(lp139
g13
atp140
a(S'toe'
p141
(dp142
S'ADV'
p143
F1.0
sg82
F0.0
s(lp144
g7
atp145
a(S'drie'
p146
(dp147
S'NUM'
p148
F1.0
s(lp149
g60
atp150
a(S'aanvullende'
p151
(dp152
S'NOUN'
p153
F0.0
sS'VERB'
p154
F0.000367
sS'ADJ'
p155
F0.999633
s(lp156
g73
atp157
a(S'opmerkingen'
p158
(dp159
S'NOUN'
p160
F1.0
s(lp161
g66
atp162
a(S'te'
p163
(dp164
S'PRT'
p165
F1.0
s(lp166
g47
atp167
a(S'maken'
p168
(dp169
S'VERB'
p170
F1.0
sS'NOUN'
p171
F0.0
s(lp172
g53
atp173
a(S':'
p174
(dp175
g11
F1.0
s(lp176
g11
atp177
asS'de'
p178
(lp179
(S'bitte'
p180
(dp181
S'PRT'
p182
F0.804674
sS'VERB'
p183
F0.128864
s(lp184
g21
atp185
a(S'erlauben'
p186
(dp187
S'VERB'
p188
F1.0
s(lp189
tp190
a(S'sie'
p191
(dp192
S'PRON'
p193
F1.0
s(lp194
g7
atp195
a(g9
(dp196
g11
F1.0
s(lp197
g47
atp198
a(S'dass'
p199
(dp200
S'CONJ'
p201
F1.0
s(lp202
g53
atp203
a(S'ich'
p204
(dp205
S'PRON'
p206
F1.0
s(lp207
g13
atp208
a(S'drei'
p209
(dp210
S'NUM'
p211
F1.0
s(lp212
g60
atp213
a(S'weitere'
p214
(dp215
S'ADJ'
p216
F1.0
s(lp217
g73
atp218
a(S'anmerkungen'
p219
(dp220
S'ADJ'
p221
F0.000798
sS'NOUN'
p222
F0.999024
s(lp223
tp224
a(S'anbringe'
p225
(dp226
S'VERB'
p227
F1.0
s(lp228
g66
atp229
a(g11
(dp230
g11
F1.0
s(lp231
g11
atp232
asS'it'
p233
(lp234
(S'permettetemi'
p235
(dp236
S'VERB'
p237
F1.0
s(lp238
g7
atp239
a(S'altri'
p240
(dp241
S'PRON'
p242
F0.261305
sS'ADJ'
p243
F0.699677
sS'NOUN'
p244
F0.039017
s(lp245
g73
atp246
a(S'tre'
p247
(dp248
S'NOUN'
p249
F0.001697
sS'NUM'
p250
F3.8e-05
sS'ADJ'
p251
F0.998265
s(lp252
g60
atp253
a(S'commenti'
p254
(dp255
S'VERB'
p256
F0.006316
sS'NOUN'
p257
F0.993683
s(lp258
g66
atp259
a(g11
(dp260
g11
F1.0
s(lp261
g11
atp262
asS'sk'
p263
(lp264
(S'dovo\xc4\xbete'
p265
(dp266
S'VERB'
p267
F1.0
s(lp268
g7
atp269
a(S'mi'
p270
(dp271
S'PRON'
p272
F0.999993
sg82
F7e-06
s(lp273
g13
atp274
a(S'poveda\xc5\xa5'
p275
(dp276
S'VERB'
p277
F1.0
s(lp278
g53
atp279
a(S'tri'
p280
(dp281
S'NUM'
p282
F1.0
sS'VERB'
p283
F0.0
s(lp284
g60
atp285
a(S'dopl\xc5\x88uj\xc3\xbace'
p286
(dp287
S'VERB'
p288
F0.6015119999999999
sS'ADJ'
p289
F0.398488
s(lp290
g73
atp291
a(S'pozn\xc3\xa1mky'
p292
(dp293
S'NOUN'
p294
F1.0
s(lp295
g66
atp296
a(g11
(dp297
g11
F1.0
s(lp298
g11
atp299
asS'pl'
p300
(lp301
(S'prosz\xc4\x99'
p302
(dp303
S'VERB'
p304
F1.0
s(lp305
tp306
a(S'pozwoli\xc4\x87'
p307
(dp308
S'VERB'
p309
F1.0
s(lp310
g7
atp311
a(g9
(dp312
g82
F0.0
sg11
F1.0
s(lp313
tp314
a(S'\xc5\xbce'
p315
(dp316
S'PRT'
p317
F0.000591
sS'CONJ'
p318
F0.999408
s(lp319
g13
atp320
a(S'zg\xc5\x82osz\xc4\x99'
p321
(dp322
S'ADJ'
p323
F0.001011
sS'VERB'
p324
F0.929091
sS'NOUN'
p325
F0.069899
s(lp326
g21
atp327
a(S'jeszcze'
p328
(dp329
S'PRT'
p330
F0.998646
sS'CONJ'
p331
F0.001354
s(lp332
g53
atp333
a(S'trzy'
p334
(dp335
S'NUM'
p336
F0.9999960000000001
sS'NOUN'
p337
F5e-06
s(lp338
g60
atp339
a(S'dodatkowe'
p340
(dp341
S'ADJ'
p342
F1.0
s(lp343
g73
atp344
a(S'uwagi'
p345
(dp346
S'NOUN'
p347
F1.0000010000000001
s(lp348
g66
atp349
a(g11
(dp350
g11
F1.0
s(lp351
g11
atp352
asS'sl'
p353
(lp354
(S'zdaj'
p355
(dp356
S'ADV'
p357
F1.0
s(lp358
g21
atp359
a(S'pa'
p360
(dp361
g82
F4.7e-05
sS'CONJ'
p362
F0.999953
s(lp363
tp364
a(S'mi'
p365
(dp366
S'PRON'
p367
F0.999486
sg82
F0.000514
s(lp368
g13
atp369
a(g9
(dp370
g11
F1.0
s(lp371
g21
atp372
a(S'prosim'
p373
(dp374
S'VERB'
p375
F1.0
s(lp376
tp377
a(g9
(dp378
g11
F1.0
s(lp379
g21
atp380
a(S'dovolite'
p381
(dp382
S'VERB'
p383
F1.0
s(lp384
g7
atp385
a(S'tri'
p386
(dp387
S'NUM'
p388
F1.0
s(lp389
g60
atp390
a(S'dodatne'
p391
(dp392
S'ADJ'
p393
F1.0
s(lp394
g73
atp395
a(S'pripombe'
p396
(dp397
S'NOUN'
p398
F1.0
s(lp399
g66
atp400
a(g11
(dp401
g11
F1.0
s(lp402
g11
atp403
asS'es'
p404
(lp405
(S'perm\xc3\xadtame'
p406
(dp407
S'VERB'
p408
F1.0
s(lp409
g7
atp410
a(S'tres'
p411
(dp412
S'NUM'
p413
F1.0
s(lp414
g60
atp415
a(S'comentarios'
p416
(dp417
S'NOUN'
p418
F1.0
s(lp419
g66
atp420
a(S'adicionales'
p421
(dp422
S'ADJ'
p423
F1.0
s(lp424
g73
atp425
a(g174
(dp426
g11
F1.0
s(lp427
g11
atp428
as.