(dp0
S'fr'
p1
(lp2
(S'le'
p3
(dp4
S'PRON'
p5
F0.000439
sS'DET'
p6
F0.999561
s(lp7
S'the'
p8
atp9
a(S'rapport'
p10
(dp11
S'NOUN'
p12
F1.0
s(lp13
S'report'
p14
atp15
a(S'de'
p16
(dp17
S'ADP'
p18
F1.0
s(lp19
S'by'
p20
atp21
a(S'miloslav'
p22
(dp23
S'NOUN'
p24
F1.0
s(lp25
tp26
a(S'ransdorf'
p27
(dp28
S'ADJ'
p29
F0.404289
sS'VERB'
p30
F0.009976000000000002
sS'NOUN'
p31
F0.585734
s(lp32
S'ransdorf'
p33
atp34
a(S','
p35
(dp36
S'.'
p37
F1.0
s(lp38
g35
atp39
a(S'au'
p40
(dp41
S'ADP'
p42
F1.0
s(lp43
S'on'
p44
atp45
a(S'nom'
p46
(dp47
S'NOUN'
p48
F1.0
s(lp49
S'behalf'
p50
atp51
a(S'de'
p52
(dp53
S'ADP'
p54
F1.0
s(lp55
S'of'
p56
atp57
a(S'la'
p58
(dp59
S'PRON'
p60
F1.2e-05
sS'DET'
p61
F0.999988
sS'NOUN'
p62
F0.0
s(lp63
S'the'
p64
atp65
a(S'commission'
p66
(dp67
S'NOUN'
p68
F1.0
s(lp69
S'committee'
p70
atp71
a(S'du'
p72
(dp73
S'ADP'
p74
F1.0
s(lp75
S'on'
p76
atp77
a(S'commerce'
p78
(dp79
S'VERB'
p80
F0.0
sS'NOUN'
p81
F1.0
s(lp82
S'trade'
p83
atp84
a(S'international'
p85
(dp86
S'ADJ'
p87
F1.0
s(lp88
S'international'
p89
atp90
a(g35
(dp91
g37
F1.0
s(lp92
g35
atp93
a(S'sur'
p94
(dp95
S'ADP'
p96
F1.0
s(lp97
S'on'
p98
atp99
a(S'la'
p100
(dp101
S'PRON'
p102
F1.2e-05
sS'DET'
p103
F0.999988
sS'NOUN'
p104
F0.0
s(lp105
S'providing'
p106
atp107
a(S'proposition'
p108
(dp109
S'NOUN'
p110
F1.0
s(lp111
S'c7-0270'
p112
atp113
a(S'de'
p114
(dp115
S'ADP'
p116
F1.0
s(lp117
tp118
a(S'd\xc3\xa9cision'
p119
(dp120
S'NOUN'
p121
F1.0
s(lp122
g112
atp123
a(S'du'
p124
(dp125
S'ADP'
p126
F1.0
s(lp127
g112
atp128
a(S'conseil'
p129
(dp130
S'NOUN'
p131
F1.0
s(lp132
g112
atp133
a(S'accordant'
p134
(dp135
S'VERB'
p136
F0.986505
sS'ADJ'
p137
F0.013495
s(lp138
tp139
a(S'une'
p140
(dp141
S'NOUN'
p142
F8e-06
sS'NUM'
p143
F0.021865
sS'DET'
p144
F0.978128
s(lp145
tp146
a(S'assistance'
p147
(dp148
S'NOUN'
p149
F1.0
s(lp150
S'assistance'
p151
atp152
a(S'macrofinanci\xc3\xa8re'
p153
(dp154
S'NOUN'
p155
F0.239282
sS'ADJ'
p156
F0.760718
s(lp157
S'macro-financial'
p158
atp159
a(S'\xc3\xa0'
p160
(dp161
S'ADP'
p162
F1.0
s(lp163
S'to'
p164
atp165
a(S'la'
p166
(dp167
S'PRON'
p168
F1.3e-05
sS'DET'
p169
F0.999985
sS'NOUN'
p170
F1e-06
s(lp171
tp172
a(S'serbie'
p173
(dp174
S'ADJ'
p175
F0.076471
sS'VERB'
p176
F2e-06
sS'NOUN'
p177
F0.923527
s(lp178
S'serbia'
p179
atp180
a(S'-'
p181
(dp182
g37
F1.0
s(lp183
g181
atp184
a(S'c7-0270'
p185
(dp186
S'ADJ'
p187
F0.280608
sS'VERB'
p188
F0.007367
sS'NOUN'
p189
F0.681695
sS'X'
p190
F0.03033
s(lp191
g112
atp192
a(S'/'
p193
(dp194
g37
F1.0
s(lp195
g193
atp196
a(S'2009'
p197
(dp198
g190
F0.004656
sS'NUM'
p199
F0.995344
s(lp200
S'2009'
p201
atp202
a(g181
(dp203
g37
F1.0
s(lp204
g181
atp205
a(g35
(dp206
g37
F1.0
s(lp207
tp208
asS'en'
p209
(lp210
(g8
(dp211
S'NOUN'
p212
F6e-06
sS'DET'
p213
F0.999994
s(lp214
g8
atp215
a(g14
(dp216
S'VERB'
p217
F0.001264
sS'NOUN'
p218
F0.998735
s(lp219
g14
atp220
a(g20
(dp221
S'ADV'
p222
F4.9e-05
sS'NOUN'
p223
F1e-06
sS'ADP'
p224
F0.99995
s(lp225
g20
atp226
a(S'mr'
p227
(dp228
S'ADJ'
p229
F0.007268
sS'NOUN'
p230
F0.9927320000000001
s(lp231
g227
atp232
a(g33
(dp233
S'ADV'
p234
F0.001757
sS'ADJ'
p235
F0.000539
sS'VERB'
p236
F0.0044540000000000005
sS'NOUN'
p237
F0.993249
s(lp238
g33
atp239
a(g35
(dp240
g37
F1.0
s(lp241
g35
atp242
a(g44
(dp243
S'ADV'
p244
F0.002477
sS'NOUN'
p245
F2e-06
sS'ADJ'
p246
F3.5e-05
sS'ADP'
p247
F0.997486
sS'PRT'
p248
F1e-06
s(lp249
g44
atp250
a(g50
(dp251
S'NOUN'
p252
F1.0
s(lp253
g50
atp254
a(g56
(dp255
S'ADP'
p256
F1.0
s(lp257
g56
atp258
a(g64
(dp259
S'NOUN'
p260
F1e-06
sS'DET'
p261
F0.999999
s(lp262
g64
atp263
a(g70
(dp264
S'NOUN'
p265
F1.0
s(lp266
g70
atp267
a(g76
(dp268
S'ADV'
p269
F0.001648
sS'PRT'
p270
F0.000484
sS'ADJ'
p271
F1e-06
sS'ADP'
p272
F0.997867
sS'NOUN'
p273
F0.0
s(lp274
g76
atp275
a(g89
(dp276
S'NOUN'
p277
F0.000287
sS'ADJ'
p278
F0.999713
s(lp279
g89
atp280
a(g83
(dp281
S'VERB'
p282
F0.000184
sS'NOUN'
p283
F0.999816
s(lp284
g83
atp285
a(g35
(dp286
g37
F1.0
s(lp287
g35
atp288
a(g98
(dp289
S'ADV'
p290
F0.010984
sS'NOUN'
p291
F1e-06
sS'ADJ'
p292
F1e-06
sS'ADP'
p293
F0.989013
sS'PRT'
p294
F1e-06
s(lp295
g98
atp296
a(g106
(dp297
S'VERB'
p298
F1.0
s(lp299
g106
atp300
a(g158
(dp301
S'NOUN'
p302
F0.053752
sS'ADJ'
p303
F0.946248
s(lp304
g158
atp305
a(g151
(dp306
S'NOUN'
p307
F1.0
s(lp308
g151
atp309
a(g164
(dp310
S'ADV'
p311
F0.0
sS'PRT'
p312
F0.999989
sS'ADP'
p313
F1.1e-05
s(lp314
g164
atp315
a(g179
(dp316
S'ADJ'
p317
F0.000371
sS'NOUN'
p318
F0.999629
s(lp319
g179
atp320
a(g181
(dp321
g37
F1.0
s(lp322
g181
atp323
a(g112
(dp324
S'ADJ'
p325
F0.000477
sS'NOUN'
p326
F0.999524
s(lp327
g112
atp328
a(g193
(dp329
g190
F1.0
s(lp330
g193
atp331
a(g201
(dp332
S'ADV'
p333
F4.4e-05
sS'NOUN'
p334
F0.000274
sS'NUM'
p335
F0.997335
sS'ADJ'
p336
F0.002285
sg190
F6.2e-05
s(lp337
g201
atp338
a(g181
(dp339
g37
F1.0
s(lp340
g181
atp341
asS'nl'
p342
(lp343
(S'het'
p344
(dp345
S'PRON'
p346
F0.01289
sS'DET'
p347
F0.98711
s(lp348
g8
atp349
a(S'verslag'
p350
(dp351
S'NOUN'
p352
F1.0
s(lp353
g14
atp354
a(S'van'
p355
(dp356
S'ADP'
p357
F1.0
s(lp358
g20
atp359
a(S'miloslav'
p360
(dp361
S'NOUN'
p362
F0.22329600000000002
sS'ADJ'
p363
F0.776704
s(lp364
tp365
a(S'ransdorf'
p366
(dp367
S'ADJ'
p368
F0.006902
sS'NOUN'
p369
F0.993098
s(lp370
g33
atp371
a(g35
(dp372
g37
F1.0
s(lp373
g35
atp374
a(S'namens'
p375
(dp376
S'ADP'
p377
F1.0
s(lp378
g50
atp379
a(S'de'
p380
(dp381
S'DET'
p382
F1.0
s(lp383
g64
atp384
a(S'commissie'
p385
(dp386
S'NOUN'
p387
F1.0
s(lp388
g70
atp389
a(S'internationale'
p390
(dp391
S'NOUN'
p392
F1.3e-05
sS'ADJ'
p393
F0.999987
s(lp394
g89
atp395
a(S'handel'
p396
(dp397
S'VERB'
p398
F0.004383
sS'NOUN'
p399
F0.995617
s(lp400
g83
atp401
a(g35
(dp402
g37
F1.0
s(lp403
g35
atp404
a(S'over'
p405
(dp406
S'ADV'
p407
F0.069268
sS'ADP'
p408
F0.930732
s(lp409
g98
atp410
a(S'het'
p411
(dp412
S'PRON'
p413
F0.000988
sS'DET'
p414
F0.999011
s(lp415
g106
atp416
a(S'voorstel'
p417
(dp418
S'VERB'
p419
F2e-06
sS'NOUN'
p420
F0.999998
s(lp421
g112
atp422
a(S'voor'
p423
(dp424
S'ADV'
p425
F0.001935
sS'CONJ'
p426
F3e-06
sS'NOUN'
p427
F0.0
sS'ADP'
p428
F0.998061
s(lp429
g106
atp430
a(S'een'
p431
(dp432
S'ADJ'
p433
F1e-06
sS'PRON'
p434
F1.4e-05
sS'NUM'
p435
F0.0
sS'DET'
p436
F0.999985
s(lp437
tp438
a(S'besluit'
p439
(dp440
S'VERB'
p441
F0.0
sS'NOUN'
p442
F1.0
s(lp443
g112
atp444
a(S'van'
p445
(dp446
S'ADP'
p447
F1.0
s(lp448
tp449
a(S'de'
p450
(dp451
S'DET'
p452
F1.0
s(lp453
g106
atp454
a(S'raad'
p455
(dp456
S'VERB'
p457
F1e-06
sS'NOUN'
p458
F0.999999
s(lp459
g112
atp460
a(S'tot'
p461
(dp462
S'CONJ'
p463
F8e-06
sS'ADP'
p464
F0.999992
s(lp465
g112
atp466
a(S'toekenning'
p467
(dp468
S'NOUN'
p469
F1.0
s(lp470
tp471
a(S'van'
p472
(dp473
S'ADP'
p474
F1.0
s(lp475
tp476
a(S'macrofinanci\xc3\xable'
p477
(dp478
S'NOUN'
p479
F0.134515
sS'ADJ'
p480
F0.865485
s(lp481
g158
atp482
a(S'bijstand'
p483
(dp484
S'NOUN'
p485
F1.0
s(lp486
g151
atp487
a(S'aan'
p488
(dp489
S'ADV'
p490
F0.000247
sS'ADP'
p491
F0.999753
s(lp492
g164
atp493
a(S'servi\xc3\xab'
p494
(dp495
S'ADJ'
p496
F0.001199
sS'NOUN'
p497
F0.998802
s(lp498
g179
atp499
a(g181
(dp500
g37
F1.0
s(lp501
g181
atp502
a(S'c7-0270'
p503
(dp504
S'NOUN'
p505
F1.0
s(lp506
g112
atp507
a(g193
(dp508
g37
F1.0
s(lp509
g193
atp510
a(S'2009'
p511
(dp512
S'NUM'
p513
F1.0
s(lp514
g201
atp515
a(g181
(dp516
g37
F1.0
s(lp517
g181
atp518
a(g35
(dp519
g37
F1.0
s(lp520
tp521
asS'de'
p522
(lp523
(S'den'
p524
(dp525
S'PRON'
p526
F0.001205
sS'DET'
p527
F0.998774
s(lp528
g8
atp529
a(S'bericht'
p530
(dp531
S'VERB'
p532
F0.00069
sS'NOUN'
p533
F0.999036
s(lp534
g14
atp535
a(S'von'
p536
(dp537
S'NOUN'
p538
F0.003145
sS'ADP'
p539
F0.996855
s(lp540
g20
atp541
a(S'miloslav'
p542
(dp543
S'NOUN'
p544
F0.403444
sS'ADJ'
p545
F0.438173
s(lp546
tp547
a(S'ransdorf'
p548
(dp549
S'VERB'
p550
F0.402287
sS'NOUN'
p551
F0.512408
s(lp552
g33
atp553
a(S'im'
p554
(dp555
S'ADP'
p556
F1.0
s(lp557
g44
atp558
a(S'namen'
p559
(dp560
S'ADJ'
p561
F0.000231
sS'NOUN'
p562
F0.999726
s(lp563
g50
atp564
a(S'des'
p565
(dp566
S'DET'
p567
F1.0
s(lp568
g56
atp569
a(S'ausschusses'
p570
(dp571
S'ADJ'
p572
F0.007476
sS'NOUN'
p573
F0.984226
s(lp574
g70
atp575
a(S'f\xc3\xbcr'
p576
(dp577
S'ADP'
p578
F1.0
s(lp579
g76
atp580
a(S'internationalen'
p581
(dp582
S'ADJ'
p583
F1.0
s(lp584
g89
atp585
a(S'handel'
p586
(dp587
S'VERB'
p588
F1.0
s(lp589
g83
atp590
a(S'\xc3\xbcber'
p591
(dp592
S'PRT'
p593
F0.001177
sS'ADP'
p594
F0.998823
s(lp595
g98
atp596
a(S'makrofinanzhilfe'
p597
(dp598
S'ADJ'
p599
F0.000408
sS'NOUN'
p600
F0.999442
s(lp601
g158
atp602
a(S'f\xc3\xbcr'
p603
(dp604
S'ADP'
p605
F1.0
s(lp606
g164
atp607
a(S'serbien'
p608
(dp609
S'ADJ'
p610
F0.182799
sS'NOUN'
p611
F0.693999
s(lp612
g179
atp613
a(g181
(dp614
g37
F1.0
s(lp615
g181
atp616
a(S'c7-0270'
p617
(dp618
S'ADJ'
p619
F0.006315
sS'NOUN'
p620
F0.987444
s(lp621
g112
atp622
a(g193
(dp623
g37
F1.0
s(lp624
g193
atp625
a(S'2009'
p626
(dp627
S'NUM'
p628
F0.739674
sS'ADJ'
p629
F0.250443
s(lp630
g201
atp631
a(g181
(dp632
g37
F1.0
s(lp633
g181
atp634
asS'it'
p635
(lp636
(S'la'
p637
(dp638
S'PRON'
p639
F0.000408
sS'DET'
p640
F0.999592
s(lp641
g8
atp642
a(S'relazione'
p643
(dp644
S'NOUN'
p645
F1.0
s(lp646
tp647
a(g35
(dp648
g37
F1.0
s(lp649
tp650
a(S'presentata'
p651
(dp652
S'VERB'
p653
F1.0
s(lp654
g14
atp655
a(S"dall'"
p656
(dp657
S'ADJ'
p658
F0.00253
sS'NOUN'
p659
F0.99747
s(lp660
g20
atp661
a(S'onorevole'
p662
(dp663
S'NOUN'
p664
F0.291412
sS'ADJ'
p665
F0.708588
s(lp666
g227
atp667
a(S'ransdorf'
p668
(dp669
S'ADJ'
p670
F0.384912
sS'VERB'
p671
F0.003645
sS'NOUN'
p672
F0.611444
s(lp673
g33
atp674
a(g35
(dp675
g37
F1.0
s(lp676
g35
atp677
a(S'a'
p678
(dp679
S'CONJ'
p680
F0.000451
sS'ADP'
p681
F0.999549
s(lp682
tp683
a(S'nome'
p684
(dp685
S'NOUN'
p686
F1.0
s(lp687
g50
atp688
a(S'della'
p689
(dp690
S'DEF'
p691
F0.001587
sS'ADP'
p692
F0.998413
s(lp693
g56
atp694
a(S'commissione'
p695
(dp696
S'NOUN'
p697
F1.0
s(lp698
g70
atp699
a(S'per'
p700
(dp701
S'CONJ'
p702
F0.052952
sS'ADP'
p703
F0.947048
s(lp704
g76
atp705
a(S'il'
p706
(dp707
S'DET'
p708
F1.0
s(lp709
tp710
a(S'commercio'
p711
(dp712
S'VERB'
p713
F3.5e-05
sS'NOUN'
p714
F0.999965
s(lp715
g83
atp716
a(S'internazionale'
p717
(dp718
S'ADJ'
p719
F1.0
s(lp720
g89
atp721
a(g35
(dp722
g37
F1.0
s(lp723
g35
atp724
a(S'sulla'
p725
(dp726
S'NOUN'
p727
F0.000105
sS'ADP'
p728
F0.999895
s(lp729
g98
atp730
a(S'proposta'
p731
(dp732
S'VERB'
p733
F0.007621
sS'NOUN'
p734
F0.992379
s(lp735
g112
atp736
a(S'di'
p737
(dp738
S'CONJ'
p739
F4e-06
sS'ADP'
p740
F0.999996
s(lp741
g106
atp742
a(S'decisione'
p743
(dp744
S'NOUN'
p745
F1.0
s(lp746
g112
atp747
a(S'del'
p748
(dp749
S'DEF'
p750
F0.001247
sS'ADP'
p751
F0.998753
s(lp752
g112
atp753
a(S'consiglio'
p754
(dp755
S'VERB'
p756
F0.00034
sS'NOUN'
p757
F0.99966
s(lp758
g112
atp759
a(S'relativa'
p760
(dp761
S'NOUN'
p762
F0.025703
sS'ADJ'
p763
F0.974297
s(lp764
g112
atp765
a(S'alla'
p766
(dp767
S'ADP'
p768
F1.0
s(lp769
tp770
a(S'concessione'
p771
(dp772
S'NOUN'
p773
F1.0
s(lp774
g158
atp775
a(S'di'
p776
(dp777
S'CONJ'
p778
F4e-06
sS'ADP'
p779
F0.999996
s(lp780
tp781
a(S'assistenza'
p782
(dp783
S'NOUN'
p784
F1.0
s(lp785
g151
atp786
a(S'macrofinanziaria'
p787
(dp788
S'NOUN'
p789
F1.0
s(lp790
tp791
a(g678
(dp792
S'CONJ'
p793
F0.000215
sS'ADP'
p794
F0.999785
s(lp795
g164
atp796
a(S'favore'
p797
(dp798
S'NOUN'
p799
F1.0
s(lp800
g158
atp801
a(S'della'
p802
(dp803
S'DEF'
p804
F0.001678
sS'ADP'
p805
F0.998322
s(lp806
tp807
a(S'serbia'
p808
(dp809
S'ADJ'
p810
F0.129494
sS'VERB'
p811
F0.102896
sS'NOUN'
p812
F0.767611
s(lp813
g179
atp814
a(g181
(dp815
g190
F0.000327
sg37
F0.999673
s(lp816
g181
atp817
a(S'c7-0270'
p818
(dp819
S'NOUN'
p820
F1.0
s(lp821
g112
atp822
a(g193
(dp823
g190
F1e-05
sg37
F0.99999
s(lp824
g193
atp825
a(S'2009'
p826
(dp827
S'NUM'
p828
F0.998762
sg37
F0.001238
s(lp829
g201
atp830
a(g181
(dp831
g190
F1.2e-05
sg37
F0.999988
s(lp832
g181
atp833
asS'sk'
p834
(lp835
(S'spr\xc3\xa1va'
p836
(dp837
S'VERB'
p838
F0.164555
sS'NOUN'
p839
F0.835445
s(lp840
g14
atp841
a(S'p\xc3\xa1na'
p842
(dp843
g190
F0.0012879999999999999
sS'NOUN'
p844
F0.998712
s(lp845
g227
atp846
a(S'ransdorfa'
p847
(dp848
S'ADJ'
p849
F0.014667000000000001
sS'VERB'
p850
F0.38030200000000014
sS'NOUN'
p851
F0.605032
s(lp852
g33
atp853
a(S'v'
p854
(dp855
g190
F0.000413
sS'ADP'
p856
F0.999587
s(lp857
tp858
a(S'mene'
p859
(dp860
S'NOUN'
p861
F1.0
s(lp862
g50
atp863
a(S'v\xc3\xbdboru'
p864
(dp865
S'NOUN'
p866
F1.0
s(lp867
g70
atp868
a(S'pre'
p869
(dp870
g190
F0.000106
sS'ADP'
p871
F0.999894
s(lp872
g76
atp873
a(S'medzin\xc3\xa1rodn\xc3\xbd'
p874
(dp875
S'ADJ'
p876
F1.0
s(lp877
g89
atp878
a(S'obchod'
p879
(dp880
S'NOUN'
p881
F1.0
s(lp882
g83
atp883
a(S'o'
p884
(dp885
g190
F0.000946
sS'CONJ'
p886
F4.9e-05
sS'NOUN'
p887
F1.9e-05
sS'ADP'
p888
F0.998986
s(lp889
g98
atp890
a(S'poskytnut\xc3\xad'
p891
(dp892
S'VERB'
p893
F0.037528
sS'NOUN'
p894
F0.962472
s(lp895
g106
atp896
a(S'makrofinan\xc4\x8dnej'
p897
(dp898
S'NOUN'
p899
F0.000276
sS'ADJ'
p900
F0.999724
s(lp901
g158
atp902
a(S'pomoci'
p903
(dp904
S'NOUN'
p905
F1.0
s(lp906
g151
atp907
a(S'srbsku'
p908
(dp909
S'NOUN'
p910
F0.259123
sS'ADJ'
p911
F0.740877
s(lp912
g179
atp913
a(g181
(dp914
g37
F1.0
s(lp915
g181
atp916
a(S'c7-0270'
p917
(dp918
g190
F0.992927
sS'ADJ'
p919
F0.007072999999999999
s(lp920
g112
atp921
a(g193
(dp922
g37
F1.0
s(lp923
g193
atp924
a(S'2009'
p925
(dp926
S'NUM'
p927
F1.0
s(lp928
g201
atp929
a(g181
(dp930
g37
F1.0
s(lp931
g181
atp932
asS'pl'
p933
(lp934
(S'sprawozdaniem'
p935
(dp936
S'NOUN'
p937
F1.0
s(lp938
tp939
a(S'sporz\xc4\x85dzonym'
p940
(dp941
S'VERB'
p942
F1.0
s(lp943
g14
atp944
a(S'przez'
p945
(dp946
S'ADP'
p947
F1.0
s(lp948
g20
atp949
a(S'pos\xc5\x82a'
p950
(dp951
S'NOUN'
p952
F1.0
s(lp953
tp954
a(S'ransdorfa'
p955
(dp956
S'ADV'
p957
F0.000256
sS'ADJ'
p958
F0.000254
sS'VERB'
p959
F0.003998
sS'NOUN'
p960
F0.995492
s(lp961
g33
atp962
a(S'w'
p963
(dp964
g190
F0.0
sS'ADJ'
p965
F0.0
sS'ADP'
p966
F1.0
sS'NOUN'
p967
F0.0
s(lp968
g44
atp969
a(S'imieniu'
p970
(dp971
S'NOUN'
p972
F1.0
s(lp973
g50
atp974
a(S'komisji'
p975
(dp976
S'NOUN'
p977
F1.0
s(lp978
g70
atp979
a(S'handlu'
p980
(dp981
S'NOUN'
p982
F1.0
s(lp983
g83
atp984
a(S'mi\xc4\x99dzynarodowego'
p985
(dp986
S'ADJ'
p987
F1.0
s(lp988
g89
atp989
a(g35
(dp990
g190
F0.0
sg37
F1.0
s(lp991
g35
atp992
a(g963
(dp993
S'ADJ'
p994
F0.0
sg190
F1e-06
sS'NOUN'
p995
F0.0
sS'ADP'
p996
F0.999999
s(lp997
g98
atp998
a(S'sprawie'
p999
(dp1000
S'NOUN'
p1001
F1.0
s(lp1002
g158
atp1003
a(S'wniosku'
p1004
(dp1005
S'NOUN'
p1006
F1.0
s(lp1007
g112
atp1008
a(S'dotycz\xc4\x85cego'
p1009
(dp1010
S'VERB'
p1011
F1.0
s(lp1012
g112
atp1013
a(S'decyzji'
p1014
(dp1015
S'NOUN'
p1016
F1.0
s(lp1017
g112
atp1018
a(S'rady'
p1019
(dp1020
S'NOUN'
p1021
F1.0
s(lp1022
tp1023
a(g963
(dp1024
g190
F0.0
sS'ADJ'
p1025
F0.0
sS'ADP'
p1026
F0.999999
sS'NOUN'
p1027
F0.0
s(lp1028
tp1029
a(S'sprawie'
p1030
(dp1031
S'NOUN'
p1032
F1.0
s(lp1033
g158
atp1034
a(S'udzielenia'
p1035
(dp1036
S'VERB'
p1037
F1.0
s(lp1038
tp1039
a(S'serbii'
p1040
(dp1041
S'ADV'
p1042
F3e-06
sS'ADJ'
p1043
F0.020172
sS'NOUN'
p1044
F0.9798240000000001
s(lp1045
g179
atp1046
a(S'pomocy'
p1047
(dp1048
S'NOUN'
p1049
F1.0
s(lp1050
g151
atp1051
a(S'makrofinansowej'
p1052
(dp1053
S'NOUN'
p1054
F0.05640200000000001
sS'VERB'
p1055
F0.0007459999999999999
sS'ADJ'
p1056
F0.9428529999999999
s(lp1057
g158
atp1058
a(g181
(dp1059
g190
F0.000121
sS'NUM'
p1060
F2e-06
sS'NOUN'
p1061
F1.9999999999999998e-05
sg37
F0.999857
s(lp1062
g181
atp1063
a(S'c7-0270'
p1064
(dp1065
S'ADV'
p1066
F0.006865
sS'ADJ'
p1067
F0.026261999999999994
sS'NUM'
p1068
F0.19376700000000002
sS'NOUN'
p1069
F0.7148589999999998
sS'VERB'
p1070
F0.05824699999999999
s(lp1071
g112
atp1072
a(g193
(dp1073
g37
F1.0
s(lp1074
g193
atp1075
a(S'2009'
p1076
(dp1077
S'NUM'
p1078
F0.558827
sS'ADJ'
p1079
F0.441173
s(lp1080
tp1081
a(g181
(dp1082
g190
F3.2e-05
sS'NUM'
p1083
F3e-06
sS'NOUN'
p1084
F8.5e-05
sg37
F0.999881
s(lp1085
g181
atp1086
a(S';'
p1087
(dp1088
g37
F1.0
s(lp1089
g201
atp1090
asS'sl'
p1091
(lp1092
(S'poro\xc4\x8dilu'
p1093
(dp1094
S'NOUN'
p1095
F1.0
s(lp1096
g14
atp1097
a(S'gospoda'
p1098
(dp1099
S'NOUN'
p1100
F1.000001
s(lp1101
g227
atp1102
a(S'ransdorfa'
p1103
(dp1104
S'ADJ'
p1105
F0.125512
sS'VERB'
p1106
F0.006049
sS'NOUN'
p1107
F0.8684389999999998
s(lp1108
g33
atp1109
a(g854
(dp1110
S'ADP'
p1111
F1.0
s(lp1112
tp1113
a(S'imenu'
p1114
(dp1115
S'NOUN'
p1116
F1.0
s(lp1117
g50
atp1118
a(S'odbora'
p1119
(dp1120
S'NOUN'
p1121
F1.0
s(lp1122
g70
atp1123
a(S'za'
p1124
(dp1125
S'ADV'
p1126
F3.7e-05
sg190
F1e-06
sS'ADP'
p1127
F0.999962
s(lp1128
g76
atp1129
a(S'mednarodno'
p1130
(dp1131
S'ADV'
p1132
F0.000168
sS'ADJ'
p1133
F0.999831
s(lp1134
g89
atp1135
a(S'trgovino'
p1136
(dp1137
S'NOUN'
p1138
F1.0
s(lp1139
g83
atp1140
a(g884
(dp1141
S'NOUN'
p1142
F8e-06
sS'ADP'
p1143
F0.999992
s(lp1144
g98
atp1145
a(S'zagotavljanju'
p1146
(dp1147
S'NOUN'
p1148
F1.0
s(lp1149
g106
atp1150
a(S'makrofinan\xc4\x8dne'
p1151
(dp1152
S'ADV'
p1153
F1.9e-05
sS'NOUN'
p1154
F0.0008529999999999999
sS'VERB'
p1155
F0.00041200000000000004
sS'ADJ'
p1156
F0.998719
s(lp1157
g158
atp1158
a(S'pomo\xc4\x8di'
p1159
(dp1160
S'NOUN'
p1161
F1.0
s(lp1162
g151
atp1163
a(S'srbiji'
p1164
(dp1165
S'ADV'
p1166
F0.003522
sS'ADJ'
p1167
F0.007069000000000001
sS'VERB'
p1168
F0.01612
sS'NOUN'
p1169
F0.9732919999999998
s(lp1170
g179
atp1171
a(g181
(dp1172
g37
F1.0
s(lp1173
g181
atp1174
a(S'c7-0270'
p1175
(dp1176
S'ADV'
p1177
F1.5e-05
sS'NOUN'
p1178
F0.0058210000000000015
sS'NUM'
p1179
F0.991465
sg190
F0.001741
sS'ADJ'
p1180
F0.0003060000000000001
sS'VERB'
p1181
F0.000651
s(lp1182
g112
atp1183
a(g193
(dp1184
g37
F1.0
s(lp1185
g193
atp1186
a(S'2009'
p1187
(dp1188
S'NUM'
p1189
F1.0
s(lp1190
g201
atp1191
a(g181
(dp1192
g37
F1.0
s(lp1193
g181
atp1194
asS'es'
p1195
(lp1196
(S'el'
p1197
(dp1198
S'PRON'
p1199
F9.9e-05
sS'DET'
p1200
F0.999901
s(lp1201
g8
atp1202
a(S'informe'
p1203
(dp1204
S'VERB'
p1205
F0.000153
sS'NOUN'
p1206
F0.999847
s(lp1207
g14
atp1208
a(S'de'
p1209
(dp1210
g190
F2.9e-05
sS'CONJ'
p1211
F0.000461
sS'ADP'
p1212
F0.99951
s(lp1213
g20
atp1214
a(S'miloslav'
p1215
(dp1216
S'ADJ'
p1217
F0.001462
sS'NOUN'
p1218
F0.998538
s(lp1219
tp1220
a(S'ransdorf'
p1221
(dp1222
S'ADJ'
p1223
F0.112709
sS'NOUN'
p1224
F0.8872909999999999
s(lp1225
g33
atp1226
a(g35
(dp1227
g37
F1.0
s(lp1228
g35
atp1229
a(S'en'
p1230
(dp1231
g190
F0.000124
sS'CONJ'
p1232
F3.6e-05
sS'ADP'
p1233
F0.999841
s(lp1234
g44
atp1235
a(S'nombre'
p1236
(dp1237
S'NOUN'
p1238
F1.0
s(lp1239
g50
atp1240
a(S'de'
p1241
(dp1242
g190
F0.0
sS'CONJ'
p1243
F1.7e-05
sS'ADP'
p1244
F0.999983
s(lp1245
g56
atp1246
a(S'la'
p1247
(dp1248
g190
F0.0
sS'PRON'
p1249
F0.0
sS'DET'
p1250
F0.999999
sS'NOUN'
p1251
F0.0
s(lp1252
g64
atp1253
a(S'comisi\xc3\xb3n'
p1254
(dp1255
S'NOUN'
p1256
F1.0
s(lp1257
g70
atp1258
a(S'de'
p1259
(dp1260
g190
F3.4e-05
sS'CONJ'
p1261
F0.000451
sS'ADP'
p1262
F0.999515
s(lp1263
g76
atp1264
a(S'comercio'
p1265
(dp1266
S'VERB'
p1267
F0.000264
sS'NOUN'
p1268
F0.999736
s(lp1269
g83
atp1270
a(S'internacional'
p1271
(dp1272
S'ADJ'
p1273
F1.0
s(lp1274
g89
atp1275
a(g35
(dp1276
g37
F1.0
s(lp1277
g35
atp1278
a(S'sobre'
p1279
(dp1280
S'NOUN'
p1281
F0.0
sS'ADP'
p1282
F1.0
s(lp1283
g98
atp1284
a(S'la'
p1285
(dp1286
S'NOUN'
p1287
F0.0
sS'PRON'
p1288
F0.0
sS'DET'
p1289
F0.999999
sg190
F0.0
s(lp1290
tp1291
a(S'concesi\xc3\xb3n'
p1292
(dp1293
S'NOUN'
p1294
F1.0
s(lp1295
g106
atp1296
a(S'de'
p1297
(dp1298
g190
F2.9e-05
sS'CONJ'
p1299
F0.000449
sS'ADP'
p1300
F0.999522
s(lp1301
tp1302
a(S'ayuda'
p1303
(dp1304
S'NOUN'
p1305
F1.0
s(lp1306
g151
atp1307
a(S'macrofinanciera'
p1308
(dp1309
S'NOUN'
p1310
F0.011461
sS'VERB'
p1311
F0.013931
sS'ADJ'
p1312
F0.974607
s(lp1313
g158
atp1314
a(g678
(dp1315
g190
F0.005806
sS'CONJ'
p1316
F0.000262
sS'ADP'
p1317
F0.993933
s(lp1318
g164
atp1319
a(S'serbia'
p1320
(dp1321
S'ADJ'
p1322
F0.167733
sS'NOUN'
p1323
F0.832267
s(lp1324
g179
atp1325
a(g181
(dp1326
g37
F1.0
s(lp1327
g181
atp1328
a(S'c7-0270'
p1329
(dp1330
S'NOUN'
p1331
F1.0
s(lp1332
g112
atp1333
a(g193
(dp1334
g37
F1.0
s(lp1335
g193
atp1336
a(S'2009'
p1337
(dp1338
g190
F0.001705
sS'NUM'
p1339
F0.998295
s(lp1340
g201
atp1341
a(g181
(dp1342
g37
F1.0
s(lp1343
g181
atp1344
as.