(dp0
S'fr'
p1
(lp2
(S'par'
p3
(dp4
S'NOUN'
p5
F9.8e-05
sS'ADP'
p6
F0.999902
s(lp7
tp8
a(S'contre'
p9
(dp10
S'VERB'
p11
F0.001761
sS'NOUN'
p12
F0.601343
sS'ADP'
p13
F0.396895
s(lp14
S'however'
p15
atp16
a(S','
p17
(dp18
S'.'
p19
F1.0
s(lp20
g17
atp21
a(S'ce'
p22
(dp23
S'PRON'
p24
F1.0
s(lp25
tp26
a(S'\xc3\xa0'
p27
(dp28
S'ADP'
p29
F1.0
s(lp30
tp31
a(S'quoi'
p32
(dp33
S'PRON'
p34
F1.0
s(lp35
S'what'
p36
atp37
a(S'je'
p38
(dp39
S'PRON'
p40
F1.0
s(lp41
S'i'
p42
atp43
a(S'suis'
p44
(dp45
S'VERB'
p46
F1.0
s(lp47
S'am'
p48
atp49
a(S'oppos\xc3\xa9e'
p50
(dp51
S'VERB'
p52
F1.0
s(lp53
S'against'
p54
atp55
a(g17
(dp56
g19
F1.0
s(lp57
S'is'
p58
atp59
a(S"c'"
p60
(dp61
S'ADJ'
p62
F0.13429
sS'VERB'
p63
F0.638201
sS'NOUN'
p64
F0.227509
s(lp65
tp66
a(S'est'
p67
(dp68
S'VERB'
p69
F0.995686
sS'NOUN'
p70
F0.004314
s(lp71
g58
atp72
a(S'\xc3\xa0'
p73
(dp74
S'ADP'
p75
F1.0
s(lp76
tp77
a(S'la'
p78
(dp79
S'PRON'
p80
F1.2e-05
sS'DET'
p81
F0.999988
sS'NOUN'
p82
F0.0
s(lp83
S'being'
p84
atp85
a(S'r\xc3\xa9cup\xc3\xa9ration'
p86
(dp87
S'NOUN'
p88
F1.0
s(lp89
S'misused'
p90
atp91
a(S'de'
p92
(dp93
S'ADP'
p94
F1.0
s(lp95
S'in'
p96
atp97
a(S'ces'
p98
(dp99
S'PRON'
p100
F1.0
s(lp101
S'these'
p102
atp103
a(S'victimes'
p104
(dp105
S'VERB'
p106
F0.020368
sS'NOUN'
p107
F0.979632
s(lp108
S'victims'
p109
atp110
a(S'au'
p111
(dp112
S'ADP'
p113
F1.0
s(lp114
S'the'
p115
atp116
a(S'nom'
p117
(dp118
S'NOUN'
p119
F1.0
s(lp120
S'name'
p121
atp122
a(S"d'"
p123
(dp124
S'NOUN'
p125
F0.032441
sS'VERB'
p126
F0.694014
sS'ADJ'
p127
F0.273544
s(lp128
S'of'
p129
atp130
a(S'une'
p131
(dp132
S'NOUN'
p133
F1.5e-05
sS'NUM'
p134
F0.021976
sS'DET'
p135
F0.978009
s(lp136
S'some'
p137
atp138
a(S'sorte'
p139
(dp140
S'VERB'
p141
F0.0
sS'NOUN'
p142
F1.0
s(lp143
tp144
a(S'de'
p145
(dp146
S'ADP'
p147
F1.0
s(lp148
tp149
a(S'lutte'
p150
(dp151
S'VERB'
p152
F0.003323
sS'NOUN'
p153
F0.996676
s(lp154
S'fight'
p155
atp156
a(S'id\xc3\xa9ologique'
p157
(dp158
S'ADJ'
p159
F1.0
s(lp160
S'ideological'
p161
atp162
a(S'contre'
p163
(dp164
S'VERB'
p165
F0.002879
sS'NOUN'
p166
F0.001628
sS'ADP'
p167
F0.995494
s(lp168
S'against'
p169
atp170
a(S"l'"
p171
(dp172
S'ADJ'
p173
F0.16075
sS'VERB'
p174
F0.06794800000000001
sS'NOUN'
p175
F0.771304
s(lp176
S'the'
p177
atp178
a(S'utilisation'
p179
(dp180
S'NOUN'
p181
F1.0
s(lp182
S'use'
p183
atp184
a(S'de'
p185
(dp186
S'ADP'
p187
F1.0
s(lp188
S'of'
p189
atp190
a(S"l'"
p191
(dp192
S'ADJ'
p193
F0.160704
sS'VERB'
p194
F0.06480800000000002
sS'NOUN'
p195
F0.774488
s(lp196
tp197
a(S'\xc3\xa9nergie'
p198
(dp199
S'NOUN'
p200
F1.0
s(lp201
S'energy'
p202
atp203
a(S'nucl\xc3\xa9aire'
p204
(dp205
S'NOUN'
p206
F0.012852
sS'ADJ'
p207
F0.987148
s(lp208
S'nuclear'
p209
atp210
a(g19
(dp211
g19
F1.0
s(lp212
g19
atp213
asS'en'
p214
(lp215
(g15
(dp216
S'ADV'
p217
F1.0
s(lp218
g15
atp219
a(g17
(dp220
g19
F1.0
s(lp221
g17
atp222
a(g36
(dp223
S'PRON'
p224
F0.964327
sS'DET'
p225
F0.035673
s(lp226
g36
atp227
a(g42
(dp228
S'X'
p229
F1e-06
sS'NOUN'
p230
F0.999999
s(lp231
g42
atp232
a(g48
(dp233
S'ADV'
p234
F0.055108
sS'VERB'
p235
F0.944892
s(lp236
g48
atp237
a(g54
(dp238
S'ADP'
p239
F1.0
s(lp240
g54
atp241
a(g58
(dp242
S'VERB'
p243
F1.0
s(lp244
g58
atp245
a(g102
(dp246
S'NOUN'
p247
F0.0
sS'DET'
p248
F1.0
s(lp249
g102
atp250
a(g109
(dp251
S'NOUN'
p252
F1.0
s(lp253
g109
atp254
a(g84
(dp255
S'ADJ'
p256
F2e-06
sS'VERB'
p257
F0.999996
sS'NOUN'
p258
F2e-06
s(lp259
g84
atp260
a(g90
(dp261
S'VERB'
p262
F1.0
s(lp263
g90
atp264
a(g96
(dp265
S'ADV'
p266
F0.000366
sS'PRT'
p267
F0.003796
sS'ADP'
p268
F0.995837
s(lp269
g96
atp270
a(g115
(dp271
S'NOUN'
p272
F1e-06
sS'DET'
p273
F0.999999
s(lp274
g115
atp275
a(g121
(dp276
S'VERB'
p277
F0.00028399999999999996
sS'NOUN'
p278
F0.999716
s(lp279
g121
atp280
a(g129
(dp281
S'ADP'
p282
F1.0
s(lp283
g129
atp284
a(g137
(dp285
S'ADV'
p286
F0.00054
sS'DET'
p287
F0.99946
s(lp288
g137
atp289
a(g161
(dp290
S'ADJ'
p291
F1.0
s(lp292
g161
atp293
a(g155
(dp294
S'VERB'
p295
F0.000241
sS'NOUN'
p296
F0.999759
s(lp297
g155
atp298
a(g169
(dp299
S'ADP'
p300
F1.0
s(lp301
g169
atp302
a(g177
(dp303
S'NOUN'
p304
F2e-06
sS'DET'
p305
F0.999998
s(lp306
g177
atp307
a(g183
(dp308
S'VERB'
p309
F0.0040809999999999996
sS'NOUN'
p310
F0.995919
s(lp311
g183
atp312
a(g189
(dp313
S'ADP'
p314
F1.0
s(lp315
g189
atp316
a(g209
(dp317
S'ADJ'
p318
F1.0
s(lp319
g209
atp320
a(g202
(dp321
S'NOUN'
p322
F1.0
s(lp323
g202
atp324
a(g19
(dp325
g19
F1.0
s(lp326
g19
atp327
asS'nl'
p328
(lp329
(S'waar'
p330
(dp331
S'ADV'
p332
F1.0
sS'ADJ'
p333
F0.0
sS'NOUN'
p334
F0.0
s(lp335
g36
atp336
a(S'ik'
p337
(dp338
S'PRON'
p339
F0.999998
sS'NOUN'
p340
F2e-06
s(lp341
g42
atp342
a(S'echter'
p343
(dp344
S'ADV'
p345
F0.999973
sS'ADJ'
p346
F2.7e-05
s(lp347
g15
atp348
a(S'tegen'
p349
(dp350
S'ADV'
p351
F0.931403
sS'ADP'
p352
F0.068597
s(lp353
g54
atp354
a(S'ben'
p355
(dp356
S'VERB'
p357
F1.0
s(lp358
g48
atp359
a(g17
(dp360
g19
F1.0
s(lp361
g17
atp362
a(S'is'
p363
(dp364
S'VERB'
p365
F1.0
s(lp366
g58
atp367
a(S'dat'
p368
(dp369
S'PRON'
p370
F0.0010409999999999998
sS'CONJ'
p371
F0.998959
s(lp372
tp373
a(S'deze'
p374
(dp375
S'PRON'
p376
F1.0
s(lp377
g102
atp378
a(S'slachtoffers'
p379
(dp380
S'NOUN'
p381
F1.0
s(lp382
g109
atp383
a(S'worden'
p384
(dp385
S'VERB'
p386
F1.0
sS'NOUN'
p387
F0.0
s(lp388
g84
atp389
a(S'misbruikt'
p390
(dp391
S'VERB'
p392
F1.0
s(lp393
g90
atp394
a(S'uit'
p395
(dp396
S'ADV'
p397
F0.001621
sS'VERB'
p398
F7e-06
sS'ADP'
p399
F0.998372
s(lp400
g96
atp401
a(S'naam'
p402
(dp403
S'NOUN'
p404
F1.0
s(lp405
g121
atp406
a(S'van'
p407
(dp408
S'ADP'
p409
F1.0
s(lp410
g129
atp411
a(S'een'
p412
(dp413
S'ADJ'
p414
F1e-06
sS'PRON'
p415
F0.00052
sS'NUM'
p416
F1e-06
sS'DET'
p417
F0.999479
s(lp418
g137
atp419
a(S'ideologische'
p420
(dp421
S'NOUN'
p422
F0.006671
sS'ADJ'
p423
F0.993329
s(lp424
g161
atp425
a(S'strijd'
p426
(dp427
S'VERB'
p428
F0.001597
sS'NOUN'
p429
F0.998403
s(lp430
g155
atp431
a(S'tegen'
p432
(dp433
S'ADV'
p434
F4.1e-05
sS'ADP'
p435
F0.999959
s(lp436
g169
atp437
a(S'het'
p438
(dp439
S'PRON'
p440
F0.000929
sS'DET'
p441
F0.999071
s(lp442
g177
atp443
a(S'gebruik'
p444
(dp445
S'VERB'
p446
F2e-06
sS'NOUN'
p447
F0.999998
s(lp448
g183
atp449
a(S'van'
p450
(dp451
S'ADP'
p452
F1.0
s(lp453
g189
atp454
a(S'kernenergie'
p455
(dp456
S'NOUN'
p457
F1.0
s(lp458
g209
atp459
a(g19
(dp460
g19
F1.0
s(lp461
g19
atp462
asS'de'
p463
(lp464
(S'ich'
p465
(dp466
S'PRON'
p467
F1.0
s(lp468
g42
atp469
a(S'lehne'
p470
(dp471
S'VERB'
p472
F1.0
s(lp473
g54
atp474
a(S'es'
p475
(dp476
S'PRON'
p477
F1.0
s(lp478
g58
atp479
a(S'jedoch'
p480
(dp481
S'ADV'
p482
F0.999779
sS'CONJ'
p483
F0.000221
s(lp484
g15
atp485
a(S'ab'
p486
(dp487
S'ADV'
p488
F0.012394
sS'PRT'
p489
F0.987605
s(lp490
tp491
a(g17
(dp492
g19
F1.0
s(lp493
g17
atp494
a(S'dass'
p495
(dp496
S'CONJ'
p497
F1.0
s(lp498
tp499
a(S'diese'
p500
(dp501
S'PRON'
p502
F1.0
s(lp503
g102
atp504
a(S'opfer'
p505
(dp506
S'VERB'
p507
F1.0
s(lp508
g109
atp509
a(S'im'
p510
(dp511
S'ADP'
p512
F1.0
s(lp513
g96
atp514
a(S'namen'
p515
(dp516
S'ADJ'
p517
F0.00286
sS'NOUN'
p518
F0.99683
s(lp519
g121
atp520
a(S'irgendeines'
p521
(dp522
S'PRON'
p523
F1.0
s(lp524
g137
atp525
a(S'ideologischen'
p526
(dp527
S'ADJ'
p528
F1.0
s(lp529
g161
atp530
a(S'kampfes'
p531
(dp532
S'ADJ'
p533
F0.107958
sS'NOUN'
p534
F0.889851
s(lp535
g155
atp536
a(S'gegen'
p537
(dp538
S'PRT'
p539
F2e-06
sS'ADP'
p540
F0.999998
s(lp541
g169
atp542
a(S'die'
p543
(dp544
S'PRON'
p545
F5.2e-05
sS'DET'
p546
F0.999933
s(lp547
g177
atp548
a(S'nutzung'
p549
(dp550
S'ADJ'
p551
F0.018678
sS'NOUN'
p552
F0.981322
s(lp553
g183
atp554
a(S'der'
p555
(dp556
S'PRON'
p557
F0.000167
sS'DET'
p558
F0.999712
s(lp559
g189
atp560
a(S'kernenergie'
p561
(dp562
S'ADJ'
p563
F0.041937
sS'NOUN'
p564
F0.943222
s(lp565
g209
atp566
a(S'missbraucht'
p567
(dp568
S'VERB'
p569
F1.0
s(lp570
g90
atp571
a(S'werden'
p572
(dp573
S'VERB'
p574
F0.999996
s(lp575
g84
atp576
a(g19
(dp577
g19
F1.0
s(lp578
g19
atp579
asS'it'
p580
(lp581
(S'sono'
p582
(dp583
S'VERB'
p584
F0.999685
sS'NOUN'
p585
F0.000315
s(lp586
g48
atp587
a(S'per\xc3\xb2'
p588
(dp589
S'ADV'
p590
F1.0
s(lp591
g15
atp592
a(S'contraria'
p593
(dp594
S'VERB'
p595
F0.051367
sS'ADJ'
p596
F0.948633
s(lp597
tp598
a(S'al'
p599
(dp600
S'ADP'
p601
F1.0
s(lp602
g54
atp603
a(S'fatto'
p604
(dp605
S'VERB'
p606
F0.012515
sS'NOUN'
p607
F0.987485
s(lp608
g58
atp609
a(S'che'
p610
(dp611
S'PRON'
p612
F0.85308
sS'CONJ'
p613
F0.145723
sS'ADJ'
p614
F0.001198
s(lp615
g36
atp616
a(S'queste'
p617
(dp618
S'PRON'
p619
F1.0
s(lp620
g102
atp621
a(S'vittime'
p622
(dp623
S'NOUN'
p624
F1.0
s(lp625
g109
atp626
a(S'vengano'
p627
(dp628
S'VERB'
p629
F1.0
s(lp630
g84
atp631
a(S'strumentalizzate'
p632
(dp633
S'VERB'
p634
F0.9999999999999999
s(lp635
g90
atp636
a(S'in'
p637
(dp638
S'ADP'
p639
F1.0
s(lp640
g96
atp641
a(S'nome'
p642
(dp643
S'NOUN'
p644
F1.0
s(lp645
g121
atp646
a(S'di'
p647
(dp648
S'CONJ'
p649
F1.6e-05
sS'ADP'
p650
F0.999984
s(lp651
g129
atp652
a(S'una'
p653
(dp654
S'PRON'
p655
F0.000159
sS'DEF'
p656
F0.999841
s(lp657
g137
atp658
a(S'battaglia'
p659
(dp660
S'NOUN'
p661
F1.0
s(lp662
g155
atp663
a(S'ideologica'
p664
(dp665
S'ADJ'
p666
F1.0
s(lp667
g161
atp668
a(S'contro'
p669
(dp670
S'ADV'
p671
F0.07997
sS'ADP'
p672
F0.92003
s(lp673
g169
atp674
a(S"l'"
p675
(dp676
S'NOUN'
p677
F0.009734
sS'VERB'
p678
F0.953252
sS'ADJ'
p679
F0.037014
s(lp680
g177
atp681
a(S'uso'
p682
(dp683
S'ADJ'
p684
F0.063941
sS'VERB'
p685
F0.001534
sS'NOUN'
p686
F0.934525
s(lp687
g183
atp688
a(S'del'
p689
(dp690
S'DEF'
p691
F0.002757
sS'ADP'
p692
F0.997243
s(lp693
g189
atp694
a(S'nucleare'
p695
(dp696
S'NOUN'
p697
F0.162196
sS'ADJ'
p698
F0.837804
s(lp699
g209
atp700
a(g19
(dp701
g19
F1.0
s(lp702
g19
atp703
asS'sk'
p704
(lp705
(S'som'
p706
(dp707
S'VERB'
p708
F1.0
s(lp709
g42
atp710
a(S'v\xc5\xa1ak'
p711
(dp712
g229
F0.967718
sS'CONJ'
p713
F0.032281
s(lp714
g15
atp715
a(S'proti'
p716
(dp717
S'ADV'
p718
F0.001465
sS'ADP'
p719
F0.998535
s(lp720
g54
atp721
a(S'tomu'
p722
(dp723
S'PRON'
p724
F0.999571
sg229
F0.000429
s(lp725
g36
atp726
a(g17
(dp727
g19
F1.0
s(lp728
g17
atp729
a(S'aby'
p730
(dp731
g229
F6.7e-05
sS'CONJ'
p732
F0.999933
s(lp733
g84
atp734
a(S'sa'
p735
(dp736
S'PRT'
p737
F0.999968
sS'ADP'
p738
F2e-05
sg229
F1.1e-05
s(lp739
g58
atp740
a(S'tieto'
p741
(dp742
S'PRON'
p743
F1.0
s(lp744
g102
atp745
a(S'obete'
p746
(dp747
S'NOUN'
p748
F1.0
s(lp749
g109
atp750
a(S'zneu\xc5\xbeili'
p751
(dp752
S'VERB'
p753
F1.0000010000000001
s(lp754
g90
atp755
a(S'v'
p756
(dp757
g229
F0.000118
sS'ADP'
p758
F0.999882
s(lp759
g96
atp760
a(S'mene'
p761
(dp762
S'NOUN'
p763
F1.0
s(lp764
g121
atp765
a(S'nejak\xc3\xa9ho'
p766
(dp767
S'PRON'
p768
F1.0
s(lp769
g137
atp770
a(S'ideologick\xc3\xa9ho'
p771
(dp772
S'ADJ'
p773
F1.0
s(lp774
g161
atp775
a(S'boja'
p776
(dp777
S'VERB'
p778
F0.000607
sS'NOUN'
p779
F0.999393
s(lp780
g155
atp781
a(S'proti'
p782
(dp783
S'ADV'
p784
F9.7e-05
sS'ADP'
p785
F0.999903
s(lp786
g169
atp787
a(S'vyu\xc5\xbe\xc3\xadvaniu'
p788
(dp789
S'NOUN'
p790
F1.0
s(lp791
g183
atp792
a(S'jadrovej'
p793
(dp794
S'ADJ'
p795
F1.0
s(lp796
g209
atp797
a(S'energie'
p798
(dp799
S'NOUN'
p800
F1.0
s(lp801
g202
atp802
a(g19
(dp803
g19
F1.0
s(lp804
g19
atp805
asS'pl'
p806
(lp807
(S'jestem'
p808
(dp809
S'VERB'
p810
F1.0
s(lp811
g48
atp812
a(S'jednak'
p813
(dp814
S'PRT'
p815
F0.17655
sS'CONJ'
p816
F0.82345
s(lp817
g15
atp818
a(S'przeciwna'
p819
(dp820
S'ADJ'
p821
F1.0
s(lp822
g54
atp823
a(S'bezprawnemu'
p824
(dp825
S'ADV'
p826
F0.000943
sS'ADJ'
p827
F0.18735800000000008
sS'VERB'
p828
F0.048036000000000016
sS'NOUN'
p829
F0.7636640000000001
s(lp830
tp831
a(S'wykorzystywaniu'
p832
(dp833
S'ADV'
p834
F0.003431
sS'ADJ'
p835
F0.0022479999999999996
sS'VERB'
p836
F0.147749
sS'NOUN'
p837
F0.8465729999999999
s(lp838
g90
atp839
a(S'tych'
p840
(dp841
S'ADJ'
p842
F0.999999
s(lp843
g102
atp844
a(S'ofiar'
p845
(dp846
S'NOUN'
p847
F1.0
s(lp848
g109
atp849
a(S'w'
p850
(dp851
S'ADJ'
p852
F0.0
sg229
F1e-05
sS'NOUN'
p853
F1e-06
sS'ADP'
p854
F0.9999880000000001
s(lp855
g96
atp856
a(S'imi\xc4\x99'
p857
(dp858
S'NOUN'
p859
F1.0
s(lp860
g121
atp861
a(S'jakiej\xc5\x9b'
p862
(dp863
S'ADJ'
p864
F1.0
s(lp865
g137
atp866
a(S'ideologicznej'
p867
(dp868
S'ADJ'
p869
F1.0
s(lp870
g161
atp871
a(S'walki'
p872
(dp873
S'NOUN'
p874
F1.0000010000000001
s(lp875
g155
atp876
a(S'z'
p877
(dp878
S'PRT'
p879
F1e-06
sS'VERB'
p880
F3e-06
sS'NOUN'
p881
F0.0
sS'ADP'
p882
F0.999996
sg229
F0.0
s(lp883
g169
atp884
a(S'u\xc5\xbcytkowaniem'
p885
(dp886
S'ADV'
p887
F1e-06
sS'ADJ'
p888
F0.005384
sS'VERB'
p889
F0.12130300000000001
sS'NOUN'
p890
F0.8733120000000002
s(lp891
g183
atp892
a(S'energii'
p893
(dp894
S'NOUN'
p895
F1.0
s(lp896
g202
atp897
a(S'j\xc4\x85drowej'
p898
(dp899
S'ADJ'
p900
F1.0
s(lp901
g209
atp902
a(g19
(dp903
g19
F1.0
s(lp904
g19
atp905
asS'sl'
p906
(lp907
(S'sem'
p908
(dp909
S'ADV'
p910
F0.380407
sS'PRT'
p911
F0.005082
sS'VERB'
p912
F0.614511
s(lp913
g48
atp914
a(S'pa'
p915
(dp916
g229
F8.6e-05
sS'CONJ'
p917
F0.999914
s(lp918
tp919
a(S'proti'
p920
(dp921
S'ADV'
p922
F2.4e-05
sS'ADP'
p923
F0.999976
s(lp924
g54
atp925
a(S'temu'
p926
(dp927
S'PRON'
p928
F1.0
s(lp929
g15
atp930
a(g17
(dp931
g19
F1.0
s(lp932
g17
atp933
a(S'da'
p934
(dp935
S'PRT'
p936
F5e-06
sS'CONJ'
p937
F0.99997
sS'VERB'
p938
F2.4e-05
sg229
F1e-06
s(lp939
g42
atp940
a(S'se'
p941
(dp942
S'PRON'
p943
F0.999989
sg229
F1.1e-05
s(lp944
g58
atp945
a(S'te'
p946
(dp947
S'PRON'
p948
F1.000001
s(lp949
g102
atp950
a(S'\xc5\xbertve'
p951
(dp952
S'NOUN'
p953
F1.0
s(lp954
g109
atp955
a(S'zlorablja'
p956
(dp957
S'VERB'
p958
F1.0
s(lp959
g90
atp960
a(S'za'
p961
(dp962
S'ADV'
p963
F2.1e-05
sg229
F1e-06
sS'ADP'
p964
F0.999978
s(lp965
g96
atp966
a(S'nek'
p967
(dp968
S'PRON'
p969
F1.0
s(lp970
g137
atp971
a(S'boj'
p972
(dp973
S'NOUN'
p974
F1.0
s(lp975
g155
atp976
a(S'proti'
p977
(dp978
S'ADV'
p979
F0.00074
sS'ADP'
p980
F0.99926
s(lp981
g169
atp982
a(S'uporabi'
p983
(dp984
S'VERB'
p985
F0.00157
sS'NOUN'
p986
F0.99843
s(lp987
g183
atp988
a(S'jedrske'
p989
(dp990
S'ADJ'
p991
F1.0
s(lp992
g209
atp993
a(S'energije'
p994
(dp995
S'NOUN'
p996
F1.0
s(lp997
g202
atp998
a(g17
(dp999
g19
F1.0
s(lp1000
tp1001
a(S'ki'
p1002
(dp1003
S'CONJ'
p1004
F1.0
s(lp1005
tp1006
a(S'je'
p1007
(dp1008
S'PRON'
p1009
F0.492029
sS'VERB'
p1010
F0.507939
sg229
F3.2e-05
s(lp1011
tp1012
a(S'ideolo\xc5\xa1ki'
p1013
(dp1014
S'ADJ'
p1015
F1.0
s(lp1016
g161
atp1017
a(g19
(dp1018
g19
F1.0
s(lp1019
g19
atp1020
asS'es'
p1021
(lp1022
(S'no'
p1023
(dp1024
S'ADV'
p1025
F1.0
s(lp1026
tp1027
a(S'obstante'
p1028
(dp1029
S'ADV'
p1030
F1.0
s(lp1031
g15
atp1032
a(g17
(dp1033
g19
F1.0
s(lp1034
g17
atp1035
a(S'estoy'
p1036
(dp1037
S'VERB'
p1038
F1.0
s(lp1039
g48
atp1040
a(S'en'
p1041
(dp1042
g229
F0.000163
sS'CONJ'
p1043
F0.0
sS'ADP'
p1044
F0.999837
s(lp1045
tp1046
a(S'contra'
p1047
(dp1048
S'ADP'
p1049
F1.0
s(lp1050
g54
atp1051
a(S'de'
p1052
(dp1053
g229
F2.3e-05
sS'CONJ'
p1054
F2e-06
sS'ADP'
p1055
F0.999975
s(lp1056
tp1057
a(S'que'
p1058
(dp1059
g229
F0.0
sS'CONJ'
p1060
F1.0
s(lp1061
g58
atp1062
a(S'estas'
p1063
(dp1064
S'PRON'
p1065
F1.0
s(lp1066
g102
atp1067
a(S'v\xc3\xadctimas'
p1068
(dp1069
S'NOUN'
p1070
F1.0
s(lp1071
g109
atp1072
a(S'sean'
p1073
(dp1074
S'VERB'
p1075
F1.0
s(lp1076
g84
atp1077
a(S'utilizadas'
p1078
(dp1079
S'VERB'
p1080
F1.0
s(lp1081
g90
atp1082
a(S'en'
p1083
(dp1084
g229
F0.0
sS'CONJ'
p1085
F1.3e-05
sS'ADP'
p1086
F0.999987
s(lp1087
g96
atp1088
a(S'nombre'
p1089
(dp1090
S'NOUN'
p1091
F1.0
s(lp1092
g121
atp1093
a(S'de'
p1094
(dp1095
g229
F0.0
sS'CONJ'
p1096
F0.00017
sS'ADP'
p1097
F0.99983
s(lp1098
g129
atp1099
a(S'alguna'
p1100
(dp1101
S'ADJ'
p1102
F1.0
s(lp1103
g137
atp1104
a(S'lucha'
p1105
(dp1106
S'VERB'
p1107
F3.1e-05
sS'NOUN'
p1108
F0.999969
s(lp1109
g155
atp1110
a(S'ideol\xc3\xb3gica'
p1111
(dp1112
S'ADJ'
p1113
F1.0
s(lp1114
g161
atp1115
a(S'contra'
p1116
(dp1117
S'ADP'
p1118
F1.0
s(lp1119
g169
atp1120
a(S'la'
p1121
(dp1122
S'NOUN'
p1123
F0.0
sS'PRON'
p1124
F0.0
sS'DET'
p1125
F0.999999
sg229
F0.0
s(lp1126
g177
atp1127
a(S'energ\xc3\xada'
p1128
(dp1129
S'NOUN'
p1130
F1.0
s(lp1131
g202
atp1132
a(S'nuclear'
p1133
(dp1134
S'VERB'
p1135
F0.001392
sS'ADJ'
p1136
F0.998608
s(lp1137
g209
atp1138
a(g19
(dp1139
g19
F1.0
s(lp1140
g19
atp1141
as.