(dp0
S'fr'
p1
(lp2
(S'ces'
p3
(dp4
S'PRON'
p5
F1.0
s(lp6
S'those'
p7
atp8
a(S'\xc3\x89tats'
p9
(dp10
S'NOUN'
p11
F1.0
s(lp12
S'states'
p13
atp14
a(S'membres'
p15
(dp16
S'VERB'
p17
F0.016047
sS'NOUN'
p18
F0.983952
s(lp19
S'member'
p20
atp21
a(S'appliquent'
p22
(dp23
S'VERB'
p24
F1.0
s(lp25
tp26
a(S'\xc3\xa0'
p27
(dp28
S'ADP'
p29
F1.0
s(lp30
S'applying'
p31
atp32
a(S'leurs'
p33
(dp34
S'PRON'
p35
F1.0
s(lp36
tp37
a(S'fronti\xc3\xa8res'
p38
(dp39
S'NOUN'
p40
F0.498529
sS'ADJ'
p41
F0.501471
s(lp42
S'border'
p43
atp44
a(S'les'
p45
(dp46
S'PRON'
p47
F0.002702
sS'DET'
p48
F0.997053
sS'ADP'
p49
F0.000246
s(lp50
S'the'
p51
atp52
a(S'r\xc3\xa8gles'
p53
(dp54
S'VERB'
p55
F0.002542
sS'NOUN'
p56
F0.997458
s(lp57
S'rules'
p58
atp59
a(S'schengen'
p60
(dp61
S'ADJ'
p62
F0.022628
sS'VERB'
p63
F0.230705
sS'NOUN'
p64
F0.746667
s(lp65
S'schengen'
p66
atp67
a(S'en'
p68
(dp69
S'PRON'
p70
F0.000605
sS'ADP'
p71
F0.999395
s(lp72
S'on'
p73
atp74
a(S'mati\xc3\xa8re'
p75
(dp76
S'NOUN'
p77
F1.0
s(lp78
tp79
a(S'de'
p80
(dp81
S'ADP'
p82
F1.0
s(lp83
tp84
a(S'v\xc3\xa9rifications'
p85
(dp86
S'NOUN'
p87
F1.0
s(lp88
S'checks'
p89
atp90
a(S'aux'
p91
(dp92
S'ADP'
p93
F1.0
s(lp94
tp95
a(S'fronti\xc3\xa8res'
p96
(dp97
S'ADJ'
p98
F0.138856
sS'NOUN'
p99
F0.861144
s(lp100
g43
atp101
a(S'ext\xc3\xa9rieures'
p102
(dp103
S'ADJ'
p104
F1.0
s(lp105
S'external'
p106
atp107
a(S'depuis'
p108
(dp109
S'ADV'
p110
F0.000103
sS'ADP'
p111
F0.999897
s(lp112
S'since'
p113
atp114
a(S'la'
p115
(dp116
S'PRON'
p117
F0.000202
sS'DET'
p118
F0.999798
sS'NOUN'
p119
F0.0
s(lp120
S'their'
p121
atp122
a(S'date'
p123
(dp124
S'VERB'
p125
F0.00026399999999999997
sS'NOUN'
p126
F0.999736
s(lp127
S'accession'
p128
atp129
a(S'de'
p130
(dp131
S'ADP'
p132
F1.0
s(lp133
tp134
a(S'leur'
p135
(dp136
S'PRON'
p137
F1.0
s(lp138
tp139
a(S'adh\xc3\xa9sion'
p140
(dp141
S'NOUN'
p142
F1.0
s(lp143
g128
atp144
a(S'et'
p145
(dp146
S'CONJ'
p147
F1.0
s(lp148
S'and'
p149
atp150
a(S','
p151
(dp152
S'.'
p153
F1.0
s(lp154
g151
atp155
a(S'depuis'
p156
(dp157
S'ADV'
p158
F0.000149
sS'ADP'
p159
F0.999851
s(lp160
S'since'
p161
atp162
a(S'septembre'
p163
(dp164
S'NOUN'
p165
F1.0
s(lp166
S'september'
p167
atp168
a(S'2007'
p169
(dp170
S'X'
p171
F0.004613
sS'NUM'
p172
F0.995387
s(lp173
S'2007'
p174
atp175
a(g151
(dp176
g153
F1.0
s(lp177
tp178
a(S'ils'
p179
(dp180
S'PRON'
p181
F1.0
s(lp182
S'they'
p183
atp184
a(S'contr\xc3\xb4lent'
p185
(dp186
S'VERB'
p187
F1.0
s(lp188
S'checks'
p189
atp190
a(S'\xc3\xa9galement'
p191
(dp192
S'ADV'
p193
F1.0
s(lp194
S'also'
p195
atp196
a(S'les'
p197
(dp198
S'PRON'
p199
F0.000111
sS'DET'
p200
F0.999847
sS'ADP'
p201
F4.2e-05
s(lp202
tp203
a(S'personnes'
p204
(dp205
S'NOUN'
p206
F1.0
s(lp207
S'persons'
p208
atp209
a(S'dans'
p210
(dp211
S'NOUN'
p212
F6e-06
sS'ADP'
p213
F0.999994
s(lp214
S'in'
p215
atp216
a(S'le'
p217
(dp218
S'PRON'
p219
F0.000448
sS'DET'
p220
F0.999552
s(lp221
S'the'
p222
atp223
a(S'cadre'
p224
(dp225
S'VERB'
p226
F0.000415
sS'NOUN'
p227
F0.999585
s(lp228
tp229
a(S'du'
p230
(dp231
S'ADP'
p232
F1.0
s(lp233
S'sis'
p234
atp235
a(S'syst\xc3\xa8me'
p236
(dp237
S'NOUN'
p238
F1.0
s(lp239
S'system'
p240
atp241
a(S"d'"
p242
(dp243
S'NOUN'
p244
F0.032441
sS'VERB'
p245
F0.694014
sS'ADJ'
p246
F0.273544
s(lp247
tp248
a(S'information'
p249
(dp250
S'NOUN'
p251
F1.0
s(lp252
S'information'
p253
atp254
a(S'schengen'
p255
(dp256
S'ADJ'
p257
F0.023876
sS'VERB'
p258
F0.098682
sS'NOUN'
p259
F0.877443
s(lp260
S'schengen'
p261
atp262
a(S'"'
p263
(dp264
g153
F1.0
s(lp265
g234
atp266
a(S'sis'
p267
(dp268
S'ADJ'
p269
F1.0
s(lp270
tp271
a(g263
(dp272
g153
F1.0
s(lp273
g234
atp274
a(g153
(dp275
g153
F1.0
s(lp276
g153
atp277
asS'en'
p278
(lp279
(g7
(dp280
S'NOUN'
p281
F0.0
sS'DET'
p282
F1.0
s(lp283
g7
atp284
a(g20
(dp285
S'NOUN'
p286
F1.0
s(lp287
g20
atp288
a(g13
(dp289
S'VERB'
p290
F0.00082
sS'NOUN'
p291
F0.99918
s(lp292
g13
atp293
a(S'have'
p294
(dp295
S'VERB'
p296
F1.0
s(lp297
g294
atp298
a(S'been'
p299
(dp300
S'VERB'
p301
F1.0
s(lp302
g299
atp303
a(g31
(dp304
S'VERB'
p305
F1.0
s(lp306
g31
atp307
a(g51
(dp308
S'NOUN'
p309
F1.1e-05
sS'DET'
p310
F0.999989
s(lp311
g51
atp312
a(g66
(dp313
S'ADV'
p314
F3.5e-05
sS'ADJ'
p315
F0.072442
sS'VERB'
p316
F0.0021230000000000003
sS'NOUN'
p317
F0.9254
s(lp318
g66
atp319
a(g58
(dp320
S'VERB'
p321
F0.002782
sS'NOUN'
p322
F0.997218
s(lp323
g58
atp324
a(g73
(dp325
S'ADV'
p326
F0.002604
sS'PRT'
p327
F0.000457
sS'ADJ'
p328
F2e-06
sS'ADP'
p329
F0.996938
sS'NOUN'
p330
F0.0
s(lp331
g73
atp332
a(g106
(dp333
S'ADJ'
p334
F1.0
s(lp335
g106
atp336
a(g43
(dp337
S'VERB'
p338
F3.8e-05
sS'NOUN'
p339
F0.999962
s(lp340
g43
atp341
a(g89
(dp342
S'VERB'
p343
F0.009482
sS'NOUN'
p344
F0.990518
s(lp345
g89
atp346
a(g113
(dp347
S'ADV'
p348
F0.001075
sS'ADP'
p349
F0.998925
s(lp350
g113
atp351
a(g121
(dp352
S'PRON'
p353
F1.0
s(lp354
g121
atp355
a(g128
(dp356
S'VERB'
p357
F8.4e-05
sS'NOUN'
p358
F0.999915
s(lp359
g128
atp360
a(g151
(dp361
g153
F1.0
s(lp362
g151
atp363
a(g149
(dp364
S'CONJ'
p365
F0.999991
sS'NOUN'
p366
F9e-06
s(lp367
g149
atp368
a(g161
(dp369
S'ADV'
p370
F0.012625
sS'ADP'
p371
F0.987375
s(lp372
g161
atp373
a(g167
(dp374
S'ADJ'
p375
F0.168696
sS'NOUN'
p376
F0.831304
s(lp377
g167
atp378
a(g174
(dp379
S'ADV'
p380
F0.422995
sS'NOUN'
p381
F0.043153
sS'NUM'
p382
F0.388518
sS'ADJ'
p383
F0.145285
sg171
F4.9e-05
s(lp384
g174
atp385
a(g183
(dp386
S'PRON'
p387
F1.0
s(lp388
g183
atp389
a(g195
(dp390
S'ADV'
p391
F1.0
s(lp392
g195
atp393
a(S'carry'
p394
(dp395
S'VERB'
p396
F0.9945229999999999
sS'NOUN'
p397
F0.005477
s(lp398
g394
atp399
a(S'out'
p400
(dp401
S'ADV'
p402
F0.018947
sS'NOUN'
p403
F0.001311
sS'ADP'
p404
F0.301074
sS'PRT'
p405
F0.664775
sS'VERB'
p406
F1.4999999999999999e-05
sS'ADJ'
p407
F0.013878
s(lp408
g400
atp409
a(g189
(dp410
S'VERB'
p411
F0.001779
sS'NOUN'
p412
F0.998221
s(lp413
g189
atp414
a(S'on'
p415
(dp416
S'ADV'
p417
F0.000235
sS'PRT'
p418
F0.000564
sS'ADJ'
p419
F1.1e-05
sS'ADP'
p420
F0.999188
sS'NOUN'
p421
F1e-06
s(lp422
g415
atp423
a(g208
(dp424
S'NOUN'
p425
F1.0
s(lp426
g208
atp427
a(g215
(dp428
S'ADV'
p429
F0.000295
sS'PRT'
p430
F0.000234
sS'ADP'
p431
F0.999471
s(lp432
g215
atp433
a(g222
(dp434
S'NOUN'
p435
F1.7e-05
sS'DET'
p436
F0.999983
s(lp437
g222
atp438
a(g261
(dp439
S'ADV'
p440
F0.00016
sS'ADJ'
p441
F0.092395
sS'VERB'
p442
F0.0029560000000000003
sS'NOUN'
p443
F0.90449
s(lp444
g261
atp445
a(g253
(dp446
S'NOUN'
p447
F1.0
s(lp448
g253
atp449
a(g240
(dp450
S'NOUN'
p451
F1.0
s(lp452
g240
atp453
a(S'-'
p454
(dp455
g153
F1.0
s(lp456
g454
atp457
a(g234
(dp458
S'NOUN'
p459
F1.0
s(lp460
g234
atp461
a(g153
(dp462
g153
F1.0
s(lp463
g153
atp464
asS'nl'
p465
(lp466
(S'vanaf'
p467
(dp468
S'ADP'
p469
F1.0
s(lp470
g113
atp471
a(S'hun'
p472
(dp473
S'PRON'
p474
F1.0
s(lp475
g121
atp476
a(S'toetreding'
p477
(dp478
S'NOUN'
p479
F1.0
s(lp480
g128
atp481
a(S'passen'
p482
(dp483
S'VERB'
p484
F0.9997389999999999
sS'NOUN'
p485
F0.000261
s(lp486
tp487
a(S'deze'
p488
(dp489
S'PRON'
p490
F1.0
s(lp491
g7
atp492
a(S'lidstaten'
p493
(dp494
S'NOUN'
p495
F1.0
s(lp496
g20
atp497
a(S'de'
p498
(dp499
S'DET'
p500
F1.0
s(lp501
g51
atp502
a(S'regels'
p503
(dp504
S'NOUN'
p505
F1.0
s(lp506
g58
atp507
a(S'van'
p508
(dp509
S'ADP'
p510
F1.0
s(lp511
g31
atp512
a(S'schengen'
p513
(dp514
S'NOUN'
p515
F1.0
s(lp516
g66
atp517
a(S'voor'
p518
(dp519
S'ADV'
p520
F0.003645
sS'CONJ'
p521
F6e-06
sS'NOUN'
p522
F0.0
sS'ADP'
p523
F0.996349
s(lp524
g73
atp525
a(S'grenscontroles'
p526
(dp527
S'NOUN'
p528
F1.0
s(lp529
g43
atp530
a(S'toe'
p531
(dp532
S'ADV'
p533
F1.0
sg171
F0.0
s(lp534
g89
atp535
a(g151
(dp536
g153
F1.0
s(lp537
g151
atp538
a(S'en'
p539
(dp540
S'CONJ'
p541
F1.0
s(lp542
g149
atp543
a(S'sinds'
p544
(dp545
S'CONJ'
p546
F1.6e-05
sS'ADP'
p547
F0.999984
s(lp548
g161
atp549
a(S'september'
p550
(dp551
S'NOUN'
p552
F1.0
s(lp553
g167
atp554
a(S'2007'
p555
(dp556
S'NUM'
p557
F1.0
s(lp558
g174
atp559
a(S'voeren'
p560
(dp561
S'VERB'
p562
F0.190288
sS'NOUN'
p563
F0.809712
s(lp564
g394
atp565
a(S'zij'
p566
(dp567
S'PRON'
p568
F0.997652
sS'VERB'
p569
F0.002307
sS'NOUN'
p570
F4.2e-05
s(lp571
g183
atp572
a(S'ook'
p573
(dp574
S'ADV'
p575
F1.0
s(lp576
g195
atp577
a(S'controles'
p578
(dp579
S'NOUN'
p580
F1.0
s(lp581
g189
atp582
a(S'uit'
p583
(dp584
S'ADV'
p585
F0.906923
sS'VERB'
p586
F0.000133
sS'ADP'
p587
F0.092944
s(lp588
g400
atp589
a(S'op'
p590
(dp591
S'ADV'
p592
F0.025243
sS'ADJ'
p593
F0.000154
sS'ADP'
p594
F0.974603
s(lp595
g415
atp596
a(S'personen'
p597
(dp598
S'NOUN'
p599
F1.0
s(lp600
g208
atp601
a(S'in'
p602
(dp603
S'ADV'
p604
F0.003441
sS'VERB'
p605
F2e-06
sS'ADP'
p606
F0.996557
s(lp607
g215
atp608
a(S'het'
p609
(dp610
S'PRON'
p611
F0.00093
sS'DET'
p612
F0.99907
s(lp613
g222
atp614
a(S'kader'
p615
(dp616
S'NOUN'
p617
F1.0
s(lp618
g261
atp619
a(S'van'
p620
(dp621
S'ADP'
p622
F1.0
s(lp623
tp624
a(S'het'
p625
(dp626
S'PRON'
p627
F0.0007239999999999999
sS'DET'
p628
F0.999275
s(lp629
tp630
a(S'schengen'
p631
(dp632
S'NOUN'
p633
F1.0
s(lp634
g261
atp635
a(S'informatie'
p636
(dp637
S'NOUN'
p638
F1.0
s(lp639
g253
atp640
a(S'systeem'
p641
(dp642
S'NOUN'
p643
F1.0
s(lp644
g240
atp645
a(g454
(dp646
g153
F1.0
s(lp647
g454
atp648
a(S'sis'
p649
(dp650
S'VERB'
p651
F1.0
s(lp652
g234
atp653
a(g153
(dp654
g153
F1.0
s(lp655
g153
atp656
asS'de'
p657
(lp658
(S'diese'
p659
(dp660
S'PRON'
p661
F1.0
s(lp662
g7
atp663
a(S'mitgliedstaaten'
p664
(dp665
S'ADJ'
p666
F0.036417
sS'NOUN'
p667
F0.955756
s(lp668
g20
atp669
a(S'wenden'
p670
(dp671
S'VERB'
p672
F1.0
s(lp673
tp674
a(S'die'
p675
(dp676
S'PRON'
p677
F0.000626
sS'DET'
p678
F0.999372
s(lp679
g51
atp680
a(S'schengen-regelungen'
p681
(dp682
S'ADJ'
p683
F0.000134
sS'NOUN'
p684
F0.999734
s(lp685
g66
atp686
a(S'hinsichtlich'
p687
(dp688
S'ADP'
p689
F1.0
s(lp690
g73
atp691
a(S'der'
p692
(dp693
S'PRON'
p694
F1.5e-05
sS'DET'
p695
F0.99998
s(lp696
g31
atp697
a(S'\xc3\x9cberpr\xc3\xbcfungen'
p698
(dp699
S'NOUN'
p700
F1.0
s(lp701
tp702
a(S'an'
p703
(dp704
S'ADP'
p705
F0.996398
s(lp706
tp707
a(S'den'
p708
(dp709
S'PRON'
p710
F0.000107
sS'DET'
p711
F0.999882
s(lp712
tp713
a(S'au\xc3\x9fengrenzen'
p714
(dp715
S'ADJ'
p716
F0.017725
sS'NOUN'
p717
F0.95976
s(lp718
g106
atp719
a(S'seit'
p720
(dp721
S'CONJ'
p722
F0.000246
sS'ADP'
p723
F0.999754
s(lp724
g113
atp725
a(S'ihrem'
p726
(dp727
S'PRON'
p728
F1.0
s(lp729
g121
atp730
a(S'beitritt'
p731
(dp732
S'VERB'
p733
F1.0
s(lp734
g128
atp735
a(S'an'
p736
(dp737
S'ADV'
p738
F0.002615
sS'PRT'
p739
F0.997359
s(lp740
g43
atp741
a(g151
(dp742
g153
F1.0
s(lp743
g151
atp744
a(S'und'
p745
(dp746
S'CONJ'
p747
F1.0
s(lp748
g149
atp749
a(S'seit'
p750
(dp751
S'CONJ'
p752
F0.015125
sS'ADP'
p753
F0.984875
s(lp754
g161
atp755
a(S'september'
p756
(dp757
S'ADJ'
p758
F0.911656
s(lp759
g167
atp760
a(S'2007'
p761
(dp762
S'NUM'
p763
F0.967312
sS'ADJ'
p764
F0.030033
s(lp765
g174
atp766
a(S'f\xc3\xbchren'
p767
(dp768
S'VERB'
p769
F1.0
s(lp770
g394
atp771
a(S'sie'
p772
(dp773
S'PRON'
p774
F1.0
s(lp775
g183
atp776
a(S'auch'
p777
(dp778
S'ADV'
p779
F1.0
s(lp780
g195
atp781
a(S'personenkontrollen'
p782
(dp783
S'VERB'
p784
F0.382905
sS'ADJ'
p785
F0.548685
s(lp786
g189
atp787
a(S'im'
p788
(dp789
S'ADP'
p790
F1.0
s(lp791
g215
atp792
a(S'rahmen'
p793
(dp794
S'VERB'
p795
F1.0
s(lp796
tp797
a(S'des'
p798
(dp799
S'DET'
p800
F1.0
s(lp801
g222
atp802
a(S'schengener'
p803
(dp804
S'NOUN'
p805
F0.003251
sS'ADJ'
p806
F0.994854
s(lp807
g261
atp808
a(S'informationssystems'
p809
(dp810
S'ADJ'
p811
F0.051896
sS'NOUN'
p812
F0.942194
s(lp813
g253
atp814
a(S'sis'
p815
(dp816
S'VERB'
p817
F0.601431
sS'ADJ'
p818
F0.313844
s(lp819
g234
atp820
a(S'durch'
p821
(dp822
S'ADV'
p823
F0.000589
sS'PRT'
p824
F0.999364
s(lp825
g89
atp826
a(g153
(dp827
g153
F1.0
s(lp828
g153
atp829
asS'it'
p830
(lp831
(S'questi'
p832
(dp833
S'PRON'
p834
F1.0
s(lp835
g7
atp836
a(S'stati'
p837
(dp838
S'VERB'
p839
F0.894226
sS'NOUN'
p840
F0.105774
s(lp841
g13
atp842
a(S'membri'
p843
(dp844
S'NOUN'
p845
F1.0
s(lp846
g20
atp847
a(S'applicano'
p848
(dp849
S'VERB'
p850
F1.0
s(lp851
g31
atp852
a(S'alle'
p853
(dp854
S'ADP'
p855
F1.0
s(lp856
g51
atp857
a(S'loro'
p858
(dp859
S'PRON'
p860
F1.0
s(lp861
tp862
a(S'frontiere'
p863
(dp864
S'NOUN'
p865
F1.0
s(lp866
g43
atp867
a(S'le'
p868
(dp869
S'PRON'
p870
F0.000322
sS'DET'
p871
F0.999678
s(lp872
tp873
a(S'norme'
p874
(dp875
S'NOUN'
p876
F1.0
s(lp877
g58
atp878
a(S'schengen'
p879
(dp880
S'ADJ'
p881
F0.269495
sS'VERB'
p882
F0.065557
sS'NOUN'
p883
F0.664948
s(lp884
g66
atp885
a(S'in'
p886
(dp887
S'ADP'
p888
F1.0
s(lp889
tp890
a(S'materia'
p891
(dp892
S'NOUN'
p893
F1.0
s(lp894
g73
atp895
a(S'di'
p896
(dp897
S'CONJ'
p898
F4e-06
sS'ADP'
p899
F0.999996
s(lp900
tp901
a(S'verifiche'
p902
(dp903
S'NOUN'
p904
F1.0
s(lp905
g89
atp906
a(S'alle'
p907
(dp908
S'ADP'
p909
F1.0
s(lp910
tp911
a(S'frontiere'
p912
(dp913
S'NOUN'
p914
F1.0
s(lp915
g43
atp916
a(S'esterne'
p917
(dp918
S'ADJ'
p919
F1.0
s(lp920
g106
atp921
a(S'a'
p922
(dp923
S'CONJ'
p924
F0.000389
sS'ADP'
p925
F0.999611
s(lp926
g113
atp927
a(S'partire'
p928
(dp929
S'VERB'
p930
F1.0
s(lp931
g113
atp932
a(S'dalla'
p933
(dp934
S'NOUN'
p935
F3.1e-05
sS'ADP'
p936
F0.999969
s(lp937
tp938
a(S'data'
p939
(dp940
S'ADJ'
p941
F0.005059
sS'VERB'
p942
F0.01489
sS'NOUN'
p943
F0.980052
s(lp944
g113
atp945
a(S'della'
p946
(dp947
S'DEF'
p948
F0.000395
sS'ADP'
p949
F0.999605
s(lp950
tp951
a(S'loro'
p952
(dp953
S'PRON'
p954
F1.0
s(lp955
g121
atp956
a(S'adesione'
p957
(dp958
S'NOUN'
p959
F1.0
s(lp960
g128
atp961
a(S'e'
p962
(dp963
S'CONJ'
p964
F1.0
s(lp965
g149
atp966
a(g151
(dp967
g153
F1.0
s(lp968
g151
atp969
a(S'dal'
p970
(dp971
S'ADP'
p972
F1.0
s(lp973
g161
atp974
a(S'settembre'
p975
(dp976
S'NOUN'
p977
F1.0
s(lp978
g167
atp979
a(S'2007'
p980
(dp981
S'NUM'
p982
F0.98824
sg153
F0.01176
s(lp983
g174
atp984
a(g151
(dp985
g153
F1.0
s(lp986
g183
atp987
a(S'controllano'
p988
(dp989
S'VERB'
p990
F1.0
s(lp991
g189
atp992
a(S'anche'
p993
(dp994
S'ADV'
p995
F0.999994
sS'NOUN'
p996
F6e-06
s(lp997
g195
atp998
a(S'le'
p999
(dp1000
S'PRON'
p1001
F6.4e-05
sS'DET'
p1002
F0.999936
s(lp1003
tp1004
a(S'persone'
p1005
(dp1006
S'NOUN'
p1007
F1.0
s(lp1008
g208
atp1009
a(S'nel'
p1010
(dp1011
S'ADP'
p1012
F1.0
s(lp1013
g215
atp1014
a(S'quadro'
p1015
(dp1016
S'ADJ'
p1017
F0.033477
sS'VERB'
p1018
F1.9e-05
sS'NOUN'
p1019
F0.966504
s(lp1020
tp1021
a(S'del'
p1022
(dp1023
S'DEF'
p1024
F0.001278
sS'ADP'
p1025
F0.998722
s(lp1026
g222
atp1027
a(S'sistema'
p1028
(dp1029
S'VERB'
p1030
F0.000103
sS'NOUN'
p1031
F0.999897
s(lp1032
g240
atp1033
a(S'di'
p1034
(dp1035
S'CONJ'
p1036
F4e-06
sS'ADP'
p1037
F0.999996
s(lp1038
g261
atp1039
a(S'informazione'
p1040
(dp1041
S'NOUN'
p1042
F1.0
s(lp1043
g253
atp1044
a(S'schengen'
p1045
(dp1046
S'NOUN'
p1047
F0.478888
sS'VERB'
p1048
F0.008936
sS'ADJ'
p1049
F0.512176
s(lp1050
tp1051
a(g263
(dp1052
g153
F1.0
s(lp1053
g261
atp1054
a(S'sis'
p1055
(dp1056
S'ADJ'
p1057
F0.009956
sS'VERB'
p1058
F0.391854
sS'NOUN'
p1059
F0.59819
s(lp1060
tp1061
a(S'\xe2\x80\x9d'
p1062
(dp1063
S'ADJ'
p1064
F0.029695
sS'NOUN'
p1065
F0.970305
s(lp1066
g234
atp1067
a(g153
(dp1068
g153
F1.0
s(lp1069
g153
atp1070
asS'sk'
p1071
(lp1072
(S'tieto'
p1073
(dp1074
S'PRON'
p1075
F1.0
s(lp1076
g7
atp1077
a(S'\xc4\x8dlensk\xc3\xa9'
p1078
(dp1079
S'NOUN'
p1080
F2.9e-05
sS'ADJ'
p1081
F0.999971
s(lp1082
g20
atp1083
a(S'\xc5\xa1t\xc3\xa1ty'
p1084
(dp1085
S'NOUN'
p1086
F1.0
s(lp1087
g13
atp1088
a(S'uplat\xc5\x88uj\xc3\xba'
p1089
(dp1090
S'VERB'
p1091
F1.0
s(lp1092
g31
atp1093
a(S'schengensk\xc3\xa9'
p1094
(dp1095
S'NOUN'
p1096
F8.2e-05
sS'ADJ'
p1097
F0.999918
s(lp1098
g66
atp1099
a(S'pravidl\xc3\xa1'
p1100
(dp1101
S'NOUN'
p1102
F1.0
s(lp1103
g58
atp1104
a(S'o'
p1105
(dp1106
g171
F7.400000000000001e-05
sS'CONJ'
p1107
F5.9e-05
sS'NOUN'
p1108
F2.1e-05
sS'ADP'
p1109
F0.999846
s(lp1110
g73
atp1111
a(S'vonkaj\xc5\xa1\xc3\xadch'
p1112
(dp1113
S'ADJ'
p1114
F1.0
s(lp1115
g106
atp1116
a(S'hrani\xc4\x8dn\xc3\xbdch'
p1117
(dp1118
S'ADJ'
p1119
F1.0
s(lp1120
g43
atp1121
a(S'kontrol\xc3\xa1ch'
p1122
(dp1123
S'NOUN'
p1124
F1.0
s(lp1125
g89
atp1126
a(S'od'
p1127
(dp1128
g171
F4.9999999999999996e-06
sS'ADP'
p1129
F0.999995
s(lp1130
g113
atp1131
a(S'ich'
p1132
(dp1133
S'PRON'
p1134
F1.0
s(lp1135
g121
atp1136
a(S'vstupu'
p1137
(dp1138
S'NOUN'
p1139
F1.0
s(lp1140
g128
atp1141
a(g922
(dp1142
g171
F0.0047
sS'CONJ'
p1143
F0.994918
sS'NOUN'
p1144
F0.00022700000000000002
sS'ADP'
p1145
F1e-06
sS'PRT'
p1146
F0.000154
s(lp1147
g149
atp1148
a(S'od'
p1149
(dp1150
g171
F0.000471
sS'ADP'
p1151
F0.999529
s(lp1152
g161
atp1153
a(S'septembra'
p1154
(dp1155
S'NOUN'
p1156
F1.0
s(lp1157
g167
atp1158
a(S'2007'
p1159
(dp1160
S'NUM'
p1161
F1.0
s(lp1162
g174
atp1163
a(S'vykon\xc3\xa1vaj\xc3\xba'
p1164
(dp1165
S'VERB'
p1166
F1.0
s(lp1167
g394
atp1168
a(S'aj'
p1169
(dp1170
g171
F0.858759
sS'CONJ'
p1171
F0.141241
s(lp1172
g195
atp1173
a(S'kontroly'
p1174
(dp1175
S'NOUN'
p1176
F1.0
s(lp1177
g189
atp1178
a(S'os\xc3\xb4b'
p1179
(dp1180
S'NOUN'
p1181
F1.0
s(lp1182
g208
atp1183
a(S'v'
p1184
(dp1185
g171
F4.399999999999999e-05
sS'ADP'
p1186
F0.999956
s(lp1187
g215
atp1188
a(S'schengenskom'
p1189
(dp1190
S'NOUN'
p1191
F0.02947
sS'ADJ'
p1192
F0.97053
s(lp1193
g261
atp1194
a(S'informa\xc4\x8dnom'
p1195
(dp1196
S'ADJ'
p1197
F1.0
s(lp1198
g253
atp1199
a(S'syst\xc3\xa9me'
p1200
(dp1201
S'NOUN'
p1202
F1.0
s(lp1203
g240
atp1204
a(g454
(dp1205
g153
F1.0
s(lp1206
g454
atp1207
a(S'sis'
p1208
(dp1209
S'ADJ'
p1210
F0.0039000000000000003
sg171
F0.01058
sS'NOUN'
p1211
F0.98552
s(lp1212
g234
atp1213
a(g153
(dp1214
g153
F1.0
s(lp1215
g153
atp1216
asS'pl'
p1217
(lp1218
(S'te'
p1219
(dp1220
g171
F6e-05
sS'ADJ'
p1221
F0.999912
sS'NOUN'
p1222
F2.8000000000000003e-05
s(lp1223
g7
atp1224
a(S'pa\xc5\x84stwa'
p1225
(dp1226
S'NOUN'
p1227
F1.0
s(lp1228
g13
atp1229
a(S'cz\xc5\x82onkowskie'
p1230
(dp1231
S'ADJ'
p1232
F1.0
s(lp1233
g20
atp1234
a(S'stosuj\xc4\x85'
p1235
(dp1236
S'VERB'
p1237
F1.0
s(lp1238
g31
atp1239
a(S'w'
p1240
(dp1241
S'ADJ'
p1242
F0.0
sg171
F0.0
sS'NOUN'
p1243
F0.0
sS'ADP'
p1244
F1.000001
s(lp1245
g51
atp1246
a(S'kontrolach'
p1247
(dp1248
S'NOUN'
p1249
F1.0
s(lp1250
g89
atp1251
a(S'granicznych'
p1252
(dp1253
S'ADJ'
p1254
F0.9999999999999999
s(lp1255
tp1256
a(S'na'
p1257
(dp1258
g171
F0.02662
sS'VERB'
p1259
F0.0030280000000000003
sS'NOUN'
p1260
F0.000324
sS'ADP'
p1261
F0.9663579999999999
sS'PRT'
p1262
F0.00367
s(lp1263
g73
atp1264
a(S'zewn\xc4\x99trznych'
p1265
(dp1266
S'ADJ'
p1267
F1.0000010000000001
s(lp1268
g106
atp1269
a(S'granicach'
p1270
(dp1271
S'NOUN'
p1272
F1.0
s(lp1273
g43
atp1274
a(S'zasady'
p1275
(dp1276
S'NOUN'
p1277
F1.0
s(lp1278
g58
atp1279
a(S'schengen'
p1280
(dp1281
S'ADJ'
p1282
F0.002607
sS'NOUN'
p1283
F0.9972949999999998
sg171
F0.0001
s(lp1284
g66
atp1285
a(S'ju\xc5\xbc'
p1286
(dp1287
S'PRT'
p1288
F1.0
s(lp1289
g113
atp1290
a(S'od'
p1291
(dp1292
S'VERB'
p1293
F4.1e-05
sS'NOUN'
p1294
F5e-06
sS'ADP'
p1295
F0.999953
s(lp1296
tp1297
a(S'momentu'
p1298
(dp1299
S'NOUN'
p1300
F1.0
s(lp1301
g113
atp1302
a(S'swojego'
p1303
(dp1304
S'ADJ'
p1305
F1.0000010000000001
s(lp1306
g121
atp1307
a(S'przyst\xc4\x85pienia'
p1308
(dp1309
S'VERB'
p1310
F0.373029
sS'NOUN'
p1311
F0.626971
s(lp1312
g128
atp1313
a(g151
(dp1314
g171
F0.0
sg153
F1.0
s(lp1315
g151
atp1316
a(g922
(dp1317
S'ADV'
p1318
F0.000186
sS'NOUN'
p1319
F0.002169
sS'ADP'
p1320
F2.2e-05
sS'PRT'
p1321
F0.003072
sS'VERB'
p1322
F0.000393
sg171
F0.001425
sS'CONJ'
p1323
F0.992291
sS'ADJ'
p1324
F0.000444
s(lp1325
g149
atp1326
a(S'od'
p1327
(dp1328
S'VERB'
p1329
F4e-06
sS'NOUN'
p1330
F1.7e-05
sS'ADP'
p1331
F0.999979
s(lp1332
g161
atp1333
a(S'wrze\xc5\x9bnia'
p1334
(dp1335
S'NOUN'
p1336
F1.0
s(lp1337
g167
atp1338
a(S'2007'
p1339
(dp1340
S'NUM'
p1341
F0.011214
sS'ADJ'
p1342
F0.9887859999999999
s(lp1343
tp1344
a(S'r.'
p1345
(dp1346
g171
F1.0
s(lp1347
g174
atp1348
a(S'przeprowadzaj\xc4\x85'
p1349
(dp1350
S'VERB'
p1351
F1.0
s(lp1352
g394
atp1353
a(S'r\xc3\xb3wnie\xc5\xbc'
p1354
(dp1355
S'PRT'
p1356
F0.886004
sS'CONJ'
p1357
F0.113996
s(lp1358
g195
atp1359
a(S'kontrol\xc4\x99'
p1360
(dp1361
S'NOUN'
p1362
F1.0
s(lp1363
tp1364
a(S'osobist\xc4\x85'
p1365
(dp1366
S'ADJ'
p1367
F1.0
s(lp1368
g189
atp1369
a(g1240
(dp1370
S'ADJ'
p1371
F0.0
sg171
F1e-06
sS'NOUN'
p1372
F0.0
sS'ADP'
p1373
F0.9999990000000001
s(lp1374
g215
atp1375
a(S'systemie'
p1376
(dp1377
S'NOUN'
p1378
F1.0
s(lp1379
g240
atp1380
a(S'informacyjnym'
p1381
(dp1382
S'ADJ'
p1383
F0.9999999999999999
s(lp1384
g253
atp1385
a(S'schengen'
p1386
(dp1387
S'ADJ'
p1388
F0.003229
sS'NOUN'
p1389
F0.9965400000000001
sg171
F0.000232
s(lp1390
g261
atp1391
a(g454
(dp1392
g171
F0.000143
sS'NUM'
p1393
F3.5e-05
sS'NOUN'
p1394
F0.00019099999999999998
sg153
F0.999633
s(lp1395
g454
atp1396
a(S'sis'
p1397
(dp1398
S'ADV'
p1399
F0.012863
sg171
F0.002917
sS'ADJ'
p1400
F0.00133
sS'VERB'
p1401
F0.00808
sS'NOUN'
p1402
F0.9748129999999999
s(lp1403
g234
atp1404
a(g153
(dp1405
g153
F1.0
s(lp1406
g153
atp1407
asS'sl'
p1408
(lp1409
(S'tiste'
p1410
(dp1411
S'PRON'
p1412
F1.0
s(lp1413
g7
atp1414
a(S'dr\xc5\xbeave'
p1415
(dp1416
S'NOUN'
p1417
F1.000001
s(lp1418
g20
atp1419
a(S'\xc4\x8dlanice'
p1420
(dp1421
S'NOUN'
p1422
F1.000001
s(lp1423
g13
atp1424
a(S'po'
p1425
(dp1426
g171
F0.001648
sS'ADP'
p1427
F0.998352
s(lp1428
g51
atp1429
a(S'schengenskih'
p1430
(dp1431
S'ADJ'
p1432
F1.0
s(lp1433
g66
atp1434
a(S'pravilih'
p1435
(dp1436
S'NOUN'
p1437
F1.0
s(lp1438
g58
atp1439
a(S'izvajajo'
p1440
(dp1441
S'VERB'
p1442
F1.0
s(lp1443
g31
atp1444
a(S'kontrolo'
p1445
(dp1446
S'NOUN'
p1447
F1.0
s(lp1448
g89
atp1449
a(S'zunanjih'
p1450
(dp1451
S'ADJ'
p1452
F0.9999999999999999
s(lp1453
g106
atp1454
a(S'meja'
p1455
(dp1456
S'NOUN'
p1457
F1.0
s(lp1458
g43
atp1459
a(S'od'
p1460
(dp1461
S'ADP'
p1462
F1.0
s(lp1463
g113
atp1464
a(S'svojega'
p1465
(dp1466
S'PRON'
p1467
F0.9999999999999999
s(lp1468
g121
atp1469
a(S'pristopa'
p1470
(dp1471
S'NOUN'
p1472
F1.0
s(lp1473
g128
atp1474
a(g151
(dp1475
g153
F1.0
s(lp1476
g151
atp1477
a(S'od'
p1478
(dp1479
S'ADP'
p1480
F1.0
s(lp1481
g161
atp1482
a(S'septembra'
p1483
(dp1484
S'NOUN'
p1485
F1.0
s(lp1486
g167
atp1487
a(S'2007'
p1488
(dp1489
S'NUM'
p1490
F1.0
s(lp1491
g174
atp1492
a(S'prav'
p1493
(dp1494
S'ADV'
p1495
F0.096552
sS'PRT'
p1496
F0.901434
sS'VERB'
p1497
F0.002014
s(lp1498
tp1499
a(S'tako'
p1500
(dp1501
S'ADV'
p1502
F0.985638
sS'PRON'
p1503
F0.006827
sS'CONJ'
p1504
F0.007535
s(lp1505
g195
atp1506
a(S'izvajajo'
p1507
(dp1508
S'VERB'
p1509
F1.0
s(lp1510
g394
atp1511
a(S'preglede'
p1512
(dp1513
S'NOUN'
p1514
F1.0
s(lp1515
g189
atp1516
a(S'oseb'
p1517
(dp1518
S'NOUN'
p1519
F1.0
s(lp1520
g208
atp1521
a(g1184
(dp1522
S'ADP'
p1523
F1.0
s(lp1524
g215
atp1525
a(S'schengenskem'
p1526
(dp1527
S'NOUN'
p1528
F0.002632
sS'ADJ'
p1529
F0.9973649999999998
sg171
F2e-06
s(lp1530
g261
atp1531
a(S'informacijskem'
p1532
(dp1533
S'ADJ'
p1534
F1.0
s(lp1535
g253
atp1536
a(S'sistemu'
p1537
(dp1538
S'NOUN'
p1539
F1.0
s(lp1540
g240
atp1541
a(g454
(dp1542
g153
F1.0
s(lp1543
g454
atp1544
a(S'sis'
p1545
(dp1546
S'ADV'
p1547
F0.012538
sg171
F0.031493
sS'ADJ'
p1548
F0.003478
sS'VERB'
p1549
F0.006121000000000001
sS'NOUN'
p1550
F0.9463719999999999
s(lp1551
g234
atp1552
a(g153
(dp1553
g153
F1.0
s(lp1554
g153
atp1555
asS'es'
p1556
(lp1557
(S'\xc3\x89stos'
p1558
(dp1559
S'PRON'
p1560
F1.0
s(lp1561
g7
atp1562
a(S'han'
p1563
(dp1564
S'VERB'
p1565
F1.0
s(lp1566
g294
atp1567
a(S'venido'
p1568
(dp1569
S'VERB'
p1570
F1.0
s(lp1571
g299
atp1572
a(S'aplicando'
p1573
(dp1574
S'VERB'
p1575
F1.0
s(lp1576
g31
atp1577
a(S'las'
p1578
(dp1579
S'PRON'
p1580
F0.0
sS'DET'
p1581
F1.0
s(lp1582
g51
atp1583
a(S'normas'
p1584
(dp1585
S'NOUN'
p1586
F1.0
s(lp1587
g58
atp1588
a(S'de'
p1589
(dp1590
g171
F0.000128
sS'CONJ'
p1591
F0.000483
sS'ADP'
p1592
F0.99939
s(lp1593
g73
atp1594
a(S'schengen'
p1595
(dp1596
S'VERB'
p1597
F0.005429
sS'NOUN'
p1598
F0.994571
s(lp1599
g66
atp1600
a(S'sobre'
p1601
(dp1602
S'NOUN'
p1603
F0.0
sS'ADP'
p1604
F1.0
s(lp1605
tp1606
a(S'controles'
p1607
(dp1608
S'NOUN'
p1609
F1.0
s(lp1610
g89
atp1611
a(S'en'
p1612
(dp1613
g171
F0.0
sS'CONJ'
p1614
F0.0
sS'ADP'
p1615
F1.0
s(lp1616
g73
atp1617
a(S'las'
p1618
(dp1619
S'PRON'
p1620
F0.0
sS'DET'
p1621
F1.0
s(lp1622
tp1623
a(S'fronteras'
p1624
(dp1625
S'NOUN'
p1626
F1.0
s(lp1627
g43
atp1628
a(S'exteriores'
p1629
(dp1630
S'ADJ'
p1631
F1.0
s(lp1632
g106
atp1633
a(S'desde'
p1634
(dp1635
S'ADP'
p1636
F1.0
s(lp1637
g113
atp1638
a(S'su'
p1639
(dp1640
S'PRON'
p1641
F1.0
s(lp1642
g121
atp1643
a(S'adhesi\xc3\xb3n'
p1644
(dp1645
S'NOUN'
p1646
F1.0
s(lp1647
g128
atp1648
a(g151
(dp1649
g153
F1.0
s(lp1650
g151
atp1651
a(S'y'
p1652
(dp1653
g171
F0.000442
sS'CONJ'
p1654
F0.999558
s(lp1655
g149
atp1656
a(S'desde'
p1657
(dp1658
S'ADP'
p1659
F1.0
s(lp1660
g161
atp1661
a(S'septiembre'
p1662
(dp1663
S'NOUN'
p1664
F1.0
s(lp1665
g167
atp1666
a(S'de'
p1667
(dp1668
g171
F0.009083
sS'CONJ'
p1669
F0.000711
sS'ADP'
p1670
F0.990206
s(lp1671
tp1672
a(S'2007'
p1673
(dp1674
g171
F0.803078
sS'NUM'
p1675
F0.196922
s(lp1676
g174
atp1677
a(S'tambi\xc3\xa9n'
p1678
(dp1679
S'ADV'
p1680
F1.0
s(lp1681
g195
atp1682
a(S'efect\xc3\xbaan'
p1683
(dp1684
S'VERB'
p1685
F1.0
s(lp1686
g394
atp1687
a(S'controles'
p1688
(dp1689
S'NOUN'
p1690
F1.0
s(lp1691
g189
atp1692
a(S'de'
p1693
(dp1694
g171
F2.9e-05
sS'CONJ'
p1695
F0.000449
sS'ADP'
p1696
F0.999522
s(lp1697
g415
atp1698
a(S'personas'
p1699
(dp1700
S'NOUN'
p1701
F1.0
s(lp1702
g208
atp1703
a(S'en'
p1704
(dp1705
g171
F0.0
sS'CONJ'
p1706
F0.0
sS'ADP'
p1707
F1.0
s(lp1708
g215
atp1709
a(S'el'
p1710
(dp1711
S'PRON'
p1712
F5e-06
sS'DET'
p1713
F0.999995
s(lp1714
g222
atp1715
a(S'sistema'
p1716
(dp1717
S'NOUN'
p1718
F1.0
s(lp1719
g240
atp1720
a(S'de'
p1721
(dp1722
g171
F2.9e-05
sS'CONJ'
p1723
F0.000449
sS'ADP'
p1724
F0.999522
s(lp1725
tp1726
a(S'informaci\xc3\xb3n'
p1727
(dp1728
S'NOUN'
p1729
F1.0
s(lp1730
g253
atp1731
a(S'de'
p1732
(dp1733
g171
F5.2e-05
sS'CONJ'
p1734
F0.000457
sS'ADP'
p1735
F0.999491
s(lp1736
tp1737
a(S'schengen'
p1738
(dp1739
S'VERB'
p1740
F0.00126
sS'NOUN'
p1741
F0.99874
s(lp1742
g261
atp1743
a(S'('
p1744
(dp1745
g153
F1.0
s(lp1746
g454
atp1747
a(S'sis'
p1748
(dp1749
S'ADV'
p1750
F0.020822
sS'NOUN'
p1751
F0.118294
sS'VERB'
p1752
F0.30892000000000003
sS'ADJ'
p1753
F0.551965
s(lp1754
tp1755
a(S')'
p1756
(dp1757
g153
F1.0
s(lp1758
g234
atp1759
a(g153
(dp1760
g153
F1.0
s(lp1761
g153
atp1762
as.