(dp0
S'fr'
p1
(lp2
(S'il'
p3
(dp4
S'PRON'
p5
F1.0
s(lp6
S'collaborating'
p7
atp8
a(S'est'
p9
(dp10
S'VERB'
p11
F0.999997
sS'NOUN'
p12
F3e-06
s(lp13
S'is'
p14
atp15
a(S'particuli\xc3\xa8rement'
p16
(dp17
S'ADV'
p18
F1.0
s(lp19
S'particularly'
p20
atp21
a(S'important'
p22
(dp23
S'VERB'
p24
F0.078762
sS'ADJ'
p25
F0.921238
s(lp26
S'important'
p27
atp28
a(S'de'
p29
(dp30
S'ADP'
p31
F1.0
s(lp32
tp33
a(S'collaborer'
p34
(dp35
S'VERB'
p36
F1.0
s(lp37
tp38
a(S'sur'
p39
(dp40
S'ADP'
p41
F1.0
s(lp42
S'on'
p43
atp44
a(S'des'
p45
(dp46
S'DET'
p47
F0.00067
sS'ADP'
p48
F0.99933
s(lp49
tp50
a(S'innovations'
p51
(dp52
S'NOUN'
p53
F1.0
s(lp54
S'innovations'
p55
atp56
a(S'permettant'
p57
(dp58
S'VERB'
p59
F1.0
s(lp60
S'for'
p61
atp62
a(S'le'
p63
(dp64
S'PRON'
p65
F3e-06
sS'DET'
p66
F0.999997
s(lp67
S'the'
p68
atp69
a(S'd\xc3\xa9veloppement'
p70
(dp71
S'NOUN'
p72
F1.0
s(lp73
S'development'
p74
atp75
a(S"d'"
p76
(dp77
S'NOUN'
p78
F0.032441
sS'VERB'
p79
F0.694014
sS'ADJ'
p80
F0.273544
s(lp81
S'of'
p82
atp83
a(S'\xc3\xa9conomies'
p84
(dp85
S'NOUN'
p86
F1.0
s(lp87
S'economies'
p88
atp89
a(S'\xc3\xa0'
p90
(dp91
S'ADP'
p92
F1.0
s(lp93
S'low-carbon'
p94
atp95
a(S'faible'
p96
(dp97
S'NOUN'
p98
F0.012039
sS'ADJ'
p99
F0.987961
s(lp100
g94
atp101
a(S'utilisation'
p102
(dp103
S'NOUN'
p104
F1.0
s(lp105
g94
atp106
a(S'de'
p107
(dp108
S'ADP'
p109
F1.0
s(lp110
tp111
a(S'carbone'
p112
(dp113
S'NOUN'
p114
F1.0
s(lp115
tp116
a(S'et'
p117
(dp118
S'CONJ'
p119
F1.0
s(lp120
S'and'
p121
atp122
a(S'de'
p123
(dp124
S'ADP'
p125
F1.0
s(lp126
g82
atp127
a(S'soci\xc3\xa9t\xc3\xa9s'
p128
(dp129
S'NOUN'
p130
F1.0
s(lp131
S'societies'
p132
atp133
a(S'\xc3\xa0'
p134
(dp135
S'ADP'
p136
F1.0
s(lp137
g94
atp138
a(S'haut'
p139
(dp140
S'ADV'
p141
F0.102859
sS'NOUN'
p142
F0.014181
sS'ADJ'
p143
F0.88296
s(lp144
g7
atp145
a(S'rendement'
p146
(dp147
S'NOUN'
p148
F1.0
s(lp149
S'efficient'
p150
atp151
a(S'\xc3\xa9nerg\xc3\xa9tique'
p152
(dp153
S'NOUN'
p154
F0.012852
sS'ADJ'
p155
F0.987148
s(lp156
S'energy'
p157
atp158
a(S'.'
p159
(dp160
g159
F1.0
s(lp161
g159
atp162
asS'en'
p163
(lp164
(g7
(dp165
S'VERB'
p166
F1.0
s(lp167
g7
atp168
a(g43
(dp169
S'ADV'
p170
F0.000773
sS'PRT'
p171
F0.030835
sS'ADJ'
p172
F9.6e-05
sS'ADP'
p173
F0.968281
sS'NOUN'
p174
F1.6e-05
s(lp175
g43
atp176
a(g55
(dp177
S'NOUN'
p178
F1.0
s(lp179
g55
atp180
a(g61
(dp181
S'ADP'
p182
F1.0
s(lp183
g61
atp184
a(g68
(dp185
S'NOUN'
p186
F1e-06
sS'DET'
p187
F0.999999
s(lp188
g68
atp189
a(g74
(dp190
S'NOUN'
p191
F1.0
s(lp192
g74
atp193
a(g82
(dp194
S'ADP'
p195
F1.0
s(lp196
g82
atp197
a(g94
(dp198
S'ADJ'
p199
F0.219863
sS'NOUN'
p200
F0.780136
s(lp201
g94
atp202
a(g88
(dp203
S'NOUN'
p204
F1.0
s(lp205
g88
atp206
a(g121
(dp207
S'CONJ'
p208
F0.999999
sS'NOUN'
p209
F1e-06
s(lp210
g121
atp211
a(g157
(dp212
S'NOUN'
p213
F1.0
s(lp214
g157
atp215
a(g150
(dp216
S'ADJ'
p217
F1.0
s(lp218
g150
atp219
a(g132
(dp220
S'NOUN'
p221
F1.0
s(lp222
g132
atp223
a(g14
(dp224
S'VERB'
p225
F1.0
s(lp226
g14
atp227
a(g20
(dp228
S'ADV'
p229
F1.0
s(lp230
g20
atp231
a(g27
(dp232
S'ADJ'
p233
F1.0
s(lp234
g27
atp235
a(g159
(dp236
g159
F1.0
s(lp237
g159
atp238
asS'nl'
p239
(lp240
(S'vooral'
p241
(dp242
S'ADV'
p243
F1.0
s(lp244
g20
atp245
a(S'belangrijk'
p246
(dp247
S'ADJ'
p248
F1.0
s(lp249
g27
atp250
a(S'is'
p251
(dp252
S'VERB'
p253
F1.0
s(lp254
g14
atp255
a(S'samenwerking'
p256
(dp257
S'NOUN'
p258
F1.0
s(lp259
g7
atp260
a(S'ten'
p261
(dp262
S'ADP'
p263
F1.0
s(lp264
tp265
a(S'behoeve'
p266
(dp267
S'NOUN'
p268
F1.0
s(lp269
g7
atp270
a(S'van'
p271
(dp272
S'ADP'
p273
F1.0
s(lp274
g43
atp275
a(S'innovatie'
p276
(dp277
S'NOUN'
p278
F1.0
s(lp279
g55
atp280
a(S'bij'
p281
(dp282
S'ADV'
p283
F0.004135
sS'NOUN'
p284
F0.0
sS'ADJ'
p285
F0.0
sS'ADP'
p286
F0.995865
s(lp287
g61
atp288
a(S'de'
p289
(dp290
S'DET'
p291
F1.0
s(lp292
g68
atp293
a(S'ontwikkeling'
p294
(dp295
S'NOUN'
p296
F1.0
s(lp297
g74
atp298
a(S'van'
p299
(dp300
S'ADP'
p301
F1.0
s(lp302
g82
atp303
a(S'koolstofarme'
p304
(dp305
S'NOUN'
p306
F0.009206
sS'ADJ'
p307
F0.990794
s(lp308
g94
atp309
a(S'economie\xc3\xabn'
p310
(dp311
S'NOUN'
p312
F1.0
s(lp313
g88
atp314
a(S'en'
p315
(dp316
S'CONJ'
p317
F1.0
s(lp318
g121
atp319
a(S'energie-effici\xc3\xabnte'
p320
(dp321
S'NOUN'
p322
F0.003254
sS'ADJ'
p323
F0.996746
s(lp324
g150
atp325
a(S'maatschappijen'
p326
(dp327
S'NOUN'
p328
F1.0
s(lp329
g132
atp330
a(g159
(dp331
g159
F1.0
s(lp332
g159
atp333
asS'de'
p334
(lp335
(S'zusammenarbeit'
p336
(dp337
S'ADJ'
p338
F0.004268
sS'NOUN'
p339
F0.995052
s(lp340
g7
atp341
a(S'bei'
p342
(dp343
S'PRT'
p344
F0.000599
sS'ADP'
p345
F0.999401
s(lp346
g43
atp347
a(S'innovationen'
p348
(dp349
S'ADJ'
p350
F0.068287
sS'NOUN'
p351
F0.908558
s(lp352
g55
atp353
a(S'f\xc3\xbcr'
p354
(dp355
S'ADP'
p356
F1.0
s(lp357
g61
atp358
a(S'die'
p359
(dp360
S'PRON'
p361
F0.000214
sS'DET'
p362
F0.999748
s(lp363
g68
atp364
a(S'entwicklung'
p365
(dp366
S'ADJ'
p367
F0.014462
sS'NOUN'
p368
F0.970208
s(lp369
g74
atp370
a(S'von'
p371
(dp372
S'NOUN'
p373
F0.001228
sS'ADP'
p374
F0.998772
s(lp375
g82
atp376
a(S'low'
p377
(dp378
S'NOUN'
p379
F0.01963
sS'ADJ'
p380
F0.976732
s(lp381
tp382
a(S'carbon'
p383
(dp384
S'NOUN'
p385
F0.9995949999999999
s(lp386
g94
atp387
a(S'economies'
p388
(dp389
S'VERB'
p390
F0.757695
sS'ADJ'
p391
F0.078989
s(lp392
g88
atp393
a(S','
p394
(dp395
g159
F1.0
s(lp396
g121
atp397
a(S'f\xc3\xbcr'
p398
(dp399
S'ADP'
p400
F1.0
s(lp401
g157
atp402
a(S'energieeffizienzgesellschaften'
p403
(dp404
S'NOUN'
p405
F0.18376
sS'ADJ'
p406
F0.78822
s(lp407
g132
atp408
a(S'ist'
p409
(dp410
S'VERB'
p411
F1.0
s(lp412
g14
atp413
a(S'besonders'
p414
(dp415
S'ADV'
p416
F1.0
s(lp417
g20
atp418
a(S'wichtig'
p419
(dp420
S'ADJ'
p421
F1.0
s(lp422
g27
atp423
a(g159
(dp424
g159
F1.0
s(lp425
g159
atp426
asS'it'
p427
(lp428
(S'particolarmente'
p429
(dp430
S'ADV'
p431
F1.0
s(lp432
g20
atp433
a(S'importante'
p434
(dp435
S'NOUN'
p436
F0.005079
sS'VERB'
p437
F0.00034
sS'ADJ'
p438
F0.994581
s(lp439
g27
atp440
a(S'\xc3\xa8'
p441
(dp442
S'VERB'
p443
F1.0
s(lp444
g14
atp445
a(S'la'
p446
(dp447
S'PRON'
p448
F0.0
sS'DET'
p449
F1.0
s(lp450
g68
atp451
a(S'collaborazione'
p452
(dp453
S'NOUN'
p454
F1.0
s(lp455
tp456
a(S'a'
p457
(dp458
S'CONJ'
p459
F0.000215
sS'ADP'
p460
F0.999785
s(lp461
g43
atp462
a(S'innovazioni'
p463
(dp464
S'NOUN'
p465
F1.0
s(lp466
g55
atp467
a(S'mirate'
p468
(dp469
S'VERB'
p470
F0.587715
sS'ADJ'
p471
F0.412285
s(lp472
g7
atp473
a(S'allo'
p474
(dp475
S'X'
p476
F2e-06
sS'ADP'
p477
F0.999998
s(lp478
tp479
a(S'sviluppo'
p480
(dp481
S'VERB'
p482
F6.3e-05
sS'NOUN'
p483
F0.999937
s(lp484
g74
atp485
a(S'di'
p486
(dp487
S'CONJ'
p488
F4e-06
sS'ADP'
p489
F0.999996
s(lp490
g82
atp491
a(S'economie'
p492
(dp493
S'NOUN'
p494
F1.0
s(lp495
g88
atp496
a(g457
(dp497
S'CONJ'
p498
F0.000906
sS'ADP'
p499
F0.999094
s(lp500
g94
atp501
a(S'bassa'
p502
(dp503
S'NOUN'
p504
F0.020457
sS'ADJ'
p505
F0.979543
s(lp506
g94
atp507
a(S'emissione'
p508
(dp509
S'NOUN'
p510
F1.0
s(lp511
tp512
a(S'di'
p513
(dp514
S'CONJ'
p515
F4e-06
sS'ADP'
p516
F0.999996
s(lp517
tp518
a(S'co2'
p519
(dp520
S'NOUN'
p521
F1.0
s(lp522
g94
atp523
a(S'e'
p524
(dp525
S'CONJ'
p526
F1.0
s(lp527
g121
atp528
a(S'di'
p529
(dp530
S'CONJ'
p531
F2e-06
sS'ADP'
p532
F0.999998
s(lp533
tp534
a(S'societ\xc3\xa0'
p535
(dp536
S'NOUN'
p537
F1.0
s(lp538
g132
atp539
a(S'efficienti'
p540
(dp541
S'ADJ'
p542
F1.0
s(lp543
g150
atp544
a(S'dal'
p545
(dp546
S'ADP'
p547
F1.0
s(lp548
g61
atp549
a(S'punto'
p550
(dp551
S'ADV'
p552
F0.000196
sS'ADJ'
p553
F0.000547
sS'VERB'
p554
F0.000276
sS'NOUN'
p555
F0.998981
s(lp556
tp557
a(S'di'
p558
(dp559
S'CONJ'
p560
F8e-06
sS'ADP'
p561
F0.999992
s(lp562
tp563
a(S'vista'
p564
(dp565
S'VERB'
p566
F0.003199
sS'NOUN'
p567
F0.9968
s(lp568
tp569
a(S'energetico'
p570
(dp571
S'ADJ'
p572
F1.0
s(lp573
g157
atp574
a(g159
(dp575
g159
F1.0
s(lp576
g159
atp577
asS'sk'
p578
(lp579
(S'mimoriadne'
p580
(dp581
S'ADV'
p582
F0.879682
sS'ADJ'
p583
F0.12031800000000001
s(lp584
g20
atp585
a(S'd\xc3\xb4le\xc5\xbeit\xc3\xa1'
p586
(dp587
S'ADJ'
p588
F1.0
s(lp589
g27
atp590
a(S'je'
p591
(dp592
g476
F0.000674
sS'VERB'
p593
F0.999243
sS'PRON'
p594
F8.3e-05
s(lp595
g14
atp596
a(S'spolupr\xc3\xa1ca'
p597
(dp598
S'NOUN'
p599
F1.0
s(lp600
g7
atp601
a(S'na'
p602
(dp603
g476
F0.00013299999999999998
sS'CONJ'
p604
F2e-05
sS'ADP'
p605
F0.999841
sS'PRT'
p606
F7e-06
s(lp607
g43
atp608
a(S'inov\xc3\xa1ci\xc3\xa1ch'
p609
(dp610
S'NOUN'
p611
F1.0
s(lp612
g55
atp613
a(S'v'
p614
(dp615
g476
F0.000112
sS'ADP'
p616
F0.999888
s(lp617
g61
atp618
a(S'oblasti'
p619
(dp620
S'NOUN'
p621
F1.0
s(lp622
g68
atp623
a(S'rozvoja'
p624
(dp625
S'NOUN'
p626
F1.0
s(lp627
g74
atp628
a(S'hospod\xc3\xa1rstiev'
p629
(dp630
S'NOUN'
p631
F1.0
s(lp632
g88
atp633
a(S's'
p634
(dp635
g476
F0.000315
sS'CONJ'
p636
F0.000102
sS'NOUN'
p637
F9e-06
sS'ADP'
p638
F0.999536
sS'PRT'
p639
F3.8e-05
s(lp640
g94
atp641
a(S'n\xc3\xadzkou'
p642
(dp643
S'ADJ'
p644
F1.0
s(lp645
g94
atp646
a(S'produkciou'
p647
(dp648
S'NOUN'
p649
F1.0
s(lp650
tp651
a(S'co2'
p652
(dp653
g476
F0.433687
sS'NOUN'
p654
F0.566313
s(lp655
g94
atp656
a(g457
(dp657
g476
F0.011128
sS'CONJ'
p658
F0.988726
sS'NOUN'
p659
F3.5000000000000004e-05
sS'ADP'
p660
F1.5e-05
sS'PRT'
p661
F9.6e-05
s(lp662
g121
atp663
a(S'energeticky'
p664
(dp665
S'ADV'
p666
F1.0
s(lp667
g157
atp668
a(S'\xc3\xba\xc4\x8dinn\xc3\xbdch'
p669
(dp670
S'ADJ'
p671
F1.0
s(lp672
g150
atp673
a(S'spolo\xc4\x8dnost\xc3\xad'
p674
(dp675
S'NOUN'
p676
F1.0
s(lp677
g132
atp678
a(g159
(dp679
g159
F1.0
s(lp680
g159
atp681
asS'pl'
p682
(lp683
(S'szczeg\xc3\xb3lnie'
p684
(dp685
S'ADV'
p686
F0.759819
sS'PRT'
p687
F0.240181
s(lp688
g20
atp689
a(S'wa\xc5\xbcna'
p690
(dp691
S'ADJ'
p692
F1.0
s(lp693
g27
atp694
a(S'jest'
p695
(dp696
S'VERB'
p697
F1.0
s(lp698
g14
atp699
a(S'wsp\xc3\xb3\xc5\x82praca'
p700
(dp701
S'NOUN'
p702
F1.0
s(lp703
tp704
a(S'w'
p705
(dp706
S'ADJ'
p707
F0.0
sg476
F0.0
sS'NOUN'
p708
F0.0
sS'ADP'
p709
F0.9999999999999999
s(lp710
tp711
a(S'zakresie'
p712
(dp713
S'NOUN'
p714
F1.0
s(lp715
g43
atp716
a(S'innowacji'
p717
(dp718
S'NOUN'
p719
F1.0
s(lp720
g55
atp721
a(S's\xc5\x82u\xc5\xbc\xc4\x85cych'
p722
(dp723
S'VERB'
p724
F1.0
s(lp725
g61
atp726
a(S'rozwojowi'
p727
(dp728
S'NOUN'
p729
F1.0
s(lp730
g74
atp731
a(S'gospodarek'
p732
(dp733
S'NOUN'
p734
F1.0
s(lp735
g88
atp736
a(S'niskoemisyjnych'
p737
(dp738
S'ADV'
p739
F5.2e-05
sS'NOUN'
p740
F0.004999000000000001
sS'VERB'
p741
F0.000519
sS'ADJ'
p742
F0.9944280000000001
s(lp743
g94
atp744
a(S'i'
p745
(dp746
S'PRT'
p747
F0.000785
sS'CONJ'
p748
F0.998727
sS'NOUN'
p749
F7.400000000000001e-05
sg476
F1e-06
sS'PRON'
p750
F0.000413
s(lp751
g121
atp752
a(S'spo\xc5\x82ecze\xc5\x84stw'
p753
(dp754
S'NOUN'
p755
F1.0
s(lp756
g132
atp757
a(S'efektywnie'
p758
(dp759
S'ADV'
p760
F1.0
s(lp761
g150
atp762
a(S'u\xc5\xbcytkuj\xc4\x85cych'
p763
(dp764
S'ADV'
p765
F0.004381
sS'NOUN'
p766
F0.004269999999999999
sS'VERB'
p767
F0.7448960000000006
sS'ADJ'
p768
F0.24645
s(lp769
g7
atp770
a(S'energi\xc4\x99'
p771
(dp772
S'NOUN'
p773
F1.0
s(lp774
g157
atp775
a(g159
(dp776
g159
F1.0
s(lp777
g159
atp778
asS'sl'
p779
(lp780
(S'sodelovanje'
p781
(dp782
S'NOUN'
p783
F1.0
s(lp784
g7
atp785
a(S'pri'
p786
(dp787
S'ADP'
p788
F1.0
s(lp789
g43
atp790
a(S'inovacijah'
p791
(dp792
S'ADV'
p793
F6.9e-05
sS'ADJ'
p794
F0.000202
sS'NOUN'
p795
F0.999729
s(lp796
g55
atp797
a(S'za'
p798
(dp799
S'ADV'
p800
F4.2e-05
sg476
F4e-06
sS'ADP'
p801
F0.999953
s(lp802
g61
atp803
a(S'razvoj'
p804
(dp805
S'NOUN'
p806
F1.0
s(lp807
g74
atp808
a(S'nizkooglji\xc4\x8dnih'
p809
(dp810
S'NOUN'
p811
F0.002485
sS'ADJ'
p812
F0.9975149999999999
s(lp813
g94
atp814
a(S'gospodarstev'
p815
(dp816
S'NOUN'
p817
F1.0
s(lp818
g88
atp819
a(S'in'
p820
(dp821
S'ADV'
p822
F8.6e-05
sg476
F3e-06
sS'CONJ'
p823
F0.999906
sS'NOUN'
p824
F4e-06
s(lp825
g121
atp826
a(S'energetsko'
p827
(dp828
S'ADJ'
p829
F1.0
s(lp830
g157
atp831
a(S'u\xc4\x8dinkovitih'
p832
(dp833
S'ADJ'
p834
F1.0
s(lp835
g150
atp836
a(S'dru\xc5\xbeb'
p837
(dp838
S'NOUN'
p839
F1.0
s(lp840
g132
atp841
a(S'je'
p842
(dp843
S'PRON'
p844
F8.8e-05
sS'VERB'
p845
F0.999907
sg476
F4e-06
s(lp846
g14
atp847
a(S'posebej'
p848
(dp849
S'ADV'
p850
F1.0
s(lp851
g20
atp852
a(S'pomembno'
p853
(dp854
S'ADV'
p855
F0.170626
sS'ADJ'
p856
F0.829374
s(lp857
g27
atp858
a(g159
(dp859
g159
F1.0
s(lp860
g159
atp861
asS'es'
p862
(lp863
(S'colaborar'
p864
(dp865
S'VERB'
p866
F1.0
s(lp867
g7
atp868
a(S'en'
p869
(dp870
g476
F3.5e-05
sS'CONJ'
p871
F1.8e-05
sS'ADP'
p872
F0.999947
s(lp873
g43
atp874
a(S'innovaciones'
p875
(dp876
S'NOUN'
p877
F1.0
s(lp878
g55
atp879
a(S'para'
p880
(dp881
S'CONJ'
p882
F0.000662
sS'ADP'
p883
F0.999338
s(lp884
g61
atp885
a(S'el'
p886
(dp887
S'PRON'
p888
F5e-06
sS'DET'
p889
F0.999995
s(lp890
g68
atp891
a(S'desarrollo'
p892
(dp893
S'NOUN'
p894
F1.0
s(lp895
g74
atp896
a(S'de'
p897
(dp898
g476
F2.9e-05
sS'CONJ'
p899
F0.000449
sS'ADP'
p900
F0.999522
s(lp901
g82
atp902
a(S'econom\xc3\xadas'
p903
(dp904
S'NOUN'
p905
F1.0
s(lp906
g88
atp907
a(S'bajas'
p908
(dp909
S'ADJ'
p910
F1.0
s(lp911
g94
atp912
a(S'en'
p913
(dp914
g476
F2e-05
sS'CONJ'
p915
F3.2e-05
sS'ADP'
p916
F0.999949
s(lp917
tp918
a(S'carbono'
p919
(dp920
S'NOUN'
p921
F1.0
s(lp922
g94
atp923
a(S'y'
p924
(dp925
g476
F0.001008
sS'CONJ'
p926
F0.998992
s(lp927
g121
atp928
a(S'sociedades'
p929
(dp930
S'NOUN'
p931
F1.0
s(lp932
g132
atp933
a(S'eficientes'
p934
(dp935
S'ADJ'
p936
F1.0
s(lp937
g150
atp938
a(S'desde'
p939
(dp940
S'ADP'
p941
F1.0
s(lp942
g7
atp943
a(S'el'
p944
(dp945
S'PRON'
p946
F5e-06
sS'DET'
p947
F0.999995
s(lp948
tp949
a(S'punto'
p950
(dp951
S'NOUN'
p952
F1.0
s(lp953
tp954
a(S'de'
p955
(dp956
g476
F2.9e-05
sS'CONJ'
p957
F0.000452
sS'ADP'
p958
F0.999519
s(lp959
tp960
a(S'vista'
p961
(dp962
S'VERB'
p963
F0.000347
sS'NOUN'
p964
F0.999653
s(lp965
g7
atp966
a(S'energ\xc3\xa9tico'
p967
(dp968
S'ADJ'
p969
F1.0
s(lp970
g157
atp971
a(S'resulta'
p972
(dp973
S'VERB'
p974
F1.0
s(lp975
g14
atp976
a(S'particularmente'
p977
(dp978
S'ADV'
p979
F1.0
s(lp980
g20
atp981
a(S'importante'
p982
(dp983
S'VERB'
p984
F0.089169
sS'ADJ'
p985
F0.910831
s(lp986
g27
atp987
a(g159
(dp988
g159
F1.0
s(lp989
g159
atp990
as.