(dp0
S'fr'
p1
(lp2
(S'd\xc3\xa8s'
p3
(dp4
S'ADP'
p5
F1.0
s(lp6
tp7
a(S'lors'
p8
(dp9
S'ADV'
p10
F1.0
s(lp11
S'therefore'
p12
atp13
a(S','
p14
(dp15
S'.'
p16
F1.0
s(lp17
tp18
a(S'nous'
p19
(dp20
S'PRON'
p21
F1.0
s(lp22
tp23
a(S'nous'
p24
(dp25
S'PRON'
p26
F1.0
s(lp27
S'we'
p28
atp29
a(S'trouvons'
p30
(dp31
S'VERB'
p32
F1.0
s(lp33
S'are'
p34
atp35
a(S'dans'
p36
(dp37
S'NOUN'
p38
F3.2e-05
sS'ADP'
p39
F0.999968
s(lp40
S'in'
p41
atp42
a(S'une'
p43
(dp44
S'NOUN'
p45
F1.8e-05
sS'NUM'
p46
F0.024699
sS'DET'
p47
F0.975282
s(lp48
S'a'
p49
atp50
a(S'situation'
p51
(dp52
S'NOUN'
p53
F1.0
s(lp54
S'situation'
p55
atp56
a(S'tr\xc3\xa8s'
p57
(dp58
S'ADV'
p59
F1.0
s(lp60
S'very'
p61
atp62
a(S'positive'
p63
(dp64
S'NOUN'
p65
F0.076433
sS'VERB'
p66
F0.00956
sS'ADJ'
p67
F0.914007
s(lp68
S'positive'
p69
atp70
a(S'o\xc3\xb9'
p71
(dp72
S'ADV'
p73
F0.010551
sS'PRON'
p74
F0.989449
s(lp75
S'where'
p76
atp77
a(S"l'"
p78
(dp79
S'ADJ'
p80
F0.008651
sS'VERB'
p81
F0.9704389999999999
sS'NOUN'
p82
F0.02091
s(lp83
tp84
a(S'on'
p85
(dp86
S'PRON'
p87
F1.0
s(lp88
S'we'
p89
atp90
a(S'peut'
p91
(dp92
S'VERB'
p93
F1.0
s(lp94
S'can'
p95
atp96
a(S'faire'
p97
(dp98
S'VERB'
p99
F1.0
s(lp100
S'kill'
p101
atp102
a(S"d'"
p103
(dp104
S'ADJ'
p105
F0.050629
sS'VERB'
p106
F0.794975
sS'NOUN'
p107
F0.154398
s(lp108
S'with'
p109
atp110
a(S'une'
p111
(dp112
S'NOUN'
p113
F1.5e-05
sS'NUM'
p114
F0.021976
sS'DET'
p115
F0.978009
s(lp116
S'one'
p117
atp118
a(S'pierre'
p119
(dp120
S'NOUN'
p121
F1.0
s(lp122
tp123
a(S'deux'
p124
(dp125
S'NUM'
p126
F0.999997
sS'NOUN'
p127
F3e-06
s(lp128
S'two'
p129
atp130
a(S'coups'
p131
(dp132
S'NOUN'
p133
F1.0
s(lp134
S'stone'
p135
atp136
a(g16
(dp137
g16
F1.0
s(lp138
g16
atp139
asS'en'
p140
(lp141
(g12
(dp142
S'ADV'
p143
F1.0
s(lp144
g12
atp145
a(g28
(dp146
S'PRON'
p147
F1.0
s(lp148
g28
atp149
a(g34
(dp150
S'VERB'
p151
F1.0
sS'NOUN'
p152
F0.0
s(lp153
g34
atp154
a(g41
(dp155
S'ADV'
p156
F0.013237
sS'PRT'
p157
F0.002087
sS'ADP'
p158
F0.984675
s(lp159
g41
atp160
a(g49
(dp161
S'NOUN'
p162
F1e-06
sS'DET'
p163
F0.999999
s(lp164
g49
atp165
a(g61
(dp166
S'ADV'
p167
F0.666634
sS'ADJ'
p168
F0.333366
s(lp169
g61
atp170
a(g69
(dp171
S'NOUN'
p172
F0.007987
sS'ADJ'
p173
F0.992013
s(lp174
g69
atp175
a(g55
(dp176
S'NOUN'
p177
F1.0
s(lp178
g55
atp179
a(g76
(dp180
S'ADV'
p181
F0.999877
sS'ADP'
p182
F0.000123
s(lp183
g76
atp184
a(g89
(dp185
S'PRON'
p186
F1.0
s(lp187
g89
atp188
a(g95
(dp189
S'VERB'
p190
F1.0
sS'NOUN'
p191
F0.0
s(lp192
g95
atp193
a(g101
(dp194
S'VERB'
p195
F0.999997
sS'NOUN'
p196
F2e-06
s(lp197
g101
atp198
a(g129
(dp199
S'NUM'
p200
F0.999935
sS'NOUN'
p201
F6.5e-05
s(lp202
g129
atp203
a(S'birds'
p204
(dp205
S'NOUN'
p206
F1.0
s(lp207
g204
atp208
a(g109
(dp209
S'ADP'
p210
F1.0
s(lp211
g109
atp212
a(g117
(dp213
S'PRON'
p214
F0.000203
sS'NUM'
p215
F0.999785
sS'NOUN'
p216
F1.2e-05
s(lp217
g117
atp218
a(g135
(dp219
S'ADJ'
p220
F0.005579
sS'VERB'
p221
F0.000196
sS'NOUN'
p222
F0.994225
s(lp223
g135
atp224
a(g16
(dp225
g16
F1.0
s(lp226
g16
atp227
asS'nl'
p228
(lp229
(S'we'
p230
(dp231
S'PRON'
p232
F1.0
s(lp233
g28
atp234
a(S'bevinden'
p235
(dp236
S'VERB'
p237
F0.999991
sS'NOUN'
p238
F8e-06
s(lp239
tp240
a(S'ons'
p241
(dp242
S'PRON'
p243
F0.99994
sS'NOUN'
p244
F6e-05
s(lp245
g34
atp246
a(S'dus'
p247
(dp248
S'ADV'
p249
F0.999674
sS'CONJ'
p250
F0.000326
s(lp251
g12
atp252
a(S'in'
p253
(dp254
S'ADV'
p255
F0.011907
sS'VERB'
p256
F2e-06
sS'ADP'
p257
F0.988091
s(lp258
g41
atp259
a(S'een'
p260
(dp261
S'ADJ'
p262
F1e-06
sS'PRON'
p263
F0.000526
sS'NUM'
p264
F1e-06
sS'DET'
p265
F0.999473
s(lp266
g49
atp267
a(S'zeer'
p268
(dp269
S'NOUN'
p270
F0.000596
sS'ADJ'
p271
F0.999404
s(lp272
g61
atp273
a(S'positieve'
p274
(dp275
S'NOUN'
p276
F0.000493
sS'ADJ'
p277
F0.999507
s(lp278
g69
atp279
a(S'situatie'
p280
(dp281
S'NOUN'
p282
F1.0
s(lp283
g55
atp284
a(S'waarbij'
p285
(dp286
S'ADV'
p287
F1.0
s(lp288
g76
atp289
a(S'we'
p290
(dp291
S'PRON'
p292
F1.0
s(lp293
g89
atp294
a(S'twee'
p295
(dp296
S'NUM'
p297
F1.0
s(lp298
g129
atp299
a(S'vliegen'
p300
(dp301
S'VERB'
p302
F0.007018
sS'NOUN'
p303
F0.9929830000000001
s(lp304
g204
atp305
a(S'in'
p306
(dp307
S'ADV'
p308
F0.003882
sS'VERB'
p309
F2e-06
sS'ADP'
p310
F0.996116
s(lp311
g109
atp312
a(S'\xc3\xa9\xc3\xa9n'
p313
(dp314
S'ADJ'
p315
F0.008047
sS'NUM'
p316
F0.004171
sS'DET'
p317
F0.985941
sS'PRON'
p318
F0.001841
s(lp319
g117
atp320
a(S'klap'
p321
(dp322
S'VERB'
p323
F0.00033
sS'NOUN'
p324
F0.99967
s(lp325
tp326
a(S'kunnen'
p327
(dp328
S'VERB'
p329
F0.999995
sS'NOUN'
p330
F5e-06
s(lp331
g95
atp332
a(S'vangen'
p333
(dp334
S'VERB'
p335
F0.999931
sS'NOUN'
p336
F6.9e-05
s(lp337
g135
atp338
a(g16
(dp339
g16
F1.0
s(lp340
g16
atp341
asS'de'
p342
(lp343
(S'wir'
p344
(dp345
S'PRON'
p346
F1.0
s(lp347
g28
atp348
a(S'sind'
p349
(dp350
S'VERB'
p351
F1.0
s(lp352
g34
atp353
a(S'folglich'
p354
(dp355
S'ADV'
p356
F1.0
s(lp357
g12
atp358
a(S'in'
p359
(dp360
S'ADP'
p361
F1.0
s(lp362
g41
atp363
a(S'der'
p364
(dp365
S'PRON'
p366
F0.001998
sS'DET'
p367
F0.997054
s(lp368
g49
atp369
a(S'sehr'
p370
(dp371
S'ADV'
p372
F1.0
s(lp373
g61
atp374
a(S'g\xc3\xbcnstigen'
p375
(dp376
S'ADJ'
p377
F1.0
s(lp378
g69
atp379
a(S'lage'
p380
(dp381
S'VERB'
p382
F0.000787
sS'NOUN'
p383
F0.999029
s(lp384
g55
atp385
a(g14
(dp386
g16
F1.0
s(lp387
g76
atp388
a(S'zwei'
p389
(dp390
S'NUM'
p391
F1.0
s(lp392
g129
atp393
a(S'fliegen'
p394
(dp395
S'VERB'
p396
F1.0
s(lp397
g204
atp398
a(S'mit'
p399
(dp400
S'PRT'
p401
F0.000284
sS'ADP'
p402
F0.999716
s(lp403
g109
atp404
a(S'einer'
p405
(dp406
S'PRON'
p407
F0.974614
sS'DET'
p408
F0.024231
s(lp409
g117
atp410
a(S'klappe'
p411
(dp412
S'VERB'
p413
F1.0
s(lp414
tp415
a(S'zu'
p416
(dp417
S'PRT'
p418
F0.998
s(lp419
tp420
a(S'schlagen'
p421
(dp422
S'VERB'
p423
F1.0
s(lp424
g135
atp425
a(g16
(dp426
g16
F1.0
s(lp427
g16
atp428
asS'it'
p429
(lp430
(S'pertanto'
p431
(dp432
S'ADV'
p433
F1.0
s(lp434
g12
atp435
a(g14
(dp436
g16
F1.0
s(lp437
tp438
a(S'ci'
p439
(dp440
S'ADV'
p441
F0.000565
sS'PRON'
p442
F0.999374
sS'NOUN'
p443
F6.2e-05
s(lp444
g28
atp445
a(S'troviamo'
p446
(dp447
S'VERB'
p448
F1.0
s(lp449
g34
atp450
a(S'in'
p451
(dp452
S'ADP'
p453
F1.0
s(lp454
g41
atp455
a(S'una'
p456
(dp457
S'PRON'
p458
F0.000159
sS'DEF'
p459
F0.999841
s(lp460
g49
atp461
a(S'situazione'
p462
(dp463
S'NOUN'
p464
F1.0
s(lp465
g55
atp466
a(S'molto'
p467
(dp468
S'ADV'
p469
F0.890973
sS'PRON'
p470
F0.002039
sS'VERB'
p471
F0.001163
sS'ADJ'
p472
F0.105825
s(lp473
g61
atp474
a(S'positiva'
p475
(dp476
S'NOUN'
p477
F0.112913
sS'ADJ'
p478
F0.887087
s(lp479
g69
atp480
a(S'in'
p481
(dp482
S'ADP'
p483
F1.0
s(lp484
tp485
a(S'cui'
p486
(dp487
S'PRON'
p488
F1.0
s(lp489
g76
atp490
a(S'possiamo'
p491
(dp492
S'VERB'
p493
F1.0000010000000001
s(lp494
g95
atp495
a(S'prendere'
p496
(dp497
S'VERB'
p498
F1.0
s(lp499
g101
atp500
a(S'due'
p501
(dp502
S'NUM'
p503
F0.00011
sS'ADJ'
p504
F0.99989
s(lp505
g129
atp506
a(S'piccioni'
p507
(dp508
S'NOUN'
p509
F1.0
s(lp510
g204
atp511
a(S'con'
p512
(dp513
S'ADP'
p514
F1.0
s(lp515
g109
atp516
a(S'una'
p517
(dp518
S'PRON'
p519
F0.000159
sS'DEF'
p520
F0.999841
s(lp521
g117
atp522
a(S'fava'
p523
(dp524
S'NOUN'
p525
F1.0
s(lp526
g135
atp527
a(g16
(dp528
g16
F1.0
s(lp529
g16
atp530
asS'sk'
p531
(lp532
(S'z'
p533
(dp534
S'X'
p535
F8.1e-05
sS'NOUN'
p536
F1.9e-05
sS'ADP'
p537
F0.999899
s(lp538
g12
atp539
a(S'tohto'
p540
(dp541
S'PRON'
p542
F0.999971
sg535
F2.9e-05
s(lp543
tp544
a(S'd\xc3\xb4vodu'
p545
(dp546
S'NOUN'
p547
F1.0
s(lp548
g12
atp549
a(S'sme'
p550
(dp551
g535
F0.0023829999999999997
sS'VERB'
p552
F0.997617
s(lp553
g28
atp554
a(S'vo'
p555
(dp556
S'ADP'
p557
F1.0
s(lp558
g41
atp559
a(S've\xc4\xbemi'
p560
(dp561
S'ADV'
p562
F1.0
s(lp563
g61
atp564
a(S'priaznivej'
p565
(dp566
S'ADJ'
p567
F1.0
s(lp568
g69
atp569
a(S'situ\xc3\xa1cii'
p570
(dp571
S'NOUN'
p572
F1.0
s(lp573
g55
atp574
a(g14
(dp575
g16
F1.0
s(lp576
tp577
a(S'ke\xc4\x8f'
p578
(dp579
g535
F0.000368
sS'CONJ'
p580
F0.999632
s(lp581
g76
atp582
a(S'm\xc3\xb4\xc5\xbeeme'
p583
(dp584
S'VERB'
p585
F1.0
s(lp586
g95
atp587
a(S'zabi\xc5\xa5'
p588
(dp589
S'VERB'
p590
F1.0
s(lp591
g101
atp592
a(S'dve'
p593
(dp594
S'NUM'
p595
F1.0
s(lp596
g129
atp597
a(S'muchy'
p598
(dp599
S'NOUN'
p600
F1.0
s(lp601
g204
atp602
a(S'jednou'
p603
(dp604
g535
F0.009079
sS'NUM'
p605
F0.990921
s(lp606
g117
atp607
a(S'ranou'
p608
(dp609
S'ADJ'
p610
F0.069119
sS'NOUN'
p611
F0.930881
s(lp612
g135
atp613
a(g16
(dp614
g16
F1.0
s(lp615
g16
atp616
asS'pl'
p617
(lp618
(S'jeste\xc5\x9bmy'
p619
(dp620
S'VERB'
p621
F1.0
s(lp622
g34
atp623
a(S'zatem'
p624
(dp625
S'CONJ'
p626
F1.0
s(lp627
g12
atp628
a(S'w'
p629
(dp630
S'NOUN'
p631
F6e-06
sS'ADJ'
p632
F2.1e-05
sS'ADP'
p633
F0.9999739999999999
sg535
F0.0
s(lp634
g41
atp635
a(S'sytuacji'
p636
(dp637
S'NOUN'
p638
F1.0
s(lp639
g55
atp640
a(g14
(dp641
g535
F0.0
sg16
F1.0
s(lp642
tp643
a(g629
(dp644
S'NOUN'
p645
F5e-06
sS'ADJ'
p646
F6e-06
sS'ADP'
p647
F0.999987
sg535
F3e-06
s(lp648
tp649
a(S'kt\xc3\xb3rej'
p650
(dp651
S'ADJ'
p652
F1.000001
s(lp653
g76
atp654
a(S'mo\xc5\xbcemy'
p655
(dp656
S'VERB'
p657
F1.0
s(lp658
g95
atp659
a(S'upiec'
p660
(dp661
S'ADV'
p662
F0.003349
sS'ADJ'
p663
F1.1e-05
sS'VERB'
p664
F0.961734
sS'NOUN'
p665
F0.03490599999999999
s(lp666
g101
atp667
a(S'dwie'
p668
(dp669
S'NUM'
p670
F1.0
s(lp671
g129
atp672
a(S'pieczenie'
p673
(dp674
S'ADV'
p675
F0.034983
sS'ADJ'
p676
F0.006438000000000001
sS'VERB'
p677
F0.005561000000000002
sS'NOUN'
p678
F0.953018
s(lp679
tp680
a(S'na'
p681
(dp682
S'PRT'
p683
F1e-06
sS'VERB'
p684
F0.0
sS'NOUN'
p685
F0.0
sS'ADP'
p686
F0.9999979999999999
sg535
F1e-06
s(lp687
g204
atp688
a(S'jednym'
p689
(dp690
S'NOUN'
p691
F0.001135
sS'ADJ'
p692
F0.9988660000000001
s(lp693
g117
atp694
a(S'ogniu'
p695
(dp696
S'NOUN'
p697
F1.0
s(lp698
g135
atp699
a(g16
(dp700
g16
F1.0
s(lp701
g16
atp702
asS'sl'
p703
(lp704
(S'zato'
p705
(dp706
S'ADV'
p707
F0.190012
sS'CONJ'
p708
F0.809988
s(lp709
g12
atp710
a(S'je'
p711
(dp712
S'PRON'
p713
F0.005246
sS'VERB'
p714
F0.9947520000000001
sg535
F2e-06
s(lp715
g34
atp716
a(S'sedanji'
p717
(dp718
S'ADJ'
p719
F0.9999999999999999
s(lp720
tp721
a(S'polo\xc5\xbeaj'
p722
(dp723
S'NOUN'
p724
F1.0
s(lp725
g55
atp726
a(S'zelo'
p727
(dp728
S'ADV'
p729
F1.0
s(lp730
g61
atp731
a(S'pozitiven'
p732
(dp733
S'ADJ'
p734
F1.0
s(lp735
g69
atp736
a(S'in'
p737
(dp738
S'ADV'
p739
F9.4e-05
sg535
F3e-06
sS'CONJ'
p740
F0.999377
sS'NOUN'
p741
F0.000526
s(lp742
g109
atp743
a(S'lahko'
p744
(dp745
S'ADV'
p746
F0.999625
sS'ADJ'
p747
F0.000375
s(lp748
g95
atp749
a(S'hkrati'
p750
(dp751
S'ADV'
p752
F1.0
s(lp753
g204
atp754
a(S'odpravimo'
p755
(dp756
S'VERB'
p757
F1.0
s(lp758
g101
atp759
a(S'dve'
p760
(dp761
S'NUM'
p762
F0.9999999999999999
s(lp763
g129
atp764
a(S'te\xc5\xbeavi'
p765
(dp766
S'NOUN'
p767
F1.0
s(lp768
g135
atp769
a(g16
(dp770
g16
F1.0
s(lp771
g16
atp772
asS'es'
p773
(lp774
(S'por'
p775
(dp776
S'ADV'
p777
F1.0
s(lp778
tp779
a(S'consiguiente'
p780
(dp781
S'ADV'
p782
F1.0
s(lp783
g12
atp784
a(g14
(dp785
g16
F1.0
s(lp786
g28
atp787
a(S'estamos'
p788
(dp789
S'VERB'
p790
F1.0
s(lp791
g34
atp792
a(S'en'
p793
(dp794
g535
F0.0
sS'CONJ'
p795
F0.0
sS'ADP'
p796
F1.0
s(lp797
g41
atp798
a(S'una'
p799
(dp800
S'DET'
p801
F1.0
s(lp802
g49
atp803
a(S'situaci\xc3\xb3n'
p804
(dp805
S'NOUN'
p806
F1.0
s(lp807
g55
atp808
a(S'muy'
p809
(dp810
S'ADV'
p811
F1.0
s(lp812
g61
atp813
a(S'favorable'
p814
(dp815
S'ADJ'
p816
F1.0
s(lp817
g69
atp818
a(S'para'
p819
(dp820
S'CONJ'
p821
F0.985245
sS'ADP'
p822
F0.014755
s(lp823
g76
atp824
a(S'matar'
p825
(dp826
S'VERB'
p827
F1.0
s(lp828
g101
atp829
a(S'dos'
p830
(dp831
S'NUM'
p832
F0.999922
sS'NOUN'
p833
F7.8e-05
s(lp834
g129
atp835
a(S'p\xc3\xa1jaros'
p836
(dp837
S'NOUN'
p838
F1.0
s(lp839
g204
atp840
a(S'de'
p841
(dp842
g535
F0.0
sS'CONJ'
p843
F1.7e-05
sS'ADP'
p844
F0.999982
s(lp845
g109
atp846
a(S'un'
p847
(dp848
g535
F3e-06
sS'DET'
p849
F0.999997
s(lp850
g117
atp851
a(S'tiro'
p852
(dp853
S'VERB'
p854
F0.000337
sS'NOUN'
p855
F0.999663
s(lp856
g135
atp857
a(g16
(dp858
g16
F1.0
s(lp859
g16
atp860
as.