(dp0
S'fr'
p1
(lp2
(S'('
p3
(dp4
S'.'
p5
F1.0
s(lp6
g3
atp7
a(S'pl'
p8
(dp9
S'ADJ'
p10
F0.197818
sS'VERB'
p11
F0.0012339999999999999
sS'NOUN'
p12
F0.800948
s(lp13
S'pl'
p14
atp15
a(S')'
p16
(dp17
g5
F1.0
s(lp18
g16
atp19
a(S'madame'
p20
(dp21
S'NOUN'
p22
F1.0
s(lp23
tp24
a(S'la'
p25
(dp26
S'PRON'
p27
F5.2e-05
sS'DET'
p28
F0.999948
sS'NOUN'
p29
F0.0
s(lp30
S'madam'
p31
atp32
a(S'pr\xc3\xa9sidente'
p33
(dp34
S'NOUN'
p35
F1.0
s(lp36
S'president'
p37
atp38
a(S','
p39
(dp40
g5
F1.0
s(lp41
g39
atp42
a(S'je'
p43
(dp44
S'PRON'
p45
F1.0
s(lp46
S'i'
p47
atp48
a(S'souhaiterais'
p49
(dp50
S'VERB'
p51
F1.0
s(lp52
S'like'
p53
atp54
a(S'f\xc3\xa9liciter'
p55
(dp56
S'VERB'
p57
F1.0
s(lp58
S'congratulate'
p59
atp60
a(S'le'
p61
(dp62
S'PRON'
p63
F6.2e-05
sS'DET'
p64
F0.999938
s(lp65
S'the'
p66
atp67
a(S'rapporteur'
p68
(dp69
S'ADJ'
p70
F0.433128
sS'NOUN'
p71
F0.566872
s(lp72
S'rapporteur'
p73
atp74
a(S'pour'
p75
(dp76
S'CONJ'
p77
F0.133994
sS'ADP'
p78
F0.866006
s(lp79
S'on'
p80
atp81
a(S'son'
p82
(dp83
S'PRON'
p84
F0.99999
sS'NOUN'
p85
F1e-05
s(lp86
S'a'
p87
atp88
a(S'rapport'
p89
(dp90
S'NOUN'
p91
F1.0
s(lp92
S'report'
p93
atp94
a(S'\xc3\xa9quilibr\xc3\xa9'
p95
(dp96
S'VERB'
p97
F1.0
s(lp98
S'fine'
p99
atp100
a(g5
(dp101
g5
F1.0
s(lp102
g5
atp103
asS'en'
p104
(lp105
(g3
(dp106
g5
F1.0
s(lp107
g3
atp108
a(g14
(dp109
S'ADJ'
p110
F0.012789
sS'VERB'
p111
F0.0009939999999999999
sS'NOUN'
p112
F0.986217
s(lp113
g14
atp114
a(g16
(dp115
g5
F1.0
s(lp116
g16
atp117
a(g31
(dp118
S'NOUN'
p119
F1.0
s(lp120
g31
atp121
a(g37
(dp122
S'NOUN'
p123
F1.0
s(lp124
g37
atp125
a(g39
(dp126
g5
F1.0
s(lp127
g39
atp128
a(g47
(dp129
S'X'
p130
F0.177708
sS'NOUN'
p131
F0.822292
s(lp132
g47
atp133
a(S'would'
p134
(dp135
S'VERB'
p136
F1.0
s(lp137
g134
atp138
a(g53
(dp139
S'VERB'
p140
F0.9997360000000001
sS'ADJ'
p141
F3.1e-05
sS'ADP'
p142
F0.000233
s(lp143
g53
atp144
a(S'to'
p145
(dp146
S'ADV'
p147
F0.0
sS'PRT'
p148
F1.0
sS'ADP'
p149
F0.0
s(lp150
g145
atp151
a(g59
(dp152
S'VERB'
p153
F1.0
s(lp154
g59
atp155
a(g66
(dp156
S'NOUN'
p157
F1e-06
sS'DET'
p158
F0.999999
s(lp159
g66
atp160
a(g73
(dp161
S'NOUN'
p162
F1.0
s(lp163
g73
atp164
a(g80
(dp165
S'ADV'
p166
F0.000489
sS'PRT'
p167
F0.000523
sS'ADJ'
p168
F0.0
sS'NOUN'
p169
F0.0
sS'ADP'
p170
F0.998988
s(lp171
g80
atp172
a(g87
(dp173
S'NOUN'
p174
F0.0
sS'DET'
p175
F1.0
s(lp176
g87
atp177
a(g99
(dp178
S'ADV'
p179
F0.000336
sS'NOUN'
p180
F0.352474
sS'VERB'
p181
F6.2e-05
sS'ADJ'
p182
F0.647129
s(lp183
g99
atp184
a(g93
(dp185
S'VERB'
p186
F0.006128
sS'NOUN'
p187
F0.993872
s(lp188
g93
atp189
a(g5
(dp190
g5
F1.0
s(lp191
g5
atp192
asS'nl'
p193
(lp194
(g3
(dp195
g5
F1.0
s(lp196
g3
atp197
a(S'pl'
p198
(dp199
S'ADJ'
p200
F0.022827
sS'NOUN'
p201
F0.977173
s(lp202
g14
atp203
a(g16
(dp204
g5
F1.0
s(lp205
g16
atp206
a(S'mevrouw'
p207
(dp208
S'NOUN'
p209
F1.0
s(lp210
g31
atp211
a(S'de'
p212
(dp213
S'DET'
p214
F1.0
s(lp215
tp216
a(S'voorzitter'
p217
(dp218
S'NOUN'
p219
F1.0
s(lp220
g37
atp221
a(g39
(dp222
g5
F1.0
s(lp223
g39
atp224
a(S'ik'
p225
(dp226
S'PRON'
p227
F0.999921
sS'NOUN'
p228
F7.9e-05
s(lp229
g47
atp230
a(S'wil'
p231
(dp232
S'VERB'
p233
F0.946225
sS'NOUN'
p234
F0.053775
s(lp235
g134
atp236
a(S'de'
p237
(dp238
S'DET'
p239
F1.0
s(lp240
g66
atp241
a(S'rapporteur'
p242
(dp243
S'NOUN'
p244
F1.0
s(lp245
g73
atp246
a(S'graag'
p247
(dp248
S'ADV'
p249
F0.334069
sS'ADJ'
p250
F0.665931
s(lp251
g53
atp252
a(S'gelukwensen'
p253
(dp254
S'VERB'
p255
F0.451046
sS'NOUN'
p256
F0.548954
s(lp257
tp258
a(S'met'
p259
(dp260
S'ADP'
p261
F1.0
s(lp262
g59
atp263
a(S'een'
p264
(dp265
S'ADJ'
p266
F1e-06
sS'PRON'
p267
F0.000523
sS'NUM'
p268
F1e-06
sS'DET'
p269
F0.999476
s(lp270
g87
atp271
a(S'prima'
p272
(dp273
S'ADJ'
p274
F1.0
s(lp275
g99
atp276
a(S'verslag'
p277
(dp278
S'NOUN'
p279
F1.0
s(lp280
g93
atp281
a(g5
(dp282
g5
F1.0
s(lp283
g5
atp284
asS'de'
p285
(lp286
(g3
(dp287
g5
F1.0
s(lp288
g3
atp289
a(S'pl'
p290
(dp291
S'NOUN'
p292
F0.923667
s(lp293
g14
atp294
a(g16
(dp295
g5
F1.0
s(lp296
g16
atp297
a(S'frau'
p298
(dp299
S'NOUN'
p300
F0.02829
sS'ADJ'
p301
F0.947479
s(lp302
g31
atp303
a(S'pr\xc3\xa4sidentin'
p304
(dp305
S'NOUN'
p306
F0.9949129999999999
s(lp307
tp308
a(S'!'
p309
(dp310
g5
F1.0
s(lp311
g37
atp312
a(S'ich'
p313
(dp314
S'PRON'
p315
F1.0
s(lp316
g47
atp317
a(S'm\xc3\xb6chte'
p318
(dp319
S'VERB'
p320
F1.0
s(lp321
g53
atp322
a(S'den'
p323
(dp324
S'PRON'
p325
F0.00025
sS'DET'
p326
F0.999749
s(lp327
g66
atp328
a(S'berichterstatter'
p329
(dp330
S'ADJ'
p331
F0.006032
sS'NOUN'
p332
F0.985713
s(lp333
g73
atp334
a(S'zu'
p335
(dp336
S'PRT'
p337
F0.002076
sS'ADP'
p338
F0.997229
s(lp339
g80
atp340
a(S'einem'
p341
(dp342
S'PRON'
p343
F0.000607
sS'DET'
p344
F0.999244
s(lp345
g87
atp346
a(S'ausgezeichneten'
p347
(dp348
S'ADJ'
p349
F1.0
s(lp350
g99
atp351
a(S'bericht'
p352
(dp353
S'ADJ'
p354
F1.8e-05
sS'NOUN'
p355
F0.999966
s(lp356
g93
atp357
a(S'begl\xc3\xbcckw\xc3\xbcnschen'
p358
(dp359
S'VERB'
p360
F1.0
s(lp361
g59
atp362
a(g5
(dp363
g5
F1.0
s(lp364
g5
atp365
asS'it'
p366
(lp367
(g3
(dp368
g5
F1.0
s(lp369
g3
atp370
a(S'pl'
p371
(dp372
S'NOUN'
p373
F0.003774
sS'VERB'
p374
F0.984512
sS'ADJ'
p375
F0.011715
s(lp376
g14
atp377
a(g16
(dp378
g5
F1.0
s(lp379
g16
atp380
a(S'signora'
p381
(dp382
S'NOUN'
p383
F1.0
s(lp384
g31
atp385
a(S'presidente'
p386
(dp387
S'NOUN'
p388
F1.0
s(lp389
g37
atp390
a(g39
(dp391
g5
F1.0
s(lp392
g39
atp393
a(S'desidero'
p394
(dp395
S'VERB'
p396
F1.0
s(lp397
g53
atp398
a(S'congratularmi'
p399
(dp400
S'VERB'
p401
F1.0
s(lp402
tp403
a(S'con'
p404
(dp405
S'ADP'
p406
F1.0
s(lp407
g59
atp408
a(S'il'
p409
(dp410
S'DET'
p411
F1.0
s(lp412
g66
atp413
a(S'relatore'
p414
(dp415
S'NOUN'
p416
F1.0
s(lp417
g73
atp418
a(S'per'
p419
(dp420
S'CONJ'
p421
F0.015242
sS'ADP'
p422
F0.984758
s(lp423
g80
atp424
a(S'una'
p425
(dp426
S'PRON'
p427
F7.1e-05
sS'DEF'
p428
F0.999929
s(lp429
g87
atp430
a(S'buona'
p431
(dp432
S'NOUN'
p433
F0.016091
sS'ADJ'
p434
F0.983909
s(lp435
g99
atp436
a(S'relazione'
p437
(dp438
S'NOUN'
p439
F1.0
s(lp440
g93
atp441
a(g5
(dp442
g5
F1.0
s(lp443
g5
atp444
asS'sk'
p445
(lp446
(S'v\xc3\xa1\xc5\xbeen\xc3\xa1'
p447
(dp448
S'VERB'
p449
F0.607185
sS'ADJ'
p450
F0.392815
s(lp451
tp452
a(S'pani'
p453
(dp454
S'NOUN'
p455
F1.0
s(lp456
g31
atp457
a(S'predsedaj\xc3\xbaca'
p458
(dp459
S'NOUN'
p460
F0.030061
sS'VERB'
p461
F0.9221390000000002
sS'ADJ'
p462
F0.0478
s(lp463
g37
atp464
a(g39
(dp465
g5
F1.0
s(lp466
g39
atp467
a(S'chcel'
p468
(dp469
S'VERB'
p470
F1.0
s(lp471
tp472
a(S'by'
p473
(dp474
S'PRT'
p475
F0.999999
sg130
F1e-06
s(lp476
g134
atp477
a(S'som'
p478
(dp479
S'VERB'
p480
F1.0
s(lp481
g53
atp482
a(S'zablaho\xc5\xbeela\xc5\xa5'
p483
(dp484
S'VERB'
p485
F1.0
s(lp486
g59
atp487
a(S'spravodajcovi'
p488
(dp489
S'NOUN'
p490
F1.0
s(lp491
g73
atp492
a(S'k'
p493
(dp494
g130
F0.00019
sS'NOUN'
p495
F1.4000000000000001e-05
sS'ADP'
p496
F0.999797
s(lp497
g80
atp498
a(S'v\xc3\xbdbornej'
p499
(dp500
S'NOUN'
p501
F0.01818
sS'ADJ'
p502
F0.98182
s(lp503
g99
atp504
a(S'spr\xc3\xa1ve'
p505
(dp506
S'NOUN'
p507
F1.0
s(lp508
g93
atp509
a(g5
(dp510
g5
F1.0
s(lp511
g5
atp512
asS'pl'
p513
(lp514
(S'pani'
p515
(dp516
S'NOUN'
p517
F0.999999
s(lp518
tp519
a(S'przewodnicz\xc4\x85ca'
p520
(dp521
S'NOUN'
p522
F1.0
s(lp523
g31
atp524
a(g309
(dp525
g5
F1.0
s(lp526
g37
atp527
a(S'gratuluj\xc4\x99'
p528
(dp529
S'VERB'
p530
F1.0
s(lp531
g59
atp532
a(S'sprawozdawcy'
p533
(dp534
S'NOUN'
p535
F1.0
s(lp536
g73
atp537
a(S'\xc5\x9bwietnego'
p538
(dp539
S'ADJ'
p540
F1.0
s(lp541
g99
atp542
a(S'sprawozdania'
p543
(dp544
S'NOUN'
p545
F1.0
s(lp546
g93
atp547
a(g5
(dp548
g5
F1.0
s(lp549
g5
atp550
asS'sl'
p551
(lp552
(g3
(dp553
g5
F1.0
s(lp554
g3
atp555
a(S'pl'
p556
(dp557
S'ADJ'
p558
F0.0011220000000000002
sg130
F0.115589
sS'ADV'
p559
F0.000496
sS'VERB'
p560
F0.061393
sS'NOUN'
p561
F0.8214009999999999
s(lp562
g14
atp563
a(g16
(dp564
g5
F1.0
s(lp565
g16
atp566
a(S'gospa'
p567
(dp568
S'NOUN'
p569
F1.0
s(lp570
g31
atp571
a(S'predsednica'
p572
(dp573
S'NOUN'
p574
F1.0
s(lp575
g37
atp576
a(g39
(dp577
g5
F1.0
s(lp578
g39
atp579
a(S'poro\xc4\x8devalcu'
p580
(dp581
S'NOUN'
p582
F1.0
s(lp583
g73
atp584
a(S'\xc4\x8destitam'
p585
(dp586
S'ADV'
p587
F0.003941
sS'ADJ'
p588
F0.02135
sS'VERB'
p589
F0.6804840000000002
sS'NOUN'
p590
F0.2942240000000001
s(lp591
g59
atp592
a(S'za'
p593
(dp594
S'ADV'
p595
F6.6e-05
sg130
F5e-06
sS'ADP'
p596
F0.999929
s(lp597
g80
atp598
a(S'to'
p599
(dp600
S'PRON'
p601
F0.9999960000000001
sg130
F4e-06
s(lp602
g87
atp603
a(S'odli\xc4\x8dno'
p604
(dp605
S'ADV'
p606
F0.001357
sS'ADJ'
p607
F0.998644
s(lp608
g99
atp609
a(S'poro\xc4\x8dilo'
p610
(dp611
S'NOUN'
p612
F1.0
s(lp613
g93
atp614
a(g5
(dp615
g5
F1.0
s(lp616
g5
atp617
asS'es'
p618
(lp619
(g3
(dp620
g5
F1.0
s(lp621
g3
atp622
a(S'pl'
p623
(dp624
S'NOUN'
p625
F0.37372799999999995
sS'VERB'
p626
F1.5e-05
sS'ADJ'
p627
F0.626256
s(lp628
g14
atp629
a(g16
(dp630
g5
F1.0
s(lp631
g16
atp632
a(S'se\xc3\xb1ora'
p633
(dp634
S'NOUN'
p635
F1.0
s(lp636
g31
atp637
a(S'presidenta'
p638
(dp639
S'NOUN'
p640
F1.0
s(lp641
g37
atp642
a(g39
(dp643
g5
F1.0
s(lp644
g39
atp645
a(S'quiero'
p646
(dp647
S'VERB'
p648
F1.0
s(lp649
g53
atp650
a(S'felicitar'
p651
(dp652
S'VERB'
p653
F1.0
s(lp654
g59
atp655
a(S'al'
p656
(dp657
S'CONJ'
p658
F0.000222
sS'ADP'
p659
F0.999778
s(lp660
g66
atp661
a(S'ponente'
p662
(dp663
S'NOUN'
p664
F1.0
s(lp665
g73
atp666
a(S'por'
p667
(dp668
S'ADP'
p669
F1.0
s(lp670
g80
atp671
a(S'su'
p672
(dp673
S'PRON'
p674
F1.0
s(lp675
g87
atp676
a(S'excelente'
p677
(dp678
S'ADJ'
p679
F1.0
s(lp680
g99
atp681
a(S'informe'
p682
(dp683
S'VERB'
p684
F0.029338
sS'NOUN'
p685
F0.970662
s(lp686
g93
atp687
a(g5
(dp688
g5
F1.0
s(lp689
g5
atp690
as.