(dp0
S'fr'
p1
(lp2
(S'\xc3\x80'
p3
(dp4
S'ADP'
p5
F1.0
s(lp6
S'at'
p7
atp8
a(S"l'"
p9
(dp10
S'ADJ'
p11
F0.160704
sS'VERB'
p12
F0.06480800000000002
sS'NOUN'
p13
F0.774488
s(lp14
S'the'
p15
atp16
a(S'heure'
p17
(dp18
S'NOUN'
p19
F1.0
s(lp20
tp21
a(S'actuelle'
p22
(dp23
S'ADJ'
p24
F1.0
s(lp25
S'moment'
p26
atp27
a(S','
p28
(dp29
S'.'
p30
F1.0
s(lp31
tp32
a(S'la'
p33
(dp34
S'PRON'
p35
F6.9e-05
sS'DET'
p36
F0.999931
sS'NOUN'
p37
F0.0
s(lp38
S'a'
p39
atp40
a(S'priorit\xc3\xa9'
p41
(dp42
S'NOUN'
p43
F1.0
s(lp44
S'priority'
p45
atp46
a(S'est'
p47
(dp48
S'VERB'
p49
F0.999606
sS'NOUN'
p50
F0.000394
s(lp51
S'is'
p52
atp53
a(S"d'"
p54
(dp55
S'NOUN'
p56
F0.087864
sS'VERB'
p57
F0.799527
sS'ADJ'
p58
F0.112609
s(lp59
S'to'
p60
atp61
a(S'obtenir'
p62
(dp63
S'VERB'
p64
F1.0
s(lp65
S'achieve'
p66
atp67
a(S'le'
p68
(dp69
S'PRON'
p70
F3.4e-05
sS'DET'
p71
F0.999966
s(lp72
S'the'
p73
atp74
a(S'rapatriement'
p75
(dp76
S'NOUN'
p77
F1.0
s(lp78
S'return'
p79
atp80
a(S'de'
p81
(dp82
S'ADP'
p83
F1.0
s(lp84
S'of'
p85
atp86
a(S'la'
p87
(dp88
S'PRON'
p89
F0.000622
sS'DET'
p90
F0.999377
sS'NOUN'
p91
F0.0
s(lp92
S'the'
p93
atp94
a(S'd\xc3\xa9pouille'
p95
(dp96
S'VERB'
p97
F0.000848
sS'NOUN'
p98
F0.999152
s(lp99
S'body'
p100
atp101
a(S'de'
p102
(dp103
S'ADP'
p104
F1.0
s(lp105
S'of'
p106
atp107
a(S'ce'
p108
(dp109
S'PRON'
p110
F1.0
s(lp111
S'the'
p112
atp113
a(S'polonais'
p114
(dp115
S'ADJ'
p116
F0.13006
sS'NOUN'
p117
F0.86994
s(lp118
S'pole'
p119
atp120
a(S'assassin\xc3\xa9'
p121
(dp122
S'VERB'
p123
F1.0
s(lp124
S'murdered'
p125
atp126
a(S'et'
p127
(dp128
S'CONJ'
p129
F1.0
s(lp130
S'and'
p131
atp132
a(S'de'
p133
(dp134
S'ADP'
p135
F1.0
s(lp136
S'to'
p137
atp138
a(S'venir'
p139
(dp140
S'VERB'
p141
F1.0
s(lp142
S'help'
p143
atp144
a(S'en'
p145
(dp146
S'PRON'
p147
F0.07893
sS'ADP'
p148
F0.92107
s(lp149
tp150
a(S'aide'
p151
(dp152
S'VERB'
p153
F0.079461
sS'NOUN'
p154
F0.920539
s(lp155
tp156
a(S'\xc3\xa0'
p157
(dp158
S'ADP'
p159
F1.0
s(lp160
g143
atp161
a(S'sa'
p162
(dp163
S'PRON'
p164
F1.0
s(lp165
S'his'
p166
atp167
a(S'famille'
p168
(dp169
S'NOUN'
p170
F1.0
s(lp171
S'family'
p172
atp173
a(g30
(dp174
g30
F1.0
s(lp175
g30
atp176
asS'en'
p177
(lp178
(g39
(dp179
S'NOUN'
p180
F0.0
sS'DET'
p181
F1.0
s(lp182
g39
atp183
a(g45
(dp184
S'ADJ'
p185
F0.012886
sS'NOUN'
p186
F0.987114
s(lp187
g45
atp188
a(g7
(dp189
S'NOUN'
p190
F1e-06
sS'ADP'
p191
F0.999999
s(lp192
g7
atp193
a(g15
(dp194
S'NOUN'
p195
F1e-06
sS'DET'
p196
F0.999999
s(lp197
g15
atp198
a(g26
(dp199
S'NOUN'
p200
F1.0
s(lp201
g26
atp202
a(g52
(dp203
S'VERB'
p204
F1.0
s(lp205
g52
atp206
a(g60
(dp207
S'ADV'
p208
F0.0
sS'PRT'
p209
F1.0
sS'ADP'
p210
F0.0
s(lp211
g60
atp212
a(g66
(dp213
S'VERB'
p214
F1.0
s(lp215
g66
atp216
a(g73
(dp217
S'NOUN'
p218
F1e-06
sS'DET'
p219
F0.999999
s(lp220
g73
atp221
a(g79
(dp222
S'VERB'
p223
F0.00101
sS'NOUN'
p224
F0.99899
s(lp225
g79
atp226
a(g85
(dp227
S'ADP'
p228
F1.0
s(lp229
g85
atp230
a(g93
(dp231
S'NOUN'
p232
F1e-06
sS'DET'
p233
F0.999999
s(lp234
g93
atp235
a(g100
(dp236
S'VERB'
p237
F3e-05
sS'NOUN'
p238
F0.99997
s(lp239
g100
atp240
a(g106
(dp241
S'ADP'
p242
F1.0
s(lp243
g106
atp244
a(g112
(dp245
S'NOUN'
p246
F5e-06
sS'DET'
p247
F0.999995
s(lp248
g112
atp249
a(g125
(dp250
S'VERB'
p251
F1.0
s(lp252
g125
atp253
a(g119
(dp254
S'VERB'
p255
F0.0046689999999999995
sS'NOUN'
p256
F0.995331
s(lp257
g119
atp258
a(g131
(dp259
S'CONJ'
p260
F0.999975
sS'NOUN'
p261
F2.5e-05
s(lp262
g131
atp263
a(g137
(dp264
S'ADV'
p265
F2e-06
sS'PRT'
p266
F0.999998
sS'ADP'
p267
F0.0
s(lp268
g137
atp269
a(g143
(dp270
S'VERB'
p271
F0.999984
sS'NOUN'
p272
F1.6e-05
s(lp273
g143
atp274
a(g166
(dp275
S'PRON'
p276
F1.0
s(lp277
g166
atp278
a(g172
(dp279
S'NOUN'
p280
F1.0
s(lp281
g172
atp282
a(g30
(dp283
g30
F1.0
s(lp284
g30
atp285
asS'nl'
p286
(lp287
(S'op'
p288
(dp289
S'ADV'
p290
F0.004366
sS'ADJ'
p291
F0.0
sS'ADP'
p292
F0.995634
s(lp293
g7
atp294
a(S'dit'
p295
(dp296
S'PRON'
p297
F1.0
s(lp298
g15
atp299
a(S'moment'
p300
(dp301
S'NOUN'
p302
F1.0
s(lp303
g26
atp304
a(S'zijn'
p305
(dp306
S'PRON'
p307
F2e-06
sS'VERB'
p308
F0.999984
sS'NOUN'
p309
F1.4e-05
s(lp310
g52
atp311
a(S'de'
p312
(dp313
S'DET'
p314
F1.0
s(lp315
g73
atp316
a(S'repatri\xc3\xabring'
p317
(dp318
S'NOUN'
p319
F1.0
s(lp320
g79
atp321
a(S'van'
p322
(dp323
S'ADP'
p324
F1.0
s(lp325
g85
atp326
a(S'het'
p327
(dp328
S'PRON'
p329
F0.00582
sS'DET'
p330
F0.994181
s(lp331
g93
atp332
a(S'stoffelijk'
p333
(dp334
S'ADJ'
p335
F1.0
s(lp336
g119
atp337
a(S'overschot'
p338
(dp339
S'NOUN'
p340
F1.0
s(lp341
tp342
a(S'van'
p343
(dp344
S'ADP'
p345
F1.0
s(lp346
g106
atp347
a(S'de'
p348
(dp349
S'DET'
p350
F1.0
s(lp351
g112
atp352
a(S'vermoorde'
p353
(dp354
S'VERB'
p355
F0.810019
sS'NOUN'
p356
F0.189981
s(lp357
g125
atp358
a(S'pool'
p359
(dp360
S'VERB'
p361
F0.219771
sS'NOUN'
p362
F0.780229
s(lp363
g119
atp364
a(S'en'
p365
(dp366
S'CONJ'
p367
F1.0
s(lp368
g131
atp369
a(S'de'
p370
(dp371
S'DET'
p372
F1.0
s(lp373
g39
atp374
a(S'ondersteuning'
p375
(dp376
S'NOUN'
p377
F1.0
s(lp378
g143
atp379
a(S'van'
p380
(dp381
S'ADP'
p382
F1.0
s(lp383
tp384
a(S'zijn'
p385
(dp386
S'PRON'
p387
F0.999873
sS'VERB'
p388
F0.000116
sS'NOUN'
p389
F1.1e-05
s(lp390
g166
atp391
a(S'familie'
p392
(dp393
S'NOUN'
p394
F1.0
s(lp395
g172
atp396
a(S'prioritair'
p397
(dp398
S'ADJ'
p399
F0.011921
sS'NOUN'
p400
F0.98808
s(lp401
g45
atp402
a(g30
(dp403
g30
F1.0
s(lp404
g30
atp405
asS'de'
p406
(lp407
(S'derzeit'
p408
(dp409
S'ADV'
p410
F1.0
s(lp411
g26
atp412
a(S'hat'
p413
(dp414
S'VERB'
p415
F1.0
s(lp416
g52
atp417
a(S'die'
p418
(dp419
S'PRON'
p420
F0.002367
sS'DET'
p421
F0.997631
s(lp422
g73
atp423
a(S'r\xc3\xbccksendung'
p424
(dp425
S'ADJ'
p426
F0.013002
sS'NOUN'
p427
F0.973544
s(lp428
g79
atp429
a(S'der'
p430
(dp431
S'PRON'
p432
F9e-05
sS'DET'
p433
F0.999888
s(lp434
g93
atp435
a(S'sterblichen'
p436
(dp437
S'ADJ'
p438
F1.0
s(lp439
g119
atp440
a(S'\xc3\x9cberreste'
p441
(dp442
S'NOUN'
p443
F1.0
s(lp444
g119
atp445
a(S'des'
p446
(dp447
S'DET'
p448
F1.0
s(lp449
g106
atp450
a(S'ermordeten'
p451
(dp452
S'VERB'
p453
F2.6e-05
sS'ADJ'
p454
F0.999974
s(lp455
g125
atp456
a(S'polnischen'
p457
(dp458
S'ADJ'
p459
F1.0
s(lp460
tp461
a(S'landsmanns'
p462
(dp463
S'X'
p464
F0.30635
sS'NOUN'
p465
F0.54776
s(lp466
g119
atp467
a(S'und'
p468
(dp469
S'CONJ'
p470
F1.0
s(lp471
g131
atp472
a(S'die'
p473
(dp474
S'PRON'
p475
F0.003032
sS'DET'
p476
F0.993959
s(lp477
g15
atp478
a(S'unterst\xc3\xbctzung'
p479
(dp480
S'ADJ'
p481
F0.000273
sS'NOUN'
p482
F0.999413
s(lp483
g143
atp484
a(S'seiner'
p485
(dp486
S'PRON'
p487
F1.0
s(lp488
g166
atp489
a(S'familie'
p490
(dp491
S'NOUN'
p492
F0.055893
sS'ADJ'
p493
F0.943729
s(lp494
g172
atp495
a(S'priorit\xc3\xa4t'
p496
(dp497
S'VERB'
p498
F0.004242
sS'NOUN'
p499
F0.994833
s(lp500
g45
atp501
a(g30
(dp502
g30
F1.0
s(lp503
g30
atp504
asS'it'
p505
(lp506
(S'al'
p507
(dp508
S'ADP'
p509
F1.0
s(lp510
g7
atp511
a(S'momento'
p512
(dp513
S'NOUN'
p514
F1.0
s(lp515
g26
atp516
a(S"l'"
p517
(dp518
S'NOUN'
p519
F0.009871
sS'VERB'
p520
F0.402172
sS'ADJ'
p521
F0.587956
s(lp522
g39
atp523
a(S'importante'
p524
(dp525
S'NOUN'
p526
F0.092136
sS'VERB'
p527
F0.005199
sS'ADJ'
p528
F0.902665
s(lp529
g45
atp530
a(S'\xc3\xa8'
p531
(dp532
S'VERB'
p533
F1.0
s(lp534
g52
atp535
a(S'ottenere'
p536
(dp537
S'VERB'
p538
F1.0
s(lp539
g66
atp540
a(S'il'
p541
(dp542
S'DET'
p543
F1.0
s(lp544
g73
atp545
a(S'rimpatrio'
p546
(dp547
S'VERB'
p548
F0.000403
sS'NOUN'
p549
F0.999597
s(lp550
g79
atp551
a(S'della'
p552
(dp553
S'DEF'
p554
F0.001612
sS'ADP'
p555
F0.998388
s(lp556
g85
atp557
a(S'salma'
p558
(dp559
S'NOUN'
p560
F1.0
s(lp561
g100
atp562
a(S'del'
p563
(dp564
S'DEF'
p565
F0.001808
sS'ADP'
p566
F0.998192
s(lp567
g106
atp568
a(S'polacco'
p569
(dp570
S'ADJ'
p571
F0.374949
sS'NOUN'
p572
F0.625051
s(lp573
g119
atp574
a(S'assassinato'
p575
(dp576
S'VERB'
p577
F1.0
s(lp578
g125
atp579
a(S'e'
p580
(dp581
S'CONJ'
p582
F1.0
s(lp583
g131
atp584
a(S'aiutare'
p585
(dp586
S'VERB'
p587
F1.0
s(lp588
g143
atp589
a(S'i'
p590
(dp591
S'DET'
p592
F1.0
s(lp593
g166
atp594
a(S'famigliari'
p595
(dp596
S'NOUN'
p597
F0.467579
sS'ADJ'
p598
F0.532421
s(lp599
g172
atp600
a(g30
(dp601
g30
F1.0
s(lp602
g30
atp603
asS'sk'
p604
(lp605
(S'v'
p606
(dp607
g464
F0.000596
sS'ADP'
p608
F0.999404
s(lp609
g7
atp610
a(S's\xc3\xba\xc4\x8dasnosti'
p611
(dp612
S'NOUN'
p613
F1.0
s(lp614
g26
atp615
a(S'je'
p616
(dp617
g464
F0.00019899999999999999
sS'VERB'
p618
F0.999716
sS'PRON'
p619
F8.5e-05
s(lp620
g52
atp621
a(S'prioritou'
p622
(dp623
S'NOUN'
p624
F1.0
s(lp625
g45
atp626
a(S'dosiahnu\xc5\xa5'
p627
(dp628
S'VERB'
p629
F1.0
s(lp630
g66
atp631
a(S'vr\xc3\xa1tenie'
p632
(dp633
S'NOUN'
p634
F1.0
s(lp635
g79
atp636
a(S'tela'
p637
(dp638
S'NOUN'
p639
F1.0
s(lp640
g100
atp641
a(S'zavra\xc5\xbeden\xc3\xa9ho'
p642
(dp643
S'VERB'
p644
F1.0
s(lp645
g125
atp646
a(S'poliaka'
p647
(dp648
S'NOUN'
p649
F1.0
s(lp650
g119
atp651
a(g39
(dp652
g464
F0.0026279999999999997
sS'CONJ'
p653
F0.996882
sS'NOUN'
p654
F0.000221
sS'ADP'
p655
F0.0
sS'PRT'
p656
F0.000268
s(lp657
g131
atp658
a(S'poskytn\xc3\xba\xc5\xa5'
p659
(dp660
S'VERB'
p661
F1.0
s(lp662
g137
atp663
a(S'pomoc'
p664
(dp665
S'VERB'
p666
F0.0
sS'NOUN'
p667
F1.0
s(lp668
g143
atp669
a(S'jeho'
p670
(dp671
S'PRON'
p672
F0.999788
sg464
F0.000212
s(lp673
g166
atp674
a(S'rodine'
p675
(dp676
S'NOUN'
p677
F1.0
s(lp678
g172
atp679
a(g30
(dp680
g30
F1.0
s(lp681
g30
atp682
asS'pl'
p683
(lp684
(S'priorytetem'
p685
(dp686
S'NOUN'
p687
F1.0
s(lp688
g45
atp689
a(S'w'
p690
(dp691
S'NOUN'
p692
F0.0
sS'ADJ'
p693
F3e-06
sS'ADP'
p694
F0.9999969999999999
sg464
F0.0
s(lp695
g7
atp696
a(S'tej'
p697
(dp698
S'PRON'
p699
F2e-06
sS'ADJ'
p700
F0.999998
sg464
F0.0
s(lp701
tp702
a(S'chwili'
p703
(dp704
S'NOUN'
p705
F1.0
s(lp706
g26
atp707
a(S'jest'
p708
(dp709
S'VERB'
p710
F1.0
s(lp711
g52
atp712
a(S'doprowadzenie'
p713
(dp714
S'VERB'
p715
F1.0
s(lp716
g66
atp717
a(S'do'
p718
(dp719
g464
F0.0
sS'NOUN'
p720
F0.0
sS'ADP'
p721
F0.999999
s(lp722
g60
atp723
a(S'przekazania'
p724
(dp725
S'VERB'
p726
F1.0
s(lp727
g79
atp728
a(S'cia\xc5\x82a'
p729
(dp730
S'NOUN'
p731
F1.0
s(lp732
g100
atp733
a(S'zabitego'
p734
(dp735
S'VERB'
p736
F1.0
s(lp737
tp738
a(S'polaka'
p739
(dp740
S'ADJ'
p741
F0.007996
sS'VERB'
p742
F0.011879000000000002
sS'NOUN'
p743
F0.9801250000000002
s(lp744
g119
atp745
a(S'oraz'
p746
(dp747
S'CONJ'
p748
F1.0
s(lp749
g131
atp750
a(S'pomoc'
p751
(dp752
S'NOUN'
p753
F1.0
s(lp754
g143
atp755
a(S'jego'
p756
(dp757
S'PRON'
p758
F0.999999
s(lp759
g166
atp760
a(S'rodzinie'
p761
(dp762
S'NOUN'
p763
F1.0
s(lp764
g172
atp765
a(g30
(dp766
g30
F1.0
s(lp767
g30
atp768
asS'sl'
p769
(lp770
(S'ta'
p771
(dp772
S'PRON'
p773
F1.0000000000000002
s(lp774
g15
atp775
a(S'trenutek'
p776
(dp777
S'NOUN'
p778
F1.0
s(lp779
g26
atp780
a(S'sta'
p781
(dp782
g464
F0.113135
sS'VERB'
p783
F0.886865
s(lp784
g52
atp785
a(S'prednostni'
p786
(dp787
S'ADJ'
p788
F1.0
s(lp789
tp790
a(S'nalogi'
p791
(dp792
S'NOUN'
p793
F1.0
s(lp794
g45
atp795
a(S'zagotoviti'
p796
(dp797
S'VERB'
p798
F1.0
s(lp799
g66
atp800
a(S'vrnitev'
p801
(dp802
S'NOUN'
p803
F1.0
s(lp804
g79
atp805
a(S'trupla'
p806
(dp807
S'NOUN'
p808
F1.0
s(lp809
g100
atp810
a(S'umorjenega'
p811
(dp812
S'ADJ'
p813
F1.0
s(lp814
g125
atp815
a(S'poljaka'
p816
(dp817
S'ADV'
p818
F1.8e-05
sS'ADJ'
p819
F0.00058
sS'VERB'
p820
F4.9999999999999996e-05
sS'NOUN'
p821
F0.9993529999999999
s(lp822
g119
atp823
a(S'in'
p824
(dp825
S'ADV'
p826
F0.000371
sg464
F1.7e-05
sS'CONJ'
p827
F0.999566
sS'NOUN'
p828
F4.5e-05
s(lp829
g131
atp830
a(S'pomagati'
p831
(dp832
S'VERB'
p833
F1.0
s(lp834
g143
atp835
a(S'njegovi'
p836
(dp837
S'PRON'
p838
F1.0
s(lp839
g166
atp840
a(S'dru\xc5\xbeini'
p841
(dp842
S'NOUN'
p843
F1.0
s(lp844
g172
atp845
a(g30
(dp846
g30
F1.0
s(lp847
g30
atp848
asS'es'
p849
(lp850
(S'la'
p851
(dp852
g464
F4.5e-05
sS'DET'
p853
F0.999917
sS'NOUN'
p854
F0.0
sS'PRON'
p855
F3.8e-05
s(lp856
g39
atp857
a(S'prioridad'
p858
(dp859
S'NOUN'
p860
F1.0
s(lp861
g45
atp862
a(S'ahora'
p863
(dp864
S'ADV'
p865
F1.0
s(lp866
g26
atp867
a(S'es'
p868
(dp869
S'VERB'
p870
F1.0
s(lp871
g52
atp872
a(S'conseguir'
p873
(dp874
S'VERB'
p875
F1.0
s(lp876
g66
atp877
a(S'repatriar'
p878
(dp879
S'VERB'
p880
F1.0
s(lp881
g79
atp882
a(S'el'
p883
(dp884
S'PRON'
p885
F0.0
sS'DET'
p886
F1.0
s(lp887
g93
atp888
a(S'cuerpo'
p889
(dp890
S'NOUN'
p891
F1.0
s(lp892
g100
atp893
a(S'del'
p894
(dp895
S'ADP'
p896
F1.0
s(lp897
g106
atp898
a(S'ingeniero'
p899
(dp900
S'NOUN'
p901
F1.0
s(lp902
g119
atp903
a(S'polaco'
p904
(dp905
S'NOUN'
p906
F0.053663
sS'ADJ'
p907
F0.946337
s(lp908
tp909
a(S'asesinado'
p910
(dp911
S'VERB'
p912
F1.0
s(lp913
g125
atp914
a(S'y'
p915
(dp916
g464
F2e-06
sS'CONJ'
p917
F0.999998
s(lp918
g131
atp919
a(S'mostrar'
p920
(dp921
S'VERB'
p922
F1.0
s(lp923
g119
atp924
a(S'nuestro'
p925
(dp926
S'PRON'
p927
F0.708741
sS'ADJ'
p928
F0.291259
s(lp929
g112
atp930
a(S'apoyo'
p931
(dp932
S'NOUN'
p933
F1.0
s(lp934
tp935
a(g39
(dp936
g464
F2e-06
sS'CONJ'
p937
F4.6e-05
sS'ADP'
p938
F0.999952
s(lp939
g143
atp940
a(S'sus'
p941
(dp942
S'PRON'
p943
F1.0
s(lp944
g166
atp945
a(S'familiares'
p946
(dp947
S'ADJ'
p948
F0.093889
sS'NOUN'
p949
F0.906111
s(lp950
g172
atp951
a(g30
(dp952
g30
F1.0
s(lp953
g30
atp954
as.