(dp0
S'fr'
p1
(lp2
(S'cela'
p3
(dp4
S'PRON'
p5
F0.998797
sS'VERB'
p6
F0.001203
s(lp7
S'this'
p8
atp9
a(S'rejoint'
p10
(dp11
S'VERB'
p12
F1.0
s(lp13
S'relates'
p14
atp15
a(S'ce'
p16
(dp17
S'PRON'
p18
F1.0
s(lp19
tp20
a(S'que'
p21
(dp22
S'ADV'
p23
F0.010868
sS'PRON'
p24
F0.89816
sS'CONJ'
p25
F0.090972
s(lp26
S'what'
p27
atp28
a(S'le'
p29
(dp30
S'PRON'
p31
F0.000196
sS'DET'
p32
F0.999804
s(lp33
S'the'
p34
atp35
a(S'premier'
p36
(dp37
S'ADV'
p38
F0.000158
sS'NUM'
p39
F0.99184
sS'NOUN'
p40
F0.008002
s(lp41
S'first'
p42
atp43
a(S'orateur'
p44
(dp45
S'NOUN'
p46
F1.0
s(lp47
tp48
a(S'd\xc3\xa9clarait'
p49
(dp50
S'VERB'
p51
F1.0
s(lp52
S'speaker'
p53
atp54
a(S'\xc3\xa0'
p55
(dp56
S'ADP'
p57
F1.0
s(lp58
S'about'
p59
atp60
a(S'propos'
p61
(dp62
S'NOUN'
p63
F1.0
s(lp64
tp65
a(S'de'
p66
(dp67
S'ADP'
p68
F1.0
s(lp69
g59
atp70
a(S"l'"
p71
(dp72
S'ADJ'
p73
F0.160704
sS'VERB'
p74
F0.06480800000000002
sS'NOUN'
p75
F0.774488
s(lp76
tp77
a(S'\xc3\x89rythr\xc3\xa9e'
p78
(dp79
S'ADJ'
p80
F0.022174
sS'VERB'
p81
F0.058497
sS'NOUN'
p82
F0.9193290000000001
s(lp83
S'eritrea'
p84
atp85
a(S'.'
p86
(dp87
g86
F1.0
s(lp88
g86
atp89
asS'en'
p90
(lp91
(g8
(dp92
S'ADV'
p93
F0.001585
sS'NOUN'
p94
F0.000667
sS'DET'
p95
F0.997748
s(lp96
g8
atp97
a(g14
(dp98
S'VERB'
p99
F1.0
s(lp100
g14
atp101
a(S'to'
p102
(dp103
S'ADV'
p104
F2e-06
sS'PRT'
p105
F0.999996
sS'ADP'
p106
F2e-06
s(lp107
g102
atp108
a(g27
(dp109
S'PRON'
p110
F0.997713
sS'DET'
p111
F0.002287
s(lp112
g27
atp113
a(g34
(dp114
S'NOUN'
p115
F1e-06
sS'DET'
p116
F0.999999
s(lp117
g34
atp118
a(g42
(dp119
S'ADV'
p120
F0.00061
sS'NOUN'
p121
F0.000406
sS'ADJ'
p122
F0.998984
s(lp123
g42
atp124
a(g53
(dp125
S'NOUN'
p126
F1.0
s(lp127
g53
atp128
a(S'was'
p129
(dp130
S'VERB'
p131
F1.0
s(lp132
g129
atp133
a(S'saying'
p134
(dp135
S'VERB'
p136
F0.999322
sS'NOUN'
p137
F0.000678
s(lp138
g134
atp139
a(g59
(dp140
S'ADV'
p141
F0.15651
sS'ADP'
p142
F0.84349
s(lp143
g59
atp144
a(g84
(dp145
S'ADJ'
p146
F0.013573
sS'NOUN'
p147
F0.986427
s(lp148
g84
atp149
a(g86
(dp150
g86
F1.0
s(lp151
g86
atp152
asS'nl'
p153
(lp154
(S'dit'
p155
(dp156
S'PRON'
p157
F1.0
s(lp158
g8
atp159
a(S'heeft'
p160
(dp161
S'VERB'
p162
F1.0
s(lp163
tp164
a(S'betrekking'
p165
(dp166
S'NOUN'
p167
F1.0
s(lp168
g14
atp169
a(S'op'
p170
(dp171
S'ADV'
p172
F0.007036
sS'ADJ'
p173
F0.0
sS'ADP'
p174
F0.992964
s(lp175
g102
atp176
a(S'wat'
p177
(dp178
S'ADV'
p179
F0.016342
sS'PRON'
p180
F0.983658
s(lp181
g27
atp182
a(S'de'
p183
(dp184
S'DET'
p185
F1.0
s(lp186
g34
atp187
a(S'eerste'
p188
(dp189
S'NUM'
p190
F0.999991
sS'NOUN'
p191
F9e-06
s(lp192
g42
atp193
a(S'spreker'
p194
(dp195
S'NOUN'
p196
F1.0
s(lp197
g53
atp198
a(S'heeft'
p199
(dp200
S'VERB'
p201
F1.0
s(lp202
g129
atp203
a(S'gezegd'
p204
(dp205
S'VERB'
p206
F0.992181
sS'ADJ'
p207
F0.007819
s(lp208
g134
atp209
a(S'over'
p210
(dp211
S'ADV'
p212
F0.000778
sS'ADP'
p213
F0.999222
s(lp214
g59
atp215
a(S'eritrea'
p216
(dp217
S'ADJ'
p218
F0.031408
sS'NOUN'
p219
F0.968593
s(lp220
g84
atp221
a(g86
(dp222
g86
F1.0
s(lp223
g86
atp224
asS'de'
p225
(lp226
(S'dies'
p227
(dp228
S'PRON'
p229
F1.0
s(lp230
g8
atp231
a(S'steht'
p232
(dp233
S'VERB'
p234
F1.0
s(lp235
tp236
a(S'in'
p237
(dp238
S'ADP'
p239
F1.0
s(lp240
tp241
a(S'bezug'
p242
(dp243
S'NOUN'
p244
F1.0
s(lp245
g14
atp246
a(S'zu'
p247
(dp248
S'PRT'
p249
F0.005098
sS'ADP'
p250
F0.993548
s(lp251
g102
atp252
a(S'dem'
p253
(dp254
S'PRON'
p255
F0.193117
sS'DET'
p256
F0.803602
s(lp257
tp258
a(S','
p259
(dp260
g86
F1.0
s(lp261
tp262
a(S'was'
p263
(dp264
S'PRON'
p265
F0.976896
s(lp266
g27
atp267
a(S'der'
p268
(dp269
S'PRON'
p270
F0.000668
sS'DET'
p271
F0.999169
s(lp272
g34
atp273
a(S'erste'
p274
(dp275
S'ADJ'
p276
F1.0
s(lp277
g42
atp278
a(S'redner'
p279
(dp280
S'ADJ'
p281
F0.002362
sS'NOUN'
p282
F0.994254
s(lp283
g53
atp284
a(S'\xc3\xbcber'
p285
(dp286
S'PRT'
p287
F9.5e-05
sS'ADP'
p288
F0.999905
s(lp289
g59
atp290
a(S'eritrea'
p291
(dp292
S'ADJ'
p293
F0.014133
sS'NOUN'
p294
F0.979286
s(lp295
g84
atp296
a(S'sagte'
p297
(dp298
S'VERB'
p299
F1.0
s(lp300
g134
atp301
a(g86
(dp302
g86
F1.0
s(lp303
g86
atp304
asS'it'
p305
(lp306
(S'questo'
p307
(dp308
S'PRON'
p309
F1.0
s(lp310
g8
atp311
a(S'si'
p312
(dp313
S'PRON'
p314
F0.999986
sS'NOUN'
p315
F1.3e-05
s(lp316
tp317
a(S'riferisce'
p318
(dp319
S'VERB'
p320
F1.0
s(lp321
g14
atp322
a(S'a'
p323
(dp324
S'CONJ'
p325
F0.004371
sS'ADP'
p326
F0.995629
s(lp327
g102
atp328
a(S'quanto'
p329
(dp330
S'ADV'
p331
F0.520039
sS'PRON'
p332
F0.455481
sS'ADJ'
p333
F0.023751
sS'NOUN'
p334
F0.000729
s(lp335
g27
atp336
a(S'il'
p337
(dp338
S'DET'
p339
F1.0
s(lp340
g34
atp341
a(S'primo'
p342
(dp343
S'NOUN'
p344
F0.318551
sS'ADJ'
p345
F0.681449
s(lp346
g42
atp347
a(S'oratore'
p348
(dp349
S'NOUN'
p350
F0.161943
sS'ADJ'
p351
F0.838057
s(lp352
g53
atp353
a(S'diceva'
p354
(dp355
S'VERB'
p356
F1.0
s(lp357
g134
atp358
a(S"sull'"
p359
(dp360
S'ADJ'
p361
F0.005993
sS'VERB'
p362
F0.042111
sS'NOUN'
p363
F0.951896
s(lp364
g59
atp365
a(S'eritrea'
p366
(dp367
S'ADJ'
p368
F1.0
s(lp369
g84
atp370
a(g86
(dp371
g86
F1.0
s(lp372
g86
atp373
asS'sk'
p374
(lp375
(S't\xc3\xa1to'
p376
(dp377
S'PRON'
p378
F1.0
s(lp379
g8
atp380
a(S't\xc3\xa9ma'
p381
(dp382
S'NOUN'
p383
F1.0
s(lp384
tp385
a(S'sa'
p386
(dp387
S'PRT'
p388
F0.999908
sS'ADP'
p389
F1e-06
sS'X'
p390
F9.1e-05
s(lp391
g129
atp392
a(S't\xc3\xbdka'
p393
(dp394
g390
F0.002402
sS'VERB'
p395
F0.997598
s(lp396
g14
atp397
a(S'prejavu'
p398
(dp399
S'NOUN'
p400
F1.0
s(lp401
g134
atp402
a(S'prv\xc3\xa9ho'
p403
(dp404
S'NUM'
p405
F1.0
s(lp406
g42
atp407
a(S're\xc4\x8dn\xc3\xadka'
p408
(dp409
S'NOUN'
p410
F1.0
s(lp411
g53
atp412
a(S'o'
p413
(dp414
g390
F0.0009609999999999999
sS'CONJ'
p415
F4.8e-05
sS'NOUN'
p416
F1.7e-05
sS'ADP'
p417
F0.998974
s(lp418
g59
atp419
a(S'eritrei'
p420
(dp421
S'NOUN'
p422
F1.0
s(lp423
g84
atp424
a(g86
(dp425
g86
F1.0
s(lp426
g86
atp427
asS'pl'
p428
(lp429
(S'ma'
p430
(dp431
S'VERB'
p432
F0.9987539999999999
sS'NOUN'
p433
F0.000714
sS'ADP'
p434
F0.000532
s(lp435
tp436
a(S'to'
p437
(dp438
S'NOUN'
p439
F0.202261
sS'ADP'
p440
F1.1e-05
sS'PRT'
p441
F0.285237
sg390
F1e-06
sS'CONJ'
p442
F0.129577
sS'ADJ'
p443
F0.382914
s(lp444
g8
atp445
a(S'zwi\xc4\x85zek'
p446
(dp447
S'NOUN'
p448
F1.0
s(lp449
g14
atp450
a(S'z'
p451
(dp452
S'PRT'
p453
F5e-06
sS'VERB'
p454
F1e-06
sS'NOUN'
p455
F0.0
sS'ADP'
p456
F0.999992
sg390
F1e-06
s(lp457
g102
atp458
a(S'tym'
p459
(dp460
S'ADV'
p461
F0.000247
sS'ADJ'
p462
F0.14967
sS'CONJ'
p463
F1.2e-05
sS'NOUN'
p464
F0.850067
sS'PRT'
p465
F3e-06
s(lp466
tp467
a(g259
(dp468
g390
F0.0
sg86
F1.0
s(lp469
tp470
a(S'co'
p471
(dp472
S'PRT'
p473
F0.133463
sS'CONJ'
p474
F0.568428
sS'NOUN'
p475
F0.29656600000000005
sS'ADP'
p476
F0.0015409999999999998
s(lp477
g27
atp478
a(S'powiedziano'
p479
(dp480
S'VERB'
p481
F1.0
s(lp482
g134
atp483
a(S'w'
p484
(dp485
S'ADJ'
p486
F0.0
sg390
F0.0
sS'NOUN'
p487
F0.0
sS'ADP'
p488
F1.0
s(lp489
g34
atp490
a(S'pierwszym'
p491
(dp492
S'ADJ'
p493
F1.000001
s(lp494
g42
atp495
a(S'wyst\xc4\x85pieniu'
p496
(dp497
S'NOUN'
p498
F1.0
s(lp499
g53
atp500
a(g484
(dp501
S'ADJ'
p502
F0.0
sg390
F0.0
sS'NOUN'
p503
F0.0
sS'ADP'
p504
F1.0
s(lp505
tp506
a(S'sprawie'
p507
(dp508
S'NOUN'
p509
F1.0
s(lp510
g59
atp511
a(S'erytrei'
p512
(dp513
g390
F0.000129
sS'VERB'
p514
F0.000578
sS'NOUN'
p515
F0.9992929999999999
s(lp516
g84
atp517
a(g86
(dp518
g86
F1.0
s(lp519
g86
atp520
asS'sl'
p521
(lp522
(S'to'
p523
(dp524
S'PRON'
p525
F0.9998990000000001
sg390
F0.000101
s(lp526
g8
atp527
a(S'se'
p528
(dp529
S'PRON'
p530
F0.999992
sg390
F8e-06
s(lp531
tp532
a(S'nana\xc5\xa1a'
p533
(dp534
S'VERB'
p535
F1.0
s(lp536
g14
atp537
a(S'na'
p538
(dp539
S'ADP'
p540
F1.0
s(lp541
g102
atp542
a(S'to'
p543
(dp544
S'PRON'
p545
F0.999945
sg390
F5.4e-05
s(lp546
tp547
a(g259
(dp548
g86
F1.0
s(lp549
tp550
a(S'kar'
p551
(dp552
S'ADV'
p553
F0.013165
sS'PRON'
p554
F0.986835
s(lp555
g27
atp556
a(S'je'
p557
(dp558
S'PRON'
p559
F0.000378
sS'VERB'
p560
F0.999618
sg390
F4e-06
s(lp561
g129
atp562
a(g413
(dp563
S'NOUN'
p564
F0.000406
sS'ADP'
p565
F0.999594
s(lp566
g59
atp567
a(S'eritreji'
p568
(dp569
S'NOUN'
p570
F0.4921539999999999
sS'VERB'
p571
F8e-06
sS'ADJ'
p572
F0.5078370000000001
s(lp573
g84
atp574
a(S'povedal'
p575
(dp576
S'VERB'
p577
F1.0
s(lp578
g134
atp579
a(S'prvi'
p580
(dp581
S'NUM'
p582
F1.000001
s(lp583
g42
atp584
a(S'govornik'
p585
(dp586
S'NOUN'
p587
F1.0
s(lp588
g53
atp589
a(g86
(dp590
g86
F1.0
s(lp591
g86
atp592
asS'es'
p593
(lp594
(S'esto'
p595
(dp596
S'PRON'
p597
F1.0
s(lp598
g8
atp599
a(S'guarda'
p600
(dp601
S'VERB'
p602
F0.038686
sS'NOUN'
p603
F0.961314
s(lp604
tp605
a(S'relaci\xc3\xb3n'
p606
(dp607
S'NOUN'
p608
F1.0
s(lp609
g14
atp610
a(S'con'
p611
(dp612
S'ADP'
p613
F1.0
s(lp614
g102
atp615
a(S'lo'
p616
(dp617
S'PRON'
p618
F0.0
sS'DET'
p619
F1.0
s(lp620
tp621
a(S'que'
p622
(dp623
g390
F7e-06
sS'CONJ'
p624
F0.999993
s(lp625
g27
atp626
a(S'ha'
p627
(dp628
S'VERB'
p629
F1.0
s(lp630
g129
atp631
a(S'dicho'
p632
(dp633
S'VERB'
p634
F0.11038
sS'ADJ'
p635
F0.88962
s(lp636
g134
atp637
a(S'el'
p638
(dp639
S'PRON'
p640
F0.0
sS'DET'
p641
F1.0
s(lp642
g34
atp643
a(S'primer'
p644
(dp645
S'ADJ'
p646
F1.0
s(lp647
g42
atp648
a(S'orador'
p649
(dp650
S'NOUN'
p651
F1.0
s(lp652
g53
atp653
a(S'sobre'
p654
(dp655
S'NOUN'
p656
F2.8e-05
sS'ADP'
p657
F0.999972
s(lp658
g59
atp659
a(S'eritrea'
p660
(dp661
S'NOUN'
p662
F0.007195
sS'VERB'
p663
F4.8e-05
sS'ADJ'
p664
F0.992756
s(lp665
g84
atp666
a(g86
(dp667
g86
F1.0
s(lp668
g86
atp669
as.