(dp0
S'fr'
p1
(lp2
(S"c'"
p3
(dp4
S'ADJ'
p5
F0.079749
sS'VERB'
p6
F0.5393100000000001
sS'NOUN'
p7
F0.380941
s(lp8
S'that'
p9
atp10
a(S'est'
p11
(dp12
S'VERB'
p13
F0.999383
sS'NOUN'
p14
F0.000617
s(lp15
S'is'
p16
atp17
a(S'un'
p18
(dp19
S'NOUN'
p20
F8.5e-05
sS'NUM'
p21
F0.004593
sS'DET'
p22
F0.995322
s(lp23
S'an'
p24
atp25
a(S'signe'
p26
(dp27
S'VERB'
p28
F0.000204
sS'NOUN'
p29
F0.999796
s(lp30
S'indication'
p31
atp32
a(S'de'
p33
(dp34
S'ADP'
p35
F1.0
s(lp36
S'of'
p37
atp38
a(S"l'"
p39
(dp40
S'ADJ'
p41
F0.160704
sS'VERB'
p42
F0.06480800000000002
sS'NOUN'
p43
F0.774488
s(lp44
S'the'
p45
atp46
a(S'engagement'
p47
(dp48
S'NOUN'
p49
F1.0
s(lp50
S'commitment'
p51
atp52
a(S'du'
p53
(dp54
S'ADP'
p55
F1.0
s(lp56
S"'s"
p57
atp58
a(S'gouvernement'
p59
(dp60
S'NOUN'
p61
F1.0
s(lp62
S'government'
p63
atp64
a(S'islandais'
p65
(dp66
S'ADJ'
p67
F1.0
s(lp68
S'icelandic'
p69
atp70
a(S'.'
p71
(dp72
g71
F1.0
s(lp73
g71
atp74
asS'en'
p75
(lp76
(g9
(dp77
S'ADV'
p78
F0.008261
sS'DET'
p79
F0.991729
sS'ADP'
p80
F9e-06
s(lp81
g9
atp82
a(g16
(dp83
S'VERB'
p84
F1.0
s(lp85
g16
atp86
a(g24
(dp87
S'DET'
p88
F1.0
s(lp89
g24
atp90
a(g31
(dp91
S'NOUN'
p92
F1.0
s(lp93
g31
atp94
a(g37
(dp95
S'ADP'
p96
F1.0
s(lp97
g37
atp98
a(g45
(dp99
S'NOUN'
p100
F1e-06
sS'DET'
p101
F0.999999
s(lp102
g45
atp103
a(g69
(dp104
S'NOUN'
p105
F0.031514
sS'ADJ'
p106
F0.968485
s(lp107
g69
atp108
a(g63
(dp109
S'NOUN'
p110
F1.0
s(lp111
g63
atp112
a(g57
(dp113
S'PRT'
p114
F0.984346
sg71
F0.015654
s(lp115
g57
atp116
a(g51
(dp117
S'NOUN'
p118
F1.0
s(lp119
g51
atp120
a(g71
(dp121
g71
F1.0
s(lp122
g71
atp123
asS'nl'
p124
(lp125
(S'het'
p126
(dp127
S'PRON'
p128
F0.962086
sS'DET'
p129
F0.037914
s(lp130
g24
atp131
a(S'geeft'
p132
(dp133
S'VERB'
p134
F1.0
s(lp135
tp136
a(S'blijk'
p137
(dp138
S'VERB'
p139
F0.000395
sS'NOUN'
p140
F0.999605
s(lp141
g31
atp142
a(S'van'
p143
(dp144
S'ADP'
p145
F1.0
s(lp146
g37
atp147
a(S'het'
p148
(dp149
S'PRON'
p150
F0.000927
sS'DET'
p151
F0.999073
s(lp152
tp153
a(S'engagement'
p154
(dp155
S'NOUN'
p156
F1.0
s(lp157
g51
atp158
a(S'dat'
p159
(dp160
S'PRON'
p161
F0.041986
sS'CONJ'
p162
F0.958014
s(lp163
g9
atp164
a(S'de'
p165
(dp166
S'DET'
p167
F1.0
s(lp168
g45
atp169
a(S'ijslandse'
p170
(dp171
S'ADJ'
p172
F0.321883
sS'NOUN'
p173
F0.678117
s(lp174
tp175
a(S'regering'
p176
(dp177
S'NOUN'
p178
F1.0
s(lp179
g63
atp180
a(S'tentoonspreidt'
p181
(dp182
S'VERB'
p183
F1.0
s(lp184
g69
atp185
a(g71
(dp186
g71
F1.0
s(lp187
g71
atp188
asS'de'
p189
(lp190
(S'dies'
p191
(dp192
S'PRON'
p193
F1.0
s(lp194
g9
atp195
a(S'ist'
p196
(dp197
S'VERB'
p198
F1.0
s(lp199
g16
atp200
a(S'ein'
p201
(dp202
S'NUM'
p203
F0.001147
sS'DET'
p204
F0.998853
s(lp205
g24
atp206
a(S'hinweis'
p207
(dp208
S'ADJ'
p209
F0.001737
sS'NOUN'
p210
F0.996695
s(lp211
tp212
a(S'auf'
p213
(dp214
S'PRT'
p215
F0.000906
sS'ADP'
p216
F0.999085
s(lp217
g31
atp218
a(S'das'
p219
(dp220
S'PRON'
p221
F0.001499
sS'DET'
p222
F0.998481
s(lp223
g45
atp224
a(S'engagement'
p225
(dp226
S'ADJ'
p227
F9.3e-05
sS'NOUN'
p228
F0.999763
s(lp229
g51
atp230
a(S'der'
p231
(dp232
S'PRON'
p233
F8.6e-05
sS'DET'
p234
F0.999906
s(lp235
g57
atp236
a(S'isl\xc3\xa4ndischen'
p237
(dp238
S'ADJ'
p239
F1.0
s(lp240
g69
atp241
a(S'regierung'
p242
(dp243
S'VERB'
p244
F5.9e-05
sS'NOUN'
p245
F0.999916
s(lp246
g63
atp247
a(g71
(dp248
g71
F1.0
s(lp249
g71
atp250
asS'it'
p251
(lp252
(S'questo'
p253
(dp254
S'PRON'
p255
F1.0
s(lp256
g9
atp257
a(S'\xc3\xa8'
p258
(dp259
S'VERB'
p260
F1.0
s(lp261
g16
atp262
a(S'un'
p263
(dp264
S'PRON'
p265
F0.000641
sS'DEF'
p266
F0.999359
s(lp267
g24
atp268
a(S'indicatore'
p269
(dp270
S'NOUN'
p271
F0.214699
sS'ADJ'
p272
F0.785301
s(lp273
g31
atp274
a(S"dell'"
p275
(dp276
S'ADJ'
p277
F0.009343
sS'VERB'
p278
F0.0014939999999999999
sS'NOUN'
p279
F0.989163
s(lp280
g37
atp281
a(S'impegno'
p282
(dp283
S'VERB'
p284
F0.01269
sS'NOUN'
p285
F0.98731
s(lp286
g51
atp287
a(S'del'
p288
(dp289
S'DEF'
p290
F0.001871
sS'ADP'
p291
F0.998129
s(lp292
g45
atp293
a(S'governo'
p294
(dp295
S'VERB'
p296
F0.000127
sS'NOUN'
p297
F0.999873
s(lp298
g63
atp299
a(S'islandese'
p300
(dp301
S'NOUN'
p302
F0.006229
sS'ADJ'
p303
F0.993771
s(lp304
g69
atp305
a(g71
(dp306
g71
F1.0
s(lp307
g71
atp308
asS'sk'
p309
(lp310
(S'poukazuje'
p311
(dp312
S'VERB'
p313
F1.0
s(lp314
g31
atp315
a(S'to'
p316
(dp317
S'PRON'
p318
F0.922767
sS'CONJ'
p319
F0.007688
sS'X'
p320
F0.06954400000000001
s(lp321
g9
atp322
a(S'na'
p323
(dp324
g320
F0.000273
sS'CONJ'
p325
F9e-06
sS'ADP'
p326
F0.999691
sS'PRT'
p327
F2.7e-05
s(lp328
g24
atp329
a(S'z\xc3\xa1v\xc3\xa4zok'
p330
(dp331
S'NOUN'
p332
F1.0
s(lp333
g51
atp334
a(S'islandskej'
p335
(dp336
S'ADJ'
p337
F1.0
s(lp338
g69
atp339
a(S'vl\xc3\xa1dy'
p340
(dp341
S'NOUN'
p342
F1.0
s(lp343
g63
atp344
a(g71
(dp345
g71
F1.0
s(lp346
g71
atp347
asS'pl'
p348
(lp349
(S'jest'
p350
(dp351
S'VERB'
p352
F1.0
s(lp353
g16
atp354
a(S'to'
p355
(dp356
S'NOUN'
p357
F0.237255
sS'ADP'
p358
F9e-06
sS'PRT'
p359
F0.23681
sg320
F1e-06
sS'CONJ'
p360
F0.100904
sS'ADJ'
p361
F0.4250209999999999
s(lp362
g24
atp363
a(S'sygna\xc5\x82'
p364
(dp365
S'NOUN'
p366
F1.0
s(lp367
g31
atp368
a(S'zaanga\xc5\xbcowania'
p369
(dp370
S'VERB'
p371
F0.539425
sS'NOUN'
p372
F0.460575
s(lp373
g51
atp374
a(S'rz\xc4\x85du'
p375
(dp376
S'NOUN'
p377
F1.0
s(lp378
g63
atp379
a(S'islandii'
p380
(dp381
S'VERB'
p382
F0.000542
sS'NOUN'
p383
F0.9994589999999999
s(lp384
g69
atp385
a(S'w'
p386
(dp387
g320
F6e-06
sS'ADJ'
p388
F4e-06
sS'ADP'
p389
F0.999988
sS'NOUN'
p390
F2e-06
s(lp391
g57
atp392
a(S't\xc4\x99'
p393
(dp394
S'ADJ'
p395
F1.0
s(lp396
tp397
a(S'kwesti\xc4\x99'
p398
(dp399
S'NOUN'
p400
F1.0
s(lp401
g69
atp402
a(g71
(dp403
g71
F1.0
s(lp404
g71
atp405
asS'sl'
p406
(lp407
(S'to'
p408
(dp409
S'PRON'
p410
F0.999935
sg320
F6.6e-05
s(lp411
g9
atp412
a(S'je'
p413
(dp414
S'PRON'
p415
F0.000317
sS'VERB'
p416
F0.999675
sg320
F8e-06
s(lp417
g16
atp418
a(S'znak'
p419
(dp420
S'NOUN'
p421
F1.0
s(lp422
g31
atp423
a(S'zaveze'
p424
(dp425
S'NOUN'
p426
F1.0
s(lp427
g51
atp428
a(S'islandske'
p429
(dp430
S'NOUN'
p431
F0.0009830000000000001
sS'ADJ'
p432
F0.9990190000000001
s(lp433
g69
atp434
a(S'vlade'
p435
(dp436
S'NOUN'
p437
F1.0
s(lp438
g63
atp439
a(g71
(dp440
g71
F1.0
s(lp441
g71
atp442
asS'es'
p443
(lp444
(S'esto'
p445
(dp446
S'ADV'
p447
F1.0
s(lp448
g9
atp449
a(S'es'
p450
(dp451
S'ADV'
p452
F1.0
s(lp453
g16
atp454
a(S'indica'
p455
(dp456
S'VERB'
p457
F1.0
s(lp458
g31
atp459
a(S'el'
p460
(dp461
S'PRON'
p462
F1e-06
sS'DET'
p463
F0.999999
s(lp464
g45
atp465
a(S'compromiso'
p466
(dp467
S'NOUN'
p468
F1.0
s(lp469
g51
atp470
a(S'del'
p471
(dp472
S'ADP'
p473
F1.0
s(lp474
g57
atp475
a(S'gobierno'
p476
(dp477
S'VERB'
p478
F0.0
sS'NOUN'
p479
F1.0
s(lp480
g63
atp481
a(S'island\xc3\xa9s'
p482
(dp483
S'NOUN'
p484
F0.008827
sS'ADJ'
p485
F0.991173
s(lp486
g69
atp487
a(g71
(dp488
g71
F1.0
s(lp489
g71
atp490
as.