(dp0
S'fr'
p1
(lp2
(S'et'
p3
(dp4
S'CONJ'
p5
F1.0
s(lp6
tp7
a(S'dans'
p8
(dp9
S'NOUN'
p10
F1.2e-05
sS'ADP'
p11
F0.999988
s(lp12
S'in'
p13
atp14
a(S'ce'
p15
(dp16
S'PRON'
p17
F1.0
s(lp18
S'this'
p19
atp20
a(S'contexte'
p21
(dp22
S'NOUN'
p23
F1.0
s(lp24
S'context'
p25
atp26
a(S'extr\xc3\xaamement'
p27
(dp28
S'ADV'
p29
F1.0
s(lp30
S'extremely'
p31
atp32
a(S'grave'
p33
(dp34
S'NOUN'
p35
F0.005213
sS'VERB'
p36
F0.0023829999999999997
sS'ADJ'
p37
F0.992403
s(lp38
S'serious'
p39
atp40
a(S'et'
p41
(dp42
S'CONJ'
p43
F1.0
s(lp44
S'and'
p45
atp46
a(S'difficile'
p47
(dp48
S'ADJ'
p49
F1.0
s(lp50
S'challenging'
p51
atp52
a(S','
p53
(dp54
S'.'
p55
F1.0
s(lp56
g53
atp57
a(S'o\xc3\xb9'
p58
(dp59
S'ADV'
p60
F0.01385
sS'PRON'
p61
F0.98615
s(lp62
S'what'
p63
atp64
a(S"l'"
p65
(dp66
S'ADJ'
p67
F0.00931
sS'VERB'
p68
F0.969725
sS'NOUN'
p69
F0.020965
s(lp70
S'the'
p71
atp72
a(S'ue'
p73
(dp74
S'VERB'
p75
F0.005940000000000001
sS'NOUN'
p76
F0.99406
s(lp77
S'eu'
p78
atp79
a(S'place-t-elle'
p80
(dp81
S'VERB'
p82
F0.837939
sS'NOUN'
p83
F0.162061
s(lp84
S'consider'
p85
atp86
a(S'sa'
p87
(dp88
S'PRON'
p89
F1.0
s(lp90
S'a'
p91
atp92
a(S'priorit\xc3\xa9'
p93
(dp94
S'NOUN'
p95
F1.0
s(lp96
S'priority'
p97
atp98
a(S'?'
p99
(dp100
g55
F1.0
s(lp101
g99
atp102
asS'en'
p103
(lp104
(g13
(dp105
S'ADV'
p106
F0.001504
sS'PRT'
p107
F0.0
sS'ADP'
p108
F0.998496
s(lp109
g13
atp110
a(g19
(dp111
S'ADV'
p112
F0.000632
sS'NOUN'
p113
F0.000138
sS'DET'
p114
F0.99923
s(lp115
g19
atp116
a(g31
(dp117
S'ADV'
p118
F1.0
s(lp119
g31
atp120
a(g39
(dp121
S'ADJ'
p122
F1.0
s(lp123
g39
atp124
a(g45
(dp125
S'CONJ'
p126
F0.999998
sS'NOUN'
p127
F2e-06
s(lp128
g45
atp129
a(g51
(dp130
S'VERB'
p131
F0.427186
sS'ADJ'
p132
F0.572814
s(lp133
g51
atp134
a(g25
(dp135
S'NOUN'
p136
F1.0
s(lp137
g25
atp138
a(g53
(dp139
g55
F1.0
s(lp140
g53
atp141
a(g63
(dp142
S'PRON'
p143
F0.969719
sS'DET'
p144
F0.030281
s(lp145
g63
atp146
a(S'does'
p147
(dp148
S'VERB'
p149
F0.999997
sS'NOUN'
p150
F3e-06
s(lp151
g147
atp152
a(g71
(dp153
S'NOUN'
p154
F7e-06
sS'DET'
p155
F0.999993
s(lp156
g71
atp157
a(g78
(dp158
S'ADV'
p159
F0.001115
sS'ADJ'
p160
F0.001045
sS'VERB'
p161
F0.000384
sS'NOUN'
p162
F0.997457
s(lp163
g78
atp164
a(g85
(dp165
S'VERB'
p166
F1.0
s(lp167
g85
atp168
a(S'to'
p169
(dp170
S'ADV'
p171
F0.0
sS'PRT'
p172
F1.0
s(lp173
g169
atp174
a(S'be'
p175
(dp176
S'VERB'
p177
F1.0
s(lp178
g175
atp179
a(g91
(dp180
S'NOUN'
p181
F0.0
sS'DET'
p182
F1.0
s(lp183
g91
atp184
a(g97
(dp185
S'ADJ'
p186
F0.015622
sS'NOUN'
p187
F0.984378
s(lp188
g97
atp189
a(g99
(dp190
g55
F1.0
s(lp191
g99
atp192
asS'nl'
p193
(lp194
(S'wat'
p195
(dp196
S'ADV'
p197
F0.079485
sS'PRON'
p198
F0.920515
s(lp199
g63
atp200
a(S'beschouwt'
p201
(dp202
S'VERB'
p203
F1.0
s(lp204
g147
atp205
a(S'de'
p206
(dp207
S'DET'
p208
F1.0
s(lp209
g71
atp210
a(S'eu'
p211
(dp212
S'NOUN'
p213
F1.0
s(lp214
g78
atp215
a(S'als'
p216
(dp217
S'CONJ'
p218
F1.0
s(lp219
g85
atp220
a(S'een'
p221
(dp222
S'ADJ'
p223
F1e-06
sS'PRON'
p224
F1.7e-05
sS'NUM'
p225
F1e-06
sS'DET'
p226
F0.999982
s(lp227
g91
atp228
a(S'prioriteit'
p229
(dp230
S'NOUN'
p231
F1.0
s(lp232
g97
atp233
a(S'in'
p234
(dp235
S'ADV'
p236
F0.001771
sS'VERB'
p237
F3e-06
sS'ADP'
p238
F0.998226
s(lp239
g13
atp240
a(S'deze'
p241
(dp242
S'PRON'
p243
F1.0
s(lp244
g19
atp245
a(S'uitzonderlijk'
p246
(dp247
S'ADJ'
p248
F1.0
s(lp249
g31
atp250
a(S'ernstige'
p251
(dp252
S'NOUN'
p253
F0.000255
sS'ADJ'
p254
F0.999745
s(lp255
g39
atp256
a(S'situatie'
p257
(dp258
S'NOUN'
p259
F1.0
s(lp260
g25
atp261
a(S'die'
p262
(dp263
S'PRON'
p264
F1.0
s(lp265
g51
atp266
a(S'een'
p267
(dp268
S'ADJ'
p269
F5e-06
sS'PRON'
p270
F3e-05
sS'NUM'
p271
F0.0
sS'DET'
p272
F0.999965
s(lp273
g51
atp274
a(S'grote'
p275
(dp276
S'NOUN'
p277
F0.000102
sS'ADJ'
p278
F0.999898
s(lp279
g51
atp280
a(S'uitdaging'
p281
(dp282
S'NOUN'
p283
F1.0
s(lp284
tp285
a(S'vormt'
p286
(dp287
S'VERB'
p288
F1.0
s(lp289
g51
atp290
a(g99
(dp291
g55
F1.0
s(lp292
g99
atp293
asS'de'
p294
(lp295
(S'was'
p296
(dp297
S'PRON'
p298
F0.9625589999999999
s(lp299
g63
atp300
a(S'erachtet'
p301
(dp302
S'VERB'
p303
F0.853112
sS'ADJ'
p304
F0.121591
s(lp305
g147
atp306
a(S'die'
p307
(dp308
S'PRON'
p309
F0.027129
sS'DET'
p310
F0.970281
s(lp311
g71
atp312
a(S'eu'
p313
(dp314
S'ADJ'
p315
F0.3356
sS'NOUN'
p316
F0.51332
s(lp317
g78
atp318
a(S'in'
p319
(dp320
S'ADP'
p321
F1.0
s(lp322
g13
atp323
a(S'diesen'
p324
(dp325
S'PRON'
p326
F1.0
s(lp327
g19
atp328
a(S'\xc3\xa4u\xc3\x9ferst'
p329
(dp330
S'ADV'
p331
F0.999851
sS'VERB'
p332
F0.000149
s(lp333
g31
atp334
a(S'ernsthaften'
p335
(dp336
S'ADJ'
p337
F1.0
s(lp338
g39
atp339
a(S'und'
p340
(dp341
S'CONJ'
p342
F1.0
s(lp343
g45
atp344
a(S'herausfordernden'
p345
(dp346
S'ADJ'
p347
F1.0
s(lp348
g51
atp349
a(S'zusammenhang'
p350
(dp351
S'ADJ'
p352
F3.5e-05
sS'NOUN'
p353
F0.999912
s(lp354
g25
atp355
a(S'als'
p356
(dp357
S'CONJ'
p358
F0.999725
s(lp359
g85
atp360
a(S'priorit\xc3\xa4t'
p361
(dp362
S'ADJ'
p363
F0.004163
sS'NOUN'
p364
F0.994867
s(lp365
g97
atp366
a(g99
(dp367
g55
F1.0
s(lp368
g99
atp369
asS'it'
p370
(lp371
(S'in'
p372
(dp373
S'ADP'
p374
F1.0
s(lp375
g13
atp376
a(S'questo'
p377
(dp378
S'PRON'
p379
F1.0
s(lp380
g19
atp381
a(S'contesto'
p382
(dp383
S'ADJ'
p384
F0.024601
sS'VERB'
p385
F0.012099
sS'NOUN'
p386
F0.9633
s(lp387
g25
atp388
a(S'estremamente'
p389
(dp390
S'ADV'
p391
F1.0
s(lp392
g31
atp393
a(S'grave'
p394
(dp395
S'NOUN'
p396
F0.008936
sS'ADJ'
p397
F0.991064
s(lp398
g39
atp399
a(S'e'
p400
(dp401
S'CONJ'
p402
F1.0
s(lp403
g45
atp404
a(S'difficile'
p405
(dp406
S'ADJ'
p407
F1.0
s(lp408
g51
atp409
a(g53
(dp410
g55
F1.0
s(lp411
g53
atp412
a(S'qual'
p413
(dp414
S'ADJ'
p415
F1.0
s(lp416
g63
atp417
a(S'\xc3\xa8'
p418
(dp419
S'VERB'
p420
F1.0
s(lp421
g147
atp422
a(S'la'
p423
(dp424
S'PRON'
p425
F0.0
sS'DET'
p426
F1.0
s(lp427
g91
atp428
a(S'priorit\xc3\xa0'
p429
(dp430
S'NOUN'
p431
F1.0
s(lp432
g97
atp433
a(S'per'
p434
(dp435
S'CONJ'
p436
F0.056931
sS'ADP'
p437
F0.943069
s(lp438
g169
atp439
a(S"l'"
p440
(dp441
S'NOUN'
p442
F0.009778
sS'VERB'
p443
F0.9663980000000001
sS'ADJ'
p444
F0.023823
s(lp445
g71
atp446
a(S'unione'
p447
(dp448
S'NOUN'
p449
F1.0
s(lp450
tp451
a(S'europea'
p452
(dp453
S'NOUN'
p454
F0.001562
sS'ADJ'
p455
F0.998438
s(lp456
g78
atp457
a(g99
(dp458
g55
F1.0
s(lp459
g99
atp460
asS'sk'
p461
(lp462
(g91
(dp463
S'X'
p464
F0.0021769999999999997
sS'CONJ'
p465
F0.997449
sS'NOUN'
p466
F4.5e-05
sS'ADP'
p467
F0.000328
sS'PRT'
p468
F1e-06
s(lp469
g53
atp470
a(S'\xc4\x8do'
p471
(dp472
S'PRON'
p473
F0.884455
sS'CONJ'
p474
F0.051791
sg464
F0.063754
s(lp475
g63
atp476
a(S'pova\xc5\xbeuje'
p477
(dp478
S'VERB'
p479
F1.0
s(lp480
g147
atp481
a(S'e\xc3\x9a'
p482
(dp483
S'ADV'
p484
F0.031437
sS'ADJ'
p485
F0.32293
sS'VERB'
p486
F0.004369
sS'NOUN'
p487
F0.621642
sg464
F0.019623
s(lp488
g78
atp489
a(S'za'
p490
(dp491
g464
F0.0006900000000000001
sS'ADP'
p492
F0.999282
sS'PRT'
p493
F2.9e-05
s(lp494
g85
atp495
a(S'prioritu'
p496
(dp497
S'NOUN'
p498
F1.0
s(lp499
g97
atp500
a(S'v'
p501
(dp502
g464
F8.499999999999999e-05
sS'ADP'
p503
F0.999914
s(lp504
g13
atp505
a(S't\xc3\xbdchto'
p506
(dp507
S'PRON'
p508
F1.0
s(lp509
g19
atp510
a(S'mimoriadne'
p511
(dp512
S'ADV'
p513
F0.248116
sS'ADJ'
p514
F0.751884
s(lp515
g31
atp516
a(S'z\xc3\xa1va\xc5\xben\xc3\xbdch'
p517
(dp518
S'ADJ'
p519
F1.0
s(lp520
g39
atp521
a(g91
(dp522
g464
F0.00047799999999999996
sS'CONJ'
p523
F0.998379
sS'NOUN'
p524
F0.001055
sS'ADP'
p525
F7.2e-05
sS'PRT'
p526
F1.6e-05
s(lp527
g45
atp528
a(S'n\xc3\xa1ro\xc4\x8dn\xc3\xbdch'
p529
(dp530
S'ADJ'
p531
F1.0
s(lp532
g51
atp533
a(S'podmienkach'
p534
(dp535
S'NOUN'
p536
F1.0
s(lp537
g25
atp538
a(g99
(dp539
g55
F1.0
s(lp540
g99
atp541
asS'pl'
p542
(lp543
(S'w'
p544
(dp545
S'ADJ'
p546
F1e-06
sg464
F0.000195
sS'NOUN'
p547
F0.000244
sS'ADP'
p548
F0.99956
s(lp549
g13
atp550
a(S'tak'
p551
(dp552
S'ADV'
p553
F0.984009
sS'NOUN'
p554
F0.001743
sS'PRT'
p555
F0.014192
sg464
F9e-06
sS'CONJ'
p556
F4.7e-05
sS'ADJ'
p557
F0.0
s(lp558
g31
atp559
a(S'powa\xc5\xbcnej'
p560
(dp561
S'ADJ'
p562
F0.9999999999999999
s(lp563
g39
atp564
a(S'i'
p565
(dp566
S'PRT'
p567
F0.011097
sS'CONJ'
p568
F0.988799
sS'PRON'
p569
F2.8e-05
sS'NOUN'
p570
F4.4e-05
sg464
F3.2e-05
s(lp571
g45
atp572
a(S'trudnej'
p573
(dp574
S'ADJ'
p575
F1.000001
s(lp576
g51
atp577
a(S'sytuacji'
p578
(dp579
S'NOUN'
p580
F1.000001
s(lp581
g25
atp582
a(S'powstaje'
p583
(dp584
S'VERB'
p585
F1.0
s(lp586
tp587
a(S'pytanie'
p588
(dp589
S'VERB'
p590
F0.002047
sS'NOUN'
p591
F0.9979530000000001
s(lp592
g51
atp593
a(g53
(dp594
g464
F0.0
sg55
F1.0
s(lp595
g53
atp596
a(S'co'
p597
(dp598
S'PRT'
p599
F0.014565
sS'CONJ'
p600
F0.700582
sS'NOUN'
p601
F0.196089
sS'ADP'
p602
F0.088764
s(lp603
g63
atp604
a(S'ue'
p605
(dp606
S'ADJ'
p607
F0.00141
sS'VERB'
p608
F0.000646
sS'NOUN'
p609
F0.9979439999999999
s(lp610
g78
atp611
a(S'uwa\xc5\xbca'
p612
(dp613
S'VERB'
p614
F1.0
s(lp615
tp616
a(S'za'
p617
(dp618
S'PRT'
p619
F0.053707
sS'VERB'
p620
F4e-06
sS'NOUN'
p621
F0.000124
sS'ADP'
p622
F0.9461649999999999
sg464
F0.0
s(lp623
g85
atp624
a(S'sprawy'
p625
(dp626
S'NOUN'
p627
F1.0
s(lp628
g175
atp629
a(S'priorytetowe'
p630
(dp631
S'ADV'
p632
F0.003375
sS'NOUN'
p633
F0.25343
sS'ADJ'
p634
F0.7428659999999998
sg464
F0.000331
s(lp635
g97
atp636
a(g99
(dp637
g55
F1.0
s(lp638
g99
atp639
asS'sl'
p640
(lp641
(S'kaj'
p642
(dp643
S'ADV'
p644
F0.020597
sS'PRON'
p645
F0.979403
s(lp646
g63
atp647
a(S'je'
p648
(dp649
S'PRON'
p650
F0.000513
sS'VERB'
p651
F0.9994759999999999
sg464
F1e-05
s(lp652
tp653
a(S'po'
p654
(dp655
g464
F0.0
sS'ADP'
p656
F1.0
s(lp657
g71
atp658
a(S'mnenju'
p659
(dp660
S'NOUN'
p661
F1.0
s(lp662
g85
atp663
a(S'eu'
p664
(dp665
S'ADV'
p666
F0.052823
sS'ADJ'
p667
F0.13970999999999997
sS'VERB'
p668
F0.001009
sS'NOUN'
p669
F0.8064570000000002
s(lp670
g78
atp671
a(S'prednostna'
p672
(dp673
S'ADJ'
p674
F1.0
s(lp675
tp676
a(S'naloga'
p677
(dp678
S'NOUN'
p679
F1.0
s(lp680
g97
atp681
a(g501
(dp682
S'ADP'
p683
F1.0
s(lp684
g13
atp685
a(S'tem'
p686
(dp687
S'ADV'
p688
F0.000176
sS'PRON'
p689
F0.999823
sS'NOUN'
p690
F2e-06
s(lp691
g19
atp692
a(S'izjemno'
p693
(dp694
S'ADV'
p695
F0.647008
sS'ADJ'
p696
F0.35299300000000006
s(lp697
g31
atp698
a(S'resnem'
p699
(dp700
S'ADV'
p701
F0.009729
sS'ADJ'
p702
F0.3066169999999999
sS'VERB'
p703
F0.272072
sS'NOUN'
p704
F0.41158
s(lp705
g39
atp706
a(S'in'
p707
(dp708
S'ADV'
p709
F0.000112
sg464
F2.2e-05
sS'CONJ'
p710
F0.999859
sS'NOUN'
p711
F8e-06
s(lp712
g45
atp713
a(S'zahtevnem'
p714
(dp715
S'ADJ'
p716
F1.0
s(lp717
g51
atp718
a(S'okviru'
p719
(dp720
S'NOUN'
p721
F1.0
s(lp722
g25
atp723
a(g99
(dp724
g55
F1.0
s(lp725
g99
atp726
asS'es'
p727
(lp728
(S'en'
p729
(dp730
g464
F0.000135
sS'CONJ'
p731
F5e-06
sS'ADP'
p732
F0.99986
s(lp733
g13
atp734
a(S'este'
p735
(dp736
S'PRON'
p737
F0.937289
sS'NOUN'
p738
F0.062711
s(lp739
g19
atp740
a(S'grave'
p741
(dp742
S'ADJ'
p743
F1.0
s(lp744
g39
atp745
a(S'y'
p746
(dp747
g464
F0.000656
sS'CONJ'
p748
F0.999344
s(lp749
g45
atp750
a(S'desafiante'
p751
(dp752
S'ADJ'
p753
F1.0
s(lp754
g51
atp755
a(S'contexto'
p756
(dp757
S'NOUN'
p758
F1.0
s(lp759
g25
atp760
a(g53
(dp761
g55
F1.0
s(lp762
g53
atp763
a(S'\xc2\xbf'
p764
(dp765
S'PRON'
p766
F0.0005
sg55
F0.9995
s(lp767
tp768
a(S'cu\xc3\xa1les'
p769
(dp770
S'PRON'
p771
F1.0
s(lp772
g63
atp773
a(S'son'
p774
(dp775
S'VERB'
p776
F0.99993
sS'NOUN'
p777
F7e-05
s(lp778
g147
atp779
a(S'las'
p780
(dp781
S'PRON'
p782
F0.0
sS'DET'
p783
F1.0
s(lp784
g71
atp785
a(S'prioridades'
p786
(dp787
S'NOUN'
p788
F1.0
s(lp789
g97
atp790
a(S'de'
p791
(dp792
g464
F0.0
sS'CONJ'
p793
F1.7e-05
sS'ADP'
p794
F0.999983
s(lp795
g169
atp796
a(S'la'
p797
(dp798
g464
F0.0
sS'PRON'
p799
F0.0
sS'DET'
p800
F0.999999
sS'NOUN'
p801
F0.0
s(lp802
tp803
a(S'ue'
p804
(dp805
S'VERB'
p806
F4e-06
sS'NOUN'
p807
F0.999997
s(lp808
g78
atp809
a(g99
(dp810
g55
F1.0
s(lp811
g99
atp812
as.