(dp0
S'fr'
p1
(lp2
(S'il'
p3
(dp4
S'PRON'
p5
F1.0
s(lp6
tp7
a(S'nous'
p8
(dp9
S'PRON'
p10
F1.0
s(lp11
S'we'
p12
atp13
a(S'faut'
p14
(dp15
S'VERB'
p16
F1.0
s(lp17
S'have'
p18
atp19
a(S'agir'
p20
(dp21
S'VERB'
p22
F1.0
s(lp23
S'do'
p24
atp25
a(S'.'
p26
(dp27
g26
F1.0
s(lp28
g26
atp29
asS'en'
p30
(lp31
(g12
(dp32
S'PRON'
p33
F1.0
s(lp34
g12
atp35
a(g18
(dp36
S'VERB'
p37
F1.0
s(lp38
g18
atp39
a(S'to'
p40
(dp41
S'ADV'
p42
F3e-06
sS'PRT'
p43
F0.999997
sS'ADP'
p44
F0.0
s(lp45
g40
atp46
a(g24
(dp47
S'VERB'
p48
F0.999999
sS'NOUN'
p49
F1e-06
s(lp50
g24
atp51
a(S'something'
p52
(dp53
S'ADV'
p54
F0.005829
sS'NOUN'
p55
F0.994171
s(lp56
g52
atp57
a(S'about'
p58
(dp59
S'ADV'
p60
F0.076249
sS'ADP'
p61
F0.923751
s(lp62
g58
atp63
a(S'that'
p64
(dp65
S'ADV'
p66
F0.036145
sS'DET'
p67
F0.963714
sS'ADP'
p68
F0.000142
s(lp69
g64
atp70
a(g26
(dp71
g26
F1.0
s(lp72
g26
atp73
asS'nl'
p74
(lp75
(S'daar'
p76
(dp77
S'ADV'
p78
F0.639149
sS'CONJ'
p79
F0.360851
s(lp80
g12
atp81
a(S'moet'
p82
(dp83
S'VERB'
p84
F1.0
s(lp85
g18
atp86
a(S'verandering'
p87
(dp88
S'NOUN'
p89
F1.0
s(lp90
g52
atp91
a(S'in'
p92
(dp93
S'ADV'
p94
F0.702801
sS'VERB'
p95
F0.000305
sS'ADP'
p96
F0.296895
s(lp97
g40
atp98
a(S'komen'
p99
(dp100
S'VERB'
p101
F0.981848
sS'NOUN'
p102
F0.018152
s(lp103
g24
atp104
a(g26
(dp105
g26
F1.0
s(lp106
g26
atp107
asS'de'
p108
(lp109
(S'dagegen'
p110
(dp111
S'ADV'
p112
F1.0
sS'PRT'
p113
F0.0
s(lp114
tp115
a(S'm\xc3\xbcssen'
p116
(dp117
S'VERB'
p118
F0.999256
s(lp119
g18
atp120
a(S'wir'
p121
(dp122
S'PRON'
p123
F1.0
s(lp124
g12
atp125
a(S'etwas'
p126
(dp127
S'ADV'
p128
F0.927328
sS'PRON'
p129
F0.07163
s(lp130
g52
atp131
a(S'unternehmen'
p132
(dp133
S'VERB'
p134
F1.0
s(lp135
g24
atp136
a(g26
(dp137
g26
F1.0
s(lp138
g26
atp139
asS'it'
p140
(lp141
(S'dobbiamo'
p142
(dp143
S'VERB'
p144
F1.0
s(lp145
g12
atp146
a(S'intervenire'
p147
(dp148
S'VERB'
p149
F1.0
s(lp150
g52
atp151
a(S'al'
p152
(dp153
S'ADP'
p154
F1.0
s(lp155
g40
atp156
a(S'riguardo'
p157
(dp158
S'VERB'
p159
F4e-06
sS'NOUN'
p160
F0.999996
s(lp161
g58
atp162
a(g26
(dp163
g26
F1.0
s(lp164
g26
atp165
asS'sk'
p166
(lp167
(S'mus\xc3\xadme'
p168
(dp169
S'VERB'
p170
F1.0
s(lp171
g12
atp172
a(S's'
p173
(dp174
S'PRT'
p175
F0.000709
sS'CONJ'
p176
F5.9e-05
sS'NOUN'
p177
F6e-06
sS'ADP'
p178
F0.998918
sS'X'
p179
F0.000308
s(lp180
g40
atp181
a(S't\xc3\xbdm'
p182
(dp183
S'PRON'
p184
F0.9995660000000001
sS'CONJ'
p185
F0.000433
s(lp186
tp187
a(S'nie\xc4\x8do'
p188
(dp189
S'PRON'
p190
F1.0
s(lp191
g52
atp192
a(S'urobi\xc5\xa5'
p193
(dp194
S'VERB'
p195
F1.0
s(lp196
g24
atp197
a(g26
(dp198
g26
F1.0
s(lp199
g26
atp200
asS'pl'
p201
(lp202
(S'musimy'
p203
(dp204
S'VERB'
p205
F1.0
s(lp206
g12
atp207
a(S'co\xc5\x9b'
p208
(dp209
S'PRT'
p210
F0.026044
sS'NOUN'
p211
F0.9739559999999999
s(lp212
g52
atp213
a(S'z'
p214
(dp215
S'PRT'
p216
F8e-05
sS'VERB'
p217
F2e-06
sS'NOUN'
p218
F0.0
sS'ADP'
p219
F0.999917
sg179
F1e-06
s(lp220
g58
atp221
a(S'tym'
p222
(dp223
S'ADV'
p224
F0.000666
sS'ADJ'
p225
F0.018560000000000004
sS'CONJ'
p226
F0.000102
sS'NOUN'
p227
F0.9806469999999999
sS'PRT'
p228
F2.5e-05
s(lp229
g64
atp230
a(S'zrobi\xc4\x87'
p231
(dp232
S'VERB'
p233
F1.0
s(lp234
g24
atp235
a(g26
(dp236
g26
F1.0
s(lp237
g26
atp238
asS'sl'
p239
(lp240
(S'v'
p241
(dp242
S'ADP'
p243
F1.0
s(lp244
g40
atp245
a(S'zvezi'
p246
(dp247
S'NOUN'
p248
F1.0
s(lp249
tp250
a(g173
(dp251
S'VERB'
p252
F4e-06
sS'NOUN'
p253
F9e-06
sS'ADP'
p254
F0.999987
s(lp255
g58
atp256
a(S'tem'
p257
(dp258
S'ADV'
p259
F0.002202
sS'PRON'
p260
F0.997754
sS'NOUN'
p261
F4.4e-05
s(lp262
g64
atp263
a(S'moramo'
p264
(dp265
S'VERB'
p266
F1.0
s(lp267
g12
atp268
a(S'nekaj'
p269
(dp270
S'ADV'
p271
F0.950531
sS'PRON'
p272
F0.049469
s(lp273
g52
atp274
a(S'storiti'
p275
(dp276
S'VERB'
p277
F1.0
s(lp278
g24
atp279
a(g26
(dp280
g26
F1.0
s(lp281
g26
atp282
asS'es'
p283
(lp284
(S'tenemos'
p285
(dp286
S'VERB'
p287
F1.0
s(lp288
g12
atp289
a(S'que'
p290
(dp291
g179
F0.0
sS'CONJ'
p292
F1.0
s(lp293
g40
atp294
a(S'hacer'
p295
(dp296
S'VERB'
p297
F1.0
s(lp298
g24
atp299
a(S'algo'
p300
(dp301
S'ADJ'
p302
F1.0
s(lp303
g52
atp304
a(S'al'
p305
(dp306
S'ADV'
p307
F1.0
s(lp308
g58
atp309
a(S'respecto'
p310
(dp311
S'ADV'
p312
F1.0
s(lp313
g64
atp314
a(g26
(dp315
g26
F1.0
s(lp316
g26
atp317
as.