(dp0
S'fr'
p1
(lp2
(S'je'
p3
(dp4
S'PRON'
p5
F1.0
s(lp6
tp7
a(S'remercie'
p8
(dp9
S'VERB'
p10
F1.0
s(lp11
S'thank'
p12
atp13
a(S"l'"
p14
(dp15
S'NOUN'
p16
F0.087886
sS'VERB'
p17
F0.7995690000000001
sS'ADJ'
p18
F0.112546
s(lp19
tp20
a(S'ensemble'
p21
(dp22
S'ADV'
p23
F0.751612
sS'NOUN'
p24
F0.248388
s(lp25
S'all'
p26
atp27
a(S'du'
p28
(dp29
S'ADP'
p30
F1.0
s(lp31
S'the'
p32
atp33
a(S'personnel'
p34
(dp35
S'ADJ'
p36
F0.086153
sS'NOUN'
p37
F0.913847
s(lp38
S'staff'
p39
atp40
a(S'ainsi'
p41
(dp42
S'ADV'
p43
F0.280576
sS'CONJ'
p44
F0.719424
s(lp45
S'and'
p46
atp47
a(S'que'
p48
(dp49
S'ADV'
p50
F0.031546
sS'PRON'
p51
F0.061223
sS'CONJ'
p52
F0.907231
s(lp53
S'you'
p54
atp55
a(S'tous'
p56
(dp57
S'PRON'
p58
F0.999996
sS'NOUN'
p59
F4e-06
s(lp60
S'all'
p61
atp62
a(S'les'
p63
(dp64
S'PRON'
p65
F0.000106
sS'DET'
p66
F0.999891
sS'ADP'
p67
F2e-06
s(lp68
S'the'
p69
atp70
a(S'interpr\xc3\xa8tes'
p71
(dp72
S'VERB'
p73
F5.4e-05
sS'NOUN'
p74
F0.999946
s(lp75
S'interpreters'
p76
atp77
a(S','
p78
(dp79
S'.'
p80
F1.0
s(lp81
g78
atp82
a(S'quel'
p83
(dp84
S'PRON'
p85
F1.0
s(lp86
S'whatever'
p87
atp88
a(S'que'
p89
(dp90
S'ADV'
p91
F0.105522
sS'PRON'
p92
F0.005221
sS'CONJ'
p93
F0.889258
s(lp94
tp95
a(S'soit'
p96
(dp97
S'ADV'
p98
F0.023905
sS'CONJ'
p99
F0.544799
sS'VERB'
p100
F0.431296
s(lp101
g87
atp102
a(S'leur'
p103
(dp104
S'PRON'
p105
F1.0
s(lp106
S'they'
p107
atp108
a(S'\xc3\xa2ge'
p109
(dp110
S'NOUN'
p111
F1.0
s(lp112
S'age'
p113
atp114
a(g80
(dp115
g80
F1.0
s(lp116
g80
atp117
asS'en'
p118
(lp119
(g12
(dp120
S'VERB'
p121
F1.0
s(lp122
g12
atp123
a(S'you'
p124
(dp125
S'PRON'
p126
F1.0
s(lp127
g124
atp128
a(S'to'
p129
(dp130
S'ADV'
p131
F0.000168
sS'PRT'
p132
F0.999823
sS'ADP'
p133
F1e-05
s(lp134
g129
atp135
a(g26
(dp136
S'ADV'
p137
F0.014237
sS'DET'
p138
F0.9857630000000001
s(lp139
g26
atp140
a(g32
(dp141
S'NOUN'
p142
F4e-06
sS'DET'
p143
F0.999996
s(lp144
g32
atp145
a(g39
(dp146
S'VERB'
p147
F2.9999999999999997e-05
sS'NOUN'
p148
F0.999971
s(lp149
g39
atp150
a(g46
(dp151
S'CONJ'
p152
F1.0
sS'NOUN'
p153
F0.0
s(lp154
g46
atp155
a(S'thank'
p156
(dp157
S'VERB'
p158
F1.0
s(lp159
g156
atp160
a(g54
(dp161
S'PRON'
p162
F1.0
s(lp163
g54
atp164
a(S'to'
p165
(dp166
S'ADV'
p167
F0.000168
sS'PRT'
p168
F0.999823
sS'ADP'
p169
F1e-05
s(lp170
g165
atp171
a(g61
(dp172
S'ADV'
p173
F0.014236
sS'DET'
p174
F0.985763
s(lp175
g61
atp176
a(g69
(dp177
S'NOUN'
p178
F2.6e-05
sS'DET'
p179
F0.999974
s(lp180
g69
atp181
a(g76
(dp182
S'NOUN'
p183
F1.0
s(lp184
g76
atp185
a(g78
(dp186
g80
F1.0
s(lp187
g78
atp188
a(g87
(dp189
S'ADJ'
p190
F0.001406
sS'DET'
p191
F0.998594
s(lp192
g87
atp193
a(g113
(dp194
S'VERB'
p195
F0.356937
sS'NOUN'
p196
F0.643063
s(lp197
g113
atp198
a(g107
(dp199
S'PRON'
p200
F1.0
s(lp201
g107
atp202
a(S'may'
p203
(dp204
S'VERB'
p205
F1.0
sS'NOUN'
p206
F0.0
s(lp207
g203
atp208
a(S'be'
p209
(dp210
S'VERB'
p211
F1.0
s(lp212
g209
atp213
a(g80
(dp214
g80
F1.0
s(lp215
g80
atp216
asS'nl'
p217
(lp218
(S'dank'
p219
(dp220
S'VERB'
p221
F0.003231
sS'NOUN'
p222
F0.996769
s(lp223
g12
atp224
a(S'aan'
p225
(dp226
S'ADV'
p227
F0.05622
sS'ADP'
p228
F0.94378
s(lp229
g129
atp230
a(S'alle'
p231
(dp232
S'PRON'
p233
F1.0
s(lp234
g26
atp235
a(S'medewerkers'
p236
(dp237
S'NOUN'
p238
F1.0
s(lp239
g39
atp240
a(S'en'
p241
(dp242
S'CONJ'
p243
F1.0
s(lp244
g46
atp245
a(S'dank'
p246
(dp247
S'VERB'
p248
F0.008941
sS'NOUN'
p249
F0.991059
s(lp250
g156
atp251
a(S'aan'
p252
(dp253
S'ADV'
p254
F0.057566
sS'ADP'
p255
F0.942434
s(lp256
g165
atp257
a(S'alle'
p258
(dp259
S'PRON'
p260
F1.0
s(lp261
g61
atp262
a(S'tolken'
p263
(dp264
S'VERB'
p265
F0.000841
sS'NOUN'
p266
F0.999158
s(lp267
g76
atp268
a(g78
(dp269
g80
F1.0
s(lp270
g78
atp271
a(S'ongeacht'
p272
(dp273
S'ADV'
p274
F0.001098
sS'ADP'
p275
F0.998902
s(lp276
g87
atp277
a(S'hun'
p278
(dp279
S'PRON'
p280
F1.0
s(lp281
g107
atp282
a(S'leeftijd'
p283
(dp284
S'NOUN'
p285
F1.0
s(lp286
g113
atp287
a(g80
(dp288
g80
F1.0
s(lp289
g80
atp290
asS'de'
p291
(lp292
(S'mein'
p293
(dp294
S'PRON'
p295
F0.778744
sS'VERB'
p296
F0.221256
s(lp297
g12
atp298
a(S'dank'
p299
(dp300
S'PRT'
p301
F0.18577
sS'VERB'
p302
F0.810611
s(lp303
tp304
a(S'gilt'
p305
(dp306
S'VERB'
p307
F1.0
s(lp308
g12
atp309
a(S'auch'
p310
(dp311
S'ADV'
p312
F1.0
s(lp313
tp314
a(S'allen'
p315
(dp316
S'PRON'
p317
F1.0
s(lp318
g26
atp319
a(S'mitarbeitern'
p320
(dp321
S'VERB'
p322
F0.135548
sS'NOUN'
p323
F0.727988
s(lp324
g39
atp325
a(S'und'
p326
(dp327
S'CONJ'
p328
F1.0
s(lp329
g46
atp330
a(S'allen'
p331
(dp332
S'PRON'
p333
F1.0
s(lp334
g61
atp335
a(S'dolmetschern'
p336
(dp337
S'VERB'
p338
F0.034887
sS'NOUN'
p339
F0.926842
s(lp340
g76
atp341
a(g78
(dp342
g80
F1.0
s(lp343
g78
atp344
a(S'egal'
p345
(dp346
S'ADJ'
p347
F1.0
s(lp348
tp349
a(S'welchen'
p350
(dp351
S'PRON'
p352
F0.967911
s(lp353
g87
atp354
a(S'alters'
p355
(dp356
S'ADV'
p357
F1.0
s(lp358
g113
atp359
a(g80
(dp360
g80
F1.0
s(lp361
g80
atp362
asS'it'
p363
(lp364
(S'ringrazio'
p365
(dp366
S'VERB'
p367
F1.0
s(lp368
g12
atp369
a(S'tutto'
p370
(dp371
S'ADV'
p372
F0.696888
sS'PRON'
p373
F0.146369
sS'ADJ'
p374
F0.155551
sS'NOUN'
p375
F0.001192
s(lp376
g26
atp377
a(S'il'
p378
(dp379
S'DET'
p380
F1.0
s(lp381
g32
atp382
a(S'personale'
p383
(dp384
S'ADJ'
p385
F0.090002
sS'NOUN'
p386
F0.909998
s(lp387
g39
atp388
a(S'e'
p389
(dp390
S'CONJ'
p391
F1.0
s(lp392
g46
atp393
a(S'tutti'
p394
(dp395
S'PRON'
p396
F0.837303
sS'ADJ'
p397
F0.162697
s(lp398
g61
atp399
a(S'gli'
p400
(dp401
S'PRON'
p402
F0.000107
sS'DET'
p403
F0.999893
s(lp404
tp405
a(S'interpreti'
p406
(dp407
S'VERB'
p408
F0.000426
sS'NOUN'
p409
F0.999575
s(lp410
g76
atp411
a(g78
(dp412
g80
F1.0
s(lp413
g78
atp414
a(S'qualsiasi'
p415
(dp416
S'PRON'
p417
F0.015537
sS'ADJ'
p418
F0.984463
s(lp419
tp420
a(S'sia'
p421
(dp422
S'CONJ'
p423
F0.430247
sS'VERB'
p424
F0.569753
s(lp425
g87
atp426
a(S'la'
p427
(dp428
S'PRON'
p429
F2.9e-05
sS'DET'
p430
F0.999971
s(lp431
g156
atp432
a(S'loro'
p433
(dp434
S'PRON'
p435
F1.0
s(lp436
g107
atp437
a(S'et\xc3\xa0'
p438
(dp439
S'NOUN'
p440
F1.0
s(lp441
g113
atp442
a(g80
(dp443
g80
F1.0
s(lp444
g80
atp445
asS'sk'
p446
(lp447
(S'\xc4\x8eakujem'
p448
(dp449
S'VERB'
p450
F0.996451
sS'NOUN'
p451
F0.003549
s(lp452
g12
atp453
a(S'v\xc5\xa1etk\xc3\xbdm'
p454
(dp455
S'PRON'
p456
F0.99986
sS'X'
p457
F0.00014
s(lp458
g26
atp459
a(S'zamestnancom'
p460
(dp461
S'NOUN'
p462
F1.0
s(lp463
g39
atp464
a(S'a'
p465
(dp466
g457
F0.000251
sS'CONJ'
p467
F0.999419
sS'NOUN'
p468
F1.3e-05
sS'ADP'
p469
F0.000251
sS'PRT'
p470
F6.6e-05
s(lp471
g46
atp472
a(S'v\xc5\xa1etk\xc3\xbdm'
p473
(dp474
S'PRON'
p475
F0.99882
sg457
F0.00118
s(lp476
g61
atp477
a(S'tlmo\xc4\x8dn\xc3\xadkom'
p478
(dp479
S'NOUN'
p480
F1.0
s(lp481
g76
atp482
a(g78
(dp483
g80
F1.0
s(lp484
g78
atp485
a(S'nech'
p486
(dp487
g457
F0.085401
sS'CONJ'
p488
F0.914599
s(lp489
tp490
a(S'maj\xc3\xba'
p491
(dp492
S'VERB'
p493
F1.0
s(lp494
g107
atp495
a(S'ak\xc3\xbdko\xc4\xbevek'
p496
(dp497
S'PRON'
p498
F1.0
s(lp499
g87
atp500
a(S'vek'
p501
(dp502
g457
F0.006083
sS'NOUN'
p503
F0.993917
s(lp504
g113
atp505
a(g80
(dp506
g80
F1.0
s(lp507
g80
atp508
asS'pl'
p509
(lp510
(S'dzi\xc4\x99kuj\xc4\x99'
p511
(dp512
S'VERB'
p513
F1.0
s(lp514
g12
atp515
a(S'ca\xc5\x82emu'
p516
(dp517
S'ADJ'
p518
F1.0
s(lp519
tp520
a(S'personelowi'
p521
(dp522
S'NOUN'
p523
F1.0
s(lp524
g39
atp525
a(g78
(dp526
g457
F0.0
sg80
F1.0
s(lp527
tp528
a(g465
(dp529
S'ADV'
p530
F0.000162
sS'NOUN'
p531
F0.002658
sS'ADP'
p532
F4.2e-05
sS'PRT'
p533
F0.003639
sS'VERB'
p534
F0.0006429999999999999
sg457
F0.006685
sS'CONJ'
p535
F0.985885
sS'ADJ'
p536
F0.00028599999999999996
s(lp537
g46
atp538
a(S'tak\xc5\xbce'
p539
(dp540
S'PRT'
p541
F0.439092
sS'CONJ'
p542
F0.560908
s(lp543
g165
atp544
a(S'wszystkim'
p545
(dp546
S'NOUN'
p547
F0.019371
sS'ADJ'
p548
F0.9806290000000001
s(lp549
g61
atp550
a(S't\xc5\x82umaczom'
p551
(dp552
S'ADV'
p553
F2.1e-05
sS'ADJ'
p554
F7.7e-05
sS'VERB'
p555
F0.0003139999999999999
sS'NOUN'
p556
F0.9995869999999998
s(lp557
g76
atp558
a(g78
(dp559
g457
F1e-06
sg80
F0.999999
s(lp560
g78
atp561
a(S'bez'
p562
(dp563
S'NOUN'
p564
F0.000219
sS'ADP'
p565
F0.999781
s(lp566
g87
atp567
a(S'wzgl\xc4\x99du'
p568
(dp569
S'NOUN'
p570
F1.0
s(lp571
tp572
a(S'na'
p573
(dp574
S'PRT'
p575
F3e-06
sS'VERB'
p576
F8.2e-05
sS'NOUN'
p577
F2e-06
sS'ADP'
p578
F0.9999119999999999
sg457
F1e-06
s(lp579
g87
atp580
a(S'ich'
p581
(dp582
S'PRON'
p583
F0.9999949999999999
sg457
F4e-06
s(lp584
g107
atp585
a(S'wiek'
p586
(dp587
S'NOUN'
p588
F1.0
s(lp589
g113
atp590
a(g80
(dp591
g80
F1.0
s(lp592
g80
atp593
asS'sl'
p594
(lp595
(S'hvala'
p596
(dp597
S'NOUN'
p598
F1.0
s(lp599
g12
atp600
a(S'vsemu'
p601
(dp602
S'PRON'
p603
F1.0
s(lp604
g26
atp605
a(S'osebju'
p606
(dp607
S'NOUN'
p608
F1.0
s(lp609
g39
atp610
a(S'in'
p611
(dp612
S'ADV'
p613
F1.9e-05
sg457
F1.5e-05
sS'CONJ'
p614
F0.999946
sS'NOUN'
p615
F2e-05
s(lp616
g46
atp617
a(S'hvala'
p618
(dp619
S'NOUN'
p620
F1.0
s(lp621
g156
atp622
a(S'vsem'
p623
(dp624
S'PRON'
p625
F1.000001
s(lp626
g61
atp627
a(S'tolma\xc4\x8dem'
p628
(dp629
S'ADV'
p630
F0.018319
sS'NOUN'
p631
F0.9568059999999998
sS'PRON'
p632
F0.000387
sS'VERB'
p633
F0.016387999999999996
sg457
F6.4e-05
sS'NUM'
p634
F0.0005769999999999999
sS'ADJ'
p635
F0.007459999999999999
s(lp636
g76
atp637
a(g78
(dp638
g80
F1.0
s(lp639
g78
atp640
a(S'ne'
p641
(dp642
S'PRT'
p643
F0.975158
sS'CONJ'
p644
F0.024622
sg457
F0.000221
s(lp645
g87
atp646
a(S'glede'
p647
(dp648
S'ADV'
p649
F0.988386
sS'ADP'
p650
F0.011614
s(lp651
tp652
a(S'na'
p653
(dp654
S'ADP'
p655
F1.0
s(lp656
g87
atp657
a(S'to'
p658
(dp659
S'PRON'
p660
F0.999946
sg457
F5.4e-05
s(lp661
g107
atp662
a(g78
(dp663
g80
F1.0
s(lp664
tp665
a(S'koliko'
p666
(dp667
S'ADV'
p668
F1.0
s(lp669
g203
atp670
a(S'ste'
p671
(dp672
S'VERB'
p673
F1.0
s(lp674
g124
atp675
a(S'stari'
p676
(dp677
S'ADJ'
p678
F1.0
s(lp679
g113
atp680
a(g80
(dp681
g80
F1.0
s(lp682
g80
atp683
asS'es'
p684
(lp685
(S'gracias'
p686
(dp687
S'ADP'
p688
F1.0
s(lp689
g12
atp690
a(g465
(dp691
S'ADP'
p692
F1.0
s(lp693
g129
atp694
a(S'todo'
p695
(dp696
S'ADJ'
p697
F1.0
s(lp698
g26
atp699
a(S'el'
p700
(dp701
S'PRON'
p702
F1.5e-05
sS'DET'
p703
F0.999985
s(lp704
g32
atp705
a(S'personal'
p706
(dp707
S'ADJ'
p708
F0.05826
sS'NOUN'
p709
F0.94174
s(lp710
g39
atp711
a(S'y'
p712
(dp713
g457
F0.000986
sS'CONJ'
p714
F0.999014
s(lp715
g46
atp716
a(S'gracias'
p717
(dp718
S'ADP'
p719
F1.0
s(lp720
g156
atp721
a(g465
(dp722
S'ADP'
p723
F1.0
s(lp724
g165
atp725
a(S'todos'
p726
(dp727
S'ADJ'
p728
F1.0
s(lp729
g61
atp730
a(S'los'
p731
(dp732
S'PRON'
p733
F0.0
sS'DET'
p734
F1.0
s(lp735
g69
atp736
a(S'int\xc3\xa9rpretes'
p737
(dp738
S'NOUN'
p739
F1.0
s(lp740
g76
atp741
a(g78
(dp742
g80
F1.0
s(lp743
g78
atp744
a(S'tengan'
p745
(dp746
S'VERB'
p747
F1.0
s(lp748
g87
atp749
a(S'la'
p750
(dp751
g457
F0.0
sS'PRON'
p752
F0.0
sS'DET'
p753
F1.0
sS'NOUN'
p754
F0.0
s(lp755
tp756
a(S'edad'
p757
(dp758
S'NOUN'
p759
F1.0
s(lp760
g113
atp761
a(S'que'
p762
(dp763
g457
F3e-06
sS'CONJ'
p764
F0.999997
s(lp765
g107
atp766
a(S'tengan'
p767
(dp768
S'VERB'
p769
F1.0
s(lp770
g203
atp771
a(g80
(dp772
g80
F1.0
s(lp773
g80
atp774
as.