(dp0
S'fr'
p1
(lp2
(S"c'"
p3
(dp4
S'ADJ'
p5
F0.079749
sS'VERB'
p6
F0.5393100000000001
sS'NOUN'
p7
F0.380941
s(lp8
S'quite'
p9
atp10
a(S'est'
p11
(dp12
S'VERB'
p13
F0.999107
sS'NOUN'
p14
F0.000893
s(lp15
g9
atp16
a(S'm\xc3\xaame'
p17
(dp18
S'ADV'
p19
F0.953562
sS'ADJ'
p20
F0.046438
s(lp21
tp22
a(S'plut\xc3\xb4t'
p23
(dp24
S'ADV'
p25
F1.0
s(lp26
g9
atp27
a(S"l'"
p28
(dp29
S'NOUN'
p30
F0.037162
sS'VERB'
p31
F0.7565829999999999
sS'ADJ'
p32
F0.206256
s(lp33
S'the'
p34
atp35
a(S'inverse'
p36
(dp37
S'ADJ'
p38
F0.437869
sS'VERB'
p39
F0.020812999999999998
sS'NOUN'
p40
F0.541318
s(lp41
S'reverse'
p42
atp43
a(S','
p44
(dp45
S'.'
p46
F1.0
s(lp47
g44
atp48
a(S'puisque'
p49
(dp50
S'CONJ'
p51
F1.0
s(lp52
S'given'
p53
atp54
a(S'la'
p55
(dp56
S'PRON'
p57
F0.000103
sS'DET'
p58
F0.999897
sS'NOUN'
p59
F0.0
s(lp60
S'the'
p61
atp62
a(S'l\xc3\xa9gislation'
p63
(dp64
S'NOUN'
p65
F1.0
s(lp66
S'regulation'
p67
atp68
a(S'pr\xc3\xa9voit'
p69
(dp70
S'VERB'
p71
F1.0
s(lp72
S'provides'
p73
atp74
a(S'la'
p75
(dp76
S'PRON'
p77
F0.000959
sS'DET'
p78
F0.999036
sS'NOUN'
p79
F4e-06
s(lp80
S'the'
p81
atp82
a(S'mise'
p83
(dp84
S'ADJ'
p85
F0.045634
sS'VERB'
p86
F0.003946
sS'NOUN'
p87
F0.950421
s(lp88
tp89
a(S'en'
p90
(dp91
S'PRON'
p92
F0.049907
sS'ADP'
p93
F0.950093
s(lp94
S'in'
p95
atp96
a(S'place'
p97
(dp98
S'VERB'
p99
F0.053832
sS'NOUN'
p100
F0.946168
s(lp101
S'introduction'
p102
atp103
a(S"d'"
p104
(dp105
S'NOUN'
p106
F0.035426
sS'VERB'
p107
F0.6996969999999999
sS'ADJ'
p108
F0.264877
s(lp109
S'of'
p110
atp111
a(S'un'
p112
(dp113
S'NOUN'
p114
F0.000183
sS'NUM'
p115
F0.025739
sS'DET'
p116
F0.974078
s(lp117
S'a'
p118
atp119
a(S'fonds'
p120
(dp121
S'VERB'
p122
F0.000756
sS'NOUN'
p123
F0.999244
s(lp124
tp125
a(S'sp\xc3\xa9cial'
p126
(dp127
S'ADJ'
p128
F1.0
s(lp129
S'special'
p130
atp131
a(S'destin\xc3\xa9'
p132
(dp133
S'VERB'
p134
F1.0
s(lp135
S'fund'
p136
atp137
a(S'\xc3\xa0'
p138
(dp139
S'ADP'
p140
F1.0
s(lp141
S'for'
p142
atp143
a(S'encourager'
p144
(dp145
S'VERB'
p146
F1.0
s(lp147
S'promotion'
p148
atp149
a(S'la'
p150
(dp151
S'PRON'
p152
F0.000153
sS'DET'
p153
F0.999847
sS'NOUN'
p154
F0.0
s(lp155
tp156
a(S'recherche'
p157
(dp158
S'VERB'
p159
F0.00025
sS'NOUN'
p160
F0.99975
s(lp161
S'research'
p162
atp163
a(S'pour'
p164
(dp165
S'CONJ'
p166
F0.127747
sS'ADP'
p167
F0.872253
s(lp168
S'for'
p169
atp170
a(S'd\xc3\xa9velopper'
p171
(dp172
S'VERB'
p173
F1.0
s(lp174
S'into'
p175
atp176
a(S'de'
p177
(dp178
S'ADP'
p179
F1.0
s(lp180
tp181
a(S'nouveaux'
p182
(dp183
S'NOUN'
p184
F0.012436
sS'ADJ'
p185
F0.987564
s(lp186
tp187
a(S'produits'
p188
(dp189
S'VERB'
p190
F0.051953
sS'NOUN'
p191
F0.948047
s(lp192
S'products'
p193
atp194
a(S'adapt\xc3\xa9s'
p195
(dp196
S'VERB'
p197
F1.0
s(lp198
S'suitable'
p199
atp200
a(S'aux'
p201
(dp202
S'ADP'
p203
F1.0
s(lp204
S'for'
p205
atp206
a(S'cultures'
p207
(dp208
S'NOUN'
p209
F1.0
s(lp210
S'crops'
p211
atp212
a(S'mineures'
p213
(dp214
S'NOUN'
p215
F0.012852
sS'ADJ'
p216
F0.987148
s(lp217
S'minor'
p218
atp219
a(g46
(dp220
g46
F1.0
s(lp221
g46
atp222
asS'en'
p223
(lp224
(g9
(dp225
S'ADV'
p226
F0.550402
sS'DET'
p227
F0.449598
s(lp228
g9
atp229
a(g34
(dp230
S'NOUN'
p231
F1e-06
sS'DET'
p232
F0.999999
s(lp233
g34
atp234
a(g42
(dp235
S'ADV'
p236
F0.015759
sS'ADJ'
p237
F0.172128
sS'VERB'
p238
F0.002617
sS'NOUN'
p239
F0.809496
s(lp240
g42
atp241
a(g44
(dp242
g46
F1.0
s(lp243
g44
atp244
a(g95
(dp245
S'ADV'
p246
F0.000967
sS'PRT'
p247
F0.0
sS'ADP'
p248
F0.999033
s(lp249
g95
atp250
a(S'fact'
p251
(dp252
S'NOUN'
p253
F1.0
s(lp254
g251
atp255
a(g44
(dp256
g46
F1.0
s(lp257
g44
atp258
a(g53
(dp259
S'VERB'
p260
F0.992181
sS'ADJ'
p261
F0.007819
s(lp262
g53
atp263
a(S'that'
p264
(dp265
S'ADV'
p266
F0.001261
sS'DET'
p267
F0.033011
sS'ADP'
p268
F0.965728
s(lp269
g264
atp270
a(g61
(dp271
S'NOUN'
p272
F3e-06
sS'DET'
p273
F0.999997
s(lp274
g61
atp275
a(g67
(dp276
S'NOUN'
p277
F1.0
s(lp278
g67
atp279
a(g73
(dp280
S'VERB'
p281
F1.0
s(lp282
g73
atp283
a(g169
(dp284
S'ADP'
p285
F1.0
s(lp286
g169
atp287
a(g81
(dp288
S'NOUN'
p289
F1e-06
sS'DET'
p290
F0.999999
s(lp291
g81
atp292
a(g102
(dp293
S'NOUN'
p294
F1.0
s(lp295
g102
atp296
a(g110
(dp297
S'ADP'
p298
F1.0
s(lp299
g110
atp300
a(g118
(dp301
S'NOUN'
p302
F0.0
sS'DET'
p303
F1.0
s(lp304
g118
atp305
a(g130
(dp306
S'NOUN'
p307
F0.006393
sS'ADJ'
p308
F0.993607
s(lp309
g130
atp310
a(g136
(dp311
S'VERB'
p312
F6.7e-05
sS'NOUN'
p313
F0.999933
s(lp314
g136
atp315
a(g142
(dp316
S'ADP'
p317
F1.0
s(lp318
g142
atp319
a(S'the'
p320
(dp321
S'NOUN'
p322
F1e-06
sS'DET'
p323
F0.999999
s(lp324
g320
atp325
a(g148
(dp326
S'NOUN'
p327
F1.0
s(lp328
g148
atp329
a(S'of'
p330
(dp331
S'ADP'
p332
F1.0
s(lp333
g330
atp334
a(g162
(dp335
S'VERB'
p336
F2.5e-05
sS'NOUN'
p337
F0.999975
s(lp338
g162
atp339
a(g175
(dp340
S'ADP'
p341
F1.0
s(lp342
g175
atp343
a(g193
(dp344
S'NOUN'
p345
F1.0
s(lp346
g193
atp347
a(S'that'
p348
(dp349
S'ADV'
p350
F0.000246
sS'DET'
p351
F0.999747
sS'ADP'
p352
F7e-06
s(lp353
g348
atp354
a(S'are'
p355
(dp356
S'VERB'
p357
F0.999997
sS'NOUN'
p358
F3e-06
s(lp359
g355
atp360
a(g199
(dp361
S'ADJ'
p362
F1.0
s(lp363
g199
atp364
a(g205
(dp365
S'ADP'
p366
F1.0
s(lp367
g205
atp368
a(g218
(dp369
S'NOUN'
p370
F0.006493
sS'ADJ'
p371
F0.993507
s(lp372
g218
atp373
a(g211
(dp374
S'VERB'
p375
F3.4e-05
sS'NOUN'
p376
F0.999966
s(lp377
g211
atp378
a(g46
(dp379
g46
F1.0
s(lp380
g46
atp381
asS'nl'
p382
(lp383
(S'integendeel'
p384
(dp385
S'ADV'
p386
F1.0
s(lp387
g42
atp388
a(g44
(dp389
g46
F1.0
s(lp390
g44
atp391
a(S'in'
p392
(dp393
S'ADV'
p394
F0.014076
sS'VERB'
p395
F8e-06
sS'ADP'
p396
F0.985916
s(lp397
g95
atp398
a(S'de'
p399
(dp400
S'DET'
p401
F1.0
s(lp402
g61
atp403
a(S'verordening'
p404
(dp405
S'NOUN'
p406
F1.0
s(lp407
g67
atp408
a(S'wordt'
p409
(dp410
S'VERB'
p411
F1.0
s(lp412
g73
atp413
a(S'de'
p414
(dp415
S'DET'
p416
F1.0
s(lp417
g81
atp418
a(S'komst'
p419
(dp420
S'NOUN'
p421
F1.0
s(lp422
g102
atp423
a(S'voorbereid'
p424
(dp425
S'VERB'
p426
F1.0
s(lp427
g199
atp428
a(S'van'
p429
(dp430
S'ADP'
p431
F1.0
s(lp432
g110
atp433
a(S'een'
p434
(dp435
S'ADJ'
p436
F1e-06
sS'PRON'
p437
F0.000523
sS'NUM'
p438
F1e-06
sS'DET'
p439
F0.999476
s(lp440
g118
atp441
a(S'speciaal'
p442
(dp443
S'ADJ'
p444
F1.0
s(lp445
g130
atp446
a(S'fonds'
p447
(dp448
S'NOUN'
p449
F1.0
s(lp450
g136
atp451
a(S'ter'
p452
(dp453
S'ADV'
p454
F1.8e-05
sS'ADP'
p455
F0.999982
s(lp456
g142
atp457
a(S'bevordering'
p458
(dp459
S'NOUN'
p460
F1.0
s(lp461
g148
atp462
a(S'van'
p463
(dp464
S'ADP'
p465
F1.0
s(lp466
g330
atp467
a(S'onderzoek'
p468
(dp469
S'VERB'
p470
F0.0
sS'NOUN'
p471
F1.0
s(lp472
g162
atp473
a(S'naar'
p474
(dp475
S'CONJ'
p476
F0.001373
sS'ADJ'
p477
F0.000301
sS'ADP'
p478
F0.998326
s(lp479
g175
atp480
a(S'middelen'
p481
(dp482
S'NOUN'
p483
F1.0
s(lp484
g193
atp485
a(S'voor'
p486
(dp487
S'ADV'
p488
F0.030649
sS'CONJ'
p489
F6e-06
sS'NOUN'
p490
F1e-06
sS'ADP'
p491
F0.969344
s(lp492
g205
atp493
a(S'kleine'
p494
(dp495
S'NOUN'
p496
F1.1e-05
sS'ADJ'
p497
F0.999989
s(lp498
g218
atp499
a(S'teelten'
p500
(dp501
S'NOUN'
p502
F1.0
s(lp503
g211
atp504
a(g46
(dp505
g46
F1.0
s(lp506
g46
atp507
asS'de'
p508
(lp509
(S'in'
p510
(dp511
S'ADP'
p512
F1.0
s(lp513
g95
atp514
a(S'der'
p515
(dp516
S'PRON'
p517
F0.239488
sS'DET'
p518
F0.757323
s(lp519
g34
atp520
a(S'tat'
p521
(dp522
S'VERB'
p523
F1.0
s(lp524
tp525
a(S'ist'
p526
(dp527
S'VERB'
p528
F1.0
s(lp529
g9
atp530
a(S'das'
p531
(dp532
S'PRON'
p533
F0.019326
sS'DET'
p534
F0.980673
s(lp535
tp536
a(S'gegenteil'
p537
(dp538
S'VERB'
p539
F0.001091
sS'NOUN'
p540
F0.998596
s(lp541
tp542
a(S'der'
p543
(dp544
S'PRON'
p545
F0.013183
sS'DET'
p546
F0.984643
s(lp547
g34
atp548
a(S'fall'
p549
(dp550
S'VERB'
p551
F1.0
s(lp552
g42
atp553
a(g44
(dp554
g46
F1.0
s(lp555
g44
atp556
a(S'und'
p557
(dp558
S'CONJ'
p559
F1.0
s(lp560
g44
atp561
a(S'zwar'
p562
(dp563
S'ADV'
p564
F1.0
s(lp565
tp566
a(S'angesichts'
p567
(dp568
S'ADP'
p569
F1.0
s(lp570
g53
atp571
a(S'der'
p572
(dp573
S'PRON'
p574
F1.7e-05
sS'DET'
p575
F0.999978
s(lp576
tp577
a(S'tatsache'
p578
(dp579
S'ADJ'
p580
F0.001273
sS'NOUN'
p581
F0.998513
s(lp582
g251
atp583
a(g44
(dp584
g46
F1.0
s(lp585
tp586
a(S'dass'
p587
(dp588
S'CONJ'
p589
F1.0
s(lp590
g264
atp591
a(S'die'
p592
(dp593
S'PRON'
p594
F0.000867
sS'DET'
p595
F0.999002
s(lp596
g61
atp597
a(S'verordnung'
p598
(dp599
S'ADJ'
p600
F9.3e-05
sS'NOUN'
p601
F0.999799
s(lp602
g67
atp603
a(S'die'
p604
(dp605
S'PRON'
p606
F6.7e-05
sS'DET'
p607
F0.99991
s(lp608
g81
atp609
a(S'einf\xc3\xbchrung'
p610
(dp611
S'ADJ'
p612
F9.7e-05
sS'NOUN'
p613
F0.999842
s(lp614
g102
atp615
a(S'eines'
p616
(dp617
S'NUM'
p618
F0.000839
sS'DET'
p619
F0.998121
s(lp620
g118
atp621
a(S'sonderfonds'
p622
(dp623
S'ADJ'
p624
F0.000236
sS'NOUN'
p625
F0.999637
s(lp626
g130
atp627
a(S'unterst\xc3\xbctzt'
p628
(dp629
S'VERB'
p630
F0.9875449999999999
s(lp631
g136
atp632
a(g44
(dp633
g46
F1.0
s(lp634
tp635
a(S'um'
p636
(dp637
S'CONJ'
p638
F0.638795
sS'ADP'
p639
F0.361072
s(lp640
g142
atp641
a(S'die'
p642
(dp643
S'PRON'
p644
F0.000801
sS'DET'
p645
F0.998858
s(lp646
g320
atp647
a(S'erforschung'
p648
(dp649
S'ADJ'
p650
F0.000138
sS'NOUN'
p651
F0.99973
s(lp652
g162
atp653
a(S'von'
p654
(dp655
S'NOUN'
p656
F0.001164
sS'ADP'
p657
F0.998836
s(lp658
g330
atp659
a(S'produkten'
p660
(dp661
S'ADJ'
p662
F0.076359
sS'NOUN'
p663
F0.920673
s(lp664
g193
atp665
a(S'zu'
p666
(dp667
S'PRT'
p668
F0.999976
s(lp669
g175
atp670
a(S'f\xc3\xb6rdern'
p671
(dp672
S'VERB'
p673
F1.0
s(lp674
g148
atp675
a(g44
(dp676
g46
F1.0
s(lp677
tp678
a(S'die'
p679
(dp680
S'PRON'
p681
F0.969205
sS'DET'
p682
F0.026136
s(lp683
g348
atp684
a(S'f\xc3\xbcr'
p685
(dp686
S'ADP'
p687
F1.0
s(lp688
g205
atp689
a(S'"'
p690
(dp691
g46
F1.0
s(lp692
g218
atp693
a(S'minor'
p694
(dp695
S'NOUN'
p696
F0.9271659999999999
s(lp697
tp698
a(S'crops'
p699
(dp700
S'NOUN'
p701
F0.373019
sS'ADJ'
p702
F0.47955
s(lp703
g211
atp704
a(g690
(dp705
g46
F1.0
s(lp706
g218
atp707
a(S'geeignet'
p708
(dp709
S'VERB'
p710
F0.259425
sS'ADJ'
p711
F0.740575
s(lp712
g199
atp713
a(S'sind'
p714
(dp715
S'VERB'
p716
F1.0
s(lp717
g355
atp718
a(g46
(dp719
g46
F1.0
s(lp720
g46
atp721
asS'it'
p722
(lp723
(S'e'
p724
(dp725
S'CONJ'
p726
F1.0
s(lp727
g9
atp728
a(S"'"
p729
(dp730
g46
F1.0
s(lp731
tp732
a(S'pi\xc3\xb9'
p733
(dp734
S'ADV'
p735
F0.999271
sS'NOUN'
p736
F4.3e-05
sS'ADJ'
p737
F0.000468
sS'ADP'
p738
F0.000218
s(lp739
g9
atp740
a(S'realistico'
p741
(dp742
S'ADJ'
p743
F1.0
s(lp744
g42
atp745
a(S'invece'
p746
(dp747
S'ADV'
p748
F1.0
s(lp749
tp750
a(S'il'
p751
(dp752
S'DET'
p753
F1.0
s(lp754
g34
atp755
a(S'contrario'
p756
(dp757
S'ADJ'
p758
F0.071841
sS'VERB'
p759
F8e-06
sS'NOUN'
p760
F0.928151
s(lp761
g42
atp762
a(g44
(dp763
g46
F1.0
s(lp764
g44
atp765
a(S'visto'
p766
(dp767
S'CONJ'
p768
F0.861393
sS'VERB'
p769
F0.133321
sS'NOUN'
p770
F0.005285
s(lp771
g53
atp772
a(S'che'
p773
(dp774
S'PRON'
p775
F0.970343
sS'CONJ'
p776
F0.029299
sS'ADJ'
p777
F0.000358
s(lp778
g264
atp779
a(S'il'
p780
(dp781
S'DET'
p782
F1.0
s(lp783
g61
atp784
a(S'regolamento'
p785
(dp786
S'VERB'
p787
F7.6e-05
sS'NOUN'
p788
F0.999924
s(lp789
g67
atp790
a(S'prevede'
p791
(dp792
S'VERB'
p793
F1.0
s(lp794
g73
atp795
a(S"l'"
p796
(dp797
S'NOUN'
p798
F0.000971
sS'VERB'
p799
F0.9832770000000001
sS'ADJ'
p800
F0.015752
s(lp801
g81
atp802
a(S'introduzione'
p803
(dp804
S'NOUN'
p805
F1.0
s(lp806
g102
atp807
a(S'di'
p808
(dp809
S'CONJ'
p810
F1.6e-05
sS'ADP'
p811
F0.999984
s(lp812
g110
atp813
a(S'un'
p814
(dp815
S'PRON'
p816
F0.002681
sS'DEF'
p817
F0.997319
s(lp818
g118
atp819
a(S'fondo'
p820
(dp821
S'VERB'
p822
F1.3e-05
sS'NOUN'
p823
F0.999987
s(lp824
g136
atp825
a(S'speciale'
p826
(dp827
S'ADJ'
p828
F1.0
s(lp829
g130
atp830
a(S'per'
p831
(dp832
S'CONJ'
p833
F0.061034
sS'ADP'
p834
F0.938966
s(lp835
g142
atp836
a(S'la'
p837
(dp838
S'PRON'
p839
F0.000212
sS'DET'
p840
F0.999788
s(lp841
g320
atp842
a(S'promozione'
p843
(dp844
S'NOUN'
p845
F1.0
s(lp846
g148
atp847
a(S'della'
p848
(dp849
S'DEF'
p850
F0.001587
sS'ADP'
p851
F0.998413
s(lp852
g330
atp853
a(S'ricerca'
p854
(dp855
S'VERB'
p856
F9.7e-05
sS'NOUN'
p857
F0.999903
s(lp858
g162
atp859
a(S'di'
p860
(dp861
S'CONJ'
p862
F4e-06
sS'ADP'
p863
F0.999996
s(lp864
g175
atp865
a(S'prodotti'
p866
(dp867
S'VERB'
p868
F0.001683
sS'NOUN'
p869
F0.998317
s(lp870
tp871
a(S'fitosanitari'
p872
(dp873
S'ADJ'
p874
F1.0
s(lp875
g193
atp876
a(S'adatti'
p877
(dp878
S'VERB'
p879
F0.069518
sS'ADJ'
p880
F0.930482
s(lp881
g199
atp882
a(S'alle'
p883
(dp884
S'ADP'
p885
F1.0
s(lp886
g205
atp887
a(S'coltivazioni'
p888
(dp889
S'NOUN'
p890
F1.0
s(lp891
g211
atp892
a(S'minori'
p893
(dp894
S'NOUN'
p895
F0.002702
sS'VERB'
p896
F0.000807
sS'ADJ'
p897
F0.996491
s(lp898
g218
atp899
a(g46
(dp900
g46
F1.0
s(lp901
g46
atp902
asS'sk'
p903
(lp904
(S'pr\xc3\xa1ve'
p905
(dp906
S'ADV'
p907
F0.115162
sS'X'
p908
F0.881853
sS'NOUN'
p909
F0.002985
s(lp910
g9
atp911
a(S'naopak'
p912
(dp913
S'ADV'
p914
F0.296586
sg908
F0.703414
s(lp915
g42
atp916
a(g44
(dp917
g46
F1.0
s(lp918
g44
atp919
a(S'preto\xc5\xbee'
p920
(dp921
S'CONJ'
p922
F1.0
s(lp923
g53
atp924
a(S'nariadenie'
p925
(dp926
S'NOUN'
p927
F1.0
s(lp928
g67
atp929
a(S'zabezpe\xc4\x8d\xc3\xad'
p930
(dp931
S'VERB'
p932
F1.0
s(lp933
g73
atp934
a(S'zalo\xc5\xbeenie'
p935
(dp936
S'NOUN'
p937
F1.0
s(lp938
g102
atp939
a(S'\xc5\xa1peci\xc3\xa1lneho'
p940
(dp941
S'ADJ'
p942
F1.0
s(lp943
g130
atp944
a(S'fondu'
p945
(dp946
S'NOUN'
p947
F1.0
s(lp948
g136
atp949
a(S'na'
p950
(dp951
g908
F0.000156
sS'CONJ'
p952
F1.5e-05
sS'ADP'
p953
F0.999826
sS'PRT'
p954
F3e-06
s(lp955
g142
atp956
a(S'podporu'
p957
(dp958
S'NOUN'
p959
F1.0
s(lp960
g148
atp961
a(S'v\xc3\xbdskumu'
p962
(dp963
S'NOUN'
p964
F1.0
s(lp965
g162
atp966
a(S'v\xc3\xbdrobkov'
p967
(dp968
S'NOUN'
p969
F1.0
s(lp970
g193
atp971
a(S'vhodn\xc3\xbdch'
p972
(dp973
S'ADJ'
p974
F1.0
s(lp975
g199
atp976
a(S'pre'
p977
(dp978
g908
F0.000188
sS'ADP'
p979
F0.999812
s(lp980
g205
atp981
a(S'menej'
p982
(dp983
S'ADV'
p984
F0.078708
sg908
F0.002931
sS'NUM'
p985
F0.91836
s(lp986
tp987
a(S'v\xc3\xbdznamn\xc3\xa9'
p988
(dp989
S'ADJ'
p990
F1.0
s(lp991
g218
atp992
a(S'plodiny'
p993
(dp994
S'NOUN'
p995
F1.0
s(lp996
g211
atp997
a(g46
(dp998
g46
F1.0
s(lp999
g46
atp1000
asS'pl'
p1001
(lp1002
(S'w'
p1003
(dp1004
S'ADJ'
p1005
F3e-06
sS'NOUN'
p1006
F8e-06
sS'ADP'
p1007
F0.999988
sg908
F1e-06
s(lp1008
g95
atp1009
a(S'rzeczywisto\xc5\x9bci'
p1010
(dp1011
S'NOUN'
p1012
F1.0
s(lp1013
g251
atp1014
a(S'jest'
p1015
(dp1016
S'VERB'
p1017
F1.0
s(lp1018
g9
atp1019
a(S'wprost'
p1020
(dp1021
S'ADV'
p1022
F0.30988
sS'PRT'
p1023
F0.690026
sS'ADJ'
p1024
F9.400000000000001e-05
s(lp1025
tp1026
a(S'przeciwnie'
p1027
(dp1028
S'ADV'
p1029
F1.0
s(lp1030
g42
atp1031
a(g44
(dp1032
g908
F0.0
sg46
F1.0
s(lp1033
g44
atp1034
a(S'bior\xc4\x85c'
p1035
(dp1036
S'VERB'
p1037
F1.0
s(lp1038
g53
atp1039
a(S'pod'
p1040
(dp1041
S'ADV'
p1042
F0.000207
sS'ADP'
p1043
F0.999794
s(lp1044
tp1045
a(S'uwag\xc4\x99'
p1046
(dp1047
S'NOUN'
p1048
F1.0
s(lp1049
g53
atp1050
a(g44
(dp1051
g908
F0.0
sg46
F1.0
s(lp1052
g44
atp1053
a(S'\xc5\xbce'
p1054
(dp1055
S'PRT'
p1056
F0.000175
sS'CONJ'
p1057
F0.999824
s(lp1058
g264
atp1059
a(S'przedmiotowa'
p1060
(dp1061
S'NOUN'
p1062
F0.052702000000000006
sS'VERB'
p1063
F0.01399
sS'ADJ'
p1064
F0.933308
s(lp1065
g61
atp1066
a(S'regulacja'
p1067
(dp1068
S'NOUN'
p1069
F1.0
s(lp1070
g67
atp1071
a(S'przewiduje'
p1072
(dp1073
S'VERB'
p1074
F1.0
s(lp1075
g73
atp1076
a(S'ustanowienie'
p1077
(dp1078
S'VERB'
p1079
F1.0
s(lp1080
g102
atp1081
a(S'specjalnego'
p1082
(dp1083
S'ADJ'
p1084
F1.0
s(lp1085
g130
atp1086
a(S'funduszu'
p1087
(dp1088
S'NOUN'
p1089
F1.0
s(lp1090
g136
atp1091
a(S'na'
p1092
(dp1093
S'PRT'
p1094
F2e-06
sS'VERB'
p1095
F2.3e-05
sS'NOUN'
p1096
F2e-06
sS'ADP'
p1097
F0.9999709999999999
sg908
F1e-06
s(lp1098
g142
atp1099
a(S'rzecz'
p1100
(dp1101
S'NOUN'
p1102
F1.0
s(lp1103
tp1104
a(S'wspierania'
p1105
(dp1106
S'VERB'
p1107
F1.0
s(lp1108
g148
atp1109
a(S'bada\xc5\x84'
p1110
(dp1111
S'NOUN'
p1112
F1.0
s(lp1113
tp1114
a(S'nad'
p1115
(dp1116
S'ADP'
p1117
F1.0
s(lp1118
g162
atp1119
a(S'nowymi'
p1120
(dp1121
S'ADJ'
p1122
F1.000001
s(lp1123
g175
atp1124
a(S'produktami'
p1125
(dp1126
S'NOUN'
p1127
F1.0
s(lp1128
g193
atp1129
a(g44
(dp1130
g908
F0.0
sg46
F1.0
s(lp1131
tp1132
a(S'kt\xc3\xb3re'
p1133
(dp1134
S'ADJ'
p1135
F1.0000000000000002
s(lp1136
g348
atp1137
a(S'nadawa\xc5\x82yby'
p1138
(dp1139
S'ADV'
p1140
F0.000104
sS'NOUN'
p1141
F0.9873869999999999
sS'PRT'
p1142
F0.002311
sS'VERB'
p1143
F0.008624000000000001
sS'CONJ'
p1144
F0.001468
sS'ADJ'
p1145
F0.00011
s(lp1146
g199
atp1147
a(S'si\xc4\x99'
p1148
(dp1149
S'PRT'
p1150
F1.0
s(lp1151
g355
atp1152
a(S'do'
p1153
(dp1154
g908
F0.0
sS'NOUN'
p1155
F6e-06
sS'ADP'
p1156
F0.9999929999999999
s(lp1157
g205
atp1158
a(S'uprawy'
p1159
(dp1160
S'NOUN'
p1161
F0.999999
s(lp1162
g211
atp1163
a(g1003
(dp1164
g908
F0.0
sS'ADJ'
p1165
F0.0
sS'ADP'
p1166
F1.0
sS'NOUN'
p1167
F0.0
s(lp1168
tp1169
a(S'ramach'
p1170
(dp1171
S'NOUN'
p1172
F1.0
s(lp1173
tp1174
a(S'drobnych'
p1175
(dp1176
S'ADJ'
p1177
F1.0
s(lp1178
g218
atp1179
a(S'upraw'
p1180
(dp1181
S'NOUN'
p1182
F1.0
s(lp1183
g211
atp1184
a(g46
(dp1185
g46
F1.0
s(lp1186
g46
atp1187
asS'sl'
p1188
(lp1189
(S'dejansko'
p1190
(dp1191
S'ADV'
p1192
F0.935124
sS'ADJ'
p1193
F0.06487599999999999
s(lp1194
g251
atp1195
a(S'je'
p1196
(dp1197
S'PRON'
p1198
F0.031538
sS'VERB'
p1199
F0.968461
sg908
F1e-06
s(lp1200
g9
atp1201
a(S'ravno'
p1202
(dp1203
S'ADV'
p1204
F0.028761
sS'PRT'
p1205
F0.970441
sS'ADJ'
p1206
F0.000798
s(lp1207
tp1208
a(S'nasprotno'
p1209
(dp1210
S'ADV'
p1211
F0.858022
sS'ADJ'
p1212
F0.14197800000000002
s(lp1213
g42
atp1214
a(g44
(dp1215
g46
F1.0
s(lp1216
g44
atp1217
a(S'glede'
p1218
(dp1219
S'ADV'
p1220
F0.990882
sS'ADP'
p1221
F0.009118
s(lp1222
g53
atp1223
a(S'na'
p1224
(dp1225
S'ADP'
p1226
F1.0
s(lp1227
tp1228
a(S'to'
p1229
(dp1230
S'PRON'
p1231
F0.999946
sg908
F5.4e-05
s(lp1232
g53
atp1233
a(g44
(dp1234
g46
F1.0
s(lp1235
g44
atp1236
a(S'da'
p1237
(dp1238
S'PRT'
p1239
F2.5e-05
sS'CONJ'
p1240
F0.999691
sS'VERB'
p1241
F0.000283
sg908
F1e-06
s(lp1242
g264
atp1243
a(S'ureditev'
p1244
(dp1245
S'NOUN'
p1246
F1.0
s(lp1247
g67
atp1248
a(S'zagotavlja'
p1249
(dp1250
S'VERB'
p1251
F1.0
s(lp1252
g73
atp1253
a(S'uvedbo'
p1254
(dp1255
S'NOUN'
p1256
F1.0
s(lp1257
g102
atp1258
a(S'posebnega'
p1259
(dp1260
S'ADJ'
p1261
F1.0
s(lp1262
g130
atp1263
a(S'sklada'
p1264
(dp1265
S'VERB'
p1266
F0.000382
sS'NOUN'
p1267
F0.999619
s(lp1268
g136
atp1269
a(S'za'
p1270
(dp1271
S'ADV'
p1272
F1.1e-05
sg908
F2e-06
sS'ADP'
p1273
F0.999986
s(lp1274
g142
atp1275
a(S'pospe\xc5\xa1evanje'
p1276
(dp1277
S'NOUN'
p1278
F1.0
s(lp1279
g148
atp1280
a(S'raziskav'
p1281
(dp1282
S'NOUN'
p1283
F1.0
s(lp1284
g162
atp1285
a(S'izdelkov'
p1286
(dp1287
S'NOUN'
p1288
F1.0
s(lp1289
g193
atp1290
a(g44
(dp1291
g46
F1.0
s(lp1292
tp1293
a(S'ki'
p1294
(dp1295
S'CONJ'
p1296
F1.0
s(lp1297
g348
atp1298
a(S'so'
p1299
(dp1300
g908
F6e-06
sS'VERB'
p1301
F0.999994
s(lp1302
g355
atp1303
a(S'primerni'
p1304
(dp1305
S'ADJ'
p1306
F1.0
s(lp1307
g199
atp1308
a(S'za'
p1309
(dp1310
S'ADV'
p1311
F0.005634
sg908
F1e-05
sS'ADP'
p1312
F0.994356
s(lp1313
g205
atp1314
a(S'manj'
p1315
(dp1316
S'ADV'
p1317
F1.0
s(lp1318
tp1319
a(S'pomembne'
p1320
(dp1321
S'ADJ'
p1322
F1.0
s(lp1323
g218
atp1324
a(S'kulture'
p1325
(dp1326
S'NOUN'
p1327
F1.0
s(lp1328
g211
atp1329
a(g46
(dp1330
g46
F1.0
s(lp1331
g46
atp1332
asS'es'
p1333
(lp1334
(S'de'
p1335
(dp1336
S'ADV'
p1337
F1.0
s(lp1338
g34
atp1339
a(S'hecho'
p1340
(dp1341
S'ADV'
p1342
F1.0
s(lp1343
g251
atp1344
a(S'sucede'
p1345
(dp1346
S'VERB'
p1347
F1.0
s(lp1348
g42
atp1349
a(S'lo'
p1350
(dp1351
S'PRON'
p1352
F0.0
sS'DET'
p1353
F1.0
s(lp1354
tp1355
a(S'contrario'
p1356
(dp1357
S'NOUN'
p1358
F0.256691
sS'ADJ'
p1359
F0.743309
s(lp1360
g42
atp1361
a(g44
(dp1362
g46
F1.0
s(lp1363
g44
atp1364
a(S'puesto'
p1365
(dp1366
S'CONJ'
p1367
F1.0
s(lp1368
g53
atp1369
a(S'que'
p1370
(dp1371
S'CONJ'
p1372
F1.0
s(lp1373
g264
atp1374
a(S'el'
p1375
(dp1376
S'PRON'
p1377
F0.000106
sS'DET'
p1378
F0.999894
s(lp1379
g61
atp1380
a(S'reglamento'
p1381
(dp1382
S'VERB'
p1383
F0.000155
sS'NOUN'
p1384
F0.999845
s(lp1385
g67
atp1386
a(S'dispone'
p1387
(dp1388
S'VERB'
p1389
F1.0
s(lp1390
g73
atp1391
a(S'la'
p1392
(dp1393
g908
F0.0
sS'PRON'
p1394
F0.0
sS'DET'
p1395
F1.0
sS'NOUN'
p1396
F0.0
s(lp1397
g81
atp1398
a(S'introducci\xc3\xb3n'
p1399
(dp1400
S'NOUN'
p1401
F1.0
s(lp1402
g102
atp1403
a(S'de'
p1404
(dp1405
g908
F0.0
sS'CONJ'
p1406
F1.7e-05
sS'ADP'
p1407
F0.999982
s(lp1408
g110
atp1409
a(S'un'
p1410
(dp1411
g908
F2e-06
sS'DET'
p1412
F0.999998
s(lp1413
g118
atp1414
a(S'fondo'
p1415
(dp1416
S'NOUN'
p1417
F1.0
s(lp1418
g136
atp1419
a(S'especial'
p1420
(dp1421
S'ADJ'
p1422
F1.0
s(lp1423
g130
atp1424
a(S'para'
p1425
(dp1426
S'CONJ'
p1427
F0.002185
sS'ADP'
p1428
F0.997815
s(lp1429
g142
atp1430
a(S'el'
p1431
(dp1432
S'PRON'
p1433
F0.000246
sS'DET'
p1434
F0.999754
s(lp1435
g320
atp1436
a(S'fomento'
p1437
(dp1438
S'VERB'
p1439
F0.000572
sS'NOUN'
p1440
F0.999428
s(lp1441
g148
atp1442
a(S'de'
p1443
(dp1444
g908
F0.0
sS'CONJ'
p1445
F1.7e-05
sS'ADP'
p1446
F0.999983
s(lp1447
g330
atp1448
a(S'la'
p1449
(dp1450
g908
F0.0
sS'PRON'
p1451
F0.0
sS'DET'
p1452
F0.999999
sS'NOUN'
p1453
F0.0
s(lp1454
tp1455
a(S'investigaci\xc3\xb3n'
p1456
(dp1457
S'NOUN'
p1458
F1.0
s(lp1459
g162
atp1460
a(S'sobre'
p1461
(dp1462
S'NOUN'
p1463
F0.0
sS'ADP'
p1464
F1.0
s(lp1465
g175
atp1466
a(S'productos'
p1467
(dp1468
S'NOUN'
p1469
F1.0
s(lp1470
g193
atp1471
a(S'que'
p1472
(dp1473
g908
F3e-06
sS'CONJ'
p1474
F0.999997
s(lp1475
g348
atp1476
a(S'resulten'
p1477
(dp1478
S'VERB'
p1479
F1.0
s(lp1480
g355
atp1481
a(S'apropiados'
p1482
(dp1483
S'ADJ'
p1484
F1.0
s(lp1485
g199
atp1486
a(S'para'
p1487
(dp1488
S'CONJ'
p1489
F0.053728
sS'ADP'
p1490
F0.946272
s(lp1491
g205
atp1492
a(S'cultivos'
p1493
(dp1494
S'NOUN'
p1495
F1.0
s(lp1496
g211
atp1497
a(S'menores'
p1498
(dp1499
S'ADJ'
p1500
F1.0
s(lp1501
g218
atp1502
a(g46
(dp1503
g46
F1.0
s(lp1504
g46
atp1505
as.