(dp0
S'fr'
p1
(lp2
(S'ce'
p3
(dp4
S'PRON'
p5
F1.0
s(lp6
tp7
a(S'qui'
p8
(dp9
S'PRON'
p10
F1.0
s(lp11
S'what'
p12
atp13
a(S'est'
p14
(dp15
S'VERB'
p16
F0.999826
sS'NOUN'
p17
F0.000174
s(lp18
S'is'
p19
atp20
a(S'en'
p21
(dp22
S'PRON'
p23
F0.001467
sS'ADP'
p24
F0.998533
s(lp25
tp26
a(S'jeu'
p27
(dp28
S'NOUN'
p29
F1.0
s(lp30
S'about'
p31
atp32
a(S"aujourd'"
p33
(dp34
S'NOUN'
p35
F0.049041
sS'VERB'
p36
F0.08583700000000001
sS'ADJ'
p37
F0.865121
s(lp38
tp39
a(S'hui'
p40
(dp41
S'ADJ'
p42
F0.080146
sS'VERB'
p43
F0.36491399999999996
sS'NOUN'
p44
F0.554941
s(lp45
S'today'
p46
atp47
a(S','
p48
(dp49
S'.'
p50
F1.0
s(lp51
tp52
a(S"c'"
p53
(dp54
S'ADJ'
p55
F0.13429
sS'VERB'
p56
F0.638201
sS'NOUN'
p57
F0.227509
s(lp58
tp59
a(S'est'
p60
(dp61
S'VERB'
p62
F0.999409
sS'NOUN'
p63
F0.000591
s(lp64
S'is'
p65
atp66
a(S'les'
p67
(dp68
S'PRON'
p69
F0.000124
sS'DET'
p70
F0.999843
sS'ADP'
p71
F3.3e-05
s(lp72
S'the'
p73
atp74
a(S'rapports'
p75
(dp76
S'NOUN'
p77
F1.0
s(lp78
S'relationship'
p79
atp80
a(S'entre'
p81
(dp82
S'VERB'
p83
F0.000526
sS'ADP'
p84
F0.999474
s(lp85
S'between'
p86
atp87
a(S'les'
p88
(dp89
S'PRON'
p90
F5.6e-05
sS'DET'
p91
F0.999943
sS'ADP'
p92
F2e-06
s(lp93
S'the'
p94
atp95
a(S'compagnies'
p96
(dp97
S'NOUN'
p98
F1.0
s(lp99
S'airlines'
p100
atp101
a(S'et'
p102
(dp103
S'CONJ'
p104
F1.0
s(lp105
S'and'
p106
atp107
a(S"l'"
p108
(dp109
S'NOUN'
p110
F0.050387
sS'VERB'
p111
F0.8915730000000001
sS'ADJ'
p112
F0.05804
s(lp113
S'the'
p114
atp115
a(S'information'
p116
(dp117
S'NOUN'
p118
F1.0
s(lp119
S'information'
p120
atp121
a(S"qu'"
p122
(dp123
S'NOUN'
p124
F0.024969
sS'VERB'
p125
F0.27500100000000005
sS'ADJ'
p126
F0.700029
s(lp127
tp128
a(S'elles'
p129
(dp130
S'PRON'
p131
F1.0
s(lp132
S'they'
p133
atp134
a(S'donnent'
p135
(dp136
S'VERB'
p137
F1.0
s(lp138
S'give'
p139
atp140
a(S'de'
p141
(dp142
S'ADP'
p143
F1.0
s(lp144
S'about'
p145
atp146
a(S'leurs'
p147
(dp148
S'PRON'
p149
F1.0
s(lp150
S'their'
p151
atp152
a(S'vols'
p153
(dp154
S'NOUN'
p155
F1.0
s(lp156
S'flights'
p157
atp158
a(g48
(dp159
g50
F1.0
s(lp160
g48
atp161
a(S'notamment'
p162
(dp163
S'ADV'
p164
F1.0
s(lp165
S'particularly'
p166
atp167
a(S'aux'
p168
(dp169
S'ADP'
p170
F1.0
s(lp171
S'to'
p172
atp173
a(S'agences'
p174
(dp175
S'VERB'
p176
F0.0
sS'NOUN'
p177
F1.0
s(lp178
S'agents'
p179
atp180
a(S'de'
p181
(dp182
S'ADP'
p183
F1.0
s(lp184
tp185
a(S'voyage'
p186
(dp187
S'VERB'
p188
F9.2e-05
sS'NOUN'
p189
F0.999908
s(lp190
S'travel'
p191
atp192
a(g50
(dp193
g50
F1.0
s(lp194
g50
atp195
asS'en'
p196
(lp197
(g12
(dp198
S'PRON'
p199
F0.997513
sS'DET'
p200
F0.002487
s(lp201
g12
atp202
a(S'this'
p203
(dp204
S'ADV'
p205
F0.000227
sS'NOUN'
p206
F0.000292
sS'DET'
p207
F0.999481
s(lp208
g203
atp209
a(g19
(dp210
S'VERB'
p211
F1.0
s(lp212
g19
atp213
a(g31
(dp214
S'ADV'
p215
F0.701496
sS'ADP'
p216
F0.298504
s(lp217
g31
atp218
a(g46
(dp219
S'ADV'
p220
F0.022794
sS'NOUN'
p221
F0.977206
s(lp222
g46
atp223
a(g65
(dp224
S'VERB'
p225
F1.0
s(lp226
g65
atp227
a(g73
(dp228
S'NOUN'
p229
F1e-06
sS'DET'
p230
F0.999999
s(lp231
g73
atp232
a(g79
(dp233
S'NOUN'
p234
F1.0
s(lp235
g79
atp236
a(g86
(dp237
S'ADV'
p238
F0.000132
sS'ADP'
p239
F0.999868
s(lp240
g86
atp241
a(g94
(dp242
S'NOUN'
p243
F1.1e-05
sS'DET'
p244
F0.999989
s(lp245
g94
atp246
a(g100
(dp247
S'NOUN'
p248
F1.0
s(lp249
g100
atp250
a(g106
(dp251
S'CONJ'
p252
F1.0
sS'NOUN'
p253
F0.0
s(lp254
g106
atp255
a(g114
(dp256
S'NOUN'
p257
F2e-06
sS'DET'
p258
F0.999998
s(lp259
g114
atp260
a(g120
(dp261
S'NOUN'
p262
F1.0
s(lp263
g120
atp264
a(g133
(dp265
S'PRON'
p266
F1.0
s(lp267
g133
atp268
a(g139
(dp269
S'VERB'
p270
F1.0
s(lp271
g139
atp272
a(S'out'
p273
(dp274
S'ADV'
p275
F0.139858
sS'NOUN'
p276
F0.00036
sS'ADP'
p277
F0.02851
sS'PRT'
p278
F0.830946
sS'VERB'
p279
F8e-06
sS'ADJ'
p280
F0.000318
s(lp281
g273
atp282
a(g145
(dp283
S'ADV'
p284
F0.104692
sS'ADP'
p285
F0.895308
s(lp286
g145
atp287
a(g151
(dp288
S'PRON'
p289
F1.0
s(lp290
g151
atp291
a(g157
(dp292
S'VERB'
p293
F1e-06
sS'NOUN'
p294
F0.999999
s(lp295
g157
atp296
a(g48
(dp297
g50
F1.0
s(lp298
g48
atp299
a(g166
(dp300
S'ADV'
p301
F1.0
s(lp302
g166
atp303
a(g172
(dp304
S'ADV'
p305
F1e-06
sS'PRT'
p306
F0.999998
sS'ADP'
p307
F1e-06
s(lp308
g172
atp309
a(g191
(dp310
S'VERB'
p311
F0.932505
sS'NOUN'
p312
F0.067495
s(lp313
g191
atp314
a(g179
(dp315
S'NOUN'
p316
F1.0
s(lp317
g179
atp318
a(g50
(dp319
g50
F1.0
s(lp320
g50
atp321
asS'nl'
p322
(lp323
(S'waar'
p324
(dp325
S'ADV'
p326
F1.0
sS'ADJ'
p327
F0.0
sS'NOUN'
p328
F0.0
s(lp329
g12
atp330
a(S'het'
p331
(dp332
S'PRON'
p333
F0.843951
sS'DET'
p334
F0.156049
s(lp335
g203
atp336
a(S'vandaag'
p337
(dp338
S'ADV'
p339
F1.0
s(lp340
g46
atp341
a(S'om'
p342
(dp343
S'ADV'
p344
F0.066448
sS'CONJ'
p345
F0.93349
sS'ADP'
p346
F6.2e-05
s(lp347
g31
atp348
a(S'gaat'
p349
(dp350
S'VERB'
p351
F1.0
s(lp352
g19
atp353
a(g48
(dp354
g50
F1.0
s(lp355
tp356
a(S'is'
p357
(dp358
S'VERB'
p359
F1.0
s(lp360
g65
atp361
a(S'de'
p362
(dp363
S'DET'
p364
F1.0
s(lp365
g73
atp366
a(S'relatie'
p367
(dp368
S'NOUN'
p369
F1.0
s(lp370
g79
atp371
a(S'tussen'
p372
(dp373
S'ADP'
p374
F1.0
s(lp375
g86
atp376
a(S'de'
p377
(dp378
S'DET'
p379
F1.0
s(lp380
g94
atp381
a(S'luchtvaartmaatschappijen'
p382
(dp383
S'NOUN'
p384
F1.0
s(lp385
tp386
a(S'onderling'
p387
(dp388
S'ADJ'
p389
F1.0
s(lp390
g100
atp391
a(S'en'
p392
(dp393
S'CONJ'
p394
F1.0
s(lp395
g106
atp396
a(S'de'
p397
(dp398
S'DET'
p399
F1.0
s(lp400
g114
atp401
a(S'informatie'
p402
(dp403
S'NOUN'
p404
F1.0
s(lp405
g120
atp406
a(S'die'
p407
(dp408
S'PRON'
p409
F0.9999990000000001
s(lp410
tp411
a(S'ze'
p412
(dp413
S'PRON'
p414
F1.0
s(lp415
g133
atp416
a(S'over'
p417
(dp418
S'ADV'
p419
F0.055745
sS'ADP'
p420
F0.944255
s(lp421
g145
atp422
a(S'hun'
p423
(dp424
S'PRON'
p425
F1.0
s(lp426
g151
atp427
a(S'vluchten'
p428
(dp429
S'VERB'
p430
F0.001989
sS'NOUN'
p431
F0.998011
s(lp432
tp433
a(S'vrijgeven'
p434
(dp435
S'VERB'
p436
F0.996081
sS'NOUN'
p437
F0.003919
s(lp438
g157
atp439
a(g48
(dp440
g50
F1.0
s(lp441
g48
atp442
a(S'met'
p443
(dp444
S'ADP'
p445
F1.0
s(lp446
tp447
a(S'name'
p448
(dp449
S'NOUN'
p450
F1.0
s(lp451
g166
atp452
a(S'aan'
p453
(dp454
S'ADV'
p455
F0.0128
sS'ADP'
p456
F0.9872
s(lp457
g172
atp458
a(S'reisbureaus'
p459
(dp460
S'NOUN'
p461
F1.0
s(lp462
g179
atp463
a(g50
(dp464
g50
F1.0
s(lp465
g50
atp466
asS'de'
p467
(lp468
(S'worum'
p469
(dp470
S'PRON'
p471
F1.0
s(lp472
g12
atp473
a(S'es'
p474
(dp475
S'PRON'
p476
F1.0
s(lp477
g203
atp478
a(S'heute'
p479
(dp480
S'ADV'
p481
F0.999994
sS'VERB'
p482
F6e-06
s(lp483
g46
atp484
a(S'geht'
p485
(dp486
S'VERB'
p487
F1.0
s(lp488
g65
atp489
a(g48
(dp490
g50
F1.0
s(lp491
tp492
a(S'das'
p493
(dp494
S'PRON'
p495
F0.9988189999999999
s(lp496
g73
atp497
a(S'sind'
p498
(dp499
S'VERB'
p500
F1.0
s(lp501
g19
atp502
a(S'die'
p503
(dp504
S'PRON'
p505
F0.002954
sS'DET'
p506
F0.997043
s(lp507
g31
atp508
a(S'beziehungen'
p509
(dp510
S'ADJ'
p511
F0.022683
sS'NOUN'
p512
F0.96214
s(lp513
g79
atp514
a(S'zwischen'
p515
(dp516
S'PRT'
p517
F3e-06
sS'ADP'
p518
F0.999997
s(lp519
g86
atp520
a(S'den'
p521
(dp522
S'PRON'
p523
F0.000111
sS'DET'
p524
F0.999888
s(lp525
g94
atp526
a(S'fluggesellschaften'
p527
(dp528
S'NOUN'
p529
F0.02518
sS'ADJ'
p530
F0.974128
s(lp531
g100
atp532
a(S'und'
p533
(dp534
S'CONJ'
p535
F1.0
s(lp536
g106
atp537
a(S'der'
p538
(dp539
S'PRON'
p540
F0.005167
sS'DET'
p541
F0.991681
s(lp542
g114
atp543
a(S'information'
p544
(dp545
S'ADJ'
p546
F0.153656
sS'NOUN'
p547
F0.802886
s(lp548
g120
atp549
a(g48
(dp550
g50
F1.0
s(lp551
tp552
a(S'die'
p553
(dp554
S'PRON'
p555
F0.999622
sS'DET'
p556
F0.000205
s(lp557
tp558
a(S'sie'
p559
(dp560
S'PRON'
p561
F1.0
s(lp562
g133
atp563
a(S'zu'
p564
(dp565
S'PRT'
p566
F0.005073
sS'ADP'
p567
F0.993072
s(lp568
g145
atp569
a(S'ihren'
p570
(dp571
S'PRON'
p572
F1.0
s(lp573
g151
atp574
a(S'fl\xc3\xbcgen'
p575
(dp576
S'ADJ'
p577
F0.022749
sS'NOUN'
p578
F0.968945
s(lp579
g157
atp580
a(S'geben'
p581
(dp582
S'VERB'
p583
F1.0
s(lp584
g139
atp585
a(g48
(dp586
g50
F1.0
s(lp587
g48
atp588
a(S'vor'
p589
(dp590
S'ADV'
p591
F0.058088
sS'ADP'
p592
F0.941584
s(lp593
tp594
a(S'allem'
p595
(dp596
S'PRON'
p597
F1.0
s(lp598
g166
atp599
a(S'an'
p600
(dp601
S'PRT'
p602
F0.045988
sS'ADP'
p603
F0.953255
s(lp604
g172
atp605
a(S'reiseb\xc3\xbcros'
p606
(dp607
S'ADJ'
p608
F0.000881
sS'NOUN'
p609
F0.998396
s(lp610
g179
atp611
a(g50
(dp612
g50
F1.0
s(lp613
g50
atp614
asS'it'
p615
(lp616
(S'la'
p617
(dp618
S'PRON'
p619
F0.009437
sS'DET'
p620
F0.990563
s(lp621
g203
atp622
a(S'posta'
p623
(dp624
S'ADJ'
p625
F0.059408
sS'VERB'
p626
F0.102846
sS'NOUN'
p627
F0.837745
s(lp628
g19
atp629
a(S'in'
p630
(dp631
S'ADP'
p632
F1.0
s(lp633
tp634
a(S'gioco'
p635
(dp636
S'VERB'
p637
F0.000666
sS'NOUN'
p638
F0.999334
s(lp639
g31
atp640
a(S'oggi'
p641
(dp642
S'ADV'
p643
F0.998473
sS'NOUN'
p644
F0.001527
s(lp645
g46
atp646
a(S'\xc3\xa8'
p647
(dp648
S'VERB'
p649
F1.0
s(lp650
g65
atp651
a(S'la'
p652
(dp653
S'PRON'
p654
F0.0
sS'DET'
p655
F1.0
s(lp656
g73
atp657
a(S'relazione'
p658
(dp659
S'NOUN'
p660
F1.0
s(lp661
g79
atp662
a(S'tra'
p663
(dp664
S'CONJ'
p665
F0.001568
sS'ADP'
p666
F0.998432
s(lp667
g86
atp668
a(S'le'
p669
(dp670
S'PRON'
p671
F7.2e-05
sS'DET'
p672
F0.999928
s(lp673
g94
atp674
a(S'compagnie'
p675
(dp676
S'NOUN'
p677
F1.0
s(lp678
tp679
a(S'aeree'
p680
(dp681
S'ADJ'
p682
F1.0
s(lp683
g100
atp684
a(S'e'
p685
(dp686
S'CONJ'
p687
F1.0
s(lp688
g106
atp689
a(S'le'
p690
(dp691
S'PRON'
p692
F0.000149
sS'DET'
p693
F0.999851
s(lp694
g114
atp695
a(S'informazioni'
p696
(dp697
S'NOUN'
p698
F1.0
s(lp699
g120
atp700
a(S'che'
p701
(dp702
S'PRON'
p703
F0.960049
sS'CONJ'
p704
F0.0391
sS'ADJ'
p705
F0.000851
s(lp706
g133
atp707
a(S'forniscono'
p708
(dp709
S'VERB'
p710
F1.0
s(lp711
g139
atp712
a(S'circa'
p713
(dp714
S'ADV'
p715
F0.962915
sS'ADP'
p716
F0.037085
s(lp717
g145
atp718
a(S'i'
p719
(dp720
S'DET'
p721
F1.0
s(lp722
tp723
a(S'loro'
p724
(dp725
S'PRON'
p726
F1.0
s(lp727
g151
atp728
a(S'voli'
p729
(dp730
S'VERB'
p731
F0.0012139999999999998
sS'NOUN'
p732
F0.998786
s(lp733
g157
atp734
a(g48
(dp735
g50
F1.0
s(lp736
g48
atp737
a(S'in'
p738
(dp739
S'ADP'
p740
F1.0
s(lp741
tp742
a(S'particolare'
p743
(dp744
S'NOUN'
p745
F0.279001
sS'ADJ'
p746
F0.720999
s(lp747
g166
atp748
a(S'alle'
p749
(dp750
S'ADP'
p751
F1.0
s(lp752
g172
atp753
a(S'agenzie'
p754
(dp755
S'NOUN'
p756
F1.0
s(lp757
g179
atp758
a(S'di'
p759
(dp760
S'CONJ'
p761
F4e-06
sS'ADP'
p762
F0.999996
s(lp763
tp764
a(S'viaggio'
p765
(dp766
S'VERB'
p767
F5e-06
sS'NOUN'
p768
F0.999995
s(lp769
g191
atp770
a(g50
(dp771
g50
F1.0
s(lp772
g50
atp773
asS'sk'
p774
(lp775
(S'o'
p776
(dp777
S'X'
p778
F0.000849
sS'CONJ'
p779
F0.000147
sS'NOUN'
p780
F1.6000000000000003e-05
sS'ADP'
p781
F0.998989
s(lp782
g31
atp783
a(S'\xc4\x8do'
p784
(dp785
S'PRON'
p786
F0.992541
sS'CONJ'
p787
F0.000662
sg778
F0.006796999999999999
s(lp788
g12
atp789
a(S'dnes'
p790
(dp791
S'ADV'
p792
F0.999785
sg778
F0.000215
s(lp793
g46
atp794
a(S'ide'
p795
(dp796
S'VERB'
p797
F1.0
s(lp798
g19
atp799
a(g48
(dp800
g50
F1.0
s(lp801
tp802
a(S'je'
p803
(dp804
S'PRON'
p805
F0.000275
sS'VERB'
p806
F0.999454
sg778
F0.000271
s(lp807
g65
atp808
a(S'vz\xc5\xa5ah'
p809
(dp810
S'NOUN'
p811
F1.0
s(lp812
g79
atp813
a(S'medzi'
p814
(dp815
S'NOUN'
p816
F0.000763
sS'ADP'
p817
F0.999237
s(lp818
g86
atp819
a(S'leteck\xc3\xbdmi'
p820
(dp821
S'ADJ'
p822
F1.0
s(lp823
tp824
a(S'spolo\xc4\x8dnos\xc5\xa5ami'
p825
(dp826
S'NOUN'
p827
F1.0
s(lp828
g100
atp829
a(S'a'
p830
(dp831
g778
F0.000697
sS'CONJ'
p832
F0.998698
sS'NOUN'
p833
F5.7e-05
sS'ADP'
p834
F0.000484
sS'PRT'
p835
F6.4e-05
s(lp836
g106
atp837
a(S'inform\xc3\xa1ciami'
p838
(dp839
S'NOUN'
p840
F1.0
s(lp841
g120
atp842
a(g48
(dp843
g50
F1.0
s(lp844
tp845
a(S'ktor\xc3\xa9'
p846
(dp847
S'PRON'
p848
F1.0
s(lp849
g133
atp850
a(S'poskytuj\xc3\xba'
p851
(dp852
S'VERB'
p853
F1.0
s(lp854
g139
atp855
a(g776
(dp856
g778
F0.00014099999999999998
sS'CONJ'
p857
F6.2e-05
sS'NOUN'
p858
F1.6e-05
sS'ADP'
p859
F0.99978
s(lp860
g145
atp861
a(S'svojich'
p862
(dp863
S'PRON'
p864
F1.0
s(lp865
g151
atp866
a(S'letoch'
p867
(dp868
S'NOUN'
p869
F1.0
s(lp870
g157
atp871
a(g48
(dp872
g50
F1.0
s(lp873
g48
atp874
a(S'najm\xc3\xa4'
p875
(dp876
g778
F1.0
s(lp877
g166
atp878
a(S'cestovn\xc3\xbdm'
p879
(dp880
S'NOUN'
p881
F0.06274
sS'ADJ'
p882
F0.937261
s(lp883
g191
atp884
a(S'kancel\xc3\xa1ri\xc3\xa1m'
p885
(dp886
S'NOUN'
p887
F1.0
s(lp888
g179
atp889
a(g50
(dp890
g50
F1.0
s(lp891
g50
atp892
asS'pl'
p893
(lp894
(S'dzisiaj'
p895
(dp896
S'ADV'
p897
F0.991355
sS'NOUN'
p898
F0.008645
s(lp899
g46
atp900
a(S'chodzi'
p901
(dp902
S'VERB'
p903
F1.0
s(lp904
g65
atp905
a(g776
(dp906
g778
F0.002685
sS'VERB'
p907
F1.8e-05
sS'NOUN'
p908
F1.6e-05
sS'ADP'
p909
F0.99725
sS'PRT'
p910
F3.2e-05
s(lp911
g31
atp912
a(S'zwi\xc4\x85zek'
p913
(dp914
S'NOUN'
p915
F1.0
s(lp916
g79
atp917
a(S'mi\xc4\x99dzy'
p918
(dp919
S'ADP'
p920
F1.0
s(lp921
g86
atp922
a(S'liniami'
p923
(dp924
S'NOUN'
p925
F1.0
s(lp926
tp927
a(S'lotniczymi'
p928
(dp929
S'ADV'
p930
F0.000158
sS'NOUN'
p931
F0.004374999999999999
sS'VERB'
p932
F0.09387200000000001
sS'ADJ'
p933
F0.901594
s(lp934
g100
atp935
a(g719
(dp936
S'PRT'
p937
F0.003106
sS'CONJ'
p938
F0.996861
sS'NOUN'
p939
F1.2e-05
sg778
F1e-06
sS'PRON'
p940
F1.9e-05
s(lp941
g106
atp942
a(S'informacj\xc4\x85'
p943
(dp944
S'NOUN'
p945
F1.0
s(lp946
g120
atp947
a(g48
(dp948
g778
F0.0
sg50
F1.0
s(lp949
tp950
a(S'jak\xc4\x85'
p951
(dp952
S'ADJ'
p953
F1.0
s(lp954
g133
atp955
a(S'podaj\xc4\x85'
p956
(dp957
S'VERB'
p958
F1.0
s(lp959
g139
atp960
a(S'na'
p961
(dp962
S'PRT'
p963
F1.5e-05
sS'VERB'
p964
F0.0
sS'NOUN'
p965
F0.0
sS'ADP'
p966
F0.999981
sg778
F3e-06
s(lp967
g273
atp968
a(S'temat'
p969
(dp970
S'NOUN'
p971
F1.0
s(lp972
g145
atp973
a(S'swoich'
p974
(dp975
S'NOUN'
p976
F0.000224
sS'ADJ'
p977
F0.9997739999999999
s(lp978
g151
atp979
a(S'lot\xc3\xb3w'
p980
(dp981
S'NOUN'
p982
F1.0
s(lp983
g157
atp984
a(g48
(dp985
g778
F0.0
sg50
F1.0
s(lp986
g48
atp987
a(S'zw\xc5\x82aszcza'
p988
(dp989
S'PRT'
p990
F1.0
s(lp991
g166
atp992
a(S'biurom'
p993
(dp994
S'ADJ'
p995
F0.058231
sS'NOUN'
p996
F0.941769
s(lp997
g179
atp998
a(S'podr\xc3\xb3\xc5\xbcy'
p999
(dp1000
S'NOUN'
p1001
F1.0
s(lp1002
g191
atp1003
a(g50
(dp1004
g50
F1.0
s(lp1005
g50
atp1006
asS'sl'
p1007
(lp1008
(S'danes'
p1009
(dp1010
S'ADV'
p1011
F1.0
s(lp1012
g46
atp1013
a(S'gre'
p1014
(dp1015
S'VERB'
p1016
F1.0
s(lp1017
g65
atp1018
a(S'za'
p1019
(dp1020
S'ADV'
p1021
F1.3e-05
sg778
F5e-06
sS'ADP'
p1022
F0.999982
s(lp1023
g73
atp1024
a(S'razmerje'
p1025
(dp1026
S'NOUN'
p1027
F1.0
s(lp1028
g79
atp1029
a(S'med'
p1030
(dp1031
S'NOUN'
p1032
F1e-06
sS'ADP'
p1033
F0.999999
s(lp1034
g86
atp1035
a(S'letalskimi'
p1036
(dp1037
S'ADJ'
p1038
F1.0
s(lp1039
tp1040
a(S'dru\xc5\xbebami'
p1041
(dp1042
S'NOUN'
p1043
F1.0
s(lp1044
g100
atp1045
a(S'in'
p1046
(dp1047
S'ADV'
p1048
F2.5e-05
sg778
F1.3e-05
sS'CONJ'
p1049
F0.999959
sS'NOUN'
p1050
F4e-06
s(lp1051
g106
atp1052
a(S'podatki'
p1053
(dp1054
S'NOUN'
p1055
F1.0
s(lp1056
g120
atp1057
a(g48
(dp1058
g50
F1.0
s(lp1059
tp1060
a(S'ki'
p1061
(dp1062
S'CONJ'
p1063
F1.0
s(lp1064
tp1065
a(S'jih'
p1066
(dp1067
S'PRON'
p1068
F0.999999
s(lp1069
g133
atp1070
a(S'dajejo'
p1071
(dp1072
S'VERB'
p1073
F1.0
s(lp1074
g139
atp1075
a(g776
(dp1076
S'NOUN'
p1077
F8e-06
sS'ADP'
p1078
F0.999992
s(lp1079
g145
atp1080
a(S'svojih'
p1081
(dp1082
S'PRON'
p1083
F0.9999999999999999
s(lp1084
g151
atp1085
a(S'letih'
p1086
(dp1087
S'NOUN'
p1088
F1.0
s(lp1089
g157
atp1090
a(g48
(dp1091
g50
F1.0
s(lp1092
g48
atp1093
a(S'zlasti'
p1094
(dp1095
S'ADV'
p1096
F0.015237
sS'PRT'
p1097
F0.984763
s(lp1098
g166
atp1099
a(S'potovalnim'
p1100
(dp1101
S'ADV'
p1102
F0.000388
sS'NOUN'
p1103
F0.0026669999999999992
sS'VERB'
p1104
F0.09464700000000002
sS'ADJ'
p1105
F0.9022989999999999
s(lp1106
g191
atp1107
a(S'agencijam'
p1108
(dp1109
S'NOUN'
p1110
F1.0
s(lp1111
g179
atp1112
a(g50
(dp1113
g50
F1.0
s(lp1114
g50
atp1115
asS'es'
p1116
(lp1117
(S'hoy'
p1118
(dp1119
S'ADV'
p1120
F1.0
s(lp1121
g46
atp1122
a(S'estamos'
p1123
(dp1124
S'VERB'
p1125
F1.0
s(lp1126
g203
atp1127
a(S'tratando'
p1128
(dp1129
S'VERB'
p1130
F1.0
s(lp1131
g19
atp1132
a(S'de'
p1133
(dp1134
g778
F0.0
sS'CONJ'
p1135
F1.6e-05
sS'ADP'
p1136
F0.999984
s(lp1137
g31
atp1138
a(S'la'
p1139
(dp1140
S'NOUN'
p1141
F0.0
sS'PRON'
p1142
F0.0
sS'DET'
p1143
F0.999999
sg778
F0.0
s(lp1144
g73
atp1145
a(S'relaci\xc3\xb3n'
p1146
(dp1147
S'NOUN'
p1148
F1.0
s(lp1149
g79
atp1150
a(S'entre'
p1151
(dp1152
g778
F3e-06
sS'ADP'
p1153
F0.999997
s(lp1154
g86
atp1155
a(S'las'
p1156
(dp1157
S'PRON'
p1158
F0.0
sS'DET'
p1159
F1.0
s(lp1160
g94
atp1161
a(S'l\xc3\xadneas'
p1162
(dp1163
S'NOUN'
p1164
F1.0
s(lp1165
tp1166
a(S'a\xc3\xa9reas'
p1167
(dp1168
S'ADJ'
p1169
F1.0
s(lp1170
g100
atp1171
a(S'y'
p1172
(dp1173
g778
F0.000117
sS'CONJ'
p1174
F0.999883
s(lp1175
g106
atp1176
a(S'la'
p1177
(dp1178
S'PRON'
p1179
F0.000591
sS'DET'
p1180
F0.999408
sS'NOUN'
p1181
F0.0
sg778
F0.0
s(lp1182
g114
atp1183
a(S'informaci\xc3\xb3n'
p1184
(dp1185
S'NOUN'
p1186
F1.0
s(lp1187
g120
atp1188
a(S'que'
p1189
(dp1190
g778
F3e-06
sS'CONJ'
p1191
F0.999997
s(lp1192
g133
atp1193
a(S'dan'
p1194
(dp1195
S'VERB'
p1196
F1.0
s(lp1197
g139
atp1198
a(S'acerca'
p1199
(dp1200
S'ADP'
p1201
F1.0
s(lp1202
tp1203
a(S'de'
p1204
(dp1205
S'ADP'
p1206
F1.0
s(lp1207
g145
atp1208
a(S'sus'
p1209
(dp1210
S'PRON'
p1211
F1.0
s(lp1212
g151
atp1213
a(S'vuelos'
p1214
(dp1215
S'NOUN'
p1216
F1.0
s(lp1217
g157
atp1218
a(g48
(dp1219
g50
F1.0
s(lp1220
g48
atp1221
a(S'especialmente'
p1222
(dp1223
S'ADV'
p1224
F1.0
s(lp1225
g166
atp1226
a(g830
(dp1227
g778
F0.0021
sS'CONJ'
p1228
F1.9e-05
sS'ADP'
p1229
F0.997882
s(lp1230
g172
atp1231
a(S'los'
p1232
(dp1233
S'PRON'
p1234
F0.0
sS'DET'
p1235
F1.0
s(lp1236
tp1237
a(S'agentes'
p1238
(dp1239
S'NOUN'
p1240
F1.0
s(lp1241
g179
atp1242
a(S'de'
p1243
(dp1244
g778
F4.7e-05
sS'CONJ'
p1245
F0.000456
sS'ADP'
p1246
F0.999497
s(lp1247
tp1248
a(S'viajes'
p1249
(dp1250
S'VERB'
p1251
F0.001019
sS'NOUN'
p1252
F0.998981
s(lp1253
g191
atp1254
a(g50
(dp1255
g50
F1.0
s(lp1256
g50
atp1257
as.