(dp0
S'fr'
p1
(lp2
(S'par'
p3
(dp4
S'NOUN'
p5
F7.6e-05
sS'ADP'
p6
F0.999924
s(lp7
S'i'
p8
atp9
a(S'\xc3\xa9crit'
p10
(dp11
S'VERB'
p12
F0.035327000000000004
sS'NOUN'
p13
F0.964674
s(lp14
S'voted'
p15
atp16
a(S'.'
p17
(dp18
g17
F1.0
s(lp19
g15
atp20
a(S'-'
p21
(dp22
g17
F1.0
s(lp23
g15
atp24
a(S"j'"
p25
(dp26
S'ADJ'
p27
F0.280608
sS'VERB'
p28
F0.007367
sS'NOUN'
p29
F0.681695
sS'X'
p30
F0.03033
s(lp31
g15
atp32
a(S'ai'
p33
(dp34
S'VERB'
p35
F1.0
s(lp36
tp37
a(S'vot\xc3\xa9'
p38
(dp39
S'VERB'
p40
F1.0
s(lp41
g15
atp42
a(S'les'
p43
(dp44
S'PRON'
p45
F0.000203
sS'DET'
p46
F0.999599
sS'ADP'
p47
F0.000198
s(lp48
S'the'
p49
atp50
a(S'amendements'
p51
(dp52
S'NOUN'
p53
F1.0
s(lp54
S'amendments'
p55
atp56
a(S'et'
p57
(dp58
S'CONJ'
p59
F1.0
s(lp60
S'and'
p61
atp62
a(S'les'
p63
(dp64
S'PRON'
p65
F0.015665
sS'DET'
p66
F0.984322
sS'ADP'
p67
F1.4e-05
s(lp68
S'those'
p69
atp70
a(S'parties'
p71
(dp72
S'ADJ'
p73
F0.05296
sS'VERB'
p74
F0.019756
sS'NOUN'
p75
F0.927284
s(lp76
S'parts'
p77
atp78
a(S'du'
p79
(dp80
S'ADP'
p81
F1.0
s(lp82
S'of'
p83
atp84
a(S'texte'
p85
(dp86
S'NOUN'
p87
F1.0
s(lp88
S'text'
p89
atp90
a(S'concernant'
p91
(dp92
S'VERB'
p93
F0.781813
sS'ADP'
p94
F0.218187
s(lp95
S'relate'
p96
atp97
a(S'la'
p98
(dp99
S'PRON'
p100
F3e-06
sS'DET'
p101
F0.999997
sS'NOUN'
p102
F0.0
s(lp103
S'the'
p104
atp105
a(S'taxation'
p106
(dp107
S'NOUN'
p108
F1.0
s(lp109
S'taxing'
p110
atp111
a(S'des'
p112
(dp113
S'DET'
p114
F2.1e-05
sS'ADP'
p115
F0.999979
s(lp116
S'for'
p117
atp118
a(S'transactions'
p119
(dp120
S'NOUN'
p121
F1.0
s(lp122
S'transactions'
p123
atp124
a(S'financi\xc3\xa8res'
p125
(dp126
S'NOUN'
p127
F0.012852
sS'ADJ'
p128
F0.987148
s(lp129
S'financial'
p130
atp131
a(g17
(dp132
g17
F1.0
s(lp133
g17
atp134
asS'en'
p135
(lp136
(g8
(dp137
g30
F0.006068
sS'NOUN'
p138
F0.993933
s(lp139
g8
atp140
a(g15
(dp141
S'VERB'
p142
F1.0
s(lp143
g15
atp144
a(g117
(dp145
S'ADP'
p146
F1.0
s(lp147
g117
atp148
a(g49
(dp149
S'NOUN'
p150
F1.1e-05
sS'DET'
p151
F0.999989
s(lp152
g49
atp153
a(g55
(dp154
S'NOUN'
p155
F1.0
s(lp156
g55
atp157
a(g61
(dp158
S'CONJ'
p159
F0.999999
sS'NOUN'
p160
F1e-06
s(lp161
g61
atp162
a(S'for'
p163
(dp164
S'ADP'
p165
F1.0
s(lp166
g163
atp167
a(g69
(dp168
S'NOUN'
p169
F2e-06
sS'DET'
p170
F0.999998
s(lp171
g69
atp172
a(g77
(dp173
S'VERB'
p174
F3.5e-05
sS'NOUN'
p175
F0.9999650000000001
s(lp176
g77
atp177
a(g83
(dp178
S'ADP'
p179
F1.0
s(lp180
g83
atp181
a(g104
(dp182
S'NOUN'
p183
F1e-06
sS'DET'
p184
F0.999999
s(lp185
g104
atp186
a(g89
(dp187
S'NOUN'
p188
F1.0
s(lp189
g89
atp190
a(S'that'
p191
(dp192
S'ADV'
p193
F0.00149
sS'DET'
p194
F0.998484
sS'ADP'
p195
F2.6e-05
s(lp196
g191
atp197
a(g96
(dp198
S'VERB'
p199
F1.0
s(lp200
g96
atp201
a(S'to'
p202
(dp203
S'ADV'
p204
F5e-06
sS'PRT'
p205
F0.999993
sS'ADP'
p206
F2e-06
s(lp207
g202
atp208
a(g110
(dp209
S'VERB'
p210
F1.0
s(lp211
g110
atp212
a(g130
(dp213
S'ADJ'
p214
F1.0
s(lp215
g130
atp216
a(g123
(dp217
S'NOUN'
p218
F1.0
s(lp219
g123
atp220
a(g17
(dp221
g17
F1.0
s(lp222
g17
atp223
asS'nl'
p224
(lp225
(S'schriftelijk'
p226
(dp227
S'ADJ'
p228
F1.0
s(lp229
g15
atp230
a(g17
(dp231
g17
F1.0
s(lp232
g15
atp233
a(g21
(dp234
g17
F1.0
s(lp235
g15
atp236
a(S'('
p237
(dp238
g17
F1.0
s(lp239
g15
atp240
a(S'fr'
p241
(dp242
S'NOUN'
p243
F1.0
s(lp244
g15
atp245
a(S')'
p246
(dp247
g17
F1.0
s(lp248
g15
atp249
a(S'ik'
p250
(dp251
S'PRON'
p252
F0.999917
sS'NOUN'
p253
F8.3e-05
s(lp254
g8
atp255
a(S'heb'
p256
(dp257
S'VERB'
p258
F1.0
s(lp259
tp260
a(S'v\xc3\xb3\xc3\xb3r'
p261
(dp262
S'ADV'
p263
F0.087229
sS'CONJ'
p264
F0.118697
sS'NOUN'
p265
F0.000271
sS'ADP'
p266
F0.793803
s(lp267
g117
atp268
a(S'de'
p269
(dp270
S'DET'
p271
F1.0
s(lp272
g49
atp273
a(S'amendementen'
p274
(dp275
S'NOUN'
p276
F1.0
s(lp277
g55
atp278
a(S'en'
p279
(dp280
S'CONJ'
p281
F1.0
s(lp282
g61
atp283
a(S'de'
p284
(dp285
S'DET'
p286
F1.0
s(lp287
g69
atp288
a(S'gedeelten'
p289
(dp290
S'NOUN'
p291
F1.0
s(lp292
g77
atp293
a(S'van'
p294
(dp295
S'ADP'
p296
F1.0
s(lp297
g83
atp298
a(S'de'
p299
(dp300
S'DET'
p301
F1.0
s(lp302
g104
atp303
a(S'tekst'
p304
(dp305
S'NOUN'
p306
F1.0
s(lp307
g89
atp308
a(S'gestemd'
p309
(dp310
S'VERB'
p311
F0.962314
sS'ADJ'
p312
F0.037686
s(lp313
g15
atp314
a(S'die'
p315
(dp316
S'PRON'
p317
F1.0000000000000002
s(lp318
g191
atp319
a(S'verband'
p320
(dp321
S'NOUN'
p322
F1.0
s(lp323
g96
atp324
a(S'houden'
p325
(dp326
S'VERB'
p327
F0.999968
sS'NOUN'
p328
F3.2e-05
s(lp329
tp330
a(S'met'
p331
(dp332
S'ADP'
p333
F1.0
s(lp334
g96
atp335
a(S'belastingheffing'
p336
(dp337
S'NOUN'
p338
F1.0
s(lp339
tp340
a(S'op'
p341
(dp342
S'ADV'
p343
F0.04575
sS'ADJ'
p344
F1e-06
sS'ADP'
p345
F0.954248
s(lp346
g110
atp347
a(S'financi\xc3\xable'
p348
(dp349
S'NOUN'
p350
F0.000257
sS'ADJ'
p351
F0.999743
s(lp352
g130
atp353
a(S'transacties'
p354
(dp355
S'NOUN'
p356
F1.0
s(lp357
g123
atp358
a(g17
(dp359
g17
F1.0
s(lp360
g17
atp361
asS'de'
p362
(lp363
(S'ich'
p364
(dp365
S'PRON'
p366
F1.0
s(lp367
g8
atp368
a(S'habe'
p369
(dp370
S'VERB'
p371
F1.0
s(lp372
tp373
a(S'f\xc3\xbcr'
p374
(dp375
S'ADP'
p376
F1.0
s(lp377
g117
atp378
a(S'die'
p379
(dp380
S'PRON'
p381
F4.9e-05
sS'DET'
p382
F0.999936
s(lp383
g49
atp384
a(S'\xc3\x84nderungsantr\xc3\xa4ge'
p385
(dp386
S'NOUN'
p387
F1.0
s(lp388
g55
atp389
a(S'und'
p390
(dp391
S'CONJ'
p392
F1.0
s(lp393
g61
atp394
a(S'f\xc3\xbcr'
p395
(dp396
S'ADP'
p397
F1.0
s(lp398
g163
atp399
a(S'die'
p400
(dp401
S'PRON'
p402
F0.505129
sS'DET'
p403
F0.489099
s(lp404
g69
atp405
a(S'teile'
p406
(dp407
S'VERB'
p408
F1.0
s(lp409
g77
atp410
a(S'des'
p411
(dp412
S'DET'
p413
F1.0
s(lp414
g83
atp415
a(S'textes'
p416
(dp417
S'ADJ'
p418
F0.000244
sS'NOUN'
p419
F0.999644
s(lp420
g89
atp421
a(S'gestimmt'
p422
(dp423
S'VERB'
p424
F1.0
s(lp425
g15
atp426
a(S','
p427
(dp428
g17
F1.0
s(lp429
g191
atp430
a(S'die'
p431
(dp432
S'PRON'
p433
F0.993273
sS'DET'
p434
F0.00405
s(lp435
g104
atp436
a(S'sich'
p437
(dp438
S'PRON'
p439
F1.0
s(lp440
tp441
a(S'auf'
p442
(dp443
S'ADV'
p444
F2.8e-05
sS'ADP'
p445
F0.999958
s(lp446
g202
atp447
a(S'die'
p448
(dp449
S'PRON'
p450
F5.1e-05
sS'DET'
p451
F0.999934
s(lp452
g110
atp453
a(S'besteuerung'
p454
(dp455
S'ADJ'
p456
F0.000138
sS'NOUN'
p457
F0.999751
s(lp458
tp459
a(S'von'
p460
(dp461
S'NOUN'
p462
F0.001178
sS'ADP'
p463
F0.998822
s(lp464
g110
atp465
a(S'finanztransaktionen'
p466
(dp467
S'ADJ'
p468
F0.10028
sS'NOUN'
p469
F0.884053
s(lp470
g123
atp471
a(S'beziehen'
p472
(dp473
S'VERB'
p474
F1.0
s(lp475
g96
atp476
a(g17
(dp477
g17
F1.0
s(lp478
g17
atp479
asS'it'
p480
(lp481
(S'ho'
p482
(dp483
S'VERB'
p484
F1.0
s(lp485
g8
atp486
a(S'votato'
p487
(dp488
S'VERB'
p489
F0.990109
sS'ADJ'
p490
F0.009891
s(lp491
tp492
a(S'a'
p493
(dp494
S'CONJ'
p495
F7.6e-05
sS'ADP'
p496
F0.999924
s(lp497
g15
atp498
a(S'favore'
p499
(dp500
S'NOUN'
p501
F1.0
s(lp502
g117
atp503
a(S'degli'
p504
(dp505
S'DEF'
p506
F0.001796
sS'ADP'
p507
F0.998204
s(lp508
tp509
a(S'emendamenti'
p510
(dp511
S'NOUN'
p512
F1.0
s(lp513
g55
atp514
a(S'e'
p515
(dp516
S'CONJ'
p517
F1.0
s(lp518
g61
atp519
a(S'delle'
p520
(dp521
S'DEF'
p522
F0.017734
sS'ADP'
p523
F0.982266
s(lp524
g163
atp525
a(S'parti'
p526
(dp527
S'VERB'
p528
F0.00022
sS'NOUN'
p529
F0.99978
s(lp530
g77
atp531
a(S'del'
p532
(dp533
S'DEF'
p534
F0.001256
sS'ADP'
p535
F0.998744
s(lp536
g83
atp537
a(S'testo'
p538
(dp539
S'VERB'
p540
F5.7e-05
sS'NOUN'
p541
F0.999943
s(lp542
g89
atp543
a(S'relative'
p544
(dp545
S'NOUN'
p546
F0.001924
sS'ADJ'
p547
F0.998076
s(lp548
g96
atp549
a(S'alla'
p550
(dp551
S'ADP'
p552
F1.0
s(lp553
g202
atp554
a(S'tassazione'
p555
(dp556
S'NOUN'
p557
F1.0
s(lp558
g110
atp559
a(S'delle'
p560
(dp561
S'DEF'
p562
F0.001048
sS'ADP'
p563
F0.998952
s(lp564
tp565
a(S'transazioni'
p566
(dp567
S'NOUN'
p568
F1.0
s(lp569
g123
atp570
a(S'finanziarie'
p571
(dp572
S'NOUN'
p573
F0.015475
sS'ADJ'
p574
F0.984525
s(lp575
g130
atp576
a(g17
(dp577
g17
F1.0
s(lp578
g17
atp579
asS'sk'
p580
(lp581
(S'hlasoval'
p582
(dp583
S'VERB'
p584
F0.9999999999999999
s(lp585
tp586
a(S'som'
p587
(dp588
S'VERB'
p589
F1.0
s(lp590
g15
atp591
a(S'za'
p592
(dp593
S'PRT'
p594
F0.001409
sS'ADP'
p595
F0.99848
sg30
F0.00011
s(lp596
g117
atp597
a(S'pozme\xc5\x88uj\xc3\xbace'
p598
(dp599
S'ADV'
p600
F0.000156
sS'NOUN'
p601
F0.049100000000000005
sS'VERB'
p602
F0.7998619999999999
sS'ADJ'
p603
F0.150881
s(lp604
g55
atp605
a(g493
(dp606
g30
F0.001993
sS'CONJ'
p607
F0.995862
sS'NOUN'
p608
F0.001243
sS'ADP'
p609
F0.000749
sS'PRT'
p610
F0.000154
s(lp611
g55
atp612
a(S'dopl\xc5\x88uj\xc3\xbace'
p613
(dp614
S'VERB'
p615
F0.5980070000000001
sS'ADJ'
p616
F0.40199399999999996
s(lp617
tp618
a(S'n\xc3\xa1vrhy'
p619
(dp620
S'NOUN'
p621
F1.0
s(lp622
g55
atp623
a(g493
(dp624
g30
F0.00023
sS'CONJ'
p625
F0.999464
sS'NOUN'
p626
F1.1e-05
sS'ADP'
p627
F0.000232
sS'PRT'
p628
F6.3e-05
s(lp629
g61
atp630
a(S'tie'
p631
(dp632
S'PRON'
p633
F1.0
s(lp634
g69
atp635
a(S'\xc4\x8dasti'
p636
(dp637
S'NOUN'
p638
F1.0
s(lp639
g77
atp640
a(S'textu'
p641
(dp642
S'NOUN'
p643
F1.0
s(lp644
g89
atp645
a(g427
(dp646
g17
F1.0
s(lp647
tp648
a(S'ktor\xc3\xa9'
p649
(dp650
S'PRON'
p651
F1.0
s(lp652
g191
atp653
a(S'sa'
p654
(dp655
S'PRT'
p656
F0.999959
sS'ADP'
p657
F0.0
sg30
F4.1e-05
s(lp658
tp659
a(S't\xc3\xbdkaj\xc3\xba'
p660
(dp661
S'VERB'
p662
F1.0
s(lp663
g96
atp664
a(S'zdanenia'
p665
(dp666
S'NOUN'
p667
F1.0
s(lp668
g110
atp669
a(S'finan\xc4\x8dn\xc3\xbdch'
p670
(dp671
S'ADJ'
p672
F1.0
s(lp673
g130
atp674
a(S'transakci\xc3\xad'
p675
(dp676
S'NOUN'
p677
F1.0
s(lp678
g123
atp679
a(g17
(dp680
g17
F1.0
s(lp681
g17
atp682
asS'pl'
p683
(lp684
(S'g\xc5\x82osowa\xc5\x82em'
p685
(dp686
S'ADV'
p687
F0.004589
sS'ADJ'
p688
F0.010162
sS'VERB'
p689
F0.098348
sS'NOUN'
p690
F0.8869029999999999
s(lp691
g15
atp692
a(S'za'
p693
(dp694
S'PRT'
p695
F0.000916
sS'VERB'
p696
F0.000154
sS'NOUN'
p697
F3e-06
sS'ADP'
p698
F0.998927
sg30
F0.0
s(lp699
tp700
a(S'przyj\xc4\x99ciem'
p701
(dp702
S'VERB'
p703
F0.990665
sS'NOUN'
p704
F0.009335
s(lp705
g15
atp706
a(S'poprawek'
p707
(dp708
S'NOUN'
p709
F1.0
s(lp710
g55
atp711
a(g8
(dp712
S'PRT'
p713
F0.00066
sS'CONJ'
p714
F0.999299
sS'PRON'
p715
F1e-06
sS'NOUN'
p716
F1.7e-05
sg30
F2.4e-05
s(lp717
g61
atp718
a(S'tych'
p719
(dp720
S'ADJ'
p721
F1.000002
s(lp722
g69
atp723
a(S'cz\xc4\x99\xc5\x9bci'
p724
(dp725
S'NOUN'
p726
F0.999999
s(lp727
g77
atp728
a(S'tekstu'
p729
(dp730
S'NOUN'
p731
F1.0
s(lp732
g89
atp733
a(g427
(dp734
g30
F0.0
sg17
F1.0
s(lp735
tp736
a(S'kt\xc3\xb3re'
p737
(dp738
S'ADJ'
p739
F0.9999999999999999
s(lp740
g191
atp741
a(S'dotycz\xc4\x85'
p742
(dp743
S'VERB'
p744
F1.0
s(lp745
g96
atp746
a(S'opodatkowania'
p747
(dp748
S'VERB'
p749
F0.909366
sS'NOUN'
p750
F0.090634
s(lp751
g110
atp752
a(S'transakcji'
p753
(dp754
S'NOUN'
p755
F1.0
s(lp756
g123
atp757
a(S'finansowych'
p758
(dp759
S'ADJ'
p760
F1.000001
s(lp761
g130
atp762
a(g17
(dp763
g17
F1.0
s(lp764
g17
atp765
asS'sl'
p766
(lp767
(S'glasoval'
p768
(dp769
S'VERB'
p770
F1.0
s(lp771
tp772
a(S'sem'
p773
(dp774
S'ADV'
p775
F0.056207
sS'PRT'
p776
F0.007678
sS'VERB'
p777
F0.936115
s(lp778
g15
atp779
a(S'za'
p780
(dp781
S'ADV'
p782
F0.000265
sg30
F8e-06
sS'ADP'
p783
F0.999728
s(lp784
g117
atp785
a(S'predloge'
p786
(dp787
S'NOUN'
p788
F1.0
s(lp789
tp790
a(S'sprememb'
p791
(dp792
S'NOUN'
p793
F1.0
s(lp794
g55
atp795
a(S'in'
p796
(dp797
S'ADV'
p798
F3.4e-05
sg30
F3.1e-05
sS'CONJ'
p799
F0.999923
sS'NOUN'
p800
F1.2e-05
s(lp801
g61
atp802
a(S'tiste'
p803
(dp804
S'PRON'
p805
F0.9999999999999999
s(lp806
g69
atp807
a(S'dele'
p808
(dp809
S'NOUN'
p810
F1.0
s(lp811
g77
atp812
a(S'besedila'
p813
(dp814
S'NOUN'
p815
F1.0
s(lp816
g89
atp817
a(g427
(dp818
g17
F1.0
s(lp819
tp820
a(S'ki'
p821
(dp822
S'CONJ'
p823
F1.0
s(lp824
g191
atp825
a(S'se'
p826
(dp827
S'PRON'
p828
F0.999999
sg30
F1e-06
s(lp829
g96
atp830
a(S'navezujejo'
p831
(dp832
S'ADV'
p833
F0.000231
sS'ADJ'
p834
F6.3e-05
sS'VERB'
p835
F0.994507
sS'NOUN'
p836
F0.005201000000000001
s(lp837
tp838
a(S'na'
p839
(dp840
S'ADP'
p841
F1.0
s(lp842
g96
atp843
a(S'obdav\xc4\x8ditev'
p844
(dp845
S'NOUN'
p846
F1.0
s(lp847
g110
atp848
a(S'finan\xc4\x8dnih'
p849
(dp850
S'ADJ'
p851
F0.999999
s(lp852
g130
atp853
a(S'transakcij'
p854
(dp855
S'ADV'
p856
F1e-06
sS'ADJ'
p857
F0.0
sS'VERB'
p858
F2e-06
sS'NOUN'
p859
F0.9999960000000002
s(lp860
g123
atp861
a(g17
(dp862
g17
F1.0
s(lp863
g17
atp864
asS'es'
p865
(lp866
(S'he'
p867
(dp868
S'VERB'
p869
F1.0
s(lp870
g8
atp871
a(S'votado'
p872
(dp873
S'VERB'
p874
F1.0
s(lp875
tp876
a(g493
(dp877
g30
F3.9e-05
sS'CONJ'
p878
F9.6e-05
sS'ADP'
p879
F0.999865
s(lp880
tp881
a(S'favor'
p882
(dp883
S'NOUN'
p884
F1.0
s(lp885
g15
atp886
a(S'de'
p887
(dp888
g30
F0.0
sS'CONJ'
p889
F8.3e-05
sS'ADP'
p890
F0.999917
s(lp891
g117
atp892
a(S'las'
p893
(dp894
S'PRON'
p895
F6.8e-05
sS'DET'
p896
F0.999932
s(lp897
g49
atp898
a(S'enmiendas'
p899
(dp900
S'VERB'
p901
F1.0
s(lp902
g55
atp903
a(S'y'
p904
(dp905
g30
F0.00013
sS'CONJ'
p906
F0.99987
s(lp907
g61
atp908
a(S'de'
p909
(dp910
g30
F0.0
sS'CONJ'
p911
F2e-06
sS'ADP'
p912
F0.999998
s(lp913
g163
atp914
a(S'las'
p915
(dp916
S'PRON'
p917
F0.0
sS'DET'
p918
F1.0
s(lp919
g69
atp920
a(S'partes'
p921
(dp922
S'NOUN'
p923
F1.0
s(lp924
g77
atp925
a(S'del'
p926
(dp927
S'ADP'
p928
F1.0
s(lp929
g83
atp930
a(S'texto'
p931
(dp932
S'NOUN'
p933
F1.0
s(lp934
g89
atp935
a(S'que'
p936
(dp937
g30
F4e-06
sS'CONJ'
p938
F0.999996
s(lp939
g191
atp940
a(S'se'
p941
(dp942
S'PRON'
p943
F1.0
sS'VERB'
p944
F0.0
s(lp945
tp946
a(S'refieren'
p947
(dp948
S'VERB'
p949
F1.0
s(lp950
g96
atp951
a(g493
(dp952
g30
F6.3e-05
sS'CONJ'
p953
F4e-06
sS'ADP'
p954
F0.999933
s(lp955
g202
atp956
a(S'la'
p957
(dp958
g30
F0.0
sS'PRON'
p959
F0.0
sS'DET'
p960
F0.999999
sS'NOUN'
p961
F0.0
s(lp962
tp963
a(S'imposici\xc3\xb3n'
p964
(dp965
S'NOUN'
p966
F1.0
s(lp967
g110
atp968
a(S'de'
p969
(dp970
g30
F0.0
sS'CONJ'
p971
F1.7e-05
sS'ADP'
p972
F0.999983
s(lp973
tp974
a(S'las'
p975
(dp976
S'PRON'
p977
F0.0
sS'DET'
p978
F1.0
s(lp979
tp980
a(S'transacciones'
p981
(dp982
S'NOUN'
p983
F1.0
s(lp984
g123
atp985
a(S'financieras'
p986
(dp987
S'NOUN'
p988
F0.008827
sS'ADJ'
p989
F0.991173
s(lp990
g130
atp991
a(g17
(dp992
g17
F1.0
s(lp993
g17
atp994
as.