(dp0
S'fr'
p1
(lp2
(S'les'
p3
(dp4
S'PRON'
p5
F0.000397
sS'DET'
p6
F0.99958
sS'ADP'
p7
F2.3e-05
s(lp8
tp9
a(S'int\xc3\xa9r\xc3\xaats'
p10
(dp11
S'NOUN'
p12
F1.0
s(lp13
S'interests'
p14
atp15
a(S'imp\xc3\xa9rialistes'
p16
(dp17
S'NOUN'
p18
F0.015475
sS'ADJ'
p19
F0.984525
s(lp20
S'imperialist'
p21
atp22
a(S'soutiennent'
p23
(dp24
S'VERB'
p25
F1.0
s(lp26
S'back'
p27
atp28
a(S'isra\xc3\xabl'
p29
(dp30
S'NOUN'
p31
F0.2828
sS'ADJ'
p32
F0.7172
s(lp33
S'israel'
p34
atp35
a(S'dans'
p36
(dp37
S'NOUN'
p38
F1.8e-05
sS'ADP'
p39
F0.999982
s(lp40
S'in'
p41
atp42
a(S'sa'
p43
(dp44
S'PRON'
p45
F1.0
s(lp46
S'its'
p47
atp48
a(S'politique'
p49
(dp50
S'ADJ'
p51
F0.0836
sS'VERB'
p52
F1e-06
sS'NOUN'
p53
F0.9164
s(lp54
S'policies'
p55
atp56
a(S'criminelle'
p57
(dp58
S'NOUN'
p59
F0.069343
sS'ADJ'
p60
F0.930657
s(lp61
S'criminal'
p62
atp63
a(S'.'
p64
(dp65
g64
F1.0
s(lp66
g64
atp67
asS'en'
p68
(lp69
(g21
(dp70
S'NOUN'
p71
F0.079582
sS'ADJ'
p72
F0.920418
s(lp73
g21
atp74
a(g14
(dp75
S'VERB'
p76
F0.001262
sS'NOUN'
p77
F0.998738
s(lp78
g14
atp79
a(g27
(dp80
S'ADV'
p81
F0.90832
sS'NOUN'
p82
F0.009956
sS'VERB'
p83
F0.035991
sS'ADJ'
p84
F0.045734
s(lp85
g27
atp86
a(g34
(dp87
S'ADV'
p88
F0.106241
sS'ADJ'
p89
F0.048919
sS'VERB'
p90
F0.198247
sS'NOUN'
p91
F0.6465920000000001
s(lp92
g34
atp93
a(g41
(dp94
S'ADV'
p95
F0.00029
sS'PRT'
p96
F0.003258
sS'ADP'
p97
F0.996452
s(lp98
g41
atp99
a(g47
(dp100
S'PRON'
p101
F1.0
s(lp102
g47
atp103
a(g62
(dp104
S'NOUN'
p105
F0.022674
sS'ADJ'
p106
F0.977326
s(lp107
g62
atp108
a(g55
(dp109
S'NOUN'
p110
F1.0
s(lp111
g55
atp112
a(g64
(dp113
g64
F1.0
s(lp114
g64
atp115
asS'nl'
p116
(lp117
(S'isra\xc3\xabl'
p118
(dp119
S'ADJ'
p120
F0.005075
sS'NOUN'
p121
F0.994925
s(lp122
g34
atp123
a(S'voelt'
p124
(dp125
S'VERB'
p126
F1.0
s(lp127
g21
atp128
a(S'zich'
p129
(dp130
S'PRON'
p131
F1.0
s(lp132
tp133
a(S'door'
p134
(dp135
S'ADV'
p136
F6e-06
sS'CONJ'
p137
F2.1e-05
sS'ADP'
p138
F0.999972
s(lp139
tp140
a(S'de'
p141
(dp142
S'DET'
p143
F1.0
s(lp144
tp145
a(S'imperialistische'
p146
(dp147
S'NOUN'
p148
F0.000209
sS'ADJ'
p149
F0.999791
s(lp150
g21
atp151
a(S'belangen'
p152
(dp153
S'NOUN'
p154
F1.0
s(lp155
g14
atp156
a(S'gesteund'
p157
(dp158
S'VERB'
p159
F1.0
s(lp160
g27
atp161
a(S'in'
p162
(dp163
S'ADV'
p164
F9.3e-05
sS'VERB'
p165
F2e-06
sS'ADP'
p166
F0.999906
s(lp167
g41
atp168
a(S'haar'
p169
(dp170
S'ADV'
p171
F1e-05
sS'PRON'
p172
F0.9999859999999999
sS'NOUN'
p173
F4e-06
s(lp174
g47
atp175
a(S'misdadige'
p176
(dp177
S'NOUN'
p178
F0.009634
sS'ADJ'
p179
F0.990366
s(lp180
g62
atp181
a(S'beleid'
p182
(dp183
S'NOUN'
p184
F1.0
s(lp185
g55
atp186
a(g64
(dp187
g64
F1.0
s(lp188
g64
atp189
asS'de'
p190
(lp191
(S'imperialistische'
p192
(dp193
S'ADJ'
p194
F1.0
s(lp195
g21
atp196
a(S'interessen'
p197
(dp198
S'ADJ'
p199
F0.082262
sS'NOUN'
p200
F0.860287
s(lp201
g14
atp202
a(S'st\xc3\xa4rken'
p203
(dp204
S'VERB'
p205
F1.0
s(lp206
tp207
a(S'israel'
p208
(dp209
S'ADJ'
p210
F0.243418
sS'NOUN'
p211
F0.74803
s(lp212
g34
atp213
a(S'bei'
p214
(dp215
S'PRT'
p216
F0.000173
sS'ADP'
p217
F0.999827
s(lp218
g41
atp219
a(S'seiner'
p220
(dp221
S'PRON'
p222
F1.0
s(lp223
g47
atp224
a(S'kriminellen'
p225
(dp226
S'ADJ'
p227
F1.0
s(lp228
g62
atp229
a(S'politik'
p230
(dp231
S'ADJ'
p232
F0.003134
sS'NOUN'
p233
F0.991501
s(lp234
g55
atp235
a(S'den'
p236
(dp237
S'PRON'
p238
F0.467663
sS'DET'
p239
F0.531274
s(lp240
tp241
a(S'r\xc3\xbccken'
p242
(dp243
S'VERB'
p244
F1.0
s(lp245
g27
atp246
a(g64
(dp247
g64
F1.0
s(lp248
g64
atp249
asS'it'
p250
(lp251
(S'interessi'
p252
(dp253
S'VERB'
p254
F0.002197
sS'NOUN'
p255
F0.997803
s(lp256
g14
atp257
a(S'imperialistici'
p258
(dp259
S'ADJ'
p260
F1.0
s(lp261
g21
atp262
a(S'sostengono'
p263
(dp264
S'VERB'
p265
F1.0
s(lp266
g27
atp267
a(S'israele'
p268
(dp269
S'NOUN'
p270
F0.012541
sS'VERB'
p271
F0.649887
sS'ADJ'
p272
F0.337572
s(lp273
g34
atp274
a(S'e'
p275
(dp276
S'CONJ'
p277
F1.0
s(lp278
g41
atp279
a(S'le'
p280
(dp281
S'PRON'
p282
F2.3e-05
sS'DET'
p283
F0.999977
s(lp284
tp285
a(S'sue'
p286
(dp287
S'PRON'
p288
F1.0
s(lp289
g47
atp290
a(S'politiche'
p291
(dp292
S'ADJ'
p293
F0.295165
sS'NOUN'
p294
F0.704835
s(lp295
g55
atp296
a(S'criminali'
p297
(dp298
S'NOUN'
p299
F0.080084
sS'ADJ'
p300
F0.919916
s(lp301
g62
atp302
a(g64
(dp303
g64
F1.0
s(lp304
g64
atp305
asS'sk'
p306
(lp307
(S'imperialistick\xc3\xa9'
p308
(dp309
S'ADJ'
p310
F1.0
s(lp311
g21
atp312
a(S'z\xc3\xa1ujmy'
p313
(dp314
S'NOUN'
p315
F1.0
s(lp316
g14
atp317
a(S'podporuj\xc3\xba'
p318
(dp319
S'VERB'
p320
F1.0
s(lp321
g27
atp322
a(S'izrael'
p323
(dp324
S'ADJ'
p325
F0.001044
sS'NOUN'
p326
F0.9989570000000001
s(lp327
g34
atp328
a(S'v'
p329
(dp330
S'X'
p331
F8.699999999999999e-05
sS'ADP'
p332
F0.999912
s(lp333
g41
atp334
a(S'jeho'
p335
(dp336
S'PRON'
p337
F0.999995
sg331
F6e-06
s(lp338
g47
atp339
a(S'krimin\xc3\xa1lnych'
p340
(dp341
S'ADJ'
p342
F1.0
s(lp343
g62
atp344
a(S'politik\xc3\xa1ch'
p345
(dp346
S'NOUN'
p347
F1.0
s(lp348
g55
atp349
a(g64
(dp350
g64
F1.0
s(lp351
g64
atp352
asS'pl'
p353
(lp354
(S'imperialistyczne'
p355
(dp356
S'ADV'
p357
F4.1e-05
sS'NOUN'
p358
F0.0002780000000000001
sS'VERB'
p359
F0.0007960000000000003
sS'ADJ'
p360
F0.9988859999999999
s(lp361
g21
atp362
a(S'interesy'
p363
(dp364
S'NOUN'
p365
F1.0
s(lp366
g14
atp367
a(S'popieraj\xc4\x85'
p368
(dp369
S'VERB'
p370
F1.0
s(lp371
g27
atp372
a(S'izrael'
p373
(dp374
S'ADV'
p375
F0.010211
sg331
F0.000435
sS'ADJ'
p376
F0.00011300000000000001
sS'VERB'
p377
F0.073014
sS'NOUN'
p378
F0.9162260000000002
s(lp379
g34
atp380
a(S'w'
p381
(dp382
S'ADJ'
p383
F0.000119
sg331
F0.0011949999999999999
sS'NOUN'
p384
F0.003187
sS'ADP'
p385
F0.995497
s(lp386
g41
atp387
a(S'przest\xc4\x99pczych'
p388
(dp389
S'ADJ'
p390
F1.0
s(lp391
g62
atp392
a(S'politykach'
p393
(dp394
S'NOUN'
p395
F1.0
s(lp396
g55
atp397
a(g64
(dp398
g64
F1.0
s(lp399
g64
atp400
asS'sl'
p401
(lp402
(S'imperialisti\xc4\x8dni'
p403
(dp404
S'ADV'
p405
F3.1e-05
sS'NOUN'
p406
F0.00016999999999999999
sS'VERB'
p407
F0.000282
sS'ADJ'
p408
F0.999515
s(lp409
g21
atp410
a(S'interesi'
p411
(dp412
S'NOUN'
p413
F1.0
s(lp414
g14
atp415
a(S'podpirajo'
p416
(dp417
S'VERB'
p418
F1.0
s(lp419
g27
atp420
a(S'izrael'
p421
(dp422
S'ADV'
p423
F0.003725
sS'ADJ'
p424
F0.002391
sS'VERB'
p425
F0.6151519999999999
sS'NOUN'
p426
F0.37843999999999994
sg331
F0.000291
s(lp427
g34
atp428
a(S'pri'
p429
(dp430
S'ADP'
p431
F1.0
s(lp432
g41
atp433
a(S'izvajanju'
p434
(dp435
S'NOUN'
p436
F1.0
s(lp437
g47
atp438
a(S'protizakonite'
p439
(dp440
S'ADV'
p441
F0.000395
sS'NOUN'
p442
F0.019419
sS'VERB'
p443
F0.041302
sS'ADJ'
p444
F0.9388839999999996
s(lp445
g62
atp446
a(S'politike'
p447
(dp448
S'NOUN'
p449
F1.0
s(lp450
g55
atp451
a(g64
(dp452
g64
F1.0
s(lp453
g64
atp454
asS'es'
p455
(lp456
(S'los'
p457
(dp458
S'PRON'
p459
F2.7e-05
sS'DET'
p460
F0.999973
s(lp461
tp462
a(S'intereses'
p463
(dp464
S'NOUN'
p465
F1.0
s(lp466
g14
atp467
a(S'imperialistas'
p468
(dp469
S'NOUN'
p470
F0.015791
sS'ADJ'
p471
F0.984209
s(lp472
g21
atp473
a(S'apoyan'
p474
(dp475
S'VERB'
p476
F1.0
s(lp477
tp478
a(S'a'
p479
(dp480
g331
F0.001285
sS'CONJ'
p481
F0.000178
sS'ADP'
p482
F0.998538
s(lp483
g27
atp484
a(S'israel'
p485
(dp486
S'ADJ'
p487
F0.069194
sS'NOUN'
p488
F0.930806
s(lp489
g34
atp490
a(S'en'
p491
(dp492
g331
F0.0
sS'CONJ'
p493
F1.4e-05
sS'ADP'
p494
F0.999986
s(lp495
g41
atp496
a(S'sus'
p497
(dp498
S'PRON'
p499
F1.0
s(lp500
g47
atp501
a(S'pol\xc3\xadticas'
p502
(dp503
S'ADJ'
p504
F0.034504
sS'NOUN'
p505
F0.965496
s(lp506
g55
atp507
a(S'criminales'
p508
(dp509
S'NOUN'
p510
F0.014849
sS'ADJ'
p511
F0.985151
s(lp512
g62
atp513
a(g64
(dp514
g64
F1.0
s(lp515
g64
atp516
as.