(dp0
S'fr'
p1
(lp2
(S'depuis'
p3
(dp4
S'ADV'
p5
F0.000303
sS'ADP'
p6
F0.999697
s(lp7
S'from'
p8
atp9
a(S'notre'
p10
(dp11
S'PRON'
p12
F1.0
s(lp13
S'comfort'
p14
atp15
a(S'fauteuil'
p16
(dp17
S'NOUN'
p18
F1.0
s(lp19
S'nauseated'
p20
atp21
a(S'confortable'
p22
(dp23
S'ADJ'
p24
F1.0
s(lp25
g20
atp26
a(S','
p27
(dp28
S'.'
p29
F1.0
s(lp30
g27
atp31
a(S'devant'
p32
(dp33
S'ADV'
p34
F0.075547
sS'VERB'
p35
F0.234399
sS'NOUN'
p36
F0.000444
sS'ADP'
p37
F0.68961
s(lp38
g20
atp39
a(S'nos'
p40
(dp41
S'PRON'
p42
F1.0
s(lp43
S'our'
p44
atp45
a(S'postes'
p46
(dp47
S'VERB'
p48
F0.0
sS'NOUN'
p49
F1.0
s(lp50
g20
atp51
a(S'de'
p52
(dp53
S'ADP'
p54
F1.0
s(lp55
S'of'
p56
atp57
a(S't\xc3\xa9l\xc3\xa9vision'
p58
(dp59
S'NOUN'
p60
F1.0
s(lp61
tp62
a(g27
(dp63
g29
F1.0
s(lp64
g27
atp65
a(S'nous'
p66
(dp67
S'PRON'
p68
F1.0
s(lp69
S'we'
p70
atp71
a(S'avons'
p72
(dp73
S'VERB'
p74
F1.0
s(lp75
g20
atp76
a(S'la'
p77
(dp78
S'PRON'
p79
F2.6e-05
sS'DET'
p80
F0.999974
sS'NOUN'
p81
F0.0
s(lp82
S'television'
p83
atp84
a(S'naus\xc3\xa9e'
p85
(dp86
S'NOUN'
p87
F1.0
s(lp88
g20
atp89
a(S'devant'
p90
(dp91
S'ADV'
p92
F0.040642
sS'VERB'
p93
F0.085382
sS'NOUN'
p94
F0.000112
sS'ADP'
p95
F0.873864
s(lp96
g20
atp97
a(S'ce'
p98
(dp99
S'PRON'
p100
F1.0
s(lp101
tp102
a(S'spectacle'
p103
(dp104
S'NOUN'
p105
F1.0
s(lp106
g20
atp107
a(g29
(dp108
g29
F1.0
s(lp109
g29
atp110
asS'en'
p111
(lp112
(g70
(dp113
S'PRON'
p114
F1.0
s(lp115
g70
atp116
a(g27
(dp117
g29
F1.0
s(lp118
g27
atp119
a(g8
(dp120
S'ADP'
p121
F1.0
s(lp122
g8
atp123
a(S'the'
p124
(dp125
S'NOUN'
p126
F1e-06
sS'DET'
p127
F0.999999
s(lp128
g124
atp129
a(g14
(dp130
S'VERB'
p131
F6.400000000000001e-05
sS'NOUN'
p132
F0.999936
s(lp133
g14
atp134
a(g56
(dp135
S'ADP'
p136
F1.0
s(lp137
g56
atp138
a(g44
(dp139
S'PRON'
p140
F1.0
s(lp141
g44
atp142
a(g83
(dp143
S'NOUN'
p144
F1.0
s(lp145
g83
atp146
a(S'sets'
p147
(dp148
S'VERB'
p149
F0.12156
sS'NOUN'
p150
F0.87844
s(lp151
g147
atp152
a(g27
(dp153
g29
F1.0
s(lp154
g27
atp155
a(S'feel'
p156
(dp157
S'VERB'
p158
F0.970919
sS'NOUN'
p159
F0.029082
s(lp160
g156
atp161
a(g20
(dp162
S'VERB'
p163
F1.0
s(lp164
g20
atp165
a(S'watching'
p166
(dp167
S'VERB'
p168
F0.991943
sS'NOUN'
p169
F0.008057
s(lp170
g166
atp171
a(S'them'
p172
(dp173
S'PRON'
p174
F1.0
s(lp175
g172
atp176
a(g29
(dp177
g29
F1.0
s(lp178
g29
atp179
asS'nl'
p180
(lp181
(S'wij'
p182
(dp183
S'PRON'
p184
F1.0
s(lp185
g70
atp186
a(S'worden'
p187
(dp188
S'VERB'
p189
F0.999994
sS'NOUN'
p190
F6e-06
s(lp191
g147
atp192
a(g27
(dp193
g29
F1.0
s(lp194
g27
atp195
a(S'vanuit'
p196
(dp197
S'ADP'
p198
F1.0
s(lp199
g8
atp200
a(S'onze'
p201
(dp202
S'PRON'
p203
F1.0
s(lp204
g44
atp205
a(S'comfortabele'
p206
(dp207
S'NOUN'
p208
F0.000331
sS'ADJ'
p209
F0.999669
s(lp210
g20
atp211
a(S'huiskamers'
p212
(dp213
S'NOUN'
p214
F1.0
s(lp215
g20
atp216
a(g27
(dp217
g29
F1.0
s(lp218
g27
atp219
a(S'misselijk'
p220
(dp221
S'ADJ'
p222
F1.0
s(lp223
g20
atp224
a(S'als'
p225
(dp226
S'CONJ'
p227
F1.0
s(lp228
tp229
a(S'we'
p230
(dp231
S'PRON'
p232
F1.0
s(lp233
g20
atp234
a(S'naar'
p235
(dp236
S'CONJ'
p237
F0.026547
sS'ADJ'
p238
F0.0
sS'ADP'
p239
F0.973453
s(lp240
tp241
a(S'ze'
p242
(dp243
S'PRON'
p244
F1.0
s(lp245
g172
atp246
a(S'kijken'
p247
(dp248
S'VERB'
p249
F0.9389569999999999
sS'NOUN'
p250
F0.061043
s(lp251
g166
atp252
a(g29
(dp253
g29
F1.0
s(lp254
g29
atp255
asS'de'
p256
(lp257
(S'uns'
p258
(dp259
S'PRON'
p260
F1.0
s(lp261
g70
atp262
a(g27
(dp263
g29
F1.0
s(lp264
g27
atp265
a(S'die'
p266
(dp267
S'PRON'
p268
F0.999622
sS'DET'
p269
F0.000205
s(lp270
g124
atp271
a(S'wir'
p272
(dp273
S'PRON'
p274
F1.0
s(lp275
g44
atp276
a(S'gem\xc3\xbctlich'
p277
(dp278
S'ADJ'
p279
F1.0
s(lp280
g20
atp281
a(S'vor'
p282
(dp283
S'ADV'
p284
F0.00438
sS'ADP'
p285
F0.99176
s(lp286
g20
atp287
a(S'unseren'
p288
(dp289
S'PRON'
p290
F1.0
s(lp291
g20
atp292
a(S'fernsehapparaten'
p293
(dp294
S'ADJ'
p295
F0.238872
sS'NOUN'
p296
F0.751273
s(lp297
g20
atp298
a(S'sitzen'
p299
(dp300
S'VERB'
p301
F1.0
s(lp302
g20
atp303
a(g27
(dp304
g29
F1.0
s(lp305
g27
atp306
a(S'wird'
p307
(dp308
S'VERB'
p309
F1.0
s(lp310
g20
atp311
a(S'von'
p312
(dp313
S'NOUN'
p314
F0.000161
sS'ADP'
p315
F0.999839
s(lp316
g8
atp317
a(S'diesem'
p318
(dp319
S'PRON'
p320
F1.0
s(lp321
g20
atp322
a(S'anblick'
p323
(dp324
S'VERB'
p325
F0.006458
sS'NOUN'
p326
F0.993542
s(lp327
tp328
a(S'schlecht'
p329
(dp330
S'PRT'
p331
F0.077431
sS'ADJ'
p332
F0.922569
s(lp333
g20
atp334
a(g29
(dp335
g29
F1.0
s(lp336
g29
atp337
asS'it'
p338
(lp339
(S'noi'
p340
(dp341
S'PRON'
p342
F1.0
s(lp343
g70
atp344
a(g27
(dp345
g29
F1.0
s(lp346
g27
atp347
a(S'seduti'
p348
(dp349
S'VERB'
p350
F1.0
s(lp351
g20
atp352
a(S'comodamente'
p353
(dp354
S'ADV'
p355
F1.0
s(lp356
g14
atp357
a(S'davanti'
p358
(dp359
S'ADV'
p360
F0.040261
sS'ADJ'
p361
F0.735188
sS'ADP'
p362
F0.224551
s(lp363
g20
atp364
a(S'al'
p365
(dp366
S'ADP'
p367
F1.0
s(lp368
g20
atp369
a(S'televisore'
p370
(dp371
S'NOUN'
p372
F1.0
s(lp373
g20
atp374
a(g27
(dp375
g29
F1.0
s(lp376
g27
atp377
a(S'ci'
p378
(dp379
S'ADV'
p380
F0.000806
sS'PRON'
p381
F0.9991220000000001
sS'NOUN'
p382
F7.3e-05
s(lp383
g20
atp384
a(S'sentiamo'
p385
(dp386
S'VERB'
p387
F1.0
s(lp388
g156
atp389
a(S'nauseati'
p390
(dp391
S'VERB'
p392
F1.0
s(lp393
g20
atp394
a(S'al'
p395
(dp396
S'ADP'
p397
F1.0
s(lp398
g20
atp399
a(S'solo'
p400
(dp401
S'ADV'
p402
F0.983078
sS'NOUN'
p403
F0.006232
sS'VERB'
p404
F0.000726
sS'ADJ'
p405
F0.009964
s(lp406
tp407
a(S'vedere'
p408
(dp409
S'VERB'
p410
F1.0
s(lp411
g166
atp412
a(S'le'
p413
(dp414
S'PRON'
p415
F0.0
sS'DET'
p416
F1.0
s(lp417
tp418
a(S'loro'
p419
(dp420
S'PRON'
p421
F1.0
s(lp422
g172
atp423
a(S'immagini'
p424
(dp425
S'VERB'
p426
F0.00016099999999999998
sS'NOUN'
p427
F0.999838
s(lp428
g20
atp429
a(g29
(dp430
g29
F1.0
s(lp431
g29
atp432
asS'sk'
p433
(lp434
(S'my'
p435
(dp436
S'PRON'
p437
F1.0
s(lp438
g70
atp439
a(g27
(dp440
g29
F1.0
s(lp441
g27
atp442
a(S'sediac'
p443
(dp444
S'VERB'
p445
F1.0
s(lp446
g20
atp447
a(S'v'
p448
(dp449
S'X'
p450
F4.2000000000000004e-05
sS'ADP'
p451
F0.999958
s(lp452
g8
atp453
a(S'pohodl\xc3\xad'
p454
(dp455
S'NOUN'
p456
F1.0
s(lp457
g20
atp458
a(S'pred'
p459
(dp460
g450
F8e-05
sS'ADP'
p461
F0.99992
s(lp462
g20
atp463
a(S'telev\xc3\xadzormi'
p464
(dp465
S'NOUN'
p466
F1.0
s(lp467
g20
atp468
a(S'a'
p469
(dp470
g450
F0.00127
sS'CONJ'
p471
F0.998697
sS'NOUN'
p472
F1e-06
sS'ADP'
p473
F0.0
sS'PRT'
p474
F3.1e-05
s(lp475
g27
atp476
a(S'h\xc4\xbeadiac'
p477
(dp478
S'VERB'
p479
F1.0
s(lp480
g20
atp481
a(S'na'
p482
(dp483
g450
F3.9999999999999996e-05
sS'CONJ'
p484
F5e-06
sS'ADP'
p485
F0.999931
sS'PRT'
p486
F2.3e-05
s(lp487
g166
atp488
a(S'ne'
p489
(dp490
S'PRON'
p491
F0.987716
sS'ADP'
p492
F0.0
sg450
F0.012284
s(lp493
g172
atp494
a(S'sa'
p495
(dp496
S'PRT'
p497
F0.999931
sS'ADP'
p498
F0.0
sg450
F6.9e-05
s(lp499
g156
atp500
a(S'c\xc3\xadtime'
p501
(dp502
S'VERB'
p503
F1.0
s(lp504
tp505
a(S'zle'
p506
(dp507
S'ADV'
p508
F0.98521
sS'NOUN'
p509
F0.01479
s(lp510
g20
atp511
a(g29
(dp512
g29
F1.0
s(lp513
g29
atp514
asS'pl'
p515
(lp516
(S'my'
p517
(dp518
S'PRON'
p519
F0.991954
sS'NOUN'
p520
F0.0064860000000000004
sg450
F0.00156
s(lp521
g70
atp522
a(g27
(dp523
g450
F0.00013
sg29
F0.99987
s(lp524
g27
atp525
a(S'z'
p526
(dp527
g450
F0.006162
sS'VERB'
p528
F0.001308
sS'NOUN'
p529
F0.000398
sS'ADP'
p530
F0.989253
sS'PRT'
p531
F0.002879
s(lp532
g8
atp533
a(S'komfortowej'
p534
(dp535
S'ADJ'
p536
F1.0
s(lp537
g20
atp538
a(S'pozycji'
p539
(dp540
S'NOUN'
p541
F1.0
s(lp542
g20
atp543
a(S'przed'
p544
(dp545
S'ADP'
p546
F1.0
s(lp547
g20
atp548
a(S'telewizorami'
p549
(dp550
S'NOUN'
p551
F1.0
s(lp552
g20
atp553
a(g27
(dp554
g450
F0.0
sg29
F1.0
s(lp555
tp556
a(S'czujemy'
p557
(dp558
S'VERB'
p559
F1.0
s(lp560
g20
atp561
a(S'md\xc5\x82o\xc5\x9bci'
p562
(dp563
S'NOUN'
p564
F1.0
s(lp565
tp566
a(S'ogl\xc4\x85daj\xc4\x85c'
p567
(dp568
S'VERB'
p569
F1.0
s(lp570
g20
atp571
a(S'ich'
p572
(dp573
S'PRON'
p574
F0.999991
sg450
F1e-05
s(lp575
g172
atp576
a(g29
(dp577
g29
F1.0
s(lp578
g29
atp579
asS'sl'
p580
(lp581
(S'nam'
p582
(dp583
S'PRON'
p584
F0.925544
sg450
F0.074456
s(lp585
g70
atp586
a(g27
(dp587
g29
F1.0
s(lp588
g27
atp589
a(S'ki'
p590
(dp591
S'CONJ'
p592
F1.0
s(lp593
g56
atp594
a(S'to'
p595
(dp596
S'PRON'
p597
F0.9999429999999999
sg450
F5.6e-05
s(lp598
g20
atp599
a(S'spremljamo'
p600
(dp601
S'VERB'
p602
F1.0
s(lp603
g166
atp604
a(S'iz'
p605
(dp606
g450
F8e-06
sS'ADP'
p607
F0.999992
s(lp608
g8
atp609
a(S'udobnih'
p610
(dp611
S'ADJ'
p612
F1.0
s(lp613
g20
atp614
a(S'naslonja\xc4\x8dev'
p615
(dp616
S'ADJ'
p617
F1e-06
sS'NOUN'
p618
F0.999998
s(lp619
g20
atp620
a(S'pred'
p621
(dp622
S'ADP'
p623
F1.0
s(lp624
g20
atp625
a(S'televizijskimi'
p626
(dp627
S'ADJ'
p628
F1.0
s(lp629
g20
atp630
a(S'ekrani'
p631
(dp632
S'ADV'
p633
F0.005791
sS'NOUN'
p634
F0.45914800000000006
sS'VERB'
p635
F0.00164
sS'ADJ'
p636
F0.5334200000000001
s(lp637
g20
atp638
a(g27
(dp639
g29
F1.0
s(lp640
tp641
a(S'je'
p642
(dp643
S'PRON'
p644
F0.001385
sS'VERB'
p645
F0.998613
sg450
F2e-06
s(lp646
g124
atp647
a(S'slabo'
p648
(dp649
S'ADV'
p650
F0.578421
sS'ADJ'
p651
F0.42158
s(lp652
g20
atp653
a(g27
(dp654
g29
F1.0
s(lp655
tp656
a(S'ko'
p657
(dp658
S'CONJ'
p659
F1.0
s(lp660
tp661
a(S'jih'
p662
(dp663
S'PRON'
p664
F0.9999999999999999
s(lp665
g172
atp666
a(S'gledamo'
p667
(dp668
S'VERB'
p669
F1.0
s(lp670
g20
atp671
a(g29
(dp672
g29
F1.0
s(lp673
g29
atp674
asS'es'
p675
(lp676
(S'nosotros'
p677
(dp678
S'PRON'
p679
F1.0
s(lp680
g70
atp681
a(g27
(dp682
g29
F1.0
s(lp683
g27
atp684
a(S'desde'
p685
(dp686
S'ADP'
p687
F1.0
s(lp688
g8
atp689
a(S'la'
p690
(dp691
S'NOUN'
p692
F0.0
sS'PRON'
p693
F0.0
sS'DET'
p694
F0.999999
sg450
F0.0
s(lp695
g124
atp696
a(S'comodidad'
p697
(dp698
S'NOUN'
p699
F1.0
s(lp700
g14
atp701
a(S'de'
p702
(dp703
g450
F0.0
sS'CONJ'
p704
F0.000289
sS'ADP'
p705
F0.999711
s(lp706
g56
atp707
a(S'nuestros'
p708
(dp709
S'PRON'
p710
F1.0
s(lp711
g44
atp712
a(S'hogares'
p713
(dp714
S'NOUN'
p715
F1.0
s(lp716
g20
atp717
a(g27
(dp718
g29
F1.0
s(lp719
g27
atp720
a(S'sentimos'
p721
(dp722
S'VERB'
p723
F1.0
s(lp724
g156
atp725
a(S'n\xc3\xa1useas'
p726
(dp727
S'NOUN'
p728
F1.0
s(lp729
g20
atp730
a(S'al'
p731
(dp732
S'CONJ'
p733
F0.963963
sS'ADP'
p734
F0.036037
s(lp735
g20
atp736
a(S'verlos'
p737
(dp738
S'VERB'
p739
F1.0
s(lp740
tp741
a(S'por'
p742
(dp743
S'ADP'
p744
F1.0
s(lp745
g20
atp746
a(S'televisi\xc3\xb3n'
p747
(dp748
S'NOUN'
p749
F1.0
s(lp750
g83
atp751
a(g29
(dp752
g29
F1.0
s(lp753
g29
atp754
as.