(dp0
S'fr'
p1
(lp2
(S'par'
p3
(dp4
S'NOUN'
p5
F7.6e-05
sS'ADP'
p6
F0.999924
s(lp7
S'by'
p8
atp9
a(S'\xc3\xa9crit'
p10
(dp11
S'VERB'
p12
F0.035327000000000004
sS'NOUN'
p13
F0.964674
s(lp14
S'forest'
p15
atp16
a(S'.'
p17
(dp18
g17
F1.0
s(lp19
tp20
a(S'-'
p21
(dp22
g17
F1.0
s(lp23
S'is'
p24
atp25
a(S'les'
p26
(dp27
S'PRON'
p28
F0.000333
sS'DET'
p29
F0.999645
sS'ADP'
p30
F2.2e-05
s(lp31
tp32
a(S'for\xc3\xaats'
p33
(dp34
S'NOUN'
p35
F1.0
s(lp36
g15
atp37
a(S'couvrent'
p38
(dp39
S'VERB'
p40
F1.0
s(lp41
S'covered'
p42
atp43
a(S'plus'
p44
(dp45
S'ADV'
p46
F0.997726
sS'VERB'
p47
F0.002274
s(lp48
S'more'
p49
atp50
a(S'de'
p51
(dp52
S'ADP'
p53
F1.0
s(lp54
S'than'
p55
atp56
a(S'42'
p57
(dp58
S'X'
p59
F0.010548
sS'NUM'
p60
F0.989452
s(lp61
S'42'
p62
atp63
a(S'%'
p64
(dp65
g59
F1.0
s(lp66
g64
atp67
a(S'du'
p68
(dp69
S'ADP'
p70
F1.0
s(lp71
S'of'
p72
atp73
a(S'territoire'
p74
(dp75
S'NOUN'
p76
F1.0
s(lp77
S'territory'
p78
atp79
a(S'de'
p80
(dp81
S'ADP'
p82
F1.0
s(lp83
S'of'
p84
atp85
a(S"l'"
p86
(dp87
S'ADJ'
p88
F0.160704
sS'VERB'
p89
F0.06480800000000002
sS'NOUN'
p90
F0.774488
s(lp91
S'the'
p92
atp93
a(S'union'
p94
(dp95
S'NOUN'
p96
F1.0
s(lp97
S'union'
p98
atp99
a(g17
(dp100
g17
F1.0
s(lp101
g17
atp102
asS'en'
p103
(lp104
(g49
(dp105
S'ADV'
p106
F0.580471
sS'ADJ'
p107
F0.419529
s(lp108
g49
atp109
a(g55
(dp110
S'ADP'
p111
F1.0
s(lp112
g55
atp113
a(g62
(dp114
S'ADV'
p115
F2e-06
sS'NOUN'
p116
F7.9e-05
sS'NUM'
p117
F0.99915
sS'ADJ'
p118
F0.000769
sg59
F0.0
s(lp119
g62
atp120
a(g64
(dp121
S'NOUN'
p122
F1.0
s(lp123
g64
atp124
a(g72
(dp125
S'ADP'
p126
F1.0
s(lp127
g72
atp128
a(S'the'
p129
(dp130
S'NOUN'
p131
F1e-06
sS'DET'
p132
F0.999999
s(lp133
g129
atp134
a(g78
(dp135
S'NOUN'
p136
F1.0
s(lp137
g78
atp138
a(g84
(dp139
S'ADP'
p140
F1.0
s(lp141
g84
atp142
a(g92
(dp143
S'NOUN'
p144
F1e-06
sS'DET'
p145
F0.999999
s(lp146
g92
atp147
a(g98
(dp148
S'NOUN'
p149
F1.0
s(lp150
g98
atp151
a(g24
(dp152
S'VERB'
p153
F1.0
s(lp154
g24
atp155
a(g42
(dp156
S'VERB'
p157
F0.9976659999999999
sS'ADJ'
p158
F0.002333
s(lp159
g42
atp160
a(g8
(dp161
S'ADV'
p162
F7.4e-05
sS'NOUN'
p163
F1e-06
sS'ADP'
p164
F0.999925
s(lp165
g8
atp166
a(g15
(dp167
S'ADJ'
p168
F0.00304
sS'VERB'
p169
F1.9999999999999998e-05
sS'NOUN'
p170
F0.996941
s(lp171
g15
atp172
a(g17
(dp173
g17
F1.0
s(lp174
g17
atp175
asS'nl'
p176
(lp177
(S'het'
p178
(dp179
S'PRON'
p180
F0.01289
sS'DET'
p181
F0.98711
s(lp182
g129
atp183
a(S'grondgebied'
p184
(dp185
S'NOUN'
p186
F1.0
s(lp187
g78
atp188
a(S'van'
p189
(dp190
S'ADP'
p191
F1.0
s(lp192
g84
atp193
a(S'de'
p194
(dp195
S'DET'
p196
F1.0
s(lp197
g92
atp198
a(S'europese'
p199
(dp200
S'NOUN'
p201
F1.0
s(lp202
tp203
a(S'unie'
p204
(dp205
S'NOUN'
p206
F1.0
s(lp207
g98
atp208
a(S'bestaat'
p209
(dp210
S'VERB'
p211
F1.0
s(lp212
g24
atp213
a(S'voor'
p214
(dp215
S'ADV'
p216
F0.434804
sS'CONJ'
p217
F3.7e-05
sS'NOUN'
p218
F4e-06
sS'ADP'
p219
F0.565156
s(lp220
g72
atp221
a(S'meer'
p222
(dp223
S'ADV'
p224
F0.997064
sS'NUM'
p225
F0.002887
sS'NOUN'
p226
F3.6e-05
sS'VERB'
p227
F1.2e-05
s(lp228
g49
atp229
a(S'dan'
p230
(dp231
S'ADV'
p232
F0.174621
sS'CONJ'
p233
F0.825379
s(lp234
g55
atp235
a(S'42'
p236
(dp237
S'NUM'
p238
F1.0
s(lp239
g62
atp240
a(S'procent'
p241
(dp242
S'NOUN'
p243
F1.0
s(lp244
g64
atp245
a(S'uit'
p246
(dp247
S'ADV'
p248
F0.030857
sS'VERB'
p249
F1.2e-05
sS'ADP'
p250
F0.969131
s(lp251
g8
atp252
a(S'bos'
p253
(dp254
S'NOUN'
p255
F1.0
s(lp256
g15
atp257
a(g17
(dp258
g17
F1.0
s(lp259
g17
atp260
asS'de'
p261
(lp262
(S'mehr'
p263
(dp264
S'ADV'
p265
F0.905825
sS'PRON'
p266
F0.092355
s(lp267
g49
atp268
a(S'als'
p269
(dp270
S'CONJ'
p271
F0.999109
s(lp272
g55
atp273
a(S'42'
p274
(dp275
S'NUM'
p276
F0.764287
sS'ADJ'
p277
F0.235485
s(lp278
g62
atp279
a(g64
(dp280
S'NOUN'
p281
F1.0
s(lp282
g64
atp283
a(S'der'
p284
(dp285
S'PRON'
p286
F5.3e-05
sS'DET'
p287
F0.99993
s(lp288
g129
atp289
a(S'fl\xc3\xa4che'
p290
(dp291
S'ADJ'
p292
F0.012768
sS'NOUN'
p293
F0.97189
s(lp294
g78
atp295
a(S'der'
p296
(dp297
S'PRON'
p298
F0.000793
sS'DET'
p299
F0.998699
s(lp300
g92
atp301
a(S'eu'
p302
(dp303
S'NOUN'
p304
F0.384901
sS'ADJ'
p305
F0.44884
s(lp306
g98
atp307
a(S'sind'
p308
(dp309
S'VERB'
p310
F1.0
s(lp311
g24
atp312
a(S'von'
p313
(dp314
S'NOUN'
p315
F0.000749
sS'ADP'
p316
F0.999251
s(lp317
g8
atp318
a(S'w\xc3\xa4ldern'
p319
(dp320
S'ADJ'
p321
F0.000854
sS'NOUN'
p322
F0.999012
s(lp323
g15
atp324
a(S'bedeckt'
p325
(dp326
S'VERB'
p327
F0.966131
s(lp328
g42
atp329
a(g17
(dp330
g17
F1.0
s(lp331
g17
atp332
asS'it'
p333
(lp334
(S'le'
p335
(dp336
S'PRON'
p337
F0.000148
sS'DET'
p338
F0.999852
s(lp339
tp340
a(S'foreste'
p341
(dp342
S'NOUN'
p343
F1.0
s(lp344
g15
atp345
a(S'coprono'
p346
(dp347
S'VERB'
p348
F1.0
s(lp349
g42
atp350
a(S'oltre'
p351
(dp352
S'ADV'
p353
F0.930994
sS'CONJ'
p354
F0.041572
sS'ADP'
p355
F0.027434
s(lp356
g55
atp357
a(S'il'
p358
(dp359
S'DET'
p360
F1.0
s(lp361
g64
atp362
a(S'42'
p363
(dp364
S'NUM'
p365
F0.996498
sg17
F0.003502
s(lp366
g62
atp367
a(S'per'
p368
(dp369
S'CONJ'
p370
F0.017251
sS'ADP'
p371
F0.982749
s(lp372
tp373
a(S'cento'
p374
(dp375
S'NOUN'
p376
F0.014843
sS'NUM'
p377
F0.000217
sS'ADJ'
p378
F0.98494
s(lp379
g64
atp380
a(S'della'
p381
(dp382
S'DEF'
p383
F0.002704
sS'ADP'
p384
F0.997296
s(lp385
g72
atp386
a(S'superficie'
p387
(dp388
S'NOUN'
p389
F1.0
s(lp390
g78
atp391
a(S"dell'"
p392
(dp393
S'ADJ'
p394
F0.040682
sS'VERB'
p395
F0.006560999999999999
sS'NOUN'
p396
F0.952757
s(lp397
g84
atp398
a(S'ue'
p399
(dp400
S'ADJ'
p401
F0.002294
sS'VERB'
p402
F0.022245999999999995
sS'NOUN'
p403
F0.97546
s(lp404
g98
atp405
a(g17
(dp406
g17
F1.0
s(lp407
g17
atp408
asS'sk'
p409
(lp410
(S'lesy'
p411
(dp412
S'NOUN'
p413
F1.0
s(lp414
g15
atp415
a(S'pokr\xc3\xbdvaj\xc3\xba'
p416
(dp417
S'VERB'
p418
F1.0
s(lp419
g42
atp420
a(S'viac'
p421
(dp422
S'ADV'
p423
F0.894333
sg59
F0.005207
sS'CONJ'
p424
F0.002512
sS'NUM'
p425
F0.09794699999999999
s(lp426
g49
atp427
a(S'ne\xc5\xbe'
p428
(dp429
S'CONJ'
p430
F1.0
s(lp431
g55
atp432
a(S'42'
p433
(dp434
S'NUM'
p435
F1.0
s(lp436
g62
atp437
a(g64
(dp438
g59
F0.910519
sg17
F0.089481
s(lp439
g64
atp440
a(S'\xc3\xbazemia'
p441
(dp442
S'NOUN'
p443
F1.0
s(lp444
g78
atp445
a(S'\xc3\x9anie'
p446
(dp447
S'NOUN'
p448
F1.0
s(lp449
g98
atp450
a(g17
(dp451
g17
F1.0
s(lp452
g17
atp453
asS'pl'
p454
(lp455
(S'ponad'
p456
(dp457
S'PRT'
p458
F0.997265
sS'ADP'
p459
F0.0027350000000000005
s(lp460
g55
atp461
a(S'42'
p462
(dp463
S'NUM'
p464
F0.9980870000000002
sS'ADJ'
p465
F0.001913
s(lp466
g62
atp467
a(g64
(dp468
S'NOUN'
p469
F0.9999999999999999
s(lp470
g64
atp471
a(S'terytorium'
p472
(dp473
S'NOUN'
p474
F1.0
s(lp475
g78
atp476
a(S'unii'
p477
(dp478
S'NOUN'
p479
F1.0
s(lp480
g98
atp481
a(S'pokrywaj\xc4\x85'
p482
(dp483
S'VERB'
p484
F1.0
s(lp485
g42
atp486
a(S'lasy'
p487
(dp488
S'NOUN'
p489
F1.0
s(lp490
g15
atp491
a(g17
(dp492
g17
F1.0
s(lp493
g17
atp494
asS'sl'
p495
(lp496
(S've\xc4\x8d'
p497
(dp498
S'ADV'
p499
F0.957118
sS'PRT'
p500
F0.042882
s(lp501
g49
atp502
a(S'kot'
p503
(dp504
S'CONJ'
p505
F0.998304
sS'NOUN'
p506
F0.001696
s(lp507
g55
atp508
a(S'42'
p509
(dp510
S'NUM'
p511
F1.0
s(lp512
g62
atp513
a(g64
(dp514
g17
F1.0
s(lp515
g64
atp516
a(S'ozemlja'
p517
(dp518
S'NOUN'
p519
F1.0
s(lp520
g78
atp521
a(S'unije'
p522
(dp523
S'NOUN'
p524
F1.0
s(lp525
g98
atp526
a(S'pokrivajo'
p527
(dp528
S'VERB'
p529
F1.0
s(lp530
g42
atp531
a(S'gozdovi'
p532
(dp533
S'NOUN'
p534
F1.0
s(lp535
g15
atp536
a(g17
(dp537
g17
F1.0
s(lp538
g17
atp539
asS'es'
p540
(lp541
(S'm\xc3\xa1s'
p542
(dp543
S'ADV'
p544
F0.999996
sS'CONJ'
p545
F4e-06
s(lp546
g49
atp547
a(S'del'
p548
(dp549
S'ADP'
p550
F1.0
s(lp551
g55
atp552
a(S'42'
p553
(dp554
g59
F0.0
sS'NUM'
p555
F1.0
s(lp556
g62
atp557
a(g64
(dp558
g17
F1.0
s(lp559
g64
atp560
a(S'del'
p561
(dp562
S'ADP'
p563
F1.0
s(lp564
g72
atp565
a(S'territorio'
p566
(dp567
S'NOUN'
p568
F1.0
s(lp569
g78
atp570
a(S'de'
p571
(dp572
g59
F0.0
sS'CONJ'
p573
F1.7e-05
sS'ADP'
p574
F0.999983
s(lp575
g84
atp576
a(S'la'
p577
(dp578
g59
F0.0
sS'PRON'
p579
F0.0
sS'DET'
p580
F0.999999
sS'NOUN'
p581
F0.0
s(lp582
g92
atp583
a(S'uni\xc3\xb3n'
p584
(dp585
S'NOUN'
p586
F1.0
s(lp587
g98
atp588
a(S'est\xc3\xa1'
p589
(dp590
S'VERB'
p591
F1.0
s(lp592
g24
atp593
a(S'cubierto'
p594
(dp595
S'VERB'
p596
F1.0
s(lp597
g42
atp598
a(S'por'
p599
(dp600
S'ADP'
p601
F1.0
s(lp602
g8
atp603
a(S'bosque'
p604
(dp605
S'NOUN'
p606
F1.0
s(lp607
g15
atp608
a(g17
(dp609
g17
F1.0
s(lp610
g17
atp611
as.