(dp0
S'fr'
p1
(lp2
(S'protection'
p3
(dp4
S'NOUN'
p5
F1.0
s(lp6
S'protection'
p7
atp8
a(S'des'
p9
(dp10
S'DET'
p11
F2.1e-05
sS'ADP'
p12
F0.999979
s(lp13
S'of'
p14
atp15
a(S'minorit\xc3\xa9s'
p16
(dp17
S'NOUN'
p18
F1.0
s(lp19
S'minorities'
p20
atp21
a(S'traditionnelles'
p22
(dp23
S'ADJ'
p24
F1.0
s(lp25
g20
atp26
a(S'nationales'
p27
(dp28
S'ADJ'
p29
F0.323076
sS'NOUN'
p30
F0.676924
s(lp31
g20
atp32
a(S','
p33
(dp34
S'.'
p35
F1.0
s(lp36
tp37
a(S'ethniques'
p38
(dp39
S'ADJ'
p40
F1.0
s(lp41
tp42
a(S'et'
p43
(dp44
S'CONJ'
p45
F1.0
s(lp46
tp47
a(S'immigrantes'
p48
(dp49
S'NOUN'
p50
F0.113767
sS'ADJ'
p51
F0.886233
s(lp52
g20
atp53
a(S'en'
p54
(dp55
S'PRON'
p56
F0.002459
sS'ADP'
p57
F0.997541
s(lp58
S'in'
p59
atp60
a(S'europe'
p61
(dp62
S'VERB'
p63
F0.002286
sS'NOUN'
p64
F0.997713
s(lp65
S'europe'
p66
atp67
a(S'('
p68
(dp69
g35
F1.0
s(lp70
g68
atp71
a(S'd\xc3\xa9bat'
p72
(dp73
S'VERB'
p74
F0.095854
sS'NOUN'
p75
F0.904146
s(lp76
S'debate'
p77
atp78
a(S')'
p79
(dp80
g35
F1.0
s(lp81
g79
atp82
asS'en'
p83
(lp84
(g7
(dp85
S'NOUN'
p86
F1.0
s(lp87
g7
atp88
a(g14
(dp89
S'ADP'
p90
F1.0
s(lp91
g14
atp92
a(g20
(dp93
S'NOUN'
p94
F1.0
s(lp95
g20
atp96
a(g59
(dp97
S'ADV'
p98
F0.000164
sS'PRT'
p99
F0.00017
sS'ADP'
p100
F0.999666
s(lp101
g59
atp102
a(g66
(dp103
S'ADV'
p104
F3.9e-05
sS'ADJ'
p105
F0.011068
sS'VERB'
p106
F1.1e-05
sS'NOUN'
p107
F0.988882
s(lp108
g66
atp109
a(g68
(dp110
g35
F1.0
s(lp111
g68
atp112
a(g77
(dp113
S'VERB'
p114
F0.035352
sS'NOUN'
p115
F0.964648
s(lp116
g77
atp117
a(g79
(dp118
g35
F1.0
s(lp119
g79
atp120
asS'nl'
p121
(lp122
(S'bescherming'
p123
(dp124
S'NOUN'
p125
F1.0
s(lp126
g7
atp127
a(S'van'
p128
(dp129
S'ADP'
p130
F1.0
s(lp131
tp132
a(S'van'
p133
(dp134
S'ADP'
p135
F1.0
s(lp136
g14
atp137
a(S'oudsher'
p138
(dp139
S'ADV'
p140
F1.0
s(lp141
g20
atp142
a(S'bestaande'
p143
(dp144
S'NOUN'
p145
F0.002401
sS'VERB'
p146
F0.190697
sS'ADJ'
p147
F0.806902
s(lp148
g20
atp149
a(S'nationale'
p150
(dp151
S'NOUN'
p152
F0.153492
sS'ADJ'
p153
F0.846508
s(lp154
g20
atp155
a(g33
(dp156
g35
F1.0
s(lp157
tp158
a(S'etnische'
p159
(dp160
S'NOUN'
p161
F0.070282
sS'ADJ'
p162
F0.929718
s(lp163
tp164
a(S'en'
p165
(dp166
S'CONJ'
p167
F1.0
s(lp168
tp169
a(S'immigrantenminderheden'
p170
(dp171
S'NOUN'
p172
F1.0
s(lp173
g20
atp174
a(S'in'
p175
(dp176
S'ADV'
p177
F0.00024
sS'VERB'
p178
F0.0
sS'ADP'
p179
F0.99976
s(lp180
g59
atp181
a(S'europa'
p182
(dp183
S'NOUN'
p184
F0.999999
s(lp185
g66
atp186
a(g68
(dp187
g35
F1.0
s(lp188
g68
atp189
a(S'debat'
p190
(dp191
S'NOUN'
p192
F1.0
s(lp193
g77
atp194
a(g79
(dp195
g35
F1.0
s(lp196
g79
atp197
asS'de'
p198
(lp199
(S'schutz'
p200
(dp201
S'NOUN'
p202
F0.198068
sS'ADJ'
p203
F0.604797
s(lp204
g7
atp205
a(S'traditioneller'
p206
(dp207
S'ADJ'
p208
F1.0
s(lp209
g20
atp210
a(S'nationaler'
p211
(dp212
S'ADJ'
p213
F1.0
s(lp214
g20
atp215
a(g33
(dp216
g35
F1.0
s(lp217
tp218
a(S'ethnischer'
p219
(dp220
S'ADJ'
p221
F1.0
s(lp222
tp223
a(S'und'
p224
(dp225
S'CONJ'
p226
F1.0
s(lp227
tp228
a(S'einwandererminderheiten'
p229
(dp230
S'VERB'
p231
F0.256355
sS'NOUN'
p232
F0.736098
s(lp233
g20
atp234
a(S'in'
p235
(dp236
S'ADP'
p237
F1.0
s(lp238
g59
atp239
a(S'europa'
p240
(dp241
S'ADJ'
p242
F0.133549
sS'NOUN'
p243
F0.830618
s(lp244
g66
atp245
a(g68
(dp246
g35
F1.0
s(lp247
g68
atp248
a(S'aussprache'
p249
(dp250
S'VERB'
p251
F0.375477
sS'NOUN'
p252
F0.472564
s(lp253
g77
atp254
a(g79
(dp255
g35
F1.0
s(lp256
g79
atp257
asS'it'
p258
(lp259
(S'protezione'
p260
(dp261
S'NOUN'
p262
F1.0
s(lp263
g7
atp264
a(S'delle'
p265
(dp266
S'DEF'
p267
F0.001048
sS'ADP'
p268
F0.998952
s(lp269
tp270
a(S'minoranze'
p271
(dp272
S'NOUN'
p273
F1.0
s(lp274
g20
atp275
a(S'in'
p276
(dp277
S'ADP'
p278
F1.0
s(lp279
g59
atp280
a(S'europa'
p281
(dp282
S'NOUN'
p283
F0.255598
sS'VERB'
p284
F0.008687
sS'ADJ'
p285
F0.735715
s(lp286
g66
atp287
a(g68
(dp288
g35
F1.0
s(lp289
g68
atp290
a(S'discussione'
p291
(dp292
S'NOUN'
p293
F1.0
s(lp294
g77
atp295
a(g79
(dp296
g35
F1.0
s(lp297
g79
atp298
asS'sk'
p299
(lp300
(S'ochrana'
p301
(dp302
S'NOUN'
p303
F1.0
s(lp304
g7
atp305
a(S'tradi\xc4\x8dn\xc3\xbdch'
p306
(dp307
S'ADJ'
p308
F1.0
s(lp309
g20
atp310
a(S'n\xc3\xa1rodnostn\xc3\xbdch'
p311
(dp312
S'ADJ'
p313
F1.0
s(lp314
g20
atp315
a(g33
(dp316
g35
F1.0
s(lp317
tp318
a(S'etnick\xc3\xbdch'
p319
(dp320
S'ADJ'
p321
F1.0
s(lp322
g20
atp323
a(S'a'
p324
(dp325
S'X'
p326
F0.00047799999999999996
sS'CONJ'
p327
F0.998379
sS'NOUN'
p328
F0.001055
sS'ADP'
p329
F7.2e-05
sS'PRT'
p330
F1.6e-05
s(lp331
tp332
a(S'pris\xc5\xa5ahovaleck\xc3\xbdch'
p333
(dp334
S'ADJ'
p335
F1.0
s(lp336
tp337
a(S'men\xc5\xa1\xc3\xadn'
p338
(dp339
S'NOUN'
p340
F1.0
s(lp341
g20
atp342
a(S'v'
p343
(dp344
g326
F0.000112
sS'ADP'
p345
F0.999888
s(lp346
g59
atp347
a(S'eur\xc3\xb3pe'
p348
(dp349
S'NOUN'
p350
F1.0
s(lp351
g66
atp352
a(g68
(dp353
g35
F1.0
s(lp354
g68
atp355
a(S'rozprava'
p356
(dp357
S'NOUN'
p358
F1.0
s(lp359
g77
atp360
a(g79
(dp361
g35
F1.0
s(lp362
g79
atp363
asS'pl'
p364
(lp365
(S'ochrona'
p366
(dp367
S'NOUN'
p368
F1.0
s(lp369
g7
atp370
a(S'mniejszo\xc5\x9bci'
p371
(dp372
S'NOUN'
p373
F1.0
s(lp374
g20
atp375
a(S'w'
p376
(dp377
g326
F0.0
sS'ADJ'
p378
F5e-06
sS'ADP'
p379
F0.999994
sS'NOUN'
p380
F0.0
s(lp381
g59
atp382
a(S'europie'
p383
(dp384
S'ADV'
p385
F1.6e-05
sS'ADJ'
p386
F0.000172
sS'VERB'
p387
F1e-06
sS'NOUN'
p388
F0.9998099999999999
s(lp389
g66
atp390
a(g68
(dp391
S'NOUN'
p392
F6.5e-05
sg35
F0.999935
s(lp393
g68
atp394
a(S'debata'
p395
(dp396
S'NOUN'
p397
F1.0
s(lp398
g77
atp399
a(g79
(dp400
g35
F1.0
s(lp401
g79
atp402
asS'sl'
p403
(lp404
(S'varstvo'
p405
(dp406
S'NOUN'
p407
F1.0
s(lp408
g7
atp409
a(S'tradicionalnih'
p410
(dp411
S'ADJ'
p412
F1.0
s(lp413
g20
atp414
a(S'nacionalnih'
p415
(dp416
S'ADJ'
p417
F1.0
s(lp418
g20
atp419
a(g33
(dp420
g35
F1.0
s(lp421
tp422
a(S'etni\xc4\x8dnih'
p423
(dp424
S'ADJ'
p425
F1.0
s(lp426
g20
atp427
a(S'in'
p428
(dp429
S'ADV'
p430
F5.4e-05
sg326
F1e-06
sS'CONJ'
p431
F0.999939
sS'NOUN'
p432
F6e-06
s(lp433
tp434
a(S'priseljenskih'
p435
(dp436
S'ADV'
p437
F7.1e-05
sS'NOUN'
p438
F0.002582
sS'VERB'
p439
F8.899999999999998e-05
sS'ADJ'
p440
F0.9972559999999999
s(lp441
tp442
a(S'manj\xc5\xa1in'
p443
(dp444
S'NOUN'
p445
F1.0
s(lp446
g20
atp447
a(g343
(dp448
S'ADP'
p449
F1.0
s(lp450
g59
atp451
a(S'evropi'
p452
(dp453
S'ADV'
p454
F0.001275
sS'ADJ'
p455
F0.033352
sS'VERB'
p456
F0.004886000000000001
sS'NOUN'
p457
F0.9604870000000001
s(lp458
g66
atp459
a(g68
(dp460
g35
F1.0
s(lp461
g68
atp462
a(S'razprava'
p463
(dp464
S'NOUN'
p465
F1.0
s(lp466
g77
atp467
a(g79
(dp468
g35
F1.0
s(lp469
g79
atp470
asS'es'
p471
(lp472
(S'protecci\xc3\xb3n'
p473
(dp474
S'NOUN'
p475
F1.0
s(lp476
g7
atp477
a(S'de'
p478
(dp479
g326
F0.0
sS'CONJ'
p480
F1.7e-05
sS'ADP'
p481
F0.999983
s(lp482
g14
atp483
a(S'las'
p484
(dp485
S'PRON'
p486
F0.0
sS'DET'
p487
F1.0
s(lp488
g20
atp489
a(S'minor\xc3\xadas'
p490
(dp491
S'NOUN'
p492
F1.0
s(lp493
g20
atp494
a(S'nacionales'
p495
(dp496
S'ADJ'
p497
F1.0
s(lp498
g20
atp499
a(S'tradicionales'
p500
(dp501
S'ADJ'
p502
F1.0
s(lp503
g20
atp504
a(g33
(dp505
g35
F1.0
s(lp506
tp507
a(S'\xc3\xa9tnicas'
p508
(dp509
S'ADJ'
p510
F1.0
s(lp511
g20
atp512
a(S'e'
p513
(dp514
g326
F0.025469
sS'CONJ'
p515
F0.963608
sS'ADP'
p516
F0.010923
s(lp517
tp518
a(S'inmigrantes'
p519
(dp520
S'NOUN'
p521
F1.0
s(lp522
g20
atp523
a(S'en'
p524
(dp525
g326
F1.8e-05
sS'CONJ'
p526
F1e-05
sS'ADP'
p527
F0.999972
s(lp528
g59
atp529
a(S'europa'
p530
(dp531
S'NOUN'
p532
F1.0
s(lp533
g66
atp534
a(g68
(dp535
g35
F1.0
s(lp536
g68
atp537
a(S'debate'
p538
(dp539
S'VERB'
p540
F1.0
s(lp541
g77
atp542
a(g79
(dp543
g35
F1.0
s(lp544
g79
atp545
as.