(dp0
S'fr'
p1
(lp2
(S'ce'
p3
(dp4
S'PRON'
p5
F1.0
s(lp6
S'the'
p7
atp8
a(S'projet'
p9
(dp10
S'NOUN'
p11
F1.0
s(lp12
S'plan'
p13
atp14
a(S'est'
p15
(dp16
S'VERB'
p17
F0.999873
sS'NOUN'
p18
F0.000127
s(lp19
tp20
a(S'peut-\xc3\xaatre'
p21
(dp22
S'ADV'
p23
F1.0
s(lp24
S'may'
p25
atp26
a(S'en'
p27
(dp28
S'PRON'
p29
F0.001028
sS'ADP'
p30
F0.998972
s(lp31
tp32
a(S'effet'
p33
(dp34
S'NOUN'
p35
F1.0
s(lp36
S'be'
p37
atp38
a(S'fond\xc3\xa9'
p39
(dp40
S'VERB'
p41
F0.954259
sS'ADJ'
p42
F0.045741
s(lp43
S'based'
p44
atp45
a(S'sur'
p46
(dp47
S'ADP'
p48
F1.0
s(lp49
S'on'
p50
atp51
a(S'une'
p52
(dp53
S'NOUN'
p54
F0.001505
sS'NUM'
p55
F0.005311
sS'DET'
p56
F0.993184
s(lp57
S'a'
p58
atp59
a(S'bonne'
p60
(dp61
S'ADV'
p62
F0.001305
sS'NOUN'
p63
F0.008137
sS'ADJ'
p64
F0.990558
s(lp65
S'good'
p66
atp67
a(S'id\xc3\xa9e'
p68
(dp69
S'VERB'
p70
F0.003419
sS'NOUN'
p71
F0.996581
s(lp72
S'idea'
p73
atp74
a(S'-'
p75
(dp76
S'.'
p77
F1.0
s(lp78
g75
atp79
a(S'\xc3\xa0'
p80
(dp81
S'ADP'
p82
F1.0
s(lp83
tp84
a(S'savoir'
p85
(dp86
S'VERB'
p87
F0.994008
sS'NOUN'
p88
F0.005992
s(lp89
S'namely'
p90
atp91
a(S'la'
p92
(dp93
S'PRON'
p94
F7e-06
sS'DET'
p95
F0.999993
sS'NOUN'
p96
F0.0
s(lp97
S'the'
p98
atp99
a(S'capacit\xc3\xa9'
p100
(dp101
S'NOUN'
p102
F1.0
s(lp103
S'ability'
p104
atp105
a(S'de'
p106
(dp107
S'ADP'
p108
F1.0
s(lp109
S'to'
p110
atp111
a(S'r\xc3\xa9agir'
p112
(dp113
S'VERB'
p114
F1.0
s(lp115
tp116
a(S'en'
p117
(dp118
S'PRON'
p119
F0.000572
sS'ADP'
p120
F0.999428
s(lp121
tp122
a(S'cas'
p123
(dp124
S'NOUN'
p125
F1.0
s(lp126
S'react'
p127
atp128
a(S'de'
p129
(dp130
S'ADP'
p131
F1.0
s(lp132
S'to'
p133
atp134
a(S'rupture'
p135
(dp136
S'NOUN'
p137
F1.0
s(lp138
tp139
a(S"d'"
p140
(dp141
S'NOUN'
p142
F0.032441
sS'VERB'
p143
F0.694014
sS'ADJ'
p144
F0.273544
s(lp145
S'bottlenecks'
p146
atp147
a(S'approvisionnement'
p148
(dp149
S'NOUN'
p150
F1.0
s(lp151
S'supply'
p152
atp153
a(g75
(dp154
g77
F1.0
s(lp155
g75
atp156
a(S'mais'
p157
(dp158
S'CONJ'
p159
F1.0
s(lp160
S'but'
p161
atp162
a(S'les'
p163
(dp164
S'PRON'
p165
F2.3e-05
sS'DET'
p166
F0.999884
sS'ADP'
p167
F9.3e-05
s(lp168
S'the'
p169
atp170
a(S'\xc3\x89tats'
p171
(dp172
S'NOUN'
p173
F1.0
s(lp174
S'states'
p175
atp176
a(S'membres'
p177
(dp178
S'VERB'
p179
F0.016281
sS'NOUN'
p180
F0.983719
s(lp181
S'member'
p182
atp183
a(S'ont'
p184
(dp185
S'VERB'
p186
F1.0
s(lp187
tp188
a(S'd\xc3\xa9j\xc3\xa0'
p189
(dp190
S'ADV'
p191
F1.0
s(lp192
S'already'
p193
atp194
a(S'failli'
p195
(dp196
S'NOUN'
p197
F0.00518
sS'VERB'
p198
F0.949542
sS'ADJ'
p199
F0.045277
s(lp200
S'failed'
p201
atp202
a(S'\xc3\xa0'
p203
(dp204
S'ADP'
p205
F1.0
s(lp206
S'to'
p207
atp208
a(S'leurs'
p209
(dp210
S'PRON'
p211
F1.0
s(lp212
S'their'
p213
atp214
a(S'obligations'
p215
(dp216
S'NOUN'
p217
F1.0
s(lp218
tp219
a(S'de'
p220
(dp221
S'ADP'
p222
F1.0
s(lp223
tp224
a(S'rapport'
p225
(dp226
S'NOUN'
p227
F1.0
s(lp228
S'reporting'
p229
atp230
a(S'pr\xc3\xa9vues'
p231
(dp232
S'VERB'
p233
F0.851307
sS'ADJ'
p234
F0.148693
s(lp235
S'obligations'
p236
atp237
a(S'par'
p238
(dp239
S'NOUN'
p240
F8e-06
sS'ADP'
p241
F0.999992
s(lp242
S'under'
p243
atp244
a(S"l'"
p245
(dp246
S'ADJ'
p247
F0.160705
sS'VERB'
p248
F0.06481399999999997
sS'NOUN'
p249
F0.774482
s(lp250
S'the'
p251
atp252
a(S'ancien'
p253
(dp254
S'NOUN'
p255
F0.001076
sS'ADJ'
p256
F0.998924
s(lp257
S'old'
p258
atp259
a(S'r\xc3\xa8glement'
p260
(dp261
S'NOUN'
p262
F1.0
s(lp263
S'regulation'
p264
atp265
a(g77
(dp266
g77
F1.0
s(lp267
g77
atp268
asS'en'
p269
(lp270
(g7
(dp271
S'NOUN'
p272
F3e-06
sS'DET'
p273
F0.999997
s(lp274
g7
atp275
a(S'whole'
p276
(dp277
S'ADV'
p278
F1.3e-05
sS'NOUN'
p279
F0.091483
sS'ADJ'
p280
F0.908496
sS'PRT'
p281
F8e-06
s(lp282
g276
atp283
a(g13
(dp284
S'VERB'
p285
F0.000639
sS'NOUN'
p286
F0.999362
s(lp287
g13
atp288
a(g25
(dp289
S'VERB'
p290
F0.999998
sS'NOUN'
p291
F2e-06
s(lp292
g25
atp293
a(S'well'
p294
(dp295
S'ADV'
p296
F0.999994
sS'X'
p297
F0.0
sS'VERB'
p298
F1e-06
sS'NOUN'
p299
F5e-06
s(lp300
g294
atp301
a(g37
(dp302
S'VERB'
p303
F1.0
s(lp304
g37
atp305
a(g44
(dp306
S'VERB'
p307
F1.0
s(lp308
g44
atp309
a(g50
(dp310
S'ADV'
p311
F0.000936
sS'PRT'
p312
F0.007107
sS'ADJ'
p313
F0.0
sS'NOUN'
p314
F0.0
sS'ADP'
p315
F0.991957
s(lp316
g50
atp317
a(g58
(dp318
S'NOUN'
p319
F0.0
sS'DET'
p320
F1.0
s(lp321
g58
atp322
a(g66
(dp323
S'ADV'
p324
F4.1e-05
sS'NOUN'
p325
F0.008308
sS'ADJ'
p326
F0.991651
s(lp327
g66
atp328
a(g73
(dp329
S'NOUN'
p330
F1.0
s(lp331
g73
atp332
a(g75
(dp333
g77
F1.0
s(lp334
g75
atp335
a(g90
(dp336
S'ADV'
p337
F1.0
s(lp338
g90
atp339
a(g98
(dp340
S'NOUN'
p341
F1e-06
sS'DET'
p342
F0.999999
s(lp343
g98
atp344
a(g104
(dp345
S'NOUN'
p346
F1.0
s(lp347
g104
atp348
a(g110
(dp349
S'ADV'
p350
F0.0
sS'PRT'
p351
F1.0
sS'ADP'
p352
F0.0
s(lp353
g110
atp354
a(g127
(dp355
S'VERB'
p356
F1.0
s(lp357
g127
atp358
a(g133
(dp359
S'ADV'
p360
F0.0
sS'PRT'
p361
F1.0
sS'ADP'
p362
F0.0
s(lp363
g133
atp364
a(g152
(dp365
S'ADV'
p366
F1.5e-05
sS'VERB'
p367
F0.924402
sS'NOUN'
p368
F0.075583
s(lp369
g152
atp370
a(g146
(dp371
S'VERB'
p372
F0.002464
sS'NOUN'
p373
F0.997536
s(lp374
g146
atp375
a(g75
(dp376
g77
F1.0
s(lp377
g75
atp378
a(g161
(dp379
S'ADV'
p380
F0.002487
sS'CONJ'
p381
F0.997513
sS'NOUN'
p382
F0.0
s(lp383
g161
atp384
a(g169
(dp385
S'NOUN'
p386
F2e-06
sS'DET'
p387
F0.999998
s(lp388
g169
atp389
a(g182
(dp390
S'NOUN'
p391
F1.0
s(lp392
g182
atp393
a(g175
(dp394
S'VERB'
p395
F0.089485
sS'NOUN'
p396
F0.910515
s(lp397
g175
atp398
a(g193
(dp399
S'ADV'
p400
F1.0
s(lp401
g193
atp402
a(g201
(dp403
S'VERB'
p404
F0.9859490000000001
sS'ADJ'
p405
F0.014051
s(lp406
g201
atp407
a(g207
(dp408
S'ADV'
p409
F0.0
sS'PRT'
p410
F1.0
sS'ADP'
p411
F0.0
s(lp412
g207
atp413
a(S'comply'
p414
(dp415
S'VERB'
p416
F1.0
s(lp417
g414
atp418
a(S'with'
p419
(dp420
S'ADP'
p421
F1.0
s(lp422
g419
atp423
a(g213
(dp424
S'PRON'
p425
F1.0
s(lp426
g213
atp427
a(g229
(dp428
S'VERB'
p429
F0.190706
sS'NOUN'
p430
F0.809294
s(lp431
g229
atp432
a(g236
(dp433
S'NOUN'
p434
F1.0
s(lp435
g236
atp436
a(g243
(dp437
S'ADV'
p438
F0.000184
sS'ADP'
p439
F0.999816
s(lp440
g243
atp441
a(g251
(dp442
S'NOUN'
p443
F1e-06
sS'DET'
p444
F0.999999
s(lp445
g251
atp446
a(g258
(dp447
S'NOUN'
p448
F0.000331
sS'ADJ'
p449
F0.999669
s(lp450
g258
atp451
a(g264
(dp452
S'NOUN'
p453
F1.0
s(lp454
g264
atp455
a(g77
(dp456
g77
F1.0
s(lp457
g77
atp458
asS'nl'
p459
(lp460
(S'schriftelijk'
p461
(dp462
S'ADJ'
p463
F1.0
s(lp464
g7
atp465
a(g77
(dp466
g77
F1.0
s(lp467
g75
atp468
a(g75
(dp469
g77
F1.0
s(lp470
g75
atp471
a(S'('
p472
(dp473
g77
F1.0
s(lp474
g75
atp475
a(S'de'
p476
(dp477
S'DET'
p478
F1.0
s(lp479
tp480
a(S')'
p481
(dp482
g77
F1.0
s(lp483
tp484
a(S'het'
p485
(dp486
S'PRON'
p487
F0.0414
sS'DET'
p488
F0.9586
s(lp489
g7
atp490
a(S'hele'
p491
(dp492
S'NOUN'
p493
F8e-05
sS'ADJ'
p494
F0.99992
s(lp495
g276
atp496
a(S'plan'
p497
(dp498
S'VERB'
p499
F0.000176
sS'NOUN'
p500
F0.999824
s(lp501
g13
atp502
a(S'mag'
p503
(dp504
S'VERB'
p505
F1.0
s(lp506
tp507
a(S'dan'
p508
(dp509
S'ADV'
p510
F0.807864
sS'CONJ'
p511
F0.192136
s(lp512
g25
atp513
a(S'wel'
p514
(dp515
S'ADV'
p516
F0.999973
sg297
F0.0
sS'VERB'
p517
F2.2e-05
sS'NOUN'
p518
F5e-06
s(lp519
g294
atp520
a(S'gebaseerd'
p521
(dp522
S'VERB'
p523
F1.0
s(lp524
g44
atp525
a(S'zijn'
p526
(dp527
S'PRON'
p528
F7e-06
sS'VERB'
p529
F0.9974099999999999
sS'NOUN'
p530
F0.002584
s(lp531
g37
atp532
a(S'op'
p533
(dp534
S'ADV'
p535
F0.016418
sS'ADJ'
p536
F0.0
sS'ADP'
p537
F0.983582
s(lp538
g50
atp539
a(S'een'
p540
(dp541
S'ADJ'
p542
F1e-06
sS'PRON'
p543
F0.000438
sS'NUM'
p544
F1e-06
sS'DET'
p545
F0.999561
s(lp546
g58
atp547
a(S'goed'
p548
(dp549
S'ADV'
p550
F4.5e-05
sS'NOUN'
p551
F0.175123
sS'ADJ'
p552
F0.824833
s(lp553
g66
atp554
a(S'idee'
p555
(dp556
S'NOUN'
p557
F1.0
s(lp558
g73
atp559
a(g75
(dp560
g77
F1.0
s(lp561
g75
atp562
a(S'namelijk'
p563
(dp564
S'ADV'
p565
F1.0
s(lp566
g90
atp567
a(S'de'
p568
(dp569
S'DET'
p570
F1.0
s(lp571
g98
atp572
a(S'mogelijkheid'
p573
(dp574
S'NOUN'
p575
F1.0
s(lp576
g104
atp577
a(S'om'
p578
(dp579
S'ADV'
p580
F0.127423
sS'CONJ'
p581
F0.871996
sS'ADP'
p582
F0.000581
s(lp583
tp584
a(S'te'
p585
(dp586
S'PRT'
p587
F1.0
s(lp588
g110
atp589
a(S'reageren'
p590
(dp591
S'VERB'
p592
F0.9999979999999999
sS'NOUN'
p593
F3e-06
s(lp594
tp595
a(S'op'
p596
(dp597
S'ADV'
p598
F0.000886
sS'ADJ'
p599
F4e-06
sS'ADP'
p600
F0.99911
s(lp601
g127
atp602
a(S'knelpunten'
p603
(dp604
S'NOUN'
p605
F1.0
s(lp606
g146
atp607
a(S'in'
p608
(dp609
S'ADV'
p610
F0.003438
sS'VERB'
p611
F2e-06
sS'ADP'
p612
F0.99656
s(lp613
g133
atp614
a(S'de'
p615
(dp616
S'DET'
p617
F1.0
s(lp618
tp619
a(S'energievoorziening'
p620
(dp621
S'NOUN'
p622
F1.0
s(lp623
g152
atp624
a(g75
(dp625
g77
F1.0
s(lp626
g75
atp627
a(S'maar'
p628
(dp629
S'ADV'
p630
F0.043253
sS'CONJ'
p631
F0.956745
sS'NOUN'
p632
F1e-06
s(lp633
g161
atp634
a(S'de'
p635
(dp636
S'DET'
p637
F1.0
s(lp638
g169
atp639
a(S'lidstaten'
p640
(dp641
S'NOUN'
p642
F1.0
s(lp643
g182
atp644
a(S'zijn'
p645
(dp646
S'PRON'
p647
F0.000594
sS'VERB'
p648
F0.999215
sS'NOUN'
p649
F0.000191
s(lp650
tp651
a(S'onder'
p652
(dp653
S'ADV'
p654
F9.1e-05
sS'ADP'
p655
F0.999909
s(lp656
g243
atp657
a(S'de'
p658
(dp659
S'DET'
p660
F1.0
s(lp661
g251
atp662
a(S'oude'
p663
(dp664
S'NOUN'
p665
F0.000264
sS'ADJ'
p666
F0.999736
s(lp667
g258
atp668
a(S'verordening'
p669
(dp670
S'NOUN'
p671
F1.0
s(lp672
g264
atp673
a(S'hun'
p674
(dp675
S'PRON'
p676
F1.0
s(lp677
g213
atp678
a(S'meldingsplicht'
p679
(dp680
S'NOUN'
p681
F1.0
s(lp682
g229
atp683
a(S'al'
p684
(dp685
S'ADV'
p686
F0.966122
sS'PRON'
p687
F0.000944
sS'CONJ'
p688
F0.032935
s(lp689
g193
atp690
a(S'niet'
p691
(dp692
S'ADV'
p693
F0.999994
sS'PRON'
p694
F4e-06
sS'VERB'
p695
F2e-06
sg297
F0.0
s(lp696
g201
atp697
a(S'nagekomen'
p698
(dp699
S'VERB'
p700
F1.0
s(lp701
g236
atp702
a(g77
(dp703
g77
F1.0
s(lp704
g77
atp705
asS'de'
p706
(lp707
(S'schriftlich'
p708
(dp709
S'ADJ'
p710
F1.0
s(lp711
g98
atp712
a(g77
(dp713
g77
F1.0
s(lp714
g75
atp715
a(g75
(dp716
g77
F1.0
s(lp717
g75
atp718
a(S'dem'
p719
(dp720
S'PRON'
p721
F0.005883
sS'DET'
p722
F0.98862
s(lp723
g7
atp724
a(S'ganzen'
p725
(dp726
S'ADJ'
p727
F1.0
s(lp728
g276
atp729
a(S'vorhaben'
p730
(dp731
S'VERB'
p732
F1.0
s(lp733
g13
atp734
a(S'mag'
p735
(dp736
S'VERB'
p737
F1.0
s(lp738
g25
atp739
a(S'zwar'
p740
(dp741
S'ADV'
p742
F1.0
s(lp743
g294
atp744
a(S'ein'
p745
(dp746
S'NUM'
p747
F0.000768
sS'DET'
p748
F0.998478
s(lp749
g58
atp750
a(S'guter'
p751
(dp752
S'ADJ'
p753
F1.0
s(lp754
g66
atp755
a(S'gedanke'
p756
(dp757
S'ADJ'
p758
F0.036338
sS'NOUN'
p759
F0.951791
s(lp760
g73
atp761
a(g75
(dp762
g77
F1.0
s(lp763
g75
atp764
a(S'n\xc3\xa4mlich'
p765
(dp766
S'ADV'
p767
F1.0
s(lp768
g90
atp769
a(S'auf'
p770
(dp771
S'PRT'
p772
F0.001728
sS'ADP'
p773
F0.998242
s(lp774
g50
atp775
a(S'versorgungsengp\xc3\xa4sse'
p776
(dp777
S'ADJ'
p778
F0.011639
sS'NOUN'
p779
F0.987464
s(lp780
g146
atp781
a(S'reagieren'
p782
(dp783
S'VERB'
p784
F1.0
s(lp785
g127
atp786
a(S'zu'
p787
(dp788
S'PRT'
p789
F0.99971
s(lp790
g110
atp791
a(S'k\xc3\xb6nnen'
p792
(dp793
S'VERB'
p794
F0.999553
s(lp795
g104
atp796
a(g75
(dp797
g77
F1.0
s(lp798
tp799
a(S'zugrunde'
p800
(dp801
S'ADV'
p802
F0.99875
sS'ADJ'
p803
F0.000857
s(lp804
g44
atp805
a(S'liegen'
p806
(dp807
S'VERB'
p808
F0.9879910000000001
s(lp809
g37
atp810
a(S','
p811
(dp812
g77
F1.0
s(lp813
g75
atp814
a(S'doch'
p815
(dp816
S'ADV'
p817
F0.322464
sS'CONJ'
p818
F0.677536
s(lp819
g161
atp820
a(S'sind'
p821
(dp822
S'VERB'
p823
F1.0
s(lp824
tp825
a(S'die'
p826
(dp827
S'PRON'
p828
F0.003713
sS'DET'
p829
F0.996283
s(lp830
g169
atp831
a(S'mitgliedstaaten'
p832
(dp833
S'ADJ'
p834
F0.033325
sS'NOUN'
p835
F0.943671
s(lp836
g182
atp837
a(S'schon'
p838
(dp839
S'ADV'
p840
F0.999984
sS'VERB'
p841
F1.6e-05
s(lp842
g193
atp843
a(S'nach'
p844
(dp845
S'ADV'
p846
F0.011704
sS'ADP'
p847
F0.987963
s(lp848
g243
atp849
a(S'der'
p850
(dp851
S'PRON'
p852
F6.9e-05
sS'DET'
p853
F0.999925
s(lp854
g251
atp855
a(S'alten'
p856
(dp857
S'ADJ'
p858
F1.0
s(lp859
g258
atp860
a(S'verordnung'
p861
(dp862
S'ADJ'
p863
F7.6e-05
sS'NOUN'
p864
F0.999866
s(lp865
g264
atp866
a(S'nicht'
p867
(dp868
S'PRT'
p869
F1.0
s(lp870
g201
atp871
a(S'ihrer'
p872
(dp873
S'PRON'
p874
F0.9999450000000001
s(lp875
g213
atp876
a(S'meldepflicht'
p877
(dp878
S'ADJ'
p879
F0.210593
sS'NOUN'
p880
F0.676918
s(lp881
g229
atp882
a(S'nachgekommen'
p883
(dp884
S'VERB'
p885
F1.0
s(lp886
g236
atp887
a(g77
(dp888
g77
F1.0
s(lp889
g77
atp890
asS'it'
p891
(lp892
(S'per'
p893
(dp894
S'CONJ'
p895
F0.058991
sS'ADP'
p896
F0.941009
s(lp897
tp898
a(S'quanto'
p899
(dp900
S'ADV'
p901
F0.032767
sS'PRON'
p902
F0.966885
sS'ADJ'
p903
F0.000306
sS'NOUN'
p904
F4.2e-05
s(lp905
g50
atp906
a(S"l'"
p907
(dp908
S'NOUN'
p909
F0.002685
sS'VERB'
p910
F0.989338
sS'ADJ'
p911
F0.007977
s(lp912
g58
atp913
a(S'idea'
p914
(dp915
S'VERB'
p916
F0.039667
sS'NOUN'
p917
F0.960333
s(lp918
g73
atp919
a(S'alla'
p920
(dp921
S'ADP'
p922
F1.0
s(lp923
tp924
a(S'base'
p925
(dp926
S'NOUN'
p927
F1.0
s(lp928
g44
atp929
a(S"dell'"
p930
(dp931
S'ADJ'
p932
F0.040682
sS'VERB'
p933
F0.006560999999999999
sS'NOUN'
p934
F0.952757
s(lp935
g7
atp936
a(S'intero'
p937
(dp938
S'NOUN'
p939
F0.004087
sS'ADJ'
p940
F0.995913
s(lp941
g276
atp942
a(S'progetto'
p943
(dp944
S'VERB'
p945
F0.000847
sS'NOUN'
p946
F0.999153
s(lp947
g13
atp948
a(S'sia'
p949
(dp950
S'CONJ'
p951
F0.555257
sS'VERB'
p952
F0.444743
s(lp953
g37
atp954
a(S'buona'
p955
(dp956
S'NOUN'
p957
F0.025094
sS'ADJ'
p958
F0.974906
s(lp959
g66
atp960
a(g75
(dp961
g297
F0.0
sg77
F1.0
s(lp962
g75
atp963
a(S'e'
p964
(dp965
S'CONJ'
p966
F1.0
s(lp967
g294
atp968
a(S'mi'
p969
(dp970
S'PRON'
p971
F1.0
s(lp972
tp973
a(S'riferisco'
p974
(dp975
S'VERB'
p976
F1.0
s(lp977
g90
atp978
a(S'alla'
p979
(dp980
S'ADP'
p981
F1.0
s(lp982
g98
atp983
a(S'possibilit\xc3\xa0'
p984
(dp985
S'NOUN'
p986
F1.0
s(lp987
g104
atp988
a(S'di'
p989
(dp990
S'CONJ'
p991
F6e-06
sS'ADP'
p992
F0.999994
s(lp993
tp994
a(S'far'
p995
(dp996
S'VERB'
p997
F1.0
s(lp998
g110
atp999
a(S'fronte'
p1000
(dp1001
S'NOUN'
p1002
F1.0
s(lp1003
g127
atp1004
a(S'ad'
p1005
(dp1006
S'ADP'
p1007
F1.0
s(lp1008
g133
atp1009
a(S'interruzioni'
p1010
(dp1011
S'NOUN'
p1012
F1.0
s(lp1013
g146
atp1014
a(S'della'
p1015
(dp1016
S'DEF'
p1017
F0.001587
sS'ADP'
p1018
F0.998413
s(lp1019
tp1020
a(S'fornitura'
p1021
(dp1022
S'NOUN'
p1023
F1.0
s(lp1024
g152
atp1025
a(S'energetica'
p1026
(dp1027
S'ADJ'
p1028
F1.0
s(lp1029
g146
atp1030
a(g75
(dp1031
g297
F1e-06
sg77
F0.999999
s(lp1032
g75
atp1033
a(S'va'
p1034
(dp1035
S'VERB'
p1036
F1.0
s(lp1037
tp1038
a(S'ricordato'
p1039
(dp1040
S'VERB'
p1041
F1.0
s(lp1042
g146
atp1043
a(S'che'
p1044
(dp1045
S'PRON'
p1046
F0.911734
sS'CONJ'
p1047
F0.087701
sS'ADJ'
p1048
F0.000565
s(lp1049
g161
atp1050
a(S'gli'
p1051
(dp1052
S'PRON'
p1053
F0.097282
sS'DET'
p1054
F0.902718
s(lp1055
tp1056
a(S'stati'
p1057
(dp1058
S'VERB'
p1059
F0.471652
sS'NOUN'
p1060
F0.528348
s(lp1061
g175
atp1062
a(S'membri'
p1063
(dp1064
S'NOUN'
p1065
F1.0
s(lp1066
g182
atp1067
a(S'non'
p1068
(dp1069
S'ADV'
p1070
F1.0
s(lp1071
g201
atp1072
a(S'sono'
p1073
(dp1074
S'VERB'
p1075
F0.999971
sS'NOUN'
p1076
F2.9e-05
s(lp1077
g201
atp1078
a(S'stati'
p1079
(dp1080
S'VERB'
p1081
F0.997243
sS'NOUN'
p1082
F0.002757
s(lp1083
g201
atp1084
a(S'in'
p1085
(dp1086
S'ADP'
p1087
F1.0
s(lp1088
tp1089
a(S'grado'
p1090
(dp1091
S'NOUN'
p1092
F1.0
s(lp1093
tp1094
a(S'di'
p1095
(dp1096
S'CONJ'
p1097
F6e-06
sS'ADP'
p1098
F0.999994
s(lp1099
g207
atp1100
a(S'rispettare'
p1101
(dp1102
S'VERB'
p1103
F1.0
s(lp1104
g414
atp1105
a(S'gli'
p1106
(dp1107
S'PRON'
p1108
F1e-05
sS'DET'
p1109
F0.99999
s(lp1110
g213
atp1111
a(S'obblighi'
p1112
(dp1113
S'VERB'
p1114
F0.001462
sS'NOUN'
p1115
F0.998537
s(lp1116
g236
atp1117
a(S'di'
p1118
(dp1119
S'CONJ'
p1120
F4e-06
sS'ADP'
p1121
F0.999996
s(lp1122
g229
atp1123
a(S'informazione'
p1124
(dp1125
S'NOUN'
p1126
F1.0
s(lp1127
tp1128
a(S'nemmeno'
p1129
(dp1130
S'ADV'
p1131
F1.0
s(lp1132
g201
atp1133
a(S'quando'
p1134
(dp1135
S'ADV'
p1136
F0.439145
sS'PRON'
p1137
F4.5e-05
sS'CONJ'
p1138
F0.560706
sS'NOUN'
p1139
F0.000104
s(lp1140
g229
atp1141
a(S'era'
p1142
(dp1143
S'VERB'
p1144
F0.990456
sS'NOUN'
p1145
F0.009544
s(lp1146
g193
atp1147
a(S'in'
p1148
(dp1149
S'ADP'
p1150
F1.0
s(lp1151
tp1152
a(S'vigore'
p1153
(dp1154
S'NOUN'
p1155
F1.0
s(lp1156
g243
atp1157
a(S'il'
p1158
(dp1159
S'DET'
p1160
F1.0
s(lp1161
g251
atp1162
a(S'vecchio'
p1163
(dp1164
S'NOUN'
p1165
F0.045545
sS'ADJ'
p1166
F0.954455
s(lp1167
g258
atp1168
a(S'regolamento'
p1169
(dp1170
S'VERB'
p1171
F0.001066
sS'NOUN'
p1172
F0.998934
s(lp1173
g264
atp1174
a(g77
(dp1175
g77
F1.0
s(lp1176
g77
atp1177
asS'sk'
p1178
(lp1179
(S'cel\xc3\xbd'
p1180
(dp1181
S'ADJ'
p1182
F1.0
s(lp1183
g276
atp1184
a(S'pl\xc3\xa1n'
p1185
(dp1186
S'NOUN'
p1187
F1.0
s(lp1188
g13
atp1189
a(S'sa'
p1190
(dp1191
S'PRT'
p1192
F0.998876
sS'ADP'
p1193
F4e-06
sg297
F0.0011200000000000001
s(lp1194
tp1195
a(S's\xc3\xadce'
p1196
(dp1197
S'CONJ'
p1198
F1.0
s(lp1199
tp1200
a(S'm\xc3\xb4\xc5\xbee'
p1201
(dp1202
S'VERB'
p1203
F1.0
s(lp1204
g25
atp1205
a(S'zaklada\xc5\xa5'
p1206
(dp1207
S'VERB'
p1208
F1.0
s(lp1209
g44
atp1210
a(S'na'
p1211
(dp1212
g297
F3.4e-05
sS'CONJ'
p1213
F8e-06
sS'ADP'
p1214
F0.999954
sS'PRT'
p1215
F3e-06
s(lp1216
g50
atp1217
a(S'dobrej'
p1218
(dp1219
S'ADJ'
p1220
F1.0
s(lp1221
g66
atp1222
a(S'my\xc5\xa1lienke'
p1223
(dp1224
S'NOUN'
p1225
F1.0
s(lp1226
g73
atp1227
a(g811
(dp1228
g77
F1.0
s(lp1229
g75
atp1230
a(S'konkr\xc3\xa9tne'
p1231
(dp1232
S'ADV'
p1233
F0.952079
sS'ADJ'
p1234
F0.047921
s(lp1235
g90
atp1236
a(S'na'
p1237
(dp1238
g297
F0.0001
sS'CONJ'
p1239
F2.3e-05
sS'ADP'
p1240
F0.999846
sS'PRT'
p1241
F3.2e-05
s(lp1242
g98
atp1243
a(S'schopnosti'
p1244
(dp1245
S'NOUN'
p1246
F1.0
s(lp1247
g104
atp1248
a(S'reagova\xc5\xa5'
p1249
(dp1250
S'VERB'
p1251
F1.0
s(lp1252
g127
atp1253
a(S'na'
p1254
(dp1255
g297
F5.4e-05
sS'CONJ'
p1256
F8e-06
sS'ADP'
p1257
F0.99993
sS'PRT'
p1258
F7e-06
s(lp1259
g133
atp1260
a(S'probl\xc3\xa9my'
p1261
(dp1262
g297
F0.000493
sS'NOUN'
p1263
F0.999507
s(lp1264
g146
atp1265
a(S's'
p1266
(dp1267
g297
F0.0009060000000000001
sS'CONJ'
p1268
F7.9e-05
sS'NOUN'
p1269
F7e-06
sS'ADP'
p1270
F0.998978
sS'PRT'
p1271
F3e-05
s(lp1272
g419
atp1273
a(S'dod\xc3\xa1vkou'
p1274
(dp1275
S'NOUN'
p1276
F1.0
s(lp1277
g152
atp1278
a(g811
(dp1279
g77
F1.0
s(lp1280
g75
atp1281
a(S'ale'
p1282
(dp1283
g297
F0.010835
sS'CONJ'
p1284
F0.989165
s(lp1285
g161
atp1286
a(S'\xc4\x8dlensk\xc3\xa9'
p1287
(dp1288
S'NOUN'
p1289
F0.003334
sS'ADJ'
p1290
F0.9966649999999999
s(lp1291
g182
atp1292
a(S'\xc5\xa1t\xc3\xa1ty'
p1293
(dp1294
S'NOUN'
p1295
F1.0
s(lp1296
g175
atp1297
a(S'svoju'
p1298
(dp1299
S'PRON'
p1300
F1.0
s(lp1301
g213
atp1302
a(S'oznamovaciu'
p1303
(dp1304
S'ADJ'
p1305
F1.0
s(lp1306
g229
atp1307
a(S'povinnos\xc5\xa5'
p1308
(dp1309
S'NOUN'
p1310
F1.0
s(lp1311
g236
atp1312
a(S'nedodr\xc5\xbeali'
p1313
(dp1314
S'VERB'
p1315
F1.0
s(lp1316
g414
atp1317
a(S'ani'
p1318
(dp1319
g297
F0.906979
sS'CONJ'
p1320
F0.093021
s(lp1321
g201
atp1322
a(S'po\xc4\x8das'
p1323
(dp1324
S'ADP'
p1325
F1.0
s(lp1326
g243
atp1327
a(S'platnosti'
p1328
(dp1329
S'NOUN'
p1330
F1.0
s(lp1331
tp1332
a(S'star\xc3\xa9ho'
p1333
(dp1334
S'NOUN'
p1335
F0.00162
sS'ADJ'
p1336
F0.99838
s(lp1337
g258
atp1338
a(S'nariadenia'
p1339
(dp1340
S'NOUN'
p1341
F1.0
s(lp1342
g264
atp1343
a(g77
(dp1344
g77
F1.0
s(lp1345
g77
atp1346
asS'pl'
p1347
(lp1348
(S'ca\xc5\x82y'
p1349
(dp1350
S'ADJ'
p1351
F1.0
s(lp1352
g276
atp1353
a(S'plan'
p1354
(dp1355
S'NOUN'
p1356
F1.0
s(lp1357
g13
atp1358
a(S'by\xc4\x87'
p1359
(dp1360
S'VERB'
p1361
F1.0
s(lp1362
tp1363
a(S'mo\xc5\xbce'
p1364
(dp1365
S'PRT'
p1366
F0.98975
sS'VERB'
p1367
F0.01025
s(lp1368
g25
atp1369
a(S'opiera'
p1370
(dp1371
S'VERB'
p1372
F1.0
s(lp1373
tp1374
a(S'si\xc4\x99'
p1375
(dp1376
S'PRT'
p1377
F1.0
s(lp1378
g44
atp1379
a(S'na'
p1380
(dp1381
g297
F8.4e-05
sS'VERB'
p1382
F0.000152
sS'NOUN'
p1383
F1.8e-05
sS'ADP'
p1384
F0.9996659999999999
sS'PRT'
p1385
F8e-05
s(lp1386
g50
atp1387
a(S'dobrej'
p1388
(dp1389
S'ADJ'
p1390
F0.999999
s(lp1391
g66
atp1392
a(S'koncepcji'
p1393
(dp1394
S'NOUN'
p1395
F1.000001
s(lp1396
g73
atp1397
a(g75
(dp1398
g297
F2.3e-05
sS'NUM'
p1399
F1e-06
sS'NOUN'
p1400
F1.6000000000000003e-05
sg77
F0.999961
s(lp1401
g75
atp1402
a(S'mianowicie'
p1403
(dp1404
S'CONJ'
p1405
F1.0
s(lp1406
g90
atp1407
a(S'na'
p1408
(dp1409
S'PRT'
p1410
F3.1e-05
sS'VERB'
p1411
F4.1e-05
sS'NOUN'
p1412
F2.6e-05
sS'ADP'
p1413
F0.999882
sg297
F2e-05
s(lp1414
g98
atp1415
a(S'zdolno\xc5\x9bci'
p1416
(dp1417
S'NOUN'
p1418
F0.9999990000000001
s(lp1419
g104
atp1420
a(S'do'
p1421
(dp1422
g297
F0.0
sS'NOUN'
p1423
F2e-06
sS'ADP'
p1424
F0.9999979999999999
s(lp1425
g110
atp1426
a(S'reagowania'
p1427
(dp1428
S'VERB'
p1429
F1.0
s(lp1430
g127
atp1431
a(S'na'
p1432
(dp1433
S'PRT'
p1434
F4.4e-05
sS'VERB'
p1435
F1.2e-05
sS'NOUN'
p1436
F0.0
sS'ADP'
p1437
F0.999942
sg297
F1e-06
s(lp1438
g133
atp1439
a(S'w\xc4\x85skie'
p1440
(dp1441
S'ADJ'
p1442
F0.999999
s(lp1443
g146
atp1444
a(S'gard\xc5\x82a'
p1445
(dp1446
S'NOUN'
p1447
F1.0
s(lp1448
tp1449
a(S'w'
p1450
(dp1451
S'ADJ'
p1452
F0.0
sg297
F0.0
sS'NOUN'
p1453
F0.0
sS'ADP'
p1454
F1.0
s(lp1455
tp1456
a(S'zaopatrzeniu'
p1457
(dp1458
S'VERB'
p1459
F0.028445
sS'NOUN'
p1460
F0.971555
s(lp1461
g146
atp1462
a(g75
(dp1463
g297
F1.4e-05
sS'NUM'
p1464
F1e-06
sS'NOUN'
p1465
F3.1e-05
sg77
F0.999954
s(lp1466
g75
atp1467
a(S'ale'
p1468
(dp1469
S'PRT'
p1470
F0.000604
sS'CONJ'
p1471
F0.999351
sS'NOUN'
p1472
F4.5e-05
s(lp1473
g161
atp1474
a(S'pa\xc5\x84stwa'
p1475
(dp1476
S'NOUN'
p1477
F1.0000010000000001
s(lp1478
g175
atp1479
a(S'cz\xc5\x82onkowskie'
p1480
(dp1481
S'ADJ'
p1482
F1.0
s(lp1483
g182
atp1484
a(S'ju\xc5\xbc'
p1485
(dp1486
S'PRT'
p1487
F1.0
s(lp1488
tp1489
a(S'obecnie'
p1490
(dp1491
S'ADV'
p1492
F1.0
s(lp1493
g193
atp1494
a(S'nie'
p1495
(dp1496
S'ADV'
p1497
F9.3e-05
sS'PRT'
p1498
F0.988926
sS'CONJ'
p1499
F0.01093
sS'NOUN'
p1500
F1.4e-05
sS'PRON'
p1501
F3.7e-05
s(lp1502
g201
atp1503
a(S'by\xc5\x82y'
p1504
(dp1505
S'VERB'
p1506
F0.9909990000000002
sS'ADJ'
p1507
F0.009001
s(lp1508
tp1509
a(g1450
(dp1510
S'ADJ'
p1511
F0.0
sg297
F0.0
sS'NOUN'
p1512
F5e-06
sS'ADP'
p1513
F0.999995
s(lp1514
tp1515
a(S'stanie'
p1516
(dp1517
S'VERB'
p1518
F0.000129
sS'NOUN'
p1519
F0.99987
s(lp1520
g201
atp1521
a(S'realizowa\xc4\x87'
p1522
(dp1523
S'VERB'
p1524
F1.0
s(lp1525
g414
atp1526
a(S'swoich'
p1527
(dp1528
S'NOUN'
p1529
F6.3e-05
sS'ADJ'
p1530
F0.9999359999999999
s(lp1531
g213
atp1532
a(S'zobowi\xc4\x85za\xc5\x84'
p1533
(dp1534
S'NOUN'
p1535
F1.0
s(lp1536
g236
atp1537
a(g1450
(dp1538
S'ADJ'
p1539
F0.0
sg297
F0.0
sS'NOUN'
p1540
F0.0
sS'ADP'
p1541
F0.999999
s(lp1542
tp1543
a(S'zakresie'
p1544
(dp1545
S'NOUN'
p1546
F1.0
s(lp1547
tp1548
a(S'sprawozdawczo\xc5\x9bci'
p1549
(dp1550
S'NOUN'
p1551
F1.0
s(lp1552
g229
atp1553
a(S'na'
p1554
(dp1555
g297
F2e-06
sS'VERB'
p1556
F4e-06
sS'NOUN'
p1557
F4e-06
sS'ADP'
p1558
F0.9999890000000001
sS'PRT'
p1559
F1e-06
s(lp1560
tp1561
a(S'mocy'
p1562
(dp1563
S'NOUN'
p1564
F0.999999
s(lp1565
g243
atp1566
a(S'starego'
p1567
(dp1568
S'NOUN'
p1569
F0.027535999999999998
sS'ADJ'
p1570
F0.972465
s(lp1571
g258
atp1572
a(S'rozporz\xc4\x85dzenia'
p1573
(dp1574
S'NOUN'
p1575
F1.0
s(lp1576
g264
atp1577
a(g77
(dp1578
g77
F1.0
s(lp1579
g77
atp1580
asS'sl'
p1581
(lp1582
(S'celotni'
p1583
(dp1584
S'ADJ'
p1585
F0.9999999999999999
s(lp1586
g276
atp1587
a(S'na\xc4\x8drt'
p1588
(dp1589
S'NOUN'
p1590
F1.0
s(lp1591
g13
atp1592
a(S'morda'
p1593
(dp1594
S'PRT'
p1595
F1.0
s(lp1596
g25
atp1597
a(S'res'
p1598
(dp1599
S'ADV'
p1600
F0.999731
sS'NOUN'
p1601
F0.000269
s(lp1602
g294
atp1603
a(S'temelji'
p1604
(dp1605
S'VERB'
p1606
F0.991508
sS'NOUN'
p1607
F0.008492
s(lp1608
g44
atp1609
a(S'na'
p1610
(dp1611
S'ADP'
p1612
F1.0
s(lp1613
g50
atp1614
a(S'dobri'
p1615
(dp1616
S'ADJ'
p1617
F1.0
s(lp1618
g66
atp1619
a(S'zamisli'
p1620
(dp1621
S'NOUN'
p1622
F0.9999990000000001
s(lp1623
g73
atp1624
a(g75
(dp1625
g77
F1.0
s(lp1626
g75
atp1627
a(S'namre\xc4\x8d'
p1628
(dp1629
S'CONJ'
p1630
F1.0
s(lp1631
g90
atp1632
a(S'na'
p1633
(dp1634
S'ADP'
p1635
F1.0
s(lp1636
g98
atp1637
a(S'zmo\xc5\xbenosti'
p1638
(dp1639
S'NOUN'
p1640
F1.0
s(lp1641
g104
atp1642
a(S'odzivanja'
p1643
(dp1644
S'ADJ'
p1645
F0.001417
sS'VERB'
p1646
F0.017692
sS'NOUN'
p1647
F0.980892
s(lp1648
tp1649
a(S'na'
p1650
(dp1651
S'ADP'
p1652
F1.0
s(lp1653
g127
atp1654
a(S'ozka'
p1655
(dp1656
S'ADJ'
p1657
F1.0
s(lp1658
tp1659
a(S'grla'
p1660
(dp1661
S'NOUN'
p1662
F1.0
s(lp1663
g146
atp1664
a(S'pri'
p1665
(dp1666
S'ADP'
p1667
F1.0
s(lp1668
g133
atp1669
a(S'oskrbi'
p1670
(dp1671
S'NOUN'
p1672
F1.0
s(lp1673
g152
atp1674
a(g75
(dp1675
g77
F1.0
s(lp1676
g75
atp1677
a(g811
(dp1678
g77
F1.0
s(lp1679
tp1680
a(S'vendar'
p1681
(dp1682
S'ADV'
p1683
F0.010117
sS'CONJ'
p1684
F0.989883
s(lp1685
g161
atp1686
a(S'dr\xc5\xbeave'
p1687
(dp1688
S'NOUN'
p1689
F1.0
s(lp1690
g182
atp1691
a(S'\xc4\x8dlanice'
p1692
(dp1693
S'NOUN'
p1694
F1.000001
s(lp1695
g175
atp1696
a(S'\xc5\xbee'
p1697
(dp1698
S'PRT'
p1699
F1.0
s(lp1700
tp1701
a(S'zdaj'
p1702
(dp1703
S'ADV'
p1704
F1.0
s(lp1705
g193
atp1706
a(S'niso'
p1707
(dp1708
S'VERB'
p1709
F1.0
s(lp1710
g201
atp1711
a(S'izpolnjevale'
p1712
(dp1713
S'ADJ'
p1714
F0.014363
sS'VERB'
p1715
F0.9486129999999999
sS'NOUN'
p1716
F0.03702300000000001
s(lp1717
g414
atp1718
a(S'svojih'
p1719
(dp1720
S'PRON'
p1721
F1.000001
s(lp1722
g213
atp1723
a(S'obveznosti'
p1724
(dp1725
S'NOUN'
p1726
F0.9999989999999999
s(lp1727
g236
atp1728
a(S'poro\xc4\x8danja'
p1729
(dp1730
S'NOUN'
p1731
F1.0
s(lp1732
g229
atp1733
a(S'v'
p1734
(dp1735
S'ADP'
p1736
F1.0
s(lp1737
tp1738
a(S'skladu'
p1739
(dp1740
S'NOUN'
p1741
F1.0
s(lp1742
g243
atp1743
a(g1266
(dp1744
S'VERB'
p1745
F9e-06
sS'NOUN'
p1746
F4.5e-05
sS'ADP'
p1747
F0.999945
s(lp1748
g251
atp1749
a(S'staro'
p1750
(dp1751
S'ADJ'
p1752
F0.9999999999999999
s(lp1753
g258
atp1754
a(S'uredbo'
p1755
(dp1756
S'NOUN'
p1757
F1.0
s(lp1758
g264
atp1759
a(g77
(dp1760
g77
F1.0
s(lp1761
g77
atp1762
asS'es'
p1763
(lp1764
(S'por'
p1765
(dp1766
S'ADP'
p1767
F1.0
s(lp1768
tp1769
a(S'escrito'
p1770
(dp1771
S'VERB'
p1772
F0.31338
sS'ADJ'
p1773
F0.68662
s(lp1774
g75
atp1775
a(g77
(dp1776
g77
F1.0
s(lp1777
g75
atp1778
a(g75
(dp1779
g77
F1.0
s(lp1780
g75
atp1781
a(g472
(dp1782
g77
F1.0
s(lp1783
tp1784
a(S'de'
p1785
(dp1786
g297
F0.393369
sS'CONJ'
p1787
F0.00278
sS'ADP'
p1788
F0.603851
s(lp1789
tp1790
a(g481
(dp1791
g77
F1.0
s(lp1792
g75
atp1793
a(S'aunque'
p1794
(dp1795
S'CONJ'
p1796
F1.0
s(lp1797
g161
atp1798
a(S'es'
p1799
(dp1800
S'VERB'
p1801
F1.0
s(lp1802
g37
atp1803
a(S'posible'
p1804
(dp1805
S'ADJ'
p1806
F1.0
s(lp1807
g25
atp1808
a(S'que'
p1809
(dp1810
g297
F0.0
sS'CONJ'
p1811
F1.0
s(lp1812
tp1813
a(S'todo'
p1814
(dp1815
S'ADJ'
p1816
F1.0
s(lp1817
g276
atp1818
a(S'el'
p1819
(dp1820
S'PRON'
p1821
F6e-06
sS'DET'
p1822
F0.999994
s(lp1823
g7
atp1824
a(S'plan'
p1825
(dp1826
g297
F0.001971
sS'NOUN'
p1827
F0.998029
s(lp1828
g13
atp1829
a(S'se'
p1830
(dp1831
S'PRON'
p1832
F0.9993299999999999
sS'VERB'
p1833
F0.00067
s(lp1834
g37
atp1835
a(S'base'
p1836
(dp1837
S'ADJ'
p1838
F0.000123
sS'VERB'
p1839
F0.735079
sS'NOUN'
p1840
F0.264736
sg297
F6.1e-05
s(lp1841
g44
atp1842
a(S'en'
p1843
(dp1844
g297
F0.0
sS'CONJ'
p1845
F1e-06
sS'ADP'
p1846
F0.999999
s(lp1847
g50
atp1848
a(S'una'
p1849
(dp1850
S'DET'
p1851
F1.0
s(lp1852
g58
atp1853
a(S'buena'
p1854
(dp1855
S'ADJ'
p1856
F1.0
s(lp1857
g66
atp1858
a(S'idea'
p1859
(dp1860
S'NOUN'
p1861
F1.0
s(lp1862
g73
atp1863
a(S'-a'
p1864
(dp1865
S'ADV'
p1866
F0.000874
sS'NOUN'
p1867
F0.143305
sS'VERB'
p1868
F0.39450399999999997
sS'ADJ'
p1869
F0.461317
s(lp1870
g75
atp1871
a(S'saber'
p1872
(dp1873
S'VERB'
p1874
F1.0
s(lp1875
tp1876
a(g811
(dp1877
g77
F1.0
s(lp1878
g90
atp1879
a(S'la'
p1880
(dp1881
S'PRON'
p1882
F3.5e-05
sS'DET'
p1883
F0.999959
sS'NOUN'
p1884
F0.0
sg297
F5e-06
s(lp1885
g98
atp1886
a(S'capacidad'
p1887
(dp1888
S'NOUN'
p1889
F1.0
s(lp1890
g104
atp1891
a(S'de'
p1892
(dp1893
g297
F0.0
sS'CONJ'
p1894
F0.345844
sS'ADP'
p1895
F0.654156
s(lp1896
g110
atp1897
a(S'responder'
p1898
(dp1899
S'VERB'
p1900
F1.0
s(lp1901
g127
atp1902
a(g58
(dp1903
g297
F0.000259
sS'CONJ'
p1904
F5e-06
sS'ADP'
p1905
F0.999736
s(lp1906
g133
atp1907
a(S'los'
p1908
(dp1909
S'PRON'
p1910
F0.0
sS'DET'
p1911
F1.0
s(lp1912
g146
atp1913
a(S'cuellos'
p1914
(dp1915
S'NOUN'
p1916
F1.0
s(lp1917
g146
atp1918
a(S'de'
p1919
(dp1920
g297
F2.9e-05
sS'CONJ'
p1921
F0.000449
sS'ADP'
p1922
F0.999522
s(lp1923
tp1924
a(S'botella'
p1925
(dp1926
S'NOUN'
p1927
F1.0
s(lp1928
tp1929
a(S'de'
p1930
(dp1931
g297
F0.000484
sS'CONJ'
p1932
F0.000648
sS'ADP'
p1933
F0.998868
s(lp1934
tp1935
a(S'abastecimiento-'
p1936
(dp1937
S'VERB'
p1938
F0.025837000000000002
sS'NOUN'
p1939
F0.974163
s(lp1940
g146
atp1941
a(g811
(dp1942
g77
F1.0
s(lp1943
tp1944
a(S'los'
p1945
(dp1946
S'PRON'
p1947
F2.5e-05
sS'DET'
p1948
F0.999975
s(lp1949
g169
atp1950
a(S'estados'
p1951
(dp1952
S'NOUN'
p1953
F1.0
s(lp1954
g175
atp1955
a(S'miembros'
p1956
(dp1957
S'NOUN'
p1958
F1.0
s(lp1959
g182
atp1960
a(S'no'
p1961
(dp1962
S'ADV'
p1963
F0.999922
sg297
F7.8e-05
s(lp1964
g201
atp1965
a(S'cumplieron'
p1966
(dp1967
S'VERB'
p1968
F1.0
s(lp1969
g414
atp1970
a(S'sus'
p1971
(dp1972
S'PRON'
p1973
F1.0
s(lp1974
g213
atp1975
a(S'obligaciones'
p1976
(dp1977
S'NOUN'
p1978
F1.0
s(lp1979
g236
atp1980
a(S'de'
p1981
(dp1982
g297
F2.9e-05
sS'CONJ'
p1983
F0.000449
sS'ADP'
p1984
F0.999522
s(lp1985
tp1986
a(S'informaci\xc3\xb3n'
p1987
(dp1988
S'NOUN'
p1989
F1.0
s(lp1990
g229
atp1991
a(S'contempladas'
p1992
(dp1993
S'VERB'
p1994
F1.0
s(lp1995
tp1996
a(S'en'
p1997
(dp1998
g297
F0.0
sS'CONJ'
p1999
F0.0
sS'ADP'
p2000
F1.0
s(lp2001
g243
atp2002
a(S'el'
p2003
(dp2004
S'PRON'
p2005
F6.8e-05
sS'DET'
p2006
F0.999932
s(lp2007
g251
atp2008
a(S'reglamento'
p2009
(dp2010
S'VERB'
p2011
F0.00015
sS'NOUN'
p2012
F0.99985
s(lp2013
g264
atp2014
a(S'anterior'
p2015
(dp2016
S'ADJ'
p2017
F1.0
s(lp2018
g258
atp2019
a(g77
(dp2020
g77
F1.0
s(lp2021
g77
atp2022
as.