(dp0
S'fr'
p1
(lp2
(S'la'
p3
(dp4
S'PRON'
p5
F8.2e-05
sS'DET'
p6
F0.999918
sS'NOUN'
p7
F0.0
s(lp8
S'the'
p9
atp10
a(S'violation'
p11
(dp12
S'NOUN'
p13
F1.0
s(lp14
S'violation'
p15
atp16
a(S'flagrante'
p17
(dp18
S'ADJ'
p19
F1.0
s(lp20
S'flagrant'
p21
atp22
a(S'des'
p23
(dp24
S'DET'
p25
F2.2e-05
sS'ADP'
p26
F0.999978
s(lp27
S'human'
p28
atp29
a(S'droits'
p30
(dp31
S'ADJ'
p32
F0.011772
sS'NOUN'
p33
F0.988228
s(lp34
S'rights'
p35
atp36
a(S'de'
p37
(dp38
S'ADP'
p39
F1.0
s(lp40
S'of'
p41
atp42
a(S"l'"
p43
(dp44
S'ADJ'
p45
F0.160704
sS'VERB'
p46
F0.06480800000000002
sS'NOUN'
p47
F0.774488
s(lp48
tp49
a(S'homme'
p50
(dp51
S'NOUN'
p52
F1.0
s(lp53
g28
atp54
a(S'et'
p55
(dp56
S'CONJ'
p57
F1.0
s(lp58
S'and'
p59
atp60
a(S'des'
p61
(dp62
S'DET'
p63
F0.000609
sS'ADP'
p64
F0.999391
s(lp65
tp66
a(S'libert\xc3\xa9s'
p67
(dp68
S'NOUN'
p69
F1.0
s(lp70
tp71
a(S'fondamentales'
p72
(dp73
S'ADJ'
p74
F1.0
s(lp75
S'freedoms'
p76
atp77
a(S'dans'
p78
(dp79
S'NOUN'
p80
F5.1e-05
sS'ADP'
p81
F0.999949
s(lp82
S'in'
p83
atp84
a(S'cette'
p85
(dp86
S'PRON'
p87
F1.0
s(lp88
S'this'
p89
atp90
a(S'r\xc3\xa9gion'
p91
(dp92
S'NOUN'
p93
F1.0
s(lp94
S'region'
p95
atp96
a(S'est'
p97
(dp98
S'VERB'
p99
F0.999855
sS'NOUN'
p100
F0.000145
s(lp101
S'is'
p102
atp103
a(S'source'
p104
(dp105
S'NOUN'
p106
F1.0
s(lp107
S'cause'
p108
atp109
a(S"d'"
p110
(dp111
S'NOUN'
p112
F0.032441
sS'VERB'
p113
F0.694014
sS'ADJ'
p114
F0.273544
s(lp115
S'for'
p116
atp117
a(S'inqui\xc3\xa9tude'
p118
(dp119
S'NOUN'
p120
F1.0
s(lp121
S'concern'
p122
atp123
a(S'pour'
p124
(dp125
S'CONJ'
p126
F0.312104
sS'ADP'
p127
F0.687896
s(lp128
S'for'
p129
atp130
a(S"l'"
p131
(dp132
S'ADJ'
p133
F0.128662
sS'VERB'
p134
F0.32284500000000005
sS'NOUN'
p135
F0.548493
s(lp136
S'the'
p137
atp138
a(S'union'
p139
(dp140
S'NOUN'
p141
F1.0
s(lp142
S'union'
p143
atp144
a(S'europ\xc3\xa9enne'
p145
(dp146
S'NOUN'
p147
F0.012186
sS'ADJ'
p148
F0.987814
s(lp149
S'european'
p150
atp151
a(S','
p152
(dp153
S'.'
p154
F1.0
s(lp155
g152
atp156
a(S'\xc3\xa0'
p157
(dp158
S'ADP'
p159
F1.0
s(lp160
S'from'
p161
atp162
a(S'la'
p163
(dp164
S'PRON'
p165
F1.2e-05
sS'DET'
p166
F0.999988
sS'NOUN'
p167
F0.0
s(lp168
S'the'
p169
atp170
a(S'fois'
p171
(dp172
S'NOUN'
p173
F1.0
s(lp174
tp175
a(S'pour'
p176
(dp177
S'CONJ'
p178
F0.103997
sS'ADP'
p179
F0.896003
s(lp180
S'both'
p181
atp182
a(S'ses'
p183
(dp184
S'PRON'
p185
F1.0
s(lp186
S'its'
p187
atp188
a(S'relations'
p189
(dp190
S'VERB'
p191
F1e-06
sS'NOUN'
p192
F0.999999
s(lp193
S'relations'
p194
atp195
a(S'avec'
p196
(dp197
S'ADV'
p198
F0.005921
sS'ADP'
p199
F0.994079
s(lp200
S'with'
p201
atp202
a(S'isra\xc3\xabl'
p203
(dp204
S'ADJ'
p205
F0.152053
sS'NOUN'
p206
F0.8479460000000001
s(lp207
S'israel'
p208
atp209
a(S'et'
p210
(dp211
S'CONJ'
p212
F1.0
s(lp213
S'and'
p214
atp215
a(S'pour'
p216
(dp217
S'CONJ'
p218
F0.330449
sS'ADP'
p219
F0.669551
s(lp220
S'of'
p221
atp222
a(S'la'
p223
(dp224
S'PRON'
p225
F4.2e-05
sS'DET'
p226
F0.999958
sS'NOUN'
p227
F0.0
s(lp228
tp229
a(S's\xc3\xa9curit\xc3\xa9'
p230
(dp231
S'NOUN'
p232
F1.0
s(lp233
S'security'
p234
atp235
a(S'et'
p236
(dp237
S'CONJ'
p238
F1.0
s(lp239
S'and'
p240
atp241
a(S'la'
p242
(dp243
S'PRON'
p244
F0.000103
sS'DET'
p245
F0.999897
sS'NOUN'
p246
F0.0
s(lp247
S'the'
p248
atp249
a(S'stabilit\xc3\xa9'
p250
(dp251
S'NOUN'
p252
F1.0
s(lp253
S'stability'
p254
atp255
a(S'au'
p256
(dp257
S'ADP'
p258
F1.0
s(lp259
S'middle'
p260
atp261
a(S'moyen-orient'
p262
(dp263
S'ADJ'
p264
F0.102964
sS'VERB'
p265
F0.000154
sS'NOUN'
p266
F0.896883
s(lp267
S'east'
p268
atp269
a(g154
(dp270
g154
F1.0
s(lp271
g154
atp272
asS'en'
p273
(lp274
(g9
(dp275
S'NOUN'
p276
F2e-06
sS'DET'
p277
F0.999998
s(lp278
g9
atp279
a(g21
(dp280
S'ADJ'
p281
F1.0
s(lp282
g21
atp283
a(g15
(dp284
S'NOUN'
p285
F1.0
s(lp286
g15
atp287
a(g41
(dp288
S'ADP'
p289
F1.0
s(lp290
g41
atp291
a(g28
(dp292
S'NOUN'
p293
F0.018066
sS'ADJ'
p294
F0.981934
s(lp295
g28
atp296
a(g35
(dp297
S'VERB'
p298
F2e-06
sS'NOUN'
p299
F0.999998
s(lp300
g35
atp301
a(g59
(dp302
S'CONJ'
p303
F0.999998
sS'NOUN'
p304
F2e-06
s(lp305
g59
atp306
a(g76
(dp307
S'NOUN'
p308
F1.0
s(lp309
g76
atp310
a(g83
(dp311
S'ADV'
p312
F0.000295
sS'PRT'
p313
F0.000234
sS'ADP'
p314
F0.999471
s(lp315
g83
atp316
a(g89
(dp317
S'ADV'
p318
F3e-06
sS'NOUN'
p319
F1.9e-05
sS'DET'
p320
F0.999978
s(lp321
g89
atp322
a(g95
(dp323
S'NOUN'
p324
F1.0
s(lp325
g95
atp326
a(g102
(dp327
S'VERB'
p328
F1.0
s(lp329
g102
atp330
a(S'a'
p331
(dp332
S'NOUN'
p333
F0.0
sS'DET'
p334
F1.0
s(lp335
g331
atp336
a(g108
(dp337
S'VERB'
p338
F0.003633
sS'NOUN'
p339
F0.996367
s(lp340
g108
atp341
a(g116
(dp342
S'ADP'
p343
F1.0
s(lp344
g116
atp345
a(g122
(dp346
S'VERB'
p347
F2.2e-05
sS'NOUN'
p348
F0.999977
s(lp349
g122
atp350
a(g129
(dp351
S'ADP'
p352
F1.0
s(lp353
g129
atp354
a(g137
(dp355
S'NOUN'
p356
F1e-06
sS'DET'
p357
F0.999999
s(lp358
g137
atp359
a(g150
(dp360
S'NOUN'
p361
F0.10881199999999999
sS'VERB'
p362
F1.1e-05
sS'ADJ'
p363
F0.891178
s(lp364
g150
atp365
a(g143
(dp366
S'NOUN'
p367
F1.0
s(lp368
g143
atp369
a(g152
(dp370
g154
F1.0
s(lp371
g152
atp372
a(g161
(dp373
S'ADP'
p374
F1.0
s(lp375
g161
atp376
a(g169
(dp377
S'NOUN'
p378
F1e-06
sS'DET'
p379
F0.999999
s(lp380
g169
atp381
a(S'perspective'
p382
(dp383
S'NOUN'
p384
F1.0
s(lp385
g382
atp386
a(S'of'
p387
(dp388
S'ADP'
p389
F1.0
s(lp390
g387
atp391
a(g181
(dp392
S'CONJ'
p393
F0.117932
sS'DET'
p394
F0.882068
s(lp395
g181
atp396
a(g187
(dp397
S'PRON'
p398
F1.0
s(lp399
g187
atp400
a(g194
(dp401
S'NOUN'
p402
F1.0
s(lp403
g194
atp404
a(g201
(dp405
S'ADP'
p406
F1.0
s(lp407
g201
atp408
a(g208
(dp409
S'ADV'
p410
F0.000602
sS'ADJ'
p411
F0.010521
sS'VERB'
p412
F0.005693000000000001
sS'NOUN'
p413
F0.983184
s(lp414
g208
atp415
a(g214
(dp416
S'CONJ'
p417
F0.999797
sS'NOUN'
p418
F0.000203
s(lp419
g214
atp420
a(g221
(dp421
S'ADP'
p422
F1.0
s(lp423
g221
atp424
a(g234
(dp425
S'NOUN'
p426
F1.0
s(lp427
g234
atp428
a(g240
(dp429
S'CONJ'
p430
F0.999998
sS'NOUN'
p431
F2e-06
s(lp432
g240
atp433
a(g254
(dp434
S'NOUN'
p435
F1.0
s(lp436
g254
atp437
a(S'in'
p438
(dp439
S'ADV'
p440
F0.000191
sS'PRT'
p441
F0.000279
sS'ADP'
p442
F0.999531
s(lp443
g438
atp444
a(g248
(dp445
S'NOUN'
p446
F1e-06
sS'DET'
p447
F0.999999
s(lp448
g248
atp449
a(g260
(dp450
S'NOUN'
p451
F0.17562
sS'VERB'
p452
F0.000126
sS'ADJ'
p453
F0.824254
s(lp454
g260
atp455
a(g268
(dp456
S'ADV'
p457
F0.058093
sS'NOUN'
p458
F0.221652
sS'ADJ'
p459
F0.720255
s(lp460
g268
atp461
a(g154
(dp462
g154
F1.0
s(lp463
g154
atp464
asS'nl'
p465
(lp466
(S'de'
p467
(dp468
S'DET'
p469
F1.0
s(lp470
g9
atp471
a(S'flagrante'
p472
(dp473
S'NOUN'
p474
F0.00073
sS'ADJ'
p475
F0.99927
s(lp476
g21
atp477
a(S'schending'
p478
(dp479
S'NOUN'
p480
F1.0
s(lp481
g15
atp482
a(S'van'
p483
(dp484
S'ADP'
p485
F1.0
s(lp486
g41
atp487
a(S'de'
p488
(dp489
S'DET'
p490
F1.0
s(lp491
tp492
a(S'mensenrechten'
p493
(dp494
S'NOUN'
p495
F1.0
s(lp496
g28
atp497
a(S'en'
p498
(dp499
S'CONJ'
p500
F1.0
s(lp501
g59
atp502
a(S'de'
p503
(dp504
S'DET'
p505
F1.0
s(lp506
tp507
a(S'vrijheden'
p508
(dp509
S'NOUN'
p510
F1.0
s(lp511
g76
atp512
a(S'in'
p513
(dp514
S'ADV'
p515
F0.001384
sS'VERB'
p516
F1e-06
sS'ADP'
p517
F0.998615
s(lp518
g83
atp519
a(S'deze'
p520
(dp521
S'PRON'
p522
F1.0
s(lp523
g89
atp524
a(S'regio'
p525
(dp526
S'NOUN'
p527
F1.0
s(lp528
g95
atp529
a(S'is'
p530
(dp531
S'VERB'
p532
F1.0
s(lp533
g102
atp534
a(S'voor'
p535
(dp536
S'ADV'
p537
F0.013671
sS'CONJ'
p538
F2e-05
sS'NOUN'
p539
F0.0
sS'ADP'
p540
F0.986309
s(lp541
g129
atp542
a(S'de'
p543
(dp544
S'DET'
p545
F1.0
s(lp546
g137
atp547
a(S'europese'
p548
(dp549
S'NOUN'
p550
F1.0
s(lp551
g150
atp552
a(S'unie'
p553
(dp554
S'NOUN'
p555
F1.0
s(lp556
g143
atp557
a(S'reden'
p558
(dp559
S'VERB'
p560
F0.001105
sS'NOUN'
p561
F0.998895
s(lp562
g108
atp563
a(S'tot'
p564
(dp565
S'CONJ'
p566
F8e-06
sS'ADP'
p567
F0.999992
s(lp568
g116
atp569
a(S'zorg'
p570
(dp571
S'VERB'
p572
F0.0
sS'NOUN'
p573
F1.0
s(lp574
g122
atp575
a(g152
(dp576
g154
F1.0
s(lp577
g152
atp578
a(S'vanuit'
p579
(dp580
S'ADP'
p581
F1.0
s(lp582
g161
atp583
a(S'het'
p584
(dp585
S'PRON'
p586
F0.000927
sS'DET'
p587
F0.999073
s(lp588
g169
atp589
a(S'perspectief'
p590
(dp591
S'NOUN'
p592
F1.0
s(lp593
g382
atp594
a(S'van'
p595
(dp596
S'ADP'
p597
F1.0
s(lp598
g387
atp599
a(S'zowel'
p600
(dp601
S'ADV'
p602
F0.00953
sS'CONJ'
p603
F0.99047
s(lp604
g181
atp605
a(S'de'
p606
(dp607
S'DET'
p608
F1.0
s(lp609
g187
atp610
a(S'betrekkingen'
p611
(dp612
S'NOUN'
p613
F1.0
s(lp614
g194
atp615
a(S'met'
p616
(dp617
S'ADP'
p618
F1.0
s(lp619
g201
atp620
a(S'isra\xc3\xabl'
p621
(dp622
S'ADJ'
p623
F0.006892
sS'NOUN'
p624
F0.993108
s(lp625
g208
atp626
a(S'als'
p627
(dp628
S'CONJ'
p629
F1.0
s(lp630
g214
atp631
a(S'de'
p632
(dp633
S'DET'
p634
F1.0
s(lp635
tp636
a(S'veiligheid'
p637
(dp638
S'NOUN'
p639
F1.0
s(lp640
g234
atp641
a(S'en'
p642
(dp643
S'CONJ'
p644
F1.0
s(lp645
g240
atp646
a(S'stabiliteit'
p647
(dp648
S'NOUN'
p649
F1.0
s(lp650
g254
atp651
a(S'in'
p652
(dp653
S'ADV'
p654
F0.002981
sS'VERB'
p655
F3e-06
sS'ADP'
p656
F0.997016
s(lp657
g438
atp658
a(S'het'
p659
(dp660
S'PRON'
p661
F0.000756
sS'DET'
p662
F0.999244
s(lp663
g248
atp664
a(S'midden-oosten'
p665
(dp666
S'ADJ'
p667
F0.001968
sS'NOUN'
p668
F0.998032
s(lp669
g260
atp670
a(g154
(dp671
g154
F1.0
s(lp672
g154
atp673
asS'de'
p674
(lp675
(S'der'
p676
(dp677
S'PRON'
p678
F0.001502
sS'DET'
p679
F0.998382
s(lp680
g9
atp681
a(S'eklatante'
p682
(dp683
S'ADJ'
p684
F1.0
s(lp685
g21
atp686
a(S'versto\xc3\x9f'
p687
(dp688
S'VERB'
p689
F1.8e-05
sS'NOUN'
p690
F0.999955
s(lp691
tp692
a(S'gegen'
p693
(dp694
S'PRT'
p695
F2e-06
sS'ADP'
p696
F0.999998
s(lp697
g15
atp698
a(S'die'
p699
(dp700
S'PRON'
p701
F0.000218
sS'DET'
p702
F0.999767
s(lp703
tp704
a(S'menschenrechte'
p705
(dp706
S'ADJ'
p707
F1.0
s(lp708
g28
atp709
a(S'und'
p710
(dp711
S'CONJ'
p712
F1.0
s(lp713
g59
atp714
a(S'grundfreiheiten'
p715
(dp716
S'VERB'
p717
F0.462039
sS'NOUN'
p718
F0.207025
s(lp719
g76
atp720
a(S'in'
p721
(dp722
S'ADP'
p723
F1.0
s(lp724
g83
atp725
a(S'dieser'
p726
(dp727
S'PRON'
p728
F1.0
s(lp729
g89
atp730
a(S'region'
p731
(dp732
S'ADJ'
p733
F0.00023
sS'NOUN'
p734
F0.999683
s(lp735
g95
atp736
a(S'ist'
p737
(dp738
S'VERB'
p739
F1.0
s(lp740
g102
atp741
a(S'grund'
p742
(dp743
S'NOUN'
p744
F0.007674
sS'ADJ'
p745
F0.992197
s(lp746
g108
atp747
a(S'f\xc3\xbcr'
p748
(dp749
S'ADP'
p750
F1.0
s(lp751
g116
atp752
a(S'besorgnis'
p753
(dp754
S'ADJ'
p755
F0.000407
sS'NOUN'
p756
F0.999448
s(lp757
g122
atp758
a(S'f\xc3\xbcr'
p759
(dp760
S'ADP'
p761
F1.0
s(lp762
g129
atp763
a(S'die'
p764
(dp765
S'PRON'
p766
F0.000218
sS'DET'
p767
F0.999767
s(lp768
g137
atp769
a(S'europ\xc3\xa4ische'
p770
(dp771
S'ADJ'
p772
F1.0
s(lp773
g150
atp774
a(S'union'
p775
(dp776
S'ADJ'
p777
F0.029108
sS'NOUN'
p778
F0.965042
s(lp779
g143
atp780
a(g152
(dp781
g154
F1.0
s(lp782
g152
atp783
a(S'sowohl'
p784
(dp785
S'CONJ'
p786
F1.0
s(lp787
g181
atp788
a(S'vom'
p789
(dp790
S'ADP'
p791
F1.0
s(lp792
g161
atp793
a(S'standpunkt'
p794
(dp795
S'ADJ'
p796
F6.9e-05
sS'NOUN'
p797
F0.999908
s(lp798
g382
atp799
a(S'der'
p800
(dp801
S'PRON'
p802
F8.8e-05
sS'DET'
p803
F0.999888
s(lp804
g187
atp805
a(S'beziehungen'
p806
(dp807
S'ADJ'
p808
F0.019167
sS'NOUN'
p809
F0.967649
s(lp810
g194
atp811
a(S'zu'
p812
(dp813
S'PRT'
p814
F0.126446
sS'ADP'
p815
F0.840736
s(lp816
g201
atp817
a(S'israel'
p818
(dp819
S'ADJ'
p820
F0.182846
sS'NOUN'
p821
F0.715342
s(lp822
g208
atp823
a(S'als'
p824
(dp825
S'CONJ'
p826
F0.997235
s(lp827
g214
atp828
a(S'auch'
p829
(dp830
S'ADV'
p831
F1.0
s(lp832
tp833
a(S'der'
p834
(dp835
S'PRON'
p836
F5.4e-05
sS'DET'
p837
F0.999945
s(lp838
g221
atp839
a(S'sicherheit'
p840
(dp841
S'ADJ'
p842
F0.002341
sS'NOUN'
p843
F0.997528
s(lp844
g234
atp845
a(S'und'
p846
(dp847
S'CONJ'
p848
F1.0
s(lp849
g240
atp850
a(S'stabilit\xc3\xa4t'
p851
(dp852
S'VERB'
p853
F0.016723
sS'NOUN'
p854
F0.979815
s(lp855
g254
atp856
a(S'in'
p857
(dp858
S'ADP'
p859
F1.0
s(lp860
g438
atp861
a(S'nahost'
p862
(dp863
S'ADJ'
p864
F1.0
s(lp865
g260
atp866
a(S'aus'
p867
(dp868
S'PRT'
p869
F0.99406
sS'ADP'
p870
F0.005579
s(lp871
g268
atp872
a(g154
(dp873
g154
F1.0
s(lp874
g154
atp875
asS'it'
p876
(lp877
(S"l'"
p878
(dp879
S'NOUN'
p880
F0.00259
sS'VERB'
p881
F0.9925710000000001
sS'ADJ'
p882
F0.00484
s(lp883
g9
atp884
a(S'evidente'
p885
(dp886
S'ADJ'
p887
F1.0
s(lp888
g21
atp889
a(S'violazione'
p890
(dp891
S'NOUN'
p892
F1.0
s(lp893
g15
atp894
a(S'delle'
p895
(dp896
S'DEF'
p897
F0.001048
sS'ADP'
p898
F0.998952
s(lp899
tp900
a(S'libert\xc3\xa0'
p901
(dp902
S'NOUN'
p903
F1.0
s(lp904
g76
atp905
a(S'e'
p906
(dp907
S'CONJ'
p908
F1.0
s(lp909
g59
atp910
a(S'dei'
p911
(dp912
S'NOUN'
p913
F7e-06
sS'DEF'
p914
F0.020161
sS'ADP'
p915
F0.979832
s(lp916
tp917
a(S'diritti'
p918
(dp919
S'ADJ'
p920
F0.021895
sS'NOUN'
p921
F0.978105
s(lp922
g35
atp923
a(S'umani'
p924
(dp925
S'NOUN'
p926
F0.056568
sS'ADJ'
p927
F0.943432
s(lp928
g28
atp929
a(S'in'
p930
(dp931
S'ADP'
p932
F1.0
s(lp933
g83
atp934
a(S"quest'"
p935
(dp936
S'ADJ'
p937
F0.018253
sS'VERB'
p938
F0.018786
sS'NOUN'
p939
F0.962961
s(lp940
g89
atp941
a(S'area'
p942
(dp943
S'NOUN'
p944
F1.0
s(lp945
g95
atp946
a(S'\xc3\xa8'
p947
(dp948
S'VERB'
p949
F1.0
s(lp950
g102
atp951
a(S'motivo'
p952
(dp953
S'VERB'
p954
F0.002556
sS'NOUN'
p955
F0.997444
s(lp956
g108
atp957
a(S'di'
p958
(dp959
S'CONJ'
p960
F4e-06
sS'ADP'
p961
F0.999996
s(lp962
g116
atp963
a(S'preoccupazione'
p964
(dp965
S'NOUN'
p966
F1.0
s(lp967
g122
atp968
a(S'per'
p969
(dp970
S'CONJ'
p971
F0.056931
sS'ADP'
p972
F0.943069
s(lp973
g129
atp974
a(S"l'"
p975
(dp976
S'NOUN'
p977
F0.009778
sS'VERB'
p978
F0.9663980000000001
sS'ADJ'
p979
F0.023823
s(lp980
g137
atp981
a(S'unione'
p982
(dp983
S'NOUN'
p984
F1.0
s(lp985
g143
atp986
a(S'europea'
p987
(dp988
S'NOUN'
p989
F0.00165
sS'ADJ'
p990
F0.99835
s(lp991
g150
atp992
a(g152
(dp993
g154
F1.0
s(lp994
g152
atp995
a(S'sia'
p996
(dp997
S'CONJ'
p998
F0.769768
sS'VERB'
p999
F0.23023200000000002
s(lp1000
g181
atp1001
a(S'dal'
p1002
(dp1003
S'ADP'
p1004
F1.0
s(lp1005
g161
atp1006
a(S'punto'
p1007
(dp1008
S'ADV'
p1009
F0.000196
sS'ADJ'
p1010
F0.000547
sS'VERB'
p1011
F0.000276
sS'NOUN'
p1012
F0.998981
s(lp1013
tp1014
a(S'di'
p1015
(dp1016
S'CONJ'
p1017
F8e-06
sS'ADP'
p1018
F0.999992
s(lp1019
tp1020
a(S'vista'
p1021
(dp1022
S'VERB'
p1023
F0.009527
sS'NOUN'
p1024
F0.990474
s(lp1025
g382
atp1026
a(S'delle'
p1027
(dp1028
S'DEF'
p1029
F0.000261
sS'ADP'
p1030
F0.999739
s(lp1031
g387
atp1032
a(S'sue'
p1033
(dp1034
S'PRON'
p1035
F1.0
s(lp1036
g187
atp1037
a(S'relazioni'
p1038
(dp1039
S'VERB'
p1040
F0.00036899999999999997
sS'NOUN'
p1041
F0.99963
s(lp1042
g194
atp1043
a(S'con'
p1044
(dp1045
S'ADP'
p1046
F1.0
s(lp1047
g201
atp1048
a(S'israele'
p1049
(dp1050
S'NOUN'
p1051
F0.011555
sS'VERB'
p1052
F0.33553700000000003
sS'ADJ'
p1053
F0.652908
s(lp1054
tp1055
a(S'sai'
p1056
(dp1057
S'VERB'
p1058
F0.021066
sS'NOUN'
p1059
F0.978934
s(lp1060
g208
atp1061
a(S'da'
p1062
(dp1063
S'ADP'
p1064
F1.0
s(lp1065
tp1066
a(S'quello'
p1067
(dp1068
S'PRON'
p1069
F1.0
s(lp1070
g214
atp1071
a(S'della'
p1072
(dp1073
S'DEF'
p1074
F0.001087
sS'ADP'
p1075
F0.998913
s(lp1076
g221
atp1077
a(S'sicurezza'
p1078
(dp1079
S'NOUN'
p1080
F1.0
s(lp1081
g234
atp1082
a(g906
(dp1083
S'CONJ'
p1084
F1.0
s(lp1085
g240
atp1086
a(S'della'
p1087
(dp1088
S'DEF'
p1089
F0.026624
sS'ADP'
p1090
F0.973376
s(lp1091
g41
atp1092
a(S'stabilit\xc3\xa0'
p1093
(dp1094
S'NOUN'
p1095
F1.0
s(lp1096
g254
atp1097
a(S'in'
p1098
(dp1099
S'ADP'
p1100
F1.0
s(lp1101
g438
atp1102
a(S'medio'
p1103
(dp1104
S'VERB'
p1105
F1.2e-05
sS'ADJ'
p1106
F0.999988
s(lp1107
g260
atp1108
a(S'oriente'
p1109
(dp1110
S'NOUN'
p1111
F1.0
s(lp1112
g268
atp1113
a(g154
(dp1114
g154
F1.0
s(lp1115
g154
atp1116
asS'sk'
p1117
(lp1118
(S'do'
p1119
(dp1120
S'X'
p1121
F0.00032
sS'ADP'
p1122
F0.999642
sS'PRON'
p1123
F3.8e-05
s(lp1124
g21
atp1125
a(S'o\xc4\x8d\xc3\xad'
p1126
(dp1127
S'NOUN'
p1128
F1.0
s(lp1129
tp1130
a(S'bij\xc3\xbace'
p1131
(dp1132
S'VERB'
p1133
F1.0
s(lp1134
g21
atp1135
a(S'poru\xc5\xa1ovanie'
p1136
(dp1137
S'NOUN'
p1138
F1.0
s(lp1139
g15
atp1140
a(S'\xc4\xbeudsk\xc3\xbdch'
p1141
(dp1142
S'ADJ'
p1143
F1.0
s(lp1144
g28
atp1145
a(S'pr\xc3\xa1v'
p1146
(dp1147
g1121
F2.8e-05
sS'NOUN'
p1148
F0.999972
s(lp1149
g35
atp1150
a(g331
(dp1151
g1121
F0.0006979999999999999
sS'CONJ'
p1152
F0.998697
sS'NOUN'
p1153
F5.7e-05
sS'ADP'
p1154
F0.000484
sS'PRT'
p1155
F6.4e-05
s(lp1156
g59
atp1157
a(S'slob\xc3\xb4d'
p1158
(dp1159
S'NOUN'
p1160
F1.0
s(lp1161
g76
atp1162
a(S'v'
p1163
(dp1164
g1121
F1.8e-05
sS'ADP'
p1165
F0.999982
s(lp1166
g83
atp1167
a(S'tomto'
p1168
(dp1169
S'PRON'
p1170
F1.0
s(lp1171
g89
atp1172
a(S'regi\xc3\xb3ne'
p1173
(dp1174
S'NOUN'
p1175
F1.0
s(lp1176
g95
atp1177
a(S'znepokojuje'
p1178
(dp1179
S'VERB'
p1180
F1.0
s(lp1181
g122
atp1182
a(S'eur\xc3\xb3psku'
p1183
(dp1184
S'ADJ'
p1185
F1.0
s(lp1186
g150
atp1187
a(S'\xc3\xbaniu'
p1188
(dp1189
S'NOUN'
p1190
F1.0
s(lp1191
g143
atp1192
a(S'z'
p1193
(dp1194
g1121
F0.000283
sS'NOUN'
p1195
F4.1e-05
sS'ADP'
p1196
F0.999675
s(lp1197
g161
atp1198
a(S'h\xc4\xbeadiska'
p1199
(dp1200
S'NOUN'
p1201
F1.0
s(lp1202
tp1203
a(S'vz\xc5\xa5ahov'
p1204
(dp1205
S'NOUN'
p1206
F1.0
s(lp1207
g194
atp1208
a(S's'
p1209
(dp1210
g1121
F0.00085
sS'CONJ'
p1211
F7.9e-05
sS'NOUN'
p1212
F7e-06
sS'ADP'
p1213
F0.999035
sS'PRT'
p1214
F3e-05
s(lp1215
g201
atp1216
a(S'izraelom'
p1217
(dp1218
S'ADJ'
p1219
F0.000979
sS'NOUN'
p1220
F0.9990209999999999
s(lp1221
g208
atp1222
a(S'aj'
p1223
(dp1224
g1121
F0.630933
sS'CONJ'
p1225
F0.369067
s(lp1226
g214
atp1227
a(g1193
(dp1228
g1121
F0.00023100000000000003
sS'NOUN'
p1229
F2.9e-05
sS'ADP'
p1230
F0.99974
s(lp1231
g221
atp1232
a(S'h\xc4\xbeadiska'
p1233
(dp1234
S'NOUN'
p1235
F1.0
s(lp1236
g382
atp1237
a(S'bezpe\xc4\x8dnosti'
p1238
(dp1239
S'NOUN'
p1240
F1.0
s(lp1241
g234
atp1242
a(g331
(dp1243
g1121
F0.002523
sS'CONJ'
p1244
F0.996497
sS'NOUN'
p1245
F0.00018600000000000002
sS'ADP'
p1246
F0.000766
sS'PRT'
p1247
F2.7e-05
s(lp1248
g240
atp1249
a(S'stability'
p1250
(dp1251
S'NOUN'
p1252
F1.0
s(lp1253
g254
atp1254
a(S'na'
p1255
(dp1256
g1121
F7.400000000000001e-05
sS'CONJ'
p1257
F1.9e-05
sS'ADP'
p1258
F0.999903
sS'PRT'
p1259
F3e-06
s(lp1260
g438
atp1261
a(S'bl\xc3\xadzkom'
p1262
(dp1263
S'NOUN'
p1264
F0.006561
sS'ADJ'
p1265
F0.993439
s(lp1266
g260
atp1267
a(S'v\xc3\xbdchode'
p1268
(dp1269
S'NOUN'
p1270
F1.0
s(lp1271
g268
atp1272
a(g154
(dp1273
g154
F1.0
s(lp1274
g154
atp1275
asS'pl'
p1276
(lp1277
(S'jawne'
p1278
(dp1279
S'ADJ'
p1280
F1.000001
s(lp1281
g21
atp1282
a(S'pogwa\xc5\x82cenie'
p1283
(dp1284
S'VERB'
p1285
F1.0
s(lp1286
g15
atp1287
a(S'praw'
p1288
(dp1289
S'NOUN'
p1290
F1.0
s(lp1291
g35
atp1292
a(S'cz\xc5\x82owieka'
p1293
(dp1294
S'NOUN'
p1295
F1.0
s(lp1296
g28
atp1297
a(S'i'
p1298
(dp1299
S'PRT'
p1300
F0.000517
sS'CONJ'
p1301
F0.999461
sS'PRON'
p1302
F2e-06
sS'NOUN'
p1303
F1.7e-05
sg1121
F3e-06
s(lp1304
g59
atp1305
a(S'swob\xc3\xb3d'
p1306
(dp1307
S'NOUN'
p1308
F1.0
s(lp1309
tp1310
a(S'obywatelskich'
p1311
(dp1312
S'ADJ'
p1313
F1.000001
s(lp1314
g76
atp1315
a(S'w'
p1316
(dp1317
S'ADJ'
p1318
F0.0
sg1121
F0.0
sS'NOUN'
p1319
F0.0
sS'ADP'
p1320
F1.0
s(lp1321
g83
atp1322
a(S'tym'
p1323
(dp1324
S'ADV'
p1325
F1e-06
sS'NOUN'
p1326
F0.00624
sS'CONJ'
p1327
F0.0
sS'ADJ'
p1328
F0.993759
sS'PRT'
p1329
F0.0
s(lp1330
g89
atp1331
a(S'regionie'
p1332
(dp1333
S'NOUN'
p1334
F1.0
s(lp1335
g95
atp1336
a(S'jest'
p1337
(dp1338
S'VERB'
p1339
F1.0
s(lp1340
g102
atp1341
a(S'przyczyna'
p1342
(dp1343
S'NOUN'
p1344
F1.0
s(lp1345
g108
atp1346
a(S'powa\xc5\xbcnego'
p1347
(dp1348
S'ADJ'
p1349
F1.0
s(lp1350
tp1351
a(S'niepokoju'
p1352
(dp1353
S'NOUN'
p1354
F1.0
s(lp1355
g122
atp1356
a(S'unii'
p1357
(dp1358
S'NOUN'
p1359
F1.0
s(lp1360
g143
atp1361
a(S'europejskiej'
p1362
(dp1363
S'ADJ'
p1364
F1.0
s(lp1365
g150
atp1366
a(g152
(dp1367
g1121
F0.0
sg154
F1.0
s(lp1368
g152
atp1369
a(S'zar\xc3\xb3wno'
p1370
(dp1371
S'ADV'
p1372
F0.010996
sS'CONJ'
p1373
F0.989004
s(lp1374
tp1375
a(g1193
(dp1376
S'PRT'
p1377
F0.000354
sS'VERB'
p1378
F1.5e-05
sS'NOUN'
p1379
F2.8e-05
sS'ADP'
p1380
F0.9996019999999999
sg1121
F1e-06
s(lp1381
g161
atp1382
a(S'perspektywy'
p1383
(dp1384
S'NOUN'
p1385
F0.9999999999999999
s(lp1386
g382
atp1387
a(S'jej'
p1388
(dp1389
S'PRON'
p1390
F1.0
sg1121
F1e-06
s(lp1391
g187
atp1392
a(S'stosunk\xc3\xb3w'
p1393
(dp1394
S'NOUN'
p1395
F1.0
s(lp1396
g194
atp1397
a(g1193
(dp1398
S'PRT'
p1399
F2e-06
sS'VERB'
p1400
F2e-06
sS'NOUN'
p1401
F0.0
sS'ADP'
p1402
F0.9999950000000001
sg1121
F0.0
s(lp1403
g201
atp1404
a(S'izraelem'
p1405
(dp1406
S'ADV'
p1407
F1.3e-05
sS'ADJ'
p1408
F0.000163
sS'VERB'
p1409
F0.040661
sS'NOUN'
p1410
F0.9591609999999998
s(lp1411
g208
atp1412
a(g152
(dp1413
g1121
F0.0
sg154
F1.0
s(lp1414
tp1415
a(S'jak'
p1416
(dp1417
S'ADV'
p1418
F0.848175
sS'PRT'
p1419
F0.00096
sS'CONJ'
p1420
F0.129037
sS'ADP'
p1421
F0.021749
sS'PRON'
p1422
F8e-05
s(lp1423
g181
atp1424
a(g1298
(dp1425
S'PRT'
p1426
F0.010911
sS'CONJ'
p1427
F0.988273
sS'NOUN'
p1428
F0.0005529999999999999
sg1121
F2.1e-05
sS'PRON'
p1429
F0.000243
s(lp1430
g214
atp1431
a(S'bezpiecze\xc5\x84stwa'
p1432
(dp1433
S'NOUN'
p1434
F1.0
s(lp1435
g234
atp1436
a(g1298
(dp1437
S'PRT'
p1438
F0.001489
sS'CONJ'
p1439
F0.998451
sS'NOUN'
p1440
F3.3e-05
sg1121
F1e-06
sS'PRON'
p1441
F2.6000000000000002e-05
s(lp1442
g240
atp1443
a(S'stabilizacji'
p1444
(dp1445
S'NOUN'
p1446
F1.0
s(lp1447
g254
atp1448
a(S'na'
p1449
(dp1450
g1121
F1e-06
sS'VERB'
p1451
F1e-06
sS'NOUN'
p1452
F0.0
sS'ADP'
p1453
F0.999997
sS'PRT'
p1454
F1e-06
s(lp1455
g438
atp1456
a(S'bliskim'
p1457
(dp1458
S'ADJ'
p1459
F1.0
s(lp1460
g260
atp1461
a(S'wschodzie'
p1462
(dp1463
S'NOUN'
p1464
F1.0
s(lp1465
g268
atp1466
a(g154
(dp1467
g154
F1.0
s(lp1468
g154
atp1469
asS'sl'
p1470
(lp1471
(S'o\xc4\x8ditno'
p1472
(dp1473
S'ADV'
p1474
F0.033989
sS'ADJ'
p1475
F0.96601
s(lp1476
g21
atp1477
a(S'kr\xc5\xa1enje'
p1478
(dp1479
S'NOUN'
p1480
F1.0
s(lp1481
g15
atp1482
a(S'\xc4\x8dlovekovih'
p1483
(dp1484
S'ADJ'
p1485
F1.0
s(lp1486
g28
atp1487
a(S'pravic'
p1488
(dp1489
S'NOUN'
p1490
F1.0
s(lp1491
g35
atp1492
a(S'in'
p1493
(dp1494
S'ADV'
p1495
F0.000136
sg1121
F2.1e-05
sS'CONJ'
p1496
F0.999818
sS'NOUN'
p1497
F2.4e-05
s(lp1498
g59
atp1499
a(S'svobo\xc5\xa1\xc4\x8din'
p1500
(dp1501
S'NOUN'
p1502
F1.0
s(lp1503
g76
atp1504
a(g1163
(dp1505
S'ADP'
p1506
F1.0
s(lp1507
g83
atp1508
a(S'tej'
p1509
(dp1510
S'PRON'
p1511
F1.0
s(lp1512
g89
atp1513
a(S'regiji'
p1514
(dp1515
S'NOUN'
p1516
F1.0
s(lp1517
g95
atp1518
a(S'je'
p1519
(dp1520
S'PRON'
p1521
F0.000605
sS'VERB'
p1522
F0.9993380000000001
sg1121
F5.6e-05
s(lp1523
g102
atp1524
a(S'razlog'
p1525
(dp1526
S'NOUN'
p1527
F1.0
s(lp1528
g108
atp1529
a(S'za'
p1530
(dp1531
S'ADV'
p1532
F1.7e-05
sg1121
F1.4e-05
sS'ADP'
p1533
F0.999969
s(lp1534
g116
atp1535
a(S'zaskrbljenost'
p1536
(dp1537
S'NOUN'
p1538
F1.0
s(lp1539
g122
atp1540
a(S'evropske'
p1541
(dp1542
S'ADJ'
p1543
F0.9999999999999999
s(lp1544
g150
atp1545
a(S'unije'
p1546
(dp1547
S'NOUN'
p1548
F1.0
s(lp1549
g143
atp1550
a(g152
(dp1551
g154
F1.0
s(lp1552
g152
atp1553
a(g1193
(dp1554
S'ADP'
p1555
F1.0
s(lp1556
g161
atp1557
a(S'vidika'
p1558
(dp1559
S'NOUN'
p1560
F1.0
s(lp1561
tp1562
a(S'njenih'
p1563
(dp1564
S'PRON'
p1565
F0.9999999999999999
s(lp1566
g187
atp1567
a(S'odnosov'
p1568
(dp1569
S'NOUN'
p1570
F1.0
s(lp1571
g194
atp1572
a(g1193
(dp1573
S'ADP'
p1574
F1.0
s(lp1575
g201
atp1576
a(S'izraelom'
p1577
(dp1578
S'ADV'
p1579
F1.3e-05
sS'ADJ'
p1580
F3.7e-05
sS'VERB'
p1581
F0.0
sS'NOUN'
p1582
F0.9999490000000002
s(lp1583
g208
atp1584
a(S'in'
p1585
(dp1586
S'ADV'
p1587
F0.000131
sg1121
F2.1e-05
sS'CONJ'
p1588
F0.999773
sS'NOUN'
p1589
F7.6e-05
s(lp1590
g214
atp1591
a(g1193
(dp1592
S'ADP'
p1593
F1.0
s(lp1594
g221
atp1595
a(S'vidika'
p1596
(dp1597
S'NOUN'
p1598
F1.0
s(lp1599
g382
atp1600
a(S'varnosti'
p1601
(dp1602
S'NOUN'
p1603
F0.9999999999999999
s(lp1604
g234
atp1605
a(S'ter'
p1606
(dp1607
S'CONJ'
p1608
F1.0
s(lp1609
g240
atp1610
a(S'stabilnosti'
p1611
(dp1612
S'NOUN'
p1613
F1.0
s(lp1614
g254
atp1615
a(S'na'
p1616
(dp1617
S'ADP'
p1618
F1.0
s(lp1619
g438
atp1620
a(S'bli\xc5\xbenjem'
p1621
(dp1622
S'ADJ'
p1623
F1.0
s(lp1624
g260
atp1625
a(S'vzhodu'
p1626
(dp1627
S'NOUN'
p1628
F1.0
s(lp1629
g268
atp1630
a(g154
(dp1631
g154
F1.0
s(lp1632
g154
atp1633
asS'es'
p1634
(lp1635
(S'la'
p1636
(dp1637
g1121
F4.5e-05
sS'DET'
p1638
F0.999917
sS'NOUN'
p1639
F0.0
sS'PRON'
p1640
F3.8e-05
s(lp1641
g9
atp1642
a(S'violaci\xc3\xb3n'
p1643
(dp1644
S'NOUN'
p1645
F1.0
s(lp1646
g15
atp1647
a(S'flagrante'
p1648
(dp1649
S'ADJ'
p1650
F1.0
s(lp1651
g21
atp1652
a(S'de'
p1653
(dp1654
g1121
F0.0
sS'CONJ'
p1655
F5.7e-05
sS'ADP'
p1656
F0.999943
s(lp1657
g41
atp1658
a(S'los'
p1659
(dp1660
S'PRON'
p1661
F0.0
sS'DET'
p1662
F1.0
s(lp1663
tp1664
a(S'derechos'
p1665
(dp1666
S'NOUN'
p1667
F1.0
s(lp1668
g35
atp1669
a(S'humanos'
p1670
(dp1671
S'NOUN'
p1672
F0.185357
sS'ADJ'
p1673
F0.814643
s(lp1674
g28
atp1675
a(S'y'
p1676
(dp1677
g1121
F0.000437
sS'CONJ'
p1678
F0.999563
s(lp1679
g59
atp1680
a(S'de'
p1681
(dp1682
g1121
F0.0
sS'CONJ'
p1683
F2e-06
sS'ADP'
p1684
F0.999998
s(lp1685
tp1686
a(S'la'
p1687
(dp1688
S'NOUN'
p1689
F0.0
sS'PRON'
p1690
F0.0
sS'DET'
p1691
F0.999999
sg1121
F0.0
s(lp1692
tp1693
a(S'libertad'
p1694
(dp1695
S'NOUN'
p1696
F1.0
s(lp1697
g76
atp1698
a(S'en'
p1699
(dp1700
g1121
F0.0
sS'CONJ'
p1701
F1e-06
sS'ADP'
p1702
F0.999999
s(lp1703
g83
atp1704
a(S'esta'
p1705
(dp1706
S'PRON'
p1707
F1.0
sS'VERB'
p1708
F0.0
s(lp1709
g89
atp1710
a(S'regi\xc3\xb3n'
p1711
(dp1712
S'NOUN'
p1713
F1.0
s(lp1714
g95
atp1715
a(S'es'
p1716
(dp1717
S'VERB'
p1718
F1.0
s(lp1719
g102
atp1720
a(S'motivo'
p1721
(dp1722
S'ADJ'
p1723
F0.429005
sS'NOUN'
p1724
F0.570995
s(lp1725
g108
atp1726
a(S'de'
p1727
(dp1728
g1121
F3e-05
sS'CONJ'
p1729
F0.000893
sS'ADP'
p1730
F0.999077
s(lp1731
g116
atp1732
a(S'preocupaci\xc3\xb3n'
p1733
(dp1734
S'NOUN'
p1735
F1.0
s(lp1736
g122
atp1737
a(S'para'
p1738
(dp1739
S'CONJ'
p1740
F0.000662
sS'ADP'
p1741
F0.999338
s(lp1742
g129
atp1743
a(S'la'
p1744
(dp1745
g1121
F0.0
sS'PRON'
p1746
F0.0
sS'DET'
p1747
F0.999999
sS'NOUN'
p1748
F0.0
s(lp1749
g137
atp1750
a(S'uni\xc3\xb3n'
p1751
(dp1752
S'NOUN'
p1753
F1.0
s(lp1754
g143
atp1755
a(S'europea'
p1756
(dp1757
S'ADJ'
p1758
F1.0
s(lp1759
g150
atp1760
a(g152
(dp1761
g154
F1.0
s(lp1762
g152
atp1763
a(S'tanto'
p1764
(dp1765
S'ADV'
p1766
F0.985604
sS'NOUN'
p1767
F7.7e-05
sS'ADJ'
p1768
F0.014319
s(lp1769
g181
atp1770
a(S'desde'
p1771
(dp1772
S'ADP'
p1773
F1.0
s(lp1774
g161
atp1775
a(S'la'
p1776
(dp1777
S'NOUN'
p1778
F0.0
sS'PRON'
p1779
F0.0
sS'DET'
p1780
F0.999999
sg1121
F0.0
s(lp1781
g169
atp1782
a(S'perspectiva'
p1783
(dp1784
S'NOUN'
p1785
F1.0
s(lp1786
g382
atp1787
a(S'de'
p1788
(dp1789
g1121
F0.0
sS'CONJ'
p1790
F0.000289
sS'ADP'
p1791
F0.999711
s(lp1792
g387
atp1793
a(S'sus'
p1794
(dp1795
S'PRON'
p1796
F1.0
s(lp1797
g187
atp1798
a(S'relaciones'
p1799
(dp1800
S'NOUN'
p1801
F1.0
s(lp1802
g194
atp1803
a(S'con'
p1804
(dp1805
S'ADP'
p1806
F1.0
s(lp1807
g201
atp1808
a(S'israel'
p1809
(dp1810
S'ADJ'
p1811
F0.185102
sS'NOUN'
p1812
F0.8148980000000001
s(lp1813
g208
atp1814
a(S'como'
p1815
(dp1816
S'ADV'
p1817
F0.624353
sS'CONJ'
p1818
F0.37564699999999995
s(lp1819
g214
atp1820
a(S'por'
p1821
(dp1822
S'ADP'
p1823
F1.0
s(lp1824
g221
atp1825
a(S'la'
p1826
(dp1827
S'NOUN'
p1828
F0.0
sS'PRON'
p1829
F0.0
sS'DET'
p1830
F0.999999
sg1121
F0.0
s(lp1831
tp1832
a(S'seguridad'
p1833
(dp1834
S'NOUN'
p1835
F1.0
s(lp1836
g234
atp1837
a(g1676
(dp1838
g1121
F0.000396
sS'CONJ'
p1839
F0.999604
s(lp1840
g240
atp1841
a(S'la'
p1842
(dp1843
S'PRON'
p1844
F0.000591
sS'DET'
p1845
F0.999408
sS'NOUN'
p1846
F0.0
sg1121
F0.0
s(lp1847
g248
atp1848
a(S'estabilidad'
p1849
(dp1850
S'NOUN'
p1851
F1.0
s(lp1852
g254
atp1853
a(S'en'
p1854
(dp1855
g1121
F0.011792
sS'CONJ'
p1856
F0.000141
sS'ADP'
p1857
F0.988067
s(lp1858
g438
atp1859
a(S'oriente'
p1860
(dp1861
S'VERB'
p1862
F1.0
s(lp1863
g268
atp1864
a(S'pr\xc3\xb3ximo'
p1865
(dp1866
S'ADJ'
p1867
F1.0
s(lp1868
g260
atp1869
a(g154
(dp1870
g154
F1.0
s(lp1871
g154
atp1872
as.