(dp0
S'fr'
p1
(lp2
(S"l'"
p3
(dp4
S'ADJ'
p5
F0.079749
sS'VERB'
p6
F0.5393100000000001
sS'NOUN'
p7
F0.380941
s(lp8
S'increasing'
p9
atp10
a(S'augmentation'
p11
(dp12
S'NOUN'
p13
F1.0
s(lp14
tp15
a(S'automatique'
p16
(dp17
S'NOUN'
p18
F0.018164
sS'ADJ'
p19
F0.981836
s(lp20
S'automatically'
p21
atp22
a(S'des'
p23
(dp24
S'DET'
p25
F2.2e-05
sS'ADP'
p26
F0.999978
s(lp27
tp28
a(S'subventions'
p29
(dp30
S'NOUN'
p31
F1.0
s(lp32
S'subsidies'
p33
atp34
a(S'de'
p35
(dp36
S'ADP'
p37
F1.0
s(lp38
tp39
a(S"l'"
p40
(dp41
S'ADJ'
p42
F0.160704
sS'VERB'
p43
F0.06480800000000002
sS'NOUN'
p44
F0.774488
s(lp45
tp46
a(S'ue'
p47
(dp48
S'VERB'
p49
F0.012735
sS'NOUN'
p50
F0.987264
s(lp51
S'eu'
p52
atp53
a(S"n'"
p54
(dp55
S'NOUN'
p56
F0.033148
sS'VERB'
p57
F0.6953600000000001
sS'ADJ'
p58
F0.271494
s(lp59
tp60
a(S'est'
p61
(dp62
S'VERB'
p63
F0.995654
sS'NOUN'
p64
F0.004346
s(lp65
S'is'
p66
atp67
a(S'sans'
p68
(dp69
S'CONJ'
p70
F0.004431
sS'ADP'
p71
F0.995569
s(lp72
tp73
a(S'doute'
p74
(dp75
S'VERB'
p76
F0.011078
sS'NOUN'
p77
F0.988922
s(lp78
S'perhaps'
p79
atp80
a(S'pas'
p81
(dp82
S'ADV'
p83
F0.997831
sS'NOUN'
p84
F0.002169
s(lp85
S'not'
p86
atp87
a(S"l'"
p88
(dp89
S'NOUN'
p90
F0.037152
sS'VERB'
p91
F0.7564470000000001
sS'ADJ'
p92
F0.206402
s(lp93
g9
atp94
a(S'approche'
p95
(dp96
S'VERB'
p97
F0.8864139999999999
sS'NOUN'
p98
F0.113585
s(lp99
S'approach'
p100
atp101
a(S'la'
p102
(dp103
S'PRON'
p104
F0.032654
sS'DET'
p105
F0.967323
sS'NOUN'
p106
F2.2e-05
s(lp107
S'the'
p108
atp109
a(S'plus'
p110
(dp111
S'ADV'
p112
F0.999941
sS'VERB'
p113
F5.9e-05
s(lp114
S'most'
p115
atp116
a(S'responsable'
p117
(dp118
S'ADJ'
p119
F1.0
s(lp120
S'responsible'
p121
atp122
a(S'\xc3\xa0'
p123
(dp124
S'ADP'
p125
F1.0
s(lp126
S'of'
p127
atp128
a(S'tenir'
p129
(dp130
S'VERB'
p131
F1.0
s(lp132
S'making'
p133
atp134
a(S'alors'
p135
(dp136
S'ADV'
p137
F0.97418
sS'CONJ'
p138
F0.02582
s(lp139
tp140
a(S'que'
p141
(dp142
S'ADV'
p143
F0.009735
sS'PRON'
p144
F0.107202
sS'CONJ'
p145
F0.883064
s(lp146
S'when'
p147
atp148
a(S'nous'
p149
(dp150
S'PRON'
p151
F1.0
s(lp152
tp153
a(S'sommes'
p154
(dp155
S'VERB'
p156
F0.999962
sS'NOUN'
p157
F3.8e-05
s(lp158
S'we'
p159
atp160
a(S'confront\xc3\xa9s'
p161
(dp162
S'VERB'
p163
F1.0
s(lp164
S'have'
p165
atp166
a(S'au'
p167
(dp168
S'ADP'
p169
F1.0
s(lp170
S'the'
p171
atp172
a(S'probl\xc3\xa8me'
p173
(dp174
S'NOUN'
p175
F1.0
s(lp176
S'problem'
p177
atp178
a(S'pratique'
p179
(dp180
S'NOUN'
p181
F0.039165
sS'VERB'
p182
F0.155817
sS'ADJ'
p183
F0.805019
s(lp184
S'practical'
p185
atp186
a(S'de'
p187
(dp188
S'ADP'
p189
F1.0
s(lp190
S'of'
p191
atp192
a(S'leur'
p193
(dp194
S'PRON'
p195
F1.0
s(lp196
S'them'
p197
atp198
a(S'utilisation'
p199
(dp200
S'NOUN'
p201
F1.0
s(lp202
S'use'
p203
atp204
a(S'utile'
p205
(dp206
S'NOUN'
p207
F0.009609
sS'ADJ'
p208
F0.990391
s(lp209
S'meaningful'
p210
atp211
a(S'et'
p212
(dp213
S'CONJ'
p214
F1.0
s(lp215
S'and'
p216
atp217
a(S'efficace'
p218
(dp219
S'NOUN'
p220
F0.037364
sS'ADJ'
p221
F0.962636
s(lp222
S'efficient'
p223
atp224
a(S'.'
p225
(dp226
g225
F1.0
s(lp227
g225
atp228
asS'en'
p229
(lp230
(g21
(dp231
S'ADV'
p232
F1.0
s(lp233
g21
atp234
a(g9
(dp235
S'VERB'
p236
F0.838367
sS'ADJ'
p237
F0.161633
s(lp238
g9
atp239
a(g52
(dp240
S'ADV'
p241
F0.000121
sS'ADJ'
p242
F0.017044
sS'VERB'
p243
F0.0007930000000000001
sS'NOUN'
p244
F0.9820420000000001
s(lp245
g52
atp246
a(g33
(dp247
S'NOUN'
p248
F1.0
s(lp249
g33
atp250
a(g66
(dp251
S'VERB'
p252
F1.0
s(lp253
g66
atp254
a(g86
(dp255
S'ADV'
p256
F1.0
s(lp257
g86
atp258
a(S','
p259
(dp260
g225
F1.0
s(lp261
g259
atp262
a(g79
(dp263
S'ADV'
p264
F1.0
s(lp265
g79
atp266
a(g259
(dp267
g225
F1.0
s(lp268
g259
atp269
a(g108
(dp270
S'NOUN'
p271
F0.0
sS'DET'
p272
F1.0
s(lp273
g108
atp274
a(g115
(dp275
S'ADV'
p276
F0.860467
sS'ADJ'
p277
F0.139533
s(lp278
g115
atp279
a(g121
(dp280
S'ADJ'
p281
F1.0
s(lp282
g121
atp283
a(g100
(dp284
S'VERB'
p285
F0.005513
sS'NOUN'
p286
F0.994487
s(lp287
g100
atp288
a(g147
(dp289
S'ADV'
p290
F0.999983
sS'ADP'
p291
F1.6e-05
s(lp292
g147
atp293
a(g159
(dp294
S'PRON'
p295
F1.0
s(lp296
g159
atp297
a(g165
(dp298
S'VERB'
p299
F1.0
s(lp300
g165
atp301
a(g171
(dp302
S'NOUN'
p303
F0.0
sS'DET'
p304
F1.0
s(lp305
g171
atp306
a(g185
(dp307
S'ADJ'
p308
F1.0
s(lp309
g185
atp310
a(g177
(dp311
S'NOUN'
p312
F1.0
s(lp313
g177
atp314
a(g127
(dp315
S'ADP'
p316
F1.0
s(lp317
g127
atp318
a(g133
(dp319
S'VERB'
p320
F0.99906
sS'NOUN'
p321
F0.00094
s(lp322
g133
atp323
a(S'a'
p324
(dp325
S'NOUN'
p326
F0.0
sS'DET'
p327
F1.0
s(lp328
g324
atp329
a(g210
(dp330
S'ADJ'
p331
F1.0
s(lp332
g210
atp333
a(g216
(dp334
S'CONJ'
p335
F0.999998
sS'NOUN'
p336
F2e-06
s(lp337
g216
atp338
a(g223
(dp339
S'ADJ'
p340
F1.0
s(lp341
g223
atp342
a(g203
(dp343
S'VERB'
p344
F0.0026669999999999997
sS'NOUN'
p345
F0.997332
s(lp346
g203
atp347
a(g191
(dp348
S'ADP'
p349
F1.0
s(lp350
g191
atp351
a(g197
(dp352
S'PRON'
p353
F1.0
s(lp354
g197
atp355
a(g225
(dp356
g225
F1.0
s(lp357
g225
atp358
asS'nl'
p359
(lp360
(S'het'
p361
(dp362
S'PRON'
p363
F0.056294000000000004
sS'DET'
p364
F0.943707
s(lp365
tp366
a(S'automatisch'
p367
(dp368
S'ADJ'
p369
F1.0
s(lp370
g21
atp371
a(S'verhogen'
p372
(dp373
S'VERB'
p374
F0.445598
sS'NOUN'
p375
F0.554402
s(lp376
g9
atp377
a(S'van'
p378
(dp379
S'ADP'
p380
F1.0
s(lp381
tp382
a(S'eu-subsidies'
p383
(dp384
S'NOUN'
p385
F1.0
s(lp386
tp387
a(S'is'
p388
(dp389
S'VERB'
p390
F1.0
s(lp391
g66
atp392
a(S'mogelijk'
p393
(dp394
S'ADJ'
p395
F1.0
s(lp396
g79
atp397
a(S'niet'
p398
(dp399
S'ADV'
p400
F0.99987
sS'PRON'
p401
F0.0
sS'VERB'
p402
F0.00013
sS'X'
p403
F0.0
s(lp404
g86
atp405
a(S'de'
p406
(dp407
S'DET'
p408
F1.0
s(lp409
g108
atp410
a(S'meest'
p411
(dp412
S'ADV'
p413
F0.0001
sS'NUM'
p414
F3e-05
sS'ADJ'
p415
F0.99987
s(lp416
g115
atp417
a(S'verantwoordelijke'
p418
(dp419
S'NOUN'
p420
F0.000493
sS'ADJ'
p421
F0.999507
s(lp422
g121
atp423
a(S'benadering'
p424
(dp425
S'NOUN'
p426
F1.0
s(lp427
g100
atp428
a(S'wanneer'
p429
(dp430
S'ADV'
p431
F0.063663
sS'CONJ'
p432
F0.936337
s(lp433
g147
atp434
a(S'je'
p435
(dp436
S'PRON'
p437
F1.0
s(lp438
g159
atp439
a(S'voor'
p440
(dp441
S'ADV'
p442
F0.008441
sS'CONJ'
p443
F2e-06
sS'NOUN'
p444
F0.0
sS'ADP'
p445
F0.991557
s(lp446
g127
atp447
a(S'een'
p448
(dp449
S'ADJ'
p450
F1e-06
sS'PRON'
p451
F0.000525
sS'NUM'
p452
F1e-06
sS'DET'
p453
F0.999474
s(lp454
g171
atp455
a(S'praktisch'
p456
(dp457
S'ADJ'
p458
F1.0
s(lp459
g185
atp460
a(S'probleem'
p461
(dp462
S'NOUN'
p463
F1.0
s(lp464
tp465
a(S'gesteld'
p466
(dp467
S'VERB'
p468
F0.999915
sS'ADJ'
p469
F8.5e-05
s(lp470
g177
atp471
a(S'wordt'
p472
(dp473
S'VERB'
p474
F1.0
s(lp475
tp476
a(S'en'
p477
(dp478
S'CONJ'
p479
F1.0
s(lp480
g133
atp481
a(S'moet'
p482
(dp483
S'VERB'
p484
F1.0
s(lp485
g165
atp486
a(S'besluiten'
p487
(dp488
S'VERB'
p489
F0.416682
sS'NOUN'
p490
F0.583317
s(lp491
g133
atp492
a(S'hoe'
p493
(dp494
S'ADV'
p495
F0.997959
sS'CONJ'
p496
F0.002041
s(lp497
g133
atp498
a(S'je'
p499
(dp500
S'PRON'
p501
F1.0
s(lp502
tp503
a(S'die'
p504
(dp505
S'PRON'
p506
F1.0
s(lp507
g133
atp508
a(S'subsidies'
p509
(dp510
S'NOUN'
p511
F1.0
s(lp512
g33
atp513
a(S'zo'
p514
(dp515
S'ADV'
p516
F0.999702
sg403
F0.0
sS'CONJ'
p517
F0.000298
s(lp518
g324
atp519
a(S'nuttig'
p520
(dp521
S'VERB'
p522
F0.015579
sS'ADJ'
p523
F0.984421
s(lp524
tp525
a(S'en'
p526
(dp527
S'CONJ'
p528
F1.0
s(lp529
g216
atp530
a(S'doeltreffend'
p531
(dp532
S'ADJ'
p533
F1.0
s(lp534
g223
atp535
a(S'mogelijk'
p536
(dp537
S'ADJ'
p538
F1.0
s(lp539
tp540
a(S'kunt'
p541
(dp542
S'VERB'
p543
F1.0
s(lp544
g210
atp545
a(S'gebruiken'
p546
(dp547
S'VERB'
p548
F0.9999239999999999
sS'NOUN'
p549
F7.7e-05
s(lp550
g203
atp551
a(g225
(dp552
g225
F1.0
s(lp553
g225
atp554
asS'de'
p555
(lp556
(S'die'
p557
(dp558
S'PRON'
p559
F0.004888
sS'DET'
p560
F0.994789
s(lp561
tp562
a(S'automatische'
p563
(dp564
S'ADJ'
p565
F1.0
s(lp566
g21
atp567
a(S'erh\xc3\xb6hung'
p568
(dp569
S'VERB'
p570
F3.9e-05
sS'NOUN'
p571
F0.999944
s(lp572
g9
atp573
a(S'der'
p574
(dp575
S'PRON'
p576
F9e-05
sS'DET'
p577
F0.999902
s(lp578
g108
atp579
a(S'eu'
p580
(dp581
S'NOUN'
p582
F0.001281
sS'ADJ'
p583
F0.998026
s(lp584
g52
atp585
a(S'f\xc3\xb6rdermittel'
p586
(dp587
S'NOUN'
p588
F0.9991909999999999
s(lp589
g33
atp590
a(S'ist'
p591
(dp592
S'VERB'
p593
F1.0
s(lp594
g66
atp595
a(S'vielleicht'
p596
(dp597
S'ADV'
p598
F1.0
s(lp599
g79
atp600
a(S'nicht'
p601
(dp602
S'PRT'
p603
F1.0
s(lp604
g86
atp605
a(S'die'
p606
(dp607
S'PRON'
p608
F0.001613
sS'DET'
p609
F0.998118
s(lp610
g115
atp611
a(S'verantwortungsvollste'
p612
(dp613
S'NOUN'
p614
F0.115868
sS'ADJ'
p615
F0.884127
s(lp616
g121
atp617
a(S'herangehensweise'
p618
(dp619
S'ADJ'
p620
F0.321505
sS'NOUN'
p621
F0.399018
s(lp622
g100
atp623
a(g259
(dp624
g225
F1.0
s(lp625
g259
atp626
a(S'wenn'
p627
(dp628
S'CONJ'
p629
F1.0
s(lp630
g147
atp631
a(S'wir'
p632
(dp633
S'PRON'
p634
F1.0
s(lp635
g159
atp636
a(S'das'
p637
(dp638
S'PRON'
p639
F0.059225
sS'DET'
p640
F0.93964
s(lp641
g171
atp642
a(S'praktische'
p643
(dp644
S'ADJ'
p645
F1.0
s(lp646
g185
atp647
a(S'problem'
p648
(dp649
S'ADJ'
p650
F0.001535
sS'NOUN'
p651
F0.995353
s(lp652
g177
atp653
a(S'einer'
p654
(dp655
S'PRON'
p656
F0.001308
sS'DET'
p657
F0.998548
s(lp658
g324
atp659
a(S'sinnvollen'
p660
(dp661
S'ADJ'
p662
F1.0
s(lp663
g210
atp664
a(S'und'
p665
(dp666
S'CONJ'
p667
F1.0
s(lp668
g216
atp669
a(S'effektiven'
p670
(dp671
S'ADJ'
p672
F1.0
s(lp673
g223
atp674
a(S'nutzung'
p675
(dp676
S'ADJ'
p677
F0.002276
sS'NOUN'
p678
F0.997724
s(lp679
g203
atp680
a(S'dieser'
p681
(dp682
S'PRON'
p683
F1.0
s(lp684
g197
atp685
a(S'haben'
p686
(dp687
S'VERB'
p688
F0.9964330000000001
s(lp689
g165
atp690
a(g225
(dp691
g225
F1.0
s(lp692
g225
atp693
asS'it'
p694
(lp695
(S'un'
p696
(dp697
S'PRON'
p698
F0.003293
sS'DEF'
p699
F0.996707
s(lp700
tp701
a(S'aumento'
p702
(dp703
S'VERB'
p704
F8e-06
sS'NOUN'
p705
F0.999992
s(lp706
g9
atp707
a(S'automatico'
p708
(dp709
S'ADJ'
p710
F1.0
s(lp711
g21
atp712
a(S'delle'
p713
(dp714
S'DEF'
p715
F0.001797
sS'ADP'
p716
F0.998203
s(lp717
tp718
a(S'sovvenzioni'
p719
(dp720
S'VERB'
p721
F2.3e-05
sS'NOUN'
p722
F0.999977
s(lp723
g33
atp724
a(S'comunitarie'
p725
(dp726
S'ADJ'
p727
F1.0
s(lp728
g52
atp729
a(S'non'
p730
(dp731
S'ADV'
p732
F1.0
s(lp733
g86
atp734
a(S'\xc3\xa8'
p735
(dp736
S'VERB'
p737
F1.0
s(lp738
g66
atp739
a(g259
(dp740
g225
F1.0
s(lp741
g259
atp742
a(S'probabilmente'
p743
(dp744
S'ADV'
p745
F1.0
s(lp746
g79
atp747
a(g259
(dp748
g225
F1.0
s(lp749
g259
atp750
a(S"l'"
p751
(dp752
S'NOUN'
p753
F0.003774
sS'VERB'
p754
F0.984512
sS'ADJ'
p755
F0.011715
s(lp756
g108
atp757
a(S'approccio'
p758
(dp759
S'NOUN'
p760
F1.0
s(lp761
g100
atp762
a(S'pi\xc3\xb9'
p763
(dp764
S'ADV'
p765
F0.984582
sS'NOUN'
p766
F2.3e-05
sS'ADJ'
p767
F0.014008
sS'ADP'
p768
F0.001388
s(lp769
g115
atp770
a(S'responsabile'
p771
(dp772
S'NOUN'
p773
F0.04523
sS'ADJ'
p774
F0.95477
s(lp775
g121
atp776
a(S'quando'
p777
(dp778
S'ADV'
p779
F0.069912
sS'PRON'
p780
F0.000119
sS'CONJ'
p781
F0.927046
sS'NOUN'
p782
F0.002922
s(lp783
g147
atp784
a(S'abbiamo'
p785
(dp786
S'VERB'
p787
F0.999999
s(lp788
g159
atp789
a(S'il'
p790
(dp791
S'DET'
p792
F1.0
s(lp793
g171
atp794
a(S'problema'
p795
(dp796
S'NOUN'
p797
F1.0
s(lp798
g177
atp799
a(S'pratico'
p800
(dp801
S'NOUN'
p802
F0.079822
sS'VERB'
p803
F0.00467
sS'ADJ'
p804
F0.915509
s(lp805
g185
atp806
a(S'di'
p807
(dp808
S'CONJ'
p809
F7e-06
sS'ADP'
p810
F0.999993
s(lp811
g127
atp812
a(S'farne'
p813
(dp814
S'VERB'
p815
F1.0
s(lp816
g133
atp817
a(S'un'
p818
(dp819
S'PRON'
p820
F0.001864
sS'DEF'
p821
F0.998136
s(lp822
g324
atp823
a(S'uso'
p824
(dp825
S'ADJ'
p826
F0.015205
sS'VERB'
p827
F1e-06
sS'NOUN'
p828
F0.984793
s(lp829
g203
atp830
a(S'sensato'
p831
(dp832
S'ADJ'
p833
F1.0
s(lp834
g210
atp835
a(S'ed'
p836
(dp837
S'CONJ'
p838
F1.0
s(lp839
g216
atp840
a(S'efficiente'
p841
(dp842
S'ADJ'
p843
F1.0
s(lp844
g223
atp845
a(g225
(dp846
g225
F1.0
s(lp847
g225
atp848
asS'sk'
p849
(lp850
(S'automatick\xc3\xa9'
p851
(dp852
S'ADJ'
p853
F1.0
s(lp854
g21
atp855
a(S'zvy\xc5\xa1ovanie'
p856
(dp857
S'NOUN'
p858
F1.0
s(lp859
g9
atp860
a(S'dot\xc3\xa1ci\xc3\xad'
p861
(dp862
S'NOUN'
p863
F1.0
s(lp864
g33
atp865
a(S'e\xc3\x9a'
p866
(dp867
S'ADV'
p868
F0.000643
sS'ADJ'
p869
F0.012288000000000002
sS'VERB'
p870
F0.976637
sS'NOUN'
p871
F0.010334
sg403
F9.8e-05
s(lp872
g52
atp873
a(S'nie'
p874
(dp875
g403
F1.0
s(lp876
g86
atp877
a(S'je'
p878
(dp879
S'PRON'
p880
F3.1e-05
sS'VERB'
p881
F0.999964
sg403
F4.9999999999999996e-06
s(lp882
g66
atp883
a(S'pravdepodobne'
p884
(dp885
S'ADV'
p886
F0.000464
sg403
F0.999536
s(lp887
g79
atp888
a(S'najzodpovednej\xc5\xa1\xc3\xadm'
p889
(dp890
S'ADJ'
p891
F1.0
s(lp892
g121
atp893
a(S'pr\xc3\xadstupom'
p894
(dp895
S'NOUN'
p896
F1.0
s(lp897
g100
atp898
a(g259
(dp899
g225
F1.0
s(lp900
tp901
a(S'ke\xc4\x8f'
p902
(dp903
g403
F0.00037
sS'CONJ'
p904
F0.99963
s(lp905
g147
atp906
a(S'm\xc3\xa1me'
p907
(dp908
S'ADV'
p909
F0.005119
sg403
F1.7e-05
sS'VERB'
p910
F0.994865
s(lp911
g165
atp912
a(S'praktick\xc3\xbd'
p913
(dp914
S'ADJ'
p915
F1.0
s(lp916
g185
atp917
a(S'probl\xc3\xa9m'
p918
(dp919
S'NOUN'
p920
F1.0
s(lp921
g177
atp922
a(S's'
p923
(dp924
g403
F0.00043
sS'CONJ'
p925
F0.00017
sS'NOUN'
p926
F9e-06
sS'ADP'
p927
F0.999279
sS'PRT'
p928
F0.000112
s(lp929
g324
atp930
a(S'ich'
p931
(dp932
S'PRON'
p933
F1.0
s(lp934
g197
atp935
a(S'zmyslupln\xc3\xbdm'
p936
(dp937
S'ADJ'
p938
F1.0
s(lp939
g210
atp940
a(g324
(dp941
g403
F0.00039000000000000005
sS'CONJ'
p942
F0.999138
sS'NOUN'
p943
F0.000405
sS'ADP'
p944
F6.1e-05
sS'PRT'
p945
F6e-06
s(lp946
g216
atp947
a(S'\xc3\xba\xc4\x8dinn\xc3\xbdm'
p948
(dp949
S'ADJ'
p950
F1.0
s(lp951
g223
atp952
a(S'vyu\xc5\xbe\xc3\xadvan\xc3\xadm'
p953
(dp954
S'NOUN'
p955
F1.0
s(lp956
g203
atp957
a(g225
(dp958
g225
F1.0
s(lp959
g225
atp960
asS'pl'
p961
(lp962
(S'automatyczne'
p963
(dp964
S'ADJ'
p965
F1.0
s(lp966
g21
atp967
a(S'zwi\xc4\x99kszanie'
p968
(dp969
S'VERB'
p970
F1.0
s(lp971
g9
atp972
a(S'subsydi\xc3\xb3w'
p973
(dp974
S'NOUN'
p975
F1.0
s(lp976
g33
atp977
a(S'ue'
p978
(dp979
S'ADJ'
p980
F0.000398
sS'VERB'
p981
F0.019308
sS'NOUN'
p982
F0.980293
s(lp983
g52
atp984
a(S'nie'
p985
(dp986
S'ADV'
p987
F1.8e-05
sS'PRT'
p988
F0.97407
sS'CONJ'
p989
F0.025896
sS'NOUN'
p990
F2e-06
sS'PRON'
p991
F1.4e-05
s(lp992
g86
atp993
a(S'jest'
p994
(dp995
S'VERB'
p996
F1.0
s(lp997
g66
atp998
a(S'zapewne'
p999
(dp1000
S'PRT'
p1001
F1.0
s(lp1002
g79
atp1003
a(S'najbardziej'
p1004
(dp1005
S'ADV'
p1006
F1.0
s(lp1007
g115
atp1008
a(S'odpowiedzialnym'
p1009
(dp1010
S'ADJ'
p1011
F1.0
s(lp1012
g121
atp1013
a(S'podej\xc5\x9bciem'
p1014
(dp1015
S'ADV'
p1016
F1.4e-05
sS'ADJ'
p1017
F1.3000000000000001e-05
sS'VERB'
p1018
F0.00030000000000000003
sS'NOUN'
p1019
F0.999673
s(lp1020
g100
atp1021
a(S'w'
p1022
(dp1023
g403
F0.0
sS'ADJ'
p1024
F0.0
sS'ADP'
p1025
F1.0
sS'NOUN'
p1026
F0.0
s(lp1027
g147
atp1028
a(S'przypadku'
p1029
(dp1030
S'NOUN'
p1031
F1.0
s(lp1032
tp1033
a(g259
(dp1034
g403
F0.0
sg225
F1.0
s(lp1035
tp1036
a(S'gdy'
p1037
(dp1038
S'ADV'
p1039
F1.0
s(lp1040
g147
atp1041
a(S'mamy'
p1042
(dp1043
S'VERB'
p1044
F0.992466
sS'NOUN'
p1045
F0.007534
s(lp1046
g159
atp1047
a(S'praktyczne'
p1048
(dp1049
S'ADJ'
p1050
F1.000001
s(lp1051
g185
atp1052
a(S'problemy'
p1053
(dp1054
S'NOUN'
p1055
F1.0
s(lp1056
g177
atp1057
a(S'z'
p1058
(dp1059
S'PRT'
p1060
F1.1e-05
sS'VERB'
p1061
F9e-06
sS'NOUN'
p1062
F0.0
sS'ADP'
p1063
F0.999978
sg403
F1e-06
s(lp1064
g191
atp1065
a(S'ich'
p1066
(dp1067
S'PRON'
p1068
F0.999993
sg403
F5e-06
s(lp1069
g197
atp1070
a(S'odpowiednim'
p1071
(dp1072
S'ADJ'
p1073
F0.9999990000000001
s(lp1074
g210
atp1075
a(S'i'
p1076
(dp1077
S'PRT'
p1078
F0.000317
sS'CONJ'
p1079
F0.999575
sS'NOUN'
p1080
F9.8e-05
sg403
F2e-06
sS'PRON'
p1081
F7.000000000000001e-06
s(lp1082
g216
atp1083
a(S'wydajnym'
p1084
(dp1085
S'ADJ'
p1086
F1.0
s(lp1087
g223
atp1088
a(S'wykorzystaniem'
p1089
(dp1090
S'VERB'
p1091
F1.0
s(lp1092
g203
atp1093
a(g225
(dp1094
g225
F1.0
s(lp1095
g225
atp1096
asS'sl'
p1097
(lp1098
(S'samodejno'
p1099
(dp1100
S'ADV'
p1101
F0.034675
sS'ADJ'
p1102
F0.965325
s(lp1103
g21
atp1104
a(S'povi\xc5\xa1anje'
p1105
(dp1106
S'NOUN'
p1107
F1.0
s(lp1108
g9
atp1109
a(S'subvencij'
p1110
(dp1111
S'NOUN'
p1112
F1.0
s(lp1113
g33
atp1114
a(S'eu'
p1115
(dp1116
S'ADV'
p1117
F0.051566
sS'ADJ'
p1118
F0.05103899999999999
sS'VERB'
p1119
F0.01016
sS'NOUN'
p1120
F0.8872329999999999
s(lp1121
g52
atp1122
a(S'morda'
p1123
(dp1124
S'PRT'
p1125
F1.0
s(lp1126
g79
atp1127
a(S'ni'
p1128
(dp1129
S'VERB'
p1130
F1.0
s(lp1131
g86
atp1132
a(S'najodgovornej\xc5\xa1i'
p1133
(dp1134
S'ADV'
p1135
F0.002355
sS'NOUN'
p1136
F3.1e-05
sS'VERB'
p1137
F0.000123
sS'ADJ'
p1138
F0.99749
s(lp1139
g121
atp1140
a(S'pristop'
p1141
(dp1142
S'NOUN'
p1143
F1.0
s(lp1144
g100
atp1145
a(g259
(dp1146
g225
F1.0
s(lp1147
g259
atp1148
a(S'kadar'
p1149
(dp1150
S'CONJ'
p1151
F1.0
s(lp1152
g147
atp1153
a(S'imamo'
p1154
(dp1155
S'VERB'
p1156
F1.0
s(lp1157
g165
atp1158
a(S'prakti\xc4\x8dno'
p1159
(dp1160
S'ADV'
p1161
F0.014122
sS'ADJ'
p1162
F0.985878
s(lp1163
g185
atp1164
a(S'te\xc5\xbeavo'
p1165
(dp1166
S'NOUN'
p1167
F1.0
s(lp1168
g177
atp1169
a(S'pri'
p1170
(dp1171
S'ADP'
p1172
F1.0
s(lp1173
tp1174
a(S'njihovi'
p1175
(dp1176
S'PRON'
p1177
F1.0
s(lp1178
g133
atp1179
a(S'pomembni'
p1180
(dp1181
S'ADJ'
p1182
F0.999999
s(lp1183
g210
atp1184
a(S'in'
p1185
(dp1186
S'ADV'
p1187
F8.9e-05
sg403
F3e-06
sS'CONJ'
p1188
F0.999908
sS'NOUN'
p1189
F1e-06
s(lp1190
g216
atp1191
a(S'u\xc4\x8dinkoviti'
p1192
(dp1193
S'ADJ'
p1194
F0.999999
s(lp1195
g223
atp1196
a(S'uporabi'
p1197
(dp1198
S'VERB'
p1199
F0.203689
sS'NOUN'
p1200
F0.796311
s(lp1201
g203
atp1202
a(g225
(dp1203
g225
F1.0
s(lp1204
g225
atp1205
asS'es'
p1206
(lp1207
(S'el'
p1208
(dp1209
S'PRON'
p1210
F1e-05
sS'DET'
p1211
F0.99999
s(lp1212
tp1213
a(S'incremento'
p1214
(dp1215
S'NOUN'
p1216
F1.0
s(lp1217
g9
atp1218
a(S'autom\xc3\xa1tico'
p1219
(dp1220
S'NOUN'
p1221
F0.001239
sS'ADJ'
p1222
F0.998761
s(lp1223
g21
atp1224
a(S'de'
p1225
(dp1226
g403
F0.0
sS'CONJ'
p1227
F0.000275
sS'ADP'
p1228
F0.999725
s(lp1229
tp1230
a(S'las'
p1231
(dp1232
S'PRON'
p1233
F0.000219
sS'DET'
p1234
F0.999781
s(lp1235
g33
atp1236
a(S'ayudas'
p1237
(dp1238
S'VERB'
p1239
F1.0
s(lp1240
tp1241
a(S'de'
p1242
(dp1243
g403
F0.0
sS'CONJ'
p1244
F2.6e-05
sS'ADP'
p1245
F0.999974
s(lp1246
tp1247
a(S'la'
p1248
(dp1249
S'NOUN'
p1250
F0.0
sS'PRON'
p1251
F0.0
sS'DET'
p1252
F0.999999
sg403
F0.0
s(lp1253
tp1254
a(S'ue'
p1255
(dp1256
S'VERB'
p1257
F4e-06
sS'NOUN'
p1258
F0.999996
s(lp1259
g52
atp1260
a(S'no'
p1261
(dp1262
S'ADV'
p1263
F1.0
sg403
F0.0
s(lp1264
g86
atp1265
a(S'es'
p1266
(dp1267
S'VERB'
p1268
F1.0
s(lp1269
g66
atp1270
a(g259
(dp1271
g225
F1.0
s(lp1272
g259
atp1273
a(S'posiblemente'
p1274
(dp1275
S'ADV'
p1276
F1.0
s(lp1277
g79
atp1278
a(g259
(dp1279
g225
F1.0
s(lp1280
g259
atp1281
a(S'el'
p1282
(dp1283
S'PRON'
p1284
F1e-05
sS'DET'
p1285
F0.99999
s(lp1286
g108
atp1287
a(S'enfoque'
p1288
(dp1289
S'NOUN'
p1290
F1.0
s(lp1291
g100
atp1292
a(S'm\xc3\xa1s'
p1293
(dp1294
S'ADV'
p1295
F0.999993
sS'CONJ'
p1296
F7e-06
s(lp1297
g115
atp1298
a(S'responsable'
p1299
(dp1300
S'NOUN'
p1301
F0.001971
sS'ADJ'
p1302
F0.998029
s(lp1303
g121
atp1304
a(S'cuando'
p1305
(dp1306
S'CONJ'
p1307
F1.0
s(lp1308
g147
atp1309
a(S'tenemos'
p1310
(dp1311
S'VERB'
p1312
F1.0
s(lp1313
g165
atp1314
a(S'el'
p1315
(dp1316
S'PRON'
p1317
F1e-06
sS'DET'
p1318
F0.999999
s(lp1319
g171
atp1320
a(S'problema'
p1321
(dp1322
S'NOUN'
p1323
F1.0
s(lp1324
g177
atp1325
a(S'pr\xc3\xa1ctico'
p1326
(dp1327
S'ADJ'
p1328
F1.0
s(lp1329
g185
atp1330
a(S'de'
p1331
(dp1332
g403
F0.0
sS'CONJ'
p1333
F0.00156
sS'ADP'
p1334
F0.998439
s(lp1335
g127
atp1336
a(S'c\xc3\xb3mo'
p1337
(dp1338
S'ADV'
p1339
F0.427487
sS'PRON'
p1340
F0.572513
s(lp1341
tp1342
a(S'hacer'
p1343
(dp1344
S'VERB'
p1345
F1.0
s(lp1346
g133
atp1347
a(S'un'
p1348
(dp1349
g403
F3e-06
sS'DET'
p1350
F0.999997
s(lp1351
g324
atp1352
a(S'uso'
p1353
(dp1354
S'NOUN'
p1355
F1.0
s(lp1356
g203
atp1357
a(S'razonable'
p1358
(dp1359
S'ADJ'
p1360
F1.0
s(lp1361
g210
atp1362
a(S'y'
p1363
(dp1364
g403
F0.000656
sS'CONJ'
p1365
F0.999344
s(lp1366
g216
atp1367
a(S'eficiente'
p1368
(dp1369
S'ADJ'
p1370
F1.0
s(lp1371
g223
atp1372
a(S'de'
p1373
(dp1374
g403
F0.0
sS'CONJ'
p1375
F0.000561
sS'ADP'
p1376
F0.999439
s(lp1377
g191
atp1378
a(S'dichas'
p1379
(dp1380
S'ADJ'
p1381
F1.0
s(lp1382
g197
atp1383
a(S'ayudas'
p1384
(dp1385
S'VERB'
p1386
F1.0
s(lp1387
g33
atp1388
a(g225
(dp1389
g225
F1.0
s(lp1390
g225
atp1391
as.