(dp0
S'fr'
p1
(lp2
(S'des'
p3
(dp4
S'DET'
p5
F0.000304
sS'ADP'
p6
F0.999696
s(lp7
tp8
a(S'mesures'
p9
(dp10
S'VERB'
p11
F0.0
sS'NOUN'
p12
F1.0
s(lp13
S'measures'
p14
atp15
a(S'symboliques'
p16
(dp17
S'NOUN'
p18
F0.009609
sS'ADJ'
p19
F0.990391
s(lp20
S'symbolic'
p21
atp22
a(S'ou'
p23
(dp24
S'CONJ'
p25
F1.0
s(lp26
S'or'
p27
atp28
a(S'purement'
p29
(dp30
S'ADV'
p31
F1.0
s(lp32
S'purely'
p33
atp34
a(S'pragmatiques'
p35
(dp36
S'ADJ'
p37
F1.0
s(lp38
S'pragmatic'
p39
atp40
a(S','
p41
(dp42
S'.'
p43
F1.0
s(lp44
tp45
a(S'telles'
p46
(dp47
S'PRON'
p48
F0.996827
sS'NOUN'
p49
F0.003173
s(lp50
S'such'
p51
atp52
a(S'que'
p53
(dp54
S'ADV'
p55
F0.008726
sS'PRON'
p56
F0.963459
sS'CONJ'
p57
F0.027815
s(lp58
S'as'
p59
atp60
a(S"l'"
p61
(dp62
S'ADJ'
p63
F0.009719
sS'VERB'
p64
F0.968577
sS'NOUN'
p65
F0.021705
s(lp66
S'the'
p67
atp68
a(S'adoption'
p69
(dp70
S'NOUN'
p71
F1.0
s(lp72
S'acceptance'
p73
atp74
a(S"d'"
p75
(dp76
S'NOUN'
p77
F0.032441
sS'VERB'
p78
F0.694014
sS'ADJ'
p79
F0.273544
s(lp80
S'of'
p81
atp82
a(S'un'
p83
(dp84
S'NOUN'
p85
F0.004897
sS'NUM'
p86
F0.005419
sS'DET'
p87
F0.989683
s(lp88
S'a'
p89
atp90
a(S'nouveau'
p91
(dp92
S'NOUN'
p93
F0.005022
sS'ADJ'
p94
F0.994978
s(lp95
S'new'
p96
atp97
a(S'programme'
p98
(dp99
S'VERB'
p100
F0.016183000000000003
sS'NOUN'
p101
F0.983817
s(lp102
S'programme'
p103
atp104
a(S'ou'
p105
(dp106
S'CONJ'
p107
F1.0
s(lp108
S'or'
p109
atp110
a(S'la'
p111
(dp112
S'PRON'
p113
F0.000103
sS'DET'
p114
F0.999897
sS'NOUN'
p115
F0.0
s(lp116
S'the'
p117
atp118
a(S'nomination'
p119
(dp120
S'NOUN'
p121
F1.0
s(lp122
S'appointment'
p123
atp124
a(S"d'"
p125
(dp126
S'NOUN'
p127
F0.032441
sS'VERB'
p128
F0.694014
sS'ADJ'
p129
F0.273544
s(lp130
S'of'
p131
atp132
a(S'un'
p133
(dp134
S'NOUN'
p135
F0.004901
sS'NUM'
p136
F0.005403
sS'DET'
p137
F0.989696
s(lp138
g89
atp139
a(S'nouveau'
p140
(dp141
S'NOUN'
p142
F0.004207
sS'ADJ'
p143
F0.995793
s(lp144
S'new'
p145
atp146
a(S'n\xc3\xa9gociateur'
p147
(dp148
S'NOUN'
p149
F1.0
s(lp150
S'negotiator'
p151
atp152
a(S'en'
p153
(dp154
S'PRON'
p155
F0.000406
sS'ADP'
p156
F0.999594
s(lp157
S'at'
p158
atp159
a(S'chef'
p160
(dp161
S'NOUN'
p162
F1.0
s(lp163
S'chief'
p164
atp165
a(S'sont'
p166
(dp167
S'VERB'
p168
F1.0
s(lp169
tp170
a(S'les'
p171
(dp172
S'PRON'
p173
F0.001693
sS'DET'
p174
F0.998268
sS'ADP'
p175
F3.9e-05
s(lp176
S'are'
p177
atp178
a(S'bienvenues'
p179
(dp180
S'ADJ'
p181
F0.188269
sS'VERB'
p182
F0.003395
sS'NOUN'
p183
F0.808335
s(lp184
S'welcome'
p185
atp186
a(g41
(dp187
g43
F1.0
s(lp188
g41
atp189
a(S'si'
p190
(dp191
S'ADV'
p192
F0.044591
sS'CONJ'
p193
F0.955346
sS'NOUN'
p194
F6.3e-05
s(lp195
S'if'
p196
atp197
a(S'on'
p198
(dp199
S'PRON'
p200
F1.0
s(lp201
S'you'
p202
atp203
a(S'les'
p204
(dp205
S'PRON'
p206
F0.999697
sS'DET'
p207
F0.000303
sS'ADP'
p208
F0.0
s(lp209
S'it'
p210
atp211
a(S'envisage'
p212
(dp213
S'VERB'
p214
F1.0
s(lp215
S'look'
p216
atp217
a(S"d'"
p218
(dp219
S'NOUN'
p220
F0.087886
sS'VERB'
p221
F0.7995690000000001
sS'ADJ'
p222
F0.112546
s(lp223
S'from'
p224
atp225
a(S'un'
p226
(dp227
S'NOUN'
p228
F0.000413
sS'NUM'
p229
F0.024886
sS'DET'
p230
F0.974701
s(lp231
g89
atp232
a(S'point'
p233
(dp234
S'ADV'
p235
F0.028258
sS'VERB'
p236
F0.000244
sS'NOUN'
p237
F0.971498
s(lp238
S'point'
p239
atp240
a(S'de'
p241
(dp242
S'ADP'
p243
F1.0
s(lp244
S'of'
p245
atp246
a(S'vue'
p247
(dp248
S'VERB'
p249
F2.7e-05
sS'NOUN'
p250
F0.999973
s(lp251
S'view'
p252
atp253
a(S'purement'
p254
(dp255
S'ADV'
p256
F1.0
s(lp257
S'purely'
p258
atp259
a(S'pratique'
p260
(dp261
S'NOUN'
p262
F0.051624
sS'VERB'
p263
F0.008591
sS'ADJ'
p264
F0.939786
s(lp265
S'practical'
p266
atp267
a(g43
(dp268
g43
F1.0
s(lp269
g43
atp270
asS'en'
p271
(lp272
(g21
(dp273
S'ADJ'
p274
F1.0
s(lp275
g21
atp276
a(g27
(dp277
S'CONJ'
p278
F0.999997
sS'ADJ'
p279
F3e-06
s(lp280
g27
atp281
a(g33
(dp282
S'ADV'
p283
F1.0
s(lp284
g33
atp285
a(g39
(dp286
S'ADJ'
p287
F1.0
s(lp288
g39
atp289
a(g14
(dp290
S'VERB'
p291
F0.003773
sS'NOUN'
p292
F0.9962270000000001
s(lp293
g14
atp294
a(g51
(dp295
S'ADV'
p296
F0.002068
sS'DET'
p297
F2.7e-05
sS'ADJ'
p298
F0.996638
sS'ADP'
p299
F0.001268
s(lp300
g51
atp301
a(g59
(dp302
S'ADV'
p303
F0.014153
sS'ADP'
p304
F0.985847
s(lp305
g59
atp306
a(g67
(dp307
S'NOUN'
p308
F1e-06
sS'DET'
p309
F0.999999
s(lp310
g67
atp311
a(g73
(dp312
S'NOUN'
p313
F1.0
s(lp314
g73
atp315
a(g81
(dp316
S'ADP'
p317
F1.0
s(lp318
g81
atp319
a(g89
(dp320
S'NOUN'
p321
F0.0
sS'DET'
p322
F1.0
s(lp323
g89
atp324
a(g96
(dp325
S'NOUN'
p326
F5.2e-05
sS'ADJ'
p327
F0.999948
s(lp328
g96
atp329
a(g103
(dp330
S'VERB'
p331
F0.000351
sS'NOUN'
p332
F0.999649
s(lp333
g103
atp334
a(g109
(dp335
S'CONJ'
p336
F1.0
sS'ADJ'
p337
F0.0
s(lp338
g109
atp339
a(g117
(dp340
S'NOUN'
p341
F2e-06
sS'DET'
p342
F0.999998
s(lp343
g117
atp344
a(g123
(dp345
S'NOUN'
p346
F1.0
s(lp347
g123
atp348
a(g131
(dp349
S'ADP'
p350
F1.0
s(lp351
g131
atp352
a(g89
(dp353
S'NOUN'
p354
F0.0
sS'DET'
p355
F1.0
s(lp356
g89
atp357
a(g145
(dp358
S'NOUN'
p359
F2.4e-05
sS'ADJ'
p360
F0.999976
s(lp361
g145
atp362
a(g164
(dp363
S'ADV'
p364
F3e-06
sS'NOUN'
p365
F0.068051
sS'ADJ'
p366
F0.931946
s(lp367
g164
atp368
a(g151
(dp369
S'NOUN'
p370
F1.0
s(lp371
g151
atp372
a(g177
(dp373
S'VERB'
p374
F0.999735
sS'NOUN'
p375
F0.000265
s(lp376
g177
atp377
a(g185
(dp378
S'NOUN'
p379
F0.069822
sS'VERB'
p380
F0.000117
sS'ADJ'
p381
F0.930061
s(lp382
g185
atp383
a(g41
(dp384
g43
F1.0
s(lp385
g41
atp386
a(g196
(dp387
S'ADP'
p388
F1.0
s(lp389
g196
atp390
a(g202
(dp391
S'PRON'
p392
F1.0
s(lp393
g202
atp394
a(g216
(dp395
S'VERB'
p396
F0.9999469999999999
sS'NOUN'
p397
F5.3e-05
s(lp398
g216
atp399
a(g158
(dp400
S'NOUN'
p401
F1.1e-05
sS'ADP'
p402
F0.999989
s(lp403
g158
atp404
a(g210
(dp405
S'PRON'
p406
F1.0
s(lp407
g210
atp408
a(g224
(dp409
S'ADP'
p410
F1.0
s(lp411
g224
atp412
a(g89
(dp413
S'NOUN'
p414
F1e-06
sS'DET'
p415
F0.999999
s(lp416
g89
atp417
a(g258
(dp418
S'ADV'
p419
F1.0
s(lp420
g258
atp421
a(g266
(dp422
S'ADJ'
p423
F1.0
s(lp424
g266
atp425
a(g239
(dp426
S'VERB'
p427
F0.000592
sS'NOUN'
p428
F0.999408
s(lp429
g239
atp430
a(g245
(dp431
S'ADP'
p432
F1.0
s(lp433
g245
atp434
a(g252
(dp435
S'VERB'
p436
F0.000658
sS'NOUN'
p437
F0.999342
s(lp438
g252
atp439
a(g43
(dp440
g43
F1.0
s(lp441
g43
atp442
asS'nl'
p443
(lp444
(S'symbolische'
p445
(dp446
S'NOUN'
p447
F0.087282
sS'ADJ'
p448
F0.912718
s(lp449
g21
atp450
a(S'of'
p451
(dp452
S'CONJ'
p453
F1.0
s(lp454
g27
atp455
a(S'puur'
p456
(dp457
S'ADV'
p458
F0.560842
sS'VERB'
p459
F0.008696
sS'ADJ'
p460
F0.430462
s(lp461
g33
atp462
a(S'praktische'
p463
(dp464
S'NOUN'
p465
F3e-06
sS'ADJ'
p466
F0.999997
s(lp467
g39
atp468
a(S'maatregelen'
p469
(dp470
S'NOUN'
p471
F1.0
s(lp472
g14
atp473
a(S'zoals'
p474
(dp475
S'CONJ'
p476
F1.0
s(lp477
g51
atp478
a(S'de'
p479
(dp480
S'DET'
p481
F1.0
s(lp482
g67
atp483
a(S'goedkeuring'
p484
(dp485
S'NOUN'
p486
F1.0
s(lp487
g73
atp488
a(S'van'
p489
(dp490
S'ADP'
p491
F1.0
s(lp492
g81
atp493
a(S'een'
p494
(dp495
S'ADJ'
p496
F1e-06
sS'PRON'
p497
F0.000523
sS'NUM'
p498
F1e-06
sS'DET'
p499
F0.999476
s(lp500
g89
atp501
a(S'nieuw'
p502
(dp503
S'ADJ'
p504
F1.0
s(lp505
g96
atp506
a(S'programma'
p507
(dp508
S'NOUN'
p509
F1.0
s(lp510
g103
atp511
a(S'of'
p512
(dp513
S'CONJ'
p514
F1.0
s(lp515
g109
atp516
a(S'de'
p517
(dp518
S'DET'
p519
F1.0
s(lp520
g117
atp521
a(S'benoeming'
p522
(dp523
S'NOUN'
p524
F1.0
s(lp525
g123
atp526
a(S'van'
p527
(dp528
S'ADP'
p529
F1.0
s(lp530
g131
atp531
a(S'een'
p532
(dp533
S'ADJ'
p534
F1e-06
sS'PRON'
p535
F0.000523
sS'NUM'
p536
F1e-06
sS'DET'
p537
F0.999476
s(lp538
g89
atp539
a(S'nieuwe'
p540
(dp541
S'NOUN'
p542
F1.7e-05
sS'ADJ'
p543
F0.999983
s(lp544
g145
atp545
a(S'hoofdonderhandelaar'
p546
(dp547
S'NOUN'
p548
F1.0
s(lp549
g151
atp550
a(S'zijn'
p551
(dp552
S'PRON'
p553
F2e-06
sS'VERB'
p554
F0.999483
sS'NOUN'
p555
F0.000514
s(lp556
g177
atp557
a(S'te'
p558
(dp559
S'PRT'
p560
F1.0
s(lp561
tp562
a(S'verwelkomen'
p563
(dp564
S'VERB'
p565
F0.9999990000000001
sS'NOUN'
p566
F1e-06
s(lp567
g185
atp568
a(g41
(dp569
g43
F1.0
s(lp570
g41
atp571
a(S'als'
p572
(dp573
S'CONJ'
p574
F1.0
s(lp575
g196
atp576
a(S'men'
p577
(dp578
S'PRON'
p579
F0.999994
sS'VERB'
p580
F6e-06
s(lp581
g202
atp582
a(S'het'
p583
(dp584
S'PRON'
p585
F0.065096
sS'DET'
p586
F0.934904
s(lp587
g210
atp588
a(S'puur'
p589
(dp590
S'ADV'
p591
F0.038915
sS'VERB'
p592
F0.000933
sS'ADJ'
p593
F0.960153
s(lp594
g258
atp595
a(S'praktisch'
p596
(dp597
S'ADJ'
p598
F1.0
s(lp599
g266
atp600
a(S'bekijkt'
p601
(dp602
S'VERB'
p603
F1.0
s(lp604
g252
atp605
a(g43
(dp606
g43
F1.0
s(lp607
g43
atp608
asS'de'
p609
(lp610
(S'symbolische'
p611
(dp612
S'ADJ'
p613
F1.0
s(lp614
g21
atp615
a(S'oder'
p616
(dp617
S'CONJ'
p618
F1.0
s(lp619
g27
atp620
a(S'rein'
p621
(dp622
S'ADV'
p623
F0.996865
sS'ADJ'
p624
F0.003131
s(lp625
g33
atp626
a(S'pragmatische'
p627
(dp628
S'ADJ'
p629
F1.0
s(lp630
g39
atp631
a(S'ma\xc3\x9fnahmen'
p632
(dp633
S'VERB'
p634
F1.0
s(lp635
g14
atp636
a(S'wie'
p637
(dp638
S'CONJ'
p639
F1.0
s(lp640
g59
atp641
a(S'die'
p642
(dp643
S'PRON'
p644
F0.008959
sS'DET'
p645
F0.990985
s(lp646
g67
atp647
a(S'annahme'
p648
(dp649
S'VERB'
p650
F0.008259
sS'NOUN'
p651
F0.983988
s(lp652
g73
atp653
a(S'eines'
p654
(dp655
S'PRON'
p656
F0.002589
sS'DET'
p657
F0.996948
s(lp658
g89
atp659
a(S'neuen'
p660
(dp661
S'ADJ'
p662
F1.0
s(lp663
g96
atp664
a(S'programms'
p665
(dp666
S'ADJ'
p667
F0.0003
sS'NOUN'
p668
F0.999677
s(lp669
g103
atp670
a(S'oder'
p671
(dp672
S'CONJ'
p673
F1.0
s(lp674
g109
atp675
a(S'die'
p676
(dp677
S'PRON'
p678
F0.003007
sS'DET'
p679
F0.994017
s(lp680
g117
atp681
a(S'ernennung'
p682
(dp683
S'VERB'
p684
F0.000162
sS'NOUN'
p685
F0.99965
s(lp686
g123
atp687
a(S'eines'
p688
(dp689
S'PRON'
p690
F0.002409
sS'DET'
p691
F0.99714
s(lp692
g89
atp693
a(S'neuen'
p694
(dp695
S'ADJ'
p696
F1.0
s(lp697
g145
atp698
a(S'chefunterh\xc3\xa4ndlers'
p699
(dp700
S'NOUN'
p701
F0.992057
s(lp702
g151
atp703
a(S'sind'
p704
(dp705
S'VERB'
p706
F1.0
s(lp707
g177
atp708
a(S'erfreulich'
p709
(dp710
S'ADJ'
p711
F1.0
s(lp712
g185
atp713
a(g41
(dp714
g43
F1.0
s(lp715
g41
atp716
a(S'wenn'
p717
(dp718
S'CONJ'
p719
F1.0
s(lp720
g196
atp721
a(S'man'
p722
(dp723
S'PRON'
p724
F1.0
s(lp725
g202
atp726
a(S'das'
p727
(dp728
S'PRON'
p729
F0.016
sS'DET'
p730
F0.969159
s(lp731
g210
atp732
a(S'rein'
p733
(dp734
S'ADV'
p735
F0.990641
sS'ADJ'
p736
F0.009122
s(lp737
g258
atp738
a(S'praktisch'
p739
(dp740
S'ADJ'
p741
F1.0
s(lp742
g266
atp743
a(S'betrachtet'
p744
(dp745
S'VERB'
p746
F0.983243
s(lp747
g252
atp748
a(g43
(dp749
g43
F1.0
s(lp750
g43
atp751
asS'it'
p752
(lp753
(S'provvedimenti'
p754
(dp755
S'NOUN'
p756
F1.0
s(lp757
g14
atp758
a(S'simbolici'
p759
(dp760
S'ADJ'
p761
F1.0
s(lp762
g21
atp763
a(S'o'
p764
(dp765
S'X'
p766
F3e-06
sS'CONJ'
p767
F0.999997
s(lp768
g27
atp769
a(S'semplicemente'
p770
(dp771
S'ADV'
p772
F1.0
s(lp773
g33
atp774
a(S'pragmatici'
p775
(dp776
S'NOUN'
p777
F0.015704
sS'ADJ'
p778
F0.984296
s(lp779
g39
atp780
a(g41
(dp781
g43
F1.0
s(lp782
g51
atp783
a(S'come'
p784
(dp785
S'PRON'
p786
F0.007104
sS'CONJ'
p787
F0.739831
sS'NOUN'
p788
F5.3e-05
sS'ADP'
p789
F0.253012
s(lp790
g59
atp791
a(S'la'
p792
(dp793
S'PRON'
p794
F0.000402
sS'DET'
p795
F0.999598
s(lp796
g67
atp797
a(S'sottoscrizione'
p798
(dp799
S'NOUN'
p800
F1.0
s(lp801
g73
atp802
a(S'di'
p803
(dp804
S'CONJ'
p805
F1.6e-05
sS'ADP'
p806
F0.999984
s(lp807
g81
atp808
a(S'un'
p809
(dp810
S'PRON'
p811
F0.001155
sS'DEF'
p812
F0.998845
s(lp813
g89
atp814
a(S'nuovo'
p815
(dp816
S'NOUN'
p817
F0.001464
sS'ADJ'
p818
F0.998536
s(lp819
g96
atp820
a(S'programma'
p821
(dp822
S'VERB'
p823
F0.0018239999999999999
sS'NOUN'
p824
F0.998176
s(lp825
g103
atp826
a(g41
(dp827
g43
F1.0
s(lp828
tp829
a(S'oppure'
p830
(dp831
S'CONJ'
p832
F1.0
s(lp833
g109
atp834
a(S'la'
p835
(dp836
S'PRON'
p837
F0.067025
sS'DET'
p838
F0.932975
s(lp839
g117
atp840
a(S'nomina'
p841
(dp842
S'VERB'
p843
F0.06815
sS'NOUN'
p844
F0.93185
s(lp845
g123
atp846
a(S'di'
p847
(dp848
S'CONJ'
p849
F1.6e-05
sS'ADP'
p850
F0.999984
s(lp851
g131
atp852
a(S'un'
p853
(dp854
S'PRON'
p855
F0.001155
sS'DEF'
p856
F0.998845
s(lp857
g89
atp858
a(S'nuovo'
p859
(dp860
S'NOUN'
p861
F0.00142
sS'ADJ'
p862
F0.99858
s(lp863
g145
atp864
a(S'negoziatore'
p865
(dp866
S'NOUN'
p867
F1.0
s(lp868
g151
atp869
a(S'capo'
p870
(dp871
S'VERB'
p872
F0.002893
sS'NOUN'
p873
F0.997107
s(lp874
g164
atp875
a(S'sono'
p876
(dp877
S'VERB'
p878
F0.998484
sS'NOUN'
p879
F0.001516
s(lp880
g177
atp881
a(S'benvenuti'
p882
(dp883
S'NOUN'
p884
F0.12151
sS'ADJ'
p885
F0.87849
s(lp886
g185
atp887
a(S'se'
p888
(dp889
S'PRON'
p890
F2.7e-05
sS'CONJ'
p891
F0.999381
sS'NOUN'
p892
F0.000592
s(lp893
g196
atp894
a(S'li'
p895
(dp896
S'PRON'
p897
F1.0
s(lp898
g202
atp899
a(S'analizziamo'
p900
(dp901
S'VERB'
p902
F1.0000010000000001
s(lp903
g216
atp904
a(S'da'
p905
(dp906
S'ADP'
p907
F1.0
s(lp908
g224
atp909
a(S'una'
p910
(dp911
S'PRON'
p912
F0.000146
sS'DEF'
p913
F0.999854
s(lp914
g89
atp915
a(S'prospettiva'
p916
(dp917
S'ADJ'
p918
F0.141053
sS'NOUN'
p919
F0.858947
s(lp920
g252
atp921
a(S'squisitamente'
p922
(dp923
S'ADV'
p924
F1.0
s(lp925
g258
atp926
a(S'pratica'
p927
(dp928
S'NOUN'
p929
F0.339166
sS'VERB'
p930
F0.001008
sS'ADJ'
p931
F0.659825
s(lp932
g266
atp933
a(g43
(dp934
g43
F1.0
s(lp935
g43
atp936
asS'sk'
p937
(lp938
(S'symbolick\xc3\xa9'
p939
(dp940
S'ADJ'
p941
F1.0
s(lp942
g21
atp943
a(S'alebo'
p944
(dp945
g766
F1.9e-05
sS'CONJ'
p946
F0.999981
s(lp947
g27
atp948
a(S'\xc4\x8disto'
p949
(dp950
S'ADV'
p951
F0.85684
sg766
F0.14316
s(lp952
g33
atp953
a(S'pragmatick\xc3\xa9'
p954
(dp955
S'ADJ'
p956
F1.0
s(lp957
g39
atp958
a(S'opatrenia'
p959
(dp960
S'NOUN'
p961
F1.0
s(lp962
g14
atp963
a(g41
(dp964
g43
F1.0
s(lp965
tp966
a(S'ak\xc3\xbdmi'
p967
(dp968
S'PRON'
p969
F1.0
s(lp970
tp971
a(S's\xc3\xba'
p972
(dp973
S'VERB'
p974
F1.0
s(lp975
g51
atp976
a(S'prijatie'
p977
(dp978
S'NOUN'
p979
F1.0
s(lp980
g73
atp981
a(S'nov\xc3\xa9ho'
p982
(dp983
S'ADJ'
p984
F1.0
s(lp985
g96
atp986
a(S'programu'
p987
(dp988
S'NOUN'
p989
F1.0
s(lp990
g103
atp991
a(S'\xc4\x8di'
p992
(dp993
g766
F0.001548
sS'CONJ'
p994
F0.998451
s(lp995
g109
atp996
a(S'menovanie'
p997
(dp998
S'NOUN'
p999
F1.0
s(lp1000
g123
atp1001
a(S'nov\xc3\xa9ho'
p1002
(dp1003
S'ADJ'
p1004
F1.0
s(lp1005
g145
atp1006
a(S'hlavn\xc3\xa9ho'
p1007
(dp1008
S'ADJ'
p1009
F1.0
s(lp1010
g164
atp1011
a(S'vyjedn\xc3\xa1va\xc4\x8da'
p1012
(dp1013
S'NOUN'
p1014
F1.0
s(lp1015
g151
atp1016
a(g41
(dp1017
g43
F1.0
s(lp1018
tp1019
a(S's\xc3\xba'
p1020
(dp1021
S'VERB'
p1022
F1.0
s(lp1023
g177
atp1024
a(S'v\xc3\xadtan\xc3\xa9'
p1025
(dp1026
S'VERB'
p1027
F1.0
s(lp1028
g185
atp1029
a(g41
(dp1030
g43
F1.0
s(lp1031
g41
atp1032
a(S'ke\xc4\x8f'
p1033
(dp1034
g766
F0.000352
sS'CONJ'
p1035
F0.999648
s(lp1036
g196
atp1037
a(S'ich'
p1038
(dp1039
S'PRON'
p1040
F1.0
s(lp1041
g210
atp1042
a(S'vn\xc3\xadmate'
p1043
(dp1044
S'VERB'
p1045
F1.0
s(lp1046
g252
atp1047
a(S'z'
p1048
(dp1049
g766
F0.001297
sS'NOUN'
p1050
F0.000124
sS'ADP'
p1051
F0.998579
s(lp1052
g224
atp1053
a(S'\xc4\x8disto'
p1054
(dp1055
S'ADV'
p1056
F0.956049
sg766
F0.043951
s(lp1057
g258
atp1058
a(S'praktick\xc3\xa9ho'
p1059
(dp1060
S'ADJ'
p1061
F1.0
s(lp1062
g266
atp1063
a(S'h\xc4\xbeadiska'
p1064
(dp1065
S'NOUN'
p1066
F1.0
s(lp1067
g239
atp1068
a(g43
(dp1069
g43
F1.0
s(lp1070
g43
atp1071
asS'pl'
p1072
(lp1073
(S'symboliczne'
p1074
(dp1075
S'ADJ'
p1076
F0.9999999999999999
s(lp1077
g21
atp1078
a(S'lub'
p1079
(dp1080
S'CONJ'
p1081
F1.0
s(lp1082
g27
atp1083
a(S'czysto'
p1084
(dp1085
S'ADV'
p1086
F1.0
s(lp1087
g33
atp1088
a(S'pragmatyczne'
p1089
(dp1090
S'ADV'
p1091
F0.000265
sS'NOUN'
p1092
F0.000183
sS'VERB'
p1093
F0.003673000000000001
sS'ADJ'
p1094
F0.995876
s(lp1095
g39
atp1096
a(S'\xc5\x9brodki'
p1097
(dp1098
S'NOUN'
p1099
F1.0
s(lp1100
g14
atp1101
a(g41
(dp1102
g766
F0.0
sg43
F1.0
s(lp1103
tp1104
a(S'jak'
p1105
(dp1106
S'ADV'
p1107
F0.217509
sS'PRT'
p1108
F0.000305
sS'CONJ'
p1109
F0.161768
sS'ADP'
p1110
F0.620398
sS'PRON'
p1111
F2.1e-05
s(lp1112
g59
atp1113
a(S'przyj\xc4\x99cie'
p1114
(dp1115
S'VERB'
p1116
F0.9622240000000001
sS'NOUN'
p1117
F0.037776
s(lp1118
g73
atp1119
a(S'nowego'
p1120
(dp1121
S'ADJ'
p1122
F0.999999
s(lp1123
g96
atp1124
a(S'programu'
p1125
(dp1126
S'NOUN'
p1127
F1.0
s(lp1128
g103
atp1129
a(S'czy'
p1130
(dp1131
S'PRT'
p1132
F0.117319
sS'CONJ'
p1133
F0.882676
sS'NUM'
p1134
F2e-06
sS'NOUN'
p1135
F4e-06
s(lp1136
g109
atp1137
a(S'nominacja'
p1138
(dp1139
S'NOUN'
p1140
F1.0
s(lp1141
g123
atp1142
a(S'nowego'
p1143
(dp1144
S'ADJ'
p1145
F0.999999
s(lp1146
g145
atp1147
a(S'g\xc5\x82\xc3\xb3wnego'
p1148
(dp1149
S'ADJ'
p1150
F0.9999999999999999
s(lp1151
g164
atp1152
a(S'negocjatora'
p1153
(dp1154
S'ADJ'
p1155
F2.8e-05
sS'VERB'
p1156
F2e-06
sS'NOUN'
p1157
F0.9999689999999997
s(lp1158
g151
atp1159
a(S's\xc4\x85'
p1160
(dp1161
S'VERB'
p1162
F1.0
s(lp1163
g177
atp1164
a(S'po\xc5\xbc\xc4\x85dane'
p1165
(dp1166
S'VERB'
p1167
F0.003973
sS'ADJ'
p1168
F0.996027
s(lp1169
g185
atp1170
a(g41
(dp1171
g766
F0.0
sg43
F1.0
s(lp1172
g41
atp1173
a(S'patrz\xc4\x85c'
p1174
(dp1175
S'VERB'
p1176
F1.0
s(lp1177
g216
atp1178
a(g1048
(dp1179
S'PRT'
p1180
F0.000307
sS'VERB'
p1181
F3.3e-05
sS'NOUN'
p1182
F3.7e-05
sS'ADP'
p1183
F0.999485
sg766
F0.000137
s(lp1184
g224
atp1185
a(S'czysto'
p1186
(dp1187
S'ADV'
p1188
F1.0
s(lp1189
g258
atp1190
a(S'praktycznej'
p1191
(dp1192
S'ADJ'
p1193
F1.0
s(lp1194
g266
atp1195
a(S'perspektywy'
p1196
(dp1197
S'NOUN'
p1198
F0.9999990000000001
s(lp1199
g252
atp1200
a(g43
(dp1201
g43
F1.0
s(lp1202
g43
atp1203
asS'sl'
p1204
(lp1205
(S'simboli\xc4\x8dni'
p1206
(dp1207
S'ADJ'
p1208
F1.0
s(lp1209
g21
atp1210
a(S'ali'
p1211
(dp1212
S'ADV'
p1213
F0.004671
sS'CONJ'
p1214
F0.995329
s(lp1215
g27
atp1216
a(S'povsem'
p1217
(dp1218
S'ADV'
p1219
F1.0
s(lp1220
g33
atp1221
a(S'pragmati\xc4\x8dni'
p1222
(dp1223
S'ADV'
p1224
F3.2e-05
sS'NOUN'
p1225
F4.399999999999999e-05
sS'VERB'
p1226
F0.001615
sS'ADJ'
p1227
F0.998306
s(lp1228
g39
atp1229
a(S'ukrepi'
p1230
(dp1231
S'NOUN'
p1232
F1.0
s(lp1233
g14
atp1234
a(g41
(dp1235
g43
F1.0
s(lp1236
g51
atp1237
a(S'kot'
p1238
(dp1239
S'CONJ'
p1240
F0.999971
sS'NOUN'
p1241
F2.9e-05
s(lp1242
g59
atp1243
a(S'je'
p1244
(dp1245
S'PRON'
p1246
F0.001246
sS'VERB'
p1247
F0.998753
sg766
F1e-06
s(lp1248
g67
atp1249
a(S'sprejetje'
p1250
(dp1251
S'NOUN'
p1252
F1.0
s(lp1253
g73
atp1254
a(S'novega'
p1255
(dp1256
S'ADJ'
p1257
F0.999999
s(lp1258
g96
atp1259
a(S'programa'
p1260
(dp1261
S'NOUN'
p1262
F1.0
s(lp1263
g103
atp1264
a(S'ali'
p1265
(dp1266
S'ADV'
p1267
F0.006386
sS'CONJ'
p1268
F0.993614
s(lp1269
g109
atp1270
a(S'imenovanje'
p1271
(dp1272
S'NOUN'
p1273
F1.0
s(lp1274
g123
atp1275
a(S'novega'
p1276
(dp1277
S'ADJ'
p1278
F1.0
s(lp1279
g145
atp1280
a(S'glavnega'
p1281
(dp1282
S'ADJ'
p1283
F0.999999
s(lp1284
g164
atp1285
a(S'pogajalca'
p1286
(dp1287
S'NOUN'
p1288
F1.0
s(lp1289
g151
atp1290
a(g41
(dp1291
g43
F1.0
s(lp1292
tp1293
a(S'so'
p1294
(dp1295
g766
F0.000468
sS'VERB'
p1296
F0.999532
s(lp1297
g177
atp1298
a(S'dobrodo\xc5\xa1li'
p1299
(dp1300
S'ADJ'
p1301
F1.0
s(lp1302
g185
atp1303
a(g41
(dp1304
g43
F1.0
s(lp1305
g41
atp1306
a(S'\xc4\x8de'
p1307
(dp1308
S'CONJ'
p1309
F1.0
s(lp1310
g196
atp1311
a(S'na'
p1312
(dp1313
S'ADP'
p1314
F1.0
s(lp1315
g158
atp1316
a(S'njih'
p1317
(dp1318
S'PRON'
p1319
F1.0
s(lp1320
g210
atp1321
a(S'gledate'
p1322
(dp1323
S'VERB'
p1324
F1.0
s(lp1325
g216
atp1326
a(S's'
p1327
(dp1328
S'VERB'
p1329
F0.003263
sS'NOUN'
p1330
F0.001464
sS'ADP'
p1331
F0.9952730000000001
s(lp1332
g224
atp1333
a(S'povsem'
p1334
(dp1335
S'ADV'
p1336
F1.0
s(lp1337
g258
atp1338
a(S'prakti\xc4\x8dnega'
p1339
(dp1340
S'ADJ'
p1341
F1.0
s(lp1342
g266
atp1343
a(S'zornega'
p1344
(dp1345
S'ADJ'
p1346
F1.0
s(lp1347
g239
atp1348
a(S'kota'
p1349
(dp1350
S'NOUN'
p1351
F1.0
s(lp1352
g252
atp1353
a(g43
(dp1354
g43
F1.0
s(lp1355
g43
atp1356
asS'es'
p1357
(lp1358
(S'las'
p1359
(dp1360
S'PRON'
p1361
F1.5e-05
sS'DET'
p1362
F0.999985
s(lp1363
tp1364
a(S'medidas'
p1365
(dp1366
S'VERB'
p1367
F0.000191
sS'NOUN'
p1368
F0.999809
s(lp1369
g14
atp1370
a(S'simb\xc3\xb3licas'
p1371
(dp1372
S'ADJ'
p1373
F1.0
s(lp1374
g21
atp1375
a(g764
(dp1376
g766
F8e-06
sS'CONJ'
p1377
F0.999992
s(lp1378
g27
atp1379
a(S'puramente'
p1380
(dp1381
S'ADV'
p1382
F1.0
s(lp1383
g33
atp1384
a(S'pragm\xc3\xa1ticas'
p1385
(dp1386
S'ADJ'
p1387
F1.0
s(lp1388
g39
atp1389
a(S'como'
p1390
(dp1391
S'ADV'
p1392
F0.064762
sS'CONJ'
p1393
F0.935238
s(lp1394
g59
atp1395
a(S'la'
p1396
(dp1397
S'PRON'
p1398
F0.000127
sS'DET'
p1399
F0.999873
sg766
F0.0
sS'NOUN'
p1400
F0.0
s(lp1401
g67
atp1402
a(S'aceptaci\xc3\xb3n'
p1403
(dp1404
S'NOUN'
p1405
F1.0
s(lp1406
g73
atp1407
a(S'de'
p1408
(dp1409
g766
F2e-06
sS'CONJ'
p1410
F1.7e-05
sS'ADP'
p1411
F0.999981
s(lp1412
g81
atp1413
a(S'un'
p1414
(dp1415
g766
F1.9e-05
sS'DET'
p1416
F0.999981
s(lp1417
g89
atp1418
a(S'nuevo'
p1419
(dp1420
S'ADJ'
p1421
F1.0
s(lp1422
g96
atp1423
a(S'programa'
p1424
(dp1425
S'NOUN'
p1426
F1.0
s(lp1427
g103
atp1428
a(g764
(dp1429
g766
F0.000579
sS'CONJ'
p1430
F0.999421
s(lp1431
g109
atp1432
a(S'la'
p1433
(dp1434
S'PRON'
p1435
F0.000591
sS'DET'
p1436
F0.999408
sS'NOUN'
p1437
F0.0
sg766
F0.0
s(lp1438
g117
atp1439
a(S'designaci\xc3\xb3n'
p1440
(dp1441
S'NOUN'
p1442
F1.0
s(lp1443
g123
atp1444
a(S'de'
p1445
(dp1446
g766
F2e-06
sS'CONJ'
p1447
F1.7e-05
sS'ADP'
p1448
F0.999981
s(lp1449
g131
atp1450
a(S'un'
p1451
(dp1452
g766
F1.9e-05
sS'DET'
p1453
F0.999981
s(lp1454
g89
atp1455
a(S'nuevo'
p1456
(dp1457
S'ADJ'
p1458
F1.0
s(lp1459
g145
atp1460
a(S'jefe'
p1461
(dp1462
S'NOUN'
p1463
F1.0
s(lp1464
tp1465
a(S'del'
p1466
(dp1467
S'ADP'
p1468
F1.0
s(lp1469
tp1470
a(S'equipo'
p1471
(dp1472
S'NOUN'
p1473
F1.0
s(lp1474
g164
atp1475
a(S'negociador'
p1476
(dp1477
S'NOUN'
p1478
F0.003926
sS'ADJ'
p1479
F0.996074
s(lp1480
g151
atp1481
a(S'son'
p1482
(dp1483
S'VERB'
p1484
F0.998916
sS'NOUN'
p1485
F0.001084
s(lp1486
g177
atp1487
a(S'bienvenidas'
p1488
(dp1489
S'NOUN'
p1490
F0.009567
sS'ADJ'
p1491
F0.990433
s(lp1492
g185
atp1493
a(g41
(dp1494
g43
F1.0
s(lp1495
g41
atp1496
a(S'si'
p1497
(dp1498
S'CONJ'
p1499
F0.99999
sS'NOUN'
p1500
F1e-05
s(lp1501
g196
atp1502
a(S'se'
p1503
(dp1504
S'PRON'
p1505
F1.0
sS'VERB'
p1506
F0.0
s(lp1507
g202
atp1508
a(S'miran'
p1509
(dp1510
S'VERB'
p1511
F1.0
s(lp1512
g216
atp1513
a(S'desde'
p1514
(dp1515
S'ADP'
p1516
F1.0
s(lp1517
g224
atp1518
a(S'un'
p1519
(dp1520
g766
F2e-06
sS'DET'
p1521
F0.999998
s(lp1522
g89
atp1523
a(S'punto'
p1524
(dp1525
S'NOUN'
p1526
F1.0
s(lp1527
g239
atp1528
a(S'de'
p1529
(dp1530
g766
F2.7e-05
sS'CONJ'
p1531
F0.000891
sS'ADP'
p1532
F0.999082
s(lp1533
g245
atp1534
a(S'vista'
p1535
(dp1536
S'VERB'
p1537
F0.056331
sS'NOUN'
p1538
F0.943669
s(lp1539
g252
atp1540
a(S'meramente'
p1541
(dp1542
S'ADV'
p1543
F1.0
s(lp1544
g258
atp1545
a(S'pr\xc3\xa1ctico'
p1546
(dp1547
S'ADJ'
p1548
F1.0
s(lp1549
g266
atp1550
a(g43
(dp1551
g43
F1.0
s(lp1552
g43
atp1553
as.