(dp0
S'fr'
p1
(lp2
(S'les'
p3
(dp4
S'PRON'
p5
F0.000397
sS'DET'
p6
F0.99958
sS'ADP'
p7
F2.3e-05
s(lp8
tp9
a(S'agriculteurs'
p10
(dp11
S'NOUN'
p12
F1.0
s(lp13
S'farmers'
p14
atp15
a(S'europ\xc3\xa9ens'
p16
(dp17
S'NOUN'
p18
F0.012186
sS'ADJ'
p19
F0.987814
s(lp20
S'european'
p21
atp22
a(S','
p23
(dp24
S'.'
p25
F1.0
s(lp26
g23
atp27
a(S'respectueux'
p28
(dp29
S'NOUN'
p30
F0.209028
sS'ADJ'
p31
F0.790972
s(lp32
S'respecting'
p33
atp34
a(S'des'
p35
(dp36
S'DET'
p37
F2.2e-05
sS'ADP'
p38
F0.999978
s(lp39
S'stringent'
p40
atp41
a(S'normes'
p42
(dp43
S'VERB'
p44
F1e-06
sS'NOUN'
p45
F0.999999
s(lp46
g40
atp47
a(S'les'
p48
(dp49
S'PRON'
p50
F0.228375
sS'DET'
p51
F0.769479
sS'ADP'
p52
F0.002146
s(lp53
S'clauses'
p54
atp55
a(S'plus'
p56
(dp57
S'ADV'
p58
F0.99973
sS'VERB'
p59
F0.00027
s(lp60
tp61
a(S'strictes'
p62
(dp63
S'ADJ'
p64
F1.0
s(lp65
g40
atp66
a(S'en'
p67
(dp68
S'PRON'
p69
F0.000275
sS'ADP'
p70
F0.999725
s(lp71
tp72
a(S'mati\xc3\xa8re'
p73
(dp74
S'NOUN'
p75
F1.0
s(lp76
S'regarding'
p77
atp78
a(S'de'
p79
(dp80
S'ADP'
p81
F1.0
s(lp82
tp83
a(S'protection'
p84
(dp85
S'NOUN'
p86
F1.0
s(lp87
S'protection'
p88
atp89
a(S'de'
p90
(dp91
S'ADP'
p92
F1.0
s(lp93
tp94
a(S"l'"
p95
(dp96
S'ADJ'
p97
F0.160704
sS'VERB'
p98
F0.06480800000000002
sS'NOUN'
p99
F0.774488
s(lp100
tp101
a(S'environnement'
p102
(dp103
S'NOUN'
p104
F1.0
s(lp105
S'environmental'
p106
atp107
a(S'et'
p108
(dp109
S'CONJ'
p110
F1.0
s(lp111
S'and'
p112
atp113
a(S'du'
p114
(dp115
S'ADP'
p116
F1.0
s(lp117
S'animal'
p118
atp119
a(S'bien-\xc3\xaatre'
p120
(dp121
S'NOUN'
p122
F1.0
s(lp123
tp124
a(S'animal'
p125
(dp126
S'NOUN'
p127
F0.012186
sS'ADJ'
p128
F0.987814
s(lp129
g118
atp130
a(g23
(dp131
g25
F1.0
s(lp132
g23
atp133
a(S'assurent'
p134
(dp135
S'VERB'
p136
F1.0000010000000001
s(lp137
tp138
a(S'une'
p139
(dp140
S'NOUN'
p141
F1.2e-05
sS'NUM'
p142
F0.003908
sS'DET'
p143
F0.996081
s(lp144
S'ensure'
p145
atp146
a(S'production'
p147
(dp148
S'NOUN'
p149
F1.0
s(lp150
S'production'
p151
atp152
a(S'alimentaire'
p153
(dp154
S'ADJ'
p155
F1.0
s(lp156
S'food'
p157
atp158
a(S'de'
p159
(dp160
S'ADP'
p161
F1.0
s(lp162
tp163
a(S'haut'
p164
(dp165
S'ADV'
p166
F0.102859
sS'NOUN'
p167
F0.014181
sS'ADJ'
p168
F0.88296
s(lp169
S'high'
p170
atp171
a(S'niveau'
p172
(dp173
S'NOUN'
p174
F1.0
s(lp175
tp176
a(S'en'
p177
(dp178
S'PRON'
p179
F0.000406
sS'ADP'
p180
F0.999594
s(lp181
S'in'
p182
atp183
a(S'termes'
p184
(dp185
S'NOUN'
p186
F1.0
s(lp187
S'levels'
p188
atp189
a(S'de'
p190
(dp191
S'ADP'
p192
F1.0
s(lp193
S'of'
p194
atp195
a(S'qualit\xc3\xa9'
p196
(dp197
S'NOUN'
p198
F1.0
s(lp199
S'quality'
p200
atp201
a(S'et'
p202
(dp203
S'CONJ'
p204
F1.0
s(lp205
S'and'
p206
atp207
a(S'de'
p208
(dp209
S'ADP'
p210
F1.0
s(lp211
tp212
a(S's\xc3\xa9curit\xc3\xa9'
p213
(dp214
S'NOUN'
p215
F1.0
s(lp216
S'safety'
p217
atp218
a(g23
(dp219
g25
F1.0
s(lp220
g23
atp221
a(S'et'
p222
(dp223
S'CONJ'
p224
F1.0
s(lp225
S'and'
p226
atp227
a(S'doivent'
p228
(dp229
S'VERB'
p230
F1.0
s(lp231
S'should'
p232
atp233
a(S'en'
p234
(dp235
S'PRON'
p236
F0.037145
sS'ADP'
p237
F0.962855
s(lp238
tp239
a(S'\xc3\xaatre'
p240
(dp241
S'VERB'
p242
F0.99617
sS'NOUN'
p243
F0.00383
s(lp244
S'be'
p245
atp246
a(S'non'
p247
(dp248
S'ADV'
p249
F1.0
sS'X'
p250
F0.0
s(lp251
tp252
a(S'pas'
p253
(dp254
S'ADV'
p255
F0.999575
sS'NOUN'
p256
F0.000425
s(lp257
S'not'
p258
atp259
a(S'p\xc3\xa9nalis\xc3\xa9s'
p260
(dp261
S'VERB'
p262
F1.0
s(lp263
tp264
a(g23
(dp265
g25
F1.0
s(lp266
g23
atp267
a(S'mais'
p268
(dp269
S'CONJ'
p270
F1.0
s(lp271
S'this'
p272
atp273
a(S'r\xc3\xa9compens\xc3\xa9s'
p274
(dp275
S'VERB'
p276
F1.0
s(lp277
S'rewarded'
p278
atp279
a(g25
(dp280
g25
F1.0
s(lp281
g25
atp282
asS'en'
p283
(lp284
(g21
(dp285
S'NOUN'
p286
F0.07757200000000002
sS'VERB'
p287
F8.7e-05
sS'ADJ'
p288
F0.922341
s(lp289
g21
atp290
a(g14
(dp291
S'NOUN'
p292
F1.0
s(lp293
g14
atp294
a(g145
(dp295
S'VERB'
p296
F1.0
s(lp297
g145
atp298
a(g170
(dp299
S'ADV'
p300
F0.001743
sS'NOUN'
p301
F0.009805
sS'ADJ'
p302
F0.988452
s(lp303
g170
atp304
a(g188
(dp305
S'VERB'
p306
F9e-06
sS'NOUN'
p307
F0.999991
s(lp308
g188
atp309
a(g194
(dp310
S'ADP'
p311
F1.0
s(lp312
g194
atp313
a(g217
(dp314
S'VERB'
p315
F2.4e-05
sS'NOUN'
p316
F0.999976
s(lp317
g217
atp318
a(g206
(dp319
S'CONJ'
p320
F0.999998
sS'NOUN'
p321
F2e-06
s(lp322
g206
atp323
a(g200
(dp324
S'ADJ'
p325
F0.042326
sS'NOUN'
p326
F0.957674
s(lp327
g200
atp328
a(g182
(dp329
S'ADV'
p330
F0.000102
sS'PRT'
p331
F0.000191
sS'ADP'
p332
F0.999707
s(lp333
g182
atp334
a(g157
(dp335
S'NOUN'
p336
F1.0
s(lp337
g157
atp338
a(g151
(dp339
S'NOUN'
p340
F1.0
s(lp341
g151
atp342
a(g23
(dp343
g25
F1.0
s(lp344
g23
atp345
a(g33
(dp346
S'VERB'
p347
F0.968519
sS'ADP'
p348
F0.031481
s(lp349
g33
atp350
a(g40
(dp351
S'ADJ'
p352
F1.0
s(lp353
g40
atp354
a(g54
(dp355
S'NOUN'
p356
F1.0
s(lp357
g54
atp358
a(g77
(dp359
S'VERB'
p360
F0.996967
sS'ADP'
p361
F0.003033
s(lp362
g77
atp363
a(g106
(dp364
S'ADJ'
p365
F1.0
s(lp366
g106
atp367
a(g112
(dp368
S'CONJ'
p369
F0.999994
sS'NOUN'
p370
F6e-06
s(lp371
g112
atp372
a(g118
(dp373
S'NOUN'
p374
F0.126057
sS'ADJ'
p375
F0.873943
s(lp376
g118
atp377
a(g88
(dp378
S'NOUN'
p379
F1.0
s(lp380
g88
atp381
a(g23
(dp382
g25
F1.0
s(lp383
g23
atp384
a(g226
(dp385
S'CONJ'
p386
F0.999998
sS'NOUN'
p387
F2e-06
s(lp388
g226
atp389
a(S'they'
p390
(dp391
S'PRON'
p392
F1.0
s(lp393
g390
atp394
a(g232
(dp395
S'VERB'
p396
F1.0
s(lp397
g232
atp398
a(g245
(dp399
S'VERB'
p400
F1.0
s(lp401
g245
atp402
a(g278
(dp403
S'VERB'
p404
F1.0
s(lp405
g278
atp406
a(g23
(dp407
g25
F1.0
s(lp408
g23
atp409
a(g258
(dp410
S'ADV'
p411
F1.0
s(lp412
g258
atp413
a(S'undermined'
p414
(dp415
S'VERB'
p416
F1.0
s(lp417
g414
atp418
a(g23
(dp419
g25
F1.0
s(lp420
g23
atp421
a(S'for'
p422
(dp423
S'ADP'
p424
F1.0
s(lp425
g422
atp426
a(S'doing'
p427
(dp428
S'VERB'
p429
F0.999946
sS'NOUN'
p430
F5.4e-05
s(lp431
g427
atp432
a(g272
(dp433
S'ADV'
p434
F0.00321
sS'NOUN'
p435
F0.007626
sS'DET'
p436
F0.989164
s(lp437
g272
atp438
a(g25
(dp439
g25
F1.0
s(lp440
g25
atp441
asS'nl'
p442
(lp443
(S'de'
p444
(dp445
S'DET'
p446
F1.0
s(lp447
g272
atp448
a(S'europese'
p449
(dp450
S'NOUN'
p451
F1.0
s(lp452
g21
atp453
a(S'landbouwers'
p454
(dp455
S'NOUN'
p456
F1.0
s(lp457
g14
atp458
a(S'staan'
p459
(dp460
S'VERB'
p461
F0.99991
sS'NOUN'
p462
F9e-05
s(lp463
g414
atp464
a(S'garant'
p465
(dp466
S'NOUN'
p467
F1.0
s(lp468
tp469
a(S'voor'
p470
(dp471
S'ADV'
p472
F0.001032
sS'CONJ'
p473
F1e-06
sS'NOUN'
p474
F0.0
sS'ADP'
p475
F0.998967
s(lp476
g145
atp477
a(S'kwaliteit'
p478
(dp479
S'NOUN'
p480
F1.0
s(lp481
g200
atp482
a(S'en'
p483
(dp484
S'CONJ'
p485
F1.0
s(lp486
g206
atp487
a(S'een'
p488
(dp489
S'ADJ'
p490
F1e-06
sS'PRON'
p491
F0.001081
sS'NUM'
p492
F3e-06
sS'DET'
p493
F0.998915
s(lp494
tp495
a(S'hoge'
p496
(dp497
S'NOUN'
p498
F0.000264
sS'ADJ'
p499
F0.999736
s(lp500
g170
atp501
a(S'mate'
p502
(dp503
S'NOUN'
p504
F1.0
s(lp505
g188
atp506
a(S'van'
p507
(dp508
S'ADP'
p509
F1.0
s(lp510
g194
atp511
a(S'veiligheid'
p512
(dp513
S'NOUN'
p514
F1.0
s(lp515
g217
atp516
a(S'bij'
p517
(dp518
S'ADV'
p519
F0.004135
sS'NOUN'
p520
F0.0
sS'ADJ'
p521
F0.0
sS'ADP'
p522
F0.995865
s(lp523
g182
atp524
a(S'de'
p525
(dp526
S'DET'
p527
F1.0
s(lp528
g157
atp529
a(S'voedselproductie'
p530
(dp531
S'NOUN'
p532
F1.0
s(lp533
g151
atp534
a(g25
(dp535
g25
F1.0
s(lp536
g23
atp537
a(S'ze'
p538
(dp539
S'PRON'
p540
F1.0
s(lp541
g390
atp542
a(S'volgen'
p543
(dp544
S'VERB'
p545
F0.990253
sS'NOUN'
p546
F0.009747
s(lp547
g278
atp548
a(S'strikte'
p549
(dp550
S'NOUN'
p551
F1e-06
sS'VERB'
p552
F5e-06
sS'ADJ'
p553
F0.999994
s(lp554
g40
atp555
a(S'regels'
p556
(dp557
S'NOUN'
p558
F1.0
s(lp559
g54
atp560
a(S'voor'
p561
(dp562
S'ADV'
p563
F0.004913
sS'CONJ'
p564
F5e-06
sS'NOUN'
p565
F0.0
sS'ADP'
p566
F0.995082
s(lp567
g77
atp568
a(S'milieu-'
p569
(dp570
S'ADJ'
p571
F0.083087
sS'NOUN'
p572
F0.916914
s(lp573
g106
atp574
a(S'en'
p575
(dp576
S'CONJ'
p577
F1.0
s(lp578
g112
atp579
a(S'dierenbescherming'
p580
(dp581
S'NOUN'
p582
F1.0
s(lp583
g118
atp584
a(g25
(dp585
g25
F1.0
s(lp586
g25
atp587
asS'de'
p588
(lp589
(S'die'
p590
(dp591
S'PRON'
p592
F0.004888
sS'DET'
p593
F0.994789
s(lp594
tp595
a(S'europ\xc3\xa4ischen'
p596
(dp597
S'ADJ'
p598
F1.0
s(lp599
g21
atp600
a(S'landwirte'
p601
(dp602
S'ADJ'
p603
F0.002948
sS'NOUN'
p604
F0.995193
s(lp605
g14
atp606
a(S'gew\xc3\xa4hrleisten'
p607
(dp608
S'VERB'
p609
F1.0
s(lp610
g145
atp611
a(S'ein'
p612
(dp613
S'PRT'
p614
F0.000537
sS'DET'
p615
F0.999273
s(lp616
tp617
a(S'hohes'
p618
(dp619
S'ADJ'
p620
F1.0
s(lp621
g170
atp622
a(S'ma\xc3\x9f'
p623
(dp624
S'PRT'
p625
F0.116132
sS'VERB'
p626
F0.801673
s(lp627
g188
atp628
a(S'an'
p629
(dp630
S'PRT'
p631
F0.008864
sS'ADP'
p632
F0.983961
s(lp633
g194
atp634
a(S'sicherheit'
p635
(dp636
S'ADJ'
p637
F0.002596
sS'NOUN'
p638
F0.996666
s(lp639
g217
atp640
a(S'und'
p641
(dp642
S'CONJ'
p643
F1.0
s(lp644
g206
atp645
a(S'qualit\xc3\xa4t'
p646
(dp647
S'ADJ'
p648
F0.276522
sS'NOUN'
p649
F0.590853
s(lp650
g200
atp651
a(S'in'
p652
(dp653
S'ADP'
p654
F1.0
s(lp655
g182
atp656
a(S'der'
p657
(dp658
S'PRON'
p659
F6e-05
sS'DET'
p660
F0.999925
s(lp661
g151
atp662
a(S'nahrungsmittelproduktion'
p663
(dp664
S'ADJ'
p665
F0.250568
sS'NOUN'
p666
F0.731758
s(lp667
g157
atp668
a(S'und'
p669
(dp670
S'CONJ'
p671
F1.0
s(lp672
g23
atp673
a(S'halten'
p674
(dp675
S'VERB'
p676
F1.0
s(lp677
g33
atp678
a(S'strenge'
p679
(dp680
S'VERB'
p681
F0.017291
sS'ADJ'
p682
F0.982709
s(lp683
g40
atp684
a(S'vorschriften'
p685
(dp686
S'ADJ'
p687
F0.00116
sS'NOUN'
p688
F0.997854
s(lp689
g54
atp690
a(S'in'
p691
(dp692
S'ADP'
p693
F1.0
s(lp694
g77
atp695
a(S'bezug'
p696
(dp697
S'NOUN'
p698
F1.0
s(lp699
tp700
a(S'auf'
p701
(dp702
S'PRT'
p703
F0.001419
sS'ADP'
p704
F0.998578
s(lp705
g77
atp706
a(S'umwelt-'
p707
(dp708
g250
F1.0
s(lp709
g106
atp710
a(S'und'
p711
(dp712
S'CONJ'
p713
F1.0
s(lp714
g112
atp715
a(S'tierschutz'
p716
(dp717
S'NOUN'
p718
F0.462582
sS'ADJ'
p719
F0.536287
s(lp720
g118
atp721
a(S'ein'
p722
(dp723
S'PRT'
p724
F0.999093
sS'DET'
p725
F0.000618
s(lp726
g88
atp727
a(S';'
p728
(dp729
g25
F1.0
s(lp730
g226
atp731
a(S'daf\xc3\xbcr'
p732
(dp733
S'ADV'
p734
F1.0
s(lp735
tp736
a(S'sollten'
p737
(dp738
S'VERB'
p739
F1.0
s(lp740
g232
atp741
a(S'sie'
p742
(dp743
S'PRON'
p744
F1.0
s(lp745
g390
atp746
a(S'belohnt'
p747
(dp748
S'VERB'
p749
F0.999995
s(lp750
g278
atp751
a(S'und'
p752
(dp753
S'CONJ'
p754
F1.0
s(lp755
g23
atp756
a(S'nicht'
p757
(dp758
S'PRT'
p759
F1.0
s(lp760
g258
atp761
a(S'untergraben'
p762
(dp763
S'VERB'
p764
F1.0
s(lp765
g414
atp766
a(S'werden'
p767
(dp768
S'VERB'
p769
F0.9999910000000001
s(lp770
g245
atp771
a(g25
(dp772
g25
F1.0
s(lp773
g25
atp774
asS'it'
p775
(lp776
(S'gli'
p777
(dp778
S'PRON'
p779
F0.000911
sS'DET'
p780
F0.999089
s(lp781
tp782
a(S'agricoltori'
p783
(dp784
S'NOUN'
p785
F1.0
s(lp786
g14
atp787
a(S'europei'
p788
(dp789
S'NOUN'
p790
F0.00961
sS'ADJ'
p791
F0.99039
s(lp792
g21
atp793
a(S'garantiscono'
p794
(dp795
S'VERB'
p796
F1.0
s(lp797
g145
atp798
a(S'livelli'
p799
(dp800
S'VERB'
p801
F0.087265
sS'NOUN'
p802
F0.912734
s(lp803
g188
atp804
a(S'elevati'
p805
(dp806
S'VERB'
p807
F0.19346200000000002
sS'ADJ'
p808
F0.806538
s(lp809
g170
atp810
a(S'di'
p811
(dp812
S'CONJ'
p813
F4e-06
sS'ADP'
p814
F0.999996
s(lp815
g194
atp816
a(S'sicurezza'
p817
(dp818
S'NOUN'
p819
F1.0
s(lp820
g217
atp821
a(S'e'
p822
(dp823
S'CONJ'
p824
F1.0
s(lp825
g206
atp826
a(S'qualit\xc3\xa0'
p827
(dp828
S'NOUN'
p829
F1.0
s(lp830
g200
atp831
a(S'nella'
p832
(dp833
S'ADP'
p834
F1.0
s(lp835
g182
atp836
a(S'produzione'
p837
(dp838
S'NOUN'
p839
F1.0
s(lp840
g151
atp841
a(S'alimentare'
p842
(dp843
S'NOUN'
p844
F0.003918
sS'VERB'
p845
F0.005651
sS'ADJ'
p846
F0.990431
s(lp847
g157
atp848
a(g23
(dp849
g25
F1.0
s(lp850
g23
atp851
a(S'nonch\xc3\xa9'
p852
(dp853
S'CONJ'
p854
F1.0
s(lp855
g226
atp856
a(S'il'
p857
(dp858
S'DET'
p859
F1.0
s(lp860
g390
atp861
a(S'rispetto'
p862
(dp863
S'VERB'
p864
F0.003009
sS'NOUN'
p865
F0.996991
s(lp866
g33
atp867
a(S'di'
p868
(dp869
S'CONJ'
p870
F5e-06
sS'ADP'
p871
F0.999995
s(lp872
tp873
a(S'standard'
p874
(dp875
S'ADJ'
p876
F0.080351
sS'NOUN'
p877
F0.919649
s(lp878
g54
atp879
a(S'severi'
p880
(dp881
S'ADJ'
p882
F1.0
s(lp883
g40
atp884
a(S'in'
p885
(dp886
S'ADP'
p887
F1.0
s(lp888
g77
atp889
a(S'materia'
p890
(dp891
S'NOUN'
p892
F1.0
s(lp893
tp894
a(S'di'
p895
(dp896
S'CONJ'
p897
F4e-06
sS'ADP'
p898
F0.999996
s(lp899
tp900
a(S'protezione'
p901
(dp902
S'NOUN'
p903
F1.0
s(lp904
g88
atp905
a(S'animale'
p906
(dp907
S'NOUN'
p908
F0.032174
sS'VERB'
p909
F0.0
sS'ADJ'
p910
F0.967826
s(lp911
g118
atp912
a(g822
(dp913
S'CONJ'
p914
F1.0
s(lp915
g112
atp916
a(S'ambientale'
p917
(dp918
S'VERB'
p919
F0.004112
sS'ADJ'
p920
F0.995888
s(lp921
g106
atp922
a(g728
(dp923
g25
F1.0
s(lp924
g23
atp925
a(S'per'
p926
(dp927
S'CONJ'
p928
F0.042792
sS'ADP'
p929
F0.957208
s(lp930
g422
atp931
a(S'questo'
p932
(dp933
S'PRON'
p934
F1.0
s(lp935
g272
atp936
a(S'dovrebbero'
p937
(dp938
S'VERB'
p939
F1.0
s(lp940
g232
atp941
a(S'essere'
p942
(dp943
S'VERB'
p944
F0.999993
sS'NOUN'
p945
F7e-06
s(lp946
g245
atp947
a(S'ricompensati'
p948
(dp949
S'VERB'
p950
F1.0
s(lp951
g278
atp952
a(g23
(dp953
g25
F1.0
s(lp954
g23
atp955
a(S'non'
p956
(dp957
S'ADV'
p958
F1.0
s(lp959
g258
atp960
a(S'penalizzati'
p961
(dp962
S'VERB'
p963
F1.0
s(lp964
g414
atp965
a(g25
(dp966
g25
F1.0
s(lp967
g25
atp968
asS'sk'
p969
(lp970
(S'eur\xc3\xb3pski'
p971
(dp972
S'ADJ'
p973
F1.0
s(lp974
g21
atp975
a(S'po\xc4\xbenohospod\xc3\xa1ri'
p976
(dp977
S'NOUN'
p978
F1.0
s(lp979
g14
atp980
a(S'zaru\xc4\x8duj\xc3\xba'
p981
(dp982
S'VERB'
p983
F1.0
s(lp984
g145
atp985
a(S'pri'
p986
(dp987
g250
F0.000147
sS'VERB'
p988
F0.0
sS'ADP'
p989
F0.999853
s(lp990
g182
atp991
a(S'v\xc3\xbdrobe'
p992
(dp993
S'NOUN'
p994
F1.0
s(lp995
g151
atp996
a(S'potrav\xc3\xadn'
p997
(dp998
S'NOUN'
p999
F1.0
s(lp1000
g157
atp1001
a(S'vysok\xc3\xba'
p1002
(dp1003
S'NOUN'
p1004
F0.000849
sS'ADJ'
p1005
F0.999151
s(lp1006
g170
atp1007
a(S'\xc3\xbarove\xc5\x88'
p1008
(dp1009
S'NOUN'
p1010
F1.0
s(lp1011
g188
atp1012
a(S'bezpe\xc4\x8dnosti'
p1013
(dp1014
S'NOUN'
p1015
F1.0
s(lp1016
g217
atp1017
a(S'a'
p1018
(dp1019
g250
F0.0024619999999999998
sS'CONJ'
p1020
F0.99658
sS'NOUN'
p1021
F0.000185
sS'ADP'
p1022
F0.000741
sS'PRT'
p1023
F3.1e-05
s(lp1024
g206
atp1025
a(S'kvality'
p1026
(dp1027
S'NOUN'
p1028
F1.0
s(lp1029
g200
atp1030
a(g1018
(dp1031
g250
F0.001427
sS'CONJ'
p1032
F0.998351
sS'NOUN'
p1033
F3.9999999999999996e-05
sS'ADP'
p1034
F0.0
sS'PRT'
p1035
F0.000182
s(lp1036
g23
atp1037
a(S'dodr\xc5\xbeiavaj\xc3\xba'
p1038
(dp1039
S'VERB'
p1040
F1.0
s(lp1041
g33
atp1042
a(S'pr\xc3\xadsne'
p1043
(dp1044
S'ADV'
p1045
F0.012543
sS'ADJ'
p1046
F0.987457
s(lp1047
g40
atp1048
a(S'ustanovenia'
p1049
(dp1050
S'NOUN'
p1051
F1.0
s(lp1052
g54
atp1053
a(S's\xc3\xbavisiace'
p1054
(dp1055
S'VERB'
p1056
F1.0
s(lp1057
tp1058
a(S's'
p1059
(dp1060
g250
F0.001805
sS'CONJ'
p1061
F7.5e-05
sS'NOUN'
p1062
F9.1e-05
sS'ADP'
p1063
F0.997987
sS'PRT'
p1064
F4.3e-05
s(lp1065
g77
atp1066
a(S'ochranou'
p1067
(dp1068
S'ADJ'
p1069
F0.263382
sS'NOUN'
p1070
F0.736618
s(lp1071
g88
atp1072
a(S'\xc5\xbeivotn\xc3\xa9ho'
p1073
(dp1074
S'ADJ'
p1075
F1.0
s(lp1076
tp1077
a(S'prostredia'
p1078
(dp1079
S'NOUN'
p1080
F1.0
s(lp1081
g106
atp1082
a(g1018
(dp1083
g250
F0.002099
sS'CONJ'
p1084
F0.997072
sS'NOUN'
p1085
F0.00018099999999999998
sS'ADP'
p1086
F0.000594
sS'PRT'
p1087
F5.3e-05
s(lp1088
g112
atp1089
a(S'zvierat'
p1090
(dp1091
S'NOUN'
p1092
F1.0
s(lp1093
g118
atp1094
a(g1018
(dp1095
g250
F0.0008650000000000001
sS'CONJ'
p1096
F0.998853
sS'NOUN'
p1097
F3e-05
sS'ADP'
p1098
F0.0
sS'PRT'
p1099
F0.000252
s(lp1100
g226
atp1101
a(S'mali'
p1102
(dp1103
S'VERB'
p1104
F0.999999
s(lp1105
tp1106
a(S'by'
p1107
(dp1108
S'PRT'
p1109
F0.998972
sg250
F0.0010279999999999998
s(lp1110
g232
atp1111
a(S'by\xc5\xa5'
p1112
(dp1113
S'VERB'
p1114
F1.0
s(lp1115
g245
atp1116
a(S'za'
p1117
(dp1118
S'PRT'
p1119
F0.000121
sS'ADP'
p1120
F0.999829
sg250
F4.9e-05
s(lp1121
g422
atp1122
a(S'to'
p1123
(dp1124
S'PRON'
p1125
F0.999894
sS'CONJ'
p1126
F4e-06
sg250
F0.000102
s(lp1127
g272
atp1128
a(S'odme\xc5\x88ovan\xc3\xad'
p1129
(dp1130
S'NOUN'
p1131
F1.0
s(lp1132
g278
atp1133
a(g23
(dp1134
g25
F1.0
s(lp1135
g23
atp1136
a(g1018
(dp1137
g250
F0.000456
sS'CONJ'
p1138
F0.999531
sS'NOUN'
p1139
F2e-06
sS'ADP'
p1140
F0.0
sS'PRT'
p1141
F1e-05
s(lp1142
g23
atp1143
a(S'nie'
p1144
(dp1145
g250
F1.0
s(lp1146
g258
atp1147
a(S'po\xc5\xa1kodzovan\xc3\xad'
p1148
(dp1149
S'NOUN'
p1150
F1.0
s(lp1151
g414
atp1152
a(g25
(dp1153
g25
F1.0
s(lp1154
g25
atp1155
asS'pl'
p1156
(lp1157
(S'europejscy'
p1158
(dp1159
S'ADJ'
p1160
F1.0
s(lp1161
g21
atp1162
a(S'rolnicy'
p1163
(dp1164
S'NOUN'
p1165
F1.0
s(lp1166
g14
atp1167
a(S'zapewniaj\xc4\x85'
p1168
(dp1169
S'VERB'
p1170
F1.0
s(lp1171
g145
atp1172
a(S'wysoki'
p1173
(dp1174
S'ADJ'
p1175
F1.0
s(lp1176
g170
atp1177
a(S'poziom'
p1178
(dp1179
S'NOUN'
p1180
F1.0
s(lp1181
g188
atp1182
a(S'bezpiecze\xc5\x84stwa'
p1183
(dp1184
S'NOUN'
p1185
F1.0
s(lp1186
g217
atp1187
a(S'i'
p1188
(dp1189
S'PRT'
p1190
F0.001513
sS'CONJ'
p1191
F0.998412
sS'NOUN'
p1192
F4.1e-05
sg250
F1e-06
sS'PRON'
p1193
F3.2999999999999996e-05
s(lp1194
g206
atp1195
a(S'jako\xc5\x9bci'
p1196
(dp1197
S'NOUN'
p1198
F1.0
s(lp1199
g200
atp1200
a(S'produkcji'
p1201
(dp1202
S'NOUN'
p1203
F1.0
s(lp1204
g151
atp1205
a(S'\xc5\xbcywno\xc5\x9bci'
p1206
(dp1207
S'NOUN'
p1208
F1.0
s(lp1209
g157
atp1210
a(g23
(dp1211
g250
F0.0
sg25
F1.0
s(lp1212
g23
atp1213
a(S'przestrzegaj\xc4\x85c'
p1214
(dp1215
S'VERB'
p1216
F1.0
s(lp1217
g33
atp1218
a(S'rygorystycznych'
p1219
(dp1220
S'ADV'
p1221
F0.000255
sS'NOUN'
p1222
F0.009505
sS'VERB'
p1223
F0.0010390000000000002
sS'ADJ'
p1224
F0.989204
s(lp1225
g40
atp1226
a(S'przepis\xc3\xb3w'
p1227
(dp1228
S'NOUN'
p1229
F1.0
s(lp1230
g54
atp1231
a(S'dotycz\xc4\x85cych'
p1232
(dp1233
S'VERB'
p1234
F1.0000000000000002
s(lp1235
g77
atp1236
a(S'ochrony'
p1237
(dp1238
S'NOUN'
p1239
F1.0
s(lp1240
g88
atp1241
a(S'\xc5\x9brodowiska'
p1242
(dp1243
S'NOUN'
p1244
F0.9999990000000001
s(lp1245
g106
atp1246
a(g1188
(dp1247
S'PRT'
p1248
F0.000938
sS'CONJ'
p1249
F0.998965
sS'NOUN'
p1250
F3.5000000000000004e-05
sg250
F0.0
sS'PRON'
p1251
F6.2e-05
s(lp1252
g112
atp1253
a(S'zwierz\xc4\x85t'
p1254
(dp1255
S'NOUN'
p1256
F1.0
s(lp1257
g118
atp1258
a(g23
(dp1259
g250
F0.0
sg25
F1.0
s(lp1260
g23
atp1261
a(S'dlatego'
p1262
(dp1263
S'ADV'
p1264
F1.0
s(lp1265
g226
atp1266
a(S'nale\xc5\xbcy'
p1267
(dp1268
S'VERB'
p1269
F0.993966
sS'ADJ'
p1270
F0.006033
s(lp1271
g232
atp1272
a(S'ich'
p1273
(dp1274
S'PRON'
p1275
F1.0
sg250
F1e-06
s(lp1276
g245
atp1277
a(S'za'
p1278
(dp1279
S'PRT'
p1280
F0.254612
sS'VERB'
p1281
F0.00012200000000000001
sS'NOUN'
p1282
F0.000306
sS'ADP'
p1283
F0.7449429999999999
sg250
F1.7e-05
s(lp1284
g422
atp1285
a(S'to'
p1286
(dp1287
S'NOUN'
p1288
F0.734388
sS'ADP'
p1289
F0.0
sS'PRT'
p1290
F0.00788
sg250
F1e-06
sS'CONJ'
p1291
F0.001815
sS'ADJ'
p1292
F0.255916
s(lp1293
g272
atp1294
a(S'wynagradza\xc4\x87'
p1295
(dp1296
S'ADJ'
p1297
F8.9e-05
sS'VERB'
p1298
F0.998863
sS'NOUN'
p1299
F0.001048
s(lp1300
g278
atp1301
a(g23
(dp1302
g250
F0.0
sg25
F1.0
s(lp1303
g23
atp1304
a(g1018
(dp1305
S'ADV'
p1306
F0.000187
sS'NOUN'
p1307
F0.0020039999999999997
sS'ADP'
p1308
F6.199999999999999e-05
sS'PRT'
p1309
F0.004816
sS'VERB'
p1310
F0.001124
sg250
F0.005703000000000001
sS'CONJ'
p1311
F0.985996
sS'ADJ'
p1312
F0.00010799999999999998
s(lp1313
g23
atp1314
a(S'nie'
p1315
(dp1316
S'ADV'
p1317
F0.000157
sS'PRT'
p1318
F0.982007
sS'CONJ'
p1319
F0.017697
sS'NOUN'
p1320
F3e-05
sS'PRON'
p1321
F0.00011
s(lp1322
g258
atp1323
a(S'kara\xc4\x87'
p1324
(dp1325
S'VERB'
p1326
F1.0
s(lp1327
g414
atp1328
a(g25
(dp1329
g25
F1.0
s(lp1330
g25
atp1331
asS'sl'
p1332
(lp1333
(S'evropski'
p1334
(dp1335
S'ADJ'
p1336
F1.0
s(lp1337
g21
atp1338
a(S'kmetje'
p1339
(dp1340
S'NOUN'
p1341
F1.0
s(lp1342
g14
atp1343
a(S'zagotavljajo'
p1344
(dp1345
S'VERB'
p1346
F1.0
s(lp1347
g145
atp1348
a(S'visoke'
p1349
(dp1350
S'ADJ'
p1351
F1.0
s(lp1352
g170
atp1353
a(S'ravni'
p1354
(dp1355
S'ADJ'
p1356
F8.2e-05
sS'NOUN'
p1357
F0.9999180000000001
s(lp1358
g188
atp1359
a(S'varnosti'
p1360
(dp1361
S'NOUN'
p1362
F1.000001
s(lp1363
g217
atp1364
a(S'in'
p1365
(dp1366
S'ADV'
p1367
F6.2e-05
sg250
F3.1e-05
sS'CONJ'
p1368
F0.999833
sS'NOUN'
p1369
F7.4e-05
s(lp1370
g206
atp1371
a(S'kakovosti'
p1372
(dp1373
S'NOUN'
p1374
F1.0
s(lp1375
g200
atp1376
a(S'v'
p1377
(dp1378
S'ADP'
p1379
F1.0
s(lp1380
g182
atp1381
a(S'proizvodnji'
p1382
(dp1383
S'NOUN'
p1384
F1.0
s(lp1385
g151
atp1386
a(S'hrane'
p1387
(dp1388
S'NOUN'
p1389
F1.0
s(lp1390
g157
atp1391
a(g23
(dp1392
g25
F1.0
s(lp1393
g23
atp1394
a(S'spo\xc5\xa1tujejo'
p1395
(dp1396
S'VERB'
p1397
F1.0
s(lp1398
g33
atp1399
a(S'stroge'
p1400
(dp1401
S'ADJ'
p1402
F1.0
s(lp1403
g40
atp1404
a(S'klavzule'
p1405
(dp1406
S'NOUN'
p1407
F1.0
s(lp1408
g54
atp1409
a(S'glede'
p1410
(dp1411
S'ADV'
p1412
F0.027306
sS'ADP'
p1413
F0.972694
s(lp1414
g77
atp1415
a(S'varstva'
p1416
(dp1417
S'NOUN'
p1418
F1.0
s(lp1419
g88
atp1420
a(S'okolja'
p1421
(dp1422
S'NOUN'
p1423
F1.0
s(lp1424
g106
atp1425
a(S'in'
p1426
(dp1427
S'ADV'
p1428
F7.4e-05
sg250
F1.5e-05
sS'CONJ'
p1429
F0.999899
sS'NOUN'
p1430
F1.2e-05
s(lp1431
g112
atp1432
a(S'\xc5\xbeivali'
p1433
(dp1434
S'NOUN'
p1435
F1.0
s(lp1436
g118
atp1437
a(S'in'
p1438
(dp1439
S'ADV'
p1440
F0.000134
sg250
F9e-06
sS'CONJ'
p1441
F0.999852
sS'NOUN'
p1442
F5e-06
s(lp1443
g226
atp1444
a(S'treba'
p1445
(dp1446
S'ADV'
p1447
F1.0
s(lp1448
tp1449
a(S'bi'
p1450
(dp1451
g250
F5.2e-05
sS'VERB'
p1452
F0.999948
s(lp1453
g232
atp1454
a(S'jih'
p1455
(dp1456
S'PRON'
p1457
F0.999999
s(lp1458
tp1459
a(S'bilo'
p1460
(dp1461
S'VERB'
p1462
F1.0
s(lp1463
g245
atp1464
a(S'nagraditi'
p1465
(dp1466
S'VERB'
p1467
F1.0
s(lp1468
g278
atp1469
a(S'in'
p1470
(dp1471
S'ADV'
p1472
F0.000279
sg250
F1.3e-05
sS'CONJ'
p1473
F0.999688
sS'NOUN'
p1474
F2e-05
s(lp1475
g23
atp1476
a(S'ne'
p1477
(dp1478
S'PRT'
p1479
F0.996843
sS'CONJ'
p1480
F0.002922
sg250
F0.00023500000000000002
s(lp1481
g258
atp1482
a(S'uni\xc4\x8devati'
p1483
(dp1484
S'ADV'
p1485
F0.002049
sS'ADJ'
p1486
F0.008539
sS'VERB'
p1487
F0.9349619999999998
sS'NOUN'
p1488
F0.054446999999999995
s(lp1489
g414
atp1490
a(g23
(dp1491
g25
F1.0
s(lp1492
g23
atp1493
a(S'ker'
p1494
(dp1495
S'CONJ'
p1496
F1.0
s(lp1497
g422
atp1498
a(S'to'
p1499
(dp1500
S'PRON'
p1501
F0.9999389999999999
sg250
F6.2e-05
s(lp1502
g272
atp1503
a(S'po\xc4\x8dnejo'
p1504
(dp1505
S'VERB'
p1506
F1.0
s(lp1507
g427
atp1508
a(g25
(dp1509
g25
F1.0
s(lp1510
g25
atp1511
asS'es'
p1512
(lp1513
(S'los'
p1514
(dp1515
S'PRON'
p1516
F2.7e-05
sS'DET'
p1517
F0.999973
s(lp1518
tp1519
a(S'agricultores'
p1520
(dp1521
S'NOUN'
p1522
F1.0
s(lp1523
g14
atp1524
a(S'europeos'
p1525
(dp1526
S'NOUN'
p1527
F0.015791
sS'ADJ'
p1528
F0.984209
s(lp1529
g21
atp1530
a(S'garantizan'
p1531
(dp1532
S'VERB'
p1533
F1.0
s(lp1534
g145
atp1535
a(S'altos'
p1536
(dp1537
S'ADJ'
p1538
F1.0
s(lp1539
g170
atp1540
a(S'niveles'
p1541
(dp1542
S'NOUN'
p1543
F1.0
s(lp1544
g188
atp1545
a(S'de'
p1546
(dp1547
g250
F2.9e-05
sS'CONJ'
p1548
F0.000449
sS'ADP'
p1549
F0.999522
s(lp1550
g194
atp1551
a(S'seguridad'
p1552
(dp1553
S'NOUN'
p1554
F1.0
s(lp1555
g217
atp1556
a(S'y'
p1557
(dp1558
g250
F0.001008
sS'CONJ'
p1559
F0.998992
s(lp1560
g206
atp1561
a(S'calidad'
p1562
(dp1563
S'NOUN'
p1564
F1.0
s(lp1565
g200
atp1566
a(S'en'
p1567
(dp1568
g250
F0.0
sS'CONJ'
p1569
F0.0
sS'ADP'
p1570
F1.0
s(lp1571
g182
atp1572
a(S'la'
p1573
(dp1574
S'NOUN'
p1575
F0.0
sS'PRON'
p1576
F0.0
sS'DET'
p1577
F0.999999
sg250
F0.0
s(lp1578
tp1579
a(S'producci\xc3\xb3n'
p1580
(dp1581
S'NOUN'
p1582
F1.0
s(lp1583
g151
atp1584
a(S'alimentaria'
p1585
(dp1586
S'ADJ'
p1587
F1.0
s(lp1588
g157
atp1589
a(g23
(dp1590
g25
F1.0
s(lp1591
g23
atp1592
a(S'al'
p1593
(dp1594
S'CONJ'
p1595
F0.988618
sS'ADP'
p1596
F0.011382
s(lp1597
tp1598
a(S'respetar'
p1599
(dp1600
S'VERB'
p1601
F1.0
s(lp1602
g33
atp1603
a(S'las'
p1604
(dp1605
S'PRON'
p1606
F0.0
sS'DET'
p1607
F1.0
s(lp1608
tp1609
a(S'rigurosas'
p1610
(dp1611
S'ADJ'
p1612
F1.0
s(lp1613
g40
atp1614
a(S'cl\xc3\xa1usulas'
p1615
(dp1616
S'NOUN'
p1617
F1.0
s(lp1618
g54
atp1619
a(S'relativas'
p1620
(dp1621
S'ADJ'
p1622
F1.0
s(lp1623
tp1624
a(g1018
(dp1625
g250
F0.000622
sS'CONJ'
p1626
F9e-06
sS'ADP'
p1627
F0.999368
s(lp1628
g77
atp1629
a(S'la'
p1630
(dp1631
g250
F0.0
sS'PRON'
p1632
F0.0
sS'DET'
p1633
F0.999999
sS'NOUN'
p1634
F0.0
s(lp1635
tp1636
a(S'protecci\xc3\xb3n'
p1637
(dp1638
S'NOUN'
p1639
F1.0
s(lp1640
g88
atp1641
a(S'del'
p1642
(dp1643
S'ADP'
p1644
F1.0
s(lp1645
tp1646
a(S'medioambiente'
p1647
(dp1648
S'NOUN'
p1649
F1.0
s(lp1650
g106
atp1651
a(g1557
(dp1652
g250
F0.000396
sS'CONJ'
p1653
F0.999604
s(lp1654
g112
atp1655
a(S'los'
p1656
(dp1657
S'PRON'
p1658
F0.000425
sS'DET'
p1659
F0.999575
s(lp1660
tp1661
a(S'animales'
p1662
(dp1663
S'NOUN'
p1664
F1.0
s(lp1665
g118
atp1666
a(g23
(dp1667
g25
F1.0
s(lp1668
g23
atp1669
a(g1557
(dp1670
g250
F0.000442
sS'CONJ'
p1671
F0.999558
s(lp1672
g226
atp1673
a(S'por'
p1674
(dp1675
S'ADP'
p1676
F1.0
s(lp1677
tp1678
a(S'eso'
p1679
(dp1680
S'PRON'
p1681
F1.0
s(lp1682
g390
atp1683
a(S'deber\xc3\xadan'
p1684
(dp1685
S'VERB'
p1686
F1.0
s(lp1687
g232
atp1688
a(S'ser'
p1689
(dp1690
S'VERB'
p1691
F1.0
sS'NOUN'
p1692
F0.0
s(lp1693
g245
atp1694
a(S'recompensados'
p1695
(dp1696
S'VERB'
p1697
F1.0
s(lp1698
g278
atp1699
a(g23
(dp1700
g25
F1.0
s(lp1701
g23
atp1702
a(S'en'
p1703
(dp1704
S'ADP'
p1705
F1.0
s(lp1706
g422
atp1707
a(S'vez'
p1708
(dp1709
S'ADP'
p1710
F1.0
s(lp1711
g258
atp1712
a(S'de'
p1713
(dp1714
S'ADP'
p1715
F1.0
s(lp1716
tp1717
a(S'minados'
p1718
(dp1719
S'VERB'
p1720
F1.0
s(lp1721
g414
atp1722
a(g25
(dp1723
g25
F1.0
s(lp1724
g25
atp1725
as.