(dp0
S'fr'
p1
(lp2
(S'\xc3\x80'
p3
(dp4
S'ADP'
p5
F1.0
s(lp6
S'in'
p7
atp8
a(S'mon'
p9
(dp10
S'PRON'
p11
F1.0
s(lp12
S'my'
p13
atp14
a(S'avis'
p15
(dp16
S'NOUN'
p17
F1.0
s(lp18
S'opinion'
p19
atp20
a(S','
p21
(dp22
S'.'
p23
F1.0
s(lp24
g21
atp25
a(S'nous'
p26
(dp27
S'PRON'
p28
F1.0
s(lp29
S'we'
p30
atp31
a(S'devons'
p32
(dp33
S'VERB'
p34
F0.999928
sS'NOUN'
p35
F7.2e-05
s(lp36
S'need'
p37
atp38
a(S'\xc3\xa9galement'
p39
(dp40
S'ADV'
p41
F1.0
s(lp42
S'also'
p43
atp44
a(S'apporter'
p45
(dp46
S'VERB'
p47
F1.0
s(lp48
S'provide'
p49
atp50
a(S'une'
p51
(dp52
S'NOUN'
p53
F0.000806
sS'NUM'
p54
F0.000182
sS'DET'
p55
F0.999012
s(lp56
S'rather'
p57
atp58
a(S'plus'
p59
(dp60
S'ADV'
p61
F0.999972
sS'VERB'
p62
F2.8e-05
s(lp63
S'more'
p64
atp65
a(S'grande'
p66
(dp67
S'ADJ'
p68
F1.0
s(lp69
tp70
a(S'clart\xc3\xa9'
p71
(dp72
S'NOUN'
p73
F1.0
s(lp74
S'clarity'
p75
atp76
a(S'concernant'
p77
(dp78
S'VERB'
p79
F0.781749
sS'ADP'
p80
F0.218251
s(lp81
S'regarding'
p82
atp83
a(S'les'
p84
(dp85
S'PRON'
p86
F0.000112
sS'DET'
p87
F0.999867
sS'ADP'
p88
F2.1e-05
s(lp89
S'the'
p90
atp91
a(S'donn\xc3\xa9es'
p92
(dp93
S'ADJ'
p94
F0.248952
sS'VERB'
p95
F0.001054
sS'NOUN'
p96
F0.749994
s(lp97
S'data'
p98
atp99
a(S'pnr'
p100
(dp101
S'ADJ'
p102
F0.301276
sS'NOUN'
p103
F0.698724
s(lp104
S'pnr'
p105
atp106
a(S'"'
p107
(dp108
g23
F1.0
s(lp109
S"'"
p110
atp111
a(S'sensibles'
p112
(dp113
S'ADJ'
p114
F1.0
s(lp115
S'sensitive'
p116
atp117
a(g107
(dp118
g23
F1.0
s(lp119
g110
atp120
a(S'car'
p121
(dp122
S'CONJ'
p123
F0.983543
sS'NOUN'
p124
F0.016457
s(lp125
S'as'
p126
atp127
a(S'je'
p128
(dp129
S'PRON'
p130
F1.0
s(lp131
S'i'
p132
atp133
a(S'pense'
p134
(dp135
S'VERB'
p136
F1.0
s(lp137
tp138
a(S'que'
p139
(dp140
S'ADV'
p141
F0.140443
sS'PRON'
p142
F0.011505000000000001
sS'CONJ'
p143
F0.848053
s(lp144
S'believe'
p145
atp146
a(S'plusieurs'
p147
(dp148
S'PRON'
p149
F0.999998
sS'NOUN'
p150
F2e-06
s(lp151
S'few'
p152
atp153
a(S'choses'
p154
(dp155
S'VERB'
p156
F0.000125
sS'NOUN'
p157
F0.999875
s(lp158
S'things'
p159
atp160
a(S'sont'
p161
(dp162
S'VERB'
p163
F1.0
s(lp164
S'are'
p165
atp166
a(S'sujettes'
p167
(dp168
S'NOUN'
p169
F0.044868
sS'ADJ'
p170
F0.955132
s(lp171
S'open'
p172
atp173
a(S'\xc3\xa0'
p174
(dp175
S'ADP'
p176
F1.0
s(lp177
S'to'
p178
atp179
a(S'interpr\xc3\xa9tation'
p180
(dp181
S'NOUN'
p182
F1.0
s(lp183
S'interpretation'
p184
atp185
a(S'\xc3\xa0'
p186
(dp187
S'ADP'
p188
F1.0
s(lp189
S'in'
p190
atp191
a(S'cet'
p192
(dp193
S'PRON'
p194
F1.0
s(lp195
S'this'
p196
atp197
a(S'\xc3\xa9gard'
p198
(dp199
S'NOUN'
p200
F1.0
s(lp201
S'regard'
p202
atp203
a(g23
(dp204
g23
F1.0
s(lp205
g23
atp206
asS'en'
p207
(lp208
(g7
(dp209
S'ADV'
p210
F0.000816
sS'PRT'
p211
F0.0
sS'ADP'
p212
F0.999184
s(lp213
g7
atp214
a(g13
(dp215
S'PRON'
p216
F1.0
s(lp217
g13
atp218
a(g19
(dp219
S'NOUN'
p220
F1.0
s(lp221
g19
atp222
a(g21
(dp223
g23
F1.0
s(lp224
g21
atp225
a(g30
(dp226
S'PRON'
p227
F1.0
s(lp228
g30
atp229
a(g43
(dp230
S'ADV'
p231
F1.0
s(lp232
g43
atp233
a(g37
(dp234
S'VERB'
p235
F0.971502
sS'NOUN'
p236
F0.028498
s(lp237
g37
atp238
a(S'to'
p239
(dp240
S'ADV'
p241
F0.0
sS'PRT'
p242
F1.0
sS'ADP'
p243
F0.0
s(lp244
g239
atp245
a(g49
(dp246
S'VERB'
p247
F1.0
s(lp248
g49
atp249
a(g57
(dp250
S'ADV'
p251
F1.0
sS'ADJ'
p252
F0.0
s(lp253
g57
atp254
a(g64
(dp255
S'ADV'
p256
F0.005625
sS'ADJ'
p257
F0.994375
s(lp258
g64
atp259
a(g75
(dp260
S'NOUN'
p261
F1.0
s(lp262
g75
atp263
a(g82
(dp264
S'VERB'
p265
F0.989995
sS'ADP'
p266
F0.010005
s(lp267
g82
atp268
a(g90
(dp269
S'DET'
p270
F0.409431
sS'NOUN'
p271
F0.590569
s(lp272
g90
atp273
a(g110
(dp274
S'PRT'
p275
F0.593137
sg23
F0.406863
s(lp276
g110
atp277
a(g116
(dp278
S'ADJ'
p279
F1.0
s(lp280
g116
atp281
a(g110
(dp282
S'PRT'
p283
F0.0105
sg23
F0.9895
s(lp284
g110
atp285
a(g105
(dp286
S'NOUN'
p287
F1.0
s(lp288
g105
atp289
a(g98
(dp290
S'NOUN'
p291
F1.0
s(lp292
g98
atp293
a(g21
(dp294
g23
F1.0
s(lp295
g21
atp296
a(g126
(dp297
S'ADV'
p298
F0.076914
sS'ADP'
p299
F0.923086
s(lp300
g126
atp301
a(g132
(dp302
S'X'
p303
F0.002995
sS'NOUN'
p304
F0.9970060000000001
s(lp305
g132
atp306
a(g145
(dp307
S'VERB'
p308
F1.0
s(lp309
g145
atp310
a(S'quite'
p311
(dp312
S'ADV'
p313
F0.824183
sS'DET'
p314
F0.175817
s(lp315
g311
atp316
a(S'a'
p317
(dp318
S'NOUN'
p319
F0.0
sS'DET'
p320
F1.0
s(lp321
g317
atp322
a(g152
(dp323
S'ADJ'
p324
F1.0
s(lp325
g152
atp326
a(g159
(dp327
S'NOUN'
p328
F1.0
s(lp329
g159
atp330
a(g165
(dp331
S'VERB'
p332
F0.999999
sS'NOUN'
p333
F1e-06
s(lp334
g165
atp335
a(g172
(dp336
S'ADV'
p337
F0.177323
sS'PRT'
p338
F0.014082
sS'VERB'
p339
F0.000176
sS'ADJ'
p340
F0.80519
sS'NOUN'
p341
F0.00323
s(lp342
g172
atp343
a(g178
(dp344
S'ADV'
p345
F1e-06
sS'PRT'
p346
F0.999991
sS'ADP'
p347
F9e-06
s(lp348
g178
atp349
a(g184
(dp350
S'NOUN'
p351
F1.0
s(lp352
g184
atp353
a(g190
(dp354
S'ADV'
p355
F0.000191
sS'PRT'
p356
F0.000279
sS'ADP'
p357
F0.999531
s(lp358
g190
atp359
a(g196
(dp360
S'ADV'
p361
F8e-06
sS'NOUN'
p362
F2e-05
sS'DET'
p363
F0.999973
s(lp364
g196
atp365
a(g202
(dp366
S'VERB'
p367
F0.004084
sS'NOUN'
p368
F0.995916
s(lp369
g202
atp370
a(g23
(dp371
g23
F1.0
s(lp372
g23
atp373
asS'nl'
p374
(lp375
(S'we'
p376
(dp377
S'PRON'
p378
F1.0
s(lp379
g30
atp380
a(S'moeten'
p381
(dp382
S'VERB'
p383
F0.9999830000000001
sS'NOUN'
p384
F1.7e-05
s(lp385
g37
atp386
a(S'ook'
p387
(dp388
S'ADV'
p389
F1.0
s(lp390
g43
atp391
a(S'denk'
p392
(dp393
S'VERB'
p394
F1.0
s(lp395
g145
atp396
a(S'ik'
p397
(dp398
S'PRON'
p399
F0.999998
sS'NOUN'
p400
F2e-06
s(lp401
g132
atp402
a(S'wat'
p403
(dp404
S'ADV'
p405
F0.403034
sS'PRON'
p406
F0.596966
s(lp407
g57
atp408
a(S'meer'
p409
(dp410
S'ADV'
p411
F0.946762
sS'NUM'
p412
F0.053159
sS'NOUN'
p413
F1.6e-05
sS'VERB'
p414
F6.3e-05
s(lp415
g64
atp416
a(S'duidelijkheid'
p417
(dp418
S'NOUN'
p419
F1.0
s(lp420
tp421
a(S'scheppen'
p422
(dp423
S'VERB'
p424
F0.9969650000000001
sS'NOUN'
p425
F0.003036
s(lp426
g75
atp427
a(S'over'
p428
(dp429
S'ADV'
p430
F0.016445
sS'ADP'
p431
F0.983555
s(lp432
g82
atp433
a(S'de'
p434
(dp435
S'DET'
p436
F1.0
s(lp437
g90
atp438
a(S'zogenaamde'
p439
(dp440
S'NOUN'
p441
F0.001927
sS'ADJ'
p442
F0.998073
s(lp443
g110
atp444
a(S'gevoelige'
p445
(dp446
S'NOUN'
p447
F3.3e-05
sS'ADJ'
p448
F0.999967
s(lp449
g116
atp450
a(S'pnr-gegevens'
p451
(dp452
S'ADV'
p453
F4e-06
sS'ADJ'
p454
F2e-05
sS'NOUN'
p455
F0.999976
s(lp456
g105
atp457
a(S'waarbij'
p458
(dp459
S'ADV'
p460
F1.0
s(lp461
g126
atp462
a(S'volgens'
p463
(dp464
S'ADP'
p465
F1.0
s(lp466
tp467
a(S'mij'
p468
(dp469
S'PRON'
p470
F1.0
s(lp471
g145
atp472
a(S'nogal'
p473
(dp474
S'ADV'
p475
F1.0
s(lp476
g311
atp477
a(S'wat'
p478
(dp479
S'ADV'
p480
F0.255397
sS'PRON'
p481
F0.7446029999999999
s(lp482
g152
atp483
a(S'dingen'
p484
(dp485
S'VERB'
p486
F0.6958840000000001
sS'NOUN'
p487
F0.304116
s(lp488
g159
atp489
a(S'voor'
p490
(dp491
S'ADV'
p492
F0.001361
sS'CONJ'
p493
F1.1e-05
sS'NOUN'
p494
F0.0
sS'ADP'
p495
F0.998629
s(lp496
g178
atp497
a(S'interpretatie'
p498
(dp499
S'NOUN'
p500
F1.0
s(lp501
g184
atp502
a(S'vatbaar'
p503
(dp504
S'ADJ'
p505
F1.0
s(lp506
g172
atp507
a(S'zijn'
p508
(dp509
S'PRON'
p510
F6.5e-05
sS'VERB'
p511
F0.996388
sS'NOUN'
p512
F0.003547
s(lp513
g165
atp514
a(g23
(dp515
g23
F1.0
s(lp516
g23
atp517
asS'de'
p518
(lp519
(S'meiner'
p520
(dp521
S'PRON'
p522
F0.999992
s(lp523
g13
atp524
a(S'meinung'
p525
(dp526
S'ADJ'
p527
F0.001647
sS'NOUN'
p528
F0.996826
s(lp529
tp530
a(S'nach'
p531
(dp532
S'ADV'
p533
F0.064345
sS'ADP'
p534
F0.917383
s(lp535
g19
atp536
a(S'm\xc3\xbcssen'
p537
(dp538
S'VERB'
p539
F0.999181
s(lp540
g37
atp541
a(S'wir'
p542
(dp543
S'PRON'
p544
F1.0
s(lp545
g30
atp546
a(S'auch'
p547
(dp548
S'ADV'
p549
F1.0
s(lp550
g43
atp551
a(S'wirklich'
p552
(dp553
S'ADJ'
p554
F1.0
s(lp555
g57
atp556
a(S'mehr'
p557
(dp558
S'ADV'
p559
F0.134905
sS'PRON'
p560
F0.864155
s(lp561
g64
atp562
a(S'klarheit'
p563
(dp564
S'ADJ'
p565
F0.003349
sS'NOUN'
p566
F0.995385
s(lp567
g75
atp568
a(S'\xc3\xbcber'
p569
(dp570
S'PRT'
p571
F9.4e-05
sS'ADP'
p572
F0.999906
s(lp573
g82
atp574
a(S'die'
p575
(dp576
S'PRON'
p577
F0.001107
sS'DET'
p578
F0.998797
s(lp579
g90
atp580
a(g107
(dp581
g23
F1.0
s(lp582
g110
atp583
a(S'sensiblen'
p584
(dp585
S'ADJ'
p586
F1.0
s(lp587
g116
atp588
a(g107
(dp589
g23
F1.0
s(lp590
g110
atp591
a(S'pnr-daten'
p592
(dp593
S'NOUN'
p594
F0.326824
sS'ADJ'
p595
F0.666443
s(lp596
g105
atp597
a(S'schaffen'
p598
(dp599
S'VERB'
p600
F1.0
s(lp601
g49
atp602
a(g21
(dp603
g23
F1.0
s(lp604
g21
atp605
a(S'da'
p606
(dp607
S'ADV'
p608
F0.001925
sS'CONJ'
p609
F0.998072
s(lp610
g126
atp611
a(S'ich'
p612
(dp613
S'PRON'
p614
F1.0
s(lp615
g132
atp616
a(S'\xc3\xbcberzeugt'
p617
(dp618
S'VERB'
p619
F0.642671
sS'ADJ'
p620
F0.356929
s(lp621
g145
atp622
a(S'bin'
p623
(dp624
S'VERB'
p625
F1.0
s(lp626
tp627
a(g21
(dp628
g23
F1.0
s(lp629
tp630
a(S'dass'
p631
(dp632
S'CONJ'
p633
F1.0
s(lp634
g145
atp635
a(S'es'
p636
(dp637
S'PRON'
p638
F1.0
s(lp639
g311
atp640
a(S'mehrere'
p641
(dp642
S'PRON'
p643
F1.0
s(lp644
g152
atp645
a(S'dinge'
p646
(dp647
S'VERB'
p648
F1.0
s(lp649
g159
atp650
a(S'gibt'
p651
(dp652
S'VERB'
p653
F1.0
s(lp654
g165
atp655
a(g21
(dp656
g23
F1.0
s(lp657
tp658
a(S'die'
p659
(dp660
S'PRON'
p661
F0.969205
sS'DET'
p662
F0.026136
s(lp663
g178
atp664
a(S'in'
p665
(dp666
S'ADP'
p667
F1.0
s(lp668
g190
atp669
a(S'dieser'
p670
(dp671
S'PRON'
p672
F1.0
s(lp673
g196
atp674
a(S'hinsicht'
p675
(dp676
S'VERB'
p677
F0.007662
sS'NOUN'
p678
F0.988304
s(lp679
g202
atp680
a(S'unterschiedlich'
p681
(dp682
S'ADJ'
p683
F1.0
s(lp684
tp685
a(S'ausgelegt'
p686
(dp687
S'VERB'
p688
F0.994213
sS'ADJ'
p689
F0.005787
s(lp690
g184
atp691
a(S'werden'
p692
(dp693
S'VERB'
p694
F0.999921
s(lp695
tp696
a(S'k\xc3\xb6nnen'
p697
(dp698
S'VERB'
p699
F0.999732
s(lp700
tp701
a(g23
(dp702
g23
F1.0
s(lp703
g23
atp704
asS'it'
p705
(lp706
(g317
(dp707
S'CONJ'
p708
F0.000159
sS'ADP'
p709
F0.999841
s(lp710
g7
atp711
a(S'mio'
p712
(dp713
S'PRON'
p714
F1.0
s(lp715
g13
atp716
a(S'parere'
p717
(dp718
S'VERB'
p719
F0.000364
sS'NOUN'
p720
F0.999636
s(lp721
g19
atp722
a(g21
(dp723
g23
F1.0
s(lp724
g21
atp725
a(S'occorre'
p726
(dp727
S'VERB'
p728
F1.0
s(lp729
g37
atp730
a(S'fare'
p731
(dp732
S'VERB'
p733
F1.0
s(lp734
g49
atp735
a(S'chiarezza'
p736
(dp737
S'NOUN'
p738
F1.0
s(lp739
g75
atp740
a(S'sui'
p741
(dp742
S'ADP'
p743
F1.0
s(lp744
g82
atp745
a(S'dati'
p746
(dp747
S'ADJ'
p748
F0.017195
sS'VERB'
p749
F0.0007769999999999999
sS'NOUN'
p750
F0.982028
s(lp751
g98
atp752
a(S'pnr'
p753
(dp754
S'NOUN'
p755
F0.101818
sS'VERB'
p756
F0.009959
sS'ADJ'
p757
F0.888222
s(lp758
tp759
a(S'ritenuti'
p760
(dp761
S'VERB'
p762
F1.0
s(lp763
g105
atp764
a(g107
(dp765
g23
F1.0
s(lp766
g110
atp767
a(S'sensibili'
p768
(dp769
S'ADJ'
p770
F1.0
s(lp771
g116
atp772
a(g107
(dp773
g23
F1.0
s(lp774
g110
atp775
a(S'perch\xc3\xa9'
p776
(dp777
S'ADV'
p778
F0.247301
sS'CONJ'
p779
F0.723881
sS'NOUN'
p780
F0.028819
s(lp781
g126
atp782
a(S'ritengo'
p783
(dp784
S'VERB'
p785
F1.0
s(lp786
g145
atp787
a(S'che'
p788
(dp789
S'PRON'
p790
F0.92506
sS'CONJ'
p791
F0.067315
sS'ADJ'
p792
F0.007625
s(lp793
tp794
a(S'svariati'
p795
(dp796
S'VERB'
p797
F0.635112
sS'ADJ'
p798
F0.364888
s(lp799
g152
atp800
a(S'elementi'
p801
(dp802
S'NOUN'
p803
F1.0
s(lp804
g159
atp805
a(S'siano'
p806
(dp807
S'VERB'
p808
F1.0
s(lp809
g165
atp810
a(S'suscettibili'
p811
(dp812
S'ADJ'
p813
F1.0
s(lp814
g172
atp815
a(S'di'
p816
(dp817
S'CONJ'
p818
F4e-06
sS'ADP'
p819
F0.999996
s(lp820
g178
atp821
a(S'interpretazioni'
p822
(dp823
S'NOUN'
p824
F1.0
s(lp825
tp826
a(S'diverse'
p827
(dp828
S'VERB'
p829
F0.016770999999999998
sS'ADJ'
p830
F0.983229
s(lp831
g184
atp832
a(g23
(dp833
g23
F1.0
s(lp834
g23
atp835
asS'sk'
p836
(lp837
(S'pod\xc4\xbea'
p838
(dp839
S'ADP'
p840
F1.0
s(lp841
g13
atp842
a(S'm\xc3\xb4jho'
p843
(dp844
S'PRON'
p845
F1.0
s(lp846
tp847
a(S'n\xc3\xa1zoru'
p848
(dp849
S'NOUN'
p850
F1.0
s(lp851
g19
atp852
a(S'tie\xc5\xbe'
p853
(dp854
g303
F1.0
s(lp855
g43
atp856
a(S'mus\xc3\xadme'
p857
(dp858
S'VERB'
p859
F1.0
s(lp860
g37
atp861
a(S'zabezpe\xc4\x8di\xc5\xa5'
p862
(dp863
S'VERB'
p864
F1.0
s(lp865
g49
atp866
a(S'o'
p867
(dp868
g303
F0.004871
sS'CONJ'
p869
F0.000171
sS'NOUN'
p870
F1.9999999999999998e-05
sS'ADP'
p871
F0.994939
s(lp872
tp873
a(S'dos\xc5\xa5'
p874
(dp875
S'ADV'
p876
F0.14801
sg303
F0.004873
sS'NUM'
p877
F0.847117
s(lp878
g57
atp879
a(S'v\xc3\xa4\xc4\x8d\xc5\xa1iu'
p880
(dp881
g303
F0.004288
sS'ADJ'
p882
F0.995712
s(lp883
g64
atp884
a(S'jasnos\xc5\xa5'
p885
(dp886
S'NOUN'
p887
F1.0
s(lp888
g75
atp889
a(S'v'
p890
(dp891
g303
F0.0005020000000000001
sS'ADP'
p892
F0.999498
s(lp893
g82
atp894
a(S's\xc3\xbavislosti'
p895
(dp896
S'NOUN'
p897
F1.0
s(lp898
tp899
a(S's'
p900
(dp901
g303
F0.0008900000000000001
sS'CONJ'
p902
F6.4e-05
sS'NOUN'
p903
F2.7e-05
sS'ADP'
p904
F0.99896
sS'PRT'
p905
F5.8e-05
s(lp906
g82
atp907
a(S'citliv\xc3\xbdmi'
p908
(dp909
S'ADJ'
p910
F1.0
s(lp911
g116
atp912
a(S'\xc3\xbadajmi'
p913
(dp914
S'NOUN'
p915
F1.0
s(lp916
g98
atp917
a(S'pnr'
p918
(dp919
S'ADV'
p920
F0.005288
sS'ADJ'
p921
F0.000539
sS'VERB'
p922
F0.000697
sS'NOUN'
p923
F0.993476
s(lp924
g105
atp925
a(g23
(dp926
g23
F1.0
s(lp927
g21
atp928
a(S'ver\xc3\xadm'
p929
(dp930
S'VERB'
p931
F1.0
s(lp932
g145
atp933
a(S'toti\xc5\xbe'
p934
(dp935
g303
F0.999891
sS'CONJ'
p936
F0.000109
s(lp937
tp938
a(g21
(dp939
g23
F1.0
s(lp940
tp941
a(S'\xc5\xbee'
p942
(dp943
g303
F0.000317
sS'CONJ'
p944
F0.999683
s(lp945
g145
atp946
a(S'\xc4\x8do'
p947
(dp948
S'PRON'
p949
F0.820643
sS'CONJ'
p950
F0.160599
sg303
F0.018759
s(lp951
g190
atp952
a(S'sa'
p953
(dp954
S'PRT'
p955
F0.999857
sS'ADP'
p956
F7.4e-05
sg303
F6.8e-05
s(lp957
tp958
a(S'toho'
p959
(dp960
S'PRON'
p961
F0.999999
sg303
F1e-06
s(lp962
g196
atp963
a(S't\xc3\xbdka'
p964
(dp965
g303
F0.001326
sS'VERB'
p966
F0.998674
s(lp967
g202
atp968
a(g21
(dp969
g23
F1.0
s(lp970
tp971
a(S'pomerne'
p972
(dp973
S'ADV'
p974
F0.00449
sg303
F0.99551
s(lp975
tp976
a(S'dos\xc5\xa5'
p977
(dp978
S'ADV'
p979
F0.008892
sg303
F0.010028
sS'NUM'
p980
F0.98108
s(lp981
g311
atp982
a(S'vec\xc3\xad'
p983
(dp984
S'NOUN'
p985
F1.0
s(lp986
g159
atp987
a(S'je'
p988
(dp989
S'PRON'
p990
F5.9e-05
sS'VERB'
p991
F0.999914
sg303
F2.8e-05
s(lp992
g165
atp993
a(S'mo\xc5\xben\xc3\xa9'
p994
(dp995
S'ADJ'
p996
F1.0
s(lp997
g172
atp998
a(S'vyklada\xc5\xa5'
p999
(dp1000
S'VERB'
p1001
F1.0
s(lp1002
tp1003
a(S'r\xc3\xb4zne'
p1004
(dp1005
S'ADV'
p1006
F0.250009
sS'ADJ'
p1007
F0.74999
s(lp1008
g184
atp1009
a(g23
(dp1010
g23
F1.0
s(lp1011
g23
atp1012
asS'pl'
p1013
(lp1014
(S'wed\xc5\x82ug'
p1015
(dp1016
S'ADP'
p1017
F1.0
s(lp1018
g13
atp1019
a(S'mnie'
p1020
(dp1021
S'PRON'
p1022
F1.000001
s(lp1023
g19
atp1024
a(S'powinni\xc5\x9bmy'
p1025
(dp1026
S'ADJ'
p1027
F6.9e-05
sS'VERB'
p1028
F0.9830459999999999
sS'NOUN'
p1029
F0.016885
s(lp1030
g37
atp1031
a(S'zapewni\xc4\x87'
p1032
(dp1033
S'VERB'
p1034
F1.0
s(lp1035
g49
atp1036
a(S'wi\xc4\x99ksz\xc4\x85'
p1037
(dp1038
S'ADJ'
p1039
F1.0
s(lp1040
g64
atp1041
a(S'jasno\xc5\x9b\xc4\x87'
p1042
(dp1043
S'NOUN'
p1044
F1.0
s(lp1045
g75
atp1046
a(S'w'
p1047
(dp1048
S'NOUN'
p1049
F0.0
sS'ADJ'
p1050
F0.0
sS'ADP'
p1051
F1.0
sg303
F0.0
s(lp1052
tp1053
a(S'odniesieniu'
p1054
(dp1055
S'VERB'
p1056
F0.050285
sS'NOUN'
p1057
F0.949715
s(lp1058
g82
atp1059
a(S'do'
p1060
(dp1061
g303
F0.001729
sS'NOUN'
p1062
F0.001828
sS'ADP'
p1063
F0.996444
s(lp1064
g90
atp1065
a(g107
(dp1066
g23
F1.0
s(lp1067
g110
atp1068
a(S'wra\xc5\xbcliwych'
p1069
(dp1070
S'ADV'
p1071
F0.014884
sS'NOUN'
p1072
F0.122339
sS'VERB'
p1073
F0.108555
sS'ADJ'
p1074
F0.7542239999999999
s(lp1075
g116
atp1076
a(S'\xe2\x80\x9d'
p1077
(dp1078
g23
F1.0
s(lp1079
g110
atp1080
a(S'danych'
p1081
(dp1082
S'ADJ'
p1083
F0.077788
sS'VERB'
p1084
F0.029578
sS'NOUN'
p1085
F0.892634
s(lp1086
g98
atp1087
a(S'pnr'
p1088
(dp1089
S'ADJ'
p1090
F0.028759
sS'NOUN'
p1091
F0.970861
sg303
F0.00038
s(lp1092
g105
atp1093
a(g21
(dp1094
g303
F0.0
sg23
F1.0
s(lp1095
g21
atp1096
a(S'poniewa\xc5\xbc'
p1097
(dp1098
S'CONJ'
p1099
F1.0
s(lp1100
g126
atp1101
a(S'uwa\xc5\xbcam'
p1102
(dp1103
S'VERB'
p1104
F1.0
s(lp1105
g145
atp1106
a(g21
(dp1107
g303
F0.0
sg23
F1.0
s(lp1108
tp1109
a(S'\xc5\xbce'
p1110
(dp1111
S'PRT'
p1112
F0.000144
sS'CONJ'
p1113
F0.9998560000000001
s(lp1114
g311
atp1115
a(S'niekt\xc3\xb3re'
p1116
(dp1117
S'ADJ'
p1118
F1.0000000000000002
s(lp1119
g152
atp1120
a(S'kwestie'
p1121
(dp1122
S'NOUN'
p1123
F1.0
s(lp1124
g159
atp1125
a(S'mog\xc4\x85'
p1126
(dp1127
S'VERB'
p1128
F1.0
s(lp1129
g172
atp1130
a(S'by\xc4\x87'
p1131
(dp1132
S'VERB'
p1133
F1.0
s(lp1134
g178
atp1135
a(S'r\xc3\xb3\xc5\xbcnie'
p1136
(dp1137
S'ADV'
p1138
F1.0
s(lp1139
tp1140
a(S'interpretowane'
p1141
(dp1142
S'VERB'
p1143
F1.0
s(lp1144
g184
atp1145
a(g23
(dp1146
g23
F1.0
s(lp1147
g23
atp1148
asS'sl'
p1149
(lp1150
(S'po'
p1151
(dp1152
g303
F2e-06
sS'ADP'
p1153
F0.9999979999999999
s(lp1154
g7
atp1155
a(S'mojem'
p1156
(dp1157
S'PRON'
p1158
F1.0
s(lp1159
g13
atp1160
a(S'mnenju'
p1161
(dp1162
S'NOUN'
p1163
F1.0
s(lp1164
g19
atp1165
a(S'moramo'
p1166
(dp1167
S'VERB'
p1168
F1.0
s(lp1169
g37
atp1170
a(S'zagotoviti'
p1171
(dp1172
S'VERB'
p1173
F1.0
s(lp1174
g49
atp1175
a(S'tudi'
p1176
(dp1177
S'PRT'
p1178
F1.0
s(lp1179
g43
atp1180
a(S've\xc4\x8djo'
p1181
(dp1182
S'ADJ'
p1183
F1.0
s(lp1184
g64
atp1185
a(S'jasnost'
p1186
(dp1187
S'NOUN'
p1188
F1.0
s(lp1189
g75
atp1190
a(g890
(dp1191
S'ADP'
p1192
F1.0
s(lp1193
tp1194
a(S'zvezi'
p1195
(dp1196
S'NOUN'
p1197
F1.0
s(lp1198
g82
atp1199
a(S'z'
p1200
(dp1201
S'ADP'
p1202
F1.0
s(lp1203
g90
atp1204
a(g107
(dp1205
g23
F1.0
s(lp1206
g110
atp1207
a(S'ob\xc4\x8dutljivimi'
p1208
(dp1209
S'ADJ'
p1210
F1.0
s(lp1211
g116
atp1212
a(g107
(dp1213
g23
F1.0
s(lp1214
g110
atp1215
a(S'podatki'
p1216
(dp1217
S'NOUN'
p1218
F1.0
s(lp1219
g98
atp1220
a(S'pnr'
p1221
(dp1222
S'ADV'
p1223
F0.065225
sS'ADJ'
p1224
F0.002018
sS'VERB'
p1225
F0.048928
sS'NOUN'
p1226
F0.8835160000000002
sg303
F0.000312
s(lp1227
g105
atp1228
a(g21
(dp1229
g23
F1.0
s(lp1230
g21
atp1231
a(S'saj'
p1232
(dp1233
S'CONJ'
p1234
F1.0
s(lp1235
g126
atp1236
a(S'menim'
p1237
(dp1238
S'VERB'
p1239
F1.0
s(lp1240
g145
atp1241
a(g21
(dp1242
g23
F1.0
s(lp1243
tp1244
a(S'da'
p1245
(dp1246
S'PRT'
p1247
F4e-06
sS'CONJ'
p1248
F0.999979
sS'VERB'
p1249
F1.7e-05
sg303
F1e-06
s(lp1250
g178
atp1251
a(S'je'
p1252
(dp1253
S'PRON'
p1254
F0.000886
sS'VERB'
p1255
F0.999114
sg303
F0.0
s(lp1256
g165
atp1257
a(S'mogo\xc4\x8de'
p1258
(dp1259
S'ADV'
p1260
F0.328512
sS'ADJ'
p1261
F0.6714889999999999
s(lp1262
g172
atp1263
a(S'kar'
p1264
(dp1265
S'ADV'
p1266
F0.887092
sS'PRON'
p1267
F0.11290800000000001
s(lp1268
g311
atp1269
a(S'nekaj'
p1270
(dp1271
S'ADV'
p1272
F0.706444
sS'PRON'
p1273
F0.29355600000000004
s(lp1274
g152
atp1275
a(S'stvari'
p1276
(dp1277
S'NOUN'
p1278
F1.0000000000000002
s(lp1279
g159
atp1280
a(S'razli\xc4\x8dno'
p1281
(dp1282
S'ADV'
p1283
F0.826358
sS'ADJ'
p1284
F0.173642
s(lp1285
tp1286
a(S'razlagati'
p1287
(dp1288
S'VERB'
p1289
F1.0
s(lp1290
g184
atp1291
a(g23
(dp1292
g23
F1.0
s(lp1293
g23
atp1294
asS'es'
p1295
(lp1296
(S'en'
p1297
(dp1298
g303
F2e-06
sS'CONJ'
p1299
F3e-05
sS'ADP'
p1300
F0.999968
s(lp1301
g7
atp1302
a(S'mi'
p1303
(dp1304
S'PRON'
p1305
F1.0
s(lp1306
g13
atp1307
a(S'opini\xc3\xb3n'
p1308
(dp1309
S'NOUN'
p1310
F1.0
s(lp1311
g19
atp1312
a(g21
(dp1313
g23
F1.0
s(lp1314
g21
atp1315
a(S'tambi\xc3\xa9n'
p1316
(dp1317
S'ADV'
p1318
F1.0
s(lp1319
g43
atp1320
a(S'necesitamos'
p1321
(dp1322
S'VERB'
p1323
F1.0
s(lp1324
g37
atp1325
a(S'm\xc3\xa1s'
p1326
(dp1327
S'ADV'
p1328
F1.0
sS'CONJ'
p1329
F0.0
s(lp1330
g64
atp1331
a(S'claridad'
p1332
(dp1333
S'NOUN'
p1334
F1.0
s(lp1335
g75
atp1336
a(S'en'
p1337
(dp1338
g303
F0.0
sS'CONJ'
p1339
F0.0
sS'ADP'
p1340
F0.999999
s(lp1341
g82
atp1342
a(S'lo'
p1343
(dp1344
S'PRON'
p1345
F0.0
sS'DET'
p1346
F1.0
s(lp1347
g82
atp1348
a(S'relacionado'
p1349
(dp1350
S'VERB'
p1351
F1.0
s(lp1352
tp1353
a(S'con'
p1354
(dp1355
S'ADP'
p1356
F1.0
s(lp1357
g82
atp1358
a(S'los'
p1359
(dp1360
S'PRON'
p1361
F0.0
sS'DET'
p1362
F1.0
s(lp1363
g90
atp1364
a(S'datos'
p1365
(dp1366
S'NOUN'
p1367
F1.0
s(lp1368
g98
atp1369
a(g107
(dp1370
g23
F1.0
s(lp1371
g110
atp1372
a(S'sensibles'
p1373
(dp1374
S'ADJ'
p1375
F1.0
s(lp1376
g116
atp1377
a(g107
(dp1378
g23
F1.0
s(lp1379
g110
atp1380
a(S'del'
p1381
(dp1382
S'ADP'
p1383
F1.0
s(lp1384
tp1385
a(S'pnr'
p1386
(dp1387
S'ADJ'
p1388
F0.052309
sS'VERB'
p1389
F0.0001
sS'NOUN'
p1390
F0.947591
s(lp1391
g105
atp1392
a(g21
(dp1393
g23
F1.0
s(lp1394
g21
atp1395
a(S'pues'
p1396
(dp1397
S'CONJ'
p1398
F1.0
s(lp1399
g126
atp1400
a(S'creo'
p1401
(dp1402
S'VERB'
p1403
F1.0
s(lp1404
g145
atp1405
a(S'que'
p1406
(dp1407
g303
F0.0
sS'CONJ'
p1408
F1.0
s(lp1409
g132
atp1410
a(S'un'
p1411
(dp1412
g303
F0.0
sS'DET'
p1413
F1.0
s(lp1414
g317
atp1415
a(S'gran'
p1416
(dp1417
S'ADJ'
p1418
F1.0
s(lp1419
g311
atp1420
a(S'n\xc3\xbamero'
p1421
(dp1422
S'NOUN'
p1423
F1.0
s(lp1424
g152
atp1425
a(S'de'
p1426
(dp1427
g303
F2.9e-05
sS'CONJ'
p1428
F0.000449
sS'ADP'
p1429
F0.999522
s(lp1430
tp1431
a(S'elementos'
p1432
(dp1433
S'NOUN'
p1434
F1.0
s(lp1435
g159
atp1436
a(S'pueden'
p1437
(dp1438
S'VERB'
p1439
F1.0
s(lp1440
g165
atp1441
a(S'ser'
p1442
(dp1443
S'VERB'
p1444
F1.0
sS'NOUN'
p1445
F0.0
s(lp1446
g172
atp1447
a(S'objeto'
p1448
(dp1449
S'NOUN'
p1450
F1.0
s(lp1451
g178
atp1452
a(S'de'
p1453
(dp1454
g303
F2.9e-05
sS'CONJ'
p1455
F0.000449
sS'ADP'
p1456
F0.999522
s(lp1457
tp1458
a(S'interpretaci\xc3\xb3n'
p1459
(dp1460
S'NOUN'
p1461
F1.0
s(lp1462
g184
atp1463
a(S'en'
p1464
(dp1465
g303
F0.0
sS'CONJ'
p1466
F1e-06
sS'ADP'
p1467
F0.999999
s(lp1468
g190
atp1469
a(S'este'
p1470
(dp1471
S'PRON'
p1472
F0.999828
sS'NOUN'
p1473
F0.000172
s(lp1474
g196
atp1475
a(S'aspecto'
p1476
(dp1477
S'NOUN'
p1478
F1.0
s(lp1479
g202
atp1480
a(g23
(dp1481
g23
F1.0
s(lp1482
g23
atp1483
as.