(dp0
S'fr'
p1
(lp2
(S'vos'
p3
(dp4
S'PRON'
p5
F1.0
s(lp6
S'your'
p7
atp8
a(S'propos'
p9
(dp10
S'NOUN'
p11
F1.0
s(lp12
S'words'
p13
atp14
a(S'ne'
p15
(dp16
S'ADV'
p17
F1.0
s(lp18
tp19
a(S'contredisent'
p20
(dp21
S'VERB'
p22
F1.0
s(lp23
S'contradict'
p24
atp25
a(S'pas'
p26
(dp27
S'ADV'
p28
F0.99916
sS'NOUN'
p29
F0.00084
s(lp30
S'not'
p31
atp32
a(S'les'
p33
(dp34
S'PRON'
p35
F0.272516
sS'DET'
p36
F0.727175
sS'ADP'
p37
F0.000309
s(lp38
S'what'
p39
atp40
a(S'miens'
p41
(dp42
S'PRON'
p43
F1.0
s(lp44
S'said'
p45
atp46
a(S'.'
p47
(dp48
g47
F1.0
s(lp49
g47
atp50
asS'en'
p51
(lp52
(g7
(dp53
S'PRON'
p54
F1.0
s(lp55
g7
atp56
a(g13
(dp57
S'VERB'
p58
F0.0
sS'NOUN'
p59
F1.0
s(lp60
g13
atp61
a(S'do'
p62
(dp63
S'VERB'
p64
F1.0
sS'NOUN'
p65
F0.0
s(lp66
g62
atp67
a(g31
(dp68
S'ADV'
p69
F1.0
s(lp70
g31
atp71
a(g24
(dp72
S'VERB'
p73
F1.0
s(lp74
g24
atp75
a(g39
(dp76
S'PRON'
p77
F0.995707
sS'DET'
p78
F0.004293
s(lp79
g39
atp80
a(S'i'
p81
(dp82
S'X'
p83
F1e-06
sS'NOUN'
p84
F0.999999
s(lp85
g81
atp86
a(g45
(dp87
S'ADJ'
p88
F2e-06
sS'VERB'
p89
F0.999926
sS'NOUN'
p90
F7.1e-05
s(lp91
g45
atp92
a(g47
(dp93
g47
F1.0
s(lp94
g47
atp95
asS'nl'
p96
(lp97
(S'uw'
p98
(dp99
S'PRON'
p100
F1.0
s(lp101
g7
atp102
a(S'woorden'
p103
(dp104
S'NOUN'
p105
F1.0
s(lp106
g13
atp107
a(S'zijn'
p108
(dp109
S'PRON'
p110
F1e-06
sS'VERB'
p111
F0.9999669999999999
sS'NOUN'
p112
F3.2e-05
s(lp113
g62
atp114
a(S'niet'
p115
(dp116
S'ADV'
p117
F0.999995
sS'PRON'
p118
F5e-06
sS'VERB'
p119
F0.0
sg83
F0.0
s(lp120
g31
atp121
a(S'in'
p122
(dp123
S'ADV'
p124
F0.006375
sS'VERB'
p125
F1e-06
sS'ADP'
p126
F0.993624
s(lp127
g24
atp128
a(S'tegenspraak'
p129
(dp130
S'NOUN'
p131
F1.0
s(lp132
g24
atp133
a(S'met'
p134
(dp135
S'ADP'
p136
F1.0
s(lp137
tp138
a(S'de'
p139
(dp140
S'DET'
p141
F1.0
s(lp142
g39
atp143
a(S'mijne'
p144
(dp145
S'PRON'
p146
F1.0
s(lp147
g24
atp148
a(g47
(dp149
g47
F1.0
s(lp150
g47
atp151
asS'de'
p152
(lp153
(S'das'
p154
(dp155
S'PRON'
p156
F0.994547
sS'DET'
p157
F0.005066
s(lp158
g39
atp159
a(S','
p160
(dp161
g47
F1.0
s(lp162
tp163
a(S'was'
p164
(dp165
S'PRON'
p166
F0.99925
s(lp167
tp168
a(S'sie'
p169
(dp170
S'PRON'
p171
F1.0
s(lp172
g7
atp173
a(S'sagen'
p174
(dp175
S'VERB'
p176
F1.0
s(lp177
g13
atp178
a(g160
(dp179
g47
F1.0
s(lp180
tp181
a(S'steht'
p182
(dp183
S'VERB'
p184
F1.0
s(lp185
g24
atp186
a(S'ja'
p187
(dp188
S'ADV'
p189
F0.999966
sS'PRT'
p190
F3.4e-05
s(lp191
g62
atp192
a(S'nicht'
p193
(dp194
S'PRT'
p195
F1.0
s(lp196
g31
atp197
a(S'im'
p198
(dp199
S'ADP'
p200
F1.0
s(lp201
g24
atp202
a(S'widerspruch'
p203
(dp204
S'ADJ'
p205
F9.8e-05
sS'NOUN'
p206
F0.999868
s(lp207
g24
atp208
a(S'zu'
p209
(dp210
S'PRT'
p211
F0.005098
sS'ADP'
p212
F0.993549
s(lp213
tp214
a(S'dem'
p215
(dp216
S'PRON'
p217
F0.193117
sS'DET'
p218
F0.803602
s(lp219
g24
atp220
a(g160
(dp221
g47
F1.0
s(lp222
tp223
a(S'was'
p224
(dp225
S'PRON'
p226
F0.99925
s(lp227
g39
atp228
a(S'ich'
p229
(dp230
S'PRON'
p231
F1.0
s(lp232
g81
atp233
a(S'gesagt'
p234
(dp235
S'VERB'
p236
F0.996081
sS'ADJ'
p237
F0.003919
s(lp238
tp239
a(S'habe'
p240
(dp241
S'VERB'
p242
F1.0
s(lp243
g45
atp244
a(g47
(dp245
g47
F1.0
s(lp246
g47
atp247
asS'it'
p248
(lp249
(S'le'
p250
(dp251
S'PRON'
p252
F2.3e-05
sS'DET'
p253
F0.999977
s(lp254
tp255
a(S'sue'
p256
(dp257
S'PRON'
p258
F1.0
s(lp259
g7
atp260
a(S'parole'
p261
(dp262
S'NOUN'
p263
F1.0
s(lp264
g13
atp265
a(S'non'
p266
(dp267
S'ADV'
p268
F1.0
s(lp269
g31
atp270
a(S'sono'
p271
(dp272
S'VERB'
p273
F0.999376
sS'NOUN'
p274
F0.000624
s(lp275
g24
atp276
a(S'in'
p277
(dp278
S'ADP'
p279
F1.0
s(lp280
g24
atp281
a(S'contraddizione'
p282
(dp283
S'NOUN'
p284
F1.0
s(lp285
tp286
a(S'con'
p287
(dp288
S'ADP'
p289
F1.0
s(lp290
g24
atp291
a(S'quanto'
p292
(dp293
S'ADV'
p294
F0.502404
sS'PRON'
p295
F0.424026
sS'ADJ'
p296
F0.066873
sS'NOUN'
p297
F0.006697
s(lp298
tp299
a(S'da'
p300
(dp301
S'ADP'
p302
F1.0
s(lp303
g39
atp304
a(S'me'
p305
(dp306
S'PRON'
p307
F1.0
s(lp308
g81
atp309
a(S'affermato'
p310
(dp311
S'VERB'
p312
F0.97663
sS'ADJ'
p313
F0.02337
s(lp314
g45
atp315
a(g47
(dp316
g47
F1.0
s(lp317
g47
atp318
asS'sk'
p319
(lp320
(S'va\xc5\xa1e'
p321
(dp322
S'PRON'
p323
F1.0
s(lp324
g7
atp325
a(S'slov\xc3\xa1'
p326
(dp327
S'NOUN'
p328
F1.0
s(lp329
g13
atp330
a(S'nie'
p331
(dp332
g83
F1.0
s(lp333
g31
atp334
a(S's\xc3\xba'
p335
(dp336
S'VERB'
p337
F1.0
s(lp338
g24
atp339
a(S'v'
p340
(dp341
g83
F0.00040400000000000006
sS'ADP'
p342
F0.999595
s(lp343
g24
atp344
a(S'rozpore'
p345
(dp346
S'NOUN'
p347
F1.0
s(lp348
tp349
a(S's'
p350
(dp351
g83
F0.000504
sS'CONJ'
p352
F0.000141
sS'NOUN'
p353
F7.000000000000001e-06
sS'ADP'
p354
F0.999237
sS'PRT'
p355
F0.000111
s(lp356
g24
atp357
a(S't\xc3\xbdm'
p358
(dp359
S'PRON'
p360
F0.99995
sS'CONJ'
p361
F5e-05
s(lp362
tp363
a(g160
(dp364
g47
F1.0
s(lp365
tp366
a(S'\xc4\x8do'
p367
(dp368
S'PRON'
p369
F0.442318
sS'CONJ'
p370
F0.527899
sg83
F0.029784
s(lp371
g39
atp372
a(S'som'
p373
(dp374
S'VERB'
p375
F1.0
s(lp376
g81
atp377
a(S'povedal'
p378
(dp379
S'VERB'
p380
F1.0
s(lp381
g45
atp382
a(g47
(dp383
g47
F1.0
s(lp384
g47
atp385
asS'pl'
p386
(lp387
(S'pa\xc5\x84skie'
p388
(dp389
S'ADJ'
p390
F1.0
s(lp391
g7
atp392
a(S's\xc5\x82owa'
p393
(dp394
S'NOUN'
p395
F1.0
s(lp396
g13
atp397
a(S'nie'
p398
(dp399
S'ADV'
p400
F1.6e-05
sS'PRT'
p401
F0.988253
sS'CONJ'
p402
F0.011692
sS'NOUN'
p403
F1e-06
sS'PRON'
p404
F3.7999999999999995e-05
s(lp405
g31
atp406
a(S'przecz\xc4\x85'
p407
(dp408
S'VERB'
p409
F1.0
s(lp410
g24
atp411
a(S'moim'
p412
(dp413
S'ADJ'
p414
F0.9999990000000002
s(lp415
g81
atp416
a(g47
(dp417
g47
F1.0
s(lp418
g47
atp419
asS'sl'
p420
(lp421
(S'va\xc5\xa1e'
p422
(dp423
S'PRON'
p424
F0.999999
s(lp425
g7
atp426
a(S'besede'
p427
(dp428
S'NOUN'
p429
F0.999999
s(lp430
g13
atp431
a(S'niso'
p432
(dp433
S'VERB'
p434
F1.0
s(lp435
g31
atp436
a(g340
(dp437
S'ADP'
p438
F1.0
s(lp439
g24
atp440
a(S'nasprotju'
p441
(dp442
S'NOUN'
p443
F1.0
s(lp444
g24
atp445
a(S'z'
p446
(dp447
S'ADP'
p448
F1.0
s(lp449
tp450
a(S'mojimi'
p451
(dp452
S'ADV'
p453
F0.000294
sS'NOUN'
p454
F0.473955
sS'PRON'
p455
F0.026321
sS'NUM'
p456
F0.01043
sS'ADJ'
p457
F0.4888319999999999
sS'VERB'
p458
F0.00016800000000000004
s(lp459
g24
atp460
a(g47
(dp461
g47
F1.0
s(lp462
g47
atp463
asS'es'
p464
(lp465
(S'sus'
p466
(dp467
S'PRON'
p468
F1.0
s(lp469
g7
atp470
a(S'palabras'
p471
(dp472
S'NOUN'
p473
F1.0
s(lp474
g13
atp475
a(S'no'
p476
(dp477
S'ADV'
p478
F0.999922
sg83
F7.8e-05
s(lp479
g31
atp480
a(S'contradicen'
p481
(dp482
S'VERB'
p483
F1.0
s(lp484
g24
atp485
a(S'lo'
p486
(dp487
S'PRON'
p488
F2.6e-05
sS'DET'
p489
F0.999974
s(lp490
tp491
a(S'que'
p492
(dp493
g83
F7e-06
sS'CONJ'
p494
F0.999993
s(lp495
g39
atp496
a(S'he'
p497
(dp498
S'VERB'
p499
F1.0
s(lp500
g81
atp501
a(S'dicho'
p502
(dp503
S'VERB'
p504
F0.708913
sS'ADJ'
p505
F0.291087
s(lp506
g45
atp507
a(g47
(dp508
g47
F1.0
s(lp509
g47
atp510
as.