(dp0
S'fr'
p1
(lp2
(S'bien'
p3
(dp4
S'ADV'
p5
F0.963506
sS'NOUN'
p6
F0.014485
sS'ADJ'
p7
F0.02201
s(lp8
tp9
a(S'que'
p10
(dp11
S'ADV'
p12
F0.105974
sS'PRON'
p13
F0.106517
sS'CONJ'
p14
F0.787509
s(lp15
S'although'
p16
atp17
a(S"l'"
p18
(dp19
S'NOUN'
p20
F0.045828
sS'VERB'
p21
F0.8859109999999999
sS'ADJ'
p22
F0.068262
s(lp23
tp24
a(S'affectation'
p25
(dp26
S'NOUN'
p27
F1.0
s(lp28
S'earmarking'
p29
atp30
a(S'soit'
p31
(dp32
S'ADV'
p33
F0.02352
sS'CONJ'
p34
F0.610748
sS'VERB'
p35
F0.365732
s(lp36
S'to'
p37
atp38
a(S'tr\xc3\xa8s'
p39
(dp40
S'ADV'
p41
F1.0
s(lp42
S'very'
p43
atp44
a(S'limit\xc3\xa9e'
p45
(dp46
S'VERB'
p47
F1.0
s(lp48
S'limited'
p49
atp50
a(S'-'
p51
(dp52
S'.'
p53
F1.0
s(lp54
g51
atp55
a(S'15'
p56
(dp57
S'X'
p58
F0.108657
sS'NUM'
p59
F0.891343
s(lp60
S'15'
p61
atp62
a(S'%'
p63
(dp64
g58
F1.0
s(lp65
g63
atp66
a(S'des'
p67
(dp68
S'DET'
p69
F0.000244
sS'ADP'
p70
F0.999756
s(lp71
tp72
a(S'co\xc3\xbbts'
p73
(dp74
S'NOUN'
p75
F1.0
s(lp76
S'costs'
p77
atp78
a(S"d'"
p79
(dp80
S'NOUN'
p81
F0.032441
sS'VERB'
p82
F0.694014
sS'ADJ'
p83
F0.273544
s(lp84
S'of'
p85
atp86
a(S'infrastructure'
p87
(dp88
S'NOUN'
p89
F1.0
s(lp90
S'infrastructure'
p91
atp92
a(S'et'
p93
(dp94
S'CONJ'
p95
F1.0
s(lp96
S'and'
p97
atp98
a(S'15'
p99
(dp100
g58
F0.002666
sS'NUM'
p101
F0.997334
s(lp102
S'15'
p103
atp104
a(g63
(dp105
g58
F1.0
s(lp106
g63
atp107
a(S'des'
p108
(dp109
S'DET'
p110
F0.000244
sS'ADP'
p111
F0.999756
s(lp112
S'of'
p113
atp114
a(S'co\xc3\xbbts'
p115
(dp116
S'NOUN'
p117
F1.0
s(lp118
S'costs'
p119
atp120
a(S'externes'
p121
(dp122
S'NOUN'
p123
F0.015298
sS'ADJ'
p124
F0.984702
s(lp125
S'external'
p126
atp127
a(S'doivent'
p128
(dp129
S'VERB'
p130
F1.0
s(lp131
S'must'
p132
atp133
a(S'\xc3\xaatre'
p134
(dp135
S'VERB'
p136
F0.996753
sS'NOUN'
p137
F0.003247
s(lp138
tp139
a(S'affect\xc3\xa9s'
p140
(dp141
S'ADJ'
p142
F0.00994
sS'VERB'
p143
F0.970698
sS'NOUN'
p144
F0.019361
s(lp145
S'go'
p146
atp147
a(S'aux'
p148
(dp149
S'ADP'
p150
F1.0
s(lp151
S'the'
p152
atp153
a(S'r\xc3\xa9seaux'
p154
(dp155
S'NOUN'
p156
F1.0
s(lp157
S'networks'
p158
atp159
a(S'rte-t'
p160
(dp161
S'NOUN'
p162
F0.032441
sS'VERB'
p163
F0.694014
sS'ADJ'
p164
F0.273544
s(lp165
S'ten-t'
p166
atp167
a(g51
(dp168
g53
F1.0
s(lp169
g51
atp170
a(S"c'"
p171
(dp172
S'ADJ'
p173
F0.13429
sS'VERB'
p174
F0.638201
sS'NOUN'
p175
F0.227509
s(lp176
S'it'
p177
atp178
a(S'est'
p179
(dp180
S'VERB'
p181
F0.999314
sS'NOUN'
p182
F0.000686
s(lp183
S'is'
p184
atp185
a(S'trop'
p186
(dp187
S'ADV'
p188
F0.999783
sS'NOUN'
p189
F0.000217
s(lp190
S'too'
p191
atp192
a(S'peu'
p193
(dp194
S'ADV'
p195
F1.0
s(lp196
S'little'
p197
atp198
a(g53
(dp199
g53
F1.0
s(lp200
g53
atp201
asS'en'
p202
(lp203
(g16
(dp204
S'ADP'
p205
F1.0
s(lp206
g16
atp207
a(S'we'
p208
(dp209
S'PRON'
p210
F1.0
s(lp211
g208
atp212
a(S'do'
p213
(dp214
S'VERB'
p215
F1.0
sS'NOUN'
p216
F0.0
s(lp217
g213
atp218
a(S'now'
p219
(dp220
S'ADV'
p221
F0.999999
sS'NOUN'
p222
F0.0
sS'ADP'
p223
F1e-06
s(lp224
g219
atp225
a(S'have'
p226
(dp227
S'VERB'
p228
F1.0
s(lp229
g226
atp230
a(g29
(dp231
S'VERB'
p232
F1.0
s(lp233
g29
atp234
a(g37
(dp235
S'ADV'
p236
F1e-06
sS'PRT'
p237
F0.999996
sS'ADP'
p238
F3e-06
s(lp239
g37
atp240
a(S'a'
p241
(dp242
S'NOUN'
p243
F1e-06
sS'DET'
p244
F0.999999
s(lp245
g241
atp246
a(g43
(dp247
S'ADV'
p248
F0.711794
sS'ADJ'
p249
F0.288206
s(lp250
g43
atp251
a(g49
(dp252
S'NOUN'
p253
F0.00135
sS'VERB'
p254
F0.138293
sS'ADJ'
p255
F0.860357
s(lp256
g49
atp257
a(S'extent'
p258
(dp259
S'NOUN'
p260
F1.0
s(lp261
g258
atp262
a(g51
(dp263
g53
F1.0
s(lp264
g51
atp265
a(g61
(dp266
S'ADV'
p267
F1.7e-05
sg58
F0.002637
sS'NUM'
p268
F0.996536
sS'ADJ'
p269
F0.000672
sS'NOUN'
p270
F0.000138
s(lp271
g61
atp272
a(g63
(dp273
S'NOUN'
p274
F1.0
s(lp275
g63
atp276
a(g85
(dp277
S'ADP'
p278
F1.0
s(lp279
g85
atp280
a(g91
(dp281
S'NOUN'
p282
F1.0
s(lp283
g91
atp284
a(g77
(dp285
S'VERB'
p286
F0.004943
sS'NOUN'
p287
F0.995057
s(lp288
g77
atp289
a(g97
(dp290
S'CONJ'
p291
F0.999997
sS'NOUN'
p292
F3e-06
s(lp293
g97
atp294
a(g103
(dp295
S'ADV'
p296
F9e-06
sS'NOUN'
p297
F0.000114
sS'NUM'
p298
F0.997873
sS'ADJ'
p299
F0.002002
sg58
F3e-06
s(lp300
g103
atp301
a(g63
(dp302
S'NOUN'
p303
F1.0
s(lp304
g63
atp305
a(g113
(dp306
S'ADP'
p307
F1.0
s(lp308
g113
atp309
a(g126
(dp310
S'ADJ'
p311
F1.0
s(lp312
g126
atp313
a(g119
(dp314
S'VERB'
p315
F2e-05
sS'NOUN'
p316
F0.99998
s(lp317
g119
atp318
a(g132
(dp319
S'VERB'
p320
F1.0
sS'NOUN'
p321
F0.0
s(lp322
g132
atp323
a(g146
(dp324
S'ADJ'
p325
F0.0
sS'VERB'
p326
F0.9999990000000001
sS'NOUN'
p327
F1e-06
s(lp328
g146
atp329
a(S'to'
p330
(dp331
S'ADV'
p332
F1e-06
sS'PRT'
p333
F0.999996
sS'ADP'
p334
F3e-06
s(lp335
g330
atp336
a(g152
(dp337
S'NOUN'
p338
F2e-06
sS'DET'
p339
F0.999998
s(lp340
g152
atp341
a(g166
(dp342
S'ADJ'
p343
F0.329399
sS'VERB'
p344
F0.000183
sS'NOUN'
p345
F0.6704169999999999
s(lp346
g166
atp347
a(g158
(dp348
S'VERB'
p349
F0.000643
sS'NOUN'
p350
F0.999357
s(lp351
g158
atp352
a(g51
(dp353
g53
F1.0
s(lp354
g51
atp355
a(g177
(dp356
S'PRON'
p357
F1.0
s(lp358
g177
atp359
a(g184
(dp360
S'VERB'
p361
F1.0
s(lp362
g184
atp363
a(S'really'
p364
(dp365
S'ADV'
p366
F1.0
s(lp367
g364
atp368
a(S'far'
p369
(dp370
S'ADV'
p371
F0.999599
sS'ADJ'
p372
F0.000401
s(lp373
g369
atp374
a(g191
(dp375
S'ADV'
p376
F1.0
s(lp377
g191
atp378
a(g197
(dp379
S'ADV'
p380
F0.300591
sS'ADJ'
p381
F0.699409
s(lp382
g197
atp383
a(g53
(dp384
g53
F1.0
s(lp385
g53
atp386
asS'nl'
p387
(lp388
(S'er'
p389
(dp390
S'ADV'
p391
F1.0
s(lp392
g208
atp393
a(S'ontstaat'
p394
(dp395
S'VERB'
p396
F1.0
s(lp397
tp398
a(S'nu'
p399
(dp400
S'ADV'
p401
F0.967054
sS'CONJ'
p402
F0.032934
sS'NOUN'
p403
F1.2e-05
s(lp404
g219
atp405
a(S'inderdaad'
p406
(dp407
S'ADV'
p408
F1.0
s(lp409
g226
atp410
a(S'een'
p411
(dp412
S'ADJ'
p413
F1.1e-05
sS'PRON'
p414
F2e-05
sS'NUM'
p415
F1e-06
sS'DET'
p416
F0.999968
s(lp417
g241
atp418
a(S'oormerking'
p419
(dp420
S'NOUN'
p421
F1.0
s(lp422
g29
atp423
a(S','
p424
(dp425
g53
F1.0
s(lp426
tp427
a(S'al'
p428
(dp429
S'ADV'
p430
F0.64038
sS'PRON'
p431
F0.111221
sS'CONJ'
p432
F0.2484
s(lp433
tp434
a(S'maar'
p435
(dp436
S'ADV'
p437
F0.093195
sS'CONJ'
p438
F0.90676
sS'NOUN'
p439
F4.5e-05
s(lp440
g16
atp441
a(S'die'
p442
(dp443
S'PRON'
p444
F1.000001
s(lp445
tp446
a(S'is'
p447
(dp448
S'VERB'
p449
F1.0
s(lp450
tp451
a(S'heel'
p452
(dp453
S'ADV'
p454
F0.246001
sS'VERB'
p455
F0.0
sS'ADJ'
p456
F0.753999
s(lp457
g43
atp458
a(S'bescheiden'
p459
(dp460
S'ADJ'
p461
F0.081449
sS'NOUN'
p462
F0.918551
s(lp463
g49
atp464
a(S':'
p465
(dp466
g53
F1.0
s(lp467
g51
atp468
a(S'15'
p469
(dp470
S'NUM'
p471
F1.0
s(lp472
g61
atp473
a(S'procent'
p474
(dp475
S'NOUN'
p476
F1.0
s(lp477
g63
atp478
a(S'van'
p479
(dp480
S'ADP'
p481
F1.0
s(lp482
tp483
a(S'de'
p484
(dp485
S'DET'
p486
F1.0
s(lp487
g152
atp488
a(S'opbrengsten'
p489
(dp490
S'NOUN'
p491
F1.0
s(lp492
g166
atp493
a(S'van'
p494
(dp495
S'ADP'
p496
F1.0
s(lp497
g85
atp498
a(S'de'
p499
(dp500
S'DET'
p501
F1.0
s(lp502
g119
atp503
a(S'infrastructuurheffing'
p504
(dp505
S'NOUN'
p506
F1.0
s(lp507
g166
atp508
a(S'en'
p509
(dp510
S'CONJ'
p511
F1.0
s(lp512
g97
atp513
a(S'van'
p514
(dp515
S'ADP'
p516
F1.0
s(lp517
g113
atp518
a(S'de'
p519
(dp520
S'DET'
p521
F1.0
s(lp522
g126
atp523
a(S'externekostenheffing'
p524
(dp525
S'ADJ'
p526
F0.000812
sS'NOUN'
p527
F0.999188
s(lp528
g166
atp529
a(S'moet'
p530
(dp531
S'VERB'
p532
F1.0
s(lp533
g132
atp534
a(S'worden'
p535
(dp536
S'VERB'
p537
F1.0
sS'NOUN'
p538
F0.0
s(lp539
g146
atp540
a(S'besteed'
p541
(dp542
S'VERB'
p543
F1.0
s(lp544
tp545
a(S'aan'
p546
(dp547
S'ADV'
p548
F0.000472
sS'ADP'
p549
F0.999528
s(lp550
g330
atp551
a(S'ten-t-projecten'
p552
(dp553
S'NOUN'
p554
F1.0
s(lp555
g166
atp556
a(g53
(dp557
g53
F1.0
s(lp558
g51
atp559
a(S'dat'
p560
(dp561
S'PRON'
p562
F0.597317
sS'CONJ'
p563
F0.402683
s(lp564
g177
atp565
a(S'is'
p566
(dp567
S'VERB'
p568
F1.0
s(lp569
g184
atp570
a(S'werkelijk'
p571
(dp572
S'ADV'
p573
F0.147739
sS'ADJ'
p574
F0.852261
s(lp575
g364
atp576
a(S'veel'
p577
(dp578
S'ADV'
p579
F0.983054
sS'NUM'
p580
F0.000126
sS'VERB'
p581
F0.01682
s(lp582
g369
atp583
a(S'te'
p584
(dp585
S'PRT'
p586
F1.0
s(lp587
g191
atp588
a(S'weinig'
p589
(dp590
S'ADV'
p591
F0.000524
sS'NUM'
p592
F0.999476
s(lp593
g197
atp594
a(g53
(dp595
g53
F1.0
s(lp596
g53
atp597
asS'de'
p598
(lp599
(S'wir'
p600
(dp601
S'PRON'
p602
F1.0
s(lp603
g208
atp604
a(S'haben'
p605
(dp606
S'VERB'
p607
F0.999875
s(lp608
g226
atp609
a(S'zwar'
p610
(dp611
S'ADV'
p612
F1.0
s(lp613
g16
atp614
a(S'jetzt'
p615
(dp616
S'ADV'
p617
F1.0
s(lp618
g219
atp619
a(S'tats\xc3\xa4chlich'
p620
(dp621
S'ADV'
p622
F0.295757
sS'ADJ'
p623
F0.704243
s(lp624
g364
atp625
a(S'eine'
p626
(dp627
S'NUM'
p628
F0.001092
sS'DET'
p629
F0.998281
s(lp630
g184
atp631
a(S'zweckbindung'
p632
(dp633
S'ADJ'
p634
F0.000137
sS'NOUN'
p635
F0.999666
s(lp636
g29
atp637
a(S'in'
p638
(dp639
S'ADP'
p640
F1.0
s(lp641
g37
atp642
a(S'einem'
p643
(dp644
S'PRON'
p645
F0.030338
sS'DET'
p646
F0.96879
s(lp647
g241
atp648
a(S'ganz'
p649
(dp650
S'ADV'
p651
F0.803432
sS'ADJ'
p652
F0.196568
s(lp653
g43
atp654
a(S'geringem'
p655
(dp656
S'ADJ'
p657
F1.0
s(lp658
g49
atp659
a(S'ma\xc3\x9fe'
p660
(dp661
S'VERB'
p662
F1.0
s(lp663
g258
atp664
a(g465
(dp665
g53
F1.0
s(lp666
g51
atp667
a(S'15'
p668
(dp669
S'NUM'
p670
F1.0
s(lp671
g61
atp672
a(g63
(dp673
S'NOUN'
p674
F1.0
s(lp675
g63
atp676
a(S'der'
p677
(dp678
S'PRON'
p679
F0.000103
sS'DET'
p680
F0.999865
s(lp681
g85
atp682
a(S'infrastrukturkosten'
p683
(dp684
S'ADJ'
p685
F0.160776
sS'NOUN'
p686
F0.811122
s(lp687
g91
atp688
a(g424
(dp689
g53
F1.0
s(lp690
g97
atp691
a(S'15'
p692
(dp693
S'NUM'
p694
F1.0
s(lp695
g103
atp696
a(g63
(dp697
S'NOUN'
p698
F1.0
s(lp699
g63
atp700
a(S'der'
p701
(dp702
S'PRON'
p703
F8.6e-05
sS'DET'
p704
F0.999906
s(lp705
g113
atp706
a(S'externen'
p707
(dp708
S'ADJ'
p709
F1.0
s(lp710
g126
atp711
a(S'kosten'
p712
(dp713
S'VERB'
p714
F1.0
s(lp715
g119
atp716
a(S'm\xc3\xbcssen'
p717
(dp718
S'VERB'
p719
F0.999976
s(lp720
g132
atp721
a(S'in'
p722
(dp723
S'ADP'
p724
F1.0
s(lp725
g330
atp726
a(S'ten-t-netze'
p727
(dp728
S'ADJ'
p729
F0.00073
sS'NOUN'
p730
F0.999148
s(lp731
g166
atp732
a(S'gehen'
p733
(dp734
S'VERB'
p735
F1.0
s(lp736
g146
atp737
a(g53
(dp738
g53
F1.0
s(lp739
g53
atp740
asS'it'
p741
(lp742
(S'la'
p743
(dp744
S'PRON'
p745
F0.000592
sS'DET'
p746
F0.999408
s(lp747
tp748
a(S'percentuale'
p749
(dp750
S'ADJ'
p751
F0.090294
sS'NOUN'
p752
F0.909706
s(lp753
g16
atp754
a(S'che'
p755
(dp756
S'PRON'
p757
F0.758049
sS'CONJ'
p758
F0.240016
sS'ADJ'
p759
F0.001934
s(lp760
g208
atp761
a(S'ora'
p762
(dp763
S'ADV'
p764
F0.997484
sS'CONJ'
p765
F0.000321
sS'VERB'
p766
F0.00079
sS'NOUN'
p767
F0.001406
s(lp768
g219
atp769
a(S'\xc3\xa8'
p770
(dp771
S'VERB'
p772
F1.0
s(lp773
g226
atp774
a(S'possibile'
p775
(dp776
S'NOUN'
p777
F0.01772
sS'ADJ'
p778
F0.98228
s(lp779
tp780
a(S'destinare'
p781
(dp782
S'VERB'
p783
F1.0
s(lp784
g29
atp785
a(S'alle'
p786
(dp787
S'ADP'
p788
F1.0
s(lp789
g37
atp790
a(S'reti'
p791
(dp792
S'NOUN'
p793
F1.0
s(lp794
g158
atp795
a(S'rte-t'
p796
(dp797
S'NOUN'
p798
F0.315829
sS'VERB'
p799
F0.007843
sS'ADJ'
p800
F0.676329
s(lp801
g166
atp802
a(S'\xc3\xa8'
p803
(dp804
S'VERB'
p805
F1.0
s(lp806
g184
atp807
a(S'molto'
p808
(dp809
S'ADV'
p810
F0.995675
sS'PRON'
p811
F0.000976
sS'VERB'
p812
F0.000734
sS'ADJ'
p813
F0.002615
s(lp814
g43
atp815
a(S'contenuta'
p816
(dp817
S'VERB'
p818
F0.916218
sS'ADJ'
p819
F0.083782
s(lp820
g49
atp821
a(g465
(dp822
g53
F1.0
s(lp823
g51
atp824
a(S'si'
p825
(dp826
S'PRON'
p827
F0.999997
sS'NOUN'
p828
F3e-06
s(lp829
g146
atp830
a(S'tratta'
p831
(dp832
S'VERB'
p833
F0.998868
sS'NOUN'
p834
F0.001133
s(lp835
g132
atp836
a(S'del'
p837
(dp838
S'DEF'
p839
F0.002754
sS'ADP'
p840
F0.997246
s(lp841
g152
atp842
a(S'15'
p843
(dp844
S'NUM'
p845
F0.998522
sg53
F0.001477
s(lp846
g61
atp847
a(S'per'
p848
(dp849
S'CONJ'
p850
F0.017226
sS'ADP'
p851
F0.982774
s(lp852
tp853
a(S'cento'
p854
(dp855
S'NOUN'
p856
F0.014847
sS'NUM'
p857
F0.000217
sS'ADJ'
p858
F0.984937
s(lp859
g63
atp860
a(S'dei'
p861
(dp862
S'NOUN'
p863
F6e-05
sS'DEF'
p864
F0.001968
sS'ADP'
p865
F0.997973
s(lp866
tp867
a(S'costi'
p868
(dp869
S'VERB'
p870
F0.013073999999999999
sS'NOUN'
p871
F0.986926
s(lp872
g77
atp873
a(S"dell'"
p874
(dp875
S'ADJ'
p876
F0.040179
sS'VERB'
p877
F0.0066419999999999995
sS'NOUN'
p878
F0.953179
s(lp879
g85
atp880
a(S'infrastruttura'
p881
(dp882
S'NOUN'
p883
F1.0
s(lp884
g91
atp885
a(S'e'
p886
(dp887
S'CONJ'
p888
F1.0
s(lp889
g97
atp890
a(S'del'
p891
(dp892
S'DEF'
p893
F0.00115
sS'ADP'
p894
F0.99885
s(lp895
g63
atp896
a(S'15'
p897
(dp898
S'NUM'
p899
F0.998569
sg53
F0.001431
s(lp900
g103
atp901
a(S'per'
p902
(dp903
S'CONJ'
p904
F0.017219
sS'ADP'
p905
F0.982781
s(lp906
tp907
a(S'cento'
p908
(dp909
S'NOUN'
p910
F0.015273
sS'NUM'
p911
F0.00022
sS'ADJ'
p912
F0.984507
s(lp913
g63
atp914
a(S'di'
p915
(dp916
S'CONJ'
p917
F2.6e-05
sS'ADP'
p918
F0.999974
s(lp919
g113
atp920
a(S'quelli'
p921
(dp922
S'PRON'
p923
F1.0
s(lp924
g119
atp925
a(S'esterni'
p926
(dp927
S'NOUN'
p928
F0.395766
sS'VERB'
p929
F0.00457
sS'ADJ'
p930
F0.599665
s(lp931
g126
atp932
a(g424
(dp933
g53
F1.0
s(lp934
tp935
a(S'davvero'
p936
(dp937
S'ADV'
p938
F1.0
s(lp939
g364
atp940
a(S'troppo'
p941
(dp942
S'ADV'
p943
F0.918222
sS'PRON'
p944
F0.009408
sS'ADJ'
p945
F0.072005
sS'NOUN'
p946
F0.000365
s(lp947
g191
atp948
a(S'poco'
p949
(dp950
S'ADV'
p951
F0.332776
sS'PRON'
p952
F0.029537
sS'ADJ'
p953
F0.634652
sS'NOUN'
p954
F0.003035
s(lp955
g197
atp956
a(g53
(dp957
g53
F1.0
s(lp958
g53
atp959
asS'sk'
p960
(lp961
(S'hoci'
p962
(dp963
g58
F0.201759
sS'CONJ'
p964
F0.798241
s(lp965
g16
atp966
a(S'teraz'
p967
(dp968
S'ADV'
p969
F1.0
s(lp970
g219
atp971
a(S'm\xc3\xa1me'
p972
(dp973
S'ADV'
p974
F0.001557
sg58
F1.2e-05
sS'VERB'
p975
F0.998431
s(lp976
g226
atp977
a(S'vy\xc4\x8dle\xc5\x88ovanie'
p978
(dp979
S'VERB'
p980
F0.001453
sS'NOUN'
p981
F0.998547
s(lp982
tp983
a(S'pr\xc3\xadjmov'
p984
(dp985
S'NOUN'
p986
F1.0
s(lp987
g29
atp988
a(S'vo'
p989
(dp990
S'ADP'
p991
F1.0
s(lp992
g241
atp993
a(S've\xc4\xbemi'
p994
(dp995
S'ADV'
p996
F1.0
s(lp997
g43
atp998
a(S'obmedzenej'
p999
(dp1000
S'VERB'
p1001
F1.0
s(lp1002
g49
atp1003
a(S'miere'
p1004
(dp1005
S'NOUN'
p1006
F1.0
s(lp1007
g258
atp1008
a(g51
(dp1009
g53
F1.0
s(lp1010
g51
atp1011
a(S'15'
p1012
(dp1013
S'NUM'
p1014
F1.0
s(lp1015
g61
atp1016
a(g63
(dp1017
g58
F0.949247
sg53
F0.050753
s(lp1018
g63
atp1019
a(S'n\xc3\xa1kladov'
p1020
(dp1021
S'NOUN'
p1022
F1.0
s(lp1023
g77
atp1024
a(S'na'
p1025
(dp1026
g58
F2.2e-05
sS'CONJ'
p1027
F1.8e-05
sS'ADP'
p1028
F0.999956
sS'PRT'
p1029
F4e-06
s(lp1030
g85
atp1031
a(S'infra\xc5\xa1trukt\xc3\xbaru'
p1032
(dp1033
S'NOUN'
p1034
F1.0
s(lp1035
g91
atp1036
a(g241
(dp1037
g58
F0.054582000000000006
sS'CONJ'
p1038
F0.941582
sS'NOUN'
p1039
F0.001803
sS'ADP'
p1040
F0.001873
sS'PRT'
p1041
F0.00016
s(lp1042
g97
atp1043
a(S'15'
p1044
(dp1045
S'NUM'
p1046
F1.0
s(lp1047
g103
atp1048
a(g63
(dp1049
g58
F0.908013
sg53
F0.091987
s(lp1050
g63
atp1051
a(S'extern\xc3\xbdch'
p1052
(dp1053
S'ADJ'
p1054
F1.0
s(lp1055
g126
atp1056
a(S'n\xc3\xa1kladov'
p1057
(dp1058
S'NOUN'
p1059
F1.0
s(lp1060
g119
atp1061
a(S'mus\xc3\xad'
p1062
(dp1063
S'VERB'
p1064
F1.0
s(lp1065
g132
atp1066
a(S'\xc3\xads\xc5\xa5'
p1067
(dp1068
S'VERB'
p1069
F1.0
s(lp1070
g146
atp1071
a(S'na'
p1072
(dp1073
g58
F6.2e-05
sS'CONJ'
p1074
F7e-06
sS'ADP'
p1075
F0.999928
sS'PRT'
p1076
F3e-06
s(lp1077
g330
atp1078
a(S'siete'
p1079
(dp1080
S'NOUN'
p1081
F1.0
s(lp1082
g158
atp1083
a(S'ten-t'
p1084
(dp1085
S'ADJ'
p1086
F0.000459
sg58
F0.029286
sS'VERB'
p1087
F0.006632999999999999
sS'NOUN'
p1088
F0.963623
s(lp1089
g166
atp1090
a(g51
(dp1091
g53
F1.0
s(lp1092
g51
atp1093
a(g424
(dp1094
g53
F1.0
s(lp1095
tp1096
a(S'je'
p1097
(dp1098
S'PRON'
p1099
F8.8e-05
sS'VERB'
p1100
F0.999853
sg58
F5.9000000000000004e-05
s(lp1101
g184
atp1102
a(S'to'
p1103
(dp1104
S'PRON'
p1105
F0.9602149999999999
sS'CONJ'
p1106
F0.00419
sg58
F0.035595
s(lp1107
g177
atp1108
a(S'naozaj'
p1109
(dp1110
g58
F1.0
s(lp1111
g364
atp1112
a(S'pr\xc3\xadli\xc5\xa1'
p1113
(dp1114
S'ADV'
p1115
F1.0
s(lp1116
g191
atp1117
a(S'm\xc3\xa1lo'
p1118
(dp1119
S'ADV'
p1120
F0.619516
sS'NUM'
p1121
F0.376874
sS'NOUN'
p1122
F0.00361
s(lp1123
g197
atp1124
a(g53
(dp1125
g53
F1.0
s(lp1126
g53
atp1127
asS'pl'
p1128
(lp1129
(S'chocia\xc5\xbc'
p1130
(dp1131
S'PRT'
p1132
F0.13672
sS'CONJ'
p1133
F0.86328
s(lp1134
g16
atp1135
a(S'teraz'
p1136
(dp1137
S'ADV'
p1138
F1.0
s(lp1139
g219
atp1140
a(g424
(dp1141
g58
F0.0
sg53
F1.0
s(lp1142
tp1143
a(S'w'
p1144
(dp1145
S'ADJ'
p1146
F4e-06
sg58
F0.000351
sS'NOUN'
p1147
F0.000178
sS'ADP'
p1148
F0.9994679999999999
s(lp1149
g241
atp1150
a(S'bardzo'
p1151
(dp1152
S'ADV'
p1153
F1.0
s(lp1154
g43
atp1155
a(S'ograniczonym'
p1156
(dp1157
S'ADJ'
p1158
F1.0
s(lp1159
g49
atp1160
a(S'zakresie'
p1161
(dp1162
S'NOUN'
p1163
F1.0
s(lp1164
g258
atp1165
a(S'przychody'
p1166
(dp1167
S'NOUN'
p1168
F1.0
s(lp1169
g29
atp1170
a(S's\xc4\x85'
p1171
(dp1172
S'VERB'
p1173
F1.0
s(lp1174
g146
atp1175
a(S'przypisywane'
p1176
(dp1177
S'VERB'
p1178
F1.0
s(lp1179
tp1180
a(S'do'
p1181
(dp1182
g58
F0.0
sS'NOUN'
p1183
F6e-06
sS'ADP'
p1184
F0.999994
s(lp1185
g37
atp1186
a(S'cel\xc3\xb3w'
p1187
(dp1188
S'NOUN'
p1189
F1.0
s(lp1190
g29
atp1191
a(g51
(dp1192
g58
F3.7e-05
sS'NUM'
p1193
F0.0
sS'NOUN'
p1194
F4.8e-05
sg53
F0.999915
s(lp1195
g51
atp1196
a(S'na'
p1197
(dp1198
g58
F0.000199
sS'VERB'
p1199
F5.2e-05
sS'NOUN'
p1200
F4e-05
sS'ADP'
p1201
F0.999678
sS'PRT'
p1202
F3.2e-05
s(lp1203
g330
atp1204
a(S'potrzeby'
p1205
(dp1206
S'NOUN'
p1207
F1.0
s(lp1208
g166
atp1209
a(S'sieci'
p1210
(dp1211
S'NOUN'
p1212
F1.0
s(lp1213
g158
atp1214
a(S'ten-t'
p1215
(dp1216
S'ADV'
p1217
F0.001624
sS'ADJ'
p1218
F0.012773999999999999
sS'VERB'
p1219
F0.013397
sS'NOUN'
p1220
F0.972203
s(lp1221
tp1222
a(S'trzeba'
p1223
(dp1224
S'ADJ'
p1225
F1.0
s(lp1226
g132
atp1227
a(S'przekazywa\xc4\x87'
p1228
(dp1229
S'VERB'
p1230
F1.0
s(lp1231
g166
atp1232
a(S'15'
p1233
(dp1234
S'NOUN'
p1235
F1.7e-05
sS'NUM'
p1236
F0.9927819999999998
sS'ADJ'
p1237
F0.007200000000000001
s(lp1238
g61
atp1239
a(g63
(dp1240
S'NOUN'
p1241
F1.0000010000000001
s(lp1242
g63
atp1243
a(S'koszt\xc3\xb3w'
p1244
(dp1245
S'NOUN'
p1246
F1.0
s(lp1247
g77
atp1248
a(S'infrastruktury'
p1249
(dp1250
S'NOUN'
p1251
F1.0
s(lp1252
g91
atp1253
a(S'i'
p1254
(dp1255
S'PRT'
p1256
F0.013559
sS'CONJ'
p1257
F0.986369
sS'NOUN'
p1258
F8e-06
sg58
F2e-05
sS'PRON'
p1259
F4.4999999999999996e-05
s(lp1260
g97
atp1261
a(S'15'
p1262
(dp1263
S'NOUN'
p1264
F3.4e-05
sS'NUM'
p1265
F0.9907590000000003
sS'ADJ'
p1266
F0.009205000000000001
s(lp1267
g103
atp1268
a(g63
(dp1269
S'NOUN'
p1270
F0.9999999999999999
s(lp1271
g63
atp1272
a(S'koszt\xc3\xb3w'
p1273
(dp1274
S'NOUN'
p1275
F1.0
s(lp1276
g119
atp1277
a(S'zewn\xc4\x99trznych'
p1278
(dp1279
S'ADJ'
p1280
F0.9999999999999999
s(lp1281
g126
atp1282
a(g51
(dp1283
g58
F0.000526
sS'NUM'
p1284
F0.000414
sS'NOUN'
p1285
F7.6e-05
sg53
F0.998984
s(lp1286
g51
atp1287
a(S'jest'
p1288
(dp1289
S'VERB'
p1290
F1.0
s(lp1291
g184
atp1292
a(S'to'
p1293
(dp1294
S'NOUN'
p1295
F0.345244
sS'ADP'
p1296
F6e-06
sS'PRT'
p1297
F0.264276
sg58
F1e-06
sS'CONJ'
p1298
F0.041772
sS'ADJ'
p1299
F0.34870100000000004
s(lp1300
g177
atp1301
a(S'naprawd\xc4\x99'
p1302
(dp1303
S'ADV'
p1304
F0.009744
sS'PRT'
p1305
F0.990256
s(lp1306
g364
atp1307
a(S'o'
p1308
(dp1309
g58
F0.019898
sS'VERB'
p1310
F0.002415
sS'NOUN'
p1311
F0.00011999999999999999
sS'ADP'
p1312
F0.976997
sS'PRT'
p1313
F0.00057
s(lp1314
tp1315
a(S'wiele'
p1316
(dp1317
S'ADV'
p1318
F0.22082
sS'NUM'
p1319
F0.779179
s(lp1320
g369
atp1321
a(S'za'
p1322
(dp1323
S'PRT'
p1324
F0.226459
sS'VERB'
p1325
F0.0007439999999999999
sS'NOUN'
p1326
F0.00013
sS'ADP'
p1327
F0.772655
sg58
F1.3e-05
s(lp1328
g191
atp1329
a(S'ma\xc5\x82o'
p1330
(dp1331
S'ADV'
p1332
F0.583471
sS'NUM'
p1333
F0.41652799999999995
s(lp1334
g197
atp1335
a(g53
(dp1336
g53
F1.0
s(lp1337
g53
atp1338
asS'sl'
p1339
(lp1340
(S'\xc4\x8ceprav'
p1341
(dp1342
S'CONJ'
p1343
F1.0
s(lp1344
g16
atp1345
a(S'imamo'
p1346
(dp1347
S'VERB'
p1348
F1.0
s(lp1349
g208
atp1350
a(S'zdaj'
p1351
(dp1352
S'ADV'
p1353
F1.0
s(lp1354
g219
atp1355
a(S'namenjanje'
p1356
(dp1357
S'ADV'
p1358
F0.030578
sS'ADJ'
p1359
F0.002299
sS'VERB'
p1360
F0.006781000000000001
sS'NOUN'
p1361
F0.9603430000000001
s(lp1362
tp1363
a(S'sredstev'
p1364
(dp1365
S'NOUN'
p1366
F1.0
s(lp1367
g29
atp1368
a(S'v'
p1369
(dp1370
S'ADP'
p1371
F1.0
s(lp1372
g37
atp1373
a(S'zelo'
p1374
(dp1375
S'ADV'
p1376
F1.0
s(lp1377
g43
atp1378
a(S'omejenem'
p1379
(dp1380
S'ADJ'
p1381
F1.0
s(lp1382
g49
atp1383
a(S'obsegu'
p1384
(dp1385
S'NOUN'
p1386
F1.0
s(lp1387
g258
atp1388
a(g51
(dp1389
g53
F1.0
s(lp1390
g51
atp1391
a(S'15'
p1392
(dp1393
S'NUM'
p1394
F1.0
s(lp1395
g61
atp1396
a(g63
(dp1397
g53
F1.0
s(lp1398
g63
atp1399
a(S'infrastrukturnih'
p1400
(dp1401
S'ADJ'
p1402
F1.0
s(lp1403
g91
atp1404
a(S'stro\xc5\xa1kov'
p1405
(dp1406
S'NOUN'
p1407
F1.0
s(lp1408
g77
atp1409
a(S'in'
p1410
(dp1411
S'ADV'
p1412
F0.000132
sg58
F3.1e-05
sS'CONJ'
p1413
F0.999798
sS'NOUN'
p1414
F3.9e-05
s(lp1415
g97
atp1416
a(S'15'
p1417
(dp1418
S'NUM'
p1419
F1.0
s(lp1420
g103
atp1421
a(g63
(dp1422
g53
F1.0
s(lp1423
g63
atp1424
a(S'zunanjih'
p1425
(dp1426
S'ADJ'
p1427
F1.0
s(lp1428
g126
atp1429
a(S'stro\xc5\xa1kov'
p1430
(dp1431
S'NOUN'
p1432
F1.0
s(lp1433
g119
atp1434
a(S'je'
p1435
(dp1436
S'PRON'
p1437
F6.2e-05
sS'VERB'
p1438
F0.9999359999999999
sg58
F3e-06
s(lp1439
g132
atp1440
a(S'treba'
p1441
(dp1442
S'ADV'
p1443
F1.0
s(lp1444
tp1445
a(S'nameniti'
p1446
(dp1447
S'VERB'
p1448
F1.0
s(lp1449
g146
atp1450
a(S'omre\xc5\xbejem'
p1451
(dp1452
S'NOUN'
p1453
F1.0
s(lp1454
g158
atp1455
a(S'ten-t'
p1456
(dp1457
S'ADV'
p1458
F0.026774
sS'NOUN'
p1459
F0.9477450000000001
sS'VERB'
p1460
F0.012429
sg58
F0.004948
sS'NUM'
p1461
F0.001149
sS'ADJ'
p1462
F0.0069559999999999995
s(lp1463
g166
atp1464
a(g51
(dp1465
g53
F1.0
s(lp1466
g51
atp1467
a(g424
(dp1468
g53
F1.0
s(lp1469
tp1470
a(S'je'
p1471
(dp1472
S'PRON'
p1473
F0.001032
sS'VERB'
p1474
F0.998964
sg58
F4e-06
s(lp1475
g184
atp1476
a(S'to'
p1477
(dp1478
S'PRON'
p1479
F0.999993
sg58
F7e-06
s(lp1480
g177
atp1481
a(S'resni\xc4\x8dno'
p1482
(dp1483
S'ADV'
p1484
F0.96582
sS'ADJ'
p1485
F0.034179999999999995
s(lp1486
g364
atp1487
a(S'premalo'
p1488
(dp1489
S'ADV'
p1490
F1.0
s(lp1491
g197
atp1492
a(g53
(dp1493
g53
F1.0
s(lp1494
g53
atp1495
asS'es'
p1496
(lp1497
(S'si'
p1498
(dp1499
S'CONJ'
p1500
F1.0
s(lp1501
tp1502
a(S'bien'
p1503
(dp1504
S'CONJ'
p1505
F1.0
s(lp1506
g16
atp1507
a(S'actualmente'
p1508
(dp1509
S'ADV'
p1510
F1.0
s(lp1511
g219
atp1512
a(S'contamos'
p1513
(dp1514
S'VERB'
p1515
F1.0
s(lp1516
g226
atp1517
a(S'con'
p1518
(dp1519
S'ADP'
p1520
F1.0
s(lp1521
g37
atp1522
a(S'una'
p1523
(dp1524
S'DET'
p1525
F1.0
s(lp1526
g241
atp1527
a(S'asignaci\xc3\xb3n'
p1528
(dp1529
S'NOUN'
p1530
F1.0
s(lp1531
tp1532
a(S'muy'
p1533
(dp1534
S'ADV'
p1535
F1.0
s(lp1536
g43
atp1537
a(S'limitada'
p1538
(dp1539
S'VERB'
p1540
F0.910791
sS'ADJ'
p1541
F0.089209
s(lp1542
g49
atp1543
a(S'-un'
p1544
(dp1545
S'ADV'
p1546
F0.631168
sS'ADJ'
p1547
F0.039912
sS'VERB'
p1548
F0.008629000000000001
sS'NOUN'
p1549
F0.320292
s(lp1550
g51
atp1551
a(S'15'
p1552
(dp1553
g58
F2.8e-05
sS'NUM'
p1554
F0.999972
s(lp1555
g61
atp1556
a(g63
(dp1557
g53
F1.0
s(lp1558
g63
atp1559
a(S'de'
p1560
(dp1561
g58
F0.0
sS'CONJ'
p1562
F2e-06
sS'ADP'
p1563
F0.999998
s(lp1564
tp1565
a(S'los'
p1566
(dp1567
S'PRON'
p1568
F0.0
sS'DET'
p1569
F1.0
s(lp1570
tp1571
a(S'costes'
p1572
(dp1573
S'NOUN'
p1574
F1.0
s(lp1575
g77
atp1576
a(S'de'
p1577
(dp1578
g58
F2.9e-05
sS'CONJ'
p1579
F0.000449
sS'ADP'
p1580
F0.999522
s(lp1581
g85
atp1582
a(S'infraestructura'
p1583
(dp1584
S'NOUN'
p1585
F1.0
s(lp1586
g91
atp1587
a(S'y'
p1588
(dp1589
g58
F0.000399
sS'CONJ'
p1590
F0.999601
s(lp1591
g97
atp1592
a(S'un'
p1593
(dp1594
g58
F0.000216
sS'DET'
p1595
F0.999784
s(lp1596
tp1597
a(S'15'
p1598
(dp1599
g58
F6e-06
sS'NUM'
p1600
F0.999994
s(lp1601
g103
atp1602
a(g63
(dp1603
g53
F1.0
s(lp1604
g63
atp1605
a(S'de'
p1606
(dp1607
g58
F0.0
sS'CONJ'
p1608
F2e-06
sS'ADP'
p1609
F0.999998
s(lp1610
g113
atp1611
a(S'los'
p1612
(dp1613
S'PRON'
p1614
F0.0
sS'DET'
p1615
F1.0
s(lp1616
tp1617
a(S'costes'
p1618
(dp1619
S'NOUN'
p1620
F1.0
s(lp1621
g119
atp1622
a(S'externos'
p1623
(dp1624
S'ADJ'
p1625
F1.0
s(lp1626
g126
atp1627
a(S'deben'
p1628
(dp1629
S'VERB'
p1630
F1.0
s(lp1631
g132
atp1632
a(S'destinarse'
p1633
(dp1634
S'VERB'
p1635
F1.0
s(lp1636
g146
atp1637
a(g241
(dp1638
g58
F4e-06
sS'CONJ'
p1639
F4e-06
sS'ADP'
p1640
F0.999992
s(lp1641
g330
atp1642
a(S'la'
p1643
(dp1644
S'NOUN'
p1645
F0.0
sS'PRON'
p1646
F0.0
sS'DET'
p1647
F0.999999
sg58
F0.0
s(lp1648
g152
atp1649
a(S'red'
p1650
(dp1651
S'NOUN'
p1652
F1.0
s(lp1653
g166
atp1654
a(S'transeuropea'
p1655
(dp1656
S'VERB'
p1657
F0.093842
sS'ADJ'
p1658
F0.906158
s(lp1659
g166
atp1660
a(S'de'
p1661
(dp1662
g58
F2.9e-05
sS'CONJ'
p1663
F0.001409
sS'ADP'
p1664
F0.998561
s(lp1665
g158
atp1666
a(S'transporte'
p1667
(dp1668
S'VERB'
p1669
F7e-06
sS'NOUN'
p1670
F0.999993
s(lp1671
g166
atp1672
a(S'('
p1673
(dp1674
g53
F1.0
s(lp1675
g166
atp1676
a(S'rte-t'
p1677
(dp1678
S'ADJ'
p1679
F0.023922
sS'NOUN'
p1680
F0.976078
s(lp1681
tp1682
a(S')'
p1683
(dp1684
g53
F1.0
s(lp1685
g166
atp1686
a(g51
(dp1687
g53
F1.0
s(lp1688
g51
atp1689
a(g424
(dp1690
g53
F1.0
s(lp1691
tp1692
a(S'en'
p1693
(dp1694
S'ADV'
p1695
F1.0
s(lp1696
g177
atp1697
a(S'realidad'
p1698
(dp1699
S'ADV'
p1700
F1.0
s(lp1701
g364
atp1702
a(S'es'
p1703
(dp1704
S'VERB'
p1705
F1.0
s(lp1706
g184
atp1707
a(S'una'
p1708
(dp1709
S'DET'
p1710
F1.0
s(lp1711
tp1712
a(S'asignaci\xc3\xb3n'
p1713
(dp1714
S'NOUN'
p1715
F1.0
s(lp1716
g29
atp1717
a(S'demasiado'
p1718
(dp1719
S'ADV'
p1720
F0.903364
sS'ADJ'
p1721
F0.096636
s(lp1722
g191
atp1723
a(S'escasa'
p1724
(dp1725
S'ADJ'
p1726
F1.0
s(lp1727
g197
atp1728
a(g53
(dp1729
g53
F1.0
s(lp1730
g53
atp1731
as.