(dp0
S'fr'
p1
(lp2
(S'plus'
p3
(dp4
S'ADV'
p5
F0.999899
sS'VERB'
p6
F0.000101
s(lp7
S'more'
p8
atp9
a(S'g\xc3\xa9n\xc3\xa9ralement'
p10
(dp11
S'ADV'
p12
F1.0
s(lp13
S'generally'
p14
atp15
a(S','
p16
(dp17
S'.'
p18
F1.0
s(lp19
g16
atp20
a(S'il'
p21
(dp22
S'PRON'
p23
F1.0
s(lp24
S'there'
p25
atp26
a(S'semblerait'
p27
(dp28
S'VERB'
p29
F1.0
s(lp30
S'seems'
p31
atp32
a(S"qu'"
p33
(dp34
S'NOUN'
p35
F0.043787
sS'VERB'
p36
F0.7697689999999999
sS'ADJ'
p37
F0.186444
s(lp38
S'to'
p39
atp40
a(S'il'
p41
(dp42
S'PRON'
p43
F1.0
s(lp44
tp45
a(S'y'
p46
(dp47
S'PRON'
p48
F1.0
s(lp49
g25
atp50
a(S'ait'
p51
(dp52
S'VERB'
p53
F1.0
s(lp54
S'be'
p55
atp56
a(S'un'
p57
(dp58
S'NOUN'
p59
F4.8e-05
sS'NUM'
p60
F0.004554
sS'DET'
p61
F0.995399
s(lp62
tp63
a(S'chevauchement'
p64
(dp65
S'NOUN'
p66
F1.0
s(lp67
S'overlap'
p68
atp69
a(S'consid\xc3\xa9rable'
p70
(dp71
S'ADJ'
p72
F1.0
s(lp73
S'considerable'
p74
atp75
a(S'entre'
p76
(dp77
S'VERB'
p78
F0.00030599999999999996
sS'ADP'
p79
F0.999693
s(lp80
S'between'
p81
atp82
a(S'les'
p83
(dp84
S'PRON'
p85
F5.6e-05
sS'DET'
p86
F0.999943
sS'ADP'
p87
F2e-06
s(lp88
tp89
a(S'rapports'
p90
(dp91
S'NOUN'
p92
F1.0
s(lp93
S'reports'
p94
atp95
a(S'en'
p96
(dp97
S'PRON'
p98
F0.000406
sS'ADP'
p99
F0.999594
s(lp100
S'on'
p101
atp102
a(S'mati\xc3\xa8re'
p103
(dp104
S'NOUN'
p105
F1.0
s(lp106
S'matters'
p107
atp108
a(S"d'"
p109
(dp110
S'NOUN'
p111
F0.032441
sS'VERB'
p112
F0.694014
sS'ADJ'
p113
F0.273544
s(lp114
tp115
a(S'emploi'
p116
(dp117
S'NOUN'
p118
F1.0
s(lp119
S'employment'
p120
atp121
a(S'produits'
p122
(dp123
S'VERB'
p124
F0.940737
sS'NOUN'
p125
F0.059263
s(lp126
S'produced'
p127
atp128
a(S'sur'
p129
(dp130
S'ADP'
p131
F1.0
s(lp132
S'on'
p133
atp134
a(S'ces'
p135
(dp136
S'PRON'
p137
F1.0
s(lp138
S'these'
p139
atp140
a(S'agences'
p141
(dp142
S'VERB'
p143
F0.061333
sS'NOUN'
p144
F0.938667
s(lp145
S'agencies'
p146
atp147
a(S'par'
p148
(dp149
S'NOUN'
p150
F0.0
sS'ADP'
p151
F1.0
s(lp152
S'by'
p153
atp154
a(S'la'
p155
(dp156
S'PRON'
p157
F1.2e-05
sS'DET'
p158
F0.999988
sS'NOUN'
p159
F0.0
s(lp160
S'the'
p161
atp162
a(S'commission'
p163
(dp164
S'NOUN'
p165
F1.0
s(lp166
S'commission'
p167
atp168
a(S'et'
p169
(dp170
S'CONJ'
p171
F1.0
s(lp172
S'and'
p173
atp174
a(S'par'
p175
(dp176
S'NOUN'
p177
F0.0
sS'ADP'
p178
F1.0
s(lp179
S'by'
p180
atp181
a(S'le'
p182
(dp183
S'PRON'
p184
F6.2e-05
sS'DET'
p185
F0.999938
s(lp186
S'the'
p187
atp188
a(S'd\xc3\xa9partement'
p189
(dp190
S'NOUN'
p191
F1.0
s(lp192
tp193
a(S'th\xc3\xa9matique'
p194
(dp195
S'NOUN'
p196
F0.018164
sS'ADJ'
p197
F0.981836
s(lp198
S'department'
p199
atp200
a(S'du'
p201
(dp202
S'ADP'
p203
F1.0
s(lp204
S'of'
p205
atp206
a(S'parlement'
p207
(dp208
S'NOUN'
p209
F1.0
s(lp210
S'parliament'
p211
atp212
a(S'europ\xc3\xa9en'
p213
(dp214
S'NOUN'
p215
F0.005274
sS'ADJ'
p216
F0.994726
s(lp217
S'european'
p218
atp219
a(g18
(dp220
g18
F1.0
s(lp221
g18
atp222
asS'en'
p223
(lp224
(g8
(dp225
S'ADV'
p226
F0.978365
sS'ADJ'
p227
F0.021635
s(lp228
g8
atp229
a(g14
(dp230
S'ADV'
p231
F1.0
s(lp232
g14
atp233
a(g16
(dp234
g18
F1.0
s(lp235
g16
atp236
a(g25
(dp237
S'ADV'
p238
F0.034451
sS'ADJ'
p239
F0.0
sS'DET'
p240
F0.965548
sS'ADP'
p241
F1e-06
s(lp242
g25
atp243
a(g31
(dp244
S'VERB'
p245
F1.0
s(lp246
g31
atp247
a(g39
(dp248
S'ADV'
p249
F0.0
sS'PRT'
p250
F1.0
s(lp251
g39
atp252
a(g55
(dp253
S'VERB'
p254
F1.0
s(lp255
g55
atp256
a(g74
(dp257
S'ADJ'
p258
F1.0
s(lp259
g74
atp260
a(g68
(dp261
S'VERB'
p262
F1.0
s(lp263
g68
atp264
a(g81
(dp265
S'ADV'
p266
F0.001089
sS'ADP'
p267
F0.998911
s(lp268
g81
atp269
a(g94
(dp270
S'VERB'
p271
F0.00194
sS'NOUN'
p272
F0.99806
s(lp273
g94
atp274
a(g101
(dp275
S'ADV'
p276
F0.000407
sS'PRT'
p277
F0.000331
sS'ADJ'
p278
F5e-06
sS'ADP'
p279
F0.999256
sS'NOUN'
p280
F0.0
s(lp281
g101
atp282
a(g120
(dp283
S'NOUN'
p284
F1.0
s(lp285
g120
atp286
a(g107
(dp287
S'VERB'
p288
F0.038661
sS'NOUN'
p289
F0.961339
s(lp290
g107
atp291
a(g127
(dp292
S'VERB'
p293
F1.0
s(lp294
g127
atp295
a(g133
(dp296
S'ADV'
p297
F0.001739
sS'PRT'
p298
F0.009985
sS'ADJ'
p299
F0.0
sS'NOUN'
p300
F0.0
sS'ADP'
p301
F0.988276
s(lp302
g133
atp303
a(g139
(dp304
S'NOUN'
p305
F2e-06
sS'DET'
p306
F0.999998
s(lp307
g139
atp308
a(g146
(dp309
S'NOUN'
p310
F1.0
s(lp311
g146
atp312
a(g153
(dp313
S'ADV'
p314
F0.000112
sS'NOUN'
p315
F0.0
sS'ADP'
p316
F0.999888
s(lp317
g153
atp318
a(g161
(dp319
S'NOUN'
p320
F1e-06
sS'DET'
p321
F0.999999
s(lp322
g161
atp323
a(g167
(dp324
S'VERB'
p325
F4.9999999999999996e-06
sS'NOUN'
p326
F0.999995
s(lp327
g167
atp328
a(g173
(dp329
S'CONJ'
p330
F0.999998
sS'NOUN'
p331
F2e-06
s(lp332
g173
atp333
a(g180
(dp334
S'ADV'
p335
F0.000759
sS'NOUN'
p336
F0.0
sS'ADP'
p337
F0.999241
s(lp338
g180
atp339
a(g187
(dp340
S'NOUN'
p341
F1e-06
sS'DET'
p342
F0.999999
s(lp343
g187
atp344
a(S'policy'
p345
(dp346
S'NOUN'
p347
F1.0
s(lp348
g345
atp349
a(g199
(dp350
S'NOUN'
p351
F1.0
s(lp352
g199
atp353
a(g205
(dp354
S'ADP'
p355
F1.0
s(lp356
g205
atp357
a(S'the'
p358
(dp359
S'NOUN'
p360
F1e-06
sS'DET'
p361
F0.999999
s(lp362
g358
atp363
a(g218
(dp364
S'NOUN'
p365
F0.10881199999999999
sS'VERB'
p366
F1.1e-05
sS'ADJ'
p367
F0.891178
s(lp368
g218
atp369
a(g211
(dp370
S'NOUN'
p371
F1.0
s(lp372
g211
atp373
a(g18
(dp374
g18
F1.0
s(lp375
g18
atp376
asS'nl'
p377
(lp378
(S'meer'
p379
(dp380
S'ADV'
p381
F0.993987
sS'NUM'
p382
F0.005961
sS'NOUN'
p383
F2.4e-05
sS'VERB'
p384
F2.7e-05
s(lp385
g8
atp386
a(S'in'
p387
(dp388
S'ADV'
p389
F0.144585
sS'VERB'
p390
F4e-06
sS'ADP'
p391
F0.855411
s(lp392
g14
atp393
a(S'algemene'
p394
(dp395
S'NOUN'
p396
F2.9e-05
sS'ADJ'
p397
F0.999971
s(lp398
tp399
a(S'zin'
p400
(dp401
S'VERB'
p402
F0.0
sS'NOUN'
p403
F1.0
s(lp404
g14
atp405
a(S'schijnt'
p406
(dp407
S'VERB'
p408
F1.0
s(lp409
g31
atp410
a(S'er'
p411
(dp412
S'ADV'
p413
F1.0
s(lp414
g25
atp415
a(S'een'
p416
(dp417
S'ADJ'
p418
F1e-06
sS'PRON'
p419
F0.000168
sS'NUM'
p420
F0.0
sS'DET'
p421
F0.999831
s(lp422
tp423
a(S'aanzienlijke'
p424
(dp425
S'NOUN'
p426
F0.002503
sS'ADJ'
p427
F0.997497
s(lp428
g74
atp429
a(S'overlap'
p430
(dp431
S'VERB'
p432
F0.034704
sS'NOUN'
p433
F0.965296
s(lp434
tp435
a(S'te'
p436
(dp437
S'PRT'
p438
F1.0
s(lp439
g39
atp440
a(S'bestaan'
p441
(dp442
S'VERB'
p443
F0.9999929999999999
sS'NOUN'
p444
F7e-06
s(lp445
g55
atp446
a(S'tussen'
p447
(dp448
S'ADP'
p449
F1.0
s(lp450
g81
atp451
a(S'de'
p452
(dp453
S'DET'
p454
F1.0
s(lp455
tp456
a(S'verslagen'
p457
(dp458
S'ADJ'
p459
F0.000282
sS'VERB'
p460
F0.003814
sS'NOUN'
p461
F0.995903
s(lp462
g94
atp463
a(S'over'
p464
(dp465
S'ADV'
p466
F0.028597
sS'ADP'
p467
F0.971403
s(lp468
g101
atp469
a(S'werkgelegenheidkwesties'
p470
(dp471
S'NOUN'
p472
F1.0
s(lp473
g68
atp474
a(S'bij'
p475
(dp476
S'ADV'
p477
F0.001899
sS'NOUN'
p478
F0.0
sS'ADJ'
p479
F1e-06
sS'ADP'
p480
F0.998101
s(lp481
g133
atp482
a(S'deze'
p483
(dp484
S'PRON'
p485
F1.0
s(lp486
g139
atp487
a(S'agentschappen'
p488
(dp489
S'NOUN'
p490
F1.0
s(lp491
g146
atp492
a(S'van'
p493
(dp494
S'ADP'
p495
F1.0
s(lp496
g153
atp497
a(S'de'
p498
(dp499
S'DET'
p500
F1.0
s(lp501
g161
atp502
a(S'commissie'
p503
(dp504
S'NOUN'
p505
F1.0
s(lp506
g167
atp507
a(S'enerzijds'
p508
(dp509
S'ADV'
p510
F1.0
s(lp511
g120
atp512
a(S'en'
p513
(dp514
S'CONJ'
p515
F1.0
s(lp516
g173
atp517
a(S'de'
p518
(dp519
S'DET'
p520
F1.0
s(lp521
g187
atp522
a(S'beleidsafdeling'
p523
(dp524
S'NOUN'
p525
F1.0
s(lp526
g199
atp527
a(S'van'
p528
(dp529
S'ADP'
p530
F1.0
s(lp531
g205
atp532
a(S'het'
p533
(dp534
S'PRON'
p535
F0.00558
sS'DET'
p536
F0.99442
s(lp537
g358
atp538
a(S'europees'
p539
(dp540
S'NOUN'
p541
F0.047942
sS'ADJ'
p542
F0.952058
s(lp543
g218
atp544
a(S'parlement'
p545
(dp546
S'NOUN'
p547
F1.0
s(lp548
g211
atp549
a(S'anderzijds'
p550
(dp551
S'ADV'
p552
F1.0
s(lp553
g107
atp554
a(g18
(dp555
g18
F1.0
s(lp556
g18
atp557
asS'de'
p558
(lp559
(S'oder'
p560
(dp561
S'CONJ'
p562
F1.0
s(lp563
g8
atp564
a(S'allgemeiner'
p565
(dp566
S'ADJ'
p567
F1.0
s(lp568
tp569
a(S'formuliert'
p570
(dp571
S'VERB'
p572
F0.999999
s(lp573
g14
atp574
a(g16
(dp575
g18
F1.0
s(lp576
g16
atp577
a(S'es'
p578
(dp579
S'PRON'
p580
F1.0
s(lp581
g25
atp582
a(S'scheint'
p583
(dp584
S'VERB'
p585
F1.0
s(lp586
g31
atp587
a(S'erhebliche'
p588
(dp589
S'ADJ'
p590
F1.0
s(lp591
g74
atp592
a(S'\xc3\x9cberlappungen'
p593
(dp594
S'NOUN'
p595
F1.0
s(lp596
tp597
a(S'zwischen'
p598
(dp599
S'PRT'
p600
F0.615337
sS'ADP'
p601
F0.384663
s(lp602
g81
atp603
a(S'berichten'
p604
(dp605
S'VERB'
p606
F1.0
s(lp607
g94
atp608
a(S'\xc3\xbcber'
p609
(dp610
S'PRT'
p611
F0.000339
sS'ADP'
p612
F0.999661
s(lp613
g101
atp614
a(S'besch\xc3\xa4ftigungsfragen'
p615
(dp616
S'NOUN'
p617
F0.9987739999999999
s(lp618
g120
atp619
a(S'zu'
p620
(dp621
S'PRT'
p622
F0.999969
s(lp623
g39
atp624
a(S'geben'
p625
(dp626
S'VERB'
p627
F1.0
s(lp628
g55
atp629
a(g16
(dp630
g18
F1.0
s(lp631
tp632
a(S'die'
p633
(dp634
S'PRON'
p635
F0.997402
s(lp636
tp637
a(S'die'
p638
(dp639
S'PRON'
p640
F0.002038
sS'DET'
p641
F0.996992
s(lp642
g161
atp643
a(S'kommission'
p644
(dp645
S'ADJ'
p646
F0.027485
sS'NOUN'
p647
F0.956213
s(lp648
g167
atp649
a(S'bei'
p650
(dp651
S'PRT'
p652
F8.1e-05
sS'ADP'
p653
F0.999919
s(lp654
g133
atp655
a(S'diesen'
p656
(dp657
S'PRON'
p658
F1.0
s(lp659
g139
atp660
a(S'agenturen'
p661
(dp662
S'ADJ'
p663
F0.00012
sS'NOUN'
p664
F0.999812
s(lp665
g146
atp666
a(S'in'
p667
(dp668
S'ADP'
p669
F1.0
s(lp670
g153
atp671
a(S'auftrag'
p672
(dp673
S'ADJ'
p674
F0.000919
sS'NOUN'
p675
F0.998958
s(lp676
g68
atp677
a(S'gegeben'
p678
(dp679
S'VERB'
p680
F0.999044
sS'ADJ'
p681
F0.000956
s(lp682
g107
atp683
a(S'hat'
p684
(dp685
S'VERB'
p686
F1.0
s(lp687
g127
atp688
a(S'und'
p689
(dp690
S'CONJ'
p691
F1.0
s(lp692
g173
atp693
a(S'der'
p694
(dp695
S'PRON'
p696
F0.003843
sS'DET'
p697
F0.995095
s(lp698
g187
atp699
a(S'politischen'
p700
(dp701
S'ADJ'
p702
F1.0
s(lp703
g345
atp704
a(S'abteilung'
p705
(dp706
S'VERB'
p707
F3.9e-05
sS'NOUN'
p708
F0.999944
s(lp709
g199
atp710
a(S'des'
p711
(dp712
S'DET'
p713
F1.0
s(lp714
g205
atp715
a(S'europ\xc3\xa4ischen'
p716
(dp717
S'ADJ'
p718
F1.0
s(lp719
g218
atp720
a(S'parlaments'
p721
(dp722
S'ADJ'
p723
F0.003282
sS'NOUN'
p724
F0.99569
s(lp725
g211
atp726
a(g18
(dp727
g18
F1.0
s(lp728
g18
atp729
asS'it'
p730
(lp731
(S'in'
p732
(dp733
S'ADP'
p734
F1.0
s(lp735
g14
atp736
a(S'linea'
p737
(dp738
S'VERB'
p739
F0.00261
sS'NOUN'
p740
F0.99739
s(lp741
tp742
a(S'di'
p743
(dp744
S'CONJ'
p745
F1.3e-05
sS'ADP'
p746
F0.999987
s(lp747
tp748
a(S'massima'
p749
(dp750
S'NOUN'
p751
F0.23817
sS'ADJ'
p752
F0.76183
s(lp753
g14
atp754
a(g16
(dp755
g18
F1.0
s(lp756
g16
atp757
a(S'sembra'
p758
(dp759
S'VERB'
p760
F1.0
s(lp761
g31
atp762
a(S'esistere'
p763
(dp764
S'VERB'
p765
F1.0
s(lp766
g55
atp767
a(S'una'
p768
(dp769
S'PRON'
p770
F4.8e-05
sS'DEF'
p771
F0.999952
s(lp772
tp773
a(S'notevole'
p774
(dp775
S'ADJ'
p776
F1.0
s(lp777
g74
atp778
a(S'sovrapposizione'
p779
(dp780
S'NOUN'
p781
F1.0
s(lp782
g68
atp783
a(S'tra'
p784
(dp785
S'CONJ'
p786
F0.001568
sS'ADP'
p787
F0.998432
s(lp788
g81
atp789
a(S'le'
p790
(dp791
S'PRON'
p792
F0.000283
sS'DET'
p793
F0.999717
s(lp794
tp795
a(S'relazioni'
p796
(dp797
S'VERB'
p798
F0.0006799999999999999
sS'NOUN'
p799
F0.99932
s(lp800
g94
atp801
a(S'in'
p802
(dp803
S'ADP'
p804
F1.0
s(lp805
g101
atp806
a(S'materia'
p807
(dp808
S'NOUN'
p809
F1.0
s(lp810
g107
atp811
a(S'di'
p812
(dp813
S'CONJ'
p814
F4e-06
sS'ADP'
p815
F0.999996
s(lp816
tp817
a(S'occupazione'
p818
(dp819
S'NOUN'
p820
F1.0
s(lp821
g120
atp822
a(S'elaborate'
p823
(dp824
S'VERB'
p825
F0.587188
sS'ADJ'
p826
F0.412812
s(lp827
tp828
a(S'dalle'
p829
(dp830
S'NOUN'
p831
F0.001122
sS'ADP'
p832
F0.998878
s(lp833
tp834
a(S'agenzie'
p835
(dp836
S'NOUN'
p837
F1.0
s(lp838
g146
atp839
a(S'e'
p840
(dp841
S'CONJ'
p842
F1.0
s(lp843
tp844
a(S'quelle'
p845
(dp846
S'PRON'
p847
F1.0
s(lp848
g139
atp849
a(S'stilate'
p850
(dp851
S'VERB'
p852
F1.0
s(lp853
g127
atp854
a(S'dalla'
p855
(dp856
S'NOUN'
p857
F6e-06
sS'ADP'
p858
F0.999994
s(lp859
g153
atp860
a(S'commissione'
p861
(dp862
S'NOUN'
p863
F1.0
s(lp864
g167
atp865
a(g840
(dp866
S'CONJ'
p867
F1.0
s(lp868
g173
atp869
a(S'dal'
p870
(dp871
S'ADP'
p872
F1.0
s(lp873
g180
atp874
a(S'dipartimento'
p875
(dp876
S'NOUN'
p877
F1.0
s(lp878
tp879
a(S'delle'
p880
(dp881
S'DEF'
p882
F0.001362
sS'ADP'
p883
F0.998638
s(lp884
g187
atp885
a(S'politiche'
p886
(dp887
S'ADJ'
p888
F0.249658
sS'NOUN'
p889
F0.750342
s(lp890
g345
atp891
a(S'generali'
p892
(dp893
S'NOUN'
p894
F0.074705
sS'VERB'
p895
F2e-06
sS'ADJ'
p896
F0.925293
s(lp897
g199
atp898
a(S'del'
p899
(dp900
S'DEF'
p901
F0.002072
sS'ADP'
p902
F0.997928
s(lp903
g205
atp904
a(S'parlamento'
p905
(dp906
S'VERB'
p907
F0.000318
sS'NOUN'
p908
F0.999682
s(lp909
g211
atp910
a(S'europeo'
p911
(dp912
S'NOUN'
p913
F0.000977
sS'ADJ'
p914
F0.999023
s(lp915
g218
atp916
a(g18
(dp917
g18
F1.0
s(lp918
g18
atp919
asS'sk'
p920
(lp921
(S'zo'
p922
(dp923
S'X'
p924
F0.06962600000000001
sS'ADP'
p925
F0.930374
s(lp926
g8
atp927
a(S'v\xc5\xa1eobecnej\xc5\xa1ieho'
p928
(dp929
S'ADJ'
p930
F1.0
s(lp931
tp932
a(S'h\xc4\xbeadiska'
p933
(dp934
S'NOUN'
p935
F1.0
s(lp936
g14
atp937
a(S'sa'
p938
(dp939
S'PRT'
p940
F0.999937
sS'ADP'
p941
F0.0
sg924
F6.4e-05
s(lp942
tp943
a(S'zd\xc3\xa1'
p944
(dp945
S'VERB'
p946
F1.0
s(lp947
g31
atp948
a(g16
(dp949
g18
F1.0
s(lp950
g16
atp951
a(S'\xc5\xbee'
p952
(dp953
g924
F0.00036199999999999996
sS'CONJ'
p954
F0.999637
s(lp955
g25
atp956
a(S'spr\xc3\xa1vy'
p957
(dp958
S'NOUN'
p959
F1.0
s(lp960
g94
atp961
a(S'o'
p962
(dp963
g924
F0.00066
sS'CONJ'
p964
F6.8e-05
sS'NOUN'
p965
F2.3e-05
sS'ADP'
p966
F0.999248
s(lp967
g101
atp968
a(S'ot\xc3\xa1zkach'
p969
(dp970
S'NOUN'
p971
F1.0
s(lp972
g107
atp973
a(S'zamestnanosti'
p974
(dp975
S'NOUN'
p976
F1.0
s(lp977
g120
atp978
a(g16
(dp979
g18
F1.0
s(lp980
tp981
a(S'ktor\xc3\xa9'
p982
(dp983
S'PRON'
p984
F1.0
s(lp985
g153
atp986
a(S'vypracovali'
p987
(dp988
S'VERB'
p989
F0.9999999999999999
s(lp990
g127
atp991
a(S'komisia'
p992
(dp993
S'NOUN'
p994
F1.0
s(lp995
g167
atp996
a(S'a'
p997
(dp998
g924
F0.001135
sS'CONJ'
p999
F0.998067
sS'NOUN'
p1000
F0.000174
sS'ADP'
p1001
F0.000599
sS'PRT'
p1002
F2.6e-05
s(lp1003
g173
atp1004
a(S'tematick\xc3\xa9'
p1005
(dp1006
S'ADJ'
p1007
F1.0
s(lp1008
g199
atp1009
a(S'oddelenie'
p1010
(dp1011
S'NOUN'
p1012
F1.0
s(lp1013
tp1014
a(S'eur\xc3\xb3pskeho'
p1015
(dp1016
S'ADJ'
p1017
F1.0
s(lp1018
g218
atp1019
a(S'parlamentu'
p1020
(dp1021
S'NOUN'
p1022
F1.0
s(lp1023
g211
atp1024
a(S'v'
p1025
(dp1026
g924
F0.0005020000000000001
sS'ADP'
p1027
F0.999498
s(lp1028
g358
atp1029
a(S's\xc3\xbavislosti'
p1030
(dp1031
S'NOUN'
p1032
F1.0
s(lp1033
g199
atp1034
a(S's'
p1035
(dp1036
g924
F0.000403
sS'CONJ'
p1037
F0.000177
sS'NOUN'
p1038
F9e-06
sS'ADP'
p1039
F0.999294
sS'PRT'
p1040
F0.000116
s(lp1041
g133
atp1042
a(S't\xc3\xbdmito'
p1043
(dp1044
S'PRON'
p1045
F1.0
s(lp1046
g139
atp1047
a(S'agent\xc3\xbarami'
p1048
(dp1049
S'NOUN'
p1050
F1.0
s(lp1051
g146
atp1052
a(g16
(dp1053
g18
F1.0
s(lp1054
tp1055
a(S'sa'
p1056
(dp1057
S'PRT'
p1058
F0.999049
sS'ADP'
p1059
F1.7e-05
sg924
F0.000934
s(lp1060
g55
atp1061
a(S'zna\xc4\x8dne'
p1062
(dp1063
S'ADV'
p1064
F1.0
s(lp1065
g74
atp1066
a(S'prekr\xc3\xbdvaj\xc3\xba'
p1067
(dp1068
S'VERB'
p1069
F1.0
s(lp1070
g68
atp1071
a(g18
(dp1072
g18
F1.0
s(lp1073
g18
atp1074
asS'pl'
p1075
(lp1076
(S'og\xc3\xb3lnie'
p1077
(dp1078
S'ADV'
p1079
F1.0
s(lp1080
g14
atp1081
a(S'rzecz'
p1082
(dp1083
S'NOUN'
p1084
F1.0
s(lp1085
tp1086
a(S'bior\xc4\x85c'
p1087
(dp1088
S'VERB'
p1089
F1.0
s(lp1090
g14
atp1091
a(g16
(dp1092
g924
F4e-06
sg18
F0.999996
s(lp1093
g16
atp1094
a(S'wydaje'
p1095
(dp1096
S'VERB'
p1097
F1.0
s(lp1098
g31
atp1099
a(S'si\xc4\x99'
p1100
(dp1101
S'PRT'
p1102
F1.0
s(lp1103
tp1104
a(g16
(dp1105
g924
F0.0
sg18
F1.0
s(lp1106
tp1107
a(S'\xc5\xbce'
p1108
(dp1109
S'PRT'
p1110
F0.000393
sS'CONJ'
p1111
F0.999607
s(lp1112
g31
atp1113
a(S'sprawozdania'
p1114
(dp1115
S'NOUN'
p1116
F0.999999
s(lp1117
g94
atp1118
a(S'na'
p1119
(dp1120
S'PRT'
p1121
F6e-06
sS'VERB'
p1122
F1e-05
sS'NOUN'
p1123
F0.0
sS'ADP'
p1124
F0.999981
sg924
F2e-06
s(lp1125
tp1126
a(S'temat'
p1127
(dp1128
S'NOUN'
p1129
F1.0
s(lp1130
g101
atp1131
a(S'kwestii'
p1132
(dp1133
S'NOUN'
p1134
F1.000001
s(lp1135
g107
atp1136
a(S'zatrudnienia'
p1137
(dp1138
S'VERB'
p1139
F0.246407
sS'NOUN'
p1140
F0.753593
s(lp1141
g120
atp1142
a(S'opracowywanych'
p1143
(dp1144
S'ADV'
p1145
F0.001493
sS'ADJ'
p1146
F0.03543700000000002
sS'VERB'
p1147
F0.9115779999999998
sS'NOUN'
p1148
F0.051491999999999996
s(lp1149
g127
atp1150
a(S'przez'
p1151
(dp1152
S'ADP'
p1153
F1.0
s(lp1154
tp1155
a(S'omawiane'
p1156
(dp1157
S'VERB'
p1158
F1.0
s(lp1159
g139
atp1160
a(S'agencje'
p1161
(dp1162
S'NOUN'
p1163
F1.0
s(lp1164
g146
atp1165
a(S'sporz\xc4\x85dzone'
p1166
(dp1167
S'ADV'
p1168
F0.000206
sS'NOUN'
p1169
F0.0018479999999999992
sS'VERB'
p1170
F0.9867140000000001
sS'ADJ'
p1171
F0.011228999999999996
s(lp1172
g127
atp1173
a(S'przez'
p1174
(dp1175
S'ADP'
p1176
F1.0
s(lp1177
g153
atp1178
a(S'komisj\xc4\x99'
p1179
(dp1180
S'NOUN'
p1181
F1.0
s(lp1182
g167
atp1183
a(S'w'
p1184
(dp1185
S'ADJ'
p1186
F0.0
sg924
F0.0
sS'NOUN'
p1187
F0.0
sS'ADP'
p1188
F0.9999990000000001
s(lp1189
g39
atp1190
a(S'du\xc5\xbcym'
p1191
(dp1192
S'ADJ'
p1193
F1.0
s(lp1194
g74
atp1195
a(S'stopniu'
p1196
(dp1197
S'NOUN'
p1198
F1.0
s(lp1199
g68
atp1200
a(S'zaz\xc4\x99biaj\xc4\x85'
p1201
(dp1202
S'ADJ'
p1203
F2.7e-05
sS'VERB'
p1204
F0.994466
sS'NOUN'
p1205
F0.005507
s(lp1206
g68
atp1207
a(S'si\xc4\x99'
p1208
(dp1209
S'PRT'
p1210
F1.0
s(lp1211
tp1212
a(S'z'
p1213
(dp1214
S'PRT'
p1215
F0.000995
sS'VERB'
p1216
F7e-06
sS'NOUN'
p1217
F0.0
sS'ADP'
p1218
F0.9989979999999999
sg924
F0.0
s(lp1219
g133
atp1220
a(S'tymi'
p1221
(dp1222
S'ADJ'
p1223
F0.999999
s(lp1224
g81
atp1225
a(S'sporz\xc4\x85dzonymi'
p1226
(dp1227
S'ADV'
p1228
F0.000151
sS'NOUN'
p1229
F0.37214899999999995
sS'VERB'
p1230
F0.14899600000000005
sS'ADJ'
p1231
F0.4787039999999998
s(lp1232
g68
atp1233
a(S'przez'
p1234
(dp1235
S'ADP'
p1236
F1.0
s(lp1237
g180
atp1238
a(S'departament'
p1239
(dp1240
S'ADV'
p1241
F0.00045
sS'ADJ'
p1242
F0.000388
sS'VERB'
p1243
F8.799999999999998e-05
sS'NOUN'
p1244
F0.9990720000000002
s(lp1245
tp1246
a(S'tematyczny'
p1247
(dp1248
S'ADJ'
p1249
F1.0
s(lp1250
g199
atp1251
a(S'parlamentu'
p1252
(dp1253
S'NOUN'
p1254
F1.0
s(lp1255
g211
atp1256
a(S'europejskiego'
p1257
(dp1258
S'ADJ'
p1259
F0.9999999999999999
s(lp1260
g218
atp1261
a(g18
(dp1262
g18
F1.0
s(lp1263
g18
atp1264
asS'sl'
p1265
(lp1266
(S'bolj'
p1267
(dp1268
S'ADV'
p1269
F1.0
s(lp1270
g8
atp1271
a(S'na'
p1272
(dp1273
S'ADP'
p1274
F1.0
s(lp1275
tp1276
a(S'splo\xc5\xa1no'
p1277
(dp1278
S'ADV'
p1279
F0.072931
sS'ADJ'
p1280
F0.92707
s(lp1281
g14
atp1282
a(g16
(dp1283
g18
F1.0
s(lp1284
g16
atp1285
a(S'o\xc4\x8ditno'
p1286
(dp1287
S'ADV'
p1288
F0.99857
sS'ADJ'
p1289
F0.00143
s(lp1290
g31
atp1291
a(S'gre'
p1292
(dp1293
S'VERB'
p1294
F1.0
s(lp1295
g25
atp1296
a(S'za'
p1297
(dp1298
S'ADV'
p1299
F0.000446
sg924
F1.7e-05
sS'ADP'
p1300
F0.9995380000000001
s(lp1301
g39
atp1302
a(S'ob\xc4\x8dutno'
p1303
(dp1304
S'ADV'
p1305
F0.208718
sS'ADJ'
p1306
F0.791282
s(lp1307
g74
atp1308
a(S'sovpadanje'
p1309
(dp1310
S'ADV'
p1311
F0.020718
sS'ADJ'
p1312
F0.001002
sS'VERB'
p1313
F0.001408
sS'NOUN'
p1314
F0.9768740000000001
s(lp1315
g68
atp1316
a(S'poro\xc4\x8dil'
p1317
(dp1318
S'VERB'
p1319
F0.196495
sS'NOUN'
p1320
F0.803505
s(lp1321
g94
atp1322
a(g962
(dp1323
S'NOUN'
p1324
F7e-06
sS'ADP'
p1325
F0.999993
s(lp1326
g101
atp1327
a(S'zadevah'
p1328
(dp1329
S'NOUN'
p1330
F1.0
s(lp1331
g107
atp1332
a(g1025
(dp1333
S'ADP'
p1334
F1.0
s(lp1335
g101
atp1336
a(S'zvezi'
p1337
(dp1338
S'NOUN'
p1339
F1.0
s(lp1340
tp1341
a(g1213
(dp1342
S'ADP'
p1343
F1.0
s(lp1344
g101
atp1345
a(S'zaposlovanjem'
p1346
(dp1347
S'NOUN'
p1348
F1.0
s(lp1349
g120
atp1350
a(g16
(dp1351
g18
F1.0
s(lp1352
tp1353
a(S'ki'
p1354
(dp1355
S'CONJ'
p1356
F1.0
s(lp1357
g127
atp1358
a(S'jih'
p1359
(dp1360
S'PRON'
p1361
F1.000001
s(lp1362
g153
atp1363
a(S'je'
p1364
(dp1365
S'PRON'
p1366
F9.8e-05
sS'VERB'
p1367
F0.9999
sg924
F2e-06
s(lp1368
g161
atp1369
a(g962
(dp1370
S'NOUN'
p1371
F0.000213
sS'ADP'
p1372
F0.999787
s(lp1373
g133
atp1374
a(S'teh'
p1375
(dp1376
S'PRON'
p1377
F1.0000019999999998
s(lp1378
g139
atp1379
a(S'agencijah'
p1380
(dp1381
S'ADV'
p1382
F0.008391
sS'ADJ'
p1383
F0.0037549999999999992
sS'NOUN'
p1384
F0.987855
s(lp1385
g146
atp1386
a(S'pripravila'
p1387
(dp1388
S'VERB'
p1389
F1.0
s(lp1390
tp1391
a(S'komisija'
p1392
(dp1393
S'NOUN'
p1394
F1.0
s(lp1395
g167
atp1396
a(S'in'
p1397
(dp1398
S'ADV'
p1399
F5.9e-05
sg924
F0.000166
sS'CONJ'
p1400
F0.999765
sS'NOUN'
p1401
F1e-05
s(lp1402
g173
atp1403
a(S'ki'
p1404
(dp1405
S'CONJ'
p1406
F1.0
s(lp1407
tp1408
a(S'jih'
p1409
(dp1410
S'PRON'
p1411
F1.0
s(lp1412
g180
atp1413
a(S'je'
p1414
(dp1415
S'PRON'
p1416
F1.5e-05
sS'VERB'
p1417
F0.999985
sg924
F0.0
s(lp1418
g187
atp1419
a(S'pripravil'
p1420
(dp1421
S'VERB'
p1422
F1.0
s(lp1423
g127
atp1424
a(S'oddelek'
p1425
(dp1426
S'NOUN'
p1427
F1.0
s(lp1428
tp1429
a(S'za'
p1430
(dp1431
S'ADV'
p1432
F0.000124
sg924
F3e-05
sS'ADP'
p1433
F0.999846
s(lp1434
g199
atp1435
a(S'politike'
p1436
(dp1437
S'NOUN'
p1438
F1.0000010000000001
s(lp1439
g345
atp1440
a(S'evropskega'
p1441
(dp1442
S'ADJ'
p1443
F1.0
s(lp1444
g218
atp1445
a(S'parlamenta'
p1446
(dp1447
S'NOUN'
p1448
F1.0
s(lp1449
g211
atp1450
a(g18
(dp1451
g18
F1.0
s(lp1452
g18
atp1453
asS'es'
p1454
(lp1455
(S'en'
p1456
(dp1457
g924
F0.002093
sS'CONJ'
p1458
F4.7e-05
sS'ADP'
p1459
F0.99786
s(lp1460
g14
atp1461
a(S't\xc3\xa9rminos'
p1462
(dp1463
S'NOUN'
p1464
F1.0
s(lp1465
tp1466
a(S'm\xc3\xa1s'
p1467
(dp1468
S'ADV'
p1469
F0.999993
sS'CONJ'
p1470
F7e-06
s(lp1471
g8
atp1472
a(S'generales'
p1473
(dp1474
S'NOUN'
p1475
F0.000535
sS'ADJ'
p1476
F0.999465
s(lp1477
g14
atp1478
a(g16
(dp1479
g18
F1.0
s(lp1480
g16
atp1481
a(S'parece'
p1482
(dp1483
S'VERB'
p1484
F1.0
s(lp1485
g31
atp1486
a(S'que'
p1487
(dp1488
g924
F1e-06
sS'CONJ'
p1489
F0.999999
s(lp1490
g39
atp1491
a(S'hay'
p1492
(dp1493
S'VERB'
p1494
F1.0
s(lp1495
g55
atp1496
a(S'un'
p1497
(dp1498
g924
F3e-06
sS'DET'
p1499
F0.999997
s(lp1500
tp1501
a(S'considerable'
p1502
(dp1503
S'ADJ'
p1504
F1.0
s(lp1505
g74
atp1506
a(S'solapamiento'
p1507
(dp1508
S'NOUN'
p1509
F1.0
s(lp1510
g68
atp1511
a(S'entre'
p1512
(dp1513
g924
F3e-06
sS'ADP'
p1514
F0.999997
s(lp1515
g81
atp1516
a(S'los'
p1517
(dp1518
S'PRON'
p1519
F0.0
sS'DET'
p1520
F1.0
s(lp1521
tp1522
a(S'informes'
p1523
(dp1524
S'ADJ'
p1525
F0.021085
sS'NOUN'
p1526
F0.978915
s(lp1527
g94
atp1528
a(S'en'
p1529
(dp1530
S'ADP'
p1531
F1.0
s(lp1532
g101
atp1533
a(S'materia'
p1534
(dp1535
S'ADP'
p1536
F1.0
s(lp1537
g107
atp1538
a(S'de'
p1539
(dp1540
S'ADP'
p1541
F1.0
s(lp1542
tp1543
a(S'empleo'
p1544
(dp1545
S'NOUN'
p1546
F1.0
s(lp1547
g120
atp1548
a(S'generados'
p1549
(dp1550
S'VERB'
p1551
F1.0
s(lp1552
g127
atp1553
a(S'en'
p1554
(dp1555
g924
F0.0
sS'CONJ'
p1556
F1e-06
sS'ADP'
p1557
F0.999999
s(lp1558
g133
atp1559
a(S'estas'
p1560
(dp1561
S'PRON'
p1562
F1.0
s(lp1563
g139
atp1564
a(S'agencias'
p1565
(dp1566
S'VERB'
p1567
F0.011699
sS'NOUN'
p1568
F0.988301
s(lp1569
g146
atp1570
a(S'por'
p1571
(dp1572
S'ADP'
p1573
F1.0
s(lp1574
g153
atp1575
a(S'la'
p1576
(dp1577
S'NOUN'
p1578
F0.0
sS'PRON'
p1579
F0.0
sS'DET'
p1580
F0.999999
sg924
F0.0
s(lp1581
g161
atp1582
a(S'comisi\xc3\xb3n'
p1583
(dp1584
S'NOUN'
p1585
F1.0
s(lp1586
g167
atp1587
a(g46
(dp1588
g924
F0.001029
sS'CONJ'
p1589
F0.998971
s(lp1590
g173
atp1591
a(S'por'
p1592
(dp1593
S'ADP'
p1594
F1.0
s(lp1595
g180
atp1596
a(S'el'
p1597
(dp1598
S'PRON'
p1599
F5e-06
sS'DET'
p1600
F0.999995
s(lp1601
g187
atp1602
a(S'departamento'
p1603
(dp1604
S'NOUN'
p1605
F1.0
s(lp1606
g199
atp1607
a(S'de'
p1608
(dp1609
g924
F7.7e-05
sS'CONJ'
p1610
F0.000513
sS'ADP'
p1611
F0.99941
s(lp1612
g205
atp1613
a(S'pol\xc3\xadtica'
p1614
(dp1615
S'ADJ'
p1616
F0.176063
sS'NOUN'
p1617
F0.823937
s(lp1618
g345
atp1619
a(S'del'
p1620
(dp1621
S'ADP'
p1622
F1.0
s(lp1623
g358
atp1624
a(S'parlamento'
p1625
(dp1626
S'VERB'
p1627
F0.0
sS'NOUN'
p1628
F1.0
s(lp1629
g211
atp1630
a(S'europeo'
p1631
(dp1632
S'NOUN'
p1633
F0.000611
sS'ADJ'
p1634
F0.999389
s(lp1635
g218
atp1636
a(g18
(dp1637
g18
F1.0
s(lp1638
g18
atp1639
as.