(dp0
S'fr'
p1
(lp2
(S'certes'
p3
(dp4
S'ADV'
p5
F1.0
s(lp6
S'clearly'
p7
atp8
a(S','
p9
(dp10
S'.'
p11
F1.0
s(lp12
g9
atp13
a(S'elle'
p14
(dp15
S'PRON'
p16
F1.0
s(lp17
S'it'
p18
atp19
a(S'permettra'
p20
(dp21
S'VERB'
p22
F1.0
s(lp23
S'provides'
p24
atp25
a(S'le'
p26
(dp27
S'PRON'
p28
F0.003422
sS'DET'
p29
F0.996578
s(lp30
S'an'
p31
atp32
a(S'souvenir'
p33
(dp34
S'VERB'
p35
F0.004345
sS'NOUN'
p36
F0.995655
s(lp37
S'remember'
p38
atp39
a(g9
(dp40
g11
F1.0
s(lp41
g9
atp42
a(S'mais'
p43
(dp44
S'CONJ'
p45
F1.0
s(lp46
S'but'
p47
atp48
a(S'elle'
p49
(dp50
S'PRON'
p51
F1.0
s(lp52
S'it'
p53
atp54
a(S'doit'
p55
(dp56
S'VERB'
p57
F0.999998
sS'NOUN'
p58
F2e-06
s(lp59
S'should'
p60
atp61
a(S'\xc3\xaatre'
p62
(dp63
S'VERB'
p64
F0.993094
sS'NOUN'
p65
F0.006906
s(lp66
S'be'
p67
atp68
a(S'avant'
p69
(dp70
S'ADV'
p71
F0.012167
sS'NOUN'
p72
F0.000166
sS'ADP'
p73
F0.987666
s(lp74
S'above'
p75
atp76
a(S'tout'
p77
(dp78
S'ADV'
p79
F0.126139
sS'PRON'
p80
F0.871555
sS'NOUN'
p81
F0.002306
s(lp82
S'all'
p83
atp84
a(S'le'
p85
(dp86
S'PRON'
p87
F0.016854
sS'DET'
p88
F0.983146
s(lp89
S'a'
p90
atp91
a(S'gage'
p92
(dp93
S'VERB'
p94
F0.017849999999999998
sS'NOUN'
p95
F0.98215
s(lp96
S'guarantee'
p97
atp98
a(S"d'"
p99
(dp100
S'NOUN'
p101
F0.033431
sS'VERB'
p102
F0.6958979999999999
sS'ADJ'
p103
F0.27067
s(lp104
S'of'
p105
atp106
a(S'un'
p107
(dp108
S'NOUN'
p109
F0.004922
sS'NUM'
p110
F0.005318
sS'DET'
p111
F0.989761
s(lp112
g90
atp113
a(S'autre'
p114
(dp115
S'ADJ'
p116
F1.0
s(lp117
S'different'
p118
atp119
a(S'futur'
p120
(dp121
S'NOUN'
p122
F0.473846
sS'ADJ'
p123
F0.526154
s(lp124
S'future'
p125
atp126
a(g11
(dp127
g11
F1.0
s(lp128
g11
atp129
asS'en'
p130
(lp131
(g7
(dp132
S'ADV'
p133
F1.0
s(lp134
g7
atp135
a(g9
(dp136
g11
F1.0
s(lp137
g9
atp138
a(g18
(dp139
S'PRON'
p140
F1.0
s(lp141
g18
atp142
a(g24
(dp143
S'VERB'
p144
F1.0
s(lp145
g24
atp146
a(g31
(dp147
S'DET'
p148
F1.0
s(lp149
g31
atp150
a(S'opportunity'
p151
(dp152
S'NOUN'
p153
F1.0
s(lp154
g151
atp155
a(S'to'
p156
(dp157
S'ADV'
p158
F0.0
sS'PRT'
p159
F1.0
sS'ADP'
p160
F0.0
s(lp161
g156
atp162
a(g38
(dp163
S'VERB'
p164
F1.0
s(lp165
g38
atp166
a(g9
(dp167
g11
F1.0
s(lp168
g9
atp169
a(g47
(dp170
S'ADV'
p171
F0.017059
sS'CONJ'
p172
F0.98294
sS'NOUN'
p173
F1e-06
s(lp174
g47
atp175
a(g53
(dp176
S'PRON'
p177
F1.0
s(lp178
g53
atp179
a(g60
(dp180
S'VERB'
p181
F1.0
s(lp182
g60
atp183
a(g75
(dp184
S'ADV'
p185
F0.97021
sS'ADJ'
p186
F9.2e-05
sS'ADP'
p187
F0.029698
s(lp188
g75
atp189
a(g83
(dp190
S'ADV'
p191
F0.697525
sS'DET'
p192
F0.302476
s(lp193
g83
atp194
a(g67
(dp195
S'VERB'
p196
F1.0
s(lp197
g67
atp198
a(g90
(dp199
S'NOUN'
p200
F0.0
sS'DET'
p201
F1.0
s(lp202
g90
atp203
a(g97
(dp204
S'VERB'
p205
F0.001938
sS'NOUN'
p206
F0.998062
s(lp207
g97
atp208
a(g105
(dp209
S'ADP'
p210
F1.0
s(lp211
g105
atp212
a(g90
(dp213
S'NOUN'
p214
F0.0
sS'DET'
p215
F1.0
s(lp216
g90
atp217
a(g118
(dp218
S'ADJ'
p219
F1.0
s(lp220
g118
atp221
a(g125
(dp222
S'ADJ'
p223
F0.135036
sS'NOUN'
p224
F0.864964
s(lp225
g125
atp226
a(g11
(dp227
g11
F1.0
s(lp228
g11
atp229
asS'nl'
p230
(lp231
(S'daarmee'
p232
(dp233
S'ADV'
p234
F1.0
s(lp235
g7
atp236
a(S'zullen'
p237
(dp238
S'VERB'
p239
F0.999997
sS'NOUN'
p240
F3e-06
s(lp241
g9
atp242
a(S'wij'
p243
(dp244
S'PRON'
p245
F1.0
s(lp246
g18
atp247
a(S'inderdaad'
p248
(dp249
S'ADV'
p250
F1.0
s(lp251
tp252
a(S'de'
p253
(dp254
S'DET'
p255
F1.0
s(lp256
tp257
a(S'herinnering'
p258
(dp259
S'NOUN'
p260
F1.0
s(lp261
g38
atp262
a(S'levend'
p263
(dp264
S'VERB'
p265
F0.883964
sS'ADJ'
p266
F0.116036
s(lp267
tp268
a(S'kunnen'
p269
(dp270
S'VERB'
p271
F0.999147
sS'NOUN'
p272
F0.000854
s(lp273
g24
atp274
a(S'houden'
p275
(dp276
S'VERB'
p277
F0.999845
sS'NOUN'
p278
F0.000155
s(lp279
g38
atp280
a(S'maar'
p281
(dp282
S'ADV'
p283
F0.187289
sS'CONJ'
p284
F0.812494
sS'NOUN'
p285
F0.000217
s(lp286
g47
atp287
a(S'moeten'
p288
(dp289
S'VERB'
p290
F0.9999979999999999
sS'NOUN'
p291
F2e-06
s(lp292
g60
atp293
a(S'wij'
p294
(dp295
S'PRON'
p296
F1.0
s(lp297
g53
atp298
a(S'vooral'
p299
(dp300
S'ADV'
p301
F1.0
s(lp302
g75
atp303
a(S'een'
p304
(dp305
S'ADJ'
p306
F1.1e-05
sS'PRON'
p307
F2.1e-05
sS'NUM'
p308
F1e-06
sS'DET'
p309
F0.999968
s(lp310
g90
atp311
a(S'bewijs'
p312
(dp313
S'VERB'
p314
F1e-06
sS'NOUN'
p315
F0.999999
s(lp316
tp317
a(S'leveren'
p318
(dp319
S'VERB'
p320
F0.9999250000000001
sS'NOUN'
p321
F7.5e-05
s(lp322
g97
atp323
a(S'van'
p324
(dp325
S'ADP'
p326
F1.0
s(lp327
g105
atp328
a(S'onze'
p329
(dp330
S'PRON'
p331
F1.0
s(lp332
g31
atp333
a(S'inzet'
p334
(dp335
S'VERB'
p336
F2e-06
sS'NOUN'
p337
F0.999998
s(lp338
g151
atp339
a(S'voor'
p340
(dp341
S'ADV'
p342
F0.001936
sS'CONJ'
p343
F3e-06
sS'NOUN'
p344
F0.0
sS'ADP'
p345
F0.998061
s(lp346
g156
atp347
a(S'een'
p348
(dp349
S'ADJ'
p350
F1e-06
sS'PRON'
p351
F0.00052
sS'NUM'
p352
F1e-06
sS'DET'
p353
F0.999478
s(lp354
g90
atp355
a(S'betere'
p356
(dp357
S'NOUN'
p358
F0.006174
sS'ADJ'
p359
F0.993826
s(lp360
g118
atp361
a(S'toekomst'
p362
(dp363
S'NOUN'
p364
F1.0
s(lp365
g125
atp366
a(g11
(dp367
g11
F1.0
s(lp368
g11
atp369
asS'de'
p370
(lp371
(S'sicher'
p372
(dp373
S'VERB'
p374
F0.00459
sS'ADJ'
p375
F0.993826
s(lp376
g7
atp377
a(S'wird'
p378
(dp379
S'VERB'
p380
F1.0
s(lp381
g9
atp382
a(S'so'
p383
(dp384
S'ADV'
p385
F0.999991
sS'PRON'
p386
F9e-06
s(lp387
g18
atp388
a(S'die'
p389
(dp390
S'PRON'
p391
F0.000605
sS'DET'
p392
F0.999381
s(lp393
g31
atp394
a(S'm\xc3\xb6glichkeit'
p395
(dp396
S'ADV'
p397
F0.015352
sS'NOUN'
p398
F0.967262
s(lp399
g151
atp400
a(S'der'
p401
(dp402
S'PRON'
p403
F2.5e-05
sS'DET'
p404
F0.999954
s(lp405
tp406
a(S'erinnerung'
p407
(dp408
S'ADJ'
p409
F0.000245
sS'NOUN'
p410
F0.999642
s(lp411
g38
atp412
a(S'geschaffen'
p413
(dp414
S'VERB'
p415
F0.997422
sS'ADJ'
p416
F0.002578
s(lp417
g24
atp418
a(g9
(dp419
g11
F1.0
s(lp420
g9
atp421
a(S'aber'
p422
(dp423
S'ADV'
p424
F0.161734
sS'CONJ'
p425
F0.838266
s(lp426
g47
atp427
a(S'dar\xc3\xbcber'
p428
(dp429
S'ADV'
p430
F0.999996
sS'PRT'
p431
F4e-06
s(lp432
tp433
a(S'hinaus'
p434
(dp435
S'ADV'
p436
F0.721625
sS'PRT'
p437
F0.278375
s(lp438
g75
atp439
a(S'sollte'
p440
(dp441
S'VERB'
p442
F1.0
s(lp443
g60
atp444
a(S'es'
p445
(dp446
S'PRON'
p447
F1.0
s(lp448
g53
atp449
a(S'die'
p450
(dp451
S'PRON'
p452
F0.001245
sS'DET'
p453
F0.998249
s(lp454
g90
atp455
a(S'garantie'
p456
(dp457
S'ADJ'
p458
F0.000133
sS'NOUN'
p459
F0.999724
s(lp460
g97
atp461
a(S'f\xc3\xbcr'
p462
(dp463
S'ADP'
p464
F1.0
s(lp465
g105
atp466
a(S'eine'
p467
(dp468
S'PRON'
p469
F0.006669
sS'DET'
p470
F0.99325
s(lp471
g90
atp472
a(S'bessere'
p473
(dp474
S'VERB'
p475
F0.005832
sS'ADJ'
p476
F0.994168
s(lp477
g118
atp478
a(S'zukunft'
p479
(dp480
S'ADJ'
p481
F0.203731
sS'NOUN'
p482
F0.778755
s(lp483
g125
atp484
a(S'sein'
p485
(dp486
S'VERB'
p487
F0.999385
s(lp488
g67
atp489
a(g11
(dp490
g11
F1.0
s(lp491
g11
atp492
asS'it'
p493
(lp494
(S'ci'
p495
(dp496
S'ADV'
p497
F0.000954
sS'PRON'
p498
F0.99901
sS'NOUN'
p499
F3.6e-05
s(lp500
g18
atp501
a(S'd\xc3\xa0'
p502
(dp503
S'VERB'
p504
F1.0
s(lp505
g24
atp506
a(S'occasione'
p507
(dp508
S'NOUN'
p509
F1.0
s(lp510
g151
atp511
a(S'di'
p512
(dp513
S'CONJ'
p514
F6e-06
sS'ADP'
p515
F0.999994
s(lp516
g156
atp517
a(S'ricordare'
p518
(dp519
S'VERB'
p520
F1.0
s(lp521
g38
atp522
a(g9
(dp523
g11
F1.0
s(lp524
g9
atp525
a(S'\xc3\xa8'
p526
(dp527
S'VERB'
p528
F1.0
s(lp529
tp530
a(S'evidente'
p531
(dp532
S'ADJ'
p533
F1.0
s(lp534
g7
atp535
a(g9
(dp536
g11
F1.0
s(lp537
g9
atp538
a(S'ma'
p539
(dp540
S'CONJ'
p541
F0.999897
sS'NOUN'
p542
F0.000103
s(lp543
g47
atp544
a(S'dovrebbe'
p545
(dp546
S'VERB'
p547
F1.0
s(lp548
g60
atp549
a(S'essere'
p550
(dp551
S'VERB'
p552
F0.999982
sS'NOUN'
p553
F1.8e-05
s(lp554
g67
atp555
a(S'soprattutto'
p556
(dp557
S'ADV'
p558
F1.0
s(lp559
g75
atp560
a(S'la'
p561
(dp562
S'PRON'
p563
F0.000175
sS'DET'
p564
F0.999825
s(lp565
g90
atp566
a(S'garanzia'
p567
(dp568
S'NOUN'
p569
F1.0
s(lp570
g97
atp571
a(S'di'
p572
(dp573
S'CONJ'
p574
F1.6e-05
sS'ADP'
p575
F0.999984
s(lp576
g105
atp577
a(S'un'
p578
(dp579
S'PRON'
p580
F0.002585
sS'DEF'
p581
F0.997415
s(lp582
g90
atp583
a(S'futuro'
p584
(dp585
S'ADJ'
p586
F0.056079
sS'NOUN'
p587
F0.943921
s(lp588
g125
atp589
a(S'diverso'
p590
(dp591
S'VERB'
p592
F0.037311
sS'ADJ'
p593
F0.962689
s(lp594
g118
atp595
a(g11
(dp596
g11
F1.0
s(lp597
g11
atp598
asS'sk'
p599
(lp600
(S'tento'
p601
(dp602
S'PRON'
p603
F0.99972
sS'X'
p604
F0.00028
s(lp605
g18
atp606
a(S'akt'
p607
(dp608
S'NOUN'
p609
F1.0
s(lp610
tp611
a(S'zjavne'
p612
(dp613
S'ADV'
p614
F1.0
s(lp615
g7
atp616
a(S'poskytuje'
p617
(dp618
S'VERB'
p619
F1.0
s(lp620
g24
atp621
a(S'mo\xc5\xbenos\xc5\xa5'
p622
(dp623
S'NOUN'
p624
F1.0
s(lp625
g151
atp626
a(S'poh\xc4\xbeadu'
p627
(dp628
S'NOUN'
p629
F1.0
s(lp630
g31
atp631
a(S'do'
p632
(dp633
g604
F0.000222
sS'ADP'
p634
F0.999684
sS'PRON'
p635
F9.4e-05
s(lp636
g156
atp637
a(S'minulosti'
p638
(dp639
S'NOUN'
p640
F1.0
s(lp641
g38
atp642
a(g9
(dp643
g11
F1.0
s(lp644
g9
atp645
a(S'predov\xc5\xa1etk\xc3\xbdm'
p646
(dp647
g604
F1.0
s(lp648
g75
atp649
a(S'by'
p650
(dp651
S'PRT'
p652
F0.999926
sg604
F7.4e-05
s(lp653
tp654
a(S'v\xc5\xa1ak'
p655
(dp656
g604
F0.956424
sS'CONJ'
p657
F0.043576
s(lp658
g47
atp659
a(S'mal'
p660
(dp661
g604
F6e-06
sS'VERB'
p662
F0.999995
s(lp663
g60
atp664
a(S'by\xc5\xa5'
p665
(dp666
S'VERB'
p667
F1.0
s(lp668
g67
atp669
a(S'z\xc3\xa1rukou'
p670
(dp671
S'NOUN'
p672
F1.0
s(lp673
g97
atp674
a(S'inej'
p675
(dp676
S'PRON'
p677
F1.0
s(lp678
g118
atp679
a(S'bud\xc3\xbacnosti'
p680
(dp681
S'NOUN'
p682
F1.0
s(lp683
g125
atp684
a(g11
(dp685
g11
F1.0
s(lp686
g11
atp687
asS'pl'
p688
(lp689
(S'stanowi'
p690
(dp691
S'VERB'
p692
F1.0
s(lp693
g24
atp694
a(S'ono'
p695
(dp696
S'PRON'
p697
F1.0
s(lp698
g18
atp699
a(S'oczywi\xc5\x9bcie'
p700
(dp701
S'PRT'
p702
F1.0
s(lp703
g7
atp704
a(S'okazj\xc4\x99'
p705
(dp706
S'NOUN'
p707
F1.0
s(lp708
g151
atp709
a(S'do'
p710
(dp711
g604
F0.0
sS'NOUN'
p712
F2e-06
sS'ADP'
p713
F0.999998
s(lp714
tp715
a(S'tego'
p716
(dp717
S'ADJ'
p718
F0.11563200000000001
sS'NOUN'
p719
F0.884192
sS'PRT'
p720
F1e-06
sg604
F0.000176
s(lp721
g53
atp722
a(g9
(dp723
g604
F0.0
sg11
F1.0
s(lp724
g9
atp725
a(S'by'
p726
(dp727
S'NOUN'
p728
F6.5e-05
sS'ADP'
p729
F0.0
sS'PRT'
p730
F0.351544
sS'VERB'
p731
F2e-06
sg604
F5e-06
sS'CONJ'
p732
F0.648384
s(lp733
g156
atp734
a(S'pami\xc4\x99ta\xc4\x87'
p735
(dp736
S'VERB'
p737
F1.0
s(lp738
g38
atp739
a(g9
(dp740
g604
F0.0
sg11
F1.0
s(lp741
g9
atp742
a(S'ale'
p743
(dp744
S'PRT'
p745
F0.008727
sS'CONJ'
p746
F0.990948
sS'NOUN'
p747
F0.000325
s(lp748
g47
atp749
a(S'nade'
p750
(dp751
S'ADP'
p752
F1.0
s(lp753
g75
atp754
a(S'wszystko'
p755
(dp756
S'ADJ'
p757
F3.1e-05
sS'NOUN'
p758
F0.9999690000000001
s(lp759
g83
atp760
a(S'powinno'
p761
(dp762
S'VERB'
p763
F1.0
s(lp764
g60
atp765
a(S'by\xc4\x87'
p766
(dp767
S'VERB'
p768
F1.0
s(lp769
g67
atp770
a(S'gwarancj\xc4\x85'
p771
(dp772
S'NOUN'
p773
F1.0
s(lp774
g97
atp775
a(S'innej'
p776
(dp777
S'ADJ'
p778
F1.0
s(lp779
g118
atp780
a(S'przysz\xc5\x82o\xc5\x9bci'
p781
(dp782
S'NOUN'
p783
F1.0
s(lp784
g125
atp785
a(g11
(dp786
g11
F1.0
s(lp787
g11
atp788
asS'sl'
p789
(lp790
(S'je'
p791
(dp792
S'PRON'
p793
F0.001883
sS'VERB'
p794
F0.99803
sg604
F8.6e-05
s(lp795
g18
atp796
a(S'seveda'
p797
(dp798
S'PRT'
p799
F1.0
s(lp800
g7
atp801
a(S'jasna'
p802
(dp803
S'ADJ'
p804
F1.0
s(lp805
g24
atp806
a(S'prilo\xc5\xbenost'
p807
(dp808
S'NOUN'
p809
F1.0
s(lp810
g151
atp811
a(S'za'
p812
(dp813
S'ADV'
p814
F1.3e-05
sg604
F1.7e-05
sS'ADP'
p815
F0.9999709999999999
s(lp816
g156
atp817
a(S'spominjanje'
p818
(dp819
S'NOUN'
p820
F1.0
s(lp821
g38
atp822
a(g9
(dp823
g11
F1.0
s(lp824
g9
atp825
a(S'vendar'
p826
(dp827
S'ADV'
p828
F0.050071
sS'CONJ'
p829
F0.949929
s(lp830
tp831
a(S'pa'
p832
(dp833
g604
F0.001233
sS'CONJ'
p834
F0.998767
s(lp835
g47
atp836
a(S'mora'
p837
(dp838
S'VERB'
p839
F0.999353
sS'NOUN'
p840
F0.000647
s(lp841
g60
atp842
a(S'biti'
p843
(dp844
S'VERB'
p845
F0.999944
sS'NOUN'
p846
F5.6e-05
s(lp847
g67
atp848
a(S'predvsem'
p849
(dp850
S'PRT'
p851
F1.0
s(lp852
g75
atp853
a(S'zagotovilo'
p854
(dp855
S'VERB'
p856
F0.05002
sS'NOUN'
p857
F0.9499789999999999
s(lp858
g97
atp859
a(S'druga\xc4\x8dne'
p860
(dp861
S'ADJ'
p862
F1.0
s(lp863
g118
atp864
a(S'prihodnosti'
p865
(dp866
S'NOUN'
p867
F1.0
s(lp868
g125
atp869
a(g11
(dp870
g11
F1.0
s(lp871
g11
atp872
asS'es'
p873
(lp874
(S'sin'
p875
(dp876
S'ADP'
p877
F1.0
s(lp878
tp879
a(S'duda'
p880
(dp881
S'NOUN'
p882
F1.0
s(lp883
g7
atp884
a(g9
(dp885
g11
F1.0
s(lp886
g9
atp887
a(S'nos'
p888
(dp889
S'PRON'
p890
F1.0
s(lp891
g18
atp892
a(S'brinda'
p893
(dp894
S'VERB'
p895
F1.0
s(lp896
g24
atp897
a(S'una'
p898
(dp899
S'DET'
p900
F1.0
s(lp901
g31
atp902
a(S'oportunidad'
p903
(dp904
S'NOUN'
p905
F1.0
s(lp906
g151
atp907
a(S'para'
p908
(dp909
S'CONJ'
p910
F0.952807
sS'ADP'
p911
F0.047193
s(lp912
g156
atp913
a(S'recordar'
p914
(dp915
S'VERB'
p916
F1.0
s(lp917
g38
atp918
a(g9
(dp919
g11
F1.0
s(lp920
g9
atp921
a(S'pero'
p922
(dp923
S'CONJ'
p924
F0.999918
sS'NOUN'
p925
F8.2e-05
s(lp926
g47
atp927
a(S'sobre'
p928
(dp929
S'ADV'
p930
F1.0
s(lp931
g75
atp932
a(S'todo'
p933
(dp934
S'ADV'
p935
F1.0
s(lp936
g83
atp937
a(S'debe'
p938
(dp939
S'VERB'
p940
F1.0
s(lp941
g60
atp942
a(S'ser'
p943
(dp944
S'VERB'
p945
F1.0
sS'NOUN'
p946
F0.0
s(lp947
g67
atp948
a(S'la'
p949
(dp950
S'NOUN'
p951
F0.0
sS'PRON'
p952
F0.0
sS'DET'
p953
F0.999999
sg604
F0.0
s(lp954
g90
atp955
a(S'garant\xc3\xada'
p956
(dp957
S'NOUN'
p958
F1.0
s(lp959
g97
atp960
a(S'de'
p961
(dp962
g604
F0.0
sS'CONJ'
p963
F1.7e-05
sS'ADP'
p964
F0.999982
s(lp965
g105
atp966
a(S'un'
p967
(dp968
g604
F2e-06
sS'DET'
p969
F0.999998
s(lp970
g90
atp971
a(S'futuro'
p972
(dp973
S'ADJ'
p974
F0.004907
sS'NOUN'
p975
F0.995093
s(lp976
g125
atp977
a(S'distinto'
p978
(dp979
S'ADJ'
p980
F1.0
s(lp981
g118
atp982
a(g11
(dp983
g11
F1.0
s(lp984
g11
atp985
as.