(dp0
S'fr'
p1
(lp2
(S'je'
p3
(dp4
S'PRON'
p5
F1.0
s(lp6
S'i'
p7
atp8
a(S'voudrais'
p9
(dp10
S'VERB'
p11
F1.0
s(lp12
S'would'
p13
atp14
a(S'encourager'
p15
(dp16
S'VERB'
p17
F1.0
s(lp18
S'encourage'
p19
atp20
a(S'la'
p21
(dp22
S'PRON'
p23
F6e-06
sS'DET'
p24
F0.999994
sS'NOUN'
p25
F0.0
s(lp26
S'the'
p27
atp28
a(S'commission'
p29
(dp30
S'NOUN'
p31
F1.0
s(lp32
S'commission'
p33
atp34
a(S'et'
p35
(dp36
S'CONJ'
p37
F1.0
s(lp38
S'and'
p39
atp40
a(S'les'
p41
(dp42
S'PRON'
p43
F2.3e-05
sS'DET'
p44
F0.999884
sS'ADP'
p45
F9.3e-05
s(lp46
tp47
a(S'\xc3\x89tats'
p48
(dp49
S'NOUN'
p50
F1.0
s(lp51
S'states'
p52
atp53
a(S'membres'
p54
(dp55
S'VERB'
p56
F0.157929
sS'NOUN'
p57
F0.84207
s(lp58
S'member'
p59
atp60
a(S'\xc3\xa0'
p61
(dp62
S'ADP'
p63
F1.0
s(lp64
S'to'
p65
atp66
a(S'faire'
p67
(dp68
S'VERB'
p69
F1.0
s(lp70
S'make'
p71
atp72
a(S'des'
p73
(dp74
S'DET'
p75
F0.000198
sS'ADP'
p76
F0.999802
s(lp77
tp78
a(S'efforts'
p79
(dp80
S'NOUN'
p81
F1.0
s(lp82
S'efforts'
p83
atp84
a(S'pour'
p85
(dp86
S'CONJ'
p87
F0.127766
sS'ADP'
p88
F0.872234
s(lp89
S'to'
p90
atp91
a(S'promouvoir'
p92
(dp93
S'VERB'
p94
F1.0
s(lp95
S'promote'
p96
atp97
a(S"l'"
p98
(dp99
S'ADJ'
p100
F0.050629
sS'VERB'
p101
F0.794975
sS'NOUN'
p102
F0.154398
s(lp103
S'emas'
p104
atp105
a(S'emas'
p106
(dp107
S'VERB'
p108
F0.33053
sS'NOUN'
p109
F0.66947
s(lp110
tp111
a(S','
p112
(dp113
S'.'
p114
F1.0
s(lp115
g112
atp116
a(S'notamment'
p117
(dp118
S'ADV'
p119
F1.0
s(lp120
S'especially'
p121
atp122
a(S'en'
p123
(dp124
S'PRON'
p125
F0.145863
sS'ADP'
p126
F0.854137
s(lp127
S'by'
p128
atp129
a(S'proposant'
p130
(dp131
S'ADJ'
p132
F0.011395
sS'VERB'
p133
F0.878618
sS'NOUN'
p134
F0.109988
s(lp135
S'awarding'
p136
atp137
a(S'des'
p138
(dp139
S'DET'
p140
F0.000115
sS'ADP'
p141
F0.999885
s(lp142
S'incentives'
p143
atp144
a(S'mesures'
p145
(dp146
S'VERB'
p147
F0.0
sS'NOUN'
p148
F1.0
s(lp149
g143
atp150
a(S"d'"
p151
(dp152
S'NOUN'
p153
F0.032441
sS'VERB'
p154
F0.6940129999999999
sS'ADJ'
p155
F0.273544
s(lp156
tp157
a(S'incitation'
p158
(dp159
S'NOUN'
p160
F1.0
s(lp161
g143
atp162
a(S'en'
p163
(dp164
S'PRON'
p165
F0.094754
sS'ADP'
p166
F0.905246
s(lp167
S'in'
p168
atp169
a(S'\xc3\xa9change'
p170
(dp171
S'VERB'
p172
F0.102419
sS'NOUN'
p173
F0.897581
s(lp174
S'return'
p175
atp176
a(S'de'
p177
(dp178
S'ADP'
p179
F1.0
s(lp180
S'for'
p181
atp182
a(S'la'
p183
(dp184
S'PRON'
p185
F1.2e-05
sS'DET'
p186
F0.999988
sS'NOUN'
p187
F0.0
s(lp188
tp189
a(S'participation'
p190
(dp191
S'NOUN'
p192
F1.0
s(lp193
S'participation'
p194
atp195
a(S'au'
p196
(dp197
S'ADP'
p198
F1.0
s(lp199
tp200
a(S'syst\xc3\xa8me'
p201
(dp202
S'NOUN'
p203
F1.0
s(lp204
g104
atp205
a(g114
(dp206
g114
F1.0
s(lp207
g114
atp208
asS'en'
p209
(lp210
(g7
(dp211
S'X'
p212
F0.024389
sS'NOUN'
p213
F0.97561
s(lp214
g7
atp215
a(g13
(dp216
S'VERB'
p217
F1.0
s(lp218
g13
atp219
a(g19
(dp220
S'VERB'
p221
F1.0
s(lp222
g19
atp223
a(g27
(dp224
S'NOUN'
p225
F1e-06
sS'DET'
p226
F0.999999
s(lp227
g27
atp228
a(g33
(dp229
S'VERB'
p230
F4.9999999999999996e-06
sS'NOUN'
p231
F0.999995
s(lp232
g33
atp233
a(g39
(dp234
S'CONJ'
p235
F0.999998
sS'NOUN'
p236
F2e-06
s(lp237
g39
atp238
a(g59
(dp239
S'NOUN'
p240
F1.0
s(lp241
g59
atp242
a(g52
(dp243
S'VERB'
p244
F0.052095
sS'NOUN'
p245
F0.947905
s(lp246
g52
atp247
a(g65
(dp248
S'ADV'
p249
F0.0
sS'PRT'
p250
F1.0
sS'ADP'
p251
F0.0
s(lp252
g65
atp253
a(g71
(dp254
S'VERB'
p255
F0.99986
sS'NOUN'
p256
F0.00014
s(lp257
g71
atp258
a(g83
(dp259
S'NOUN'
p260
F1.0
s(lp261
g83
atp262
a(g90
(dp263
S'ADV'
p264
F0.0
sS'PRT'
p265
F1.0
sS'ADP'
p266
F0.0
s(lp267
g90
atp268
a(g96
(dp269
S'VERB'
p270
F1.0
s(lp271
g96
atp272
a(g104
(dp273
S'NOUN'
p274
F1.0
s(lp275
g104
atp276
a(g112
(dp277
g114
F1.0
s(lp278
g112
atp279
a(g121
(dp280
S'ADV'
p281
F1.0
s(lp282
g121
atp283
a(g128
(dp284
S'ADV'
p285
F0.001157
sS'NOUN'
p286
F0.0
sS'ADP'
p287
F0.998843
s(lp288
g128
atp289
a(g136
(dp290
S'VERB'
p291
F0.757115
sS'NOUN'
p292
F0.242885
s(lp293
g136
atp294
a(g143
(dp295
S'NOUN'
p296
F1.0
s(lp297
g143
atp298
a(g168
(dp299
S'ADV'
p300
F0.000264
sS'PRT'
p301
F0.000163
sS'ADP'
p302
F0.999572
s(lp303
g168
atp304
a(g175
(dp305
S'VERB'
p306
F0.001403
sS'NOUN'
p307
F0.998597
s(lp308
g175
atp309
a(g181
(dp310
S'ADP'
p311
F1.0
s(lp312
g181
atp313
a(g194
(dp314
S'NOUN'
p315
F1.0
s(lp316
g194
atp317
a(g114
(dp318
g114
F1.0
s(lp319
g114
atp320
asS'nl'
p321
(lp322
(S'ik'
p323
(dp324
S'PRON'
p325
F0.999996
sS'NOUN'
p326
F4e-06
s(lp327
g7
atp328
a(S'moedig'
p329
(dp330
S'ADJ'
p331
F1.0
s(lp332
g19
atp333
a(S'de'
p334
(dp335
S'DET'
p336
F1.0
s(lp337
g27
atp338
a(S'commissie'
p339
(dp340
S'NOUN'
p341
F1.0
s(lp342
g33
atp343
a(S'en'
p344
(dp345
S'CONJ'
p346
F1.0
s(lp347
g39
atp348
a(S'de'
p349
(dp350
S'DET'
p351
F1.0
s(lp352
tp353
a(S'lidstaten'
p354
(dp355
S'NOUN'
p356
F1.0
s(lp357
g59
atp358
a(S'aan'
p359
(dp360
S'ADV'
p361
F0.595996
sS'ADP'
p362
F0.404004
s(lp363
g65
atp364
a(S'om'
p365
(dp366
S'ADV'
p367
F0.003775
sS'CONJ'
p368
F0.700112
sS'ADP'
p369
F0.296112
s(lp370
tp371
a(S'emas'
p372
(dp373
S'ADV'
p374
F0.004929
sS'NOUN'
p375
F0.9950709999999999
s(lp376
g104
atp377
a(S'te'
p378
(dp379
S'PRT'
p380
F1.0
s(lp381
g90
atp382
a(S'promoten'
p383
(dp384
S'VERB'
p385
F0.9999990000000001
sS'NOUN'
p386
F1e-06
s(lp387
g96
atp388
a(g112
(dp389
g114
F1.0
s(lp390
g112
atp391
a(S'met'
p392
(dp393
S'ADP'
p394
F1.0
s(lp395
tp396
a(S'name'
p397
(dp398
S'NOUN'
p399
F1.0
s(lp400
g121
atp401
a(S'door'
p402
(dp403
S'ADV'
p404
F0.070968
sS'CONJ'
p405
F0.019457
sS'ADP'
p406
F0.909575
s(lp407
g128
atp408
a(S'te'
p409
(dp410
S'PRT'
p411
F1.0
s(lp412
tp413
a(S'zorgen'
p414
(dp415
S'VERB'
p416
F0.99531
sS'NOUN'
p417
F0.00469
s(lp418
g71
atp419
a(S'voor'
p420
(dp421
S'ADV'
p422
F0.000521
sS'CONJ'
p423
F2.9e-05
sS'NOUN'
p424
F0.0
sS'ADP'
p425
F0.99945
s(lp426
tp427
a(S'prikkels'
p428
(dp429
S'NOUN'
p430
F1.0
s(lp431
g143
atp432
a(S'om'
p433
(dp434
S'ADV'
p435
F0.027998
sS'CONJ'
p436
F0.917802
sS'ADP'
p437
F0.054201
s(lp438
g181
atp439
a(S'aan'
p440
(dp441
S'ADV'
p442
F0.028835
sS'ADP'
p443
F0.971165
s(lp444
tp445
a(S'het'
p446
(dp447
S'PRON'
p448
F0.000952
sS'DET'
p449
F0.999048
s(lp450
g136
atp451
a(S'systeem'
p452
(dp453
S'NOUN'
p454
F1.0
s(lp455
tp456
a(S'deel'
p457
(dp458
S'VERB'
p459
F0.190793
sS'NOUN'
p460
F0.809207
s(lp461
g104
atp462
a(S'te'
p463
(dp464
S'PRT'
p465
F1.0
s(lp466
g65
atp467
a(S'nemen'
p468
(dp469
S'VERB'
p470
F1.0
sS'NOUN'
p471
F0.0
s(lp472
g194
atp473
a(g114
(dp474
g114
F1.0
s(lp475
g114
atp476
asS'de'
p477
(lp478
(S'ich'
p479
(dp480
S'PRON'
p481
F1.0
s(lp482
g7
atp483
a(S'w\xc3\xbcrde'
p484
(dp485
S'VERB'
p486
F1.0
s(lp487
g13
atp488
a(S'der'
p489
(dp490
S'PRON'
p491
F0.000917
sS'DET'
p492
F0.999082
s(lp493
g27
atp494
a(S'kommission'
p495
(dp496
S'ADJ'
p497
F0.225047
sS'NOUN'
p498
F0.750645
s(lp499
g33
atp500
a(S'und'
p501
(dp502
S'CONJ'
p503
F1.0
s(lp504
g39
atp505
a(S'den'
p506
(dp507
S'PRON'
p508
F0.013559
sS'DET'
p509
F0.985039
s(lp510
g52
atp511
a(S'mitgliedstaaten'
p512
(dp513
S'ADJ'
p514
F0.077447
sS'NOUN'
p515
F0.897055
s(lp516
g59
atp517
a(S'dringend'
p518
(dp519
S'ADJ'
p520
F1.0
s(lp521
g104
atp522
a(S'nahelegen'
p523
(dp524
S'VERB'
p525
F1.0
s(lp526
g104
atp527
a(g112
(dp528
g114
F1.0
s(lp529
g65
atp530
a(S'das'
p531
(dp532
S'PRON'
p533
F0.226578
sS'DET'
p534
F0.677494
s(lp535
tp536
a(S'emas'
p537
(dp538
S'ADJ'
p539
F0.188936
sS'NOUN'
p540
F0.775576
s(lp541
g104
atp542
a(S'durch'
p543
(dp544
S'ADV'
p545
F0.048549
sS'PRT'
p546
F0.946568
s(lp547
g128
atp548
a(S'anreize'
p549
(dp550
S'VERB'
p551
F1.0
s(lp552
g143
atp553
a(S'als'
p554
(dp555
S'CONJ'
p556
F0.998938
s(lp557
g168
atp558
a(S'gegenleistung'
p559
(dp560
S'ADJ'
p561
F0.002139
sS'NOUN'
p562
F0.997492
s(lp563
g175
atp564
a(S'f\xc3\xbcr'
p565
(dp566
S'ADP'
p567
F1.0
s(lp568
g181
atp569
a(S'die'
p570
(dp571
S'PRON'
p572
F0.000301
sS'DET'
p573
F0.999628
s(lp574
tp575
a(S'teilnahme'
p576
(dp577
S'ADJ'
p578
F0.036242
sS'NOUN'
p579
F0.962793
s(lp580
g194
atp581
a(S'zu'
p582
(dp583
S'PRT'
p584
F0.999976
s(lp585
g90
atp586
a(S'f\xc3\xb6rdern'
p587
(dp588
S'VERB'
p589
F1.0
s(lp590
g96
atp591
a(g114
(dp592
g114
F1.0
s(lp593
g114
atp594
asS'it'
p595
(lp596
(S'esorto'
p597
(dp598
S'VERB'
p599
F1.0
s(lp600
g19
atp601
a(S'la'
p602
(dp603
S'PRON'
p604
F0.0
sS'DET'
p605
F1.0
s(lp606
g27
atp607
a(S'commissione'
p608
(dp609
S'NOUN'
p610
F1.0
s(lp611
g33
atp612
a(S'e'
p613
(dp614
S'CONJ'
p615
F1.0
s(lp616
g39
atp617
a(S'gli'
p618
(dp619
S'PRON'
p620
F0.043568
sS'DET'
p621
F0.956432
s(lp622
tp623
a(S'stati'
p624
(dp625
S'VERB'
p626
F0.440917
sS'NOUN'
p627
F0.559083
s(lp628
g52
atp629
a(S'membri'
p630
(dp631
S'NOUN'
p632
F1.0
s(lp633
g59
atp634
a(S'ad'
p635
(dp636
S'ADP'
p637
F1.0
s(lp638
g65
atp639
a(S'impegnarsi'
p640
(dp641
S'VERB'
p642
F1.0
s(lp643
g83
atp644
a(S'al'
p645
(dp646
S'ADP'
p647
F1.0
s(lp648
g90
atp649
a(S'fine'
p650
(dp651
S'ADJ'
p652
F0.01644
sS'NOUN'
p653
F0.98356
s(lp654
tp655
a(S'di'
p656
(dp657
S'CONJ'
p658
F6e-06
sS'ADP'
p659
F0.999994
s(lp660
tp661
a(S'promuovere'
p662
(dp663
S'VERB'
p664
F1.0
s(lp665
g96
atp666
a(S"l'"
p667
(dp668
S'NOUN'
p669
F0.012178
sS'VERB'
p670
F0.890187
sS'ADJ'
p671
F0.097635
s(lp672
tp673
a(S'emas'
p674
(dp675
S'ADJ'
p676
F0.44795
sS'VERB'
p677
F0.050008
sS'NOUN'
p678
F0.502042
s(lp679
g104
atp680
a(g112
(dp681
g114
F1.0
s(lp682
g112
atp683
a(S'in'
p684
(dp685
S'ADP'
p686
F1.0
s(lp687
tp688
a(S'particolare'
p689
(dp690
S'ADJ'
p691
F0.43222
sS'NOUN'
p692
F0.56778
s(lp693
g121
atp694
a(S'premiando'
p695
(dp696
S'VERB'
p697
F0.921233
sS'NOUN'
p698
F0.078767
s(lp699
g136
atp700
a(S'la'
p701
(dp702
S'PRON'
p703
F7.5e-05
sS'DET'
p704
F0.999925
s(lp705
tp706
a(S'partecipazione'
p707
(dp708
S'NOUN'
p709
F1.0
s(lp710
g194
atp711
a(S'al'
p712
(dp713
S'ADP'
p714
F1.0
s(lp715
g168
atp716
a(S'programma'
p717
(dp718
S'VERB'
p719
F0.000196
sS'NOUN'
p720
F0.999804
s(lp721
g175
atp722
a(S'con'
p723
(dp724
S'ADP'
p725
F1.0
s(lp726
g181
atp727
a(S'degli'
p728
(dp729
S'DEF'
p730
F0.48854
sS'ADP'
p731
F0.51146
s(lp732
tp733
a(S'incentivi'
p734
(dp735
S'VERB'
p736
F4.9999999999999996e-06
sS'NOUN'
p737
F0.999995
s(lp738
g143
atp739
a(g114
(dp740
g114
F1.0
s(lp741
g114
atp742
asS'sk'
p743
(lp744
(S'chcela'
p745
(dp746
S'VERB'
p747
F1.0
s(lp748
tp749
a(S'by'
p750
(dp751
S'PRT'
p752
F0.999999
sg212
F1e-06
s(lp753
g13
atp754
a(S'som'
p755
(dp756
S'VERB'
p757
F1.0
s(lp758
g7
atp759
a(S'povzbudi\xc5\xa5'
p760
(dp761
S'VERB'
p762
F1.0
s(lp763
g19
atp764
a(S'komisiu'
p765
(dp766
S'NOUN'
p767
F1.0
s(lp768
g33
atp769
a(S'a'
p770
(dp771
g212
F0.001578
sS'CONJ'
p772
F0.997329
sS'NOUN'
p773
F0.00023999999999999998
sS'ADP'
p774
F0.00078
sS'PRT'
p775
F7.2e-05
s(lp776
g39
atp777
a(S'\xc4\x8dlensk\xc3\xa9'
p778
(dp779
S'NOUN'
p780
F0.00336
sS'ADJ'
p781
F0.9966400000000001
s(lp782
g59
atp783
a(S'\xc5\xa1t\xc3\xa1ty'
p784
(dp785
S'NOUN'
p786
F1.0
s(lp787
g52
atp788
a(g112
(dp789
g114
F1.0
s(lp790
tp791
a(S'aby'
p792
(dp793
g212
F8.2e-05
sS'CONJ'
p794
F0.999918
s(lp795
g65
atp796
a(S'vyv\xc3\xadjali'
p797
(dp798
S'VERB'
p799
F0.9999999999999999
s(lp800
g71
atp801
a(S'\xc3\xbasilie'
p802
(dp803
S'NOUN'
p804
F1.0
s(lp805
tp806
a(S'zameran\xc3\xa9'
p807
(dp808
S'VERB'
p809
F1.0
s(lp810
g83
atp811
a(S'na'
p812
(dp813
g212
F0.000221
sS'CONJ'
p814
F1.6e-05
sS'ADP'
p815
F0.999759
sS'PRT'
p816
F4e-06
s(lp817
g90
atp818
a(S'podporu'
p819
(dp820
S'NOUN'
p821
F1.0
s(lp822
g96
atp823
a(S'syst\xc3\xa9mu'
p824
(dp825
S'NOUN'
p826
F1.0
s(lp827
g104
atp828
a(S'emas'
p829
(dp830
S'ADV'
p831
F0.008081
sg212
F0.001484
sS'ADJ'
p832
F0.000619
sS'VERB'
p833
F0.3321140000000001
sS'NOUN'
p834
F0.657702
s(lp835
tp836
a(g112
(dp837
g114
F1.0
s(lp838
tp839
a(g770
(dp840
g212
F0.000192
sS'CONJ'
p841
F0.999783
sS'NOUN'
p842
F2e-06
sS'ADP'
p843
F1.8e-05
sS'PRT'
p844
F5e-06
s(lp845
g112
atp846
a(S'to'
p847
(dp848
S'PRON'
p849
F0.9704579999999999
sS'CONJ'
p850
F0.014463
sg212
F0.015079
s(lp851
tp852
a(S'najm\xc3\xa4'
p853
(dp854
g212
F1.0
s(lp855
g121
atp856
a(S'prostredn\xc3\xadctvom'
p857
(dp858
S'NOUN'
p859
F0.001414
sS'ADP'
p860
F0.998586
s(lp861
g128
atp862
a(S'ude\xc4\xbeovania'
p863
(dp864
S'NOUN'
p865
F1.0
s(lp866
tp867
a(S'ur\xc4\x8dit\xc3\xbdch'
p868
(dp869
S'ADJ'
p870
F1.0
s(lp871
g136
atp872
a(S'v\xc3\xbdhod'
p873
(dp874
S'NOUN'
p875
F1.0
s(lp876
g143
atp877
a(S'za'
p878
(dp879
S'PRT'
p880
F3.2e-05
sS'ADP'
p881
F0.999951
sg212
F1.6e-05
s(lp882
g181
atp883
a(S'\xc3\xba\xc4\x8das\xc5\xa5'
p884
(dp885
S'NOUN'
p886
F1.0
s(lp887
g194
atp888
a(S'v'
p889
(dp890
g212
F0.000506
sS'ADP'
p891
F0.999495
s(lp892
g168
atp893
a(S'syst\xc3\xa9me'
p894
(dp895
S'NOUN'
p896
F1.0
s(lp897
g104
atp898
a(g114
(dp899
g114
F1.0
s(lp900
g114
atp901
asS'pl'
p902
(lp903
(S'zach\xc4\x99ca\xc5\x82abym'
p904
(dp905
S'ADV'
p906
F0.017385
sS'NOUN'
p907
F0.09407099999999999
sS'VERB'
p908
F0.5710740000000001
sS'ADJ'
p909
F0.3174700000000001
s(lp910
g19
atp911
a(S'komisj\xc4\x99'
p912
(dp913
S'NOUN'
p914
F1.0
s(lp915
g33
atp916
a(g7
(dp917
S'PRT'
p918
F0.000403
sS'CONJ'
p919
F0.999586
sS'NOUN'
p920
F4e-06
sg212
F2e-06
sS'PRON'
p921
F4.9999999999999996e-06
s(lp922
g39
atp923
a(S'pa\xc5\x84stwa'
p924
(dp925
S'NOUN'
p926
F1.0000000000000002
s(lp927
g52
atp928
a(S'cz\xc5\x82onkowskie'
p929
(dp930
S'ADJ'
p931
F1.0
s(lp932
g59
atp933
a(S'do'
p934
(dp935
g212
F0.0
sS'NOUN'
p936
F3e-06
sS'ADP'
p937
F0.999997
s(lp938
g65
atp939
a(S'czynienia'
p940
(dp941
S'VERB'
p942
F0.972901
sS'NOUN'
p943
F0.027099
s(lp944
g71
atp945
a(S'wysi\xc5\x82k\xc3\xb3w'
p946
(dp947
S'NOUN'
p948
F1.0
s(lp949
tp950
a(S'zmierzaj\xc4\x85cych'
p951
(dp952
S'VERB'
p953
F1.0
s(lp954
g83
atp955
a(S'do'
p956
(dp957
g212
F0.0
sS'NOUN'
p958
F3e-06
sS'ADP'
p959
F0.999997
s(lp960
g90
atp961
a(S'promowania'
p962
(dp963
S'VERB'
p964
F1.0
s(lp965
g96
atp966
a(S'emas'
p967
(dp968
S'ADV'
p969
F0.000202
sg212
F0.000206
sS'VERB'
p970
F0.011153999999999997
sS'NOUN'
p971
F0.9884379999999999
s(lp972
g104
atp973
a(g112
(dp974
g212
F1e-06
sg114
F0.999999
s(lp975
g112
atp976
a(S'szczeg\xc3\xb3lnie'
p977
(dp978
S'ADV'
p979
F0.688646
sS'PRT'
p980
F0.311354
s(lp981
g121
atp982
a(S'poprzez'
p983
(dp984
S'ADP'
p985
F1.0
s(lp986
g128
atp987
a(S'oferowanie'
p988
(dp989
S'ADV'
p990
F0.000186
sS'ADJ'
p991
F0.000239
sS'VERB'
p992
F0.8576060000000001
sS'NOUN'
p993
F0.14197000000000004
s(lp994
g136
atp995
a(S'zach\xc4\x99t'
p996
(dp997
S'NOUN'
p998
F1.0
s(lp999
g143
atp1000
a(S'w'
p1001
(dp1002
g212
F0.0
sS'ADJ'
p1003
F0.0
sS'ADP'
p1004
F0.999999
sS'NOUN'
p1005
F0.0
s(lp1006
g168
atp1007
a(S'zamian'
p1008
(dp1009
S'ADV'
p1010
F1.0
s(lp1011
g175
atp1012
a(S'za'
p1013
(dp1014
S'PRT'
p1015
F0.006921
sS'VERB'
p1016
F0.000231
sS'NOUN'
p1017
F5e-06
sS'ADP'
p1018
F0.9928390000000001
sg212
F4e-06
s(lp1019
g181
atp1020
a(S'uczestnictwo'
p1021
(dp1022
S'NOUN'
p1023
F1.0
s(lp1024
tp1025
a(g1001
(dp1026
S'ADJ'
p1027
F0.0
sg212
F0.0
sS'NOUN'
p1028
F0.0
sS'ADP'
p1029
F1.0
s(lp1030
tp1031
a(S'programie'
p1032
(dp1033
S'NOUN'
p1034
F1.0
s(lp1035
g194
atp1036
a(g114
(dp1037
g114
F1.0
s(lp1038
g114
atp1039
asS'sl'
p1040
(lp1041
(S'rada'
p1042
(dp1043
S'ADV'
p1044
F1.0
s(lp1045
g7
atp1046
a(S'bi'
p1047
(dp1048
g212
F9.8e-05
sS'VERB'
p1049
F0.999902
s(lp1050
g13
atp1051
a(S'spodbudila'
p1052
(dp1053
S'VERB'
p1054
F1.0
s(lp1055
g19
atp1056
a(S'komisijo'
p1057
(dp1058
S'NOUN'
p1059
F1.0
s(lp1060
g33
atp1061
a(S'in'
p1062
(dp1063
S'ADV'
p1064
F3.3e-05
sg212
F6e-06
sS'CONJ'
p1065
F0.999918
sS'NOUN'
p1066
F4.4e-05
s(lp1067
g39
atp1068
a(S'dr\xc5\xbeave'
p1069
(dp1070
S'NOUN'
p1071
F1.0
s(lp1072
g59
atp1073
a(S'\xc4\x8dlanice'
p1074
(dp1075
S'NOUN'
p1076
F1.0
s(lp1077
g52
atp1078
a(g112
(dp1079
g114
F1.0
s(lp1080
tp1081
a(S'naj'
p1082
(dp1083
S'PRT'
p1084
F0.029991
sS'CONJ'
p1085
F0.970007
sS'ADJ'
p1086
F1e-06
s(lp1087
g65
atp1088
a(S'si'
p1089
(dp1090
S'PRON'
p1091
F0.988935
sS'VERB'
p1092
F0.011065
s(lp1093
g71
atp1094
a(S'prizadevajo'
p1095
(dp1096
S'VERB'
p1097
F1.0
s(lp1098
g83
atp1099
a(S'spodbujati'
p1100
(dp1101
S'VERB'
p1102
F1.0
s(lp1103
g96
atp1104
a(S'emas'
p1105
(dp1106
S'ADV'
p1107
F0.039321
sg212
F0.001969
sS'ADJ'
p1108
F0.006873
sS'NOUN'
p1109
F0.9518339999999998
s(lp1110
g104
atp1111
a(g112
(dp1112
g114
F1.0
s(lp1113
g112
atp1114
a(S'zlasti'
p1115
(dp1116
S'ADV'
p1117
F0.025436
sS'PRT'
p1118
F0.974564
s(lp1119
g121
atp1120
a(S'z'
p1121
(dp1122
S'ADP'
p1123
F1.0
s(lp1124
g128
atp1125
a(S'dodeljevanjem'
p1126
(dp1127
S'ADV'
p1128
F1.4e-05
sS'ADJ'
p1129
F1e-06
sS'VERB'
p1130
F0.0
sS'NOUN'
p1131
F0.9999819999999999
s(lp1132
g136
atp1133
a(S'spodbud'
p1134
(dp1135
S'NOUN'
p1136
F1.0
s(lp1137
g143
atp1138
a(g889
(dp1139
S'ADP'
p1140
F1.0
s(lp1141
g168
atp1142
a(S'zameno'
p1143
(dp1144
S'NOUN'
p1145
F1.0
s(lp1146
g175
atp1147
a(S'za'
p1148
(dp1149
S'ADV'
p1150
F4e-06
sg212
F0.0
sS'ADP'
p1151
F0.999996
s(lp1152
g181
atp1153
a(S'sodelovanje'
p1154
(dp1155
S'NOUN'
p1156
F1.0
s(lp1157
g194
atp1158
a(g114
(dp1159
g114
F1.0
s(lp1160
g114
atp1161
asS'es'
p1162
(lp1163
(S'me'
p1164
(dp1165
S'PRON'
p1166
F0.999999
sS'NOUN'
p1167
F1e-06
s(lp1168
g7
atp1169
a(S'gustar\xc3\xada'
p1170
(dp1171
S'VERB'
p1172
F1.0
s(lp1173
g13
atp1174
a(S'animar'
p1175
(dp1176
S'VERB'
p1177
F1.0
s(lp1178
g19
atp1179
a(g770
(dp1180
g212
F0.000259
sS'CONJ'
p1181
F5e-06
sS'ADP'
p1182
F0.999736
s(lp1183
tp1184
a(S'la'
p1185
(dp1186
g212
F1e-06
sS'PRON'
p1187
F0.0
sS'DET'
p1188
F0.999999
sS'NOUN'
p1189
F0.0
s(lp1190
g27
atp1191
a(S'comisi\xc3\xb3n'
p1192
(dp1193
S'NOUN'
p1194
F1.0
s(lp1195
g33
atp1196
a(S'y'
p1197
(dp1198
g212
F0.001034
sS'CONJ'
p1199
F0.998966
s(lp1200
g39
atp1201
a(g770
(dp1202
g212
F0.001112
sS'CONJ'
p1203
F0.0
sS'ADP'
p1204
F0.998888
s(lp1205
tp1206
a(S'los'
p1207
(dp1208
S'PRON'
p1209
F0.0
sS'DET'
p1210
F1.0
s(lp1211
tp1212
a(S'estados'
p1213
(dp1214
S'NOUN'
p1215
F1.0
s(lp1216
g52
atp1217
a(S'miembros'
p1218
(dp1219
S'NOUN'
p1220
F1.0
s(lp1221
g59
atp1222
a(g770
(dp1223
g212
F0.013781
sS'CONJ'
p1224
F0.000883
sS'ADP'
p1225
F0.985336
s(lp1226
tp1227
a(S'que'
p1228
(dp1229
g212
F2e-06
sS'CONJ'
p1230
F0.999998
s(lp1231
g65
atp1232
a(S'realicen'
p1233
(dp1234
S'VERB'
p1235
F1.0
s(lp1236
g71
atp1237
a(S'un'
p1238
(dp1239
g212
F1e-06
sS'DET'
p1240
F0.999999
s(lp1241
tp1242
a(S'esfuerzo'
p1243
(dp1244
S'NOUN'
p1245
F1.0
s(lp1246
g83
atp1247
a(S'para'
p1248
(dp1249
S'CONJ'
p1250
F0.952807
sS'ADP'
p1251
F0.047193
s(lp1252
g90
atp1253
a(S'promover'
p1254
(dp1255
S'VERB'
p1256
F1.0
s(lp1257
g96
atp1258
a(S'el'
p1259
(dp1260
S'PRON'
p1261
F0.000309
sS'DET'
p1262
F0.999691
s(lp1263
tp1264
a(S'emas'
p1265
(dp1266
S'ADV'
p1267
F0.000874
sS'ADJ'
p1268
F0.3047
sS'VERB'
p1269
F0.026902
sS'NOUN'
p1270
F0.667523
s(lp1271
g104
atp1272
a(g112
(dp1273
g114
F1.0
s(lp1274
g112
atp1275
a(S'en'
p1276
(dp1277
S'ADV'
p1278
F0.89262
sS'ADJ'
p1279
F0.10738
s(lp1280
tp1281
a(S'especial'
p1282
(dp1283
S'ADV'
p1284
F0.89262
sS'ADJ'
p1285
F0.10738
s(lp1286
g121
atp1287
a(S'concediendo'
p1288
(dp1289
S'VERB'
p1290
F1.0
s(lp1291
g136
atp1292
a(S'incentivos'
p1293
(dp1294
S'ADJ'
p1295
F0.106538
sS'NOUN'
p1296
F0.893462
s(lp1297
g143
atp1298
a(g770
(dp1299
S'ADP'
p1300
F1.0
s(lp1301
g168
atp1302
a(S'cambio'
p1303
(dp1304
S'ADP'
p1305
F1.0
s(lp1306
g175
atp1307
a(S'de'
p1308
(dp1309
S'ADP'
p1310
F1.0
s(lp1311
g181
atp1312
a(S'la'
p1313
(dp1314
S'NOUN'
p1315
F0.0
sS'PRON'
p1316
F0.0
sS'DET'
p1317
F0.999999
sg212
F0.0
s(lp1318
tp1319
a(S'participaci\xc3\xb3n'
p1320
(dp1321
S'NOUN'
p1322
F1.0
s(lp1323
g194
atp1324
a(g114
(dp1325
g114
F1.0
s(lp1326
g114
atp1327
as.