(dp0
S'fr'
p1
(lp2
(S"c'"
p3
(dp4
S'ADJ'
p5
F0.079749
sS'VERB'
p6
F0.5393100000000001
sS'NOUN'
p7
F0.380941
s(lp8
S'that'
p9
atp10
a(S'est'
p11
(dp12
S'VERB'
p13
F0.999409
sS'NOUN'
p14
F0.000591
s(lp15
S'is'
p16
atp17
a(S'la'
p18
(dp19
S'PRON'
p20
F0.000114
sS'DET'
p21
F0.999875
sS'NOUN'
p22
F1e-05
s(lp23
S'the'
p24
atp25
a(S'bonne'
p26
(dp27
S'ADV'
p28
F0.001391
sS'NOUN'
p29
F0.008976
sS'ADJ'
p30
F0.989633
s(lp31
S'right'
p32
atp33
a(S'mani\xc3\xa8re'
p34
(dp35
S'VERB'
p36
F0.014675
sS'NOUN'
p37
F0.985325
s(lp38
S'way'
p39
atp40
a(S'de'
p41
(dp42
S'ADP'
p43
F1.0
s(lp44
S'to'
p45
atp46
a(S'proc\xc3\xa9der'
p47
(dp48
S'VERB'
p49
F1.0
s(lp50
S'go'
p51
atp52
a(S'et'
p53
(dp54
S'CONJ'
p55
F1.0
s(lp56
S'and'
p57
atp58
a(S'cela'
p59
(dp60
S'PRON'
p61
F0.999995
sS'VERB'
p62
F5e-06
s(lp63
S'it'
p64
atp65
a(S'implique'
p66
(dp67
S'VERB'
p68
F1.0
s(lp69
S'involves'
p70
atp71
a(S'\xc3\xa9galement'
p72
(dp73
S'ADV'
p74
F1.0
s(lp75
S'also'
p76
atp77
a(S'un'
p78
(dp79
S'NOUN'
p80
F0.00193
sS'NUM'
p81
F0.002231
sS'DET'
p82
F0.995839
s(lp83
S'a'
p84
atp85
a(S'meilleur'
p86
(dp87
S'ADJ'
p88
F1.0
s(lp89
S'better'
p90
atp91
a(S'\xc3\xa9quilibre'
p92
(dp93
S'VERB'
p94
F0.08122700000000001
sS'NOUN'
p95
F0.918773
s(lp96
S'balance'
p97
atp98
a(S'entre'
p99
(dp100
S'VERB'
p101
F0.000488
sS'ADP'
p102
F0.999512
s(lp103
S'between'
p104
atp105
a(S'les'
p106
(dp107
S'PRON'
p108
F5.6e-05
sS'DET'
p109
F0.999943
sS'ADP'
p110
F2e-06
s(lp111
tp112
a(S'd\xc3\xa9veloppements'
p113
(dp114
S'NOUN'
p115
F1.0
s(lp116
S'developments'
p117
atp118
a(S'et'
p119
(dp120
S'CONJ'
p121
F1.0
s(lp122
S'and'
p123
atp124
a(S'les'
p125
(dp126
S'PRON'
p127
F0.000497
sS'DET'
p128
F0.99949
sS'ADP'
p129
F1.3e-05
s(lp130
tp131
a(S'besoins'
p132
(dp133
S'NOUN'
p134
F1.0
s(lp135
S'needs'
p136
atp137
a(S'\xc3\xa9conomiques'
p138
(dp139
S'NOUN'
p140
F0.004999
sS'ADJ'
p141
F0.995001
s(lp142
S'economic'
p143
atp144
a(S','
p145
(dp146
S'.'
p147
F1.0
s(lp148
g145
atp149
a(S'sociaux'
p150
(dp151
S'ADJ'
p152
F1.0
s(lp153
S'social'
p154
atp155
a(S'et'
p156
(dp157
S'CONJ'
p158
F1.0
s(lp159
S'and'
p160
atp161
a(S'environnementaux'
p162
(dp163
S'ADJ'
p164
F1.0
s(lp165
S'environmental'
p166
atp167
a(g147
(dp168
g147
F1.0
s(lp169
g147
atp170
asS'en'
p171
(lp172
(g9
(dp173
S'ADV'
p174
F0.008261
sS'DET'
p175
F0.991729
sS'ADP'
p176
F9e-06
s(lp177
g9
atp178
a(g16
(dp179
S'VERB'
p180
F1.0
s(lp181
g16
atp182
a(g24
(dp183
S'NOUN'
p184
F0.0
sS'DET'
p185
F1.0
s(lp186
g24
atp187
a(g32
(dp188
S'ADV'
p189
F0.004193
sS'NOUN'
p190
F0.298382
sS'VERB'
p191
F2e-06
sS'ADJ'
p192
F0.697423
s(lp193
g32
atp194
a(g39
(dp195
S'ADV'
p196
F0.002023
sS'NOUN'
p197
F0.997977
s(lp198
g39
atp199
a(g45
(dp200
S'ADV'
p201
F0.0
sS'PRT'
p202
F1.0
sS'ADP'
p203
F0.0
s(lp204
g45
atp205
a(g51
(dp206
S'ADJ'
p207
F0.000172
sS'VERB'
p208
F0.999285
sS'NOUN'
p209
F0.000543
s(lp210
g51
atp211
a(g57
(dp212
S'CONJ'
p213
F0.999991
sS'NOUN'
p214
F9e-06
s(lp215
g57
atp216
a(g64
(dp217
S'PRON'
p218
F1.0
s(lp219
g64
atp220
a(g76
(dp221
S'ADV'
p222
F1.0
s(lp223
g76
atp224
a(g70
(dp225
S'VERB'
p226
F1.0
s(lp227
g70
atp228
a(g84
(dp229
S'NOUN'
p230
F0.0
sS'DET'
p231
F1.0
s(lp232
g84
atp233
a(g90
(dp234
S'ADV'
p235
F0.016273
sS'NOUN'
p236
F0.000425
sS'VERB'
p237
F1.9e-05
sS'ADJ'
p238
F0.983283
s(lp239
g90
atp240
a(g97
(dp241
S'VERB'
p242
F0.000329
sS'NOUN'
p243
F0.999671
s(lp244
g97
atp245
a(g104
(dp246
S'ADV'
p247
F0.000446
sS'ADP'
p248
F0.999554
s(lp249
g104
atp250
a(g143
(dp251
S'ADJ'
p252
F1.0
s(lp253
g143
atp254
a(g145
(dp255
g147
F1.0
s(lp256
g145
atp257
a(g154
(dp258
S'NOUN'
p259
F0.003486
sS'ADJ'
p260
F0.996514
s(lp261
g154
atp262
a(g160
(dp263
S'CONJ'
p264
F0.999998
sS'NOUN'
p265
F2e-06
s(lp266
g160
atp267
a(g166
(dp268
S'ADJ'
p269
F1.0
s(lp270
g166
atp271
a(g117
(dp272
S'NOUN'
p273
F1.0
s(lp274
g117
atp275
a(g123
(dp276
S'CONJ'
p277
F0.999998
sS'NOUN'
p278
F2e-06
s(lp279
g123
atp280
a(g136
(dp281
S'ADV'
p282
F0.007005
sS'VERB'
p283
F0.335233
sS'NOUN'
p284
F0.657762
s(lp285
g136
atp286
a(g147
(dp287
g147
F1.0
s(lp288
g147
atp289
asS'nl'
p290
(lp291
(S'dat'
p292
(dp293
S'PRON'
p294
F0.597317
sS'CONJ'
p295
F0.402683
s(lp296
g9
atp297
a(S'is'
p298
(dp299
S'VERB'
p300
F1.0
s(lp301
g16
atp302
a(S'de'
p303
(dp304
S'DET'
p305
F1.0
s(lp306
g24
atp307
a(S'juiste'
p308
(dp309
S'NOUN'
p310
F0.052056
sS'ADJ'
p311
F0.947944
s(lp312
g32
atp313
a(S'weg'
p314
(dp315
S'ADV'
p316
F0.050014
sS'NOUN'
p317
F0.949986
s(lp318
g39
atp319
a(g145
(dp320
g147
F1.0
s(lp321
tp322
a(S'en'
p323
(dp324
S'CONJ'
p325
F1.0
s(lp326
g57
atp327
a(S'dat'
p328
(dp329
S'PRON'
p330
F0.877262
sS'CONJ'
p331
F0.122738
s(lp332
g64
atp333
a(S'betekent'
p334
(dp335
S'VERB'
p336
F1.0
s(lp337
g70
atp338
a(S'ook'
p339
(dp340
S'ADV'
p341
F1.0
s(lp342
g76
atp343
a(S'dat'
p344
(dp345
S'PRON'
p346
F0.003938
sS'CONJ'
p347
F0.996062
s(lp348
g70
atp349
a(S'we'
p350
(dp351
S'PRON'
p352
F1.0
s(lp353
tp354
a(S'een'
p355
(dp356
S'ADJ'
p357
F5e-06
sS'PRON'
p358
F0.000529
sS'NUM'
p359
F1e-06
sS'DET'
p360
F0.999465
s(lp361
g84
atp362
a(S'beter'
p363
(dp364
S'ADV'
p365
F6.3e-05
sS'VERB'
p366
F1e-06
sS'ADJ'
p367
F0.999936
s(lp368
g90
atp369
a(S'evenwicht'
p370
(dp371
S'NOUN'
p372
F1.0
s(lp373
tp374
a(S'moeten'
p375
(dp376
S'VERB'
p377
F0.999978
sS'NOUN'
p378
F2.2e-05
s(lp379
g70
atp380
a(S'vinden'
p381
(dp382
S'VERB'
p383
F0.9990859999999999
sS'NOUN'
p384
F0.000913
s(lp385
g97
atp386
a(S'tussen'
p387
(dp388
S'ADP'
p389
F1.0
s(lp390
g104
atp391
a(S'de'
p392
(dp393
S'DET'
p394
F1.0
s(lp395
tp396
a(S'economische'
p397
(dp398
S'NOUN'
p399
F0.004882
sS'ADJ'
p400
F0.995118
s(lp401
g143
atp402
a(g145
(dp403
g147
F1.0
s(lp404
g145
atp405
a(S'sociale'
p406
(dp407
S'NOUN'
p408
F6.7e-05
sS'ADJ'
p409
F0.999933
s(lp410
g154
atp411
a(S'en'
p412
(dp413
S'CONJ'
p414
F1.0
s(lp415
g160
atp416
a(S'ecologische'
p417
(dp418
S'NOUN'
p419
F6.2e-05
sS'ADJ'
p420
F0.999938
s(lp421
g166
atp422
a(S'ontwikkelingen'
p423
(dp424
S'NOUN'
p425
F1.0
s(lp426
g117
atp427
a(S'en'
p428
(dp429
S'CONJ'
p430
F1.0
s(lp431
g123
atp432
a(S'mogelijkheden'
p433
(dp434
S'NOUN'
p435
F1.0
s(lp436
g136
atp437
a(g147
(dp438
g147
F1.0
s(lp439
g147
atp440
asS'de'
p441
(lp442
(S'das'
p443
(dp444
S'PRON'
p445
F0.99851
sS'DET'
p446
F0.001372
s(lp447
g9
atp448
a(S'ist'
p449
(dp450
S'VERB'
p451
F1.0
s(lp452
g16
atp453
a(S'der'
p454
(dp455
S'PRON'
p456
F0.000874
sS'DET'
p457
F0.999126
s(lp458
g24
atp459
a(S'richtige'
p460
(dp461
S'ADJ'
p462
F1.0
s(lp463
g32
atp464
a(S'weg'
p465
(dp466
S'ADV'
p467
F0.267845
sS'PRT'
p468
F0.732155
s(lp469
g39
atp470
a(g145
(dp471
g147
F1.0
s(lp472
tp473
a(S'den'
p474
(dp475
S'PRON'
p476
F0.99523
sS'DET'
p477
F0.003331
s(lp478
tp479
a(S'wir'
p480
(dp481
S'PRON'
p482
F1.0
s(lp483
g51
atp484
a(S'gehen'
p485
(dp486
S'VERB'
p487
F1.0
s(lp488
tp489
a(S'm\xc3\xbcssen'
p490
(dp491
S'VERB'
p492
F0.9999819999999999
s(lp493
g51
atp494
a(g145
(dp495
g147
F1.0
s(lp496
g45
atp497
a(S'und'
p498
(dp499
S'CONJ'
p500
F1.0
s(lp501
g57
atp502
a(S'das'
p503
(dp504
S'PRON'
p505
F0.994807
sS'DET'
p506
F0.003115
s(lp507
g64
atp508
a(S'beinhaltet'
p509
(dp510
S'VERB'
p511
F0.96413
sS'ADJ'
p512
F0.02903
s(lp513
g70
atp514
a(S'auch'
p515
(dp516
S'ADV'
p517
F1.0
s(lp518
g76
atp519
a(S'eine'
p520
(dp521
S'PRON'
p522
F0.004346
sS'DET'
p523
F0.995534
s(lp524
g84
atp525
a(S'bessere'
p526
(dp527
S'VERB'
p528
F0.000177
sS'ADJ'
p529
F0.999823
s(lp530
g90
atp531
a(S'balance'
p532
(dp533
S'NOUN'
p534
F0.9999370000000001
s(lp535
g97
atp536
a(S'zwischen'
p537
(dp538
S'PRT'
p539
F3e-06
sS'ADP'
p540
F0.999997
s(lp541
g104
atp542
a(S'den'
p543
(dp544
S'PRON'
p545
F0.000112
sS'DET'
p546
F0.999888
s(lp547
tp548
a(S'\xc3\xb6konomischen'
p549
(dp550
S'ADJ'
p551
F1.0
s(lp552
g143
atp553
a(g145
(dp554
g147
F1.0
s(lp555
g145
atp556
a(S'den'
p557
(dp558
S'PRON'
p559
F0.007989
sS'DET'
p560
F0.989238
s(lp561
tp562
a(S'sozialen'
p563
(dp564
S'ADJ'
p565
F1.0
s(lp566
g154
atp567
a(S'und'
p568
(dp569
S'CONJ'
p570
F1.0
s(lp571
g160
atp572
a(S'den'
p573
(dp574
S'PRON'
p575
F0.006411
sS'DET'
p576
F0.993407
s(lp577
tp578
a(S'\xc3\xb6kologischen'
p579
(dp580
S'ADJ'
p581
F1.0
s(lp582
g166
atp583
a(S'entwicklungen'
p584
(dp585
S'X'
p586
F0.148345
sS'NOUN'
p587
F0.822802
s(lp588
g117
atp589
a(S'und'
p590
(dp591
S'CONJ'
p592
F1.0
s(lp593
g123
atp594
a(S'notwendigkeiten'
p595
(dp596
S'NOUN'
p597
F0.339289
sS'ADJ'
p598
F0.399999
s(lp599
g136
atp600
a(g147
(dp601
g147
F1.0
s(lp602
g147
atp603
asS'it'
p604
(lp605
(S'questa'
p606
(dp607
S'PRON'
p608
F1.0
s(lp609
g9
atp610
a(S'\xc3\xa8'
p611
(dp612
S'VERB'
p613
F1.0
s(lp614
g16
atp615
a(S'la'
p616
(dp617
S'PRON'
p618
F0.0
sS'DET'
p619
F1.0
s(lp620
g24
atp621
a(S'maniera'
p622
(dp623
S'NOUN'
p624
F1.0
s(lp625
g39
atp626
a(S'giusta'
p627
(dp628
S'ADJ'
p629
F0.954347
sS'ADP'
p630
F0.045653
s(lp631
g32
atp632
a(S'per'
p633
(dp634
S'CONJ'
p635
F0.006098
sS'ADP'
p636
F0.993902
s(lp637
g45
atp638
a(S'procedere'
p639
(dp640
S'VERB'
p641
F1.0
s(lp642
g51
atp643
a(S'e'
p644
(dp645
S'CONJ'
p646
F1.0
s(lp647
g57
atp648
a(S'comporta'
p649
(dp650
S'VERB'
p651
F1.0
s(lp652
g70
atp653
a(S'anche'
p654
(dp655
S'ADV'
p656
F0.999996
sS'NOUN'
p657
F4e-06
s(lp658
g76
atp659
a(S'un'
p660
(dp661
S'PRON'
p662
F0.000459
sS'DEF'
p663
F0.999541
s(lp664
g84
atp665
a(S'maggiore'
p666
(dp667
S'NOUN'
p668
F0.005004
sS'ADJ'
p669
F0.994996
s(lp670
g90
atp671
a(S'equilibrio'
p672
(dp673
S'NOUN'
p674
F1.0
s(lp675
g97
atp676
a(S'tra'
p677
(dp678
S'CONJ'
p679
F9.7e-05
sS'ADP'
p680
F0.999903
s(lp681
g104
atp682
a(S'esigenze'
p683
(dp684
S'NOUN'
p685
F1.0
s(lp686
g136
atp687
a(g644
(dp688
S'CONJ'
p689
F1.0
s(lp690
g123
atp691
a(S'sviluppi'
p692
(dp693
S'VERB'
p694
F0.18922599999999998
sS'NOUN'
p695
F0.810775
s(lp696
g117
atp697
a(S'economici'
p698
(dp699
S'ADJ'
p700
F1.0
s(lp701
g143
atp702
a(g145
(dp703
g147
F1.0
s(lp704
g145
atp705
a(S'sociali'
p706
(dp707
S'ADJ'
p708
F1.0
s(lp709
g154
atp710
a(g644
(dp711
S'CONJ'
p712
F1.0
s(lp713
g160
atp714
a(S'ambientali'
p715
(dp716
S'VERB'
p717
F0.002087
sS'ADJ'
p718
F0.997913
s(lp719
g166
atp720
a(g147
(dp721
g147
F1.0
s(lp722
g147
atp723
asS'sk'
p724
(lp725
(S'to'
p726
(dp727
S'PRON'
p728
F0.966596
sS'CONJ'
p729
F0.007315
sg586
F0.02609
s(lp730
g9
atp731
a(S'je'
p732
(dp733
S'PRON'
p734
F2.6e-05
sS'VERB'
p735
F0.999961
sg586
F1.3000000000000001e-05
s(lp736
g16
atp737
a(S'spr\xc3\xa1vna'
p738
(dp739
S'ADJ'
p740
F1.0
s(lp741
g32
atp742
a(S'cesta'
p743
(dp744
g586
F0.000474
sS'NOUN'
p745
F0.999526
s(lp746
tp747
a(g145
(dp748
g147
F1.0
s(lp749
tp750
a(S'po'
p751
(dp752
g586
F0.004003
sS'ADP'
p753
F0.995997
s(lp754
g39
atp755
a(S'ktorej'
p756
(dp757
S'PRON'
p758
F1.0
s(lp759
g45
atp760
a(S'mus\xc3\xadme'
p761
(dp762
S'VERB'
p763
F1.0
s(lp764
tp765
a(S'\xc3\xads\xc5\xa5'
p766
(dp767
S'VERB'
p768
F1.0
s(lp769
g51
atp770
a(g145
(dp771
g147
F1.0
s(lp772
tp773
a(g84
(dp774
g586
F0.000192
sS'CONJ'
p775
F0.999783
sS'NOUN'
p776
F2e-06
sS'ADP'
p777
F1.8e-05
sS'PRT'
p778
F5e-06
s(lp779
g57
atp780
a(S'to'
p781
(dp782
S'PRON'
p783
F0.984379
sS'CONJ'
p784
F0.006383
sg586
F0.009236999999999999
s(lp785
g64
atp786
a(S'zah\xc5\x95\xc5\x88a'
p787
(dp788
S'VERB'
p789
F1.0
s(lp790
g70
atp791
a(S'aj'
p792
(dp793
g586
F0.989788
sS'CONJ'
p794
F0.010212
s(lp795
g76
atp796
a(S'lep\xc5\xa1iu'
p797
(dp798
S'ADJ'
p799
F1.0
s(lp800
g90
atp801
a(S'rovnov\xc3\xa1hu'
p802
(dp803
S'NOUN'
p804
F1.0
s(lp805
g97
atp806
a(S'medzi'
p807
(dp808
S'NOUN'
p809
F0.000763
sS'ADP'
p810
F0.999237
s(lp811
g104
atp812
a(S'hospod\xc3\xa1rskymi'
p813
(dp814
S'ADJ'
p815
F1.0
s(lp816
g143
atp817
a(g145
(dp818
g147
F1.0
s(lp819
g145
atp820
a(S'soci\xc3\xa1lnymi'
p821
(dp822
S'ADJ'
p823
F1.0
s(lp824
g154
atp825
a(g84
(dp826
g586
F0.00047799999999999996
sS'CONJ'
p827
F0.998379
sS'NOUN'
p828
F0.001055
sS'ADP'
p829
F7.2e-05
sS'PRT'
p830
F1.6e-05
s(lp831
g160
atp832
a(S'ekologick\xc3\xbdmi'
p833
(dp834
S'ADJ'
p835
F1.0
s(lp836
g166
atp837
a(S'trendmi'
p838
(dp839
S'NOUN'
p840
F1.0
s(lp841
g117
atp842
a(g84
(dp843
g586
F0.000697
sS'CONJ'
p844
F0.998698
sS'NOUN'
p845
F5.7e-05
sS'ADP'
p846
F0.000484
sS'PRT'
p847
F6.4e-05
s(lp848
g123
atp849
a(S'potrebami'
p850
(dp851
S'NOUN'
p852
F1.0
s(lp853
g136
atp854
a(g147
(dp855
g147
F1.0
s(lp856
g147
atp857
asS'pl'
p858
(lp859
(S'jest'
p860
(dp861
S'VERB'
p862
F1.0
s(lp863
g16
atp864
a(S'to'
p865
(dp866
S'NOUN'
p867
F0.742594
sS'ADP'
p868
F0.0
sS'PRT'
p869
F0.041151
sg586
F0.0
sS'CONJ'
p870
F0.016427
sS'ADJ'
p871
F0.199827
s(lp872
g9
atp873
a(S'w\xc5\x82a\xc5\x9bciwe'
p874
(dp875
S'PRT'
p876
F0.001906
sS'ADJ'
p877
F0.9980950000000001
s(lp878
g32
atp879
a(S'podej\xc5\x9bcie'
p880
(dp881
S'NOUN'
p882
F1.0
s(lp883
g39
atp884
a(S'i'
p885
(dp886
S'PRT'
p887
F0.090298
sS'CONJ'
p888
F0.909552
sS'PRON'
p889
F9e-06
sS'NOUN'
p890
F6.500000000000001e-05
sg586
F7.7e-05
s(lp891
g57
atp892
a(S'oznacza'
p893
(dp894
S'VERB'
p895
F1.0
s(lp896
g70
atp897
a(S'ono'
p898
(dp899
S'PRON'
p900
F1.0
s(lp901
g64
atp902
a(S'ponadto'
p903
(dp904
S'PRT'
p905
F0.83499
sS'CONJ'
p906
F0.16501
s(lp907
g76
atp908
a(S'lepsze'
p909
(dp910
S'ADJ'
p911
F0.999999
s(lp912
g90
atp913
a(S'wywa\xc5\xbcenie'
p914
(dp915
S'ADV'
p916
F7.7e-05
sS'ADJ'
p917
F0.0015399999999999997
sS'VERB'
p918
F0.8936659999999997
sS'NOUN'
p919
F0.10471799999999998
s(lp920
g97
atp921
a(S'zmian'
p922
(dp923
S'NOUN'
p924
F1.0
s(lp925
g117
atp926
a(g885
(dp927
S'PRT'
p928
F0.000351
sS'CONJ'
p929
F0.999622
sS'PRON'
p930
F2e-06
sS'NOUN'
p931
F2.1e-05
sg586
F3e-06
s(lp932
g123
atp933
a(S'potrzeb'
p934
(dp935
S'NOUN'
p936
F1.0
s(lp937
g136
atp938
a(S'gospodarczych'
p939
(dp940
S'ADJ'
p941
F0.9999989999999999
s(lp942
g143
atp943
a(g145
(dp944
g586
F0.0
sg147
F1.0
s(lp945
g145
atp946
a(S'spo\xc5\x82ecznych'
p947
(dp948
S'ADJ'
p949
F0.9999999999999999
s(lp950
g154
atp951
a(g885
(dp952
S'PRT'
p953
F0.001027
sS'CONJ'
p954
F0.998851
sS'NOUN'
p955
F3.1e-05
sg586
F3.6e-05
sS'PRON'
p956
F5.4999999999999995e-05
s(lp957
g160
atp958
a(S'\xc5\x9brodowiskowych'
p959
(dp960
S'ADJ'
p961
F1.0
s(lp962
g166
atp963
a(g147
(dp964
g147
F1.0
s(lp965
g147
atp966
asS'sl'
p967
(lp968
(S'to'
p969
(dp970
S'PRON'
p971
F0.9999370000000001
sg586
F6.4e-05
s(lp972
g9
atp973
a(S'je'
p974
(dp975
S'PRON'
p976
F8.7e-05
sS'VERB'
p977
F0.9999110000000001
sg586
F3e-06
s(lp978
g16
atp979
a(S'prava'
p980
(dp981
S'NOUN'
p982
F0.000156
sS'ADJ'
p983
F0.9998449999999999
s(lp984
g32
atp985
a(S'smer'
p986
(dp987
S'NOUN'
p988
F1.0
s(lp989
g39
atp990
a(S'in'
p991
(dp992
S'ADV'
p993
F5.5e-05
sg586
F0.000131
sS'CONJ'
p994
F0.999812
sS'NOUN'
p995
F2e-06
s(lp996
g57
atp997
a(S'to'
p998
(dp999
S'PRON'
p1000
F0.999859
sg586
F0.000141
s(lp1001
g64
atp1002
a(S'zagotavlja'
p1003
(dp1004
S'VERB'
p1005
F1.0
s(lp1006
g70
atp1007
a(S'bolj\xc5\xa1e'
p1008
(dp1009
S'ADV'
p1010
F0.271341
sS'ADJ'
p1011
F0.728657
s(lp1012
g90
atp1013
a(S'uravnote\xc5\xbeenje'
p1014
(dp1015
S'NOUN'
p1016
F1.0
s(lp1017
g97
atp1018
a(S'gospodarskih'
p1019
(dp1020
S'ADJ'
p1021
F1.0
s(lp1022
g143
atp1023
a(g145
(dp1024
g147
F1.0
s(lp1025
g145
atp1026
a(S'socialnih'
p1027
(dp1028
S'ADJ'
p1029
F0.9999990000000001
s(lp1030
g154
atp1031
a(S'in'
p1032
(dp1033
S'ADV'
p1034
F7.2e-05
sg586
F4e-06
sS'CONJ'
p1035
F0.999898
sS'NOUN'
p1036
F2.5e-05
s(lp1037
g160
atp1038
a(S'okoljskih'
p1039
(dp1040
S'ADV'
p1041
F0.0001
sS'NOUN'
p1042
F0.0030930000000000003
sS'VERB'
p1043
F0.000151
sS'ADJ'
p1044
F0.9966559999999999
s(lp1045
g166
atp1046
a(S'vidikov'
p1047
(dp1048
S'NOUN'
p1049
F1.0
s(lp1050
tp1051
a(S'razvoja'
p1052
(dp1053
S'NOUN'
p1054
F1.0
s(lp1055
g117
atp1056
a(S'in'
p1057
(dp1058
S'ADV'
p1059
F0.000182
sg586
F2.2e-05
sS'CONJ'
p1060
F0.999733
sS'NOUN'
p1061
F6.3e-05
s(lp1062
g123
atp1063
a(S'potreb'
p1064
(dp1065
S'NOUN'
p1066
F1.0
s(lp1067
g136
atp1068
a(g147
(dp1069
g147
F1.0
s(lp1070
g147
atp1071
asS'es'
p1072
(lp1073
(S'\xc3\x89sa'
p1074
(dp1075
S'PRON'
p1076
F1.0
s(lp1077
g9
atp1078
a(S'es'
p1079
(dp1080
S'VERB'
p1081
F1.0
s(lp1082
g16
atp1083
a(S'la'
p1084
(dp1085
g586
F1e-06
sS'DET'
p1086
F0.999999
sS'NOUN'
p1087
F0.0
sS'PRON'
p1088
F0.0
s(lp1089
g24
atp1090
a(S'direcci\xc3\xb3n'
p1091
(dp1092
S'NOUN'
p1093
F1.0
s(lp1094
g39
atp1095
a(S'correcta'
p1096
(dp1097
S'ADJ'
p1098
F1.0
s(lp1099
g32
atp1100
a(S'y'
p1101
(dp1102
g586
F6e-06
sS'CONJ'
p1103
F0.999994
s(lp1104
g57
atp1105
a(S'tambi\xc3\xa9n'
p1106
(dp1107
S'ADV'
p1108
F1.0
s(lp1109
g76
atp1110
a(S'implica'
p1111
(dp1112
S'VERB'
p1113
F1.0
s(lp1114
g70
atp1115
a(S'un'
p1116
(dp1117
g586
F1e-06
sS'DET'
p1118
F0.999999
s(lp1119
g84
atp1120
a(S'equilibrio'
p1121
(dp1122
S'NOUN'
p1123
F1.0
s(lp1124
g97
atp1125
a(S'mejor'
p1126
(dp1127
S'ADJ'
p1128
F1.0
s(lp1129
g90
atp1130
a(S'entre'
p1131
(dp1132
g586
F3e-06
sS'ADP'
p1133
F0.999997
s(lp1134
g104
atp1135
a(S'los'
p1136
(dp1137
S'PRON'
p1138
F0.0
sS'DET'
p1139
F1.0
s(lp1140
tp1141
a(S'acontecimientos'
p1142
(dp1143
S'NOUN'
p1144
F1.0
s(lp1145
g117
atp1146
a(g1101
(dp1147
g586
F0.000396
sS'CONJ'
p1148
F0.999604
s(lp1149
g123
atp1150
a(S'las'
p1151
(dp1152
S'PRON'
p1153
F0.000237
sS'DET'
p1154
F0.999763
s(lp1155
tp1156
a(S'necesidades'
p1157
(dp1158
S'NOUN'
p1159
F1.0
s(lp1160
g136
atp1161
a(S'econ\xc3\xb3micas'
p1162
(dp1163
S'ADJ'
p1164
F1.0
s(lp1165
g143
atp1166
a(g145
(dp1167
g147
F1.0
s(lp1168
g145
atp1169
a(S'sociales'
p1170
(dp1171
S'ADJ'
p1172
F1.0
s(lp1173
g154
atp1174
a(g1101
(dp1175
g586
F0.000656
sS'CONJ'
p1176
F0.999344
s(lp1177
g160
atp1178
a(S'ambientales'
p1179
(dp1180
S'ADJ'
p1181
F1.0
s(lp1182
g166
atp1183
a(g147
(dp1184
g147
F1.0
s(lp1185
g147
atp1186
as.