(dp0
S'fr'
p1
(lp2
(S'je'
p3
(dp4
S'PRON'
p5
F1.0
s(lp6
S'i'
p7
atp8
a(S'pense'
p9
(dp10
S'VERB'
p11
F1.0
s(lp12
tp13
a(S"qu'"
p14
(dp15
S'NOUN'
p16
F0.043787
sS'VERB'
p17
F0.7697689999999999
sS'ADJ'
p18
F0.186444
s(lp19
S'think'
p20
atp21
a(S'il'
p22
(dp23
S'PRON'
p24
F1.0
s(lp25
S'it'
p26
atp27
a(S'serait'
p28
(dp29
S'VERB'
p30
F1.0
s(lp31
S'would'
p32
atp33
a(S'plus'
p34
(dp35
S'ADV'
p36
F0.999899
sS'VERB'
p37
F0.00010099999999999999
s(lp38
S'more'
p39
atp40
a(S'utile'
p41
(dp42
S'NOUN'
p43
F0.017338
sS'ADJ'
p44
F0.982662
s(lp45
S'helpful'
p46
atp47
a(S'pour'
p48
(dp49
S'CONJ'
p50
F0.754667
sS'ADP'
p51
F0.245333
s(lp52
S'for'
p53
atp54
a(S'nous'
p55
(dp56
S'PRON'
p57
F1.0
s(lp58
S'us'
p59
atp60
a(S'de'
p61
(dp62
S'ADP'
p63
F1.0
s(lp64
S'to'
p65
atp66
a(S'proc\xc3\xa9der'
p67
(dp68
S'VERB'
p69
F1.0
s(lp70
S'proceed'
p71
atp72
a(S'de'
p73
(dp74
S'ADP'
p75
F1.0
s(lp76
tp77
a(S'la'
p78
(dp79
S'PRON'
p80
F1.4e-05
sS'DET'
p81
F0.999986
sS'NOUN'
p82
F0.0
s(lp83
S'that'
p84
atp85
a(S'sorte'
p86
(dp87
S'VERB'
p88
F2e-06
sS'NOUN'
p89
F0.999998
s(lp90
S'way'
p91
atp92
a(S'.'
p93
(dp94
g93
F1.0
s(lp95
g93
atp96
asS'en'
p97
(lp98
(g7
(dp99
S'X'
p100
F0.004432
sS'NOUN'
p101
F0.995568
s(lp102
g7
atp103
a(g20
(dp104
S'VERB'
p105
F0.998991
sS'NOUN'
p106
F0.001009
s(lp107
g20
atp108
a(g26
(dp109
S'PRON'
p110
F1.0
s(lp111
g26
atp112
a(g32
(dp113
S'VERB'
p114
F1.0
s(lp115
g32
atp116
a(S'be'
p117
(dp118
S'VERB'
p119
F1.0
s(lp120
g117
atp121
a(g39
(dp122
S'ADV'
p123
F0.868063
sS'ADJ'
p124
F0.131937
s(lp125
g39
atp126
a(g46
(dp127
S'ADJ'
p128
F1.0
s(lp129
g46
atp130
a(g53
(dp131
S'ADP'
p132
F1.0
s(lp133
g53
atp134
a(g59
(dp135
S'PRON'
p136
F1.0
s(lp137
g59
atp138
a(S'if'
p139
(dp140
S'ADP'
p141
F1.0
s(lp142
g139
atp143
a(S'we'
p144
(dp145
S'PRON'
p146
F1.0
s(lp147
g144
atp148
a(S'were'
p149
(dp150
S'VERB'
p151
F1.0
s(lp152
g149
atp153
a(g65
(dp154
S'ADV'
p155
F1e-06
sS'PRT'
p156
F0.999999
sS'ADP'
p157
F0.0
s(lp158
g65
atp159
a(g71
(dp160
S'VERB'
p161
F1.0
s(lp162
g71
atp163
a(g84
(dp164
S'ADV'
p165
F0.000252
sS'DET'
p166
F0.70877
sS'ADP'
p167
F0.290979
s(lp168
g84
atp169
a(g91
(dp170
S'ADV'
p171
F0.007147
sS'NOUN'
p172
F0.992853
s(lp173
g91
atp174
a(S'around'
p175
(dp176
S'ADV'
p177
F0.1154
sS'PRT'
p178
F0.350481
sS'ADP'
p179
F0.534119
s(lp180
g175
atp181
a(g93
(dp182
g93
F1.0
s(lp183
g93
atp184
asS'nl'
p185
(lp186
(S'ik'
p187
(dp188
S'PRON'
p189
F0.999981
sS'NOUN'
p190
F1.9e-05
s(lp191
g7
atp192
a(S'denk'
p193
(dp194
S'VERB'
p195
F1.0
s(lp196
tp197
a(S'dat'
p198
(dp199
S'PRON'
p200
F0.038964000000000006
sS'CONJ'
p201
F0.961037
s(lp202
g20
atp203
a(S'het'
p204
(dp205
S'PRON'
p206
F0.086835
sS'DET'
p207
F0.913165
s(lp208
g26
atp209
a(S'nuttiger'
p210
(dp211
S'ADJ'
p212
F1.0
s(lp213
g46
atp214
a(S'voor'
p215
(dp216
S'ADV'
p217
F0.002859
sS'CONJ'
p218
F0.000527
sS'NOUN'
p219
F3e-06
sS'ADP'
p220
F0.996612
s(lp221
g53
atp222
a(S'ons'
p223
(dp224
S'PRON'
p225
F0.995177
sS'NOUN'
p226
F0.004824
s(lp227
g59
atp228
a(S'is'
p229
(dp230
S'VERB'
p231
F1.0
s(lp232
tp233
a(S'als'
p234
(dp235
S'CONJ'
p236
F1.0
s(lp237
g139
atp238
a(S'we'
p239
(dp240
S'PRON'
p241
F1.0
s(lp242
g144
atp243
a(S'in'
p244
(dp245
S'ADV'
p246
F0.0055
sS'VERB'
p247
F1e-06
sS'ADP'
p248
F0.994499
s(lp249
tp250
a(S'die'
p251
(dp252
S'PRON'
p253
F0.9999999999999999
s(lp254
g84
atp255
a(S'volgorde'
p256
(dp257
S'NOUN'
p258
F1.0
s(lp259
g71
atp260
a(S'te'
p261
(dp262
S'PRT'
p263
F1.0
s(lp264
g65
atp265
a(S'werk'
p266
(dp267
S'VERB'
p268
F0.009335
sS'NOUN'
p269
F0.990665
s(lp270
tp271
a(S'gaan'
p272
(dp273
S'VERB'
p274
F0.999986
sS'NOUN'
p275
F1.4e-05
s(lp276
g71
atp277
a(g93
(dp278
g93
F1.0
s(lp279
g93
atp280
asS'de'
p281
(lp282
(S'ich'
p283
(dp284
S'PRON'
p285
F1.0
s(lp286
g7
atp287
a(S'denke'
p288
(dp289
S'VERB'
p290
F1.0
s(lp291
g20
atp292
a(S','
p293
(dp294
g93
F1.0
s(lp295
tp296
a(S'es'
p297
(dp298
S'PRON'
p299
F1.0
s(lp300
g26
atp301
a(S'w\xc3\xa4re'
p302
(dp303
S'VERB'
p304
F1.0
s(lp305
g32
atp306
a(S'f\xc3\xbcr'
p307
(dp308
S'ADP'
p309
F1.0
s(lp310
g53
atp311
a(S'uns'
p312
(dp313
S'PRON'
p314
F1.0
s(lp315
g59
atp316
a(S'hilfreicher'
p317
(dp318
S'ADJ'
p319
F1.0
s(lp320
g46
atp321
a(g293
(dp322
g93
F1.0
s(lp323
g84
atp324
a(S'wenn'
p325
(dp326
S'CONJ'
p327
F1.0
s(lp328
g139
atp329
a(S'wir'
p330
(dp331
S'PRON'
p332
F1.0
s(lp333
g144
atp334
a(S'so'
p335
(dp336
S'ADV'
p337
F0.999998
sS'PRON'
p338
F2e-06
s(lp339
g91
atp340
a(S'verfahren'
p341
(dp342
S'VERB'
p343
F0.97698
s(lp344
g71
atp345
a(S'w\xc3\xbcrden'
p346
(dp347
S'VERB'
p348
F1.0
s(lp349
g149
atp350
a(g93
(dp351
g93
F1.0
s(lp352
g93
atp353
asS'it'
p354
(lp355
(S'67'
p356
(dp357
S'NUM'
p358
F0.998131
sg93
F0.001869
s(lp359
g46
atp360
a(g293
(dp361
g93
F1.0
s(lp362
g7
atp363
a(S'un'
p364
(dp365
S'PRON'
p366
F0.005179
sS'DEF'
p367
F0.994821
s(lp368
tp369
a(S'compromesso'
p370
(dp371
S'VERB'
p372
F0.000354
sS'NOUN'
p373
F0.999646
s(lp374
g46
atp375
a(S'successivo'
p376
(dp377
S'ADJ'
p378
F1.0
s(lp379
g46
atp380
a(S'che'
p381
(dp382
S'PRON'
p383
F0.974969
sS'CONJ'
p384
F0.024856
sS'ADJ'
p385
F0.000175
s(lp386
g20
atp387
a(S'\xc3\xa8'
p388
(dp389
S'VERB'
p390
F1.0
s(lp391
g149
atp392
a(S'emerso'
p393
(dp394
S'VERB'
p395
F0.989602
sS'ADJ'
p396
F0.010398
s(lp397
tp398
a(S'dopo'
p399
(dp400
S'ADV'
p401
F0.281269
sS'CONJ'
p402
F0.075023
sS'ADJ'
p403
F0.000463
sS'ADP'
p404
F0.643246
s(lp405
g139
atp406
a(S'la'
p407
(dp408
S'PRON'
p409
F0.000208
sS'DET'
p410
F0.999792
s(lp411
g144
atp412
a(S'votazione'
p413
(dp414
S'NOUN'
p415
F1.0
s(lp416
g71
atp417
a(S'in'
p418
(dp419
S'ADP'
p420
F1.0
s(lp421
tp422
a(S'sede'
p423
(dp424
S'NOUN'
p425
F1.0
s(lp426
g71
atp427
a(S'di'
p428
(dp429
S'CONJ'
p430
F4e-06
sS'ADP'
p431
F0.999996
s(lp432
g65
atp433
a(S'commissione'
p434
(dp435
S'NOUN'
p436
F1.0
s(lp437
g26
atp438
a(S'?'
p439
(dp440
g93
F1.0
s(lp441
tp442
a(S'sarebbe'
p443
(dp444
S'VERB'
p445
F1.0
s(lp446
g32
atp447
a(S'pi\xc3\xb9'
p448
(dp449
S'ADV'
p450
F0.992671
sS'NOUN'
p451
F2e-05
sS'ADJ'
p452
F0.006702
sS'ADP'
p453
F0.000607
s(lp454
g39
atp455
a(S'utile'
p456
(dp457
S'NOUN'
p458
F0.22389
sS'ADJ'
p459
F0.77611
s(lp460
g46
atp461
a(S'poter'
p462
(dp463
S'VERB'
p464
F1.0
s(lp465
tp466
a(S'procedere'
p467
(dp468
S'VERB'
p469
F1.0
s(lp470
g71
atp471
a(S'al'
p472
(dp473
S'ADP'
p474
F1.0
s(lp475
tp476
a(S'contrario'
p477
(dp478
S'ADJ'
p479
F0.062846
sS'VERB'
p480
F1e-06
sS'NOUN'
p481
F0.937154
s(lp482
g175
atp483
a(g93
(dp484
g93
F1.0
s(lp485
g93
atp486
asS'sk'
p487
(lp488
(S'mysl\xc3\xadm'
p489
(dp490
S'VERB'
p491
F1.0
s(lp492
g20
atp493
a(S'si'
p494
(dp495
S'PRT'
p496
F0.999092
sS'VERB'
p497
F0.000907
sg100
F1e-06
s(lp498
tp499
a(g293
(dp500
g93
F1.0
s(lp501
tp502
a(S'\xc5\xbee'
p503
(dp504
g100
F0.00013099999999999999
sS'CONJ'
p505
F0.999869
s(lp506
g20
atp507
a(S'by'
p508
(dp509
S'PRT'
p510
F0.999997
sg100
F3e-06
s(lp511
g32
atp512
a(S'bolo'
p513
(dp514
S'VERB'
p515
F1.0
s(lp516
g117
atp517
a(S'pre'
p518
(dp519
g100
F2.3e-05
sS'ADP'
p520
F0.999977
s(lp521
g53
atp522
a(S'n\xc3\xa1s'
p523
(dp524
S'PRON'
p525
F0.999414
sg100
F0.0005859999999999999
s(lp526
g59
atp527
a(S'u\xc5\xbeito\xc4\x8dnej\xc5\xa1ie'
p528
(dp529
S'ADV'
p530
F0.284139
sS'ADJ'
p531
F0.715861
s(lp532
g46
atp533
a(g293
(dp534
g93
F1.0
s(lp535
tp536
a(S'ak'
p537
(dp538
g100
F0.000371
sS'CONJ'
p539
F0.999629
s(lp540
g139
atp541
a(S'by'
p542
(dp543
S'PRT'
p544
F1.0
sg100
F0.0
s(lp545
g149
atp546
a(S'sme'
p547
(dp548
g100
F1.3e-05
sS'VERB'
p549
F0.999987
s(lp550
g144
atp551
a(S'pokra\xc4\x8dovali'
p552
(dp553
S'VERB'
p554
F1.0
s(lp555
g71
atp556
a(S't\xc3\xbdmto'
p557
(dp558
S'PRON'
p559
F1.0
s(lp560
g84
atp561
a(S'sp\xc3\xb4sobom'
p562
(dp563
S'NOUN'
p564
F1.0
s(lp565
g91
atp566
a(g93
(dp567
g93
F1.0
s(lp568
g93
atp569
asS'pl'
p570
(lp571
(S's\xc4\x85dz\xc4\x99'
p572
(dp573
S'VERB'
p574
F1.0
s(lp575
tp576
a(g293
(dp577
g100
F0.0
sg93
F1.0
s(lp578
tp579
a(S'\xc5\xbce'
p580
(dp581
S'PRT'
p582
F0.000383
sS'CONJ'
p583
F0.999617
s(lp584
g20
atp585
a(S'by\xc5\x82oby'
p586
(dp587
S'ADV'
p588
F0.010503
sS'NOUN'
p589
F0.5409510000000002
sS'PRT'
p590
F0.163116
sS'VERB'
p591
F0.18434699999999996
sS'CONJ'
p592
F0.066928
sS'ADJ'
p593
F0.034157999999999994
s(lp594
g32
atp595
a(S'to'
p596
(dp597
S'NOUN'
p598
F0.355168
sS'ADP'
p599
F2.8e-05
sS'PRT'
p600
F0.20503
sg100
F3e-06
sS'CONJ'
p601
F0.279269
sS'ADJ'
p602
F0.16050299999999998
s(lp603
g26
atp604
a(S'dla'
p605
(dp606
S'ADP'
p607
F1.0
s(lp608
g53
atp609
a(S'nas'
p610
(dp611
S'PRON'
p612
F0.9999999999999999
s(lp613
g59
atp614
a(S'bardziej'
p615
(dp616
S'ADV'
p617
F1.0
s(lp618
g39
atp619
a(S'pomocne'
p620
(dp621
S'ADJ'
p622
F0.999999
s(lp623
g46
atp624
a(g293
(dp625
g100
F0.0
sg93
F1.0
s(lp626
tp627
a(S'gdyby\xc5\x9bmy'
p628
(dp629
S'NOUN'
p630
F0.008442
sS'CONJ'
p631
F0.360509
sS'VERB'
p632
F0.12061200000000001
sS'ADJ'
p633
F0.5104360000000001
s(lp634
g139
atp635
a(S'mogli'
p636
(dp637
S'VERB'
p638
F1.0
s(lp639
g65
atp640
a(S'procedowa\xc4\x87'
p641
(dp642
S'ADJ'
p643
F0.0013469999999999999
sS'VERB'
p644
F0.9862240000000001
sS'NOUN'
p645
F0.012427999999999998
s(lp646
tp647
a(S'w'
p648
(dp649
S'NOUN'
p650
F0.0
sS'ADJ'
p651
F0.0
sS'ADP'
p652
F1.0
sg100
F0.0
s(lp653
tp654
a(S'odwrotnej'
p655
(dp656
S'ADJ'
p657
F1.0
s(lp658
g71
atp659
a(S'kolejno\xc5\x9bci'
p660
(dp661
S'NOUN'
p662
F1.0
s(lp663
g175
atp664
a(g93
(dp665
g93
F1.0
s(lp666
g93
atp667
asS'sl'
p668
(lp669
(S'mislim'
p670
(dp671
S'VERB'
p672
F0.991734
sS'NOUN'
p673
F0.008266
s(lp674
tp675
a(g293
(dp676
g93
F1.0
s(lp677
tp678
a(S'da'
p679
(dp680
S'PRT'
p681
F0.000137
sS'CONJ'
p682
F0.999855
sS'VERB'
p683
F8e-06
sg100
F0.0
s(lp684
g20
atp685
a(S'bi'
p686
(dp687
g100
F0.0
sS'VERB'
p688
F1.0
s(lp689
g32
atp690
a(S'bilo'
p691
(dp692
S'VERB'
p693
F1.0
s(lp694
g117
atp695
a(S'za'
p696
(dp697
S'ADV'
p698
F0.000747
sg100
F3.4e-05
sS'ADP'
p699
F0.999219
s(lp700
g53
atp701
a(S'nas'
p702
(dp703
S'PRON'
p704
F1.0
s(lp705
g59
atp706
a(S'koristneje'
p707
(dp708
S'ADV'
p709
F0.055527
sS'ADJ'
p710
F0.014566
sS'VERB'
p711
F0.1526
sS'NOUN'
p712
F0.7773100000000002
s(lp713
g46
atp714
a(g293
(dp715
g93
F1.0
s(lp716
tp717
a(S'da'
p718
(dp719
S'PRT'
p720
F5e-06
sS'CONJ'
p721
F0.99997
sS'VERB'
p722
F2.4e-05
sg100
F1e-06
s(lp723
g139
atp724
a(S'se'
p725
(dp726
S'PRON'
p727
F0.999992
sg100
F8e-06
s(lp728
g144
atp729
a(S'zaporedje'
p730
(dp731
S'NOUN'
p732
F1.0
s(lp733
g71
atp734
a(S'obrne'
p735
(dp736
S'VERB'
p737
F1.0
s(lp738
g175
atp739
a(g93
(dp740
g93
F1.0
s(lp741
g93
atp742
asS'es'
p743
(lp744
(S'creo'
p745
(dp746
S'VERB'
p747
F1.0
s(lp748
g20
atp749
a(S'que'
p750
(dp751
g100
F0.0
sS'CONJ'
p752
F1.0
s(lp753
g26
atp754
a(S'ser\xc3\xada'
p755
(dp756
S'VERB'
p757
F1.0
s(lp758
g32
atp759
a(S'm\xc3\xa1s'
p760
(dp761
S'ADV'
p762
F0.999996
sS'CONJ'
p763
F4e-06
s(lp764
g39
atp765
a(S'\xc3\xbatil'
p766
(dp767
S'ADJ'
p768
F1.0
s(lp769
g46
atp770
a(S'para'
p771
(dp772
S'CONJ'
p773
F0.001971
sS'ADP'
p774
F0.998029
s(lp775
g53
atp776
a(S'nosotros'
p777
(dp778
S'PRON'
p779
F1.0
s(lp780
g59
atp781
a(S'si'
p782
(dp783
S'CONJ'
p784
F0.974646
sS'NOUN'
p785
F0.025354
s(lp786
g139
atp787
a(S'procedemos'
p788
(dp789
S'VERB'
p790
F1.0
s(lp791
g71
atp792
a(S'seg\xc3\xban'
p793
(dp794
S'CONJ'
p795
F0.997238
sS'ADP'
p796
F0.002762
s(lp797
g84
atp798
a(S'sugiero'
p799
(dp800
S'VERB'
p801
F1.0
s(lp802
g175
atp803
a(g93
(dp804
g93
F1.0
s(lp805
g93
atp806
as.