(dp0
S'fr'
p1
(lp2
(S'donc'
p3
(dp4
S'ADV'
p5
F1.0
s(lp6
S'then'
p7
atp8
a(S','
p9
(dp10
S'.'
p11
F1.0
s(lp12
S'will'
p13
atp14
a(S'le'
p15
(dp16
S'PRON'
p17
F0.008057
sS'DET'
p18
F0.991943
s(lp19
S'the'
p20
atp21
a(S'monde'
p22
(dp23
S'ADJ'
p24
F0.003928
sS'VERB'
p25
F0.007762
sS'NOUN'
p26
F0.98831
s(lp27
S'world'
p28
atp29
a(S'ne'
p30
(dp31
S'ADV'
p32
F1.0
s(lp33
tp34
a(S"l'"
p35
(dp36
S'NOUN'
p37
F0.037162
sS'VERB'
p38
F0.7565829999999999
sS'ADJ'
p39
F0.206256
s(lp40
tp41
a(S'oubliera'
p42
(dp43
S'VERB'
p44
F1.0
s(lp45
S'forget'
p46
atp47
a(S'pas'
p48
(dp49
S'ADV'
p50
F0.995329
sS'NOUN'
p51
F0.004671
s(lp52
S'not'
p53
atp54
a(S'mais'
p55
(dp56
S'CONJ'
p57
F1.0
s(lp58
S'but'
p59
atp60
a(S'nos'
p61
(dp62
S'PRON'
p63
F1.0
s(lp64
S'mere'
p65
atp66
a(S'seules'
p67
(dp68
S'NOUN'
p69
F0.093403
sS'ADJ'
p70
F0.906597
s(lp71
g65
atp72
a(S'paroles'
p73
(dp74
S'NOUN'
p75
F1.0
s(lp76
S'words'
p77
atp78
a(S"n'"
p79
(dp80
S'NOUN'
p81
F0.032441
sS'VERB'
p82
F0.694014
sS'ADJ'
p83
F0.273544
s(lp84
tp85
a(S'auront'
p86
(dp87
S'VERB'
p88
F1.0
s(lp89
S'will'
p90
atp91
a(S'que'
p92
(dp93
S'ADV'
p94
F0.247401
sS'PRON'
p95
F0.018484999999999998
sS'CONJ'
p96
F0.734114
s(lp97
g65
atp98
a(S'peu'
p99
(dp100
S'ADV'
p101
F1.0
s(lp102
S'little'
p103
atp104
a(S"d'"
p105
(dp106
S'NOUN'
p107
F0.037162
sS'VERB'
p108
F0.7565829999999999
sS'ADJ'
p109
F0.206256
s(lp110
tp111
a(S'effet'
p112
(dp113
S'NOUN'
p114
F1.0
s(lp115
S'effect'
p116
atp117
a(g9
(dp118
g11
F1.0
s(lp119
g9
atp120
a(S'madame'
p121
(dp122
S'NOUN'
p123
F1.0
s(lp124
tp125
a(S'la'
p126
(dp127
S'PRON'
p128
F5.2e-05
sS'DET'
p129
F0.999948
sS'NOUN'
p130
F0.0
s(lp131
S'madam'
p132
atp133
a(S'pr\xc3\xa9sidente'
p134
(dp135
S'NOUN'
p136
F1.0
s(lp137
S'president'
p138
atp139
a(g11
(dp140
g11
F1.0
s(lp141
g11
atp142
asS'en'
p143
(lp144
(g20
(dp145
S'NOUN'
p146
F5e-06
sS'DET'
p147
F0.999995
s(lp148
g20
atp149
a(g28
(dp150
S'NOUN'
p151
F1.0
s(lp152
g28
atp153
a(g7
(dp154
S'ADV'
p155
F0.999877
sS'ADJ'
p156
F0.000123
s(lp157
g7
atp158
a(g13
(dp159
S'VERB'
p160
F0.999726
sS'NOUN'
p161
F0.000274
s(lp162
g13
atp163
a(g53
(dp164
S'ADV'
p165
F1.0
s(lp166
g53
atp167
a(g46
(dp168
S'VERB'
p169
F1.0
s(lp170
g46
atp171
a(g9
(dp172
g11
F1.0
s(lp173
g9
atp174
a(g59
(dp175
S'ADV'
p176
F0.003104
sS'CONJ'
p177
F0.996896
sS'NOUN'
p178
F0.0
s(lp179
g59
atp180
a(g65
(dp181
S'NOUN'
p182
F0.000955
sS'ADJ'
p183
F0.999045
s(lp184
g65
atp185
a(g77
(dp186
S'VERB'
p187
F1e-06
sS'NOUN'
p188
F0.999999
s(lp189
g77
atp190
a(g90
(dp191
S'VERB'
p192
F0.9999990000000001
sS'NOUN'
p193
F1e-06
s(lp194
g90
atp195
a(S'have'
p196
(dp197
S'VERB'
p198
F1.0
s(lp199
g196
atp200
a(g103
(dp201
S'ADV'
p202
F0.010045
sS'ADJ'
p203
F0.989955
s(lp204
g103
atp205
a(g116
(dp206
S'VERB'
p207
F0.0002
sS'NOUN'
p208
F0.9998
s(lp209
g116
atp210
a(g9
(dp211
g11
F1.0
s(lp212
g9
atp213
a(g132
(dp214
S'NOUN'
p215
F1.0
s(lp216
g132
atp217
a(g138
(dp218
S'NOUN'
p219
F1.0
s(lp220
g138
atp221
a(g11
(dp222
g11
F1.0
s(lp223
g11
atp224
asS'nl'
p225
(lp226
(S'de'
p227
(dp228
S'DET'
p229
F1.0
s(lp230
g20
atp231
a(S'wereld'
p232
(dp233
S'NOUN'
p234
F1.0
s(lp235
g28
atp236
a(S'zal'
p237
(dp238
S'VERB'
p239
F1.0
s(lp240
g13
atp241
a(S'hem'
p242
(dp243
S'PRON'
p244
F1.0
s(lp245
g7
atp246
a(S'niet'
p247
(dp248
S'ADV'
p249
F0.999987
sS'PRON'
p250
F5e-06
sS'VERB'
p251
F8e-06
sS'X'
p252
F0.0
s(lp253
g53
atp254
a(S'vergeten'
p255
(dp256
S'VERB'
p257
F0.996213
sS'NOUN'
p258
F0.003788
s(lp259
g46
atp260
a(g9
(dp261
g11
F1.0
s(lp262
g9
atp263
a(S'maar'
p264
(dp265
S'ADV'
p266
F0.055903
sS'CONJ'
p267
F0.944097
sS'NOUN'
p268
F0.0
s(lp269
g59
atp270
a(S'onze'
p271
(dp272
S'PRON'
p273
F1.0
s(lp274
g65
atp275
a(S'woorden'
p276
(dp277
S'NOUN'
p278
F1.0
s(lp279
tp280
a(S'alleen'
p281
(dp282
S'ADV'
p283
F0.993986
sS'ADJ'
p284
F0.006014
s(lp285
g77
atp286
a(S'zullen'
p287
(dp288
S'VERB'
p289
F0.999991
sS'NOUN'
p290
F8e-06
s(lp291
g90
atp292
a(S'niet'
p293
(dp294
S'ADV'
p295
F0.999999
sS'PRON'
p296
F1e-06
sS'VERB'
p297
F0.0
sg252
F0.0
s(lp298
tp299
a(S'veel'
p300
(dp301
S'ADV'
p302
F0.58693
sS'NUM'
p303
F0.411168
sS'VERB'
p304
F0.001903
s(lp305
g103
atp306
a(S'effect'
p307
(dp308
S'NOUN'
p309
F1.0
s(lp310
tp311
a(S'sorteren'
p312
(dp313
S'VERB'
p314
F0.998772
sS'NOUN'
p315
F0.001228
s(lp316
g116
atp317
a(g9
(dp318
g11
F1.0
s(lp319
g9
atp320
a(S'mevrouw'
p321
(dp322
S'NOUN'
p323
F1.0
s(lp324
g132
atp325
a(S'de'
p326
(dp327
S'DET'
p328
F1.0
s(lp329
tp330
a(S'voorzitter'
p331
(dp332
S'NOUN'
p333
F1.0
s(lp334
g138
atp335
a(g11
(dp336
g11
F1.0
s(lp337
g11
atp338
asS'de'
p339
(lp340
(S'die'
p341
(dp342
S'PRON'
p343
F0.005742
sS'DET'
p344
F0.99281
s(lp345
g20
atp346
a(S'welt'
p347
(dp348
S'ADJ'
p349
F0.039337
sS'NOUN'
p350
F0.927468
s(lp351
g28
atp352
a(S'wird'
p353
(dp354
S'VERB'
p355
F1.0
s(lp356
g13
atp357
a(S'das'
p358
(dp359
S'PRON'
p360
F0.911733
sS'DET'
p361
F0.088247
s(lp362
g7
atp363
a(S'nicht'
p364
(dp365
S'PRT'
p366
F1.0
s(lp367
g53
atp368
a(S'vergessen'
p369
(dp370
S'VERB'
p371
F0.998089
s(lp372
g46
atp373
a(g9
(dp374
g11
F1.0
s(lp375
g9
atp376
a(S'aber'
p377
(dp378
S'ADV'
p379
F0.721465
sS'CONJ'
p380
F0.278535
s(lp381
g59
atp382
a(S'worte'
p383
(dp384
S'NOUN'
p385
F0.153396
sS'ADJ'
p386
F0.649248
s(lp387
g77
atp388
a(S'alleine'
p389
(dp390
S'ADV'
p391
F0.968508
sS'PRT'
p392
F0.031492
s(lp393
g65
atp394
a(S'werden'
p395
(dp396
S'VERB'
p397
F0.999587
s(lp398
g90
atp399
a(S'wenig'
p400
(dp401
S'ADV'
p402
F0.232075
sS'PRON'
p403
F0.761821
s(lp404
g103
atp405
a(S'ausrichten'
p406
(dp407
S'VERB'
p408
F1.0
s(lp409
g116
atp410
a(g9
(dp411
g11
F1.0
s(lp412
g9
atp413
a(S'frau'
p414
(dp415
S'ADJ'
p416
F0.966044
s(lp417
g132
atp418
a(S'pr\xc3\xa4sidentin'
p419
(dp420
S'NOUN'
p421
F0.9926609999999999
s(lp422
g138
atp423
a(g11
(dp424
g11
F1.0
s(lp425
g11
atp426
asS'it'
p427
(lp428
(S'il'
p429
(dp430
S'DET'
p431
F1.0
s(lp432
g20
atp433
a(S'mondo'
p434
(dp435
S'ADJ'
p436
F0.005777
sS'VERB'
p437
F3e-05
sS'NOUN'
p438
F0.994193
s(lp439
g28
atp440
a(S'allora'
p441
(dp442
S'ADV'
p443
F0.985474
sS'ADJ'
p444
F0.014526
s(lp445
g7
atp446
a(S'non'
p447
(dp448
S'ADV'
p449
F1.0
s(lp450
g53
atp451
a(S'dimenticher\xc3\xa0'
p452
(dp453
S'VERB'
p454
F1.0
s(lp455
g46
atp456
a(g9
(dp457
g11
F1.0
s(lp458
g9
atp459
a(S'ma'
p460
(dp461
S'CONJ'
p462
F0.999983
sS'NOUN'
p463
F1.7e-05
s(lp464
g59
atp465
a(S'le'
p466
(dp467
S'PRON'
p468
F0.000149
sS'DET'
p469
F0.999851
s(lp470
tp471
a(S'parole'
p472
(dp473
S'NOUN'
p474
F1.0
s(lp475
g77
atp476
a(S'da'
p477
(dp478
S'ADP'
p479
F1.0
s(lp480
tp481
a(S'sole'
p482
(dp483
S'NOUN'
p484
F0.277538
sS'ADJ'
p485
F0.722462
s(lp486
g65
atp487
a(S'hanno'
p488
(dp489
S'VERB'
p490
F1.0
s(lp491
g196
atp492
a(S'scarso'
p493
(dp494
S'ADJ'
p495
F1.0
s(lp496
g103
atp497
a(S'effetto'
p498
(dp499
S'NOUN'
p500
F1.0
s(lp501
g116
atp502
a(g9
(dp503
g11
F1.0
s(lp504
g9
atp505
a(S'signora'
p506
(dp507
S'NOUN'
p508
F1.0
s(lp509
g132
atp510
a(S'presidente'
p511
(dp512
S'NOUN'
p513
F1.0
s(lp514
g138
atp515
a(g11
(dp516
g11
F1.0
s(lp517
g11
atp518
asS'sk'
p519
(lp520
(S'tak\xc5\xbee'
p521
(dp522
g252
F0.506247
sS'CONJ'
p523
F0.493753
s(lp524
g7
atp525
a(g9
(dp526
g11
F1.0
s(lp527
tp528
a(S'svet'
p529
(dp530
S'NOUN'
p531
F1.0
s(lp532
g28
atp533
a(S'nezabudne'
p534
(dp535
S'VERB'
p536
F1.0
s(lp537
g46
atp538
a(g9
(dp539
g11
F1.0
s(lp540
g9
atp541
a(S'samotn\xc3\xa9'
p542
(dp543
S'ADJ'
p544
F1.0
s(lp545
g65
atp546
a(S'slov\xc3\xa1'
p547
(dp548
S'NOUN'
p549
F1.0
s(lp550
g77
atp551
a(S'v\xc5\xa1ak'
p552
(dp553
g252
F0.714649
sS'CONJ'
p554
F0.285351
s(lp555
g59
atp556
a(S'bud\xc3\xba'
p557
(dp558
g252
F0.0
sS'VERB'
p559
F1.0
s(lp560
g90
atp561
a(S'ma\xc5\xa5'
p562
(dp563
S'VERB'
p564
F0.999974
sS'NOUN'
p565
F2.6e-05
s(lp566
g196
atp567
a(S'len'
p568
(dp569
g252
F0.972128
sS'CONJ'
p570
F0.027872
s(lp571
tp572
a(S'mal\xc3\xbd'
p573
(dp574
S'ADJ'
p575
F1.0
s(lp576
g103
atp577
a(S'\xc3\xba\xc4\x8dinok'
p578
(dp579
S'NOUN'
p580
F1.0
s(lp581
g116
atp582
a(g9
(dp583
g11
F1.0
s(lp584
g9
atp585
a(S'pani'
p586
(dp587
S'NOUN'
p588
F1.0
s(lp589
g132
atp590
a(S'predsedaj\xc3\xbaca'
p591
(dp592
S'NOUN'
p593
F0.032614
sS'VERB'
p594
F0.9303720000000001
sS'ADJ'
p595
F0.037014
s(lp596
g138
atp597
a(g11
(dp598
g11
F1.0
s(lp599
g11
atp600
asS'pl'
p601
(lp602
(S'pani'
p603
(dp604
S'NOUN'
p605
F0.999999
s(lp606
tp607
a(S'przewodnicz\xc4\x85ca'
p608
(dp609
S'NOUN'
p610
F1.0
s(lp611
g132
atp612
a(S'!'
p613
(dp614
g11
F1.0
s(lp615
g138
atp616
a(S'\xc5\x9awiat'
p617
(dp618
S'NOUN'
p619
F1.0
s(lp620
g28
atp621
a(S'o'
p622
(dp623
g252
F0.000299
sS'VERB'
p624
F3.8e-05
sS'NOUN'
p625
F0.0
sS'ADP'
p626
F0.99966
sS'PRT'
p627
F2e-06
s(lp628
g46
atp629
a(S'tym'
p630
(dp631
S'ADV'
p632
F0.001348
sS'ADJ'
p633
F0.139435
sS'CONJ'
p634
F0.000132
sS'NOUN'
p635
F0.859059
sS'PRT'
p636
F2.6e-05
s(lp637
tp638
a(S'nie'
p639
(dp640
S'ADV'
p641
F8e-06
sS'PRT'
p642
F0.988423
sS'CONJ'
p643
F0.011486
sS'NOUN'
p644
F4e-06
sS'PRON'
p645
F7.999999999999999e-05
s(lp646
g53
atp647
a(S'zapomni'
p648
(dp649
S'VERB'
p650
F1.0
s(lp651
g46
atp652
a(g9
(dp653
g252
F0.0
sg11
F1.0
s(lp654
g9
atp655
a(S'ale'
p656
(dp657
S'PRT'
p658
F0.001396
sS'CONJ'
p659
F0.997057
sS'NOUN'
p660
F0.001547
s(lp661
g59
atp662
a(S'zwyk\xc5\x82e'
p663
(dp664
S'ADJ'
p665
F0.9999999999999999
s(lp666
tp667
a(S's\xc5\x82owa'
p668
(dp669
S'NOUN'
p670
F1.0
s(lp671
g77
atp672
a(S'mog\xc4\x85'
p673
(dp674
S'VERB'
p675
F1.0
s(lp676
g90
atp677
a(S'da\xc4\x87'
p678
(dp679
S'VERB'
p680
F1.0
s(lp681
g65
atp682
a(S'nik\xc5\x82e'
p683
(dp684
S'ADJ'
p685
F1.0
s(lp686
g103
atp687
a(S'skutki'
p688
(dp689
S'NOUN'
p690
F1.0
s(lp691
g116
atp692
a(g11
(dp693
g11
F1.0
s(lp694
g11
atp695
asS'sl'
p696
(lp697
(S'gospa'
p698
(dp699
S'NOUN'
p700
F1.0
s(lp701
g132
atp702
a(S'predsednica'
p703
(dp704
S'NOUN'
p705
F1.0
s(lp706
g138
atp707
a(g9
(dp708
g11
F1.0
s(lp709
g9
atp710
a(S'svet'
p711
(dp712
S'NOUN'
p713
F1.0
s(lp714
g28
atp715
a(S'potem'
p716
(dp717
S'ADV'
p718
F1.0
s(lp719
g7
atp720
a(S'ne'
p721
(dp722
S'PRT'
p723
F0.996005
sS'CONJ'
p724
F0.00396
sg252
F3.4e-05
s(lp725
g53
atp726
a(S'bo'
p727
(dp728
S'VERB'
p729
F1.0
s(lp730
g13
atp731
a(S'pozabil'
p732
(dp733
S'VERB'
p734
F1.0
s(lp735
g46
atp736
a(g9
(dp737
g11
F1.0
s(lp738
g9
atp739
a(S'a'
p740
(dp741
S'ADV'
p742
F0.004609
sg252
F0.000215
sS'CONJ'
p743
F0.993364
sS'NOUN'
p744
F0.001812
s(lp745
g59
atp746
a(S'zgolj'
p747
(dp748
S'PRT'
p749
F1.0
s(lp750
g65
atp751
a(S'besede'
p752
(dp753
S'NOUN'
p754
F1.0000010000000001
s(lp755
g77
atp756
a(S'bodo'
p757
(dp758
S'VERB'
p759
F1.0
s(lp760
g90
atp761
a(S'imele'
p762
(dp763
S'VERB'
p764
F1.0
s(lp765
g196
atp766
a(S'malo'
p767
(dp768
S'ADV'
p769
F0.99709
sS'ADJ'
p770
F0.002909
s(lp771
g103
atp772
a(S'u\xc4\x8dinka'
p773
(dp774
S'NOUN'
p775
F1.0
s(lp776
g116
atp777
a(g11
(dp778
g11
F1.0
s(lp779
g11
atp780
asS'es'
p781
(lp782
(S'el'
p783
(dp784
S'PRON'
p785
F1e-05
sS'DET'
p786
F0.99999
s(lp787
g20
atp788
a(S'mundo'
p789
(dp790
S'NOUN'
p791
F1.0
s(lp792
g28
atp793
a(S'entonces'
p794
(dp795
S'ADV'
p796
F1.0
s(lp797
g7
atp798
a(S'no'
p799
(dp800
S'ADV'
p801
F1.0
sg252
F0.0
s(lp802
g53
atp803
a(S'lo'
p804
(dp805
S'PRON'
p806
F0.999999
sS'DET'
p807
F1e-06
s(lp808
g13
atp809
a(S'olvidar\xc3\xa1'
p810
(dp811
S'VERB'
p812
F1.0
s(lp813
g46
atp814
a(g9
(dp815
g11
F1.0
s(lp816
g9
atp817
a(S'pero'
p818
(dp819
S'CONJ'
p820
F0.99991
sS'NOUN'
p821
F9e-05
s(lp822
g59
atp823
a(S'las'
p824
(dp825
S'PRON'
p826
F1.9e-05
sS'DET'
p827
F0.999981
s(lp828
tp829
a(S'simples'
p830
(dp831
S'ADJ'
p832
F1.0
s(lp833
g65
atp834
a(S'palabras'
p835
(dp836
S'NOUN'
p837
F1.0
s(lp838
g77
atp839
a(S'tendr\xc3\xa1n'
p840
(dp841
S'VERB'
p842
F1.0
s(lp843
g90
atp844
a(S'poco'
p845
(dp846
S'ADV'
p847
F0.087201
sS'ADJ'
p848
F0.912799
s(lp849
g103
atp850
a(S'efecto'
p851
(dp852
S'NOUN'
p853
F1.0
s(lp854
g116
atp855
a(g9
(dp856
g11
F1.0
s(lp857
g9
atp858
a(S'se\xc3\xb1ora'
p859
(dp860
S'NOUN'
p861
F1.0
s(lp862
g132
atp863
a(S'presidenta'
p864
(dp865
S'NOUN'
p866
F1.0
s(lp867
g138
atp868
a(g11
(dp869
g11
F1.0
s(lp870
g11
atp871
as.