(dp0
S'fr'
p1
(lp2
(S'('
p3
(dp4
S'.'
p5
F1.0
s(lp6
g3
atp7
a(S'ro'
p8
(dp9
S'ADJ'
p10
F0.13429
sS'VERB'
p11
F0.638201
sS'NOUN'
p12
F0.227509
s(lp13
S'ro'
p14
atp15
a(S')'
p16
(dp17
g5
F1.0
s(lp18
g16
atp19
a(S'monsieur'
p20
(dp21
S'NOUN'
p22
F1.0
s(lp23
S'mr'
p24
atp25
a(S'le'
p26
(dp27
S'PRON'
p28
F0.000321
sS'DET'
p29
F0.999679
s(lp30
tp31
a(S'pr\xc3\xa9sident'
p32
(dp33
S'VERB'
p34
F4.5e-05
sS'NOUN'
p35
F0.999955
s(lp36
S'president'
p37
atp38
a(S','
p39
(dp40
g5
F1.0
s(lp41
g39
atp42
a(S'sur'
p43
(dp44
S'ADP'
p45
F1.0
s(lp46
S'on'
p47
atp48
a(S"l'"
p49
(dp50
S'ADJ'
p51
F0.160704
sS'VERB'
p52
F0.06480800000000002
sS'NOUN'
p53
F0.774488
s(lp54
S'a'
p55
atp56
a(S'avis'
p57
(dp58
S'NOUN'
p59
F1.0
s(lp60
S'notification'
p61
atp62
a(S'de'
p63
(dp64
S'ADP'
p65
F1.0
s(lp66
S'from'
p67
atp68
a(S'la'
p69
(dp70
S'PRON'
p71
F1.2e-05
sS'DET'
p72
F0.999988
sS'NOUN'
p73
F0.0
s(lp74
S'the'
p75
atp76
a(S'coalition'
p77
(dp78
S'NOUN'
p79
F1.0
s(lp80
S'coalition'
p81
atp82
a(S"d'"
p83
(dp84
S'NOUN'
p85
F0.032441
sS'VERB'
p86
F0.694014
sS'ADJ'
p87
F0.273544
s(lp88
S'ngo'
p89
atp90
a(S'ong'
p91
(dp92
S'ADJ'
p93
F0.083615
sS'VERB'
p94
F0.005644
sS'NOUN'
p95
F0.910742
s(lp96
tp97
a(S'pour'
p98
(dp99
S'CONJ'
p100
F0.175146
sS'ADP'
p101
F0.824854
s(lp102
S'for'
p103
atp104
a(S'les'
p105
(dp106
S'PRON'
p107
F0.011649
sS'DET'
p108
F0.988348
sS'ADP'
p109
F3e-06
s(lp110
g89
atp111
a(S'fonds'
p112
(dp113
S'VERB'
p114
F0.011932
sS'NOUN'
p115
F0.988068
s(lp116
S'funds'
p117
atp118
a(S'structurels'
p119
(dp120
S'ADJ'
p121
F1.0
s(lp122
S'structural'
p123
atp124
a(g39
(dp125
g5
F1.0
s(lp126
g39
atp127
a(S'je'
p128
(dp129
S'PRON'
p130
F1.0
s(lp131
S'i'
p132
atp133
a(S'voudrais'
p134
(dp135
S'VERB'
p136
F1.0
s(lp137
S'like'
p138
atp139
a(S'attirer'
p140
(dp141
S'VERB'
p142
F1.0
s(lp143
S'draw'
p144
atp145
a(S"l'"
p146
(dp147
S'ADJ'
p148
F0.050629
sS'VERB'
p149
F0.794975
sS'NOUN'
p150
F0.154398
s(lp151
S'the'
p152
atp153
a(S'attention'
p154
(dp155
S'NOUN'
p156
F1.0
s(lp157
S'attention'
p158
atp159
a(S'des'
p160
(dp161
S'DET'
p162
F2.1e-05
sS'ADP'
p163
F0.999979
s(lp164
S'of'
p165
atp166
a(S'institutions'
p167
(dp168
S'NOUN'
p169
F1.0
s(lp170
S'institutions'
p171
atp172
a(S'europ\xc3\xa9ennes'
p173
(dp174
S'NOUN'
p175
F0.075034
sS'ADJ'
p176
F0.924966
s(lp177
S'european'
p178
atp179
a(S'responsables'
p180
(dp181
S'ADJ'
p182
F1.0
s(lp183
S'responsible'
p184
atp185
a(S'sur'
p186
(dp187
S'ADP'
p188
F1.0
s(lp189
S'to'
p190
atp191
a(S'la'
p192
(dp193
S'PRON'
p194
F0.013445
sS'DET'
p195
F0.98652
sS'NOUN'
p196
F3.5e-05
s(lp197
S'the'
p198
atp199
a(S'tr\xc3\xa8s'
p200
(dp201
S'ADV'
p202
F1.0
s(lp203
S'extremely'
p204
atp205
a(S'mauvaise'
p206
(dp207
S'NOUN'
p208
F0.000455
sS'ADJ'
p209
F0.999545
s(lp210
S'poor'
p211
atp212
a(S'gestion'
p213
(dp214
S'NOUN'
p215
F1.0
s(lp216
S'management'
p217
atp218
a(S'des'
p219
(dp220
S'DET'
p221
F2.1e-05
sS'ADP'
p222
F0.999979
s(lp223
S'of'
p224
atp225
a(S'fonds'
p226
(dp227
S'VERB'
p228
F1e-06
sS'NOUN'
p229
F0.999999
s(lp230
S'funds'
p231
atp232
a(S'structurels'
p233
(dp234
S'ADJ'
p235
F1.0
s(lp236
S'structural'
p237
atp238
a(S'en'
p239
(dp240
S'PRON'
p241
F0.000275
sS'ADP'
p242
F0.999725
s(lp243
S'in'
p244
atp245
a(S'roumanie'
p246
(dp247
S'NOUN'
p248
F1.0
s(lp249
S'romania'
p250
atp251
a(g39
(dp252
g5
F1.0
s(lp253
g39
atp254
a(S'en'
p255
(dp256
S'PRON'
p257
F0.007164
sS'ADP'
p258
F0.992836
s(lp259
tp260
a(S'particulier'
p261
(dp262
S'NOUN'
p263
F0.476022
sS'ADJ'
p264
F0.523978
s(lp265
S'especially'
p266
atp267
a(S'concernant'
p268
(dp269
S'VERB'
p270
F0.732098
sS'ADP'
p271
F0.267902
s(lp272
S'in'
p273
atp274
a(S'le'
p275
(dp276
S'PRON'
p277
F0.000413
sS'DET'
p278
F0.999587
s(lp279
S'the'
p280
atp281
a(S'programme'
p282
(dp283
S'VERB'
p284
F0.000489
sS'NOUN'
p285
F0.999511
s(lp286
S'programme'
p287
atp288
a(S'op\xc3\xa9rationnel'
p289
(dp290
S'ADJ'
p291
F1.0
s(lp292
S'operational'
p293
atp294
a(S'sectoriel'
p295
(dp296
S'ADJ'
p297
F1.0
s(lp298
tp299
a(S'portant'
p300
(dp301
S'ADJ'
p302
F0.000801
sS'VERB'
p303
F0.968592
sS'NOUN'
p304
F0.030607
s(lp305
S'sectoral'
p306
atp307
a(S'sur'
p308
(dp309
S'ADP'
p310
F1.0
s(lp311
S'for'
p312
atp313
a(S'les'
p314
(dp315
S'PRON'
p316
F0.00054
sS'DET'
p317
F0.999458
sS'ADP'
p318
F2e-06
s(lp319
tp320
a(S'ressources'
p321
(dp322
S'VERB'
p323
F0.000523
sS'NOUN'
p324
F0.999477
s(lp325
S'resources'
p326
atp327
a(S'humaines'
p328
(dp329
S'ADJ'
p330
F1.0
s(lp331
S'human'
p332
atp333
a(g5
(dp334
g5
F1.0
s(lp335
g5
atp336
asS'en'
p337
(lp338
(g3
(dp339
g5
F1.0
s(lp340
g3
atp341
a(g14
(dp342
S'ADV'
p343
F3.4e-05
sS'ADJ'
p344
F0.001403
sS'VERB'
p345
F0.000131
sS'NOUN'
p346
F0.9984329999999999
s(lp347
g14
atp348
a(g16
(dp349
g5
F1.0
s(lp350
g16
atp351
a(g24
(dp352
S'ADJ'
p353
F0.004952
sS'NOUN'
p354
F0.995048
s(lp355
g24
atp356
a(g37
(dp357
S'NOUN'
p358
F1.0
s(lp359
g37
atp360
a(g39
(dp361
g5
F1.0
s(lp362
g39
atp363
a(S'acting'
p364
(dp365
S'NOUN'
p366
F0.004626
sS'VERB'
p367
F0.983827
sS'ADJ'
p368
F0.011547
s(lp369
g364
atp370
a(g47
(dp371
S'ADV'
p372
F0.002495
sS'PRT'
p373
F0.025667
sS'ADJ'
p374
F0.0
sS'NOUN'
p375
F0.0
sS'ADP'
p376
F0.971838
s(lp377
g47
atp378
a(g55
(dp379
S'NOUN'
p380
F0.0
sS'DET'
p381
F1.0
s(lp382
g55
atp383
a(g61
(dp384
S'NOUN'
p385
F1.0
s(lp386
g61
atp387
a(g67
(dp388
S'ADP'
p389
F1.0
s(lp390
g67
atp391
a(g75
(dp392
S'NOUN'
p393
F4.2e-05
sS'DET'
p394
F0.999958
s(lp395
g75
atp396
a(g89
(dp397
S'NOUN'
p398
F1.0000010000000001
s(lp399
g89
atp400
a(g81
(dp401
S'NOUN'
p402
F1.0
s(lp403
g81
atp404
a(g103
(dp405
S'ADP'
p406
F1.0
s(lp407
g103
atp408
a(g123
(dp409
S'ADJ'
p410
F1.0
s(lp411
g123
atp412
a(g117
(dp413
S'VERB'
p414
F3e-06
sS'NOUN'
p415
F0.999996
s(lp416
g117
atp417
a(g39
(dp418
g5
F1.0
s(lp419
g39
atp420
a(g132
(dp421
S'X'
p422
F0.177708
sS'NOUN'
p423
F0.822292
s(lp424
g132
atp425
a(S'would'
p426
(dp427
S'VERB'
p428
F1.0
s(lp429
g426
atp430
a(g138
(dp431
S'VERB'
p432
F0.9997360000000001
sS'ADJ'
p433
F3.1e-05
sS'ADP'
p434
F0.000233
s(lp435
g138
atp436
a(S'to'
p437
(dp438
S'ADV'
p439
F0.0
sS'PRT'
p440
F1.0
sS'ADP'
p441
F0.0
s(lp442
g437
atp443
a(g144
(dp444
S'VERB'
p445
F0.999956
sS'NOUN'
p446
F4.4e-05
s(lp447
g144
atp448
a(g152
(dp449
S'NOUN'
p450
F1e-06
sS'DET'
p451
F0.999999
s(lp452
g152
atp453
a(g158
(dp454
S'NOUN'
p455
F1.0
s(lp456
g158
atp457
a(g165
(dp458
S'ADP'
p459
F1.0
s(lp460
g165
atp461
a(S'the'
p462
(dp463
S'NOUN'
p464
F1e-06
sS'DET'
p465
F0.999999
s(lp466
g462
atp467
a(g178
(dp468
S'NOUN'
p469
F0.13958800000000002
sS'VERB'
p470
F9e-06
sS'ADJ'
p471
F0.860402
s(lp472
g178
atp473
a(g171
(dp474
S'NOUN'
p475
F1.0
s(lp476
g171
atp477
a(g184
(dp478
S'ADJ'
p479
F1.0
s(lp480
g184
atp481
a(g190
(dp482
S'ADV'
p483
F0.0
sS'PRT'
p484
F0.999993
sS'ADP'
p485
F6e-06
s(lp486
g190
atp487
a(g198
(dp488
S'NOUN'
p489
F9e-06
sS'DET'
p490
F0.999991
s(lp491
g198
atp492
a(g204
(dp493
S'ADV'
p494
F1.0
s(lp495
g204
atp496
a(g211
(dp497
S'NOUN'
p498
F0.000944
sS'ADJ'
p499
F0.999056
s(lp500
g211
atp501
a(g217
(dp502
S'NOUN'
p503
F1.0
s(lp504
g217
atp505
a(g224
(dp506
S'ADP'
p507
F1.0
s(lp508
g224
atp509
a(g237
(dp510
S'ADJ'
p511
F1.0
s(lp512
g237
atp513
a(g231
(dp514
S'VERB'
p515
F4e-06
sS'NOUN'
p516
F0.999997
s(lp517
g231
atp518
a(g244
(dp519
S'ADV'
p520
F0.00015
sS'PRT'
p521
F0.000182
sS'ADP'
p522
F0.999667
s(lp523
g244
atp524
a(g250
(dp525
S'ADJ'
p526
F0.000544
sS'NOUN'
p527
F0.999456
s(lp528
g250
atp529
a(g39
(dp530
g5
F1.0
s(lp531
g39
atp532
a(g266
(dp533
S'ADV'
p534
F1.0
s(lp535
g266
atp536
a(g273
(dp537
S'ADV'
p538
F0.001591
sS'PRT'
p539
F7e-06
sS'ADP'
p540
F0.998402
s(lp541
g273
atp542
a(g280
(dp543
S'NOUN'
p544
F1e-06
sS'DET'
p545
F0.999999
s(lp546
g280
atp547
a(g306
(dp548
S'ADJ'
p549
F1.0
s(lp550
g306
atp551
a(g293
(dp552
S'ADJ'
p553
F1.0
s(lp554
g293
atp555
a(g287
(dp556
S'VERB'
p557
F0.000921
sS'NOUN'
p558
F0.999079
s(lp559
g287
atp560
a(g312
(dp561
S'ADP'
p562
F1.0
s(lp563
g312
atp564
a(g332
(dp565
S'NOUN'
p566
F0.018065
sS'ADJ'
p567
F0.981935
s(lp568
g332
atp569
a(g326
(dp570
S'NOUN'
p571
F1.0
s(lp572
g326
atp573
a(g5
(dp574
g5
F1.0
s(lp575
g5
atp576
asS'nl'
p577
(lp578
(g3
(dp579
g5
F1.0
s(lp580
g3
atp581
a(S'ro'
p582
(dp583
S'ADJ'
p584
F0.06221
sS'NOUN'
p585
F0.93779
s(lp586
g14
atp587
a(g16
(dp588
g5
F1.0
s(lp589
g16
atp590
a(S'mijnheer'
p591
(dp592
S'NOUN'
p593
F1.0
s(lp594
g24
atp595
a(S'de'
p596
(dp597
S'DET'
p598
F1.0
s(lp599
tp600
a(S'voorzitter'
p601
(dp602
S'NOUN'
p603
F1.0
s(lp604
g37
atp605
a(g39
(dp606
g5
F1.0
s(lp607
g39
atp608
a(S'naar'
p609
(dp610
S'CONJ'
p611
F0.018961
sS'ADJ'
p612
F0.000132
sS'ADP'
p613
F0.980907
s(lp614
g103
atp615
a(S'aanleiding'
p616
(dp617
S'NOUN'
p618
F1.0
s(lp619
g364
atp620
a(S'van'
p621
(dp622
S'ADP'
p623
F1.0
s(lp624
g47
atp625
a(S'een'
p626
(dp627
S'ADJ'
p628
F1e-06
sS'PRON'
p629
F2.9e-05
sS'NUM'
p630
F0.0
sS'DET'
p631
F0.99997
s(lp632
g55
atp633
a(S'bericht'
p634
(dp635
S'VERB'
p636
F0.0016200000000000001
sS'NOUN'
p637
F0.998379
s(lp638
g61
atp639
a(S'van'
p640
(dp641
S'ADP'
p642
F1.0
s(lp643
g67
atp644
a(S'de'
p645
(dp646
S'DET'
p647
F1.0
s(lp648
g75
atp649
a(S'ngo'
p650
(dp651
S'NOUN'
p652
F1.0
s(lp653
g89
atp654
a(S'coalition'
p655
(dp656
S'NOUN'
p657
F1.0
s(lp658
g81
atp659
a(S'for'
p660
(dp661
S'NOUN'
p662
F0.19066
sS'ADJ'
p663
F0.80934
s(lp664
tp665
a(S'structural'
p666
(dp667
S'ADV'
p668
F0.035638
sS'NOUN'
p669
F0.964362
s(lp670
g89
atp671
a(S'funds'
p672
(dp673
S'NOUN'
p674
F1.0
s(lp675
g117
atp676
a(S'wil'
p677
(dp678
S'VERB'
p679
F0.999775
sS'NOUN'
p680
F0.000225
s(lp681
g138
atp682
a(S'ik'
p683
(dp684
S'PRON'
p685
F1.0
sS'NOUN'
p686
F0.0
s(lp687
g132
atp688
a(S'de'
p689
(dp690
S'DET'
p691
F1.0
s(lp692
g152
atp693
a(S'aandacht'
p694
(dp695
S'NOUN'
p696
F1.0
s(lp697
g158
atp698
a(S'van'
p699
(dp700
S'ADP'
p701
F1.0
s(lp702
g165
atp703
a(S'de'
p704
(dp705
S'DET'
p706
F1.0
s(lp707
g462
atp708
a(S'europese'
p709
(dp710
S'NOUN'
p711
F1.0
s(lp712
g178
atp713
a(S'instellingen'
p714
(dp715
S'NOUN'
p716
F1.0
s(lp717
g171
atp718
a(S'vestigen'
p719
(dp720
S'VERB'
p721
F0.968746
sS'NOUN'
p722
F0.031255
s(lp723
tp724
a(S'op'
p725
(dp726
S'ADV'
p727
F0.012286
sS'ADJ'
p728
F0.0
sS'ADP'
p729
F0.987713
s(lp730
g144
atp731
a(S'het'
p732
(dp733
S'PRON'
p734
F0.005873
sS'DET'
p735
F0.994127
s(lp736
g198
atp737
a(S'zeer'
p738
(dp739
S'NOUN'
p740
F0.00059
sS'ADJ'
p741
F0.99941
s(lp742
g204
atp743
a(S'slechte'
p744
(dp745
S'NOUN'
p746
F0.007931
sS'ADJ'
p747
F0.992069
s(lp748
g211
atp749
a(S'beheer'
p750
(dp751
S'VERB'
p752
F0.00027
sS'NOUN'
p753
F0.99973
s(lp754
g217
atp755
a(S'van'
p756
(dp757
S'ADP'
p758
F1.0
s(lp759
g224
atp760
a(S'de'
p761
(dp762
S'DET'
p763
F1.0
s(lp764
tp765
a(S'structuurfondsen'
p766
(dp767
S'ADJ'
p768
F0.004196
sS'NOUN'
p769
F0.9958039999999999
s(lp770
g237
atp771
a(S'in'
p772
(dp773
S'ADV'
p774
F0.000106
sS'VERB'
p775
F0.0
sS'ADP'
p776
F0.999894
s(lp777
g244
atp778
a(S'roemeni\xc3\xab'
p779
(dp780
S'ADJ'
p781
F0.00113
sS'NOUN'
p782
F0.9988699999999999
s(lp783
g250
atp784
a(g39
(dp785
g5
F1.0
s(lp786
g39
atp787
a(S'met'
p788
(dp789
S'ADP'
p790
F1.0
s(lp791
tp792
a(S'name'
p793
(dp794
S'NOUN'
p795
F1.0
s(lp796
g266
atp797
a(S'in'
p798
(dp799
S'ADV'
p800
F0.002988
sS'VERB'
p801
F3e-06
sS'ADP'
p802
F0.997009
s(lp803
g273
atp804
a(S'het'
p805
(dp806
S'PRON'
p807
F0.0038840000000000003
sS'DET'
p808
F0.996116
s(lp809
g280
atp810
a(S'sectorale'
p811
(dp812
S'NOUN'
p813
F0.397491
sS'ADJ'
p814
F0.602509
s(lp815
g306
atp816
a(S'operationele'
p817
(dp818
S'NOUN'
p819
F0.005151
sS'ADJ'
p820
F0.994849
s(lp821
g293
atp822
a(S'programma'
p823
(dp824
S'NOUN'
p825
F1.0
s(lp826
g287
atp827
a(S'voor'
p828
(dp829
S'ADV'
p830
F0.00104
sS'CONJ'
p831
F1e-06
sS'NOUN'
p832
F0.0
sS'ADP'
p833
F0.998958
s(lp834
g312
atp835
a(S'personeel'
p836
(dp837
S'ADJ'
p838
F0.000344
sS'NOUN'
p839
F0.999656
s(lp840
g326
atp841
a(g5
(dp842
g5
F1.0
s(lp843
g5
atp844
asS'de'
p845
(lp846
(g3
(dp847
g5
F1.0
s(lp848
g3
atp849
a(S'ro'
p850
(dp851
S'ADJ'
p852
F0.697471
s(lp853
g14
atp854
a(g16
(dp855
g5
F1.0
s(lp856
g16
atp857
a(S'herr'
p858
(dp859
S'ADJ'
p860
F0.197595
sS'NOUN'
p861
F0.771917
s(lp862
g24
atp863
a(S'pr\xc3\xa4sident'
p864
(dp865
S'VERB'
p866
F0.063894
sS'NOUN'
p867
F0.922144
s(lp868
g37
atp869
a(g39
(dp870
g5
F1.0
s(lp871
g39
atp872
a(S'ich'
p873
(dp874
S'PRON'
p875
F1.0
s(lp876
g132
atp877
a(S'trete'
p878
(dp879
S'VERB'
p880
F1.0
s(lp881
tp882
a(S'hier'
p883
(dp884
S'ADV'
p885
F0.999559
sS'PRT'
p886
F0.000441
s(lp887
g55
atp888
a(S'im'
p889
(dp890
S'ADP'
p891
F1.0
s(lp892
g47
atp893
a(S'auftrag'
p894
(dp895
S'ADJ'
p896
F6.9e-05
sS'NOUN'
p897
F0.999908
s(lp898
g364
atp899
a(S'der'
p900
(dp901
S'PRON'
p902
F0.000215
sS'DET'
p903
F0.999763
s(lp904
g75
atp905
a(S'ngo'
p906
(dp907
S'NOUN'
p908
F0.073924
sS'ADJ'
p909
F0.901979
s(lp910
g89
atp911
a(S'"'
p912
(dp913
g5
F1.0
s(lp914
g81
atp915
a(S'coalition'
p916
(dp917
S'ADJ'
p918
F0.014562
sS'NOUN'
p919
F0.985413
s(lp920
tp921
a(S'for'
p922
(dp923
g422
F1.0
s(lp924
g89
atp925
a(S'structural'
p926
(dp927
S'VERB'
p928
F0.002764
sS'ADJ'
p929
F0.994398
s(lp930
tp931
a(S'funds'
p932
(dp933
S'NOUN'
p934
F0.9991639999999999
s(lp935
g89
atp936
a(g912
(dp937
g5
F1.0
s(lp938
g81
atp939
a(S'auf'
p940
(dp941
S'PRT'
p942
F0.204116
sS'ADP'
p943
F0.795313
s(lp944
g103
atp945
a(S'und'
p946
(dp947
S'CONJ'
p948
F1.0
s(lp949
g39
atp950
a(S'm\xc3\xb6chte'
p951
(dp952
S'VERB'
p953
F1.0
s(lp954
g138
atp955
a(S'sie'
p956
(dp957
S'PRON'
p958
F1.0
s(lp959
g426
atp960
a(S'darauf'
p961
(dp962
S'ADV'
p963
F0.999475
sS'PRT'
p964
F0.000525
s(lp965
g158
atp966
a(S'hinweisen'
p967
(dp968
S'VERB'
p969
F1.0
s(lp970
g144
atp971
a(g39
(dp972
g5
F1.0
s(lp973
tp974
a(S'dass'
p975
(dp976
S'CONJ'
p977
F1.0
s(lp978
g437
atp979
a(S'die'
p980
(dp981
S'PRON'
p982
F0.003644
sS'DET'
p983
F0.996227
s(lp984
g462
atp985
a(S'europ\xc3\xa4ischen'
p986
(dp987
S'ADJ'
p988
F1.0
s(lp989
g178
atp990
a(S'institutionen'
p991
(dp992
g422
F0.005336
sS'NOUN'
p993
F0.989544
s(lp994
g171
atp995
a(S'das'
p996
(dp997
S'PRON'
p998
F0.214558
sS'DET'
p999
F0.781974
s(lp1000
g198
atp1001
a(S'ausgesprochen'
p1002
(dp1003
S'VERB'
p1004
F0.037535
sS'ADJ'
p1005
F0.962465
s(lp1006
g204
atp1007
a(S'schlechte'
p1008
(dp1009
S'ADJ'
p1010
F1.0
s(lp1011
g211
atp1012
a(S'management'
p1013
(dp1014
S'VERB'
p1015
F3.9e-05
sS'NOUN'
p1016
F0.999944
s(lp1017
g217
atp1018
a(S'der'
p1019
(dp1020
S'PRON'
p1021
F6.3e-05
sS'DET'
p1022
F0.999916
s(lp1023
g224
atp1024
a(S'strukturfonds'
p1025
(dp1026
S'ADJ'
p1027
F0.018278
sS'NOUN'
p1028
F0.966194
s(lp1029
g237
atp1030
a(S'in'
p1031
(dp1032
S'ADP'
p1033
F1.0
s(lp1034
g244
atp1035
a(S'rum\xc3\xa4nien'
p1036
(dp1037
S'ADJ'
p1038
F0.038137
sS'NOUN'
p1039
F0.959191
s(lp1040
g250
atp1041
a(S'zu'
p1042
(dp1043
S'PRT'
p1044
F0.999946
s(lp1045
g190
atp1046
a(S'verantworten'
p1047
(dp1048
S'VERB'
p1049
F1.0
s(lp1050
g184
atp1051
a(S'haben'
p1052
(dp1053
S'VERB'
p1054
F0.998161
s(lp1055
tp1056
a(g39
(dp1057
g5
F1.0
s(lp1058
g39
atp1059
a(S'insbesondere'
p1060
(dp1061
S'ADV'
p1062
F1.0
s(lp1063
g266
atp1064
a(S'beim'
p1065
(dp1066
S'ADP'
p1067
F1.0
s(lp1068
g280
atp1069
a(S'operationellen'
p1070
(dp1071
S'NOUN'
p1072
F0.028971
sS'ADJ'
p1073
F0.971027
s(lp1074
g293
atp1075
a(S'programm'
p1076
(dp1077
S'ADJ'
p1078
F0.00589
sS'NOUN'
p1079
F0.993173
s(lp1080
g287
atp1081
a(S'humanressourcen'
p1082
(dp1083
S'VERB'
p1084
F0.233294
sS'ADJ'
p1085
F0.221889
s(lp1086
g326
atp1087
a(g5
(dp1088
g5
F1.0
s(lp1089
g5
atp1090
asS'it'
p1091
(lp1092
(g3
(dp1093
g5
F1.0
s(lp1094
g3
atp1095
a(S'ro'
p1096
(dp1097
S'NOUN'
p1098
F0.003774
sS'VERB'
p1099
F0.984512
sS'ADJ'
p1100
F0.011715
s(lp1101
g14
atp1102
a(g16
(dp1103
g5
F1.0
s(lp1104
g16
atp1105
a(S'signor'
p1106
(dp1107
S'NOUN'
p1108
F1.0
s(lp1109
g24
atp1110
a(S'presidente'
p1111
(dp1112
S'NOUN'
p1113
F1.0
s(lp1114
g37
atp1115
a(g39
(dp1116
g5
F1.0
s(lp1117
g39
atp1118
a(S'agendo'
p1119
(dp1120
S'VERB'
p1121
F1.0
s(lp1122
g364
atp1123
a(S'su'
p1124
(dp1125
S'ADV'
p1126
F0.005431
sS'ADP'
p1127
F0.994569
s(lp1128
g47
atp1129
a(S'comunicazione'
p1130
(dp1131
S'NOUN'
p1132
F1.0
s(lp1133
g61
atp1134
a(S'della'
p1135
(dp1136
S'DEF'
p1137
F0.001587
sS'ADP'
p1138
F0.998413
s(lp1139
g67
atp1140
a(S'coalizione'
p1141
(dp1142
S'NOUN'
p1143
F1.0
s(lp1144
g81
atp1145
a(S'ong'
p1146
(dp1147
S'ADJ'
p1148
F0.033906
sS'NOUN'
p1149
F0.966094
s(lp1150
g89
atp1151
a(S'per'
p1152
(dp1153
S'CONJ'
p1154
F0.053225
sS'ADP'
p1155
F0.946775
s(lp1156
g103
atp1157
a(g132
(dp1158
S'DET'
p1159
F1.0
s(lp1160
tp1161
a(S'fondi'
p1162
(dp1163
S'VERB'
p1164
F0.000106
sS'NOUN'
p1165
F0.999894
s(lp1166
g117
atp1167
a(S'strutturali'
p1168
(dp1169
S'VERB'
p1170
F0.0
sS'ADJ'
p1171
F1.0
s(lp1172
g123
atp1173
a(g39
(dp1174
g5
F1.0
s(lp1175
g39
atp1176
a(S'vorrei'
p1177
(dp1178
S'VERB'
p1179
F1.0
s(lp1180
g138
atp1181
a(S'richiamare'
p1182
(dp1183
S'VERB'
p1184
F1.0
s(lp1185
g144
atp1186
a(S"l'"
p1187
(dp1188
S'NOUN'
p1189
F0.012178
sS'VERB'
p1190
F0.890187
sS'ADJ'
p1191
F0.097635
s(lp1192
g152
atp1193
a(S'attenzione'
p1194
(dp1195
S'NOUN'
p1196
F1.0
s(lp1197
g158
atp1198
a(S'delle'
p1199
(dp1200
S'DEF'
p1201
F0.001048
sS'ADP'
p1202
F0.998952
s(lp1203
g165
atp1204
a(S'istituzioni'
p1205
(dp1206
S'NOUN'
p1207
F1.0
s(lp1208
g171
atp1209
a(S'europee'
p1210
(dp1211
S'NOUN'
p1212
F0.006803
sS'ADJ'
p1213
F0.993197
s(lp1214
g178
atp1215
a(S'responsabili'
p1216
(dp1217
S'ADJ'
p1218
F0.04577
sS'NOUN'
p1219
F0.95423
s(lp1220
g184
atp1221
a(S'sulla'
p1222
(dp1223
S'NOUN'
p1224
F9e-06
sS'ADP'
p1225
F0.999991
s(lp1226
g198
atp1227
a(S'gestione'
p1228
(dp1229
S'NOUN'
p1230
F1.0
s(lp1231
g217
atp1232
a(S'molto'
p1233
(dp1234
S'ADV'
p1235
F0.892808
sS'PRON'
p1236
F0.002002
sS'VERB'
p1237
F0.001151
sS'ADJ'
p1238
F0.104039
s(lp1239
g204
atp1240
a(S'mediocre'
p1241
(dp1242
S'NOUN'
p1243
F0.110068
sS'ADJ'
p1244
F0.889932
s(lp1245
g211
atp1246
a(S'dei'
p1247
(dp1248
S'NOUN'
p1249
F1.5e-05
sS'DEF'
p1250
F0.001905
sS'ADP'
p1251
F0.99808
s(lp1252
g224
atp1253
a(S'fondi'
p1254
(dp1255
S'VERB'
p1256
F5.999999999999999e-06
sS'NOUN'
p1257
F0.999994
s(lp1258
g231
atp1259
a(S'strutturali'
p1260
(dp1261
S'VERB'
p1262
F1e-06
sS'ADJ'
p1263
F0.999999
s(lp1264
g237
atp1265
a(S'in'
p1266
(dp1267
S'ADP'
p1268
F1.0
s(lp1269
g244
atp1270
a(S'romania'
p1271
(dp1272
S'VERB'
p1273
F0.15253
sS'NOUN'
p1274
F0.84747
s(lp1275
g250
atp1276
a(g39
(dp1277
g5
F1.0
s(lp1278
g39
atp1279
a(S'specialmente'
p1280
(dp1281
S'ADV'
p1282
F1.0
s(lp1283
g266
atp1284
a(S'nel'
p1285
(dp1286
S'ADP'
p1287
F1.0
s(lp1288
g273
atp1289
a(S'quadro'
p1290
(dp1291
S'ADJ'
p1292
F0.033477
sS'VERB'
p1293
F1.9e-05
sS'NOUN'
p1294
F0.966504
s(lp1295
tp1296
a(S'del'
p1297
(dp1298
S'DEF'
p1299
F0.001278
sS'ADP'
p1300
F0.998722
s(lp1301
g280
atp1302
a(S'programma'
p1303
(dp1304
S'VERB'
p1305
F0.000173
sS'NOUN'
p1306
F0.999827
s(lp1307
g287
atp1308
a(S'operativo'
p1309
(dp1310
S'ADJ'
p1311
F1.0
s(lp1312
g293
atp1313
a(S'settoriale'
p1314
(dp1315
S'ADJ'
p1316
F1.0
s(lp1317
g306
atp1318
a(S'per'
p1319
(dp1320
S'CONJ'
p1321
F0.061035
sS'ADP'
p1322
F0.938965
s(lp1323
g312
atp1324
a(S'le'
p1325
(dp1326
S'PRON'
p1327
F0.000229
sS'DET'
p1328
F0.999771
s(lp1329
tp1330
a(S'risorse'
p1331
(dp1332
S'VERB'
p1333
F0.000155
sS'NOUN'
p1334
F0.999845
s(lp1335
g326
atp1336
a(S'umane'
p1337
(dp1338
S'ADJ'
p1339
F1.0
s(lp1340
g332
atp1341
a(g5
(dp1342
g5
F1.0
s(lp1343
g5
atp1344
asS'sk'
p1345
(lp1346
(g3
(dp1347
g5
F1.0
s(lp1348
g3
atp1349
a(S'ro'
p1350
(dp1351
S'ADJ'
p1352
F0.07313
sS'VERB'
p1353
F0.48115499999999983
sS'NOUN'
p1354
F0.445715
s(lp1355
g14
atp1356
a(g16
(dp1357
g5
F1.0
s(lp1358
g16
atp1359
a(S'na'
p1360
(dp1361
g422
F0.000216
sS'CONJ'
p1362
F5e-05
sS'ADP'
p1363
F0.999728
sS'PRT'
p1364
F7e-06
s(lp1365
g47
atp1366
a(S'z\xc3\xa1klade'
p1367
(dp1368
S'NOUN'
p1369
F1.0
s(lp1370
g55
atp1371
a(S'ozn\xc3\xa1menia'
p1372
(dp1373
S'NOUN'
p1374
F1.0
s(lp1375
g61
atp1376
a(S'koal\xc3\xadcie'
p1377
(dp1378
S'NOUN'
p1379
F1.0
s(lp1380
g81
atp1381
a(S'mimovl\xc3\xa1dnych'
p1382
(dp1383
S'ADJ'
p1384
F1.0
s(lp1385
tp1386
a(S'organiz\xc3\xa1ci\xc3\xad'
p1387
(dp1388
S'NOUN'
p1389
F1.0
s(lp1390
g89
atp1391
a(S'pre'
p1392
(dp1393
g422
F2e-06
sS'ADP'
p1394
F0.999998
s(lp1395
g103
atp1396
a(S'\xc5\xa1truktur\xc3\xa1lne'
p1397
(dp1398
S'ADV'
p1399
F0.000132
sS'ADJ'
p1400
F0.999868
s(lp1401
g123
atp1402
a(S'fondy'
p1403
(dp1404
S'NOUN'
p1405
F1.0
s(lp1406
g117
atp1407
a(S'by'
p1408
(dp1409
S'PRT'
p1410
F0.999998
sg422
F1e-06
s(lp1411
g426
atp1412
a(S'som'
p1413
(dp1414
S'VERB'
p1415
F1.0
s(lp1416
tp1417
a(S'chcel'
p1418
(dp1419
S'VERB'
p1420
F0.9999990000000001
s(lp1421
g138
atp1422
a(S'eur\xc3\xb3pske'
p1423
(dp1424
S'ADJ'
p1425
F1.0
s(lp1426
g178
atp1427
a(S'in\xc5\xa1tit\xc3\xbacie'
p1428
(dp1429
S'NOUN'
p1430
F1.0
s(lp1431
g171
atp1432
a(S'upozorni\xc5\xa5'
p1433
(dp1434
S'VERB'
p1435
F1.0
s(lp1436
g144
atp1437
a(S'na'
p1438
(dp1439
g422
F0.002228
sS'CONJ'
p1440
F6.5e-05
sS'ADP'
p1441
F0.99762
sS'PRT'
p1442
F8.7e-05
s(lp1443
g190
atp1444
a(S'mimoriadne'
p1445
(dp1446
S'ADV'
p1447
F0.220292
sS'ADJ'
p1448
F0.7797080000000001
s(lp1449
g204
atp1450
a(S'zl\xc3\xa9'
p1451
(dp1452
S'NOUN'
p1453
F0.00415
sS'ADJ'
p1454
F0.99585
s(lp1455
g211
atp1456
a(S'riadenie'
p1457
(dp1458
S'NOUN'
p1459
F1.0
s(lp1460
g217
atp1461
a(S'\xc5\xa1truktur\xc3\xa1lnych'
p1462
(dp1463
S'ADJ'
p1464
F1.0
s(lp1465
g237
atp1466
a(S'fondov'
p1467
(dp1468
S'NOUN'
p1469
F1.0
s(lp1470
g231
atp1471
a(S'v'
p1472
(dp1473
g422
F7.500000000000001e-05
sS'ADP'
p1474
F0.999925
s(lp1475
g244
atp1476
a(S'rumunsku'
p1477
(dp1478
S'NOUN'
p1479
F0.470795
sS'ADJ'
p1480
F0.529205
s(lp1481
g250
atp1482
a(S'najm\xc3\xa4'
p1483
(dp1484
g422
F1.0
s(lp1485
g266
atp1486
a(g1472
(dp1487
g422
F0.000217
sS'ADP'
p1488
F0.999784
s(lp1489
g273
atp1490
a(S'r\xc3\xa1mci'
p1491
(dp1492
S'NOUN'
p1493
F1.0
s(lp1494
g280
atp1495
a(S'sektorov\xc3\xa9ho'
p1496
(dp1497
S'ADJ'
p1498
F1.0
s(lp1499
g306
atp1500
a(S'opera\xc4\x8dn\xc3\xa9ho'
p1501
(dp1502
S'ADJ'
p1503
F1.0
s(lp1504
g293
atp1505
a(S'programu'
p1506
(dp1507
S'NOUN'
p1508
F1.0
s(lp1509
g287
atp1510
a(S'\xc4\xbdudsk\xc3\xa9'
p1511
(dp1512
S'ADJ'
p1513
F1.0
s(lp1514
g332
atp1515
a(S'zdroje'
p1516
(dp1517
S'NOUN'
p1518
F1.0
s(lp1519
g326
atp1520
a(g5
(dp1521
g5
F1.0
s(lp1522
g5
atp1523
asS'pl'
p1524
(lp1525
(g3
(dp1526
S'NOUN'
p1527
F0.000564
sg5
F0.999436
s(lp1528
g3
atp1529
a(S'ro'
p1530
(dp1531
S'VERB'
p1532
F0.6514169999999999
sS'ADJ'
p1533
F0.348583
s(lp1534
g14
atp1535
a(g16
(dp1536
g5
F1.0
s(lp1537
g16
atp1538
a(S'panie'
p1539
(dp1540
S'NOUN'
p1541
F1.0
s(lp1542
g24
atp1543
a(S'przewodnicz\xc4\x85cy'
p1544
(dp1545
S'VERB'
p1546
F0.000602
sS'NOUN'
p1547
F0.999398
s(lp1548
tp1549
a(S'!'
p1550
(dp1551
g5
F1.0
s(lp1552
g37
atp1553
a(S'dzia\xc5\x82aj\xc4\x85c'
p1554
(dp1555
S'VERB'
p1556
F1.0
s(lp1557
g364
atp1558
a(S'na'
p1559
(dp1560
S'PRT'
p1561
F0.0
sS'VERB'
p1562
F0.0
sS'NOUN'
p1563
F0.0
sS'ADP'
p1564
F1.0
sg422
F0.0
s(lp1565
g47
atp1566
a(S'podstawie'
p1567
(dp1568
S'NOUN'
p1569
F1.0
s(lp1570
tp1571
a(S'powiadomienia'
p1572
(dp1573
S'VERB'
p1574
F0.719074
sS'NOUN'
p1575
F0.280926
s(lp1576
g61
atp1577
a(S'ze'
p1578
(dp1579
S'PRT'
p1580
F0.00011
sS'CONJ'
p1581
F2e-06
sS'ADP'
p1582
F0.999888
s(lp1583
tp1584
a(S'strony'
p1585
(dp1586
S'NOUN'
p1587
F0.9999999999999999
s(lp1588
g67
atp1589
a(S'organizacji'
p1590
(dp1591
S'NOUN'
p1592
F1.0
s(lp1593
tp1594
a(S'pozarz\xc4\x85dowej'
p1595
(dp1596
S'ADJ'
p1597
F1.0
s(lp1598
g89
atp1599
a(S'koalicja'
p1600
(dp1601
S'NOUN'
p1602
F1.0
s(lp1603
g81
atp1604
a(S'na'
p1605
(dp1606
g422
F9e-06
sS'VERB'
p1607
F8.6e-05
sS'NOUN'
p1608
F1e-06
sS'ADP'
p1609
F0.999896
sS'PRT'
p1610
F7e-06
s(lp1611
tp1612
a(S'rzecz'
p1613
(dp1614
S'NOUN'
p1615
F1.0
s(lp1616
g103
atp1617
a(S'funduszy'
p1618
(dp1619
S'NOUN'
p1620
F1.0
s(lp1621
g117
atp1622
a(S'strukturalnych'
p1623
(dp1624
S'ADJ'
p1625
F1.0
s(lp1626
g123
atp1627
a(g39
(dp1628
g422
F0.0
sg5
F1.0
s(lp1629
g39
atp1630
a(S'pragn\xc4\x99'
p1631
(dp1632
S'VERB'
p1633
F1.0
s(lp1634
g426
atp1635
a(S'zwr\xc3\xb3ci\xc4\x87'
p1636
(dp1637
S'VERB'
p1638
F1.0
s(lp1639
g144
atp1640
a(S'uwag\xc4\x99'
p1641
(dp1642
S'NOUN'
p1643
F1.0
s(lp1644
g158
atp1645
a(S'odpowiednich'
p1646
(dp1647
S'ADJ'
p1648
F0.9999990000000001
s(lp1649
g462
atp1650
a(S'instytucji'
p1651
(dp1652
S'NOUN'
p1653
F1.0
s(lp1654
g171
atp1655
a(S'europejskich'
p1656
(dp1657
S'ADJ'
p1658
F0.999999
s(lp1659
g178
atp1660
a(S'na'
p1661
(dp1662
S'PRT'
p1663
F0.000319
sS'VERB'
p1664
F0.00020800000000000001
sS'NOUN'
p1665
F5.6e-05
sS'ADP'
p1666
F0.999354
sg422
F6.3e-05
s(lp1667
g190
atp1668
a(S'niezwykle'
p1669
(dp1670
S'ADV'
p1671
F1.0
s(lp1672
g204
atp1673
a(S'nieudolne'
p1674
(dp1675
S'ADV'
p1676
F0.000264
sS'NOUN'
p1677
F4.9999999999999996e-06
sS'ADJ'
p1678
F0.9997319999999998
s(lp1679
g211
atp1680
a(S'zarz\xc4\x85dzanie'
p1681
(dp1682
S'VERB'
p1683
F0.905021
sS'NOUN'
p1684
F0.09497900000000001
s(lp1685
g217
atp1686
a(S'funduszami'
p1687
(dp1688
S'NOUN'
p1689
F1.0
s(lp1690
g231
atp1691
a(S'strukturalnymi'
p1692
(dp1693
S'ADJ'
p1694
F1.0
s(lp1695
g237
atp1696
a(S'w'
p1697
(dp1698
S'NOUN'
p1699
F1.1e-05
sS'ADJ'
p1700
F0.000136
sS'ADP'
p1701
F0.999849
sg422
F4e-06
s(lp1702
g244
atp1703
a(S'rumunii'
p1704
(dp1705
S'VERB'
p1706
F0.0
sS'NOUN'
p1707
F1.0
s(lp1708
g250
atp1709
a(g39
(dp1710
g422
F0.0
sg5
F1.0
s(lp1711
g39
atp1712
a(S'szczeg\xc3\xb3lnie'
p1713
(dp1714
S'ADV'
p1715
F0.647596
sS'PRT'
p1716
F0.352404
s(lp1717
g266
atp1718
a(g1697
(dp1719
S'ADJ'
p1720
F0.0
sg422
F0.0
sS'NOUN'
p1721
F0.0
sS'ADP'
p1722
F1.0
s(lp1723
g273
atp1724
a(S'sektorowym'
p1725
(dp1726
S'ADV'
p1727
F0.0
sS'NOUN'
p1728
F0.0003430000000000001
sS'ADJ'
p1729
F0.999654
s(lp1730
g306
atp1731
a(S'programie'
p1732
(dp1733
S'NOUN'
p1734
F1.0
s(lp1735
g287
atp1736
a(S'operacyjnym'
p1737
(dp1738
S'ADJ'
p1739
F1.0
s(lp1740
g293
atp1741
a(S'dla'
p1742
(dp1743
S'ADP'
p1744
F1.0
s(lp1745
g312
atp1746
a(S'zasob\xc3\xb3w'
p1747
(dp1748
S'NOUN'
p1749
F1.0
s(lp1750
g326
atp1751
a(S'ludzkich'
p1752
(dp1753
S'ADJ'
p1754
F1.0000010000000001
s(lp1755
g332
atp1756
a(g5
(dp1757
g5
F1.0
s(lp1758
g5
atp1759
asS'sl'
p1760
(lp1761
(g3
(dp1762
g5
F1.0
s(lp1763
g3
atp1764
a(S'ro'
p1765
(dp1766
S'ADV'
p1767
F0.011352
sS'ADJ'
p1768
F0.001443
sS'VERB'
p1769
F0.000136
sS'NOUN'
p1770
F0.9870689999999999
s(lp1771
g14
atp1772
a(g16
(dp1773
g5
F1.0
s(lp1774
g16
atp1775
a(S'gospod'
p1776
(dp1777
S'NOUN'
p1778
F1.0
s(lp1779
g24
atp1780
a(S'predsednik'
p1781
(dp1782
S'NOUN'
p1783
F1.0
s(lp1784
g37
atp1785
a(g39
(dp1786
g5
F1.0
s(lp1787
g39
atp1788
a(S'na'
p1789
(dp1790
S'ADP'
p1791
F1.0
s(lp1792
g47
atp1793
a(S'podlagi'
p1794
(dp1795
S'NOUN'
p1796
F1.0
s(lp1797
g67
atp1798
a(S'uradnega'
p1799
(dp1800
S'ADJ'
p1801
F1.0
s(lp1802
tp1803
a(S'obvestila'
p1804
(dp1805
S'VERB'
p1806
F0.789434
sS'NOUN'
p1807
F0.210567
s(lp1808
g61
atp1809
a(S'nvo'
p1810
(dp1811
S'ADV'
p1812
F0.124159
sS'NOUN'
p1813
F0.144286
sS'VERB'
p1814
F0.025355999999999993
sS'ADJ'
p1815
F0.7061970000000002
s(lp1816
g89
atp1817
a(S'koalicija'
p1818
(dp1819
S'NOUN'
p1820
F1.0
s(lp1821
g81
atp1822
a(S'za'
p1823
(dp1824
S'ADV'
p1825
F5.5e-05
sg422
F1e-05
sS'ADP'
p1826
F0.999935
s(lp1827
g103
atp1828
a(S'strukturne'
p1829
(dp1830
S'ADJ'
p1831
F1.0
s(lp1832
g123
atp1833
a(S'sklade'
p1834
(dp1835
S'NOUN'
p1836
F1.0
s(lp1837
g117
atp1838
a(S'bi'
p1839
(dp1840
g422
F2.6e-05
sS'VERB'
p1841
F0.999974
s(lp1842
g426
atp1843
a(S'\xc5\xbeelel'
p1844
(dp1845
S'VERB'
p1846
F1.0
s(lp1847
g138
atp1848
a(S'pritegniti'
p1849
(dp1850
S'VERB'
p1851
F1.0
s(lp1852
g144
atp1853
a(S'pozornost'
p1854
(dp1855
S'NOUN'
p1856
F1.0
s(lp1857
g158
atp1858
a(S'evropskih'
p1859
(dp1860
S'ADJ'
p1861
F1.000001
s(lp1862
g178
atp1863
a(S'institucij'
p1864
(dp1865
S'NOUN'
p1866
F1.0
s(lp1867
g171
atp1868
a(g39
(dp1869
g5
F1.0
s(lp1870
tp1871
a(S'ki'
p1872
(dp1873
S'CONJ'
p1874
F1.0
s(lp1875
tp1876
a(S'so'
p1877
(dp1878
g422
F2e-06
sS'VERB'
p1879
F0.999998
s(lp1880
tp1881
a(S'odgovorne'
p1882
(dp1883
S'ADJ'
p1884
F1.0
s(lp1885
g184
atp1886
a(S'za'
p1887
(dp1888
S'ADV'
p1889
F0.000222
sg422
F3e-06
sS'ADP'
p1890
F0.999775
s(lp1891
g190
atp1892
a(S'izredno'
p1893
(dp1894
S'ADV'
p1895
F0.025467
sS'ADJ'
p1896
F0.974533
s(lp1897
g204
atp1898
a(S'slabo'
p1899
(dp1900
S'ADV'
p1901
F0.000564
sS'ADJ'
p1902
F0.999437
s(lp1903
g211
atp1904
a(S'upravljanje'
p1905
(dp1906
S'NOUN'
p1907
F1.0
s(lp1908
g217
atp1909
a(S'strukturnih'
p1910
(dp1911
S'ADJ'
p1912
F1.0
s(lp1913
g237
atp1914
a(S'skladov'
p1915
(dp1916
S'NOUN'
p1917
F1.0
s(lp1918
g231
atp1919
a(g1472
(dp1920
S'ADP'
p1921
F1.0
s(lp1922
g244
atp1923
a(S'romuniji'
p1924
(dp1925
S'ADV'
p1926
F2.6e-05
sS'ADJ'
p1927
F1e-06
sS'VERB'
p1928
F4e-06
sS'NOUN'
p1929
F0.9999699999999998
s(lp1930
g250
atp1931
a(g39
(dp1932
g5
F1.0
s(lp1933
g39
atp1934
a(S'zlasti'
p1935
(dp1936
S'ADV'
p1937
F0.014127
sS'PRT'
p1938
F0.985873
s(lp1939
g266
atp1940
a(g1472
(dp1941
S'ADP'
p1942
F1.0
s(lp1943
g273
atp1944
a(S'sektorskem'
p1945
(dp1946
S'ADV'
p1947
F0.0
sS'NOUN'
p1948
F0.00023
sS'VERB'
p1949
F0.0
sS'ADJ'
p1950
F0.999769
s(lp1951
g306
atp1952
a(S'operativnem'
p1953
(dp1954
S'ADV'
p1955
F0.0
sS'NOUN'
p1956
F2.8000000000000003e-05
sS'VERB'
p1957
F0.0
sS'ADJ'
p1958
F0.9999699999999999
s(lp1959
g293
atp1960
a(S'programu'
p1961
(dp1962
S'NOUN'
p1963
F1.0
s(lp1964
g287
atp1965
a(S'za'
p1966
(dp1967
S'ADV'
p1968
F0.00017
sg422
F1e-06
sS'ADP'
p1969
F0.9998279999999999
s(lp1970
g312
atp1971
a(S'\xc4\x8dlove\xc5\xa1ke'
p1972
(dp1973
S'ADJ'
p1974
F0.9999990000000001
s(lp1975
g332
atp1976
a(S'vire'
p1977
(dp1978
S'NOUN'
p1979
F1.0
s(lp1980
g326
atp1981
a(g5
(dp1982
g5
F1.0
s(lp1983
g5
atp1984
asS'es'
p1985
(lp1986
(g3
(dp1987
g5
F1.0
s(lp1988
g3
atp1989
a(S'ro'
p1990
(dp1991
S'ADV'
p1992
F0.020822
sS'NOUN'
p1993
F0.118294
sS'VERB'
p1994
F0.30892000000000003
sS'ADJ'
p1995
F0.551965
s(lp1996
g14
atp1997
a(g16
(dp1998
g5
F1.0
s(lp1999
g16
atp2000
a(S'sr.'
p2001
(dp2002
S'NOUN'
p2003
F1.0
s(lp2004
g24
atp2005
a(S'presidente'
p2006
(dp2007
S'NOUN'
p2008
F1.0
s(lp2009
g37
atp2010
a(g39
(dp2011
g5
F1.0
s(lp2012
g39
atp2013
a(S'bas\xc3\xa1ndome'
p2014
(dp2015
S'VERB'
p2016
F1.0
s(lp2017
g364
atp2018
a(S'en'
p2019
(dp2020
g422
F0.0
sS'CONJ'
p2021
F0.0
sS'ADP'
p2022
F1.0
s(lp2023
g47
atp2024
a(S'una'
p2025
(dp2026
S'DET'
p2027
F1.0
s(lp2028
g55
atp2029
a(S'notificaci\xc3\xb3n'
p2030
(dp2031
S'NOUN'
p2032
F1.0
s(lp2033
g61
atp2034
a(S'de'
p2035
(dp2036
g422
F0.0
sS'CONJ'
p2037
F1.7e-05
sS'ADP'
p2038
F0.999983
s(lp2039
g67
atp2040
a(S'la'
p2041
(dp2042
g422
F0.0
sS'PRON'
p2043
F0.0
sS'DET'
p2044
F0.999999
sS'NOUN'
p2045
F0.0
s(lp2046
g75
atp2047
a(S'coalici\xc3\xb3n'
p2048
(dp2049
S'NOUN'
p2050
F1.0
s(lp2051
g81
atp2052
a(S'de'
p2053
(dp2054
g422
F2.9e-05
sS'CONJ'
p2055
F0.000452
sS'ADP'
p2056
F0.999519
s(lp2057
tp2058
a(S'ong'
p2059
(dp2060
S'ADJ'
p2061
F0.000646
sS'NOUN'
p2062
F0.9993540000000001
s(lp2063
g89
atp2064
a(S'para'
p2065
(dp2066
S'CONJ'
p2067
F0.000668
sS'ADP'
p2068
F0.999332
s(lp2069
g103
atp2070
a(S'los'
p2071
(dp2072
S'PRON'
p2073
F0.0
sS'DET'
p2074
F1.0
s(lp2075
tp2076
a(S'fondos'
p2077
(dp2078
S'NOUN'
p2079
F1.0
s(lp2080
g117
atp2081
a(S'estructurales'
p2082
(dp2083
S'ADJ'
p2084
F1.0
s(lp2085
g123
atp2086
a(g39
(dp2087
g5
F1.0
s(lp2088
g39
atp2089
a(S'me'
p2090
(dp2091
S'PRON'
p2092
F0.999998
sS'NOUN'
p2093
F2e-06
s(lp2094
g132
atp2095
a(S'gustar\xc3\xada'
p2096
(dp2097
S'VERB'
p2098
F1.0
s(lp2099
g138
atp2100
a(S'llamar'
p2101
(dp2102
S'VERB'
p2103
F1.0
s(lp2104
g144
atp2105
a(S'la'
p2106
(dp2107
S'PRON'
p2108
F4e-06
sS'DET'
p2109
F0.999995
sS'NOUN'
p2110
F0.0
sg422
F1e-06
s(lp2111
g152
atp2112
a(S'atenci\xc3\xb3n'
p2113
(dp2114
S'NOUN'
p2115
F1.0
s(lp2116
g158
atp2117
a(S'de'
p2118
(dp2119
g422
F0.0
sS'CONJ'
p2120
F1.7e-05
sS'ADP'
p2121
F0.999983
s(lp2122
g165
atp2123
a(S'las'
p2124
(dp2125
S'PRON'
p2126
F0.0
sS'DET'
p2127
F1.0
s(lp2128
g462
atp2129
a(S'instituciones'
p2130
(dp2131
S'NOUN'
p2132
F1.0
s(lp2133
g171
atp2134
a(S'europeas'
p2135
(dp2136
S'NOUN'
p2137
F0.306697
sS'ADJ'
p2138
F0.693303
s(lp2139
g178
atp2140
a(S'competentes'
p2141
(dp2142
S'ADJ'
p2143
F1.0
s(lp2144
g184
atp2145
a(g55
(dp2146
g422
F0.000622
sS'CONJ'
p2147
F9e-06
sS'ADP'
p2148
F0.999368
s(lp2149
g190
atp2150
a(S'la'
p2151
(dp2152
g422
F0.0
sS'PRON'
p2153
F0.0
sS'DET'
p2154
F0.999999
sS'NOUN'
p2155
F0.0
s(lp2156
g198
atp2157
a(S'gesti\xc3\xb3n'
p2158
(dp2159
S'NOUN'
p2160
F1.0
s(lp2161
g217
atp2162
a(S'sumamente'
p2163
(dp2164
S'ADV'
p2165
F1.0
s(lp2166
g204
atp2167
a(S'escasa'
p2168
(dp2169
S'ADJ'
p2170
F1.0
s(lp2171
g211
atp2172
a(S'de'
p2173
(dp2174
g422
F0.0
sS'CONJ'
p2175
F5.7e-05
sS'ADP'
p2176
F0.999943
s(lp2177
g224
atp2178
a(S'los'
p2179
(dp2180
S'PRON'
p2181
F0.0
sS'DET'
p2182
F1.0
s(lp2183
tp2184
a(S'fondos'
p2185
(dp2186
S'NOUN'
p2187
F1.0
s(lp2188
g231
atp2189
a(S'estructurales'
p2190
(dp2191
S'ADJ'
p2192
F1.0
s(lp2193
g237
atp2194
a(S'en'
p2195
(dp2196
g422
F2e-05
sS'CONJ'
p2197
F3.2e-05
sS'ADP'
p2198
F0.999949
s(lp2199
g244
atp2200
a(S'ruman\xc3\xada'
p2201
(dp2202
S'ADJ'
p2203
F0.00119
sS'NOUN'
p2204
F0.99881
s(lp2205
g250
atp2206
a(g39
(dp2207
g5
F1.0
s(lp2208
g39
atp2209
a(S'especialmente'
p2210
(dp2211
S'ADV'
p2212
F1.0
s(lp2213
g266
atp2214
a(S'en'
p2215
(dp2216
g422
F0.0
sS'CONJ'
p2217
F3e-06
sS'ADP'
p2218
F0.999997
s(lp2219
g273
atp2220
a(S'el'
p2221
(dp2222
S'PRON'
p2223
F5e-06
sS'DET'
p2224
F0.999995
s(lp2225
g280
atp2226
a(S'programa'
p2227
(dp2228
S'NOUN'
p2229
F1.0
s(lp2230
g287
atp2231
a(S'operativo'
p2232
(dp2233
S'ADJ'
p2234
F1.0
s(lp2235
tp2236
a(S'sectorial'
p2237
(dp2238
S'ADJ'
p2239
F1.0
s(lp2240
g306
atp2241
a(S'de'
p2242
(dp2243
g422
F3.1e-05
sS'CONJ'
p2244
F0.001485
sS'ADP'
p2245
F0.998485
s(lp2246
tp2247
a(S'desarrollo'
p2248
(dp2249
S'NOUN'
p2250
F1.0
s(lp2251
g293
atp2252
a(S'de'
p2253
(dp2254
g422
F2.9e-05
sS'CONJ'
p2255
F0.000449
sS'ADP'
p2256
F0.999522
s(lp2257
g312
atp2258
a(S'recursos'
p2259
(dp2260
S'NOUN'
p2261
F1.0
s(lp2262
g326
atp2263
a(S'humanos'
p2264
(dp2265
S'NOUN'
p2266
F0.11167
sS'ADJ'
p2267
F0.88833
s(lp2268
g332
atp2269
a(g5
(dp2270
g5
F1.0
s(lp2271
g5
atp2272
as.