(dp0
S'fr'
p1
(lp2
(S'je'
p3
(dp4
S'PRON'
p5
F1.0
s(lp6
S'i'
p7
atp8
a(S'soutiens'
p9
(dp10
S'VERB'
p11
F0.996698
sS'NOUN'
p12
F0.003302
s(lp13
S'support'
p14
atp15
a(S'\xc3\xa9galement'
p16
(dp17
S'ADV'
p18
F1.0
s(lp19
S'also'
p20
atp21
a(S'la'
p22
(dp23
S'PRON'
p24
F2.3e-05
sS'DET'
p25
F0.999977
sS'NOUN'
p26
F0.0
s(lp27
S'the'
p28
atp29
a(S'proposition'
p30
(dp31
S'NOUN'
p32
F1.0
s(lp33
tp34
a(S'relative'
p35
(dp36
S'NOUN'
p37
F0.017216
sS'ADJ'
p38
F0.982784
s(lp39
S'proposal'
p40
atp41
a(S'\xc3\xa0'
p42
(dp43
S'ADP'
p44
F1.0
s(lp45
S'in'
p46
atp47
a(S"l'"
p48
(dp49
S'ADJ'
p50
F0.160704
sS'VERB'
p51
F0.06480800000000002
sS'NOUN'
p52
F0.774488
s(lp53
tp54
a(S'\xc3\xa9valuation'
p55
(dp56
S'NOUN'
p57
F1.0
s(lp58
S'card'
p59
atp60
a(S'par'
p61
(dp62
S'NOUN'
p63
F0.0
sS'ADP'
p64
F1.0
s(lp65
S'which'
p66
atp67
a(S'la'
p68
(dp69
S'PRON'
p70
F1.2e-05
sS'DET'
p71
F0.999988
sS'NOUN'
p72
F0.0
s(lp73
S'the'
p74
atp75
a(S'commission'
p76
(dp77
S'NOUN'
p78
F1.0
s(lp79
S'commission'
p80
atp81
a(S','
p82
(dp83
S'.'
p84
F1.0
s(lp85
g82
atp86
a(S'conjointement'
p87
(dp88
S'ADV'
p89
F1.0
s(lp90
S'together'
p91
atp92
a(S'avec'
p93
(dp94
S'ADV'
p95
F0.018273
sS'ADP'
p96
F0.981727
s(lp97
S'with'
p98
atp99
a(S'les'
p100
(dp101
S'PRON'
p102
F0.000117
sS'DET'
p103
F0.999879
sS'ADP'
p104
F4e-06
s(lp105
S'the'
p106
atp107
a(S'principaux'
p108
(dp109
S'NOUN'
p110
F0.434809
sS'ADJ'
p111
F0.565191
s(lp112
S'major'
p113
atp114
a(S'\xc3\xa9metteurs'
p115
(dp116
S'NOUN'
p117
F0.430497
sS'ADJ'
p118
F0.569503
s(lp119
g59
atp120
a(S'de'
p121
(dp122
S'ADP'
p123
F1.0
s(lp124
tp125
a(S'cartes'
p126
(dp127
S'VERB'
p128
F0.000347
sS'NOUN'
p129
F0.999653
s(lp130
g59
atp131
a(S'de'
p132
(dp133
S'ADP'
p134
F1.0
s(lp135
tp136
a(S'cr\xc3\xa9dit'
p137
(dp138
S'NOUN'
p139
F1.0
s(lp140
S'credit'
p141
atp142
a(g82
(dp143
g84
F1.0
s(lp144
g82
atp145
a(S'de'
p146
(dp147
S'ADP'
p148
F1.0
s(lp149
S'into'
p150
atp151
a(S'la'
p152
(dp153
S'PRON'
p154
F1.2e-05
sS'DET'
p155
F0.999988
sS'NOUN'
p156
F0.0
s(lp157
S'the'
p158
atp159
a(S'possibilit\xc3\xa9'
p160
(dp161
S'NOUN'
p162
F1.0
s(lp163
S'scope'
p164
atp165
a(S'technique'
p166
(dp167
S'NOUN'
p168
F0.017216
sS'ADJ'
p169
F0.982784
s(lp170
S'technical'
p171
atp172
a(S'de'
p173
(dp174
S'ADP'
p175
F1.0
s(lp176
S'for'
p177
atp178
a(S'fermer'
p179
(dp180
S'VERB'
p181
F1.0
s(lp182
S'blocking'
p183
atp184
a(S'ou'
p185
(dp186
S'CONJ'
p187
F1.0
s(lp188
S'or'
p189
atp190
a(S'de'
p191
(dp192
S'ADP'
p193
F1.0
s(lp194
tp195
a(S'bloquer'
p196
(dp197
S'VERB'
p198
F1.0
s(lp199
S'closing'
p200
atp201
a(S'le'
p202
(dp203
S'PRON'
p204
F3.4e-05
sS'DET'
p205
F0.999966
s(lp206
tp207
a(S'syst\xc3\xa8me'
p208
(dp209
S'NOUN'
p210
F1.0
s(lp211
S'systems'
p212
atp213
a(S'de'
p214
(dp215
S'ADP'
p216
F1.0
s(lp217
tp218
a(S'paiement'
p219
(dp220
S'NOUN'
p221
F1.0
s(lp222
S'payment'
p223
atp224
a(S'en'
p225
(dp226
S'PRON'
p227
F0.030443
sS'ADP'
p228
F0.969557
s(lp229
tp230
a(S'ligne'
p231
(dp232
S'VERB'
p233
F0.032527
sS'NOUN'
p234
F0.967474
s(lp235
S'internet'
p236
atp237
a(S'des'
p238
(dp239
S'DET'
p240
F2.9e-05
sS'ADP'
p241
F0.999971
s(lp242
S'of'
p243
atp244
a(S'sites'
p245
(dp246
S'NOUN'
p247
F1.0
s(lp248
S'websites'
p249
atp250
a(S'web'
p251
(dp252
S'NOUN'
p253
F1.0
s(lp254
tp255
a(S'impliqu\xc3\xa9s'
p256
(dp257
S'VERB'
p258
F1.0
s(lp259
g249
atp260
a(S'dans'
p261
(dp262
S'NOUN'
p263
F6e-06
sS'ADP'
p264
F0.999994
s(lp265
S'on'
p266
atp267
a(S'la'
p268
(dp269
S'PRON'
p270
F5.1e-05
sS'DET'
p271
F0.999949
sS'NOUN'
p272
F0.0
s(lp273
S'child'
p274
atp275
a(S'vente'
p276
(dp277
S'VERB'
p278
F5.5e-05
sS'NOUN'
p279
F0.999945
s(lp280
S'sold'
p281
atp282
a(S'de'
p283
(dp284
S'ADP'
p285
F1.0
s(lp286
tp287
a(S'mat\xc3\xa9riel'
p288
(dp289
S'ADJ'
p290
F0.429903
sS'NOUN'
p291
F0.570097
s(lp292
tp293
a(S'p\xc3\xa9dopornographique'
p294
(dp295
S'NOUN'
p296
F0.157263
sS'ADJ'
p297
F0.842737
s(lp298
S'pornography'
p299
atp300
a(g84
(dp301
g84
F1.0
s(lp302
g84
atp303
asS'en'
p304
(lp305
(g7
(dp306
S'X'
p307
F0.0008
sS'NOUN'
p308
F0.9992
s(lp309
g7
atp310
a(g20
(dp311
S'ADV'
p312
F1.0
s(lp313
g20
atp314
a(g14
(dp315
S'VERB'
p316
F0.987711
sS'NOUN'
p317
F0.012289
s(lp318
g14
atp319
a(g28
(dp320
S'NOUN'
p321
F1e-06
sS'DET'
p322
F0.999999
s(lp323
g28
atp324
a(g40
(dp325
S'NOUN'
p326
F1.0
s(lp327
g40
atp328
a(g46
(dp329
S'ADV'
p330
F4e-06
sS'PRT'
p331
F1e-06
sS'ADP'
p332
F0.999995
s(lp333
g46
atp334
a(g66
(dp335
S'DET'
p336
F1.0
s(lp337
g66
atp338
a(g74
(dp339
S'NOUN'
p340
F2e-06
sS'DET'
p341
F0.999998
s(lp342
g74
atp343
a(g80
(dp344
S'VERB'
p345
F8.000000000000001e-06
sS'NOUN'
p346
F0.999992
s(lp347
g80
atp348
a(g82
(dp349
g84
F1.0
s(lp350
g82
atp351
a(g91
(dp352
S'ADV'
p353
F1.0
s(lp354
g91
atp355
a(g98
(dp356
S'ADP'
p357
F1.0
s(lp358
g98
atp359
a(g106
(dp360
S'NOUN'
p361
F1e-06
sS'DET'
p362
F0.999999
s(lp363
g106
atp364
a(g113
(dp365
S'NOUN'
p366
F0.001733
sS'VERB'
p367
F0.0
sS'ADJ'
p368
F0.998267
s(lp369
g113
atp370
a(g141
(dp371
S'VERB'
p372
F7.4e-05
sS'NOUN'
p373
F0.999926
s(lp374
g141
atp375
a(g59
(dp376
S'VERB'
p377
F0.000295
sS'NOUN'
p378
F0.999705
s(lp379
g59
atp380
a(S'companies'
p381
(dp382
S'VERB'
p383
F4e-05
sS'NOUN'
p384
F0.99996
s(lp385
g381
atp386
a(g82
(dp387
g84
F1.0
s(lp388
g82
atp389
a(S'will'
p390
(dp391
S'VERB'
p392
F0.9999450000000001
sS'NOUN'
p393
F5.5e-05
s(lp394
g390
atp395
a(S'look'
p396
(dp397
S'VERB'
p398
F0.999811
sS'NOUN'
p399
F0.000188
s(lp400
g396
atp401
a(g150
(dp402
S'ADP'
p403
F1.0
s(lp404
g150
atp405
a(g158
(dp406
S'NOUN'
p407
F1e-06
sS'DET'
p408
F0.999999
s(lp409
g158
atp410
a(g171
(dp411
S'ADJ'
p412
F1.0
s(lp413
g171
atp414
a(g164
(dp415
S'NOUN'
p416
F1.0
s(lp417
g164
atp418
a(g177
(dp419
S'ADP'
p420
F1.0
s(lp421
g177
atp422
a(g183
(dp423
S'VERB'
p424
F1.0
s(lp425
g183
atp426
a(g189
(dp427
S'CONJ'
p428
F0.999944
sS'ADJ'
p429
F5.6e-05
s(lp430
g189
atp431
a(g200
(dp432
S'NOUN'
p433
F0.123612
sS'VERB'
p434
F0.71316
sS'ADJ'
p435
F0.163228
s(lp436
g200
atp437
a(g236
(dp438
S'ADJ'
p439
F0.179169
sS'VERB'
p440
F0.000152
sS'NOUN'
p441
F0.82068
s(lp442
g236
atp443
a(g223
(dp444
S'NOUN'
p445
F1.0
s(lp446
g223
atp447
a(g212
(dp448
S'NOUN'
p449
F1.0
s(lp450
g212
atp451
a(g243
(dp452
S'ADP'
p453
F1.0
s(lp454
g243
atp455
a(g249
(dp456
S'VERB'
p457
F6.6e-05
sS'NOUN'
p458
F0.999934
s(lp459
g249
atp460
a(g266
(dp461
S'ADV'
p462
F1.6e-05
sS'PRT'
p463
F2e-06
sS'ADJ'
p464
F0.0
sS'NOUN'
p465
F1e-06
sS'ADP'
p466
F0.999982
s(lp467
g266
atp468
a(S'which'
p469
(dp470
S'DET'
p471
F1.0
s(lp472
g469
atp473
a(g274
(dp474
S'NOUN'
p475
F1.0
s(lp476
g274
atp477
a(g299
(dp478
S'NOUN'
p479
F1.0
s(lp480
g299
atp481
a(S'is'
p482
(dp483
S'VERB'
p484
F1.0
s(lp485
g482
atp486
a(g281
(dp487
S'VERB'
p488
F1.0
s(lp489
g281
atp490
a(g84
(dp491
g84
F1.0
s(lp492
g84
atp493
asS'nl'
p494
(lp495
(S'ik'
p496
(dp497
S'PRON'
p498
F0.999996
sS'NOUN'
p499
F4e-06
s(lp500
g7
atp501
a(S'steun'
p502
(dp503
S'VERB'
p504
F0.055207
sS'NOUN'
p505
F0.944793
s(lp506
g14
atp507
a(S'ook'
p508
(dp509
S'ADV'
p510
F1.0
s(lp511
g20
atp512
a(S'het'
p513
(dp514
S'PRON'
p515
F0.001805
sS'DET'
p516
F0.998195
s(lp517
g28
atp518
a(S'voorstel'
p519
(dp520
S'VERB'
p521
F1.6e-05
sS'NOUN'
p522
F0.999984
s(lp523
g40
atp524
a(S'waarbij'
p525
(dp526
S'ADV'
p527
F1.0
s(lp528
g66
atp529
a(S'de'
p530
(dp531
S'DET'
p532
F1.0
s(lp533
g74
atp534
a(S'commissie'
p535
(dp536
S'NOUN'
p537
F1.0
s(lp538
g80
atp539
a(S'samen'
p540
(dp541
S'ADV'
p542
F1.0
s(lp543
g91
atp544
a(S'met'
p545
(dp546
S'ADP'
p547
F1.0
s(lp548
g98
atp549
a(S'de'
p550
(dp551
S'DET'
p552
F1.0
s(lp553
g106
atp554
a(S'grootste'
p555
(dp556
S'NOUN'
p557
F3.6e-05
sS'ADJ'
p558
F0.999964
s(lp559
g113
atp560
a(S'kredietkaartondernemingen'
p561
(dp562
S'NOUN'
p563
F1.0
s(lp564
g249
atp565
a(S'nagaat'
p566
(dp567
S'VERB'
p568
F1.0
s(lp569
tp570
a(S'welke'
p571
(dp572
S'PRON'
p573
F0.9999999999999999
s(lp574
g158
atp575
a(S'technische'
p576
(dp577
S'NOUN'
p578
F1e-06
sS'ADJ'
p579
F0.999999
s(lp580
g171
atp581
a(S'mogelijkheden'
p582
(dp583
S'NOUN'
p584
F1.0
s(lp585
g164
atp586
a(S'er'
p587
(dp588
S'ADV'
p589
F1.0
s(lp590
g390
atp591
a(S'zijn'
p592
(dp593
S'PRON'
p594
F0.005606
sS'VERB'
p595
F0.993155
sS'NOUN'
p596
F0.001239
s(lp597
tp598
a(S'om'
p599
(dp600
S'ADV'
p601
F0.004469
sS'CONJ'
p602
F0.753649
sS'ADP'
p603
F0.241881
s(lp604
g177
atp605
a(S'het'
p606
(dp607
S'PRON'
p608
F0.015999
sS'DET'
p609
F0.984001
s(lp610
g183
atp611
a(S'internetbetaalsysteem'
p612
(dp613
S'NOUN'
p614
F1.0
s(lp615
g183
atp616
a(S'van'
p617
(dp618
S'ADP'
p619
F1.0
s(lp620
g243
atp621
a(S'websites'
p622
(dp623
S'NOUN'
p624
F1.0
s(lp625
g249
atp626
a(S'voor'
p627
(dp628
S'ADV'
p629
F0.002215
sS'CONJ'
p630
F7e-06
sS'NOUN'
p631
F0.0
sS'ADP'
p632
F0.997778
s(lp633
g266
atp634
a(S'de'
p635
(dp636
S'DET'
p637
F1.0
s(lp638
g223
atp639
a(S'verkoop'
p640
(dp641
S'VERB'
p642
F1.9e-05
sS'NOUN'
p643
F0.999981
s(lp644
g281
atp645
a(S'van'
p646
(dp647
S'ADP'
p648
F1.0
s(lp649
g274
atp650
a(S'kinderpornografisch'
p651
(dp652
S'NOUN'
p653
F0.000396
sS'ADJ'
p654
F0.999603
s(lp655
tp656
a(S'materiaal'
p657
(dp658
S'NOUN'
p659
F1.0
s(lp660
g299
atp661
a(S'te'
p662
(dp663
S'PRT'
p664
F1.0
s(lp665
tp666
a(S'blokkeren'
p667
(dp668
S'VERB'
p669
F1.0
sS'NOUN'
p670
F0.0
s(lp671
g183
atp672
a(S'of'
p673
(dp674
S'CONJ'
p675
F1.0
s(lp676
g189
atp677
a(S'te'
p678
(dp679
S'PRT'
p680
F1.0
s(lp681
tp682
a(S'sluiten'
p683
(dp684
S'VERB'
p685
F0.999999
sS'NOUN'
p686
F1e-06
s(lp687
g200
atp688
a(g84
(dp689
g84
F1.0
s(lp690
g84
atp691
asS'de'
p692
(lp693
(S'ich'
p694
(dp695
S'PRON'
p696
F1.0
s(lp697
g7
atp698
a(S'unterst\xc3\xbctze'
p699
(dp700
S'VERB'
p701
F1.0
s(lp702
g14
atp703
a(S'au\xc3\x9ferdem'
p704
(dp705
S'ADV'
p706
F1.0
s(lp707
g20
atp708
a(S'den'
p709
(dp710
S'PRON'
p711
F0.000107
sS'DET'
p712
F0.999888
s(lp713
g28
atp714
a(S'vorschlag'
p715
(dp716
S'ADJ'
p717
F0.001273
sS'NOUN'
p718
F0.998503
s(lp719
g40
atp720
a(g82
(dp721
g84
F1.0
s(lp722
g82
atp723
a(S'demzufolge'
p724
(dp725
S'ADV'
p726
F1.0
s(lp727
g66
atp728
a(S'die'
p729
(dp730
S'PRON'
p731
F0.005853
sS'DET'
p732
F0.991437
s(lp733
g74
atp734
a(S'kommission'
p735
(dp736
S'ADJ'
p737
F0.043639
sS'NOUN'
p738
F0.937304
s(lp739
g80
atp740
a(S'zusammen'
p741
(dp742
S'ADV'
p743
F0.804194
sS'PRT'
p744
F0.195806
s(lp745
g91
atp746
a(S'mit'
p747
(dp748
S'PRT'
p749
F0.000188
sS'ADP'
p750
F0.999812
s(lp751
g98
atp752
a(S'den'
p753
(dp754
S'PRON'
p755
F0.000112
sS'DET'
p756
F0.999887
s(lp757
g106
atp758
a(S'gro\xc3\x9fen'
p759
(dp760
S'ADJ'
p761
F1.0
s(lp762
g113
atp763
a(S'kreditkartenunternehmen'
p764
(dp765
S'VERB'
p766
F0.021702
sS'NOUN'
p767
F0.973766
s(lp768
g141
atp769
a(S'nach'
p770
(dp771
S'ADP'
p772
F0.993431
s(lp773
g150
atp774
a(S'technischen'
p775
(dp776
S'ADJ'
p777
F1.0
s(lp778
g171
atp779
a(S'm\xc3\xb6glichkeiten'
p780
(dp781
S'ADJ'
p782
F0.08378
sS'NOUN'
p783
F0.914788
s(lp784
g164
atp785
a(S'zur'
p786
(dp787
S'ADP'
p788
F1.0
s(lp789
g177
atp790
a(S'blockierung'
p791
(dp792
S'ADJ'
p793
F0.001734
sS'NOUN'
p794
F0.998229
s(lp795
g183
atp796
a(S'oder'
p797
(dp798
S'CONJ'
p799
F1.0
s(lp800
g189
atp801
a(S'schlie\xc3\x9fung'
p802
(dp803
S'VERB'
p804
F0.016729
sS'NOUN'
p805
F0.979808
s(lp806
g200
atp807
a(S'von'
p808
(dp809
S'NOUN'
p810
F0.000567
sS'ADP'
p811
F0.999433
s(lp812
g243
atp813
a(S'internetzahlungssystemen'
p814
(dp815
S'ADJ'
p816
F0.000409
sS'NOUN'
p817
F0.999435
s(lp818
tp819
a(S'von'
p820
(dp821
S'NOUN'
p822
F0.000576
sS'ADP'
p823
F0.999424
s(lp824
tp825
a(S'websites'
p826
(dp827
S'ADJ'
p828
F0.162709
sS'NOUN'
p829
F0.837291
s(lp830
g249
atp831
a(S'suchen'
p832
(dp833
S'VERB'
p834
F1.0
s(lp835
g396
atp836
a(S'wird'
p837
(dp838
S'VERB'
p839
F1.0
s(lp840
g390
atp841
a(g82
(dp842
g84
F1.0
s(lp843
g82
atp844
a(S'auf'
p845
(dp846
S'PRT'
p847
F0.000778
sS'ADP'
p848
F0.999077
s(lp849
g266
atp850
a(S'denen'
p851
(dp852
S'PRON'
p853
F1.0
s(lp854
g469
atp855
a(S'kinderpornographische'
p856
(dp857
S'ADJ'
p858
F1.0
s(lp859
tp860
a(S'inhalte'
p861
(dp862
S'ADJ'
p863
F0.000178
sS'NOUN'
p864
F0.999685
s(lp865
g299
atp866
a(S'vertrieben'
p867
(dp868
S'VERB'
p869
F1.0
s(lp870
tp871
a(S'werden'
p872
(dp873
S'VERB'
p874
F0.999996
s(lp875
g281
atp876
a(g84
(dp877
g84
F1.0
s(lp878
g84
atp879
asS'it'
p880
(lp881
(S'sostengo'
p882
(dp883
S'VERB'
p884
F1.0
s(lp885
g14
atp886
a(S'altres\xc3\xac'
p887
(dp888
S'ADV'
p889
F1.0
s(lp890
g20
atp891
a(S'la'
p892
(dp893
S'PRON'
p894
F0.000226
sS'DET'
p895
F0.999774
s(lp896
g28
atp897
a(S'proposta'
p898
(dp899
S'VERB'
p900
F0.002528
sS'NOUN'
p901
F0.997472
s(lp902
g40
atp903
a(S'che'
p904
(dp905
S'PRON'
p906
F0.893043
sS'CONJ'
p907
F0.10498
sS'ADJ'
p908
F0.001978
s(lp909
g66
atp910
a(S'la'
p911
(dp912
S'PRON'
p913
F0.000964
sS'DET'
p914
F0.999036
s(lp915
g74
atp916
a(S'commissione'
p917
(dp918
S'NOUN'
p919
F1.0
s(lp920
g80
atp921
a(g82
(dp922
g84
F1.0
s(lp923
g82
atp924
a(S"d'"
p925
(dp926
g307
F1.0
s(lp927
tp928
a(S'intesa'
p929
(dp930
S'ADJ'
p931
F0.02588
sS'VERB'
p932
F0.745026
sS'NOUN'
p933
F0.229094
s(lp934
g91
atp935
a(S'con'
p936
(dp937
S'ADP'
p938
F1.0
s(lp939
g98
atp940
a(S'le'
p941
(dp942
S'PRON'
p943
F0.000432
sS'DET'
p944
F0.999568
s(lp945
g106
atp946
a(S'principali'
p947
(dp948
S'NOUN'
p949
F0.008981
sS'ADJ'
p950
F0.991019
s(lp951
g113
atp952
a(S'societ\xc3\xa0'
p953
(dp954
S'NOUN'
p955
F1.0
s(lp956
g381
atp957
a(S'che'
p958
(dp959
S'PRON'
p960
F0.960049
sS'CONJ'
p961
F0.0391
sS'ADJ'
p962
F0.000851
s(lp963
g469
atp964
a(S'emettono'
p965
(dp966
S'VERB'
p967
F1.0
s(lp968
tp969
a(S'carte'
p970
(dp971
S'NOUN'
p972
F1.0
s(lp973
g59
atp974
a(S'di'
p975
(dp976
S'CONJ'
p977
F4e-06
sS'ADP'
p978
F0.999996
s(lp979
tp980
a(S'credito'
p981
(dp982
S'NOUN'
p983
F1.0
s(lp984
g141
atp985
a(g82
(dp986
g84
F1.0
s(lp987
g82
atp988
a(S'esamini'
p989
(dp990
S'VERB'
p991
F0.560862
sS'ADJ'
p992
F0.439139
s(lp993
g396
atp994
a(S'la'
p995
(dp996
S'PRON'
p997
F1.4e-05
sS'DET'
p998
F0.999986
s(lp999
g158
atp1000
a(S'possibilit\xc3\xa0'
p1001
(dp1002
S'NOUN'
p1003
F1.0
s(lp1004
g164
atp1005
a(S'tecnica'
p1006
(dp1007
S'NOUN'
p1008
F0.148147
sS'ADJ'
p1009
F0.851853
s(lp1010
g171
atp1011
a(S'di'
p1012
(dp1013
S'CONJ'
p1014
F6e-06
sS'ADP'
p1015
F0.999994
s(lp1016
g177
atp1017
a(S'chiudere'
p1018
(dp1019
S'VERB'
p1020
F1.0
s(lp1021
g200
atp1022
a(S'o'
p1023
(dp1024
g307
F2.1e-05
sS'CONJ'
p1025
F0.999979
s(lp1026
g189
atp1027
a(S'altrimenti'
p1028
(dp1029
S'ADV'
p1030
F1.0
s(lp1031
tp1032
a(S'ostacolare'
p1033
(dp1034
S'VERB'
p1035
F1.0
s(lp1036
g183
atp1037
a(g7
(dp1038
S'DET'
p1039
F1.0
s(lp1040
tp1041
a(S'sistemi'
p1042
(dp1043
S'VERB'
p1044
F0.00048800000000000004
sS'NOUN'
p1045
F0.999512
s(lp1046
g212
atp1047
a(S'di'
p1048
(dp1049
S'CONJ'
p1050
F4e-06
sS'ADP'
p1051
F0.999996
s(lp1052
tp1053
a(S'pagamento'
p1054
(dp1055
S'NOUN'
p1056
F1.0
s(lp1057
g223
atp1058
a(S'online'
p1059
(dp1060
S'ADJ'
p1061
F1.0
s(lp1062
tp1063
a(S'per'
p1064
(dp1065
S'CONJ'
p1066
F0.061022
sS'ADP'
p1067
F0.938978
s(lp1068
g243
atp1069
a(g7
(dp1070
S'DET'
p1071
F1.0
s(lp1072
g249
atp1073
a(S'siti'
p1074
(dp1075
S'NOUN'
p1076
F0.105926
sS'ADJ'
p1077
F0.894074
s(lp1078
g249
atp1079
a(S'web'
p1080
(dp1081
S'NOUN'
p1082
F1.0
s(lp1083
tp1084
a(S'coinvolti'
p1085
(dp1086
S'VERB'
p1087
F1.0
s(lp1088
g249
atp1089
a(S'nella'
p1090
(dp1091
S'ADP'
p1092
F1.0
s(lp1093
g266
atp1094
a(S'vendita'
p1095
(dp1096
S'NOUN'
p1097
F1.0
s(lp1098
g281
atp1099
a(S'in'
p1100
(dp1101
S'ADP'
p1102
F1.0
s(lp1103
tp1104
a(S'rete'
p1105
(dp1106
S'NOUN'
p1107
F1.0
s(lp1108
g236
atp1109
a(S'di'
p1110
(dp1111
S'CONJ'
p1112
F5e-06
sS'ADP'
p1113
F0.999995
s(lp1114
tp1115
a(S'materiale'
p1116
(dp1117
S'ADJ'
p1118
F0.087896
sS'NOUN'
p1119
F0.912104
s(lp1120
tp1121
a(S'pedopornografico'
p1122
(dp1123
S'NOUN'
p1124
F0.010099
sS'VERB'
p1125
F0.00016900000000000002
sS'ADJ'
p1126
F0.989733
s(lp1127
g299
atp1128
a(g84
(dp1129
g84
F1.0
s(lp1130
g84
atp1131
asS'sk'
p1132
(lp1133
(S'podporujem'
p1134
(dp1135
S'VERB'
p1136
F1.0
s(lp1137
g14
atp1138
a(S'aj'
p1139
(dp1140
g307
F0.923665
sS'CONJ'
p1141
F0.076335
s(lp1142
g20
atp1143
a(S'n\xc3\xa1vrh'
p1144
(dp1145
S'NOUN'
p1146
F1.0
s(lp1147
g40
atp1148
a(g82
(dp1149
g84
F1.0
s(lp1150
tp1151
a(S'pod\xc4\xbea'
p1152
(dp1153
S'ADP'
p1154
F1.0
s(lp1155
g46
atp1156
a(S'ktor\xc3\xa9ho'
p1157
(dp1158
S'PRON'
p1159
F1.0
s(lp1160
g66
atp1161
a(S'm\xc3\xa1'
p1162
(dp1163
g307
F2.6e-05
sS'VERB'
p1164
F0.999974
s(lp1165
g74
atp1166
a(S'komisia'
p1167
(dp1168
S'NOUN'
p1169
F1.0
s(lp1170
g80
atp1171
a(S'spolu'
p1172
(dp1173
S'ADV'
p1174
F0.997811
sg307
F0.002189
s(lp1175
g91
atp1176
a(S's'
p1177
(dp1178
S'PRT'
p1179
F0.000397
sS'CONJ'
p1180
F6e-05
sS'NOUN'
p1181
F6e-06
sS'ADP'
p1182
F0.999253
sg307
F0.000285
s(lp1183
g98
atp1184
a(S've\xc4\xbek\xc3\xbdmi'
p1185
(dp1186
S'ADJ'
p1187
F1.0
s(lp1188
g113
atp1189
a(S'spolo\xc4\x8dnos\xc5\xa5ami'
p1190
(dp1191
S'NOUN'
p1192
F1.0
s(lp1193
g381
atp1194
a(S'vyd\xc3\xa1vaj\xc3\xbacimi'
p1195
(dp1196
S'NOUN'
p1197
F0.025053
sS'VERB'
p1198
F0.8040679999999999
sS'ADJ'
p1199
F0.170877
s(lp1200
tp1201
a(S'kreditn\xc3\xa9'
p1202
(dp1203
S'ADJ'
p1204
F1.0
s(lp1205
g141
atp1206
a(S'karty'
p1207
(dp1208
S'NOUN'
p1209
F1.0
s(lp1210
g59
atp1211
a(S'preveri\xc5\xa5'
p1212
(dp1213
S'VERB'
p1214
F1.0
s(lp1215
g396
atp1216
a(S'technick\xc3\xa9'
p1217
(dp1218
S'ADJ'
p1219
F1.0
s(lp1220
g171
atp1221
a(S'mo\xc5\xbenosti'
p1222
(dp1223
S'NOUN'
p1224
F1.0
s(lp1225
g164
atp1226
a(S'zablokovania'
p1227
(dp1228
S'VERB'
p1229
F0.011553999999999997
sS'NOUN'
p1230
F0.988445
s(lp1231
g183
atp1232
a(S'alebo'
p1233
(dp1234
g307
F0.000129
sS'CONJ'
p1235
F0.999871
s(lp1236
g189
atp1237
a(S'uzatvorenia'
p1238
(dp1239
S'NOUN'
p1240
F1.0
s(lp1241
g200
atp1242
a(S'internetov\xc3\xbdch'
p1243
(dp1244
S'ADJ'
p1245
F1.0
s(lp1246
g236
atp1247
a(S'platobn\xc3\xbdch'
p1248
(dp1249
S'ADJ'
p1250
F1.0
s(lp1251
g223
atp1252
a(S'syst\xc3\xa9mov'
p1253
(dp1254
S'NOUN'
p1255
F1.0
s(lp1256
g212
atp1257
a(S'webov\xc3\xbdch'
p1258
(dp1259
S'ADJ'
p1260
F1.0
s(lp1261
tp1262
a(S'str\xc3\xa1nok'
p1263
(dp1264
S'NOUN'
p1265
F1.0
s(lp1266
g249
atp1267
a(g82
(dp1268
g84
F1.0
s(lp1269
tp1270
a(S'na'
p1271
(dp1272
g307
F4.9000000000000005e-05
sS'CONJ'
p1273
F0.000793
sS'ADP'
p1274
F0.999136
sS'PRT'
p1275
F2.1e-05
s(lp1276
g266
atp1277
a(S'ktor\xc3\xbdch'
p1278
(dp1279
S'PRON'
p1280
F1.0
s(lp1281
g469
atp1282
a(S'sa'
p1283
(dp1284
S'PRT'
p1285
F0.999952
sS'ADP'
p1286
F0.0
sg307
F4.7999999999999994e-05
s(lp1287
g482
atp1288
a(S'pred\xc3\xa1va'
p1289
(dp1290
S'VERB'
p1291
F1.0
s(lp1292
g281
atp1293
a(S'detsk\xc3\xa1'
p1294
(dp1295
S'NOUN'
p1296
F0.004336
sS'ADJ'
p1297
F0.995664
s(lp1298
g274
atp1299
a(S'pornografia'
p1300
(dp1301
S'NOUN'
p1302
F1.0
s(lp1303
g299
atp1304
a(g84
(dp1305
g84
F1.0
s(lp1306
g84
atp1307
asS'pl'
p1308
(lp1309
(S'popieram'
p1310
(dp1311
S'VERB'
p1312
F1.0
s(lp1313
g14
atp1314
a(S'r\xc3\xb3wnie\xc5\xbc'
p1315
(dp1316
S'PRT'
p1317
F0.912859
sS'CONJ'
p1318
F0.087141
s(lp1319
g20
atp1320
a(S'wniosek'
p1321
(dp1322
S'NOUN'
p1323
F1.0
s(lp1324
tp1325
a(g82
(dp1326
g307
F0.0
sg84
F1.0
s(lp1327
tp1328
a(S'zgodnie'
p1329
(dp1330
S'ADV'
p1331
F1.0
s(lp1332
g40
atp1333
a(S'z'
p1334
(dp1335
S'PRT'
p1336
F0.000868
sS'VERB'
p1337
F9e-06
sS'NOUN'
p1338
F0.0
sS'ADP'
p1339
F0.999121
sg307
F1e-06
s(lp1340
g46
atp1341
a(S'kt\xc3\xb3rym'
p1342
(dp1343
S'ADJ'
p1344
F1.000001
s(lp1345
g66
atp1346
a(S'komisja'
p1347
(dp1348
S'NOUN'
p1349
F1.0
s(lp1350
g80
atp1351
a(S'wraz'
p1352
(dp1353
S'ADV'
p1354
F1.0
s(lp1355
g91
atp1356
a(g1334
(dp1357
S'PRT'
p1358
F1e-06
sS'VERB'
p1359
F0.0
sS'NOUN'
p1360
F0.0
sS'ADP'
p1361
F0.999998
sg307
F0.0
s(lp1362
g98
atp1363
a(S'g\xc5\x82\xc3\xb3wnymi'
p1364
(dp1365
S'ADJ'
p1366
F1.0
s(lp1367
g113
atp1368
a(S'instytucjami'
p1369
(dp1370
S'NOUN'
p1371
F1.0
s(lp1372
tp1373
a(S'obs\xc5\x82uguj\xc4\x85cymi'
p1374
(dp1375
S'ADV'
p1376
F0.000177
sS'NOUN'
p1377
F0.0009210000000000002
sS'VERB'
p1378
F0.8225709999999998
sS'ADJ'
p1379
F0.176327
s(lp1380
tp1381
a(S'karty'
p1382
(dp1383
S'NOUN'
p1384
F0.999999
s(lp1385
g59
atp1386
a(S'kredytowe'
p1387
(dp1388
S'ADJ'
p1389
F1.0
s(lp1390
g141
atp1391
a(S'przyjrzy'
p1392
(dp1393
S'VERB'
p1394
F1.0
s(lp1395
tp1396
a(S'si\xc4\x99'
p1397
(dp1398
S'PRT'
p1399
F1.0
s(lp1400
g396
atp1401
a(S'technicznym'
p1402
(dp1403
S'ADJ'
p1404
F1.0
s(lp1405
g171
atp1406
a(S'mo\xc5\xbcliwo\xc5\x9bciom'
p1407
(dp1408
S'ADV'
p1409
F3e-06
sS'ADJ'
p1410
F0.00035700000000000017
sS'VERB'
p1411
F0.00011099999999999999
sS'NOUN'
p1412
F0.9995279999999999
s(lp1413
tp1414
a(S'blokowania'
p1415
(dp1416
S'ADV'
p1417
F0.001785
sS'ADJ'
p1418
F0.002103
sS'VERB'
p1419
F0.43826199999999993
sS'NOUN'
p1420
F0.5578510000000002
s(lp1421
g183
atp1422
a(S'lub'
p1423
(dp1424
S'CONJ'
p1425
F1.0
s(lp1426
g189
atp1427
a(S'zamykania'
p1428
(dp1429
S'VERB'
p1430
F1.0
s(lp1431
g200
atp1432
a(S'system\xc3\xb3w'
p1433
(dp1434
S'NOUN'
p1435
F1.0
s(lp1436
g212
atp1437
a(S'p\xc5\x82atno\xc5\x9bci'
p1438
(dp1439
S'NOUN'
p1440
F1.0
s(lp1441
g223
atp1442
a(S'przez'
p1443
(dp1444
S'ADP'
p1445
F1.0
s(lp1446
g243
atp1447
a(S'internet'
p1448
(dp1449
S'NOUN'
p1450
F1.0
s(lp1451
g236
atp1452
a(S'w'
p1453
(dp1454
g307
F0.0
sS'ADJ'
p1455
F0.0
sS'ADP'
p1456
F1.0
sS'NOUN'
p1457
F0.0
s(lp1458
g243
atp1459
a(S'odniesieniu'
p1460
(dp1461
S'VERB'
p1462
F0.050353
sS'NOUN'
p1463
F0.949647
s(lp1464
tp1465
a(S'do'
p1466
(dp1467
g307
F2e-06
sS'NOUN'
p1468
F1.5e-05
sS'ADP'
p1469
F0.9999830000000001
s(lp1470
g243
atp1471
a(S'stron'
p1472
(dp1473
S'NOUN'
p1474
F1.0
s(lp1475
g249
atp1476
a(S'internetowych'
p1477
(dp1478
S'ADJ'
p1479
F1.0
s(lp1480
tp1481
a(g82
(dp1482
g307
F0.0
sg84
F1.0
s(lp1483
tp1484
a(S'na'
p1485
(dp1486
g307
F1.8e-05
sS'VERB'
p1487
F4e-06
sS'NOUN'
p1488
F2e-06
sS'ADP'
p1489
F0.9999649999999999
sS'PRT'
p1490
F1.2e-05
s(lp1491
g266
atp1492
a(S'kt\xc3\xb3rych'
p1493
(dp1494
S'ADJ'
p1495
F0.9999999999999999
s(lp1496
g469
atp1497
a(S'prowadzona'
p1498
(dp1499
S'VERB'
p1500
F1.0
s(lp1501
g249
atp1502
a(S'jest'
p1503
(dp1504
S'VERB'
p1505
F1.0
s(lp1506
g482
atp1507
a(S'sprzeda\xc5\xbc'
p1508
(dp1509
S'NOUN'
p1510
F1.0
s(lp1511
g281
atp1512
a(S'pornografii'
p1513
(dp1514
S'NOUN'
p1515
F1.0
s(lp1516
tp1517
a(S'dzieci\xc4\x99cej'
p1518
(dp1519
S'ADJ'
p1520
F1.0
s(lp1521
g299
atp1522
a(g84
(dp1523
g84
F1.0
s(lp1524
g84
atp1525
asS'sl'
p1526
(lp1527
(S'prav'
p1528
(dp1529
S'ADV'
p1530
F0.103688
sS'PRT'
p1531
F0.894592
sS'VERB'
p1532
F0.00172
s(lp1533
tp1534
a(S'tako'
p1535
(dp1536
S'ADV'
p1537
F0.954053
sS'PRON'
p1538
F0.030369
sS'CONJ'
p1539
F0.015578
s(lp1540
g20
atp1541
a(S'podpiram'
p1542
(dp1543
S'ADV'
p1544
F0.00112
sS'ADJ'
p1545
F0.08590300000000001
sS'VERB'
p1546
F0.8157070000000002
sS'NOUN'
p1547
F0.09727
s(lp1548
g14
atp1549
a(S'predlog'
p1550
(dp1551
S'NOUN'
p1552
F1.000001
s(lp1553
g40
atp1554
a(g82
(dp1555
g84
F1.0
s(lp1556
tp1557
a(S'v'
p1558
(dp1559
S'ADP'
p1560
F1.0
s(lp1561
g46
atp1562
a(S'katerem'
p1563
(dp1564
S'PRON'
p1565
F1.0
s(lp1566
g66
atp1567
a(S'bo'
p1568
(dp1569
S'VERB'
p1570
F1.0
s(lp1571
g390
atp1572
a(S'komisija'
p1573
(dp1574
S'NOUN'
p1575
F1.0
s(lp1576
g80
atp1577
a(S'skupaj'
p1578
(dp1579
S'ADV'
p1580
F1.0
s(lp1581
g91
atp1582
a(g1334
(dp1583
S'ADP'
p1584
F1.0
s(lp1585
g98
atp1586
a(S'glavnimi'
p1587
(dp1588
S'ADJ'
p1589
F1.0
s(lp1590
g113
atp1591
a(S'dru\xc5\xbebami'
p1592
(dp1593
S'NOUN'
p1594
F1.0
s(lp1595
g381
atp1596
a(g82
(dp1597
g84
F1.0
s(lp1598
g82
atp1599
a(S'ki'
p1600
(dp1601
S'CONJ'
p1602
F1.0
s(lp1603
tp1604
a(S'izdajajo'
p1605
(dp1606
S'VERB'
p1607
F1.0
s(lp1608
tp1609
a(S'kreditne'
p1610
(dp1611
S'ADJ'
p1612
F1.0
s(lp1613
g141
atp1614
a(S'kartice'
p1615
(dp1616
S'NOUN'
p1617
F0.9999990000000001
s(lp1618
g59
atp1619
a(g82
(dp1620
g84
F1.0
s(lp1621
tp1622
a(S'preu\xc4\x8dila'
p1623
(dp1624
S'VERB'
p1625
F1.0
s(lp1626
g396
atp1627
a(S'tehni\xc4\x8dno'
p1628
(dp1629
S'ADV'
p1630
F0.004003
sS'ADJ'
p1631
F0.9959959999999999
s(lp1632
g171
atp1633
a(S'podro\xc4\x8dje'
p1634
(dp1635
S'NOUN'
p1636
F1.0
s(lp1637
g164
atp1638
a(S'za'
p1639
(dp1640
S'ADV'
p1641
F6e-06
sg307
F1e-06
sS'ADP'
p1642
F0.9999939999999999
s(lp1643
g177
atp1644
a(S'onemogo\xc4\x8danje'
p1645
(dp1646
S'ADJ'
p1647
F7e-06
sS'VERB'
p1648
F3e-06
sS'NOUN'
p1649
F0.99999
sS'ADP'
p1650
F0.0
s(lp1651
g183
atp1652
a(S'ali'
p1653
(dp1654
S'ADV'
p1655
F0.008391
sS'CONJ'
p1656
F0.991609
s(lp1657
g189
atp1658
a(S'ukinitev'
p1659
(dp1660
S'NOUN'
p1661
F1.0
s(lp1662
g200
atp1663
a(S'internetnih'
p1664
(dp1665
S'ADJ'
p1666
F0.999999
s(lp1667
g236
atp1668
a(S'pla\xc4\x8dilnih'
p1669
(dp1670
S'ADJ'
p1671
F1.0
s(lp1672
g223
atp1673
a(S'sistemov'
p1674
(dp1675
S'NOUN'
p1676
F1.0
s(lp1677
g212
atp1678
a(S'za'
p1679
(dp1680
S'ADV'
p1681
F6.6e-05
sg307
F1e-06
sS'ADP'
p1682
F0.999932
s(lp1683
g243
atp1684
a(S'spletne'
p1685
(dp1686
S'ADJ'
p1687
F1.0
s(lp1688
tp1689
a(S'strani'
p1690
(dp1691
S'NOUN'
p1692
F0.9999999999999999
s(lp1693
g249
atp1694
a(g82
(dp1695
g84
F1.0
s(lp1696
tp1697
a(S'na'
p1698
(dp1699
S'ADP'
p1700
F1.0
s(lp1701
g266
atp1702
a(S'katerih'
p1703
(dp1704
S'PRON'
p1705
F1.000001
s(lp1706
g469
atp1707
a(S'se'
p1708
(dp1709
S'PRON'
p1710
F0.99999
sg307
F1e-05
s(lp1711
g482
atp1712
a(S'prodaja'
p1713
(dp1714
S'VERB'
p1715
F0.961979
sS'NOUN'
p1716
F0.038021
s(lp1717
g281
atp1718
a(S'otro\xc5\xa1ka'
p1719
(dp1720
S'ADJ'
p1721
F1.0
s(lp1722
g274
atp1723
a(S'pornografija'
p1724
(dp1725
S'ADJ'
p1726
F0.000295
sS'VERB'
p1727
F8.3e-05
sS'NOUN'
p1728
F0.9996229999999998
s(lp1729
g299
atp1730
a(g84
(dp1731
g84
F1.0
s(lp1732
g84
atp1733
asS'es'
p1734
(lp1735
(S'apoyo'
p1736
(dp1737
S'NOUN'
p1738
F1.0
s(lp1739
g14
atp1740
a(S'adem\xc3\xa1s'
p1741
(dp1742
S'ADV'
p1743
F1.0
s(lp1744
g20
atp1745
a(S'la'
p1746
(dp1747
S'PRON'
p1748
F0.001514
sS'DET'
p1749
F0.998482
sg307
F0.0
sS'NOUN'
p1750
F3e-06
s(lp1751
g28
atp1752
a(S'propuesta'
p1753
(dp1754
S'VERB'
p1755
F0.027379
sS'NOUN'
p1756
F0.972621
s(lp1757
g40
atp1758
a(S'en'
p1759
(dp1760
g307
F0.0
sS'CONJ'
p1761
F0.0
sS'ADP'
p1762
F1.0
s(lp1763
g46
atp1764
a(S'la'
p1765
(dp1766
S'NOUN'
p1767
F2.7e-05
sS'DET'
p1768
F0.999971
sg307
F0.0
sS'PRON'
p1769
F2e-06
s(lp1770
tp1771
a(S'que'
p1772
(dp1773
g307
F0.0
sS'CONJ'
p1774
F1.0
s(lp1775
g66
atp1776
a(S'la'
p1777
(dp1778
S'PRON'
p1779
F0.00027
sS'DET'
p1780
F0.99973
sg307
F0.0
sS'NOUN'
p1781
F0.0
s(lp1782
g74
atp1783
a(S'comisi\xc3\xb3n'
p1784
(dp1785
S'NOUN'
p1786
F1.0
s(lp1787
g80
atp1788
a(g82
(dp1789
g84
F1.0
s(lp1790
g82
atp1791
a(S'junto'
p1792
(dp1793
S'ADP'
p1794
F1.0
s(lp1795
g91
atp1796
a(S'con'
p1797
(dp1798
S'ADP'
p1799
F1.0
s(lp1800
g98
atp1801
a(S'las'
p1802
(dp1803
S'PRON'
p1804
F0.0
sS'DET'
p1805
F1.0
s(lp1806
g106
atp1807
a(S'grandes'
p1808
(dp1809
S'ADJ'
p1810
F1.0
s(lp1811
g113
atp1812
a(S'empresas'
p1813
(dp1814
S'NOUN'
p1815
F1.0
s(lp1816
g381
atp1817
a(S'de'
p1818
(dp1819
g307
F2.9e-05
sS'CONJ'
p1820
F0.000449
sS'ADP'
p1821
F0.999522
s(lp1822
g141
atp1823
a(S'tarjetas'
p1824
(dp1825
S'NOUN'
p1826
F1.0
s(lp1827
g59
atp1828
a(S'de'
p1829
(dp1830
g307
F2.9e-05
sS'CONJ'
p1831
F0.000449
sS'ADP'
p1832
F0.999522
s(lp1833
tp1834
a(S'cr\xc3\xa9dito'
p1835
(dp1836
S'NOUN'
p1837
F1.0
s(lp1838
g141
atp1839
a(g82
(dp1840
g84
F1.0
s(lp1841
g82
atp1842
a(S'analice'
p1843
(dp1844
S'VERB'
p1845
F1.0
s(lp1846
g396
atp1847
a(S'las'
p1848
(dp1849
S'PRON'
p1850
F0.0
sS'DET'
p1851
F1.0
s(lp1852
g158
atp1853
a(S'posibilidades'
p1854
(dp1855
S'NOUN'
p1856
F1.0
s(lp1857
g164
atp1858
a(S't\xc3\xa9cnicas'
p1859
(dp1860
S'NOUN'
p1861
F0.036508
sS'ADJ'
p1862
F0.963492
s(lp1863
g171
atp1864
a(S'para'
p1865
(dp1866
S'CONJ'
p1867
F0.984061
sS'ADP'
p1868
F0.015939
s(lp1869
g177
atp1870
a(S'bloquear'
p1871
(dp1872
S'VERB'
p1873
F1.0
s(lp1874
g183
atp1875
a(g1023
(dp1876
g307
F1.8e-05
sS'CONJ'
p1877
F0.999982
s(lp1878
g189
atp1879
a(S'eliminar'
p1880
(dp1881
S'VERB'
p1882
F1.0
s(lp1883
g200
atp1884
a(S'los'
p1885
(dp1886
S'PRON'
p1887
F3e-06
sS'DET'
p1888
F0.999997
s(lp1889
tp1890
a(S'sistemas'
p1891
(dp1892
S'NOUN'
p1893
F1.0
s(lp1894
g212
atp1895
a(S'de'
p1896
(dp1897
g307
F2.9e-05
sS'CONJ'
p1898
F0.000449
sS'ADP'
p1899
F0.999522
s(lp1900
tp1901
a(S'pago'
p1902
(dp1903
S'NOUN'
p1904
F1.0
s(lp1905
g223
atp1906
a(S'de'
p1907
(dp1908
g307
F2.9e-05
sS'CONJ'
p1909
F0.000449
sS'ADP'
p1910
F0.999522
s(lp1911
g243
atp1912
a(S'p\xc3\xa1ginas'
p1913
(dp1914
S'NOUN'
p1915
F1.0
s(lp1916
tp1917
a(S'web'
p1918
(dp1919
S'NOUN'
p1920
F1.0
s(lp1921
g249
atp1922
a(S'donde'
p1923
(dp1924
S'ADV'
p1925
F1.0
s(lp1926
g469
atp1927
a(S'se'
p1928
(dp1929
S'PRON'
p1930
F1.0
sS'VERB'
p1931
F0.0
s(lp1932
g482
atp1933
a(S'venda'
p1934
(dp1935
S'VERB'
p1936
F1.0
s(lp1937
g281
atp1938
a(S'pornograf\xc3\xada'
p1939
(dp1940
S'ADJ'
p1941
F0.100073
sS'VERB'
p1942
F0.000361
sS'NOUN'
p1943
F0.899566
s(lp1944
g299
atp1945
a(S'infantil'
p1946
(dp1947
S'ADJ'
p1948
F1.0
s(lp1949
g274
atp1950
a(g84
(dp1951
g84
F1.0
s(lp1952
g84
atp1953
as.