(dp0
S'fr'
p1
(lp2
(S'gardons-nous'
p3
(dp4
S'VERB'
p5
F0.529567
sS'NOUN'
p6
F0.470433
s(lp7
S'we'
p8
atp9
a(S'de'
p10
(dp11
S'ADP'
p12
F1.0
s(lp13
tp14
a(S'le'
p15
(dp16
S'PRON'
p17
F0.582489
sS'DET'
p18
F0.417511
s(lp19
S'should'
p20
atp21
a(S'n\xc3\xa9gliger'
p22
(dp23
S'VERB'
p24
F1.0
s(lp25
S'forget'
p26
atp27
a(S':'
p28
(dp29
S'.'
p30
F1.0
s(lp31
S'that'
p32
atp33
a(S'il'
p34
(dp35
S'PRON'
p36
F1.0
s(lp37
S'it'
p38
atp39
a(S'est'
p40
(dp41
S'VERB'
p42
F0.999982
sS'NOUN'
p43
F1.8e-05
s(lp44
S'is'
p45
atp46
a(S'de'
p47
(dp48
S'ADP'
p49
F1.0
s(lp50
S'in'
p51
atp52
a(S"l'"
p53
(dp54
S'ADJ'
p55
F0.160704
sS'VERB'
p56
F0.06480800000000002
sS'NOUN'
p57
F0.774488
s(lp58
S'the'
p59
atp60
a(S'int\xc3\xa9r\xc3\xaat'
p61
(dp62
S'NOUN'
p63
F1.0
s(lp64
S'interest'
p65
atp66
a(S'fondamental'
p67
(dp68
S'ADJ'
p69
F1.0
s(lp70
S'fundamental'
p71
atp72
a(S"d'"
p73
(dp74
S'ADJ'
p75
F0.029663
sS'VERB'
p76
F0.37283
sS'NOUN'
p77
F0.597507
s(lp78
S'of'
p79
atp80
a(S'une'
p81
(dp82
S'NOUN'
p83
F2.6e-05
sS'NUM'
p84
F0.02201
sS'DET'
p85
F0.977964
s(lp86
tp87
a(S'europe'
p88
(dp89
S'VERB'
p90
F0.000125
sS'NOUN'
p91
F0.999874
s(lp92
S'europe'
p93
atp94
a(S'vieillissante'
p95
(dp96
S'ADJ'
p97
F1.0
s(lp98
S'aging'
p99
atp100
a(S'de'
p101
(dp102
S'ADP'
p103
F1.0
s(lp104
S'to'
p105
atp106
a(S"s'"
p107
(dp108
S'ADJ'
p109
F0.160704
sS'VERB'
p110
F0.06480800000000002
sS'NOUN'
p111
F0.774488
s(lp112
S'make'
p113
atp114
a(S'assurer'
p115
(dp116
S'VERB'
p117
F1.0
s(lp118
S'sure'
p119
atp120
a(S"qu'"
p121
(dp122
S'NOUN'
p123
F0.099944
sS'VERB'
p124
F0.7910849999999999
sS'ADJ'
p125
F0.108969
s(lp126
tp127
a(S'elle'
p128
(dp129
S'PRON'
p130
F1.0
s(lp131
S'it'
p132
atp133
a(S'sera'
p134
(dp135
S'VERB'
p136
F1.0
s(lp137
S'is'
p138
atp139
a(S'peupl\xc3\xa9e'
p140
(dp141
S'VERB'
p142
F1.0
s(lp143
S'populated'
p144
atp145
a(S'non'
p146
(dp147
S'ADV'
p148
F0.999999
sS'X'
p149
F1e-06
s(lp150
S'not'
p151
atp152
a(S'de'
p153
(dp154
S'ADP'
p155
F1.0
s(lp156
S'by'
p157
atp158
a(S'personnes'
p159
(dp160
S'NOUN'
p161
F1.0
s(lp162
S'people'
p163
atp164
a(S'd\xc3\xa9sargent\xc3\xa9es'
p165
(dp166
S'VERB'
p167
F1.0
s(lp168
S'unfortunate'
p169
atp170
a(S'qui'
p171
(dp172
S'PRON'
p173
F1.0
s(lp174
S'who'
p175
atp176
a(S'd\xc3\xa9pendent'
p177
(dp178
S'VERB'
p179
F1.0
s(lp180
S'depend'
p181
atp182
a(S'de'
p183
(dp184
S'ADP'
p185
F1.0
s(lp186
S'on'
p187
atp188
a(S"l'"
p189
(dp190
S'ADJ'
p191
F0.160704
sS'VERB'
p192
F0.06480800000000002
sS'NOUN'
p193
F0.774488
s(lp194
tp195
a(S'assistance'
p196
(dp197
S'NOUN'
p198
F1.0
s(lp199
S'assistance'
p200
atp201
a(S'sociale'
p202
(dp203
S'ADJ'
p204
F1.0
s(lp205
S'social'
p206
atp207
a(S','
p208
(dp209
g30
F1.0
s(lp210
g208
atp211
a(S'mais'
p212
(dp213
S'CONJ'
p214
F1.0
s(lp215
S'but'
p216
atp217
a(S'de'
p218
(dp219
S'ADP'
p220
F1.0
s(lp221
S'by'
p222
atp223
a(S'citoyens'
p224
(dp225
S'NOUN'
p226
F1.0
s(lp227
S'citizens'
p228
atp229
a(S'correctement'
p230
(dp231
S'ADV'
p232
F1.0
s(lp233
S'well'
p234
atp235
a(S'form\xc3\xa9s'
p236
(dp237
S'VERB'
p238
F0.126568
sS'ADJ'
p239
F0.873432
s(lp240
S'educated'
p241
atp242
a(S'et'
p243
(dp244
S'CONJ'
p245
F1.0
s(lp246
g208
atp247
a(S'de'
p248
(dp249
S'ADP'
p250
F1.0
s(lp251
S'working'
p252
atp253
a(S'travailleurs'
p254
(dp255
S'ADJ'
p256
F0.077368
sS'NOUN'
p257
F0.922632
s(lp258
tp259
a(S'qui'
p260
(dp261
S'PRON'
p262
F1.0
s(lp263
g252
atp264
a(S"s'"
p265
(dp266
S'ADJ'
p267
F0.006544
sS'VERB'
p268
F0.9727179999999999
sS'NOUN'
p269
F0.020738
s(lp270
tp271
a(S'acquitteront'
p272
(dp273
S'VERB'
p274
F1.0
s(lp275
S'capable'
p276
atp277
a(S'de'
p278
(dp279
S'ADP'
p280
F1.0
s(lp281
S'of'
p282
atp283
a(S'leurs'
p284
(dp285
S'PRON'
p286
F1.0
s(lp287
tp288
a(S'taxes'
p289
(dp290
S'VERB'
p291
F0.0
sS'NOUN'
p292
F1.0
s(lp293
S'tax'
p294
atp295
a(g208
(dp296
g30
F1.0
s(lp297
g208
atp298
a(S'de'
p299
(dp300
S'ADP'
p301
F1.0
s(lp302
tp303
a(S'leurs'
p304
(dp305
S'PRON'
p306
F1.0
s(lp307
S'contributions'
p308
atp309
a(S'contributions'
p310
(dp311
S'NOUN'
p312
F1.0
s(lp313
tp314
a(S'sociales'
p315
(dp316
S'ADJ'
p317
F1.0
s(lp318
S'social'
p319
atp320
a(S'et'
p321
(dp322
S'CONJ'
p323
F1.0
s(lp324
S'and'
p325
atp326
a(S'de'
p327
(dp328
S'ADP'
p329
F1.0
s(lp330
tp331
a(S'leurs'
p332
(dp333
S'PRON'
p334
F1.0
s(lp335
g308
atp336
a(S'assurances'
p337
(dp338
S'NOUN'
p339
F1.0
s(lp340
S'insurance'
p341
atp342
a(g30
(dp343
g30
F1.0
s(lp344
g30
atp345
asS'en'
p346
(lp347
(g8
(dp348
S'PRON'
p349
F1.0
s(lp350
g8
atp351
a(g20
(dp352
S'VERB'
p353
F1.0
s(lp354
g20
atp355
a(S'also'
p356
(dp357
S'ADV'
p358
F1.0
s(lp359
g356
atp360
a(S'not'
p361
(dp362
S'ADV'
p363
F1.0
s(lp364
g361
atp365
a(g26
(dp366
S'VERB'
p367
F1.0
s(lp368
g26
atp369
a(g32
(dp370
S'ADV'
p371
F0.000214
sS'DET'
p372
F0.015939
sS'ADP'
p373
F0.983846
s(lp374
g32
atp375
a(g38
(dp376
S'PRON'
p377
F1.0
s(lp378
g38
atp379
a(g45
(dp380
S'VERB'
p381
F1.0
s(lp382
g45
atp383
a(g51
(dp384
S'ADV'
p385
F0.012783
sS'PRT'
p386
F0.002758
sS'ADP'
p387
F0.984459
s(lp388
g51
atp389
a(g59
(dp390
S'NOUN'
p391
F1e-06
sS'DET'
p392
F0.999999
s(lp393
g59
atp394
a(g71
(dp395
S'NOUN'
p396
F0.002225
sS'ADJ'
p397
F0.997775
s(lp398
g71
atp399
a(g65
(dp400
S'VERB'
p401
F2e-06
sS'NOUN'
p402
F0.999998
s(lp403
g65
atp404
a(g79
(dp405
S'ADP'
p406
F1.0
s(lp407
g79
atp408
a(g99
(dp409
S'VERB'
p410
F0.941626
sS'NOUN'
p411
F0.058374
s(lp412
g99
atp413
a(g93
(dp414
S'ADV'
p415
F0.002769
sS'ADJ'
p416
F0.021038
sS'VERB'
p417
F0.000126
sS'NOUN'
p418
F0.9760690000000001
s(lp419
g93
atp420
a(g105
(dp421
S'ADV'
p422
F0.0
sS'PRT'
p423
F1.0
sS'ADP'
p424
F0.0
s(lp425
g105
atp426
a(g113
(dp427
S'VERB'
p428
F0.999986
sS'NOUN'
p429
F1.4e-05
s(lp430
g113
atp431
a(g119
(dp432
S'ADV'
p433
F0.823032
sS'ADJ'
p434
F0.176968
s(lp435
g119
atp436
a(g132
(dp437
S'PRON'
p438
F1.0
s(lp439
g132
atp440
a(g138
(dp441
S'VERB'
p442
F1.0
s(lp443
g138
atp444
a(g144
(dp445
S'VERB'
p446
F0.98594
sS'ADJ'
p447
F0.01406
s(lp448
g144
atp449
a(g151
(dp450
S'ADV'
p451
F1.0
s(lp452
g151
atp453
a(g157
(dp454
S'ADV'
p455
F0.00202
sS'NOUN'
p456
F0.0
sS'ADP'
p457
F0.99798
s(lp458
g157
atp459
a(g169
(dp460
S'NOUN'
p461
F0.005775
sS'ADJ'
p462
F0.994225
s(lp463
g169
atp464
a(g163
(dp465
S'VERB'
p466
F1e-06
sS'NOUN'
p467
F0.999999
s(lp468
g163
atp469
a(g175
(dp470
S'PRON'
p471
F1.0
s(lp472
g175
atp473
a(g181
(dp474
S'VERB'
p475
F1.0
s(lp476
g181
atp477
a(g187
(dp478
S'ADV'
p479
F0.029262
sS'PRT'
p480
F0.018391
sS'ADJ'
p481
F2.2e-05
sS'ADP'
p482
F0.952323
sS'NOUN'
p483
F1e-06
s(lp484
g187
atp485
a(g206
(dp486
S'NOUN'
p487
F0.000955
sS'ADJ'
p488
F0.999045
s(lp489
g206
atp490
a(g200
(dp491
S'NOUN'
p492
F1.0
s(lp493
g200
atp494
a(g208
(dp495
g30
F1.0
s(lp496
g208
atp497
a(g216
(dp498
S'ADV'
p499
F0.009263
sS'CONJ'
p500
F0.99073
sS'NOUN'
p501
F7e-06
s(lp502
g216
atp503
a(g222
(dp504
S'ADV'
p505
F0.011078
sS'NOUN'
p506
F3e-06
sS'ADP'
p507
F0.988919
s(lp508
g222
atp509
a(g234
(dp510
S'ADV'
p511
F0.995122
sg149
F0.0
sS'VERB'
p512
F2e-06
sS'NOUN'
p513
F0.004876
s(lp514
g234
atp515
a(g241
(dp516
S'VERB'
p517
F0.9867910000000001
sS'ADJ'
p518
F0.013209
s(lp519
g241
atp520
a(g208
(dp521
g30
F1.0
s(lp522
g208
atp523
a(g252
(dp524
S'NOUN'
p525
F0.008726
sS'VERB'
p526
F0.927995
sS'ADJ'
p527
F0.063278
s(lp528
g252
atp529
a(g228
(dp530
S'NOUN'
p531
F1.0
s(lp532
g228
atp533
a(g208
(dp534
g30
F1.0
s(lp535
g208
atp536
a(g276
(dp537
S'ADJ'
p538
F1.0
s(lp539
g276
atp540
a(g282
(dp541
S'ADP'
p542
F1.0
s(lp543
g282
atp544
a(S'paying'
p545
(dp546
S'VERB'
p547
F0.958793
sS'ADJ'
p548
F0.041207
s(lp549
g545
atp550
a(g294
(dp551
S'VERB'
p552
F0.000115
sS'NOUN'
p553
F0.999885
s(lp554
g294
atp555
a(g208
(dp556
g30
F1.0
s(lp557
g208
atp558
a(g319
(dp559
S'NOUN'
p560
F0.000548
sS'ADJ'
p561
F0.999452
s(lp562
g319
atp563
a(g308
(dp564
S'NOUN'
p565
F1.0
s(lp566
g308
atp567
a(g325
(dp568
S'CONJ'
p569
F0.999999
sS'NOUN'
p570
F1e-06
s(lp571
g325
atp572
a(g341
(dp573
S'NOUN'
p574
F1.0
s(lp575
g341
atp576
a(g30
(dp577
g30
F1.0
s(lp578
g30
atp579
asS'nl'
p580
(lp581
(S'we'
p582
(dp583
S'PRON'
p584
F1.0
s(lp585
g8
atp586
a(S'mogen'
p587
(dp588
S'VERB'
p589
F0.9999739999999999
sS'NOUN'
p590
F2.6e-05
s(lp591
g20
atp592
a(S'ook'
p593
(dp594
S'ADV'
p595
F1.0
s(lp596
g356
atp597
a(S'niet'
p598
(dp599
S'ADV'
p600
F0.999988
sS'PRON'
p601
F7e-06
sS'VERB'
p602
F5e-06
sg149
F0.0
s(lp603
g361
atp604
a(S'vergeten'
p605
(dp606
S'VERB'
p607
F0.998398
sS'NOUN'
p608
F0.001602
s(lp609
g26
atp610
a(S'dat'
p611
(dp612
S'PRON'
p613
F0.053682
sS'CONJ'
p614
F0.946317
s(lp615
g32
atp616
a(S'het'
p617
(dp618
S'PRON'
p619
F0.47122800000000004
sS'DET'
p620
F0.528771
s(lp621
g38
atp622
a(S'van'
p623
(dp624
S'ADP'
p625
F1.0
s(lp626
g79
atp627
a(S'levensbelang'
p628
(dp629
S'NOUN'
p630
F1.0
s(lp631
tp632
a(S'is'
p633
(dp634
S'VERB'
p635
F1.0
s(lp636
g45
atp637
a(S'voor'
p638
(dp639
S'ADV'
p640
F0.01303
sS'CONJ'
p641
F5.5e-05
sS'NOUN'
p642
F0.0
sS'ADP'
p643
F0.986915
s(lp644
g51
atp645
a(S'ons'
p646
(dp647
S'PRON'
p648
F0.9967
sS'NOUN'
p649
F0.0033
s(lp650
g59
atp651
a(S'vergrijzende'
p652
(dp653
S'VERB'
p654
F0.999127
sS'NOUN'
p655
F0.000873
s(lp656
g99
atp657
a(S'europa'
p658
(dp659
S'NOUN'
p660
F1.0
s(lp661
g93
atp662
a(S'dat'
p663
(dp664
S'PRON'
p665
F0.378262
sS'CONJ'
p666
F0.621738
s(lp667
tp668
a(S'er'
p669
(dp670
S'ADV'
p671
F1.0
s(lp672
g119
atp673
a(S'op'
p674
(dp675
S'ADV'
p676
F0.010251
sS'ADJ'
p677
F0.0
sS'ADP'
p678
F0.989749
s(lp679
g132
atp680
a(S'zijn'
p681
(dp682
S'PRON'
p683
F0.99915
sS'VERB'
p684
F0.000838
sS'NOUN'
p685
F1.1e-05
s(lp686
g138
atp687
a(S'grondgebied'
p688
(dp689
S'NOUN'
p690
F1.0
s(lp691
g144
atp692
a(S'geen'
p693
(dp694
S'PRON'
p695
F0.9999140000000001
sS'DET'
p696
F8.6e-05
s(lp697
g151
atp698
a(S'ongelukkigen'
p699
(dp700
S'NOUN'
p701
F0.41646299999999997
sS'ADJ'
p702
F0.583538
s(lp703
g169
atp704
a(S'leven'
p705
(dp706
S'VERB'
p707
F0.5118050000000001
sS'NOUN'
p708
F0.488195
s(lp709
g163
atp710
a(S'die'
p711
(dp712
S'PRON'
p713
F1.0
s(lp714
g175
atp715
a(S'zijn'
p716
(dp717
S'PRON'
p718
F0.028497
sS'VERB'
p719
F0.9714710000000001
sS'NOUN'
p720
F3.2e-05
s(lp721
tp722
a(S'aangewezen'
p723
(dp724
S'VERB'
p725
F0.999983
sS'ADJ'
p726
F1.7e-05
s(lp727
g181
atp728
a(S'op'
p729
(dp730
S'ADV'
p731
F0.001693
sS'ADJ'
p732
F1e-06
sS'ADP'
p733
F0.998306
s(lp734
g187
atp735
a(S'sociale'
p736
(dp737
S'NOUN'
p738
F7e-06
sS'ADJ'
p739
F0.999993
s(lp740
g206
atp741
a(S'hulp'
p742
(dp743
S'NOUN'
p744
F1.0
s(lp745
g200
atp746
a(g208
(dp747
g30
F1.0
s(lp748
g208
atp749
a(S'maar'
p750
(dp751
S'ADV'
p752
F0.15587
sS'CONJ'
p753
F0.844122
sS'NOUN'
p754
F8e-06
s(lp755
g216
atp756
a(S'goed'
p757
(dp758
S'ADV'
p759
F0.071162
sS'ADJ'
p760
F0.462662
sS'NOUN'
p761
F0.466176
s(lp762
g234
atp763
a(S'opgeleide'
p764
(dp765
S'VERB'
p766
F0.867097
sS'NOUN'
p767
F0.132903
s(lp768
g241
atp769
a(g208
(dp770
g30
F1.0
s(lp771
g208
atp772
a(S'werkende'
p773
(dp774
S'NOUN'
p775
F0.0
sS'VERB'
p776
F0.007633
sS'ADJ'
p777
F0.992367
s(lp778
g252
atp779
a(S'burgers'
p780
(dp781
S'NOUN'
p782
F1.0
s(lp783
g228
atp784
a(S'die'
p785
(dp786
S'PRON'
p787
F1.0
s(lp788
g545
atp789
a(S'belasting'
p790
(dp791
S'NOUN'
p792
F1.0
s(lp793
g294
atp794
a(S'betalen'
p795
(dp796
S'VERB'
p797
F0.998259
sS'NOUN'
p798
F0.001741
s(lp799
tp800
a(S'en'
p801
(dp802
S'CONJ'
p803
F1.0
s(lp804
g208
atp805
a(S'in'
p806
(dp807
S'ADV'
p808
F0.005722
sS'VERB'
p809
F0.0
sS'ADP'
p810
F0.994278
s(lp811
g276
atp812
a(S'staat'
p813
(dp814
S'VERB'
p815
F0.001156
sS'NOUN'
p816
F0.998844
s(lp817
tp818
a(S'zijn'
p819
(dp820
S'PRON'
p821
F0.014246
sS'VERB'
p822
F0.985723
sS'NOUN'
p823
F3.1e-05
s(lp824
g208
atp825
a(S'sociale'
p826
(dp827
S'NOUN'
p828
F0.0
sS'ADJ'
p829
F1.0
s(lp830
g319
atp831
a(S'premies'
p832
(dp833
S'NOUN'
p834
F1.0
s(lp835
g308
atp836
a(S'en'
p837
(dp838
S'CONJ'
p839
F1.0
s(lp840
g325
atp841
a(S'verzekeringen'
p842
(dp843
S'NOUN'
p844
F1.0
s(lp845
tp846
a(S'af'
p847
(dp848
S'ADV'
p849
F0.999987
sS'ADP'
p850
F1.3e-05
s(lp851
g341
atp852
a(S'te'
p853
(dp854
S'PRT'
p855
F1.0
s(lp856
g276
atp857
a(S'dragen'
p858
(dp859
S'VERB'
p860
F1.0
sS'NOUN'
p861
F0.0
s(lp862
g545
atp863
a(g30
(dp864
g30
F1.0
s(lp865
g30
atp866
asS'de'
p867
(lp868
(S'wir'
p869
(dp870
S'PRON'
p871
F1.0
s(lp872
g8
atp873
a(S'sollten'
p874
(dp875
S'VERB'
p876
F1.0
s(lp877
g20
atp878
a(S'auch'
p879
(dp880
S'ADV'
p881
F1.0
s(lp882
g356
atp883
a(S'nicht'
p884
(dp885
S'PRT'
p886
F1.0
s(lp887
g361
atp888
a(S'vergessen'
p889
(dp890
S'VERB'
p891
F0.998089
s(lp892
g26
atp893
a(g208
(dp894
g30
F1.0
s(lp895
tp896
a(S'dass'
p897
(dp898
S'CONJ'
p899
F1.0
s(lp900
g32
atp901
a(S'es'
p902
(dp903
S'PRON'
p904
F1.0
s(lp905
g38
atp906
a(S'im'
p907
(dp908
S'ADP'
p909
F1.0
s(lp910
g51
atp911
a(S'fundamentalen'
p912
(dp913
S'ADJ'
p914
F1.0
s(lp915
g71
atp916
a(S'interesse'
p917
(dp918
S'ADJ'
p919
F0.000477
sS'NOUN'
p920
F0.999234
s(lp921
g65
atp922
a(S'europas'
p923
(dp924
S'ADJ'
p925
F0.322579
sS'NOUN'
p926
F0.562759
s(lp927
g93
atp928
a(g208
(dp929
g30
F1.0
s(lp930
g105
atp931
a(S'dessen'
p932
(dp933
S'PRON'
p934
F0.997744
s(lp935
g119
atp936
a(S'bev\xc3\xb6lkerung'
p937
(dp938
S'ADJ'
p939
F0.020968
sS'NOUN'
p940
F0.956442
s(lp941
g99
atp942
a(S'immer'
p943
(dp944
S'ADV'
p945
F1.0
s(lp946
tp947
a(S'\xc3\xa4lter'
p948
(dp949
S'ADJ'
p950
F1.0
s(lp951
g99
atp952
a(S'wird'
p953
(dp954
S'VERB'
p955
F1.0
s(lp956
tp957
a(g208
(dp958
g30
F1.0
s(lp959
g175
atp960
a(S'liegt'
p961
(dp962
S'VERB'
p963
F1.0
s(lp964
g138
atp965
a(g208
(dp966
g30
F1.0
s(lp967
tp968
a(S'dass'
p969
(dp970
S'CONJ'
p971
F1.0
s(lp972
g119
atp973
a(S'seine'
p974
(dp975
S'PRON'
p976
F1.0
s(lp977
g169
atp978
a(S'b\xc3\xbcrger'
p979
(dp980
S'VERB'
p981
F1.0
s(lp982
g163
atp983
a(S'nicht'
p984
(dp985
S'PRT'
p986
F1.0
s(lp987
g151
atp988
a(S'auf'
p989
(dp990
S'PRT'
p991
F0.009145
sS'ADP'
p992
F0.990354
s(lp993
g187
atp994
a(S'sozialhilfe'
p995
(dp996
S'ADJ'
p997
F0.123169
sS'NOUN'
p998
F0.853783
s(lp999
g200
atp1000
a(S'angewiesen'
p1001
(dp1002
S'VERB'
p1003
F0.648672
sS'ADJ'
p1004
F0.351328
s(lp1005
tp1006
a(S'sind'
p1007
(dp1008
S'VERB'
p1009
F1.0
s(lp1010
g181
atp1011
a(g208
(dp1012
g30
F1.0
s(lp1013
g208
atp1014
a(S'sondern'
p1015
(dp1016
S'CONJ'
p1017
F0.998765
sS'VERB'
p1018
F0.001235
s(lp1019
g216
atp1020
a(S'eine'
p1021
(dp1022
S'PRON'
p1023
F0.003477
sS'DET'
p1024
F0.99648
s(lp1025
tp1026
a(S'gute'
p1027
(dp1028
S'ADJ'
p1029
F1.0
s(lp1030
g234
atp1031
a(S'ausbildung'
p1032
(dp1033
S'ADJ'
p1034
F0.0003
sS'NOUN'
p1035
F0.999677
s(lp1036
g241
atp1037
a(S'und'
p1038
(dp1039
S'CONJ'
p1040
F1.0
s(lp1041
g208
atp1042
a(S'einen'
p1043
(dp1044
S'PRON'
p1045
F0.009169
sS'DET'
p1046
F0.986617
s(lp1047
tp1048
a(S'arbeitsplatz'
p1049
(dp1050
S'ADJ'
p1051
F0.058529
sS'NOUN'
p1052
F0.897625
s(lp1053
g252
atp1054
a(S'haben'
p1055
(dp1056
S'VERB'
p1057
F0.994741
s(lp1058
tp1059
a(S'und'
p1060
(dp1061
S'CONJ'
p1062
F1.0
s(lp1063
g228
atp1064
a(S'dadurch'
p1065
(dp1066
S'ADV'
p1067
F1.0
s(lp1068
tp1069
a(S'in'
p1070
(dp1071
S'ADP'
p1072
F1.0
s(lp1073
g276
atp1074
a(S'der'
p1075
(dp1076
S'PRON'
p1077
F1.5e-05
sS'DET'
p1078
F0.999979
s(lp1079
g282
atp1080
a(S'lage'
p1081
(dp1082
S'ADJ'
p1083
F0.000241
sS'NOUN'
p1084
F0.999547
s(lp1085
g276
atp1086
a(S'sind'
p1087
(dp1088
S'VERB'
p1089
F1.0
s(lp1090
tp1091
a(g208
(dp1092
g30
F1.0
s(lp1093
g208
atp1094
a(S'steuern'
p1095
(dp1096
S'VERB'
p1097
F1.0
s(lp1098
g294
atp1099
a(S'und'
p1100
(dp1101
S'CONJ'
p1102
F1.0
s(lp1103
g208
atp1104
a(S'sozialversicherungsbeitr\xc3\xa4ge'
p1105
(dp1106
S'ADJ'
p1107
F0.488459
sS'NOUN'
p1108
F0.510469
s(lp1109
g308
atp1110
a(S'zu'
p1111
(dp1112
S'PRT'
p1113
F0.999978
s(lp1114
g276
atp1115
a(S'zahlen'
p1116
(dp1117
S'VERB'
p1118
F1.0
s(lp1119
g545
atp1120
a(g30
(dp1121
g30
F1.0
s(lp1122
g30
atp1123
asS'it'
p1124
(lp1125
(S'n\xc3\xa9'
p1126
(dp1127
S'CONJ'
p1128
F1.0
s(lp1129
g361
atp1130
a(S'va'
p1131
(dp1132
S'VERB'
p1133
F1.0
s(lp1134
g20
atp1135
a(S'dimenticato'
p1136
(dp1137
S'VERB'
p1138
F0.979707
sS'ADJ'
p1139
F0.020293
s(lp1140
g26
atp1141
a(S'che'
p1142
(dp1143
S'PRON'
p1144
F0.901285
sS'CONJ'
p1145
F0.085807
sS'ADJ'
p1146
F0.012909
s(lp1147
g32
atp1148
a(g208
(dp1149
g30
F1.0
s(lp1150
g38
atp1151
a(S'in'
p1152
(dp1153
S'ADP'
p1154
F1.0
s(lp1155
g51
atp1156
a(S"un'"
p1157
(dp1158
S'PRON'
p1159
F0.00969
sS'DEF'
p1160
F0.99031
s(lp1161
g93
atp1162
a(S'europa'
p1163
(dp1164
S'NOUN'
p1165
F0.25099
sS'VERB'
p1166
F0.104999
sS'ADJ'
p1167
F0.644011
s(lp1168
tp1169
a(S'che'
p1170
(dp1171
S'PRON'
p1172
F0.969657
sS'CONJ'
p1173
F0.029977
sS'ADJ'
p1174
F0.000365
s(lp1175
tp1176
a(S'invecchia'
p1177
(dp1178
S'VERB'
p1179
F1.0
s(lp1180
g99
atp1181
a(g208
(dp1182
g30
F1.0
s(lp1183
tp1184
a(S'\xc3\xa8'
p1185
(dp1186
S'VERB'
p1187
F1.0
s(lp1188
g45
atp1189
a(S'essenziale'
p1190
(dp1191
S'NOUN'
p1192
F0.079006
sS'ADJ'
p1193
F0.920994
s(lp1194
g71
atp1195
a(S'garantire'
p1196
(dp1197
S'VERB'
p1198
F1.0
s(lp1199
g119
atp1200
a(S'che'
p1201
(dp1202
S'PRON'
p1203
F0.993753
sS'CONJ'
p1204
F0.006048
sS'ADJ'
p1205
F0.000199
s(lp1206
g132
atp1207
a(S'il'
p1208
(dp1209
S'DET'
p1210
F1.0
s(lp1211
g59
atp1212
a(S'continente'
p1213
(dp1214
S'ADJ'
p1215
F0.022305
sS'NOUN'
p1216
F0.977695
s(lp1217
g93
atp1218
a(S'non'
p1219
(dp1220
S'ADV'
p1221
F1.0
s(lp1222
g151
atp1223
a(S'si'
p1224
(dp1225
S'PRON'
p1226
F0.999997
sS'NOUN'
p1227
F3e-06
s(lp1228
g138
atp1229
a(S'ritrovi'
p1230
(dp1231
S'VERB'
p1232
F0.990823
sS'NOUN'
p1233
F0.009177
s(lp1234
tp1235
a(S'popolato'
p1236
(dp1237
S'VERB'
p1238
F1.0
s(lp1239
g144
atp1240
a(S'di'
p1241
(dp1242
S'CONJ'
p1243
F1.1e-05
sS'ADP'
p1244
F0.999989
s(lp1245
tp1246
a(S'disperati'
p1247
(dp1248
S'ADJ'
p1249
F0.327284
sS'VERB'
p1250
F0.091005
sS'NOUN'
p1251
F0.581711
s(lp1252
g99
atp1253
a(S'a'
p1254
(dp1255
S'CONJ'
p1256
F0.00026
sS'ADP'
p1257
F0.99974
s(lp1258
g157
atp1259
a(S'carico'
p1260
(dp1261
S'ADJ'
p1262
F0.063854
sS'VERB'
p1263
F8e-06
sS'NOUN'
p1264
F0.936138
s(lp1265
tp1266
a(S'dello'
p1267
(dp1268
S'DEF'
p1269
F0.00011
sS'ADP'
p1270
F0.99989
s(lp1271
g99
atp1272
a(S'stato'
p1273
(dp1274
S'VERB'
p1275
F0.082892
sS'NOUN'
p1276
F0.917108
s(lp1277
g169
atp1278
a(S'sociale'
p1279
(dp1280
S'ADJ'
p1281
F1.0
s(lp1282
g206
atp1283
a(g208
(dp1284
g30
F1.0
s(lp1285
g208
atp1286
a(S'ma'
p1287
(dp1288
S'CONJ'
p1289
F0.999793
sS'NOUN'
p1290
F0.000207
s(lp1291
g216
atp1292
a(S'di'
p1293
(dp1294
S'CONJ'
p1295
F2e-06
sS'ADP'
p1296
F0.999998
s(lp1297
g222
atp1298
a(S'cittadini'
p1299
(dp1300
S'ADJ'
p1301
F0.086732
sS'NOUN'
p1302
F0.913268
s(lp1303
g228
atp1304
a(S'istruiti'
p1305
(dp1306
S'VERB'
p1307
F1.0
s(lp1308
g241
atp1309
a(S'e'
p1310
(dp1311
S'CONJ'
p1312
F1.0
s(lp1313
g208
atp1314
a(S'occupati'
p1315
(dp1316
S'VERB'
p1317
F0.085019
sS'ADJ'
p1318
F0.914981
s(lp1319
g252
atp1320
a(g208
(dp1321
g30
F1.0
s(lp1322
g208
atp1323
a(S'in'
p1324
(dp1325
S'ADP'
p1326
F1.0
s(lp1327
tp1328
a(S'grado'
p1329
(dp1330
S'NOUN'
p1331
F1.0
s(lp1332
g276
atp1333
a(S'di'
p1334
(dp1335
S'CONJ'
p1336
F6e-06
sS'ADP'
p1337
F0.999994
s(lp1338
g282
atp1339
a(S'pagare'
p1340
(dp1341
S'VERB'
p1342
F1.0
s(lp1343
g545
atp1344
a(S'tasse'
p1345
(dp1346
S'NOUN'
p1347
F1.0
s(lp1348
g294
atp1349
a(g208
(dp1350
g30
F1.0
s(lp1351
g208
atp1352
a(S'contributi'
p1353
(dp1354
S'NOUN'
p1355
F1.0
s(lp1356
g308
atp1357
a(S'sociali'
p1358
(dp1359
S'ADJ'
p1360
F1.0
s(lp1361
g319
atp1362
a(g1310
(dp1363
S'CONJ'
p1364
F1.0
s(lp1365
g325
atp1366
a(S'sistemi'
p1367
(dp1368
S'VERB'
p1369
F0.829921
sS'NOUN'
p1370
F0.170079
s(lp1371
tp1372
a(S'sanitari'
p1373
(dp1374
S'NOUN'
p1375
F0.057536
sS'ADJ'
p1376
F0.942464
s(lp1377
g341
atp1378
a(g30
(dp1379
g30
F1.0
s(lp1380
g30
atp1381
asS'sk'
p1382
(lp1383
(S'nemali'
p1384
(dp1385
S'VERB'
p1386
F1.0
s(lp1387
tp1388
a(S'by'
p1389
(dp1390
S'PRT'
p1391
F0.999999
sg149
F1e-06
s(lp1392
g20
atp1393
a(S'sme'
p1394
(dp1395
g149
F1e-06
sS'VERB'
p1396
F0.999999
s(lp1397
g8
atp1398
a(S'zab\xc3\xbada\xc5\xa5'
p1399
(dp1400
S'VERB'
p1401
F1.0
s(lp1402
g26
atp1403
a(g208
(dp1404
g30
F1.0
s(lp1405
tp1406
a(S'\xc5\xbee'
p1407
(dp1408
g149
F0.0009
sS'CONJ'
p1409
F0.9991
s(lp1410
g32
atp1411
a(S'v'
p1412
(dp1413
g149
F0.000263
sS'ADP'
p1414
F0.999737
s(lp1415
g51
atp1416
a(S'\xc5\xbeivotnom'
p1417
(dp1418
S'ADJ'
p1419
F1.0
s(lp1420
g71
atp1421
a(S'z\xc3\xa1ujme'
p1422
(dp1423
S'NOUN'
p1424
F1.0
s(lp1425
g65
atp1426
a(S'starn\xc3\xbacej'
p1427
(dp1428
S'VERB'
p1429
F1.0
s(lp1430
g99
atp1431
a(S'eur\xc3\xb3py'
p1432
(dp1433
S'NOUN'
p1434
F1.0
s(lp1435
g93
atp1436
a(S'je'
p1437
(dp1438
S'PRON'
p1439
F1e-05
sS'VERB'
p1440
F0.999982
sg149
F7e-06
s(lp1441
g138
atp1442
a(S'zabezpe\xc4\x8di\xc5\xa5'
p1443
(dp1444
S'VERB'
p1445
F1.0
s(lp1446
tp1447
a(g208
(dp1448
g30
F1.0
s(lp1449
g119
atp1450
a(S'aby'
p1451
(dp1452
g149
F4.9e-05
sS'CONJ'
p1453
F0.999951
s(lp1454
g105
atp1455
a(S'bola'
p1456
(dp1457
S'VERB'
p1458
F0.9999990000000001
s(lp1459
g113
atp1460
a(S'ob\xc3\xbdvan\xc3\xa1'
p1461
(dp1462
S'VERB'
p1463
F1.0
s(lp1464
g144
atp1465
a(S'nie'
p1466
(dp1467
g149
F1.0
s(lp1468
g151
atp1469
a(S'ne\xc5\xa1\xc5\xa5astn\xc3\xbdmi'
p1470
(dp1471
S'ADJ'
p1472
F1.0
s(lp1473
g169
atp1474
a(S'\xc4\xbeu\xc4\x8fmi'
p1475
(dp1476
S'NOUN'
p1477
F1.0
s(lp1478
g163
atp1479
a(S'z\xc3\xa1visl\xc3\xbdmi'
p1480
(dp1481
S'ADJ'
p1482
F1.0
s(lp1483
g181
atp1484
a(S'na'
p1485
(dp1486
g149
F0.0006230000000000001
sS'CONJ'
p1487
F0.000211
sS'ADP'
p1488
F0.999159
sS'PRT'
p1489
F8e-06
s(lp1490
g187
atp1491
a(S'soci\xc3\xa1lnej'
p1492
(dp1493
S'ADJ'
p1494
F1.0
s(lp1495
g206
atp1496
a(S'pomoci'
p1497
(dp1498
S'NOUN'
p1499
F1.0
s(lp1500
g200
atp1501
a(g208
(dp1502
g30
F1.0
s(lp1503
g208
atp1504
a(S'ale'
p1505
(dp1506
g149
F0.009637
sS'CONJ'
p1507
F0.990363
s(lp1508
g216
atp1509
a(S'vzdelan\xc3\xbdmi'
p1510
(dp1511
S'VERB'
p1512
F1.0
s(lp1513
g241
atp1514
a(g208
(dp1515
g30
F1.0
s(lp1516
g208
atp1517
a(S'pracuj\xc3\xbacimi'
p1518
(dp1519
S'VERB'
p1520
F0.950944
sS'NOUN'
p1521
F0.049056
s(lp1522
g252
atp1523
a(S'ob\xc4\x8danmi'
p1524
(dp1525
S'NOUN'
p1526
F1.0
s(lp1527
g228
atp1528
a(S'schopn\xc3\xbdmi'
p1529
(dp1530
S'ADJ'
p1531
F1.0
s(lp1532
g276
atp1533
a(S'plati\xc5\xa5'
p1534
(dp1535
S'VERB'
p1536
F1.0
s(lp1537
g545
atp1538
a(S'dane'
p1539
(dp1540
S'NOUN'
p1541
F1.0
s(lp1542
g294
atp1543
a(g208
(dp1544
g30
F1.0
s(lp1545
g208
atp1546
a(S'soci\xc3\xa1lne'
p1547
(dp1548
S'ADV'
p1549
F0.000855
sS'ADJ'
p1550
F0.999145
s(lp1551
g319
atp1552
a(S'odvody'
p1553
(dp1554
S'NOUN'
p1555
F1.0
s(lp1556
g308
atp1557
a(g1254
(dp1558
g149
F0.0007580000000000001
sS'CONJ'
p1559
F0.998528
sS'NOUN'
p1560
F5.5e-05
sS'ADP'
p1561
F0.000628
sS'PRT'
p1562
F3.2e-05
s(lp1563
g325
atp1564
a(S'poistenie'
p1565
(dp1566
S'NOUN'
p1567
F1.0
s(lp1568
g341
atp1569
a(g30
(dp1570
g30
F1.0
s(lp1571
g30
atp1572
asS'pl'
p1573
(lp1574
(S'nie'
p1575
(dp1576
S'ADV'
p1577
F2.1e-05
sS'PRT'
p1578
F0.993481
sS'CONJ'
p1579
F0.006481
sS'NOUN'
p1580
F1.6e-05
sS'PRON'
p1581
F0.0
s(lp1582
g361
atp1583
a(S'powinni\xc5\x9bmy'
p1584
(dp1585
S'ADJ'
p1586
F0.000295
sS'VERB'
p1587
F0.9930589999999999
sS'NOUN'
p1588
F0.006646
s(lp1589
g20
atp1590
a(S'r\xc3\xb3wnie\xc5\xbc'
p1591
(dp1592
S'PRT'
p1593
F0.977833
sS'CONJ'
p1594
F0.022167
s(lp1595
g356
atp1596
a(S'zapomina\xc4\x87'
p1597
(dp1598
S'VERB'
p1599
F1.0
s(lp1600
g26
atp1601
a(g208
(dp1602
g149
F0.0
sg30
F1.0
s(lp1603
tp1604
a(S'\xc5\xbce'
p1605
(dp1606
S'PRT'
p1607
F0.002324
sS'CONJ'
p1608
F0.9976759999999999
s(lp1609
g32
atp1610
a(S'fundamentalnym'
p1611
(dp1612
S'ADJ'
p1613
F1.0
s(lp1614
g71
atp1615
a(S'interesem'
p1616
(dp1617
S'NOUN'
p1618
F1.0
s(lp1619
g65
atp1620
a(S'starzej\xc4\x85cej'
p1621
(dp1622
S'VERB'
p1623
F1.0
s(lp1624
tp1625
a(S'si\xc4\x99'
p1626
(dp1627
S'PRT'
p1628
F1.0
s(lp1629
g99
atp1630
a(S'europy'
p1631
(dp1632
S'ADJ'
p1633
F0.08435299999999998
sS'NOUN'
p1634
F0.915648
s(lp1635
g93
atp1636
a(S'jest'
p1637
(dp1638
S'VERB'
p1639
F1.0
s(lp1640
g45
atp1641
a(S'zapewnienie'
p1642
(dp1643
S'VERB'
p1644
F0.688041
sS'NOUN'
p1645
F0.311959
s(lp1646
tp1647
a(g208
(dp1648
g149
F0.0
sg30
F1.0
s(lp1649
g119
atp1650
a(S'aby'
p1651
(dp1652
S'PRT'
p1653
F0.001369
sS'CONJ'
p1654
F0.998631
s(lp1655
g105
atp1656
a(S'nie'
p1657
(dp1658
S'ADV'
p1659
F1.8e-05
sS'PRT'
p1660
F0.99971
sS'CONJ'
p1661
F0.000263
sS'NOUN'
p1662
F4e-06
sS'PRON'
p1663
F4e-06
s(lp1664
g151
atp1665
a(S'by\xc5\x82a'
p1666
(dp1667
S'VERB'
p1668
F0.999991
sS'ADJ'
p1669
F9e-06
s(lp1670
g138
atp1671
a(S'ona'
p1672
(dp1673
S'PRON'
p1674
F1.0
s(lp1675
g132
atp1676
a(S'zamieszka\xc5\x82a'
p1677
(dp1678
S'VERB'
p1679
F1.0
s(lp1680
g144
atp1681
a(S'przez'
p1682
(dp1683
S'ADP'
p1684
F1.0
s(lp1685
g157
atp1686
a(S'nieszcz\xc4\x99\xc5\x9bliwych'
p1687
(dp1688
S'ADJ'
p1689
F1.0
s(lp1690
g169
atp1691
a(S'ludzi'
p1692
(dp1693
S'NOUN'
p1694
F1.0
s(lp1695
g163
atp1696
a(g208
(dp1697
g149
F0.0
sg30
F1.0
s(lp1698
tp1699
a(S'korzystaj\xc4\x85cych'
p1700
(dp1701
S'VERB'
p1702
F1.0
s(lp1703
g175
atp1704
a(S'z'
p1705
(dp1706
S'PRT'
p1707
F2.2e-05
sS'VERB'
p1708
F1e-06
sS'NOUN'
p1709
F3e-06
sS'ADP'
p1710
F0.999973
sg149
F1e-06
s(lp1711
g187
atp1712
a(S'pomocy'
p1713
(dp1714
S'NOUN'
p1715
F0.9999999999999999
s(lp1716
g200
atp1717
a(S'spo\xc5\x82ecznej'
p1718
(dp1719
S'ADJ'
p1720
F1.0
s(lp1721
g206
atp1722
a(g208
(dp1723
g149
F0.0
sg30
F1.0
s(lp1724
g208
atp1725
a(S'lecz'
p1726
(dp1727
S'CONJ'
p1728
F1.0
s(lp1729
g216
atp1730
a(S'przez'
p1731
(dp1732
S'ADP'
p1733
F1.0
s(lp1734
g222
atp1735
a(S'dobrze'
p1736
(dp1737
S'ADV'
p1738
F0.999816
sS'PRT'
p1739
F0.000184
s(lp1740
g234
atp1741
a(S'wykszta\xc5\x82conych'
p1742
(dp1743
S'VERB'
p1744
F1.0
s(lp1745
g241
atp1746
a(g208
(dp1747
g149
F0.0
sg30
F1.0
s(lp1748
g208
atp1749
a(S'pracuj\xc4\x85cych'
p1750
(dp1751
S'VERB'
p1752
F0.974089
sS'NOUN'
p1753
F0.025912
s(lp1754
g252
atp1755
a(S'obywateli'
p1756
(dp1757
S'NOUN'
p1758
F1.0
s(lp1759
g228
atp1760
a(g208
(dp1761
g149
F0.0
sg30
F1.0
s(lp1762
g208
atp1763
a(S'zdolnych'
p1764
(dp1765
S'ADJ'
p1766
F1.0
s(lp1767
tp1768
a(S'do'
p1769
(dp1770
g149
F0.0
sS'NOUN'
p1771
F4e-06
sS'ADP'
p1772
F0.999995
s(lp1773
g276
atp1774
a(S'p\xc5\x82acenia'
p1775
(dp1776
S'VERB'
p1777
F1.0
s(lp1778
g545
atp1779
a(S'podatk\xc3\xb3w'
p1780
(dp1781
S'NOUN'
p1782
F1.0
s(lp1783
g294
atp1784
a(g208
(dp1785
g149
F0.0
sg30
F1.0
s(lp1786
g208
atp1787
a(S'sk\xc5\x82adek'
p1788
(dp1789
S'NOUN'
p1790
F1.0
s(lp1791
tp1792
a(S'na'
p1793
(dp1794
g149
F4e-06
sS'VERB'
p1795
F4.2999999999999995e-05
sS'NOUN'
p1796
F1e-06
sS'ADP'
p1797
F0.9999490000000001
sS'PRT'
p1798
F2e-06
s(lp1799
g51
atp1800
a(S'\xc5\x9bwiadczenia'
p1801
(dp1802
S'VERB'
p1803
F0.000351
sS'NOUN'
p1804
F0.999649
s(lp1805
g308
atp1806
a(S'i'
p1807
(dp1808
S'PRT'
p1809
F0.000674
sS'CONJ'
p1810
F0.999313
sS'NOUN'
p1811
F3e-06
sg149
F1e-06
sS'PRON'
p1812
F8.000000000000001e-06
s(lp1813
g325
atp1814
a(S'ubezpieczenia'
p1815
(dp1816
S'VERB'
p1817
F0.006007
sS'NOUN'
p1818
F0.993994
s(lp1819
g341
atp1820
a(S'spo\xc5\x82eczne'
p1821
(dp1822
S'NOUN'
p1823
F0.01234
sS'ADJ'
p1824
F0.9876599999999999
s(lp1825
g319
atp1826
a(g30
(dp1827
g30
F1.0
s(lp1828
g30
atp1829
asS'sl'
p1830
(lp1831
(S'prav'
p1832
(dp1833
S'ADV'
p1834
F0.108469
sS'PRT'
p1835
F0.889718
sS'VERB'
p1836
F0.001813
s(lp1837
tp1838
a(S'tako'
p1839
(dp1840
S'ADV'
p1841
F0.962113
sS'PRON'
p1842
F0.011298
sS'CONJ'
p1843
F0.026589
s(lp1844
g356
atp1845
a(S'ne'
p1846
(dp1847
S'PRT'
p1848
F0.997667
sS'CONJ'
p1849
F0.002321
sg149
F1.1e-05
s(lp1850
g361
atp1851
a(S'smemo'
p1852
(dp1853
S'VERB'
p1854
F1.0
s(lp1855
tp1856
a(S'pozabiti'
p1857
(dp1858
S'VERB'
p1859
F1.0
s(lp1860
g26
atp1861
a(g208
(dp1862
g30
F1.0
s(lp1863
tp1864
a(S'da'
p1865
(dp1866
S'PRT'
p1867
F4e-06
sS'CONJ'
p1868
F0.999979
sS'VERB'
p1869
F1.7e-05
sg149
F1e-06
s(lp1870
g32
atp1871
a(S'je'
p1872
(dp1873
S'PRON'
p1874
F0.002422
sS'VERB'
p1875
F0.997576
sg149
F1e-06
s(lp1876
g45
atp1877
a(g1412
(dp1878
S'ADP'
p1879
F1.0
s(lp1880
g51
atp1881
a(S'temeljnem'
p1882
(dp1883
S'ADV'
p1884
F0.0
sS'NOUN'
p1885
F1e-05
sS'VERB'
p1886
F0.0
sS'ADJ'
p1887
F0.999989
s(lp1888
g71
atp1889
a(S'interesu'
p1890
(dp1891
S'NOUN'
p1892
F1.0
s(lp1893
g65
atp1894
a(S'evrope'
p1895
(dp1896
S'ADV'
p1897
F0.003137
sS'ADJ'
p1898
F0.012847
sS'NOUN'
p1899
F0.982117
sg149
F0.001897
s(lp1900
g93
atp1901
a(g208
(dp1902
g30
F1.0
s(lp1903
tp1904
a(S'ki'
p1905
(dp1906
S'CONJ'
p1907
F1.0
s(lp1908
g79
atp1909
a(S'se'
p1910
(dp1911
S'PRON'
p1912
F0.99999
sg149
F1e-05
s(lp1913
tp1914
a(S'stara'
p1915
(dp1916
S'ADJ'
p1917
F1.0
s(lp1918
g99
atp1919
a(g208
(dp1920
g30
F1.0
s(lp1921
tp1922
a(S'da'
p1923
(dp1924
S'PRT'
p1925
F0.00034
sS'CONJ'
p1926
F0.999605
sS'VERB'
p1927
F5.4e-05
sg149
F2e-06
s(lp1928
g105
atp1929
a(S'poskrbi'
p1930
(dp1931
S'VERB'
p1932
F1.0
s(lp1933
g119
atp1934
a(g208
(dp1935
g30
F1.0
s(lp1936
tp1937
a(S'da'
p1938
(dp1939
S'PRT'
p1940
F4e-06
sS'CONJ'
p1941
F0.999979
sS'VERB'
p1942
F1.7e-05
sg149
F1e-06
s(lp1943
g132
atp1944
a(S'je'
p1945
(dp1946
S'PRON'
p1947
F0.001069
sS'VERB'
p1948
F0.998931
sg149
F0.0
s(lp1949
g138
atp1950
a(S'poseljena'
p1951
(dp1952
S'ADV'
p1953
F0.002083
sS'NOUN'
p1954
F0.3438840000000001
sS'VERB'
p1955
F0.01757
sS'ADJ'
p1956
F0.6364630000000001
s(lp1957
g144
atp1958
a(S'ne'
p1959
(dp1960
S'PRT'
p1961
F0.967488
sS'CONJ'
p1962
F0.031652
sg149
F0.000861
s(lp1963
g151
atp1964
a(g1705
(dp1965
S'ADP'
p1966
F1.0
s(lp1967
g157
atp1968
a(S'nesre\xc4\x8dnimi'
p1969
(dp1970
S'ADJ'
p1971
F1.0
s(lp1972
g169
atp1973
a(S'ljudmi'
p1974
(dp1975
S'NOUN'
p1976
F1.0
s(lp1977
g163
atp1978
a(g208
(dp1979
g30
F1.0
s(lp1980
tp1981
a(S'ki'
p1982
(dp1983
S'CONJ'
p1984
F1.0
s(lp1985
g175
atp1986
a(S'so'
p1987
(dp1988
g149
F6e-06
sS'VERB'
p1989
F0.999994
s(lp1990
g181
atp1991
a(S'odvisni'
p1992
(dp1993
S'ADJ'
p1994
F1.0
s(lp1995
tp1996
a(S'od'
p1997
(dp1998
S'ADP'
p1999
F1.0
s(lp2000
g181
atp2001
a(S'socialne'
p2002
(dp2003
S'ADJ'
p2004
F0.9999990000000001
s(lp2005
g206
atp2006
a(S'pomo\xc4\x8di'
p2007
(dp2008
S'NOUN'
p2009
F1.0
s(lp2010
g200
atp2011
a(g208
(dp2012
g30
F1.0
s(lp2013
g208
atp2014
a(S'ampak'
p2015
(dp2016
S'CONJ'
p2017
F1.0
s(lp2018
g216
atp2019
a(g1705
(dp2020
S'ADP'
p2021
F1.0
s(lp2022
g222
atp2023
a(S'dobro'
p2024
(dp2025
S'ADV'
p2026
F0.098
sg149
F0.000103
sS'ADJ'
p2027
F0.9018079999999999
sS'NOUN'
p2028
F8.9e-05
s(lp2029
g234
atp2030
a(S'izobra\xc5\xbeenimi'
p2031
(dp2032
S'ADV'
p2033
F0.001708
sS'NOUN'
p2034
F0.9005209999999999
sS'PRON'
p2035
F0.000126
sS'VERB'
p2036
F0.057725
sS'NUM'
p2037
F5.6e-05
sS'ADJ'
p2038
F0.03986400000000001
s(lp2039
g241
atp2040
a(g208
(dp2041
g30
F1.0
s(lp2042
g208
atp2043
a(S'delovnimi'
p2044
(dp2045
S'ADJ'
p2046
F1.0
s(lp2047
g252
atp2048
a(S'dr\xc5\xbeavljani'
p2049
(dp2050
S'NOUN'
p2051
F1.0
s(lp2052
g228
atp2053
a(g208
(dp2054
g30
F1.0
s(lp2055
g208
atp2056
a(S'ki'
p2057
(dp2058
S'CONJ'
p2059
F1.0
s(lp2060
g276
atp2061
a(S'so'
p2062
(dp2063
g149
F6e-06
sS'VERB'
p2064
F0.999994
s(lp2065
tp2066
a(S'sposobni'
p2067
(dp2068
S'ADJ'
p2069
F1.0
s(lp2070
g276
atp2071
a(S'pla\xc4\x8devati'
p2072
(dp2073
S'VERB'
p2074
F1.0
s(lp2075
g545
atp2076
a(S'davke'
p2077
(dp2078
S'NOUN'
p2079
F1.0
s(lp2080
g294
atp2081
a(g208
(dp2082
g30
F1.0
s(lp2083
g208
atp2084
a(S'socialne'
p2085
(dp2086
S'ADJ'
p2087
F0.9999990000000001
s(lp2088
g319
atp2089
a(S'prispevke'
p2090
(dp2091
S'NOUN'
p2092
F1.0
s(lp2093
g308
atp2094
a(S'in'
p2095
(dp2096
S'ADV'
p2097
F2.7e-05
sg149
F6e-06
sS'CONJ'
p2098
F0.999965
sS'NOUN'
p2099
F3e-06
s(lp2100
g325
atp2101
a(S'zavarovanje'
p2102
(dp2103
S'NOUN'
p2104
F1.0
s(lp2105
g341
atp2106
a(g30
(dp2107
g30
F1.0
s(lp2108
g30
atp2109
asS'es'
p2110
(lp2111
(S'tampoco'
p2112
(dp2113
S'ADV'
p2114
F1.0
s(lp2115
g361
atp2116
a(S'deber\xc3\xadamos'
p2117
(dp2118
S'VERB'
p2119
F1.0
s(lp2120
g20
atp2121
a(S'olvidar'
p2122
(dp2123
S'VERB'
p2124
F1.0
s(lp2125
g26
atp2126
a(S'que'
p2127
(dp2128
g149
F4e-06
sS'CONJ'
p2129
F0.999996
s(lp2130
g32
atp2131
a(g208
(dp2132
g30
F1.0
s(lp2133
g38
atp2134
a(S'por'
p2135
(dp2136
S'ADP'
p2137
F1.0
s(lp2138
g51
atp2139
a(S'el'
p2140
(dp2141
S'PRON'
p2142
F5e-06
sS'DET'
p2143
F0.999995
s(lp2144
g59
atp2145
a(S'inter\xc3\xa9s'
p2146
(dp2147
S'NOUN'
p2148
F1.0
s(lp2149
g65
atp2150
a(S'esencial'
p2151
(dp2152
S'ADJ'
p2153
F1.0
s(lp2154
g71
atp2155
a(S'de'
p2156
(dp2157
g149
F0.0
sS'CONJ'
p2158
F5.7e-05
sS'ADP'
p2159
F0.999942
s(lp2160
g79
atp2161
a(S'la'
p2162
(dp2163
S'NOUN'
p2164
F1.5e-05
sS'PRON'
p2165
F0.0
sS'DET'
p2166
F0.999984
sg149
F1e-06
s(lp2167
tp2168
a(S'vieja'
p2169
(dp2170
S'ADJ'
p2171
F0.298781
sS'NOUN'
p2172
F0.701219
s(lp2173
g99
atp2174
a(S'europa'
p2175
(dp2176
S'NOUN'
p2177
F1.0
s(lp2178
g93
atp2179
a(g208
(dp2180
g30
F1.0
s(lp2181
g208
atp2182
a(S'deber\xc3\xadamos'
p2183
(dp2184
S'VERB'
p2185
F1.0
s(lp2186
tp2187
a(S'asegurarnos'
p2188
(dp2189
S'VERB'
p2190
F1.0
s(lp2191
tp2192
a(S'de'
p2193
(dp2194
g149
F0.0
sS'CONJ'
p2195
F0.008533
sS'ADP'
p2196
F0.991467
s(lp2197
g119
atp2198
a(S'que'
p2199
(dp2200
g149
F9e-06
sS'CONJ'
p2201
F0.999991
s(lp2202
g132
atp2203
a(S'nuestro'
p2204
(dp2205
S'PRON'
p2206
F0.999058
sS'ADJ'
p2207
F0.000942
s(lp2208
g99
atp2209
a(S'territorio'
p2210
(dp2211
S'NOUN'
p2212
F1.0
s(lp2213
tp2214
a(S'no'
p2215
(dp2216
S'ADV'
p2217
F1.0
sg149
F0.0
s(lp2218
g151
atp2219
a(S'est\xc3\xa9'
p2220
(dp2221
S'VERB'
p2222
F1.0
s(lp2223
g138
atp2224
a(S'poblado'
p2225
(dp2226
S'VERB'
p2227
F1.0
s(lp2228
g144
atp2229
a(S'por'
p2230
(dp2231
S'ADP'
p2232
F1.0
s(lp2233
g157
atp2234
a(S'personas'
p2235
(dp2236
S'NOUN'
p2237
F1.0
s(lp2238
g163
atp2239
a(S'desgraciadas'
p2240
(dp2241
S'VERB'
p2242
F0.07214
sS'ADJ'
p2243
F0.92786
s(lp2244
g169
atp2245
a(S'dependientes'
p2246
(dp2247
S'NOUN'
p2248
F0.053573
sS'VERB'
p2249
F0.790984
sS'ADJ'
p2250
F0.155443
s(lp2251
g181
atp2252
a(S'de'
p2253
(dp2254
g149
F0.0
sS'CONJ'
p2255
F2.8e-05
sS'ADP'
p2256
F0.999972
s(lp2257
g187
atp2258
a(S'la'
p2259
(dp2260
S'NOUN'
p2261
F0.0
sS'PRON'
p2262
F0.0
sS'DET'
p2263
F0.999999
sg149
F0.0
s(lp2264
tp2265
a(S'asistencia'
p2266
(dp2267
S'NOUN'
p2268
F1.0
s(lp2269
g200
atp2270
a(S'social'
p2271
(dp2272
g149
F0.001137
sS'ADJ'
p2273
F0.998863
s(lp2274
g206
atp2275
a(g208
(dp2276
g30
F1.0
s(lp2277
g208
atp2278
a(S'sino'
p2279
(dp2280
S'CONJ'
p2281
F1.0
s(lp2282
g216
atp2283
a(S'por'
p2284
(dp2285
S'ADP'
p2286
F1.0
s(lp2287
g222
atp2288
a(S'ciudadanos'
p2289
(dp2290
S'NOUN'
p2291
F1.0
s(lp2292
g228
atp2293
a(S'trabajadores'
p2294
(dp2295
S'NOUN'
p2296
F0.015853
sS'ADJ'
p2297
F0.984147
s(lp2298
g252
atp2299
a(S'y'
p2300
(dp2301
g149
F6e-06
sS'CONJ'
p2302
F0.999994
s(lp2303
tp2304
a(S'bien'
p2305
(dp2306
S'ADV'
p2307
F0.998939
sS'NOUN'
p2308
F0.001061
s(lp2309
g234
atp2310
a(S'educados'
p2311
(dp2312
S'VERB'
p2313
F1.0
s(lp2314
g241
atp2315
a(S'capaces'
p2316
(dp2317
S'ADJ'
p2318
F1.0
s(lp2319
g276
atp2320
a(S'de'
p2321
(dp2322
g149
F0.0
sS'CONJ'
p2323
F0.63617
sS'ADP'
p2324
F0.36383
s(lp2325
g282
atp2326
a(S'pagar'
p2327
(dp2328
S'VERB'
p2329
F1.0
s(lp2330
g545
atp2331
a(S'impuestos'
p2332
(dp2333
S'VERB'
p2334
F0.969327
sS'NOUN'
p2335
F0.030673
s(lp2336
g294
atp2337
a(g208
(dp2338
g30
F1.0
s(lp2339
g208
atp2340
a(S'contribuciones'
p2341
(dp2342
S'NOUN'
p2343
F1.0
s(lp2344
g308
atp2345
a(S'sociales'
p2346
(dp2347
S'ADJ'
p2348
F1.0
s(lp2349
g319
atp2350
a(g2300
(dp2351
g149
F0.000604
sS'CONJ'
p2352
F0.999396
s(lp2353
g325
atp2354
a(S'seguros'
p2355
(dp2356
S'NOUN'
p2357
F0.144611
sS'ADJ'
p2358
F0.855389
s(lp2359
g341
atp2360
a(g30
(dp2361
g30
F1.0
s(lp2362
g30
atp2363
as.