(dp0
S'fr'
p1
(lp2
(S'cela'
p3
(dp4
S'PRON'
p5
F0.999998
sS'VERB'
p6
F2e-06
s(lp7
S'this'
p8
atp9
a(S'signifie'
p10
(dp11
S'VERB'
p12
F1.0
s(lp13
S'means'
p14
atp15
a(S'que'
p16
(dp17
S'ADV'
p18
F0.112792
sS'PRON'
p19
F0.035686999999999997
sS'CONJ'
p20
F0.85152
s(lp21
S'that'
p22
atp23
a(S'le'
p24
(dp25
S'PRON'
p26
F0.000546
sS'DET'
p27
F0.999454
s(lp28
tp29
a(S'parlement'
p30
(dp31
S'NOUN'
p32
F1.0
s(lp33
S'parliament'
p34
atp35
a(S'peut'
p36
(dp37
S'VERB'
p38
F1.0
s(lp39
S'can'
p40
atp41
a(S'examiner'
p42
(dp43
S'VERB'
p44
F1.0
s(lp45
S'examine'
p46
atp47
a(S'ces'
p48
(dp49
S'PRON'
p50
F1.0
s(lp51
S'these'
p52
atp53
a(S'propositions'
p54
(dp55
S'NOUN'
p56
F1.0
s(lp57
S'proposals'
p58
atp59
a(S'de'
p60
(dp61
S'ADP'
p62
F1.0
s(lp63
tp64
a(S'financement'
p65
(dp66
S'NOUN'
p67
F1.0
s(lp68
S'financing'
p69
atp70
a(S'et'
p71
(dp72
S'CONJ'
p73
F1.0
s(lp74
S'and'
p75
atp76
a(S','
p77
(dp78
S'.'
p79
F1.0
s(lp80
g77
atp81
a(S'si'
p82
(dp83
S'ADV'
p84
F0.172776
sS'CONJ'
p85
F0.827116
sS'NOUN'
p86
F0.000108
s(lp87
S'if'
p88
atp89
a(S'la'
p90
(dp91
S'PRON'
p92
F8.9e-05
sS'DET'
p93
F0.999911
sS'NOUN'
p94
F0.0
s(lp95
S'the'
p96
atp97
a(S'commission'
p98
(dp99
S'NOUN'
p100
F1.0
s(lp101
S'commission'
p102
atp103
a(S'outrepasse'
p104
(dp105
S'VERB'
p106
F1.0
s(lp107
S'oversteps'
p108
atp109
a(S'son'
p110
(dp111
S'PRON'
p112
F0.999993
sS'NOUN'
p113
F7e-06
s(lp114
S'its'
p115
atp116
a(S'autorit\xc3\xa9'
p117
(dp118
S'NOUN'
p119
F1.0
s(lp120
S'authority'
p121
atp122
a(g77
(dp123
g79
F1.0
s(lp124
g77
atp125
a(S'le'
p126
(dp127
S'PRON'
p128
F0.000368
sS'DET'
p129
F0.999632
s(lp130
tp131
a(S'parlement'
p132
(dp133
S'NOUN'
p134
F1.0
s(lp135
S'parliament'
p136
atp137
a(S'peut'
p138
(dp139
S'VERB'
p140
F1.0
s(lp141
S'may'
p142
atp143
a(S'adopter'
p144
(dp145
S'VERB'
p146
F1.0
s(lp147
S'adopt'
p148
atp149
a(S'des'
p150
(dp151
S'DET'
p152
F0.000198
sS'ADP'
p153
F0.999802
s(lp154
tp155
a(S'r\xc3\xa9solutions'
p156
(dp157
S'NOUN'
p158
F1.0
s(lp159
S'resolutions'
p160
atp161
a(S'en'
p162
(dp163
S'PRON'
p164
F0.001596
sS'ADP'
p165
F0.998404
s(lp166
tp167
a(S'vue'
p168
(dp169
S'VERB'
p170
F0.001228
sS'NOUN'
p171
F0.998772
s(lp172
tp173
a(S'de'
p174
(dp175
S'ADP'
p176
F1.0
s(lp177
S'to'
p178
atp179
a(S'demander'
p180
(dp181
S'VERB'
p182
F1.0
s(lp183
S'ask'
p184
atp185
a(S'\xc3\xa0'
p186
(dp187
S'ADP'
p188
F1.0
s(lp189
tp190
a(S'la'
p191
(dp192
S'PRON'
p193
F1.2e-05
sS'DET'
p194
F0.999988
sS'NOUN'
p195
F0.0
s(lp196
S'the'
p197
atp198
a(S'commission'
p199
(dp200
S'NOUN'
p201
F1.0
s(lp202
S'commission'
p203
atp204
a(S'de'
p205
(dp206
S'ADP'
p207
F1.0
s(lp208
S'to'
p209
atp210
a(S'modifier'
p211
(dp212
S'VERB'
p213
F1.0
s(lp214
S'change'
p215
atp216
a(S'les'
p217
(dp218
S'PRON'
p219
F3.1e-05
sS'DET'
p220
F0.999948
sS'ADP'
p221
F2.1e-05
s(lp222
S'the'
p223
atp224
a(S'd\xc3\xa9cisions'
p225
(dp226
S'NOUN'
p227
F1.0
s(lp228
S'decisions'
p229
atp230
a(S'en'
p231
(dp232
S'PRON'
p233
F0.000406
sS'ADP'
p234
F0.999594
s(lp235
S'in'
p236
atp237
a(S'question'
p238
(dp239
S'NOUN'
p240
F1.0
s(lp241
S'question'
p242
atp243
a(g79
(dp244
g79
F1.0
s(lp245
g79
atp246
asS'en'
p247
(lp248
(g8
(dp249
S'ADV'
p250
F0.000511
sS'NOUN'
p251
F0.000259
sS'DET'
p252
F0.99923
s(lp253
g8
atp254
a(g14
(dp255
S'VERB'
p256
F0.313773
sS'NOUN'
p257
F0.6862280000000001
s(lp258
g14
atp259
a(g22
(dp260
S'ADV'
p261
F0.000236
sS'DET'
p262
F0.6575139999999999
sS'ADP'
p263
F0.34225
s(lp264
g22
atp265
a(g34
(dp266
S'NOUN'
p267
F1.0
s(lp268
g34
atp269
a(g40
(dp270
S'VERB'
p271
F0.999991
sS'NOUN'
p272
F9e-06
s(lp273
g40
atp274
a(g46
(dp275
S'VERB'
p276
F1.0
s(lp277
g46
atp278
a(g52
(dp279
S'NOUN'
p280
F2e-06
sS'DET'
p281
F0.999998
s(lp282
g52
atp283
a(g69
(dp284
S'VERB'
p285
F0.021502
sS'NOUN'
p286
F0.978498
s(lp287
g69
atp288
a(g58
(dp289
S'NOUN'
p290
F1.0
s(lp291
g58
atp292
a(g75
(dp293
S'CONJ'
p294
F0.999997
sS'NOUN'
p295
F3e-06
s(lp296
g75
atp297
a(g77
(dp298
g79
F1.0
s(lp299
g77
atp300
a(g88
(dp301
S'ADP'
p302
F1.0
s(lp303
g88
atp304
a(g96
(dp305
S'NOUN'
p306
F1e-06
sS'DET'
p307
F0.999999
s(lp308
g96
atp309
a(g102
(dp310
S'VERB'
p311
F1e-06
sS'NOUN'
p312
F0.999999
s(lp313
g102
atp314
a(g108
(dp315
S'VERB'
p316
F1.0
s(lp317
g108
atp318
a(g115
(dp319
S'PRON'
p320
F1.0
s(lp321
g115
atp322
a(g121
(dp323
S'NOUN'
p324
F1.0
s(lp325
g121
atp326
a(g77
(dp327
g79
F1.0
s(lp328
g77
atp329
a(g136
(dp330
S'NOUN'
p331
F1.0
s(lp332
g136
atp333
a(g142
(dp334
S'VERB'
p335
F1.0
sS'NOUN'
p336
F0.0
s(lp337
g142
atp338
a(g148
(dp339
S'VERB'
p340
F1.0
s(lp341
g148
atp342
a(g160
(dp343
S'NOUN'
p344
F1.0
s(lp345
g160
atp346
a(g178
(dp347
S'ADV'
p348
F0.0
sS'PRT'
p349
F1.0
sS'ADP'
p350
F0.0
s(lp351
g178
atp352
a(g184
(dp353
S'VERB'
p354
F1.0
s(lp355
g184
atp356
a(g197
(dp357
S'NOUN'
p358
F1e-06
sS'DET'
p359
F0.999999
s(lp360
g197
atp361
a(g203
(dp362
S'VERB'
p363
F5.4999999999999995e-05
sS'NOUN'
p364
F0.999946
s(lp365
g203
atp366
a(g209
(dp367
S'ADV'
p368
F0.0
sS'PRT'
p369
F1.0
sS'ADP'
p370
F0.0
s(lp371
g209
atp372
a(g215
(dp373
S'VERB'
p374
F0.999433
sS'NOUN'
p375
F0.000567
s(lp376
g215
atp377
a(g223
(dp378
S'NOUN'
p379
F5e-06
sS'DET'
p380
F0.999995
s(lp381
g223
atp382
a(g229
(dp383
S'NOUN'
p384
F1.0
s(lp385
g229
atp386
a(g236
(dp387
S'ADV'
p388
F0.000202
sS'PRT'
p389
F0.000166
sS'ADP'
p390
F0.999632
s(lp391
g236
atp392
a(g242
(dp393
S'VERB'
p394
F0.000445
sS'NOUN'
p395
F0.999555
s(lp396
g242
atp397
a(g79
(dp398
g79
F1.0
s(lp399
g79
atp400
asS'nl'
p401
(lp402
(S'dat'
p403
(dp404
S'PRON'
p405
F0.597317
sS'CONJ'
p406
F0.402683
s(lp407
g8
atp408
a(S'houdt'
p409
(dp410
S'VERB'
p411
F1.0
s(lp412
g14
atp413
a(S'in'
p414
(dp415
S'ADV'
p416
F0.675718
sS'VERB'
p417
F0.0
sS'ADP'
p418
F0.324281
s(lp419
g236
atp420
a(S'dat'
p421
(dp422
S'PRON'
p423
F0.14546800000000001
sS'CONJ'
p424
F0.854531
s(lp425
g22
atp426
a(S'het'
p427
(dp428
S'PRON'
p429
F0.019192999999999998
sS'DET'
p430
F0.980807
s(lp431
tp432
a(S'parlement'
p433
(dp434
S'NOUN'
p435
F1.0
s(lp436
g34
atp437
a(S'de'
p438
(dp439
S'DET'
p440
F1.0
s(lp441
tp442
a(S'mogelijkheid'
p443
(dp444
S'NOUN'
p445
F1.0
s(lp446
g40
atp447
a(S'heeft'
p448
(dp449
S'VERB'
p450
F1.0
s(lp451
tp452
a(S'om'
p453
(dp454
S'ADV'
p455
F0.003976
sS'CONJ'
p456
F0.822505
sS'ADP'
p457
F0.173519
s(lp458
tp459
a(S'de'
p460
(dp461
S'DET'
p462
F1.0
s(lp463
g52
atp464
a(S'financieringsvoorstellen'
p465
(dp466
S'ADJ'
p467
F0.00426
sS'NOUN'
p468
F0.9957400000000001
s(lp469
g69
atp470
a(S'te'
p471
(dp472
S'PRT'
p473
F1.0
s(lp474
tp475
a(S'bestuderen'
p476
(dp477
S'VERB'
p478
F0.9999979999999999
sS'NOUN'
p479
F2e-06
s(lp480
g46
atp481
a(S'en'
p482
(dp483
S'CONJ'
p484
F1.0
s(lp485
g75
atp486
a(S'als'
p487
(dp488
S'CONJ'
p489
F1.0
s(lp490
g88
atp491
a(S'de'
p492
(dp493
S'DET'
p494
F1.0
s(lp495
g96
atp496
a(S'commissie'
p497
(dp498
S'NOUN'
p499
F1.0
s(lp500
g102
atp501
a(S'haar'
p502
(dp503
S'ADV'
p504
F0.000806
sS'PRON'
p505
F0.999192
sS'NOUN'
p506
F2e-06
s(lp507
g115
atp508
a(S'bevoegdheden'
p509
(dp510
S'NOUN'
p511
F1.0
s(lp512
g121
atp513
a(S'overschrijdt'
p514
(dp515
S'VERB'
p516
F1.0
s(lp517
g108
atp518
a(g77
(dp519
g79
F1.0
s(lp520
g77
atp521
a(S'kan'
p522
(dp523
S'VERB'
p524
F0.999998
sS'NOUN'
p525
F2e-06
s(lp526
g142
atp527
a(S'het'
p528
(dp529
S'PRON'
p530
F0.049963
sS'DET'
p531
F0.950037
s(lp532
tp533
a(S'parlement'
p534
(dp535
S'NOUN'
p536
F1.0
s(lp537
g136
atp538
a(S'resoluties'
p539
(dp540
S'NOUN'
p541
F1.0
s(lp542
g160
atp543
a(S'aannemen'
p544
(dp545
S'VERB'
p546
F0.999877
sS'NOUN'
p547
F0.000123
s(lp548
g148
atp549
a(S'om'
p550
(dp551
S'ADV'
p552
F0.000656
sS'CONJ'
p553
F0.873427
sS'ADP'
p554
F0.125917
s(lp555
tp556
a(S'de'
p557
(dp558
S'DET'
p559
F1.0
s(lp560
g197
atp561
a(S'commissie'
p562
(dp563
S'NOUN'
p564
F1.0
s(lp565
g203
atp566
a(S'te'
p567
(dp568
S'PRT'
p569
F1.0
s(lp570
g178
atp571
a(S'verzoeken'
p572
(dp573
S'VERB'
p574
F0.999522
sS'NOUN'
p575
F0.000478
s(lp576
g184
atp577
a(S'de'
p578
(dp579
S'DET'
p580
F1.0
s(lp581
g223
atp582
a(S'betreffende'
p583
(dp584
S'NOUN'
p585
F2e-06
sS'VERB'
p586
F0.000878
sS'ADJ'
p587
F0.804675
sS'ADP'
p588
F0.194445
s(lp589
g242
atp590
a(S'beslissingen'
p591
(dp592
S'NOUN'
p593
F1.0
s(lp594
g229
atp595
a(S'te'
p596
(dp597
S'PRT'
p598
F1.0
s(lp599
g209
atp600
a(S'wijzigen'
p601
(dp602
S'VERB'
p603
F1.0
sS'NOUN'
p604
F0.0
s(lp605
g215
atp606
a(g79
(dp607
g79
F1.0
s(lp608
g79
atp609
asS'de'
p610
(lp611
(S'das'
p612
(dp613
S'PRON'
p614
F0.995436
sS'DET'
p615
F0.004006
s(lp616
g8
atp617
a(S'bedeutet'
p618
(dp619
S'VERB'
p620
F0.987032
s(lp621
g14
atp622
a(g77
(dp623
g79
F1.0
s(lp624
tp625
a(S'dass'
p626
(dp627
S'CONJ'
p628
F1.0
s(lp629
g22
atp630
a(S'das'
p631
(dp632
S'PRON'
p633
F0.089461
sS'DET'
p634
F0.910118
s(lp635
tp636
a(S'parlament'
p637
(dp638
S'ADJ'
p639
F0.09151
sS'NOUN'
p640
F0.900751
s(lp641
g34
atp642
a(S'diese'
p643
(dp644
S'PRON'
p645
F1.0
s(lp646
g52
atp647
a(S'finanzierungsvorschl\xc3\xa4ge'
p648
(dp649
S'ADJ'
p650
F0.037383
sS'NOUN'
p651
F0.957052
s(lp652
g69
atp653
a(S'pr\xc3\xbcfen'
p654
(dp655
S'VERB'
p656
F1.0
s(lp657
g46
atp658
a(S'kann'
p659
(dp660
S'VERB'
p661
F1.0
s(lp662
g40
atp663
a(g77
(dp664
g79
F1.0
s(lp665
g77
atp666
a(S'und'
p667
(dp668
S'CONJ'
p669
F1.0
s(lp670
g75
atp671
a(S'falls'
p672
(dp673
S'CONJ'
p674
F1.0
s(lp675
g88
atp676
a(S'die'
p677
(dp678
S'PRON'
p679
F0.002303
sS'DET'
p680
F0.997383
s(lp681
g96
atp682
a(S'kommission'
p683
(dp684
S'ADJ'
p685
F0.032904
sS'NOUN'
p686
F0.951584
s(lp687
g102
atp688
a(S'ihre'
p689
(dp690
S'PRON'
p691
F1.0
s(lp692
g115
atp693
a(S'befugnisse'
p694
(dp695
S'ADJ'
p696
F8.6e-05
sS'NOUN'
p697
F0.999877
s(lp698
g121
atp699
a(S'\xc3\xbcberschreitet'
p700
(dp701
S'VERB'
p702
F1.0
s(lp703
g108
atp704
a(g77
(dp705
g79
F1.0
s(lp706
g77
atp707
a(S'kann'
p708
(dp709
S'VERB'
p710
F1.0
s(lp711
g142
atp712
a(S'das'
p713
(dp714
S'PRON'
p715
F0.037864
sS'DET'
p716
F0.962128
s(lp717
tp718
a(S'parlament'
p719
(dp720
S'NOUN'
p721
F0.030241
sS'ADJ'
p722
F0.968551
s(lp723
g136
atp724
a(S'entschlie\xc3\x9fungen'
p725
(dp726
S'ADJ'
p727
F0.000513
sS'NOUN'
p728
F0.999464
s(lp729
g160
atp730
a(S'annehmen'
p731
(dp732
S'VERB'
p733
F1.0
s(lp734
g148
atp735
a(g77
(dp736
g79
F1.0
s(lp737
tp738
a(S'die'
p739
(dp740
S'PRON'
p741
F0.997392
s(lp742
g178
atp743
a(S'die'
p744
(dp745
S'PRON'
p746
F0.003029
sS'DET'
p747
F0.995543
s(lp748
g197
atp749
a(S'kommission'
p750
(dp751
S'ADJ'
p752
F0.045498
sS'NOUN'
p753
F0.940748
s(lp754
g203
atp755
a(S'auffordern'
p756
(dp757
S'VERB'
p758
F1.0
s(lp759
g184
atp760
a(g77
(dp761
g79
F1.0
s(lp762
tp763
a(S'die'
p764
(dp765
S'PRON'
p766
F0.115798
sS'DET'
p767
F0.879385
s(lp768
g223
atp769
a(S'fraglichen'
p770
(dp771
S'ADJ'
p772
F1.0
s(lp773
g242
atp774
a(S'entscheidungen'
p775
(dp776
S'ADJ'
p777
F1.9e-05
sS'NOUN'
p778
F0.999978
s(lp779
g229
atp780
a(S'zu'
p781
(dp782
S'PRT'
p783
F0.999975
s(lp784
g209
atp785
a(S'\xc3\xa4ndern'
p786
(dp787
S'VERB'
p788
F1.0
s(lp789
g215
atp790
a(g79
(dp791
g79
F1.0
s(lp792
g79
atp793
asS'it'
p794
(lp795
(S'ci\xc3\xb2'
p796
(dp797
S'PRON'
p798
F1.0
s(lp799
g8
atp800
a(S'significa'
p801
(dp802
S'VERB'
p803
F1.0
s(lp804
g14
atp805
a(S'che'
p806
(dp807
S'PRON'
p808
F0.984422
sS'CONJ'
p809
F0.014928
sS'ADJ'
p810
F0.00065
s(lp811
g22
atp812
a(S'il'
p813
(dp814
S'DET'
p815
F1.0
s(lp816
tp817
a(S'parlamento'
p818
(dp819
S'VERB'
p820
F3.7e-05
sS'NOUN'
p821
F0.999963
s(lp822
g34
atp823
a(S'ha'
p824
(dp825
S'VERB'
p826
F1.0
s(lp827
tp828
a(S'la'
p829
(dp830
S'PRON'
p831
F0.0
sS'DET'
p832
F1.0
s(lp833
tp834
a(S'facolt\xc3\xa0'
p835
(dp836
S'NOUN'
p837
F1.0
s(lp838
g40
atp839
a(S'di'
p840
(dp841
S'CONJ'
p842
F6e-06
sS'ADP'
p843
F0.999994
s(lp844
tp845
a(S'esaminare'
p846
(dp847
S'VERB'
p848
F1.0
s(lp849
g46
atp850
a(S'queste'
p851
(dp852
S'PRON'
p853
F1.0
s(lp854
g52
atp855
a(S'proposte'
p856
(dp857
S'VERB'
p858
F0.089894
sS'NOUN'
p859
F0.910106
s(lp860
g58
atp861
a(S'di'
p862
(dp863
S'CONJ'
p864
F3e-06
sS'ADP'
p865
F0.999997
s(lp866
tp867
a(S'finanziamento'
p868
(dp869
S'NOUN'
p870
F1.0
s(lp871
g69
atp872
a(S'e'
p873
(dp874
S'CONJ'
p875
F1.0
s(lp876
g75
atp877
a(g77
(dp878
g79
F1.0
s(lp879
g77
atp880
a(S'nel'
p881
(dp882
S'ADP'
p883
F1.0
s(lp884
tp885
a(S'caso'
p886
(dp887
S'NOUN'
p888
F1.0
s(lp889
g88
atp890
a(S'in'
p891
(dp892
S'ADP'
p893
F1.0
s(lp894
tp895
a(S'cui'
p896
(dp897
S'PRON'
p898
F1.0
s(lp899
tp900
a(S'la'
p901
(dp902
S'PRON'
p903
F0.001031
sS'DET'
p904
F0.998969
s(lp905
g96
atp906
a(S'commissione'
p907
(dp908
S'NOUN'
p909
F1.0
s(lp910
g102
atp911
a(S'oltrepassi'
p912
(dp913
S'VERB'
p914
F0.9999999999999999
s(lp915
g108
atp916
a(S'le'
p917
(dp918
S'PRON'
p919
F9e-06
sS'DET'
p920
F0.999991
s(lp921
tp922
a(S'proprie'
p923
(dp924
S'ADJ'
p925
F1.0
s(lp926
g115
atp927
a(S'competenze'
p928
(dp929
S'NOUN'
p930
F1.0
s(lp931
g121
atp932
a(g77
(dp933
g79
F1.0
s(lp934
g77
atp935
a(S'il'
p936
(dp937
S'DET'
p938
F1.0
s(lp939
tp940
a(S'parlamento'
p941
(dp942
S'VERB'
p943
F3.7e-05
sS'NOUN'
p944
F0.999963
s(lp945
g136
atp946
a(S'pu\xc3\xb2'
p947
(dp948
S'VERB'
p949
F1.0
s(lp950
g142
atp951
a(S'adottare'
p952
(dp953
S'VERB'
p954
F1.0
s(lp955
g148
atp956
a(S'delle'
p957
(dp958
S'DEF'
p959
F0.021539
sS'ADP'
p960
F0.978461
s(lp961
tp962
a(S'risoluzioni'
p963
(dp964
S'NOUN'
p965
F1.0
s(lp966
g160
atp967
a(S'al'
p968
(dp969
S'ADP'
p970
F1.0
s(lp971
g178
atp972
a(S'fine'
p973
(dp974
S'ADJ'
p975
F0.01644
sS'NOUN'
p976
F0.98356
s(lp977
g178
atp978
a(S'di'
p979
(dp980
S'CONJ'
p981
F6e-06
sS'ADP'
p982
F0.999994
s(lp983
tp984
a(S'chiedere'
p985
(dp986
S'VERB'
p987
F1.0
s(lp988
g184
atp989
a(S'alla'
p990
(dp991
S'ADP'
p992
F1.0
s(lp993
g178
atp994
a(S'commissione'
p995
(dp996
S'NOUN'
p997
F1.0
s(lp998
g203
atp999
a(S'di'
p1000
(dp1001
S'CONJ'
p1002
F6e-06
sS'ADP'
p1003
F0.999994
s(lp1004
g209
atp1005
a(S'cambiare'
p1006
(dp1007
S'VERB'
p1008
F1.0
s(lp1009
g215
atp1010
a(S'le'
p1011
(dp1012
S'PRON'
p1013
F0.0
sS'DET'
p1014
F1.0
s(lp1015
g223
atp1016
a(S'decisioni'
p1017
(dp1018
S'NOUN'
p1019
F1.0
s(lp1020
g229
atp1021
a(S'in'
p1022
(dp1023
S'ADP'
p1024
F1.0
s(lp1025
g236
atp1026
a(S'questione'
p1027
(dp1028
S'NOUN'
p1029
F1.0
s(lp1030
g242
atp1031
a(g79
(dp1032
g79
F1.0
s(lp1033
g79
atp1034
asS'sk'
p1035
(lp1036
(S'to'
p1037
(dp1038
S'PRON'
p1039
F0.966282
sS'CONJ'
p1040
F0.00731
sS'X'
p1041
F0.026409
s(lp1042
g8
atp1043
a(S'znamen\xc3\xa1'
p1044
(dp1045
g1041
F0.00103
sS'VERB'
p1046
F0.99897
s(lp1047
g14
atp1048
a(g77
(dp1049
g79
F1.0
s(lp1050
tp1051
a(S'\xc5\xbee'
p1052
(dp1053
g1041
F0.00032700000000000003
sS'CONJ'
p1054
F0.999673
s(lp1055
g22
atp1056
a(S'parlament'
p1057
(dp1058
S'NOUN'
p1059
F1.0
s(lp1060
g34
atp1061
a(S'm\xc3\xb4\xc5\xbee'
p1062
(dp1063
S'VERB'
p1064
F1.0
s(lp1065
g40
atp1066
a(S'presk\xc3\xbama\xc5\xa5'
p1067
(dp1068
S'VERB'
p1069
F1.0
s(lp1070
g46
atp1071
a(S'tieto'
p1072
(dp1073
S'PRON'
p1074
F1.0
s(lp1075
g52
atp1076
a(S'n\xc3\xa1vrhy'
p1077
(dp1078
S'NOUN'
p1079
F1.0
s(lp1080
g58
atp1081
a(S'na'
p1082
(dp1083
g1041
F2.2e-05
sS'CONJ'
p1084
F1.8e-05
sS'ADP'
p1085
F0.999956
sS'PRT'
p1086
F4e-06
s(lp1087
g178
atp1088
a(S'financovanie'
p1089
(dp1090
S'NOUN'
p1091
F1.0
s(lp1092
g69
atp1093
a(S'a'
p1094
(dp1095
g1041
F0.004702
sS'CONJ'
p1096
F0.994917
sS'NOUN'
p1097
F0.00022700000000000002
sS'ADP'
p1098
F1e-06
sS'PRT'
p1099
F0.000154
s(lp1100
g75
atp1101
a(S'v'
p1102
(dp1103
g1041
F0.0005889999999999999
sS'ADP'
p1104
F0.999411
s(lp1105
g77
atp1106
a(S'pr\xc3\xadpade'
p1107
(dp1108
S'NOUN'
p1109
F1.0
s(lp1110
g88
atp1111
a(g77
(dp1112
g79
F1.0
s(lp1113
tp1114
a(S'\xc5\xbee'
p1115
(dp1116
g1041
F0.00032700000000000003
sS'CONJ'
p1117
F0.999673
s(lp1118
g96
atp1119
a(S'komisia'
p1120
(dp1121
S'NOUN'
p1122
F1.0
s(lp1123
g102
atp1124
a(S'prekro\xc4\x8d\xc3\xad'
p1125
(dp1126
S'VERB'
p1127
F1.0
s(lp1128
g108
atp1129
a(S'svoje'
p1130
(dp1131
S'PRON'
p1132
F1.0
s(lp1133
g115
atp1134
a(S'pr\xc3\xa1vomoci'
p1135
(dp1136
S'NOUN'
p1137
F1.0
s(lp1138
g121
atp1139
a(g77
(dp1140
g79
F1.0
s(lp1141
g77
atp1142
a(S'parlament'
p1143
(dp1144
S'NOUN'
p1145
F1.0
s(lp1146
g136
atp1147
a(S'm\xc3\xb4\xc5\xbee'
p1148
(dp1149
S'VERB'
p1150
F1.0
s(lp1151
g142
atp1152
a(S'prija\xc5\xa5'
p1153
(dp1154
S'VERB'
p1155
F1.0
s(lp1156
g148
atp1157
a(S'uznesenia'
p1158
(dp1159
S'NOUN'
p1160
F1.0
s(lp1161
g160
atp1162
a(g77
(dp1163
g79
F1.0
s(lp1164
tp1165
a(g1102
(dp1166
g1041
F0.00011200000000000001
sS'ADP'
p1167
F0.999889
s(lp1168
g236
atp1169
a(S'ktor\xc3\xbdch'
p1170
(dp1171
S'PRON'
p1172
F1.0
s(lp1173
g108
atp1174
a(S'komisiu'
p1175
(dp1176
S'NOUN'
p1177
F1.0
s(lp1178
g203
atp1179
a(S'po\xc5\xbeiada'
p1180
(dp1181
S'VERB'
p1182
F1.0
s(lp1183
tp1184
a(S'o'
p1185
(dp1186
g1041
F0.000917
sS'CONJ'
p1187
F1.4e-05
sS'NOUN'
p1188
F1.4e-05
sS'ADP'
p1189
F0.999055
s(lp1190
g209
atp1191
a(S'zmenu'
p1192
(dp1193
S'NOUN'
p1194
F1.0
s(lp1195
g215
atp1196
a(S'sporn\xc3\xbdch'
p1197
(dp1198
S'ADJ'
p1199
F1.0
s(lp1200
g108
atp1201
a(S'rozhodnut\xc3\xad'
p1202
(dp1203
S'VERB'
p1204
F0.005378
sS'NOUN'
p1205
F0.994621
s(lp1206
g229
atp1207
a(g79
(dp1208
g79
F1.0
s(lp1209
g79
atp1210
asS'pl'
p1211
(lp1212
(S'oznacza'
p1213
(dp1214
S'VERB'
p1215
F1.0
s(lp1216
g14
atp1217
a(S'to'
p1218
(dp1219
S'NOUN'
p1220
F0.7805820000000001
sS'ADP'
p1221
F1.4e-05
sS'PRT'
p1222
F0.071432
sg1041
F2e-06
sS'CONJ'
p1223
F0.011364
sS'ADJ'
p1224
F0.136606
s(lp1225
g8
atp1226
a(g77
(dp1227
g1041
F0.0
sg79
F1.0
s(lp1228
tp1229
a(S'\xc5\xbce'
p1230
(dp1231
S'PRT'
p1232
F0.000143
sS'CONJ'
p1233
F0.999856
s(lp1234
g22
atp1235
a(S'parlament'
p1236
(dp1237
S'NOUN'
p1238
F1.0
s(lp1239
g34
atp1240
a(S'mo\xc5\xbce'
p1241
(dp1242
S'PRT'
p1243
F0.028934
sS'VERB'
p1244
F0.971066
s(lp1245
g40
atp1246
a(S'bada\xc4\x87'
p1247
(dp1248
S'VERB'
p1249
F1.0
s(lp1250
g46
atp1251
a(S'owe'
p1252
(dp1253
S'ADJ'
p1254
F0.9999999999999999
s(lp1255
g108
atp1256
a(S'projekty'
p1257
(dp1258
S'NOUN'
p1259
F1.0
s(lp1260
g108
atp1261
a(S'dotycz\xc4\x85ce'
p1262
(dp1263
S'VERB'
p1264
F1.000001
s(lp1265
g108
atp1266
a(S'finansowania'
p1267
(dp1268
S'VERB'
p1269
F1.0
s(lp1270
g69
atp1271
a(S'i'
p1272
(dp1273
S'PRT'
p1274
F0.00835
sS'CONJ'
p1275
F0.991617
sS'NOUN'
p1276
F1.1e-05
sg1041
F3e-06
sS'PRON'
p1277
F1.9e-05
s(lp1278
g75
atp1279
a(S'je\xc5\x9bli'
p1280
(dp1281
S'CONJ'
p1282
F1.0
s(lp1283
g88
atp1284
a(S'komisja'
p1285
(dp1286
S'NOUN'
p1287
F1.0
s(lp1288
g102
atp1289
a(S'przekroczy'
p1290
(dp1291
S'VERB'
p1292
F1.0
s(lp1293
g108
atp1294
a(S'swoje'
p1295
(dp1296
S'NOUN'
p1297
F0.003762
sS'ADJ'
p1298
F0.9962390000000001
s(lp1299
g115
atp1300
a(S'uprawnienia'
p1301
(dp1302
S'NOUN'
p1303
F1.0
s(lp1304
g121
atp1305
a(g77
(dp1306
g1041
F0.0
sg79
F1.0
s(lp1307
g77
atp1308
a(S'to'
p1309
(dp1310
S'NOUN'
p1311
F0.157227
sS'ADP'
p1312
F3e-06
sS'PRT'
p1313
F0.052694
sg1041
F5.5e-05
sS'CONJ'
p1314
F0.316789
sS'ADJ'
p1315
F0.473232
s(lp1316
g52
atp1317
a(S'parlament'
p1318
(dp1319
S'NOUN'
p1320
F1.0
s(lp1321
g136
atp1322
a(S'mo\xc5\xbce'
p1323
(dp1324
S'PRT'
p1325
F0.031775
sS'VERB'
p1326
F0.968225
s(lp1327
g142
atp1328
a(g77
(dp1329
g1041
F0.0
sg79
F1.0
s(lp1330
tp1331
a(S'przyjmuj\xc4\x85c'
p1332
(dp1333
S'VERB'
p1334
F1.0
s(lp1335
g108
atp1336
a(S'stosowne'
p1337
(dp1338
S'ADJ'
p1339
F1.0
s(lp1340
tp1341
a(S'rezolucje'
p1342
(dp1343
S'ADV'
p1344
F0.000109
sS'ADJ'
p1345
F0.00010899999999999999
sS'VERB'
p1346
F0.025847
sS'NOUN'
p1347
F0.9739349999999997
s(lp1348
g160
atp1349
a(g77
(dp1350
g1041
F0.0
sg79
F1.0
s(lp1351
tp1352
a(S'zwr\xc3\xb3ci\xc4\x87'
p1353
(dp1354
S'VERB'
p1355
F1.0
s(lp1356
tp1357
a(S'si\xc4\x99'
p1358
(dp1359
S'PRT'
p1360
F1.0
s(lp1361
g184
atp1362
a(S'do'
p1363
(dp1364
g1041
F0.0
sS'NOUN'
p1365
F6e-06
sS'ADP'
p1366
F0.9999939999999999
s(lp1367
g197
atp1368
a(S'komisji'
p1369
(dp1370
S'NOUN'
p1371
F1.000001
s(lp1372
g203
atp1373
a(g1185
(dp1374
g1041
F0.000208
sS'VERB'
p1375
F2.2e-05
sS'NOUN'
p1376
F0.0
sS'ADP'
p1377
F0.9997670000000001
sS'PRT'
p1378
F1e-06
s(lp1379
g209
atp1380
a(S'zmian\xc4\x99'
p1381
(dp1382
S'NOUN'
p1383
F1.0
s(lp1384
g215
atp1385
a(S'przedmiotowych'
p1386
(dp1387
S'ADV'
p1388
F5e-06
sS'NOUN'
p1389
F0.005768
sS'VERB'
p1390
F0.003155
sS'ADJ'
p1391
F0.9910709999999999
s(lp1392
g108
atp1393
a(S'decyzji'
p1394
(dp1395
S'NOUN'
p1396
F1.0
s(lp1397
g229
atp1398
a(g79
(dp1399
g79
F1.0
s(lp1400
g79
atp1401
asS'sl'
p1402
(lp1403
(S'to'
p1404
(dp1405
S'PRON'
p1406
F0.999988
sg1041
F1.2e-05
s(lp1407
g8
atp1408
a(S'pomeni'
p1409
(dp1410
S'VERB'
p1411
F0.999792
sS'NOUN'
p1412
F0.000209
s(lp1413
g14
atp1414
a(g77
(dp1415
g79
F1.0
s(lp1416
tp1417
a(S'da'
p1418
(dp1419
S'PRT'
p1420
F0.000271
sS'CONJ'
p1421
F0.999227
sS'VERB'
p1422
F0.0005
sg1041
F2e-06
s(lp1423
g22
atp1424
a(S'lahko'
p1425
(dp1426
S'ADV'
p1427
F0.994167
sS'ADJ'
p1428
F0.005833
s(lp1429
g40
atp1430
a(S'parlament'
p1431
(dp1432
S'NOUN'
p1433
F1.0
s(lp1434
g34
atp1435
a(S'preu\xc4\x8di'
p1436
(dp1437
S'ADV'
p1438
F0.001157
sS'ADJ'
p1439
F0.002516
sS'VERB'
p1440
F0.9858350000000001
sS'NOUN'
p1441
F0.01049
s(lp1442
g46
atp1443
a(S'predloge'
p1444
(dp1445
S'NOUN'
p1446
F1.000001
s(lp1447
g58
atp1448
a(S'za'
p1449
(dp1450
S'ADV'
p1451
F6e-06
sg1041
F1e-06
sS'ADP'
p1452
F0.9999939999999999
s(lp1453
g52
atp1454
a(S'financiranje'
p1455
(dp1456
S'NOUN'
p1457
F1.0
s(lp1458
g69
atp1459
a(S'in'
p1460
(dp1461
S'ADV'
p1462
F0.000127
sg1041
F3e-06
sS'CONJ'
p1463
F0.999863
sS'NOUN'
p1464
F7e-06
s(lp1465
g75
atp1466
a(S'lahko'
p1467
(dp1468
S'ADV'
p1469
F0.996362
sS'ADJ'
p1470
F0.003639
s(lp1471
g142
atp1472
a(g77
(dp1473
g79
F1.0
s(lp1474
g77
atp1475
a(S'\xc4\x8de'
p1476
(dp1477
S'CONJ'
p1478
F1.0
s(lp1479
g88
atp1480
a(S'komisija'
p1481
(dp1482
S'NOUN'
p1483
F1.0
s(lp1484
g102
atp1485
a(S'prekora\xc4\x8di'
p1486
(dp1487
S'ADV'
p1488
F0.001402
sS'ADJ'
p1489
F0.011252000000000002
sS'VERB'
p1490
F0.9044110000000002
sS'NOUN'
p1491
F0.08293700000000001
s(lp1492
g108
atp1493
a(S'svoja'
p1494
(dp1495
S'PRON'
p1496
F1.0
s(lp1497
g115
atp1498
a(S'pooblastila'
p1499
(dp1500
S'VERB'
p1501
F0.000264
sS'NOUN'
p1502
F0.999736
s(lp1503
g121
atp1504
a(g77
(dp1505
g79
F1.0
s(lp1506
g77
atp1507
a(S'sprejme'
p1508
(dp1509
S'VERB'
p1510
F1.0
s(lp1511
g148
atp1512
a(S'resolucije'
p1513
(dp1514
S'NOUN'
p1515
F1.0
s(lp1516
g160
atp1517
a(S'z'
p1518
(dp1519
S'ADP'
p1520
F1.0
s(lp1521
g178
atp1522
a(S'zahtevo'
p1523
(dp1524
S'NOUN'
p1525
F1.0
s(lp1526
g184
atp1527
a(S'komisiji'
p1528
(dp1529
S'NOUN'
p1530
F1.0
s(lp1531
g203
atp1532
a(g77
(dp1533
g79
F1.0
s(lp1534
tp1535
a(S'da'
p1536
(dp1537
S'PRT'
p1538
F0.00034
sS'CONJ'
p1539
F0.999605
sS'VERB'
p1540
F5.4e-05
sg1041
F2e-06
s(lp1541
g209
atp1542
a(S'spremeni'
p1543
(dp1544
S'VERB'
p1545
F1.0
s(lp1546
g215
atp1547
a(S'zadevne'
p1548
(dp1549
S'ADV'
p1550
F2.7e-05
sS'NOUN'
p1551
F0.0019799999999999996
sS'VERB'
p1552
F0.000134
sS'ADJ'
p1553
F0.997858
s(lp1554
g242
atp1555
a(S'odlo\xc4\x8ditve'
p1556
(dp1557
S'NOUN'
p1558
F1.0
s(lp1559
g229
atp1560
a(g79
(dp1561
g79
F1.0
s(lp1562
g79
atp1563
asS'es'
p1564
(lp1565
(S'esto'
p1566
(dp1567
S'PRON'
p1568
F1.0
s(lp1569
g8
atp1570
a(S'significa'
p1571
(dp1572
S'VERB'
p1573
F1.0
s(lp1574
g14
atp1575
a(S'que'
p1576
(dp1577
g1041
F0.0
sS'CONJ'
p1578
F1.0
s(lp1579
g22
atp1580
a(S'el'
p1581
(dp1582
S'PRON'
p1583
F4.5e-05
sS'DET'
p1584
F0.999955
s(lp1585
tp1586
a(S'parlamento'
p1587
(dp1588
S'VERB'
p1589
F6e-06
sS'NOUN'
p1590
F0.999994
s(lp1591
g34
atp1592
a(S'puede'
p1593
(dp1594
S'VERB'
p1595
F1.0
s(lp1596
g40
atp1597
a(S'examinar'
p1598
(dp1599
S'VERB'
p1600
F1.0
s(lp1601
g46
atp1602
a(S'estas'
p1603
(dp1604
S'PRON'
p1605
F1.0
s(lp1606
g52
atp1607
a(S'propuestas'
p1608
(dp1609
S'VERB'
p1610
F0.000256
sS'NOUN'
p1611
F0.999744
s(lp1612
g58
atp1613
a(S'de'
p1614
(dp1615
g1041
F2.9e-05
sS'CONJ'
p1616
F0.000449
sS'ADP'
p1617
F0.999522
s(lp1618
tp1619
a(S'financiaci\xc3\xb3n'
p1620
(dp1621
S'NOUN'
p1622
F1.0
s(lp1623
g69
atp1624
a(S'y'
p1625
(dp1626
g1041
F0.00897
sS'CONJ'
p1627
F0.99103
s(lp1628
g75
atp1629
a(g77
(dp1630
g79
F1.0
s(lp1631
g77
atp1632
a(S'si'
p1633
(dp1634
S'CONJ'
p1635
F0.999979
sS'NOUN'
p1636
F2.1e-05
s(lp1637
g88
atp1638
a(S'la'
p1639
(dp1640
S'PRON'
p1641
F0.000111
sS'DET'
p1642
F0.999888
sg1041
F0.0
sS'NOUN'
p1643
F0.0
s(lp1644
g96
atp1645
a(S'comisi\xc3\xb3n'
p1646
(dp1647
S'NOUN'
p1648
F1.0
s(lp1649
g102
atp1650
a(S'se'
p1651
(dp1652
S'PRON'
p1653
F1.0
sS'VERB'
p1654
F0.0
s(lp1655
g242
atp1656
a(S'excede'
p1657
(dp1658
S'VERB'
p1659
F1.0
s(lp1660
tp1661
a(S'en'
p1662
(dp1663
g1041
F0.0
sS'CONJ'
p1664
F1e-06
sS'ADP'
p1665
F0.999999
s(lp1666
g236
atp1667
a(S'los'
p1668
(dp1669
S'PRON'
p1670
F0.0
sS'DET'
p1671
F1.0
s(lp1672
tp1673
a(S'l\xc3\xadmites'
p1674
(dp1675
S'NOUN'
p1676
F1.0
s(lp1677
g108
atp1678
a(S'de'
p1679
(dp1680
g1041
F0.0
sS'CONJ'
p1681
F0.000289
sS'ADP'
p1682
F0.999711
s(lp1683
tp1684
a(S'su'
p1685
(dp1686
S'PRON'
p1687
F1.0
s(lp1688
g115
atp1689
a(S'autoridad'
p1690
(dp1691
S'NOUN'
p1692
F1.0
s(lp1693
g121
atp1694
a(g77
(dp1695
g79
F1.0
s(lp1696
g77
atp1697
a(S'el'
p1698
(dp1699
S'PRON'
p1700
F1.1e-05
sS'DET'
p1701
F0.999989
s(lp1702
tp1703
a(S'parlamento'
p1704
(dp1705
S'VERB'
p1706
F2e-06
sS'NOUN'
p1707
F0.999998
s(lp1708
g136
atp1709
a(S'puede'
p1710
(dp1711
S'VERB'
p1712
F1.0
s(lp1713
g142
atp1714
a(S'aprobar'
p1715
(dp1716
S'VERB'
p1717
F1.0
s(lp1718
g148
atp1719
a(S'resoluciones'
p1720
(dp1721
S'NOUN'
p1722
F1.0
s(lp1723
g160
atp1724
a(S'para'
p1725
(dp1726
S'CONJ'
p1727
F0.952807
sS'ADP'
p1728
F0.047193
s(lp1729
g178
atp1730
a(S'solicitar'
p1731
(dp1732
S'VERB'
p1733
F1.0
s(lp1734
tp1735
a(g1094
(dp1736
g1041
F0.000259
sS'CONJ'
p1737
F5e-06
sS'ADP'
p1738
F0.999736
s(lp1739
g184
atp1740
a(S'la'
p1741
(dp1742
g1041
F1e-06
sS'PRON'
p1743
F0.0
sS'DET'
p1744
F0.999999
sS'NOUN'
p1745
F0.0
s(lp1746
g197
atp1747
a(S'comisi\xc3\xb3n'
p1748
(dp1749
S'NOUN'
p1750
F1.0
s(lp1751
g203
atp1752
a(S'que'
p1753
(dp1754
g1041
F3e-06
sS'CONJ'
p1755
F0.999997
s(lp1756
g209
atp1757
a(S'cambie'
p1758
(dp1759
S'VERB'
p1760
F1.0
s(lp1761
g215
atp1762
a(S'las'
p1763
(dp1764
S'PRON'
p1765
F0.0
sS'DET'
p1766
F1.0
s(lp1767
g223
atp1768
a(S'decisiones'
p1769
(dp1770
S'NOUN'
p1771
F1.0
s(lp1772
tp1773
a(S'pertinentes'
p1774
(dp1775
S'ADJ'
p1776
F1.0
s(lp1777
g229
atp1778
a(g79
(dp1779
g79
F1.0
s(lp1780
g79
atp1781
as.