(dp0
S'fr'
p1
(lp2
(S'il'
p3
(dp4
S'PRON'
p5
F1.0
s(lp6
S'it'
p7
atp8
a(S'est'
p9
(dp10
S'VERB'
p11
F0.999978
sS'NOUN'
p12
F2.2e-05
s(lp13
S'is'
p14
atp15
a(S'regrettable'
p16
(dp17
S'ADJ'
p18
F1.0
s(lp19
S'pity'
p20
atp21
a(S'que'
p22
(dp23
S'ADV'
p24
F0.002859
sS'PRON'
p25
F0.079209
sS'CONJ'
p26
F0.917932
s(lp27
S'that'
p28
atp29
a(S'le'
p30
(dp31
S'PRON'
p32
F0.000647
sS'DET'
p33
F0.999353
s(lp34
S'the'
p35
atp36
a(S'ministre'
p37
(dp38
S'NOUN'
p39
F1.0
s(lp40
S'minister'
p41
atp42
a(S'doive'
p43
(dp44
S'VERB'
p45
F1.0
s(lp46
S'had'
p47
atp48
a(S'nous'
p49
(dp50
S'PRON'
p51
F1.0
s(lp52
S'to'
p53
atp54
a(S'quitter'
p55
(dp56
S'VERB'
p57
F1.0
s(lp58
S'leave'
p59
atp60
a(S','
p61
(dp62
S'.'
p63
F1.0
s(lp64
tp65
a(S'car'
p66
(dp67
S'CONJ'
p68
F0.862507
sS'NOUN'
p69
F0.137493
s(lp70
S'as'
p71
atp72
a(S"j'"
p73
(dp74
S'NOUN'
p75
F0.481482
sS'VERB'
p76
F0.029734999999999998
sS'ADJ'
p77
F0.485943
sS'X'
p78
F0.002839
s(lp79
S'i'
p80
atp81
a(S'avais'
p82
(dp83
S'VERB'
p84
F1.0
s(lp85
S'had'
p86
atp87
a(S'une'
p88
(dp89
S'NOUN'
p90
F1.2e-05
sS'NUM'
p91
F0.003908
sS'DET'
p92
F0.996081
s(lp93
S'a'
p94
atp95
a(S'question'
p96
(dp97
S'NOUN'
p98
F1.0
s(lp99
S'question'
p100
atp101
a(S'\xc3\xa0'
p102
(dp103
S'ADP'
p104
F1.0
s(lp105
S'for'
p106
atp107
a(S'lui'
p108
(dp109
S'PRON'
p110
F1.0
sS'VERB'
p111
F0.0
s(lp112
tp113
a(S'adresser'
p114
(dp115
S'VERB'
p116
F1.0
s(lp117
S'him'
p118
atp119
a(g63
(dp120
g63
F1.0
s(lp121
g63
atp122
asS'en'
p123
(lp124
(g7
(dp125
S'PRON'
p126
F1.0
s(lp127
g7
atp128
a(g14
(dp129
S'VERB'
p130
F1.0
s(lp131
g14
atp132
a(g94
(dp133
S'NOUN'
p134
F0.0
sS'DET'
p135
F1.0
s(lp136
g94
atp137
a(g20
(dp138
S'VERB'
p139
F0.011557999999999999
sS'NOUN'
p140
F0.988442
s(lp141
g20
atp142
a(g28
(dp143
S'ADV'
p144
F0.000561
sS'DET'
p145
F0.112676
sS'ADP'
p146
F0.886762
s(lp147
g28
atp148
a(g35
(dp149
S'NOUN'
p150
F2e-06
sS'DET'
p151
F0.999998
s(lp152
g35
atp153
a(g41
(dp154
S'VERB'
p155
F1.5e-05
sS'NOUN'
p156
F0.999985
s(lp157
g41
atp158
a(g47
(dp159
S'VERB'
p160
F1.0
s(lp161
g47
atp162
a(g53
(dp163
S'ADV'
p164
F0.0
sS'PRT'
p165
F1.0
sS'ADP'
p166
F0.0
s(lp167
g53
atp168
a(g59
(dp169
S'VERB'
p170
F0.997327
sS'NOUN'
p171
F0.002673
s(lp172
g59
atp173
a(g71
(dp174
S'ADV'
p175
F0.070234
sS'ADP'
p176
F0.929766
s(lp177
g71
atp178
a(g80
(dp179
g78
F0.000381
sS'NOUN'
p180
F0.999619
s(lp181
g80
atp182
a(g86
(dp183
S'VERB'
p184
F1.0
s(lp185
g86
atp186
a(g94
(dp187
S'NOUN'
p188
F0.0
sS'DET'
p189
F1.0
s(lp190
g94
atp191
a(g100
(dp192
S'VERB'
p193
F0.001416
sS'NOUN'
p194
F0.998585
s(lp195
g100
atp196
a(g106
(dp197
S'ADP'
p198
F1.0
s(lp199
g106
atp200
a(g118
(dp201
S'PRON'
p202
F1.0
s(lp203
g118
atp204
a(g63
(dp205
g63
F1.0
s(lp206
g63
atp207
asS'nl'
p208
(lp209
(S'het'
p210
(dp211
S'PRON'
p212
F0.962086
sS'DET'
p213
F0.037914
s(lp214
g7
atp215
a(S'is'
p216
(dp217
S'VERB'
p218
F1.0
s(lp219
g14
atp220
a(S'jammer'
p221
(dp222
S'VERB'
p223
F0.021698
sS'ADJ'
p224
F0.978302
s(lp225
g20
atp226
a(S'dat'
p227
(dp228
S'PRON'
p229
F0.0014340000000000002
sS'CONJ'
p230
F0.998566
s(lp231
g28
atp232
a(S'de'
p233
(dp234
S'DET'
p235
F1.0
s(lp236
g35
atp237
a(S'minister'
p238
(dp239
S'NOUN'
p240
F1.0
s(lp241
g41
atp242
a(S'niet'
p243
(dp244
S'ADV'
p245
F1.0
sS'PRON'
p246
F0.0
sS'VERB'
p247
F0.0
sg78
F0.0
s(lp248
tp249
a(S'kon'
p250
(dp251
S'VERB'
p252
F1.0
s(lp253
g47
atp254
a(S'blijven'
p255
(dp256
S'VERB'
p257
F0.999995
sS'NOUN'
p258
F5e-06
s(lp259
g59
atp260
a(S'want'
p261
(dp262
S'CONJ'
p263
F0.998876
sS'VERB'
p264
F0.001123
sS'NOUN'
p265
F1e-06
s(lp266
g71
atp267
a(S'ik'
p268
(dp269
S'PRON'
p270
F0.999957
sS'NOUN'
p271
F4.3e-05
s(lp272
g80
atp273
a(S'had'
p274
(dp275
S'VERB'
p276
F1.0
s(lp277
g86
atp278
a(S'een'
p279
(dp280
S'ADJ'
p281
F0.0
sS'NUM'
p282
F0.0
sS'DET'
p283
F1.0
sS'PRON'
p284
F0.0
s(lp285
g94
atp286
a(S'vraag'
p287
(dp288
S'VERB'
p289
F0.0
sS'NOUN'
p290
F1.0
s(lp291
g100
atp292
a(S'voor'
p293
(dp294
S'ADV'
p295
F0.003793
sS'CONJ'
p296
F7.4e-05
sS'NOUN'
p297
F0.0
sS'ADP'
p298
F0.996133
s(lp299
g106
atp300
a(S'hem'
p301
(dp302
S'PRON'
p303
F1.0
s(lp304
g118
atp305
a(g63
(dp306
g63
F1.0
s(lp307
g63
atp308
asS'de'
p309
(lp310
(S'es'
p311
(dp312
S'PRON'
p313
F1.0
s(lp314
g7
atp315
a(S'ist'
p316
(dp317
S'VERB'
p318
F1.0
s(lp319
g14
atp320
a(S'schade'
p321
(dp322
S'VERB'
p323
F3.5e-05
sS'ADJ'
p324
F0.999963
s(lp325
g20
atp326
a(g61
(dp327
g63
F1.0
s(lp328
tp329
a(S'dass'
p330
(dp331
S'CONJ'
p332
F1.0
s(lp333
g28
atp334
a(S'der'
p335
(dp336
S'PRON'
p337
F0.000789
sS'DET'
p338
F0.999085
s(lp339
g35
atp340
a(S'minister'
p341
(dp342
S'ADJ'
p343
F0.025412
sS'NOUN'
p344
F0.957151
s(lp345
g41
atp346
a(S'weg'
p347
(dp348
S'ADV'
p349
F0.790291
sS'PRT'
p350
F0.209709
s(lp351
g59
atp352
a(S'musste'
p353
(dp354
S'VERB'
p355
F1.0
s(lp356
g47
atp357
a(g61
(dp358
g63
F1.0
s(lp359
g53
atp360
a(S'denn'
p361
(dp362
S'ADV'
p363
F0.008431
sS'CONJ'
p364
F0.991569
s(lp365
g71
atp366
a(S'ich'
p367
(dp368
S'PRON'
p369
F1.0
s(lp370
g80
atp371
a(S'h\xc3\xa4tte'
p372
(dp373
S'VERB'
p374
F1.0
s(lp375
g86
atp376
a(S'gerne'
p377
(dp378
S'ADV'
p379
F1.0
s(lp380
g100
atp381
a(S'eine'
p382
(dp383
S'PRON'
p384
F0.981439
sS'DET'
p385
F0.017217
s(lp386
g94
atp387
a(S'frage'
p388
(dp389
S'VERB'
p390
F1.0
s(lp391
tp392
a(S'an'
p393
(dp394
S'PRT'
p395
F0.010151
sS'ADP'
p396
F0.988455
s(lp397
g106
atp398
a(S'ihn'
p399
(dp400
S'PRON'
p401
F1.0
s(lp402
g118
atp403
a(S'gerichtet'
p404
(dp405
S'VERB'
p406
F0.993843
sS'ADJ'
p407
F0.006157
s(lp408
g100
atp409
a(g63
(dp410
g63
F1.0
s(lp411
g63
atp412
asS'it'
p413
(lp414
(S'e'
p415
(dp416
S'CONJ'
p417
F1.0
s(lp418
g7
atp419
a(S"'"
p420
(dp421
g63
F1.0
s(lp422
g14
atp423
a(S'un'
p424
(dp425
S'PRON'
p426
F0.008017
sS'DEF'
p427
F0.991983
s(lp428
g94
atp429
a(S'peccato'
p430
(dp431
S'VERB'
p432
F0.023543
sS'NOUN'
p433
F0.976457
s(lp434
g20
atp435
a(S'che'
p436
(dp437
S'PRON'
p438
F0.893267
sS'CONJ'
p439
F0.104783
sS'ADJ'
p440
F0.001951
s(lp441
g28
atp442
a(S'il'
p443
(dp444
S'DET'
p445
F1.0
s(lp446
g35
atp447
a(S'ministro'
p448
(dp449
S'VERB'
p450
F1.3e-05
sS'NOUN'
p451
F0.999987
s(lp452
g41
atp453
a(S'sia'
p454
(dp455
S'CONJ'
p456
F0.253248
sS'VERB'
p457
F0.746752
s(lp458
tp459
a(S'dovuto'
p460
(dp461
S'ADJ'
p462
F0.00681
sS'VERB'
p463
F0.985088
sS'NOUN'
p464
F0.008102
s(lp465
g47
atp466
a(S'andare'
p467
(dp468
S'VERB'
p469
F1.0
s(lp470
tp471
a(S'via'
p472
(dp473
S'ADV'
p474
F0.785521
sg78
F7.7e-05
sS'NOUN'
p475
F0.214402
s(lp476
g59
atp477
a(S'perch\xc3\xa9'
p478
(dp479
S'ADV'
p480
F0.534524
sS'CONJ'
p481
F0.461104
sS'NOUN'
p482
F0.004371
s(lp483
g71
atp484
a(S'avevo'
p485
(dp486
S'VERB'
p487
F1.0
s(lp488
g86
atp489
a(S'una'
p490
(dp491
S'PRON'
p492
F0.000238
sS'DEF'
p493
F0.999762
s(lp494
g94
atp495
a(S'domanda'
p496
(dp497
S'VERB'
p498
F0.000185
sS'NOUN'
p499
F0.999815
s(lp500
g100
atp501
a(S'da'
p502
(dp503
S'ADP'
p504
F1.0
s(lp505
g106
atp506
a(S'porgli'
p507
(dp508
S'VERB'
p509
F1.0
s(lp510
g118
atp511
a(g63
(dp512
g63
F1.0
s(lp513
g63
atp514
asS'sk'
p515
(lp516
(S'\xc5\xa0koda'
p517
(dp518
S'ADV'
p519
F0.848296
sg78
F0.008006
sS'NOUN'
p520
F0.143697
s(lp521
g20
atp522
a(g61
(dp523
g63
F1.0
s(lp524
tp525
a(S'\xc5\xbee'
p526
(dp527
g78
F0.00032700000000000003
sS'CONJ'
p528
F0.999673
s(lp529
g28
atp530
a(S'p\xc3\xa1n'
p531
(dp532
S'NOUN'
p533
F1.0
s(lp534
tp535
a(S'minister'
p536
(dp537
S'NOUN'
p538
F1.0
s(lp539
g41
atp540
a(S'musel'
p541
(dp542
S'VERB'
p543
F1.0
s(lp544
g47
atp545
a(S'od\xc3\xads\xc5\xa5'
p546
(dp547
S'VERB'
p548
F1.0
s(lp549
g59
atp550
a(g61
(dp551
g63
F1.0
s(lp552
tp553
a(S'ke\xc4\x8f\xc5\xbee'
p554
(dp555
S'CONJ'
p556
F1.0
s(lp557
g71
atp558
a(S'som'
p559
(dp560
S'VERB'
p561
F1.0
s(lp562
tp563
a(S'sa'
p564
(dp565
S'PRT'
p566
F0.999943
sS'ADP'
p567
F4.1e-05
sg78
F1.5e-05
s(lp568
g86
atp569
a(S'ho'
p570
(dp571
S'PRON'
p572
F0.999902
sg78
F9.8e-05
s(lp573
g118
atp574
a(S'chcel'
p575
(dp576
S'VERB'
p577
F1.0
s(lp578
g80
atp579
a(S'nie\xc4\x8do'
p580
(dp581
S'PRON'
p582
F1.0
s(lp583
g94
atp584
a(S'sp\xc3\xbdta\xc5\xa5'
p585
(dp586
S'VERB'
p587
F1.0
s(lp588
g100
atp589
a(g63
(dp590
g63
F1.0
s(lp591
g63
atp592
asS'pl'
p593
(lp594
(S'szkoda'
p595
(dp596
S'ADJ'
p597
F0.287202
sS'NOUN'
p598
F0.712798
s(lp599
g20
atp600
a(g61
(dp601
g78
F0.0
sg63
F1.0
s(lp602
tp603
a(S'\xc5\xbce'
p604
(dp605
S'PRT'
p606
F0.000147
sS'CONJ'
p607
F0.999852
s(lp608
g28
atp609
a(S'pan'
p610
(dp611
g78
F3e-06
sS'NOUN'
p612
F0.999997
s(lp613
tp614
a(S'minister'
p615
(dp616
S'NOUN'
p617
F1.0
s(lp618
g41
atp619
a(S'musia\xc5\x82'
p620
(dp621
S'VERB'
p622
F1.0
s(lp623
g47
atp624
a(S'nas'
p625
(dp626
S'PRON'
p627
F1.0
s(lp628
tp629
a(S'opu\xc5\x9bci\xc4\x87'
p630
(dp631
S'VERB'
p632
F1.0
s(lp633
g59
atp634
a(g61
(dp635
g78
F0.0
sg63
F1.0
s(lp636
tp637
a(S'poniewa\xc5\xbc'
p638
(dp639
S'CONJ'
p640
F1.0
s(lp641
g71
atp642
a(S'chcia\xc5\x82em'
p643
(dp644
S'ADV'
p645
F0.015912
sS'ADJ'
p646
F0.000203
sS'VERB'
p647
F0.910631
sS'NOUN'
p648
F0.07325300000000001
s(lp649
g80
atp650
a(S'mu'
p651
(dp652
S'PRON'
p653
F0.9994310000000001
sS'VERB'
p654
F0.000569
s(lp655
g118
atp656
a(S'zada\xc4\x87'
p657
(dp658
S'VERB'
p659
F1.0
s(lp660
tp661
a(S'pytanie'
p662
(dp663
S'VERB'
p664
F0.001768
sS'NOUN'
p665
F0.998232
s(lp666
g100
atp667
a(g63
(dp668
g63
F1.0
s(lp669
g63
atp670
asS'sl'
p671
(lp672
(S'\xc5\xa0koda'
p673
(dp674
S'NOUN'
p675
F1.0
s(lp676
g20
atp677
a(S'je'
p678
(dp679
g78
F0.000292
sS'VERB'
p680
F0.9994970000000001
sS'PRON'
p681
F0.000211
s(lp682
g14
atp683
a(g61
(dp684
g63
F1.0
s(lp685
tp686
a(S'da'
p687
(dp688
S'PRT'
p689
F4e-06
sS'CONJ'
p690
F0.999979
sS'VERB'
p691
F1.7e-05
sg78
F1e-06
s(lp692
g28
atp693
a(S'je'
p694
(dp695
S'PRON'
p696
F0.000444
sS'VERB'
p697
F0.999556
sg78
F0.0
s(lp698
tp699
a(S'moral'
p700
(dp701
S'VERB'
p702
F1.0
s(lp703
g47
atp704
a(S'minister'
p705
(dp706
S'NOUN'
p707
F1.0
s(lp708
g41
atp709
a(S'oditi'
p710
(dp711
S'VERB'
p712
F1.0
s(lp713
g59
atp714
a(g61
(dp715
g63
F1.0
s(lp716
tp717
a(S'saj'
p718
(dp719
S'CONJ'
p720
F1.0
s(lp721
g71
atp722
a(S'sem'
p723
(dp724
S'ADV'
p725
F0.028361
sS'PRT'
p726
F0.00232
sS'VERB'
p727
F0.969319
s(lp728
g80
atp729
a(S'zanj'
p730
(dp731
S'PRON'
p732
F1.0
s(lp733
g118
atp734
a(S'imel'
p735
(dp736
S'VERB'
p737
F1.0
s(lp738
g86
atp739
a(S'vpra\xc5\xa1anje'
p740
(dp741
S'NOUN'
p742
F1.0
s(lp743
g100
atp744
a(g63
(dp745
g63
F1.0
s(lp746
g63
atp747
asS'es'
p748
(lp749
(S'es'
p750
(dp751
S'VERB'
p752
F1.0
s(lp753
g14
atp754
a(S'una'
p755
(dp756
S'DET'
p757
F1.0
s(lp758
g94
atp759
a(S'l\xc3\xa1stima'
p760
(dp761
S'NOUN'
p762
F1.0
s(lp763
g20
atp764
a(S'que'
p765
(dp766
g78
F0.0
sS'CONJ'
p767
F1.0
s(lp768
g28
atp769
a(S'el'
p770
(dp771
S'PRON'
p772
F6e-05
sS'DET'
p773
F0.99994
s(lp774
g35
atp775
a(S'ministro'
p776
(dp777
S'VERB'
p778
F2.4e-05
sS'NOUN'
p779
F0.999976
s(lp780
g41
atp781
a(S'haya'
p782
(dp783
S'VERB'
p784
F1.0
s(lp785
tp786
a(S'tenido'
p787
(dp788
S'VERB'
p789
F1.0
s(lp790
g47
atp791
a(S'que'
p792
(dp793
g78
F0.0
sS'CONJ'
p794
F1.0
s(lp795
g53
atp796
a(S'dejarnos'
p797
(dp798
S'VERB'
p799
F1.0
s(lp800
g59
atp801
a(S'porque'
p802
(dp803
S'CONJ'
p804
F1.0
s(lp805
g71
atp806
a(S'ten\xc3\xada'
p807
(dp808
S'VERB'
p809
F1.0
s(lp810
g86
atp811
a(S'una'
p812
(dp813
S'DET'
p814
F1.0
s(lp815
g94
atp816
a(S'pregunta'
p817
(dp818
S'NOUN'
p819
F1.0
s(lp820
g100
atp821
a(S'para'
p822
(dp823
S'CONJ'
p824
F0.000597
sS'ADP'
p825
F0.999403
s(lp826
g106
atp827
a(S'\xc3\xa9l'
p828
(dp829
S'PRON'
p830
F1.0
s(lp831
g118
atp832
a(g63
(dp833
g63
F1.0
s(lp834
g63
atp835
as.