(dp0
S'fr'
p1
(lp2
(S'nous'
p3
(dp4
S'PRON'
p5
F1.0
s(lp6
S'we'
p7
atp8
a(S'devons'
p9
(dp10
S'VERB'
p11
F0.999987
sS'NOUN'
p12
F1.3e-05
s(lp13
S'need'
p14
atp15
a(S'\xc3\xa9tablir'
p16
(dp17
S'VERB'
p18
F1.0
s(lp19
S'distinguish'
p20
atp21
a(S'une'
p22
(dp23
S'NOUN'
p24
F5e-06
sS'NUM'
p25
F0.006837
sS'DET'
p26
F0.993158
s(lp27
tp28
a(S'distinction'
p29
(dp30
S'NOUN'
p31
F1.0
s(lp32
g20
atp33
a(S'entre'
p34
(dp35
S'VERB'
p36
F0.000526
sS'ADP'
p37
F0.999474
s(lp38
S'between'
p39
atp40
a(S'le'
p41
(dp42
S'PRON'
p43
F0.000127
sS'DET'
p44
F0.999873
s(lp45
S'the'
p46
atp47
a(S'kamikaze'
p48
(dp49
S'NOUN'
p50
F0.43995
sS'ADJ'
p51
F0.56005
s(lp52
S'bomber'
p53
atp54
a(S'et'
p55
(dp56
S'CONJ'
p57
F1.0
s(lp58
S'and'
p59
atp60
a(S'son'
p61
(dp62
S'PRON'
p63
F0.999997
sS'NOUN'
p64
F3e-06
s(lp65
S'his'
p66
atp67
a(S'recruteur'
p68
(dp69
S'NOUN'
p70
F1.0
s(lp71
S'recruiter'
p72
atp73
a(S'.'
p74
(dp75
g74
F1.0
s(lp76
g74
atp77
asS'en'
p78
(lp79
(g7
(dp80
S'PRON'
p81
F1.0
s(lp82
g7
atp83
a(g14
(dp84
S'VERB'
p85
F0.999992
sS'NOUN'
p86
F7e-06
s(lp87
g14
atp88
a(S'to'
p89
(dp90
S'ADV'
p91
F0.0
sS'PRT'
p92
F1.0
sS'ADP'
p93
F0.0
s(lp94
g89
atp95
a(g20
(dp96
S'VERB'
p97
F1.0
s(lp98
g20
atp99
a(g39
(dp100
S'ADV'
p101
F0.001074
sS'ADP'
p102
F0.998926
s(lp103
g39
atp104
a(g46
(dp105
S'NOUN'
p106
F1e-06
sS'DET'
p107
F0.999999
s(lp108
g46
atp109
a(S'suicide'
p110
(dp111
S'NOUN'
p112
F1.0
s(lp113
g110
atp114
a(g53
(dp115
S'NOUN'
p116
F1.0
s(lp117
g53
atp118
a(g59
(dp119
S'CONJ'
p120
F1.0
sS'NOUN'
p121
F0.0
s(lp122
g59
atp123
a(g66
(dp124
S'PRON'
p125
F1.0
s(lp126
g66
atp127
a(S'or'
p128
(dp129
S'CONJ'
p130
F0.99909
sS'ADJ'
p131
F0.00091
s(lp132
g128
atp133
a(S'her'
p134
(dp135
S'PRON'
p136
F1.0
s(lp137
g134
atp138
a(g72
(dp139
S'NOUN'
p140
F1.0
s(lp141
g72
atp142
a(g74
(dp143
g74
F1.0
s(lp144
g74
atp145
asS'nl'
p146
(lp147
(S'we'
p148
(dp149
S'PRON'
p150
F1.0
s(lp151
g7
atp152
a(S'moeten'
p153
(dp154
S'VERB'
p155
F0.999964
sS'NOUN'
p156
F3.6e-05
s(lp157
g14
atp158
a(S'onderscheid'
p159
(dp160
S'VERB'
p161
F0.000196
sS'NOUN'
p162
F0.999804
s(lp163
tp164
a(S'maken'
p165
(dp166
S'VERB'
p167
F0.9999899999999999
sS'NOUN'
p168
F1e-05
s(lp169
g20
atp170
a(S'tussen'
p171
(dp172
S'ADP'
p173
F1.0
s(lp174
g39
atp175
a(S'de'
p176
(dp177
S'DET'
p178
F1.0
s(lp179
g46
atp180
a(S'zelfmoordterrorist'
p181
(dp182
S'NOUN'
p183
F1.0
s(lp184
g53
atp185
a(S'en'
p186
(dp187
S'CONJ'
p188
F1.0
s(lp189
g59
atp190
a(S'degene'
p191
(dp192
S'PRON'
p193
F1.0
s(lp194
g72
atp195
a(S'die'
p196
(dp197
S'PRON'
p198
F1.0
s(lp199
g72
atp200
a(S'hem'
p201
(dp202
S'PRON'
p203
F1.0
s(lp204
g66
atp205
a(S'of'
p206
(dp207
S'CONJ'
p208
F1.0
s(lp209
g128
atp210
a(S'haar'
p211
(dp212
S'ADV'
p213
F0.000144
sS'PRON'
p214
F0.999817
sS'NOUN'
p215
F4e-05
s(lp216
g134
atp217
a(S'heeft'
p218
(dp219
S'VERB'
p220
F1.0
s(lp221
tp222
a(S'geronseld'
p223
(dp224
S'VERB'
p225
F1.0
s(lp226
g72
atp227
a(g74
(dp228
g74
F1.0
s(lp229
g74
atp230
asS'de'
p231
(lp232
(S'wir'
p233
(dp234
S'PRON'
p235
F1.0
s(lp236
g7
atp237
a(S'm\xc3\xbcssen'
p238
(dp239
S'VERB'
p240
F0.9885219999999999
s(lp241
g14
atp242
a(S'unterscheiden'
p243
(dp244
S'VERB'
p245
F1.0
s(lp246
g20
atp247
a(S'zwischen'
p248
(dp249
S'PRT'
p250
F8e-06
sS'ADP'
p251
F0.999992
s(lp252
g39
atp253
a(S'denen'
p254
(dp255
S'PRON'
p256
F1.0
s(lp257
g72
atp258
a(S','
p259
(dp260
g74
F1.0
s(lp261
tp262
a(S'die'
p263
(dp264
S'PRON'
p265
F0.997051
s(lp266
g46
atp267
a(S'ein'
p268
(dp269
S'NUM'
p270
F0.001441
sS'DET'
p271
F0.998314
s(lp272
tp273
a(S'selbstmordattentat'
p274
(dp275
S'ADJ'
p276
F0.019208
sS'NOUN'
p277
F0.96076
s(lp278
g110
atp279
a(S'ver\xc3\xbcben'
p280
(dp281
S'VERB'
p282
F1.0
s(lp283
g72
atp284
a(g259
(dp285
g74
F1.0
s(lp286
g89
atp287
a(S'und'
p288
(dp289
S'CONJ'
p290
F1.0
s(lp291
g59
atp292
a(S'denen'
p293
(dp294
S'PRON'
p295
F1.0
s(lp296
g72
atp297
a(g259
(dp298
g74
F1.0
s(lp299
tp300
a(S'die'
p301
(dp302
S'PRON'
p303
F0.283056
sS'DET'
p304
F0.664345
s(lp305
g66
atp306
a(S'erstere'
p307
(dp308
S'VERB'
p309
F0.247217
sS'ADJ'
p310
F0.597739
s(lp311
g72
atp312
a(S'dazu'
p313
(dp314
S'ADV'
p315
F0.999998
sS'PRT'
p316
F2e-06
s(lp317
tp318
a(S'anzustiften'
p319
(dp320
S'VERB'
p321
F1.0
s(lp322
g72
atp323
a(g74
(dp324
g74
F1.0
s(lp325
g74
atp326
asS'it'
p327
(lp328
(S'dobbiamo'
p329
(dp330
S'VERB'
p331
F1.0
s(lp332
g14
atp333
a(S'operare'
p334
(dp335
S'VERB'
p336
F1.0
s(lp337
g20
atp338
a(S'una'
p339
(dp340
S'PRON'
p341
F0.000112
sS'DEF'
p342
F0.999888
s(lp343
tp344
a(S'distinzione'
p345
(dp346
S'NOUN'
p347
F1.0
s(lp348
g20
atp349
a(S'fra'
p350
(dp351
S'CONJ'
p352
F0.005258
sS'ADP'
p353
F0.994742
s(lp354
g39
atp355
a(S"l'"
p356
(dp357
S'NOUN'
p358
F0.010282
sS'VERB'
p359
F0.964923
sS'ADJ'
p360
F0.024796
s(lp361
g46
atp362
a(S'attentatore'
p363
(dp364
S'NOUN'
p365
F1.0
s(lp366
g53
atp367
a(S'suicida'
p368
(dp369
S'NOUN'
p370
F0.079926
sS'VERB'
p371
F0.014455
sS'ADJ'
p372
F0.905619
s(lp373
g110
atp374
a(S'e'
p375
(dp376
S'CONJ'
p377
F1.0
s(lp378
g59
atp379
a(S'colui'
p380
(dp381
S'PRON'
p382
F1.0
s(lp383
g72
atp384
a(S'che'
p385
(dp386
S'PRON'
p387
F0.998203
sS'CONJ'
p388
F0.001625
sS'ADJ'
p389
F0.000172
s(lp390
tp391
a(S'lo'
p392
(dp393
S'PRON'
p394
F0.058985
sS'DET'
p395
F0.941015
s(lp396
tp397
a(S'recluta'
p398
(dp399
S'VERB'
p400
F0.028186
sS'NOUN'
p401
F0.971814
s(lp402
g72
atp403
a(g74
(dp404
g74
F1.0
s(lp405
g74
atp406
asS'sk'
p407
(lp408
(S'mus\xc3\xadme'
p409
(dp410
S'VERB'
p411
F1.0
s(lp412
g14
atp413
a(S'rozli\xc5\xa1ova\xc5\xa5'
p414
(dp415
S'VERB'
p416
F1.0
s(lp417
g20
atp418
a(S'medzi'
p419
(dp420
S'NOUN'
p421
F0.000344
sS'ADP'
p422
F0.999656
s(lp423
g39
atp424
a(S'samovra\xc5\xbeedn\xc3\xbdm'
p425
(dp426
S'ADJ'
p427
F1.0
s(lp428
g110
atp429
a(S'atent\xc3\xa1tnikom'
p430
(dp431
S'NOUN'
p432
F1.0
s(lp433
g53
atp434
a(S'a'
p435
(dp436
S'X'
p437
F0.000275
sS'CONJ'
p438
F0.999343
sS'NOUN'
p439
F1.4e-05
sS'ADP'
p440
F0.000292
sS'PRT'
p441
F7.6e-05
s(lp442
g59
atp443
a(S't\xc3\xbdm'
p444
(dp445
S'PRON'
p446
F0.991434
sS'CONJ'
p447
F0.008567
s(lp448
g72
atp449
a(g259
(dp450
g74
F1.0
s(lp451
tp452
a(S'kto'
p453
(dp454
S'PRON'
p455
F1.0
s(lp456
g72
atp457
a(S'ho'
p458
(dp459
S'PRON'
p460
F0.999775
sg437
F0.00022400000000000002
s(lp461
g72
atp462
a(g259
(dp463
g74
F1.0
s(lp464
g72
atp465
a(S'alebo'
p466
(dp467
g437
F4e-06
sS'CONJ'
p468
F0.999996
s(lp469
g128
atp470
a(S'ju'
p471
(dp472
S'PRON'
p473
F1.0
s(lp474
g134
atp475
a(g259
(dp476
g74
F1.0
s(lp477
tp478
a(S'pre'
p479
(dp480
g437
F2.1e-05
sS'ADP'
p481
F0.999979
s(lp482
g72
atp483
a(S't\xc3\xbato'
p484
(dp485
S'PRON'
p486
F1.0
s(lp487
g72
atp488
a(S'\xc4\x8dinnos\xc5\xa5'
p489
(dp490
S'NOUN'
p491
F1.0
s(lp492
tp493
a(S'z\xc3\xadskal'
p494
(dp495
S'VERB'
p496
F1.0000010000000001
s(lp497
g72
atp498
a(g74
(dp499
g74
F1.0
s(lp500
g74
atp501
asS'pl'
p502
(lp503
(S'musimy'
p504
(dp505
S'VERB'
p506
F1.0
s(lp507
g14
atp508
a(S'rozr\xc3\xb3\xc5\xbcni\xc4\x87'
p509
(dp510
S'VERB'
p511
F1.0
s(lp512
g20
atp513
a(S'pomi\xc4\x99dzy'
p514
(dp515
S'ADP'
p516
F1.0
s(lp517
g39
atp518
a(S'zamachowcem-samob\xc3\xb3jc\xc4\x85'
p519
(dp520
S'ADV'
p521
F0.000117
sS'ADJ'
p522
F0.08603400000000001
sS'VERB'
p523
F0.02530500000000001
sS'NOUN'
p524
F0.8885449999999997
s(lp525
g53
atp526
a(S'i'
p527
(dp528
S'PRT'
p529
F0.002118
sS'CONJ'
p530
F0.997839
sS'NOUN'
p531
F3.4e-05
sg437
F1e-06
sS'PRON'
p532
F7.000000000000001e-06
s(lp533
g59
atp534
a(S'osob\xc4\x85'
p535
(dp536
S'NOUN'
p537
F1.0
s(lp538
g72
atp539
a(g259
(dp540
g437
F0.0
sg74
F1.0
s(lp541
tp542
a(S'kt\xc3\xb3ra'
p543
(dp544
S'ADJ'
p545
F1.0
s(lp546
g72
atp547
a(S'tak\xc4\x85'
p548
(dp549
S'ADJ'
p550
F1.0
s(lp551
g72
atp552
a(S'osob\xc4\x99'
p553
(dp554
S'NOUN'
p555
F1.0
s(lp556
tp557
a(S'zwerbowa\xc5\x82a'
p558
(dp559
S'ADJ'
p560
F0.001907
sS'VERB'
p561
F0.9365410000000001
sS'NOUN'
p562
F0.061552
s(lp563
g72
atp564
a(g74
(dp565
g74
F1.0
s(lp566
g74
atp567
asS'sl'
p568
(lp569
(S'razlikovati'
p570
(dp571
S'VERB'
p572
F1.0
s(lp573
g20
atp574
a(S'moramo'
p575
(dp576
S'VERB'
p577
F1.0
s(lp578
g14
atp579
a(S'med'
p580
(dp581
S'NOUN'
p582
F0.009736
sS'ADP'
p583
F0.990264
s(lp584
g39
atp585
a(S'samomorilskim'
p586
(dp587
S'ADJ'
p588
F1.0
s(lp589
g110
atp590
a(S'napadalcem'
p591
(dp592
S'ADV'
p593
F0.0
sS'ADJ'
p594
F0.0
sS'VERB'
p595
F3e-06
sS'NOUN'
p596
F0.9999930000000002
s(lp597
g53
atp598
a(S'in'
p599
(dp600
S'ADV'
p601
F1e-06
sg437
F9e-06
sS'CONJ'
p602
F0.99999
sS'NOUN'
p603
F0.0
s(lp604
g59
atp605
a(S'njegovim'
p606
(dp607
S'PRON'
p608
F1.0
s(lp609
g66
atp610
a(S'ali'
p611
(dp612
S'ADV'
p613
F0.000407
sS'CONJ'
p614
F0.999593
s(lp615
g128
atp616
a(S'njenim'
p617
(dp618
S'PRON'
p619
F0.9999990000000001
s(lp620
g134
atp621
a(S'naro\xc4\x8dnikom'
p622
(dp623
S'NOUN'
p624
F1.0
s(lp625
g72
atp626
a(g74
(dp627
g74
F1.0
s(lp628
g74
atp629
asS'es'
p630
(lp631
(S'tenemos'
p632
(dp633
S'VERB'
p634
F1.0
s(lp635
g14
atp636
a(S'que'
p637
(dp638
g437
F0.0
sS'CONJ'
p639
F1.0
s(lp640
g89
atp641
a(S'diferenciar'
p642
(dp643
S'VERB'
p644
F1.0
s(lp645
g20
atp646
a(S'entre'
p647
(dp648
g437
F1e-06
sS'ADP'
p649
F0.999999
s(lp650
g39
atp651
a(S'el'
p652
(dp653
S'PRON'
p654
F5.4e-05
sS'DET'
p655
F0.999946
s(lp656
g46
atp657
a(S'terrorista'
p658
(dp659
S'ADJ'
p660
F0.317907
sS'NOUN'
p661
F0.682093
s(lp662
g53
atp663
a(S'suicida'
p664
(dp665
S'VERB'
p666
F1.0
s(lp667
g110
atp668
a(S'y'
p669
(dp670
g437
F5e-05
sS'CONJ'
p671
F0.99995
s(lp672
g59
atp673
a(S'la'
p674
(dp675
S'PRON'
p676
F0.000591
sS'DET'
p677
F0.999408
sg437
F0.0
sS'NOUN'
p678
F0.0
s(lp679
g66
atp680
a(S'persona'
p681
(dp682
S'NOUN'
p683
F1.0
s(lp684
g72
atp685
a(S'que'
p686
(dp687
g437
F1e-06
sS'CONJ'
p688
F0.999999
s(lp689
tp690
a(S'le'
p691
(dp692
S'PRON'
p693
F0.999999
sg437
F1e-06
s(lp694
tp695
a(S'recluta'
p696
(dp697
S'VERB'
p698
F0.986199
sS'NOUN'
p699
F0.013801
s(lp700
g72
atp701
a(g74
(dp702
g74
F1.0
s(lp703
g74
atp704
as.