(dp0
S'fr'
p1
(lp2
(S'('
p3
(dp4
S'.'
p5
F1.0
s(lp6
g3
atp7
a(S'el'
p8
(dp9
S'ADJ'
p10
F0.13429
sS'VERB'
p11
F0.638201
sS'NOUN'
p12
F0.227509
s(lp13
S'el'
p14
atp15
a(S')'
p16
(dp17
g5
F1.0
s(lp18
g16
atp19
a(S'monsieur'
p20
(dp21
S'NOUN'
p22
F1.0
s(lp23
S'mr'
p24
atp25
a(S'le'
p26
(dp27
S'PRON'
p28
F0.000321
sS'DET'
p29
F0.999679
s(lp30
tp31
a(S'pr\xc3\xa9sident'
p32
(dp33
S'VERB'
p34
F4.5e-05
sS'NOUN'
p35
F0.999955
s(lp36
S'president'
p37
atp38
a(S','
p39
(dp40
g5
F1.0
s(lp41
g39
atp42
a(S'la'
p43
(dp44
S'PRON'
p45
F6.9e-05
sS'DET'
p46
F0.999931
sS'NOUN'
p47
F0.0
s(lp48
S'the'
p49
atp50
a(S'conf\xc3\xa9rence'
p51
(dp52
S'NOUN'
p53
F1.0
s(lp54
S'conference'
p55
atp56
a(S"d'"
p57
(dp58
S'NOUN'
p59
F0.032441
sS'VERB'
p60
F0.694014
sS'ADJ'
p61
F0.273544
s(lp62
tp63
a(S'annapolis'
p64
(dp65
S'ADJ'
p66
F0.377521
sS'NOUN'
p67
F0.622479
s(lp68
S'annapolis'
p69
atp70
a(S'sur'
p71
(dp72
S'ADP'
p73
F1.0
s(lp74
S'on'
p75
atp76
a(S'le'
p77
(dp78
S'PRON'
p79
F6.2e-05
sS'DET'
p80
F0.999938
s(lp81
S'the'
p82
atp83
a(S'proche-orient'
p84
(dp85
S'NOUN'
p86
F1.0
s(lp87
S'east'
p88
atp89
a(S"s'"
p90
(dp91
S'NOUN'
p92
F0.032441
sS'VERB'
p93
F0.694014
sS'ADJ'
p94
F0.273544
s(lp95
S'ended'
p96
atp97
a(S'est'
p98
(dp99
S'VERB'
p100
F0.999511
sS'NOUN'
p101
F0.000489
s(lp102
tp103
a(S'termin\xc3\xa9e'
p104
(dp105
S'VERB'
p106
F1.0
s(lp107
g96
atp108
a(S'avec'
p109
(dp110
S'ADV'
p111
F0.015226
sS'ADP'
p112
F0.984774
s(lp113
S'with'
p114
atp115
a(S'des'
p116
(dp117
S'DET'
p118
F0.000662
sS'ADP'
p119
F0.999338
s(lp120
tp121
a(S'r\xc3\xa9sultats'
p122
(dp123
S'NOUN'
p124
F1.0
s(lp125
S'results'
p126
atp127
a(S'mitig\xc3\xa9s'
p128
(dp129
S'VERB'
p130
F1.0
s(lp131
S'mixed'
p132
atp133
a(S'pour'
p134
(dp135
S'CONJ'
p136
F0.059677
sS'ADP'
p137
F0.940323
s(lp138
S'for'
p139
atp140
a(S"l'"
p141
(dp142
S'ADJ'
p143
F0.154578
sS'VERB'
p144
F0.11414799999999999
sS'NOUN'
p145
F0.731276
s(lp146
S'the'
p147
atp148
a(S'union'
p149
(dp150
S'NOUN'
p151
F1.0
s(lp152
S'union'
p153
atp154
a(S'europ\xc3\xa9enne'
p155
(dp156
S'NOUN'
p157
F0.012852
sS'ADJ'
p158
F0.987148
s(lp159
S'european'
p160
atp161
a(g5
(dp162
g5
F1.0
s(lp163
g5
atp164
asS'en'
p165
(lp166
(g3
(dp167
g5
F1.0
s(lp168
g3
atp169
a(g14
(dp170
S'NOUN'
p171
F1.0
s(lp172
g14
atp173
a(g16
(dp174
g5
F1.0
s(lp175
g16
atp176
a(g24
(dp177
S'ADJ'
p178
F0.004952
sS'NOUN'
p179
F0.995048
s(lp180
g24
atp181
a(g37
(dp182
S'NOUN'
p183
F1.0
s(lp184
g37
atp185
a(g39
(dp186
g5
F1.0
s(lp187
g39
atp188
a(g49
(dp189
S'NOUN'
p190
F5e-06
sS'DET'
p191
F0.999995
s(lp192
g49
atp193
a(g69
(dp194
S'NOUN'
p195
F1.0
s(lp196
g69
atp197
a(g55
(dp198
S'NOUN'
p199
F1.0
s(lp200
g55
atp201
a(g75
(dp202
S'ADV'
p203
F0.000489
sS'PRT'
p204
F0.000523
sS'ADJ'
p205
F0.0
sS'NOUN'
p206
F0.0
sS'ADP'
p207
F0.998988
s(lp208
g75
atp209
a(g82
(dp210
S'NOUN'
p211
F1e-06
sS'DET'
p212
F0.999999
s(lp213
g82
atp214
a(S'middle'
p215
(dp216
S'ADJ'
p217
F0.442072
sS'VERB'
p218
F0.000431
sS'NOUN'
p219
F0.557496
s(lp220
g215
atp221
a(g88
(dp222
S'ADV'
p223
F0.630698
sS'NOUN'
p224
F0.103651
sS'ADJ'
p225
F0.265651
s(lp226
g88
atp227
a(g96
(dp228
S'VERB'
p229
F1.0
s(lp230
g96
atp231
a(g114
(dp232
S'ADP'
p233
F1.0
s(lp234
g114
atp235
a(g132
(dp236
S'VERB'
p237
F0.025622000000000002
sS'ADJ'
p238
F0.974378
s(lp239
g132
atp240
a(g126
(dp241
S'VERB'
p242
F3.9e-05
sS'NOUN'
p243
F0.999961
s(lp244
g126
atp245
a(g139
(dp246
S'ADP'
p247
F1.0
s(lp248
g139
atp249
a(g147
(dp250
S'NOUN'
p251
F1e-06
sS'DET'
p252
F0.999999
s(lp253
g147
atp254
a(g160
(dp255
S'NOUN'
p256
F0.10881199999999999
sS'VERB'
p257
F1.1e-05
sS'ADJ'
p258
F0.891178
s(lp259
g160
atp260
a(g153
(dp261
S'NOUN'
p262
F1.0
s(lp263
g153
atp264
a(g5
(dp265
g5
F1.0
s(lp266
g5
atp267
asS'nl'
p268
(lp269
(g3
(dp270
g5
F1.0
s(lp271
g3
atp272
a(S'el'
p273
(dp274
S'NOUN'
p275
F1.0
s(lp276
g14
atp277
a(g16
(dp278
g5
F1.0
s(lp279
g16
atp280
a(S'mijnheer'
p281
(dp282
S'NOUN'
p283
F1.0
s(lp284
g24
atp285
a(S'de'
p286
(dp287
S'DET'
p288
F1.0
s(lp289
tp290
a(S'voorzitter'
p291
(dp292
S'NOUN'
p293
F1.0
s(lp294
g37
atp295
a(g39
(dp296
g5
F1.0
s(lp297
g39
atp298
a(S'de'
p299
(dp300
S'DET'
p301
F1.0
s(lp302
g49
atp303
a(S'conferentie'
p304
(dp305
S'NOUN'
p306
F1.0
s(lp307
g55
atp308
a(S'van'
p309
(dp310
S'ADP'
p311
F1.0
s(lp312
tp313
a(S'annapolis'
p314
(dp315
S'NOUN'
p316
F1.0
s(lp317
g69
atp318
a(S'over'
p319
(dp320
S'ADV'
p321
F0.015336
sS'ADP'
p322
F0.984664
s(lp323
g75
atp324
a(S'het'
p325
(dp326
S'PRON'
p327
F0.000935
sS'DET'
p328
F0.999065
s(lp329
g82
atp330
a(S'midden-oosten'
p331
(dp332
S'ADJ'
p333
F0.019329
sS'NOUN'
p334
F0.980672
s(lp335
g215
atp336
a(S'eindigde'
p337
(dp338
S'VERB'
p339
F1.0
s(lp340
g96
atp341
a(S'met'
p342
(dp343
S'ADP'
p344
F1.0
s(lp345
g114
atp346
a(S'gemengde'
p347
(dp348
S'NOUN'
p349
F4.4e-05
sS'VERB'
p350
F0.000488
sS'ADJ'
p351
F0.999468
s(lp352
g132
atp353
a(S'resultaten'
p354
(dp355
S'NOUN'
p356
F1.0
s(lp357
g126
atp358
a(S'voor'
p359
(dp360
S'ADV'
p361
F0.002234
sS'CONJ'
p362
F7e-06
sS'NOUN'
p363
F0.0
sS'ADP'
p364
F0.997759
s(lp365
g139
atp366
a(S'de'
p367
(dp368
S'DET'
p369
F1.0
s(lp370
g147
atp371
a(S'europese'
p372
(dp373
S'NOUN'
p374
F1.0
s(lp375
g160
atp376
a(S'unie'
p377
(dp378
S'NOUN'
p379
F1.0
s(lp380
g153
atp381
a(g5
(dp382
g5
F1.0
s(lp383
g5
atp384
asS'de'
p385
(lp386
(g3
(dp387
g5
F1.0
s(lp388
g3
atp389
a(S'el'
p390
(dp391
S'NOUN'
p392
F1.0
s(lp393
g14
atp394
a(g16
(dp395
g5
F1.0
s(lp396
g16
atp397
a(S'herr'
p398
(dp399
S'ADJ'
p400
F0.19898
sS'NOUN'
p401
F0.770496
s(lp402
g24
atp403
a(S'pr\xc3\xa4sident'
p404
(dp405
S'VERB'
p406
F0.05857
sS'NOUN'
p407
F0.928761
s(lp408
tp409
a(S'!'
p410
(dp411
g5
F1.0
s(lp412
g37
atp413
a(S'die'
p414
(dp415
S'PRON'
p416
F0.001198
sS'DET'
p417
F0.998476
s(lp418
g49
atp419
a(S'nahost-konferenz'
p420
(dp421
S'ADJ'
p422
F0.02661
sS'NOUN'
p423
F0.97339
s(lp424
tp425
a(S'in'
p426
(dp427
S'ADP'
p428
F1.0
s(lp429
g75
atp430
a(S'annapolis'
p431
(dp432
S'NOUN'
p433
F0.979855
s(lp434
g69
atp435
a(S'ging'
p436
(dp437
S'VERB'
p438
F1.0
s(lp439
g96
atp440
a(S'f\xc3\xbcr'
p441
(dp442
S'ADP'
p443
F1.0
s(lp444
g139
atp445
a(S'die'
p446
(dp447
S'PRON'
p448
F0.000218
sS'DET'
p449
F0.999767
s(lp450
g147
atp451
a(S'europ\xc3\xa4ische'
p452
(dp453
S'ADJ'
p454
F1.0
s(lp455
g160
atp456
a(S'union'
p457
(dp458
S'ADJ'
p459
F0.003132
sS'NOUN'
p460
F0.993687
s(lp461
g153
atp462
a(S'mit'
p463
(dp464
S'PRT'
p465
F0.000676
sS'ADP'
p466
F0.999324
s(lp467
g114
atp468
a(S'gemischten'
p469
(dp470
S'ADJ'
p471
F1.0
s(lp472
g132
atp473
a(S'ergebnissen'
p474
(dp475
S'ADJ'
p476
F0.863767
s(lp477
g126
atp478
a(S'zu'
p479
(dp480
S'ADV'
p481
F0.26382
sS'PRT'
p482
F0.699646
s(lp483
tp484
a(S'ende'
p485
(dp486
S'VERB'
p487
F1.0
s(lp488
g96
atp489
a(g5
(dp490
g5
F1.0
s(lp491
g5
atp492
asS'it'
p493
(lp494
(g3
(dp495
g5
F1.0
s(lp496
g3
atp497
a(S'el'
p498
(dp499
S'ADJ'
p500
F0.044031
sS'VERB'
p501
F0.025928
sS'NOUN'
p502
F0.930042
s(lp503
g14
atp504
a(g16
(dp505
g5
F1.0
s(lp506
g16
atp507
a(S'signor'
p508
(dp509
S'NOUN'
p510
F1.0
s(lp511
g24
atp512
a(S'presidente'
p513
(dp514
S'NOUN'
p515
F1.0
s(lp516
g37
atp517
a(g39
(dp518
g5
F1.0
s(lp519
g39
atp520
a(S'la'
p521
(dp522
S'PRON'
p523
F0.000686
sS'DET'
p524
F0.999314
s(lp525
g49
atp526
a(S'conferenza'
p527
(dp528
S'NOUN'
p529
F1.0
s(lp530
g55
atp531
a(S'di'
p532
(dp533
S'CONJ'
p534
F1.3e-05
sS'ADP'
p535
F0.999987
s(lp536
tp537
a(S'annapolis'
p538
(dp539
S'VERB'
p540
F0.12685400000000002
sS'NOUN'
p541
F0.873144
s(lp542
g69
atp543
a(S'sul'
p544
(dp545
S'ADP'
p546
F1.0
s(lp547
g75
atp548
a(S'medio'
p549
(dp550
S'VERB'
p551
F6.6e-05
sS'ADJ'
p552
F0.999934
s(lp553
g215
atp554
a(S'oriente'
p555
(dp556
S'NOUN'
p557
F1.0
s(lp558
g88
atp559
a(S'si'
p560
(dp561
S'PRON'
p562
F0.999997
sS'NOUN'
p563
F3e-06
s(lp564
g96
atp565
a(S'\xc3\xa8'
p566
(dp567
S'VERB'
p568
F1.0
s(lp569
tp570
a(S'conclusa'
p571
(dp572
S'VERB'
p573
F0.995557
sS'ADJ'
p574
F0.004443
s(lp575
g96
atp576
a(S'con'
p577
(dp578
S'ADP'
p579
F1.0
s(lp580
g114
atp581
a(S'risultati'
p582
(dp583
S'VERB'
p584
F0.002689
sS'NOUN'
p585
F0.997311
s(lp586
g126
atp587
a(S'contraddittori'
p588
(dp589
S'NOUN'
p590
F0.042208
sS'ADJ'
p591
F0.957792
s(lp592
g132
atp593
a(S'per'
p594
(dp595
S'CONJ'
p596
F0.065202
sS'ADP'
p597
F0.934798
s(lp598
g139
atp599
a(S"l'"
p600
(dp601
S'NOUN'
p602
F0.009698
sS'VERB'
p603
F0.9666350000000001
sS'ADJ'
p604
F0.023668
s(lp605
g147
atp606
a(S'unione'
p607
(dp608
S'NOUN'
p609
F1.0
s(lp610
g153
atp611
a(S'europea'
p612
(dp613
S'NOUN'
p614
F0.001561
sS'ADJ'
p615
F0.998439
s(lp616
g160
atp617
a(g5
(dp618
g5
F1.0
s(lp619
g5
atp620
asS'sk'
p621
(lp622
(g3
(dp623
g5
F1.0
s(lp624
g3
atp625
a(S'el'
p626
(dp627
S'ADJ'
p628
F0.07313
sS'VERB'
p629
F0.48115499999999983
sS'NOUN'
p630
F0.445715
s(lp631
g14
atp632
a(g16
(dp633
g5
F1.0
s(lp634
g16
atp635
a(S'v\xc3\xa1\xc5\xbeen\xc3\xbd'
p636
(dp637
S'VERB'
p638
F0.273237
sS'ADJ'
p639
F0.726763
s(lp640
tp641
a(S'p\xc3\xa1n'
p642
(dp643
S'NOUN'
p644
F1.0
s(lp645
g24
atp646
a(S'predsedaj\xc3\xbaci'
p647
(dp648
S'VERB'
p649
F1.0
s(lp650
g37
atp651
a(g39
(dp652
g5
F1.0
s(lp653
g39
atp654
a(S'konferencia'
p655
(dp656
S'NOUN'
p657
F1.0
s(lp658
g55
atp659
a(S'o'
p660
(dp661
S'X'
p662
F0.000423
sS'CONJ'
p663
F6.2e-05
sS'NOUN'
p664
F2.1000000000000002e-05
sS'ADP'
p665
F0.999494
s(lp666
g75
atp667
a(S'bl\xc3\xadzkom'
p668
(dp669
S'NOUN'
p670
F0.006564
sS'ADJ'
p671
F0.993436
s(lp672
g215
atp673
a(S'v\xc3\xbdchode'
p674
(dp675
S'NOUN'
p676
F1.0
s(lp677
g88
atp678
a(S'v'
p679
(dp680
g662
F0.0009629999999999999
sS'ADP'
p681
F0.999036
s(lp682
g69
atp683
a(S'annapoli'
p684
(dp685
S'ADV'
p686
F0.004816
sS'ADJ'
p687
F0.09573499999999999
sS'VERB'
p688
F0.00015000000000000001
sS'NOUN'
p689
F0.898326
sg662
F0.000972
s(lp690
tp691
a(S'skon\xc4\x8dila'
p692
(dp693
S'VERB'
p694
F1.000001
s(lp695
g96
atp696
a(S'z'
p697
(dp698
g662
F0.00011899999999999999
sS'NOUN'
p699
F3.4e-05
sS'ADP'
p700
F0.999846
s(lp701
g139
atp702
a(S'h\xc4\xbeadiska'
p703
(dp704
S'NOUN'
p705
F1.0
s(lp706
g147
atp707
a(S'eur\xc3\xb3pskej'
p708
(dp709
S'ADJ'
p710
F1.0
s(lp711
g160
atp712
a(S'\xc3\xbanie'
p713
(dp714
S'NOUN'
p715
F1.0
s(lp716
g153
atp717
a(S'so'
p718
(dp719
g662
F4.7000000000000004e-05
sS'ADP'
p720
F0.999953
s(lp721
g114
atp722
a(S'zmie\xc5\xa1an\xc3\xbdmi'
p723
(dp724
S'VERB'
p725
F1.0
s(lp726
g132
atp727
a(S'v\xc3\xbdsledkami'
p728
(dp729
S'NOUN'
p730
F1.0
s(lp731
g126
atp732
a(g5
(dp733
g5
F1.0
s(lp734
g5
atp735
asS'pl'
p736
(lp737
(g3
(dp738
S'NOUN'
p739
F0.001093
sg5
F0.998907
s(lp740
g3
atp741
a(S'el'
p742
(dp743
S'ADJ'
p744
F0.0242
sS'NOUN'
p745
F0.9758
s(lp746
g14
atp747
a(g16
(dp748
g5
F1.0
s(lp749
g16
atp750
a(S'panie'
p751
(dp752
S'NOUN'
p753
F1.0
s(lp754
g24
atp755
a(S'przewodnicz\xc4\x85cy'
p756
(dp757
S'VERB'
p758
F0.000602
sS'NOUN'
p759
F0.999398
s(lp760
tp761
a(g410
(dp762
g5
F1.0
s(lp763
g37
atp764
a(S'skutki'
p765
(dp766
S'NOUN'
p767
F1.0
s(lp768
g69
atp769
a(S'konferencji'
p770
(dp771
S'NOUN'
p772
F0.999999
s(lp773
g55
atp774
a(S'w'
p775
(dp776
S'NOUN'
p777
F2.6e-05
sS'ADJ'
p778
F0.000684
sS'ADP'
p779
F0.999272
sg662
F1.7e-05
s(lp780
tp781
a(S'annapolis'
p782
(dp783
S'ADV'
p784
F0.001918
sS'ADJ'
p785
F0.000364
sS'VERB'
p786
F2.7999999999999996e-05
sS'NOUN'
p787
F0.9976859999999997
sg662
F4e-06
s(lp788
g69
atp789
a(g775
(dp790
S'ADJ'
p791
F0.0
sg662
F0.0
sS'NOUN'
p792
F0.0
sS'ADP'
p793
F1.0
s(lp794
tp795
a(S'sprawie'
p796
(dp797
S'NOUN'
p798
F1.0
s(lp799
g75
atp800
a(S'bliskiego'
p801
(dp802
S'ADJ'
p803
F1.0
s(lp804
g215
atp805
a(S'wschodu'
p806
(dp807
S'NOUN'
p808
F1.0
s(lp809
g88
atp810
a(S'dla'
p811
(dp812
S'ADP'
p813
F1.0
s(lp814
g139
atp815
a(S'unii'
p816
(dp817
S'NOUN'
p818
F1.0
s(lp819
g153
atp820
a(S'europejskiej'
p821
(dp822
S'ADJ'
p823
F1.000001
s(lp824
g160
atp825
a(S'budz\xc4\x85'
p826
(dp827
S'VERB'
p828
F1.0
s(lp829
g132
atp830
a(S'mieszane'
p831
(dp832
S'ADJ'
p833
F1.0
s(lp834
tp835
a(S'uczucia'
p836
(dp837
S'NOUN'
p838
F1.0
s(lp839
g132
atp840
a(g5
(dp841
g5
F1.0
s(lp842
g5
atp843
asS'sl'
p844
(lp845
(g3
(dp846
g5
F1.0
s(lp847
g3
atp848
a(S'el'
p849
(dp850
g662
F1.0
s(lp851
g14
atp852
a(g16
(dp853
g5
F1.0
s(lp854
g16
atp855
a(S'gospod'
p856
(dp857
S'NOUN'
p858
F1.0
s(lp859
g24
atp860
a(S'predsednik'
p861
(dp862
S'NOUN'
p863
F1.0
s(lp864
g37
atp865
a(g39
(dp866
g5
F1.0
s(lp867
g39
atp868
a(S'konferenca'
p869
(dp870
S'NOUN'
p871
F1.0
s(lp872
g55
atp873
a(g660
(dp874
S'NOUN'
p875
F3e-06
sS'ADP'
p876
F0.999997
s(lp877
g75
atp878
a(S'srednjem'
p879
(dp880
S'ADJ'
p881
F1.0
s(lp882
g215
atp883
a(S'vzhodu'
p884
(dp885
S'NOUN'
p886
F1.0
s(lp887
g88
atp888
a(g679
(dp889
S'ADP'
p890
F1.0
s(lp891
tp892
a(S'annapolisu'
p893
(dp894
S'ADV'
p895
F1.8e-05
sS'ADJ'
p896
F0.00015999999999999999
sS'NOUN'
p897
F0.9998200000000002
s(lp898
g69
atp899
a(S'se'
p900
(dp901
S'PRON'
p902
F0.999996
sg662
F4e-06
s(lp903
g96
atp904
a(S'je'
p905
(dp906
S'PRON'
p907
F0.000237
sS'VERB'
p908
F0.999763
sg662
F0.0
s(lp909
tp910
a(S'kon\xc4\x8dala'
p911
(dp912
S'VERB'
p913
F0.999999
s(lp914
g96
atp915
a(g697
(dp916
S'ADP'
p917
F1.0
s(lp918
g114
atp919
a(S'me\xc5\xa1animi'
p920
(dp921
S'ADJ'
p922
F1.0
s(lp923
g132
atp924
a(S'rezultati'
p925
(dp926
S'NOUN'
p927
F1.0
s(lp928
g126
atp929
a(S'za'
p930
(dp931
S'ADV'
p932
F0.000108
sg662
F3e-06
sS'ADP'
p933
F0.9998889999999999
s(lp934
g139
atp935
a(S'evropsko'
p936
(dp937
S'ADV'
p938
F8.8e-05
sS'ADJ'
p939
F0.9999119999999999
s(lp940
g160
atp941
a(S'unijo'
p942
(dp943
S'NOUN'
p944
F1.0
s(lp945
g153
atp946
a(g5
(dp947
g5
F1.0
s(lp948
g5
atp949
asS'es'
p950
(lp951
(g3
(dp952
g5
F1.0
s(lp953
g3
atp954
a(S'el'
p955
(dp956
S'PRON'
p957
F1e-06
sS'DET'
p958
F0.999999
s(lp959
g14
atp960
a(g16
(dp961
g5
F1.0
s(lp962
g16
atp963
a(S'se\xc3\xb1or'
p964
(dp965
S'NOUN'
p966
F1.0
s(lp967
g24
atp968
a(S'presidente'
p969
(dp970
S'NOUN'
p971
F1.0
s(lp972
g37
atp973
a(g39
(dp974
g5
F1.0
s(lp975
g39
atp976
a(S'la'
p977
(dp978
S'PRON'
p979
F3.5e-05
sS'DET'
p980
F0.999959
sS'NOUN'
p981
F0.0
sg662
F5e-06
s(lp982
g49
atp983
a(S'conferencia'
p984
(dp985
S'NOUN'
p986
F1.0
s(lp987
g55
atp988
a(S'de'
p989
(dp990
g662
F3e-05
sS'CONJ'
p991
F0.000454
sS'ADP'
p992
F0.999516
s(lp993
tp994
a(S'annapolis'
p995
(dp996
S'ADJ'
p997
F0.002508
sS'VERB'
p998
F0.000343
sS'NOUN'
p999
F0.9971490000000001
s(lp1000
g69
atp1001
a(S'sobre'
p1002
(dp1003
S'NOUN'
p1004
F3e-05
sS'ADP'
p1005
F0.99997
s(lp1006
g75
atp1007
a(S'oriente'
p1008
(dp1009
S'VERB'
p1010
F1.0
s(lp1011
g88
atp1012
a(S'pr\xc3\xb3ximo'
p1013
(dp1014
S'ADJ'
p1015
F1.0
s(lp1016
g215
atp1017
a(S'tuvo'
p1018
(dp1019
S'VERB'
p1020
F1.0
s(lp1021
g96
atp1022
a(S'resultados'
p1023
(dp1024
S'NOUN'
p1025
F1.0
s(lp1026
g126
atp1027
a(S'desiguales'
p1028
(dp1029
S'VERB'
p1030
F0.012195
sS'ADJ'
p1031
F0.987805
s(lp1032
g132
atp1033
a(S'para'
p1034
(dp1035
S'CONJ'
p1036
F0.002171
sS'ADP'
p1037
F0.997829
s(lp1038
g139
atp1039
a(S'la'
p1040
(dp1041
g662
F0.0
sS'PRON'
p1042
F0.0
sS'DET'
p1043
F0.999999
sS'NOUN'
p1044
F0.0
s(lp1045
g147
atp1046
a(S'uni\xc3\xb3n'
p1047
(dp1048
S'NOUN'
p1049
F1.0
s(lp1050
g153
atp1051
a(S'europea'
p1052
(dp1053
S'ADJ'
p1054
F1.0
s(lp1055
g160
atp1056
a(g5
(dp1057
g5
F1.0
s(lp1058
g5
atp1059
as.