(dp0
S'fr'
p1
(lp2
(S'tout'
p3
(dp4
S'ADV'
p5
F0.914133
sS'PRON'
p6
F0.082081
sS'NOUN'
p7
F0.003786
s(lp8
tp9
a(S'aussi'
p10
(dp11
S'ADV'
p12
F0.999607
sS'CONJ'
p13
F0.000393
s(lp14
S'also'
p15
atp16
a(S'importantes'
p17
(dp18
S'ADJ'
p19
F1.0
s(lp20
S'important'
p21
atp22
a(S'sont'
p23
(dp24
S'VERB'
p25
F1.0
s(lp26
S'is'
p27
atp28
a(S'les'
p29
(dp30
S'PRON'
p31
F0.000124
sS'DET'
p32
F0.999843
sS'ADP'
p33
F3.3e-05
s(lp34
S'the'
p35
atp36
a(S'questions'
p37
(dp38
S'NOUN'
p39
F1.0
s(lp40
S'issue'
p41
atp42
a(S'du'
p43
(dp44
S'ADP'
p45
F1.0
s(lp46
tp47
a(S'multilat\xc3\xa9ralisme'
p48
(dp49
S'ADJ'
p50
F0.000366
sS'NOUN'
p51
F0.999634
s(lp52
S'multilateralism'
p53
atp54
a(S'de'
p55
(dp56
S'ADP'
p57
F1.0
s(lp58
tp59
a(S"l'"
p60
(dp61
S'ADJ'
p62
F0.160704
sS'VERB'
p63
F0.06480800000000002
sS'NOUN'
p64
F0.774488
s(lp65
tp66
a(S'ue'
p67
(dp68
S'VERB'
p69
F0.002353
sS'NOUN'
p70
F0.997647
s(lp71
S'eu'
p72
atp73
a(S'et'
p74
(dp75
S'CONJ'
p76
F1.0
s(lp77
S'and'
p78
atp79
a(S'de'
p80
(dp81
S'ADP'
p82
F1.0
s(lp83
tp84
a(S'la'
p85
(dp86
S'PRON'
p87
F0.000379
sS'DET'
p88
F0.999611
sS'NOUN'
p89
F1e-05
s(lp90
S'the'
p91
atp92
a(S'n\xc3\xa9cessit\xc3\xa9'
p93
(dp94
S'VERB'
p95
F0.005228
sS'NOUN'
p96
F0.994772
s(lp97
S'need'
p98
atp99
a(S'de'
p100
(dp101
S'ADP'
p102
F1.0
s(lp103
S'to'
p104
atp105
a(S'veiller'
p106
(dp107
S'VERB'
p108
F1.0
s(lp109
tp110
a(S'\xc3\xa0'
p111
(dp112
S'ADP'
p113
F1.0
s(lp114
tp115
a(S'toujours'
p116
(dp117
S'ADV'
p118
F1.0
s(lp119
S'always'
p120
atp121
a(S'\xc3\xaatre'
p122
(dp123
S'VERB'
p124
F0.998803
sS'NOUN'
p125
F0.001197
s(lp126
S'be'
p127
atp128
a(S'convenablement'
p129
(dp130
S'ADV'
p131
F1.0
s(lp132
S'well'
p133
atp134
a(S'repr\xc3\xa9sent\xc3\xa9s'
p135
(dp136
S'VERB'
p137
F1.0
s(lp138
S'represented'
p139
atp140
a(S'dans'
p141
(dp142
S'NOUN'
p143
F6e-06
sS'ADP'
p144
F0.999994
s(lp145
S'in'
p146
atp147
a(S'les'
p148
(dp149
S'PRON'
p150
F0.000161
sS'DET'
p151
F0.999836
sS'ADP'
p152
F3e-06
s(lp153
S'the'
p154
atp155
a(S'diff\xc3\xa9rents'
p156
(dp157
S'ADJ'
p158
F1.0
s(lp159
S'different'
p160
atp161
a(S'contextes'
p162
(dp163
S'NOUN'
p164
F1.0
s(lp165
S'contexts'
p166
atp167
a(S'strat\xc3\xa9giques'
p168
(dp169
S'ADJ'
p170
F1.0
s(lp171
S'strategic'
p172
atp173
a(S','
p174
(dp175
S'.'
p176
F1.0
s(lp177
g174
atp178
a(S'en'
p179
(dp180
S'PRON'
p181
F0.600721
sS'ADP'
p182
F0.399279
s(lp183
tp184
a(S'nous'
p185
(dp186
S'PRON'
p187
F1.0
s(lp188
S'taking'
p189
atp190
a(S'appuyant'
p191
(dp192
S'VERB'
p193
F1.0
s(lp194
S'advantage'
p195
atp196
a(S'notamment'
p197
(dp198
S'ADV'
p199
F1.0
s(lp200
S'particular'
p201
atp202
a(S'sur'
p203
(dp204
S'ADP'
p205
F1.0
s(lp206
S'of'
p207
atp208
a(S'le'
p209
(dp210
S'PRON'
p211
F0.000178
sS'DET'
p212
F0.999822
s(lp213
S'the'
p214
atp215
a(S'nouveau'
p216
(dp217
S'NOUN'
p218
F0.004282
sS'ADJ'
p219
F0.995718
s(lp220
S'new'
p221
atp222
a(S'seae'
p223
(dp224
S'VERB'
p225
F0.000218
sS'NOUN'
p226
F0.999782
s(lp227
S'eeas'
p228
atp229
a(g174
(dp230
g176
F1.0
s(lp231
g174
atp232
a(S'le'
p233
(dp234
S'PRON'
p235
F0.000368
sS'DET'
p236
F0.999632
s(lp237
S'the'
p238
atp239
a(S'corps'
p240
(dp241
S'NOUN'
p242
F1.0
s(lp243
S'corps'
p244
atp245
a(S'diplomatique'
p246
(dp247
S'NOUN'
p248
F0.069702
sS'ADJ'
p249
F0.930298
s(lp250
S'diplomatic'
p251
atp252
a(S'europ\xc3\xa9en'
p253
(dp254
S'ADJ'
p255
F0.415535
sS'NOUN'
p256
F0.584465
s(lp257
S'european'
p258
atp259
a(S'enfin'
p260
(dp261
S'ADV'
p262
F1.0
s(lp263
S'finally'
p264
atp265
a(S'devenu'
p266
(dp267
S'VERB'
p268
F1.0
s(lp269
S'become'
p270
atp271
a(S'r\xc3\xa9alit\xc3\xa9'
p272
(dp273
S'NOUN'
p274
F1.0
s(lp275
S'reality'
p276
atp277
a(g176
(dp278
g176
F1.0
s(lp279
g176
atp280
asS'en'
p281
(lp282
(g15
(dp283
S'ADV'
p284
F1.0
s(lp285
g15
atp286
a(g21
(dp287
S'ADJ'
p288
F1.0
s(lp289
g21
atp290
a(g27
(dp291
S'VERB'
p292
F1.0
s(lp293
g27
atp294
a(g35
(dp295
S'NOUN'
p296
F2e-06
sS'DET'
p297
F0.999998
s(lp298
g35
atp299
a(g72
(dp300
S'ADV'
p301
F2.9e-05
sS'ADJ'
p302
F0.01671
sS'VERB'
p303
F0.0005160000000000001
sS'NOUN'
p304
F0.982745
s(lp305
g72
atp306
a(g53
(dp307
S'NOUN'
p308
F1.0
s(lp309
g53
atp310
a(g41
(dp311
S'VERB'
p312
F0.001727
sS'NOUN'
p313
F0.998273
s(lp314
g41
atp315
a(g78
(dp316
S'CONJ'
p317
F1.0
sS'NOUN'
p318
F0.0
s(lp319
g78
atp320
a(g91
(dp321
S'NOUN'
p322
F4e-06
sS'DET'
p323
F0.999996
s(lp324
g91
atp325
a(g98
(dp326
S'VERB'
p327
F0.087421
sS'NOUN'
p328
F0.912579
s(lp329
g98
atp330
a(g104
(dp331
S'ADV'
p332
F0.0
sS'PRT'
p333
F1.0
sS'ADP'
p334
F0.0
s(lp335
g104
atp336
a(g127
(dp337
S'VERB'
p338
F1.0
s(lp339
g127
atp340
a(g120
(dp341
S'ADV'
p342
F1.0
s(lp343
g120
atp344
a(g133
(dp345
S'ADV'
p346
F0.999727
sS'X'
p347
F0.0
sS'VERB'
p348
F2.4e-05
sS'NOUN'
p349
F0.000249
s(lp350
g133
atp351
a(g139
(dp352
S'VERB'
p353
F1.0
s(lp354
g139
atp355
a(g146
(dp356
S'ADV'
p357
F0.000531
sS'PRT'
p358
F0.004603
sS'ADP'
p359
F0.994866
s(lp360
g146
atp361
a(g154
(dp362
S'NOUN'
p363
F1e-06
sS'DET'
p364
F0.999999
s(lp365
g154
atp366
a(g160
(dp367
S'ADJ'
p368
F1.0
s(lp369
g160
atp370
a(g172
(dp371
S'ADJ'
p372
F1.0
s(lp373
g172
atp374
a(g166
(dp375
S'NOUN'
p376
F1.0
s(lp377
g166
atp378
a(g174
(dp379
g176
F1.0
s(lp380
g174
atp381
a(g189
(dp382
S'NOUN'
p383
F0.001718
sS'VERB'
p384
F0.99642
sS'ADJ'
p385
F0.001862
s(lp386
g189
atp387
a(g195
(dp388
S'VERB'
p389
F0.000478
sS'NOUN'
p390
F0.999521
s(lp391
g195
atp392
a(g174
(dp393
g176
F1.0
s(lp394
g174
atp395
a(S'in'
p396
(dp397
S'ADV'
p398
F0.006142
sS'PRT'
p399
F1e-06
sS'ADP'
p400
F0.993858
s(lp401
g396
atp402
a(g201
(dp403
S'ADV'
p404
F0.023315
sS'NOUN'
p405
F0.089135
sS'ADJ'
p406
F0.88755
s(lp407
g201
atp408
a(g174
(dp409
g176
F1.0
s(lp410
g174
atp411
a(g207
(dp412
S'ADP'
p413
F1.0
s(lp414
g207
atp415
a(g214
(dp416
S'NOUN'
p417
F1e-06
sS'DET'
p418
F0.999999
s(lp419
g214
atp420
a(g221
(dp421
S'NOUN'
p422
F6.9e-05
sS'ADJ'
p423
F0.999931
s(lp424
g221
atp425
a(g228
(dp426
S'ADV'
p427
F4.9e-05
sS'ADJ'
p428
F0.00022
sS'NOUN'
p429
F0.999731
s(lp430
g228
atp431
a(g174
(dp432
g176
F1.0
s(lp433
g174
atp434
a(g238
(dp435
S'NOUN'
p436
F2e-06
sS'DET'
p437
F0.999998
s(lp438
g238
atp439
a(g258
(dp440
S'NOUN'
p441
F0.05138
sS'VERB'
p442
F6.1e-05
sS'ADJ'
p443
F0.948559
s(lp444
g258
atp445
a(g251
(dp446
S'NOUN'
p447
F0.017123
sS'ADJ'
p448
F0.982877
s(lp449
g251
atp450
a(g244
(dp451
g347
F0.006494
sS'NOUN'
p452
F0.993506
s(lp453
g244
atp454
a(S'that'
p455
(dp456
S'ADV'
p457
F0.00075
sS'DET'
p458
F0.9992340000000001
sS'ADP'
p459
F1.6e-05
s(lp460
g455
atp461
a(S'has'
p462
(dp463
S'VERB'
p464
F1.0
s(lp465
g462
atp466
a(g264
(dp467
S'ADV'
p468
F1.0
s(lp469
g264
atp470
a(g270
(dp471
S'VERB'
p472
F1.0
s(lp473
g270
atp474
a(S'a'
p475
(dp476
S'NOUN'
p477
F0.0
sS'DET'
p478
F1.0
s(lp479
g475
atp480
a(g276
(dp481
S'NOUN'
p482
F1.0
s(lp483
g276
atp484
a(g176
(dp485
g176
F1.0
s(lp486
g176
atp487
asS'nl'
p488
(lp489
(S'de'
p490
(dp491
S'DET'
p492
F1.0
s(lp493
g35
atp494
a(S'kwestie'
p495
(dp496
S'NOUN'
p497
F1.0
s(lp498
g41
atp499
a(S'van'
p500
(dp501
S'ADP'
p502
F1.0
s(lp503
tp504
a(S'het'
p505
(dp506
S'PRON'
p507
F0.000927
sS'DET'
p508
F0.999073
s(lp509
tp510
a(S'multilateralisme'
p511
(dp512
S'NOUN'
p513
F1.0
s(lp514
g53
atp515
a(S'van'
p516
(dp517
S'ADP'
p518
F1.0
s(lp519
tp520
a(S'de'
p521
(dp522
S'DET'
p523
F1.0
s(lp524
g35
atp525
a(S'eu'
p526
(dp527
S'NOUN'
p528
F1.0
s(lp529
g72
atp530
a(S'is'
p531
(dp532
S'VERB'
p533
F1.0
s(lp534
g27
atp535
a(S'ook'
p536
(dp537
S'ADV'
p538
F1.0
s(lp539
g15
atp540
a(S'belangrijk'
p541
(dp542
S'ADJ'
p543
F1.0
s(lp544
g21
atp545
a(g174
(dp546
g176
F1.0
s(lp547
tp548
a(S'evenals'
p549
(dp550
S'CONJ'
p551
F1.0
s(lp552
g78
atp553
a(S'de'
p554
(dp555
S'DET'
p556
F1.0
s(lp557
g91
atp558
a(S'noodzaak'
p559
(dp560
S'VERB'
p561
F9.5e-05
sS'NOUN'
p562
F0.999905
s(lp563
g98
atp564
a(S'om'
p565
(dp566
S'ADV'
p567
F0.049865
sS'CONJ'
p568
F0.671249
sS'ADP'
p569
F0.278886
s(lp570
tp571
a(S'altijd'
p572
(dp573
S'ADV'
p574
F1.0
s(lp575
g120
atp576
a(S'goed'
p577
(dp578
S'ADV'
p579
F0.073119
sS'NOUN'
p580
F0.206679
sS'ADJ'
p581
F0.720202
s(lp582
g133
atp583
a(S'vertegenwoordigd'
p584
(dp585
S'VERB'
p586
F1.0
s(lp587
g139
atp588
a(S'te'
p589
(dp590
S'PRT'
p591
F1.0
s(lp592
g104
atp593
a(S'zijn'
p594
(dp595
S'PRON'
p596
F0.000946
sS'VERB'
p597
F0.999054
sS'NOUN'
p598
F0.0
s(lp599
g127
atp600
a(S'in'
p601
(dp602
S'ADV'
p603
F0.000473
sS'VERB'
p604
F0.0
sS'ADP'
p605
F0.999527
s(lp606
g146
atp607
a(S'de'
p608
(dp609
S'DET'
p610
F1.0
s(lp611
g154
atp612
a(S'verschillende'
p613
(dp614
S'NOUN'
p615
F4.7e-05
sS'VERB'
p616
F1.2e-05
sS'ADJ'
p617
F0.999919
sS'PRON'
p618
F2.2e-05
s(lp619
g160
atp620
a(S'strategische'
p621
(dp622
S'NOUN'
p623
F0.000266
sS'ADJ'
p624
F0.999734
s(lp625
g172
atp626
a(S'contexten'
p627
(dp628
S'NOUN'
p629
F1.0
s(lp630
g166
atp631
a(g174
(dp632
g176
F1.0
s(lp633
g174
atp634
a(S'en'
p635
(dp636
S'CONJ'
p637
F1.0
s(lp638
g174
atp639
a(S'daarbij'
p640
(dp641
S'ADV'
p642
F1.0
s(lp643
tp644
a(S'in'
p645
(dp646
S'ADV'
p647
F0.009778
sS'VERB'
p648
F4e-06
sS'ADP'
p649
F0.990218
s(lp650
g396
atp651
a(S'het'
p652
(dp653
S'PRON'
p654
F0.0061329999999999996
sS'DET'
p655
F0.993867
s(lp656
tp657
a(S'bijzonder'
p658
(dp659
S'ADV'
p660
F0.00132
sS'ADJ'
p661
F0.99868
s(lp662
g201
atp663
a(S'te'
p664
(dp665
S'PRT'
p666
F1.0
s(lp667
g189
atp668
a(S'profiteren'
p669
(dp670
S'VERB'
p671
F0.999997
sS'NOUN'
p672
F3e-06
s(lp673
g195
atp674
a(S'van'
p675
(dp676
S'ADP'
p677
F1.0
s(lp678
g207
atp679
a(S'de'
p680
(dp681
S'DET'
p682
F1.0
s(lp683
g214
atp684
a(S'nieuwe'
p685
(dp686
S'NOUN'
p687
F5e-06
sS'ADJ'
p688
F0.999995
s(lp689
g221
atp690
a(S'edeo'
p691
(dp692
S'ADJ'
p693
F0.007237
sS'NOUN'
p694
F0.992762
s(lp695
g228
atp696
a(g174
(dp697
g176
F1.0
s(lp698
g174
atp699
a(S'de'
p700
(dp701
S'DET'
p702
F1.0
s(lp703
g238
atp704
a(S'europese'
p705
(dp706
S'NOUN'
p707
F1.0
s(lp708
g258
atp709
a(S'diplomatieke'
p710
(dp711
S'NOUN'
p712
F6.8e-05
sS'ADJ'
p713
F0.999932
s(lp714
g251
atp715
a(S'dienst'
p716
(dp717
S'NOUN'
p718
F1.0
s(lp719
g244
atp720
a(S'die'
p721
(dp722
S'PRON'
p723
F1.0
s(lp724
g455
atp725
a(S'uiteindelijk'
p726
(dp727
S'ADJ'
p728
F1.0
s(lp729
g264
atp730
a(S'werkelijkheid'
p731
(dp732
S'NOUN'
p733
F1.0
s(lp734
g276
atp735
a(S'is'
p736
(dp737
S'VERB'
p738
F1.0
s(lp739
g462
atp740
a(S'geworden'
p741
(dp742
S'VERB'
p743
F1.0
s(lp744
g270
atp745
a(g176
(dp746
g176
F1.0
s(lp747
g176
atp748
asS'de'
p749
(lp750
(S'auch'
p751
(dp752
S'ADV'
p753
F1.0
s(lp754
tp755
a(S'das'
p756
(dp757
S'PRON'
p758
F0.005169
sS'DET'
p759
F0.994827
s(lp760
tp761
a(S'thema'
p762
(dp763
S'VERB'
p764
F0.000266
sS'NOUN'
p765
F0.999552
s(lp766
g41
atp767
a(S'des'
p768
(dp769
S'DET'
p770
F1.0
s(lp771
tp772
a(S'multilateralismus'
p773
(dp774
S'ADJ'
p775
F0.019706
sS'NOUN'
p776
F0.962723
s(lp777
g53
atp778
a(S'in'
p779
(dp780
S'ADP'
p781
F1.0
s(lp782
tp783
a(S'der'
p784
(dp785
S'PRON'
p786
F0.000588
sS'DET'
p787
F0.999327
s(lp788
g35
atp789
a(S'eu'
p790
(dp791
S'NOUN'
p792
F0.385129
sS'ADJ'
p793
F0.4491
s(lp794
g72
atp795
a(S'ist'
p796
(dp797
S'VERB'
p798
F1.0
s(lp799
g27
atp800
a(S'wichtig'
p801
(dp802
S'ADJ'
p803
F1.0
s(lp804
g21
atp805
a(g174
(dp806
g176
F1.0
s(lp807
g455
atp808
a(S'und'
p809
(dp810
S'CONJ'
p811
F1.0
s(lp812
g78
atp813
a(S'ebenso'
p814
(dp815
S'ADV'
p816
F1.0
s(lp817
g15
atp818
a(S'die'
p819
(dp820
S'PRON'
p821
F0.000877
sS'DET'
p822
F0.999109
s(lp823
g91
atp824
a(S'notwendigkeit'
p825
(dp826
S'ADJ'
p827
F0.143491
sS'NOUN'
p828
F0.825985
s(lp829
g98
atp830
a(g174
(dp831
g176
F1.0
s(lp832
g174
atp833
a(S'im'
p834
(dp835
S'ADP'
p836
F1.0
s(lp837
g396
atp838
a(S'hinblick'
p839
(dp840
S'VERB'
p841
F0.001253
sS'NOUN'
p842
F0.99874
s(lp843
g201
atp844
a(S'auf'
p845
(dp846
S'PRT'
p847
F0.000898
sS'ADP'
p848
F0.999092
s(lp849
g146
atp850
a(S'die'
p851
(dp852
S'PRON'
p853
F0.000219
sS'DET'
p854
F0.999761
s(lp855
g154
atp856
a(S'verschiedenen'
p857
(dp858
S'ADJ'
p859
F1.0
s(lp860
g160
atp861
a(S'strategischen'
p862
(dp863
S'ADJ'
p864
F1.0
s(lp865
g172
atp866
a(S'zusammenh\xc3\xa4nge'
p867
(dp868
S'VERB'
p869
F1.0
s(lp870
g166
atp871
a(S'immer'
p872
(dp873
S'ADV'
p874
F1.0
s(lp875
g120
atp876
a(S'angemessen'
p877
(dp878
S'VERB'
p879
F0.076687
sS'ADJ'
p880
F0.923313
s(lp881
g133
atp882
a(S'vertreten'
p883
(dp884
S'VERB'
p885
F0.9986700000000001
s(lp886
g139
atp887
a(S'zu'
p888
(dp889
S'PRT'
p890
F0.999639
sS'ADP'
p891
F0.000352
s(lp892
tp893
a(S'sein'
p894
(dp895
S'VERB'
p896
F0.999648
s(lp897
g127
atp898
a(S'und'
p899
(dp900
S'CONJ'
p901
F1.0
s(lp902
g174
atp903
a(S'die'
p904
(dp905
S'PRON'
p906
F0.007157
sS'DET'
p907
F0.987401
s(lp908
g189
atp909
a(S'vorteile'
p910
(dp911
S'ADJ'
p912
F0.01482
sS'NOUN'
p913
F0.97052
s(lp914
tp915
a(S'des'
p916
(dp917
S'DET'
p918
F1.0
s(lp919
g207
atp920
a(S'neuen'
p921
(dp922
S'ADJ'
p923
F1.0
s(lp924
g221
atp925
a(S'ead'
p926
(dp927
S'NOUN'
p928
F0.999953
s(lp929
g228
atp930
a(S'zu'
p931
(dp932
S'PRT'
p933
F0.999972
s(lp934
g104
atp935
a(S'nutzen'
p936
(dp937
S'VERB'
p938
F1.0
s(lp939
g195
atp940
a(g174
(dp941
g176
F1.0
s(lp942
g174
atp943
a(S'des'
p944
(dp945
S'DET'
p946
F1.0
s(lp947
g238
atp948
a(S'europ\xc3\xa4ischen'
p949
(dp950
S'ADJ'
p951
F1.0
s(lp952
g258
atp953
a(S'diplomatischen'
p954
(dp955
S'ADJ'
p956
F1.0
s(lp957
g251
atp958
a(S'korps'
p959
(dp960
S'ADJ'
p961
F0.026455
sS'NOUN'
p962
F0.971428
s(lp963
tp964
a(g174
(dp965
g176
F1.0
s(lp966
g174
atp967
a(S'welches'
p968
(dp969
S'PRON'
p970
F0.880827
s(lp971
g244
atp972
a(S'nun'
p973
(dp974
S'ADV'
p975
F0.999933
sS'CONJ'
p976
F6.7e-05
s(lp977
tp978
a(S'endlich'
p979
(dp980
S'ADV'
p981
F0.963106
sS'ADJ'
p982
F0.036894
s(lp983
g264
atp984
a(S'wirklichkeit'
p985
(dp986
S'NOUN'
p987
F0.007942
sS'ADJ'
p988
F0.991898
s(lp989
g276
atp990
a(S'geworden'
p991
(dp992
S'VERB'
p993
F0.999861
s(lp994
g270
atp995
a(S'ist'
p996
(dp997
S'VERB'
p998
F1.0
s(lp999
g462
atp1000
a(g176
(dp1001
g176
F1.0
s(lp1002
g176
atp1003
asS'it'
p1004
(lp1005
(S'altrettanto'
p1006
(dp1007
S'ADV'
p1008
F0.998215
sS'ADJ'
p1009
F0.001785
s(lp1010
g15
atp1011
a(S'importante'
p1012
(dp1013
S'NOUN'
p1014
F0.005475
sS'VERB'
p1015
F0.00034
sS'ADJ'
p1016
F0.994186
s(lp1017
g21
atp1018
a(S'\xc3\xa8'
p1019
(dp1020
S'VERB'
p1021
F1.0
s(lp1022
g27
atp1023
a(S'la'
p1024
(dp1025
S'PRON'
p1026
F0.0
sS'DET'
p1027
F1.0
s(lp1028
g35
atp1029
a(S'questione'
p1030
(dp1031
S'NOUN'
p1032
F1.0
s(lp1033
g41
atp1034
a(S'europea'
p1035
(dp1036
S'NOUN'
p1037
F0.004221
sS'ADJ'
p1038
F0.995779
s(lp1039
g72
atp1040
a(S'del'
p1041
(dp1042
S'DEF'
p1043
F0.002135
sS'ADP'
p1044
F0.997865
s(lp1045
tp1046
a(S'multilateralismo'
p1047
(dp1048
S'NOUN'
p1049
F1.0
s(lp1050
g53
atp1051
a(S'e'
p1052
(dp1053
S'CONJ'
p1054
F1.0
s(lp1055
g78
atp1056
a(S"l'"
p1057
(dp1058
S'NOUN'
p1059
F0.000589
sS'VERB'
p1060
F0.9933339999999999
sS'ADJ'
p1061
F0.006076
s(lp1062
g91
atp1063
a(S'esigenza'
p1064
(dp1065
S'NOUN'
p1066
F1.0
s(lp1067
g98
atp1068
a(S'di'
p1069
(dp1070
S'CONJ'
p1071
F6e-06
sS'ADP'
p1072
F0.999994
s(lp1073
g104
atp1074
a(S'essere'
p1075
(dp1076
S'VERB'
p1077
F0.999669
sS'NOUN'
p1078
F0.000331
s(lp1079
g127
atp1080
a(S'sempre'
p1081
(dp1082
S'ADV'
p1083
F0.992086
sS'CONJ'
p1084
F0.007914
s(lp1085
g120
atp1086
a(S'ben'
p1087
(dp1088
S'ADV'
p1089
F1.0
s(lp1090
g133
atp1091
a(S'rappresentati'
p1092
(dp1093
S'VERB'
p1094
F1.0
s(lp1095
g139
atp1096
a(S'nei'
p1097
(dp1098
S'NOUN'
p1099
F0.002989
sS'ADP'
p1100
F0.997011
s(lp1101
g146
atp1102
a(S'diversi'
p1103
(dp1104
S'VERB'
p1105
F0.0024259999999999998
sS'ADJ'
p1106
F0.997574
s(lp1107
g160
atp1108
a(S'contesti'
p1109
(dp1110
S'ADJ'
p1111
F0.100513
sS'VERB'
p1112
F0.19256700000000002
sS'NOUN'
p1113
F0.706919
s(lp1114
g166
atp1115
a(S'strategici'
p1116
(dp1117
S'ADJ'
p1118
F1.0
s(lp1119
g172
atp1120
a(g174
(dp1121
g176
F1.0
s(lp1122
g174
atp1123
a(S'sfruttando'
p1124
(dp1125
S'VERB'
p1126
F1.0
s(lp1127
g195
atp1128
a(S'in'
p1129
(dp1130
S'ADP'
p1131
F1.0
s(lp1132
g396
atp1133
a(S'particolar'
p1134
(dp1135
S'ADJ'
p1136
F1.0
s(lp1137
tp1138
a(S'modo'
p1139
(dp1140
S'NOUN'
p1141
F1.0
s(lp1142
g201
atp1143
a(S'il'
p1144
(dp1145
S'DET'
p1146
F1.0
s(lp1147
g214
atp1148
a(S'nuovo'
p1149
(dp1150
S'NOUN'
p1151
F0.039623
sS'ADJ'
p1152
F0.960377
s(lp1153
g221
atp1154
a(S'seae'
p1155
(dp1156
S'ADJ'
p1157
F0.306194
sS'VERB'
p1158
F0.000132
sS'NOUN'
p1159
F0.693674
s(lp1160
g228
atp1161
a(g174
(dp1162
g176
F1.0
s(lp1163
g174
atp1164
a(S'il'
p1165
(dp1166
S'DET'
p1167
F1.0
s(lp1168
g238
atp1169
a(S'corpo'
p1170
(dp1171
S'NOUN'
p1172
F1.0
s(lp1173
g244
atp1174
a(S'diplomatico'
p1175
(dp1176
S'NOUN'
p1177
F0.041286
sS'ADJ'
p1178
F0.958714
s(lp1179
g251
atp1180
a(S'europeo'
p1181
(dp1182
S'NOUN'
p1183
F0.07277
sS'ADJ'
p1184
F0.92723
s(lp1185
g258
atp1186
a(S'che'
p1187
(dp1188
S'PRON'
p1189
F0.973884
sS'CONJ'
p1190
F0.025892
sS'ADJ'
p1191
F0.000224
s(lp1192
g455
atp1193
a(S'\xc3\xa8'
p1194
(dp1195
S'VERB'
p1196
F1.0
s(lp1197
g462
atp1198
a(S'finalmente'
p1199
(dp1200
S'ADV'
p1201
F1.0
s(lp1202
g264
atp1203
a(S'diventato'
p1204
(dp1205
S'VERB'
p1206
F1.0
s(lp1207
g270
atp1208
a(S'realt\xc3\xa0'
p1209
(dp1210
S'NOUN'
p1211
F1.0
s(lp1212
g276
atp1213
a(g176
(dp1214
g176
F1.0
s(lp1215
g176
atp1216
asS'sk'
p1217
(lp1218
(S'd\xc3\xb4le\xc5\xbeit\xc3\xa1'
p1219
(dp1220
S'ADJ'
p1221
F1.0
s(lp1222
g21
atp1223
a(S'je'
p1224
(dp1225
g347
F0.00027800000000000004
sS'VERB'
p1226
F0.999695
sS'PRON'
p1227
F2.7e-05
s(lp1228
g27
atp1229
a(S'aj'
p1230
(dp1231
g347
F0.916854
sS'CONJ'
p1232
F0.083146
s(lp1233
g15
atp1234
a(S'ot\xc3\xa1zka'
p1235
(dp1236
S'NOUN'
p1237
F1.0
s(lp1238
g41
atp1239
a(S'mnohostrannosti'
p1240
(dp1241
S'NOUN'
p1242
F1.0
s(lp1243
g53
atp1244
a(g475
(dp1245
g347
F0.001947
sS'CONJ'
p1246
F0.997195
sS'NOUN'
p1247
F0.000151
sS'ADP'
p1248
F0.00067
sS'PRT'
p1249
F3.9e-05
s(lp1250
g78
atp1251
a(S'potreby'
p1252
(dp1253
S'NOUN'
p1254
F1.0
s(lp1255
g98
atp1256
a(S'dobr\xc3\xa9ho'
p1257
(dp1258
S'NOUN'
p1259
F0.011594
sS'ADJ'
p1260
F0.988406
s(lp1261
g120
atp1262
a(S'zast\xc3\xbapenia'
p1263
(dp1264
S'NOUN'
p1265
F1.0
s(lp1266
g139
atp1267
a(S'e\xc3\x9a'
p1268
(dp1269
S'ADV'
p1270
F0.006416
sS'ADJ'
p1271
F0.100535
sS'VERB'
p1272
F0.468896
sS'NOUN'
p1273
F0.41683099999999995
sg347
F0.007322
s(lp1274
g72
atp1275
a(S'v'
p1276
(dp1277
g347
F0.000241
sS'ADP'
p1278
F0.999759
s(lp1279
g146
atp1280
a(S'r\xc3\xb4znych'
p1281
(dp1282
S'ADJ'
p1283
F1.0
s(lp1284
g160
atp1285
a(S'strategick\xc3\xbdch'
p1286
(dp1287
S'ADJ'
p1288
F1.0
s(lp1289
g172
atp1290
a(S's\xc3\xbavislostiach'
p1291
(dp1292
S'NOUN'
p1293
F1.0
s(lp1294
g166
atp1295
a(S'najm\xc3\xa4'
p1296
(dp1297
g347
F1.0
s(lp1298
g201
atp1299
a(S's'
p1300
(dp1301
g347
F0.00078
sS'CONJ'
p1302
F1.2e-05
sS'NOUN'
p1303
F7.000000000000001e-06
sS'ADP'
p1304
F0.99918
sS'PRT'
p1305
F2.2e-05
s(lp1306
g207
atp1307
a(S'vyu\xc5\xbeit\xc3\xadm'
p1308
(dp1309
S'NOUN'
p1310
F1.0
s(lp1311
g195
atp1312
a(S'novej'
p1313
(dp1314
S'ADJ'
p1315
F1.0
s(lp1316
g221
atp1317
a(S'eur\xc3\xb3pskej'
p1318
(dp1319
S'ADJ'
p1320
F1.0
s(lp1321
g228
atp1322
a(S'slu\xc5\xbeby'
p1323
(dp1324
S'NOUN'
p1325
F1.0
s(lp1326
g228
atp1327
a(S'pre'
p1328
(dp1329
g347
F0.000105
sS'ADP'
p1330
F0.999895
s(lp1331
g228
atp1332
a(S'vonkaj\xc5\xa1iu'
p1333
(dp1334
S'ADJ'
p1335
F1.0
s(lp1336
g228
atp1337
a(S'\xc4\x8dinnos\xc5\xa5'
p1338
(dp1339
S'NOUN'
p1340
F1.0
s(lp1341
g228
atp1342
a(S'('
p1343
(dp1344
g176
F1.0
s(lp1345
g228
atp1346
a(S'esv\xc4\x8c'
p1347
(dp1348
S'ADV'
p1349
F0.016111999999999998
sS'ADJ'
p1350
F0.275783
sS'VERB'
p1351
F0.046857
sS'NOUN'
p1352
F0.6612469999999999
s(lp1353
tp1354
a(S')'
p1355
(dp1356
g176
F1.0
s(lp1357
g228
atp1358
a(S'ako'
p1359
(dp1360
S'PRON'
p1361
F0.007235
sS'CONJ'
p1362
F0.992594
sg347
F0.000171
s(lp1363
g238
atp1364
a(S'eur\xc3\xb3pskeho'
p1365
(dp1366
S'ADJ'
p1367
F1.0
s(lp1368
g258
atp1369
a(S'diplomatick\xc3\xa9ho'
p1370
(dp1371
S'ADJ'
p1372
F1.0
s(lp1373
g251
atp1374
a(S'zboru'
p1375
(dp1376
S'NOUN'
p1377
F1.0
s(lp1378
g244
atp1379
a(g174
(dp1380
g176
F1.0
s(lp1381
tp1382
a(S'ktor\xc3\xbd'
p1383
(dp1384
S'PRON'
p1385
F1.0
s(lp1386
g455
atp1387
a(S'sa'
p1388
(dp1389
S'PRT'
p1390
F0.999785
sS'ADP'
p1391
F2e-06
sg347
F0.00021300000000000003
s(lp1392
g462
atp1393
a(S'kone\xc4\x8dne'
p1394
(dp1395
S'ADV'
p1396
F0.634989
sg347
F0.365011
s(lp1397
g264
atp1398
a(S'stal'
p1399
(dp1400
S'VERB'
p1401
F1.0
s(lp1402
g270
atp1403
a(S'skuto\xc4\x8dnos\xc5\xa5ou'
p1404
(dp1405
S'NOUN'
p1406
F1.0
s(lp1407
g276
atp1408
a(g176
(dp1409
g176
F1.0
s(lp1410
g176
atp1411
asS'pl'
p1412
(lp1413
(S'r\xc3\xb3wnie'
p1414
(dp1415
S'ADV'
p1416
F1.0
s(lp1417
g15
atp1418
a(S'istotna'
p1419
(dp1420
S'ADJ'
p1421
F1.0
s(lp1422
g21
atp1423
a(S'jest'
p1424
(dp1425
S'VERB'
p1426
F1.0
s(lp1427
g27
atp1428
a(S'te\xc5\xbc'
p1429
(dp1430
S'PRT'
p1431
F0.994012
sS'CONJ'
p1432
F0.005988
s(lp1433
g35
atp1434
a(S'kwestia'
p1435
(dp1436
S'NOUN'
p1437
F1.0
s(lp1438
g41
atp1439
a(S'multilateralizmu'
p1440
(dp1441
S'ADJ'
p1442
F0.039035
sS'VERB'
p1443
F0.00189
sS'NOUN'
p1444
F0.959075
s(lp1445
g53
atp1446
a(S'ue'
p1447
(dp1448
S'ADJ'
p1449
F0.000255
sS'VERB'
p1450
F0.001151
sS'NOUN'
p1451
F0.9985940000000001
s(lp1452
g72
atp1453
a(S'i'
p1454
(dp1455
S'PRT'
p1456
F0.000937
sS'CONJ'
p1457
F0.998987
sS'NOUN'
p1458
F4.9999999999999996e-05
sg347
F5e-06
sS'PRON'
p1459
F2.1e-05
s(lp1460
g78
atp1461
a(S'konieczno\xc5\x9bci'
p1462
(dp1463
S'NOUN'
p1464
F1.0
s(lp1465
g98
atp1466
a(S'zapewnienia'
p1467
(dp1468
S'VERB'
p1469
F0.728715
sS'NOUN'
p1470
F0.271285
s(lp1471
g127
atp1472
a(S'zawsze'
p1473
(dp1474
S'ADV'
p1475
F1.0
s(lp1476
g120
atp1477
a(S'dobrej'
p1478
(dp1479
S'ADJ'
p1480
F1.0
s(lp1481
g133
atp1482
a(S'reprezentacji'
p1483
(dp1484
S'NOUN'
p1485
F1.0
s(lp1486
g139
atp1487
a(S'w'
p1488
(dp1489
g347
F0.0
sS'ADJ'
p1490
F0.0
sS'ADP'
p1491
F0.999999
sS'NOUN'
p1492
F0.0
s(lp1493
g146
atp1494
a(S'r\xc3\xb3\xc5\xbcnych'
p1495
(dp1496
S'ADJ'
p1497
F0.9999990000000001
s(lp1498
g160
atp1499
a(S'kontekstach'
p1500
(dp1501
S'NOUN'
p1502
F1.0
s(lp1503
tp1504
a(S'strategicznych'
p1505
(dp1506
S'ADJ'
p1507
F1.0
s(lp1508
g172
atp1509
a(g174
(dp1510
g347
F0.0
sg176
F1.0
s(lp1511
g174
atp1512
a(S'z'
p1513
(dp1514
g347
F1e-06
sS'VERB'
p1515
F0.0
sS'NOUN'
p1516
F0.0
sS'ADP'
p1517
F0.9999979999999999
sS'PRT'
p1518
F1e-06
s(lp1519
g195
atp1520
a(S'wykorzystaniem'
p1521
(dp1522
S'VERB'
p1523
F1.0
s(lp1524
g166
atp1525
a(g1488
(dp1526
g347
F0.0
sS'ADJ'
p1527
F0.0
sS'ADP'
p1528
F0.999999
sS'NOUN'
p1529
F0.0
s(lp1530
g396
atp1531
a(S'szczeg\xc3\xb3lno\xc5\x9bci'
p1532
(dp1533
S'NOUN'
p1534
F1.0
s(lp1535
g201
atp1536
a(S'nowej'
p1537
(dp1538
S'NOUN'
p1539
F0.003319
sS'ADJ'
p1540
F0.9966809999999999
s(lp1541
g221
atp1542
a(S'esdz'
p1543
(dp1544
S'ADJ'
p1545
F0.001159
sS'VERB'
p1546
F0.000615
sS'NOUN'
p1547
F0.998225
s(lp1548
g228
atp1549
a(g174
(dp1550
g347
F0.0
sg176
F1.0
s(lp1551
g174
atp1552
a(S'europejskiego'
p1553
(dp1554
S'ADJ'
p1555
F1.0
s(lp1556
g258
atp1557
a(S'korpusu'
p1558
(dp1559
S'NOUN'
p1560
F1.0
s(lp1561
g244
atp1562
a(S'dyplomatycznego'
p1563
(dp1564
S'ADJ'
p1565
F1.0
s(lp1566
g251
atp1567
a(g174
(dp1568
g347
F0.0
sg176
F1.0
s(lp1569
tp1570
a(S'kt\xc3\xb3ry'
p1571
(dp1572
S'ADJ'
p1573
F0.999999
s(lp1574
g455
atp1575
a(S'wreszcie'
p1576
(dp1577
S'ADV'
p1578
F0.11038
sS'PRT'
p1579
F0.88962
s(lp1580
g264
atp1581
a(S'zosta\xc5\x82'
p1582
(dp1583
S'VERB'
p1584
F1.0
s(lp1585
tp1586
a(S'utworzony'
p1587
(dp1588
S'VERB'
p1589
F1.0
s(lp1590
g244
atp1591
a(g176
(dp1592
g176
F1.0
s(lp1593
g176
atp1594
asS'sl'
p1595
(lp1596
(S'prav'
p1597
(dp1598
S'ADV'
p1599
F0.102297
sS'PRT'
p1600
F0.895972
sS'VERB'
p1601
F0.001732
s(lp1602
tp1603
a(S'tako'
p1604
(dp1605
S'ADV'
p1606
F0.980351
sS'PRON'
p1607
F0.011323000000000001
sS'CONJ'
p1608
F0.008325
s(lp1609
g15
atp1610
a(S'pomembno'
p1611
(dp1612
S'ADV'
p1613
F0.001158
sS'ADJ'
p1614
F0.998842
s(lp1615
g21
atp1616
a(S'vpra\xc5\xa1anje'
p1617
(dp1618
S'NOUN'
p1619
F1.0
s(lp1620
g41
atp1621
a(S'je'
p1622
(dp1623
S'PRON'
p1624
F0.000124
sS'VERB'
p1625
F0.999876
sg347
F1e-06
s(lp1626
g27
atp1627
a(S've\xc4\x8dstransko'
p1628
(dp1629
S'ADV'
p1630
F1.0
s(lp1631
tp1632
a(S'delovanje'
p1633
(dp1634
S'NOUN'
p1635
F1.0
s(lp1636
g53
atp1637
a(S'eu'
p1638
(dp1639
S'ADV'
p1640
F0.004802
sS'ADJ'
p1641
F0.181124
sS'VERB'
p1642
F0.001177
sS'NOUN'
p1643
F0.8128939999999998
s(lp1644
g72
atp1645
a(S'in'
p1646
(dp1647
S'ADV'
p1648
F3.2e-05
sg347
F2.6e-05
sS'CONJ'
p1649
F0.99991
sS'NOUN'
p1650
F3.2e-05
s(lp1651
g78
atp1652
a(S'potreba'
p1653
(dp1654
S'NOUN'
p1655
F1.0
s(lp1656
g98
atp1657
a(g174
(dp1658
g176
F1.0
s(lp1659
tp1660
a(S'da'
p1661
(dp1662
S'PRT'
p1663
F4e-06
sS'CONJ'
p1664
F0.999979
sS'VERB'
p1665
F1.7e-05
sg347
F1e-06
s(lp1666
g104
atp1667
a(S'je'
p1668
(dp1669
S'PRON'
p1670
F0.00154
sS'VERB'
p1671
F0.99846
sg347
F0.0
s(lp1672
g127
atp1673
a(S'vedno'
p1674
(dp1675
S'ADV'
p1676
F1.0
s(lp1677
g120
atp1678
a(S'dobro'
p1679
(dp1680
S'ADV'
p1681
F0.967104
sS'NOUN'
p1682
F0.003796
sS'ADJ'
p1683
F0.029039999999999996
sg347
F6.1e-05
s(lp1684
g133
atp1685
a(S'zastopana'
p1686
(dp1687
S'ADV'
p1688
F0.001561
sS'NOUN'
p1689
F0.27004999999999996
sS'VERB'
p1690
F0.030088999999999994
sS'ADJ'
p1691
F0.6982999999999998
s(lp1692
g139
atp1693
a(g1276
(dp1694
S'ADP'
p1695
F1.0
s(lp1696
g146
atp1697
a(S'razli\xc4\x8dnih'
p1698
(dp1699
S'ADJ'
p1700
F1.000001
s(lp1701
g160
atp1702
a(S'strate\xc5\xa1kih'
p1703
(dp1704
S'ADJ'
p1705
F1.0
s(lp1706
g172
atp1707
a(S'okvirih'
p1708
(dp1709
S'NOUN'
p1710
F1.0
s(lp1711
g166
atp1712
a(g174
(dp1713
g176
F1.0
s(lp1714
g174
atp1715
a(S'zlasti'
p1716
(dp1717
S'ADV'
p1718
F0.025437
sS'PRT'
p1719
F0.974563
s(lp1720
g201
atp1721
a(g1513
(dp1722
S'ADP'
p1723
F1.0
s(lp1724
g189
atp1725
a(S'izkori\xc5\xa1\xc4\x8danjem'
p1726
(dp1727
S'NOUN'
p1728
F1.0
s(lp1729
g195
atp1730
a(S'nove'
p1731
(dp1732
g347
F0.000631
sS'ADJ'
p1733
F0.9993700000000001
s(lp1734
g221
atp1735
a(S'evropske'
p1736
(dp1737
S'ADJ'
p1738
F0.9999999999999999
s(lp1739
g228
atp1740
a(S'slu\xc5\xbebe'
p1741
(dp1742
S'NOUN'
p1743
F1.0
s(lp1744
g228
atp1745
a(S'za'
p1746
(dp1747
S'ADV'
p1748
F3.2e-05
sg347
F2e-06
sS'ADP'
p1749
F0.9999659999999999
s(lp1750
g207
atp1751
a(S'zunanje'
p1752
(dp1753
S'ADV'
p1754
F2.2e-05
sS'ADJ'
p1755
F0.999978
s(lp1756
tp1757
a(S'delovanje'
p1758
(dp1759
S'NOUN'
p1760
F1.0
s(lp1761
g228
atp1762
a(g174
(dp1763
g176
F1.0
s(lp1764
g174
atp1765
a(S'evropske'
p1766
(dp1767
S'ADJ'
p1768
F1.000001
s(lp1769
g258
atp1770
a(S'diplomatske'
p1771
(dp1772
S'ADJ'
p1773
F1.0
s(lp1774
g251
atp1775
a(S'slu\xc5\xbebe'
p1776
(dp1777
S'NOUN'
p1778
F0.999999
s(lp1779
g244
atp1780
a(g174
(dp1781
g176
F1.0
s(lp1782
tp1783
a(S'ki'
p1784
(dp1785
S'CONJ'
p1786
F1.0
s(lp1787
g455
atp1788
a(S'je'
p1789
(dp1790
S'PRON'
p1791
F0.001545
sS'VERB'
p1792
F0.9984550000000001
sg347
F0.0
s(lp1793
g462
atp1794
a(S'kon\xc4\x8dno'
p1795
(dp1796
S'ADV'
p1797
F0.998232
sS'ADJ'
p1798
F0.001768
s(lp1799
g264
atp1800
a(S'postala'
p1801
(dp1802
S'VERB'
p1803
F1.0
s(lp1804
g270
atp1805
a(S'realnost'
p1806
(dp1807
S'NOUN'
p1808
F1.0
s(lp1809
g276
atp1810
a(g176
(dp1811
g176
F1.0
s(lp1812
g176
atp1813
asS'es'
p1814
(lp1815
(S'igual'
p1816
(dp1817
S'ADJ'
p1818
F1.0
s(lp1819
g15
atp1820
a(S'de'
p1821
(dp1822
g347
F0.000308
sS'CONJ'
p1823
F0.003572
sS'ADP'
p1824
F0.99612
s(lp1825
tp1826
a(S'importante'
p1827
(dp1828
S'VERB'
p1829
F0.036689
sS'ADJ'
p1830
F0.963311
s(lp1831
g21
atp1832
a(S'son'
p1833
(dp1834
S'VERB'
p1835
F0.999934
sS'NOUN'
p1836
F6.6e-05
s(lp1837
g27
atp1838
a(S'los'
p1839
(dp1840
S'PRON'
p1841
F0.0
sS'DET'
p1842
F1.0
s(lp1843
g35
atp1844
a(S'problemas'
p1845
(dp1846
S'NOUN'
p1847
F1.0
s(lp1848
g41
atp1849
a(S'multilaterales'
p1850
(dp1851
S'ADJ'
p1852
F1.0
s(lp1853
g53
atp1854
a(S'de'
p1855
(dp1856
g347
F0.0
sS'CONJ'
p1857
F5.7e-05
sS'ADP'
p1858
F0.999943
s(lp1859
tp1860
a(S'la'
p1861
(dp1862
g347
F0.0
sS'PRON'
p1863
F0.0
sS'DET'
p1864
F0.999999
sS'NOUN'
p1865
F0.0
s(lp1866
tp1867
a(S'ue'
p1868
(dp1869
S'VERB'
p1870
F4e-06
sS'NOUN'
p1871
F0.999995
s(lp1872
g72
atp1873
a(S'y'
p1874
(dp1875
g347
F0.000395
sS'CONJ'
p1876
F0.999605
s(lp1877
g78
atp1878
a(S'la'
p1879
(dp1880
S'PRON'
p1881
F0.000591
sS'DET'
p1882
F0.999408
sS'NOUN'
p1883
F0.0
sg347
F0.0
s(lp1884
g91
atp1885
a(S'necesidad'
p1886
(dp1887
S'NOUN'
p1888
F1.0
s(lp1889
g98
atp1890
a(S'de'
p1891
(dp1892
g347
F0.0
sS'CONJ'
p1893
F0.066337
sS'ADP'
p1894
F0.933663
s(lp1895
g104
atp1896
a(S'ser'
p1897
(dp1898
S'VERB'
p1899
F0.997556
sS'NOUN'
p1900
F0.002444
s(lp1901
g127
atp1902
a(S'siempre'
p1903
(dp1904
S'ADV'
p1905
F1.0
s(lp1906
g120
atp1907
a(S'bien'
p1908
(dp1909
S'ADV'
p1910
F0.995395
sS'NOUN'
p1911
F0.004605
s(lp1912
g133
atp1913
a(S'representados'
p1914
(dp1915
S'VERB'
p1916
F1.0
s(lp1917
g139
atp1918
a(S'en'
p1919
(dp1920
g347
F0.0
sS'CONJ'
p1921
F0.0
sS'ADP'
p1922
F1.0
s(lp1923
g146
atp1924
a(S'los'
p1925
(dp1926
S'PRON'
p1927
F0.0
sS'DET'
p1928
F1.0
s(lp1929
g154
atp1930
a(S'diferentes'
p1931
(dp1932
S'ADJ'
p1933
F1.0
s(lp1934
g160
atp1935
a(S'contextos'
p1936
(dp1937
S'NOUN'
p1938
F1.0
s(lp1939
g166
atp1940
a(S'estrat\xc3\xa9gicos'
p1941
(dp1942
S'ADJ'
p1943
F1.0
s(lp1944
g172
atp1945
a(g174
(dp1946
g176
F1.0
s(lp1947
g174
atp1948
a(S'tomando'
p1949
(dp1950
S'VERB'
p1951
F1.0
s(lp1952
g189
atp1953
a(S'ventaja'
p1954
(dp1955
S'NOUN'
p1956
F1.0
s(lp1957
g195
atp1958
a(g174
(dp1959
g176
F1.0
s(lp1960
g174
atp1961
a(S'en'
p1962
(dp1963
S'ADV'
p1964
F1.0
s(lp1965
g396
atp1966
a(S'particular'
p1967
(dp1968
S'ADV'
p1969
F1.0
s(lp1970
g201
atp1971
a(g174
(dp1972
g176
F1.0
s(lp1973
g174
atp1974
a(S'del'
p1975
(dp1976
S'ADP'
p1977
F1.0
s(lp1978
g207
atp1979
a(S'nuevo'
p1980
(dp1981
S'ADJ'
p1982
F1.0
s(lp1983
g221
atp1984
a(S'seae'
p1985
(dp1986
S'ADV'
p1987
F0.06584
sS'ADJ'
p1988
F0.106232
sS'VERB'
p1989
F0.277724
sS'NOUN'
p1990
F0.550204
s(lp1991
g228
atp1992
a(g174
(dp1993
g176
F1.0
s(lp1994
g174
atp1995
a(S'el'
p1996
(dp1997
S'PRON'
p1998
F1e-05
sS'DET'
p1999
F0.99999
s(lp2000
g238
atp2001
a(S'cuerpo'
p2002
(dp2003
S'NOUN'
p2004
F1.0
s(lp2005
g244
atp2006
a(S'diplom\xc3\xa1tico'
p2007
(dp2008
S'NOUN'
p2009
F0.299473
sS'ADJ'
p2010
F0.700527
s(lp2011
g251
atp2012
a(S'europeo'
p2013
(dp2014
S'NOUN'
p2015
F0.024956
sS'ADJ'
p2016
F0.975044
s(lp2017
g258
atp2018
a(S'que'
p2019
(dp2020
g347
F0.0
sS'CONJ'
p2021
F1.0
s(lp2022
g455
atp2023
a(S'finalmente'
p2024
(dp2025
S'ADV'
p2026
F1.0
s(lp2027
g264
atp2028
a(S'se'
p2029
(dp2030
S'PRON'
p2031
F1.0
sS'VERB'
p2032
F0.0
s(lp2033
tp2034
a(S'ha'
p2035
(dp2036
S'VERB'
p2037
F1.0
s(lp2038
g462
atp2039
a(S'vuelto'
p2040
(dp2041
S'VERB'
p2042
F1.0
s(lp2043
g270
atp2044
a(S'una'
p2045
(dp2046
S'DET'
p2047
F1.0
s(lp2048
g475
atp2049
a(S'realidad'
p2050
(dp2051
S'NOUN'
p2052
F1.0
s(lp2053
g276
atp2054
a(g176
(dp2055
g176
F1.0
s(lp2056
g176
atp2057
as.