(dp0
S'fr'
p1
(lp2
(S'quoi'
p3
(dp4
S'PRON'
p5
F1.0
s(lp6
S'anyway'
p7
atp8
a(S"qu'"
p9
(dp10
S'ADJ'
p11
F0.375687
sS'VERB'
p12
F0.20667600000000003
sS'NOUN'
p13
F0.417637
s(lp14
g7
atp15
a(S'il'
p16
(dp17
S'PRON'
p18
F1.0
s(lp19
g7
atp20
a(S'en'
p21
(dp22
S'PRON'
p23
F0.99945
sS'ADP'
p24
F0.00055
s(lp25
tp26
a(S'soit'
p27
(dp28
S'ADV'
p29
F0.02671
sS'CONJ'
p30
F0.000432
sS'VERB'
p31
F0.972858
s(lp32
g7
atp33
a(S','
p34
(dp35
S'.'
p36
F1.0
s(lp37
g34
atp38
a(S'd\xc3\xa9montrons'
p39
(dp40
S'VERB'
p41
F1.0
s(lp42
S'demonstrate'
p43
atp44
a(S'ensemble'
p45
(dp46
S'ADV'
p47
F0.833419
sS'NOUN'
p48
F0.166581
s(lp49
S'together'
p50
atp51
a(g34
(dp52
g36
F1.0
s(lp53
tp54
a(S'une'
p55
(dp56
S'NOUN'
p57
F1.5e-05
sS'NUM'
p58
F0.021976
sS'DET'
p59
F0.978009
s(lp60
tp61
a(S'fois'
p62
(dp63
S'NOUN'
p64
F1.0
s(lp65
S'once'
p66
atp67
a(S'de'
p68
(dp69
S'ADP'
p70
F1.0
s(lp71
tp72
a(S'plus'
p73
(dp74
S'ADV'
p75
F1.0
sS'VERB'
p76
F0.0
s(lp77
S'again'
p78
atp79
a(g34
(dp80
g36
F1.0
s(lp81
g34
atp82
a(S'que'
p83
(dp84
S'ADV'
p85
F0.012137
sS'PRON'
p86
F0.169325
sS'CONJ'
p87
F0.818538
s(lp88
S'that'
p89
atp90
a(S'la'
p91
(dp92
S'PRON'
p93
F0.000143
sS'DET'
p94
F0.999857
sS'NOUN'
p95
F0.0
s(lp96
S'the'
p97
atp98
a(S'm\xc3\xa9thode'
p99
(dp100
S'NOUN'
p101
F1.0
s(lp102
S'method'
p103
atp104
a(S'communautaire'
p105
(dp106
S'ADJ'
p107
F1.0
s(lp108
S'community'
p109
atp110
a(S'permet'
p111
(dp112
S'VERB'
p113
F1.0
s(lp114
S'can'
p115
atp116
a(S"d'"
p117
(dp118
S'NOUN'
p119
F0.087886
sS'VERB'
p120
F0.7995690000000001
sS'ADJ'
p121
F0.112546
s(lp122
tp123
a(S'obtenir'
p124
(dp125
S'VERB'
p126
F1.0
s(lp127
S'deliver'
p128
atp129
a(S'des'
p130
(dp131
S'DET'
p132
F0.000198
sS'ADP'
p133
F0.999802
s(lp134
tp135
a(S'r\xc3\xa9sultats'
p136
(dp137
S'NOUN'
p138
F1.0
s(lp139
S'deliver'
p140
atp141
a(g36
(dp142
g36
F1.0
s(lp143
S'and'
p144
atp145
a(S'elle'
p146
(dp147
S'PRON'
p148
F1.0
s(lp149
S'it'
p150
atp151
a(S'doit'
p152
(dp153
S'VERB'
p154
F0.999944
sS'NOUN'
p155
F5.6e-05
s(lp156
tp157
a(S'en'
p158
(dp159
S'PRON'
p160
F0.037281
sS'ADP'
p161
F0.962719
s(lp162
tp163
a(S'obtenir'
p164
(dp165
S'VERB'
p166
F1.0
s(lp167
g140
atp168
a(S"aujourd'"
p169
(dp170
S'ADJ'
p171
F0.377424
sS'VERB'
p172
F0.072417
sS'NOUN'
p173
F0.550158
s(lp174
tp175
a(S'hui'
p176
(dp177
S'ADJ'
p178
F0.080146
sS'VERB'
p179
F0.36491399999999996
sS'NOUN'
p180
F0.554941
s(lp181
S'now'
p182
atp183
a(g34
(dp184
g36
F1.0
s(lp185
g34
atp186
a(S'elle'
p187
(dp188
S'PRON'
p189
F1.0
s(lp190
tp191
a(S'doit'
p192
(dp193
S'VERB'
p194
F0.999998
sS'NOUN'
p195
F2e-06
s(lp196
S'must'
p197
atp198
a(S'aboutir'
p199
(dp200
S'VERB'
p201
F1.0
s(lp202
g140
atp203
a(S'\xc3\xa0'
p204
(dp205
S'ADP'
p206
F1.0
s(lp207
tp208
a(S'ce'
p209
(dp210
S'PRON'
p211
F1.0
s(lp212
S'the'
p213
atp214
a(S'nouveau'
p215
(dp216
S'NOUN'
p217
F0.008036
sS'ADJ'
p218
F0.991964
s(lp219
S'new'
p220
atp221
a(S'syst\xc3\xa8me'
p222
(dp223
S'NOUN'
p224
F1.0
s(lp225
S'system'
p226
atp227
a(S'de'
p228
(dp229
S'ADP'
p230
F1.0
s(lp231
S'of'
p232
atp233
a(S'gouvernance'
p234
(dp235
S'NOUN'
p236
F1.0
s(lp237
S'governance'
p238
atp239
a(S'\xc3\xa9conomique'
p240
(dp241
S'NOUN'
p242
F0.003145
sS'ADJ'
p243
F0.996855
s(lp244
S'economic'
p245
atp246
a(g34
(dp247
g36
F1.0
s(lp248
g34
atp249
a(S'et'
p250
(dp251
S'CONJ'
p252
F1.0
s(lp253
S'and'
p254
atp255
a(S'compl\xc3\xa9tons'
p256
(dp257
S'VERB'
p258
F1.0
s(lp259
S'complement'
p260
atp261
a(S'donc'
p262
(dp263
S'ADV'
p264
F1.0
s(lp265
S'thus'
p266
atp267
a(S'notre'
p268
(dp269
S'PRON'
p270
F1.0
s(lp271
S'us'
p272
atp273
a(S'robuste'
p274
(dp275
S'ADJ'
p276
F1.0
s(lp277
S'strong'
p278
atp279
a(S'union'
p280
(dp281
S'NOUN'
p282
F1.0
s(lp283
S'union'
p284
atp285
a(S'mon\xc3\xa9taire'
p286
(dp287
S'ADJ'
p288
F1.0
s(lp289
S'monetary'
p290
atp291
a(S'par'
p292
(dp293
S'NOUN'
p294
F2e-06
sS'ADP'
p295
F0.999998
s(lp296
S'by'
p297
atp298
a(S'une'
p299
(dp300
S'NOUN'
p301
F1.8e-05
sS'NUM'
p302
F0.024699
sS'DET'
p303
F0.975283
s(lp304
S'a'
p305
atp306
a(S'union'
p307
(dp308
S'NOUN'
p309
F1.0
s(lp310
S'union'
p311
atp312
a(S'\xc3\xa9conomique'
p313
(dp314
S'NOUN'
p315
F0.044153
sS'ADJ'
p316
F0.955847
s(lp317
S'economic'
p318
atp319
a(S'forte'
p320
(dp321
S'ADV'
p322
F0.030955
sS'NOUN'
p323
F0.062338
sS'ADJ'
p324
F0.906707
s(lp325
S'strong'
p326
atp327
a(S'et'
p328
(dp329
S'CONJ'
p330
F1.0
s(lp331
S'and'
p332
atp333
a(S'efficace'
p334
(dp335
S'NOUN'
p336
F0.028112
sS'ADJ'
p337
F0.971888
s(lp338
S'effective'
p339
atp340
a(S'afin'
p341
(dp342
S'CONJ'
p343
F1.0
s(lp344
tp345
a(S"d'"
p346
(dp347
S'NOUN'
p348
F0.050387
sS'VERB'
p349
F0.8915730000000001
sS'ADJ'
p350
F0.05804
s(lp351
S'to'
p352
atp353
a(S'arriver'
p354
(dp355
S'VERB'
p356
F1.0
s(lp357
tp358
a(S'\xc3\xa0'
p359
(dp360
S'ADP'
p361
F1.0
s(lp362
S'make'
p363
atp364
a(S'une'
p365
(dp366
S'NOUN'
p367
F1.8e-05
sS'NUM'
p368
F0.024699
sS'DET'
p369
F0.975283
s(lp370
g305
atp371
a(S'union'
p372
(dp373
S'NOUN'
p374
F1.0
s(lp375
S'union'
p376
atp377
a(S'\xc3\xa9conomique'
p378
(dp379
S'NOUN'
p380
F0.002475
sS'ADJ'
p381
F0.997525
s(lp382
S'economic'
p383
atp384
a(S'et'
p385
(dp386
S'CONJ'
p387
F1.0
s(lp388
S'and'
p389
atp390
a(S'mon\xc3\xa9taire'
p391
(dp392
S'ADJ'
p393
F1.0
s(lp394
S'monetary'
p395
atp396
a(S'authentique'
p397
(dp398
S'VERB'
p399
F0.180098
sS'ADJ'
p400
F0.819902
s(lp401
S'real'
p402
atp403
a(S'et'
p404
(dp405
S'CONJ'
p406
F1.0
s(lp407
S'and'
p408
atp409
a(S'compl\xc3\xa8te'
p410
(dp411
S'VERB'
p412
F0.07954900000000001
sS'ADJ'
p413
F0.920451
s(lp414
S'complete'
p415
atp416
a(g36
(dp417
g36
F1.0
s(lp418
g36
atp419
asS'en'
p420
(lp421
(g7
(dp422
S'ADV'
p423
F1.0
s(lp424
g7
atp425
a(g34
(dp426
g36
F1.0
s(lp427
g34
atp428
a(S'let'
p429
(dp430
S'VERB'
p431
F0.9998900000000001
sS'NOUN'
p432
F0.000109
s(lp433
g429
atp434
a(S'us'
p435
(dp436
S'PRON'
p437
F1.0
s(lp438
g435
atp439
a(g43
(dp440
S'VERB'
p441
F1.0
s(lp442
g43
atp443
a(g50
(dp444
S'ADV'
p445
F1.0
s(lp446
g50
atp447
a(g66
(dp448
S'ADV'
p449
F0.967562
sS'NOUN'
p450
F2e-06
sS'ADP'
p451
F0.032436
s(lp452
g66
atp453
a(g78
(dp454
S'ADV'
p455
F1.0
s(lp456
g78
atp457
a(g89
(dp458
S'ADV'
p459
F0.077037
sS'DET'
p460
F0.023115
sS'ADP'
p461
F0.899848
s(lp462
g89
atp463
a(g97
(dp464
S'NOUN'
p465
F1.2e-05
sS'DET'
p466
F0.999988
s(lp467
g97
atp468
a(g109
(dp469
S'NOUN'
p470
F1.0
s(lp471
g109
atp472
a(g103
(dp473
S'NOUN'
p474
F1.0
s(lp475
g103
atp476
a(g115
(dp477
S'VERB'
p478
F0.999993
sS'NOUN'
p479
F7e-06
s(lp480
g115
atp481
a(g128
(dp482
S'VERB'
p483
F1.0
s(lp484
g128
atp485
a(g34
(dp486
g36
F1.0
s(lp487
g34
atp488
a(g144
(dp489
S'CONJ'
p490
F0.999999
sS'NOUN'
p491
F1e-06
s(lp492
g144
atp493
a(g182
(dp494
S'ADV'
p495
F0.999613
sS'NOUN'
p496
F1e-06
sS'ADP'
p497
F0.000386
s(lp498
g182
atp499
a(g150
(dp500
S'PRON'
p501
F1.0
s(lp502
g150
atp503
a(g197
(dp504
S'VERB'
p505
F1.0
sS'NOUN'
p506
F0.0
s(lp507
g197
atp508
a(g140
(dp509
S'VERB'
p510
F1.0
s(lp511
g140
atp512
a(g34
(dp513
g36
F1.0
s(lp514
g34
atp515
a(g213
(dp516
S'NOUN'
p517
F2e-06
sS'DET'
p518
F0.999998
s(lp519
g213
atp520
a(g220
(dp521
S'NOUN'
p522
F5.2e-05
sS'ADJ'
p523
F0.999948
s(lp524
g220
atp525
a(g226
(dp526
S'NOUN'
p527
F1.0
s(lp528
g226
atp529
a(g232
(dp530
S'ADP'
p531
F1.0
s(lp532
g232
atp533
a(g245
(dp534
S'ADJ'
p535
F1.0
s(lp536
g245
atp537
a(g238
(dp538
S'NOUN'
p539
F1.0
s(lp540
g238
atp541
a(g34
(dp542
g36
F1.0
s(lp543
g34
atp544
a(g254
(dp545
S'CONJ'
p546
F0.999999
sS'NOUN'
p547
F1e-06
s(lp548
g254
atp549
a(S'let'
p550
(dp551
S'VERB'
p552
F0.999843
sS'NOUN'
p553
F0.000156
s(lp554
g550
atp555
a(g272
(dp556
S'PRON'
p557
F1.0
s(lp558
g272
atp559
a(g266
(dp560
S'ADV'
p561
F1.0
s(lp562
g266
atp563
a(g260
(dp564
S'VERB'
p565
F0.998455
sS'NOUN'
p566
F0.001545
s(lp567
g260
atp568
a(S'the'
p569
(dp570
S'NOUN'
p571
F0.0
sS'DET'
p572
F1.0
s(lp573
g569
atp574
a(g278
(dp575
S'ADV'
p576
F0.001356
sS'ADJ'
p577
F0.998644
s(lp578
g278
atp579
a(g290
(dp580
S'ADJ'
p581
F1.0
s(lp582
g290
atp583
a(g284
(dp584
S'NOUN'
p585
F1.0
s(lp586
g284
atp587
a(g297
(dp588
S'ADV'
p589
F7.2e-05
sS'NOUN'
p590
F0.0
sS'ADP'
p591
F0.999928
s(lp592
g297
atp593
a(g305
(dp594
S'NOUN'
p595
F0.0
sS'DET'
p596
F1.0
s(lp597
g305
atp598
a(g326
(dp599
S'ADV'
p600
F0.000429
sS'ADJ'
p601
F0.999571
s(lp602
g326
atp603
a(g332
(dp604
S'CONJ'
p605
F0.999998
sS'NOUN'
p606
F2e-06
s(lp607
g332
atp608
a(g339
(dp609
S'NOUN'
p610
F0.000508
sS'ADJ'
p611
F0.999492
s(lp612
g339
atp613
a(g318
(dp614
S'ADJ'
p615
F1.0
s(lp616
g318
atp617
a(g311
(dp618
S'NOUN'
p619
F1.0
s(lp620
g311
atp621
a(g352
(dp622
S'ADV'
p623
F0.0
sS'PRT'
p624
F1.0
sS'ADP'
p625
F0.0
s(lp626
g352
atp627
a(g363
(dp628
S'VERB'
p629
F0.999999
sS'NOUN'
p630
F1e-06
s(lp631
g363
atp632
a(g305
(dp633
S'NOUN'
p634
F0.0
sS'DET'
p635
F1.0
s(lp636
g305
atp637
a(g402
(dp638
S'ADV'
p639
F0.000606
sS'NOUN'
p640
F0.014779
sS'ADJ'
p641
F0.984614
s(lp642
g402
atp643
a(g408
(dp644
S'CONJ'
p645
F0.999998
sS'NOUN'
p646
F2e-06
s(lp647
g408
atp648
a(g415
(dp649
S'VERB'
p650
F0.440021
sS'ADJ'
p651
F0.559979
s(lp652
g415
atp653
a(g383
(dp654
S'ADJ'
p655
F1.0
s(lp656
g383
atp657
a(g389
(dp658
S'CONJ'
p659
F0.999998
sS'NOUN'
p660
F2e-06
s(lp661
g389
atp662
a(g395
(dp663
S'ADJ'
p664
F1.0
s(lp665
g395
atp666
a(g376
(dp667
S'NOUN'
p668
F1.0
s(lp669
g376
atp670
a(g36
(dp671
g36
F1.0
s(lp672
g36
atp673
asS'nl'
p674
(lp675
(S'laat'
p676
(dp677
S'VERB'
p678
F0.999796
sS'ADJ'
p679
F0.000204
s(lp680
g429
atp681
a(S'ons'
p682
(dp683
S'PRON'
p684
F0.999855
sS'NOUN'
p685
F0.000145
s(lp686
tp687
a(S'nogmaals'
p688
(dp689
S'ADV'
p690
F1.0
s(lp691
g78
atp692
a(S'gezamenlijk'
p693
(dp694
S'ADJ'
p695
F1.0
s(lp696
g50
atp697
a(S'aantonen'
p698
(dp699
S'VERB'
p700
F0.997359
sS'NOUN'
p701
F0.002641
s(lp702
g43
atp703
a(S'dat'
p704
(dp705
S'PRON'
p706
F0.019728
sS'CONJ'
p707
F0.980271
s(lp708
g89
atp709
a(S'we'
p710
(dp711
S'PRON'
p712
F1.0
s(lp713
g435
atp714
a(S'met'
p715
(dp716
S'ADP'
p717
F1.0
s(lp718
tp719
a(S'de'
p720
(dp721
S'DET'
p722
F1.0
s(lp723
g97
atp724
a(S'communautaire'
p725
(dp726
S'NOUN'
p727
F0.006177
sS'ADJ'
p728
F0.993823
s(lp729
g109
atp730
a(S'methode'
p731
(dp732
S'NOUN'
p733
F1.0
s(lp734
g103
atp735
a(S'resultaten'
p736
(dp737
S'NOUN'
p738
F1.0
s(lp739
tp740
a(S'kunnen'
p741
(dp742
S'VERB'
p743
F0.9999830000000001
sS'NOUN'
p744
F1.7e-05
s(lp745
g115
atp746
a(S'boeken'
p747
(dp748
S'VERB'
p749
F0.970785
sS'NOUN'
p750
F0.029215
s(lp751
g128
atp752
a(g34
(dp753
g36
F1.0
s(lp754
g34
atp755
a(S'en'
p756
(dp757
S'CONJ'
p758
F1.0
s(lp759
g144
atp760
a(S'gezien'
p761
(dp762
S'VERB'
p763
F0.009029
sS'ADJ'
p764
F2.8e-05
sS'ADP'
p765
F0.990943
s(lp766
g182
atp767
a(S'het'
p768
(dp769
S'PRON'
p770
F0.006517
sS'DET'
p771
F0.993483
s(lp772
g213
atp773
a(S'nieuwe'
p774
(dp775
S'NOUN'
p776
F1.7e-05
sS'ADJ'
p777
F0.999983
s(lp778
g220
atp779
a(S'systeem'
p780
(dp781
S'NOUN'
p782
F1.0
s(lp783
g226
atp784
a(S'voor'
p785
(dp786
S'ADV'
p787
F0.026659
sS'CONJ'
p788
F3e-06
sS'NOUN'
p789
F0.0
sS'ADP'
p790
F0.973338
s(lp791
g232
atp792
a(S'economisch'
p793
(dp794
S'ADJ'
p795
F1.0
s(lp796
g245
atp797
a(S'bestuur'
p798
(dp799
S'VERB'
p800
F2e-06
sS'NOUN'
p801
F0.999998
s(lp802
g238
atp803
a(S'moet'
p804
(dp805
S'VERB'
p806
F1.0
s(lp807
g197
atp808
a(S'dit'
p809
(dp810
S'PRON'
p811
F1.0
s(lp812
g150
atp813
a(S'zelfs'
p814
(dp815
S'ADV'
p816
F1.0
s(lp817
g34
atp818
a(g36
(dp819
g36
F1.0
s(lp820
g254
atp821
a(S'laat'
p822
(dp823
S'VERB'
p824
F0.999796
sS'ADJ'
p825
F0.000204
s(lp826
g550
atp827
a(S'ons'
p828
(dp829
S'PRON'
p830
F0.999855
sS'NOUN'
p831
F0.000145
s(lp832
g272
atp833
a(S'derhalve'
p834
(dp835
S'ADV'
p836
F1.0
s(lp837
g266
atp838
a(S'de'
p839
(dp840
S'DET'
p841
F1.0
s(lp842
g569
atp843
a(S'krachtige'
p844
(dp845
S'NOUN'
p846
F0.043146
sS'ADJ'
p847
F0.956854
s(lp848
g278
atp849
a(S'monetaire'
p850
(dp851
S'NOUN'
p852
F0.007546
sS'ADJ'
p853
F0.992454
s(lp854
g290
atp855
a(S'unie'
p856
(dp857
S'NOUN'
p858
F1.0
s(lp859
g284
atp860
a(S'aanvullen'
p861
(dp862
S'VERB'
p863
F0.999888
sS'NOUN'
p864
F0.000112
s(lp865
g260
atp866
a(S'met'
p867
(dp868
S'ADP'
p869
F1.0
s(lp870
g297
atp871
a(S'een'
p872
(dp873
S'ADJ'
p874
F1e-06
sS'PRON'
p875
F0.000457
sS'NUM'
p876
F1e-06
sS'DET'
p877
F0.999542
s(lp878
g305
atp879
a(S'krachtige'
p880
(dp881
S'NOUN'
p882
F0.130814
sS'ADJ'
p883
F0.869186
s(lp884
g326
atp885
a(S'en'
p886
(dp887
S'CONJ'
p888
F1.0
s(lp889
g332
atp890
a(S'doeltreffende'
p891
(dp892
S'NOUN'
p893
F0.001575
sS'ADJ'
p894
F0.998425
s(lp895
g339
atp896
a(S'economische'
p897
(dp898
S'NOUN'
p899
F5e-05
sS'ADJ'
p900
F0.99995
s(lp901
g318
atp902
a(S'unie'
p903
(dp904
S'NOUN'
p905
F1.0
s(lp906
g311
atp907
a(S'om'
p908
(dp909
S'ADV'
p910
F0.04986
sS'CONJ'
p911
F0.671229
sS'ADP'
p912
F0.278911
s(lp913
g352
atp914
a(S'zo'
p915
(dp916
S'ADV'
p917
F0.999895
sS'X'
p918
F0.0
sS'CONJ'
p919
F0.000105
s(lp920
g363
atp921
a(S'een'
p922
(dp923
S'ADJ'
p924
F8e-06
sS'PRON'
p925
F0.000741
sS'NUM'
p926
F2e-06
sS'DET'
p927
F0.999249
s(lp928
g305
atp929
a(S'echte'
p930
(dp931
S'NOUN'
p932
F0.017382
sS'ADJ'
p933
F0.982618
s(lp934
g402
atp935
a(S'en'
p936
(dp937
S'CONJ'
p938
F1.0
s(lp939
g408
atp940
a(S'complete'
p941
(dp942
S'NOUN'
p943
F0.013231
sS'ADJ'
p944
F0.986769
s(lp945
g415
atp946
a(S'economische'
p947
(dp948
S'NOUN'
p949
F0.001191
sS'ADJ'
p950
F0.998809
s(lp951
g383
atp952
a(S'en'
p953
(dp954
S'CONJ'
p955
F1.0
s(lp956
g389
atp957
a(S'monetaire'
p958
(dp959
S'NOUN'
p960
F0.001834
sS'ADJ'
p961
F0.998166
s(lp962
g395
atp963
a(S'unie'
p964
(dp965
S'NOUN'
p966
F1.0
s(lp967
g376
atp968
a(S'tot'
p969
(dp970
S'CONJ'
p971
F8e-06
sS'ADP'
p972
F0.999992
s(lp973
g363
atp974
a(S'stand'
p975
(dp976
S'NOUN'
p977
F1.0
s(lp978
tp979
a(S'te'
p980
(dp981
S'PRT'
p982
F1.0
s(lp983
tp984
a(S'brengen'
p985
(dp986
S'VERB'
p987
F1.0
sS'NOUN'
p988
F0.0
s(lp989
g363
atp990
a(g36
(dp991
g36
F1.0
s(lp992
g36
atp993
asS'de'
p994
(lp995
(S'lassen'
p996
(dp997
S'VERB'
p998
F0.999679
sS'ADJ'
p999
F0.000292
s(lp1000
tp1001
a(S'sie'
p1002
(dp1003
S'PRON'
p1004
F1.0
s(lp1005
g429
atp1006
a(S'uns'
p1007
(dp1008
S'PRON'
p1009
F1.0
s(lp1010
g435
atp1011
a(S'trotzdem'
p1012
(dp1013
S'ADV'
p1014
F0.999992
sS'CONJ'
p1015
F8e-06
s(lp1016
g7
atp1017
a(S'erneut'
p1018
(dp1019
S'VERB'
p1020
F0.041744
sS'ADJ'
p1021
F0.955841
s(lp1022
g78
atp1023
a(S'zusammen'
p1024
(dp1025
S'ADV'
p1026
F0.624814
sS'PRT'
p1027
F0.375186
s(lp1028
g50
atp1029
a(S'zeigen'
p1030
(dp1031
S'VERB'
p1032
F1.0
s(lp1033
g43
atp1034
a(g34
(dp1035
g36
F1.0
s(lp1036
tp1037
a(S'dass'
p1038
(dp1039
S'CONJ'
p1040
F1.0
s(lp1041
g89
atp1042
a(S'die'
p1043
(dp1044
S'PRON'
p1045
F0.00087
sS'DET'
p1046
F0.998999
s(lp1047
g97
atp1048
a(S'gemeinschaftsmethode'
p1049
(dp1050
S'ADJ'
p1051
F9.4e-05
sS'NOUN'
p1052
F0.999794
s(lp1053
g103
atp1054
a(S'das'
p1055
(dp1056
S'PRON'
p1057
F0.008065
sS'DET'
p1058
F0.991912
s(lp1059
g213
atp1060
a(S'neue'
p1061
(dp1062
S'ADJ'
p1063
F1.0
s(lp1064
g220
atp1065
a(S'system'
p1066
(dp1067
S'ADJ'
p1068
F0.001548
sS'NOUN'
p1069
F0.995681
s(lp1070
g226
atp1071
a(S'der'
p1072
(dp1073
S'PRON'
p1074
F2.8e-05
sS'DET'
p1075
F0.999959
s(lp1076
g232
atp1077
a(S'economic'
p1078
(dp1079
S'ADJ'
p1080
F0.119528
sS'NOUN'
p1081
F0.880402
s(lp1082
g245
atp1083
a(S'governance'
p1084
(dp1085
S'NOUN'
p1086
F0.9863219999999999
s(lp1087
g238
atp1088
a(S'umsetzen'
p1089
(dp1090
S'VERB'
p1091
F1.0
s(lp1092
g140
atp1093
a(S'kann'
p1094
(dp1095
S'VERB'
p1096
F1.0
s(lp1097
g115
atp1098
a(S'und'
p1099
(dp1100
S'CONJ'
p1101
F1.0
s(lp1102
g144
atp1103
a(S'jetzt'
p1104
(dp1105
S'ADV'
p1106
F1.0
s(lp1107
g182
atp1108
a(S'muss'
p1109
(dp1110
S'VERB'
p1111
F1.0
s(lp1112
g197
atp1113
a(g34
(dp1114
g36
F1.0
s(lp1115
g34
atp1116
a(S'und'
p1117
(dp1118
S'CONJ'
p1119
F1.0
s(lp1120
g254
atp1121
a(S'lassen'
p1122
(dp1123
S'VERB'
p1124
F0.999978
sS'ADJ'
p1125
F1.4e-05
s(lp1126
tp1127
a(S'sie'
p1128
(dp1129
S'PRON'
p1130
F1.0
s(lp1131
g550
atp1132
a(S'uns'
p1133
(dp1134
S'PRON'
p1135
F1.0
s(lp1136
g272
atp1137
a(S'damit'
p1138
(dp1139
S'ADV'
p1140
F0.999239
sS'CONJ'
p1141
F0.000761
s(lp1142
g266
atp1143
a(S'die'
p1144
(dp1145
S'PRON'
p1146
F0.002175
sS'DET'
p1147
F0.996603
s(lp1148
g569
atp1149
a(S'starke'
p1150
(dp1151
S'ADJ'
p1152
F1.0
s(lp1153
g278
atp1154
a(S'w\xc3\xa4hrungseinheit'
p1155
(dp1156
S'VERB'
p1157
F1.8e-05
sS'NOUN'
p1158
F0.999955
s(lp1159
g290
atp1160
a(S'durch'
p1161
(dp1162
S'PRT'
p1163
F0.000387
sS'ADP'
p1164
F0.999572
s(lp1165
g297
atp1166
a(S'eine'
p1167
(dp1168
S'PRON'
p1169
F0.001197
sS'DET'
p1170
F0.998738
s(lp1171
g305
atp1172
a(S'starke'
p1173
(dp1174
S'ADJ'
p1175
F1.0
s(lp1176
g326
atp1177
a(S'und'
p1178
(dp1179
S'CONJ'
p1180
F1.0
s(lp1181
g332
atp1182
a(S'effektive'
p1183
(dp1184
S'ADJ'
p1185
F1.0
s(lp1186
g339
atp1187
a(S'wirtschaftsunion'
p1188
(dp1189
S'NOUN'
p1190
F0.999968
s(lp1191
g318
atp1192
a(S'erg\xc3\xa4nzen'
p1193
(dp1194
S'VERB'
p1195
F1.0
s(lp1196
g260
atp1197
a(g34
(dp1198
g36
F1.0
s(lp1199
tp1200
a(S'um'
p1201
(dp1202
S'CONJ'
p1203
F0.638201
sS'ADP'
p1204
F0.361666
s(lp1205
g352
atp1206
a(S'eine'
p1207
(dp1208
S'PRON'
p1209
F0.000611
sS'DET'
p1210
F0.999303
s(lp1211
g305
atp1212
a(S'echte'
p1213
(dp1214
S'ADJ'
p1215
F1.0
s(lp1216
g402
atp1217
a(S'und'
p1218
(dp1219
S'CONJ'
p1220
F1.0
s(lp1221
g408
atp1222
a(S'vollst\xc3\xa4ndige'
p1223
(dp1224
S'ADJ'
p1225
F1.0
s(lp1226
g415
atp1227
a(S'wirtschafts-'
p1228
(dp1229
g918
F1.0
s(lp1230
g383
atp1231
a(S'und'
p1232
(dp1233
S'CONJ'
p1234
F1.0
s(lp1235
g389
atp1236
a(S'w\xc3\xa4hrungsunion'
p1237
(dp1238
S'NOUN'
p1239
F0.992455
s(lp1240
g395
atp1241
a(S'zu'
p1242
(dp1243
S'PRT'
p1244
F0.999971
s(lp1245
tp1246
a(S'schaffen'
p1247
(dp1248
S'VERB'
p1249
F1.0
s(lp1250
g363
atp1251
a(g36
(dp1252
g36
F1.0
s(lp1253
g36
atp1254
asS'it'
p1255
(lp1256
(S'cerchiamo'
p1257
(dp1258
S'VERB'
p1259
F1.0
s(lp1260
g429
atp1261
a(S'comunque'
p1262
(dp1263
S'ADV'
p1264
F1.0
s(lp1265
g7
atp1266
a(S'di'
p1267
(dp1268
S'CONJ'
p1269
F4e-06
sS'ADP'
p1270
F0.999996
s(lp1271
tp1272
a(S'dimostrare'
p1273
(dp1274
S'VERB'
p1275
F1.0
s(lp1276
g43
atp1277
a(S'nuovamente'
p1278
(dp1279
S'ADV'
p1280
F1.0
s(lp1281
g78
atp1282
a(S'e'
p1283
(dp1284
S'CONJ'
p1285
F1.0
s(lp1286
tp1287
a(S'insieme'
p1288
(dp1289
S'ADV'
p1290
F0.998297
sS'NOUN'
p1291
F0.001703
s(lp1292
g50
atp1293
a(S'che'
p1294
(dp1295
S'PRON'
p1296
F0.87411
sS'CONJ'
p1297
F0.119731
sS'ADJ'
p1298
F0.006159
s(lp1299
g89
atp1300
a(S'il'
p1301
(dp1302
S'DET'
p1303
F1.0
s(lp1304
g97
atp1305
a(S'metodo'
p1306
(dp1307
S'NOUN'
p1308
F1.0
s(lp1309
g103
atp1310
a(S'comunitario'
p1311
(dp1312
S'NOUN'
p1313
F0.0153
sS'ADJ'
p1314
F0.9847
s(lp1315
g109
atp1316
a(S'pu\xc3\xb2'
p1317
(dp1318
S'VERB'
p1319
F1.0
s(lp1320
g115
atp1321
a(S'condurci'
p1322
(dp1323
S'VERB'
p1324
F1.0
s(lp1325
g128
atp1326
a(g34
(dp1327
g36
F1.0
s(lp1328
g34
atp1329
a(g1283
(dp1330
S'CONJ'
p1331
F1.0
s(lp1332
g144
atp1333
a(S'ci'
p1334
(dp1335
S'ADV'
p1336
F0.001602
sS'PRON'
p1337
F0.998382
sS'NOUN'
p1338
F1.6e-05
s(lp1339
g150
atp1340
a(S'deve'
p1341
(dp1342
S'VERB'
p1343
F1.0
s(lp1344
g197
atp1345
a(S'ora'
p1346
(dp1347
S'ADV'
p1348
F0.998462
sS'CONJ'
p1349
F0.000381
sS'VERB'
p1350
F0.000938
sS'NOUN'
p1351
F0.000219
s(lp1352
g182
atp1353
a(S'condurre'
p1354
(dp1355
S'VERB'
p1356
F1.0
s(lp1357
g140
atp1358
a(g34
(dp1359
g36
F1.0
s(lp1360
g34
atp1361
a(S'al'
p1362
(dp1363
S'ADP'
p1364
F1.0
s(lp1365
g213
atp1366
a(S'nuovo'
p1367
(dp1368
S'NOUN'
p1369
F0.003219
sS'ADJ'
p1370
F0.996781
s(lp1371
g220
atp1372
a(S'sistema'
p1373
(dp1374
S'VERB'
p1375
F0.002035
sS'NOUN'
p1376
F0.997965
s(lp1377
g226
atp1378
a(S'di'
p1379
(dp1380
S'CONJ'
p1381
F5e-06
sS'ADP'
p1382
F0.999995
s(lp1383
g232
atp1384
a(S'governance'
p1385
(dp1386
S'ADJ'
p1387
F0.000241
sS'VERB'
p1388
F0.017504000000000002
sS'NOUN'
p1389
F0.982255
s(lp1390
g238
atp1391
a(S'economica'
p1392
(dp1393
S'ADJ'
p1394
F1.0
s(lp1395
g245
atp1396
a(g34
(dp1397
g36
F1.0
s(lp1398
g34
atp1399
a(g1283
(dp1400
S'CONJ'
p1401
F1.0
s(lp1402
g254
atp1403
a(S'adoperiamoci'
p1404
(dp1405
S'VERB'
p1406
F1.0
s(lp1407
g550
atp1408
a(S'per'
p1409
(dp1410
S'CONJ'
p1411
F0.002099
sS'ADP'
p1412
F0.997901
s(lp1413
g266
atp1414
a(S'completare'
p1415
(dp1416
S'VERB'
p1417
F1.0
s(lp1418
g260
atp1419
a(S'la'
p1420
(dp1421
S'PRON'
p1422
F0.0
sS'DET'
p1423
F1.0
s(lp1424
g569
atp1425
a(S'nostra'
p1426
(dp1427
S'PRON'
p1428
F1.0
s(lp1429
g272
atp1430
a(S'unione'
p1431
(dp1432
S'NOUN'
p1433
F1.0
s(lp1434
g284
atp1435
a(S'monetaria'
p1436
(dp1437
S'ADJ'
p1438
F1.0
s(lp1439
g290
atp1440
a(S'forte'
p1441
(dp1442
S'ADV'
p1443
F0.052481
sS'NOUN'
p1444
F0.105548
sS'ADJ'
p1445
F0.841971
s(lp1446
g278
atp1447
a(S'con'
p1448
(dp1449
S'ADP'
p1450
F1.0
s(lp1451
g297
atp1452
a(S"un'"
p1453
(dp1454
S'PRON'
p1455
F0.00969
sS'DEF'
p1456
F0.99031
s(lp1457
g305
atp1458
a(S'unione'
p1459
(dp1460
S'NOUN'
p1461
F1.0
s(lp1462
g311
atp1463
a(S'economica'
p1464
(dp1465
S'ADJ'
p1466
F1.0
s(lp1467
g318
atp1468
a(S'robusta'
p1469
(dp1470
S'ADJ'
p1471
F1.0
s(lp1472
g326
atp1473
a(S'ed'
p1474
(dp1475
S'CONJ'
p1476
F1.0
s(lp1477
g332
atp1478
a(S'efficace'
p1479
(dp1480
S'ADJ'
p1481
F1.0
s(lp1482
g339
atp1483
a(g34
(dp1484
g36
F1.0
s(lp1485
tp1486
a(S'al'
p1487
(dp1488
S'ADP'
p1489
F1.0
s(lp1490
g352
atp1491
a(S'fine'
p1492
(dp1493
S'ADJ'
p1494
F0.01644
sS'NOUN'
p1495
F0.98356
s(lp1496
g363
atp1497
a(S'di'
p1498
(dp1499
S'CONJ'
p1500
F6e-06
sS'ADP'
p1501
F0.999994
s(lp1502
tp1503
a(S'dare'
p1504
(dp1505
S'VERB'
p1506
F1.0
s(lp1507
tp1508
a(S'vita'
p1509
(dp1510
S'NOUN'
p1511
F1.0
s(lp1512
g363
atp1513
a(g305
(dp1514
S'CONJ'
p1515
F0.000976
sS'ADP'
p1516
F0.999024
s(lp1517
tp1518
a(S"un'"
p1519
(dp1520
S'PRON'
p1521
F0.009699
sS'DEF'
p1522
F0.990301
s(lp1523
g305
atp1524
a(S'unione'
p1525
(dp1526
S'NOUN'
p1527
F1.0
s(lp1528
g376
atp1529
a(S'economica'
p1530
(dp1531
S'ADJ'
p1532
F1.0
s(lp1533
g383
atp1534
a(g1283
(dp1535
S'CONJ'
p1536
F1.0
s(lp1537
g389
atp1538
a(S'monetaria'
p1539
(dp1540
S'ADJ'
p1541
F1.0
s(lp1542
g395
atp1543
a(S'reale'
p1544
(dp1545
S'NOUN'
p1546
F0.452886
sS'ADJ'
p1547
F0.547114
s(lp1548
g402
atp1549
a(g1283
(dp1550
S'CONJ'
p1551
F1.0
s(lp1552
g408
atp1553
a(S'completa'
p1554
(dp1555
S'VERB'
p1556
F0.006523
sS'ADJ'
p1557
F0.993477
s(lp1558
g415
atp1559
a(g36
(dp1560
g36
F1.0
s(lp1561
g36
atp1562
asS'sk'
p1563
(lp1564
(S'v'
p1565
(dp1566
g918
F0.000117
sS'ADP'
p1567
F0.999883
s(lp1568
g7
atp1569
a(S'ka\xc5\xbedom'
p1570
(dp1571
S'PRON'
p1572
F1.0
s(lp1573
tp1574
a(S'pr\xc3\xadpade'
p1575
(dp1576
S'NOUN'
p1577
F1.0
s(lp1578
g7
atp1579
a(g34
(dp1580
g36
F1.0
s(lp1581
g34
atp1582
a(S'po\xc4\x8fme'
p1583
(dp1584
S'VERB'
p1585
F1.0
s(lp1586
g429
atp1587
a(S'op\xc3\xa4\xc5\xa5'
p1588
(dp1589
S'ADV'
p1590
F1.0
s(lp1591
g78
atp1592
a(S'spolo\xc4\x8dne'
p1593
(dp1594
S'ADV'
p1595
F1.0
s(lp1596
g50
atp1597
a(S'dok\xc3\xa1za\xc5\xa5'
p1598
(dp1599
S'VERB'
p1600
F1.0
s(lp1601
g43
atp1602
a(g34
(dp1603
g36
F1.0
s(lp1604
tp1605
a(S'\xc5\xbee'
p1606
(dp1607
g918
F0.00032700000000000003
sS'CONJ'
p1608
F0.999673
s(lp1609
g89
atp1610
a(S'met\xc3\xb3da'
p1611
(dp1612
S'NOUN'
p1613
F1.0
s(lp1614
g103
atp1615
a(S'spolo\xc4\x8denstva'
p1616
(dp1617
S'NOUN'
p1618
F1.0
s(lp1619
g109
atp1620
a(S'm\xc3\xb4\xc5\xbee'
p1621
(dp1622
S'VERB'
p1623
F1.0
s(lp1624
g115
atp1625
a(g305
(dp1626
g918
F0.015266
sS'CONJ'
p1627
F0.984344
sS'NOUN'
p1628
F0.00012800000000000002
sS'ADP'
p1629
F6.5e-05
sS'PRT'
p1630
F0.000198
s(lp1631
g144
atp1632
a(S'teraz'
p1633
(dp1634
S'ADV'
p1635
F1.0
s(lp1636
g182
atp1637
a(S'aj'
p1638
(dp1639
g918
F0.852608
sS'CONJ'
p1640
F0.147392
s(lp1641
g150
atp1642
a(S'mus\xc3\xad'
p1643
(dp1644
S'VERB'
p1645
F1.0
s(lp1646
g197
atp1647
a(S'prinies\xc5\xa5'
p1648
(dp1649
S'VERB'
p1650
F1.0
s(lp1651
g140
atp1652
a(S'nov\xc3\xbd'
p1653
(dp1654
S'ADJ'
p1655
F1.0
s(lp1656
g220
atp1657
a(S'syst\xc3\xa9m'
p1658
(dp1659
S'NOUN'
p1660
F1.0
s(lp1661
g226
atp1662
a(S'hospod\xc3\xa1rskeho'
p1663
(dp1664
S'ADJ'
p1665
F1.0
s(lp1666
g245
atp1667
a(S'riadenia'
p1668
(dp1669
S'NOUN'
p1670
F1.0
s(lp1671
g238
atp1672
a(g34
(dp1673
g36
F1.0
s(lp1674
g34
atp1675
a(g305
(dp1676
g918
F3e-06
sS'CONJ'
p1677
F0.999997
sS'NOUN'
p1678
F0.0
sS'ADP'
p1679
F0.0
sS'PRT'
p1680
F0.0
s(lp1681
g254
atp1682
a(S'dopl\xc5\x88me'
p1683
(dp1684
S'VERB'
p1685
F1.0
s(lp1686
g260
atp1687
a(S'teda'
p1688
(dp1689
g918
F0.926362
sS'CONJ'
p1690
F0.073638
s(lp1691
g266
atp1692
a(S'siln\xc3\xba'
p1693
(dp1694
S'ADJ'
p1695
F1.0
s(lp1696
g278
atp1697
a(S'menov\xc3\xba'
p1698
(dp1699
S'ADJ'
p1700
F1.0
s(lp1701
g290
atp1702
a(S'\xc3\xbaniu'
p1703
(dp1704
S'NOUN'
p1705
F1.0
s(lp1706
g284
atp1707
a(S'silnou'
p1708
(dp1709
S'ADJ'
p1710
F1.0
s(lp1711
g326
atp1712
a(g305
(dp1713
g918
F0.000636
sS'CONJ'
p1714
F0.997733
sS'NOUN'
p1715
F0.001516
sS'ADP'
p1716
F0.000109
sS'PRT'
p1717
F5e-06
s(lp1718
g332
atp1719
a(S'efekt\xc3\xadvnou'
p1720
(dp1721
S'ADJ'
p1722
F1.0
s(lp1723
g339
atp1724
a(S'hospod\xc3\xa1rskou'
p1725
(dp1726
S'ADJ'
p1727
F1.0
s(lp1728
g318
atp1729
a(S'\xc3\xbaniou'
p1730
(dp1731
S'NOUN'
p1732
F1.0
s(lp1733
g311
atp1734
a(g34
(dp1735
g36
F1.0
s(lp1736
tp1737
a(S'aby'
p1738
(dp1739
g918
F6.699999999999999e-05
sS'CONJ'
p1740
F0.999934
s(lp1741
g352
atp1742
a(S'sme'
p1743
(dp1744
g918
F0.0
sS'VERB'
p1745
F1.0
s(lp1746
tp1747
a(S'vytvorili'
p1748
(dp1749
S'VERB'
p1750
F1.0
s(lp1751
g363
atp1752
a(S'skuto\xc4\x8dn\xc3\xba'
p1753
(dp1754
S'ADJ'
p1755
F1.0
s(lp1756
g402
atp1757
a(g305
(dp1758
g918
F0.000636
sS'CONJ'
p1759
F0.997733
sS'NOUN'
p1760
F0.001516
sS'ADP'
p1761
F0.000109
sS'PRT'
p1762
F5e-06
s(lp1763
g408
atp1764
a(S'\xc3\xbapln\xc3\xba'
p1765
(dp1766
S'ADJ'
p1767
F1.0
s(lp1768
g415
atp1769
a(S'hospod\xc3\xa1rsku'
p1770
(dp1771
S'ADJ'
p1772
F1.0
s(lp1773
g383
atp1774
a(g305
(dp1775
g918
F0.000636
sS'CONJ'
p1776
F0.997733
sS'NOUN'
p1777
F0.001516
sS'ADP'
p1778
F0.000109
sS'PRT'
p1779
F5e-06
s(lp1780
g389
atp1781
a(S'menov\xc3\xba'
p1782
(dp1783
S'ADJ'
p1784
F1.0
s(lp1785
g395
atp1786
a(S'\xc3\xbaniu'
p1787
(dp1788
S'NOUN'
p1789
F1.0
s(lp1790
g376
atp1791
a(g36
(dp1792
g36
F1.0
s(lp1793
g36
atp1794
asS'pl'
p1795
(lp1796
(S'tak'
p1797
(dp1798
S'ADV'
p1799
F0.949925
sS'NOUN'
p1800
F0.000222
sS'PRT'
p1801
F0.049063
sg918
F7.3e-05
sS'CONJ'
p1802
F0.00052
sS'ADJ'
p1803
F0.000197
s(lp1804
g7
atp1805
a(g34
(dp1806
g918
F0.0
sg36
F1.0
s(lp1807
tp1808
a(S'czy'
p1809
(dp1810
S'PRT'
p1811
F0.169638
sS'CONJ'
p1812
F0.830336
sS'NUM'
p1813
F2.5e-05
sS'NOUN'
p1814
F2e-06
s(lp1815
tp1816
a(S'inaczej'
p1817
(dp1818
S'ADV'
p1819
F0.974412
sS'CONJ'
p1820
F0.025588
s(lp1821
g7
atp1822
a(S'raz'
p1823
(dp1824
S'NOUN'
p1825
F1.0
s(lp1826
g66
atp1827
a(S'jeszcze'
p1828
(dp1829
S'PRT'
p1830
F0.980445
sS'CONJ'
p1831
F0.019555
s(lp1832
g78
atp1833
a(S'poka\xc5\xbcmy'
p1834
(dp1835
S'VERB'
p1836
F1.0
s(lp1837
g43
atp1838
a(S'wsp\xc3\xb3lnie'
p1839
(dp1840
S'ADV'
p1841
F1.0
s(lp1842
g50
atp1843
a(g34
(dp1844
g918
F0.0
sg36
F1.0
s(lp1845
g34
atp1846
a(S'\xc5\xbce'
p1847
(dp1848
S'PRT'
p1849
F9.9e-05
sS'CONJ'
p1850
F0.999902
s(lp1851
g89
atp1852
a(S'metoda'
p1853
(dp1854
S'NOUN'
p1855
F1.0
s(lp1856
g103
atp1857
a(S'wsp\xc3\xb3lnotowa'
p1858
(dp1859
S'NOUN'
p1860
F0.192728
sS'VERB'
p1861
F0.015602000000000001
sS'ADJ'
p1862
F0.791669
s(lp1863
g109
atp1864
a(S'mo\xc5\xbce'
p1865
(dp1866
S'PRT'
p1867
F0.03962
sS'VERB'
p1868
F0.96038
s(lp1869
g115
atp1870
a(g34
(dp1871
g918
F0.0
sg36
F1.0
s(lp1872
g34
atp1873
a(g305
(dp1874
S'ADV'
p1875
F9.9e-05
sS'NOUN'
p1876
F0.00037400000000000004
sS'ADP'
p1877
F4.4999999999999996e-05
sS'PRT'
p1878
F0.001927
sS'VERB'
p1879
F0.00014099999999999998
sg918
F0.002151
sS'CONJ'
p1880
F0.99521
sS'ADJ'
p1881
F5.199999999999999e-05
s(lp1882
g144
atp1883
a(S'teraz'
p1884
(dp1885
S'ADV'
p1886
F1.0
s(lp1887
g182
atp1888
a(S'nawet'
p1889
(dp1890
S'PRT'
p1891
F0.999887
sS'CONJ'
p1892
F0.000113
s(lp1893
g150
atp1894
a(S'musi'
p1895
(dp1896
S'VERB'
p1897
F1.0
s(lp1898
g197
atp1899
a(g34
(dp1900
g918
F0.0
sg36
F1.0
s(lp1901
tp1902
a(S'przynie\xc5\x9b\xc4\x87'
p1903
(dp1904
S'VERB'
p1905
F1.0
s(lp1906
g140
atp1907
a(S'nowy'
p1908
(dp1909
S'ADJ'
p1910
F1.0000000000000002
s(lp1911
g220
atp1912
a(S'system'
p1913
(dp1914
S'NOUN'
p1915
F1.0
s(lp1916
g226
atp1917
a(S'zarz\xc4\x85dzania'
p1918
(dp1919
S'VERB'
p1920
F0.313775
sS'NOUN'
p1921
F0.686225
s(lp1922
g238
atp1923
a(S'gospodarczego'
p1924
(dp1925
S'ADJ'
p1926
F1.0
s(lp1927
g245
atp1928
a(g34
(dp1929
g918
F0.0
sg36
F1.0
s(lp1930
g34
atp1931
a(g305
(dp1932
S'ADV'
p1933
F0.00023
sS'NOUN'
p1934
F0.00032100000000000005
sS'ADP'
p1935
F4.7999999999999994e-05
sS'PRT'
p1936
F0.003196
sS'VERB'
p1937
F0.00041900000000000005
sg918
F0.011284
sS'CONJ'
p1938
F0.984315
sS'ADJ'
p1939
F0.000186
s(lp1940
g254
atp1941
a(S'tym'
p1942
(dp1943
S'ADV'
p1944
F0.004706
sS'ADJ'
p1945
F0.06937300000000002
sS'CONJ'
p1946
F0.001737
sS'NOUN'
p1947
F0.924083
sS'PRT'
p1948
F0.000102
s(lp1949
tp1950
a(S'samym'
p1951
(dp1952
S'ADJ'
p1953
F1.0
s(lp1954
g266
atp1955
a(S'uzupe\xc5\x82nijmy'
p1956
(dp1957
S'ADV'
p1958
F0.001027
sS'ADJ'
p1959
F0.0017929999999999999
sS'VERB'
p1960
F0.9674070000000001
sS'NOUN'
p1961
F0.02977200000000001
s(lp1962
g260
atp1963
a(S'siln\xc4\x85'
p1964
(dp1965
S'ADJ'
p1966
F1.0
s(lp1967
g278
atp1968
a(S'uni\xc4\x99'
p1969
(dp1970
S'ADJ'
p1971
F0.0
sS'VERB'
p1972
F0.000131
sS'NOUN'
p1973
F0.999869
s(lp1974
g284
atp1975
a(S'walutow\xc4\x85'
p1976
(dp1977
S'ADV'
p1978
F1.1e-05
sS'NOUN'
p1979
F0.028741
sS'VERB'
p1980
F8.5e-05
sS'ADJ'
p1981
F0.971162
s(lp1982
g290
atp1983
a(S'siln\xc4\x85'
p1984
(dp1985
S'ADJ'
p1986
F1.0
s(lp1987
g326
atp1988
a(S'i'
p1989
(dp1990
S'PRT'
p1991
F0.011335
sS'CONJ'
p1992
F0.970284
sS'PRON'
p1993
F4e-06
sS'NOUN'
p1994
F0.018351
sg918
F2.6e-05
s(lp1995
g332
atp1996
a(S'efektywn\xc4\x85'
p1997
(dp1998
S'ADJ'
p1999
F1.0
s(lp2000
g339
atp2001
a(S'uni\xc4\x85'
p2002
(dp2003
S'ADJ'
p2004
F0.032774
sS'VERB'
p2005
F8.099999999999999e-05
sS'NOUN'
p2006
F0.967145
s(lp2007
g311
atp2008
a(S'gospodarcz\xc4\x85'
p2009
(dp2010
S'ADJ'
p2011
F1.0
s(lp2012
g318
atp2013
a(g34
(dp2014
g918
F0.0
sg36
F1.0
s(lp2015
tp2016
a(S'co'
p2017
(dp2018
S'PRT'
p2019
F0.110443
sS'CONJ'
p2020
F0.470036
sS'NOUN'
p2021
F0.41876399999999997
sS'ADP'
p2022
F0.000758
s(lp2023
g352
atp2024
a(S'da'
p2025
(dp2026
S'VERB'
p2027
F0.99987
sS'NOUN'
p2028
F0.00013
s(lp2029
g402
atp2030
a(S'nam'
p2031
(dp2032
S'PRON'
p2033
F1.0
s(lp2034
g363
atp2035
a(S'pe\xc5\x82n\xc4\x85'
p2036
(dp2037
S'ADJ'
p2038
F1.0
s(lp2039
g415
atp2040
a(S'uni\xc4\x99'
p2041
(dp2042
S'ADJ'
p2043
F0.0
sS'VERB'
p2044
F9.3e-05
sS'NOUN'
p2045
F0.999907
s(lp2046
g376
atp2047
a(S'gospodarcz\xc4\x85'
p2048
(dp2049
S'ADJ'
p2050
F1.0
s(lp2051
g383
atp2052
a(g1989
(dp2053
S'PRT'
p2054
F0.00272
sS'CONJ'
p2055
F0.954953
sS'PRON'
p2056
F4e-06
sS'NOUN'
p2057
F0.042285
sg918
F3.8e-05
s(lp2058
g389
atp2059
a(S'walutow\xc4\x85'
p2060
(dp2061
S'ADV'
p2062
F0.002811
sS'ADJ'
p2063
F0.205458
sS'VERB'
p2064
F0.016979
sS'NOUN'
p2065
F0.774754
s(lp2066
g395
atp2067
a(g36
(dp2068
g36
F1.0
s(lp2069
g36
atp2070
asS'sl'
p2071
(lp2072
(S'vsekakor'
p2073
(dp2074
S'PRT'
p2075
F1.0
s(lp2076
g7
atp2077
a(S'moramo'
p2078
(dp2079
S'VERB'
p2080
F1.0
s(lp2081
g429
atp2082
a(S'skupaj'
p2083
(dp2084
S'ADV'
p2085
F1.0
s(lp2086
g50
atp2087
a(S'ponovno'
p2088
(dp2089
S'ADV'
p2090
F0.875337
sS'ADJ'
p2091
F0.12466200000000001
s(lp2092
g78
atp2093
a(S'pokazati'
p2094
(dp2095
S'VERB'
p2096
F1.0
s(lp2097
g43
atp2098
a(g34
(dp2099
g36
F1.0
s(lp2100
g34
atp2101
a(S'da'
p2102
(dp2103
S'PRT'
p2104
F0.000272
sS'CONJ'
p2105
F0.999226
sS'VERB'
p2106
F0.0005
sg918
F2e-06
s(lp2107
g89
atp2108
a(S'lahko'
p2109
(dp2110
S'ADV'
p2111
F0.996784
sS'ADJ'
p2112
F0.0032159999999999997
s(lp2113
g115
atp2114
a(S'metoda'
p2115
(dp2116
S'NOUN'
p2117
F1.0
s(lp2118
g103
atp2119
a(S'skupnosti'
p2120
(dp2121
S'NOUN'
p2122
F0.999999
s(lp2123
g109
atp2124
a(S'prinese'
p2125
(dp2126
S'VERB'
p2127
F1.0
s(lp2128
g128
atp2129
a(S'nov'
p2130
(dp2131
S'ADJ'
p2132
F1.0
s(lp2133
g220
atp2134
a(S'sistem'
p2135
(dp2136
S'NOUN'
p2137
F1.0
s(lp2138
g226
atp2139
a(S'gospodarskega'
p2140
(dp2141
S'ADJ'
p2142
F1.0
s(lp2143
g245
atp2144
a(S'upravljanja'
p2145
(dp2146
S'NOUN'
p2147
F1.0
s(lp2148
g238
atp2149
a(S'oziroma'
p2150
(dp2151
S'CONJ'
p2152
F1.0
s(lp2153
g144
atp2154
a(S'ga'
p2155
(dp2156
S'PRON'
p2157
F1.0
s(lp2158
g150
atp2159
a(S'zdaj'
p2160
(dp2161
S'ADV'
p2162
F1.0
s(lp2163
g182
atp2164
a(S'mora'
p2165
(dp2166
S'VERB'
p2167
F0.999884
sS'NOUN'
p2168
F0.000116
s(lp2169
g197
atp2170
a(S'omogo\xc4\x8diti'
p2171
(dp2172
S'VERB'
p2173
F1.0
s(lp2174
g140
atp2175
a(g34
(dp2176
g36
F1.0
s(lp2177
g34
atp2178
a(S'in'
p2179
(dp2180
S'ADV'
p2181
F0.000528
sg918
F1.1e-05
sS'CONJ'
p2182
F0.999365
sS'NOUN'
p2183
F9.7e-05
s(lp2184
g254
atp2185
a(S'na'
p2186
(dp2187
S'ADP'
p2188
F1.0
s(lp2189
g550
atp2190
a(S'ta'
p2191
(dp2192
S'PRON'
p2193
F0.9999999999999999
s(lp2194
tp2195
a(S'na\xc4\x8din'
p2196
(dp2197
S'NOUN'
p2198
F1.0
s(lp2199
g266
atp2200
a(S'dopolniti'
p2201
(dp2202
S'VERB'
p2203
F1.0
s(lp2204
g260
atp2205
a(S'mo\xc4\x8dno'
p2206
(dp2207
S'ADV'
p2208
F0.069718
sS'ADJ'
p2209
F0.9302830000000001
s(lp2210
g278
atp2211
a(S'denarno'
p2212
(dp2213
S'ADV'
p2214
F0.000234
sS'ADJ'
p2215
F0.999766
s(lp2216
g290
atp2217
a(S'unijo'
p2218
(dp2219
S'NOUN'
p2220
F1.0
s(lp2221
g284
atp2222
a(S'z'
p2223
(dp2224
S'ADP'
p2225
F1.0
s(lp2226
g297
atp2227
a(S'mo\xc4\x8dno'
p2228
(dp2229
S'ADV'
p2230
F0.159485
sS'ADJ'
p2231
F0.8405159999999999
s(lp2232
g326
atp2233
a(S'in'
p2234
(dp2235
S'ADV'
p2236
F0.000155
sg918
F3e-06
sS'CONJ'
p2237
F0.999838
sS'NOUN'
p2238
F4e-06
s(lp2239
g332
atp2240
a(S'u\xc4\x8dinkovito'
p2241
(dp2242
S'ADV'
p2243
F0.284248
sS'ADJ'
p2244
F0.7157519999999999
s(lp2245
g339
atp2246
a(S'gospodarsko'
p2247
(dp2248
S'ADV'
p2249
F0.001682
sS'ADJ'
p2250
F0.998318
s(lp2251
g318
atp2252
a(S'unijo'
p2253
(dp2254
S'NOUN'
p2255
F1.0
s(lp2256
g311
atp2257
a(g34
(dp2258
g36
F1.0
s(lp2259
tp2260
a(S'da'
p2261
(dp2262
S'PRT'
p2263
F0.000314
sS'CONJ'
p2264
F0.999637
sS'VERB'
p2265
F4.7e-05
sg918
F1e-06
s(lp2266
g352
atp2267
a(S'ustvarimo'
p2268
(dp2269
S'ADV'
p2270
F0.001629
sS'ADJ'
p2271
F0.004666
sS'VERB'
p2272
F0.9769639999999999
sS'NOUN'
p2273
F0.016739999999999998
s(lp2274
g363
atp2275
a(S'resni\xc4\x8dno'
p2276
(dp2277
S'ADV'
p2278
F0.785495
sS'ADJ'
p2279
F0.214505
s(lp2280
g402
atp2281
a(S'in'
p2282
(dp2283
S'ADV'
p2284
F0.000741
sg918
F3e-06
sS'CONJ'
p2285
F0.999248
sS'NOUN'
p2286
F8e-06
s(lp2287
g408
atp2288
a(S'popolno'
p2289
(dp2290
S'ADV'
p2291
F0.131034
sS'ADJ'
p2292
F0.868966
s(lp2293
g415
atp2294
a(S'gospodarsko'
p2295
(dp2296
S'ADV'
p2297
F0.055858
sS'ADJ'
p2298
F0.94414
s(lp2299
g383
atp2300
a(S'in'
p2301
(dp2302
S'ADV'
p2303
F4.4e-05
sg918
F1e-06
sS'CONJ'
p2304
F0.999951
sS'NOUN'
p2305
F4e-06
s(lp2306
g389
atp2307
a(S'denarno'
p2308
(dp2309
S'ADV'
p2310
F0.001515
sS'ADJ'
p2311
F0.998486
s(lp2312
g395
atp2313
a(S'unijo'
p2314
(dp2315
S'NOUN'
p2316
F1.0
s(lp2317
g376
atp2318
a(g36
(dp2319
g36
F1.0
s(lp2320
g36
atp2321
asS'es'
p2322
(lp2323
(S'en'
p2324
(dp2325
g918
F1.1e-05
sS'CONJ'
p2326
F1.8e-05
sS'ADP'
p2327
F0.999971
s(lp2328
g7
atp2329
a(S'cualquier'
p2330
(dp2331
S'ADJ'
p2332
F1.0
s(lp2333
tp2334
a(S'caso'
p2335
(dp2336
S'NOUN'
p2337
F1.0
s(lp2338
g7
atp2339
a(g34
(dp2340
g36
F1.0
s(lp2341
g34
atp2342
a(S'demostremos'
p2343
(dp2344
S'VERB'
p2345
F1.0
s(lp2346
g43
atp2347
a(S'juntos'
p2348
(dp2349
S'ADJ'
p2350
F1.0
s(lp2351
g50
atp2352
a(S'una'
p2353
(dp2354
S'DET'
p2355
F1.0
s(lp2356
tp2357
a(S'vez'
p2358
(dp2359
S'NOUN'
p2360
F1.0
s(lp2361
g66
atp2362
a(S'm\xc3\xa1s'
p2363
(dp2364
S'ADV'
p2365
F0.999861
sS'CONJ'
p2366
F0.000139
s(lp2367
g78
atp2368
a(S'que'
p2369
(dp2370
g918
F0.0
sS'CONJ'
p2371
F1.0
s(lp2372
g89
atp2373
a(S'el'
p2374
(dp2375
S'PRON'
p2376
F4e-05
sS'DET'
p2377
F0.99996
s(lp2378
g97
atp2379
a(S'm\xc3\xa9todo'
p2380
(dp2381
S'NOUN'
p2382
F1.0
s(lp2383
g103
atp2384
a(S'comunitario'
p2385
(dp2386
S'ADJ'
p2387
F1.0
s(lp2388
g109
atp2389
a(S'puede'
p2390
(dp2391
S'VERB'
p2392
F1.0
s(lp2393
g115
atp2394
a(S'lograr'
p2395
(dp2396
S'VERB'
p2397
F1.0
s(lp2398
g128
atp2399
a(g34
(dp2400
g36
F1.0
s(lp2401
g34
atp2402
a(S'y'
p2403
(dp2404
g918
F8e-06
sS'CONJ'
p2405
F0.999992
s(lp2406
g144
atp2407
a(S'ahora'
p2408
(dp2409
S'ADV'
p2410
F1.0
s(lp2411
g182
atp2412
a(S'debe'
p2413
(dp2414
S'VERB'
p2415
F1.0
s(lp2416
g197
atp2417
a(S'lograr'
p2418
(dp2419
S'VERB'
p2420
F1.0
s(lp2421
g140
atp2422
a(g34
(dp2423
g36
F1.0
s(lp2424
g34
atp2425
a(S'el'
p2426
(dp2427
S'PRON'
p2428
F0.000295
sS'DET'
p2429
F0.999705
s(lp2430
g213
atp2431
a(S'nuevo'
p2432
(dp2433
S'ADJ'
p2434
F1.0
s(lp2435
g220
atp2436
a(S'sistema'
p2437
(dp2438
S'NOUN'
p2439
F1.0
s(lp2440
g226
atp2441
a(S'de'
p2442
(dp2443
g918
F2.9e-05
sS'CONJ'
p2444
F0.000449
sS'ADP'
p2445
F0.999522
s(lp2446
g232
atp2447
a(S'gobernanza'
p2448
(dp2449
S'VERB'
p2450
F2e-06
sS'NOUN'
p2451
F0.999998
s(lp2452
g238
atp2453
a(S'econ\xc3\xb3mica'
p2454
(dp2455
S'ADJ'
p2456
F1.0
s(lp2457
g245
atp2458
a(g34
(dp2459
g36
F1.0
s(lp2460
g34
atp2461
a(g2403
(dp2462
g918
F0.003871
sS'CONJ'
p2463
F0.996129
s(lp2464
g254
atp2465
a(g34
(dp2466
g36
F1.0
s(lp2467
g550
atp2468
a(S'por'
p2469
(dp2470
S'CONJ'
p2471
F1.0
s(lp2472
g266
atp2473
a(S'lo'
p2474
(dp2475
S'CONJ'
p2476
F1.0
s(lp2477
g266
atp2478
a(S'tanto'
p2479
(dp2480
S'CONJ'
p2481
F1.0
s(lp2482
tp2483
a(g34
(dp2484
g36
F1.0
s(lp2485
g266
atp2486
a(S'complementemos'
p2487
(dp2488
S'VERB'
p2489
F1.0
s(lp2490
g260
atp2491
a(S'la'
p2492
(dp2493
S'NOUN'
p2494
F2.1e-05
sS'PRON'
p2495
F0.0
sS'DET'
p2496
F0.999977
sg918
F2e-06
s(lp2497
g569
atp2498
a(S's\xc3\xb3lida'
p2499
(dp2500
S'ADJ'
p2501
F1.0
s(lp2502
g278
atp2503
a(S'uni\xc3\xb3n'
p2504
(dp2505
S'NOUN'
p2506
F1.0
s(lp2507
g284
atp2508
a(S'monetaria'
p2509
(dp2510
S'ADJ'
p2511
F1.0
s(lp2512
g290
atp2513
a(S'con'
p2514
(dp2515
S'ADP'
p2516
F1.0
s(lp2517
g297
atp2518
a(S'una'
p2519
(dp2520
S'DET'
p2521
F1.0
s(lp2522
g305
atp2523
a(S'uni\xc3\xb3n'
p2524
(dp2525
S'NOUN'
p2526
F1.0
s(lp2527
g311
atp2528
a(S'econ\xc3\xb3mica'
p2529
(dp2530
S'ADJ'
p2531
F1.0
s(lp2532
g318
atp2533
a(S'efectiva'
p2534
(dp2535
S'ADJ'
p2536
F1.0
s(lp2537
g339
atp2538
a(g2403
(dp2539
g918
F0.000656
sS'CONJ'
p2540
F0.999344
s(lp2541
g332
atp2542
a(S's\xc3\xb3lida'
p2543
(dp2544
S'ADJ'
p2545
F1.0
s(lp2546
g326
atp2547
a(S'para'
p2548
(dp2549
S'CONJ'
p2550
F0.985245
sS'ADP'
p2551
F0.014755
s(lp2552
g352
atp2553
a(S'llevar'
p2554
(dp2555
S'VERB'
p2556
F1.0
s(lp2557
tp2558
a(g305
(dp2559
g918
F0.000829
sS'CONJ'
p2560
F0.000137
sS'ADP'
p2561
F0.999034
s(lp2562
tp2563
a(S'cabo'
p2564
(dp2565
S'NOUN'
p2566
F1.0
s(lp2567
g363
atp2568
a(S'una'
p2569
(dp2570
S'DET'
p2571
F1.0
s(lp2572
g305
atp2573
a(S'uni\xc3\xb3n'
p2574
(dp2575
S'NOUN'
p2576
F1.0
s(lp2577
g376
atp2578
a(S'monetaria'
p2579
(dp2580
S'ADJ'
p2581
F1.0
s(lp2582
g395
atp2583
a(g2403
(dp2584
g918
F0.000656
sS'CONJ'
p2585
F0.999344
s(lp2586
g389
atp2587
a(S'econ\xc3\xb3mica'
p2588
(dp2589
S'ADJ'
p2590
F1.0
s(lp2591
g383
atp2592
a(S'real'
p2593
(dp2594
S'NOUN'
p2595
F0.00041
sS'ADJ'
p2596
F0.99959
s(lp2597
g402
atp2598
a(g2403
(dp2599
g918
F0.000647
sS'CONJ'
p2600
F0.999353
s(lp2601
g408
atp2602
a(S'completa'
p2603
(dp2604
S'VERB'
p2605
F0.046038
sS'ADJ'
p2606
F0.953962
s(lp2607
g415
atp2608
a(g36
(dp2609
g36
F1.0
s(lp2610
g36
atp2611
as.