(dp0
S'fr'
p1
(lp2
(S'le'
p3
(dp4
S'PRON'
p5
F0.000452
sS'DET'
p6
F0.999548
s(lp7
S'on'
p8
atp9
a(S'continent'
p10
(dp11
S'ADJ'
p12
F0.015795
sS'NOUN'
p13
F0.984205
s(lp14
tp15
a(S'africain'
p16
(dp17
S'NOUN'
p18
F0.026386
sS'ADJ'
p19
F0.973614
s(lp20
S'africa'
p21
atp22
a(S'doit'
p23
(dp24
S'VERB'
p25
F0.994943
sS'NOUN'
p26
F0.005057
s(lp27
tp28
a(S'n\xc3\xa9cessairement'
p29
(dp30
S'ADV'
p31
F1.0
s(lp32
S'must'
p33
atp34
a(S'jouer'
p35
(dp36
S'VERB'
p37
F1.0
s(lp38
S'play'
p39
atp40
a(S'sa'
p41
(dp42
S'PRON'
p43
F1.0
s(lp44
S'its'
p45
atp46
a(S'partition'
p47
(dp48
S'NOUN'
p49
F1.0
s(lp50
S'part'
p51
atp52
a(S'avec'
p53
(dp54
S'ADV'
p55
F0.002066
sS'ADP'
p56
F0.997934
s(lp57
S'with'
p58
atp59
a(S'notre'
p60
(dp61
S'PRON'
p62
F1.0
s(lp63
S'our'
p64
atp65
a(S'soutien'
p66
(dp67
S'NOUN'
p68
F1.0
s(lp69
S'support'
p70
atp71
a(S'et'
p72
(dp73
S'CONJ'
p74
F1.0
s(lp75
S'and'
p76
atp77
a(S'mettre'
p78
(dp79
S'VERB'
p80
F1.0
s(lp81
tp82
a(S'en'
p83
(dp84
S'PRON'
p85
F0.208448
sS'ADP'
p86
F0.791552
s(lp87
tp88
a(S'place'
p89
(dp90
S'VERB'
p91
F0.22064699999999998
sS'NOUN'
p92
F0.779352
s(lp93
S'instigate'
p94
atp95
a(S'une'
p96
(dp97
S'NOUN'
p98
F0.001188
sS'NUM'
p99
F0.006715
sS'DET'
p100
F0.992096
s(lp101
S'a'
p102
atp103
a(S'v\xc3\xa9ritable'
p104
(dp105
S'ADJ'
p106
F1.0
s(lp107
tp108
a(S'r\xc3\xa9volution'
p109
(dp110
S'NOUN'
p111
F1.0
s(lp112
S'revolution'
p113
atp114
a(S'verte'
p115
(dp116
S'ADJ'
p117
F1.0
s(lp118
S'green'
p119
atp120
a(S'qui'
p121
(dp122
S'PRON'
p123
F1.0
s(lp124
S'that'
p125
atp126
a(S'lui'
p127
(dp128
S'PRON'
p129
F1.0
sS'VERB'
p130
F0.0
s(lp131
S'it'
p132
atp133
a(S'permettrait'
p134
(dp135
S'VERB'
p136
F1.0
s(lp137
S'can'
p138
atp139
a(S'de'
p140
(dp141
S'ADP'
p142
F1.0
s(lp143
tp144
a(S'limiter'
p145
(dp146
S'VERB'
p147
F1.0
s(lp148
S'reduce'
p149
atp150
a(S'sa'
p151
(dp152
S'PRON'
p153
F1.0
s(lp154
S'its'
p155
atp156
a(S'd\xc3\xa9pendance'
p157
(dp158
S'NOUN'
p159
F1.0
s(lp160
tp161
a(S'globale'
p162
(dp163
S'ADJ'
p164
F1.0
s(lp165
S'overall'
p166
atp167
a(S'vis-\xc3\xa0-vis'
p168
(dp169
S'ADV'
p170
F0.743596
sS'NOUN'
p171
F0.256404
s(lp172
S'dependency'
p173
atp174
a(S'du'
p175
(dp176
S'ADP'
p177
F1.0
s(lp178
S'the'
p179
atp180
a(S'march\xc3\xa9'
p181
(dp182
S'VERB'
p183
F0.000185
sS'NOUN'
p184
F0.999815
s(lp185
S'market'
p186
atp187
a(S'international'
p188
(dp189
S'ADJ'
p190
F1.0
s(lp191
S'international'
p192
atp193
a(S'.'
p194
(dp195
g194
F1.0
s(lp196
g194
atp197
asS'en'
p198
(lp199
(g21
(dp200
S'ADV'
p201
F0.001903
sS'ADJ'
p202
F0.000197
sS'VERB'
p203
F2.8e-05
sS'NOUN'
p204
F0.997873
s(lp205
g21
atp206
a(g33
(dp207
S'VERB'
p208
F1.0
sS'NOUN'
p209
F0.0
s(lp210
g33
atp211
a(g39
(dp212
S'VERB'
p213
F0.999999
sS'NOUN'
p214
F0.0
s(lp215
g39
atp216
a(g45
(dp217
S'PRON'
p218
F1.0
s(lp219
g45
atp220
a(g51
(dp221
S'ADV'
p222
F1.3e-05
sS'VERB'
p223
F0.0
sS'NOUN'
p224
F0.999986
s(lp225
g51
atp226
a(S','
p227
(dp228
g194
F1.0
s(lp229
g227
atp230
a(g58
(dp231
S'ADP'
p232
F1.0
s(lp233
g58
atp234
a(g64
(dp235
S'PRON'
p236
F1.0
s(lp237
g64
atp238
a(g70
(dp239
S'VERB'
p240
F0.00010999999999999999
sS'NOUN'
p241
F0.999891
s(lp242
g70
atp243
a(g227
(dp244
g194
F1.0
s(lp245
g227
atp246
a(g76
(dp247
S'CONJ'
p248
F0.999999
sS'NOUN'
p249
F1e-06
s(lp250
g76
atp251
a(g94
(dp252
S'VERB'
p253
F1.0
s(lp254
g94
atp255
a(g102
(dp256
S'NOUN'
p257
F0.0
sS'DET'
p258
F1.0
s(lp259
g102
atp260
a(g119
(dp261
S'NOUN'
p262
F0.049377
sS'ADJ'
p263
F0.950623
s(lp264
g119
atp265
a(g113
(dp266
S'NOUN'
p267
F1.0
s(lp268
g113
atp269
a(S'so'
p270
(dp271
S'ADV'
p272
F0.101104
sS'ADJ'
p273
F7.5e-05
sS'CONJ'
p274
F0.020602
sS'NOUN'
p275
F0.001262
sS'ADP'
p276
F0.876957
s(lp277
g270
atp278
a(g125
(dp279
S'ADV'
p280
F0.004535
sS'DET'
p281
F0.356045
sS'ADP'
p282
F0.639421
s(lp283
g125
atp284
a(g132
(dp285
S'PRON'
p286
F1.0
s(lp287
g132
atp288
a(g138
(dp289
S'VERB'
p290
F1.0
sS'NOUN'
p291
F0.0
s(lp292
g138
atp293
a(g149
(dp294
S'VERB'
p295
F1.0
s(lp296
g149
atp297
a(g155
(dp298
S'PRON'
p299
F1.0
s(lp300
g155
atp301
a(g166
(dp302
S'ADV'
p303
F0.000162
sS'NOUN'
p304
F0.009592
sS'ADJ'
p305
F0.990246
s(lp306
g166
atp307
a(g173
(dp308
S'NOUN'
p309
F1.0
s(lp310
g173
atp311
a(g8
(dp312
S'ADV'
p313
F0.000489
sS'PRT'
p314
F0.000523
sS'ADJ'
p315
F0.0
sS'NOUN'
p316
F0.0
sS'ADP'
p317
F0.998988
s(lp318
g8
atp319
a(g179
(dp320
S'NOUN'
p321
F1e-06
sS'DET'
p322
F0.999999
s(lp323
g179
atp324
a(g192
(dp325
S'NOUN'
p326
F0.000466
sS'ADJ'
p327
F0.999534
s(lp328
g192
atp329
a(g186
(dp330
S'VERB'
p331
F8e-06
sS'NOUN'
p332
F0.999992
s(lp333
g186
atp334
a(g194
(dp335
g194
F1.0
s(lp336
g194
atp337
asS'nl'
p338
(lp339
(S'afrika'
p340
(dp341
S'NOUN'
p342
F1.0
s(lp343
g21
atp344
a(S'dient'
p345
(dp346
S'VERB'
p347
F1.0
s(lp348
g33
atp349
a(S'zijn'
p350
(dp351
S'PRON'
p352
F0.968936
sS'VERB'
p353
F0.031046999999999998
sS'NOUN'
p354
F1.7e-05
s(lp355
g45
atp356
a(S'deel'
p357
(dp358
S'VERB'
p359
F0.000207
sS'NOUN'
p360
F0.999793
s(lp361
g51
atp362
a(S'te'
p363
(dp364
S'PRT'
p365
F1.0
s(lp366
tp367
a(S'doen'
p368
(dp369
S'VERB'
p370
F1.0
sS'NOUN'
p371
F0.0
s(lp372
g39
atp373
a(g227
(dp374
g194
F1.0
s(lp375
g227
atp376
a(S'met'
p377
(dp378
S'ADP'
p379
F1.0
s(lp380
g58
atp381
a(S'onze'
p382
(dp383
S'PRON'
p384
F1.0
s(lp385
g64
atp386
a(S'hulp'
p387
(dp388
S'NOUN'
p389
F1.0
s(lp390
g70
atp391
a(g227
(dp392
g194
F1.0
s(lp393
g227
atp394
a(S'en'
p395
(dp396
S'CONJ'
p397
F1.0
s(lp398
g76
atp399
a(S'een'
p400
(dp401
S'ADJ'
p402
F1e-06
sS'PRON'
p403
F0.001075
sS'NUM'
p404
F3e-06
sS'DET'
p405
F0.998921
s(lp406
g102
atp407
a(S'groene'
p408
(dp409
S'NOUN'
p410
F0.006171
sS'ADJ'
p411
F0.993829
s(lp412
g119
atp413
a(S'revolutie'
p414
(dp415
S'NOUN'
p416
F1.0
s(lp417
g113
atp418
a(S'te'
p419
(dp420
S'PRT'
p421
F1.0
s(lp422
tp423
a(S'beginnen'
p424
(dp425
S'VERB'
p426
F1.0
sS'NOUN'
p427
F0.0
s(lp428
g94
atp429
a(g227
(dp430
g194
F1.0
s(lp431
tp432
a(S'zodat'
p433
(dp434
S'CONJ'
p435
F1.0
s(lp436
g270
atp437
a(S'het'
p438
(dp439
S'PRON'
p440
F0.997888
sS'DET'
p441
F0.002112
s(lp442
g132
atp443
a(S'zijn'
p444
(dp445
S'PRON'
p446
F0.730366
sS'VERB'
p447
F0.267575
sS'NOUN'
p448
F0.002059
s(lp449
g155
atp450
a(S'algemene'
p451
(dp452
S'NOUN'
p453
F3.1e-05
sS'ADJ'
p454
F0.999969
s(lp455
g166
atp456
a(S'afhankelijkheid'
p457
(dp458
S'NOUN'
p459
F1.0
s(lp460
g173
atp461
a(S'van'
p462
(dp463
S'ADP'
p464
F1.0
s(lp465
g8
atp466
a(S'de'
p467
(dp468
S'DET'
p469
F1.0
s(lp470
g179
atp471
a(S'internationale'
p472
(dp473
S'NOUN'
p474
F5.9e-05
sS'ADJ'
p475
F0.999941
s(lp476
g192
atp477
a(S'markt'
p478
(dp479
S'NOUN'
p480
F1.0
s(lp481
g186
atp482
a(S'kan'
p483
(dp484
S'VERB'
p485
F0.999985
sS'NOUN'
p486
F1.5e-05
s(lp487
g138
atp488
a(S'verminderen'
p489
(dp490
S'VERB'
p491
F0.999657
sS'NOUN'
p492
F0.000343
s(lp493
g149
atp494
a(g194
(dp495
g194
F1.0
s(lp496
g194
atp497
asS'de'
p498
(lp499
(S'afrika'
p500
(dp501
S'ADJ'
p502
F0.033347
sS'NOUN'
p503
F0.965923
s(lp504
g21
atp505
a(S'muss'
p506
(dp507
S'VERB'
p508
F1.0
s(lp509
g33
atp510
a(S'mit'
p511
(dp512
S'PRT'
p513
F1e-06
sS'ADP'
p514
F0.999999
s(lp515
g58
atp516
a(S'unserer'
p517
(dp518
S'PRON'
p519
F1.0
s(lp520
g64
atp521
a(S'unterst\xc3\xbctzung'
p522
(dp523
S'ADJ'
p524
F0.000153
sS'NOUN'
p525
F0.999802
s(lp526
g70
atp527
a(S'seinen'
p528
(dp529
S'PRON'
p530
F1.0
s(lp531
g45
atp532
a(S'part'
p533
(dp534
S'ADJ'
p535
F0.204939
sS'NOUN'
p536
F0.69922
s(lp537
g51
atp538
a(S'\xc3\xbcbernehmen'
p539
(dp540
S'VERB'
p541
F1.0
s(lp542
g39
atp543
a(S'und'
p544
(dp545
S'CONJ'
p546
F1.0
s(lp547
g76
atp548
a(S'eine'
p549
(dp550
S'PRON'
p551
F0.00426
sS'DET'
p552
F0.995697
s(lp553
g102
atp554
a(S'gr\xc3\xbcne'
p555
(dp556
S'VERB'
p557
F0.000801
sS'ADJ'
p558
F0.999199
s(lp559
g119
atp560
a(S'revolution'
p561
(dp562
S'VERB'
p563
F1.8e-05
sS'NOUN'
p564
F0.999948
s(lp565
g113
atp566
a(S'in'
p567
(dp568
S'ADP'
p569
F1.0
s(lp570
tp571
a(S'gang'
p572
(dp573
S'ADJ'
p574
F1.0
s(lp575
tp576
a(S'setzen'
p577
(dp578
S'VERB'
p579
F1.0
s(lp580
g94
atp581
a(g227
(dp582
g194
F1.0
s(lp583
g125
atp584
a(S'um'
p585
(dp586
S'CONJ'
p587
F0.985521
sS'ADP'
p588
F0.01427
s(lp589
g270
atp590
a(S'generell'
p591
(dp592
S'ADJ'
p593
F1.0
s(lp594
g166
atp595
a(S'weniger'
p596
(dp597
S'ADV'
p598
F0.812667
sS'PRON'
p599
F0.174609
s(lp600
g149
atp601
a(S'auf'
p602
(dp603
S'PRT'
p604
F0.001269
sS'ADP'
p605
F0.998697
s(lp606
g8
atp607
a(S'den'
p608
(dp609
S'PRON'
p610
F0.00018
sS'DET'
p611
F0.999811
s(lp612
g179
atp613
a(S'weltmarkt'
p614
(dp615
S'ADJ'
p616
F0.049853
sS'NOUN'
p617
F0.921366
s(lp618
g186
atp619
a(S'angewiesen'
p620
(dp621
S'VERB'
p622
F0.16054
sS'ADJ'
p623
F0.83946
s(lp624
g173
atp625
a(S'zu'
p626
(dp627
S'PRT'
p628
F0.99995
s(lp629
tp630
a(S'sein'
p631
(dp632
S'VERB'
p633
F0.99996
s(lp634
g155
atp635
a(g194
(dp636
g194
F1.0
s(lp637
g194
atp638
asS'it'
p639
(lp640
(S"l'"
p641
(dp642
S'NOUN'
p643
F0.00259
sS'VERB'
p644
F0.9925710000000001
sS'ADJ'
p645
F0.00484
s(lp646
tp647
a(S'africa'
p648
(dp649
S'ADJ'
p650
F1.0
s(lp651
g21
atp652
a(S'deve'
p653
(dp654
S'VERB'
p655
F1.0
s(lp656
g33
atp657
a(S'rivestire'
p658
(dp659
S'VERB'
p660
F1.0
s(lp661
g39
atp662
a(S'il'
p663
(dp664
S'DET'
p665
F1.0
s(lp666
tp667
a(S'proprio'
p668
(dp669
S'ADV'
p670
F0.017729
sS'NOUN'
p671
F0.012939
sS'ADJ'
p672
F0.969331
s(lp673
g45
atp674
a(S'ruolo'
p675
(dp676
S'NOUN'
p677
F1.0
s(lp678
g51
atp679
a(g227
(dp680
g194
F1.0
s(lp681
g227
atp682
a(S'con'
p683
(dp684
S'ADP'
p685
F1.0
s(lp686
g58
atp687
a(S'il'
p688
(dp689
S'DET'
p690
F1.0
s(lp691
tp692
a(S'nostro'
p693
(dp694
S'PRON'
p695
F1.0
s(lp696
g64
atp697
a(S'sostegno'
p698
(dp699
S'NOUN'
p700
F1.0
s(lp701
g70
atp702
a(g227
(dp703
g194
F1.0
s(lp704
g227
atp705
a(S'ed'
p706
(dp707
S'CONJ'
p708
F1.0
s(lp709
g76
atp710
a(S'esortare'
p711
(dp712
S'VERB'
p713
F1.0
s(lp714
g94
atp715
a(S'una'
p716
(dp717
S'PRON'
p718
F0.000112
sS'DEF'
p719
F0.999888
s(lp720
g102
atp721
a(S'rivoluzione'
p722
(dp723
S'NOUN'
p724
F1.0
s(lp725
g113
atp726
a(S'verde'
p727
(dp728
S'NOUN'
p729
F0.010797
sS'ADJ'
p730
F0.989203
s(lp731
g119
atp732
a(S'in'
p733
(dp734
S'ADP'
p735
F1.0
s(lp736
tp737
a(S'modo'
p738
(dp739
S'NOUN'
p740
F1.0
s(lp741
g270
atp742
a(S'da'
p743
(dp744
S'ADP'
p745
F1.0
s(lp746
g125
atp747
a(S'ridurre'
p748
(dp749
S'VERB'
p750
F1.0
s(lp751
g149
atp752
a(S'la'
p753
(dp754
S'PRON'
p755
F0.0
sS'DET'
p756
F1.0
s(lp757
tp758
a(S'sua'
p759
(dp760
S'PRON'
p761
F1.0
s(lp762
g155
atp763
a(S'dipendenza'
p764
(dp765
S'NOUN'
p766
F1.0
s(lp767
g173
atp768
a(S'complessiva'
p769
(dp770
S'ADJ'
p771
F1.0
s(lp772
g166
atp773
a(S'dal'
p774
(dp775
S'ADP'
p776
F1.0
s(lp777
g179
atp778
a(S'mercato'
p779
(dp780
S'NOUN'
p781
F1.0
s(lp782
g186
atp783
a(S'internazionale'
p784
(dp785
S'ADJ'
p786
F1.0
s(lp787
g192
atp788
a(g194
(dp789
g194
F1.0
s(lp790
g194
atp791
asS'sk'
p792
(lp793
(S'africk\xc3\xbd'
p794
(dp795
S'ADJ'
p796
F1.0
s(lp797
g21
atp798
a(S'kontinent'
p799
(dp800
S'NOUN'
p801
F1.0
s(lp802
g94
atp803
a(S'mus\xc3\xad'
p804
(dp805
S'VERB'
p806
F1.0
s(lp807
g33
atp808
a(S's'
p809
(dp810
S'X'
p811
F0.00047799999999999996
sS'CONJ'
p812
F3.9e-05
sS'NOUN'
p813
F6e-06
sS'ADP'
p814
F0.999409
sS'PRT'
p815
F6.8e-05
s(lp816
g58
atp817
a(S'na\xc5\xa1ou'
p818
(dp819
S'PRON'
p820
F1.0
s(lp821
g64
atp822
a(S'podporou'
p823
(dp824
S'NOUN'
p825
F1.0
s(lp826
g70
atp827
a(S'zohra\xc5\xa5'
p828
(dp829
S'VERB'
p830
F1.0
s(lp831
g39
atp832
a(S'svoju'
p833
(dp834
S'PRON'
p835
F1.0
s(lp836
g45
atp837
a(S'\xc3\xbalohu'
p838
(dp839
S'NOUN'
p840
F1.0
s(lp841
g51
atp842
a(g102
(dp843
g811
F0.0026279999999999997
sS'CONJ'
p844
F0.996881
sS'NOUN'
p845
F0.000221
sS'ADP'
p846
F0.0
sS'PRT'
p847
F0.000268
s(lp848
g76
atp849
a(S'na\xc5\xa1tartova\xc5\xa5'
p850
(dp851
S'VERB'
p852
F1.0
s(lp853
g94
atp854
a(S'zelen\xc3\xba'
p855
(dp856
S'NOUN'
p857
F0.004295
sS'ADJ'
p858
F0.995705
s(lp859
g119
atp860
a(S'revol\xc3\xbaciu'
p861
(dp862
S'NOUN'
p863
F1.0
s(lp864
g113
atp865
a(g227
(dp866
g194
F1.0
s(lp867
g227
atp868
a(S'ktor\xc3\xa1'
p869
(dp870
S'PRON'
p871
F1.0
s(lp872
g125
atp873
a(S'by'
p874
(dp875
S'PRT'
p876
F0.999997
sg811
F4e-06
s(lp877
g138
atp878
a(S'mu'
p879
(dp880
S'PRON'
p881
F1.0
s(lp882
g132
atp883
a(S'mala'
p884
(dp885
S'ADV'
p886
F0.001564
sS'VERB'
p887
F0.998435
s(lp888
tp889
a(S'pom\xc3\xb4c\xc5\xa5'
p890
(dp891
S'VERB'
p892
F1.0
s(lp893
g94
atp894
a(S'zn\xc3\xad\xc5\xbei\xc5\xa5'
p895
(dp896
S'VERB'
p897
F1.0
s(lp898
g149
atp899
a(S'celkov\xc3\xba'
p900
(dp901
S'ADJ'
p902
F1.0
s(lp903
g166
atp904
a(S'z\xc3\xa1vislos\xc5\xa5'
p905
(dp906
S'NOUN'
p907
F1.0
s(lp908
g173
atp909
a(S'na'
p910
(dp911
g811
F7.500000000000001e-05
sS'CONJ'
p912
F1.9e-05
sS'ADP'
p913
F0.999902
sS'PRT'
p914
F3e-06
s(lp915
g8
atp916
a(S'medzin\xc3\xa1rodnom'
p917
(dp918
S'ADJ'
p919
F1.0
s(lp920
g192
atp921
a(S'trhu'
p922
(dp923
S'NOUN'
p924
F1.0
s(lp925
g186
atp926
a(g194
(dp927
g194
F1.0
s(lp928
g194
atp929
asS'pl'
p930
(lp931
(S'afryka'
p932
(dp933
S'ADJ'
p934
F0.031655
sS'VERB'
p935
F0.00183
sS'NOUN'
p936
F0.9665149999999998
s(lp937
g21
atp938
a(S'z'
p939
(dp940
S'PRT'
p941
F6e-06
sS'VERB'
p942
F5e-06
sS'NOUN'
p943
F0.0
sS'ADP'
p944
F0.999988
sg811
F0.0
s(lp945
g58
atp946
a(S'naszym'
p947
(dp948
S'ADJ'
p949
F0.999999
s(lp950
g64
atp951
a(S'wsparciem'
p952
(dp953
S'NOUN'
p954
F1.0
s(lp955
g70
atp956
a(S'musi'
p957
(dp958
S'VERB'
p959
F1.0
s(lp960
g33
atp961
a(S'odegra\xc4\x87'
p962
(dp963
S'VERB'
p964
F1.0
s(lp965
g39
atp966
a(S'swoj\xc4\x85'
p967
(dp968
S'ADJ'
p969
F1.0
s(lp970
g45
atp971
a(S'rol\xc4\x99'
p972
(dp973
S'NOUN'
p974
F1.0
s(lp975
g51
atp976
a(S'i'
p977
(dp978
S'PRT'
p979
F0.001879
sS'CONJ'
p980
F0.998079
sS'PRON'
p981
F2e-06
sS'NOUN'
p982
F3.3e-05
sg811
F7e-06
s(lp983
g76
atp984
a(S'rozpocz\xc4\x85\xc4\x87'
p985
(dp986
S'VERB'
p987
F1.0
s(lp988
g94
atp989
a(S'zielon\xc4\x85'
p990
(dp991
S'ADJ'
p992
F1.0
s(lp993
g119
atp994
a(S'rewolucj\xc4\x99'
p995
(dp996
S'NOUN'
p997
F1.0
s(lp998
g113
atp999
a(g227
(dp1000
g811
F0.0
sg194
F1.0
s(lp1001
g227
atp1002
a(S'tak'
p1003
(dp1004
S'ADV'
p1005
F0.779678
sS'NOUN'
p1006
F0.000224
sS'PRT'
p1007
F0.211
sg811
F3.1e-05
sS'CONJ'
p1008
F0.008702
sS'ADJ'
p1009
F0.000366
s(lp1010
tp1011
a(S'aby\xc5\x9bmy'
p1012
(dp1013
S'ADV'
p1014
F0.068051
sS'ADJ'
p1015
F0.024450000000000006
sS'VERB'
p1016
F0.18501799999999996
sS'NOUN'
p1017
F0.7224799999999997
s(lp1018
g270
atp1019
a(S'mogli'
p1020
(dp1021
S'VERB'
p1022
F1.0
s(lp1023
g138
atp1024
a(S'zmniejszy\xc4\x87'
p1025
(dp1026
S'VERB'
p1027
F1.0
s(lp1028
g149
atp1029
a(S'jej'
p1030
(dp1031
S'PRON'
p1032
F0.9999990000000001
sg811
F1e-06
s(lp1033
g155
atp1034
a(S'og\xc3\xb3ln\xc4\x85'
p1035
(dp1036
S'ADJ'
p1037
F1.0
s(lp1038
g166
atp1039
a(S'zale\xc5\xbcno\xc5\x9b\xc4\x87'
p1040
(dp1041
S'NOUN'
p1042
F1.0
s(lp1043
tp1044
a(S'od'
p1045
(dp1046
S'VERB'
p1047
F1e-06
sS'NOUN'
p1048
F3.9e-05
sS'ADP'
p1049
F0.9999589999999999
s(lp1050
g173
atp1051
a(S'rynku'
p1052
(dp1053
S'NOUN'
p1054
F1.0
s(lp1055
g186
atp1056
a(S'mi\xc4\x99dzynarodowego'
p1057
(dp1058
S'ADJ'
p1059
F1.0
s(lp1060
g192
atp1061
a(g194
(dp1062
g194
F1.0
s(lp1063
g194
atp1064
asS'sl'
p1065
(lp1066
(S'afrika'
p1067
(dp1068
S'ADV'
p1069
F0.005065
sS'ADJ'
p1070
F0.046431
sS'NOUN'
p1071
F0.9485050000000002
s(lp1072
g21
atp1073
a(S'mora'
p1074
(dp1075
S'VERB'
p1076
F0.976498
sS'NOUN'
p1077
F0.023502
s(lp1078
g33
atp1079
a(S'imeti'
p1080
(dp1081
S'VERB'
p1082
F1.0
s(lp1083
g39
atp1084
a(S'svojo'
p1085
(dp1086
S'PRON'
p1087
F1.0
s(lp1088
g45
atp1089
a(S'vlogo'
p1090
(dp1091
S'NOUN'
p1092
F1.0
s(lp1093
g51
atp1094
a(g227
(dp1095
g194
F1.0
s(lp1096
g227
atp1097
a(g939
(dp1098
S'ADP'
p1099
F1.0
s(lp1100
g58
atp1101
a(S'na\xc5\xa1o'
p1102
(dp1103
S'PRON'
p1104
F1.0
s(lp1105
g64
atp1106
a(S'pomo\xc4\x8djo'
p1107
(dp1108
S'NOUN'
p1109
F1.0
s(lp1110
g70
atp1111
a(g227
(dp1112
g194
F1.0
s(lp1113
g227
atp1114
a(S'ter'
p1115
(dp1116
S'CONJ'
p1117
F1.0
s(lp1118
g76
atp1119
a(S'mora'
p1120
(dp1121
S'VERB'
p1122
F0.99895
sS'NOUN'
p1123
F0.00105
s(lp1124
tp1125
a(S'spodbuditi'
p1126
(dp1127
S'VERB'
p1128
F1.0
s(lp1129
g94
atp1130
a(S'zeleno'
p1131
(dp1132
S'ADV'
p1133
F0.000109
sS'NOUN'
p1134
F0.000522
sS'ADJ'
p1135
F0.999369
s(lp1136
g119
atp1137
a(S'revolucijo'
p1138
(dp1139
S'NOUN'
p1140
F1.0
s(lp1141
g113
atp1142
a(g227
(dp1143
g194
F1.0
s(lp1144
tp1145
a(S'da'
p1146
(dp1147
S'PRT'
p1148
F0.000131
sS'CONJ'
p1149
F0.999856
sS'VERB'
p1150
F1.2e-05
sg811
F0.0
s(lp1151
g125
atp1152
a(S'bo'
p1153
(dp1154
S'VERB'
p1155
F1.0
s(lp1156
g138
atp1157
a(S'tako'
p1158
(dp1159
S'ADV'
p1160
F0.993443
sS'PRON'
p1161
F0.0021340000000000005
sS'CONJ'
p1162
F0.004424
s(lp1163
g270
atp1164
a(S'zmanj\xc5\xa1ala'
p1165
(dp1166
S'VERB'
p1167
F1.0
s(lp1168
g149
atp1169
a(S'svojo'
p1170
(dp1171
S'PRON'
p1172
F1.0
s(lp1173
g155
atp1174
a(S'splo\xc5\xa1no'
p1175
(dp1176
S'ADV'
p1177
F1.9e-05
sS'ADJ'
p1178
F0.999981
s(lp1179
g166
atp1180
a(S'odvisnost'
p1181
(dp1182
S'NOUN'
p1183
F1.0
s(lp1184
tp1185
a(S'od'
p1186
(dp1187
S'ADP'
p1188
F1.0
s(lp1189
g173
atp1190
a(S'mednarodnega'
p1191
(dp1192
S'ADJ'
p1193
F1.0
s(lp1194
g192
atp1195
a(S'trga'
p1196
(dp1197
S'VERB'
p1198
F1.7e-05
sS'NOUN'
p1199
F0.999983
s(lp1200
g186
atp1201
a(g194
(dp1202
g194
F1.0
s(lp1203
g194
atp1204
asS'es'
p1205
(lp1206
(S'\xc3\x81frica'
p1207
(dp1208
S'NOUN'
p1209
F1.0
s(lp1210
g21
atp1211
a(S'debe'
p1212
(dp1213
S'VERB'
p1214
F1.0
s(lp1215
g33
atp1216
a(S'desempe\xc3\xb1ar'
p1217
(dp1218
S'VERB'
p1219
F1.0
s(lp1220
g39
atp1221
a(S'el'
p1222
(dp1223
S'PRON'
p1224
F0.0
sS'DET'
p1225
F1.0
s(lp1226
g45
atp1227
a(S'papel'
p1228
(dp1229
S'NOUN'
p1230
F1.0
s(lp1231
tp1232
a(S'que'
p1233
(dp1234
g811
F0.0
sS'CONJ'
p1235
F1.0
s(lp1236
tp1237
a(S'le'
p1238
(dp1239
S'PRON'
p1240
F1.0
sg811
F0.0
s(lp1241
g132
atp1242
a(S'corresponde'
p1243
(dp1244
S'VERB'
p1245
F1.0
s(lp1246
g51
atp1247
a(g227
(dp1248
g194
F1.0
s(lp1249
g227
atp1250
a(S'con'
p1251
(dp1252
S'ADP'
p1253
F1.0
s(lp1254
g58
atp1255
a(S'nuestro'
p1256
(dp1257
S'PRON'
p1258
F0.786524
sS'ADJ'
p1259
F0.213476
s(lp1260
g64
atp1261
a(S'apoyo'
p1262
(dp1263
S'NOUN'
p1264
F1.0
s(lp1265
g70
atp1266
a(g227
(dp1267
g194
F1.0
s(lp1268
g227
atp1269
a(S'y'
p1270
(dp1271
g811
F1.9e-05
sS'CONJ'
p1272
F0.999981
s(lp1273
g76
atp1274
a(S'promover'
p1275
(dp1276
S'VERB'
p1277
F1.0
s(lp1278
g94
atp1279
a(S'una'
p1280
(dp1281
S'DET'
p1282
F1.0
s(lp1283
g102
atp1284
a(S'revoluci\xc3\xb3n'
p1285
(dp1286
S'NOUN'
p1287
F1.0
s(lp1288
g113
atp1289
a(S'verde'
p1290
(dp1291
S'NOUN'
p1292
F0.006147
sS'ADJ'
p1293
F0.993853
s(lp1294
g119
atp1295
a(S'de'
p1296
(dp1297
S'CONJ'
p1298
F1.0
s(lp1299
tp1300
a(S'modo'
p1301
(dp1302
S'CONJ'
p1303
F1.0
s(lp1304
g270
atp1305
a(S'que'
p1306
(dp1307
S'CONJ'
p1308
F1.0
s(lp1309
g125
atp1310
a(S'pueda'
p1311
(dp1312
S'VERB'
p1313
F1.0
s(lp1314
g138
atp1315
a(S'reducir'
p1316
(dp1317
S'VERB'
p1318
F1.0
s(lp1319
g149
atp1320
a(S'su'
p1321
(dp1322
S'PRON'
p1323
F1.0
s(lp1324
g155
atp1325
a(S'total'
p1326
(dp1327
S'NOUN'
p1328
F0.084495
sS'ADJ'
p1329
F0.915274
sg811
F0.000231
s(lp1330
g166
atp1331
a(S'dependencia'
p1332
(dp1333
S'NOUN'
p1334
F1.0
s(lp1335
g173
atp1336
a(S'del'
p1337
(dp1338
S'ADP'
p1339
F1.0
s(lp1340
g179
atp1341
a(S'mercado'
p1342
(dp1343
S'VERB'
p1344
F0.000998
sS'NOUN'
p1345
F0.999002
s(lp1346
g186
atp1347
a(S'internacional'
p1348
(dp1349
S'ADJ'
p1350
F1.0
s(lp1351
g192
atp1352
a(g194
(dp1353
g194
F1.0
s(lp1354
g194
atp1355
as.