(dp0
S'fr'
p1
(lp2
(S'pour'
p3
(dp4
S'CONJ'
p5
F0.186184
sS'ADP'
p6
F0.813816
s(lp7
S'for'
p8
atp9
a(S'le'
p10
(dp11
S'PRON'
p12
F7e-06
sS'DET'
p13
F0.999993
s(lp14
S'the'
p15
atp16
a(S'7e'
p17
(dp18
S'NUM'
p19
F1.0
s(lp20
S'seventh'
p21
atp22
a(S'programme-cadre'
p23
(dp24
S'ADJ'
p25
F0.005644
sS'VERB'
p26
F0.007539000000000001
sS'NOUN'
p27
F0.986818
s(lp28
S'framework'
p29
atp30
a(S'de'
p31
(dp32
S'ADP'
p33
F1.0
s(lp34
S'for'
p35
atp36
a(S'recherche'
p37
(dp38
S'VERB'
p39
F0.000313
sS'NOUN'
p40
F0.999687
s(lp41
S'research'
p42
atp43
a(S'et'
p44
(dp45
S'CONJ'
p46
F1.0
s(lp47
S'and'
p48
atp49
a(S'd\xc3\xa9veloppement'
p50
(dp51
S'NOUN'
p52
F1.0
s(lp53
S'development'
p54
atp55
a(S'technologique'
p56
(dp57
S'ADJ'
p58
F1.0
s(lp59
S'technological'
p60
atp61
a(S','
p62
(dp63
S'.'
p64
F1.0
s(lp65
g62
atp66
a(S'ou'
p67
(dp68
S'CONJ'
p69
F1.0
s(lp70
S'or'
p71
atp72
a(S'"'
p73
(dp74
g64
F1.0
s(lp75
S"'"
p76
atp77
a(S'pc'
p78
(dp79
S'NOUN'
p80
F1.0
s(lp81
S'fp'
p82
atp83
a(S'2007-2013'
p84
(dp85
S'X'
p86
F0.003372
sS'NUM'
p87
F0.996628
s(lp88
S'2007-2013'
p89
atp90
a(g73
(dp91
g64
F1.0
s(lp92
g76
atp93
a(g62
(dp94
g64
F1.0
s(lp95
g62
atp96
a(S'la'
p97
(dp98
S'NOUN'
p99
F3e-06
sS'DET'
p100
F0.999993
sS'PRON'
p101
F3e-06
s(lp102
S'the'
p103
atp104
a(S'premi\xc3\xa8re'
p105
(dp106
S'NUM'
p107
F0.999645
sS'NOUN'
p108
F0.000355
s(lp109
S'first'
p110
atp111
a(S'p\xc3\xa9riode'
p112
(dp113
S'NOUN'
p114
F1.0
s(lp115
S'period'
p116
atp117
a(S'de'
p118
(dp119
S'ADP'
p120
F1.0
s(lp121
tp122
a(S'rapport'
p123
(dp124
S'NOUN'
p125
F1.0
s(lp126
S'reporting'
p127
atp128
a(S'a'
p129
(dp130
S'VERB'
p131
F1.0
s(lp132
S'takes'
p133
atp134
a(S'lieu'
p135
(dp136
S'NOUN'
p137
F1.0
s(lp138
S'place'
p139
atp140
a(S'18'
p141
(dp142
g86
F0.000173
sS'NUM'
p143
F0.999827
s(lp144
S'18'
p145
atp146
a(S'mois'
p147
(dp148
S'NOUN'
p149
F1.0
s(lp150
S'months'
p151
atp152
a(S'apr\xc3\xa8s'
p153
(dp154
S'ADV'
p155
F0.010496
sS'CONJ'
p156
F0.105605
sS'ADP'
p157
F0.883899
s(lp158
S'after'
p159
atp160
a(S'le'
p161
(dp162
S'PRON'
p163
F0.000114
sS'DET'
p164
F0.999886
s(lp165
S'the'
p166
atp167
a(S'd\xc3\xa9but'
p168
(dp169
S'NOUN'
p170
F1.0
s(lp171
S'start'
p172
atp173
a(S'du'
p174
(dp175
S'ADP'
p176
F1.0
s(lp177
S'of'
p178
atp179
a(S'projet'
p180
(dp181
S'NOUN'
p182
F1.0
s(lp183
S'project'
p184
atp185
a(g64
(dp186
g64
F1.0
s(lp187
g64
atp188
asS'en'
p189
(lp190
(g8
(dp191
S'ADP'
p192
F1.0
s(lp193
g8
atp194
a(g15
(dp195
S'NOUN'
p196
F1e-06
sS'DET'
p197
F0.999999
s(lp198
g15
atp199
a(g21
(dp200
S'ADV'
p201
F9.1e-05
sS'NOUN'
p202
F0.0041
sS'ADJ'
p203
F0.995809
s(lp204
g21
atp205
a(g29
(dp206
S'NOUN'
p207
F1.0
s(lp208
g29
atp209
a(S'programme'
p210
(dp211
S'VERB'
p212
F0.017853
sS'NOUN'
p213
F0.982146
s(lp214
g210
atp215
a(g35
(dp216
S'ADP'
p217
F1.0
s(lp218
g35
atp219
a(g42
(dp220
S'VERB'
p221
F1.4e-05
sS'NOUN'
p222
F0.999986
s(lp223
g42
atp224
a(g48
(dp225
S'CONJ'
p226
F1.0
sS'NOUN'
p227
F0.0
s(lp228
g48
atp229
a(g60
(dp230
S'ADJ'
p231
F1.0
s(lp232
g60
atp233
a(g54
(dp234
S'NOUN'
p235
F1.0
s(lp236
g54
atp237
a(g62
(dp238
g64
F1.0
s(lp239
g62
atp240
a(g71
(dp241
S'CONJ'
p242
F0.999961
sS'ADJ'
p243
F3.9e-05
s(lp244
g71
atp245
a(g76
(dp246
S'PRT'
p247
F0.965512
sg64
F0.034488
s(lp248
g76
atp249
a(g82
(dp250
S'ADJ'
p251
F0.1543
sS'VERB'
p252
F0.001552
sS'NOUN'
p253
F0.844148
s(lp254
g82
atp255
a(S'7'
p256
(dp257
S'NUM'
p258
F1.0
s(lp259
g256
atp260
a(g89
(dp261
S'ADV'
p262
F0.0
sS'ADJ'
p263
F0.000122
sS'NUM'
p264
F0.985177
sS'NOUN'
p265
F0.014701
sg86
F0.0
s(lp266
g89
atp267
a(g76
(dp268
S'PRT'
p269
F0.997865
sg64
F0.002135
s(lp270
g76
atp271
a(g62
(dp272
g64
F1.0
s(lp273
g62
atp274
a(g103
(dp275
S'NOUN'
p276
F2e-06
sS'DET'
p277
F0.999998
s(lp278
g103
atp279
a(g110
(dp280
S'ADV'
p281
F0.011849
sS'NOUN'
p282
F0.000985
sS'ADJ'
p283
F0.987165
s(lp284
g110
atp285
a(g127
(dp286
S'VERB'
p287
F0.177331
sS'NOUN'
p288
F0.822669
s(lp289
g127
atp290
a(g116
(dp291
S'NOUN'
p292
F1.0
s(lp293
g116
atp294
a(g133
(dp295
S'VERB'
p296
F1.0
s(lp297
g133
atp298
a(g139
(dp299
S'VERB'
p300
F0.353148
sS'NOUN'
p301
F0.646852
s(lp302
g139
atp303
a(g145
(dp304
S'ADV'
p305
F2.1e-05
sS'NOUN'
p306
F0.000273
sS'NUM'
p307
F0.993991
sS'ADJ'
p308
F0.005715
sg86
F0.0
s(lp309
g145
atp310
a(g151
(dp311
S'NOUN'
p312
F1.0
s(lp313
g151
atp314
a(g159
(dp315
S'ADV'
p316
F0.001039
sS'ADP'
p317
F0.998961
s(lp318
g159
atp319
a(g166
(dp320
S'NOUN'
p321
F2e-06
sS'DET'
p322
F0.999998
s(lp323
g166
atp324
a(g172
(dp325
S'VERB'
p326
F0.006353
sS'NOUN'
p327
F0.993646
s(lp328
g172
atp329
a(g178
(dp330
S'ADP'
p331
F1.0
s(lp332
g178
atp333
a(S'the'
p334
(dp335
S'NOUN'
p336
F1e-06
sS'DET'
p337
F0.999999
s(lp338
g334
atp339
a(g184
(dp340
S'VERB'
p341
F0.00026900000000000003
sS'NOUN'
p342
F0.999731
s(lp343
g184
atp344
a(g64
(dp345
g64
F1.0
s(lp346
g64
atp347
asS'nl'
p348
(lp349
(S'voor'
p350
(dp351
S'ADV'
p352
F0.006079
sS'CONJ'
p353
F4.2e-05
sS'NOUN'
p354
F0.0
sS'ADP'
p355
F0.993879
s(lp356
g8
atp357
a(S'het'
p358
(dp359
S'PRON'
p360
F0.001044
sS'DET'
p361
F0.998956
s(lp362
g15
atp363
a(S'zevende'
p364
(dp365
S'NUM'
p366
F0.992891
sS'NOUN'
p367
F0.000679
sS'VERB'
p368
F0.00643
s(lp369
g21
atp370
a(S'kaderprogramma'
p371
(dp372
S'NOUN'
p373
F1.0
s(lp374
g29
atp375
a(S'voor'
p376
(dp377
S'ADV'
p378
F0.001037
sS'CONJ'
p379
F1e-06
sS'NOUN'
p380
F0.0
sS'ADP'
p381
F0.998961
s(lp382
g35
atp383
a(S'onderzoek'
p384
(dp385
S'VERB'
p386
F6e-06
sS'NOUN'
p387
F0.999994
s(lp388
g42
atp389
a(S'en'
p390
(dp391
S'CONJ'
p392
F1.0
s(lp393
g48
atp394
a(S'technologische'
p395
(dp396
S'NOUN'
p397
F0.001834
sS'ADJ'
p398
F0.998166
s(lp399
g60
atp400
a(S'ontwikkeling'
p401
(dp402
S'NOUN'
p403
F1.0
s(lp404
g54
atp405
a(g62
(dp406
g64
F1.0
s(lp407
g62
atp408
a(S'ofwel'
p409
(dp410
S'CONJ'
p411
F1.0
s(lp412
g71
atp413
a(S'kp7'
p414
(dp415
S'ADJ'
p416
F0.042875
sS'NOUN'
p417
F0.957125
s(lp418
tp419
a(S'2007-2013'
p420
(dp421
S'NUM'
p422
F1.0
s(lp423
g89
atp424
a(g62
(dp425
g64
F1.0
s(lp426
g62
atp427
a(S'vindt'
p428
(dp429
S'VERB'
p430
F1.0
s(lp431
tp432
a(S'de'
p433
(dp434
S'DET'
p435
F1.0
s(lp436
g103
atp437
a(S'eerste'
p438
(dp439
S'NUM'
p440
F0.999991
sS'NOUN'
p441
F9e-06
s(lp442
g110
atp443
a(S'rapportageperiode'
p444
(dp445
S'NOUN'
p446
F1.0
s(lp447
g82
atp448
a(S'achttien'
p449
(dp450
S'NUM'
p451
F1.0
s(lp452
g145
atp453
a(S'maanden'
p454
(dp455
S'VERB'
p456
F1e-06
sS'NOUN'
p457
F0.999999
s(lp458
g151
atp459
a(S'na'
p460
(dp461
S'ADV'
p462
F0.009007
sS'CONJ'
p463
F0.00024
sS'ADP'
p464
F0.990754
s(lp465
g159
atp466
a(S'de'
p467
(dp468
S'DET'
p469
F1.0
s(lp470
g166
atp471
a(S'start'
p472
(dp473
S'VERB'
p474
F0.000156
sS'NOUN'
p475
F0.999844
s(lp476
g172
atp477
a(S'van'
p478
(dp479
S'ADP'
p480
F1.0
s(lp481
g178
atp482
a(S'het'
p483
(dp484
S'PRON'
p485
F0.000927
sS'DET'
p486
F0.999073
s(lp487
g334
atp488
a(S'project'
p489
(dp490
S'NOUN'
p491
F1.0
s(lp492
g184
atp493
a(S'plaats'
p494
(dp495
S'VERB'
p496
F0.002166
sS'NOUN'
p497
F0.997834
s(lp498
g139
atp499
a(g64
(dp500
g64
F1.0
s(lp501
g64
atp502
asS'de'
p503
(lp504
(S'f\xc3\xbcr'
p505
(dp506
S'ADP'
p507
F1.0
s(lp508
g8
atp509
a(S'das'
p510
(dp511
S'PRON'
p512
F0.00675
sS'DET'
p513
F0.993235
s(lp514
g15
atp515
a(S'siebte'
p516
(dp517
S'VERB'
p518
F0.000508
sS'ADJ'
p519
F0.999492
s(lp520
g21
atp521
a(S'rahmenprogramm'
p522
(dp523
S'VERB'
p524
F1.8e-05
sS'NOUN'
p525
F0.99995
s(lp526
g29
atp527
a(S'f\xc3\xbcr'
p528
(dp529
S'ADP'
p530
F1.0
s(lp531
g35
atp532
a(S'forschung'
p533
(dp534
g86
F0.35357
sS'NOUN'
p535
F0.470109
s(lp536
g42
atp537
a(S'und'
p538
(dp539
S'CONJ'
p540
F1.0
s(lp541
g48
atp542
a(S'technologische'
p543
(dp544
S'ADJ'
p545
F1.0
s(lp546
g60
atp547
a(S'entwicklung'
p548
(dp549
S'ADJ'
p550
F0.016881
sS'NOUN'
p551
F0.96138
s(lp552
g54
atp553
a(g62
(dp554
g64
F1.0
s(lp555
g62
atp556
a(S'oder'
p557
(dp558
S'CONJ'
p559
F1.0
s(lp560
g71
atp561
a(g73
(dp562
g64
F1.0
s(lp563
g76
atp564
a(S'7.'
p565
(dp566
S'NUM'
p567
F1.0
s(lp568
g256
atp569
a(S'rp'
p570
(dp571
S'NOUN'
p572
F0.990416
s(lp573
tp574
a(S'2007-2013'
p575
(dp576
S'NUM'
p577
F0.969071
sS'ADJ'
p578
F0.029436
s(lp579
g89
atp580
a(g73
(dp581
g64
F1.0
s(lp582
g76
atp583
a(S'wurde'
p584
(dp585
S'VERB'
p586
F1.0
s(lp587
g62
atp588
a(S'die'
p589
(dp590
S'PRON'
p591
F0.002849
sS'DET'
p592
F0.99715
s(lp593
g103
atp594
a(S'erste'
p595
(dp596
S'ADJ'
p597
F1.0
s(lp598
g110
atp599
a(S'pr\xc3\xbcfungswelle'
p600
(dp601
S'ADJ'
p602
F0.05091
sS'NOUN'
p603
F0.943987
s(lp604
g82
atp605
a(S'18'
p606
(dp607
S'NUM'
p608
F1.0
s(lp609
g145
atp610
a(S'monate'
p611
(dp612
S'ADJ'
p613
F0.013465
sS'NOUN'
p614
F0.982808
s(lp615
g151
atp616
a(S'nach'
p617
(dp618
S'ADP'
p619
F0.9958480000000001
s(lp620
g159
atp621
a(S'dem'
p622
(dp623
S'PRON'
p624
F0.026865
sS'DET'
p625
F0.969631
s(lp626
g166
atp627
a(S'beginn'
p628
(dp629
S'VERB'
p630
F1.0
s(lp631
g172
atp632
a(S'des'
p633
(dp634
S'DET'
p635
F1.0
s(lp636
g178
atp637
a(S'projekts'
p638
(dp639
S'ADJ'
p640
F0.000245
sS'NOUN'
p641
F0.999642
s(lp642
g184
atp643
a(S'durchgef\xc3\xbchrt'
p644
(dp645
S'VERB'
p646
F0.989446
sS'ADJ'
p647
F0.010554
s(lp648
g139
atp649
a(g64
(dp650
g64
F1.0
s(lp651
g64
atp652
asS'it'
p653
(lp654
(S'nel'
p655
(dp656
S'ADP'
p657
F1.0
s(lp658
g8
atp659
a(S'caso'
p660
(dp661
S'NOUN'
p662
F1.0
s(lp663
tp664
a(S'del'
p665
(dp666
S'DEF'
p667
F0.002536
sS'ADP'
p668
F0.997464
s(lp669
g15
atp670
a(S'settimo'
p671
(dp672
S'NOUN'
p673
F0.13734
sS'ADJ'
p674
F0.86266
s(lp675
g21
atp676
a(S'programma'
p677
(dp678
S'VERB'
p679
F0.018675999999999998
sS'NOUN'
p680
F0.981324
s(lp681
g210
atp682
a(S'quadro'
p683
(dp684
S'NOUN'
p685
F0.306564
sS'VERB'
p686
F0.003347
sS'ADJ'
p687
F0.690089
s(lp688
g29
atp689
a(S'per'
p690
(dp691
S'CONJ'
p692
F0.05843
sS'ADP'
p693
F0.94157
s(lp694
g35
atp695
a(S'la'
p696
(dp697
S'PRON'
p698
F0.000273
sS'DET'
p699
F0.999727
s(lp700
tp701
a(S'ricerca'
p702
(dp703
S'VERB'
p704
F9e-05
sS'NOUN'
p705
F0.99991
s(lp706
g42
atp707
a(S'e'
p708
(dp709
S'CONJ'
p710
F1.0
s(lp711
g48
atp712
a(S'lo'
p713
(dp714
S'PRON'
p715
F0.01781
sS'DET'
p716
F0.98219
s(lp717
tp718
a(S'sviluppo'
p719
(dp720
S'VERB'
p721
F0.004997
sS'NOUN'
p722
F0.995003
s(lp723
g54
atp724
a(S'tecnologico'
p725
(dp726
S'ADJ'
p727
F1.0
s(lp728
g60
atp729
a(g62
(dp730
g64
F1.0
s(lp731
g62
atp732
a(S'o'
p733
(dp734
g86
F1e-06
sS'CONJ'
p735
F0.999999
s(lp736
g71
atp737
a(S'7pq'
p738
(dp739
S'ADJ'
p740
F0.00024
sS'NOUN'
p741
F0.99976
s(lp742
g82
atp743
a(S'2007-2013'
p744
(dp745
S'NUM'
p746
F0.988149
sg64
F0.01185
s(lp747
g89
atp748
a(g62
(dp749
g64
F1.0
s(lp750
g62
atp751
a(S'il'
p752
(dp753
S'DET'
p754
F1.0
s(lp755
g103
atp756
a(S'primo'
p757
(dp758
S'NOUN'
p759
F0.011128
sS'ADJ'
p760
F0.988872
s(lp761
g110
atp762
a(S'periodo'
p763
(dp764
S'VERB'
p765
F0.00132
sS'NOUN'
p766
F0.99868
s(lp767
g116
atp768
a(S'di'
p769
(dp770
S'CONJ'
p771
F4e-06
sS'ADP'
p772
F0.999996
s(lp773
tp774
a(S'rendicontazione'
p775
(dp776
S'NOUN'
p777
F1.0
s(lp778
g127
atp779
a(S'ha'
p780
(dp781
S'VERB'
p782
F1.0
s(lp783
g133
atp784
a(S'luogo'
p785
(dp786
S'NOUN'
p787
F1.0
s(lp788
g139
atp789
a(S'18'
p790
(dp791
S'NUM'
p792
F0.990887
sg64
F0.009112
s(lp793
g145
atp794
a(S'mesi'
p795
(dp796
S'NOUN'
p797
F1.0
s(lp798
g151
atp799
a(S'dopo'
p800
(dp801
S'ADV'
p802
F0.04936
sS'CONJ'
p803
F0.250843
sS'ADJ'
p804
F0.000311
sS'ADP'
p805
F0.699486
s(lp806
g159
atp807
a(S"l'"
p808
(dp809
S'NOUN'
p810
F0.007605
sS'VERB'
p811
F0.9646519999999998
sS'ADJ'
p812
F0.027743
s(lp813
g166
atp814
a(S'avvio'
p815
(dp816
S'VERB'
p817
F0.01058
sS'NOUN'
p818
F0.98942
s(lp819
g172
atp820
a(S'del'
p821
(dp822
S'DEF'
p823
F0.001768
sS'ADP'
p824
F0.998232
s(lp825
g178
atp826
a(S'progetto'
p827
(dp828
S'VERB'
p829
F2e-06
sS'NOUN'
p830
F0.999998
s(lp831
g184
atp832
a(g64
(dp833
g64
F1.0
s(lp834
g64
atp835
asS'sk'
p836
(lp837
(S'v'
p838
(dp839
g86
F0.000596
sS'ADP'
p840
F0.999404
s(lp841
g8
atp842
a(S'pr\xc3\xadpade'
p843
(dp844
S'NOUN'
p845
F1.0
s(lp846
g15
atp847
a(S'7.'
p848
(dp849
S'NUM'
p850
F1.0
s(lp851
g21
atp852
a(S'r\xc3\xa1mcov\xc3\xa9ho'
p853
(dp854
S'ADJ'
p855
F1.0
s(lp856
g29
atp857
a(S'programu'
p858
(dp859
S'NOUN'
p860
F1.0
s(lp861
g210
atp862
a(S'pre'
p863
(dp864
g86
F0.000189
sS'ADP'
p865
F0.999811
s(lp866
g35
atp867
a(S'v\xc3\xbdskum'
p868
(dp869
S'NOUN'
p870
F1.0
s(lp871
g42
atp872
a(g129
(dp873
g86
F0.001131
sS'CONJ'
p874
F0.998072
sS'NOUN'
p875
F0.000173
sS'ADP'
p876
F0.000598
sS'PRT'
p877
F2.6e-05
s(lp878
g48
atp879
a(S'technologick\xc3\xbd'
p880
(dp881
S'ADJ'
p882
F1.0
s(lp883
g60
atp884
a(S'rozvoj'
p885
(dp886
S'NOUN'
p887
F1.0
s(lp888
g54
atp889
a(S'alebo'
p890
(dp891
g86
F0.003831
sS'CONJ'
p892
F0.996169
s(lp893
g71
atp894
a(g256
(dp895
S'NUM'
p896
F1.0
s(lp897
g256
atp898
a(g64
(dp899
g64
F1.0
s(lp900
g76
atp901
a(S'rp'
p902
(dp903
g86
F1.0
s(lp904
tp905
a(S'('
p906
(dp907
g64
F1.0
s(lp908
g89
atp909
a(S'2007'
p910
(dp911
S'NUM'
p912
F1.0
s(lp913
g89
atp914
a(S'-'
p915
(dp916
g64
F1.0
s(lp917
tp918
a(S'2013'
p919
(dp920
S'NUM'
p921
F1.0
s(lp922
g89
atp923
a(S')'
p924
(dp925
g64
F1.0
s(lp926
g76
atp927
a(S'sa'
p928
(dp929
S'PRT'
p930
F0.990113
sS'ADP'
p931
F0.006035
sg86
F0.003852
s(lp932
g103
atp933
a(S'prv\xc3\xa9'
p934
(dp935
S'NUM'
p936
F1.0
s(lp937
g110
atp938
a(S'vykazovacie'
p939
(dp940
S'NOUN'
p941
F0.012383
sS'VERB'
p942
F0.001522
sS'ADJ'
p943
F0.986095
s(lp944
g127
atp945
a(S'obdobie'
p946
(dp947
S'NOUN'
p948
F1.0
s(lp949
g116
atp950
a(S'za\xc4\x8d\xc3\xadna'
p951
(dp952
S'VERB'
p953
F1.0
s(lp954
g82
atp955
a(S'po'
p956
(dp957
g86
F0.004735
sS'ADP'
p958
F0.995266
s(lp959
g159
atp960
a(S'18'
p961
(dp962
S'NUM'
p963
F1.0
s(lp964
g145
atp965
a(S'mesiacoch'
p966
(dp967
S'NOUN'
p968
F1.0
s(lp969
g151
atp970
a(S'od'
p971
(dp972
g86
F2.7e-05
sS'ADP'
p973
F0.999973
s(lp974
g166
atp975
a(S'za\xc4\x8diatku'
p976
(dp977
S'NOUN'
p978
F1.0
s(lp979
g172
atp980
a(S'projektu'
p981
(dp982
S'NOUN'
p983
F1.0
s(lp984
g184
atp985
a(g64
(dp986
g64
F1.0
s(lp987
g64
atp988
asS'pl'
p989
(lp990
(S'je\xc5\xbceli'
p991
(dp992
S'CONJ'
p993
F1.0
s(lp994
g8
atp995
a(S'chodzi'
p996
(dp997
S'VERB'
p998
F1.0
s(lp999
g15
atp1000
a(g733
(dp1001
g86
F0.009362
sS'VERB'
p1002
F3.1e-05
sS'NOUN'
p1003
F8e-06
sS'ADP'
p1004
F0.990533
sS'PRT'
p1005
F6.5e-05
s(lp1006
g82
atp1007
a(S'si\xc3\xb3dmy'
p1008
(dp1009
S'ADJ'
p1010
F0.9999999999999999
s(lp1011
g21
atp1012
a(S'program'
p1013
(dp1014
S'NOUN'
p1015
F1.0
s(lp1016
g210
atp1017
a(S'ramowy'
p1018
(dp1019
S'ADJ'
p1020
F1.0
s(lp1021
g29
atp1022
a(S'na'
p1023
(dp1024
S'PRT'
p1025
F1.8e-05
sS'VERB'
p1026
F1.2e-05
sS'NOUN'
p1027
F1e-06
sS'ADP'
p1028
F0.999963
sg86
F6e-06
s(lp1029
tp1030
a(S'rzecz'
p1031
(dp1032
S'NOUN'
p1033
F1.0
s(lp1034
g35
atp1035
a(S'bada\xc5\x84'
p1036
(dp1037
S'NOUN'
p1038
F1.0
s(lp1039
g42
atp1040
a(S'i'
p1041
(dp1042
S'PRT'
p1043
F0.001076
sS'CONJ'
p1044
F0.998896
sS'PRON'
p1045
F2e-06
sS'NOUN'
p1046
F2.6000000000000002e-05
sg86
F1e-06
s(lp1047
g48
atp1048
a(S'rozwoju'
p1049
(dp1050
S'NOUN'
p1051
F1.0
s(lp1052
g54
atp1053
a(S'technologicznego'
p1054
(dp1055
S'ADV'
p1056
F0.000111
sS'NOUN'
p1057
F0.007746
sS'VERB'
p1058
F0.001495
sS'ADJ'
p1059
F0.990651
s(lp1060
g60
atp1061
a(g62
(dp1062
g86
F0.0
sg64
F1.0
s(lp1063
g62
atp1064
a(g73
(dp1065
g64
F1.0
s(lp1066
g76
atp1067
a(S'fp'
p1068
(dp1069
S'ADV'
p1070
F0.001699
sS'ADJ'
p1071
F6.6e-05
sS'VERB'
p1072
F0.001995
sS'NOUN'
p1073
F0.996209
sg86
F3.1e-05
s(lp1074
g82
atp1075
a(g256
(dp1076
S'NUM'
p1077
F0.928016
sS'ADJ'
p1078
F0.071984
s(lp1079
g256
atp1080
a(S'2007-2013'
p1081
(dp1082
S'ADV'
p1083
F5e-06
sg86
F1.8e-05
sS'NUM'
p1084
F0.9268179999999994
sS'ADJ'
p1085
F0.07311699999999999
sS'NOUN'
p1086
F4.2e-05
s(lp1087
g89
atp1088
a(S'\xe2\x80\x9d'
p1089
(dp1090
g64
F1.0
s(lp1091
g76
atp1092
a(g62
(dp1093
g86
F8e-06
sg64
F0.999992
s(lp1094
g62
atp1095
a(S'to'
p1096
(dp1097
S'NOUN'
p1098
F0.035554999999999996
sS'ADP'
p1099
F1e-06
sS'PRT'
p1100
F0.113573
sg86
F0.000103
sS'CONJ'
p1101
F0.759782
sS'ADJ'
p1102
F0.090987
s(lp1103
g103
atp1104
a(S'pierwszy'
p1105
(dp1106
S'NOUN'
p1107
F0.000104
sS'ADJ'
p1108
F0.999895
s(lp1109
g110
atp1110
a(S'okres'
p1111
(dp1112
S'NOUN'
p1113
F1.0
s(lp1114
g116
atp1115
a(S'sprawozdawczy'
p1116
(dp1117
S'ADJ'
p1118
F1.0
s(lp1119
g127
atp1120
a(S'przypada'
p1121
(dp1122
S'VERB'
p1123
F1.0
s(lp1124
tp1125
a(S'w'
p1126
(dp1127
S'ADJ'
p1128
F0.0
sg86
F0.0
sS'NOUN'
p1129
F0.0
sS'ADP'
p1130
F1.0
s(lp1131
tp1132
a(S'terminie'
p1133
(dp1134
S'NOUN'
p1135
F1.0
s(lp1136
g82
atp1137
a(S'18'
p1138
(dp1139
S'NUM'
p1140
F0.8452919999999999
sS'ADJ'
p1141
F0.15471000000000004
s(lp1142
g145
atp1143
a(S'miesi\xc4\x99cy'
p1144
(dp1145
S'NOUN'
p1146
F1.0
s(lp1147
g151
atp1148
a(S'od'
p1149
(dp1150
S'VERB'
p1151
F4e-06
sS'NOUN'
p1152
F0.000179
sS'ADP'
p1153
F0.999818
s(lp1154
g159
atp1155
a(S'rozpocz\xc4\x99cia'
p1156
(dp1157
S'VERB'
p1158
F0.932192
sS'NOUN'
p1159
F0.067808
s(lp1160
g172
atp1161
a(S'projektu'
p1162
(dp1163
S'NOUN'
p1164
F1.0
s(lp1165
g184
atp1166
a(g64
(dp1167
g64
F1.0
s(lp1168
g64
atp1169
asS'sl'
p1170
(lp1171
(S'pri'
p1172
(dp1173
S'ADP'
p1174
F1.0
s(lp1175
g8
atp1176
a(S'sedmem'
p1177
(dp1178
S'NUM'
p1179
F1.0
s(lp1180
g21
atp1181
a(S'okvirnem'
p1182
(dp1183
S'ADV'
p1184
F7e-05
sS'NOUN'
p1185
F0.009425
sS'VERB'
p1186
F0.000686
sS'ADJ'
p1187
F0.9898160000000001
s(lp1188
g29
atp1189
a(S'programu'
p1190
(dp1191
S'NOUN'
p1192
F1.0
s(lp1193
g210
atp1194
a(S'za'
p1195
(dp1196
S'ADV'
p1197
F0.000285
sg86
F9e-06
sS'ADP'
p1198
F0.999706
s(lp1199
g35
atp1200
a(S'raziskave'
p1201
(dp1202
S'NOUN'
p1203
F0.999999
s(lp1204
g42
atp1205
a(S'in'
p1206
(dp1207
S'ADV'
p1208
F6.2e-05
sg86
F1.9e-05
sS'CONJ'
p1209
F0.999916
sS'NOUN'
p1210
F3e-06
s(lp1211
g48
atp1212
a(S'tehnolo\xc5\xa1ki'
p1213
(dp1214
S'ADJ'
p1215
F0.9999999999999999
s(lp1216
g60
atp1217
a(S'razvoj'
p1218
(dp1219
S'NOUN'
p1220
F1.0
s(lp1221
g54
atp1222
a(S'ali'
p1223
(dp1224
S'ADV'
p1225
F0.036628
sS'CONJ'
p1226
F0.963372
s(lp1227
g71
atp1228
a(g73
(dp1229
g64
F1.0
s(lp1230
g76
atp1231
a(g256
(dp1232
S'NUM'
p1233
F1.0
s(lp1234
g256
atp1235
a(g64
(dp1236
g64
F1.0
s(lp1237
tp1238
a(S'op'
p1239
(dp1240
S'ADV'
p1241
F0.001067
sS'ADJ'
p1242
F0.0018930000000000002
sS'VERB'
p1243
F0.000925
sS'NOUN'
p1244
F0.9958389999999998
sg86
F0.000274
s(lp1245
g82
atp1246
a(S'2007-2013'
p1247
(dp1248
S'NUM'
p1249
F1.0
s(lp1250
g89
atp1251
a(g73
(dp1252
g64
F1.0
s(lp1253
g76
atp1254
a(S'prvo'
p1255
(dp1256
S'NUM'
p1257
F1.0
s(lp1258
g110
atp1259
a(S'obdobje'
p1260
(dp1261
S'NOUN'
p1262
F1.0
s(lp1263
g116
atp1264
a(S'poro\xc4\x8danja'
p1265
(dp1266
S'NOUN'
p1267
F1.0
s(lp1268
g127
atp1269
a(S'nastopi'
p1270
(dp1271
S'VERB'
p1272
F0.974539
sS'NOUN'
p1273
F0.025460999999999998
s(lp1274
g133
atp1275
a(S'18'
p1276
(dp1277
S'NUM'
p1278
F1.0
s(lp1279
g145
atp1280
a(S'mesecev'
p1281
(dp1282
S'NOUN'
p1283
F1.0
s(lp1284
g151
atp1285
a(S'po'
p1286
(dp1287
g86
F1e-06
sS'ADP'
p1288
F0.999999
s(lp1289
g159
atp1290
a(S'za\xc4\x8detku'
p1291
(dp1292
S'NOUN'
p1293
F1.0
s(lp1294
g172
atp1295
a(S'projekta'
p1296
(dp1297
S'NOUN'
p1298
F1.0
s(lp1299
g184
atp1300
a(g64
(dp1301
g64
F1.0
s(lp1302
g64
atp1303
asS'es'
p1304
(lp1305
(S'para'
p1306
(dp1307
S'CONJ'
p1308
F0.003274
sS'ADP'
p1309
F0.996726
s(lp1310
g8
atp1311
a(S'el'
p1312
(dp1313
S'PRON'
p1314
F5.1e-05
sS'DET'
p1315
F0.999949
s(lp1316
g15
atp1317
a(S's\xc3\xa9ptimo'
p1318
(dp1319
S'ADJ'
p1320
F0.298801
sS'NOUN'
p1321
F0.701199
s(lp1322
g21
atp1323
a(S'programa'
p1324
(dp1325
S'NOUN'
p1326
F1.0
s(lp1327
g210
atp1328
a(S'marco'
p1329
(dp1330
S'NOUN'
p1331
F1.0
s(lp1332
g29
atp1333
a(S'de'
p1334
(dp1335
g86
F2.9e-05
sS'CONJ'
p1336
F0.000449
sS'ADP'
p1337
F0.999522
s(lp1338
g35
atp1339
a(S'investigaci\xc3\xb3n'
p1340
(dp1341
S'NOUN'
p1342
F1.0
s(lp1343
g42
atp1344
a(S'y'
p1345
(dp1346
g86
F0.001008
sS'CONJ'
p1347
F0.998992
s(lp1348
g48
atp1349
a(S'desarrollo'
p1350
(dp1351
S'NOUN'
p1352
F1.0
s(lp1353
g54
atp1354
a(S'tecnol\xc3\xb3gico'
p1355
(dp1356
S'ADJ'
p1357
F1.0
s(lp1358
g60
atp1359
a(g62
(dp1360
g64
F1.0
s(lp1361
g62
atp1362
a(g733
(dp1363
g86
F0.979871
sS'CONJ'
p1364
F0.020129
s(lp1365
g71
atp1366
a(g73
(dp1367
g64
F1.0
s(lp1368
g76
atp1369
a(S'7pm'
p1370
(dp1371
S'ADJ'
p1372
F0.000275
sS'VERB'
p1373
F0.005876999999999999
sS'NOUN'
p1374
F0.9938480000000001
s(lp1375
g82
atp1376
a(S'2007-2013'
p1377
(dp1378
g86
F0.086102
sS'NUM'
p1379
F0.913898
s(lp1380
g89
atp1381
a(g73
(dp1382
g64
F1.0
s(lp1383
g76
atp1384
a(g62
(dp1385
g64
F1.0
s(lp1386
g62
atp1387
a(S'el'
p1388
(dp1389
S'PRON'
p1390
F0.0
sS'DET'
p1391
F1.0
s(lp1392
g103
atp1393
a(S'primer'
p1394
(dp1395
S'ADJ'
p1396
F1.0
s(lp1397
g110
atp1398
a(S'per\xc3\xadodo'
p1399
(dp1400
S'NOUN'
p1401
F1.0
s(lp1402
g116
atp1403
a(S'de'
p1404
(dp1405
g86
F2.9e-05
sS'CONJ'
p1406
F0.000449
sS'ADP'
p1407
F0.999522
s(lp1408
tp1409
a(S'informaci\xc3\xb3n'
p1410
(dp1411
S'NOUN'
p1412
F1.0
s(lp1413
g127
atp1414
a(S'tiene'
p1415
(dp1416
S'VERB'
p1417
F1.0
s(lp1418
g133
atp1419
a(S'lugar'
p1420
(dp1421
S'NOUN'
p1422
F1.0
s(lp1423
g139
atp1424
a(S'18'
p1425
(dp1426
g86
F0.092545
sS'NUM'
p1427
F0.907455
s(lp1428
g145
atp1429
a(S'meses'
p1430
(dp1431
S'NOUN'
p1432
F1.0
s(lp1433
g151
atp1434
a(S'despu\xc3\xa9s'
p1435
(dp1436
S'ADP'
p1437
F1.0
s(lp1438
g159
atp1439
a(S'del'
p1440
(dp1441
S'ADP'
p1442
F1.0
s(lp1443
g166
atp1444
a(S'inicio'
p1445
(dp1446
S'VERB'
p1447
F5e-06
sS'NOUN'
p1448
F0.999995
s(lp1449
g172
atp1450
a(S'del'
p1451
(dp1452
S'ADP'
p1453
F1.0
s(lp1454
g178
atp1455
a(S'proyecto'
p1456
(dp1457
S'VERB'
p1458
F0.0
sS'NOUN'
p1459
F1.0
s(lp1460
g184
atp1461
a(g64
(dp1462
g64
F1.0
s(lp1463
g64
atp1464
as.