(dp0
S'fr'
p1
(lp2
(S'd\xc3\xa9fendons'
p3
(dp4
S'VERB'
p5
F1.0
s(lp6
S'defend'
p7
atp8
a(S"aujourd'"
p9
(dp10
S'NOUN'
p11
F0.266129
sS'VERB'
p12
F0.020872000000000005
sS'ADJ'
p13
F0.713
s(lp14
tp15
a(S'hui'
p16
(dp17
S'ADJ'
p18
F0.021871
sS'VERB'
p19
F0.7576140000000001
sS'NOUN'
p20
F0.22051500000000002
s(lp21
S'now'
p22
atp23
a(S'la'
p24
(dp25
S'PRON'
p26
F4.4e-05
sS'DET'
p27
F0.999956
sS'NOUN'
p28
F0.0
s(lp29
S'the'
p30
atp31
a(S'minorit\xc3\xa9'
p32
(dp33
S'NOUN'
p34
F1.0
s(lp35
S'minority'
p36
atp37
a(S'chr\xc3\xa9tienne'
p38
(dp39
S'NOUN'
p40
F0.009609
sS'ADJ'
p41
F0.990391
s(lp42
S'christian'
p43
atp44
a(S'et'
p45
(dp46
S'CONJ'
p47
F1.0
s(lp48
S'and'
p49
atp50
a(S'les'
p51
(dp52
S'PRON'
p53
F0.001434
sS'DET'
p54
F0.99854
sS'ADP'
p55
F2.6e-05
s(lp56
tp57
a(S'autres'
p58
(dp59
S'ADJ'
p60
F1.0
s(lp61
S'other'
p62
atp63
a(S'minorit\xc3\xa9s'
p64
(dp65
S'NOUN'
p66
F1.0
s(lp67
S'minorities'
p68
atp69
a(S'religieuses'
p70
(dp71
S'NOUN'
p72
F0.007478
sS'ADJ'
p73
F0.992522
s(lp74
S'religious'
p75
atp76
a(S'du'
p77
(dp78
S'ADP'
p79
F1.0
s(lp80
tp81
a(S'pakistan'
p82
(dp83
S'ADJ'
p84
F0.087761
sS'NOUN'
p85
F0.912239
s(lp86
S'pakistan'
p87
atp88
a(S','
p89
(dp90
S'.'
p91
F1.0
s(lp92
g89
atp93
a(S'm\xc3\xaame'
p94
(dp95
S'ADV'
p96
F0.502917
sS'ADJ'
p97
F0.497083
s(lp98
tp99
a(S'si'
p100
(dp101
S'ADV'
p102
F0.134559
sS'CONJ'
p103
F0.865401
sS'NOUN'
p104
F4e-05
s(lp105
S'although'
p106
atp107
a(S'ce'
p108
(dp109
S'PRON'
p110
F1.0
s(lp111
S'this'
p112
atp113
a(S"n'"
p114
(dp115
S'ADJ'
p116
F0.022127
sS'VERB'
p117
F0.564007
sS'NOUN'
p118
F0.413866
s(lp119
tp120
a(S'est'
p121
(dp122
S'VERB'
p123
F0.999302
sS'NOUN'
p124
F0.000698
s(lp125
S'is'
p126
atp127
a(S'bien'
p128
(dp129
S'ADV'
p130
F0.996953
sS'NOUN'
p131
F0.000474
sS'ADJ'
p132
F0.002572
s(lp133
tp134
a(S'\xc3\xa9videmment'
p135
(dp136
S'ADV'
p137
F1.0
s(lp138
S'course'
p139
atp140
a(S'pas'
p141
(dp142
S'ADV'
p143
F0.999683
sS'NOUN'
p144
F0.000317
s(lp145
S'not'
p146
atp147
a(S'le'
p148
(dp149
S'PRON'
p150
F0.000335
sS'DET'
p151
F0.999665
s(lp152
S'the'
p153
atp154
a(S'seul'
p155
(dp156
S'NOUN'
p157
F0.082808
sS'ADJ'
p158
F0.917192
s(lp159
S'only'
p160
atp161
a(S'probl\xc3\xa8me'
p162
(dp163
S'NOUN'
p164
F1.0
s(lp165
S'problem'
p166
atp167
a(S'que'
p168
(dp169
S'ADV'
p170
F0.002273
sS'PRON'
p171
F0.768493
sS'CONJ'
p172
F0.229234
s(lp173
tp174
a(S'conna\xc3\xaet'
p175
(dp176
S'VERB'
p177
F1.0
s(lp178
S'facing'
p179
atp180
a(S'ce'
p181
(dp182
S'PRON'
p183
F1.0
s(lp184
S'a'
p185
atp186
a(S'pays'
p187
(dp188
S'NOUN'
p189
F1.0
s(lp190
S'country'
p191
atp192
a(S'en'
p193
(dp194
S'PRON'
p195
F0.000406
sS'ADP'
p196
F0.999594
s(lp197
tp198
a(S'proie'
p199
(dp200
S'NOUN'
p201
F1.0
s(lp202
S'troubled'
p203
atp204
a(S'\xc3\xa0'
p205
(dp206
S'ADP'
p207
F1.0
s(lp208
S'by'
p209
atp210
a(S'de'
p211
(dp212
S'ADP'
p213
F1.0
s(lp214
S'of'
p215
atp216
a(S'graves'
p217
(dp218
S'NOUN'
p219
F0.028887
sS'VERB'
p220
F3.3e-05
sS'ADJ'
p221
F0.971079
s(lp222
S'serious'
p223
atp224
a(S'conflits'
p225
(dp226
S'NOUN'
p227
F1.0
s(lp228
S'conflicts'
p229
atp230
a(S'politiques'
p231
(dp232
S'NOUN'
p233
F0.000812
sS'VERB'
p234
F8.3e-05
sS'ADJ'
p235
F0.999106
s(lp236
S'political'
p237
atp238
a(S'et'
p239
(dp240
S'CONJ'
p241
F1.0
s(lp242
S'and'
p243
atp244
a(S'malheureusement'
p245
(dp246
S'ADV'
p247
F1.0
s(lp248
S'unfortunately'
p249
atp250
a(S'confront\xc3\xa9'
p251
(dp252
S'VERB'
p253
F1.0
s(lp254
tp255
a(S'\xc3\xa0'
p256
(dp257
S'ADP'
p258
F1.0
s(lp259
S'faces'
p260
atp261
a(S'des'
p262
(dp263
S'DET'
p264
F0.00067
sS'ADP'
p265
F0.99933
s(lp266
S'of'
p267
atp268
a(S'risques'
p269
(dp270
S'VERB'
p271
F0.0
sS'NOUN'
p272
F1.0
s(lp273
tp274
a(S'de'
p275
(dp276
S'ADP'
p277
F1.0
s(lp278
tp279
a(S'd\xc3\xa9stabilisation'
p280
(dp281
S'NOUN'
p282
F1.0
s(lp283
S'destabilisation'
p284
atp285
a(g91
(dp286
g91
F1.0
s(lp287
g91
atp288
asS'en'
p289
(lp290
(S'let'
p291
(dp292
S'VERB'
p293
F0.998399
sS'NOUN'
p294
F0.001601
s(lp295
g291
atp296
a(S'us'
p297
(dp298
S'PRON'
p299
F1.0
s(lp300
g297
atp301
a(g22
(dp302
S'ADV'
p303
F1.0
sS'NOUN'
p304
F0.0
sS'ADP'
p305
F0.0
s(lp306
g22
atp307
a(g7
(dp308
S'VERB'
p309
F1.0
s(lp310
g7
atp311
a(g30
(dp312
S'NOUN'
p313
F0.0
sS'DET'
p314
F1.0
s(lp315
g30
atp316
a(g43
(dp317
S'NOUN'
p318
F0.15978499999999998
sS'ADJ'
p319
F0.840216
s(lp320
g43
atp321
a(g36
(dp322
S'NOUN'
p323
F1.0
s(lp324
g36
atp325
a(g49
(dp326
S'CONJ'
p327
F1.0
sS'NOUN'
p328
F0.0
s(lp329
g49
atp330
a(g62
(dp331
S'ADV'
p332
F9.7e-05
sS'NOUN'
p333
F2e-06
sS'ADJ'
p334
F0.999901
s(lp335
g62
atp336
a(g75
(dp337
S'NOUN'
p338
F0.045997
sS'ADJ'
p339
F0.954003
s(lp340
g75
atp341
a(g68
(dp342
S'NOUN'
p343
F1.0
s(lp344
g68
atp345
a(S'in'
p346
(dp347
S'ADV'
p348
F0.000234
sS'PRT'
p349
F0.000167
sS'ADP'
p350
F0.999598
s(lp351
g346
atp352
a(g87
(dp353
S'ADJ'
p354
F0.090997
sS'NOUN'
p355
F0.909003
s(lp356
g87
atp357
a(g106
(dp358
S'ADP'
p359
F1.0
s(lp360
g106
atp361
a(g89
(dp362
g91
F1.0
s(lp363
g89
atp364
a(g215
(dp365
S'ADP'
p366
F1.0
s(lp367
g215
atp368
a(g139
(dp369
S'ADV'
p370
F0.000317
sS'VERB'
p371
F2e-06
sS'NOUN'
p372
F0.99968
s(lp373
g139
atp374
a(g89
(dp375
g91
F1.0
s(lp376
g89
atp377
a(g112
(dp378
S'ADV'
p379
F0.001574
sS'NOUN'
p380
F0.000274
sS'DET'
p381
F0.998152
s(lp382
g112
atp383
a(g126
(dp384
S'VERB'
p385
F1.0
s(lp386
g126
atp387
a(g146
(dp388
S'ADV'
p389
F1.0
s(lp390
g146
atp391
a(g153
(dp392
S'NOUN'
p393
F1e-06
sS'DET'
p394
F0.999999
s(lp395
g153
atp396
a(g160
(dp397
S'ADV'
p398
F0.024341
sS'NOUN'
p399
F0.000391
sS'ADJ'
p400
F0.975269
s(lp401
g160
atp402
a(g166
(dp403
S'NOUN'
p404
F1.0
s(lp405
g166
atp406
a(g179
(dp407
S'VERB'
p408
F0.999644
sS'NOUN'
p409
F0.000356
s(lp410
g179
atp411
a(g185
(dp412
S'NOUN'
p413
F0.0
sS'DET'
p414
F1.0
s(lp415
g185
atp416
a(g191
(dp417
S'NOUN'
p418
F1.0
s(lp419
g191
atp420
a(g203
(dp421
S'VERB'
p422
F0.893061
sS'ADJ'
p423
F0.106939
s(lp424
g203
atp425
a(g209
(dp426
S'ADV'
p427
F0.000525
sS'NOUN'
p428
F1e-06
sS'ADP'
p429
F0.999475
s(lp430
g209
atp431
a(g223
(dp432
S'ADJ'
p433
F1.0
s(lp434
g223
atp435
a(g237
(dp436
S'ADJ'
p437
F1.0
s(lp438
g237
atp439
a(g229
(dp440
S'VERB'
p441
F6e-06
sS'NOUN'
p442
F0.999994
s(lp443
g229
atp444
a(g243
(dp445
S'CONJ'
p446
F0.999995
sS'NOUN'
p447
F5e-06
s(lp448
g243
atp449
a(S'which'
p450
(dp451
S'DET'
p452
F1.0
s(lp453
g450
atp454
a(g89
(dp455
g91
F1.0
s(lp456
g89
atp457
a(g249
(dp458
S'ADV'
p459
F1.0
s(lp460
g249
atp461
a(g89
(dp462
g91
F1.0
s(lp463
g89
atp464
a(g260
(dp465
S'VERB'
p466
F0.999137
sS'NOUN'
p467
F0.000863
s(lp468
g260
atp469
a(S'the'
p470
(dp471
S'NOUN'
p472
F1e-06
sS'DET'
p473
F0.999999
s(lp474
g470
atp475
a(S'prospect'
p476
(dp477
S'VERB'
p478
F3e-05
sS'NOUN'
p479
F0.99997
s(lp480
g476
atp481
a(g267
(dp482
S'ADP'
p483
F1.0
s(lp484
g267
atp485
a(g284
(dp486
S'ADJ'
p487
F0.00366
sS'NOUN'
p488
F0.996341
s(lp489
g284
atp490
a(g91
(dp491
g91
F1.0
s(lp492
g91
atp493
asS'nl'
p494
(lp495
(S'nu'
p496
(dp497
S'ADV'
p498
F0.978572
sS'CONJ'
p499
F0.021139
sS'NOUN'
p500
F0.000288
s(lp501
g22
atp502
a(S'moeten'
p503
(dp504
S'VERB'
p505
F0.999999
sS'NOUN'
p506
F1e-06
s(lp507
g291
atp508
a(S'we'
p509
(dp510
S'PRON'
p511
F1.0
s(lp512
g297
atp513
a(S'in'
p514
(dp515
S'ADV'
p516
F0.012944
sS'VERB'
p517
F3e-06
sS'ADP'
p518
F0.987052
s(lp519
g346
atp520
a(S'de'
p521
(dp522
S'DET'
p523
F1.0
s(lp524
tp525
a(S'bres'
p526
(dp527
S'NOUN'
p528
F1.0
s(lp529
g7
atp530
a(S'springen'
p531
(dp532
S'VERB'
p533
F0.995684
sS'NOUN'
p534
F0.004316
s(lp535
tp536
a(S'voor'
p537
(dp538
S'ADV'
p539
F0.002233
sS'CONJ'
p540
F3.1e-05
sS'NOUN'
p541
F0.0
sS'ADP'
p542
F0.997736
s(lp543
g7
atp544
a(S'de'
p545
(dp546
S'DET'
p547
F1.0
s(lp548
g30
atp549
a(S'christelijke'
p550
(dp551
S'NOUN'
p552
F0.006177
sS'ADJ'
p553
F0.993823
s(lp554
g43
atp555
a(S'minderheid'
p556
(dp557
S'NOUN'
p558
F1.0
s(lp559
g36
atp560
a(S'en'
p561
(dp562
S'CONJ'
p563
F1.0
s(lp564
g49
atp565
a(S'andere'
p566
(dp567
S'NOUN'
p568
F0.011166
sS'ADJ'
p569
F0.988834
s(lp570
g62
atp571
a(S'religieuze'
p572
(dp573
S'NOUN'
p574
F0.000263
sS'ADJ'
p575
F0.999737
s(lp576
g75
atp577
a(S'minderheden'
p578
(dp579
S'NOUN'
p580
F1.0
s(lp581
g68
atp582
a(g89
(dp583
g91
F1.0
s(lp584
g89
atp585
a(S'hoewel'
p586
(dp587
S'CONJ'
p588
F1.0
s(lp589
g106
atp590
a(S'dit'
p591
(dp592
S'PRON'
p593
F1.0
s(lp594
g112
atp595
a(S'land'
p596
(dp597
S'VERB'
p598
F0.001244
sS'NOUN'
p599
F0.998756
s(lp600
g191
atp601
a(S'natuurlijk'
p602
(dp603
S'ADJ'
p604
F1.0
s(lp605
g139
atp606
a(S'ook'
p607
(dp608
S'ADV'
p609
F1.0
s(lp610
g126
atp611
a(S'te'
p612
(dp613
S'PRT'
p614
F1.0
s(lp615
g179
atp616
a(S'maken'
p617
(dp618
S'VERB'
p619
F1.0
sS'NOUN'
p620
F0.0
s(lp621
tp622
a(S'heeft'
p623
(dp624
S'VERB'
p625
F1.0
s(lp626
g179
atp627
a(S'met'
p628
(dp629
S'ADP'
p630
F1.0
s(lp631
g209
atp632
a(S'ernstige'
p633
(dp634
S'NOUN'
p635
F0.001878
sS'ADJ'
p636
F0.998122
s(lp637
g223
atp638
a(S'politieke'
p639
(dp640
S'NOUN'
p641
F9e-06
sS'ADJ'
p642
F0.999991
s(lp643
g237
atp644
a(S'conflicten'
p645
(dp646
S'NOUN'
p647
F1.0
s(lp648
g229
atp649
a(S'en'
p650
(dp651
S'CONJ'
p652
F1.0
s(lp653
g243
atp654
a(S'zich'
p655
(dp656
S'PRON'
p657
F1.0
s(lp658
g260
atp659
a(S'geconfronteerd'
p660
(dp661
S'VERB'
p662
F1.0
s(lp663
g260
atp664
a(S'ziet'
p665
(dp666
S'VERB'
p667
F1.0
s(lp668
tp669
a(S'met'
p670
(dp671
S'ADP'
p672
F1.0
s(lp673
g260
atp674
a(S'mogelijke'
p675
(dp676
S'NOUN'
p677
F0.000257
sS'ADJ'
p678
F0.999743
s(lp679
g476
atp680
a(S'destabilisatie'
p681
(dp682
S'NOUN'
p683
F1.0
s(lp684
g284
atp685
a(g91
(dp686
g91
F1.0
s(lp687
g91
atp688
asS'de'
p689
(lp690
(S'lassen'
p691
(dp692
S'VERB'
p693
F0.999679
sS'ADJ'
p694
F0.000292
s(lp695
tp696
a(S'sie'
p697
(dp698
S'PRON'
p699
F1.0
s(lp700
g291
atp701
a(S'uns'
p702
(dp703
S'PRON'
p704
F1.0
s(lp705
g297
atp706
a(S'nun'
p707
(dp708
S'ADV'
p709
F0.999969
sS'CONJ'
p710
F3.1e-05
s(lp711
g22
atp712
a(S'die'
p713
(dp714
S'PRON'
p715
F0.000757
sS'DET'
p716
F0.99924
s(lp717
g30
atp718
a(S'christlichen'
p719
(dp720
S'ADJ'
p721
F1.0
s(lp722
g43
atp723
a(S'und'
p724
(dp725
S'CONJ'
p726
F1.0
s(lp727
g49
atp728
a(S'andere'
p729
(dp730
S'PRON'
p731
F1.0
s(lp732
g62
atp733
a(S'minderheiten'
p734
(dp735
S'VERB'
p736
F0.350639
sS'NOUN'
p737
F0.626611
s(lp738
g68
atp739
a(S'in'
p740
(dp741
S'ADP'
p742
F1.0
s(lp743
g346
atp744
a(S'pakistan'
p745
(dp746
S'ADJ'
p747
F0.059508
sS'NOUN'
p748
F0.928054
s(lp749
g87
atp750
a(S'verteidigen'
p751
(dp752
S'VERB'
p753
F1.0
s(lp754
g7
atp755
a(g89
(dp756
g91
F1.0
s(lp757
g89
atp758
a(S'obwohl'
p759
(dp760
S'CONJ'
p761
F1.0
s(lp762
g106
atp763
a(S'dies'
p764
(dp765
S'PRON'
p766
F1.0
s(lp767
g112
atp768
a(S'nat\xc3\xbcrlich'
p769
(dp770
S'ADV'
p771
F0.992482
sS'ADJ'
p772
F0.007518
s(lp773
g139
atp774
a(S'nicht'
p775
(dp776
S'PRT'
p777
F1.0
s(lp778
g146
atp779
a(S'das'
p780
(dp781
S'PRON'
p782
F0.0084
sS'DET'
p783
F0.990027
s(lp784
g153
atp785
a(S'einzige'
p786
(dp787
S'ADJ'
p788
F1.0
s(lp789
g160
atp790
a(S'problem'
p791
(dp792
S'ADJ'
p793
F0.001643
sS'NOUN'
p794
F0.995209
s(lp795
g166
atp796
a(S'eines'
p797
(dp798
S'PRON'
p799
F0.004548
sS'DET'
p800
F0.993912
s(lp801
g185
atp802
a(S'landes'
p803
(dp804
S'ADJ'
p805
F0.032772
sS'NOUN'
p806
F0.937917
s(lp807
g191
atp808
a(S'ist'
p809
(dp810
S'VERB'
p811
F1.0
s(lp812
g260
atp813
a(g89
(dp814
g91
F1.0
s(lp815
g89
atp816
a(S'dass'
p817
(dp818
S'CONJ'
p819
F1.0
s(lp820
tp821
a(S'von'
p822
(dp823
S'NOUN'
p824
F0.002855
sS'ADP'
p825
F0.997145
s(lp826
g209
atp827
a(S'ernsthaften'
p828
(dp829
S'ADJ'
p830
F1.0
s(lp831
g223
atp832
a(S'politischen'
p833
(dp834
S'ADJ'
p835
F1.0
s(lp836
g237
atp837
a(S'konflikten'
p838
(dp839
S'ADJ'
p840
F0.031877
sS'NOUN'
p841
F0.963201
s(lp842
g229
atp843
a(S'gebeutelt'
p844
(dp845
S'VERB'
p846
F0.98203
sS'ADJ'
p847
F0.01797
s(lp848
g203
atp849
a(S'ist'
p850
(dp851
S'VERB'
p852
F1.0
s(lp853
tp854
a(S'und'
p855
(dp856
S'CONJ'
p857
F1.0
s(lp858
g243
atp859
a(S'dem'
p860
(dp861
S'PRON'
p862
F0.190279
sS'DET'
p863
F0.623605
s(lp864
g450
atp865
a(S'ungl\xc3\xbccklicherweise'
p866
(dp867
S'ADV'
p868
F1.0
s(lp869
g249
atp870
a(S'eine'
p871
(dp872
S'PRON'
p873
F0.004174
sS'DET'
p874
F0.995707
s(lp875
g476
atp876
a(S'weitere'
p877
(dp878
S'ADJ'
p879
F1.0
s(lp880
tp881
a(S'destabilisierung'
p882
(dp883
S'ADJ'
p884
F2e-05
sS'NOUN'
p885
F0.999973
s(lp886
g284
atp887
a(S'droht'
p888
(dp889
S'VERB'
p890
F1.0
s(lp891
g260
atp892
a(g91
(dp893
g91
F1.0
s(lp894
g91
atp895
asS'it'
p896
(lp897
(S'difendiamo'
p898
(dp899
S'VERB'
p900
F1.0
s(lp901
g7
atp902
a(g89
(dp903
g91
F1.0
s(lp904
g291
atp905
a(S'allora'
p906
(dp907
S'ADV'
p908
F0.974423
sS'ADJ'
p909
F0.025577
s(lp910
g22
atp911
a(g89
(dp912
g91
F1.0
s(lp913
g89
atp914
a(S'la'
p915
(dp916
S'PRON'
p917
F0.000686
sS'DET'
p918
F0.999314
s(lp919
g30
atp920
a(S'minoranza'
p921
(dp922
S'NOUN'
p923
F1.0
s(lp924
g36
atp925
a(S'cristiana'
p926
(dp927
S'NOUN'
p928
F0.006781
sS'ADJ'
p929
F0.993219
s(lp930
g43
atp931
a(S'e'
p932
(dp933
S'CONJ'
p934
F1.0
s(lp935
g49
atp936
a(S'le'
p937
(dp938
S'PRON'
p939
F0.000705
sS'DET'
p940
F0.999295
s(lp941
tp942
a(S'altre'
p943
(dp944
S'PRON'
p945
F0.295091
sS'ADJ'
p946
F0.704909
s(lp947
g62
atp948
a(S'minoranze'
p949
(dp950
S'NOUN'
p951
F1.0
s(lp952
g68
atp953
a(S'religiose'
p954
(dp955
S'NOUN'
p956
F0.040859
sS'ADJ'
p957
F0.959141
s(lp958
g75
atp959
a(S'del'
p960
(dp961
S'DEF'
p962
F0.002426
sS'ADP'
p963
F0.997574
s(lp964
g346
atp965
a(S'pakistan'
p966
(dp967
S'ADJ'
p968
F0.130317
sS'VERB'
p969
F0.00203
sS'NOUN'
p970
F0.867653
s(lp971
g87
atp972
a(g89
(dp973
g91
F1.0
s(lp974
g89
atp975
a(S'anche'
p976
(dp977
S'ADV'
p978
F0.99969
sS'NOUN'
p979
F0.00031
s(lp980
tp981
a(S'se'
p982
(dp983
S'PRON'
p984
F0.000112
sS'CONJ'
p985
F0.999874
sS'NOUN'
p986
F1.5e-05
s(lp987
g106
atp988
a(S'questo'
p989
(dp990
S'PRON'
p991
F1.0
s(lp992
g112
atp993
a(S'non'
p994
(dp995
S'ADV'
p996
F1.0
s(lp997
g146
atp998
a(S'\xc3\xa8'
p999
(dp1000
S'VERB'
p1001
F1.0
s(lp1002
g126
atp1003
a(S'naturalmente'
p1004
(dp1005
S'ADV'
p1006
F1.0
s(lp1007
g139
atp1008
a(S'il'
p1009
(dp1010
S'DET'
p1011
F1.0
s(lp1012
g153
atp1013
a(S'solo'
p1014
(dp1015
S'ADV'
p1016
F0.029018
sS'NOUN'
p1017
F0.011119
sS'VERB'
p1018
F3.9e-05
sS'ADJ'
p1019
F0.959824
s(lp1020
g160
atp1021
a(S'problema'
p1022
(dp1023
S'NOUN'
p1024
F1.0
s(lp1025
g166
atp1026
a(S'di'
p1027
(dp1028
S'CONJ'
p1029
F1.6e-05
sS'ADP'
p1030
F0.999984
s(lp1031
g215
atp1032
a(S'un'
p1033
(dp1034
S'PRON'
p1035
F0.00267
sS'DEF'
p1036
F0.99733
s(lp1037
g185
atp1038
a(S'paese'
p1039
(dp1040
S'NOUN'
p1041
F1.0
s(lp1042
g191
atp1043
a(S'turbato'
p1044
(dp1045
S'VERB'
p1046
F0.803407
sS'ADJ'
p1047
F0.196593
s(lp1048
g203
atp1049
a(S'da'
p1050
(dp1051
S'ADP'
p1052
F1.0
s(lp1053
g209
atp1054
a(S'gravi'
p1055
(dp1056
S'NOUN'
p1057
F0.012538
sS'VERB'
p1058
F0.0038450000000000003
sS'ADJ'
p1059
F0.983618
s(lp1060
g223
atp1061
a(S'conflitti'
p1062
(dp1063
S'VERB'
p1064
F0.036523
sS'NOUN'
p1065
F0.963477
s(lp1066
g229
atp1067
a(S'politici'
p1068
(dp1069
S'NOUN'
p1070
F0.11569
sS'ADJ'
p1071
F0.88431
s(lp1072
g237
atp1073
a(g932
(dp1074
S'CONJ'
p1075
F1.0
s(lp1076
g243
atp1077
a(S'che'
p1078
(dp1079
S'PRON'
p1080
F0.9916
sS'CONJ'
p1081
F0.008277
sS'ADJ'
p1082
F0.000124
s(lp1083
g450
atp1084
a(S'rischia'
p1085
(dp1086
S'VERB'
p1087
F1.0
s(lp1088
g260
atp1089
a(S'di'
p1090
(dp1091
S'CONJ'
p1092
F2e-06
sS'ADP'
p1093
F0.999998
s(lp1094
g267
atp1095
a(S'essere'
p1096
(dp1097
S'VERB'
p1098
F0.999885
sS'NOUN'
p1099
F0.000115
s(lp1100
tp1101
a(S'destabilizzato'
p1102
(dp1103
S'VERB'
p1104
F1.0
s(lp1105
g284
atp1106
a(g91
(dp1107
g91
F1.0
s(lp1108
g91
atp1109
asS'sk'
p1110
(lp1111
(S'po\xc4\x8fme'
p1112
(dp1113
S'VERB'
p1114
F1.0
s(lp1115
g291
atp1116
a(S'teraz'
p1117
(dp1118
S'ADV'
p1119
F1.0
s(lp1120
g22
atp1121
a(S'br\xc3\xa1ni\xc5\xa5'
p1122
(dp1123
S'VERB'
p1124
F1.0
s(lp1125
g7
atp1126
a(S'kres\xc5\xa5ansk\xc3\xba'
p1127
(dp1128
S'ADJ'
p1129
F1.0
s(lp1130
g43
atp1131
a(S'men\xc5\xa1inu'
p1132
(dp1133
S'NOUN'
p1134
F1.0
s(lp1135
g36
atp1136
a(g185
(dp1137
S'X'
p1138
F0.001704
sS'CONJ'
p1139
F0.997211
sS'NOUN'
p1140
F0.000196
sS'ADP'
p1141
F0.000835
sS'PRT'
p1142
F5.4e-05
s(lp1143
g49
atp1144
a(S'ostatn\xc3\xa9'
p1145
(dp1146
S'NUM'
p1147
F0.256072
sS'ADJ'
p1148
F0.743928
s(lp1149
g62
atp1150
a(S'n\xc3\xa1bo\xc5\xbeensk\xc3\xa9'
p1151
(dp1152
S'ADJ'
p1153
F1.0
s(lp1154
g75
atp1155
a(S'men\xc5\xa1iny'
p1156
(dp1157
S'NOUN'
p1158
F1.0
s(lp1159
g68
atp1160
a(S'v'
p1161
(dp1162
g1138
F0.000276
sS'ADP'
p1163
F0.999725
s(lp1164
g346
atp1165
a(S'pakistane'
p1166
(dp1167
S'ADV'
p1168
F0.019112
sS'ADJ'
p1169
F0.348429
sS'VERB'
p1170
F0.0013980000000000002
sS'NOUN'
p1171
F0.619837
sg1138
F0.011223
s(lp1172
g87
atp1173
a(g89
(dp1174
g91
F1.0
s(lp1175
tp1176
a(S'aj'
p1177
(dp1178
g1138
F0.086137
sS'CONJ'
p1179
F0.913863
s(lp1180
tp1181
a(S'ke\xc4\x8f'
p1182
(dp1183
g1138
F0.060742
sS'CONJ'
p1184
F0.939258
s(lp1185
g106
atp1186
a(g89
(dp1187
g91
F1.0
s(lp1188
g89
atp1189
a(S'samozrejme'
p1190
(dp1191
S'ADV'
p1192
F0.001025
sg1138
F0.994447
sS'ADJ'
p1193
F0.004528
s(lp1194
g139
atp1195
a(g89
(dp1196
g91
F1.0
s(lp1197
g89
atp1198
a(S'to'
p1199
(dp1200
S'PRON'
p1201
F0.9215110000000001
sS'CONJ'
p1202
F0.063017
sg1138
F0.015473
s(lp1203
g112
atp1204
a(S'nie'
p1205
(dp1206
g1138
F1.0
s(lp1207
g146
atp1208
a(S'je'
p1209
(dp1210
S'PRON'
p1211
F2.5e-05
sS'VERB'
p1212
F0.999968
sg1138
F7e-06
s(lp1213
g126
atp1214
a(S'jedin\xc3\xbd'
p1215
(dp1216
S'NUM'
p1217
F1.0
s(lp1218
g160
atp1219
a(S'probl\xc3\xa9m'
p1220
(dp1221
S'NOUN'
p1222
F1.0
s(lp1223
g166
atp1224
a(g89
(dp1225
g91
F1.0
s(lp1226
tp1227
a(S'ktor\xc3\xa9mu'
p1228
(dp1229
S'PRON'
p1230
F1.0
s(lp1231
tp1232
a(S'\xc4\x8del\xc3\xad'
p1233
(dp1234
S'VERB'
p1235
F1.0
s(lp1236
g179
atp1237
a(S't\xc3\xa1to'
p1238
(dp1239
S'PRON'
p1240
F1.0
s(lp1241
g185
atp1242
a(S'krajina'
p1243
(dp1244
S'NOUN'
p1245
F1.0
s(lp1246
g191
atp1247
a(S'su\xc5\xbeovan\xc3\xa1'
p1248
(dp1249
S'ADJ'
p1250
F0.000427
sS'VERB'
p1251
F0.163717
sS'NOUN'
p1252
F0.835856
s(lp1253
g203
atp1254
a(S'v\xc3\xa1\xc5\xbenymi'
p1255
(dp1256
S'ADJ'
p1257
F1.0
s(lp1258
g223
atp1259
a(S'politick\xc3\xbdmi'
p1260
(dp1261
S'ADJ'
p1262
F1.0
s(lp1263
g237
atp1264
a(S'konfliktmi'
p1265
(dp1266
S'NOUN'
p1267
F1.0
s(lp1268
g229
atp1269
a(g89
(dp1270
g91
F1.0
s(lp1271
tp1272
a(S'ktorej'
p1273
(dp1274
S'PRON'
p1275
F1.0
s(lp1276
g450
atp1277
a(g89
(dp1278
g91
F1.0
s(lp1279
g89
atp1280
a(S'\xc5\xbeia\xc4\xbe'
p1281
(dp1282
S'ADV'
p1283
F0.003771
sg1138
F0.814543
sS'VERB'
p1284
F0.009675
sS'NOUN'
p1285
F0.17201
s(lp1286
g249
atp1287
a(g89
(dp1288
g91
F1.0
s(lp1289
g89
atp1290
a(S'hroz\xc3\xad'
p1291
(dp1292
S'VERB'
p1293
F1.0
s(lp1294
tp1295
a(S'destabiliz\xc3\xa1cia'
p1296
(dp1297
S'NOUN'
p1298
F1.0
s(lp1299
g284
atp1300
a(g91
(dp1301
g91
F1.0
s(lp1302
g91
atp1303
asS'pl'
p1304
(lp1305
(S'bro\xc5\x84my'
p1306
(dp1307
S'ADV'
p1308
F0.000575
sS'ADJ'
p1309
F0.0031320000000000007
sS'VERB'
p1310
F0.9803049999999999
sS'NOUN'
p1311
F0.015986000000000004
s(lp1312
g7
atp1313
a(S'teraz'
p1314
(dp1315
S'ADV'
p1316
F1.0
s(lp1317
g22
atp1318
a(S'mniejszo\xc5\x9bci'
p1319
(dp1320
S'NOUN'
p1321
F1.0
s(lp1322
g36
atp1323
a(S'chrze\xc5\x9bcija\xc5\x84skiej'
p1324
(dp1325
S'ADJ'
p1326
F1.0
s(lp1327
g43
atp1328
a(S'i'
p1329
(dp1330
S'PRT'
p1331
F0.003812
sS'CONJ'
p1332
F0.995957
sS'PRON'
p1333
F4e-06
sS'NOUN'
p1334
F3.4e-05
sg1138
F0.000192
s(lp1335
g49
atp1336
a(S'innych'
p1337
(dp1338
S'NOUN'
p1339
F0.004423
sS'ADJ'
p1340
F0.9955779999999999
s(lp1341
g62
atp1342
a(S'mniejszo\xc5\x9bci'
p1343
(dp1344
S'NOUN'
p1345
F1.0
s(lp1346
g68
atp1347
a(S'religijnych'
p1348
(dp1349
S'ADJ'
p1350
F1.000001
s(lp1351
g75
atp1352
a(S'w'
p1353
(dp1354
S'ADJ'
p1355
F0.0
sg1138
F0.0
sS'NOUN'
p1356
F0.0
sS'ADP'
p1357
F0.9999979999999999
s(lp1358
g346
atp1359
a(S'pakistanie'
p1360
(dp1361
S'ADV'
p1362
F5.9e-05
sS'ADJ'
p1363
F0.005788
sS'VERB'
p1364
F0.012770999999999998
sS'NOUN'
p1365
F0.981381
s(lp1366
g87
atp1367
a(S'!'
p1368
(dp1369
g91
F1.0
s(lp1370
g89
atp1371
a(S'cho\xc4\x87'
p1372
(dp1373
S'PRT'
p1374
F0.049197
sS'CONJ'
p1375
F0.9361
sS'VERB'
p1376
F0.014703
s(lp1377
g106
atp1378
a(S'oczywi\xc5\x9bcie'
p1379
(dp1380
S'PRT'
p1381
F1.0
s(lp1382
g139
atp1383
a(S'nie'
p1384
(dp1385
S'ADV'
p1386
F1.8e-05
sS'PRT'
p1387
F0.998331
sS'CONJ'
p1388
F0.001646
sS'NOUN'
p1389
F2e-06
sS'PRON'
p1390
F4e-06
s(lp1391
g146
atp1392
a(S'jest'
p1393
(dp1394
S'VERB'
p1395
F1.0
s(lp1396
g126
atp1397
a(S'to'
p1398
(dp1399
S'NOUN'
p1400
F0.182085
sS'ADP'
p1401
F1e-06
sS'PRT'
p1402
F0.260814
sg1138
F0.0
sS'CONJ'
p1403
F0.077601
sS'ADJ'
p1404
F0.479499
s(lp1405
g112
atp1406
a(S'jedyna'
p1407
(dp1408
S'ADJ'
p1409
F1.0
s(lp1410
g160
atp1411
a(S'sprawa'
p1412
(dp1413
S'NOUN'
p1414
F1.0
s(lp1415
g166
atp1416
a(g89
(dp1417
g1138
F0.0
sg91
F1.0
s(lp1418
g89
atp1419
a(S'kt\xc3\xb3ra'
p1420
(dp1421
S'ADJ'
p1422
F1.0
s(lp1423
g185
atp1424
a(S'staje'
p1425
(dp1426
S'VERB'
p1427
F1.0
s(lp1428
tp1429
a(S'przed'
p1430
(dp1431
S'ADP'
p1432
F1.0
s(lp1433
g179
atp1434
a(S'tym'
p1435
(dp1436
S'ADV'
p1437
F4e-06
sS'NOUN'
p1438
F0.0020959999999999998
sS'CONJ'
p1439
F2e-06
sS'ADJ'
p1440
F0.997898
sS'PRT'
p1441
F0.0
s(lp1442
tp1443
a(S'krajem'
p1444
(dp1445
S'NOUN'
p1446
F1.0
s(lp1447
g191
atp1448
a(S'targanym'
p1449
(dp1450
S'ADV'
p1451
F0.000791
sS'NOUN'
p1452
F0.06145199999999999
sS'VERB'
p1453
F0.840348
sS'ADJ'
p1454
F0.09741000000000004
s(lp1455
g203
atp1456
a(S'powa\xc5\xbcnymi'
p1457
(dp1458
S'ADJ'
p1459
F1.0
s(lp1460
g223
atp1461
a(S'konfliktami'
p1462
(dp1463
S'NOUN'
p1464
F1.0
s(lp1465
g229
atp1466
a(S'politycznymi'
p1467
(dp1468
S'ADJ'
p1469
F1.000001
s(lp1470
g237
atp1471
a(g1329
(dp1472
S'PRT'
p1473
F0.013349
sS'CONJ'
p1474
F0.98652
sS'NOUN'
p1475
F9.499999999999999e-05
sg1138
F1.1e-05
sS'PRON'
p1476
F2.5e-05
s(lp1477
g243
atp1478
a(S'przed'
p1479
(dp1480
S'ADP'
p1481
F0.9999999999999999
s(lp1482
tp1483
a(S'kt\xc3\xb3rym'
p1484
(dp1485
S'ADJ'
p1486
F0.9999999999999998
s(lp1487
g450
atp1488
a(S'niestety'
p1489
(dp1490
S'PRT'
p1491
F1.0
s(lp1492
g249
atp1493
a(S'le\xc5\xbcy'
p1494
(dp1495
S'VERB'
p1496
F1.0
s(lp1497
g260
atp1498
a(S'perspektywa'
p1499
(dp1500
S'NOUN'
p1501
F1.0
s(lp1502
g476
atp1503
a(S'destabilizacji'
p1504
(dp1505
S'NOUN'
p1506
F1.0
s(lp1507
g284
atp1508
a(g91
(dp1509
g91
F1.0
s(lp1510
g91
atp1511
asS'sl'
p1512
(lp1513
(S'branimo'
p1514
(dp1515
S'VERB'
p1516
F1.0
s(lp1517
g7
atp1518
a(S'zdaj'
p1519
(dp1520
S'ADV'
p1521
F1.0
s(lp1522
g22
atp1523
a(S'kr\xc5\xa1\xc4\x8dansko'
p1524
(dp1525
S'ADV'
p1526
F0.009838
sS'ADJ'
p1527
F0.990162
s(lp1528
g43
atp1529
a(S'manj\xc5\xa1ino'
p1530
(dp1531
S'NOUN'
p1532
F1.0
s(lp1533
g36
atp1534
a(S'in'
p1535
(dp1536
S'ADV'
p1537
F3e-06
sg1138
F2e-06
sS'CONJ'
p1538
F0.999995
sS'NOUN'
p1539
F1e-06
s(lp1540
g49
atp1541
a(S'druge'
p1542
(dp1543
S'NUM'
p1544
F1.0
s(lp1545
g62
atp1546
a(S'verske'
p1547
(dp1548
S'ADJ'
p1549
F1.0
s(lp1550
g75
atp1551
a(S'manj\xc5\xa1ine'
p1552
(dp1553
S'NOUN'
p1554
F1.0
s(lp1555
g68
atp1556
a(g1161
(dp1557
S'ADP'
p1558
F1.0
s(lp1559
g346
atp1560
a(S'pakistanu'
p1561
(dp1562
S'ADV'
p1563
F3.5e-05
sS'ADJ'
p1564
F0.00010499999999999999
sS'VERB'
p1565
F1.7000000000000003e-05
sS'NOUN'
p1566
F0.9998449999999999
s(lp1567
g87
atp1568
a(g89
(dp1569
g91
F1.0
s(lp1570
g89
atp1571
a(S'\xc4\x8deprav'
p1572
(dp1573
S'CONJ'
p1574
F1.0
s(lp1575
g106
atp1576
a(S'to'
p1577
(dp1578
S'PRON'
p1579
F0.999958
sg1138
F4.2e-05
s(lp1580
g112
atp1581
a(S'seveda'
p1582
(dp1583
S'PRT'
p1584
F1.0
s(lp1585
g139
atp1586
a(S'ni'
p1587
(dp1588
S'VERB'
p1589
F1.0
s(lp1590
g146
atp1591
a(S'edini'
p1592
(dp1593
S'ADJ'
p1594
F1.000001
s(lp1595
g160
atp1596
a(S'problem'
p1597
(dp1598
S'NOUN'
p1599
F1.0
s(lp1600
g166
atp1601
a(g89
(dp1602
g91
F1.0
s(lp1603
g89
atp1604
a(S's'
p1605
(dp1606
S'VERB'
p1607
F6e-05
sS'NOUN'
p1608
F1.6e-05
sS'ADP'
p1609
F0.999924
s(lp1610
g179
atp1611
a(S'katerim'
p1612
(dp1613
S'PRON'
p1614
F1.0
s(lp1615
g179
atp1616
a(S'se'
p1617
(dp1618
S'PRON'
p1619
F0.999993
sg1138
F7e-06
s(lp1620
tp1621
a(S'spopada'
p1622
(dp1623
S'VERB'
p1624
F1.0
s(lp1625
g179
atp1626
a(S'dr\xc5\xbeava'
p1627
(dp1628
S'NOUN'
p1629
F1.0
s(lp1630
g191
atp1631
a(g89
(dp1632
g91
F1.0
s(lp1633
tp1634
a(S'ki'
p1635
(dp1636
S'CONJ'
p1637
F1.0
s(lp1638
tp1639
a(S'ima'
p1640
(dp1641
S'VERB'
p1642
F1.0
s(lp1643
tp1644
a(S'te\xc5\xbeave'
p1645
(dp1646
S'NOUN'
p1647
F1.0
s(lp1648
g203
atp1649
a(g1605
(dp1650
S'VERB'
p1651
F0.0
sS'NOUN'
p1652
F0.0
sS'ADP'
p1653
F0.999999
s(lp1654
g209
atp1655
a(S'hudimi'
p1656
(dp1657
S'ADJ'
p1658
F1.0
s(lp1659
g223
atp1660
a(S'politi\xc4\x8dnimi'
p1661
(dp1662
S'ADJ'
p1663
F1.0
s(lp1664
g237
atp1665
a(S'spopadi'
p1666
(dp1667
S'NOUN'
p1668
F1.0
s(lp1669
g229
atp1670
a(S'in'
p1671
(dp1672
S'ADV'
p1673
F1.7e-05
sg1138
F1e-06
sS'CONJ'
p1674
F0.999981
sS'NOUN'
p1675
F1e-06
s(lp1676
g243
atp1677
a(S'ji'
p1678
(dp1679
S'PRON'
p1680
F1.0
s(lp1681
g450
atp1682
a(S'na'
p1683
(dp1684
S'ADP'
p1685
F1.0
s(lp1686
tp1687
a(S'\xc5\xbealost'
p1688
(dp1689
S'NOUN'
p1690
F1.0
s(lp1691
g249
atp1692
a(S'grozi'
p1693
(dp1694
S'VERB'
p1695
F0.992982
sS'NOUN'
p1696
F0.007018
s(lp1697
g260
atp1698
a(S'mo\xc5\xbenost'
p1699
(dp1700
S'NOUN'
p1701
F1.0
s(lp1702
g476
atp1703
a(S'destabilizacije'
p1704
(dp1705
S'ADJ'
p1706
F9.7e-05
sS'VERB'
p1707
F0.010826
sS'NOUN'
p1708
F0.9890770000000001
s(lp1709
g284
atp1710
a(g91
(dp1711
g91
F1.0
s(lp1712
g91
atp1713
asS'es'
p1714
(lp1715
(S'ahora'
p1716
(dp1717
S'ADV'
p1718
F1.0
s(lp1719
g22
atp1720
a(S'debemos'
p1721
(dp1722
S'VERB'
p1723
F1.0
s(lp1724
g291
atp1725
a(S'defender'
p1726
(dp1727
S'VERB'
p1728
F1.0
s(lp1729
g7
atp1730
a(g185
(dp1731
g1138
F0.000259
sS'CONJ'
p1732
F5e-06
sS'ADP'
p1733
F0.999736
s(lp1734
tp1735
a(S'la'
p1736
(dp1737
g1138
F1e-06
sS'PRON'
p1738
F0.0
sS'DET'
p1739
F0.999999
sS'NOUN'
p1740
F0.0
s(lp1741
g30
atp1742
a(S'minor\xc3\xada'
p1743
(dp1744
S'NOUN'
p1745
F1.0
s(lp1746
g36
atp1747
a(S'cristiana'
p1748
(dp1749
S'VERB'
p1750
F0.002889
sS'ADJ'
p1751
F0.997111
s(lp1752
g43
atp1753
a(S'y'
p1754
(dp1755
g1138
F0.000304
sS'CONJ'
p1756
F0.999696
s(lp1757
g49
atp1758
a(g185
(dp1759
g1138
F0.001108
sS'CONJ'
p1760
F0.0
sS'ADP'
p1761
F0.998892
s(lp1762
tp1763
a(S'las'
p1764
(dp1765
S'PRON'
p1766
F0.0
sS'DET'
p1767
F1.0
s(lp1768
tp1769
a(S'otras'
p1770
(dp1771
S'ADJ'
p1772
F1.0
s(lp1773
g62
atp1774
a(S'minor\xc3\xadas'
p1775
(dp1776
S'NOUN'
p1777
F1.0
s(lp1778
g68
atp1779
a(S'religiosas'
p1780
(dp1781
S'NOUN'
p1782
F0.073935
sS'ADJ'
p1783
F0.926065
s(lp1784
g75
atp1785
a(S'de'
p1786
(dp1787
g1138
F3.5e-05
sS'CONJ'
p1788
F0.001444
sS'ADP'
p1789
F0.998521
s(lp1790
g346
atp1791
a(S'pakist\xc3\xa1n'
p1792
(dp1793
S'ADJ'
p1794
F0.014618
sS'NOUN'
p1795
F0.985382
s(lp1796
g87
atp1797
a(g89
(dp1798
g91
F1.0
s(lp1799
tp1800
a(S'aunque'
p1801
(dp1802
S'CONJ'
p1803
F1.0
s(lp1804
tp1805
a(g89
(dp1806
g91
F1.0
s(lp1807
g89
atp1808
a(S'como'
p1809
(dp1810
S'ADV'
p1811
F0.27157
sS'CONJ'
p1812
F0.728429
s(lp1813
g215
atp1814
a(S'es'
p1815
(dp1816
S'VERB'
p1817
F1.0
s(lp1818
tp1819
a(S'bien'
p1820
(dp1821
S'ADV'
p1822
F0.992658
sS'NOUN'
p1823
F0.007342
s(lp1824
g106
atp1825
a(S'sabido'
p1826
(dp1827
S'VERB'
p1828
F0.041595
sS'ADJ'
p1829
F0.958405
s(lp1830
g139
atp1831
a(g89
(dp1832
g91
F1.0
s(lp1833
g89
atp1834
a(S'este'
p1835
(dp1836
S'PRON'
p1837
F0.998349
sS'NOUN'
p1838
F0.001651
s(lp1839
g112
atp1840
a(S'no'
p1841
(dp1842
S'ADV'
p1843
F1.0
sg1138
F0.0
s(lp1844
g146
atp1845
a(S'es'
p1846
(dp1847
S'VERB'
p1848
F1.0
s(lp1849
g126
atp1850
a(S'el'
p1851
(dp1852
S'PRON'
p1853
F7.1e-05
sS'DET'
p1854
F0.999929
s(lp1855
g153
atp1856
a(S'\xc3\xbanico'
p1857
(dp1858
S'ADJ'
p1859
F1.0
s(lp1860
g160
atp1861
a(S'problema'
p1862
(dp1863
S'NOUN'
p1864
F1.0
s(lp1865
g166
atp1866
a(S'al'
p1867
(dp1868
S'CONJ'
p1869
F0.042447
sS'ADP'
p1870
F0.957553
s(lp1871
g179
atp1872
a(S'que'
p1873
(dp1874
g1138
F0.0
sS'CONJ'
p1875
F1.0
s(lp1876
g179
atp1877
a(S'se'
p1878
(dp1879
S'PRON'
p1880
F1.0
sS'VERB'
p1881
F0.0
s(lp1882
tp1883
a(S'enfrenta'
p1884
(dp1885
S'VERB'
p1886
F1.0
s(lp1887
g179
atp1888
a(S'un'
p1889
(dp1890
g1138
F1e-06
sS'DET'
p1891
F0.999999
s(lp1892
g185
atp1893
a(S'pa\xc3\xads'
p1894
(dp1895
S'NOUN'
p1896
F1.0
s(lp1897
g191
atp1898
a(S'aquejado'
p1899
(dp1900
S'VERB'
p1901
F1.0
s(lp1902
g203
atp1903
a(S'por'
p1904
(dp1905
S'ADP'
p1906
F1.0
s(lp1907
g209
atp1908
a(S'graves'
p1909
(dp1910
S'ADJ'
p1911
F1.0
s(lp1912
g223
atp1913
a(S'conflictos'
p1914
(dp1915
S'NOUN'
p1916
F1.0
s(lp1917
g229
atp1918
a(S'pol\xc3\xadticos'
p1919
(dp1920
S'NOUN'
p1921
F0.009092
sS'ADJ'
p1922
F0.990908
s(lp1923
g237
atp1924
a(g89
(dp1925
g91
F1.0
s(lp1926
g89
atp1927
a(g1754
(dp1928
g1138
F0.000728
sS'CONJ'
p1929
F0.999272
s(lp1930
g243
atp1931
a(S'que'
p1932
(dp1933
g1138
F0.0
sS'CONJ'
p1934
F1.0
s(lp1935
g450
atp1936
a(S'lamentablemente'
p1937
(dp1938
S'ADV'
p1939
F1.0
s(lp1940
g249
atp1941
a(S'hace'
p1942
(dp1943
S'VERB'
p1944
F1.0
s(lp1945
g260
atp1946
a(S'frente'
p1947
(dp1948
S'ADP'
p1949
F1.0
s(lp1950
tp1951
a(g185
(dp1952
S'ADP'
p1953
F1.0
s(lp1954
g260
atp1955
a(S'una'
p1956
(dp1957
S'DET'
p1958
F1.0
s(lp1959
g470
atp1960
a(S'perspectiva'
p1961
(dp1962
S'NOUN'
p1963
F1.0
s(lp1964
g476
atp1965
a(S'de'
p1966
(dp1967
g1138
F2.9e-05
sS'CONJ'
p1968
F0.000449
sS'ADP'
p1969
F0.999522
s(lp1970
g267
atp1971
a(S'desestabilizaci\xc3\xb3n'
p1972
(dp1973
S'NOUN'
p1974
F1.0
s(lp1975
g284
atp1976
a(g91
(dp1977
g91
F1.0
s(lp1978
g91
atp1979
as.