(dp0
S'fr'
p1
(lp2
(S'nos'
p3
(dp4
S'PRON'
p5
F1.0
s(lp6
tp7
a(S'discussions'
p8
(dp9
S'NOUN'
p10
F1.0
s(lp11
S'discuss'
p12
atp13
a(S'et'
p14
(dp15
S'CONJ'
p16
F1.0
s(lp17
S'and'
p18
atp19
a(S'les'
p20
(dp21
S'PRON'
p22
F0.000497
sS'DET'
p23
F0.99949
sS'ADP'
p24
F1.3e-05
s(lp25
S'what'
p26
atp27
a(S'r\xc3\xa9sultats'
p28
(dp29
S'NOUN'
p30
F1.0
s(lp31
tp32
a(S'que'
p33
(dp34
S'ADV'
p35
F0.000965
sS'PRON'
p36
F0.44677300000000003
sS'CONJ'
p37
F0.552262
s(lp38
tp39
a(S'nous'
p40
(dp41
S'PRON'
p42
F1.0
s(lp43
S'we'
p44
atp45
a(S'obtiendrons'
p46
(dp47
S'VERB'
p48
F1.0
s(lp49
S'achieve'
p50
atp51
a(S'ensemble'
p52
(dp53
S'ADV'
p54
F0.915992
sS'NOUN'
p55
F0.084008
s(lp56
S'together'
p57
atp58
a(S'au'
p59
(dp60
S'ADP'
p61
F1.0
s(lp62
S'in'
p63
atp64
a(S'cours'
p65
(dp66
S'VERB'
p67
F0.0
sS'NOUN'
p68
F1.0
s(lp69
S'next'
p70
atp71
a(S'des'
p72
(dp73
S'DET'
p74
F6e-06
sS'ADP'
p75
F0.999994
s(lp76
S'the'
p77
atp78
a(S'cinq'
p79
(dp80
S'NUM'
p81
F0.97814
sS'NOUN'
p82
F0.02186
s(lp83
S'five'
p84
atp85
a(S'ou'
p86
(dp87
S'CONJ'
p88
F1.0
s(lp89
S'or'
p90
atp91
a(S'six'
p92
(dp93
S'NUM'
p94
F0.996902
sS'NOUN'
p95
F0.003098
s(lp96
S'six'
p97
atp98
a(S'prochains'
p99
(dp100
S'NOUN'
p101
F0.315549
sS'ADJ'
p102
F0.684451
s(lp103
tp104
a(S'mois'
p105
(dp106
S'NOUN'
p107
F1.0
s(lp108
S'months'
p109
atp110
a(S'd\xc3\xa9termineront'
p111
(dp112
S'VERB'
p113
F1.0
s(lp114
S'will'
p115
atp116
a(S'donc'
p117
(dp118
S'ADV'
p119
F1.0
s(lp120
S'be'
p121
atp122
a(S'le'
p123
(dp124
S'PRON'
p125
F0.000123
sS'DET'
p126
F0.999877
s(lp127
S'the'
p128
atp129
a(S'taux'
p130
(dp131
S'NOUN'
p132
F1.0
s(lp133
tp134
a(S'de'
p135
(dp136
S'ADP'
p137
F1.0
s(lp138
S'for'
p139
atp140
a(S'participation'
p141
(dp142
S'NOUN'
p143
F1.0
s(lp144
S'turnout'
p145
atp146
a(S'aux'
p147
(dp148
S'ADP'
p149
F1.0
s(lp150
S'the'
p151
atp152
a(S'\xc3\xa9lections'
p153
(dp154
S'NOUN'
p155
F1.0
s(lp156
S'elections'
p157
atp158
a(S'europ\xc3\xa9ennes'
p159
(dp160
S'NOUN'
p161
F0.005274
sS'ADJ'
p162
F0.994726
s(lp163
S'european'
p164
atp165
a(S'.'
p166
(dp167
g166
F1.0
s(lp168
g166
atp169
asS'en'
p170
(lp171
(S'therefore'
p172
(dp173
S'ADV'
p174
F1.0
s(lp175
g172
atp176
a(S','
p177
(dp178
g166
F1.0
s(lp179
g177
atp180
a(g26
(dp181
S'PRON'
p182
F0.989857
sS'DET'
p183
F0.010143
s(lp184
g26
atp185
a(g44
(dp186
S'PRON'
p187
F1.0
s(lp188
g44
atp189
a(g12
(dp190
S'VERB'
p191
F1.0
s(lp192
g12
atp193
a(g18
(dp194
S'CONJ'
p195
F0.999991
sS'NOUN'
p196
F9e-06
s(lp197
g18
atp198
a(g50
(dp199
S'VERB'
p200
F1.0
s(lp201
g50
atp202
a(g57
(dp203
S'ADV'
p204
F1.0
s(lp205
g57
atp206
a(S'now'
p207
(dp208
S'ADV'
p209
F0.999971
sS'NOUN'
p210
F2e-06
sS'ADP'
p211
F2.7e-05
s(lp212
g207
atp213
a(g177
(dp214
g166
F1.0
s(lp215
g177
atp216
a(g63
(dp217
S'ADV'
p218
F0.001823
sS'PRT'
p219
F0.0
sS'ADP'
p220
F0.998177
s(lp221
g63
atp222
a(g77
(dp223
S'NOUN'
p224
F1e-06
sS'DET'
p225
F0.999999
s(lp226
g77
atp227
a(g70
(dp228
S'ADV'
p229
F0.03425
sS'ADJ'
p230
F0.964603
sS'ADP'
p231
F0.001147
s(lp232
g70
atp233
a(g84
(dp234
S'NUM'
p235
F0.98159
sS'NOUN'
p236
F0.01841
s(lp237
g84
atp238
a(g90
(dp239
S'CONJ'
p240
F0.999991
sS'ADJ'
p241
F9e-06
s(lp242
g90
atp243
a(g97
(dp244
S'NUM'
p245
F0.999918
sS'NOUN'
p246
F8.2e-05
s(lp247
g97
atp248
a(g109
(dp249
S'NOUN'
p250
F1.0
s(lp251
g109
atp252
a(g177
(dp253
g166
F1.0
s(lp254
g177
atp255
a(g115
(dp256
S'VERB'
p257
F0.999998
sS'NOUN'
p258
F2e-06
s(lp259
g115
atp260
a(g121
(dp261
S'VERB'
p262
F1.0
s(lp263
g121
atp264
a(g128
(dp265
S'NOUN'
p266
F0.0
sS'DET'
p267
F1.0
s(lp268
g128
atp269
a(S'fundamental'
p270
(dp271
S'NOUN'
p272
F0.00224
sS'ADJ'
p273
F0.99776
s(lp274
g270
atp275
a(S'precondition'
p276
(dp277
S'VERB'
p278
F0.00039900000000000005
sS'NOUN'
p279
F0.999601
s(lp280
g276
atp281
a(g139
(dp282
S'ADP'
p283
F1.0
s(lp284
g139
atp285
a(S'a'
p286
(dp287
S'NOUN'
p288
F0.0
sS'DET'
p289
F1.0
s(lp290
g286
atp291
a(S'high'
p292
(dp293
S'ADV'
p294
F0.000273
sS'NOUN'
p295
F0.01841
sS'ADJ'
p296
F0.981316
s(lp297
g292
atp298
a(g145
(dp299
S'NOUN'
p300
F1.0
s(lp301
g145
atp302
a(S'in'
p303
(dp304
S'ADV'
p305
F0.000191
sS'PRT'
p306
F0.000279
sS'ADP'
p307
F0.999531
s(lp308
g303
atp309
a(g151
(dp310
S'NOUN'
p311
F1e-06
sS'DET'
p312
F0.999999
s(lp313
g151
atp314
a(g164
(dp315
S'NOUN'
p316
F0.13958800000000002
sS'VERB'
p317
F9e-06
sS'ADJ'
p318
F0.860402
s(lp319
g164
atp320
a(g157
(dp321
S'NOUN'
p322
F1.0
s(lp323
g157
atp324
a(g166
(dp325
g166
F1.0
s(lp326
g166
atp327
asS'nl'
p328
(lp329
(S'geen'
p330
(dp331
S'PRON'
p332
F0.999884
sS'DET'
p333
F0.000115
s(lp334
tp335
a(S'mens'
p336
(dp337
S'NOUN'
p338
F1.0
s(lp339
g145
atp340
a(S'weet'
p341
(dp342
S'VERB'
p343
F0.9994959999999999
sS'NOUN'
p344
F0.000504
s(lp345
g145
atp346
a(S'meer'
p347
(dp348
S'ADV'
p349
F0.999029
sS'NUM'
p350
F0.000965
sS'NOUN'
p351
F6e-06
sS'VERB'
p352
F0.0
s(lp353
tp354
a(S'wat'
p355
(dp356
S'ADV'
p357
F0.051298
sS'PRON'
p358
F0.948702
s(lp359
g26
atp360
a(S'hij'
p361
(dp362
S'PRON'
p363
F1.0
s(lp364
g26
atp365
a(S'hier'
p366
(dp367
S'ADV'
p368
F1.0
s(lp369
g12
atp370
a(S'heeft'
p371
(dp372
S'VERB'
p373
F1.0
s(lp374
tp375
a(S'gezegd'
p376
(dp377
S'VERB'
p378
F0.98448
sS'ADJ'
p379
F0.01552
s(lp380
g207
atp381
a(g177
(dp382
g166
F1.0
s(lp383
g177
atp384
a(S'en'
p385
(dp386
S'CONJ'
p387
F1.0
s(lp388
g18
atp389
a(S'wat'
p390
(dp391
S'ADV'
p392
F0.001798
sS'PRON'
p393
F0.9982019999999999
s(lp394
tp395
a(S'wij'
p396
(dp397
S'PRON'
p398
F1.0
s(lp399
tp400
a(S'hebben'
p401
(dp402
S'VERB'
p403
F0.999998
sS'NOUN'
p404
F2e-06
s(lp405
tp406
a(S'geantwoord'
p407
(dp408
S'VERB'
p409
F1.0
s(lp410
tp411
a(g166
(dp412
g166
F1.0
s(lp413
g177
atp414
a(S'daarom'
p415
(dp416
S'ADV'
p417
F1.0
s(lp418
g172
atp419
a(S'is'
p420
(dp421
S'VERB'
p422
F1.0
s(lp423
tp424
a(S'wat'
p425
(dp426
S'ADV'
p427
F0.169997
sS'PRON'
p428
F0.830002
s(lp429
g26
atp430
a(S'wij'
p431
(dp432
S'PRON'
p433
F1.0
s(lp434
g44
atp435
a(S'in'
p436
(dp437
S'ADV'
p438
F0.012944
sS'VERB'
p439
F3e-06
sS'ADP'
p440
F0.987052
s(lp441
g63
atp442
a(S'de'
p443
(dp444
S'DET'
p445
F1.0
s(lp446
g77
atp447
a(S'komende'
p448
(dp449
S'NOUN'
p450
F0.028206
sS'VERB'
p451
F0.902596
sS'ADJ'
p452
F0.069199
s(lp453
g70
atp454
a(S'vijf'
p455
(dp456
S'NUM'
p457
F1.0
s(lp458
g84
atp459
a(S'\xc3\xa0'
p460
(dp461
S'ADP'
p462
F1.0
s(lp463
g90
atp464
a(S'zes'
p465
(dp466
S'NUM'
p467
F1.0
s(lp468
g97
atp469
a(S'maanden'
p470
(dp471
S'VERB'
p472
F1e-06
sS'NOUN'
p473
F0.999999
s(lp474
g109
atp475
a(S'met'
p476
(dp477
S'ADP'
p478
F1.0
s(lp479
tp480
a(S'elkaar'
p481
(dp482
S'PRON'
p483
F1.0
s(lp484
g57
atp485
a(S'willen'
p486
(dp487
S'VERB'
p488
F0.999805
sS'NOUN'
p489
F0.000195
s(lp490
g115
atp491
a(S'bespreken'
p492
(dp493
S'VERB'
p494
F0.999391
sS'NOUN'
p495
F0.000609
s(lp496
g12
atp497
a(S'en'
p498
(dp499
S'CONJ'
p500
F1.0
s(lp501
g177
atp502
a(S'bereiken'
p503
(dp504
S'VERB'
p505
F0.923028
sS'NOUN'
p506
F0.076972
s(lp507
g50
atp508
a(S'een'
p509
(dp510
S'ADJ'
p511
F7e-06
sS'PRON'
p512
F3.6e-05
sS'NUM'
p513
F1e-06
sS'DET'
p514
F0.999956
s(lp515
g128
atp516
a(S'voorwaarde'
p517
(dp518
S'NOUN'
p519
F1.0
s(lp520
g276
atp521
a(S'voor'
p522
(dp523
S'ADV'
p524
F0.001936
sS'CONJ'
p525
F3e-06
sS'NOUN'
p526
F0.0
sS'ADP'
p527
F0.998061
s(lp528
g139
atp529
a(S'een'
p530
(dp531
S'ADJ'
p532
F1e-06
sS'PRON'
p533
F0.000523
sS'NUM'
p534
F1e-06
sS'DET'
p535
F0.999475
s(lp536
g286
atp537
a(S'hoge'
p538
(dp539
S'NOUN'
p540
F0.000264
sS'ADJ'
p541
F0.999736
s(lp542
g292
atp543
a(S'opkomst'
p544
(dp545
S'NOUN'
p546
F1.0
s(lp547
g145
atp548
a(S'bij'
p549
(dp550
S'ADV'
p551
F0.004135
sS'NOUN'
p552
F0.0
sS'ADJ'
p553
F0.0
sS'ADP'
p554
F0.995865
s(lp555
g303
atp556
a(S'de'
p557
(dp558
S'DET'
p559
F1.0
s(lp560
g151
atp561
a(S'europese'
p562
(dp563
S'NOUN'
p564
F1.0
s(lp565
g164
atp566
a(S'verkiezingen'
p567
(dp568
S'NOUN'
p569
F1.0
s(lp570
g157
atp571
a(g166
(dp572
g166
F1.0
s(lp573
g166
atp574
asS'de'
p575
(lp576
(S'deshalb'
p577
(dp578
S'ADV'
p579
F1.0
s(lp580
g172
atp581
a(S'ist'
p582
(dp583
S'VERB'
p584
F1.0
s(lp585
g177
atp586
a(S'das'
p587
(dp588
S'PRON'
p589
F0.991314
sS'DET'
p590
F0.008685
s(lp591
tp592
a(g177
(dp593
g166
F1.0
s(lp594
tp595
a(S'was'
p596
(dp597
S'PRON'
p598
F0.99925
s(lp599
g26
atp600
a(S'wir'
p601
(dp602
S'PRON'
p603
F1.0
s(lp604
g44
atp605
a(S'jetzt'
p606
(dp607
S'ADV'
p608
F1.0
s(lp609
g207
atp610
a(S'in'
p611
(dp612
S'ADP'
p613
F1.0
s(lp614
g63
atp615
a(S'den'
p616
(dp617
S'PRON'
p618
F0.000117
sS'DET'
p619
F0.999881
s(lp620
g77
atp621
a(S'n\xc3\xa4chsten'
p622
(dp623
S'ADJ'
p624
F1.0
s(lp625
g70
atp626
a(S'f\xc3\xbcnf'
p627
(dp628
S'NUM'
p629
F1.0
s(lp630
g84
atp631
a(S'bis'
p632
(dp633
S'CONJ'
p634
F0.138275
sS'ADP'
p635
F0.861721
s(lp636
g90
atp637
a(S'sechs'
p638
(dp639
S'NUM'
p640
F1.0
s(lp641
g97
atp642
a(S'monaten'
p643
(dp644
S'ADJ'
p645
F0.017906
sS'NOUN'
p646
F0.977097
s(lp647
g109
atp648
a(S'miteinander'
p649
(dp650
S'ADV'
p651
F1.0
s(lp652
g57
atp653
a(S'diskutieren'
p654
(dp655
S'VERB'
p656
F1.0
s(lp657
g12
atp658
a(S'und'
p659
(dp660
S'CONJ'
p661
F1.0
s(lp662
g18
atp663
a(S'erreichen'
p664
(dp665
S'VERB'
p666
F1.0
s(lp667
g50
atp668
a(g177
(dp669
g166
F1.0
s(lp670
g177
atp671
a(S'die'
p672
(dp673
S'PRON'
p674
F0.299398
sS'DET'
p675
F0.697266
s(lp676
g128
atp677
a(S'grundvoraussetzung'
p678
(dp679
S'ADJ'
p680
F0.226368
sS'NOUN'
p681
F0.759113
s(lp682
g276
atp683
a(S'f\xc3\xbcr'
p684
(dp685
S'ADP'
p686
F1.0
s(lp687
g139
atp688
a(S'eine'
p689
(dp690
S'PRON'
p691
F0.001197
sS'DET'
p692
F0.998738
s(lp693
g286
atp694
a(S'hohe'
p695
(dp696
S'ADJ'
p697
F1.0
s(lp698
g292
atp699
a(S'wahlbeteiligung'
p700
(dp701
S'ADJ'
p702
F0.002356
sS'NOUN'
p703
F0.995666
s(lp704
g145
atp705
a(S'bei'
p706
(dp707
S'PRT'
p708
F0.000185
sS'ADP'
p709
F0.999815
s(lp710
g303
atp711
a(S'der'
p712
(dp713
S'PRON'
p714
F8.4e-05
sS'DET'
p715
F0.99989
s(lp716
g151
atp717
a(S'europawahl'
p718
(dp719
S'ADJ'
p720
F0.033015
sS'NOUN'
p721
F0.958624
s(lp722
g157
atp723
a(g166
(dp724
g166
F1.0
s(lp725
g166
atp726
asS'it'
p727
(lp728
(S'pertanto'
p729
(dp730
S'ADV'
p731
F1.0
s(lp732
g172
atp733
a(g177
(dp734
g166
F1.0
s(lp735
g177
atp736
a(S'ci\xc3\xb2'
p737
(dp738
S'PRON'
p739
F1.0
s(lp740
tp741
a(S'che'
p742
(dp743
S'PRON'
p744
F0.99884
sS'CONJ'
p745
F0.000925
sS'ADJ'
p746
F0.000235
s(lp747
g26
atp748
a(S'diremo'
p749
(dp750
S'VERB'
p751
F1.0
s(lp752
g12
atp753
a(S'e'
p754
(dp755
S'CONJ'
p756
F1.0
s(lp757
g18
atp758
a(S'raggiungeremo'
p759
(dp760
S'VERB'
p761
F1.0
s(lp762
g50
atp763
a(S'insieme'
p764
(dp765
S'ADV'
p766
F0.994412
sS'NOUN'
p767
F0.005588
s(lp768
g57
atp769
a(S'nei'
p770
(dp771
S'NOUN'
p772
F0.002617
sS'ADP'
p773
F0.997383
s(lp774
g63
atp775
a(S'prossimi'
p776
(dp777
S'NOUN'
p778
F0.30459
sS'ADJ'
p779
F0.69541
s(lp780
g70
atp781
a(S'cinque'
p782
(dp783
S'NOUN'
p784
F0.199111
sS'NUM'
p785
F5.9e-05
sS'ADJ'
p786
F0.80083
s(lp787
g84
atp788
a(S'o'
p789
(dp790
S'X'
p791
F8e-06
sS'CONJ'
p792
F0.999992
s(lp793
g90
atp794
a(S'sei'
p795
(dp796
S'NUM'
p797
F0.001272
sS'VERB'
p798
F0.008623
sS'ADJ'
p799
F0.98981
sS'NOUN'
p800
F0.000294
s(lp801
g97
atp802
a(S'mesi'
p803
(dp804
S'NOUN'
p805
F1.0
s(lp806
g109
atp807
a(S'costituir\xc3\xa0'
p808
(dp809
S'VERB'
p810
F1.0
s(lp811
g115
atp812
a(S'il'
p813
(dp814
S'DET'
p815
F1.0
s(lp816
g128
atp817
a(S'presupposto'
p818
(dp819
S'VERB'
p820
F0.001015
sS'NOUN'
p821
F0.998985
s(lp822
g276
atp823
a(S'fondamentale'
p824
(dp825
S'ADJ'
p826
F1.0
s(lp827
g270
atp828
a(S'per'
p829
(dp830
S'CONJ'
p831
F0.017839
sS'ADP'
p832
F0.982161
s(lp833
g139
atp834
a(S"un'"
p835
(dp836
S'PRON'
p837
F0.009859
sS'DEF'
p838
F0.990141
s(lp839
g286
atp840
a(S'elevata'
p841
(dp842
S'VERB'
p843
F0.592923
sS'ADJ'
p844
F0.407077
s(lp845
g292
atp846
a(S'affluenza'
p847
(dp848
S'NOUN'
p849
F1.0
s(lp850
g145
atp851
a(S'alle'
p852
(dp853
S'ADP'
p854
F1.0
s(lp855
g145
atp856
a(S'urne'
p857
(dp858
S'NOUN'
p859
F1.0
s(lp860
tp861
a(S'in'
p862
(dp863
S'ADP'
p864
F1.0
s(lp865
g303
atp866
a(S'occasione'
p867
(dp868
S'NOUN'
p869
F1.0
s(lp870
g145
atp871
a(S'delle'
p872
(dp873
S'DEF'
p874
F0.001048
sS'ADP'
p875
F0.998952
s(lp876
tp877
a(S'elezioni'
p878
(dp879
S'NOUN'
p880
F1.0
s(lp881
g157
atp882
a(S'europee'
p883
(dp884
S'NOUN'
p885
F0.015475
sS'ADJ'
p886
F0.984525
s(lp887
g164
atp888
a(g166
(dp889
g166
F1.0
s(lp890
g166
atp891
asS'sk'
p892
(lp893
(S'z'
p894
(dp895
g791
F8.1e-05
sS'NOUN'
p896
F1.9e-05
sS'ADP'
p897
F0.999899
s(lp898
g172
atp899
a(S'tohto'
p900
(dp901
S'PRON'
p902
F0.999971
sg791
F2.9e-05
s(lp903
tp904
a(S'd\xc3\xb4vodu'
p905
(dp906
S'NOUN'
p907
F1.0
s(lp908
g172
atp909
a(S'to'
p910
(dp911
S'PRON'
p912
F0.98134
sS'CONJ'
p913
F0.002456
sg791
F0.016205
s(lp914
tp915
a(g177
(dp916
g166
F1.0
s(lp917
g177
atp918
a(S'\xc4\x8do'
p919
(dp920
S'PRON'
p921
F0.234193
sS'CONJ'
p922
F0.661549
sg791
F0.104259
s(lp923
g26
atp924
a(S'tu'
p925
(dp926
S'PRON'
p927
F0.991418
sg791
F0.008582000000000001
s(lp928
g44
atp929
a(S'dnes'
p930
(dp931
S'ADV'
p932
F1.0
sg791
F0.0
s(lp933
g207
atp934
a(S'prediskutujeme'
p935
(dp936
S'VERB'
p937
F1.0
s(lp938
g12
atp939
a(g286
(dp940
g791
F0.009888000000000001
sS'CONJ'
p941
F0.987073
sS'NOUN'
p942
F0.000187
sS'ADP'
p943
F2e-06
sS'PRT'
p944
F0.002852
s(lp945
g18
atp946
a(S'v'
p947
(dp948
g791
F5.2e-05
sS'ADP'
p949
F0.999948
s(lp950
g63
atp951
a(S'najbli\xc5\xbe\xc5\xa1\xc3\xadch'
p952
(dp953
S'ADJ'
p954
F1.0
s(lp955
g70
atp956
a(S'piatich'
p957
(dp958
S'NUM'
p959
F1.0
s(lp960
g84
atp961
a(S'alebo'
p962
(dp963
g791
F5e-06
sS'CONJ'
p964
F0.999995
s(lp965
g90
atp966
a(S'\xc5\xa1iestich'
p967
(dp968
S'NUM'
p969
F1.0
s(lp970
g97
atp971
a(S'mesiacoch'
p972
(dp973
S'NOUN'
p974
F1.0
s(lp975
g109
atp976
a(S'spolu'
p977
(dp978
S'ADV'
p979
F0.999937
sg791
F6.3e-05
s(lp980
g57
atp981
a(S'dosiahneme'
p982
(dp983
S'VERB'
p984
F1.0
s(lp985
g50
atp986
a(g177
(dp987
g166
F1.0
s(lp988
g177
atp989
a(S'bude'
p990
(dp991
g791
F4.8e-05
sS'VERB'
p992
F0.999953
s(lp993
g115
atp994
a(S'z\xc3\xa1kladn\xc3\xbdm'
p995
(dp996
S'ADJ'
p997
F1.0
s(lp998
g270
atp999
a(S'predpokladom'
p1000
(dp1001
S'NOUN'
p1002
F1.0
s(lp1003
g276
atp1004
a(S'pre'
p1005
(dp1006
g791
F0.000106
sS'ADP'
p1007
F0.999894
s(lp1008
g139
atp1009
a(S'vysok\xc3\xba'
p1010
(dp1011
S'NOUN'
p1012
F0.001357
sS'ADJ'
p1013
F0.998643
s(lp1014
g292
atp1015
a(S'\xc3\xba\xc4\x8das\xc5\xa5'
p1016
(dp1017
S'NOUN'
p1018
F1.0
s(lp1019
g145
atp1020
a(g947
(dp1021
g791
F0.000187
sS'ADP'
p1022
F0.999813
s(lp1023
g303
atp1024
a(S'eur\xc3\xb3pskych'
p1025
(dp1026
S'ADJ'
p1027
F1.0
s(lp1028
g164
atp1029
a(S'vo\xc4\xbeb\xc3\xa1ch'
p1030
(dp1031
S'NOUN'
p1032
F1.0
s(lp1033
g157
atp1034
a(g166
(dp1035
g166
F1.0
s(lp1036
g166
atp1037
asS'pl'
p1038
(lp1039
(S'w'
p1040
(dp1041
S'ADJ'
p1042
F0.0
sg791
F0.0
sS'NOUN'
p1043
F2e-06
sS'ADP'
p1044
F0.999999
s(lp1045
g172
atp1046
a(S'zwi\xc4\x85zku'
p1047
(dp1048
S'NOUN'
p1049
F1.0
s(lp1050
g172
atp1051
a(g894
(dp1052
S'PRT'
p1053
F2.4e-05
sS'VERB'
p1054
F9e-06
sS'NOUN'
p1055
F1e-06
sS'ADP'
p1056
F0.999965
sg791
F2e-06
s(lp1057
tp1058
a(S'tym'
p1059
(dp1060
S'ADV'
p1061
F0.000412
sS'ADJ'
p1062
F0.068979
sS'CONJ'
p1063
F0.000168
sS'NOUN'
p1064
F0.9304140000000001
sS'PRT'
p1065
F2.9e-05
s(lp1066
g172
atp1067
a(S'to'
p1068
(dp1069
S'NOUN'
p1070
F0.705704
sS'ADP'
p1071
F6.2e-05
sS'PRT'
p1072
F0.041288
sg791
F4.9e-05
sS'CONJ'
p1073
F0.097228
sS'ADJ'
p1074
F0.15566900000000003
s(lp1075
tp1076
a(g177
(dp1077
g791
F0.0
sg166
F1.0
s(lp1078
g177
atp1079
a(S'co'
p1080
(dp1081
S'PRT'
p1082
F0.050616
sS'CONJ'
p1083
F0.709202
sS'NOUN'
p1084
F0.21579800000000002
sS'ADP'
p1085
F0.024384
s(lp1086
g26
atp1087
a(S'przedyskutujemy'
p1088
(dp1089
S'ADV'
p1090
F0.002487
sS'ADJ'
p1091
F0.016297000000000002
sS'VERB'
p1092
F0.845112
sS'NOUN'
p1093
F0.13610799999999998
s(lp1094
g12
atp1095
a(S'i'
p1096
(dp1097
S'PRT'
p1098
F0.252184
sS'CONJ'
p1099
F0.74622
sS'NOUN'
p1100
F9.9e-05
sg791
F0.000597
sS'PRON'
p1101
F0.0009000000000000001
s(lp1102
g18
atp1103
a(S'osi\xc4\x85gniemy'
p1104
(dp1105
S'VERB'
p1106
F1.0
s(lp1107
g50
atp1108
a(S'wsp\xc3\xb3lnie'
p1109
(dp1110
S'ADV'
p1111
F1.0
s(lp1112
g57
atp1113
a(S'teraz'
p1114
(dp1115
S'ADV'
p1116
F1.0
s(lp1117
g207
atp1118
a(g177
(dp1119
g791
F0.0
sg166
F1.0
s(lp1120
g177
atp1121
a(g1040
(dp1122
S'ADJ'
p1123
F0.0
sg791
F4.9999999999999996e-06
sS'NOUN'
p1124
F4e-06
sS'ADP'
p1125
F0.99999
s(lp1126
g63
atp1127
a(S'nast\xc4\x99pnych'
p1128
(dp1129
S'ADJ'
p1130
F1.0000000000000002
s(lp1131
g70
atp1132
a(S'pi\xc4\x99ciu'
p1133
(dp1134
S'NUM'
p1135
F1.0
s(lp1136
g84
atp1137
a(S'lub'
p1138
(dp1139
S'CONJ'
p1140
F1.0
s(lp1141
g90
atp1142
a(S'sze\xc5\x9bciu'
p1143
(dp1144
S'NUM'
p1145
F0.9999990000000001
s(lp1146
g97
atp1147
a(S'miesi\xc4\x85cach'
p1148
(dp1149
S'NOUN'
p1150
F1.0
s(lp1151
g109
atp1152
a(g177
(dp1153
g791
F0.0
sg166
F1.0
s(lp1154
g177
atp1155
a(S'b\xc4\x99dzie'
p1156
(dp1157
S'VERB'
p1158
F1.0
s(lp1159
g115
atp1160
a(S'podstawowym'
p1161
(dp1162
S'ADJ'
p1163
F0.999999
s(lp1164
g270
atp1165
a(S'warunkiem'
p1166
(dp1167
S'NOUN'
p1168
F1.0
s(lp1169
g276
atp1170
a(S'wysokiej'
p1171
(dp1172
S'ADJ'
p1173
F1.0
s(lp1174
g292
atp1175
a(S'frekwencji'
p1176
(dp1177
S'NOUN'
p1178
F1.0
s(lp1179
g145
atp1180
a(g1040
(dp1181
g791
F0.0
sS'ADJ'
p1182
F0.0
sS'ADP'
p1183
F0.999999
sS'NOUN'
p1184
F0.0
s(lp1185
g303
atp1186
a(S'wyborach'
p1187
(dp1188
S'NOUN'
p1189
F1.0
s(lp1190
g157
atp1191
a(S'europejskich'
p1192
(dp1193
S'ADJ'
p1194
F1.0
s(lp1195
g164
atp1196
a(g166
(dp1197
g166
F1.0
s(lp1198
g166
atp1199
asS'sl'
p1200
(lp1201
(S'zato'
p1202
(dp1203
S'ADV'
p1204
F0.162443
sS'CONJ'
p1205
F0.837557
s(lp1206
g172
atp1207
a(S'bodo'
p1208
(dp1209
S'VERB'
p1210
F1.0
s(lp1211
g115
atp1212
a(S'teme'
p1213
(dp1214
S'NOUN'
p1215
F1.0
s(lp1216
g270
atp1217
a(g177
(dp1218
g166
F1.0
s(lp1219
g177
atp1220
a(g789
(dp1221
S'NOUN'
p1222
F7.3e-05
sS'ADP'
p1223
F0.999927
s(lp1224
tp1225
a(S'katerih'
p1226
(dp1227
S'PRON'
p1228
F0.9999990000000001
s(lp1229
g26
atp1230
a(S'bomo'
p1231
(dp1232
S'VERB'
p1233
F1.0
s(lp1234
g44
atp1235
a(S'razpravljali'
p1236
(dp1237
S'VERB'
p1238
F1.0
s(lp1239
g12
atp1240
a(S'in'
p1241
(dp1242
S'ADV'
p1243
F0.004521
sg791
F0.000113
sS'CONJ'
p1244
F0.99536
sS'NOUN'
p1245
F6e-06
s(lp1246
g18
atp1247
a(S'dosegali'
p1248
(dp1249
S'VERB'
p1250
F1.0
s(lp1251
tp1252
a(S'cilje'
p1253
(dp1254
S'NOUN'
p1255
F1.0
s(lp1256
g50
atp1257
a(S'skupaj'
p1258
(dp1259
S'ADV'
p1260
F1.0
s(lp1261
g57
atp1262
a(g947
(dp1263
S'ADP'
p1264
F1.0
s(lp1265
g63
atp1266
a(S'naslednjih'
p1267
(dp1268
S'ADJ'
p1269
F1.0
s(lp1270
g70
atp1271
a(S'petih'
p1272
(dp1273
S'NUM'
p1274
F1.0
s(lp1275
g84
atp1276
a(S'ali'
p1277
(dp1278
S'ADV'
p1279
F0.00639
sS'CONJ'
p1280
F0.99361
s(lp1281
g90
atp1282
a(S'\xc5\xa1estih'
p1283
(dp1284
S'NUM'
p1285
F1.0
s(lp1286
g97
atp1287
a(S'mesecih'
p1288
(dp1289
S'NOUN'
p1290
F1.0
s(lp1291
g109
atp1292
a(g177
(dp1293
g166
F1.0
s(lp1294
g177
atp1295
a(S'osnovni'
p1296
(dp1297
S'ADJ'
p1298
F1.0
s(lp1299
tp1300
a(S'predpogoj'
p1301
(dp1302
S'NOUN'
p1303
F1.0
s(lp1304
g276
atp1305
a(S'za'
p1306
(dp1307
S'ADV'
p1308
F5.2e-05
sg791
F1.5e-05
sS'ADP'
p1309
F0.999933
s(lp1310
g139
atp1311
a(S'visoko'
p1312
(dp1313
S'ADV'
p1314
F0.000368
sS'ADJ'
p1315
F0.999633
s(lp1316
g292
atp1317
a(S'udele\xc5\xbebo'
p1318
(dp1319
S'NOUN'
p1320
F1.0
s(lp1321
g145
atp1322
a(S'na'
p1323
(dp1324
S'ADP'
p1325
F1.0
s(lp1326
g303
atp1327
a(S'evropskih'
p1328
(dp1329
S'ADJ'
p1330
F1.0
s(lp1331
g164
atp1332
a(S'volitvah'
p1333
(dp1334
S'NOUN'
p1335
F1.0
s(lp1336
g157
atp1337
a(g166
(dp1338
g166
F1.0
s(lp1339
g166
atp1340
asS'es'
p1341
(lp1342
(S'por'
p1343
(dp1344
S'CONJ'
p1345
F1.0
s(lp1346
tp1347
a(S'tanto'
p1348
(dp1349
S'CONJ'
p1350
F1.0
s(lp1351
g172
atp1352
a(g177
(dp1353
g166
F1.0
s(lp1354
g177
atp1355
a(S'lo'
p1356
(dp1357
S'PRON'
p1358
F0.095055
sS'DET'
p1359
F0.904945
s(lp1360
tp1361
a(S'que'
p1362
(dp1363
g791
F1e-06
sS'CONJ'
p1364
F0.999999
s(lp1365
g26
atp1366
a(S'discutamos'
p1367
(dp1368
S'VERB'
p1369
F1.0
s(lp1370
g12
atp1371
a(S'y'
p1372
(dp1373
g791
F0.000186
sS'CONJ'
p1374
F0.999814
s(lp1375
g18
atp1376
a(S'consigamos'
p1377
(dp1378
S'VERB'
p1379
F1.0
s(lp1380
g50
atp1381
a(S'juntos'
p1382
(dp1383
S'ADJ'
p1384
F1.0
s(lp1385
g57
atp1386
a(S'hoy'
p1387
(dp1388
S'ADV'
p1389
F1.0
s(lp1390
g207
atp1391
a(g177
(dp1392
g166
F1.0
s(lp1393
g177
atp1394
a(S'en'
p1395
(dp1396
g791
F0.0
sS'CONJ'
p1397
F1e-06
sS'ADP'
p1398
F0.999998
s(lp1399
g63
atp1400
a(S'los'
p1401
(dp1402
S'PRON'
p1403
F0.0
sS'DET'
p1404
F1.0
s(lp1405
g77
atp1406
a(S'pr\xc3\xb3ximos'
p1407
(dp1408
S'ADJ'
p1409
F1.0
s(lp1410
g70
atp1411
a(S'cinco'
p1412
(dp1413
S'NUM'
p1414
F1.0
s(lp1415
g84
atp1416
a(g789
(dp1417
g791
F9.8e-05
sS'CONJ'
p1418
F0.999902
s(lp1419
g90
atp1420
a(S'seis'
p1421
(dp1422
S'NUM'
p1423
F1.0
s(lp1424
g97
atp1425
a(S'meses'
p1426
(dp1427
S'NOUN'
p1428
F1.0
s(lp1429
g109
atp1430
a(g177
(dp1431
g166
F1.0
s(lp1432
g177
atp1433
a(S'ser\xc3\xa1'
p1434
(dp1435
S'VERB'
p1436
F1.0
s(lp1437
g115
atp1438
a(S'la'
p1439
(dp1440
g791
F1e-06
sS'DET'
p1441
F0.999999
sS'NOUN'
p1442
F0.0
sS'PRON'
p1443
F0.0
s(lp1444
g128
atp1445
a(S'precondici\xc3\xb3n'
p1446
(dp1447
S'NOUN'
p1448
F1.0
s(lp1449
tp1450
a(S'fundamental'
p1451
(dp1452
S'ADJ'
p1453
F1.0
s(lp1454
g270
atp1455
a(S'para'
p1456
(dp1457
S'CONJ'
p1458
F0.416084
sS'ADP'
p1459
F0.583916
s(lp1460
g139
atp1461
a(S'que'
p1462
(dp1463
g791
F2e-06
sS'CONJ'
p1464
F0.999998
s(lp1465
tp1466
a(S'se'
p1467
(dp1468
S'PRON'
p1469
F1.0
sS'VERB'
p1470
F0.0
s(lp1471
tp1472
a(S'produzca'
p1473
(dp1474
S'VERB'
p1475
F1.0
s(lp1476
g276
atp1477
a(S'una'
p1478
(dp1479
S'DET'
p1480
F1.0
s(lp1481
g286
atp1482
a(S'participaci\xc3\xb3n'
p1483
(dp1484
S'NOUN'
p1485
F1.0
s(lp1486
g145
atp1487
a(S'alta'
p1488
(dp1489
S'ADJ'
p1490
F1.0
s(lp1491
g292
atp1492
a(S'en'
p1493
(dp1494
g791
F0.0
sS'CONJ'
p1495
F1e-06
sS'ADP'
p1496
F0.999999
s(lp1497
g303
atp1498
a(S'las'
p1499
(dp1500
S'PRON'
p1501
F0.0
sS'DET'
p1502
F1.0
s(lp1503
g151
atp1504
a(S'elecciones'
p1505
(dp1506
S'NOUN'
p1507
F1.0
s(lp1508
g157
atp1509
a(S'europeas'
p1510
(dp1511
S'NOUN'
p1512
F0.008827
sS'ADJ'
p1513
F0.991173
s(lp1514
g164
atp1515
a(g166
(dp1516
g166
F1.0
s(lp1517
g166
atp1518
as.