(dp0
S'fr'
p1
(lp2
(S'il'
p3
(dp4
S'PRON'
p5
F1.0
s(lp6
S'we'
p7
atp8
a(S'est'
p9
(dp10
S'VERB'
p11
F0.999978
sS'NOUN'
p12
F2.2e-05
s(lp13
S'are'
p14
atp15
a(S'\xc3\xa9vident'
p16
(dp17
S'VERB'
p18
F5.2e-05
sS'ADJ'
p19
F0.999949
s(lp20
S'course'
p21
atp22
a(S'que'
p23
(dp24
S'ADV'
p25
F0.000544
sS'PRON'
p26
F0.22056900000000002
sS'CONJ'
p27
F0.778888
s(lp28
S','
p29
atp30
a(S'nous'
p31
(dp32
S'PRON'
p33
F1.0
s(lp34
tp35
a(S'sommes'
p36
(dp37
S'VERB'
p38
F0.999947
sS'NOUN'
p39
F5.3e-05
s(lp40
g7
atp41
a(S'particuli\xc3\xa8rement'
p42
(dp43
S'ADV'
p44
F1.0
s(lp45
S'particularly'
p46
atp47
a(S'pr\xc3\xa9occup\xc3\xa9s'
p48
(dp49
S'VERB'
p50
F0.945157
sS'ADJ'
p51
F0.054843
s(lp52
S'concerned'
p53
atp54
a(S'par'
p55
(dp56
S'NOUN'
p57
F0.0
sS'ADP'
p58
F1.0
s(lp59
S'about'
p60
atp61
a(S'les'
p62
(dp63
S'PRON'
p64
F0.000634
sS'DET'
p65
F0.999365
sS'ADP'
p66
F2e-06
s(lp67
S'the'
p68
atp69
a(S'attaques'
p70
(dp71
S'VERB'
p72
F0.000625
sS'NOUN'
p73
F0.999376
s(lp74
tp75
a(S'\xc3\xa0'
p76
(dp77
S'ADP'
p78
F1.0
s(lp79
S'on'
p80
atp81
a(S"l'"
p82
(dp83
S'ADJ'
p84
F0.160704
sS'VERB'
p85
F0.06480800000000002
sS'NOUN'
p86
F0.774488
s(lp87
S'human'
p88
atp89
a(S'encontre'
p90
(dp91
S'ADV'
p92
F1.0
s(lp93
S'attacks'
p94
atp95
a(S'des'
p96
(dp97
S'DET'
p98
F0.000119
sS'ADP'
p99
F0.999881
s(lp100
g88
atp101
a(S'd\xc3\xa9fenseurs'
p102
(dp103
S'NOUN'
p104
F1.0
s(lp105
tp106
a(S'des'
p107
(dp108
S'DET'
p109
F2.2e-05
sS'ADP'
p110
F0.999978
s(lp111
S'defenders'
p112
atp113
a(S'droits'
p114
(dp115
S'ADJ'
p116
F0.011772
sS'NOUN'
p117
F0.988228
s(lp118
S'rights'
p119
atp120
a(S'de'
p121
(dp122
S'ADP'
p123
F1.0
s(lp124
tp125
a(S"l'"
p126
(dp127
S'ADJ'
p128
F0.160704
sS'VERB'
p129
F0.06480800000000002
sS'NOUN'
p130
F0.774488
s(lp131
tp132
a(S'homme'
p133
(dp134
S'NOUN'
p135
F1.0
s(lp136
g88
atp137
a(S'.'
p138
(dp139
g138
F1.0
s(lp140
g138
atp141
asS'en'
p142
(lp143
(g7
(dp144
S'PRON'
p145
F1.0
s(lp146
g7
atp147
a(g14
(dp148
S'VERB'
p149
F1.0
sS'NOUN'
p150
F0.0
s(lp151
g14
atp152
a(g29
(dp153
g138
F1.0
s(lp154
g29
atp155
a(S'of'
p156
(dp157
S'ADP'
p158
F1.0
s(lp159
g156
atp160
a(g21
(dp161
S'ADV'
p162
F0.000317
sS'VERB'
p163
F2e-06
sS'NOUN'
p164
F0.99968
s(lp165
g21
atp166
a(g29
(dp167
g138
F1.0
s(lp168
g29
atp169
a(g46
(dp170
S'ADV'
p171
F1.0
s(lp172
g46
atp173
a(g53
(dp174
S'VERB'
p175
F0.9128930000000001
sS'ADJ'
p176
F0.087107
s(lp177
g53
atp178
a(g60
(dp179
S'ADV'
p180
F0.106696
sS'ADP'
p181
F0.893304
s(lp182
g60
atp183
a(g68
(dp184
S'NOUN'
p185
F1.1e-05
sS'DET'
p186
F0.999989
s(lp187
g68
atp188
a(g94
(dp189
S'VERB'
p190
F0.001952
sS'NOUN'
p191
F0.998048
s(lp192
g94
atp193
a(g80
(dp194
S'ADV'
p195
F0.002549
sS'PRT'
p196
F0.000439
sS'ADJ'
p197
F2e-06
sS'ADP'
p198
F0.99701
sS'NOUN'
p199
F0.0
s(lp200
g80
atp201
a(g88
(dp202
S'NOUN'
p203
F0.018059
sS'ADJ'
p204
F0.981941
s(lp205
g88
atp206
a(g119
(dp207
S'VERB'
p208
F5e-05
sS'NOUN'
p209
F0.99995
s(lp210
g119
atp211
a(g112
(dp212
S'NOUN'
p213
F1.0
s(lp214
g112
atp215
a(g138
(dp216
g138
F1.0
s(lp217
g138
atp218
asS'nl'
p219
(lp220
(S'we'
p221
(dp222
S'PRON'
p223
F1.0
s(lp224
g7
atp225
a(S'zijn'
p226
(dp227
S'PRON'
p228
F0.727097
sS'VERB'
p229
F0.272859
sS'NOUN'
p230
F4.4e-05
s(lp231
g14
atp232
a(S'natuurlijk'
p233
(dp234
S'ADJ'
p235
F1.0
s(lp236
g21
atp237
a(S'vooral'
p238
(dp239
S'ADV'
p240
F1.0
s(lp241
g46
atp242
a(S'bezorgd'
p243
(dp244
S'VERB'
p245
F0.99828
sS'ADJ'
p246
F0.00172
s(lp247
g53
atp248
a(S'om'
p249
(dp250
S'ADV'
p251
F5.1e-05
sS'CONJ'
p252
F0.555154
sS'ADP'
p253
F0.444794
s(lp254
g60
atp255
a(S'de'
p256
(dp257
S'DET'
p258
F1.0
s(lp259
g68
atp260
a(S'aanvallen'
p261
(dp262
S'VERB'
p263
F4e-06
sS'NOUN'
p264
F0.999996
s(lp265
g94
atp266
a(S'tegen'
p267
(dp268
S'ADV'
p269
F7.5e-05
sS'ADP'
p270
F0.999925
s(lp271
g80
atp272
a(S'mensenrechtenactivisten'
p273
(dp274
S'NOUN'
p275
F1.0
s(lp276
g112
atp277
a(g138
(dp278
g138
F1.0
s(lp279
g138
atp280
asS'de'
p281
(lp282
(S'wir'
p283
(dp284
S'PRON'
p285
F1.0
s(lp286
g7
atp287
a(S'sind'
p288
(dp289
S'VERB'
p290
F1.0
s(lp291
g14
atp292
a(S'nat\xc3\xbcrlich'
p293
(dp294
S'ADV'
p295
F0.994931
sS'ADJ'
p296
F0.005069
s(lp297
g21
atp298
a(S'besonders'
p299
(dp300
S'ADV'
p301
F1.0
s(lp302
g46
atp303
a(S'betroffen'
p304
(dp305
S'VERB'
p306
F0.766764
sS'ADJ'
p307
F0.233236
s(lp308
g53
atp309
a(S'\xc3\xbcber'
p310
(dp311
S'PRT'
p312
F0.000246
sS'ADP'
p313
F0.999754
s(lp314
g60
atp315
a(S'die'
p316
(dp317
S'PRON'
p318
F0.505122
sS'DET'
p319
F0.489001
s(lp320
g68
atp321
a(S'angriffe'
p322
(dp323
S'VERB'
p324
F1.0
s(lp325
g94
atp326
a(S'gegen'
p327
(dp328
S'PRT'
p329
F5e-06
sS'ADP'
p330
F0.999995
s(lp331
g80
atp332
a(S'menschenrechtsk\xc3\xa4mpfer'
p333
(dp334
S'ADJ'
p335
F0.098334
sS'NOUN'
p336
F0.892061
s(lp337
g112
atp338
a(g138
(dp339
g138
F1.0
s(lp340
g138
atp341
asS'it'
p342
(lp343
(S'ovviamente'
p344
(dp345
S'ADV'
p346
F1.0
s(lp347
g21
atp348
a(S'siamo'
p349
(dp350
S'VERB'
p351
F1.0
s(lp352
g7
atp353
a(S'particolarmente'
p354
(dp355
S'ADV'
p356
F1.0
s(lp357
g46
atp358
a(S'preoccupati'
p359
(dp360
S'VERB'
p361
F0.937295
sS'ADJ'
p362
F0.062704
s(lp363
g53
atp364
a(S'per'
p365
(dp366
S'CONJ'
p367
F0.021513
sS'ADP'
p368
F0.978487
s(lp369
g60
atp370
a(S'gli'
p371
(dp372
S'PRON'
p373
F0.002332
sS'DET'
p374
F0.997668
s(lp375
tp376
a(S'attacchi'
p377
(dp378
S'VERB'
p379
F0.0023870000000000002
sS'NOUN'
p380
F0.997613
s(lp381
g94
atp382
a(S'ai'
p383
(dp384
S'NOUN'
p385
F3.5e-05
sS'ADP'
p386
F0.999965
s(lp387
g80
atp388
a(S'difensori'
p389
(dp390
S'ADJ'
p391
F0.256141
sS'NOUN'
p392
F0.743859
s(lp393
g112
atp394
a(S'dei'
p395
(dp396
S'NOUN'
p397
F9e-06
sS'DEF'
p398
F0.001397
sS'ADP'
p399
F0.998594
s(lp400
tp401
a(S'diritti'
p402
(dp403
S'ADJ'
p404
F0.012152
sS'NOUN'
p405
F0.987848
s(lp406
g119
atp407
a(S'umani'
p408
(dp409
S'NOUN'
p410
F0.020925
sS'ADJ'
p411
F0.979075
s(lp412
g88
atp413
a(g138
(dp414
g138
F1.0
s(lp415
g138
atp416
asS'sk'
p417
(lp418
(S'samozrejme'
p419
(dp420
S'ADV'
p421
F0.001799
sS'X'
p422
F0.99186
sS'ADJ'
p423
F0.006341
s(lp424
g21
atp425
a(g29
(dp426
g138
F1.0
s(lp427
g29
atp428
a(S'znepokojuj\xc3\xba'
p429
(dp430
S'VERB'
p431
F1.0
s(lp432
tp433
a(S'n\xc3\xa1s'
p434
(dp435
S'PRON'
p436
F0.99902
sg422
F0.00098
s(lp437
g53
atp438
a(S'hlavne'
p439
(dp440
S'ADV'
p441
F0.086745
sg422
F0.878669
sS'NOUN'
p442
F0.034586
s(lp443
g46
atp444
a(S'\xc3\xbatoky'
p445
(dp446
S'NOUN'
p447
F1.0
s(lp448
g94
atp449
a(S'na'
p450
(dp451
g422
F2.1000000000000002e-05
sS'CONJ'
p452
F2.4e-05
sS'ADP'
p453
F0.999945
sS'PRT'
p454
F1e-05
s(lp455
g80
atp456
a(S'obrancov'
p457
(dp458
S'NOUN'
p459
F1.0
s(lp460
g112
atp461
a(S'\xc4\xbeudsk\xc3\xbdch'
p462
(dp463
S'ADJ'
p464
F1.0
s(lp465
g88
atp466
a(S'pr\xc3\xa1v'
p467
(dp468
g422
F0.0002
sS'NOUN'
p469
F0.9998
s(lp470
g119
atp471
a(g138
(dp472
g138
F1.0
s(lp473
g138
atp474
asS'pl'
p475
(lp476
(S'oczywi\xc5\x9bcie'
p477
(dp478
S'PRT'
p479
F1.0
s(lp480
g21
atp481
a(S'najbardziej'
p482
(dp483
S'ADV'
p484
F1.0
s(lp485
g46
atp486
a(S'niepokoj\xc4\x85'
p487
(dp488
S'VERB'
p489
F1.0
s(lp490
tp491
a(S'nas'
p492
(dp493
S'PRON'
p494
F0.999999
s(lp495
g53
atp496
a(S'ataki'
p497
(dp498
S'NOUN'
p499
F1.0
s(lp500
g94
atp501
a(S'na'
p502
(dp503
g422
F1e-05
sS'VERB'
p504
F4e-06
sS'NOUN'
p505
F1e-06
sS'ADP'
p506
F0.99998
sS'PRT'
p507
F6e-06
s(lp508
g80
atp509
a(S'obro\xc5\x84c\xc3\xb3w'
p510
(dp511
S'NOUN'
p512
F1.0
s(lp513
g112
atp514
a(S'praw'
p515
(dp516
S'NOUN'
p517
F1.0
s(lp518
g119
atp519
a(S'cz\xc5\x82owieka'
p520
(dp521
S'NOUN'
p522
F1.0
s(lp523
g88
atp524
a(g138
(dp525
g138
F1.0
s(lp526
g138
atp527
asS'sl'
p528
(lp529
(S'seveda'
p530
(dp531
S'PRT'
p532
F1.0
s(lp533
g21
atp534
a(S'smo'
p535
(dp536
g422
F8.5e-05
sS'VERB'
p537
F0.999915
s(lp538
g7
atp539
a(S'\xc5\xa1e'
p540
(dp541
S'PRT'
p542
F1.0
s(lp543
tp544
a(S'posebno'
p545
(dp546
S'ADV'
p547
F0.998978
sS'ADJ'
p548
F0.0010220000000000001
s(lp549
g46
atp550
a(S'zaskrbljeni'
p551
(dp552
S'ADJ'
p553
F1.0
s(lp554
g53
atp555
a(S'zaradi'
p556
(dp557
S'ADP'
p558
F1.0
s(lp559
g60
atp560
a(S'napadov'
p561
(dp562
S'NOUN'
p563
F1.0
s(lp564
g94
atp565
a(S'na'
p566
(dp567
S'ADP'
p568
F1.0
s(lp569
tp570
a(S'borce'
p571
(dp572
S'ADV'
p573
F0.000205
sg422
F2.5e-05
sS'ADJ'
p574
F5e-06
sS'VERB'
p575
F1.4e-05
sS'NOUN'
p576
F0.9997510000000002
s(lp577
g112
atp578
a(S'za'
p579
(dp580
S'ADV'
p581
F2e-06
sg422
F7.8e-05
sS'ADP'
p582
F0.99992
s(lp583
g80
atp584
a(S'\xc4\x8dlovekove'
p585
(dp586
S'ADJ'
p587
F1.0
s(lp588
g88
atp589
a(S'pravice'
p590
(dp591
S'NOUN'
p592
F1.0
s(lp593
g119
atp594
a(g138
(dp595
g138
F1.0
s(lp596
g138
atp597
asS'es'
p598
(lp599
(S'por'
p600
(dp601
S'ADV'
p602
F1.0
s(lp603
tp604
a(S'supuesto'
p605
(dp606
S'ADV'
p607
F1.0
s(lp608
g21
atp609
a(g29
(dp610
g138
F1.0
s(lp611
g29
atp612
a(S'estamos'
p613
(dp614
S'VERB'
p615
F1.0
s(lp616
g14
atp617
a(S'especialmente'
p618
(dp619
S'ADV'
p620
F1.0
s(lp621
g46
atp622
a(S'preocupados'
p623
(dp624
S'VERB'
p625
F1.0
s(lp626
g53
atp627
a(S'por'
p628
(dp629
S'ADP'
p630
F1.0
s(lp631
g60
atp632
a(S'los'
p633
(dp634
S'PRON'
p635
F0.0
sS'DET'
p636
F1.0
s(lp637
g68
atp638
a(S'ataques'
p639
(dp640
S'VERB'
p641
F0.000459
sS'NOUN'
p642
F0.999541
s(lp643
g94
atp644
a(S'perpetrados'
p645
(dp646
S'VERB'
p647
F1.0
s(lp648
tp649
a(S'contra'
p650
(dp651
S'ADP'
p652
F1.0
s(lp653
g94
atp654
a(S'los'
p655
(dp656
S'PRON'
p657
F0.0
sS'DET'
p658
F1.0
s(lp659
tp660
a(S'defensores'
p661
(dp662
S'ADJ'
p663
F0.085547
sS'NOUN'
p664
F0.914453
s(lp665
g112
atp666
a(S'de'
p667
(dp668
g422
F0.0
sS'CONJ'
p669
F2.1e-05
sS'ADP'
p670
F0.999979
s(lp671
g80
atp672
a(S'los'
p673
(dp674
S'PRON'
p675
F0.0
sS'DET'
p676
F1.0
s(lp677
tp678
a(S'derechos'
p679
(dp680
S'NOUN'
p681
F1.0
s(lp682
g119
atp683
a(S'humanos'
p684
(dp685
S'NOUN'
p686
F0.11167
sS'ADJ'
p687
F0.88833
s(lp688
g88
atp689
a(g138
(dp690
g138
F1.0
s(lp691
g138
atp692
as.