(dp0
S'fr'
p1
(lp2
(S'la'
p3
(dp4
S'PRON'
p5
F8.2e-05
sS'DET'
p6
F0.999918
sS'NOUN'
p7
F0.0
s(lp8
S'the'
p9
atp10
a(S'commission'
p11
(dp12
S'NOUN'
p13
F1.0
s(lp14
S'commission'
p15
atp16
a(S'promeut'
p17
(dp18
S'VERB'
p19
F1.0
s(lp20
S'promotes'
p21
atp22
a(S'\xc3\xa9galement'
p23
(dp24
S'ADV'
p25
F1.0
s(lp26
S'also'
p27
atp28
a(S'la'
p29
(dp30
S'PRON'
p31
F2.3e-05
sS'DET'
p32
F0.999977
sS'NOUN'
p33
F0.0
s(lp34
tp35
a(S'connaissance'
p36
(dp37
S'NOUN'
p38
F1.0
s(lp39
S'knowledge'
p40
atp41
a(S'des'
p42
(dp43
S'DET'
p44
F2.2e-05
sS'ADP'
p45
F0.999978
s(lp46
S'of'
p47
atp48
a(S'droits'
p49
(dp50
S'ADJ'
p51
F0.011772
sS'NOUN'
p52
F0.988228
s(lp53
S'rights'
p54
atp55
a(S'\xc3\xa0'
p56
(dp57
S'ADP'
p58
F1.0
s(lp59
tp60
a(S'travers'
p61
(dp62
S'NOUN'
p63
F1.0
s(lp64
S'through'
p65
atp66
a(S'ses'
p67
(dp68
S'PRON'
p69
F1.0
s(lp70
S'its'
p71
atp72
a(S'initiatives'
p73
(dp74
S'NOUN'
p75
F1.0
s(lp76
S'initiatives'
p77
atp78
a(S"d'"
p79
(dp80
S'NOUN'
p81
F0.032441
sS'VERB'
p82
F0.694014
sS'ADJ'
p83
F0.273544
s(lp84
tp85
a(S'information'
p86
(dp87
S'NOUN'
p88
F1.0
s(lp89
S'education'
p90
atp91
a(S'des'
p92
(dp93
S'DET'
p94
F2.1e-05
sS'ADP'
p95
F0.999979
s(lp96
tp97
a(S'consommateurs'
p98
(dp99
S'NOUN'
p100
F1.0
s(lp101
S'consumer'
p102
atp103
a(S'telles'
p104
(dp105
S'PRON'
p106
F0.992512
sS'NOUN'
p107
F0.007488
s(lp108
S'such'
p109
atp110
a(S'que'
p111
(dp112
S'ADV'
p113
F0.008737
sS'PRON'
p114
F0.961335
sS'CONJ'
p115
F0.029928
s(lp116
S'as'
p117
atp118
a(S'l'
p119
(dp120
S'ADJ'
p121
F0.00983
sS'VERB'
p122
F0.968403
sS'NOUN'
p123
F0.021768
s(lp124
S'the'
p125
atp126
a(S"'"
p127
(dp128
S'.'
p129
F1.0
s(lp130
tp131
a(S'"'
p132
(dp133
g129
F1.0
s(lp134
g127
atp135
a(S'agenda'
p136
(dp137
S'NOUN'
p138
F1.0
s(lp139
tp140
a(S'europa'
p141
(dp142
S'VERB'
p143
F0.9879930000000001
sS'NOUN'
p144
F0.012007
s(lp145
S'diary'
p146
atp147
a(g132
(dp148
g129
F1.0
s(lp149
g127
atp150
a(S','
p151
(dp152
g129
F1.0
s(lp153
tp154
a(S'qui'
p155
(dp156
S'PRON'
p157
F1.0
s(lp158
S'that'
p159
atp160
a(S'cible'
p161
(dp162
S'VERB'
p163
F0.988705
sS'NOUN'
p164
F0.011295
s(lp165
S'targets'
p166
atp167
a(S'les'
p168
(dp169
S'PRON'
p170
F0.000129
sS'DET'
p171
F0.999835
sS'ADP'
p172
F3.6e-05
s(lp173
tp174
a(S'\xc3\xa9tudiants'
p175
(dp176
S'ADJ'
p177
F0.014563
sS'NOUN'
p178
F0.985437
s(lp179
S'students'
p180
atp181
a(S'\xc3\xa2g\xc3\xa9s'
p182
(dp183
S'ADJ'
p184
F1.0
s(lp185
S'aged'
p186
atp187
a(S'de'
p188
(dp189
S'ADP'
p190
F1.0
s(lp191
tp192
a(S'15'
p193
(dp194
S'X'
p195
F0.001233
sS'NUM'
p196
F0.998767
s(lp197
S'15'
p198
atp199
a(S'\xc3\xa0'
p200
(dp201
S'ADP'
p202
F1.0
s(lp203
S'and'
p204
atp205
a(S'18'
p206
(dp207
g195
F1.5e-05
sS'NUM'
p208
F0.999985
s(lp209
S'18'
p210
atp211
a(S'ans'
p212
(dp213
S'NOUN'
p214
F1.0
s(lp215
g186
atp216
a(g151
(dp217
g129
F1.0
s(lp218
tp219
a(S'et'
p220
(dp221
S'CONJ'
p222
F1.0
s(lp223
S'and'
p224
atp225
a(S'dolceta'
p226
(dp227
S'VERB'
p228
F0.9595980000000001
sS'NOUN'
p229
F0.040403
s(lp230
S'dolceta'
p231
atp232
a(g151
(dp233
g129
F1.0
s(lp234
S'-'
p235
atp236
a(S'un'
p237
(dp238
S'NOUN'
p239
F6e-05
sS'NUM'
p240
F0.025531
sS'DET'
p241
F0.974409
s(lp242
S'a'
p243
atp244
a(S'site'
p245
(dp246
S'NOUN'
p247
F1.0
s(lp248
tp249
a(S'internet'
p250
(dp251
S'NOUN'
p252
F0.461451
sS'VERB'
p253
F0.0028539999999999998
sS'ADJ'
p254
F0.535695
s(lp255
S'website'
p256
atp257
a(S'qui'
p258
(dp259
S'PRON'
p260
F1.0
s(lp261
S'targeting'
p262
atp263
a(S"s'"
p264
(dp265
S'ADJ'
p266
F0.006544
sS'VERB'
p267
F0.9727179999999999
sS'NOUN'
p268
F0.020738
s(lp269
tp270
a(S'adresse'
p271
(dp272
S'VERB'
p273
F0.063125
sS'NOUN'
p274
F0.936876
s(lp275
g262
atp276
a(S'aux'
p277
(dp278
S'ADP'
p279
F1.0
s(lp280
tp281
a(S'adultes'
p282
(dp283
S'ADJ'
p284
F0.444425
sS'NOUN'
p285
F0.555575
s(lp286
S'adults'
p287
atp288
a(S'et'
p289
(dp290
S'CONJ'
p291
F1.0
s(lp292
S'and'
p293
atp294
a(S'aux'
p295
(dp296
S'ADP'
p297
F1.0
s(lp298
tp299
a(S'enseignants'
p300
(dp301
S'ADJ'
p302
F0.386815
sS'NOUN'
p303
F0.613185
s(lp304
S'teachers'
p305
atp306
a(g129
(dp307
g129
F1.0
s(lp308
g129
atp309
asS'en'
p310
(lp311
(g9
(dp312
S'NOUN'
p313
F5e-06
sS'DET'
p314
F0.999995
s(lp315
g9
atp316
a(g15
(dp317
S'VERB'
p318
F0.00017099999999999998
sS'NOUN'
p319
F0.999829
s(lp320
g15
atp321
a(g27
(dp322
S'ADV'
p323
F1.0
s(lp324
g27
atp325
a(g21
(dp326
S'VERB'
p327
F1.0
s(lp328
g21
atp329
a(g40
(dp330
S'NOUN'
p331
F1.0
s(lp332
g40
atp333
a(g47
(dp334
S'ADP'
p335
F1.0
s(lp336
g47
atp337
a(g54
(dp338
S'VERB'
p339
F1e-05
sS'NOUN'
p340
F0.99999
s(lp341
g54
atp342
a(g65
(dp343
S'ADV'
p344
F0.001299
sS'PRT'
p345
F0.001716
sS'ADJ'
p346
F2e-06
sS'ADP'
p347
F0.996984
s(lp348
g65
atp349
a(g71
(dp350
S'PRON'
p351
F1.0
s(lp352
g71
atp353
a(g102
(dp354
S'NOUN'
p355
F1.0
s(lp356
g102
atp357
a(g90
(dp358
S'NOUN'
p359
F1.0
s(lp360
g90
atp361
a(g77
(dp362
S'VERB'
p363
F0.173289
sS'NOUN'
p364
F0.826711
s(lp365
g77
atp366
a(g109
(dp367
S'ADV'
p368
F0.001944
sS'DET'
p369
F0.000571
sS'ADJ'
p370
F0.996424
sS'ADP'
p371
F0.001061
s(lp372
g109
atp373
a(g117
(dp374
S'ADV'
p375
F0.013092
sS'ADP'
p376
F0.986908
s(lp377
g117
atp378
a(g125
(dp379
S'NOUN'
p380
F0.438229
sS'DET'
p381
F0.561771
s(lp382
g125
atp383
a(g127
(dp384
S'PRT'
p385
F0.439536
sg129
F0.560464
s(lp386
g127
atp387
a(S'europe'
p388
(dp389
S'ADV'
p390
F0.000225
sS'ADJ'
p391
F0.087613
sS'VERB'
p392
F8.7e-05
sS'NOUN'
p393
F0.912075
s(lp394
g388
atp395
a(g146
(dp396
S'NOUN'
p397
F1.0
s(lp398
g146
atp399
a(g127
(dp400
S'PRT'
p401
F0.041582
sg129
F0.958418
s(lp402
g127
atp403
a(g159
(dp404
S'ADV'
p405
F0.000231
sS'DET'
p406
F0.781366
sS'ADP'
p407
F0.218403
s(lp408
g159
atp409
a(g166
(dp410
S'VERB'
p411
F0.468511
sS'NOUN'
p412
F0.531489
s(lp413
g166
atp414
a(g180
(dp415
S'NOUN'
p416
F1.0
s(lp417
g180
atp418
a(g186
(dp419
S'ADJ'
p420
F0.001219
sS'VERB'
p421
F0.997124
sS'NOUN'
p422
F0.001657
s(lp423
g186
atp424
a(S'between'
p425
(dp426
S'ADV'
p427
F0.001499
sS'ADP'
p428
F0.998501
s(lp429
g425
atp430
a(g198
(dp431
S'ADV'
p432
F2.7e-05
sS'ADJ'
p433
F0.001621
sS'NUM'
p434
F0.995301
sS'NOUN'
p435
F0.003051
sg195
F0.0
s(lp436
g198
atp437
a(g204
(dp438
S'CONJ'
p439
F0.99984
sS'NOUN'
p440
F0.00016
s(lp441
g204
atp442
a(g210
(dp443
S'ADV'
p444
F0.000127
sS'ADJ'
p445
F0.00421
sS'NUM'
p446
F0.991251
sS'NOUN'
p447
F0.004403
sg195
F9e-06
s(lp448
g210
atp449
a(g224
(dp450
S'CONJ'
p451
F0.999836
sS'NOUN'
p452
F0.000164
s(lp453
g224
atp454
a(g231
(dp455
S'ADJ'
p456
F0.002901
sS'VERB'
p457
F0.002469
sS'NOUN'
p458
F0.9946300000000001
s(lp459
g231
atp460
a(g235
(dp461
g129
F1.0
s(lp462
g235
atp463
a(g243
(dp464
S'NOUN'
p465
F0.0
sS'DET'
p466
F1.0
s(lp467
g243
atp468
a(g256
(dp469
S'NOUN'
p470
F1.0
s(lp471
g256
atp472
a(g262
(dp473
S'VERB'
p474
F1.0
s(lp475
g262
atp476
a(g287
(dp477
S'NOUN'
p478
F1.0
s(lp479
g287
atp480
a(g293
(dp481
S'CONJ'
p482
F0.999998
sS'NOUN'
p483
F2e-06
s(lp484
g293
atp485
a(g305
(dp486
S'NOUN'
p487
F1.0
s(lp488
g305
atp489
a(g129
(dp490
g129
F1.0
s(lp491
g129
atp492
asS'nl'
p493
(lp494
(S'de'
p495
(dp496
S'DET'
p497
F1.0
s(lp498
g9
atp499
a(S'commissie'
p500
(dp501
S'NOUN'
p502
F1.0
s(lp503
g15
atp504
a(S'bevordert'
p505
(dp506
S'VERB'
p507
F1.0
s(lp508
g21
atp509
a(S'de'
p510
(dp511
S'DET'
p512
F1.0
s(lp513
tp514
a(S'kennis'
p515
(dp516
S'NOUN'
p517
F1.0
s(lp518
g40
atp519
a(S'van'
p520
(dp521
S'ADP'
p522
F1.0
s(lp523
g47
atp524
a(S'de'
p525
(dp526
S'DET'
p527
F1.0
s(lp528
g54
atp529
a(S'consumentenrechten'
p530
(dp531
S'NOUN'
p532
F1.0
s(lp533
g102
atp534
a(S'ook'
p535
(dp536
S'ADV'
p537
F1.0
s(lp538
g27
atp539
a(S'middels'
p540
(dp541
S'NOUN'
p542
F0.001936
sS'ADP'
p543
F0.998064
s(lp544
g65
atp545
a(S'haar'
p546
(dp547
S'ADV'
p548
F1e-06
sS'PRON'
p549
F0.9999990000000001
sS'NOUN'
p550
F0.0
s(lp551
g71
atp552
a(S'initiatieven'
p553
(dp554
S'NOUN'
p555
F1.0
s(lp556
g77
atp557
a(S'voor'
p558
(dp559
S'ADV'
p560
F0.001191
sS'CONJ'
p561
F3e-06
sS'NOUN'
p562
F0.0
sS'ADP'
p563
F0.998806
s(lp564
g109
atp565
a(S'consumenteneducatie'
p566
(dp567
S'NOUN'
p568
F1.0
s(lp569
g90
atp570
a(S'zoals'
p571
(dp572
S'CONJ'
p573
F1.0
s(lp574
g117
atp575
a(S'het'
p576
(dp577
S'PRON'
p578
F0.541581
sS'DET'
p579
F0.458419
s(lp580
g125
atp581
a(g127
(dp582
g129
F1.0
s(lp583
g127
atp584
a(S'europees'
p585
(dp586
S'NOUN'
p587
F0.020346
sS'ADJ'
p588
F0.979654
s(lp589
g388
atp590
a(S'dagboek'
p591
(dp592
S'NOUN'
p593
F1.0
s(lp594
g146
atp595
a(g127
(dp596
g129
F1.0
s(lp597
g127
atp598
a(S'dat'
p599
(dp600
S'PRON'
p601
F0.376186
sS'CONJ'
p602
F0.623813
s(lp603
g159
atp604
a(S'bedoeld'
p605
(dp606
S'VERB'
p607
F1.0
s(lp608
g231
atp609
a(S'is'
p610
(dp611
S'VERB'
p612
F1.0
s(lp613
g231
atp614
a(S'voor'
p615
(dp616
S'ADV'
p617
F0.022359
sS'CONJ'
p618
F1.6e-05
sS'NOUN'
p619
F0.0
sS'ADP'
p620
F0.977625
s(lp621
g166
atp622
a(S'scholieren'
p623
(dp624
S'NOUN'
p625
F1.0
s(lp626
g231
atp627
a(S'tussen'
p628
(dp629
S'ADP'
p630
F1.0
s(lp631
g425
atp632
a(S'de'
p633
(dp634
S'DET'
p635
F1.0
s(lp636
g180
atp637
a(S'15'
p638
(dp639
S'NUM'
p640
F1.0
s(lp641
g198
atp642
a(S'en'
p643
(dp644
S'CONJ'
p645
F1.0
s(lp646
g204
atp647
a(S'18'
p648
(dp649
S'NUM'
p650
F1.0
s(lp651
g210
atp652
a(S'jaar'
p653
(dp654
S'NOUN'
p655
F1.0
s(lp656
g186
atp657
a(S'en'
p658
(dp659
S'CONJ'
p660
F1.0
s(lp661
g224
atp662
a(S'via'
p663
(dp664
S'ADP'
p665
F1.0
s(lp666
tp667
a(S'dolceta'
p668
(dp669
S'ADJ'
p670
F0.023358
sS'NOUN'
p671
F0.976642
s(lp672
g231
atp673
a(g151
(dp674
g129
F1.0
s(lp675
g235
atp676
a(S'een'
p677
(dp678
S'ADJ'
p679
F3e-06
sS'PRON'
p680
F0.000348
sS'NUM'
p681
F1e-06
sS'DET'
p682
F0.999649
s(lp683
g243
atp684
a(S'website'
p685
(dp686
S'ADJ'
p687
F0.12952
sS'NOUN'
p688
F0.87048
s(lp689
g256
atp690
a(S'gericht'
p691
(dp692
S'NOUN'
p693
F0.000213
sS'VERB'
p694
F0.997918
sS'ADJ'
p695
F0.001869
s(lp696
tp697
a(S'op'
p698
(dp699
S'ADV'
p700
F0.000219
sS'ADJ'
p701
F1.1e-05
sS'ADP'
p702
F0.99977
s(lp703
g262
atp704
a(S'volwassenen'
p705
(dp706
S'ADJ'
p707
F0.008109
sS'NOUN'
p708
F0.991891
s(lp709
g287
atp710
a(S'en'
p711
(dp712
S'CONJ'
p713
F1.0
s(lp714
g293
atp715
a(S'docenten'
p716
(dp717
S'NOUN'
p718
F1.0
s(lp719
g305
atp720
a(g129
(dp721
g129
F1.0
s(lp722
g129
atp723
asS'de'
p724
(lp725
(S'die'
p726
(dp727
S'PRON'
p728
F0.003951
sS'DET'
p729
F0.995033
s(lp730
g9
atp731
a(S'kommission'
p732
(dp733
S'ADJ'
p734
F0.024218
sS'NOUN'
p735
F0.957026
s(lp736
g15
atp737
a(S'f\xc3\xb6rdert'
p738
(dp739
S'VERB'
p740
F1.0
s(lp741
g21
atp742
a(S'auch'
p743
(dp744
S'ADV'
p745
F1.0
s(lp746
g27
atp747
a(S'das'
p748
(dp749
S'PRON'
p750
F0.990517
sS'DET'
p751
F0.00946
s(lp752
tp753
a(S'wissen'
p754
(dp755
S'VERB'
p756
F1.0
s(lp757
g40
atp758
a(S'\xc3\xbcber'
p759
(dp760
S'PRT'
p761
F0.010738
sS'ADP'
p762
F0.989262
s(lp763
g47
atp764
a(S'rechte'
p765
(dp766
S'VERB'
p767
F0.010963
sS'ADJ'
p768
F0.989037
s(lp769
g54
atp770
a(S'durch'
p771
(dp772
S'ADV'
p773
F5.1e-05
sS'ADP'
p774
F0.999927
s(lp775
g65
atp776
a(S'ihre'
p777
(dp778
S'PRON'
p779
F1.0
s(lp780
g71
atp781
a(S'verbraucherschulungsinitiativen'
p782
(dp783
S'ADJ'
p784
F0.309497
sS'NOUN'
p785
F0.690475
s(lp786
g231
atp787
a(g151
(dp788
g129
F1.0
s(lp789
tp790
a(S'wie'
p791
(dp792
S'CONJ'
p793
F0.99955
s(lp794
g117
atp795
a(S'das'
p796
(dp797
S'PRON'
p798
F0.345632
sS'DET'
p799
F0.653891
s(lp800
g125
atp801
a(g132
(dp802
g129
F1.0
s(lp803
g127
atp804
a(S'europatagebuch'
p805
(dp806
S'ADJ'
p807
F0.937883
s(lp808
g231
atp809
a(S'\xe2\x80\x9f'
p810
(dp811
S'ADJ'
p812
F0.132178
sS'NOUN'
p813
F0.831698
s(lp814
g231
atp815
a(g151
(dp816
g129
F1.0
s(lp817
g159
atp818
a(S'deren'
p819
(dp820
S'PRON'
p821
F0.9952340000000001
s(lp822
g231
atp823
a(S'zielgruppe'
p824
(dp825
S'ADJ'
p826
F0.245055
sS'NOUN'
p827
F0.750143
s(lp828
tp829
a(S'sch\xc3\xbcler'
p830
(dp831
S'NOUN'
p832
F0.980486
s(lp833
g180
atp834
a(S'im'
p835
(dp836
S'ADP'
p837
F1.0
s(lp838
g186
atp839
a(S'alter'
p840
(dp841
S'ADJ'
p842
F1.0
s(lp843
tp844
a(S'von'
p845
(dp846
S'NOUN'
p847
F0.008153
sS'ADP'
p848
F0.991847
s(lp849
g425
atp850
a(S'15'
p851
(dp852
S'NUM'
p853
F1.0
s(lp854
g198
atp855
a(S'bis'
p856
(dp857
S'CONJ'
p858
F0.138275
sS'ADP'
p859
F0.861721
s(lp860
g204
atp861
a(S'18'
p862
(dp863
S'NUM'
p864
F1.0
s(lp865
g210
atp866
a(S'jahren'
p867
(dp868
S'VERB'
p869
F0.031527
sS'NOUN'
p870
F0.961222
s(lp871
g186
atp872
a(S'sind'
p873
(dp874
S'VERB'
p875
F1.0
s(lp876
tp877
a(g151
(dp878
g129
F1.0
s(lp879
tp880
a(S'und'
p881
(dp882
S'CONJ'
p883
F1.0
s(lp884
g224
atp885
a(S'dolceta'
p886
(dp887
S'VERB'
p888
F0.024318
sS'NOUN'
p889
F0.972014
s(lp890
g231
atp891
a(g151
(dp892
g129
F1.0
s(lp893
g235
atp894
a(S'eine'
p895
(dp896
S'PRON'
p897
F0.000456
sS'DET'
p898
F0.999293
s(lp899
g243
atp900
a(S'website'
p901
(dp902
S'ADJ'
p903
F0.006525
sS'NOUN'
p904
F0.99329
s(lp905
g256
atp906
a(S'mit'
p907
(dp908
S'PRT'
p909
F0.000336
sS'ADP'
p910
F0.999664
s(lp911
tp912
a(S'der'
p913
(dp914
S'PRON'
p915
F0.000108
sS'DET'
p916
F0.999865
s(lp917
tp918
a(S'zielgruppe'
p919
(dp920
S'NOUN'
p921
F0.315146
sS'ADJ'
p922
F0.652781
s(lp923
g262
atp924
a(S'erwachsene'
p925
(dp926
S'ADJ'
p927
F1.0
s(lp928
g287
atp929
a(S'und'
p930
(dp931
S'CONJ'
p932
F1.0
s(lp933
g293
atp934
a(S'lehrer'
p935
(dp936
S'NOUN'
p937
F0.358119
sS'ADJ'
p938
F0.38342
s(lp939
g305
atp940
a(g129
(dp941
g129
F1.0
s(lp942
g129
atp943
asS'it'
p944
(lp945
(S'la'
p946
(dp947
S'PRON'
p948
F0.000408
sS'DET'
p949
F0.999592
s(lp950
g9
atp951
a(S'commissione'
p952
(dp953
S'NOUN'
p954
F1.0
s(lp955
g15
atp956
a(S'promuove'
p957
(dp958
S'VERB'
p959
F1.0
s(lp960
g21
atp961
a(S'la'
p962
(dp963
S'PRON'
p964
F0.0
sS'DET'
p965
F1.0
s(lp966
tp967
a(S'conoscenza'
p968
(dp969
S'NOUN'
p970
F1.0
s(lp971
g40
atp972
a(S'dei'
p973
(dp974
S'NOUN'
p975
F2e-06
sS'DEF'
p976
F0.001186
sS'ADP'
p977
F0.998812
s(lp978
tp979
a(S'diritti'
p980
(dp981
S'ADJ'
p982
F0.015549
sS'NOUN'
p983
F0.984451
s(lp984
g54
atp985
a(S'anche'
p986
(dp987
S'ADV'
p988
F0.999907
sS'NOUN'
p989
F9.3e-05
s(lp990
g27
atp991
a(S'attraverso'
p992
(dp993
S'ADV'
p994
F0.62405
sS'VERB'
p995
F0.030849
sS'ADP'
p996
F0.345102
s(lp997
g65
atp998
a(S'le'
p999
(dp1000
S'PRON'
p1001
F6.5e-05
sS'DET'
p1002
F0.999935
s(lp1003
g71
atp1004
a(S'iniziative'
p1005
(dp1006
S'NOUN'
p1007
F1.0
s(lp1008
g77
atp1009
a(S'di'
p1010
(dp1011
S'CONJ'
p1012
F4e-06
sS'ADP'
p1013
F0.999996
s(lp1014
tp1015
a(S'sensibilizzazione'
p1016
(dp1017
S'NOUN'
p1018
F1.0
s(lp1019
g90
atp1020
a(S'del'
p1021
(dp1022
S'DEF'
p1023
F0.00152
sS'ADP'
p1024
F0.99848
s(lp1025
tp1026
a(S'consumatore'
p1027
(dp1028
S'ADJ'
p1029
F0.182284
sS'NOUN'
p1030
F0.817716
s(lp1031
g102
atp1032
a(g151
(dp1033
g129
F1.0
s(lp1034
tp1035
a(S'come'
p1036
(dp1037
S'PRON'
p1038
F0.008829
sS'CONJ'
p1039
F0.969896
sS'NOUN'
p1040
F0.00083
sS'ADP'
p1041
F0.020446
s(lp1042
g117
atp1043
a(S'ad'
p1044
(dp1045
S'ADP'
p1046
F1.0
s(lp1047
tp1048
a(S'esempio'
p1049
(dp1050
S'NOUN'
p1051
F1.0
s(lp1052
g109
atp1053
a(S'il'
p1054
(dp1055
S'DET'
p1056
F1.0
s(lp1057
g125
atp1058
a(g132
(dp1059
g129
F1.0
s(lp1060
g127
atp1061
a(S'diario'
p1062
(dp1063
S'NOUN'
p1064
F1.0
s(lp1065
g146
atp1066
a(S'europa'
p1067
(dp1068
S'NOUN'
p1069
F0.001868
sS'VERB'
p1070
F0.001112
sS'ADJ'
p1071
F0.997019
s(lp1072
g388
atp1073
a(S'\xe2\x80\x9d'
p1074
(dp1075
S'ADJ'
p1076
F0.000916
sS'NOUN'
p1077
F0.999084
s(lp1078
g127
atp1079
a(g151
(dp1080
g129
F1.0
s(lp1081
g159
atp1082
a(S'destinato'
p1083
(dp1084
S'VERB'
p1085
F1.0
s(lp1086
g231
atp1087
a(S'agli'
p1088
(dp1089
S'NOUN'
p1090
F1e-05
sS'ADP'
p1091
F0.99999
s(lp1092
g231
atp1093
a(S'studenti'
p1094
(dp1095
S'NOUN'
p1096
F1.0
s(lp1097
g180
atp1098
a(S'di'
p1099
(dp1100
S'CONJ'
p1101
F4e-06
sS'ADP'
p1102
F0.999996
s(lp1103
g186
atp1104
a(S'et\xc3\xa0'
p1105
(dp1106
S'NOUN'
p1107
F1.0
s(lp1108
g186
atp1109
a(S'compresa'
p1110
(dp1111
S'VERB'
p1112
F0.933991
sS'ADJ'
p1113
F0.066009
s(lp1114
g186
atp1115
a(S'fra'
p1116
(dp1117
S'CONJ'
p1118
F0.001939
sS'ADP'
p1119
F0.998061
s(lp1120
g425
atp1121
a(S'i'
p1122
(dp1123
S'DET'
p1124
F1.0
s(lp1125
g186
atp1126
a(S'15'
p1127
(dp1128
S'NUM'
p1129
F0.993984
sg129
F0.006016
s(lp1130
g198
atp1131
a(S'e'
p1132
(dp1133
S'CONJ'
p1134
F1.0
s(lp1135
g204
atp1136
a(g1122
(dp1137
S'DET'
p1138
F1.0
s(lp1139
tp1140
a(S'18'
p1141
(dp1142
S'NUM'
p1143
F0.999494
sg129
F0.000506
s(lp1144
g210
atp1145
a(S'anni'
p1146
(dp1147
S'NOUN'
p1148
F1.0
s(lp1149
g186
atp1150
a(g1132
(dp1151
S'CONJ'
p1152
F1.0
s(lp1153
g224
atp1154
a(g132
(dp1155
g129
F1.0
s(lp1156
g231
atp1157
a(S'dolceta'
p1158
(dp1159
S'NOUN'
p1160
F0.086769
sS'ADJ'
p1161
F0.913231
s(lp1162
tp1163
a(S'\xe2\x80\x9d'
p1164
(dp1165
S'ADJ'
p1166
F0.00457
sS'NOUN'
p1167
F0.99543
s(lp1168
g231
atp1169
a(g151
(dp1170
g129
F1.0
s(lp1171
g235
atp1172
a(S'un'
p1173
(dp1174
S'PRON'
p1175
F0.002401
sS'DEF'
p1176
F0.997599
s(lp1177
g243
atp1178
a(S'sito'
p1179
(dp1180
S'NOUN'
p1181
F0.061811
sS'ADJ'
p1182
F0.938189
s(lp1183
g256
atp1184
a(S'internet'
p1185
(dp1186
S'NOUN'
p1187
F1.0
s(lp1188
tp1189
a(S'dedicato'
p1190
(dp1191
S'VERB'
p1192
F1.0
s(lp1193
g256
atp1194
a(S'agli'
p1195
(dp1196
S'NOUN'
p1197
F0.000191
sS'ADP'
p1198
F0.999809
s(lp1199
tp1200
a(S'adulti'
p1201
(dp1202
S'ADJ'
p1203
F0.280106
sS'NOUN'
p1204
F0.719894
s(lp1205
g287
atp1206
a(g1132
(dp1207
S'CONJ'
p1208
F1.0
s(lp1209
g293
atp1210
a(S'agli'
p1211
(dp1212
S'NOUN'
p1213
F0.000585
sS'ADP'
p1214
F0.999415
s(lp1215
tp1216
a(S'insegnanti'
p1217
(dp1218
S'ADJ'
p1219
F0.324348
sS'VERB'
p1220
F0.000741
sS'NOUN'
p1221
F0.674911
s(lp1222
g305
atp1223
a(g129
(dp1224
g129
F1.0
s(lp1225
g129
atp1226
asS'sk'
p1227
(lp1228
(S'komisia'
p1229
(dp1230
S'NOUN'
p1231
F1.0
s(lp1232
g15
atp1233
a(S'podporuje'
p1234
(dp1235
S'VERB'
p1236
F1.0
s(lp1237
g21
atp1238
a(S'aj'
p1239
(dp1240
g195
F0.917017
sS'CONJ'
p1241
F0.082983
s(lp1242
g27
atp1243
a(S'povedomie'
p1244
(dp1245
S'NOUN'
p1246
F1.0
s(lp1247
g40
atp1248
a(S'o'
p1249
(dp1250
g195
F0.000893
sS'CONJ'
p1251
F6.3e-05
sS'NOUN'
p1252
F2.7e-05
sS'ADP'
p1253
F0.999018
s(lp1254
g47
atp1255
a(S'pr\xc3\xa1vach'
p1256
(dp1257
S'NOUN'
p1258
F1.0
s(lp1259
g54
atp1260
a(S'prostredn\xc3\xadctvom'
p1261
(dp1262
S'NOUN'
p1263
F0.001408
sS'ADP'
p1264
F0.998592
s(lp1265
g65
atp1266
a(S'iniciat\xc3\xadv'
p1267
(dp1268
S'NOUN'
p1269
F1.0
s(lp1270
g77
atp1271
a(S'na'
p1272
(dp1273
g195
F2.2e-05
sS'CONJ'
p1274
F1.8e-05
sS'ADP'
p1275
F0.999956
sS'PRT'
p1276
F4e-06
s(lp1277
g125
atp1278
a(S'vzdel\xc3\xa1vanie'
p1279
(dp1280
S'NOUN'
p1281
F1.0
s(lp1282
g90
atp1283
a(S'spotrebite\xc4\xbeov'
p1284
(dp1285
S'NOUN'
p1286
F1.0
s(lp1287
g102
atp1288
a(g151
(dp1289
g129
F1.0
s(lp1290
tp1291
a(S'ak\xc3\xbdmi'
p1292
(dp1293
S'PRON'
p1294
F1.0
s(lp1295
g109
atp1296
a(S'je'
p1297
(dp1298
S'PRON'
p1299
F2.2e-05
sS'VERB'
p1300
F0.999976
sg195
F1e-06
s(lp1301
tp1302
a(S'napr\xc3\xadklad'
p1303
(dp1304
g195
F1.0
s(lp1305
g109
atp1306
a(S'bro\xc5\xbe\xc3\xbara'
p1307
(dp1308
S'NOUN'
p1309
F1.0
s(lp1310
g146
atp1311
a(g132
(dp1312
g129
F1.0
s(lp1313
g127
atp1314
a(S'eur\xc3\xb3psky'
p1315
(dp1316
S'ADJ'
p1317
F1.0
s(lp1318
g146
atp1319
a(S'di\xc3\xa1r'
p1320
(dp1321
S'NOUN'
p1322
F1.0
s(lp1323
tp1324
a(g132
(dp1325
g129
F1.0
s(lp1326
g127
atp1327
a(S'zameran\xc3\xa1'
p1328
(dp1329
S'VERB'
p1330
F1.0
s(lp1331
g146
atp1332
a(S'na'
p1333
(dp1334
g195
F9.300000000000001e-05
sS'CONJ'
p1335
F1.9e-05
sS'ADP'
p1336
F0.999883
sS'PRT'
p1337
F6e-06
s(lp1338
g166
atp1339
a(S'\xc5\xa1tudentov'
p1340
(dp1341
S'NOUN'
p1342
F1.0
s(lp1343
g180
atp1344
a(S'od'
p1345
(dp1346
g195
F0.00014199999999999998
sS'ADP'
p1347
F0.999859
s(lp1348
g425
atp1349
a(S'15'
p1350
(dp1351
S'NUM'
p1352
F1.0
s(lp1353
g198
atp1354
a(S'do'
p1355
(dp1356
g195
F0.0028459999999999996
sS'ADP'
p1357
F0.997153
sS'PRON'
p1358
F1e-06
s(lp1359
g204
atp1360
a(S'18'
p1361
(dp1362
S'NUM'
p1363
F1.0
s(lp1364
tp1365
a(S'rokov'
p1366
(dp1367
S'NOUN'
p1368
F1.0
s(lp1369
g210
atp1370
a(g151
(dp1371
g129
F1.0
s(lp1372
tp1373
a(g243
(dp1374
g195
F0.000374
sS'CONJ'
p1375
F0.999577
sS'NOUN'
p1376
F8e-06
sS'ADP'
p1377
F3.9e-05
sS'PRT'
p1378
F2e-06
s(lp1379
g224
atp1380
a(S'dolceta'
p1381
(dp1382
S'VERB'
p1383
F0.024323999999999995
sS'NOUN'
p1384
F0.975676
s(lp1385
g231
atp1386
a(g235
(dp1387
g129
F1.0
s(lp1388
g235
atp1389
a(S'internetov\xc3\xa1'
p1390
(dp1391
S'ADJ'
p1392
F1.0
s(lp1393
tp1394
a(S'str\xc3\xa1nka'
p1395
(dp1396
S'NOUN'
p1397
F1.0
s(lp1398
g256
atp1399
a(S'zameran\xc3\xa1'
p1400
(dp1401
S'VERB'
p1402
F1.0
s(lp1403
tp1404
a(S'na'
p1405
(dp1406
g195
F7.999999999999999e-05
sS'CONJ'
p1407
F1.8e-05
sS'ADP'
p1408
F0.999896
sS'PRT'
p1409
F6e-06
s(lp1410
g262
atp1411
a(S'dospel\xc3\xbdch'
p1412
(dp1413
S'ADJ'
p1414
F0.29403
sS'NOUN'
p1415
F0.70597
s(lp1416
g287
atp1417
a(g243
(dp1418
g195
F0.000668
sS'CONJ'
p1419
F0.998728
sS'NOUN'
p1420
F0.000198
sS'ADP'
p1421
F0.000358
sS'PRT'
p1422
F4.8e-05
s(lp1423
g293
atp1424
a(S'u\xc4\x8dite\xc4\xbeov'
p1425
(dp1426
S'NOUN'
p1427
F1.0
s(lp1428
g305
atp1429
a(g129
(dp1430
g129
F1.0
s(lp1431
g129
atp1432
asS'pl'
p1433
(lp1434
(S'komisja'
p1435
(dp1436
S'NOUN'
p1437
F1.0
s(lp1438
g15
atp1439
a(S'tak\xc5\xbce'
p1440
(dp1441
S'PRT'
p1442
F0.872597
sS'CONJ'
p1443
F0.127403
s(lp1444
g27
atp1445
a(S'upowszechnia'
p1446
(dp1447
S'VERB'
p1448
F1.0
s(lp1449
g21
atp1450
a(S'wiedz\xc4\x99'
p1451
(dp1452
S'NOUN'
p1453
F1.0
s(lp1454
tp1455
a(S'na'
p1456
(dp1457
g195
F1e-06
sS'VERB'
p1458
F3e-06
sS'NOUN'
p1459
F0.0
sS'ADP'
p1460
F0.999995
sS'PRT'
p1461
F1e-06
s(lp1462
tp1463
a(S'temat'
p1464
(dp1465
S'NOUN'
p1466
F1.0
s(lp1467
g40
atp1468
a(S'tych'
p1469
(dp1470
S'ADJ'
p1471
F0.9999989999999999
s(lp1472
g47
atp1473
a(S'praw'
p1474
(dp1475
S'NOUN'
p1476
F1.0
s(lp1477
g54
atp1478
a(S'poprzez'
p1479
(dp1480
S'ADP'
p1481
F1.0
s(lp1482
g65
atp1483
a(S'inicjatywy'
p1484
(dp1485
S'NOUN'
p1486
F0.999999
s(lp1487
tp1488
a(S'na'
p1489
(dp1490
S'PRT'
p1491
F1e-06
sS'VERB'
p1492
F3e-06
sS'NOUN'
p1493
F0.0
sS'ADP'
p1494
F0.9999939999999999
sg195
F1e-06
s(lp1495
g71
atp1496
a(S'rzecz'
p1497
(dp1498
S'NOUN'
p1499
F1.0
s(lp1500
g77
atp1501
a(S'edukacji'
p1502
(dp1503
S'NOUN'
p1504
F1.0
s(lp1505
g90
atp1506
a(S'konsument\xc3\xb3w'
p1507
(dp1508
S'NOUN'
p1509
F1.0
s(lp1510
g102
atp1511
a(g151
(dp1512
g195
F0.0
sg129
F1.0
s(lp1513
tp1514
a(S'takie'
p1515
(dp1516
S'ADJ'
p1517
F0.9999990000000002
s(lp1518
g109
atp1519
a(S'jak'
p1520
(dp1521
S'ADV'
p1522
F0.670086
sS'PRT'
p1523
F0.00046
sS'CONJ'
p1524
F0.029893
sS'ADP'
p1525
F0.299542
sS'PRON'
p1526
F1.8e-05
s(lp1527
g117
atp1528
a(g132
(dp1529
g129
F1.0
s(lp1530
g127
atp1531
a(S'europe'
p1532
(dp1533
S'ADV'
p1534
F0.002038
sS'NOUN'
p1535
F0.420059
sS'VERB'
p1536
F0.022568000000000005
sS'ADJ'
p1537
F0.5491039999999999
sg195
F0.006231
s(lp1538
g388
atp1539
a(S'diary'
p1540
(dp1541
S'ADJ'
p1542
F0.014019
sS'NOUN'
p1543
F0.980333
sg195
F0.00565
s(lp1544
g146
atp1545
a(S'\xe2\x80\x9d'
p1546
(dp1547
g129
F1.0
s(lp1548
g127
atp1549
a(g151
(dp1550
g195
F2e-06
sg129
F0.999998
s(lp1551
tp1552
a(S'kt\xc3\xb3ra'
p1553
(dp1554
S'ADJ'
p1555
F1.0
s(lp1556
g159
atp1557
a(S'skierowana'
p1558
(dp1559
S'VERB'
p1560
F1.0
s(lp1561
g231
atp1562
a(S'jest'
p1563
(dp1564
S'VERB'
p1565
F1.0
s(lp1566
tp1567
a(S'do'
p1568
(dp1569
g195
F0.0
sS'NOUN'
p1570
F5.4e-05
sS'ADP'
p1571
F0.9999469999999999
s(lp1572
g243
atp1573
a(S'uczni\xc3\xb3w'
p1574
(dp1575
S'NOUN'
p1576
F1.0
s(lp1577
g180
atp1578
a(S'w'
p1579
(dp1580
S'ADJ'
p1581
F0.0
sg195
F0.0
sS'NOUN'
p1582
F1e-06
sS'ADP'
p1583
F0.999999
s(lp1584
tp1585
a(S'wieku'
p1586
(dp1587
S'NOUN'
p1588
F1.0
s(lp1589
g186
atp1590
a(S'15-18'
p1591
(dp1592
S'ADV'
p1593
F1e-06
sS'NOUN'
p1594
F2.9e-05
sS'NUM'
p1595
F0.9356709999999996
sS'ADJ'
p1596
F0.06429900000000004
sg195
F1e-06
s(lp1597
tp1598
a(S'lat'
p1599
(dp1600
S'NOUN'
p1601
F1.0
s(lp1602
g210
atp1603
a(S'oraz'
p1604
(dp1605
S'CONJ'
p1606
F1.0
s(lp1607
g224
atp1608
a(S'dolceta'
p1609
(dp1610
S'ADJ'
p1611
F0.025350999999999995
sS'VERB'
p1612
F0.16480199999999995
sS'NOUN'
p1613
F0.8096749999999998
sg195
F0.000172
s(lp1614
g231
atp1615
a(g235
(dp1616
g195
F0.00013099999999999999
sS'NUM'
p1617
F1e-06
sS'NOUN'
p1618
F8.8e-05
sg129
F0.999781
s(lp1619
g235
atp1620
a(S'strona'
p1621
(dp1622
S'NOUN'
p1623
F1.0
s(lp1624
tp1625
a(S'internetowa'
p1626
(dp1627
S'ADJ'
p1628
F1.0
s(lp1629
g256
atp1630
a(S'dla'
p1631
(dp1632
S'ADP'
p1633
F1.0
s(lp1634
g262
atp1635
a(S'os\xc3\xb3b'
p1636
(dp1637
S'NOUN'
p1638
F1.0
s(lp1639
tp1640
a(S'doros\xc5\x82ych'
p1641
(dp1642
S'NOUN'
p1643
F0.321005
sS'ADJ'
p1644
F0.678995
s(lp1645
g287
atp1646
a(g1122
(dp1647
S'PRT'
p1648
F0.001245
sS'CONJ'
p1649
F0.998608
sS'NOUN'
p1650
F7.2e-05
sg195
F1e-06
sS'PRON'
p1651
F7.500000000000001e-05
s(lp1652
g293
atp1653
a(S'nauczycieli'
p1654
(dp1655
S'NOUN'
p1656
F1.0
s(lp1657
g305
atp1658
a(g129
(dp1659
g129
F1.0
s(lp1660
g129
atp1661
asS'sl'
p1662
(lp1663
(S'komisija'
p1664
(dp1665
S'NOUN'
p1666
F1.0
s(lp1667
g15
atp1668
a(S'spodbuja'
p1669
(dp1670
S'VERB'
p1671
F1.0
s(lp1672
g21
atp1673
a(S'tudi'
p1674
(dp1675
S'PRT'
p1676
F1.0
s(lp1677
g27
atp1678
a(S'poznavanje'
p1679
(dp1680
S'NOUN'
p1681
F1.0
s(lp1682
g40
atp1683
a(S'pravic'
p1684
(dp1685
S'NOUN'
p1686
F1.0
s(lp1687
g54
atp1688
a(S's'
p1689
(dp1690
S'VERB'
p1691
F0.0
sS'NOUN'
p1692
F1e-06
sS'ADP'
p1693
F0.999999
s(lp1694
g65
atp1695
a(S'svojimi'
p1696
(dp1697
S'PRON'
p1698
F1.0
s(lp1699
g71
atp1700
a(S'pobudami'
p1701
(dp1702
S'ADV'
p1703
F0.002304
sS'ADJ'
p1704
F0.000868
sS'VERB'
p1705
F0.031706
sS'NOUN'
p1706
F0.965123
s(lp1707
g77
atp1708
a(S'za'
p1709
(dp1710
S'ADV'
p1711
F2.2e-05
sg195
F3e-06
sS'ADP'
p1712
F0.9999739999999999
s(lp1713
tp1714
a(S'izobra\xc5\xbeevanje'
p1715
(dp1716
S'NOUN'
p1717
F1.0
s(lp1718
g90
atp1719
a(S'potro\xc5\xa1nikov'
p1720
(dp1721
S'NOUN'
p1722
F1.0
s(lp1723
g102
atp1724
a(S'kot'
p1725
(dp1726
S'CONJ'
p1727
F0.999178
sS'NOUN'
p1728
F0.000822
s(lp1729
g117
atp1730
a(S'sta'
p1731
(dp1732
g195
F0.00192
sS'VERB'
p1733
F0.99808
s(lp1734
g109
atp1735
a(g132
(dp1736
g129
F1.0
s(lp1737
g127
atp1738
a(S'evropski'
p1739
(dp1740
S'ADJ'
p1741
F0.9999990000000001
s(lp1742
g388
atp1743
a(S'dnevnik'
p1744
(dp1745
S'NOUN'
p1746
F1.0
s(lp1747
g146
atp1748
a(g132
(dp1749
g129
F1.0
s(lp1750
g127
atp1751
a(g151
(dp1752
g129
F1.0
s(lp1753
tp1754
a(S'ki'
p1755
(dp1756
S'CONJ'
p1757
F1.0
s(lp1758
g159
atp1759
a(S'nagovarja'
p1760
(dp1761
S'VERB'
p1762
F1.0
s(lp1763
g166
atp1764
a(S'v'
p1765
(dp1766
S'ADP'
p1767
F1.0
s(lp1768
tp1769
a(S'\xc5\xa1tudente'
p1770
(dp1771
S'NOUN'
p1772
F1.0
s(lp1773
g180
atp1774
a(g1765
(dp1775
S'ADP'
p1776
F1.0
s(lp1777
tp1778
a(S'starosti'
p1779
(dp1780
S'NOUN'
p1781
F1.0
s(lp1782
g186
atp1783
a(S'med'
p1784
(dp1785
S'NOUN'
p1786
F0.002196
sS'ADP'
p1787
F0.997804
s(lp1788
g425
atp1789
a(S'15'
p1790
(dp1791
S'NUM'
p1792
F1.0
s(lp1793
g198
atp1794
a(S'in'
p1795
(dp1796
S'ADV'
p1797
F0.000167
sg195
F0.00023
sS'CONJ'
p1798
F0.995863
sS'NOUN'
p1799
F0.003741
s(lp1800
g204
atp1801
a(S'18'
p1802
(dp1803
S'NUM'
p1804
F1.0
s(lp1805
tp1806
a(S'let'
p1807
(dp1808
S'NOUN'
p1809
F0.9999999999999999
s(lp1810
g210
atp1811
a(g151
(dp1812
g129
F1.0
s(lp1813
tp1814
a(S'in'
p1815
(dp1816
S'ADV'
p1817
F0.000219
sg195
F1.9e-05
sS'CONJ'
p1818
F0.999723
sS'NOUN'
p1819
F3.9e-05
s(lp1820
g224
atp1821
a(S'dolceta'
p1822
(dp1823
S'ADV'
p1824
F0.001131
sS'ADJ'
p1825
F0.022653
sS'VERB'
p1826
F0.37824399999999997
sS'NOUN'
p1827
F0.5975900000000001
sS'NUM'
p1828
F0.000383
s(lp1829
tp1830
a(g235
(dp1831
g129
F1.0
s(lp1832
g235
atp1833
a(S'spletna'
p1834
(dp1835
S'ADJ'
p1836
F1.0
s(lp1837
tp1838
a(S'stran'
p1839
(dp1840
S'ADV'
p1841
F0.001088
sS'NOUN'
p1842
F0.998911
s(lp1843
g256
atp1844
a(g151
(dp1845
g129
F1.0
s(lp1846
tp1847
a(S'ki'
p1848
(dp1849
S'CONJ'
p1850
F1.0
s(lp1851
g262
atp1852
a(S'nagovarja'
p1853
(dp1854
S'VERB'
p1855
F1.0
s(lp1856
g231
atp1857
a(S'odrasle'
p1858
(dp1859
S'ADJ'
p1860
F0.9999999999999999
s(lp1861
g287
atp1862
a(S'in'
p1863
(dp1864
S'ADV'
p1865
F2.8e-05
sg195
F1.4e-05
sS'CONJ'
p1866
F0.999953
sS'NOUN'
p1867
F5e-06
s(lp1868
g293
atp1869
a(S'u\xc4\x8ditelje'
p1870
(dp1871
S'NOUN'
p1872
F1.0
s(lp1873
g305
atp1874
a(g129
(dp1875
g129
F1.0
s(lp1876
g129
atp1877
asS'es'
p1878
(lp1879
(S'asimismo'
p1880
(dp1881
S'ADV'
p1882
F1.0
s(lp1883
g27
atp1884
a(g151
(dp1885
g129
F1.0
s(lp1886
tp1887
a(S'la'
p1888
(dp1889
S'PRON'
p1890
F3.5e-05
sS'DET'
p1891
F0.999959
sS'NOUN'
p1892
F0.0
sg195
F5e-06
s(lp1893
g9
atp1894
a(S'comisi\xc3\xb3n'
p1895
(dp1896
S'NOUN'
p1897
F1.0
s(lp1898
g15
atp1899
a(S'promueve'
p1900
(dp1901
S'VERB'
p1902
F1.0
s(lp1903
g21
atp1904
a(S'el'
p1905
(dp1906
S'PRON'
p1907
F1e-06
sS'DET'
p1908
F0.999999
s(lp1909
tp1910
a(S'conocimiento'
p1911
(dp1912
S'NOUN'
p1913
F1.0
s(lp1914
g40
atp1915
a(S'de'
p1916
(dp1917
g195
F0.0
sS'CONJ'
p1918
F1.7e-05
sS'ADP'
p1919
F0.999983
s(lp1920
g47
atp1921
a(S'los'
p1922
(dp1923
S'PRON'
p1924
F0.0
sS'DET'
p1925
F1.0
s(lp1926
tp1927
a(S'derechos'
p1928
(dp1929
S'NOUN'
p1930
F1.0
s(lp1931
g54
atp1932
a(g243
(dp1933
S'ADP'
p1934
F1.0
s(lp1935
tp1936
a(S'trav\xc3\xa9s'
p1937
(dp1938
S'ADP'
p1939
F1.0
s(lp1940
g65
atp1941
a(S'de'
p1942
(dp1943
S'ADP'
p1944
F1.0
s(lp1945
g186
atp1946
a(S'sus'
p1947
(dp1948
S'PRON'
p1949
F1.0
s(lp1950
g71
atp1951
a(S'iniciativas'
p1952
(dp1953
S'NOUN'
p1954
F1.0
s(lp1955
tp1956
a(S'de'
p1957
(dp1958
g195
F2.9e-05
sS'CONJ'
p1959
F0.000449
sS'ADP'
p1960
F0.999522
s(lp1961
tp1962
a(S'educaci\xc3\xb3n'
p1963
(dp1964
S'NOUN'
p1965
F1.0
s(lp1966
g90
atp1967
a(S'de'
p1968
(dp1969
g195
F0.0
sS'CONJ'
p1970
F1.7e-05
sS'ADP'
p1971
F0.999983
s(lp1972
tp1973
a(S'los'
p1974
(dp1975
S'PRON'
p1976
F0.0
sS'DET'
p1977
F1.0
s(lp1978
tp1979
a(S'consumidores'
p1980
(dp1981
S'NOUN'
p1982
F1.0
s(lp1983
g102
atp1984
a(g151
(dp1985
g129
F1.0
s(lp1986
g109
atp1987
a(S'como'
p1988
(dp1989
S'ADV'
p1990
F0.078847
sS'CONJ'
p1991
F0.921154
s(lp1992
g117
atp1993
a(S'la'
p1994
(dp1995
S'PRON'
p1996
F0.00013
sS'DET'
p1997
F0.99987
sg195
F0.0
sS'NOUN'
p1998
F0.0
s(lp1999
g125
atp2000
a(S'iniciativa'
p2001
(dp2002
S'NOUN'
p2003
F1.0
s(lp2004
g77
atp2005
a(g132
(dp2006
g129
F1.0
s(lp2007
g127
atp2008
a(S'agenda'
p2009
(dp2010
S'NOUN'
p2011
F1.0
s(lp2012
g146
atp2013
a(S'europa'
p2014
(dp2015
S'NOUN'
p2016
F1.0
s(lp2017
g388
atp2018
a(g132
(dp2019
g129
F1.0
s(lp2020
g127
atp2021
a(g151
(dp2022
g129
F1.0
s(lp2023
g159
atp2024
a(S'dirigida'
p2025
(dp2026
S'VERB'
p2027
F1.0
s(lp2028
g166
atp2029
a(g243
(dp2030
g195
F1.5e-05
sS'CONJ'
p2031
F4e-06
sS'ADP'
p2032
F0.999981
s(lp2033
tp2034
a(S'los'
p2035
(dp2036
S'PRON'
p2037
F0.0
sS'DET'
p2038
F1.0
s(lp2039
tp2040
a(S'estudiantes'
p2041
(dp2042
S'NOUN'
p2043
F1.0
s(lp2044
g180
atp2045
a(S'de'
p2046
(dp2047
g195
F0.001007
sS'CONJ'
p2048
F0.000116
sS'ADP'
p2049
F0.998876
s(lp2050
g425
atp2051
a(S'15'
p2052
(dp2053
g195
F0.077509
sS'NUM'
p2054
F0.922491
s(lp2055
g198
atp2056
a(g243
(dp2057
g195
F0.023788
sS'CONJ'
p2058
F1e-06
sS'ADP'
p2059
F0.976211
s(lp2060
g204
atp2061
a(S'18'
p2062
(dp2063
g195
F0.009072
sS'NUM'
p2064
F0.990928
s(lp2065
g210
atp2066
a(S'a\xc3\xb1os'
p2067
(dp2068
S'NOUN'
p2069
F1.0
s(lp2070
g186
atp2071
a(S'de'
p2072
(dp2073
g195
F2.9e-05
sS'CONJ'
p2074
F0.000449
sS'ADP'
p2075
F0.999522
s(lp2076
tp2077
a(S'edad'
p2078
(dp2079
S'NOUN'
p2080
F1.0
s(lp2081
g186
atp2082
a(g151
(dp2083
g129
F1.0
s(lp2084
tp2085
a(S'y'
p2086
(dp2087
g195
F0.00056
sS'CONJ'
p2088
F0.99944
s(lp2089
g224
atp2090
a(S'dolceta'
p2091
(dp2092
S'VERB'
p2093
F0.630125
sS'NOUN'
p2094
F0.369875
s(lp2095
g231
atp2096
a(g151
(dp2097
g129
F1.0
s(lp2098
g235
atp2099
a(S'un'
p2100
(dp2101
g195
F2.6e-05
sS'DET'
p2102
F0.999974
s(lp2103
g243
atp2104
a(S'sitio'
p2105
(dp2106
S'NOUN'
p2107
F1.0
s(lp2108
tp2109
a(S'web'
p2110
(dp2111
S'NOUN'
p2112
F1.0
s(lp2113
g256
atp2114
a(S'dirigido'
p2115
(dp2116
S'VERB'
p2117
F1.0
s(lp2118
tp2119
a(g243
(dp2120
g195
F1.5e-05
sS'CONJ'
p2121
F4e-06
sS'ADP'
p2122
F0.999981
s(lp2123
g262
atp2124
a(S'los'
p2125
(dp2126
S'PRON'
p2127
F0.0
sS'DET'
p2128
F1.0
s(lp2129
tp2130
a(S'adultos'
p2131
(dp2132
S'ADJ'
p2133
F0.316856
sS'NOUN'
p2134
F0.683144
s(lp2135
g287
atp2136
a(g2086
(dp2137
g195
F0.000782
sS'CONJ'
p2138
F0.999218
s(lp2139
g293
atp2140
a(S'profesores'
p2141
(dp2142
S'NOUN'
p2143
F1.0
s(lp2144
g305
atp2145
a(g129
(dp2146
g129
F1.0
s(lp2147
g129
atp2148
as.