(dp0
S'fr'
p1
(lp2
(S'ils'
p3
(dp4
S'PRON'
p5
F1.0
s(lp6
S'it'
p7
atp8
a(S'ne'
p9
(dp10
S'ADV'
p11
F1.0
s(lp12
tp13
a(S'doivent'
p14
(dp15
S'VERB'
p16
F1.0
s(lp17
S'must'
p18
atp19
a(S'pas'
p20
(dp21
S'ADV'
p22
F0.999903
sS'NOUN'
p23
F9.7e-05
s(lp24
S'not'
p25
atp26
a(S'\xc3\xaatre'
p27
(dp28
S'VERB'
p29
F0.999766
sS'NOUN'
p30
F0.000234
s(lp31
S'only'
p32
atp33
a(S'les'
p34
(dp35
S'PRON'
p36
F7.9e-05
sS'DET'
p37
F0.999883
sS'ADP'
p38
F3.8e-05
s(lp39
S'member'
p40
atp41
a(S'seuls'
p42
(dp43
S'NOUN'
p44
F0.172146
sS'ADJ'
p45
F0.827854
s(lp46
S'states'
p47
atp48
a(S'\xc3\xa0'
p49
(dp50
S'ADP'
p51
F1.0
s(lp52
tp53
a(S'le'
p54
(dp55
S'PRON'
p56
F0.582489
sS'DET'
p57
F0.417511
s(lp58
tp59
a(S'faire'
p60
(dp61
S'VERB'
p62
F1.0
s(lp63
S'make'
p64
atp65
a(S','
p66
(dp67
S'.'
p68
F1.0
s(lp69
S';'
p70
atp71
a(S"l'"
p72
(dp73
S'ADJ'
p74
F0.13429
sS'VERB'
p75
F0.638201
sS'NOUN'
p76
F0.227509
s(lp77
S'the'
p78
atp79
a(S'ue'
p80
(dp81
S'VERB'
p82
F0.00028
sS'NOUN'
p83
F0.999719
s(lp84
S'eu'
p85
atp86
a(S'devrait'
p87
(dp88
S'VERB'
p89
F1.0
s(lp90
S'should'
p91
atp92
a(S'elle'
p93
(dp94
S'PRON'
p95
F1.0
s(lp96
S'its'
p97
atp98
a(S'aussi'
p99
(dp100
S'ADV'
p101
F0.999996
sS'CONJ'
p102
F4e-06
s(lp103
S'also'
p104
atp105
a(S'tailler'
p106
(dp107
S'VERB'
p108
F1.0
s(lp109
S'trim'
p110
atp111
a(S'dans'
p112
(dp113
S'NOUN'
p114
F2e-05
sS'ADP'
p115
F0.99998
s(lp116
S'down'
p117
atp118
a(S'les'
p119
(dp120
S'PRON'
p121
F0.005076
sS'DET'
p122
F0.994922
sS'ADP'
p123
F2e-06
s(lp124
tp125
a(S'fonds'
p126
(dp127
S'VERB'
p128
F0.005442
sS'NOUN'
p129
F0.994558
s(lp130
S'funds'
p131
atp132
a(S'publics'
p133
(dp134
S'NOUN'
p135
F0.002549
sS'ADJ'
p136
F0.997451
s(lp137
S'public'
p138
atp139
a(S'et'
p140
(dp141
S'CONJ'
p142
F1.0
s(lp143
S'and'
p144
atp145
a(S'les'
p146
(dp147
S'PRON'
p148
F0.917532
sS'DET'
p149
F0.081548
sS'ADP'
p150
F0.00092
s(lp151
S'these'
p152
atp153
a(S'd\xc3\xa9penser'
p154
(dp155
S'VERB'
p156
F1.0
s(lp157
S'spend'
p158
atp159
a(S'de'
p160
(dp161
S'ADP'
p162
F1.0
s(lp163
S'in'
p164
atp165
a(S'mani\xc3\xa8re'
p166
(dp167
S'VERB'
p168
F0.001706
sS'NOUN'
p169
F0.998294
s(lp170
S'manner'
p171
atp172
a(S'plus'
p173
(dp174
S'ADV'
p175
F0.998849
sS'VERB'
p176
F0.0011510000000000001
s(lp177
S'more'
p178
atp179
a(S'cibl\xc3\xa9e'
p180
(dp181
S'VERB'
p182
F1.0
s(lp183
S'targeted'
p184
atp185
a(g68
(dp186
g68
F1.0
s(lp187
g68
atp188
asS'en'
p189
(lp190
(g7
(dp191
S'PRON'
p192
F1.0
s(lp193
g7
atp194
a(S'is'
p195
(dp196
S'VERB'
p197
F1.0
s(lp198
g195
atp199
a(g25
(dp200
S'ADV'
p201
F1.0
s(lp202
g25
atp203
a(g32
(dp204
S'ADV'
p205
F0.344775
sS'NOUN'
p206
F2.5e-05
sS'ADJ'
p207
F0.6552
s(lp208
g32
atp209
a(g40
(dp210
S'NOUN'
p211
F1.0
s(lp212
g40
atp213
a(g47
(dp214
S'VERB'
p215
F0.010881
sS'NOUN'
p216
F0.989119
s(lp217
g47
atp218
a(S'who'
p219
(dp220
S'PRON'
p221
F1.0
s(lp222
g219
atp223
a(g18
(dp224
S'VERB'
p225
F1.0
sS'NOUN'
p226
F0.0
s(lp227
g18
atp228
a(g64
(dp229
S'VERB'
p230
F0.999998
sS'NOUN'
p231
F2e-06
s(lp232
g64
atp233
a(S'cuts'
p234
(dp235
S'VERB'
p236
F9e-06
sS'NOUN'
p237
F0.999991
s(lp238
g234
atp239
a(g66
(dp240
g68
F1.0
s(lp241
g66
atp242
a(S'then'
p243
(dp244
S'ADV'
p245
F0.999481
sS'ADJ'
p246
F0.000519
s(lp247
g243
atp248
a(g70
(dp249
g68
F1.0
s(lp250
g70
atp251
a(g78
(dp252
S'NOUN'
p253
F8e-06
sS'DET'
p254
F0.999992
s(lp255
g78
atp256
a(g85
(dp257
S'ADV'
p258
F6.7e-05
sS'ADJ'
p259
F0.000191
sS'VERB'
p260
F4.9999999999999996e-06
sS'NOUN'
p261
F0.999736
s(lp262
g85
atp263
a(g91
(dp264
S'VERB'
p265
F1.0
s(lp266
g91
atp267
a(g104
(dp268
S'ADV'
p269
F1.0
s(lp270
g104
atp271
a(g110
(dp272
S'NOUN'
p273
F0.002648
sS'VERB'
p274
F0.979307
sS'ADJ'
p275
F0.018045
s(lp276
g110
atp277
a(g117
(dp278
S'ADV'
p279
F0.117727
sS'NOUN'
p280
F8e-06
sS'ADP'
p281
F0.037694
sS'PRT'
p282
F0.8443
sS'VERB'
p283
F1.6000000000000003e-05
sS'ADJ'
p284
F0.000255
s(lp285
g117
atp286
a(g97
(dp287
S'PRON'
p288
F1.0
s(lp289
g97
atp290
a(g138
(dp291
S'NOUN'
p292
F0.109636
sS'ADJ'
p293
F0.890364
s(lp294
g138
atp295
a(g131
(dp296
S'VERB'
p297
F1.5e-05
sS'NOUN'
p298
F0.9999859999999999
s(lp299
g131
atp300
a(g144
(dp301
S'CONJ'
p302
F1.0
sS'NOUN'
p303
F0.0
s(lp304
g144
atp305
a(g158
(dp306
S'VERB'
p307
F1.0
s(lp308
g158
atp309
a(g152
(dp310
S'NOUN'
p311
F0.000546
sS'DET'
p312
F0.999454
s(lp313
g152
atp314
a(g164
(dp315
S'ADV'
p316
F0.002791
sS'PRT'
p317
F0.000466
sS'ADP'
p318
F0.996743
s(lp319
g164
atp320
a(S'a'
p321
(dp322
S'NOUN'
p323
F0.0
sS'DET'
p324
F1.0
s(lp325
g321
atp326
a(g178
(dp327
S'ADV'
p328
F0.768479
sS'ADJ'
p329
F0.231521
s(lp330
g178
atp331
a(g184
(dp332
S'VERB'
p333
F0.25006
sS'ADJ'
p334
F0.74994
s(lp335
g184
atp336
a(g171
(dp337
S'NOUN'
p338
F1.0
s(lp339
g171
atp340
a(g68
(dp341
g68
F1.0
s(lp342
g68
atp343
asS'nl'
p344
(lp345
(S'niet'
p346
(dp347
S'ADV'
p348
F0.999994
sS'PRON'
p349
F2e-06
sS'VERB'
p350
F4e-06
sS'X'
p351
F0.0
s(lp352
g25
atp353
a(S'alleen'
p354
(dp355
S'ADV'
p356
F0.999357
sS'ADJ'
p357
F0.000643
s(lp358
g32
atp359
a(S'de'
p360
(dp361
S'DET'
p362
F1.0
s(lp363
g152
atp364
a(S'lidstaten'
p365
(dp366
S'NOUN'
p367
F1.0
s(lp368
g40
atp369
a(S'moeten'
p370
(dp371
S'VERB'
p372
F0.999973
sS'NOUN'
p373
F2.7e-05
s(lp374
g18
atp375
a(S'bezuinigen'
p376
(dp377
S'VERB'
p378
F0.996295
sS'NOUN'
p379
F0.003705
s(lp380
g234
atp381
a(g66
(dp382
g68
F1.0
s(lp383
g66
atp384
a(S'ook'
p385
(dp386
S'ADV'
p387
F1.0
s(lp388
g243
atp389
a(S'de'
p390
(dp391
S'DET'
p392
F1.0
s(lp393
g78
atp394
a(S'europese'
p395
(dp396
S'NOUN'
p397
F1.0
s(lp398
tp399
a(S'unie'
p400
(dp401
S'NOUN'
p402
F1.0
s(lp403
g85
atp404
a(S'dient'
p405
(dp406
S'VERB'
p407
F1.0
s(lp408
g91
atp409
a(S'derhalve'
p410
(dp411
S'ADV'
p412
F1.0
s(lp413
g110
atp414
a(S'haar'
p415
(dp416
S'ADV'
p417
F0.000637
sS'PRON'
p418
F0.99936
sS'NOUN'
p419
F3e-06
s(lp420
g97
atp421
a(S'publieke'
p422
(dp423
S'NOUN'
p424
F3.8e-05
sS'ADJ'
p425
F0.999962
s(lp426
g138
atp427
a(S'middelen'
p428
(dp429
S'NOUN'
p430
F1.0
s(lp431
g131
atp432
a(S'af'
p433
(dp434
S'ADV'
p435
F0.999987
sS'ADP'
p436
F1.3e-05
s(lp437
tp438
a(S'te'
p439
(dp440
S'PRT'
p441
F1.0
s(lp442
tp443
a(S'slanken'
p444
(dp445
S'NOUN'
p446
F0.281831
sS'ADJ'
p447
F0.718169
s(lp448
g110
atp449
a(S'en'
p450
(dp451
S'CONJ'
p452
F1.0
s(lp453
g144
atp454
a(S'gerichter'
p455
(dp456
S'ADJ'
p457
F1.0
s(lp458
g184
atp459
a(S'in'
p460
(dp461
S'ADV'
p462
F0.992912
sS'VERB'
p463
F0.000651
sS'ADP'
p464
F0.006437
s(lp465
g164
atp466
a(S'te'
p467
(dp468
S'PRT'
p469
F1.0
s(lp470
g171
atp471
a(S'zetten'
p472
(dp473
S'VERB'
p474
F0.999968
sS'NOUN'
p475
F3.2e-05
s(lp476
g158
atp477
a(g68
(dp478
g68
F1.0
s(lp479
g68
atp480
asS'de'
p481
(lp482
(S'aber'
p483
(dp484
S'ADV'
p485
F0.845808
sS'CONJ'
p486
F0.154192
s(lp487
g7
atp488
a(S'nicht'
p489
(dp490
S'PRT'
p491
F1.0
s(lp492
g25
atp493
a(S'nur'
p494
(dp495
S'ADV'
p496
F1.0
s(lp497
g32
atp498
a(S'mitgliedstaaten'
p499
(dp500
S'VERB'
p501
F0.588095
sS'ADJ'
p502
F0.252489
s(lp503
g40
atp504
a(S'm\xc3\xbcssen'
p505
(dp506
S'VERB'
p507
F0.998566
s(lp508
g18
atp509
a(S'sich'
p510
(dp511
S'PRON'
p512
F1.0
s(lp513
tp514
a(S'nun'
p515
(dp516
S'ADV'
p517
F1.0
sS'CONJ'
p518
F0.0
s(lp519
g243
atp520
a(S'einschr\xc3\xa4nken'
p521
(dp522
S'VERB'
p523
F1.0
s(lp524
tp525
a(g68
(dp526
g68
F1.0
s(lp527
g70
atp528
a(S'die'
p529
(dp530
S'PRON'
p531
F0.078461
sS'DET'
p532
F0.919146
s(lp533
g78
atp534
a(S'eu'
p535
(dp536
S'ADJ'
p537
F0.082778
sS'NOUN'
p538
F0.730361
s(lp539
g85
atp540
a(S'sollte'
p541
(dp542
S'VERB'
p543
F1.0
s(lp544
g91
atp545
a(S'ihre'
p546
(dp547
S'PRON'
p548
F1.0
s(lp549
g97
atp550
a(S'\xc3\xb6ffentlichen'
p551
(dp552
S'ADJ'
p553
F1.0
s(lp554
g138
atp555
a(S'mittel'
p556
(dp557
S'VERB'
p558
F1.0
s(lp559
g131
atp560
a(S'ebenfalls'
p561
(dp562
S'ADV'
p563
F1.0
s(lp564
g104
atp565
a(S'beschneiden'
p566
(dp567
S'VERB'
p568
F1.0
s(lp569
g110
atp570
a(S'und'
p571
(dp572
S'CONJ'
p573
F1.0
s(lp574
g144
atp575
a(S'diese'
p576
(dp577
S'PRON'
p578
F1.0
s(lp579
g152
atp580
a(S'zielgerichteter'
p581
(dp582
S'ADJ'
p583
F1.0
s(lp584
g184
atp585
a(S'ausgeben'
p586
(dp587
S'VERB'
p588
F1.0
s(lp589
g158
atp590
a(g68
(dp591
g68
F1.0
s(lp592
g68
atp593
asS'it'
p594
(lp595
(S'non'
p596
(dp597
S'ADV'
p598
F1.0
s(lp599
g25
atp600
a(S'sono'
p601
(dp602
S'VERB'
p603
F0.999916
sS'NOUN'
p604
F8.4e-05
s(lp605
g195
atp606
a(S'dunque'
p607
(dp608
S'ADV'
p609
F0.999923
sS'NOUN'
p610
F7.7e-05
s(lp611
g243
atp612
a(S'gli'
p613
(dp614
S'PRON'
p615
F0.000962
sS'DET'
p616
F0.999038
s(lp617
g47
atp618
a(S'unici'
p619
(dp620
S'ADJ'
p621
F0.290283
sS'NOUN'
p622
F0.709717
s(lp623
g32
atp624
a(g321
(dp625
S'CONJ'
p626
F0.000351
sS'ADP'
p627
F0.999649
s(lp628
g219
atp629
a(S'dover'
p630
(dp631
S'VERB'
p632
F1.0
s(lp633
g234
atp634
a(S'risparmiare'
p635
(dp636
S'VERB'
p637
F1.0
s(lp638
tp639
a(S':'
p640
(dp641
g68
F1.0
s(lp642
g70
atp643
a(S'anche'
p644
(dp645
S'ADV'
p646
F0.999966
sS'NOUN'
p647
F3.4e-05
s(lp648
g104
atp649
a(S"l'"
p650
(dp651
S'NOUN'
p652
F0.002844
sS'VERB'
p653
F0.8207009999999999
sS'ADJ'
p654
F0.176455
s(lp655
g78
atp656
a(S'unione'
p657
(dp658
S'NOUN'
p659
F1.0
s(lp660
g85
atp661
a(S'dovrebbe'
p662
(dp663
S'VERB'
p664
F1.0
s(lp665
g91
atp666
a(S'ridimensionare'
p667
(dp668
S'VERB'
p669
F1.0
s(lp670
g110
atp671
a(S'i'
p672
(dp673
S'DET'
p674
F1.0
s(lp675
g97
atp676
a(S'fondi'
p677
(dp678
S'VERB'
p679
F0.000107
sS'NOUN'
p680
F0.999893
s(lp681
g131
atp682
a(S'pubblici'
p683
(dp684
S'NOUN'
p685
F0.001704
sS'ADJ'
p686
F0.998296
s(lp687
g138
atp688
a(S'e'
p689
(dp690
S'CONJ'
p691
F1.0
s(lp692
g144
atp693
a(S'spenderli'
p694
(dp695
S'VERB'
p696
F1.0
s(lp697
g158
atp698
a(S'in'
p699
(dp700
S'ADP'
p701
F1.0
s(lp702
g164
atp703
a(S'maniera'
p704
(dp705
S'NOUN'
p706
F1.0
s(lp707
g171
atp708
a(S'pi\xc3\xb9'
p709
(dp710
S'ADV'
p711
F0.996641
sS'NOUN'
p712
F1e-05
sS'ADJ'
p713
F0.003135
sS'ADP'
p714
F0.000214
s(lp715
g178
atp716
a(S'mirata'
p717
(dp718
S'VERB'
p719
F0.770072
sS'ADJ'
p720
F0.229928
s(lp721
g184
atp722
a(g68
(dp723
g68
F1.0
s(lp724
g68
atp725
asS'sk'
p726
(lp727
(S'nie'
p728
(dp729
g351
F1.0
s(lp730
tp731
a(S's\xc3\xba'
p732
(dp733
S'VERB'
p734
F1.0
s(lp735
g195
atp736
a(S'to'
p737
(dp738
S'PRON'
p739
F0.9450160000000001
sS'CONJ'
p740
F0.012016
sg351
F0.042969
s(lp741
g7
atp742
a(S'v\xc5\xa1ak'
p743
(dp744
g351
F0.957824
sS'CONJ'
p745
F0.042176
s(lp746
g25
atp747
a(S'len'
p748
(dp749
g351
F0.995429
sS'CONJ'
p750
F0.004571
s(lp751
g32
atp752
a(S'\xc4\x8dlensk\xc3\xa9'
p753
(dp754
S'NOUN'
p755
F0.00126
sS'ADJ'
p756
F0.9987389999999999
s(lp757
g40
atp758
a(S'\xc5\xa1t\xc3\xa1ty'
p759
(dp760
S'NOUN'
p761
F1.0
s(lp762
g47
atp763
a(g66
(dp764
g68
F1.0
s(lp765
tp766
a(S'kto'
p767
(dp768
S'PRON'
p769
F1.0
s(lp770
g219
atp771
a(S'mus\xc3\xad'
p772
(dp773
S'VERB'
p774
F1.0
s(lp775
g18
atp776
a(S'robi\xc5\xa5'
p777
(dp778
S'VERB'
p779
F1.0
s(lp780
g64
atp781
a(S'\xc5\xa1krty'
p782
(dp783
S'NOUN'
p784
F1.0
s(lp785
g234
atp786
a(g70
(dp787
g68
F1.0
s(lp788
g70
atp789
a(S'e\xc3\x9a'
p790
(dp791
S'ADV'
p792
F0.116991
sS'NOUN'
p793
F0.218818
sS'VERB'
p794
F0.004214
sS'ADJ'
p795
F0.6548280000000001
sg351
F0.0051470000000000005
s(lp796
g85
atp797
a(S'by'
p798
(dp799
S'PRT'
p800
F0.999525
sg351
F0.00047500000000000005
s(lp801
tp802
a(S'tie\xc5\xbe'
p803
(dp804
g351
F1.0
s(lp805
g104
atp806
a(S'mala'
p807
(dp808
S'ADV'
p809
F0.003933
sS'VERB'
p810
F0.9960669999999999
s(lp811
g91
atp812
a(S'zn\xc3\xad\xc5\xbei\xc5\xa5'
p813
(dp814
S'VERB'
p815
F1.0
s(lp816
g110
atp817
a(S'svoje'
p818
(dp819
S'PRON'
p820
F1.0
s(lp821
g97
atp822
a(S'verejn\xc3\xa9'
p823
(dp824
S'ADJ'
p825
F1.0
s(lp826
g138
atp827
a(S'finan\xc4\x8dn\xc3\xa9'
p828
(dp829
S'ADJ'
p830
F1.0
s(lp831
tp832
a(S'prostriedky'
p833
(dp834
S'NOUN'
p835
F1.0
s(lp836
g131
atp837
a(g321
(dp838
g351
F0.001101
sS'CONJ'
p839
F0.998513
sS'NOUN'
p840
F6.7e-05
sS'ADP'
p841
F0.0
sS'PRT'
p842
F0.000319
s(lp843
g144
atp844
a(S'm\xc3\xad\xc5\x88a\xc5\xa5'
p845
(dp846
S'VERB'
p847
F1.0
s(lp848
g158
atp849
a(S'ich'
p850
(dp851
S'PRON'
p852
F1.0
s(lp853
g152
atp854
a(S'cielenej\xc5\xa1\xc3\xadm'
p855
(dp856
S'VERB'
p857
F1.0
s(lp858
g184
atp859
a(S'sp\xc3\xb4sobom'
p860
(dp861
S'NOUN'
p862
F1.0
s(lp863
g171
atp864
a(g68
(dp865
g68
F1.0
s(lp866
g68
atp867
asS'pl'
p868
(lp869
(S'wydatki'
p870
(dp871
S'NOUN'
p872
F1.0
s(lp873
g234
atp874
a(S'powinny'
p875
(dp876
S'VERB'
p877
F0.999999
s(lp878
g18
atp879
a(S'zatem'
p880
(dp881
S'CONJ'
p882
F1.0
s(lp883
g243
atp884
a(S'ograniczy\xc4\x87'
p885
(dp886
S'VERB'
p887
F1.0
s(lp888
tp889
a(S'nie'
p890
(dp891
S'ADV'
p892
F3.9e-05
sS'PRT'
p893
F0.981101
sS'CONJ'
p894
F0.01846
sS'NOUN'
p895
F0.000226
sS'PRON'
p896
F0.000175
s(lp897
g25
atp898
a(S'tylko'
p899
(dp900
S'PRT'
p901
F0.657498
sS'CONJ'
p902
F0.342502
s(lp903
g32
atp904
a(S'pa\xc5\x84stwa'
p905
(dp906
S'NOUN'
p907
F0.999999
s(lp908
g47
atp909
a(S'cz\xc5\x82onkowskie'
p910
(dp911
S'ADJ'
p912
F1.0
s(lp913
g40
atp914
a(g70
(dp915
g68
F1.0
s(lp916
g70
atp917
a(S'swoje'
p918
(dp919
S'NOUN'
p920
F0.000292
sS'ADJ'
p921
F0.999707
s(lp922
g97
atp923
a(S'\xc5\x9brodki'
p924
(dp925
S'NOUN'
p926
F1.0
s(lp927
g131
atp928
a(S'publiczne'
p929
(dp930
S'ADJ'
p931
F1.000001
s(lp932
g138
atp933
a(S'ograniczy\xc4\x87'
p934
(dp935
S'VERB'
p936
F1.0
s(lp937
g110
atp938
a(S'powinna'
p939
(dp940
S'VERB'
p941
F1.0
s(lp942
g91
atp943
a(S'tak\xc5\xbce'
p944
(dp945
S'PRT'
p946
F0.724439
sS'CONJ'
p947
F0.275561
s(lp948
g104
atp949
a(S'ue'
p950
(dp951
S'ADJ'
p952
F0.001738
sS'VERB'
p953
F0.023944999999999998
sS'NOUN'
p954
F0.974316
s(lp955
g85
atp956
a(g672
(dp957
S'PRT'
p958
F0.013421
sS'CONJ'
p959
F0.986515
sS'NOUN'
p960
F1.4e-05
sg351
F9e-06
sS'PRON'
p961
F4.1e-05
s(lp962
g144
atp963
a(S'wydawa\xc4\x87'
p964
(dp965
S'VERB'
p966
F1.0
s(lp967
g158
atp968
a(S'je'
p969
(dp970
S'PRT'
p971
F0.000396
sS'PRON'
p972
F0.996913
sS'VERB'
p973
F0.002487
sg351
F5e-06
sS'CONJ'
p974
F0.000126
sS'ADJ'
p975
F7.2e-05
s(lp976
g152
atp977
a(S'w'
p978
(dp979
S'ADJ'
p980
F1e-06
sg351
F9.4e-05
sS'NOUN'
p981
F2.2e-05
sS'ADP'
p982
F0.9998830000000001
s(lp983
g164
atp984
a(S'bardziej'
p985
(dp986
S'ADV'
p987
F1.0
s(lp988
g178
atp989
a(S'ukierunkowany'
p990
(dp991
S'NOUN'
p992
F0.00023099999999999998
sS'VERB'
p993
F0.947062
sS'ADJ'
p994
F0.052706
s(lp995
g184
atp996
a(S'spos\xc3\xb3b'
p997
(dp998
S'ADJ'
p999
F0.000956
sS'NOUN'
p1000
F0.9990439999999999
s(lp1001
g171
atp1002
a(g68
(dp1003
g68
F1.0
s(lp1004
g68
atp1005
asS'sl'
p1006
(lp1007
(S'torej'
p1008
(dp1009
S'ADV'
p1010
F0.935771
sS'CONJ'
p1011
F0.064229
s(lp1012
g195
atp1013
a(S'niso'
p1014
(dp1015
S'VERB'
p1016
F1.0
s(lp1017
g25
atp1018
a(S'le'
p1019
(dp1020
S'PRT'
p1021
F0.99995
sg351
F5e-05
s(lp1022
g32
atp1023
a(S'dr\xc5\xbeave'
p1024
(dp1025
S'NOUN'
p1026
F1.0
s(lp1027
g40
atp1028
a(S'\xc4\x8dlanice'
p1029
(dp1030
S'NOUN'
p1031
F1.000001
s(lp1032
tp1033
a(S'tiste'
p1034
(dp1035
S'PRON'
p1036
F1.0
s(lp1037
g47
atp1038
a(g66
(dp1039
g68
F1.0
s(lp1040
tp1041
a(S'ki'
p1042
(dp1043
S'CONJ'
p1044
F1.0
s(lp1045
g219
atp1046
a(S'morajo'
p1047
(dp1048
S'VERB'
p1049
F1.0
s(lp1050
g18
atp1051
a(S'uvesti'
p1052
(dp1053
S'VERB'
p1054
F1.0
s(lp1055
g64
atp1056
a(S'zmanj\xc5\xa1anja'
p1057
(dp1058
S'NOUN'
p1059
F1.0
s(lp1060
g234
atp1061
a(g70
(dp1062
g68
F1.0
s(lp1063
g70
atp1064
a(S'tudi'
p1065
(dp1066
S'PRT'
p1067
F1.0
s(lp1068
g78
atp1069
a(S'eu'
p1070
(dp1071
S'ADV'
p1072
F0.082142
sS'ADJ'
p1073
F0.052577000000000006
sS'VERB'
p1074
F0.002965
sS'NOUN'
p1075
F0.8623190000000001
s(lp1076
g85
atp1077
a(S'bi'
p1078
(dp1079
g351
F5.4e-05
sS'VERB'
p1080
F0.999946
s(lp1081
tp1082
a(S'morala'
p1083
(dp1084
S'VERB'
p1085
F0.9999049999999999
sS'NOUN'
p1086
F9.5e-05
s(lp1087
g91
atp1088
a(S'oklestiti'
p1089
(dp1090
S'ADJ'
p1091
F0.0009390000000000001
sS'VERB'
p1092
F0.9978140000000001
sS'NOUN'
p1093
F0.0012490000000000001
s(lp1094
g110
atp1095
a(S'svoja'
p1096
(dp1097
S'PRON'
p1098
F1.0
s(lp1099
g97
atp1100
a(S'javna'
p1101
(dp1102
S'ADJ'
p1103
F1.0
s(lp1104
g138
atp1105
a(S'sredstva'
p1106
(dp1107
S'NOUN'
p1108
F0.9999999999999999
s(lp1109
g131
atp1110
a(S'in'
p1111
(dp1112
S'ADV'
p1113
F8e-06
sg351
F1e-06
sS'CONJ'
p1114
F0.99999
sS'NOUN'
p1115
F0.0
s(lp1116
g144
atp1117
a(S'jih'
p1118
(dp1119
S'PRON'
p1120
F1.000001
s(lp1121
g152
atp1122
a(S'porabiti'
p1123
(dp1124
S'VERB'
p1125
F1.0
s(lp1126
g158
atp1127
a(S'bolj'
p1128
(dp1129
S'ADV'
p1130
F1.0
s(lp1131
g178
atp1132
a(S'ciljno'
p1133
(dp1134
S'ADV'
p1135
F0.741289
sS'ADJ'
p1136
F0.258711
s(lp1137
g184
atp1138
a(g68
(dp1139
g68
F1.0
s(lp1140
g68
atp1141
asS'es'
p1142
(lp1143
(S'no'
p1144
(dp1145
S'ADV'
p1146
F0.999988
sg351
F1.2e-05
s(lp1147
g25
atp1148
a(S's\xc3\xb3lo'
p1149
(dp1150
S'ADV'
p1151
F1.0
s(lp1152
g32
atp1153
a(S'los'
p1154
(dp1155
S'PRON'
p1156
F0.00025
sS'DET'
p1157
F0.99975
s(lp1158
tp1159
a(S'estados'
p1160
(dp1161
S'NOUN'
p1162
F1.0
s(lp1163
g47
atp1164
a(S'miembros'
p1165
(dp1166
S'NOUN'
p1167
F1.0
s(lp1168
g40
atp1169
a(S'deben'
p1170
(dp1171
S'VERB'
p1172
F1.0
s(lp1173
g18
atp1174
a(S'hacer'
p1175
(dp1176
S'VERB'
p1177
F1.0
s(lp1178
g64
atp1179
a(S'dichos'
p1180
(dp1181
S'NOUN'
p1182
F0.000988
sS'VERB'
p1183
F0.00059
sS'ADJ'
p1184
F0.998422
s(lp1185
tp1186
a(S'recortes'
p1187
(dp1188
S'VERB'
p1189
F0.005949
sS'NOUN'
p1190
F0.994051
s(lp1191
g234
atp1192
a(g66
(dp1193
g68
F1.0
s(lp1194
g66
atp1195
a(S'la'
p1196
(dp1197
S'PRON'
p1198
F0.000479
sS'DET'
p1199
F0.999514
sS'NOUN'
p1200
F0.0
sg351
F6e-06
s(lp1201
g78
atp1202
a(S'ue'
p1203
(dp1204
S'VERB'
p1205
F0.000502
sS'NOUN'
p1206
F0.999497
s(lp1207
g85
atp1208
a(S'tambi\xc3\xa9n'
p1209
(dp1210
S'ADV'
p1211
F1.0
s(lp1212
g104
atp1213
a(S'debe'
p1214
(dp1215
S'VERB'
p1216
F1.0
s(lp1217
g91
atp1218
a(S'recortar'
p1219
(dp1220
S'VERB'
p1221
F1.0
s(lp1222
g110
atp1223
a(S'sus'
p1224
(dp1225
S'PRON'
p1226
F1.0
s(lp1227
g97
atp1228
a(S'fondos'
p1229
(dp1230
S'NOUN'
p1231
F1.0
s(lp1232
g131
atp1233
a(S'p\xc3\xbablicos'
p1234
(dp1235
S'ADJ'
p1236
F1.0
s(lp1237
g138
atp1238
a(S'y'
p1239
(dp1240
g351
F1.3e-05
sS'CONJ'
p1241
F0.999987
s(lp1242
g144
atp1243
a(S'emplearlos'
p1244
(dp1245
S'VERB'
p1246
F1.0
s(lp1247
g158
atp1248
a(S'de'
p1249
(dp1250
g351
F0.0
sS'CONJ'
p1251
F3.3e-05
sS'ADP'
p1252
F0.999967
s(lp1253
g164
atp1254
a(S'una'
p1255
(dp1256
S'DET'
p1257
F1.0
s(lp1258
g321
atp1259
a(S'manera'
p1260
(dp1261
S'NOUN'
p1262
F1.0
s(lp1263
g171
atp1264
a(S'm\xc3\xa1s'
p1265
(dp1266
S'ADV'
p1267
F0.999993
sS'CONJ'
p1268
F7e-06
s(lp1269
g178
atp1270
a(S'focalizada'
p1271
(dp1272
S'NOUN'
p1273
F0.001318
sS'VERB'
p1274
F0.033662
sS'ADJ'
p1275
F0.96502
s(lp1276
g184
atp1277
a(g68
(dp1278
g68
F1.0
s(lp1279
g68
atp1280
as.