(dp0
S'fr'
p1
(lp2
(S"l'"
p3
(dp4
S'ADJ'
p5
F0.079749
sS'VERB'
p6
F0.5393100000000001
sS'NOUN'
p7
F0.380941
s(lp8
S'screening'
p9
atp10
a(S'examen'
p11
(dp12
S'NOUN'
p13
F1.0
s(lp14
tp15
a(S'analytique'
p16
(dp17
S'NOUN'
p18
F0.015282
sS'ADJ'
p19
F0.984718
s(lp20
g9
atp21
a(S'constitue'
p22
(dp23
S'VERB'
p24
F1.0
s(lp25
S'is'
p26
atp27
a(S'une'
p28
(dp29
S'NOUN'
p30
F1.2e-05
sS'NUM'
p31
F0.003908
sS'DET'
p32
F0.996081
s(lp33
S'an'
p34
atp35
a(S'\xc3\xa9tape'
p36
(dp37
S'NOUN'
p38
F1.0
s(lp39
S'process'
p40
atp41
a(S'technique'
p42
(dp43
S'NOUN'
p44
F0.166093
sS'ADJ'
p45
F0.833907
s(lp46
S'technical'
p47
atp48
a(S'importante'
p49
(dp50
S'ADJ'
p51
F1.0
s(lp52
S'important'
p53
atp54
a(S'et'
p55
(dp56
S'CONJ'
p57
F1.0
s(lp58
S'and'
p59
atp60
a(S'les'
p61
(dp62
S'PRON'
p63
F0.000497
sS'DET'
p64
F0.99949
sS'ADP'
p65
F1.3e-05
s(lp66
S'the'
p67
atp68
a(S'r\xc3\xa9unions'
p69
(dp70
S'NOUN'
p71
F1.0
s(lp72
S'meetings'
p73
atp74
a(S'ont'
p75
(dp76
S'VERB'
p77
F1.0
s(lp78
S'have'
p79
atp80
a(S'permis'
p81
(dp82
S'VERB'
p83
F0.989701
sS'NOUN'
p84
F0.0103
s(lp85
S'identified'
p86
atp87
a(S'de'
p88
(dp89
S'ADP'
p90
F1.0
s(lp91
tp92
a(S'mettre'
p93
(dp94
S'VERB'
p95
F1.0
s(lp96
tp97
a(S'en'
p98
(dp99
S'PRON'
p100
F0.000572
sS'ADP'
p101
F0.999428
s(lp102
tp103
a(S'lumi\xc3\xa8re'
p104
(dp105
S'NOUN'
p106
F1.0
s(lp107
g86
atp108
a(S'des'
p109
(dp110
S'DET'
p111
F2.1e-05
sS'ADP'
p112
F0.999979
s(lp113
S'sensitive'
p114
atp115
a(S'questions'
p116
(dp117
S'NOUN'
p118
F1.0
s(lp119
S'issues'
p120
atp121
a(S'sensibles'
p122
(dp123
S'ADJ'
p124
F1.0
s(lp125
tp126
a(S'et'
p127
(dp128
S'CONJ'
p129
F1.0
s(lp130
S'and'
p131
atp132
a(S'des'
p133
(dp134
S'DET'
p135
F0.000611
sS'ADP'
p136
F0.999389
s(lp137
g114
atp138
a(S'd\xc3\xa9fis'
p139
(dp140
S'VERB'
p141
F6e-06
sS'NOUN'
p142
F0.999994
s(lp143
S'challenges'
p144
atp145
a(S'dans'
p146
(dp147
S'NOUN'
p148
F6e-06
sS'ADP'
p149
F0.999994
s(lp150
S'in'
p151
atp152
a(S'les'
p153
(dp154
S'PRON'
p155
F0.001902
sS'DET'
p156
F0.998097
sS'ADP'
p157
F2e-06
s(lp158
S'key'
p159
atp160
a(S'chapitres'
p161
(dp162
S'VERB'
p163
F0.001995
sS'NOUN'
p164
F0.998006
s(lp165
S'chapters'
p166
atp167
a(S'les'
p168
(dp169
S'PRON'
p170
F0.228175
sS'DET'
p171
F0.769683
sS'ADP'
p172
F0.002143
s(lp173
tp174
a(S'plus'
p175
(dp176
S'ADV'
p177
F0.99973
sS'VERB'
p178
F0.00027
s(lp179
S'as'
p180
atp181
a(S'importants'
p182
(dp183
S'ADJ'
p184
F1.0
s(lp185
g159
atp186
a(S','
p187
(dp188
S'.'
p189
F1.0
s(lp190
g187
atp191
a(S'notamment'
p192
(dp193
S'ADV'
p194
F1.0
s(lp195
S'such'
p196
atp197
a(S"l'"
p198
(dp199
S'NOUN'
p200
F0.037162
sS'VERB'
p201
F0.7565829999999999
sS'ADJ'
p202
F0.206256
s(lp203
tp204
a(S'agriculture'
p205
(dp206
S'NOUN'
p207
F1.0
s(lp208
S'agriculture'
p209
atp210
a(g187
(dp211
g189
F1.0
s(lp212
g187
atp213
a(S"l'"
p214
(dp215
S'ADJ'
p216
F0.13429
sS'VERB'
p217
F0.638201
sS'NOUN'
p218
F0.227509
s(lp219
tp220
a(S'environnement'
p221
(dp222
S'NOUN'
p223
F1.0
s(lp224
S'environment'
p225
atp226
a(S'et'
p227
(dp228
S'CONJ'
p229
F1.0
s(lp230
S'and'
p231
atp232
a(S'la'
p233
(dp234
S'PRON'
p235
F0.001789
sS'DET'
p236
F0.998211
sS'NOUN'
p237
F0.0
s(lp238
tp239
a(S'p\xc3\xaache'
p240
(dp241
S'VERB'
p242
F0.0017599999999999998
sS'NOUN'
p243
F0.99824
s(lp244
S'fisheries'
p245
atp246
a(g189
(dp247
g189
F1.0
s(lp248
g189
atp249
asS'en'
p250
(lp251
(g9
(dp252
S'VERB'
p253
F0.170612
sS'NOUN'
p254
F0.829388
s(lp255
g9
atp256
a(g26
(dp257
S'VERB'
p258
F1.0
s(lp259
g26
atp260
a(g34
(dp261
S'DET'
p262
F1.0
s(lp263
g34
atp264
a(g53
(dp265
S'ADJ'
p266
F1.0
s(lp267
g53
atp268
a(g47
(dp269
S'ADJ'
p270
F1.0
s(lp271
g47
atp272
a(g40
(dp273
S'VERB'
p274
F5.4e-05
sS'NOUN'
p275
F0.999946
s(lp276
g40
atp277
a(g59
(dp278
S'CONJ'
p279
F1.0
sS'NOUN'
p280
F0.0
s(lp281
g59
atp282
a(g67
(dp283
S'NOUN'
p284
F1.3e-05
sS'DET'
p285
F0.999987
s(lp286
g67
atp287
a(g73
(dp288
S'NOUN'
p289
F1.0
s(lp290
g73
atp291
a(g79
(dp292
S'VERB'
p293
F1.0
s(lp294
g79
atp295
a(S'already'
p296
(dp297
S'ADV'
p298
F1.0
s(lp299
g296
atp300
a(g86
(dp301
S'VERB'
p302
F1.0
s(lp303
g86
atp304
a(g114
(dp305
S'ADJ'
p306
F1.0
s(lp307
g114
atp308
a(g120
(dp309
S'VERB'
p310
F3e-06
sS'NOUN'
p311
F0.999997
s(lp312
g120
atp313
a(g131
(dp314
S'CONJ'
p315
F0.999998
sS'NOUN'
p316
F2e-06
s(lp317
g131
atp318
a(g144
(dp319
S'VERB'
p320
F0.040761
sS'NOUN'
p321
F0.959239
s(lp322
g144
atp323
a(g151
(dp324
S'ADV'
p325
F0.001232
sS'PRT'
p326
F0.000614
sS'ADP'
p327
F0.998155
s(lp328
g151
atp329
a(g159
(dp330
S'NOUN'
p331
F0.069273
sS'VERB'
p332
F8e-06
sS'ADJ'
p333
F0.930719
s(lp334
g159
atp335
a(g166
(dp336
S'VERB'
p337
F0.000478
sS'NOUN'
p338
F0.999522
s(lp339
g166
atp340
a(g187
(dp341
g189
F1.0
s(lp342
g187
atp343
a(g196
(dp344
S'ADV'
p345
F0.001865
sS'DET'
p346
F3.2e-05
sS'ADJ'
p347
F0.99792
sS'ADP'
p348
F0.000183
s(lp349
g196
atp350
a(g180
(dp351
S'ADV'
p352
F0.007487
sS'ADP'
p353
F0.992513
s(lp354
g180
atp355
a(g209
(dp356
S'NOUN'
p357
F1.0
s(lp358
g209
atp359
a(g187
(dp360
g189
F1.0
s(lp361
g187
atp362
a(g225
(dp363
S'NOUN'
p364
F1.0
s(lp365
g225
atp366
a(g231
(dp367
S'CONJ'
p368
F0.999995
sS'NOUN'
p369
F5e-06
s(lp370
g231
atp371
a(g245
(dp372
S'NOUN'
p373
F1.0
s(lp374
g245
atp375
a(g189
(dp376
g189
F1.0
s(lp377
g189
atp378
asS'nl'
p379
(lp380
(S'toetsing'
p381
(dp382
S'NOUN'
p383
F1.0
s(lp384
g9
atp385
a(S'is'
p386
(dp387
S'VERB'
p388
F1.0
s(lp389
g26
atp390
a(S'een'
p391
(dp392
S'ADJ'
p393
F2e-06
sS'PRON'
p394
F3.6e-05
sS'NUM'
p395
F1e-06
sS'DET'
p396
F0.999962
s(lp397
g34
atp398
a(S'belangrijk'
p399
(dp400
S'ADJ'
p401
F1.0
s(lp402
g53
atp403
a(S'technisch'
p404
(dp405
S'ADJ'
p406
F1.0
s(lp407
g47
atp408
a(S'proces'
p409
(dp410
S'NOUN'
p411
F1.0
s(lp412
g40
atp413
a(g187
(dp414
g189
F1.0
s(lp415
tp416
a(S'en'
p417
(dp418
S'CONJ'
p419
F1.0
s(lp420
g59
atp421
a(S'de'
p422
(dp423
S'DET'
p424
F1.0
s(lp425
g67
atp426
a(S'bijeenkomsten'
p427
(dp428
S'NOUN'
p429
F1.0
s(lp430
g73
atp431
a(S'hebben'
p432
(dp433
S'VERB'
p434
F0.9999979999999999
sS'NOUN'
p435
F2e-06
s(lp436
g79
atp437
a(S'al'
p438
(dp439
S'ADV'
p440
F0.672576
sS'PRON'
p441
F0.016544
sS'CONJ'
p442
F0.31088
s(lp443
g296
atp444
a(S'een'
p445
(dp446
S'ADJ'
p447
F1.1e-05
sS'PRON'
p448
F1.9e-05
sS'NUM'
p449
F1e-06
sS'DET'
p450
F0.999969
s(lp451
tp452
a(S'aantal'
p453
(dp454
S'NOUN'
p455
F1.0
s(lp456
g86
atp457
a(S'gevoelige'
p458
(dp459
S'NOUN'
p460
F4e-06
sS'ADJ'
p461
F0.999996
s(lp462
g114
atp463
a(S'kwesties'
p464
(dp465
S'NOUN'
p466
F1.0
s(lp467
g120
atp468
a(S'en'
p469
(dp470
S'CONJ'
p471
F1.0
s(lp472
g131
atp473
a(S'uitdagingen'
p474
(dp475
S'NOUN'
p476
F1.0
s(lp477
g144
atp478
a(S'op'
p479
(dp480
S'ADV'
p481
F0.005813
sS'ADJ'
p482
F2.1e-05
sS'ADP'
p483
F0.994166
s(lp484
g151
atp485
a(S'sleutelhoofdstukken'
p486
(dp487
S'NOUN'
p488
F1.0
s(lp489
g166
atp490
a(S'als'
p491
(dp492
S'CONJ'
p493
F1.0
s(lp494
g180
atp495
a(S'de'
p496
(dp497
S'DET'
p498
F1.0
s(lp499
tp500
a(S'landbouw'
p501
(dp502
S'NOUN'
p503
F1.0
s(lp504
g209
atp505
a(g187
(dp506
g189
F1.0
s(lp507
g187
atp508
a(S'het'
p509
(dp510
S'PRON'
p511
F0.007875
sS'DET'
p512
F0.992125
s(lp513
tp514
a(S'milieu'
p515
(dp516
S'NOUN'
p517
F1.0
s(lp518
g225
atp519
a(S'en'
p520
(dp521
S'CONJ'
p522
F1.0
s(lp523
g231
atp524
a(S'de'
p525
(dp526
S'DET'
p527
F1.0
s(lp528
tp529
a(S'visserij'
p530
(dp531
S'NOUN'
p532
F1.0
s(lp533
g245
atp534
a(S'aan'
p535
(dp536
S'ADV'
p537
F0.007813
sS'ADP'
p538
F0.992187
s(lp539
tp540
a(S'het'
p541
(dp542
S'PRON'
p543
F0.002522
sS'DET'
p544
F0.997478
s(lp545
tp546
a(S'licht'
p547
(dp548
S'ADV'
p549
F0.000854
sS'ADJ'
p550
F0.282657
sS'VERB'
p551
F2.8e-05
sS'NOUN'
p552
F0.716461
s(lp553
tp554
a(S'gebracht'
p555
(dp556
S'VERB'
p557
F1.0
s(lp558
g86
atp559
a(g189
(dp560
g189
F1.0
s(lp561
g189
atp562
asS'de'
p563
(lp564
(S'die'
p565
(dp566
S'PRON'
p567
F0.006188
sS'DET'
p568
F0.993167
s(lp569
tp570
a(S'pr\xc3\xbcfung'
p571
(dp572
S'ADJ'
p573
F0.009734
sS'NOUN'
p574
F0.976397
s(lp575
tp576
a(S'der'
p577
(dp578
S'PRON'
p579
F0.000129
sS'DET'
p580
F0.999823
s(lp581
tp582
a(S'rechtsvorschriften'
p583
(dp584
S'NOUN'
p585
F0.327542
sS'ADJ'
p586
F0.659798
s(lp587
g9
atp588
a(S'ist'
p589
(dp590
S'VERB'
p591
F1.0
s(lp592
g26
atp593
a(S'ein'
p594
(dp595
S'NUM'
p596
F0.000194
sS'DET'
p597
F0.999806
s(lp598
g34
atp599
a(S'wichtiger'
p600
(dp601
S'ADJ'
p602
F1.0
s(lp603
g53
atp604
a(S'technischer'
p605
(dp606
S'ADJ'
p607
F1.0
s(lp608
g47
atp609
a(S'prozess'
p610
(dp611
S'ADJ'
p612
F0.03911
sS'NOUN'
p613
F0.954582
s(lp614
g40
atp615
a(S'und'
p616
(dp617
S'CONJ'
p618
F1.0
s(lp619
g59
atp620
a(S'die'
p621
(dp622
S'PRON'
p623
F0.9879549999999999
s(lp624
g67
atp625
a(S'treffen'
p626
(dp627
S'VERB'
p628
F1.0
s(lp629
g73
atp630
a(S'haben'
p631
(dp632
S'VERB'
p633
F0.999929
s(lp634
g79
atp635
a(S'bereits'
p636
(dp637
S'ADV'
p638
F1.0
s(lp639
g296
atp640
a(S'heikle'
p641
(dp642
S'ADJ'
p643
F1.0
s(lp644
g114
atp645
a(S'punkte'
p646
(dp647
S'VERB'
p648
F1.0
s(lp649
g120
atp650
a(S'und'
p651
(dp652
S'CONJ'
p653
F1.0
s(lp654
g131
atp655
a(S'herausforderungen'
p656
(dp657
S'VERB'
p658
F0.016723
sS'NOUN'
p659
F0.979815
s(lp660
g144
atp661
a(S'in'
p662
(dp663
S'ADP'
p664
F1.0
s(lp665
g151
atp666
a(S'entscheidenden'
p667
(dp668
S'ADJ'
p669
F1.0
s(lp670
g159
atp671
a(S'verhandlungskapiteln'
p672
(dp673
S'ADJ'
p674
F2.2e-05
sS'NOUN'
p675
F0.999945
s(lp676
g166
atp677
a(S'entdeckt'
p678
(dp679
S'VERB'
p680
F1.0
s(lp681
g86
atp682
a(S';'
p683
(dp684
g189
F1.0
s(lp685
g187
atp686
a(S'darunter'
p687
(dp688
S'ADV'
p689
F0.999983
s(lp690
g196
atp691
a(S'landwirtschaft'
p692
(dp693
S'VERB'
p694
F0.193713
sS'ADJ'
p695
F0.508615
s(lp696
g209
atp697
a(g187
(dp698
g189
F1.0
s(lp699
g187
atp700
a(S'umwelt'
p701
(dp702
S'NOUN'
p703
F0.37102
sS'ADJ'
p704
F0.476487
s(lp705
g225
atp706
a(S'und'
p707
(dp708
S'CONJ'
p709
F1.0
s(lp710
g231
atp711
a(S'fischerei'
p712
(dp713
S'VERB'
p714
F0.66434
sS'NOUN'
p715
F0.1536
s(lp716
g245
atp717
a(g189
(dp718
g189
F1.0
s(lp719
g189
atp720
asS'it'
p721
(lp722
(S'lo'
p723
(dp724
S'PRON'
p725
F0.012805
sS'DET'
p726
F0.987195
s(lp727
tp728
a(S'screening'
p729
(dp730
S'NOUN'
p731
F1.0
s(lp732
g9
atp733
a(S'\xc3\xa8'
p734
(dp735
S'VERB'
p736
F1.0
s(lp737
g26
atp738
a(S'un'
p739
(dp740
S'PRON'
p741
F0.001162
sS'DEF'
p742
F0.998838
s(lp743
g34
atp744
a(S'processo'
p745
(dp746
S'VERB'
p747
F4e-06
sS'NOUN'
p748
F0.999996
s(lp749
g40
atp750
a(S'importante'
p751
(dp752
S'NOUN'
p753
F0.005026
sS'VERB'
p754
F0.018633
sS'ADJ'
p755
F0.976341
s(lp756
g53
atp757
a(S'e'
p758
(dp759
S'CONJ'
p760
F1.0
s(lp761
g59
atp762
a(S'gli'
p763
(dp764
S'PRON'
p765
F0.004121
sS'DET'
p766
F0.995879
s(lp767
g67
atp768
a(S'incontri'
p769
(dp770
S'VERB'
p771
F0.003763
sS'NOUN'
p772
F0.996237
s(lp773
g73
atp774
a(S'tecnici'
p775
(dp776
S'NOUN'
p777
F0.053089
sS'ADJ'
p778
F0.946911
s(lp779
g47
atp780
a(S'hanno'
p781
(dp782
S'VERB'
p783
F1.0
s(lp784
g79
atp785
a(S'gi\xc3\xa0'
p786
(dp787
S'ADV'
p788
F1.0
s(lp789
g296
atp790
a(S'individuato'
p791
(dp792
S'VERB'
p793
F1.0
s(lp794
g86
atp795
a(S'questioni'
p796
(dp797
S'VERB'
p798
F0.001266
sS'NOUN'
p799
F0.998735
s(lp800
g120
atp801
a(S'delicate'
p802
(dp803
S'ADJ'
p804
F1.0
s(lp805
g114
atp806
a(g758
(dp807
S'CONJ'
p808
F1.0
s(lp809
g131
atp810
a(S'sfide'
p811
(dp812
S'NOUN'
p813
F1.0
s(lp814
g144
atp815
a(S'in'
p816
(dp817
S'ADP'
p818
F1.0
s(lp819
g151
atp820
a(S'capitoli'
p821
(dp822
S'VERB'
p823
F0.0034959999999999995
sS'NOUN'
p824
F0.996505
s(lp825
g166
atp826
a(S'fondamentali'
p827
(dp828
S'ADJ'
p829
F1.0
s(lp830
g159
atp831
a(S'quali'
p832
(dp833
S'PRON'
p834
F0.997454
sS'ADJ'
p835
F0.002546
s(lp836
g196
atp837
a(S"l'"
p838
(dp839
S'NOUN'
p840
F0.003012
sS'VERB'
p841
F0.9869899999999999
sS'ADJ'
p842
F0.009999
s(lp843
tp844
a(S'agricoltura'
p845
(dp846
S'NOUN'
p847
F1.0
s(lp848
g209
atp849
a(g187
(dp850
g189
F1.0
s(lp851
g187
atp852
a(S"l'"
p853
(dp854
S'NOUN'
p855
F0.003774
sS'VERB'
p856
F0.984512
sS'ADJ'
p857
F0.011715
s(lp858
tp859
a(S'ambiente'
p860
(dp861
S'NOUN'
p862
F1.0
s(lp863
g225
atp864
a(g758
(dp865
S'CONJ'
p866
F1.0
s(lp867
g231
atp868
a(S'la'
p869
(dp870
S'PRON'
p871
F0.000586
sS'DET'
p872
F0.999414
s(lp873
tp874
a(S'pesca'
p875
(dp876
S'VERB'
p877
F0.000202
sS'NOUN'
p878
F0.999798
s(lp879
g245
atp880
a(g189
(dp881
g189
F1.0
s(lp882
g189
atp883
asS'sk'
p884
(lp885
(S'preverovanie'
p886
(dp887
S'NOUN'
p888
F1.0
s(lp889
g9
atp890
a(S'je'
p891
(dp892
S'PRON'
p893
F3.7e-05
sS'VERB'
p894
F0.999925
sS'X'
p895
F3.8e-05
s(lp896
g26
atp897
a(S'd\xc3\xb4le\xc5\xbeit\xc3\xbd'
p898
(dp899
S'ADJ'
p900
F1.0
s(lp901
g53
atp902
a(S'technick\xc3\xbd'
p903
(dp904
S'ADJ'
p905
F1.0
s(lp906
g47
atp907
a(S'proces'
p908
(dp909
S'NOUN'
p910
F1.0
s(lp911
g40
atp912
a(g187
(dp913
g189
F1.0
s(lp914
tp915
a(S'pri\xc4\x8dom'
p916
(dp917
S'CONJ'
p918
F1.0
s(lp919
g59
atp920
a(S'na'
p921
(dp922
g895
F0.00011800000000000001
sS'CONJ'
p923
F4.9e-05
sS'ADP'
p924
F0.999776
sS'PRT'
p925
F5.7e-05
s(lp926
g67
atp927
a(S'stretnutiach'
p928
(dp929
S'NOUN'
p930
F1.0
s(lp931
g73
atp932
a(S'sa'
p933
(dp934
S'PRT'
p935
F0.999939
sS'ADP'
p936
F9e-06
sg895
F5.2e-05
s(lp937
g79
atp938
a(S'u\xc5\xbe'
p939
(dp940
S'ADV'
p941
F0.372711
sg895
F0.62726
sS'CONJ'
p942
F2.9e-05
s(lp943
g296
atp944
a(S'podarilo'
p945
(dp946
S'VERB'
p947
F0.9999999999999999
s(lp948
tp949
a(S'odhali\xc5\xa5'
p950
(dp951
S'VERB'
p952
F1.0
s(lp953
g86
atp954
a(S'citliv\xc3\xa9'
p955
(dp956
S'ADJ'
p957
F1.0
s(lp958
g114
atp959
a(S'ot\xc3\xa1zky'
p960
(dp961
S'NOUN'
p962
F1.0
s(lp963
g120
atp964
a(S'a'
p965
(dp966
g895
F0.000821
sS'CONJ'
p967
F0.998572
sS'NOUN'
p968
F5.8e-05
sS'ADP'
p969
F0.000485
sS'PRT'
p970
F6.3e-05
s(lp971
g131
atp972
a(S'probl\xc3\xa9my'
p973
(dp974
g895
F0.000585
sS'NOUN'
p975
F0.999415
s(lp976
g144
atp977
a(S'v'
p978
(dp979
g895
F0.00013000000000000002
sS'ADP'
p980
F0.99987
s(lp981
g151
atp982
a(S'r\xc3\xa1mci'
p983
(dp984
S'NOUN'
p985
F1.0
s(lp986
tp987
a(S'k\xc4\xbe\xc3\xba\xc4\x8dov\xc3\xbdch'
p988
(dp989
S'ADJ'
p990
F1.0
s(lp991
g159
atp992
a(S'kapitol'
p993
(dp994
S'NOUN'
p995
F1.0
s(lp996
g166
atp997
a(g187
(dp998
g189
F1.0
s(lp999
g187
atp1000
a(S'ako'
p1001
(dp1002
S'PRON'
p1003
F0.058767
sS'CONJ'
p1004
F0.941089
sg895
F0.000144
s(lp1005
g180
atp1006
a(S's\xc3\xba'
p1007
(dp1008
S'VERB'
p1009
F1.0
s(lp1010
tp1011
a(S'napr\xc3\xadklad'
p1012
(dp1013
g895
F1.0
s(lp1014
g196
atp1015
a(S'po\xc4\xbenohospod\xc3\xa1rstvo'
p1016
(dp1017
S'NOUN'
p1018
F1.0
s(lp1019
g209
atp1020
a(g187
(dp1021
g189
F1.0
s(lp1022
g187
atp1023
a(S'\xc5\xbeivotn\xc3\xa9'
p1024
(dp1025
S'ADJ'
p1026
F1.0
s(lp1027
tp1028
a(S'prostredie'
p1029
(dp1030
S'NOUN'
p1031
F1.0
s(lp1032
g225
atp1033
a(g965
(dp1034
g895
F0.001131
sS'CONJ'
p1035
F0.998071
sS'NOUN'
p1036
F0.000173
sS'ADP'
p1037
F0.000598
sS'PRT'
p1038
F2.6e-05
s(lp1039
g231
atp1040
a(S'rybn\xc3\xa9'
p1041
(dp1042
S'ADJ'
p1043
F1.0
s(lp1044
tp1045
a(S'hospod\xc3\xa1rstvo'
p1046
(dp1047
S'NOUN'
p1048
F1.0
s(lp1049
g245
atp1050
a(g189
(dp1051
g189
F1.0
s(lp1052
g189
atp1053
asS'pl'
p1054
(lp1055
(S'screening'
p1056
(dp1057
g895
F0.003186
sS'NOUN'
p1058
F0.9968130000000001
s(lp1059
g9
atp1060
a(S'to'
p1061
(dp1062
S'NOUN'
p1063
F0.044804
sS'ADP'
p1064
F1e-06
sS'PRT'
p1065
F0.146772
sg895
F0.000609
sS'CONJ'
p1066
F0.257954
sS'ADJ'
p1067
F0.549861
s(lp1068
g26
atp1069
a(S'istotny'
p1070
(dp1071
S'ADJ'
p1072
F1.0
s(lp1073
g53
atp1074
a(S'proces'
p1075
(dp1076
S'NOUN'
p1077
F1.0
s(lp1078
g40
atp1079
a(S'techniczny'
p1080
(dp1081
S'ADJ'
p1082
F1.0
s(lp1083
g47
atp1084
a(g187
(dp1085
g895
F1e-06
sg189
F0.999999
s(lp1086
tp1087
a(S'za\xc5\x9b'
p1088
(dp1089
S'PRT'
p1090
F0.003993
sS'CONJ'
p1091
F0.996007
s(lp1092
g59
atp1093
a(S'w'
p1094
(dp1095
S'ADJ'
p1096
F0.0
sg895
F0.0
sS'NOUN'
p1097
F0.0
sS'ADP'
p1098
F1.0
s(lp1099
g67
atp1100
a(S'czasie'
p1101
(dp1102
S'NOUN'
p1103
F1.0
s(lp1104
tp1105
a(S'spotka\xc5\x84'
p1106
(dp1107
S'NOUN'
p1108
F1.0
s(lp1109
g73
atp1110
a(S'zidentyfikowano'
p1111
(dp1112
S'VERB'
p1113
F1.0
s(lp1114
g86
atp1115
a(S'ju\xc5\xbc'
p1116
(dp1117
S'PRT'
p1118
F1.0
s(lp1119
g296
atp1120
a(S'delikatne'
p1121
(dp1122
S'ADJ'
p1123
F1.0
s(lp1124
g114
atp1125
a(S'kwestie'
p1126
(dp1127
S'NOUN'
p1128
F1.0
s(lp1129
g120
atp1130
a(S'i'
p1131
(dp1132
S'PRT'
p1133
F0.001141
sS'CONJ'
p1134
F0.998836
sS'NOUN'
p1135
F1.3e-05
sg895
F2e-06
sS'PRON'
p1136
F8.000000000000001e-06
s(lp1137
g131
atp1138
a(S'wyzwania'
p1139
(dp1140
S'NOUN'
p1141
F1.0
s(lp1142
g144
atp1143
a(g1094
(dp1144
S'ADJ'
p1145
F0.0
sg895
F0.0
sS'NOUN'
p1146
F0.0
sS'ADP'
p1147
F0.9999990000000001
s(lp1148
g151
atp1149
a(S'kluczowych'
p1150
(dp1151
S'ADJ'
p1152
F1.0
s(lp1153
g159
atp1154
a(S'rozdzia\xc5\x82ach'
p1155
(dp1156
S'NOUN'
p1157
F1.0
s(lp1158
g166
atp1159
a(g187
(dp1160
g895
F0.0
sg189
F1.0
s(lp1161
g187
atp1162
a(S'takich'
p1163
(dp1164
S'ADJ'
p1165
F1.0
s(lp1166
g196
atp1167
a(S'jak'
p1168
(dp1169
S'ADV'
p1170
F0.09309100000000001
sS'PRT'
p1171
F0.000163
sS'CONJ'
p1172
F0.038696
sS'ADP'
p1173
F0.868047
sS'PRON'
p1174
F3e-06
s(lp1175
g180
atp1176
a(S'rolnictwo'
p1177
(dp1178
S'NOUN'
p1179
F1.0
s(lp1180
g209
atp1181
a(g187
(dp1182
g895
F0.0
sg189
F1.0
s(lp1183
g187
atp1184
a(S'\xc5\x9brodowisko'
p1185
(dp1186
S'NOUN'
p1187
F1.0
s(lp1188
g225
atp1189
a(g1131
(dp1190
S'PRT'
p1191
F0.012585
sS'CONJ'
p1192
F0.987323
sS'PRON'
p1193
F2.3e-05
sS'NOUN'
p1194
F1.1e-05
sg895
F5.9e-05
s(lp1195
g231
atp1196
a(S'rybo\xc5\x82\xc3\xb3wstwo'
p1197
(dp1198
S'ADV'
p1199
F0.585424
sS'ADJ'
p1200
F0.001881
sS'VERB'
p1201
F0.011556
sS'NOUN'
p1202
F0.40113699999999997
s(lp1203
g245
atp1204
a(g189
(dp1205
g189
F1.0
s(lp1206
g189
atp1207
asS'sl'
p1208
(lp1209
(S'pregled'
p1210
(dp1211
S'NOUN'
p1212
F1.0
s(lp1213
g9
atp1214
a(S'je'
p1215
(dp1216
S'PRON'
p1217
F0.000141
sS'VERB'
p1218
F0.999831
sg895
F2.8e-05
s(lp1219
g26
atp1220
a(S'pomemben'
p1221
(dp1222
S'ADJ'
p1223
F1.0
s(lp1224
g53
atp1225
a(S'tehni\xc4\x8dni'
p1226
(dp1227
S'ADJ'
p1228
F1.000001
s(lp1229
g47
atp1230
a(S'proces'
p1231
(dp1232
S'NOUN'
p1233
F1.0
s(lp1234
g40
atp1235
a(g187
(dp1236
g189
F1.0
s(lp1237
tp1238
a(S'na'
p1239
(dp1240
S'ADP'
p1241
F1.0
s(lp1242
g67
atp1243
a(S'sestankih'
p1244
(dp1245
S'NOUN'
p1246
F1.0
s(lp1247
g73
atp1248
a(S'pa'
p1249
(dp1250
g895
F7e-06
sS'CONJ'
p1251
F0.999993
s(lp1252
g59
atp1253
a(S'smo'
p1254
(dp1255
g895
F1.1e-05
sS'VERB'
p1256
F0.999989
s(lp1257
g79
atp1258
a(S'\xc5\xbee'
p1259
(dp1260
S'PRT'
p1261
F1.0
s(lp1262
g296
atp1263
a(S'opredelili'
p1264
(dp1265
S'VERB'
p1266
F1.0
s(lp1267
g86
atp1268
a(S'ob\xc4\x8dutljiva'
p1269
(dp1270
S'ADJ'
p1271
F1.0
s(lp1272
g114
atp1273
a(S'vpra\xc5\xa1anja'
p1274
(dp1275
S'NOUN'
p1276
F1.0
s(lp1277
g120
atp1278
a(S'in'
p1279
(dp1280
S'ADV'
p1281
F3.2e-05
sg895
F1.3e-05
sS'CONJ'
p1282
F0.999951
sS'NOUN'
p1283
F4e-06
s(lp1284
g131
atp1285
a(S'izzive'
p1286
(dp1287
S'NOUN'
p1288
F1.0
s(lp1289
g144
atp1290
a(g978
(dp1291
S'ADP'
p1292
F1.0
s(lp1293
g151
atp1294
a(S'klju\xc4\x8dnih'
p1295
(dp1296
S'ADJ'
p1297
F1.0
s(lp1298
g159
atp1299
a(S'poglavjih'
p1300
(dp1301
S'NOUN'
p1302
F1.0
s(lp1303
g166
atp1304
a(g187
(dp1305
g189
F1.0
s(lp1306
g187
atp1307
a(S'kot'
p1308
(dp1309
S'CONJ'
p1310
F0.99999
sS'NOUN'
p1311
F9.999999999999999e-06
s(lp1312
g180
atp1313
a(S'smo'
p1314
(dp1315
g895
F1.9e-05
sS'VERB'
p1316
F0.999981
s(lp1317
g196
atp1318
a(S'kmetijstvo'
p1319
(dp1320
S'NOUN'
p1321
F1.0
s(lp1322
g209
atp1323
a(g187
(dp1324
g189
F1.0
s(lp1325
g187
atp1326
a(S'okolje'
p1327
(dp1328
S'NOUN'
p1329
F1.0
s(lp1330
g225
atp1331
a(S'in'
p1332
(dp1333
S'ADV'
p1334
F2.4e-05
sg895
F7e-06
sS'CONJ'
p1335
F0.999964
sS'NOUN'
p1336
F4e-06
s(lp1337
g231
atp1338
a(S'ribi\xc5\xa1tvo'
p1339
(dp1340
S'NOUN'
p1341
F1.0
s(lp1342
g245
atp1343
a(g189
(dp1344
g189
F1.0
s(lp1345
g189
atp1346
asS'es'
p1347
(lp1348
(S'la'
p1349
(dp1350
g895
F4.5e-05
sS'DET'
p1351
F0.999917
sS'NOUN'
p1352
F0.0
sS'PRON'
p1353
F3.8e-05
s(lp1354
tp1355
a(S'selecci\xc3\xb3n'
p1356
(dp1357
S'NOUN'
p1358
F1.0
s(lp1359
g9
atp1360
a(S'es'
p1361
(dp1362
S'VERB'
p1363
F1.0
s(lp1364
g26
atp1365
a(S'un'
p1366
(dp1367
g895
F4e-06
sS'DET'
p1368
F0.999996
s(lp1369
g34
atp1370
a(S'proceso'
p1371
(dp1372
S'NOUN'
p1373
F1.0
s(lp1374
g40
atp1375
a(S't\xc3\xa9cnico'
p1376
(dp1377
S'NOUN'
p1378
F0.034644
sS'ADJ'
p1379
F0.965356
s(lp1380
g47
atp1381
a(S'importante'
p1382
(dp1383
S'VERB'
p1384
F0.195978
sS'ADJ'
p1385
F0.804022
s(lp1386
g53
atp1387
a(S'y'
p1388
(dp1389
g895
F9.7e-05
sS'CONJ'
p1390
F0.999903
s(lp1391
g59
atp1392
a(S'las'
p1393
(dp1394
S'PRON'
p1395
F0.000237
sS'DET'
p1396
F0.999763
s(lp1397
g67
atp1398
a(S'reuniones'
p1399
(dp1400
S'NOUN'
p1401
F1.0
s(lp1402
g73
atp1403
a(S'ya'
p1404
(dp1405
S'ADV'
p1406
F1.0
s(lp1407
g296
atp1408
a(S'han'
p1409
(dp1410
S'VERB'
p1411
F1.0
s(lp1412
g79
atp1413
a(S'determinado'
p1414
(dp1415
S'VERB'
p1416
F0.959015
sS'ADJ'
p1417
F0.040985
s(lp1418
g86
atp1419
a(S'cuestiones'
p1420
(dp1421
S'NOUN'
p1422
F1.0
s(lp1423
g120
atp1424
a(g1388
(dp1425
g895
F0.001008
sS'CONJ'
p1426
F0.998992
s(lp1427
g131
atp1428
a(S'desaf\xc3\xados'
p1429
(dp1430
S'NOUN'
p1431
F1.0
s(lp1432
g144
atp1433
a(S'delicados'
p1434
(dp1435
S'ADJ'
p1436
F1.0
s(lp1437
g114
atp1438
a(S'en'
p1439
(dp1440
g895
F2e-05
sS'CONJ'
p1441
F3.2e-05
sS'ADP'
p1442
F0.999949
s(lp1443
g151
atp1444
a(S'cap\xc3\xadtulos'
p1445
(dp1446
S'NOUN'
p1447
F1.0
s(lp1448
g166
atp1449
a(S'fundamentales'
p1450
(dp1451
S'ADJ'
p1452
F1.0
s(lp1453
g159
atp1454
a(g187
(dp1455
g189
F1.0
s(lp1456
g187
atp1457
a(S'como'
p1458
(dp1459
S'ADV'
p1460
F0.644644
sS'CONJ'
p1461
F0.35535599999999995
s(lp1462
tp1463
a(g187
(dp1464
g189
F1.0
s(lp1465
tp1466
a(S'por'
p1467
(dp1468
S'ADV'
p1469
F1.0
s(lp1470
g180
atp1471
a(S'ejemplo'
p1472
(dp1473
S'ADV'
p1474
F1.0
s(lp1475
g196
atp1476
a(g187
(dp1477
g189
F1.0
s(lp1478
g187
atp1479
a(S'la'
p1480
(dp1481
S'PRON'
p1482
F3.5e-05
sS'DET'
p1483
F0.999959
sS'NOUN'
p1484
F0.0
sg895
F5e-06
s(lp1485
tp1486
a(S'agricultura'
p1487
(dp1488
S'NOUN'
p1489
F1.0
s(lp1490
g209
atp1491
a(g187
(dp1492
g189
F1.0
s(lp1493
g187
atp1494
a(S'el'
p1495
(dp1496
S'PRON'
p1497
F1.9e-05
sS'DET'
p1498
F0.999981
s(lp1499
tp1500
a(S'medio'
p1501
(dp1502
S'ADV'
p1503
F0.000202
sS'ADJ'
p1504
F0.030140999999999998
sS'NOUN'
p1505
F0.969657
s(lp1506
tp1507
a(S'ambiente'
p1508
(dp1509
S'NOUN'
p1510
F0.010208
sS'VERB'
p1511
F0.000512
sS'ADJ'
p1512
F0.989281
s(lp1513
g225
atp1514
a(g1388
(dp1515
g895
F0.000115
sS'CONJ'
p1516
F0.999885
s(lp1517
g231
atp1518
a(S'la'
p1519
(dp1520
S'PRON'
p1521
F0.041096999999999995
sS'DET'
p1522
F0.958901
sS'NOUN'
p1523
F0.0
sg895
F1e-06
s(lp1524
tp1525
a(S'pesca'
p1526
(dp1527
S'VERB'
p1528
F0.040853
sS'NOUN'
p1529
F0.959147
s(lp1530
g245
atp1531
a(g189
(dp1532
g189
F1.0
s(lp1533
g189
atp1534
as.