(dp0
S'fr'
p1
(lp2
(S'la'
p3
(dp4
S'PRON'
p5
F8.2e-05
sS'DET'
p6
F0.999918
sS'NOUN'
p7
F0.0
s(lp8
S'the'
p9
atp10
a(S'commission'
p11
(dp12
S'NOUN'
p13
F1.0
s(lp14
S'commission'
p15
atp16
a(S'europ\xc3\xa9enne'
p17
(dp18
S'NOUN'
p19
F0.015266
sS'ADJ'
p20
F0.984734
s(lp21
S'european'
p22
atp23
a(S'suit'
p24
(dp25
S'VERB'
p26
F1.0
s(lp27
S'following'
p28
atp29
a(S'de'
p30
(dp31
S'ADP'
p32
F1.0
s(lp33
S"'s"
p34
atp35
a(S'tr\xc3\xa8s'
p36
(dp37
S'ADV'
p38
F1.0
s(lp39
S'very'
p40
atp41
a(S'pr\xc3\xa8s'
p42
(dp43
S'ADV'
p44
F1.0
s(lp45
S'closely'
p46
atp47
a(S'le'
p48
(dp49
S'PRON'
p50
F2.3e-05
sS'DET'
p51
F0.999977
s(lp52
tp53
a(S'second'
p54
(dp55
S'NUM'
p56
F0.8535
sS'NOUN'
p57
F0.1465
s(lp58
S'second'
p59
atp60
a(S'proc\xc3\xa8s'
p61
(dp62
S'NOUN'
p63
F1.0
s(lp64
S'trial'
p65
atp66
a(S','
p67
(dp68
S'.'
p69
F1.0
s(lp70
tp71
a(S'en'
p72
(dp73
S'PRON'
p74
F0.011579
sS'ADP'
p75
F0.988421
s(lp76
tp77
a(S'cours'
p78
(dp79
S'VERB'
p80
F0.005841
sS'NOUN'
p81
F0.994159
s(lp82
S'ongoing'
p83
atp84
a(g67
(dp85
g69
F1.0
s(lp86
tp87
a(S'de'
p88
(dp89
S'ADP'
p90
F1.0
s(lp91
g34
atp92
a(S'm.'
p93
(dp94
S'X'
p95
F0.364602
sS'VERB'
p96
F0.270689
sS'ADJ'
p97
F0.296968
sS'NOUN'
p98
F0.067742
s(lp99
S'mr'
p100
atp101
a(S'orlov'
p102
(dp103
S'ADJ'
p104
F0.003915
sS'NOUN'
p105
F0.996085
s(lp106
S'orlov'
p107
atp108
a(g69
(dp109
g69
F1.0
s(lp110
g69
atp111
asS'en'
p112
(lp113
(g9
(dp114
S'NOUN'
p115
F3e-06
sS'DET'
p116
F0.999997
s(lp117
g9
atp118
a(g22
(dp119
S'NOUN'
p120
F0.108814
sS'VERB'
p121
F1.1e-05
sS'ADJ'
p122
F0.891175
s(lp123
g22
atp124
a(g15
(dp125
S'VERB'
p126
F3e-06
sS'NOUN'
p127
F0.999997
s(lp128
g15
atp129
a(S'is'
p130
(dp131
S'VERB'
p132
F1.0
s(lp133
g130
atp134
a(g28
(dp135
S'VERB'
p136
F0.999553
sS'NOUN'
p137
F0.000447
s(lp138
g28
atp139
a(g100
(dp140
S'ADJ'
p141
F0.003577
sS'NOUN'
p142
F0.996422
s(lp143
g100
atp144
a(g107
(dp145
S'ADV'
p146
F1e-06
sS'ADJ'
p147
F3e-06
sS'VERB'
p148
F3.2999999999999996e-05
sS'NOUN'
p149
F0.9999629999999999
s(lp150
g107
atp151
a(g34
(dp152
S'PRT'
p153
F0.997639
sg69
F0.002361
s(lp154
g34
atp155
a(g83
(dp156
S'ADJ'
p157
F1.0
s(lp158
g83
atp159
a(g59
(dp160
S'ADV'
p161
F7.6e-05
sS'NOUN'
p162
F0.034416
sS'VERB'
p163
F1e-06
sS'ADJ'
p164
F0.965507
s(lp165
g59
atp166
a(g65
(dp167
S'NOUN'
p168
F1.0
s(lp169
g65
atp170
a(g40
(dp171
S'ADV'
p172
F0.999286
sS'ADJ'
p173
F0.000714
s(lp174
g40
atp175
a(g46
(dp176
S'ADV'
p177
F1.0
s(lp178
g46
atp179
a(g69
(dp180
g69
F1.0
s(lp181
g69
atp182
asS'nl'
p183
(lp184
(S'de'
p185
(dp186
S'DET'
p187
F1.0
s(lp188
g9
atp189
a(S'europese'
p190
(dp191
S'NOUN'
p192
F1.0
s(lp193
g22
atp194
a(S'commissie'
p195
(dp196
S'NOUN'
p197
F1.0
s(lp198
g15
atp199
a(S'houdt'
p200
(dp201
S'VERB'
p202
F1.0
s(lp203
g130
atp204
a(S'het'
p205
(dp206
S'PRON'
p207
F0.001075
sS'DET'
p208
F0.998926
s(lp209
tp210
a(S'tweede'
p211
(dp212
S'NUM'
p213
F1.0
s(lp214
g59
atp215
a(S'proces'
p216
(dp217
S'NOUN'
p218
F1.0
s(lp219
g65
atp220
a(S'van'
p221
(dp222
S'ADP'
p223
F1.0
s(lp224
g34
atp225
a(S'de'
p226
(dp227
S'DET'
p228
F1.0
s(lp229
tp230
a(S'heer'
p231
(dp232
S'NOUN'
p233
F1.0
s(lp234
g100
atp235
a(S'orlov'
p236
(dp237
S'ADJ'
p238
F0.199477
sS'NOUN'
p239
F0.8005229999999999
s(lp240
g107
atp241
a(g67
(dp242
g69
F1.0
s(lp243
tp244
a(S'dat'
p245
(dp246
S'PRON'
p247
F0.45438
sS'CONJ'
p248
F0.54562
s(lp249
tp250
a(S'op'
p251
(dp252
S'ADV'
p253
F0.004559
sS'ADJ'
p254
F0.0
sS'ADP'
p255
F0.99544
s(lp256
tp257
a(S'dit'
p258
(dp259
S'PRON'
p260
F1.0
s(lp261
g40
atp262
a(S'moment'
p263
(dp264
S'NOUN'
p265
F1.0
s(lp266
tp267
a(S'loopt'
p268
(dp269
S'VERB'
p270
F1.0
s(lp271
g107
atp272
a(g67
(dp273
g69
F1.0
s(lp274
tp275
a(S'nauwlettend'
p276
(dp277
S'ADJ'
p278
F1.0
s(lp279
tp280
a(S'in'
p281
(dp282
S'ADV'
p283
F0.002249
sS'VERB'
p284
F6e-06
sS'ADP'
p285
F0.997744
s(lp286
g28
atp287
a(S'de'
p288
(dp289
S'DET'
p290
F1.0
s(lp291
tp292
a(S'gaten'
p293
(dp294
S'NOUN'
p295
F1.0
s(lp296
g46
atp297
a(g69
(dp298
g69
F1.0
s(lp299
g69
atp300
asS'de'
p301
(lp302
(S'die'
p303
(dp304
S'PRON'
p305
F0.004888
sS'DET'
p306
F0.994789
s(lp307
g9
atp308
a(S'europ\xc3\xa4ische'
p309
(dp310
S'ADJ'
p311
F1.0
s(lp312
g22
atp313
a(S'kommission'
p314
(dp315
S'ADJ'
p316
F0.002473
sS'NOUN'
p317
F0.995569
s(lp318
g15
atp319
a(S'verfolgt'
p320
(dp321
S'VERB'
p322
F1.0
s(lp323
g28
atp324
a(S'den'
p325
(dp326
S'PRON'
p327
F0.00137
sS'DET'
p328
F0.99862
s(lp329
tp330
a(S'andauernden'
p331
(dp332
S'ADJ'
p333
F1.0
s(lp334
g83
atp335
a(S'zweiten'
p336
(dp337
S'ADJ'
p338
F1.0
s(lp339
g59
atp340
a(S'prozess'
p341
(dp342
S'ADJ'
p343
F0.00229
sS'NOUN'
p344
F0.995667
s(lp345
g65
atp346
a(S'von'
p347
(dp348
S'NOUN'
p349
F0.000603
sS'ADP'
p350
F0.999397
s(lp351
g34
atp352
a(S'herrn'
p353
(dp354
S'ADJ'
p355
F0.004733
sS'NOUN'
p356
F0.995178
s(lp357
g100
atp358
a(S'orlov'
p359
(dp360
S'VERB'
p361
F0.024256
sS'NOUN'
p362
F0.972173
s(lp363
g107
atp364
a(S'sehr'
p365
(dp366
S'ADV'
p367
F1.0
s(lp368
g40
atp369
a(S'aufmerksam'
p370
(dp371
S'ADJ'
p372
F1.0
s(lp373
g46
atp374
a(g69
(dp375
g69
F1.0
s(lp376
g69
atp377
asS'it'
p378
(lp379
(S'la'
p380
(dp381
S'PRON'
p382
F0.000408
sS'DET'
p383
F0.999592
s(lp384
g9
atp385
a(S'commissione'
p386
(dp387
S'NOUN'
p388
F1.0
s(lp389
g15
atp390
a(S'europea'
p391
(dp392
S'NOUN'
p393
F0.003863
sS'ADJ'
p394
F0.996137
s(lp395
g22
atp396
a(S'sta'
p397
(dp398
S'VERB'
p399
F1.0
s(lp400
g130
atp401
a(S'seguendo'
p402
(dp403
S'VERB'
p404
F1.0
s(lp405
tp406
a(S'da'
p407
(dp408
S'ADP'
p409
F1.0
s(lp410
tp411
a(S'vicino'
p412
(dp413
S'ADV'
p414
F0.196836
sS'NOUN'
p415
F0.002863
sS'ADJ'
p416
F0.798959
sS'ADP'
p417
F0.001343
s(lp418
g46
atp419
a(S'il'
p420
(dp421
S'DET'
p422
F1.0
s(lp423
tp424
a(S'secondo'
p425
(dp426
S'ADV'
p427
F0.000373
sS'NOUN'
p428
F0.000814
sS'VERB'
p429
F3.1e-05
sS'ADJ'
p430
F0.99837
sS'ADP'
p431
F0.000412
s(lp432
g59
atp433
a(S'processo'
p434
(dp435
S'VERB'
p436
F0.001649
sS'NOUN'
p437
F0.998351
s(lp438
tp439
a(S'in'
p440
(dp441
S'ADP'
p442
F1.0
s(lp443
tp444
a(S'corso'
p445
(dp446
S'ADJ'
p447
F0.010448
sS'VERB'
p448
F0.005782
sS'NOUN'
p449
F0.98377
s(lp450
g83
atp451
a(S'a'
p452
(dp453
S'CONJ'
p454
F0.000262
sS'ADP'
p455
F0.999738
s(lp456
g28
atp457
a(S'carico'
p458
(dp459
S'ADJ'
p460
F0.063903
sS'VERB'
p461
F9e-06
sS'NOUN'
p462
F0.936088
s(lp463
g65
atp464
a(S'del'
p465
(dp466
S'DEF'
p467
F0.001305
sS'ADP'
p468
F0.998695
s(lp469
g34
atp470
a(S'signor'
p471
(dp472
S'NOUN'
p473
F1.0
s(lp474
g100
atp475
a(S'orlov'
p476
(dp477
S'NOUN'
p478
F0.081345
sS'VERB'
p479
F0.000736
sS'ADJ'
p480
F0.91792
s(lp481
g107
atp482
a(g69
(dp483
g69
F1.0
s(lp484
g69
atp485
asS'sk'
p486
(lp487
(S'eur\xc3\xb3pska'
p488
(dp489
S'ADJ'
p490
F1.0
s(lp491
g22
atp492
a(S'komisia'
p493
(dp494
S'NOUN'
p495
F1.0
s(lp496
g15
atp497
a(S've\xc4\xbemi'
p498
(dp499
S'ADV'
p500
F1.0
s(lp501
g40
atp502
a(S'pozorne'
p503
(dp504
S'ADV'
p505
F1.0
s(lp506
g46
atp507
a(S'sleduje'
p508
(dp509
S'VERB'
p510
F1.0
s(lp511
g28
atp512
a(S'prebiehaj\xc3\xbaci'
p513
(dp514
S'VERB'
p515
F1.0
s(lp516
g83
atp517
a(S'druh\xc3\xbd'
p518
(dp519
g95
F0.004945
sS'NUM'
p520
F0.995055
s(lp521
g59
atp522
a(S'proces'
p523
(dp524
S'NOUN'
p525
F1.0
s(lp526
g65
atp527
a(S's'
p528
(dp529
g95
F0.002772
sS'CONJ'
p530
F6.6e-05
sS'NOUN'
p531
F1.4999999999999999e-05
sS'ADP'
p532
F0.997124
sS'PRT'
p533
F2.3e-05
s(lp534
g34
atp535
a(S'p\xc3\xa1nom'
p536
(dp537
S'NOUN'
p538
F1.0
s(lp539
g100
atp540
a(S'orlovom'
p541
(dp542
S'NOUN'
p543
F0.046277
sS'ADJ'
p544
F0.953723
s(lp545
g107
atp546
a(g69
(dp547
g69
F1.0
s(lp548
g69
atp549
asS'pl'
p550
(lp551
(S'komisja'
p552
(dp553
S'NOUN'
p554
F1.0
s(lp555
g15
atp556
a(S'europejska'
p557
(dp558
S'ADJ'
p559
F1.0
s(lp560
g22
atp561
a(S'z'
p562
(dp563
S'PRT'
p564
F8.2e-05
sS'VERB'
p565
F0.0
sS'NOUN'
p566
F0.0
sS'ADP'
p567
F0.999917
sg95
F0.0
s(lp568
g130
atp569
a(S'uwag\xc4\x85'
p570
(dp571
S'NOUN'
p572
F1.0
s(lp573
g107
atp574
a(S'przygl\xc4\x85da'
p575
(dp576
S'VERB'
p577
F1.0
s(lp578
g107
atp579
a(S'si\xc4\x99'
p580
(dp581
S'PRT'
p582
F1.0
s(lp583
tp584
a(S'tocz\xc4\x85cemu'
p585
(dp586
S'ADJ'
p587
F0.006512999999999999
sS'VERB'
p588
F0.9622550000000001
sS'NOUN'
p589
F0.031229
s(lp590
g107
atp591
a(S'si\xc4\x99'
p592
(dp593
S'PRT'
p594
F1.0
s(lp595
g83
atp596
a(S'drugiemu'
p597
(dp598
S'NOUN'
p599
F0.246977
sS'ADJ'
p600
F0.753023
s(lp601
g59
atp602
a(S'procesowi'
p603
(dp604
S'NOUN'
p605
F1.0
s(lp606
g65
atp607
a(S'pana'
p608
(dp609
S'NOUN'
p610
F1.0
s(lp611
tp612
a(S'or\xc5\x82owa'
p613
(dp614
S'ADJ'
p615
F0.012554000000000001
sS'VERB'
p616
F0.00945
sS'NOUN'
p617
F0.9779969999999999
s(lp618
g107
atp619
a(g69
(dp620
g69
F1.0
s(lp621
g69
atp622
asS'sl'
p623
(lp624
(S'evropska'
p625
(dp626
S'ADJ'
p627
F1.0
s(lp628
g22
atp629
a(S'komisija'
p630
(dp631
S'NOUN'
p632
F1.0
s(lp633
g15
atp634
a(S'zelo'
p635
(dp636
S'ADV'
p637
F1.0
s(lp638
g40
atp639
a(S'pozorno'
p640
(dp641
S'ADV'
p642
F1.0
s(lp643
g46
atp644
a(S'spremlja'
p645
(dp646
S'VERB'
p647
F1.0
s(lp648
g28
atp649
a(S'drugo'
p650
(dp651
S'NUM'
p652
F1.0
s(lp653
g59
atp654
a(S'sojenje'
p655
(dp656
S'NOUN'
p657
F1.0
s(lp658
g65
atp659
a(S'gospoda'
p660
(dp661
S'NOUN'
p662
F0.9999990000000001
s(lp663
g100
atp664
a(S'orlova'
p665
(dp666
S'ADV'
p667
F0.001485
sS'ADJ'
p668
F0.14584900000000003
sS'VERB'
p669
F0.031924
sS'NOUN'
p670
F0.8206800000000001
sS'PRON'
p671
F6.1e-05
s(lp672
g107
atp673
a(g69
(dp674
g69
F1.0
s(lp675
g69
atp676
asS'es'
p677
(lp678
(S'la'
p679
(dp680
g95
F4.5e-05
sS'DET'
p681
F0.999917
sS'NOUN'
p682
F0.0
sS'PRON'
p683
F3.8e-05
s(lp684
g9
atp685
a(S'comisi\xc3\xb3n'
p686
(dp687
S'NOUN'
p688
F1.0
s(lp689
g15
atp690
a(S'europea'
p691
(dp692
S'ADJ'
p693
F1.0
s(lp694
g22
atp695
a(S'sigue'
p696
(dp697
S'VERB'
p698
F1.0
s(lp699
g28
atp700
a(S'muy'
p701
(dp702
S'ADV'
p703
F1.0
s(lp704
g40
atp705
a(S'de'
p706
(dp707
g95
F0.0
sS'CONJ'
p708
F0.007352
sS'ADP'
p709
F0.992648
s(lp710
tp711
a(S'cerca'
p712
(dp713
S'ADV'
p714
F1.0
s(lp715
g46
atp716
a(S'el'
p717
(dp718
S'PRON'
p719
F0.0
sS'DET'
p720
F1.0
s(lp721
g34
atp722
a(S'segundo'
p723
(dp724
S'NOUN'
p725
F0.0018379999999999998
sS'ADJ'
p726
F0.998162
s(lp727
g59
atp728
a(S'juicio'
p729
(dp730
S'NOUN'
p731
F1.0
s(lp732
tp733
a(S'en'
p734
(dp735
g95
F1.8e-05
sS'CONJ'
p736
F1e-05
sS'ADP'
p737
F0.999972
s(lp738
tp739
a(S'curso'
p740
(dp741
S'NOUN'
p742
F1.0
s(lp743
g83
atp744
a(S'contra'
p745
(dp746
S'ADP'
p747
F1.0
s(lp748
g65
atp749
a(S'el'
p750
(dp751
S'PRON'
p752
F5e-06
sS'DET'
p753
F0.999995
s(lp754
tp755
a(S'se\xc3\xb1or'
p756
(dp757
S'NOUN'
p758
F1.0
s(lp759
g100
atp760
a(S'orlov'
p761
(dp762
S'ADJ'
p763
F0.224828
sS'VERB'
p764
F0.048271
sS'NOUN'
p765
F0.7269019999999999
s(lp766
g107
atp767
a(g69
(dp768
g69
F1.0
s(lp769
g69
atp770
as.