(dp0
S'fr'
p1
(lp2
(S"l'"
p3
(dp4
S'ADJ'
p5
F0.079749
sS'VERB'
p6
F0.5393100000000001
sS'NOUN'
p7
F0.380941
s(lp8
tp9
a(S'avis'
p10
(dp11
S'NOUN'
p12
F1.0
s(lp13
S'opinion'
p14
atp15
a(S'du'
p16
(dp17
S'ADP'
p18
F1.0
s(lp19
S"'s"
p20
atp21
a(S'parlement'
p22
(dp23
S'NOUN'
p24
F1.0
s(lp25
S'parliament'
p26
atp27
a(S'arrive'
p28
(dp29
S'VERB'
p30
F1.0
s(lp31
S'timely'
p32
atp33
a(S'donc'
p34
(dp35
S'ADV'
p36
F1.0
s(lp37
S'therefore'
p38
atp39
a(S'\xc3\xa0'
p40
(dp41
S'ADP'
p42
F1.0
s(lp43
g32
atp44
a(S'point'
p45
(dp46
S'ADV'
p47
F0.492499
sS'VERB'
p48
F0.000738
sS'NOUN'
p49
F0.506762
s(lp50
tp51
a(S'nomm\xc3\xa9'
p52
(dp53
S'VERB'
p54
F0.630169
sS'ADJ'
p55
F0.369831
s(lp56
g32
atp57
a(S'afin'
p58
(dp59
S'CONJ'
p60
F1.0
s(lp61
tp62
a(S'de'
p63
(dp64
S'ADP'
p65
F1.0
s(lp66
S'to'
p67
atp68
a(S'guider'
p69
(dp70
S'VERB'
p71
F1.0
s(lp72
S'guide'
p73
atp74
a(S'la'
p75
(dp76
S'PRON'
p77
F6e-06
sS'DET'
p78
F0.999994
sS'NOUN'
p79
F0.0
s(lp80
S'the'
p81
atp82
a(S'commission'
p83
(dp84
S'NOUN'
p85
F1.0
s(lp86
S'commission'
p87
atp88
a(S'et'
p89
(dp90
S'CONJ'
p91
F1.0
s(lp92
S'and'
p93
atp94
a(S'le'
p95
(dp96
S'PRON'
p97
F0.000549
sS'DET'
p98
F0.999451
s(lp99
S'the'
p100
atp101
a(S'conseil'
p102
(dp103
S'NOUN'
p104
F1.0
s(lp105
S'council'
p106
atp107
a(S'lorsque'
p108
(dp109
S'CONJ'
p110
F1.0
s(lp111
S'when'
p112
atp113
a(S'nous'
p114
(dp115
S'PRON'
p116
F1.0
s(lp117
S'we'
p118
atp119
a(S'd\xc3\xa9finirons'
p120
(dp121
S'VERB'
p122
F1.0
s(lp123
S'define'
p124
atp125
a(S'les'
p126
(dp127
S'PRON'
p128
F0.002195
sS'DET'
p129
F0.997772
sS'ADP'
p130
F3.3e-05
s(lp131
tp132
a(S'lignes'
p133
(dp134
S'VERB'
p135
F0.002146
sS'NOUN'
p136
F0.997854
s(lp137
tp138
a(S'directrices'
p139
(dp140
S'NOUN'
p141
F0.166954
sS'ADJ'
p142
F0.833046
s(lp143
S'directives'
p144
atp145
a(S'd\xc3\xa9finitives'
p146
(dp147
S'ADJ'
p148
F1.0
s(lp149
S'final'
p150
atp151
a(S'des'
p152
(dp153
S'DET'
p154
F2.2e-05
sS'ADP'
p155
F0.999978
s(lp156
S'respective'
p157
atp158
a(S'n\xc3\xa9gociations'
p159
(dp160
S'NOUN'
p161
F1.0
s(lp162
S'negotiation'
p163
atp164
a(S'.'
p165
(dp166
g165
F1.0
s(lp167
g165
atp168
asS'en'
p169
(lp170
(g26
(dp171
S'NOUN'
p172
F1.0
s(lp173
g26
atp174
a(g20
(dp175
S'PRT'
p176
F0.984346
sg165
F0.015654
s(lp177
g20
atp178
a(g14
(dp179
S'NOUN'
p180
F1.0
s(lp181
g14
atp182
a(S'is'
p183
(dp184
S'VERB'
p185
F1.0
s(lp186
g183
atp187
a(g38
(dp188
S'ADV'
p189
F1.0
s(lp190
g38
atp191
a(S'very'
p192
(dp193
S'ADV'
p194
F0.977305
sS'ADJ'
p195
F0.022695
s(lp196
g192
atp197
a(g32
(dp198
S'ADJ'
p199
F1.0
s(lp200
g32
atp201
a(S','
p202
(dp203
g165
F1.0
s(lp204
g202
atp205
a(g67
(dp206
S'ADV'
p207
F1e-06
sS'PRT'
p208
F0.999999
sS'ADP'
p209
F0.0
s(lp210
g67
atp211
a(g73
(dp212
S'VERB'
p213
F0.999048
sS'NOUN'
p214
F0.000952
s(lp215
g73
atp216
a(g81
(dp217
S'NOUN'
p218
F1e-06
sS'DET'
p219
F0.999999
s(lp220
g81
atp221
a(g87
(dp222
S'VERB'
p223
F4.9999999999999996e-06
sS'NOUN'
p224
F0.999995
s(lp225
g87
atp226
a(g93
(dp227
S'CONJ'
p228
F1.0
sS'NOUN'
p229
F0.0
s(lp230
g93
atp231
a(g100
(dp232
S'NOUN'
p233
F2e-06
sS'DET'
p234
F0.999998
s(lp235
g100
atp236
a(g106
(dp237
S'NOUN'
p238
F1.0
s(lp239
g106
atp240
a(g112
(dp241
S'ADV'
p242
F0.999983
sS'ADP'
p243
F1.6e-05
s(lp244
g112
atp245
a(g118
(dp246
S'PRON'
p247
F1.0
s(lp248
g118
atp249
a(g124
(dp250
S'VERB'
p251
F1.0
s(lp252
g124
atp253
a(g150
(dp254
S'NOUN'
p255
F0.000138
sS'ADJ'
p256
F0.999862
s(lp257
g150
atp258
a(g157
(dp259
S'ADJ'
p260
F1.0
s(lp261
g157
atp262
a(g163
(dp263
S'NOUN'
p264
F1.0
s(lp265
g163
atp266
a(g144
(dp267
S'NOUN'
p268
F1.0
s(lp269
g144
atp270
a(g165
(dp271
g165
F1.0
s(lp272
g165
atp273
asS'nl'
p274
(lp275
(S'de'
p276
(dp277
S'DET'
p278
F1.0
s(lp279
tp280
a(S'mening'
p281
(dp282
S'NOUN'
p283
F1.0
s(lp284
g14
atp285
a(S'van'
p286
(dp287
S'ADP'
p288
F1.0
s(lp289
g20
atp290
a(S'het'
p291
(dp292
S'PRON'
p293
F0.000927
sS'DET'
p294
F0.999073
s(lp295
tp296
a(S'parlement'
p297
(dp298
S'NOUN'
p299
F1.0
s(lp300
g26
atp301
a(S'komt'
p302
(dp303
S'VERB'
p304
F1.0
s(lp305
g183
atp306
a(S'daarom'
p307
(dp308
S'ADV'
p309
F1.0
s(lp310
g38
atp311
a(S'zeer'
p312
(dp313
S'NOUN'
p314
F0.001006
sS'ADJ'
p315
F0.998994
s(lp316
g192
atp317
a(S'gelegen'
p318
(dp319
S'VERB'
p320
F0.725293
sS'ADJ'
p321
F0.274707
s(lp322
g32
atp323
a(S'als'
p324
(dp325
S'CONJ'
p326
F1.0
s(lp327
g73
atp328
a(S'leidraad'
p329
(dp330
S'NOUN'
p331
F1.0
s(lp332
tp333
a(S'voor'
p334
(dp335
S'ADV'
p336
F0.001935
sS'CONJ'
p337
F3e-06
sS'NOUN'
p338
F0.0
sS'ADP'
p339
F0.998062
s(lp340
g73
atp341
a(S'de'
p342
(dp343
S'DET'
p344
F1.0
s(lp345
g81
atp346
a(S'commissie'
p347
(dp348
S'NOUN'
p349
F1.0
s(lp350
g87
atp351
a(S'en'
p352
(dp353
S'CONJ'
p354
F1.0
s(lp355
g93
atp356
a(S'de'
p357
(dp358
S'DET'
p359
F1.0
s(lp360
g100
atp361
a(S'raad'
p362
(dp363
S'VERB'
p364
F1e-06
sS'NOUN'
p365
F0.999999
s(lp366
g106
atp367
a(S'voor'
p368
(dp369
S'ADV'
p370
F0.00196
sS'CONJ'
p371
F4e-06
sS'NOUN'
p372
F0.0
sS'ADP'
p373
F0.998036
s(lp374
g112
atp375
a(S'het'
p376
(dp377
S'PRON'
p378
F0.020387000000000002
sS'DET'
p379
F0.979612
s(lp380
g118
atp381
a(S'defini\xc3\xabren'
p382
(dp383
S'VERB'
p384
F0.019484
sS'NOUN'
p385
F0.980516
s(lp386
g124
atp387
a(S'van'
p388
(dp389
S'ADP'
p390
F1.0
s(lp391
tp392
a(S'definitieve'
p393
(dp394
S'NOUN'
p395
F0.000591
sS'ADJ'
p396
F0.999409
s(lp397
g150
atp398
a(S'respectieve'
p399
(dp400
S'NOUN'
p401
F0.000757
sS'ADJ'
p402
F0.999243
s(lp403
g157
atp404
a(S'onderhandelingsrichtsnoeren'
p405
(dp406
S'ADJ'
p407
F0.000638
sS'NOUN'
p408
F0.999362
s(lp409
g163
atp410
a(g165
(dp411
g165
F1.0
s(lp412
g165
atp413
asS'de'
p414
(lp415
(S'die'
p416
(dp417
S'PRON'
p418
F0.001164
sS'DET'
p419
F0.998507
s(lp420
tp421
a(S'stellungnahme'
p422
(dp423
S'ADJ'
p424
F9.3e-05
sS'NOUN'
p425
F0.999781
s(lp426
g14
atp427
a(S'des'
p428
(dp429
S'DET'
p430
F1.0
s(lp431
g20
atp432
a(S'parlaments'
p433
(dp434
S'ADJ'
p435
F0.021875
sS'NOUN'
p436
F0.962947
s(lp437
g26
atp438
a(S'kommt'
p439
(dp440
S'VERB'
p441
F1.0
s(lp442
g183
atp443
a(S'daher'
p444
(dp445
S'ADV'
p446
F0.999954
s(lp447
g38
atp448
a(S'gerade'
p449
(dp450
S'ADV'
p451
F0.984852
sS'PRT'
p452
F0.011608
s(lp453
g192
atp454
a(S'zur'
p455
(dp456
S'ADP'
p457
F1.0
s(lp458
g32
atp459
a(S'rechten'
p460
(dp461
S'VERB'
p462
F0.024701
sS'ADJ'
p463
F0.975299
s(lp464
tp465
a(S'zeit'
p466
(dp467
S'ADP'
p468
F1.0
s(lp469
g32
atp470
a(g202
(dp471
g165
F1.0
s(lp472
g202
atp473
a(S'um'
p474
(dp475
S'CONJ'
p476
F0.639838
sS'ADP'
p477
F0.360029
s(lp478
tp479
a(S'die'
p480
(dp481
S'PRON'
p482
F0.002705
sS'DET'
p483
F0.995758
s(lp484
g81
atp485
a(S'kommission'
p486
(dp487
S'ADJ'
p488
F0.224609
sS'NOUN'
p489
F0.74884
s(lp490
g87
atp491
a(S'und'
p492
(dp493
S'CONJ'
p494
F1.0
s(lp495
g93
atp496
a(S'den'
p497
(dp498
S'PRON'
p499
F0.068642
sS'DET'
p500
F0.929362
s(lp501
g100
atp502
a(S'rat'
p503
(dp504
S'ADJ'
p505
F0.322677
sS'NOUN'
p506
F0.49211
s(lp507
g106
atp508
a(S'bei'
p509
(dp510
S'PRT'
p511
F0.000149
sS'ADP'
p512
F0.999851
s(lp513
g112
atp514
a(S'der'
p515
(dp516
S'PRON'
p517
F1.6e-05
sS'DET'
p518
F0.999978
s(lp519
tp520
a(S'definition'
p521
(dp522
S'ADJ'
p523
F0.000113
sS'NOUN'
p524
F0.999828
s(lp525
g124
atp526
a(S'der'
p527
(dp528
S'PRON'
p529
F0.002575
sS'DET'
p530
F0.995987
s(lp531
tp532
a(S'jeweils'
p533
(dp534
S'ADV'
p535
F1.0
s(lp536
g157
atp537
a(S'endg\xc3\xbcltigen'
p538
(dp539
S'ADJ'
p540
F1.0
s(lp541
g150
atp542
a(S'verhandlungsrichtlinien'
p543
(dp544
S'NOUN'
p545
F0.999978
s(lp546
g163
atp547
a(S'zu'
p548
(dp549
S'PRT'
p550
F0.999974
s(lp551
g67
atp552
a(S'leiten'
p553
(dp554
S'VERB'
p555
F1.0
s(lp556
g73
atp557
a(g165
(dp558
g165
F1.0
s(lp559
g165
atp560
asS'it'
p561
(lp562
(S'il'
p563
(dp564
S'DET'
p565
F1.0
s(lp566
tp567
a(S'parere'
p568
(dp569
S'VERB'
p570
F0.001326
sS'NOUN'
p571
F0.998674
s(lp572
g14
atp573
a(S'del'
p574
(dp575
S'DEF'
p576
F0.00128
sS'ADP'
p577
F0.99872
s(lp578
g20
atp579
a(S'parlamento'
p580
(dp581
S'VERB'
p582
F4.5e-05
sS'NOUN'
p583
F0.999955
s(lp584
g26
atp585
a(S'\xc3\xa8'
p586
(dp587
S'VERB'
p588
F1.0
s(lp589
g183
atp590
a(S'dunque'
p591
(dp592
S'ADV'
p593
F0.999753
sS'NOUN'
p594
F0.000247
s(lp595
g38
atp596
a(S'molto'
p597
(dp598
S'ADV'
p599
F0.973174
sS'PRON'
p600
F0.00096
sS'VERB'
p601
F0.001627
sS'ADJ'
p602
F0.024239
s(lp603
g192
atp604
a(S'tempestivo'
p605
(dp606
S'ADJ'
p607
F1.0
s(lp608
g32
atp609
a(S'e'
p610
(dp611
S'CONJ'
p612
F1.0
s(lp613
g202
atp614
a(S'far\xc3\xa0'
p615
(dp616
S'VERB'
p617
F1.0
s(lp618
tp619
a(S'da'
p620
(dp621
S'ADP'
p622
F1.0
s(lp623
g67
atp624
a(S'guida'
p625
(dp626
S'VERB'
p627
F0.012572
sS'NOUN'
p628
F0.987428
s(lp629
g73
atp630
a(S'alla'
p631
(dp632
S'ADP'
p633
F1.0
s(lp634
g81
atp635
a(S'commissione'
p636
(dp637
S'NOUN'
p638
F1.0
s(lp639
g87
atp640
a(g610
(dp641
S'CONJ'
p642
F1.0
s(lp643
g93
atp644
a(S'al'
p645
(dp646
S'ADP'
p647
F1.0
s(lp648
g100
atp649
a(S'consiglio'
p650
(dp651
S'VERB'
p652
F0.000221
sS'NOUN'
p653
F0.999779
s(lp654
g106
atp655
a(S'nella'
p656
(dp657
S'ADP'
p658
F1.0
s(lp659
g112
atp660
a(S'definizione'
p661
(dp662
S'NOUN'
p663
F1.0
s(lp664
g124
atp665
a(S'delle'
p666
(dp667
S'DEF'
p668
F0.002304
sS'ADP'
p669
F0.997696
s(lp670
tp671
a(S'rispettive'
p672
(dp673
S'ADJ'
p674
F1.0
s(lp675
g157
atp676
a(S'direttive'
p677
(dp678
S'ADJ'
p679
F0.056395
sS'NOUN'
p680
F0.943605
s(lp681
g144
atp682
a(S'di'
p683
(dp684
S'CONJ'
p685
F4e-06
sS'ADP'
p686
F0.999996
s(lp687
tp688
a(S'negoziato'
p689
(dp690
S'ADJ'
p691
F0.014089
sS'VERB'
p692
F0.00179
sS'NOUN'
p693
F0.984122
s(lp694
g163
atp695
a(S'finali'
p696
(dp697
S'NOUN'
p698
F0.022195
sS'ADJ'
p699
F0.977805
s(lp700
g150
atp701
a(g165
(dp702
g165
F1.0
s(lp703
g165
atp704
asS'sk'
p705
(lp706
(S'stanovisko'
p707
(dp708
S'NOUN'
p709
F1.0
s(lp710
g14
atp711
a(S'parlamentu'
p712
(dp713
S'NOUN'
p714
F1.0
s(lp715
g26
atp716
a(S'je'
p717
(dp718
S'X'
p719
F0.000105
sS'VERB'
p720
F0.999864
sS'PRON'
p721
F3e-05
s(lp722
g183
atp723
a(S'preto'
p724
(dp725
S'PRON'
p726
F0.847862
sS'CONJ'
p727
F0.094018
sg719
F0.058121
s(lp728
g38
atp729
a(S've\xc4\xbemi'
p730
(dp731
S'ADV'
p732
F1.0
s(lp733
g192
atp734
a(S'aktu\xc3\xa1lne'
p735
(dp736
S'ADV'
p737
F0.47689
sS'ADJ'
p738
F0.52311
s(lp739
g32
atp740
a(S'a'
p741
(dp742
g719
F0.00232
sS'CONJ'
p743
F0.996139
sS'NOUN'
p744
F0.000401
sS'ADP'
p745
F0.0
sS'PRT'
p746
F0.00114
s(lp747
g202
atp748
a(S'usmer\xc5\x88uje'
p749
(dp750
S'VERB'
p751
F1.0
s(lp752
g73
atp753
a(S'komisiu'
p754
(dp755
S'NOUN'
p756
F1.0
s(lp757
g87
atp758
a(g741
(dp759
g719
F0.0025380000000000003
sS'CONJ'
p760
F0.996478
sS'NOUN'
p761
F0.00018700000000000002
sS'ADP'
p762
F0.00077
sS'PRT'
p763
F2.7e-05
s(lp764
g93
atp765
a(S'radu'
p766
(dp767
S'NOUN'
p768
F1.0
s(lp769
g106
atp770
a(S'pri'
p771
(dp772
g719
F9.5e-05
sS'VERB'
p773
F2e-06
sS'ADP'
p774
F0.999903
s(lp775
g112
atp776
a(S'formulovan\xc3\xad'
p777
(dp778
S'VERB'
p779
F0.068796
sS'NOUN'
p780
F0.931204
s(lp781
g124
atp782
a(S'pr\xc3\xadslu\xc5\xa1n\xc3\xbdch'
p783
(dp784
S'ADJ'
p785
F1.0
s(lp786
g157
atp787
a(S'kone\xc4\x8dn\xc3\xbdch'
p788
(dp789
S'NOUN'
p790
F0.00746
sS'ADJ'
p791
F0.99254
s(lp792
g150
atp793
a(S'pokynov'
p794
(dp795
S'NOUN'
p796
F1.0
s(lp797
g144
atp798
a(S'k'
p799
(dp800
g719
F9.7e-05
sS'NOUN'
p801
F9.999999999999999e-06
sS'ADP'
p802
F0.999892
s(lp803
g67
atp804
a(S'rokovaniam'
p805
(dp806
S'NOUN'
p807
F1.0
s(lp808
g163
atp809
a(g165
(dp810
g165
F1.0
s(lp811
g165
atp812
asS'pl'
p813
(lp814
(S'w'
p815
(dp816
S'ADJ'
p817
F0.0
sg719
F0.0
sS'NOUN'
p818
F2e-06
sS'ADP'
p819
F0.999999
s(lp820
g38
atp821
a(S'zwi\xc4\x85zku'
p822
(dp823
S'NOUN'
p824
F1.0
s(lp825
g38
atp826
a(S'z'
p827
(dp828
S'PRT'
p829
F3.5e-05
sS'VERB'
p830
F1.2e-05
sS'NOUN'
p831
F1e-06
sS'ADP'
p832
F0.999951
sg719
F2e-06
s(lp833
tp834
a(S'tym'
p835
(dp836
S'ADV'
p837
F0.000432
sS'ADJ'
p838
F0.06527400000000001
sS'CONJ'
p839
F0.000224
sS'NOUN'
p840
F0.934045
sS'PRT'
p841
F2.4e-05
s(lp842
g38
atp843
a(S'opinia'
p844
(dp845
S'NOUN'
p846
F1.0
s(lp847
g14
atp848
a(S'parlamentu'
p849
(dp850
S'NOUN'
p851
F1.0
s(lp852
g26
atp853
a(S'jest'
p854
(dp855
S'VERB'
p856
F1.0
s(lp857
g183
atp858
a(S'bardzo'
p859
(dp860
S'ADV'
p861
F1.0
s(lp862
g192
atp863
a(S'na'
p864
(dp865
g719
F1e-06
sS'VERB'
p866
F1e-06
sS'NOUN'
p867
F1e-06
sS'ADP'
p868
F0.9999979999999999
sS'PRT'
p869
F0.0
s(lp870
tp871
a(S'czasie'
p872
(dp873
S'NOUN'
p874
F1.0
s(lp875
g32
atp876
a(g165
(dp877
g165
F1.0
s(lp878
g202
atp879
a(S'pomo\xc5\xbce'
p880
(dp881
S'VERB'
p882
F1.0
s(lp883
tp884
a(S'ona'
p885
(dp886
S'PRON'
p887
F1.0
s(lp888
g73
atp889
a(S'komisji'
p890
(dp891
S'NOUN'
p892
F0.9999999999999999
s(lp893
g87
atp894
a(S'i'
p895
(dp896
S'PRT'
p897
F0.000517
sS'CONJ'
p898
F0.999474
sS'NOUN'
p899
F1e-06
sg719
F1e-06
sS'PRON'
p900
F6e-06
s(lp901
g93
atp902
a(S'radzie'
p903
(dp904
S'NOUN'
p905
F1.0
s(lp906
g106
atp907
a(g815
(dp908
S'ADJ'
p909
F0.0
sg719
F0.0
sS'NOUN'
p910
F0.0
sS'ADP'
p911
F0.9999999999999999
s(lp912
g112
atp913
a(S'sformu\xc5\x82owaniu'
p914
(dp915
S'ADJ'
p916
F0.001377
sS'VERB'
p917
F0.9185440000000002
sS'NOUN'
p918
F0.080077
s(lp919
g124
atp920
a(S'ostatecznych'
p921
(dp922
S'ADJ'
p923
F1.0
s(lp924
g150
atp925
a(S'dyrektyw'
p926
(dp927
S'NOUN'
p928
F1.0
s(lp929
tp930
a(S'dotycz\xc4\x85cych'
p931
(dp932
S'VERB'
p933
F1.0000010000000001
s(lp934
g144
atp935
a(S'negocjacji'
p936
(dp937
S'NOUN'
p938
F1.0
s(lp939
g163
atp940
a(g165
(dp941
g165
F1.0
s(lp942
g165
atp943
asS'sl'
p944
(lp945
(S'mnenje'
p946
(dp947
S'NOUN'
p948
F1.0
s(lp949
g14
atp950
a(S'parlamenta'
p951
(dp952
S'NOUN'
p953
F1.0
s(lp954
g26
atp955
a(S'smo'
p956
(dp957
g719
F5.1e-05
sS'VERB'
p958
F0.999949
s(lp959
g183
atp960
a(S'torej'
p961
(dp962
S'ADV'
p963
F0.97959
sS'CONJ'
p964
F0.02041
s(lp965
g38
atp966
a(S'dobili'
p967
(dp968
S'VERB'
p969
F1.000001
s(lp970
tp971
a(S'pravo\xc4\x8dasno'
p972
(dp973
S'ADV'
p974
F0.930233
sS'ADJ'
p975
F0.069767
s(lp976
g32
atp977
a(S'ter'
p978
(dp979
S'CONJ'
p980
F1.0
s(lp981
g202
atp982
a(S'bo'
p983
(dp984
S'VERB'
p985
F1.0
s(lp986
g67
atp987
a(S'usmerjalo'
p988
(dp989
S'VERB'
p990
F1.0
s(lp991
g73
atp992
a(S'komisijo'
p993
(dp994
S'NOUN'
p995
F1.0
s(lp996
g87
atp997
a(S'in'
p998
(dp999
S'ADV'
p1000
F2.2e-05
sg719
F1e-05
sS'CONJ'
p1001
F0.999928
sS'NOUN'
p1002
F4e-05
s(lp1003
g93
atp1004
a(S'svet'
p1005
(dp1006
S'NOUN'
p1007
F1.0
s(lp1008
g106
atp1009
a(S'pri'
p1010
(dp1011
S'ADP'
p1012
F1.0
s(lp1013
g112
atp1014
a(S'opredeljevanju'
p1015
(dp1016
S'ADV'
p1017
F3.8e-05
sS'ADJ'
p1018
F0.0
sS'VERB'
p1019
F0.0
sS'NOUN'
p1020
F0.9999620000000001
s(lp1021
g124
atp1022
a(S'dokon\xc4\x8dnih'
p1023
(dp1024
S'ADJ'
p1025
F1.0
s(lp1026
g150
atp1027
a(S'pogajalskih'
p1028
(dp1029
S'ADJ'
p1030
F1.0
s(lp1031
g163
atp1032
a(S'smernic'
p1033
(dp1034
S'NOUN'
p1035
F1.0
s(lp1036
g144
atp1037
a(g165
(dp1038
g165
F1.0
s(lp1039
g165
atp1040
asS'es'
p1041
(lp1042
(S'por'
p1043
(dp1044
S'ADP'
p1045
F1.0
s(lp1046
tp1047
a(S'ello'
p1048
(dp1049
S'PRON'
p1050
F1.0
s(lp1051
g38
atp1052
a(S'la'
p1053
(dp1054
S'PRON'
p1055
F0.019413
sS'DET'
p1056
F0.980586
sS'NOUN'
p1057
F1e-06
sg719
F1e-06
s(lp1058
tp1059
a(S'opini\xc3\xb3n'
p1060
(dp1061
S'NOUN'
p1062
F1.0
s(lp1063
g14
atp1064
a(S'del'
p1065
(dp1066
S'ADP'
p1067
F1.0
s(lp1068
g20
atp1069
a(S'parlamento'
p1070
(dp1071
S'VERB'
p1072
F0.0
sS'NOUN'
p1073
F1.0
s(lp1074
g26
atp1075
a(S'es'
p1076
(dp1077
S'VERB'
p1078
F1.0
s(lp1079
g183
atp1080
a(S'muy'
p1081
(dp1082
S'ADV'
p1083
F1.0
s(lp1084
g192
atp1085
a(S'oportuna'
p1086
(dp1087
S'ADJ'
p1088
F1.0
s(lp1089
g32
atp1090
a(g202
(dp1091
g165
F1.0
s(lp1092
g202
atp1093
a(S'para'
p1094
(dp1095
S'CONJ'
p1096
F0.448349
sS'ADP'
p1097
F0.551651
s(lp1098
tp1099
a(S'que'
p1100
(dp1101
g719
F1e-06
sS'CONJ'
p1102
F0.999999
s(lp1103
g67
atp1104
a(S'sirva'
p1105
(dp1106
S'VERB'
p1107
F1.0
s(lp1108
tp1109
a(S'de'
p1110
(dp1111
g719
F1.3e-05
sS'CONJ'
p1112
F0.000682
sS'ADP'
p1113
F0.999305
s(lp1114
tp1115
a(S'orientaci\xc3\xb3n'
p1116
(dp1117
S'NOUN'
p1118
F1.0
s(lp1119
g73
atp1120
a(g741
(dp1121
g719
F0.000427
sS'CONJ'
p1122
F3e-06
sS'ADP'
p1123
F0.99957
s(lp1124
tp1125
a(S'la'
p1126
(dp1127
g719
F0.0
sS'PRON'
p1128
F0.0
sS'DET'
p1129
F0.999999
sS'NOUN'
p1130
F0.0
s(lp1131
g81
atp1132
a(S'comisi\xc3\xb3n'
p1133
(dp1134
S'NOUN'
p1135
F1.0
s(lp1136
g87
atp1137
a(S'y'
p1138
(dp1139
g719
F0.002512
sS'CONJ'
p1140
F0.997488
s(lp1141
g93
atp1142
a(S'al'
p1143
(dp1144
S'CONJ'
p1145
F0.00064
sS'ADP'
p1146
F0.999359
s(lp1147
g100
atp1148
a(S'consejo'
p1149
(dp1150
S'NOUN'
p1151
F1.0
s(lp1152
g106
atp1153
a(S'cuando'
p1154
(dp1155
S'CONJ'
p1156
F1.0
s(lp1157
g112
atp1158
a(S'definamos'
p1159
(dp1160
S'VERB'
p1161
F1.0
s(lp1162
g124
atp1163
a(S'las'
p1164
(dp1165
S'PRON'
p1166
F0.0
sS'DET'
p1167
F1.0
s(lp1168
g144
atp1169
a(S'respectivas'
p1170
(dp1171
S'ADJ'
p1172
F1.0
s(lp1173
g157
atp1174
a(S'directivas'
p1175
(dp1176
S'ADJ'
p1177
F0.082292
sS'NOUN'
p1178
F0.917708
s(lp1179
tp1180
a(S'definitivas'
p1181
(dp1182
S'ADJ'
p1183
F1.0
s(lp1184
g150
atp1185
a(S'en'
p1186
(dp1187
S'ADP'
p1188
F1.0
s(lp1189
tp1190
a(S'materia'
p1191
(dp1192
S'ADP'
p1193
F1.0
s(lp1194
g144
atp1195
a(S'de'
p1196
(dp1197
S'ADP'
p1198
F1.0
s(lp1199
tp1200
a(S'negociaci\xc3\xb3n'
p1201
(dp1202
S'NOUN'
p1203
F1.0
s(lp1204
g163
atp1205
a(g165
(dp1206
g165
F1.0
s(lp1207
g165
atp1208
as.