(dp0
S'fr'
p1
(lp2
(S'nous'
p3
(dp4
S'PRON'
p5
F1.0
s(lp6
tp7
a(S'avons'
p8
(dp9
S'VERB'
p10
F1.0
s(lp11
S'we'
p12
atp13
a(S'donc'
p14
(dp15
S'ADV'
p16
F1.0
s(lp17
S'therefore'
p18
atp19
a(S'abord\xc3\xa9'
p20
(dp21
S'VERB'
p22
F1.0
s(lp23
S'approached'
p24
atp25
a(S'cette'
p26
(dp27
S'PRON'
p28
F1.0
s(lp29
S'the'
p30
atp31
a(S'question'
p32
(dp33
S'NOUN'
p34
F1.0
s(lp35
S'matter'
p36
atp37
a(S'du'
p38
(dp39
S'ADP'
p40
F1.0
s(lp41
S'from'
p42
atp43
a(S'point'
p44
(dp45
S'ADV'
p46
F0.018001
sS'VERB'
p47
F0.00077
sS'NOUN'
p48
F0.981228
s(lp49
S'point'
p50
atp51
a(S'de'
p52
(dp53
S'ADP'
p54
F1.0
s(lp55
S'of'
p56
atp57
a(S'vue'
p58
(dp59
S'VERB'
p60
F2.8e-05
sS'NOUN'
p61
F0.999972
s(lp62
S'view'
p63
atp64
a(S'du'
p65
(dp66
S'ADP'
p67
F1.0
s(lp68
S'the'
p69
atp70
a(S'consommateur'
p71
(dp72
S'NOUN'
p73
F1.0
s(lp74
S'consumer'
p75
atp76
a(S','
p77
(dp78
S'.'
p79
F1.0
s(lp80
g77
atp81
a(S'ou'
p82
(dp83
S'CONJ'
p84
F1.0
s(lp85
S'or'
p86
atp87
a(S'de'
p88
(dp89
S'ADP'
p90
F1.0
s(lp91
tp92
a(S"l'"
p93
(dp94
S'ADJ'
p95
F0.160704
sS'VERB'
p96
F0.06480800000000002
sS'NOUN'
p97
F0.774488
s(lp98
tp99
a(S'utilisateur'
p100
(dp101
S'NOUN'
p102
F0.156812
sS'ADJ'
p103
F0.843188
s(lp104
S'user'
p105
atp106
a(g79
(dp107
g79
F1.0
s(lp108
S';'
p109
atp110
a(S'nous'
p111
(dp112
S'PRON'
p113
F1.0
s(lp114
tp115
a(S'avons'
p116
(dp117
S'VERB'
p118
F1.0
s(lp119
S'we'
p120
atp121
a(S'envisag\xc3\xa9'
p122
(dp123
S'VERB'
p124
F1.0
s(lp125
S'looked'
p126
atp127
a(S'la'
p128
(dp129
S'PRON'
p130
F4.2e-05
sS'DET'
p131
F0.999958
sS'NOUN'
p132
F0.0
s(lp133
S'the'
p134
atp135
a(S'possibilit\xc3\xa9'
p136
(dp137
S'NOUN'
p138
F1.0
s(lp139
S'possibility'
p140
atp141
a(S"d'"
p142
(dp143
S'NOUN'
p144
F0.032441
sS'VERB'
p145
F0.694014
sS'ADJ'
p146
F0.273544
s(lp147
S'of'
p148
atp149
a(S'avoir'
p150
(dp151
S'VERB'
p152
F0.987979
sS'NOUN'
p153
F0.012021
s(lp154
S'having'
p155
atp156
a(S'de'
p157
(dp158
S'ADP'
p159
F1.0
s(lp160
tp161
a(S'nouveaux'
p162
(dp163
S'NOUN'
p164
F0.004873
sS'ADJ'
p165
F0.995127
s(lp166
S'new'
p167
atp168
a(S'services'
p169
(dp170
S'NOUN'
p171
F1.0
s(lp172
S'services'
p173
atp174
a(g77
(dp175
g79
F1.0
s(lp176
g77
atp177
a(S'y'
p178
(dp179
S'PRON'
p180
F1.0
s(lp181
tp182
a(S'compris'
p183
(dp184
S'VERB'
p185
F1.0
s(lp186
S'even'
p187
atp188
a(S'des'
p189
(dp190
S'DET'
p191
F4.6e-05
sS'ADP'
p192
F0.999954
s(lp193
tp194
a(S'services'
p195
(dp196
S'NOUN'
p197
F1.0
s(lp198
S'services'
p199
atp200
a(S'de'
p201
(dp202
S'ADP'
p203
F1.0
s(lp204
tp205
a(S't\xc3\xa9l\xc3\xa9communications'
p206
(dp207
S'NOUN'
p208
F1.0
s(lp209
S'telecommunications'
p210
atp211
a(g77
(dp212
g79
F1.0
s(lp213
g77
atp214
a(S'mieux'
p215
(dp216
S'ADV'
p217
F1.0
s(lp218
S'better'
p219
atp220
a(S'adapt\xc3\xa9s'
p221
(dp222
S'VERB'
p223
F1.0
s(lp224
S'suited'
p225
atp226
a(S'aux'
p227
(dp228
S'ADP'
p229
F1.0
s(lp230
S'to'
p231
atp232
a(S'nouvelles'
p233
(dp234
S'NOUN'
p235
F0.020504
sS'ADJ'
p236
F0.979496
s(lp237
S'new'
p238
atp239
a(S'exigences'
p240
(dp241
S'NOUN'
p242
F1.0
s(lp243
S'requirements'
p244
atp245
a(g77
(dp246
g79
F1.0
s(lp247
g77
atp248
a(S'au'
p249
(dp250
S'ADP'
p251
F1.0
s(lp252
S'the'
p253
atp254
a(S'besoin'
p255
(dp256
S'NOUN'
p257
F1.0
s(lp258
S'need'
p259
atp260
a(S"d'"
p261
(dp262
S'NOUN'
p263
F0.032441
sS'VERB'
p264
F0.694014
sS'ADJ'
p265
F0.273544
s(lp266
S'to'
p267
atp268
a(S'\xc3\xaatre'
p269
(dp270
S'VERB'
p271
F0.98737
sS'NOUN'
p272
F0.01263
s(lp273
S'be'
p274
atp275
a(S'mieux'
p276
(dp277
S'ADV'
p278
F1.0
s(lp279
S'better'
p280
atp281
a(S'inform\xc3\xa9'
p282
(dp283
S'VERB'
p284
F0.745627
sS'ADJ'
p285
F0.254373
s(lp286
S'informed'
p287
atp288
a(g77
(dp289
g79
F1.0
s(lp290
g77
atp291
a(S'mieux'
p292
(dp293
S'ADV'
p294
F1.0
s(lp295
S'more'
p296
atp297
a(S'int\xc3\xa9gr\xc3\xa9'
p298
(dp299
S'VERB'
p300
F0.945153
sS'ADJ'
p301
F0.054847
s(lp302
S'integrated'
p303
atp304
a(S'dans'
p305
(dp306
S'NOUN'
p307
F1e-05
sS'ADP'
p308
F0.99999
s(lp309
S'into'
p310
atp311
a(S'le'
p312
(dp313
S'PRON'
p314
F0.000178
sS'DET'
p315
F0.999822
s(lp316
S'the'
p317
atp318
a(S'grand'
p319
(dp320
S'ADJ'
p321
F1.0
s(lp322
S'great'
p323
atp324
a(S'sc\xc3\xa9nario'
p325
(dp326
S'NOUN'
p327
F1.0
s(lp328
S'scenario'
p329
atp330
a(S'du'
p331
(dp332
S'ADP'
p333
F1.0
s(lp334
tp335
a(S'r\xc3\xa9seau'
p336
(dp337
S'NOUN'
p338
F1.0
s(lp339
S'network'
p340
atp341
a(S"d'"
p342
(dp343
S'NOUN'
p344
F0.032441
sS'VERB'
p345
F0.694014
sS'ADJ'
p346
F0.273544
s(lp347
tp348
a(S'information'
p349
(dp350
S'NOUN'
p351
F1.0
s(lp352
S'information'
p353
atp354
a(g79
(dp355
g79
F1.0
s(lp356
g79
atp357
asS'en'
p358
(lp359
(g12
(dp360
S'PRON'
p361
F1.0
s(lp362
g12
atp363
a(g18
(dp364
S'ADV'
p365
F1.0
s(lp366
g18
atp367
a(g24
(dp368
S'VERB'
p369
F1.0
s(lp370
g24
atp371
a(g30
(dp372
S'NOUN'
p373
F3e-06
sS'DET'
p374
F0.999997
s(lp375
g30
atp376
a(g36
(dp377
S'ADJ'
p378
F0.001845
sS'VERB'
p379
F0.000332
sS'NOUN'
p380
F0.997823
s(lp381
g36
atp382
a(g42
(dp383
S'ADP'
p384
F1.0
s(lp385
g42
atp386
a(g69
(dp387
S'NOUN'
p388
F1e-06
sS'DET'
p389
F0.999999
s(lp390
g69
atp391
a(g75
(dp392
S'NOUN'
p393
F1.0
s(lp394
g75
atp395
a(g77
(dp396
g79
F1.0
s(lp397
g77
atp398
a(g86
(dp399
S'CONJ'
p400
F0.99998
sS'ADJ'
p401
F2e-05
s(lp402
g86
atp403
a(g105
(dp404
S'NOUN'
p405
F1.0
s(lp406
g105
atp407
a(g77
(dp408
g79
F1.0
s(lp409
g77
atp410
a(g50
(dp411
S'VERB'
p412
F0.154499
sS'NOUN'
p413
F0.845501
s(lp414
g50
atp415
a(g56
(dp416
S'ADP'
p417
F1.0
s(lp418
g56
atp419
a(g63
(dp420
S'VERB'
p421
F0.0008159999999999999
sS'NOUN'
p422
F0.999184
s(lp423
g63
atp424
a(g109
(dp425
g79
F1.0
s(lp426
g109
atp427
a(g120
(dp428
S'PRON'
p429
F1.0
s(lp430
g120
atp431
a(g126
(dp432
S'VERB'
p433
F1.0
s(lp434
g126
atp435
a(S'at'
p436
(dp437
S'NOUN'
p438
F1e-06
sS'ADP'
p439
F0.999999
s(lp440
g436
atp441
a(g134
(dp442
S'NOUN'
p443
F1e-06
sS'DET'
p444
F0.999999
s(lp445
g134
atp446
a(g140
(dp447
S'NOUN'
p448
F1.0
s(lp449
g140
atp450
a(g148
(dp451
S'ADP'
p452
F1.0
s(lp453
g148
atp454
a(g155
(dp455
S'VERB'
p456
F1.0
s(lp457
g155
atp458
a(g167
(dp459
S'NOUN'
p460
F9.1e-05
sS'ADJ'
p461
F0.999909
s(lp462
g167
atp463
a(g173
(dp464
S'VERB'
p465
F6e-06
sS'NOUN'
p466
F0.9999939999999999
s(lp467
g173
atp468
a(g77
(dp469
g79
F1.0
s(lp470
g77
atp471
a(g187
(dp472
S'ADV'
p473
F0.933732
sS'NOUN'
p474
F0.000234
sS'VERB'
p475
F0.005414
sS'ADJ'
p476
F0.06062
s(lp477
g187
atp478
a(g210
(dp479
S'NOUN'
p480
F0.249359
sS'ADJ'
p481
F0.750641
s(lp482
g210
atp483
a(g199
(dp484
S'VERB'
p485
F0.00015
sS'NOUN'
p486
F0.99985
s(lp487
g199
atp488
a(g77
(dp489
g79
F1.0
s(lp490
g77
atp491
a(S'which'
p492
(dp493
S'DET'
p494
F1.0
s(lp495
g492
atp496
a(S'are'
p497
(dp498
S'VERB'
p499
F0.999994
sS'NOUN'
p500
F6e-06
s(lp501
g497
atp502
a(g219
(dp503
S'ADV'
p504
F0.952127
sS'NOUN'
p505
F6e-06
sS'VERB'
p506
F0.0
sS'ADJ'
p507
F0.047868
s(lp508
g219
atp509
a(g225
(dp510
S'VERB'
p511
F1.0
s(lp512
g225
atp513
a(g231
(dp514
S'ADV'
p515
F2e-06
sS'PRT'
p516
F0.999992
sS'ADP'
p517
F6e-06
s(lp518
g231
atp519
a(g238
(dp520
S'NOUN'
p521
F3.1e-05
sS'ADJ'
p522
F0.999969
s(lp523
g238
atp524
a(g244
(dp525
S'NOUN'
p526
F1.0
s(lp527
g244
atp528
a(g77
(dp529
g79
F1.0
s(lp530
g77
atp531
a(S'to'
p532
(dp533
S'ADV'
p534
F2.4e-05
sS'PRT'
p535
F0.999929
sS'ADP'
p536
F4.6e-05
s(lp537
g532
atp538
a(g253
(dp539
S'NOUN'
p540
F4e-06
sS'DET'
p541
F0.999996
s(lp542
g253
atp543
a(g259
(dp544
S'VERB'
p545
F0.087421
sS'NOUN'
p546
F0.912579
s(lp547
g259
atp548
a(g267
(dp549
S'ADV'
p550
F0.0
sS'PRT'
p551
F1.0
sS'ADP'
p552
F0.0
s(lp553
g267
atp554
a(g274
(dp555
S'VERB'
p556
F1.0
s(lp557
g274
atp558
a(g280
(dp559
S'ADV'
p560
F0.91921
sS'NOUN'
p561
F4e-06
sS'VERB'
p562
F1.9e-05
sS'ADJ'
p563
F0.080767
s(lp564
g280
atp565
a(g287
(dp566
S'VERB'
p567
F0.799285
sS'ADJ'
p568
F0.200715
s(lp569
g287
atp570
a(g77
(dp571
g79
F1.0
s(lp572
g77
atp573
a(g296
(dp574
S'ADV'
p575
F0.899563
sS'ADJ'
p576
F0.100437
s(lp577
g296
atp578
a(g303
(dp579
S'VERB'
p580
F0.730506
sS'ADJ'
p581
F0.269495
s(lp582
g303
atp583
a(g310
(dp584
S'ADP'
p585
F1.0
s(lp586
g310
atp587
a(g317
(dp588
S'NOUN'
p589
F1e-06
sS'DET'
p590
F0.999999
s(lp591
g317
atp592
a(g323
(dp593
S'ADV'
p594
F8.2e-05
sS'NOUN'
p595
F0.000561
sS'ADJ'
p596
F0.999357
s(lp597
g323
atp598
a(g353
(dp599
S'NOUN'
p600
F1.0
s(lp601
g353
atp602
a(g340
(dp603
S'VERB'
p604
F0.000463
sS'NOUN'
p605
F0.999536
s(lp606
g340
atp607
a(g329
(dp608
S'NOUN'
p609
F1.0
s(lp610
g329
atp611
a(g79
(dp612
g79
F1.0
s(lp613
g79
atp614
asS'nl'
p615
(lp616
(S'daarom'
p617
(dp618
S'ADV'
p619
F1.0
s(lp620
tp621
a(S'hebben'
p622
(dp623
S'VERB'
p624
F0.999999
sS'NOUN'
p625
F1e-06
s(lp626
tp627
a(S'we'
p628
(dp629
S'PRON'
p630
F1.0
s(lp631
g12
atp632
a(S'de'
p633
(dp634
S'DET'
p635
F1.0
s(lp636
g30
atp637
a(S'kwestie'
p638
(dp639
S'NOUN'
p640
F1.0
s(lp641
g36
atp642
a(S'benaderd'
p643
(dp644
S'VERB'
p645
F1.0
s(lp646
tp647
a(S'vanuit'
p648
(dp649
S'ADP'
p650
F1.0
s(lp651
g24
atp652
a(S'het'
p653
(dp654
S'PRON'
p655
F0.000927
sS'DET'
p656
F0.999073
s(lp657
g18
atp658
a(S'standpunt'
p659
(dp660
S'NOUN'
p661
F1.0
s(lp662
g63
atp663
a(S'van'
p664
(dp665
S'ADP'
p666
F1.0
s(lp667
g42
atp668
a(S'de'
p669
(dp670
S'DET'
p671
F1.0
s(lp672
g69
atp673
a(S'consument'
p674
(dp675
S'NOUN'
p676
F1.0
s(lp677
g75
atp678
a(g77
(dp679
g79
F1.0
s(lp680
g77
atp681
a(S'de'
p682
(dp683
S'DET'
p684
F1.0
s(lp685
tp686
a(S'gebruiker'
p687
(dp688
S'NOUN'
p689
F1.0
s(lp690
g105
atp691
a(g79
(dp692
g79
F1.0
s(lp693
g109
atp694
a(S'we'
p695
(dp696
S'PRON'
p697
F1.0
s(lp698
g120
atp699
a(S'hebben'
p700
(dp701
S'VERB'
p702
F0.9999950000000001
sS'NOUN'
p703
F4e-06
s(lp704
g126
atp705
a(S'de'
p706
(dp707
S'DET'
p708
F1.0
s(lp709
g134
atp710
a(S'mogelijkheid'
p711
(dp712
S'NOUN'
p713
F1.0
s(lp714
tp715
a(S'bekeken'
p716
(dp717
S'VERB'
p718
F0.998512
sS'ADJ'
p719
F0.001489
s(lp720
tp721
a(S'om'
p722
(dp723
S'ADV'
p724
F0.000776
sS'CONJ'
p725
F0.52656
sS'ADP'
p726
F0.472664
s(lp727
g140
atp728
a(S'nieuwe'
p729
(dp730
S'NOUN'
p731
F1e-06
sS'ADJ'
p732
F0.999999
s(lp733
g167
atp734
a(S'diensten'
p735
(dp736
S'NOUN'
p737
F1.0
s(lp738
g173
atp739
a(S'te'
p740
(dp741
S'PRT'
p742
F1.0
s(lp743
tp744
a(S'hebben'
p745
(dp746
S'VERB'
p747
F1.0
sS'NOUN'
p748
F0.0
s(lp749
g126
atp750
a(g77
(dp751
g79
F1.0
s(lp752
g77
atp753
a(S'ook'
p754
(dp755
S'ADV'
p756
F1.0
s(lp757
g187
atp758
a(S'telecommunicatiediensten'
p759
(dp760
S'NOUN'
p761
F1.0
s(lp762
g210
atp763
a(g77
(dp764
g79
F1.0
s(lp765
g77
atp766
a(S'die'
p767
(dp768
S'PRON'
p769
F1.0
s(lp770
g492
atp771
a(S'beter'
p772
(dp773
S'ADV'
p774
F0.060259
sS'VERB'
p775
F0.001377
sS'ADJ'
p776
F0.938364
s(lp777
g219
atp778
a(S'zijn'
p779
(dp780
S'PRON'
p781
F0.001119
sS'VERB'
p782
F0.9985430000000001
sS'NOUN'
p783
F0.000337
s(lp784
g497
atp785
a(S'afgestemd'
p786
(dp787
S'VERB'
p788
F1.0
s(lp789
g225
atp790
a(S'om'
p791
(dp792
S'ADV'
p793
F5e-05
sS'CONJ'
p794
F0.554663
sS'ADP'
p795
F0.445287
s(lp796
g231
atp797
a(S'de'
p798
(dp799
S'DET'
p800
F1.0
s(lp801
tp802
a(S'nieuwe'
p803
(dp804
S'NOUN'
p805
F1e-06
sS'ADJ'
p806
F0.999999
s(lp807
g238
atp808
a(S'vereisten'
p809
(dp810
S'VERB'
p811
F0.000199
sS'NOUN'
p812
F0.999801
s(lp813
g244
atp814
a(g77
(dp815
g79
F1.0
s(lp816
g77
atp817
a(S'zoals'
p818
(dp819
S'CONJ'
p820
F1.0
s(lp821
g532
atp822
a(S'de'
p823
(dp824
S'DET'
p825
F1.0
s(lp826
g253
atp827
a(S'vereiste'
p828
(dp829
S'VERB'
p830
F0.547533
sS'NOUN'
p831
F0.452467
s(lp832
g259
atp833
a(S'om'
p834
(dp835
S'ADV'
p836
F0.013145
sS'CONJ'
p837
F0.480419
sS'ADP'
p838
F0.506436
s(lp839
tp840
a(S'beter'
p841
(dp842
S'ADV'
p843
F0.063733
sS'VERB'
p844
F0.000778
sS'ADJ'
p845
F0.935488
s(lp846
g280
atp847
a(S'ge\xc3\xafnformeerd'
p848
(dp849
S'VERB'
p850
F1.0
s(lp851
g287
atp852
a(S'te'
p853
(dp854
S'PRT'
p855
F1.0
s(lp856
g267
atp857
a(S'zijn'
p858
(dp859
S'PRON'
p860
F0.000503
sS'VERB'
p861
F0.999498
sS'NOUN'
p862
F0.0
s(lp863
g274
atp864
a(g77
(dp865
g79
F1.0
s(lp866
tp867
a(S'en'
p868
(dp869
S'CONJ'
p870
F1.0
s(lp871
g77
atp872
a(S'die'
p873
(dp874
S'PRON'
p875
F1.0
s(lp876
tp877
a(S'beter'
p878
(dp879
S'ADV'
p880
F0.089418
sS'VERB'
p881
F0.003188
sS'ADJ'
p882
F0.907394
s(lp883
g296
atp884
a(S'ge\xc3\xafntegreerd'
p885
(dp886
S'VERB'
p887
F0.859659
sS'ADJ'
p888
F0.140341
s(lp889
g303
atp890
a(S'zijn'
p891
(dp892
S'PRON'
p893
F1.2e-05
sS'VERB'
p894
F0.9966679999999999
sS'NOUN'
p895
F0.00332
s(lp896
tp897
a(S'in'
p898
(dp899
S'ADV'
p900
F0.014721
sS'VERB'
p901
F0.0
sS'ADP'
p902
F0.985279
s(lp903
g310
atp904
a(S'het'
p905
(dp906
S'PRON'
p907
F0.005883
sS'DET'
p908
F0.994117
s(lp909
g317
atp910
a(S'grotere'
p911
(dp912
S'NOUN'
p913
F0.000885
sS'ADJ'
p914
F0.999115
s(lp915
g323
atp916
a(S'geheel'
p917
(dp918
S'ADJ'
p919
F0.034847
sS'NOUN'
p920
F0.965153
s(lp921
g329
atp922
a(S'van'
p923
(dp924
S'ADP'
p925
F1.0
s(lp926
g148
atp927
a(S'het'
p928
(dp929
S'PRON'
p930
F0.000935
sS'DET'
p931
F0.999064
s(lp932
g155
atp933
a(S'informatienetwerk'
p934
(dp935
S'ADJ'
p936
F0.001739
sS'NOUN'
p937
F0.998261
s(lp938
g340
atp939
a(g79
(dp940
g79
F1.0
s(lp941
g79
atp942
asS'de'
p943
(lp944
(S'wir'
p945
(dp946
S'PRON'
p947
F1.0
s(lp948
g12
atp949
a(S'sind'
p950
(dp951
S'VERB'
p952
F1.0
s(lp953
tp954
a(S'also'
p955
(dp956
S'ADV'
p957
F1.0
s(lp958
g18
atp959
a(S'so'
p960
(dp961
S'ADV'
p962
F0.999988
sS'PRON'
p963
F1.2e-05
s(lp964
tp965
a(S'vorgegangen'
p966
(dp967
S'VERB'
p968
F1.0
s(lp969
g24
atp970
a(g77
(dp971
g79
F1.0
s(lp972
g109
atp973
a(S'dass'
p974
(dp975
S'CONJ'
p976
F1.0
s(lp977
tp978
a(S'wir'
p979
(dp980
S'PRON'
p981
F1.0
s(lp982
g120
atp983
a(S'die'
p984
(dp985
S'PRON'
p986
F0.840837
sS'DET'
p987
F0.081398
s(lp988
g30
atp989
a(S'dinge'
p990
(dp991
S'VERB'
p992
F1.0
s(lp993
g36
atp994
a(S'unter'
p995
(dp996
S'PRT'
p997
F1e-06
sS'ADP'
p998
F0.999999
s(lp999
g42
atp1000
a(S'dem'
p1001
(dp1002
S'PRON'
p1003
F4.1e-05
sS'DET'
p1004
F0.99995
s(lp1005
g69
atp1006
a(S'gesichtspunkt'
p1007
(dp1008
S'ADJ'
p1009
F9.3e-05
sS'NOUN'
p1010
F0.999848
s(lp1011
g50
atp1012
a(S'des'
p1013
(dp1014
S'DET'
p1015
F1.0
s(lp1016
tp1017
a(S'verbrauchers'
p1018
(dp1019
S'NOUN'
p1020
F0.997449
s(lp1021
g75
atp1022
a(S'bzw.'
p1023
(dp1024
S'CONJ'
p1025
F1.0
s(lp1026
g86
atp1027
a(S'des'
p1028
(dp1029
S'DET'
p1030
F1.0
s(lp1031
g56
atp1032
a(S'nutzers'
p1033
(dp1034
S'NOUN'
p1035
F0.999672
s(lp1036
g105
atp1037
a(S'betrachteten'
p1038
(dp1039
S'VERB'
p1040
F0.995696
sS'ADJ'
p1041
F0.004304
s(lp1042
g126
atp1043
a(g77
(dp1044
g79
F1.0
s(lp1045
g77
atp1046
a(S'unter'
p1047
(dp1048
S'PRT'
p1049
F0.0
sS'ADP'
p1050
F1.0
s(lp1051
tp1052
a(S'dem'
p1053
(dp1054
S'PRON'
p1055
F4.1e-05
sS'DET'
p1056
F0.99995
s(lp1057
tp1058
a(S'aspekt'
p1059
(dp1060
S'ADJ'
p1061
F9.3e-05
sS'NOUN'
p1062
F0.999847
s(lp1063
g126
atp1064
a(S'der'
p1065
(dp1066
S'PRON'
p1067
F0.000113
sS'DET'
p1068
F0.999856
s(lp1069
g134
atp1070
a(S'm\xc3\xb6glichkeit'
p1071
(dp1072
S'NOUN'
p1073
F0.307254
sS'ADJ'
p1074
F0.672737
s(lp1075
g140
atp1076
a(S'neuer'
p1077
(dp1078
S'ADJ'
p1079
F1.0
s(lp1080
g167
atp1081
a(S'dienste'
p1082
(dp1083
S'NOUN'
p1084
F0.177378
sS'ADJ'
p1085
F0.820568
s(lp1086
g173
atp1087
a(g77
(dp1088
g79
F1.0
s(lp1089
g77
atp1090
a(S'auch'
p1091
(dp1092
S'ADV'
p1093
F1.0
s(lp1094
g187
atp1095
a(S'telekommunikationsdienste'
p1096
(dp1097
S'ADJ'
p1098
F0.9905309999999999
s(lp1099
g210
atp1100
a(g77
(dp1101
g79
F1.0
s(lp1102
g77
atp1103
a(S'die'
p1104
(dp1105
S'PRON'
p1106
F0.997424
s(lp1107
g492
atp1108
a(S'den'
p1109
(dp1110
S'PRON'
p1111
F0.001124
sS'DET'
p1112
F0.99886
s(lp1113
g231
atp1114
a(S'neuen'
p1115
(dp1116
S'ADJ'
p1117
F1.0
s(lp1118
g238
atp1119
a(S'anforderungen'
p1120
(dp1121
S'VERB'
p1122
F0.017739
sS'NOUN'
p1123
F0.979156
s(lp1124
g244
atp1125
a(g77
(dp1126
g79
F1.0
s(lp1127
g77
atp1128
a(S'der'
p1129
(dp1130
S'PRON'
p1131
F0.164727
sS'DET'
p1132
F0.833653
s(lp1133
g253
atp1134
a(S'notwendigkeit'
p1135
(dp1136
S'ADJ'
p1137
F0.138684
sS'NOUN'
p1138
F0.721849
s(lp1139
g259
atp1140
a(g77
(dp1141
g79
F1.0
s(lp1142
g267
atp1143
a(S'umfassender'
p1144
(dp1145
S'ADJ'
p1146
F1.0
s(lp1147
g280
atp1148
a(S'informiert'
p1149
(dp1150
S'VERB'
p1151
F0.9294990000000001
s(lp1152
g287
atp1153
a(g77
(dp1154
g79
F1.0
s(lp1155
g77
atp1156
a(S'in'
p1157
(dp1158
S'ADP'
p1159
F1.0
s(lp1160
g310
atp1161
a(S'das'
p1162
(dp1163
S'PRON'
p1164
F0.006262
sS'DET'
p1165
F0.993723
s(lp1166
g317
atp1167
a(S'gro\xc3\x9fe'
p1168
(dp1169
S'ADJ'
p1170
F1.0
s(lp1171
g323
atp1172
a(S'informationsnetzszenario'
p1173
(dp1174
S'ADJ'
p1175
F0.004408
sS'NOUN'
p1176
F0.988685
s(lp1177
g329
atp1178
a(S'st\xc3\xa4rker'
p1179
(dp1180
S'ADJ'
p1181
F1.0
s(lp1182
g296
atp1183
a(S'integriert'
p1184
(dp1185
S'VERB'
p1186
F0.706449
sS'ADJ'
p1187
F0.289203
s(lp1188
g303
atp1189
a(S'zu'
p1190
(dp1191
S'PRT'
p1192
F0.999938
s(lp1193
tp1194
a(S'sein'
p1195
(dp1196
S'VERB'
p1197
F0.999953
s(lp1198
g274
atp1199
a(g77
(dp1200
g79
F1.0
s(lp1201
g267
atp1202
a(S'besser'
p1203
(dp1204
S'VERB'
p1205
F0.001485
sS'ADJ'
p1206
F0.998491
s(lp1207
g219
atp1208
a(S'gerecht'
p1209
(dp1210
S'VERB'
p1211
F0.892853
sS'ADJ'
p1212
F0.107147
s(lp1213
g225
atp1214
a(S'werden'
p1215
(dp1216
S'VERB'
p1217
F0.999963
s(lp1218
g497
atp1219
a(g79
(dp1220
g79
F1.0
s(lp1221
g79
atp1222
asS'it'
p1223
(lp1224
(S'quindi'
p1225
(dp1226
S'ADV'
p1227
F0.999792
sS'NOUN'
p1228
F0.000208
s(lp1229
g18
atp1230
a(S'abbiamo'
p1231
(dp1232
S'VERB'
p1233
F1.0
s(lp1234
g120
atp1235
a(S'guardato'
p1236
(dp1237
S'VERB'
p1238
F1.0
s(lp1239
tp1240
a(S'proprio'
p1241
(dp1242
S'ADV'
p1243
F0.904796
sS'NOUN'
p1244
F0.008389
sS'ADJ'
p1245
F0.086815
s(lp1246
g24
atp1247
a(S'dal'
p1248
(dp1249
S'ADP'
p1250
F1.0
s(lp1251
g42
atp1252
a(S'punto'
p1253
(dp1254
S'ADV'
p1255
F0.000196
sS'ADJ'
p1256
F0.000547
sS'VERB'
p1257
F0.000276
sS'NOUN'
p1258
F0.998981
s(lp1259
g50
atp1260
a(S'di'
p1261
(dp1262
S'CONJ'
p1263
F8e-06
sS'ADP'
p1264
F0.999992
s(lp1265
g56
atp1266
a(S'vista'
p1267
(dp1268
S'VERB'
p1269
F0.00957
sS'NOUN'
p1270
F0.990431
s(lp1271
g63
atp1272
a(S'del'
p1273
(dp1274
S'DEF'
p1275
F0.001572
sS'ADP'
p1276
F0.998428
s(lp1277
g69
atp1278
a(S'consumatore'
p1279
(dp1280
S'ADJ'
p1281
F0.182292
sS'NOUN'
p1282
F0.817708
s(lp1283
g75
atp1284
a(g77
(dp1285
g79
F1.0
s(lp1286
g77
atp1287
a(S"dell'"
p1288
(dp1289
S'ADJ'
p1290
F0.002161
sS'VERB'
p1291
F0.026514
sS'NOUN'
p1292
F0.971324
s(lp1293
tp1294
a(S'utente'
p1295
(dp1296
S'NOUN'
p1297
F1.0
s(lp1298
g105
atp1299
a(g77
(dp1300
g79
F1.0
s(lp1301
g77
atp1302
a(S'dalla'
p1303
(dp1304
S'NOUN'
p1305
F2.8e-05
sS'ADP'
p1306
F0.999972
s(lp1307
g134
atp1308
a(S'possibilit\xc3\xa0'
p1309
(dp1310
S'NOUN'
p1311
F1.0
s(lp1312
g140
atp1313
a(S'di'
p1314
(dp1315
S'CONJ'
p1316
F6e-06
sS'ADP'
p1317
F0.999994
s(lp1318
g148
atp1319
a(S'avere'
p1320
(dp1321
S'VERB'
p1322
F0.995446
sS'NOUN'
p1323
F0.004554
s(lp1324
g155
atp1325
a(S'servizi'
p1326
(dp1327
S'NOUN'
p1328
F1.0
s(lp1329
g173
atp1330
a(S'nuovi'
p1331
(dp1332
S'NOUN'
p1333
F0.001032
sS'ADJ'
p1334
F0.998968
s(lp1335
g167
atp1336
a(g77
(dp1337
g79
F1.0
s(lp1338
g77
atp1339
a(S'servizi'
p1340
(dp1341
S'NOUN'
p1342
F1.0
s(lp1343
g199
atp1344
a(S'anche'
p1345
(dp1346
S'ADV'
p1347
F0.999878
sS'NOUN'
p1348
F0.000122
s(lp1349
g187
atp1350
a(S'di'
p1351
(dp1352
S'CONJ'
p1353
F3e-06
sS'ADP'
p1354
F0.999997
s(lp1355
tp1356
a(S'telecomunicazione'
p1357
(dp1358
S'NOUN'
p1359
F1.0
s(lp1360
g210
atp1361
a(g77
(dp1362
g79
F1.0
s(lp1363
g77
atp1364
a(S'pi\xc3\xb9'
p1365
(dp1366
S'ADV'
p1367
F0.999562
sS'NOUN'
p1368
F2.3e-05
sS'ADJ'
p1369
F0.000331
sS'ADP'
p1370
F8.4e-05
s(lp1371
g219
atp1372
a(S'adeguati'
p1373
(dp1374
S'VERB'
p1375
F0.668923
sS'ADJ'
p1376
F0.331077
s(lp1377
g225
atp1378
a(S'alle'
p1379
(dp1380
S'ADP'
p1381
F1.0
s(lp1382
g231
atp1383
a(S'nuove'
p1384
(dp1385
S'NOUN'
p1386
F0.008906
sS'ADJ'
p1387
F0.991094
s(lp1388
g238
atp1389
a(S'esigenze'
p1390
(dp1391
S'NOUN'
p1392
F1.0
s(lp1393
g244
atp1394
a(g77
(dp1395
g79
F1.0
s(lp1396
g77
atp1397
a(S'a'
p1398
(dp1399
S'CONJ'
p1400
F0.002026
sS'ADP'
p1401
F0.997974
s(lp1402
g532
atp1403
a(S'una'
p1404
(dp1405
S'PRON'
p1406
F0.00016
sS'DEF'
p1407
F0.99984
s(lp1408
g253
atp1409
a(S'possibilit\xc3\xa0'
p1410
(dp1411
S'NOUN'
p1412
F1.0
s(lp1413
g126
atp1414
a(S'di'
p1415
(dp1416
S'CONJ'
p1417
F6e-06
sS'ADP'
p1418
F0.999994
s(lp1419
g267
atp1420
a(S'essere'
p1421
(dp1422
S'VERB'
p1423
F0.999695
sS'NOUN'
p1424
F0.000305
s(lp1425
g274
atp1426
a(S'pi\xc3\xb9'
p1427
(dp1428
S'ADV'
p1429
F0.999397
sS'NOUN'
p1430
F1.3e-05
sS'ADJ'
p1431
F0.000488
sS'ADP'
p1432
F0.000101
s(lp1433
g280
atp1434
a(S'informati'
p1435
(dp1436
S'VERB'
p1437
F0.633853
sS'ADJ'
p1438
F0.366147
s(lp1439
g287
atp1440
a(g77
(dp1441
g79
F1.0
s(lp1442
g77
atp1443
a(S'pi\xc3\xb9'
p1444
(dp1445
S'ADV'
p1446
F0.99969
sS'NOUN'
p1447
F1.4e-05
sS'ADJ'
p1448
F0.000272
sS'ADP'
p1449
F2.4e-05
s(lp1450
g296
atp1451
a(S'inseriti'
p1452
(dp1453
S'VERB'
p1454
F0.960827
sS'ADJ'
p1455
F0.039173
s(lp1456
tp1457
a(S'insomma'
p1458
(dp1459
S'ADV'
p1460
F0.999937
sS'X'
p1461
F6.3e-05
s(lp1462
g303
atp1463
a(S'nel'
p1464
(dp1465
S'ADP'
p1466
F1.0
s(lp1467
g310
atp1468
a(S'grande'
p1469
(dp1470
S'NOUN'
p1471
F0.004585
sS'ADJ'
p1472
F0.995415
s(lp1473
g323
atp1474
a(S'gioco'
p1475
(dp1476
S'VERB'
p1477
F0.002556
sS'NOUN'
p1478
F0.997444
s(lp1479
tp1480
a(S'delle'
p1481
(dp1482
S'DEF'
p1483
F0.001155
sS'ADP'
p1484
F0.998845
s(lp1485
g329
atp1486
a(S'reti'
p1487
(dp1488
S'NOUN'
p1489
F1.0
s(lp1490
g340
atp1491
a(S'informatiche'
p1492
(dp1493
S'NOUN'
p1494
F0.015475
sS'ADJ'
p1495
F0.984525
s(lp1496
g353
atp1497
a(g79
(dp1498
g79
F1.0
s(lp1499
g79
atp1500
asS'sk'
p1501
(lp1502
(S'z'
p1503
(dp1504
g1461
F8e-05
sS'NOUN'
p1505
F1.9e-05
sS'ADP'
p1506
F0.999901
s(lp1507
g18
atp1508
a(S'toho'
p1509
(dp1510
S'PRON'
p1511
F0.999985
sg1461
F1.5e-05
s(lp1512
tp1513
a(S'd\xc3\xb4vodu'
p1514
(dp1515
S'NOUN'
p1516
F1.0
s(lp1517
g18
atp1518
a(S'sme'
p1519
(dp1520
g1461
F0.0023940000000000003
sS'VERB'
p1521
F0.997606
s(lp1522
g12
atp1523
a(S'k'
p1524
(dp1525
g1461
F3.8e-05
sS'NOUN'
p1526
F2e-06
sS'ADP'
p1527
F0.99996
s(lp1528
g24
atp1529
a(S'tejto'
p1530
(dp1531
S'PRON'
p1532
F1.0
s(lp1533
g24
atp1534
a(S'z\xc3\xa1le\xc5\xbeitosti'
p1535
(dp1536
S'NOUN'
p1537
F1.0
s(lp1538
g36
atp1539
a(S'prist\xc3\xbapili'
p1540
(dp1541
S'VERB'
p1542
F1.0
s(lp1543
tp1544
a(g1503
(dp1545
g1461
F8.2e-05
sS'NOUN'
p1546
F1.7e-05
sS'ADP'
p1547
F0.999902
s(lp1548
g42
atp1549
a(S'poz\xc3\xadcie'
p1550
(dp1551
S'NOUN'
p1552
F1.0
s(lp1553
g24
atp1554
a(S'spotrebite\xc4\xbea'
p1555
(dp1556
S'NOUN'
p1557
F1.0
s(lp1558
g75
atp1559
a(g77
(dp1560
g79
F1.0
s(lp1561
g77
atp1562
a(S'alebo'
p1563
(dp1564
g1461
F5.3e-05
sS'CONJ'
p1565
F0.999947
s(lp1566
g86
atp1567
a(S'u\xc5\xbe\xc3\xadvate\xc4\xbea'
p1568
(dp1569
S'NOUN'
p1570
F1.0
s(lp1571
g105
atp1572
a(g77
(dp1573
g79
F1.0
s(lp1574
g109
atp1575
a(S'zhodnotili'
p1576
(dp1577
S'VERB'
p1578
F1.0
s(lp1579
g126
atp1580
a(S'sme'
p1581
(dp1582
g1461
F0.001713
sS'VERB'
p1583
F0.998287
s(lp1584
g120
atp1585
a(S'mo\xc5\xbenos\xc5\xa5'
p1586
(dp1587
S'NOUN'
p1588
F1.0
s(lp1589
g140
atp1590
a(S'vyu\xc5\xbe\xc3\xadva\xc5\xa5'
p1591
(dp1592
S'VERB'
p1593
F1.0
s(lp1594
g155
atp1595
a(S'nov\xc3\xa9'
p1596
(dp1597
g1461
F1.1e-05
sS'ADJ'
p1598
F0.999989
s(lp1599
g167
atp1600
a(S'slu\xc5\xbeby'
p1601
(dp1602
S'NOUN'
p1603
F1.0
s(lp1604
g173
atp1605
a(g77
(dp1606
g79
F1.0
s(lp1607
g77
atp1608
a(S'dokonca'
p1609
(dp1610
g1461
F1.0
s(lp1611
g187
atp1612
a(S'telekomunika\xc4\x8dn\xc3\xa9'
p1613
(dp1614
S'ADJ'
p1615
F1.0
s(lp1616
g210
atp1617
a(S'slu\xc5\xbeby'
p1618
(dp1619
S'NOUN'
p1620
F1.0
s(lp1621
g199
atp1622
a(g77
(dp1623
g79
F1.0
s(lp1624
g77
atp1625
a(S'ktor\xc3\xa9'
p1626
(dp1627
S'PRON'
p1628
F1.0
s(lp1629
g492
atp1630
a(S'viac'
p1631
(dp1632
S'ADV'
p1633
F0.871259
sg1461
F0.062764
sS'CONJ'
p1634
F0.004902
sS'NUM'
p1635
F0.061075
s(lp1636
g219
atp1637
a(S'vyhovuj\xc3\xba'
p1638
(dp1639
S'VERB'
p1640
F1.0
s(lp1641
g225
atp1642
a(S'nov\xc3\xbdm'
p1643
(dp1644
S'ADJ'
p1645
F1.0
s(lp1646
g238
atp1647
a(S'po\xc5\xbeiadavk\xc3\xa1m'
p1648
(dp1649
S'NOUN'
p1650
F1.0
s(lp1651
g244
atp1652
a(g77
(dp1653
g79
F1.0
s(lp1654
g77
atp1655
a(S'potreb\xc3\xa1m'
p1656
(dp1657
S'NOUN'
p1658
F1.0
s(lp1659
g259
atp1660
a(S'by\xc5\xa5'
p1661
(dp1662
S'VERB'
p1663
F1.0
s(lp1664
g274
atp1665
a(S'lep\xc5\xa1ie'
p1666
(dp1667
S'ADV'
p1668
F0.998238
sS'ADJ'
p1669
F0.0017620000000000001
s(lp1670
g280
atp1671
a(S'informovan\xc3\xbd'
p1672
(dp1673
S'VERB'
p1674
F1.0
s(lp1675
g287
atp1676
a(g77
(dp1677
g79
F1.0
s(lp1678
g77
atp1679
a(S'viac'
p1680
(dp1681
S'ADV'
p1682
F0.699655
sg1461
F0.078158
sS'CONJ'
p1683
F0.09599
sS'NUM'
p1684
F0.126196
s(lp1685
g296
atp1686
a(S'za\xc4\x8dlenen\xc3\xbd'
p1687
(dp1688
S'VERB'
p1689
F1.0
s(lp1690
g303
atp1691
a(S'do'
p1692
(dp1693
g1461
F0.000193
sS'ADP'
p1694
F0.999774
sS'PRON'
p1695
F3.3e-05
s(lp1696
g310
atp1697
a(S'scen\xc3\xa1ra'
p1698
(dp1699
S'NOUN'
p1700
F1.0
s(lp1701
g329
atp1702
a(S've\xc4\xbekej'
p1703
(dp1704
S'ADJ'
p1705
F1.0
s(lp1706
g323
atp1707
a(S'informa\xc4\x8dnej'
p1708
(dp1709
S'ADJ'
p1710
F1.0
s(lp1711
g353
atp1712
a(S'siete'
p1713
(dp1714
S'NOUN'
p1715
F1.0
s(lp1716
g340
atp1717
a(g79
(dp1718
g79
F1.0
s(lp1719
g79
atp1720
asS'pl'
p1721
(lp1722
(S'dlatego'
p1723
(dp1724
S'ADV'
p1725
F1.0
s(lp1726
g18
atp1727
a(S'spojrzeli\xc5\x9bmy'
p1728
(dp1729
S'VERB'
p1730
F0.9977870000000002
sS'NOUN'
p1731
F0.002214
s(lp1732
g24
atp1733
a(S'na'
p1734
(dp1735
g1461
F3.6e-05
sS'VERB'
p1736
F4.9999999999999996e-06
sS'NOUN'
p1737
F1e-06
sS'ADP'
p1738
F0.999926
sS'PRT'
p1739
F3.2e-05
s(lp1740
g30
atp1741
a(S't\xc4\x99'
p1742
(dp1743
S'ADJ'
p1744
F1.0
s(lp1745
tp1746
a(S'spraw\xc4\x99'
p1747
(dp1748
S'NOUN'
p1749
F1.0
s(lp1750
g36
atp1751
a(g1503
(dp1752
S'PRT'
p1753
F2e-06
sS'VERB'
p1754
F1e-06
sS'NOUN'
p1755
F1e-06
sS'ADP'
p1756
F0.999996
sg1461
F0.0
s(lp1757
g42
atp1758
a(S'punktu'
p1759
(dp1760
S'NOUN'
p1761
F1.0
s(lp1762
g50
atp1763
a(S'widzenia'
p1764
(dp1765
S'VERB'
p1766
F0.136057
sS'NOUN'
p1767
F0.863943
s(lp1768
g63
atp1769
a(S'konsumenta'
p1770
(dp1771
S'NOUN'
p1772
F1.0
s(lp1773
g75
atp1774
a(S'lub'
p1775
(dp1776
S'CONJ'
p1777
F1.0
s(lp1778
g86
atp1779
a(S'u\xc5\xbcytkownika'
p1780
(dp1781
S'NOUN'
p1782
F1.0
s(lp1783
g105
atp1784
a(g109
(dp1785
g79
F1.0
s(lp1786
g109
atp1787
a(S'rozwa\xc5\xbcyli\xc5\x9bmy'
p1788
(dp1789
S'ADV'
p1790
F0.00115
sS'NOUN'
p1791
F0.004231999999999999
sS'VERB'
p1792
F0.973508
sS'ADJ'
p1793
F0.021113
s(lp1794
g126
atp1795
a(S'mo\xc5\xbcliwo\xc5\x9b\xc4\x87'
p1796
(dp1797
S'NOUN'
p1798
F1.0
s(lp1799
g140
atp1800
a(S'zapewnienia'
p1801
(dp1802
S'VERB'
p1803
F0.998527
sS'NOUN'
p1804
F0.001473
s(lp1805
g155
atp1806
a(S'nowych'
p1807
(dp1808
S'NOUN'
p1809
F4e-06
sS'ADJ'
p1810
F0.999996
s(lp1811
g167
atp1812
a(S'us\xc5\x82ug'
p1813
(dp1814
S'NOUN'
p1815
F1.0
s(lp1816
g173
atp1817
a(g77
(dp1818
g1461
F0.0
sg79
F1.0
s(lp1819
g77
atp1820
a(S'w'
p1821
(dp1822
S'ADJ'
p1823
F0.0
sg1461
F3e-06
sS'NOUN'
p1824
F1e-06
sS'ADP'
p1825
F0.999995
s(lp1826
tp1827
a(S'tym'
p1828
(dp1829
S'ADV'
p1830
F6.8e-05
sS'ADJ'
p1831
F0.30313399999999985
sS'CONJ'
p1832
F2.7e-05
sS'NOUN'
p1833
F0.696767
sS'PRT'
p1834
F1e-06
s(lp1835
g187
atp1836
a(S'us\xc5\x82ug'
p1837
(dp1838
S'NOUN'
p1839
F1.0
s(lp1840
g199
atp1841
a(S'telekomunikacyjnych'
p1842
(dp1843
S'ADJ'
p1844
F1.0000010000000001
s(lp1845
g210
atp1846
a(g77
(dp1847
g1461
F0.0
sg79
F1.0
s(lp1848
g77
atp1849
a(S'kt\xc3\xb3re'
p1850
(dp1851
S'ADJ'
p1852
F0.9999990000000001
s(lp1853
g492
atp1854
a(S'lepiej'
p1855
(dp1856
S'ADV'
p1857
F0.996421
sS'PRT'
p1858
F0.003579
s(lp1859
g219
atp1860
a(S'pasowa\xc5\x82yby'
p1861
(dp1862
S'ADV'
p1863
F0.005989
sS'NOUN'
p1864
F0.758857
sS'PRT'
p1865
F0.043784
sS'VERB'
p1866
F0.116783
sS'CONJ'
p1867
F0.022549
sS'ADJ'
p1868
F0.052036000000000006
s(lp1869
g225
atp1870
a(S'do'
p1871
(dp1872
g1461
F0.0
sS'NOUN'
p1873
F3e-06
sS'ADP'
p1874
F0.999996
s(lp1875
g231
atp1876
a(S'nowych'
p1877
(dp1878
S'NOUN'
p1879
F0.0
sS'ADJ'
p1880
F0.9999990000000001
s(lp1881
g238
atp1882
a(S'wymaga\xc5\x84'
p1883
(dp1884
S'NOUN'
p1885
F1.0
s(lp1886
g244
atp1887
a(g77
(dp1888
g1461
F0.0
sg79
F1.0
s(lp1889
g77
atp1890
a(S'do'
p1891
(dp1892
g1461
F2e-06
sS'NOUN'
p1893
F2.1e-05
sS'ADP'
p1894
F0.999977
s(lp1895
g532
atp1896
a(S'bycia'
p1897
(dp1898
S'VERB'
p1899
F0.847112
sS'NOUN'
p1900
F0.152888
s(lp1901
g274
atp1902
a(S'lepiej'
p1903
(dp1904
S'ADV'
p1905
F0.944135
sS'PRT'
p1906
F0.055865
s(lp1907
g280
atp1908
a(S'poinformowanym'
p1909
(dp1910
S'NOUN'
p1911
F0.049985
sS'VERB'
p1912
F0.728632
sS'ADJ'
p1913
F0.22138200000000002
s(lp1914
g287
atp1915
a(S'i'
p1916
(dp1917
S'PRT'
p1918
F0.037279
sS'CONJ'
p1919
F0.961502
sS'NOUN'
p1920
F0.000977
sg1461
F2.8e-05
sS'PRON'
p1921
F0.000214
s(lp1922
g77
atp1923
a(S'do'
p1924
(dp1925
g1461
F0.0
sS'NOUN'
p1926
F1e-06
sS'ADP'
p1927
F1.0
s(lp1928
g267
atp1929
a(S'wi\xc4\x99kszej'
p1930
(dp1931
S'ADJ'
p1932
F1.0
s(lp1933
g296
atp1934
a(S'integracji'
p1935
(dp1936
S'NOUN'
p1937
F1.000001
s(lp1938
g303
atp1939
a(g1821
(dp1940
g1461
F0.0
sS'ADJ'
p1941
F0.0
sS'ADP'
p1942
F1.0
sS'NOUN'
p1943
F0.0
s(lp1944
g310
atp1945
a(S'kontek\xc5\x9bcie'
p1946
(dp1947
S'NOUN'
p1948
F1.0
s(lp1949
g317
atp1950
a(S'wielkiego'
p1951
(dp1952
S'ADJ'
p1953
F1.0
s(lp1954
g323
atp1955
a(S'scenariusza'
p1956
(dp1957
S'NOUN'
p1958
F1.0
s(lp1959
g329
atp1960
a(S'sieci'
p1961
(dp1962
S'NOUN'
p1963
F1.0000010000000001
s(lp1964
g340
atp1965
a(g79
(dp1966
g79
F1.0
s(lp1967
g79
atp1968
asS'sl'
p1969
(lp1970
(S'zato'
p1971
(dp1972
S'ADV'
p1973
F0.246969
sS'CONJ'
p1974
F0.753031
s(lp1975
g18
atp1976
a(S'smo'
p1977
(dp1978
g1461
F8.7e-05
sS'VERB'
p1979
F0.999913
s(lp1980
g12
atp1981
a(S'tej'
p1982
(dp1983
S'PRON'
p1984
F1.0
s(lp1985
tp1986
a(S'zadevi'
p1987
(dp1988
S'NOUN'
p1989
F1.0
s(lp1990
g36
atp1991
a(S'pristopili'
p1992
(dp1993
S'VERB'
p1994
F1.0
s(lp1995
g24
atp1996
a(g1503
(dp1997
S'ADP'
p1998
F1.0
s(lp1999
g42
atp2000
a(S'vidika'
p2001
(dp2002
S'NOUN'
p2003
F1.0
s(lp2004
g50
atp2005
a(S'potro\xc5\xa1nika'
p2006
(dp2007
S'NOUN'
p2008
F1.0
s(lp2009
g75
atp2010
a(S'ali'
p2011
(dp2012
S'ADV'
p2013
F0.017437
sS'CONJ'
p2014
F0.982563
s(lp2015
g86
atp2016
a(S'uporabnika'
p2017
(dp2018
S'NOUN'
p2019
F1.0
s(lp2020
g105
atp2021
a(g109
(dp2022
g79
F1.0
s(lp2023
g109
atp2024
a(S'premislili'
p2025
(dp2026
S'ADV'
p2027
F0.002759
sS'ADJ'
p2028
F2e-05
sS'VERB'
p2029
F0.9947039999999999
sS'NOUN'
p2030
F0.0025169999999999993
s(lp2031
g126
atp2032
a(S'smo'
p2033
(dp2034
g1461
F4.1e-05
sS'VERB'
p2035
F0.999959
s(lp2036
g120
atp2037
a(S'o'
p2038
(dp2039
S'NOUN'
p2040
F3e-06
sS'ADP'
p2041
F0.999997
s(lp2042
g134
atp2043
a(S'mo\xc5\xbenostih'
p2044
(dp2045
S'NOUN'
p2046
F1.0
s(lp2047
g140
atp2048
a(S'za'
p2049
(dp2050
S'ADV'
p2051
F0.000395
sg1461
F5e-06
sS'ADP'
p2052
F0.999601
s(lp2053
g148
atp2054
a(S'nove'
p2055
(dp2056
g1461
F2e-06
sS'ADJ'
p2057
F0.9999990000000001
s(lp2058
g167
atp2059
a(S'storitve'
p2060
(dp2061
S'NOUN'
p2062
F1.0
s(lp2063
g173
atp2064
a(g77
(dp2065
g79
F1.0
s(lp2066
g77
atp2067
a(S'tudi'
p2068
(dp2069
S'PRT'
p2070
F1.0
s(lp2071
g187
atp2072
a(S'telekomunikacijske'
p2073
(dp2074
S'ADV'
p2075
F0.018065
sS'NOUN'
p2076
F0.243318
sS'VERB'
p2077
F0.14002399999999998
sS'ADJ'
p2078
F0.598592
s(lp2079
g210
atp2080
a(g77
(dp2081
g79
F1.0
s(lp2082
g77
atp2083
a(S'ki'
p2084
(dp2085
S'CONJ'
p2086
F1.0
s(lp2087
g492
atp2088
a(S'se'
p2089
(dp2090
S'PRON'
p2091
F0.999997
sg1461
F3e-06
s(lp2092
g497
atp2093
a(S'bolje'
p2094
(dp2095
S'ADV'
p2096
F1.0
s(lp2097
g219
atp2098
a(S'prilegajo'
p2099
(dp2100
S'ADV'
p2101
F0.001506
sS'ADJ'
p2102
F0.000328
sS'VERB'
p2103
F0.926547
sS'NOUN'
p2104
F0.07162000000000002
s(lp2105
g225
atp2106
a(S'novim'
p2107
(dp2108
S'ADJ'
p2109
F1.0000010000000001
s(lp2110
g238
atp2111
a(S'zahtevam'
p2112
(dp2113
S'VERB'
p2114
F0.000526
sS'NOUN'
p2115
F0.999474
s(lp2116
g244
atp2117
a(g77
(dp2118
g79
F1.0
s(lp2119
g77
atp2120
a(S'potrebi'
p2121
(dp2122
S'NOUN'
p2123
F1.0
s(lp2124
tp2125
a(S'po'
p2126
(dp2127
g1461
F0.003871
sS'ADP'
p2128
F0.9961289999999999
s(lp2129
g259
atp2130
a(S'bolj\xc5\xa1i'
p2131
(dp2132
S'ADJ'
p2133
F0.9999990000000001
s(lp2134
g280
atp2135
a(S'informiranosti'
p2136
(dp2137
S'ADV'
p2138
F0.001687
sS'ADJ'
p2139
F0.055653999999999995
sS'VERB'
p2140
F0.00463
sS'NOUN'
p2141
F0.9380299999999999
s(lp2142
g287
atp2143
a(g77
(dp2144
g79
F1.0
s(lp2145
g77
atp2146
a(S'ki'
p2147
(dp2148
S'CONJ'
p2149
F1.0
s(lp2150
tp2151
a(S'so'
p2152
(dp2153
g1461
F8e-06
sS'VERB'
p2154
F0.999993
s(lp2155
tp2156
a(S'bolj'
p2157
(dp2158
S'ADV'
p2159
F1.0
s(lp2160
g296
atp2161
a(S'vklju\xc4\x8dene'
p2162
(dp2163
S'ADJ'
p2164
F1.0
s(lp2165
g303
atp2166
a(S'v'
p2167
(dp2168
S'ADP'
p2169
F1.0
s(lp2170
g310
atp2171
a(S'velik'
p2172
(dp2173
S'ADJ'
p2174
F1.0
s(lp2175
g323
atp2176
a(S'scenarij'
p2177
(dp2178
S'NOUN'
p2179
F1.0
s(lp2180
g329
atp2181
a(S'informacijskega'
p2182
(dp2183
S'ADJ'
p2184
F1.0
s(lp2185
g353
atp2186
a(S'omre\xc5\xbeja'
p2187
(dp2188
S'NOUN'
p2189
F1.0
s(lp2190
g340
atp2191
a(g79
(dp2192
g79
F1.0
s(lp2193
g79
atp2194
asS'es'
p2195
(lp2196
(S'por'
p2197
(dp2198
S'ADV'
p2199
F1.0
s(lp2200
g18
atp2201
a(S'consiguiente'
p2202
(dp2203
S'ADV'
p2204
F1.0
s(lp2205
tp2206
a(g77
(dp2207
g79
F1.0
s(lp2208
g18
atp2209
a(S'hemos'
p2210
(dp2211
S'VERB'
p2212
F1.0
s(lp2213
g12
atp2214
a(S'tenido'
p2215
(dp2216
S'VERB'
p2217
F1.0
s(lp2218
g24
atp2219
a(S'en'
p2220
(dp2221
g1461
F0.0
sS'CONJ'
p2222
F1.5e-05
sS'ADP'
p2223
F0.999984
s(lp2224
g120
atp2225
a(S'cuenta'
p2226
(dp2227
S'VERB'
p2228
F0.014772
sS'NOUN'
p2229
F0.985228
s(lp2230
g126
atp2231
a(S'el'
p2232
(dp2233
S'PRON'
p2234
F1.1e-05
sS'DET'
p2235
F0.999989
s(lp2236
g30
atp2237
a(S'punto'
p2238
(dp2239
S'NOUN'
p2240
F1.0
s(lp2241
g50
atp2242
a(S'de'
p2243
(dp2244
g1461
F2.9e-05
sS'CONJ'
p2245
F0.000498
sS'ADP'
p2246
F0.999474
s(lp2247
g56
atp2248
a(S'vista'
p2249
(dp2250
S'VERB'
p2251
F0.006153
sS'NOUN'
p2252
F0.993847
s(lp2253
g63
atp2254
a(S'del'
p2255
(dp2256
S'ADP'
p2257
F1.0
s(lp2258
g69
atp2259
a(S'consumidor'
p2260
(dp2261
S'NOUN'
p2262
F1.0
s(lp2263
g75
atp2264
a(g77
(dp2265
g79
F1.0
s(lp2266
g77
atp2267
a(S'del'
p2268
(dp2269
S'ADP'
p2270
F1.0
s(lp2271
g42
atp2272
a(S'usuario'
p2273
(dp2274
S'NOUN'
p2275
F1.0
s(lp2276
g105
atp2277
a(g77
(dp2278
g79
F1.0
s(lp2279
g77
atp2280
a(S'desde'
p2281
(dp2282
S'ADP'
p2283
F1.0
s(lp2284
g436
atp2285
a(S'la'
p2286
(dp2287
S'NOUN'
p2288
F0.0
sS'PRON'
p2289
F0.0
sS'DET'
p2290
F0.999999
sg1461
F0.0
s(lp2291
g134
atp2292
a(S'posibilidad'
p2293
(dp2294
S'NOUN'
p2295
F1.0
s(lp2296
g140
atp2297
a(S'de'
p2298
(dp2299
g1461
F0.0
sS'CONJ'
p2300
F0.345844
sS'ADP'
p2301
F0.654156
s(lp2302
g148
atp2303
a(S'contar'
p2304
(dp2305
S'VERB'
p2306
F1.0
s(lp2307
tp2308
a(S'con'
p2309
(dp2310
S'ADP'
p2311
F1.0
s(lp2312
g155
atp2313
a(S'servicios'
p2314
(dp2315
S'NOUN'
p2316
F1.0
s(lp2317
g173
atp2318
a(S'nuevos'
p2319
(dp2320
S'ADJ'
p2321
F1.0
s(lp2322
g167
atp2323
a(g77
(dp2324
g79
F1.0
s(lp2325
g77
atp2326
a(S'servicios'
p2327
(dp2328
S'NOUN'
p2329
F1.0
s(lp2330
g199
atp2331
a(S'de'
p2332
(dp2333
g1461
F2.9e-05
sS'CONJ'
p2334
F0.000449
sS'ADP'
p2335
F0.999522
s(lp2336
tp2337
a(S'telecomunicaciones'
p2338
(dp2339
S'NOUN'
p2340
F1.0
s(lp2341
tp2342
a(S'tambi\xc3\xa9n'
p2343
(dp2344
S'ADV'
p2345
F1.0
s(lp2346
g187
atp2347
a(g77
(dp2348
g79
F1.0
s(lp2349
g77
atp2350
a(S'm\xc3\xa1s'
p2351
(dp2352
S'ADV'
p2353
F0.995379
sS'CONJ'
p2354
F0.004621
s(lp2355
g219
atp2356
a(S'adecuados'
p2357
(dp2358
S'VERB'
p2359
F0.832677
sS'ADJ'
p2360
F0.167323
s(lp2361
g225
atp2362
a(g1398
(dp2363
g1461
F0.000117
sS'CONJ'
p2364
F5e-06
sS'ADP'
p2365
F0.999879
s(lp2366
g231
atp2367
a(S'las'
p2368
(dp2369
S'PRON'
p2370
F0.0
sS'DET'
p2371
F1.0
s(lp2372
g210
atp2373
a(S'nuevas'
p2374
(dp2375
S'NOUN'
p2376
F0.244226
sS'ADJ'
p2377
F0.755774
s(lp2378
g238
atp2379
a(S'necesidades'
p2380
(dp2381
S'NOUN'
p2382
F1.0
s(lp2383
g244
atp2384
a(g77
(dp2385
g79
F1.0
s(lp2386
g77
atp2387
a(S'hasta'
p2388
(dp2389
S'ADP'
p2390
F1.0
s(lp2391
g532
atp2392
a(S'la'
p2393
(dp2394
S'NOUN'
p2395
F0.0
sS'PRON'
p2396
F0.0
sS'DET'
p2397
F0.999999
sg1461
F0.0
s(lp2398
g253
atp2399
a(S'posibilidad'
p2400
(dp2401
S'NOUN'
p2402
F1.0
s(lp2403
g259
atp2404
a(S'de'
p2405
(dp2406
g1461
F0.0
sS'CONJ'
p2407
F1.7e-05
sS'ADP'
p2408
F0.999983
s(lp2409
g267
atp2410
a(S'una'
p2411
(dp2412
S'DET'
p2413
F1.0
s(lp2414
tp2415
a(S'mejor'
p2416
(dp2417
S'ADJ'
p2418
F1.0
s(lp2419
g280
atp2420
a(S'informaci\xc3\xb3n'
p2421
(dp2422
S'NOUN'
p2423
F1.0
s(lp2424
g287
atp2425
a(g77
(dp2426
g79
F1.0
s(lp2427
g77
atp2428
a(S'una'
p2429
(dp2430
S'DET'
p2431
F1.0
s(lp2432
tp2433
a(S'mejor'
p2434
(dp2435
S'ADJ'
p2436
F1.0
s(lp2437
g296
atp2438
a(S'integraci\xc3\xb3n'
p2439
(dp2440
S'NOUN'
p2441
F1.0
s(lp2442
g303
atp2443
a(S'en'
p2444
(dp2445
g1461
F0.0
sS'CONJ'
p2446
F0.0
sS'ADP'
p2447
F1.0
s(lp2448
g310
atp2449
a(S'el'
p2450
(dp2451
S'PRON'
p2452
F0.000157
sS'DET'
p2453
F0.999843
s(lp2454
g317
atp2455
a(S'gran'
p2456
(dp2457
S'ADJ'
p2458
F1.0
s(lp2459
g323
atp2460
a(S'juego'
p2461
(dp2462
S'NOUN'
p2463
F1.0
s(lp2464
g329
atp2465
a(S'de'
p2466
(dp2467
g1461
F0.0
sS'CONJ'
p2468
F1.7e-05
sS'ADP'
p2469
F0.999983
s(lp2470
tp2471
a(S'las'
p2472
(dp2473
S'PRON'
p2474
F0.0
sS'DET'
p2475
F1.0
s(lp2476
tp2477
a(S'redes'
p2478
(dp2479
S'NOUN'
p2480
F1.0
s(lp2481
g340
atp2482
a(S'inform\xc3\xa1ticas'
p2483
(dp2484
S'NOUN'
p2485
F1.0
s(lp2486
g353
atp2487
a(g79
(dp2488
g79
F1.0
s(lp2489
g79
atp2490
as.