(dp0
S'fr'
p1
(lp2
(S'il'
p3
(dp4
S'PRON'
p5
F1.0
s(lp6
S'we'
p7
atp8
a(S'faut'
p9
(dp10
S'VERB'
p11
F1.0
s(lp12
S'need'
p13
atp14
a(S'pour'
p15
(dp16
S'CONJ'
p17
F0.105951
sS'ADP'
p18
F0.894049
s(lp19
S'to'
p20
atp21
a(S'cela'
p22
(dp23
S'PRON'
p24
F0.998671
sS'VERB'
p25
F0.001329
s(lp26
S'so'
p27
atp28
a(S'un'
p29
(dp30
S'DET'
p31
F0.368152
sS'NUM'
p32
F0.06858
sS'NOUN'
p33
F0.563268
s(lp34
tp35
a(S'grand'
p36
(dp37
S'ADJ'
p38
F1.0
s(lp39
S'great'
p40
atp41
a(S'leadership'
p42
(dp43
S'NOUN'
p44
F1.0
s(lp45
S'leadership'
p46
atp47
a(S'et'
p48
(dp49
S'CONJ'
p50
F1.0
s(lp51
S'and'
p52
atp53
a(S'nous'
p54
(dp55
S'PRON'
p56
F1.0
s(lp57
S'we'
p58
atp59
a(S'sommes'
p60
(dp61
S'VERB'
p62
F0.999954
sS'NOUN'
p63
F4.6e-05
s(lp64
S'are'
p65
atp66
a(S'un'
p67
(dp68
S'NOUN'
p69
F0.008161
sS'NUM'
p70
F0.000118
sS'DET'
p71
F0.991721
s(lp72
tp73
a(S'peu'
p74
(dp75
S'ADV'
p76
F1.0
s(lp77
S'somewhat'
p78
atp79
a(S','
p80
(dp81
S'.'
p82
F1.0
s(lp83
tp84
a(S'de'
p85
(dp86
S'ADP'
p87
F1.0
s(lp88
S'from'
p89
atp90
a(S'ce'
p91
(dp92
S'PRON'
p93
F1.0
s(lp94
S'that'
p95
atp96
a(S'point'
p97
(dp98
S'ADV'
p99
F0.16984
sS'VERB'
p100
F0.046223
sS'NOUN'
p101
F0.783938
s(lp102
S'point'
p103
atp104
a(S'de'
p105
(dp106
S'ADP'
p107
F1.0
s(lp108
S'of'
p109
atp110
a(S'vue'
p111
(dp112
S'VERB'
p113
F9e-06
sS'NOUN'
p114
F0.999991
s(lp115
S'view'
p116
atp117
a(g80
(dp118
g82
F1.0
s(lp119
tp120
a(S'des'
p121
(dp122
S'DET'
p123
F0.00031
sS'ADP'
p124
F0.99969
s(lp125
S'on'
p126
atp127
a(S'orphelins'
p128
(dp129
S'ADJ'
p130
F0.130697
sS'NOUN'
p131
F0.869303
s(lp132
S'own'
p133
atp134
a(g82
(dp135
g82
F1.0
s(lp136
g82
atp137
asS'en'
p138
(lp139
(g20
(dp140
S'ADV'
p141
F8e-06
sS'PRT'
p142
F0.999992
sS'ADP'
p143
F0.0
s(lp144
g20
atp145
a(S'do'
p146
(dp147
S'VERB'
p148
F1.0
sS'NOUN'
p149
F0.0
s(lp150
g146
atp151
a(g27
(dp152
S'ADV'
p153
F0.817634
sS'ADJ'
p154
F6e-06
sS'CONJ'
p155
F0.000435
sS'NOUN'
p156
F9e-06
sS'ADP'
p157
F0.181916
s(lp158
g27
atp159
a(g7
(dp160
S'PRON'
p161
F1.0
s(lp162
g7
atp163
a(g13
(dp164
S'VERB'
p165
F0.9999979999999999
sS'NOUN'
p166
F2e-06
s(lp167
g13
atp168
a(g40
(dp169
S'ADV'
p170
F0.002958
sS'NOUN'
p171
F0.000221
sS'ADJ'
p172
F0.996821
s(lp173
g40
atp174
a(g46
(dp175
S'NOUN'
p176
F1.0
s(lp177
g46
atp178
a(g52
(dp179
S'CONJ'
p180
F0.999998
sS'NOUN'
p181
F2e-06
s(lp182
g52
atp183
a(g89
(dp184
S'ADP'
p185
F1.0
s(lp186
g89
atp187
a(g95
(dp188
S'ADV'
p189
F9.6e-05
sS'DET'
p190
F0.986624
sS'ADP'
p191
F0.01328
s(lp192
g95
atp193
a(g103
(dp194
S'VERB'
p195
F0.005845
sS'NOUN'
p196
F0.994155
s(lp197
g103
atp198
a(g109
(dp199
S'ADP'
p200
F1.0
s(lp201
g109
atp202
a(g116
(dp203
S'VERB'
p204
F0.041394
sS'NOUN'
p205
F0.958606
s(lp206
g116
atp207
a(g58
(dp208
S'PRON'
p209
F1.0
s(lp210
g58
atp211
a(g65
(dp212
S'VERB'
p213
F1.0
sS'NOUN'
p214
F0.0
s(lp215
g65
atp216
a(g78
(dp217
S'ADV'
p218
F1.0
s(lp219
g78
atp220
a(g126
(dp221
S'ADV'
p222
F0.00223
sS'PRT'
p223
F1.9e-05
sS'ADJ'
p224
F0.0
sS'ADP'
p225
F0.997751
sS'NOUN'
p226
F0.0
s(lp227
g126
atp228
a(S'our'
p229
(dp230
S'PRON'
p231
F1.0
s(lp232
g229
atp233
a(g133
(dp234
S'VERB'
p235
F0.000137
sS'ADJ'
p236
F0.999863
s(lp237
g133
atp238
a(g82
(dp239
g82
F1.0
s(lp240
g82
atp241
asS'nl'
p242
(lp243
(S'hier'
p244
(dp245
S'ADV'
p246
F1.0
s(lp247
tp248
a(S'is'
p249
(dp250
S'VERB'
p251
F1.0
s(lp252
g146
atp253
a(S'echte'
p254
(dp255
S'NOUN'
p256
F0.000145
sS'ADJ'
p257
F0.999855
s(lp258
g40
atp259
a(S'leiding'
p260
(dp261
S'NOUN'
p262
F1.0
s(lp263
g46
atp264
a(S'voor'
p265
(dp266
S'ADV'
p267
F0.026683
sS'CONJ'
p268
F3e-06
sS'NOUN'
p269
F0.0
sS'ADP'
p270
F0.973314
s(lp271
g27
atp272
a(S'nodig'
p273
(dp274
S'VERB'
p275
F2.5e-05
sS'ADJ'
p276
F0.999975
s(lp277
g13
atp278
a(S'en'
p279
(dp280
S'CONJ'
p281
F1.0
s(lp282
g52
atp283
a(S'vanuit'
p284
(dp285
S'ADP'
p286
F1.0
s(lp287
g89
atp288
a(S'dat'
p289
(dp290
S'PRON'
p291
F0.980584
sS'CONJ'
p292
F0.019416
s(lp293
g95
atp294
a(S'oogpunt'
p295
(dp296
S'NOUN'
p297
F1.0
s(lp298
g103
atp299
a(S'bezien'
p300
(dp301
S'VERB'
p302
F0.981805
sS'NOUN'
p303
F0.018195
s(lp304
g116
atp305
a(S'zijn'
p306
(dp307
S'PRON'
p308
F3.2e-05
sS'VERB'
p309
F0.9999490000000001
sS'NOUN'
p310
F1.9e-05
s(lp311
g65
atp312
a(S'we'
p313
(dp314
S'PRON'
p315
F1.0
s(lp316
g58
atp317
a(S'een'
p318
(dp319
S'ADJ'
p320
F6e-06
sS'PRON'
p321
F1.4e-05
sS'NUM'
p322
F1e-06
sS'DET'
p323
F0.999979
s(lp324
g78
atp325
a(S'beetje'
p326
(dp327
S'NOUN'
p328
F1.0
s(lp329
tp330
a(S'verweesd'
p331
(dp332
S'NOUN'
p333
F0.001966
sS'ADJ'
p334
F0.998034
s(lp335
g78
atp336
a(g82
(dp337
g82
F1.0
s(lp338
g82
atp339
asS'de'
p340
(lp341
(S'daf\xc3\xbcr'
p342
(dp343
S'ADV'
p344
F1.0
s(lp345
g27
atp346
a(S'brauchen'
p347
(dp348
S'VERB'
p349
F1.0
s(lp350
g13
atp351
a(S'wir'
p352
(dp353
S'PRON'
p354
F1.0
s(lp355
g7
atp356
a(S'ein'
p357
(dp358
S'PRT'
p359
F0.005514
sS'DET'
p360
F0.994191
s(lp361
tp362
a(S'gro\xc3\x9fes'
p363
(dp364
S'ADJ'
p365
F1.0
s(lp366
g40
atp367
a(S'ma\xc3\x9f'
p368
(dp369
S'PRT'
p370
F0.114709
sS'VERB'
p371
F0.78983
s(lp372
tp373
a(S'an'
p374
(dp375
S'ADP'
p376
F0.985675
s(lp377
g109
atp378
a(S'f\xc3\xbchrungsst\xc3\xa4rke'
p379
(dp380
S'VERB'
p381
F0.018698
sS'NOUN'
p382
F0.978879
s(lp383
g46
atp384
a(g80
(dp385
g82
F1.0
s(lp386
tp387
a(S'und'
p388
(dp389
S'CONJ'
p390
F1.0
s(lp391
g52
atp392
a(S'was'
p393
(dp394
S'PRON'
p395
F0.994878
s(lp396
g89
atp397
a(S'das'
p398
(dp399
S'PRON'
p400
F0.997206
s(lp401
tp402
a(S'anbelangt'
p403
(dp404
S'VERB'
p405
F1.0
s(lp406
g103
atp407
a(g80
(dp408
g82
F1.0
s(lp409
g95
atp410
a(S'stehen'
p411
(dp412
S'VERB'
p413
F1.0
s(lp414
g65
atp415
a(S'wir'
p416
(dp417
S'PRON'
p418
F1.0
s(lp419
g58
atp420
a(S'ziemlich'
p421
(dp422
S'ADV'
p423
F0.991857
sS'ADJ'
p424
F0.008143
s(lp425
g78
atp426
a(S'allein'
p427
(dp428
S'ADV'
p429
F0.999858
sS'PRT'
p430
F0.000142
s(lp431
g133
atp432
a(S'da'
p433
(dp434
S'ADV'
p435
F0.388003
sS'PRT'
p436
F0.610554
s(lp437
g116
atp438
a(g82
(dp439
g82
F1.0
s(lp440
g82
atp441
asS'it'
p442
(lp443
(S'per'
p444
(dp445
S'CONJ'
p446
F0.00889
sS'ADP'
p447
F0.99111
s(lp448
g20
atp449
a(S'farlo'
p450
(dp451
S'VERB'
p452
F1.0
s(lp453
g146
atp454
a(g80
(dp455
g82
F1.0
s(lp456
g27
atp457
a(S'ci'
p458
(dp459
S'ADV'
p460
F0.001362
sS'PRON'
p461
F0.998539
sS'NOUN'
p462
F9.9e-05
s(lp463
g7
atp464
a(S'occorre'
p465
(dp466
S'VERB'
p467
F1.0
s(lp468
g13
atp469
a(S'grande'
p470
(dp471
S'NOUN'
p472
F0.000238
sS'ADJ'
p473
F0.999762
s(lp474
g40
atp475
a(S'leadership'
p476
(dp477
S'NOUN'
p478
F1.0
s(lp479
g46
atp480
a(S'e'
p481
(dp482
S'CONJ'
p483
F1.0
s(lp484
g52
atp485
a(g80
(dp486
g82
F1.0
s(lp487
tp488
a(S'sotto'
p489
(dp490
S'ADV'
p491
F0.474633
sS'NOUN'
p492
F0.00014
sS'ADJ'
p493
F0.048405
sS'ADP'
p494
F0.476822
s(lp495
g89
atp496
a(S'questo'
p497
(dp498
S'PRON'
p499
F1.0
s(lp500
g95
atp501
a(S'punto'
p502
(dp503
S'ADV'
p504
F0.001374
sS'ADJ'
p505
F0.001022
sS'VERB'
p506
F0.007744000000000001
sS'NOUN'
p507
F0.98986
s(lp508
g103
atp509
a(S'di'
p510
(dp511
S'CONJ'
p512
F6e-06
sS'ADP'
p513
F0.999994
s(lp514
g109
atp515
a(S'vista'
p516
(dp517
S'VERB'
p518
F0.002218
sS'NOUN'
p519
F0.997782
s(lp520
g116
atp521
a(g80
(dp522
g82
F1.0
s(lp523
tp524
a(S'siamo'
p525
(dp526
S'VERB'
p527
F1.0
s(lp528
g58
atp529
a(S'un'
p530
(dp531
S'PRON'
p532
F0.137463
sS'DEF'
p533
F0.862537
s(lp534
g78
atp535
a(S'po'
p536
(dp537
S'NOUN'
p538
F0.292787
sS'VERB'
p539
F0.14463599999999996
sS'ADJ'
p540
F0.562577
s(lp541
g78
atp542
a(S"'"
p543
(dp544
g82
F1.0
s(lp545
g78
atp546
a(S'come'
p547
(dp548
S'PRON'
p549
F0.012995
sS'CONJ'
p550
F0.899606
sS'NOUN'
p551
F0.001229
sS'ADP'
p552
F0.08617
s(lp553
tp554
a(S'degli'
p555
(dp556
S'DEF'
p557
F0.094093
sS'ADP'
p558
F0.905907
s(lp559
g126
atp560
a(S'orfani'
p561
(dp562
S'NOUN'
p563
F0.499411
sS'ADJ'
p564
F0.500589
s(lp565
g78
atp566
a(g82
(dp567
g82
F1.0
s(lp568
g82
atp569
asS'sk'
p570
(lp571
(S'na'
p572
(dp573
S'X'
p574
F5.099999999999999e-05
sS'CONJ'
p575
F3.3e-05
sS'ADP'
p576
F0.999916
sS'PRT'
p577
F0.0
s(lp578
g20
atp579
a(S'to'
p580
(dp581
S'PRON'
p582
F0.999734
sS'CONJ'
p583
F2.1e-05
sg574
F0.000245
s(lp584
g27
atp585
a(S'potrebujeme'
p586
(dp587
S'VERB'
p588
F1.0
s(lp589
g13
atp590
a(S'schopn\xc3\xbdch'
p591
(dp592
S'ADJ'
p593
F1.0
s(lp594
tp595
a(S'vodcov'
p596
(dp597
S'NOUN'
p598
F1.0
s(lp599
g46
atp600
a(S'a'
p601
(dp602
g574
F0.001599
sS'CONJ'
p603
F0.998147
sS'NOUN'
p604
F7.099999999999999e-05
sS'ADP'
p605
F0.0
sS'PRT'
p606
F0.000183
s(lp607
g52
atp608
a(S'z'
p609
(dp610
g574
F8.099999999999999e-05
sS'NOUN'
p611
F2.2e-05
sS'ADP'
p612
F0.999897
s(lp613
g89
atp614
a(S'tohto'
p615
(dp616
S'PRON'
p617
F0.999974
sg574
F2.6e-05
s(lp618
g95
atp619
a(S'h\xc4\xbeadiska'
p620
(dp621
S'NOUN'
p622
F1.0
s(lp623
g103
atp624
a(S'je'
p625
(dp626
g574
F5.4999999999999995e-05
sS'VERB'
p627
F0.999918
sS'PRON'
p628
F2.7e-05
s(lp629
g65
atp630
a(S'to'
p631
(dp632
S'PRON'
p633
F0.870406
sS'CONJ'
p634
F0.017414
sg574
F0.112181
s(lp635
tp636
a(S'akosi'
p637
(dp638
S'PRON'
p639
F0.983615
sg574
F0.016385
s(lp640
g78
atp641
a(S'na'
p642
(dp643
S'PRT'
p644
F0.000165
sS'CONJ'
p645
F3e-05
sS'ADP'
p646
F0.999737
sg574
F6.8e-05
s(lp647
g126
atp648
a(S'n\xc3\xa1s'
p649
(dp650
S'PRON'
p651
F0.998056
sg574
F0.001945
s(lp652
g229
atp653
a(g82
(dp654
g82
F1.0
s(lp655
g82
atp656
asS'pl'
p657
(lp658
(S'aby'
p659
(dp660
S'PRT'
p661
F0.011239
sS'CONJ'
p662
F0.988761
s(lp663
g20
atp664
a(S'to'
p665
(dp666
S'NOUN'
p667
F0.018584
sS'ADP'
p668
F0.0
sS'PRT'
p669
F0.013354
sg574
F0.0
sS'CONJ'
p670
F0.000729
sS'ADJ'
p671
F0.967333
s(lp672
tp673
a(S'uczyni\xc4\x87'
p674
(dp675
S'VERB'
p676
F1.0
s(lp677
g146
atp678
a(S'potrzebujemy'
p679
(dp680
S'VERB'
p681
F1.0
s(lp682
g13
atp683
a(S'silnego'
p684
(dp685
S'ADJ'
p686
F1.0
s(lp687
tp688
a(S'przyw\xc3\xb3dztwa'
p689
(dp690
S'NOUN'
p691
F1.0
s(lp692
g46
atp693
a(S'i'
p694
(dp695
S'PRT'
p696
F0.008289
sS'CONJ'
p697
F0.991659
sS'NOUN'
p698
F3.5999999999999994e-05
sg574
F2e-06
sS'PRON'
p699
F1.4e-05
s(lp700
g52
atp701
a(S'pod'
p702
(dp703
S'ADV'
p704
F0.000173
sS'ADP'
p705
F0.999827
s(lp706
g89
atp707
a(S'tym'
p708
(dp709
S'ADV'
p710
F1.5e-05
sS'NOUN'
p711
F0.003182
sS'CONJ'
p712
F2e-06
sS'ADJ'
p713
F0.996799
sS'PRT'
p714
F0.0
s(lp715
g95
atp716
a(S'wzgl\xc4\x99dem'
p717
(dp718
S'NOUN'
p719
F0.998856
sS'ADP'
p720
F0.001144
s(lp721
g103
atp722
a(S'nie'
p723
(dp724
S'ADV'
p725
F1.7e-05
sS'PRT'
p726
F0.982283
sS'CONJ'
p727
F0.017657
sS'NOUN'
p728
F1.8e-05
sS'PRON'
p729
F2.5e-05
s(lp730
g65
atp731
a(S'potrzebujemy'
p732
(dp733
S'VERB'
p734
F1.0
s(lp735
g78
atp736
a(S'pomocy'
p737
(dp738
S'NOUN'
p739
F1.0
s(lp740
g133
atp741
a(g82
(dp742
g82
F1.0
s(lp743
g82
atp744
asS'sl'
p745
(lp746
(S'za'
p747
(dp748
S'ADV'
p749
F0.000207
sg574
F1.1e-05
sS'ADP'
p750
F0.999782
s(lp751
g20
atp752
a(S'to'
p753
(dp754
S'PRON'
p755
F0.999985
sg574
F1.5e-05
s(lp756
g27
atp757
a(S'potrebujemo'
p758
(dp759
S'VERB'
p760
F1.0
s(lp761
g13
atp762
a(S'dobro'
p763
(dp764
S'ADV'
p765
F0.015753
sS'NOUN'
p766
F0.00066
sS'ADJ'
p767
F0.983568
sg574
F2e-05
s(lp768
g40
atp769
a(S'vodstvo'
p770
(dp771
S'NOUN'
p772
F1.0
s(lp773
g46
atp774
a(S'in'
p775
(dp776
S'ADV'
p777
F0.000166
sg574
F8e-06
sS'CONJ'
p778
F0.99978
sS'NOUN'
p779
F4.5e-05
s(lp780
g52
atp781
a(S's'
p782
(dp783
S'VERB'
p784
F0.000317
sS'NOUN'
p785
F0.010334
sS'ADP'
p786
F0.989349
s(lp787
g89
atp788
a(S'tega'
p789
(dp790
S'PRON'
p791
F0.9999999999999999
s(lp792
g95
atp793
a(S'vidika'
p794
(dp795
S'NOUN'
p796
F1.0
s(lp797
g103
atp798
a(S'smo'
p799
(dp800
g574
F4.5e-05
sS'VERB'
p801
F0.999955
s(lp802
g58
atp803
a(S'nekoliko'
p804
(dp805
S'ADV'
p806
F1.0
s(lp807
tp808
a(S'odvisni'
p809
(dp810
S'ADJ'
p811
F1.0
s(lp812
g78
atp813
a(S'sami'
p814
(dp815
S'ADJ'
p816
F0.9999999999999999
s(lp817
g116
atp818
a(S'od'
p819
(dp820
S'ADP'
p821
F1.0
s(lp822
g126
atp823
a(S'sebe'
p824
(dp825
S'PRON'
p826
F1.0
s(lp827
g133
atp828
a(g82
(dp829
g82
F1.0
s(lp830
g82
atp831
asS'es'
p832
(lp833
(S'para'
p834
(dp835
S'CONJ'
p836
F0.977319
sS'ADP'
p837
F0.022681
s(lp838
g20
atp839
a(S'hacerlo'
p840
(dp841
S'VERB'
p842
F1.0
s(lp843
g146
atp844
a(S'necesitamos'
p845
(dp846
S'VERB'
p847
F1.0
s(lp848
g13
atp849
a(S'liderazgo'
p850
(dp851
S'NOUN'
p852
F1.0
s(lp853
g46
atp854
a(g80
(dp855
g82
F1.0
s(lp856
tp857
a(S'y'
p858
(dp859
g574
F0.000442
sS'CONJ'
p860
F0.999558
s(lp861
g52
atp862
a(S'en'
p863
(dp864
g574
F0.0
sS'CONJ'
p865
F0.0
sS'ADP'
p866
F1.0
s(lp867
g89
atp868
a(S'ese'
p869
(dp870
S'PRON'
p871
F0.999929
sS'NOUN'
p872
F7.1e-05
s(lp873
g95
atp874
a(S'sentido'
p875
(dp876
S'NOUN'
p877
F1.0
s(lp878
g103
atp879
a(S'dependemos'
p880
(dp881
S'VERB'
p882
F1.0
s(lp883
g78
atp884
a(S'de'
p885
(dp886
g574
F0.0
sS'CONJ'
p887
F2.4e-05
sS'ADP'
p888
F0.999976
s(lp889
g126
atp890
a(S'nosotros'
p891
(dp892
S'PRON'
p893
F1.0
s(lp894
g229
atp895
a(S'mismos'
p896
(dp897
S'ADJ'
p898
F1.0
s(lp899
g133
atp900
a(g82
(dp901
g82
F1.0
s(lp902
g82
atp903
as.