(dp0
S'fr'
p1
(lp2
(S'('
p3
(dp4
S'.'
p5
F1.0
s(lp6
tp7
a(S'en'
p8
(dp9
S'PRON'
p10
F0.551936
sS'ADP'
p11
F0.448064
s(lp12
tp13
a(S')'
p14
(dp15
g5
F1.0
s(lp16
S'president'
p17
atp18
a(S'monsieur'
p19
(dp20
S'NOUN'
p21
F1.0
s(lp22
S'mr'
p23
atp24
a(S'le'
p25
(dp26
S'PRON'
p27
F0.000321
sS'DET'
p28
F0.999679
s(lp29
tp30
a(S'pr\xc3\xa9sident'
p31
(dp32
S'VERB'
p33
F4.5e-05
sS'NOUN'
p34
F0.999955
s(lp35
g17
atp36
a(S','
p37
(dp38
g5
F1.0
s(lp39
tp40
a(S'au'
p41
(dp42
S'ADP'
p43
F1.0
s(lp44
S'on'
p45
atp46
a(S'nom'
p47
(dp48
S'NOUN'
p49
F1.0
s(lp50
S'behalf'
p51
atp52
a(S'des'
p53
(dp54
S'DET'
p55
F2.1e-05
sS'ADP'
p56
F0.999979
s(lp57
S'of'
p58
atp59
a(S'soldats'
p60
(dp61
S'NOUN'
p62
F1.0
s(lp63
S'soldiers'
p64
atp65
a(S'britanniques'
p66
(dp67
S'ADJ'
p68
F1.0
s(lp69
S'british'
p70
atp71
a(S'qui'
p72
(dp73
S'PRON'
p74
F1.0
s(lp75
S'who'
p76
atp77
a(S'ont'
p78
(dp79
S'VERB'
p80
F1.0
s(lp81
tp82
a(S'perdu'
p83
(dp84
S'VERB'
p85
F0.987058
sS'ADJ'
p86
F0.012942
s(lp87
S'lost'
p88
atp89
a(S'la'
p90
(dp91
S'PRON'
p92
F4.2e-05
sS'DET'
p93
F0.999958
sS'NOUN'
p94
F0.0
s(lp95
S'their'
p96
atp97
a(S'vie'
p98
(dp99
S'NOUN'
p100
F1.0
s(lp101
S'lives'
p102
atp103
a(S'samedi'
p104
(dp105
S'NOUN'
p106
F1.0
s(lp107
S'saturday'
p108
atp109
a(S'soir'
p110
(dp111
S'NOUN'
p112
F1.0
s(lp113
S'evening'
p114
atp115
a(g37
(dp116
g5
F1.0
s(lp117
g37
atp118
a(S'je'
p119
(dp120
S'PRON'
p121
F1.0
s(lp122
S'thank'
p123
atp124
a(S'tiens'
p125
(dp126
S'PRON'
p127
F4.8e-05
sS'VERB'
p128
F0.999943
sS'X'
p129
F9e-06
s(lp130
tp131
a(S'\xc3\xa0'
p132
(dp133
S'ADP'
p134
F1.0
s(lp135
S'on'
p136
atp137
a(S'vous'
p138
(dp139
S'PRON'
p140
F1.0
s(lp141
S'you'
p142
atp143
a(S'remercier'
p144
(dp145
S'VERB'
p146
F1.0
s(lp147
g123
atp148
a(S'pour'
p149
(dp150
S'CONJ'
p151
F0.072797
sS'ADP'
p152
F0.927203
s(lp153
S'for'
p154
atp155
a(S'vos'
p156
(dp157
S'PRON'
p158
F1.0
s(lp159
S'your'
p160
atp161
a(S'condol\xc3\xa9ances'
p162
(dp163
S'VERB'
p164
F0.0
sS'NOUN'
p165
F1.0
s(lp166
S'condolence'
p167
atp168
a(g5
(dp169
g5
F1.0
s(lp170
g5
atp171
asS'en'
p172
(lp173
(g23
(dp174
S'ADJ'
p175
F0.013311
sS'NOUN'
p176
F0.986689
s(lp177
g23
atp178
a(g17
(dp179
S'NOUN'
p180
F1.0
s(lp181
g17
atp182
a(g37
(dp183
g5
F1.0
s(lp184
g37
atp185
a(g123
(dp186
S'VERB'
p187
F1.0
s(lp188
g123
atp189
a(g142
(dp190
S'PRON'
p191
F1.0
s(lp192
g142
atp193
a(g154
(dp194
S'ADP'
p195
F1.0
s(lp196
g154
atp197
a(g160
(dp198
S'PRON'
p199
F1.0
s(lp200
g160
atp201
a(S'words'
p202
(dp203
S'VERB'
p204
F1e-06
sS'NOUN'
p205
F0.999999
s(lp206
g202
atp207
a(S'of'
p208
(dp209
S'ADP'
p210
F1.0
s(lp211
g208
atp212
a(g167
(dp213
S'NOUN'
p214
F1.0
s(lp215
g167
atp216
a(g45
(dp217
S'ADV'
p218
F0.000259
sS'PRT'
p219
F0.000362
sS'ADJ'
p220
F4e-06
sS'ADP'
p221
F0.999371
sS'NOUN'
p222
F4e-06
s(lp223
g45
atp224
a(g51
(dp225
S'NOUN'
p226
F1.0
s(lp227
g51
atp228
a(g58
(dp229
S'ADP'
p230
F1.0
s(lp231
g58
atp232
a(S'our'
p233
(dp234
S'PRON'
p235
F1.0
s(lp236
g233
atp237
a(g70
(dp238
S'ADV'
p239
F6e-06
sS'NOUN'
p240
F0.017345999999999997
sS'ADJ'
p241
F0.982648
s(lp242
g70
atp243
a(g64
(dp244
S'VERB'
p245
F0.000114
sS'NOUN'
p246
F0.999886
s(lp247
g64
atp248
a(g76
(dp249
S'PRON'
p250
F1.0
s(lp251
g76
atp252
a(g88
(dp253
S'VERB'
p254
F0.999866
sS'ADJ'
p255
F0.000134
s(lp256
g88
atp257
a(g96
(dp258
S'PRON'
p259
F1.0
s(lp260
g96
atp261
a(g102
(dp262
S'VERB'
p263
F0.00013
sS'NOUN'
p264
F0.99987
s(lp265
g102
atp266
a(g136
(dp267
S'ADV'
p268
F0.000886
sS'PRT'
p269
F0.00033
sS'ADJ'
p270
F4e-06
sS'ADP'
p271
F0.998779
sS'NOUN'
p272
F0.0
s(lp273
g136
atp274
a(g108
(dp275
S'ADV'
p276
F0.000572
sS'ADJ'
p277
F0.220579
sS'NOUN'
p278
F0.7788480000000001
s(lp279
g108
atp280
a(g114
(dp281
S'VERB'
p282
F0.002997
sS'NOUN'
p283
F0.997003
s(lp284
g114
atp285
a(g5
(dp286
g5
F1.0
s(lp287
g5
atp288
asS'nl'
p289
(lp290
(g3
(dp291
g5
F1.0
s(lp292
tp293
a(S'en'
p294
(dp295
S'CONJ'
p296
F1.0
s(lp297
g17
atp298
a(g14
(dp299
g5
F1.0
s(lp300
g17
atp301
a(S'mijnheer'
p302
(dp303
S'NOUN'
p304
F1.0
s(lp305
g23
atp306
a(S'de'
p307
(dp308
S'DET'
p309
F1.0
s(lp310
tp311
a(S'voorzitter'
p312
(dp313
S'NOUN'
p314
F1.0
s(lp315
g17
atp316
a(g37
(dp317
g5
F1.0
s(lp318
g37
atp319
a(S'ik'
p320
(dp321
S'PRON'
p322
F0.999922
sS'NOUN'
p323
F7.8e-05
s(lp324
tp325
a(S'dank'
p326
(dp327
S'VERB'
p328
F0.92295
sS'NOUN'
p329
F0.07705
s(lp330
g123
atp331
a(S'u'
p332
(dp333
S'PRON'
p334
F0.998566
sS'NOUN'
p335
F0.001434
s(lp336
g142
atp337
a(S'voor'
p338
(dp339
S'ADV'
p340
F0.007278
sS'CONJ'
p341
F2e-06
sS'NOUN'
p342
F0.0
sS'ADP'
p343
F0.99272
s(lp344
g154
atp345
a(S'uw'
p346
(dp347
S'PRON'
p348
F1.0
s(lp349
g160
atp350
a(S'woorden'
p351
(dp352
S'NOUN'
p353
F1.0
s(lp354
g202
atp355
a(S'van'
p356
(dp357
S'ADP'
p358
F1.0
s(lp359
g208
atp360
a(S'deelneming'
p361
(dp362
S'NOUN'
p363
F1.0
s(lp364
g167
atp365
a(S'met'
p366
(dp367
S'ADP'
p368
F1.0
s(lp369
g45
atp370
a(S'onze'
p371
(dp372
S'PRON'
p373
F1.0
s(lp374
g233
atp375
a(S'britse'
p376
(dp377
S'ADJ'
p378
F0.386536
sS'NOUN'
p379
F0.613464
s(lp380
g70
atp381
a(S'soldaten'
p382
(dp383
S'NOUN'
p384
F1.0
s(lp385
g64
atp386
a(S'die'
p387
(dp388
S'PRON'
p389
F1.0
s(lp390
g76
atp391
a(S'zaterdagavond'
p392
(dp393
S'ADV'
p394
F0.121681
sS'ADJ'
p395
F0.233209
sS'NOUN'
p396
F0.645109
s(lp397
g108
atp398
a(S'om'
p399
(dp400
S'ADV'
p401
F0.001513
sS'CONJ'
p402
F0.574789
sS'ADP'
p403
F0.423697
s(lp404
g136
atp405
a(S'het'
p406
(dp407
S'PRON'
p408
F0.013168000000000001
sS'DET'
p409
F0.986832
s(lp410
g96
atp411
a(S'leven'
p412
(dp413
S'VERB'
p414
F0.0007589999999999999
sS'NOUN'
p415
F0.99924
s(lp416
g102
atp417
a(S'zijn'
p418
(dp419
S'PRON'
p420
F0.000192
sS'VERB'
p421
F0.999802
sS'NOUN'
p422
F5e-06
s(lp423
tp424
a(S'gekomen'
p425
(dp426
S'VERB'
p427
F1.0
s(lp428
g88
atp429
a(g5
(dp430
g5
F1.0
s(lp431
g5
atp432
asS'de'
p433
(lp434
(S'herr'
p435
(dp436
S'ADJ'
p437
F0.129581
sS'NOUN'
p438
F0.788996
s(lp439
g23
atp440
a(S'pr\xc3\xa4sident'
p441
(dp442
S'VERB'
p443
F0.06215
sS'NOUN'
p444
F0.924499
s(lp445
tp446
a(S'!'
p447
(dp448
g5
F1.0
s(lp449
g17
atp450
a(S'danke'
p451
(dp452
S'PRT'
p453
F0.989028
sS'VERB'
p454
F0.010972
s(lp455
g123
atp456
a(S'f\xc3\xbcr'
p457
(dp458
S'ADP'
p459
F1.0
s(lp460
g154
atp461
a(S'ihre'
p462
(dp463
S'PRON'
p464
F1.0
s(lp465
g160
atp466
a(S'worte'
p467
(dp468
S'ADJ'
p469
F0.119242
sS'NOUN'
p470
F0.875776
s(lp471
g202
atp472
a(S'des'
p473
(dp474
S'DET'
p475
F1.0
s(lp476
g208
atp477
a(S'beileids'
p478
(dp479
S'ADV'
p480
F0.011784
sS'NOUN'
p481
F0.98227
s(lp482
g167
atp483
a(S'f\xc3\xbcr'
p484
(dp485
S'ADP'
p486
F1.0
s(lp487
g45
atp488
a(S'die'
p489
(dp490
S'PRON'
p491
F0.000218
sS'DET'
p492
F0.999767
s(lp493
g233
atp494
a(S'britischen'
p495
(dp496
S'ADJ'
p497
F1.0
s(lp498
g70
atp499
a(S'soldaten'
p500
(dp501
S'ADJ'
p502
F0.024285
sS'NOUN'
p503
F0.972801
s(lp504
g64
atp505
a(g37
(dp506
g5
F1.0
s(lp507
tp508
a(S'die'
p509
(dp510
S'PRON'
p511
F0.965206
sS'DET'
p512
F0.028629
s(lp513
g76
atp514
a(S'am'
p515
(dp516
S'PRT'
p517
F0.001885
sS'ADP'
p518
F0.998115
s(lp519
tp520
a(S'samstagabend'
p521
(dp522
S'ADV'
p523
F0.058191
sS'NOUN'
p524
F0.933042
s(lp525
g108
atp526
a(S'das'
p527
(dp528
S'PRON'
p529
F0.975106
sS'DET'
p530
F0.02425
s(lp531
g96
atp532
a(S'leben'
p533
(dp534
S'VERB'
p535
F1.0
s(lp536
g102
atp537
a(S'verloren'
p538
(dp539
S'VERB'
p540
F0.922194
sS'ADJ'
p541
F0.076366
s(lp542
tp543
a(S'haben'
p544
(dp545
S'VERB'
p546
F0.999843
s(lp547
g88
atp548
a(g5
(dp549
g5
F1.0
s(lp550
g5
atp551
asS'it'
p552
(lp553
(g3
(dp554
g5
F1.0
s(lp555
tp556
a(S'en'
p557
(dp558
S'ADJ'
p559
F0.097599
sS'VERB'
p560
F0.025145
sS'NOUN'
p561
F0.877257
s(lp562
g17
atp563
a(g14
(dp564
g5
F1.0
s(lp565
tp566
a(S'signor'
p567
(dp568
S'NOUN'
p569
F1.0
s(lp570
g23
atp571
a(S'presidente'
p572
(dp573
S'NOUN'
p574
F1.0
s(lp575
g17
atp576
a(g37
(dp577
g5
F1.0
s(lp578
g37
atp579
a(S'la'
p580
(dp581
S'PRON'
p582
F0.848478
sS'DET'
p583
F0.151522
s(lp584
tp585
a(S'ringrazio'
p586
(dp587
S'VERB'
p588
F1.0
s(lp589
g123
atp590
a(S'per'
p591
(dp592
S'CONJ'
p593
F0.02136
sS'ADP'
p594
F0.97864
s(lp595
g154
atp596
a(S'le'
p597
(dp598
S'PRON'
p599
F7.4e-05
sS'DET'
p600
F0.999926
s(lp601
g160
atp602
a(S'parole'
p603
(dp604
S'NOUN'
p605
F1.0
s(lp606
g202
atp607
a(S'di'
p608
(dp609
S'CONJ'
p610
F4e-06
sS'ADP'
p611
F0.999996
s(lp612
g208
atp613
a(S'cordoglio'
p614
(dp615
S'NOUN'
p616
F1.0
s(lp617
tp618
a(S'espresse'
p619
(dp620
S'VERB'
p621
F0.48267400000000005
sS'ADJ'
p622
F0.517326
s(lp623
g167
atp624
a(S'per'
p625
(dp626
S'CONJ'
p627
F0.040464
sS'ADP'
p628
F0.959536
s(lp629
g45
atp630
a(S'i'
p631
(dp632
S'DET'
p633
F1.0
s(lp634
tp635
a(S'nostri'
p636
(dp637
S'PRON'
p638
F1.0
s(lp639
g233
atp640
a(S'soldati'
p641
(dp642
S'NOUN'
p643
F1.0
s(lp644
g64
atp645
a(S'britannici'
p646
(dp647
S'ADJ'
p648
F1.0
s(lp649
g70
atp650
a(S'che'
p651
(dp652
S'PRON'
p653
F0.974969
sS'CONJ'
p654
F0.024856
sS'ADJ'
p655
F0.000175
s(lp656
g76
atp657
a(S'hanno'
p658
(dp659
S'VERB'
p660
F1.0
s(lp661
tp662
a(S'perso'
p663
(dp664
S'VERB'
p665
F0.997249
sS'ADJ'
p666
F0.002751
s(lp667
g88
atp668
a(S'la'
p669
(dp670
S'PRON'
p671
F1e-06
sS'DET'
p672
F0.999999
s(lp673
g96
atp674
a(S'vita'
p675
(dp676
S'NOUN'
p677
F1.0
s(lp678
g102
atp679
a(S'sabato'
p680
(dp681
S'NOUN'
p682
F1.0
s(lp683
g108
atp684
a(S'sera'
p685
(dp686
S'NOUN'
p687
F1.0
s(lp688
g114
atp689
a(g5
(dp690
g5
F1.0
s(lp691
g5
atp692
asS'sk'
p693
(lp694
(S'v\xc3\xa1\xc5\xbeen\xc3\xbd'
p695
(dp696
S'VERB'
p697
F0.141074
sS'ADJ'
p698
F0.858926
s(lp699
tp700
a(S'p\xc3\xa1n'
p701
(dp702
S'NOUN'
p703
F1.0
s(lp704
g23
atp705
a(S'predseda'
p706
(dp707
S'NOUN'
p708
F1.0
s(lp709
g17
atp710
a(g37
(dp711
g5
F1.0
s(lp712
g37
atp713
a(S'v'
p714
(dp715
g129
F0.000753
sS'ADP'
p716
F0.999247
s(lp717
tp718
a(S'mene'
p719
(dp720
S'NOUN'
p721
F1.0
s(lp722
g51
atp723
a(S'na\xc5\xa1ich'
p724
(dp725
S'PRON'
p726
F0.999678
sS'NOUN'
p727
F0.000233
sg129
F8.9e-05
s(lp728
g233
atp729
a(S'britsk\xc3\xbdch'
p730
(dp731
S'ADJ'
p732
F1.0
s(lp733
g70
atp734
a(S'vojakov'
p735
(dp736
S'NOUN'
p737
F1.0
s(lp738
g64
atp739
a(g37
(dp740
g5
F1.0
s(lp741
tp742
a(S'ktor\xc3\xad'
p743
(dp744
S'PRON'
p745
F1.0
s(lp746
g76
atp747
a(S'pri\xc5\xa1li'
p748
(dp749
S'VERB'
p750
F1.0
s(lp751
tp752
a(S'o'
p753
(dp754
g129
F0.000215
sS'CONJ'
p755
F1.9e-05
sS'NOUN'
p756
F1.1e-05
sS'ADP'
p757
F0.999755
s(lp758
g88
atp759
a(S'\xc5\xbeivot'
p760
(dp761
S'NOUN'
p762
F1.0
s(lp763
g102
atp764
a(g714
(dp765
g129
F0.000506
sS'ADP'
p766
F0.999495
s(lp767
g136
atp768
a(S'sobotu'
p769
(dp770
S'NOUN'
p771
F1.0
s(lp772
g108
atp773
a(S've\xc4\x8der'
p774
(dp775
S'ADV'
p776
F0.334245
sS'VERB'
p777
F0.00044
sS'NOUN'
p778
F0.665315
s(lp779
g114
atp780
a(g37
(dp781
g5
F1.0
s(lp782
tp783
a(S'v\xc3\xa1m'
p784
(dp785
S'PRON'
p786
F0.999679
sg129
F0.000321
s(lp787
g142
atp788
a(S'\xc4\x8fakujem'
p789
(dp790
S'VERB'
p791
F0.927832
sS'NOUN'
p792
F0.072168
s(lp793
g123
atp794
a(S'za'
p795
(dp796
S'PRT'
p797
F0.001796
sS'ADP'
p798
F0.99818
sg129
F2.4e-05
s(lp799
g154
atp800
a(S'va\xc5\xa1e'
p801
(dp802
S'PRON'
p803
F1.0
s(lp804
g160
atp805
a(S's\xc3\xbastrastn\xc3\xa9'
p806
(dp807
S'ADJ'
p808
F1.0
s(lp809
g167
atp810
a(S'slov\xc3\xa1'
p811
(dp812
S'NOUN'
p813
F1.0
s(lp814
g202
atp815
a(g5
(dp816
g5
F1.0
s(lp817
g5
atp818
asS'pl'
p819
(lp820
(S'panie'
p821
(dp822
S'NOUN'
p823
F1.0
s(lp824
g23
atp825
a(S'przewodnicz\xc4\x85cy'
p826
(dp827
S'VERB'
p828
F0.000653
sS'NOUN'
p829
F0.999348
s(lp830
tp831
a(g447
(dp832
g5
F1.0
s(lp833
g17
atp834
a(S'dzi\xc4\x99kuj\xc4\x99'
p835
(dp836
S'VERB'
p837
F1.0
s(lp838
g123
atp839
a(S'za'
p840
(dp841
S'PRT'
p842
F0.010582
sS'VERB'
p843
F9e-06
sS'NOUN'
p844
F4.6e-05
sS'ADP'
p845
F0.989364
sg129
F1e-06
s(lp846
g154
atp847
a(S'wyrazy'
p848
(dp849
S'NOUN'
p850
F1.0
s(lp851
g167
atp852
a(S'wsp\xc3\xb3\xc5\x82czucia'
p853
(dp854
S'NOUN'
p855
F1.0
s(lp856
g167
atp857
a(S'z'
p858
(dp859
S'PRT'
p860
F4e-06
sS'VERB'
p861
F4e-06
sS'NOUN'
p862
F8e-06
sS'ADP'
p863
F0.9999830000000001
sg129
F2e-06
s(lp864
g45
atp865
a(S'powodu'
p866
(dp867
S'NOUN'
p868
F1.0
s(lp869
tp870
a(S'\xc5\x9bmierci'
p871
(dp872
S'NOUN'
p873
F1.0
s(lp874
g167
atp875
a(S'naszych'
p876
(dp877
S'NOUN'
p878
F0.044578
sS'ADJ'
p879
F0.955422
s(lp880
g233
atp881
a(S'brytyjskich'
p882
(dp883
S'ADJ'
p884
F0.999999
s(lp885
g70
atp886
a(S'\xc5\xbco\xc5\x82nierzy'
p887
(dp888
S'NOUN'
p889
F1.0
s(lp890
g64
atp891
a(S'w'
p892
(dp893
S'ADJ'
p894
F0.0
sg129
F2e-06
sS'NOUN'
p895
F3e-06
sS'ADP'
p896
F0.999995
s(lp897
g136
atp898
a(S'ostatni\xc4\x85'
p899
(dp900
S'ADJ'
p901
F1.0
s(lp902
tp903
a(S'sobot\xc4\x99'
p904
(dp905
S'NOUN'
p906
F1.0
s(lp907
g108
atp908
a(S'wieczorem'
p909
(dp910
S'NOUN'
p911
F1.0
s(lp912
g114
atp913
a(g5
(dp914
g5
F1.0
s(lp915
g5
atp916
asS'sl'
p917
(lp918
(S'gospod'
p919
(dp920
S'NOUN'
p921
F1.0
s(lp922
g23
atp923
a(S'predsednik'
p924
(dp925
S'NOUN'
p926
F1.0
s(lp927
g17
atp928
a(g37
(dp929
g5
F1.0
s(lp930
g37
atp931
a(S'hvala'
p932
(dp933
S'NOUN'
p934
F1.0
s(lp935
g123
atp936
a(S'za'
p937
(dp938
S'ADV'
p939
F3.3e-05
sg129
F0.000232
sS'ADP'
p940
F0.9997349999999999
s(lp941
g154
atp942
a(S'va\xc5\xa1e'
p943
(dp944
S'PRON'
p945
F0.999999
s(lp946
g160
atp947
a(S'besede'
p948
(dp949
S'NOUN'
p950
F1.0000010000000001
s(lp951
g202
atp952
a(S'so\xc5\xbealja'
p953
(dp954
S'NOUN'
p955
F1.0
s(lp956
g167
atp957
a(g714
(dp958
S'ADP'
p959
F1.0
s(lp960
tp961
a(S'imenu'
p962
(dp963
S'NOUN'
p964
F1.0
s(lp965
g51
atp966
a(S'na\xc5\xa1ih'
p967
(dp968
S'PRON'
p969
F0.999999
s(lp970
g233
atp971
a(S'britanskih'
p972
(dp973
S'ADJ'
p974
F1.0
s(lp975
g70
atp976
a(S'vojakov'
p977
(dp978
S'NOUN'
p979
F1.0
s(lp980
g64
atp981
a(g37
(dp982
g5
F1.0
s(lp983
tp984
a(S'ki'
p985
(dp986
S'CONJ'
p987
F1.0
s(lp988
g76
atp989
a(S'sta'
p990
(dp991
g129
F8.6e-05
sS'VERB'
p992
F0.9999140000000001
s(lp993
tp994
a(S'izgubila'
p995
(dp996
S'VERB'
p997
F1.0
s(lp998
g88
atp999
a(S'svoji'
p1000
(dp1001
S'PRON'
p1002
F0.999999
s(lp1003
g96
atp1004
a(S'\xc5\xbeivljenji'
p1005
(dp1006
S'ADV'
p1007
F0.001196
sS'ADJ'
p1008
F0.016253
sS'VERB'
p1009
F0.112067
sS'NOUN'
p1010
F0.8704839999999999
s(lp1011
g102
atp1012
a(g714
(dp1013
S'ADP'
p1014
F1.0
s(lp1015
g136
atp1016
a(S'soboto'
p1017
(dp1018
S'NOUN'
p1019
F1.0
s(lp1020
g108
atp1021
a(S'zve\xc4\x8der'
p1022
(dp1023
S'ADV'
p1024
F1.0
s(lp1025
g114
atp1026
a(g5
(dp1027
g5
F1.0
s(lp1028
g5
atp1029
asS'es'
p1030
(lp1031
(S'se\xc3\xb1or'
p1032
(dp1033
S'NOUN'
p1034
F1.0
s(lp1035
g23
atp1036
a(S'presidente'
p1037
(dp1038
S'NOUN'
p1039
F1.0
s(lp1040
g17
atp1041
a(g37
(dp1042
g5
F1.0
s(lp1043
g37
atp1044
a(S'gracias'
p1045
(dp1046
S'NOUN'
p1047
F1.0
s(lp1048
g123
atp1049
a(S'por'
p1050
(dp1051
S'ADP'
p1052
F1.0
s(lp1053
g154
atp1054
a(S'sus'
p1055
(dp1056
S'PRON'
p1057
F1.0
s(lp1058
g160
atp1059
a(S'condolencias'
p1060
(dp1061
S'NOUN'
p1062
F1.0
s(lp1063
g167
atp1064
a(S'para'
p1065
(dp1066
S'CONJ'
p1067
F0.000662
sS'ADP'
p1068
F0.999338
s(lp1069
g45
atp1070
a(S'los'
p1071
(dp1072
S'PRON'
p1073
F0.0
sS'DET'
p1074
F1.0
s(lp1075
g233
atp1076
a(S'soldados'
p1077
(dp1078
S'VERB'
p1079
F0.000957
sS'NOUN'
p1080
F0.999043
s(lp1081
g64
atp1082
a(S'brit\xc3\xa1nicos'
p1083
(dp1084
S'NOUN'
p1085
F0.020659
sS'ADJ'
p1086
F0.979341
s(lp1087
g70
atp1088
a(S'que'
p1089
(dp1090
g129
F1e-06
sS'CONJ'
p1091
F0.999999
s(lp1092
g76
atp1093
a(S'perdieron'
p1094
(dp1095
S'VERB'
p1096
F1.0
s(lp1097
g88
atp1098
a(S'la'
p1099
(dp1100
g129
F0.0
sS'PRON'
p1101
F0.0
sS'DET'
p1102
F1.0
sS'NOUN'
p1103
F0.0
s(lp1104
g96
atp1105
a(S'vida'
p1106
(dp1107
S'NOUN'
p1108
F1.0
s(lp1109
g102
atp1110
a(S'el'
p1111
(dp1112
S'PRON'
p1113
F1.2e-05
sS'DET'
p1114
F0.999988
s(lp1115
g136
atp1116
a(S's\xc3\xa1bado'
p1117
(dp1118
S'NOUN'
p1119
F1.0
s(lp1120
g108
atp1121
a(S'por'
p1122
(dp1123
S'ADP'
p1124
F1.0
s(lp1125
tp1126
a(S'la'
p1127
(dp1128
S'NOUN'
p1129
F0.0
sS'PRON'
p1130
F0.0
sS'DET'
p1131
F0.999999
sg129
F0.0
s(lp1132
tp1133
a(S'noche'
p1134
(dp1135
S'NOUN'
p1136
F1.0
s(lp1137
g114
atp1138
a(g5
(dp1139
g5
F1.0
s(lp1140
g5
atp1141
as.