(dp0
S'fr'
p1
(lp2
(S'nous'
p3
(dp4
S'PRON'
p5
F1.0
s(lp6
S'we'
p7
atp8
a(S'croyons'
p9
(dp10
S'VERB'
p11
F1.0
s(lp12
tp13
a(S'que'
p14
(dp15
S'ADV'
p16
F0.057752
sS'PRON'
p17
F0.013054999999999999
sS'CONJ'
p18
F0.929193
s(lp19
S'believe'
p20
atp21
a(S'ces'
p22
(dp23
S'PRON'
p24
F1.0
s(lp25
S'these'
p26
atp27
a(S'propositions'
p28
(dp29
S'NOUN'
p30
F1.0
s(lp31
S'proposals'
p32
atp33
a(S'permettront'
p34
(dp35
S'VERB'
p36
F1.0
s(lp37
S'will'
p38
atp39
a(S"d'"
p40
(dp41
S'NOUN'
p42
F0.087886
sS'VERB'
p43
F0.7995690000000001
sS'ADJ'
p44
F0.112546
s(lp45
tp46
a(S'am\xc3\xa9liorer'
p47
(dp48
S'VERB'
p49
F1.0
s(lp50
S'increase'
p51
atp52
a(S'la'
p53
(dp54
S'PRON'
p55
F6e-06
sS'DET'
p56
F0.999994
sS'NOUN'
p57
F0.0
s(lp58
tp59
a(S'transparence'
p60
(dp61
S'NOUN'
p62
F1.0
s(lp63
S'transparency'
p64
atp65
a(S'des'
p66
(dp67
S'DET'
p68
F2.1e-05
sS'ADP'
p69
F0.999979
s(lp70
tp71
a(S'march\xc3\xa9s'
p72
(dp73
S'VERB'
p74
F0.006116
sS'NOUN'
p75
F0.993884
s(lp76
S'market'
p77
atp78
a(S'et'
p79
(dp80
S'CONJ'
p81
F1.0
s(lp82
S'and'
p83
atp84
a(S'de'
p85
(dp86
S'ADP'
p87
F1.0
s(lp88
tp89
a(S'limiter'
p90
(dp91
S'VERB'
p92
F1.0
s(lp93
S'limit'
p94
atp95
a(S'les'
p96
(dp97
S'PRON'
p98
F7.5e-05
sS'DET'
p99
F0.999904
sS'ADP'
p100
F2.1e-05
s(lp101
S'the'
p102
atp103
a(S'risques'
p104
(dp105
S'VERB'
p106
F5.1e-05
sS'NOUN'
p107
F0.99995
s(lp108
S'risks'
p109
atp110
a(S'.'
p111
(dp112
g111
F1.0
s(lp113
g111
atp114
asS'en'
p115
(lp116
(g7
(dp117
S'PRON'
p118
F1.0
s(lp119
g7
atp120
a(g20
(dp121
S'VERB'
p122
F1.0
s(lp123
g20
atp124
a(g26
(dp125
S'NOUN'
p126
F5e-06
sS'DET'
p127
F0.999995
s(lp128
g26
atp129
a(g32
(dp130
S'NOUN'
p131
F1.0
s(lp132
g32
atp133
a(g38
(dp134
S'VERB'
p135
F0.999964
sS'NOUN'
p136
F3.6e-05
s(lp137
g38
atp138
a(g51
(dp139
S'VERB'
p140
F0.999602
sS'NOUN'
p141
F0.000398
s(lp142
g51
atp143
a(g77
(dp144
S'VERB'
p145
F0.0011870000000000001
sS'NOUN'
p146
F0.998814
s(lp147
g77
atp148
a(g64
(dp149
S'NOUN'
p150
F1.0
s(lp151
g64
atp152
a(g83
(dp153
S'CONJ'
p154
F1.0
sS'NOUN'
p155
F0.0
s(lp156
g83
atp157
a(g94
(dp158
S'VERB'
p159
F0.988897
sS'NOUN'
p160
F0.011103
s(lp161
g94
atp162
a(g102
(dp163
S'NOUN'
p164
F5e-06
sS'DET'
p165
F0.999995
s(lp166
g102
atp167
a(g109
(dp168
S'VERB'
p169
F0.001461
sS'NOUN'
p170
F0.998539
s(lp171
g109
atp172
a(g111
(dp173
g111
F1.0
s(lp174
g111
atp175
asS'nl'
p176
(lp177
(S'wij'
p178
(dp179
S'PRON'
p180
F1.0
s(lp181
g7
atp182
a(S'denken'
p183
(dp184
S'VERB'
p185
F0.964603
sS'NOUN'
p186
F0.035398
s(lp187
tp188
a(S'dat'
p189
(dp190
S'PRON'
p191
F0.024742
sS'CONJ'
p192
F0.975258
s(lp193
g20
atp194
a(S'deze'
p195
(dp196
S'PRON'
p197
F1.0
s(lp198
g26
atp199
a(S'voorstellen'
p200
(dp201
S'VERB'
p202
F0.08147499999999999
sS'NOUN'
p203
F0.918525
s(lp204
g32
atp205
a(S'de'
p206
(dp207
S'DET'
p208
F1.0
s(lp209
tp210
a(S'transparantie'
p211
(dp212
S'NOUN'
p213
F1.0
s(lp214
g64
atp215
a(S'van'
p216
(dp217
S'ADP'
p218
F1.0
s(lp219
tp220
a(S'de'
p221
(dp222
S'DET'
p223
F1.0
s(lp224
tp225
a(S'markt'
p226
(dp227
S'NOUN'
p228
F1.0
s(lp229
g77
atp230
a(S'zullen'
p231
(dp232
S'VERB'
p233
F0.999974
sS'NOUN'
p234
F2.6e-05
s(lp235
tp236
a(S'vergroten'
p237
(dp238
S'VERB'
p239
F0.990981
sS'NOUN'
p240
F0.009019
s(lp241
g51
atp242
a(S'en'
p243
(dp244
S'CONJ'
p245
F1.0
s(lp246
g83
atp247
a(S'de'
p248
(dp249
S'DET'
p250
F1.0
s(lp251
g102
atp252
a(S'risico'
p253
(dp254
S'NOUN'
p255
F1.0
s(lp256
g109
atp257
a(S"'"
p258
(dp259
g111
F1.0
s(lp260
tp261
a(S's'
p262
(dp263
S'NOUN'
p264
F1.0
s(lp265
g109
atp266
a(S'zullen'
p267
(dp268
S'VERB'
p269
F0.999977
sS'NOUN'
p270
F2.2e-05
s(lp271
g38
atp272
a(S'beperken'
p273
(dp274
S'VERB'
p275
F0.999887
sS'NOUN'
p276
F0.000113
s(lp277
g94
atp278
a(g111
(dp279
g111
F1.0
s(lp280
g111
atp281
asS'de'
p282
(lp283
(S'wir'
p284
(dp285
S'PRON'
p286
F1.0
s(lp287
g7
atp288
a(S'glauben'
p289
(dp290
S'VERB'
p291
F1.0
s(lp292
tp293
a(S','
p294
(dp295
g111
F1.0
s(lp296
tp297
a(S'dass'
p298
(dp299
S'CONJ'
p300
F1.0
s(lp301
g20
atp302
a(S'diese'
p303
(dp304
S'PRON'
p305
F1.0
s(lp306
g26
atp307
a(S'vorschl\xc3\xa4ge'
p308
(dp309
S'VERB'
p310
F0.000347
sS'NOUN'
p311
F0.999517
s(lp312
g32
atp313
a(S'die'
p314
(dp315
S'PRON'
p316
F0.000768
sS'DET'
p317
F0.998968
s(lp318
g102
atp319
a(S'markttransparenz'
p320
(dp321
S'NOUN'
p322
F0.876368
s(lp323
g64
atp324
a(S'erh\xc3\xb6hen'
p325
(dp326
S'VERB'
p327
F1.0
s(lp328
g51
atp329
a(S'und'
p330
(dp331
S'CONJ'
p332
F1.0
s(lp333
g83
atp334
a(S'risiken'
p335
(dp336
S'NOUN'
p337
F0.447289
sS'ADJ'
p338
F0.544791
s(lp339
g109
atp340
a(S'einschr\xc3\xa4nken'
p341
(dp342
S'VERB'
p343
F1.0
s(lp344
g94
atp345
a(S'werden'
p346
(dp347
S'VERB'
p348
F0.998795
s(lp349
g38
atp350
a(g111
(dp351
g111
F1.0
s(lp352
g111
atp353
asS'it'
p354
(lp355
(S'riteniamo'
p356
(dp357
S'VERB'
p358
F1.000001
s(lp359
g20
atp360
a(S'che'
p361
(dp362
S'PRON'
p363
F0.977713
sS'CONJ'
p364
F0.02187
sS'ADJ'
p365
F0.000417
s(lp366
g7
atp367
a(S'queste'
p368
(dp369
S'PRON'
p370
F1.0
s(lp371
g26
atp372
a(S'proposte'
p373
(dp374
S'VERB'
p375
F0.000211
sS'NOUN'
p376
F0.999789
s(lp377
g32
atp378
a(S'aumenteranno'
p379
(dp380
S'VERB'
p381
F1.0
s(lp382
g51
atp383
a(S'la'
p384
(dp385
S'PRON'
p386
F9e-06
sS'DET'
p387
F0.999991
s(lp388
tp389
a(S'trasparenza'
p390
(dp391
S'NOUN'
p392
F1.0
s(lp393
g64
atp394
a(S'del'
p395
(dp396
S'DEF'
p397
F0.001248
sS'ADP'
p398
F0.998752
s(lp399
tp400
a(S'mercato'
p401
(dp402
S'NOUN'
p403
F1.0
s(lp404
g77
atp405
a(S'e'
p406
(dp407
S'CONJ'
p408
F1.0
s(lp409
g83
atp410
a(S'limiteranno'
p411
(dp412
S'VERB'
p413
F1.0
s(lp414
g94
atp415
a(S'il'
p416
(dp417
S'DET'
p418
F1.0
s(lp419
g102
atp420
a(S'rischio'
p421
(dp422
S'VERB'
p423
F2e-06
sS'NOUN'
p424
F0.999998
s(lp425
g109
atp426
a(g111
(dp427
g111
F1.0
s(lp428
g111
atp429
asS'sk'
p430
(lp431
(S'ver\xc3\xadme'
p432
(dp433
S'X'
p434
F0.092367
sS'VERB'
p435
F0.907633
s(lp436
tp437
a(g294
(dp438
g111
F1.0
s(lp439
tp440
a(S'\xc5\xbee'
p441
(dp442
g434
F0.00033
sS'CONJ'
p443
F0.99967
s(lp444
g20
atp445
a(S'tieto'
p446
(dp447
S'PRON'
p448
F1.0
s(lp449
g26
atp450
a(S'n\xc3\xa1vrhy'
p451
(dp452
S'NOUN'
p453
F1.0
s(lp454
g32
atp455
a(S'zv\xc3\xbd\xc5\xa1ia'
p456
(dp457
S'VERB'
p458
F1.0
s(lp459
g51
atp460
a(S'transparentnos\xc5\xa5'
p461
(dp462
S'NOUN'
p463
F1.0
s(lp464
g64
atp465
a(S'trhu'
p466
(dp467
S'NOUN'
p468
F1.0
s(lp469
g77
atp470
a(S'a'
p471
(dp472
g434
F0.0015760000000000001
sS'CONJ'
p473
F0.998203
sS'NOUN'
p474
F4.4e-05
sS'ADP'
p475
F0.0
sS'PRT'
p476
F0.000177
s(lp477
g83
atp478
a(S'obmedzia'
p479
(dp480
S'VERB'
p481
F1.0
s(lp482
g94
atp483
a(S'rizik\xc3\xa1'
p484
(dp485
S'NOUN'
p486
F1.0
s(lp487
g109
atp488
a(g111
(dp489
g111
F1.0
s(lp490
g111
atp491
asS'pl'
p492
(lp493
(S'uwa\xc5\xbcamy'
p494
(dp495
S'VERB'
p496
F1.0
s(lp497
tp498
a(g294
(dp499
g434
F0.0
sg111
F1.0
s(lp500
tp501
a(S'\xc5\xbce'
p502
(dp503
S'PRT'
p504
F0.000203
sS'CONJ'
p505
F0.9997969999999999
s(lp506
g20
atp507
a(S'te'
p508
(dp509
g434
F0.00022
sS'ADJ'
p510
F0.9997699999999999
sS'NOUN'
p511
F1e-05
s(lp512
g26
atp513
a(S'wnioski'
p514
(dp515
S'NOUN'
p516
F1.0
s(lp517
g32
atp518
a(S'przyczyni\xc4\x85'
p519
(dp520
S'VERB'
p521
F1.0
s(lp522
g38
atp523
a(S'si\xc4\x99'
p524
(dp525
S'PRT'
p526
F1.0
s(lp527
tp528
a(S'do'
p529
(dp530
g434
F0.0
sS'NOUN'
p531
F3e-06
sS'ADP'
p532
F0.999997
s(lp533
tp534
a(S'zwi\xc4\x99kszenia'
p535
(dp536
S'VERB'
p537
F0.999997
sS'NOUN'
p538
F3e-06
s(lp539
g51
atp540
a(S'przejrzysto\xc5\x9bci'
p541
(dp542
S'NOUN'
p543
F1.0
s(lp544
g64
atp545
a(S'rynku'
p546
(dp547
S'NOUN'
p548
F1.0
s(lp549
g77
atp550
a(S'i'
p551
(dp552
S'PRT'
p553
F0.0012
sS'CONJ'
p554
F0.998719
sS'PRON'
p555
F1e-06
sS'NOUN'
p556
F7.900000000000001e-05
sg434
F1e-06
s(lp557
g83
atp558
a(S'zmniejszenia'
p559
(dp560
S'VERB'
p561
F0.9671
sS'NOUN'
p562
F0.0329
s(lp563
g94
atp564
a(S'ryzyka'
p565
(dp566
S'NOUN'
p567
F1.0
s(lp568
g109
atp569
a(g111
(dp570
g111
F1.0
s(lp571
g111
atp572
asS'sl'
p573
(lp574
(S'menimo'
p575
(dp576
S'VERB'
p577
F1.0
s(lp578
g20
atp579
a(g294
(dp580
g111
F1.0
s(lp581
tp582
a(S'da'
p583
(dp584
S'PRT'
p585
F9.8e-05
sS'CONJ'
p586
F0.999887
sS'VERB'
p587
F1.4e-05
sg434
F0.0
s(lp588
g7
atp589
a(S'bodo'
p590
(dp591
S'VERB'
p592
F1.0
s(lp593
g38
atp594
a(S'ti'
p595
(dp596
S'PRON'
p597
F0.999991
sg434
F9e-06
s(lp598
g26
atp599
a(S'predlogi'
p600
(dp601
S'NOUN'
p602
F1.0
s(lp603
g32
atp604
a(S'pove\xc4\x8dali'
p605
(dp606
S'VERB'
p607
F1.0
s(lp608
g51
atp609
a(S'preglednost'
p610
(dp611
S'NOUN'
p612
F1.0
s(lp613
g64
atp614
a(S'trga'
p615
(dp616
S'VERB'
p617
F0.003034
sS'NOUN'
p618
F0.996966
s(lp619
g77
atp620
a(S'in'
p621
(dp622
S'ADV'
p623
F0.000527
sg434
F1.8e-05
sS'CONJ'
p624
F0.999444
sS'NOUN'
p625
F1.1e-05
s(lp626
g83
atp627
a(S'omejili'
p628
(dp629
S'VERB'
p630
F1.0
s(lp631
g94
atp632
a(S'tveganja'
p633
(dp634
S'NOUN'
p635
F1.0
s(lp636
g109
atp637
a(g111
(dp638
g111
F1.0
s(lp639
g111
atp640
asS'es'
p641
(lp642
(S'creemos'
p643
(dp644
S'VERB'
p645
F1.0
s(lp646
g20
atp647
a(S'que'
p648
(dp649
g434
F0.0
sS'CONJ'
p650
F1.0
s(lp651
g7
atp652
a(S'estas'
p653
(dp654
S'PRON'
p655
F1.0
s(lp656
g26
atp657
a(S'propuestas'
p658
(dp659
S'VERB'
p660
F0.000251
sS'NOUN'
p661
F0.999749
s(lp662
g32
atp663
a(S'aumentar\xc3\xa1n'
p664
(dp665
S'VERB'
p666
F1.0
s(lp667
g51
atp668
a(S'la'
p669
(dp670
g434
F0.0
sS'PRON'
p671
F0.0
sS'DET'
p672
F1.0
sS'NOUN'
p673
F0.0
s(lp674
tp675
a(S'transparencia'
p676
(dp677
S'NOUN'
p678
F1.0
s(lp679
g64
atp680
a(S'del'
p681
(dp682
S'ADP'
p683
F1.0
s(lp684
tp685
a(S'mercado'
p686
(dp687
S'VERB'
p688
F0.037931
sS'NOUN'
p689
F0.962069
s(lp690
g77
atp691
a(S'y'
p692
(dp693
g434
F0.001422
sS'CONJ'
p694
F0.998578
s(lp695
g83
atp696
a(S'limitar\xc3\xa1n'
p697
(dp698
S'VERB'
p699
F1.0
s(lp700
g94
atp701
a(S'los'
p702
(dp703
S'PRON'
p704
F0.0
sS'DET'
p705
F1.0
s(lp706
g102
atp707
a(S'riesgos'
p708
(dp709
S'NOUN'
p710
F1.0
s(lp711
g109
atp712
a(g111
(dp713
g111
F1.0
s(lp714
g111
atp715
as.