(dp0
S'fr'
p1
(lp2
(S'prenez'
p3
(dp4
S'VERB'
p5
F1.0
s(lp6
S'take'
p7
atp8
a(S'encore'
p9
(dp10
S'ADV'
p11
F1.0
s(lp12
S'or'
p13
atp14
a(S"l'"
p15
(dp16
S'NOUN'
p17
F0.037162
sS'VERB'
p18
F0.7565829999999999
sS'ADJ'
p19
F0.206256
s(lp20
tp21
a(S'innovation'
p22
(dp23
S'NOUN'
p24
F1.0
s(lp25
S'innovation'
p26
atp27
a(S'et'
p28
(dp29
S'CONJ'
p30
F1.0
s(lp31
S'and'
p32
atp33
a(S'la'
p34
(dp35
S'PRON'
p36
F0.00046
sS'DET'
p37
F0.99954
sS'NOUN'
p38
F0.0
s(lp39
tp40
a(S'recherche'
p41
(dp42
S'VERB'
p43
F0.000372
sS'NOUN'
p44
F0.999627
s(lp45
S'research'
p46
atp47
a(S'.'
p48
(dp49
g48
F1.0
s(lp50
g48
atp51
asS'en'
p52
(lp53
(g13
(dp54
S'CONJ'
p55
F1.0
sS'ADJ'
p56
F0.0
s(lp57
g13
atp58
a(g7
(dp59
S'VERB'
p60
F0.997939
sS'NOUN'
p61
F0.002061
s(lp62
g7
atp63
a(g26
(dp64
S'NOUN'
p65
F1.0
s(lp66
g26
atp67
a(g32
(dp68
S'CONJ'
p69
F0.999998
sS'NOUN'
p70
F2e-06
s(lp71
g32
atp72
a(g46
(dp73
S'VERB'
p74
F0.017881
sS'NOUN'
p75
F0.982119
s(lp76
g46
atp77
a(g48
(dp78
g48
F1.0
s(lp79
g48
atp80
asS'nl'
p81
(lp82
(S'of'
p83
(dp84
S'CONJ'
p85
F1.0
s(lp86
g13
atp87
a(S'neem'
p88
(dp89
S'VERB'
p90
F1.0
s(lp91
g7
atp92
a(S'innovatie'
p93
(dp94
S'NOUN'
p95
F1.0
s(lp96
g26
atp97
a(S'en'
p98
(dp99
S'CONJ'
p100
F1.0
s(lp101
g32
atp102
a(S'onderzoek'
p103
(dp104
S'VERB'
p105
F0.000557
sS'NOUN'
p106
F0.999443
s(lp107
g46
atp108
a(g48
(dp109
g48
F1.0
s(lp110
g48
atp111
asS'de'
p112
(lp113
(S'oder'
p114
(dp115
S'CONJ'
p116
F1.0
s(lp117
g13
atp118
a(S'nehmen'
p119
(dp120
S'VERB'
p121
F1.0
s(lp122
tp123
a(S'sie'
p124
(dp125
S'PRON'
p126
F1.0
s(lp127
g7
atp128
a(S'innovation'
p129
(dp130
S'X'
p131
F0.560848
sS'ADJ'
p132
F0.239835
s(lp133
g26
atp134
a(S'und'
p135
(dp136
S'CONJ'
p137
F1.0
s(lp138
g32
atp139
a(S'forschung'
p140
(dp141
S'VERB'
p142
F0.478777
sS'NOUN'
p143
F0.189106
s(lp144
g46
atp145
a(g48
(dp146
g48
F1.0
s(lp147
g48
atp148
asS'it'
p149
(lp150
(S'prendiamo'
p151
(dp152
S'VERB'
p153
F1.0
s(lp154
g7
atp155
a(S','
p156
(dp157
g48
F1.0
s(lp158
tp159
a(S'ancora'
p160
(dp161
S'ADV'
p162
F0.971105
sS'VERB'
p163
F0.026050999999999998
sS'NOUN'
p164
F0.002844
s(lp165
g13
atp166
a(g156
(dp167
g48
F1.0
s(lp168
tp169
a(S'la'
p170
(dp171
S'PRON'
p172
F0.000886
sS'DET'
p173
F0.999114
s(lp174
tp175
a(S'ricerca'
p176
(dp177
S'VERB'
p178
F0.00022799999999999999
sS'NOUN'
p179
F0.999771
s(lp180
g46
atp181
a(S'e'
p182
(dp183
S'CONJ'
p184
F1.0
s(lp185
g32
atp186
a(S"l'"
p187
(dp188
S'NOUN'
p189
F0.000589
sS'VERB'
p190
F0.9933339999999999
sS'ADJ'
p191
F0.006076
s(lp192
tp193
a(S'innovazione'
p194
(dp195
S'NOUN'
p196
F1.0
s(lp197
g26
atp198
a(g48
(dp199
g48
F1.0
s(lp200
g48
atp201
asS'sk'
p202
(lp203
(S'alebo'
p204
(dp205
g131
F5.7e-05
sS'CONJ'
p206
F0.999943
s(lp207
g13
atp208
a(S'si'
p209
(dp210
S'PRT'
p211
F0.999766
sS'VERB'
p212
F0.000234
sg131
F0.0
s(lp213
tp214
a(S'vezmite'
p215
(dp216
S'VERB'
p217
F1.0
s(lp218
g7
atp219
a(S'inov\xc3\xa1cie'
p220
(dp221
S'NOUN'
p222
F1.0
s(lp223
g26
atp224
a(S'a'
p225
(dp226
g131
F0.00158
sS'CONJ'
p227
F0.997581
sS'NOUN'
p228
F0.000116
sS'ADP'
p229
F0.000694
sS'PRT'
p230
F2.9e-05
s(lp231
g32
atp232
a(S'v\xc3\xbdskum'
p233
(dp234
S'NOUN'
p235
F1.0
s(lp236
g46
atp237
a(g48
(dp238
g48
F1.0
s(lp239
g48
atp240
asS'pl'
p241
(lp242
(S'lub'
p243
(dp244
S'CONJ'
p245
F1.0
s(lp246
g13
atp247
a(S'we\xc5\xbamy'
p248
(dp249
S'ADJ'
p250
F0.004478
sS'VERB'
p251
F0.9856689999999999
sS'NOUN'
p252
F0.009851
s(lp253
g7
atp254
a(S'innowacje'
p255
(dp256
S'ADV'
p257
F0.007242
sS'ADJ'
p258
F0.009370999999999997
sS'VERB'
p259
F0.002941
sS'NOUN'
p260
F0.980429
sg131
F2e-05
s(lp261
g26
atp262
a(S'i'
p263
(dp264
S'PRT'
p265
F0.000804
sS'CONJ'
p266
F0.999149
sS'NOUN'
p267
F3.5e-05
sg131
F2e-06
sS'PRON'
p268
F9e-06
s(lp269
g32
atp270
a(S'badania'
p271
(dp272
S'VERB'
p273
F0.039886
sS'NOUN'
p274
F0.960114
s(lp275
g46
atp276
a(g48
(dp277
g48
F1.0
s(lp278
g48
atp279
asS'sl'
p280
(lp281
(S'poglejte'
p282
(dp283
S'VERB'
p284
F1.0
s(lp285
g7
atp286
a(S'inovacije'
p287
(dp288
S'NOUN'
p289
F1.0
s(lp290
g26
atp291
a(S'in'
p292
(dp293
S'ADV'
p294
F3.6e-05
sg131
F1.7e-05
sS'CONJ'
p295
F0.999908
sS'NOUN'
p296
F3.9e-05
s(lp297
g32
atp298
a(S'raziskave'
p299
(dp300
S'NOUN'
p301
F1.0
s(lp302
g46
atp303
a(g48
(dp304
g48
F1.0
s(lp305
g48
atp306
asS'es'
p307
(lp308
(S'piensen'
p309
(dp310
S'VERB'
p311
F1.0
s(lp312
g7
atp313
a(S'en'
p314
(dp315
g131
F0.0
sS'CONJ'
p316
F1e-06
sS'ADP'
p317
F0.999999
s(lp318
tp319
a(S'la'
p320
(dp321
S'NOUN'
p322
F0.0
sS'PRON'
p323
F0.0
sS'DET'
p324
F0.999999
sg131
F0.0
s(lp325
tp326
a(S'innovaci\xc3\xb3n'
p327
(dp328
S'NOUN'
p329
F1.0
s(lp330
g26
atp331
a(S'y'
p332
(dp333
g131
F0.000396
sS'CONJ'
p334
F0.999604
s(lp335
g32
atp336
a(S'la'
p337
(dp338
S'PRON'
p339
F0.000591
sS'DET'
p340
F0.999408
sS'NOUN'
p341
F0.0
sg131
F0.0
s(lp342
tp343
a(S'investigaci\xc3\xb3n'
p344
(dp345
S'NOUN'
p346
F1.0
s(lp347
g46
atp348
a(g48
(dp349
g48
F1.0
s(lp350
g48
atp351
as.