(dp0
S'fr'
p1
(lp2
(S'je'
p3
(dp4
S'PRON'
p5
F1.0
s(lp6
S'i'
p7
atp8
a(S'vous'
p9
(dp10
S'PRON'
p11
F1.0
s(lp12
S'you'
p13
atp14
a(S'f\xc3\xa9licite'
p15
(dp16
S'VERB'
p17
F1.0
s(lp18
S'congratulate'
p19
atp20
a(S'pour'
p21
(dp22
S'CONJ'
p23
F0.067185
sS'ADP'
p24
F0.932815
s(lp25
S'on'
p26
atp27
a(S'la'
p28
(dp29
S'PRON'
p30
F2.7e-05
sS'DET'
p31
F0.999973
sS'NOUN'
p32
F0.0
s(lp33
S'the'
p34
atp35
a(S'mani\xc3\xa8re'
p36
(dp37
S'VERB'
p38
F1.1e-05
sS'NOUN'
p39
F0.999989
s(lp40
tp41
a(S'dont'
p42
(dp43
S'PRON'
p44
F1.0
s(lp45
S'way'
p46
atp47
a(S'vous'
p48
(dp49
S'PRON'
p50
F1.0
s(lp51
tp52
a(S'avez'
p53
(dp54
S'VERB'
p55
F1.0
s(lp56
S'you'
p57
atp58
a(S'tent\xc3\xa9'
p59
(dp60
S'VERB'
p61
F1.0
s(lp62
S'elbow'
p63
atp64
a(S'de'
p65
(dp66
S'ADP'
p67
F1.0
s(lp68
tp69
a(S'r\xc3\xa9soudre'
p70
(dp71
S'VERB'
p72
F1.0
s(lp73
g63
atp74
a(S'ces'
p75
(dp76
S'PRON'
p77
F1.0
s(lp78
S'these'
p79
atp80
a(S'probl\xc3\xa8mes'
p81
(dp82
S'NOUN'
p83
F1.0
s(lp84
g63
atp85
a(S'et'
p86
(dp87
S'CONJ'
p88
F1.0
s(lp89
S'-'
p90
atp91
a(S'vous'
p92
(dp93
S'PRON'
p94
F1.0
s(lp95
S'your'
p96
atp97
a(S'souhaite'
p98
(dp99
S'VERB'
p100
F1.0
s(lp101
g63
atp102
a(S'bonne'
p103
(dp104
S'ADV'
p105
F0.020451
sS'NOUN'
p106
F0.000618
sS'ADJ'
p107
F0.978931
s(lp108
g63
atp109
a(S'chance'
p110
(dp111
S'NOUN'
p112
F1.0
s(lp113
tp114
a(S'pour'
p115
(dp116
S'CONJ'
p117
F0.162089
sS'ADP'
p118
F0.837911
s(lp119
S'in'
p120
atp121
a(S'la'
p122
(dp123
S'PRON'
p124
F2.6e-05
sS'DET'
p125
F0.999974
sS'NOUN'
p126
F0.0
s(lp127
S'the'
p128
atp129
a(S'suite'
p130
(dp131
S'NOUN'
p132
F1.0
s(lp133
g63
atp134
a(S'.'
p135
(dp136
g135
F1.0
s(lp137
g135
atp138
asS'en'
p139
(lp140
(g7
(dp141
S'X'
p142
F0.00169
sS'NOUN'
p143
F0.9983099999999999
s(lp144
g7
atp145
a(g19
(dp146
S'VERB'
p147
F1.0
s(lp148
g19
atp149
a(g13
(dp150
S'PRON'
p151
F1.0
s(lp152
g13
atp153
a(g26
(dp154
S'ADV'
p155
F0.083343
sS'PRT'
p156
F0.003153
sS'ADJ'
p157
F0.0
sS'ADP'
p158
F0.913504
sS'NOUN'
p159
F0.0
s(lp160
g26
atp161
a(g34
(dp162
S'NOUN'
p163
F1e-06
sS'DET'
p164
F0.999999
s(lp165
g34
atp166
a(g46
(dp167
S'ADV'
p168
F0.008628
sS'NOUN'
p169
F0.991372
s(lp170
g46
atp171
a(g57
(dp172
S'PRON'
p173
F1.0
s(lp174
g57
atp175
a(S'have'
p176
(dp177
S'VERB'
p178
F1.0
s(lp179
g176
atp180
a(S'handled'
p181
(dp182
S'VERB'
p183
F0.999936
sS'ADJ'
p184
F6.5e-05
s(lp185
g181
atp186
a(g79
(dp187
S'NOUN'
p188
F0.015681
sS'DET'
p189
F0.984319
s(lp190
g79
atp191
a(g90
(dp192
g135
F1.0
s(lp193
g90
atp194
a(S'more'
p195
(dp196
S'ADV'
p197
F0.024994
sS'ADJ'
p198
F0.975006
s(lp199
g195
atp200
a(S'power'
p201
(dp202
S'VERB'
p203
F9.900000000000001e-05
sS'NOUN'
p204
F0.999901
s(lp205
g201
atp206
a(S'to'
p207
(dp208
S'ADV'
p209
F0.0
sS'PRT'
p210
F0.99999
sS'ADP'
p211
F1e-05
s(lp212
g207
atp213
a(g96
(dp214
S'PRON'
p215
F1.0
s(lp216
g96
atp217
a(g63
(dp218
S'VERB'
p219
F3.5e-05
sS'NOUN'
p220
F0.999965
s(lp221
g63
atp222
a(S','
p223
(dp224
g135
F1.0
s(lp225
g223
atp226
a(S'as'
p227
(dp228
S'ADV'
p229
F0.222032
sS'ADP'
p230
F0.777968
s(lp231
g227
atp232
a(S'we'
p233
(dp234
S'PRON'
p235
F1.0
s(lp236
g233
atp237
a(S'say'
p238
(dp239
S'ADV'
p240
F3.6e-05
sS'VERB'
p241
F0.999963
sS'NOUN'
p242
F0.0
s(lp243
g238
atp244
a(g120
(dp245
S'ADV'
p246
F0.00362
sS'PRT'
p247
F0.010321
sS'ADP'
p248
F0.986059
s(lp249
g120
atp250
a(g128
(dp251
S'NOUN'
p252
F3.5e-05
sS'DET'
p253
F0.999965
s(lp254
g128
atp255
a(S'uk'
p256
(dp257
S'NOUN'
p258
F1.0000010000000001
s(lp259
g256
atp260
a(g135
(dp261
g135
F1.0
s(lp262
g135
atp263
asS'nl'
p264
(lp265
(S'ik'
p266
(dp267
S'PRON'
p268
F0.999981
sS'NOUN'
p269
F1.9e-05
s(lp270
g7
atp271
a(S'feliciteer'
p272
(dp273
S'VERB'
p274
F1.0
s(lp275
g19
atp276
a(S'u'
p277
(dp278
S'PRON'
p279
F0.999961
sS'NOUN'
p280
F3.9e-05
s(lp281
g13
atp282
a(S'met'
p283
(dp284
S'ADP'
p285
F1.0
s(lp286
g26
atp287
a(S'de'
p288
(dp289
S'DET'
p290
F1.0
s(lp291
g34
atp292
a(S'wijze'
p293
(dp294
S'ADJ'
p295
F2e-05
sS'NOUN'
p296
F0.99998
s(lp297
tp298
a(S'waarop'
p299
(dp300
S'ADV'
p301
F1.0
s(lp302
g46
atp303
a(g277
(dp304
S'PRON'
p305
F1.0
sS'NOUN'
p306
F1e-06
s(lp307
tp308
a(S'deze'
p309
(dp310
S'PRON'
p311
F1.0
s(lp312
g79
atp313
a(S'kwesties'
p314
(dp315
S'NOUN'
p316
F1.0
s(lp317
g63
atp318
a(S'hebt'
p319
(dp320
S'VERB'
p321
F1.0
s(lp322
g57
atp323
a(S'aangepakt'
p324
(dp325
S'VERB'
p326
F1.0
s(lp327
g181
atp328
a(g135
(dp329
g135
F1.0
s(lp330
tp331
a(S'zet'
p332
(dp333
S'VERB'
p334
F0.850981
sS'NOUN'
p335
F0.149019
s(lp336
g63
atp337
a(S'hem'
p338
(dp339
S'PRON'
p340
F1.0
s(lp341
tp342
a(S'op'
p343
(dp344
S'ADV'
p345
F0.577331
sS'ADJ'
p346
F2.1e-05
sS'ADP'
p347
F0.422648
s(lp348
g120
atp349
a(g223
(dp350
g135
F1.0
s(lp351
g223
atp352
a(S'commissaris'
p353
(dp354
S'NOUN'
p355
F1.0
s(lp356
g63
atp357
a(S'!'
p358
(dp359
g135
F1.0
s(lp360
g135
atp361
asS'de'
p362
(lp363
(S'ich'
p364
(dp365
S'PRON'
p366
F1.0
s(lp367
g7
atp368
a(S'gratuliere'
p369
(dp370
S'VERB'
p371
F1.0
s(lp372
g19
atp373
a(S'ihnen'
p374
(dp375
S'PRON'
p376
F1.0
s(lp377
g13
atp378
a(S'daf\xc3\xbcr'
p379
(dp380
S'ADV'
p381
F1.0
s(lp382
g233
atp383
a(g223
(dp384
g135
F1.0
s(lp385
tp386
a(S'wie'
p387
(dp388
S'CONJ'
p389
F0.999988
s(lp390
g46
atp391
a(S'sie'
p392
(dp393
S'PRON'
p394
F1.0
s(lp395
g57
atp396
a(S'mit'
p397
(dp398
S'PRT'
p399
F0.000646
sS'ADP'
p400
F0.999354
s(lp401
g120
atp402
a(S'diesen'
p403
(dp404
S'PRON'
p405
F1.0
s(lp406
g79
atp407
a(S'themen'
p408
(dp409
S'ADJ'
p410
F0.04905
sS'NOUN'
p411
F0.945223
s(lp412
g63
atp413
a(S'umgegangen'
p414
(dp415
S'VERB'
p416
F1.0
s(lp417
g181
atp418
a(S'sind'
p419
(dp420
S'VERB'
p421
F1.0
s(lp422
g176
atp423
a(g135
(dp424
g135
F1.0
s(lp425
g135
atp426
a(S'weiter'
p427
(dp428
S'ADV'
p429
F0.984127
sS'ADJ'
p430
F0.015787
s(lp431
tp432
a(S'so'
p433
(dp434
S'ADV'
p435
F0.999973
sS'PRON'
p436
F2.7e-05
s(lp437
g63
atp438
a(g358
(dp439
g135
F1.0
s(lp440
g223
atp441
asS'it'
p442
(lp443
(S'desidero'
p444
(dp445
S'VERB'
p446
F1.0
s(lp447
g7
atp448
a(S'congratularmi'
p449
(dp450
S'VERB'
p451
F1.0
s(lp452
g19
atp453
a(S'per'
p454
(dp455
S'CONJ'
p456
F0.231919
sS'ADP'
p457
F0.768081
s(lp458
g26
atp459
a(S'come'
p460
(dp461
S'PRON'
p462
F0.197561
sS'CONJ'
p463
F0.755469
sS'NOUN'
p464
F0.037211
sS'ADP'
p465
F0.009759
s(lp466
g46
atp467
a(S'ha'
p468
(dp469
S'VERB'
p470
F1.0
s(lp471
g176
atp472
a(S'gestito'
p473
(dp474
S'VERB'
p475
F1.0
s(lp476
g181
atp477
a(S'la'
p478
(dp479
S'PRON'
p480
F1e-06
sS'DET'
p481
F0.999999
s(lp482
g128
atp483
a(S'situazione'
p484
(dp485
S'NOUN'
p486
F1.0
s(lp487
g79
atp488
a(g135
(dp489
g135
F1.0
s(lp490
g90
atp491
a(S'continui'
p492
(dp493
S'VERB'
p494
F0.371493
sS'ADJ'
p495
F0.628508
s(lp496
tp497
a(S'cos\xc3\xac'
p498
(dp499
S'ADV'
p500
F0.976603
sS'CONJ'
p501
F0.023397
s(lp502
g63
atp503
a(g358
(dp504
g135
F1.0
s(lp505
g135
atp506
asS'sk'
p507
(lp508
(S'blaho\xc5\xbeel\xc3\xa1m'
p509
(dp510
S'VERB'
p511
F1.0
s(lp512
g19
atp513
a(S'v\xc3\xa1m'
p514
(dp515
S'PRON'
p516
F0.999998
sg142
F2e-06
s(lp517
g13
atp518
a(S'k'
p519
(dp520
g142
F4.9e-05
sS'NOUN'
p521
F4.9999999999999996e-05
sS'ADP'
p522
F0.999901
s(lp523
g26
atp524
a(S'tomu'
p525
(dp526
S'PRON'
p527
F0.999558
sg142
F0.000442
s(lp528
g63
atp529
a(g223
(dp530
g135
F1.0
s(lp531
tp532
a(S'ako'
p533
(dp534
S'PRON'
p535
F0.021408
sS'CONJ'
p536
F0.978497
sg142
F9.5e-05
s(lp537
g46
atp538
a(S'to'
p539
(dp540
S'PRON'
p541
F0.761066
sS'CONJ'
p542
F0.128183
sg142
F0.11075
s(lp543
g79
atp544
a(S'zvl\xc3\xa1date'
p545
(dp546
S'VERB'
p547
F1.0
s(lp548
g63
atp549
a(g223
(dp550
g135
F1.0
s(lp551
g90
atp552
a(S'tak\xc5\xbee'
p553
(dp554
g142
F0.098741
sS'CONJ'
p555
F0.901259
s(lp556
g63
atp557
a(g223
(dp558
g135
F1.0
s(lp559
g223
atp560
a(S'ako'
p561
(dp562
S'PRON'
p563
F0.056569
sS'CONJ'
p564
F0.943403
sg142
F2.8e-05
s(lp565
g227
atp566
a(S'sa'
p567
(dp568
S'PRT'
p569
F0.99997
sS'ADP'
p570
F0.0
sg142
F2.9999999999999997e-05
s(lp571
g233
atp572
a(S'hovor\xc3\xad'
p573
(dp574
S'VERB'
p575
F1.0
s(lp576
g238
atp577
a(g223
(dp578
g135
F1.0
s(lp579
tp580
a(S've\xc4\xbea'
p581
(dp582
S'ADV'
p583
F0.009521
sS'NUM'
p584
F0.990479
s(lp585
tp586
a(S'zdaru'
p587
(dp588
S'NOUN'
p589
F1.0
s(lp590
g63
atp591
a(g135
(dp592
g135
F1.0
s(lp593
g135
atp594
asS'pl'
p595
(lp596
(S'gratuluj\xc4\x99'
p597
(dp598
S'VERB'
p599
F1.0
s(lp600
g19
atp601
a(S'pani'
p602
(dp603
S'NOUN'
p604
F0.999999
s(lp605
g13
atp606
a(S'sposobu'
p607
(dp608
S'NOUN'
p609
F1.0
s(lp610
g46
atp611
a(S'za\xc5\x82atwienia'
p612
(dp613
S'VERB'
p614
F0.953502
sS'NOUN'
p615
F0.046498
s(lp616
g181
atp617
a(S'tych'
p618
(dp619
S'ADJ'
p620
F0.9999999999999999
s(lp621
g79
atp622
a(S'spraw'
p623
(dp624
S'VERB'
p625
F1e-06
sS'NOUN'
p626
F0.999999
s(lp627
g63
atp628
a(g135
(dp629
g135
F1.0
s(lp630
g90
atp631
a(S'tak'
p632
(dp633
S'ADV'
p634
F0.869489
sS'NOUN'
p635
F6.8e-05
sS'PRT'
p636
F0.128877
sg142
F2e-06
sS'CONJ'
p637
F0.001561
sS'ADJ'
p638
F2e-06
s(lp639
tp640
a(S'trzyma\xc4\x87'
p641
(dp642
S'VERB'
p643
F1.0
s(lp644
g63
atp645
a(g358
(dp646
g135
F1.0
s(lp647
g135
atp648
asS'sl'
p649
(lp650
(S'\xc4\x8cestitam'
p651
(dp652
S'ADV'
p653
F0.004437
sS'ADJ'
p654
F0.0004170000000000001
sS'CONJ'
p655
F0.002884
sS'VERB'
p656
F0.088261
sS'NOUN'
p657
F0.9039989999999998
s(lp658
g19
atp659
a(S'vam'
p660
(dp661
S'PRON'
p662
F1.0
s(lp663
g13
atp664
a(S'za'
p665
(dp666
S'ADV'
p667
F5.8e-05
sg142
F6e-06
sS'ADP'
p668
F0.9999359999999999
s(lp669
g26
atp670
a(S'na\xc4\x8din'
p671
(dp672
S'NOUN'
p673
F1.0
s(lp674
tp675
a(g223
(dp676
g135
F1.0
s(lp677
tp678
a(S'kako'
p679
(dp680
S'ADV'
p681
F0.905828
sS'PRON'
p682
F0.094172
s(lp683
g46
atp684
a(S'ste'
p685
(dp686
S'VERB'
p687
F1.0
s(lp688
g57
atp689
a(S'jih'
p690
(dp691
S'PRON'
p692
F1.0000010000000001
s(lp693
g176
atp694
a(S're\xc5\xa1evali'
p695
(dp696
S'VERB'
p697
F1.0
s(lp698
tp699
a(g90
(dp700
g135
F1.0
s(lp701
g90
atp702
a(S'"'
p703
(dp704
g135
F1.0
s(lp705
g63
atp706
a(S'more'
p707
(dp708
S'VERB'
p709
F0.986739
sS'NOUN'
p710
F0.013260999999999998
s(lp711
g63
atp712
a(S'power'
p713
(dp714
S'NOUN'
p715
F1.0
s(lp716
g63
atp717
a(S'to'
p718
(dp719
g142
F0.620652
sS'PRON'
p720
F0.3793480000000001
s(lp721
g79
atp722
a(S'your'
p723
(dp724
S'ADV'
p725
F0.002065
sS'NOUN'
p726
F0.674091
sS'NUM'
p727
F0.048571
sg142
F0.239112
sS'CONJ'
p728
F0.000347
sS'ADJ'
p729
F0.035813
s(lp730
g63
atp731
a(S'elbow'
p732
(dp733
S'ADV'
p734
F0.001252
sS'ADJ'
p735
F0.018624
sS'VERB'
p736
F0.000354
sS'NOUN'
p737
F0.979767
s(lp738
g63
atp739
a(g703
(dp740
g135
F1.0
s(lp741
g63
atp742
a(S'['
p743
(dp744
g135
F1.0
s(lp745
g63
atp746
a(S'dobro'
p747
(dp748
S'ADV'
p749
F0.853071
sS'NOUN'
p750
F0.039954
sS'ADJ'
p751
F0.10371600000000002
sg142
F0.003259
s(lp752
tp753
a(S'opravljeno'
p754
(dp755
S'ADJ'
p756
F1.0
s(lp757
g63
atp758
a(S']'
p759
(dp760
g135
F1.0
s(lp761
g181
atp762
a(g223
(dp763
g135
F1.0
s(lp764
g223
atp765
a(S'kot'
p766
(dp767
S'CONJ'
p768
F0.999964
sS'NOUN'
p769
F3.7e-05
s(lp770
g227
atp771
a(S'pravimo'
p772
(dp773
S'VERB'
p774
F1.0
s(lp775
g238
atp776
a(S'v'
p777
(dp778
S'ADP'
p779
F1.0
s(lp780
g120
atp781
a(S'zdru\xc5\xbeenem'
p782
(dp783
S'ADJ'
p784
F1.0
s(lp785
tp786
a(S'kraljestvu'
p787
(dp788
S'ADV'
p789
F3.3e-05
sS'ADJ'
p790
F7.699999999999999e-05
sS'VERB'
p791
F0.000966
sS'NOUN'
p792
F0.9989199999999999
s(lp793
g256
atp794
a(g135
(dp795
g135
F1.0
s(lp796
g135
atp797
asS'es'
p798
(lp799
(S'la'
p800
(dp801
S'PRON'
p802
F0.030137999999999998
sS'DET'
p803
F0.969044
sS'NOUN'
p804
F5.9e-05
sg142
F0.000759
s(lp805
g128
atp806
a(S'felicito'
p807
(dp808
S'VERB'
p809
F0.034208
sS'ADJ'
p810
F0.965792
s(lp811
g19
atp812
a(S'por'
p813
(dp814
S'ADP'
p815
F1.0
s(lp816
g26
atp817
a(S'el'
p818
(dp819
S'PRON'
p820
F5e-06
sS'DET'
p821
F0.999995
s(lp822
g34
atp823
a(S'modo'
p824
(dp825
S'NOUN'
p826
F1.0
s(lp827
g46
atp828
a(S'en'
p829
(dp830
g142
F1e-06
sS'CONJ'
p831
F0.00012
sS'ADP'
p832
F0.99988
s(lp833
g120
atp834
a(S'que'
p835
(dp836
g142
F7e-06
sS'CONJ'
p837
F0.999993
s(lp838
g57
atp839
a(S'ha'
p840
(dp841
S'VERB'
p842
F1.0
s(lp843
g176
atp844
a(S'manejado'
p845
(dp846
S'VERB'
p847
F1.0
s(lp848
g181
atp849
a(S'estos'
p850
(dp851
S'PRON'
p852
F1.0
s(lp853
g79
atp854
a(S'asuntos'
p855
(dp856
S'NOUN'
p857
F1.0
s(lp858
g63
atp859
a(g223
(dp860
g135
F1.0
s(lp861
g223
atp862
a(S'espero'
p863
(dp864
S'VERB'
p865
F1.0
s(lp866
g63
atp867
a(S'que'
p868
(dp869
g142
F0.0
sS'CONJ'
p870
F1.0
s(lp871
g227
atp872
a(S'siga'
p873
(dp874
S'VERB'
p875
F1.0
s(lp876
tp877
a(S'as\xc3\xad'
p878
(dp879
S'ADV'
p880
F0.993386
sS'CONJ'
p881
F0.006614
s(lp882
g63
atp883
a(g135
(dp884
g135
F1.0
s(lp885
g135
atp886
as.