(dp0
S'fr'
p1
(lp2
(S'nous'
p3
(dp4
S'PRON'
p5
F1.0
s(lp6
S'we'
p7
atp8
a(S'partageons'
p9
(dp10
S'VERB'
p11
F1.0
s(lp12
S'share'
p13
atp14
a(S'votre'
p15
(dp16
S'PRON'
p17
F1.0
s(lp18
S'your'
p19
atp20
a(S'souhait'
p21
(dp22
S'NOUN'
p23
F1.0
s(lp24
S'ambition'
p25
atp26
a(S'de'
p27
(dp28
S'ADP'
p29
F1.0
s(lp30
S'to'
p31
atp32
a(S'veiller'
p33
(dp34
S'VERB'
p35
F1.0
s(lp36
tp37
a(S'\xc3\xa0'
p38
(dp39
S'ADP'
p40
F1.0
s(lp41
S'by'
p42
atp43
a(S'ce'
p44
(dp45
S'PRON'
p46
F1.0
s(lp47
S'ensure'
p48
atp49
a(S'que'
p50
(dp51
S'ADV'
p52
F0.010855
sS'PRON'
p53
F0.898252
sS'CONJ'
p54
F0.090892
s(lp55
S'that'
p56
atp57
a(S'les'
p58
(dp59
S'PRON'
p60
F0.001511
sS'DET'
p61
F0.998483
sS'ADP'
p62
F6e-06
s(lp63
tp64
a(S'promesses'
p65
(dp66
S'NOUN'
p67
F1.0
s(lp68
S'promises'
p69
atp70
a(S'ne'
p71
(dp72
S'ADV'
p73
F1.0
s(lp74
S'are'
p75
atp76
a(S'restent'
p77
(dp78
S'VERB'
p79
F1.0
s(lp80
S'deeds'
p81
atp82
a(S'pas'
p83
(dp84
S'ADV'
p85
F0.995938
sS'NOUN'
p86
F0.004062
s(lp87
g81
atp88
a(S'lettre'
p89
(dp90
S'VERB'
p91
F0.6609019999999999
sS'NOUN'
p92
F0.339098
s(lp93
tp94
a(S'morte'
p95
(dp96
S'NOUN'
p97
F0.02643
sS'VERB'
p98
F0.772112
sS'ADJ'
p99
F0.201458
s(lp100
g81
atp101
a(S'.'
p102
(dp103
g102
F1.0
s(lp104
g102
atp105
asS'en'
p106
(lp107
(g7
(dp108
S'PRON'
p109
F1.0
s(lp110
g7
atp111
a(g13
(dp112
S'VERB'
p113
F0.99995
sS'NOUN'
p114
F5e-05
s(lp115
g13
atp116
a(g19
(dp117
S'PRON'
p118
F1.0
s(lp119
g19
atp120
a(g25
(dp121
S'NOUN'
p122
F1.0
s(lp123
g25
atp124
a(g31
(dp125
S'ADV'
p126
F0.0
sS'PRT'
p127
F1.0
sS'ADP'
p128
F0.0
s(lp129
g31
atp130
a(g48
(dp131
S'VERB'
p132
F1.0
s(lp133
g48
atp134
a(g56
(dp135
S'ADV'
p136
F0.000102
sS'DET'
p137
F0.25731099999999996
sS'ADP'
p138
F0.742587
s(lp139
g56
atp140
a(g69
(dp141
S'VERB'
p142
F1.7e-05
sS'NOUN'
p143
F0.999983
s(lp144
g69
atp145
a(g75
(dp146
S'VERB'
p147
F0.999999
sS'NOUN'
p148
F1e-06
s(lp149
g75
atp150
a(S'followed'
p151
(dp152
S'VERB'
p153
F0.99857
sS'ADJ'
p154
F0.001429
s(lp155
g151
atp156
a(g42
(dp157
S'ADV'
p158
F4.7e-05
sS'NOUN'
p159
F3e-06
sS'ADP'
p160
F0.99995
s(lp161
g42
atp162
a(g81
(dp163
S'VERB'
p164
F0.000446
sS'NOUN'
p165
F0.999554
s(lp166
g81
atp167
a(g102
(dp168
g102
F1.0
s(lp169
g102
atp170
asS'nl'
p171
(lp172
(S'wij'
p173
(dp174
S'PRON'
p175
F1.0
s(lp176
g7
atp177
a(S'delen'
p178
(dp179
S'VERB'
p180
F0.972029
sS'NOUN'
p181
F0.027971000000000003
s(lp182
g13
atp183
a(S'uw'
p184
(dp185
S'PRON'
p186
F1.0
s(lp187
g19
atp188
a(S'streven'
p189
(dp190
S'VERB'
p191
F0.006371
sS'NOUN'
p192
F0.993629
s(lp193
g25
atp194
a(S'om'
p195
(dp196
S'ADV'
p197
F0.00326
sS'CONJ'
p198
F0.379871
sS'ADP'
p199
F0.616869
s(lp200
tp201
a(S'beloften'
p202
(dp203
S'NOUN'
p204
F1.0
s(lp205
g69
atp206
a(S'door'
p207
(dp208
S'ADV'
p209
F2e-06
sS'CONJ'
p210
F2.1e-05
sS'ADP'
p211
F0.999977
s(lp212
g42
atp213
a(S'daden'
p214
(dp215
S'NOUN'
p216
F1.0
s(lp217
tp218
a(S'te'
p219
(dp220
S'PRT'
p221
F1.0
s(lp222
g31
atp223
a(S'laten'
p224
(dp225
S'VERB'
p226
F0.999999
sS'NOUN'
p227
F0.0
s(lp228
g81
atp229
a(S'volgen'
p230
(dp231
S'VERB'
p232
F0.9989819999999999
sS'NOUN'
p233
F0.001018
s(lp234
g151
atp235
a(g102
(dp236
g102
F1.0
s(lp237
g102
atp238
asS'de'
p239
(lp240
(S'wir'
p241
(dp242
S'PRON'
p243
F1.0
s(lp244
g7
atp245
a(S'teilen'
p246
(dp247
S'VERB'
p248
F1.0
s(lp249
g13
atp250
a(S'ihr'
p251
(dp252
S'PRON'
p253
F1.0
s(lp254
g19
atp255
a(S'bestreben'
p256
(dp257
S'VERB'
p258
F1.0
s(lp259
g25
atp260
a(S','
p261
(dp262
g102
F1.0
s(lp263
tp264
a(S'sicherzustellen'
p265
(dp266
S'VERB'
p267
F1.0
s(lp268
g48
atp269
a(g261
(dp270
g102
F1.0
s(lp271
tp272
a(S'dass'
p273
(dp274
S'CONJ'
p275
F1.0
s(lp276
g56
atp277
a(S'auf'
p278
(dp279
S'ADV'
p280
F6e-05
sS'ADP'
p281
F0.999895
s(lp282
g31
atp283
a(S'die'
p284
(dp285
S'PRON'
p286
F0.000218
sS'DET'
p287
F0.999766
s(lp288
tp289
a(S'gegebenen'
p290
(dp291
S'ADJ'
p292
F1.0
s(lp293
tp294
a(S'versprechen'
p295
(dp296
S'VERB'
p297
F1.0
s(lp298
g69
atp299
a(S'taten'
p300
(dp301
S'VERB'
p302
F1.0
s(lp303
g81
atp304
a(S'folgen'
p305
(dp306
S'VERB'
p307
F1.0
s(lp308
g151
atp309
a(g102
(dp310
g102
F1.0
s(lp311
g102
atp312
asS'it'
p313
(lp314
(S'condividiamo'
p315
(dp316
S'VERB'
p317
F1.0
s(lp318
g13
atp319
a(S"l'"
p320
(dp321
S'NOUN'
p322
F0.000987
sS'VERB'
p323
F0.9830699999999999
sS'ADJ'
p324
F0.015942
s(lp325
g19
atp326
a(S'obiettivo'
p327
(dp328
S'ADJ'
p329
F0.046612
sS'VERB'
p330
F0.001358
sS'NOUN'
p331
F0.95203
s(lp332
tp333
a(S'ambizioso'
p334
(dp335
S'NOUN'
p336
F0.073137
sS'ADJ'
p337
F0.926863
s(lp338
g25
atp339
a(S'di'
p340
(dp341
S'CONJ'
p342
F7e-06
sS'ADP'
p343
F0.999993
s(lp344
g31
atp345
a(S'far'
p346
(dp347
S'VERB'
p348
F1.0
s(lp349
g48
atp350
a(S'seguire'
p351
(dp352
S'VERB'
p353
F1.0
s(lp354
g151
atp355
a(S'i'
p356
(dp357
S'DET'
p358
F1.0
s(lp359
g81
atp360
a(S'fatti'
p361
(dp362
S'VERB'
p363
F0.056643
sS'NOUN'
p364
F0.943357
s(lp365
g81
atp366
a(S'alle'
p367
(dp368
S'ADP'
p369
F1.0
s(lp370
tp371
a(S'parole'
p372
(dp373
S'NOUN'
p374
F1.0
s(lp375
g81
atp376
a(g102
(dp377
g102
F1.0
s(lp378
g102
atp379
asS'sk'
p380
(lp381
(S'podporujeme'
p382
(dp383
S'VERB'
p384
F1.0
s(lp385
g13
atp386
a(S'va\xc5\xa1u'
p387
(dp388
S'PRON'
p389
F1.0
s(lp390
g19
atp391
a(S'snahu'
p392
(dp393
S'NOUN'
p394
F1.0
s(lp395
g25
atp396
a(S'zabezpe\xc4\x8di\xc5\xa5'
p397
(dp398
S'VERB'
p399
F1.0
s(lp400
g48
atp401
a(g261
(dp402
g102
F1.0
s(lp403
tp404
a(S'aby'
p405
(dp406
S'X'
p407
F6.7e-05
sS'CONJ'
p408
F0.999933
s(lp409
g56
atp410
a(S'sa'
p411
(dp412
S'PRT'
p413
F0.999943
sS'ADP'
p414
F4.2e-05
sg407
F1.4e-05
s(lp415
g75
atp416
a(S's\xc4\xbeuby'
p417
(dp418
S'NOUN'
p419
F1.0
s(lp420
g69
atp421
a(S'premenili'
p422
(dp423
S'VERB'
p424
F1.0
s(lp425
tp426
a(S'na'
p427
(dp428
g407
F3.8e-05
sS'CONJ'
p429
F8e-06
sS'ADP'
p430
F0.999952
sS'PRT'
p431
F2e-06
s(lp432
g42
atp433
a(S'\xc4\x8diny'
p434
(dp435
S'NOUN'
p436
F1.0
s(lp437
g81
atp438
a(g102
(dp439
g102
F1.0
s(lp440
g102
atp441
asS'pl'
p442
(lp443
(S'podzielamy'
p444
(dp445
S'ADV'
p446
F0.0011
sS'NOUN'
p447
F0.040554
sS'VERB'
p448
F0.8359489999999999
sS'ADJ'
p449
F0.122398
s(lp450
g13
atp451
a(S'pani'
p452
(dp453
S'NOUN'
p454
F1.0000000000000002
s(lp455
g19
atp456
a(S'ambicj\xc4\x99'
p457
(dp458
S'NOUN'
p459
F1.0
s(lp460
g25
atp461
a(S'zapewnienia'
p462
(dp463
S'VERB'
p464
F0.963575
sS'NOUN'
p465
F0.036425000000000006
s(lp466
g48
atp467
a(g261
(dp468
g407
F1e-06
sg102
F0.999999
s(lp469
tp470
a(S'by'
p471
(dp472
S'NOUN'
p473
F0.000155
sS'ADP'
p474
F1e-06
sS'PRT'
p475
F0.331037
sS'VERB'
p476
F6e-06
sg407
F1e-05
sS'CONJ'
p477
F0.668791
s(lp478
g56
atp479
a(S'za'
p480
(dp481
S'PRT'
p482
F0.019507
sS'VERB'
p483
F7.000000000000001e-05
sS'NOUN'
p484
F1.1e-05
sS'ADP'
p485
F0.980412
sg407
F1e-06
s(lp486
tp487
a(S'obietnicami'
p488
(dp489
S'ADV'
p490
F0.000206
sS'ADJ'
p491
F0.00028700000000000004
sS'VERB'
p492
F0.00011100000000000001
sS'NOUN'
p493
F0.999397
s(lp494
g69
atp495
a(S'sz\xc5\x82y'
p496
(dp497
S'VERB'
p498
F1.000001
s(lp499
g151
atp500
a(S'konkretne'
p501
(dp502
S'ADJ'
p503
F1.000001
s(lp504
tp505
a(S'dzia\xc5\x82ania'
p506
(dp507
S'VERB'
p508
F0.000351
sS'NOUN'
p509
F0.999648
s(lp510
g81
atp511
a(g102
(dp512
g102
F1.0
s(lp513
g102
atp514
asS'sl'
p515
(lp516
(S'strinjamo'
p517
(dp518
S'VERB'
p519
F1.0
s(lp520
g13
atp521
a(S'se'
p522
(dp523
S'PRON'
p524
F0.999969
sg407
F3.1e-05
s(lp525
tp526
a(S'z'
p527
(dp528
S'ADP'
p529
F1.0
s(lp530
g13
atp531
a(S'va\xc5\xa1im'
p532
(dp533
S'PRON'
p534
F1.0
s(lp535
g19
atp536
a(S'prizadevanjem'
p537
(dp538
S'NOUN'
p539
F1.0
s(lp540
g25
atp541
a(g261
(dp542
g102
F1.0
s(lp543
tp544
a(S'da'
p545
(dp546
S'PRT'
p547
F5e-06
sS'CONJ'
p548
F0.99997
sS'VERB'
p549
F2.4e-05
sg407
F0.0
s(lp550
tp551
a(S'se'
p552
(dp553
S'PRON'
p554
F1.0
sg407
F0.0
s(lp555
g31
atp556
a(S'zagotovi'
p557
(dp558
S'VERB'
p559
F1.0
s(lp560
g48
atp561
a(g261
(dp562
g102
F1.0
s(lp563
tp564
a(S'da'
p565
(dp566
S'PRT'
p567
F4.6e-05
sS'CONJ'
p568
F0.999486
sS'VERB'
p569
F0.000468
sg407
F1e-06
s(lp570
g56
atp571
a(S'obljubam'
p572
(dp573
S'NOUN'
p574
F1.0
s(lp575
g69
atp576
a(S'sledijo'
p577
(dp578
S'VERB'
p579
F1.0
s(lp580
g151
atp581
a(S'dejanja'
p582
(dp583
S'NOUN'
p584
F1.0
s(lp585
g81
atp586
a(g102
(dp587
g102
F1.0
s(lp588
g102
atp589
asS'es'
p590
(lp591
(S'todos'
p592
(dp593
S'ADJ'
p594
F1.0
s(lp595
g7
atp596
a(S'compartimos'
p597
(dp598
S'VERB'
p599
F1.0
s(lp600
g13
atp601
a(S'la'
p602
(dp603
g407
F0.0
sS'PRON'
p604
F0.0
sS'DET'
p605
F1.0
sS'NOUN'
p606
F0.0
s(lp607
g19
atp608
a(S'ambici\xc3\xb3n'
p609
(dp610
S'NOUN'
p611
F1.0
s(lp612
g25
atp613
a(S'de'
p614
(dp615
g407
F0.0
sS'CONJ'
p616
F0.00561
sS'ADP'
p617
F0.99439
s(lp618
g31
atp619
a(S'que'
p620
(dp621
g407
F0.0
sS'CONJ'
p622
F1.0
s(lp623
g56
atp624
a(S'las'
p625
(dp626
S'PRON'
p627
F0.000108
sS'DET'
p628
F0.999892
s(lp629
tp630
a(S'promesas'
p631
(dp632
S'NOUN'
p633
F1.0
s(lp634
g69
atp635
a(S'vayan'
p636
(dp637
S'VERB'
p638
F1.0
s(lp639
g75
atp640
a(S'seguidas'
p641
(dp642
S'VERB'
p643
F1.0
s(lp644
g151
atp645
a(S'de'
p646
(dp647
g407
F0.0
sS'CONJ'
p648
F0.000753
sS'ADP'
p649
F0.999247
s(lp650
g42
atp651
a(S'hechos'
p652
(dp653
S'VERB'
p654
F0.014284
sS'NOUN'
p655
F0.985716
s(lp656
g81
atp657
a(g102
(dp658
g102
F1.0
s(lp659
g102
atp660
as.