(dp0
S'fr'
p1
(lp2
(S'je'
p3
(dp4
S'PRON'
p5
F1.0
s(lp6
S'i'
p7
atp8
a(S'suis'
p9
(dp10
S'VERB'
p11
F1.0
s(lp12
S'am'
p13
atp14
a(S'favorable'
p15
(dp16
S'ADJ'
p17
F1.0
s(lp18
S'favour'
p19
atp20
a(S'\xc3\xa0'
p21
(dp22
S'ADP'
p23
F1.0
s(lp24
S'of'
p25
atp26
a(S"l'"
p27
(dp28
S'ADJ'
p29
F0.160704
sS'VERB'
p30
F0.06480800000000002
sS'NOUN'
p31
F0.774488
s(lp32
S'the'
p33
atp34
a(S'id\xc3\xa9e'
p35
(dp36
S'VERB'
p37
F0.084397
sS'NOUN'
p38
F0.915603
s(lp39
S'idea'
p40
atp41
a(S"d'"
p42
(dp43
S'NOUN'
p44
F0.037121
sS'VERB'
p45
F0.702922
sS'ADJ'
p46
F0.259956
s(lp47
S'of'
p48
atp49
a(S'une'
p50
(dp51
S'NOUN'
p52
F1.5e-05
sS'NUM'
p53
F0.021976
sS'DET'
p54
F0.978009
s(lp55
tp56
a(S'inscription'
p57
(dp58
S'NOUN'
p59
F1.0
s(lp60
S'listing'
p61
atp62
a(S'du'
p63
(dp64
S'ADP'
p65
F1.0
s(lp66
tp67
a(S'thon'
p68
(dp69
S'NOUN'
p70
F1.0
s(lp71
S'tuna'
p72
atp73
a(S'rouge'
p74
(dp75
S'NOUN'
p76
F0.003254
sS'ADJ'
p77
F0.996746
s(lp78
S'bluefin'
p79
atp80
a(S'\xc3\xa0'
p81
(dp82
S'ADP'
p83
F1.0
s(lp84
S'in'
p85
atp86
a(S"l'"
p87
(dp88
S'ADJ'
p89
F0.160704
sS'VERB'
p90
F0.06480800000000002
sS'NOUN'
p91
F0.774488
s(lp92
tp93
a(S'annexe'
p94
(dp95
S'ADJ'
p96
F0.179623
sS'VERB'
p97
F0.23547099999999999
sS'NOUN'
p98
F0.584906
s(lp99
S'appendix'
p100
atp101
a(g7
(dp102
S'ADJ'
p103
F0.035207
sS'VERB'
p104
F0.9133250000000002
sS'NOUN'
p105
F0.051468
s(lp106
g7
atp107
a(S'de'
p108
(dp109
S'ADP'
p110
F1.0
s(lp111
S'of'
p112
atp113
a(S'la'
p114
(dp115
S'PRON'
p116
F0.718841
sS'DET'
p117
F0.280864
sS'NOUN'
p118
F0.000295
s(lp119
S'the'
p120
atp121
a(S'cites'
p122
(dp123
S'VERB'
p124
F1.0
s(lp125
S'cites'
p126
atp127
a(S'.'
p128
(dp129
g128
F1.0
s(lp130
S'and'
p131
atp132
a(S'et'
p133
(dp134
S'CONJ'
p135
F1.0
s(lp136
S','
p137
atp138
a(S'bien'
p139
(dp140
S'ADV'
p141
F0.996925
sS'NOUN'
p142
F0.000654
sS'ADJ'
p143
F0.002421
s(lp144
tp145
a(S"qu'"
p146
(dp147
S'NOUN'
p148
F0.025862
sS'VERB'
p149
F0.526862
sS'ADJ'
p150
F0.447278
s(lp151
S'while'
p152
atp153
a(S'il'
p154
(dp155
S'PRON'
p156
F1.0
s(lp157
tp158
a(S'me'
p159
(dp160
S'PRON'
p161
F1.0
s(lp162
g7
atp163
a(S'semble'
p164
(dp165
S'VERB'
p166
F1.0
s(lp167
S'believe'
p168
atp169
a(S'que'
p170
(dp171
S'ADV'
p172
F0.057752
sS'PRON'
p173
F0.013054999999999999
sS'CONJ'
p174
F0.929193
s(lp175
S'that'
p176
atp177
a(S'cette'
p178
(dp179
S'PRON'
p180
F1.0
s(lp181
S'this'
p182
atp183
a(S'd\xc3\xa9cision'
p184
(dp185
S'NOUN'
p186
F1.0
s(lp187
S'decision'
p188
atp189
a(S'sera'
p190
(dp191
S'VERB'
p192
F1.0
s(lp193
S'will'
p194
atp195
a(S'positive'
p196
(dp197
S'NOUN'
p198
F0.138798
sS'VERB'
p199
F0.001609
sS'ADJ'
p200
F0.859593
s(lp201
S'positive'
p202
atp203
a(g137
(dp204
g128
F1.0
s(lp205
g137
atp206
a(S"l'"
p207
(dp208
S'ADJ'
p209
F0.13429
sS'VERB'
p210
F0.638201
sS'NOUN'
p211
F0.227509
s(lp212
S'the'
p213
atp214
a(S'aide'
p215
(dp216
S'VERB'
p217
F0.268021
sS'NOUN'
p218
F0.731979
s(lp219
S'help'
p220
atp221
a(S'de'
p222
(dp223
S'ADP'
p224
F1.0
s(lp225
S'of'
p226
atp227
a(S'la'
p228
(dp229
S'PRON'
p230
F1.2e-05
sS'DET'
p231
F0.999988
sS'NOUN'
p232
F0.0
s(lp233
S'the'
p234
atp235
a(S'commission'
p236
(dp237
S'NOUN'
p238
F1.0
s(lp239
S'commission'
p240
atp241
a(S'sera'
p242
(dp243
S'VERB'
p244
F1.0
s(lp245
S'will'
p246
atp247
a(S'indispensable'
p248
(dp249
S'NOUN'
p250
F0.040853
sS'ADJ'
p251
F0.959147
s(lp252
S'crucial'
p253
atp254
a(S'pour'
p255
(dp256
S'CONJ'
p257
F0.205835
sS'ADP'
p258
F0.794165
s(lp259
S'mean'
p260
atp261
a(S'permettre'
p262
(dp263
S'VERB'
p264
F1.0
s(lp265
S'can'
p266
atp267
a(S'une'
p268
(dp269
S'NOUN'
p270
F5e-06
sS'NUM'
p271
F0.006837
sS'DET'
p272
F0.993158
s(lp273
S'completely'
p274
atp275
a(S'restructuration'
p276
(dp277
S'NOUN'
p278
F1.0
s(lp279
tp280
a(S'en'
p281
(dp282
S'PRON'
p283
F0.000406
sS'ADP'
p284
F0.999594
s(lp285
S'that'
p286
atp287
a(S'profondeur'
p288
(dp289
S'NOUN'
p290
F1.0
s(lp291
S'overhauled'
p292
atp293
a(S'du'
p294
(dp295
S'ADP'
p296
F1.0
s(lp297
S'the'
p298
atp299
a(S'secteur'
p300
(dp301
S'NOUN'
p302
F1.0
s(lp303
S'sector'
p304
atp305
a(S'de'
p306
(dp307
S'ADP'
p308
F1.0
s(lp309
S'fisheries'
p310
atp311
a(S'la'
p312
(dp313
S'PRON'
p314
F0.000201
sS'DET'
p315
F0.999799
sS'NOUN'
p316
F0.0
s(lp317
tp318
a(S'p\xc3\xaache'
p319
(dp320
S'VERB'
p321
F0.000263
sS'NOUN'
p322
F0.999737
s(lp323
g310
atp324
a(g128
(dp325
g128
F1.0
s(lp326
g128
atp327
asS'en'
p328
(lp329
(g7
(dp330
S'X'
p331
F0.000598
sS'NOUN'
p332
F0.999402
s(lp333
g7
atp334
a(g13
(dp335
S'ADV'
p336
F0.058601
sS'VERB'
p337
F0.941399
s(lp338
g13
atp339
a(S'in'
p340
(dp341
S'ADV'
p342
F0.011742
sS'PRT'
p343
F0.001414
sS'ADP'
p344
F0.986843
s(lp345
g340
atp346
a(g19
(dp347
S'VERB'
p348
F0.006385
sS'NOUN'
p349
F0.993615
s(lp350
g19
atp351
a(g25
(dp352
S'ADP'
p353
F1.0
s(lp354
g25
atp355
a(g33
(dp356
S'NOUN'
p357
F1e-06
sS'DET'
p358
F0.999999
s(lp359
g33
atp360
a(g40
(dp361
S'NOUN'
p362
F1.0
s(lp363
g40
atp364
a(g48
(dp365
S'ADP'
p366
F1.0
s(lp367
g48
atp368
a(g61
(dp369
S'VERB'
p370
F0.560828
sS'NOUN'
p371
F0.439172
s(lp372
g61
atp373
a(g79
(dp374
S'ADJ'
p375
F0.07836
sS'NOUN'
p376
F0.921641
s(lp377
g79
atp378
a(g72
(dp379
S'NOUN'
p380
F1.0
s(lp381
g72
atp382
a(g85
(dp383
S'ADV'
p384
F0.000101
sS'PRT'
p385
F0.000193
sS'ADP'
p386
F0.999706
s(lp387
g85
atp388
a(g100
(dp389
S'NOUN'
p390
F1.0
s(lp391
g100
atp392
a(g7
(dp393
g331
F0.006492
sS'NOUN'
p394
F0.993508
s(lp395
g7
atp396
a(g112
(dp397
S'ADP'
p398
F1.0
s(lp399
g112
atp400
a(g120
(dp401
S'NOUN'
p402
F4e-05
sS'DET'
p403
F0.99996
s(lp404
g120
atp405
a(g126
(dp406
S'VERB'
p407
F1.0
s(lp408
g126
atp409
a(g131
(dp410
S'CONJ'
p411
F0.999393
sS'NOUN'
p412
F0.000607
s(lp413
g131
atp414
a(g137
(dp415
g128
F1.0
s(lp416
g137
atp417
a(g152
(dp418
S'NOUN'
p419
F0.004748
sS'ADP'
p420
F0.995252
s(lp421
g152
atp422
a(g7
(dp423
g331
F0.003828
sS'NOUN'
p424
F0.9961720000000001
s(lp425
g7
atp426
a(g168
(dp427
S'VERB'
p428
F1.0
s(lp429
g168
atp430
a(g176
(dp431
S'ADV'
p432
F0.000445
sS'DET'
p433
F0.0028599999999999997
sS'ADP'
p434
F0.996694
s(lp435
g176
atp436
a(g182
(dp437
S'ADV'
p438
F3e-06
sS'NOUN'
p439
F1.4e-05
sS'DET'
p440
F0.999982
s(lp441
g182
atp442
a(g188
(dp443
S'NOUN'
p444
F1.0
s(lp445
g188
atp446
a(g194
(dp447
S'VERB'
p448
F0.999992
sS'NOUN'
p449
F8e-06
s(lp450
g194
atp451
a(S'be'
p452
(dp453
S'VERB'
p454
F1.0
s(lp455
g452
atp456
a(g202
(dp457
S'NOUN'
p458
F0.005232
sS'ADJ'
p459
F0.994768
s(lp460
g202
atp461
a(g137
(dp462
g128
F1.0
s(lp463
g137
atp464
a(g213
(dp465
S'NOUN'
p466
F6e-06
sS'DET'
p467
F0.999994
s(lp468
g213
atp469
a(g220
(dp470
S'VERB'
p471
F0.009189
sS'NOUN'
p472
F0.990811
s(lp473
g220
atp474
a(g226
(dp475
S'ADP'
p476
F1.0
s(lp477
g226
atp478
a(g234
(dp479
S'NOUN'
p480
F1e-06
sS'DET'
p481
F0.999999
s(lp482
g234
atp483
a(g240
(dp484
S'VERB'
p485
F4e-06
sS'NOUN'
p486
F0.999997
s(lp487
g240
atp488
a(g246
(dp489
S'VERB'
p490
F0.999992
sS'NOUN'
p491
F8e-06
s(lp492
g246
atp493
a(S'be'
p494
(dp495
S'VERB'
p496
F1.0
s(lp497
g494
atp498
a(g253
(dp499
S'ADJ'
p500
F1.0
s(lp501
g253
atp502
a(g137
(dp503
g128
F1.0
s(lp504
g137
atp505
a(S'since'
p506
(dp507
S'ADV'
p508
F0.027587
sS'ADP'
p509
F0.972413
s(lp510
g506
atp511
a(S'it'
p512
(dp513
S'PRON'
p514
F1.0
s(lp515
g512
atp516
a(S'will'
p517
(dp518
S'VERB'
p519
F1.0
sS'NOUN'
p520
F0.0
s(lp521
g517
atp522
a(g260
(dp523
S'NOUN'
p524
F3e-06
sS'VERB'
p525
F0.999991
sS'ADJ'
p526
F6e-06
s(lp527
g260
atp528
a(g286
(dp529
S'ADV'
p530
F0.000569
sS'DET'
p531
F0.017936
sS'ADP'
p532
F0.981495
s(lp533
g286
atp534
a(g298
(dp535
S'NOUN'
p536
F2.1e-05
sS'DET'
p537
F0.999979
s(lp538
g298
atp539
a(g310
(dp540
S'NOUN'
p541
F1.0
s(lp542
g310
atp543
a(g304
(dp544
S'NOUN'
p545
F1.0
s(lp546
g304
atp547
a(g266
(dp548
S'VERB'
p549
F0.999996
sS'NOUN'
p550
F4e-06
s(lp551
g266
atp552
a(S'be'
p553
(dp554
S'VERB'
p555
F1.0
s(lp556
g553
atp557
a(g274
(dp558
S'ADV'
p559
F1.0
s(lp560
g274
atp561
a(g292
(dp562
S'VERB'
p563
F1.0
s(lp564
g292
atp565
a(g128
(dp566
g128
F1.0
s(lp567
g128
atp568
asS'nl'
p569
(lp570
(S'ik'
p571
(dp572
S'PRON'
p573
F0.999981
sS'NOUN'
p574
F1.9e-05
s(lp575
g7
atp576
a(S'ben'
p577
(dp578
S'VERB'
p579
F1.0
s(lp580
g13
atp581
a(S'voor'
p582
(dp583
S'ADV'
p584
F0.013683
sS'CONJ'
p585
F2e-05
sS'NOUN'
p586
F0.0
sS'ADP'
p587
F0.986297
s(lp588
g19
atp589
a(S'het'
p590
(dp591
S'PRON'
p592
F0.0009710000000000001
sS'DET'
p593
F0.999029
s(lp594
g33
atp595
a(S'voorstel'
p596
(dp597
S'VERB'
p598
F4.6e-05
sS'NOUN'
p599
F0.999954
s(lp600
g40
atp601
a(S'de'
p602
(dp603
S'DET'
p604
F1.0
s(lp605
tp606
a(S'blauwvintonijn'
p607
(dp608
S'ADJ'
p609
F0.002762
sS'NOUN'
p610
F0.997238
s(lp611
g79
atp612
a(S'op'
p613
(dp614
S'ADV'
p615
F0.995707
sS'ADJ'
p616
F1.1e-05
sS'ADP'
p617
F0.004282
s(lp618
g61
atp619
a(S'te'
p620
(dp621
S'PRT'
p622
F1.0
s(lp623
tp624
a(S'nemen'
p625
(dp626
S'VERB'
p627
F0.999999
sS'NOUN'
p628
F1e-06
s(lp629
g72
atp630
a(S'in'
p631
(dp632
S'ADV'
p633
F0.000252
sS'VERB'
p634
F0.0
sS'ADP'
p635
F0.999748
s(lp636
g85
atp637
a(S'bijlage'
p638
(dp639
S'NOUN'
p640
F1.0
s(lp641
tp642
a(g7
(dp643
S'PRON'
p644
F0.004365
sS'NUM'
p645
F0.968128
sS'NOUN'
p646
F0.027507
s(lp647
g100
atp648
a(S'van'
p649
(dp650
S'ADP'
p651
F1.0
s(lp652
g112
atp653
a(S'de'
p654
(dp655
S'DET'
p656
F1.0
s(lp657
g120
atp658
a(S'cites'
p659
(dp660
S'NOUN'
p661
F1.0
s(lp662
g126
atp663
a(g128
(dp664
g128
F1.0
s(lp665
g131
atp666
a(S'en'
p667
(dp668
S'CONJ'
p669
F1.0
s(lp670
g137
atp671
a(S'hoewel'
p672
(dp673
S'CONJ'
p674
F1.0
s(lp675
g152
atp676
a(S'ik'
p677
(dp678
S'PRON'
p679
F0.99999
sS'NOUN'
p680
F1e-05
s(lp681
g7
atp682
a(S'denk'
p683
(dp684
S'VERB'
p685
F1.0
s(lp686
g168
atp687
a(S'dat'
p688
(dp689
S'PRON'
p690
F0.00105
sS'CONJ'
p691
F0.998951
s(lp692
g176
atp693
a(S'dit'
p694
(dp695
S'PRON'
p696
F1.0
s(lp697
g182
atp698
a(S'besluit'
p699
(dp700
S'VERB'
p701
F7.9e-05
sS'NOUN'
p702
F0.999921
s(lp703
g188
atp704
a(S'positief'
p705
(dp706
S'NOUN'
p707
F0.074856
sS'ADJ'
p708
F0.925144
s(lp709
g202
atp710
a(S'zal'
p711
(dp712
S'VERB'
p713
F1.0
s(lp714
g194
atp715
a(S'zijn'
p716
(dp717
S'PRON'
p718
F0.007496
sS'VERB'
p719
F0.992255
sS'NOUN'
p720
F0.000249
s(lp721
g452
atp722
a(g137
(dp723
g128
F1.0
s(lp724
g137
atp725
a(S'is'
p726
(dp727
S'VERB'
p728
F1.0
s(lp729
tp730
a(S'de'
p731
(dp732
S'DET'
p733
F1.0
s(lp734
g213
atp735
a(S'steun'
p736
(dp737
S'VERB'
p738
F4e-06
sS'NOUN'
p739
F0.999996
s(lp740
g220
atp741
a(S'van'
p742
(dp743
S'ADP'
p744
F1.0
s(lp745
g226
atp746
a(S'de'
p747
(dp748
S'DET'
p749
F1.0
s(lp750
g234
atp751
a(S'commissie'
p752
(dp753
S'NOUN'
p754
F1.0
s(lp755
g240
atp756
a(S'hierbij'
p757
(dp758
S'ADV'
p759
F1.0
s(lp760
tp761
a(S'essentieel'
p762
(dp763
S'ADJ'
p764
F1.0
s(lp765
g253
atp766
a(g137
(dp767
g128
F1.0
s(lp768
g137
atp769
a(S'aangezien'
p770
(dp771
S'CONJ'
p772
F0.999497
sS'VERB'
p773
F0.000503
s(lp774
g506
atp775
a(S'het'
p776
(dp777
S'PRON'
p778
F0.976735
sS'DET'
p779
F0.023266
s(lp780
g512
atp781
a(S'zal'
p782
(dp783
S'VERB'
p784
F1.0
s(lp785
g517
atp786
a(S'leiden'
p787
(dp788
S'VERB'
p789
F0.999658
sS'NOUN'
p790
F0.000342
s(lp791
tp792
a(S'tot'
p793
(dp794
S'CONJ'
p795
F0.000204
sS'ADP'
p796
F0.999796
s(lp797
g260
atp798
a(S'een'
p799
(dp800
S'ADJ'
p801
F1e-06
sS'PRON'
p802
F0.000477
sS'NUM'
p803
F1e-06
sS'DET'
p804
F0.999522
s(lp805
g274
atp806
a(S'ingrijpende'
p807
(dp808
S'NOUN'
p809
F0.000498
sS'VERB'
p810
F0.09005
sS'ADJ'
p811
F0.909452
s(lp812
tp813
a(S'herstructurering'
p814
(dp815
S'NOUN'
p816
F1.0
s(lp817
g292
atp818
a(S'van'
p819
(dp820
S'ADP'
p821
F1.0
s(lp822
tp823
a(S'de'
p824
(dp825
S'DET'
p826
F1.0
s(lp827
g298
atp828
a(S'visserijsector'
p829
(dp830
S'NOUN'
p831
F1.0
s(lp832
g310
atp833
a(g128
(dp834
g128
F1.0
s(lp835
g128
atp836
asS'de'
p837
(lp838
(S'ich'
p839
(dp840
S'PRON'
p841
F1.0
s(lp842
g7
atp843
a(S'bin'
p844
(dp845
S'VERB'
p846
F1.0
s(lp847
g13
atp848
a(S'f\xc3\xbcr'
p849
(dp850
S'ADP'
p851
F1.0
s(lp852
g19
atp853
a(S'die'
p854
(dp855
S'PRON'
p856
F0.000278
sS'DET'
p857
F0.999658
s(lp858
g33
atp859
a(S'idee'
p860
(dp861
S'ADJ'
p862
F0.137392
sS'NOUN'
p863
F0.791208
s(lp864
g40
atp865
a(g137
(dp866
g128
F1.0
s(lp867
tp868
a(S'den'
p869
(dp870
S'PRON'
p871
F0.007989
sS'DET'
p872
F0.989238
s(lp873
tp874
a(S'roten'
p875
(dp876
S'ADJ'
p877
F1.0
s(lp878
g79
atp879
a(S'thun'
p880
(dp881
S'NOUN'
p882
F0.999856
s(lp883
g72
atp884
a(S'in'
p885
(dp886
S'ADP'
p887
F1.0
s(lp888
g85
atp889
a(S'den'
p890
(dp891
S'PRON'
p892
F2.5e-05
sS'DET'
p893
F0.999974
s(lp894
g100
atp895
a(S'anhang'
p896
(dp897
S'ADJ'
p898
F0.001566
sS'NOUN'
p899
F0.998334
s(lp900
g100
atp901
a(g7
(dp902
S'VERB'
p903
F0.939936
sS'ADJ'
p904
F0.0422
s(lp905
tp906
a(S'des'
p907
(dp908
S'DET'
p909
F1.0
s(lp910
g112
atp911
a(S'washingtoner'
p912
(dp913
S'ADJ'
p914
F1.0
s(lp915
tp916
a(S'artenschutz\xc3\xbcbereinkommens'
p917
(dp918
S'ADJ'
p919
F0.002955
sS'NOUN'
p920
F0.996841
s(lp921
g126
atp922
a(S'aufzunehmen'
p923
(dp924
S'VERB'
p925
F1.0
s(lp926
g100
atp927
a(g137
(dp928
g128
F1.0
s(lp929
g137
atp930
a(S'und'
p931
(dp932
S'CONJ'
p933
F1.0
s(lp934
g131
atp935
a(S'w\xc3\xa4hrend'
p936
(dp937
S'CONJ'
p938
F0.987177
sS'ADP'
p939
F0.012818
s(lp940
g152
atp941
a(S'ich'
p942
(dp943
S'PRON'
p944
F1.0
s(lp945
g7
atp946
a(S'davon'
p947
(dp948
S'ADV'
p949
F0.989201
sS'PRT'
p950
F0.010799
s(lp951
tp952
a(S'ausgehe'
p953
(dp954
S'VERB'
p955
F1.0
s(lp956
g168
atp957
a(g137
(dp958
g128
F1.0
s(lp959
tp960
a(S'dass'
p961
(dp962
S'CONJ'
p963
F1.0
s(lp964
g176
atp965
a(S'diese'
p966
(dp967
S'PRON'
p968
F1.0
s(lp969
g182
atp970
a(S'entscheidung'
p971
(dp972
S'ADJ'
p973
F0.000578
sS'NOUN'
p974
F0.999075
s(lp975
g188
atp976
a(S'positiv'
p977
(dp978
S'ADJ'
p979
F1.0
s(lp980
g202
atp981
a(S'sein'
p982
(dp983
S'VERB'
p984
F0.999094
s(lp985
g452
atp986
a(S'wird'
p987
(dp988
S'VERB'
p989
F1.0
s(lp990
g194
atp991
a(g137
(dp992
g128
F1.0
s(lp993
g137
atp994
a(S'wird'
p995
(dp996
S'VERB'
p997
F1.0
s(lp998
g246
atp999
a(S'die'
p1000
(dp1001
S'PRON'
p1002
F0.000678
sS'DET'
p1003
F0.999321
s(lp1004
g213
atp1005
a(S'unterst\xc3\xbctzung'
p1006
(dp1007
S'ADJ'
p1008
F9.4e-05
sS'NOUN'
p1009
F0.99981
s(lp1010
tp1011
a(S'der'
p1012
(dp1013
S'PRON'
p1014
F0.000201
sS'DET'
p1015
F0.999728
s(lp1016
g234
atp1017
a(S'kommission'
p1018
(dp1019
S'ADJ'
p1020
F0.075326
sS'NOUN'
p1021
F0.860967
s(lp1022
g240
atp1023
a(S'dabei'
p1024
(dp1025
S'ADV'
p1026
F0.987035
sS'PRT'
p1027
F0.012965
s(lp1028
g220
atp1029
a(S'von'
p1030
(dp1031
S'NOUN'
p1032
F0.00023
sS'ADP'
p1033
F0.99977
s(lp1034
g253
atp1035
a(S'entscheidender'
p1036
(dp1037
S'ADJ'
p1038
F1.0
s(lp1039
tp1040
a(S'bedeutung'
p1041
(dp1042
S'ADJ'
p1043
F0.058369
sS'NOUN'
p1044
F0.921326
s(lp1045
g253
atp1046
a(S'sein'
p1047
(dp1048
S'VERB'
p1049
F0.9990110000000001
s(lp1050
g494
atp1051
a(g137
(dp1052
g128
F1.0
s(lp1053
g137
atp1054
a(S'weil'
p1055
(dp1056
S'CONJ'
p1057
F0.999976
sS'VERB'
p1058
F2.4e-05
s(lp1059
g506
atp1060
a(S'dies'
p1061
(dp1062
S'PRON'
p1063
F1.0
s(lp1064
g512
atp1065
a(S'zur'
p1066
(dp1067
S'ADP'
p1068
F1.0
s(lp1069
g61
atp1070
a(S'folge'
p1071
(dp1072
S'VERB'
p1073
F1.0
s(lp1074
tp1075
a(S'h\xc3\xa4tte'
p1076
(dp1077
S'VERB'
p1078
F1.0
s(lp1079
g260
atp1080
a(g137
(dp1081
g128
F1.0
s(lp1082
tp1083
a(S'dass'
p1084
(dp1085
S'CONJ'
p1086
F1.0
s(lp1087
g286
atp1088
a(S'der'
p1089
(dp1090
S'PRON'
p1091
F0.001576
sS'DET'
p1092
F0.998292
s(lp1093
g298
atp1094
a(S'fischereisektor'
p1095
(dp1096
S'ADJ'
p1097
F0.026114
sS'NOUN'
p1098
F0.950463
s(lp1099
g310
atp1100
a(S'vollst\xc3\xa4ndig'
p1101
(dp1102
S'ADJ'
p1103
F1.0
s(lp1104
g274
atp1105
a(S'reformiert'
p1106
(dp1107
S'VERB'
p1108
F1.0
s(lp1109
g292
atp1110
a(S'werden'
p1111
(dp1112
S'VERB'
p1113
F0.999998
s(lp1114
g553
atp1115
a(S'kann'
p1116
(dp1117
S'VERB'
p1118
F1.0
s(lp1119
g266
atp1120
a(g128
(dp1121
g128
F1.0
s(lp1122
g128
atp1123
asS'it'
p1124
(lp1125
(S'sono'
p1126
(dp1127
S'VERB'
p1128
F0.997393
sS'NOUN'
p1129
F0.002607
s(lp1130
g13
atp1131
a(S'favorevole'
p1132
(dp1133
S'ADJ'
p1134
F1.0
s(lp1135
g19
atp1136
a(S"all'"
p1137
(dp1138
S'ADJ'
p1139
F0.000775
sS'VERB'
p1140
F0.00011
sS'NOUN'
p1141
F0.999116
s(lp1142
g33
atp1143
a(S'idea'
p1144
(dp1145
S'VERB'
p1146
F0.043179
sS'NOUN'
p1147
F0.956821
s(lp1148
g40
atp1149
a(S'di'
p1150
(dp1151
S'CONJ'
p1152
F6e-06
sS'ADP'
p1153
F0.999994
s(lp1154
g48
atp1155
a(S'iscrivere'
p1156
(dp1157
S'VERB'
p1158
F1.0
s(lp1159
g61
atp1160
a(S'il'
p1161
(dp1162
S'DET'
p1163
F1.0
s(lp1164
g72
atp1165
a(S'tonno'
p1166
(dp1167
S'NOUN'
p1168
F1.0
s(lp1169
tp1170
a(S'rosso'
p1171
(dp1172
S'NOUN'
p1173
F0.008743
sS'ADJ'
p1174
F0.991257
s(lp1175
g79
atp1176
a(S"nell'"
p1177
(dp1178
S'ADJ'
p1179
F0.001124
sS'VERB'
p1180
F0.00016600000000000002
sS'NOUN'
p1181
F0.998711
s(lp1182
g85
atp1183
a(S'allegato'
p1184
(dp1185
S'ADJ'
p1186
F0.035699
sS'VERB'
p1187
F0.789286
sS'NOUN'
p1188
F0.175015
s(lp1189
tp1190
a(g7
(dp1191
S'DET'
p1192
F1.0
s(lp1193
g100
atp1194
a(S'della'
p1195
(dp1196
S'DEF'
p1197
F0.014542
sS'ADP'
p1198
F0.985458
s(lp1199
g112
atp1200
a(S'cites'
p1201
(dp1202
S'ADJ'
p1203
F0.010076
sS'VERB'
p1204
F0.0
sS'NOUN'
p1205
F0.989924
s(lp1206
g126
atp1207
a(S'e'
p1208
(dp1209
S'CONJ'
p1210
F1.0
s(lp1211
g131
atp1212
a(g137
(dp1213
g128
F1.0
s(lp1214
g137
atp1215
a(S'pur'
p1216
(dp1217
S'ADV'
p1218
F1.0
s(lp1219
g152
atp1220
a(S'ritenendo'
p1221
(dp1222
S'VERB'
p1223
F1.0
s(lp1224
g168
atp1225
a(S'positiva'
p1226
(dp1227
S'NOUN'
p1228
F0.190312
sS'ADJ'
p1229
F0.809688
s(lp1230
g202
atp1231
a(S'la'
p1232
(dp1233
S'PRON'
p1234
F0.000184
sS'DET'
p1235
F0.999816
s(lp1236
g182
atp1237
a(S'decisione'
p1238
(dp1239
S'NOUN'
p1240
F1.0
s(lp1241
g188
atp1242
a(g137
(dp1243
g128
F1.0
s(lp1244
g137
atp1245
a(S"l'"
p1246
(dp1247
S'NOUN'
p1248
F0.003774
sS'VERB'
p1249
F0.984512
sS'ADJ'
p1250
F0.011715
s(lp1251
g213
atp1252
a(S'aiuto'
p1253
(dp1254
S'VERB'
p1255
F0.063488
sS'NOUN'
p1256
F0.936512
s(lp1257
g220
atp1258
a(S'della'
p1259
(dp1260
S'DEF'
p1261
F0.005503
sS'ADP'
p1262
F0.994497
s(lp1263
g226
atp1264
a(S'commissione'
p1265
(dp1266
S'NOUN'
p1267
F1.0
s(lp1268
g240
atp1269
a(S'sar\xc3\xa0'
p1270
(dp1271
S'VERB'
p1272
F1.0
s(lp1273
g246
atp1274
a(S'indispensabile'
p1275
(dp1276
S'NOUN'
p1277
F0.105906
sS'ADJ'
p1278
F0.894094
s(lp1279
g253
atp1280
a(S'per'
p1281
(dp1282
S'CONJ'
p1283
F0.006097
sS'ADP'
p1284
F0.993903
s(lp1285
g286
atp1286
a(S'permettere'
p1287
(dp1288
S'VERB'
p1289
F1.0
s(lp1290
g292
atp1291
a(S'una'
p1292
(dp1293
S'PRON'
p1294
F5e-05
sS'DEF'
p1295
F0.99995
s(lp1296
tp1297
a(S'profonda'
p1298
(dp1299
S'VERB'
p1300
F1.4999999999999999e-05
sS'ADJ'
p1301
F0.999985
s(lp1302
tp1303
a(S'ristrutturazione'
p1304
(dp1305
S'NOUN'
p1306
F1.0
s(lp1307
g292
atp1308
a(S'del'
p1309
(dp1310
S'DEF'
p1311
F0.001257
sS'ADP'
p1312
F0.998743
s(lp1313
g274
atp1314
a(S'settore'
p1315
(dp1316
S'ADJ'
p1317
F0.006301
sS'NOUN'
p1318
F0.993699
s(lp1319
g304
atp1320
a(S'della'
p1321
(dp1322
S'DEF'
p1323
F0.001594
sS'ADP'
p1324
F0.998406
s(lp1325
tp1326
a(S'pesca'
p1327
(dp1328
S'VERB'
p1329
F4.6e-05
sS'NOUN'
p1330
F0.999954
s(lp1331
g310
atp1332
a(g128
(dp1333
g128
F1.0
s(lp1334
g128
atp1335
asS'sk'
p1336
(lp1337
(S's\xc3\xbahlas\xc3\xadm'
p1338
(dp1339
S'VERB'
p1340
F1.0
s(lp1341
g19
atp1342
a(S's'
p1343
(dp1344
S'PRT'
p1345
F0.000483
sS'CONJ'
p1346
F1.3e-05
sS'NOUN'
p1347
F6e-06
sS'ADP'
p1348
F0.999268
sg331
F0.000229
s(lp1349
g33
atp1350
a(S'n\xc3\xa1zorom'
p1351
(dp1352
S'NOUN'
p1353
F1.0
s(lp1354
g40
atp1355
a(S'o'
p1356
(dp1357
g331
F0.000736
sS'CONJ'
p1358
F5e-05
sS'NOUN'
p1359
F2.3e-05
sS'ADP'
p1360
F0.999192
s(lp1361
g48
atp1362
a(S'zaraden\xc3\xad'
p1363
(dp1364
S'VERB'
p1365
F0.157843
sS'NOUN'
p1366
F0.8421580000000001
s(lp1367
g61
atp1368
a(S'tuniaka'
p1369
(dp1370
S'NOUN'
p1371
F1.0
s(lp1372
g79
atp1373
a(S'modroplutv\xc3\xa9ho'
p1374
(dp1375
S'ADJ'
p1376
F1.0
s(lp1377
g72
atp1378
a(S'do'
p1379
(dp1380
g331
F0.00129
sS'ADP'
p1381
F0.998599
sS'PRON'
p1382
F0.000112
s(lp1383
g85
atp1384
a(S'pr\xc3\xadlohy'
p1385
(dp1386
S'NOUN'
p1387
F1.0
s(lp1388
tp1389
a(g7
(dp1390
g331
F0.08750200000000001
sS'CONJ'
p1391
F0.90712
sS'NOUN'
p1392
F0.005378
s(lp1393
g100
atp1394
a(S'dohovoru'
p1395
(dp1396
S'NOUN'
p1397
F1.0
s(lp1398
tp1399
a(S'cites'
p1400
(dp1401
S'ADV'
p1402
F0.007463
sS'NOUN'
p1403
F0.306844
sS'ADJ'
p1404
F0.62433
sg331
F0.061362
s(lp1405
g126
atp1406
a(S'a'
p1407
(dp1408
g331
F0.004825
sS'CONJ'
p1409
F0.995004
sS'NOUN'
p1410
F0.000166
sS'ADP'
p1411
F0.0
sS'PRT'
p1412
F4e-06
s(lp1413
g131
atp1414
a(S'ke\xc4\x8f\xc5\xbee'
p1415
(dp1416
S'CONJ'
p1417
F1.0
s(lp1418
g152
atp1419
a(S'som'
p1420
(dp1421
S'VERB'
p1422
F1.0
s(lp1423
g7
atp1424
a(S'presved\xc4\x8den\xc3\xa1'
p1425
(dp1426
S'VERB'
p1427
F1.0
s(lp1428
tp1429
a(g137
(dp1430
g128
F1.0
s(lp1431
g168
atp1432
a(S'\xc5\xbee'
p1433
(dp1434
g331
F0.000352
sS'CONJ'
p1435
F0.999647
s(lp1436
g176
atp1437
a(S'toto'
p1438
(dp1439
S'PRON'
p1440
F0.999982
sg331
F1.8e-05
s(lp1441
g182
atp1442
a(S'rozhodnutie'
p1443
(dp1444
S'NOUN'
p1445
F1.0
s(lp1446
g188
atp1447
a(S'bude'
p1448
(dp1449
g331
F0.001019
sS'VERB'
p1450
F0.998981
s(lp1451
g194
atp1452
a(S'kladn\xc3\xa9'
p1453
(dp1454
S'ADJ'
p1455
F1.0
s(lp1456
g202
atp1457
a(g137
(dp1458
g128
F1.0
s(lp1459
g137
atp1460
a(S'pomoc'
p1461
(dp1462
S'VERB'
p1463
F0.00016
sS'NOUN'
p1464
F0.99984
s(lp1465
g220
atp1466
a(S'komisie'
p1467
(dp1468
S'NOUN'
p1469
F1.0
s(lp1470
g240
atp1471
a(S'bude'
p1472
(dp1473
g331
F1.2e-05
sS'VERB'
p1474
F0.999988
s(lp1475
g246
atp1476
a(S'ma\xc5\xa5'
p1477
(dp1478
S'VERB'
p1479
F0.999537
sS'NOUN'
p1480
F0.000463
s(lp1481
g494
atp1482
a(S'z\xc3\xa1sadn\xc3\xbd'
p1483
(dp1484
S'ADJ'
p1485
F1.0
s(lp1486
tp1487
a(S'v\xc3\xbdznam'
p1488
(dp1489
S'NOUN'
p1490
F1.0
s(lp1491
g253
atp1492
a(g137
(dp1493
g128
F1.0
s(lp1494
g137
atp1495
a(S'preto\xc5\xbee'
p1496
(dp1497
S'CONJ'
p1498
F1.0
s(lp1499
g506
atp1500
a(S'bude'
p1501
(dp1502
g331
F3e-06
sS'VERB'
p1503
F0.999997
s(lp1504
g517
atp1505
a(S'znamena\xc5\xa5'
p1506
(dp1507
S'VERB'
p1508
F1.0
s(lp1509
g260
atp1510
a(g137
(dp1511
g128
F1.0
s(lp1512
tp1513
a(S'\xc5\xbee'
p1514
(dp1515
g331
F0.00032700000000000003
sS'CONJ'
p1516
F0.999673
s(lp1517
g286
atp1518
a(S'oblas\xc5\xa5'
p1519
(dp1520
S'NOUN'
p1521
F1.0
s(lp1522
g304
atp1523
a(S'rybolovu'
p1524
(dp1525
S'NOUN'
p1526
F1.0
s(lp1527
g310
atp1528
a(S'mo\xc5\xbeno'
p1529
(dp1530
S'ADV'
p1531
F0.503461
sg331
F0.496539
s(lp1532
g266
atp1533
a(S'\xc3\xbaplne'
p1534
(dp1535
S'ADV'
p1536
F0.99965
sS'ADJ'
p1537
F0.00035
s(lp1538
g274
atp1539
a(S'prepracova\xc5\xa5'
p1540
(dp1541
S'VERB'
p1542
F1.0
s(lp1543
g292
atp1544
a(g128
(dp1545
g128
F1.0
s(lp1546
g128
atp1547
asS'pl'
p1548
(lp1549
(S'jestem'
p1550
(dp1551
S'VERB'
p1552
F1.0
s(lp1553
g13
atp1554
a(S'zwolenniczk\xc4\x85'
p1555
(dp1556
S'ADJ'
p1557
F0.004094
sS'VERB'
p1558
F0.000714
sS'NOUN'
p1559
F0.995192
s(lp1560
g19
atp1561
a(S'wpisania'
p1562
(dp1563
S'VERB'
p1564
F1.0
s(lp1565
g61
atp1566
a(S'tu\xc5\x84czyka'
p1567
(dp1568
S'ADJ'
p1569
F0.001174
sS'VERB'
p1570
F0.000301
sS'NOUN'
p1571
F0.9985249999999999
s(lp1572
g72
atp1573
a(S'b\xc5\x82\xc4\x99kitnop\xc5\x82etwego'
p1574
(dp1575
S'ADV'
p1576
F0.000387
sS'NOUN'
p1577
F0.008362
sS'VERB'
p1578
F0.010712000000000001
sS'ADJ'
p1579
F0.9805360000000001
s(lp1580
g79
atp1581
a(S'do'
p1582
(dp1583
g331
F0.0
sS'NOUN'
p1584
F1e-05
sS'ADP'
p1585
F0.9999899999999999
s(lp1586
g100
atp1587
a(S'wykazu'
p1588
(dp1589
S'NOUN'
p1590
F1.0
s(lp1591
g100
atp1592
a(S'za\xc5\x82\xc4\x85cznika'
p1593
(dp1594
S'NOUN'
p1595
F1.0
s(lp1596
tp1597
a(g7
(dp1598
S'PRT'
p1599
F0.004563
sS'CONJ'
p1600
F0.99541
sS'PRON'
p1601
F1e-06
sS'NOUN'
p1602
F2.2e-05
sg331
F4e-06
s(lp1603
g100
atp1604
a(S'do'
p1605
(dp1606
g331
F0.0
sS'NOUN'
p1607
F1.2e-05
sS'ADP'
p1608
F0.999988
s(lp1609
g120
atp1610
a(S'konwencji'
p1611
(dp1612
S'NOUN'
p1613
F0.999999
s(lp1614
tp1615
a(S'cites'
p1616
(dp1617
S'ADV'
p1618
F0.000993
sg331
F0.000126
sS'NOUN'
p1619
F0.9988819999999999
s(lp1620
g126
atp1621
a(g7
(dp1622
S'PRT'
p1623
F0.005673
sS'CONJ'
p1624
F0.994279
sS'PRON'
p1625
F1.3000000000000001e-05
sS'NOUN'
p1626
F9.999999999999999e-06
sg331
F2.5e-05
s(lp1627
g131
atp1628
a(S'cho\xc4\x87'
p1629
(dp1630
S'PRT'
p1631
F0.236703
sS'CONJ'
p1632
F0.760227
sS'VERB'
p1633
F0.003069
s(lp1634
g152
atp1635
a(S'uwa\xc5\xbcam'
p1636
(dp1637
S'VERB'
p1638
F1.0
s(lp1639
g168
atp1640
a(g137
(dp1641
g331
F0.0
sg128
F1.0
s(lp1642
tp1643
a(S'\xc5\xbce'
p1644
(dp1645
S'PRT'
p1646
F9.9e-05
sS'CONJ'
p1647
F0.999902
s(lp1648
g176
atp1649
a(S'decyzja'
p1650
(dp1651
S'NOUN'
p1652
F1.0
s(lp1653
g188
atp1654
a(S'b\xc4\x99dzie'
p1655
(dp1656
S'VERB'
p1657
F1.0
s(lp1658
g194
atp1659
a(S'pozytywna'
p1660
(dp1661
S'ADJ'
p1662
F1.0
s(lp1663
g202
atp1664
a(g137
(dp1665
g331
F0.0
sg128
F1.0
s(lp1666
g137
atp1667
a(S'pomoc'
p1668
(dp1669
S'NOUN'
p1670
F1.0
s(lp1671
g220
atp1672
a(S'ze'
p1673
(dp1674
S'PRT'
p1675
F1.7e-05
sS'CONJ'
p1676
F2e-06
sS'ADP'
p1677
F0.999981
s(lp1678
g226
atp1679
a(S'strony'
p1680
(dp1681
S'NOUN'
p1682
F0.9999999999999999
s(lp1683
g234
atp1684
a(S'komisji'
p1685
(dp1686
S'NOUN'
p1687
F1.0
s(lp1688
g240
atp1689
a(S'b\xc4\x99dzie'
p1690
(dp1691
S'VERB'
p1692
F1.0
s(lp1693
g246
atp1694
a(S'bardzo'
p1695
(dp1696
S'ADV'
p1697
F1.0
s(lp1698
tp1699
a(S'wa\xc5\xbcna'
p1700
(dp1701
S'ADJ'
p1702
F1.0
s(lp1703
g253
atp1704
a(g137
(dp1705
g331
F0.0
sg128
F1.0
s(lp1706
g137
atp1707
a(S'poniewa\xc5\xbc'
p1708
(dp1709
S'CONJ'
p1710
F1.0
s(lp1711
g506
atp1712
a(S'b\xc4\x99dzie'
p1713
(dp1714
S'VERB'
p1715
F1.0
s(lp1716
g517
atp1717
a(S'to'
p1718
(dp1719
S'NOUN'
p1720
F0.005972
sS'ADP'
p1721
F0.0
sS'PRT'
p1722
F0.005125
sg331
F0.0
sS'CONJ'
p1723
F0.001664
sS'ADJ'
p1724
F0.987239
s(lp1725
tp1726
a(S'oznacza\xc4\x87'
p1727
(dp1728
S'VERB'
p1729
F1.0
s(lp1730
g260
atp1731
a(g137
(dp1732
g331
F0.0
sg128
F1.0
s(lp1733
tp1734
a(S'\xc5\xbce'
p1735
(dp1736
S'PRT'
p1737
F0.000186
sS'CONJ'
p1738
F0.9998130000000001
s(lp1739
g286
atp1740
a(S'sektor'
p1741
(dp1742
S'NOUN'
p1743
F1.0
s(lp1744
g304
atp1745
a(S'rybo\xc5\x82\xc3\xb3wstwa'
p1746
(dp1747
S'NOUN'
p1748
F1.0
s(lp1749
g310
atp1750
a(S'mo\xc5\xbce'
p1751
(dp1752
S'PRT'
p1753
F0.081898
sS'VERB'
p1754
F0.918102
s(lp1755
g266
atp1756
a(S'by\xc4\x87'
p1757
(dp1758
S'VERB'
p1759
F1.0
s(lp1760
g553
atp1761
a(S'ca\xc5\x82kowicie'
p1762
(dp1763
S'ADV'
p1764
F1.0
s(lp1765
g274
atp1766
a(S'zreformowany'
p1767
(dp1768
S'NOUN'
p1769
F0.002321
sS'VERB'
p1770
F0.9052820000000003
sS'ADJ'
p1771
F0.092174
sS'PRT'
p1772
F0.000223
s(lp1773
g292
atp1774
a(g128
(dp1775
g128
F1.0
s(lp1776
g128
atp1777
asS'sl'
p1778
(lp1779
(S'podpiram'
p1780
(dp1781
S'ADV'
p1782
F0.000846
sS'NOUN'
p1783
F0.08466000000000003
sS'VERB'
p1784
F0.776594
sS'ADJ'
p1785
F0.13790400000000003
s(lp1786
g19
atp1787
a(S'uvrstitev'
p1788
(dp1789
S'NOUN'
p1790
F1.0
s(lp1791
g61
atp1792
a(S'navadnega'
p1793
(dp1794
S'ADJ'
p1795
F1.0
s(lp1796
g79
atp1797
a(S'tuna'
p1798
(dp1799
S'ADV'
p1800
F5e-06
sS'ADJ'
p1801
F0.00039799999999999997
sS'VERB'
p1802
F1.4e-05
sS'NOUN'
p1803
F0.9995830000000001
s(lp1804
g72
atp1805
a(S'v'
p1806
(dp1807
S'ADP'
p1808
F1.0
s(lp1809
g85
atp1810
a(S'dodatek'
p1811
(dp1812
S'NOUN'
p1813
F1.0
s(lp1814
g100
atp1815
a(g7
(dp1816
g331
F0.157241
sS'NOUN'
p1817
F0.842759
s(lp1818
tp1819
a(S'h'
p1820
(dp1821
S'NOUN'
p1822
F0.203821
sS'ADP'
p1823
F0.796179
s(lp1824
g100
atp1825
a(S'konvenciji'
p1826
(dp1827
S'NOUN'
p1828
F1.0
s(lp1829
tp1830
a(S'cites'
p1831
(dp1832
S'ADV'
p1833
F0.010282
sg331
F0.260773
sS'ADJ'
p1834
F0.008660000000000001
sS'NOUN'
p1835
F0.7202850000000001
s(lp1836
g126
atp1837
a(S'in'
p1838
(dp1839
S'ADV'
p1840
F0.000919
sg331
F0.031114
sS'CONJ'
p1841
F0.967684
sS'NOUN'
p1842
F0.000283
s(lp1843
g131
atp1844
a(S'prepri\xc4\x8dana'
p1845
(dp1846
S'ADJ'
p1847
F1.0
s(lp1848
g168
atp1849
a(S'sem'
p1850
(dp1851
S'ADV'
p1852
F0.03242
sS'PRT'
p1853
F0.00148
sS'VERB'
p1854
F0.9661
s(lp1855
g7
atp1856
a(g137
(dp1857
g128
F1.0
s(lp1858
g137
atp1859
a(S'da'
p1860
(dp1861
S'PRT'
p1862
F0.000131
sS'CONJ'
p1863
F0.999856
sS'VERB'
p1864
F1.2e-05
sg331
F0.0
s(lp1865
g176
atp1866
a(S'bo'
p1867
(dp1868
S'VERB'
p1869
F1.0
s(lp1870
g194
atp1871
a(S'ta'
p1872
(dp1873
S'PRON'
p1874
F0.9999990000000001
s(lp1875
g182
atp1876
a(S'odlo\xc4\x8ditev'
p1877
(dp1878
S'NOUN'
p1879
F1.0
s(lp1880
tp1881
a(S'pozitivna'
p1882
(dp1883
S'ADJ'
p1884
F1.0
s(lp1885
g202
atp1886
a(g137
(dp1887
g128
F1.0
s(lp1888
g137
atp1889
a(S'obenem'
p1890
(dp1891
S'ADV'
p1892
F1.0
s(lp1893
tp1894
a(S'pa'
p1895
(dp1896
g331
F4.1e-05
sS'CONJ'
p1897
F0.999959
s(lp1898
g152
atp1899
a(S'menim'
p1900
(dp1901
S'VERB'
p1902
F1.0
s(lp1903
g260
atp1904
a(g137
(dp1905
g128
F1.0
s(lp1906
tp1907
a(S'da'
p1908
(dp1909
S'PRT'
p1910
F0.000131
sS'CONJ'
p1911
F0.999856
sS'VERB'
p1912
F1.2e-05
sg331
F0.0
s(lp1913
g286
atp1914
a(S'bo'
p1915
(dp1916
S'VERB'
p1917
F1.0
s(lp1918
g246
atp1919
a(S'nujna'
p1920
(dp1921
S'ADJ'
p1922
F1.0
s(lp1923
g253
atp1924
a(S'pomo\xc4\x8d'
p1925
(dp1926
S'NOUN'
p1927
F1.0
s(lp1928
g220
atp1929
a(S'komisije'
p1930
(dp1931
S'NOUN'
p1932
F1.0
s(lp1933
g240
atp1934
a(g137
(dp1935
g128
F1.0
s(lp1936
g137
atp1937
a(S'saj'
p1938
(dp1939
S'CONJ'
p1940
F1.0
s(lp1941
g506
atp1942
a(S'bo'
p1943
(dp1944
S'VERB'
p1945
F1.0
s(lp1946
g517
atp1947
a(S'odlo\xc4\x8ditev'
p1948
(dp1949
S'NOUN'
p1950
F1.0
s(lp1951
g188
atp1952
a(S'zahtevala'
p1953
(dp1954
S'VERB'
p1955
F1.0
s(lp1956
g292
atp1957
a(S'popolno'
p1958
(dp1959
S'ADV'
p1960
F0.002319
sS'ADJ'
p1961
F0.997681
s(lp1962
g274
atp1963
a(S'preobrazbo'
p1964
(dp1965
S'NOUN'
p1966
F1.0
s(lp1967
tp1968
a(S'ribi\xc5\xa1ke'
p1969
(dp1970
S'ADJ'
p1971
F1.0
s(lp1972
g310
atp1973
a(S'panoge'
p1974
(dp1975
S'ADJ'
p1976
F0.014988
sS'NOUN'
p1977
F0.9850119999999998
s(lp1978
g292
atp1979
a(g128
(dp1980
g128
F1.0
s(lp1981
g128
atp1982
asS'es'
p1983
(lp1984
(S'estoy'
p1985
(dp1986
S'VERB'
p1987
F1.0
s(lp1988
g13
atp1989
a(g1407
(dp1990
g331
F6e-06
sS'CONJ'
p1991
F0.0
sS'ADP'
p1992
F0.999994
s(lp1993
g340
atp1994
a(S'favor'
p1995
(dp1996
S'NOUN'
p1997
F1.0
s(lp1998
g19
atp1999
a(S'de'
p2000
(dp2001
g331
F0.0
sS'CONJ'
p2002
F0.345844
sS'ADP'
p2003
F0.654156
s(lp2004
g48
atp2005
a(S'incluir'
p2006
(dp2007
S'VERB'
p2008
F1.0
s(lp2009
g61
atp2010
a(S'el'
p2011
(dp2012
S'PRON'
p2013
F0.0
sS'DET'
p2014
F1.0
s(lp2015
tp2016
a(S'at\xc3\xban'
p2017
(dp2018
S'NOUN'
p2019
F1.0
s(lp2020
g72
atp2021
a(S'rojo'
p2022
(dp2023
S'NOUN'
p2024
F0.181321
sS'ADJ'
p2025
F0.818679
s(lp2026
g79
atp2027
a(S'en'
p2028
(dp2029
g331
F0.0
sS'CONJ'
p2030
F1e-06
sS'ADP'
p2031
F0.999999
s(lp2032
g85
atp2033
a(S'el'
p2034
(dp2035
S'PRON'
p2036
F5e-06
sS'DET'
p2037
F0.999995
s(lp2038
g100
atp2039
a(S'ap\xc3\xa9ndice'
p2040
(dp2041
S'NOUN'
p2042
F1.0
s(lp2043
tp2044
a(g7
(dp2045
g331
F0.343699
sS'NUM'
p2046
F0.656301
s(lp2047
g100
atp2048
a(S'de'
p2049
(dp2050
g331
F0.000146
sS'CONJ'
p2051
F2.1e-05
sS'ADP'
p2052
F0.999833
s(lp2053
g112
atp2054
a(S'la'
p2055
(dp2056
S'PRON'
p2057
F0.003207
sS'DET'
p2058
F0.995848
sS'NOUN'
p2059
F0.000154
sg331
F0.000791
s(lp2060
g120
atp2061
a(S'cites'
p2062
(dp2063
S'VERB'
p2064
F1.0
s(lp2065
g126
atp2066
a(S'y'
p2067
(dp2068
g331
F0.001141
sS'CONJ'
p2069
F0.998859
s(lp2070
g131
atp2071
a(g137
(dp2072
g128
F1.0
s(lp2073
g137
atp2074
a(S'pese'
p2075
(dp2076
S'NOUN'
p2077
F1.0
s(lp2078
tp2079
a(g1407
(dp2080
S'NOUN'
p2081
F1.0
s(lp2082
g152
atp2083
a(S'que'
p2084
(dp2085
g331
F3e-06
sS'CONJ'
p2086
F0.999997
s(lp2087
g7
atp2088
a(S'creo'
p2089
(dp2090
S'VERB'
p2091
F1.0
s(lp2092
g168
atp2093
a(S'que'
p2094
(dp2095
g331
F0.0
sS'CONJ'
p2096
F1.0
s(lp2097
g176
atp2098
a(S'esta'
p2099
(dp2100
S'PRON'
p2101
F0.999954
sS'VERB'
p2102
F4.6e-05
s(lp2103
g182
atp2104
a(S'decisi\xc3\xb3n'
p2105
(dp2106
S'NOUN'
p2107
F1.0
s(lp2108
g188
atp2109
a(S'ser\xc3\xa1'
p2110
(dp2111
S'VERB'
p2112
F1.0
s(lp2113
g194
atp2114
a(S'positiva'
p2115
(dp2116
S'ADJ'
p2117
F1.0
s(lp2118
g202
atp2119
a(g137
(dp2120
g128
F1.0
s(lp2121
g137
atp2122
a(S'la'
p2123
(dp2124
S'PRON'
p2125
F3.5e-05
sS'DET'
p2126
F0.999959
sS'NOUN'
p2127
F0.0
sg331
F5e-06
s(lp2128
g213
atp2129
a(S'ayuda'
p2130
(dp2131
S'NOUN'
p2132
F1.0
s(lp2133
g220
atp2134
a(S'de'
p2135
(dp2136
g331
F0.0
sS'CONJ'
p2137
F1.7e-05
sS'ADP'
p2138
F0.999983
s(lp2139
g226
atp2140
a(S'la'
p2141
(dp2142
g331
F0.0
sS'PRON'
p2143
F0.0
sS'DET'
p2144
F0.999999
sS'NOUN'
p2145
F0.0
s(lp2146
g234
atp2147
a(S'comisi\xc3\xb3n'
p2148
(dp2149
S'NOUN'
p2150
F1.0
s(lp2151
g240
atp2152
a(S'ser\xc3\xa1'
p2153
(dp2154
S'VERB'
p2155
F1.0
s(lp2156
g246
atp2157
a(S'crucial'
p2158
(dp2159
S'ADJ'
p2160
F1.0
s(lp2161
g253
atp2162
a(S'en'
p2163
(dp2164
g331
F0.0
sS'CONJ'
p2165
F2e-06
sS'ADP'
p2166
F0.999998
s(lp2167
tp2168
a(S'este'
p2169
(dp2170
S'PRON'
p2171
F0.999828
sS'NOUN'
p2172
F0.000172
s(lp2173
g286
atp2174
a(S'sentido'
p2175
(dp2176
S'NOUN'
p2177
F1.0
s(lp2178
tp2179
a(g137
(dp2180
g128
F1.0
s(lp2181
g137
atp2182
a(S'ya'
p2183
(dp2184
S'CONJ'
p2185
F1.0
s(lp2186
tp2187
a(S'que'
p2188
(dp2189
S'CONJ'
p2190
F1.0
s(lp2191
g506
atp2192
a(S'ello'
p2193
(dp2194
S'PRON'
p2195
F1.0
s(lp2196
g512
atp2197
a(S'supondr\xc3\xa1'
p2198
(dp2199
S'VERB'
p2200
F1.0
s(lp2201
g260
atp2202
a(S'una'
p2203
(dp2204
S'DET'
p2205
F1.0
s(lp2206
tp2207
a(S'reestructuraci\xc3\xb3n'
p2208
(dp2209
S'NOUN'
p2210
F1.0
s(lp2211
g292
atp2212
a(S'total'
p2213
(dp2214
S'NOUN'
p2215
F0.002283
sS'ADJ'
p2216
F0.997527
sg331
F0.00019
s(lp2217
g274
atp2218
a(S'del'
p2219
(dp2220
S'ADP'
p2221
F1.0
s(lp2222
g298
atp2223
a(S'sector'
p2224
(dp2225
S'NOUN'
p2226
F1.0
s(lp2227
g304
atp2228
a(S'pesquero'
p2229
(dp2230
S'NOUN'
p2231
F0.008827
sS'ADJ'
p2232
F0.991173
s(lp2233
g310
atp2234
a(g128
(dp2235
g128
F1.0
s(lp2236
g128
atp2237
as.