(dp0
S'fr'
p1
(lp2
(S'la'
p3
(dp4
S'PRON'
p5
F5e-06
sS'DET'
p6
F0.999991
sS'NOUN'
p7
F4e-06
s(lp8
S'the'
p9
atp10
a(S'premi\xc3\xa8re'
p11
(dp12
S'NUM'
p13
F0.982272
sS'NOUN'
p14
F0.017728
s(lp15
S'first'
p16
atp17
a(S'directive'
p18
(dp19
S'ADJ'
p20
F0.141482
sS'NOUN'
p21
F0.858518
s(lp22
tp23
a(S'de'
p24
(dp25
S'ADP'
p26
F1.0
s(lp27
tp28
a(S'la'
p29
(dp30
S'PRON'
p31
F1.2e-05
sS'DET'
p32
F0.999988
sS'NOUN'
p33
F0.0
s(lp34
S'directive'
p35
atp36
a(S'communaut\xc3\xa9'
p37
(dp38
S'NOUN'
p39
F1.0
s(lp40
S'community'
p41
atp42
a(S'europ\xc3\xa9enne'
p43
(dp44
S'NOUN'
p45
F0.017216
sS'ADJ'
p46
F0.982784
s(lp47
S'european'
p48
atp49
a(S'en'
p50
(dp51
S'PRON'
p52
F1e-06
sS'ADP'
p53
F0.999999
s(lp54
S'in'
p55
atp56
a(S'1958'
p57
(dp58
S'X'
p59
F0.000116
sS'NUM'
p60
F0.999884
s(lp61
S'1958'
p62
atp63
a(S'concerne'
p64
(dp65
S'VERB'
p66
F1.000001
s(lp67
S'refers'
p68
atp69
a(S'le'
p70
(dp71
S'PRON'
p72
F0.000137
sS'DET'
p73
F0.999863
s(lp74
tp75
a(S'multilinguisme'
p76
(dp77
S'NOUN'
p78
F1.0
s(lp79
S'multilingualism'
p80
atp81
a(S'.'
p82
(dp83
g82
F1.0
s(lp84
g82
atp85
asS'en'
p86
(lp87
(g9
(dp88
S'NOUN'
p89
F3e-06
sS'DET'
p90
F0.999997
s(lp91
g9
atp92
a(g16
(dp93
S'ADV'
p94
F0.010643
sS'NOUN'
p95
F0.00022
sS'ADJ'
p96
F0.989137
s(lp97
g16
atp98
a(g48
(dp99
S'NOUN'
p100
F0.202359
sS'VERB'
p101
F2.2000000000000003e-05
sS'ADJ'
p102
F0.797619
s(lp103
g48
atp104
a(g41
(dp105
S'NOUN'
p106
F1.0
s(lp107
g41
atp108
a(g35
(dp109
S'ADJ'
p110
F0.006528
sS'NOUN'
p111
F0.993472
s(lp112
g35
atp113
a(g55
(dp114
S'ADV'
p115
F0.001103
sS'PRT'
p116
F0.000212
sS'ADP'
p117
F0.998685
s(lp118
g55
atp119
a(g62
(dp120
S'ADV'
p121
F9.6e-05
sS'ADJ'
p122
F0.000117
sS'NUM'
p123
F0.998842
sS'NOUN'
p124
F0.000945
sg59
F0.0
s(lp125
g62
atp126
a(g68
(dp127
S'VERB'
p128
F1.0
s(lp129
g68
atp130
a(S'to'
p131
(dp132
S'ADV'
p133
F1e-06
sS'PRT'
p134
F0.999996
sS'ADP'
p135
F3e-06
s(lp136
g131
atp137
a(g80
(dp138
S'NOUN'
p139
F1.0
s(lp140
g80
atp141
a(g82
(dp142
g82
F1.0
s(lp143
g82
atp144
asS'nl'
p145
(lp146
(S'de'
p147
(dp148
S'DET'
p149
F1.0
s(lp150
g9
atp151
a(S'eerste'
p152
(dp153
S'NUM'
p154
F0.999991
sS'NOUN'
p155
F9e-06
s(lp156
g16
atp157
a(S'richtlijn'
p158
(dp159
S'NOUN'
p160
F1.0
s(lp161
g35
atp162
a(S'van'
p163
(dp164
S'ADP'
p165
F1.0
s(lp166
tp167
a(S'de'
p168
(dp169
S'DET'
p170
F1.0
s(lp171
tp172
a(S'europese'
p173
(dp174
S'NOUN'
p175
F1.0
s(lp176
g48
atp177
a(S'gemeenschap'
p178
(dp179
S'NOUN'
p180
F1.0
s(lp181
g41
atp182
a(S'in'
p183
(dp184
S'ADV'
p185
F0.008407
sS'VERB'
p186
F2e-06
sS'ADP'
p187
F0.991591
s(lp188
g55
atp189
a(S'1958'
p190
(dp191
S'NUM'
p192
F1.0
s(lp193
g62
atp194
a(S'verwijst'
p195
(dp196
S'VERB'
p197
F1.0
s(lp198
tp199
a(S'naar'
p200
(dp201
S'CONJ'
p202
F0.004994
sS'ADJ'
p203
F0.000143
sS'ADP'
p204
F0.994863
s(lp205
g68
atp206
a(S'meertaligheid'
p207
(dp208
S'ADJ'
p209
F0.002116
sS'NOUN'
p210
F0.997884
s(lp211
g80
atp212
a(g82
(dp213
g82
F1.0
s(lp214
g82
atp215
asS'de'
p216
(lp217
(S'die'
p218
(dp219
S'PRON'
p220
F0.004888
sS'DET'
p221
F0.994789
s(lp222
g9
atp223
a(S'erste'
p224
(dp225
S'ADJ'
p226
F1.0
s(lp227
g16
atp228
a(S'richtlinie'
p229
(dp230
S'VERB'
p231
F3.9e-05
sS'NOUN'
p232
F0.999944
s(lp233
g35
atp234
a(S'der'
p235
(dp236
S'PRON'
p237
F8.6e-05
sS'DET'
p238
F0.999906
s(lp239
tp240
a(S'europ\xc3\xa4ischen'
p241
(dp242
S'ADJ'
p243
F1.0
s(lp244
g48
atp245
a(S'gemeinschaft'
p246
(dp247
S'VERB'
p248
F1.8e-05
sS'NOUN'
p249
F0.999955
s(lp250
g41
atp251
a(S'aus'
p252
(dp253
S'ADP'
p254
F0.996528
s(lp255
g55
atp256
a(S'dem'
p257
(dp258
S'PRON'
p259
F4.4e-05
sS'DET'
p260
F0.999932
s(lp261
g62
atp262
a(S'jahr'
p263
(dp264
S'ADJ'
p265
F0.003974
sS'NOUN'
p266
F0.995762
s(lp267
tp268
a(S'1958'
p269
(dp270
S'ADV'
p271
F0.014285
sS'NUM'
p272
F0.977624
s(lp273
g62
atp274
a(S'betrifft'
p275
(dp276
S'VERB'
p277
F1.0
s(lp278
g68
atp279
a(S'die'
p280
(dp281
S'PRON'
p282
F0.002758
sS'DET'
p283
F0.997239
s(lp284
tp285
a(S'mehrsprachigkeit'
p286
(dp287
S'ADJ'
p288
F0.031128
sS'NOUN'
p289
F0.960534
s(lp290
g80
atp291
a(g82
(dp292
g82
F1.0
s(lp293
g82
atp294
asS'it'
p295
(lp296
(S'la'
p297
(dp298
S'PRON'
p299
F0.0034
sS'DET'
p300
F0.9966
s(lp301
g9
atp302
a(S'prima'
p303
(dp304
S'ADV'
p305
F0.013109
sS'NOUN'
p306
F0.007129
sS'CONJ'
p307
F0.00158
sS'ADJ'
p308
F0.978118
sS'ADP'
p309
F6.4e-05
s(lp310
g16
atp311
a(S'direttiva'
p312
(dp313
S'ADJ'
p314
F0.033078
sS'NOUN'
p315
F0.966922
s(lp316
g35
atp317
a(S'comunitaria'
p318
(dp319
S'ADJ'
p320
F1.0
s(lp321
g41
atp322
a(S'europea'
p323
(dp324
S'NOUN'
p325
F0.189305
sS'ADJ'
p326
F0.810695
s(lp327
g48
atp328
a(S'del'
p329
(dp330
S'DEF'
p331
F0.000109
sS'ADP'
p332
F0.999891
s(lp333
g55
atp334
a(S'1958'
p335
(dp336
S'NUM'
p337
F0.997009
sg82
F0.002991
s(lp338
g62
atp339
a(S'fa'
p340
(dp341
S'ADV'
p342
F0.007245
sS'VERB'
p343
F0.992755
s(lp344
tp345
a(S'riferimento'
p346
(dp347
S'NOUN'
p348
F1.0
s(lp349
g68
atp350
a(S'al'
p351
(dp352
S'ADP'
p353
F1.0
s(lp354
g131
atp355
a(S'multilinguismo'
p356
(dp357
S'NOUN'
p358
F1.0
s(lp359
g80
atp360
a(g82
(dp361
g82
F1.0
s(lp362
g82
atp363
asS'sk'
p364
(lp365
(S'prv\xc3\xa9'
p366
(dp367
S'NUM'
p368
F1.0
s(lp369
g16
atp370
a(S'nariadenie'
p371
(dp372
S'NOUN'
p373
F1.0
s(lp374
g35
atp375
a(S'eur\xc3\xb3pskeho'
p376
(dp377
S'ADJ'
p378
F1.0
s(lp379
g48
atp380
a(S'spolo\xc4\x8denstva'
p381
(dp382
S'NOUN'
p383
F1.0
s(lp384
g41
atp385
a(S'v'
p386
(dp387
g59
F0.000506
sS'ADP'
p388
F0.999495
s(lp389
g55
atp390
a(S'roku'
p391
(dp392
S'NOUN'
p393
F1.0
s(lp394
g62
atp395
a(S'1958'
p396
(dp397
S'NUM'
p398
F1.0
s(lp399
tp400
a(S'sa'
p401
(dp402
S'PRT'
p403
F0.999574
sS'ADP'
p404
F0.0
sg59
F0.00042600000000000005
s(lp405
g68
atp406
a(S't\xc3\xbdkalo'
p407
(dp408
S'VERB'
p409
F1.0
s(lp410
g62
atp411
a(S'mnohojazy\xc4\x8dnosti'
p412
(dp413
S'ADJ'
p414
F0.001759
sS'NOUN'
p415
F0.9982409999999999
s(lp416
g80
atp417
a(g82
(dp418
g82
F1.0
s(lp419
g82
atp420
asS'pl'
p421
(lp422
(S'pierwsza'
p423
(dp424
S'NOUN'
p425
F0.005851
sS'ADJ'
p426
F0.994149
s(lp427
g16
atp428
a(S'dyrektywa'
p429
(dp430
S'ADJ'
p431
F0.04137
sS'VERB'
p432
F0.0030700000000000002
sS'NOUN'
p433
F0.95556
s(lp434
g35
atp435
a(S'wsp\xc3\xb3lnoty'
p436
(dp437
S'NOUN'
p438
F0.9999999999999999
s(lp439
g41
atp440
a(S'europejskiej'
p441
(dp442
S'ADJ'
p443
F1.0
s(lp444
g48
atp445
a(S'z'
p446
(dp447
S'PRT'
p448
F5.9e-05
sS'VERB'
p449
F6e-06
sS'NOUN'
p450
F1e-06
sS'ADP'
p451
F0.999926
sg59
F8e-06
s(lp452
g55
atp453
a(S'1958'
p454
(dp455
S'NUM'
p456
F0.000926
sS'ADJ'
p457
F0.999074
s(lp458
tp459
a(S'r.'
p460
(dp461
g59
F1.0
s(lp462
g62
atp463
a(S'odwo\xc5\x82uje'
p464
(dp465
S'VERB'
p466
F1.0
s(lp467
tp468
a(S'si\xc4\x99'
p469
(dp470
S'PRT'
p471
F1.0
s(lp472
g68
atp473
a(S'do'
p474
(dp475
g59
F0.0
sS'NOUN'
p476
F6e-06
sS'ADP'
p477
F0.9999939999999999
s(lp478
g131
atp479
a(S'wieloj\xc4\x99zyczno\xc5\x9bci'
p480
(dp481
S'ADJ'
p482
F0.0
sS'VERB'
p483
F4e-06
sS'NOUN'
p484
F0.999995
s(lp485
g80
atp486
a(g82
(dp487
g82
F1.0
s(lp488
g82
atp489
asS'sl'
p490
(lp491
(S'prva'
p492
(dp493
S'NUM'
p494
F0.999999
s(lp495
g16
atp496
a(S'direktiva'
p497
(dp498
S'NOUN'
p499
F1.0
s(lp500
g35
atp501
a(S'evropske'
p502
(dp503
S'ADJ'
p504
F1.0000010000000001
s(lp505
g48
atp506
a(S'skupnosti'
p507
(dp508
S'NOUN'
p509
F1.0
s(lp510
g41
atp511
a(S'iz'
p512
(dp513
g59
F2.6e-05
sS'ADP'
p514
F0.999974
s(lp515
g62
atp516
a(S'leta'
p517
(dp518
S'NOUN'
p519
F0.9999999999999999
s(lp520
tp521
a(S'1958'
p522
(dp523
S'NUM'
p524
F1.0
s(lp525
g62
atp526
a(S'obravnava'
p527
(dp528
S'VERB'
p529
F0.947001
sS'NOUN'
p530
F0.052999
s(lp531
g68
atp532
a(S've\xc4\x8djezi\xc4\x8dnost'
p533
(dp534
S'ADJ'
p535
F0.00809
sS'NOUN'
p536
F0.99191
s(lp537
g80
atp538
a(g82
(dp539
g82
F1.0
s(lp540
g82
atp541
asS'es'
p542
(lp543
(S'la'
p544
(dp545
S'PRON'
p546
F1e-06
sS'DET'
p547
F0.999999
sS'NOUN'
p548
F0.0
sg59
F0.0
s(lp549
g9
atp550
a(S'primera'
p551
(dp552
S'NOUN'
p553
F0.000433
sS'ADJ'
p554
F0.999567
s(lp555
g16
atp556
a(S'directiva'
p557
(dp558
S'ADJ'
p559
F0.000465
sS'NOUN'
p560
F0.999535
s(lp561
g35
atp562
a(S'comunitaria'
p563
(dp564
S'ADJ'
p565
F1.0
s(lp566
g41
atp567
a(S'europea'
p568
(dp569
S'ADJ'
p570
F1.0
s(lp571
g48
atp572
a(S'de'
p573
(dp574
g59
F0.002587
sS'CONJ'
p575
F0.000731
sS'ADP'
p576
F0.996682
s(lp577
g55
atp578
a(S'1958'
p579
(dp580
g59
F0.206149
sS'NUM'
p581
F0.793851
s(lp582
g62
atp583
a(S'se'
p584
(dp585
S'PRON'
p586
F1.0
sS'VERB'
p587
F0.0
s(lp588
tp589
a(S'refiere'
p590
(dp591
S'VERB'
p592
F1.0
s(lp593
g68
atp594
a(S'al'
p595
(dp596
S'CONJ'
p597
F0.000159
sS'ADP'
p598
F0.999841
s(lp599
g131
atp600
a(S'multiling\xc3\xbcismo'
p601
(dp602
S'ADJ'
p603
F0.001145
sS'NOUN'
p604
F0.998855
s(lp605
g80
atp606
a(g82
(dp607
g82
F1.0
s(lp608
g82
atp609
as.