(dp0
S'fr'
p1
(lp2
(S'malgr\xc3\xa9'
p3
(dp4
S'ADP'
p5
F1.0
s(lp6
S'despite'
p7
atp8
a(S'les'
p9
(dp10
S'PRON'
p11
F5.6e-05
sS'DET'
p12
F0.999943
sS'ADP'
p13
F2e-06
s(lp14
tp15
a(S'difficult\xc3\xa9s'
p16
(dp17
S'NOUN'
p18
F1.0
s(lp19
S'difficulties'
p20
atp21
a(S'politiques'
p22
(dp23
S'NOUN'
p24
F0.00127
sS'VERB'
p25
F0.00036300000000000004
sS'ADJ'
p26
F0.998366
s(lp27
S'political'
p28
atp29
a(S'internes'
p30
(dp31
S'ADJ'
p32
F0.061566
sS'VERB'
p33
F0.071265
sS'NOUN'
p34
F0.867168
s(lp35
S'domestic'
p36
atp37
a(S'li\xc3\xa9es'
p38
(dp39
S'VERB'
p40
F0.867695
sS'ADJ'
p41
F0.132305
s(lp42
S'connected'
p43
atp44
a(S'\xc3\xa0'
p45
(dp46
S'ADP'
p47
F1.0
s(lp48
S'with'
p49
atp50
a(S'leur'
p51
(dp52
S'PRON'
p53
F1.0
s(lp54
S'being'
p55
atp56
a(S'incapacit\xc3\xa9'
p57
(dp58
S'NOUN'
p59
F1.0
s(lp60
S'able'
p61
atp62
a(S'\xc3\xa0'
p63
(dp64
S'ADP'
p65
F1.0
s(lp66
S'to'
p67
atp68
a(S'former'
p69
(dp70
S'VERB'
p71
F1.0
s(lp72
S'form'
p73
atp74
a(S'un'
p75
(dp76
S'NOUN'
p77
F1.9e-05
sS'NUM'
p78
F0.007963
sS'DET'
p79
F0.992018
s(lp80
S'a'
p81
atp82
a(S'gouvernement'
p83
(dp84
S'NOUN'
p85
F1.0
s(lp86
S'government'
p87
atp88
a(S','
p89
(dp90
S'.'
p91
F1.0
s(lp92
g89
atp93
a(S'les'
p94
(dp95
S'PRON'
p96
F0.000611
sS'DET'
p97
F0.999356
sS'ADP'
p98
F3.2e-05
s(lp99
S'the'
p100
atp101
a(S'belges'
p102
(dp103
S'ADJ'
p104
F0.443547
sS'NOUN'
p105
F0.556453
s(lp106
S'belgians'
p107
atp108
a(S'sont'
p109
(dp110
S'VERB'
p111
F1.0
s(lp112
S'are'
p113
atp114
a(S'officiellement'
p115
(dp116
S'ADV'
p117
F1.0
s(lp118
S'officially'
p119
atp120
a(S'lou\xc3\xa9s'
p121
(dp122
S'VERB'
p123
F1.0
s(lp124
S'praised'
p125
atp126
a(S'pour'
p127
(dp128
S'CONJ'
p129
F0.016
sS'ADP'
p130
F0.984
s(lp131
S'for'
p132
atp133
a(S'leur'
p134
(dp135
S'PRON'
p136
F1.0
s(lp137
tp138
a(S'efficacit\xc3\xa9'
p139
(dp140
S'NOUN'
p141
F1.0
s(lp142
S'effectiveness'
p143
atp144
a(S'et'
p145
(dp146
S'CONJ'
p147
F1.0
s(lp148
S'and'
p149
atp150
a(S'leur'
p151
(dp152
S'PRON'
p153
F1.0
s(lp154
S'their'
p155
atp156
a(S'succ\xc3\xa8s'
p157
(dp158
S'NOUN'
p159
F1.0
s(lp160
S'success'
p161
atp162
a(S'dans'
p163
(dp164
S'NOUN'
p165
F6e-06
sS'ADP'
p166
F0.999994
s(lp167
S'in'
p168
atp169
a(S'la'
p170
(dp171
S'PRON'
p172
F1.2e-05
sS'DET'
p173
F0.999988
sS'NOUN'
p174
F0.0
s(lp175
S'achieving'
p176
atp177
a(S'r\xc3\xa9alisation'
p178
(dp179
S'NOUN'
p180
F1.0
s(lp181
tp182
a(S'de'
p183
(dp184
S'ADP'
p185
F1.0
s(lp186
tp187
a(S'la'
p188
(dp189
S'PRON'
p190
F1.2e-05
sS'DET'
p191
F0.999988
sS'NOUN'
p192
F0.0
s(lp193
g176
atp194
a(S'quasi-totalit\xc3\xa9'
p195
(dp196
S'NOUN'
p197
F1.0
s(lp198
S'almost'
p199
atp200
a(S'des'
p201
(dp202
S'DET'
p203
F2.1e-05
sS'ADP'
p204
F0.999979
s(lp205
S'the'
p206
atp207
a(S'priorit\xc3\xa9s'
p208
(dp209
S'NOUN'
p210
F1.0
s(lp211
S'priorities'
p212
atp213
a(S"qu'"
p214
(dp215
S'NOUN'
p216
F0.024969
sS'VERB'
p217
F0.27500100000000005
sS'ADJ'
p218
F0.700029
s(lp219
tp220
a(S'ils'
p221
(dp222
S'PRON'
p223
F1.0
s(lp224
S'they'
p225
atp226
a(S"s'"
p227
(dp228
S'ADJ'
p229
F0.000625
sS'VERB'
p230
F0.9973000000000002
sS'NOUN'
p231
F0.002077
s(lp232
S'themselves'
p233
atp234
a(S'\xc3\xa9taient'
p235
(dp236
S'VERB'
p237
F1.000001
s(lp238
S'had'
p239
atp240
a(S'fix\xc3\xa9es'
p241
(dp242
S'VERB'
p243
F0.985073
sS'ADJ'
p244
F0.014927
s(lp245
S'set'
p246
atp247
a(S'un'
p248
(dp249
S'NOUN'
p250
F0.010503
sS'NUM'
p251
F0.001789
sS'DET'
p252
F0.987708
s(lp253
S'earlier'
p254
atp255
a(S'peu'
p256
(dp257
S'ADV'
p258
F1.0
s(lp259
g254
atp260
a(S'plus'
p261
(dp262
S'ADV'
p263
F0.999729
sS'VERB'
p264
F0.00027
s(lp265
tp266
a(S't\xc3\xb4t'
p267
(dp268
S'ADV'
p269
F1.0
s(lp270
g254
atp271
a(g91
(dp272
g91
F1.0
s(lp273
g91
atp274
asS'en'
p275
(lp276
(g7
(dp277
S'VERB'
p278
F8.599999999999999e-05
sS'NOUN'
p279
F6e-05
sS'ADP'
p280
F0.999854
s(lp281
g7
atp282
a(g36
(dp283
S'NOUN'
p284
F0.000627
sS'ADJ'
p285
F0.999373
s(lp286
g36
atp287
a(g28
(dp288
S'ADJ'
p289
F1.0
s(lp290
g28
atp291
a(g20
(dp292
S'NOUN'
p293
F1.0
s(lp294
g20
atp295
a(g43
(dp296
S'VERB'
p297
F0.986415
sS'ADJ'
p298
F0.013585
s(lp299
g43
atp300
a(g49
(dp301
S'ADP'
p302
F1.0
s(lp303
g49
atp304
a(S'not'
p305
(dp306
S'ADV'
p307
F1.0
s(lp308
g305
atp309
a(g55
(dp310
S'NOUN'
p311
F9.5e-05
sS'VERB'
p312
F0.978918
sS'ADJ'
p313
F0.020987
s(lp314
g55
atp315
a(g61
(dp316
S'ADJ'
p317
F1.0
s(lp318
g61
atp319
a(g67
(dp320
S'ADV'
p321
F0.0
sS'PRT'
p322
F1.0
sS'ADP'
p323
F0.0
s(lp324
g67
atp325
a(g73
(dp326
S'VERB'
p327
F0.998835
sS'NOUN'
p328
F0.001165
s(lp329
g73
atp330
a(g81
(dp331
S'NOUN'
p332
F0.0
sS'DET'
p333
F1.0
s(lp334
g81
atp335
a(g87
(dp336
S'NOUN'
p337
F1.0
s(lp338
g87
atp339
a(g89
(dp340
g91
F1.0
s(lp341
g89
atp342
a(g100
(dp343
S'NOUN'
p344
F3e-05
sS'DET'
p345
F0.99997
s(lp346
g100
atp347
a(g107
(dp348
S'VERB'
p349
F0.0
sS'NOUN'
p350
F1.0
s(lp351
g107
atp352
a(g113
(dp353
S'VERB'
p354
F1.0
sS'NOUN'
p355
F0.0
s(lp356
g113
atp357
a(g119
(dp358
S'ADV'
p359
F1.0
s(lp360
g119
atp361
a(S'being'
p362
(dp363
S'NOUN'
p364
F4.7e-05
sS'VERB'
p365
F0.999811
sS'ADJ'
p366
F0.000141
s(lp367
g362
atp368
a(g125
(dp369
S'VERB'
p370
F1.0
s(lp371
g125
atp372
a(g132
(dp373
S'ADP'
p374
F1.0
s(lp375
g132
atp376
a(g155
(dp377
S'PRON'
p378
F1.0
s(lp379
g155
atp380
a(g143
(dp381
S'NOUN'
p382
F1.0
s(lp383
g143
atp384
a(g149
(dp385
S'CONJ'
p386
F0.999998
sS'NOUN'
p387
F2e-06
s(lp388
g149
atp389
a(g161
(dp390
S'NOUN'
p391
F1.0
s(lp392
g161
atp393
a(g168
(dp394
S'ADV'
p395
F0.000452
sS'PRT'
p396
F0.000192
sS'ADP'
p397
F0.999356
s(lp398
g168
atp399
a(g176
(dp400
S'VERB'
p401
F1.0
s(lp402
g176
atp403
a(g199
(dp404
S'ADV'
p405
F1.0
s(lp406
g199
atp407
a(S'all'
p408
(dp409
S'ADV'
p410
F0.025076
sS'DET'
p411
F0.9749249999999999
s(lp412
g408
atp413
a(g206
(dp414
S'NOUN'
p415
F6e-06
sS'DET'
p416
F0.999994
s(lp417
g206
atp418
a(g212
(dp419
S'NOUN'
p420
F1.0
s(lp421
g212
atp422
a(g225
(dp423
S'PRON'
p424
F1.0
s(lp425
g225
atp426
a(g239
(dp427
S'VERB'
p428
F1.0
s(lp429
g239
atp430
a(g254
(dp431
S'ADV'
p432
F0.87913
sS'ADJ'
p433
F0.12087
s(lp434
g254
atp435
a(g246
(dp436
S'ADJ'
p437
F0.006967
sS'VERB'
p438
F0.9137289999999999
sS'NOUN'
p439
F0.079304
s(lp440
g246
atp441
a(g233
(dp442
S'PRON'
p443
F1.0
s(lp444
g233
atp445
a(g91
(dp446
g91
F1.0
s(lp447
g91
atp448
asS'nl'
p449
(lp450
(S'ondanks'
p451
(dp452
S'ADP'
p453
F1.0
s(lp454
g7
atp455
a(S'de'
p456
(dp457
S'DET'
p458
F1.0
s(lp459
g100
atp460
a(S'interne'
p461
(dp462
S'NOUN'
p463
F0.001461
sS'ADJ'
p464
F0.998539
s(lp465
g36
atp466
a(S'politieke'
p467
(dp468
S'NOUN'
p469
F9e-06
sS'ADJ'
p470
F0.999991
s(lp471
g28
atp472
a(S'moeilijkheden'
p473
(dp474
S'NOUN'
p475
F1.0
s(lp476
g20
atp477
a(S'in'
p478
(dp479
S'ADV'
p480
F0.001834
sS'VERB'
p481
F1e-06
sS'ADP'
p482
F0.998166
s(lp483
tp484
a(S'verband'
p485
(dp486
S'NOUN'
p487
F1.0
s(lp488
g43
atp489
a(S'met'
p490
(dp491
S'ADP'
p492
F1.0
s(lp493
g49
atp494
a(S'het'
p495
(dp496
S'PRON'
p497
F0.012767
sS'DET'
p498
F0.987233
s(lp499
g55
atp500
a(S'vormen'
p501
(dp502
S'VERB'
p503
F0.012022000000000001
sS'NOUN'
p504
F0.987978
s(lp505
g73
atp506
a(S'van'
p507
(dp508
S'ADP'
p509
F1.0
s(lp510
tp511
a(S'een'
p512
(dp513
S'ADJ'
p514
F1e-06
sS'PRON'
p515
F0.000523
sS'NUM'
p516
F1e-06
sS'DET'
p517
F0.999476
s(lp518
g81
atp519
a(S'eigen'
p520
(dp521
S'ADJ'
p522
F1.0
s(lp523
tp524
a(S'regering'
p525
(dp526
S'NOUN'
p527
F1.0
s(lp528
g87
atp529
a(g89
(dp530
g91
F1.0
s(lp531
g89
atp532
a(S'wordt'
p533
(dp534
S'VERB'
p535
F1.0
s(lp536
g362
atp537
a(S'belgi\xc3\xab'
p538
(dp539
S'NOUN'
p540
F0.416006
sS'ADJ'
p541
F0.583995
s(lp542
g107
atp543
a(S'officieel'
p544
(dp545
S'ADJ'
p546
F1.0
s(lp547
g119
atp548
a(S'geprezen'
p549
(dp550
S'VERB'
p551
F1.0
s(lp552
g125
atp553
a(S'om'
p554
(dp555
S'ADV'
p556
F4.9e-05
sS'CONJ'
p557
F0.537071
sS'ADP'
p558
F0.46288
s(lp559
g132
atp560
a(S'zijn'
p561
(dp562
S'PRON'
p563
F0.999665
sS'VERB'
p564
F0.00032700000000000003
sS'NOUN'
p565
F8e-06
s(lp566
g155
atp567
a(S'doeltreffendheid'
p568
(dp569
S'NOUN'
p570
F1.0
s(lp571
g143
atp572
a(S'en'
p573
(dp574
S'CONJ'
p575
F1.0
s(lp576
g149
atp577
a(S'succes'
p578
(dp579
S'NOUN'
p580
F1.0
s(lp581
g161
atp582
a(S'bij'
p583
(dp584
S'ADV'
p585
F0.004163
sS'NOUN'
p586
F0.0
sS'ADJ'
p587
F0.0
sS'ADP'
p588
F0.995837
s(lp589
g168
atp590
a(S'het'
p591
(dp592
S'PRON'
p593
F0.01013
sS'DET'
p594
F0.98987
s(lp595
g176
atp596
a(S'bereiken'
p597
(dp598
S'VERB'
p599
F0.009212
sS'NOUN'
p600
F0.990788
s(lp601
tp602
a(S'van'
p603
(dp604
S'ADP'
p605
F1.0
s(lp606
g176
atp607
a(S'bijna'
p608
(dp609
S'ADV'
p610
F1.0
s(lp611
g199
atp612
a(S'alle'
p613
(dp614
S'PRON'
p615
F1.0
s(lp616
g408
atp617
a(S'vooropgestelde'
p618
(dp619
S'VERB'
p620
F0.9993
sS'NOUN'
p621
F0.0007
s(lp622
tp623
a(S'prioriteiten'
p624
(dp625
S'NOUN'
p626
F1.0
s(lp627
g212
atp628
a(g91
(dp629
g91
F1.0
s(lp630
g91
atp631
asS'de'
p632
(lp633
(S'trotz'
p634
(dp635
S'VERB'
p636
F0.005848
sS'ADP'
p637
F0.994152
s(lp638
g7
atp639
a(S'eigener'
p640
(dp641
S'ADJ'
p642
F1.0
s(lp643
g36
atp644
a(S'politischer'
p645
(dp646
S'ADJ'
p647
F1.0
s(lp648
g28
atp649
a(S'probleme'
p650
(dp651
S'ADJ'
p652
F0.020083
sS'NOUN'
p653
F0.958851
s(lp654
g20
atp655
a(g89
(dp656
g91
F1.0
s(lp657
g89
atp658
a(S'die'
p659
(dp660
S'PRON'
p661
F0.416092
sS'DET'
p662
F0.518589
s(lp663
g100
atp664
a(S'darauf'
p665
(dp666
S'ADV'
p667
F0.999925
sS'PRT'
p668
F7.5e-05
s(lp669
g107
atp670
a(S'beruhten'
p671
(dp672
S'VERB'
p673
F0.966814
sS'ADJ'
p674
F0.033186
s(lp675
g107
atp676
a(g89
(dp677
g91
F1.0
s(lp678
g55
atp679
a(S'dass'
p680
(dp681
S'CONJ'
p682
F1.0
s(lp683
tp684
a(S'sie'
p685
(dp686
S'PRON'
p687
F1.0
s(lp688
g55
atp689
a(S'nicht'
p690
(dp691
S'PRT'
p692
F1.0
s(lp693
g305
atp694
a(S'in'
p695
(dp696
S'ADP'
p697
F1.0
s(lp698
tp699
a(S'der'
p700
(dp701
S'PRON'
p702
F1.5e-05
sS'DET'
p703
F0.999979
s(lp704
tp705
a(S'lage'
p706
(dp707
S'ADJ'
p708
F0.000241
sS'NOUN'
p709
F0.999547
s(lp710
g61
atp711
a(S'waren'
p712
(dp713
S'VERB'
p714
F1.0
s(lp715
g107
atp716
a(g89
(dp717
g91
F1.0
s(lp718
g67
atp719
a(S'eine'
p720
(dp721
S'PRON'
p722
F0.000414
sS'DET'
p723
F0.999333
s(lp724
g81
atp725
a(S'regierung'
p726
(dp727
S'ADJ'
p728
F0.000264
sS'NOUN'
p729
F0.999723
s(lp730
g87
atp731
a(S'zu'
p732
(dp733
S'PRT'
p734
F0.999944
s(lp735
tp736
a(S'bilden'
p737
(dp738
S'VERB'
p739
F1.0
s(lp740
g73
atp741
a(g89
(dp742
g91
F1.0
s(lp743
g67
atp744
a(S'werden'
p745
(dp746
S'VERB'
p747
F0.999999
s(lp748
g113
atp749
a(S'die'
p750
(dp751
S'PRON'
p752
F0.003578
sS'DET'
p753
F0.996418
s(lp754
tp755
a(S'belgier'
p756
(dp757
S'ADJ'
p758
F0.039835
sS'NOUN'
p759
F0.911716
s(lp760
g107
atp761
a(S'offiziell'
p762
(dp763
S'ADJ'
p764
F1.0
s(lp765
g119
atp766
a(S'f\xc3\xbcr'
p767
(dp768
S'ADP'
p769
F1.0
s(lp770
g132
atp771
a(S'ihre'
p772
(dp773
S'PRON'
p774
F1.0
s(lp775
g155
atp776
a(S'leistungsf\xc3\xa4higkeit'
p777
(dp778
S'ADJ'
p779
F0.156674
sS'NOUN'
p780
F0.835384
s(lp781
g143
atp782
a(S'und'
p783
(dp784
S'CONJ'
p785
F1.0
s(lp786
g149
atp787
a(S'ihren'
p788
(dp789
S'PRON'
p790
F1.0
s(lp791
tp792
a(S'erfolg'
p793
(dp794
S'VERB'
p795
F1.0
s(lp796
g161
atp797
a(S'bei'
p798
(dp799
S'PRT'
p800
F0.000817
sS'ADP'
p801
F0.999183
s(lp802
g168
atp803
a(S'der'
p804
(dp805
S'PRON'
p806
F0.000186
sS'DET'
p807
F0.999793
s(lp808
tp809
a(S'umsetzung'
p810
(dp811
S'ADJ'
p812
F0.071062
sS'NOUN'
p813
F0.912777
s(lp814
g176
atp815
a(S'all'
p816
(dp817
S'PRON'
p818
F0.999584
sS'X'
p819
F0.000416
s(lp820
g408
atp821
a(S'ihrer'
p822
(dp823
S'PRON'
p824
F0.9999990000000001
s(lp825
g206
atp826
a(S'priorit\xc3\xa4ten'
p827
(dp828
S'ADJ'
p829
F0.000888
sS'NOUN'
p830
F0.999021
s(lp831
g212
atp832
a(S'gelobt'
p833
(dp834
S'VERB'
p835
F1.0
s(lp836
g125
atp837
a(g89
(dp838
g91
F1.0
s(lp839
g362
atp840
a(S'die'
p841
(dp842
S'PRON'
p843
F0.999622
sS'DET'
p844
F0.000205
s(lp845
tp846
a(S'sie'
p847
(dp848
S'PRON'
p849
F1.0
s(lp850
g225
atp851
a(S'sich'
p852
(dp853
S'PRON'
p854
F1.0
s(lp855
tp856
a(S'zuvor'
p857
(dp858
S'ADV'
p859
F0.999993
sS'PRT'
p860
F7e-06
s(lp861
g254
atp862
a(S'selbst'
p863
(dp864
S'ADV'
p865
F0.999807
sS'PRT'
p866
F0.000193
s(lp867
g233
atp868
a(S'gesetzt'
p869
(dp870
S'VERB'
p871
F0.987026
sS'ADJ'
p872
F0.012974
s(lp873
g246
atp874
a(S'hatten'
p875
(dp876
S'VERB'
p877
F1.0
s(lp878
g239
atp879
a(g91
(dp880
g91
F1.0
s(lp881
g91
atp882
asS'it'
p883
(lp884
(S'nonostante'
p885
(dp886
S'CONJ'
p887
F0.135649
sS'ADP'
p888
F0.864351
s(lp889
g7
atp890
a(S'le'
p891
(dp892
S'PRON'
p893
F8.3e-05
sS'DET'
p894
F0.999917
s(lp895
tp896
a(S'difficolt\xc3\xa0'
p897
(dp898
S'NOUN'
p899
F1.0
s(lp900
g20
atp901
a(S'politiche'
p902
(dp903
S'NOUN'
p904
F0.057264
sS'ADJ'
p905
F0.942736
s(lp906
g28
atp907
a(S'interne'
p908
(dp909
S'ADJ'
p910
F1.0
s(lp911
g36
atp912
a(S'di'
p913
(dp914
S'CONJ'
p915
F0.000393
sS'ADP'
p916
F0.999607
s(lp917
tp918
a(S'non'
p919
(dp920
S'ADV'
p921
F1.0
s(lp922
g305
atp923
a(S'riuscire'
p924
(dp925
S'VERB'
p926
F1.0
s(lp927
g61
atp928
a(g81
(dp929
S'CONJ'
p930
F8.3e-05
sS'ADP'
p931
F0.999917
s(lp932
g67
atp933
a(S'formare'
p934
(dp935
S'VERB'
p936
F1.0
s(lp937
g73
atp938
a(S'un'
p939
(dp940
S'PRON'
p941
F0.001884
sS'DEF'
p942
F0.998116
s(lp943
g81
atp944
a(S'governo'
p945
(dp946
S'VERB'
p947
F6e-06
sS'NOUN'
p948
F0.999994
s(lp949
g87
atp950
a(g89
(dp951
g91
F1.0
s(lp952
g89
atp953
a(S'i'
p954
(dp955
S'DET'
p956
F1.0
s(lp957
tp958
a(S'belgi'
p959
(dp960
S'ADJ'
p961
F0.314686
sS'NOUN'
p962
F0.685314
s(lp963
g107
atp964
a(S'vengono'
p965
(dp966
S'VERB'
p967
F1.0
s(lp968
g113
atp969
a(S'ufficialmente'
p970
(dp971
S'ADV'
p972
F1.0
s(lp973
g119
atp974
a(S'elogiati'
p975
(dp976
S'VERB'
p977
F1.0
s(lp978
g125
atp979
a(S'per'
p980
(dp981
S'CONJ'
p982
F0.020285
sS'ADP'
p983
F0.979715
s(lp984
g132
atp985
a(S"l'"
p986
(dp987
S'NOUN'
p988
F0.010135
sS'VERB'
p989
F0.9653510000000002
sS'ADJ'
p990
F0.024513
s(lp991
g155
atp992
a(S'efficacia'
p993
(dp994
S'NOUN'
p995
F1.0
s(lp996
g143
atp997
a(S'e'
p998
(dp999
S'CONJ'
p1000
F1.0
s(lp1001
g149
atp1002
a(S'il'
p1003
(dp1004
S'DET'
p1005
F1.0
s(lp1006
tp1007
a(S'successo'
p1008
(dp1009
S'VERB'
p1010
F0.01729
sS'NOUN'
p1011
F0.98271
s(lp1012
g161
atp1013
a(S'nel'
p1014
(dp1015
S'ADP'
p1016
F1.0
s(lp1017
g168
atp1018
a(S'raggiungere'
p1019
(dp1020
S'VERB'
p1021
F1.0
s(lp1022
g176
atp1023
a(S'quasi'
p1024
(dp1025
S'ADV'
p1026
F1.0
s(lp1027
g199
atp1028
a(S'tutte'
p1029
(dp1030
S'PRON'
p1031
F0.007181
sS'ADJ'
p1032
F0.992819
s(lp1033
g408
atp1034
a(S'le'
p1035
(dp1036
S'PRON'
p1037
F7e-06
sS'DET'
p1038
F0.999993
s(lp1039
tp1040
a(S'priorit\xc3\xa0'
p1041
(dp1042
S'NOUN'
p1043
F1.0
s(lp1044
g212
atp1045
a(S'che'
p1046
(dp1047
S'PRON'
p1048
F0.942133
sS'CONJ'
p1049
F0.057789
sS'ADJ'
p1050
F7.8e-05
s(lp1051
tp1052
a(S'si'
p1053
(dp1054
S'PRON'
p1055
F1.0
sS'NOUN'
p1056
F0.0
s(lp1057
g225
atp1058
a(S'erano'
p1059
(dp1060
S'VERB'
p1061
F1.0
s(lp1062
g239
atp1063
a(S'imposti'
p1064
(dp1065
S'VERB'
p1066
F1.000001
s(lp1067
g246
atp1068
a(g91
(dp1069
g91
F1.0
s(lp1070
g91
atp1071
asS'sk'
p1072
(lp1073
(S'napriek'
p1074
(dp1075
S'ADV'
p1076
F0.000275
sS'CONJ'
p1077
F7.9e-05
sS'ADP'
p1078
F0.999645
s(lp1079
g7
atp1080
a(S'dom\xc3\xa1cim'
p1081
(dp1082
S'NOUN'
p1083
F0.170246
sS'ADJ'
p1084
F0.829755
s(lp1085
g36
atp1086
a(S'politick\xc3\xbdm'
p1087
(dp1088
S'ADJ'
p1089
F1.0
s(lp1090
g28
atp1091
a(S'\xc5\xa5a\xc5\xbekostiam'
p1092
(dp1093
S'NOUN'
p1094
F1.0
s(lp1095
g20
atp1096
a(S'spojen\xc3\xbdm'
p1097
(dp1098
S'VERB'
p1099
F1.0
s(lp1100
g43
atp1101
a(S's'
p1102
(dp1103
g819
F0.001695
sS'CONJ'
p1104
F6.7e-05
sS'NOUN'
p1105
F6.1e-05
sS'ADP'
p1106
F0.998146
sS'PRT'
p1107
F3.1e-05
s(lp1108
g49
atp1109
a(S'neschopnos\xc5\xa5ou'
p1110
(dp1111
S'NOUN'
p1112
F1.0
s(lp1113
g61
atp1114
a(S'vytvori\xc5\xa5'
p1115
(dp1116
S'VERB'
p1117
F1.0
s(lp1118
g73
atp1119
a(S'vl\xc3\xa1du'
p1120
(dp1121
S'NOUN'
p1122
F1.0
s(lp1123
g87
atp1124
a(S'belgi\xc4\x8danov'
p1125
(dp1126
S'NOUN'
p1127
F0.279775
sS'ADJ'
p1128
F0.720225
s(lp1129
g107
atp1130
a(S'ofici\xc3\xa1lne'
p1131
(dp1132
S'ADV'
p1133
F0.932373
sS'ADJ'
p1134
F0.067627
s(lp1135
g119
atp1136
a(S'chv\xc3\xa1lia'
p1137
(dp1138
S'VERB'
p1139
F1.0
s(lp1140
g125
atp1141
a(S'za'
p1142
(dp1143
S'PRT'
p1144
F0.000162
sS'ADP'
p1145
F0.999717
sg819
F0.000121
s(lp1146
g132
atp1147
a(S'ich'
p1148
(dp1149
S'PRON'
p1150
F1.0
s(lp1151
g155
atp1152
a(S'\xc3\xba\xc4\x8dinnos\xc5\xa5'
p1153
(dp1154
S'NOUN'
p1155
F1.0
s(lp1156
g143
atp1157
a(g81
(dp1158
g819
F0.0025380000000000003
sS'CONJ'
p1159
F0.996478
sS'NOUN'
p1160
F0.00018700000000000002
sS'ADP'
p1161
F0.00077
sS'PRT'
p1162
F2.7e-05
s(lp1163
g149
atp1164
a(S'\xc3\xbaspech'
p1165
(dp1166
S'NOUN'
p1167
F1.0
s(lp1168
g161
atp1169
a(S'pri'
p1170
(dp1171
g819
F0.000101
sS'VERB'
p1172
F2e-06
sS'ADP'
p1173
F0.999898
s(lp1174
g168
atp1175
a(S'dosahovan\xc3\xad'
p1176
(dp1177
S'NOUN'
p1178
F1.0
s(lp1179
g176
atp1180
a(S'takmer'
p1181
(dp1182
g819
F1.0
s(lp1183
g199
atp1184
a(S'v\xc5\xa1etk\xc3\xbdch'
p1185
(dp1186
S'PRON'
p1187
F1.0
s(lp1188
g408
atp1189
a(S'prior\xc3\xadt'
p1190
(dp1191
S'NOUN'
p1192
F1.0
s(lp1193
g212
atp1194
a(g89
(dp1195
g91
F1.0
s(lp1196
tp1197
a(S'ktor\xc3\xa9'
p1198
(dp1199
S'PRON'
p1200
F1.0
s(lp1201
g225
atp1202
a(S'si'
p1203
(dp1204
S'PRT'
p1205
F0.836148
sS'VERB'
p1206
F0.163845
sg819
F7e-06
s(lp1207
g239
atp1208
a(S'v'
p1209
(dp1210
g819
F0.000153
sS'ADP'
p1211
F0.999847
s(lp1212
tp1213
a(S'minulosti'
p1214
(dp1215
S'NOUN'
p1216
F1.0
s(lp1217
g254
atp1218
a(S'sami'
p1219
(dp1220
S'PRON'
p1221
F1.0
s(lp1222
g233
atp1223
a(S'ur\xc4\x8dili'
p1224
(dp1225
S'VERB'
p1226
F1.0
s(lp1227
g246
atp1228
a(g91
(dp1229
g91
F1.0
s(lp1230
g91
atp1231
asS'pl'
p1232
(lp1233
(S'pomimo'
p1234
(dp1235
S'ADP'
p1236
F1.0
s(lp1237
g7
atp1238
a(S'wewn\xc4\x99trznych'
p1239
(dp1240
S'ADJ'
p1241
F1.0
s(lp1242
g36
atp1243
a(S'trudno\xc5\x9bci'
p1244
(dp1245
S'NOUN'
p1246
F1.000001
s(lp1247
g20
atp1248
a(S'politycznych'
p1249
(dp1250
S'ADJ'
p1251
F1.000001
s(lp1252
g28
atp1253
a(S'zwi\xc4\x85zanych'
p1254
(dp1255
S'VERB'
p1256
F0.00059
sS'ADJ'
p1257
F0.9994099999999999
s(lp1258
g43
atp1259
a(S'z'
p1260
(dp1261
S'PRT'
p1262
F4e-06
sS'VERB'
p1263
F1e-06
sS'NOUN'
p1264
F0.0
sS'ADP'
p1265
F0.9999950000000001
sg819
F0.0
s(lp1266
g49
atp1267
a(S'niemo\xc5\xbcno\xc5\x9bci\xc4\x85'
p1268
(dp1269
S'ADV'
p1270
F0.0
sS'ADJ'
p1271
F0.0011500000000000002
sS'NOUN'
p1272
F0.99885
s(lp1273
g107
atp1274
a(S'wy\xc5\x82onienia'
p1275
(dp1276
S'VERB'
p1277
F1.0
s(lp1278
tp1279
a(S'w\xc5\x82asnego'
p1280
(dp1281
S'ADJ'
p1282
F0.9999990000000001
s(lp1283
g107
atp1284
a(S'rz\xc4\x85du'
p1285
(dp1286
S'NOUN'
p1287
F1.0
s(lp1288
g87
atp1289
a(g89
(dp1290
g819
F0.0
sg91
F1.0
s(lp1291
g89
atp1292
a(S'oficjalnie'
p1293
(dp1294
S'ADV'
p1295
F1.0
s(lp1296
g119
atp1297
a(S'chwalona'
p1298
(dp1299
S'ADV'
p1300
F0.001248
sS'NOUN'
p1301
F0.10514199999999999
sS'VERB'
p1302
F0.655623
sS'ADJ'
p1303
F0.237987
s(lp1304
g125
atp1305
a(S'jest'
p1306
(dp1307
S'VERB'
p1308
F1.0
s(lp1309
g113
atp1310
a(S'za'
p1311
(dp1312
S'PRT'
p1313
F0.015843
sS'VERB'
p1314
F6e-06
sS'NOUN'
p1315
F8.4e-05
sS'ADP'
p1316
F0.9840660000000001
sg819
F0.0
s(lp1317
g132
atp1318
a(S'skuteczno\xc5\x9b\xc4\x87'
p1319
(dp1320
S'NOUN'
p1321
F1.0
s(lp1322
g143
atp1323
a(g954
(dp1324
S'PRT'
p1325
F0.000704
sS'CONJ'
p1326
F0.999283
sS'PRON'
p1327
F2e-06
sS'NOUN'
p1328
F5.999999999999999e-06
sg819
F6e-06
s(lp1329
g149
atp1330
a(S'sukces'
p1331
(dp1332
S'NOUN'
p1333
F1.0
s(lp1334
g161
atp1335
a(S'osi\xc4\x85gni\xc4\x99cia'
p1336
(dp1337
S'VERB'
p1338
F0.972936
sS'NOUN'
p1339
F0.027064
s(lp1340
g176
atp1341
a(S'niemal'
p1342
(dp1343
S'PRT'
p1344
F1.0
s(lp1345
g199
atp1346
a(S'wszystkich'
p1347
(dp1348
S'NOUN'
p1349
F0.09050799999999999
sS'ADJ'
p1350
F0.9094939999999999
s(lp1351
g408
atp1352
a(S'wcze\xc5\x9bniej'
p1353
(dp1354
S'ADV'
p1355
F1.0
s(lp1356
g254
atp1357
a(S'za\xc5\x82o\xc5\xbconych'
p1358
(dp1359
S'VERB'
p1360
F1.0
s(lp1361
g246
atp1362
a(S'priorytet\xc3\xb3w'
p1363
(dp1364
S'NOUN'
p1365
F1.0
s(lp1366
g212
atp1367
a(g91
(dp1368
g91
F1.0
s(lp1369
g91
atp1370
asS'sl'
p1371
(lp1372
(S'kljub'
p1373
(dp1374
S'ADP'
p1375
F1.0
s(lp1376
g7
atp1377
a(S'doma\xc4\x8dim'
p1378
(dp1379
S'ADJ'
p1380
F0.999999
s(lp1381
g36
atp1382
a(S'politi\xc4\x8dnim'
p1383
(dp1384
S'ADJ'
p1385
F1.0
s(lp1386
g28
atp1387
a(S'te\xc5\xbeavam'
p1388
(dp1389
S'NOUN'
p1390
F1.0
s(lp1391
g20
atp1392
a(g89
(dp1393
g91
F1.0
s(lp1394
tp1395
a(S'povezanim'
p1396
(dp1397
S'ADJ'
p1398
F1.0
s(lp1399
g43
atp1400
a(g1260
(dp1401
S'ADP'
p1402
F1.0
s(lp1403
g49
atp1404
a(S'nezmo\xc5\xbenostjo'
p1405
(dp1406
S'ADV'
p1407
F4.1e-05
sS'ADJ'
p1408
F0.0065780000000000005
sS'NUM'
p1409
F0.0
sS'NOUN'
p1410
F0.993381
s(lp1411
g107
atp1412
a(S'oblikovanja'
p1413
(dp1414
S'NOUN'
p1415
F1.0
s(lp1416
tp1417
a(S'vlade'
p1418
(dp1419
S'NOUN'
p1420
F1.0
s(lp1421
g87
atp1422
a(g89
(dp1423
g91
F1.0
s(lp1424
g89
atp1425
a(S'belgijcem'
p1426
(dp1427
S'ADV'
p1428
F0.04169
sS'ADJ'
p1429
F0.0015099999999999998
sS'VERB'
p1430
F0.045343999999999995
sS'NOUN'
p1431
F0.9114550000000002
s(lp1432
g107
atp1433
a(S'uradno'
p1434
(dp1435
S'ADV'
p1436
F0.999206
sS'ADJ'
p1437
F0.000793
s(lp1438
g119
atp1439
a(S'\xc4\x8destitamo'
p1440
(dp1441
S'VERB'
p1442
F1.0
s(lp1443
g125
atp1444
a(S'za'
p1445
(dp1446
S'ADV'
p1447
F3e-06
sg819
F1e-06
sS'ADP'
p1448
F0.999995
s(lp1449
g132
atp1450
a(S'njihovo'
p1451
(dp1452
S'PRON'
p1453
F1.0
s(lp1454
g155
atp1455
a(S'u\xc4\x8dinkovitost'
p1456
(dp1457
S'NOUN'
p1458
F1.0
s(lp1459
g143
atp1460
a(S'in'
p1461
(dp1462
S'ADV'
p1463
F2e-05
sg819
F1e-05
sS'CONJ'
p1464
F0.999933
sS'NOUN'
p1465
F3.6e-05
s(lp1466
g149
atp1467
a(S'uspeh'
p1468
(dp1469
S'NOUN'
p1470
F1.0
s(lp1471
g161
atp1472
a(S'pri'
p1473
(dp1474
S'ADP'
p1475
F1.0
s(lp1476
g168
atp1477
a(S'uresni\xc4\x8devanju'
p1478
(dp1479
S'NOUN'
p1480
F1.0
s(lp1481
g176
atp1482
a(S'skoraj'
p1483
(dp1484
S'ADV'
p1485
F0.000344
sS'PRT'
p1486
F0.999656
s(lp1487
g199
atp1488
a(S'vseh'
p1489
(dp1490
S'PRON'
p1491
F1.0
s(lp1492
g408
atp1493
a(S'prednostnih'
p1494
(dp1495
S'ADJ'
p1496
F1.0
s(lp1497
tp1498
a(S'nalog'
p1499
(dp1500
S'NOUN'
p1501
F1.0
s(lp1502
g212
atp1503
a(g89
(dp1504
g91
F1.0
s(lp1505
tp1506
a(S'ki'
p1507
(dp1508
S'CONJ'
p1509
F1.0
s(lp1510
g225
atp1511
a(S'so'
p1512
(dp1513
g819
F1e-06
sS'VERB'
p1514
F0.999999
s(lp1515
g239
atp1516
a(S'si'
p1517
(dp1518
S'PRON'
p1519
F0.999931
sS'VERB'
p1520
F6.9e-05
s(lp1521
g246
atp1522
a(S'jih'
p1523
(dp1524
S'PRON'
p1525
F1.0
s(lp1526
tp1527
a(S'zadali'
p1528
(dp1529
S'VERB'
p1530
F1.0
s(lp1531
g246
atp1532
a(g91
(dp1533
g91
F1.0
s(lp1534
g91
atp1535
asS'es'
p1536
(lp1537
(g81
(dp1538
S'CONJ'
p1539
F1.0
s(lp1540
tp1541
a(S'pesar'
p1542
(dp1543
S'CONJ'
p1544
F1.0
s(lp1545
g7
atp1546
a(S'de'
p1547
(dp1548
S'CONJ'
p1549
F1.0
s(lp1550
tp1551
a(S'las'
p1552
(dp1553
S'PRON'
p1554
F1.8e-05
sS'DET'
p1555
F0.999982
s(lp1556
tp1557
a(S'dificultades'
p1558
(dp1559
S'NOUN'
p1560
F1.0
s(lp1561
g20
atp1562
a(S'pol\xc3\xadticas'
p1563
(dp1564
S'NOUN'
p1565
F0.306697
sS'ADJ'
p1566
F0.693303
s(lp1567
g28
atp1568
a(S'nacionales'
p1569
(dp1570
S'ADJ'
p1571
F1.0
s(lp1572
g36
atp1573
a(S'relacionadas'
p1574
(dp1575
S'VERB'
p1576
F1.0
s(lp1577
g43
atp1578
a(S'con'
p1579
(dp1580
S'ADP'
p1581
F1.0
s(lp1582
g49
atp1583
a(S'no'
p1584
(dp1585
S'ADV'
p1586
F0.999997
sg819
F3e-06
s(lp1587
g305
atp1588
a(S'poder'
p1589
(dp1590
S'VERB'
p1591
F0.999979
sS'NOUN'
p1592
F2.1e-05
s(lp1593
g61
atp1594
a(S'formar'
p1595
(dp1596
S'VERB'
p1597
F1.0
s(lp1598
g73
atp1599
a(S'un'
p1600
(dp1601
g819
F9e-06
sS'DET'
p1602
F0.999991
s(lp1603
g81
atp1604
a(S'gobierno'
p1605
(dp1606
S'VERB'
p1607
F0.000884
sS'NOUN'
p1608
F0.999116
s(lp1609
g87
atp1610
a(g89
(dp1611
g91
F1.0
s(lp1612
g89
atp1613
a(S'oficialmente'
p1614
(dp1615
S'ADV'
p1616
F1.0
s(lp1617
g119
atp1618
a(S'se'
p1619
(dp1620
S'PRON'
p1621
F1.0
sS'VERB'
p1622
F0.0
s(lp1623
tp1624
a(S'est\xc3\xa1'
p1625
(dp1626
S'VERB'
p1627
F1.0
s(lp1628
g362
atp1629
a(S'elogiando'
p1630
(dp1631
S'VERB'
p1632
F1.0
s(lp1633
g125
atp1634
a(g81
(dp1635
g819
F0.00154
sS'CONJ'
p1636
F2e-06
sS'ADP'
p1637
F0.998457
s(lp1638
tp1639
a(S'los'
p1640
(dp1641
S'PRON'
p1642
F0.0
sS'DET'
p1643
F1.0
s(lp1644
g100
atp1645
a(S'belgas'
p1646
(dp1647
S'ADJ'
p1648
F0.085544
sS'NOUN'
p1649
F0.914456
s(lp1650
g107
atp1651
a(S'por'
p1652
(dp1653
S'ADP'
p1654
F1.0
s(lp1655
g132
atp1656
a(S'su'
p1657
(dp1658
S'PRON'
p1659
F1.0
s(lp1660
g155
atp1661
a(S'eficacia'
p1662
(dp1663
S'NOUN'
p1664
F1.0
s(lp1665
g143
atp1666
a(S'y'
p1667
(dp1668
g819
F0.001008
sS'CONJ'
p1669
F0.998992
s(lp1670
g149
atp1671
a(S'\xc3\xa9xito'
p1672
(dp1673
S'NOUN'
p1674
F1.0
s(lp1675
g161
atp1676
a(S'al'
p1677
(dp1678
S'CONJ'
p1679
F0.963963
sS'ADP'
p1680
F0.036037
s(lp1681
g168
atp1682
a(S'lograr'
p1683
(dp1684
S'VERB'
p1685
F1.0
s(lp1686
g176
atp1687
a(S'casi'
p1688
(dp1689
S'ADV'
p1690
F1.0
s(lp1691
g199
atp1692
a(S'todas'
p1693
(dp1694
S'ADJ'
p1695
F1.0
s(lp1696
g408
atp1697
a(S'las'
p1698
(dp1699
S'PRON'
p1700
F0.0
sS'DET'
p1701
F1.0
s(lp1702
g206
atp1703
a(S'prioridades'
p1704
(dp1705
S'NOUN'
p1706
F1.0
s(lp1707
g212
atp1708
a(S'que'
p1709
(dp1710
g819
F0.0
sS'CONJ'
p1711
F1.0
s(lp1712
g225
atp1713
a(S'ellos'
p1714
(dp1715
S'PRON'
p1716
F1.0
s(lp1717
tp1718
a(S'mismos'
p1719
(dp1720
S'ADJ'
p1721
F1.0
s(lp1722
g233
atp1723
a(S'hab\xc3\xadan'
p1724
(dp1725
S'VERB'
p1726
F1.0
s(lp1727
g239
atp1728
a(S'establecido'
p1729
(dp1730
S'VERB'
p1731
F0.999921
sS'ADJ'
p1732
F7.9e-05
s(lp1733
g246
atp1734
a(S'previamente'
p1735
(dp1736
S'ADV'
p1737
F1.0
s(lp1738
g254
atp1739
a(g91
(dp1740
g91
F1.0
s(lp1741
g91
atp1742
as.