(dp0
S'fr'
p1
(lp2
(S'la'
p3
(dp4
S'PRON'
p5
F0.001439
sS'DET'
p6
F0.99856
sS'NOUN'
p7
F1e-06
s(lp8
tp9
a(S'russie'
p10
(dp11
S'ADJ'
p12
F0.042442
sS'VERB'
p13
F0.0016619999999999998
sS'NOUN'
p14
F0.955895
s(lp15
S'russia'
p16
atp17
a(S"d'"
p18
(dp19
S'NOUN'
p20
F0.056661
sS'VERB'
p21
F0.6806089999999998
sS'ADJ'
p22
F0.26273
s(lp23
S"'s"
p24
atp25
asS'en'
p26
(lp27
(S'today'
p28
(dp29
S'ADV'
p30
F4.8e-05
sS'NOUN'
p31
F0.999952
s(lp32
g28
atp33
a(g24
(dp34
S'PRT'
p35
F0.984249
sS'.'
p36
F0.015751
s(lp37
g24
atp38
a(g16
(dp39
S'ADJ'
p40
F0.000325
sS'NOUN'
p41
F0.999675
s(lp42
g16
atp43
a(S'is'
p44
(dp45
S'VERB'
p46
F1.0
s(lp47
g44
atp48
a(S'not'
p49
(dp50
S'ADV'
p51
F1.0
s(lp52
g49
atp53
a(S'brave'
p54
(dp55
S'NOUN'
p56
F0.007947
sS'VERB'
p57
F0.157484
sS'ADJ'
p58
F0.834568
s(lp59
g54
atp60
a(S'enough'
p61
(dp62
S'ADV'
p63
F0.224322
sS'NOUN'
p64
F0.276135
sS'ADJ'
p65
F0.499542
s(lp66
g61
atp67
a(S'to'
p68
(dp69
S'ADV'
p70
F0.0
sS'PRT'
p71
F1.0
sS'ADP'
p72
F0.0
s(lp73
g68
atp74
a(S'face'
p75
(dp76
S'VERB'
p77
F0.999287
sS'NOUN'
p78
F0.000713
s(lp79
g75
atp80
a(S'this'
p81
(dp82
S'ADV'
p83
F0.00011
sS'NOUN'
p84
F3e-06
sS'DET'
p85
F0.999887
s(lp86
g81
atp87
a(S'horrific'
p88
(dp89
S'ADJ'
p90
F1.0
s(lp91
g88
atp92
a(S'truth'
p93
(dp94
S'NOUN'
p95
F1.0
s(lp96
g93
atp97
a(g36
(dp98
g36
F1.0
s(lp99
g36
atp100
asS'nl'
p101
(lp102
(S'tegenwoordig'
p103
(dp104
S'ADJ'
p105
F1.0
s(lp106
g28
atp107
a(S'heeft'
p108
(dp109
S'VERB'
p110
F1.0
s(lp111
tp112
a(S'rusland'
p113
(dp114
S'NOUN'
p115
F0.999999
s(lp116
g16
atp117
a(S'niet'
p118
(dp119
S'ADV'
p120
F0.999963
sS'PRON'
p121
F0.0
sS'VERB'
p122
F3.7e-05
sS'X'
p123
F0.0
s(lp124
g49
atp125
a(S'de'
p126
(dp127
S'DET'
p128
F1.0
s(lp129
g24
atp130
a(S'moed'
p131
(dp132
S'NOUN'
p133
F1.0
s(lp134
g54
atp135
a(S'om'
p136
(dp137
S'ADV'
p138
F0.000813
sS'CONJ'
p139
F0.569962
sS'ADP'
p140
F0.429225
s(lp141
tp142
a(S'deze'
p143
(dp144
S'PRON'
p145
F1.0
s(lp146
g81
atp147
a(S'vreselijke'
p148
(dp149
S'NOUN'
p150
F0.01209
sS'ADJ'
p151
F0.98791
s(lp152
g88
atp153
a(S'waarheid'
p154
(dp155
S'NOUN'
p156
F1.0
s(lp157
g93
atp158
a(S'onder'
p159
(dp160
S'ADV'
p161
F4.8e-05
sS'ADP'
p162
F0.999952
s(lp163
g75
atp164
a(S'ogen'
p165
(dp166
S'VERB'
p167
F0.0036780000000000003
sS'NOUN'
p168
F0.996322
s(lp169
tp170
a(S'te'
p171
(dp172
S'PRT'
p173
F1.0
s(lp174
g68
atp175
a(S'zien'
p176
(dp177
S'VERB'
p178
F1.0
sS'NOUN'
p179
F0.0
s(lp180
g75
atp181
a(g36
(dp182
g36
F1.0
s(lp183
g36
atp184
asS'de'
p185
(lp186
(S'das'
p187
(dp188
S'PRON'
p189
F0.070036
sS'DET'
p190
F0.929319
s(lp191
tp192
a(S'russland'
p193
(dp194
S'ADJ'
p195
F0.047304
sS'NOUN'
p196
F0.910502
s(lp197
g16
atp198
a(S'von'
p199
(dp200
S'NOUN'
p201
F0.007629
sS'ADP'
p202
F0.992371
s(lp203
g24
atp204
a(S'heute'
p205
(dp206
S'ADV'
p207
F1.0
sS'VERB'
p208
F0.0
s(lp209
g28
atp210
a(S'ist'
p211
(dp212
S'VERB'
p213
F1.0
s(lp214
g44
atp215
a(S'nicht'
p216
(dp217
S'PRT'
p218
F1.0
s(lp219
g49
atp220
a(S'mutig'
p221
(dp222
S'ADJ'
p223
F1.0
s(lp224
g54
atp225
a(S'genug'
p226
(dp227
S'ADV'
p228
F1.0
s(lp229
g61
atp230
a(S','
p231
(dp232
g36
F1.0
s(lp233
g68
atp234
a(S'um'
p235
(dp236
S'CONJ'
p237
F0.59037
sS'ADP'
p238
F0.409578
s(lp239
tp240
a(S'dieser'
p241
(dp242
S'PRON'
p243
F1.0
s(lp244
g81
atp245
a(S'schrecklichen'
p246
(dp247
S'ADJ'
p248
F1.0
s(lp249
g88
atp250
a(S'wahrheit'
p251
(dp252
S'ADJ'
p253
F0.002125
sS'NOUN'
p254
F0.996065
s(lp255
g93
atp256
a(S'ins'
p257
(dp258
S'ADP'
p259
F1.0
s(lp260
g75
atp261
a(S'auge'
p262
(dp263
S'ADJ'
p264
F0.011454
sS'NOUN'
p265
F0.986724
s(lp266
tp267
a(S'zu'
p268
(dp269
S'PRT'
p270
F0.999973
s(lp271
g68
atp272
a(S'sehen'
p273
(dp274
S'VERB'
p275
F1.0
s(lp276
g75
atp277
a(g36
(dp278
g36
F1.0
s(lp279
g36
atp280
asS'it'
p281
(lp282
(S'la'
p283
(dp284
S'PRON'
p285
F0.047473
sS'DET'
p286
F0.952527
s(lp287
tp288
a(S'russia'
p289
(dp290
S'ADJ'
p291
F0.099139
sS'VERB'
p292
F0.04707
sS'NOUN'
p293
F0.853791
s(lp294
g16
atp295
a(S'di'
p296
(dp297
S'CONJ'
p298
F0.000316
sS'ADP'
p299
F0.999684
s(lp300
g24
atp301
a(S'oggi'
p302
(dp303
S'ADV'
p304
F0.946526
sS'NOUN'
p305
F0.053474
s(lp306
g28
atp307
a(S'non'
p308
(dp309
S'ADV'
p310
F1.0
s(lp311
g49
atp312
a(S'\xc3\xa8'
p313
(dp314
S'VERB'
p315
F1.0
s(lp316
g44
atp317
a(S'abbastanza'
p318
(dp319
S'ADV'
p320
F1.0
s(lp321
g61
atp322
a(S'coraggiosa'
p323
(dp324
S'ADJ'
p325
F1.0
s(lp326
g54
atp327
a(S'da'
p328
(dp329
S'ADP'
p330
F1.0
s(lp331
g68
atp332
a(S'affrontare'
p333
(dp334
S'VERB'
p335
F1.0
s(lp336
g75
atp337
a(S'questa'
p338
(dp339
S'PRON'
p340
F1.0
s(lp341
g81
atp342
a(S'terribile'
p343
(dp344
S'ADJ'
p345
F1.0
s(lp346
g88
atp347
a(S'verit\xc3\xa0'
p348
(dp349
S'NOUN'
p350
F1.0
s(lp351
g93
atp352
a(g36
(dp353
g36
F1.0
s(lp354
g36
atp355
asS'sk'
p356
(lp357
(S'dne\xc5\xa1n\xc3\xa9'
p358
(dp359
S'ADJ'
p360
F1.0
s(lp361
g28
atp362
a(S'rusko'
p363
(dp364
g123
F1.0
s(lp365
g16
atp366
a(S'nie'
p367
(dp368
g123
F1.0
s(lp369
g49
atp370
a(S'je'
p371
(dp372
g123
F0.000361
sS'VERB'
p373
F0.999606
sS'PRON'
p374
F3.4e-05
s(lp375
g44
atp376
a(S'dostato\xc4\x8dne'
p377
(dp378
S'ADV'
p379
F1.0
s(lp380
g61
atp381
a(S'odv\xc3\xa1\xc5\xbene'
p382
(dp383
S'ADV'
p384
F0.934474
sS'ADJ'
p385
F0.065526
s(lp386
g54
atp387
a(g231
(dp388
g36
F1.0
s(lp389
tp390
a(S'aby'
p391
(dp392
g123
F6.7e-05
sS'CONJ'
p393
F0.999933
s(lp394
tp395
a(S'sa'
p396
(dp397
S'PRT'
p398
F0.99997
sS'ADP'
p399
F2e-05
sg123
F1e-05
s(lp400
g68
atp401
a(S'tejto'
p402
(dp403
S'PRON'
p404
F1.0
s(lp405
g81
atp406
a(S'pr\xc3\xad\xc5\xa1ernej'
p407
(dp408
S'ADJ'
p409
F1.0
s(lp410
tp411
a(S'pravde'
p412
(dp413
S'NOUN'
p414
F1.0
s(lp415
g93
atp416
a(S'postavilo'
p417
(dp418
S'VERB'
p419
F0.999999
s(lp420
g88
atp421
a(S'zo\xc4\x8di-vo\xc4\x8di'
p422
(dp423
S'ADV'
p424
F0.061346
sS'VERB'
p425
F0.3050999999999999
sS'NOUN'
p426
F0.633555
s(lp427
g75
atp428
a(g36
(dp429
g36
F1.0
s(lp430
g36
atp431
asS'pl'
p432
(lp433
(S'dzisiejsza'
p434
(dp435
S'ADJ'
p436
F1.0
s(lp437
g28
atp438
a(S'rosja'
p439
(dp440
S'VERB'
p441
F0.015149
sS'NOUN'
p442
F0.98485
s(lp443
g16
atp444
a(S'nie'
p445
(dp446
S'ADV'
p447
F1.4e-05
sS'PRT'
p448
F0.990204
sS'CONJ'
p449
F0.009772
sS'NOUN'
p450
F3e-06
sS'PRON'
p451
F6.999999999999999e-06
s(lp452
g49
atp453
a(S'ma'
p454
(dp455
S'VERB'
p456
F0.9991369999999999
sS'NOUN'
p457
F0.000839
sS'ADP'
p458
F2.4999999999999998e-05
s(lp459
g44
atp460
a(S'odwagi'
p461
(dp462
S'NOUN'
p463
F1.0
s(lp464
g54
atp465
a(S'zmierzy\xc4\x87'
p466
(dp467
S'VERB'
p468
F1.0
s(lp469
g75
atp470
a(S'si\xc4\x99'
p471
(dp472
S'PRT'
p473
F1.0
s(lp474
tp475
a(S'z'
p476
(dp477
S'PRT'
p478
F0.00128
sS'VERB'
p479
F6e-06
sS'NOUN'
p480
F0.0
sS'ADP'
p481
F0.9987139999999999
sg123
F0.0
s(lp482
g75
atp483
a(S't\xc4\x85'
p484
(dp485
S'ADJ'
p486
F1.0
s(lp487
g81
atp488
a(S'straszn\xc4\x85'
p489
(dp490
S'ADJ'
p491
F1.0
s(lp492
g88
atp493
a(S'prawd\xc4\x85'
p494
(dp495
S'NOUN'
p496
F1.0
s(lp497
g93
atp498
a(g36
(dp499
g36
F1.0
s(lp500
g36
atp501
asS'sl'
p502
(lp503
(S'dana\xc5\xa1nja'
p504
(dp505
S'ADJ'
p506
F1.0
s(lp507
g28
atp508
a(S'rusija'
p509
(dp510
S'ADJ'
p511
F5.8e-05
sS'VERB'
p512
F3e-06
sS'NOUN'
p513
F0.999939
s(lp514
g16
atp515
a(S'ni'
p516
(dp517
S'VERB'
p518
F1.0
s(lp519
g49
atp520
a(S'dovolj'
p521
(dp522
S'ADV'
p523
F1.0
s(lp524
g61
atp525
a(S'pogumna'
p526
(dp527
S'ADJ'
p528
F1.0
s(lp529
g54
atp530
a(g231
(dp531
g36
F1.0
s(lp532
tp533
a(S'da'
p534
(dp535
S'PRT'
p536
F0.000137
sS'CONJ'
p537
F0.999855
sS'VERB'
p538
F8e-06
sg123
F0.0
s(lp539
tp540
a(S'bi'
p541
(dp542
g123
F1e-06
sS'VERB'
p543
F0.999999
s(lp544
g68
atp545
a(S'se'
p546
(dp547
S'PRON'
p548
F0.999996
sg123
F4e-06
s(lp549
g75
atp550
a(S'soo\xc4\x8dila'
p551
(dp552
S'VERB'
p553
F1.0
s(lp554
tp555
a(S's'
p556
(dp557
S'VERB'
p558
F8.7e-05
sS'NOUN'
p559
F1.9e-05
sS'ADP'
p560
F0.999894
s(lp561
g75
atp562
a(S'to'
p563
(dp564
S'PRON'
p565
F0.999921
sg123
F8e-05
s(lp566
g81
atp567
a(S'grozljivo'
p568
(dp569
S'ADV'
p570
F0.004099
sS'ADJ'
p571
F0.9959
s(lp572
g88
atp573
a(S'resnico'
p574
(dp575
S'NOUN'
p576
F1.0
s(lp577
g93
atp578
a(g36
(dp579
g36
F1.0
s(lp580
g36
atp581
asS'es'
p582
(lp583
(S'la'
p584
(dp585
g123
F4.5e-05
sS'DET'
p586
F0.999917
sS'NOUN'
p587
F0.0
sS'PRON'
p588
F3.8e-05
s(lp589
g24
atp590
a(S'rusia'
p591
(dp592
S'NOUN'
p593
F1.0
s(lp594
g16
atp595
a(S'actual'
p596
(dp597
g123
F7e-06
sS'ADJ'
p598
F0.999993
s(lp599
g28
atp600
a(S'no'
p601
(dp602
S'ADV'
p603
F1.0
sg123
F0.0
s(lp604
g49
atp605
a(S'es'
p606
(dp607
S'VERB'
p608
F1.0
s(lp609
g44
atp610
a(S'lo'
p611
(dp612
S'PRON'
p613
F2.2e-05
sS'DET'
p614
F0.999978
s(lp615
g61
atp616
a(S'suficientemente'
p617
(dp618
S'ADV'
p619
F1.0
s(lp620
tp621
a(S'valiente'
p622
(dp623
S'ADJ'
p624
F1.0
s(lp625
g54
atp626
a(S'como'
p627
(dp628
S'ADV'
p629
F0.755852
sS'CONJ'
p630
F0.244148
s(lp631
g61
atp632
a(S'para'
p633
(dp634
S'CONJ'
p635
F0.969914
sS'ADP'
p636
F0.030086
s(lp637
g68
atp638
a(S'enfrentarse'
p639
(dp640
S'VERB'
p641
F1.0
s(lp642
tp643
a(S'a'
p644
(dp645
g123
F1e-06
sS'CONJ'
p646
F6e-06
sS'ADP'
p647
F0.999993
s(lp648
g75
atp649
a(S'esta'
p650
(dp651
S'PRON'
p652
F1.0
sS'VERB'
p653
F0.0
s(lp654
g81
atp655
a(S'espantosa'
p656
(dp657
S'ADJ'
p658
F1.0
s(lp659
g88
atp660
a(S'verdad'
p661
(dp662
S'NOUN'
p663
F1.0
s(lp664
g93
atp665
a(g36
(dp666
g36
F1.0
s(lp667
g36
atp668
as.