(dp0
S'fr'
p1
(lp2
(S'('
p3
(dp4
S'.'
p5
F1.0
s(lp6
tp7
a(S'en'
p8
(dp9
S'PRON'
p10
F0.551936
sS'ADP'
p11
F0.448064
s(lp12
tp13
a(S')'
p14
(dp15
g5
F1.0
s(lp16
S'president'
p17
atp18
a(S'monsieur'
p19
(dp20
S'NOUN'
p21
F1.0
s(lp22
S'mr'
p23
atp24
a(S'le'
p25
(dp26
S'PRON'
p27
F0.000321
sS'DET'
p28
F0.999679
s(lp29
tp30
a(S'pr\xc3\xa9sident'
p31
(dp32
S'VERB'
p33
F4.5e-05
sS'NOUN'
p34
F0.999955
s(lp35
g17
atp36
a(S','
p37
(dp38
g5
F1.0
s(lp39
g37
atp40
a(S'le'
p41
(dp42
S'PRON'
p43
F0.000368
sS'DET'
p44
F0.999632
s(lp45
S'sport'
p46
atp47
a(S'sport'
p48
(dp49
S'NOUN'
p50
F1.0
s(lp51
g46
atp52
a(S'doit'
p53
(dp54
S'VERB'
p55
F0.985716
sS'NOUN'
p56
F0.014284
s(lp57
S'should'
p58
atp59
a(g37
(dp60
g5
F1.0
s(lp61
g37
atp62
a(S'\xc3\xa9videmment'
p63
(dp64
S'ADV'
p65
F1.0
s(lp66
S'course'
p67
atp68
a(g37
(dp69
g5
F1.0
s(lp70
g37
atp71
a(S'\xc3\xaatre'
p72
(dp73
S'VERB'
p74
F0.988649
sS'NOUN'
p75
F0.011351
s(lp76
S'be'
p77
atp78
a(S'plac\xc3\xa9'
p79
(dp80
S'VERB'
p81
F1.0
s(lp82
S'run'
p83
atp84
a(S'sous'
p85
(dp86
S'NOUN'
p87
F1e-06
sS'ADP'
p88
F0.999999
s(lp89
S'by'
p90
atp91
a(S'la'
p92
(dp93
S'PRON'
p94
F1.2e-05
sS'DET'
p95
F0.999988
sS'NOUN'
p96
F0.0
s(lp97
S'the'
p98
atp99
a(S'responsabilit\xc3\xa9'
p100
(dp101
S'NOUN'
p102
F1.0
s(lp103
S'themselves'
p104
atp105
a(S'des'
p106
(dp107
S'DET'
p108
F2.1e-05
sS'ADP'
p109
F0.999979
s(lp110
tp111
a(S'autorit\xc3\xa9s'
p112
(dp113
S'NOUN'
p114
F1.0
s(lp115
S'authorities'
p116
atp117
a(S'sportives'
p118
(dp119
S'NOUN'
p120
F0.009609
sS'ADJ'
p121
F0.990391
s(lp122
S'sporting'
p123
atp124
a(S'mais'
p125
(dp126
S'CONJ'
p127
F1.0
s(lp128
S'but'
p129
atp130
a(g37
(dp131
g5
F1.0
s(lp132
g37
atp133
a(S'dans'
p134
(dp135
S'NOUN'
p136
F6.1e-05
sS'ADP'
p137
F0.999939
s(lp138
S'to'
p139
atp140
a(S'la'
p141
(dp142
S'PRON'
p143
F2.7e-05
sS'DET'
p144
F0.999973
sS'NOUN'
p145
F0.0
s(lp146
S'the'
p147
atp148
a(S'mesure'
p149
(dp150
S'VERB'
p151
F2.2e-05
sS'NOUN'
p152
F0.999979
s(lp153
S'extent'
p154
atp155
a(S'o\xc3\xb9'
p156
(dp157
S'ADV'
p158
F0.000567
sS'PRON'
p159
F0.999433
s(lp160
S'that'
p161
atp162
a(S'il'
p163
(dp164
S'PRON'
p165
F1.0
s(lp166
S'it'
p167
atp168
a(S"s'"
p169
(dp170
S'ADJ'
p171
F0.000625
sS'VERB'
p172
F0.9973000000000002
sS'NOUN'
p173
F0.002077
s(lp174
tp175
a(S'agit'
p176
(dp177
S'VERB'
p178
F1.0
s(lp179
S'is'
p180
atp181
a(S'aussi'
p182
(dp183
S'ADV'
p184
F0.999445
sS'CONJ'
p185
F0.000555
s(lp186
S'also'
p187
atp188
a(S"d'"
p189
(dp190
S'NOUN'
p191
F0.03717
sS'VERB'
p192
F0.7566579999999998
sS'ADJ'
p193
F0.206173
s(lp194
tp195
a(S'une'
p196
(dp197
S'NOUN'
p198
F1.5e-05
sS'NUM'
p199
F0.021976
sS'DET'
p200
F0.978009
s(lp201
S'an'
p202
atp203
a(S'activit\xc3\xa9'
p204
(dp205
S'NOUN'
p206
F1.0
s(lp207
S'activity'
p208
atp209
a(S'\xc3\xa9conomique'
p210
(dp211
S'NOUN'
p212
F0.003145
sS'ADJ'
p213
F0.996855
s(lp214
S'economic'
p215
atp216
a(g37
(dp217
g5
F1.0
s(lp218
g37
atp219
a(S'le'
p220
(dp221
S'PRON'
p222
F0.000368
sS'DET'
p223
F0.999632
s(lp224
tp225
a(S'sport'
p226
(dp227
S'NOUN'
p228
F1.0
s(lp229
g46
atp230
a(S'doit'
p231
(dp232
S'VERB'
p233
F0.999606
sS'NOUN'
p234
F0.000394
s(lp235
S'falls'
p236
atp237
a(S'in\xc3\xa9vitablement'
p238
(dp239
S'ADV'
p240
F1.0
s(lp241
S'unavoidably'
p242
atp243
a(S'se'
p244
(dp245
S'PRON'
p246
F1.0
s(lp247
tp248
a(S'conformer'
p249
(dp250
S'VERB'
p251
F1.0
s(lp252
g242
atp253
a(S'au'
p254
(dp255
S'ADP'
p256
F1.0
s(lp257
S'under'
p258
atp259
a(S'droit'
p260
(dp261
S'ADV'
p262
F0.001013
sS'ADJ'
p263
F0.038662
sS'NOUN'
p264
F0.960325
s(lp265
S'law'
p266
atp267
a(S'du'
p268
(dp269
S'ADP'
p270
F1.0
s(lp271
tp272
a(S'travail'
p273
(dp274
S'NOUN'
p275
F1.0
s(lp276
S'employment'
p277
atp278
a(g37
(dp279
g5
F1.0
s(lp280
g37
atp281
a(S'au'
p282
(dp283
S'ADP'
p284
F1.0
s(lp285
S'competition'
p286
atp287
a(S'droit'
p288
(dp289
S'ADV'
p290
F0.000981
sS'ADJ'
p291
F0.040743
sS'NOUN'
p292
F0.958276
s(lp293
S'law'
p294
atp295
a(S'de'
p296
(dp297
S'ADP'
p298
F1.0
s(lp299
tp300
a(S'la'
p301
(dp302
S'PRON'
p303
F0.000116
sS'DET'
p304
F0.999883
sS'NOUN'
p305
F0.0
s(lp306
g286
atp307
a(S'concurrence'
p308
(dp309
S'VERB'
p310
F0.00014600000000000003
sS'NOUN'
p311
F0.999854
s(lp312
tp313
a(g37
(dp314
g5
F1.0
s(lp315
g37
atp316
a(S'\xc3\xa0'
p317
(dp318
S'ADP'
p319
F1.0
s(lp320
tp321
a(S'la'
p322
(dp323
S'PRON'
p324
F1.2e-05
sS'DET'
p325
F0.999988
sS'NOUN'
p326
F0.0
s(lp327
g286
atp328
a(S'l\xc3\xa9gislation'
p329
(dp330
S'NOUN'
p331
F1.0
s(lp332
S'law'
p333
atp334
a(S'sur'
p335
(dp336
S'ADP'
p337
F1.0
s(lp338
S'copyright'
p339
atp340
a(S'le'
p341
(dp342
S'PRON'
p343
F0.000281
sS'DET'
p344
F0.999719
s(lp345
g339
atp346
a(S'droit'
p347
(dp348
S'ADV'
p349
F0.003152
sS'ADJ'
p350
F0.049144
sS'NOUN'
p351
F0.947704
s(lp352
g339
atp353
a(S"d'"
p354
(dp355
S'NOUN'
p356
F0.060226
sS'VERB'
p357
F0.6784290000000001
sS'ADJ'
p358
F0.261347
s(lp359
tp360
a(S'auteur'
p361
(dp362
S'NOUN'
p363
F1.0
s(lp364
g339
atp365
a(g37
(dp366
g5
F1.0
s(lp367
g37
atp368
a(S'aux'
p369
(dp370
S'ADP'
p371
F1.0
s(lp372
S'on'
p373
atp374
a(S'droits'
p375
(dp376
S'ADJ'
p377
F0.001047
sS'NOUN'
p378
F0.998953
s(lp379
S'rights'
p380
atp381
a(S'm\xc3\xa9diatiques'
p382
(dp383
S'ADJ'
p384
F1.0
s(lp385
S'media'
p386
atp387
a(g37
(dp388
g5
F1.0
s(lp389
S'and'
p390
atp391
a(S'etc.'
p392
(dp393
S'X'
p394
F1.0
s(lp395
S'so'
p396
atp397
asS'en'
p398
(lp399
(g23
(dp400
S'ADJ'
p401
F0.013311
sS'NOUN'
p402
F0.986689
s(lp403
g23
atp404
a(g17
(dp405
S'NOUN'
p406
F1.0
s(lp407
g17
atp408
a(g37
(dp409
g5
F1.0
s(lp410
g37
atp411
a(g46
(dp412
S'VERB'
p413
F0.006997999999999999
sS'NOUN'
p414
F0.993002
s(lp415
g46
atp416
a(g58
(dp417
S'VERB'
p418
F1.0
s(lp419
g58
atp420
a(g37
(dp421
g5
F1.0
s(lp422
g37
atp423
a(S'of'
p424
(dp425
S'ADP'
p426
F1.0
s(lp427
g424
atp428
a(g67
(dp429
S'ADV'
p430
F0.000317
sS'VERB'
p431
F2e-06
sS'NOUN'
p432
F0.99968
s(lp433
g67
atp434
a(g37
(dp435
g5
F1.0
s(lp436
g37
atp437
a(g77
(dp438
S'VERB'
p439
F1.0
s(lp440
g77
atp441
a(g83
(dp442
S'VERB'
p443
F0.9981350000000001
sS'NOUN'
p444
F0.001865
s(lp445
g83
atp446
a(g90
(dp447
S'ADV'
p448
F0.000139
sS'NOUN'
p449
F0.0
sS'ADP'
p450
F0.999861
s(lp451
g90
atp452
a(g98
(dp453
S'NOUN'
p454
F1e-06
sS'DET'
p455
F0.999999
s(lp456
g98
atp457
a(g123
(dp458
S'ADJ'
p459
F0.19383
sS'VERB'
p460
F0.083966
sS'NOUN'
p461
F0.722204
s(lp462
g123
atp463
a(g116
(dp464
S'NOUN'
p465
F1.0
s(lp466
g116
atp467
a(g104
(dp468
S'PRON'
p469
F1.0
s(lp470
g104
atp471
a(g129
(dp472
S'ADV'
p473
F0.071558
sS'CONJ'
p474
F0.928442
sS'NOUN'
p475
F0.0
s(lp476
g129
atp477
a(g37
(dp478
g5
F1.0
s(lp479
g37
atp480
a(g139
(dp481
S'ADV'
p482
F2.4e-05
sS'PRT'
p483
F0.999929
sS'ADP'
p484
F4.6e-05
s(lp485
g139
atp486
a(g147
(dp487
S'NOUN'
p488
F2e-06
sS'DET'
p489
F0.999998
s(lp490
g147
atp491
a(g154
(dp492
S'NOUN'
p493
F1.0
s(lp494
g154
atp495
a(g161
(dp496
S'ADV'
p497
F0.000224
sS'DET'
p498
F0.162274
sS'ADP'
p499
F0.837502
s(lp500
g161
atp501
a(g167
(dp502
S'PRON'
p503
F1.0
s(lp504
g167
atp505
a(g180
(dp506
S'VERB'
p507
F1.0
s(lp508
g180
atp509
a(g187
(dp510
S'ADV'
p511
F1.0
s(lp512
g187
atp513
a(g202
(dp514
S'DET'
p515
F1.0
s(lp516
g202
atp517
a(g215
(dp518
S'ADJ'
p519
F1.0
s(lp520
g215
atp521
a(g208
(dp522
S'NOUN'
p523
F1.0
s(lp524
g208
atp525
a(g37
(dp526
g5
F1.0
s(lp527
g37
atp528
a(S'it'
p529
(dp530
S'PRON'
p531
F1.0
s(lp532
g529
atp533
a(g242
(dp534
S'ADV'
p535
F1.0
s(lp536
g242
atp537
a(g236
(dp538
S'VERB'
p539
F0.935645
sS'NOUN'
p540
F0.064355
s(lp541
g236
atp542
a(g258
(dp543
S'ADV'
p544
F0.000808
sS'ADP'
p545
F0.999192
s(lp546
g258
atp547
a(g277
(dp548
S'NOUN'
p549
F1.0
s(lp550
g277
atp551
a(g266
(dp552
S'NOUN'
p553
F1.0
s(lp554
g266
atp555
a(g37
(dp556
g5
F1.0
s(lp557
g37
atp558
a(g286
(dp559
S'NOUN'
p560
F1.0
s(lp561
g286
atp562
a(g294
(dp563
S'NOUN'
p564
F1.0
s(lp565
g294
atp566
a(g37
(dp567
g5
F1.0
s(lp568
g37
atp569
a(g339
(dp570
S'NOUN'
p571
F0.370315
sS'VERB'
p572
F0.029692000000000003
sS'ADJ'
p573
F0.599994
s(lp574
g339
atp575
a(g333
(dp576
S'NOUN'
p577
F1.0
s(lp578
g333
atp579
a(g37
(dp580
g5
F1.0
s(lp581
g37
atp582
a(g386
(dp583
S'NOUN'
p584
F1.0
s(lp585
g386
atp586
a(g380
(dp587
S'VERB'
p588
F5.1e-05
sS'NOUN'
p589
F0.999949
s(lp590
g380
atp591
a(g390
(dp592
S'CONJ'
p593
F1.0
sS'NOUN'
p594
F0.0
s(lp595
g390
atp596
a(g396
(dp597
S'ADV'
p598
F0.977375
sS'ADJ'
p599
F7.6e-05
sS'CONJ'
p600
F0.00086
sS'NOUN'
p601
F0.0001
sS'ADP'
p602
F0.021589
s(lp603
g396
atp604
a(g373
(dp605
S'ADV'
p606
F0.04086
sS'PRT'
p607
F0.000867
sS'ADJ'
p608
F9.6e-05
sS'ADP'
p609
F0.958139
sS'NOUN'
p610
F3.8e-05
s(lp611
g373
atp612
a(g5
(dp613
g5
F1.0
s(lp614
g5
atp615
asS'nl'
p616
(lp617
(g3
(dp618
g5
F1.0
s(lp619
tp620
a(S'en'
p621
(dp622
S'CONJ'
p623
F1.0
s(lp624
g17
atp625
a(g14
(dp626
g5
F1.0
s(lp627
g17
atp628
a(S'mijnheer'
p629
(dp630
S'NOUN'
p631
F1.0
s(lp632
g23
atp633
a(S'de'
p634
(dp635
S'DET'
p636
F1.0
s(lp637
tp638
a(S'voorzitter'
p639
(dp640
S'NOUN'
p641
F1.0
s(lp642
g17
atp643
a(g37
(dp644
g5
F1.0
s(lp645
g37
atp646
a(S'de'
p647
(dp648
S'DET'
p649
F1.0
s(lp650
g46
atp651
a(S'sport'
p652
(dp653
S'VERB'
p654
F0.0
sS'NOUN'
p655
F1.0
s(lp656
tp657
a(S'zou'
p658
(dp659
S'VERB'
p660
F1.0
s(lp661
g58
atp662
a(S'natuurlijk'
p663
(dp664
S'ADJ'
p665
F1.0
s(lp666
g67
atp667
a(S'moeten'
p668
(dp669
S'VERB'
p670
F0.998447
sS'NOUN'
p671
F0.001552
s(lp672
g37
atp673
a(S'worden'
p674
(dp675
S'VERB'
p676
F1.0
sS'NOUN'
p677
F0.0
s(lp678
g77
atp679
a(S'geleid'
p680
(dp681
S'VERB'
p682
F0.999986
sS'ADJ'
p683
F1.4e-05
s(lp684
g83
atp685
a(S'door'
p686
(dp687
S'ADV'
p688
F0.0
sS'CONJ'
p689
F1.8e-05
sS'ADP'
p690
F0.999982
s(lp691
g90
atp692
a(S'de'
p693
(dp694
S'DET'
p695
F1.0
s(lp696
g98
atp697
a(S'sportautoriteiten'
p698
(dp699
S'NOUN'
p700
F1.0
s(lp701
g123
atp702
a(S'zelf'
p703
(dp704
S'PRON'
p705
F1.0
s(lp706
g104
atp707
a(g5
(dp708
g5
F1.0
s(lp709
g37
atp710
a(S'voor'
p711
(dp712
S'ADV'
p713
F0.254235
sS'CONJ'
p714
F0.000102
sS'NOUN'
p715
F1.3e-05
sS'ADP'
p716
F0.745649
s(lp717
g139
atp718
a(S'zover'
p719
(dp720
S'ADV'
p721
F1.0
s(lp722
g154
atp723
a(S'sport'
p724
(dp725
S'VERB'
p726
F0.800396
sS'NOUN'
p727
F0.199604
s(lp728
g46
atp729
a(S'ook'
p730
(dp731
S'ADV'
p732
F1.0
s(lp733
g187
atp734
a(S'een'
p735
(dp736
S'ADJ'
p737
F8e-06
sS'PRON'
p738
F0.000754
sS'NUM'
p739
F2e-06
sS'DET'
p740
F0.999236
s(lp741
g202
atp742
a(S'economische'
p743
(dp744
S'NOUN'
p745
F3.9e-05
sS'ADJ'
p746
F0.999961
s(lp747
g215
atp748
a(S'activiteit'
p749
(dp750
S'NOUN'
p751
F1.0
s(lp752
g208
atp753
a(S'is'
p754
(dp755
S'VERB'
p756
F1.0
s(lp757
g180
atp758
a(g37
(dp759
g5
F1.0
s(lp760
g37
atp761
a(S'valt'
p762
(dp763
S'VERB'
p764
F1.0
s(lp765
g236
atp766
a(S'zij'
p767
(dp768
S'PRON'
p769
F1.0
sS'VERB'
p770
F0.0
sS'NOUN'
p771
F0.0
s(lp772
g529
atp773
a(S'echter'
p774
(dp775
S'ADV'
p776
F0.999609
sS'ADJ'
p777
F0.000391
s(lp778
g129
atp779
a(S'onvermijdelijk'
p780
(dp781
S'ADJ'
p782
F1.0
s(lp783
g242
atp784
a(S'onder'
p785
(dp786
S'ADV'
p787
F1.1e-05
sS'ADP'
p788
F0.999989
s(lp789
g258
atp790
a(S'het'
p791
(dp792
S'PRON'
p793
F0.000997
sS'DET'
p794
F0.999003
s(lp795
g167
atp796
a(S'arbeidsrecht'
p797
(dp798
S'ADJ'
p799
F0.014227
sS'NOUN'
p800
F0.985773
s(lp801
g277
atp802
a(g37
(dp803
g5
F1.0
s(lp804
g37
atp805
a(S'mededingingsrecht'
p806
(dp807
S'ADJ'
p808
F0.027244
sS'NOUN'
p809
F0.972756
s(lp810
g286
atp811
a(g37
(dp812
g5
F1.0
s(lp813
g37
atp814
a(S'auteursrecht'
p815
(dp816
S'NOUN'
p817
F1.0
s(lp818
g339
atp819
a(g37
(dp820
g5
F1.0
s(lp821
g37
atp822
a(S'mediarecht'
p823
(dp824
S'ADJ'
p825
F0.013587
sS'NOUN'
p826
F0.986414
s(lp827
g386
atp828
a(S'enzovoort'
p829
(dp830
S'ADV'
p831
F1.0
s(lp832
g396
atp833
a(g5
(dp834
g5
F1.0
s(lp835
g5
atp836
asS'de'
p837
(lp838
(S'nat\xc3\xbcrlich'
p839
(dp840
S'ADV'
p841
F0.993262
sS'ADJ'
p842
F0.006738
s(lp843
g67
atp844
a(S'sollte'
p845
(dp846
S'VERB'
p847
F1.0
s(lp848
g58
atp849
a(S'die'
p850
(dp851
S'PRON'
p852
F0.00081
sS'DET'
p853
F0.99917
s(lp854
g98
atp855
a(S'leitung'
p856
(dp857
S'ADJ'
p858
F0.013564
sS'NOUN'
p859
F0.974907
s(lp860
g83
atp861
a(S'des'
p862
(dp863
S'DET'
p864
F1.0
s(lp865
g98
atp866
a(S'sports'
p867
(dp868
S'ADJ'
p869
F0.019013
sS'NOUN'
p870
F0.962633
s(lp871
tp872
a(S'bei'
p873
(dp874
S'PRT'
p875
F0.000184
sS'ADP'
p876
F0.999816
s(lp877
g373
atp878
a(S'den'
p879
(dp880
S'PRON'
p881
F9.6e-05
sS'DET'
p882
F0.999901
s(lp883
tp884
a(S'sportbeh\xc3\xb6rden'
p885
(dp886
S'ADJ'
p887
F0.027313
sS'NOUN'
p888
F0.948509
s(lp889
g123
atp890
a(S'selbst'
p891
(dp892
S'ADV'
p893
F0.997772
sS'PRT'
p894
F0.002228
s(lp895
g104
atp896
a(S'liegen'
p897
(dp898
S'VERB'
p899
F0.9814080000000001
s(lp900
g77
atp901
a(g5
(dp902
g5
F1.0
s(lp903
g5
atp904
a(S'allerdings'
p905
(dp906
S'ADV'
p907
F1.0
s(lp908
g129
atp909
a(S'unterliegt'
p910
(dp911
S'VERB'
p912
F1.0
s(lp913
g236
atp914
a(S'der'
p915
(dp916
S'PRON'
p917
F0.000577
sS'DET'
p918
F0.999422
s(lp919
g98
atp920
a(S'sport'
p921
(dp922
S'ADJ'
p923
F0.01902
sS'NOUN'
p924
F0.962254
s(lp925
g46
atp926
a(S'in'
p927
(dp928
S'ADP'
p929
F1.0
s(lp930
g139
atp931
a(S'dem'
p932
(dp933
S'PRON'
p934
F0.447093
sS'DET'
p935
F0.549141
s(lp936
g147
atp937
a(S'ma\xc3\x9fe'
p938
(dp939
S'VERB'
p940
F1.0
s(lp941
g154
atp942
a(g37
(dp943
g5
F1.0
s(lp944
g161
atp945
a(S'in'
p946
(dp947
S'ADP'
p948
F1.0
s(lp949
g258
atp950
a(S'dem'
p951
(dp952
S'PRON'
p953
F0.240973
sS'DET'
p954
F0.739435
s(lp955
g236
atp956
a(S'er'
p957
(dp958
S'PRON'
p959
F1.0
s(lp960
g167
atp961
a(S'auch'
p962
(dp963
S'ADV'
p964
F1.0
s(lp965
g187
atp966
a(S'eine'
p967
(dp968
S'PRON'
p969
F0.004174
sS'DET'
p970
F0.995707
s(lp971
g202
atp972
a(S'wirtschaftliche'
p973
(dp974
S'ADJ'
p975
F1.0
s(lp976
g215
atp977
a(S't\xc3\xa4tigkeit'
p978
(dp979
S'ADJ'
p980
F3e-05
sS'NOUN'
p981
F0.999951
s(lp982
g208
atp983
a(S'ist'
p984
(dp985
S'VERB'
p986
F1.0
s(lp987
tp988
a(g37
(dp989
g5
F1.0
s(lp990
g37
atp991
a(S'unvermeidlich'
p992
(dp993
S'ADJ'
p994
F1.0
s(lp995
g242
atp996
a(S'dem'
p997
(dp998
S'PRON'
p999
F0.00154
sS'DET'
p1000
F0.998459
s(lp1001
g236
atp1002
a(S'arbeits-'
p1003
(dp1004
g394
F1.0
s(lp1005
g277
atp1006
a(g37
(dp1007
g5
F1.0
s(lp1008
g37
atp1009
a(S'wettbewerbs-'
p1010
(dp1011
g394
F1.0
s(lp1012
g286
atp1013
a(g37
(dp1014
g5
F1.0
s(lp1015
g37
atp1016
a(S'medienrecht'
p1017
(dp1018
S'VERB'
p1019
F0.052804
sS'ADJ'
p1020
F0.944597
s(lp1021
g386
atp1022
a(S'usw.'
p1023
(dp1024
S'ADV'
p1025
F1.0
s(lp1026
g396
atp1027
asS'it'
p1028
(lp1029
(g3
(dp1030
g5
F1.0
s(lp1031
tp1032
a(S'en'
p1033
(dp1034
S'ADJ'
p1035
F0.097599
sS'VERB'
p1036
F0.025145
sS'NOUN'
p1037
F0.877257
s(lp1038
g17
atp1039
a(g14
(dp1040
g5
F1.0
s(lp1041
tp1042
a(S'signor'
p1043
(dp1044
S'NOUN'
p1045
F1.0
s(lp1046
g23
atp1047
a(S'presidente'
p1048
(dp1049
S'NOUN'
p1050
F1.0
s(lp1051
g17
atp1052
a(g37
(dp1053
g5
F1.0
s(lp1054
g37
atp1055
a(S'lo'
p1056
(dp1057
S'PRON'
p1058
F0.021382
sS'DET'
p1059
F0.978618
s(lp1060
tp1061
a(S'sport'
p1062
(dp1063
S'NOUN'
p1064
F1.0
s(lp1065
g46
atp1066
a(S'dovrebbe'
p1067
(dp1068
S'VERB'
p1069
F1.0
s(lp1070
g58
atp1071
a(S'certamente'
p1072
(dp1073
S'ADV'
p1074
F1.0
s(lp1075
g67
atp1076
a(S'essere'
p1077
(dp1078
S'VERB'
p1079
F0.999974
sS'NOUN'
p1080
F2.6e-05
s(lp1081
g77
atp1082
a(S'gestito'
p1083
(dp1084
S'VERB'
p1085
F1.0
s(lp1086
g83
atp1087
a(S'dalle'
p1088
(dp1089
S'NOUN'
p1090
F0.015061
sS'ADP'
p1091
F0.984939
s(lp1092
g90
atp1093
a(S'stesse'
p1094
(dp1095
S'VERB'
p1096
F3.5e-05
sS'ADJ'
p1097
F0.999965
s(lp1098
g104
atp1099
a(S'autorit\xc3\xa0'
p1100
(dp1101
S'NOUN'
p1102
F1.0
s(lp1103
g116
atp1104
a(S'sportive'
p1105
(dp1106
S'NOUN'
p1107
F0.036263
sS'ADJ'
p1108
F0.963737
s(lp1109
g123
atp1110
a(S'ma'
p1111
(dp1112
S'CONJ'
p1113
F0.99735
sS'NOUN'
p1114
F0.00265
s(lp1115
g129
atp1116
a(g37
(dp1117
g5
F1.0
s(lp1118
g37
atp1119
a(S'poich\xc3\xa9'
p1120
(dp1121
S'CONJ'
p1122
F1.0
s(lp1123
g161
atp1124
a(S'\xc3\xa8'
p1125
(dp1126
S'VERB'
p1127
F1.0
s(lp1128
g180
atp1129
a(S'anche'
p1130
(dp1131
S'ADV'
p1132
F0.999996
sS'NOUN'
p1133
F4e-06
s(lp1134
g187
atp1135
a(S"un'"
p1136
(dp1137
S'PRON'
p1138
F0.003852
sS'DEF'
p1139
F0.996148
s(lp1140
g202
atp1141
a(S'attivit\xc3\xa0'
p1142
(dp1143
S'NOUN'
p1144
F1.0
s(lp1145
g208
atp1146
a(S'economica'
p1147
(dp1148
S'ADJ'
p1149
F1.0
s(lp1150
g215
atp1151
a(g37
(dp1152
g5
F1.0
s(lp1153
g37
atp1154
a(S'rientra'
p1155
(dp1156
S'VERB'
p1157
F1.0
s(lp1158
g236
atp1159
a(S'inevitabilmente'
p1160
(dp1161
S'ADV'
p1162
F1.0
s(lp1163
g242
atp1164
a(S"nell'"
p1165
(dp1166
S'ADJ'
p1167
F0.040775
sS'VERB'
p1168
F0.04232400000000001
sS'NOUN'
p1169
F0.916901
s(lp1170
tp1171
a(S'ambito'
p1172
(dp1173
S'ADJ'
p1174
F0.020283
sS'VERB'
p1175
F0.383272
sS'NOUN'
p1176
F0.596445
s(lp1177
g258
atp1178
a(S'del'
p1179
(dp1180
S'DEF'
p1181
F0.00218
sS'ADP'
p1182
F0.99782
s(lp1183
tp1184
a(S'diritto'
p1185
(dp1186
S'ADJ'
p1187
F0.009345
sS'NOUN'
p1188
F0.990655
s(lp1189
g266
atp1190
a(S'del'
p1191
(dp1192
S'DEF'
p1193
F0.001256
sS'ADP'
p1194
F0.998744
s(lp1195
tp1196
a(S'lavoro'
p1197
(dp1198
S'VERB'
p1199
F1.2e-05
sS'NOUN'
p1200
F0.999988
s(lp1201
g277
atp1202
a(g37
(dp1203
g5
F1.0
s(lp1204
g37
atp1205
a(S'della'
p1206
(dp1207
S'DEF'
p1208
F0.011542
sS'ADP'
p1209
F0.988458
s(lp1210
tp1211
a(S'concorrenza'
p1212
(dp1213
S'NOUN'
p1214
F1.0
s(lp1215
g286
atp1216
a(g37
(dp1217
g5
F1.0
s(lp1218
g37
atp1219
a(S'dei'
p1220
(dp1221
S'NOUN'
p1222
F1.6e-05
sS'DEF'
p1223
F0.008618
sS'ADP'
p1224
F0.991367
s(lp1225
g339
atp1226
a(S'diritti'
p1227
(dp1228
S'ADJ'
p1229
F0.012593
sS'NOUN'
p1230
F0.987407
s(lp1231
g339
atp1232
a(S"d'"
p1233
(dp1234
g394
F1.0
s(lp1235
tp1236
a(S'autore'
p1237
(dp1238
S'NOUN'
p1239
F1.0
s(lp1240
g339
atp1241
a(g37
(dp1242
g5
F1.0
s(lp1243
g37
atp1244
a(S'dei'
p1245
(dp1246
S'NOUN'
p1247
F1.9e-05
sS'DEF'
p1248
F0.008675
sS'ADP'
p1249
F0.991307
s(lp1250
g386
atp1251
a(S'mezzi'
p1252
(dp1253
S'ADJ'
p1254
F0.018294
sS'NOUN'
p1255
F0.981706
s(lp1256
g386
atp1257
a(S"d'"
p1258
(dp1259
g394
F1.0
s(lp1260
tp1261
a(S'informazione'
p1262
(dp1263
S'NOUN'
p1264
F1.0
s(lp1265
g386
atp1266
a(S'e'
p1267
(dp1268
S'CONJ'
p1269
F1.0
s(lp1270
g390
atp1271
a(S'cos\xc3\xac'
p1272
(dp1273
S'ADV'
p1274
F0.949129
sS'CONJ'
p1275
F0.050871
s(lp1276
tp1277
a(S'via'
p1278
(dp1279
S'ADV'
p1280
F0.594781
sg394
F3.2e-05
sS'NOUN'
p1281
F0.405188
s(lp1282
g396
atp1283
a(g5
(dp1284
g5
F1.0
s(lp1285
g5
atp1286
asS'sk'
p1287
(lp1288
(S'v\xc3\xa1\xc5\xbeen\xc3\xbd'
p1289
(dp1290
S'VERB'
p1291
F0.141074
sS'ADJ'
p1292
F0.858926
s(lp1293
tp1294
a(S'p\xc3\xa1n'
p1295
(dp1296
S'NOUN'
p1297
F1.0
s(lp1298
g23
atp1299
a(S'predsedaj\xc3\xbaci'
p1300
(dp1301
S'VERB'
p1302
F1.0
s(lp1303
g17
atp1304
a(g37
(dp1305
g5
F1.0
s(lp1306
g37
atp1307
a(S'\xc5\xa1port'
p1308
(dp1309
S'NOUN'
p1310
F1.0
s(lp1311
g46
atp1312
a(S'by'
p1313
(dp1314
S'PRT'
p1315
F0.999861
sg394
F0.000139
s(lp1316
tp1317
a(S'mali'
p1318
(dp1319
S'VERB'
p1320
F1.0
s(lp1321
g58
atp1322
a(S'samozrejme'
p1323
(dp1324
S'ADV'
p1325
F0.003238
sg394
F0.99504
sS'ADJ'
p1326
F0.001722
s(lp1327
g67
atp1328
a(S'vies\xc5\xa5'
p1329
(dp1330
S'VERB'
p1331
F1.0
s(lp1332
g83
atp1333
a(S'samotn\xc3\xa9'
p1334
(dp1335
S'ADJ'
p1336
F1.0
s(lp1337
g104
atp1338
a(S'\xc5\xa1portov\xc3\xa9'
p1339
(dp1340
S'ADJ'
p1341
F1.0
s(lp1342
g123
atp1343
a(S'org\xc3\xa1ny'
p1344
(dp1345
S'NOUN'
p1346
F1.0
s(lp1347
g116
atp1348
a(g37
(dp1349
g5
F1.0
s(lp1350
g37
atp1351
a(S'av\xc5\xa1ak'
p1352
(dp1353
S'CONJ'
p1354
F1.0
s(lp1355
g129
atp1356
a(S'do'
p1357
(dp1358
S'PRON'
p1359
F0.000363
sS'ADP'
p1360
F0.999411
sg394
F0.00022799999999999996
s(lp1361
g154
atp1362
a(S'istej'
p1363
(dp1364
S'PRON'
p1365
F0.366362
sS'ADJ'
p1366
F0.633638
s(lp1367
tp1368
a(S'miery'
p1369
(dp1370
S'NOUN'
p1371
F1.0
s(lp1372
g154
atp1373
a(S'je'
p1374
(dp1375
g394
F7.4e-05
sS'VERB'
p1376
F0.999899
sS'PRON'
p1377
F2.8e-05
s(lp1378
g180
atp1379
a(S'aj'
p1380
(dp1381
g394
F0.944562
sS'CONJ'
p1382
F0.055438
s(lp1383
g187
atp1384
a(S'hospod\xc3\xa1rskou'
p1385
(dp1386
S'ADJ'
p1387
F1.0
s(lp1388
g215
atp1389
a(S'\xc4\x8dinnos\xc5\xa5ou'
p1390
(dp1391
S'NOUN'
p1392
F1.0
s(lp1393
g208
atp1394
a(g37
(dp1395
g5
F1.0
s(lp1396
g37
atp1397
a(S'na'
p1398
(dp1399
g394
F6.1000000000000005e-05
sS'CONJ'
p1400
F0.000625
sS'ADP'
p1401
F0.999294
sS'PRT'
p1402
F2.1e-05
s(lp1403
g98
atp1404
a(S'ktor\xc3\xba'
p1405
(dp1406
S'PRON'
p1407
F1.0
s(lp1408
g90
atp1409
a(S'sa'
p1410
(dp1411
S'PRT'
p1412
F0.999745
sS'ADP'
p1413
F2e-06
sg394
F0.000253
s(lp1414
tp1415
a(S'nevyhnutne'
p1416
(dp1417
S'ADV'
p1418
F0.818695
sg394
F0.181305
s(lp1419
tp1420
a(S'vz\xc5\xa5ahuje'
p1421
(dp1422
S'VERB'
p1423
F1.0
s(lp1424
g242
atp1425
a(S'pracovn\xc3\xa9'
p1426
(dp1427
S'ADJ'
p1428
F1.0
s(lp1429
g277
atp1430
a(S'pr\xc3\xa1vo'
p1431
(dp1432
S'NOUN'
p1433
F1.0
s(lp1434
g266
atp1435
a(g37
(dp1436
g5
F1.0
s(lp1437
g37
atp1438
a(S'pr\xc3\xa1vo'
p1439
(dp1440
S'NOUN'
p1441
F1.0
s(lp1442
tp1443
a(S'hospod\xc3\xa1rskej'
p1444
(dp1445
S'ADJ'
p1446
F1.0
s(lp1447
tp1448
a(S's\xc3\xba\xc5\xa5a\xc5\xbee'
p1449
(dp1450
S'NOUN'
p1451
F1.0
s(lp1452
g286
atp1453
a(g37
(dp1454
g5
F1.0
s(lp1455
g37
atp1456
a(S'pr\xc3\xa1vo'
p1457
(dp1458
S'NOUN'
p1459
F1.0
s(lp1460
g294
atp1461
a(S'autorsk\xc3\xbdch'
p1462
(dp1463
S'ADJ'
p1464
F1.0
s(lp1465
tp1466
a(S'pr\xc3\xa1v'
p1467
(dp1468
g394
F2.8e-05
sS'NOUN'
p1469
F0.999972
s(lp1470
g339
atp1471
a(S'a'
p1472
(dp1473
g394
F0.0007130000000000001
sS'CONJ'
p1474
F0.998486
sS'NOUN'
p1475
F7.8e-05
sS'ADP'
p1476
F0.000636
sS'PRT'
p1477
F8.6e-05
s(lp1478
g37
atp1479
a(S'medi\xc3\xa1lnych'
p1480
(dp1481
S'ADJ'
p1482
F1.0
s(lp1483
g386
atp1484
a(S'pr\xc3\xa1v'
p1485
(dp1486
g394
F2.8e-05
sS'NOUN'
p1487
F0.999972
s(lp1488
g380
atp1489
a(g1472
(dp1490
g394
F0.000537
sS'CONJ'
p1491
F0.999371
sS'NOUN'
p1492
F9e-06
sS'ADP'
p1493
F3e-06
sS'PRT'
p1494
F8.1e-05
s(lp1495
g390
atp1496
a(S'tak'
p1497
(dp1498
S'PRON'
p1499
F0.683598
sS'CONJ'
p1500
F0.143166
sg394
F0.173236
s(lp1501
g396
atp1502
a(S'\xc4\x8falej'
p1503
(dp1504
S'ADV'
p1505
F0.9858410000000001
sg394
F0.014159
s(lp1506
g373
atp1507
a(g5
(dp1508
g5
F1.0
s(lp1509
g5
atp1510
asS'pl'
p1511
(lp1512
(S'panie'
p1513
(dp1514
S'NOUN'
p1515
F1.0
s(lp1516
g23
atp1517
a(S'przewodnicz\xc4\x85cy'
p1518
(dp1519
S'VERB'
p1520
F0.000653
sS'NOUN'
p1521
F0.999348
s(lp1522
tp1523
a(S'!'
p1524
(dp1525
g5
F1.0
s(lp1526
g17
atp1527
a(S'oczywi\xc5\x9bcie'
p1528
(dp1529
S'PRT'
p1530
F1.0
s(lp1531
g67
atp1532
a(S'sport'
p1533
(dp1534
S'NOUN'
p1535
F1.0
s(lp1536
g46
atp1537
a(S'powinien'
p1538
(dp1539
S'VERB'
p1540
F1.000001
s(lp1541
g58
atp1542
a(S'znajdowa\xc4\x87'
p1543
(dp1544
S'VERB'
p1545
F1.0
s(lp1546
g242
atp1547
a(S'si\xc4\x99'
p1548
(dp1549
S'PRT'
p1550
F1.0
s(lp1551
g77
atp1552
a(S'pod'
p1553
(dp1554
S'ADV'
p1555
F5.8e-05
sS'ADP'
p1556
F0.999942
s(lp1557
tp1558
a(S'kontrol\xc4\x85'
p1559
(dp1560
S'NOUN'
p1561
F1.0
s(lp1562
g242
atp1563
a(S'samych'
p1564
(dp1565
g394
F4e-06
sS'ADJ'
p1566
F0.999997
s(lp1567
g104
atp1568
a(S'w\xc5\x82adz'
p1569
(dp1570
S'NOUN'
p1571
F1.0
s(lp1572
g116
atp1573
a(S'sportowych'
p1574
(dp1575
S'ADJ'
p1576
F1.0
s(lp1577
g123
atp1578
a(g37
(dp1579
g394
F0.0
sg5
F1.0
s(lp1580
g37
atp1581
a(S'ale'
p1582
(dp1583
S'PRT'
p1584
F0.002839
sS'CONJ'
p1585
F0.992966
sS'NOUN'
p1586
F0.004194
s(lp1587
g129
atp1588
a(g37
(dp1589
g394
F1e-06
sg5
F0.999999
s(lp1590
g37
atp1591
a(S'w'
p1592
(dp1593
S'ADJ'
p1594
F0.0
sg394
F1e-06
sS'NOUN'
p1595
F0.0
sS'ADP'
p1596
F0.9999990000000001
s(lp1597
g147
atp1598
a(S'takim'
p1599
(dp1600
S'ADJ'
p1601
F1.0
s(lp1602
tp1603
a(S'zakresie'
p1604
(dp1605
S'NOUN'
p1606
F1.0
s(lp1607
g154
atp1608
a(g37
(dp1609
g394
F0.0
sg5
F1.0
s(lp1610
tp1611
a(g1592
(dp1612
S'ADJ'
p1613
F0.0
sg394
F2e-06
sS'NOUN'
p1614
F0.0
sS'ADP'
p1615
F0.9999979999999999
s(lp1616
g258
atp1617
a(S'jakim'
p1618
(dp1619
S'ADJ'
p1620
F0.9999999999999999
s(lp1621
g161
atp1622
a(S'jest'
p1623
(dp1624
S'VERB'
p1625
F1.0
s(lp1626
g180
atp1627
a(S'on'
p1628
(dp1629
S'PRON'
p1630
F0.999231
sS'ADJ'
p1631
F0.000479
sS'NOUN'
p1632
F0.00029
s(lp1633
g167
atp1634
a(S'r\xc3\xb3wnie\xc5\xbc'
p1635
(dp1636
S'PRT'
p1637
F0.937927
sS'CONJ'
p1638
F0.062073
s(lp1639
g187
atp1640
a(S'dzia\xc5\x82alno\xc5\x9bci\xc4\x85'
p1641
(dp1642
S'NOUN'
p1643
F1.0
s(lp1644
g208
atp1645
a(S'gospodarcz\xc4\x85'
p1646
(dp1647
S'ADJ'
p1648
F1.0
s(lp1649
g215
atp1650
a(g37
(dp1651
g394
F6e-06
sg5
F0.999994
s(lp1652
g37
atp1653
a(S'podlega'
p1654
(dp1655
S'VERB'
p1656
F1.0
s(lp1657
g242
atp1658
a(S'on'
p1659
(dp1660
S'ADJ'
p1661
F0.001446
sS'PRON'
p1662
F0.9957339999999999
sS'NOUN'
p1663
F0.002822
s(lp1664
g529
atp1665
a(g1592
(dp1666
S'ADJ'
p1667
F7.2e-05
sg394
F0.025317
sS'NOUN'
p1668
F0.180169
sS'ADP'
p1669
F0.7944430000000001
s(lp1670
tp1671
a(S'nieunikniony'
p1672
(dp1673
S'ADJ'
p1674
F1.0
s(lp1675
g242
atp1676
a(S'spos\xc3\xb3b'
p1677
(dp1678
S'ADJ'
p1679
F0.002267
sS'NOUN'
p1680
F0.997734
s(lp1681
tp1682
a(S'prawu'
p1683
(dp1684
S'NOUN'
p1685
F1.0
s(lp1686
g242
atp1687
a(S'o'
p1688
(dp1689
g394
F0.000134
sS'VERB'
p1690
F2e-06
sS'NOUN'
p1691
F4e-06
sS'ADP'
p1692
F0.999858
sS'PRT'
p1693
F1e-06
s(lp1694
g373
atp1695
a(S'zatrudnieniu'
p1696
(dp1697
S'NOUN'
p1698
F1.0
s(lp1699
g277
atp1700
a(g37
(dp1701
g394
F0.0
sg5
F1.0
s(lp1702
g37
atp1703
a(S'prawu'
p1704
(dp1705
S'NOUN'
p1706
F1.0
s(lp1707
g294
atp1708
a(S'konkurencji'
p1709
(dp1710
S'NOUN'
p1711
F1.0
s(lp1712
g286
atp1713
a(g37
(dp1714
g394
F0.0
sg5
F1.0
s(lp1715
g37
atp1716
a(S'prawom'
p1717
(dp1718
S'NOUN'
p1719
F1.0
s(lp1720
g380
atp1721
a(S'medialnym'
p1722
(dp1723
S'ADJ'
p1724
F1.0
s(lp1725
g386
atp1726
a(S'itp'
p1727
(dp1728
g394
F1.0
s(lp1729
g396
atp1730
a(g5
(dp1731
g5
F1.0
s(lp1732
g5
atp1733
asS'sl'
p1734
(lp1735
(S'gospod'
p1736
(dp1737
S'NOUN'
p1738
F1.0
s(lp1739
g23
atp1740
a(S'predsednik'
p1741
(dp1742
S'NOUN'
p1743
F1.0
s(lp1744
g17
atp1745
a(g37
(dp1746
g5
F1.0
s(lp1747
g37
atp1748
a(S'jasno'
p1749
(dp1750
S'ADV'
p1751
F0.755915
sS'ADJ'
p1752
F0.244085
s(lp1753
g67
atp1754
a(S'je'
p1755
(dp1756
S'PRON'
p1757
F0.009817
sS'VERB'
p1758
F0.9901490000000001
sg394
F3.4e-05
s(lp1759
g77
atp1760
a(g37
(dp1761
g5
F1.0
s(lp1762
g37
atp1763
a(S'da'
p1764
(dp1765
S'PRT'
p1766
F0.000255
sS'CONJ'
p1767
F0.999719
sS'VERB'
p1768
F2.5e-05
sg394
F1e-06
s(lp1769
g139
atp1770
a(S'morajo'
p1771
(dp1772
S'VERB'
p1773
F1.0
s(lp1774
g58
atp1775
a(S'\xc5\xa1port'
p1776
(dp1777
S'NOUN'
p1778
F1.0
s(lp1779
tp1780
a(S'upravljati'
p1781
(dp1782
S'VERB'
p1783
F1.0
s(lp1784
g83
atp1785
a(S'\xc5\xa1portni'
p1786
(dp1787
S'ADJ'
p1788
F1.0
s(lp1789
g123
atp1790
a(S'organi'
p1791
(dp1792
S'NOUN'
p1793
F1.0
s(lp1794
g116
atp1795
a(g37
(dp1796
g5
F1.0
s(lp1797
g37
atp1798
a(S'vendar'
p1799
(dp1800
S'ADV'
p1801
F0.009791
sS'CONJ'
p1802
F0.990209
s(lp1803
g129
atp1804
a(S'ker'
p1805
(dp1806
S'CONJ'
p1807
F1.0
s(lp1808
g161
atp1809
a(S'je'
p1810
(dp1811
S'PRON'
p1812
F0.003749
sS'VERB'
p1813
F0.996249
sg394
F1e-06
s(lp1814
g180
atp1815
a(S'\xc5\xa1port'
p1816
(dp1817
S'NOUN'
p1818
F1.0
s(lp1819
g46
atp1820
a(S'tudi'
p1821
(dp1822
S'PRT'
p1823
F1.0
s(lp1824
tp1825
a(S'gospodarska'
p1826
(dp1827
S'ADJ'
p1828
F1.0
s(lp1829
g215
atp1830
a(S'dejavnost'
p1831
(dp1832
S'NOUN'
p1833
F1.0
s(lp1834
g208
atp1835
a(g37
(dp1836
g5
F1.0
s(lp1837
g37
atp1838
a(S'nedvomno'
p1839
(dp1840
S'ADV'
p1841
F0.99962
sS'ADJ'
p1842
F0.00038
s(lp1843
g242
atp1844
a(S'spada'
p1845
(dp1846
S'VERB'
p1847
F1.0
s(lp1848
g236
atp1849
a(S'tudi'
p1850
(dp1851
S'PRT'
p1852
F1.0
s(lp1853
g187
atp1854
a(S'na'
p1855
(dp1856
S'ADP'
p1857
F1.0
s(lp1858
tp1859
a(S'podro\xc4\x8dje'
p1860
(dp1861
S'NOUN'
p1862
F1.0
s(lp1863
g258
atp1864
a(S'delovnega'
p1865
(dp1866
S'ADJ'
p1867
F1.0
s(lp1868
g277
atp1869
a(S'prava'
p1870
(dp1871
S'ADJ'
p1872
F0.000304
sS'NOUN'
p1873
F0.999696
s(lp1874
g266
atp1875
a(g37
(dp1876
g5
F1.0
s(lp1877
g37
atp1878
a(S'zakonodaje'
p1879
(dp1880
S'NOUN'
p1881
F1.0
s(lp1882
g294
atp1883
a(g1688
(dp1884
S'NOUN'
p1885
F6e-06
sS'ADP'
p1886
F0.999994
s(lp1887
g373
atp1888
a(S'konkurenci'
p1889
(dp1890
S'NOUN'
p1891
F1.0
s(lp1892
g286
atp1893
a(g37
(dp1894
g5
F1.0
s(lp1895
g37
atp1896
a(S'avtorskega'
p1897
(dp1898
S'ADJ'
p1899
F1.0
s(lp1900
g339
atp1901
a(S'prava'
p1902
(dp1903
S'ADJ'
p1904
F0.000219
sS'NOUN'
p1905
F0.999781
s(lp1906
g333
atp1907
a(g37
(dp1908
g5
F1.0
s(lp1909
g37
atp1910
a(S'medijskih'
p1911
(dp1912
S'ADJ'
p1913
F1.0
s(lp1914
g386
atp1915
a(S'pravic'
p1916
(dp1917
S'NOUN'
p1918
F1.0
s(lp1919
g380
atp1920
a(S'itd'
p1921
(dp1922
S'NOUN'
p1923
F1.0
s(lp1924
g396
atp1925
a(g5
(dp1926
g5
F1.0
s(lp1927
g5
atp1928
asS'es'
p1929
(lp1930
(S'se\xc3\xb1or'
p1931
(dp1932
S'NOUN'
p1933
F1.0
s(lp1934
g23
atp1935
a(S'presidente'
p1936
(dp1937
S'NOUN'
p1938
F1.0
s(lp1939
g17
atp1940
a(g37
(dp1941
g5
F1.0
s(lp1942
g37
atp1943
a(S'sin'
p1944
(dp1945
S'ADP'
p1946
F1.0
s(lp1947
tp1948
a(S'duda'
p1949
(dp1950
S'NOUN'
p1951
F1.0
s(lp1952
g67
atp1953
a(S'son'
p1954
(dp1955
S'VERB'
p1956
F0.999698
sS'NOUN'
p1957
F0.000302
s(lp1958
g77
atp1959
a(S'las'
p1960
(dp1961
S'PRON'
p1962
F0.0
sS'DET'
p1963
F1.0
s(lp1964
g116
atp1965
a(S'propias'
p1966
(dp1967
S'ADJ'
p1968
F1.0
s(lp1969
g104
atp1970
a(S'autoridades'
p1971
(dp1972
S'NOUN'
p1973
F1.0
s(lp1974
tp1975
a(S'deportivas'
p1976
(dp1977
S'ADJ'
p1978
F1.0
s(lp1979
g123
atp1980
a(S'las'
p1981
(dp1982
S'PRON'
p1983
F0.002269
sS'DET'
p1984
F0.997731
s(lp1985
g116
atp1986
a(S'que'
p1987
(dp1988
g394
F0.0
sS'CONJ'
p1989
F1.0
s(lp1990
tp1991
a(S'deber\xc3\xadan'
p1992
(dp1993
S'VERB'
p1994
F1.0
s(lp1995
g58
atp1996
a(S'gestionar'
p1997
(dp1998
S'VERB'
p1999
F1.0
s(lp2000
g83
atp2001
a(S'el'
p2002
(dp2003
S'PRON'
p2004
F6.9e-05
sS'DET'
p2005
F0.999931
s(lp2006
g98
atp2007
a(S'deporte'
p2008
(dp2009
S'VERB'
p2010
F0.001705
sS'NOUN'
p2011
F0.998295
s(lp2012
g46
atp2013
a(S'pero'
p2014
(dp2015
S'CONJ'
p2016
F0.183308
sS'NOUN'
p2017
F0.816692
s(lp2018
g129
atp2019
a(g37
(dp2020
g5
F1.0
s(lp2021
g37
atp2022
a(S'en'
p2023
(dp2024
g394
F0.0
sS'CONJ'
p2025
F1e-06
sS'ADP'
p2026
F0.999998
s(lp2027
g139
atp2028
a(S'la'
p2029
(dp2030
S'NOUN'
p2031
F2e-06
sS'PRON'
p2032
F0.0
sS'DET'
p2033
F0.999998
sg394
F0.0
s(lp2034
g147
atp2035
a(S'medida'
p2036
(dp2037
S'VERB'
p2038
F0.010375
sS'NOUN'
p2039
F0.989625
s(lp2040
tp2041
a(S'en'
p2042
(dp2043
g394
F0.0
sS'CONJ'
p2044
F0.00012
sS'ADP'
p2045
F0.99988
s(lp2046
g154
atp2047
a(S'que'
p2048
(dp2049
g394
F0.0
sS'CONJ'
p2050
F1.0
s(lp2051
g161
atp2052
a(S'es'
p2053
(dp2054
S'VERB'
p2055
F1.0
s(lp2056
g180
atp2057
a(S'tambi\xc3\xa9n'
p2058
(dp2059
S'ADV'
p2060
F1.0
s(lp2061
g187
atp2062
a(S'una'
p2063
(dp2064
S'DET'
p2065
F1.0
s(lp2066
g202
atp2067
a(S'actividad'
p2068
(dp2069
S'NOUN'
p2070
F1.0
s(lp2071
g208
atp2072
a(S'econ\xc3\xb3mica'
p2073
(dp2074
S'ADJ'
p2075
F1.0
s(lp2076
g215
atp2077
a(g37
(dp2078
g5
F1.0
s(lp2079
g37
atp2080
a(S'recae'
p2081
(dp2082
S'VERB'
p2083
F1.0
s(lp2084
g236
atp2085
a(S'inevitablemente'
p2086
(dp2087
S'ADV'
p2088
F1.0
s(lp2089
g242
atp2090
a(S'dentro'
p2091
(dp2092
S'ADP'
p2093
F1.0
s(lp2094
tp2095
a(S'del'
p2096
(dp2097
S'ADP'
p2098
F1.0
s(lp2099
tp2100
a(S'\xc3\xa1mbito'
p2101
(dp2102
S'NOUN'
p2103
F1.0
s(lp2104
g258
atp2105
a(S'de'
p2106
(dp2107
g394
F0.0
sS'CONJ'
p2108
F1.7e-05
sS'ADP'
p2109
F0.999983
s(lp2110
g424
atp2111
a(S'la'
p2112
(dp2113
g394
F0.0
sS'PRON'
p2114
F0.0
sS'DET'
p2115
F0.999999
sS'NOUN'
p2116
F0.0
s(lp2117
tp2118
a(S'legislaci\xc3\xb3n'
p2119
(dp2120
S'NOUN'
p2121
F1.0
s(lp2122
g266
atp2123
a(S'laboral'
p2124
(dp2125
S'ADJ'
p2126
F1.0
s(lp2127
tp2128
a(g37
(dp2129
g5
F1.0
s(lp2130
g37
atp2131
a(S'el'
p2132
(dp2133
S'PRON'
p2134
F5.4e-05
sS'DET'
p2135
F0.999946
s(lp2136
g277
atp2137
a(S'derecho'
p2138
(dp2139
S'ADV'
p2140
F0.000931
sS'ADJ'
p2141
F0.097013
sS'NOUN'
p2142
F0.902057
s(lp2143
g294
atp2144
a(S'de'
p2145
(dp2146
g394
F0.0
sS'CONJ'
p2147
F2.1e-05
sS'ADP'
p2148
F0.999979
s(lp2149
tp2150
a(S'la'
p2151
(dp2152
g394
F0.0
sS'PRON'
p2153
F0.0
sS'DET'
p2154
F0.999999
sS'NOUN'
p2155
F0.0
s(lp2156
tp2157
a(S'competencia'
p2158
(dp2159
S'NOUN'
p2160
F1.0
s(lp2161
g286
atp2162
a(g37
(dp2163
g5
F1.0
s(lp2164
g37
atp2165
a(S'los'
p2166
(dp2167
S'PRON'
p2168
F2.5e-05
sS'DET'
p2169
F0.999975
s(lp2170
g339
atp2171
a(S'derechos'
p2172
(dp2173
S'NOUN'
p2174
F1.0
s(lp2175
g339
atp2176
a(S'de'
p2177
(dp2178
g394
F2.9e-05
sS'CONJ'
p2179
F0.000449
sS'ADP'
p2180
F0.999522
s(lp2181
g373
atp2182
a(S'propiedad'
p2183
(dp2184
S'NOUN'
p2185
F1.0
s(lp2186
tp2187
a(S'intelectual'
p2188
(dp2189
S'ADJ'
p2190
F1.0
s(lp2191
g339
atp2192
a(g37
(dp2193
g5
F1.0
s(lp2194
g37
atp2195
a(S'los'
p2196
(dp2197
S'PRON'
p2198
F2.5e-05
sS'DET'
p2199
F0.999975
s(lp2200
tp2201
a(S'derechos'
p2202
(dp2203
S'NOUN'
p2204
F1.0
s(lp2205
g380
atp2206
a(S'audiovisuales'
p2207
(dp2208
S'ADJ'
p2209
F1.0
s(lp2210
g386
atp2211
a(g37
(dp2212
g5
F1.0
s(lp2213
g390
atp2214
a(S'etc.'
p2215
(dp2216
S'NOUN'
p2217
F1.0
s(lp2218
g396
atp2219
as.