(dp0
S'fr'
p1
(lp2
(S'il'
p3
(dp4
S'PRON'
p5
F1.0
s(lp6
S'this'
p7
atp8
a(S"s'"
p9
(dp10
S'ADJ'
p11
F0.000625
sS'VERB'
p12
F0.9973000000000002
sS'NOUN'
p13
F0.002077
s(lp14
tp15
a(S'agit'
p16
(dp17
S'VERB'
p18
F1.0
s(lp19
S'is'
p20
atp21
a(S'en'
p22
(dp23
S'PRON'
p24
F0.001468
sS'ADP'
p25
F0.998532
s(lp26
tp27
a(S'effet'
p28
(dp29
S'NOUN'
p30
F1.0
s(lp31
S'indeed'
p32
atp33
a(S"d'"
p34
(dp35
S'NOUN'
p36
F0.032441
sS'VERB'
p37
F0.694014
sS'ADJ'
p38
F0.273544
s(lp39
tp40
a(S'une'
p41
(dp42
S'NOUN'
p43
F1.5e-05
sS'NUM'
p44
F0.021976
sS'DET'
p45
F0.978009
s(lp46
S'a'
p47
atp48
a(S'trag\xc3\xa9die'
p49
(dp50
S'NOUN'
p51
F1.0
s(lp52
S'tragedy'
p53
atp54
a(S'humaine'
p55
(dp56
S'ADJ'
p57
F1.0
s(lp58
S'human'
p59
atp60
a(S','
p61
(dp62
S'.'
p63
F1.0
s(lp64
g61
atp65
a(S'qui'
p66
(dp67
S'PRON'
p68
F1.0
s(lp69
S'which'
p70
atp71
a(g47
(dp72
S'VERB'
p73
F1.0
s(lp74
S'has'
p75
atp76
a(S'des'
p77
(dp78
S'DET'
p79
F0.000244
sS'ADP'
p80
F0.999756
s(lp81
S'devastating'
p82
atp83
a(S'r\xc3\xa9percussions'
p84
(dp85
S'NOUN'
p86
F1.0
s(lp87
S'impact'
p88
atp89
a(S'd\xc3\xa9vastatrices'
p90
(dp91
S'NOUN'
p92
F0.017216
sS'ADJ'
p93
F0.982784
s(lp94
tp95
a(S'sur'
p96
(dp97
S'ADP'
p98
F1.0
s(lp99
S'on'
p100
atp101
a(S'les'
p102
(dp103
S'PRON'
p104
F5.6e-05
sS'DET'
p105
F0.999943
sS'ADP'
p106
F2e-06
s(lp107
g82
atp108
a(S'vies'
p109
(dp110
S'NOUN'
p111
F1.0
s(lp112
S'lives'
p113
atp114
a(g61
(dp115
g63
F1.0
s(lp116
g61
atp117
a(S'les'
p118
(dp119
S'PRON'
p120
F0.000333
sS'DET'
p121
F0.999645
sS'ADP'
p122
F2.2e-05
s(lp123
tp124
a(S'foyers'
p125
(dp126
S'NOUN'
p127
F1.0
s(lp128
S'homes'
p129
atp130
a(S'et'
p131
(dp132
S'CONJ'
p133
F1.0
s(lp134
S'and'
p135
atp136
a(S'les'
p137
(dp138
S'PRON'
p139
F0.005797
sS'DET'
p140
F0.99419
sS'ADP'
p141
F1.3e-05
s(lp142
tp143
a(S'entreprises'
p144
(dp145
S'VERB'
p146
F0.006926
sS'NOUN'
p147
F0.993074
s(lp148
S'businesses'
p149
atp150
a(S'de'
p151
(dp152
S'ADP'
p153
F1.0
s(lp154
tp155
a(S'ses'
p156
(dp157
S'PRON'
p158
F1.0
s(lp159
S"'s"
p160
atp161
a(S'victimes'
p162
(dp163
S'VERB'
p164
F0.0
sS'NOUN'
p165
F1.0
s(lp166
S'people'
p167
atp168
a(g63
(dp169
g63
F1.0
s(lp170
g63
atp171
asS'en'
p172
(lp173
(g7
(dp174
S'ADV'
p175
F0.000523
sS'NOUN'
p176
F0.000215
sS'DET'
p177
F0.999263
s(lp178
g7
atp179
a(g20
(dp180
S'VERB'
p181
F1.0
s(lp182
g20
atp183
a(g32
(dp184
S'ADV'
p185
F1.0
s(lp186
g32
atp187
a(g47
(dp188
S'NOUN'
p189
F0.0
sS'DET'
p190
F1.0
s(lp191
g47
atp192
a(g59
(dp193
S'NOUN'
p194
F0.022034
sS'ADJ'
p195
F0.977966
s(lp196
g59
atp197
a(g53
(dp198
S'NOUN'
p199
F1.0
s(lp200
g53
atp201
a(g61
(dp202
g63
F1.0
s(lp203
g61
atp204
a(g70
(dp205
S'DET'
p206
F1.0
s(lp207
g70
atp208
a(g75
(dp209
S'VERB'
p210
F1.0
s(lp211
g75
atp212
a(S'had'
p213
(dp214
S'VERB'
p215
F1.0
s(lp216
g213
atp217
a(g47
(dp218
S'NOUN'
p219
F0.0
sS'DET'
p220
F1.0
s(lp221
g47
atp222
a(g82
(dp223
S'VERB'
p224
F0.001519
sS'ADJ'
p225
F0.998481
s(lp226
g82
atp227
a(g88
(dp228
S'VERB'
p229
F1e-05
sS'NOUN'
p230
F0.99999
s(lp231
g88
atp232
a(g100
(dp233
S'ADV'
p234
F0.00015
sS'PRT'
p235
F0.000621
sS'ADJ'
p236
F8e-06
sS'NOUN'
p237
F1e-05
sS'ADP'
p238
F0.99921
s(lp239
g100
atp240
a(g167
(dp241
S'VERB'
p242
F0.0
sS'NOUN'
p243
F1.0
s(lp244
g167
atp245
a(g160
(dp246
S'PRT'
p247
F0.983156
sg63
F0.016844
s(lp248
g160
atp249
a(g113
(dp250
S'VERB'
p251
F0.046628
sS'NOUN'
p252
F0.953372
s(lp253
g113
atp254
a(g61
(dp255
g63
F1.0
s(lp256
g61
atp257
a(g129
(dp258
S'VERB'
p259
F0.001122
sS'NOUN'
p260
F0.998878
s(lp261
g129
atp262
a(g135
(dp263
S'CONJ'
p264
F0.999997
sS'NOUN'
p265
F3e-06
s(lp266
g135
atp267
a(g149
(dp268
S'NOUN'
p269
F1.0
s(lp270
g149
atp271
a(g63
(dp272
g63
F1.0
s(lp273
g63
atp274
asS'nl'
p275
(lp276
(S'dit'
p277
(dp278
S'PRON'
p279
F1.0
s(lp280
g7
atp281
a(S'is'
p282
(dp283
S'VERB'
p284
F1.0
s(lp285
g20
atp286
a(S'inderdaad'
p287
(dp288
S'ADV'
p289
F1.0
s(lp290
g32
atp291
a(S'een'
p292
(dp293
S'ADJ'
p294
F8e-06
sS'PRON'
p295
F0.000753
sS'NUM'
p296
F2e-06
sS'DET'
p297
F0.999236
s(lp298
g47
atp299
a(S'menselijke'
p300
(dp301
S'NOUN'
p302
F0.00073
sS'ADJ'
p303
F0.99927
s(lp304
g59
atp305
a(S'tragedie'
p306
(dp307
S'NOUN'
p308
F1.0
s(lp309
g53
atp310
a(g61
(dp311
g63
F1.0
s(lp312
g61
atp313
a(S'die'
p314
(dp315
S'PRON'
p316
F1.000001
s(lp317
g70
atp318
a(S'verwoestende'
p319
(dp320
S'NOUN'
p321
F5e-06
sS'VERB'
p322
F0.220505
sS'ADJ'
p323
F0.77949
s(lp324
g82
atp325
a(S'gevolgen'
p326
(dp327
S'NOUN'
p328
F1.0
s(lp329
g88
atp330
a(S'heeft'
p331
(dp332
S'VERB'
p333
F1.0
s(lp334
g75
atp335
a(S'voor'
p336
(dp337
S'ADV'
p338
F0.022359
sS'CONJ'
p339
F1.6e-05
sS'NOUN'
p340
F0.0
sS'ADP'
p341
F0.977625
s(lp342
g100
atp343
a(S'mensenlevens'
p344
(dp345
S'NOUN'
p346
F1.0
s(lp347
g113
atp348
a(g61
(dp349
g63
F1.0
s(lp350
g61
atp351
a(S'huizen'
p352
(dp353
S'VERB'
p354
F0.589901
sS'NOUN'
p355
F0.410099
s(lp356
g129
atp357
a(S'en'
p358
(dp359
S'CONJ'
p360
F1.0
s(lp361
g135
atp362
a(S'bedrijven'
p363
(dp364
S'VERB'
p365
F0.0214
sS'NOUN'
p366
F0.9786
s(lp367
g149
atp368
a(g63
(dp369
g63
F1.0
s(lp370
g63
atp371
asS'de'
p372
(lp373
(S'dies'
p374
(dp375
S'PRON'
p376
F1.0
s(lp377
g7
atp378
a(S'ist'
p379
(dp380
S'VERB'
p381
F1.0
s(lp382
g20
atp383
a(S'wahrhaft'
p384
(dp385
S'ADJ'
p386
F1.0
s(lp387
g32
atp388
a(S'eine'
p389
(dp390
S'PRON'
p391
F0.003692
sS'DET'
p392
F0.996072
s(lp393
g47
atp394
a(S'menschliche'
p395
(dp396
S'ADJ'
p397
F1.0
s(lp398
g59
atp399
a(S'trag\xc3\xb6die'
p400
(dp401
S'ADJ'
p402
F0.000163
sS'NOUN'
p403
F0.999754
s(lp404
g53
atp405
a(g61
(dp406
g63
F1.0
s(lp407
g61
atp408
a(S'die'
p409
(dp410
S'PRON'
p411
F0.115798
sS'DET'
p412
F0.879385
s(lp413
g70
atp414
a(S'schwere'
p415
(dp416
S'ADJ'
p417
F1.0
s(lp418
g82
atp419
a(S'folgen'
p420
(dp421
S'VERB'
p422
F1.0
s(lp423
g88
atp424
a(S'f\xc3\xbcr'
p425
(dp426
S'ADP'
p427
F1.0
s(lp428
g100
atp429
a(S'das'
p430
(dp431
S'PRON'
p432
F0.971626
sS'DET'
p433
F0.02801
s(lp434
g70
atp435
a(S'leben'
p436
(dp437
S'VERB'
p438
F1.0
s(lp439
g113
atp440
a(g61
(dp441
g63
F1.0
s(lp442
g61
atp443
a(S'die'
p444
(dp445
S'PRON'
p446
F0.252042
sS'DET'
p447
F0.744516
s(lp448
tp449
a(S'h\xc3\xa4user'
p450
(dp451
S'ADJ'
p452
F0.220471
sS'NOUN'
p453
F0.611219
s(lp454
tp455
a(S'und'
p456
(dp457
S'CONJ'
p458
F1.0
s(lp459
g135
atp460
a(S'die'
p461
(dp462
S'PRON'
p463
F0.984149
s(lp464
g70
atp465
a(S'unternehmen'
p466
(dp467
S'VERB'
p468
F1.0
s(lp469
g149
atp470
a(S'der'
p471
(dp472
S'PRON'
p473
F0.000825
sS'DET'
p474
F0.999169
s(lp475
g160
atp476
a(S'menschen'
p477
(dp478
S'ADJ'
p479
F1.0
s(lp480
g167
atp481
a(S'nach'
p482
(dp483
S'ADP'
p484
F0.993192
s(lp485
g213
atp486
a(S'sich'
p487
(dp488
S'PRON'
p489
F1.0
s(lp490
tp491
a(S'gezogen'
p492
(dp493
S'VERB'
p494
F0.982851
sS'ADJ'
p495
F0.017149
s(lp496
g129
atp497
a(S'hat'
p498
(dp499
S'VERB'
p500
F1.0
s(lp501
g75
atp502
a(g63
(dp503
g63
F1.0
s(lp504
g63
atp505
asS'it'
p506
(lp507
(S'si'
p508
(dp509
S'PRON'
p510
F0.999997
sS'NOUN'
p511
F2e-06
s(lp512
g7
atp513
a(S'tratta'
p514
(dp515
S'VERB'
p516
F0.999258
sS'NOUN'
p517
F0.000742
s(lp518
g20
atp519
a(S'senza'
p520
(dp521
S'CONJ'
p522
F0.016207
sS'ADP'
p523
F0.983793
s(lp524
tp525
a(S'dubbio'
p526
(dp527
S'ADJ'
p528
F0.193716
sS'NOUN'
p529
F0.806284
s(lp530
g32
atp531
a(S'di'
p532
(dp533
S'CONJ'
p534
F1.7e-05
sS'ADP'
p535
F0.999983
s(lp536
tp537
a(S'una'
p538
(dp539
S'PRON'
p540
F0.000159
sS'DEF'
p541
F0.999841
s(lp542
g47
atp543
a(S'tragedia'
p544
(dp545
S'NOUN'
p546
F1.0
s(lp547
g53
atp548
a(S'umana'
p549
(dp550
S'ADJ'
p551
F1.0
s(lp552
g59
atp553
a(S'che'
p554
(dp555
S'PRON'
p556
F0.974969
sS'CONJ'
p557
F0.024856
sS'ADJ'
p558
F0.000175
s(lp559
g70
atp560
a(S'ha'
p561
(dp562
S'VERB'
p563
F1.0
s(lp564
g75
atp565
a(S'avuto'
p566
(dp567
S'VERB'
p568
F1.0
s(lp569
g213
atp570
a(S'un'
p571
(dp572
S'PRON'
p573
F0.000195
sS'DEF'
p574
F0.999805
s(lp575
g47
atp576
a(S'impatto'
p577
(dp578
S'VERB'
p579
F3e-06
sS'NOUN'
p580
F0.999997
s(lp581
g88
atp582
a(S'devastante'
p583
(dp584
S'VERB'
p585
F0.316781
sS'ADJ'
p586
F0.683219
s(lp587
g82
atp588
a(S'sulla'
p589
(dp590
S'NOUN'
p591
F7.4e-05
sS'ADP'
p592
F0.999926
s(lp593
g100
atp594
a(S'vita'
p595
(dp596
S'NOUN'
p597
F1.0
s(lp598
g113
atp599
a(g61
(dp600
g63
F1.0
s(lp601
g61
atp602
a(S'sulle'
p603
(dp604
S'NOUN'
p605
F7.5e-05
sS'ADP'
p606
F0.999925
s(lp607
tp608
a(S'case'
p609
(dp610
S'NOUN'
p611
F1.0
s(lp612
g129
atp613
a(S'e'
p614
(dp615
S'CONJ'
p616
F1.0
s(lp617
g135
atp618
a(S'sulle'
p619
(dp620
S'NOUN'
p621
F2.6e-05
sS'ADP'
p622
F0.999974
s(lp623
tp624
a(S'attivit\xc3\xa0'
p625
(dp626
S'NOUN'
p627
F1.0
s(lp628
g149
atp629
a(S'delle'
p630
(dp631
S'DEF'
p632
F0.001048
sS'ADP'
p633
F0.998952
s(lp634
g160
atp635
a(S'persone'
p636
(dp637
S'NOUN'
p638
F1.0
s(lp639
g167
atp640
a(g63
(dp641
g63
F1.0
s(lp642
g63
atp643
asS'sk'
p644
(lp645
(S'je'
p646
(dp647
S'PRON'
p648
F7.7e-05
sS'VERB'
p649
F0.999845
sS'X'
p650
F7.8e-05
s(lp651
g20
atp652
a(S'to'
p653
(dp654
S'PRON'
p655
F0.986177
sS'CONJ'
p656
F0.002317
sg650
F0.011507
s(lp657
g7
atp658
a(S'skuto\xc4\x8dn\xc3\xa1'
p659
(dp660
S'ADJ'
p661
F1.0
s(lp662
g32
atp663
a(S'\xc4\xbeudsk\xc3\xa1'
p664
(dp665
S'ADJ'
p666
F1.0
s(lp667
g59
atp668
a(S'trag\xc3\xa9dia'
p669
(dp670
S'NOUN'
p671
F1.0
s(lp672
g53
atp673
a(g61
(dp674
g63
F1.0
s(lp675
g61
atp676
a(S'ktor\xc3\xa1'
p677
(dp678
S'PRON'
p679
F1.0
s(lp680
g70
atp681
a(S'mala'
p682
(dp683
S'ADV'
p684
F0.001319
sS'VERB'
p685
F0.998681
s(lp686
g213
atp687
a(S'ni\xc4\x8div\xc3\xbd'
p688
(dp689
S'ADJ'
p690
F1.0
s(lp691
g82
atp692
a(S'vplyv'
p693
(dp694
S'NOUN'
p695
F1.0
s(lp696
g88
atp697
a(S'na'
p698
(dp699
g650
F6.6e-05
sS'CONJ'
p700
F1.5e-05
sS'ADP'
p701
F0.999911
sS'PRT'
p702
F7e-06
s(lp703
g100
atp704
a(S'\xc4\xbeudsk\xc3\xa9'
p705
(dp706
S'ADJ'
p707
F1.0
s(lp708
g167
atp709
a(S'\xc5\xbeivoty'
p710
(dp711
S'NOUN'
p712
F1.0
s(lp713
g113
atp714
a(g61
(dp715
g63
F1.0
s(lp716
g61
atp717
a(S'domovy'
p718
(dp719
S'NOUN'
p720
F1.0
s(lp721
g129
atp722
a(g47
(dp723
g650
F0.000697
sS'CONJ'
p724
F0.998698
sS'NOUN'
p725
F5.7e-05
sS'ADP'
p726
F0.000484
sS'PRT'
p727
F6.4e-05
s(lp728
g135
atp729
a(S'podniky'
p730
(dp731
S'NOUN'
p732
F1.0
s(lp733
g149
atp734
a(g63
(dp735
g63
F1.0
s(lp736
g63
atp737
asS'pl'
p738
(lp739
(S'jest'
p740
(dp741
S'VERB'
p742
F1.0
s(lp743
g20
atp744
a(S'to'
p745
(dp746
S'NOUN'
p747
F0.182085
sS'ADP'
p748
F1e-06
sS'PRT'
p749
F0.260814
sg650
F0.0
sS'CONJ'
p750
F0.077601
sS'ADJ'
p751
F0.479499
s(lp752
g7
atp753
a(S'prawdziwa'
p754
(dp755
S'ADJ'
p756
F1.0
s(lp757
tp758
a(S'ludzka'
p759
(dp760
S'ADJ'
p761
F1.0
s(lp762
g59
atp763
a(S'tragedia'
p764
(dp765
S'NOUN'
p766
F1.0
s(lp767
g53
atp768
a(g61
(dp769
g650
F0.0
sg63
F1.0
s(lp770
g61
atp771
a(S'kt\xc3\xb3ra'
p772
(dp773
S'ADJ'
p774
F1.0
s(lp775
g70
atp776
a(S'wywar\xc5\x82a'
p777
(dp778
S'VERB'
p779
F1.0
s(lp780
g213
atp781
a(S'rujnuj\xc4\x85cy'
p782
(dp783
S'ADV'
p784
F0.000204
sS'NOUN'
p785
F0.0012399999999999998
sS'VERB'
p786
F0.009282999999999996
sS'ADJ'
p787
F0.9892719999999998
s(lp788
g82
atp789
a(S'wp\xc5\x82yw'
p790
(dp791
S'NOUN'
p792
F1.0
s(lp793
g88
atp794
a(S'na'
p795
(dp796
S'PRT'
p797
F1e-06
sS'VERB'
p798
F6e-06
sS'NOUN'
p799
F2e-06
sS'ADP'
p800
F0.9999899999999999
sg650
F1e-06
s(lp801
g100
atp802
a(S'ludzkie'
p803
(dp804
S'ADJ'
p805
F0.999999
s(lp806
tp807
a(S'\xc5\xbcycie'
p808
(dp809
S'VERB'
p810
F0.0023480000000000003
sS'NOUN'
p811
F0.997651
s(lp812
g113
atp813
a(g61
(dp814
g650
F0.0
sg63
F1.0
s(lp815
g61
atp816
a(S'domy'
p817
(dp818
S'NOUN'
p819
F1.0
s(lp820
tp821
a(S'i'
p822
(dp823
S'PRT'
p824
F0.002667
sS'CONJ'
p825
F0.99728
sS'PRON'
p826
F8.000000000000001e-06
sS'NOUN'
p827
F1.1000000000000001e-05
sg650
F3.4e-05
s(lp828
g135
atp829
a(S'miejsca'
p830
(dp831
S'NOUN'
p832
F1.0
s(lp833
g129
atp834
a(S'pracy'
p835
(dp836
S'NOUN'
p837
F1.0
s(lp838
g149
atp839
a(g63
(dp840
g63
F1.0
s(lp841
g63
atp842
asS'sl'
p843
(lp844
(S'to'
p845
(dp846
S'PRON'
p847
F0.999936
sg650
F6.3e-05
s(lp848
g7
atp849
a(S'je'
p850
(dp851
S'PRON'
p852
F0.000138
sS'VERB'
p853
F0.99986
sg650
F2e-06
s(lp854
g20
atp855
a(S'res'
p856
(dp857
S'ADV'
p858
F0.999939
sS'NOUN'
p859
F6.1e-05
s(lp860
g32
atp861
a(S'\xc4\x8dlove\xc5\xa1ka'
p862
(dp863
S'ADJ'
p864
F1.0
s(lp865
g59
atp866
a(S'tragedija'
p867
(dp868
S'NOUN'
p869
F1.0
s(lp870
g53
atp871
a(g61
(dp872
g63
F1.0
s(lp873
g61
atp874
a(S'ki'
p875
(dp876
S'CONJ'
p877
F1.0
s(lp878
g70
atp879
a(S'zelo'
p880
(dp881
S'ADV'
p882
F1.0
s(lp883
g47
atp884
a(S'uni\xc4\x8dujo\xc4\x8de'
p885
(dp886
S'ADJ'
p887
F1.0
s(lp888
g82
atp889
a(S'vpliva'
p890
(dp891
S'VERB'
p892
F0.7711
sS'NOUN'
p893
F0.2289
s(lp894
g88
atp895
a(S'na'
p896
(dp897
S'ADP'
p898
F1.0
s(lp899
g100
atp900
a(S'\xc5\xbeivljenja'
p901
(dp902
S'NOUN'
p903
F0.9999999999999999
s(lp904
g113
atp905
a(g61
(dp906
g63
F1.0
s(lp907
g61
atp908
a(S'domove'
p909
(dp910
S'NOUN'
p911
F1.0
s(lp912
g129
atp913
a(S'in'
p914
(dp915
S'ADV'
p916
F3.2e-05
sg650
F6e-06
sS'CONJ'
p917
F0.999959
sS'NOUN'
p918
F3e-06
s(lp919
g135
atp920
a(S'delo'
p921
(dp922
S'NOUN'
p923
F1.0
s(lp924
g149
atp925
a(S'ljudi'
p926
(dp927
g650
F0.000101
sS'NOUN'
p928
F0.9998990000000001
s(lp929
g167
atp930
a(g63
(dp931
g63
F1.0
s(lp932
g63
atp933
asS'es'
p934
(lp935
(S'estamos'
p936
(dp937
S'VERB'
p938
F1.0
s(lp939
g7
atp940
a(S'hablando'
p941
(dp942
S'VERB'
p943
F1.0
s(lp944
g20
atp945
a(S'de'
p946
(dp947
g650
F0.0
sS'CONJ'
p948
F1.6e-05
sS'ADP'
p949
F0.999984
s(lp950
g32
atp951
a(S'una'
p952
(dp953
S'DET'
p954
F1.0
s(lp955
g47
atp956
a(S'tragedia'
p957
(dp958
S'NOUN'
p959
F1.0
s(lp960
g53
atp961
a(S'humana'
p962
(dp963
S'ADJ'
p964
F1.0
s(lp965
g59
atp966
a(g61
(dp967
g63
F1.0
s(lp968
g61
atp969
a(S'que'
p970
(dp971
g650
F1.9e-05
sS'CONJ'
p972
F0.999981
s(lp973
g70
atp974
a(S'ha'
p975
(dp976
S'VERB'
p977
F1.0
s(lp978
g75
atp979
a(S'tenido'
p980
(dp981
S'VERB'
p982
F1.0
s(lp983
g213
atp984
a(S'un'
p985
(dp986
g650
F0.0
sS'DET'
p987
F1.0
s(lp988
g47
atp989
a(S'impacto'
p990
(dp991
S'NOUN'
p992
F1.0
s(lp993
g88
atp994
a(S'devastador'
p995
(dp996
S'ADJ'
p997
F1.0
s(lp998
g82
atp999
a(S'en'
p1000
(dp1001
g650
F0.0
sS'CONJ'
p1002
F1e-06
sS'ADP'
p1003
F0.999999
s(lp1004
g100
atp1005
a(S'la'
p1006
(dp1007
S'NOUN'
p1008
F0.0
sS'PRON'
p1009
F0.0
sS'DET'
p1010
F0.999999
sg650
F0.0
s(lp1011
tp1012
a(S'vida'
p1013
(dp1014
S'NOUN'
p1015
F1.0
s(lp1016
g113
atp1017
a(g61
(dp1018
g63
F1.0
s(lp1019
g61
atp1020
a(S'los'
p1021
(dp1022
S'PRON'
p1023
F2.5e-05
sS'DET'
p1024
F0.999975
s(lp1025
g160
atp1026
a(S'hogares'
p1027
(dp1028
S'NOUN'
p1029
F1.0
s(lp1030
g129
atp1031
a(S'y'
p1032
(dp1033
g650
F0.000396
sS'CONJ'
p1034
F0.999604
s(lp1035
g135
atp1036
a(S'los'
p1037
(dp1038
S'PRON'
p1039
F0.000425
sS'DET'
p1040
F0.999575
s(lp1041
tp1042
a(S'negocios'
p1043
(dp1044
S'NOUN'
p1045
F1.0
s(lp1046
g149
atp1047
a(S'de'
p1048
(dp1049
g650
F0.0
sS'CONJ'
p1050
F0.00017
sS'ADP'
p1051
F0.99983
s(lp1052
tp1053
a(S'muchas'
p1054
(dp1055
S'ADJ'
p1056
F1.0
s(lp1057
tp1058
a(S'personas'
p1059
(dp1060
S'NOUN'
p1061
F1.0
s(lp1062
g167
atp1063
a(g63
(dp1064
g63
F1.0
s(lp1065
g63
atp1066
as.