(dp0
S'fr'
p1
(lp2
(S'je'
p3
(dp4
S'PRON'
p5
F1.0
s(lp6
S'i'
p7
atp8
a(S'me'
p9
(dp10
S'PRON'
p11
F1.0
s(lp12
tp13
a(S'f\xc3\xa9licite'
p14
(dp15
S'VERB'
p16
F1.0
s(lp17
S'welcome'
p18
atp19
a(S'du'
p20
(dp21
S'ADP'
p22
F1.0
s(lp23
tp24
a(S'rapport'
p25
(dp26
S'NOUN'
p27
F1.0
s(lp28
S'report'
p29
atp30
a(S'de'
p31
(dp32
S'ADP'
p33
F1.0
s(lp34
S"'s"
p35
atp36
a(S'm.'
p37
(dp38
S'ADJ'
p39
F0.141506
sS'X'
p40
F0.278209
sS'VERB'
p41
F0.205658
sS'NOUN'
p42
F0.374627
s(lp43
S'mr'
p44
atp45
a(S'b\xc3\xb6ge'
p46
(dp47
S'NOUN'
p48
F0.482556
sS'VERB'
p49
F0.036201
sS'ADJ'
p50
F0.481244
s(lp51
S'b\xc3\xb6ge'
p52
atp53
a(S','
p54
(dp55
S'.'
p56
F1.0
s(lp57
tp58
a(S'car'
p59
(dp60
S'CONJ'
p61
F0.996098
sS'NOUN'
p62
F0.003902
s(lp63
S'because'
p64
atp65
a(S'il'
p66
(dp67
S'PRON'
p68
F1.0
s(lp69
tp70
a(S'ne'
p71
(dp72
S'ADV'
p73
F1.0
s(lp74
S'it'
p75
atp76
a(S'manque'
p77
(dp78
S'NOUN'
p79
F0.056838
sS'VERB'
p80
F0.768951
sS'ADJ'
p81
F0.174211
s(lp82
S'paving'
p83
atp84
a(S'pas'
p85
(dp86
S'ADV'
p87
F0.983368
sS'NOUN'
p88
F0.016632
s(lp89
S'also'
p90
atp91
a(S'de'
p92
(dp93
S'ADP'
p94
F1.0
s(lp95
tp96
a(S'pr\xc3\xa9ciser'
p97
(dp98
S'VERB'
p99
F1.0
s(lp100
g83
atp101
a(S'certains'
p102
(dp103
S'PRON'
p104
F0.99379
sS'ADJ'
p105
F0.00621
s(lp106
S'indicates'
p107
atp108
a(S'domaines'
p109
(dp110
S'NOUN'
p111
F1.0
s(lp112
S'areas'
p113
atp114
a(S'dans'
p115
(dp116
S'NOUN'
p117
F0.000872
sS'ADP'
p118
F0.999128
s(lp119
tp120
a(S'lesquels'
p121
(dp122
S'PRON'
p123
F1.0
s(lp124
S'where'
p125
atp126
a(S'nous'
p127
(dp128
S'PRON'
p129
F1.0
s(lp130
S'are'
p131
atp132
a(S'avons'
p133
(dp134
S'VERB'
p135
F1.0
s(lp136
tp137
a(S'besoin'
p138
(dp139
S'NOUN'
p140
F1.0
s(lp141
S'needed'
p142
atp143
a(S'de'
p144
(dp145
S'ADP'
p146
F1.0
s(lp147
tp148
a(S'changements'
p149
(dp150
S'NOUN'
p151
F1.0
s(lp152
S'changes'
p153
atp154
a(S'et'
p155
(dp156
S'CONJ'
p157
F1.0
s(lp158
S'and'
p159
atp160
a(S"d'"
p161
(dp162
S'NOUN'
p163
F0.050387
sS'VERB'
p164
F0.8915730000000001
sS'ADJ'
p165
F0.05804
s(lp166
tp167
a(S'am\xc3\xa9liorations'
p168
(dp169
S'NOUN'
p170
F1.0
s(lp171
S'improvements'
p172
atp173
a(g54
(dp174
g56
F1.0
s(lp175
g54
atp176
a(S'dans'
p177
(dp178
S'NOUN'
p179
F6.1e-05
sS'ADP'
p180
F0.999939
s(lp181
g83
atp182
a(S'le'
p183
(dp184
S'PRON'
p185
F0.000435
sS'DET'
p186
F0.999565
s(lp187
tp188
a(S'but'
p189
(dp190
S'VERB'
p191
F0.000482
sS'NOUN'
p192
F0.999518
s(lp193
S'thereby'
p194
atp195
a(g54
(dp196
g56
F1.0
s(lp197
tp198
a(S'in'
p199
(dp200
S'ADJ'
p201
F1.0
s(lp202
tp203
a(S'fine'
p204
(dp205
S'ADJ'
p206
F0.323076
sS'NOUN'
p207
F0.676924
s(lp208
g83
atp209
a(g54
(dp210
g56
F1.0
s(lp211
g54
atp212
a(S'de'
p213
(dp214
S'ADP'
p215
F1.0
s(lp216
S'for'
p217
atp218
a(S'renforcer'
p219
(dp220
S'VERB'
p221
F1.0
s(lp222
S'more'
p223
atp224
a(S"l'"
p225
(dp226
S'ADJ'
p227
F0.050629
sS'VERB'
p228
F0.794975
sS'NOUN'
p229
F0.154398
s(lp230
S'the'
p231
atp232
a(S'efficacit\xc3\xa9'
p233
(dp234
S'NOUN'
p235
F1.0
s(lp236
S'efficient'
p237
atp238
a(S'de'
p239
(dp240
S'ADP'
p241
F1.0
s(lp242
tp243
a(S"l'"
p244
(dp245
S'ADJ'
p246
F0.160704
sS'VERB'
p247
F0.06480800000000002
sS'NOUN'
p248
F0.774488
s(lp249
tp250
a(S'union'
p251
(dp252
S'NOUN'
p253
F1.0
s(lp254
S'union'
p255
atp256
a(S'europ\xc3\xa9enne'
p257
(dp258
S'NOUN'
p259
F0.012852
sS'ADJ'
p260
F0.987148
s(lp261
S'european'
p262
atp263
a(g56
(dp264
g56
F1.0
s(lp265
g56
atp266
asS'en'
p267
(lp268
(g7
(dp269
g40
F0.021892
sS'NOUN'
p270
F0.978108
s(lp271
g7
atp272
a(g18
(dp273
S'NOUN'
p274
F0.156237
sS'VERB'
p275
F0.11957899999999999
sS'ADJ'
p276
F0.724184
s(lp277
g18
atp278
a(g44
(dp279
S'ADJ'
p280
F0.004746
sS'NOUN'
p281
F0.9952529999999999
s(lp282
g44
atp283
a(g52
(dp284
S'ADJ'
p285
F9.5e-05
sS'VERB'
p286
F0.000137
sS'NOUN'
p287
F0.9997680000000001
s(lp288
g52
atp289
a(g35
(dp290
S'PRT'
p291
F0.984273
sg56
F0.015727
s(lp292
g35
atp293
a(g29
(dp294
S'VERB'
p295
F0.031382
sS'NOUN'
p296
F0.968618
s(lp297
g29
atp298
a(g64
(dp299
S'ADV'
p300
F0.002323
sS'ADP'
p301
F0.997677
s(lp302
g64
atp303
a(g75
(dp304
S'PRON'
p305
F1.0
s(lp306
g75
atp307
a(g90
(dp308
S'ADV'
p309
F1.0
s(lp310
g90
atp311
a(g107
(dp312
S'VERB'
p313
F1.0
s(lp314
g107
atp315
a(g113
(dp316
S'NOUN'
p317
F1.0
s(lp318
g113
atp319
a(g125
(dp320
S'ADV'
p321
F0.999597
sS'ADP'
p322
F0.000403
s(lp323
g125
atp324
a(g153
(dp325
S'VERB'
p326
F0.001525
sS'NOUN'
p327
F0.998475
s(lp328
g153
atp329
a(g159
(dp330
S'CONJ'
p331
F0.999997
sS'NOUN'
p332
F3e-06
s(lp333
g159
atp334
a(g172
(dp335
S'NOUN'
p336
F1.0
s(lp337
g172
atp338
a(g131
(dp339
S'VERB'
p340
F1.0
sS'NOUN'
p341
F0.0
s(lp342
g131
atp343
a(g142
(dp344
S'VERB'
p345
F0.988162
sS'ADJ'
p346
F0.011838
s(lp347
g142
atp348
a(g54
(dp349
g56
F1.0
s(lp350
g54
atp351
a(g194
(dp352
S'ADV'
p353
F1.0
s(lp354
g194
atp355
a(g83
(dp356
S'VERB'
p357
F0.997067
sS'NOUN'
p358
F0.002933
s(lp359
g83
atp360
a(g231
(dp361
S'NOUN'
p362
F1e-06
sS'DET'
p363
F0.999999
s(lp364
g231
atp365
a(S'way'
p366
(dp367
S'ADV'
p368
F0.000761
sS'NOUN'
p369
F0.999239
s(lp370
g366
atp371
a(g217
(dp372
S'ADP'
p373
F1.0
s(lp374
g217
atp375
a(S'a'
p376
(dp377
S'NOUN'
p378
F0.0
sS'DET'
p379
F1.0
s(lp380
g376
atp381
a(g223
(dp382
S'ADV'
p383
F0.739531
sS'ADJ'
p384
F0.260469
s(lp385
g223
atp386
a(g237
(dp387
S'ADJ'
p388
F1.0
s(lp389
g237
atp390
a(g262
(dp391
S'NOUN'
p392
F0.204368
sS'VERB'
p393
F1.7e-05
sS'ADJ'
p394
F0.795615
s(lp395
g262
atp396
a(g255
(dp397
S'NOUN'
p398
F1.0
s(lp399
g255
atp400
a(g56
(dp401
g56
F1.0
s(lp402
g56
atp403
asS'nl'
p404
(lp405
(S'ik'
p406
(dp407
S'PRON'
p408
F0.999981
sS'NOUN'
p409
F1.9e-05
s(lp410
g7
atp411
a(S'ben'
p412
(dp413
S'VERB'
p414
F1.0
s(lp415
g18
atp416
a(S'ingenomen'
p417
(dp418
S'VERB'
p419
F0.990816
sS'ADJ'
p420
F0.009184
s(lp421
tp422
a(S'met'
p423
(dp424
S'ADP'
p425
F1.0
s(lp426
g18
atp427
a(S'het'
p428
(dp429
S'PRON'
p430
F0.000927
sS'DET'
p431
F0.999073
s(lp432
tp433
a(S'verslag'
p434
(dp435
S'NOUN'
p436
F1.0
s(lp437
g29
atp438
a(S'van'
p439
(dp440
S'ADP'
p441
F1.0
s(lp442
g35
atp443
a(S'de'
p444
(dp445
S'DET'
p446
F1.0
s(lp447
tp448
a(S'heer'
p449
(dp450
S'NOUN'
p451
F1.0
s(lp452
g44
atp453
a(S'b\xc3\xb6ge'
p454
(dp455
S'ADJ'
p456
F0.151715
sS'NOUN'
p457
F0.8482850000000001
s(lp458
g52
atp459
a(g54
(dp460
g56
F1.0
s(lp461
tp462
a(S'omdat'
p463
(dp464
S'CONJ'
p465
F1.0
s(lp466
g64
atp467
a(S'het'
p468
(dp469
S'PRON'
p470
F0.469679
sS'DET'
p471
F0.530321
s(lp472
g75
atp473
a(S'onder'
p474
(dp475
S'ADV'
p476
F0.001995
sS'ADP'
p477
F0.998005
s(lp478
g90
atp479
a(S'meer'
p480
(dp481
S'ADV'
p482
F0.985535
sS'NUM'
p483
F0.013827
sS'NOUN'
p484
F0.000638
sS'VERB'
p485
F0.0
s(lp486
g223
atp487
a(S'aangeeft'
p488
(dp489
S'VERB'
p490
F1.0
s(lp491
g107
atp492
a(S'waar'
p493
(dp494
S'ADV'
p495
F0.999969
sS'ADJ'
p496
F0.0
sS'NOUN'
p497
F3e-05
s(lp498
g125
atp499
a(S'er'
p500
(dp501
S'ADV'
p502
F1.0
s(lp503
tp504
a(S'veranderingen'
p505
(dp506
S'NOUN'
p507
F1.0
s(lp508
g153
atp509
a(S'en'
p510
(dp511
S'CONJ'
p512
F1.0
s(lp513
g159
atp514
a(S'verbeteringen'
p515
(dp516
S'NOUN'
p517
F1.0
s(lp518
g172
atp519
a(S'nodig'
p520
(dp521
S'VERB'
p522
F0.006107
sS'ADJ'
p523
F0.993893
s(lp524
g142
atp525
a(S'zijn'
p526
(dp527
S'PRON'
p528
F7.4e-05
sS'VERB'
p529
F0.9974230000000001
sS'NOUN'
p530
F0.002503
s(lp531
g131
atp532
a(g54
(dp533
g56
F1.0
s(lp534
g54
atp535
a(S'daarmee'
p536
(dp537
S'ADV'
p538
F1.0
s(lp539
g194
atp540
a(S'de'
p541
(dp542
S'DET'
p543
F1.0
s(lp544
g231
atp545
a(S'weg'
p546
(dp547
S'ADV'
p548
F0.004034
sS'NOUN'
p549
F0.995966
s(lp550
tp551
a(S'bereidend'
p552
(dp553
S'VERB'
p554
F1.0
s(lp555
g83
atp556
a(S'voor'
p557
(dp558
S'ADV'
p559
F4e-05
sS'CONJ'
p560
F2.2e-05
sS'NOUN'
p561
F1e-06
sS'ADP'
p562
F0.999938
s(lp563
g217
atp564
a(S'een'
p565
(dp566
S'ADJ'
p567
F1e-06
sS'PRON'
p568
F0.00052
sS'NUM'
p569
F1e-06
sS'DET'
p570
F0.999479
s(lp571
g376
atp572
a(S'doeltreffendere'
p573
(dp574
S'NOUN'
p575
F0.006138
sS'ADJ'
p576
F0.993862
s(lp577
g237
atp578
a(S'europese'
p579
(dp580
S'NOUN'
p581
F1.0
s(lp582
g262
atp583
a(S'unie'
p584
(dp585
S'NOUN'
p586
F1.0
s(lp587
g255
atp588
a(g56
(dp589
g56
F1.0
s(lp590
g56
atp591
asS'de'
p592
(lp593
(S'ich'
p594
(dp595
S'PRON'
p596
F1.0
s(lp597
g7
atp598
a(S'begr\xc3\xbc\xc3\x9fe'
p599
(dp600
S'VERB'
p601
F1.0
s(lp602
g18
atp603
a(S'den'
p604
(dp605
S'PRON'
p606
F0.000661
sS'DET'
p607
F0.999339
s(lp608
tp609
a(S'bericht'
p610
(dp611
S'VERB'
p612
F0.000402
sS'NOUN'
p613
F0.999339
s(lp614
g29
atp615
a(S'von'
p616
(dp617
S'NOUN'
p618
F0.000554
sS'ADP'
p619
F0.999446
s(lp620
g35
atp621
a(S'herrn'
p622
(dp623
S'ADJ'
p624
F0.000336
sS'NOUN'
p625
F0.999497
s(lp626
g44
atp627
a(S'b\xc3\xb6ge'
p628
(dp629
S'VERB'
p630
F1.0
s(lp631
g52
atp632
a(g54
(dp633
g56
F1.0
s(lp634
tp635
a(S'da'
p636
(dp637
S'ADV'
p638
F0.001925
sS'CONJ'
p639
F0.998072
s(lp640
g64
atp641
a(S'er'
p642
(dp643
S'PRON'
p644
F1.0
s(lp645
g75
atp646
a(S'auch'
p647
(dp648
S'ADV'
p649
F1.0
s(lp650
g90
atp651
a(S'bereiche'
p652
(dp653
S'ADJ'
p654
F0.185424
sS'NOUN'
p655
F0.808958
s(lp656
g113
atp657
a(S'aufzeigt'
p658
(dp659
S'VERB'
p660
F1.0
s(lp661
g107
atp662
a(g54
(dp663
g56
F1.0
s(lp664
tp665
a(S'in'
p666
(dp667
S'ADP'
p668
F1.0
s(lp669
tp670
a(S'denen'
p671
(dp672
S'PRON'
p673
F1.0
s(lp674
g125
atp675
a(S'\xc3\x84nderungen'
p676
(dp677
S'NOUN'
p678
F1.0
s(lp679
g153
atp680
a(S'und'
p681
(dp682
S'CONJ'
p683
F1.0
s(lp684
g159
atp685
a(S'verbesserungen'
p686
(dp687
S'VERB'
p688
F0.026411
sS'NOUN'
p689
F0.963632
s(lp690
g172
atp691
a(S'n\xc3\xb6tig'
p692
(dp693
S'VERB'
p694
F2e-06
sS'ADJ'
p695
F0.999998
s(lp696
g142
atp697
a(S'sind'
p698
(dp699
S'VERB'
p700
F1.0
s(lp701
g131
atp702
a(g54
(dp703
g56
F1.0
s(lp704
g54
atp705
a(S'um'
p706
(dp707
S'CONJ'
p708
F0.983601
sS'ADP'
p709
F0.015906
s(lp710
tp711
a(S'damit'
p712
(dp713
S'ADV'
p714
F0.923948
sS'CONJ'
p715
F0.076052
s(lp716
g194
atp717
a(S'den'
p718
(dp719
S'PRON'
p720
F0.045407
sS'DET'
p721
F0.942837
s(lp722
g231
atp723
a(S'weg'
p724
(dp725
S'ADV'
p726
F0.986739
sS'PRT'
p727
F0.013261
s(lp728
g366
atp729
a(S'zu'
p730
(dp731
S'ADV'
p732
F0.002081
sS'ADP'
p733
F0.995484
s(lp734
g217
atp735
a(S'einer'
p736
(dp737
S'PRON'
p738
F0.002966
sS'DET'
p739
F0.996809
s(lp740
g376
atp741
a(S'effizienteren'
p742
(dp743
S'ADJ'
p744
F1.0
s(lp745
g237
atp746
a(S'europ\xc3\xa4ischen'
p747
(dp748
S'ADJ'
p749
F1.0
s(lp750
g262
atp751
a(S'union'
p752
(dp753
S'NOUN'
p754
F0.998012
s(lp755
g255
atp756
a(S'zu'
p757
(dp758
S'PRT'
p759
F0.999973
s(lp760
tp761
a(S'ebnen'
p762
(dp763
S'VERB'
p764
F1.0
s(lp765
g83
atp766
a(g56
(dp767
g56
F1.0
s(lp768
g56
atp769
asS'it'
p770
(lp771
(S'accolgo'
p772
(dp773
S'VERB'
p774
F1.0
s(lp775
g18
atp776
a(S'con'
p777
(dp778
S'ADP'
p779
F1.0
s(lp780
tp781
a(S'favore'
p782
(dp783
S'NOUN'
p784
F1.0
s(lp785
g18
atp786
a(S'la'
p787
(dp788
S'PRON'
p789
F0.000887
sS'DET'
p790
F0.999113
s(lp791
g35
atp792
a(S'relazione'
p793
(dp794
S'NOUN'
p795
F1.0
s(lp796
g29
atp797
a(S'b\xc3\xb6ge'
p798
(dp799
S'NOUN'
p800
F0.096937
sS'VERB'
p801
F0.0067800000000000004
sS'ADJ'
p802
F0.896283
s(lp803
g52
atp804
a(S'in'
p805
(dp806
S'ADP'
p807
F1.0
s(lp808
tp809
a(S'quanto'
p810
(dp811
S'ADV'
p812
F0.922175
sS'PRON'
p813
F0.066781
sS'ADJ'
p814
F0.004445
sS'NOUN'
p815
F0.006598
s(lp816
g64
atp817
a(S'essa'
p818
(dp819
S'PRON'
p820
F1.0
s(lp821
g75
atp822
a(S'individua'
p823
(dp824
S'VERB'
p825
F1.0
s(lp826
tp827
a(g7
(dp828
S'DET'
p829
F1.0
s(lp830
g107
atp831
a(S'settori'
p832
(dp833
S'NOUN'
p834
F1.0
s(lp835
g113
atp836
a(S'in'
p837
(dp838
S'ADP'
p839
F1.0
s(lp840
tp841
a(S'cui'
p842
(dp843
S'PRON'
p844
F1.0
s(lp845
g125
atp846
a(S'si'
p847
(dp848
S'PRON'
p849
F1.0
sS'NOUN'
p850
F0.0
s(lp851
g131
atp852
a(S'rendono'
p853
(dp854
S'VERB'
p855
F1.0
s(lp856
tp857
a(S'necessari'
p858
(dp859
S'ADJ'
p860
F1.0
s(lp861
g142
atp862
a(S'cambiamenti'
p863
(dp864
S'NOUN'
p865
F1.0
s(lp866
g153
atp867
a(S'e'
p868
(dp869
S'CONJ'
p870
F1.0
s(lp871
g159
atp872
a(S'migliorie'
p873
(dp874
S'NOUN'
p875
F1.0
s(lp876
g172
atp877
a(g54
(dp878
g56
F1.0
s(lp879
g54
atp880
a(S'aprendo'
p881
(dp882
S'VERB'
p883
F1.0
s(lp884
g83
atp885
a(S'cos\xc3\xac'
p886
(dp887
S'ADV'
p888
F0.940476
sS'CONJ'
p889
F0.059524
s(lp890
g194
atp891
a(S'la'
p892
(dp893
S'PRON'
p894
F0.000189
sS'DET'
p895
F0.999811
s(lp896
g231
atp897
a(S'strada'
p898
(dp899
S'NOUN'
p900
F1.0
s(lp901
g366
atp902
a(g376
(dp903
S'CONJ'
p904
F0.000976
sS'ADP'
p905
F0.999024
s(lp906
g217
atp907
a(S"un'"
p908
(dp909
S'PRON'
p910
F0.009699
sS'DEF'
p911
F0.990301
s(lp912
g376
atp913
a(S'unione'
p914
(dp915
S'NOUN'
p916
F1.0
s(lp917
g255
atp918
a(S'europea'
p919
(dp920
S'NOUN'
p921
F0.004916
sS'ADJ'
p922
F0.995084
s(lp923
g262
atp924
a(S'pi\xc3\xb9'
p925
(dp926
S'ADV'
p927
F0.996608
sS'NOUN'
p928
F0.000531
sS'ADJ'
p929
F0.002017
sS'ADP'
p930
F0.000844
s(lp931
g223
atp932
a(S'efficiente'
p933
(dp934
S'ADJ'
p935
F1.0
s(lp936
g237
atp937
a(g56
(dp938
g56
F1.0
s(lp939
g56
atp940
asS'sk'
p941
(lp942
(S'v\xc3\xadtam'
p943
(dp944
S'VERB'
p945
F1.0
s(lp946
g18
atp947
a(S'spr\xc3\xa1vu'
p948
(dp949
S'NOUN'
p950
F1.0
s(lp951
g29
atp952
a(S'p\xc3\xa1na'
p953
(dp954
g40
F0.000262
sS'NOUN'
p955
F0.999739
s(lp956
g44
atp957
a(S'b\xc3\xb6geho'
p958
(dp959
S'ADJ'
p960
F0.235407
sg40
F0.30945500000000004
sS'VERB'
p961
F0.046641
sS'NOUN'
p962
F0.408498
s(lp963
g52
atp964
a(g54
(dp965
g56
F1.0
s(lp966
tp967
a(S'preto\xc5\xbee'
p968
(dp969
S'CONJ'
p970
F1.0
s(lp971
g64
atp972
a(S'poukazuje'
p973
(dp974
S'VERB'
p975
F1.0
s(lp976
g107
atp977
a(S'tie\xc5\xbe'
p978
(dp979
g40
F1.0
s(lp980
g90
atp981
a(S'na'
p982
(dp983
g40
F8.999999999999999e-05
sS'CONJ'
p984
F3e-06
sS'ADP'
p985
F0.999904
sS'PRT'
p986
F3e-06
s(lp987
g217
atp988
a(S'oblasti'
p989
(dp990
S'NOUN'
p991
F1.0
s(lp992
g113
atp993
a(g54
(dp994
g56
F1.0
s(lp995
tp996
a(S'v'
p997
(dp998
g40
F0.00011200000000000001
sS'ADP'
p999
F0.999889
s(lp1000
tp1001
a(S'ktor\xc3\xbdch'
p1002
(dp1003
S'PRON'
p1004
F1.0
s(lp1005
g125
atp1006
a(S's\xc3\xba'
p1007
(dp1008
S'VERB'
p1009
F1.0
s(lp1010
g131
atp1011
a(S'potrebn\xc3\xa9'
p1012
(dp1013
S'ADJ'
p1014
F1.0
s(lp1015
g142
atp1016
a(S'zmeny'
p1017
(dp1018
S'NOUN'
p1019
F1.0
s(lp1020
g153
atp1021
a(g376
(dp1022
g40
F0.0007379999999999999
sS'CONJ'
p1023
F0.998651
sS'NOUN'
p1024
F6e-05
sS'ADP'
p1025
F0.000487
sS'PRT'
p1026
F6.3e-05
s(lp1027
g159
atp1028
a(S'vylep\xc5\xa1enia'
p1029
(dp1030
S'NOUN'
p1031
F1.0
s(lp1032
g172
atp1033
a(g54
(dp1034
g56
F1.0
s(lp1035
g54
atp1036
a(g376
(dp1037
g40
F0.000864
sS'CONJ'
p1038
F0.999105
sS'NOUN'
p1039
F6e-06
sS'ADP'
p1040
F0.0
sS'PRT'
p1041
F2.4e-05
s(lp1042
g194
atp1043
a(S'dl\xc3\xa1\xc5\xbedi'
p1044
(dp1045
S'VERB'
p1046
F1.0
s(lp1047
g83
atp1048
a(S'cestu'
p1049
(dp1050
g40
F0.002722
sS'NOUN'
p1051
F0.997278
s(lp1052
g366
atp1053
a(S'efekt\xc3\xadvnej\xc5\xa1ej'
p1054
(dp1055
S'ADJ'
p1056
F1.0
s(lp1057
g237
atp1058
a(S'eur\xc3\xb3pskej'
p1059
(dp1060
S'ADJ'
p1061
F1.0
s(lp1062
g262
atp1063
a(S'\xc3\xbanii'
p1064
(dp1065
S'NOUN'
p1066
F1.0
s(lp1067
g255
atp1068
a(g56
(dp1069
g56
F1.0
s(lp1070
g56
atp1071
asS'pl'
p1072
(lp1073
(S'z'
p1074
(dp1075
g40
F4e-06
sS'VERB'
p1076
F1e-06
sS'NOUN'
p1077
F1e-06
sS'ADP'
p1078
F0.9999939999999999
sS'PRT'
p1079
F0.0
s(lp1080
g18
atp1081
a(S'zadowoleniem'
p1082
(dp1083
S'NOUN'
p1084
F1.0
s(lp1085
tp1086
a(S'przyjmuj\xc4\x99'
p1087
(dp1088
S'VERB'
p1089
F1.0
s(lp1090
g18
atp1091
a(S'sprawozdanie'
p1092
(dp1093
S'NOUN'
p1094
F1.0
s(lp1095
g29
atp1096
a(S'pana'
p1097
(dp1098
S'NOUN'
p1099
F1.0
s(lp1100
g44
atp1101
a(S'b\xc3\xb6ge'
p1102
(dp1103
g40
F0.000284
sS'VERB'
p1104
F0.035199
sS'NOUN'
p1105
F0.964514
s(lp1106
g52
atp1107
a(g54
(dp1108
g40
F0.0
sg56
F1.0
s(lp1109
tp1110
a(S'gdy\xc5\xbc'
p1111
(dp1112
S'CONJ'
p1113
F1.0
s(lp1114
g64
atp1115
a(S'wskazuje'
p1116
(dp1117
S'VERB'
p1118
F1.0
s(lp1119
g107
atp1120
a(S'ono'
p1121
(dp1122
S'PRON'
p1123
F1.0
s(lp1124
g75
atp1125
a(S'tak\xc5\xbce'
p1126
(dp1127
S'PRT'
p1128
F0.897098
sS'CONJ'
p1129
F0.102902
s(lp1130
g90
atp1131
a(S'na'
p1132
(dp1133
S'PRT'
p1134
F4.9e-05
sS'VERB'
p1135
F0.000141
sS'NOUN'
p1136
F1e-06
sS'ADP'
p1137
F0.999764
sg40
F4.4e-05
s(lp1138
tp1139
a(S'obszary'
p1140
(dp1141
S'NOUN'
p1142
F1.0
s(lp1143
g113
atp1144
a(g54
(dp1145
g40
F0.0
sg56
F1.0
s(lp1146
tp1147
a(S'w'
p1148
(dp1149
S'ADJ'
p1150
F0.0
sg40
F3e-06
sS'NOUN'
p1151
F2e-06
sS'ADP'
p1152
F0.999995
s(lp1153
tp1154
a(S'kt\xc3\xb3rych'
p1155
(dp1156
S'ADJ'
p1157
F0.9999990000000001
s(lp1158
g125
atp1159
a(S'potrzebne'
p1160
(dp1161
S'ADJ'
p1162
F0.9999989999999999
s(lp1163
g142
atp1164
a(S's\xc4\x85'
p1165
(dp1166
S'VERB'
p1167
F1.0
s(lp1168
g131
atp1169
a(S'zmiany'
p1170
(dp1171
S'NOUN'
p1172
F1.0
s(lp1173
g153
atp1174
a(g7
(dp1175
S'PRT'
p1176
F0.001531
sS'CONJ'
p1177
F0.998432
sS'NOUN'
p1178
F3.2e-05
sg40
F0.0
sS'PRON'
p1179
F4.9999999999999996e-06
s(lp1180
g159
atp1181
a(S'usprawnienia'
p1182
(dp1183
S'VERB'
p1184
F1.0
s(lp1185
g172
atp1186
a(g54
(dp1187
g40
F0.0
sg56
F1.0
s(lp1188
g54
atp1189
a(S'wyznaczaj\xc4\x85c'
p1190
(dp1191
S'VERB'
p1192
F1.0
s(lp1193
tp1194
a(g1148
(dp1195
S'ADJ'
p1196
F0.0
sg40
F3e-06
sS'NOUN'
p1197
F2e-06
sS'ADP'
p1198
F0.9999959999999999
s(lp1199
tp1200
a(S'ten'
p1201
(dp1202
g40
F1.7e-05
sS'ADJ'
p1203
F0.999981
sS'PRT'
p1204
F2e-06
s(lp1205
g231
atp1206
a(S'spos\xc3\xb3b'
p1207
(dp1208
S'ADJ'
p1209
F0.000172
sS'NOUN'
p1210
F0.999828
s(lp1211
tp1212
a(S'drog\xc4\x99'
p1213
(dp1214
S'NOUN'
p1215
F1.0
s(lp1216
g366
atp1217
a(S'do'
p1218
(dp1219
g40
F1e-06
sS'NOUN'
p1220
F6.2e-05
sS'ADP'
p1221
F0.999937
s(lp1222
g217
atp1223
a(S'sprawniej'
p1224
(dp1225
S'ADV'
p1226
F1.0
s(lp1227
g237
atp1228
a(S'dzia\xc5\x82aj\xc4\x85cej'
p1229
(dp1230
S'VERB'
p1231
F1.0
s(lp1232
g83
atp1233
a(S'unii'
p1234
(dp1235
S'NOUN'
p1236
F1.0
s(lp1237
g255
atp1238
a(S'europejskiej'
p1239
(dp1240
S'ADJ'
p1241
F1.000001
s(lp1242
g262
atp1243
a(g56
(dp1244
g56
F1.0
s(lp1245
g56
atp1246
asS'sl'
p1247
(lp1248
(S'pozdravljam'
p1249
(dp1250
S'VERB'
p1251
F1.0
s(lp1252
g18
atp1253
a(S'poro\xc4\x8dilo'
p1254
(dp1255
S'NOUN'
p1256
F1.0
s(lp1257
g29
atp1258
a(S'gospoda'
p1259
(dp1260
S'NOUN'
p1261
F1.0
s(lp1262
g44
atp1263
a(S'b\xc3\xb6geja'
p1264
(dp1265
S'ADV'
p1266
F0.000317
sS'ADJ'
p1267
F0.0018859999999999999
sS'VERB'
p1268
F0.09580699999999999
sS'NOUN'
p1269
F0.901986
s(lp1270
g52
atp1271
a(g54
(dp1272
g56
F1.0
s(lp1273
tp1274
a(S'ker'
p1275
(dp1276
S'CONJ'
p1277
F1.0
s(lp1278
g64
atp1279
a(S'hkrati'
p1280
(dp1281
S'ADV'
p1282
F1.0
s(lp1283
g90
atp1284
a(S'navaja'
p1285
(dp1286
S'VERB'
p1287
F1.0
s(lp1288
g107
atp1289
a(S'podro\xc4\x8dja'
p1290
(dp1291
S'NOUN'
p1292
F1.0
s(lp1293
g113
atp1294
a(g54
(dp1295
g56
F1.0
s(lp1296
g54
atp1297
a(S'kjer'
p1298
(dp1299
S'CONJ'
p1300
F1.0
s(lp1301
g125
atp1302
a(S'so'
p1303
(dp1304
g40
F2e-06
sS'VERB'
p1305
F0.999998
s(lp1306
g131
atp1307
a(S'potrebne'
p1308
(dp1309
S'ADJ'
p1310
F0.9999999999999999
s(lp1311
g142
atp1312
a(S'spremembe'
p1313
(dp1314
S'NOUN'
p1315
F1.0
s(lp1316
g153
atp1317
a(S'in'
p1318
(dp1319
S'ADV'
p1320
F5.4e-05
sg40
F2.3e-05
sS'CONJ'
p1321
F0.999914
sS'NOUN'
p1322
F9e-06
s(lp1323
g159
atp1324
a(S'izbolj\xc5\xa1ave'
p1325
(dp1326
S'NOUN'
p1327
F1.0
s(lp1328
g172
atp1329
a(S'in'
p1330
(dp1331
S'ADV'
p1332
F0.000147
sg40
F1.2e-05
sS'CONJ'
p1333
F0.999836
sS'NOUN'
p1334
F5e-06
s(lp1335
tp1336
a(S'tako'
p1337
(dp1338
S'ADV'
p1339
F0.973914
sS'PRON'
p1340
F0.007361
sS'CONJ'
p1341
F0.018725
s(lp1342
g194
atp1343
a(S'utrjuje'
p1344
(dp1345
S'VERB'
p1346
F1.0
s(lp1347
g83
atp1348
a(S'pot'
p1349
(dp1350
S'NOUN'
p1351
F1.0000010000000001
s(lp1352
g366
atp1353
a(S'k'
p1354
(dp1355
S'NOUN'
p1356
F0.000816
sS'ADP'
p1357
F0.999184
s(lp1358
g217
atp1359
a(S'bolj'
p1360
(dp1361
S'ADV'
p1362
F1.0
s(lp1363
g223
atp1364
a(S'u\xc4\x8dinkoviti'
p1365
(dp1366
S'ADJ'
p1367
F1.0
s(lp1368
g237
atp1369
a(S'evropski'
p1370
(dp1371
S'ADJ'
p1372
F1.0
s(lp1373
g262
atp1374
a(S'uniji'
p1375
(dp1376
S'NOUN'
p1377
F1.0
s(lp1378
g255
atp1379
a(g56
(dp1380
g56
F1.0
s(lp1381
g56
atp1382
asS'es'
p1383
(lp1384
(S'doy'
p1385
(dp1386
S'VERB'
p1387
F1.0
s(lp1388
tp1389
a(S'mi'
p1390
(dp1391
S'PRON'
p1392
F1.0
s(lp1393
g7
atp1394
a(S'conformidad'
p1395
(dp1396
S'NOUN'
p1397
F1.0
s(lp1398
g18
atp1399
a(S'al'
p1400
(dp1401
S'CONJ'
p1402
F0.000854
sS'ADP'
p1403
F0.999146
s(lp1404
tp1405
a(S'informe'
p1406
(dp1407
S'VERB'
p1408
F2e-06
sS'NOUN'
p1409
F0.999998
s(lp1410
g29
atp1411
a(S'del'
p1412
(dp1413
S'ADP'
p1414
F1.0
s(lp1415
g35
atp1416
a(S'se\xc3\xb1or'
p1417
(dp1418
S'NOUN'
p1419
F1.0
s(lp1420
g44
atp1421
a(S'b\xc3\xb6ge'
p1422
(dp1423
S'VERB'
p1424
F0.394107
sS'NOUN'
p1425
F0.605893
s(lp1426
g52
atp1427
a(S'porque'
p1428
(dp1429
S'CONJ'
p1430
F1.0
s(lp1431
g64
atp1432
a(S'tambi\xc3\xa9n'
p1433
(dp1434
S'ADV'
p1435
F1.0
s(lp1436
g90
atp1437
a(S'se\xc3\xb1ala'
p1438
(dp1439
S'VERB'
p1440
F1.0
s(lp1441
g107
atp1442
a(S'\xc3\xa1reas'
p1443
(dp1444
S'NOUN'
p1445
F1.0
s(lp1446
g113
atp1447
a(S'en'
p1448
(dp1449
g40
F0.0
sS'CONJ'
p1450
F0.0
sS'ADP'
p1451
F1.0
s(lp1452
tp1453
a(S'las'
p1454
(dp1455
S'PRON'
p1456
F0.0
sS'DET'
p1457
F1.0
s(lp1458
tp1459
a(S'que'
p1460
(dp1461
g40
F2e-06
sS'CONJ'
p1462
F0.999998
s(lp1463
g125
atp1464
a(S'se'
p1465
(dp1466
S'PRON'
p1467
F1.0
sS'VERB'
p1468
F0.0
s(lp1469
g131
atp1470
a(S'necesitan'
p1471
(dp1472
S'VERB'
p1473
F1.0
s(lp1474
g142
atp1475
a(S'cambios'
p1476
(dp1477
S'NOUN'
p1478
F1.0
s(lp1479
g153
atp1480
a(S'y'
p1481
(dp1482
g40
F0.001008
sS'CONJ'
p1483
F0.998992
s(lp1484
g159
atp1485
a(S'mejoras'
p1486
(dp1487
S'NOUN'
p1488
F1.0
s(lp1489
g172
atp1490
a(g54
(dp1491
g56
F1.0
s(lp1492
g54
atp1493
a(S'preparando'
p1494
(dp1495
S'VERB'
p1496
F1.0
s(lp1497
g83
atp1498
a(S'el'
p1499
(dp1500
S'PRON'
p1501
F0.0
sS'DET'
p1502
F1.0
s(lp1503
g231
atp1504
a(S'terreno'
p1505
(dp1506
S'NOUN'
p1507
F1.0
s(lp1508
g366
atp1509
a(S'para'
p1510
(dp1511
S'CONJ'
p1512
F0.000662
sS'ADP'
p1513
F0.999338
s(lp1514
g217
atp1515
a(S'una'
p1516
(dp1517
S'DET'
p1518
F1.0
s(lp1519
g376
atp1520
a(S'uni\xc3\xb3n'
p1521
(dp1522
S'NOUN'
p1523
F1.0
s(lp1524
g255
atp1525
a(S'europea'
p1526
(dp1527
S'ADJ'
p1528
F1.0
s(lp1529
g262
atp1530
a(S'm\xc3\xa1s'
p1531
(dp1532
S'ADV'
p1533
F0.998684
sS'CONJ'
p1534
F0.001316
s(lp1535
g223
atp1536
a(S'eficiente'
p1537
(dp1538
S'ADJ'
p1539
F1.0
s(lp1540
g237
atp1541
a(g56
(dp1542
g56
F1.0
s(lp1543
g56
atp1544
as.