(dp0
S'fr'
p1
(lp2
(S'les'
p3
(dp4
S'PRON'
p5
F0.000397
sS'DET'
p6
F0.99958
sS'ADP'
p7
F2.3e-05
s(lp8
S'recent'
p9
atp10
a(S'semaines'
p11
(dp12
S'NOUN'
p13
F1.0
s(lp14
tp15
a(S'qui'
p16
(dp17
S'PRON'
p18
F1.0
s(lp19
S'which'
p20
atp21
a(S'viennent'
p22
(dp23
S'VERB'
p24
F1.0
s(lp25
S'weeks'
p26
atp27
a(S'de'
p28
(dp29
S'ADP'
p30
F1.0
s(lp31
S'in'
p32
atp33
a(S"s'"
p34
(dp35
S'ADJ'
p36
F0.160704
sS'VERB'
p37
F0.06480800000000002
sS'NOUN'
p38
F0.774488
s(lp39
S'it'
p40
atp41
a(S'\xc3\xa9couler'
p42
(dp43
S'VERB'
p44
F1.0
s(lp45
tp46
a(S'ont'
p47
(dp48
S'VERB'
p49
F1.0
s(lp50
S'became'
p51
atp52
a(S'montr\xc3\xa9'
p53
(dp54
S'VERB'
p55
F1.0
s(lp56
S'clear'
p57
atp58
a(S'toute'
p59
(dp60
S'ADV'
p61
F0.002082
sS'PRON'
p62
F0.997918
s(lp63
tp64
a(S'la'
p65
(dp66
S'PRON'
p67
F1.2e-05
sS'DET'
p68
F0.999987
sS'NOUN'
p69
F1e-06
s(lp70
S'how'
p71
atp72
a(S'difficult\xc3\xa9'
p73
(dp74
S'NOUN'
p75
F1.0
s(lp76
S'difficult'
p77
atp78
a(S'de'
p79
(dp80
S'ADP'
p81
F1.0
s(lp82
S'to'
p83
atp84
a(S'mettre'
p85
(dp86
S'VERB'
p87
F1.0
s(lp88
S'put'
p89
atp90
a(S'en'
p91
(dp92
S'PRON'
p93
F0.202903
sS'ADP'
p94
F0.797097
s(lp95
S'in'
p96
atp97
a(S'place'
p98
(dp99
S'VERB'
p100
F0.21476099999999998
sS'NOUN'
p101
F0.785238
s(lp102
S'place'
p103
atp104
a(S'un'
p105
(dp106
S'NOUN'
p107
F5.8e-05
sS'NUM'
p108
F0.037064
sS'DET'
p109
F0.962878
s(lp110
S'a'
p111
atp112
a(S'm\xc3\xa9canisme'
p113
(dp114
S'NOUN'
p115
F1.0
s(lp116
S'mechanism'
p117
atp118
a(S'pour'
p119
(dp120
S'CONJ'
p121
F0.632846
sS'ADP'
p122
F0.367154
s(lp123
S'with'
p124
atp125
a(S'nous'
p126
(dp127
S'PRON'
p128
F1.0
s(lp129
tp130
a(S'permettre'
p131
(dp132
S'VERB'
p133
F1.0
s(lp134
S'help'
p135
atp136
a(S'de'
p137
(dp138
S'ADP'
p139
F1.0
s(lp140
tp141
a(S'nous'
p142
(dp143
S'PRON'
p144
F1.0
s(lp145
S'we'
p146
atp147
a(S'entraider'
p148
(dp149
S'VERB'
p150
F1.0
s(lp151
S'each'
p152
atp153
a(S'.'
p154
(dp155
g154
F1.0
s(lp156
g154
atp157
asS'en'
p158
(lp159
(g40
(dp160
S'PRON'
p161
F1.0
s(lp162
g40
atp163
a(g51
(dp164
S'VERB'
p165
F1.0
s(lp166
g51
atp167
a(g57
(dp168
S'VERB'
p169
F0.047042
sS'ADJ'
p170
F0.952957
s(lp171
g57
atp172
a(g32
(dp173
S'ADV'
p174
F0.000964
sS'PRT'
p175
F0.001104
sS'ADP'
p176
F0.997932
s(lp177
g32
atp178
a(g9
(dp179
S'ADJ'
p180
F1.0
s(lp181
g9
atp182
a(g26
(dp183
S'NOUN'
p184
F1.0
s(lp185
g26
atp186
a(g71
(dp187
S'ADV'
p188
F0.999983
sS'NOUN'
p189
F1e-06
sS'ADJ'
p190
F1.6e-05
s(lp191
g71
atp192
a(g77
(dp193
S'ADJ'
p194
F1.0
s(lp195
g77
atp196
a(S'it'
p197
(dp198
S'PRON'
p199
F1.0
s(lp200
g197
atp201
a(S'is'
p202
(dp203
S'VERB'
p204
F1.0
s(lp205
g202
atp206
a(g83
(dp207
S'ADV'
p208
F1e-06
sS'PRT'
p209
F0.999999
sS'ADP'
p210
F0.0
s(lp211
g83
atp212
a(g89
(dp213
S'ADJ'
p214
F6e-06
sS'VERB'
p215
F0.9999560000000001
sS'NOUN'
p216
F3.8e-05
s(lp217
g89
atp218
a(g111
(dp219
S'NOUN'
p220
F0.0
sS'DET'
p221
F1.0
s(lp222
g111
atp223
a(g117
(dp224
S'NOUN'
p225
F1.0
s(lp226
g117
atp227
a(g96
(dp228
S'ADV'
p229
F0.000132
sS'PRT'
p230
F0.000196
sS'ADP'
p231
F0.999673
s(lp232
g96
atp233
a(g103
(dp234
S'VERB'
p235
F0.000542
sS'NOUN'
p236
F0.999458
s(lp237
g103
atp238
a(g124
(dp239
S'ADP'
p240
F1.0
s(lp241
g124
atp242
a(g20
(dp243
S'DET'
p244
F1.0
s(lp245
g20
atp246
a(g146
(dp247
S'PRON'
p248
F1.0
s(lp249
g146
atp250
a(S'can'
p251
(dp252
S'VERB'
p253
F1.0
sS'NOUN'
p254
F0.0
s(lp255
g251
atp256
a(g135
(dp257
S'VERB'
p258
F0.999999
sS'NOUN'
p259
F1e-06
s(lp260
g135
atp261
a(g152
(dp262
S'ADV'
p263
F1.5e-05
sS'DET'
p264
F0.999985
s(lp265
g152
atp266
a(S'other'
p267
(dp268
S'ADV'
p269
F2.1e-05
sS'NOUN'
p270
F0.000403
sS'ADJ'
p271
F0.999576
s(lp272
g267
atp273
a(S'out'
p274
(dp275
S'ADV'
p276
F0.04872
sS'NOUN'
p277
F0.103326
sS'ADP'
p278
F0.287918
sS'PRT'
p279
F0.539365
sS'VERB'
p280
F3.4e-05
sS'ADJ'
p281
F0.020636
s(lp282
g274
atp283
a(g154
(dp284
g154
F1.0
s(lp285
g154
atp286
asS'nl'
p287
(lp288
(S'in'
p289
(dp290
S'ADV'
p291
F0.009333
sS'VERB'
p292
F1e-06
sS'ADP'
p293
F0.990666
s(lp294
g32
atp295
a(S'de'
p296
(dp297
S'DET'
p298
F1.0
s(lp299
g40
atp300
a(S'afgelopen'
p301
(dp302
S'VERB'
p303
F0.221033
sS'ADJ'
p304
F0.778967
s(lp305
g9
atp306
a(S'weken'
p307
(dp308
S'VERB'
p309
F0.000119
sS'NOUN'
p310
F0.999881
s(lp311
g26
atp312
a(S'is'
p313
(dp314
S'VERB'
p315
F1.0
s(lp316
g51
atp317
a(S'duidelijk'
p318
(dp319
S'ADJ'
p320
F1.0
s(lp321
tp322
a(S'gebleken'
p323
(dp324
S'VERB'
p325
F1.0
s(lp326
g57
atp327
a(S'hoe'
p328
(dp329
S'ADV'
p330
F0.997759
sS'CONJ'
p331
F0.002241
s(lp332
g71
atp333
a(S'moeilijk'
p334
(dp335
S'ADJ'
p336
F1.0
s(lp337
g77
atp338
a(S'het'
p339
(dp340
S'PRON'
p341
F0.178449
sS'DET'
p342
F0.821551
s(lp343
g197
atp344
a(S'is'
p345
(dp346
S'VERB'
p347
F1.0
s(lp348
g202
atp349
a(S'om'
p350
(dp351
S'ADV'
p352
F0.003976
sS'CONJ'
p353
F0.822505
sS'ADP'
p354
F0.173519
s(lp355
tp356
a(S'een'
p357
(dp358
S'ADJ'
p359
F1e-06
sS'PRON'
p360
F1.6e-05
sS'NUM'
p361
F1e-06
sS'DET'
p362
F0.999982
s(lp363
g111
atp364
a(S'mechanisme'
p365
(dp366
S'NOUN'
p367
F1.0
s(lp368
g117
atp369
a(S'in'
p370
(dp371
S'ADV'
p372
F0.994946
sS'VERB'
p373
F0.000188
sS'ADP'
p374
F0.004866
s(lp375
g96
atp376
a(S'te'
p377
(dp378
S'PRT'
p379
F1.0
s(lp380
g83
atp381
a(S'stellen'
p382
(dp383
S'VERB'
p384
F0.999781
sS'NOUN'
p385
F0.000218
s(lp386
g89
atp387
a(S'waarmee'
p388
(dp389
S'ADV'
p390
F1.0
s(lp391
g20
atp392
a(S'we'
p393
(dp394
S'PRON'
p395
F1.0
s(lp396
g146
atp397
a(S'elkaar'
p398
(dp399
S'PRON'
p400
F1.0
s(lp401
g152
atp402
a(S'kunnen'
p403
(dp404
S'VERB'
p405
F0.999997
sS'NOUN'
p406
F3e-06
s(lp407
g251
atp408
a(S'helpen'
p409
(dp410
S'VERB'
p411
F0.995633
sS'NOUN'
p412
F0.004367
s(lp413
g135
atp414
a(g154
(dp415
g154
F1.0
s(lp416
g154
atp417
asS'de'
p418
(lp419
(S'in'
p420
(dp421
S'ADP'
p422
F1.0
s(lp423
g32
atp424
a(S'den'
p425
(dp426
S'PRON'
p427
F0.000112
sS'DET'
p428
F0.999888
s(lp429
tp430
a(S'letzten'
p431
(dp432
S'ADJ'
p433
F1.0
s(lp434
g9
atp435
a(S'wochen'
p436
(dp437
S'ADJ'
p438
F0.965876
s(lp439
g26
atp440
a(S'ist'
p441
(dp442
S'VERB'
p443
F1.0
s(lp444
tp445
a(S'deutlich'
p446
(dp447
S'ADJ'
p448
F1.0
s(lp449
g57
atp450
a(S'geworden'
p451
(dp452
S'VERB'
p453
F0.9998
s(lp454
g51
atp455
a(S','
p456
(dp457
g154
F1.0
s(lp458
tp459
a(S'wie'
p460
(dp461
S'CONJ'
p462
F0.9931800000000001
s(lp463
g71
atp464
a(S'schwierig'
p465
(dp466
S'ADJ'
p467
F1.0
s(lp468
g77
atp469
a(S'es'
p470
(dp471
S'PRON'
p472
F1.0
s(lp473
g197
atp474
a(S'ist'
p475
(dp476
S'VERB'
p477
F1.0
s(lp478
g202
atp479
a(g456
(dp480
g154
F1.0
s(lp481
g83
atp482
a(S'einen'
p483
(dp484
S'PRON'
p485
F0.006215
sS'DET'
p486
F0.989252
s(lp487
g111
atp488
a(S'mechanismus'
p489
(dp490
S'ADJ'
p491
F0.024004
sS'NOUN'
p492
F0.97003
s(lp493
tp494
a(S'zu'
p495
(dp496
S'PRT'
p497
F0.999971
s(lp498
tp499
a(S'etablieren'
p500
(dp501
S'VERB'
p502
F1.0
s(lp503
g117
atp504
a(g456
(dp505
g154
F1.0
s(lp506
g83
atp507
a(S'mit'
p508
(dp509
S'PRT'
p510
F0.002862
sS'ADP'
p511
F0.997138
s(lp512
g124
atp513
a(S'dem'
p514
(dp515
S'PRON'
p516
F0.24312
sS'DET'
p517
F0.737341
s(lp518
g20
atp519
a(S'wir'
p520
(dp521
S'PRON'
p522
F1.0
s(lp523
g146
atp524
a(S'einander'
p525
(dp526
S'PRON'
p527
F1.0
s(lp528
g152
atp529
a(S'helfen'
p530
(dp531
S'VERB'
p532
F1.0
s(lp533
g135
atp534
a(S'k\xc3\xb6nnen'
p535
(dp536
S'VERB'
p537
F0.99992
s(lp538
g251
atp539
a(g154
(dp540
g154
F1.0
s(lp541
g154
atp542
asS'it'
p543
(lp544
(S'nelle'
p545
(dp546
S'ADP'
p547
F1.0
s(lp548
g32
atp549
a(S'scorse'
p550
(dp551
S'NOUN'
p552
F0.370414
sS'VERB'
p553
F0.024507
sS'ADJ'
p554
F0.605079
s(lp555
g9
atp556
a(S'settimane'
p557
(dp558
S'NOUN'
p559
F1.0
s(lp560
g26
atp561
a(S'\xc3\xa8'
p562
(dp563
S'VERB'
p564
F1.0
s(lp565
tp566
a(S'diventato'
p567
(dp568
S'VERB'
p569
F1.0
s(lp570
g51
atp571
a(S'chiaro'
p572
(dp573
S'ADV'
p574
F0.694084
sS'NOUN'
p575
F0.033534
sS'ADJ'
p576
F0.272382
s(lp577
g57
atp578
a(S'quanto'
p579
(dp580
S'ADV'
p581
F0.733252
sS'PRON'
p582
F0.092404
sS'ADJ'
p583
F0.171634
sS'NOUN'
p584
F0.00271
s(lp585
g71
atp586
a(S'sia'
p587
(dp588
S'CONJ'
p589
F0.393943
sS'VERB'
p590
F0.6060570000000001
s(lp591
g202
atp592
a(S'difficile'
p593
(dp594
S'ADJ'
p595
F1.0
s(lp596
g77
atp597
a(S'introdurre'
p598
(dp599
S'VERB'
p600
F1.0
s(lp601
g89
atp602
a(S'un'
p603
(dp604
S'PRON'
p605
F0.001879
sS'DEF'
p606
F0.998121
s(lp607
g111
atp608
a(S'meccanismo'
p609
(dp610
S'NOUN'
p611
F1.0
s(lp612
g117
atp613
a(S'di'
p614
(dp615
S'CONJ'
p616
F1.5e-05
sS'ADP'
p617
F0.999985
s(lp618
g96
atp619
a(S'reciproco'
p620
(dp621
S'NOUN'
p622
F0.095289
sS'VERB'
p623
F2.4e-05
sS'ADJ'
p624
F0.904687
s(lp625
g152
atp626
a(S'aiuto'
p627
(dp628
S'VERB'
p629
F0.001578
sS'NOUN'
p630
F0.998422
s(lp631
g135
atp632
a(g154
(dp633
g154
F1.0
s(lp634
g154
atp635
asS'sk'
p636
(lp637
(S'v'
p638
(dp639
S'X'
p640
F0.000181
sS'ADP'
p641
F0.999819
s(lp642
g32
atp643
a(S'posledn\xc3\xbdch'
p644
(dp645
S'NUM'
p646
F0.323219
sS'ADJ'
p647
F0.676781
s(lp648
g9
atp649
a(S't\xc3\xbd\xc5\xbed\xc5\x88och'
p650
(dp651
S'NOUN'
p652
F1.0
s(lp653
g26
atp654
a(S'sa'
p655
(dp656
S'PRT'
p657
F0.999986
sS'ADP'
p658
F0.0
sg640
F1.4e-05
s(lp659
g51
atp660
a(S'uk\xc3\xa1zalo'
p661
(dp662
S'VERB'
p663
F1.0
s(lp664
g57
atp665
a(g456
(dp666
g154
F1.0
s(lp667
tp668
a(S'ak\xc3\xa9'
p669
(dp670
S'PRON'
p671
F1.0
s(lp672
g71
atp673
a(S'\xc5\xa5a\xc5\xbek\xc3\xa9'
p674
(dp675
S'ADJ'
p676
F1.0
s(lp677
g77
atp678
a(S'je'
p679
(dp680
g640
F7.099999999999999e-05
sS'VERB'
p681
F0.999916
sS'PRON'
p682
F1.2e-05
s(lp683
g202
atp684
a(S'zavies\xc5\xa5'
p685
(dp686
S'VERB'
p687
F1.0
s(lp688
g89
atp689
a(S'do'
p690
(dp691
S'PRON'
p692
F0.000126
sS'ADP'
p693
F0.999755
sg640
F0.00011800000000000001
s(lp694
g96
atp695
a(S'praxe'
p696
(dp697
S'NOUN'
p698
F1.0
s(lp699
g103
atp700
a(S'syst\xc3\xa9m'
p701
(dp702
S'NOUN'
p703
F1.0
s(lp704
g117
atp705
a(g456
(dp706
g154
F1.0
s(lp707
tp708
a(S'ktor\xc3\xbd'
p709
(dp710
S'PRON'
p711
F1.0
s(lp712
g20
atp713
a(S'by'
p714
(dp715
S'PRT'
p716
F0.999993
sg640
F7.000000000000001e-06
s(lp717
tp718
a(S'n\xc3\xa1m'
p719
(dp720
S'PRON'
p721
F0.999607
sg640
F0.000393
s(lp722
g146
atp723
a(S'umo\xc5\xbenil'
p724
(dp725
S'VERB'
p726
F1.0
s(lp727
g251
atp728
a(S'vypom\xc3\xb4c\xc5\xa5'
p729
(dp730
S'VERB'
p731
F1.0
s(lp732
g135
atp733
a(S'jeden'
p734
(dp735
S'NUM'
p736
F1.0
s(lp737
g152
atp738
a(S'druh\xc3\xa9mu'
p739
(dp740
S'NUM'
p741
F1.0
s(lp742
g267
atp743
a(g154
(dp744
g154
F1.0
s(lp745
g154
atp746
asS'pl'
p747
(lp748
(S'w'
p749
(dp750
S'ADJ'
p751
F0.0
sg640
F0.0
sS'NOUN'
p752
F0.0
sS'ADP'
p753
F1.0
s(lp754
g32
atp755
a(S'ubieg\xc5\x82ych'
p756
(dp757
S'ADJ'
p758
F1.0
s(lp759
g9
atp760
a(S'tygodniach'
p761
(dp762
S'NOUN'
p763
F1.0
s(lp764
g26
atp765
a(S'sta\xc5\x82o'
p766
(dp767
S'VERB'
p768
F1.0
s(lp769
tp770
a(S'si\xc4\x99'
p771
(dp772
S'PRT'
p773
F1.0
s(lp774
g51
atp775
a(S'jasne'
p776
(dp777
S'ADJ'
p778
F1.000001
s(lp779
g57
atp780
a(g456
(dp781
g640
F0.0
sg154
F1.0
s(lp782
tp783
a(S'jak'
p784
(dp785
S'ADV'
p786
F0.885242
sS'PRT'
p787
F0.00094
sS'CONJ'
p788
F0.089123
sS'ADP'
p789
F0.024574
sS'PRON'
p790
F0.000121
s(lp791
g71
atp792
a(S'trudno'
p793
(dp794
S'ADV'
p795
F1.0
s(lp796
g77
atp797
a(S'jest'
p798
(dp799
S'VERB'
p800
F1.0
s(lp801
g202
atp802
a(S'wdro\xc5\xbcy\xc4\x87'
p803
(dp804
S'VERB'
p805
F1.0
s(lp806
g89
atp807
a(S'mechanizm'
p808
(dp809
S'NOUN'
p810
F1.0
s(lp811
g117
atp812
a(g456
(dp813
g640
F0.0
sg154
F1.0
s(lp814
tp815
a(g749
(dp816
S'ADJ'
p817
F0.0
sg640
F1e-06
sS'NOUN'
p818
F0.0
sS'ADP'
p819
F1.0
s(lp820
g96
atp821
a(S'ramach'
p822
(dp823
S'NOUN'
p824
F1.0
s(lp825
g124
atp826
a(S'kt\xc3\xb3rego'
p827
(dp828
S'ADJ'
p829
F1.0
s(lp830
g20
atp831
a(S'mogliby\xc5\x9bmy'
p832
(dp833
S'ADV'
p834
F0.000412
sS'ADJ'
p835
F0.00059
sS'VERB'
p836
F0.9570529999999997
sS'NOUN'
p837
F0.04194600000000001
s(lp838
g251
atp839
a(S'sobie'
p840
(dp841
S'PRON'
p842
F1.0
s(lp843
tp844
a(S'wzajemnie'
p845
(dp846
S'ADV'
p847
F1.0
s(lp848
g152
atp849
a(S'pomaga\xc4\x87'
p850
(dp851
S'VERB'
p852
F1.0
s(lp853
g135
atp854
a(g154
(dp855
g154
F1.0
s(lp856
g154
atp857
asS'sl'
p858
(lp859
(g638
(dp860
S'ADP'
p861
F1.0
s(lp862
g32
atp863
a(S'zadnjih'
p864
(dp865
S'ADJ'
p866
F1.000001
s(lp867
g9
atp868
a(S'tednih'
p869
(dp870
S'NOUN'
p871
F1.0
s(lp872
g26
atp873
a(S'je'
p874
(dp875
S'PRON'
p876
F0.000487
sS'VERB'
p877
F0.999512
sg640
F1e-06
s(lp878
tp879
a(S'postalo'
p880
(dp881
S'VERB'
p882
F1.0
s(lp883
g51
atp884
a(S'jasno'
p885
(dp886
S'ADV'
p887
F0.167961
sS'ADJ'
p888
F0.832039
s(lp889
g57
atp890
a(g456
(dp891
g154
F1.0
s(lp892
tp893
a(S'kako'
p894
(dp895
S'ADV'
p896
F0.918883
sS'PRON'
p897
F0.08111700000000001
s(lp898
g71
atp899
a(S'te\xc5\xbeko'
p900
(dp901
S'ADV'
p902
F0.825435
sS'ADJ'
p903
F0.174565
s(lp904
g77
atp905
a(S'je'
p906
(dp907
S'PRON'
p908
F0.005575
sS'VERB'
p909
F0.9944219999999999
sg640
F4e-06
s(lp910
g202
atp911
a(S'vzpostaviti'
p912
(dp913
S'VERB'
p914
F1.0
s(lp915
g89
atp916
a(S'mehanizem'
p917
(dp918
S'NOUN'
p919
F1.0
s(lp920
g117
atp921
a(g456
(dp922
g154
F1.0
s(lp923
tp924
a(S's'
p925
(dp926
S'VERB'
p927
F6e-05
sS'NOUN'
p928
F1.6e-05
sS'ADP'
p929
F0.999924
s(lp930
g124
atp931
a(S'katerim'
p932
(dp933
S'PRON'
p934
F1.0
s(lp935
g20
atp936
a(S'bi'
p937
(dp938
g640
F2.9e-05
sS'VERB'
p939
F0.999971
s(lp940
tp941
a(S'si'
p942
(dp943
S'PRON'
p944
F0.99956
sS'VERB'
p945
F0.00044
s(lp946
g146
atp947
a(S'lahko'
p948
(dp949
S'ADV'
p950
F0.999884
sS'ADJ'
p951
F0.000115
s(lp952
g251
atp953
a(S'medsebojno'
p954
(dp955
S'ADV'
p956
F0.996097
sS'ADJ'
p957
F0.003903
s(lp958
g152
atp959
a(S'pomagali'
p960
(dp961
S'VERB'
p962
F0.999999
s(lp963
g135
atp964
a(g154
(dp965
g154
F1.0
s(lp966
g154
atp967
asS'es'
p968
(lp969
(S'en'
p970
(dp971
g640
F4e-06
sS'CONJ'
p972
F2e-06
sS'ADP'
p973
F0.999994
s(lp974
g32
atp975
a(S'las'
p976
(dp977
S'PRON'
p978
F0.0
sS'DET'
p979
F1.0
s(lp980
tp981
a(S'\xc3\xbaltimas'
p982
(dp983
S'ADJ'
p984
F1.0
s(lp985
g9
atp986
a(S'semanas'
p987
(dp988
S'NOUN'
p989
F1.0
s(lp990
g26
atp991
a(S'se'
p992
(dp993
S'PRON'
p994
F1.0
sS'VERB'
p995
F0.0
s(lp996
g202
atp997
a(S'ha'
p998
(dp999
S'VERB'
p1000
F1.0
s(lp1001
g89
atp1002
a(S'puesto'
p1003
(dp1004
S'CONJ'
p1005
F0.0
sS'VERB'
p1006
F0.999869
sS'NOUN'
p1007
F0.000131
s(lp1008
tp1009
a(S'de'
p1010
(dp1011
g640
F0.0
sS'CONJ'
p1012
F0.000603
sS'ADP'
p1013
F0.999397
s(lp1014
tp1015
a(S'relieve'
p1016
(dp1017
S'NOUN'
p1018
F1.0
s(lp1019
tp1020
a(S'lo'
p1021
(dp1022
S'PRON'
p1023
F0.004645
sS'DET'
p1024
F0.995355
s(lp1025
g71
atp1026
a(S'dif\xc3\xadcil'
p1027
(dp1028
S'ADJ'
p1029
F1.0
s(lp1030
g77
atp1031
a(S'que'
p1032
(dp1033
g640
F1e-06
sS'CONJ'
p1034
F0.999999
s(lp1035
tp1036
a(S'resulta'
p1037
(dp1038
S'VERB'
p1039
F1.0
s(lp1040
g197
atp1041
a(S'la'
p1042
(dp1043
g640
F0.0
sS'PRON'
p1044
F0.0
sS'DET'
p1045
F1.0
sS'NOUN'
p1046
F0.0
s(lp1047
tp1048
a(S'creaci\xc3\xb3n'
p1049
(dp1050
S'NOUN'
p1051
F1.0
s(lp1052
g89
atp1053
a(S'de'
p1054
(dp1055
g640
F0.0
sS'CONJ'
p1056
F1.7e-05
sS'ADP'
p1057
F0.999982
s(lp1058
g96
atp1059
a(S'un'
p1060
(dp1061
g640
F2e-06
sS'DET'
p1062
F0.999998
s(lp1063
g111
atp1064
a(S'mecanismo'
p1065
(dp1066
S'NOUN'
p1067
F1.0
s(lp1068
g117
atp1069
a(S'con'
p1070
(dp1071
S'ADP'
p1072
F1.0
s(lp1073
g124
atp1074
a(S'el'
p1075
(dp1076
S'PRON'
p1077
F0.000544
sS'DET'
p1078
F0.999456
s(lp1079
tp1080
a(S'que'
p1081
(dp1082
g640
F2e-06
sS'CONJ'
p1083
F0.999998
s(lp1084
g20
atp1085
a(S'podamos'
p1086
(dp1087
S'VERB'
p1088
F1.0
s(lp1089
g251
atp1090
a(S'ayudarnos'
p1091
(dp1092
S'VERB'
p1093
F1.0
s(lp1094
g135
atp1095
a(S'unos'
p1096
(dp1097
S'DET'
p1098
F1.0
s(lp1099
g152
atp1100
a(g111
(dp1101
g640
F0.000294
sS'CONJ'
p1102
F4.1e-05
sS'ADP'
p1103
F0.999666
s(lp1104
g274
atp1105
a(S'otros'
p1106
(dp1107
S'ADJ'
p1108
F1.0
s(lp1109
g267
atp1110
a(g154
(dp1111
g154
F1.0
s(lp1112
g154
atp1113
as.