(dp0
S'fr'
p1
(lp2
(S'je'
p3
(dp4
S'PRON'
p5
F1.0
s(lp6
S'i'
p7
atp8
a(S'pourrais'
p9
(dp10
S'VERB'
p11
F1.0
s(lp12
S'examples'
p13
atp14
a(S'citer'
p15
(dp16
S'VERB'
p17
F1.0
s(lp18
tp19
a(S'de'
p20
(dp21
S'ADP'
p22
F1.0
s(lp23
tp24
a(S'nombreux'
p25
(dp26
S'ADJ'
p27
F1.0
s(lp28
S'many'
p29
atp30
a(S'exemples'
p31
(dp32
S'NOUN'
p33
F1.0
s(lp34
g13
atp35
a(S'de'
p36
(dp37
S'ADP'
p38
F1.0
s(lp39
tp40
a(S'cas'
p41
(dp42
S'NOUN'
p43
F1.0
s(lp44
tp45
a(S'o\xc3\xb9'
p46
(dp47
S'ADV'
p48
F0.006179
sS'PRON'
p49
F0.993821
s(lp50
S'where'
p51
atp52
a(S"l'"
p53
(dp54
S'ADJ'
p55
F0.007778
sS'VERB'
p56
F0.9713830000000001
sS'NOUN'
p57
F0.020839
s(lp58
S'the'
p59
atp60
a(S'union'
p61
(dp62
S'NOUN'
p63
F1.0
s(lp64
S'union'
p65
atp66
a(S'europ\xc3\xa9enne'
p67
(dp68
S'NOUN'
p69
F0.015266
sS'ADJ'
p70
F0.984734
s(lp71
S'european'
p72
atp73
a(S'a'
p74
(dp75
S'VERB'
p76
F1.0
s(lp77
S'has'
p78
atp79
a(S'vraiment'
p80
(dp81
S'ADV'
p82
F1.0
s(lp83
S'frankly'
p84
atp85
a(S'fait'
p86
(dp87
S'ADJ'
p88
F5e-05
sS'VERB'
p89
F0.998419
sS'NOUN'
p90
F0.001532
s(lp91
S'brought'
p92
atp93
a(S'profiter'
p94
(dp95
S'VERB'
p96
F1.0
s(lp97
tp98
a(S'les'
p99
(dp100
S'PRON'
p101
F3.1e-05
sS'DET'
p102
F0.999948
sS'ADP'
p103
F2.1e-05
s(lp104
S'disabled'
p105
atp106
a(S'habitants'
p107
(dp108
S'NOUN'
p109
F1.0
s(lp110
tp111
a(S'de'
p112
(dp113
S'ADP'
p114
F1.0
s(lp115
S'in'
p116
atp117
a(S'ma'
p118
(dp119
S'PRON'
p120
F1.0
s(lp121
S'my'
p122
atp123
a(S'circonscription'
p124
(dp125
S'NOUN'
p126
F1.0
s(lp127
S'constituency'
p128
atp129
a(S"d'"
p130
(dp131
S'NOUN'
p132
F0.032441
sS'VERB'
p133
F0.694014
sS'ADJ'
p134
F0.273544
s(lp135
S'to'
p136
atp137
a(S'\xc3\xa9normes'
p138
(dp139
S'ADJ'
p140
F1.0
s(lp141
S'enormous'
p142
atp143
a(S'avantages'
p144
(dp145
S'VERB'
p146
F0.001468
sS'NOUN'
p147
F0.998532
s(lp148
S'benefits'
p149
atp150
a(S','
p151
(dp152
S'.'
p153
F1.0
s(lp154
S'-'
p155
atp156
a(S"qu'"
p157
(dp158
S'NOUN'
p159
F0.204295
sS'VERB'
p160
F0.394755
sS'ADJ'
p161
F0.400951
s(lp162
tp163
a(S'ils'
p164
(dp165
S'PRON'
p166
F1.0
s(lp167
S'people'
p168
atp169
a(S'soient'
p170
(dp171
S'VERB'
p172
F1.0
s(lp173
tp174
a(S'handicap\xc3\xa9s'
p175
(dp176
S'NOUN'
p177
F0.039363
sS'VERB'
p178
F0.817303
sS'ADJ'
p179
F0.143333
s(lp180
S'disabled'
p181
atp182
a(S'ou'
p183
(dp184
S'CONJ'
p185
F1.0
s(lp186
S'and'
p187
atp188
a(S'non'
p189
(dp190
S'ADV'
p191
F0.609896
sS'X'
p192
F0.390104
s(lp193
S'not'
p194
atp195
a(g153
(dp196
g153
F1.0
s(lp197
g153
atp198
asS'en'
p199
(lp200
(g7
(dp201
g192
F0.000851
sS'NOUN'
p202
F0.9991490000000001
s(lp203
g7
atp204
a(S'have'
p205
(dp206
S'VERB'
p207
F1.0
s(lp208
g205
atp209
a(g29
(dp210
S'ADV'
p211
F0.001287
sS'DET'
p212
F0.009237
sS'ADJ'
p213
F0.989475
s(lp214
g29
atp215
a(g13
(dp216
S'NOUN'
p217
F1.0
s(lp218
g13
atp219
a(g116
(dp220
S'ADV'
p221
F0.000161
sS'PRT'
p222
F0.000355
sS'ADP'
p223
F0.999484
s(lp224
g116
atp225
a(g122
(dp226
S'PRON'
p227
F1.0
s(lp228
g122
atp229
a(g128
(dp230
S'NOUN'
p231
F1.0
s(lp232
g128
atp233
a(g51
(dp234
S'ADV'
p235
F0.999011
sS'ADP'
p236
F0.000989
s(lp237
g51
atp238
a(g59
(dp239
S'NOUN'
p240
F1e-06
sS'DET'
p241
F0.999999
s(lp242
g59
atp243
a(g72
(dp244
S'NOUN'
p245
F0.10881199999999999
sS'VERB'
p246
F1.1e-05
sS'ADJ'
p247
F0.891178
s(lp248
g72
atp249
a(g65
(dp250
S'NOUN'
p251
F1.0
s(lp252
g65
atp253
a(S'quite'
p254
(dp255
S'ADV'
p256
F0.999903
sS'DET'
p257
F9.7e-05
s(lp258
g254
atp259
a(g84
(dp260
S'ADV'
p261
F1.0
s(lp262
g84
atp263
a(g78
(dp264
S'VERB'
p265
F1.0
s(lp266
g78
atp267
a(g92
(dp268
S'VERB'
p269
F1.0
s(lp270
g92
atp271
a(g142
(dp272
S'ADJ'
p273
F1.0
s(lp274
g142
atp275
a(g149
(dp276
S'VERB'
p277
F0.000333
sS'NOUN'
p278
F0.999667
s(lp279
g149
atp280
a(g136
(dp281
S'ADV'
p282
F0.0
sS'PRT'
p283
F0.999991
sS'ADP'
p284
F9e-06
s(lp285
g136
atp286
a(g168
(dp287
S'VERB'
p288
F0.001376
sS'NOUN'
p289
F0.998624
s(lp290
g168
atp291
a(g155
(dp292
g153
F1.0
s(lp293
g155
atp294
a(g181
(dp295
S'VERB'
p296
F0.29816899999999996
sS'ADJ'
p297
F0.701831
s(lp298
g181
atp299
a(g187
(dp300
S'CONJ'
p301
F0.999903
sS'NOUN'
p302
F9.7e-05
s(lp303
g187
atp304
a(g151
(dp305
g153
F1.0
s(lp306
g151
atp307
a(S'indeed'
p308
(dp309
S'ADV'
p310
F1.0
s(lp311
g308
atp312
a(g151
(dp313
g153
F1.0
s(lp314
g151
atp315
a(g194
(dp316
S'ADV'
p317
F1.0
s(lp318
g194
atp319
a(g105
(dp320
S'VERB'
p321
F0.471308
sS'ADJ'
p322
F0.528692
s(lp323
g105
atp324
a(g153
(dp325
g153
F1.0
s(lp326
g153
atp327
asS'nl'
p328
(lp329
(S'ik'
p330
(dp331
S'PRON'
p332
F0.999981
sS'NOUN'
p333
F1.9e-05
s(lp334
g7
atp335
a(S'ken'
p336
(dp337
S'VERB'
p338
F1.0
s(lp339
g205
atp340
a(S'veel'
p341
(dp342
S'ADV'
p343
F0.504154
sS'NUM'
p344
F0.495846
sS'VERB'
p345
F0.0
s(lp346
g29
atp347
a(S'voorbeelden'
p348
(dp349
S'NOUN'
p350
F1.0
s(lp351
g13
atp352
a(S'in'
p353
(dp354
S'ADV'
p355
F0.002965
sS'VERB'
p356
F1e-06
sS'ADP'
p357
F0.997034
s(lp358
g116
atp359
a(S'mijn'
p360
(dp361
S'PRON'
p362
F0.999996
sS'NOUN'
p363
F4e-06
s(lp364
g122
atp365
a(S'kiesdistrict'
p366
(dp367
S'NOUN'
p368
F1.0
s(lp369
g128
atp370
a(g151
(dp371
g153
F1.0
s(lp372
g151
atp373
a(S'waar'
p374
(dp375
S'ADV'
p376
F0.999998
sS'ADJ'
p377
F1e-06
sS'NOUN'
p378
F1e-06
s(lp379
g51
atp380
a(S'de'
p381
(dp382
S'DET'
p383
F1.0
s(lp384
g59
atp385
a(S'europese'
p386
(dp387
S'NOUN'
p388
F1.0
s(lp389
g72
atp390
a(S'unie'
p391
(dp392
S'NOUN'
p393
F1.0
s(lp394
g65
atp395
a(S'de'
p396
(dp397
S'DET'
p398
F1.0
s(lp399
tp400
a(S'mensen'
p401
(dp402
S'NOUN'
p403
F1.0
s(lp404
g168
atp405
a(g151
(dp406
g153
F1.0
s(lp407
g155
atp408
a(S'zowel'
p409
(dp410
S'ADV'
p411
F0.0012
sS'CONJ'
p412
F0.9988
s(lp413
tp414
a(S'gehandicapten'
p415
(dp416
S'NOUN'
p417
F1.0
s(lp418
g181
atp419
a(S'als'
p420
(dp421
S'CONJ'
p422
F1.0
s(lp423
g187
atp424
a(S'niet-gehandicapten'
p425
(dp426
S'NOUN'
p427
F1.0
s(lp428
g105
atp429
a(g151
(dp430
g153
F1.0
s(lp431
g151
atp432
a(S'eerlijk'
p433
(dp434
S'ADJ'
p435
F1.0
s(lp436
tp437
a(S'gezegd'
p438
(dp439
S'VERB'
p440
F0.601739
sS'ADJ'
p441
F0.398261
s(lp442
g84
atp443
a(S'enorme'
p444
(dp445
S'NOUN'
p446
F0.00035
sS'ADJ'
p447
F0.99965
s(lp448
g142
atp449
a(S'voordelen'
p450
(dp451
S'NOUN'
p452
F1.0
s(lp453
g149
atp454
a(S'heeft'
p455
(dp456
S'VERB'
p457
F1.0
s(lp458
g78
atp459
a(S'gebracht'
p460
(dp461
S'VERB'
p462
F1.0
s(lp463
g92
atp464
a(g153
(dp465
g153
F1.0
s(lp466
g153
atp467
asS'de'
p468
(lp469
(S'in'
p470
(dp471
S'ADP'
p472
F1.0
s(lp473
g116
atp474
a(S'meinem'
p475
(dp476
S'PRON'
p477
F1.0
s(lp478
g122
atp479
a(S'wahlkreis'
p480
(dp481
S'ADJ'
p482
F0.011778
sS'NOUN'
p483
F0.98068
s(lp484
g128
atp485
a(S'gibt'
p486
(dp487
S'VERB'
p488
F1.0
s(lp489
g205
atp490
a(S'es'
p491
(dp492
S'PRON'
p493
F1.0
s(lp494
g7
atp495
a(S'zahlreiche'
p496
(dp497
S'ADJ'
p498
F1.0
s(lp499
g29
atp500
a(S'beispiele'
p501
(dp502
S'VERB'
p503
F1.0
s(lp504
tp505
a(g151
(dp506
g153
F1.0
s(lp507
tp508
a(S'die'
p509
(dp510
S'PRON'
p511
F0.993367
s(lp512
tp513
a(S'belegen'
p514
(dp515
S'VERB'
p516
F1.0
s(lp517
g13
atp518
a(g151
(dp519
g153
F1.0
s(lp520
tp521
a(S'dass'
p522
(dp523
S'CONJ'
p524
F1.0
s(lp525
g51
atp526
a(S'die'
p527
(dp528
S'PRON'
p529
F0.003644
sS'DET'
p530
F0.996227
s(lp531
g59
atp532
a(S'europ\xc3\xa4ische'
p533
(dp534
S'ADJ'
p535
F1.0
s(lp536
g72
atp537
a(S'union'
p538
(dp539
S'ADJ'
p540
F0.002181
sS'NOUN'
p541
F0.995894
s(lp542
g65
atp543
a(S'den'
p544
(dp545
S'PRON'
p546
F0.000144
sS'DET'
p547
F0.999854
s(lp548
g136
atp549
a(S'menschen'
p550
(dp551
S'ADJ'
p552
F1.0
s(lp553
g168
atp554
a(S'offen'
p555
(dp556
S'PRT'
p557
F2.3e-05
sS'ADJ'
p558
F0.999977
s(lp559
tp560
a(S'gesagt'
p561
(dp562
S'VERB'
p563
F0.687234
sS'ADJ'
p564
F0.312766
s(lp565
g84
atp566
a(S'gewaltige'
p567
(dp568
S'ADJ'
p569
F1.0
s(lp570
g142
atp571
a(S'vorteile'
p572
(dp573
S'ADJ'
p574
F0.003189
sS'NOUN'
p575
F0.994467
s(lp576
tp577
a(S'gebracht'
p578
(dp579
S'VERB'
p580
F0.998817
sS'ADJ'
p581
F0.001183
s(lp582
g92
atp583
a(S'hat'
p584
(dp585
S'VERB'
p586
F1.0
s(lp587
g78
atp588
a(g155
(dp589
g153
F1.0
s(lp590
g155
atp591
a(S'sowohl'
p592
(dp593
S'CONJ'
p594
F1.0
s(lp595
g149
atp596
a(S'behinderten'
p597
(dp598
S'VERB'
p599
F0.986325
sS'ADJ'
p600
F0.013675
s(lp601
g181
atp602
a(S'als'
p603
(dp604
S'CONJ'
p605
F0.992245
s(lp606
g187
atp607
a(S'auch'
p608
(dp609
S'ADV'
p610
F1.0
s(lp611
g308
atp612
a(S'nicht'
p613
(dp614
S'PRT'
p615
F1.0
s(lp616
g194
atp617
a(S'behinderten'
p618
(dp619
S'VERB'
p620
F0.997278
sS'ADJ'
p621
F0.002722
s(lp622
g105
atp623
a(g153
(dp624
g153
F1.0
s(lp625
g153
atp626
asS'it'
p627
(lp628
(S'posso'
p629
(dp630
S'VERB'
p631
F1.0
s(lp632
g7
atp633
a(S'citare'
p634
(dp635
S'VERB'
p636
F1.0
s(lp637
tp638
a(S'molti'
p639
(dp640
S'PRON'
p641
F0.793646
sS'VERB'
p642
F0.002407
sS'ADJ'
p643
F0.203948
s(lp644
g29
atp645
a(S'esempi'
p646
(dp647
S'NOUN'
p648
F1.0
s(lp649
g13
atp650
a(S'nella'
p651
(dp652
S'ADP'
p653
F1.0
s(lp654
g116
atp655
a(S'mia'
p656
(dp657
S'PRON'
p658
F1.0
s(lp659
g122
atp660
a(S'circoscrizione'
p661
(dp662
S'NOUN'
p663
F1.0
s(lp664
g128
atp665
a(g151
(dp666
g153
F1.0
s(lp667
tp668
a(S'in'
p669
(dp670
S'ADP'
p671
F1.0
s(lp672
tp673
a(S'cui'
p674
(dp675
S'PRON'
p676
F1.0
s(lp677
g51
atp678
a(S"l'"
p679
(dp680
S'NOUN'
p681
F0.002282
sS'VERB'
p682
F0.9884880000000001
sS'ADJ'
p683
F0.00923
s(lp684
g59
atp685
a(S'unione'
p686
(dp687
S'NOUN'
p688
F1.0
s(lp689
g65
atp690
a(S'europea'
p691
(dp692
S'NOUN'
p693
F0.003863
sS'ADJ'
p694
F0.996137
s(lp695
g72
atp696
a(S'ha'
p697
(dp698
S'VERB'
p699
F1.0
s(lp700
g78
atp701
a(S'piuttosto'
p702
(dp703
S'ADV'
p704
F1.0
s(lp705
g254
atp706
a(S'chiaramente'
p707
(dp708
S'ADV'
p709
F1.0
s(lp710
g84
atp711
a(S'portato'
p712
(dp713
S'NOUN'
p714
F0.013093
sS'VERB'
p715
F0.929574
sS'ADJ'
p716
F0.057333
s(lp717
g92
atp718
a(S'enormi'
p719
(dp720
S'ADJ'
p721
F1.0
s(lp722
g142
atp723
a(S'vantaggi'
p724
(dp725
S'NOUN'
p726
F1.0
s(lp727
g149
atp728
a(S'alle'
p729
(dp730
S'ADP'
p731
F1.0
s(lp732
g136
atp733
a(S'persone'
p734
(dp735
S'NOUN'
p736
F1.0
s(lp737
g168
atp738
a(g151
(dp739
g153
F1.0
s(lp740
g155
atp741
a(S'disabili'
p742
(dp743
S'NOUN'
p744
F0.419932
sS'ADJ'
p745
F0.580068
s(lp746
g181
atp747
a(S'e'
p748
(dp749
S'CONJ'
p750
F1.0
s(lp751
g187
atp752
a(S'non'
p753
(dp754
S'ADV'
p755
F1.0
s(lp756
g194
atp757
a(g153
(dp758
g153
F1.0
s(lp759
g153
atp760
asS'sk'
p761
(lp762
(S'mohol'
p763
(dp764
S'VERB'
p765
F1.0
s(lp766
g13
atp767
a(S'by'
p768
(dp769
S'PRT'
p770
F0.999998
sg192
F1e-06
s(lp771
tp772
a(S'som'
p773
(dp774
S'VERB'
p775
F1.0
s(lp776
g7
atp777
a(S'uvies\xc5\xa5'
p778
(dp779
S'VERB'
p780
F1.0
s(lp781
tp782
a(S'mno\xc5\xbestvo'
p783
(dp784
S'NOUN'
p785
F1.0
s(lp786
g29
atp787
a(S'pr\xc3\xadkladov'
p788
(dp789
S'NOUN'
p790
F1.0
s(lp791
g13
atp792
a(S'zo'
p793
(dp794
g192
F0.004391
sS'ADP'
p795
F0.995609
s(lp796
g116
atp797
a(S'svojho'
p798
(dp799
S'PRON'
p800
F1.0
s(lp801
g122
atp802
a(S'volebn\xc3\xa9ho'
p803
(dp804
S'ADJ'
p805
F1.0
s(lp806
tp807
a(S'obvodu'
p808
(dp809
S'NOUN'
p810
F1.0
s(lp811
g128
atp812
a(g151
(dp813
g153
F1.0
s(lp814
tp815
a(S'kde'
p816
(dp817
S'PRON'
p818
F0.999617
sg192
F0.000383
s(lp819
g51
atp820
a(S'eur\xc3\xb3pska'
p821
(dp822
S'ADJ'
p823
F1.0
s(lp824
g72
atp825
a(S'\xc3\xbania'
p826
(dp827
S'NOUN'
p828
F1.0
s(lp829
g65
atp830
a(S've\xc4\xbemi'
p831
(dp832
S'ADV'
p833
F1.0
s(lp834
g254
atp835
a(S'\xc3\xbaprimne'
p836
(dp837
S'ADV'
p838
F1.0
s(lp839
g84
atp840
a(S'pre'
p841
(dp842
g192
F8.8e-05
sS'ADP'
p843
F0.999912
s(lp844
g136
atp845
a(S'\xc4\xbeud\xc3\xad'
p846
(dp847
S'NOUN'
p848
F1.0
s(lp849
g168
atp850
a(S'znamen\xc3\xa1'
p851
(dp852
g192
F0.000107
sS'VERB'
p853
F0.999893
s(lp854
g92
atp855
a(S've\xc4\xbek\xc3\xbd'
p856
(dp857
S'ADJ'
p858
F1.0
s(lp859
g142
atp860
a(S'pr\xc3\xadnos'
p861
(dp862
S'NOUN'
p863
F1.0
s(lp864
tp865
a(g151
(dp866
g153
F1.0
s(lp867
g155
atp868
a(S'pre'
p869
(dp870
g192
F6.2e-05
sS'ADP'
p871
F0.999938
s(lp872
g149
atp873
a(S'\xc4\xbeud\xc3\xad'
p874
(dp875
S'NOUN'
p876
F1.0
s(lp877
g181
atp878
a(S'zdravotne'
p879
(dp880
S'ADV'
p881
F1.0
s(lp882
tp883
a(S'postihnut\xc3\xbdch'
p884
(dp885
S'VERB'
p886
F0.980645
sS'NOUN'
p887
F0.019355
s(lp888
g181
atp889
a(g151
(dp890
g153
F1.0
s(lp891
g151
atp892
a(S'ako'
p893
(dp894
S'PRON'
p895
F0.0301
sS'CONJ'
p896
F0.969726
sg192
F0.000173
s(lp897
g187
atp898
a(S'aj'
p899
(dp900
g192
F0.788783
sS'CONJ'
p901
F0.211217
s(lp902
g308
atp903
a(S'zdrav\xc3\xbdch'
p904
(dp905
S'ADJ'
p906
F1.0
s(lp907
g105
atp908
a(g153
(dp909
g153
F1.0
s(lp910
g153
atp911
asS'pl'
p912
(lp913
(S'w'
p914
(dp915
S'ADJ'
p916
F0.0
sg192
F0.0
sS'NOUN'
p917
F0.0
sS'ADP'
p918
F0.9999990000000001
s(lp919
g116
atp920
a(S'moim'
p921
(dp922
S'ADJ'
p923
F0.999999
s(lp924
g122
atp925
a(S'okr\xc4\x99gu'
p926
(dp927
S'NOUN'
p928
F1.0
s(lp929
tp930
a(S'wyborczym'
p931
(dp932
S'ADJ'
p933
F0.9999999999999999
s(lp934
g128
atp935
a(S'znam'
p936
(dp937
S'VERB'
p938
F1.0
s(lp939
g7
atp940
a(S'wiele'
p941
(dp942
S'ADV'
p943
F0.003568
sS'NUM'
p944
F0.9964319999999999
s(lp945
g29
atp946
a(S'przypadk\xc3\xb3w'
p947
(dp948
S'NOUN'
p949
F1.0
s(lp950
g13
atp951
a(g151
(dp952
g192
F0.0
sg153
F1.0
s(lp953
tp954
a(g914
(dp955
S'ADJ'
p956
F0.0
sg192
F3e-06
sS'NOUN'
p957
F1e-06
sS'ADP'
p958
F0.999996
s(lp959
tp960
a(S'kt\xc3\xb3rych'
p961
(dp962
S'ADJ'
p963
F1.000001
s(lp964
g51
atp965
a(S'unia'
p966
(dp967
S'ADV'
p968
F0.001615
sS'ADJ'
p969
F0.02768
sS'VERB'
p970
F0.16621000000000002
sS'NOUN'
p971
F0.8044950000000001
s(lp972
g65
atp973
a(S'europejska'
p974
(dp975
S'ADJ'
p976
F1.0
s(lp977
g72
atp978
a(S'naprawd\xc4\x99'
p979
(dp980
S'ADV'
p981
F0.003731
sS'PRT'
p982
F0.996269
s(lp983
g84
atp984
a(S'przynios\xc5\x82a'
p985
(dp986
S'VERB'
p987
F1.0
s(lp988
g92
atp989
a(S'ludziom'
p990
(dp991
S'NOUN'
p992
F1.0
s(lp993
tp994
a(S'olbrzymie'
p995
(dp996
S'ADJ'
p997
F0.999998
s(lp998
g142
atp999
a(S'korzy\xc5\x9bci'
p1000
(dp1001
S'NOUN'
p1002
F0.9999990000000001
s(lp1003
g149
atp1004
a(g155
(dp1005
g192
F1e-06
sS'NUM'
p1006
F0.0
sS'NOUN'
p1007
F3e-06
sg153
F0.999996
s(lp1008
g155
atp1009
a(S'ludziom'
p1010
(dp1011
S'NOUN'
p1012
F1.0
s(lp1013
g168
atp1014
a(S'niepe\xc5\x82nosprawnym'
p1015
(dp1016
S'ADJ'
p1017
F1.0
s(lp1018
g181
atp1019
a(g7
(dp1020
S'PRT'
p1021
F0.007717
sS'CONJ'
p1022
F0.991911
sS'PRON'
p1023
F5.5e-05
sS'NOUN'
p1024
F0.000248
sg192
F6.9e-05
s(lp1025
g187
atp1026
a(g151
(dp1027
g192
F4e-06
sg153
F0.999996
s(lp1028
g151
atp1029
a(S'oczywi\xc5\x9bcie'
p1030
(dp1031
S'PRT'
p1032
F1.0
s(lp1033
g308
atp1034
a(g151
(dp1035
g192
F0.0
sg153
F1.0
s(lp1036
g151
atp1037
a(S'pozosta\xc5\x82ym'
p1038
(dp1039
S'ADJ'
p1040
F1.0
s(lp1041
g105
atp1042
a(g153
(dp1043
g153
F1.0
s(lp1044
g153
atp1045
asS'sl'
p1046
(lp1047
(S'v'
p1048
(dp1049
S'ADP'
p1050
F1.0
s(lp1051
g116
atp1052
a(S'mojem'
p1053
(dp1054
S'PRON'
p1055
F1.0
s(lp1056
g122
atp1057
a(S'volilnem'
p1058
(dp1059
S'ADJ'
p1060
F1.0
s(lp1061
tp1062
a(S'okro\xc5\xbeju'
p1063
(dp1064
S'NOUN'
p1065
F1.0
s(lp1066
g128
atp1067
a(S'je'
p1068
(dp1069
S'PRON'
p1070
F0.000161
sS'VERB'
p1071
F0.9998360000000001
sg192
F3e-06
s(lp1072
g205
atp1073
a(S'veliko'
p1074
(dp1075
S'ADV'
p1076
F0.990131
sS'ADJ'
p1077
F0.009868
s(lp1078
g29
atp1079
a(S'primerov'
p1080
(dp1081
S'NOUN'
p1082
F1.0
s(lp1083
g13
atp1084
a(g151
(dp1085
g153
F1.0
s(lp1086
tp1087
a(S'ko'
p1088
(dp1089
S'CONJ'
p1090
F1.0
s(lp1091
g51
atp1092
a(S'je'
p1093
(dp1094
S'PRON'
p1095
F0.000964
sS'VERB'
p1096
F0.9990349999999999
sg192
F0.0
s(lp1097
g59
atp1098
a(S'evropska'
p1099
(dp1100
S'ADJ'
p1101
F0.9999990000000001
s(lp1102
g72
atp1103
a(S'unija'
p1104
(dp1105
S'NOUN'
p1106
F1.0
s(lp1107
g65
atp1108
a(S'resni\xc4\x8dno'
p1109
(dp1110
S'ADV'
p1111
F0.99681
sS'ADJ'
p1112
F0.00319
s(lp1113
g84
atp1114
a(S'zelo'
p1115
(dp1116
S'ADV'
p1117
F1.0
s(lp1118
g142
atp1119
a(S'koristila'
p1120
(dp1121
S'VERB'
p1122
F1.0
s(lp1123
g149
atp1124
a(S'ljudem'
p1125
(dp1126
S'NOUN'
p1127
F1.0
s(lp1128
g168
atp1129
a(g151
(dp1130
g153
F1.0
s(lp1131
g155
atp1132
a(S'tako'
p1133
(dp1134
S'ADV'
p1135
F0.49746
sS'PRON'
p1136
F0.006448
sS'CONJ'
p1137
F0.496091
s(lp1138
tp1139
a(S'invalidom'
p1140
(dp1141
S'NOUN'
p1142
F1.0
s(lp1143
tp1144
a(S'kot'
p1145
(dp1146
S'CONJ'
p1147
F0.999944
sS'NOUN'
p1148
F5.6e-05
s(lp1149
g187
atp1150
a(S'tistim'
p1151
(dp1152
S'PRON'
p1153
F0.9999999999999999
s(lp1154
g181
atp1155
a(g151
(dp1156
g153
F1.0
s(lp1157
g151
atp1158
a(S'ki'
p1159
(dp1160
S'CONJ'
p1161
F1.0
s(lp1162
tp1163
a(S'niso'
p1164
(dp1165
S'VERB'
p1166
F1.0
s(lp1167
g194
atp1168
a(S'invalidi'
p1169
(dp1170
S'ADV'
p1171
F0.117795
sS'ADJ'
p1172
F0.024355
sS'VERB'
p1173
F0.002912
sS'NOUN'
p1174
F0.8549349999999999
s(lp1175
g105
atp1176
a(g153
(dp1177
g153
F1.0
s(lp1178
g153
atp1179
asS'es'
p1180
(lp1181
(S'francamente'
p1182
(dp1183
S'ADV'
p1184
F1.0
s(lp1185
g84
atp1186
a(S'tengo'
p1187
(dp1188
S'VERB'
p1189
F1.0
s(lp1190
g7
atp1191
a(S'muchos'
p1192
(dp1193
S'ADJ'
p1194
F1.0
s(lp1195
g29
atp1196
a(S'ejemplos'
p1197
(dp1198
S'NOUN'
p1199
F1.0
s(lp1200
g13
atp1201
a(S'en'
p1202
(dp1203
g192
F0.0
sS'CONJ'
p1204
F6e-06
sS'ADP'
p1205
F0.999994
s(lp1206
g116
atp1207
a(S'mi'
p1208
(dp1209
S'PRON'
p1210
F1.0
s(lp1211
g122
atp1212
a(S'circunscripci\xc3\xb3n'
p1213
(dp1214
S'NOUN'
p1215
F1.0
s(lp1216
g128
atp1217
a(S'en'
p1218
(dp1219
g192
F0.0
sS'CONJ'
p1220
F0.0
sS'ADP'
p1221
F1.0
s(lp1222
g51
atp1223
a(S'los'
p1224
(dp1225
S'PRON'
p1226
F0.0
sS'DET'
p1227
F1.0
s(lp1228
tp1229
a(S'que'
p1230
(dp1231
g192
F0.0
sS'CONJ'
p1232
F1.0
s(lp1233
g51
atp1234
a(S'la'
p1235
(dp1236
S'PRON'
p1237
F0.00027
sS'DET'
p1238
F0.99973
sg192
F0.0
sS'NOUN'
p1239
F0.0
s(lp1240
g59
atp1241
a(S'uni\xc3\xb3n'
p1242
(dp1243
S'NOUN'
p1244
F1.0
s(lp1245
g65
atp1246
a(S'europea'
p1247
(dp1248
S'ADJ'
p1249
F1.0
s(lp1250
g72
atp1251
a(S'ha'
p1252
(dp1253
S'VERB'
p1254
F1.0
s(lp1255
g78
atp1256
a(S'aportado'
p1257
(dp1258
S'VERB'
p1259
F1.0
s(lp1260
g92
atp1261
a(S'enormes'
p1262
(dp1263
S'ADJ'
p1264
F1.0
s(lp1265
g142
atp1266
a(S'beneficios'
p1267
(dp1268
S'NOUN'
p1269
F1.0
s(lp1270
g149
atp1271
a(g74
(dp1272
g192
F0.000427
sS'CONJ'
p1273
F3e-06
sS'ADP'
p1274
F0.99957
s(lp1275
g136
atp1276
a(S'las'
p1277
(dp1278
S'PRON'
p1279
F0.0
sS'DET'
p1280
F1.0
s(lp1281
tp1282
a(S'personas'
p1283
(dp1284
S'NOUN'
p1285
F1.0
s(lp1286
g168
atp1287
a(S'-con'
p1288
(dp1289
S'ADJ'
p1290
F0.084212
sS'VERB'
p1291
F0.293885
sS'NOUN'
p1292
F0.6219030000000001
s(lp1293
g155
atp1294
a(S'discapacidad'
p1295
(dp1296
S'NOUN'
p1297
F1.0
s(lp1298
g181
atp1299
a(S'y'
p1300
(dp1301
g192
F2.8e-05
sS'CONJ'
p1302
F0.999972
s(lp1303
g187
atp1304
a(S'no'
p1305
(dp1306
S'ADV'
p1307
F0.999913
sg192
F8.7e-05
s(lp1308
g194
atp1309
a(S'con'
p1310
(dp1311
S'ADP'
p1312
F1.0
s(lp1313
tp1314
a(S'discapacidad-'
p1315
(dp1316
S'ADJ'
p1317
F0.00317
sS'VERB'
p1318
F0.001491
sS'NOUN'
p1319
F0.9953390000000001
s(lp1320
g105
atp1321
a(g153
(dp1322
g153
F1.0
s(lp1323
g153
atp1324
as.