(dp0
S'fr'
p1
(lp2
(S'aux'
p3
(dp4
S'ADP'
p5
F1.0
s(lp6
S'the'
p7
atp8
a(S'\xc3\x89tats-unis'
p9
(dp10
S'VERB'
p11
F4.5e-05
sS'NOUN'
p12
F0.9999549999999999
s(lp13
S'united'
p14
atp15
a(S','
p16
(dp17
S'.'
p18
F1.0
s(lp19
g16
atp20
a(S'un'
p21
(dp22
S'NOUN'
p23
F0.000352
sS'NUM'
p24
F0.02601
sS'DET'
p25
F0.973638
s(lp26
S'a'
p27
atp28
a(S'dialogue'
p29
(dp30
S'VERB'
p31
F0.001753
sS'NOUN'
p32
F0.998247
s(lp33
S'dialogue'
p34
atp35
a(S'tr\xc3\xa8s'
p36
(dp37
S'ADV'
p38
F1.0
s(lp39
S'very'
p40
atp41
a(S'vivant'
p42
(dp43
S'ADJ'
p44
F0.362204
sS'VERB'
p45
F0.029135
sS'NOUN'
p46
F0.608662
s(lp47
S'lively'
p48
atp49
a(g27
(dp50
S'VERB'
p51
F1.0
s(lp52
S'is'
p53
atp54
a(S'd\xc3\xa9j\xc3\xa0'
p55
(dp56
S'ADV'
p57
F1.0
s(lp58
S'already'
p59
atp60
a(S'lieu'
p61
(dp62
S'NOUN'
p63
F1.0
s(lp64
S'conducted'
p65
atp66
a(S'sur'
p67
(dp68
S'ADP'
p69
F1.0
s(lp70
S'on'
p71
atp72
a(S'le'
p73
(dp74
S'PRON'
p75
F6.2e-05
sS'DET'
p76
F0.999938
s(lp77
S'the'
p78
atp79
a(S'probl\xc3\xa8me'
p80
(dp81
S'NOUN'
p82
F1.0
s(lp83
S'issue'
p84
atp85
a(S'de'
p86
(dp87
S'ADP'
p88
F1.0
s(lp89
S'of'
p90
atp91
a(S'la'
p92
(dp93
S'PRON'
p94
F0.001379
sS'DET'
p95
F0.99862
sS'NOUN'
p96
F1e-06
s(lp97
S'combating'
p98
atp99
a(S'lutte'
p100
(dp101
S'VERB'
p102
F0.0019
sS'NOUN'
p103
F0.9981
s(lp104
tp105
a(S'contre'
p106
(dp107
S'VERB'
p108
F0.000897
sS'NOUN'
p109
F6e-06
sS'ADP'
p110
F0.999098
s(lp111
g98
atp112
a(S'le'
p113
(dp114
S'PRON'
p115
F6.2e-05
sS'DET'
p116
F0.999938
s(lp117
tp118
a(S'changement'
p119
(dp120
S'NOUN'
p121
F1.0
s(lp122
S'change'
p123
atp124
a(S'climatique'
p125
(dp126
S'ADJ'
p127
F1.0
s(lp128
S'climate'
p129
atp130
a(g18
(dp131
g18
F1.0
s(lp132
g18
atp133
asS'en'
p134
(lp135
(S'in'
p136
(dp137
S'ADV'
p138
F0.001492
sS'PRT'
p139
F0.0
sS'ADP'
p140
F0.998508
s(lp141
g136
atp142
a(g7
(dp143
S'NOUN'
p144
F2e-06
sS'DET'
p145
F0.999998
s(lp146
g7
atp147
a(g14
(dp148
S'VERB'
p149
F0.322339
sS'ADJ'
p150
F0.677661
s(lp151
g14
atp152
a(S'states'
p153
(dp154
S'VERB'
p155
F0.001469
sS'NOUN'
p156
F0.998531
s(lp157
g153
atp158
a(S'itself'
p159
(dp160
S'PRON'
p161
F1.0
s(lp162
g159
atp163
a(g16
(dp164
g18
F1.0
s(lp165
g16
atp166
a(g27
(dp167
S'NOUN'
p168
F0.0
sS'DET'
p169
F1.0
s(lp170
g27
atp171
a(g40
(dp172
S'ADV'
p173
F0.67363
sS'ADJ'
p174
F0.32637
s(lp175
g40
atp176
a(g48
(dp177
S'ADV'
p178
F0.007619
sS'ADJ'
p179
F0.992381
s(lp180
g48
atp181
a(g34
(dp182
S'VERB'
p183
F3.9e-05
sS'NOUN'
p184
F0.999961
s(lp185
g34
atp186
a(g53
(dp187
S'VERB'
p188
F1.0
s(lp189
g53
atp190
a(g59
(dp191
S'ADV'
p192
F1.0
s(lp193
g59
atp194
a(S'being'
p195
(dp196
S'NOUN'
p197
F2.2e-05
sS'VERB'
p198
F0.999837
sS'ADJ'
p199
F0.000141
s(lp200
g195
atp201
a(g65
(dp202
S'VERB'
p203
F1.0
s(lp204
g65
atp205
a(g71
(dp206
S'ADV'
p207
F0.000936
sS'PRT'
p208
F0.007108
sS'ADJ'
p209
F0.0
sS'NOUN'
p210
F0.0
sS'ADP'
p211
F0.991957
s(lp212
g71
atp213
a(g78
(dp214
S'NOUN'
p215
F1e-06
sS'DET'
p216
F0.999999
s(lp217
g78
atp218
a(g84
(dp219
S'VERB'
p220
F0.000203
sS'NOUN'
p221
F0.999797
s(lp222
g84
atp223
a(g90
(dp224
S'ADP'
p225
F1.0
s(lp226
g90
atp227
a(g98
(dp228
S'VERB'
p229
F1.0
s(lp230
g98
atp231
a(g129
(dp232
S'NOUN'
p233
F1.0
s(lp234
g129
atp235
a(g123
(dp236
S'VERB'
p237
F0.01782
sS'NOUN'
p238
F0.98218
s(lp239
g123
atp240
a(g18
(dp241
g18
F1.0
s(lp242
g18
atp243
asS'nl'
p244
(lp245
(S'in'
p246
(dp247
S'ADV'
p248
F0.009333
sS'VERB'
p249
F1e-06
sS'ADP'
p250
F0.990666
s(lp251
g136
atp252
a(S'de'
p253
(dp254
S'DET'
p255
F1.0
s(lp256
g7
atp257
a(S'verenigde'
p258
(dp259
S'VERB'
p260
F0.993282
sS'NOUN'
p261
F0.006718
s(lp262
g14
atp263
a(S'staten'
p264
(dp265
S'NOUN'
p266
F1.0
s(lp267
g153
atp268
a(S'zelf'
p269
(dp270
S'PRON'
p271
F1.0
s(lp272
g159
atp273
a(S'wordt'
p274
(dp275
S'VERB'
p276
F1.0
s(lp277
g195
atp278
a(S'reeds'
p279
(dp280
S'ADV'
p281
F1.0
s(lp282
g59
atp283
a(S'een'
p284
(dp285
S'ADJ'
p286
F8e-06
sS'PRON'
p287
F0.000754
sS'NUM'
p288
F2e-06
sS'DET'
p289
F0.999236
s(lp290
g27
atp291
a(S'zeer'
p292
(dp293
S'NOUN'
p294
F0.000592
sS'ADJ'
p295
F0.999408
s(lp296
g40
atp297
a(S'levendige'
p298
(dp299
S'NOUN'
p300
F0.007833
sS'ADJ'
p301
F0.992167
s(lp302
g48
atp303
a(S'dialoog'
p304
(dp305
S'NOUN'
p306
F1.0
s(lp307
g34
atp308
a(S'over'
p309
(dp310
S'ADV'
p311
F0.015324
sS'ADP'
p312
F0.984676
s(lp313
g71
atp314
a(S'de'
p315
(dp316
S'DET'
p317
F1.0
s(lp318
g78
atp319
a(S'strijd'
p320
(dp321
S'VERB'
p322
F7e-06
sS'NOUN'
p323
F0.999993
s(lp324
g98
atp325
a(S'tegen'
p326
(dp327
S'ADV'
p328
F4.1e-05
sS'ADP'
p329
F0.999959
s(lp330
tp331
a(S'de'
p332
(dp333
S'DET'
p334
F1.0
s(lp335
g98
atp336
a(S'klimaatverandering'
p337
(dp338
S'NOUN'
p339
F1.0
s(lp340
g129
atp341
a(S'gevoerd'
p342
(dp343
S'VERB'
p344
F0.999083
sS'ADJ'
p345
F0.000917
s(lp346
g65
atp347
a(g18
(dp348
g18
F1.0
s(lp349
g18
atp350
asS'de'
p351
(lp352
(S'in'
p353
(dp354
S'ADP'
p355
F1.0
s(lp356
g136
atp357
a(S'den'
p358
(dp359
S'PRON'
p360
F0.00012
sS'DET'
p361
F0.999879
s(lp362
g7
atp363
a(S'vereinigten'
p364
(dp365
S'VERB'
p366
F2.5e-05
sS'ADJ'
p367
F0.999975
s(lp368
g14
atp369
a(S'staaten'
p370
(dp371
S'ADJ'
p372
F0.003713
sS'NOUN'
p373
F0.99345
s(lp374
g153
atp375
a(S'selbst'
p376
(dp377
S'ADV'
p378
F0.997302
sS'PRT'
p379
F0.002698
s(lp380
g159
atp381
a(S'wird'
p382
(dp383
S'VERB'
p384
F1.0
s(lp385
g195
atp386
a(S'bereits'
p387
(dp388
S'ADV'
p389
F1.0
s(lp390
g59
atp391
a(S'ein'
p392
(dp393
S'PRT'
p394
F0.012879
sS'DET'
p395
F0.982484
s(lp396
g27
atp397
a(S'sehr'
p398
(dp399
S'ADV'
p400
F1.0
s(lp401
g40
atp402
a(S'lebhafter'
p403
(dp404
S'ADJ'
p405
F1.0
s(lp406
g48
atp407
a(S'dialog'
p408
(dp409
S'ADJ'
p410
F0.111459
sS'NOUN'
p411
F0.881313
s(lp412
g34
atp413
a(S'\xc3\xbcber'
p414
(dp415
S'PRT'
p416
F0.00054
sS'ADP'
p417
F0.99946
s(lp418
g71
atp419
a(S'die'
p420
(dp421
S'PRON'
p422
F0.505114
sS'DET'
p423
F0.488884
s(lp424
g78
atp425
a(S'frage'
p426
(dp427
S'VERB'
p428
F1.0
s(lp429
g84
atp430
a(S'der'
p431
(dp432
S'PRON'
p433
F0.000196
sS'DET'
p434
F0.999804
s(lp435
tp436
a(S'bek\xc3\xa4mpfung'
p437
(dp438
S'ADJ'
p439
F9.3e-05
sS'NOUN'
p440
F0.999839
s(lp441
g98
atp442
a(S'des'
p443
(dp444
S'DET'
p445
F1.0
s(lp446
tp447
a(S'klimawandels'
p448
(dp449
S'ADJ'
p450
F0.030183
sS'NOUN'
p451
F0.949683
s(lp452
g129
atp453
a(S'gef\xc3\xbchrt'
p454
(dp455
S'VERB'
p456
F0.998127
sS'ADJ'
p457
F0.001873
s(lp458
g65
atp459
a(g18
(dp460
g18
F1.0
s(lp461
g18
atp462
asS'it'
p463
(lp464
(S'negli'
p465
(dp466
S'ADP'
p467
F1.0
s(lp468
g136
atp469
a(S'stessi'
p470
(dp471
S'NOUN'
p472
F0.013579
sS'VERB'
p473
F1.4e-05
sS'ADJ'
p474
F0.986406
s(lp475
g159
atp476
a(S'stati'
p477
(dp478
S'VERB'
p479
F0.195167
sS'NOUN'
p480
F0.804833
s(lp481
g153
atp482
a(S'uniti'
p483
(dp484
S'VERB'
p485
F0.038261
sS'ADJ'
p486
F0.961739
s(lp487
g14
atp488
a(S'\xc3\xa8'
p489
(dp490
S'VERB'
p491
F1.0
s(lp492
g53
atp493
a(S'in'
p494
(dp495
S'ADP'
p496
F1.0
s(lp497
g195
atp498
a(S'corso'
p499
(dp500
S'ADJ'
p501
F0.018291
sS'VERB'
p502
F0.021195
sS'NOUN'
p503
F0.960513
s(lp504
g65
atp505
a(S'un'
p506
(dp507
S'PRON'
p508
F0.003449
sS'DEF'
p509
F0.996551
s(lp510
g27
atp511
a(S'dibattito'
p512
(dp513
S'NOUN'
p514
F1.0
s(lp515
g34
atp516
a(S'molto'
p517
(dp518
S'ADV'
p519
F0.963803
sS'PRON'
p520
F0.000554
sS'VERB'
p521
F0.000697
sS'ADJ'
p522
F0.034947
s(lp523
g40
atp524
a(S'vivace'
p525
(dp526
S'ADJ'
p527
F1.0
s(lp528
g48
atp529
a(S'sulla'
p530
(dp531
S'NOUN'
p532
F9.7e-05
sS'ADP'
p533
F0.999903
s(lp534
g71
atp535
a(S'lotta'
p536
(dp537
S'VERB'
p538
F0.00018899999999999999
sS'NOUN'
p539
F0.999811
s(lp540
tp541
a(S'al'
p542
(dp543
S'ADP'
p544
F1.0
s(lp545
g98
atp546
a(S'cambiamento'
p547
(dp548
S'NOUN'
p549
F1.0
s(lp550
g123
atp551
a(S'climatico'
p552
(dp553
S'ADJ'
p554
F1.0
s(lp555
g129
atp556
a(g18
(dp557
g18
F1.0
s(lp558
g18
atp559
asS'sk'
p560
(lp561
(S'v'
p562
(dp563
S'X'
p564
F0.000222
sS'ADP'
p565
F0.999779
s(lp566
g136
atp567
a(S'samotn\xc3\xbdch'
p568
(dp569
S'ADJ'
p570
F1.0
s(lp571
g159
atp572
a(S'spojen\xc3\xbdch'
p573
(dp574
S'VERB'
p575
F1.0
s(lp576
g14
atp577
a(S'\xc5\xa1t\xc3\xa1toch'
p578
(dp579
S'NOUN'
p580
F1.0
s(lp581
g153
atp582
a(S'u\xc5\xbe'
p583
(dp584
S'ADV'
p585
F0.269706
sg564
F0.729121
sS'CONJ'
p586
F0.001173
s(lp587
g59
atp588
a(S'prebieha'
p589
(dp590
S'VERB'
p591
F1.0
s(lp592
g65
atp593
a(S've\xc4\xbemi'
p594
(dp595
S'ADV'
p596
F1.0
s(lp597
g40
atp598
a(S'\xc5\xbeiv\xc3\xbd'
p599
(dp600
S'ADJ'
p601
F1.0
s(lp602
g48
atp603
a(S'dial\xc3\xb3g'
p604
(dp605
S'NOUN'
p606
F1.0
s(lp607
g34
atp608
a(S'o'
p609
(dp610
g564
F0.0009609999999999999
sS'CONJ'
p611
F4.8e-05
sS'NOUN'
p612
F1.7e-05
sS'ADP'
p613
F0.998974
s(lp614
g71
atp615
a(S'ot\xc3\xa1zke'
p616
(dp617
S'NOUN'
p618
F1.0
s(lp619
g84
atp620
a(S'boja'
p621
(dp622
S'VERB'
p623
F0.07538
sS'NOUN'
p624
F0.92462
s(lp625
tp626
a(S'proti'
p627
(dp628
S'ADV'
p629
F0.000854
sS'ADP'
p630
F0.999146
s(lp631
g98
atp632
a(S'klimatick\xc3\xbdm'
p633
(dp634
S'ADJ'
p635
F1.0
s(lp636
g129
atp637
a(S'zmen\xc3\xa1m'
p638
(dp639
S'NOUN'
p640
F1.0
s(lp641
g123
atp642
a(g18
(dp643
g18
F1.0
s(lp644
g18
atp645
asS'pl'
p646
(lp647
(S'w'
p648
(dp649
S'ADJ'
p650
F0.0
sg564
F1e-06
sS'NOUN'
p651
F0.0
sS'ADP'
p652
F0.9999979999999999
s(lp653
g136
atp654
a(S'samych'
p655
(dp656
g564
F1e-06
sS'ADJ'
p657
F0.999998
s(lp658
g159
atp659
a(S'stanach'
p660
(dp661
S'NOUN'
p662
F1.0
s(lp663
tp664
a(S'zjednoczonych'
p665
(dp666
S'VERB'
p667
F1.0
s(lp668
g14
atp669
a(S'ju\xc5\xbc'
p670
(dp671
S'PRT'
p672
F1.0
s(lp673
g59
atp674
a(S'prowadzi'
p675
(dp676
S'VERB'
p677
F1.0
s(lp678
g65
atp679
a(S'si\xc4\x99'
p680
(dp681
S'PRT'
p682
F1.0
s(lp683
g27
atp684
a(S'bardzo'
p685
(dp686
S'ADV'
p687
F1.0
s(lp688
g40
atp689
a(S'o\xc5\xbcywiony'
p690
(dp691
S'ADV'
p692
F0.002171
sS'NOUN'
p693
F0.0011659999999999997
sS'VERB'
p694
F0.7446649999999999
sS'ADJ'
p695
F0.251999
s(lp696
g48
atp697
a(S'dialog'
p698
(dp699
S'NOUN'
p700
F1.0
s(lp701
g34
atp702
a(S'na'
p703
(dp704
g564
F1e-06
sS'VERB'
p705
F4.9999999999999996e-06
sS'NOUN'
p706
F0.0
sS'ADP'
p707
F0.999992
sS'PRT'
p708
F1e-06
s(lp709
g71
atp710
a(S'temat'
p711
(dp712
S'NOUN'
p713
F1.0
s(lp714
g84
atp715
a(S'zwalczania'
p716
(dp717
S'VERB'
p718
F1.0
s(lp719
g98
atp720
a(S'zmian'
p721
(dp722
S'NOUN'
p723
F1.0
s(lp724
g123
atp725
a(S'klimatycznych'
p726
(dp727
S'ADJ'
p728
F0.999998
s(lp729
g129
atp730
a(g18
(dp731
g18
F1.0
s(lp732
g18
atp733
asS'sl'
p734
(lp735
(g562
(dp736
S'ADP'
p737
F1.0
s(lp738
g136
atp739
a(S'zdru\xc5\xbeenih'
p740
(dp741
S'ADJ'
p742
F1.0
s(lp743
tp744
a(S'dr\xc5\xbeavah'
p745
(dp746
S'NOUN'
p747
F1.0
s(lp748
g153
atp749
a(S'amerike'
p750
(dp751
S'ADJ'
p752
F0.000361
sS'NOUN'
p753
F0.9996369999999999
s(lp754
g14
atp755
a(S'\xc5\xbee'
p756
(dp757
S'PRT'
p758
F1.0
s(lp759
g59
atp760
a(S'poteka'
p761
(dp762
S'VERB'
p763
F1.0
s(lp764
g65
atp765
a(S'zelo'
p766
(dp767
S'ADV'
p768
F1.0
s(lp769
g40
atp770
a(S'\xc5\xbeivahen'
p771
(dp772
S'ADJ'
p773
F1.0
s(lp774
g48
atp775
a(S'dialog'
p776
(dp777
S'NOUN'
p778
F1.0
s(lp779
g34
atp780
a(g609
(dp781
S'NOUN'
p782
F1.5e-05
sS'ADP'
p783
F0.999985
s(lp784
g71
atp785
a(S'vpra\xc5\xa1anju'
p786
(dp787
S'NOUN'
p788
F1.0
s(lp789
g84
atp790
a(S'boja'
p791
(dp792
S'NOUN'
p793
F1.0
s(lp794
tp795
a(S'proti'
p796
(dp797
S'ADV'
p798
F0.000112
sS'ADP'
p799
F0.999888
s(lp800
g98
atp801
a(S'podnebnim'
p802
(dp803
S'ADJ'
p804
F1.0
s(lp805
g129
atp806
a(S'spremembam'
p807
(dp808
S'NOUN'
p809
F1.0
s(lp810
g123
atp811
a(g18
(dp812
g18
F1.0
s(lp813
g18
atp814
asS'es'
p815
(lp816
(S'dentro'
p817
(dp818
S'ADP'
p819
F1.0
s(lp820
g136
atp821
a(S'de'
p822
(dp823
S'ADP'
p824
F1.0
s(lp825
tp826
a(S'los'
p827
(dp828
S'PRON'
p829
F0.0
sS'DET'
p830
F1.0
s(lp831
g7
atp832
a(S'estados'
p833
(dp834
S'ADJ'
p835
F0.362706
sS'VERB'
p836
F0.000133
sS'NOUN'
p837
F0.637161
s(lp838
g153
atp839
a(S'unidos'
p840
(dp841
S'ADJ'
p842
F0.362706
sS'VERB'
p843
F0.000133
sS'NOUN'
p844
F0.637161
s(lp845
g14
atp846
a(S'se'
p847
(dp848
S'PRON'
p849
F1.0
sS'VERB'
p850
F0.0
s(lp851
g195
atp852
a(S'est\xc3\xa1'
p853
(dp854
S'VERB'
p855
F1.0
s(lp856
g53
atp857
a(S'desarrollando'
p858
(dp859
S'VERB'
p860
F1.0
s(lp861
g65
atp862
a(S'un'
p863
(dp864
g564
F0.000201
sS'DET'
p865
F0.999799
s(lp866
g27
atp867
a(S'debate'
p868
(dp869
S'VERB'
p870
F1.0
s(lp871
g34
atp872
a(S'muy'
p873
(dp874
S'ADV'
p875
F1.0
s(lp876
g40
atp877
a(S'intenso'
p878
(dp879
S'ADJ'
p880
F1.0
s(lp881
g48
atp882
a(S'sobre'
p883
(dp884
S'NOUN'
p885
F0.0
sS'ADP'
p886
F1.0
s(lp887
g71
atp888
a(S'la'
p889
(dp890
S'NOUN'
p891
F0.0
sS'PRON'
p892
F0.0
sS'DET'
p893
F0.999999
sg564
F0.0
s(lp894
g78
atp895
a(S'lucha'
p896
(dp897
S'VERB'
p898
F2e-05
sS'NOUN'
p899
F0.99998
s(lp900
tp901
a(S'contra'
p902
(dp903
S'ADP'
p904
F1.0
s(lp905
g98
atp906
a(S'el'
p907
(dp908
S'PRON'
p909
F5e-06
sS'DET'
p910
F0.999995
s(lp911
tp912
a(S'cambio'
p913
(dp914
S'NOUN'
p915
F1.0
s(lp916
g123
atp917
a(S'clim\xc3\xa1tico'
p918
(dp919
S'ADJ'
p920
F1.0
s(lp921
g129
atp922
a(g18
(dp923
g18
F1.0
s(lp924
g18
atp925
as.