(dp0
S'fr'
p1
(lp2
(S'enfin'
p3
(dp4
S'ADV'
p5
F1.0
s(lp6
S'finally'
p7
atp8
a(S','
p9
(dp10
S'.'
p11
F1.0
s(lp12
g9
atp13
a(S'il'
p14
(dp15
S'PRON'
p16
F1.0
s(lp17
S'it'
p18
atp19
a(S'faut'
p20
(dp21
S'VERB'
p22
F1.0
s(lp23
S'needs'
p24
atp25
a(S'signaler'
p26
(dp27
S'VERB'
p28
F1.0
s(lp29
S'said'
p30
atp31
a(S'que'
p32
(dp33
S'ADV'
p34
F0.061339
sS'PRON'
p35
F0.086401
sS'CONJ'
p36
F0.85226
s(lp37
S'that'
p38
atp39
a(S"l'"
p40
(dp41
S'NOUN'
p42
F0.047015
sS'VERB'
p43
F0.8903029999999998
sS'ADJ'
p44
F0.062682
s(lp45
tp46
a(S'\xc3\xa9nergie'
p47
(dp48
S'NOUN'
p49
F1.0
s(lp50
S'energy'
p51
atp52
a(S'a'
p53
(dp54
S'VERB'
p55
F1.0
s(lp56
S'has'
p57
atp58
a(S'une'
p59
(dp60
S'NOUN'
p61
F1.2e-05
sS'NUM'
p62
F0.003908
sS'DET'
p63
F0.996081
s(lp64
S'its'
p65
atp66
a(S'dimension'
p67
(dp68
S'NOUN'
p69
F1.0
s(lp70
S'dimension'
p71
atp72
a(S'sociale'
p73
(dp74
S'ADJ'
p75
F1.0
s(lp76
S'social'
p77
atp78
a(g11
(dp79
g11
F1.0
s(lp80
g11
atp81
asS'en'
p82
(lp83
(g7
(dp84
S'ADV'
p85
F1.0
s(lp86
g7
atp87
a(g9
(dp88
g11
F1.0
s(lp89
g9
atp90
a(g18
(dp91
S'PRON'
p92
F1.0
s(lp93
g18
atp94
a(g24
(dp95
S'ADV'
p96
F0.000157
sS'VERB'
p97
F0.999465
sS'NOUN'
p98
F0.000378
s(lp99
g24
atp100
a(S'to'
p101
(dp102
S'ADV'
p103
F0.0
sS'PRT'
p104
F1.0
s(lp105
g101
atp106
a(S'be'
p107
(dp108
S'VERB'
p109
F1.0
s(lp110
g107
atp111
a(g30
(dp112
S'NOUN'
p113
F1e-05
sS'VERB'
p114
F0.9999709999999999
sS'ADJ'
p115
F1.9e-05
s(lp116
g30
atp117
a(g38
(dp118
S'ADV'
p119
F0.00073
sS'DET'
p120
F0.519638
sS'ADP'
p121
F0.479631
s(lp122
g38
atp123
a(g51
(dp124
S'NOUN'
p125
F1.0
s(lp126
g51
atp127
a(g57
(dp128
S'VERB'
p129
F1.0
s(lp130
g57
atp131
a(g65
(dp132
S'PRON'
p133
F1.0
s(lp134
g65
atp135
a(g77
(dp136
S'NOUN'
p137
F0.001363
sS'ADJ'
p138
F0.998637
s(lp139
g77
atp140
a(g71
(dp141
S'VERB'
p142
F7.4e-05
sS'NOUN'
p143
F0.999926
s(lp144
g71
atp145
a(g11
(dp146
g11
F1.0
s(lp147
g11
atp148
asS'nl'
p149
(lp150
(S'tot'
p151
(dp152
S'CONJ'
p153
F0.000115
sS'ADP'
p154
F0.999885
s(lp155
tp156
a(S'slot'
p157
(dp158
S'NOUN'
p159
F1.0
s(lp160
g7
atp161
a(S'moet'
p162
(dp163
S'VERB'
p164
F1.0
s(lp165
tp166
a(S'worden'
p167
(dp168
S'VERB'
p169
F1.0
sS'NOUN'
p170
F0.0
s(lp171
g107
atp172
a(S'gezegd'
p173
(dp174
S'VERB'
p175
F0.999217
sS'ADJ'
p176
F0.000783
s(lp177
g30
atp178
a(S'dat'
p179
(dp180
S'PRON'
p181
F0.12138499999999999
sS'CONJ'
p182
F0.878615
s(lp183
g38
atp184
a(S'er'
p185
(dp186
S'ADV'
p187
F1.0
s(lp188
g24
atp189
a(S'ook'
p190
(dp191
S'ADV'
p192
F1.0
s(lp193
tp194
a(S'nog'
p195
(dp196
S'ADV'
p197
F1.0
s(lp198
g57
atp199
a(S'een'
p200
(dp201
S'ADJ'
p202
F8e-06
sS'PRON'
p203
F0.000754
sS'NUM'
p204
F2e-06
sS'DET'
p205
F0.999236
s(lp206
g65
atp207
a(S'sociale'
p208
(dp209
S'NOUN'
p210
F6e-06
sS'ADJ'
p211
F0.999994
s(lp212
g77
atp213
a(S'kant'
p214
(dp215
S'VERB'
p216
F0.001652
sS'NOUN'
p217
F0.998348
s(lp218
tp219
a(S'aan'
p220
(dp221
S'ADV'
p222
F0.004208
sS'ADP'
p223
F0.995792
s(lp224
g101
atp225
a(S'energie'
p226
(dp227
S'NOUN'
p228
F1.0
s(lp229
g51
atp230
a(S'zit'
p231
(dp232
S'VERB'
p233
F0.984059
sS'NOUN'
p234
F0.015941
s(lp235
g71
atp236
a(g11
(dp237
g11
F1.0
s(lp238
g11
atp239
asS'de'
p240
(lp241
(S'schlie\xc3\x9flich'
p242
(dp243
S'ADV'
p244
F1.0
s(lp245
g7
atp246
a(S'sei'
p247
(dp248
S'VERB'
p249
F1.0
s(lp250
tp251
a(S'noch'
p252
(dp253
S'ADV'
p254
F0.998702
sS'CONJ'
p255
F0.001298
s(lp256
g7
atp257
a(S'gesagt'
p258
(dp259
S'VERB'
p260
F0.974145
sS'ADJ'
p261
F0.025855
s(lp262
g30
atp263
a(g9
(dp264
g11
F1.0
s(lp265
g9
atp266
a(S'dass'
p267
(dp268
S'CONJ'
p269
F1.0
s(lp270
g38
atp271
a(S'energie'
p272
(dp273
S'ADJ'
p274
F0.105738
sS'NOUN'
p275
F0.869244
s(lp276
g51
atp277
a(S'eine'
p278
(dp279
S'PRON'
p280
F0.000927
sS'DET'
p281
F0.998973
s(lp282
tp283
a(S'eigene'
p284
(dp285
S'ADJ'
p286
F1.0
s(lp287
g65
atp288
a(S'soziale'
p289
(dp290
S'ADJ'
p291
F1.0
s(lp292
g77
atp293
a(S'dimension'
p294
(dp295
S'ADJ'
p296
F3e-05
sS'NOUN'
p297
F0.999951
s(lp298
g71
atp299
a(S'hat'
p300
(dp301
S'VERB'
p302
F1.0
s(lp303
g57
atp304
a(g11
(dp305
g11
F1.0
s(lp306
g11
atp307
asS'it'
p308
(lp309
(S'infine'
p310
(dp311
S'ADV'
p312
F1.0
s(lp313
g7
atp314
a(g9
(dp315
g11
F1.0
s(lp316
g9
atp317
a(S'va'
p318
(dp319
S'VERB'
p320
F1.0
s(lp321
g24
atp322
a(S'detto'
p323
(dp324
S'ADJ'
p325
F0.000162
sS'VERB'
p326
F0.998757
sS'NOUN'
p327
F0.001081
s(lp328
g30
atp329
a(S'che'
p330
(dp331
S'PRON'
p332
F0.481066
sS'CONJ'
p333
F0.518685
sS'ADJ'
p334
F0.000249
s(lp335
g38
atp336
a(S"l'"
p337
(dp338
S'NOUN'
p339
F0.001475
sS'VERB'
p340
F0.990857
sS'ADJ'
p341
F0.007669
s(lp342
tp343
a(S'energia'
p344
(dp345
S'NOUN'
p346
F1.0
s(lp347
g51
atp348
a(S'ha'
p349
(dp350
S'VERB'
p351
F1.0
s(lp352
g57
atp353
a(S'la'
p354
(dp355
S'PRON'
p356
F0.0
sS'DET'
p357
F1.0
s(lp358
tp359
a(S'sua'
p360
(dp361
S'PRON'
p362
F1.0
s(lp363
g65
atp364
a(S'dimensione'
p365
(dp366
S'NOUN'
p367
F1.0
s(lp368
g71
atp369
a(S'sociale'
p370
(dp371
S'ADJ'
p372
F1.0
s(lp373
g77
atp374
a(g11
(dp375
g11
F1.0
s(lp376
g11
atp377
asS'sk'
p378
(lp379
(S'na'
p380
(dp381
S'X'
p382
F0.000193
sS'CONJ'
p383
F1.5e-05
sS'ADP'
p384
F0.999793
sS'PRT'
p385
F0.0
s(lp386
tp387
a(S'z\xc3\xa1ver'
p388
(dp389
S'NOUN'
p390
F1.0
s(lp391
g7
atp392
a(S'mus\xc3\xadm'
p393
(dp394
S'VERB'
p395
F1.0
s(lp396
g24
atp397
a(S'poveda\xc5\xa5'
p398
(dp399
S'VERB'
p400
F1.0
s(lp401
g30
atp402
a(g9
(dp403
g11
F1.0
s(lp404
g9
atp405
a(S'\xc5\xbee'
p406
(dp407
g382
F0.00032700000000000003
sS'CONJ'
p408
F0.999673
s(lp409
g38
atp410
a(S'energia'
p411
(dp412
S'NOUN'
p413
F1.0
s(lp414
g51
atp415
a(S'm\xc3\xa1'
p416
(dp417
g382
F5.5e-05
sS'VERB'
p418
F0.999945
s(lp419
g57
atp420
a(S'aj'
p421
(dp422
g382
F0.924024
sS'CONJ'
p423
F0.075976
s(lp424
tp425
a(S'svoj'
p426
(dp427
S'PRON'
p428
F1.0
s(lp429
g65
atp430
a(S'soci\xc3\xa1lny'
p431
(dp432
S'ADJ'
p433
F1.0
s(lp434
g77
atp435
a(S'rozmer'
p436
(dp437
S'NOUN'
p438
F1.0
s(lp439
g71
atp440
a(g11
(dp441
g11
F1.0
s(lp442
g11
atp443
asS'pl'
p444
(lp445
(S'wreszcie'
p446
(dp447
S'ADV'
p448
F0.160612
sS'PRT'
p449
F0.839388
s(lp450
g7
atp451
a(S'nale\xc5\xbcy'
p452
(dp453
S'VERB'
p454
F0.981824
sS'ADJ'
p455
F0.018176
s(lp456
g24
atp457
a(S'stwierdzi\xc4\x87'
p458
(dp459
S'VERB'
p460
F1.0
s(lp461
g30
atp462
a(g9
(dp463
g382
F0.0
sg11
F1.0
s(lp464
g9
atp465
a(S'\xc5\xbce'
p466
(dp467
S'PRT'
p468
F9.9e-05
sS'CONJ'
p469
F0.999902
s(lp470
g38
atp471
a(S'energia'
p472
(dp473
S'NOUN'
p474
F1.0
s(lp475
g51
atp476
a(S'ma'
p477
(dp478
S'VERB'
p479
F0.9992019999999999
sS'NOUN'
p480
F2e-06
sS'ADP'
p481
F0.000797
s(lp482
g57
atp483
a(S'sw\xc3\xb3j'
p484
(dp485
S'ADJ'
p486
F1.0
s(lp487
g65
atp488
a(S'wymiar'
p489
(dp490
S'NOUN'
p491
F1.0
s(lp492
g71
atp493
a(S'spo\xc5\x82eczny'
p494
(dp495
S'ADJ'
p496
F1.000001
s(lp497
g77
atp498
a(g11
(dp499
g11
F1.0
s(lp500
g11
atp501
asS'sl'
p502
(lp503
(S'kon\xc4\x8dno'
p504
(dp505
S'ADV'
p506
F0.963902
sS'ADJ'
p507
F0.036099
s(lp508
g7
atp509
a(S'je'
p510
(dp511
S'PRON'
p512
F0.002004
sS'VERB'
p513
F0.997995
sg382
F1e-06
s(lp514
g24
atp515
a(S'treba'
p516
(dp517
S'ADV'
p518
F1.0
s(lp519
g107
atp520
a(S'povedati'
p521
(dp522
S'VERB'
p523
F1.0
s(lp524
g30
atp525
a(g9
(dp526
g11
F1.0
s(lp527
g9
atp528
a(S'da'
p529
(dp530
S'PRT'
p531
F9e-06
sS'CONJ'
p532
F0.999976
sS'VERB'
p533
F1.4e-05
sg382
F0.0
s(lp534
g38
atp535
a(S'ima'
p536
(dp537
S'VERB'
p538
F1.0
s(lp539
g57
atp540
a(S'energija'
p541
(dp542
S'NOUN'
p543
F1.0
s(lp544
g51
atp545
a(S'svoje'
p546
(dp547
S'PRON'
p548
F0.9999989999999999
s(lp549
g65
atp550
a(S'socialne'
p551
(dp552
S'ADJ'
p553
F0.9999999999999999
s(lp554
g77
atp555
a(S'razse\xc5\xbenosti'
p556
(dp557
S'NOUN'
p558
F1.0
s(lp559
g71
atp560
a(g11
(dp561
g11
F1.0
s(lp562
g11
atp563
asS'es'
p564
(lp565
(S'por'
p566
(dp567
S'ADP'
p568
F1.0
s(lp569
tp570
a(S'\xc3\xbaltimo'
p571
(dp572
S'ADJ'
p573
F1.0
s(lp574
g7
atp575
a(g9
(dp576
g11
F1.0
s(lp577
g9
atp578
a(S'hace'
p579
(dp580
S'VERB'
p581
F1.0
s(lp582
g18
atp583
a(S'falta'
p584
(dp585
S'VERB'
p586
F0.353647
sS'NOUN'
p587
F0.646353
s(lp588
g24
atp589
a(S'decir'
p590
(dp591
S'VERB'
p592
F1.0
s(lp593
g30
atp594
a(S'que'
p595
(dp596
g382
F0.0
sS'CONJ'
p597
F1.0
s(lp598
g38
atp599
a(S'la'
p600
(dp601
S'PRON'
p602
F0.00027
sS'DET'
p603
F0.99973
sg382
F0.0
sS'NOUN'
p604
F0.0
s(lp605
tp606
a(S'energ\xc3\xada'
p607
(dp608
S'NOUN'
p609
F1.0
s(lp610
g51
atp611
a(S'tiene'
p612
(dp613
S'VERB'
p614
F1.0
s(lp615
g57
atp616
a(S'su'
p617
(dp618
S'PRON'
p619
F1.0
s(lp620
g65
atp621
a(S'dimensi\xc3\xb3n'
p622
(dp623
S'NOUN'
p624
F1.0
s(lp625
g71
atp626
a(S'social'
p627
(dp628
g382
F0.000267
sS'ADJ'
p629
F0.999733
s(lp630
g77
atp631
a(g11
(dp632
g11
F1.0
s(lp633
g11
atp634
as.