(dp0
S'fr'
p1
(lp2
(S'm.'
p3
(dp4
S'ADJ'
p5
F0.001698
sS'X'
p6
F0.670819
sS'VERB'
p7
F0.32182600000000006
sS'NOUN'
p8
F0.005658
s(lp9
S'commissioner'
p10
atp11
a(S'le'
p12
(dp13
S'PRON'
p14
F0.000131
sS'DET'
p15
F0.999869
s(lp16
tp17
a(S'commissaire'
p18
(dp19
S'NOUN'
p20
F1.0
s(lp21
g10
atp22
a(S','
p23
(dp24
S'.'
p25
F1.0
s(lp26
g23
atp27
a(S'vous'
p28
(dp29
S'PRON'
p30
F1.0
s(lp31
tp32
a(S'avez'
p33
(dp34
S'VERB'
p35
F1.0
s(lp36
S'you'
p37
atp38
a(S'soulev\xc3\xa9'
p39
(dp40
S'VERB'
p41
F0.992704
sS'NOUN'
p42
F0.007296
s(lp43
S'raised'
p44
atp45
a(S'deux'
p46
(dp47
S'NUM'
p48
F0.999998
sS'NOUN'
p49
F2e-06
s(lp50
S'two'
p51
atp52
a(S'points'
p53
(dp54
S'VERB'
p55
F4.6e-05
sS'NOUN'
p56
F0.999954
s(lp57
S'points'
p58
atp59
a(S'qui'
p60
(dp61
S'PRON'
p62
F1.0
s(lp63
S'that'
p64
atp65
a(S'me'
p66
(dp67
S'PRON'
p68
F1.0
s(lp69
S'i'
p70
atp71
a(S'semblent'
p72
(dp73
S'VERB'
p74
F1.0
s(lp75
S'think'
p76
atp77
a(S'essentiels'
p78
(dp79
S'NOUN'
p80
F0.103408
sS'ADJ'
p81
F0.896592
s(lp82
S'essential'
p83
atp84
a(S'dans'
p85
(dp86
S'NOUN'
p87
F4.6e-05
sS'ADP'
p88
F0.999954
s(lp89
S'within'
p90
atp91
a(S'cette'
p92
(dp93
S'PRON'
p94
F1.0
s(lp95
S'this'
p96
atp97
a(S'question'
p98
(dp99
S'NOUN'
p100
F1.0
s(lp101
S'issue'
p102
atp103
a(S'complexe'
p104
(dp105
S'NOUN'
p106
F0.007358
sS'VERB'
p107
F0.0058530000000000006
sS'ADJ'
p108
F0.986789
s(lp109
S'complex'
p110
atp111
a(S':'
p112
(dp113
g25
F1.0
s(lp114
g112
atp115
a(S'premi\xc3\xa8rement'
p116
(dp117
S'ADV'
p118
F1.0
s(lp119
S'first'
p120
atp121
a(g23
(dp122
g25
F1.0
s(lp123
S'of'
p124
atp125
a(S"l'"
p126
(dp127
S'ADJ'
p128
F0.13429
sS'VERB'
p129
F0.638201
sS'NOUN'
p130
F0.227509
s(lp131
S'the'
p132
atp133
a(S'id\xc3\xa9e'
p134
(dp135
S'VERB'
p136
F0.043308
sS'NOUN'
p137
F0.956693
s(lp138
S'idea'
p139
atp140
a(S'de'
p141
(dp142
S'ADP'
p143
F1.0
s(lp144
tp145
a(S'flexicurit\xc3\xa9'
p146
(dp147
S'ADJ'
p148
F0.050684
sS'NOUN'
p149
F0.949316
s(lp150
S'flexicurity'
p151
atp152
a(S';'
p153
(dp154
g25
F1.0
s(lp155
S'and'
p156
atp157
a(S'ensuite'
p158
(dp159
S'ADV'
p160
F1.0
s(lp161
S'secondly'
p162
atp163
a(g23
(dp164
g25
F1.0
s(lp165
g23
atp166
a(S"l'"
p167
(dp168
S'ADJ'
p169
F0.13429
sS'VERB'
p170
F0.638201
sS'NOUN'
p171
F0.227509
s(lp172
S'the'
p173
atp174
a(S'agenda'
p175
(dp176
S'NOUN'
p177
F1.0
s(lp178
S'agenda'
p179
atp180
a(S'de'
p181
(dp182
S'ADP'
p183
F1.0
s(lp184
S'about'
p185
atp186
a(S'lisbonne'
p187
(dp188
S'ADJ'
p189
F0.140963
sS'VERB'
p190
F0.00148
sS'NOUN'
p191
F0.857557
s(lp192
S'lisbon'
p193
atp194
a(g23
(dp195
g25
F1.0
s(lp196
tp197
a(S'qui'
p198
(dp199
S'PRON'
p200
F1.0
s(lp201
tp202
a(S'instaure'
p203
(dp204
S'VERB'
p205
F1.000001
s(lp206
S'creating'
p207
atp208
a(S'une'
p209
(dp210
S'NOUN'
p211
F0.000949
sS'NUM'
p212
F0.000816
sS'DET'
p213
F0.998235
s(lp214
tp215
a(S'nouvelle'
p216
(dp217
S'NOUN'
p218
F0.004151
sS'ADJ'
p219
F0.995849
s(lp220
S'another'
p221
atp222
a(S'libert\xc3\xa9'
p223
(dp224
S'NOUN'
p225
F1.0
s(lp226
S'freedom'
p227
atp228
a(S'dans'
p229
(dp230
S'NOUN'
p231
F6e-06
sS'ADP'
p232
F0.999994
s(lp233
S'within'
p234
atp235
a(S'le'
p236
(dp237
S'PRON'
p238
F7e-05
sS'DET'
p239
F0.99993
s(lp240
tp241
a(S'march\xc3\xa9'
p242
(dp243
S'VERB'
p244
F2.9e-05
sS'NOUN'
p245
F0.999971
s(lp246
S'market'
p247
atp248
a(S'unique'
p249
(dp250
S'ADJ'
p251
F1.0
s(lp252
S'single'
p253
atp254
a(S'de'
p255
(dp256
S'ADP'
p257
F1.0
s(lp258
tp259
a(S"l'"
p260
(dp261
S'ADJ'
p262
F0.160704
sS'VERB'
p263
F0.06480800000000002
sS'NOUN'
p264
F0.774488
s(lp265
tp266
a(S'union'
p267
(dp268
S'NOUN'
p269
F1.0
s(lp270
S'union'
p271
atp272
a(S'europ\xc3\xa9enne'
p273
(dp274
S'NOUN'
p275
F0.012186
sS'ADJ'
p276
F0.987814
s(lp277
S'european'
p278
atp279
a(S'-'
p280
(dp281
g25
F1.0
s(lp282
g280
atp283
a(S'la'
p284
(dp285
S'PRON'
p286
F6.9e-05
sS'DET'
p287
F0.999931
sS'NOUN'
p288
F0.0
s(lp289
S'the'
p290
atp291
a(S'libert\xc3\xa9'
p292
(dp293
S'NOUN'
p294
F1.0
s(lp295
S'free'
p296
atp297
a(S'de'
p298
(dp299
S'ADP'
p300
F1.0
s(lp301
tp302
a(S'circulation'
p303
(dp304
S'NOUN'
p305
F1.0
s(lp306
S'movement'
p307
atp308
a(S'des'
p309
(dp310
S'DET'
p311
F2.2e-05
sS'ADP'
p312
F0.999978
s(lp313
S'of'
p314
atp315
a(S'travailleurs'
p316
(dp317
S'ADJ'
p318
F0.056224
sS'NOUN'
p319
F0.943776
s(lp320
S'workers'
p321
atp322
a(g25
(dp323
g25
F1.0
s(lp324
g25
atp325
asS'en'
p326
(lp327
(g10
(dp328
S'NOUN'
p329
F1.0
s(lp330
g10
atp331
a(g23
(dp332
g25
F1.0
s(lp333
g23
atp334
a(g37
(dp335
S'PRON'
p336
F1.0
s(lp337
g37
atp338
a(g44
(dp339
S'VERB'
p340
F1.0
s(lp341
g44
atp342
a(g51
(dp343
S'NUM'
p344
F0.999995
sS'NOUN'
p345
F5e-06
s(lp346
g51
atp347
a(g58
(dp348
S'VERB'
p349
F0.015623
sS'NOUN'
p350
F0.984377
s(lp351
g58
atp352
a(g64
(dp353
S'ADV'
p354
F0.00021
sS'DET'
p355
F0.302586
sS'ADP'
p356
F0.697205
s(lp357
g64
atp358
a(g70
(dp359
g6
F0.006358
sS'NOUN'
p360
F0.9936419999999999
s(lp361
g70
atp362
a(g76
(dp363
S'VERB'
p364
F0.942245
sS'NOUN'
p365
F0.057756
s(lp366
g76
atp367
a(S'are'
p368
(dp369
S'VERB'
p370
F0.999896
sS'NOUN'
p371
F0.000104
s(lp372
g368
atp373
a(g83
(dp374
S'NOUN'
p375
F0.003093
sS'ADJ'
p376
F0.996907
s(lp377
g83
atp378
a(g90
(dp379
S'ADV'
p380
F7.8e-05
sS'ADP'
p381
F0.999922
s(lp382
g90
atp383
a(g96
(dp384
S'ADV'
p385
F2.8e-05
sS'NOUN'
p386
F5e-06
sS'DET'
p387
F0.999967
s(lp388
g96
atp389
a(S'whole'
p390
(dp391
S'ADV'
p392
F0.000223
sS'NOUN'
p393
F0.050307
sS'ADJ'
p394
F0.949436
sS'PRT'
p395
F3.5e-05
s(lp396
g390
atp397
a(g110
(dp398
S'NOUN'
p399
F0.180288
sS'ADJ'
p400
F0.819712
s(lp401
g110
atp402
a(g102
(dp403
S'VERB'
p404
F0.000505
sS'NOUN'
p405
F0.999496
s(lp406
g102
atp407
a(g112
(dp408
g25
F1.0
s(lp409
g112
atp410
a(g120
(dp411
S'ADV'
p412
F0.500176
sS'NOUN'
p413
F0.001451
sS'ADJ'
p414
F0.498373
s(lp415
g120
atp416
a(g124
(dp417
S'ADP'
p418
F1.0
s(lp419
g124
atp420
a(S'all'
p421
(dp422
S'ADV'
p423
F0.0029
sS'DET'
p424
F0.9971
s(lp425
g421
atp426
a(g132
(dp427
S'NOUN'
p428
F1e-06
sS'DET'
p429
F0.999999
s(lp430
g132
atp431
a(g151
(dp432
S'ADJ'
p433
F0.022102
sS'NOUN'
p434
F0.977898
s(lp435
g151
atp436
a(g139
(dp437
S'NOUN'
p438
F1.0
s(lp439
g139
atp440
a(g23
(dp441
g25
F1.0
s(lp442
g23
atp443
a(g156
(dp444
S'CONJ'
p445
F0.999999
sS'NOUN'
p446
F1e-06
s(lp447
g156
atp448
a(g162
(dp449
S'ADV'
p450
F1.0
s(lp451
g162
atp452
a(g173
(dp453
S'NOUN'
p454
F2e-06
sS'DET'
p455
F0.999998
s(lp456
g173
atp457
a(g193
(dp458
S'ADJ'
p459
F0.101198
sS'VERB'
p460
F3e-05
sS'NOUN'
p461
F0.8987719999999999
s(lp462
g193
atp463
a(g179
(dp464
S'NOUN'
p465
F1.0
s(lp466
g179
atp467
a(g185
(dp468
S'ADV'
p469
F0.130142
sS'ADP'
p470
F0.869858
s(lp471
g185
atp472
a(g207
(dp473
S'VERB'
p474
F1.0
s(lp475
g207
atp476
a(g221
(dp477
S'DET'
p478
F1.0
s(lp479
g221
atp480
a(g227
(dp481
S'NOUN'
p482
F1.0
s(lp483
g227
atp484
a(g234
(dp485
S'ADV'
p486
F6.6e-05
sS'ADP'
p487
F0.999934
s(lp488
g234
atp489
a(g290
(dp490
S'NOUN'
p491
F1e-06
sS'DET'
p492
F0.999999
s(lp493
g290
atp494
a(g278
(dp495
S'NOUN'
p496
F0.10881199999999999
sS'VERB'
p497
F1.1e-05
sS'ADJ'
p498
F0.891178
s(lp499
g278
atp500
a(g271
(dp501
S'NOUN'
p502
F1.0
s(lp503
g271
atp504
a(g253
(dp505
S'NOUN'
p506
F0.033203
sS'VERB'
p507
F0.0029449999999999997
sS'ADJ'
p508
F0.963852
s(lp509
g253
atp510
a(g247
(dp511
S'VERB'
p512
F2.9e-05
sS'NOUN'
p513
F0.99997
s(lp514
g247
atp515
a(g280
(dp516
g25
F1.0
s(lp517
g280
atp518
a(g296
(dp519
S'ADV'
p520
F0.00818
sS'NOUN'
p521
F0.000555
sS'VERB'
p522
F0.01299
sS'ADJ'
p523
F0.978275
s(lp524
g296
atp525
a(g307
(dp526
S'NOUN'
p527
F1.0
s(lp528
g307
atp529
a(g314
(dp530
S'ADP'
p531
F1.0
s(lp532
g314
atp533
a(g321
(dp534
S'NOUN'
p535
F1.0
s(lp536
g321
atp537
a(g25
(dp538
g25
F1.0
s(lp539
g25
atp540
asS'nl'
p541
(lp542
(S'commissaris'
p543
(dp544
S'NOUN'
p545
F1.0
s(lp546
g10
atp547
a(S'u'
p548
(dp549
S'PRON'
p550
F0.983969
sS'NOUN'
p551
F0.016031
s(lp552
tp553
a(S'hebt'
p554
(dp555
S'VERB'
p556
F1.0
s(lp557
g37
atp558
a(S'twee'
p559
(dp560
S'NUM'
p561
F1.0
s(lp562
g51
atp563
a(S'punten'
p564
(dp565
S'VERB'
p566
F8.400000000000001e-05
sS'NOUN'
p567
F0.999916
s(lp568
g58
atp569
a(S'genoemd'
p570
(dp571
S'VERB'
p572
F0.998782
sS'ADJ'
p573
F0.001218
s(lp574
g44
atp575
a(S'die'
p576
(dp577
S'PRON'
p578
F1.0
s(lp579
g64
atp580
a(S'volgens'
p581
(dp582
S'ADP'
p583
F1.0
s(lp584
g76
atp585
a(S'mij'
p586
(dp587
S'PRON'
p588
F1.0
s(lp589
g70
atp590
a(S'essentieel'
p591
(dp592
S'ADJ'
p593
F1.0
s(lp594
g83
atp595
a(S'zijn'
p596
(dp597
S'PRON'
p598
F4.6e-05
sS'VERB'
p599
F0.9921110000000001
sS'NOUN'
p600
F0.007844
s(lp601
g368
atp602
a(S'in'
p603
(dp604
S'ADV'
p605
F0.009411
sS'VERB'
p606
F0.0
sS'ADP'
p607
F0.990589
s(lp608
g90
atp609
a(S'deze'
p610
(dp611
S'PRON'
p612
F1.0
s(lp613
g96
atp614
a(S'zeer'
p615
(dp616
S'NOUN'
p617
F0.001481
sS'ADJ'
p618
F0.998519
s(lp619
tp620
a(S'complexe'
p621
(dp622
S'NOUN'
p623
F0.007827
sS'ADJ'
p624
F0.992173
s(lp625
g110
atp626
a(S'kwestie'
p627
(dp628
S'NOUN'
p629
F1.0
s(lp630
g102
atp631
a(g25
(dp632
g25
F1.0
s(lp633
g112
atp634
a(S'het'
p635
(dp636
S'PRON'
p637
F0.962086
sS'DET'
p638
F0.037914
s(lp639
tp640
a(S'gaat'
p641
(dp642
S'VERB'
p643
F1.0
s(lp644
tp645
a(S'allereerst'
p646
(dp647
S'ADJ'
p648
F1.0
s(lp649
g120
atp650
a(S'om'
p651
(dp652
S'ADV'
p653
F0.000378
sS'CONJ'
p654
F0.843398
sS'ADP'
p655
F0.156224
s(lp656
g124
atp657
a(S'het'
p658
(dp659
S'PRON'
p660
F0.01779
sS'DET'
p661
F0.98221
s(lp662
g132
atp663
a(S'concept'
p664
(dp665
S'NOUN'
p666
F1.0
s(lp667
tp668
a(S'flexizekerheid'
p669
(dp670
S'ADJ'
p671
F0.06824
sS'NOUN'
p672
F0.93176
s(lp673
g151
atp674
a(S'en'
p675
(dp676
S'CONJ'
p677
F1.0
s(lp678
g156
atp679
a(S'ten'
p680
(dp681
S'ADP'
p682
F1.0
s(lp683
tp684
a(S'tweede'
p685
(dp686
S'NUM'
p687
F1.0
s(lp688
g162
atp689
a(S'om'
p690
(dp691
S'ADV'
p692
F0.000276
sS'CONJ'
p693
F0.802113
sS'ADP'
p694
F0.197612
s(lp695
g139
atp696
a(S'de'
p697
(dp698
S'DET'
p699
F1.0
s(lp700
g173
atp701
a(S'lissabon-agenda'
p702
(dp703
S'NOUN'
p704
F1.0
s(lp705
g193
atp706
a(S'over'
p707
(dp708
S'ADV'
p709
F0.015517
sS'ADP'
p710
F0.984483
s(lp711
g185
atp712
a(S'het'
p713
(dp714
S'PRON'
p715
F0.020555
sS'DET'
p716
F0.979445
s(lp717
g207
atp718
a(S'cre\xc3\xabren'
p719
(dp720
S'VERB'
p721
F0.019641
sS'NOUN'
p722
F0.98036
s(lp723
tp724
a(S'van'
p725
(dp726
S'ADP'
p727
F1.0
s(lp728
g207
atp729
a(S'een'
p730
(dp731
S'ADJ'
p732
F1e-06
sS'PRON'
p733
F0.000523
sS'NUM'
p734
F1e-06
sS'DET'
p735
F0.999476
s(lp736
tp737
a(S'extra'
p738
(dp739
S'ADJ'
p740
F1.0
s(lp741
g221
atp742
a(S'vrijheid'
p743
(dp744
S'NOUN'
p745
F1.0
s(lp746
g227
atp747
a(S'binnen'
p748
(dp749
S'ADV'
p750
F4.7e-05
sS'ADP'
p751
F0.999953
s(lp752
g234
atp753
a(S'de'
p754
(dp755
S'DET'
p756
F1.0
s(lp757
g290
atp758
a(S'interne'
p759
(dp760
S'NOUN'
p761
F0.0002
sS'ADJ'
p762
F0.9998
s(lp763
g253
atp764
a(S'markt'
p765
(dp766
S'NOUN'
p767
F1.0
s(lp768
g247
atp769
a(S'van'
p770
(dp771
S'ADP'
p772
F1.0
s(lp773
tp774
a(S'de'
p775
(dp776
S'DET'
p777
F1.0
s(lp778
tp779
a(S'europese'
p780
(dp781
S'NOUN'
p782
F1.0
s(lp783
g278
atp784
a(S'unie'
p785
(dp786
S'NOUN'
p787
F1.0
s(lp788
g271
atp789
a(g112
(dp790
g25
F1.0
s(lp791
g280
atp792
a(S'het'
p793
(dp794
S'PRON'
p795
F0.058927
sS'DET'
p796
F0.941073
s(lp797
g290
atp798
a(S'vrij'
p799
(dp800
S'ADV'
p801
F0.003857
sS'NOUN'
p802
F0.000474
sS'VERB'
p803
F1e-05
sS'ADJ'
p804
F0.995658
s(lp805
g296
atp806
a(S'verkeer'
p807
(dp808
S'VERB'
p809
F0.003341
sS'NOUN'
p810
F0.996659
s(lp811
g307
atp812
a(S'van'
p813
(dp814
S'ADP'
p815
F1.0
s(lp816
g314
atp817
a(S'werknemers'
p818
(dp819
S'NOUN'
p820
F1.0
s(lp821
g321
atp822
a(g25
(dp823
g25
F1.0
s(lp824
g25
atp825
asS'de'
p826
(lp827
(S'herr'
p828
(dp829
S'NOUN'
p830
F0.960224
s(lp831
tp832
a(S'kommissar'
p833
(dp834
S'NOUN'
p835
F0.200041
sS'ADJ'
p836
F0.718185
s(lp837
g10
atp838
a(g23
(dp839
g25
F1.0
s(lp840
g23
atp841
a(S'sie'
p842
(dp843
S'PRON'
p844
F1.0
s(lp845
g37
atp846
a(S'haben'
p847
(dp848
S'VERB'
p849
F0.999653
s(lp850
tp851
a(S'zwei'
p852
(dp853
S'NUM'
p854
F1.0
s(lp855
g51
atp856
a(S'punkte'
p857
(dp858
S'VERB'
p859
F1.0
s(lp860
g58
atp861
a(S'angesprochen'
p862
(dp863
S'VERB'
p864
F1.0
s(lp865
g44
atp866
a(g23
(dp867
g25
F1.0
s(lp868
tp869
a(S'die'
p870
(dp871
S'PRON'
p872
F0.982116
sS'DET'
p873
F0.011413
s(lp874
g64
atp875
a(S'meines'
p876
(dp877
S'PRON'
p878
F1.0
s(lp879
g70
atp880
a(S'erachtens'
p881
(dp882
S'ADV'
p883
F0.00023
sS'NOUN'
p884
F0.999637
s(lp885
g76
atp886
a(S'in'
p887
(dp888
S'ADP'
p889
F1.0
s(lp890
g90
atp891
a(S'diesem'
p892
(dp893
S'PRON'
p894
F1.0
s(lp895
g96
atp896
a(S'gesamten'
p897
(dp898
S'ADJ'
p899
F1.0
s(lp900
g390
atp901
a(S'komplexen'
p902
(dp903
S'ADJ'
p904
F1.0
s(lp905
g110
atp906
a(S'bereich'
p907
(dp908
S'NOUN'
p909
F0.9968760000000001
s(lp910
g102
atp911
a(S'entscheidend'
p912
(dp913
S'ADJ'
p914
F1.0
s(lp915
g83
atp916
a(S'sind'
p917
(dp918
S'VERB'
p919
F1.0
s(lp920
g368
atp921
a(g112
(dp922
g25
F1.0
s(lp923
g112
atp924
a(S'erstens'
p925
(dp926
S'ADV'
p927
F1.0
s(lp928
g120
atp929
a(S'die'
p930
(dp931
S'PRON'
p932
F0.000394
sS'DET'
p933
F0.999599
s(lp934
g132
atp935
a(S'idee'
p936
(dp937
S'ADJ'
p938
F0.012319
sS'NOUN'
p939
F0.972808
s(lp940
g139
atp941
a(S'der'
p942
(dp943
S'PRON'
p944
F0.000105
sS'DET'
p945
F0.999794
s(lp946
g124
atp947
a(S'flexicurity'
p948
(dp949
S'ADJ'
p950
F0.364497
sS'NOUN'
p951
F0.500527
s(lp952
g151
atp953
a(S'und'
p954
(dp955
S'CONJ'
p956
F1.0
s(lp957
g156
atp958
a(S'zweitens'
p959
(dp960
S'ADV'
p961
F1.0
s(lp962
g162
atp963
a(S'die'
p964
(dp965
S'PRON'
p966
F0.00019
sS'DET'
p967
F0.999807
s(lp968
g173
atp969
a(S'lissabon-agenda'
p970
(dp971
S'ADJ'
p972
F0.001274
sS'NOUN'
p973
F0.998495
s(lp974
g193
atp975
a(g23
(dp976
g25
F1.0
s(lp977
g23
atp978
a(S'die'
p979
(dp980
S'PRON'
p981
F0.997416
s(lp982
tp983
a(S'die'
p984
(dp985
S'PRON'
p986
F0.000522
sS'DET'
p987
F0.999205
s(lp988
tp989
a(S'schaffung'
p990
(dp991
S'ADJ'
p992
F9.7e-05
sS'NOUN'
p993
F0.999812
s(lp994
g207
atp995
a(S'einer'
p996
(dp997
S'PRON'
p998
F0.003868
sS'DET'
p999
F0.99561
s(lp1000
tp1001
a(S'anderen'
p1002
(dp1003
S'PRON'
p1004
F1.0
s(lp1005
g221
atp1006
a(S'freiheit'
p1007
(dp1008
S'ADJ'
p1009
F0.22431
sS'NOUN'
p1010
F0.554083
s(lp1011
g227
atp1012
a(S'innerhalb'
p1013
(dp1014
S'ADJ'
p1015
F0.002867
sS'ADP'
p1016
F0.997133
s(lp1017
g234
atp1018
a(S'des'
p1019
(dp1020
S'DET'
p1021
F1.0
s(lp1022
g247
atp1023
a(S'binnenmarktes'
p1024
(dp1025
S'ADJ'
p1026
F0.342144
sS'NOUN'
p1027
F0.64561
s(lp1028
g253
atp1029
a(S'der'
p1030
(dp1031
S'PRON'
p1032
F0.000453
sS'DET'
p1033
F0.999421
s(lp1034
g290
atp1035
a(S'europ\xc3\xa4ischen'
p1036
(dp1037
S'ADJ'
p1038
F1.0
s(lp1039
g278
atp1040
a(S'union'
p1041
(dp1042
S'ADJ'
p1043
F0.029108
sS'NOUN'
p1044
F0.965042
s(lp1045
g271
atp1046
a(g23
(dp1047
g25
F1.0
s(lp1048
g280
atp1049
a(S'die'
p1050
(dp1051
S'PRON'
p1052
F0.143155
sS'DET'
p1053
F0.855174
s(lp1054
g296
atp1055
a(S'freiz\xc3\xbcgigkeit'
p1056
(dp1057
S'ADJ'
p1058
F0.032003
sS'NOUN'
p1059
F0.959942
s(lp1060
g307
atp1061
a(S'der'
p1062
(dp1063
S'PRON'
p1064
F0.000107
sS'DET'
p1065
F0.999854
s(lp1066
g314
atp1067
a(S'arbeitnehmer'
p1068
(dp1069
S'NOUN'
p1070
F0.320515
sS'ADJ'
p1071
F0.661197
s(lp1072
g321
atp1073
a(g23
(dp1074
g25
F1.0
s(lp1075
tp1076
a(S'zum'
p1077
(dp1078
S'ADP'
p1079
F1.0
s(lp1080
g185
atp1081
a(S'ziel'
p1082
(dp1083
S'VERB'
p1084
F1.0
s(lp1085
g179
atp1086
a(S'hat'
p1087
(dp1088
S'VERB'
p1089
F1.0
s(lp1090
tp1091
a(g25
(dp1092
g25
F1.0
s(lp1093
g25
atp1094
asS'it'
p1095
(lp1096
(S'signor'
p1097
(dp1098
S'NOUN'
p1099
F1.0
s(lp1100
tp1101
a(S'commissario'
p1102
(dp1103
S'VERB'
p1104
F0.118816
sS'NOUN'
p1105
F0.881184
s(lp1106
g10
atp1107
a(g23
(dp1108
g25
F1.0
s(lp1109
g23
atp1110
a(S'lei'
p1111
(dp1112
S'PRON'
p1113
F1.0
s(lp1114
g37
atp1115
a(S'ha'
p1116
(dp1117
S'VERB'
p1118
F1.0
s(lp1119
tp1120
a(S'sollevato'
p1121
(dp1122
S'VERB'
p1123
F0.970195
sS'ADJ'
p1124
F0.029805
s(lp1125
g44
atp1126
a(S'due'
p1127
(dp1128
S'NUM'
p1129
F0.000196
sS'ADJ'
p1130
F0.999804
s(lp1131
g51
atp1132
a(S'punti'
p1133
(dp1134
S'ADJ'
p1135
F0.005793
sS'VERB'
p1136
F0.010646
sS'NOUN'
p1137
F0.983561
s(lp1138
g58
atp1139
a(S'che'
p1140
(dp1141
S'PRON'
p1142
F0.960271
sS'CONJ'
p1143
F0.038887
sS'ADJ'
p1144
F0.000842
s(lp1145
g64
atp1146
a(S'considero'
p1147
(dp1148
S'VERB'
p1149
F1.0
s(lp1150
g76
atp1151
a(S'essenziali'
p1152
(dp1153
S'NOUN'
p1154
F0.00116
sS'ADJ'
p1155
F0.99884
s(lp1156
g83
atp1157
a(S"all'"
p1158
(dp1159
S'ADJ'
p1160
F0.000821
sS'VERB'
p1161
F0.00011699999999999998
sS'NOUN'
p1162
F0.999062
s(lp1163
tp1164
a(S'interno'
p1165
(dp1166
S'ADJ'
p1167
F0.375641
sS'VERB'
p1168
F0.0019
sS'NOUN'
p1169
F0.622459
s(lp1170
g90
atp1171
a(S'di'
p1172
(dp1173
S'CONJ'
p1174
F2.4e-05
sS'ADP'
p1175
F0.999976
s(lp1176
tp1177
a(S'questo'
p1178
(dp1179
S'PRON'
p1180
F1.0
s(lp1181
g96
atp1182
a(S'tema'
p1183
(dp1184
S'VERB'
p1185
F0.001874
sS'NOUN'
p1186
F0.998126
s(lp1187
g102
atp1188
a(S'cos\xc3\xac'
p1189
(dp1190
S'ADV'
p1191
F0.922865
sS'CONJ'
p1192
F0.077135
s(lp1193
tp1194
a(S'complesso'
p1195
(dp1196
S'NOUN'
p1197
F0.021248
sS'ADJ'
p1198
F0.978752
s(lp1199
g110
atp1200
a(g112
(dp1201
g25
F1.0
s(lp1202
g112
atp1203
a(S'innanzitutto'
p1204
(dp1205
S'ADV'
p1206
F1.0
s(lp1207
g120
atp1208
a(S"l'"
p1209
(dp1210
S'NOUN'
p1211
F0.002844
sS'VERB'
p1212
F0.820713
sS'ADJ'
p1213
F0.176441
s(lp1214
g132
atp1215
a(S'idea'
p1216
(dp1217
S'VERB'
p1218
F0.040878
sS'NOUN'
p1219
F0.959122
s(lp1220
g139
atp1221
a(S'della'
p1222
(dp1223
S'DEF'
p1224
F0.002856
sS'ADP'
p1225
F0.997144
s(lp1226
tp1227
a(S'flessicurezza'
p1228
(dp1229
S'ADJ'
p1230
F0.021235
sS'VERB'
p1231
F0.019883
sS'NOUN'
p1232
F0.958882
s(lp1233
g151
atp1234
a(S'e'
p1235
(dp1236
S'CONJ'
p1237
F1.0
s(lp1238
g156
atp1239
a(S'in'
p1240
(dp1241
S'ADP'
p1242
F1.0
s(lp1243
g162
atp1244
a(S'secondo'
p1245
(dp1246
S'ADV'
p1247
F0.001689
sS'NOUN'
p1248
F0.000329
sS'VERB'
p1249
F8e-06
sS'ADJ'
p1250
F0.936394
sS'ADP'
p1251
F0.061581
s(lp1252
tp1253
a(S'luogo'
p1254
(dp1255
S'NOUN'
p1256
F1.0
s(lp1257
g162
atp1258
a(S"l'"
p1259
(dp1260
S'NOUN'
p1261
F0.009871
sS'VERB'
p1262
F0.402172
sS'ADJ'
p1263
F0.587956
s(lp1264
g173
atp1265
a(S'agenda'
p1266
(dp1267
S'NOUN'
p1268
F1.0
s(lp1269
g179
atp1270
a(S'di'
p1271
(dp1272
S'CONJ'
p1273
F0.000111
sS'ADP'
p1274
F0.999889
s(lp1275
tp1276
a(S'lisbona'
p1277
(dp1278
S'ADJ'
p1279
F0.001147
sS'VERB'
p1280
F0.932369
sS'NOUN'
p1281
F0.066484
s(lp1282
g193
atp1283
a(S'sul'
p1284
(dp1285
S'ADP'
p1286
F1.0
s(lp1287
g185
atp1288
a(S'creare'
p1289
(dp1290
S'VERB'
p1291
F1.0
s(lp1292
g207
atp1293
a(S'una'
p1294
(dp1295
S'PRON'
p1296
F4.9e-05
sS'DEF'
p1297
F0.999951
s(lp1298
tp1299
a(S'nuova'
p1300
(dp1301
S'NOUN'
p1302
F0.003427
sS'ADJ'
p1303
F0.996573
s(lp1304
g221
atp1305
a(S'libert\xc3\xa0'
p1306
(dp1307
S'NOUN'
p1308
F1.0
s(lp1309
g227
atp1310
a(S"all'"
p1311
(dp1312
S'ADJ'
p1313
F0.040682
sS'VERB'
p1314
F0.006560999999999999
sS'NOUN'
p1315
F0.952757
s(lp1316
tp1317
a(S'interno'
p1318
(dp1319
S'ADJ'
p1320
F0.382657
sS'VERB'
p1321
F0.001239
sS'NOUN'
p1322
F0.616104
s(lp1323
g234
atp1324
a(S'del'
p1325
(dp1326
S'DEF'
p1327
F0.00165
sS'ADP'
p1328
F0.99835
s(lp1329
g290
atp1330
a(S'mercato'
p1331
(dp1332
S'NOUN'
p1333
F1.0
s(lp1334
g247
atp1335
a(S'unico'
p1336
(dp1337
S'NOUN'
p1338
F0.000101
sS'ADJ'
p1339
F0.999899
s(lp1340
g253
atp1341
a(S"dell'"
p1342
(dp1343
S'ADJ'
p1344
F0.000779
sS'VERB'
p1345
F0.00011
sS'NOUN'
p1346
F0.999111
s(lp1347
tp1348
a(S'unione'
p1349
(dp1350
S'NOUN'
p1351
F1.0
s(lp1352
g271
atp1353
a(S'europea'
p1354
(dp1355
S'NOUN'
p1356
F0.00165
sS'ADJ'
p1357
F0.99835
s(lp1358
g278
atp1359
a(g23
(dp1360
g25
F1.0
s(lp1361
g280
atp1362
a(S'la'
p1363
(dp1364
S'PRON'
p1365
F0.008601
sS'DET'
p1366
F0.991399
s(lp1367
tp1368
a(S'libera'
p1369
(dp1370
S'VERB'
p1371
F0.0052910000000000006
sS'ADJ'
p1372
F0.994709
s(lp1373
g296
atp1374
a(S'circolazione'
p1375
(dp1376
S'NOUN'
p1377
F1.0
s(lp1378
g307
atp1379
a(S'dei'
p1380
(dp1381
S'NOUN'
p1382
F1e-06
sS'DEF'
p1383
F0.001164
sS'ADP'
p1384
F0.998835
s(lp1385
g314
atp1386
a(S'lavoratori'
p1387
(dp1388
S'NOUN'
p1389
F1.0
s(lp1390
g321
atp1391
a(g25
(dp1392
g25
F1.0
s(lp1393
g25
atp1394
asS'sk'
p1395
(lp1396
(S'p\xc3\xa1n'
p1397
(dp1398
S'NOUN'
p1399
F1.0
s(lp1400
tp1401
a(S'komis\xc3\xa1r'
p1402
(dp1403
S'NOUN'
p1404
F1.0
s(lp1405
g10
atp1406
a(g23
(dp1407
g25
F1.0
s(lp1408
g23
atp1409
a(S'pouk\xc3\xa1zali'
p1410
(dp1411
S'VERB'
p1412
F1.0
s(lp1413
tp1414
a(S'ste'
p1415
(dp1416
S'NUM'
p1417
F1.5e-05
sS'VERB'
p1418
F0.999985
s(lp1419
g37
atp1420
a(S'na'
p1421
(dp1422
g6
F2e-06
sS'CONJ'
p1423
F1e-06
sS'ADP'
p1424
F0.999996
sS'PRT'
p1425
F1e-06
s(lp1426
g44
atp1427
a(S'dva'
p1428
(dp1429
S'ADV'
p1430
F3e-06
sg6
F5.2e-05
sS'NUM'
p1431
F0.999945
s(lp1432
g51
atp1433
a(S'body'
p1434
(dp1435
g6
F1.4e-05
sS'NOUN'
p1436
F0.999986
s(lp1437
g58
atp1438
a(g23
(dp1439
g25
F1.0
s(lp1440
tp1441
a(S'ktor\xc3\xa9'
p1442
(dp1443
S'PRON'
p1444
F1.0
s(lp1445
g64
atp1446
a(S'pova\xc5\xbeujem'
p1447
(dp1448
S'VERB'
p1449
F1.0
s(lp1450
g76
atp1451
a(S'v'
p1452
(dp1453
g6
F8.5e-05
sS'ADP'
p1454
F0.999915
s(lp1455
tp1456
a(S'r\xc3\xa1mci'
p1457
(dp1458
S'NOUN'
p1459
F1.0
s(lp1460
g90
atp1461
a(S'cel\xc3\xa9ho'
p1462
(dp1463
S'ADJ'
p1464
F1.0
s(lp1465
g390
atp1466
a(S'tohto'
p1467
(dp1468
S'PRON'
p1469
F0.999624
sg6
F0.000376
s(lp1470
g96
atp1471
a(S'zlo\xc5\xbeit\xc3\xa9ho'
p1472
(dp1473
S'ADJ'
p1474
F1.0
s(lp1475
g110
atp1476
a(S'probl\xc3\xa9mu'
p1477
(dp1478
S'NOUN'
p1479
F1.0
s(lp1480
g102
atp1481
a(S'za'
p1482
(dp1483
g6
F0.000172
sS'ADP'
p1484
F0.999789
sS'PRT'
p1485
F3.9e-05
s(lp1486
g368
atp1487
a(S'z\xc3\xa1sadn\xc3\xa9'
p1488
(dp1489
S'ADJ'
p1490
F1.0
s(lp1491
g83
atp1492
a(g280
(dp1493
g25
F1.0
s(lp1494
g112
atp1495
a(S'predov\xc5\xa1etk\xc3\xbdm'
p1496
(dp1497
g6
F1.0
s(lp1498
g120
atp1499
a(S'my\xc5\xa1lienku'
p1500
(dp1501
S'NOUN'
p1502
F1.0
s(lp1503
g139
atp1504
a(S'flexikurity'
p1505
(dp1506
S'NOUN'
p1507
F1.0
s(lp1508
g151
atp1509
a(S'a'
p1510
(dp1511
g6
F0.00317
sS'CONJ'
p1512
F0.996511
sS'NOUN'
p1513
F0.00015
sS'ADP'
p1514
F1e-06
sS'PRT'
p1515
F0.000168
s(lp1516
g156
atp1517
a(S'po'
p1518
(dp1519
g6
F0.005458
sS'ADP'
p1520
F0.994541
s(lp1521
tp1522
a(S'druh\xc3\xa9'
p1523
(dp1524
S'NUM'
p1525
F1.0
s(lp1526
g162
atp1527
a(g23
(dp1528
g25
F1.0
s(lp1529
tp1530
a(S'na'
p1531
(dp1532
g6
F0.000144
sS'CONJ'
p1533
F0.000505
sS'ADP'
p1534
F0.999341
sS'PRT'
p1535
F9e-06
s(lp1536
g173
atp1537
a(S'lisabonsk\xc3\xba'
p1538
(dp1539
S'VERB'
p1540
F0.0004050000000000001
sS'ADJ'
p1541
F0.999597
s(lp1542
g193
atp1543
a(S'agendu'
p1544
(dp1545
S'NOUN'
p1546
F1.0
s(lp1547
g179
atp1548
a(S'o'
p1549
(dp1550
g6
F0.000961
sS'CONJ'
p1551
F4.8e-05
sS'NOUN'
p1552
F1.7e-05
sS'ADP'
p1553
F0.998975
s(lp1554
g185
atp1555
a(S'vytvoren\xc3\xad'
p1556
(dp1557
S'VERB'
p1558
F0.002312
sS'NOUN'
p1559
F0.997688
s(lp1560
g207
atp1561
a(S'\xc4\x8fal\xc5\xa1ej'
p1562
(dp1563
S'ADJ'
p1564
F1.0
s(lp1565
g221
atp1566
a(S'slobody'
p1567
(dp1568
S'NOUN'
p1569
F1.0
s(lp1570
g227
atp1571
a(g1452
(dp1572
g6
F0.000506
sS'ADP'
p1573
F0.999495
s(lp1574
tp1575
a(S'r\xc3\xa1mci'
p1576
(dp1577
S'NOUN'
p1578
F1.0
s(lp1579
g234
atp1580
a(S'jednotn\xc3\xa9ho'
p1581
(dp1582
S'ADJ'
p1583
F1.0
s(lp1584
g253
atp1585
a(S'trhu'
p1586
(dp1587
S'NOUN'
p1588
F1.0
s(lp1589
g247
atp1590
a(S'eur\xc3\xb3pskej'
p1591
(dp1592
S'ADJ'
p1593
F1.0
s(lp1594
g278
atp1595
a(S'\xc3\xbanie'
p1596
(dp1597
S'NOUN'
p1598
F1.0
s(lp1599
g271
atp1600
a(g280
(dp1601
g25
F1.0
s(lp1602
g280
atp1603
a(S'slobodn\xc3\xa9ho'
p1604
(dp1605
S'ADJ'
p1606
F1.0
s(lp1607
g296
atp1608
a(S'pohybu'
p1609
(dp1610
S'NOUN'
p1611
F1.0
s(lp1612
g307
atp1613
a(S'pracovn\xc3\xadkov'
p1614
(dp1615
S'NOUN'
p1616
F1.0
s(lp1617
g321
atp1618
a(g25
(dp1619
g25
F1.0
s(lp1620
g25
atp1621
asS'pl'
p1622
(lp1623
(S'panie'
p1624
(dp1625
S'NOUN'
p1626
F1.0
s(lp1627
g10
atp1628
a(S'komisarzu'
p1629
(dp1630
S'NOUN'
p1631
F1.0
s(lp1632
tp1633
a(S'!'
p1634
(dp1635
g25
F1.0
s(lp1636
g10
atp1637
a(S'podni\xc3\xb3s\xc5\x82'
p1638
(dp1639
S'VERB'
p1640
F1.0
s(lp1641
g44
atp1642
a(S'pan'
p1643
(dp1644
g6
F0.001041
sS'NOUN'
p1645
F0.998959
s(lp1646
g37
atp1647
a(S'dwie'
p1648
(dp1649
S'NUM'
p1650
F1.0
s(lp1651
g51
atp1652
a(S'sprawy'
p1653
(dp1654
S'NOUN'
p1655
F1.0
s(lp1656
g58
atp1657
a(g23
(dp1658
g6
F0.0
sg25
F1.0
s(lp1659
g23
atp1660
a(S'kt\xc3\xb3re'
p1661
(dp1662
S'ADJ'
p1663
F1.000001
s(lp1664
g64
atp1665
a(S'w'
p1666
(dp1667
S'ADJ'
p1668
F0.0
sg6
F0.0
sS'NOUN'
p1669
F0.0
sS'ADP'
p1670
F1.0
s(lp1671
g70
atp1672
a(S'moim'
p1673
(dp1674
S'ADJ'
p1675
F0.9999990000000001
s(lp1676
tp1677
a(S'mniemaniu'
p1678
(dp1679
S'NOUN'
p1680
F1.0
s(lp1681
g76
atp1682
a(S'maj\xc4\x85'
p1683
(dp1684
S'VERB'
p1685
F1.0
s(lp1686
g368
atp1687
a(S'zasadnicze'
p1688
(dp1689
S'ADJ'
p1690
F0.999999
s(lp1691
tp1692
a(S'znaczenie'
p1693
(dp1694
S'VERB'
p1695
F0.00515
sS'NOUN'
p1696
F0.9948499999999999
s(lp1697
g83
atp1698
a(g1666
(dp1699
S'NOUN'
p1700
F2.7e-05
sS'ADJ'
p1701
F0.000447
sS'ADP'
p1702
F0.999523
sg6
F4.9999999999999996e-06
s(lp1703
g90
atp1704
a(S'tej'
p1705
(dp1706
S'PRON'
p1707
F0.001561
sS'ADJ'
p1708
F0.9983709999999999
sg6
F6.8e-05
s(lp1709
g96
atp1710
a(S'ca\xc5\x82ej'
p1711
(dp1712
S'ADJ'
p1713
F0.9999999999999999
s(lp1714
g390
atp1715
a(S'z\xc5\x82o\xc5\xbconej'
p1716
(dp1717
S'VERB'
p1718
F0.413577
sS'ADJ'
p1719
F0.586423
s(lp1720
g110
atp1721
a(S'kwestii'
p1722
(dp1723
S'NOUN'
p1724
F1.0
s(lp1725
g102
atp1726
a(g112
(dp1727
g25
F1.0
s(lp1728
g112
atp1729
a(S'po'
p1730
(dp1731
g6
F2e-06
sS'VERB'
p1732
F0.001074
sS'NOUN'
p1733
F0.0006680000000000001
sS'ADP'
p1734
F0.9982540000000001
s(lp1735
tp1736
a(S'pierwsze'
p1737
(dp1738
S'ADJ'
p1739
F1.000001
s(lp1740
g120
atp1741
a(S'to'
p1742
(dp1743
S'NOUN'
p1744
F0.969094
sS'ADP'
p1745
F0.0
sS'PRT'
p1746
F0.001957
sg6
F9e-06
sS'CONJ'
p1747
F0.018188
sS'ADJ'
p1748
F0.010753
s(lp1749
g132
atp1750
a(S'ca\xc5\x82okszta\xc5\x82t'
p1751
(dp1752
S'NOUN'
p1753
F1.0
s(lp1754
g151
atp1755
a(S'za\xc5\x82o\xc5\xbcenia'
p1756
(dp1757
S'VERB'
p1758
F0.173415
sS'NOUN'
p1759
F0.826584
s(lp1760
g139
atp1761
a(S'elastycznego'
p1762
(dp1763
S'ADJ'
p1764
F1.0
s(lp1765
g151
atp1766
a(S'rynku'
p1767
(dp1768
S'NOUN'
p1769
F1.0
s(lp1770
g151
atp1771
a(S'pracy'
p1772
(dp1773
S'NOUN'
p1774
F1.0
s(lp1775
g151
atp1776
a(g70
(dp1777
S'PRT'
p1778
F0.001474
sS'CONJ'
p1779
F0.998404
sS'NOUN'
p1780
F4.2999999999999995e-05
sg6
F9e-06
sS'PRON'
p1781
F6.9e-05
s(lp1782
g156
atp1783
a(S'bezpiecze\xc5\x84stwa'
p1784
(dp1785
S'NOUN'
p1786
F1.0
s(lp1787
g151
atp1788
a(S'socjalnego'
p1789
(dp1790
S'ADJ'
p1791
F1.0
s(lp1792
g151
atp1793
a(S'('
p1794
(dp1795
S'NOUN'
p1796
F4.6e-05
sg25
F0.999954
s(lp1797
g151
atp1798
a(S'flexicurity'
p1799
(dp1800
S'ADV'
p1801
F0.007055
sS'ADJ'
p1802
F0.145117
sS'VERB'
p1803
F0.015658000000000002
sS'NOUN'
p1804
F0.832173
s(lp1805
tp1806
a(S')'
p1807
(dp1808
g25
F1.0
s(lp1809
g151
atp1810
a(g23
(dp1811
g6
F4e-06
sg25
F0.999996
s(lp1812
tp1813
a(S'po'
p1814
(dp1815
g6
F8e-06
sS'VERB'
p1816
F0.001845
sS'NOUN'
p1817
F0.0010149999999999998
sS'ADP'
p1818
F0.997131
s(lp1819
tp1820
a(S'drugie'
p1821
(dp1822
S'NOUN'
p1823
F0.001605
sS'ADJ'
p1824
F0.9983940000000001
s(lp1825
g162
atp1826
a(S'to'
p1827
(dp1828
S'NOUN'
p1829
F0.97999
sS'ADP'
p1830
F0.0
sS'PRT'
p1831
F0.001071
sg6
F4e-06
sS'CONJ'
p1832
F0.007808
sS'ADJ'
p1833
F0.011126
s(lp1834
g173
atp1835
a(S'strategia'
p1836
(dp1837
S'NOUN'
p1838
F1.0
s(lp1839
tp1840
a(S'lizbo\xc5\x84ska'
p1841
(dp1842
S'ADJ'
p1843
F1.0
s(lp1844
g193
atp1845
a(S'ukierunkowana'
p1846
(dp1847
S'VERB'
p1848
F1.0
s(lp1849
g179
atp1850
a(S'na'
p1851
(dp1852
S'PRT'
p1853
F1e-06
sS'VERB'
p1854
F8.6e-05
sS'NOUN'
p1855
F0.0
sS'ADP'
p1856
F0.9999140000000001
sg6
F0.0
s(lp1857
g185
atp1858
a(S'stworzenie'
p1859
(dp1860
S'VERB'
p1861
F0.940227
sS'NOUN'
p1862
F0.059772
s(lp1863
g207
atp1864
a(S'kolejnej'
p1865
(dp1866
S'ADJ'
p1867
F1.0
s(lp1868
g221
atp1869
a(S'wolno\xc5\x9bci'
p1870
(dp1871
S'NOUN'
p1872
F1.000001
s(lp1873
g227
atp1874
a(g1666
(dp1875
g6
F0.0
sS'ADJ'
p1876
F0.0
sS'ADP'
p1877
F1.0
sS'NOUN'
p1878
F0.0
s(lp1879
tp1880
a(S'ramach'
p1881
(dp1882
S'NOUN'
p1883
F1.0
s(lp1884
g234
atp1885
a(S'jednolitego'
p1886
(dp1887
S'ADJ'
p1888
F1.0
s(lp1889
g253
atp1890
a(S'rynku'
p1891
(dp1892
S'NOUN'
p1893
F1.0
s(lp1894
g247
atp1895
a(S'unii'
p1896
(dp1897
S'NOUN'
p1898
F1.0
s(lp1899
g271
atp1900
a(S'europejskiej'
p1901
(dp1902
S'ADJ'
p1903
F0.999999
s(lp1904
g278
atp1905
a(g280
(dp1906
g6
F0.000577
sS'NUM'
p1907
F1e-06
sS'NOUN'
p1908
F1.6e-05
sg25
F0.999406
s(lp1909
g280
atp1910
a(S'swobodnego'
p1911
(dp1912
S'ADJ'
p1913
F1.0
s(lp1914
g296
atp1915
a(S'przep\xc5\x82ywu'
p1916
(dp1917
S'NOUN'
p1918
F1.0
s(lp1919
g307
atp1920
a(S'pracownik\xc3\xb3w'
p1921
(dp1922
S'NOUN'
p1923
F1.0
s(lp1924
g321
atp1925
a(g25
(dp1926
g25
F1.0
s(lp1927
g25
atp1928
asS'sl'
p1929
(lp1930
(S'gospod'
p1931
(dp1932
S'NOUN'
p1933
F1.0
s(lp1934
tp1935
a(S'komisar'
p1936
(dp1937
S'NOUN'
p1938
F1.0
s(lp1939
g10
atp1940
a(g23
(dp1941
g25
F1.0
s(lp1942
g23
atp1943
a(S'izpostavili'
p1944
(dp1945
S'VERB'
p1946
F1.0
s(lp1947
g44
atp1948
a(S'ste'
p1949
(dp1950
S'VERB'
p1951
F1.0
s(lp1952
g37
atp1953
a(S'dve'
p1954
(dp1955
S'NUM'
p1956
F1.0
s(lp1957
g51
atp1958
a(S'to\xc4\x8dki'
p1959
(dp1960
S'NOUN'
p1961
F1.000001
s(lp1962
g58
atp1963
a(g23
(dp1964
g25
F1.0
s(lp1965
g76
atp1966
a(S'ki'
p1967
(dp1968
S'CONJ'
p1969
F1.0
s(lp1970
g64
atp1971
a(S'sta'
p1972
(dp1973
g6
F0.012472
sS'VERB'
p1974
F0.987528
s(lp1975
g368
atp1976
a(S'bistveni'
p1977
(dp1978
S'ADJ'
p1979
F1.0
s(lp1980
g83
atp1981
a(S'pri'
p1982
(dp1983
S'ADP'
p1984
F1.0
s(lp1985
g90
atp1986
a(S'tem'
p1987
(dp1988
S'ADV'
p1989
F3.2e-05
sS'PRON'
p1990
F0.9999669999999998
sS'NOUN'
p1991
F1e-06
s(lp1992
g96
atp1993
a(S'celovitem'
p1994
(dp1995
S'ADV'
p1996
F0.001063
sS'NOUN'
p1997
F0.05550100000000002
sS'PRON'
p1998
F0.000598
sS'NUM'
p1999
F0.009972
sg6
F2.6e-05
sS'ADJ'
p2000
F0.9172859999999997
sS'VERB'
p2001
F0.015556
s(lp2002
g110
atp2003
a(S'vpra\xc5\xa1anju'
p2004
(dp2005
S'NOUN'
p2006
F1.0
s(lp2007
g102
atp2008
a(g23
(dp2009
g25
F1.0
s(lp2010
g23
atp2011
a(S'in'
p2012
(dp2013
S'ADV'
p2014
F0.000226
sg6
F5e-06
sS'CONJ'
p2015
F0.999752
sS'NOUN'
p2016
F1.8e-05
s(lp2017
g156
atp2018
a(S'sicer'
p2019
(dp2020
S'PRT'
p2021
F0.935345
sS'CONJ'
p2022
F0.064655
s(lp2023
g112
atp2024
a(S'zamisel'
p2025
(dp2026
S'NOUN'
p2027
F1.0
s(lp2028
tp2029
a(g1549
(dp2030
S'NOUN'
p2031
F1.2e-05
sS'ADP'
p2032
F0.999988
s(lp2033
g139
atp2034
a(S'pro\xc5\xbeni'
p2035
(dp2036
S'NOUN'
p2037
F0.017183000000000007
sS'ADJ'
p2038
F0.982815
s(lp2039
tp2040
a(S'varnosti'
p2041
(dp2042
S'NOUN'
p2043
F1.0
s(lp2044
g151
atp2045
a(S'in'
p2046
(dp2047
S'ADV'
p2048
F4.4e-05
sg6
F0.000235
sS'CONJ'
p2049
F0.999682
sS'NOUN'
p2050
F3.9e-05
s(lp2051
g173
atp2052
a(S'program'
p2053
(dp2054
S'NOUN'
p2055
F1.0
s(lp2056
tp2057
a(S'lizbonske'
p2058
(dp2059
S'ADV'
p2060
F3e-06
sS'NOUN'
p2061
F0.0010359999999999998
sS'VERB'
p2062
F9.499999999999999e-05
sS'ADJ'
p2063
F0.9988659999999999
s(lp2064
g193
atp2065
a(S'strategije'
p2066
(dp2067
S'NOUN'
p2068
F1.0
s(lp2069
g179
atp2070
a(g1549
(dp2071
S'NOUN'
p2072
F3e-06
sS'ADP'
p2073
F0.999997
s(lp2074
g185
atp2075
a(S'prostem'
p2076
(dp2077
S'ADJ'
p2078
F1.0
s(lp2079
g296
atp2080
a(S'pretoku'
p2081
(dp2082
S'NOUN'
p2083
F1.0
s(lp2084
g307
atp2085
a(S'delavcev'
p2086
(dp2087
S'NOUN'
p2088
F1.0
s(lp2089
g321
atp2090
a(S'znotraj'
p2091
(dp2092
S'ADV'
p2093
F0.001939
sS'ADP'
p2094
F0.998061
s(lp2095
g234
atp2096
a(S'enotnega'
p2097
(dp2098
S'ADJ'
p2099
F1.0
s(lp2100
g253
atp2101
a(S'trga'
p2102
(dp2103
S'VERB'
p2104
F5e-06
sS'NOUN'
p2105
F0.9999950000000001
s(lp2106
g247
atp2107
a(S'evropske'
p2108
(dp2109
S'ADJ'
p2110
F1.000001
s(lp2111
g278
atp2112
a(S'unije'
p2113
(dp2114
S'NOUN'
p2115
F1.0
s(lp2116
g271
atp2117
a(g25
(dp2118
g25
F1.0
s(lp2119
g25
atp2120
asS'es'
p2121
(lp2122
(S'comisario'
p2123
(dp2124
S'NOUN'
p2125
F1.0
s(lp2126
g10
atp2127
a(g23
(dp2128
g25
F1.0
s(lp2129
g23
atp2130
a(S'ha'
p2131
(dp2132
S'VERB'
p2133
F1.0
s(lp2134
tp2135
a(S'mencionado'
p2136
(dp2137
S'VERB'
p2138
F0.992656
sS'ADJ'
p2139
F0.007344
s(lp2140
g44
atp2141
a(S'usted'
p2142
(dp2143
S'PRON'
p2144
F1.0
s(lp2145
g37
atp2146
a(S'dos'
p2147
(dp2148
S'NUM'
p2149
F0.999978
sS'NOUN'
p2150
F2.2e-05
s(lp2151
g51
atp2152
a(S'puntos'
p2153
(dp2154
S'NOUN'
p2155
F1.0
s(lp2156
g58
atp2157
a(S'que'
p2158
(dp2159
g6
F0.0
sS'CONJ'
p2160
F1.0
s(lp2161
g64
atp2162
a(S'me'
p2163
(dp2164
S'PRON'
p2165
F1.0
sS'NOUN'
p2166
F0.0
s(lp2167
g70
atp2168
a(S'parecen'
p2169
(dp2170
S'VERB'
p2171
F1.0
s(lp2172
g76
atp2173
a(S'esenciales'
p2174
(dp2175
S'ADJ'
p2176
F1.0
s(lp2177
g83
atp2178
a(S'en'
p2179
(dp2180
g6
F0.0
sS'CONJ'
p2181
F1.2e-05
sS'ADP'
p2182
F0.999988
s(lp2183
g90
atp2184
a(S'todo'
p2185
(dp2186
S'ADJ'
p2187
F1.0
s(lp2188
g390
atp2189
a(S'este'
p2190
(dp2191
S'PRON'
p2192
F0.997749
sS'NOUN'
p2193
F0.002251
s(lp2194
g96
atp2195
a(S'asunto'
p2196
(dp2197
S'NOUN'
p2198
F1.0
s(lp2199
g102
atp2200
a(S'tan'
p2201
(dp2202
S'ADV'
p2203
F1.0
s(lp2204
tp2205
a(S'complejo'
p2206
(dp2207
S'ADJ'
p2208
F1.0
s(lp2209
g110
atp2210
a(g112
(dp2211
g25
F1.0
s(lp2212
g112
atp2213
a(S'en'
p2214
(dp2215
g6
F1.6e-05
sS'CONJ'
p2216
F0.000341
sS'ADP'
p2217
F0.999643
s(lp2218
g120
atp2219
a(S'primer'
p2220
(dp2221
S'ADJ'
p2222
F1.0
s(lp2223
tp2224
a(S'lugar'
p2225
(dp2226
S'NOUN'
p2227
F1.0
s(lp2228
g120
atp2229
a(S'el'
p2230
(dp2231
S'PRON'
p2232
F1.2e-05
sS'DET'
p2233
F0.999988
s(lp2234
g132
atp2235
a(S'concepto'
p2236
(dp2237
S'NOUN'
p2238
F1.0
s(lp2239
g139
atp2240
a(S'de'
p2241
(dp2242
g6
F2.9e-05
sS'CONJ'
p2243
F0.000449
sS'ADP'
p2244
F0.999522
s(lp2245
g124
atp2246
a(S'flexiguridad'
p2247
(dp2248
S'NOUN'
p2249
F1.0
s(lp2250
g151
atp2251
a(g23
(dp2252
g25
F1.0
s(lp2253
g23
atp2254
a(S'y'
p2255
(dp2256
g6
F0.000442
sS'CONJ'
p2257
F0.999558
s(lp2258
g156
atp2259
a(S'en'
p2260
(dp2261
g6
F0.0
sS'CONJ'
p2262
F6e-06
sS'ADP'
p2263
F0.999994
s(lp2264
g162
atp2265
a(S'segundo'
p2266
(dp2267
S'NOUN'
p2268
F0.002216
sS'ADJ'
p2269
F0.997783
s(lp2270
tp2271
a(S'lugar'
p2272
(dp2273
S'NOUN'
p2274
F1.0
s(lp2275
g162
atp2276
a(S'la'
p2277
(dp2278
S'PRON'
p2279
F0.000329
sS'DET'
p2280
F0.999617
sS'NOUN'
p2281
F3e-06
sg6
F5.1e-05
s(lp2282
g173
atp2283
a(S'agenda'
p2284
(dp2285
S'NOUN'
p2286
F1.0
s(lp2287
g179
atp2288
a(S'de'
p2289
(dp2290
g6
F0.000129
sS'CONJ'
p2291
F0.039475
sS'ADP'
p2292
F0.960397
s(lp2293
tp2294
a(S'lisboa'
p2295
(dp2296
S'ADV'
p2297
F0.010051
sS'ADJ'
p2298
F0.033296
sS'VERB'
p2299
F0.191175
sS'NOUN'
p2300
F0.765478
s(lp2301
g193
atp2302
a(S'para'
p2303
(dp2304
S'CONJ'
p2305
F0.001882
sS'ADP'
p2306
F0.998118
s(lp2307
g185
atp2308
a(S'el'
p2309
(dp2310
S'PRON'
p2311
F5e-06
sS'DET'
p2312
F0.999995
s(lp2313
tp2314
a(S'establecimiento'
p2315
(dp2316
S'NOUN'
p2317
F1.0
s(lp2318
g207
atp2319
a(S'de'
p2320
(dp2321
g6
F0.0
sS'CONJ'
p2322
F0.00017
sS'ADP'
p2323
F0.99983
s(lp2324
tp2325
a(S'otra'
p2326
(dp2327
S'ADJ'
p2328
F1.0
s(lp2329
g221
atp2330
a(S'de'
p2331
(dp2332
g6
F0.0
sS'CONJ'
p2333
F1.8e-05
sS'ADP'
p2334
F0.999982
s(lp2335
tp2336
a(S'las'
p2337
(dp2338
S'PRON'
p2339
F0.0
sS'DET'
p2340
F1.0
s(lp2341
tp2342
a(S'libertades'
p2343
(dp2344
S'NOUN'
p2345
F1.0
s(lp2346
g227
atp2347
a(S'dentro'
p2348
(dp2349
S'ADP'
p2350
F1.0
s(lp2351
g234
atp2352
a(S'del'
p2353
(dp2354
S'ADP'
p2355
F1.0
s(lp2356
g290
atp2357
a(S'mercado'
p2358
(dp2359
S'VERB'
p2360
F0.000998
sS'NOUN'
p2361
F0.999002
s(lp2362
g247
atp2363
a(S'\xc3\xbanico'
p2364
(dp2365
S'ADJ'
p2366
F1.0
s(lp2367
g253
atp2368
a(S'de'
p2369
(dp2370
g6
F0.0
sS'CONJ'
p2371
F5.7e-05
sS'ADP'
p2372
F0.999943
s(lp2373
tp2374
a(S'la'
p2375
(dp2376
g6
F0.0
sS'PRON'
p2377
F0.0
sS'DET'
p2378
F0.999999
sS'NOUN'
p2379
F0.0
s(lp2380
tp2381
a(S'uni\xc3\xb3n'
p2382
(dp2383
S'NOUN'
p2384
F1.0
s(lp2385
g271
atp2386
a(S'europea'
p2387
(dp2388
S'ADJ'
p2389
F1.0
s(lp2390
g278
atp2391
a(g23
(dp2392
g25
F1.0
s(lp2393
g280
atp2394
a(S'la'
p2395
(dp2396
S'PRON'
p2397
F3.5e-05
sS'DET'
p2398
F0.999959
sS'NOUN'
p2399
F0.0
sg6
F5e-06
s(lp2400
g290
atp2401
a(S'libertad'
p2402
(dp2403
S'NOUN'
p2404
F1.0
s(lp2405
g296
atp2406
a(S'de'
p2407
(dp2408
g6
F2.9e-05
sS'CONJ'
p2409
F0.000449
sS'ADP'
p2410
F0.999522
s(lp2411
tp2412
a(S'circulaci\xc3\xb3n'
p2413
(dp2414
S'NOUN'
p2415
F1.0
s(lp2416
g307
atp2417
a(S'de'
p2418
(dp2419
g6
F0.00015
sS'CONJ'
p2420
F0.000611
sS'ADP'
p2421
F0.999239
s(lp2422
g314
atp2423
a(S'trabajadores'
p2424
(dp2425
S'ADJ'
p2426
F0.444818
sS'NOUN'
p2427
F0.555182
s(lp2428
g321
atp2429
a(g25
(dp2430
g25
F1.0
s(lp2431
g25
atp2432
as.