(dp0
S'fr'
p1
(lp2
(S'les'
p3
(dp4
S'PRON'
p5
F0.000397
sS'DET'
p6
F0.99958
sS'ADP'
p7
F2.3e-05
s(lp8
tp9
a(S'violences'
p10
(dp11
S'NOUN'
p12
F1.0
s(lp13
S'violence'
p14
atp15
a(S'religieuses'
p16
(dp17
S'NOUN'
p18
F0.006274
sS'ADJ'
p19
F0.993726
s(lp20
S'religious'
p21
atp22
a(S'ont'
p23
(dp24
S'VERB'
p25
F1.0
s(lp26
S'is'
p27
atp28
a(S'leur'
p29
(dp30
S'PRON'
p31
F0.9999990000000001
s(lp32
tp33
a(S'racine'
p34
(dp35
S'VERB'
p36
F0.013971
sS'NOUN'
p37
F0.986029
s(lp38
S'rooted'
p39
atp40
a(S'dans'
p41
(dp42
S'NOUN'
p43
F6e-06
sS'ADP'
p44
F0.999994
s(lp45
S'in'
p46
atp47
a(S'le'
p48
(dp49
S'PRON'
p50
F6.2e-05
sS'DET'
p51
F0.999938
s(lp52
S'the'
p53
atp54
a(S'dogmatisme'
p55
(dp56
S'NOUN'
p57
F1.0
s(lp58
S'dogmatism'
p59
atp60
a(S'intrins\xc3\xa8que'
p61
(dp62
S'ADJ'
p63
F1.0
s(lp64
S'inherent'
p65
atp66
a(S'de'
p67
(dp68
S'ADP'
p69
F1.0
s(lp70
S'in'
p71
atp72
a(S'toutes'
p73
(dp74
S'PRON'
p75
F1.0
s(lp76
S'all'
p77
atp78
a(S'les'
p79
(dp80
S'PRON'
p81
F5.7e-05
sS'DET'
p82
F0.999941
sS'ADP'
p83
F2e-06
s(lp84
tp85
a(S'religions'
p86
(dp87
S'NOUN'
p88
F1.0
s(lp89
S'religions'
p90
atp91
a(S'.'
p92
(dp93
g92
F1.0
s(lp94
g92
atp95
asS'en'
p96
(lp97
(g21
(dp98
S'NOUN'
p99
F0.007422
sS'ADJ'
p100
F0.992578
s(lp101
g21
atp102
a(g14
(dp103
S'NOUN'
p104
F1.0
s(lp105
g14
atp106
a(g27
(dp107
S'VERB'
p108
F1.0
s(lp109
g27
atp110
a(g39
(dp111
S'VERB'
p112
F0.991885
sS'ADJ'
p113
F0.008115
s(lp114
g39
atp115
a(g46
(dp116
S'ADV'
p117
F0.000365
sS'PRT'
p118
F0.003767
sS'ADP'
p119
F0.995868
s(lp120
g46
atp121
a(g53
(dp122
S'NOUN'
p123
F1e-06
sS'DET'
p124
F0.999999
s(lp125
g53
atp126
a(g59
(dp127
S'NOUN'
p128
F1.0
s(lp129
g59
atp130
a(S'that'
p131
(dp132
S'ADV'
p133
F0.000585
sS'DET'
p134
F0.999395
sS'ADP'
p135
F2e-05
s(lp136
g131
atp137
a(S'is'
p138
(dp139
S'VERB'
p140
F1.0
s(lp141
g138
atp142
a(g65
(dp143
S'ADJ'
p144
F1.0
s(lp145
g65
atp146
a(g71
(dp147
S'ADV'
p148
F0.000227
sS'PRT'
p149
F0.000213
sS'ADP'
p150
F0.99956
s(lp151
g71
atp152
a(g77
(dp153
S'ADV'
p154
F0.000677
sS'DET'
p155
F0.999323
s(lp156
g77
atp157
a(g90
(dp158
S'NOUN'
p159
F1.0
s(lp160
g90
atp161
a(g92
(dp162
g92
F1.0
s(lp163
g92
atp164
asS'nl'
p165
(lp166
(S'religieus'
p167
(dp168
S'NOUN'
p169
F0.06802
sS'ADJ'
p170
F0.93198
s(lp171
g21
atp172
a(S'geweld'
p173
(dp174
S'VERB'
p175
F0.674893
sS'NOUN'
p176
F0.325107
s(lp177
g14
atp178
a(S'komt'
p179
(dp180
S'VERB'
p181
F1.0
s(lp182
g27
atp183
a(S'voort'
p184
(dp185
S'ADV'
p186
F1.0
s(lp187
g39
atp188
a(S'uit'
p189
(dp190
S'ADV'
p191
F0.194391
sS'VERB'
p192
F1.5e-05
sS'ADP'
p193
F0.805594
s(lp194
g46
atp195
a(S'het'
p196
(dp197
S'PRON'
p198
F0.0010969999999999999
sS'DET'
p199
F0.998904
s(lp200
g53
atp201
a(S'dogmatisme'
p202
(dp203
S'NOUN'
p204
F1.0
s(lp205
g59
atp206
a(S'dat'
p207
(dp208
S'PRON'
p209
F0.323065
sS'CONJ'
p210
F0.676935
s(lp211
g131
atp212
a(S'in'
p213
(dp214
S'ADV'
p215
F0.068761
sS'VERB'
p216
F4e-06
sS'ADP'
p217
F0.931236
s(lp218
g71
atp219
a(S'alle'
p220
(dp221
S'PRON'
p222
F1.0
s(lp223
g77
atp224
a(S'religies'
p225
(dp226
S'NOUN'
p227
F1.0
s(lp228
g90
atp229
a(S'zit'
p230
(dp231
S'VERB'
p232
F0.994854
sS'NOUN'
p233
F0.005146
s(lp234
tp235
a(S'ingebakken'
p236
(dp237
S'ADJ'
p238
F1.0
s(lp239
g65
atp240
a(g92
(dp241
g92
F1.0
s(lp242
g92
atp243
asS'de'
p244
(lp245
(S'religi\xc3\xb6se'
p246
(dp247
S'ADJ'
p248
F1.0
s(lp249
g21
atp250
a(S'gewalt'
p251
(dp252
S'ADJ'
p253
F0.004588
sS'NOUN'
p254
F0.991181
s(lp255
g14
atp256
a(S'ist'
p257
(dp258
S'VERB'
p259
F1.0
s(lp260
g27
atp261
a(S'im'
p262
(dp263
S'ADP'
p264
F1.0
s(lp265
g46
atp266
a(S'dogmatismus'
p267
(dp268
S'ADJ'
p269
F0.012979
sS'NOUN'
p270
F0.974531
s(lp271
g59
atp272
a(S'verwurzelt'
p273
(dp274
S'VERB'
p275
F0.9524360000000001
s(lp276
g39
atp277
a(S','
p278
(dp279
g92
F1.0
s(lp280
g131
atp281
a(S'der'
p282
(dp283
S'PRON'
p284
F0.511583
sS'DET'
p285
F0.487091
s(lp286
g71
atp287
a(S'allen'
p288
(dp289
S'PRON'
p290
F1.0
s(lp291
g77
atp292
a(S'religionen'
p293
(dp294
S'ADJ'
p295
F0.050653
sS'NOUN'
p296
F0.92962
s(lp297
g90
atp298
a(S'inh\xc3\xa4rent'
p299
(dp300
S'ADJ'
p301
F1.0
s(lp302
g65
atp303
a(S'ist'
p304
(dp305
S'VERB'
p306
F1.0
s(lp307
g138
atp308
a(g92
(dp309
g92
F1.0
s(lp310
g92
atp311
asS'it'
p312
(lp313
(S'la'
p314
(dp315
S'PRON'
p316
F0.000408
sS'DET'
p317
F0.999592
s(lp318
tp319
a(S'violenza'
p320
(dp321
S'NOUN'
p322
F1.0
s(lp323
g14
atp324
a(S'religiosa'
p325
(dp326
S'NOUN'
p327
F0.0153
sS'ADJ'
p328
F0.9847
s(lp329
g21
atp330
a(S'\xc3\xa8'
p331
(dp332
S'VERB'
p333
F1.0
s(lp334
g27
atp335
a(S'radicata'
p336
(dp337
S'VERB'
p338
F0.992234
sS'ADJ'
p339
F0.007766
s(lp340
g39
atp341
a(S'nel'
p342
(dp343
S'ADP'
p344
F1.0
s(lp345
g46
atp346
a(S'dogmatismo'
p347
(dp348
S'NOUN'
p349
F1.0
s(lp350
g59
atp351
a(S'insito'
p352
(dp353
S'ADJ'
p354
F1.0
s(lp355
g65
atp356
a(S'in'
p357
(dp358
S'ADP'
p359
F1.0
s(lp360
g71
atp361
a(S'tutte'
p362
(dp363
S'PRON'
p364
F0.058261
sS'ADJ'
p365
F0.941739
s(lp366
g77
atp367
a(S'le'
p368
(dp369
S'PRON'
p370
F7e-06
sS'DET'
p371
F0.999993
s(lp372
tp373
a(S'fedi'
p374
(dp375
S'NOUN'
p376
F1.0
s(lp377
g90
atp378
a(g92
(dp379
g92
F1.0
s(lp380
g92
atp381
asS'sk'
p382
(lp383
(S'n\xc3\xa1siln\xc3\xa9'
p384
(dp385
S'ADJ'
p386
F1.0
s(lp387
g14
atp388
a(S'protin\xc3\xa1bo\xc5\xbeensk\xc3\xa9'
p389
(dp390
S'ADJ'
p391
F1.0
s(lp392
g59
atp393
a(S'\xc4\x8diny'
p394
(dp395
S'NOUN'
p396
F1.0
s(lp397
tp398
a(S's\xc3\xba'
p399
(dp400
S'VERB'
p401
F1.0
s(lp402
g27
atp403
a(S'zakorenen\xc3\xa9'
p404
(dp405
S'VERB'
p406
F1.0
s(lp407
g39
atp408
a(S'v'
p409
(dp410
S'X'
p411
F0.000684
sS'ADP'
p412
F0.999316
s(lp413
g46
atp414
a(S'dogmatizme'
p415
(dp416
S'NOUN'
p417
F1.0
s(lp418
g59
atp419
a(g278
(dp420
g92
F1.0
s(lp421
tp422
a(S'ktor\xc3\xbd'
p423
(dp424
S'PRON'
p425
F1.0
s(lp426
g131
atp427
a(S'je'
p428
(dp429
S'PRON'
p430
F5.7e-05
sS'VERB'
p431
F0.999894
sg411
F4.9e-05
s(lp432
g138
atp433
a(S's\xc3\xba\xc4\x8das\xc5\xa5ou'
p434
(dp435
S'NOUN'
p436
F1.0
s(lp437
g65
atp438
a(S'ka\xc5\xbed\xc3\xa9ho'
p439
(dp440
S'PRON'
p441
F1.0
s(lp442
g77
atp443
a(S'n\xc3\xa1bo\xc5\xbeenstva'
p444
(dp445
S'NOUN'
p446
F1.0
s(lp447
g90
atp448
a(g92
(dp449
g92
F1.0
s(lp450
g92
atp451
asS'pl'
p452
(lp453
(S'przemoc'
p454
(dp455
S'NOUN'
p456
F1.0
s(lp457
g14
atp458
a(S'na'
p459
(dp460
g411
F1e-06
sS'VERB'
p461
F0.0
sS'NOUN'
p462
F0.0
sS'ADP'
p463
F0.9999979999999999
sS'PRT'
p464
F0.0
s(lp465
g71
atp466
a(S'tle'
p467
(dp468
S'NOUN'
p469
F1.0
s(lp470
tp471
a(S'religijnym'
p472
(dp473
S'ADJ'
p474
F0.999999
s(lp475
g21
atp476
a(S'jest'
p477
(dp478
S'VERB'
p479
F1.0
s(lp480
g27
atp481
a(S'zakorzeniona'
p482
(dp483
S'ADJ'
p484
F0.000842
sS'VERB'
p485
F0.9982279999999999
sS'NOUN'
p486
F0.00093
s(lp487
g39
atp488
a(S'w'
p489
(dp490
S'ADJ'
p491
F0.0
sg411
F0.0
sS'NOUN'
p492
F0.0
sS'ADP'
p493
F0.9999999999999999
s(lp494
g46
atp495
a(S'dogmatyzmie'
p496
(dp497
S'VERB'
p498
F2e-06
sS'NOUN'
p499
F0.999997
s(lp500
g59
atp501
a(g278
(dp502
g411
F0.0
sg92
F1.0
s(lp503
tp504
a(S'kt\xc3\xb3ry'
p505
(dp506
S'ADJ'
p507
F0.9999999999999999
s(lp508
g131
atp509
a(S'jest'
p510
(dp511
S'VERB'
p512
F1.0
s(lp513
g138
atp514
a(S'nieodzownym'
p515
(dp516
S'ADV'
p517
F0.000349
sS'NOUN'
p518
F5.9000000000000004e-05
sS'VERB'
p519
F0.000154
sS'ADJ'
p520
F0.9994360000000001
s(lp521
tp522
a(S'elementem'
p523
(dp524
S'NOUN'
p525
F1.0
s(lp526
g65
atp527
a(S'wszystkich'
p528
(dp529
S'NOUN'
p530
F0.008703
sS'ADJ'
p531
F0.9912969999999999
s(lp532
g77
atp533
a(S'wyzna\xc5\x84'
p534
(dp535
S'NOUN'
p536
F1.0
s(lp537
g90
atp538
a(g92
(dp539
g92
F1.0
s(lp540
g92
atp541
asS'sl'
p542
(lp543
(S'versko'
p544
(dp545
S'ADV'
p546
F0.992155
sS'ADJ'
p547
F0.007845
s(lp548
g21
atp549
a(S'nasilje'
p550
(dp551
S'NOUN'
p552
F1.0
s(lp553
g14
atp554
a(S'izvira'
p555
(dp556
S'VERB'
p557
F0.779952
sS'NOUN'
p558
F0.220048
s(lp559
tp560
a(S'iz'
p561
(dp562
g411
F2.2e-05
sS'ADP'
p563
F0.999978
s(lp564
g39
atp565
a(S'dogmatizma'
p566
(dp567
S'NOUN'
p568
F1.0000010000000001
s(lp569
g59
atp570
a(g278
(dp571
g92
F1.0
s(lp572
tp573
a(S'ki'
p574
(dp575
S'CONJ'
p576
F1.0
s(lp577
g131
atp578
a(S'je'
p579
(dp580
S'PRON'
p581
F0.013594
sS'VERB'
p582
F0.986403
sg411
F3e-06
s(lp583
g138
atp584
a(S'lasten'
p585
(dp586
S'ADJ'
p587
F1.0
s(lp588
g65
atp589
a(S'vsem'
p590
(dp591
S'PRON'
p592
F0.9999989999999999
s(lp593
g77
atp594
a(S'veram'
p595
(dp596
S'ADV'
p597
F3.5e-05
sS'ADJ'
p598
F0.00023699999999999996
sS'VERB'
p599
F0.0019809999999999997
sS'NOUN'
p600
F0.9977469999999999
s(lp601
g90
atp602
a(g92
(dp603
g92
F1.0
s(lp604
g92
atp605
asS'es'
p606
(lp607
(S'la'
p608
(dp609
g411
F4.5e-05
sS'DET'
p610
F0.999917
sS'NOUN'
p611
F0.0
sS'PRON'
p612
F3.8e-05
s(lp613
tp614
a(S'violencia'
p615
(dp616
S'NOUN'
p617
F1.0
s(lp618
g14
atp619
a(S'religiosa'
p620
(dp621
S'NOUN'
p622
F0.015791
sS'ADJ'
p623
F0.984209
s(lp624
g21
atp625
a(S'tiene'
p626
(dp627
S'VERB'
p628
F1.0
s(lp629
g27
atp630
a(S'sus'
p631
(dp632
S'PRON'
p633
F1.0
s(lp634
tp635
a(S'ra\xc3\xadces'
p636
(dp637
S'NOUN'
p638
F1.0
s(lp639
g39
atp640
a(S'en'
p641
(dp642
g411
F0.0
sS'CONJ'
p643
F0.0
sS'ADP'
p644
F1.0
s(lp645
g46
atp646
a(S'el'
p647
(dp648
S'PRON'
p649
F5e-06
sS'DET'
p650
F0.999995
s(lp651
g53
atp652
a(S'dogmatismo'
p653
(dp654
S'NOUN'
p655
F1.0
s(lp656
g59
atp657
a(S'inherente'
p658
(dp659
S'ADJ'
p660
F1.0
s(lp661
g65
atp662
a(S'a'
p663
(dp664
g411
F3.4e-05
sS'CONJ'
p665
F8.9e-05
sS'ADP'
p666
F0.999877
s(lp667
g71
atp668
a(S'todas'
p669
(dp670
S'ADJ'
p671
F1.0
s(lp672
g77
atp673
a(S'las'
p674
(dp675
S'PRON'
p676
F0.0
sS'DET'
p677
F1.0
s(lp678
tp679
a(S'religiones'
p680
(dp681
S'NOUN'
p682
F1.0
s(lp683
g90
atp684
a(g92
(dp685
g92
F1.0
s(lp686
g92
atp687
as.