(dp0
S'fr'
p1
(lp2
(S'\xc3\x89vitons'
p3
(dp4
S'VERB'
p5
F1.0
s(lp6
S'let'
p7
atp8
a(S'tout'
p9
(dp10
S'ADV'
p11
F0.923671
sS'PRON'
p12
F0.07497
sS'NOUN'
p13
F0.001358
s(lp14
S'avoid'
p15
atp16
a(S'raccourci'
p17
(dp18
S'VERB'
p19
F0.916745
sS'NOUN'
p20
F0.083255
s(lp21
tp22
a(S'par'
p23
(dp24
S'NOUN'
p25
F2e-05
sS'ADP'
p26
F0.99998
s(lp27
S'in'
p28
atp29
a(S'lequel'
p30
(dp31
S'PRON'
p32
F1.0
s(lp33
S'which'
p34
atp35
a(S'nous'
p36
(dp37
S'PRON'
p38
F1.0
s(lp39
S'we'
p40
atp41
a(S'court-circuitons'
p42
(dp43
S'VERB'
p44
F1.0
s(lp45
S'shortcut'
p46
atp47
a(S'les'
p48
(dp49
S'PRON'
p50
F0.000274
sS'DET'
p51
F0.999692
sS'ADP'
p52
F3.5e-05
s(lp53
S'the'
p54
atp55
a(S'\xc3\x89tats-nations'
p56
(dp57
S'VERB'
p58
F0.00015000000000000001
sS'NOUN'
p59
F0.999849
s(lp60
S'nation'
p61
atp62
a(S'et'
p63
(dp64
S'CONJ'
p65
F1.0
s(lp66
S','
p67
atp68
a(S'l\xc3\xa9gif\xc3\xa9rons'
p69
(dp70
S'VERB'
p71
F1.0
s(lp72
S'legislation'
p73
atp74
a(S'\xc3\xa0'
p75
(dp76
S'ADP'
p77
F1.0
s(lp78
S'for'
p79
atp80
a(S'leur'
p81
(dp82
S'PRON'
p83
F1.0
s(lp84
S'them'
p85
atp86
a(S'place'
p87
(dp88
S'VERB'
p89
F0.000985
sS'NOUN'
p90
F0.999015
s(lp91
S'establish'
p92
atp93
a(S'.'
p94
(dp95
g94
F1.0
s(lp96
g94
atp97
asS'en'
p98
(lp99
(g7
(dp100
S'VERB'
p101
F0.998399
sS'NOUN'
p102
F0.001601
s(lp103
g7
atp104
a(S'us'
p105
(dp106
S'PRON'
p107
F1.0
s(lp108
g105
atp109
a(g67
(dp110
g94
F1.0
s(lp111
g67
atp112
a(S'however'
p113
(dp114
S'ADV'
p115
F1.0
s(lp116
g113
atp117
a(g67
(dp118
g94
F1.0
s(lp119
g67
atp120
a(g15
(dp121
S'VERB'
p122
F1.0
s(lp123
g15
atp124
a(S'such'
p125
(dp126
S'ADV'
p127
F4.7e-05
sS'ADJ'
p128
F0.004318
sS'DET'
p129
F0.995533
sS'ADP'
p130
F0.000101
s(lp131
g125
atp132
a(S'a'
p133
(dp134
S'NOUN'
p135
F0.0
sS'DET'
p136
F1.0
s(lp137
g133
atp138
a(g46
(dp139
S'NOUN'
p140
F1.0
s(lp141
g46
atp142
a(g28
(dp143
S'ADV'
p144
F4e-06
sS'PRT'
p145
F1e-06
sS'ADP'
p146
F0.999995
s(lp147
g28
atp148
a(g34
(dp149
S'DET'
p150
F1.0
s(lp151
g34
atp152
a(g40
(dp153
S'PRON'
p154
F1.0
s(lp155
g40
atp156
a(g67
(dp157
g94
F1.0
s(lp158
g67
atp159
a(S'as'
p160
(dp161
S'ADV'
p162
F0.222032
sS'ADP'
p163
F0.777968
s(lp164
g160
atp165
a(S'it'
p166
(dp167
S'PRON'
p168
F1.0
s(lp169
g166
atp170
a(S'were'
p171
(dp172
S'VERB'
p173
F1.0
s(lp174
g171
atp175
a(g67
(dp176
g94
F1.0
s(lp177
g67
atp178
a(S'over'
p179
(dp180
S'ADV'
p181
F0.02321
sS'PRT'
p182
F7e-06
sS'NOUN'
p183
F0.0
sS'ADP'
p184
F0.976782
s(lp185
g179
atp186
a(g54
(dp187
S'NOUN'
p188
F1.2e-05
sS'DET'
p189
F0.999988
s(lp190
g54
atp191
a(S'heads'
p192
(dp193
S'ADV'
p194
F0.004171
sS'VERB'
p195
F0.046749
sS'NOUN'
p196
F0.94908
s(lp197
g192
atp198
a(S'of'
p199
(dp200
S'ADP'
p201
F1.0
s(lp202
g199
atp203
a(g61
(dp204
S'NOUN'
p205
F1.0
s(lp206
g61
atp207
a(S'states'
p208
(dp209
S'VERB'
p210
F0.00932
sS'NOUN'
p211
F0.99068
s(lp212
g208
atp213
a(g67
(dp214
g94
F1.0
s(lp215
g67
atp216
a(g92
(dp217
S'VERB'
p218
F1.0
s(lp219
g92
atp220
a(S'certain'
p221
(dp222
S'ADJ'
p223
F1.0
s(lp224
g221
atp225
a(g73
(dp226
S'NOUN'
p227
F1.0
s(lp228
g73
atp229
a(g79
(dp230
S'ADP'
p231
F1.0
s(lp232
g79
atp233
a(g85
(dp234
S'PRON'
p235
F1.0
s(lp236
g85
atp237
a(g94
(dp238
g94
F1.0
s(lp239
g94
atp240
asS'nl'
p241
(lp242
(S'laten'
p243
(dp244
S'VERB'
p245
F0.999854
sS'NOUN'
p246
F0.000146
s(lp247
g7
atp248
a(S'we'
p249
(dp250
S'PRON'
p251
F1.0
s(lp252
g105
atp253
a(S'echter'
p254
(dp255
S'ADV'
p256
F0.99998
sS'ADJ'
p257
F2e-05
s(lp258
g113
atp259
a(S'niet'
p260
(dp261
S'ADV'
p262
F0.999988
sS'PRON'
p263
F7e-06
sS'VERB'
p264
F5e-06
sS'X'
p265
F0.0
s(lp266
tp267
a(S'toegeven'
p268
(dp269
S'VERB'
p270
F0.981628
sS'NOUN'
p271
F0.018372
s(lp272
g46
atp273
a(S'aan'
p274
(dp275
S'ADV'
p276
F0.018582
sS'ADP'
p277
F0.981418
s(lp278
tp279
a(S'de'
p280
(dp281
S'DET'
p282
F1.0
s(lp283
tp284
a(S'verleiding'
p285
(dp286
S'NOUN'
p287
F1.0
s(lp288
g46
atp289
a(S'om'
p290
(dp291
S'ADV'
p292
F0.001848
sS'CONJ'
p293
F0.421839
sS'ADP'
p294
F0.576313
s(lp295
g28
atp296
a(S'een'
p297
(dp298
S'ADJ'
p299
F1e-06
sS'PRON'
p300
F0.00052
sS'NUM'
p301
F1e-06
sS'DET'
p302
F0.999479
s(lp303
g133
atp304
a(S'kortere'
p305
(dp306
S'NOUN'
p307
F0.078363
sS'ADJ'
p308
F0.921637
s(lp309
g46
atp310
a(S'weg'
p311
(dp312
S'ADV'
p313
F0.118122
sS'NOUN'
p314
F0.881878
s(lp315
tp316
a(S'te'
p317
(dp318
S'PRT'
p319
F1.0
s(lp320
g15
atp321
a(S'nemen'
p322
(dp323
S'VERB'
p324
F0.999954
sS'NOUN'
p325
F4.6e-05
s(lp326
g46
atp327
a(S'waarbij'
p328
(dp329
S'ADV'
p330
F1.0
s(lp331
g34
atp332
a(S'we'
p333
(dp334
S'PRON'
p335
F1.0
s(lp336
g40
atp337
a(g67
(dp338
g94
F1.0
s(lp339
g67
atp340
a(S'als'
p341
(dp342
S'CONJ'
p343
F1.0
s(lp344
g160
atp345
a(S'het'
p346
(dp347
S'PRON'
p348
F0.6292179999999999
sS'DET'
p349
F0.370782
s(lp350
g166
atp351
a(S'ware'
p352
(dp353
S'ADJ'
p354
F0.014759
sS'VERB'
p355
F0.63535
sS'NOUN'
p356
F0.349892
s(lp357
g171
atp358
a(S'over'
p359
(dp360
S'ADV'
p361
F0.069132
sS'ADP'
p362
F0.930868
s(lp363
g179
atp364
a(S'de'
p365
(dp366
S'DET'
p367
F1.0
s(lp368
g54
atp369
a(S'hoofden'
p370
(dp371
S'NOUN'
p372
F1.0
s(lp373
g192
atp374
a(S'van'
p375
(dp376
S'ADP'
p377
F1.0
s(lp378
g199
atp379
a(S'de'
p380
(dp381
S'DET'
p382
F1.0
s(lp383
tp384
a(S'nationale'
p385
(dp386
S'NOUN'
p387
F2.5e-05
sS'ADJ'
p388
F0.999975
s(lp389
g61
atp390
a(S'staten'
p391
(dp392
S'NOUN'
p393
F1.0
s(lp394
tp395
a(S'heen'
p396
(dp397
S'ADV'
p398
F1.0
s(lp399
g208
atp400
a(g67
(dp401
g94
F1.0
s(lp402
g67
atp403
a(S'voor'
p404
(dp405
S'ADV'
p406
F0.003738
sS'CONJ'
p407
F8.8e-05
sS'NOUN'
p408
F0.0
sS'ADP'
p409
F0.996174
s(lp410
g79
atp411
a(S'deze'
p412
(dp413
S'PRON'
p414
F1.0
s(lp415
tp416
a(S'landen'
p417
(dp418
S'VERB'
p419
F0.008059
sS'NOUN'
p420
F0.9919399999999999
s(lp421
g85
atp422
a(S'bepaalde'
p423
(dp424
S'NOUN'
p425
F0.002672
sS'VERB'
p426
F0.000594
sS'ADJ'
p427
F0.996734
s(lp428
g221
atp429
a(S'regelgeving'
p430
(dp431
S'NOUN'
p432
F1.0
s(lp433
g73
atp434
a(S'uitvaardigen'
p435
(dp436
S'VERB'
p437
F0.998533
sS'NOUN'
p438
F0.001467
s(lp439
g92
atp440
a(g94
(dp441
g94
F1.0
s(lp442
g94
atp443
asS'de'
p444
(lp445
(S'wir'
p446
(dp447
S'PRON'
p448
F1.0
s(lp449
tp450
a(S'wollen'
p451
(dp452
S'VERB'
p453
F1.0
s(lp454
g7
atp455
a(S'eine'
p456
(dp457
S'PRON'
p458
F0.002376
sS'DET'
p459
F0.99762
s(lp460
g133
atp461
a(S'solche'
p462
(dp463
S'PRON'
p464
F1.0
s(lp465
g125
atp466
a(S'abk\xc3\xbcrzung'
p467
(dp468
S'VERB'
p469
F0.01029
sS'NOUN'
p470
F0.987368
s(lp471
tp472
a(S'vermeiden'
p473
(dp474
S'VERB'
p475
F1.0
s(lp476
g15
atp477
a(g67
(dp478
g94
F1.0
s(lp479
g67
atp480
a(S'bei'
p481
(dp482
S'PRT'
p483
F0.001085
sS'ADP'
p484
F0.998915
s(lp485
g113
atp486
a(S'der'
p487
(dp488
S'PRON'
p489
F0.166262
sS'DET'
p490
F0.825245
s(lp491
g34
atp492
a(S'wir'
p493
(dp494
S'PRON'
p495
F1.0
s(lp496
g40
atp497
a(S'gleicherma\xc3\x9fen'
p498
(dp499
S'ADV'
p500
F0.990632
sS'VERB'
p501
F0.009368
s(lp502
g46
atp503
a(S'\xc3\xbcber'
p504
(dp505
S'PRT'
p506
F0.000322
sS'ADP'
p507
F0.999678
s(lp508
g179
atp509
a(S'die'
p510
(dp511
S'PRON'
p512
F0.50512
sS'DET'
p513
F0.488971
s(lp514
g54
atp515
a(S'k\xc3\xb6pfe'
p516
(dp517
S'VERB'
p518
F1.0
s(lp519
tp520
a(S'der'
p521
(dp522
S'PRON'
p523
F0.000736
sS'DET'
p524
F0.999263
s(lp525
g199
atp526
a(S'nationalstaaten'
p527
(dp528
S'ADJ'
p529
F0.02747
sS'NOUN'
p530
F0.950116
s(lp531
g61
atp532
a(S'hinweg'
p533
(dp534
S'ADV'
p535
F0.9696
sS'PRT'
p536
F0.0304
s(lp537
g192
atp538
a(S'f\xc3\xbcr'
p539
(dp540
S'ADP'
p541
F1.0
s(lp542
g79
atp543
a(S'diese'
p544
(dp545
S'PRON'
p546
F1.0
s(lp547
g85
atp548
a(S'bestimmte'
p549
(dp550
S'VERB'
p551
F0.00043
sS'ADJ'
p552
F0.99957
s(lp553
g221
atp554
a(S'gesetze'
p555
(dp556
S'ADJ'
p557
F0.004269
sS'NOUN'
p558
F0.992811
s(lp559
g73
atp560
a(S'erlassen'
p561
(dp562
S'VERB'
p563
F0.989424
s(lp564
g92
atp565
a(g94
(dp566
g94
F1.0
s(lp567
g94
atp568
asS'it'
p569
(lp570
(S'evitiamo'
p571
(dp572
S'VERB'
p573
F1.0
s(lp574
g7
atp575
a(g67
(dp576
g94
F1.0
s(lp577
g67
atp578
a(S'per\xc3\xb2'
p579
(dp580
S'ADV'
p581
F1.0
s(lp582
g113
atp583
a(g67
(dp584
g94
F1.0
s(lp585
g67
atp586
a(S'simili'
p587
(dp588
S'NOUN'
p589
F0.05446
sS'ADJ'
p590
F0.94554
s(lp591
g125
atp592
a(S'scorciatoie'
p593
(dp594
S'NOUN'
p595
F1.0
s(lp596
g46
atp597
a(S'con'
p598
(dp599
S'ADP'
p600
F1.0
s(lp601
g28
atp602
a(S'cui'
p603
(dp604
S'PRON'
p605
F1.0
s(lp606
g34
atp607
a(g67
(dp608
g94
F1.0
s(lp609
g67
atp610
a(S'per'
p611
(dp612
S'CONJ'
p613
F0.402
sS'ADP'
p614
F0.598
s(lp615
g160
atp616
a(S'cos\xc3\xac'
p617
(dp618
S'ADV'
p619
F0.993297
sS'CONJ'
p620
F0.006703
s(lp621
g46
atp622
a(S'dire'
p623
(dp624
S'VERB'
p625
F0.806027
sS'ADJ'
p626
F0.193973
s(lp627
g171
atp628
a(g67
(dp629
g94
F1.0
s(lp630
g67
atp631
a(S'istituire'
p632
(dp633
S'VERB'
p634
F1.0
s(lp635
g92
atp636
a(S'leggi'
p637
(dp638
S'VERB'
p639
F0.18606899999999998
sS'NOUN'
p640
F0.813931
s(lp641
g73
atp642
a(S'eludendo'
p643
(dp644
S'VERB'
p645
F1.0
s(lp646
tp647
a(S'i'
p648
(dp649
S'DET'
p650
F1.0
s(lp651
g192
atp652
a(S'controlli'
p653
(dp654
S'VERB'
p655
F0.000129
sS'NOUN'
p656
F0.999871
s(lp657
g46
atp658
a(S'degli'
p659
(dp660
S'DEF'
p661
F0.00127
sS'ADP'
p662
F0.99873
s(lp663
tp664
a(S'stati'
p665
(dp666
S'VERB'
p667
F0.458506
sS'NOUN'
p668
F0.541494
s(lp669
g208
atp670
a(S'nazione'
p671
(dp672
S'NOUN'
p673
F1.0
s(lp674
g61
atp675
a(g94
(dp676
g94
F1.0
s(lp677
g94
atp678
asS'sk'
p679
(lp680
(S'vyh\xc3\xbdbajme'
p681
(dp682
S'VERB'
p683
F1.0
s(lp684
g46
atp685
a(S'sa'
p686
(dp687
S'PRT'
p688
F0.999969
sS'ADP'
p689
F1e-06
sg265
F3e-05
s(lp690
g15
atp691
a(S'v\xc5\xa1ak'
p692
(dp693
g265
F0.960571
sS'CONJ'
p694
F0.039429
s(lp695
g113
atp696
a(S'takejto'
p697
(dp698
S'PRON'
p699
F1.0
s(lp700
g125
atp701
a(S'skratke'
p702
(dp703
S'NOUN'
p704
F1.0
s(lp705
g46
atp706
a(g67
(dp707
g94
F1.0
s(lp708
g67
atp709
a(S'ktorou'
p710
(dp711
S'PRON'
p712
F1.0
s(lp713
g46
atp714
a(S'takpovediac'
p715
(dp716
g265
F1.0
s(lp717
g46
atp718
a(S'poza'
p719
(dp720
S'ADP'
p721
F1.0
s(lp722
g46
atp723
a(S'chrb\xc3\xa1t'
p724
(dp725
S'NOUN'
p726
F1.0
s(lp727
tp728
a(S'n\xc3\xa1rodn\xc3\xbdch'
p729
(dp730
S'ADJ'
p731
F1.0
s(lp732
g61
atp733
a(S'\xc5\xa1t\xc3\xa1tov'
p734
(dp735
S'NOUN'
p736
F1.0
s(lp737
g208
atp738
a(S'ustanovujeme'
p739
(dp740
S'VERB'
p741
F1.0
s(lp742
g46
atp743
a(S'pre'
p744
(dp745
g265
F2.6e-05
sS'ADP'
p746
F0.999974
s(lp747
g79
atp748
a(S'ne'
p749
(dp750
S'PRON'
p751
F0.999031
sS'ADP'
p752
F4e-06
sg265
F0.0009649999999999999
s(lp753
g85
atp754
a(S'ur\xc4\x8dit\xc3\xa9'
p755
(dp756
S'ADJ'
p757
F1.0
s(lp758
g221
atp759
a(S'pr\xc3\xa1vne'
p760
(dp761
S'ADV'
p762
F4e-06
sS'ADJ'
p763
F0.999996
s(lp764
tp765
a(S'predpisy'
p766
(dp767
S'NOUN'
p768
F1.0
s(lp769
g73
atp770
a(g94
(dp771
g94
F1.0
s(lp772
g94
atp773
asS'pl'
p774
(lp775
(S'unikajmy'
p776
(dp777
S'ADV'
p778
F0.002223
sS'ADJ'
p779
F0.017926
sS'VERB'
p780
F0.8797020000000001
sS'NOUN'
p781
F0.10015300000000002
s(lp782
g46
atp783
a(S'jednak'
p784
(dp785
S'PRT'
p786
F0.285073
sS'CONJ'
p787
F0.714927
s(lp788
g113
atp789
a(S'takiej'
p790
(dp791
S'ADJ'
p792
F1.0
s(lp793
g125
atp794
a(S'drogi'
p795
(dp796
S'ADJ'
p797
F5.9e-05
sS'NOUN'
p798
F0.999942
s(lp799
g46
atp800
a(S'na'
p801
(dp802
g265
F7e-06
sS'VERB'
p803
F1.1e-05
sS'NOUN'
p804
F0.0
sS'ADP'
p805
F0.99998
sS'PRT'
p806
F1e-06
s(lp807
tp808
a(S'skr\xc3\xb3ty'
p809
(dp810
S'NOUN'
p811
F1.0
s(lp812
g46
atp813
a(S'w'
p814
(dp815
S'NOUN'
p816
F0.0
sS'ADJ'
p817
F3.3e-05
sS'ADP'
p818
F0.999966
sg265
F0.0
s(lp819
g133
atp820
a(S'sytuacji'
p821
(dp822
S'NOUN'
p823
F0.999999
s(lp824
g46
atp825
a(g67
(dp826
g265
F0.0
sg94
F1.0
s(lp827
tp828
a(g814
(dp829
S'NOUN'
p830
F3e-06
sS'ADJ'
p831
F3e-06
sS'ADP'
p832
F0.999992
sg265
F2e-06
s(lp833
g28
atp834
a(S'kt\xc3\xb3rej'
p835
(dp836
S'ADJ'
p837
F1.0
s(lp838
g34
atp839
a(S'my'
p840
(dp841
S'PRON'
p842
F0.962473
sS'NOUN'
p843
F0.030948999999999997
sg265
F0.006578
s(lp844
g40
atp845
a(g67
(dp846
g265
F6.8e-05
sg94
F0.999932
s(lp847
g67
atp848
a(S'niejako'
p849
(dp850
S'PRT'
p851
F1.0
s(lp852
g46
atp853
a(S'ponad'
p854
(dp855
S'PRT'
p856
F0.323407
sS'ADP'
p857
F0.676592
s(lp858
g179
atp859
a(S'g\xc5\x82owami'
p860
(dp861
S'NOUN'
p862
F1.0
s(lp863
g192
atp864
a(S'pa\xc5\x84stw'
p865
(dp866
S'NOUN'
p867
F1.0
s(lp868
g208
atp869
a(S'narodowych'
p870
(dp871
S'ADJ'
p872
F1.0
s(lp873
g61
atp874
a(g67
(dp875
g265
F0.0
sg94
F1.0
s(lp876
g67
atp877
a(S'fundujemy'
p878
(dp879
S'ADV'
p880
F0.001516
sS'ADJ'
p881
F0.0014570000000000004
sS'VERB'
p882
F0.9845620000000003
sS'NOUN'
p883
F0.012468
s(lp884
tp885
a(S'im'
p886
(dp887
S'PRON'
p888
F0.9875370000000001
sS'CONJ'
p889
F0.012463
s(lp890
g85
atp891
a(S'pewne'
p892
(dp893
S'ADJ'
p894
F1.0
s(lp895
g221
atp896
a(S'zapisy'
p897
(dp898
S'NOUN'
p899
F1.0
s(lp900
g46
atp901
a(g94
(dp902
g94
F1.0
s(lp903
g94
atp904
asS'sl'
p905
(lp906
(S'vendar'
p907
(dp908
S'ADV'
p909
F0.120781
sS'CONJ'
p910
F0.879219
s(lp911
tp912
a(S'pa'
p913
(dp914
g265
F0.00014
sS'CONJ'
p915
F0.99986
s(lp916
g113
atp917
a(S'se'
p918
(dp919
S'PRON'
p920
F0.999999
sg265
F1e-06
s(lp921
tp922
a(S'moramo'
p923
(dp924
S'VERB'
p925
F1.0
s(lp926
g40
atp927
a(S'izogniti'
p928
(dp929
S'VERB'
p930
F1.0
s(lp931
g15
atp932
a(S'tak\xc5\xa1ni'
p933
(dp934
S'PRON'
p935
F1.0000010000000001
s(lp936
g125
atp937
a(S'bli\xc5\xbenjici'
p938
(dp939
S'ADV'
p940
F0.000793
sS'ADJ'
p941
F8.4e-05
sS'VERB'
p942
F0.0009189999999999999
sS'NOUN'
p943
F0.9982029999999998
s(lp944
g46
atp945
a(g67
(dp946
g94
F1.0
s(lp947
g67
atp948
a(S'na'
p949
(dp950
S'ADP'
p951
F1.0
s(lp952
g28
atp953
a(S'kateri'
p954
(dp955
S'PRON'
p956
F0.999999
s(lp957
g46
atp958
a(S'bi'
p959
(dp960
g265
F0.001149
sS'VERB'
p961
F0.998851
s(lp962
g171
atp963
a(S'prek'
p964
(dp965
S'ADP'
p966
F1.0
s(lp967
g46
atp968
a(S'ple\xc4\x8d'
p969
(dp970
S'ADV'
p971
F0.14134000000000002
sS'ADJ'
p972
F0.20647400000000002
sS'CONJ'
p973
F8.6e-05
sS'VERB'
p974
F9.800000000000002e-05
sS'NOUN'
p975
F0.6520019999999999
s(lp976
g46
atp977
a(S'nacionalnih'
p978
(dp979
S'ADJ'
p980
F1.0
s(lp981
g61
atp982
a(S'dr\xc5\xbeav'
p983
(dp984
S'NOUN'
p985
F1.0
s(lp986
g208
atp987
a(S'zanje'
p988
(dp989
S'PRON'
p990
F1.0
s(lp991
g46
atp992
a(S'oblikovali'
p993
(dp994
S'VERB'
p995
F1.0
s(lp996
tp997
a(S'nekak\xc5\xa1no'
p998
(dp999
S'PRON'
p1000
F1.0
s(lp1001
g46
atp1002
a(S'zakonodajo'
p1003
(dp1004
S'NOUN'
p1005
F1.0
s(lp1006
g73
atp1007
a(g94
(dp1008
g94
F1.0
s(lp1009
g94
atp1010
asS'es'
p1011
(lp1012
(S'no'
p1013
(dp1014
S'ADV'
p1015
F1.0
s(lp1016
tp1017
a(S'obstante'
p1018
(dp1019
S'ADV'
p1020
F1.0
s(lp1021
g113
atp1022
a(g67
(dp1023
g94
F1.0
s(lp1024
g67
atp1025
a(S'impidamos'
p1026
(dp1027
S'VERB'
p1028
F1.0
s(lp1029
g15
atp1030
a(S'ese'
p1031
(dp1032
S'PRON'
p1033
F0.999912
sS'NOUN'
p1034
F8.8e-05
s(lp1035
g125
atp1036
a(S'atajo'
p1037
(dp1038
S'VERB'
p1039
F0.011709
sS'NOUN'
p1040
F0.988291
s(lp1041
g46
atp1042
a(S'por'
p1043
(dp1044
S'ADP'
p1045
F1.0
s(lp1046
g28
atp1047
a(S'el'
p1048
(dp1049
S'PRON'
p1050
F0.000544
sS'DET'
p1051
F0.999456
s(lp1052
tp1053
a(S'que'
p1054
(dp1055
g265
F4e-06
sS'CONJ'
p1056
F0.999996
s(lp1057
g34
atp1058
a(g67
(dp1059
g94
F1.0
s(lp1060
g67
atp1061
a(S'por'
p1062
(dp1063
S'ADP'
p1064
F1.0
s(lp1065
g160
atp1066
a(S'as\xc3\xad'
p1067
(dp1068
S'ADV'
p1069
F0.949124
sS'CONJ'
p1070
F0.050876
s(lp1071
g166
atp1072
a(S'decirlo'
p1073
(dp1074
S'VERB'
p1075
F1.0
s(lp1076
g171
atp1077
a(g67
(dp1078
g94
F1.0
s(lp1079
g67
atp1080
a(S'pasando'
p1081
(dp1082
S'VERB'
p1083
F1.0
s(lp1084
tp1085
a(S'por'
p1086
(dp1087
S'ADP'
p1088
F1.0
s(lp1089
g179
atp1090
a(S'encima'
p1091
(dp1092
S'ADP'
p1093
F1.0
s(lp1094
g192
atp1095
a(S'de'
p1096
(dp1097
S'ADP'
p1098
F1.0
s(lp1099
g199
atp1100
a(S'los'
p1101
(dp1102
S'PRON'
p1103
F0.0
sS'DET'
p1104
F1.0
s(lp1105
tp1106
a(S'estados'
p1107
(dp1108
S'NOUN'
p1109
F1.0
s(lp1110
g208
atp1111
a(S'nacionales'
p1112
(dp1113
S'ADJ'
p1114
F1.0
s(lp1115
g61
atp1116
a(g67
(dp1117
g94
F1.0
s(lp1118
g67
atp1119
a(S'impongamos'
p1120
(dp1121
S'VERB'
p1122
F1.0
s(lp1123
g92
atp1124
a(S'alguna'
p1125
(dp1126
S'ADJ'
p1127
F1.0
s(lp1128
g221
atp1129
a(S'legislaci\xc3\xb3n'
p1130
(dp1131
S'NOUN'
p1132
F1.0
s(lp1133
g73
atp1134
a(S'para'
p1135
(dp1136
S'CONJ'
p1137
F0.000597
sS'ADP'
p1138
F0.999403
s(lp1139
g79
atp1140
a(S'ellos'
p1141
(dp1142
S'PRON'
p1143
F1.0
s(lp1144
g85
atp1145
a(g94
(dp1146
g94
F1.0
s(lp1147
g94
atp1148
as.