(dp0
S'fr'
p1
(lp2
(S'notre'
p3
(dp4
S'PRON'
p5
F1.0
s(lp6
S'our'
p7
atp8
a(S'commission'
p9
(dp10
S'NOUN'
p11
F1.0
s(lp12
S'committee'
p13
atp14
a(S'a'
p15
(dp16
S'VERB'
p17
F1.0
s(lp18
S'took'
p19
atp20
a(S'veill\xc3\xa9'
p21
(dp22
S'VERB'
p23
F1.0
s(lp24
S'care'
p25
atp26
a(S'particuli\xc3\xa8rement'
p27
(dp28
S'ADV'
p29
F1.0
s(lp30
S'particular'
p31
atp32
a(S'aux'
p33
(dp34
S'ADP'
p35
F1.0
s(lp36
S'the'
p37
atp38
a(S'choix'
p39
(dp40
S'NOUN'
p41
F1.0
s(lp42
S'choices'
p43
atp44
a(S'faits'
p45
(dp46
S'NOUN'
p47
F0.021842
sS'VERB'
p48
F0.941374
sS'ADJ'
p49
F0.036784
s(lp50
S'made'
p51
atp52
a(S'par'
p53
(dp54
S'NOUN'
p55
F4e-06
sS'ADP'
p56
F0.999996
s(lp57
S'by'
p58
atp59
a(S"l'"
p60
(dp61
S'ADJ'
p62
F0.160705
sS'VERB'
p63
F0.06481199999999998
sS'NOUN'
p64
F0.774485
s(lp65
tp66
a(S'ensemble'
p67
(dp68
S'ADV'
p69
F0.75163
sS'NOUN'
p70
F0.24837
s(lp71
S'all'
p72
atp73
a(S'des'
p74
(dp75
S'DET'
p76
F9.5e-05
sS'ADP'
p77
F0.999905
s(lp78
S'the'
p79
atp80
a(S'commissions'
p81
(dp82
S'VERB'
p83
F2e-06
sS'NOUN'
p84
F0.999998
s(lp85
S'committees'
p86
atp87
a(S'parlementaires'
p88
(dp89
S'NOUN'
p90
F0.012186
sS'ADJ'
p91
F0.987814
s(lp92
S'parliamentary'
p93
atp94
a(S','
p95
(dp96
S'.'
p97
F1.0
s(lp98
g95
atp99
a(S'mais'
p100
(dp101
S'CONJ'
p102
F1.0
s(lp103
S'but'
p104
atp105
a(S'la'
p106
(dp107
S'PRON'
p108
F0.000103
sS'DET'
p109
F0.999897
sS'NOUN'
p110
F0.0
s(lp111
S'the'
p112
atp113
a(S'prolif\xc3\xa9ration'
p114
(dp115
S'NOUN'
p116
F1.0
s(lp117
S'proliferation'
p118
atp119
a(S'des'
p120
(dp121
S'DET'
p122
F2.1e-05
sS'ADP'
p123
F0.999979
s(lp124
S'of'
p125
atp126
a(S'projets'
p127
(dp128
S'NOUN'
p129
F1.0
s(lp130
S'projects'
p131
atp132
a(S'pilotes'
p133
(dp134
S'VERB'
p135
F0.020555
sS'NOUN'
p136
F0.979444
s(lp137
S'pilot'
p138
atp139
a(S'est'
p140
(dp141
S'VERB'
p142
F0.999744
sS'NOUN'
p143
F0.000256
s(lp144
S'is'
p145
atp146
a(S'une'
p147
(dp148
S'NOUN'
p149
F1.2e-05
sS'NUM'
p150
F0.003917
sS'DET'
p151
F0.996071
s(lp152
tp153
a(S'preuve'
p154
(dp155
S'NOUN'
p156
F1.0
s(lp157
S'evidence'
p158
atp159
a(S'de'
p160
(dp161
S'ADP'
p162
F1.0
s(lp163
S'of'
p164
atp165
a(S'la'
p166
(dp167
S'PRON'
p168
F1.2e-05
sS'DET'
p169
F0.999988
sS'NOUN'
p170
F0.0
s(lp171
S'the'
p172
atp173
a(S'frustration'
p174
(dp175
S'NOUN'
p176
F1.0
s(lp177
tp178
a(S'face'
p179
(dp180
S'NOUN'
p181
F1.0
s(lp182
S'frustration'
p183
atp184
a(S'\xc3\xa0'
p185
(dp186
S'ADP'
p187
F1.0
s(lp188
S'with'
p189
atp190
a(S"l'"
p191
(dp192
S'ADJ'
p193
F0.160704
sS'VERB'
p194
F0.06480800000000002
sS'NOUN'
p195
F0.774488
s(lp196
S'the'
p197
atp198
a(S'\xc3\xa9troitesse'
p199
(dp200
S'NOUN'
p201
F1.0
s(lp202
S'niggardly'
p203
atp204
a(S'de'
p205
(dp206
S'ADP'
p207
F1.0
s(lp208
S'of'
p209
atp210
a(S'ce'
p211
(dp212
S'PRON'
p213
F1.0
s(lp214
S'this'
p215
atp216
a(S'cadre'
p217
(dp218
S'VERB'
p219
F0.050379
sS'NOUN'
p220
F0.949621
s(lp221
S'framework'
p222
atp223
a(S'financier'
p224
(dp225
S'NOUN'
p226
F0.006708
sS'ADJ'
p227
F0.993292
s(lp228
S'financial'
p229
atp230
a(g97
(dp231
g97
F1.0
s(lp232
g97
atp233
asS'en'
p234
(lp235
(g7
(dp236
S'PRON'
p237
F1.0
s(lp238
g7
atp239
a(g13
(dp240
S'NOUN'
p241
F1.0
s(lp242
g13
atp243
a(g19
(dp244
S'VERB'
p245
F1.0
s(lp246
g19
atp247
a(g31
(dp248
S'ADV'
p249
F0.004667
sS'NOUN'
p250
F0.004251
sS'ADJ'
p251
F0.991082
s(lp252
g31
atp253
a(g25
(dp254
S'VERB'
p255
F0.003109
sS'NOUN'
p256
F0.996891
s(lp257
g25
atp258
a(S'over'
p259
(dp260
S'ADV'
p261
F0.002555
sS'PRT'
p262
F0.004593
sS'NOUN'
p263
F1e-06
sS'ADP'
p264
F0.992851
s(lp265
g259
atp266
a(g37
(dp267
S'NOUN'
p268
F1.1e-05
sS'DET'
p269
F0.999989
s(lp270
g37
atp271
a(g43
(dp272
S'NOUN'
p273
F1.0
s(lp274
g43
atp275
a(g51
(dp276
S'VERB'
p277
F0.999936
sS'ADJ'
p278
F6.4e-05
s(lp279
g51
atp280
a(g58
(dp281
S'ADV'
p282
F0.000462
sS'NOUN'
p283
F0.0
sS'ADP'
p284
F0.999538
s(lp285
g58
atp286
a(g72
(dp287
S'ADV'
p288
F0.00291
sS'DET'
p289
F0.99709
s(lp290
g72
atp291
a(g79
(dp292
S'NOUN'
p293
F1e-06
sS'DET'
p294
F0.999999
s(lp295
g79
atp296
a(g93
(dp297
S'ADJ'
p298
F1.0
s(lp299
g93
atp300
a(g86
(dp301
S'VERB'
p302
F6.8e-05
sS'NOUN'
p303
F0.999932
s(lp304
g86
atp305
a(g95
(dp306
g97
F1.0
s(lp307
g95
atp308
a(g104
(dp309
S'ADV'
p310
F0.001969
sS'CONJ'
p311
F0.998031
sS'NOUN'
p312
F0.0
s(lp313
g104
atp314
a(g112
(dp315
S'NOUN'
p316
F2e-06
sS'DET'
p317
F0.999998
s(lp318
g112
atp319
a(g118
(dp320
S'NOUN'
p321
F1.0
s(lp322
g118
atp323
a(g125
(dp324
S'ADP'
p325
F1.0
s(lp326
g125
atp327
a(g138
(dp328
S'ADJ'
p329
F0.236144
sS'VERB'
p330
F1.9e-05
sS'NOUN'
p331
F0.763838
s(lp332
g138
atp333
a(g131
(dp334
S'VERB'
p335
F0.00942
sS'NOUN'
p336
F0.99058
s(lp337
g131
atp338
a(g145
(dp339
S'VERB'
p340
F1.0
s(lp341
g145
atp342
a(g158
(dp343
S'VERB'
p344
F0.000199
sS'NOUN'
p345
F0.999801
s(lp346
g158
atp347
a(g164
(dp348
S'ADP'
p349
F1.0
s(lp350
g164
atp351
a(g172
(dp352
S'NOUN'
p353
F1e-06
sS'DET'
p354
F0.999999
s(lp355
g172
atp356
a(g183
(dp357
S'NOUN'
p358
F1.0
s(lp359
g183
atp360
a(g189
(dp361
S'ADP'
p362
F1.0
s(lp363
g189
atp364
a(g197
(dp365
S'NOUN'
p366
F1e-06
sS'DET'
p367
F0.999999
s(lp368
g197
atp369
a(g203
(dp370
S'ADJ'
p371
F1.0
s(lp372
g203
atp373
a(S'nature'
p374
(dp375
S'NOUN'
p376
F1.0
s(lp377
g374
atp378
a(g209
(dp379
S'ADP'
p380
F1.0
s(lp381
g209
atp382
a(g215
(dp383
S'ADV'
p384
F2.9e-05
sS'NOUN'
p385
F4e-06
sS'DET'
p386
F0.999967
s(lp387
g215
atp388
a(g229
(dp389
S'ADJ'
p390
F1.0
s(lp391
g229
atp392
a(g222
(dp393
S'NOUN'
p394
F1.0
s(lp395
g222
atp396
a(g97
(dp397
g97
F1.0
s(lp398
g97
atp399
asS'nl'
p400
(lp401
(S'onze'
p402
(dp403
S'PRON'
p404
F1.0
s(lp405
g7
atp406
a(S'commissie'
p407
(dp408
S'NOUN'
p409
F1.0
s(lp410
g13
atp411
a(S'hield'
p412
(dp413
S'VERB'
p414
F1.0
s(lp415
tp416
a(S'zich'
p417
(dp418
S'PRON'
p419
F1.0
s(lp420
g19
atp421
a(S'in'
p422
(dp423
S'ADV'
p424
F0.01673
sS'VERB'
p425
F2e-06
sS'ADP'
p426
F0.983268
s(lp427
g189
atp428
a(S'de'
p429
(dp430
S'DET'
p431
F1.0
s(lp432
g197
atp433
a(S'eerste'
p434
(dp435
S'NUM'
p436
F0.999991
sS'NOUN'
p437
F9e-06
s(lp438
g203
atp439
a(S'plaats'
p440
(dp441
S'VERB'
p442
F7.6e-05
sS'NOUN'
p443
F0.999924
s(lp444
g203
atp445
a(S'bezig'
p446
(dp447
S'VERB'
p448
F0.551175
sS'ADJ'
p449
F0.448825
s(lp450
g203
atp451
a(S'met'
p452
(dp453
S'ADP'
p454
F1.0
s(lp455
g31
atp456
a(S'de'
p457
(dp458
S'DET'
p459
F1.0
s(lp460
g37
atp461
a(S'keuzes'
p462
(dp463
S'NOUN'
p464
F1.0
s(lp465
g43
atp466
a(S'van'
p467
(dp468
S'ADP'
p469
F1.0
s(lp470
g58
atp471
a(S'alle'
p472
(dp473
S'PRON'
p474
F1.0
s(lp475
g72
atp476
a(S'parlementaire'
p477
(dp478
S'NOUN'
p479
F4e-06
sS'ADJ'
p480
F0.999996
s(lp481
g93
atp482
a(S'commissies'
p483
(dp484
S'NOUN'
p485
F1.0
s(lp486
g86
atp487
a(g95
(dp488
g97
F1.0
s(lp489
g95
atp490
a(S'maar'
p491
(dp492
S'ADV'
p493
F0.043253
sS'CONJ'
p494
F0.956745
sS'NOUN'
p495
F1e-06
s(lp496
g104
atp497
a(S'de'
p498
(dp499
S'DET'
p500
F1.0
s(lp501
g112
atp502
a(S'enorme'
p503
(dp504
S'NOUN'
p505
F0.006177
sS'ADJ'
p506
F0.993823
s(lp507
tp508
a(S'toename'
p509
(dp510
S'NOUN'
p511
F1.0
s(lp512
g118
atp513
a(S'van'
p514
(dp515
S'ADP'
p516
F1.0
s(lp517
g125
atp518
a(S'proef-'
p519
(dp520
S'ADJ'
p521
F0.006826
sS'NOUN'
p522
F0.9931749999999999
s(lp523
tp524
a(S'en'
p525
(dp526
S'CONJ'
p527
F1.0
s(lp528
tp529
a(S'modelprojecten'
p530
(dp531
S'NOUN'
p532
F1.0
s(lp533
g138
atp534
a(S'is'
p535
(dp536
S'VERB'
p537
F1.0
s(lp538
g145
atp539
a(S'een'
p540
(dp541
S'ADJ'
p542
F2e-06
sS'PRON'
p543
F3.6e-05
sS'NUM'
p544
F1e-06
sS'DET'
p545
F0.999962
s(lp546
tp547
a(S'duidelijk'
p548
(dp549
S'ADJ'
p550
F1.0
s(lp551
tp552
a(S'uiting'
p553
(dp554
S'NOUN'
p555
F1.0
s(lp556
g158
atp557
a(S'van'
p558
(dp559
S'ADP'
p560
F1.0
s(lp561
g164
atp562
a(S'de'
p563
(dp564
S'DET'
p565
F1.0
s(lp566
g172
atp567
a(S'frustraties'
p568
(dp569
S'NOUN'
p570
F1.0
s(lp571
tp572
a(S'over'
p573
(dp574
S'ADV'
p575
F0.017728
sS'ADP'
p576
F0.982272
s(lp577
g183
atp578
a(S'het'
p579
(dp580
S'PRON'
p581
F0.00587
sS'DET'
p582
F0.99413
s(lp583
tp584
a(S'krenterige'
p585
(dp586
S'NOUN'
p587
F0.006147
sS'ADJ'
p588
F0.993853
s(lp589
tp590
a(S'karakter'
p591
(dp592
S'NOUN'
p593
F1.0
s(lp594
g374
atp595
a(S'van'
p596
(dp597
S'ADP'
p598
F1.0
s(lp599
g209
atp600
a(S'het'
p601
(dp602
S'PRON'
p603
F0.001052
sS'DET'
p604
F0.998948
s(lp605
g215
atp606
a(S'mfk'
p607
(dp608
S'ADJ'
p609
F0.03754
sS'NOUN'
p610
F0.9624600000000001
s(lp611
g203
atp612
a(g97
(dp613
g97
F1.0
s(lp614
g97
atp615
asS'de'
p616
(lp617
(S'unser'
p618
(dp619
S'PRON'
p620
F1.0
s(lp621
g7
atp622
a(S'ausschuss'
p623
(dp624
S'ADJ'
p625
F0.009725
sS'NOUN'
p626
F0.972675
s(lp627
g13
atp628
a(S'hat'
p629
(dp630
S'VERB'
p631
F1.0
s(lp632
g19
atp633
a(S'in'
p634
(dp635
S'ADP'
p636
F1.0
s(lp637
g259
atp638
a(S'besonderem'
p639
(dp640
S'ADJ'
p641
F1.0
s(lp642
g31
atp643
a(S'ma\xc3\x9fe'
p644
(dp645
S'VERB'
p646
F1.0
s(lp647
g203
atp648
a(S'die'
p649
(dp650
S'PRON'
p651
F0.000677
sS'DET'
p652
F0.999322
s(lp653
g37
atp654
a(S'entscheidungen'
p655
(dp656
S'ADJ'
p657
F0.000762
sS'NOUN'
p658
F0.998935
s(lp659
g43
atp660
a(S'aller'
p661
(dp662
S'PRON'
p663
F1.0
s(lp664
g72
atp665
a(S'parlamentarischen'
p666
(dp667
S'ADJ'
p668
F1.0
s(lp669
g93
atp670
a(S'aussch\xc3\xbcsse'
p671
(dp672
S'ADJ'
p673
F0.01015
sS'NOUN'
p674
F0.986937
s(lp675
g86
atp676
a(S'ber\xc3\xbccksichtigt'
p677
(dp678
S'VERB'
p679
F0.9861249999999999
s(lp680
tp681
a(g95
(dp682
g97
F1.0
s(lp683
g95
atp684
a(S'doch'
p685
(dp686
S'ADV'
p687
F0.363672
sS'CONJ'
p688
F0.636328
s(lp689
g104
atp690
a(S'die'
p691
(dp692
S'PRON'
p693
F0.035467
sS'DET'
p694
F0.961467
s(lp695
g112
atp696
a(S'zunahme'
p697
(dp698
S'VERB'
p699
F0.03586
sS'NOUN'
p700
F0.96414
s(lp701
g118
atp702
a(S'der'
p703
(dp704
S'PRON'
p705
F2.6e-05
sS'DET'
p706
F0.999966
s(lp707
g125
atp708
a(S'pilotprojekte'
p709
(dp710
S'ADJ'
p711
F0.000238
sS'NOUN'
p712
F0.999553
s(lp713
g138
atp714
a(S'ist'
p715
(dp716
S'VERB'
p717
F1.0
s(lp718
g145
atp719
a(S'ein'
p720
(dp721
S'NUM'
p722
F0.000115
sS'DET'
p723
F0.999775
s(lp724
tp725
a(S'beweis'
p726
(dp727
S'VERB'
p728
F1.0
s(lp729
g158
atp730
a(S'f\xc3\xbcr'
p731
(dp732
S'ADP'
p733
F1.0
s(lp734
g164
atp735
a(S'die'
p736
(dp737
S'PRON'
p738
F5.1e-05
sS'DET'
p739
F0.999934
s(lp740
g172
atp741
a(S'frustration'
p742
(dp743
S'ADJ'
p744
F0.000133
sS'NOUN'
p745
F0.999755
s(lp746
g183
atp747
a(S'angesichts'
p748
(dp749
S'ADP'
p750
F1.0
s(lp751
g189
atp752
a(S'der'
p753
(dp754
S'PRON'
p755
F1.6e-05
sS'DET'
p756
F0.999979
s(lp757
g197
atp758
a(S'begrenztheit'
p759
(dp760
S'ADJ'
p761
F0.000149
sS'NOUN'
p762
F0.999796
s(lp763
g203
atp764
a(S'dieses'
p765
(dp766
S'PRON'
p767
F1.0
s(lp768
g215
atp769
a(S'finanzrahmens'
p770
(dp771
S'ADJ'
p772
F0.034586
sS'NOUN'
p773
F0.960167
s(lp774
g229
atp775
a(g97
(dp776
g97
F1.0
s(lp777
g97
atp778
asS'it'
p779
(lp780
(S'la'
p781
(dp782
S'PRON'
p783
F6.4e-05
sS'DET'
p784
F0.999936
s(lp785
tp786
a(S'nostra'
p787
(dp788
S'PRON'
p789
F1.0
s(lp790
g7
atp791
a(S'commissione'
p792
(dp793
S'NOUN'
p794
F1.0
s(lp795
g13
atp796
a(S'ha'
p797
(dp798
S'VERB'
p799
F1.0
s(lp800
tp801
a(S'tenuto'
p802
(dp803
S'VERB'
p804
F1.0
s(lp805
g19
atp806
a(S'in'
p807
(dp808
S'ADP'
p809
F1.0
s(lp810
tp811
a(S'particolare'
p812
(dp813
S'NOUN'
p814
F0.018879
sS'ADJ'
p815
F0.981121
s(lp816
g31
atp817
a(S'considerazione'
p818
(dp819
S'NOUN'
p820
F1.0
s(lp821
g25
atp822
a(S'le'
p823
(dp824
S'PRON'
p825
F0.000472
sS'DET'
p826
F0.999528
s(lp827
g37
atp828
a(S'scelte'
p829
(dp830
S'ADJ'
p831
F0.024462
sS'VERB'
p832
F0.003068
sS'NOUN'
p833
F0.97247
s(lp834
tp835
a(S'compiute'
p836
(dp837
S'VERB'
p838
F0.805406
sS'ADJ'
p839
F0.194594
s(lp840
g43
atp841
a(S'da'
p842
(dp843
S'ADP'
p844
F1.0
s(lp845
g58
atp846
a(S'tutte'
p847
(dp848
S'PRON'
p849
F0.058261
sS'ADJ'
p850
F0.941739
s(lp851
g72
atp852
a(S'le'
p853
(dp854
S'PRON'
p855
F6.4e-05
sS'DET'
p856
F0.999936
s(lp857
g79
atp858
a(S'commissioni'
p859
(dp860
S'VERB'
p861
F0.001465
sS'NOUN'
p862
F0.998535
s(lp863
g86
atp864
a(S'parlamentari'
p865
(dp866
S'NOUN'
p867
F0.103781
sS'ADJ'
p868
F0.896219
s(lp869
g93
atp870
a(g95
(dp871
g97
F1.0
s(lp872
g95
atp873
a(S'ma'
p874
(dp875
S'CONJ'
p876
F0.999983
sS'NOUN'
p877
F1.7e-05
s(lp878
g104
atp879
a(S'la'
p880
(dp881
S'PRON'
p882
F0.000411
sS'DET'
p883
F0.999589
s(lp884
g112
atp885
a(S'proliferazione'
p886
(dp887
S'NOUN'
p888
F1.0
s(lp889
g118
atp890
a(S'di'
p891
(dp892
S'CONJ'
p893
F5e-06
sS'ADP'
p894
F0.999995
s(lp895
g125
atp896
a(S'progetti'
p897
(dp898
S'VERB'
p899
F0.0037569999999999995
sS'NOUN'
p900
F0.996243
s(lp901
g131
atp902
a(S'pilota'
p903
(dp904
S'VERB'
p905
F0.079961
sS'NOUN'
p906
F0.920039
s(lp907
g138
atp908
a(S'\xc3\xa8'
p909
(dp910
S'VERB'
p911
F1.0
s(lp912
g145
atp913
a(S'la'
p914
(dp915
S'PRON'
p916
F3e-06
sS'DET'
p917
F0.999997
s(lp918
g172
atp919
a(S'prova'
p920
(dp921
S'VERB'
p922
F0.0010040000000000001
sS'NOUN'
p923
F0.998996
s(lp924
g158
atp925
a(S'della'
p926
(dp927
S'DEF'
p928
F0.001649
sS'ADP'
p929
F0.998351
s(lp930
g164
atp931
a(S'frustrazione'
p932
(dp933
S'NOUN'
p934
F1.0
s(lp935
g183
atp936
a(S'per'
p937
(dp938
S'CONJ'
p939
F0.052962
sS'ADP'
p940
F0.947038
s(lp941
g189
atp942
a(S'la'
p943
(dp944
S'PRON'
p945
F0.00021
sS'DET'
p946
F0.99979
s(lp947
g197
atp948
a(S'natura'
p949
(dp950
S'NOUN'
p951
F1.0
s(lp952
g374
atp953
a(S'avara'
p954
(dp955
S'NOUN'
p956
F0.042007
sS'ADJ'
p957
F0.957993
s(lp958
g203
atp959
a(S'di'
p960
(dp961
S'CONJ'
p962
F2.6e-05
sS'ADP'
p963
F0.999974
s(lp964
g209
atp965
a(S'questo'
p966
(dp967
S'PRON'
p968
F1.0
s(lp969
g215
atp970
a(S'quadro'
p971
(dp972
S'ADJ'
p973
F0.023223
sS'VERB'
p974
F0.003244
sS'NOUN'
p975
F0.973533
s(lp976
g222
atp977
a(S'finanziario'
p978
(dp979
S'ADJ'
p980
F1.0
s(lp981
g229
atp982
a(g97
(dp983
g97
F1.0
s(lp984
g97
atp985
asS'sk'
p986
(lp987
(S'n\xc3\xa1\xc5\xa1'
p988
(dp989
S'PRON'
p990
F1.0
s(lp991
g7
atp992
a(S'v\xc3\xbdbor'
p993
(dp994
S'NOUN'
p995
F1.0
s(lp996
g13
atp997
a(S'venoval'
p998
(dp999
S'VERB'
p1000
F0.9999999999999999
s(lp1001
g19
atp1002
a(S'mimoriadnu'
p1003
(dp1004
S'ADJ'
p1005
F1.0
s(lp1006
g31
atp1007
a(S'pozornos\xc5\xa5'
p1008
(dp1009
S'NOUN'
p1010
F1.0
s(lp1011
g25
atp1012
a(S'v\xc3\xbdberu'
p1013
(dp1014
S'NOUN'
p1015
F1.0
s(lp1016
g43
atp1017
a(S'v\xc5\xa1etk\xc3\xbdch'
p1018
(dp1019
S'PRON'
p1020
F1.0
s(lp1021
g72
atp1022
a(S'parlamentn\xc3\xbdch'
p1023
(dp1024
S'ADJ'
p1025
F1.0
s(lp1026
g93
atp1027
a(S'v\xc3\xbdborov'
p1028
(dp1029
S'NOUN'
p1030
F1.0
s(lp1031
g86
atp1032
a(g95
(dp1033
g97
F1.0
s(lp1034
g95
atp1035
a(S'ale'
p1036
(dp1037
S'X'
p1038
F0.0041389999999999995
sS'CONJ'
p1039
F0.995861
s(lp1040
g104
atp1041
a(S'\xc5\xa1\xc3\xadrenie'
p1042
(dp1043
S'NOUN'
p1044
F1.0
s(lp1045
g118
atp1046
a(S'pilotn\xc3\xbdch'
p1047
(dp1048
S'ADJ'
p1049
F1.0
s(lp1050
g138
atp1051
a(S'projektov'
p1052
(dp1053
S'NOUN'
p1054
F1.0
s(lp1055
g131
atp1056
a(S'je'
p1057
(dp1058
g1038
F0.000164
sS'VERB'
p1059
F0.999702
sS'PRON'
p1060
F0.000134
s(lp1061
g145
atp1062
a(S'd\xc3\xb4kazom'
p1063
(dp1064
S'NOUN'
p1065
F1.0
s(lp1066
g158
atp1067
a(S'sklamania'
p1068
(dp1069
S'NOUN'
p1070
F1.0
s(lp1071
g183
atp1072
a(S'z'
p1073
(dp1074
g1038
F0.023364
sS'NOUN'
p1075
F0.0003
sS'ADP'
p1076
F0.976336
s(lp1077
g189
atp1078
a(S've\xc4\xbemi'
p1079
(dp1080
S'ADV'
p1081
F1.0
s(lp1082
tp1083
a(S'\xc5\xa1etrnej'
p1084
(dp1085
S'ADJ'
p1086
F1.0
s(lp1087
g203
atp1088
a(S'povahy'
p1089
(dp1090
g1038
F0.000657
sS'NOUN'
p1091
F0.999343
s(lp1092
g374
atp1093
a(S'tohto'
p1094
(dp1095
S'PRON'
p1096
F0.999744
sg1038
F0.000256
s(lp1097
g215
atp1098
a(S'finan\xc4\x8dn\xc3\xa9ho'
p1099
(dp1100
S'ADJ'
p1101
F1.0
s(lp1102
g229
atp1103
a(S'r\xc3\xa1mca'
p1104
(dp1105
S'NOUN'
p1106
F1.0
s(lp1107
g222
atp1108
a(g97
(dp1109
g97
F1.0
s(lp1110
g97
atp1111
asS'pl'
p1112
(lp1113
(S'nasza'
p1114
(dp1115
S'ADJ'
p1116
F1.0
s(lp1117
g7
atp1118
a(S'komisja'
p1119
(dp1120
S'NOUN'
p1121
F1.0
s(lp1122
g13
atp1123
a(S'szczeg\xc3\xb3lnie'
p1124
(dp1125
S'ADV'
p1126
F0.607951
sS'PRT'
p1127
F0.392049
s(lp1128
g31
atp1129
a(S'uwa\xc5\xbcnie'
p1130
(dp1131
S'ADV'
p1132
F1.0
s(lp1133
g25
atp1134
a(S'zaj\xc4\x99\xc5\x82a'
p1135
(dp1136
S'VERB'
p1137
F1.0
s(lp1138
g19
atp1139
a(S'si\xc4\x99'
p1140
(dp1141
S'PRT'
p1142
F1.0
s(lp1143
g189
atp1144
a(S'preferencjami'
p1145
(dp1146
S'NOUN'
p1147
F1.0
s(lp1148
g203
atp1149
a(S'naszych'
p1150
(dp1151
S'NOUN'
p1152
F0.002556
sS'ADJ'
p1153
F0.9974430000000002
s(lp1154
g43
atp1155
a(S'komisji'
p1156
(dp1157
S'NOUN'
p1158
F1.0
s(lp1159
g86
atp1160
a(S'parlamentarnych'
p1161
(dp1162
S'ADJ'
p1163
F1.000001
s(lp1164
g93
atp1165
a(S';'
p1166
(dp1167
g97
F1.0
s(lp1168
g104
atp1169
a(S'zwraca'
p1170
(dp1171
S'VERB'
p1172
F1.0
s(lp1173
g203
atp1174
a(S'uwag\xc4\x99'
p1175
(dp1176
S'NOUN'
p1177
F1.0
s(lp1178
g203
atp1179
a(S'fakt'
p1180
(dp1181
S'NOUN'
p1182
F1.0
s(lp1183
g203
atp1184
a(S'mno\xc5\xbcenia'
p1185
(dp1186
S'NOUN'
p1187
F1.0
s(lp1188
tp1189
a(S'si\xc4\x99'
p1190
(dp1191
S'PRT'
p1192
F1.0
s(lp1193
g118
atp1194
a(S'projekt\xc3\xb3w'
p1195
(dp1196
S'NOUN'
p1197
F1.0
s(lp1198
g131
atp1199
a(S'pilota\xc5\xbcowych'
p1200
(dp1201
S'ADV'
p1202
F8.2e-05
sS'NOUN'
p1203
F0.016307000000000006
sS'VERB'
p1204
F0.0020719999999999996
sS'ADJ'
p1205
F0.981541
s(lp1206
g138
atp1207
a(g95
(dp1208
g1038
F0.0
sg97
F1.0
s(lp1209
tp1210
a(S'co'
p1211
(dp1212
S'PRT'
p1213
F0.073534
sS'CONJ'
p1214
F0.400162
sS'NOUN'
p1215
F0.5255380000000001
sS'ADP'
p1216
F0.000765
s(lp1217
g215
atp1218
a(S'stanowi'
p1219
(dp1220
S'VERB'
p1221
F1.0
s(lp1222
g145
atp1223
a(S'dow\xc3\xb3d'
p1224
(dp1225
S'NOUN'
p1226
F1.0
s(lp1227
g158
atp1228
a(S'na'
p1229
(dp1230
S'PRT'
p1231
F2e-06
sS'VERB'
p1232
F2e-05
sS'NOUN'
p1233
F1e-06
sS'ADP'
p1234
F0.999976
sg1038
F1e-06
s(lp1235
g172
atp1236
a(S'frustracj\xc4\x99'
p1237
(dp1238
S'NOUN'
p1239
F1.0
s(lp1240
g183
atp1241
a(S'pow\xc5\x9bci\xc4\x85gliw\xc4\x85'
p1242
(dp1243
S'ADV'
p1244
F0.003257
sS'ADJ'
p1245
F0.21475000000000002
sS'VERB'
p1246
F0.0051010000000000005
sS'NOUN'
p1247
F0.776892
s(lp1248
g203
atp1249
a(S'natura'
p1250
(dp1251
S'NOUN'
p1252
F1.0
s(lp1253
tp1254
a(S'tych'
p1255
(dp1256
S'ADJ'
p1257
F0.9999999999999999
s(lp1258
g203
atp1259
a(S'ram'
p1260
(dp1261
S'NOUN'
p1262
F1.0
s(lp1263
g222
atp1264
a(S'finansowych'
p1265
(dp1266
S'ADJ'
p1267
F1.000001
s(lp1268
g229
atp1269
a(g97
(dp1270
g97
F1.0
s(lp1271
g97
atp1272
asS'sl'
p1273
(lp1274
(S'na\xc5\xa1'
p1275
(dp1276
S'PRON'
p1277
F1.0
s(lp1278
g7
atp1279
a(S'odbor'
p1280
(dp1281
S'NOUN'
p1282
F1.0
s(lp1283
g13
atp1284
a(S'je'
p1285
(dp1286
S'PRON'
p1287
F4e-05
sS'VERB'
p1288
F0.99995
sg1038
F1e-05
s(lp1289
g19
atp1290
a(S'skrbno'
p1291
(dp1292
S'ADV'
p1293
F0.999939
sS'ADJ'
p1294
F6.1e-05
s(lp1295
g25
atp1296
a(S'obravnaval'
p1297
(dp1298
S'VERB'
p1299
F1.0
s(lp1300
g203
atp1301
a(S'izbire'
p1302
(dp1303
S'NOUN'
p1304
F0.9999999999999999
s(lp1305
g43
atp1306
a(S'parlamentarnih'
p1307
(dp1308
S'ADJ'
p1309
F0.9999990000000001
s(lp1310
g93
atp1311
a(S'odborov'
p1312
(dp1313
S'NOUN'
p1314
F1.0
s(lp1315
g86
atp1316
a(g95
(dp1317
g97
F1.0
s(lp1318
g95
atp1319
a(S'vendar'
p1320
(dp1321
S'ADV'
p1322
F0.005
sS'CONJ'
p1323
F0.995
s(lp1324
g104
atp1325
a(S'je'
p1326
(dp1327
S'PRON'
p1328
F0.00981
sS'VERB'
p1329
F0.990187
sg1038
F3e-06
s(lp1330
g112
atp1331
a(S'\xc5\xa1irjenje'
p1332
(dp1333
S'NOUN'
p1334
F1.0
s(lp1335
g118
atp1336
a(S'pilotnih'
p1337
(dp1338
S'NOUN'
p1339
F0.0004650000000000001
sS'VERB'
p1340
F1e-06
sS'ADJ'
p1341
F0.999533
s(lp1342
g138
atp1343
a(S'projektov'
p1344
(dp1345
S'NOUN'
p1346
F1.0
s(lp1347
g131
atp1348
a(S'dokaz'
p1349
(dp1350
S'NOUN'
p1351
F1.0
s(lp1352
g158
atp1353
a(S'za'
p1354
(dp1355
S'ADV'
p1356
F1.6e-05
sg1038
F1.6e-05
sS'ADP'
p1357
F0.999968
s(lp1358
g164
atp1359
a(S'razo\xc4\x8daranje'
p1360
(dp1361
S'NOUN'
p1362
F1.0
s(lp1363
g183
atp1364
a(S'zaradi'
p1365
(dp1366
S'ADP'
p1367
F1.0
s(lp1368
tp1369
a(S'omejenosti'
p1370
(dp1371
S'ADV'
p1372
F1.2e-05
sS'ADJ'
p1373
F4e-06
sS'VERB'
p1374
F2.7e-05
sS'NOUN'
p1375
F0.999956
s(lp1376
g203
atp1377
a(S'tega'
p1378
(dp1379
S'PRON'
p1380
F1.0
s(lp1381
g215
atp1382
a(S'finan\xc4\x8dnega'
p1383
(dp1384
S'ADJ'
p1385
F1.0
s(lp1386
g229
atp1387
a(S'okvira'
p1388
(dp1389
S'NOUN'
p1390
F1.0
s(lp1391
g222
atp1392
a(g97
(dp1393
g97
F1.0
s(lp1394
g97
atp1395
asS'es'
p1396
(lp1397
(S'nuestra'
p1398
(dp1399
S'PRON'
p1400
F0.553251
sS'ADJ'
p1401
F0.446749
s(lp1402
g7
atp1403
a(S'comisi\xc3\xb3n'
p1404
(dp1405
S'NOUN'
p1406
F1.0
s(lp1407
g13
atp1408
a(S'ha'
p1409
(dp1410
S'VERB'
p1411
F1.0
s(lp1412
g19
atp1413
a(S'puesto'
p1414
(dp1415
S'CONJ'
p1416
F0.0
sS'VERB'
p1417
F0.99993
sS'NOUN'
p1418
F7e-05
s(lp1419
g203
atp1420
a(S'much\xc3\xadsimo'
p1421
(dp1422
S'ADV'
p1423
F0.993545
sS'ADJ'
p1424
F0.006455
s(lp1425
tp1426
a(S'cuidado'
p1427
(dp1428
S'ADJ'
p1429
F1.0
s(lp1430
g25
atp1431
a(S'en'
p1432
(dp1433
g1038
F0.0
sS'CONJ'
p1434
F1e-06
sS'ADP'
p1435
F0.999999
s(lp1436
g259
atp1437
a(S'las'
p1438
(dp1439
S'PRON'
p1440
F0.0
sS'DET'
p1441
F1.0
s(lp1442
g37
atp1443
a(S'decisiones'
p1444
(dp1445
S'NOUN'
p1446
F1.0
s(lp1447
g43
atp1448
a(S'tomadas'
p1449
(dp1450
S'VERB'
p1451
F1.0
s(lp1452
g51
atp1453
a(S'por'
p1454
(dp1455
S'ADP'
p1456
F1.0
s(lp1457
g58
atp1458
a(S'todas'
p1459
(dp1460
S'ADJ'
p1461
F1.0
s(lp1462
g72
atp1463
a(S'las'
p1464
(dp1465
S'PRON'
p1466
F0.0
sS'DET'
p1467
F1.0
s(lp1468
g79
atp1469
a(S'comisiones'
p1470
(dp1471
S'VERB'
p1472
F0.000104
sS'NOUN'
p1473
F0.999896
s(lp1474
g86
atp1475
a(S'parlamentarias'
p1476
(dp1477
S'NOUN'
p1478
F0.009109
sS'ADJ'
p1479
F0.990891
s(lp1480
g93
atp1481
a(g95
(dp1482
g97
F1.0
s(lp1483
g95
atp1484
a(S'pero'
p1485
(dp1486
S'CONJ'
p1487
F0.99991
sS'NOUN'
p1488
F9e-05
s(lp1489
g104
atp1490
a(S'la'
p1491
(dp1492
S'PRON'
p1493
F0.000187
sS'DET'
p1494
F0.999812
sS'NOUN'
p1495
F0.0
sg1038
F0.0
s(lp1496
g112
atp1497
a(S'proliferaci\xc3\xb3n'
p1498
(dp1499
S'NOUN'
p1500
F1.0
s(lp1501
g118
atp1502
a(S'de'
p1503
(dp1504
g1038
F2.9e-05
sS'CONJ'
p1505
F0.000449
sS'ADP'
p1506
F0.999522
s(lp1507
g125
atp1508
a(S'proyectos'
p1509
(dp1510
S'NOUN'
p1511
F1.0
s(lp1512
g131
atp1513
a(S'piloto'
p1514
(dp1515
S'NOUN'
p1516
F0.246213
sS'ADJ'
p1517
F0.753787
s(lp1518
g138
atp1519
a(S'evidencia'
p1520
(dp1521
S'VERB'
p1522
F1.0
s(lp1523
g158
atp1524
a(S'la'
p1525
(dp1526
g1038
F0.0
sS'PRON'
p1527
F0.0
sS'DET'
p1528
F1.0
sS'NOUN'
p1529
F0.0
s(lp1530
g172
atp1531
a(S'frustraci\xc3\xb3n'
p1532
(dp1533
S'NOUN'
p1534
F1.0
s(lp1535
g183
atp1536
a(S'ante'
p1537
(dp1538
S'ADP'
p1539
F1.0
s(lp1540
g189
atp1541
a(S'la'
p1542
(dp1543
S'NOUN'
p1544
F0.0
sS'PRON'
p1545
F0.0
sS'DET'
p1546
F0.999999
sg1038
F0.0
s(lp1547
g197
atp1548
a(S'estrechez'
p1549
(dp1550
S'NOUN'
p1551
F1.0
s(lp1552
g203
atp1553
a(S'de'
p1554
(dp1555
g1038
F0.0
sS'CONJ'
p1556
F2.5e-05
sS'ADP'
p1557
F0.999975
s(lp1558
g209
atp1559
a(S'este'
p1560
(dp1561
S'PRON'
p1562
F0.999828
sS'NOUN'
p1563
F0.000172
s(lp1564
g215
atp1565
a(S'marco'
p1566
(dp1567
S'NOUN'
p1568
F1.0
s(lp1569
g222
atp1570
a(S'financiero'
p1571
(dp1572
S'NOUN'
p1573
F0.008827
sS'ADJ'
p1574
F0.991173
s(lp1575
g229
atp1576
a(g97
(dp1577
g97
F1.0
s(lp1578
g97
atp1579
as.