(dp0
S'fr'
p1
(lp2
(S'du'
p3
(dp4
S'ADP'
p5
F1.0
s(lp6
tp7
a(S'reste'
p8
(dp9
S'VERB'
p10
F2e-06
sS'NOUN'
p11
F0.999998
s(lp12
S'besides'
p13
atp14
a(S','
p15
(dp16
S'.'
p17
F1.0
s(lp18
g15
atp19
a(S'la'
p20
(dp21
S'PRON'
p22
F6.9e-05
sS'DET'
p23
F0.999931
sS'NOUN'
p24
F0.0
s(lp25
S'the'
p26
atp27
a(S'connexion'
p28
(dp29
S'NOUN'
p30
F1.0
s(lp31
S'connection'
p32
atp33
a(S'avec'
p34
(dp35
S'ADV'
p36
F0.003815
sS'ADP'
p37
F0.996185
s(lp38
tp39
a(S'la'
p40
(dp41
S'PRON'
p42
F1.2e-05
sS'DET'
p43
F0.999988
sS'NOUN'
p44
F0.0
s(lp45
tp46
a(S'position'
p47
(dp48
S'NOUN'
p49
F1.0
s(lp50
S'hardline'
p51
atp52
a(S'intransigeante'
p53
(dp54
S'ADJ'
p55
F1.0
s(lp56
tp57
a(S'de'
p58
(dp59
S'ADP'
p60
F1.0
s(lp61
S"'s"
p62
atp63
a(S't\xc3\xa9h\xc3\xa9ran'
p64
(dp65
S'NOUN'
p66
F1.0
s(lp67
S'tehran'
p68
atp69
a(S'en'
p70
(dp71
S'PRON'
p72
F0.000406
sS'ADP'
p73
F0.999594
s(lp74
S'with'
p75
atp76
a(S'mati\xc3\xa8re'
p77
(dp78
S'NOUN'
p79
F1.0
s(lp80
g51
atp81
a(S'nucl\xc3\xa9aire'
p82
(dp83
S'NOUN'
p84
F0.015092
sS'ADJ'
p85
F0.984908
s(lp86
S'nuclear'
p87
atp88
a(S'est'
p89
(dp90
S'VERB'
p91
F0.987667
sS'NOUN'
p92
F0.012333
s(lp93
S'is'
p94
atp95
a(S'\xc3\xa9vidente'
p96
(dp97
S'ADJ'
p98
F1.0
s(lp99
S'evident'
p100
atp101
a(g17
(dp102
g17
F1.0
s(lp103
g17
atp104
asS'en'
p105
(lp106
(g13
(dp107
S'ADV'
p108
F0.325692
sS'ADP'
p109
F0.674308
s(lp110
g13
atp111
a(g15
(dp112
g17
F1.0
s(lp113
g15
atp114
a(g26
(dp115
S'NOUN'
p116
F4e-06
sS'DET'
p117
F0.999996
s(lp118
g26
atp119
a(g32
(dp120
S'NOUN'
p121
F1.0
s(lp122
g32
atp123
a(g75
(dp124
S'ADP'
p125
F1.0
s(lp126
g75
atp127
a(g68
(dp128
S'ADV'
p129
F1e-06
sS'ADJ'
p130
F1e-05
sS'VERB'
p131
F1.6e-05
sS'NOUN'
p132
F0.999973
s(lp133
g68
atp134
a(g62
(dp135
S'PRT'
p136
F0.999329
sg17
F0.000671
s(lp137
g62
atp138
a(S'present'
p139
(dp140
S'NOUN'
p141
F0.096839
sS'VERB'
p142
F0.01661
sS'ADJ'
p143
F0.886551
s(lp144
g139
atp145
a(g51
(dp146
S'NOUN'
p147
F1.0
s(lp148
g51
atp149
a(g87
(dp150
S'ADJ'
p151
F1.0
s(lp152
g87
atp153
a(S'course'
p154
(dp155
S'ADV'
p156
F1.1e-05
sS'VERB'
p157
F1e-06
sS'NOUN'
p158
F0.999988
s(lp159
g154
atp160
a(g94
(dp161
S'VERB'
p162
F1.0
s(lp163
g94
atp164
a(g100
(dp165
S'ADJ'
p166
F1.0
s(lp167
g100
atp168
a(g17
(dp169
g17
F1.0
s(lp170
g17
atp171
asS'nl'
p172
(lp173
(S'de'
p174
(dp175
S'DET'
p176
F1.0
s(lp177
g26
atp178
a(S'connectie'
p179
(dp180
S'NOUN'
p181
F1.0
s(lp182
g32
atp183
a(S'overigens'
p184
(dp185
S'ADV'
p186
F1.0
s(lp187
g13
atp188
a(S'met'
p189
(dp190
S'ADP'
p191
F1.0
s(lp192
g75
atp193
a(S'de'
p194
(dp195
S'DET'
p196
F1.0
s(lp197
tp198
a(S'huidige'
p199
(dp200
S'NOUN'
p201
F0.000357
sS'ADJ'
p202
F0.999643
s(lp203
g139
atp204
a(S'harde'
p205
(dp206
S'NOUN'
p207
F0.053572
sS'ADJ'
p208
F0.946428
s(lp209
g51
atp210
a(S'nucleaire'
p211
(dp212
S'NOUN'
p213
F0.020554
sS'ADJ'
p214
F0.979446
s(lp215
g87
atp216
a(S'koers'
p217
(dp218
S'VERB'
p219
F0.037081
sS'NOUN'
p220
F0.962919
s(lp221
g154
atp222
a(S'van'
p223
(dp224
S'ADP'
p225
F1.0
s(lp226
g62
atp227
a(S'teheran'
p228
(dp229
S'NOUN'
p230
F1.0
s(lp231
g68
atp232
a(S'is'
p233
(dp234
S'VERB'
p235
F1.0
s(lp236
g94
atp237
a(S'evident'
p238
(dp239
S'ADJ'
p240
F1.0
s(lp241
g100
atp242
a(g17
(dp243
g17
F1.0
s(lp244
g17
atp245
asS'de'
p246
(lp247
(S'abgesehen'
p248
(dp249
S'VERB'
p250
F0.168218
sS'ADJ'
p251
F0.831782
s(lp252
tp253
a(S'davon'
p254
(dp255
S'ADV'
p256
F0.998341
sS'PRT'
p257
F0.001659
s(lp258
g13
atp259
a(S'ist'
p260
(dp261
S'VERB'
p262
F1.0
s(lp263
g15
atp264
a(S'der'
p265
(dp266
S'PRON'
p267
F0.000203
sS'DET'
p268
F0.999796
s(lp269
g26
atp270
a(S'zusammenhang'
p271
(dp272
S'ADJ'
p273
F0.000133
sS'NOUN'
p274
F0.99975
s(lp275
g32
atp276
a(S'mit'
p277
(dp278
S'PRT'
p279
F0.000336
sS'ADP'
p280
F0.999664
s(lp281
g75
atp282
a(S'dem'
p283
(dp284
S'PRON'
p285
F0.000172
sS'DET'
p286
F0.999818
s(lp287
g62
atp288
a(S'gegenw\xc3\xa4rtigen'
p289
(dp290
S'ADJ'
p291
F1.0
s(lp292
g139
atp293
a(S'harten'
p294
(dp295
S'ADJ'
p296
F1.0
s(lp297
g51
atp298
a(S'nuklearen'
p299
(dp300
S'ADJ'
p301
F1.0
s(lp302
g87
atp303
a(S'kurs'
p304
(dp305
S'ADJ'
p306
F0.007753
sS'NOUN'
p307
F0.992214
s(lp308
g154
atp309
a(S'teherans'
p310
(dp311
S'NOUN'
p312
F0.966227
s(lp313
g68
atp314
a(S'offensichtlich'
p315
(dp316
S'ADJ'
p317
F1.0
s(lp318
g100
atp319
a(g17
(dp320
g17
F1.0
s(lp321
g17
atp322
asS'it'
p323
(lp324
(S'inoltre'
p325
(dp326
S'ADV'
p327
F1.0
s(lp328
g13
atp329
a(g15
(dp330
g17
F1.0
s(lp331
g15
atp332
a(S'il'
p333
(dp334
S'DET'
p335
F1.0
s(lp336
g26
atp337
a(S'collegamento'
p338
(dp339
S'NOUN'
p340
F1.0
s(lp341
g32
atp342
a(S'con'
p343
(dp344
S'ADP'
p345
F1.0
s(lp346
g75
atp347
a(S"l'"
p348
(dp349
S'NOUN'
p350
F0.010333
sS'VERB'
p351
F0.964772
sS'ADJ'
p352
F0.024895
s(lp353
g62
atp354
a(S'irriducibile'
p355
(dp356
S'ADJ'
p357
F1.0
s(lp358
g51
atp359
a(S'corso'
p360
(dp361
S'ADJ'
p362
F0.00284
sS'VERB'
p363
F0.002952
sS'NOUN'
p364
F0.994208
s(lp365
g154
atp366
a(S'nucleare'
p367
(dp368
S'NOUN'
p369
F0.01255
sS'ADJ'
p370
F0.98745
s(lp371
g87
atp372
a(S'intrapreso'
p373
(dp374
S'VERB'
p375
F1.0
s(lp376
tp377
a(S'attualmente'
p378
(dp379
S'ADV'
p380
F1.0
s(lp381
g139
atp382
a(S"dall'"
p383
(dp384
S'ADJ'
p385
F0.050451
sS'NOUN'
p386
F0.949549
s(lp387
g51
atp388
a(S'iran'
p389
(dp390
S'NOUN'
p391
F0.175913
sS'VERB'
p392
F0.06394
sS'ADJ'
p393
F0.760147
s(lp394
g68
atp395
a(S'\xc3\xa8'
p396
(dp397
S'VERB'
p398
F1.0
s(lp399
g94
atp400
a(S'evidente'
p401
(dp402
S'ADJ'
p403
F1.0
s(lp404
g100
atp405
a(g17
(dp406
g17
F1.0
s(lp407
g17
atp408
asS'sk'
p409
(lp410
(S'okrem'
p411
(dp412
S'ADP'
p413
F1.0
s(lp414
tp415
a(S'toho'
p416
(dp417
S'PRON'
p418
F0.999986
sS'X'
p419
F1.4e-05
s(lp420
g13
atp421
a(S'je'
p422
(dp423
S'PRON'
p424
F2.5e-05
sS'VERB'
p425
F0.999965
sg419
F9.999999999999999e-06
s(lp426
g94
atp427
a(S'evidentn\xc3\xa9'
p428
(dp429
S'ADJ'
p430
F1.0
s(lp431
g100
atp432
a(S'prepojenie'
p433
(dp434
S'NOUN'
p435
F1.0
s(lp436
g32
atp437
a(S'so'
p438
(dp439
g419
F8.2e-05
sS'ADP'
p440
F0.999918
s(lp441
g75
atp442
a(S's\xc3\xba\xc4\x8dasnou'
p443
(dp444
S'ADJ'
p445
F1.0
s(lp446
g51
atp447
a(S'tvrdou'
p448
(dp449
S'ADJ'
p450
F1.0
s(lp451
g51
atp452
a(S'l\xc3\xadniou'
p453
(dp454
S'NOUN'
p455
F1.0
s(lp456
tp457
a(S'jadrovej'
p458
(dp459
S'ADJ'
p460
F1.0
s(lp461
g87
atp462
a(S'cesty'
p463
(dp464
S'NOUN'
p465
F1.0
s(lp466
g51
atp467
a(S'teher\xc3\xa1nu'
p468
(dp469
S'ADJ'
p470
F0.019332
sS'NOUN'
p471
F0.980668
s(lp472
g68
atp473
a(g17
(dp474
g17
F1.0
s(lp475
g17
atp476
asS'pl'
p477
(lp478
(S'ponadto'
p479
(dp480
S'PRT'
p481
F0.899429
sS'CONJ'
p482
F0.100571
s(lp483
g13
atp484
a(S'oczywiste'
p485
(dp486
S'ADJ'
p487
F1.000001
s(lp488
g100
atp489
a(S'jest'
p490
(dp491
S'VERB'
p492
F1.0
s(lp493
g94
atp494
a(S'powi\xc4\x85zanie'
p495
(dp496
S'VERB'
p497
F0.164869
sS'NOUN'
p498
F0.835131
s(lp499
g32
atp500
a(S'z'
p501
(dp502
S'PRT'
p503
F2.4e-05
sS'VERB'
p504
F0.000109
sS'NOUN'
p505
F3e-06
sS'ADP'
p506
F0.999859
sg419
F4.9999999999999996e-06
s(lp507
g75
atp508
a(S'prezentowanym'
p509
(dp510
S'ADV'
p511
F0.001673
sS'NOUN'
p512
F0.24667100000000006
sS'VERB'
p513
F0.4745059999999999
sS'ADJ'
p514
F0.2771489999999999
s(lp515
g51
atp516
a(S'obecnie'
p517
(dp518
S'ADV'
p519
F1.0
s(lp520
g139
atp521
a(S'przez'
p522
(dp523
S'ADP'
p524
F1.0
s(lp525
g62
atp526
a(S'teheran'
p527
(dp528
S'ADV'
p529
F0.000532
sS'ADJ'
p530
F0.0039700000000000004
sS'VERB'
p531
F4.4e-05
sS'NOUN'
p532
F0.9954430000000002
sg419
F1.1e-05
s(lp533
g68
atp534
a(S'twardym'
p535
(dp536
S'ADJ'
p537
F1.0
s(lp538
tp539
a(S'kursem'
p540
(dp541
S'NOUN'
p542
F1.0
s(lp543
g51
atp544
a(S'nuklearnym'
p545
(dp546
S'NOUN'
p547
F0.209558
sS'VERB'
p548
F0.419215
sS'ADJ'
p549
F0.37122800000000006
s(lp550
g87
atp551
a(g17
(dp552
g17
F1.0
s(lp553
g17
atp554
asS'sl'
p555
(lp556
(S'poleg'
p557
(dp558
S'ADV'
p559
F0.001018
sS'ADP'
p560
F0.998982
s(lp561
tp562
a(S'tega'
p563
(dp564
S'PRON'
p565
F1.0
s(lp566
g13
atp567
a(S'je'
p568
(dp569
S'PRON'
p570
F0.0002
sS'VERB'
p571
F0.999788
sg419
F1.1e-05
s(lp572
g94
atp573
a(S'povezava'
p574
(dp575
S'NOUN'
p576
F1.0
s(lp577
g32
atp578
a(S's'
p579
(dp580
S'VERB'
p581
F0.0
sS'NOUN'
p582
F1e-05
sS'ADP'
p583
F0.999989
s(lp584
g75
atp585
a(S'sedanjo'
p586
(dp587
S'ADJ'
p588
F1.0
s(lp589
g139
atp590
a(S'jedrsko'
p591
(dp592
S'ADJ'
p593
F1.0
s(lp594
g87
atp595
a(S'usmeritvijo'
p596
(dp597
S'ADV'
p598
F2e-06
sS'ADJ'
p599
F1e-05
sS'VERB'
p600
F2e-06
sS'NOUN'
p601
F0.9999840000000001
s(lp602
g51
atp603
a(S'teherana'
p604
(dp605
S'ADV'
p606
F0.000615
sS'NOUN'
p607
F0.08431699999999999
sS'VERB'
p608
F0.003037
sS'ADJ'
p609
F0.912031
s(lp610
g68
atp611
a(S'o\xc4\x8ditna'
p612
(dp613
S'ADJ'
p614
F1.0
s(lp615
g100
atp616
a(g17
(dp617
g17
F1.0
s(lp618
g17
atp619
asS'es'
p620
(lp621
(S'adem\xc3\xa1s'
p622
(dp623
S'ADV'
p624
F1.0
s(lp625
g13
atp626
a(g15
(dp627
g17
F1.0
s(lp628
g15
atp629
a(S'la'
p630
(dp631
S'PRON'
p632
F3.5e-05
sS'DET'
p633
F0.999959
sS'NOUN'
p634
F0.0
sg419
F5e-06
s(lp635
g26
atp636
a(S'conexi\xc3\xb3n'
p637
(dp638
g419
F1e-06
sS'NOUN'
p639
F0.999999
s(lp640
g32
atp641
a(S'con'
p642
(dp643
S'ADP'
p644
F1.0
s(lp645
g75
atp646
a(S'la'
p647
(dp648
S'NOUN'
p649
F4.9e-05
sS'PRON'
p650
F1e-06
sS'DET'
p651
F0.999941
sg419
F9e-06
s(lp652
tp653
a(S'actual'
p654
(dp655
g419
F0.00062
sS'ADJ'
p656
F0.99938
s(lp657
g139
atp658
a(S'l\xc3\xadnea'
p659
(dp660
S'NOUN'
p661
F1.0
s(lp662
g51
atp663
a(S'dura'
p664
(dp665
S'VERB'
p666
F0.126076
sS'ADJ'
p667
F0.873924
s(lp668
g51
atp669
a(S'en'
p670
(dp671
g419
F1.8e-05
sS'CONJ'
p672
F2.9e-05
sS'ADP'
p673
F0.999952
s(lp674
tp675
a(S'materia'
p676
(dp677
S'NOUN'
p678
F1.0
s(lp679
g51
atp680
a(S'nuclear'
p681
(dp682
S'VERB'
p683
F0.012199
sS'ADJ'
p684
F0.987801
s(lp685
g87
atp686
a(S'de'
p687
(dp688
g419
F5e-05
sS'CONJ'
p689
F0.001495
sS'ADP'
p690
F0.998456
s(lp691
g62
atp692
a(S'teher\xc3\xa1n'
p693
(dp694
S'VERB'
p695
F0.001008
sS'NOUN'
p696
F0.998992
s(lp697
g68
atp698
a(S'resulta'
p699
(dp700
S'VERB'
p701
F1.0
s(lp702
g94
atp703
a(S'evidente'
p704
(dp705
S'ADJ'
p706
F1.0
s(lp707
g100
atp708
a(g17
(dp709
g17
F1.0
s(lp710
g17
atp711
as.