(dp0
S'fr'
p1
(lp2
(S'je'
p3
(dp4
S'PRON'
p5
F1.0
s(lp6
S'i'
p7
atp8
a(S'souhaite'
p9
(dp10
S'VERB'
p11
F1.0
s(lp12
S'want'
p13
atp14
a(S'aussi'
p15
(dp16
S'ADV'
p17
F0.993141
sS'CONJ'
p18
F0.006859
s(lp19
S'also'
p20
atp21
a(S'vous'
p22
(dp23
S'PRON'
p24
F1.0
s(lp25
S'you'
p26
atp27
a(S'demander'
p28
(dp29
S'VERB'
p30
F1.0
s(lp31
S'ask'
p32
atp33
a(S','
p34
(dp35
S'.'
p36
F1.0
s(lp37
g34
atp38
a(S'commissaire'
p39
(dp40
S'NOUN'
p41
F1.0
s(lp42
S'commissioner'
p43
atp44
a(g34
(dp45
g36
F1.0
s(lp46
g34
atp47
a(S"d'"
p48
(dp49
S'ADJ'
p50
F0.13429
sS'VERB'
p51
F0.638201
sS'NOUN'
p52
F0.227509
s(lp53
S'to'
p54
atp55
a(S'envoyer'
p56
(dp57
S'VERB'
p58
F1.0
s(lp59
S'send'
p60
atp61
a(S'des'
p62
(dp63
S'DET'
p64
F0.000198
sS'ADP'
p65
F0.999802
s(lp66
tp67
a(S'personnes'
p68
(dp69
S'NOUN'
p70
F1.0
s(lp71
S'people'
p72
atp73
a(S'de'
p74
(dp75
S'ADP'
p76
F1.0
s(lp77
S'from'
p78
atp79
a(S'notre'
p80
(dp81
S'PRON'
p82
F1.0
s(lp83
S'our'
p84
atp85
a(S'd\xc3\xa9l\xc3\xa9gation'
p86
(dp87
S'NOUN'
p88
F1.0
s(lp89
S'delegation'
p90
atp91
a(S'de'
p92
(dp93
S'ADP'
p94
F1.0
s(lp95
S'in'
p96
atp97
a(S'p\xc3\xa9kin'
p98
(dp99
S'NOUN'
p100
F1.0
s(lp101
S'beijing'
p102
atp103
a(S'au'
p104
(dp105
S'ADP'
p106
F1.0
s(lp107
tp108
a(S'tibet'
p109
(dp110
S'ADJ'
p111
F0.000722
sS'NOUN'
p112
F0.999278
s(lp113
S'tibet'
p114
atp115
a(S'aussi'
p116
(dp117
S'ADV'
p118
F0.990347
sS'CONJ'
p119
F0.009653
s(lp120
S'as'
p121
atp122
a(S'vite'
p123
(dp124
S'ADV'
p125
F0.929433
sS'ADJ'
p126
F0.070567
s(lp127
S'quickly'
p128
atp129
a(S'que'
p130
(dp131
S'ADV'
p132
F0.301738
sS'PRON'
p133
F0.011695
sS'CONJ'
p134
F0.686566
s(lp135
S'as'
p136
atp137
a(S'possible'
p138
(dp139
S'NOUN'
p140
F0.017845
sS'ADJ'
p141
F0.982155
s(lp142
S'possible'
p143
atp144
a(g34
(dp145
g36
F1.0
s(lp146
g34
atp147
a(S'de'
p148
(dp149
S'ADP'
p150
F1.0
s(lp151
S'to'
p152
atp153
a(S'd\xc3\xa9poser'
p154
(dp155
S'VERB'
p156
F1.0
s(lp157
S'submit'
p158
atp159
a(S'une'
p160
(dp161
S'NOUN'
p162
F1.6e-05
sS'NUM'
p163
F0.006904
sS'DET'
p164
F0.993079
s(lp165
S'a'
p166
atp167
a(S'requ\xc3\xaate'
p168
(dp169
S'VERB'
p170
F0.000569
sS'NOUN'
p171
F0.999431
s(lp172
S'request'
p173
atp174
a(S'pour'
p175
(dp176
S'CONJ'
p177
F0.127723
sS'ADP'
p178
F0.872277
s(lp179
S'to'
p180
atp181
a(S'envoyer'
p182
(dp183
S'VERB'
p184
F1.0
s(lp185
S'send'
p186
atp187
a(S'une'
p188
(dp189
S'NOUN'
p190
F5e-06
sS'NUM'
p191
F0.006837
sS'DET'
p192
F0.993158
s(lp193
g166
atp194
a(S'd\xc3\xa9l\xc3\xa9gation'
p195
(dp196
S'NOUN'
p197
F1.0
s(lp198
S'delegation'
p199
atp200
a(S'l\xc3\xa0-bas'
p201
(dp202
S'ADV'
p203
F1.0
s(lp204
S'there'
p205
atp206
a(g34
(dp207
g36
F1.0
s(lp208
g34
atp209
a(S"aujourd'"
p210
(dp211
S'NOUN'
p212
F0.391451
sS'VERB'
p213
F0.125146
sS'ADJ'
p214
F0.483402
s(lp215
tp216
a(S'hui'
p217
(dp218
S'ADJ'
p219
F0.053823
sS'VERB'
p220
F0.524015
sS'NOUN'
p221
F0.422162
s(lp222
S'today'
p223
atp224
a(S'si'
p225
(dp226
S'ADV'
p227
F0.678496
sS'CONJ'
p228
F0.320596
sS'NOUN'
p229
F0.000908
s(lp230
S'if'
p231
atp232
a(S'possible'
p233
(dp234
S'NOUN'
p235
F0.011044
sS'ADJ'
p236
F0.988956
s(lp237
S'possible'
p238
atp239
a(g36
(dp240
g36
F1.0
s(lp241
g36
atp242
asS'en'
p243
(lp244
(g7
(dp245
S'X'
p246
F0.0008
sS'NOUN'
p247
F0.9992
s(lp248
g7
atp249
a(g20
(dp250
S'ADV'
p251
F1.0
s(lp252
g20
atp253
a(g13
(dp254
S'VERB'
p255
F0.9994419999999999
sS'NOUN'
p256
F0.000558
s(lp257
g13
atp258
a(S'to'
p259
(dp260
S'ADV'
p261
F0.0
sS'PRT'
p262
F1.0
sS'ADP'
p263
F0.0
s(lp264
g259
atp265
a(g32
(dp266
S'VERB'
p267
F1.0
s(lp268
g32
atp269
a(g26
(dp270
S'PRON'
p271
F1.0
s(lp272
g26
atp273
a(g34
(dp274
g36
F1.0
s(lp275
g34
atp276
a(g43
(dp277
S'NOUN'
p278
F1.0
s(lp279
g43
atp280
a(g34
(dp281
g36
F1.0
s(lp282
g34
atp283
a(g54
(dp284
S'ADV'
p285
F1e-06
sS'PRT'
p286
F0.999999
sS'ADP'
p287
F0.0
s(lp288
g54
atp289
a(g60
(dp290
S'VERB'
p291
F0.998743
sS'NOUN'
p292
F0.001256
s(lp293
g60
atp294
a(g72
(dp295
S'VERB'
p296
F4e-06
sS'NOUN'
p297
F0.999995
s(lp298
g72
atp299
a(g78
(dp300
S'ADP'
p301
F1.0
s(lp302
g78
atp303
a(g84
(dp304
S'PRON'
p305
F1.0
s(lp306
g84
atp307
a(g90
(dp308
S'NOUN'
p309
F1.0
s(lp310
g90
atp311
a(g96
(dp312
S'ADV'
p313
F8.4e-05
sS'PRT'
p314
F0.000282
sS'ADP'
p315
F0.999633
s(lp316
g96
atp317
a(g102
(dp318
S'NOUN'
p319
F1.0
s(lp320
g102
atp321
a(S'to'
p322
(dp323
S'ADV'
p324
F1e-06
sS'PRT'
p325
F0.999988
sS'ADP'
p326
F1.2e-05
s(lp327
g322
atp328
a(g114
(dp329
S'ADJ'
p330
F0.021287
sS'NOUN'
p331
F0.978714
s(lp332
g114
atp333
a(g121
(dp334
S'ADV'
p335
F0.154608
sS'ADP'
p336
F0.845392
s(lp337
g121
atp338
a(g128
(dp339
S'ADV'
p340
F1.0
s(lp341
g128
atp342
a(g136
(dp343
S'ADV'
p344
F0.262865
sS'ADP'
p345
F0.737135
s(lp346
g136
atp347
a(g143
(dp348
S'ADV'
p349
F0.033222
sS'NOUN'
p350
F0.002243
sS'ADJ'
p351
F0.964535
s(lp352
g143
atp353
a(g34
(dp354
g36
F1.0
s(lp355
g34
atp356
a(g152
(dp357
S'ADV'
p358
F1e-06
sS'PRT'
p359
F0.999999
sS'ADP'
p360
F0.0
s(lp361
g152
atp362
a(g158
(dp363
S'VERB'
p364
F1.0
s(lp365
g158
atp366
a(g166
(dp367
S'NOUN'
p368
F0.0
sS'DET'
p369
F1.0
s(lp370
g166
atp371
a(g173
(dp372
S'VERB'
p373
F0.002304
sS'NOUN'
p374
F0.997696
s(lp375
g173
atp376
a(g180
(dp377
S'ADV'
p378
F0.0
sS'PRT'
p379
F1.0
sS'ADP'
p380
F0.0
s(lp381
g180
atp382
a(g186
(dp383
S'VERB'
p384
F0.999988
sS'NOUN'
p385
F1.2e-05
s(lp386
g186
atp387
a(g166
(dp388
S'NOUN'
p389
F0.0
sS'DET'
p390
F1.0
s(lp391
g166
atp392
a(g199
(dp393
S'NOUN'
p394
F1.0
s(lp395
g199
atp396
a(S'of'
p397
(dp398
S'ADP'
p399
F1.0
s(lp400
g397
atp401
a(S'people'
p402
(dp403
S'VERB'
p404
F4.9999999999999996e-06
sS'NOUN'
p405
F0.999995
s(lp406
g402
atp407
a(g205
(dp408
S'ADV'
p409
F0.900312
sS'ADJ'
p410
F5.6e-05
sS'DET'
p411
F0.099442
sS'ADP'
p412
F0.000189
s(lp413
g205
atp414
a(g34
(dp415
g36
F1.0
s(lp416
g34
atp417
a(g223
(dp418
S'ADV'
p419
F0.038711
sS'NOUN'
p420
F0.961289
s(lp421
g223
atp422
a(g231
(dp423
S'ADP'
p424
F1.0
s(lp425
g231
atp426
a(g238
(dp427
S'ADV'
p428
F0.003841
sS'NOUN'
p429
F0.002661
sS'ADJ'
p430
F0.993497
s(lp431
g238
atp432
a(g36
(dp433
g36
F1.0
s(lp434
g36
atp435
asS'nl'
p436
(lp437
(S'ik'
p438
(dp439
S'PRON'
p440
F0.99997
sS'NOUN'
p441
F3e-05
s(lp442
g7
atp443
a(S'zou'
p444
(dp445
S'VERB'
p446
F1.0
s(lp447
tp448
a(S'u'
p449
(dp450
S'PRON'
p451
F0.999998
sS'NOUN'
p452
F1e-06
s(lp453
g26
atp454
a(S'ook'
p455
(dp456
S'ADV'
p457
F1.0
s(lp458
g20
atp459
a(S'willen'
p460
(dp461
S'VERB'
p462
F0.999569
sS'NOUN'
p463
F0.000432
s(lp464
g13
atp465
a(S'vragen'
p466
(dp467
S'VERB'
p468
F0.990767
sS'NOUN'
p469
F0.009233
s(lp470
g32
atp471
a(g34
(dp472
g36
F1.0
s(lp473
g34
atp474
a(S'mevrouw'
p475
(dp476
S'NOUN'
p477
F1.0
s(lp478
tp479
a(S'de'
p480
(dp481
S'DET'
p482
F1.0
s(lp483
tp484
a(S'commissaris'
p485
(dp486
S'NOUN'
p487
F1.0
s(lp488
g43
atp489
a(g34
(dp490
g36
F1.0
s(lp491
g34
atp492
a(S'om'
p493
(dp494
S'ADV'
p495
F0.013779
sS'CONJ'
p496
F0.97009
sS'ADP'
p497
F0.016131
s(lp498
tp499
a(S'zo'
p500
(dp501
S'ADV'
p502
F0.999985
sg246
F0.0
sS'CONJ'
p503
F1.5e-05
s(lp504
g121
atp505
a(S'snel'
p506
(dp507
S'VERB'
p508
F0.116354
sS'ADJ'
p509
F0.883646
s(lp510
g128
atp511
a(S'mogelijk'
p512
(dp513
S'ADJ'
p514
F1.0
s(lp515
g143
atp516
a(S'vanuit'
p517
(dp518
S'ADP'
p519
F1.0
s(lp520
g78
atp521
a(S'onze'
p522
(dp523
S'PRON'
p524
F1.0
s(lp525
g84
atp526
a(S'delegatie'
p527
(dp528
S'NOUN'
p529
F1.0
s(lp530
g90
atp531
a(S'in'
p532
(dp533
S'ADV'
p534
F0.001589
sS'VERB'
p535
F1e-06
sS'ADP'
p536
F0.99841
s(lp537
g96
atp538
a(S'beijing'
p539
(dp540
S'NOUN'
p541
F1.0
s(lp542
g102
atp543
a(S'mensen'
p544
(dp545
S'NOUN'
p546
F1.0
s(lp547
g72
atp548
a(S'naar'
p549
(dp550
S'CONJ'
p551
F0.001846
sS'ADJ'
p552
F8.5e-05
sS'ADP'
p553
F0.998068
s(lp554
tp555
a(S'tibet'
p556
(dp557
S'ADJ'
p558
F0.006447
sS'NOUN'
p559
F0.9935529999999999
s(lp560
g114
atp561
a(S'te'
p562
(dp563
S'PRT'
p564
F1.0
s(lp565
g322
atp566
a(S'sturen'
p567
(dp568
S'VERB'
p569
F0.9988330000000001
sS'NOUN'
p570
F0.001167
s(lp571
g60
atp572
a(g34
(dp573
g36
F1.0
s(lp574
tp575
a(S'om'
p576
(dp577
S'ADV'
p578
F0.004519
sS'CONJ'
p579
F0.992263
sS'ADP'
p580
F0.003218
s(lp581
g54
atp582
a(g34
(dp583
g36
F1.0
s(lp584
g34
atp585
a(S'eventueel'
p586
(dp587
S'ADJ'
p588
F1.0
s(lp589
g238
atp590
a(S'vandaag'
p591
(dp592
S'ADV'
p593
F1.0
s(lp594
g223
atp595
a(S'nog'
p596
(dp597
S'ADV'
p598
F1.0
s(lp599
tp600
a(g34
(dp601
g36
F1.0
s(lp602
g34
atp603
a(S'een'
p604
(dp605
S'ADJ'
p606
F3e-06
sS'PRON'
p607
F6.8e-05
sS'NUM'
p608
F1e-06
sS'DET'
p609
F0.999929
s(lp610
g166
atp611
a(S'aanvraag'
p612
(dp613
S'VERB'
p614
F1.5e-05
sS'NOUN'
p615
F0.999985
s(lp616
g173
atp617
a(S'in'
p618
(dp619
S'ADV'
p620
F0.994946
sS'VERB'
p621
F0.000188
sS'ADP'
p622
F0.004866
s(lp623
tp624
a(S'te'
p625
(dp626
S'PRT'
p627
F1.0
s(lp628
g152
atp629
a(S'dienen'
p630
(dp631
S'VERB'
p632
F1.0
sS'NOUN'
p633
F0.0
s(lp634
g158
atp635
a(S'om'
p636
(dp637
S'ADV'
p638
F5.5e-05
sS'CONJ'
p639
F0.891786
sS'ADP'
p640
F0.108159
s(lp641
tp642
a(S'een'
p643
(dp644
S'ADJ'
p645
F1e-06
sS'PRON'
p646
F1.6e-05
sS'NUM'
p647
F1e-06
sS'DET'
p648
F0.999982
s(lp649
g166
atp650
a(S'delegatie'
p651
(dp652
S'NOUN'
p653
F1.0
s(lp654
g199
atp655
a(S'van'
p656
(dp657
S'ADP'
p658
F1.0
s(lp659
g397
atp660
a(S'mensen'
p661
(dp662
S'NOUN'
p663
F1.0
s(lp664
g402
atp665
a(S'daar'
p666
(dp667
S'ADV'
p668
F0.443944
sS'CONJ'
p669
F0.556056
s(lp670
g205
atp671
a(S'naartoe'
p672
(dp673
S'NOUN'
p674
F0.416345
sS'ADJ'
p675
F0.583655
s(lp676
tp677
a(S'te'
p678
(dp679
S'PRT'
p680
F1.0
s(lp681
g180
atp682
a(S'sturen'
p683
(dp684
S'VERB'
p685
F0.999249
sS'NOUN'
p686
F0.000751
s(lp687
g186
atp688
a(g36
(dp689
g36
F1.0
s(lp690
g36
atp691
asS'de'
p692
(lp693
(S'dar\xc3\xbcber'
p694
(dp695
S'ADV'
p696
F1.0
sS'PRT'
p697
F0.0
s(lp698
tp699
a(S'hinaus'
p700
(dp701
S'ADV'
p702
F0.721644
sS'PRT'
p703
F0.278356
s(lp704
g20
atp705
a(S'm\xc3\xb6chte'
p706
(dp707
S'VERB'
p708
F1.0
s(lp709
g13
atp710
a(S'ich'
p711
(dp712
S'PRON'
p713
F1.0
s(lp714
g7
atp715
a(S'sie'
p716
(dp717
S'PRON'
p718
F1.0
s(lp719
g26
atp720
a(g34
(dp721
g36
F1.0
s(lp722
g34
atp723
a(S'frau'
p724
(dp725
S'ADJ'
p726
F0.9090860000000001
s(lp727
tp728
a(S'kommissarin'
p729
(dp730
S'ADJ'
p731
F0.351539
sS'NOUN'
p732
F0.609054
s(lp733
g43
atp734
a(g34
(dp735
g36
F1.0
s(lp736
g34
atp737
a(S'auffordern'
p738
(dp739
S'VERB'
p740
F1.0
s(lp741
g32
atp742
a(g34
(dp743
g36
F1.0
s(lp744
g259
atp745
a(S'schnellstm\xc3\xb6glich'
p746
(dp747
S'ADJ'
p748
F1.0
s(lp749
g128
atp750
a(S'abgesandte'
p751
(dp752
S'ADJ'
p753
F1.0
s(lp754
g143
atp755
a(S'unserer'
p756
(dp757
S'PRON'
p758
F1.0
s(lp759
g84
atp760
a(S'delegation'
p761
(dp762
S'ADJ'
p763
F7.5e-05
sS'NOUN'
p764
F0.999872
s(lp765
g90
atp766
a(S'in'
p767
(dp768
S'ADP'
p769
F1.0
s(lp770
g96
atp771
a(S'peking'
p772
(dp773
S'ADJ'
p774
F0.0384
sS'NOUN'
p775
F0.951428
s(lp776
g102
atp777
a(S'nach'
p778
(dp779
S'ADP'
p780
F0.830839
s(lp781
g322
atp782
a(S'tibet'
p783
(dp784
S'ADJ'
p785
F1.0
s(lp786
g114
atp787
a(S'zu'
p788
(dp789
S'PRT'
p790
F0.9998
s(lp791
g54
atp792
a(S'schicken'
p793
(dp794
S'VERB'
p795
F0.999629
sS'ADJ'
p796
F0.000365
s(lp797
g60
atp798
a(g34
(dp799
g36
F1.0
s(lp800
tp801
a(S'um'
p802
(dp803
S'CONJ'
p804
F0.985521
sS'ADP'
p805
F0.01427
s(lp806
g231
atp807
a(S'eventuell'
p808
(dp809
S'ADJ'
p810
F1.0
s(lp811
g238
atp812
a(S'noch'
p813
(dp814
S'ADV'
p815
F0.878686
sS'CONJ'
p816
F0.121314
s(lp817
g205
atp818
a(S'heute'
p819
(dp820
S'ADV'
p821
F0.999874
sS'VERB'
p822
F0.000126
s(lp823
g223
atp824
a(S'einen'
p825
(dp826
S'ADJ'
p827
F0.009651
sS'DET'
p828
F0.987707
s(lp829
g166
atp830
a(S'antrag'
p831
(dp832
S'ADJ'
p833
F0.000151
sS'NOUN'
p834
F0.999831
s(lp835
g173
atp836
a(S'einzureichen'
p837
(dp838
S'VERB'
p839
F1.0
s(lp840
g158
atp841
a(g34
(dp842
g36
F1.0
s(lp843
g34
atp844
a(S'eine'
p845
(dp846
S'PRON'
p847
F0.000565
sS'DET'
p848
F0.999183
s(lp849
g166
atp850
a(S'delegation'
p851
(dp852
S'ADJ'
p853
F0.000195
sS'NOUN'
p854
F0.999459
s(lp855
g199
atp856
a(S'dorthin'
p857
(dp858
S'ADV'
p859
F1.0
s(lp860
tp861
a(S'zu'
p862
(dp863
S'PRT'
p864
F0.999657
s(lp865
g180
atp866
a(S'entsenden'
p867
(dp868
S'VERB'
p869
F1.0
s(lp870
g186
atp871
a(g36
(dp872
g36
F1.0
s(lp873
g36
atp874
asS'it'
p875
(lp876
(S'vorrei'
p877
(dp878
S'VERB'
p879
F1.0
s(lp880
g7
atp881
a(S'inoltre'
p882
(dp883
S'ADV'
p884
F1.0
s(lp885
g20
atp886
a(S'chiederle'
p887
(dp888
S'VERB'
p889
F1.0
s(lp890
g32
atp891
a(g34
(dp892
g36
F1.0
s(lp893
g34
atp894
a(S'signora'
p895
(dp896
S'NOUN'
p897
F1.0
s(lp898
tp899
a(S'commissario'
p900
(dp901
S'VERB'
p902
F0.118816
sS'NOUN'
p903
F0.881184
s(lp904
g43
atp905
a(g34
(dp906
g36
F1.0
s(lp907
g34
atp908
a(S'di'
p909
(dp910
S'CONJ'
p911
F1.2e-05
sS'ADP'
p912
F0.999988
s(lp913
g54
atp914
a(S'inviare'
p915
(dp916
S'VERB'
p917
F1.0
s(lp918
g60
atp919
a(S'quanto'
p920
(dp921
S'ADV'
p922
F0.905701
sS'PRON'
p923
F0.087643
sS'ADJ'
p924
F0.006379
sS'NOUN'
p925
F0.000277
s(lp926
g121
atp927
a(S'prima'
p928
(dp929
S'ADV'
p930
F0.274138
sS'NOUN'
p931
F0.005665
sS'CONJ'
p932
F0.105296
sS'ADJ'
p933
F0.613503
sS'ADP'
p934
F0.001398
s(lp935
g128
atp936
a(S'in'
p937
(dp938
S'ADP'
p939
F1.0
s(lp940
g322
atp941
a(S'tibet'
p942
(dp943
S'NOUN'
p944
F0.277826
sS'ADJ'
p945
F0.722174
s(lp946
g114
atp947
a(S'alcuni'
p948
(dp949
S'PRON'
p950
F1.0
s(lp951
tp952
a(S'rappresentanti'
p953
(dp954
S'ADJ'
p955
F0.007146
sS'VERB'
p956
F0.000131
sS'NOUN'
p957
F0.992723
s(lp958
g72
atp959
a(S'della'
p960
(dp961
S'DEF'
p962
F0.000385
sS'ADP'
p963
F0.999615
s(lp964
g78
atp965
a(S'nostra'
p966
(dp967
S'PRON'
p968
F1.0
s(lp969
g84
atp970
a(S'delegazione'
p971
(dp972
S'NOUN'
p973
F1.0
s(lp974
g90
atp975
a(g166
(dp976
S'CONJ'
p977
F0.000441
sS'ADP'
p978
F0.999559
s(lp979
g96
atp980
a(S'pechino'
p981
(dp982
S'ADJ'
p983
F0.2596
sS'VERB'
p984
F0.005107
sS'NOUN'
p985
F0.735293
s(lp986
g102
atp987
a(g34
(dp988
g36
F1.0
s(lp989
g34
atp990
a(S'di'
p991
(dp992
S'CONJ'
p993
F1.2e-05
sS'ADP'
p994
F0.999988
s(lp995
g152
atp996
a(S'presentare'
p997
(dp998
S'VERB'
p999
F1.0
s(lp1000
g158
atp1001
a(g34
(dp1002
g36
F1.0
s(lp1003
g34
atp1004
a(S'se'
p1005
(dp1006
S'PRON'
p1007
F0.003923
sS'CONJ'
p1008
F0.994399
sS'NOUN'
p1009
F0.001678
s(lp1010
g231
atp1011
a(S'possibile'
p1012
(dp1013
S'NOUN'
p1014
F0.013783
sS'ADJ'
p1015
F0.986217
s(lp1016
g238
atp1017
a(S'oggi'
p1018
(dp1019
S'ADV'
p1020
F0.929377
sS'NOUN'
p1021
F0.070623
s(lp1022
g223
atp1023
a(S'stesso'
p1024
(dp1025
S'NOUN'
p1026
F0.000539
sS'ADJ'
p1027
F0.999461
s(lp1028
g136
atp1029
a(g34
(dp1030
g36
F1.0
s(lp1031
tp1032
a(S'una'
p1033
(dp1034
S'PRON'
p1035
F0.000367
sS'DEF'
p1036
F0.999633
s(lp1037
g166
atp1038
a(S'richiesta'
p1039
(dp1040
S'VERB'
p1041
F0.007212
sS'NOUN'
p1042
F0.992788
s(lp1043
g173
atp1044
a(S'per'
p1045
(dp1046
S'CONJ'
p1047
F0.056667
sS'ADP'
p1048
F0.943333
s(lp1049
g180
atp1050
a(S"l'"
p1051
(dp1052
S'NOUN'
p1053
F0.009781
sS'VERB'
p1054
F0.966391
sS'ADJ'
p1055
F0.023828
s(lp1056
g166
atp1057
a(S'invio'
p1058
(dp1059
S'VERB'
p1060
F0.031686
sS'NOUN'
p1061
F0.968314
s(lp1062
g199
atp1063
a(S'di'
p1064
(dp1065
S'CONJ'
p1066
F4e-06
sS'ADP'
p1067
F0.999996
s(lp1068
g397
atp1069
a(S'rappresentanti'
p1070
(dp1071
S'ADJ'
p1072
F0.019678
sS'VERB'
p1073
F0.012697
sS'NOUN'
p1074
F0.967625
s(lp1075
g402
atp1076
a(S'in'
p1077
(dp1078
S'ADP'
p1079
F1.0
s(lp1080
tp1081
a(S'loco'
p1082
(dp1083
S'VERB'
p1084
F1.0
s(lp1085
g205
atp1086
a(g36
(dp1087
g36
F1.0
s(lp1088
g36
atp1089
asS'sk'
p1090
(lp1091
(S'chcel'
p1092
(dp1093
S'VERB'
p1094
F1.0
s(lp1095
tp1096
a(S'by'
p1097
(dp1098
S'PRT'
p1099
F0.999999
sg246
F1e-06
s(lp1100
g13
atp1101
a(S'som'
p1102
(dp1103
S'VERB'
p1104
F1.0
s(lp1105
g7
atp1106
a(S'v\xc3\xa1s'
p1107
(dp1108
S'PRON'
p1109
F0.999999
sg246
F1e-06
s(lp1110
tp1111
a(S'tie\xc5\xbe'
p1112
(dp1113
g246
F1.0
s(lp1114
g20
atp1115
a(g34
(dp1116
g36
F1.0
s(lp1117
g34
atp1118
a(S'pani'
p1119
(dp1120
S'NOUN'
p1121
F1.0
s(lp1122
tp1123
a(S'komis\xc3\xa1rka'
p1124
(dp1125
S'NOUN'
p1126
F1.0
s(lp1127
g43
atp1128
a(g34
(dp1129
g36
F1.0
s(lp1130
tp1131
a(S'po\xc5\xbeiada\xc5\xa5'
p1132
(dp1133
S'VERB'
p1134
F1.0
s(lp1135
g32
atp1136
a(g34
(dp1137
g36
F1.0
s(lp1138
g34
atp1139
a(S'aby'
p1140
(dp1141
g246
F6e-06
sS'CONJ'
p1142
F0.999994
s(lp1143
g54
atp1144
a(S'ste'
p1145
(dp1146
S'NUM'
p1147
F0.0
sS'VERB'
p1148
F1.0
s(lp1149
tp1150
a(S'poslali'
p1151
(dp1152
S'VERB'
p1153
F1.000001
s(lp1154
g60
atp1155
a(S'\xc4\xbeud\xc3\xad'
p1156
(dp1157
S'NOUN'
p1158
F1.0
s(lp1159
g72
atp1160
a(S'z'
p1161
(dp1162
g246
F8e-06
sS'NOUN'
p1163
F7e-06
sS'ADP'
p1164
F0.999985
s(lp1165
g78
atp1166
a(S'na\xc5\xa1ej'
p1167
(dp1168
S'PRON'
p1169
F0.999939
sg246
F6.1e-05
s(lp1170
g84
atp1171
a(S'deleg\xc3\xa1cie'
p1172
(dp1173
S'NOUN'
p1174
F1.0
s(lp1175
g90
atp1176
a(S'v'
p1177
(dp1178
g246
F0.00048100000000000004
sS'ADP'
p1179
F0.99952
s(lp1180
g96
atp1181
a(S'pekingu'
p1182
(dp1183
S'ADJ'
p1184
F0.053998
sS'NOUN'
p1185
F0.946002
s(lp1186
g102
atp1187
a(S'do'
p1188
(dp1189
g246
F0.00028399999999999996
sS'ADP'
p1190
F0.999634
sS'PRON'
p1191
F8.2e-05
s(lp1192
g322
atp1193
a(S'tibetu'
p1194
(dp1195
S'ADJ'
p1196
F0.050313
sg246
F0.076761
sS'NOUN'
p1197
F0.872927
s(lp1198
g114
atp1199
a(S'hne\xc4\x8f'
p1200
(dp1201
S'ADV'
p1202
F0.929073
sg246
F0.064004
sS'CONJ'
p1203
F0.003606
sS'NOUN'
p1204
F0.003318
s(lp1205
tp1206
a(S'ako'
p1207
(dp1208
S'PRON'
p1209
F0.087145
sS'CONJ'
p1210
F0.912276
sg246
F0.000579
s(lp1211
g121
atp1212
a(S'to'
p1213
(dp1214
S'PRON'
p1215
F0.9609989999999999
sS'CONJ'
p1216
F0.024084
sg246
F0.014917999999999999
s(lp1217
g143
atp1218
a(S'bude'
p1219
(dp1220
g246
F5.1e-05
sS'VERB'
p1221
F0.999949
s(lp1222
tp1223
a(S'mo\xc5\xben\xc3\xa9'
p1224
(dp1225
S'ADJ'
p1226
F1.0
s(lp1227
g143
atp1228
a(g34
(dp1229
g36
F1.0
s(lp1230
g34
atp1231
a(S'aby'
p1232
(dp1233
g246
F6e-06
sS'CONJ'
p1234
F0.999994
s(lp1235
g152
atp1236
a(S'ste'
p1237
(dp1238
S'NUM'
p1239
F0.0
sS'VERB'
p1240
F1.0
s(lp1241
g26
atp1242
a(g34
(dp1243
g36
F1.0
s(lp1244
tp1245
a(S'ak'
p1246
(dp1247
g246
F0.00101
sS'CONJ'
p1248
F0.99899
s(lp1249
g231
atp1250
a(S'to'
p1251
(dp1252
S'PRON'
p1253
F0.960973
sS'CONJ'
p1254
F0.024942
sg246
F0.014084
s(lp1255
g238
atp1256
a(S'bude'
p1257
(dp1258
g246
F5.1e-05
sS'VERB'
p1259
F0.999949
s(lp1260
tp1261
a(S'mo\xc5\xben\xc3\xa9'
p1262
(dp1263
S'ADJ'
p1264
F1.0
s(lp1265
g238
atp1266
a(S'u\xc5\xbe'
p1267
(dp1268
S'ADV'
p1269
F0.119044
sg246
F0.8772059999999999
sS'CONJ'
p1270
F0.00375
s(lp1271
g205
atp1272
a(S'dnes'
p1273
(dp1274
S'ADV'
p1275
F0.999731
sg246
F0.000269
s(lp1276
g223
atp1277
a(g34
(dp1278
g36
F1.0
s(lp1279
g34
atp1280
a(S'po\xc5\xbeiadali'
p1281
(dp1282
S'VERB'
p1283
F0.9999999999999999
s(lp1284
g173
atp1285
a(g34
(dp1286
g36
F1.0
s(lp1287
tp1288
a(S'aby'
p1289
(dp1290
g246
F4.9e-05
sS'CONJ'
p1291
F0.999951
s(lp1292
g180
atp1293
a(S'bola'
p1294
(dp1295
S'VERB'
p1296
F1.0
s(lp1297
tp1298
a(S'do'
p1299
(dp1300
S'PRON'
p1301
F0.000132
sS'ADP'
p1302
F0.99975
sg246
F0.000119
s(lp1303
g166
atp1304
a(S'tibetu'
p1305
(dp1306
S'ADJ'
p1307
F0.099145
sS'NOUN'
p1308
F0.852287
sg246
F0.048568
s(lp1309
g114
atp1310
a(S'vyslan\xc3\xa1'
p1311
(dp1312
S'VERB'
p1313
F1.0
s(lp1314
g186
atp1315
a(S'deleg\xc3\xa1cia'
p1316
(dp1317
S'NOUN'
p1318
F1.0
s(lp1319
g199
atp1320
a(g36
(dp1321
g36
F1.0
s(lp1322
g36
atp1323
asS'pl'
p1324
(lp1325
(S'panie'
p1326
(dp1327
S'NOUN'
p1328
F1.0
s(lp1329
g43
atp1330
a(S'komisarzu'
p1331
(dp1332
S'NOUN'
p1333
F1.0
s(lp1334
tp1335
a(S'!'
p1336
(dp1337
g36
F1.0
s(lp1338
g43
atp1339
a(S'pragn\xc4\x99'
p1340
(dp1341
S'VERB'
p1342
F1.0
s(lp1343
g13
atp1344
a(S'r\xc3\xb3wnie\xc5\xbc'
p1345
(dp1346
S'PRT'
p1347
F0.962183
sS'CONJ'
p1348
F0.037817
s(lp1349
g20
atp1350
a(S'prosi\xc4\x87'
p1351
(dp1352
S'VERB'
p1353
F1.0
s(lp1354
tp1355
a(S'o'
p1356
(dp1357
g246
F0.000162
sS'VERB'
p1358
F1.8e-05
sS'NOUN'
p1359
F1e-06
sS'ADP'
p1360
F0.9998159999999999
sS'PRT'
p1361
F2e-06
s(lp1362
g32
atp1363
a(S'wys\xc5\x82anie'
p1364
(dp1365
S'VERB'
p1366
F1.0
s(lp1367
g60
atp1368
a(S'do'
p1369
(dp1370
g246
F0.0
sS'NOUN'
p1371
F1e-06
sS'ADP'
p1372
F0.999999
s(lp1373
g322
atp1374
a(S'tybetu'
p1375
(dp1376
S'NOUN'
p1377
F1.0
s(lp1378
g114
atp1379
a(S'cz\xc5\x82onk\xc3\xb3w'
p1380
(dp1381
S'NOUN'
p1382
F1.0
s(lp1383
g72
atp1384
a(S'naszej'
p1385
(dp1386
S'ADJ'
p1387
F1.0
s(lp1388
g84
atp1389
a(S'delegacji'
p1390
(dp1391
S'NOUN'
p1392
F1.0
s(lp1393
g90
atp1394
a(S'w'
p1395
(dp1396
S'NOUN'
p1397
F0.0
sS'ADJ'
p1398
F1e-06
sS'ADP'
p1399
F0.999999
sg246
F0.0
s(lp1400
g96
atp1401
a(S'pekinie'
p1402
(dp1403
S'ADJ'
p1404
F0.002298
sS'VERB'
p1405
F1.1e-05
sS'NOUN'
p1406
F0.997694
s(lp1407
g102
atp1408
a(g34
(dp1409
g246
F0.0
sg36
F1.0
s(lp1410
g34
atp1411
a(S'tak'
p1412
(dp1413
S'ADV'
p1414
F0.907602
sS'NOUN'
p1415
F4e-05
sS'PRT'
p1416
F0.089388
sg246
F4e-06
sS'CONJ'
p1417
F0.002959
sS'ADJ'
p1418
F6e-06
s(lp1419
g121
atp1420
a(S'szybko'
p1421
(dp1422
S'ADV'
p1423
F1.0
s(lp1424
g128
atp1425
a(g34
(dp1426
g246
F0.0
sg36
F1.0
s(lp1427
tp1428
a(S'jak'
p1429
(dp1430
S'ADV'
p1431
F0.409617
sS'PRT'
p1432
F0.001111
sS'CONJ'
p1433
F0.12303800000000001
sS'ADP'
p1434
F0.466204
sS'PRON'
p1435
F3e-05
s(lp1436
g136
atp1437
a(S'to'
p1438
(dp1439
S'NOUN'
p1440
F0.765704
sS'ADP'
p1441
F0.0
sS'PRT'
p1442
F0.016579
sg246
F0.0
sS'CONJ'
p1443
F0.040168
sS'ADJ'
p1444
F0.17754799999999998
s(lp1445
tp1446
a(S'mo\xc5\xbcliwe'
p1447
(dp1448
S'ADV'
p1449
F0.003901
sS'ADJ'
p1450
F0.996099
s(lp1451
g143
atp1452
a(g34
(dp1453
g246
F0.0
sg36
F1.0
s(lp1454
g34
atp1455
a(S'przed\xc5\x82o\xc5\xbcy\xc4\x87'
p1456
(dp1457
S'VERB'
p1458
F1.0
s(lp1459
g158
atp1460
a(S'wniosek'
p1461
(dp1462
S'NOUN'
p1463
F1.0
s(lp1464
g173
atp1465
a(g1395
(dp1466
S'ADJ'
p1467
F0.0
sg246
F0.0
sS'NOUN'
p1468
F0.0
sS'ADP'
p1469
F0.999999
s(lp1470
g166
atp1471
a(S'sprawie'
p1472
(dp1473
S'NOUN'
p1474
F1.0
s(lp1475
g180
atp1476
a(S'wys\xc5\x82ania'
p1477
(dp1478
S'ADJ'
p1479
F4.8e-05
sS'VERB'
p1480
F0.9927710000000001
sS'NOUN'
p1481
F0.007182000000000001
s(lp1482
g186
atp1483
a(S'tam'
p1484
(dp1485
S'ADV'
p1486
F0.496624
sS'PRT'
p1487
F0.503376
s(lp1488
g205
atp1489
a(S'delegacji'
p1490
(dp1491
S'NOUN'
p1492
F1.0
s(lp1493
g199
atp1494
a(g34
(dp1495
g246
F0.0
sg36
F1.0
s(lp1496
g34
atp1497
a(S'dzisiaj'
p1498
(dp1499
S'ADV'
p1500
F0.954492
sS'NOUN'
p1501
F0.045508
s(lp1502
g223
atp1503
a(g34
(dp1504
g246
F0.0
sg36
F1.0
s(lp1505
tp1506
a(S'je\xc5\xbceli'
p1507
(dp1508
S'CONJ'
p1509
F1.0
s(lp1510
g231
atp1511
a(S'to'
p1512
(dp1513
S'NOUN'
p1514
F0.7200070000000001
sS'ADP'
p1515
F0.0
sS'PRT'
p1516
F0.021994
sg246
F1e-06
sS'CONJ'
p1517
F0.003091
sS'ADJ'
p1518
F0.254907
s(lp1519
tp1520
a(S'mo\xc5\xbcliwe'
p1521
(dp1522
S'ADV'
p1523
F0.004772
sS'ADJ'
p1524
F0.9952280000000001
s(lp1525
g238
atp1526
a(g36
(dp1527
g36
F1.0
s(lp1528
g36
atp1529
asS'sl'
p1530
(lp1531
(S'gospa'
p1532
(dp1533
S'NOUN'
p1534
F1.0
s(lp1535
tp1536
a(S'komisarka'
p1537
(dp1538
S'ADV'
p1539
F0.000969
sS'ADJ'
p1540
F0.072014
sS'VERB'
p1541
F0.033886
sS'NOUN'
p1542
F0.8931299999999998
s(lp1543
g43
atp1544
a(g34
(dp1545
g36
F1.0
s(lp1546
g34
atp1547
a(S'prosim'
p1548
(dp1549
S'VERB'
p1550
F1.0
s(lp1551
g32
atp1552
a(S'vas'
p1553
(dp1554
S'PRON'
p1555
F0.942564
sS'NOUN'
p1556
F0.057436999999999995
s(lp1557
g26
atp1558
a(g34
(dp1559
g36
F1.0
s(lp1560
g34
atp1561
a(S'da'
p1562
(dp1563
S'PRT'
p1564
F0.000223
sS'CONJ'
p1565
F0.999739
sS'VERB'
p1566
F3.7e-05
sg246
F1e-06
s(lp1567
g54
atp1568
a(S'po\xc5\xa1ljete'
p1569
(dp1570
S'VERB'
p1571
F1.0
s(lp1572
g60
atp1573
a(S'\xc4\x8dim'
p1574
(dp1575
S'ADV'
p1576
F0.992183
sS'PRON'
p1577
F0.007817
s(lp1578
g143
atp1579
a(S'prej'
p1580
(dp1581
S'ADV'
p1582
F1.0
s(lp1583
g128
atp1584
a(S'ljudi'
p1585
(dp1586
g246
F5.1e-05
sS'NOUN'
p1587
F0.999948
s(lp1588
g72
atp1589
a(S'iz'
p1590
(dp1591
g246
F1.1e-05
sS'ADP'
p1592
F0.999989
s(lp1593
g78
atp1594
a(S'na\xc5\xa1e'
p1595
(dp1596
S'PRON'
p1597
F0.999999
s(lp1598
g84
atp1599
a(S'delegacije'
p1600
(dp1601
S'NOUN'
p1602
F1.0
s(lp1603
g90
atp1604
a(g1177
(dp1605
S'ADP'
p1606
F1.0
s(lp1607
g96
atp1608
a(S'pekingu'
p1609
(dp1610
S'ADV'
p1611
F0.002126
sS'ADJ'
p1612
F0.005633000000000001
sS'VERB'
p1613
F1.4e-05
sS'NOUN'
p1614
F0.9922280000000001
s(lp1615
g102
atp1616
a(g1177
(dp1617
S'ADP'
p1618
F1.0
s(lp1619
g322
atp1620
a(S'tibet'
p1621
(dp1622
S'ADV'
p1623
F0.049827
sS'NOUN'
p1624
F0.9468240000000002
sS'NUM'
p1625
F0.000397
sg246
F0.000378
sS'ADJ'
p1626
F0.002275
sS'VERB'
p1627
F0.00029800000000000003
s(lp1628
g114
atp1629
a(g34
(dp1630
g36
F1.0
s(lp1631
g34
atp1632
a(S'da'
p1633
(dp1634
S'PRT'
p1635
F0.000125
sS'CONJ'
p1636
F0.999523
sS'VERB'
p1637
F0.000346
sg246
F6e-06
s(lp1638
g152
atp1639
a(S'zahtevate'
p1640
(dp1641
S'ADV'
p1642
F0.000831
sS'ADJ'
p1643
F0.038884999999999996
sS'VERB'
p1644
F0.44336
sS'NOUN'
p1645
F0.516804
sg246
F0.000118
s(lp1646
g173
atp1647
a(g34
(dp1648
g36
F1.0
s(lp1649
tp1650
a(S'da'
p1651
(dp1652
S'PRT'
p1653
F5e-06
sS'CONJ'
p1654
F0.99997
sS'VERB'
p1655
F2.4e-05
sg246
F1e-06
s(lp1656
tp1657
a(S'se'
p1658
(dp1659
S'PRON'
p1660
F0.999999
sg246
F1e-06
s(lp1661
g180
atp1662
a(S'tja'
p1663
(dp1664
S'ADV'
p1665
F1.0
s(lp1666
tp1667
a(S'po\xc5\xa1lje'
p1668
(dp1669
S'VERB'
p1670
F1.0
s(lp1671
g186
atp1672
a(S'delegacija'
p1673
(dp1674
S'NOUN'
p1675
F1.0
s(lp1676
g199
atp1677
a(g34
(dp1678
g36
F1.0
s(lp1679
tp1680
a(S'\xc4\x8de'
p1681
(dp1682
S'CONJ'
p1683
F1.0
s(lp1684
g231
atp1685
a(S'je'
p1686
(dp1687
S'PRON'
p1688
F0.000741
sS'VERB'
p1689
F0.999259
sg246
F0.0
s(lp1690
g205
atp1691
a(S'mo\xc5\xbeno'
p1692
(dp1693
S'ADV'
p1694
F0.15793
sS'ADJ'
p1695
F0.842069
s(lp1696
g238
atp1697
a(g34
(dp1698
g36
F1.0
s(lp1699
g34
atp1700
a(S'\xc5\xbee'
p1701
(dp1702
S'PRT'
p1703
F1.0
s(lp1704
tp1705
a(S'danes'
p1706
(dp1707
S'ADV'
p1708
F1.0
s(lp1709
g223
atp1710
a(g36
(dp1711
g36
F1.0
s(lp1712
g36
atp1713
asS'es'
p1714
(lp1715
(S'asimismo'
p1716
(dp1717
S'ADV'
p1718
F1.0
s(lp1719
g20
atp1720
a(g34
(dp1721
g36
F1.0
s(lp1722
g7
atp1723
a(S'quiero'
p1724
(dp1725
S'VERB'
p1726
F1.0
s(lp1727
g13
atp1728
a(S'pedirle'
p1729
(dp1730
S'VERB'
p1731
F1.0
s(lp1732
g32
atp1733
a(g34
(dp1734
g36
F1.0
s(lp1735
g34
atp1736
a(S'comisaria'
p1737
(dp1738
S'ADJ'
p1739
F0.025335
sS'VERB'
p1740
F0.105739
sS'NOUN'
p1741
F0.868926
s(lp1742
g43
atp1743
a(g34
(dp1744
g36
F1.0
s(lp1745
g34
atp1746
a(S'que'
p1747
(dp1748
g246
F4e-06
sS'CONJ'
p1749
F0.999996
s(lp1750
g54
atp1751
a(S'env\xc3\xade'
p1752
(dp1753
S'VERB'
p1754
F1.0
s(lp1755
g60
atp1756
a(g166
(dp1757
g246
F0.000235
sS'CONJ'
p1758
F0.000109
sS'ADP'
p1759
F0.999656
s(lp1760
tp1761
a(S'personal'
p1762
(dp1763
S'ADJ'
p1764
F0.011806
sS'NOUN'
p1765
F0.988194
s(lp1766
g72
atp1767
a(S'de'
p1768
(dp1769
g246
F0.000102
sS'CONJ'
p1770
F0.000479
sS'ADP'
p1771
F0.99942
s(lp1772
g78
atp1773
a(S'nuestra'
p1774
(dp1775
S'PRON'
p1776
F0.662573
sS'ADJ'
p1777
F0.337427
s(lp1778
g84
atp1779
a(S'delegaci\xc3\xb3n'
p1780
(dp1781
S'NOUN'
p1782
F1.0
s(lp1783
g90
atp1784
a(S'en'
p1785
(dp1786
g246
F2.1e-05
sS'CONJ'
p1787
F1e-05
sS'ADP'
p1788
F0.99997
s(lp1789
g96
atp1790
a(S'pek\xc3\xadn'
p1791
(dp1792
S'ADJ'
p1793
F0.004766
sS'VERB'
p1794
F0.0005319999999999999
sS'NOUN'
p1795
F0.994702
s(lp1796
g102
atp1797
a(S'al'
p1798
(dp1799
S'CONJ'
p1800
F0.000862
sS'ADP'
p1801
F0.999138
s(lp1802
g322
atp1803
a(S't\xc3\xadbet'
p1804
(dp1805
S'ADJ'
p1806
F0.001146
sS'NOUN'
p1807
F0.998854
s(lp1808
tp1809
a(S'tan'
p1810
(dp1811
S'ADV'
p1812
F0.989776
sS'CONJ'
p1813
F0.010224
s(lp1814
g121
atp1815
a(S'pronto'
p1816
(dp1817
S'ADV'
p1818
F0.989776
sS'CONJ'
p1819
F0.010224
s(lp1820
g128
atp1821
a(S'como'
p1822
(dp1823
S'ADV'
p1824
F0.989776
sS'CONJ'
p1825
F0.010224
s(lp1826
g136
atp1827
a(S'sea'
p1828
(dp1829
S'VERB'
p1830
F1.0
s(lp1831
tp1832
a(S'posible'
p1833
(dp1834
S'ADJ'
p1835
F1.0
s(lp1836
g143
atp1837
a(g34
(dp1838
g36
F1.0
s(lp1839
g34
atp1840
a(S'que'
p1841
(dp1842
g246
F4e-06
sS'CONJ'
p1843
F0.999996
s(lp1844
g152
atp1845
a(S'curse'
p1846
(dp1847
S'VERB'
p1848
F1.0
s(lp1849
g158
atp1850
a(S'una'
p1851
(dp1852
S'DET'
p1853
F1.0
s(lp1854
g166
atp1855
a(S'solicitud'
p1856
(dp1857
S'NOUN'
p1858
F1.0
s(lp1859
g173
atp1860
a(S'para'
p1861
(dp1862
S'CONJ'
p1863
F0.952807
sS'ADP'
p1864
F0.047193
s(lp1865
g180
atp1866
a(S'enviar'
p1867
(dp1868
S'VERB'
p1869
F1.0
s(lp1870
g186
atp1871
a(g166
(dp1872
g246
F0.000259
sS'CONJ'
p1873
F5e-06
sS'ADP'
p1874
F0.999736
s(lp1875
tp1876
a(S'una'
p1877
(dp1878
S'DET'
p1879
F1.0
s(lp1880
g166
atp1881
a(S'delegaci\xc3\xb3n'
p1882
(dp1883
S'NOUN'
p1884
F1.0
s(lp1885
g199
atp1886
a(S'al'
p1887
(dp1888
S'CONJ'
p1889
F0.000867
sS'ADP'
p1890
F0.999133
s(lp1891
g397
atp1892
a(S't\xc3\xadbet'
p1893
(dp1894
S'ADJ'
p1895
F0.002501
sS'NOUN'
p1896
F0.997499
s(lp1897
g114
atp1898
a(g34
(dp1899
g36
F1.0
s(lp1900
g34
atp1901
a(S'hoy'
p1902
(dp1903
S'ADV'
p1904
F1.0
s(lp1905
tp1906
a(S'mismo'
p1907
(dp1908
S'NOUN'
p1909
F0.000546
sS'ADJ'
p1910
F0.999454
s(lp1911
g223
atp1912
a(S'si'
p1913
(dp1914
S'CONJ'
p1915
F0.999889
sS'NOUN'
p1916
F0.000111
s(lp1917
g231
atp1918
a(S'es'
p1919
(dp1920
S'VERB'
p1921
F1.0
s(lp1922
g205
atp1923
a(S'posible'
p1924
(dp1925
S'ADJ'
p1926
F1.0
s(lp1927
g238
atp1928
a(g36
(dp1929
g36
F1.0
s(lp1930
g36
atp1931
as.