(dp0
S'fr'
p1
(lp2
(S'les'
p3
(dp4
S'PRON'
p5
F0.000397
sS'DET'
p6
F0.99958
sS'ADP'
p7
F2.3e-05
s(lp8
tp9
a(S'valeurs'
p10
(dp11
S'NOUN'
p12
F1.0
s(lp13
S'values'
p14
atp15
a(S'd\xc3\xa9mocratiques'
p16
(dp17
S'ADJ'
p18
F1.0
s(lp19
S'democratic'
p20
atp21
a(S'et'
p22
(dp23
S'CONJ'
p24
F1.0
s(lp25
S'and'
p26
atp27
a(S'le'
p28
(dp29
S'PRON'
p30
F0.000549
sS'DET'
p31
F0.999451
s(lp32
tp33
a(S'respect'
p34
(dp35
S'NOUN'
p36
F1.0
s(lp37
S'respect'
p38
atp39
a(S'des'
p40
(dp41
S'DET'
p42
F2.2e-05
sS'ADP'
p43
F0.999978
s(lp44
S'human'
p45
atp46
a(S'droits'
p47
(dp48
S'ADJ'
p49
F0.011772
sS'NOUN'
p50
F0.988228
s(lp51
S'rights'
p52
atp53
a(S'de'
p54
(dp55
S'ADP'
p56
F1.0
s(lp57
S'for'
p58
atp59
a(S"l'"
p60
(dp61
S'ADJ'
p62
F0.160704
sS'VERB'
p63
F0.06480800000000002
sS'NOUN'
p64
F0.774488
s(lp65
tp66
a(S'homme'
p67
(dp68
S'NOUN'
p69
F1.0
s(lp70
g45
atp71
a(S'et'
p72
(dp73
S'CONJ'
p74
F1.0
s(lp75
S'and'
p76
atp77
a(S'des'
p78
(dp79
S'DET'
p80
F0.000609
sS'ADP'
p81
F0.999391
s(lp82
tp83
a(S'libert\xc3\xa9s'
p84
(dp85
S'NOUN'
p86
F1.0
s(lp87
S'freedoms'
p88
atp89
a(S'individuelles'
p90
(dp91
S'NOUN'
p92
F0.015266
sS'ADJ'
p93
F0.984734
s(lp94
S'individual'
p95
atp96
a(S'sont'
p97
(dp98
S'VERB'
p99
F1.0
s(lp100
S'provide'
p101
atp102
a(S'le'
p103
(dp104
S'PRON'
p105
F0.000137
sS'DET'
p106
F0.999863
s(lp107
S'the'
p108
atp109
a(S'socle'
p110
(dp111
S'NOUN'
p112
F1.0
s(lp113
S'bedrock'
p114
atp115
a(S'sur'
p116
(dp117
S'ADP'
p118
F1.0
s(lp119
S'on'
p120
atp121
a(S'lequel'
p122
(dp123
S'PRON'
p124
F1.0
s(lp125
S'which'
p126
atp127
a(S"l'"
p128
(dp129
S'ADJ'
p130
F0.006544
sS'VERB'
p131
F0.9727199999999999
sS'NOUN'
p132
F0.020737
s(lp133
S'the'
p134
atp135
a(S'ue'
p136
(dp137
S'VERB'
p138
F0.012735
sS'NOUN'
p139
F0.987264
s(lp140
S'eu'
p141
atp142
a(S"s'"
p143
(dp144
S'NOUN'
p145
F0.033148
sS'VERB'
p146
F0.6953600000000001
sS'ADJ'
p147
F0.271494
s(lp148
S'has'
p149
atp150
a(S'est'
p151
(dp152
S'VERB'
p153
F0.999511
sS'NOUN'
p154
F0.000489
s(lp155
S'been'
p156
atp157
a(S'construite'
p158
(dp159
S'VERB'
p160
F1.0
s(lp161
S'built'
p162
atp163
a(S'.'
p164
(dp165
g164
F1.0
s(lp166
g164
atp167
asS'en'
p168
(lp169
(g20
(dp170
S'ADJ'
p171
F1.0
s(lp172
g20
atp173
a(g14
(dp174
S'VERB'
p175
F0.000104
sS'NOUN'
p176
F0.999896
s(lp177
g14
atp178
a(g26
(dp179
S'CONJ'
p180
F0.999999
sS'NOUN'
p181
F1e-06
s(lp182
g26
atp183
a(g38
(dp184
S'VERB'
p185
F0.28436
sS'NOUN'
p186
F0.71564
s(lp187
g38
atp188
a(g58
(dp189
S'ADP'
p190
F1.0
s(lp191
g58
atp192
a(g45
(dp193
S'NOUN'
p194
F0.018066
sS'ADJ'
p195
F0.981934
s(lp196
g45
atp197
a(g52
(dp198
S'VERB'
p199
F2e-06
sS'NOUN'
p200
F0.999998
s(lp201
g52
atp202
a(g76
(dp203
S'CONJ'
p204
F1.0
sS'NOUN'
p205
F0.0
s(lp206
g76
atp207
a(g95
(dp208
S'NOUN'
p209
F0.01644
sS'ADJ'
p210
F0.98356
s(lp211
g95
atp212
a(g88
(dp213
S'NOUN'
p214
F1.0
s(lp215
g88
atp216
a(g101
(dp217
S'VERB'
p218
F1.0
s(lp219
g101
atp220
a(g108
(dp221
S'NOUN'
p222
F1e-06
sS'DET'
p223
F0.999999
s(lp224
g108
atp225
a(g114
(dp226
S'NOUN'
p227
F1.0
s(lp228
g114
atp229
a(g120
(dp230
S'ADV'
p231
F1e-05
sS'PRT'
p232
F2e-06
sS'ADJ'
p233
F0.0
sS'NOUN'
p234
F7e-06
sS'ADP'
p235
F0.99998
s(lp236
g120
atp237
a(g126
(dp238
S'DET'
p239
F1.0
s(lp240
g126
atp241
a(g134
(dp242
S'NOUN'
p243
F4e-06
sS'DET'
p244
F0.999996
s(lp245
g134
atp246
a(g141
(dp247
S'ADV'
p248
F0.000127
sS'ADJ'
p249
F1e-06
sS'VERB'
p250
F0.0
sS'NOUN'
p251
F0.999872
s(lp252
g141
atp253
a(g149
(dp254
S'VERB'
p255
F1.0
s(lp256
g149
atp257
a(g156
(dp258
S'VERB'
p259
F1.0
s(lp260
g156
atp261
a(g162
(dp262
S'VERB'
p263
F1.0
s(lp264
g162
atp265
a(g164
(dp266
g164
F1.0
s(lp267
g164
atp268
asS'nl'
p269
(lp270
(S'democratische'
p271
(dp272
S'NOUN'
p273
F0.000133
sS'ADJ'
p274
F0.999867
s(lp275
g20
atp276
a(S'waarden'
p277
(dp278
S'NOUN'
p279
F1.0
s(lp280
g14
atp281
a(S'en'
p282
(dp283
S'CONJ'
p284
F1.0
s(lp285
g26
atp286
a(S'eerbiediging'
p287
(dp288
S'NOUN'
p289
F1.0
s(lp290
g38
atp291
a(S'van'
p292
(dp293
S'ADP'
p294
F1.0
s(lp295
g58
atp296
a(S'de'
p297
(dp298
S'DET'
p299
F1.0
s(lp300
tp301
a(S'mensenrechten'
p302
(dp303
S'NOUN'
p304
F1.0
s(lp305
g45
atp306
a(S'en'
p307
(dp308
S'CONJ'
p309
F1.0
s(lp310
g76
atp311
a(S'individuele'
p312
(dp313
S'NOUN'
p314
F0.0
sS'ADJ'
p315
F1.0
s(lp316
g95
atp317
a(S'vrijheden'
p318
(dp319
S'NOUN'
p320
F1.0
s(lp321
g88
atp322
a(S'zijn'
p323
(dp324
S'PRON'
p325
F7e-06
sS'VERB'
p326
F0.999975
sS'NOUN'
p327
F1.8e-05
s(lp328
tp329
a(S'het'
p330
(dp331
S'PRON'
p332
F0.015038
sS'DET'
p333
F0.984962
s(lp334
g108
atp335
a(S'fundament'
p336
(dp337
S'NOUN'
p338
F1.0
s(lp339
g114
atp340
a(S'waarop'
p341
(dp342
S'ADV'
p343
F1.0
s(lp344
g126
atp345
a(S'de'
p346
(dp347
S'DET'
p348
F1.0
s(lp349
g134
atp350
a(S'eu'
p351
(dp352
S'NOUN'
p353
F1.0
s(lp354
g141
atp355
a(S'is'
p356
(dp357
S'VERB'
p358
F1.0
s(lp359
g149
atp360
a(S'gebouwd'
p361
(dp362
S'VERB'
p363
F0.345434
sS'ADJ'
p364
F0.654566
s(lp365
g162
atp366
a(g164
(dp367
g164
F1.0
s(lp368
g164
atp369
asS'de'
p370
(lp371
(S'demokratische'
p372
(dp373
S'ADJ'
p374
F1.0
s(lp375
g20
atp376
a(S'werte'
p377
(dp378
S'VERB'
p379
F1.0
s(lp380
g14
atp381
a(S'und'
p382
(dp383
S'CONJ'
p384
F1.0
s(lp385
g26
atp386
a(S'die'
p387
(dp388
S'PRON'
p389
F0.005997
sS'DET'
p390
F0.988447
s(lp391
tp392
a(S'achtung'
p393
(dp394
S'ADJ'
p395
F0.021778
sS'NOUN'
p396
F0.961233
s(lp397
g38
atp398
a(S'vor'
p399
(dp400
S'ADV'
p401
F0.003914
sS'ADP'
p402
F0.9927
s(lp403
g58
atp404
a(S'den'
p405
(dp406
S'PRON'
p407
F0.000273
sS'DET'
p408
F0.999727
s(lp409
tp410
a(S'menschen-'
p411
(dp412
S'X'
p413
F1.0
s(lp414
g45
atp415
a(S'und'
p416
(dp417
S'CONJ'
p418
F1.0
s(lp419
g76
atp420
a(S'freiheitsrechten'
p421
(dp422
S'ADJ'
p423
F0.964832
s(lp424
g88
atp425
a(S'stellen'
p426
(dp427
S'VERB'
p428
F1.0
s(lp429
g101
atp430
a(S'die'
p431
(dp432
S'PRON'
p433
F0.06517
sS'DET'
p434
F0.934585
s(lp435
g108
atp436
a(S'grundfesten'
p437
(dp438
S'ADJ'
p439
F0.997402
s(lp440
tp441
a(S'dar'
p442
(dp443
S'PRT'
p444
F1.0
s(lp445
g114
atp446
a(S','
p447
(dp448
g164
F1.0
s(lp449
tp450
a(S'auf'
p451
(dp452
S'PRT'
p453
F0.003225
sS'ADP'
p454
F0.996641
s(lp455
g120
atp456
a(S'denen'
p457
(dp458
S'PRON'
p459
F1.0
s(lp460
g126
atp461
a(S'die'
p462
(dp463
S'PRON'
p464
F0.022533
sS'DET'
p465
F0.965231
s(lp466
g134
atp467
a(S'eu'
p468
(dp469
S'ADJ'
p470
F0.266111
sS'NOUN'
p471
F0.482864
s(lp472
g141
atp473
a(S'errichtet'
p474
(dp475
S'VERB'
p476
F1.0
s(lp477
g162
atp478
a(S'worden'
p479
(dp480
S'VERB'
p481
F0.999995
sS'ADJ'
p482
F3e-06
s(lp483
g156
atp484
a(S'ist'
p485
(dp486
S'VERB'
p487
F1.0
s(lp488
g149
atp489
a(g164
(dp490
g164
F1.0
s(lp491
g164
atp492
asS'it'
p493
(lp494
(S'i'
p495
(dp496
S'DET'
p497
F1.0
s(lp498
tp499
a(S'valori'
p500
(dp501
S'NOUN'
p502
F1.0
s(lp503
g14
atp504
a(S'democratici'
p505
(dp506
S'NOUN'
p507
F0.036354
sS'ADJ'
p508
F0.963646
s(lp509
g20
atp510
a(S'e'
p511
(dp512
S'CONJ'
p513
F1.0
s(lp514
g26
atp515
a(S'il'
p516
(dp517
S'DET'
p518
F1.0
s(lp519
tp520
a(S'rispetto'
p521
(dp522
S'VERB'
p523
F0.002912
sS'NOUN'
p524
F0.997088
s(lp525
g38
atp526
a(S'per'
p527
(dp528
S'CONJ'
p529
F0.05286
sS'ADP'
p530
F0.94714
s(lp531
g58
atp532
a(g495
(dp533
S'DET'
p534
F1.0
s(lp535
tp536
a(S'diritti'
p537
(dp538
S'ADJ'
p539
F0.023614
sS'NOUN'
p540
F0.976386
s(lp541
g52
atp542
a(S'umani'
p543
(dp544
S'NOUN'
p545
F0.051434
sS'ADJ'
p546
F0.948566
s(lp547
g45
atp548
a(g511
(dp549
S'CONJ'
p550
F1.0
s(lp551
g76
atp552
a(S'le'
p553
(dp554
S'PRON'
p555
F0.000149
sS'DET'
p556
F0.999851
s(lp557
tp558
a(S'libert\xc3\xa0'
p559
(dp560
S'NOUN'
p561
F1.0
s(lp562
g88
atp563
a(S'individuali'
p564
(dp565
S'VERB'
p566
F0.0
sS'ADJ'
p567
F1.0
s(lp568
g95
atp569
a(S'rappresentano'
p570
(dp571
S'VERB'
p572
F1.0
s(lp573
g101
atp574
a(S'le'
p575
(dp576
S'PRON'
p577
F0.0
sS'DET'
p578
F1.0
s(lp579
g108
atp580
a(S'fondamenta'
p581
(dp582
S'NOUN'
p583
F1.0
s(lp584
g114
atp585
a(S'sulle'
p586
(dp587
S'NOUN'
p588
F0.000647
sS'ADP'
p589
F0.999353
s(lp590
g120
atp591
a(S'quali'
p592
(dp593
S'PRON'
p594
F0.99119
sS'ADJ'
p595
F0.008809
s(lp596
g126
atp597
a(S'\xc3\xa8'
p598
(dp599
S'VERB'
p600
F1.0
s(lp601
g149
atp602
a(S'stata'
p603
(dp604
S'VERB'
p605
F1.0
s(lp606
g156
atp607
a(S'costruita'
p608
(dp609
S'VERB'
p610
F1.0
s(lp611
g162
atp612
a(S"l'"
p613
(dp614
S'NOUN'
p615
F0.016123
sS'VERB'
p616
F0.936126
sS'ADJ'
p617
F0.04775
s(lp618
g134
atp619
a(S'unione'
p620
(dp621
S'NOUN'
p622
F1.0
s(lp623
tp624
a(S'europea'
p625
(dp626
S'NOUN'
p627
F0.001561
sS'ADJ'
p628
F0.998439
s(lp629
g141
atp630
a(g164
(dp631
g164
F1.0
s(lp632
g164
atp633
asS'sk'
p634
(lp635
(S'demokratick\xc3\xa9'
p636
(dp637
S'ADJ'
p638
F1.0
s(lp639
g20
atp640
a(S'hodnoty'
p641
(dp642
S'NOUN'
p643
F1.0
s(lp644
g14
atp645
a(S'a'
p646
(dp647
g413
F0.0008329999999999999
sS'CONJ'
p648
F0.998441
sS'NOUN'
p649
F6.1000000000000005e-05
sS'ADP'
p650
F0.000634
sS'PRT'
p651
F3.1e-05
s(lp652
g26
atp653
a(S're\xc5\xa1pektovanie'
p654
(dp655
S'NOUN'
p656
F1.0
s(lp657
g38
atp658
a(S'\xc4\xbeudsk\xc3\xbdch'
p659
(dp660
S'ADJ'
p661
F1.0
s(lp662
g45
atp663
a(S'pr\xc3\xa1v'
p664
(dp665
g413
F2.8e-05
sS'NOUN'
p666
F0.999972
s(lp667
g52
atp668
a(g646
(dp669
g413
F0.0007130000000000001
sS'CONJ'
p670
F0.998486
sS'NOUN'
p671
F7.8e-05
sS'ADP'
p672
F0.000636
sS'PRT'
p673
F8.6e-05
s(lp674
g76
atp675
a(S'osobn\xc3\xbdch'
p676
(dp677
S'ADJ'
p678
F1.0
s(lp679
g95
atp680
a(S'slob\xc3\xb4d'
p681
(dp682
S'NOUN'
p683
F1.0
s(lp684
g88
atp685
a(S'predstavuj\xc3\xba'
p686
(dp687
S'VERB'
p688
F1.0
s(lp689
g101
atp690
a(S'z\xc3\xa1klad'
p691
(dp692
S'NOUN'
p693
F1.0
s(lp694
g114
atp695
a(g447
(dp696
g164
F1.0
s(lp697
tp698
a(S'na'
p699
(dp700
g413
F6.1000000000000005e-05
sS'CONJ'
p701
F0.000624
sS'ADP'
p702
F0.999294
sS'PRT'
p703
F2.1e-05
s(lp704
g120
atp705
a(S'ktorom'
p706
(dp707
S'PRON'
p708
F1.0
s(lp709
g126
atp710
a(S'bola'
p711
(dp712
S'VERB'
p713
F1.000001
s(lp714
g156
atp715
a(S'e\xc3\x9a'
p716
(dp717
S'ADV'
p718
F0.26991
sS'ADJ'
p719
F0.345482
sS'VERB'
p720
F0.000181
sS'NOUN'
p721
F0.382852
sg413
F0.001575
s(lp722
g141
atp723
a(S'postaven\xc3\xa1'
p724
(dp725
S'VERB'
p726
F1.0
s(lp727
g162
atp728
a(g164
(dp729
g164
F1.0
s(lp730
g164
atp731
asS'pl'
p732
(lp733
(S'warto\xc5\x9bci'
p734
(dp735
S'NOUN'
p736
F0.9999989999999999
s(lp737
g14
atp738
a(S'demokratyczne'
p739
(dp740
S'ADJ'
p741
F0.999999
s(lp742
g20
atp743
a(g495
(dp744
S'PRT'
p745
F0.005884
sS'CONJ'
p746
F0.99394
sS'NOUN'
p747
F3e-06
sg413
F2.4e-05
sS'PRON'
p748
F0.000149
s(lp749
g26
atp750
a(S'poszanowanie'
p751
(dp752
S'NOUN'
p753
F1.0
s(lp754
g38
atp755
a(S'praw'
p756
(dp757
S'NOUN'
p758
F1.0
s(lp759
g52
atp760
a(S'cz\xc5\x82owieka'
p761
(dp762
S'NOUN'
p763
F1.0
s(lp764
g45
atp765
a(S'oraz'
p766
(dp767
S'CONJ'
p768
F1.0
s(lp769
g76
atp770
a(S'wolno\xc5\x9bci'
p771
(dp772
S'NOUN'
p773
F1.000001
s(lp774
g88
atp775
a(S'osobistych'
p776
(dp777
S'ADJ'
p778
F1.0000010000000001
s(lp779
g95
atp780
a(S'stanowi\xc4\x85'
p781
(dp782
S'VERB'
p783
F1.0
s(lp784
g101
atp785
a(S'podstaw\xc4\x99'
p786
(dp787
S'NOUN'
p788
F1.0
s(lp789
g114
atp790
a(g447
(dp791
g413
F0.0
sg164
F1.0
s(lp792
tp793
a(S'na'
p794
(dp795
g413
F1.5e-05
sS'VERB'
p796
F0.0
sS'NOUN'
p797
F1e-06
sS'ADP'
p798
F0.999981
sS'PRT'
p799
F3e-06
s(lp800
g120
atp801
a(S'jakiej'
p802
(dp803
S'ADJ'
p804
F0.9999999999999999
s(lp805
g126
atp806
a(S'zbudowano'
p807
(dp808
S'VERB'
p809
F1.0
s(lp810
g162
atp811
a(S'ue'
p812
(dp813
S'ADJ'
p814
F0.000315
sS'VERB'
p815
F0.013889999999999998
sS'NOUN'
p816
F0.985794
s(lp817
g141
atp818
a(g164
(dp819
g164
F1.0
s(lp820
g164
atp821
asS'sl'
p822
(lp823
(S'demokrati\xc4\x8dne'
p824
(dp825
S'ADJ'
p826
F1.0
s(lp827
g20
atp828
a(S'vrednote'
p829
(dp830
S'NOUN'
p831
F1.0
s(lp832
g14
atp833
a(S'in'
p834
(dp835
S'ADV'
p836
F2.8e-05
sg413
F2.4e-05
sS'CONJ'
p837
F0.999947
sS'NOUN'
p838
F1e-06
s(lp839
g26
atp840
a(S'spo\xc5\xa1tovanje'
p841
(dp842
S'NOUN'
p843
F1.0
s(lp844
g38
atp845
a(S'\xc4\x8dlovekovih'
p846
(dp847
S'ADJ'
p848
F1.0
s(lp849
g45
atp850
a(S'pravic'
p851
(dp852
S'NOUN'
p853
F1.0
s(lp854
g52
atp855
a(S'in'
p856
(dp857
S'ADV'
p858
F0.000136
sg413
F2.1e-05
sS'CONJ'
p859
F0.999818
sS'NOUN'
p860
F2.4e-05
s(lp861
g76
atp862
a(S'svobo\xc5\xa1\xc4\x8din'
p863
(dp864
S'NOUN'
p865
F1.0
s(lp866
g88
atp867
a(S'posameznika'
p868
(dp869
S'NOUN'
p870
F1.0
s(lp871
g95
atp872
a(S'predstavljajo'
p873
(dp874
S'VERB'
p875
F1.0
s(lp876
g101
atp877
a(S'temeljni'
p878
(dp879
S'ADJ'
p880
F1.000001
s(lp881
tp882
a(S'kamen'
p883
(dp884
S'NOUN'
p885
F1.0
s(lp886
g114
atp887
a(g447
(dp888
g164
F1.0
s(lp889
tp890
a(S'na'
p891
(dp892
S'ADP'
p893
F1.0
s(lp894
g120
atp895
a(S'katerem'
p896
(dp897
S'PRON'
p898
F1.0
s(lp899
g126
atp900
a(S'je'
p901
(dp902
S'PRON'
p903
F0.001003
sS'VERB'
p904
F0.9989939999999999
sg413
F2e-06
s(lp905
g149
atp906
a(S'zgrajena'
p907
(dp908
S'ADJ'
p909
F1.0
s(lp910
g162
atp911
a(S'eu'
p912
(dp913
S'ADV'
p914
F0.003178
sS'ADJ'
p915
F0.11694400000000005
sS'VERB'
p916
F0.000428
sS'NOUN'
p917
F0.8794490000000001
s(lp918
g141
atp919
a(g164
(dp920
g164
F1.0
s(lp921
g164
atp922
asS'es'
p923
(lp924
(S'los'
p925
(dp926
S'PRON'
p927
F2.7e-05
sS'DET'
p928
F0.999973
s(lp929
tp930
a(S'valores'
p931
(dp932
S'NOUN'
p933
F1.0
s(lp934
g14
atp935
a(S'democr\xc3\xa1ticos'
p936
(dp937
S'ADJ'
p938
F1.0
s(lp939
g20
atp940
a(S'y'
p941
(dp942
g413
F0.000117
sS'CONJ'
p943
F0.999883
s(lp944
g26
atp945
a(S'el'
p946
(dp947
S'PRON'
p948
F0.000103
sS'DET'
p949
F0.999897
s(lp950
tp951
a(S'respeto'
p952
(dp953
S'VERB'
p954
F9.4e-05
sS'NOUN'
p955
F0.999906
s(lp956
g38
atp957
a(S'por'
p958
(dp959
S'ADP'
p960
F1.0
s(lp961
g58
atp962
a(S'los'
p963
(dp964
S'PRON'
p965
F0.0
sS'DET'
p966
F1.0
s(lp967
tp968
a(S'derechos'
p969
(dp970
S'NOUN'
p971
F1.0
s(lp972
g52
atp973
a(S'humanos'
p974
(dp975
S'NOUN'
p976
F0.18529
sS'ADJ'
p977
F0.81471
s(lp978
g45
atp979
a(g941
(dp980
g413
F0.000168
sS'CONJ'
p981
F0.999832
s(lp982
g76
atp983
a(S'las'
p984
(dp985
S'PRON'
p986
F0.000237
sS'DET'
p987
F0.999763
s(lp988
tp989
a(S'libertades'
p990
(dp991
S'NOUN'
p992
F1.0
s(lp993
g88
atp994
a(S'individuales'
p995
(dp996
S'ADJ'
p997
F1.0
s(lp998
g95
atp999
a(S'son'
p1000
(dp1001
S'VERB'
p1002
F0.999932
sS'NOUN'
p1003
F6.8e-05
s(lp1004
g101
atp1005
a(S'la'
p1006
(dp1007
g413
F1e-06
sS'DET'
p1008
F0.999998
sS'NOUN'
p1009
F0.0
sS'PRON'
p1010
F1e-06
s(lp1011
g108
atp1012
a(S'base'
p1013
(dp1014
S'ADJ'
p1015
F0.001759
sS'VERB'
p1016
F1.2e-05
sS'NOUN'
p1017
F0.99821
sg413
F1.9e-05
s(lp1018
g114
atp1019
a(S'sobre'
p1020
(dp1021
S'NOUN'
p1022
F0.0
sS'ADP'
p1023
F1.0
s(lp1024
g120
atp1025
a(S'la'
p1026
(dp1027
S'NOUN'
p1028
F2.7e-05
sS'DET'
p1029
F0.999971
sg413
F0.0
sS'PRON'
p1030
F2e-06
s(lp1031
tp1032
a(S'que'
p1033
(dp1034
g413
F2e-06
sS'CONJ'
p1035
F0.999998
s(lp1036
g126
atp1037
a(S'se'
p1038
(dp1039
S'PRON'
p1040
F1.0
sS'VERB'
p1041
F0.0
s(lp1042
g156
atp1043
a(S'sustenta'
p1044
(dp1045
S'VERB'
p1046
F1.0
s(lp1047
g162
atp1048
a(S'la'
p1049
(dp1050
g413
F0.0
sS'PRON'
p1051
F0.0
sS'DET'
p1052
F1.0
sS'NOUN'
p1053
F0.0
s(lp1054
g134
atp1055
a(S'ue'
p1056
(dp1057
S'VERB'
p1058
F4e-06
sS'NOUN'
p1059
F0.999997
s(lp1060
g141
atp1061
a(g164
(dp1062
g164
F1.0
s(lp1063
g164
atp1064
as.