(dp0
S'fr'
p1
(lp2
(S'par'
p3
(dp4
S'NOUN'
p5
F7.6e-05
sS'ADP'
p6
F0.999924
s(lp7
S'the'
p8
atp9
a(S'\xc3\xa9crit'
p10
(dp11
S'VERB'
p12
F0.035327000000000004
sS'NOUN'
p13
F0.964674
s(lp14
tp15
a(S'.'
p16
(dp17
g16
F1.0
s(lp18
tp19
a(S'-'
p20
(dp21
g16
F1.0
s(lp22
g8
atp23
a(S'('
p24
(dp25
g16
F1.0
s(lp26
g8
atp27
a(S'pl'
p28
(dp29
S'ADJ'
p30
F0.197818
sS'VERB'
p31
F0.0012339999999999999
sS'NOUN'
p32
F0.800948
s(lp33
tp34
a(S')'
p35
(dp36
g16
F1.0
s(lp37
tp38
a(S'ce'
p39
(dp40
S'PRON'
p41
F1.0
s(lp42
tp43
a(S'rapport'
p44
(dp45
S'NOUN'
p46
F1.0
s(lp47
S'report'
p48
atp49
a(S'propose'
p50
(dp51
S'VERB'
p52
F1.0
s(lp53
S'proposes'
p54
atp55
a(S'une'
p56
(dp57
S'NOUN'
p58
F2.1e-05
sS'NUM'
p59
F0.00392
sS'DET'
p60
F0.996059
s(lp61
S'a'
p62
atp63
a(S's\xc3\xa9rie'
p64
(dp65
S'VERB'
p66
F0.000174
sS'NOUN'
p67
F0.999826
s(lp68
S'series'
p69
atp70
a(S'de'
p71
(dp72
S'ADP'
p73
F1.0
s(lp74
S'of'
p75
atp76
a(S'modifications'
p77
(dp78
S'NOUN'
p79
F1.0
s(lp80
S'amendments'
p81
atp82
a(S'visant'
p83
(dp84
S'VERB'
p85
F1.0
s(lp86
S'aim'
p87
atp88
a(S'\xc3\xa0'
p89
(dp90
S'ADP'
p91
F1.0
s(lp92
S'to'
p93
atp94
a(S'adapter'
p95
(dp96
S'VERB'
p97
F1.0
s(lp98
S'adapt'
p99
atp100
a(S'les'
p101
(dp102
S'PRON'
p103
F3.1e-05
sS'DET'
p104
F0.999948
sS'ADP'
p105
F2.1e-05
s(lp106
g8
atp107
a(S'dispositions'
p108
(dp109
S'NOUN'
p110
F1.0
s(lp111
S'provisions'
p112
atp113
a(S'de'
p114
(dp115
S'ADP'
p116
F1.0
s(lp117
S'on'
p118
atp119
a(S'la'
p120
(dp121
S'PRON'
p122
F1.2e-05
sS'DET'
p123
F0.999988
sS'NOUN'
p124
F0.0
s(lp125
S'the'
p126
atp127
a(S'proc\xc3\xa9dure'
p128
(dp129
S'NOUN'
p130
F1.0
s(lp131
S'procedure'
p132
atp133
a(S'de'
p134
(dp135
S'ADP'
p136
F1.0
s(lp137
tp138
a(S'r\xc3\xa9glementation'
p139
(dp140
S'NOUN'
p141
F1.0
s(lp142
S'regulatory'
p143
atp144
a(S'avec'
p145
(dp146
S'ADV'
p147
F0.001263
sS'ADP'
p148
F0.998737
s(lp149
S'with'
p150
atp151
a(S'contr\xc3\xb4le'
p152
(dp153
S'VERB'
p154
F0.00033
sS'NOUN'
p155
F0.99967
s(lp156
S'scrutiny'
p157
atp158
a(S'au'
p159
(dp160
S'ADP'
p161
F1.0
s(lp162
S'the'
p163
atp164
a(S'nouveau'
p165
(dp166
S'NOUN'
p167
F0.006216
sS'ADJ'
p168
F0.993784
s(lp169
S'new'
p170
atp171
a(S'r\xc3\xa9gime'
p172
(dp173
S'NOUN'
p174
F1.0
s(lp175
S'provisions'
p176
atp177
a(S'des'
p178
(dp179
S'DET'
p180
F2.1e-05
sS'ADP'
p181
F0.999979
s(lp182
S'on'
p183
atp184
a(S'actes'
p185
(dp186
S'VERB'
p187
F1e-06
sS'NOUN'
p188
F0.999999
s(lp189
S'acts'
p190
atp191
a(S'd\xc3\xa9l\xc3\xa9gu\xc3\xa9s'
p192
(dp193
S'NOUN'
p194
F0.181519
sS'VERB'
p195
F0.607632
sS'ADJ'
p196
F0.210849
s(lp197
S'delegated'
p198
atp199
a(S'introduit'
p200
(dp201
S'VERB'
p202
F1.0
s(lp203
S'introduced'
p204
atp205
a(S'par'
p206
(dp207
S'NOUN'
p208
F0.0
sS'ADP'
p209
F1.0
s(lp210
S'by'
p211
atp212
a(S'le'
p213
(dp214
S'PRON'
p215
F0.002024
sS'DET'
p216
F0.997976
s(lp217
S'the'
p218
atp219
a(S'trait\xc3\xa9'
p220
(dp221
S'VERB'
p222
F0.006805
sS'NOUN'
p223
F0.993195
s(lp224
S'treaty'
p225
atp226
a(S'de'
p227
(dp228
S'ADP'
p229
F1.0
s(lp230
S'of'
p231
atp232
a(S'lisbonne'
p233
(dp234
S'ADJ'
p235
F0.134605
sS'VERB'
p236
F0.001203
sS'NOUN'
p237
F0.864192
s(lp238
S'lisbon'
p239
atp240
a(g16
(dp241
g16
F1.0
s(lp242
g16
atp243
asS'en'
p244
(lp245
(g8
(dp246
S'NOUN'
p247
F5e-06
sS'DET'
p248
F0.999995
s(lp249
g8
atp250
a(g48
(dp251
S'VERB'
p252
F8.2e-05
sS'NOUN'
p253
F0.999917
s(lp254
g48
atp255
a(g54
(dp256
S'VERB'
p257
F1.0
s(lp258
g54
atp259
a(g62
(dp260
S'NOUN'
p261
F0.0
sS'DET'
p262
F1.0
s(lp263
g62
atp264
a(g69
(dp265
S'NOUN'
p266
F1.0
s(lp267
g69
atp268
a(g75
(dp269
S'ADP'
p270
F1.0
s(lp271
g75
atp272
a(g81
(dp273
S'NOUN'
p274
F1.0
s(lp275
g81
atp276
a(S'which'
p277
(dp278
S'DET'
p279
F1.0
s(lp280
g277
atp281
a(g87
(dp282
S'VERB'
p283
F0.5131
sS'NOUN'
p284
F0.4869
s(lp285
g87
atp286
a(g93
(dp287
S'ADV'
p288
F0.0
sS'PRT'
p289
F1.0
sS'ADP'
p290
F0.0
s(lp291
g93
atp292
a(g99
(dp293
S'VERB'
p294
F1.0
s(lp295
g99
atp296
a(g112
(dp297
S'VERB'
p298
F0.0
sS'NOUN'
p299
F1.0
s(lp300
g112
atp301
a(g118
(dp302
S'ADV'
p303
F0.000757
sS'PRT'
p304
F0.000439
sS'ADJ'
p305
F0.0
sS'ADP'
p306
F0.998804
sS'NOUN'
p307
F0.0
s(lp308
g118
atp309
a(g126
(dp310
S'NOUN'
p311
F1e-06
sS'DET'
p312
F0.999999
s(lp313
g126
atp314
a(g143
(dp315
S'ADJ'
p316
F1.0
s(lp317
g143
atp318
a(g132
(dp319
S'NOUN'
p320
F1.0
s(lp321
g132
atp322
a(g150
(dp323
S'ADP'
p324
F1.0
s(lp325
g150
atp326
a(g157
(dp327
S'NOUN'
p328
F1.0
s(lp329
g157
atp330
a(S'to'
p331
(dp332
S'ADV'
p333
F1e-06
sS'PRT'
p334
F0.999989
sS'ADP'
p335
F1.1e-05
s(lp336
g331
atp337
a(g163
(dp338
S'NOUN'
p339
F1e-06
sS'DET'
p340
F0.999999
s(lp341
g163
atp342
a(g170
(dp343
S'NOUN'
p344
F6.9e-05
sS'ADJ'
p345
F0.999931
s(lp346
g170
atp347
a(g176
(dp348
S'VERB'
p349
F4e-06
sS'NOUN'
p350
F0.999996
s(lp351
g176
atp352
a(g183
(dp353
S'ADV'
p354
F0.016188
sS'PRT'
p355
F0.000928
sS'ADJ'
p356
F1e-06
sS'NOUN'
p357
F1e-06
sS'ADP'
p358
F0.982883
s(lp359
g183
atp360
a(g198
(dp361
S'VERB'
p362
F1.0
s(lp363
g198
atp364
a(g190
(dp365
S'VERB'
p366
F0.000249
sS'NOUN'
p367
F0.999751
s(lp368
g190
atp369
a(g204
(dp370
S'VERB'
p371
F1.0
s(lp372
g204
atp373
a(g211
(dp374
S'ADV'
p375
F0.000289
sS'NOUN'
p376
F0.0
sS'ADP'
p377
F0.999711
s(lp378
g211
atp379
a(g218
(dp380
S'NOUN'
p381
F1e-06
sS'DET'
p382
F0.999999
s(lp383
g218
atp384
a(g225
(dp385
S'NOUN'
p386
F1.0
s(lp387
g225
atp388
a(g231
(dp389
S'ADP'
p390
F1.0
s(lp391
g231
atp392
a(g239
(dp393
S'ADJ'
p394
F0.012901
sS'VERB'
p395
F9.999999999999999e-06
sS'NOUN'
p396
F0.987089
s(lp397
g239
atp398
a(g16
(dp399
g16
F1.0
s(lp400
g16
atp401
asS'nl'
p402
(lp403
(S'schriftelijk'
p404
(dp405
S'ADJ'
p406
F1.0
s(lp407
g8
atp408
a(g16
(dp409
g16
F1.0
s(lp410
tp411
a(g20
(dp412
g16
F1.0
s(lp413
g277
atp414
a(g24
(dp415
g16
F1.0
s(lp416
g8
atp417
a(S'pl'
p418
(dp419
S'ADJ'
p420
F0.022827
sS'NOUN'
p421
F0.977173
s(lp422
g87
atp423
a(g35
(dp424
g16
F1.0
s(lp425
tp426
a(S'in'
p427
(dp428
S'ADV'
p429
F0.014088
sS'VERB'
p430
F8e-06
sS'ADP'
p431
F0.985904
s(lp432
tp433
a(S'het'
p434
(dp435
S'PRON'
p436
F0.0009400000000000001
sS'DET'
p437
F0.99906
s(lp438
tp439
a(S'verslag'
p440
(dp441
S'NOUN'
p442
F1.0
s(lp443
g48
atp444
a(S'wordt'
p445
(dp446
S'VERB'
p447
F1.0
s(lp448
tp449
a(S'een'
p450
(dp451
S'ADJ'
p452
F2e-06
sS'NUM'
p453
F0.0
sS'DET'
p454
F0.999997
sS'PRON'
p455
F1e-06
s(lp456
g62
atp457
a(S'reeks'
p458
(dp459
S'NOUN'
p460
F1.0
s(lp461
g69
atp462
a(S'amendementen'
p463
(dp464
S'NOUN'
p465
F1.0
s(lp466
g81
atp467
a(S'voorgesteld'
p468
(dp469
S'VERB'
p470
F1.0
s(lp471
g54
atp472
a(S'ter'
p473
(dp474
S'ADV'
p475
F1e-06
sS'ADP'
p476
F0.999999
s(lp477
g93
atp478
a(S'aanpassing'
p479
(dp480
S'NOUN'
p481
F1.0
s(lp482
tp483
a(S'van'
p484
(dp485
S'ADP'
p486
F1.0
s(lp487
tp488
a(S'de'
p489
(dp490
S'DET'
p491
F1.0
s(lp492
g8
atp493
a(S'bepalingen'
p494
(dp495
S'NOUN'
p496
F1.0
s(lp497
g112
atp498
a(S'inzake'
p499
(dp500
S'ADP'
p501
F1.0
s(lp502
g118
atp503
a(S'de'
p504
(dp505
S'DET'
p506
F1.0
s(lp507
g126
atp508
a(S'regelgevingsprocedure'
p509
(dp510
S'ADJ'
p511
F0.003021
sS'NOUN'
p512
F0.996979
s(lp513
g143
atp514
a(S'met'
p515
(dp516
S'ADP'
p517
F1.0
s(lp518
g150
atp519
a(S'toetsing'
p520
(dp521
S'NOUN'
p522
F1.0
s(lp523
g157
atp524
a(S'aan'
p525
(dp526
S'ADV'
p527
F0.007796
sS'ADP'
p528
F0.992204
s(lp529
g99
atp530
a(S'de'
p531
(dp532
S'DET'
p533
F1.0
s(lp534
g163
atp535
a(S'nieuwe'
p536
(dp537
S'NOUN'
p538
F1e-06
sS'ADJ'
p539
F0.999999
s(lp540
g170
atp541
a(S'bepalingen'
p542
(dp543
S'NOUN'
p544
F1.0
s(lp545
g176
atp546
a(S'inzake'
p547
(dp548
S'ADP'
p549
F1.0
s(lp550
g183
atp551
a(S'gedelegeerde'
p552
(dp553
S'VERB'
p554
F0.139854
sS'NOUN'
p555
F0.860146
s(lp556
g198
atp557
a(S'handelingen'
p558
(dp559
S'NOUN'
p560
F1.0
s(lp561
g190
atp562
a(S'die'
p563
(dp564
S'PRON'
p565
F1.0
s(lp566
tp567
a(S'zijn'
p568
(dp569
S'PRON'
p570
F0.028732
sS'VERB'
p571
F0.9712390000000001
sS'NOUN'
p572
F2.9e-05
s(lp573
tp574
a(S'ingevoerd'
p575
(dp576
S'VERB'
p577
F0.999949
sS'ADJ'
p578
F5.1e-05
s(lp579
g204
atp580
a(S'met'
p581
(dp582
S'ADP'
p583
F1.0
s(lp584
g211
atp585
a(S'het'
p586
(dp587
S'PRON'
p588
F0.000927
sS'DET'
p589
F0.999073
s(lp590
g218
atp591
a(S'verdrag'
p592
(dp593
S'NOUN'
p594
F1.0
s(lp595
g225
atp596
a(S'van'
p597
(dp598
S'ADP'
p599
F1.0
s(lp600
g231
atp601
a(S'lissabon'
p602
(dp603
S'NOUN'
p604
F1.0
s(lp605
g239
atp606
a(g16
(dp607
g16
F1.0
s(lp608
g16
atp609
asS'de'
p610
(lp611
(S'der'
p612
(dp613
S'PRON'
p614
F0.000343
sS'DET'
p615
F0.999539
s(lp616
g8
atp617
a(S'bericht'
p618
(dp619
S'ADJ'
p620
F0.00016
sS'NOUN'
p621
F0.999739
s(lp622
g48
atp623
a(S'schl\xc3\xa4gt'
p624
(dp625
S'VERB'
p626
F1.0
s(lp627
tp628
a(S'eine'
p629
(dp630
S'PRON'
p631
F0.970127
sS'DET'
p632
F0.029316
s(lp633
g62
atp634
a(S'reihe'
p635
(dp636
S'VERB'
p637
F1.0
s(lp638
g69
atp639
a(S'von'
p640
(dp641
S'NOUN'
p642
F0.003606
sS'ADP'
p643
F0.996394
s(lp644
g75
atp645
a(S'ab\xc3\xa4nderungen'
p646
(dp647
S'VERB'
p648
F0.002715
sS'NOUN'
p649
F0.997285
s(lp650
g81
atp651
a(S'vor'
p652
(dp653
S'ADV'
p654
F0.004415
sS'PRT'
p655
F0.995576
s(lp656
g54
atp657
a(S','
p658
(dp659
g16
F1.0
s(lp660
tp661
a(S'die'
p662
(dp663
S'PRON'
p664
F0.997416
s(lp665
tp666
a(S'die'
p667
(dp668
S'PRON'
p669
F0.000509
sS'DET'
p670
F0.999218
s(lp671
g277
atp672
a(S'bestimmungen'
p673
(dp674
S'ADJ'
p675
F0.000131
sS'NOUN'
p676
F0.999761
s(lp677
g112
atp678
a(S'zum'
p679
(dp680
S'ADP'
p681
F1.0
s(lp682
g118
atp683
a(S'regelungsverfahren'
p684
(dp685
S'ADJ'
p686
F0.000925
sS'NOUN'
p687
F0.998802
s(lp688
g143
atp689
a(S'mit'
p690
(dp691
S'PRT'
p692
F0.001213
sS'ADP'
p693
F0.998787
s(lp694
g150
atp695
a(S'kontrolle'
p696
(dp697
S'ADJ'
p698
F0.065725
sS'NOUN'
p699
F0.916853
s(lp700
g157
atp701
a(S'an'
p702
(dp703
S'ADP'
p704
F0.996194
s(lp705
g331
atp706
a(S'die'
p707
(dp708
S'PRON'
p709
F0.00025
sS'DET'
p710
F0.999697
s(lp711
g163
atp712
a(S'neuen'
p713
(dp714
S'ADJ'
p715
F1.0
s(lp716
g170
atp717
a(S'mit'
p718
(dp719
S'PRT'
p720
F6.3e-05
sS'ADP'
p721
F0.999937
s(lp722
g211
atp723
a(S'dem'
p724
(dp725
S'PRON'
p726
F0.025755
sS'DET'
p727
F0.971915
s(lp728
g218
atp729
a(S'vertrag'
p730
(dp731
S'VERB'
p732
F1.0
s(lp733
g225
atp734
a(S'von'
p735
(dp736
S'NOUN'
p737
F0.000701
sS'ADP'
p738
F0.999299
s(lp739
g231
atp740
a(S'lissabon'
p741
(dp742
S'NOUN'
p743
F0.988397
s(lp744
g239
atp745
a(S'eingef\xc3\xbchrten'
p746
(dp747
S'ADJ'
p748
F1.0
s(lp749
g204
atp750
a(S'bestimmungen'
p751
(dp752
S'VERB'
p753
F1.8e-05
sS'NOUN'
p754
F0.999955
s(lp755
g176
atp756
a(S'f\xc3\xbcr'
p757
(dp758
S'ADP'
p759
F1.0
s(lp760
g183
atp761
a(S'delegierte'
p762
(dp763
S'VERB'
p764
F1e-06
sS'ADJ'
p765
F0.999999
s(lp766
g198
atp767
a(S'rechtsakte'
p768
(dp769
S'ADJ'
p770
F0.003057
sS'NOUN'
p771
F0.994879
s(lp772
g190
atp773
a(S'anpassen'
p774
(dp775
S'VERB'
p776
F1.0
s(lp777
g99
atp778
a(S'sollen'
p779
(dp780
S'VERB'
p781
F0.999159
s(lp782
g87
atp783
a(g16
(dp784
g16
F1.0
s(lp785
g16
atp786
asS'it'
p787
(lp788
(S'la'
p789
(dp790
S'PRON'
p791
F0.000408
sS'DET'
p792
F0.999592
s(lp793
g8
atp794
a(S'relazione'
p795
(dp796
S'NOUN'
p797
F1.0
s(lp798
g48
atp799
a(S'propone'
p800
(dp801
S'VERB'
p802
F1.0
s(lp803
g54
atp804
a(S'una'
p805
(dp806
S'PRON'
p807
F6.8e-05
sS'DEF'
p808
F0.999932
s(lp809
g62
atp810
a(S'serie'
p811
(dp812
S'ADJ'
p813
F0.025892
sS'NOUN'
p814
F0.974108
s(lp815
g69
atp816
a(S'di'
p817
(dp818
S'CONJ'
p819
F4e-06
sS'ADP'
p820
F0.999996
s(lp821
g75
atp822
a(S'modifiche'
p823
(dp824
S'NOUN'
p825
F1.0
s(lp826
g81
atp827
a(S'finalizzate'
p828
(dp829
S'VERB'
p830
F0.9999990000000001
s(lp831
g87
atp832
a(S'ad'
p833
(dp834
S'ADP'
p835
F1.0
s(lp836
g93
atp837
a(S'adeguare'
p838
(dp839
S'VERB'
p840
F1.0
s(lp841
g99
atp842
a(S'le'
p843
(dp844
S'PRON'
p845
F0.0
sS'DET'
p846
F1.0
s(lp847
tp848
a(S'disposizioni'
p849
(dp850
S'NOUN'
p851
F1.0
s(lp852
g112
atp853
a(S'della'
p854
(dp855
S'DEF'
p856
F0.001587
sS'ADP'
p857
F0.998413
s(lp858
g126
atp859
a(S'procedura'
p860
(dp861
S'NOUN'
p862
F1.0
s(lp863
g132
atp864
a(S'di'
p865
(dp866
S'CONJ'
p867
F4e-06
sS'ADP'
p868
F0.999996
s(lp869
tp870
a(S'regolamentazione'
p871
(dp872
S'NOUN'
p873
F1.0
s(lp874
g143
atp875
a(S'con'
p876
(dp877
S'ADP'
p878
F1.0
s(lp879
g150
atp880
a(S'controllo'
p881
(dp882
S'VERB'
p883
F2.5e-05
sS'NOUN'
p884
F0.999975
s(lp885
g157
atp886
a(S'alle'
p887
(dp888
S'ADP'
p889
F1.0
s(lp890
g331
atp891
a(S'nuove'
p892
(dp893
S'NOUN'
p894
F0.008906
sS'ADJ'
p895
F0.991094
s(lp896
g170
atp897
a(S'norme'
p898
(dp899
S'NOUN'
p900
F1.0
s(lp901
g176
atp902
a(S'sugli'
p903
(dp904
S'ADP'
p905
F1.0
s(lp906
g183
atp907
a(S'atti'
p908
(dp909
S'ADJ'
p910
F0.086871
sS'NOUN'
p911
F0.913129
s(lp912
g190
atp913
a(S'delegati'
p914
(dp915
S'NOUN'
p916
F0.34244
sS'VERB'
p917
F0.098007
sS'ADJ'
p918
F0.559553
s(lp919
g198
atp920
a(S'introdotte'
p921
(dp922
S'VERB'
p923
F0.940817
sS'ADJ'
p924
F0.059183
s(lp925
g204
atp926
a(S'dal'
p927
(dp928
S'ADP'
p929
F1.0
s(lp930
g211
atp931
a(S'trattato'
p932
(dp933
S'VERB'
p934
F0.13335
sS'NOUN'
p935
F0.86665
s(lp936
g225
atp937
a(S'di'
p938
(dp939
S'CONJ'
p940
F5.9e-05
sS'ADP'
p941
F0.999941
s(lp942
g231
atp943
a(S'lisbona'
p944
(dp945
S'ADJ'
p946
F0.020934
sS'VERB'
p947
F0.531872
sS'NOUN'
p948
F0.447193
s(lp949
g239
atp950
a(g16
(dp951
g16
F1.0
s(lp952
g16
atp953
asS'sk'
p954
(lp955
(S'spr\xc3\xa1va'
p956
(dp957
S'VERB'
p958
F0.000202
sS'NOUN'
p959
F0.999798
s(lp960
g48
atp961
a(S'predklad\xc3\xa1'
p962
(dp963
S'VERB'
p964
F1.0
s(lp965
g54
atp966
a(S's\xc3\xbabor'
p967
(dp968
S'NOUN'
p969
F1.0
s(lp970
g69
atp971
a(S'pozme\xc5\x88uj\xc3\xbacich'
p972
(dp973
S'ADJ'
p974
F0.176421
sS'VERB'
p975
F0.48869299999999993
sS'NOUN'
p976
F0.334887
s(lp977
g81
atp978
a(g62
(dp979
S'X'
p980
F0.001846
sS'CONJ'
p981
F0.996407
sS'NOUN'
p982
F0.000934
sS'ADP'
p983
F0.000663
sS'PRT'
p984
F0.000151
s(lp985
g81
atp986
a(S'dopl\xc5\x88uj\xc3\xbacich'
p987
(dp988
S'NOUN'
p989
F0.000102
sS'VERB'
p990
F0.35328099999999996
sS'ADJ'
p991
F0.646616
s(lp992
tp993
a(S'n\xc3\xa1vrhov'
p994
(dp995
S'NOUN'
p996
F1.0
s(lp997
g81
atp998
a(S's'
p999
(dp1000
g980
F0.00085
sS'CONJ'
p1001
F7.9e-05
sS'NOUN'
p1002
F7e-06
sS'ADP'
p1003
F0.999034
sS'PRT'
p1004
F3.1e-05
s(lp1005
g277
atp1006
a(S'cie\xc4\xbeom'
p1007
(dp1008
S'NOUN'
p1009
F1.0
s(lp1010
g87
atp1011
a(S'prisp\xc3\xb4sobi\xc5\xa5'
p1012
(dp1013
S'VERB'
p1014
F1.0
s(lp1015
g99
atp1016
a(S'ustanovenia'
p1017
(dp1018
S'NOUN'
p1019
F1.0
s(lp1020
g112
atp1021
a(S'o'
p1022
(dp1023
g980
F0.00011899999999999999
sS'CONJ'
p1024
F7.5e-05
sS'NOUN'
p1025
F1.1e-05
sS'ADP'
p1026
F0.999794
s(lp1027
g118
atp1028
a(S'regula\xc4\x8dnom'
p1029
(dp1030
S'ADJ'
p1031
F1.0
s(lp1032
g143
atp1033
a(S'postupe'
p1034
(dp1035
S'NOUN'
p1036
F1.0
s(lp1037
g132
atp1038
a(g999
(dp1039
g980
F0.002775
sS'CONJ'
p1040
F6.4e-05
sS'NOUN'
p1041
F1.4e-05
sS'ADP'
p1042
F0.997126
sS'PRT'
p1043
F2.1e-05
s(lp1044
g150
atp1045
a(S'kontrolou'
p1046
(dp1047
S'NOUN'
p1048
F1.0
s(lp1049
g157
atp1050
a(S'nov\xc3\xbdm'
p1051
(dp1052
S'ADJ'
p1053
F1.0
s(lp1054
g170
atp1055
a(S'ustanoveniam'
p1056
(dp1057
S'NOUN'
p1058
F1.0
s(lp1059
g176
atp1060
a(g1022
(dp1061
g980
F7.400000000000001e-05
sS'CONJ'
p1062
F5.9e-05
sS'NOUN'
p1063
F2.1e-05
sS'ADP'
p1064
F0.999846
s(lp1065
g183
atp1066
a(S'delegovan\xc3\xbdch'
p1067
(dp1068
S'NOUN'
p1069
F0.000246
sS'VERB'
p1070
F0.001273
sS'ADJ'
p1071
F0.998481
s(lp1072
g198
atp1073
a(S'aktoch'
p1074
(dp1075
S'NOUN'
p1076
F1.0
s(lp1077
g190
atp1078
a(S'zaveden\xc3\xbdch'
p1079
(dp1080
S'VERB'
p1081
F1.0
s(lp1082
g204
atp1083
a(S'lisabonskou'
p1084
(dp1085
S'NOUN'
p1086
F0.005703
sS'VERB'
p1087
F0.06988699999999999
sS'ADJ'
p1088
F0.924411
s(lp1089
g239
atp1090
a(S'zmluvou'
p1091
(dp1092
S'NOUN'
p1093
F1.0
s(lp1094
g225
atp1095
a(g16
(dp1096
g16
F1.0
s(lp1097
g16
atp1098
asS'pl'
p1099
(lp1100
(S'w'
p1101
(dp1102
S'ADJ'
p1103
F0.0
sg980
F0.0
sS'NOUN'
p1104
F0.0
sS'ADP'
p1105
F1.0
s(lp1106
g8
atp1107
a(S'sprawozdaniu'
p1108
(dp1109
S'NOUN'
p1110
F1.0
s(lp1111
g48
atp1112
a(S'zaproponowano'
p1113
(dp1114
S'VERB'
p1115
F1.0
s(lp1116
g54
atp1117
a(S'szereg'
p1118
(dp1119
S'NOUN'
p1120
F1.0
s(lp1121
g69
atp1122
a(S'poprawek'
p1123
(dp1124
S'NOUN'
p1125
F1.0
s(lp1126
g81
atp1127
a(g1101
(dp1128
S'ADJ'
p1129
F0.0
sg980
F0.0
sS'NOUN'
p1130
F0.0
sS'ADP'
p1131
F0.999999
s(lp1132
tp1133
a(S'celu'
p1134
(dp1135
S'NOUN'
p1136
F1.0
s(lp1137
g87
atp1138
a(S'dostosowania'
p1139
(dp1140
S'VERB'
p1141
F1.0
s(lp1142
g99
atp1143
a(S'przepis\xc3\xb3w'
p1144
(dp1145
S'NOUN'
p1146
F1.0
s(lp1147
g112
atp1148
a(S'dotycz\xc4\x85cych'
p1149
(dp1150
S'VERB'
p1151
F0.9999990000000001
s(lp1152
g118
atp1153
a(S'procedury'
p1154
(dp1155
S'NOUN'
p1156
F1.0
s(lp1157
g132
atp1158
a(S'regulacyjno-kontrolnej'
p1159
(dp1160
S'ADV'
p1161
F0.001246
sS'NOUN'
p1162
F0.050587999999999994
sS'VERB'
p1163
F0.130733
sS'ADJ'
p1164
F0.8174330000000001
s(lp1165
g157
atp1166
a(S'do'
p1167
(dp1168
g980
F0.0
sS'NOUN'
p1169
F3e-06
sS'ADP'
p1170
F0.999996
s(lp1171
g331
atp1172
a(S'nowych'
p1173
(dp1174
S'NOUN'
p1175
F0.0
sS'ADJ'
p1176
F1.0
s(lp1177
g170
atp1178
a(S'przepis\xc3\xb3w'
p1179
(dp1180
S'NOUN'
p1181
F1.0
s(lp1182
g176
atp1183
a(g1101
(dp1184
S'ADJ'
p1185
F0.0
sg980
F0.0
sS'NOUN'
p1186
F0.0
sS'ADP'
p1187
F1.0
s(lp1188
tp1189
a(S'zakresie'
p1190
(dp1191
S'NOUN'
p1192
F1.0
s(lp1193
g183
atp1194
a(S'akt\xc3\xb3w'
p1195
(dp1196
S'NOUN'
p1197
F1.0
s(lp1198
g190
atp1199
a(S'delegowanych'
p1200
(dp1201
S'ADV'
p1202
F0.000189
sS'NOUN'
p1203
F0.06474399999999997
sS'VERB'
p1204
F0.202729
sS'ADJ'
p1205
F0.7323389999999997
s(lp1206
g198
atp1207
a(g658
(dp1208
g980
F0.0
sg16
F1.0
s(lp1209
tp1210
a(S'kt\xc3\xb3re'
p1211
(dp1212
S'ADJ'
p1213
F0.9999990000000001
s(lp1214
g277
atp1215
a(S'wprowadza'
p1216
(dp1217
S'VERB'
p1218
F1.0
s(lp1219
g204
atp1220
a(S'traktat'
p1221
(dp1222
S'NOUN'
p1223
F1.0
s(lp1224
g225
atp1225
a(S'z'
p1226
(dp1227
S'PRT'
p1228
F6e-06
sS'VERB'
p1229
F4e-06
sS'NOUN'
p1230
F6e-06
sS'ADP'
p1231
F0.999982
sg980
F2e-06
s(lp1232
g231
atp1233
a(S'lizbony'
p1234
(dp1235
S'ADJ'
p1236
F0.019225999999999997
sS'VERB'
p1237
F0.15704500000000005
sS'NOUN'
p1238
F0.8237290000000003
s(lp1239
g239
atp1240
a(g16
(dp1241
g16
F1.0
s(lp1242
g16
atp1243
asS'sl'
p1244
(lp1245
(S'v'
p1246
(dp1247
S'ADP'
p1248
F1.0
s(lp1249
g231
atp1250
a(S'pisni'
p1251
(dp1252
S'ADJ'
p1253
F1.0
s(lp1254
g231
atp1255
a(S'obliki'
p1256
(dp1257
S'NOUN'
p1258
F1.0
s(lp1259
g231
atp1260
a(g16
(dp1261
g16
F1.0
s(lp1262
g231
atp1263
a(g20
(dp1264
g16
F1.0
s(lp1265
g231
atp1266
a(g24
(dp1267
g16
F1.0
s(lp1268
tp1269
a(S'pl'
p1270
(dp1271
S'ADJ'
p1272
F0.0011220000000000002
sg980
F0.115589
sS'ADV'
p1273
F0.000496
sS'VERB'
p1274
F0.061393
sS'NOUN'
p1275
F0.8214009999999999
s(lp1276
g231
atp1277
a(g35
(dp1278
g16
F1.0
s(lp1279
g8
atp1280
a(S'poro\xc4\x8dilo'
p1281
(dp1282
S'NOUN'
p1283
F1.0
s(lp1284
g48
atp1285
a(S'predlaga'
p1286
(dp1287
S'VERB'
p1288
F1.0
s(lp1289
g54
atp1290
a(S'niz'
p1291
(dp1292
S'NOUN'
p1293
F1.0
s(lp1294
g69
atp1295
a(S'sprememb'
p1296
(dp1297
S'NOUN'
p1298
F1.0
s(lp1299
g81
atp1300
a(g658
(dp1301
g16
F1.0
s(lp1302
tp1303
a(S'katerih'
p1304
(dp1305
S'PRON'
p1306
F1.0
s(lp1307
g277
atp1308
a(S'namen'
p1309
(dp1310
S'NOUN'
p1311
F1.0
s(lp1312
g87
atp1313
a(S'je'
p1314
(dp1315
S'PRON'
p1316
F0.000296
sS'VERB'
p1317
F0.999672
sg980
F3.2e-05
s(lp1318
g126
atp1319
a(S'prilagoditi'
p1320
(dp1321
S'VERB'
p1322
F1.0
s(lp1323
g99
atp1324
a(S'dolo\xc4\x8dbe'
p1325
(dp1326
S'NOUN'
p1327
F1.0
s(lp1328
g112
atp1329
a(S'regulativnemu'
p1330
(dp1331
S'ADV'
p1332
F0.003161
sS'NOUN'
p1333
F0.13016299999999997
sS'PRON'
p1334
F0.008218
sS'VERB'
p1335
F0.10407400000000003
sS'NUM'
p1336
F0.00252
sS'ADJ'
p1337
F0.751861
s(lp1338
g143
atp1339
a(S'postopku'
p1340
(dp1341
S'NOUN'
p1342
F1.0
s(lp1343
g132
atp1344
a(g999
(dp1345
S'VERB'
p1346
F1e-06
sS'NOUN'
p1347
F1e-05
sS'ADP'
p1348
F0.999989
s(lp1349
g150
atp1350
a(S'pregledom'
p1351
(dp1352
S'NOUN'
p1353
F1.0
s(lp1354
g157
atp1355
a(S'novim'
p1356
(dp1357
S'ADJ'
p1358
F1.0
s(lp1359
g170
atp1360
a(S'dolo\xc4\x8dbam'
p1361
(dp1362
S'NOUN'
p1363
F1.0
s(lp1364
g176
atp1365
a(g1022
(dp1366
S'NOUN'
p1367
F4e-06
sS'ADP'
p1368
F0.999996
s(lp1369
g183
atp1370
a(S'delegiranih'
p1371
(dp1372
S'ADV'
p1373
F0.0
sS'NOUN'
p1374
F0.000768
sS'VERB'
p1375
F0.0
sS'ADJ'
p1376
F0.99923
s(lp1377
g198
atp1378
a(S'aktih'
p1379
(dp1380
S'NOUN'
p1381
F1.0
s(lp1382
g190
atp1383
a(g658
(dp1384
g16
F1.0
s(lp1385
tp1386
a(S'ki'
p1387
(dp1388
S'CONJ'
p1389
F1.0
s(lp1390
g204
atp1391
a(S'jih'
p1392
(dp1393
S'PRON'
p1394
F1.0
s(lp1395
g211
atp1396
a(S'uvaja'
p1397
(dp1398
S'VERB'
p1399
F1.0
s(lp1400
g225
atp1401
a(S'lizbonska'
p1402
(dp1403
S'NOUN'
p1404
F0.00044600000000000005
sS'ADJ'
p1405
F0.999553
s(lp1406
tp1407
a(S'pogodba'
p1408
(dp1409
S'NOUN'
p1410
F1.0
s(lp1411
g239
atp1412
a(g16
(dp1413
g16
F1.0
s(lp1414
g16
atp1415
asS'es'
p1416
(lp1417
(S'el'
p1418
(dp1419
S'PRON'
p1420
F2.6e-05
sS'DET'
p1421
F0.999974
s(lp1422
g8
atp1423
a(S'informe'
p1424
(dp1425
S'VERB'
p1426
F2.8e-05
sS'NOUN'
p1427
F0.999972
s(lp1428
g48
atp1429
a(S'propone'
p1430
(dp1431
S'VERB'
p1432
F1.0
s(lp1433
g54
atp1434
a(S'una'
p1435
(dp1436
S'DET'
p1437
F1.0
s(lp1438
g62
atp1439
a(S'serie'
p1440
(dp1441
S'NOUN'
p1442
F1.0
s(lp1443
g69
atp1444
a(S'de'
p1445
(dp1446
g980
F0.018204
sS'CONJ'
p1447
F0.006561
sS'ADP'
p1448
F0.975235
s(lp1449
g75
atp1450
a(S'enmiendas'
p1451
(dp1452
S'VERB'
p1453
F1.0
s(lp1454
g81
atp1455
a(S'que'
p1456
(dp1457
g980
F0.0
sS'CONJ'
p1458
F1.0
s(lp1459
g277
atp1460
a(S'tienen'
p1461
(dp1462
S'VERB'
p1463
F1.0
s(lp1464
g87
atp1465
a(S'por'
p1466
(dp1467
S'ADP'
p1468
F1.0
s(lp1469
tp1470
a(S'objeto'
p1471
(dp1472
S'NOUN'
p1473
F1.0
s(lp1474
g93
atp1475
a(S'adaptar'
p1476
(dp1477
S'VERB'
p1478
F1.0
s(lp1479
g99
atp1480
a(S'las'
p1481
(dp1482
S'PRON'
p1483
F2e-06
sS'DET'
p1484
F0.999998
s(lp1485
tp1486
a(S'disposiciones'
p1487
(dp1488
S'NOUN'
p1489
F1.0
s(lp1490
g112
atp1491
a(S'sobre'
p1492
(dp1493
S'NOUN'
p1494
F0.0
sS'ADP'
p1495
F1.0
s(lp1496
g118
atp1497
a(S'el'
p1498
(dp1499
S'PRON'
p1500
F5e-06
sS'DET'
p1501
F0.999995
s(lp1502
g126
atp1503
a(S'procedimiento'
p1504
(dp1505
S'NOUN'
p1506
F1.0
s(lp1507
g132
atp1508
a(S'de'
p1509
(dp1510
g980
F2.9e-05
sS'CONJ'
p1511
F0.000449
sS'ADP'
p1512
F0.999522
s(lp1513
tp1514
a(S'reglamentaci\xc3\xb3n'
p1515
(dp1516
S'NOUN'
p1517
F1.0
s(lp1518
g143
atp1519
a(S'con'
p1520
(dp1521
S'ADP'
p1522
F1.0
s(lp1523
g150
atp1524
a(S'control'
p1525
(dp1526
g980
F0.000107
sS'NOUN'
p1527
F0.999893
s(lp1528
g157
atp1529
a(S'de'
p1530
(dp1531
g980
F0.0
sS'CONJ'
p1532
F1.7e-05
sS'ADP'
p1533
F0.999983
s(lp1534
g331
atp1535
a(S'las'
p1536
(dp1537
S'PRON'
p1538
F0.0
sS'DET'
p1539
F1.0
s(lp1540
g163
atp1541
a(S'nuevas'
p1542
(dp1543
S'NOUN'
p1544
F0.244226
sS'ADJ'
p1545
F0.755774
s(lp1546
g170
atp1547
a(S'disposiciones'
p1548
(dp1549
S'NOUN'
p1550
F1.0
s(lp1551
g176
atp1552
a(S'sobre'
p1553
(dp1554
S'NOUN'
p1555
F0.0
sS'ADP'
p1556
F1.0
s(lp1557
g183
atp1558
a(S'los'
p1559
(dp1560
S'PRON'
p1561
F0.0
sS'DET'
p1562
F1.0
s(lp1563
tp1564
a(S'actos'
p1565
(dp1566
S'NOUN'
p1567
F1.0
s(lp1568
g190
atp1569
a(S'delegados'
p1570
(dp1571
S'VERB'
p1572
F0.434342
sS'NOUN'
p1573
F0.565658
s(lp1574
g198
atp1575
a(S'introducidas'
p1576
(dp1577
S'VERB'
p1578
F1.0
s(lp1579
g204
atp1580
a(S'por'
p1581
(dp1582
S'ADP'
p1583
F1.0
s(lp1584
g211
atp1585
a(S'el'
p1586
(dp1587
S'PRON'
p1588
F4.7e-05
sS'DET'
p1589
F0.999953
s(lp1590
g218
atp1591
a(S'tratado'
p1592
(dp1593
S'VERB'
p1594
F0.751086
sS'NOUN'
p1595
F0.248914
s(lp1596
g225
atp1597
a(S'de'
p1598
(dp1599
g980
F1.7e-05
sS'CONJ'
p1600
F0.018469
sS'ADP'
p1601
F0.981513
s(lp1602
g231
atp1603
a(S'lisboa'
p1604
(dp1605
S'ADV'
p1606
F0.004983
sS'ADJ'
p1607
F0.06809
sS'VERB'
p1608
F0.06356700000000001
sS'NOUN'
p1609
F0.8633609999999999
s(lp1610
g239
atp1611
a(g16
(dp1612
g16
F1.0
s(lp1613
g16
atp1614
as.