(dp0
S'fr'
p1
(lp2
(S'rien'
p3
(dp4
S'ADV'
p5
F0.606881
sS'NOUN'
p6
F0.393119
s(lp7
S'opposite'
p8
atp9
a(S"n'"
p10
(dp11
S'NOUN'
p12
F0.035306
sS'VERB'
p13
F0.7319850000000001
sS'ADJ'
p14
F0.232708
s(lp15
tp16
a(S'est'
p17
(dp18
S'VERB'
p19
F0.999313
sS'NOUN'
p20
F0.000687
s(lp21
S'is'
p22
atp23
a(S'plus'
p24
(dp25
S'ADV'
p26
F0.999908
sS'VERB'
p27
F9.300000000000001e-05
s(lp28
S'exactly'
p29
atp30
a(S'faux'
p31
(dp32
S'NOUN'
p33
F0.007999
sS'ADJ'
p34
F0.992001
s(lp35
S'true'
p36
atp37
a(S'.'
p38
(dp39
g38
F1.0
s(lp40
g38
atp41
asS'en'
p42
(lp43
(g29
(dp44
S'ADV'
p45
F1.0
s(lp46
g29
atp47
a(S'the'
p48
(dp49
S'NOUN'
p50
F1e-06
sS'DET'
p51
F0.999999
s(lp52
g48
atp53
a(g8
(dp54
S'ADJ'
p55
F0.096327
sS'NOUN'
p56
F0.903401
sS'ADP'
p57
F0.000272
s(lp58
g8
atp59
a(g22
(dp60
S'VERB'
p61
F1.0
s(lp62
g22
atp63
a(g36
(dp64
S'ADV'
p65
F0.003262
sS'NOUN'
p66
F0.000752
sS'VERB'
p67
F3.6e-05
sS'ADJ'
p68
F0.995951
s(lp69
g36
atp70
a(g38
(dp71
g38
F1.0
s(lp72
g38
atp73
asS'nl'
p74
(lp75
(S'het'
p76
(dp77
S'PRON'
p78
F0.01289
sS'DET'
p79
F0.98711
s(lp80
g48
atp81
a(S'tegendeel'
p82
(dp83
S'NOUN'
p84
F1.0
s(lp85
g8
atp86
a(S'is'
p87
(dp88
S'VERB'
p89
F1.0
s(lp90
g22
atp91
a(S'waar'
p92
(dp93
S'ADV'
p94
F0.9999
sS'ADJ'
p95
F4.7e-05
sS'NOUN'
p96
F5.3e-05
s(lp97
g36
atp98
a(g38
(dp99
g38
F1.0
s(lp100
g38
atp101
asS'de'
p102
(lp103
(S'das'
p104
(dp105
S'PRON'
p106
F0.031572
sS'DET'
p107
F0.96811
s(lp108
g48
atp109
a(S'gegenteil'
p110
(dp111
S'ADJ'
p112
F0.000998
sS'NOUN'
p113
F0.998716
s(lp114
g8
atp115
a(S'ist'
p116
(dp117
S'VERB'
p118
F1.0
s(lp119
g22
atp120
a(S'der'
p121
(dp122
S'PRON'
p123
F0.118795
sS'DET'
p124
F0.881126
s(lp125
tp126
a(S'fall'
p127
(dp128
S'VERB'
p129
F1.0
s(lp130
g36
atp131
a(g38
(dp132
g38
F1.0
s(lp133
g38
atp134
asS'it'
p135
(lp136
(S'\xc3\x88'
p137
(dp138
S'VERB'
p139
F1.0
s(lp140
g22
atp141
a(S'vero'
p142
(dp143
S'NOUN'
p144
F0.233122
sS'ADJ'
p145
F0.766878
s(lp146
g36
atp147
a(S'esattamente'
p148
(dp149
S'ADV'
p150
F1.0
s(lp151
g29
atp152
a(S'il'
p153
(dp154
S'DET'
p155
F1.0
s(lp156
g48
atp157
a(S'contrario'
p158
(dp159
S'ADJ'
p160
F0.075634
sS'VERB'
p161
F1e-06
sS'NOUN'
p162
F0.924365
s(lp163
g8
atp164
a(g38
(dp165
g38
F1.0
s(lp166
g38
atp167
asS'sk'
p168
(lp169
(S'presn\xc3\xbd'
p170
(dp171
S'ADJ'
p172
F1.0
s(lp173
g29
atp174
a(S'opak'
p175
(dp176
S'NOUN'
p177
F1.0
s(lp178
g8
atp179
a(S'je'
p180
(dp181
S'X'
p182
F0.000174
sS'VERB'
p183
F0.999749
sS'PRON'
p184
F7.7e-05
s(lp185
g22
atp186
a(S'pravda'
p187
(dp188
g182
F0.150076
sS'NOUN'
p189
F0.849924
s(lp190
g36
atp191
a(g38
(dp192
g38
F1.0
s(lp193
g38
atp194
asS'pl'
p195
(lp196
(S'jest'
p197
(dp198
S'VERB'
p199
F1.0
s(lp200
g22
atp201
a(S'wr\xc4\x99cz'
p202
(dp203
S'ADV'
p204
F0.006009
sS'PRT'
p205
F0.992513
sS'VERB'
p206
F0.001478
s(lp207
tp208
a(S'przeciwnie'
p209
(dp210
S'ADV'
p211
F1.0
s(lp212
g8
atp213
a(g38
(dp214
g38
F1.0
s(lp215
g38
atp216
asS'sl'
p217
(lp218
(S'resnica'
p219
(dp220
S'NOUN'
p221
F1.0
s(lp222
g36
atp223
a(S'je'
p224
(dp225
S'PRON'
p226
F0.000553
sS'VERB'
p227
F0.9994339999999999
sg182
F1.3e-05
s(lp228
g22
atp229
a(S'ravno'
p230
(dp231
S'ADV'
p232
F0.057862
sS'PRT'
p233
F0.942129
sS'ADJ'
p234
F9e-06
s(lp235
g29
atp236
a(S'nasprotna'
p237
(dp238
S'ADJ'
p239
F0.9999999999999999
s(lp240
g8
atp241
a(g38
(dp242
g38
F1.0
s(lp243
g38
atp244
asS'es'
p245
(lp246
(S'pero'
p247
(dp248
S'CONJ'
p249
F0.998429
sS'NOUN'
p250
F0.001571
s(lp251
g29
atp252
a(S'es'
p253
(dp254
S'VERB'
p255
F1.0
s(lp256
g22
atp257
a(S'justamente'
p258
(dp259
S'ADV'
p260
F1.0
s(lp261
g8
atp262
a(S'lo'
p263
(dp264
S'PRON'
p265
F0.008554
sS'DET'
p266
F0.991446
s(lp267
tp268
a(S'contrario'
p269
(dp270
S'NOUN'
p271
F0.253792
sS'ADJ'
p272
F0.746208
s(lp273
g8
atp274
a(g38
(dp275
g38
F1.0
s(lp276
g38
atp277
as.