(dp0
S'fr'
p1
(lp2
(S'toutefois'
p3
(dp4
S'ADV'
p5
F1.0
s(lp6
S'however'
p7
atp8
a(S','
p9
(dp10
S'.'
p11
F1.0
s(lp12
g9
atp13
a(S"l'"
p14
(dp15
S'ADJ'
p16
F0.13429
sS'VERB'
p17
F0.638201
sS'NOUN'
p18
F0.227509
s(lp19
tp20
a(S'amiti\xc3\xa9'
p21
(dp22
S'NOUN'
p23
F1.0
s(lp24
S'friendship'
p25
atp26
a(S'ne'
p27
(dp28
S'ADV'
p29
F1.0
s(lp30
tp31
a(S'veut'
p32
(dp33
S'VERB'
p34
F1.0
s(lp35
S'mean'
p36
atp37
a(S'pas'
p38
(dp39
S'ADV'
p40
F0.999903
sS'NOUN'
p41
F9.7e-05
s(lp42
S'not'
p43
atp44
a(S'dire'
p45
(dp46
S'VERB'
p47
F0.999944
sS'NOUN'
p48
F5.6e-05
s(lp49
tp50
a(S'\xc3\xaatre'
p51
(dp52
S'VERB'
p53
F0.984628
sS'NOUN'
p54
F0.015372
s(lp55
g36
atp56
a(S'aveugle'
p57
(dp58
S'ADJ'
p59
F0.316804
sS'VERB'
p60
F0.007921999999999998
sS'NOUN'
p61
F0.675275
s(lp62
S'blindness'
p63
atp64
a(g9
(dp65
g11
F1.0
s(lp66
tp67
a(S'mais'
p68
(dp69
S'CONJ'
p70
F1.0
s(lp71
tp72
a(S'plut\xc3\xb4t'
p73
(dp74
S'ADV'
p75
F1.0
s(lp76
S'but'
p77
atp78
a(S'\xc3\xaatre'
p79
(dp80
S'VERB'
p81
F0.983286
sS'NOUN'
p82
F0.016714
s(lp83
tp84
a(S'pr\xc3\xaat'
p85
(dp86
S'NOUN'
p87
F0.152545
sS'ADJ'
p88
F0.847455
s(lp89
S'willingness'
p90
atp91
a(S'\xc3\xa0'
p92
(dp93
S'ADP'
p94
F1.0
s(lp95
S'to'
p96
atp97
a(S'\xc3\xaatre'
p98
(dp99
S'VERB'
p100
F0.951983
sS'NOUN'
p101
F0.048017
s(lp102
S'be'
p103
atp104
a(S'honn\xc3\xaate'
p105
(dp106
S'NOUN'
p107
F0.239381
sS'ADJ'
p108
F0.760619
s(lp109
S'honest'
p110
atp111
a(g11
(dp112
g11
F1.0
s(lp113
g11
atp114
asS'en'
p115
(lp116
(g7
(dp117
S'ADV'
p118
F1.0
s(lp119
g7
atp120
a(g9
(dp121
g11
F1.0
s(lp122
g9
atp123
a(g25
(dp124
S'NOUN'
p125
F1.0
s(lp126
g25
atp127
a(S'does'
p128
(dp129
S'VERB'
p130
F0.999348
sS'NOUN'
p131
F0.000652
s(lp132
g128
atp133
a(g43
(dp134
S'ADV'
p135
F1.0
s(lp136
g43
atp137
a(g36
(dp138
S'NOUN'
p139
F0.009412
sS'VERB'
p140
F0.45435400000000004
sS'ADJ'
p141
F0.536234
s(lp142
g36
atp143
a(g63
(dp144
S'NOUN'
p145
F1.0
s(lp146
g63
atp147
a(g77
(dp148
S'ADV'
p149
F0.001239
sS'CONJ'
p150
F0.99876
sS'NOUN'
p151
F1e-06
s(lp152
g77
atp153
a(S'the'
p154
(dp155
S'NOUN'
p156
F2e-06
sS'DET'
p157
F0.999998
s(lp158
g154
atp159
a(g90
(dp160
S'NOUN'
p161
F1.0
s(lp162
g90
atp163
a(g96
(dp164
S'ADV'
p165
F0.0
sS'PRT'
p166
F1.0
sS'ADP'
p167
F0.0
s(lp168
g96
atp169
a(g103
(dp170
S'VERB'
p171
F1.0
s(lp172
g103
atp173
a(g110
(dp174
S'ADJ'
p175
F1.0
s(lp176
g110
atp177
a(g11
(dp178
g11
F1.0
s(lp179
g11
atp180
asS'nl'
p181
(lp182
(S'echter'
p183
(dp184
S'ADV'
p185
F0.999801
sS'ADJ'
p186
F0.000199
s(lp187
g7
atp188
a(g9
(dp189
g11
F1.0
s(lp190
g9
atp191
a(S'vriendschap'
p192
(dp193
S'NOUN'
p194
F1.0
s(lp195
g25
atp196
a(S'betekent'
p197
(dp198
S'VERB'
p199
F1.0
s(lp200
g128
atp201
a(S'geen'
p202
(dp203
S'PRON'
p204
F0.999981
sS'DET'
p205
F1.9e-05
s(lp206
g43
atp207
a(S'blindheid'
p208
(dp209
S'NOUN'
p210
F1.0
s(lp211
g63
atp212
a(S'maar'
p213
(dp214
S'ADV'
p215
F0.133796
sS'CONJ'
p216
F0.866203
sS'NOUN'
p217
F2e-06
s(lp218
g77
atp219
a(S'de'
p220
(dp221
S'DET'
p222
F1.0
s(lp223
g154
atp224
a(S'bereidheid'
p225
(dp226
S'NOUN'
p227
F1.0
s(lp228
g90
atp229
a(S'om'
p230
(dp231
S'ADV'
p232
F0.026654
sS'CONJ'
p233
F0.384686
sS'ADP'
p234
F0.58866
s(lp235
tp236
a(S'eerlijk'
p237
(dp238
S'ADJ'
p239
F1.0
s(lp240
g110
atp241
a(S'te'
p242
(dp243
S'PRT'
p244
F1.0
s(lp245
g96
atp246
a(S'zijn'
p247
(dp248
S'PRON'
p249
F0.000953
sS'VERB'
p250
F0.999047
sS'NOUN'
p251
F0.0
s(lp252
g103
atp253
a(g11
(dp254
g11
F1.0
s(lp255
g11
atp256
asS'de'
p257
(lp258
(S'aber'
p259
(dp260
S'ADV'
p261
F0.642429
sS'CONJ'
p262
F0.357571
s(lp263
g7
atp264
a(S'freundschaft'
p265
(dp266
S'ADJ'
p267
F0.014436
sS'NOUN'
p268
F0.984827
s(lp269
g25
atp270
a(S'bedeutet'
p271
(dp272
S'VERB'
p273
F0.979346
sS'ADJ'
p274
F0.018696
s(lp275
g128
atp276
a(S'nicht'
p277
(dp278
S'PRT'
p279
F1.0
s(lp280
g43
atp281
a(S'blindheit'
p282
(dp283
S'ADV'
p284
F0.053491
sS'ADJ'
p285
F0.875659
s(lp286
g63
atp287
a(g9
(dp288
g11
F1.0
s(lp289
g9
atp290
a(S'sondern'
p291
(dp292
S'CONJ'
p293
F0.999852
sS'VERB'
p294
F0.000148
s(lp295
g77
atp296
a(S'den'
p297
(dp298
S'PRON'
p299
F0.803739
sS'DET'
p300
F0.098445
s(lp301
g154
atp302
a(S'willen'
p303
(dp304
S'ADP'
p305
F1.0
s(lp306
g90
atp307
a(g9
(dp308
g11
F1.0
s(lp309
tp310
a(S'ehrlich'
p311
(dp312
S'ADJ'
p313
F1.0
s(lp314
g110
atp315
a(S'zu'
p316
(dp317
S'PRT'
p318
F0.999945
s(lp319
g96
atp320
a(S'sein'
p321
(dp322
S'VERB'
p323
F0.999957
s(lp324
g103
atp325
a(g11
(dp326
g11
F1.0
s(lp327
g11
atp328
asS'it'
p329
(lp330
(S'tuttavia'
p331
(dp332
S'ADV'
p333
F1.0
s(lp334
g7
atp335
a(g9
(dp336
g11
F1.0
s(lp337
g9
atp338
a(S'amicizia'
p339
(dp340
S'NOUN'
p341
F1.0
s(lp342
g25
atp343
a(S'non'
p344
(dp345
S'ADV'
p346
F1.0
s(lp347
g43
atp348
a(S'significa'
p349
(dp350
S'VERB'
p351
F1.0
s(lp352
g36
atp353
a(S'cecit\xc3\xa0'
p354
(dp355
S'NOUN'
p356
F1.0
s(lp357
tp358
a(g9
(dp359
g11
F1.0
s(lp360
tp361
a(S'ma'
p362
(dp363
S'CONJ'
p364
F0.999975
sS'NOUN'
p365
F2.5e-05
s(lp366
g77
atp367
a(S'piuttosto'
p368
(dp369
S'ADV'
p370
F1.0
s(lp371
g63
atp372
a(S'volont\xc3\xa0'
p373
(dp374
S'NOUN'
p375
F1.0
s(lp376
g90
atp377
a(S'di'
p378
(dp379
S'CONJ'
p380
F6e-06
sS'ADP'
p381
F0.999994
s(lp382
g96
atp383
a(S'essere'
p384
(dp385
S'VERB'
p386
F0.998059
sS'NOUN'
p387
F0.001941
s(lp388
g103
atp389
a(S'onesti'
p390
(dp391
S'NOUN'
p392
F0.104399
sS'ADJ'
p393
F0.895601
s(lp394
g110
atp395
a(g11
(dp396
g11
F1.0
s(lp397
g11
atp398
asS'sk'
p399
(lp400
(S'priate\xc4\xbestvo'
p401
(dp402
S'NOUN'
p403
F1.0
s(lp404
g25
atp405
a(S'v\xc5\xa1ak'
p406
(dp407
S'X'
p408
F0.6666789999999999
sS'CONJ'
p409
F0.333322
s(lp410
g7
atp411
a(S'neznamen\xc3\xa1'
p412
(dp413
S'VERB'
p414
F1.0
s(lp415
g36
atp416
a(S'zaslepenos\xc5\xa5'
p417
(dp418
S'VERB'
p419
F0.005716000000000002
sS'NOUN'
p420
F0.9942840000000001
s(lp421
g63
atp422
a(g9
(dp423
g11
F1.0
s(lp424
g9
atp425
a(S'ale'
p426
(dp427
g408
F0.0041389999999999995
sS'CONJ'
p428
F0.995861
s(lp429
g77
atp430
a(S'ochotu'
p431
(dp432
S'NOUN'
p433
F1.0
s(lp434
g90
atp435
a(S'by\xc5\xa5'
p436
(dp437
S'VERB'
p438
F1.0
s(lp439
g103
atp440
a(S'\xc3\xbaprimn\xc3\xbd'
p441
(dp442
S'ADJ'
p443
F1.0
s(lp444
g110
atp445
a(g11
(dp446
g11
F1.0
s(lp447
g11
atp448
asS'pl'
p449
(lp450
(S'jednak\xc5\xbce'
p451
(dp452
S'PRT'
p453
F0.538959
sS'CONJ'
p454
F0.461041
s(lp455
g7
atp456
a(S'przyja\xc5\xba\xc5\x84'
p457
(dp458
S'NOUN'
p459
F1.0
s(lp460
g25
atp461
a(S'nie'
p462
(dp463
S'ADV'
p464
F1.9e-05
sS'PRT'
p465
F0.980942
sS'CONJ'
p466
F0.019023
sS'NOUN'
p467
F3e-06
sS'PRON'
p468
F1.4e-05
s(lp469
g43
atp470
a(S'oznacza'
p471
(dp472
S'VERB'
p473
F1.0
s(lp474
g36
atp475
a(S'za\xc5\x9blepienia'
p476
(dp477
S'ADJ'
p478
F0.008257
sS'VERB'
p479
F0.07791499999999998
sS'NOUN'
p480
F0.9138270000000001
s(lp481
g63
atp482
a(g9
(dp483
g408
F0.0
sg11
F1.0
s(lp484
g9
atp485
a(S'lecz'
p486
(dp487
S'CONJ'
p488
F1.0
s(lp489
g77
atp490
a(S'pragnienie'
p491
(dp492
S'VERB'
p493
F0.295382
sS'NOUN'
p494
F0.704617
s(lp495
g90
atp496
a(S'bycia'
p497
(dp498
S'VERB'
p499
F0.946692
sS'NOUN'
p500
F0.053308
s(lp501
g103
atp502
a(S'szczerym'
p503
(dp504
S'ADJ'
p505
F1.0
s(lp506
g110
atp507
a(g11
(dp508
g11
F1.0
s(lp509
g11
atp510
asS'sl'
p511
(lp512
(S'prijateljstvo'
p513
(dp514
S'NOUN'
p515
F1.0
s(lp516
g25
atp517
a(S'pa'
p518
(dp519
g408
F9e-06
sS'CONJ'
p520
F0.999991
s(lp521
tp522
a(S'ne'
p523
(dp524
S'PRT'
p525
F0.999274
sS'CONJ'
p526
F0.000648
sg408
F7.7e-05
s(lp527
g43
atp528
a(S'pomeni'
p529
(dp530
S'VERB'
p531
F0.9984970000000001
sS'NOUN'
p532
F0.001503
s(lp533
g36
atp534
a(S'slepote'
p535
(dp536
S'ADV'
p537
F0.001672
sS'ADJ'
p538
F0.018104000000000002
sS'VERB'
p539
F0.064555
sS'NOUN'
p540
F0.9156690000000002
s(lp541
g63
atp542
a(g9
(dp543
g11
F1.0
s(lp544
g9
atp545
a(S'pa\xc4\x8d'
p546
(dp547
S'PRT'
p548
F1.0
s(lp549
g77
atp550
a(S'pa'
p551
(dp552
g408
F5.4e-05
sS'CONJ'
p553
F0.999946
s(lp554
g7
atp555
a(S'odkritost'
p556
(dp557
S'NOUN'
p558
F1.0
s(lp559
g110
atp560
a(g11
(dp561
g11
F1.0
s(lp562
g11
atp563
asS'es'
p564
(lp565
(S'sin'
p566
(dp567
S'ADV'
p568
F1.0
s(lp569
tp570
a(S'embargo'
p571
(dp572
S'ADV'
p573
F1.0
s(lp574
g7
atp575
a(g9
(dp576
g11
F1.0
s(lp577
g9
atp578
a(S'la'
p579
(dp580
S'PRON'
p581
F0.000146
sS'DET'
p582
F0.999848
sS'NOUN'
p583
F0.0
sg408
F5e-06
s(lp584
tp585
a(S'amistad'
p586
(dp587
S'VERB'
p588
F0.000126
sS'NOUN'
p589
F0.999874
s(lp590
g25
atp591
a(S'no'
p592
(dp593
S'ADV'
p594
F0.999922
sg408
F7.8e-05
s(lp595
g43
atp596
a(S'tiene'
p597
(dp598
S'VERB'
p599
F1.0
s(lp600
g128
atp601
a(S'nada'
p602
(dp603
S'ADJ'
p604
F1.0
s(lp605
g63
atp606
a(S'que'
p607
(dp608
g408
F0.0
sS'CONJ'
p609
F1.0
s(lp610
tp611
a(S'ver'
p612
(dp613
S'VERB'
p614
F1.0
s(lp615
g63
atp616
a(S'con'
p617
(dp618
S'ADP'
p619
F1.0
s(lp620
tp621
a(S'la'
p622
(dp623
S'NOUN'
p624
F0.0
sS'PRON'
p625
F0.0
sS'DET'
p626
F0.999999
sg408
F0.0
s(lp627
tp628
a(S'ceguera'
p629
(dp630
S'NOUN'
p631
F1.0
s(lp632
g63
atp633
a(g9
(dp634
g11
F1.0
s(lp635
tp636
a(S'sino'
p637
(dp638
S'CONJ'
p639
F1.0
s(lp640
g77
atp641
a(S'con'
p642
(dp643
S'ADP'
p644
F1.0
s(lp645
tp646
a(S'la'
p647
(dp648
S'NOUN'
p649
F0.0
sS'PRON'
p650
F0.0
sS'DET'
p651
F0.999999
sg408
F0.0
s(lp652
g154
atp653
a(S'voluntad'
p654
(dp655
S'NOUN'
p656
F1.0
s(lp657
g90
atp658
a(S'de'
p659
(dp660
g408
F0.0
sS'CONJ'
p661
F0.065923
sS'ADP'
p662
F0.934077
s(lp663
g96
atp664
a(S'ser'
p665
(dp666
S'VERB'
p667
F0.991291
sS'NOUN'
p668
F0.008709
s(lp669
g103
atp670
a(S'honesto'
p671
(dp672
S'VERB'
p673
F4.5e-05
sS'ADJ'
p674
F0.999955
s(lp675
g110
atp676
a(g11
(dp677
g11
F1.0
s(lp678
g11
atp679
as.