(dp0
S'fr'
p1
(lp2
(S'il'
p3
(dp4
S'PRON'
p5
F1.0
s(lp6
S'it'
p7
atp8
a(S'semblerait'
p9
(dp10
S'VERB'
p11
F1.0
s(lp12
S'appears'
p13
atp14
a(S'que'
p15
(dp16
S'ADV'
p17
F0.1128
sS'PRON'
p18
F0.035683
sS'CONJ'
p19
F0.851517
s(lp20
S'that'
p21
atp22
a(S'les'
p23
(dp24
S'PRON'
p25
F0.000494
sS'DET'
p26
F0.99949
sS'ADP'
p27
F1.6e-05
s(lp28
tp29
a(S'autorit\xc3\xa9s'
p30
(dp31
S'NOUN'
p32
F1.0
s(lp33
S'authorities'
p34
atp35
a(S'civiles'
p36
(dp37
S'ADJ'
p38
F1.0
s(lp39
S'civic'
p40
atp41
a(S'espagnoles'
p42
(dp43
S'ADJ'
p44
F0.323076
sS'NOUN'
p45
F0.676924
s(lp46
S'spain'
p47
atp48
a(S','
p49
(dp50
S'.'
p51
F1.0
s(lp52
g49
atp53
a(S'de'
p54
(dp55
S'ADP'
p56
F1.0
s(lp57
S'in'
p58
atp59
a(S'm\xc3\xa8che'
p60
(dp61
S'VERB'
p62
F0.004405
sS'NOUN'
p63
F0.995594
s(lp64
S'cahoots'
p65
atp66
a(S'avec'
p67
(dp68
S'ADV'
p69
F0.021483
sS'ADP'
p70
F0.978517
s(lp71
S'with'
p72
atp73
a(S'des'
p74
(dp75
S'DET'
p76
F0.000671
sS'ADP'
p77
F0.999329
s(lp78
S'unscrupulous'
p79
atp80
a(S'promoteurs'
p81
(dp82
S'ADJ'
p83
F0.039613
sS'NOUN'
p84
F0.960387
s(lp85
S'developers'
p86
atp87
a(S'avides'
p88
(dp89
S'ADJ'
p90
F1.0
s(lp91
tp92
a(S'et'
p93
(dp94
S'CONJ'
p95
F1.0
s(lp96
g49
atp97
a(S'sans'
p98
(dp99
S'CONJ'
p100
F0.007967
sS'ADP'
p101
F0.992033
s(lp102
tp103
a(S'scrupules'
p104
(dp105
S'NOUN'
p106
F1.0
s(lp107
g79
atp108
a(g49
(dp109
g51
F1.0
s(lp110
g49
atp111
a(S'soient'
p112
(dp113
S'VERB'
p114
F1.0
s(lp115
S'have'
p116
atp117
a(S'un'
p118
(dp119
S'NOUN'
p120
F0.00386
sS'NUM'
p121
F0.000934
sS'DET'
p122
F0.995206
s(lp123
S'a'
p124
atp125
a(S'v\xc3\xa9ritable'
p126
(dp127
S'ADJ'
p128
F1.0
s(lp129
g65
atp130
a(S'cauchemar'
p131
(dp132
S'NOUN'
p133
F1.0
s(lp134
g65
atp135
a(S'pour'
p136
(dp137
S'CONJ'
p138
F0.17113
sS'ADP'
p139
F0.82887
s(lp140
S'to'
p141
atp142
a(S'tous'
p143
(dp144
S'PRON'
p145
F0.999996
sS'NOUN'
p146
F4e-06
s(lp147
tp148
a(S'ceux'
p149
(dp150
S'PRON'
p151
F1.0
s(lp152
S'those'
p153
atp154
a(S'qui'
p155
(dp156
S'PRON'
p157
F1.0
s(lp158
S'who'
p159
atp160
a(S'pensaient'
p161
(dp162
S'VERB'
p163
F1.0
s(lp164
S'thought'
p165
atp166
a(S'acqu\xc3\xa9rir'
p167
(dp168
S'VERB'
p169
F1.0
s(lp170
S'buying'
p171
atp172
a(S'l\xc3\xa9gitimement'
p173
(dp174
S'ADV'
p175
F1.0
s(lp176
S'legitimate'
p177
atp178
a(S'des'
p179
(dp180
S'DET'
p181
F0.000119
sS'ADP'
p182
F0.999881
s(lp183
S'properties'
p184
atp185
a(S'propri\xc3\xa9t\xc3\xa9s'
p186
(dp187
S'NOUN'
p188
F1.0
s(lp189
tp190
a(S'et'
p191
(dp192
S'CONJ'
p193
F1.0
s(lp194
S'and'
p195
atp196
a(S'des'
p197
(dp198
S'DET'
p199
F0.000609
sS'ADP'
p200
F0.999391
s(lp201
g184
atp202
a(S'maisons'
p203
(dp204
S'NOUN'
p205
F1.0
s(lp206
S'homes'
p207
atp208
a(g51
(dp209
g51
F1.0
s(lp210
g49
atp211
a(S'par'
p212
(dp213
S'NOUN'
p214
F5.1e-05
sS'ADP'
p215
F0.999949
s(lp216
S'and'
p217
atp218
a(S'cons\xc3\xa9quent'
p219
(dp220
S'ADJ'
p221
F1.0
s(lp222
g65
atp223
a(g49
(dp224
g51
F1.0
s(lp225
g49
atp226
a(S'si'
p227
(dp228
S'ADV'
p229
F0.089235
sS'CONJ'
p230
F0.910722
sS'NOUN'
p231
F4.3e-05
s(lp232
S'if'
p233
atp234
a(S'ce'
p235
(dp236
S'PRON'
p237
F1.0
s(lp238
S'this'
p239
atp240
a(S'rapport'
p241
(dp242
S'NOUN'
p243
F1.0
s(lp244
S'report'
p245
atp246
a(S'peut'
p247
(dp248
S'VERB'
p249
F1.0
s(lp250
S'helps'
p251
atp252
a(S'aider'
p253
(dp254
S'VERB'
p255
F1.0
s(lp256
tp257
a(S'\xc3\xa0'
p258
(dp259
S'ADP'
p260
F1.0
s(lp261
g251
atp262
a(S'mettre'
p263
(dp264
S'VERB'
p265
F1.0
s(lp266
tp267
a(S'un'
p268
(dp269
S'NOUN'
p270
F1.9e-05
sS'NUM'
p271
F0.007963
sS'DET'
p272
F0.992018
s(lp273
tp274
a(S'terme'
p275
(dp276
S'NOUN'
p277
F1.0
s(lp278
g65
atp279
a(S'\xc3\xa0'
p280
(dp281
S'ADP'
p282
F1.0
s(lp283
S'address'
p284
atp285
a(S'ce'
p286
(dp287
S'PRON'
p288
F1.0
s(lp289
S'that'
p290
atp291
a(S'ph\xc3\xa9nom\xc3\xa8ne'
p292
(dp293
S'NOUN'
p294
F1.0
s(lp295
S'grasping'
p296
atp297
a(g49
(dp298
g51
F1.0
s(lp299
g49
atp300
a(S'il'
p301
(dp302
S'PRON'
p303
F1.0
s(lp304
S'it'
p305
atp306
a(S'ne'
p307
(dp308
S'ADV'
p309
F1.0
s(lp310
tp311
a(S'peut'
p312
(dp313
S'VERB'
p314
F1.0
s(lp315
S'can'
p316
atp317
a(S'\xc3\xaatre'
p318
(dp319
S'VERB'
p320
F0.990476
sS'NOUN'
p321
F0.009524
s(lp322
tp323
a(S'que'
p324
(dp325
S'ADV'
p326
F0.195902
sS'PRON'
p327
F0.008958
sS'CONJ'
p328
F0.795141
s(lp329
S'only'
p330
atp331
a(S'bienvenu'
p332
(dp333
S'NOUN'
p334
F0.075781
sS'VERB'
p335
F0.710875
sS'ADJ'
p336
F0.213344
s(lp337
S'good'
p338
atp339
a(g51
(dp340
g51
F1.0
s(lp341
g51
atp342
asS'en'
p343
(lp344
(g7
(dp345
S'PRON'
p346
F1.0
s(lp347
g7
atp348
a(g13
(dp349
S'VERB'
p350
F0.999989
sS'NOUN'
p351
F1.1e-05
s(lp352
g13
atp353
a(g21
(dp354
S'ADV'
p355
F0.001489
sS'DET'
p356
F0.20131
sS'ADP'
p357
F0.797201
s(lp358
g21
atp359
a(g40
(dp360
S'ADJ'
p361
F1.0
s(lp362
g40
atp363
a(g34
(dp364
S'NOUN'
p365
F1.0
s(lp366
g34
atp367
a(S'in'
p368
(dp369
S'ADV'
p370
F0.0002
sS'PRT'
p371
F0.000168
sS'ADP'
p372
F0.999632
s(lp373
g368
atp374
a(g47
(dp375
S'ADV'
p376
F0.002541
sS'ADJ'
p377
F0.023807
sS'VERB'
p378
F0.0007719999999999999
sS'NOUN'
p379
F0.972881
s(lp380
g47
atp381
a(g49
(dp382
g51
F1.0
s(lp383
g49
atp384
a(g58
(dp385
S'ADV'
p386
F0.000967
sS'PRT'
p387
F0.0
sS'ADP'
p388
F0.999033
s(lp389
g58
atp390
a(g65
(dp391
S'NOUN'
p392
F1.0
s(lp393
g65
atp394
a(g72
(dp395
S'ADP'
p396
F1.0
s(lp397
g72
atp398
a(g296
(dp399
S'VERB'
p400
F0.818399
sS'ADJ'
p401
F0.181601
s(lp402
g296
atp403
a(g49
(dp404
g51
F1.0
s(lp405
g49
atp406
a(g79
(dp407
S'ADJ'
p408
F1.0
s(lp409
g79
atp410
a(g86
(dp411
S'NOUN'
p412
F1.0
s(lp413
g86
atp414
a(g49
(dp415
g51
F1.0
s(lp416
g49
atp417
a(g116
(dp418
S'VERB'
p419
F1.0
s(lp420
g116
atp421
a(S'been'
p422
(dp423
S'VERB'
p424
F1.0
s(lp425
g422
atp426
a(g124
(dp427
S'NOUN'
p428
F0.0
sS'DET'
p429
F1.0
s(lp430
g124
atp431
a(S'terror'
p432
(dp433
S'NOUN'
p434
F1.0
s(lp435
g432
atp436
a(g141
(dp437
S'ADV'
p438
F1e-06
sS'PRT'
p439
F0.999989
sS'ADP'
p440
F1.1e-05
s(lp441
g141
atp442
a(g153
(dp443
S'NOUN'
p444
F0.000179
sS'DET'
p445
F0.999821
s(lp446
g153
atp447
a(g159
(dp448
S'PRON'
p449
F1.0
s(lp450
g159
atp451
a(g165
(dp452
S'VERB'
p453
F0.9987429999999999
sS'NOUN'
p454
F0.001258
s(lp455
g165
atp456
a(S'they'
p457
(dp458
S'PRON'
p459
F1.0
s(lp460
g457
atp461
a(S'were'
p462
(dp463
S'VERB'
p464
F1.0
s(lp465
g462
atp466
a(g171
(dp467
S'VERB'
p468
F0.998046
sS'NOUN'
p469
F0.001954
s(lp470
g171
atp471
a(g177
(dp472
S'VERB'
p473
F0.00015
sS'ADJ'
p474
F0.99985
s(lp475
g177
atp476
a(g207
(dp477
S'VERB'
p478
F1e-06
sS'NOUN'
p479
F0.999999
s(lp480
g207
atp481
a(g195
(dp482
S'CONJ'
p483
F0.999998
sS'NOUN'
p484
F2e-06
s(lp485
g195
atp486
a(g184
(dp487
S'NOUN'
p488
F1.0
s(lp489
g184
atp490
a(g49
(dp491
g51
F1.0
s(lp492
g49
atp493
a(g217
(dp494
S'CONJ'
p495
F0.999964
sS'NOUN'
p496
F3.6e-05
s(lp497
g217
atp498
a(g49
(dp499
g51
F1.0
s(lp500
g49
atp501
a(g233
(dp502
S'ADP'
p503
F1.0
s(lp504
g233
atp505
a(g239
(dp506
S'ADV'
p507
F3e-06
sS'NOUN'
p508
F1.9e-05
sS'DET'
p509
F0.999978
s(lp510
g239
atp511
a(g245
(dp512
S'VERB'
p513
F0.000134
sS'NOUN'
p514
F0.999866
s(lp515
g245
atp516
a(g251
(dp517
S'VERB'
p518
F0.956186
sS'NOUN'
p519
F0.043814
s(lp520
g251
atp521
a(g284
(dp522
S'VERB'
p523
F0.7323000000000001
sS'NOUN'
p524
F0.2677
s(lp525
g284
atp526
a(g290
(dp527
S'ADV'
p528
F0.009092
sS'DET'
p529
F0.1846
sS'ADP'
p530
F0.806308
s(lp531
g290
atp532
a(g49
(dp533
g51
F1.0
s(lp534
g49
atp535
a(S'then'
p536
(dp537
S'ADV'
p538
F0.999937
sS'ADJ'
p539
F6.3e-05
s(lp540
g536
atp541
a(g305
(dp542
S'PRON'
p543
F1.0
s(lp544
g305
atp545
a(g316
(dp546
S'VERB'
p547
F1.0
sS'NOUN'
p548
F0.0
s(lp549
g316
atp550
a(g330
(dp551
S'ADV'
p552
F0.999983
sS'NOUN'
p553
F0.0
sS'ADJ'
p554
F1.7e-05
s(lp555
g330
atp556
a(S'do'
p557
(dp558
S'VERB'
p559
F0.999998
sS'NOUN'
p560
F1e-06
s(lp561
g557
atp562
a(g338
(dp563
S'ADV'
p564
F0.014448
sS'NOUN'
p565
F0.042222
sS'ADJ'
p566
F0.94333
s(lp567
g338
atp568
a(g51
(dp569
g51
F1.0
s(lp570
g51
atp571
asS'nl'
p572
(lp573
(S'het'
p574
(dp575
S'PRON'
p576
F0.962086
sS'DET'
p577
F0.037914
s(lp578
g7
atp579
a(S'schijnt'
p580
(dp581
S'VERB'
p582
F1.0
s(lp583
g13
atp584
a(S'dat'
p585
(dp586
S'PRON'
p587
F0.341965
sS'CONJ'
p588
F0.658035
s(lp589
g21
atp590
a(S'civiele'
p591
(dp592
S'NOUN'
p593
F0.000125
sS'ADJ'
p594
F0.999875
s(lp595
g40
atp596
a(S'autoriteiten'
p597
(dp598
S'NOUN'
p599
F1.0
s(lp600
g34
atp601
a(S'in'
p602
(dp603
S'ADV'
p604
F0.001834
sS'VERB'
p605
F1e-06
sS'ADP'
p606
F0.998166
s(lp607
g368
atp608
a(S'spanje'
p609
(dp610
S'NOUN'
p611
F1.0
s(lp612
g47
atp613
a(g49
(dp614
g51
F1.0
s(lp615
g49
atp616
a(S'die'
p617
(dp618
S'PRON'
p619
F1.0
s(lp620
tp621
a(S'onder'
p622
(dp623
S'ADV'
p624
F4.7e-05
sS'ADP'
p625
F0.999953
s(lp626
g58
atp627
a(S'een'
p628
(dp629
S'ADJ'
p630
F1e-06
sS'PRON'
p631
F1.4e-05
sS'NUM'
p632
F0.0
sS'DET'
p633
F0.999985
s(lp634
tp635
a(S'hoedje'
p636
(dp637
S'NOUN'
p638
F1.0
s(lp639
tp640
a(S'spelen'
p641
(dp642
S'VERB'
p643
F0.996963
sS'NOUN'
p644
F0.0030359999999999996
s(lp645
g65
atp646
a(S'met'
p647
(dp648
S'ADP'
p649
F1.0
s(lp650
g72
atp651
a(S'geldbeluste'
p652
(dp653
S'ADJ'
p654
F0.004276
sS'NOUN'
p655
F0.995724
s(lp656
g296
atp657
a(g49
(dp658
g51
F1.0
s(lp659
g49
atp660
a(S'gewetenloze'
p661
(dp662
S'NOUN'
p663
F0.000105
sS'ADJ'
p664
F0.999895
s(lp665
g79
atp666
a(S'ontwikkelaars'
p667
(dp668
S'NOUN'
p669
F1.0
s(lp670
g86
atp671
a(g49
(dp672
g51
F1.0
s(lp673
g49
atp674
a(S'een'
p675
(dp676
S'ADJ'
p677
F3e-06
sS'PRON'
p678
F6.1e-05
sS'NUM'
p679
F1e-06
sS'DET'
p680
F0.999935
s(lp681
g124
atp682
a(S'verschrikking'
p683
(dp684
S'NOUN'
p685
F1.0
s(lp686
g432
atp687
a(S'zijn'
p688
(dp689
S'PRON'
p690
F9.3e-05
sS'VERB'
p691
F0.9998020000000001
sS'NOUN'
p692
F0.000106
s(lp693
g116
atp694
a(S'voor'
p695
(dp696
S'ADV'
p697
F0.013458
sS'CONJ'
p698
F1.6e-05
sS'NOUN'
p699
F0.0
sS'ADP'
p700
F0.986526
s(lp701
g141
atp702
a(S'mensen'
p703
(dp704
S'NOUN'
p705
F1.0
s(lp706
g153
atp707
a(S'die'
p708
(dp709
S'PRON'
p710
F0.9999999999999999
s(lp711
g159
atp712
a(S'op'
p713
(dp714
S'ADV'
p715
F0.129658
sS'ADJ'
p716
F8e-06
sS'ADP'
p717
F0.870333
s(lp718
g284
atp719
a(S'legale'
p720
(dp721
S'NOUN'
p722
F0.009078
sS'ADJ'
p723
F0.990922
s(lp724
tp725
a(S'wijze'
p726
(dp727
S'ADJ'
p728
F0.051492
sS'NOUN'
p729
F0.948508
s(lp730
g177
atp731
a(S'huizen'
p732
(dp733
S'VERB'
p734
F0.9443509999999999
sS'NOUN'
p735
F0.055649
s(lp736
g207
atp737
a(S'en'
p738
(dp739
S'CONJ'
p740
F1.0
s(lp741
g195
atp742
a(S'eigendommen'
p743
(dp744
S'NOUN'
p745
F1.0
s(lp746
g184
atp747
a(S'hebben'
p748
(dp749
S'VERB'
p750
F0.999999
sS'NOUN'
p751
F1e-06
s(lp752
g462
atp753
a(S'gekocht'
p754
(dp755
S'VERB'
p756
F1.0
s(lp757
g171
atp758
a(g49
(dp759
g51
F1.0
s(lp760
g49
atp761
a(S'en'
p762
(dp763
S'CONJ'
p764
F1.0
s(lp765
g217
atp766
a(S'als'
p767
(dp768
S'CONJ'
p769
F1.0
s(lp770
g233
atp771
a(S'dit'
p772
(dp773
S'PRON'
p774
F1.0
s(lp775
g239
atp776
a(S'verslag'
p777
(dp778
S'NOUN'
p779
F1.0
s(lp780
g245
atp781
a(S'dat'
p782
(dp783
S'PRON'
p784
F0.47987799999999997
sS'CONJ'
p785
F0.520122
s(lp786
g290
atp787
a(S'tegengaat'
p788
(dp789
S'VERB'
p790
F1.0
s(lp791
g251
atp792
a(g49
(dp793
g51
F1.0
s(lp794
g49
atp795
a(S'kan'
p796
(dp797
S'VERB'
p798
F1.0
sS'NOUN'
p799
F0.0
s(lp800
g316
atp801
a(S'het'
p802
(dp803
S'PRON'
p804
F0.8958349999999999
sS'DET'
p805
F0.104164
s(lp806
g305
atp807
a(S'alleen'
p808
(dp809
S'ADV'
p810
F0.966381
sS'ADJ'
p811
F0.033619
s(lp812
tp813
a(S'maar'
p814
(dp815
S'ADV'
p816
F0.658464
sS'CONJ'
p817
F0.341511
sS'NOUN'
p818
F2.5e-05
s(lp819
g330
atp820
a(S'goed'
p821
(dp822
S'ADV'
p823
F0.019305
sS'ADJ'
p824
F0.322034
sS'NOUN'
p825
F0.658662
s(lp826
g338
atp827
a(S'doen'
p828
(dp829
S'VERB'
p830
F0.990051
sS'NOUN'
p831
F0.009949
s(lp832
g557
atp833
a(g51
(dp834
g51
F1.0
s(lp835
g51
atp836
asS'de'
p837
(lp838
(S'man'
p839
(dp840
S'PRON'
p841
F1.0
s(lp842
g7
atp843
a(S'gewinnt'
p844
(dp845
S'VERB'
p846
F1.0
s(lp847
tp848
a(S'den'
p849
(dp850
S'PRON'
p851
F0.000346
sS'DET'
p852
F0.999653
s(lp853
tp854
a(S'eindruck'
p855
(dp856
S'NOUN'
p857
F0.9984580000000001
s(lp858
g13
atp859
a(g49
(dp860
g51
F1.0
s(lp861
tp862
a(S'dass'
p863
(dp864
S'CONJ'
p865
F1.0
s(lp866
g21
atp867
a(S'beh\xc3\xb6rden'
p868
(dp869
S'ADV'
p870
F0.225503
sS'NOUN'
p871
F0.599617
s(lp872
g34
atp873
a(S'in'
p874
(dp875
S'ADP'
p876
F1.0
s(lp877
g368
atp878
a(S'spanien'
p879
(dp880
S'NOUN'
p881
F0.9434529999999999
s(lp882
g47
atp883
a(S'mit'
p884
(dp885
S'PRT'
p886
F0.000831
sS'ADP'
p887
F0.999169
s(lp888
g72
atp889
a(S'habgierigen'
p890
(dp891
S'ADJ'
p892
F1.0
s(lp893
g296
atp894
a(g49
(dp895
g51
F1.0
s(lp896
g49
atp897
a(S'skrupellosen'
p898
(dp899
S'ADJ'
p900
F1.0
s(lp901
g79
atp902
a(S'bauunternehmen'
p903
(dp904
S'ADJ'
p905
F0.004138
sS'NOUN'
p906
F0.995345
s(lp907
g86
atp908
a(S'unter'
p909
(dp910
S'PRT'
p911
F2e-06
sS'ADP'
p912
F0.999998
s(lp913
g65
atp914
a(S'einer'
p915
(dp916
S'PRON'
p917
F0.974613
sS'DET'
p918
F0.024232
s(lp919
g65
atp920
a(S'decke'
p921
(dp922
S'VERB'
p923
F1.0
s(lp924
g65
atp925
a(S'gesteckt'
p926
(dp927
S'VERB'
p928
F0.454703
sS'ADJ'
p929
F0.545297
s(lp930
tp931
a(S'und'
p932
(dp933
S'CONJ'
p934
F1.0
s(lp935
g49
atp936
a(S'diejenigen'
p937
(dp938
S'PRON'
p939
F1.0
s(lp940
g153
atp941
a(S'in'
p942
(dp943
S'ADP'
p944
F1.0
s(lp945
g58
atp946
a(S'angst'
p947
(dp948
S'X'
p949
F0.412595
sS'NOUN'
p950
F0.400727
s(lp951
tp952
a(S'und'
p953
(dp954
S'CONJ'
p955
F1.0
s(lp956
tp957
a(S'schrecken'
p958
(dp959
S'VERB'
p960
F1.0
s(lp961
g432
atp962
a(S'versetzt'
p963
(dp964
S'VERB'
p965
F0.705263
sS'ADJ'
p966
F0.294555
s(lp967
g296
atp968
a(S'haben'
p969
(dp970
S'VERB'
p971
F0.999606
s(lp972
g116
atp973
a(g49
(dp974
g51
F1.0
s(lp975
g49
atp976
a(S'die'
p977
(dp978
S'PRON'
p979
F0.992275
s(lp980
tp981
a(S'dachten'
p982
(dp983
S'VERB'
p984
F1.0
s(lp985
g165
atp986
a(g49
(dp987
g51
F1.0
s(lp988
g159
atp989
a(S'sie'
p990
(dp991
S'PRON'
p992
F1.0
s(lp993
g457
atp994
a(S'h\xc3\xa4tten'
p995
(dp996
S'VERB'
p997
F1.0
s(lp998
g462
atp999
a(S'legale'
p1000
(dp1001
S'ADJ'
p1002
F1.0
s(lp1003
g177
atp1004
a(S'eigenheime'
p1005
(dp1006
S'NOUN'
p1007
F0.315841
sS'ADJ'
p1008
F0.683486
s(lp1009
g207
atp1010
a(S'und'
p1011
(dp1012
S'CONJ'
p1013
F1.0
s(lp1014
g195
atp1015
a(S'immobilien'
p1016
(dp1017
S'ADJ'
p1018
F0.427553
sS'NOUN'
p1019
F0.4892
s(lp1020
g184
atp1021
a(S'gekauft'
p1022
(dp1023
S'VERB'
p1024
F1.0
s(lp1025
g171
atp1026
a(g49
(dp1027
g51
F1.0
s(lp1028
g49
atp1029
a(S'und'
p1030
(dp1031
S'CONJ'
p1032
F1.0
s(lp1033
g217
atp1034
a(S'wenn'
p1035
(dp1036
S'CONJ'
p1037
F1.0
s(lp1038
g233
atp1039
a(S'dieser'
p1040
(dp1041
S'PRON'
p1042
F1.0
s(lp1043
g239
atp1044
a(S'bericht'
p1045
(dp1046
S'VERB'
p1047
F0.017542
sS'NOUN'
p1048
F0.981714
s(lp1049
g245
atp1050
a(S'dazu'
p1051
(dp1052
S'ADV'
p1053
F0.999964
sS'PRT'
p1054
F3.6e-05
s(lp1055
tp1056
a(S'beitr\xc3\xa4gt'
p1057
(dp1058
S'VERB'
p1059
F1.0
s(lp1060
g251
atp1061
a(g49
(dp1062
g51
F1.0
s(lp1063
g49
atp1064
a(S'dieses'
p1065
(dp1066
S'PRON'
p1067
F1.0
s(lp1068
g290
atp1069
a(S'problem'
p1070
(dp1071
S'ADJ'
p1072
F0.322386
sS'NOUN'
p1073
F0.670272
s(lp1074
tp1075
a(S'anzugehen'
p1076
(dp1077
S'VERB'
p1078
F1.0
s(lp1079
g284
atp1080
a(g49
(dp1081
g51
F1.0
s(lp1082
tp1083
a(S'kann'
p1084
(dp1085
S'VERB'
p1086
F1.0
s(lp1087
g316
atp1088
a(S'damit'
p1089
(dp1090
S'ADV'
p1091
F0.999951
sS'CONJ'
p1092
F4.9e-05
s(lp1093
g536
atp1094
a(S'nur'
p1095
(dp1096
S'ADV'
p1097
F1.0
s(lp1098
g330
atp1099
a(S'gutes'
p1100
(dp1101
S'ADJ'
p1102
F1.0
s(lp1103
g338
atp1104
a(S'bewirkt'
p1105
(dp1106
S'VERB'
p1107
F0.987712
sS'ADJ'
p1108
F0.01228
s(lp1109
g65
atp1110
a(S'werden'
p1111
(dp1112
S'VERB'
p1113
F0.999993
s(lp1114
tp1115
a(g51
(dp1116
g51
F1.0
s(lp1117
g51
atp1118
asS'it'
p1119
(lp1120
(S'sembra'
p1121
(dp1122
S'VERB'
p1123
F1.0
s(lp1124
g13
atp1125
a(S'che'
p1126
(dp1127
S'PRON'
p1128
F0.984194
sS'CONJ'
p1129
F0.015149
sS'ADJ'
p1130
F0.000657
s(lp1131
g21
atp1132
a(S'le'
p1133
(dp1134
S'PRON'
p1135
F0.000371
sS'DET'
p1136
F0.999629
s(lp1137
tp1138
a(S'autorit\xc3\xa0'
p1139
(dp1140
S'NOUN'
p1141
F1.0
s(lp1142
g34
atp1143
a(S'locali'
p1144
(dp1145
S'NOUN'
p1146
F0.045363
sS'VERB'
p1147
F0.0
sS'ADJ'
p1148
F0.954637
s(lp1149
g40
atp1150
a(S'in'
p1151
(dp1152
S'ADP'
p1153
F1.0
s(lp1154
g368
atp1155
a(S'spagna'
p1156
(dp1157
S'ADJ'
p1158
F0.406534
sS'NOUN'
p1159
F0.593466
s(lp1160
g47
atp1161
a(g49
(dp1162
g51
F1.0
s(lp1163
g49
atp1164
a(S'in'
p1165
(dp1166
S'ADP'
p1167
F1.0
s(lp1168
g58
atp1169
a(S'combutta'
p1170
(dp1171
S'NOUN'
p1172
F1.0
s(lp1173
g65
atp1174
a(S'con'
p1175
(dp1176
S'ADP'
p1177
F1.0
s(lp1178
g72
atp1179
a(S'costruttori'
p1180
(dp1181
S'ADJ'
p1182
F0.094029
sS'NOUN'
p1183
F0.905971
s(lp1184
g86
atp1185
a(S'avidi'
p1186
(dp1187
S'NOUN'
p1188
F0.096401
sS'ADJ'
p1189
F0.903599
s(lp1190
g296
atp1191
a(S'e'
p1192
(dp1193
S'CONJ'
p1194
F1.0
s(lp1195
g49
atp1196
a(S'senza'
p1197
(dp1198
S'CONJ'
p1199
F0.013027
sS'ADP'
p1200
F0.986973
s(lp1201
tp1202
a(S'scrupoli'
p1203
(dp1204
S'NOUN'
p1205
F1.0
s(lp1206
g79
atp1207
a(g49
(dp1208
g51
F1.0
s(lp1209
g49
atp1210
a(S'abbiano'
p1211
(dp1212
S'VERB'
p1213
F1.0
s(lp1214
g116
atp1215
a(S'seminato'
p1216
(dp1217
S'NOUN'
p1218
F0.005592
sS'VERB'
p1219
F0.800138
sS'ADJ'
p1220
F0.19427
s(lp1221
tp1222
a(S'terrore'
p1223
(dp1224
S'NOUN'
p1225
F1.0
s(lp1226
g432
atp1227
a(S'tra'
p1228
(dp1229
S'CONJ'
p1230
F0.002865
sS'ADP'
p1231
F0.997135
s(lp1232
g153
atp1233
a(S'chi'
p1234
(dp1235
S'PRON'
p1236
F1.0
s(lp1237
g159
atp1238
a(S'aveva'
p1239
(dp1240
S'VERB'
p1241
F1.0
s(lp1242
tp1243
a(S'ipotizzato'
p1244
(dp1245
S'VERB'
p1246
F1.0
s(lp1247
g165
atp1248
a(S'di'
p1249
(dp1250
S'CONJ'
p1251
F2e-06
sS'ADP'
p1252
F0.999998
s(lp1253
tp1254
a(S'acquistare'
p1255
(dp1256
S'VERB'
p1257
F1.0
s(lp1258
g171
atp1259
a(S'abitazioni'
p1260
(dp1261
S'NOUN'
p1262
F1.0
s(lp1263
g207
atp1264
a(g1192
(dp1265
S'CONJ'
p1266
F1.0
s(lp1267
g195
atp1268
a(S'propriet\xc3\xa0'
p1269
(dp1270
S'NOUN'
p1271
F1.0
s(lp1272
g184
atp1273
a(S'legittime'
p1274
(dp1275
S'NOUN'
p1276
F0.036354
sS'ADJ'
p1277
F0.963646
s(lp1278
g177
atp1279
a(g1192
(dp1280
S'CONJ'
p1281
F1.0
s(lp1282
g217
atp1283
a(S'se'
p1284
(dp1285
S'PRON'
p1286
F0.00255
sS'CONJ'
p1287
F0.997374
sS'NOUN'
p1288
F7.6e-05
s(lp1289
g233
atp1290
a(S'la'
p1291
(dp1292
S'PRON'
p1293
F0.006695
sS'DET'
p1294
F0.993305
s(lp1295
tp1296
a(S'presente'
p1297
(dp1298
S'NOUN'
p1299
F0.016258
sS'VERB'
p1300
F0.005544
sS'ADJ'
p1301
F0.978198
s(lp1302
g239
atp1303
a(S'relazione'
p1304
(dp1305
S'NOUN'
p1306
F1.0
s(lp1307
g245
atp1308
a(S'contribuir\xc3\xa0'
p1309
(dp1310
S'VERB'
p1311
F1.0
s(lp1312
tp1313
a(g124
(dp1314
S'CONJ'
p1315
F5.5e-05
sS'ADP'
p1316
F0.999945
s(lp1317
g251
atp1318
a(S'risolvere'
p1319
(dp1320
S'VERB'
p1321
F1.0
s(lp1322
g284
atp1323
a(S'la'
p1324
(dp1325
S'PRON'
p1326
F0.0
sS'DET'
p1327
F1.0
s(lp1328
g290
atp1329
a(S'questione'
p1330
(dp1331
S'NOUN'
p1332
F1.0
s(lp1333
g305
atp1334
a(S'non'
p1335
(dp1336
S'ADV'
p1337
F1.0
s(lp1338
g330
atp1339
a(S'far\xc3\xa0'
p1340
(dp1341
S'VERB'
p1342
F1.0
s(lp1343
g316
atp1344
a(S'altro'
p1345
(dp1346
S'ADV'
p1347
F0.130379
sS'PRON'
p1348
F0.415868
sS'ADJ'
p1349
F0.441427
sS'NOUN'
p1350
F0.012326
s(lp1351
g557
atp1352
a(S'che'
p1353
(dp1354
S'PRON'
p1355
F0.863533
sS'CONJ'
p1356
F0.113639
sS'ADJ'
p1357
F0.022829
s(lp1358
tp1359
a(S'del'
p1360
(dp1361
S'DEF'
p1362
F0.014616
sS'ADP'
p1363
F0.985384
s(lp1364
tp1365
a(S'bene'
p1366
(dp1367
S'ADV'
p1368
F0.059425
sg949
F2e-06
sS'NOUN'
p1369
F0.940574
s(lp1370
g338
atp1371
a(g51
(dp1372
g51
F1.0
s(lp1373
g51
atp1374
asS'sk'
p1375
(lp1376
(S'zd\xc3\xa1'
p1377
(dp1378
S'VERB'
p1379
F1.0
s(lp1380
tp1381
a(S'sa'
p1382
(dp1383
S'PRT'
p1384
F0.993322
sS'ADP'
p1385
F6e-06
sg949
F0.006672
s(lp1386
g13
atp1387
a(g49
(dp1388
g51
F1.0
s(lp1389
tp1390
a(S'\xc5\xbee'
p1391
(dp1392
g949
F0.0008619999999999999
sS'CONJ'
p1393
F0.999138
s(lp1394
g21
atp1395
a(S'ob\xc4\x8dianske'
p1396
(dp1397
S'NOUN'
p1398
F0.001694
sS'ADJ'
p1399
F0.998306
s(lp1400
g40
atp1401
a(S'\xc3\xbarady'
p1402
(dp1403
S'NOUN'
p1404
F1.0
s(lp1405
g34
atp1406
a(S'v'
p1407
(dp1408
g949
F0.000112
sS'ADP'
p1409
F0.999888
s(lp1410
g368
atp1411
a(S'\xc5\xa0panielsku'
p1412
(dp1413
S'NOUN'
p1414
F1.0
s(lp1415
g47
atp1416
a(g1407
(dp1417
g949
F0.000492
sS'ADP'
p1418
F0.999507
s(lp1419
g58
atp1420
a(S'spojen\xc3\xad'
p1421
(dp1422
S'VERB'
p1423
F0.076583
sS'NOUN'
p1424
F0.923416
s(lp1425
g65
atp1426
a(S's'
p1427
(dp1428
g949
F0.0009009999999999999
sS'CONJ'
p1429
F6.4e-05
sS'NOUN'
p1430
F5.5e-05
sS'ADP'
p1431
F0.998919
sS'PRT'
p1432
F6.1e-05
s(lp1433
g72
atp1434
a(S'chamtiv\xc3\xbdmi'
p1435
(dp1436
S'ADJ'
p1437
F1.0
s(lp1438
g296
atp1439
a(S'developermi'
p1440
(dp1441
S'NOUN'
p1442
F1.0
s(lp1443
tp1444
a(S'bez'
p1445
(dp1446
g949
F8e-06
sS'ADP'
p1447
F0.999992
s(lp1448
g79
atp1449
a(S'rozpakov'
p1450
(dp1451
S'NOUN'
p1452
F1.0
s(lp1453
tp1454
a(S'terorizuj\xc3\xba'
p1455
(dp1456
S'VERB'
p1457
F1.0
s(lp1458
g65
atp1459
a(S't\xc3\xbdch'
p1460
(dp1461
S'PRON'
p1462
F1.0
s(lp1463
g153
atp1464
a(g49
(dp1465
g51
F1.0
s(lp1466
g49
atp1467
a(S'ktor\xc3\xad'
p1468
(dp1469
S'PRON'
p1470
F1.0
s(lp1471
g159
atp1472
a(S'si'
p1473
(dp1474
S'PRT'
p1475
F0.99972
sS'VERB'
p1476
F0.000279
sg949
F1e-06
s(lp1477
tp1478
a(S'mysleli'
p1479
(dp1480
S'VERB'
p1481
F1.0
s(lp1482
g165
atp1483
a(g49
(dp1484
g51
F1.0
s(lp1485
g49
atp1486
a(S'\xc5\xbee'
p1487
(dp1488
g949
F0.000147
sS'CONJ'
p1489
F0.999853
s(lp1490
g457
atp1491
a(S'si'
p1492
(dp1493
S'PRT'
p1494
F0.928435
sS'VERB'
p1495
F0.071564
sg949
F1e-06
s(lp1496
tp1497
a(S'legit\xc3\xadmne'
p1498
(dp1499
S'ADV'
p1500
F0.992419
sS'ADJ'
p1501
F0.007580999999999999
s(lp1502
g177
atp1503
a(S'kupuj\xc3\xba'
p1504
(dp1505
S'VERB'
p1506
F1.0
s(lp1507
g171
atp1508
a(S'domy'
p1509
(dp1510
S'NOUN'
p1511
F1.0
s(lp1512
g207
atp1513
a(g124
(dp1514
g949
F0.0007580000000000001
sS'CONJ'
p1515
F0.998528
sS'NOUN'
p1516
F5.5e-05
sS'ADP'
p1517
F0.000628
sS'PRT'
p1518
F3.2e-05
s(lp1519
g195
atp1520
a(S'majetok'
p1521
(dp1522
S'NOUN'
p1523
F1.0
s(lp1524
g184
atp1525
a(g49
(dp1526
g51
F1.0
s(lp1527
g49
atp1528
a(g124
(dp1529
g949
F0.000222
sS'CONJ'
p1530
F0.999774
sS'NOUN'
p1531
F4.9999999999999996e-06
sS'ADP'
p1532
F0.0
sS'PRT'
p1533
F1e-06
s(lp1534
g217
atp1535
a(S'ak'
p1536
(dp1537
g949
F0.004353
sS'CONJ'
p1538
F0.995648
s(lp1539
g233
atp1540
a(S't\xc3\xa1to'
p1541
(dp1542
S'PRON'
p1543
F1.0
s(lp1544
g239
atp1545
a(S'spr\xc3\xa1va'
p1546
(dp1547
S'VERB'
p1548
F0.000353
sS'NOUN'
p1549
F0.999647
s(lp1550
g245
atp1551
a(S'pom\xc3\xb4\xc5\xbee'
p1552
(dp1553
S'VERB'
p1554
F1.0
s(lp1555
tp1556
a(S'pri'
p1557
(dp1558
g949
F6.3e-05
sS'VERB'
p1559
F0.0
sS'ADP'
p1560
F0.999937
s(lp1561
g251
atp1562
a(S'rie\xc5\xa1en\xc3\xad'
p1563
(dp1564
S'VERB'
p1565
F0.002065
sS'NOUN'
p1566
F0.997935
s(lp1567
g284
atp1568
a(S'tejto'
p1569
(dp1570
S'PRON'
p1571
F1.0
s(lp1572
g290
atp1573
a(S'situ\xc3\xa1cie'
p1574
(dp1575
S'NOUN'
p1576
F1.0
s(lp1577
g296
atp1578
a(g49
(dp1579
g51
F1.0
s(lp1580
g49
atp1581
a(S'm\xc3\xb4\xc5\xbee'
p1582
(dp1583
S'VERB'
p1584
F1.0
s(lp1585
g316
atp1586
a(S'to'
p1587
(dp1588
S'PRON'
p1589
F0.955151
sS'CONJ'
p1590
F0.003605
sg949
F0.041245
s(lp1591
g305
atp1592
a(S'by\xc5\xa5'
p1593
(dp1594
S'VERB'
p1595
F1.0
s(lp1596
g422
atp1597
a(S'len'
p1598
(dp1599
g949
F0.975666
sS'CONJ'
p1600
F0.024334
s(lp1601
g330
atp1602
a(S'dobr\xc3\xa9'
p1603
(dp1604
S'NOUN'
p1605
F0.022692
sS'ADJ'
p1606
F0.970391
sg949
F0.006918
s(lp1607
g338
atp1608
a(g51
(dp1609
g51
F1.0
s(lp1610
g51
atp1611
asS'pl'
p1612
(lp1613
(S'wydaje'
p1614
(dp1615
S'VERB'
p1616
F1.0
s(lp1617
tp1618
a(S'si\xc4\x99'
p1619
(dp1620
S'PRT'
p1621
F1.0
s(lp1622
g13
atp1623
a(g49
(dp1624
g949
F0.0
sg51
F1.0
s(lp1625
tp1626
a(S'\xc5\xbce'
p1627
(dp1628
S'PRT'
p1629
F0.000202
sS'CONJ'
p1630
F0.999798
s(lp1631
g21
atp1632
a(S'organy'
p1633
(dp1634
S'NOUN'
p1635
F1.0
s(lp1636
g34
atp1637
a(S'administracyjne'
p1638
(dp1639
S'ADJ'
p1640
F0.9999999999999999
s(lp1641
g40
atp1642
a(S'w'
p1643
(dp1644
S'NOUN'
p1645
F2.1e-05
sS'ADJ'
p1646
F0.000213
sS'ADP'
p1647
F0.999759
sg949
F6e-06
s(lp1648
g368
atp1649
a(S'hiszpanii'
p1650
(dp1651
S'ADJ'
p1652
F0.0
sS'NOUN'
p1653
F0.9999999999999999
s(lp1654
g47
atp1655
a(S'do'
p1656
(dp1657
g949
F0.0
sS'NOUN'
p1658
F3.9e-05
sS'ADP'
p1659
F0.999961
s(lp1660
g58
atp1661
a(S'sp\xc3\xb3\xc5\x82ki'
p1662
(dp1663
S'NOUN'
p1664
F1.0
s(lp1665
g65
atp1666
a(S'z'
p1667
(dp1668
S'PRT'
p1669
F2e-06
sS'VERB'
p1670
F1e-06
sS'NOUN'
p1671
F4e-06
sS'ADP'
p1672
F0.9999910000000001
sg949
F1e-06
s(lp1673
g72
atp1674
a(S'zach\xc5\x82annymi'
p1675
(dp1676
S'NOUN'
p1677
F0.088329
sS'VERB'
p1678
F0.42232800000000004
sS'ADJ'
p1679
F0.489344
s(lp1680
g296
atp1681
a(S'i'
p1682
(dp1683
S'PRT'
p1684
F0.12305
sS'CONJ'
p1685
F0.876812
sS'NOUN'
p1686
F0.000121
sg949
F2e-06
sS'PRON'
p1687
F1.4999999999999999e-05
s(lp1688
g49
atp1689
a(S'pozbawionymi'
p1690
(dp1691
S'VERB'
p1692
F1.0
s(lp1693
tp1694
a(S'skrupu\xc5\x82\xc3\xb3w'
p1695
(dp1696
S'NOUN'
p1697
F1.0
s(lp1698
g79
atp1699
a(S'deweloperami'
p1700
(dp1701
S'ADJ'
p1702
F0.13778400000000002
sS'VERB'
p1703
F0.003799
sS'NOUN'
p1704
F0.8584189999999998
s(lp1705
g86
atp1706
a(S'sta\xc5\x82y'
p1707
(dp1708
S'VERB'
p1709
F0.993735
sS'ADJ'
p1710
F0.006265
s(lp1711
g65
atp1712
a(S'si\xc4\x99'
p1713
(dp1714
S'PRT'
p1715
F1.0
s(lp1716
g124
atp1717
a(S'postrachem'
p1718
(dp1719
S'NOUN'
p1720
F1.0
s(lp1721
g432
atp1722
a(S'dla'
p1723
(dp1724
S'ADP'
p1725
F1.0
s(lp1726
g141
atp1727
a(S'tych'
p1728
(dp1729
S'ADJ'
p1730
F0.9999999999999999
s(lp1731
g153
atp1732
a(g49
(dp1733
g949
F0.0
sg51
F1.0
s(lp1734
g49
atp1735
a(S'kt\xc3\xb3rzy'
p1736
(dp1737
S'ADJ'
p1738
F1.0
s(lp1739
g159
atp1740
a(S'my\xc5\x9bleli'
p1741
(dp1742
S'VERB'
p1743
F1.0
s(lp1744
g165
atp1745
a(g49
(dp1746
g949
F0.0
sg51
F1.0
s(lp1747
tp1748
a(S'\xc5\xbce'
p1749
(dp1750
S'PRT'
p1751
F0.00107
sS'CONJ'
p1752
F0.99893
s(lp1753
g457
atp1754
a(S'kupuj\xc4\x85'
p1755
(dp1756
S'VERB'
p1757
F1.0
s(lp1758
g171
atp1759
a(S'legalne'
p1760
(dp1761
S'ADJ'
p1762
F1.0
s(lp1763
g177
atp1764
a(S'domy'
p1765
(dp1766
S'NOUN'
p1767
F1.0
s(lp1768
g207
atp1769
a(g1682
(dp1770
S'PRT'
p1771
F0.021457
sS'CONJ'
p1772
F0.978532
sS'PRON'
p1773
F3e-06
sS'NOUN'
p1774
F3e-06
sg949
F5e-06
s(lp1775
g195
atp1776
a(S'nabywaj\xc4\x85'
p1777
(dp1778
S'VERB'
p1779
F1.0
s(lp1780
g184
atp1781
a(S'legaln\xc4\x85'
p1782
(dp1783
S'ADV'
p1784
F3.1e-05
sS'NOUN'
p1785
F0.000279
sS'VERB'
p1786
F0.0005970000000000002
sS'ADJ'
p1787
F0.999094
s(lp1788
tp1789
a(S'w\xc5\x82asno\xc5\x9b\xc4\x87'
p1790
(dp1791
S'NOUN'
p1792
F1.0
s(lp1793
g184
atp1794
a(g51
(dp1795
g51
F1.0
s(lp1796
g217
atp1797
a(S'je\xc5\xbceli'
p1798
(dp1799
S'CONJ'
p1800
F1.0
s(lp1801
g233
atp1802
a(S'zatem'
p1803
(dp1804
S'CONJ'
p1805
F1.0
s(lp1806
g536
atp1807
a(S'dzi\xc4\x99ki'
p1808
(dp1809
S'NOUN'
p1810
F0.04144
sS'ADP'
p1811
F0.95856
s(lp1812
g251
atp1813
a(S'sprawozdaniu'
p1814
(dp1815
S'NOUN'
p1816
F1.0
s(lp1817
g245
atp1818
a(S'kto\xc5\x9b'
p1819
(dp1820
S'NOUN'
p1821
F1.0
s(lp1822
tp1823
a(S'zajmie'
p1824
(dp1825
S'VERB'
p1826
F1.0
s(lp1827
g284
atp1828
a(S'si\xc4\x99'
p1829
(dp1830
S'PRT'
p1831
F1.0
s(lp1832
g284
atp1833
a(S'tym'
p1834
(dp1835
S'ADV'
p1836
F0.003049
sS'NOUN'
p1837
F0.001438
sS'CONJ'
p1838
F0.001317
sS'ADJ'
p1839
F0.9941
sS'PRT'
p1840
F9.7e-05
s(lp1841
g239
atp1842
a(S'problemem'
p1843
(dp1844
S'NOUN'
p1845
F1.0
s(lp1846
tp1847
a(g49
(dp1848
g949
F0.0
sg51
F1.0
s(lp1849
g49
atp1850
a(S'to'
p1851
(dp1852
S'NOUN'
p1853
F0.18854
sS'ADP'
p1854
F1.7e-05
sS'PRT'
p1855
F0.101735
sg949
F1.5e-05
sS'CONJ'
p1856
F0.312311
sS'ADJ'
p1857
F0.39738100000000004
s(lp1858
g290
atp1859
a(S'dobrze'
p1860
(dp1861
S'ADV'
p1862
F0.951888
sS'PRT'
p1863
F0.048112
s(lp1864
g338
atp1865
a(S'przys\xc5\x82u\xc5\xbcy'
p1866
(dp1867
S'VERB'
p1868
F1.0
s(lp1869
g65
atp1870
a(S'si\xc4\x99'
p1871
(dp1872
S'PRT'
p1873
F1.0
s(lp1874
tp1875
a(S'ono'
p1876
(dp1877
S'PRON'
p1878
F1.0
s(lp1879
g305
atp1880
a(S'sprawie'
p1881
(dp1882
S'NOUN'
p1883
F1.0
s(lp1884
g284
atp1885
a(g51
(dp1886
g51
F1.0
s(lp1887
g51
atp1888
asS'sl'
p1889
(lp1890
(S'zdi'
p1891
(dp1892
S'VERB'
p1893
F1.0
s(lp1894
tp1895
a(S'se'
p1896
(dp1897
S'PRON'
p1898
F0.998359
sg949
F0.001641
s(lp1899
g13
atp1900
a(g49
(dp1901
g51
F1.0
s(lp1902
g49
atp1903
a(S'da'
p1904
(dp1905
S'PRT'
p1906
F2e-06
sS'CONJ'
p1907
F0.999987
sS'VERB'
p1908
F1e-05
sg949
F1e-06
s(lp1909
g21
atp1910
a(S'so'
p1911
(dp1912
g949
F0.00011200000000000001
sS'VERB'
p1913
F0.999888
s(lp1914
g86
atp1915
a(S'civilne'
p1916
(dp1917
S'ADJ'
p1918
F1.0
s(lp1919
g40
atp1920
a(S'oblasti'
p1921
(dp1922
S'NOUN'
p1923
F1.0
s(lp1924
g34
atp1925
a(g1407
(dp1926
S'ADP'
p1927
F1.0
s(lp1928
g368
atp1929
a(S'\xc5\xa0paniji'
p1930
(dp1931
S'NOUN'
p1932
F1.0
s(lp1933
g47
atp1934
a(g49
(dp1935
g51
F1.0
s(lp1936
g49
atp1937
a(g1407
(dp1938
S'ADP'
p1939
F1.0
s(lp1940
g58
atp1941
a(S'sodelovanju'
p1942
(dp1943
S'NOUN'
p1944
F1.0
s(lp1945
g65
atp1946
a(g1667
(dp1947
S'ADP'
p1948
F1.0
s(lp1949
g72
atp1950
a(S'grabe\xc5\xbeljivimi'
p1951
(dp1952
S'ADV'
p1953
F0.000175
sS'NOUN'
p1954
F0.18676700000000004
sS'PRON'
p1955
F0.011755
sS'NUM'
p1956
F0.005335
sS'ADJ'
p1957
F0.79588
sS'VERB'
p1958
F9.100000000000002e-05
s(lp1959
g65
atp1960
a(g49
(dp1961
g51
F1.0
s(lp1962
tp1963
a(S'brezvestnimi'
p1964
(dp1965
S'ADV'
p1966
F0.014077
sS'NOUN'
p1967
F0.028388000000000004
sS'PRON'
p1968
F0.000107
sS'VERB'
p1969
F0.134702
sS'NUM'
p1970
F0.000131
sS'ADJ'
p1971
F0.8225929999999999
s(lp1972
g65
atp1973
a(S'izvajalci'
p1974
(dp1975
S'NOUN'
p1976
F1.0
s(lp1977
g65
atp1978
a(g49
(dp1979
g51
F1.0
s(lp1980
tp1981
a(S'predstavljale'
p1982
(dp1983
S'VERB'
p1984
F1.0
s(lp1985
g65
atp1986
a(S'no\xc4\x8dno'
p1987
(dp1988
S'ADJ'
p1989
F0.9999999999999999
s(lp1990
tp1991
a(S'moro'
p1992
(dp1993
S'ADV'
p1994
F8.7e-05
sS'ADJ'
p1995
F0.000175
sS'VERB'
p1996
F3.9e-05
sS'NOUN'
p1997
F0.9996969999999998
s(lp1998
g65
atp1999
a(S'za'
p2000
(dp2001
S'ADV'
p2002
F1.2e-05
sg949
F1e-06
sS'ADP'
p2003
F0.9999870000000001
s(lp2004
g141
atp2005
a(S'tiste'
p2006
(dp2007
S'PRON'
p2008
F1.0
s(lp2009
g153
atp2010
a(g49
(dp2011
g51
F1.0
s(lp2012
g49
atp2013
a(S'ki'
p2014
(dp2015
S'CONJ'
p2016
F1.0
s(lp2017
g159
atp2018
a(S'so'
p2019
(dp2020
g949
F0.0
sS'VERB'
p2021
F0.999999
s(lp2022
g116
atp2023
a(S'mislili'
p2024
(dp2025
S'VERB'
p2026
F1.0
s(lp2027
g165
atp2028
a(g49
(dp2029
g51
F1.0
s(lp2030
tp2031
a(S'da'
p2032
(dp2033
S'PRT'
p2034
F2e-06
sS'CONJ'
p2035
F0.999988
sS'VERB'
p2036
F1e-05
sg949
F0.0
s(lp2037
g457
atp2038
a(S'so'
p2039
(dp2040
g949
F0.0
sS'VERB'
p2041
F1.0
s(lp2042
g462
atp2043
a(S'kupili'
p2044
(dp2045
S'VERB'
p2046
F1.0
s(lp2047
g171
atp2048
a(S'zakonite'
p2049
(dp2050
S'ADJ'
p2051
F1.0
s(lp2052
g177
atp2053
a(S'domove'
p2054
(dp2055
S'NOUN'
p2056
F1.0
s(lp2057
g207
atp2058
a(S'in'
p2059
(dp2060
S'ADV'
p2061
F2.2e-05
sg949
F5e-06
sS'CONJ'
p2062
F0.99997
sS'NOUN'
p2063
F2e-06
s(lp2064
g195
atp2065
a(S'imetje'
p2066
(dp2067
S'NOUN'
p2068
F1.0
s(lp2069
g184
atp2070
a(g49
(dp2071
g51
F1.0
s(lp2072
g49
atp2073
a(S'in'
p2074
(dp2075
S'ADV'
p2076
F0.000122
sg949
F1.1e-05
sS'CONJ'
p2077
F0.999858
sS'NOUN'
p2078
F8e-06
s(lp2079
g217
atp2080
a(S'\xc4\x8de'
p2081
(dp2082
S'CONJ'
p2083
F1.0
s(lp2084
tp2085
a(S'bo'
p2086
(dp2087
S'VERB'
p2088
F1.0
s(lp2089
g233
atp2090
a(S'to'
p2091
(dp2092
S'PRON'
p2093
F0.999994
sg949
F5e-06
s(lp2094
g239
atp2095
a(S'poro\xc4\x8dilo'
p2096
(dp2097
S'NOUN'
p2098
F1.0
s(lp2099
g245
atp2100
a(S'pripomoglo'
p2101
(dp2102
S'VERB'
p2103
F1.0
s(lp2104
tp2105
a(S'k'
p2106
(dp2107
S'NOUN'
p2108
F3e-06
sS'ADP'
p2109
F0.999997
s(lp2110
g251
atp2111
a(S'obravnavi'
p2112
(dp2113
S'NOUN'
p2114
F1.0
s(lp2115
g284
atp2116
a(S'tega'
p2117
(dp2118
S'PRON'
p2119
F1.0
s(lp2120
g290
atp2121
a(g49
(dp2122
g51
F1.0
s(lp2123
g49
atp2124
a(S'lahko'
p2125
(dp2126
S'ADV'
p2127
F0.999947
sS'ADJ'
p2128
F5.2000000000000004e-05
s(lp2129
g316
atp2130
a(S'pomeni'
p2131
(dp2132
S'VERB'
p2133
F0.999236
sS'NOUN'
p2134
F0.000764
s(lp2135
g536
atp2136
a(S'le'
p2137
(dp2138
S'PRT'
p2139
F0.998542
sg949
F0.001458
s(lp2140
g330
atp2141
a(S'dobro'
p2142
(dp2143
S'ADV'
p2144
F0.861379
sS'NOUN'
p2145
F0.019424
sS'ADJ'
p2146
F0.11761100000000001
sg949
F0.001586
s(lp2147
g338
atp2148
a(g51
(dp2149
g51
F1.0
s(lp2150
g51
atp2151
asS'es'
p2152
(lp2153
(S'pareciera'
p2154
(dp2155
S'VERB'
p2156
F1.0
s(lp2157
g13
atp2158
a(S'que'
p2159
(dp2160
g949
F0.0
sS'CONJ'
p2161
F1.0
s(lp2162
g21
atp2163
a(S'las'
p2164
(dp2165
S'PRON'
p2166
F0.000108
sS'DET'
p2167
F0.999892
s(lp2168
g34
atp2169
a(S'autoridades'
p2170
(dp2171
S'NOUN'
p2172
F1.0
s(lp2173
tp2174
a(S'c\xc3\xadvicas'
p2175
(dp2176
S'ADJ'
p2177
F1.0
s(lp2178
g40
atp2179
a(S'espa\xc3\xb1olas'
p2180
(dp2181
S'NOUN'
p2182
F0.110514
sS'VERB'
p2183
F0.142346
sS'ADJ'
p2184
F0.74714
s(lp2185
g47
atp2186
a(g49
(dp2187
g51
F1.0
s(lp2188
g49
atp2189
a(S'en'
p2190
(dp2191
g949
F0.00283
sS'CONJ'
p2192
F5.4e-05
sS'ADP'
p2193
F0.997117
s(lp2194
g58
atp2195
a(S'compinche'
p2196
(dp2197
S'ADJ'
p2198
F0.030609
sS'VERB'
p2199
F0.036223
sS'NOUN'
p2200
F0.933168
s(lp2201
g65
atp2202
a(S'con'
p2203
(dp2204
S'ADP'
p2205
F1.0
s(lp2206
g72
atp2207
a(S'promotores'
p2208
(dp2209
S'ADJ'
p2210
F0.081914
sS'NOUN'
p2211
F0.918086
s(lp2212
tp2213
a(S'sin'
p2214
(dp2215
S'ADP'
p2216
F1.0
s(lp2217
tp2218
a(S'escr\xc3\xbapulos'
p2219
(dp2220
S'NOUN'
p2221
F1.0
s(lp2222
g79
atp2223
a(S'y'
p2224
(dp2225
g949
F0.002221
sS'CONJ'
p2226
F0.997779
s(lp2227
g49
atp2228
a(S'avariciosos'
p2229
(dp2230
S'VERB'
p2231
F0.005317
sS'ADJ'
p2232
F0.994683
s(lp2233
g86
atp2234
a(g49
(dp2235
g51
F1.0
s(lp2236
g49
atp2237
a(S'se'
p2238
(dp2239
S'PRON'
p2240
F1.0
sS'VERB'
p2241
F0.0
s(lp2242
tp2243
a(S'han'
p2244
(dp2245
S'VERB'
p2246
F1.0
s(lp2247
g116
atp2248
a(S'convertido'
p2249
(dp2250
S'VERB'
p2251
F1.0
s(lp2252
g422
atp2253
a(S'en'
p2254
(dp2255
g949
F0.0
sS'CONJ'
p2256
F1.3e-05
sS'ADP'
p2257
F0.999987
s(lp2258
g368
atp2259
a(S'terror'
p2260
(dp2261
S'NOUN'
p2262
F1.0
s(lp2263
g432
atp2264
a(S'para'
p2265
(dp2266
S'CONJ'
p2267
F0.000945
sS'ADP'
p2268
F0.999055
s(lp2269
g141
atp2270
a(S'aquellos'
p2271
(dp2272
S'PRON'
p2273
F1.0
s(lp2274
g153
atp2275
a(S'que'
p2276
(dp2277
g949
F0.0
sS'CONJ'
p2278
F1.0
s(lp2279
g159
atp2280
a(S'pensaron'
p2281
(dp2282
S'VERB'
p2283
F1.0
s(lp2284
g165
atp2285
a(S'que'
p2286
(dp2287
g949
F0.0
sS'CONJ'
p2288
F1.0
s(lp2289
g457
atp2290
a(S'estaban'
p2291
(dp2292
S'VERB'
p2293
F1.0
s(lp2294
g462
atp2295
a(S'comprando'
p2296
(dp2297
S'VERB'
p2298
F1.0
s(lp2299
g171
atp2300
a(S'viviendas'
p2301
(dp2302
S'NOUN'
p2303
F1.0
s(lp2304
g207
atp2305
a(g2224
(dp2306
g949
F0.001008
sS'CONJ'
p2307
F0.998992
s(lp2308
g195
atp2309
a(S'propiedades'
p2310
(dp2311
S'NOUN'
p2312
F1.0
s(lp2313
g184
atp2314
a(S'leg\xc3\xadtimas'
p2315
(dp2316
S'ADJ'
p2317
F1.0
s(lp2318
g177
atp2319
a(g51
(dp2320
g51
F1.0
s(lp2321
g49
atp2322
a(S'si'
p2323
(dp2324
S'CONJ'
p2325
F0.999984
sS'NOUN'
p2326
F1.6e-05
s(lp2327
g233
atp2328
a(S'este'
p2329
(dp2330
S'PRON'
p2331
F0.999913
sS'NOUN'
p2332
F8.7e-05
s(lp2333
g239
atp2334
a(S'informe'
p2335
(dp2336
S'VERB'
p2337
F0.013694
sS'NOUN'
p2338
F0.986306
s(lp2339
g245
atp2340
a(S'ayuda'
p2341
(dp2342
S'NOUN'
p2343
F1.0
s(lp2344
tp2345
a(g124
(dp2346
g949
F8.499999999999999e-05
sS'CONJ'
p2347
F0.077467
sS'ADP'
p2348
F0.922448
s(lp2349
g251
atp2350
a(S'solucionar'
p2351
(dp2352
S'VERB'
p2353
F1.0
s(lp2354
g284
atp2355
a(S'esto'
p2356
(dp2357
S'PRON'
p2358
F1.0
s(lp2359
g290
atp2360
a(g49
(dp2361
g51
F1.0
s(lp2362
g49
atp2363
a(S'entonces'
p2364
(dp2365
S'ADV'
p2366
F1.0
s(lp2367
g536
atp2368
a(g49
(dp2369
g51
F1.0
s(lp2370
tp2371
a(S'las'
p2372
(dp2373
S'PRON'
p2374
F1.4e-05
sS'DET'
p2375
F0.999986
s(lp2376
g34
atp2377
a(S'consecuencias'
p2378
(dp2379
S'NOUN'
p2380
F1.0
s(lp2381
g536
atp2382
a(S's\xc3\xb3lo'
p2383
(dp2384
S'ADV'
p2385
F1.0
s(lp2386
g330
atp2387
a(S'pueden'
p2388
(dp2389
S'VERB'
p2390
F1.0
s(lp2391
g316
atp2392
a(S'ser'
p2393
(dp2394
S'VERB'
p2395
F0.999999
sS'NOUN'
p2396
F1e-06
s(lp2397
g557
atp2398
a(S'positivas'
p2399
(dp2400
S'ADJ'
p2401
F1.0
s(lp2402
g338
atp2403
a(g51
(dp2404
g51
F1.0
s(lp2405
g51
atp2406
as.