(dp0
S'fr'
p1
(lp2
(S'nous'
p3
(dp4
S'PRON'
p5
F1.0
s(lp6
S'we'
p7
atp8
a(S'menons'
p9
(dp10
S'VERB'
p11
F0.985624
sS'NOUN'
p12
F0.014377
s(lp13
S'conducting'
p14
atp15
a(S'des'
p16
(dp17
S'DET'
p18
F0.000241
sS'ADP'
p19
F0.999759
s(lp20
tp21
a(S'd\xc3\xa9bats'
p22
(dp23
S'VERB'
p24
F1e-06
sS'NOUN'
p25
F0.999999
s(lp26
S'discussions'
p27
atp28
a(S'sur'
p29
(dp30
S'ADP'
p31
F1.0
s(lp32
S'concerning'
p33
atp34
a(S'la'
p35
(dp36
S'PRON'
p37
F0.000202
sS'DET'
p38
F0.999798
sS'NOUN'
p39
F0.0
s(lp40
tp41
a(S'mani\xc3\xa8re'
p42
(dp43
S'VERB'
p44
F0.00026399999999999997
sS'NOUN'
p45
F0.999736
s(lp46
S'how'
p47
atp48
a(S"d'"
p49
(dp50
S'NOUN'
p51
F0.032456
sS'VERB'
p52
F0.6940419999999999
sS'ADJ'
p53
F0.273502
s(lp54
S'this'
p55
atp56
a(S'y'
p57
(dp58
S'PRON'
p59
F1.0
s(lp60
S'can'
p61
atp62
a(S'parvenir'
p63
(dp64
S'VERB'
p65
F1.0
s(lp66
S'done'
p67
atp68
a(S'.'
p69
(dp70
g69
F1.0
s(lp71
g69
atp72
asS'en'
p73
(lp74
(g7
(dp75
S'PRON'
p76
F1.0
s(lp77
g7
atp78
a(S'are'
p79
(dp80
S'VERB'
p81
F1.0
sS'NOUN'
p82
F0.0
s(lp83
g79
atp84
a(g14
(dp85
S'VERB'
p86
F0.998354
sS'NOUN'
p87
F0.001646
s(lp88
g14
atp89
a(g27
(dp90
S'NOUN'
p91
F1.0
s(lp92
g27
atp93
a(g33
(dp94
S'VERB'
p95
F0.990965
sS'ADJ'
p96
F9.6e-05
sS'ADP'
p97
F0.00894
s(lp98
g33
atp99
a(g47
(dp100
S'ADV'
p101
F0.999992
sS'ADJ'
p102
F4e-06
sS'NOUN'
p103
F5e-06
s(lp104
g47
atp105
a(g55
(dp106
S'ADV'
p107
F0.000904
sS'NOUN'
p108
F0.000483
sS'DET'
p109
F0.998612
s(lp110
g55
atp111
a(g61
(dp112
S'VERB'
p113
F0.999835
sS'NOUN'
p114
F0.000165
s(lp115
g61
atp116
a(S'be'
p117
(dp118
S'VERB'
p119
F1.0
s(lp120
g117
atp121
a(g67
(dp122
S'VERB'
p123
F0.999885
sS'ADJ'
p124
F0.000115
s(lp125
g67
atp126
a(g69
(dp127
g69
F1.0
s(lp128
g69
atp129
asS'nl'
p130
(lp131
(S'we'
p132
(dp133
S'PRON'
p134
F1.0
s(lp135
g7
atp136
a(S'voeren'
p137
(dp138
S'VERB'
p139
F0.91705
sS'NOUN'
p140
F0.08295
s(lp141
tp142
a(S'besprekingen'
p143
(dp144
S'NOUN'
p145
F1.0
s(lp146
g27
atp147
a(S'over'
p148
(dp149
S'ADV'
p150
F0.891425
sS'ADP'
p151
F0.108575
s(lp152
g33
atp153
a(S'hoe'
p154
(dp155
S'ADV'
p156
F0.975187
sS'CONJ'
p157
F0.024813
s(lp158
g47
atp159
a(S'dat'
p160
(dp161
S'PRON'
p162
F0.9434260000000001
sS'CONJ'
p163
F0.056574
s(lp164
g55
atp165
a(S'ingevuld'
p166
(dp167
S'VERB'
p168
F1.0
s(lp169
g14
atp170
a(S'kan'
p171
(dp172
S'VERB'
p173
F0.9997
sS'NOUN'
p174
F0.0003
s(lp175
g61
atp176
a(S'worden'
p177
(dp178
S'VERB'
p179
F0.9999979999999999
sS'NOUN'
p180
F2e-06
s(lp181
g117
atp182
a(g69
(dp183
g69
F1.0
s(lp184
g69
atp185
asS'de'
p186
(lp187
(S'wir'
p188
(dp189
S'PRON'
p190
F1.0
s(lp191
g7
atp192
a(S'bleiben'
p193
(dp194
S'VERB'
p195
F1.0
s(lp196
g14
atp197
a(S'dar\xc3\xbcber'
p198
(dp199
S'ADV'
p200
F0.999943
sS'PRT'
p201
F5.7e-05
s(lp202
tp203
a(S'im'
p204
(dp205
S'ADP'
p206
F1.0
s(lp207
g33
atp208
a(S'gespr\xc3\xa4ch'
p209
(dp210
S'ADJ'
p211
F0.000943
sS'NOUN'
p212
F0.998987
s(lp213
g27
atp214
a(S','
p215
(dp216
g69
F1.0
s(lp217
tp218
a(S'wie'
p219
(dp220
S'CONJ'
p221
F0.999686
s(lp222
g47
atp223
a(S'dies'
p224
(dp225
S'PRON'
p226
F1.0
s(lp227
g55
atp228
a(S'getan'
p229
(dp230
S'VERB'
p231
F1.0
s(lp232
g67
atp233
a(S'werden'
p234
(dp235
S'VERB'
p236
F0.999998
s(lp237
g117
atp238
a(S'kann'
p239
(dp240
S'VERB'
p241
F1.0
s(lp242
g61
atp243
a(g69
(dp244
g69
F1.0
s(lp245
g69
atp246
asS'it'
p247
(lp248
(S'e'
p249
(dp250
S'CONJ'
p251
F1.0
s(lp252
g7
atp253
a(S"'"
p254
(dp255
g69
F1.0
s(lp256
tp257
a(S'attualmente'
p258
(dp259
S'ADV'
p260
F1.0
s(lp261
g14
atp262
a(S'in'
p263
(dp264
S'ADP'
p265
F1.0
s(lp266
tp267
a(S'corso'
p268
(dp269
S'ADJ'
p270
F0.018291
sS'VERB'
p271
F0.021195
sS'NOUN'
p272
F0.960513
s(lp273
g27
atp274
a(S'un'
p275
(dp276
S'PRON'
p277
F0.003449
sS'DEF'
p278
F0.996551
s(lp279
tp280
a(S'dibattito'
p281
(dp282
S'NOUN'
p283
F1.0
s(lp284
g27
atp285
a(S'per'
p286
(dp287
S'CONJ'
p288
F0.005329
sS'ADP'
p289
F0.994671
s(lp290
g33
atp291
a(S'individuare'
p292
(dp293
S'VERB'
p294
F1.0
s(lp295
g47
atp296
a(S'le'
p297
(dp298
S'PRON'
p299
F0.0
sS'DET'
p300
F1.0
s(lp301
tp302
a(S'modalit\xc3\xa0'
p303
(dp304
S'NOUN'
p305
F1.0
s(lp306
tp307
a(S'con'
p308
(dp309
S'ADP'
p310
F1.0
s(lp311
tp312
a(S'le'
p313
(dp314
S'PRON'
p315
F0.004054
sS'DET'
p316
F0.995946
s(lp317
g27
atp318
a(S'quali'
p319
(dp320
S'PRON'
p321
F0.9971359999999999
sS'ADJ'
p322
F0.002863
s(lp323
g47
atp324
a(S'raggiungere'
p325
(dp326
S'VERB'
p327
F1.0
s(lp328
g117
atp329
a(S'questo'
p330
(dp331
S'PRON'
p332
F1.0
s(lp333
g55
atp334
a(S'obiettivo'
p335
(dp336
S'ADJ'
p337
F0.055752
sS'VERB'
p338
F4.6e-05
sS'NOUN'
p339
F0.944202
s(lp340
g67
atp341
a(g69
(dp342
g69
F1.0
s(lp343
g69
atp344
asS'sk'
p345
(lp346
(S'vedieme'
p347
(dp348
S'VERB'
p349
F1.0
s(lp350
g14
atp351
a(S'diskusie'
p352
(dp353
S'NOUN'
p354
F1.0
s(lp355
g27
atp356
a(S'zameran\xc3\xa9'
p357
(dp358
S'VERB'
p359
F1.0
s(lp360
tp361
a(S'na'
p362
(dp363
S'X'
p364
F0.00010200000000000001
sS'CONJ'
p365
F3.5e-05
sS'ADP'
p366
F0.999837
sS'PRT'
p367
F2.7e-05
s(lp368
g33
atp369
a(S'to'
p370
(dp371
S'PRON'
p372
F0.999386
sS'CONJ'
p373
F1e-06
sg364
F0.000614
s(lp374
tp375
a(g215
(dp376
g69
F1.0
s(lp377
tp378
a(S'ako'
p379
(dp380
S'PRON'
p381
F0.020912
sS'CONJ'
p382
F0.978998
sg364
F9.1e-05
s(lp383
g47
atp384
a(S'tento'
p385
(dp386
S'PRON'
p387
F0.999982
sg364
F1.8e-05
s(lp388
g55
atp389
a(S'cie\xc4\xbe'
p390
(dp391
S'VERB'
p392
F0.000774
sS'NOUN'
p393
F0.999226
s(lp394
g61
atp395
a(S'dosiahnu\xc5\xa5'
p396
(dp397
S'VERB'
p398
F1.0
s(lp399
g67
atp400
a(g69
(dp401
g69
F1.0
s(lp402
g69
atp403
asS'pl'
p404
(lp405
(S'prowadzimy'
p406
(dp407
S'VERB'
p408
F1.0
s(lp409
g14
atp410
a(S'rozmowy'
p411
(dp412
S'NOUN'
p413
F1.000001
s(lp414
g27
atp415
a(S'dotycz\xc4\x85ce'
p416
(dp417
S'VERB'
p418
F1.000001
s(lp419
g33
atp420
a(S'sposob\xc3\xb3w'
p421
(dp422
S'NOUN'
p423
F1.0
s(lp424
tp425
a(S'realizacji'
p426
(dp427
S'NOUN'
p428
F1.0
s(lp429
g47
atp430
a(S'tych'
p431
(dp432
S'ADJ'
p433
F1.0000000000000002
s(lp434
g55
atp435
a(S'plan\xc3\xb3w'
p436
(dp437
S'NOUN'
p438
F1.0
s(lp439
g67
atp440
a(g69
(dp441
g69
F1.0
s(lp442
g69
atp443
asS'sl'
p444
(lp445
(S'poteka'
p446
(dp447
S'VERB'
p448
F1.0
s(lp449
g14
atp450
a(S'razprava'
p451
(dp452
S'NOUN'
p453
F1.0
s(lp454
g27
atp455
a(S'o'
p456
(dp457
S'NOUN'
p458
F3e-06
sS'ADP'
p459
F0.999997
s(lp460
g33
atp461
a(S'tem'
p462
(dp463
S'ADV'
p464
F4.1e-05
sS'PRON'
p465
F0.9999529999999999
sS'NOUN'
p466
F6e-06
s(lp467
tp468
a(g215
(dp469
g69
F1.0
s(lp470
tp471
a(S'kako'
p472
(dp473
S'ADV'
p474
F0.683974
sS'PRON'
p475
F0.316026
s(lp476
g47
atp477
a(S'bi'
p478
(dp479
g364
F9.1e-05
sS'VERB'
p480
F0.999909
s(lp481
g117
atp482
a(S'lahko'
p483
(dp484
S'ADV'
p485
F0.999942
sS'ADJ'
p486
F5.9e-05
s(lp487
g61
atp488
a(S'to'
p489
(dp490
S'PRON'
p491
F0.9999230000000001
sg364
F7.6e-05
s(lp492
g55
atp493
a(S'dosegli'
p494
(dp495
S'VERB'
p496
F1.0
s(lp497
g67
atp498
a(g69
(dp499
g69
F1.0
s(lp500
g69
atp501
asS'es'
p502
(lp503
(S'estamos'
p504
(dp505
S'VERB'
p506
F1.0
s(lp507
g79
atp508
a(S'celebrando'
p509
(dp510
S'VERB'
p511
F1.0
s(lp512
g14
atp513
a(S'debates'
p514
(dp515
S'VERB'
p516
F1.0
s(lp517
g27
atp518
a(S'sobre'
p519
(dp520
S'NOUN'
p521
F0.0
sS'ADP'
p522
F1.0
s(lp523
g33
atp524
a(S'el'
p525
(dp526
S'PRON'
p527
F5e-06
sS'DET'
p528
F0.999995
s(lp529
tp530
a(S'modo'
p531
(dp532
S'NOUN'
p533
F1.0
s(lp534
g47
atp535
a(S'de'
p536
(dp537
g364
F0.0
sS'CONJ'
p538
F0.345844
sS'ADP'
p539
F0.654156
s(lp540
tp541
a(S'lograr'
p542
(dp543
S'VERB'
p544
F1.0
s(lp545
g67
atp546
a(S'este'
p547
(dp548
S'PRON'
p549
F0.995834
sS'NOUN'
p550
F0.004166
s(lp551
g55
atp552
a(S'objetivo'
p553
(dp554
S'ADJ'
p555
F0.0914
sS'NOUN'
p556
F0.9086
s(lp557
g61
atp558
a(g69
(dp559
g69
F1.0
s(lp560
g69
atp561
as.