(dp0
S'fr'
p1
(lp2
(S'ce'
p3
(dp4
S'PRON'
p5
F1.0
s(lp6
S'this'
p7
atp8
a(S'cadre'
p9
(dp10
S'VERB'
p11
F0.07515000000000001
sS'NOUN'
p12
F0.924851
s(lp13
S'framework'
p14
atp15
a(S'fait'
p16
(dp17
S'NOUN'
p18
F0.010478
sS'VERB'
p19
F0.9294049999999999
sS'ADJ'
p20
F0.060117
s(lp21
S'forms'
p22
atp23
a(S'partie'
p24
(dp25
S'ADJ'
p26
F0.009729
sS'VERB'
p27
F0.560974
sS'NOUN'
p28
F0.429297
s(lp29
S'part'
p30
atp31
a(S'de'
p32
(dp33
S'ADP'
p34
F1.0
s(lp35
S'of'
p36
atp37
a(S"l'"
p38
(dp39
S'ADJ'
p40
F0.160704
sS'VERB'
p41
F0.06480800000000002
sS'NOUN'
p42
F0.774488
s(lp43
S'the'
p44
atp45
a(S'acquis'
p46
(dp47
S'ADJ'
p48
F0.003059
sS'VERB'
p49
F0.722894
sS'NOUN'
p50
F0.274047
s(lp51
S'acquis'
p52
atp53
a(S'communautaire'
p54
(dp55
S'ADJ'
p56
F1.0
s(lp57
S'community'
p58
atp59
a(S'et'
p60
(dp61
S'CONJ'
p62
F1.0
s(lp63
S'and'
p64
atp65
a(S'chacun'
p66
(dp67
S'PRON'
p68
F1.0
s(lp69
S'everyone'
p70
atp71
a(S'doit'
p72
(dp73
S'VERB'
p74
F0.989523
sS'NOUN'
p75
F0.010477
s(lp76
S'must'
p77
atp78
a(S'le'
p79
(dp80
S'PRON'
p81
F0.757284
sS'DET'
p82
F0.242716
s(lp83
S'it'
p84
atp85
a(S'respecter'
p86
(dp87
S'VERB'
p88
F1.0
s(lp89
S'respect'
p90
atp91
a(S'.'
p92
(dp93
g92
F1.0
s(lp94
g92
atp95
asS'en'
p96
(lp97
(g7
(dp98
S'ADV'
p99
F1.3e-05
sS'NOUN'
p100
F1.1e-05
sS'DET'
p101
F0.999976
s(lp102
g7
atp103
a(g14
(dp104
S'NOUN'
p105
F1.0
s(lp106
g14
atp107
a(g22
(dp108
S'VERB'
p109
F0.15664
sS'NOUN'
p110
F0.84336
s(lp111
g22
atp112
a(g30
(dp113
S'ADV'
p114
F0.002036
sS'VERB'
p115
F0.003095
sS'NOUN'
p116
F0.994869
s(lp117
g30
atp118
a(g36
(dp119
S'ADP'
p120
F1.0
s(lp121
g36
atp122
a(g44
(dp123
S'NOUN'
p124
F1e-06
sS'DET'
p125
F0.999999
s(lp126
g44
atp127
a(g58
(dp128
S'NOUN'
p129
F1.0
s(lp130
g58
atp131
a(g52
(dp132
S'ADJ'
p133
F4.8e-05
sS'NOUN'
p134
F0.9999509999999999
s(lp135
g52
atp136
a(g64
(dp137
S'CONJ'
p138
F0.999999
sS'NOUN'
p139
F1e-06
s(lp140
g64
atp141
a(g70
(dp142
S'NOUN'
p143
F1.0
s(lp144
g70
atp145
a(g77
(dp146
S'VERB'
p147
F0.999999
sS'NOUN'
p148
F1e-06
s(lp149
g77
atp150
a(g90
(dp151
S'VERB'
p152
F0.999964
sS'NOUN'
p153
F3.6e-05
s(lp154
g90
atp155
a(g84
(dp156
S'PRON'
p157
F1.0
s(lp158
g84
atp159
a(g92
(dp160
g92
F1.0
s(lp161
g92
atp162
asS'nl'
p163
(lp164
(S'dit'
p165
(dp166
S'PRON'
p167
F1.0
s(lp168
g7
atp169
a(S'kader'
p170
(dp171
S'NOUN'
p172
F1.0
s(lp173
g14
atp174
a(S'maakt'
p175
(dp176
S'VERB'
p177
F1.0
s(lp178
g22
atp179
a(S'deel'
p180
(dp181
S'VERB'
p182
F0.001947
sS'NOUN'
p183
F0.998053
s(lp184
tp185
a(S'uit'
p186
(dp187
S'ADV'
p188
F0.897585
sS'VERB'
p189
F0.000176
sS'ADP'
p190
F0.102239
s(lp191
g30
atp192
a(S'van'
p193
(dp194
S'ADP'
p195
F1.0
s(lp196
g36
atp197
a(S'het'
p198
(dp199
S'PRON'
p200
F0.00582
sS'DET'
p201
F0.994181
s(lp202
g44
atp203
a(S'communautair'
p204
(dp205
S'ADJ'
p206
F1.0
s(lp207
g58
atp208
a(S'acquis'
p209
(dp210
S'ADJ'
p211
F0.045604
sS'NOUN'
p212
F0.954396
s(lp213
g52
atp214
a(S'en'
p215
(dp216
S'CONJ'
p217
F1.0
s(lp218
g64
atp219
a(S'iedereen'
p220
(dp221
S'PRON'
p222
F1.0
s(lp223
g70
atp224
a(S'moet'
p225
(dp226
S'VERB'
p227
F1.0
s(lp228
g77
atp229
a(S'dit'
p230
(dp231
S'PRON'
p232
F1.0
s(lp233
g84
atp234
a(S'respecteren'
p235
(dp236
S'VERB'
p237
F0.952068
sS'NOUN'
p238
F0.047932
s(lp239
g90
atp240
a(g92
(dp241
g92
F1.0
s(lp242
g92
atp243
asS'de'
p244
(lp245
(S'dieses'
p246
(dp247
S'PRON'
p248
F1.0
s(lp249
g7
atp250
a(S'system'
p251
(dp252
S'ADJ'
p253
F0.019994
sS'NOUN'
p254
F0.971995
s(lp255
g14
atp256
a(S'stellt'
p257
(dp258
S'VERB'
p259
F1.0
s(lp260
g22
atp261
a(S'einen'
p262
(dp263
S'PRON'
p264
F0.986463
sS'DET'
p265
F0.012772
s(lp266
tp267
a(S'teil'
p268
(dp269
S'PRT'
p270
F0.998468
sS'VERB'
p271
F0.001532
s(lp272
g30
atp273
a(S'des'
p274
(dp275
S'DET'
p276
F1.0
s(lp277
g36
atp278
a(S'besitzstandes'
p279
(dp280
S'ADJ'
p281
F0.010715
sS'NOUN'
p282
F0.977897
s(lp283
tp284
a(S'der'
p285
(dp286
S'PRON'
p287
F3.2e-05
sS'DET'
p288
F0.999947
s(lp289
g44
atp290
a(S'gemeinschaft'
p291
(dp292
S'ADJ'
p293
F0.000221
sS'NOUN'
p294
F0.999765
s(lp295
g58
atp296
a(S'dar'
p297
(dp298
S'PRT'
p299
F1.0
s(lp300
g52
atp301
a(S'und'
p302
(dp303
S'CONJ'
p304
F1.0
s(lp305
g64
atp306
a(S'jeder'
p307
(dp308
S'PRON'
p309
F1.0
s(lp310
g70
atp311
a(S'muss'
p312
(dp313
S'VERB'
p314
F1.0
s(lp315
g77
atp316
a(S'es'
p317
(dp318
S'PRON'
p319
F1.0
s(lp320
g84
atp321
a(S'respektieren'
p322
(dp323
S'VERB'
p324
F1.0
s(lp325
g90
atp326
a(g92
(dp327
g92
F1.0
s(lp328
g92
atp329
asS'it'
p330
(lp331
(S'questo'
p332
(dp333
S'PRON'
p334
F1.0
s(lp335
g7
atp336
a(S'presupposto'
p337
(dp338
S'VERB'
p339
F0.001089
sS'NOUN'
p340
F0.998911
s(lp341
g14
atp342
a(S'\xc3\xa8'
p343
(dp344
S'VERB'
p345
F1.0
s(lp346
g22
atp347
a(S'previsto'
p348
(dp349
S'NOUN'
p350
F0.000686
sS'VERB'
p351
F0.985948
sS'ADJ'
p352
F0.013365
s(lp353
g30
atp354
a(S"dall'"
p355
(dp356
S'ADJ'
p357
F0.00254
sS'NOUN'
p358
F0.99746
s(lp359
g44
atp360
a(S'acquis'
p361
(dp362
S'ADJ'
p363
F0.000527
sS'VERB'
p364
F0.07505200000000001
sS'NOUN'
p365
F0.92442
s(lp366
g52
atp367
a(S'comunitario'
p368
(dp369
S'NOUN'
p370
F0.023294
sS'ADJ'
p371
F0.976706
s(lp372
g58
atp373
a(S'e'
p374
(dp375
S'CONJ'
p376
F1.0
s(lp377
g64
atp378
a(S'tutti'
p379
(dp380
S'PRON'
p381
F0.934553
sS'ADJ'
p382
F0.065447
s(lp383
g70
atp384
a(S'devono'
p385
(dp386
S'VERB'
p387
F1.0
s(lp388
g77
atp389
a(S'rispettarlo'
p390
(dp391
S'VERB'
p392
F1.0
s(lp393
g90
atp394
a(g92
(dp395
g92
F1.0
s(lp396
g92
atp397
asS'sk'
p398
(lp399
(S'tento'
p400
(dp401
S'PRON'
p402
F0.99972
sS'X'
p403
F0.00028
s(lp404
g7
atp405
a(S'r\xc3\xa1mec'
p406
(dp407
S'NOUN'
p408
F1.0
s(lp409
g14
atp410
a(S'tvor\xc3\xad'
p411
(dp412
S'VERB'
p413
F1.0
s(lp414
g22
atp415
a(S'\xc4\x8das\xc5\xa5'
p416
(dp417
S'NOUN'
p418
F1.0
s(lp419
g30
atp420
a(S'acquis'
p421
(dp422
S'ADJ'
p423
F0.009383
sS'VERB'
p424
F0.022084999999999997
sS'NOUN'
p425
F0.963291
sg403
F0.00524
s(lp426
g52
atp427
a(S'spolo\xc4\x8denstva'
p428
(dp429
S'NOUN'
p430
F1.0
s(lp431
g58
atp432
a(S'a'
p433
(dp434
g403
F0.000425
sS'CONJ'
p435
F0.999204
sS'NOUN'
p436
F3.4e-05
sS'ADP'
p437
F0.000284
sS'PRT'
p438
F5.3e-05
s(lp439
g64
atp440
a(S'v\xc5\xa1etci'
p441
(dp442
S'PRON'
p443
F1.0
s(lp444
g70
atp445
a(S'to'
p446
(dp447
S'PRON'
p448
F0.929759
sS'CONJ'
p449
F0.032814
sg403
F0.037427
s(lp450
g84
atp451
a(S'musia'
p452
(dp453
S'VERB'
p454
F1.0
s(lp455
g77
atp456
a(S're\xc5\xa1pektova\xc5\xa5'
p457
(dp458
S'VERB'
p459
F1.0
s(lp460
g90
atp461
a(g92
(dp462
g92
F1.0
s(lp463
g92
atp464
asS'pl'
p465
(lp466
(S'te'
p467
(dp468
S'NOUN'
p469
F5.7e-05
sS'ADJ'
p470
F0.9999039999999999
sg403
F3.6e-05
s(lp471
g7
atp472
a(S'ramy'
p473
(dp474
S'NOUN'
p475
F0.9999999999999999
s(lp476
g14
atp477
a(S'stanowi\xc4\x85'
p478
(dp479
S'VERB'
p480
F1.0
s(lp481
g22
atp482
a(S'cz\xc4\x99\xc5\x9b\xc4\x87'
p483
(dp484
S'NOUN'
p485
F1.0
s(lp486
g30
atp487
a(S'dorobku'
p488
(dp489
S'NOUN'
p490
F1.0
s(lp491
g52
atp492
a(S'wsp\xc3\xb3lnotowego'
p493
(dp494
S'ADV'
p495
F7e-05
sS'NOUN'
p496
F0.002965
sS'VERB'
p497
F0.0008649999999999999
sS'ADJ'
p498
F0.996099
s(lp499
g58
atp500
a(S'i'
p501
(dp502
S'PRT'
p503
F0.003546
sS'CONJ'
p504
F0.996451
sS'PRON'
p505
F1e-06
sS'NOUN'
p506
F0.0
sg403
F2e-06
s(lp507
g64
atp508
a(S'ka\xc5\xbcdy'
p509
(dp510
S'NOUN'
p511
F0.008932
sS'ADJ'
p512
F0.9910680000000002
s(lp513
g70
atp514
a(S'musi'
p515
(dp516
S'VERB'
p517
F1.0
s(lp518
g77
atp519
a(S'to'
p520
(dp521
S'NOUN'
p522
F0.080979
sS'ADP'
p523
F1e-06
sS'PRT'
p524
F0.101125
sg403
F0.0
sS'CONJ'
p525
F0.017815
sS'ADJ'
p526
F0.800079
s(lp527
g84
atp528
a(S'uszanowa\xc4\x87'
p529
(dp530
S'ADJ'
p531
F6.6e-05
sS'VERB'
p532
F0.999566
sS'NOUN'
p533
F0.000368
s(lp534
g90
atp535
a(g92
(dp536
g92
F1.0
s(lp537
g92
atp538
asS'sl'
p539
(lp540
(S'ta'
p541
(dp542
S'PRON'
p543
F1.0
s(lp544
g7
atp545
a(S'okvir'
p546
(dp547
S'NOUN'
p548
F1.0
s(lp549
g14
atp550
a(S'je'
p551
(dp552
S'PRON'
p553
F0.000201
sS'VERB'
p554
F0.9997400000000001
sg403
F5.9e-05
s(lp555
g22
atp556
a(S'del'
p557
(dp558
g403
F5.2e-05
sS'VERB'
p559
F0.007037
sS'NOUN'
p560
F0.99291
s(lp561
g30
atp562
a(S'pravnega'
p563
(dp564
S'ADJ'
p565
F1.0
s(lp566
tp567
a(S'reda'
p568
(dp569
S'NOUN'
p570
F1.0
s(lp571
g52
atp572
a(S'skupnosti'
p573
(dp574
S'NOUN'
p575
F1.0
s(lp576
g58
atp577
a(S'in'
p578
(dp579
S'ADV'
p580
F2.5e-05
sg403
F3e-06
sS'CONJ'
p581
F0.999972
sS'NOUN'
p582
F0.0
s(lp583
g64
atp584
a(S'vsi'
p585
(dp586
S'PRON'
p587
F1.0
s(lp588
g70
atp589
a(S'ga'
p590
(dp591
S'PRON'
p592
F1.0
s(lp593
g84
atp594
a(S'moramo'
p595
(dp596
S'VERB'
p597
F1.0
s(lp598
g77
atp599
a(S'spo\xc5\xa1tovati'
p600
(dp601
S'VERB'
p602
F1.0
s(lp603
g90
atp604
a(g92
(dp605
g92
F1.0
s(lp606
g92
atp607
asS'es'
p608
(lp609
(S'este'
p610
(dp611
S'PRON'
p612
F0.999963
sS'NOUN'
p613
F3.7e-05
s(lp614
g7
atp615
a(S'marco'
p616
(dp617
S'NOUN'
p618
F1.0
s(lp619
g14
atp620
a(S'forma'
p621
(dp622
S'VERB'
p623
F0.313844
sS'NOUN'
p624
F0.686156
s(lp625
g22
atp626
a(S'parte'
p627
(dp628
S'VERB'
p629
F0.003039
sS'NOUN'
p630
F0.996961
s(lp631
g30
atp632
a(S'del'
p633
(dp634
S'ADP'
p635
F1.0
s(lp636
g36
atp637
a(S'acervo'
p638
(dp639
S'NOUN'
p640
F1.0
s(lp641
g52
atp642
a(S'comunitario'
p643
(dp644
S'ADJ'
p645
F1.0
s(lp646
g58
atp647
a(S'y'
p648
(dp649
g403
F5e-06
sS'CONJ'
p650
F0.999995
s(lp651
g64
atp652
a(S'todos'
p653
(dp654
S'ADJ'
p655
F1.0
s(lp656
g70
atp657
a(S'tienen'
p658
(dp659
S'VERB'
p660
F1.0
s(lp661
tp662
a(S'que'
p663
(dp664
S'VERB'
p665
F1.0
s(lp666
g77
atp667
a(S'respetarlo'
p668
(dp669
S'VERB'
p670
F1.0
s(lp671
g90
atp672
a(g92
(dp673
g92
F1.0
s(lp674
g92
atp675
as.