(dp0
S'fr'
p1
(lp2
(S'voil\xc3\xa0'
p3
(dp4
S'ADV'
p5
F1.0
s(lp6
S'that'
p7
atp8
a(S'n\xc3\xa9anmoins'
p9
(dp10
S'ADV'
p11
F1.0
s(lp12
S'however'
p13
atp14
a(S'toute'
p15
(dp16
S'ADV'
p17
F0.00308
sS'PRON'
p18
F0.99692
s(lp19
S'is'
p20
atp21
a(S"l'"
p22
(dp23
S'ADJ'
p24
F0.055902
sS'VERB'
p25
F0.26687399999999994
sS'NOUN'
p26
F0.677224
s(lp27
S'the'
p28
atp29
a(S'\xc3\xa9tendue'
p30
(dp31
S'VERB'
p32
F0.893013
sS'NOUN'
p33
F0.106987
s(lp34
S'extent'
p35
atp36
a(S'de'
p37
(dp38
S'ADP'
p39
F1.0
s(lp40
S'of'
p41
atp42
a(S'ce'
p43
(dp44
S'PRON'
p45
F1.0
s(lp46
S'that'
p47
atp48
a(S'consensus'
p49
(dp50
S'NOUN'
p51
F1.0
s(lp52
S'consensus'
p53
atp54
a(S','
p55
(dp56
S'.'
p57
F1.0
s(lp58
g55
atp59
a(S'parce'
p60
(dp61
S'CONJ'
p62
F1.0
s(lp63
tp64
a(S'que'
p65
(dp66
S'ADV'
p67
F0.045236
sS'PRON'
p68
F0.257947
sS'CONJ'
p69
F0.696817
s(lp70
S'because'
p71
atp72
a(g55
(dp73
g57
F1.0
s(lp74
g55
atp75
a(S'si'
p76
(dp77
S'ADV'
p78
F0.044591
sS'CONJ'
p79
F0.955346
sS'NOUN'
p80
F6.3e-05
s(lp81
S'if'
p82
atp83
a(S'nous'
p84
(dp85
S'PRON'
p86
F1.0
s(lp87
S'we'
p88
atp89
a(S'tentons'
p90
(dp91
S'VERB'
p92
F1.0
s(lp93
S'try'
p94
atp95
a(S"d'"
p96
(dp97
S'NOUN'
p98
F0.087886
sS'VERB'
p99
F0.7995690000000001
sS'ADJ'
p100
F0.112546
s(lp101
S'to'
p102
atp103
a(S'\xc3\xa9tablir'
p104
(dp105
S'VERB'
p106
F1.0
s(lp107
S'establish'
p108
atp109
a(S'quel'
p110
(dp111
S'PRON'
p112
F1.0
s(lp113
S'what'
p114
atp115
a(S'type'
p116
(dp117
S'VERB'
p118
F0.669431
sS'NOUN'
p119
F0.330569
s(lp120
S'kind'
p121
atp122
a(S'de'
p123
(dp124
S'ADP'
p125
F1.0
s(lp126
S'of'
p127
atp128
a(S'politique'
p129
(dp130
S'ADJ'
p131
F0.445355
sS'VERB'
p132
F0.000267
sS'NOUN'
p133
F0.554378
s(lp134
S'policy'
p135
atp136
a(S'industrielle'
p137
(dp138
S'NOUN'
p139
F0.376823
sS'ADJ'
p140
F0.623177
s(lp141
S'industrial'
p142
atp143
a(S'nous'
p144
(dp145
S'PRON'
p146
F1.0
s(lp147
S'we'
p148
atp149
a(S'd\xc3\xa9sirons'
p150
(dp151
S'VERB'
p152
F1.0
s(lp153
S'mean'
p154
atp155
a(S'et'
p156
(dp157
S'CONJ'
p158
F1.0
s(lp159
S'and'
p160
atp161
a(S'quels'
p162
(dp163
S'PRON'
p164
F1.0
s(lp165
S'which'
p166
atp167
a(S'sont'
p168
(dp169
S'VERB'
p170
F1.0
s(lp171
S'of'
p172
atp173
a(S'les'
p174
(dp175
S'PRON'
p176
F0.000124
sS'DET'
p177
F0.999843
sS'ADP'
p178
F3.3e-05
s(lp179
S'its'
p180
atp181
a(S'\xc3\xa9l\xc3\xa9ments'
p182
(dp183
S'NOUN'
p184
F1.0
s(lp185
tp186
a(S'constitutifs'
p187
(dp188
S'ADJ'
p189
F1.0
s(lp190
S'elements'
p191
atp192
a(S'\xc3\xa0'
p193
(dp194
S'ADP'
p195
F1.0
s(lp196
S'be'
p197
atp198
a(S'retenir'
p199
(dp200
S'VERB'
p201
F1.0
s(lp202
S'retained'
p203
atp204
a(g55
(dp205
g57
F1.0
s(lp206
g55
atp207
a(S'nous'
p208
(dp209
S'PRON'
p210
F1.0
s(lp211
S'we'
p212
atp213
a(S'serions'
p214
(dp215
S'VERB'
p216
F1.0
s(lp217
S'would'
p218
atp219
a(S'tous'
p220
(dp221
S'PRON'
p222
F0.997828
sS'NOUN'
p223
F0.002172
s(lp224
S'all'
p225
atp226
a(S'en'
p227
(dp228
S'PRON'
p229
F0.010441
sS'ADP'
p230
F0.989559
s(lp231
tp232
a(S'd\xc3\xa9saccord'
p233
(dp234
S'NOUN'
p235
F1.0
s(lp236
S'disagree'
p237
atp238
a(g57
(dp239
g57
F1.0
s(lp240
g57
atp241
asS'en'
p242
(lp243
(g7
(dp244
S'ADV'
p245
F0.008261
sS'DET'
p246
F0.991729
sS'ADP'
p247
F9e-06
s(lp248
g7
atp249
a(g20
(dp250
S'VERB'
p251
F1.0
s(lp252
g20
atp253
a(g28
(dp254
S'NOUN'
p255
F1e-06
sS'DET'
p256
F0.999999
s(lp257
g28
atp258
a(g35
(dp259
S'NOUN'
p260
F1.0
s(lp261
g35
atp262
a(g41
(dp263
S'ADP'
p264
F1.0
s(lp265
g41
atp266
a(g47
(dp267
S'ADV'
p268
F7.7e-05
sS'DET'
p269
F0.986565
sS'ADP'
p270
F0.013358
s(lp271
g47
atp272
a(g53
(dp273
S'NOUN'
p274
F1.0
s(lp275
g53
atp276
a(g55
(dp277
g57
F1.0
s(lp278
g55
atp279
a(g13
(dp280
S'ADV'
p281
F1.0
s(lp282
g13
atp283
a(g55
(dp284
g57
F1.0
s(lp285
g55
atp286
a(g71
(dp287
S'ADV'
p288
F0.223601
sS'ADP'
p289
F0.776399
s(lp290
g71
atp291
a(g55
(dp292
g57
F1.0
s(lp293
g55
atp294
a(g82
(dp295
S'ADP'
p296
F1.0
s(lp297
g82
atp298
a(g88
(dp299
S'PRON'
p300
F1.0
s(lp301
g88
atp302
a(S'were'
p303
(dp304
S'VERB'
p305
F1.0
s(lp306
g303
atp307
a(S'to'
p308
(dp309
S'ADV'
p310
F1e-06
sS'PRT'
p311
F0.999999
sS'ADP'
p312
F0.0
s(lp313
g308
atp314
a(g94
(dp315
S'VERB'
p316
F0.999743
sS'NOUN'
p317
F0.000257
s(lp318
g94
atp319
a(g102
(dp320
S'ADV'
p321
F0.0
sS'PRT'
p322
F1.0
sS'ADP'
p323
F0.0
s(lp324
g102
atp325
a(g108
(dp326
S'VERB'
p327
F1.0
s(lp328
g108
atp329
a(g114
(dp330
S'PRON'
p331
F0.967778
sS'DET'
p332
F0.032222
s(lp333
g114
atp334
a(g121
(dp335
S'ADV'
p336
F0.024403
sS'ADJ'
p337
F0.005109
sS'NOUN'
p338
F0.970488
s(lp339
g121
atp340
a(g127
(dp341
S'ADP'
p342
F1.0
s(lp343
g127
atp344
a(g142
(dp345
S'ADJ'
p346
F1.0
s(lp347
g142
atp348
a(g135
(dp349
S'NOUN'
p350
F1.0
s(lp351
g135
atp352
a(g148
(dp353
S'PRON'
p354
F1.0
s(lp355
g148
atp356
a(g154
(dp357
S'NOUN'
p358
F4.1e-05
sS'VERB'
p359
F0.999811
sS'ADJ'
p360
F0.000147
s(lp361
g154
atp362
a(g160
(dp363
S'CONJ'
p364
F0.9993
sS'NOUN'
p365
F0.0007
s(lp366
g160
atp367
a(g166
(dp368
S'DET'
p369
F1.0
s(lp370
g166
atp371
a(g172
(dp372
S'ADP'
p373
F1.0
s(lp374
g172
atp375
a(g180
(dp376
S'PRON'
p377
F1.0
s(lp378
g180
atp379
a(g191
(dp380
S'NOUN'
p381
F1.0
s(lp382
g191
atp383
a(S'should'
p384
(dp385
S'VERB'
p386
F1.0
s(lp387
g384
atp388
a(g197
(dp389
S'VERB'
p390
F1.0
s(lp391
g197
atp392
a(g203
(dp393
S'VERB'
p394
F0.997469
sS'ADJ'
p395
F0.002531
s(lp396
g203
atp397
a(S'in'
p398
(dp399
S'ADV'
p400
F0.000366
sS'PRT'
p401
F0.003788
sS'ADP'
p402
F0.995846
s(lp403
g398
atp404
a(S'the'
p405
(dp406
S'NOUN'
p407
F1e-06
sS'DET'
p408
F0.999999
s(lp409
g405
atp410
a(S'future'
p411
(dp412
S'ADJ'
p413
F0.229968
sS'NOUN'
p414
F0.770032
s(lp415
g411
atp416
a(g55
(dp417
g57
F1.0
s(lp418
g55
atp419
a(S'then'
p420
(dp421
S'ADV'
p422
F0.999937
sS'ADJ'
p423
F6.3e-05
s(lp424
g420
atp425
a(g212
(dp426
S'PRON'
p427
F1.0
s(lp428
g212
atp429
a(g218
(dp430
S'VERB'
p431
F1.0
s(lp432
g218
atp433
a(g225
(dp434
S'ADV'
p435
F0.990337
sS'DET'
p436
F0.009663
s(lp437
g225
atp438
a(g237
(dp439
S'VERB'
p440
F1.0
s(lp441
g237
atp442
a(g57
(dp443
g57
F1.0
s(lp444
g57
atp445
asS'nl'
p446
(lp447
(S'tot'
p448
(dp449
S'CONJ'
p450
F0.001333
sS'ADP'
p451
F0.998667
s(lp452
g7
atp453
a(S'daar'
p454
(dp455
S'ADV'
p456
F0.303813
sS'CONJ'
p457
F0.696187
s(lp458
g20
atp459
a(S'de'
p460
(dp461
S'DET'
p462
F1.0
s(lp463
g28
atp464
a(S'consensus'
p465
(dp466
S'NOUN'
p467
F1.0
s(lp468
g53
atp469
a(g55
(dp470
g57
F1.0
s(lp471
g55
atp472
a(S'want'
p473
(dp474
S'CONJ'
p475
F0.998442
sS'VERB'
p476
F0.001527
sS'NOUN'
p477
F3e-05
s(lp478
g71
atp479
a(S'als'
p480
(dp481
S'CONJ'
p482
F1.0
s(lp483
g82
atp484
a(S'we'
p485
(dp486
S'PRON'
p487
F1.0
s(lp488
g88
atp489
a(S'gaan'
p490
(dp491
S'VERB'
p492
F0.998376
sS'NOUN'
p493
F0.001625
s(lp494
g308
atp495
a(S'kijken'
p496
(dp497
S'VERB'
p498
F0.986777
sS'NOUN'
p499
F0.013223
s(lp500
g94
atp501
a(S'naar'
p502
(dp503
S'CONJ'
p504
F0.004742
sS'ADJ'
p505
F0.0
sS'ADP'
p506
F0.995258
s(lp507
g102
atp508
a(S'welk'
p509
(dp510
S'PRON'
p511
F1.000001
s(lp512
g114
atp513
a(S'industriebeleid'
p514
(dp515
S'NOUN'
p516
F1.0
s(lp517
g142
atp518
a(S'en'
p519
(dp520
S'CONJ'
p521
F1.0
s(lp522
g160
atp523
a(S'welke'
p524
(dp525
S'PRON'
p526
F0.9999999999999999
s(lp527
g166
atp528
a(S'daar'
p529
(dp530
S'ADV'
p531
F0.695158
sS'CONJ'
p532
F0.304842
s(lp533
g148
atp534
a(S'de'
p535
(dp536
S'DET'
p537
F1.0
s(lp538
g180
atp539
a(S'elementen'
p540
(dp541
S'NOUN'
p542
F1.0
s(lp543
g191
atp544
a(S'van'
p545
(dp546
S'ADP'
p547
F1.0
s(lp548
g172
atp549
a(S'moeten'
p550
(dp551
S'VERB'
p552
F0.9090860000000001
sS'NOUN'
p553
F0.090915
s(lp554
g384
atp555
a(S'zijn'
p556
(dp557
S'PRON'
p558
F0.013873
sS'VERB'
p559
F0.9854040000000001
sS'NOUN'
p560
F0.000722
s(lp561
g197
atp562
a(S'in'
p563
(dp564
S'ADV'
p565
F0.001605
sS'VERB'
p566
F0.0
sS'ADP'
p567
F0.998395
s(lp568
g398
atp569
a(S'de'
p570
(dp571
S'DET'
p572
F1.0
s(lp573
g405
atp574
a(S'toekomst'
p575
(dp576
S'NOUN'
p577
F1.0
s(lp578
g411
atp579
a(g55
(dp580
g57
F1.0
s(lp581
g55
atp582
a(S'dan'
p583
(dp584
S'ADV'
p585
F0.84591
sS'CONJ'
p586
F0.15409
s(lp587
g420
atp588
a(S'zullen'
p589
(dp590
S'VERB'
p591
F0.999995
sS'NOUN'
p592
F5e-06
s(lp593
g218
atp594
a(S'we'
p595
(dp596
S'PRON'
p597
F1.0
s(lp598
g212
atp599
a(S'al'
p600
(dp601
S'ADV'
p602
F0.983226
sS'PRON'
p603
F0.010606
sS'CONJ'
p604
F0.006168
s(lp605
g225
atp606
a(S'van'
p607
(dp608
S'ADP'
p609
F1.0
s(lp610
tp611
a(S'mening'
p612
(dp613
S'NOUN'
p614
F1.0
s(lp615
tp616
a(S'verschillen'
p617
(dp618
S'VERB'
p619
F0.9961990000000001
sS'NOUN'
p620
F0.0038
s(lp621
g237
atp622
a(g57
(dp623
g57
F1.0
s(lp624
g57
atp625
asS'de'
p626
(lp627
(S'da'
p628
(dp629
S'ADV'
p630
F0.927064
sS'CONJ'
p631
F0.072714
s(lp632
g7
atp633
a(S'h\xc3\xb6rt'
p634
(dp635
S'VERB'
p636
F1.0
s(lp637
g35
atp638
a(S'der'
p639
(dp640
S'PRON'
p641
F0.001137
sS'DET'
p642
F0.998859
s(lp643
g41
atp644
a(S'konsens'
p645
(dp646
S'NOUN'
p647
F0.938716
s(lp648
g53
atp649
a(S'allerdings'
p650
(dp651
S'ADV'
p652
F1.0
s(lp653
g13
atp654
a(S'schon'
p655
(dp656
S'ADV'
p657
F1.0
sS'VERB'
p658
F0.0
s(lp659
tp660
a(S'auf'
p661
(dp662
S'ADV'
p663
F0.000247
sS'PRT'
p664
F0.999701
s(lp665
tp666
a(g55
(dp667
g57
F1.0
s(lp668
g55
atp669
a(S'denn'
p670
(dp671
S'ADV'
p672
F0.100917
sS'CONJ'
p673
F0.899083
s(lp674
g71
atp675
a(S'w\xc3\xbcrden'
p676
(dp677
S'VERB'
p678
F1.0
s(lp679
g82
atp680
a(S'wir'
p681
(dp682
S'PRON'
p683
F1.0
s(lp684
g88
atp685
a(S'versuchen'
p686
(dp687
S'VERB'
p688
F1.0
s(lp689
g94
atp690
a(S'festzulegen'
p691
(dp692
S'VERB'
p693
F1.0
s(lp694
g108
atp695
a(g55
(dp696
g57
F1.0
s(lp697
g102
atp698
a(S'welche'
p699
(dp700
S'PRON'
p701
F0.877717
s(lp702
g114
atp703
a(S'art'
p704
(dp705
S'X'
p706
F1.0
s(lp707
g121
atp708
a(S'von'
p709
(dp710
S'NOUN'
p711
F0.150875
sS'ADP'
p712
F0.849125
s(lp713
g127
atp714
a(S'industriepolitik'
p715
(dp716
S'VERB'
p717
F0.140056
sS'NOUN'
p718
F0.670015
s(lp719
g142
atp720
a(S'wir'
p721
(dp722
S'PRON'
p723
F1.0
s(lp724
g148
atp725
a(S'meinen'
p726
(dp727
S'VERB'
p728
F0.994221
s(lp729
g154
atp730
a(S'und'
p731
(dp732
S'CONJ'
p733
F1.0
s(lp734
g160
atp735
a(S'welche'
p736
(dp737
S'PRON'
p738
F0.8942289999999999
s(lp739
g166
atp740
a(S'aspekte'
p741
(dp742
S'ADJ'
p743
F0.050532
sS'NOUN'
p744
F0.89756
s(lp745
g191
atp746
a(S'zuk\xc3\xbcnftig'
p747
(dp748
S'ADJ'
p749
F1.0
s(lp750
g411
atp751
a(S'beibehalten'
p752
(dp753
S'VERB'
p754
F1.0
s(lp755
g203
atp756
a(S'werden'
p757
(dp758
S'VERB'
p759
F0.999973
s(lp760
g197
atp761
a(S'sollen'
p762
(dp763
S'VERB'
p764
F0.999826
s(lp765
g384
atp766
a(g55
(dp767
g57
F1.0
s(lp768
g55
atp769
a(S'w\xc3\xa4ren'
p770
(dp771
S'VERB'
p772
F1.0
s(lp773
g218
atp774
a(S'wir'
p775
(dp776
S'PRON'
p777
F1.0
s(lp778
g212
atp779
a(S'alle'
p780
(dp781
S'PRON'
p782
F1.0
s(lp783
g225
atp784
a(S'unterschiedlicher'
p785
(dp786
S'ADJ'
p787
F1.0
s(lp788
tp789
a(S'meinung'
p790
(dp791
S'ADJ'
p792
F0.006657
sS'NOUN'
p793
F0.992393
s(lp794
g237
atp795
a(g57
(dp796
g57
F1.0
s(lp797
g57
atp798
asS'it'
p799
(lp800
(S'tuttavia'
p801
(dp802
S'ADV'
p803
F1.0
s(lp804
g13
atp805
a(g55
(dp806
g57
F1.0
s(lp807
g55
atp808
a(S'tale'
p809
(dp810
S'PRON'
p811
F0.981355
sS'CONJ'
p812
F0.018438
sS'NOUN'
p813
F0.000207
s(lp814
g47
atp815
a(S'consenso'
p816
(dp817
S'NOUN'
p818
F1.0
s(lp819
tp820
a(S'non'
p821
(dp822
S'ADV'
p823
F1.0
s(lp824
g7
atp825
a(S'si'
p826
(dp827
S'PRON'
p828
F0.999995
sS'NOUN'
p829
F4e-06
s(lp830
g20
atp831
a(S'estende'
p832
(dp833
S'VERB'
p834
F1.0
s(lp835
g53
atp836
a(S'oltre'
p837
(dp838
S'ADV'
p839
F0.99962
sS'CONJ'
p840
F0.000344
sS'ADP'
p841
F3.6e-05
s(lp842
g71
atp843
a(g57
(dp844
g57
F1.0
s(lp845
g55
atp846
a(S'se'
p847
(dp848
S'PRON'
p849
F0.008939
sS'CONJ'
p850
F0.991044
sS'NOUN'
p851
F1.7e-05
s(lp852
g82
atp853
a(S'tentassimo'
p854
(dp855
S'VERB'
p856
F1.0
s(lp857
g94
atp858
a(S'di'
p859
(dp860
S'CONJ'
p861
F1e-06
sS'ADP'
p862
F0.999999
s(lp863
g102
atp864
a(S'stabilire'
p865
(dp866
S'VERB'
p867
F1.0
s(lp868
g108
atp869
a(S'quale'
p870
(dp871
S'PRON'
p872
F0.929027
sS'ADJ'
p873
F0.070974
s(lp874
g114
atp875
a(S'genere'
p876
(dp877
S'NOUN'
p878
F1.0
s(lp879
g121
atp880
a(S'di'
p881
(dp882
S'CONJ'
p883
F5e-06
sS'ADP'
p884
F0.999995
s(lp885
g127
atp886
a(S'politica'
p887
(dp888
S'ADJ'
p889
F0.07473
sS'NOUN'
p890
F0.92527
s(lp891
g135
atp892
a(S'industriale'
p893
(dp894
S'NOUN'
p895
F0.004425
sS'VERB'
p896
F0.0
sS'ADJ'
p897
F0.995575
s(lp898
g142
atp899
a(S'intendiamo'
p900
(dp901
S'VERB'
p902
F1.0
s(lp903
tp904
a(S'sostenere'
p905
(dp906
S'VERB'
p907
F1.0
s(lp908
g154
atp909
a(S'e'
p910
(dp911
S'CONJ'
p912
F1.0
s(lp913
g160
atp914
a(S'quali'
p915
(dp916
S'PRON'
p917
F0.976182
sS'ADJ'
p918
F0.023818
s(lp919
g166
atp920
a(S'delle'
p921
(dp922
S'DEF'
p923
F0.002578
sS'ADP'
p924
F0.997422
s(lp925
g172
atp926
a(S'sue'
p927
(dp928
S'PRON'
p929
F1.0
s(lp930
g180
atp931
a(S'componenti'
p932
(dp933
S'ADJ'
p934
F0.099663
sS'VERB'
p935
F1.8e-05
sS'NOUN'
p936
F0.900319
s(lp937
g191
atp938
a(S'riteniamo'
p939
(dp940
S'VERB'
p941
F1.0
s(lp942
g148
atp943
a(S'debbano'
p944
(dp945
S'VERB'
p946
F1.0
s(lp947
g384
atp948
a(S'essere'
p949
(dp950
S'VERB'
p951
F0.999975
sS'NOUN'
p952
F2.5e-05
s(lp953
g197
atp954
a(S'preservate'
p955
(dp956
S'VERB'
p957
F1.0
s(lp958
g203
atp959
a(S'in'
p960
(dp961
S'ADP'
p962
F1.0
s(lp963
g398
atp964
a(S'futuro'
p965
(dp966
S'ADJ'
p967
F0.061493
sS'NOUN'
p968
F0.938507
s(lp969
g411
atp970
a(S'ci'
p971
(dp972
S'ADV'
p973
F0.008861
sS'PRON'
p974
F0.9879330000000001
sS'NOUN'
p975
F0.003206
s(lp976
g212
atp977
a(S'troveremmo'
p978
(dp979
S'VERB'
p980
F1.0
s(lp981
g218
atp982
a(S'in'
p983
(dp984
S'ADP'
p985
F1.0
s(lp986
g237
atp987
a(S'forte'
p988
(dp989
S'ADV'
p990
F0.002474
sS'NOUN'
p991
F0.002709
sS'ADJ'
p992
F0.994817
s(lp993
tp994
a(S'disaccordo'
p995
(dp996
S'NOUN'
p997
F1.0
s(lp998
g237
atp999
a(g57
(dp1000
g57
F1.0
s(lp1001
g57
atp1002
asS'sk'
p1003
(lp1004
(S'to'
p1005
(dp1006
S'PRON'
p1007
F0.966591
sS'CONJ'
p1008
F0.007314
sg706
F0.026096
s(lp1009
g7
atp1010
a(S'je'
p1011
(dp1012
g706
F2.8e-05
sS'VERB'
p1013
F0.999953
sS'PRON'
p1014
F1.9e-05
s(lp1015
g20
atp1016
a(S'v\xc5\xa1ak'
p1017
(dp1018
g706
F0.938017
sS'CONJ'
p1019
F0.061983
s(lp1020
g13
atp1021
a(S'cel\xc3\xbd'
p1022
(dp1023
S'ADJ'
p1024
F1.0
s(lp1025
tp1026
a(S'rozsah'
p1027
(dp1028
S'NOUN'
p1029
F1.0
s(lp1030
g35
atp1031
a(S'spom\xc3\xadnanej'
p1032
(dp1033
S'VERB'
p1034
F1.0
s(lp1035
tp1036
a(S'zhody'
p1037
(dp1038
S'NOUN'
p1039
F1.0
s(lp1040
g53
atp1041
a(g55
(dp1042
g57
F1.0
s(lp1043
g55
atp1044
a(S'preto\xc5\xbee'
p1045
(dp1046
S'CONJ'
p1047
F1.0
s(lp1048
g71
atp1049
a(S'keby'
p1050
(dp1051
g706
F0.001233
sS'CONJ'
p1052
F0.998767
s(lp1053
g82
atp1054
a(S'sme'
p1055
(dp1056
g706
F0.0
sS'VERB'
p1057
F1.0
s(lp1058
g88
atp1059
a(S'sa'
p1060
(dp1061
S'PRT'
p1062
F0.999987
sS'ADP'
p1063
F0.0
sg706
F1.2e-05
s(lp1064
tp1065
a(S'pok\xc3\xbasili'
p1066
(dp1067
S'VERB'
p1068
F0.9999999999999999
s(lp1069
g94
atp1070
a(S'ur\xc4\x8di\xc5\xa5'
p1071
(dp1072
S'VERB'
p1073
F1.0
s(lp1074
g108
atp1075
a(g55
(dp1076
g57
F1.0
s(lp1077
tp1078
a(S'ak\xc3\xba'
p1079
(dp1080
S'PRON'
p1081
F1.0
s(lp1082
g121
atp1083
a(S'priemyseln\xc3\xba'
p1084
(dp1085
S'ADJ'
p1086
F1.0
s(lp1087
g142
atp1088
a(S'politiku'
p1089
(dp1090
S'NOUN'
p1091
F1.0
s(lp1092
g135
atp1093
a(S'm\xc3\xa1me'
p1094
(dp1095
S'ADV'
p1096
F0.019047
sg706
F0.007729
sS'VERB'
p1097
F0.973224
s(lp1098
g148
atp1099
a(S'na'
p1100
(dp1101
g706
F0.000302
sS'CONJ'
p1102
F5e-06
sS'ADP'
p1103
F0.999671
sS'PRT'
p1104
F2.1e-05
s(lp1105
g102
atp1106
a(S'mysli'
p1107
(dp1108
S'VERB'
p1109
F5e-06
sS'NOUN'
p1110
F0.999995
s(lp1111
g154
atp1112
a(S'a'
p1113
(dp1114
g706
F0.000443
sS'CONJ'
p1115
F0.999166
sS'NOUN'
p1116
F3.6e-05
sS'ADP'
p1117
F0.000299
sS'PRT'
p1118
F5.6e-05
s(lp1119
g160
atp1120
a(S'ktor\xc3\xa9'
p1121
(dp1122
S'PRON'
p1123
F1.0
s(lp1124
g166
atp1125
a(S'z'
p1126
(dp1127
g706
F2.8e-05
sS'NOUN'
p1128
F7e-05
sS'ADP'
p1129
F0.999902
s(lp1130
g172
atp1131
a(S'jej'
p1132
(dp1133
S'PRON'
p1134
F1.0
sg706
F0.0
s(lp1135
g180
atp1136
a(S'prvkov'
p1137
(dp1138
S'NOUN'
p1139
F1.0
s(lp1140
g191
atp1141
a(S'treba'
p1142
(dp1143
S'ADV'
p1144
F1.0
s(lp1145
g197
atp1146
a(S'zachova\xc5\xa5'
p1147
(dp1148
S'VERB'
p1149
F1.0
s(lp1150
g203
atp1151
a(S'do'
p1152
(dp1153
S'PRON'
p1154
F0.000127
sS'ADP'
p1155
F0.999754
sg706
F0.00011800000000000001
s(lp1156
g398
atp1157
a(S'bud\xc3\xbacnosti'
p1158
(dp1159
S'NOUN'
p1160
F1.0
s(lp1161
g411
atp1162
a(g55
(dp1163
g57
F1.0
s(lp1164
g55
atp1165
a(S'v\xc5\xa1etci'
p1166
(dp1167
S'PRON'
p1168
F1.0
s(lp1169
g225
atp1170
a(S'by'
p1171
(dp1172
S'PRT'
p1173
F0.999999
sg706
F0.0
s(lp1174
g218
atp1175
a(S'sme'
p1176
(dp1177
g706
F1e-06
sS'VERB'
p1178
F0.999999
s(lp1179
g212
atp1180
a(S'si'
p1181
(dp1182
S'PRT'
p1183
F0.999999
sS'VERB'
p1184
F0.0
sg706
F1e-06
s(lp1185
tp1186
a(S'za\xc4\x8dali'
p1187
(dp1188
S'VERB'
p1189
F1.0
s(lp1190
tp1191
a(S'protire\xc4\x8di\xc5\xa5'
p1192
(dp1193
S'VERB'
p1194
F1.0
s(lp1195
g237
atp1196
a(g57
(dp1197
g57
F1.0
s(lp1198
g57
atp1199
asS'pl'
p1200
(lp1201
(S'taki'
p1202
(dp1203
S'ADJ'
p1204
F1.0
s(lp1205
g7
atp1206
a(S'jest'
p1207
(dp1208
S'VERB'
p1209
F1.0
s(lp1210
g20
atp1211
a(S'jednak'
p1212
(dp1213
S'PRT'
p1214
F0.257253
sS'CONJ'
p1215
F0.742747
s(lp1216
g13
atp1217
a(S'zakres'
p1218
(dp1219
S'NOUN'
p1220
F1.0
s(lp1221
g35
atp1222
a(S'tego'
p1223
(dp1224
S'NOUN'
p1225
F0.074852
sS'ADJ'
p1226
F0.925113
sS'PRT'
p1227
F1e-06
sg706
F3.4e-05
s(lp1228
g47
atp1229
a(S'konsensusu'
p1230
(dp1231
S'NOUN'
p1232
F1.0
s(lp1233
g53
atp1234
a(g55
(dp1235
g706
F0.0
sg57
F1.0
s(lp1236
g55
atp1237
a(S'poniewa\xc5\xbc'
p1238
(dp1239
S'CONJ'
p1240
F1.0
s(lp1241
g71
atp1242
a(S'gdyby\xc5\x9bmy'
p1243
(dp1244
S'NOUN'
p1245
F0.007894000000000002
sS'CONJ'
p1246
F0.055785
sS'VERB'
p1247
F0.18643599999999996
sS'ADJ'
p1248
F0.749886
s(lp1249
g82
atp1250
a(S'starali'
p1251
(dp1252
S'VERB'
p1253
F1.0
s(lp1254
tp1255
a(S'si\xc4\x99'
p1256
(dp1257
S'PRT'
p1258
F1.0
s(lp1259
g94
atp1260
a(S'ustali\xc4\x87'
p1261
(dp1262
S'VERB'
p1263
F1.0
s(lp1264
g108
atp1265
a(g55
(dp1266
g706
F0.0
sg57
F1.0
s(lp1267
tp1268
a(S'o'
p1269
(dp1270
g706
F0.053621999999999996
sS'VERB'
p1271
F0.000241
sS'NOUN'
p1272
F1e-05
sS'ADP'
p1273
F0.946087
sS'PRT'
p1274
F4.1e-05
s(lp1275
tp1276
a(S'jaki'
p1277
(dp1278
S'ADJ'
p1279
F1.000001
s(lp1280
g114
atp1281
a(S'rodzaj'
p1282
(dp1283
S'NOUN'
p1284
F1.0
s(lp1285
g121
atp1286
a(S'polityki'
p1287
(dp1288
S'NOUN'
p1289
F1.0
s(lp1290
g135
atp1291
a(S'przemys\xc5\x82owej'
p1292
(dp1293
S'ADJ'
p1294
F1.0
s(lp1295
g142
atp1296
a(S'nam'
p1297
(dp1298
S'PRON'
p1299
F1.0
s(lp1300
g148
atp1301
a(S'chodzi'
p1302
(dp1303
S'VERB'
p1304
F1.0
s(lp1305
g154
atp1306
a(g55
(dp1307
g706
F0.0
sg57
F1.0
s(lp1308
tp1309
a(S'czy'
p1310
(dp1311
S'PRT'
p1312
F0.193026
sS'CONJ'
p1313
F0.804496
sS'NUM'
p1314
F0.002474
sS'NOUN'
p1315
F3e-06
s(lp1316
g160
atp1317
a(S'jakie'
p1318
(dp1319
S'ADJ'
p1320
F1.000001
s(lp1321
g166
atp1322
a(S'jej'
p1323
(dp1324
S'PRON'
p1325
F0.999994
sg706
F6e-06
s(lp1326
g180
atp1327
a(S'elementy'
p1328
(dp1329
S'NOUN'
p1330
F1.0
s(lp1331
g191
atp1332
a(S'nale\xc5\xbca\xc5\x82oby'
p1333
(dp1334
S'ADV'
p1335
F0.012751
sS'NOUN'
p1336
F0.5395960000000001
sS'PRT'
p1337
F0.049492
sS'VERB'
p1338
F0.330113
sS'CONJ'
p1339
F0.064827
sS'ADJ'
p1340
F0.0032199999999999998
s(lp1341
g384
atp1342
a(S'zachowa\xc4\x87'
p1343
(dp1344
S'VERB'
p1345
F1.0
s(lp1346
g203
atp1347
a(S'w'
p1348
(dp1349
S'NOUN'
p1350
F0.0
sS'ADJ'
p1351
F1.6e-05
sS'ADP'
p1352
F0.9999830000000001
sg706
F0.0
s(lp1353
g398
atp1354
a(S'przysz\xc5\x82o\xc5\x9bci'
p1355
(dp1356
S'NOUN'
p1357
F0.9999999999999999
s(lp1358
g411
atp1359
a(g55
(dp1360
g706
F0.0
sg57
F1.0
s(lp1361
g55
atp1362
a(S'wszyscy'
p1363
(dp1364
S'NOUN'
p1365
F0.482419
sS'ADJ'
p1366
F0.517581
s(lp1367
g225
atp1368
a(S'mieliby\xc5\x9bmy'
p1369
(dp1370
S'ADJ'
p1371
F0.000847
sS'VERB'
p1372
F0.9896460000000001
sS'NOUN'
p1373
F0.009509
s(lp1374
g237
atp1375
a(S'na'
p1376
(dp1377
S'PRT'
p1378
F2.1e-05
sS'VERB'
p1379
F2e-06
sS'NOUN'
p1380
F0.0
sS'ADP'
p1381
F0.999968
sg706
F9e-06
s(lp1382
g28
atp1383
a(S'ten'
p1384
(dp1385
g706
F1e-05
sS'ADJ'
p1386
F0.999989
sS'PRT'
p1387
F1e-06
s(lp1388
tp1389
a(S'temat'
p1390
(dp1391
S'NOUN'
p1392
F1.0
s(lp1393
g28
atp1394
a(S'odmienne'
p1395
(dp1396
S'ADJ'
p1397
F1.0
s(lp1398
tp1399
a(S'zdanie'
p1400
(dp1401
S'VERB'
p1402
F0.001858
sS'NOUN'
p1403
F0.9981420000000001
s(lp1404
g237
atp1405
a(g57
(dp1406
g57
F1.0
s(lp1407
g57
atp1408
asS'sl'
p1409
(lp1410
(S'to'
p1411
(dp1412
S'PRON'
p1413
F0.9999349999999999
sg706
F6.5e-05
s(lp1414
g7
atp1415
a(S'je'
p1416
(dp1417
S'PRON'
p1418
F0.000165
sS'VERB'
p1419
F0.99983
sg706
F5e-06
s(lp1420
g20
atp1421
a(S'obseg'
p1422
(dp1423
S'NOUN'
p1424
F1.0
s(lp1425
g35
atp1426
a(S'tega'
p1427
(dp1428
S'PRON'
p1429
F1.0
s(lp1430
g47
atp1431
a(S'soglasja'
p1432
(dp1433
S'NOUN'
p1434
F1.0
s(lp1435
g53
atp1436
a(g55
(dp1437
g57
F1.0
s(lp1438
g55
atp1439
a(S'kajti'
p1440
(dp1441
S'CONJ'
p1442
F1.0
s(lp1443
g71
atp1444
a(S'\xc4\x8de'
p1445
(dp1446
S'CONJ'
p1447
F1.0
s(lp1448
g82
atp1449
a(S'bi'
p1450
(dp1451
g706
F2e-06
sS'VERB'
p1452
F0.999998
s(lp1453
g303
atp1454
a(S'poskusili'
p1455
(dp1456
S'VERB'
p1457
F1.0
s(lp1458
g94
atp1459
a(S'ugotoviti'
p1460
(dp1461
S'VERB'
p1462
F1.0
s(lp1463
g108
atp1464
a(g55
(dp1465
g57
F1.0
s(lp1466
tp1467
a(S'kak\xc5\xa1no'
p1468
(dp1469
S'PRON'
p1470
F1.0
s(lp1471
g114
atp1472
a(S'industrijsko'
p1473
(dp1474
S'ADV'
p1475
F0.000215
sS'ADJ'
p1476
F0.999785
s(lp1477
g142
atp1478
a(S'politiko'
p1479
(dp1480
S'NOUN'
p1481
F1.0
s(lp1482
g135
atp1483
a(S'mislimo'
p1484
(dp1485
S'VERB'
p1486
F1.0
s(lp1487
g154
atp1488
a(S'in'
p1489
(dp1490
S'ADV'
p1491
F1.8e-05
sg706
F8e-06
sS'CONJ'
p1492
F0.999972
sS'NOUN'
p1493
F1e-06
s(lp1494
g160
atp1495
a(S'katere'
p1496
(dp1497
S'PRON'
p1498
F0.999999
s(lp1499
g166
atp1500
a(S'njene'
p1501
(dp1502
S'PRON'
p1503
F1.0000010000000001
s(lp1504
g180
atp1505
a(S'elemente'
p1506
(dp1507
S'NOUN'
p1508
F1.0
s(lp1509
g191
atp1510
a(S'je'
p1511
(dp1512
S'PRON'
p1513
F0.000351
sS'VERB'
p1514
F0.999646
sg706
F3e-06
s(lp1515
g384
atp1516
a(S'treba'
p1517
(dp1518
S'ADV'
p1519
F1.0
s(lp1520
g197
atp1521
a(S'ohraniti'
p1522
(dp1523
S'VERB'
p1524
F1.0
s(lp1525
g203
atp1526
a(S'v'
p1527
(dp1528
S'ADP'
p1529
F1.0
s(lp1530
g398
atp1531
a(S'prihodnosti'
p1532
(dp1533
S'NOUN'
p1534
F1.0
s(lp1535
g411
atp1536
a(g55
(dp1537
g57
F1.0
s(lp1538
g55
atp1539
a(S'se'
p1540
(dp1541
S'PRON'
p1542
F0.999985
sg706
F1.5e-05
s(lp1543
g237
atp1544
a(S'ne'
p1545
(dp1546
S'PRT'
p1547
F0.99958
sS'CONJ'
p1548
F0.000417
sg706
F3e-06
s(lp1549
tp1550
a(S'bi'
p1551
(dp1552
g706
F0.0
sS'VERB'
p1553
F1.0
s(lp1554
g218
atp1555
a(S'strinjali'
p1556
(dp1557
S'VERB'
p1558
F1.0
s(lp1559
g237
atp1560
a(g57
(dp1561
g57
F1.0
s(lp1562
g57
atp1563
asS'es'
p1564
(lp1565
(S'sin'
p1566
(dp1567
S'ADV'
p1568
F1.0
s(lp1569
tp1570
a(S'embargo'
p1571
(dp1572
S'ADV'
p1573
F1.0
s(lp1574
g13
atp1575
a(g55
(dp1576
g57
F1.0
s(lp1577
g55
atp1578
a(S'el'
p1579
(dp1580
S'PRON'
p1581
F1e-05
sS'DET'
p1582
F0.99999
s(lp1583
g28
atp1584
a(S'consenso'
p1585
(dp1586
S'NOUN'
p1587
F1.0
s(lp1588
g53
atp1589
a(S'se'
p1590
(dp1591
S'PRON'
p1592
F1.0
sS'VERB'
p1593
F0.0
s(lp1594
g20
atp1595
a(S'limita'
p1596
(dp1597
S'VERB'
p1598
F1.0
s(lp1599
g35
atp1600
a(g1113
(dp1601
g706
F6e-06
sS'CONJ'
p1602
F6e-06
sS'ADP'
p1603
F0.999988
s(lp1604
g41
atp1605
a(S'eso'
p1606
(dp1607
S'PRON'
p1608
F1.0
s(lp1609
g47
atp1610
a(S'porque'
p1611
(dp1612
S'CONJ'
p1613
F1.0
s(lp1614
g71
atp1615
a(S'si'
p1616
(dp1617
S'CONJ'
p1618
F0.999548
sS'NOUN'
p1619
F0.000452
s(lp1620
g82
atp1621
a(S'trat\xc3\xa1ramos'
p1622
(dp1623
S'VERB'
p1624
F1.0
s(lp1625
g94
atp1626
a(S'de'
p1627
(dp1628
g706
F0.0
sS'CONJ'
p1629
F0.445224
sS'ADP'
p1630
F0.554775
s(lp1631
g102
atp1632
a(S'establecer'
p1633
(dp1634
S'VERB'
p1635
F1.0
s(lp1636
g108
atp1637
a(S'el'
p1638
(dp1639
S'PRON'
p1640
F0.0
sS'DET'
p1641
F1.0
s(lp1642
g114
atp1643
a(S'tipo'
p1644
(dp1645
S'NOUN'
p1646
F1.0
s(lp1647
g121
atp1648
a(S'de'
p1649
(dp1650
g706
F3.3e-05
sS'CONJ'
p1651
F0.000455
sS'ADP'
p1652
F0.999512
s(lp1653
g127
atp1654
a(S'pol\xc3\xadtica'
p1655
(dp1656
S'ADJ'
p1657
F0.015874
sS'NOUN'
p1658
F0.984126
s(lp1659
g135
atp1660
a(S'industrial'
p1661
(dp1662
S'ADJ'
p1663
F1.0
s(lp1664
g142
atp1665
a(S'al'
p1666
(dp1667
S'CONJ'
p1668
F0.044151
sS'ADP'
p1669
F0.955849
s(lp1670
tp1671
a(S'que'
p1672
(dp1673
g706
F0.0
sS'CONJ'
p1674
F1.0
s(lp1675
g7
atp1676
a(S'nos'
p1677
(dp1678
S'PRON'
p1679
F1.0
s(lp1680
g148
atp1681
a(S'referimos'
p1682
(dp1683
S'VERB'
p1684
F1.0
s(lp1685
g154
atp1686
a(S'y'
p1687
(dp1688
g706
F2e-06
sS'CONJ'
p1689
F0.999998
s(lp1690
g160
atp1691
a(S'qu\xc3\xa9'
p1692
(dp1693
S'PRON'
p1694
F1.0
s(lp1695
g166
atp1696
a(S'elementos'
p1697
(dp1698
S'NOUN'
p1699
F1.0
s(lp1700
g191
atp1701
a(S'se'
p1702
(dp1703
S'PRON'
p1704
F1.0
sS'VERB'
p1705
F0.0
s(lp1706
g197
atp1707
a(S'deber\xc3\xadan'
p1708
(dp1709
S'VERB'
p1710
F1.0
s(lp1711
g384
atp1712
a(S'conservar'
p1713
(dp1714
S'VERB'
p1715
F1.0
s(lp1716
g203
atp1717
a(S'en'
p1718
(dp1719
g706
F0.0
sS'CONJ'
p1720
F1e-06
sS'ADP'
p1721
F0.999999
s(lp1722
g398
atp1723
a(S'el'
p1724
(dp1725
S'PRON'
p1726
F3.5e-05
sS'DET'
p1727
F0.999965
s(lp1728
g405
atp1729
a(S'futuro'
p1730
(dp1731
S'ADJ'
p1732
F0.192115
sS'NOUN'
p1733
F0.807885
s(lp1734
g411
atp1735
a(g55
(dp1736
g57
F1.0
s(lp1737
g55
atp1738
a(S'entonces'
p1739
(dp1740
S'ADV'
p1741
F1.0
s(lp1742
g420
atp1743
a(S'discrepar\xc3\xadamos'
p1744
(dp1745
S'VERB'
p1746
F1.0
s(lp1747
g237
atp1748
a(g57
(dp1749
g57
F1.0
s(lp1750
g57
atp1751
as.