(dp0
S'fr'
p1
(lp2
(S'je'
p3
(dp4
S'PRON'
p5
F1.0
s(lp6
S'i'
p7
atp8
a(S'voudrais'
p9
(dp10
S'VERB'
p11
F1.0
s(lp12
S'like'
p13
atp14
a(S'\xc3\xa9galement'
p15
(dp16
S'ADV'
p17
F1.0
s(lp18
S'also'
p19
atp20
a(S'souligner'
p21
(dp22
S'VERB'
p23
F1.0
s(lp24
S'emphasise'
p25
atp26
a(S"qu'"
p27
(dp28
S'NOUN'
p29
F0.099944
sS'VERB'
p30
F0.7910849999999999
sS'ADJ'
p31
F0.108969
s(lp32
S'that'
p33
atp34
a(S'il'
p35
(dp36
S'PRON'
p37
F1.0
s(lp38
S'it'
p39
atp40
a(S"n'"
p41
(dp42
S'ADJ'
p43
F0.000625
sS'VERB'
p44
F0.9973000000000002
sS'NOUN'
p45
F0.002077
s(lp46
tp47
a(S'est'
p48
(dp49
S'VERB'
p50
F0.999313
sS'NOUN'
p51
F0.000687
s(lp52
S'is'
p53
atp54
a(S'pas'
p55
(dp56
S'ADV'
p57
F0.997488
sS'NOUN'
p58
F0.002512
s(lp59
S'not'
p60
atp61
a(S'vrai'
p62
(dp63
S'NOUN'
p64
F0.007061
sS'ADJ'
p65
F0.992939
s(lp66
S'true'
p67
atp68
a(S"qu'"
p69
(dp70
S'ADJ'
p71
F0.116469
sS'VERB'
p72
F0.20771900000000001
sS'NOUN'
p73
F0.675812
s(lp74
S'that'
p75
atp76
a(S'il'
p77
(dp78
S'PRON'
p79
F1.0
s(lp80
S'there'
p81
atp82
a(S"n'"
p83
(dp84
S'ADJ'
p85
F0.000625
sS'VERB'
p86
F0.9973000000000002
sS'NOUN'
p87
F0.002077
s(lp88
tp89
a(S'y'
p90
(dp91
S'PRON'
p92
F1.0
s(lp93
tp94
a(S'a'
p95
(dp96
S'VERB'
p97
F1.0
s(lp98
g81
atp99
a(S'pas'
p100
(dp101
S'ADV'
p102
F0.996431
sS'NOUN'
p103
F0.003569
s(lp104
S'no'
p105
atp106
a(S'de'
p107
(dp108
S'ADP'
p109
F1.0
s(lp110
tp111
a(S'd\xc3\xa9lais'
p112
(dp113
S'NOUN'
p114
F1.0
s(lp115
S'limits'
p116
atp117
a(S','
p118
(dp119
S'.'
p120
F1.0
s(lp121
g118
atp122
a(S'puisque'
p123
(dp124
S'CONJ'
p125
F1.0
s(lp126
S'since'
p127
atp128
a(S"l'"
p129
(dp130
S'NOUN'
p131
F0.050387
sS'VERB'
p132
F0.8915730000000001
sS'ADJ'
p133
F0.05804
s(lp134
S'the'
p135
atp136
a(S'exemption'
p137
(dp138
S'NOUN'
p139
F1.0
s(lp140
S'exemption'
p141
atp142
a(S'est'
p143
(dp144
S'VERB'
p145
F0.999909
sS'NOUN'
p146
F9.1e-05
s(lp147
S'is'
p148
atp149
a(S'r\xc3\xa9voqu\xc3\xa9e'
p150
(dp151
S'VERB'
p152
F1.0
s(lp153
S'revoked'
p154
atp155
a(S'd\xc3\xa8s'
p156
(dp157
S'ADP'
p158
F1.0
s(lp159
tp160
a(S"qu'"
p161
(dp162
S'ADJ'
p163
F0.408228
sS'VERB'
p164
F7.2e-05
sS'NOUN'
p165
F0.5917
s(lp166
S'when'
p167
atp168
a(S'un'
p169
(dp170
S'NOUN'
p171
F0.001389
sS'NUM'
p172
F0.026784
sS'DET'
p173
F0.971827
s(lp174
S'an'
p175
atp176
a(S'produit'
p177
(dp178
S'VERB'
p179
F0.005346
sS'NOUN'
p180
F0.994654
s(lp181
S'product'
p182
atp183
a(S'de'
p184
(dp185
S'ADP'
p186
F1.0
s(lp187
tp188
a(S'remplacement'
p189
(dp190
S'NOUN'
p191
F1.0
s(lp192
S'alternative'
p193
atp194
a(S'devient'
p195
(dp196
S'VERB'
p197
F1.0
s(lp198
S'becomes'
p199
atp200
a(S'disponible'
p201
(dp202
S'ADJ'
p203
F1.0
s(lp204
S'available'
p205
atp206
a(g120
(dp207
g120
F1.0
s(lp208
g120
atp209
asS'en'
p210
(lp211
(g7
(dp212
S'X'
p213
F0.024389
sS'NOUN'
p214
F0.97561
s(lp215
g7
atp216
a(S'would'
p217
(dp218
S'VERB'
p219
F1.0
s(lp220
g217
atp221
a(g19
(dp222
S'ADV'
p223
F1.0
s(lp224
g19
atp225
a(g13
(dp226
S'VERB'
p227
F0.442314
sS'ADJ'
p228
F0.045438
sS'ADP'
p229
F0.512248
s(lp230
g13
atp231
a(S'to'
p232
(dp233
S'ADV'
p234
F0.0
sS'PRT'
p235
F1.0
sS'ADP'
p236
F0.0
s(lp237
g232
atp238
a(g25
(dp239
S'VERB'
p240
F1.0
s(lp241
g25
atp242
a(g33
(dp243
S'ADV'
p244
F0.000238
sS'DET'
p245
F0.026508
sS'ADP'
p246
F0.973254
s(lp247
g33
atp248
a(g39
(dp249
S'PRON'
p250
F1.0
s(lp251
g39
atp252
a(g53
(dp253
S'VERB'
p254
F1.0
s(lp255
g53
atp256
a(g60
(dp257
S'ADV'
p258
F1.0
s(lp259
g60
atp260
a(g67
(dp261
S'ADV'
p262
F0.000292
sS'NOUN'
p263
F0.000446
sS'VERB'
p264
F0.00399
sS'ADJ'
p265
F0.995272
s(lp266
g67
atp267
a(g75
(dp268
S'ADV'
p269
F0.000185
sS'DET'
p270
F6e-06
sS'ADP'
p271
F0.999808
s(lp272
g75
atp273
a(g81
(dp274
S'ADV'
p275
F0.000151
sS'ADJ'
p276
F0.0
sS'DET'
p277
F0.999849
sS'ADP'
p278
F0.0
s(lp279
g81
atp280
a(S'are'
p281
(dp282
S'VERB'
p283
F1.0
sS'NOUN'
p284
F0.0
s(lp285
g281
atp286
a(g105
(dp287
S'ADV'
p288
F0.045113
sS'NOUN'
p289
F7e-06
sS'DET'
p290
F0.95488
sg213
F0.0
s(lp291
g105
atp292
a(S'time'
p293
(dp294
S'VERB'
p295
F0.000222
sS'NOUN'
p296
F0.999777
s(lp297
g293
atp298
a(g116
(dp299
S'VERB'
p300
F0.031828
sS'NOUN'
p301
F0.968172
s(lp302
g116
atp303
a(g118
(dp304
g120
F1.0
s(lp305
g118
atp306
a(g127
(dp307
S'ADV'
p308
F0.011221
sS'ADP'
p309
F0.988779
s(lp310
g127
atp311
a(g135
(dp312
S'NOUN'
p313
F1e-06
sS'DET'
p314
F0.999999
s(lp315
g135
atp316
a(g141
(dp317
S'NOUN'
p318
F1.0
s(lp319
g141
atp320
a(g148
(dp321
S'VERB'
p322
F1.0
s(lp323
g148
atp324
a(g154
(dp325
S'VERB'
p326
F1.0
s(lp327
g154
atp328
a(g167
(dp329
S'ADV'
p330
F0.9999039999999999
sS'ADP'
p331
F9.6e-05
s(lp332
g167
atp333
a(g175
(dp334
S'DET'
p335
F1.0
s(lp336
g175
atp337
a(g193
(dp338
S'NOUN'
p339
F0.320431
sS'ADJ'
p340
F0.679569
s(lp341
g193
atp342
a(g182
(dp343
S'NOUN'
p344
F1.0
s(lp345
g182
atp346
a(g199
(dp347
S'VERB'
p348
F1.0
s(lp349
g199
atp350
a(g205
(dp351
S'ADJ'
p352
F1.0
s(lp353
g205
atp354
a(g120
(dp355
g120
F1.0
s(lp356
g120
atp357
asS'nl'
p358
(lp359
(S'verder'
p360
(dp361
S'ADV'
p362
F0.005391
sS'ADJ'
p363
F0.994609
s(lp364
g19
atp365
a(S'wil'
p366
(dp367
S'VERB'
p368
F0.987053
sS'NOUN'
p369
F0.012947
s(lp370
g217
atp371
a(S'ik'
p372
(dp373
S'PRON'
p374
F0.999995
sS'NOUN'
p375
F5e-06
s(lp376
g7
atp377
a(S'graag'
p378
(dp379
S'ADV'
p380
F0.58406
sS'ADJ'
p381
F0.41594
s(lp382
g13
atp383
a(S'benadrukken'
p384
(dp385
S'VERB'
p386
F0.975742
sS'NOUN'
p387
F0.024259
s(lp388
g25
atp389
a(S'dat'
p390
(dp391
S'PRON'
p392
F0.024329999999999997
sS'CONJ'
p393
F0.975669
s(lp394
g33
atp395
a(S'het'
p396
(dp397
S'PRON'
p398
F0.8267340000000001
sS'DET'
p399
F0.173266
s(lp400
g39
atp401
a(S'niet'
p402
(dp403
S'ADV'
p404
F0.999996
sS'PRON'
p405
F4e-06
sS'VERB'
p406
F0.0
sg213
F0.0
s(lp407
g60
atp408
a(S'klopt'
p409
(dp410
S'VERB'
p411
F1.0
s(lp412
g67
atp413
a(S'dat'
p414
(dp415
S'PRON'
p416
F0.135186
sS'CONJ'
p417
F0.864815
s(lp418
g75
atp419
a(S'er'
p420
(dp421
S'ADV'
p422
F1.0
s(lp423
g81
atp424
a(S'geen'
p425
(dp426
S'PRON'
p427
F0.999943
sS'DET'
p428
F5.7e-05
s(lp429
g105
atp430
a(S'tijdslimieten'
p431
(dp432
S'NOUN'
p433
F1.0
s(lp434
g116
atp435
a(S'zijn'
p436
(dp437
S'PRON'
p438
F0.000878
sS'VERB'
p439
F0.999031
sS'NOUN'
p440
F9e-05
s(lp441
g281
atp442
a(g120
(dp443
g120
F1.0
s(lp444
g120
atp445
a(S'zodra'
p446
(dp447
S'CONJ'
p448
F1.0
s(lp449
g167
atp450
a(S'een'
p451
(dp452
S'ADJ'
p453
F1e-06
sS'PRON'
p454
F0.000612
sS'NUM'
p455
F1e-06
sS'DET'
p456
F0.999386
s(lp457
g175
atp458
a(S'alternatief'
p459
(dp460
S'NOUN'
p461
F0.006173
sS'ADJ'
p462
F0.993827
s(lp463
g193
atp464
a(S'product'
p465
(dp466
S'NOUN'
p467
F1.0
s(lp468
g182
atp469
a(S'beschikbaar'
p470
(dp471
S'ADJ'
p472
F1.0
s(lp473
g205
atp474
a(S'is'
p475
(dp476
S'VERB'
p477
F1.0
s(lp478
g199
atp479
a(g118
(dp480
g120
F1.0
s(lp481
g118
atp482
a(S'wordt'
p483
(dp484
S'VERB'
p485
F1.0
s(lp486
tp487
a(S'de'
p488
(dp489
S'DET'
p490
F1.0
s(lp491
g135
atp492
a(S'vrijstelling'
p493
(dp494
S'NOUN'
p495
F1.0
s(lp496
g141
atp497
a(S'namelijk'
p498
(dp499
S'ADV'
p500
F1.0
s(lp501
g148
atp502
a(S'ingetrokken'
p503
(dp504
S'VERB'
p505
F1.0
s(lp506
g154
atp507
a(g120
(dp508
g120
F1.0
s(lp509
g127
atp510
asS'de'
p511
(lp512
(S'ich'
p513
(dp514
S'PRON'
p515
F1.0
s(lp516
g7
atp517
a(S'm\xc3\xb6chte'
p518
(dp519
S'VERB'
p520
F1.0
s(lp521
g13
atp522
a(S'auch'
p523
(dp524
S'ADV'
p525
F1.0
s(lp526
g19
atp527
a(S'betonen'
p528
(dp529
S'VERB'
p530
F1.0
s(lp531
g25
atp532
a(g118
(dp533
g120
F1.0
s(lp534
tp535
a(S'dass'
p536
(dp537
S'CONJ'
p538
F1.0
s(lp539
g33
atp540
a(S'es'
p541
(dp542
S'PRON'
p543
F1.0
s(lp544
g39
atp545
a(S'nicht'
p546
(dp547
S'PRT'
p548
F1.0
s(lp549
g60
atp550
a(S'der'
p551
(dp552
S'PRON'
p553
F0.001707
sS'DET'
p554
F0.998224
s(lp555
tp556
a(S'wahrheit'
p557
(dp558
S'ADJ'
p559
F0.020266
sS'NOUN'
p560
F0.960968
s(lp561
tp562
a(S'entspricht'
p563
(dp564
S'VERB'
p565
F1.0
s(lp566
g67
atp567
a(g118
(dp568
g120
F1.0
s(lp569
tp570
a(S'dass'
p571
(dp572
S'CONJ'
p573
F1.0
s(lp574
g75
atp575
a(S'es'
p576
(dp577
S'PRON'
p578
F1.0
s(lp579
tp580
a(S'keine'
p581
(dp582
S'PRON'
p583
F1.0
s(lp584
g105
atp585
a(S'fristen'
p586
(dp587
S'VERB'
p588
F1.0
s(lp589
g116
atp590
a(S'gibt'
p591
(dp592
S'VERB'
p593
F1.0
s(lp594
g81
atp595
a(g118
(dp596
g120
F1.0
s(lp597
g118
atp598
a(S'da'
p599
(dp600
S'ADV'
p601
F0.079805
sS'CONJ'
p602
F0.920169
s(lp603
g127
atp604
a(S'die'
p605
(dp606
S'PRON'
p607
F0.000856
sS'DET'
p608
F0.999021
s(lp609
g135
atp610
a(S'ausnahmeregelung'
p611
(dp612
S'ADJ'
p613
F0.001276
sS'NOUN'
p614
F0.998421
s(lp615
g141
atp616
a(g118
(dp617
g120
F1.0
s(lp618
tp619
a(S'sobald'
p620
(dp621
S'CONJ'
p622
F1.0
s(lp623
g167
atp624
a(S'ein'
p625
(dp626
S'NUM'
p627
F0.000307
sS'DET'
p628
F0.999677
s(lp629
g175
atp630
a(S'alternativerzeugnis'
p631
(dp632
S'ADJ'
p633
F0.044752
sS'NOUN'
p634
F0.922786
s(lp635
g193
atp636
a(S'verf\xc3\xbcgbar'
p637
(dp638
S'ADJ'
p639
F1.0
s(lp640
g205
atp641
a(S'ist'
p642
(dp643
S'VERB'
p644
F1.0
s(lp645
g148
atp646
a(g118
(dp647
g120
F1.0
s(lp648
tp649
a(S'ung\xc3\xbcltig'
p650
(dp651
S'ADJ'
p652
F1.0
s(lp653
tp654
a(S'wird'
p655
(dp656
S'VERB'
p657
F1.0
s(lp658
g154
atp659
a(g120
(dp660
g120
F1.0
s(lp661
g120
atp662
asS'it'
p663
(lp664
(S'vorrei'
p665
(dp666
S'VERB'
p667
F1.0
s(lp668
g13
atp669
a(S'inoltre'
p670
(dp671
S'ADV'
p672
F1.0
s(lp673
g19
atp674
a(S'sottolineare'
p675
(dp676
S'VERB'
p677
F1.0
s(lp678
g25
atp679
a(S'che'
p680
(dp681
S'PRON'
p682
F0.983079
sS'CONJ'
p683
F0.016702
sS'ADJ'
p684
F0.000219
s(lp685
g33
atp686
a(S'non'
p687
(dp688
S'ADV'
p689
F1.0
s(lp690
g60
atp691
a(S'risponde'
p692
(dp693
S'VERB'
p694
F1.0
s(lp695
g53
atp696
a(g95
(dp697
S'CONJ'
p698
F8.4e-05
sS'ADP'
p699
F0.999916
s(lp700
g232
atp701
a(S'verit\xc3\xa0'
p702
(dp703
S'NOUN'
p704
F1.0
s(lp705
g67
atp706
a(S'che'
p707
(dp708
S'PRON'
p709
F0.751355
sS'CONJ'
p710
F0.24679
sS'ADJ'
p711
F0.001855
s(lp712
g75
atp713
a(S'non'
p714
(dp715
S'ADV'
p716
F1.0
s(lp717
g105
atp718
a(S'esistono'
p719
(dp720
S'VERB'
p721
F1.0
s(lp722
g81
atp723
a(S'limiti'
p724
(dp725
S'VERB'
p726
F0.013262000000000001
sS'NOUN'
p727
F0.986738
s(lp728
g116
atp729
a(S'di'
p730
(dp731
S'CONJ'
p732
F4e-06
sS'ADP'
p733
F0.999996
s(lp734
tp735
a(S'tempo'
p736
(dp737
S'NOUN'
p738
F1.0
s(lp739
g293
atp740
a(g118
(dp741
g120
F1.0
s(lp742
g118
atp743
a(S'visto'
p744
(dp745
S'CONJ'
p746
F0.841165
sS'VERB'
p747
F0.152272
sS'NOUN'
p748
F0.006563
s(lp749
tp750
a(S'che'
p751
(dp752
S'PRON'
p753
F0.882182
sS'CONJ'
p754
F0.113989
sS'ADJ'
p755
F0.003829
s(lp756
g127
atp757
a(S'quando'
p758
(dp759
S'ADV'
p760
F0.915992
sS'PRON'
p761
F0.009172
sS'CONJ'
p762
F0.074703
sS'NOUN'
p763
F0.000132
s(lp764
g167
atp765
a(S'un'
p766
(dp767
S'PRON'
p768
F0.001429
sS'DEF'
p769
F0.998571
s(lp770
g175
atp771
a(S'prodotto'
p772
(dp773
S'VERB'
p774
F0.001062
sS'NOUN'
p775
F0.998938
s(lp776
g182
atp777
a(S'sostitutivo'
p778
(dp779
S'ADJ'
p780
F1.0
s(lp781
g193
atp782
a(S'\xc3\xa8'
p783
(dp784
S'VERB'
p785
F1.0
s(lp786
g199
atp787
a(S'disponibile'
p788
(dp789
S'ADJ'
p790
F1.0
s(lp791
g205
atp792
a(S'la'
p793
(dp794
S'PRON'
p795
F6.5e-05
sS'DET'
p796
F0.999935
s(lp797
g135
atp798
a(S'deroga'
p799
(dp800
S'VERB'
p801
F0.00023700000000000001
sS'NOUN'
p802
F0.999764
s(lp803
g141
atp804
a(S'viene'
p805
(dp806
S'VERB'
p807
F1.0
s(lp808
g148
atp809
a(S'abrogata'
p810
(dp811
S'VERB'
p812
F1.0
s(lp813
g154
atp814
a(g120
(dp815
g120
F1.0
s(lp816
g120
atp817
asS'sk'
p818
(lp819
(S'tie\xc5\xbe'
p820
(dp821
g213
F1.0
s(lp822
g19
atp823
a(S'by'
p824
(dp825
S'PRT'
p826
F0.999998
sg213
F2e-06
s(lp827
g217
atp828
a(S'som'
p829
(dp830
S'VERB'
p831
F1.0
s(lp832
tp833
a(S'chcel'
p834
(dp835
S'VERB'
p836
F1.0
s(lp837
g13
atp838
a(S'zd\xc3\xb4razni\xc5\xa5'
p839
(dp840
S'VERB'
p841
F1.0
s(lp842
g25
atp843
a(g118
(dp844
g120
F1.0
s(lp845
g39
atp846
a(S'\xc5\xbee'
p847
(dp848
g213
F0.000849
sS'CONJ'
p849
F0.99915
s(lp850
g33
atp851
a(S'nie'
p852
(dp853
g213
F1.0
s(lp854
g60
atp855
a(S'je'
p856
(dp857
S'PRON'
p858
F7.1e-05
sS'VERB'
p859
F0.999904
sg213
F2.4999999999999998e-05
s(lp860
g53
atp861
a(S'pravda'
p862
(dp863
g213
F0.370884
sS'NOUN'
p864
F0.629116
s(lp865
g67
atp866
a(g118
(dp867
g120
F1.0
s(lp868
tp869
a(S'\xc5\xbee'
p870
(dp871
g213
F0.000583
sS'CONJ'
p872
F0.999417
s(lp873
g75
atp874
a(S'neexistuj\xc3\xba'
p875
(dp876
S'VERB'
p877
F1.0
s(lp878
g81
atp879
a(S'\xc5\xbeiadne'
p880
(dp881
S'PRON'
p882
F1.0
s(lp883
g105
atp884
a(S'lehoty'
p885
(dp886
S'NOUN'
p887
F1.0
s(lp888
g116
atp889
a(g118
(dp890
g120
F1.0
s(lp891
g118
atp892
a(S'preto\xc5\xbee'
p893
(dp894
S'CONJ'
p895
F1.0
s(lp896
g127
atp897
a(S'v\xc3\xbdnimka'
p898
(dp899
S'NOUN'
p900
F1.0
s(lp901
g141
atp902
a(S'sa'
p903
(dp904
S'PRT'
p905
F0.999937
sS'ADP'
p906
F0.0
sg213
F6.4e-05
s(lp907
g148
atp908
a(S'zru\xc5\xa1\xc3\xad'
p909
(dp910
S'VERB'
p911
F1.0
s(lp912
tp913
a(g118
(dp914
g120
F1.0
s(lp915
tp916
a(S'ke\xc4\x8f'
p917
(dp918
g213
F0.000119
sS'CONJ'
p919
F0.999881
s(lp920
g167
atp921
a(S'sa'
p922
(dp923
S'PRT'
p924
F0.999969
sS'ADP'
p925
F0.0
sg213
F3.1e-05
s(lp926
g199
atp927
a(S'objav\xc3\xad'
p928
(dp929
S'VERB'
p930
F1.0
s(lp931
g154
atp932
a(S'alternat\xc3\xadvny'
p933
(dp934
S'ADJ'
p935
F1.0
s(lp936
g193
atp937
a(S'v\xc3\xbdrobok'
p938
(dp939
S'NOUN'
p940
F1.0
s(lp941
g182
atp942
a(g120
(dp943
g120
F1.0
s(lp944
g120
atp945
asS'pl'
p946
(lp947
(S'chcia\xc5\x82bym'
p948
(dp949
S'ADV'
p950
F0.013731
sS'ADJ'
p951
F0.023214000000000005
sS'VERB'
p952
F0.7931559999999996
sS'NOUN'
p953
F0.169901
s(lp954
g217
atp955
a(S'r\xc3\xb3wnie\xc5\xbc'
p956
(dp957
S'PRT'
p958
F0.95173
sS'CONJ'
p959
F0.04827
s(lp960
g19
atp961
a(S'podkre\xc5\x9bli\xc4\x87'
p962
(dp963
S'VERB'
p964
F1.0
s(lp965
g25
atp966
a(g118
(dp967
g213
F0.0
sg120
F1.0
s(lp968
tp969
a(S'\xc5\xbce'
p970
(dp971
S'PRT'
p972
F0.0003
sS'CONJ'
p973
F0.9997
s(lp974
g33
atp975
a(S'to'
p976
(dp977
S'NOUN'
p978
F0.133404
sS'ADP'
p979
F2e-06
sS'PRT'
p980
F0.053788
sg213
F3e-06
sS'CONJ'
p981
F0.005416
sS'ADJ'
p982
F0.807386
s(lp983
g39
atp984
a(S'nieprawda'
p985
(dp986
S'NOUN'
p987
F1.0
s(lp988
g67
atp989
a(g118
(dp990
g213
F0.0
sg120
F1.0
s(lp991
g75
atp992
a(S'jakoby'
p993
(dp994
S'PRT'
p995
F0.039841
sS'CONJ'
p996
F0.960159
s(lp997
g105
atp998
a(S'nie'
p999
(dp1000
S'ADV'
p1001
F1.1e-05
sS'PRT'
p1002
F0.999791
sS'CONJ'
p1003
F0.000196
sS'NOUN'
p1004
F0.0
sS'PRON'
p1005
F0.0
s(lp1006
g60
atp1007
a(S'by\xc5\x82o'
p1008
(dp1009
g213
F1e-06
sS'VERB'
p1010
F0.999999
s(lp1011
g53
atp1012
a(S'ogranicze\xc5\x84'
p1013
(dp1014
S'NOUN'
p1015
F1.0
s(lp1016
tp1017
a(S'czasowych'
p1018
(dp1019
S'ADJ'
p1020
F1.0
s(lp1021
g116
atp1022
a(g118
(dp1023
g213
F0.0
sg120
F1.0
s(lp1024
g118
atp1025
a(S'poniewa\xc5\xbc'
p1026
(dp1027
S'CONJ'
p1028
F1.0
s(lp1029
g127
atp1030
a(S'odst\xc4\x99pstwo'
p1031
(dp1032
S'NOUN'
p1033
F1.0
s(lp1034
g141
atp1035
a(S'zostanie'
p1036
(dp1037
S'VERB'
p1038
F1.0
s(lp1039
g154
atp1040
a(S'uniewa\xc5\xbcnione'
p1041
(dp1042
S'ADV'
p1043
F0.002712
sS'ADJ'
p1044
F0.16347
sS'VERB'
p1045
F0.6317979999999999
sS'NOUN'
p1046
F0.20202199999999995
s(lp1047
tp1048
a(g118
(dp1049
g213
F0.0
sg120
F1.0
s(lp1050
tp1051
a(S'gdy'
p1052
(dp1053
S'ADV'
p1054
F1.0
s(lp1055
g167
atp1056
a(S'uzyskamy'
p1057
(dp1058
S'VERB'
p1059
F1.0
s(lp1060
g154
atp1061
a(S'dost\xc4\x99p'
p1062
(dp1063
S'NOUN'
p1064
F1.0
s(lp1065
g205
atp1066
a(S'do'
p1067
(dp1068
g213
F0.0
sS'NOUN'
p1069
F1e-06
sS'ADP'
p1070
F0.9999990000000001
s(lp1071
g175
atp1072
a(S'produktu'
p1073
(dp1074
S'NOUN'
p1075
F1.0
s(lp1076
g182
atp1077
a(S'alternatywnego'
p1078
(dp1079
S'ADJ'
p1080
F1.0
s(lp1081
g193
atp1082
a(g120
(dp1083
g120
F1.0
s(lp1084
g120
atp1085
asS'sl'
p1086
(lp1087
(S'prav'
p1088
(dp1089
S'ADV'
p1090
F0.117617
sS'PRT'
p1091
F0.880407
sS'VERB'
p1092
F0.001975
s(lp1093
tp1094
a(S'tako'
p1095
(dp1096
S'ADV'
p1097
F0.927914
sS'PRON'
p1098
F0.01778
sS'CONJ'
p1099
F0.054306
s(lp1100
g19
atp1101
a(S'bi'
p1102
(dp1103
g213
F0.000111
sS'VERB'
p1104
F0.999889
s(lp1105
g217
atp1106
a(S'rad'
p1107
(dp1108
S'ADV'
p1109
F1.0
s(lp1110
g13
atp1111
a(S'poudaril'
p1112
(dp1113
S'VERB'
p1114
F1.0
s(lp1115
g25
atp1116
a(g118
(dp1117
g120
F1.0
s(lp1118
tp1119
a(S'da'
p1120
(dp1121
S'PRT'
p1122
F0.000542
sS'CONJ'
p1123
F0.999406
sS'VERB'
p1124
F5e-05
sg213
F2e-06
s(lp1125
g33
atp1126
a(S'ni'
p1127
(dp1128
S'VERB'
p1129
F1.0
s(lp1130
g60
atp1131
a(S'res'
p1132
(dp1133
S'ADV'
p1134
F0.984832
sS'NOUN'
p1135
F0.015168
s(lp1136
g67
atp1137
a(g118
(dp1138
g120
F1.0
s(lp1139
tp1140
a(S'da'
p1141
(dp1142
S'PRT'
p1143
F0.000542
sS'CONJ'
p1144
F0.999406
sS'VERB'
p1145
F5e-05
sg213
F2e-06
s(lp1146
g75
atp1147
a(S'ni'
p1148
(dp1149
S'VERB'
p1150
F1.0
s(lp1151
g105
atp1152
a(S'\xc4\x8dasovnih'
p1153
(dp1154
S'ADJ'
p1155
F0.9999999999999999
s(lp1156
tp1157
a(S'rokov'
p1158
(dp1159
S'NOUN'
p1160
F1.0
s(lp1161
g116
atp1162
a(g118
(dp1163
g120
F1.0
s(lp1164
g118
atp1165
a(S'saj'
p1166
(dp1167
S'CONJ'
p1168
F1.0
s(lp1169
g127
atp1170
a(S'bo'
p1171
(dp1172
S'VERB'
p1173
F1.0
s(lp1174
g135
atp1175
a(S'izjema'
p1176
(dp1177
S'NOUN'
p1178
F1.0
s(lp1179
g141
atp1180
a(S'preklicana'
p1181
(dp1182
S'NOUN'
p1183
F0.432535
sS'VERB'
p1184
F0.028371999999999994
sS'ADJ'
p1185
F0.5390930000000002
s(lp1186
g154
atp1187
a(g118
(dp1188
g120
F1.0
s(lp1189
tp1190
a(S'ko'
p1191
(dp1192
S'CONJ'
p1193
F1.0
s(lp1194
g167
atp1195
a(S'bo'
p1196
(dp1197
S'VERB'
p1198
F1.0
s(lp1199
g199
atp1200
a(S'na'
p1201
(dp1202
S'ADP'
p1203
F1.0
s(lp1204
tp1205
a(S'razpolago'
p1206
(dp1207
S'NOUN'
p1208
F1.0
s(lp1209
g205
atp1210
a(S'alternativni'
p1211
(dp1212
S'ADJ'
p1213
F1.0
s(lp1214
g193
atp1215
a(S'produkt'
p1216
(dp1217
S'NOUN'
p1218
F1.0
s(lp1219
g182
atp1220
a(g120
(dp1221
g120
F1.0
s(lp1222
g120
atp1223
asS'es'
p1224
(lp1225
(S'me'
p1226
(dp1227
S'PRON'
p1228
F0.999999
sS'NOUN'
p1229
F1e-06
s(lp1230
g7
atp1231
a(S'gustar\xc3\xada'
p1232
(dp1233
S'VERB'
p1234
F1.0
s(lp1235
g13
atp1236
a(S'tambi\xc3\xa9n'
p1237
(dp1238
S'ADV'
p1239
F1.0
s(lp1240
g19
atp1241
a(S'enfatizar'
p1242
(dp1243
S'VERB'
p1244
F1.0
s(lp1245
g25
atp1246
a(S'que'
p1247
(dp1248
g213
F0.0
sS'CONJ'
p1249
F1.0
s(lp1250
g33
atp1251
a(S'no'
p1252
(dp1253
S'ADV'
p1254
F1.0
sg213
F0.0
s(lp1255
g60
atp1256
a(S'es'
p1257
(dp1258
S'VERB'
p1259
F1.0
s(lp1260
g53
atp1261
a(S'cierto'
p1262
(dp1263
S'ADV'
p1264
F0.026515
sS'ADJ'
p1265
F0.973484
s(lp1266
g67
atp1267
a(S'que'
p1268
(dp1269
g213
F0.0
sS'CONJ'
p1270
F1.0
s(lp1271
g75
atp1272
a(S'no'
p1273
(dp1274
S'ADV'
p1275
F1.0
sg213
F0.0
s(lp1276
g105
atp1277
a(S'existan'
p1278
(dp1279
S'VERB'
p1280
F1.0
s(lp1281
g81
atp1282
a(S'l\xc3\xadmites'
p1283
(dp1284
S'NOUN'
p1285
F1.0
s(lp1286
tp1287
a(S'temporales'
p1288
(dp1289
S'ADJ'
p1290
F1.0
s(lp1291
g116
atp1292
a(g118
(dp1293
g120
F1.0
s(lp1294
g118
atp1295
a(S'ya'
p1296
(dp1297
S'CONJ'
p1298
F1.0
s(lp1299
tp1300
a(S'que'
p1301
(dp1302
S'CONJ'
p1303
F1.0
s(lp1304
g127
atp1305
a(S'la'
p1306
(dp1307
g213
F0.0
sS'DET'
p1308
F1.0
sS'NOUN'
p1309
F0.0
sS'PRON'
p1310
F0.0
s(lp1311
g135
atp1312
a(S'exenci\xc3\xb3n'
p1313
(dp1314
S'NOUN'
p1315
F1.0
s(lp1316
g141
atp1317
a(S'se'
p1318
(dp1319
S'PRON'
p1320
F1.0
sS'VERB'
p1321
F0.0
s(lp1322
g148
atp1323
a(S'revoca'
p1324
(dp1325
S'VERB'
p1326
F1.0
s(lp1327
g154
atp1328
a(S'cuando'
p1329
(dp1330
S'CONJ'
p1331
F1.0
s(lp1332
g167
atp1333
a(S'un'
p1334
(dp1335
g213
F1e-06
sS'DET'
p1336
F0.999999
s(lp1337
g175
atp1338
a(S'producto'
p1339
(dp1340
S'NOUN'
p1341
F1.0
s(lp1342
g182
atp1343
a(S'alternativo'
p1344
(dp1345
S'ADJ'
p1346
F1.0
s(lp1347
g193
atp1348
a(S'est\xc3\xa1'
p1349
(dp1350
S'VERB'
p1351
F1.0
s(lp1352
g199
atp1353
a(S'disponible'
p1354
(dp1355
S'ADJ'
p1356
F1.0
s(lp1357
g205
atp1358
a(g120
(dp1359
g120
F1.0
s(lp1360
g120
atp1361
as.