(dp0
S'fr'
p1
(lp2
(S'une'
p3
(dp4
S'NOUN'
p5
F9e-05
sS'NUM'
p6
F0.010615
sS'DET'
p7
F0.989295
s(lp8
S'a'
p9
atp10
a(S'alternative'
p11
(dp12
S'ADJ'
p13
F0.057964
sS'NOUN'
p14
F0.942036
s(lp15
S'alternative'
p16
atp17
a(S'tentante'
p18
(dp19
S'ADJ'
p20
F1.0
s(lp21
S'tempting'
p22
atp23
a(S'serait'
p24
(dp25
S'VERB'
p26
F1.0
s(lp27
S'might'
p28
atp29
a(S'de'
p30
(dp31
S'ADP'
p32
F1.0
s(lp33
S'to'
p34
atp35
a(S"n'"
p36
(dp37
S'ADJ'
p38
F0.160704
sS'VERB'
p39
F0.06480800000000002
sS'NOUN'
p40
F0.774488
s(lp41
tp42
a(S'aborder'
p43
(dp44
S'VERB'
p45
F1.0
s(lp46
S'look'
p47
atp48
a(S'que'
p49
(dp50
S'ADV'
p51
F0.1156
sS'PRON'
p52
F0.009434999999999999
sS'CONJ'
p53
F0.874965
s(lp54
S'only'
p55
atp56
a(S'des'
p57
(dp58
S'DET'
p59
F0.000564
sS'ADP'
p60
F0.999436
s(lp61
S'for'
p62
atp63
a(S'sujets'
p64
(dp65
S'ADJ'
p66
F0.011204
sS'NOUN'
p67
F0.988796
s(lp68
S'topics'
p69
atp70
a(S'non'
p71
(dp72
S'ADV'
p73
F0.999996
sS'X'
p74
F4e-06
s(lp75
tp76
a(S'pol\xc3\xa9miques'
p77
(dp78
S'NOUN'
p79
F0.031951
sS'VERB'
p80
F0.000276
sS'ADJ'
p81
F0.967772
s(lp82
S'non-contentious'
p83
atp84
a(S','
p85
(dp86
S'.'
p87
F1.0
s(lp88
tp89
a(S'pas'
p90
(dp91
S'ADV'
p92
F0.987624
sS'NOUN'
p93
F0.012376
s(lp94
S'not'
p95
atp96
a(S'du'
p97
(dp98
S'ADP'
p99
F1.0
s(lp100
S'at'
p101
atp102
a(S'tout'
p103
(dp104
S'ADV'
p105
F0.671325
sS'PRON'
p106
F0.004669
sS'NOUN'
p107
F0.324006
s(lp108
S'all'
p109
atp110
a(S'li\xc3\xa9s'
p111
(dp112
S'VERB'
p113
F0.958068
sS'ADJ'
p114
F0.041932
s(lp115
S'related'
p116
atp117
a(S'\xc3\xa0'
p118
(dp119
S'ADP'
p120
F1.0
s(lp121
S'to'
p122
atp123
a(S'la'
p124
(dp125
S'PRON'
p126
F1.2e-05
sS'DET'
p127
F0.999988
sS'NOUN'
p128
F0.0
s(lp129
tp130
a(S'th\xc3\xa9ologie'
p131
(dp132
S'NOUN'
p133
F1.0
s(lp134
S'theology'
p135
atp136
a(g85
(dp137
g87
F1.0
s(lp138
g85
atp139
a(S'par'
p140
(dp141
S'NOUN'
p142
F1e-06
sS'ADP'
p143
F0.999999
s(lp144
tp145
a(S'exemple'
p146
(dp147
S'NOUN'
p148
F1.0
s(lp149
S'example'
p150
atp151
a(g85
(dp152
g87
F1.0
s(lp153
tp154
a(S'les'
p155
(dp156
S'PRON'
p157
F0.000333
sS'DET'
p158
F0.999645
sS'ADP'
p159
F2.2e-05
s(lp160
S'to'
p161
atp162
a(S'pr\xc3\xa9occupations'
p163
(dp164
S'NOUN'
p165
F1.0
s(lp166
S'concerns'
p167
atp168
a(S'environnementales'
p169
(dp170
S'ADJ'
p171
F1.0
s(lp172
S'environmental'
p173
atp174
a(S'communes'
p175
(dp176
S'ADJ'
p177
F0.021921
sS'NOUN'
p178
F0.978079
s(lp179
S'common'
p180
atp181
a(g87
(dp182
g87
F1.0
s(lp183
g87
atp184
asS'en'
p185
(lp186
(g9
(dp187
S'NOUN'
p188
F0.0
sS'DET'
p189
F1.0
s(lp190
g9
atp191
a(g22
(dp192
S'VERB'
p193
F0.004402
sS'ADJ'
p194
F0.995598
s(lp195
g22
atp196
a(g16
(dp197
S'ADJ'
p198
F0.011394
sS'NOUN'
p199
F0.988606
s(lp200
g16
atp201
a(g28
(dp202
S'VERB'
p203
F0.999977
sS'NOUN'
p204
F2.3e-05
s(lp205
g28
atp206
a(S'be'
p207
(dp208
S'VERB'
p209
F1.0
s(lp210
g207
atp211
a(g34
(dp212
S'ADV'
p213
F2e-06
sS'PRT'
p214
F0.999998
sS'ADP'
p215
F0.0
s(lp216
g34
atp217
a(g47
(dp218
S'VERB'
p219
F0.998509
sS'NOUN'
p220
F0.001491
s(lp221
g47
atp222
a(g55
(dp223
S'ADV'
p224
F0.960332
sS'NOUN'
p225
F0.000105
sS'ADJ'
p226
F0.039563
s(lp227
g55
atp228
a(g62
(dp229
S'ADP'
p230
F1.0
s(lp231
g62
atp232
a(g83
(dp233
S'ADJ'
p234
F1.0
s(lp235
g83
atp236
a(g69
(dp237
S'NOUN'
p238
F1.0
s(lp239
g69
atp240
a(S'which'
p241
(dp242
S'DET'
p243
F1.0
s(lp244
g241
atp245
a(S'are'
p246
(dp247
S'VERB'
p248
F0.999997
sS'NOUN'
p249
F3e-06
s(lp250
g246
atp251
a(g95
(dp252
S'ADV'
p253
F1.0
s(lp254
g95
atp255
a(g101
(dp256
S'NOUN'
p257
F0.0
sS'ADP'
p258
F0.999999
s(lp259
g101
atp260
a(g109
(dp261
S'ADV'
p262
F0.024806
sS'DET'
p263
F0.9751949999999999
s(lp264
g109
atp265
a(g116
(dp266
S'VERB'
p267
F0.698719
sS'ADJ'
p268
F0.301282
s(lp269
g116
atp270
a(g122
(dp271
S'ADV'
p272
F0.0
sS'PRT'
p273
F0.999992
sS'ADP'
p274
F8e-06
s(lp275
g122
atp276
a(g135
(dp277
S'NOUN'
p278
F1.0
s(lp279
g135
atp280
a(g85
(dp281
g87
F1.0
s(lp282
g85
atp283
a(S'for'
p284
(dp285
S'ADP'
p286
F1.0
s(lp287
g284
atp288
a(g150
(dp289
S'NOUN'
p290
F1.0
s(lp291
g150
atp292
a(g161
(dp293
S'ADV'
p294
F0.0
sS'PRT'
p295
F1.0
sS'ADP'
p296
F0.0
s(lp297
g161
atp298
a(S'discuss'
p299
(dp300
S'VERB'
p301
F1.0
s(lp302
g299
atp303
a(g180
(dp304
S'NOUN'
p305
F0.001558
sS'ADJ'
p306
F0.998442
s(lp307
g180
atp308
a(g173
(dp309
S'ADJ'
p310
F1.0
s(lp311
g173
atp312
a(g167
(dp313
S'VERB'
p314
F6.2e-05
sS'NOUN'
p315
F0.999938
s(lp316
g167
atp317
a(g87
(dp318
g87
F1.0
s(lp319
g87
atp320
asS'nl'
p321
(lp322
(S'een'
p323
(dp324
S'ADJ'
p325
F1e-06
sS'PRON'
p326
F9.8e-05
sS'NUM'
p327
F1e-06
sS'DET'
p328
F0.999901
s(lp329
g9
atp330
a(S'verleidelijk'
p331
(dp332
S'ADJ'
p333
F1.0
s(lp334
g22
atp335
a(S'alternatief'
p336
(dp337
S'NOUN'
p338
F0.284507
sS'ADJ'
p339
F0.715493
s(lp340
g16
atp341
a(S'zou'
p342
(dp343
S'VERB'
p344
F1.0
s(lp345
tp346
a(S'kunnen'
p347
(dp348
S'VERB'
p349
F0.999986
sS'NOUN'
p350
F1.3e-05
s(lp351
g28
atp352
a(S'zijn'
p353
(dp354
S'PRON'
p355
F0.000233
sS'VERB'
p356
F0.999493
sS'NOUN'
p357
F0.000274
s(lp358
g207
atp359
a(S'alleen'
p360
(dp361
S'ADV'
p362
F0.994723
sS'ADJ'
p363
F0.005277
s(lp364
g55
atp365
a(S'niet-contraversi\xc3\xable'
p366
(dp367
S'NOUN'
p368
F0.011467
sS'ADJ'
p369
F0.988533
s(lp370
g83
atp371
a(S'onderwerpen'
p372
(dp373
S'VERB'
p374
F0.034688000000000004
sS'NOUN'
p375
F0.9653120000000001
s(lp376
g69
atp377
a(S'te'
p378
(dp379
S'PRT'
p380
F1.0
s(lp381
g34
atp382
a(S'zoeken'
p383
(dp384
S'VERB'
p385
F1.0
sS'NOUN'
p386
F0.0
s(lp387
g47
atp388
a(S'die'
p389
(dp390
S'PRON'
p391
F1.0
s(lp392
g241
atp393
a(S'op'
p394
(dp395
S'ADV'
p396
F0.072982
sS'ADJ'
p397
F0.0
sS'ADP'
p398
F0.927018
s(lp399
g101
atp400
a(S'generlei'
p401
(dp402
S'PRON'
p403
F1.0
s(lp404
tp405
a(S'wijze'
p406
(dp407
S'ADJ'
p408
F0.003346
sS'NOUN'
p409
F0.996654
s(lp410
g83
atp411
a(S'met'
p412
(dp413
S'ADP'
p414
F1.0
s(lp415
g116
atp416
a(S'theologie'
p417
(dp418
S'NOUN'
p419
F1.0
s(lp420
g135
atp421
a(S'te'
p422
(dp423
S'PRT'
p424
F1.0
s(lp425
g122
atp426
a(S'maken'
p427
(dp428
S'VERB'
p429
F1.0
sS'NOUN'
p430
F0.0
s(lp431
tp432
a(S'hebben'
p433
(dp434
S'VERB'
p435
F0.9999969999999999
sS'NOUN'
p436
F2e-06
s(lp437
g116
atp438
a(g85
(dp439
g87
F1.0
s(lp440
g85
atp441
a(S'bijvoorbeeld'
p442
(dp443
S'ADV'
p444
F1.0
s(lp445
g150
atp446
a(S'de'
p447
(dp448
S'DET'
p449
F1.0
s(lp450
tp451
a(S'bespreking'
p452
(dp453
S'NOUN'
p454
F1.0
s(lp455
g299
atp456
a(S'van'
p457
(dp458
S'ADP'
p459
F1.0
s(lp460
g284
atp461
a(S'gemeenschappelijke'
p462
(dp463
S'NOUN'
p464
F0.001023
sS'ADJ'
p465
F0.998977
s(lp466
g180
atp467
a(S'zorgen'
p468
(dp469
S'VERB'
p470
F0.043243000000000004
sS'NOUN'
p471
F0.956757
s(lp472
tp473
a(S'omtrent'
p474
(dp475
S'ADV'
p476
F0.001238
sS'ADP'
p477
F0.998762
s(lp478
g167
atp479
a(S'het'
p480
(dp481
S'PRON'
p482
F0.000928
sS'DET'
p483
F0.999072
s(lp484
tp485
a(S'milieu'
p486
(dp487
S'NOUN'
p488
F1.0
s(lp489
g173
atp490
a(g87
(dp491
g87
F1.0
s(lp492
g87
atp493
asS'de'
p494
(lp495
(S'eine'
p496
(dp497
S'PRON'
p498
F0.001613
sS'DET'
p499
F0.998364
s(lp500
g9
atp501
a(S'verlockende'
p502
(dp503
S'ADJ'
p504
F1.0
s(lp505
g22
atp506
a(S'alternative'
p507
(dp508
S'ADJ'
p509
F1.0
s(lp510
g16
atp511
a(S'best\xc3\xbcnde'
p512
(dp513
S'VERB'
p514
F1.0
s(lp515
g83
atp516
a(S'darin'
p517
(dp518
S'ADV'
p519
F1.0
s(lp520
g83
atp521
a(g85
(dp522
g87
F1.0
s(lp523
g34
atp524
a(S'nur'
p525
(dp526
S'ADV'
p527
F1.0
s(lp528
g55
atp529
a(S'\xc3\xbcber'
p530
(dp531
S'PRT'
p532
F0.000121
sS'ADP'
p533
F0.999879
s(lp534
g62
atp535
a(S'unstrittige'
p536
(dp537
S'ADJ'
p538
F1.0
s(lp539
tp540
a(S'themen'
p541
(dp542
S'ADJ'
p543
F0.003706
sS'NOUN'
p544
F0.995234
s(lp545
g69
atp546
a(S'zu'
p547
(dp548
S'PRT'
p549
F0.99997
s(lp550
g161
atp551
a(S'sprechen'
p552
(dp553
S'VERB'
p554
F1.0
s(lp555
tp556
a(g85
(dp557
g87
F1.0
s(lp558
tp559
a(S'die'
p560
(dp561
S'PRON'
p562
F0.95207
sS'DET'
p563
F0.041162
s(lp564
g241
atp565
a(S'\xc3\xbcberhaupt'
p566
(dp567
S'ADV'
p568
F1.0
s(lp569
g83
atp570
a(S'nichts'
p571
(dp572
S'PRON'
p573
F1.0
s(lp574
g95
atp575
a(S'mit'
p576
(dp577
S'PRT'
p578
F0.006143
sS'ADP'
p579
F0.993857
s(lp580
g116
atp581
a(S'theologie'
p582
(dp583
S'ADJ'
p584
F0.165515
sS'NOUN'
p585
F0.833201
s(lp586
tp587
a(S'zu'
p588
(dp589
S'PRT'
p590
F0.999977
s(lp591
g122
atp592
a(S'tun'
p593
(dp594
S'VERB'
p595
F1.0
s(lp596
g135
atp597
a(S'haben'
p598
(dp599
S'VERB'
p600
F0.998161
s(lp601
g246
atp602
a(g85
(dp603
g87
F1.0
s(lp604
g85
atp605
a(S'zum'
p606
(dp607
S'ADP'
p608
F1.0
s(lp609
tp610
a(S'beispiel'
p611
(dp612
S'NOUN'
p613
F0.982142
s(lp614
g150
atp615
a(S'\xc3\xbcber'
p616
(dp617
S'PRT'
p618
F0.000182
sS'ADP'
p619
F0.999818
s(lp620
g299
atp621
a(S'allgemeine'
p622
(dp623
S'ADJ'
p624
F1.0
s(lp625
g180
atp626
a(S'\xc3\xb6kologische'
p627
(dp628
S'ADJ'
p629
F1.0
s(lp630
g173
atp631
a(S'probleme'
p632
(dp633
S'ADJ'
p634
F0.003623
sS'NOUN'
p635
F0.993725
s(lp636
g167
atp637
a(g87
(dp638
g87
F1.0
s(lp639
g87
atp640
asS'it'
p641
(lp642
(S"un'"
p643
(dp644
S'PRON'
p645
F0.011906
sS'DEF'
p646
F0.988094
s(lp647
g9
atp648
a(S'alternativa'
p649
(dp650
S'ADJ'
p651
F0.038746
sS'NOUN'
p652
F0.961254
s(lp653
g16
atp654
a(S'attraente'
p655
(dp656
S'VERB'
p657
F0.371845
sS'ADJ'
p658
F0.628155
s(lp659
g22
atp660
a(S'potrebbe'
p661
(dp662
S'VERB'
p663
F1.0
s(lp664
g28
atp665
a(S'essere'
p666
(dp667
S'VERB'
p668
F0.999996
sS'NOUN'
p669
F4e-06
s(lp670
g207
atp671
a(S'cercare'
p672
(dp673
S'VERB'
p674
F1.0
s(lp675
g47
atp676
a(S'solo'
p677
(dp678
S'ADV'
p679
F0.543589
sS'NOUN'
p680
F0.000816
sS'VERB'
p681
F0.000115
sS'ADJ'
p682
F0.45548
s(lp683
g55
atp684
a(S'argomenti'
p685
(dp686
S'VERB'
p687
F0.08051599999999999
sS'NOUN'
p688
F0.919484
s(lp689
g69
atp690
a(S'non'
p691
(dp692
S'ADV'
p693
F1.0
s(lp694
tp695
a(S'controversi'
p696
(dp697
S'ADJ'
p698
F1.0
s(lp699
g83
atp700
a(S'che'
p701
(dp702
S'PRON'
p703
F0.829113
sS'CONJ'
p704
F0.170472
sS'ADJ'
p705
F0.000414
s(lp706
g241
atp707
a(S'non'
p708
(dp709
S'ADV'
p710
F1.0
s(lp711
g95
atp712
a(S'sono'
p713
(dp714
S'VERB'
p715
F0.999669
sS'NOUN'
p716
F0.000331
s(lp717
g246
atp718
a(S'tutti'
p719
(dp720
S'PRON'
p721
F0.576044
sS'ADJ'
p722
F0.423956
s(lp723
g109
atp724
a(S'relativi'
p725
(dp726
S'ADJ'
p727
F1.0
s(lp728
g116
atp729
a(S'alla'
p730
(dp731
S'ADP'
p732
F1.0
s(lp733
g122
atp734
a(S'teologia'
p735
(dp736
S'NOUN'
p737
F1.0
s(lp738
g135
atp739
a(g85
(dp740
g87
F1.0
s(lp741
g85
atp742
a(S'ad'
p743
(dp744
S'ADP'
p745
F1.0
s(lp746
tp747
a(S'esempio'
p748
(dp749
S'NOUN'
p750
F1.0
s(lp751
g150
atp752
a(S'discutere'
p753
(dp754
S'VERB'
p755
F1.0
s(lp756
g299
atp757
a(S'di'
p758
(dp759
S'CONJ'
p760
F1e-06
sS'ADP'
p761
F0.999999
s(lp762
tp763
a(S'preoccupazioni'
p764
(dp765
S'NOUN'
p766
F1.0
s(lp767
g167
atp768
a(S'ambientali'
p769
(dp770
S'VERB'
p771
F0.0
sS'ADJ'
p772
F1.0
s(lp773
g173
atp774
a(S'comuni'
p775
(dp776
S'ADJ'
p777
F0.019753
sS'NOUN'
p778
F0.980247
s(lp779
g180
atp780
a(g87
(dp781
g87
F1.0
s(lp782
g87
atp783
asS'sk'
p784
(lp785
(S'l\xc3\xa1kavou'
p786
(dp787
S'ADJ'
p788
F1.0
s(lp789
g22
atp790
a(S'alternat\xc3\xadvou'
p791
(dp792
S'NOUN'
p793
F1.0
s(lp794
g16
atp795
a(S'by'
p796
(dp797
S'PRT'
p798
F0.999924
sg74
F7.6e-05
s(lp799
g28
atp800
a(S'bolo'
p801
(dp802
S'VERB'
p803
F1.0
s(lp804
g207
atp805
a(S'h\xc4\xbeada\xc5\xa5'
p806
(dp807
S'VERB'
p808
F1.0
s(lp809
g47
atp810
a(S'len'
p811
(dp812
g74
F0.982845
sS'CONJ'
p813
F0.017155
s(lp814
g55
atp815
a(S'jednozna\xc4\x8dn\xc3\xa9'
p816
(dp817
S'ADJ'
p818
F1.0
s(lp819
g83
atp820
a(S'ot\xc3\xa1zky'
p821
(dp822
S'NOUN'
p823
F1.0
s(lp824
g69
atp825
a(g85
(dp826
g87
F1.0
s(lp827
tp828
a(S'ktor\xc3\xa9'
p829
(dp830
S'PRON'
p831
F1.0
s(lp832
g241
atp833
a(S'sa'
p834
(dp835
S'PRT'
p836
F0.999959
sS'ADP'
p837
F0.0
sg74
F4.1e-05
s(lp838
g246
atp839
a(S'net\xc3\xbdkaj\xc3\xba'
p840
(dp841
S'VERB'
p842
F1.0
s(lp843
g135
atp844
a(S'teol\xc3\xb3gie'
p845
(dp846
S'NOUN'
p847
F1.0
s(lp848
g135
atp849
a(g85
(dp850
g87
F1.0
s(lp851
g85
atp852
a(S'napr\xc3\xadklad'
p853
(dp854
g74
F1.0
s(lp855
g150
atp856
a(S'diskutova\xc5\xa5'
p857
(dp858
S'VERB'
p859
F1.0
s(lp860
tp861
a(S'o'
p862
(dp863
g74
F9.7e-05
sS'CONJ'
p864
F2.1e-05
sS'NOUN'
p865
F2.1e-05
sS'ADP'
p866
F0.999861
s(lp867
g299
atp868
a(S'spolo\xc4\x8dn\xc3\xbdch'
p869
(dp870
S'ADJ'
p871
F1.0
s(lp872
g180
atp873
a(S'obav\xc3\xa1ch'
p874
(dp875
S'NOUN'
p876
F1.0
s(lp877
g167
atp878
a(S'v'
p879
(dp880
g74
F0.000112
sS'ADP'
p881
F0.999888
s(lp882
g101
atp883
a(S's\xc3\xbavislosti'
p884
(dp885
S'NOUN'
p886
F1.0
s(lp887
tp888
a(S'so'
p889
(dp890
g74
F7.7e-05
sS'ADP'
p891
F0.999924
s(lp892
g116
atp893
a(S'\xc5\xbeivotn\xc3\xbdm'
p894
(dp895
S'ADJ'
p896
F1.0
s(lp897
tp898
a(S'prostred\xc3\xadm'
p899
(dp900
S'NOUN'
p901
F1.0
s(lp902
g135
atp903
a(g87
(dp904
g87
F1.0
s(lp905
g87
atp906
asS'pl'
p907
(lp908
(S'kusz\xc4\x85c\xc4\x85'
p909
(dp910
S'ADV'
p911
F0.013016
sS'ADJ'
p912
F0.4227
sS'VERB'
p913
F0.09962800000000001
sS'NOUN'
p914
F0.46465699999999993
s(lp915
g22
atp916
a(S'alternatyw\xc4\x85'
p917
(dp918
S'NOUN'
p919
F1.0
s(lp920
g16
atp921
a(S'mog\xc5\x82oby'
p922
(dp923
S'ADV'
p924
F0.005103
sS'NOUN'
p925
F0.8891059999999997
sS'PRT'
p926
F0.027946
sS'VERB'
p927
F0.07355799999999998
sS'CONJ'
p928
F0.002515
sS'ADJ'
p929
F0.001773
s(lp930
g28
atp931
a(S'by\xc4\x87'
p932
(dp933
S'VERB'
p934
F1.0
s(lp935
g207
atp936
a(S'szukanie'
p937
(dp938
S'VERB'
p939
F1.0
s(lp940
g83
atp941
a(S'jedynie'
p942
(dp943
S'PRT'
p944
F1.0
s(lp945
tp946
a(S'niekontrowersyjnych'
p947
(dp948
S'ADV'
p949
F0.001127
sS'NOUN'
p950
F0.001473
sS'ADJ'
p951
F0.9973989999999999
s(lp952
g83
atp953
a(S'temat\xc3\xb3w'
p954
(dp955
S'NOUN'
p956
F1.0
s(lp957
g69
atp958
a(g85
(dp959
g74
F0.0
sg87
F1.0
s(lp960
tp961
a(S'kt\xc3\xb3re'
p962
(dp963
S'ADJ'
p964
F0.999998
s(lp965
g241
atp966
a(S'nie'
p967
(dp968
S'ADV'
p969
F2.5e-05
sS'PRT'
p970
F0.9837
sS'CONJ'
p971
F0.016117
sS'NOUN'
p972
F7.5e-05
sS'PRON'
p973
F8.2e-05
s(lp974
g95
atp975
a(S'dotycz\xc4\x85'
p976
(dp977
S'VERB'
p978
F1.0
s(lp979
g116
atp980
a(S'teologii'
p981
(dp982
S'NOUN'
p983
F1.0
s(lp984
g135
atp985
a(g85
(dp986
g74
F0.0
sg87
F1.0
s(lp987
g85
atp988
a(S'na'
p989
(dp990
g74
F6.2e-05
sS'VERB'
p991
F3.4e-05
sS'NOUN'
p992
F4e-06
sS'ADP'
p993
F0.999884
sS'PRT'
p994
F1.6e-05
s(lp995
g284
atp996
a(S'przyk\xc5\x82ad'
p997
(dp998
S'NOUN'
p999
F1.0
s(lp1000
g150
atp1001
a(S'dyskusja'
p1002
(dp1003
S'NOUN'
p1004
F1.0
s(lp1005
tp1006
a(S'na'
p1007
(dp1008
g74
F9e-06
sS'VERB'
p1009
F5.2000000000000004e-05
sS'NOUN'
p1010
F0.0
sS'ADP'
p1011
F0.999933
sS'PRT'
p1012
F6e-06
s(lp1013
g161
atp1014
a(S'temat'
p1015
(dp1016
S'NOUN'
p1017
F1.0
s(lp1018
g299
atp1019
a(S'wsp\xc3\xb3lnych'
p1020
(dp1021
S'ADJ'
p1022
F1.0
s(lp1023
g180
atp1024
a(S'obaw'
p1025
(dp1026
S'NOUN'
p1027
F1.0
s(lp1028
g167
atp1029
a(S'dotycz\xc4\x85cych'
p1030
(dp1031
S'VERB'
p1032
F1.0000010000000001
s(lp1033
g173
atp1034
a(S'ochrony'
p1035
(dp1036
S'NOUN'
p1037
F1.0
s(lp1038
g173
atp1039
a(S'\xc5\x9brodowiska'
p1040
(dp1041
S'NOUN'
p1042
F1.0
s(lp1043
tp1044
a(S'naturalnego'
p1045
(dp1046
S'ADJ'
p1047
F1.0
s(lp1048
g173
atp1049
a(g87
(dp1050
g87
F1.0
s(lp1051
g87
atp1052
asS'sl'
p1053
(lp1054
(S'druga'
p1055
(dp1056
S'NUM'
p1057
F1.0
s(lp1058
g22
atp1059
a(S'vabljiva'
p1060
(dp1061
S'ADJ'
p1062
F1.0
s(lp1063
g83
atp1064
a(S'mo\xc5\xbenost'
p1065
(dp1066
S'NOUN'
p1067
F1.0
s(lp1068
g16
atp1069
a(S'je'
p1070
(dp1071
S'PRON'
p1072
F0.000111
sS'VERB'
p1073
F0.9998539999999999
sg74
F3.5e-05
s(lp1074
g207
atp1075
a(S'izbrati'
p1076
(dp1077
S'VERB'
p1078
F1.0
s(lp1079
tp1080
a(S'le'
p1081
(dp1082
S'PRT'
p1083
F0.999961
sg74
F3.9e-05
s(lp1084
g55
atp1085
a(S'nesporne'
p1086
(dp1087
S'ADV'
p1088
F0.000257
sS'NOUN'
p1089
F0.0023160000000000004
sS'VERB'
p1090
F0.000652
sS'ADJ'
p1091
F0.9967760000000001
s(lp1092
g83
atp1093
a(S'teme'
p1094
(dp1095
S'NOUN'
p1096
F0.999999
s(lp1097
g69
atp1098
a(g85
(dp1099
g87
F1.0
s(lp1100
g246
atp1101
a(S'ki'
p1102
(dp1103
S'CONJ'
p1104
F1.0
s(lp1105
g241
atp1106
a(S's'
p1107
(dp1108
S'VERB'
p1109
F0.208488
sS'NOUN'
p1110
F0.152258
sS'ADP'
p1111
F0.639254
s(lp1112
tp1113
a(S'teologijo'
p1114
(dp1115
S'NOUN'
p1116
F1.0
s(lp1117
tp1118
a(S'niso'
p1119
(dp1120
S'VERB'
p1121
F1.0
s(lp1122
g95
atp1123
a(S'povezane'
p1124
(dp1125
S'ADJ'
p1126
F0.9999990000000001
s(lp1127
g116
atp1128
a(g85
(dp1129
g87
F1.0
s(lp1130
g85
atp1131
a(S'kot'
p1132
(dp1133
S'CONJ'
p1134
F0.999651
sS'NOUN'
p1135
F0.000349
s(lp1136
g135
atp1137
a(S'na'
p1138
(dp1139
S'ADP'
p1140
F1.0
s(lp1141
tp1142
a(S'primer'
p1143
(dp1144
S'NOUN'
p1145
F1.0
s(lp1146
g150
atp1147
a(S'razprava'
p1148
(dp1149
S'NOUN'
p1150
F1.0
s(lp1151
tp1152
a(g862
(dp1153
S'NOUN'
p1154
F0.000202
sS'ADP'
p1155
F0.999798
s(lp1156
g299
atp1157
a(S'skupnih'
p1158
(dp1159
S'ADJ'
p1160
F0.9999990000000001
s(lp1161
g180
atp1162
a(S'okoljskih'
p1163
(dp1164
S'ADV'
p1165
F1.1e-05
sS'NOUN'
p1166
F0.3480679999999999
sS'VERB'
p1167
F0.000203
sS'ADJ'
p1168
F0.6517149999999999
s(lp1169
g173
atp1170
a(S'vpra\xc5\xa1anjih'
p1171
(dp1172
S'NOUN'
p1173
F1.0
s(lp1174
g167
atp1175
a(g87
(dp1176
g87
F1.0
s(lp1177
g87
atp1178
asS'es'
p1179
(lp1180
(S'una'
p1181
(dp1182
S'DET'
p1183
F1.0
s(lp1184
g9
atp1185
a(S'opci\xc3\xb3n'
p1186
(dp1187
S'NOUN'
p1188
F1.0
s(lp1189
g16
atp1190
a(S'atractiva'
p1191
(dp1192
S'ADJ'
p1193
F1.0
s(lp1194
g22
atp1195
a(S'podr\xc3\xada'
p1196
(dp1197
S'VERB'
p1198
F1.0
s(lp1199
g28
atp1200
a(S'ser'
p1201
(dp1202
S'VERB'
p1203
F1.0
sS'NOUN'
p1204
F0.0
s(lp1205
g207
atp1206
a(S'centrarse'
p1207
(dp1208
S'VERB'
p1209
F1.0
s(lp1210
g47
atp1211
a(S'\xc3\xbanicamente'
p1212
(dp1213
S'ADV'
p1214
F1.0
s(lp1215
g55
atp1216
a(S'en'
p1217
(dp1218
g74
F1e-06
sS'CONJ'
p1219
F6.5e-05
sS'ADP'
p1220
F0.999934
s(lp1221
g62
atp1222
a(S'cosas'
p1223
(dp1224
S'NOUN'
p1225
F1.0
s(lp1226
g83
atp1227
a(S'no'
p1228
(dp1229
S'ADV'
p1230
F0.999728
sg74
F0.000272
s(lp1231
g83
atp1232
a(S'conflictivas'
p1233
(dp1234
S'ADJ'
p1235
F1.0
s(lp1236
tp1237
a(S'que'
p1238
(dp1239
g74
F0.0
sS'CONJ'
p1240
F1.0
s(lp1241
g241
atp1242
a(S'no'
p1243
(dp1244
S'ADV'
p1245
F1.0
sg74
F0.0
s(lp1246
g95
atp1247
a(S'tengan'
p1248
(dp1249
S'VERB'
p1250
F1.0
s(lp1251
g69
atp1252
a(S'ninguna'
p1253
(dp1254
S'ADJ'
p1255
F1.0
s(lp1256
g83
atp1257
a(S'relaci\xc3\xb3n'
p1258
(dp1259
S'NOUN'
p1260
F1.0
s(lp1261
tp1262
a(S'con'
p1263
(dp1264
S'ADP'
p1265
F1.0
s(lp1266
g116
atp1267
a(S'la'
p1268
(dp1269
S'NOUN'
p1270
F0.0
sS'PRON'
p1271
F0.0
sS'DET'
p1272
F0.999999
sg74
F0.0
s(lp1273
tp1274
a(S'teolog\xc3\xada'
p1275
(dp1276
S'NOUN'
p1277
F1.0
s(lp1278
g135
atp1279
a(g85
(dp1280
g87
F1.0
s(lp1281
g85
atp1282
a(S'como'
p1283
(dp1284
S'ADV'
p1285
F0.078836
sS'CONJ'
p1286
F0.921164
s(lp1287
g150
atp1288
a(S'las'
p1289
(dp1290
S'PRON'
p1291
F5.2e-05
sS'DET'
p1292
F0.999948
s(lp1293
g173
atp1294
a(S'inquietudes'
p1295
(dp1296
S'NOUN'
p1297
F1.0
s(lp1298
g167
atp1299
a(S'comunes'
p1300
(dp1301
S'ADJ'
p1302
F1.0
s(lp1303
g180
atp1304
a(S'por'
p1305
(dp1306
S'ADP'
p1307
F1.0
s(lp1308
g284
atp1309
a(S'el'
p1310
(dp1311
S'PRON'
p1312
F1e-05
sS'DET'
p1313
F0.99999
s(lp1314
tp1315
a(S'medio'
p1316
(dp1317
S'ADV'
p1318
F0.000199
sS'ADJ'
p1319
F0.026761
sS'NOUN'
p1320
F0.97304
s(lp1321
tp1322
a(S'ambiente'
p1323
(dp1324
S'NOUN'
p1325
F0.005669
sS'VERB'
p1326
F0.000247
sS'ADJ'
p1327
F0.994083
s(lp1328
g173
atp1329
a(g87
(dp1330
g87
F1.0
s(lp1331
g87
atp1332
as.