(dp0
S'fr'
p1
(lp2
(S'ensuite'
p3
(dp4
S'ADV'
p5
F1.0
s(lp6
tp7
a(S','
p8
(dp9
S'.'
p10
F1.0
s(lp11
S'then'
p12
atp13
a(S'm.'
p14
(dp15
S'X'
p16
F0.445268
sS'VERB'
p17
F0.466766
sS'ADJ'
p18
F0.081679
sS'NOUN'
p19
F0.006287
s(lp20
S'mr'
p21
atp22
a(S'batten'
p23
(dp24
S'NOUN'
p25
F1.0
s(lp26
S'batten'
p27
atp28
a(S'nous'
p29
(dp30
S'PRON'
p31
F1.0
s(lp32
S'us'
p33
atp34
a(S'a'
p35
(dp36
S'VERB'
p37
F1.0
s(lp38
tp39
a(S'confess\xc3\xa9'
p40
(dp41
S'VERB'
p42
F1.0
s(lp43
S'confessed'
p44
atp45
a(S'que'
p46
(dp47
S'ADV'
p48
F0.098051
sS'PRON'
p49
F0.024335
sS'CONJ'
p50
F0.877614
s(lp51
S'that'
p52
atp53
a(S"l'"
p54
(dp55
S'NOUN'
p56
F0.04837
sS'VERB'
p57
F0.8803099999999998
sS'ADJ'
p58
F0.07132
s(lp59
tp60
a(S'argent'
p61
(dp62
S'NOUN'
p63
F1.0
s(lp64
S'money'
p65
atp66
a(S'de'
p67
(dp68
S'ADP'
p69
F1.0
s(lp70
S"'s"
p71
atp72
a(S'son'
p73
(dp74
S'PRON'
p75
F0.999988
sS'NOUN'
p76
F1.2e-05
s(lp77
S'the'
p78
atp79
a(S'groupe'
p80
(dp81
S'VERB'
p82
F2e-06
sS'NOUN'
p83
F0.999998
s(lp84
S'group'
p85
atp86
a(S'parlementaire'
p87
(dp88
S'NOUN'
p89
F0.015266
sS'ADJ'
p90
F0.984734
s(lp91
S'parliamentary'
p92
atp93
a(g35
(dp94
S'VERB'
p95
F1.0
s(lp96
S'has'
p97
atp98
a(S'\xc3\xa9t\xc3\xa9'
p99
(dp100
S'VERB'
p101
F0.986206
sS'NOUN'
p102
F0.013794
s(lp103
S'been'
p104
atp105
a(S'utilis\xc3\xa9'
p106
(dp107
S'VERB'
p108
F1.0
s(lp109
S'used'
p110
atp111
a(S'pour'
p112
(dp113
S'CONJ'
p114
F0.020078
sS'ADP'
p115
F0.979922
s(lp116
S'to'
p117
atp118
a(S'interf\xc3\xa9rer'
p119
(dp120
S'VERB'
p121
F1.0
s(lp122
S'interfere'
p123
atp124
a(S'avec'
p125
(dp126
S'ADV'
p127
F0.045952
sS'ADP'
p128
F0.954048
s(lp129
S'in'
p130
atp131
a(S'des'
p132
(dp133
S'DET'
p134
F0.000645
sS'ADP'
p135
F0.999355
s(lp136
tp137
a(S'r\xc3\xa9f\xc3\xa9rendums'
p138
(dp139
S'NOUN'
p140
F1.0
s(lp141
S'referendums'
p142
atp143
a(S'nationaux'
p144
(dp145
S'NOUN'
p146
F0.012852
sS'ADJ'
p147
F0.987148
s(lp148
S'national'
p149
atp150
a(g10
(dp151
g10
F1.0
s(lp152
g10
atp153
asS'en'
p154
(lp155
(g12
(dp156
S'ADV'
p157
F0.974021
sS'ADJ'
p158
F0.025979
s(lp159
g12
atp160
a(g21
(dp161
S'ADJ'
p162
F0.066106
sS'NOUN'
p163
F0.933893
s(lp164
g21
atp165
a(g27
(dp166
S'VERB'
p167
F0.008952
sS'NOUN'
p168
F0.991047
s(lp169
g27
atp170
a(g44
(dp171
S'VERB'
p172
F1.0
s(lp173
g44
atp174
a(S'to'
p175
(dp176
S'ADV'
p177
F5e-06
sS'PRT'
p178
F0.99999
sS'ADP'
p179
F5e-06
s(lp180
g175
atp181
a(g33
(dp182
S'PRON'
p183
F1.0
s(lp184
g33
atp185
a(g52
(dp186
S'ADV'
p187
F0.008566
sS'DET'
p188
F0.120321
sS'ADP'
p189
F0.871113
s(lp190
g52
atp191
a(g78
(dp192
S'NOUN'
p193
F1e-06
sS'DET'
p194
F0.999999
s(lp195
g78
atp196
a(g92
(dp197
S'ADJ'
p198
F1.0
s(lp199
g92
atp200
a(g85
(dp201
S'VERB'
p202
F0.0
sS'NOUN'
p203
F1.0
s(lp204
g85
atp205
a(g71
(dp206
S'PRT'
p207
F0.984346
sg10
F0.015654
s(lp208
g71
atp209
a(g65
(dp210
S'NOUN'
p211
F1.0
s(lp212
g65
atp213
a(g97
(dp214
S'VERB'
p215
F1.0
s(lp216
g97
atp217
a(g104
(dp218
S'VERB'
p219
F1.0
s(lp220
g104
atp221
a(g110
(dp222
S'VERB'
p223
F0.9995179999999999
sS'ADJ'
p224
F0.000482
s(lp225
g110
atp226
a(g117
(dp227
S'ADV'
p228
F0.0
sS'PRT'
p229
F1.0
sS'ADP'
p230
F0.0
s(lp231
g117
atp232
a(g123
(dp233
S'VERB'
p234
F1.0
s(lp235
g123
atp236
a(g130
(dp237
S'ADV'
p238
F0.005127
sS'PRT'
p239
F0.019484
sS'ADP'
p240
F0.975389
s(lp241
g130
atp242
a(g149
(dp243
S'NOUN'
p244
F0.000296
sS'ADJ'
p245
F0.999704
s(lp246
g149
atp247
a(g142
(dp248
S'NOUN'
p249
F1.0
s(lp250
g142
atp251
a(g10
(dp252
g10
F1.0
s(lp253
g10
atp254
asS'nl'
p255
(lp256
(S'vervolgens'
p257
(dp258
S'ADV'
p259
F1.0
s(lp260
g12
atp261
a(S'bekende'
p262
(dp263
S'NOUN'
p264
F0.001046
sS'VERB'
p265
F0.839322
sS'ADJ'
p266
F0.159632
s(lp267
g44
atp268
a(S'de'
p269
(dp270
S'DET'
p271
F1.0
s(lp272
tp273
a(S'heer'
p274
(dp275
S'NOUN'
p276
F1.0
s(lp277
g21
atp278
a(S'batten'
p279
(dp280
S'NOUN'
p281
F1.0
s(lp282
g27
atp283
a(S'dat'
p284
(dp285
S'PRON'
p286
F0.29105000000000003
sS'CONJ'
p287
F0.708949
s(lp288
g52
atp289
a(S'het'
p290
(dp291
S'PRON'
p292
F0.022693
sS'DET'
p293
F0.977307
s(lp294
tp295
a(S'geld'
p296
(dp297
S'VERB'
p298
F9.7e-05
sS'NOUN'
p299
F0.999903
s(lp300
g65
atp301
a(S'van'
p302
(dp303
S'ADP'
p304
F1.0
s(lp305
g71
atp306
a(S'de'
p307
(dp308
S'DET'
p309
F1.0
s(lp310
g78
atp311
a(S'parlementaire'
p312
(dp313
S'NOUN'
p314
F5e-06
sS'ADJ'
p315
F0.999995
s(lp316
g92
atp317
a(S'fracties'
p318
(dp319
S'NOUN'
p320
F1.0
s(lp321
g85
atp322
a(S'is'
p323
(dp324
S'VERB'
p325
F1.0
s(lp326
g97
atp327
a(S'gebruikt'
p328
(dp329
S'VERB'
p330
F1.0
s(lp331
g110
atp332
a(S'om'
p333
(dp334
S'ADV'
p335
F0.000758
sS'CONJ'
p336
F0.526161
sS'ADP'
p337
F0.473081
s(lp338
tp339
a(S'nationale'
p340
(dp341
S'NOUN'
p342
F2.4e-05
sS'ADJ'
p343
F0.999976
s(lp344
g149
atp345
a(S'referendums'
p346
(dp347
S'NOUN'
p348
F1.0
s(lp349
g142
atp350
a(S'te'
p351
(dp352
S'PRT'
p353
F1.0
s(lp354
g117
atp355
a(S'be\xc3\xafnvloeden'
p356
(dp357
S'VERB'
p358
F0.9999990000000001
sS'NOUN'
p359
F1e-06
s(lp360
g123
atp361
a(g10
(dp362
g10
F1.0
s(lp363
g10
atp364
asS'de'
p365
(lp366
(S'dann'
p367
(dp368
S'ADV'
p369
F1.0
s(lp370
g12
atp371
a(S'gab'
p372
(dp373
S'VERB'
p374
F1.0
s(lp375
g44
atp376
a(S'herr'
p377
(dp378
S'NOUN'
p379
F0.985566
s(lp380
g21
atp381
a(S'batten'
p382
(dp383
S'VERB'
p384
F0.873775
sS'ADJ'
p385
F0.095482
s(lp386
g27
atp387
a(S'uns'
p388
(dp389
S'PRON'
p390
F1.0
s(lp391
g33
atp392
a(S'gegen\xc3\xbcber'
p393
(dp394
S'ADP'
p395
F0.732967
s(lp396
g44
atp397
a(S'zu'
p398
(dp399
S'ADV'
p400
F0.031269
sS'PRT'
p401
F0.953727
s(lp402
g175
atp403
a(g8
(dp404
g10
F1.0
s(lp405
g52
atp406
a(S'die'
p407
(dp408
S'PRON'
p409
F0.192422
sS'DET'
p410
F0.805588
s(lp411
g78
atp412
a(S'gelder'
p413
(dp414
S'ADJ'
p415
F0.094087
sS'NOUN'
p416
F0.892729
s(lp417
g65
atp418
a(S'der'
p419
(dp420
S'PRON'
p421
F0.000123
sS'DET'
p422
F0.999767
s(lp423
g71
atp424
a(S'parlamentsfraktion'
p425
(dp426
S'ADJ'
p427
F0.034729
sS'NOUN'
p428
F0.932275
s(lp429
tp430
a(S'seien'
p431
(dp432
S'VERB'
p433
F1.0
s(lp434
g44
atp435
a(S'zur'
p436
(dp437
S'ADP'
p438
F1.0
s(lp439
g117
atp440
a(S'einmischung'
p441
(dp442
S'ADJ'
p443
F0.005463
sS'NOUN'
p444
F0.993607
s(lp445
g123
atp446
a(S'in'
p447
(dp448
S'ADP'
p449
F1.0
s(lp450
g130
atp451
a(S'nationale'
p452
(dp453
S'ADJ'
p454
F1.0
s(lp455
g149
atp456
a(S'referenden'
p457
(dp458
S'ADJ'
p459
F0.059054
sS'NOUN'
p460
F0.940946
s(lp461
g142
atp462
a(S'verwendet'
p463
(dp464
S'VERB'
p465
F1.0
s(lp466
g110
atp467
a(S'worden'
p468
(dp469
S'VERB'
p470
F0.999999
s(lp471
g104
atp472
a(g10
(dp473
g10
F1.0
s(lp474
g10
atp475
asS'it'
p476
(lp477
(S'poi'
p478
(dp479
S'ADV'
p480
F0.999888
sS'NOUN'
p481
F0.000112
s(lp482
g12
atp483
a(S"l'"
p484
(dp485
S'NOUN'
p486
F0.002845
sS'VERB'
p487
F0.8206669999999998
sS'ADJ'
p488
F0.176487
s(lp489
g21
atp490
a(S'onorevole'
p491
(dp492
S'NOUN'
p493
F0.046386
sS'ADJ'
p494
F0.953614
s(lp495
tp496
a(S'batten'
p497
(dp498
S'ADJ'
p499
F0.01054
sS'VERB'
p500
F0.0005740000000000001
sS'NOUN'
p501
F0.988885
s(lp502
g27
atp503
a(S'ci'
p504
(dp505
S'ADV'
p506
F0.001974
sS'PRON'
p507
F0.997885
sS'NOUN'
p508
F0.000141
s(lp509
g33
atp510
a(S'ha'
p511
(dp512
S'VERB'
p513
F1.0
s(lp514
tp515
a(S'confessato'
p516
(dp517
S'VERB'
p518
F1.0
s(lp519
g44
atp520
a(S'che'
p521
(dp522
S'PRON'
p523
F0.906456
sS'CONJ'
p524
F0.09292
sS'ADJ'
p525
F0.000624
s(lp526
g52
atp527
a(S'il'
p528
(dp529
S'DET'
p530
F1.0
s(lp531
g78
atp532
a(S'denaro'
p533
(dp534
S'NOUN'
p535
F1.0
s(lp536
g65
atp537
a(S'del'
p538
(dp539
S'DEF'
p540
F0.001248
sS'ADP'
p541
F0.998752
s(lp542
g71
atp543
a(S'gruppo'
p544
(dp545
S'NOUN'
p546
F1.0
s(lp547
g85
atp548
a(S'parlamentare'
p549
(dp550
S'NOUN'
p551
F0.020017
sS'VERB'
p552
F0.001358
sS'ADJ'
p553
F0.978625
s(lp554
g92
atp555
a(S'\xc3\xa8'
p556
(dp557
S'VERB'
p558
F1.0
s(lp559
g97
atp560
a(S'stato'
p561
(dp562
S'VERB'
p563
F0.989146
sS'NOUN'
p564
F0.010854
s(lp565
g104
atp566
a(S'utilizzato'
p567
(dp568
S'VERB'
p569
F1.0
s(lp570
g110
atp571
a(S'per'
p572
(dp573
S'CONJ'
p574
F0.001834
sS'ADP'
p575
F0.998166
s(lp576
g117
atp577
a(S'interferire'
p578
(dp579
S'VERB'
p580
F1.0
s(lp581
g123
atp582
a(S'nelle'
p583
(dp584
S'ADP'
p585
F1.0
s(lp586
g130
atp587
a(S'consultazioni'
p588
(dp589
S'NOUN'
p590
F1.0
s(lp591
tp592
a(S'referendarie'
p593
(dp594
S'ADJ'
p595
F1.0
s(lp596
g142
atp597
a(S'nazionali'
p598
(dp599
S'NOUN'
p600
F0.46387
sS'ADJ'
p601
F0.53613
s(lp602
g149
atp603
a(g10
(dp604
g10
F1.0
s(lp605
g10
atp606
asS'sk'
p607
(lp608
(S'potom'
p609
(dp610
S'ADV'
p611
F0.985748
sg16
F0.013315
sS'NOUN'
p612
F0.000937
s(lp613
g12
atp614
a(S'sa'
p615
(dp616
S'PRT'
p617
F0.999866
sS'ADP'
p618
F0.000102
sg16
F3.3e-05
s(lp619
tp620
a(S'n\xc3\xa1m'
p621
(dp622
S'PRON'
p623
F0.991383
sg16
F0.008617
s(lp624
g33
atp625
a(S'p\xc3\xa1n'
p626
(dp627
S'NOUN'
p628
F1.0
s(lp629
g21
atp630
a(S'batten'
p631
(dp632
S'ADJ'
p633
F0.003662
sS'NOUN'
p634
F0.995845
sg16
F0.000493
s(lp635
g27
atp636
a(S'priznal'
p637
(dp638
S'VERB'
p639
F0.9999999999999999
s(lp640
g44
atp641
a(g8
(dp642
g10
F1.0
s(lp643
tp644
a(S'\xc5\xbee'
p645
(dp646
g16
F0.000429
sS'CONJ'
p647
F0.99957
s(lp648
g52
atp649
a(S'peniaze'
p650
(dp651
S'NOUN'
p652
F1.0
s(lp653
g65
atp654
a(S'parlamentnej'
p655
(dp656
S'ADJ'
p657
F1.0
s(lp658
g92
atp659
a(S'skupiny'
p660
(dp661
S'NOUN'
p662
F1.0
s(lp663
g85
atp664
a(S'boli'
p665
(dp666
S'VERB'
p667
F1.000001
s(lp668
g104
atp669
a(S'pou\xc5\xbeit\xc3\xa9'
p670
(dp671
S'VERB'
p672
F1.0
s(lp673
g110
atp674
a(S'na'
p675
(dp676
g16
F0.000304
sS'CONJ'
p677
F1.6e-05
sS'ADP'
p678
F0.999675
sS'PRT'
p679
F5e-06
s(lp680
g117
atp681
a(S'zasahovanie'
p682
(dp683
S'NOUN'
p684
F1.0
s(lp685
tp686
a(S'do'
p687
(dp688
g16
F0.000119
sS'ADP'
p689
F0.999872
sS'PRON'
p690
F9e-06
s(lp691
g123
atp692
a(S'n\xc3\xa1rodn\xc3\xbdch'
p693
(dp694
S'ADJ'
p695
F1.0
s(lp696
g149
atp697
a(S'referend'
p698
(dp699
S'NOUN'
p700
F1.0
s(lp701
g142
atp702
a(g10
(dp703
g10
F1.0
s(lp704
g10
atp705
asS'pl'
p706
(lp707
(S'nast\xc4\x99pnie'
p708
(dp709
S'ADV'
p710
F1.0
s(lp711
g12
atp712
a(S'pan'
p713
(dp714
g16
F1e-06
sS'NOUN'
p715
F0.999999
s(lp716
g21
atp717
a(S'pose\xc5\x82'
p718
(dp719
S'NOUN'
p720
F1.0
s(lp721
g27
atp722
a(S'gerard'
p723
(dp724
S'ADV'
p725
F0.000381
sS'ADJ'
p726
F0.00027
sS'VERB'
p727
F0.001966
sS'NOUN'
p728
F0.9973850000000001
sg16
F0.0
s(lp729
tp730
a(S'batten'
p731
(dp732
g16
F1e-06
sS'NOUN'
p733
F0.9999969999999999
s(lp734
g27
atp735
a(S'przyzna\xc5\x82'
p736
(dp737
S'VERB'
p738
F1.0
s(lp739
g44
atp740
a(S'nam'
p741
(dp742
S'PRON'
p743
F1.0
s(lp744
g33
atp745
a(S'si\xc4\x99'
p746
(dp747
S'PRT'
p748
F1.0
s(lp749
g97
atp750
a(g8
(dp751
g16
F0.0
sg10
F1.0
s(lp752
tp753
a(S'\xc5\xbce'
p754
(dp755
S'PRT'
p756
F0.000207
sS'CONJ'
p757
F0.999793
s(lp758
g52
atp759
a(S'pieni\xc4\x85dze'
p760
(dp761
S'NOUN'
p762
F1.0
s(lp763
g65
atp764
a(S'grupy'
p765
(dp766
S'NOUN'
p767
F1.0
s(lp768
g85
atp769
a(S'parlamentarnej'
p770
(dp771
S'ADJ'
p772
F1.0
s(lp773
g92
atp774
a(S'zosta\xc5\x82y'
p775
(dp776
S'VERB'
p777
F1.0000010000000001
s(lp778
g104
atp779
a(S'wykorzystane'
p780
(dp781
S'VERB'
p782
F0.999999
s(lp783
g110
atp784
a(S'na'
p785
(dp786
S'PRT'
p787
F6e-06
sS'VERB'
p788
F4e-06
sS'NOUN'
p789
F1e-06
sS'ADP'
p790
F0.999988
sg16
F1e-06
s(lp791
g117
atp792
a(S'ingerencj\xc4\x99'
p793
(dp794
S'VERB'
p795
F0.000318
sS'NOUN'
p796
F0.999682
s(lp797
g123
atp798
a(S'w'
p799
(dp800
S'ADJ'
p801
F0.000276
sg16
F0.00047200000000000003
sS'NOUN'
p802
F0.005225
sS'ADP'
p803
F0.9940269999999999
s(lp804
g130
atp805
a(S'referenda'
p806
(dp807
S'NOUN'
p808
F1.0
s(lp809
g142
atp810
a(S'krajowe'
p811
(dp812
S'ADJ'
p813
F1.0
s(lp814
g149
atp815
a(g10
(dp816
g10
F1.0
s(lp817
g10
atp818
asS'sl'
p819
(lp820
(S'potem'
p821
(dp822
S'ADV'
p823
F1.0
s(lp824
g12
atp825
a(S'je'
p826
(dp827
S'PRON'
p828
F0.002226
sS'VERB'
p829
F0.997772
sg16
F2e-06
s(lp830
g78
atp831
a(S'gospod'
p832
(dp833
S'NOUN'
p834
F1.0
s(lp835
g21
atp836
a(S'batten'
p837
(dp838
S'ADV'
p839
F0.042991
sS'ADJ'
p840
F0.3308990000000001
sS'VERB'
p841
F0.000395
sS'NOUN'
p842
F0.622891
sg16
F0.002821
s(lp843
g27
atp844
a(S'priznal'
p845
(dp846
S'VERB'
p847
F1.0
s(lp848
g44
atp849
a(g8
(dp850
g10
F1.0
s(lp851
tp852
a(S'da'
p853
(dp854
S'PRT'
p855
F5e-06
sS'CONJ'
p856
F0.99997
sS'VERB'
p857
F2.4e-05
sg16
F0.0
s(lp858
g52
atp859
a(S'se'
p860
(dp861
S'PRON'
p862
F1.0
sg16
F0.0
s(lp863
g104
atp864
a(S'je'
p865
(dp866
S'PRON'
p867
F0.002796
sS'VERB'
p868
F0.9972019999999999
sg16
F2e-06
s(lp869
g97
atp870
a(S'denar'
p871
(dp872
S'NOUN'
p873
F1.0
s(lp874
g65
atp875
a(S'parlamentarne'
p876
(dp877
S'ADJ'
p878
F1.0
s(lp879
g92
atp880
a(S'skupine'
p881
(dp882
S'NOUN'
p883
F1.000001
s(lp884
g85
atp885
a(S'uporabljal'
p886
(dp887
S'VERB'
p888
F1.0
s(lp889
g110
atp890
a(S'za'
p891
(dp892
S'ADV'
p893
F3e-05
sg16
F8e-06
sS'ADP'
p894
F0.9999610000000001
s(lp895
g117
atp896
a(S'vme\xc5\xa1avanje'
p897
(dp898
S'NOUN'
p899
F1.0
s(lp900
g123
atp901
a(S'v'
p902
(dp903
S'ADP'
p904
F1.0
s(lp905
g130
atp906
a(S'nacionalne'
p907
(dp908
S'ADJ'
p909
F1.0
s(lp910
g149
atp911
a(S'referendume'
p912
(dp913
S'NOUN'
p914
F1.0
s(lp915
g142
atp916
a(g10
(dp917
g10
F1.0
s(lp918
g10
atp919
asS'es'
p920
(lp921
(S'y'
p922
(dp923
g16
F0.000256
sS'CONJ'
p924
F0.999744
s(lp925
g12
atp926
a(S'luego'
p927
(dp928
S'ADV'
p929
F0.999342
sS'CONJ'
p930
F0.000658
s(lp931
tp932
a(g8
(dp933
g10
F1.0
s(lp934
g12
atp935
a(S'el'
p936
(dp937
S'PRON'
p938
F1e-05
sS'DET'
p939
F0.99999
s(lp940
tp941
a(S'se\xc3\xb1or'
p942
(dp943
S'NOUN'
p944
F1.0
s(lp945
g21
atp946
a(S'batten'
p947
(dp948
S'VERB'
p949
F1.0
s(lp950
g27
atp951
a(S'nos'
p952
(dp953
S'PRON'
p954
F1.0
s(lp955
g33
atp956
a(S'ha'
p957
(dp958
S'VERB'
p959
F1.0
s(lp960
g97
atp961
a(S'confesado'
p962
(dp963
S'VERB'
p964
F1.0
s(lp965
g44
atp966
a(S'que'
p967
(dp968
g16
F0.0
sS'CONJ'
p969
F1.0
s(lp970
g52
atp971
a(S'han'
p972
(dp973
S'VERB'
p974
F1.0
s(lp975
g104
atp976
a(S'utilizado'
p977
(dp978
S'VERB'
p979
F1.0
s(lp980
g110
atp981
a(S'el'
p982
(dp983
S'PRON'
p984
F0.0
sS'DET'
p985
F1.0
s(lp986
g78
atp987
a(S'dinero'
p988
(dp989
S'NOUN'
p990
F1.0
s(lp991
g65
atp992
a(S'del'
p993
(dp994
S'ADP'
p995
F1.0
s(lp996
g71
atp997
a(S'grupo'
p998
(dp999
S'NOUN'
p1000
F1.0
s(lp1001
g85
atp1002
a(S'parlamentario'
p1003
(dp1004
S'NOUN'
p1005
F0.024387
sS'ADJ'
p1006
F0.975613
s(lp1007
g92
atp1008
a(S'para'
p1009
(dp1010
S'CONJ'
p1011
F0.984302
sS'ADP'
p1012
F0.015698
s(lp1013
g117
atp1014
a(S'injerirse'
p1015
(dp1016
S'ADJ'
p1017
F8e-06
sS'VERB'
p1018
F0.999878
sS'NOUN'
p1019
F0.000114
s(lp1020
g123
atp1021
a(S'en'
p1022
(dp1023
g16
F0.0
sS'CONJ'
p1024
F1e-06
sS'ADP'
p1025
F0.999999
s(lp1026
g130
atp1027
a(S'los'
p1028
(dp1029
S'PRON'
p1030
F0.0
sS'DET'
p1031
F1.0
s(lp1032
tp1033
a(S'referenda'
p1034
(dp1035
S'ADJ'
p1036
F0.013836
sS'VERB'
p1037
F0.017852
sS'NOUN'
p1038
F0.968313
s(lp1039
g142
atp1040
a(S'nacionales'
p1041
(dp1042
S'ADJ'
p1043
F1.0
s(lp1044
g149
atp1045
a(g10
(dp1046
g10
F1.0
s(lp1047
g10
atp1048
as.