(dp0
S'fr'
p1
(lp2
(S'troisi\xc3\xa8me'
p3
(dp4
S'NUM'
p5
F0.999857
sS'NOUN'
p6
F0.000143
s(lp7
tp8
a(S'\xc3\xa9l\xc3\xa9ment'
p9
(dp10
S'NOUN'
p11
F1.0
s(lp12
S'thirdly'
p13
atp14
a(S'.'
p15
(dp16
g15
F1.0
s(lp17
S','
p18
atp19
a(S'ne'
p20
(dp21
S'ADV'
p22
F1.0
s(lp23
tp24
a(S'donnons'
p25
(dp26
S'VERB'
p27
F1.0
s(lp28
S'let'
p29
atp30
a(S'pas'
p31
(dp32
S'ADV'
p33
F0.998341
sS'NOUN'
p34
F0.001659
s(lp35
S'not'
p36
atp37
a(S'raison'
p38
(dp39
S'NOUN'
p40
F1.0
s(lp41
tp42
a(S'\xc3\xa0'
p43
(dp44
S'ADP'
p45
F1.0
s(lp46
S'vindicate'
p47
atp48
a(S'ceux'
p49
(dp50
S'PRON'
p51
F1.0
s(lp52
S'those'
p53
atp54
a(S'qui'
p55
(dp56
S'PRON'
p57
F1.0
s(lp58
S'who'
p59
atp60
a(S'ne'
p61
(dp62
S'ADV'
p63
F1.0
s(lp64
tp65
a(S'veulent'
p66
(dp67
S'VERB'
p68
F1.0
s(lp69
S'want'
p70
atp71
a(S'pas'
p72
(dp73
S'ADV'
p74
F0.996431
sS'NOUN'
p75
F0.003569
s(lp76
S'not'
p77
atp78
a(S'de'
p79
(dp80
S'ADP'
p81
F1.0
s(lp82
tp83
a(S'budget'
p84
(dp85
S'NOUN'
p86
F1.0
s(lp87
S'budget'
p88
atp89
a(S'pour'
p90
(dp91
S'CONJ'
p92
F0.793247
sS'ADP'
p93
F0.206753
s(lp94
S'so'
p95
atp96
a(S'que'
p97
(dp98
S'ADV'
p99
F0.044788
sS'PRON'
p100
F0.481427
sS'CONJ'
p101
F0.473784
s(lp102
S'that'
p103
atp104
a(S"l'"
p105
(dp106
S'NOUN'
p107
F0.035865
sS'VERB'
p108
F0.9241549999999998
sS'ADJ'
p109
F0.039979
s(lp110
S'the'
p111
atp112
a(S'union'
p113
(dp114
S'NOUN'
p115
F1.0
s(lp116
tp117
a(S'europ\xc3\xa9enne'
p118
(dp119
S'NOUN'
p120
F0.357148
sS'ADJ'
p121
F0.642852
s(lp122
S'eu'
p123
atp124
a(S'ait'
p125
(dp126
S'VERB'
p127
F1.0
s(lp128
S'has'
p129
atp130
a(S'encore'
p131
(dp132
S'ADV'
p133
F1.0
s(lp134
S'even'
p135
atp136
a(S'moins'
p137
(dp138
S'ADV'
p139
F1.0
s(lp140
tp141
a(S'de'
p142
(dp143
S'ADP'
p144
F1.0
s(lp145
S'fewer'
p146
atp147
a(S'moyens'
p148
(dp149
S'ADJ'
p150
F0.159681
sS'NOUN'
p151
F0.840319
s(lp152
S'resources'
p153
atp154
a(S'\xc3\xa0'
p155
(dp156
S'ADP'
p157
F1.0
s(lp158
S'at'
p159
atp160
a(S'sa'
p161
(dp162
S'PRON'
p163
F1.0
s(lp164
S'its'
p165
atp166
a(S'disposition'
p167
(dp168
S'NOUN'
p169
F1.0
s(lp170
S'disposal'
p171
atp172
a(S'pour'
p173
(dp174
S'CONJ'
p175
F0.127766
sS'ADP'
p176
F0.872234
s(lp177
S'to'
p178
atp179
a(S'r\xc3\xa9aliser'
p180
(dp181
S'VERB'
p182
F1.0
s(lp183
S'carry'
p184
atp185
a(S'ses'
p186
(dp187
S'PRON'
p188
F1.0
s(lp189
S'its'
p190
atp191
a(S'politiques'
p192
(dp193
S'NOUN'
p194
F0.19036
sS'VERB'
p195
F0.0
sS'ADJ'
p196
F0.80964
s(lp197
S'policies'
p198
atp199
a(g15
(dp200
g15
F1.0
s(lp201
g15
atp202
asS'en'
p203
(lp204
(g13
(dp205
S'ADV'
p206
F1.0
s(lp207
g13
atp208
a(g18
(dp209
g15
F1.0
s(lp210
g18
atp211
a(g29
(dp212
S'VERB'
p213
F0.9998900000000001
sS'NOUN'
p214
F0.000109
s(lp215
g29
atp216
a(S'us'
p217
(dp218
S'PRON'
p219
F1.0
s(lp220
g217
atp221
a(g36
(dp222
S'ADV'
p223
F1.0
s(lp224
g36
atp225
a(g47
(dp226
S'VERB'
p227
F1.0
s(lp228
g47
atp229
a(g53
(dp230
S'NOUN'
p231
F0.00023
sS'DET'
p232
F0.99977
s(lp233
g53
atp234
a(g59
(dp235
S'PRON'
p236
F1.0
s(lp237
g59
atp238
a(S'do'
p239
(dp240
S'VERB'
p241
F0.999999
sS'NOUN'
p242
F0.0
s(lp243
g239
atp244
a(g77
(dp245
S'ADV'
p246
F1.0
s(lp247
g77
atp248
a(g70
(dp249
S'VERB'
p250
F0.9999640000000001
sS'NOUN'
p251
F3.6e-05
s(lp252
g70
atp253
a(S'a'
p254
(dp255
S'NOUN'
p256
F0.0
sS'DET'
p257
F1.0
s(lp258
g254
atp259
a(g88
(dp260
S'VERB'
p261
F1.4000000000000001e-05
sS'NOUN'
p262
F0.999986
s(lp263
g88
atp264
a(g95
(dp265
S'ADV'
p266
F0.118571
sS'ADJ'
p267
F8.4e-05
sS'CONJ'
p268
F0.023059
sS'NOUN'
p269
F0.001341
sS'ADP'
p270
F0.856945
s(lp271
g95
atp272
a(g103
(dp273
S'ADV'
p274
F0.012089
sS'DET'
p275
F0.26966399999999996
sS'ADP'
p276
F0.718248
s(lp277
g103
atp278
a(g111
(dp279
S'NOUN'
p280
F1.7e-05
sS'DET'
p281
F0.999983
s(lp282
g111
atp283
a(g123
(dp284
S'ADV'
p285
F0.000127
sS'ADJ'
p286
F1e-06
sS'VERB'
p287
F0.0
sS'NOUN'
p288
F0.9998720000000001
s(lp289
g123
atp290
a(g129
(dp291
S'VERB'
p292
F1.0
s(lp293
g129
atp294
a(g135
(dp295
S'ADV'
p296
F0.999856
sS'NOUN'
p297
F1e-06
sS'VERB'
p298
F1.6e-05
sS'ADJ'
p299
F0.000128
s(lp300
g135
atp301
a(g146
(dp302
S'ADJ'
p303
F1.0
s(lp304
g146
atp305
a(g153
(dp306
S'NOUN'
p307
F1.0
s(lp308
g153
atp309
a(g159
(dp310
S'NOUN'
p311
F0.0
sS'ADP'
p312
F1.0
s(lp313
g159
atp314
a(g165
(dp315
S'PRON'
p316
F1.0
s(lp317
g165
atp318
a(g171
(dp319
S'NOUN'
p320
F1.0
s(lp321
g171
atp322
a(g178
(dp323
S'ADV'
p324
F0.0
sS'PRT'
p325
F1.0
sS'ADP'
p326
F0.0
s(lp327
g178
atp328
a(g184
(dp329
S'VERB'
p330
F0.999708
sS'NOUN'
p331
F0.000291
s(lp332
g184
atp333
a(S'out'
p334
(dp335
S'ADV'
p336
F0.012496
sS'NOUN'
p337
F2e-06
sS'ADP'
p338
F0.202369
sS'PRT'
p339
F0.785101
sS'VERB'
p340
F6e-06
sS'ADJ'
p341
F2.6e-05
s(lp342
g334
atp343
a(g190
(dp344
S'PRON'
p345
F1.0
s(lp346
g190
atp347
a(g198
(dp348
S'NOUN'
p349
F1.0
s(lp350
g198
atp351
a(g15
(dp352
g15
F1.0
s(lp353
g15
atp354
asS'nl'
p355
(lp356
(S'ten'
p357
(dp358
S'ADP'
p359
F1.0
s(lp360
tp361
a(S'derde'
p362
(dp363
S'ADJ'
p364
F0.000103
sS'NUM'
p365
F2e-06
sS'NOUN'
p366
F0.999895
s(lp367
g13
atp368
a(S'moeten'
p369
(dp370
S'VERB'
p371
F1.0
sS'NOUN'
p372
F0.0
s(lp373
g29
atp374
a(S'wij'
p375
(dp376
S'PRON'
p377
F1.0
s(lp378
g217
atp379
a(S'voorkomen'
p380
(dp381
S'VERB'
p382
F0.9992820000000001
sS'NOUN'
p383
F0.000718
s(lp384
g47
atp385
a(S'dat'
p386
(dp387
S'PRON'
p388
F0.040591
sS'CONJ'
p389
F0.959409
s(lp390
g103
atp391
a(S'degenen'
p392
(dp393
S'PRON'
p394
F1.0
s(lp395
g53
atp396
a(S'die'
p397
(dp398
S'PRON'
p399
F1.0
s(lp400
g59
atp401
a(S'geen'
p402
(dp403
S'PRON'
p404
F0.999988
sS'DET'
p405
F1.2e-05
s(lp406
g77
atp407
a(S'begroting'
p408
(dp409
S'NOUN'
p410
F1.0
s(lp411
g88
atp412
a(S'willen'
p413
(dp414
S'VERB'
p415
F0.999911
sS'NOUN'
p416
F8.9e-05
s(lp417
tp418
a(S'en'
p419
(dp420
S'CONJ'
p421
F1.0
s(lp422
g95
atp423
a(S'de'
p424
(dp425
S'DET'
p426
F1.0
s(lp427
g111
atp428
a(S'europese'
p429
(dp430
S'NOUN'
p431
F1.0
s(lp432
tp433
a(S'unie'
p434
(dp435
S'NOUN'
p436
F1.0
s(lp437
g123
atp438
a(S'nog'
p439
(dp440
S'ADV'
p441
F1.0
s(lp442
g135
atp443
a(S'minder'
p444
(dp445
S'ADV'
p446
F1.3e-05
sS'NUM'
p447
F3.4e-05
sS'ADJ'
p448
F0.999953
sS'VERB'
p449
F0.0
s(lp450
g146
atp451
a(S'middelen'
p452
(dp453
S'NOUN'
p454
F1.0
s(lp455
g153
atp456
a(S'willen'
p457
(dp458
S'VERB'
p459
F0.999467
sS'NOUN'
p460
F0.000534
s(lp461
g70
atp462
a(S'geven'
p463
(dp464
S'VERB'
p465
F0.999956
sS'NOUN'
p466
F4.4e-05
s(lp467
g47
atp468
a(S'voor'
p469
(dp470
S'ADV'
p471
F0.00035
sS'CONJ'
p472
F3.3e-05
sS'NOUN'
p473
F0.0
sS'ADP'
p474
F0.999616
s(lp475
g178
atp476
a(S'haar'
p477
(dp478
S'ADV'
p479
F0.0
sS'PRON'
p480
F0.999999
sS'NOUN'
p481
F1e-06
s(lp482
g190
atp483
a(S'beleid'
p484
(dp485
S'NOUN'
p486
F1.0
s(lp487
g198
atp488
a(g18
(dp489
g15
F1.0
s(lp490
tp491
a(S'gelijk'
p492
(dp493
S'ADV'
p494
F0.003183
sS'NOUN'
p495
F0.00212
sS'VERB'
p496
F0.001989
sS'ADJ'
p497
F0.992707
s(lp498
tp499
a(S'krijgen'
p500
(dp501
S'VERB'
p502
F0.991014
sS'NOUN'
p503
F0.008987
s(lp504
g47
atp505
a(g15
(dp506
g15
F1.0
s(lp507
g15
atp508
asS'de'
p509
(lp510
(S'drittens'
p511
(dp512
S'ADV'
p513
F1.0
s(lp514
g13
atp515
a(S':'
p516
(dp517
g15
F1.0
s(lp518
g18
atp519
a(S'lassen'
p520
(dp521
S'VERB'
p522
F0.999679
sS'ADJ'
p523
F0.000292
s(lp524
tp525
a(S'sie'
p526
(dp527
S'PRON'
p528
F1.0
s(lp529
g29
atp530
a(S'uns'
p531
(dp532
S'PRON'
p533
F1.0
s(lp534
g217
atp535
a(S'nicht'
p536
(dp537
S'PRT'
p538
F1.0
s(lp539
g36
atp540
a(S'all'
p541
(dp542
S'PRON'
p543
F0.999486
sS'X'
p544
F0.000514
s(lp545
g47
atp546
a(S'jenen'
p547
(dp548
S'PRON'
p549
F1.0
s(lp550
g53
atp551
a(S'recht'
p552
(dp553
S'VERB'
p554
F0.000213
sS'ADJ'
p555
F0.99978
s(lp556
tp557
a(S'geben'
p558
(dp559
S'VERB'
p560
F1.0
s(lp561
g47
atp562
a(g18
(dp563
g15
F1.0
s(lp564
tp565
a(S'die'
p566
(dp567
S'PRON'
p568
F0.73695
sS'DET'
p569
F0.260722
s(lp570
g59
atp571
a(S'keinen'
p572
(dp573
S'PRON'
p574
F1.0
s(lp575
g77
atp576
a(S'haushaltsplan'
p577
(dp578
S'ADJ'
p579
F0.000117
sS'NOUN'
p580
F0.999856
s(lp581
g88
atp582
a(S'wollen'
p583
(dp584
S'VERB'
p585
F1.0
s(lp586
g70
atp587
a(g18
(dp588
g15
F1.0
s(lp589
tp590
a(S'so'
p591
(dp592
S'ADV'
p593
F0.999992
sS'PRON'
p594
F8e-06
s(lp595
g95
atp596
a(S'dass'
p597
(dp598
S'CONJ'
p599
F1.0
s(lp600
g103
atp601
a(S'der'
p602
(dp603
S'PRON'
p604
F0.022795
sS'DET'
p605
F0.97667
s(lp606
g111
atp607
a(S'eu'
p608
(dp609
S'NOUN'
p610
F0.322198
sS'ADJ'
p611
F0.499357
s(lp612
g123
atp613
a(S'noch'
p614
(dp615
S'ADV'
p616
F0.728733
sS'CONJ'
p617
F0.271267
s(lp618
g135
atp619
a(S'weniger'
p620
(dp621
S'PRON'
p622
F0.995486
s(lp623
g146
atp624
a(S'mittel'
p625
(dp626
S'VERB'
p627
F1.0
s(lp628
g153
atp629
a(S'zur'
p630
(dp631
S'ADP'
p632
F1.0
s(lp633
g171
atp634
a(S'verf\xc3\xbcgung'
p635
(dp636
S'ADJ'
p637
F0.000104
sS'NOUN'
p638
F0.999864
s(lp639
tp640
a(S'stehen'
p641
(dp642
S'VERB'
p643
F1.0
s(lp644
g171
atp645
a(g18
(dp646
g15
F1.0
s(lp647
tp648
a(S'um'
p649
(dp650
S'CONJ'
p651
F0.655993
sS'ADP'
p652
F0.343905
s(lp653
g178
atp654
a(S'ihre'
p655
(dp656
S'PRON'
p657
F1.0
s(lp658
g190
atp659
a(S'strategien'
p660
(dp661
S'ADJ'
p662
F0.00508
sS'NOUN'
p663
F0.993884
s(lp664
g198
atp665
a(S'umzusetzen'
p666
(dp667
S'VERB'
p668
F1.0
s(lp669
g184
atp670
a(g15
(dp671
g15
F1.0
s(lp672
g15
atp673
asS'it'
p674
(lp675
(S'in'
p676
(dp677
S'ADP'
p678
F1.0
s(lp679
g13
atp680
a(S'terzo'
p681
(dp682
S'NOUN'
p683
F0.006099
sS'ADJ'
p684
F0.993901
s(lp685
tp686
a(S'luogo'
p687
(dp688
S'NOUN'
p689
F1.0
s(lp690
g13
atp691
a(g18
(dp692
g15
F1.0
s(lp693
g18
atp694
a(S'non'
p695
(dp696
S'ADV'
p697
F1.0
s(lp698
g36
atp699
a(S'difendiamo'
p700
(dp701
S'VERB'
p702
F1.0
s(lp703
g47
atp704
a(S'coloro'
p705
(dp706
S'PRON'
p707
F0.085052
sS'VERB'
p708
F0.914948
s(lp709
g53
atp710
a(S'che'
p711
(dp712
S'PRON'
p713
F0.950974
sS'CONJ'
p714
F0.048284
sS'ADJ'
p715
F0.000742
s(lp716
g59
atp717
a(S'non'
p718
(dp719
S'ADV'
p720
F1.0
s(lp721
g77
atp722
a(S'vogliono'
p723
(dp724
S'VERB'
p725
F1.0
s(lp726
g70
atp727
a(S'un'
p728
(dp729
S'PRON'
p730
F0.00116
sS'DEF'
p731
F0.99884
s(lp732
g254
atp733
a(S'bilancio'
p734
(dp735
S'VERB'
p736
F2e-06
sS'NOUN'
p737
F0.999998
s(lp738
g88
atp739
a(g18
(dp740
g15
F1.0
s(lp741
tp742
a(S'perch\xc3\xa9'
p743
(dp744
S'ADV'
p745
F0.091027
sS'CONJ'
p746
F0.892855
sS'NOUN'
p747
F0.016118
s(lp748
tp749
a(S'cos\xc3\xac'
p750
(dp751
S'ADV'
p752
F0.996732
sS'CONJ'
p753
F0.003268
s(lp754
g95
atp755
a(S'facendo'
p756
(dp757
S'VERB'
p758
F1.0
s(lp759
tp760
a(S"l'"
p761
(dp762
S'NOUN'
p763
F0.107286
sS'VERB'
p764
F0.5268700000000001
sS'ADJ'
p765
F0.365844
s(lp766
g111
atp767
a(S'ue'
p768
(dp769
S'ADJ'
p770
F0.000123
sS'VERB'
p771
F0.019393
sS'NOUN'
p772
F0.980485
s(lp773
g123
atp774
a(S'disporrebbe'
p775
(dp776
S'VERB'
p777
F1.0
s(lp778
g47
atp779
a(S'di'
p780
(dp781
S'CONJ'
p782
F2e-06
sS'ADP'
p783
F0.999998
s(lp784
tp785
a(S'risorse'
p786
(dp787
S'VERB'
p788
F4.8e-05
sS'NOUN'
p789
F0.999952
s(lp790
g153
atp791
a(S'ancor'
p792
(dp793
S'ADV'
p794
F1.0
s(lp795
g135
atp796
a(S'pi\xc3\xb9'
p797
(dp798
S'ADV'
p799
F0.998056
sS'NOUN'
p800
F5e-06
sS'ADJ'
p801
F0.001908
sS'ADP'
p802
F3.1e-05
s(lp803
tp804
a(S'limitate'
p805
(dp806
S'VERB'
p807
F0.946818
sS'ADJ'
p808
F0.053182
s(lp809
g146
atp810
a(S'per'
p811
(dp812
S'CONJ'
p813
F0.002066
sS'ADP'
p814
F0.997934
s(lp815
g178
atp816
a(S'attuare'
p817
(dp818
S'VERB'
p819
F1.0
s(lp820
g184
atp821
a(S'le'
p822
(dp823
S'PRON'
p824
F1e-06
sS'DET'
p825
F0.999999
s(lp826
tp827
a(S'proprie'
p828
(dp829
S'ADJ'
p830
F1.0
s(lp831
g190
atp832
a(S'politiche'
p833
(dp834
S'NOUN'
p835
F0.310467
sS'ADJ'
p836
F0.689533
s(lp837
g198
atp838
a(g15
(dp839
g15
F1.0
s(lp840
g15
atp841
asS'sk'
p842
(lp843
(S'po'
p844
(dp845
g544
F0.00528
sS'ADP'
p846
F0.994719
s(lp847
tp848
a(S'tretie'
p849
(dp850
S'NUM'
p851
F1.0
s(lp852
g13
atp853
a(g18
(dp854
g15
F1.0
s(lp855
g18
atp856
a(S'neobhajujme'
p857
(dp858
S'VERB'
p859
F1.0
s(lp860
g47
atp861
a(S't\xc3\xbdch'
p862
(dp863
S'PRON'
p864
F1.0
s(lp865
g53
atp866
a(g18
(dp867
g15
F1.0
s(lp868
tp869
a(S'ktor\xc3\xad'
p870
(dp871
S'PRON'
p872
F1.0
s(lp873
g59
atp874
a(S'nechc\xc3\xba'
p875
(dp876
S'VERB'
p877
F1.0
s(lp878
g70
atp879
a(S'rozpo\xc4\x8det'
p880
(dp881
S'NOUN'
p882
F1.0
s(lp883
g88
atp884
a(g18
(dp885
g15
F1.0
s(lp886
tp887
a(S'aby'
p888
(dp889
g544
F7.9e-05
sS'CONJ'
p890
F0.999921
s(lp891
g95
atp892
a(S'tak'
p893
(dp894
S'PRON'
p895
F0.834315
sS'CONJ'
p896
F0.011141
sg544
F0.15454400000000001
s(lp897
g103
atp898
a(S'mala'
p899
(dp900
S'ADV'
p901
F0.031547
sS'VERB'
p902
F0.968453
s(lp903
g165
atp904
a(S'e\xc3\x9a'
p905
(dp906
S'ADV'
p907
F0.049899
sS'ADJ'
p908
F0.320212
sS'VERB'
p909
F0.031351
sS'NOUN'
p910
F0.59383
sg544
F0.004708
s(lp911
g123
atp912
a(S'k'
p913
(dp914
g544
F0.000594
sS'NOUN'
p915
F7.999999999999999e-05
sS'ADP'
p916
F0.999326
s(lp917
tp918
a(S'dispoz\xc3\xadcii'
p919
(dp920
S'NOUN'
p921
F1.0
s(lp922
g171
atp923
a(S'e\xc5\xa1te'
p924
(dp925
S'ADV'
p926
F0.087421
sg544
F0.912579
s(lp927
g135
atp928
a(S'menej'
p929
(dp930
S'ADV'
p931
F0.055008
sg544
F0.021302
sS'NUM'
p932
F0.92369
s(lp933
g146
atp934
a(S'zdrojov'
p935
(dp936
S'NOUN'
p937
F1.0
s(lp938
g153
atp939
a(S'na'
p940
(dp941
g544
F2.2e-05
sS'CONJ'
p942
F1.8e-05
sS'ADP'
p943
F0.999956
sS'PRT'
p944
F4e-06
s(lp945
g159
atp946
a(S'vykon\xc3\xa1vanie'
p947
(dp948
S'NOUN'
p949
F1.0
s(lp950
g184
atp951
a(S'svojich'
p952
(dp953
S'PRON'
p954
F1.0
s(lp955
g190
atp956
a(S'polit\xc3\xadk'
p957
(dp958
S'NOUN'
p959
F1.0
s(lp960
g198
atp961
a(g15
(dp962
g15
F1.0
s(lp963
g15
atp964
asS'pl'
p965
(lp966
(S'po'
p967
(dp968
g544
F4e-06
sS'VERB'
p969
F0.0014149999999999998
sS'NOUN'
p970
F0.000788
sS'ADP'
p971
F0.9977949999999999
s(lp972
tp973
a(S'trzecie'
p974
(dp975
S'ADJ'
p976
F1.000002
s(lp977
g13
atp978
a(g18
(dp979
g544
F1.1e-05
sg15
F0.999989
s(lp980
g18
atp981
a(S'nie'
p982
(dp983
S'ADV'
p984
F4.1e-05
sS'PRT'
p985
F0.976404
sS'CONJ'
p986
F0.023534
sS'NOUN'
p987
F1.6e-05
sS'PRON'
p988
F4.9999999999999996e-06
s(lp989
g36
atp990
a(S'trzymajmy'
p991
(dp992
S'ADV'
p993
F0.002996
sS'ADJ'
p994
F0.009093999999999998
sS'VERB'
p995
F0.9722250000000002
sS'NOUN'
p996
F0.014651000000000003
sS'NUM'
p997
F0.0010329999999999998
s(lp998
g47
atp999
a(S'z'
p1000
(dp1001
S'PRT'
p1002
F5e-06
sS'VERB'
p1003
F0.0
sS'NOUN'
p1004
F0.0
sS'ADP'
p1005
F0.999995
sg544
F0.0
s(lp1006
tp1007
a(S'tymi'
p1008
(dp1009
S'ADJ'
p1010
F1.000001
s(lp1011
g53
atp1012
a(g18
(dp1013
g544
F0.0
sg15
F1.0
s(lp1014
tp1015
a(S'kt\xc3\xb3rzy'
p1016
(dp1017
S'ADJ'
p1018
F1.0
s(lp1019
g59
atp1020
a(S'nie'
p1021
(dp1022
S'ADV'
p1023
F2.3e-05
sS'PRT'
p1024
F0.986758
sS'CONJ'
p1025
F0.013144
sS'NOUN'
p1026
F7e-06
sS'PRON'
p1027
F6.9e-05
s(lp1028
g77
atp1029
a(S'chc\xc4\x85'
p1030
(dp1031
S'VERB'
p1032
F1.0
s(lp1033
g70
atp1034
a(S'uchwalenia'
p1035
(dp1036
S'VERB'
p1037
F1.0
s(lp1038
g47
atp1039
a(S'bud\xc5\xbcetu'
p1040
(dp1041
S'NOUN'
p1042
F1.0
s(lp1043
g88
atp1044
a(g18
(dp1045
g544
F0.0
sg15
F1.0
s(lp1046
tp1047
a(S'poniewa\xc5\xbc'
p1048
(dp1049
S'CONJ'
p1050
F1.0
s(lp1051
tp1052
a(S'chc\xc4\x85'
p1053
(dp1054
S'VERB'
p1055
F1.0
s(lp1056
g95
atp1057
a(g18
(dp1058
g544
F0.0
sg15
F1.0
s(lp1059
tp1060
a(S'by'
p1061
(dp1062
S'NOUN'
p1063
F0.000175
sS'ADP'
p1064
F2e-06
sS'PRT'
p1065
F0.087089
sS'VERB'
p1066
F1e-06
sg544
F5e-06
sS'CONJ'
p1067
F0.912728
s(lp1068
g103
atp1069
a(S'ue'
p1070
(dp1071
S'ADJ'
p1072
F0.0013570000000000001
sS'VERB'
p1073
F0.000303
sS'NOUN'
p1074
F0.9983400000000001
s(lp1075
g123
atp1076
a(S'dysponowa\xc5\x82a'
p1077
(dp1078
S'VERB'
p1079
F1.0
s(lp1080
g47
atp1081
a(S'jeszcze'
p1082
(dp1083
S'PRT'
p1084
F0.930305
sS'CONJ'
p1085
F0.069695
s(lp1086
g135
atp1087
a(S'mniejszymi'
p1088
(dp1089
S'ADJ'
p1090
F1.0
s(lp1091
g146
atp1092
a(S'\xc5\x9brodkami'
p1093
(dp1094
S'NOUN'
p1095
F1.0
s(lp1096
g153
atp1097
a(S'na'
p1098
(dp1099
S'PRT'
p1100
F2e-06
sS'VERB'
p1101
F1.3000000000000001e-05
sS'NOUN'
p1102
F1e-06
sS'ADP'
p1103
F0.9999830000000001
sg544
F1e-06
s(lp1104
g159
atp1105
a(S'realizacj\xc4\x99'
p1106
(dp1107
S'NOUN'
p1108
F1.0
s(lp1109
g184
atp1110
a(S'swojej'
p1111
(dp1112
S'ADJ'
p1113
F1.0
s(lp1114
g190
atp1115
a(S'polityki'
p1116
(dp1117
S'NOUN'
p1118
F1.0
s(lp1119
g198
atp1120
a(g15
(dp1121
g15
F1.0
s(lp1122
g15
atp1123
asS'sl'
p1124
(lp1125
(S'tretji\xc4\x8d'
p1126
(dp1127
S'ADV'
p1128
F1.0
s(lp1129
g13
atp1130
a(g18
(dp1131
g15
F1.0
s(lp1132
g18
atp1133
a(S'nikar'
p1134
(dp1135
S'PRT'
p1136
F1.0
s(lp1137
g29
atp1138
a(S'kaznujmo'
p1139
(dp1140
S'ADV'
p1141
F0.002346
sS'ADJ'
p1142
F0.0011549999999999998
sS'VERB'
p1143
F0.9423199999999998
sS'NOUN'
p1144
F0.054178000000000004
s(lp1145
g47
atp1146
a(S'tistih'
p1147
(dp1148
S'PRON'
p1149
F1.000001
s(lp1150
g53
atp1151
a(g18
(dp1152
g15
F1.0
s(lp1153
tp1154
a(S'ki'
p1155
(dp1156
S'CONJ'
p1157
F1.0
s(lp1158
g59
atp1159
a(S'ne'
p1160
(dp1161
S'PRT'
p1162
F0.998006
sS'CONJ'
p1163
F0.001983
sg544
F1.1e-05
s(lp1164
g77
atp1165
a(S'\xc5\xbeelijo'
p1166
(dp1167
S'VERB'
p1168
F1.0
s(lp1169
g70
atp1170
a(S'prora\xc4\x8duna'
p1171
(dp1172
S'NOUN'
p1173
F1.0
s(lp1174
g88
atp1175
a(g18
(dp1176
g15
F1.0
s(lp1177
tp1178
a(S'da'
p1179
(dp1180
S'PRT'
p1181
F0.000137
sS'CONJ'
p1182
F0.999855
sS'VERB'
p1183
F8e-06
sg544
F0.0
s(lp1184
g103
atp1185
a(S'bi'
p1186
(dp1187
g544
F1e-06
sS'VERB'
p1188
F0.999999
s(lp1189
g95
atp1190
a(S'imela'
p1191
(dp1192
S'VERB'
p1193
F1.0
s(lp1194
g129
atp1195
a(S'eu'
p1196
(dp1197
S'ADV'
p1198
F0.013439
sS'ADJ'
p1199
F0.031984000000000005
sS'VERB'
p1200
F0.005321
sS'NOUN'
p1201
F0.9492560000000001
s(lp1202
g123
atp1203
a(S'na'
p1204
(dp1205
S'ADP'
p1206
F1.0
s(lp1207
g159
atp1208
a(S'voljo'
p1209
(dp1210
S'NOUN'
p1211
F1.0
s(lp1212
g171
atp1213
a(S'\xc5\xa1e'
p1214
(dp1215
S'PRT'
p1216
F1.0
s(lp1217
g135
atp1218
a(S'manj'
p1219
(dp1220
S'ADV'
p1221
F1.0
s(lp1222
g146
atp1223
a(S'sredstev'
p1224
(dp1225
S'NOUN'
p1226
F1.0
s(lp1227
g153
atp1228
a(S'za'
p1229
(dp1230
S'ADV'
p1231
F7e-06
sg544
F1e-06
sS'ADP'
p1232
F0.9999929999999999
s(lp1233
g178
atp1234
a(S'izvajanje'
p1235
(dp1236
S'NOUN'
p1237
F1.0
s(lp1238
g184
atp1239
a(S'svojih'
p1240
(dp1241
S'PRON'
p1242
F1.000002
s(lp1243
g190
atp1244
a(S'politik'
p1245
(dp1246
S'NOUN'
p1247
F1.0
s(lp1248
g198
atp1249
a(g15
(dp1250
g15
F1.0
s(lp1251
g15
atp1252
asS'es'
p1253
(lp1254
(S'en'
p1255
(dp1256
g544
F1.6e-05
sS'CONJ'
p1257
F0.000341
sS'ADP'
p1258
F0.999643
s(lp1259
g13
atp1260
a(S'tercer'
p1261
(dp1262
S'ADJ'
p1263
F1.0
s(lp1264
tp1265
a(S'lugar'
p1266
(dp1267
S'NOUN'
p1268
F1.0
s(lp1269
g13
atp1270
a(g18
(dp1271
g15
F1.0
s(lp1272
g18
atp1273
a(S'no'
p1274
(dp1275
S'ADV'
p1276
F0.999956
sg544
F4.4e-05
s(lp1277
g36
atp1278
a(S'defendamos'
p1279
(dp1280
S'VERB'
p1281
F1.0
s(lp1282
g47
atp1283
a(g254
(dp1284
g544
F6e-06
sS'CONJ'
p1285
F6e-06
sS'ADP'
p1286
F0.999988
s(lp1287
tp1288
a(S'aquellos'
p1289
(dp1290
S'PRON'
p1291
F1.0
s(lp1292
g53
atp1293
a(S'que'
p1294
(dp1295
g544
F0.0
sS'CONJ'
p1296
F1.0
s(lp1297
g59
atp1298
a(S'no'
p1299
(dp1300
S'ADV'
p1301
F1.0
sg544
F0.0
s(lp1302
g77
atp1303
a(S'desean'
p1304
(dp1305
S'VERB'
p1306
F1.0
s(lp1307
g70
atp1308
a(S'un'
p1309
(dp1310
g544
F1.8e-05
sS'DET'
p1311
F0.999982
s(lp1312
g254
atp1313
a(S'presupuesto'
p1314
(dp1315
S'VERB'
p1316
F0.327097
sS'NOUN'
p1317
F0.672903
s(lp1318
g88
atp1319
a(S'de'
p1320
(dp1321
S'CONJ'
p1322
F1.0
s(lp1323
tp1324
a(S'modo'
p1325
(dp1326
S'CONJ'
p1327
F1.0
s(lp1328
g95
atp1329
a(S'que'
p1330
(dp1331
S'CONJ'
p1332
F1.0
s(lp1333
g103
atp1334
a(S'la'
p1335
(dp1336
S'PRON'
p1337
F0.0
sS'DET'
p1338
F1.0
sS'NOUN'
p1339
F0.0
sg544
F0.0
s(lp1340
g111
atp1341
a(S'ue'
p1342
(dp1343
S'VERB'
p1344
F1e-06
sS'NOUN'
p1345
F0.999999
s(lp1346
g123
atp1347
a(S'tenga'
p1348
(dp1349
S'VERB'
p1350
F1.0
s(lp1351
g129
atp1352
a(S'cada'
p1353
(dp1354
S'ADJ'
p1355
F1.0
s(lp1356
g146
atp1357
a(S'vez'
p1358
(dp1359
S'NOUN'
p1360
F1.0
s(lp1361
tp1362
a(S'menos'
p1363
(dp1364
S'ADV'
p1365
F1.0
s(lp1366
g146
atp1367
a(S'recursos'
p1368
(dp1369
S'NOUN'
p1370
F1.0
s(lp1371
g153
atp1372
a(g254
(dp1373
g544
F2e-06
sS'CONJ'
p1374
F4.6e-05
sS'ADP'
p1375
F0.999952
s(lp1376
g159
atp1377
a(S'su'
p1378
(dp1379
S'PRON'
p1380
F1.0
s(lp1381
g165
atp1382
a(S'disposici\xc3\xb3n'
p1383
(dp1384
S'NOUN'
p1385
F1.0
s(lp1386
g171
atp1387
a(S'para'
p1388
(dp1389
S'CONJ'
p1390
F0.952807
sS'ADP'
p1391
F0.047193
s(lp1392
g178
atp1393
a(S'llevar'
p1394
(dp1395
S'VERB'
p1396
F1.0
s(lp1397
tp1398
a(g254
(dp1399
g544
F0.000829
sS'CONJ'
p1400
F0.000137
sS'ADP'
p1401
F0.999034
s(lp1402
g334
atp1403
a(S'cabo'
p1404
(dp1405
S'NOUN'
p1406
F1.0
s(lp1407
g184
atp1408
a(S'sus'
p1409
(dp1410
S'PRON'
p1411
F1.0
s(lp1412
g190
atp1413
a(S'pol\xc3\xadticas'
p1414
(dp1415
S'NOUN'
p1416
F0.40608
sS'ADJ'
p1417
F0.59392
s(lp1418
g198
atp1419
a(g15
(dp1420
g15
F1.0
s(lp1421
g15
atp1422
as.