(dp0
S'fr'
p1
(lp2
(S'non'
p3
(dp4
S'ADV'
p5
F0.998279
sS'X'
p6
F0.001721
s(lp7
S'no'
p8
atp9
a(S','
p10
(dp11
S'.'
p12
F1.0
s(lp13
g10
atp14
a(S'\xc3\xa7a'
p15
(dp16
S'PRON'
p17
F1.0
s(lp18
S'it'
p19
atp20
a(S'ne'
p21
(dp22
S'ADV'
p23
F1.0
s(lp24
tp25
a(S'marche'
p26
(dp27
S'VERB'
p28
F0.304287
sS'NOUN'
p29
F0.695713
s(lp30
S'work'
p31
atp32
a(S'pas'
p33
(dp34
S'ADV'
p35
F0.996999
sS'NOUN'
p36
F0.003001
s(lp37
S'not'
p38
atp39
a(S'comme'
p40
(dp41
S'ADV'
p42
F0.49336
sS'CONJ'
p43
F0.50664
s(lp44
S'like'
p45
atp46
a(S'\xc3\xa7a'
p47
(dp48
S'PRON'
p49
F1.0
s(lp50
S'that'
p51
atp52
a(g12
(dp53
g12
F1.0
s(lp54
g12
atp55
asS'en'
p56
(lp57
(g8
(dp58
S'ADV'
p59
F0.436438
sg6
F0.475465
sS'DET'
p60
F0.087947
sS'NOUN'
p61
F0.00015
s(lp62
g8
atp63
a(g10
(dp64
g12
F1.0
s(lp65
g10
atp66
a(g19
(dp67
S'PRON'
p68
F1.0
s(lp69
g19
atp70
a(S'does'
p71
(dp72
S'VERB'
p73
F0.999999
sS'NOUN'
p74
F1e-06
s(lp75
g71
atp76
a(g38
(dp77
S'ADV'
p78
F1.0
s(lp79
g38
atp80
a(g31
(dp81
S'VERB'
p82
F0.489577
sS'NOUN'
p83
F0.510423
s(lp84
g31
atp85
a(g45
(dp86
S'VERB'
p87
F0.009004
sS'ADJ'
p88
F0.000282
sS'ADP'
p89
F0.990715
s(lp90
g45
atp91
a(g51
(dp92
S'ADV'
p93
F0.020682
sS'DET'
p94
F0.979105
sS'ADP'
p95
F0.000213
s(lp96
g51
atp97
a(g12
(dp98
g12
F1.0
s(lp99
g12
atp100
asS'nl'
p101
(lp102
(S'nee'
p103
(dp104
g6
F1.0
s(lp105
g8
atp106
a(g10
(dp107
g12
F1.0
s(lp108
g10
atp109
a(S'zo'
p110
(dp111
S'ADV'
p112
F0.999718
sg6
F0.0
sS'CONJ'
p113
F0.000282
s(lp114
g51
atp115
a(S'gaat'
p116
(dp117
S'VERB'
p118
F1.0
s(lp119
g71
atp120
a(S'het'
p121
(dp122
S'PRON'
p123
F0.920288
sS'DET'
p124
F0.079712
s(lp125
g19
atp126
a(S'niet'
p127
(dp128
S'ADV'
p129
F0.999993
sS'PRON'
p130
F0.0
sS'VERB'
p131
F7e-06
sg6
F0.0
s(lp132
g38
atp133
a(g12
(dp134
g12
F1.0
s(lp135
g12
atp136
asS'de'
p137
(lp138
(S'nein'
p139
(dp140
S'PRT'
p141
F1.0
s(lp142
g8
atp143
a(g10
(dp144
g12
F1.0
s(lp145
g10
atp146
a(S'so'
p147
(dp148
S'ADV'
p149
F0.999996
sS'PRON'
p150
F4e-06
s(lp151
g19
atp152
a(S'funktioniert'
p153
(dp154
S'VERB'
p155
F0.972153
sS'ADJ'
p156
F0.024387
s(lp157
g31
atp158
a(S'das'
p159
(dp160
S'PRON'
p161
F0.902196
sS'DET'
p162
F0.09691
s(lp163
g51
atp164
a(S'nicht'
p165
(dp166
S'PRT'
p167
F1.0
s(lp168
g38
atp169
a(g12
(dp170
g12
F1.0
s(lp171
g12
atp172
asS'it'
p173
(lp174
(S'no'
p175
(dp176
S'ADV'
p177
F0.989005
sS'NOUN'
p178
F0.010995
s(lp179
g8
atp180
a(g10
(dp181
g12
F1.0
s(lp182
g10
atp183
a(S'non'
p184
(dp185
S'ADV'
p186
F1.0
s(lp187
g38
atp188
a(S'funziona'
p189
(dp190
S'VERB'
p191
F1.0
s(lp192
g31
atp193
a(S'cos\xc3\xac'
p194
(dp195
S'ADV'
p196
F0.999786
sS'CONJ'
p197
F0.000214
s(lp198
g45
atp199
a(g12
(dp200
g12
F1.0
s(lp201
g12
atp202
asS'sk'
p203
(lp204
(S'nie'
p205
(dp206
g6
F1.0
s(lp207
g8
atp208
a(g10
(dp209
g12
F1.0
s(lp210
g10
atp211
a(S'takto'
p212
(dp213
S'PRON'
p214
F0.994855
sg6
F0.005145
s(lp215
g45
atp216
a(S'to'
p217
(dp218
S'PRON'
p219
F0.980664
sS'CONJ'
p220
F0.00381
sg6
F0.015527
s(lp221
g19
atp222
a(S'nefunguje'
p223
(dp224
S'VERB'
p225
F1.0
s(lp226
g31
atp227
a(g12
(dp228
g12
F1.0
s(lp229
g12
atp230
asS'pl'
p231
(lp232
(S'nie'
p233
(dp234
S'ADV'
p235
F0.000519
sS'PRT'
p236
F0.972548
sS'CONJ'
p237
F0.026659
sS'NOUN'
p238
F0.00026
sS'PRON'
p239
F1.4e-05
s(lp240
g8
atp241
a(g10
(dp242
g6
F0.0
sg12
F1.0
s(lp243
g10
atp244
a(S'tak'
p245
(dp246
S'ADV'
p247
F0.644875
sS'NOUN'
p248
F7.6e-05
sS'PRT'
p249
F0.348586
sg6
F7.8e-05
sS'CONJ'
p250
F0.006368
sS'ADJ'
p251
F1.7e-05
s(lp252
tp253
a(S'to'
p254
(dp255
S'NOUN'
p256
F0.19798700000000002
sS'ADP'
p257
F1e-05
sS'PRT'
p258
F0.101035
sg6
F3.6e-05
sS'CONJ'
p259
F0.099976
sS'ADJ'
p260
F0.600957
s(lp261
g19
atp262
a(S'nie'
p263
(dp264
S'ADV'
p265
F1.9e-05
sS'PRT'
p266
F0.99712
sS'CONJ'
p267
F0.002817
sS'NOUN'
p268
F2.1e-05
sS'PRON'
p269
F2.3e-05
s(lp270
g38
atp271
a(S'dzia\xc5\x82a'
p272
(dp273
S'VERB'
p274
F0.981464
sS'NOUN'
p275
F0.018536
s(lp276
g31
atp277
a(g12
(dp278
g12
F1.0
s(lp279
g12
atp280
asS'sl'
p281
(lp282
(S'ne'
p283
(dp284
S'PRT'
p285
F0.990107
sS'CONJ'
p286
F0.008343
sg6
F0.0015500000000000002
s(lp287
g8
atp288
a(g10
(dp289
g12
F1.0
s(lp290
g10
atp291
a(S'tako'
p292
(dp293
S'ADV'
p294
F0.464841
sS'PRON'
p295
F0.006454
sS'CONJ'
p296
F0.528706
s(lp297
g19
atp298
a(S'se'
p299
(dp300
S'PRON'
p301
F0.999994
sg6
F6e-06
s(lp302
g71
atp303
a(S'ne'
p304
(dp305
S'PRT'
p306
F0.996521
sS'CONJ'
p307
F0.003427
sg6
F5.3e-05
s(lp308
g38
atp309
a(S'dela'
p310
(dp311
S'VERB'
p312
F0.527225
sS'NOUN'
p313
F0.472776
s(lp314
g31
atp315
a(g12
(dp316
g12
F1.0
s(lp317
g12
atp318
asS'es'
p319
(lp320
(S'no'
p321
(dp322
S'ADV'
p323
F0.948077
sg6
F0.051923
s(lp324
g8
atp325
a(g10
(dp326
g12
F1.0
s(lp327
g10
atp328
a(S'as\xc3\xad'
p329
(dp330
S'ADV'
p331
F0.274614
sS'CONJ'
p332
F0.725386
s(lp333
g19
atp334
a(S'no'
p335
(dp336
S'ADV'
p337
F0.999999
sg6
F1e-06
s(lp338
g38
atp339
a(S'funciona'
p340
(dp341
S'VERB'
p342
F1.0
s(lp343
g31
atp344
a(g12
(dp345
g12
F1.0
s(lp346
g12
atp347
as.