(dp0
S'fr'
p1
(lp2
(S'il'
p3
(dp4
S'PRON'
p5
F1.0
s(lp6
S'clearly'
p7
atp8
a(S'est'
p9
(dp10
S'VERB'
p11
F0.999994
sS'NOUN'
p12
F6e-06
s(lp13
tp14
a(S'clair'
p15
(dp16
S'ADV'
p17
F0.847454
sS'NOUN'
p18
F0.00711
sS'ADJ'
p19
F0.145436
s(lp20
g7
atp21
a(S"qu'"
p22
(dp23
S'NOUN'
p24
F0.119708
sS'VERB'
p25
F0.47938400000000003
sS'ADJ'
p26
F0.400909
s(lp27
S'there'
p28
atp29
a(S'il'
p30
(dp31
S'PRON'
p32
F1.0
s(lp33
tp34
a(S'existe'
p35
(dp36
S'VERB'
p37
F1.0
s(lp38
g28
atp39
a(S'actuellement'
p40
(dp41
S'ADV'
p42
F1.0
s(lp43
S'is'
p44
atp45
a(S'des'
p46
(dp47
S'DET'
p48
F0.000119
sS'ADP'
p49
F0.999881
s(lp50
tp51
a(S'pressions'
p52
(dp53
S'VERB'
p54
F0.0
sS'NOUN'
p55
F1.0
s(lp56
S'pressure'
p57
atp58
a(S'de'
p59
(dp60
S'ADP'
p61
F1.0
s(lp62
S'in'
p63
atp64
a(S'ce'
p65
(dp66
S'PRON'
p67
F1.0
s(lp68
S'that'
p69
atp70
a(S'genre'
p71
(dp72
S'NOUN'
p73
F1.0
s(lp74
S'moment'
p75
atp76
a(S','
p77
(dp78
S'.'
p79
F1.0
s(lp80
g77
atp81
a(S'mais'
p82
(dp83
S'CONJ'
p84
F1.0
s(lp85
S'but'
p86
atp87
a(S'le'
p88
(dp89
S'PRON'
p90
F0.03263
sS'DET'
p91
F0.96737
s(lp92
S'the'
p93
atp94
a(S'fait'
p95
(dp96
S'ADJ'
p97
F0.017742
sS'VERB'
p98
F0.032705
sS'NOUN'
p99
F0.949553
s(lp100
S'fact'
p101
atp102
a(S'est'
p103
(dp104
S'VERB'
p105
F0.993352
sS'NOUN'
p106
F0.006648
s(lp107
S'is'
p108
atp109
a(S'que'
p110
(dp111
S'ADV'
p112
F0.112116
sS'PRON'
p113
F0.036726
sS'CONJ'
p114
F0.851159
s(lp115
S'that'
p116
atp117
a(S'la'
p118
(dp119
S'PRON'
p120
F0.000182
sS'DET'
p121
F0.999818
sS'NOUN'
p122
F0.0
s(lp123
tp124
a(S'gr\xc3\xa8ce'
p125
(dp126
S'ADJ'
p127
F0.000513
sS'VERB'
p128
F8.499999999999998e-05
sS'NOUN'
p129
F0.999403
s(lp130
S'greece'
p131
atp132
a(S'a'
p133
(dp134
S'VERB'
p135
F1.0
s(lp136
tp137
a(S'b\xc3\xa9n\xc3\xa9fici\xc3\xa9'
p138
(dp139
S'VERB'
p140
F1.0
s(lp141
S'enjoyed'
p142
atp143
a(S'de'
p144
(dp145
S'ADP'
p146
F1.0
s(lp147
tp148
a(S'taux'
p149
(dp150
S'NOUN'
p151
F1.0
s(lp152
S'rate'
p153
atp154
a(S'tr\xc3\xa8s'
p155
(dp156
S'ADV'
p157
F1.0
s(lp158
S'major'
p159
atp160
a(S'avantageux'
p161
(dp162
S'ADJ'
p163
F1.0
s(lp164
S'advantages'
p165
atp166
a(S'gr\xc3\xa2ce'
p167
(dp168
S'NOUN'
p169
F1.0
s(lp170
S'thanks'
p171
atp172
a(S'\xc3\xa0'
p173
(dp174
S'ADP'
p175
F1.0
s(lp176
S'to'
p177
atp178
a(S'son'
p179
(dp180
S'PRON'
p181
F0.999989
sS'NOUN'
p182
F1.1e-05
s(lp183
tp184
a(S'appartenance'
p185
(dp186
S'NOUN'
p187
F1.0
s(lp188
S'being'
p189
atp190
a(S'\xc3\xa0'
p191
(dp192
S'ADP'
p193
F1.0
s(lp194
S'in'
p195
atp196
a(S'la'
p197
(dp198
S'PRON'
p199
F0.000562
sS'DET'
p200
F0.999437
sS'NOUN'
p201
F0.0
s(lp202
S'the'
p203
atp204
a(S'zone'
p205
(dp206
S'VERB'
p207
F0.0007650000000000001
sS'NOUN'
p208
F0.999235
s(lp209
S'area'
p210
atp211
a(S'euro'
p212
(dp213
S'NOUN'
p214
F1.0
s(lp215
S'euro'
p216
atp217
a(g79
(dp218
g79
F1.0
s(lp219
g79
atp220
asS'en'
p221
(lp222
(g7
(dp223
S'ADV'
p224
F1.0
s(lp225
g7
atp226
a(g28
(dp227
S'ADV'
p228
F0.002291
sS'ADJ'
p229
F0.0
sS'DET'
p230
F0.997709
sS'ADP'
p231
F0.0
s(lp232
g28
atp233
a(g44
(dp234
S'VERB'
p235
F1.0
s(lp236
g44
atp237
a(g57
(dp238
S'VERB'
p239
F0.006365
sS'NOUN'
p240
F0.993635
s(lp241
g57
atp242
a(g63
(dp243
S'ADV'
p244
F0.000173
sS'PRT'
p245
F0.000391
sS'ADP'
p246
F0.999436
s(lp247
g63
atp248
a(g69
(dp249
S'ADV'
p250
F0.000273
sS'DET'
p251
F0.987144
sS'ADP'
p252
F0.012583
s(lp253
g69
atp254
a(S'regard'
p255
(dp256
S'VERB'
p257
F0.060529
sS'NOUN'
p258
F0.939471
s(lp259
g255
atp260
a(S'at'
p261
(dp262
S'NOUN'
p263
F1e-06
sS'ADP'
p264
F0.999999
s(lp265
g261
atp266
a(S'the'
p267
(dp268
S'NOUN'
p269
F1e-06
sS'DET'
p270
F0.999999
s(lp271
g267
atp272
a(g75
(dp273
S'NOUN'
p274
F1.0
s(lp275
g75
atp276
a(g77
(dp277
g79
F1.0
s(lp278
g77
atp279
a(g86
(dp280
S'ADV'
p281
F0.001969
sS'CONJ'
p282
F0.998031
sS'NOUN'
p283
F0.0
s(lp284
g86
atp285
a(g93
(dp286
S'NOUN'
p287
F2e-06
sS'DET'
p288
F0.999998
s(lp289
g93
atp290
a(g101
(dp291
S'NOUN'
p292
F1.0
s(lp293
g101
atp294
a(g108
(dp295
S'VERB'
p296
F1.0
s(lp297
g108
atp298
a(g116
(dp299
S'ADV'
p300
F0.001105
sS'DET'
p301
F0.378964
sS'ADP'
p302
F0.619931
s(lp303
g116
atp304
a(g131
(dp305
S'ADV'
p306
F0.012891
sS'ADJ'
p307
F0.009974
sS'VERB'
p308
F0.000123
sS'NOUN'
p309
F0.977013
s(lp310
g131
atp311
a(g142
(dp312
S'VERB'
p313
F1.0
s(lp314
g142
atp315
a(g159
(dp316
S'NOUN'
p317
F0.001253
sS'VERB'
p318
F1.1e-05
sS'ADJ'
p319
F0.998736
s(lp320
g159
atp321
a(g153
(dp322
S'VERB'
p323
F2.1e-05
sS'NOUN'
p324
F0.999979
s(lp325
g153
atp326
a(g165
(dp327
S'VERB'
p328
F0.025725
sS'NOUN'
p329
F0.974275
s(lp330
g165
atp331
a(g171
(dp332
S'VERB'
p333
F0.006795
sS'NOUN'
p334
F0.993205
s(lp335
g171
atp336
a(g177
(dp337
S'ADV'
p338
F0.0
sS'PRT'
p339
F0.999988
sS'ADP'
p340
F1.2e-05
s(lp341
g177
atp342
a(g189
(dp343
S'NOUN'
p344
F0.00742
sS'VERB'
p345
F0.983442
sS'ADJ'
p346
F0.009138
s(lp347
g189
atp348
a(g195
(dp349
S'ADV'
p350
F0.007788
sS'PRT'
p351
F1.9e-05
sS'ADP'
p352
F0.992193
s(lp353
g195
atp354
a(g203
(dp355
S'NOUN'
p356
F4e-06
sS'DET'
p357
F0.999996
s(lp358
g203
atp359
a(g216
(dp360
S'ADV'
p361
F3.2e-05
sS'ADJ'
p362
F0.018732
sS'VERB'
p363
F0.0005799999999999999
sS'NOUN'
p364
F0.980656
s(lp365
g216
atp366
a(g210
(dp367
S'NOUN'
p368
F1.0
s(lp369
g210
atp370
a(g79
(dp371
g79
F1.0
s(lp372
g79
atp373
asS'nl'
p374
(lp375
(S'natuurlijk'
p376
(dp377
S'ADJ'
p378
F1.0
s(lp379
g7
atp380
a(S'komt'
p381
(dp382
S'VERB'
p383
F1.0
s(lp384
g44
atp385
a(S'daar'
p386
(dp387
S'ADV'
p388
F0.803103
sS'CONJ'
p389
F0.196897
s(lp390
g69
atp391
a(S'op'
p392
(dp393
S'ADV'
p394
F0.005401
sS'ADJ'
p395
F0.0
sS'ADP'
p396
F0.994598
s(lp397
g261
atp398
a(S'dit'
p399
(dp400
S'PRON'
p401
F1.0
s(lp402
g267
atp403
a(S'moment'
p404
(dp405
S'NOUN'
p406
F1.0
s(lp407
g75
atp408
a(S'druk'
p409
(dp410
S'ADJ'
p411
F0.008366
sS'VERB'
p412
F0.9426
sS'NOUN'
p413
F0.049034
s(lp414
g57
atp415
a(S'vandaan'
p416
(dp417
S'ADV'
p418
F1.0
s(lp419
g142
atp420
a(g77
(dp421
g79
F1.0
s(lp422
g77
atp423
a(S'maar'
p424
(dp425
S'ADV'
p426
F0.054998
sS'CONJ'
p427
F0.944995
sS'NOUN'
p428
F7e-06
s(lp429
g86
atp430
a(S'feit'
p431
(dp432
S'NOUN'
p433
F1.0
s(lp434
g101
atp435
a(S'is'
p436
(dp437
S'VERB'
p438
F1.0
s(lp439
g108
atp440
a(S'dat'
p441
(dp442
S'PRON'
p443
F0.261907
sS'CONJ'
p444
F0.738093
s(lp445
g116
atp446
a(S'griekenland'
p447
(dp448
S'ADJ'
p449
F0.005231
sS'NOUN'
p450
F0.994768
s(lp451
g131
atp452
a(S'enorme'
p453
(dp454
S'NOUN'
p455
F0.00013
sS'ADJ'
p456
F0.99987
s(lp457
g159
atp458
a(S'rentevoordelen'
p459
(dp460
S'NOUN'
p461
F1.0
s(lp462
g142
atp463
a(S'heeft'
p464
(dp465
S'VERB'
p466
F1.0
s(lp467
g142
atp468
a(S'genoten'
p469
(dp470
S'VERB'
p471
F1.0
s(lp472
tp473
a(S'dankzij'
p474
(dp475
S'ADP'
p476
F1.0
s(lp477
g171
atp478
a(S'de'
p479
(dp480
S'DET'
p481
F1.0
s(lp482
g93
atp483
a(S'toetreding'
p484
(dp485
S'NOUN'
p486
F1.0
s(lp487
g142
atp488
a(S'tot'
p489
(dp490
S'CONJ'
p491
F1.8e-05
sS'ADP'
p492
F0.999982
s(lp493
g177
atp494
a(S'de'
p495
(dp496
S'DET'
p497
F1.0
s(lp498
g203
atp499
a(S'eurozone'
p500
(dp501
S'NOUN'
p502
F1.0
s(lp503
g216
atp504
a(g79
(dp505
g79
F1.0
s(lp506
g79
atp507
asS'de'
p508
(lp509
(S'nat\xc3\xbcrlich'
p510
(dp511
S'ADV'
p512
F0.965419
sS'ADJ'
p513
F0.034581
s(lp514
g7
atp515
a(S'haben'
p516
(dp517
S'VERB'
p518
F0.999876
s(lp519
tp520
a(S'wir'
p521
(dp522
S'PRON'
p523
F1.0
s(lp524
tp525
a(S'dort'
p526
(dp527
S'ADV'
p528
F0.997772
sS'PRT'
p529
F0.002228
s(lp530
g28
atp531
a(S'im'
p532
(dp533
S'ADP'
p534
F1.0
s(lp535
g63
atp536
a(S'moment'
p537
(dp538
S'NOUN'
p539
F0.389273
sS'ADJ'
p540
F0.610368
s(lp541
g75
atp542
a(S'druck'
p543
(dp544
S'VERB'
p545
F1.0
s(lp546
g57
atp547
a(g79
(dp548
g79
F1.0
s(lp549
g77
atp550
a(S'aber'
p551
(dp552
S'ADV'
p553
F0.647495
sS'CONJ'
p554
F0.352505
s(lp555
g86
atp556
a(S'tatsache'
p557
(dp558
S'ADJ'
p559
F0.031748
sS'NOUN'
p560
F0.967437
s(lp561
g101
atp562
a(S'ist'
p563
(dp564
S'VERB'
p565
F1.0
s(lp566
g108
atp567
a(g77
(dp568
g79
F1.0
s(lp569
tp570
a(S'dass'
p571
(dp572
S'CONJ'
p573
F1.0
s(lp574
g116
atp575
a(S'griechenland'
p576
(dp577
S'NOUN'
p578
F0.853074
s(lp579
g131
atp580
a(S'durch'
p581
(dp582
S'PRT'
p583
F0.000482
sS'ADP'
p584
F0.999466
s(lp585
g171
atp586
a(S'den'
p587
(dp588
S'PRON'
p589
F0.000102
sS'DET'
p590
F0.999897
s(lp591
g203
atp592
a(S'euro-beitritt'
p593
(dp594
S'NOUN'
p595
F0.202314
sS'ADJ'
p596
F0.797665
s(lp597
g216
atp598
a(S'riesige'
p599
(dp600
S'ADJ'
p601
F1.0
s(lp602
g159
atp603
a(S'zinsvorteile'
p604
(dp605
S'ADJ'
p606
F0.004712
sS'NOUN'
p607
F0.992136
s(lp608
tp609
a(S'hatte'
p610
(dp611
S'VERB'
p612
F1.0
s(lp613
g142
atp614
a(g79
(dp615
g79
F1.0
s(lp616
g79
atp617
asS'it'
p618
(lp619
(S'chiaramente'
p620
(dp621
S'ADV'
p622
F1.0
s(lp623
g7
atp624
a(S'ci'
p625
(dp626
S'ADV'
p627
F0.005443
sS'PRON'
p628
F0.9944189999999999
sS'NOUN'
p629
F0.000137
s(lp630
g28
atp631
a(S'sono'
p632
(dp633
S'VERB'
p634
F0.999846
sS'NOUN'
p635
F0.000154
s(lp636
g44
atp637
a(S'pressioni'
p638
(dp639
S'NOUN'
p640
F1.0
s(lp641
g57
atp642
a(S'in'
p643
(dp644
S'ADP'
p645
F1.0
s(lp646
g63
atp647
a(S'tal'
p648
(dp649
S'PRON'
p650
F1.0
s(lp651
g69
atp652
a(S'senso'
p653
(dp654
S'NOUN'
p655
F1.0
s(lp656
g255
atp657
a(g77
(dp658
g79
F1.0
s(lp659
g77
atp660
a(S'ma'
p661
(dp662
S'CONJ'
p663
F0.999983
sS'NOUN'
p664
F1.7e-05
s(lp665
g86
atp666
a(S'il'
p667
(dp668
S'DET'
p669
F1.0
s(lp670
g93
atp671
a(S'fatto'
p672
(dp673
S'VERB'
p674
F0.000304
sS'NOUN'
p675
F0.999696
s(lp676
g101
atp677
a(S'\xc3\xa8'
p678
(dp679
S'VERB'
p680
F1.0
s(lp681
g108
atp682
a(S'che'
p683
(dp684
S'PRON'
p685
F0.990132
sS'CONJ'
p686
F0.0096
sS'ADJ'
p687
F0.000269
s(lp688
g116
atp689
a(S'la'
p690
(dp691
S'PRON'
p692
F0.597521
sS'DET'
p693
F0.402479
s(lp694
tp695
a(S'grecia'
p696
(dp697
S'ADJ'
p698
F0.051103
sS'VERB'
p699
F0.5981629999999999
sS'NOUN'
p700
F0.350735
s(lp701
g131
atp702
a(S'ha'
p703
(dp704
S'VERB'
p705
F1.0
s(lp706
tp707
a(S'goduto'
p708
(dp709
S'VERB'
p710
F1.0
s(lp711
g142
atp712
a(S'di'
p713
(dp714
S'CONJ'
p715
F5e-06
sS'ADP'
p716
F0.999995
s(lp717
tp718
a(S'forti'
p719
(dp720
S'NOUN'
p721
F0.012882
sS'ADJ'
p722
F0.987118
s(lp723
g159
atp724
a(S'vantaggi'
p725
(dp726
S'NOUN'
p727
F1.0
s(lp728
g165
atp729
a(g133
(dp730
S'CONJ'
p731
F0.000229
sS'ADP'
p732
F0.999771
s(lp733
g177
atp734
a(S'livello'
p735
(dp736
S'VERB'
p737
F6.4e-05
sS'NOUN'
p738
F0.999936
s(lp739
g153
atp740
a(S'di'
p741
(dp742
S'CONJ'
p743
F4e-06
sS'ADP'
p744
F0.999996
s(lp745
tp746
a(S'tassi'
p747
(dp748
S'VERB'
p749
F0.000368
sS'NOUN'
p750
F0.999633
s(lp751
g153
atp752
a(S'essendo'
p753
(dp754
S'VERB'
p755
F1.0
s(lp756
g189
atp757
a(S'parte'
p758
(dp759
S'VERB'
p760
F0.000281
sS'NOUN'
p761
F0.999719
s(lp762
tp763
a(S'della'
p764
(dp765
S'DEF'
p766
F0.001604
sS'ADP'
p767
F0.998396
s(lp768
g203
atp769
a(S'zona'
p770
(dp771
S'NOUN'
p772
F1.0
s(lp773
g210
atp774
a(S'euro'
p775
(dp776
S'NOUN'
p777
F0.015475
sS'ADJ'
p778
F0.984525
s(lp779
g216
atp780
a(g79
(dp781
g79
F1.0
s(lp782
g79
atp783
asS'sk'
p784
(lp785
(S'je'
p786
(dp787
S'PRON'
p788
F0.000104
sS'VERB'
p789
F0.99982
sS'X'
p790
F7.6e-05
s(lp791
tp792
a(S'zrejm\xc3\xa9'
p793
(dp794
S'ADJ'
p795
F1.0
s(lp796
g7
atp797
a(g77
(dp798
g79
F1.0
s(lp799
tp800
a(S'\xc5\xbee'
p801
(dp802
g790
F0.0009
sS'CONJ'
p803
F0.9991
s(lp804
g28
atp805
a(S'v'
p806
(dp807
g790
F0.000117
sS'ADP'
p808
F0.999884
s(lp809
g63
atp810
a(S'tomto'
p811
(dp812
S'PRON'
p813
F1.0
s(lp814
g69
atp815
a(S'smere'
p816
(dp817
S'NOUN'
p818
F1.0
s(lp819
g255
atp820
a(S'existuje'
p821
(dp822
S'VERB'
p823
F1.0
s(lp824
tp825
a(S'moment\xc3\xa1lne'
p826
(dp827
S'ADV'
p828
F0.196896
sS'ADJ'
p829
F0.803104
s(lp830
g75
atp831
a(S'tlak'
p832
(dp833
S'NOUN'
p834
F1.0
s(lp835
g57
atp836
a(g77
(dp837
g79
F1.0
s(lp838
g77
atp839
a(S'ale'
p840
(dp841
g790
F0.0041389999999999995
sS'CONJ'
p842
F0.995861
s(lp843
g86
atp844
a(S'skuto\xc4\x8dnos\xc5\xa5'
p845
(dp846
S'NOUN'
p847
F1.0
s(lp848
g101
atp849
a(S'je'
p850
(dp851
S'PRON'
p852
F2.7e-05
sS'VERB'
p853
F0.999938
sg790
F3.5e-05
s(lp854
g108
atp855
a(S'tak\xc3\xa1'
p856
(dp857
S'PRON'
p858
F1.0
s(lp859
g28
atp860
a(g77
(dp861
g79
F1.0
s(lp862
tp863
a(S'\xc5\xbee'
p864
(dp865
g790
F0.000554
sS'CONJ'
p866
F0.999446
s(lp867
g116
atp868
a(S'gr\xc3\xa9cko'
p869
(dp870
g790
F1.0
s(lp871
g131
atp872
a(S'vyu\xc5\xbeilo'
p873
(dp874
S'VERB'
p875
F1.0
s(lp876
g142
atp877
a(S've\xc4\xbek\xc3\xa9'
p878
(dp879
S'ADJ'
p880
F1.0
s(lp881
g159
atp882
a(S'v\xc3\xbdhody'
p883
(dp884
S'NOUN'
p885
F1.0
s(lp886
g165
atp887
a(g806
(dp888
g790
F0.000138
sS'ADP'
p889
F0.999862
s(lp890
tp891
a(S'r\xc3\xa1mci'
p892
(dp893
S'NOUN'
p894
F1.0
s(lp895
g203
atp896
a(S'\xc3\xbarokov\xc3\xbdch'
p897
(dp898
S'ADJ'
p899
F1.0
s(lp900
tp901
a(S'sadzieb'
p902
(dp903
S'NOUN'
p904
F1.0
s(lp905
g153
atp906
a(S'v\xc4\x8faka'
p907
(dp908
S'NOUN'
p909
F0.004385
sS'ADP'
p910
F0.995615
s(lp911
g171
atp912
a(S'\xc4\x8dlenstvu'
p913
(dp914
S'NOUN'
p915
F1.0
s(lp916
g189
atp917
a(g806
(dp918
g790
F0.000506
sS'ADP'
p919
F0.999495
s(lp920
g195
atp921
a(S'euroz\xc3\xb3ne'
p922
(dp923
S'NOUN'
p924
F1.0
s(lp925
g216
atp926
a(g79
(dp927
g79
F1.0
s(lp928
g79
atp929
asS'pl'
p930
(lp931
(S'rzeczywi\xc5\x9bcie'
p932
(dp933
S'ADV'
p934
F0.95625
sS'PRT'
p935
F0.04375
s(lp936
g7
atp937
a(S'obecnie'
p938
(dp939
S'ADV'
p940
F1.0
s(lp941
g75
atp942
a(S'odczuwalna'
p943
(dp944
S'NOUN'
p945
F0.0011099999999999999
sS'VERB'
p946
F2.4e-05
sS'ADJ'
p947
F0.998867
s(lp948
tp949
a(S'jest'
p950
(dp951
S'VERB'
p952
F1.0
s(lp953
g44
atp954
a(S'presja'
p955
(dp956
S'NOUN'
p957
F1.0
s(lp958
g57
atp959
a(S'z'
p960
(dp961
g790
F5e-06
sS'VERB'
p962
F0.000108
sS'NOUN'
p963
F1e-06
sS'ADP'
p964
F0.999882
sS'PRT'
p965
F5e-06
s(lp966
g63
atp967
a(S'ich'
p968
(dp969
S'PRON'
p970
F0.9999980000000002
sg790
F2e-06
s(lp971
tp972
a(S'strony'
p973
(dp974
S'NOUN'
p975
F1.0
s(lp976
g267
atp977
a(g77
(dp978
g790
F0.0
sg79
F1.0
s(lp979
g77
atp980
a(S'ale'
p981
(dp982
S'PRT'
p983
F0.001439
sS'CONJ'
p984
F0.998463
sS'NOUN'
p985
F9.8e-05
s(lp986
g86
atp987
a(S'faktem'
p988
(dp989
S'NOUN'
p990
F1.0
s(lp991
g101
atp992
a(S'jest'
p993
(dp994
S'VERB'
p995
F1.0
s(lp996
g108
atp997
a(g77
(dp998
g790
F0.0
sg79
F1.0
s(lp999
tp1000
a(S'\xc5\xbce'
p1001
(dp1002
S'PRT'
p1003
F0.000335
sS'CONJ'
p1004
F0.9996649999999999
s(lp1005
g116
atp1006
a(S'dzi\xc4\x99ki'
p1007
(dp1008
S'NOUN'
p1009
F0.589176
sS'ADP'
p1010
F0.410824
s(lp1011
tp1012
a(S'przynale\xc5\xbcno\xc5\x9bci'
p1013
(dp1014
S'NOUN'
p1015
F1.0
s(lp1016
g171
atp1017
a(S'do'
p1018
(dp1019
g790
F0.0
sS'NOUN'
p1020
F5e-06
sS'ADP'
p1021
F0.999996
s(lp1022
g177
atp1023
a(S'strefy'
p1024
(dp1025
S'NOUN'
p1026
F1.0
s(lp1027
tp1028
a(S'euro'
p1029
(dp1030
S'NOUN'
p1031
F1.0
s(lp1032
g216
atp1033
a(S'grecja'
p1034
(dp1035
S'ADJ'
p1036
F0.068586
sS'VERB'
p1037
F0.000834
sS'NOUN'
p1038
F0.930578
s(lp1039
g131
atp1040
a(S'korzysta\xc5\x82a'
p1041
(dp1042
S'VERB'
p1043
F1.0
s(lp1044
tp1045
a(g960
(dp1046
S'PRT'
p1047
F2.1e-05
sS'VERB'
p1048
F2e-06
sS'NOUN'
p1049
F0.0
sS'ADP'
p1050
F0.999976
sg790
F0.0
s(lp1051
g142
atp1052
a(S'zasadniczych'
p1053
(dp1054
S'ADJ'
p1055
F1.000001
s(lp1056
g159
atp1057
a(S'korzy\xc5\x9bci'
p1058
(dp1059
S'NOUN'
p1060
F1.0
s(lp1061
g165
atp1062
a(g79
(dp1063
g79
F1.0
s(lp1064
g79
atp1065
asS'sl'
p1066
(lp1067
(S'seveda'
p1068
(dp1069
S'PRT'
p1070
F1.0
s(lp1071
g7
atp1072
a(g806
(dp1073
S'ADP'
p1074
F1.0
s(lp1075
g63
atp1076
a(S'tem'
p1077
(dp1078
S'ADV'
p1079
F1.6e-05
sS'PRON'
p1080
F0.999982
sS'NOUN'
p1081
F1e-06
s(lp1082
g69
atp1083
a(S'smislu'
p1084
(dp1085
S'NOUN'
p1086
F1.0
s(lp1087
g255
atp1088
a(S'trenutno'
p1089
(dp1090
S'ADV'
p1091
F0.99957
sS'ADJ'
p1092
F0.00043000000000000004
s(lp1093
g75
atp1094
a(S'obstaja'
p1095
(dp1096
S'VERB'
p1097
F1.0
s(lp1098
g28
atp1099
a(S'pritisk'
p1100
(dp1101
S'NOUN'
p1102
F1.0
s(lp1103
g57
atp1104
a(g77
(dp1105
g79
F1.0
s(lp1106
g77
atp1107
a(S'dejstvo'
p1108
(dp1109
S'NOUN'
p1110
F1.0
s(lp1111
g101
atp1112
a(S'pa'
p1113
(dp1114
g790
F2e-05
sS'CONJ'
p1115
F0.99998
s(lp1116
g86
atp1117
a(S'je'
p1118
(dp1119
S'PRON'
p1120
F0.023201
sS'VERB'
p1121
F0.976773
sg790
F2.6e-05
s(lp1122
g93
atp1123
a(g77
(dp1124
g79
F1.0
s(lp1125
tp1126
a(S'da'
p1127
(dp1128
S'PRT'
p1129
F4e-06
sS'CONJ'
p1130
F0.999979
sS'VERB'
p1131
F1.7e-05
sg790
F1e-06
s(lp1132
g116
atp1133
a(S'je'
p1134
(dp1135
S'PRON'
p1136
F0.001543
sS'VERB'
p1137
F0.998455
sg790
F1e-06
s(lp1138
g108
atp1139
a(S'gr\xc4\x8dija'
p1140
(dp1141
S'ADJ'
p1142
F0.000715
sS'VERB'
p1143
F0.000225
sS'NOUN'
p1144
F0.9990589999999999
s(lp1145
g131
atp1146
a(S'bila'
p1147
(dp1148
S'VERB'
p1149
F1.0
s(lp1150
tp1151
a(S'dele\xc5\xbena'
p1152
(dp1153
S'ADJ'
p1154
F1.0
s(lp1155
g142
atp1156
a(S'velikih'
p1157
(dp1158
S'ADJ'
p1159
F0.9999989999999999
s(lp1160
g159
atp1161
a(S'prednosti'
p1162
(dp1163
S'NOUN'
p1164
F1.0000010000000001
s(lp1165
g165
atp1166
a(S'menjalnega'
p1167
(dp1168
S'ADJ'
p1169
F1.0
s(lp1170
tp1171
a(S'te\xc4\x8daja'
p1172
(dp1173
S'NOUN'
p1174
F1.0
s(lp1175
g153
atp1176
a(g77
(dp1177
g79
F1.0
s(lp1178
tp1179
a(S'ker'
p1180
(dp1181
S'CONJ'
p1182
F1.0
s(lp1183
g171
atp1184
a(S'je'
p1185
(dp1186
S'PRON'
p1187
F0.003089
sS'VERB'
p1188
F0.996907
sg790
F4e-06
s(lp1189
tp1190
a(S'del'
p1191
(dp1192
g790
F6.1e-05
sS'VERB'
p1193
F0.037768
sS'NOUN'
p1194
F0.9621700000000001
s(lp1195
g203
atp1196
a(S'obmo\xc4\x8dja'
p1197
(dp1198
S'NOUN'
p1199
F0.9999999999999999
s(lp1200
g210
atp1201
a(S'evra'
p1202
(dp1203
S'NOUN'
p1204
F1.0
s(lp1205
g216
atp1206
a(g79
(dp1207
g79
F1.0
s(lp1208
g79
atp1209
asS'es'
p1210
(lp1211
(S'claramente'
p1212
(dp1213
S'ADV'
p1214
F1.0
s(lp1215
g7
atp1216
a(S'hay'
p1217
(dp1218
S'VERB'
p1219
F1.0
s(lp1220
g28
atp1221
a(S'presi\xc3\xb3n'
p1222
(dp1223
S'NOUN'
p1224
F1.0
s(lp1225
g57
atp1226
a(S'en'
p1227
(dp1228
g790
F0.0
sS'CONJ'
p1229
F1e-06
sS'ADP'
p1230
F0.999999
s(lp1231
g63
atp1232
a(S'este'
p1233
(dp1234
S'PRON'
p1235
F0.999828
sS'NOUN'
p1236
F0.000172
s(lp1237
g69
atp1238
a(S'aspecto'
p1239
(dp1240
S'NOUN'
p1241
F1.0
s(lp1242
g255
atp1243
a(S'actualmente'
p1244
(dp1245
S'ADV'
p1246
F1.0
s(lp1247
g75
atp1248
a(S'pero'
p1249
(dp1250
S'CONJ'
p1251
F0.318321
sS'NOUN'
p1252
F0.681679
s(lp1253
g86
atp1254
a(S'el'
p1255
(dp1256
S'PRON'
p1257
F0.000139
sS'DET'
p1258
F0.999861
s(lp1259
g93
atp1260
a(S'hecho'
p1261
(dp1262
S'ADJ'
p1263
F0.126451
sS'VERB'
p1264
F0.056112
sS'NOUN'
p1265
F0.817437
s(lp1266
g101
atp1267
a(S'es'
p1268
(dp1269
S'VERB'
p1270
F1.0
s(lp1271
g108
atp1272
a(S'que'
p1273
(dp1274
g790
F1.1e-05
sS'CONJ'
p1275
F0.999989
s(lp1276
g116
atp1277
a(S'grecia'
p1278
(dp1279
S'ADJ'
p1280
F0.000176
sS'VERB'
p1281
F0.810278
sS'NOUN'
p1282
F0.189546
s(lp1283
g131
atp1284
a(S'goz\xc3\xb3'
p1285
(dp1286
S'VERB'
p1287
F1.0
s(lp1288
g142
atp1289
a(S'de'
p1290
(dp1291
g790
F0.0
sS'CONJ'
p1292
F2.6e-05
sS'ADP'
p1293
F0.999974
s(lp1294
tp1295
a(S'las'
p1296
(dp1297
S'PRON'
p1298
F0.0
sS'DET'
p1299
F1.0
s(lp1300
g171
atp1301
a(S'mayores'
p1302
(dp1303
S'ADJ'
p1304
F1.0
s(lp1305
g159
atp1306
a(S'bonificaciones'
p1307
(dp1308
S'NOUN'
p1309
F1.0
s(lp1310
g153
atp1311
a(S'de'
p1312
(dp1313
g790
F2.9e-05
sS'CONJ'
p1314
F0.000449
sS'ADP'
p1315
F0.999522
s(lp1316
tp1317
a(S'intereses'
p1318
(dp1319
S'NOUN'
p1320
F1.0
s(lp1321
g165
atp1322
a(S'por'
p1323
(dp1324
S'ADP'
p1325
F1.0
s(lp1326
g177
atp1327
a(S'encontrarse'
p1328
(dp1329
S'VERB'
p1330
F1.0
s(lp1331
g189
atp1332
a(S'en'
p1333
(dp1334
g790
F0.0
sS'CONJ'
p1335
F1e-06
sS'ADP'
p1336
F0.999999
s(lp1337
g195
atp1338
a(S'la'
p1339
(dp1340
S'NOUN'
p1341
F0.0
sS'PRON'
p1342
F0.0
sS'DET'
p1343
F0.999999
sg790
F0.0
s(lp1344
g203
atp1345
a(S'zona'
p1346
(dp1347
S'NOUN'
p1348
F1.0
s(lp1349
g210
atp1350
a(S'del'
p1351
(dp1352
S'ADP'
p1353
F1.0
s(lp1354
tp1355
a(S'euro'
p1356
(dp1357
S'NOUN'
p1358
F1.0
s(lp1359
g216
atp1360
a(g79
(dp1361
g79
F1.0
s(lp1362
g79
atp1363
as.