(dp0
S'fr'
p1
(lp2
(S'donc'
p3
(dp4
S'ADV'
p5
F1.0
s(lp6
S'therefore'
p7
atp8
a(S','
p9
(dp10
S'.'
p11
F1.0
s(lp12
g9
atp13
a(S'vos'
p14
(dp15
S'PRON'
p16
F1.0
s(lp17
S'your'
p18
atp19
a(S'exigences'
p20
(dp21
S'NOUN'
p22
F1.0
s(lp23
S'demands'
p24
atp25
a(S'peuvent'
p26
(dp27
S'VERB'
p28
F1.0
s(lp29
S'can'
p30
atp31
a(S"m'"
p32
(dp33
S'NOUN'
p34
F0.087886
sS'VERB'
p35
F0.7995690000000001
sS'ADJ'
p36
F0.112546
s(lp37
S'me'
p38
atp39
a(S'aider'
p40
(dp41
S'VERB'
p42
F1.0
s(lp43
S'help'
p44
atp45
a(S'et'
p46
(dp47
S'CONJ'
p48
F1.0
s(lp49
S'and'
p50
atp51
a(S'peuvent'
p52
(dp53
S'VERB'
p54
F1.0
s(lp55
S'can'
p56
atp57
a(S'aider'
p58
(dp59
S'VERB'
p60
F1.0
s(lp61
S'help'
p62
atp63
a(S'la'
p64
(dp65
S'PRON'
p66
F6e-06
sS'DET'
p67
F0.999994
sS'NOUN'
p68
F0.0
s(lp69
S'the'
p70
atp71
a(S'commission'
p72
(dp73
S'NOUN'
p74
F1.0
s(lp75
S'commission'
p76
atp77
a(S'\xc3\xa0'
p78
(dp79
S'ADP'
p80
F1.0
s(lp81
S'to'
p82
atp83
a(S'faire'
p84
(dp85
S'VERB'
p86
F1.0
s(lp87
S'do'
p88
atp89
a(S'mieux'
p90
(dp91
S'ADV'
p92
F1.0
s(lp93
S'better'
p94
atp95
a(g11
(dp96
g11
F1.0
s(lp97
g11
atp98
asS'en'
p99
(lp100
(g7
(dp101
S'ADV'
p102
F1.0
s(lp103
g7
atp104
a(g9
(dp105
g11
F1.0
s(lp106
g9
atp107
a(g18
(dp108
S'PRON'
p109
F1.0
s(lp110
g18
atp111
a(g24
(dp112
S'VERB'
p113
F3e-06
sS'NOUN'
p114
F0.999997
s(lp115
g24
atp116
a(g30
(dp117
S'VERB'
p118
F0.999999
sS'NOUN'
p119
F1e-06
s(lp120
g30
atp121
a(g44
(dp122
S'VERB'
p123
F0.999998
sS'NOUN'
p124
F2e-06
s(lp125
g44
atp126
a(g38
(dp127
S'PRON'
p128
F0.999966
sS'X'
p129
F3.4e-05
s(lp130
g38
atp131
a(g50
(dp132
S'CONJ'
p133
F0.999999
sS'NOUN'
p134
F1e-06
s(lp135
g50
atp136
a(g56
(dp137
S'VERB'
p138
F0.999998
sS'NOUN'
p139
F2e-06
s(lp140
g56
atp141
a(g62
(dp142
S'VERB'
p143
F0.999999
sS'NOUN'
p144
F1e-06
s(lp145
g62
atp146
a(g70
(dp147
S'NOUN'
p148
F1e-06
sS'DET'
p149
F0.999999
s(lp150
g70
atp151
a(g76
(dp152
S'VERB'
p153
F5.4999999999999995e-05
sS'NOUN'
p154
F0.999946
s(lp155
g76
atp156
a(g82
(dp157
S'ADV'
p158
F0.0
sS'PRT'
p159
F1.0
sS'ADP'
p160
F0.0
s(lp161
g82
atp162
a(g88
(dp163
S'VERB'
p164
F1.0
sS'NOUN'
p165
F0.0
s(lp166
g88
atp167
a(g94
(dp168
S'ADV'
p169
F0.740207
sS'NOUN'
p170
F0.000171
sS'VERB'
p171
F0.000155
sS'ADJ'
p172
F0.259466
s(lp173
g94
atp174
a(g11
(dp175
g11
F1.0
s(lp176
g11
atp177
asS'nl'
p178
(lp179
(S'de'
p180
(dp181
S'DET'
p182
F1.0
s(lp183
tp184
a(S'eisen'
p185
(dp186
S'VERB'
p187
F0.0
sS'NOUN'
p188
F1.0
s(lp189
tp190
a(S'die'
p191
(dp192
S'PRON'
p193
F1.0
s(lp194
tp195
a(S'u'
p196
(dp197
S'PRON'
p198
F0.9997659999999999
sS'NOUN'
p199
F0.00023500000000000002
s(lp200
g18
atp201
a(S'stelt'
p202
(dp203
S'VERB'
p204
F0.999694
sS'NOUN'
p205
F0.000306
s(lp206
g24
atp207
a(g9
(dp208
g11
F1.0
s(lp209
g9
atp210
a(S'kunnen'
p211
(dp212
S'VERB'
p213
F0.9999990000000001
sS'NOUN'
p214
F1e-06
s(lp215
g30
atp216
a(S'mij'
p217
(dp218
S'PRON'
p219
F1.0
s(lp220
g38
atp221
a(S'en'
p222
(dp223
S'CONJ'
p224
F1.0
s(lp225
g50
atp226
a(S'de'
p227
(dp228
S'DET'
p229
F1.0
s(lp230
g70
atp231
a(S'commissie'
p232
(dp233
S'NOUN'
p234
F1.0
s(lp235
g76
atp236
a(S'dus'
p237
(dp238
S'ADV'
p239
F0.998135
sS'CONJ'
p240
F0.001865
s(lp241
tp242
a(S'helpen'
p243
(dp244
S'VERB'
p245
F0.99715
sS'NOUN'
p246
F0.002851
s(lp247
g62
atp248
a(S'om'
p249
(dp250
S'ADV'
p251
F0.000313
sS'CONJ'
p252
F0.965092
sS'ADP'
p253
F0.034595
s(lp254
tp255
a(S'het'
p256
(dp257
S'PRON'
p258
F0.804759
sS'DET'
p259
F0.195241
s(lp260
g7
atp261
a(S'nog'
p262
(dp263
S'ADV'
p264
F1.0
s(lp265
tp266
a(S'beter'
p267
(dp268
S'ADV'
p269
F0.166279
sS'VERB'
p270
F0.003314
sS'ADJ'
p271
F0.830407
s(lp272
g94
atp273
a(S'te'
p274
(dp275
S'PRT'
p276
F1.0
s(lp277
g82
atp278
a(S'doen'
p279
(dp280
S'VERB'
p281
F1.0
sS'NOUN'
p282
F0.0
s(lp283
g88
atp284
a(g11
(dp285
g11
F1.0
s(lp286
g11
atp287
asS'de'
p288
(lp289
(S'deshalb'
p290
(dp291
S'ADV'
p292
F1.0
s(lp293
g7
atp294
a(S'k\xc3\xb6nnen'
p295
(dp296
S'VERB'
p297
F0.999393
s(lp298
g30
atp299
a(S'ihre'
p300
(dp301
S'PRON'
p302
F1.0
s(lp303
g18
atp304
a(S'forderungen'
p305
(dp306
S'VERB'
p307
F0.167715
sS'NOUN'
p308
F0.802327
s(lp309
g24
atp310
a(S'mir'
p311
(dp312
S'PRON'
p313
F1.0
s(lp314
g38
atp315
a(S'helfen'
p316
(dp317
S'VERB'
p318
F1.0
s(lp319
g44
atp320
a(S'und'
p321
(dp322
S'CONJ'
p323
F1.0
s(lp324
g50
atp325
a(S'sie'
p326
(dp327
S'PRON'
p328
F1.0
s(lp329
tp330
a(S'k\xc3\xb6nnen'
p331
(dp332
S'VERB'
p333
F0.999518
s(lp334
g56
atp335
a(S'der'
p336
(dp337
S'PRON'
p338
F0.000567
sS'DET'
p339
F0.999076
s(lp340
g70
atp341
a(S'kommission'
p342
(dp343
S'ADJ'
p344
F0.04111
sS'NOUN'
p345
F0.94474
s(lp346
g76
atp347
a(S'helfen'
p348
(dp349
S'VERB'
p350
F1.0
s(lp351
g62
atp352
a(g9
(dp353
g11
F1.0
s(lp354
tp355
a(S'bessere'
p356
(dp357
S'VERB'
p358
F0.242608
sS'ADJ'
p359
F0.757392
s(lp360
g94
atp361
a(S'arbeit'
p362
(dp363
S'ADJ'
p364
F0.189653
sS'NOUN'
p365
F0.809866
s(lp366
tp367
a(S'zu'
p368
(dp369
S'PRT'
p370
F0.999977
s(lp371
g82
atp372
a(S'leisten'
p373
(dp374
S'VERB'
p375
F1.0
s(lp376
g88
atp377
a(g11
(dp378
g11
F1.0
s(lp379
g11
atp380
asS'it'
p381
(lp382
(S'le'
p383
(dp384
S'PRON'
p385
F2.3e-05
sS'DET'
p386
F0.999977
s(lp387
tp388
a(S'vostre'
p389
(dp390
S'PRON'
p391
F1.0
s(lp392
g18
atp393
a(S'richieste'
p394
(dp395
S'VERB'
p396
F2.1e-05
sS'NOUN'
p397
F0.999979
s(lp398
g24
atp399
a(S'possono'
p400
(dp401
S'VERB'
p402
F1.0
s(lp403
g30
atp404
a(S'dunque'
p405
(dp406
S'ADV'
p407
F0.999982
sS'NOUN'
p408
F1.8e-05
s(lp409
g7
atp410
a(S'aiutare'
p411
(dp412
S'VERB'
p413
F1.0
s(lp414
g44
atp415
a(S'me'
p416
(dp417
S'PRON'
p418
F1.0
s(lp419
g38
atp420
a(S'e'
p421
(dp422
S'CONJ'
p423
F1.0
s(lp424
g50
atp425
a(S'la'
p426
(dp427
S'PRON'
p428
F0.000411
sS'DET'
p429
F0.999589
s(lp430
g70
atp431
a(S'commissione'
p432
(dp433
S'NOUN'
p434
F1.0
s(lp435
g76
atp436
a(S'a'
p437
(dp438
S'CONJ'
p439
F0.000335
sS'ADP'
p440
F0.999665
s(lp441
g82
atp442
a(S'migliorare'
p443
(dp444
S'VERB'
p445
F1.0
s(lp446
g94
atp447
a(g11
(dp448
g11
F1.0
s(lp449
g11
atp450
asS'sk'
p451
(lp452
(S'preto'
p453
(dp454
S'PRON'
p455
F0.642527
sS'CONJ'
p456
F0.325295
sg129
F0.032179
s(lp457
g7
atp458
a(S'va\xc5\xa1e'
p459
(dp460
S'PRON'
p461
F1.0
s(lp462
g18
atp463
a(S'po\xc5\xbeiadavky'
p464
(dp465
S'NOUN'
p466
F1.0
s(lp467
g24
atp468
a(S'm\xc3\xb4\xc5\xbeu'
p469
(dp470
S'VERB'
p471
F1.0
s(lp472
g30
atp473
a(S'pom\xc3\xb4c\xc5\xa5'
p474
(dp475
S'VERB'
p476
F1.0
s(lp477
g44
atp478
a(S'mne'
p479
(dp480
S'PRON'
p481
F0.999687
sg129
F0.000313
s(lp482
g38
atp483
a(g437
(dp484
g129
F0.009935000000000001
sS'CONJ'
p485
F0.986674
sS'NOUN'
p486
F0.00027
sS'ADP'
p487
F0.0
sS'PRT'
p488
F0.003123
s(lp489
g50
atp490
a(S'm\xc3\xb4\xc5\xbeu'
p491
(dp492
S'VERB'
p493
F1.0
s(lp494
g56
atp495
a(S'pom\xc3\xb4c\xc5\xa5'
p496
(dp497
S'VERB'
p498
F1.0
s(lp499
g62
atp500
a(S'komisii'
p501
(dp502
S'NOUN'
p503
F1.0
s(lp504
g76
atp505
a(S'k'
p506
(dp507
g129
F0.000784
sS'NOUN'
p508
F1.3000000000000001e-05
sS'ADP'
p509
F0.999203
s(lp510
g82
atp511
a(S'lep\xc5\xa1ej'
p512
(dp513
S'ADJ'
p514
F1.0
s(lp515
g94
atp516
a(S'pr\xc3\xa1ci'
p517
(dp518
S'NOUN'
p519
F1.0
s(lp520
g88
atp521
a(g11
(dp522
g11
F1.0
s(lp523
g11
atp524
asS'pl'
p525
(lp526
(S'dlatego'
p527
(dp528
S'ADV'
p529
F1.0
s(lp530
g7
atp531
a(S'wasze'
p532
(dp533
S'ADJ'
p534
F0.9999989999999999
s(lp535
g18
atp536
a(S'\xc5\xbc\xc4\x85dania'
p537
(dp538
S'VERB'
p539
F0.000315
sS'NOUN'
p540
F0.999685
s(lp541
g24
atp542
a(S'mog\xc4\x85'
p543
(dp544
S'VERB'
p545
F1.0
s(lp546
g30
atp547
a(S'mi'
p548
(dp549
S'PRON'
p550
F1.0
sg129
F0.0
s(lp551
g38
atp552
a(S'pom\xc3\xb3c'
p553
(dp554
S'VERB'
p555
F1.0
s(lp556
g44
atp557
a(S'i'
p558
(dp559
S'PRT'
p560
F0.03876
sS'CONJ'
p561
F0.960466
sS'NOUN'
p562
F0.00030599999999999996
sg129
F6.8e-05
sS'PRON'
p563
F0.0004
s(lp564
g50
atp565
a(S'pom\xc3\xb3c'
p566
(dp567
S'VERB'
p568
F1.0
s(lp569
g62
atp570
a(S'komisji'
p571
(dp572
S'NOUN'
p573
F1.0
s(lp574
g76
atp575
a(S'osi\xc4\x85ga\xc4\x87'
p576
(dp577
S'VERB'
p578
F1.0
s(lp579
g88
atp580
a(S'lepsze'
p581
(dp582
S'ADJ'
p583
F1.000001
s(lp584
tp585
a(S'wyniki'
p586
(dp587
S'NOUN'
p588
F1.0
s(lp589
g94
atp590
a(g11
(dp591
g11
F1.0
s(lp592
g11
atp593
asS'sl'
p594
(lp595
(S'zato'
p596
(dp597
S'ADV'
p598
F0.595063
sS'CONJ'
p599
F0.404937
s(lp600
g7
atp601
a(S'lahko'
p602
(dp603
S'ADV'
p604
F0.99117
sS'ADJ'
p605
F0.00883
s(lp606
g30
atp607
a(S'va\xc5\xa1e'
p608
(dp609
S'PRON'
p610
F0.999999
s(lp611
g18
atp612
a(S'zahteve'
p613
(dp614
S'NOUN'
p615
F0.9999990000000001
s(lp616
g24
atp617
a(S'pomagajo'
p618
(dp619
S'VERB'
p620
F1.0
s(lp621
g44
atp622
a(S'meni'
p623
(dp624
S'PRON'
p625
F0.488723
sS'VERB'
p626
F0.340071
sS'NOUN'
p627
F0.171206
s(lp628
g38
atp629
a(S'in'
p630
(dp631
S'ADV'
p632
F0.000316
sg129
F5e-05
sS'CONJ'
p633
F0.9996
sS'NOUN'
p634
F3.4e-05
s(lp635
g50
atp636
a(S'komisiji'
p637
(dp638
S'NOUN'
p639
F1.0
s(lp640
g76
atp641
a(g9
(dp642
g11
F1.0
s(lp643
tp644
a(S'da'
p645
(dp646
S'PRT'
p647
F5e-06
sS'CONJ'
p648
F0.99997
sS'VERB'
p649
F2.4e-05
sg129
F1e-06
s(lp650
g82
atp651
a(S'se'
p652
(dp653
S'PRON'
p654
F0.999997
sg129
F3e-06
s(lp655
g88
atp656
a(S'bolje'
p657
(dp658
S'ADV'
p659
F1.0
s(lp660
g94
atp661
a(S'odre\xc5\xbeeva'
p662
(dp663
S'ADV'
p664
F0.001246
sS'ADJ'
p665
F0.17986000000000002
sS'VERB'
p666
F0.264269
sS'NOUN'
p667
F0.5546240000000001
s(lp668
g62
atp669
a(g11
(dp670
g11
F1.0
s(lp671
g11
atp672
asS'es'
p673
(lp674
(S'por'
p675
(dp676
S'CONJ'
p677
F1.0
s(lp678
tp679
a(S'tanto'
p680
(dp681
S'CONJ'
p682
F1.0
s(lp683
g7
atp684
a(g9
(dp685
g11
F1.0
s(lp686
g9
atp687
a(S'sus'
p688
(dp689
S'PRON'
p690
F1.0
s(lp691
g18
atp692
a(S'demandas'
p693
(dp694
S'VERB'
p695
F0.022571
sS'NOUN'
p696
F0.977429
s(lp697
g24
atp698
a(S'me'
p699
(dp700
S'PRON'
p701
F0.999698
sS'NOUN'
p702
F0.000302
s(lp703
g38
atp704
a(S'pueden'
p705
(dp706
S'VERB'
p707
F1.0
s(lp708
g30
atp709
a(S'ayudar'
p710
(dp711
S'VERB'
p712
F1.0
s(lp713
g44
atp714
a(S'y'
p715
(dp716
g129
F0.001451
sS'CONJ'
p717
F0.998549
s(lp718
g50
atp719
a(S'pueden'
p720
(dp721
S'VERB'
p722
F1.0
s(lp723
g56
atp724
a(S'ayudar'
p725
(dp726
S'VERB'
p727
F1.0
s(lp728
tp729
a(g437
(dp730
g129
F0.000259
sS'CONJ'
p731
F5e-06
sS'ADP'
p732
F0.999736
s(lp733
g62
atp734
a(S'la'
p735
(dp736
g129
F1e-06
sS'PRON'
p737
F0.0
sS'DET'
p738
F0.999999
sS'NOUN'
p739
F0.0
s(lp740
g70
atp741
a(S'comisi\xc3\xb3n'
p742
(dp743
S'NOUN'
p744
F1.0
s(lp745
g76
atp746
a(g437
(dp747
g129
F8.499999999999999e-05
sS'CONJ'
p748
F0.077467
sS'ADP'
p749
F0.922448
s(lp750
g82
atp751
a(S'mejorar'
p752
(dp753
S'VERB'
p754
F1.0
s(lp755
g94
atp756
a(g11
(dp757
g11
F1.0
s(lp758
g11
atp759
as.