(dp0
S'fr'
p1
(lp2
(S'('
p3
(dp4
S'.'
p5
F1.0
s(lp6
g3
atp7
a(S'fr'
p8
(dp9
S'ADJ'
p10
F0.166122
sS'VERB'
p11
F0.019934
sS'NOUN'
p12
F0.813945
s(lp13
S'fr'
p14
atp15
a(S')'
p16
(dp17
g5
F1.0
s(lp18
g16
atp19
a(S'monsieur'
p20
(dp21
S'NOUN'
p22
F1.0
s(lp23
S'mr'
p24
atp25
a(S'le'
p26
(dp27
S'PRON'
p28
F0.000321
sS'DET'
p29
F0.999679
s(lp30
tp31
a(S'pr\xc3\xa9sident'
p32
(dp33
S'VERB'
p34
F4.5e-05
sS'NOUN'
p35
F0.999955
s(lp36
S'president'
p37
atp38
a(S','
p39
(dp40
g5
F1.0
s(lp41
g39
atp42
a(S'\xc3\xa0'
p43
(dp44
S'ADP'
p45
F1.0
s(lp46
S'on'
p47
atp48
a(S'la'
p49
(dp50
S'PRON'
p51
F1.2e-05
sS'DET'
p52
F0.999988
sS'NOUN'
p53
F0.0
s(lp54
tp55
a(S'lecture'
p56
(dp57
S'NOUN'
p58
F1.0
s(lp59
S'reading'
p60
atp61
a(S'de'
p62
(dp63
S'ADP'
p64
F1.0
s(lp65
tp66
a(S'ce'
p67
(dp68
S'PRON'
p69
F1.0
s(lp70
S'this'
p71
atp72
a(S'rapport'
p73
(dp74
S'NOUN'
p75
F1.0
s(lp76
S'report'
p77
atp78
a(g39
(dp79
g5
F1.0
s(lp80
g39
atp81
a(S'on'
p82
(dp83
S'PRON'
p84
F1.0
s(lp85
S'one'
p86
atp87
a(S'aurait'
p88
(dp89
S'VERB'
p90
F1.0
s(lp91
S'might'
p92
atp93
a(S'envie'
p94
(dp95
S'VERB'
p96
F0.040925
sS'NOUN'
p97
F0.959075
s(lp98
S'tempted'
p99
atp100
a(S'de'
p101
(dp102
S'ADP'
p103
F1.0
s(lp104
S'to'
p105
atp106
a(S'dire'
p107
(dp108
S'VERB'
p109
F0.989017
sS'NOUN'
p110
F0.010983
s(lp111
S'say'
p112
atp113
a(S':'
p114
(dp115
g5
F1.0
s(lp116
tp117
a(S'"'
p118
(dp119
g5
F1.0
s(lp120
S"'"
p121
atp122
a(S'\xc3\x80'
p123
(dp124
S'ADP'
p125
F1.0
s(lp126
S'on'
p127
atp128
a(S"l'"
p129
(dp130
S'ADJ'
p131
F0.160704
sS'VERB'
p132
F0.06480800000000002
sS'NOUN'
p133
F0.774488
s(lp134
S'the'
p135
atp136
a(S'ouest'
p137
(dp138
S'NOUN'
p139
F0.149822
sS'ADJ'
p140
F0.850178
s(lp141
S'western'
p142
atp143
a(g39
(dp144
g5
F1.0
s(lp145
g114
atp146
a(S'rien'
p147
(dp148
S'ADV'
p149
F0.423804
sS'NOUN'
p150
F0.576196
s(lp151
S'nothing'
p152
atp153
a(S'de'
p154
(dp155
S'ADP'
p156
F1.0
s(lp157
S'in'
p158
atp159
a(S'nouveau'
p160
(dp161
S'NOUN'
p162
F0.030436
sS'ADJ'
p163
F0.969564
s(lp164
S'new'
p165
atp166
a(g118
(dp167
g5
F1.0
s(lp168
g121
atp169
a(g5
(dp170
g5
F1.0
s(lp171
g5
atp172
asS'en'
p173
(lp174
(g3
(dp175
g5
F1.0
s(lp176
g3
atp177
a(g14
(dp178
S'ADJ'
p179
F0.000672
sS'NOUN'
p180
F0.999327
s(lp181
g14
atp182
a(g16
(dp183
g5
F1.0
s(lp184
g16
atp185
a(g24
(dp186
S'ADJ'
p187
F0.004952
sS'NOUN'
p188
F0.995048
s(lp189
g24
atp190
a(g37
(dp191
S'NOUN'
p192
F1.0
s(lp193
g37
atp194
a(g39
(dp195
g5
F1.0
s(lp196
g39
atp197
a(g47
(dp198
S'ADV'
p199
F0.010807
sS'NOUN'
p200
F1e-06
sS'ADJ'
p201
F2e-06
sS'ADP'
p202
F0.98919
sS'PRT'
p203
F1e-06
s(lp204
g47
atp205
a(g60
(dp206
S'VERB'
p207
F0.979177
sS'NOUN'
p208
F0.020823
s(lp209
g60
atp210
a(g71
(dp211
S'ADV'
p212
F0.00051
sS'NOUN'
p213
F7.8e-05
sS'DET'
p214
F0.999411
s(lp215
g71
atp216
a(g77
(dp217
S'VERB'
p218
F0.050241999999999995
sS'NOUN'
p219
F0.949758
s(lp220
g77
atp221
a(g86
(dp222
S'PRON'
p223
F0.903876
sS'NUM'
p224
F0.095475
sS'NOUN'
p225
F0.000649
s(lp226
g86
atp227
a(g92
(dp228
S'VERB'
p229
F0.99997
sS'NOUN'
p230
F3e-05
s(lp231
g92
atp232
a(S'be'
p233
(dp234
S'VERB'
p235
F1.0
s(lp236
g233
atp237
a(g99
(dp238
S'VERB'
p239
F1.0
s(lp240
g99
atp241
a(g105
(dp242
S'ADV'
p243
F0.0
sS'PRT'
p244
F1.0
sS'ADP'
p245
F0.0
s(lp246
g105
atp247
a(g112
(dp248
S'ADV'
p249
F1e-06
sS'VERB'
p250
F0.999646
sS'NOUN'
p251
F0.000353
s(lp252
g112
atp253
a(g121
(dp254
S'PRT'
p255
F7.6e-05
sg5
F0.999924
s(lp256
g121
atp257
a(S'all'
p258
(dp259
S'ADV'
p260
F0.082106
sS'DET'
p261
F0.917895
s(lp262
g258
atp263
a(S'quiet'
p264
(dp265
S'NOUN'
p266
F0.252892
sS'VERB'
p267
F0.003534
sS'ADJ'
p268
F0.743573
s(lp269
g264
atp270
a(g127
(dp271
S'ADV'
p272
F0.000567
sS'PRT'
p273
F0.000561
sS'ADJ'
p274
F0.0
sS'NOUN'
p275
F1e-06
sS'ADP'
p276
F0.99887
s(lp277
g127
atp278
a(g135
(dp279
S'NOUN'
p280
F1e-06
sS'DET'
p281
F0.999999
s(lp282
g135
atp283
a(g142
(dp284
S'ADJ'
p285
F1.0
s(lp286
g142
atp287
a(S'front'
p288
(dp289
S'ADV'
p290
F7.9e-05
sS'ADJ'
p291
F0.062721
sS'VERB'
p292
F4e-06
sS'NOUN'
p293
F0.937197
s(lp294
g288
atp295
a(g121
(dp296
S'PRT'
p297
F0.035616
sg5
F0.964384
s(lp298
g121
atp299
a(g114
(dp300
g5
F1.0
s(lp301
g114
atp302
a(g152
(dp303
S'ADV'
p304
F0.10531
sS'NOUN'
p305
F0.89469
s(lp306
g152
atp307
a(g165
(dp308
S'NOUN'
p309
F0.003384
sS'ADJ'
p310
F0.996616
s(lp311
g165
atp312
a(g39
(dp313
g5
F1.0
s(lp314
g39
atp315
a(g158
(dp316
S'ADV'
p317
F0.006129
sS'PRT'
p318
F0.0
sS'ADP'
p319
F0.99387
s(lp320
g158
atp321
a(S'other'
p322
(dp323
S'ADV'
p324
F1e-06
sS'NOUN'
p325
F1.9e-05
sS'ADJ'
p326
F0.99998
s(lp327
g322
atp328
a(S'words'
p329
(dp330
S'VERB'
p331
F5e-06
sS'NOUN'
p332
F0.999995
s(lp333
g329
atp334
a(g5
(dp335
g5
F1.0
s(lp336
g5
atp337
asS'nl'
p338
(lp339
(g3
(dp340
g5
F1.0
s(lp341
g3
atp342
a(S'fr'
p343
(dp344
S'NOUN'
p345
F1.0
s(lp346
g14
atp347
a(g16
(dp348
g5
F1.0
s(lp349
g16
atp350
a(S'mijnheer'
p351
(dp352
S'NOUN'
p353
F1.0
s(lp354
g24
atp355
a(S'de'
p356
(dp357
S'DET'
p358
F1.0
s(lp359
tp360
a(S'voorzitter'
p361
(dp362
S'NOUN'
p363
F1.0
s(lp364
g37
atp365
a(g39
(dp366
g5
F1.0
s(lp367
g39
atp368
a(S'wanneer'
p369
(dp370
S'ADV'
p371
F0.013751
sS'CONJ'
p372
F0.986249
s(lp373
g47
atp374
a(S'ik'
p375
(dp376
S'PRON'
p377
F1.0
sS'NOUN'
p378
F0.0
s(lp379
g264
atp380
a(S'dit'
p381
(dp382
S'PRON'
p383
F1.0
s(lp384
g71
atp385
a(S'verslag'
p386
(dp387
S'NOUN'
p388
F1.0
s(lp389
g77
atp390
a(S'lees'
p391
(dp392
S'VERB'
p393
F1.0
s(lp394
g60
atp395
a(g39
(dp396
g5
F1.0
s(lp397
tp398
a(S'heb'
p399
(dp400
S'VERB'
p401
F1.0
s(lp402
tp403
a(S'ik'
p404
(dp405
S'PRON'
p406
F0.999999
sS'NOUN'
p407
F1e-06
s(lp408
g86
atp409
a(S'zin'
p410
(dp411
S'VERB'
p412
F0.004212
sS'NOUN'
p413
F0.995788
s(lp414
g99
atp415
a(S'om'
p416
(dp417
S'ADV'
p418
F0.127471
sS'CONJ'
p419
F0.87195
sS'ADP'
p420
F0.000579
s(lp421
tp422
a(S'te'
p423
(dp424
S'PRT'
p425
F1.0
s(lp426
g105
atp427
a(S'zeggen'
p428
(dp429
S'VERB'
p430
F0.999991
sS'NOUN'
p431
F8e-06
s(lp432
g112
atp433
a(g114
(dp434
g5
F1.0
s(lp435
g114
atp436
a(g118
(dp437
g5
F1.0
s(lp438
g121
atp439
a(S'niets'
p440
(dp441
S'ADV'
p442
F0.001264
sS'PRON'
p443
F0.998712
sS'NOUN'
p444
F2.4e-05
s(lp445
g152
atp446
a(S'nieuws'
p447
(dp448
S'NOUN'
p449
F0.031881
sS'ADJ'
p450
F0.968119
s(lp451
g165
atp452
a(S'in'
p453
(dp454
S'ADV'
p455
F0.002274
sS'VERB'
p456
F7e-06
sS'ADP'
p457
F0.997719
s(lp458
g158
atp459
a(S'het'
p460
(dp461
S'PRON'
p462
F0.000929
sS'DET'
p463
F0.999071
s(lp464
g135
atp465
a(S'westen'
p466
(dp467
S'NOUN'
p468
F1.0
s(lp469
g142
atp470
a(S'\xe2\x80\x9d'
p471
(dp472
S'ADJ'
p473
F0.226461
sS'NOUN'
p474
F0.7735380000000001
s(lp475
g121
atp476
a(g5
(dp477
g5
F1.0
s(lp478
g5
atp479
asS'de'
p480
(lp481
(g3
(dp482
g5
F1.0
s(lp483
g3
atp484
a(S'fr'
p485
(dp486
S'NOUN'
p487
F0.987401
s(lp488
g14
atp489
a(g16
(dp490
g5
F1.0
s(lp491
g16
atp492
a(S'herr'
p493
(dp494
S'ADJ'
p495
F0.19898
sS'NOUN'
p496
F0.770496
s(lp497
g24
atp498
a(S'pr\xc3\xa4sident'
p499
(dp500
S'VERB'
p501
F0.05857
sS'NOUN'
p502
F0.928761
s(lp503
tp504
a(S'!'
p505
(dp506
g5
F1.0
s(lp507
g37
atp508
a(S'beim'
p509
(dp510
S'ADP'
p511
F1.0
s(lp512
g47
atp513
a(S'lesen'
p514
(dp515
S'VERB'
p516
F1.0
s(lp517
g60
atp518
a(S'dieses'
p519
(dp520
S'PRON'
p521
F1.0
s(lp522
g71
atp523
a(S'berichts'
p524
(dp525
S'NOUN'
p526
F0.999953
s(lp527
g77
atp528
a(S'k\xc3\xb6nnte'
p529
(dp530
S'VERB'
p531
F1.0
s(lp532
g92
atp533
a(S'man'
p534
(dp535
S'PRON'
p536
F1.0
s(lp537
g86
atp538
a(S'versucht'
p539
(dp540
S'VERB'
p541
F0.994595
sS'ADJ'
p542
F0.005323
s(lp543
g99
atp544
a(S'sein'
p545
(dp546
S'PRON'
p547
F8.1e-05
sS'VERB'
p548
F0.999873
s(lp549
g233
atp550
a(S'zu'
p551
(dp552
S'PRT'
p553
F0.9999990000000001
s(lp554
g105
atp555
a(S'sagen'
p556
(dp557
S'VERB'
p558
F1.0
s(lp559
g112
atp560
a(g114
(dp561
g5
F1.0
s(lp562
g114
atp563
a(g118
(dp564
g5
F1.0
s(lp565
g121
atp566
a(S'im'
p567
(dp568
S'ADP'
p569
F1.0
s(lp570
g127
atp571
a(S'westen'
p572
(dp573
S'ADJ'
p574
F0.999079
s(lp575
g142
atp576
a(S'nichts'
p577
(dp578
S'PRON'
p579
F1.0
s(lp580
g152
atp581
a(S'neues'
p582
(dp583
S'ADJ'
p584
F1.0
s(lp585
g165
atp586
a(g118
(dp587
g5
F1.0
s(lp588
g121
atp589
a(g5
(dp590
g5
F1.0
s(lp591
g5
atp592
asS'it'
p593
(lp594
(g3
(dp595
g5
F1.0
s(lp596
g3
atp597
a(S'fr'
p598
(dp599
S'NOUN'
p600
F0.003774
sS'VERB'
p601
F0.984512
sS'ADJ'
p602
F0.011715
s(lp603
g14
atp604
a(g16
(dp605
g5
F1.0
s(lp606
g16
atp607
a(S'signor'
p608
(dp609
S'NOUN'
p610
F1.0
s(lp611
g24
atp612
a(S'presidente'
p613
(dp614
S'NOUN'
p615
F1.0
s(lp616
g37
atp617
a(g39
(dp618
g5
F1.0
s(lp619
g39
atp620
a(S'leggendo'
p621
(dp622
S'VERB'
p623
F1.0
s(lp624
g60
atp625
a(S'questa'
p626
(dp627
S'PRON'
p628
F1.0
s(lp629
g71
atp630
a(S'relazione'
p631
(dp632
S'NOUN'
p633
F1.0
s(lp634
g77
atp635
a(S'verrebbe'
p636
(dp637
S'VERB'
p638
F1.0
s(lp639
g99
atp640
a(S'da'
p641
(dp642
S'ADP'
p643
F1.0
s(lp644
g105
atp645
a(S'dire'
p646
(dp647
S'VERB'
p648
F0.960587
sS'ADJ'
p649
F0.039413
s(lp650
g112
atp651
a(g114
(dp652
g5
F1.0
s(lp653
g114
atp654
a(g118
(dp655
g5
F1.0
s(lp656
g121
atp657
a(S"all'"
p658
(dp659
S'ADJ'
p660
F0.002161
sS'VERB'
p661
F0.026514
sS'NOUN'
p662
F0.971324
s(lp663
g135
atp664
a(S'ovest'
p665
(dp666
S'NOUN'
p667
F1.0
s(lp668
g142
atp669
a(S'niente'
p670
(dp671
S'ADV'
p672
F0.478058
sS'PRON'
p673
F0.018275
sS'ADJ'
p674
F0.499311
sS'NOUN'
p675
F0.004356
s(lp676
g152
atp677
a(S'di'
p678
(dp679
S'CONJ'
p680
F1.5e-05
sS'ADP'
p681
F0.999985
s(lp682
tp683
a(S'nuovo'
p684
(dp685
S'NOUN'
p686
F0.001183
sS'ADJ'
p687
F0.998817
s(lp688
g165
atp689
a(S'\xe2\x80\x9d'
p690
(dp691
S'ADJ'
p692
F0.000884
sS'NOUN'
p693
F0.999116
s(lp694
g121
atp695
a(g39
(dp696
g5
F1.0
s(lp697
g39
atp698
a(S'in'
p699
(dp700
S'ADP'
p701
F1.0
s(lp702
g158
atp703
a(S'altre'
p704
(dp705
S'PRON'
p706
F0.759466
sS'ADJ'
p707
F0.240534
s(lp708
g322
atp709
a(S'parole'
p710
(dp711
S'NOUN'
p712
F1.0
s(lp713
g329
atp714
a(g39
(dp715
g5
F1.0
s(lp716
tp717
a(S'tutto'
p718
(dp719
S'ADV'
p720
F0.5132
sS'NOUN'
p721
F0.045655
sS'ADJ'
p722
F0.400375
sS'PRON'
p723
F0.04077
s(lp724
g258
atp725
a(S'come'
p726
(dp727
S'PRON'
p728
F0.000243
sS'CONJ'
p729
F0.856301
sS'NOUN'
p730
F0.000861
sS'ADP'
p731
F0.142595
s(lp732
tp733
a(S'sempre'
p734
(dp735
S'ADV'
p736
F0.999979
sS'CONJ'
p737
F2.1e-05
s(lp738
g264
atp739
a(g5
(dp740
g5
F1.0
s(lp741
g5
atp742
asS'sk'
p743
(lp744
(g3
(dp745
g5
F1.0
s(lp746
g3
atp747
a(S'fr'
p748
(dp749
S'X'
p750
F1.0
s(lp751
g14
atp752
a(g16
(dp753
g5
F1.0
s(lp754
g16
atp755
a(S'v\xc3\xa1\xc5\xbeen\xc3\xbd'
p756
(dp757
S'VERB'
p758
F0.273237
sS'ADJ'
p759
F0.726763
s(lp760
tp761
a(S'p\xc3\xa1n'
p762
(dp763
S'NOUN'
p764
F1.0
s(lp765
g24
atp766
a(S'predsedaj\xc3\xbaci'
p767
(dp768
S'VERB'
p769
F1.0
s(lp770
g37
atp771
a(g39
(dp772
g5
F1.0
s(lp773
g39
atp774
a(S'spr\xc3\xa1va'
p775
(dp776
S'VERB'
p777
F0.326298
sS'NOUN'
p778
F0.673702
s(lp779
g77
atp780
a(g39
(dp781
g5
F1.0
s(lp782
tp783
a(S'ktor\xc3\xba'
p784
(dp785
S'PRON'
p786
F1.0
s(lp787
g288
atp788
a(S'sme'
p789
(dp790
g750
F1.1e-05
sS'VERB'
p791
F0.999989
s(lp792
tp793
a(S'si'
p794
(dp795
S'PRT'
p796
F0.999999
sS'VERB'
p797
F0.0
sg750
F1e-06
s(lp798
g233
atp799
a(S'vypo\xc4\x8duli'
p800
(dp801
S'VERB'
p802
F1.0
s(lp803
g99
atp804
a(g39
(dp805
g5
F1.0
s(lp806
tp807
a(S'ma'
p808
(dp809
S'PRON'
p810
F0.999927
sS'VERB'
p811
F2e-06
sS'ADP'
p812
F0.0
sg750
F7.2e-05
s(lp813
tp814
a(S'n\xc3\xbati'
p815
(dp816
S'VERB'
p817
F1.0
s(lp818
g99
atp819
a(S'podotkn\xc3\xba\xc5\xa5'
p820
(dp821
S'VERB'
p822
F1.0
s(lp823
g112
atp824
a(g118
(dp825
g5
F1.0
s(lp826
g121
atp827
a(S'na'
p828
(dp829
g750
F0.00065
sS'CONJ'
p830
F8e-06
sS'ADP'
p831
F0.999342
sS'PRT'
p832
F0.0
s(lp833
g127
atp834
a(S'z\xc3\xa1pade'
p835
(dp836
S'NOUN'
p837
F1.0
s(lp838
g142
atp839
a(S'ni\xc4\x8d'
p840
(dp841
S'PRON'
p842
F0.998943
sS'VERB'
p843
F1.7e-05
sS'NOUN'
p844
F0.000313
sg750
F0.000728
s(lp845
tp846
a(S'nov\xc3\xa9ho'
p847
(dp848
S'ADJ'
p849
F1.0
s(lp850
g165
atp851
a(g118
(dp852
g5
F1.0
s(lp853
g121
atp854
a(g114
(dp855
g750
F0.012447
sg5
F0.987553
s(lp856
g114
atp857
a(S'alebo'
p858
(dp859
g750
F1.2e-05
sS'CONJ'
p860
F0.999988
s(lp861
g152
atp862
a(S'in\xc3\xbdmi'
p863
(dp864
S'PRON'
p865
F0.999992
sS'NOUN'
p866
F8e-06
s(lp867
g322
atp868
a(S'slovami'
p869
(dp870
S'NOUN'
p871
F1.0
s(lp872
g329
atp873
a(g39
(dp874
g5
F1.0
s(lp875
tp876
a(S'v\xc5\xa1etko'
p877
(dp878
S'PRON'
p879
F1.0
s(lp880
g258
atp881
a(S'je'
p882
(dp883
g750
F5.5e-05
sS'VERB'
p884
F0.999936
sS'PRON'
p885
F9e-06
s(lp886
g39
atp887
a(S'po'
p888
(dp889
g750
F0.026757
sS'ADP'
p890
F0.973242
s(lp891
g158
atp892
a(S'starom'
p893
(dp894
S'ADV'
p895
F0.043068
sS'NOUN'
p896
F0.047673
sS'ADJ'
p897
F0.909259
s(lp898
g264
atp899
a(g5
(dp900
g5
F1.0
s(lp901
g5
atp902
asS'pl'
p903
(lp904
(g3
(dp905
S'NOUN'
p906
F0.000262
sg5
F0.999738
s(lp907
g3
atp908
a(S'fr'
p909
(dp910
S'ADV'
p911
F0.002251
sg750
F0.012758
sS'ADJ'
p912
F0.000972
sS'NOUN'
p913
F0.984019
s(lp914
g14
atp915
a(g16
(dp916
g5
F1.0
s(lp917
g16
atp918
a(S'panie'
p919
(dp920
S'NOUN'
p921
F1.0
s(lp922
g24
atp923
a(S'przewodnicz\xc4\x85cy'
p924
(dp925
S'VERB'
p926
F0.000602
sS'NOUN'
p927
F0.999398
s(lp928
tp929
a(g505
(dp930
g5
F1.0
s(lp931
g37
atp932
a(S'czytaj\xc4\x85c'
p933
(dp934
S'VERB'
p935
F1.0
s(lp936
g60
atp937
a(S'to'
p938
(dp939
S'NOUN'
p940
F0.08687399999999999
sS'ADP'
p941
F0.0
sS'PRT'
p942
F0.019877
sg750
F0.0
sS'CONJ'
p943
F0.007072
sS'ADJ'
p944
F0.886178
s(lp945
g71
atp946
a(S'sprawozdanie'
p947
(dp948
S'NOUN'
p949
F1.0
s(lp950
g77
atp951
a(g39
(dp952
g750
F0.0
sg5
F1.0
s(lp953
tp954
a(S'a\xc5\xbc'
p955
(dp956
S'PRT'
p957
F0.486409
sS'CONJ'
p958
F0.513591
s(lp959
tp960
a(S'kusi'
p961
(dp962
S'VERB'
p963
F1.0
s(lp964
g99
atp965
a(S'by'
p966
(dp967
S'NOUN'
p968
F8.4e-05
sS'ADP'
p969
F0.0
sS'PRT'
p970
F0.962675
sS'VERB'
p971
F2e-06
sg750
F0.0
sS'CONJ'
p972
F0.037238
s(lp973
g105
atp974
a(S'powiedzie\xc4\x87'
p975
(dp976
S'VERB'
p977
F1.0
s(lp978
g112
atp979
a(g114
(dp980
g5
F1.0
s(lp981
g121
atp982
a(S'na'
p983
(dp984
g750
F6.1e-05
sS'VERB'
p985
F1e-06
sS'NOUN'
p986
F1e-06
sS'ADP'
p987
F0.999936
sS'PRT'
p988
F0.0
s(lp989
g127
atp990
a(S'zachodzie'
p991
(dp992
S'NOUN'
p993
F1.0
s(lp994
g142
atp995
a(S'nic'
p996
(dp997
S'ADV'
p998
F0.000804
sS'NOUN'
p999
F0.9991960000000001
s(lp1000
g152
atp1001
a(S'nowego'
p1002
(dp1003
S'ADJ'
p1004
F1.0
s(lp1005
g165
atp1006
a(g5
(dp1007
g5
F1.0
s(lp1008
g5
atp1009
asS'sl'
p1010
(lp1011
(g3
(dp1012
g5
F1.0
s(lp1013
g3
atp1014
a(S'fr'
p1015
(dp1016
S'ADV'
p1017
F0.000568
sg750
F0.035062
sS'ADJ'
p1018
F8.5e-05
sS'NOUN'
p1019
F0.9642849999999998
s(lp1020
g14
atp1021
a(g16
(dp1022
g5
F1.0
s(lp1023
g16
atp1024
a(S'gospod'
p1025
(dp1026
S'NOUN'
p1027
F1.0
s(lp1028
g24
atp1029
a(S'predsednik'
p1030
(dp1031
S'NOUN'
p1032
F1.0
s(lp1033
g37
atp1034
a(g39
(dp1035
g5
F1.0
s(lp1036
g39
atp1037
a(S'ob'
p1038
(dp1039
g750
F0.000213
sS'ADP'
p1040
F0.999787
s(lp1041
g47
atp1042
a(S'branju'
p1043
(dp1044
S'NOUN'
p1045
F1.0
s(lp1046
g60
atp1047
a(S'tega'
p1048
(dp1049
S'PRON'
p1050
F0.999999
s(lp1051
g71
atp1052
a(S'poro\xc4\x8dila'
p1053
(dp1054
S'VERB'
p1055
F0.012164999999999999
sS'NOUN'
p1056
F0.987834
s(lp1057
g77
atp1058
a(S'bi'
p1059
(dp1060
g750
F0.000822
sS'VERB'
p1061
F0.999178
s(lp1062
g99
atp1063
a(S'koga'
p1064
(dp1065
S'PRON'
p1066
F1.0
s(lp1067
g99
atp1068
a(S'lahko'
p1069
(dp1070
S'ADV'
p1071
F0.999914
sS'ADJ'
p1072
F8.599999999999999e-05
s(lp1073
g92
atp1074
a(S'zamikalo'
p1075
(dp1076
S'VERB'
p1077
F1.0
s(lp1078
tp1079
a(g39
(dp1080
g5
F1.0
s(lp1081
tp1082
a(S'da'
p1083
(dp1084
S'PRT'
p1085
F0.000137
sS'CONJ'
p1086
F0.999855
sS'VERB'
p1087
F8e-06
sg750
F0.0
s(lp1088
g105
atp1089
a(S'bi'
p1090
(dp1091
g750
F5e-06
sS'VERB'
p1092
F0.999995
s(lp1093
g99
atp1094
a(S'rekel'
p1095
(dp1096
S'VERB'
p1097
F1.0
s(lp1098
tp1099
a(g114
(dp1100
g5
F1.0
s(lp1101
g112
atp1102
a(g118
(dp1103
g5
F1.0
s(lp1104
g121
atp1105
a(S'na'
p1106
(dp1107
S'ADP'
p1108
F1.0
s(lp1109
g127
atp1110
a(S'zahodni'
p1111
(dp1112
S'ADJ'
p1113
F1.0
s(lp1114
g142
atp1115
a(S'fronti'
p1116
(dp1117
S'NOUN'
p1118
F1.0
s(lp1119
g288
atp1120
a(S'je'
p1121
(dp1122
S'PRON'
p1123
F0.000105
sS'VERB'
p1124
F0.999881
sg750
F1.4e-05
s(lp1125
tp1126
a(S'vse'
p1127
(dp1128
S'ADV'
p1129
F0.149612
sS'PRON'
p1130
F0.850387
s(lp1131
g258
atp1132
a(S'tiho'
p1133
(dp1134
S'ADV'
p1135
F0.710795
sS'ADJ'
p1136
F0.28920500000000005
s(lp1137
g264
atp1138
a(g118
(dp1139
g5
F1.0
s(lp1140
g121
atp1141
a(S';'
p1142
(dp1143
g5
F1.0
s(lp1144
g114
atp1145
a(S'z'
p1146
(dp1147
S'ADP'
p1148
F1.0
s(lp1149
g158
atp1150
a(S'drugimi'
p1151
(dp1152
S'NUM'
p1153
F0.999999
s(lp1154
g322
atp1155
a(S'besedami'
p1156
(dp1157
S'NOUN'
p1158
F1.0
s(lp1159
g329
atp1160
a(g39
(dp1161
g5
F1.0
s(lp1162
g39
atp1163
a(S'ni\xc4\x8d'
p1164
(dp1165
S'ADV'
p1166
F0.019555
sS'PRON'
p1167
F0.980305
sS'NOUN'
p1168
F0.00014
s(lp1169
g152
atp1170
a(S'novega'
p1171
(dp1172
S'ADJ'
p1173
F0.9999990000000001
s(lp1174
g165
atp1175
a(g5
(dp1176
g5
F1.0
s(lp1177
g5
atp1178
asS'es'
p1179
(lp1180
(g3
(dp1181
g5
F1.0
s(lp1182
g3
atp1183
a(S'fr'
p1184
(dp1185
S'ADJ'
p1186
F0.322495
sS'VERB'
p1187
F0.002738
sS'NOUN'
p1188
F0.674767
s(lp1189
g14
atp1190
a(g16
(dp1191
g5
F1.0
s(lp1192
g16
atp1193
a(S'se\xc3\xb1or'
p1194
(dp1195
S'NOUN'
p1196
F1.0
s(lp1197
g24
atp1198
a(S'presidente'
p1199
(dp1200
S'NOUN'
p1201
F1.0
s(lp1202
g37
atp1203
a(g39
(dp1204
g5
F1.0
s(lp1205
g39
atp1206
a(S'la'
p1207
(dp1208
S'PRON'
p1209
F3.5e-05
sS'DET'
p1210
F0.999959
sS'NOUN'
p1211
F0.0
sg750
F5e-06
s(lp1212
tp1213
a(S'lectura'
p1214
(dp1215
S'NOUN'
p1216
F1.0
s(lp1217
g60
atp1218
a(S'de'
p1219
(dp1220
g750
F0.0
sS'CONJ'
p1221
F2.5e-05
sS'ADP'
p1222
F0.999975
s(lp1223
g47
atp1224
a(S'este'
p1225
(dp1226
S'PRON'
p1227
F0.999827
sS'NOUN'
p1228
F0.000173
s(lp1229
g71
atp1230
a(S'informe'
p1231
(dp1232
S'VERB'
p1233
F0.000418
sS'NOUN'
p1234
F0.999582
s(lp1235
g77
atp1236
a(S'da'
p1237
(dp1238
S'VERB'
p1239
F1.0
s(lp1240
tp1241
a(S'ganas'
p1242
(dp1243
S'VERB'
p1244
F0.000298
sS'NOUN'
p1245
F0.999702
s(lp1246
g99
atp1247
a(S'de'
p1248
(dp1249
g750
F0.0
sS'CONJ'
p1250
F0.345873
sS'ADP'
p1251
F0.654126
s(lp1252
g105
atp1253
a(S'decir'
p1254
(dp1255
S'VERB'
p1256
F1.0
s(lp1257
g112
atp1258
a(g114
(dp1259
g5
F1.0
s(lp1260
g114
atp1261
a(g118
(dp1262
g5
F1.0
s(lp1263
g121
atp1264
a(S'sin'
p1265
(dp1266
S'ADP'
p1267
F1.0
s(lp1268
g258
atp1269
a(S'novedad'
p1270
(dp1271
S'NOUN'
p1272
F1.0
s(lp1273
g264
atp1274
a(S'en'
p1275
(dp1276
g750
F0.0
sS'CONJ'
p1277
F0.0
sS'ADP'
p1278
F1.0
s(lp1279
g127
atp1280
a(S'el'
p1281
(dp1282
S'PRON'
p1283
F3.5e-05
sS'DET'
p1284
F0.999965
s(lp1285
g135
atp1286
a(S'frente'
p1287
(dp1288
S'ADV'
p1289
F0.003212
sS'NOUN'
p1290
F0.996788
s(lp1291
g288
atp1292
a(S'occidental'
p1293
(dp1294
S'ADJ'
p1295
F1.0
s(lp1296
g142
atp1297
a(g118
(dp1298
g5
F1.0
s(lp1299
g121
atp1300
a(g5
(dp1301
g5
F1.0
s(lp1302
g5
atp1303
as.