(dp0
S'fr'
p1
(lp2
(S'il'
p3
(dp4
S'PRON'
p5
F1.0
s(lp6
S'this'
p7
atp8
a(S"s'"
p9
(dp10
S'ADJ'
p11
F0.000625
sS'VERB'
p12
F0.9973000000000002
sS'NOUN'
p13
F0.002077
s(lp14
tp15
a(S'agit'
p16
(dp17
S'VERB'
p18
F1.0
s(lp19
S'is'
p20
atp21
a(S'de'
p22
(dp23
S'ADP'
p24
F1.0
s(lp25
tp26
a(S'la'
p27
(dp28
S'PRON'
p29
F1.2e-05
sS'DET'
p30
F0.999988
sS'NOUN'
p31
F0.0
s(lp32
S'the'
p33
atp34
a(S'libert\xc3\xa9'
p35
(dp36
S'NOUN'
p37
F1.0
s(lp38
S'freedom'
p39
atp40
a(S'de'
p41
(dp42
S'ADP'
p43
F1.0
s(lp44
S'of'
p45
atp46
a(S'la'
p47
(dp48
S'PRON'
p49
F1.2e-05
sS'DET'
p50
F0.999988
sS'NOUN'
p51
F0.0
s(lp52
tp53
a(S'connaissance'
p54
(dp55
S'NOUN'
p56
F1.0
s(lp57
S'knowledge'
p58
atp59
a(S','
p60
(dp61
S'.'
p62
F1.0
s(lp63
g60
atp64
a(S'qui'
p65
(dp66
S'PRON'
p67
F1.0
s(lp68
S'which'
p69
atp70
a(S'serait'
p71
(dp72
S'VERB'
p73
F1.0
s(lp74
S'would'
p75
atp76
a(S'ajout\xc3\xa9e'
p77
(dp78
S'VERB'
p79
F1.0
s(lp80
S'added'
p81
atp82
a(S'aux'
p83
(dp84
S'ADP'
p85
F1.0
s(lp86
S'the'
p87
atp88
a(S'quatre'
p89
(dp90
S'NUM'
p91
F0.999846
sS'NOUN'
p92
F0.000154
s(lp93
S'four'
p94
atp95
a(S'libert\xc3\xa9s'
p96
(dp97
S'NOUN'
p98
F1.0
s(lp99
S'freedoms'
p100
atp101
a(S'fondamentales'
p102
(dp103
S'ADJ'
p104
F1.0
s(lp105
S'fundamental'
p106
atp107
a(S':'
p108
(dp109
g62
F1.0
s(lp110
S'-'
p111
atp112
a(S'la'
p113
(dp114
S'PRON'
p115
F0.000237
sS'DET'
p116
F0.999749
sS'NOUN'
p117
F1.4e-05
s(lp118
S'the'
p119
atp120
a(S'libre'
p121
(dp122
S'ADJ'
p123
F1.0
s(lp124
S'free'
p125
atp126
a(S'circulation'
p127
(dp128
S'NOUN'
p129
F1.0
s(lp130
S'movement'
p131
atp132
a(S'des'
p133
(dp134
S'DET'
p135
F2.1e-05
sS'ADP'
p136
F0.999979
s(lp137
S'of'
p138
atp139
a(S'marchandises'
p140
(dp141
S'NOUN'
p142
F1.0
s(lp143
tp144
a(g60
(dp145
g62
F1.0
s(lp146
g60
atp147
a(S'des'
p148
(dp149
S'DET'
p150
F0.000291
sS'ADP'
p151
F0.999709
s(lp152
S'goods'
p153
atp154
a(S'services'
p155
(dp156
S'NOUN'
p157
F1.0
s(lp158
S'services'
p159
atp160
a(g60
(dp161
g62
F1.0
s(lp162
g60
atp163
a(S'des'
p164
(dp165
S'DET'
p166
F0.000291
sS'ADP'
p167
F0.999709
s(lp168
tp169
a(S'personnes'
p170
(dp171
S'NOUN'
p172
F1.0
s(lp173
S'persons'
p174
atp175
a(S'et'
p176
(dp177
S'CONJ'
p178
F1.0
s(lp179
S'and'
p180
atp181
a(S'du'
p182
(dp183
S'ADP'
p184
F1.0
s(lp185
tp186
a(S'capital'
p187
(dp188
S'ADJ'
p189
F0.386815
sS'NOUN'
p190
F0.613185
s(lp191
S'capital'
p192
atp193
a(g62
(dp194
g62
F1.0
s(lp195
g62
atp196
asS'en'
p197
(lp198
(g7
(dp199
S'ADV'
p200
F0.000523
sS'NOUN'
p201
F0.000215
sS'DET'
p202
F0.999263
s(lp203
g7
atp204
a(g20
(dp205
S'VERB'
p206
F1.0
s(lp207
g20
atp208
a(g33
(dp209
S'NOUN'
p210
F1e-06
sS'DET'
p211
F0.999999
s(lp212
g33
atp213
a(g39
(dp214
S'NOUN'
p215
F1.0
s(lp216
g39
atp217
a(g45
(dp218
S'ADP'
p219
F1.0
s(lp220
g45
atp221
a(g58
(dp222
S'NOUN'
p223
F1.0
s(lp224
g58
atp225
a(g60
(dp226
g62
F1.0
s(lp227
g60
atp228
a(g69
(dp229
S'DET'
p230
F1.0
s(lp231
g69
atp232
a(g75
(dp233
S'VERB'
p234
F1.0
s(lp235
g75
atp236
a(S'be'
p237
(dp238
S'VERB'
p239
F1.0
s(lp240
g237
atp241
a(g81
(dp242
S'VERB'
p243
F0.99593
sS'ADJ'
p244
F0.004069
s(lp245
g81
atp246
a(S'to'
p247
(dp248
S'ADV'
p249
F1e-06
sS'PRT'
p250
F0.999992
sS'ADP'
p251
F7e-06
s(lp252
g247
atp253
a(g87
(dp254
S'NOUN'
p255
F5e-05
sS'DET'
p256
F0.99995
s(lp257
g87
atp258
a(g94
(dp259
S'NUM'
p260
F0.999816
sS'NOUN'
p261
F0.000184
s(lp262
g94
atp263
a(g106
(dp264
S'NOUN'
p265
F0.007072
sS'ADJ'
p266
F0.992928
s(lp267
g106
atp268
a(g100
(dp269
S'NOUN'
p270
F1.0
s(lp271
g100
atp272
a(g111
(dp273
g62
F1.0
s(lp274
g111
atp275
a(g119
(dp276
S'NOUN'
p277
F1e-06
sS'DET'
p278
F0.999999
s(lp279
g119
atp280
a(g125
(dp281
S'ADV'
p282
F0.000164
sS'NOUN'
p283
F0.001536
sS'VERB'
p284
F7.099999999999999e-05
sS'ADJ'
p285
F0.998229
s(lp286
g125
atp287
a(g131
(dp288
S'NOUN'
p289
F1.0
s(lp290
g131
atp291
a(g138
(dp292
S'ADP'
p293
F1.0
s(lp294
g138
atp295
a(g153
(dp296
S'NOUN'
p297
F1.0
s(lp298
g153
atp299
a(g60
(dp300
g62
F1.0
s(lp301
g60
atp302
a(g159
(dp303
S'VERB'
p304
F0.004384
sS'NOUN'
p305
F0.995615
s(lp306
g159
atp307
a(g60
(dp308
g62
F1.0
s(lp309
g60
atp310
a(g174
(dp311
S'NOUN'
p312
F1.0
s(lp313
g174
atp314
a(g180
(dp315
S'CONJ'
p316
F0.999999
sS'NOUN'
p317
F1e-06
s(lp318
g180
atp319
a(g192
(dp320
S'ADJ'
p321
F0.034057
sS'NOUN'
p322
F0.965943
s(lp323
g192
atp324
a(g62
(dp325
g62
F1.0
s(lp326
g62
atp327
asS'nl'
p328
(lp329
(S'het'
p330
(dp331
S'PRON'
p332
F0.962086
sS'DET'
p333
F0.037914
s(lp334
g7
atp335
a(S'gaat'
p336
(dp337
S'VERB'
p338
F1.0
s(lp339
tp340
a(S'om'
p341
(dp342
S'ADV'
p343
F0.003976
sS'CONJ'
p344
F0.822505
sS'ADP'
p345
F0.173519
s(lp346
g20
atp347
a(S'de'
p348
(dp349
S'DET'
p350
F1.0
s(lp351
g33
atp352
a(S'vrijheid'
p353
(dp354
S'NOUN'
p355
F1.0
s(lp356
g39
atp357
a(S'van'
p358
(dp359
S'ADP'
p360
F1.0
s(lp361
g45
atp362
a(S'kennis'
p363
(dp364
S'NOUN'
p365
F1.0
s(lp366
g58
atp367
a(g62
(dp368
g62
F1.0
s(lp369
g60
atp370
a(S'deze'
p371
(dp372
S'PRON'
p373
F1.0
s(lp374
g69
atp375
a(S'wordt'
p376
(dp377
S'VERB'
p378
F1.0
s(lp379
tp380
a(S'dan'
p381
(dp382
S'ADV'
p383
F0.828091
sS'CONJ'
p384
F0.171909
s(lp385
g237
atp386
a(S'toegevoegd'
p387
(dp388
S'VERB'
p389
F0.999608
sS'ADJ'
p390
F0.000392
s(lp391
g81
atp392
a(S'aan'
p393
(dp394
S'ADV'
p395
F0.00028
sS'ADP'
p396
F0.99972
s(lp397
g247
atp398
a(S'de'
p399
(dp400
S'DET'
p401
F1.0
s(lp402
g87
atp403
a(S'vier'
p404
(dp405
S'NUM'
p406
F0.999948
sS'VERB'
p407
F5.2e-05
s(lp408
g94
atp409
a(S'elementaire'
p410
(dp411
S'NOUN'
p412
F1.5e-05
sS'ADJ'
p413
F0.999985
s(lp414
g106
atp415
a(S'vrijheden'
p416
(dp417
S'NOUN'
p418
F1.0
s(lp419
g100
atp420
a(g60
(dp421
g62
F1.0
s(lp422
g111
atp423
a(S'de'
p424
(dp425
S'DET'
p426
F1.0
s(lp427
g119
atp428
a(S'vrijheid'
p429
(dp430
S'NOUN'
p431
F1.0
s(lp432
g125
atp433
a(S'van'
p434
(dp435
S'ADP'
p436
F1.0
s(lp437
tp438
a(S'verkeer'
p439
(dp440
S'VERB'
p441
F0.0
sS'NOUN'
p442
F1.0
s(lp443
g131
atp444
a(S'van'
p445
(dp446
S'ADP'
p447
F1.0
s(lp448
g138
atp449
a(S'goederen'
p450
(dp451
S'NOUN'
p452
F1.0
s(lp453
g153
atp454
a(g60
(dp455
g62
F1.0
s(lp456
g60
atp457
a(S'diensten'
p458
(dp459
S'NOUN'
p460
F1.0
s(lp461
g159
atp462
a(g60
(dp463
g62
F1.0
s(lp464
g60
atp465
a(S'mensen'
p466
(dp467
S'NOUN'
p468
F1.0
s(lp469
g174
atp470
a(S'en'
p471
(dp472
S'CONJ'
p473
F1.0
s(lp474
g180
atp475
a(S'kapitaal'
p476
(dp477
S'ADJ'
p478
F0.002665
sS'NOUN'
p479
F0.997335
s(lp480
g192
atp481
a(g62
(dp482
g62
F1.0
s(lp483
g62
atp484
asS'de'
p485
(lp486
(S'der'
p487
(dp488
S'PRON'
p489
F0.00034
sS'DET'
p490
F0.999542
s(lp491
g33
atp492
a(S'vorschlag'
p493
(dp494
S'ADJ'
p495
F0.000153
sS'NOUN'
p496
F0.999754
s(lp497
g7
atp498
a(S'betrifft'
p499
(dp500
S'VERB'
p501
F1.0
s(lp502
g20
atp503
a(S'die'
p504
(dp505
S'PRON'
p506
F0.00359
sS'DET'
p507
F0.996407
s(lp508
tp509
a(S'wissensfreiheit'
p510
(dp511
S'ADJ'
p512
F0.147703
sS'NOUN'
p513
F0.795054
s(lp514
tp515
a(g60
(dp516
g62
F1.0
s(lp517
g60
atp518
a(S'die'
p519
(dp520
S'PRON'
p521
F0.982275
sS'DET'
p522
F0.011334
s(lp523
g69
atp524
a(S'als'
p525
(dp526
S'CONJ'
p527
F0.9996079999999999
s(lp528
tp529
a(S'f\xc3\xbcnfte'
p530
(dp531
S'ADJ'
p532
F1.0
s(lp533
g58
atp534
a(S'freiheit'
p535
(dp536
S'ADJ'
p537
F0.002091
sS'NOUN'
p538
F0.994455
s(lp539
g39
atp540
a(S'zu'
p541
(dp542
S'PRT'
p543
F0.002233
sS'ADP'
p544
F0.997049
s(lp545
g247
atp546
a(S'den'
p547
(dp548
S'PRON'
p549
F0.003373
sS'DET'
p550
F0.99631
s(lp551
g87
atp552
a(S'bereits'
p553
(dp554
S'ADV'
p555
F1.0
s(lp556
tp557
a(S'existierenden'
p558
(dp559
S'ADJ'
p560
F1.0
s(lp561
g106
atp562
a(S'vier'
p563
(dp564
S'NUM'
p565
F1.0
s(lp566
g94
atp567
a(S'grundfreiheiten'
p568
(dp569
S'ADJ'
p570
F0.066957
sS'NOUN'
p571
F0.894869
s(lp572
g100
atp573
a(S'hinzukommen'
p574
(dp575
S'VERB'
p576
F0.999993
s(lp577
g81
atp578
a(S'soll'
p579
(dp580
S'VERB'
p581
F1.0
s(lp582
g237
atp583
a(g60
(dp584
g62
F1.0
s(lp585
tp586
a(S'd.'
p587
(dp588
S'PRON'
p589
F0.992599
sS'DET'
p590
F0.007401
s(lp591
tp592
a(S'h.'
p593
(dp594
S'VERB'
p595
F1.0
s(lp596
g111
atp597
a(S'zum'
p598
(dp599
S'ADP'
p600
F1.0
s(lp601
g119
atp602
a(S'freien'
p603
(dp604
S'VERB'
p605
F4e-06
sS'ADJ'
p606
F0.999996
s(lp607
g125
atp608
a(S'waren-'
p609
(dp610
S'X'
p611
F1.0
s(lp612
g153
atp613
a(g60
(dp614
g62
F1.0
s(lp615
g60
atp616
a(S'dienstleistungs-'
p617
(dp618
g611
F0.626165
sS'ADJ'
p619
F0.33169
s(lp620
g159
atp621
a(g60
(dp622
g62
F1.0
s(lp623
g60
atp624
a(S'personen-'
p625
(dp626
g611
F1.0
s(lp627
g174
atp628
a(S'und'
p629
(dp630
S'CONJ'
p631
F1.0
s(lp632
g180
atp633
a(S'kapitalverkehr'
p634
(dp635
S'VERB'
p636
F0.358945
sS'NOUN'
p637
F0.283275
s(lp638
g192
atp639
a(g62
(dp640
g62
F1.0
s(lp641
g62
atp642
asS'it'
p643
(lp644
(S'si'
p645
(dp646
S'PRON'
p647
F0.999997
sS'NOUN'
p648
F3e-06
s(lp649
g7
atp650
a(S'tratta'
p651
(dp652
S'VERB'
p653
F0.999004
sS'NOUN'
p654
F0.000996
s(lp655
g20
atp656
a(S'della'
p657
(dp658
S'DEF'
p659
F0.125991
sS'ADP'
p660
F0.874009
s(lp661
g33
atp662
a(S'libera'
p663
(dp664
S'VERB'
p665
F0.001029
sS'ADJ'
p666
F0.998971
s(lp667
tp668
a(S'circolazione'
p669
(dp670
S'NOUN'
p671
F1.0
s(lp672
g39
atp673
a(S'delle'
p674
(dp675
S'DEF'
p676
F0.001048
sS'ADP'
p677
F0.998952
s(lp678
g45
atp679
a(S'conoscenze'
p680
(dp681
S'NOUN'
p682
F1.0
s(lp683
g58
atp684
a(g60
(dp685
g62
F1.0
s(lp686
g60
atp687
a(S'che'
p688
(dp689
S'PRON'
p690
F0.968225
sS'CONJ'
p691
F0.031771
sS'ADJ'
p692
F4e-06
s(lp693
g69
atp694
a(S'si'
p695
(dp696
S'PRON'
p697
F0.999999
sS'NOUN'
p698
F0.0
s(lp699
g237
atp700
a(S'aggiungerebbe'
p701
(dp702
S'VERB'
p703
F1.0
s(lp704
g81
atp705
a(S'alle'
p706
(dp707
S'ADP'
p708
F1.0
s(lp709
g247
atp710
a(S'quattro'
p711
(dp712
S'NOUN'
p713
F0.043005
sS'NUM'
p714
F0.006407
sS'ADJ'
p715
F0.950588
s(lp716
g94
atp717
a(S'libert\xc3\xa0'
p718
(dp719
S'NOUN'
p720
F1.0
s(lp721
g100
atp722
a(S'fondamentali'
p723
(dp724
S'ADJ'
p725
F1.0
s(lp726
g106
atp727
a(g108
(dp728
g62
F1.0
s(lp729
g111
atp730
a(S'la'
p731
(dp732
S'PRON'
p733
F0.005124
sS'DET'
p734
F0.994876
s(lp735
g119
atp736
a(S'libera'
p737
(dp738
S'VERB'
p739
F0.003473
sS'ADJ'
p740
F0.996526
s(lp741
g125
atp742
a(S'circolazione'
p743
(dp744
S'NOUN'
p745
F1.0
s(lp746
g131
atp747
a(S'di'
p748
(dp749
S'CONJ'
p750
F4e-06
sS'ADP'
p751
F0.999996
s(lp752
g138
atp753
a(S'merci'
p754
(dp755
S'NOUN'
p756
F1.0
s(lp757
g153
atp758
a(g60
(dp759
g62
F1.0
s(lp760
g60
atp761
a(S'servizi'
p762
(dp763
S'NOUN'
p764
F1.0
s(lp765
g159
atp766
a(g60
(dp767
g62
F1.0
s(lp768
g60
atp769
a(S'persone'
p770
(dp771
S'NOUN'
p772
F1.0
s(lp773
g174
atp774
a(S'e'
p775
(dp776
S'CONJ'
p777
F1.0
s(lp778
g180
atp779
a(S'capitali'
p780
(dp781
S'ADJ'
p782
F0.316542
sS'VERB'
p783
F0.0013
sS'NOUN'
p784
F0.682159
s(lp785
g192
atp786
a(g62
(dp787
g62
F1.0
s(lp788
g62
atp789
asS'sk'
p790
(lp791
(S'ide'
p792
(dp793
S'VERB'
p794
F1.0
s(lp795
g20
atp796
a(S'o'
p797
(dp798
g611
F0.000917
sS'CONJ'
p799
F1.4e-05
sS'NOUN'
p800
F1.4e-05
sS'ADP'
p801
F0.999055
s(lp802
g33
atp803
a(S'slobodu'
p804
(dp805
S'NOUN'
p806
F1.0
s(lp807
g39
atp808
a(S'vedomost\xc3\xad'
p809
(dp810
S'NOUN'
p811
F1.0
s(lp812
g58
atp813
a(g60
(dp814
g62
F1.0
s(lp815
g60
atp816
a(S'ktor\xc3\xa1'
p817
(dp818
S'PRON'
p819
F1.0
s(lp820
g69
atp821
a(S'sa'
p822
(dp823
S'PRT'
p824
F0.999956
sS'ADP'
p825
F0.0
sg611
F4.4999999999999996e-05
s(lp826
g237
atp827
a(S'prid\xc3\xa1'
p828
(dp829
S'VERB'
p830
F1.0
s(lp831
g81
atp832
a(S'k'
p833
(dp834
g611
F9.8e-05
sS'NOUN'
p835
F4e-06
sS'ADP'
p836
F0.999898
s(lp837
g247
atp838
a(S'\xc5\xa1tyrom'
p839
(dp840
S'NUM'
p841
F1.0
s(lp842
g94
atp843
a(S'z\xc3\xa1kladn\xc3\xbdm'
p844
(dp845
S'ADJ'
p846
F1.0
s(lp847
g106
atp848
a(S'slobod\xc3\xa1m'
p849
(dp850
S'NOUN'
p851
F1.0
s(lp852
g100
atp853
a(g111
(dp854
g62
F1.0
s(lp855
g111
atp856
a(S'vo\xc4\xben\xc3\xa9mu'
p857
(dp858
S'ADJ'
p859
F1.0
s(lp860
g125
atp861
a(S'pohybu'
p862
(dp863
S'NOUN'
p864
F1.0
s(lp865
g131
atp866
a(S'tovaru'
p867
(dp868
S'NOUN'
p869
F1.0
s(lp870
g153
atp871
a(g60
(dp872
g62
F1.0
s(lp873
g60
atp874
a(S'slu\xc5\xbeieb'
p875
(dp876
S'NOUN'
p877
F1.0
s(lp878
g159
atp879
a(g60
(dp880
g62
F1.0
s(lp881
g60
atp882
a(S'os\xc3\xb4b'
p883
(dp884
S'NOUN'
p885
F1.0
s(lp886
g174
atp887
a(S'a'
p888
(dp889
g611
F0.0007580000000000001
sS'CONJ'
p890
F0.998528
sS'NOUN'
p891
F5.5e-05
sS'ADP'
p892
F0.000628
sS'PRT'
p893
F3.2e-05
s(lp894
g180
atp895
a(S'kapit\xc3\xa1lu'
p896
(dp897
S'NOUN'
p898
F1.0
s(lp899
g192
atp900
a(g62
(dp901
g62
F1.0
s(lp902
g62
atp903
asS'pl'
p904
(lp905
(S'to'
p906
(dp907
S'NOUN'
p908
F0.15977
sS'ADP'
p909
F3e-06
sS'PRT'
p910
F0.053892
sg611
F2.3e-05
sS'CONJ'
p911
F0.306355
sS'ADJ'
p912
F0.479958
s(lp913
g7
atp914
a(S'wolno\xc5\x9b\xc4\x87'
p915
(dp916
S'NOUN'
p917
F1.0
s(lp918
g39
atp919
a(S'wiedzy'
p920
(dp921
S'NOUN'
p922
F1.0
s(lp923
g58
atp924
a(g60
(dp925
g611
F0.0
sg62
F1.0
s(lp926
g60
atp927
a(S'kt\xc3\xb3ra'
p928
(dp929
S'ADJ'
p930
F1.0
s(lp931
g69
atp932
a(S'by\xc5\x82aby'
p933
(dp934
S'ADV'
p935
F0.001417
sS'NOUN'
p936
F0.749491
sS'PRT'
p937
F0.003379
sS'VERB'
p938
F0.19079600000000002
sS'CONJ'
p939
F0.007912
sS'ADJ'
p940
F0.047007
s(lp941
g75
atp942
a(S'dodana'
p943
(dp944
S'VERB'
p945
F1.0
s(lp946
g81
atp947
a(S'do'
p948
(dp949
g611
F0.0
sS'NOUN'
p950
F3e-06
sS'ADP'
p951
F0.999996
s(lp952
g247
atp953
a(S'czterech'
p954
(dp955
S'NUM'
p956
F0.9999999999999999
s(lp957
g94
atp958
a(S'podstawowych'
p959
(dp960
S'ADJ'
p961
F0.9999990000000001
s(lp962
g106
atp963
a(S'wolno\xc5\x9bci'
p964
(dp965
S'NOUN'
p966
F1.0000010000000001
s(lp967
g100
atp968
a(g111
(dp969
g611
F0.000158
sS'NUM'
p970
F0.0
sS'NOUN'
p971
F1.8e-05
sg62
F0.999824
s(lp972
g111
atp973
a(S'swobodnego'
p974
(dp975
S'ADJ'
p976
F1.0
s(lp977
g125
atp978
a(S'przep\xc5\x82ywu'
p979
(dp980
S'NOUN'
p981
F1.0
s(lp982
g131
atp983
a(S'towar\xc3\xb3w'
p984
(dp985
S'NOUN'
p986
F1.0
s(lp987
g153
atp988
a(g60
(dp989
g611
F0.0
sg62
F1.0
s(lp990
g60
atp991
a(S'us\xc5\x82ug'
p992
(dp993
S'NOUN'
p994
F1.0
s(lp995
g159
atp996
a(g60
(dp997
g611
F0.0
sg62
F1.0
s(lp998
g60
atp999
a(S'ludzi'
p1000
(dp1001
S'NOUN'
p1002
F1.0
s(lp1003
g174
atp1004
a(S'i'
p1005
(dp1006
S'PRT'
p1007
F0.001064
sS'CONJ'
p1008
F0.998844
sS'PRON'
p1009
F4e-06
sS'NOUN'
p1010
F7.3e-05
sg611
F1.7e-05
s(lp1011
g180
atp1012
a(S'kapita\xc5\x82u'
p1013
(dp1014
S'NOUN'
p1015
F1.0
s(lp1016
g192
atp1017
a(g62
(dp1018
g62
F1.0
s(lp1019
g62
atp1020
asS'sl'
p1021
(lp1022
(S'to'
p1023
(dp1024
S'PRON'
p1025
F0.999934
sg611
F6.6e-05
s(lp1026
g7
atp1027
a(S'je'
p1028
(dp1029
S'PRON'
p1030
F0.000448
sS'VERB'
p1031
F0.999544
sg611
F8e-06
s(lp1032
g20
atp1033
a(S'prosti'
p1034
(dp1035
S'ADJ'
p1036
F0.9999999999999999
s(lp1037
g39
atp1038
a(S'pretok'
p1039
(dp1040
S'NOUN'
p1041
F1.0
s(lp1042
tp1043
a(S'znanja'
p1044
(dp1045
S'NOUN'
p1046
F1.0
s(lp1047
g58
atp1048
a(g60
(dp1049
g62
F1.0
s(lp1050
g60
atp1051
a(S'ki'
p1052
(dp1053
S'CONJ'
p1054
F1.0
s(lp1055
g69
atp1056
a(S'bo'
p1057
(dp1058
S'VERB'
p1059
F1.0
s(lp1060
g75
atp1061
a(S'dodan'
p1062
(dp1063
S'ADJ'
p1064
F1.0
s(lp1065
g81
atp1066
a(S'\xc5\xa1tirim'
p1067
(dp1068
S'NUM'
p1069
F1.0
s(lp1070
g94
atp1071
a(S'temeljnim'
p1072
(dp1073
S'ADV'
p1074
F4.8e-05
sS'NOUN'
p1075
F0.00048400000000000006
sS'VERB'
p1076
F0.000637
sS'ADJ'
p1077
F0.9988340000000001
s(lp1078
g106
atp1079
a(S'svobo\xc5\xa1\xc4\x8dinam'
p1080
(dp1081
S'ADJ'
p1082
F0.000546
sS'PRON'
p1083
F0.00063
sS'ADV'
p1084
F8.1e-05
sS'VERB'
p1085
F0.0030340000000000002
sS'NOUN'
p1086
F0.9957050000000002
s(lp1087
g100
atp1088
a(g60
(dp1089
g62
F1.0
s(lp1090
g111
atp1091
a(S'namre\xc4\x8d'
p1092
(dp1093
S'CONJ'
p1094
F1.0
s(lp1095
g119
atp1096
a(S'prostemu'
p1097
(dp1098
S'ADV'
p1099
F0.000828
sS'NOUN'
p1100
F0.04658199999999997
sS'PRON'
p1101
F0.003055
sS'VERB'
p1102
F0.017346000000000004
sS'NUM'
p1103
F0.000309
sS'ADJ'
p1104
F0.93188
s(lp1105
g125
atp1106
a(S'pretoku'
p1107
(dp1108
S'NOUN'
p1109
F1.0
s(lp1110
g131
atp1111
a(S'blaga'
p1112
(dp1113
S'NOUN'
p1114
F1.0
s(lp1115
g153
atp1116
a(g60
(dp1117
g62
F1.0
s(lp1118
g60
atp1119
a(S'storitev'
p1120
(dp1121
S'NOUN'
p1122
F1.0
s(lp1123
g159
atp1124
a(g60
(dp1125
g62
F1.0
s(lp1126
g60
atp1127
a(S'oseb'
p1128
(dp1129
S'NOUN'
p1130
F1.0
s(lp1131
g174
atp1132
a(S'in'
p1133
(dp1134
S'ADV'
p1135
F9.3e-05
sg611
F1.7e-05
sS'CONJ'
p1136
F0.999831
sS'NOUN'
p1137
F6e-05
s(lp1138
g180
atp1139
a(S'kapitala'
p1140
(dp1141
S'NOUN'
p1142
F1.0
s(lp1143
g192
atp1144
a(g62
(dp1145
g62
F1.0
s(lp1146
g62
atp1147
asS'es'
p1148
(lp1149
(S'es'
p1150
(dp1151
S'VERB'
p1152
F1.0
s(lp1153
g20
atp1154
a(S'\xc3\xa9sta'
p1155
(dp1156
S'PRON'
p1157
F1.0
s(lp1158
g7
atp1159
a(S'la'
p1160
(dp1161
S'PRON'
p1162
F0.002853
sS'DET'
p1163
F0.996904
sg611
F0.0
sS'NOUN'
p1164
F0.000242
s(lp1165
g33
atp1166
a(S'libertad'
p1167
(dp1168
S'NOUN'
p1169
F1.0
s(lp1170
g39
atp1171
a(S'del'
p1172
(dp1173
S'ADP'
p1174
F1.0
s(lp1175
g45
atp1176
a(S'conocimiento'
p1177
(dp1178
S'NOUN'
p1179
F1.0
s(lp1180
g58
atp1181
a(g60
(dp1182
g62
F1.0
s(lp1183
g60
atp1184
a(S'que'
p1185
(dp1186
g611
F5e-06
sS'CONJ'
p1187
F0.999995
s(lp1188
g69
atp1189
a(S'se'
p1190
(dp1191
S'PRON'
p1192
F1.0
sS'VERB'
p1193
F0.0
s(lp1194
g237
atp1195
a(S'a\xc3\xb1adir\xc3\xada'
p1196
(dp1197
S'VERB'
p1198
F1.0
s(lp1199
g81
atp1200
a(g888
(dp1201
g611
F6.3e-05
sS'CONJ'
p1202
F4e-06
sS'ADP'
p1203
F0.999933
s(lp1204
g247
atp1205
a(S'las'
p1206
(dp1207
S'PRON'
p1208
F0.0
sS'DET'
p1209
F1.0
s(lp1210
g87
atp1211
a(S'cuatro'
p1212
(dp1213
S'NUM'
p1214
F1.0
s(lp1215
g94
atp1216
a(S'libertades'
p1217
(dp1218
S'NOUN'
p1219
F1.0
s(lp1220
g100
atp1221
a(S'fundamentales'
p1222
(dp1223
S'ADJ'
p1224
F1.0
s(lp1225
g106
atp1226
a(g111
(dp1227
g62
F1.0
s(lp1228
g111
atp1229
a(S'la'
p1230
(dp1231
S'PRON'
p1232
F0.030707
sS'DET'
p1233
F0.96012
sS'NOUN'
p1234
F3.2e-05
sg611
F0.009142
s(lp1235
g119
atp1236
a(S'libertad'
p1237
(dp1238
S'NOUN'
p1239
F1.0
s(lp1240
g125
atp1241
a(S'de'
p1242
(dp1243
g611
F2.9e-05
sS'CONJ'
p1244
F0.000449
sS'ADP'
p1245
F0.999522
s(lp1246
tp1247
a(S'circulaci\xc3\xb3n'
p1248
(dp1249
S'NOUN'
p1250
F1.0
s(lp1251
g131
atp1252
a(S'de'
p1253
(dp1254
g611
F2.9e-05
sS'CONJ'
p1255
F0.000449
sS'ADP'
p1256
F0.999522
s(lp1257
g138
atp1258
a(S'mercanc\xc3\xadas'
p1259
(dp1260
S'NOUN'
p1261
F1.0
s(lp1262
g153
atp1263
a(g60
(dp1264
g62
F1.0
s(lp1265
g60
atp1266
a(S'servicios'
p1267
(dp1268
S'NOUN'
p1269
F1.0
s(lp1270
g159
atp1271
a(g60
(dp1272
g62
F1.0
s(lp1273
g60
atp1274
a(S'personas'
p1275
(dp1276
S'NOUN'
p1277
F1.0
s(lp1278
g174
atp1279
a(S'y'
p1280
(dp1281
g611
F0.00205
sS'CONJ'
p1282
F0.99795
s(lp1283
g180
atp1284
a(S'capitales'
p1285
(dp1286
S'NOUN'
p1287
F0.144505
sS'ADJ'
p1288
F0.855495
s(lp1289
g192
atp1290
a(g62
(dp1291
g62
F1.0
s(lp1292
g62
atp1293
as.