(dp0
S'fr'
p1
(lp2
(S'nous'
p3
(dp4
S'PRON'
p5
F1.0
s(lp6
S'we'
p7
atp8
a(S'regrettons'
p9
(dp10
S'VERB'
p11
F1.0
s(lp12
S'regret'
p13
atp14
a(S'que'
p15
(dp16
S'ADV'
p17
F0.112792
sS'PRON'
p18
F0.035686999999999997
sS'CONJ'
p19
F0.85152
s(lp20
S'that'
p21
atp22
a(S'le'
p23
(dp24
S'PRON'
p25
F0.000546
sS'DET'
p26
F0.999454
s(lp27
S'the'
p28
atp29
a(S'conseil'
p30
(dp31
S'NOUN'
p32
F1.0
s(lp33
S'council'
p34
atp35
a(S'ne'
p36
(dp37
S'ADV'
p38
F1.0
s(lp39
tp40
a(S'soit'
p41
(dp42
S'ADV'
p43
F0.185409
sS'CONJ'
p44
F0.756146
sS'VERB'
p45
F0.058445
s(lp46
S'was'
p47
atp48
a(S'pas'
p49
(dp50
S'ADV'
p51
F0.999473
sS'NOUN'
p52
F0.000527
s(lp53
S'not'
p54
atp55
a(S'parvenu'
p56
(dp57
S'VERB'
p58
F1.0
s(lp59
S'able'
p60
atp61
a(S'\xc3\xa0'
p62
(dp63
S'ADP'
p64
F1.0
s(lp65
S'reach'
p66
atp67
a(S'un'
p68
(dp69
S'NOUN'
p70
F7.4e-05
sS'NUM'
p71
F0.028682
sS'DET'
p72
F0.971244
s(lp73
S'a'
p74
atp75
a(S'accord'
p76
(dp77
S'NOUN'
p78
F1.0
s(lp79
S'agreement'
p80
atp81
a(S'politique'
p82
(dp83
S'NOUN'
p84
F0.01389
sS'VERB'
p85
F0.005801
sS'ADJ'
p86
F0.980309
s(lp87
S'political'
p88
atp89
a(S'en'
p90
(dp91
S'PRON'
p92
F0.000283
sS'ADP'
p93
F0.999717
s(lp94
S'in'
p95
atp96
a(S'd\xc3\xa9cembre'
p97
(dp98
S'NOUN'
p99
F1.0
s(lp100
S'december'
p101
atp102
a(S','
p103
(dp104
S'.'
p105
F1.0
s(lp106
g103
atp107
a(S'malgr\xc3\xa9'
p108
(dp109
S'ADP'
p110
F1.0
s(lp111
S'spite'
p112
atp113
a(S'le'
p114
(dp115
S'PRON'
p116
F6.2e-05
sS'DET'
p117
F0.999938
s(lp118
S'the'
p119
atp120
a(S'travail'
p121
(dp122
S'NOUN'
p123
F1.0
s(lp124
S'work'
p125
atp126
a(S'consid\xc3\xa9rable'
p127
(dp128
S'ADJ'
p129
F1.0
s(lp130
S'enormous'
p131
atp132
a(S'accompli'
p133
(dp134
S'ADJ'
p135
F0.021501
sS'VERB'
p136
F0.703495
sS'NOUN'
p137
F0.275005
s(lp138
S'done'
p139
atp140
a(S'par'
p141
(dp142
S'NOUN'
p143
F0.0
sS'ADP'
p144
F1.0
s(lp145
S'by'
p146
atp147
a(S'la'
p148
(dp149
S'PRON'
p150
F1.2e-05
sS'DET'
p151
F0.999988
sS'NOUN'
p152
F0.0
s(lp153
S'the'
p154
atp155
a(S'pr\xc3\xa9sidence'
p156
(dp157
S'NOUN'
p158
F1.0
s(lp159
S'presidency'
p160
atp161
a(S'portugaise'
p162
(dp163
S'NOUN'
p164
F0.004999
sS'ADJ'
p165
F0.995001
s(lp166
S'portuguese'
p167
atp168
a(g103
(dp169
g105
F1.0
s(lp170
g103
atp171
a(S'le'
p172
(dp173
S'PRON'
p174
F0.000368
sS'DET'
p175
F0.999632
s(lp176
S'the'
p177
atp178
a(S'soutien'
p179
(dp180
S'NOUN'
p181
F1.0
s(lp182
S'support'
p183
atp184
a(S'de'
p185
(dp186
S'ADP'
p187
F1.0
s(lp188
S'of'
p189
atp190
a(S'22'
p191
(dp192
S'X'
p193
F0.003721
sS'NUM'
p194
F0.996279
s(lp195
S'22'
p196
atp197
a(S'\xc3\x89tats'
p198
(dp199
S'NOUN'
p200
F1.0
s(lp201
S'states'
p202
atp203
a(S'membres'
p204
(dp205
S'VERB'
p206
F0.06526799999999999
sS'NOUN'
p207
F0.934731
s(lp208
S'member'
p209
atp210
a(S'et'
p211
(dp212
S'CONJ'
p213
F1.0
s(lp214
S'and'
p215
atp216
a(S'la'
p217
(dp218
S'PRON'
p219
F0.000103
sS'DET'
p220
F0.999897
sS'NOUN'
p221
F0.0
s(lp222
S'the'
p223
atp224
a(S'souplesse'
p225
(dp226
S'NOUN'
p227
F1.0
s(lp228
S'flexibility'
p229
atp230
a(S'dont'
p231
(dp232
S'PRON'
p233
F1.0
s(lp234
S'shown'
p235
atp236
a(S'la'
p237
(dp238
S'PRON'
p239
F0.000337
sS'DET'
p240
F0.999663
sS'NOUN'
p241
F0.0
s(lp242
S'the'
p243
atp244
a(S'commission'
p245
(dp246
S'NOUN'
p247
F1.0
s(lp248
S'commission'
p249
atp250
a(g74
(dp251
S'VERB'
p252
F1.0
s(lp253
g235
atp254
a(S'fait'
p255
(dp256
S'NOUN'
p257
F0.015843
sS'VERB'
p258
F0.9373900000000001
sS'ADJ'
p259
F0.046767
s(lp260
tp261
a(S'preuve'
p262
(dp263
S'NOUN'
p264
F1.0
s(lp265
g235
atp266
a(g105
(dp267
g105
F1.0
s(lp268
g105
atp269
asS'en'
p270
(lp271
(g7
(dp272
S'PRON'
p273
F1.0
s(lp274
g7
atp275
a(g13
(dp276
S'VERB'
p277
F0.9999870000000001
sS'NOUN'
p278
F1.4e-05
s(lp279
g13
atp280
a(g21
(dp281
S'ADV'
p282
F0.000432
sS'DET'
p283
F0.0012670000000000001
sS'ADP'
p284
F0.998301
s(lp285
g21
atp286
a(g28
(dp287
S'NOUN'
p288
F3e-06
sS'DET'
p289
F0.999997
s(lp290
g28
atp291
a(g34
(dp292
S'NOUN'
p293
F1.0
s(lp294
g34
atp295
a(g47
(dp296
S'VERB'
p297
F1.0
s(lp298
g47
atp299
a(g54
(dp300
S'ADV'
p301
F1.0
s(lp302
g54
atp303
a(g60
(dp304
S'ADJ'
p305
F1.0
s(lp306
g60
atp307
a(S'to'
p308
(dp309
S'ADV'
p310
F0.0
sS'PRT'
p311
F1.0
sS'ADP'
p312
F0.0
s(lp313
g308
atp314
a(g66
(dp315
S'VERB'
p316
F0.99996
sS'NOUN'
p317
F4e-05
s(lp318
g66
atp319
a(g74
(dp320
S'NOUN'
p321
F0.0
sS'DET'
p322
F1.0
s(lp323
g74
atp324
a(g88
(dp325
S'ADJ'
p326
F1.0
s(lp327
g88
atp328
a(g80
(dp329
S'NOUN'
p330
F1.0
s(lp331
g80
atp332
a(g95
(dp333
S'ADV'
p334
F0.000116
sS'PRT'
p335
F0.000195
sS'ADP'
p336
F0.99969
s(lp337
g95
atp338
a(g101
(dp339
S'ADJ'
p340
F0.021948
sS'VERB'
p341
F2.9e-05
sS'NOUN'
p342
F0.9780230000000001
s(lp343
g101
atp344
a(g103
(dp345
g105
F1.0
s(lp346
g103
atp347
a(S'in'
p348
(dp349
S'ADV'
p350
F0.001027
sS'PRT'
p351
F0.0
sS'ADP'
p352
F0.998973
s(lp353
g348
atp354
a(g112
(dp355
S'VERB'
p356
F0.000164
sS'NOUN'
p357
F0.999837
s(lp358
g112
atp359
a(S'of'
p360
(dp361
S'ADP'
p362
F1.0
s(lp363
g360
atp364
a(g119
(dp365
S'NOUN'
p366
F1e-06
sS'DET'
p367
F0.999999
s(lp368
g119
atp369
a(g131
(dp370
S'ADJ'
p371
F1.0
s(lp372
g131
atp373
a(g125
(dp374
S'VERB'
p375
F0.001091
sS'NOUN'
p376
F0.998909
s(lp377
g125
atp378
a(g139
(dp379
S'VERB'
p380
F0.999827
sS'ADJ'
p381
F0.000173
s(lp382
g139
atp383
a(g146
(dp384
S'ADV'
p385
F0.000139
sS'NOUN'
p386
F0.0
sS'ADP'
p387
F0.999861
s(lp388
g146
atp389
a(g154
(dp390
S'NOUN'
p391
F1e-06
sS'DET'
p392
F0.999999
s(lp393
g154
atp394
a(g167
(dp395
S'NOUN'
p396
F0.241435
sS'ADJ'
p397
F0.758565
s(lp398
g167
atp399
a(g160
(dp400
S'NOUN'
p401
F1.0
s(lp402
g160
atp403
a(g103
(dp404
g105
F1.0
s(lp405
g103
atp406
a(g177
(dp407
S'NOUN'
p408
F4e-06
sS'DET'
p409
F0.999996
s(lp410
g177
atp411
a(g183
(dp412
S'VERB'
p413
F0.0015140000000000002
sS'NOUN'
p414
F0.998486
s(lp415
g183
atp416
a(g189
(dp417
S'ADP'
p418
F1.0
s(lp419
g189
atp420
a(g196
(dp421
S'ADV'
p422
F2e-06
sS'NOUN'
p423
F7.9e-05
sS'NUM'
p424
F0.99915
sS'ADJ'
p425
F0.000769
sg193
F0.0
s(lp426
g196
atp427
a(g209
(dp428
S'NOUN'
p429
F1.0
s(lp430
g209
atp431
a(g202
(dp432
S'VERB'
p433
F0.002928
sS'NOUN'
p434
F0.997072
s(lp435
g202
atp436
a(g215
(dp437
S'CONJ'
p438
F1.0
sS'NOUN'
p439
F0.0
s(lp440
g215
atp441
a(g223
(dp442
S'NOUN'
p443
F2e-06
sS'DET'
p444
F0.999998
s(lp445
g223
atp446
a(g229
(dp447
S'NOUN'
p448
F1.0
s(lp449
g229
atp450
a(g235
(dp451
S'VERB'
p452
F1.0
s(lp453
g235
atp454
a(S'by'
p455
(dp456
S'ADV'
p457
F0.000139
sS'NOUN'
p458
F0.0
sS'ADP'
p459
F0.999861
s(lp460
g455
atp461
a(g243
(dp462
S'NOUN'
p463
F1e-06
sS'DET'
p464
F0.999999
s(lp465
g243
atp466
a(g249
(dp467
S'VERB'
p468
F8e-06
sS'NOUN'
p469
F0.999992
s(lp470
g249
atp471
a(g105
(dp472
g105
F1.0
s(lp473
g105
atp474
asS'nl'
p475
(lp476
(S'wij'
p477
(dp478
S'PRON'
p479
F1.0
s(lp480
g7
atp481
a(S'betreuren'
p482
(dp483
S'VERB'
p484
F0.997128
sS'NOUN'
p485
F0.002871
s(lp486
tp487
a(S'het'
p488
(dp489
S'PRON'
p490
F0.813651
sS'DET'
p491
F0.186349
s(lp492
g13
atp493
a(S'dat'
p494
(dp495
S'PRON'
p496
F0.246262
sS'CONJ'
p497
F0.753738
s(lp498
g21
atp499
a(S'de'
p500
(dp501
S'DET'
p502
F1.0
s(lp503
g28
atp504
a(S'raad'
p505
(dp506
S'VERB'
p507
F1e-06
sS'NOUN'
p508
F0.999999
s(lp509
g34
atp510
a(S'in'
p511
(dp512
S'ADV'
p513
F2e-06
sS'VERB'
p514
F0.0
sS'ADP'
p515
F0.999998
s(lp516
g95
atp517
a(S'december'
p518
(dp519
S'NOUN'
p520
F1.0
s(lp521
g101
atp522
a(S'niet'
p523
(dp524
S'ADV'
p525
F0.999996
sg193
F0.0
sS'VERB'
p526
F3e-06
sS'PRON'
p527
F0.0
s(lp528
g54
atp529
a(S'in'
p530
(dp531
S'ADV'
p532
F0.006377
sS'VERB'
p533
F1e-06
sS'ADP'
p534
F0.993622
s(lp535
tp536
a(S'staat'
p537
(dp538
S'VERB'
p539
F2e-06
sS'NOUN'
p540
F0.999998
s(lp541
g60
atp542
a(S'was'
p543
(dp544
S'VERB'
p545
F0.9999990000000001
sS'NOUN'
p546
F1e-06
s(lp547
g47
atp548
a(S'een'
p549
(dp550
S'ADJ'
p551
F0.0
sS'PRON'
p552
F1e-06
sS'NUM'
p553
F1e-06
sS'DET'
p554
F0.999998
s(lp555
g74
atp556
a(S'politiek'
p557
(dp558
S'NOUN'
p559
F0.039627
sS'ADJ'
p560
F0.960373
s(lp561
g88
atp562
a(S'akkoord'
p563
(dp564
S'ADJ'
p565
F0.004781
sS'NOUN'
p566
F0.995219
s(lp567
g80
atp568
a(S'te'
p569
(dp570
S'PRT'
p571
F1.0
s(lp572
g308
atp573
a(S'bereiken'
p574
(dp575
S'VERB'
p576
F0.9999979999999999
sS'NOUN'
p577
F2e-06
s(lp578
g66
atp579
a(g103
(dp580
g105
F1.0
s(lp581
g103
atp582
a(S'ondanks'
p583
(dp584
S'ADP'
p585
F1.0
s(lp586
tp587
a(S'het'
p588
(dp589
S'PRON'
p590
F0.0056819999999999996
sS'DET'
p591
F0.994319
s(lp592
g119
atp593
a(S'enorme'
p594
(dp595
S'NOUN'
p596
F0.028181
sS'ADJ'
p597
F0.971819
s(lp598
g131
atp599
a(S'werk'
p600
(dp601
S'VERB'
p602
F0.071031
sS'NOUN'
p603
F0.928969
s(lp604
g125
atp605
a(S'dat'
p606
(dp607
S'PRON'
p608
F0.042227
sS'CONJ'
p609
F0.957774
s(lp610
g146
atp611
a(S'het'
p612
(dp613
S'PRON'
p614
F0.031659
sS'DET'
p615
F0.968341
s(lp616
g154
atp617
a(S'portugese'
p618
(dp619
S'ADJ'
p620
F0.152256
sS'NOUN'
p621
F0.8477439999999999
s(lp622
g167
atp623
a(S'voorzitterschap'
p624
(dp625
S'NOUN'
p626
F1.0
s(lp627
g160
atp628
a(S'heeft'
p629
(dp630
S'VERB'
p631
F1.0
s(lp632
tp633
a(S'verricht'
p634
(dp635
S'VERB'
p636
F1.0
s(lp637
g139
atp638
a(g103
(dp639
g105
F1.0
s(lp640
tp641
a(S'en'
p642
(dp643
S'CONJ'
p644
F1.0
s(lp645
g103
atp646
a(S'ondanks'
p647
(dp648
S'ADP'
p649
F1.0
s(lp650
g112
atp651
a(S'de'
p652
(dp653
S'DET'
p654
F1.0
s(lp655
g177
atp656
a(S'steun'
p657
(dp658
S'VERB'
p659
F4e-06
sS'NOUN'
p660
F0.999996
s(lp661
g183
atp662
a(S'van'
p663
(dp664
S'ADP'
p665
F1.0
s(lp666
g189
atp667
a(S'22'
p668
(dp669
S'NUM'
p670
F1.0
s(lp671
g196
atp672
a(S'lidstaten'
p673
(dp674
S'NOUN'
p675
F1.0
s(lp676
g209
atp677
a(S'en'
p678
(dp679
S'CONJ'
p680
F1.0
s(lp681
g215
atp682
a(S'de'
p683
(dp684
S'DET'
p685
F1.0
s(lp686
g223
atp687
a(S'flexibele'
p688
(dp689
S'NOUN'
p690
F0.00073
sS'ADJ'
p691
F0.99927
s(lp692
tp693
a(S'opstelling'
p694
(dp695
S'NOUN'
p696
F1.0
s(lp697
g229
atp698
a(S'van'
p699
(dp700
S'ADP'
p701
F1.0
s(lp702
g455
atp703
a(S'de'
p704
(dp705
S'DET'
p706
F1.0
s(lp707
g243
atp708
a(S'commissie'
p709
(dp710
S'NOUN'
p711
F1.0
s(lp712
g249
atp713
a(g105
(dp714
g105
F1.0
s(lp715
g105
atp716
asS'de'
p717
(lp718
(S'wir'
p719
(dp720
S'PRON'
p721
F1.0
s(lp722
g7
atp723
a(S'bedauern'
p724
(dp725
S'VERB'
p726
F1.0
s(lp727
g13
atp728
a(g103
(dp729
g105
F1.0
s(lp730
tp731
a(S'dass'
p732
(dp733
S'CONJ'
p734
F1.0
s(lp735
g21
atp736
a(S'der'
p737
(dp738
S'PRON'
p739
F0.012649
sS'DET'
p740
F0.986818
s(lp741
g28
atp742
a(S'rat'
p743
(dp744
S'ADJ'
p745
F0.340836
sS'NOUN'
p746
F0.521795
s(lp747
g34
atp748
a(S'trotz'
p749
(dp750
S'VERB'
p751
F4.7e-05
sS'ADP'
p752
F0.999953
s(lp753
g112
atp754
a(S'der'
p755
(dp756
S'PRON'
p757
F6.7e-05
sS'DET'
p758
F0.999928
s(lp759
g119
atp760
a(S'umfangreichen'
p761
(dp762
S'ADJ'
p763
F1.0
s(lp764
g131
atp765
a(S'arbeit'
p766
(dp767
S'ADJ'
p768
F0.001634
sS'NOUN'
p769
F0.995691
s(lp770
g125
atp771
a(S'der'
p772
(dp773
S'PRON'
p774
F8.7e-05
sS'DET'
p775
F0.9999
s(lp776
g154
atp777
a(S'portugiesischen'
p778
(dp779
S'ADJ'
p780
F1.0
s(lp781
g167
atp782
a(S'ratspr\xc3\xa4sidentschaft'
p783
(dp784
S'ADJ'
p785
F0.000163
sS'NOUN'
p786
F0.999754
s(lp787
g160
atp788
a(g103
(dp789
g105
F1.0
s(lp790
g103
atp791
a(S'trotz'
p792
(dp793
S'VERB'
p794
F0.004905
sS'ADP'
p795
F0.995095
s(lp796
tp797
a(S'der'
p798
(dp799
S'PRON'
p800
F1.6e-05
sS'DET'
p801
F0.999976
s(lp802
g177
atp803
a(S'unterst\xc3\xbctzung'
p804
(dp805
S'ADJ'
p806
F0.000133
sS'NOUN'
p807
F0.999757
s(lp808
g183
atp809
a(S'durch'
p810
(dp811
S'PRT'
p812
F0.000221
sS'ADP'
p813
F0.999711
s(lp814
g189
atp815
a(S'22'
p816
(dp817
S'NUM'
p818
F1.0
s(lp819
g196
atp820
a(S'mitgliedstaaten'
p821
(dp822
S'ADJ'
p823
F0.039813
sS'NOUN'
p824
F0.934185
s(lp825
g209
atp826
a(S'und'
p827
(dp828
S'CONJ'
p829
F1.0
s(lp830
g215
atp831
a(S'trotz'
p832
(dp833
S'VERB'
p834
F0.006765
sS'ADP'
p835
F0.993235
s(lp836
g112
atp837
a(S'der'
p838
(dp839
S'PRON'
p840
F0.002272
sS'DET'
p841
F0.995497
s(lp842
g223
atp843
a(S'von'
p844
(dp845
S'NOUN'
p846
F0.002885
sS'ADP'
p847
F0.997115
s(lp848
g455
atp849
a(S'der'
p850
(dp851
S'PRON'
p852
F0.000107
sS'DET'
p853
F0.99987
s(lp854
g243
atp855
a(S'kommission'
p856
(dp857
S'NOUN'
p858
F0.310037
sS'ADJ'
p859
F0.65799
s(lp860
g249
atp861
a(S'bewiesenen'
p862
(dp863
S'ADJ'
p864
F1.0
s(lp865
g235
atp866
a(S'flexibilit\xc3\xa4t'
p867
(dp868
S'ADJ'
p869
F0.012068
sS'NOUN'
p870
F0.985938
s(lp871
g229
atp872
a(S'nicht'
p873
(dp874
S'PRT'
p875
F1.0
s(lp876
g54
atp877
a(S'in'
p878
(dp879
S'ADP'
p880
F1.0
s(lp881
tp882
a(S'der'
p883
(dp884
S'PRON'
p885
F1.5e-05
sS'DET'
p886
F0.999979
s(lp887
tp888
a(S'lage'
p889
(dp890
S'ADJ'
p891
F0.000241
sS'NOUN'
p892
F0.999547
s(lp893
g60
atp894
a(S'war'
p895
(dp896
S'VERB'
p897
F1.0
s(lp898
g47
atp899
a(g103
(dp900
g105
F1.0
s(lp901
g103
atp902
a(S'im'
p903
(dp904
S'ADP'
p905
F1.0
s(lp906
g348
atp907
a(S'dezember'
p908
(dp909
S'ADJ'
p910
F0.301719
sS'NOUN'
p911
F0.625748
s(lp912
g101
atp913
a(S'zu'
p914
(dp915
S'PRT'
p916
F0.001598
sS'ADP'
p917
F0.997625
s(lp918
tp919
a(S'einer'
p920
(dp921
S'PRON'
p922
F0.002954
sS'DET'
p923
F0.99687
s(lp924
g74
atp925
a(S'politischen'
p926
(dp927
S'ADJ'
p928
F1.0
s(lp929
g88
atp930
a(S'einigung'
p931
(dp932
S'ADJ'
p933
F1.9e-05
sS'NOUN'
p934
F0.999978
s(lp935
g80
atp936
a(S'zu'
p937
(dp938
S'PRT'
p939
F0.999973
s(lp940
g308
atp941
a(S'gelangen'
p942
(dp943
S'VERB'
p944
F1.0
s(lp945
g66
atp946
a(g105
(dp947
g105
F1.0
s(lp948
g105
atp949
asS'it'
p950
(lp951
(S'deploriamo'
p952
(dp953
S'VERB'
p954
F1.0
s(lp955
g13
atp956
a(S'che'
p957
(dp958
S'PRON'
p959
F0.984203
sS'CONJ'
p960
F0.01514
sS'ADJ'
p961
F0.000657
s(lp962
g21
atp963
a(S'il'
p964
(dp965
S'DET'
p966
F1.0
s(lp967
g28
atp968
a(S'consiglio'
p969
(dp970
S'VERB'
p971
F0.002192
sS'NOUN'
p972
F0.997808
s(lp973
g34
atp974
a(S'non'
p975
(dp976
S'ADV'
p977
F1.0
s(lp978
g54
atp979
a(S'sia'
p980
(dp981
S'CONJ'
p982
F0.18954
sS'VERB'
p983
F0.810461
s(lp984
tp985
a(S'stato'
p986
(dp987
S'VERB'
p988
F0.994995
sS'NOUN'
p989
F0.005005
s(lp990
g47
atp991
a(S'in'
p992
(dp993
S'ADP'
p994
F1.0
s(lp995
tp996
a(S'grado'
p997
(dp998
S'NOUN'
p999
F1.0
s(lp1000
g60
atp1001
a(S'di'
p1002
(dp1003
S'CONJ'
p1004
F6e-06
sS'ADP'
p1005
F0.999994
s(lp1006
g308
atp1007
a(S'raggiungere'
p1008
(dp1009
S'VERB'
p1010
F1.0
s(lp1011
g66
atp1012
a(S'un'
p1013
(dp1014
S'PRON'
p1015
F0.001882
sS'DEF'
p1016
F0.998118
s(lp1017
g74
atp1018
a(S'accordo'
p1019
(dp1020
S'VERB'
p1021
F4e-06
sS'NOUN'
p1022
F0.999996
s(lp1023
g80
atp1024
a(S'politico'
p1025
(dp1026
S'NOUN'
p1027
F0.002486
sS'ADJ'
p1028
F0.997514
s(lp1029
g88
atp1030
a(S'in'
p1031
(dp1032
S'ADP'
p1033
F1.0
s(lp1034
g95
atp1035
a(S'dicembre'
p1036
(dp1037
S'NOUN'
p1038
F1.0
s(lp1039
g101
atp1040
a(g103
(dp1041
g105
F1.0
s(lp1042
g103
atp1043
a(S'nonostante'
p1044
(dp1045
S'CONJ'
p1046
F0.175109
sS'ADP'
p1047
F0.824891
s(lp1048
g112
atp1049
a(S"l'"
p1050
(dp1051
S'NOUN'
p1052
F0.008627
sS'VERB'
p1053
F0.969775
sS'ADJ'
p1054
F0.021599
s(lp1055
g119
atp1056
a(S'enorme'
p1057
(dp1058
S'ADJ'
p1059
F1.0
s(lp1060
g131
atp1061
a(S'lavoro'
p1062
(dp1063
S'VERB'
p1064
F0.010588
sS'NOUN'
p1065
F0.989412
s(lp1066
g125
atp1067
a(S'svolto'
p1068
(dp1069
S'VERB'
p1070
F0.908479
sS'ADJ'
p1071
F0.091522
s(lp1072
g139
atp1073
a(S'dalla'
p1074
(dp1075
S'NOUN'
p1076
F1e-05
sS'ADP'
p1077
F0.99999
s(lp1078
g146
atp1079
a(S'presidenza'
p1080
(dp1081
S'NOUN'
p1082
F1.0
s(lp1083
g160
atp1084
a(S'portoghese'
p1085
(dp1086
S'NOUN'
p1087
F0.00658
sS'ADJ'
p1088
F0.99342
s(lp1089
g167
atp1090
a(g103
(dp1091
g105
F1.0
s(lp1092
g103
atp1093
a(S'il'
p1094
(dp1095
S'DET'
p1096
F1.0
s(lp1097
g177
atp1098
a(S'sostegno'
p1099
(dp1100
S'NOUN'
p1101
F1.0
s(lp1102
g183
atp1103
a(S'di'
p1104
(dp1105
S'CONJ'
p1106
F3e-06
sS'ADP'
p1107
F0.999997
s(lp1108
g189
atp1109
a(S'22'
p1110
(dp1111
S'NUM'
p1112
F0.989915
sg105
F0.010085
s(lp1113
g196
atp1114
a(S'stati'
p1115
(dp1116
S'VERB'
p1117
F0.185539
sS'NOUN'
p1118
F0.814461
s(lp1119
g202
atp1120
a(S'membri'
p1121
(dp1122
S'NOUN'
p1123
F1.0
s(lp1124
g209
atp1125
a(S'e'
p1126
(dp1127
S'CONJ'
p1128
F1.0
s(lp1129
g215
atp1130
a(S'la'
p1131
(dp1132
S'PRON'
p1133
F0.000411
sS'DET'
p1134
F0.999589
s(lp1135
g223
atp1136
a(S'flessibilit\xc3\xa0'
p1137
(dp1138
S'NOUN'
p1139
F1.0
s(lp1140
g229
atp1141
a(S'mostrata'
p1142
(dp1143
S'VERB'
p1144
F1.0
s(lp1145
g235
atp1146
a(S'dalla'
p1147
(dp1148
S'NOUN'
p1149
F5e-06
sS'ADP'
p1150
F0.999995
s(lp1151
g455
atp1152
a(S'commissione'
p1153
(dp1154
S'NOUN'
p1155
F1.0
s(lp1156
g249
atp1157
a(g105
(dp1158
g105
F1.0
s(lp1159
g105
atp1160
asS'sk'
p1161
(lp1162
(S'je'
p1163
(dp1164
g193
F8.6e-05
sS'VERB'
p1165
F0.999861
sS'PRON'
p1166
F5.3e-05
s(lp1167
g13
atp1168
a(S'n\xc3\xa1m'
p1169
(dp1170
S'PRON'
p1171
F0.990135
sg193
F0.009865
s(lp1172
tp1173
a(S'\xc4\xbe\xc3\xbato'
p1174
(dp1175
S'ADV'
p1176
F1.0
s(lp1177
g13
atp1178
a(g103
(dp1179
g105
F1.0
s(lp1180
tp1181
a(S'\xc5\xbee'
p1182
(dp1183
g193
F0.00035999999999999997
sS'CONJ'
p1184
F0.99964
s(lp1185
g21
atp1186
a(S'rada'
p1187
(dp1188
S'ADJ'
p1189
F0.195993
sS'NOUN'
p1190
F0.804007
s(lp1191
g34
atp1192
a(S'nebola'
p1193
(dp1194
S'VERB'
p1195
F1.0
s(lp1196
g47
atp1197
a(S'schopn\xc3\xa1'
p1198
(dp1199
S'ADJ'
p1200
F1.0
s(lp1201
g60
atp1202
a(S'dospie\xc5\xa5'
p1203
(dp1204
S'VERB'
p1205
F1.0
s(lp1206
tp1207
a(S'k'
p1208
(dp1209
g193
F5.8e-05
sS'NOUN'
p1210
F7e-06
sS'ADP'
p1211
F0.999935
s(lp1212
g66
atp1213
a(S'politickej'
p1214
(dp1215
S'ADJ'
p1216
F1.0
s(lp1217
g88
atp1218
a(S'dohode'
p1219
(dp1220
S'NOUN'
p1221
F1.0
s(lp1222
g80
atp1223
a(S'v'
p1224
(dp1225
g193
F0.000506
sS'ADP'
p1226
F0.999495
s(lp1227
g95
atp1228
a(S'decembri'
p1229
(dp1230
S'NOUN'
p1231
F1.0
s(lp1232
g101
atp1233
a(S'napriek'
p1234
(dp1235
S'ADV'
p1236
F0.000113
sS'CONJ'
p1237
F0.000101
sS'ADP'
p1238
F0.999785
s(lp1239
tp1240
a(S'nesmiernemu'
p1241
(dp1242
S'ADJ'
p1243
F1.0
s(lp1244
g112
atp1245
a(S'objemu'
p1246
(dp1247
S'NOUN'
p1248
F1.0
s(lp1249
g131
atp1250
a(S'pr\xc3\xa1ce'
p1251
(dp1252
S'NOUN'
p1253
F1.0
s(lp1254
g125
atp1255
a(g103
(dp1256
g105
F1.0
s(lp1257
tp1258
a(S'ktor\xc3\xbd'
p1259
(dp1260
S'PRON'
p1261
F1.0
s(lp1262
g146
atp1263
a(S'odviedlo'
p1264
(dp1265
S'VERB'
p1266
F1.0000010000000001
s(lp1267
g139
atp1268
a(S'portugalsk\xc3\xa9'
p1269
(dp1270
S'ADJ'
p1271
F1.0
s(lp1272
g167
atp1273
a(S'predsedn\xc3\xadctvo'
p1274
(dp1275
S'NOUN'
p1276
F1.0
s(lp1277
g160
atp1278
a(g103
(dp1279
g105
F1.0
s(lp1280
g103
atp1281
a(S'podpore'
p1282
(dp1283
S'NOUN'
p1284
F1.0
s(lp1285
g183
atp1286
a(S'22'
p1287
(dp1288
S'NUM'
p1289
F1.0
s(lp1290
g196
atp1291
a(S'\xc4\x8dlensk\xc3\xbdch'
p1292
(dp1293
S'ADJ'
p1294
F1.0
s(lp1295
g209
atp1296
a(S'\xc5\xa1t\xc3\xa1tov'
p1297
(dp1298
S'NOUN'
p1299
F1.0
s(lp1300
g202
atp1301
a(g74
(dp1302
g193
F0.0007580000000000001
sS'CONJ'
p1303
F0.998528
sS'NOUN'
p1304
F5.5e-05
sS'ADP'
p1305
F0.000628
sS'PRT'
p1306
F3.2e-05
s(lp1307
g215
atp1308
a(S'flexibilite'
p1309
(dp1310
S'NOUN'
p1311
F1.0
s(lp1312
g229
atp1313
a(g103
(dp1314
g105
F1.0
s(lp1315
tp1316
a(S'ktor\xc3\xba'
p1317
(dp1318
S'PRON'
p1319
F1.0
s(lp1320
g455
atp1321
a(S'preuk\xc3\xa1zala'
p1322
(dp1323
S'VERB'
p1324
F1.0
s(lp1325
g235
atp1326
a(S'komisia'
p1327
(dp1328
S'NOUN'
p1329
F1.0
s(lp1330
g249
atp1331
a(g105
(dp1332
g105
F1.0
s(lp1333
g105
atp1334
asS'pl'
p1335
(lp1336
(S'ubolewamy'
p1337
(dp1338
S'ADV'
p1339
F0.002082
sS'ADJ'
p1340
F0.0009280000000000001
sS'VERB'
p1341
F0.9813339999999999
sS'NOUN'
p1342
F0.015654999999999995
s(lp1343
g13
atp1344
a(S'nad'
p1345
(dp1346
S'ADP'
p1347
F1.0
s(lp1348
tp1349
a(S'tym'
p1350
(dp1351
S'ADV'
p1352
F9.6e-05
sS'ADJ'
p1353
F0.14936199999999997
sS'CONJ'
p1354
F1e-05
sS'NOUN'
p1355
F0.8505309999999999
sS'PRT'
p1356
F2e-06
s(lp1357
g13
atp1358
a(g103
(dp1359
g193
F0.0
sg105
F1.0
s(lp1360
tp1361
a(S'\xc5\xbce'
p1362
(dp1363
S'PRT'
p1364
F9.9e-05
sS'CONJ'
p1365
F0.9999009999999999
s(lp1366
g21
atp1367
a(S'rada'
p1368
(dp1369
S'ADJ'
p1370
F0.012851
sS'NOUN'
p1371
F0.987149
s(lp1372
g34
atp1373
a(S'nie'
p1374
(dp1375
S'ADV'
p1376
F2e-05
sS'PRT'
p1377
F0.99033
sS'CONJ'
p1378
F0.009638
sS'NOUN'
p1379
F4e-06
sS'PRON'
p1380
F9e-06
s(lp1381
g54
atp1382
a(S'by\xc5\x82a'
p1383
(dp1384
S'VERB'
p1385
F0.999439
sS'ADJ'
p1386
F0.000561
s(lp1387
g47
atp1388
a(S'w'
p1389
(dp1390
S'ADJ'
p1391
F0.0
sg193
F0.0
sS'NOUN'
p1392
F2e-06
sS'ADP'
p1393
F0.9999979999999999
s(lp1394
g348
atp1395
a(S'stanie'
p1396
(dp1397
S'VERB'
p1398
F0.000102
sS'NOUN'
p1399
F0.999898
s(lp1400
g60
atp1401
a(S'osi\xc4\x85gn\xc4\x85\xc4\x87'
p1402
(dp1403
S'VERB'
p1404
F1.0
s(lp1405
g66
atp1406
a(g1389
(dp1407
S'ADJ'
p1408
F0.0
sg193
F0.0
sS'NOUN'
p1409
F0.0
sS'ADP'
p1410
F1.000001
s(lp1411
g95
atp1412
a(S'grudniu'
p1413
(dp1414
S'NOUN'
p1415
F1.0
s(lp1416
g101
atp1417
a(S'porozumienia'
p1418
(dp1419
S'VERB'
p1420
F0.013899
sS'NOUN'
p1421
F0.9861000000000001
s(lp1422
g80
atp1423
a(S'politycznego'
p1424
(dp1425
S'ADJ'
p1426
F0.9999999999999999
s(lp1427
g88
atp1428
a(S'pomimo'
p1429
(dp1430
S'ADP'
p1431
F1.0
s(lp1432
g112
atp1433
a(S'ogromnej'
p1434
(dp1435
S'ADJ'
p1436
F0.9999990000000001
s(lp1437
g131
atp1438
a(S'pracy'
p1439
(dp1440
S'NOUN'
p1441
F1.0
s(lp1442
g125
atp1443
a(S'wykonanej'
p1444
(dp1445
S'VERB'
p1446
F1.0
s(lp1447
g139
atp1448
a(S'przez'
p1449
(dp1450
S'ADP'
p1451
F1.0
s(lp1452
g146
atp1453
a(S'prezydencj\xc4\x99'
p1454
(dp1455
S'NOUN'
p1456
F1.0
s(lp1457
g160
atp1458
a(S'portugalsk\xc4\x85'
p1459
(dp1460
S'NOUN'
p1461
F0.22416199999999997
sS'VERB'
p1462
F0.003023
sS'ADJ'
p1463
F0.772814
s(lp1464
g167
atp1465
a(g103
(dp1466
g193
F1e-06
sg105
F0.999999
s(lp1467
g103
atp1468
a(S'poparcia'
p1469
(dp1470
S'VERB'
p1471
F0.285967
sS'NOUN'
p1472
F0.714033
s(lp1473
g183
atp1474
a(S'22'
p1475
(dp1476
S'NOUN'
p1477
F0.055781
sS'NUM'
p1478
F0.5767270000000001
sS'ADJ'
p1479
F0.367493
s(lp1480
g196
atp1481
a(S'pa\xc5\x84stw'
p1482
(dp1483
S'NOUN'
p1484
F1.0
s(lp1485
g202
atp1486
a(S'cz\xc5\x82onkowskich'
p1487
(dp1488
S'ADJ'
p1489
F1.0
s(lp1490
g209
atp1491
a(S'oraz'
p1492
(dp1493
S'CONJ'
p1494
F1.0
s(lp1495
g215
atp1496
a(S'elastyczno\xc5\x9bci'
p1497
(dp1498
S'NOUN'
p1499
F1.0
s(lp1500
g229
atp1501
a(S'wykazanej'
p1502
(dp1503
S'NOUN'
p1504
F0.004979000000000001
sS'VERB'
p1505
F0.9591509999999999
sS'ADJ'
p1506
F0.035875000000000004
s(lp1507
g235
atp1508
a(S'przez'
p1509
(dp1510
S'ADP'
p1511
F1.0
s(lp1512
g455
atp1513
a(S'komisj\xc4\x99'
p1514
(dp1515
S'NOUN'
p1516
F1.0
s(lp1517
g249
atp1518
a(g105
(dp1519
g105
F1.0
s(lp1520
g105
atp1521
asS'sl'
p1522
(lp1523
(S'ob\xc5\xbealujemo'
p1524
(dp1525
S'ADV'
p1526
F0.029042
sS'NOUN'
p1527
F0.025777
sS'VERB'
p1528
F0.863202
sS'ADJ'
p1529
F0.081983
s(lp1530
g13
atp1531
a(g103
(dp1532
g105
F1.0
s(lp1533
tp1534
a(S'da'
p1535
(dp1536
S'PRT'
p1537
F2.2e-05
sS'CONJ'
p1538
F0.999681
sS'VERB'
p1539
F0.000296
sg193
F1e-06
s(lp1540
g21
atp1541
a(S'svet'
p1542
(dp1543
S'NOUN'
p1544
F1.0
s(lp1545
g34
atp1546
a(g1224
(dp1547
S'ADP'
p1548
F1.0
s(lp1549
g95
atp1550
a(S'decembru'
p1551
(dp1552
S'NOUN'
p1553
F1.0
s(lp1554
g101
atp1555
a(S'ni'
p1556
(dp1557
S'VERB'
p1558
F1.0
s(lp1559
g54
atp1560
a(S'dosegel'
p1561
(dp1562
S'VERB'
p1563
F1.0
s(lp1564
g66
atp1565
a(S'politi\xc4\x8dnega'
p1566
(dp1567
S'ADJ'
p1568
F1.0
s(lp1569
g88
atp1570
a(S'sporazuma'
p1571
(dp1572
S'NOUN'
p1573
F1.0
s(lp1574
g80
atp1575
a(S'kljub'
p1576
(dp1577
S'ADP'
p1578
F1.0
s(lp1579
g112
atp1580
a(S'obse\xc5\xbenemu'
p1581
(dp1582
S'ADV'
p1583
F0.0
sS'NOUN'
p1584
F0.00011700000000000001
sS'PRON'
p1585
F9.3e-05
sS'NUM'
p1586
F9.5e-05
sS'ADJ'
p1587
F0.999692
sS'VERB'
p1588
F0.0
s(lp1589
g131
atp1590
a(S'delu'
p1591
(dp1592
S'NOUN'
p1593
F1.0
s(lp1594
g125
atp1595
a(g103
(dp1596
g105
F1.0
s(lp1597
g103
atp1598
a(S'ki'
p1599
(dp1600
S'CONJ'
p1601
F1.0
s(lp1602
tp1603
a(S'ga'
p1604
(dp1605
S'PRON'
p1606
F1.000001
s(lp1607
g146
atp1608
a(S'je'
p1609
(dp1610
S'PRON'
p1611
F3.9e-05
sS'VERB'
p1612
F0.999961
sg193
F1e-06
s(lp1613
g154
atp1614
a(S'opravilo'
p1615
(dp1616
S'NOUN'
p1617
F1.0
s(lp1618
g139
atp1619
a(S'portugalsko'
p1620
(dp1621
S'ADV'
p1622
F0.001442
sS'NOUN'
p1623
F0.002361
sS'VERB'
p1624
F0.000508
sS'ADJ'
p1625
F0.995687
s(lp1626
g167
atp1627
a(S'predsedstvo'
p1628
(dp1629
S'NOUN'
p1630
F1.0
s(lp1631
g160
atp1632
a(g103
(dp1633
g105
F1.0
s(lp1634
g103
atp1635
a(S'podpori'
p1636
(dp1637
S'NOUN'
p1638
F1.0
s(lp1639
g183
atp1640
a(S'22'
p1641
(dp1642
S'NUM'
p1643
F1.0
s(lp1644
g196
atp1645
a(S'dr\xc5\xbeav'
p1646
(dp1647
S'NOUN'
p1648
F1.0
s(lp1649
g209
atp1650
a(S'\xc4\x8dlanic'
p1651
(dp1652
S'NOUN'
p1653
F1.0
s(lp1654
g202
atp1655
a(S'in'
p1656
(dp1657
S'ADV'
p1658
F6.1e-05
sg193
F1.1e-05
sS'CONJ'
p1659
F0.999926
sS'NOUN'
p1660
F2e-06
s(lp1661
g215
atp1662
a(S'pro\xc5\xbenosti'
p1663
(dp1664
S'NOUN'
p1665
F1.0
s(lp1666
g229
atp1667
a(g103
(dp1668
g105
F1.0
s(lp1669
tp1670
a(S'ki'
p1671
(dp1672
S'CONJ'
p1673
F1.0
s(lp1674
tp1675
a(S'jo'
p1676
(dp1677
S'PRON'
p1678
F0.999988
sg193
F1.2e-05
s(lp1679
g455
atp1680
a(S'je'
p1681
(dp1682
S'PRON'
p1683
F7e-06
sS'VERB'
p1684
F0.9999929999999999
sg193
F0.0
s(lp1685
g243
atp1686
a(S'zagotovila'
p1687
(dp1688
S'VERB'
p1689
F0.999729
sS'NOUN'
p1690
F0.000271
s(lp1691
g235
atp1692
a(S'komisija'
p1693
(dp1694
S'NOUN'
p1695
F1.0
s(lp1696
g249
atp1697
a(g105
(dp1698
g105
F1.0
s(lp1699
g105
atp1700
asS'es'
p1701
(lp1702
(S'lamentamos'
p1703
(dp1704
S'VERB'
p1705
F1.0
s(lp1706
g13
atp1707
a(S'que'
p1708
(dp1709
g193
F0.0
sS'CONJ'
p1710
F1.0
s(lp1711
g21
atp1712
a(S'el'
p1713
(dp1714
S'PRON'
p1715
F4e-05
sS'DET'
p1716
F0.99996
s(lp1717
g28
atp1718
a(S'consejo'
p1719
(dp1720
S'NOUN'
p1721
F1.0
s(lp1722
g34
atp1723
a(S'no'
p1724
(dp1725
S'ADV'
p1726
F1.0
sg193
F0.0
s(lp1727
g54
atp1728
a(S'fuera'
p1729
(dp1730
S'ADV'
p1731
F0.003461
sS'VERB'
p1732
F0.996534
sS'ADP'
p1733
F5e-06
s(lp1734
g47
atp1735
a(S'capaz'
p1736
(dp1737
S'ADJ'
p1738
F1.0
s(lp1739
g60
atp1740
a(S'de'
p1741
(dp1742
g193
F0.0
sS'CONJ'
p1743
F0.63617
sS'ADP'
p1744
F0.36383
s(lp1745
g308
atp1746
a(S'llegar'
p1747
(dp1748
S'VERB'
p1749
F1.0
s(lp1750
tp1751
a(g74
(dp1752
g193
F0.00026000000000000003
sS'CONJ'
p1753
F5e-06
sS'ADP'
p1754
F0.999735
s(lp1755
g66
atp1756
a(S'un'
p1757
(dp1758
g193
F3e-06
sS'DET'
p1759
F0.999997
s(lp1760
g74
atp1761
a(S'acuerdo'
p1762
(dp1763
S'VERB'
p1764
F5.1e-05
sS'NOUN'
p1765
F0.999949
s(lp1766
g80
atp1767
a(S'pol\xc3\xadtico'
p1768
(dp1769
S'NOUN'
p1770
F0.07401
sS'ADJ'
p1771
F0.92599
s(lp1772
g88
atp1773
a(S'en'
p1774
(dp1775
g193
F1.2e-05
sS'CONJ'
p1776
F0.000553
sS'ADP'
p1777
F0.999436
s(lp1778
g95
atp1779
a(S'diciembre'
p1780
(dp1781
S'NOUN'
p1782
F1.0
s(lp1783
g101
atp1784
a(g103
(dp1785
g105
F1.0
s(lp1786
g103
atp1787
a(g74
(dp1788
g193
F0.003408
sS'CONJ'
p1789
F0.077415
sS'ADP'
p1790
F0.919177
s(lp1791
g348
atp1792
a(S'pesar'
p1793
(dp1794
S'ADV'
p1795
F0.679932
sS'VERB'
p1796
F0.320068
s(lp1797
g112
atp1798
a(S'del'
p1799
(dp1800
S'ADP'
p1801
F1.0
s(lp1802
g360
atp1803
a(S'ingente'
p1804
(dp1805
S'ADJ'
p1806
F1.0
s(lp1807
g131
atp1808
a(S'trabajo'
p1809
(dp1810
S'NOUN'
p1811
F1.0
s(lp1812
g125
atp1813
a(S'realizado'
p1814
(dp1815
S'VERB'
p1816
F1.0
s(lp1817
g139
atp1818
a(S'por'
p1819
(dp1820
S'ADP'
p1821
F1.0
s(lp1822
g146
atp1823
a(S'la'
p1824
(dp1825
S'NOUN'
p1826
F0.0
sS'PRON'
p1827
F0.0
sS'DET'
p1828
F0.999999
sg193
F0.0
s(lp1829
g154
atp1830
a(S'presidencia'
p1831
(dp1832
S'NOUN'
p1833
F1.0
s(lp1834
g160
atp1835
a(S'portuguesa'
p1836
(dp1837
S'NOUN'
p1838
F0.009092
sS'ADJ'
p1839
F0.990908
s(lp1840
g167
atp1841
a(g103
(dp1842
g105
F1.0
s(lp1843
g103
atp1844
a(S'del'
p1845
(dp1846
S'ADP'
p1847
F1.0
s(lp1848
g177
atp1849
a(S'apoyo'
p1850
(dp1851
S'NOUN'
p1852
F1.0
s(lp1853
g183
atp1854
a(S'ofrecido'
p1855
(dp1856
S'VERB'
p1857
F1.0
s(lp1858
tp1859
a(S'por'
p1860
(dp1861
S'ADP'
p1862
F1.0
s(lp1863
g189
atp1864
a(S'veintid\xc3\xb3s'
p1865
(dp1866
S'NUM'
p1867
F1.0
s(lp1868
g196
atp1869
a(S'estados'
p1870
(dp1871
S'NOUN'
p1872
F1.0
s(lp1873
g202
atp1874
a(S'miembros'
p1875
(dp1876
S'NOUN'
p1877
F1.0
s(lp1878
g209
atp1879
a(S'y'
p1880
(dp1881
g193
F0.001029
sS'CONJ'
p1882
F0.998971
s(lp1883
g215
atp1884
a(S'de'
p1885
(dp1886
g193
F0.0
sS'CONJ'
p1887
F2e-06
sS'ADP'
p1888
F0.999998
s(lp1889
tp1890
a(S'la'
p1891
(dp1892
S'NOUN'
p1893
F0.0
sS'PRON'
p1894
F0.0
sS'DET'
p1895
F0.999999
sg193
F0.0
s(lp1896
g223
atp1897
a(S'flexibilidad'
p1898
(dp1899
S'NOUN'
p1900
F1.0
s(lp1901
g229
atp1902
a(S'mostrada'
p1903
(dp1904
S'VERB'
p1905
F1.0
s(lp1906
g235
atp1907
a(S'por'
p1908
(dp1909
S'ADP'
p1910
F1.0
s(lp1911
g455
atp1912
a(S'la'
p1913
(dp1914
S'NOUN'
p1915
F0.0
sS'PRON'
p1916
F0.0
sS'DET'
p1917
F0.999999
sg193
F0.0
s(lp1918
g243
atp1919
a(S'comisi\xc3\xb3n'
p1920
(dp1921
S'NOUN'
p1922
F1.0
s(lp1923
g249
atp1924
a(g105
(dp1925
g105
F1.0
s(lp1926
g105
atp1927
as.