(dp0
S'fr'
p1
(lp2
(S'parall\xc3\xa8lement'
p3
(dp4
S'ADV'
p5
F1.0
s(lp6
S'same'
p7
atp8
a(S','
p9
(dp10
S'.'
p11
F1.0
s(lp12
g9
atp13
a(S'je'
p14
(dp15
S'PRON'
p16
F1.0
s(lp17
S'i'
p18
atp19
a(S'pense'
p20
(dp21
S'VERB'
p22
F1.0
s(lp23
tp24
a(S'que'
p25
(dp26
S'ADV'
p27
F0.025348
sS'PRON'
p28
F0.118513
sS'CONJ'
p29
F0.856139
s(lp30
S'think'
p31
atp32
a(S'nous'
p33
(dp34
S'PRON'
p35
F1.0
s(lp36
S'we'
p37
atp38
a(S'admettons'
p39
(dp40
S'VERB'
p41
F1.0
s(lp42
S'accept'
p43
atp44
a(S'tous'
p45
(dp46
S'PRON'
p47
F0.999898
sS'NOUN'
p48
F0.000102
s(lp49
S'all'
p50
atp51
a(S"qu'"
p52
(dp53
S'ADJ'
p54
F0.212447
sS'VERB'
p55
F0.005000000000000001
sS'NOUN'
p56
F0.782553
s(lp57
S'that'
p58
atp59
a(S'une'
p60
(dp61
S'NOUN'
p62
F1.5e-05
sS'NUM'
p63
F0.021976
sS'DET'
p64
F0.978009
s(lp65
S'a'
p66
atp67
a(S'proc\xc3\xa9dure'
p68
(dp69
S'NOUN'
p70
F1.0
s(lp71
S'procedure'
p72
atp73
a(S'l\xc3\xa9gislative'
p74
(dp75
S'NOUN'
p76
F0.023775
sS'ADJ'
p77
F0.976225
s(lp78
S'legislative'
p79
atp80
a(S'tr\xc3\xa8s'
p81
(dp82
S'ADV'
p83
F1.0
s(lp84
tp85
a(S'longue'
p86
(dp87
S'NOUN'
p88
F0.001204
sS'ADJ'
p89
F0.998796
s(lp90
S'lengthy'
p91
atp92
a(g9
(dp93
g11
F1.0
s(lp94
tp95
a(S'impliquant'
p96
(dp97
S'VERB'
p98
F1.0
s(lp99
S'involving'
p100
atp101
a(S'un'
p102
(dp103
S'NOUN'
p104
F0.001201
sS'NUM'
p105
F0.009171
sS'DET'
p106
F0.989628
s(lp107
g66
atp108
a(S'long'
p109
(dp110
S'ADV'
p111
F0.005659
sS'NOUN'
p112
F0.18737
sS'ADJ'
p113
F0.806971
s(lp114
S'long'
p115
atp116
a(S'processus'
p117
(dp118
S'NOUN'
p119
F1.0
s(lp120
S'process'
p121
atp122
a(S'it\xc3\xa9ratif'
p123
(dp124
S'ADJ'
p125
F1.0
s(lp126
tp127
a(S'de'
p128
(dp129
S'ADP'
p130
F1.0
s(lp131
tp132
a(S'discussion'
p133
(dp134
S'NOUN'
p135
F1.0
s(lp136
S'iterative'
p137
atp138
a(S'entre'
p139
(dp140
S'VERB'
p141
F0.000526
sS'ADP'
p142
F0.999474
s(lp143
S'between'
p144
atp145
a(S'les'
p146
(dp147
S'PRON'
p148
F0.000161
sS'DET'
p149
F0.999836
sS'ADP'
p150
F3e-06
s(lp151
S'the'
p152
atp153
a(S'diff\xc3\xa9rentes'
p154
(dp155
S'ADJ'
p156
F1.0
s(lp157
S'various'
p158
atp159
a(S'institutions'
p160
(dp161
S'NOUN'
p162
F1.0
s(lp163
S'institutions'
p164
atp165
a(g9
(dp166
g11
F1.0
s(lp167
tp168
a(S"n'"
p169
(dp170
S'ADJ'
p171
F0.13429
sS'VERB'
p172
F0.638201
sS'NOUN'
p173
F0.227509
s(lp174
tp175
a(S'est'
p176
(dp177
S'VERB'
p178
F0.999314
sS'NOUN'
p179
F0.000686
s(lp180
S'is'
p181
atp182
a(S'pas'
p183
(dp184
S'ADV'
p185
F0.999162
sS'NOUN'
p186
F0.000838
s(lp187
S'not'
p188
atp189
a(S'adapt\xc3\xa9e'
p190
(dp191
S'VERB'
p192
F1.0
s(lp193
S'adapted'
p194
atp195
a(S'\xc3\xa0'
p196
(dp197
S'ADP'
p198
F1.0
s(lp199
S'to'
p200
atp201
a(S"l'"
p202
(dp203
S'ADJ'
p204
F0.160704
sS'VERB'
p205
F0.06480800000000002
sS'NOUN'
p206
F0.774488
s(lp207
S'the'
p208
atp209
a(S'instrument'
p210
(dp211
S'NOUN'
p212
F1.0
s(lp213
S'instrument'
p214
atp215
a(S"d'"
p216
(dp217
S'NOUN'
p218
F0.032441
sS'VERB'
p219
F0.694014
sS'ADJ'
p220
F0.273544
s(lp221
tp222
a(S'assistance'
p223
(dp224
S'NOUN'
p225
F1.0
s(lp226
S'assistance'
p227
atp228
a(S'macrofinanci\xc3\xa8re'
p229
(dp230
S'NOUN'
p231
F0.148366
sS'ADJ'
p232
F0.851634
s(lp233
S'macro-financial'
p234
atp235
a(S'et'
p236
(dp237
S'CONJ'
p238
F1.0
s(lp239
S'or'
p240
atp241
a(S'certainement'
p242
(dp243
S'ADV'
p244
F1.0
s(lp245
tp246
a(S'pas'
p247
(dp248
S'ADV'
p249
F0.998187
sS'NOUN'
p250
F0.001813
s(lp251
S'indeed'
p252
atp253
a(S'\xc3\xa0'
p254
(dp255
S'ADP'
p256
F1.0
s(lp257
S'to'
p258
atp259
a(S'des'
p260
(dp261
S'DET'
p262
F0.00067
sS'ADP'
p263
F0.99933
s(lp264
tp265
a(S'situations'
p266
(dp267
S'NOUN'
p268
F1.0
s(lp269
S'situations'
p270
atp271
a(S'de'
p272
(dp273
S'ADP'
p274
F1.0
s(lp275
S'of'
p276
atp277
a(S'crise'
p278
(dp279
S'NOUN'
p280
F1.0
s(lp281
S'crisis'
p282
atp283
a(g11
(dp284
g11
F1.0
s(lp285
g11
atp286
asS'en'
p287
(lp288
(S'at'
p289
(dp290
S'NOUN'
p291
F1e-06
sS'ADP'
p292
F0.999999
s(lp293
g289
atp294
a(S'the'
p295
(dp296
S'NOUN'
p297
F1e-06
sS'DET'
p298
F0.999999
s(lp299
g295
atp300
a(g7
(dp301
S'ADV'
p302
F2e-06
sS'NOUN'
p303
F0.000104
sS'ADJ'
p304
F0.999894
s(lp305
g7
atp306
a(S'time'
p307
(dp308
S'VERB'
p309
F1e-06
sS'NOUN'
p310
F0.999999
s(lp311
g307
atp312
a(g9
(dp313
g11
F1.0
s(lp314
g9
atp315
a(g18
(dp316
S'X'
p317
F0.035894
sS'NOUN'
p318
F0.964106
s(lp319
g18
atp320
a(g31
(dp321
S'VERB'
p322
F0.999055
sS'NOUN'
p323
F0.000945
s(lp324
g31
atp325
a(g37
(dp326
S'PRON'
p327
F1.0
s(lp328
g37
atp329
a(g50
(dp330
S'ADV'
p331
F0.968183
sS'DET'
p332
F0.031818
s(lp333
g50
atp334
a(g43
(dp335
S'VERB'
p336
F1.0
s(lp337
g43
atp338
a(g58
(dp339
S'ADV'
p340
F0.000495
sS'DET'
p341
F0.008847
sS'ADP'
p342
F0.990658
s(lp343
g58
atp344
a(g66
(dp345
S'NOUN'
p346
F0.0
sS'DET'
p347
F1.0
s(lp348
g66
atp349
a(g91
(dp350
S'ADJ'
p351
F1.0
s(lp352
g91
atp353
a(g79
(dp354
S'NOUN'
p355
F0.005147
sS'ADJ'
p356
F0.994853
s(lp357
g79
atp358
a(g72
(dp359
S'NOUN'
p360
F1.0
s(lp361
g72
atp362
a(g100
(dp363
S'VERB'
p364
F1.0
s(lp365
g100
atp366
a(g66
(dp367
S'NOUN'
p368
F0.0
sS'DET'
p369
F1.0
s(lp370
g66
atp371
a(g115
(dp372
S'ADV'
p373
F0.083113
sS'NOUN'
p374
F0.000328
sS'VERB'
p375
F0.00013199999999999998
sS'ADJ'
p376
F0.916426
s(lp377
g115
atp378
a(g137
(dp379
S'ADJ'
p380
F1.0
s(lp381
g137
atp382
a(g121
(dp383
S'VERB'
p384
F0.000143
sS'NOUN'
p385
F0.999857
s(lp386
g121
atp387
a(g144
(dp388
S'ADV'
p389
F0.000132
sS'ADP'
p390
F0.999868
s(lp391
g144
atp392
a(g152
(dp393
S'NOUN'
p394
F1e-06
sS'DET'
p395
F0.999999
s(lp396
g152
atp397
a(g158
(dp398
S'ADJ'
p399
F1.0
s(lp400
g158
atp401
a(g164
(dp402
S'NOUN'
p403
F1.0
s(lp404
g164
atp405
a(g181
(dp406
S'VERB'
p407
F1.0
s(lp408
g181
atp409
a(g188
(dp410
S'ADV'
p411
F1.0
s(lp412
g188
atp413
a(g194
(dp414
S'VERB'
p415
F1.0
s(lp416
g194
atp417
a(g200
(dp418
S'ADV'
p419
F1e-06
sS'PRT'
p420
F0.999993
sS'ADP'
p421
F6e-06
s(lp422
g200
atp423
a(g208
(dp424
S'NOUN'
p425
F1e-06
sS'DET'
p426
F0.999999
s(lp427
g208
atp428
a(g234
(dp429
S'NOUN'
p430
F0.081839
sS'ADJ'
p431
F0.91816
s(lp432
g234
atp433
a(g227
(dp434
S'NOUN'
p435
F1.0
s(lp436
g227
atp437
a(g214
(dp438
S'NOUN'
p439
F1.0
s(lp440
g214
atp441
a(g240
(dp442
S'CONJ'
p443
F0.999999
sS'ADJ'
p444
F1e-06
s(lp445
g240
atp446
a(g9
(dp447
g11
F1.0
s(lp448
g9
atp449
a(g252
(dp450
S'ADV'
p451
F1.0
s(lp452
g252
atp453
a(g9
(dp454
g11
F1.0
s(lp455
g9
atp456
a(g258
(dp457
S'ADV'
p458
F6e-06
sS'PRT'
p459
F0.999954
sS'ADP'
p460
F3.9e-05
s(lp461
g258
atp462
a(g270
(dp463
S'NOUN'
p464
F1.0
s(lp465
g270
atp466
a(g276
(dp467
S'ADP'
p468
F1.0
s(lp469
g276
atp470
a(g282
(dp471
S'NOUN'
p472
F1.0
s(lp473
g282
atp474
a(g11
(dp475
g11
F1.0
s(lp476
g11
atp477
asS'nl'
p478
(lp479
(S'tegelijkertijd'
p480
(dp481
S'ADV'
p482
F1.0
s(lp483
g7
atp484
a(S'denk'
p485
(dp486
S'VERB'
p487
F1.0
s(lp488
tp489
a(S'ik'
p490
(dp491
S'PRON'
p492
F0.999993
sS'NOUN'
p493
F7e-06
s(lp494
g18
atp495
a(S'dat'
p496
(dp497
S'PRON'
p498
F0.08021900000000001
sS'CONJ'
p499
F0.919781
s(lp500
g31
atp501
a(S'we'
p502
(dp503
S'PRON'
p504
F1.0
s(lp505
g37
atp506
a(S'allemaal'
p507
(dp508
S'PRON'
p509
F1.0
s(lp510
g50
atp511
a(S'erkennen'
p512
(dp513
S'VERB'
p514
F0.988241
sS'NOUN'
p515
F0.011759
s(lp516
g43
atp517
a(S'dat'
p518
(dp519
S'PRON'
p520
F0.010626
sS'CONJ'
p521
F0.989374
s(lp522
g58
atp523
a(S'een'
p524
(dp525
S'ADJ'
p526
F1e-06
sS'PRON'
p527
F0.000609
sS'NUM'
p528
F1e-06
sS'DET'
p529
F0.999389
s(lp530
g66
atp531
a(S'langdurige'
p532
(dp533
S'NOUN'
p534
F0.000397
sS'ADJ'
p535
F0.999603
s(lp536
g91
atp537
a(S'wetgevingsprocedure'
p538
(dp539
S'ADJ'
p540
F0.003726
sS'NOUN'
p541
F0.996274
s(lp542
g79
atp543
a(g9
(dp544
g11
F1.0
s(lp545
g72
atp546
a(S'waarbij'
p547
(dp548
S'ADV'
p549
F1.0
s(lp550
g100
atp551
a(S'een'
p552
(dp553
S'ADJ'
p554
F1e-06
sS'PRON'
p555
F9e-06
sS'NUM'
p556
F0.0
sS'DET'
p557
F0.999991
s(lp558
g66
atp559
a(S'voorstel'
p560
(dp561
S'VERB'
p562
F7.5e-05
sS'NOUN'
p563
F0.999925
s(lp564
g137
atp565
a(S'meerdere'
p566
(dp567
S'PRON'
p568
F0.979252
sS'NOUN'
p569
F0.020749
s(lp570
g137
atp571
a(S'keren'
p572
(dp573
S'VERB'
p574
F0.027973
sS'NOUN'
p575
F0.972027
s(lp576
g137
atp577
a(S'heen'
p578
(dp579
S'ADV'
p580
F1.0
s(lp581
g137
atp582
a(S'en'
p583
(dp584
S'CONJ'
p585
F1.0
s(lp586
tp587
a(S'weer'
p588
(dp589
S'ADV'
p590
F0.999795
sS'VERB'
p591
F4e-06
sS'NOUN'
p592
F0.000201
s(lp593
g137
atp594
a(S'kan'
p595
(dp596
S'VERB'
p597
F0.999953
sS'NOUN'
p598
F4.7e-05
s(lp599
g137
atp600
a(S'gaan'
p601
(dp602
S'VERB'
p603
F0.999831
sS'NOUN'
p604
F0.00017
s(lp605
tp606
a(S'tussen'
p607
(dp608
S'ADP'
p609
F1.0
s(lp610
g144
atp611
a(S'de'
p612
(dp613
S'DET'
p614
F1.0
s(lp615
g152
atp616
a(S'verschillende'
p617
(dp618
S'PRON'
p619
F3e-06
sS'VERB'
p620
F8e-05
sS'ADJ'
p621
F0.999917
sS'NOUN'
p622
F0.0
s(lp623
g158
atp624
a(S'instellingen'
p625
(dp626
S'NOUN'
p627
F1.0
s(lp628
g164
atp629
a(g9
(dp630
g11
F1.0
s(lp631
g181
atp632
a(S'niet'
p633
(dp634
S'ADV'
p635
F0.999979
sS'PRON'
p636
F9e-06
sS'VERB'
p637
F1.2e-05
sg317
F0.0
s(lp638
g188
atp639
a(S'goed'
p640
(dp641
S'ADV'
p642
F0.025438
sS'NOUN'
p643
F0.424071
sS'ADJ'
p644
F0.550491
s(lp645
tp646
a(S'past'
p647
(dp648
S'VERB'
p649
F1.0
s(lp650
g194
atp651
a(S'bij'
p652
(dp653
S'ADV'
p654
F0.028847
sS'NOUN'
p655
F0.0
sS'ADJ'
p656
F0.0
sS'ADP'
p657
F0.971153
s(lp658
g200
atp659
a(S'het'
p660
(dp661
S'PRON'
p662
F0.000952
sS'DET'
p663
F0.999048
s(lp664
tp665
a(S'instrument'
p666
(dp667
S'NOUN'
p668
F1.0
s(lp669
g214
atp670
a(S'van'
p671
(dp672
S'ADP'
p673
F1.0
s(lp674
g276
atp675
a(S'de'
p676
(dp677
S'DET'
p678
F1.0
s(lp679
g208
atp680
a(S'macrofinanci\xc3\xable'
p681
(dp682
S'NOUN'
p683
F0.107857
sS'ADJ'
p684
F0.892143
s(lp685
g234
atp686
a(S'bijstand'
p687
(dp688
S'NOUN'
p689
F1.0
s(lp690
g227
atp691
a(g9
(dp692
g11
F1.0
s(lp693
g9
atp694
a(S'of'
p695
(dp696
S'CONJ'
p697
F1.0
s(lp698
g240
atp699
a(S'bij'
p700
(dp701
S'ADV'
p702
F0.019449
sS'NOUN'
p703
F0.0
sS'ADJ'
p704
F0.000143
sS'ADP'
p705
F0.980408
s(lp706
g258
atp707
a(S'crisissituaties'
p708
(dp709
S'NOUN'
p710
F1.0
s(lp711
g270
atp712
a(S'in'
p713
(dp714
S'ADV'
p715
F0.003445
sS'VERB'
p716
F2e-06
sS'ADP'
p717
F0.996553
s(lp718
g289
atp719
a(S'het'
p720
(dp721
S'PRON'
p722
F0.002502
sS'DET'
p723
F0.997498
s(lp724
g295
atp725
a(S'algemeen'
p726
(dp727
S'ADJ'
p728
F0.320438
sS'NOUN'
p729
F0.679562
s(lp730
g137
atp731
a(g11
(dp732
g11
F1.0
s(lp733
g11
atp734
asS'de'
p735
(lp736
(S'gleichzeitig'
p737
(dp738
S'ADJ'
p739
F1.0
s(lp740
g7
atp741
a(S'akzeptieren'
p742
(dp743
S'VERB'
p744
F1.0
s(lp745
g43
atp746
a(S'wir'
p747
(dp748
S'PRON'
p749
F1.0
s(lp750
g37
atp751
a(S'alle'
p752
(dp753
S'PRON'
p754
F1.0
s(lp755
g50
atp756
a(S'wie'
p757
(dp758
S'CONJ'
p759
F0.9999930000000001
s(lp760
tp761
a(S'ich'
p762
(dp763
S'PRON'
p764
F1.0
s(lp765
g18
atp766
a(S'denke'
p767
(dp768
S'VERB'
p769
F1.0
s(lp770
g31
atp771
a(g9
(dp772
g11
F1.0
s(lp773
g9
atp774
a(S'dass'
p775
(dp776
S'CONJ'
p777
F1.0
s(lp778
g58
atp779
a(S'ein'
p780
(dp781
S'NUM'
p782
F4.7e-05
sS'DET'
p783
F0.999944
s(lp784
g66
atp785
a(S'langwieriges'
p786
(dp787
S'ADJ'
p788
F1.0
s(lp789
g91
atp790
a(S'gesetzgebungsverfahren'
p791
(dp792
S'ADJ'
p793
F0.048133
sS'NOUN'
p794
F0.945928
s(lp795
g79
atp796
a(S'unter'
p797
(dp798
S'PRT'
p799
F1.5e-05
sS'ADP'
p800
F0.999985
s(lp801
tp802
a(S'einschluss'
p803
(dp804
S'ADJ'
p805
F0.010588
sS'NOUN'
p806
F0.984106
s(lp807
g100
atp808
a(S'eines'
p809
(dp810
S'PRON'
p811
F0.002771
sS'DET'
p812
F0.996725
s(lp813
g66
atp814
a(S'langen'
p815
(dp816
S'VERB'
p817
F7.5e-05
sS'ADJ'
p818
F0.999925
s(lp819
g115
atp820
a(S'iterativen'
p821
(dp822
S'NOUN'
p823
F0.000991
sS'ADJ'
p824
F0.999009
s(lp825
g137
atp826
a(S'verfahrens'
p827
(dp828
S'ADJ'
p829
F0.002417
sS'NOUN'
p830
F0.992611
s(lp831
g121
atp832
a(S'innerhalb'
p833
(dp834
S'ADJ'
p835
F0.001772
sS'ADP'
p836
F0.998228
s(lp837
g144
atp838
a(S'der'
p839
(dp840
S'PRON'
p841
F6.7e-05
sS'DET'
p842
F0.999928
s(lp843
g152
atp844
a(S'verschiedenen'
p845
(dp846
S'ADJ'
p847
F1.0
s(lp848
g158
atp849
a(S'institutionen'
p850
(dp851
S'ADJ'
p852
F0.010547
sS'NOUN'
p853
F0.984774
s(lp854
g164
atp855
a(S'nicht'
p856
(dp857
S'PRT'
p858
F1.0
s(lp859
g188
atp860
a(S'wirklich'
p861
(dp862
S'ADJ'
p863
F1.0
s(lp864
g252
atp865
a(S'an'
p866
(dp867
S'PRT'
p868
F0.00659
sS'ADP'
p869
F0.992804
s(lp870
tp871
a(S'das'
p872
(dp873
S'PRON'
p874
F0.001535
sS'DET'
p875
F0.99841
s(lp876
tp877
a(S'instrument'
p878
(dp879
S'ADJ'
p880
F9.3e-05
sS'NOUN'
p881
F0.999761
s(lp882
g214
atp883
a(S'der'
p884
(dp885
S'PRON'
p886
F2e-05
sS'DET'
p887
F0.999972
s(lp888
g208
atp889
a(S'makrofinanzhilfe'
p890
(dp891
S'ADJ'
p892
F0.002341
sS'NOUN'
p893
F0.997529
s(lp894
g234
atp895
a(S'oder'
p896
(dp897
S'CONJ'
p898
F1.0
s(lp899
g240
atp900
a(S'die'
p901
(dp902
S'PRON'
p903
F0.003059
sS'DET'
p904
F0.994048
s(lp905
g258
atp906
a(S'krisensituation'
p907
(dp908
S'ADJ'
p909
F0.000404
sS'NOUN'
p910
F0.999476
s(lp911
g282
atp912
a(S'angepasst'
p913
(dp914
S'VERB'
p915
F0.98261
sS'ADJ'
p916
F0.01739
s(lp917
g194
atp918
a(S'ist'
p919
(dp920
S'VERB'
p921
F1.0
s(lp922
tp923
a(g11
(dp924
g11
F1.0
s(lp925
g11
atp926
asS'it'
p927
(lp928
(S'al'
p929
(dp930
S'ADP'
p931
F1.0
s(lp932
g289
atp933
a(S'contempo'
p934
(dp935
S'NOUN'
p936
F1.0
s(lp937
g7
atp938
a(S'mi'
p939
(dp940
S'PRON'
p941
F1.0
s(lp942
g18
atp943
a(S'pare'
p944
(dp945
S'VERB'
p946
F0.990917
sS'NOUN'
p947
F0.009083
s(lp948
g31
atp949
a(S'siamo'
p950
(dp951
S'VERB'
p952
F1.0
s(lp953
g37
atp954
a(S'tutti'
p955
(dp956
S'PRON'
p957
F0.176849
sS'ADJ'
p958
F0.823151
s(lp959
g50
atp960
a(S"d'"
p961
(dp962
g317
F1.0
s(lp963
g43
atp964
a(S'accordo'
p965
(dp966
S'VERB'
p967
F0.00403
sS'NOUN'
p968
F0.99597
s(lp969
g43
atp970
a(S'sul'
p971
(dp972
S'ADP'
p973
F1.0
s(lp974
tp975
a(S'fatto'
p976
(dp977
S'VERB'
p978
F0.0122
sS'NOUN'
p979
F0.9878
s(lp980
g43
atp981
a(S'che'
p982
(dp983
S'PRON'
p984
F0.671018
sS'CONJ'
p985
F0.32515
sS'ADJ'
p986
F0.003832
s(lp987
g58
atp988
a(S'una'
p989
(dp990
S'PRON'
p991
F0.000219
sS'DEF'
p992
F0.999781
s(lp993
g66
atp994
a(S'lunga'
p995
(dp996
S'ADJ'
p997
F1.0
s(lp998
g91
atp999
a(S'procedura'
p1000
(dp1001
S'NOUN'
p1002
F1.0
s(lp1003
g72
atp1004
a(S'legislativa'
p1005
(dp1006
S'ADJ'
p1007
F1.0
s(lp1008
g79
atp1009
a(S'con'
p1010
(dp1011
S'ADP'
p1012
F1.0
s(lp1013
g100
atp1014
a(S'un'
p1015
(dp1016
S'PRON'
p1017
F0.00172
sS'DEF'
p1018
F0.99828
s(lp1019
g66
atp1020
a(S'lungo'
p1021
(dp1022
S'ADJ'
p1023
F0.9885
sS'ADP'
p1024
F0.0115
s(lp1025
g115
atp1026
a(S'processo'
p1027
(dp1028
S'VERB'
p1029
F0.001429
sS'NOUN'
p1030
F0.998571
s(lp1031
g121
atp1032
a(S'interattivo'
p1033
(dp1034
S'ADJ'
p1035
F1.0
s(lp1036
g137
atp1037
a(S'tra'
p1038
(dp1039
S'CONJ'
p1040
F0.000481
sS'ADP'
p1041
F0.999519
s(lp1042
g144
atp1043
a(S'varie'
p1044
(dp1045
S'ADJ'
p1046
F1.0
s(lp1047
g158
atp1048
a(S'istituzioni'
p1049
(dp1050
S'NOUN'
p1051
F1.0
s(lp1052
g164
atp1053
a(S'non'
p1054
(dp1055
S'ADV'
p1056
F1.0
s(lp1057
g188
atp1058
a(S'sia'
p1059
(dp1060
S'CONJ'
p1061
F0.466627
sS'VERB'
p1062
F0.533373
s(lp1063
g181
atp1064
a(S'idonea'
p1065
(dp1066
S'ADJ'
p1067
F1.0
s(lp1068
g194
atp1069
a(S'per'
p1070
(dp1071
S'CONJ'
p1072
F0.024172
sS'ADP'
p1073
F0.975828
s(lp1074
g200
atp1075
a(S'questo'
p1076
(dp1077
S'PRON'
p1078
F1.0
s(lp1079
g208
atp1080
a(S'strumento'
p1081
(dp1082
S'VERB'
p1083
F0.041105
sS'NOUN'
p1084
F0.958895
s(lp1085
g214
atp1086
a(S'di'
p1087
(dp1088
S'CONJ'
p1089
F4e-06
sS'ADP'
p1090
F0.999996
s(lp1091
tp1092
a(S'assistenza'
p1093
(dp1094
S'NOUN'
p1095
F1.0
s(lp1096
g227
atp1097
a(S'macrofinanziaria'
p1098
(dp1099
S'NOUN'
p1100
F1.0
s(lp1101
tp1102
a(S'e'
p1103
(dp1104
S'CONJ'
p1105
F1.0
s(lp1106
g240
atp1107
a(g9
(dp1108
g11
F1.0
s(lp1109
g9
atp1110
a(S'in'
p1111
(dp1112
S'ADP'
p1113
F1.0
s(lp1114
g252
atp1115
a(S'genere'
p1116
(dp1117
S'NOUN'
p1118
F1.0
s(lp1119
g234
atp1120
a(g9
(dp1121
g11
F1.0
s(lp1122
g9
atp1123
a(S'per'
p1124
(dp1125
S'CONJ'
p1126
F0.104984
sS'ADP'
p1127
F0.895016
s(lp1128
g258
atp1129
a(S'le'
p1130
(dp1131
S'PRON'
p1132
F8e-05
sS'DET'
p1133
F0.99992
s(lp1134
tp1135
a(S'situazioni'
p1136
(dp1137
S'NOUN'
p1138
F1.0
s(lp1139
g270
atp1140
a(S'di'
p1141
(dp1142
S'CONJ'
p1143
F4e-06
sS'ADP'
p1144
F0.999996
s(lp1145
g276
atp1146
a(S'crisi'
p1147
(dp1148
S'NOUN'
p1149
F1.0
s(lp1150
g282
atp1151
a(g11
(dp1152
g11
F1.0
s(lp1153
g11
atp1154
asS'sk'
p1155
(lp1156
(S'z\xc3\xa1rove\xc5\x88'
p1157
(dp1158
S'ADV'
p1159
F1.0
s(lp1160
g7
atp1161
a(S'si'
p1162
(dp1163
S'PRT'
p1164
F0.921966
sS'VERB'
p1165
F0.078033
sg317
F0.0
s(lp1166
g31
atp1167
a(S'v\xc5\xa1ak'
p1168
(dp1169
g317
F0.927775
sS'CONJ'
p1170
F0.072225
s(lp1171
g307
atp1172
a(S'mysl\xc3\xadm'
p1173
(dp1174
S'VERB'
p1175
F1.0
s(lp1176
tp1177
a(g9
(dp1178
g11
F1.0
s(lp1179
g9
atp1180
a(S'\xc5\xbee'
p1181
(dp1182
g317
F0.00033
sS'CONJ'
p1183
F0.99967
s(lp1184
g31
atp1185
a(S'v\xc5\xa1etci'
p1186
(dp1187
S'PRON'
p1188
F1.0
s(lp1189
g50
atp1190
a(S'budeme'
p1191
(dp1192
S'VERB'
p1193
F1.0
s(lp1194
g37
atp1195
a(S's\xc3\xbahlasi\xc5\xa5'
p1196
(dp1197
S'VERB'
p1198
F1.0
s(lp1199
g43
atp1200
a(S's'
p1201
(dp1202
S'PRT'
p1203
F0.000114
sS'CONJ'
p1204
F6.1e-05
sS'NOUN'
p1205
F4e-06
sS'ADP'
p1206
F0.99974
sg317
F8.199999999999999e-05
s(lp1207
tp1208
a(S't\xc3\xbdm'
p1209
(dp1210
S'PRON'
p1211
F0.9999899999999999
sS'CONJ'
p1212
F1e-05
s(lp1213
g43
atp1214
a(g9
(dp1215
g11
F1.0
s(lp1216
tp1217
a(S'\xc5\xbee'
p1218
(dp1219
g317
F0.000496
sS'CONJ'
p1220
F0.999504
s(lp1221
g58
atp1222
a(S'zd\xc4\xbahav\xc3\xbd'
p1223
(dp1224
S'ADJ'
p1225
F1.0
s(lp1226
g91
atp1227
a(S'legislat\xc3\xadvny'
p1228
(dp1229
S'ADJ'
p1230
F1.0
s(lp1231
g79
atp1232
a(S'postup'
p1233
(dp1234
S'NOUN'
p1235
F1.0
s(lp1236
g72
atp1237
a(g1201
(dp1238
g317
F0.001088
sS'CONJ'
p1239
F8.3e-05
sS'NOUN'
p1240
F1.8e-05
sS'ADP'
p1241
F0.998785
sS'PRT'
p1242
F2.6e-05
s(lp1243
g100
atp1244
a(S'dlh\xc3\xbdm'
p1245
(dp1246
S'ADJ'
p1247
F1.0
s(lp1248
g137
atp1249
a(S're\xc5\xa5azen\xc3\xadm'
p1250
(dp1251
S'ADJ'
p1252
F0.0028849999999999995
sS'VERB'
p1253
F5e-06
sS'NOUN'
p1254
F0.99711
s(lp1255
g137
atp1256
a(S'krokov'
p1257
(dp1258
S'NOUN'
p1259
F1.0
s(lp1260
g137
atp1261
a(S'r\xc3\xb4znych'
p1262
(dp1263
S'ADJ'
p1264
F1.0
s(lp1265
g158
atp1266
a(S'in\xc5\xa1tit\xc3\xbaci\xc3\xad'
p1267
(dp1268
S'NOUN'
p1269
F1.0
s(lp1270
g164
atp1271
a(S'nie'
p1272
(dp1273
g317
F1.0
s(lp1274
g188
atp1275
a(S'je'
p1276
(dp1277
S'PRON'
p1278
F9e-06
sS'VERB'
p1279
F0.999983
sg317
F9e-06
s(lp1280
g181
atp1281
a(S'prisp\xc3\xb4soben\xc3\xbd'
p1282
(dp1283
S'VERB'
p1284
F1.0
s(lp1285
g194
atp1286
a(S'n\xc3\xa1stroju'
p1287
(dp1288
S'NOUN'
p1289
F1.0
s(lp1290
g214
atp1291
a(S'makrofinan\xc4\x8dnej'
p1292
(dp1293
S'NOUN'
p1294
F5.7e-05
sS'ADJ'
p1295
F0.999943
s(lp1296
g234
atp1297
a(S'pomoci'
p1298
(dp1299
S'NOUN'
p1300
F1.0
s(lp1301
g227
atp1302
a(g9
(dp1303
g11
F1.0
s(lp1304
g9
atp1305
a(S'nehovoriac'
p1306
(dp1307
S'VERB'
p1308
F1.0
s(lp1309
tp1310
a(S'o'
p1311
(dp1312
g317
F7.1e-05
sS'CONJ'
p1313
F8e-06
sS'NOUN'
p1314
F1.9999999999999998e-05
sS'ADP'
p1315
F0.9999
s(lp1316
g258
atp1317
a(S'stavoch'
p1318
(dp1319
S'NOUN'
p1320
F1.0
s(lp1321
g137
atp1322
a(S'kr\xc3\xadzy'
p1323
(dp1324
S'NOUN'
p1325
F1.0
s(lp1326
g282
atp1327
a(g11
(dp1328
g11
F1.0
s(lp1329
g11
atp1330
asS'pl'
p1331
(lp1332
(S'jednocze\xc5\x9bnie'
p1333
(dp1334
S'ADV'
p1335
F1.0
s(lp1336
g7
atp1337
a(S'wszyscy'
p1338
(dp1339
S'ADJ'
p1340
F0.04975
sS'NOUN'
p1341
F0.95025
s(lp1342
g50
atp1343
a(S'zgodzimy'
p1344
(dp1345
S'VERB'
p1346
F1.0
s(lp1347
g137
atp1348
a(S'si\xc4\x99'
p1349
(dp1350
S'PRT'
p1351
F1.0
s(lp1352
g43
atp1353
a(g9
(dp1354
g317
F0.0
sg11
F1.0
s(lp1355
tp1356
a(S'\xc5\xbce'
p1357
(dp1358
S'PRT'
p1359
F0.000684
sS'CONJ'
p1360
F0.9993150000000001
s(lp1361
g58
atp1362
a(S'przewlek\xc5\x82a'
p1363
(dp1364
S'NOUN'
p1365
F0.024408
sS'VERB'
p1366
F0.793867
sS'ADJ'
p1367
F0.181727
s(lp1368
g137
atp1369
a(S'procedura'
p1370
(dp1371
S'NOUN'
p1372
F1.0
s(lp1373
g137
atp1374
a(S'legislacyjna'
p1375
(dp1376
S'NOUN'
p1377
F0.035351
sS'VERB'
p1378
F0.000521
sS'ADJ'
p1379
F0.964128
s(lp1380
g137
atp1381
a(S'z'
p1382
(dp1383
S'PRT'
p1384
F0.000512
sS'VERB'
p1385
F0.0
sS'NOUN'
p1386
F1e-06
sS'ADP'
p1387
F0.9994870000000001
sg317
F1e-06
s(lp1388
g100
atp1389
a(S'd\xc5\x82ugotrwa\xc5\x82ym'
p1390
(dp1391
S'ADV'
p1392
F0.000319
sS'NOUN'
p1393
F0.49848499999999984
sS'VERB'
p1394
F0.07024699999999999
sS'ADJ'
p1395
F0.43095099999999986
s(lp1396
g137
atp1397
a(g9
(dp1398
g317
F0.0
sg11
F1.0
s(lp1399
tp1400
a(S'powtarzalnym'
p1401
(dp1402
S'ADV'
p1403
F0.000251
sS'NOUN'
p1404
F0.00020799999999999996
sS'VERB'
p1405
F0.002641
sS'ADJ'
p1406
F0.9968960000000001
s(lp1407
tp1408
a(S'procesem'
p1409
(dp1410
S'NOUN'
p1411
F1.0
s(lp1412
g137
atp1413
a(S'mi\xc4\x99dzy'
p1414
(dp1415
S'ADP'
p1416
F1.0
s(lp1417
g144
atp1418
a(S'r\xc3\xb3\xc5\xbcnymi'
p1419
(dp1420
S'ADJ'
p1421
F1.0
s(lp1422
g158
atp1423
a(S'instytucjami'
p1424
(dp1425
S'NOUN'
p1426
F1.0
s(lp1427
g164
atp1428
a(S'nie'
p1429
(dp1430
S'ADV'
p1431
F4.7e-05
sS'PRT'
p1432
F0.977453
sS'CONJ'
p1433
F0.022341
sS'NOUN'
p1434
F7e-06
sS'PRON'
p1435
F0.00015099999999999998
s(lp1436
g188
atp1437
a(S'jest'
p1438
(dp1439
S'VERB'
p1440
F1.0
s(lp1441
g181
atp1442
a(S'dostosowana'
p1443
(dp1444
S'ADV'
p1445
F0.001086
sS'ADJ'
p1446
F0.161198
sS'VERB'
p1447
F0.6310159999999999
sS'NOUN'
p1448
F0.20670100000000002
s(lp1449
g194
atp1450
a(S'do'
p1451
(dp1452
g317
F0.0
sS'NOUN'
p1453
F0.000163
sS'ADP'
p1454
F0.999837
s(lp1455
g200
atp1456
a(S'instrumentu'
p1457
(dp1458
S'NOUN'
p1459
F1.0
s(lp1460
g214
atp1461
a(S'pomocy'
p1462
(dp1463
S'NOUN'
p1464
F0.9999990000000001
s(lp1465
g227
atp1466
a(S'makrofinansowej'
p1467
(dp1468
S'NOUN'
p1469
F0.056470000000000006
sS'VERB'
p1470
F0.000747
sS'ADJ'
p1471
F0.9427829999999998
s(lp1472
g234
atp1473
a(g9
(dp1474
g317
F0.0
sg11
F1.0
s(lp1475
g9
atp1476
a(S'ani'
p1477
(dp1478
S'PRT'
p1479
F0.056306
sS'CONJ'
p1480
F0.943694
s(lp1481
g240
atp1482
a(S'w'
p1483
(dp1484
S'ADJ'
p1485
F0.0
sg317
F0.0
sS'NOUN'
p1486
F0.0
sS'ADP'
p1487
F0.9999999999999999
s(lp1488
tp1489
a(S'istocie'
p1490
(dp1491
S'NOUN'
p1492
F1.0
s(lp1493
g252
atp1494
a(S'do'
p1495
(dp1496
g317
F0.0
sS'NOUN'
p1497
F4.7e-05
sS'ADP'
p1498
F0.999953
s(lp1499
g258
atp1500
a(S'sytuacji'
p1501
(dp1502
S'NOUN'
p1503
F1.0000010000000001
s(lp1504
g270
atp1505
a(S'kryzysowych'
p1506
(dp1507
S'ADJ'
p1508
F1.0
s(lp1509
g282
atp1510
a(g11
(dp1511
g11
F1.0
s(lp1512
g11
atp1513
asS'sl'
p1514
(lp1515
(S'obenem'
p1516
(dp1517
S'ADV'
p1518
F1.0
s(lp1519
g7
atp1520
a(S'menim'
p1521
(dp1522
S'VERB'
p1523
F1.0
s(lp1524
tp1525
a(g9
(dp1526
g11
F1.0
s(lp1527
g9
atp1528
a(S'da'
p1529
(dp1530
S'PRT'
p1531
F5e-06
sS'CONJ'
p1532
F0.99997
sS'VERB'
p1533
F2.4e-05
sg317
F1e-06
s(lp1534
g31
atp1535
a(S'se'
p1536
(dp1537
S'PRON'
p1538
F0.999997
sg317
F3e-06
s(lp1539
g37
atp1540
a(S'vsi'
p1541
(dp1542
S'PRON'
p1543
F1.0
s(lp1544
g50
atp1545
a(S'strinjamo'
p1546
(dp1547
S'VERB'
p1548
F1.0
s(lp1549
g43
atp1550
a(g9
(dp1551
g11
F1.0
s(lp1552
tp1553
a(S'da'
p1554
(dp1555
S'PRT'
p1556
F6e-05
sS'CONJ'
p1557
F0.999718
sS'VERB'
p1558
F0.000221
sg317
F1e-06
s(lp1559
g58
atp1560
a(S'dolgotrajen'
p1561
(dp1562
S'ADJ'
p1563
F1.0
s(lp1564
g91
atp1565
a(S'zakonodajni'
p1566
(dp1567
S'ADV'
p1568
F3.6e-05
sS'NOUN'
p1569
F0.0031049999999999984
sS'VERB'
p1570
F0.002164
sS'ADJ'
p1571
F0.994696
s(lp1572
g79
atp1573
a(S'postopek'
p1574
(dp1575
S'NOUN'
p1576
F1.0
s(lp1577
g72
atp1578
a(g9
(dp1579
g11
F1.0
s(lp1580
g9
atp1581
a(S'ki'
p1582
(dp1583
S'CONJ'
p1584
F1.0
s(lp1585
tp1586
a(S'vklju\xc4\x8duje'
p1587
(dp1588
S'VERB'
p1589
F1.0
s(lp1590
g100
atp1591
a(S'dolg'
p1592
(dp1593
S'NOUN'
p1594
F0.227335
sS'ADJ'
p1595
F0.7726660000000001
s(lp1596
g115
atp1597
a(g9
(dp1598
g11
F1.0
s(lp1599
g9
atp1600
a(S'ponavljajo\xc4\x8d'
p1601
(dp1602
S'ADV'
p1603
F0.58888
sS'ADJ'
p1604
F0.05367500000000001
sS'CONJ'
p1605
F0.050802
sS'VERB'
p1606
F0.0038870000000000003
sS'NOUN'
p1607
F0.302759
s(lp1608
g137
atp1609
a(S'se'
p1610
(dp1611
S'PRON'
p1612
F0.999432
sg317
F0.000568
s(lp1613
g137
atp1614
a(S'proces'
p1615
(dp1616
S'NOUN'
p1617
F1.0
s(lp1618
g121
atp1619
a(S'med'
p1620
(dp1621
S'NOUN'
p1622
F1.2e-05
sS'ADP'
p1623
F0.999988
s(lp1624
g144
atp1625
a(S'razli\xc4\x8dnimi'
p1626
(dp1627
S'ADJ'
p1628
F1.0
s(lp1629
g158
atp1630
a(S'institucijami'
p1631
(dp1632
S'NOUN'
p1633
F1.0
s(lp1634
g164
atp1635
a(g9
(dp1636
g11
F1.0
s(lp1637
tp1638
a(S'ni'
p1639
(dp1640
S'VERB'
p1641
F1.0
s(lp1642
g188
atp1643
a(S'prilagojen'
p1644
(dp1645
S'ADJ'
p1646
F1.0
s(lp1647
g194
atp1648
a(S'instrumentu'
p1649
(dp1650
S'ADV'
p1651
F0.00182
sS'ADJ'
p1652
F0.020127000000000003
sS'VERB'
p1653
F0.000326
sS'NOUN'
p1654
F0.9777250000000001
s(lp1655
g214
atp1656
a(S'makrofinan\xc4\x8dne'
p1657
(dp1658
S'ADV'
p1659
F6e-06
sS'NOUN'
p1660
F0.0008349999999999997
sS'VERB'
p1661
F0.00015200000000000004
sS'ADJ'
p1662
F0.9990079999999999
s(lp1663
g234
atp1664
a(S'pomo\xc4\x8di'
p1665
(dp1666
S'NOUN'
p1667
F1.0
s(lp1668
g227
atp1669
a(S'ali'
p1670
(dp1671
S'ADV'
p1672
F0.013688
sS'CONJ'
p1673
F0.986312
s(lp1674
g240
atp1675
a(S'pravzaprav'
p1676
(dp1677
S'PRT'
p1678
F1.0
s(lp1679
tp1680
a(S'kriznim'
p1681
(dp1682
S'ADJ'
p1683
F1.0
s(lp1684
g137
atp1685
a(S'razmeram'
p1686
(dp1687
S'NOUN'
p1688
F1.0
s(lp1689
g270
atp1690
a(g11
(dp1691
g11
F1.0
s(lp1692
g11
atp1693
asS'es'
p1694
(lp1695
(S'al'
p1696
(dp1697
S'ADV'
p1698
F1.0
s(lp1699
g289
atp1700
a(S'mismo'
p1701
(dp1702
S'ADV'
p1703
F1.0
s(lp1704
g7
atp1705
a(S'tiempo'
p1706
(dp1707
S'ADV'
p1708
F1.0
s(lp1709
g307
atp1710
a(g9
(dp1711
g11
F1.0
s(lp1712
g9
atp1713
a(S'todos'
p1714
(dp1715
S'ADJ'
p1716
F1.0
s(lp1717
g50
atp1718
a(S'estaremos'
p1719
(dp1720
S'VERB'
p1721
F1.0
s(lp1722
g37
atp1723
a(S'de'
p1724
(dp1725
g317
F1e-06
sS'CONJ'
p1726
F0.0
sS'ADP'
p1727
F0.999999
s(lp1728
tp1729
a(S'acuerdo'
p1730
(dp1731
S'VERB'
p1732
F0.000219
sS'NOUN'
p1733
F0.999781
s(lp1734
g43
atp1735
a(S'en'
p1736
(dp1737
g317
F0.0
sS'CONJ'
p1738
F0.00012
sS'ADP'
p1739
F0.99988
s(lp1740
tp1741
a(S'que'
p1742
(dp1743
g317
F0.0
sS'CONJ'
p1744
F1.0
s(lp1745
g58
atp1746
a(S'un'
p1747
(dp1748
g317
F0.0
sS'DET'
p1749
F1.0
s(lp1750
g66
atp1751
a(S'procedimiento'
p1752
(dp1753
S'NOUN'
p1754
F1.0
s(lp1755
g72
atp1756
a(S'legislativo'
p1757
(dp1758
S'ADJ'
p1759
F1.0
s(lp1760
g79
atp1761
a(S'minucioso'
p1762
(dp1763
S'ADJ'
p1764
F1.0
s(lp1765
g137
atp1766
a(S'que'
p1767
(dp1768
g317
F1e-06
sS'CONJ'
p1769
F0.999999
s(lp1770
g100
atp1771
a(S'suponga'
p1772
(dp1773
S'VERB'
p1774
F1.0
s(lp1775
tp1776
a(S'un'
p1777
(dp1778
g317
F9e-06
sS'DET'
p1779
F0.999991
s(lp1780
g66
atp1781
a(S'largo'
p1782
(dp1783
S'NOUN'
p1784
F0.162543
sS'ADJ'
p1785
F0.837457
s(lp1786
g115
atp1787
a(S'y'
p1788
(dp1789
g317
F0.000911
sS'CONJ'
p1790
F0.999089
s(lp1791
tp1792
a(S'repetitivo'
p1793
(dp1794
S'ADJ'
p1795
F1.0
s(lp1796
g137
atp1797
a(S'proceso'
p1798
(dp1799
S'NOUN'
p1800
F1.0
s(lp1801
g121
atp1802
a(S'entre'
p1803
(dp1804
g317
F3e-06
sS'ADP'
p1805
F0.999997
s(lp1806
g144
atp1807
a(S'las'
p1808
(dp1809
S'PRON'
p1810
F0.0
sS'DET'
p1811
F1.0
s(lp1812
g152
atp1813
a(S'diferentes'
p1814
(dp1815
S'ADJ'
p1816
F1.0
s(lp1817
g158
atp1818
a(S'instituciones'
p1819
(dp1820
S'NOUN'
p1821
F1.0
s(lp1822
g164
atp1823
a(S'no'
p1824
(dp1825
S'ADV'
p1826
F0.999956
sg317
F4.4e-05
s(lp1827
g188
atp1828
a(S'se'
p1829
(dp1830
S'PRON'
p1831
F1.0
sS'VERB'
p1832
F0.0
s(lp1833
g181
atp1834
a(S'adapta'
p1835
(dp1836
S'VERB'
p1837
F1.0
s(lp1838
g194
atp1839
a(S'al'
p1840
(dp1841
S'CONJ'
p1842
F0.000159
sS'ADP'
p1843
F0.999841
s(lp1844
g200
atp1845
a(S'instrumento'
p1846
(dp1847
S'NOUN'
p1848
F1.0
s(lp1849
g214
atp1850
a(S'de'
p1851
(dp1852
g317
F2.9e-05
sS'CONJ'
p1853
F0.000449
sS'ADP'
p1854
F0.999522
s(lp1855
g208
atp1856
a(S'ayuda'
p1857
(dp1858
S'NOUN'
p1859
F1.0
s(lp1860
g227
atp1861
a(S'macrofinanciera'
p1862
(dp1863
S'NOUN'
p1864
F0.002383
sS'VERB'
p1865
F0.003343
sS'ADJ'
p1866
F0.994274
s(lp1867
g234
atp1868
a(g1311
(dp1869
g317
F0.003889
sS'CONJ'
p1870
F0.996111
s(lp1871
g240
atp1872
a(g9
(dp1873
g11
F1.0
s(lp1874
g9
atp1875
a(S'realmente'
p1876
(dp1877
S'ADV'
p1878
F1.0
s(lp1879
g252
atp1880
a(g9
(dp1881
g11
F1.0
s(lp1882
g9
atp1883
a(g66
(dp1884
g317
F0.0018599999999999999
sS'CONJ'
p1885
F1e-05
sS'ADP'
p1886
F0.998129
s(lp1887
g258
atp1888
a(S'las'
p1889
(dp1890
S'PRON'
p1891
F0.0
sS'DET'
p1892
F1.0
s(lp1893
tp1894
a(S'situaciones'
p1895
(dp1896
S'NOUN'
p1897
F1.0
s(lp1898
g270
atp1899
a(S'de'
p1900
(dp1901
g317
F2.9e-05
sS'CONJ'
p1902
F0.000449
sS'ADP'
p1903
F0.999522
s(lp1904
g276
atp1905
a(S'crisis'
p1906
(dp1907
S'NOUN'
p1908
F1.0
s(lp1909
g282
atp1910
a(g11
(dp1911
g11
F1.0
s(lp1912
g11
atp1913
as.