(dp0
S'fr'
p1
(lp2
(S'('
p3
(dp4
S'.'
p5
F1.0
s(lp6
tp7
a(S'en'
p8
(dp9
S'PRON'
p10
F0.551936
sS'ADP'
p11
F0.448064
s(lp12
S'in'
p13
atp14
a(S')'
p15
(dp16
g5
F1.0
s(lp17
S'president'
p18
atp19
a(S'monsieur'
p20
(dp21
S'NOUN'
p22
F1.0
s(lp23
S'mr'
p24
atp25
a(S'le'
p26
(dp27
S'PRON'
p28
F0.000321
sS'DET'
p29
F0.999679
s(lp30
tp31
a(S'pr\xc3\xa9sident'
p32
(dp33
S'VERB'
p34
F4.5e-05
sS'NOUN'
p35
F0.999955
s(lp36
g18
atp37
a(S','
p38
(dp39
g5
F1.0
s(lp40
g38
atp41
a(S'vendredi'
p42
(dp43
S'NOUN'
p44
F1.0
s(lp45
S'friday'
p46
atp47
a(g38
(dp48
g5
F1.0
s(lp49
S'will'
p50
atp51
a(S'il'
p52
(dp53
S'PRON'
p54
F1.0
s(lp55
g50
atp56
a(S'y'
p57
(dp58
S'PRON'
p59
F1.0
s(lp60
tp61
a(S'aura'
p62
(dp63
S'VERB'
p64
F0.999976
sS'NOUN'
p65
F2.4e-05
s(lp66
g50
atp67
a(S'un'
p68
(dp69
S'NOUN'
p70
F4.8e-05
sS'NUM'
p71
F0.004555
sS'DET'
p72
F0.995398
s(lp73
S'one'
p74
atp75
a(S'mois'
p76
(dp77
S'NOUN'
p78
F1.0
s(lp79
S'month'
p80
atp81
a(S'que'
p82
(dp83
S'ADV'
p84
F0.003381
sS'PRON'
p85
F0.075043
sS'CONJ'
p86
F0.921576
s(lp87
S'since'
p88
atp89
a(S'ce'
p90
(dp91
S'PRON'
p92
F1.0
s(lp93
S'the'
p94
atp95
a(S's\xc3\xa9isme'
p96
(dp97
S'NOUN'
p98
F1.0
s(lp99
S'earthquake'
p100
atp101
a(S'destructeur'
p102
(dp103
S'NOUN'
p104
F0.015266
sS'ADJ'
p105
F0.984734
s(lp106
S'devastating'
p107
atp108
a(S'a'
p109
(dp110
S'VERB'
p111
F1.0
s(lp112
tp113
a(S'frapp\xc3\xa9'
p114
(dp115
S'NOUN'
p116
F0.020012
sS'VERB'
p117
F0.825525
sS'ADJ'
p118
F0.154463
s(lp119
g100
atp120
a(S'ha\xc3\xafti'
p121
(dp122
S'ADJ'
p123
F0.116973
sS'VERB'
p124
F0.004438
sS'NOUN'
p125
F0.878589
s(lp126
S'haiti'
p127
atp128
a(g5
(dp129
g5
F1.0
s(lp130
g5
atp131
asS'en'
p132
(lp133
(g24
(dp134
S'ADJ'
p135
F0.013311
sS'NOUN'
p136
F0.986689
s(lp137
g24
atp138
a(g18
(dp139
S'NOUN'
p140
F1.0
s(lp141
g18
atp142
a(g38
(dp143
g5
F1.0
s(lp144
g38
atp145
a(g46
(dp146
S'ADV'
p147
F0.027581
sS'ADJ'
p148
F0.007056
sS'NOUN'
p149
F0.9653630000000001
s(lp150
g46
atp151
a(g50
(dp152
S'VERB'
p153
F0.999627
sS'NOUN'
p154
F0.000373
s(lp155
g50
atp156
a(S'mark'
p157
(dp158
S'VERB'
p159
F0.9995470000000001
sS'NOUN'
p160
F0.000453
s(lp161
g157
atp162
a(g74
(dp163
S'PRON'
p164
F5e-05
sS'NUM'
p165
F0.999921
sS'NOUN'
p166
F2.9e-05
s(lp167
g74
atp168
a(g80
(dp169
S'NOUN'
p170
F1.0
s(lp171
g80
atp172
a(g88
(dp173
S'ADV'
p174
F0.001184
sS'ADP'
p175
F0.998816
s(lp176
g88
atp177
a(g94
(dp178
S'NOUN'
p179
F1e-06
sS'DET'
p180
F0.999999
s(lp181
g94
atp182
a(g107
(dp183
S'VERB'
p184
F0.001518
sS'ADJ'
p185
F0.998482
s(lp186
g107
atp187
a(g100
(dp188
S'NOUN'
p189
F1.0
s(lp190
g100
atp191
a(g13
(dp192
S'ADV'
p193
F9e-05
sS'PRT'
p194
F0.000255
sS'ADP'
p195
F0.999655
s(lp196
g13
atp197
a(g127
(dp198
S'ADJ'
p199
F0.000983
sS'NOUN'
p200
F0.999017
s(lp201
g127
atp202
a(g5
(dp203
g5
F1.0
s(lp204
g5
atp205
asS'nl'
p206
(lp207
(g3
(dp208
g5
F1.0
s(lp209
tp210
a(S'en'
p211
(dp212
S'CONJ'
p213
F1.0
s(lp214
g18
atp215
a(g15
(dp216
g5
F1.0
s(lp217
g18
atp218
a(S'mijnheer'
p219
(dp220
S'NOUN'
p221
F1.0
s(lp222
g24
atp223
a(S'de'
p224
(dp225
S'DET'
p226
F1.0
s(lp227
tp228
a(S'voorzitter'
p229
(dp230
S'NOUN'
p231
F1.0
s(lp232
g18
atp233
a(g38
(dp234
g5
F1.0
s(lp235
g38
atp236
a(S'vrijdag'
p237
(dp238
S'NOUN'
p239
F1.0
s(lp240
g46
atp241
a(S'is'
p242
(dp243
S'VERB'
p244
F1.0
s(lp245
g50
atp246
a(S'het'
p247
(dp248
S'PRON'
p249
F0.192971
sS'DET'
p250
F0.807028
s(lp251
tp252
a(S'precies'
p253
(dp254
S'ADJ'
p255
F1.0
s(lp256
g157
atp257
a(S'een'
p258
(dp259
S'ADJ'
p260
F0.000122
sS'NUM'
p261
F0.0
sS'DET'
p262
F0.999878
sS'PRON'
p263
F0.0
s(lp264
g74
atp265
a(S'maand'
p266
(dp267
S'NOUN'
p268
F1.0
s(lp269
g80
atp270
a(S'geleden'
p271
(dp272
S'VERB'
p273
F0.919441
sS'ADJ'
p274
F0.080559
s(lp275
g88
atp276
a(S'dat'
p277
(dp278
S'PRON'
p279
F0.094459
sS'CONJ'
p280
F0.905541
s(lp281
tp282
a(S'de'
p283
(dp284
S'DET'
p285
F1.0
s(lp286
g94
atp287
a(S'verwoestende'
p288
(dp289
S'NOUN'
p290
F0.000499
sS'VERB'
p291
F0.090092
sS'ADJ'
p292
F0.90941
s(lp293
g107
atp294
a(S'aardbeving'
p295
(dp296
S'NOUN'
p297
F1.0
s(lp298
g100
atp299
a(S'in'
p300
(dp301
S'ADV'
p302
F0.001615
sS'VERB'
p303
F1e-06
sS'ADP'
p304
F0.998384
s(lp305
g13
atp306
a(S'ha\xc3\xafti'
p307
(dp308
S'NOUN'
p309
F1.0
s(lp310
tp311
a(S'plaatsvond'
p312
(dp313
S'VERB'
p314
F1.0
s(lp315
g127
atp316
a(g5
(dp317
g5
F1.0
s(lp318
g5
atp319
asS'de'
p320
(lp321
(S'herr'
p322
(dp323
S'ADJ'
p324
F0.129581
sS'NOUN'
p325
F0.788996
s(lp326
g24
atp327
a(S'pr\xc3\xa4sident'
p328
(dp329
S'VERB'
p330
F0.06215
sS'NOUN'
p331
F0.924499
s(lp332
tp333
a(S'!'
p334
(dp335
g5
F1.0
s(lp336
g18
atp337
a(S'freitag'
p338
(dp339
S'ADJ'
p340
F0.34172
sS'NOUN'
p341
F0.348475
s(lp342
g46
atp343
a(S'wird'
p344
(dp345
S'VERB'
p346
F1.0
s(lp347
g50
atp348
a(S'das'
p349
(dp350
S'PRON'
p351
F0.07626
sS'DET'
p352
F0.923739
s(lp353
g94
atp354
a(S'zerst\xc3\xb6rerische'
p355
(dp356
S'ADJ'
p357
F1.0
s(lp358
g107
atp359
a(S'erdbeben'
p360
(dp361
S'ADJ'
p362
F0.002844
sS'NOUN'
p363
F0.994696
s(lp364
g100
atp365
a(S'in'
p366
(dp367
S'ADP'
p368
F1.0
s(lp369
g13
atp370
a(S'haiti'
p371
(dp372
S'NOUN'
p373
F0.9994400000000001
s(lp374
g127
atp375
a(S'einen'
p376
(dp377
S'ADJ'
p378
F0.01718
sS'DET'
p379
F0.980591
s(lp380
g74
atp381
a(S'monat'
p382
(dp383
S'ADJ'
p384
F0.002618
sS'NOUN'
p385
F0.994712
s(lp386
g80
atp387
a(S'her'
p388
(dp389
S'PRT'
p390
F0.063213
sS'ADP'
p391
F0.914678
s(lp392
g88
atp393
a(S'sein'
p394
(dp395
S'VERB'
p396
F0.999315
s(lp397
g157
atp398
a(g5
(dp399
g5
F1.0
s(lp400
g5
atp401
asS'it'
p402
(lp403
(g3
(dp404
g5
F1.0
s(lp405
tp406
a(S'en'
p407
(dp408
S'ADJ'
p409
F0.097599
sS'VERB'
p410
F0.025145
sS'NOUN'
p411
F0.877257
s(lp412
g18
atp413
a(g15
(dp414
g5
F1.0
s(lp415
tp416
a(S'signor'
p417
(dp418
S'NOUN'
p419
F1.0
s(lp420
g24
atp421
a(S'presidente'
p422
(dp423
S'NOUN'
p424
F1.0
s(lp425
g18
atp426
a(g38
(dp427
g5
F1.0
s(lp428
g38
atp429
a(S'venerd\xc3\xac'
p430
(dp431
S'NOUN'
p432
F1.0
s(lp433
g46
atp434
a(S'sar\xc3\xa0'
p435
(dp436
S'VERB'
p437
F1.0
s(lp438
g50
atp439
a(S'trascorso'
p440
(dp441
S'NOUN'
p442
F0.003913
sS'VERB'
p443
F0.884609
sS'ADJ'
p444
F0.111478
s(lp445
g157
atp446
a(S'un'
p447
(dp448
S'PRON'
p449
F0.002329
sS'DEF'
p450
F0.997671
s(lp451
g74
atp452
a(S'mese'
p453
(dp454
S'NOUN'
p455
F1.0
s(lp456
g80
atp457
a(S'dal'
p458
(dp459
S'ADP'
p460
F1.0
s(lp461
tp462
a(S'terremoto'
p463
(dp464
S'NOUN'
p465
F1.0
s(lp466
g100
atp467
a(S'che'
p468
(dp469
S'PRON'
p470
F0.960049
sS'CONJ'
p471
F0.0391
sS'ADJ'
p472
F0.000851
s(lp473
g88
atp474
a(S'ha'
p475
(dp476
S'VERB'
p477
F1.0
s(lp478
g107
atp479
a(S'devastato'
p480
(dp481
S'VERB'
p482
F1.0
s(lp483
tp484
a(S'haiti'
p485
(dp486
S'ADJ'
p487
F0.111334
sS'VERB'
p488
F0.001451
sS'NOUN'
p489
F0.887214
s(lp490
g127
atp491
a(g5
(dp492
g5
F1.0
s(lp493
g5
atp494
asS'sk'
p495
(lp496
(S'v\xc3\xa1\xc5\xbeen\xc3\xbd'
p497
(dp498
S'VERB'
p499
F0.141074
sS'ADJ'
p500
F0.858926
s(lp501
tp502
a(S'p\xc3\xa1n'
p503
(dp504
S'NOUN'
p505
F1.0
s(lp506
g24
atp507
a(S'predsedaj\xc3\xbaci'
p508
(dp509
S'VERB'
p510
F1.0
s(lp511
g18
atp512
a(g38
(dp513
g5
F1.0
s(lp514
g38
atp515
a(S'v'
p516
(dp517
S'X'
p518
F0.000753
sS'ADP'
p519
F0.999247
s(lp520
tp521
a(S'piatok'
p522
(dp523
S'NOUN'
p524
F1.0
s(lp525
g46
atp526
a(S'uplynie'
p527
(dp528
S'VERB'
p529
F1.0
s(lp530
g157
atp531
a(S'mesiac'
p532
(dp533
S'NOUN'
p534
F1.0
s(lp535
g80
atp536
a(S'od'
p537
(dp538
g518
F0.000205
sS'ADP'
p539
F0.999795
s(lp540
g88
atp541
a(S'ni\xc4\x8div\xc3\xa9ho'
p542
(dp543
S'ADJ'
p544
F1.0
s(lp545
g107
atp546
a(S'zemetrasenia'
p547
(dp548
S'NOUN'
p549
F1.0
s(lp550
g100
atp551
a(S'na'
p552
(dp553
g518
F0.000316
sS'CONJ'
p554
F1.9e-05
sS'ADP'
p555
F0.999659
sS'PRT'
p556
F7e-06
s(lp557
g13
atp558
a(S'haiti'
p559
(dp560
S'ADJ'
p561
F0.001817
sS'NOUN'
p562
F0.9969950000000001
sg518
F0.001189
s(lp563
g127
atp564
a(g5
(dp565
g5
F1.0
s(lp566
g5
atp567
asS'pl'
p568
(lp569
(S'panie'
p570
(dp571
S'NOUN'
p572
F1.0
s(lp573
g24
atp574
a(S'przewodnicz\xc4\x85cy'
p575
(dp576
S'VERB'
p577
F0.000653
sS'NOUN'
p578
F0.999348
s(lp579
tp580
a(g334
(dp581
g5
F1.0
s(lp582
g18
atp583
a(S'w'
p584
(dp585
S'ADJ'
p586
F0.0
sg518
F1.4999999999999999e-05
sS'NOUN'
p587
F0.000122
sS'ADP'
p588
F0.999863
s(lp589
tp590
a(S'pi\xc4\x85tek'
p591
(dp592
S'NOUN'
p593
F1.0
s(lp594
g46
atp595
a(S'minie'
p596
(dp597
S'VERB'
p598
F0.997847
sS'NOUN'
p599
F0.002153
s(lp600
g157
atp601
a(S'miesi\xc4\x85c'
p602
(dp603
S'NOUN'
p604
F1.0
s(lp605
g80
atp606
a(S'od'
p607
(dp608
S'VERB'
p609
F8e-06
sS'NOUN'
p610
F7.7e-05
sS'ADP'
p611
F0.999915
s(lp612
g88
atp613
a(S'niszczycielskiego'
p614
(dp615
S'ADV'
p616
F1e-06
sS'NOUN'
p617
F0.017224
sS'VERB'
p618
F0.000272
sS'ADJ'
p619
F0.9825050000000001
s(lp620
g107
atp621
a(S'trz\xc4\x99sienia'
p622
(dp623
S'NOUN'
p624
F1.0
s(lp625
tp626
a(S'ziemi'
p627
(dp628
S'NOUN'
p629
F1.0
s(lp630
g100
atp631
a(S'na'
p632
(dp633
g518
F1.1e-05
sS'VERB'
p634
F3.6e-05
sS'NOUN'
p635
F1.5e-05
sS'ADP'
p636
F0.99993
sS'PRT'
p637
F9e-06
s(lp638
g13
atp639
a(S'haiti'
p640
(dp641
S'ADV'
p642
F0.001085
sg518
F9.5e-05
sS'ADJ'
p643
F4e-06
sS'VERB'
p644
F6.9e-05
sS'NOUN'
p645
F0.9987459999999999
s(lp646
g127
atp647
a(g5
(dp648
g5
F1.0
s(lp649
g5
atp650
asS'sl'
p651
(lp652
(S'gospod'
p653
(dp654
S'NOUN'
p655
F1.0
s(lp656
g24
atp657
a(S'predsednik'
p658
(dp659
S'NOUN'
p660
F1.0
s(lp661
g18
atp662
a(g38
(dp663
g5
F1.0
s(lp664
g38
atp665
a(g516
(dp666
S'ADP'
p667
F1.0
s(lp668
tp669
a(S'petek'
p670
(dp671
S'NOUN'
p672
F1.0
s(lp673
g46
atp674
a(S'mineva'
p675
(dp676
S'VERB'
p677
F1.0
s(lp678
g157
atp679
a(S'en'
p680
(dp681
g518
F6.2e-05
sS'NUM'
p682
F0.999938
s(lp683
g74
atp684
a(S'mesec'
p685
(dp686
S'NOUN'
p687
F1.0
s(lp688
g80
atp689
a(S'od'
p690
(dp691
S'ADP'
p692
F1.0
s(lp693
g88
atp694
a(S'uni\xc4\x8dujo\xc4\x8dega'
p695
(dp696
S'ADV'
p697
F2e-06
sS'NOUN'
p698
F0.000264
sS'VERB'
p699
F0.0
sS'ADJ'
p700
F0.999734
s(lp701
g107
atp702
a(S'potresa'
p703
(dp704
S'ADV'
p705
F2e-06
sS'ADJ'
p706
F1.3000000000000001e-05
sS'VERB'
p707
F3.2e-05
sS'NOUN'
p708
F0.9999490000000001
sg518
F0.0
s(lp709
g100
atp710
a(g516
(dp711
S'ADP'
p712
F1.0
s(lp713
g13
atp714
a(S'haitiju'
p715
(dp716
S'ADV'
p717
F0.000102
sS'ADJ'
p718
F0.006697
sS'VERB'
p719
F2.6000000000000002e-05
sS'NOUN'
p720
F0.9931570000000005
sg518
F1.7e-05
s(lp721
g127
atp722
a(g5
(dp723
g5
F1.0
s(lp724
g5
atp725
asS'es'
p726
(lp727
(S'se\xc3\xb1or'
p728
(dp729
S'NOUN'
p730
F1.0
s(lp731
g24
atp732
a(S'presidente'
p733
(dp734
S'NOUN'
p735
F1.0
s(lp736
g18
atp737
a(g38
(dp738
g5
F1.0
s(lp739
g38
atp740
a(S'el'
p741
(dp742
S'PRON'
p743
F1e-05
sS'DET'
p744
F0.99999
s(lp745
tp746
a(S'viernes'
p747
(dp748
S'NOUN'
p749
F1.0
s(lp750
g46
atp751
a(S'se'
p752
(dp753
S'PRON'
p754
F1.0
sS'VERB'
p755
F0.0
s(lp756
g50
atp757
a(S'cumplir\xc3\xa1'
p758
(dp759
S'VERB'
p760
F1.0
s(lp761
g157
atp762
a(S'un'
p763
(dp764
g518
F1e-06
sS'DET'
p765
F0.999999
s(lp766
g74
atp767
a(S'mes'
p768
(dp769
S'NOUN'
p770
F1.0
s(lp771
g80
atp772
a(S'desde'
p773
(dp774
S'ADP'
p775
F1.0
s(lp776
g88
atp777
a(S'el'
p778
(dp779
S'PRON'
p780
F0.000157
sS'DET'
p781
F0.999843
s(lp782
g94
atp783
a(S'devastador'
p784
(dp785
S'ADJ'
p786
F1.0
s(lp787
g107
atp788
a(S'terremoto'
p789
(dp790
S'NOUN'
p791
F1.0
s(lp792
g100
atp793
a(S'en'
p794
(dp795
g518
F8.5e-05
sS'CONJ'
p796
F1.2e-05
sS'ADP'
p797
F0.999903
s(lp798
g13
atp799
a(S'hait\xc3\xad'
p800
(dp801
S'ADJ'
p802
F0.378661
sS'VERB'
p803
F1e-05
sS'NOUN'
p804
F0.621328
s(lp805
g127
atp806
a(g5
(dp807
g5
F1.0
s(lp808
g5
atp809
as.