(dp0
S'fr'
p1
(lp2
(S'enfin'
p3
(dp4
S'ADV'
p5
F1.0
s(lp6
S'finally'
p7
atp8
a(S','
p9
(dp10
S'.'
p11
F1.0
s(lp12
g9
atp13
a(S'la'
p14
(dp15
S'PRON'
p16
F6.9e-05
sS'DET'
p17
F0.999931
sS'NOUN'
p18
F0.0
s(lp19
S'the'
p20
atp21
a(S'cr\xc3\xa9ation'
p22
(dp23
S'NOUN'
p24
F1.0
s(lp25
S'creation'
p26
atp27
a(S'potentielle'
p28
(dp29
S'ADJ'
p30
F1.0
s(lp31
S'potential'
p32
atp33
a(S"d'"
p34
(dp35
S'ADJ'
p36
F0.029663
sS'VERB'
p37
F0.37283
sS'NOUN'
p38
F0.597507
s(lp39
S'of'
p40
atp41
a(S'emplois'
p42
(dp43
S'NOUN'
p44
F1.0
s(lp45
S'employment'
p46
atp47
a(S'verts'
p48
(dp49
S'NOUN'
p50
F0.023775
sS'ADJ'
p51
F0.976225
s(lp52
S'green'
p53
atp54
a(S'ne'
p55
(dp56
S'ADV'
p57
F1.0
s(lp58
tp59
a(S'pourra'
p60
(dp61
S'VERB'
p62
F1.0
s(lp63
S'cannot'
p64
atp65
a(S'\xc3\xa9voluer'
p66
(dp67
S'VERB'
p68
F1.0
s(lp69
S'steered'
p70
atp71
a(S'dans'
p72
(dp73
S'NOUN'
p74
F2e-05
sS'ADP'
p75
F0.99998
s(lp76
S'in'
p77
atp78
a(S'le'
p79
(dp80
S'PRON'
p81
F0.000349
sS'DET'
p82
F0.999651
s(lp83
S'the'
p84
atp85
a(S'bon'
p86
(dp87
S'ADV'
p88
F0.002536
sS'NOUN'
p89
F0.004287
sS'ADJ'
p90
F0.993177
s(lp91
S'right'
p92
atp93
a(S'sens'
p94
(dp95
S'VERB'
p96
F0.008379
sS'NOUN'
p97
F0.99162
s(lp98
S'direction'
p99
atp100
a(S'que'
p101
(dp102
S'ADV'
p103
F0.008976
sS'PRON'
p104
F0.019911
sS'CONJ'
p105
F0.971113
s(lp106
tp107
a(S'si'
p108
(dp109
S'ADV'
p110
F0.063832
sS'CONJ'
p111
F0.93615
sS'NOUN'
p112
F1.9e-05
s(lp113
S'if'
p114
atp115
a(S'nous'
p116
(dp117
S'PRON'
p118
F1.0
s(lp119
S'we'
p120
atp121
a(S'disposons'
p122
(dp123
S'VERB'
p124
F1.0
s(lp125
S'have'
p126
atp127
a(S"d'"
p128
(dp129
S'NOUN'
p130
F0.087886
sS'VERB'
p131
F0.7995690000000001
sS'ADJ'
p132
F0.112546
s(lp133
tp134
a(S'une'
p135
(dp136
S'NOUN'
p137
F1.5e-05
sS'NUM'
p138
F0.021976
sS'DET'
p139
F0.978009
s(lp140
S'a'
p141
atp142
a(S"main-d'"
p143
(dp144
S'VERB'
p145
F2e-06
sS'NOUN'
p146
F0.999998
s(lp147
tp148
a(S'\xc5\x93uvre'
p149
(dp150
S'VERB'
p151
F0.757607
sS'NOUN'
p152
F0.242393
s(lp153
S'workforce'
p154
atp155
a(S'hautement'
p156
(dp157
S'ADV'
p158
F1.0
s(lp159
S'highly'
p160
atp161
a(S'qualifi\xc3\xa9e'
p162
(dp163
S'VERB'
p164
F1.0
s(lp165
S'qualified'
p166
atp167
a(g11
(dp168
g11
F1.0
s(lp169
g11
atp170
asS'en'
p171
(lp172
(g7
(dp173
S'ADV'
p174
F1.0
s(lp175
g7
atp176
a(g9
(dp177
g11
F1.0
s(lp178
g9
atp179
a(g20
(dp180
S'NOUN'
p181
F2e-06
sS'DET'
p182
F0.999998
s(lp183
g20
atp184
a(g32
(dp185
S'NOUN'
p186
F0.062318
sS'ADJ'
p187
F0.937682
s(lp188
g32
atp189
a(g26
(dp190
S'NOUN'
p191
F1.0
s(lp192
g26
atp193
a(g40
(dp194
S'ADP'
p195
F1.0
s(lp196
g40
atp197
a(g53
(dp198
S'NOUN'
p199
F0.030899
sS'ADJ'
p200
F0.969101
s(lp201
g53
atp202
a(g46
(dp203
S'NOUN'
p204
F1.0
s(lp205
g46
atp206
a(g64
(dp207
S'VERB'
p208
F1.0
s(lp209
g64
atp210
a(S'be'
p211
(dp212
S'VERB'
p213
F1.0
s(lp214
g211
atp215
a(g70
(dp216
S'VERB'
p217
F1.0
s(lp218
g70
atp219
a(g77
(dp220
S'ADV'
p221
F0.000366
sS'PRT'
p222
F0.003797
sS'ADP'
p223
F0.995837
s(lp224
g77
atp225
a(g84
(dp226
S'NOUN'
p227
F1e-06
sS'DET'
p228
F0.999999
s(lp229
g84
atp230
a(g92
(dp231
S'ADV'
p232
F0.003706
sS'NOUN'
p233
F0.297676
sS'VERB'
p234
F2e-06
sS'ADJ'
p235
F0.698616
s(lp236
g92
atp237
a(g99
(dp238
S'NOUN'
p239
F1.0
s(lp240
g99
atp241
a(g114
(dp242
S'ADP'
p243
F1.0
s(lp244
g114
atp245
a(g120
(dp246
S'PRON'
p247
F1.0
s(lp248
g120
atp249
a(S'do'
p250
(dp251
S'VERB'
p252
F1.0
sS'NOUN'
p253
F0.0
s(lp254
g250
atp255
a(S'not'
p256
(dp257
S'ADV'
p258
F1.0
s(lp259
g256
atp260
a(g126
(dp261
S'VERB'
p262
F1.0
s(lp263
g126
atp264
a(g141
(dp265
S'NOUN'
p266
F0.0
sS'DET'
p267
F1.0
s(lp268
g141
atp269
a(g160
(dp270
S'ADV'
p271
F0.977221
sS'ADJ'
p272
F0.022779
s(lp273
g160
atp274
a(g166
(dp275
S'VERB'
p276
F0.44611399999999996
sS'ADJ'
p277
F0.553886
s(lp278
g166
atp279
a(g154
(dp280
S'NOUN'
p281
F1.0
s(lp282
g154
atp283
a(g11
(dp284
g11
F1.0
s(lp285
g11
atp286
asS'nl'
p287
(lp288
(S'ten'
p289
(dp290
S'ADP'
p291
F1.0
s(lp292
tp293
a(S'slotte'
p294
(dp295
S'NOUN'
p296
F1.0
s(lp297
g7
atp298
a(S'kunnen'
p299
(dp300
S'VERB'
p301
F1.0
sS'NOUN'
p302
F0.0
s(lp303
g114
atp304
a(S'we'
p305
(dp306
S'PRON'
p307
F1.0
s(lp308
g120
atp309
a(S'de'
p310
(dp311
S'DET'
p312
F1.0
s(lp313
g20
atp314
a(S'mogelijke'
p315
(dp316
S'NOUN'
p317
F0.0002
sS'ADJ'
p318
F0.9998
s(lp319
g32
atp320
a(S'schepping'
p321
(dp322
S'NOUN'
p323
F1.0
s(lp324
g26
atp325
a(S'van'
p326
(dp327
S'ADP'
p328
F1.0
s(lp329
g40
atp330
a(S'groene'
p331
(dp332
S'NOUN'
p333
F0.007927
sS'ADJ'
p334
F0.992073
s(lp335
g53
atp336
a(S'werkgelegenheid'
p337
(dp338
S'NOUN'
p339
F1.0
s(lp340
g46
atp341
a(S'niet'
p342
(dp343
S'ADV'
p344
F0.999983
sS'PRON'
p345
F0.0
sS'VERB'
p346
F1.6e-05
sS'X'
p347
F0.0
s(lp348
g64
atp349
a(S'in'
p350
(dp351
S'ADV'
p352
F0.011905
sS'VERB'
p353
F2e-06
sS'ADP'
p354
F0.988093
s(lp355
g77
atp356
a(S'de'
p357
(dp358
S'DET'
p359
F1.0
s(lp360
g84
atp361
a(S'goede'
p362
(dp363
S'ADJ'
p364
F0.334789
sS'NOUN'
p365
F0.665211
s(lp366
g92
atp367
a(S'richting'
p368
(dp369
S'NOUN'
p370
F0.313824
sS'ADP'
p371
F0.686176
s(lp372
g99
atp373
a(S'sturen'
p374
(dp375
S'VERB'
p376
F0.32147
sS'NOUN'
p377
F0.6785289999999999
s(lp378
g70
atp379
a(S'zonder'
p380
(dp381
S'CONJ'
p382
F0.000532
sS'ADP'
p383
F0.999468
s(lp384
g256
atp385
a(S'hooggekwalificeerd'
p386
(dp387
S'ADJ'
p388
F1.0
s(lp389
g166
atp390
a(S'personeel'
p391
(dp392
S'ADJ'
p393
F0.000339
sS'NOUN'
p394
F0.999661
s(lp395
g154
atp396
a(g11
(dp397
g11
F1.0
s(lp398
g11
atp399
asS'de'
p400
(lp401
(S'schlie\xc3\x9flich'
p402
(dp403
S'ADV'
p404
F1.0
s(lp405
g7
atp406
a(S'kann'
p407
(dp408
S'VERB'
p409
F1.0
s(lp410
tp411
a(S'die'
p412
(dp413
S'PRON'
p414
F0.001371
sS'DET'
p415
F0.99862
s(lp416
g20
atp417
a(S'm\xc3\xb6gliche'
p418
(dp419
S'ADJ'
p420
F1.0
s(lp421
g32
atp422
a(S'schaffung'
p423
(dp424
S'ADJ'
p425
F0.001701
sS'NOUN'
p426
F0.998243
s(lp427
g26
atp428
a(S'gr\xc3\xbcner'
p429
(dp430
S'ADJ'
p431
F1.0
s(lp432
g53
atp433
a(S'arbeitspl\xc3\xa4tze'
p434
(dp435
S'ADJ'
p436
F0.173691
sS'NOUN'
p437
F0.802537
s(lp438
g46
atp439
a(S'nicht'
p440
(dp441
S'PRT'
p442
F1.0
s(lp443
g64
atp444
a(S'in'
p445
(dp446
S'ADP'
p447
F1.0
s(lp448
g77
atp449
a(S'die'
p450
(dp451
S'PRON'
p452
F0.000218
sS'DET'
p453
F0.999767
s(lp454
g84
atp455
a(S'richtige'
p456
(dp457
S'ADJ'
p458
F1.0
s(lp459
g92
atp460
a(S'richtung'
p461
(dp462
S'ADJ'
p463
F2.1e-05
sS'NOUN'
p464
F0.999964
s(lp465
g99
atp466
a(S'gef\xc3\xbchrt'
p467
(dp468
S'VERB'
p469
F0.999234
sS'ADJ'
p470
F0.000766
s(lp471
g70
atp472
a(S'werden'
p473
(dp474
S'VERB'
p475
F0.999997
s(lp476
g211
atp477
a(g9
(dp478
g11
F1.0
s(lp479
tp480
a(S'wenn'
p481
(dp482
S'CONJ'
p483
F1.0
s(lp484
g114
atp485
a(S'wir'
p486
(dp487
S'PRON'
p488
F1.0
s(lp489
g120
atp490
a(S'keine'
p491
(dp492
S'PRON'
p493
F1.0
s(lp494
g256
atp495
a(S'hochqualifizierten'
p496
(dp497
S'ADJ'
p498
F1.0
s(lp499
g166
atp500
a(S'arbeitskr\xc3\xa4fte'
p501
(dp502
S'ADJ'
p503
F0.013482
sS'NOUN'
p504
F0.975103
s(lp505
g154
atp506
a(S'haben'
p507
(dp508
S'VERB'
p509
F0.993984
s(lp510
g126
atp511
a(g11
(dp512
g11
F1.0
s(lp513
g11
atp514
asS'it'
p515
(lp516
(S'infine'
p517
(dp518
S'ADV'
p519
F1.0
s(lp520
g7
atp521
a(g9
(dp522
g11
F1.0
s(lp523
g9
atp524
a(S'la'
p525
(dp526
S'PRON'
p527
F0.003296
sS'DET'
p528
F0.996704
s(lp529
g20
atp530
a(S'potenziale'
p531
(dp532
S'NOUN'
p533
F0.306112
sS'VERB'
p534
F0.000229
sS'ADJ'
p535
F0.693659
s(lp536
g32
atp537
a(S'creazione'
p538
(dp539
S'NOUN'
p540
F1.0
s(lp541
g26
atp542
a(S'di'
p543
(dp544
S'CONJ'
p545
F4e-06
sS'ADP'
p546
F0.999996
s(lp547
g40
atp548
a(S'occupazione'
p549
(dp550
S'NOUN'
p551
F1.0
s(lp552
g46
atp553
a(S'verde'
p554
(dp555
S'NOUN'
p556
F0.012186
sS'ADJ'
p557
F0.987814
s(lp558
g53
atp559
a(S'non'
p560
(dp561
S'ADV'
p562
F1.0
s(lp563
tp564
a(S'pu\xc3\xb2'
p565
(dp566
S'VERB'
p567
F1.0
s(lp568
g64
atp569
a(S'essere'
p570
(dp571
S'VERB'
p572
F0.999979
sS'NOUN'
p573
F2.1e-05
s(lp574
g211
atp575
a(S'orientata'
p576
(dp577
S'VERB'
p578
F0.995399
sS'ADJ'
p579
F0.004601
s(lp580
g70
atp581
a(S'nella'
p582
(dp583
S'ADP'
p584
F1.0
s(lp585
g77
atp586
a(S'giusta'
p587
(dp588
S'ADJ'
p589
F0.998956
sS'ADP'
p590
F0.001044
s(lp591
g92
atp592
a(S'direzione'
p593
(dp594
S'NOUN'
p595
F1.0
s(lp596
g99
atp597
a(S'se'
p598
(dp599
S'PRON'
p600
F0.000247
sS'CONJ'
p601
F0.999728
sS'NOUN'
p602
F2.6e-05
s(lp603
g114
atp604
a(S'non'
p605
(dp606
S'ADV'
p607
F1.0
s(lp608
g256
atp609
a(S'disponiamo'
p610
(dp611
S'VERB'
p612
F1.0
s(lp613
g126
atp614
a(S'di'
p615
(dp616
S'CONJ'
p617
F6e-06
sS'ADP'
p618
F0.999994
s(lp619
tp620
a(S'una'
p621
(dp622
S'PRON'
p623
F0.000174
sS'DEF'
p624
F0.999826
s(lp625
g141
atp626
a(S'forza'
p627
(dp628
S'VERB'
p629
F2.9e-05
sS'NOUN'
p630
F0.999971
s(lp631
tp632
a(S'lavoro'
p633
(dp634
S'VERB'
p635
F0.068274
sS'NOUN'
p636
F0.931726
s(lp637
g154
atp638
a(S'altamente'
p639
(dp640
S'ADV'
p641
F1.0
s(lp642
g160
atp643
a(S'qualificata'
p644
(dp645
S'NOUN'
p646
F0.010782
sS'VERB'
p647
F0.638628
sS'ADJ'
p648
F0.35059
s(lp649
g166
atp650
a(g11
(dp651
g11
F1.0
s(lp652
g11
atp653
asS'sk'
p654
(lp655
(g141
(dp656
g347
F0.005208000000000001
sS'CONJ'
p657
F0.99473
sS'NOUN'
p658
F4.2000000000000004e-05
sS'ADP'
p659
F1.9e-05
sS'PRT'
p660
F1e-06
s(lp661
tp662
a(S'nakoniec'
p663
(dp664
S'ADV'
p665
F0.949377
sg347
F0.050623
s(lp666
g7
atp667
a(g9
(dp668
g11
F1.0
s(lp669
g9
atp670
a(S'potenci\xc3\xa1lne'
p671
(dp672
S'ADV'
p673
F0.074311
sS'ADJ'
p674
F0.925688
s(lp675
g32
atp676
a(S'vytv\xc3\xa1ranie'
p677
(dp678
S'NOUN'
p679
F1.0
s(lp680
g26
atp681
a(S'ekologick\xc3\xbdch'
p682
(dp683
S'ADJ'
p684
F1.0
s(lp685
g53
atp686
a(S'pracovn\xc3\xbdch'
p687
(dp688
S'ADJ'
p689
F1.0
s(lp690
tp691
a(S'miest'
p692
(dp693
S'NOUN'
p694
F1.0
s(lp695
g46
atp696
a(S'nem\xc3\xb4\xc5\xbee'
p697
(dp698
S'VERB'
p699
F1.0
s(lp700
g64
atp701
a(S'\xc3\xads\xc5\xa5'
p702
(dp703
S'VERB'
p704
F1.0
s(lp705
g70
atp706
a(S'spr\xc3\xa1vnym'
p707
(dp708
S'ADJ'
p709
F1.0
s(lp710
g92
atp711
a(S'smerom'
p712
(dp713
S'NOUN'
p714
F1.0
s(lp715
g99
atp716
a(g9
(dp717
g11
F1.0
s(lp718
tp719
a(S'ak'
p720
(dp721
g347
F0.00463
sS'CONJ'
p722
F0.995369
s(lp723
g114
atp724
a(S'nebudeme'
p725
(dp726
S'VERB'
p727
F1.0
s(lp728
g250
atp729
a(S'ma\xc5\xa5'
p730
(dp731
S'VERB'
p732
F0.999878
sS'NOUN'
p733
F0.000122
s(lp734
g126
atp735
a(S'vysokokvalifikovan\xc3\xba'
p736
(dp737
S'NOUN'
p738
F0.003216
sS'VERB'
p739
F0.061404
sS'ADJ'
p740
F0.935381
s(lp741
g166
atp742
a(S'pracovn\xc3\xba'
p743
(dp744
S'ADJ'
p745
F1.0
s(lp746
tp747
a(S'silu'
p748
(dp749
S'NOUN'
p750
F1.0
s(lp751
g154
atp752
a(g11
(dp753
g11
F1.0
s(lp754
g11
atp755
asS'pl'
p756
(lp757
(S'wreszcie'
p758
(dp759
S'ADV'
p760
F0.737812
sS'PRT'
p761
F0.262188
s(lp762
g7
atp763
a(g9
(dp764
g347
F0.0
sg11
F1.0
s(lp765
g9
atp766
a(S'mo\xc5\xbcliwego'
p767
(dp768
S'ADV'
p769
F7.2e-05
sS'NOUN'
p770
F0.006988
sS'VERB'
p771
F0.0018510000000000002
sS'ADJ'
p772
F0.9910909999999999
s(lp773
g32
atp774
a(S'utworzenia'
p775
(dp776
S'VERB'
p777
F1.0
s(lp778
g26
atp779
a(S'zielonych'
p780
(dp781
S'ADJ'
p782
F0.999999
s(lp783
g53
atp784
a(S'miejsc'
p785
(dp786
S'NOUN'
p787
F1.0
s(lp788
tp789
a(S'pracy'
p790
(dp791
S'NOUN'
p792
F0.999999
s(lp793
g46
atp794
a(S'nie'
p795
(dp796
S'ADV'
p797
F9e-06
sS'PRT'
p798
F0.970521
sS'CONJ'
p799
F0.029455
sS'NOUN'
p800
F3e-06
sS'PRON'
p801
F1.1e-05
s(lp802
tp803
a(S'da'
p804
(dp805
S'VERB'
p806
F0.999844
sS'NOUN'
p807
F0.000155
s(lp808
g64
atp809
a(S'si\xc4\x99'
p810
(dp811
S'PRT'
p812
F1.0
s(lp813
g211
atp814
a(S'pokierowa\xc4\x87'
p815
(dp816
S'VERB'
p817
F1.0
s(lp818
g70
atp819
a(S'we'
p820
(dp821
g347
F1.8e-05
sS'ADP'
p822
F0.999982
s(lp823
g77
atp824
a(S'w\xc5\x82a\xc5\x9bciwym'
p825
(dp826
S'ADJ'
p827
F1.0000000000000002
s(lp828
g92
atp829
a(S'kierunku'
p830
(dp831
S'NOUN'
p832
F1.0
s(lp833
g99
atp834
a(g9
(dp835
g347
F0.0
sg11
F1.0
s(lp836
tp837
a(S'je\xc5\xbceli'
p838
(dp839
S'CONJ'
p840
F1.0
s(lp841
g114
atp842
a(S'nie'
p843
(dp844
S'ADV'
p845
F4.3e-05
sS'PRT'
p846
F0.999715
sS'CONJ'
p847
F0.000238
sS'NOUN'
p848
F2e-06
sS'PRON'
p849
F2e-06
s(lp850
g256
atp851
a(S'b\xc4\x99dziemy'
p852
(dp853
S'VERB'
p854
F1.0
s(lp855
g120
atp856
a(S'mie\xc4\x87'
p857
(dp858
S'VERB'
p859
F1.0
s(lp860
g126
atp861
a(S'wysoko'
p862
(dp863
S'ADV'
p864
F1.0
s(lp865
g160
atp866
a(S'wykwalifikowanych'
p867
(dp868
S'VERB'
p869
F1.0
s(lp870
g166
atp871
a(S'pracownik\xc3\xb3w'
p872
(dp873
S'NOUN'
p874
F1.0
s(lp875
g154
atp876
a(g11
(dp877
g11
F1.0
s(lp878
g11
atp879
asS'sl'
p880
(lp881
(S'nazadnje'
p882
(dp883
S'ADV'
p884
F1.0
s(lp885
g7
atp886
a(g9
(dp887
g11
F1.0
s(lp888
g9
atp889
a(S'morebitne'
p890
(dp891
S'ADJ'
p892
F0.9999999999999999
s(lp893
g32
atp894
a(S'vzpostavitve'
p895
(dp896
S'NOUN'
p897
F0.999999
s(lp898
g26
atp899
a(S'zelenega'
p900
(dp901
S'ADJ'
p902
F1.0
s(lp903
g53
atp904
a(S'zaposlovanja'
p905
(dp906
S'NOUN'
p907
F1.0
s(lp908
g46
atp909
a(S'se'
p910
(dp911
S'PRON'
p912
F0.999895
sg347
F0.000105
s(lp913
tp914
a(S'ne'
p915
(dp916
S'PRT'
p917
F0.995011
sS'CONJ'
p918
F0.004682
sg347
F0.000308
s(lp919
g64
atp920
a(S'da'
p921
(dp922
S'PRT'
p923
F0.006474
sS'CONJ'
p924
F0.47361
sS'VERB'
p925
F0.519315
sg347
F0.000601
s(lp926
g211
atp927
a(S'usmerjati'
p928
(dp929
S'ADV'
p930
F0.000676
sS'ADJ'
p931
F0.005315
sS'VERB'
p932
F0.905531
sS'NOUN'
p933
F0.08847799999999999
s(lp934
g70
atp935
a(S'v'
p936
(dp937
S'ADP'
p938
F1.0
s(lp939
g77
atp940
a(S'pravo'
p941
(dp942
S'NOUN'
p943
F0.001536
sS'ADJ'
p944
F0.9984639999999999
s(lp945
g92
atp946
a(S'smer'
p947
(dp948
S'NOUN'
p949
F1.0
s(lp950
g99
atp951
a(g9
(dp952
g11
F1.0
s(lp953
tp954
a(S'\xc4\x8de'
p955
(dp956
S'CONJ'
p957
F1.0
s(lp958
g114
atp959
a(S'nimamo'
p960
(dp961
S'VERB'
p962
F1.0
s(lp963
g256
atp964
a(S'visoko'
p965
(dp966
S'ADV'
p967
F0.92254
sS'ADJ'
p968
F0.07745999999999999
s(lp969
g160
atp970
a(S'kvalificirane'
p971
(dp972
S'ADV'
p973
F0.000608
sS'NOUN'
p974
F0.092399
sS'VERB'
p975
F0.049129
sS'ADJ'
p976
F0.857863
s(lp977
g166
atp978
a(S'delovne'
p979
(dp980
S'ADJ'
p981
F1.0
s(lp982
tp983
a(S'sile'
p984
(dp985
S'NOUN'
p986
F1.0
s(lp987
g154
atp988
a(g11
(dp989
g11
F1.0
s(lp990
g11
atp991
asS'es'
p992
(lp993
(S'y'
p994
(dp995
g347
F0.103557
sS'CONJ'
p996
F0.896443
s(lp997
g7
atp998
a(g9
(dp999
g11
F1.0
s(lp1000
g7
atp1001
a(S'por'
p1002
(dp1003
S'ADP'
p1004
F1.0
s(lp1005
tp1006
a(S'\xc3\xbaltimo'
p1007
(dp1008
S'ADJ'
p1009
F1.0
s(lp1010
g7
atp1011
a(g9
(dp1012
g11
F1.0
s(lp1013
g9
atp1014
a(S'no'
p1015
(dp1016
S'ADV'
p1017
F0.999956
sg347
F4.4e-05
s(lp1018
tp1019
a(S'podemos'
p1020
(dp1021
S'VERB'
p1022
F1.0
s(lp1023
g64
atp1024
a(S'dar'
p1025
(dp1026
S'VERB'
p1027
F1.0
s(lp1028
g211
atp1029
a(S'cauce'
p1030
(dp1031
S'NOUN'
p1032
F1.0
s(lp1033
g70
atp1034
a(S'al'
p1035
(dp1036
S'CONJ'
p1037
F0.001143
sS'ADP'
p1038
F0.998857
s(lp1039
g20
atp1040
a(S'potencial'
p1041
(dp1042
S'ADJ'
p1043
F1.0
s(lp1044
g32
atp1045
a(S'de'
p1046
(dp1047
g347
F3.1e-05
sS'CONJ'
p1048
F0.001485
sS'ADP'
p1049
F0.998485
s(lp1050
g77
atp1051
a(S'creaci\xc3\xb3n'
p1052
(dp1053
S'NOUN'
p1054
F1.0
s(lp1055
g26
atp1056
a(S'de'
p1057
(dp1058
g347
F2.9e-05
sS'CONJ'
p1059
F0.000449
sS'ADP'
p1060
F0.999522
s(lp1061
g40
atp1062
a(S'empleo'
p1063
(dp1064
S'NOUN'
p1065
F1.0
s(lp1066
g46
atp1067
a(S'verde'
p1068
(dp1069
S'NOUN'
p1070
F0.0058
sS'ADJ'
p1071
F0.9942
s(lp1072
g53
atp1073
a(S'si'
p1074
(dp1075
S'CONJ'
p1076
F0.999807
sS'NOUN'
p1077
F0.000193
s(lp1078
g114
atp1079
a(S'no'
p1080
(dp1081
S'ADV'
p1082
F0.999999
sg347
F1e-06
s(lp1083
g256
atp1084
a(S'tenemos'
p1085
(dp1086
S'VERB'
p1087
F1.0
s(lp1088
g126
atp1089
a(S'una'
p1090
(dp1091
S'DET'
p1092
F1.0
s(lp1093
g141
atp1094
a(S'mano'
p1095
(dp1096
S'NOUN'
p1097
F1.0
s(lp1098
tp1099
a(S'de'
p1100
(dp1101
g347
F0.000324
sS'CONJ'
p1102
F0.000548
sS'ADP'
p1103
F0.999128
s(lp1104
tp1105
a(S'obra'
p1106
(dp1107
S'VERB'
p1108
F0.016225
sS'NOUN'
p1109
F0.983775
s(lp1110
g154
atp1111
a(S'altamente'
p1112
(dp1113
S'ADV'
p1114
F1.0
s(lp1115
g160
atp1116
a(S'cualificada'
p1117
(dp1118
S'VERB'
p1119
F1.0
s(lp1120
g166
atp1121
a(g11
(dp1122
g11
F1.0
s(lp1123
g11
atp1124
as.