(dp0
S'fr'
p1
(lp2
(S'mugabe'
p3
(dp4
S'ADJ'
p5
F0.061309
sS'VERB'
p6
F0.008481999999999998
sS'NOUN'
p7
F0.930208
s(lp8
S'mugabe'
p9
atp10
a(S'a'
p11
(dp12
S'VERB'
p13
F1.0
s(lp14
S'has'
p15
atp16
a(S'd\xc3\xa9truit'
p17
(dp18
S'VERB'
p19
F1.0
s(lp20
S'destroyed'
p21
atp22
a(S'un'
p23
(dp24
S'NOUN'
p25
F4.7e-05
sS'NUM'
p26
F0.06539
sS'DET'
p27
F0.934563
s(lp28
g11
atp29
a(S'pays'
p30
(dp31
S'NOUN'
p32
F1.0
s(lp33
S'country'
p34
atp35
a(S'autrefois'
p36
(dp37
S'ADV'
p38
F1.0
s(lp39
S'once'
p40
atp41
a(S'prosp\xc3\xa8re'
p42
(dp43
S'VERB'
p44
F0.010305
sS'ADJ'
p45
F0.989695
s(lp46
S'prosperous'
p47
atp48
a(S'.'
p49
(dp50
g49
F1.0
s(lp51
g49
atp52
asS'en'
p53
(lp54
(g9
(dp55
S'ADV'
p56
F0.008068
sS'ADJ'
p57
F2e-06
sS'VERB'
p58
F4.9999999999999996e-06
sS'NOUN'
p59
F0.991925
s(lp60
g9
atp61
a(g15
(dp62
S'VERB'
p63
F1.0
s(lp64
g15
atp65
a(g21
(dp66
S'VERB'
p67
F1.0
s(lp68
g21
atp69
a(g11
(dp70
S'NOUN'
p71
F2e-05
sS'DET'
p72
F0.99998
s(lp73
g11
atp74
a(g40
(dp75
S'ADV'
p76
F0.92234
sS'NOUN'
p77
F0.000268
sS'ADP'
p78
F0.077392
s(lp79
g40
atp80
a(g47
(dp81
S'ADJ'
p82
F1.0
s(lp83
g47
atp84
a(g34
(dp85
S'NOUN'
p86
F1.0
s(lp87
g34
atp88
a(g49
(dp89
g49
F1.0
s(lp90
g49
atp91
asS'nl'
p92
(lp93
(S'mugabe'
p94
(dp95
S'NOUN'
p96
F1.0
s(lp97
tp98
a(S'heeft'
p99
(dp100
S'VERB'
p101
F1.0
s(lp102
g15
atp103
a(S'een'
p104
(dp105
S'ADJ'
p106
F2e-06
sS'NUM'
p107
F0.0
sS'DET'
p108
F0.999997
sS'PRON'
p109
F1e-06
s(lp110
g11
atp111
a(S'land'
p112
(dp113
S'VERB'
p114
F1e-06
sS'NOUN'
p115
F0.999999
s(lp116
g34
atp117
a(S'verwoest'
p118
(dp119
S'VERB'
p120
F1.0
s(lp121
g21
atp122
a(S'dat'
p123
(dp124
S'PRON'
p125
F0.345597
sS'CONJ'
p126
F0.654403
s(lp127
tp128
a(S'eens'
p129
(dp130
S'ADV'
p131
F0.997069
sS'ADJ'
p132
F0.002931
s(lp133
g40
atp134
a(S'welvarend'
p135
(dp136
S'VERB'
p137
F0.02003
sS'ADJ'
p138
F0.97997
s(lp139
g47
atp140
a(S'was'
p141
(dp142
S'VERB'
p143
F0.9987870000000001
sS'NOUN'
p144
F0.001213
s(lp145
g9
atp146
a(g49
(dp147
g49
F1.0
s(lp148
g49
atp149
asS'de'
p150
(lp151
(S'mugabe'
p152
(dp153
S'ADJ'
p154
F0.008197
sS'NOUN'
p155
F0.991589
s(lp156
g9
atp157
a(S'hat'
p158
(dp159
S'VERB'
p160
F1.0
s(lp161
g15
atp162
a(S'ein'
p163
(dp164
S'NUM'
p165
F0.000172
sS'DET'
p166
F0.999828
s(lp167
g11
atp168
a(S'bl\xc3\xbchendes'
p169
(dp170
S'ADJ'
p171
F1.0
s(lp172
g47
atp173
a(S'land'
p174
(dp175
S'VERB'
p176
F0.133037
sS'NOUN'
p177
F0.718953
s(lp178
g34
atp179
a(S'zugrunde'
p180
(dp181
S'ADV'
p182
F0.989685
sS'PRT'
p183
F0.007496
s(lp184
tp185
a(S'gerichtet'
p186
(dp187
S'VERB'
p188
F0.979885
sS'ADJ'
p189
F0.020115
s(lp190
g21
atp191
a(g49
(dp192
g49
F1.0
s(lp193
g49
atp194
asS'it'
p195
(lp196
(S'mugabe'
p197
(dp198
S'ADJ'
p199
F0.041331
sS'VERB'
p200
F0.236097
sS'NOUN'
p201
F0.722573
s(lp202
g9
atp203
a(S'ha'
p204
(dp205
S'VERB'
p206
F1.0
s(lp207
g15
atp208
a(S'distrutto'
p209
(dp210
S'VERB'
p211
F0.997873
sS'ADJ'
p212
F0.002127
s(lp213
g21
atp214
a(S'un'
p215
(dp216
S'PRON'
p217
F0.000235
sS'DEF'
p218
F0.999765
s(lp219
g11
atp220
a(S'paese'
p221
(dp222
S'NOUN'
p223
F1.0
s(lp224
g34
atp225
a(S'in'
p226
(dp227
S'ADP'
p228
F1.0
s(lp229
tp230
a(S'passato'
p231
(dp232
S'ADJ'
p233
F0.005462
sS'VERB'
p234
F0.00289
sS'NOUN'
p235
F0.991648
s(lp236
g40
atp237
a(S'fiorente'
p238
(dp239
S'VERB'
p240
F0.231453
sS'ADJ'
p241
F0.768547
s(lp242
g47
atp243
a(g49
(dp244
g49
F1.0
s(lp245
g49
atp246
asS'sk'
p247
(lp248
(S'mugabe'
p249
(dp250
S'VERB'
p251
F0.08108400000000002
sS'NOUN'
p252
F0.918915
s(lp253
g9
atp254
a(S'zni\xc4\x8dil'
p255
(dp256
S'VERB'
p257
F1.0
s(lp258
g21
atp259
a(S'krajinu'
p260
(dp261
S'NOUN'
p262
F1.0
s(lp263
g34
atp264
a(S','
p265
(dp266
g49
F1.0
s(lp267
tp268
a(S'ktor\xc3\xa1'
p269
(dp270
S'PRON'
p271
F1.0
s(lp272
g11
atp273
a(S'kedysi'
p274
(dp275
S'PRON'
p276
F1.0
s(lp277
g40
atp278
a(S'prosperovala'
p279
(dp280
S'VERB'
p281
F0.999999
s(lp282
g47
atp283
a(g49
(dp284
g49
F1.0
s(lp285
g49
atp286
asS'pl'
p287
(lp288
(S'mugabe'
p289
(dp290
S'ADV'
p291
F0.0033030000000000004
sS'NOUN'
p292
F0.9845969999999999
sS'PRT'
p293
F0.001755
sS'VERB'
p294
F0.0019840000000000005
sS'X'
p295
F3.8e-05
sS'ADJ'
p296
F0.008322
s(lp297
g9
atp298
a(S'zniszczy\xc5\x82'
p299
(dp300
S'VERB'
p301
F1.0
s(lp302
g21
atp303
a(S'tak'
p304
(dp305
S'ADV'
p306
F0.583769
sS'NOUN'
p307
F0.000156
sS'PRT'
p308
F0.415341
sg295
F0.0
sS'CONJ'
p309
F0.000727
sS'ADJ'
p310
F6e-06
s(lp311
g11
atp312
a(S'dobrze'
p313
(dp314
S'ADV'
p315
F0.995112
sS'PRT'
p316
F0.004888
s(lp317
tp318
a(S'kiedy\xc5\x9b'
p319
(dp320
S'ADV'
p321
F1.0
s(lp322
g40
atp323
a(S'prosperuj\xc4\x85cy'
p324
(dp325
S'NOUN'
p326
F0.024512000000000006
sS'VERB'
p327
F0.28355800000000003
sS'ADJ'
p328
F0.691929
s(lp329
g47
atp330
a(S'kraj'
p331
(dp332
S'NOUN'
p333
F1.0
s(lp334
g34
atp335
a(g49
(dp336
g49
F1.0
s(lp337
g49
atp338
asS'sl'
p339
(lp340
(S'mugabe'
p341
(dp342
S'ADV'
p343
F0.074218
sS'ADJ'
p344
F0.005306
sS'NOUN'
p345
F0.920474
s(lp346
g9
atp347
a(S'je'
p348
(dp349
S'PRON'
p350
F9.9e-05
sS'VERB'
p351
F0.999896
sg295
F5e-06
s(lp352
g15
atp353
a(S'uni\xc4\x8dil'
p354
(dp355
S'VERB'
p356
F1.0
s(lp357
g21
atp358
a(S'neko\xc4\x8d'
p359
(dp360
S'ADV'
p361
F1.0
s(lp362
g40
atp363
a(S'uspe\xc5\xa1no'
p364
(dp365
S'ADV'
p366
F0.053311
sS'ADJ'
p367
F0.946689
s(lp368
g47
atp369
a(S'dr\xc5\xbeavo'
p370
(dp371
S'NOUN'
p372
F1.0
s(lp373
g34
atp374
a(g49
(dp375
g49
F1.0
s(lp376
g49
atp377
asS'es'
p378
(lp379
(S'mugabe'
p380
(dp381
S'ADV'
p382
F0.836001
sS'ADJ'
p383
F0.015879
sS'VERB'
p384
F0.024142000000000004
sS'NOUN'
p385
F0.123979
s(lp386
g9
atp387
a(S'ha'
p388
(dp389
S'VERB'
p390
F1.0
s(lp391
g15
atp392
a(S'destruido'
p393
(dp394
S'VERB'
p395
F1.0
s(lp396
g21
atp397
a(S'lo'
p398
(dp399
S'PRON'
p400
F0.002984
sS'DET'
p401
F0.997016
s(lp402
tp403
a(S'que'
p404
(dp405
g295
F0.0
sS'CONJ'
p406
F1.0
s(lp407
tp408
a(S'una'
p409
(dp410
S'DET'
p411
F1.0
s(lp412
tp413
a(S'vez'
p414
(dp415
S'NOUN'
p416
F1.0
s(lp417
g40
atp418
a(S'fue'
p419
(dp420
S'VERB'
p421
F1.0
s(lp422
tp423
a(S'un'
p424
(dp425
g295
F3e-06
sS'DET'
p426
F0.999997
s(lp427
g11
atp428
a(S'pa\xc3\xads'
p429
(dp430
S'NOUN'
p431
F1.0
s(lp432
g34
atp433
a(S'pr\xc3\xb3spero'
p434
(dp435
S'ADJ'
p436
F1.0
s(lp437
g47
atp438
a(g49
(dp439
g49
F1.0
s(lp440
g49
atp441
as.