(dp0
S'fr'
p1
(lp2
(S'il'
p3
(dp4
S'PRON'
p5
F1.0
s(lp6
S'it'
p7
atp8
a(S"n'"
p9
(dp10
S'ADJ'
p11
F0.000625
sS'VERB'
p12
F0.9973000000000002
sS'NOUN'
p13
F0.002077
s(lp14
tp15
a(S'appartient'
p16
(dp17
S'VERB'
p18
F1.0
s(lp19
S'fall'
p20
atp21
a(S'donc'
p22
(dp23
S'ADV'
p24
F1.0
s(lp25
S'therefore'
p26
atp27
a(S'pas'
p28
(dp29
S'ADV'
p30
F0.998187
sS'NOUN'
p31
F0.001813
s(lp32
S'not'
p33
atp34
a(S'\xc3\xa0'
p35
(dp36
S'ADP'
p37
F1.0
s(lp38
S'to'
p39
atp40
a(S"l'"
p41
(dp42
S'ADJ'
p43
F0.160704
sS'VERB'
p44
F0.06480800000000002
sS'NOUN'
p45
F0.774488
s(lp46
S'the'
p47
atp48
a(S'union'
p49
(dp50
S'NOUN'
p51
F1.0
s(lp52
S'union'
p53
atp54
a(S'europ\xc3\xa9enne'
p55
(dp56
S'NOUN'
p57
F0.017216
sS'ADJ'
p58
F0.982784
s(lp59
S'european'
p60
atp61
a(S'de'
p62
(dp63
S'ADP'
p64
F1.0
s(lp65
S'to'
p66
atp67
a(S'promouvoir'
p68
(dp69
S'VERB'
p70
F1.0
s(lp71
tp72
a(S'cette'
p73
(dp74
S'PRON'
p75
F1.0
s(lp76
tp77
a(S'"'
p78
(dp79
S'.'
p80
F1.0
s(lp81
S"'"
p82
atp83
a(S'bonne'
p84
(dp85
S'ADV'
p86
F0.003129
sS'NOUN'
p87
F0.001502
sS'ADJ'
p88
F0.995369
s(lp89
S'good'
p90
atp91
a(S'gouvernance'
p92
(dp93
S'NOUN'
p94
F1.0
s(lp95
S'governance'
p96
atp97
a(S'en'
p98
(dp99
S'PRON'
p100
F0.000406
sS'ADP'
p101
F0.999594
s(lp102
S'in'
p103
atp104
a(S'mati\xc3\xa8re'
p105
(dp106
S'NOUN'
p107
F1.0
s(lp108
S'matters'
p109
atp110
a(S'fiscale'
p111
(dp112
S'ADJ'
p113
F1.0
s(lp114
S'tax'
p115
atp116
a(g78
(dp117
g80
F1.0
s(lp118
g82
atp119
a(S','
p120
(dp121
g80
F1.0
s(lp122
g120
atp123
a(S'comme'
p124
(dp125
S'ADV'
p126
F0.633027
sS'CONJ'
p127
F0.366973
s(lp128
S'as'
p129
atp130
a(S"l'"
p131
(dp132
S'NOUN'
p133
F0.042016
sS'VERB'
p134
F0.806119
sS'ADJ'
p135
F0.151864
s(lp136
S'export'
p137
atp138
a(S'a'
p139
(dp140
S'VERB'
p141
F1.0
s(lp142
tp143
a(S'tr\xc3\xa8s'
p144
(dp145
S'ADV'
p146
F1.0
s(lp147
S'quite'
p148
atp149
a(S'bien'
p150
(dp151
S'ADV'
p152
F0.996052
sS'NOUN'
p153
F0.000274
sS'ADJ'
p154
F0.003675
s(lp155
S'rightly'
p156
atp157
a(S'rappel\xc3\xa9'
p158
(dp159
S'VERB'
p160
F1.0
s(lp161
S'mentions'
p162
atp163
a(S'la'
p164
(dp165
S'PRON'
p166
F0.002151
sS'DET'
p167
F0.997848
sS'NOUN'
p168
F1e-06
s(lp169
S'the'
p170
atp171
a(S'rapporteure'
p172
(dp173
S'ADJ'
p174
F0.079281
sS'VERB'
p175
F0.0022119999999999996
sS'NOUN'
p176
F0.918506
s(lp177
S'rapporteur'
p178
atp179
a(g80
(dp180
g80
F1.0
s(lp181
g80
atp182
asS'en'
p183
(lp184
(g26
(dp185
S'ADV'
p186
F1.0
s(lp187
g26
atp188
a(g120
(dp189
g80
F1.0
s(lp190
g120
atp191
a(g7
(dp192
S'PRON'
p193
F1.0
s(lp194
g7
atp195
a(S'does'
p196
(dp197
S'VERB'
p198
F0.999999
sS'NOUN'
p199
F1e-06
s(lp200
g196
atp201
a(g33
(dp202
S'ADV'
p203
F1.0
s(lp204
g33
atp205
a(g20
(dp206
S'VERB'
p207
F0.8918520000000001
sS'NOUN'
p208
F0.108148
s(lp209
g20
atp210
a(g39
(dp211
S'ADV'
p212
F2e-06
sS'PRT'
p213
F0.999995
sS'ADP'
p214
F3e-06
s(lp215
g39
atp216
a(g47
(dp217
S'NOUN'
p218
F1e-06
sS'DET'
p219
F0.999999
s(lp220
g47
atp221
a(g60
(dp222
S'NOUN'
p223
F0.10881199999999999
sS'VERB'
p224
F1.1e-05
sS'ADJ'
p225
F0.891178
s(lp226
g60
atp227
a(g53
(dp228
S'NOUN'
p229
F1.0
s(lp230
g53
atp231
a(g66
(dp232
S'ADV'
p233
F0.0
sS'PRT'
p234
F0.999999
sS'ADP'
p235
F1e-06
s(lp236
g66
atp237
a(g137
(dp238
S'ADJ'
p239
F0.023518
sS'VERB'
p240
F0.924337
sS'NOUN'
p241
F0.052145
s(lp242
g137
atp243
a(S'so-called'
p244
(dp245
S'ADJ'
p246
F0.216567
sS'NOUN'
p247
F0.783433
s(lp248
g244
atp249
a(g82
(dp250
S'PRT'
p251
F0.783504
sg80
F0.216496
s(lp252
g82
atp253
a(g90
(dp254
S'ADV'
p255
F0.000238
sS'NOUN'
p256
F0.010865
sS'ADJ'
p257
F0.988897
s(lp258
g90
atp259
a(g96
(dp260
S'NOUN'
p261
F1.0
s(lp262
g96
atp263
a(g103
(dp264
S'ADV'
p265
F0.000102
sS'PRT'
p266
F0.000193
sS'ADP'
p267
F0.999705
s(lp268
g103
atp269
a(g115
(dp270
S'VERB'
p271
F1.4e-05
sS'NOUN'
p272
F0.999985
s(lp273
g115
atp274
a(g109
(dp275
S'VERB'
p276
F0.001738
sS'NOUN'
p277
F0.998262
s(lp278
g109
atp279
a(g82
(dp280
S'PRT'
p281
F0.845168
sg80
F0.154832
s(lp282
g82
atp283
a(g120
(dp284
g80
F1.0
s(lp285
g120
atp286
a(g129
(dp287
S'ADV'
p288
F0.10247
sS'ADP'
p289
F0.89753
s(lp290
g129
atp291
a(g170
(dp292
S'NOUN'
p293
F1e-06
sS'DET'
p294
F0.999999
s(lp295
g170
atp296
a(g178
(dp297
S'NOUN'
p298
F1.0
s(lp299
g178
atp300
a(g148
(dp301
S'ADV'
p302
F0.999903
sS'DET'
p303
F9.7e-05
s(lp304
g148
atp305
a(g156
(dp306
S'ADV'
p307
F1.0
s(lp308
g156
atp309
a(g162
(dp310
S'VERB'
p311
F0.876153
sS'NOUN'
p312
F0.123847
s(lp313
g162
atp314
a(g80
(dp315
g80
F1.0
s(lp316
g80
atp317
asS'nl'
p318
(lp319
(S'bij'
p320
(dp321
S'ADV'
p322
F0.013085
sS'ADJ'
p323
F0.0
sS'NOUN'
p324
F0.0
sS'ADP'
p325
F0.986915
s(lp326
g26
atp327
a(S'het'
p328
(dp329
S'PRON'
p330
F0.020525
sS'DET'
p331
F0.979475
s(lp332
g47
atp333
a(S'vastleggen'
p334
(dp335
S'VERB'
p336
F0.019611999999999997
sS'NOUN'
p337
F0.980388
s(lp338
g162
atp339
a(S'van'
p340
(dp341
S'ADP'
p342
F1.0
s(lp343
tp344
a(S'dat'
p345
(dp346
S'PRON'
p347
F0.980584
sS'CONJ'
p348
F0.019416
s(lp349
tp350
a(S'beleid'
p351
(dp352
S'NOUN'
p353
F1.0
s(lp354
g162
atp355
a(S'spelen'
p356
(dp357
S'VERB'
p358
F0.996964
sS'NOUN'
p359
F0.0030369999999999998
s(lp360
g162
atp361
a(S'voor'
p362
(dp363
S'ADV'
p364
F0.002079
sS'CONJ'
p365
F3.1e-05
sS'NOUN'
p366
F0.0
sS'ADP'
p367
F0.99789
s(lp368
g39
atp369
a(S'de'
p370
(dp371
S'DET'
p372
F1.0
s(lp373
tp374
a(S'hand'
p375
(dp376
S'NOUN'
p377
F1.0
s(lp378
tp379
a(S'liggende'
p380
(dp381
S'NOUN'
p382
F1e-06
sS'VERB'
p383
F0.827524
sS'ADJ'
p384
F0.172476
s(lp385
g162
atp386
a(S'criteria'
p387
(dp388
S'NOUN'
p389
F1.0
s(lp390
g162
atp391
a(S'en'
p392
(dp393
S'CONJ'
p394
F1.0
s(lp395
tp396
a(S'politieke'
p397
(dp398
S'NOUN'
p399
F0.006247
sS'ADJ'
p400
F0.993753
s(lp401
g162
atp402
a(S'oordelen'
p403
(dp404
S'VERB'
p405
F0.805535
sS'NOUN'
p406
F0.194466
s(lp407
g162
atp408
a(S'een'
p409
(dp410
S'ADJ'
p411
F1.1e-05
sS'PRON'
p412
F0.000389
sS'NUM'
p413
F1e-06
sS'DET'
p414
F0.999599
s(lp415
tp416
a(S'rol'
p417
(dp418
S'VERB'
p419
F3.8e-05
sS'NOUN'
p420
F0.999962
s(lp421
tp422
a(g80
(dp423
g80
F1.0
s(lp424
g120
atp425
a(S'zoals'
p426
(dp427
S'CONJ'
p428
F1.0
s(lp429
g129
atp430
a(S'de'
p431
(dp432
S'DET'
p433
F1.0
s(lp434
g170
atp435
a(S'rapporteur'
p436
(dp437
S'NOUN'
p438
F1.0
s(lp439
g178
atp440
a(S'heel'
p441
(dp442
S'ADV'
p443
F0.875798
sS'VERB'
p444
F0.001167
sS'ADJ'
p445
F0.123035
s(lp446
g148
atp447
a(S'terecht'
p448
(dp449
S'ADV'
p450
F0.012951
sS'ADJ'
p451
F0.987049
s(lp452
g156
atp453
a(S'stelt'
p454
(dp455
S'VERB'
p456
F0.996327
sS'NOUN'
p457
F0.003673
s(lp458
g162
atp459
a(g120
(dp460
g80
F1.0
s(lp461
g120
atp462
a(S'is'
p463
(dp464
S'VERB'
p465
F1.0
s(lp466
g196
atp467
a(S'het'
p468
(dp469
S'PRON'
p470
F0.909092
sS'DET'
p471
F0.090908
s(lp472
g7
atp473
a(S'geen'
p474
(dp475
S'PRON'
p476
F0.999984
sS'DET'
p477
F1.6e-05
s(lp478
g33
atp479
a(S'taak'
p480
(dp481
S'NOUN'
p482
F1.0
s(lp483
g20
atp484
a(S'van'
p485
(dp486
S'ADP'
p487
F1.0
s(lp488
tp489
a(S'de'
p490
(dp491
S'DET'
p492
F1.0
s(lp493
g60
atp494
a(S'commissie'
p495
(dp496
S'NOUN'
p497
F1.0
s(lp498
g53
atp499
a(S'het'
p500
(dp501
S'PRON'
p502
F0.004702
sS'DET'
p503
F0.995298
s(lp504
g47
atp505
a(S'zogenaamde'
p506
(dp507
S'NOUN'
p508
F0.03191
sS'ADJ'
p509
F0.96809
s(lp510
g244
atp511
a(g78
(dp512
g80
F1.0
s(lp513
g82
atp514
a(S'goed'
p515
(dp516
S'ADV'
p517
F0.004959
sS'NOUN'
p518
F0.098123
sS'ADJ'
p519
F0.896918
s(lp520
g90
atp521
a(S'bestuur'
p522
(dp523
S'VERB'
p524
F0.00286
sS'NOUN'
p525
F0.99714
s(lp526
g96
atp527
a(S'in'
p528
(dp529
S'ADV'
p530
F0.004986
sS'VERB'
p531
F0.0
sS'ADP'
p532
F0.995014
s(lp533
g103
atp534
a(S'belastingaangelegenheden'
p535
(dp536
S'NOUN'
p537
F1.0
s(lp538
g115
atp539
a(S'\xe2\x80\x9d'
p540
(dp541
S'ADJ'
p542
F0.244415
sS'NOUN'
p543
F0.7555850000000001
s(lp544
g82
atp545
a(S'te'
p546
(dp547
S'PRT'
p548
F1.0
s(lp549
g66
atp550
a(S'exporteren'
p551
(dp552
S'VERB'
p553
F0.9999990000000001
sS'NOUN'
p554
F1e-06
s(lp555
g137
atp556
a(g80
(dp557
g80
F1.0
s(lp558
g80
atp559
asS'de'
p560
(lp561
(S'daher'
p562
(dp563
S'ADV'
p564
F0.9999979999999999
s(lp565
g26
atp566
a(S'steht'
p567
(dp568
S'VERB'
p569
F1.0
s(lp570
g196
atp571
a(S'es'
p572
(dp573
S'PRON'
p574
F1.0
s(lp575
g7
atp576
a(S'der'
p577
(dp578
S'PRON'
p579
F0.000667
sS'DET'
p580
F0.998895
s(lp581
g47
atp582
a(S'europ\xc3\xa4ischen'
p583
(dp584
S'ADJ'
p585
F1.0
s(lp586
g60
atp587
a(S'union'
p588
(dp589
S'ADJ'
p590
F0.013819
sS'NOUN'
p591
F0.978903
s(lp592
g53
atp593
a(S'nicht'
p594
(dp595
S'PRT'
p596
F1.0
s(lp597
g33
atp598
a(S'zu'
p599
(dp600
S'PRT'
p601
F0.9970129999999999
s(lp602
g39
atp603
a(g120
(dp604
g80
F1.0
s(lp605
tp606
a(S'sogenanntes'
p607
(dp608
S'ADJ'
p609
F1.0
s(lp610
g244
atp611
a(g78
(dp612
g80
F1.0
s(lp613
g82
atp614
a(S'verantwortungsvolles'
p615
(dp616
S'ADJ'
p617
F1.0
s(lp618
tp619
a(S'handeln'
p620
(dp621
S'VERB'
p622
F1.0
s(lp623
g96
atp624
a(S'im'
p625
(dp626
S'ADP'
p627
F1.0
s(lp628
g103
atp629
a(S'steuerbereich'
p630
(dp631
S'ADJ'
p632
F0.340515
sS'NOUN'
p633
F0.514316
s(lp634
g115
atp635
a(g78
(dp636
g80
F1.0
s(lp637
g82
atp638
a(S'zu'
p639
(dp640
S'ADV'
p641
F0.001377
sS'PRT'
p642
F0.99812
s(lp643
g66
atp644
a(S'exportieren'
p645
(dp646
S'VERB'
p647
F1.0
s(lp648
g137
atp649
a(g120
(dp650
g80
F1.0
s(lp651
g120
atp652
a(S'wie'
p653
(dp654
S'CONJ'
p655
F0.9994810000000001
s(lp656
g129
atp657
a(S'die'
p658
(dp659
S'PRON'
p660
F0.000893
sS'DET'
p661
F0.998984
s(lp662
g170
atp663
a(S'berichterstatterin'
p664
(dp665
S'ADJ'
p666
F0.000195
sS'NOUN'
p667
F0.999565
s(lp668
g178
atp669
a(S'sehr'
p670
(dp671
S'ADV'
p672
F1.0
s(lp673
g148
atp674
a(S'richtig'
p675
(dp676
S'PRT'
p677
F6.6e-05
sS'ADJ'
p678
F0.999934
s(lp679
g156
atp680
a(S'erw\xc3\xa4hnt'
p681
(dp682
S'VERB'
p683
F0.988366
s(lp684
g162
atp685
a(g80
(dp686
g80
F1.0
s(lp687
g80
atp688
asS'it'
p689
(lp690
(S'non'
p691
(dp692
S'ADV'
p693
F1.0
s(lp694
g33
atp695
a(S'spetta'
p696
(dp697
S'VERB'
p698
F1.0
s(lp699
g20
atp700
a(S'pertanto'
p701
(dp702
S'ADV'
p703
F1.0
s(lp704
g26
atp705
a(S"all'"
p706
(dp707
S'ADJ'
p708
F0.040775
sS'VERB'
p709
F0.04232400000000001
sS'NOUN'
p710
F0.916901
s(lp711
tp712
a(S'unione'
p713
(dp714
S'NOUN'
p715
F1.0
s(lp716
g53
atp717
a(S'europea'
p718
(dp719
S'NOUN'
p720
F0.009248
sS'ADJ'
p721
F0.990752
s(lp722
g60
atp723
a(S'esportare'
p724
(dp725
S'VERB'
p726
F1.0
s(lp727
g137
atp728
a(S'il'
p729
(dp730
S'DET'
p731
F1.0
s(lp732
g47
atp733
a(S'cosiddetto'
p734
(dp735
S'ADJ'
p736
F1.0
s(lp737
g244
atp738
a(S'buon'
p739
(dp740
S'ADJ'
p741
F1.0
s(lp742
g90
atp743
a(S'governo'
p744
(dp745
S'VERB'
p746
F0.002898
sS'NOUN'
p747
F0.997102
s(lp748
g96
atp749
a(S'in'
p750
(dp751
S'ADP'
p752
F1.0
s(lp753
g103
atp754
a(S'campo'
p755
(dp756
S'VERB'
p757
F5.3e-05
sS'NOUN'
p758
F0.999947
s(lp759
g109
atp760
a(S'fiscale'
p761
(dp762
S'NOUN'
p763
F0.000703
sS'ADJ'
p764
F0.999297
s(lp765
g115
atp766
a(g120
(dp767
g80
F1.0
s(lp768
g120
atp769
a(S'come'
p770
(dp771
S'PRON'
p772
F0.007104
sS'CONJ'
p773
F0.739831
sS'NOUN'
p774
F5.3e-05
sS'ADP'
p775
F0.253012
s(lp776
g129
atp777
a(S'la'
p778
(dp779
S'PRON'
p780
F0.000402
sS'DET'
p781
F0.999598
s(lp782
g170
atp783
a(S'relatrice'
p784
(dp785
S'NOUN'
p786
F1.0
s(lp787
g178
atp788
a(S'giustamente'
p789
(dp790
S'ADV'
p791
F1.0
s(lp792
g156
atp793
a(S'sostiene'
p794
(dp795
S'VERB'
p796
F1.0
s(lp797
g162
atp798
a(g80
(dp799
g80
F1.0
s(lp800
g80
atp801
asS'sk'
p802
(lp803
(S'preto'
p804
(dp805
S'PRON'
p806
F0.576337
sS'CONJ'
p807
F0.369095
sS'X'
p808
F0.054569
s(lp809
g26
atp810
a(S'eur\xc3\xb3pskej'
p811
(dp812
S'ADJ'
p813
F1.0
s(lp814
g60
atp815
a(S'\xc3\xbanii'
p816
(dp817
S'NOUN'
p818
F1.0
s(lp819
g53
atp820
a(S'neprin\xc3\xa1le\xc5\xbe\xc3\xad'
p821
(dp822
S'VERB'
p823
F1.0
s(lp824
g20
atp825
a(S'exportova\xc5\xa5'
p826
(dp827
S'VERB'
p828
F1.0
s(lp829
g137
atp830
a(S'takzvan\xc3\xba'
p831
(dp832
S'ADJ'
p833
F1.0
s(lp834
g244
atp835
a(g78
(dp836
g80
F1.0
s(lp837
g82
atp838
a(S'dobr\xc3\xba'
p839
(dp840
S'ADJ'
p841
F1.0
s(lp842
g90
atp843
a(S'spr\xc3\xa1vu'
p844
(dp845
S'NOUN'
p846
F1.0
s(lp847
g96
atp848
a(S'v'
p849
(dp850
g808
F0.00022200000000000003
sS'ADP'
p851
F0.999777
s(lp852
g103
atp853
a(S'da\xc5\x88ovej'
p854
(dp855
S'ADJ'
p856
F1.0
s(lp857
g115
atp858
a(S'oblasti'
p859
(dp860
S'NOUN'
p861
F1.0
s(lp862
g109
atp863
a(g78
(dp864
g80
F1.0
s(lp865
g82
atp866
a(g120
(dp867
g80
F1.0
s(lp868
g120
atp869
a(S'ako'
p870
(dp871
S'PRON'
p872
F0.007857
sS'CONJ'
p873
F0.992059
sg808
F8.3e-05
s(lp874
g129
atp875
a(S'pani'
p876
(dp877
S'NOUN'
p878
F1.0
s(lp879
tp880
a(S'spravodajky\xc5\x88a'
p881
(dp882
S'NOUN'
p883
F1.0
s(lp884
g178
atp885
a(S'celkom'
p886
(dp887
S'ADV'
p888
F0.606526
sg808
F0.391392
sS'NOUN'
p889
F0.002082
s(lp890
g148
atp891
a(S'spr\xc3\xa1vne'
p892
(dp893
S'ADV'
p894
F0.971882
sg808
F0.010977
sS'ADJ'
p895
F0.017141
s(lp896
g156
atp897
a(S'uv\xc3\xa1dza'
p898
(dp899
S'VERB'
p900
F1.0
s(lp901
g162
atp902
a(g80
(dp903
g80
F1.0
s(lp904
g80
atp905
asS'pl'
p906
(lp907
(S'zatem'
p908
(dp909
S'CONJ'
p910
F1.0
s(lp911
g26
atp912
a(S'eksportowanie'
p913
(dp914
S'ADV'
p915
F0.737895
sS'ADJ'
p916
F0.008568
sS'VERB'
p917
F0.056298
sS'NOUN'
p918
F0.197239
s(lp919
g137
atp920
a(S'tak'
p921
(dp922
S'ADV'
p923
F0.994141
sS'NOUN'
p924
F0.000136
sS'PRT'
p925
F0.00483
sg808
F0.0
sS'CONJ'
p926
F0.000892
sS'ADJ'
p927
F1e-06
s(lp928
tp929
a(S'zwanych'
p930
(dp931
S'VERB'
p932
F1.000001
s(lp933
g244
atp934
a(S'dobrych'
p935
(dp936
S'NOUN'
p937
F0.00229
sS'ADJ'
p938
F0.9977100000000002
s(lp939
g90
atp940
a(S'rz\xc4\x85d\xc3\xb3w'
p941
(dp942
S'NOUN'
p943
F1.0
s(lp944
g96
atp945
a(S'w'
p946
(dp947
S'ADJ'
p948
F0.0
sg808
F0.0
sS'NOUN'
p949
F0.0
sS'ADP'
p950
F1.0
s(lp951
g103
atp952
a(S'dziedzinie'
p953
(dp954
S'NOUN'
p955
F1.0
s(lp956
g109
atp957
a(S'podatk\xc3\xb3w'
p958
(dp959
S'NOUN'
p960
F1.0
s(lp961
g115
atp962
a(S'nie'
p963
(dp964
S'ADV'
p965
F9e-06
sS'PRT'
p966
F0.995763
sS'CONJ'
p967
F0.004101
sS'NOUN'
p968
F4e-06
sS'PRON'
p969
F0.000122
s(lp970
g33
atp971
a(S'powinno'
p972
(dp973
S'VERB'
p974
F1.0
s(lp975
g7
atp976
a(S'by\xc4\x87'
p977
(dp978
S'VERB'
p979
F1.0
s(lp980
g20
atp981
a(S'zadaniem'
p982
(dp983
S'NOUN'
p984
F1.0
s(lp985
g162
atp986
a(S'unii'
p987
(dp988
S'NOUN'
p989
F1.0
s(lp990
g53
atp991
a(S'europejskiej'
p992
(dp993
S'ADJ'
p994
F1.0
s(lp995
g60
atp996
a(g120
(dp997
g808
F0.0
sg80
F1.0
s(lp998
g120
atp999
a(S'jak'
p1000
(dp1001
S'ADV'
p1002
F0.885242
sS'PRT'
p1003
F0.00094
sS'CONJ'
p1004
F0.089123
sS'ADP'
p1005
F0.024574
sS'PRON'
p1006
F0.000121
s(lp1007
g129
atp1008
a(S's\xc5\x82usznie'
p1009
(dp1010
S'ADV'
p1011
F1.0
s(lp1012
tp1013
a(S'zauwa\xc5\xbca'
p1014
(dp1015
S'VERB'
p1016
F1.0
s(lp1017
g156
atp1018
a(S'sprawozdawczyni'
p1019
(dp1020
S'ADV'
p1021
F0.005832
sS'ADJ'
p1022
F0.10931199999999999
sS'VERB'
p1023
F0.06771100000000001
sS'NOUN'
p1024
F0.817143
s(lp1025
g178
atp1026
a(g80
(dp1027
g80
F1.0
s(lp1028
g80
atp1029
asS'sl'
p1030
(lp1031
(S'zato'
p1032
(dp1033
S'ADV'
p1034
F0.721971
sS'CONJ'
p1035
F0.278029
s(lp1036
g26
atp1037
a(S'ni'
p1038
(dp1039
S'VERB'
p1040
F1.0
s(lp1041
g33
atp1042
a(g849
(dp1043
S'ADP'
p1044
F1.0
s(lp1045
g7
atp1046
a(S'pristojnosti'
p1047
(dp1048
S'NOUN'
p1049
F0.999999
s(lp1050
g20
atp1051
a(S'evropske'
p1052
(dp1053
S'ADJ'
p1054
F1.0
s(lp1055
g60
atp1056
a(S'unije'
p1057
(dp1058
S'NOUN'
p1059
F1.0
s(lp1060
g53
atp1061
a(g120
(dp1062
g80
F1.0
s(lp1063
tp1064
a(S'da'
p1065
(dp1066
S'PRT'
p1067
F0.000319
sS'CONJ'
p1068
F0.999647
sS'VERB'
p1069
F3.2e-05
sg808
F2e-06
s(lp1070
g66
atp1071
a(S'izva\xc5\xbea'
p1072
(dp1073
S'VERB'
p1074
F1.0
s(lp1075
g137
atp1076
a(S'tako'
p1077
(dp1078
S'ADV'
p1079
F0.984482
sS'PRON'
p1080
F0.005959000000000001
sS'CONJ'
p1081
F0.009559
s(lp1082
tp1083
a(S'imenovano'
p1084
(dp1085
S'ADJ'
p1086
F1.0
s(lp1087
g244
atp1088
a(g78
(dp1089
g80
F1.0
s(lp1090
g82
atp1091
a(S'dobro'
p1092
(dp1093
S'ADV'
p1094
F0.029287
sg808
F0.002057
sS'ADJ'
p1095
F0.966918
sS'NOUN'
p1096
F0.0017369999999999998
s(lp1097
g90
atp1098
a(S'upravljanje'
p1099
(dp1100
S'NOUN'
p1101
F1.0
s(lp1102
g96
atp1103
a(g849
(dp1104
S'ADP'
p1105
F1.0
s(lp1106
g103
atp1107
a(S'dav\xc4\x8dnih'
p1108
(dp1109
S'ADJ'
p1110
F1.0
s(lp1111
g115
atp1112
a(S'zadevah'
p1113
(dp1114
S'NOUN'
p1115
F1.0
s(lp1116
g109
atp1117
a(g78
(dp1118
g80
F1.0
s(lp1119
g82
atp1120
a(g120
(dp1121
g80
F1.0
s(lp1122
g120
atp1123
a(S'kot'
p1124
(dp1125
S'CONJ'
p1126
F0.999945
sS'NOUN'
p1127
F5.4999999999999995e-05
s(lp1128
g129
atp1129
a(S'povsem'
p1130
(dp1131
S'ADV'
p1132
F1.0
s(lp1133
g148
atp1134
a(S'pravilno'
p1135
(dp1136
S'ADV'
p1137
F0.996286
sS'ADJ'
p1138
F0.0037140000000000003
s(lp1139
g156
atp1140
a(S'omenja'
p1141
(dp1142
S'VERB'
p1143
F1.0
s(lp1144
g162
atp1145
a(S'poro\xc4\x8devalka'
p1146
(dp1147
S'NOUN'
p1148
F1.0
s(lp1149
g178
atp1150
a(g80
(dp1151
g80
F1.0
s(lp1152
g80
atp1153
asS'es'
p1154
(lp1155
(S'por'
p1156
(dp1157
S'CONJ'
p1158
F1.0
s(lp1159
g26
atp1160
a(S'lo'
p1161
(dp1162
S'CONJ'
p1163
F1.0
s(lp1164
tp1165
a(S'tanto'
p1166
(dp1167
S'CONJ'
p1168
F1.0
s(lp1169
g26
atp1170
a(g120
(dp1171
g80
F1.0
s(lp1172
g120
atp1173
a(S'no'
p1174
(dp1175
S'ADV'
p1176
F0.999956
sg808
F4.4e-05
s(lp1177
g33
atp1178
a(S'compete'
p1179
(dp1180
S'VERB'
p1181
F1.0
s(lp1182
g20
atp1183
a(g139
(dp1184
g808
F6.3e-05
sS'CONJ'
p1185
F4e-06
sS'ADP'
p1186
F0.999933
s(lp1187
g39
atp1188
a(S'la'
p1189
(dp1190
g808
F0.0
sS'PRON'
p1191
F0.0
sS'DET'
p1192
F0.999999
sS'NOUN'
p1193
F0.0
s(lp1194
g47
atp1195
a(S'uni\xc3\xb3n'
p1196
(dp1197
S'NOUN'
p1198
F1.0
s(lp1199
g53
atp1200
a(S'europea'
p1201
(dp1202
S'ADJ'
p1203
F1.0
s(lp1204
g60
atp1205
a(S'exportar'
p1206
(dp1207
S'VERB'
p1208
F1.0
s(lp1209
tp1210
a(S'la'
p1211
(dp1212
S'PRON'
p1213
F0.000562
sS'DET'
p1214
F0.999346
sg808
F0.0
sS'NOUN'
p1215
F9.2e-05
s(lp1216
g137
atp1217
a(S'denominada'
p1218
(dp1219
S'VERB'
p1220
F1.0
s(lp1221
g244
atp1222
a(g78
(dp1223
g80
F1.0
s(lp1224
g82
atp1225
a(S'buena'
p1226
(dp1227
S'ADJ'
p1228
F1.0
s(lp1229
g90
atp1230
a(S'gobernanza'
p1231
(dp1232
S'VERB'
p1233
F0.001191
sS'NOUN'
p1234
F0.998809
s(lp1235
g96
atp1236
a(S'en'
p1237
(dp1238
g808
F1.8e-05
sS'CONJ'
p1239
F1e-05
sS'ADP'
p1240
F0.999972
s(lp1241
g103
atp1242
a(S'asuntos'
p1243
(dp1244
S'NOUN'
p1245
F1.0
s(lp1246
g109
atp1247
a(S'fiscales'
p1248
(dp1249
S'NOUN'
p1250
F0.036538
sS'ADJ'
p1251
F0.963462
s(lp1252
g115
atp1253
a(g78
(dp1254
g80
F1.0
s(lp1255
g82
atp1256
a(g120
(dp1257
g80
F1.0
s(lp1258
g120
atp1259
a(S'como'
p1260
(dp1261
S'ADV'
p1262
F0.286909
sS'CONJ'
p1263
F0.7130909999999999
s(lp1264
g129
atp1265
a(S'bien'
p1266
(dp1267
S'ADV'
p1268
F0.999024
sS'NOUN'
p1269
F0.000976
s(lp1270
g156
atp1271
a(S'menciona'
p1272
(dp1273
S'VERB'
p1274
F1.0
s(lp1275
g162
atp1276
a(S'la'
p1277
(dp1278
g808
F0.0
sS'PRON'
p1279
F0.0
sS'DET'
p1280
F1.0
sS'NOUN'
p1281
F0.0
s(lp1282
g170
atp1283
a(S'ponente'
p1284
(dp1285
S'NOUN'
p1286
F1.0
s(lp1287
g178
atp1288
a(S'de'
p1289
(dp1290
g808
F0.000148
sS'CONJ'
p1291
F0.000489
sS'ADP'
p1292
F0.999363
s(lp1293
tp1294
a(S'forma'
p1295
(dp1296
S'VERB'
p1297
F0.006536
sS'NOUN'
p1298
F0.993464
s(lp1299
tp1300
a(S'bastante'
p1301
(dp1302
S'ADV'
p1303
F0.73777
sS'ADJ'
p1304
F0.26223
s(lp1305
g148
atp1306
a(S'acertada'
p1307
(dp1308
S'VERB'
p1309
F1.0
s(lp1310
g156
atp1311
a(g80
(dp1312
g80
F1.0
s(lp1313
g80
atp1314
as.