(dp0
S'fr'
p1
(lp2
(S'la'
p3
(dp4
S'PRON'
p5
F8.2e-05
sS'DET'
p6
F0.999918
sS'NOUN'
p7
F0.0
s(lp8
tp9
a(S'diversit\xc3\xa9'
p10
(dp11
S'NOUN'
p12
F1.0
s(lp13
S'diversity'
p14
atp15
a(S'est'
p16
(dp17
S'VERB'
p18
F0.999043
sS'NOUN'
p19
F0.000957
s(lp20
S'is'
p21
atp22
a(S'essentielle'
p23
(dp24
S'ADJ'
p25
F1.0
s(lp26
S'key'
p27
atp28
a(S'dans'
p29
(dp30
S'NOUN'
p31
F0.001714
sS'ADP'
p32
F0.998286
s(lp33
S'in'
p34
atp35
a(S"l'"
p36
(dp37
S'ADJ'
p38
F0.160898
sS'VERB'
p39
F0.065885
sS'NOUN'
p40
F0.773216
s(lp41
S'the'
p42
atp43
a(S'union'
p44
(dp45
S'NOUN'
p46
F1.0
s(lp47
tp48
a(S'europ\xc3\xa9enne'
p49
(dp50
S'NOUN'
p51
F0.009609
sS'ADJ'
p52
F0.990391
s(lp53
S'eu'
p54
atp55
a(S'et'
p56
(dp57
S'CONJ'
p58
F1.0
s(lp59
S'and'
p60
atp61
a(S'elle'
p62
(dp63
S'PRON'
p64
F1.0
s(lp65
S'it'
p66
atp67
a(S"s'"
p68
(dp69
S'ADJ'
p70
F0.000625
sS'VERB'
p71
F0.9973000000000002
sS'NOUN'
p72
F0.002077
s(lp73
tp74
a(S'applique'
p75
(dp76
S'VERB'
p77
F0.9724280000000001
sS'NOUN'
p78
F0.027572
s(lp79
S'applies'
p80
atp81
a(S'aussi'
p82
(dp83
S'ADV'
p84
F0.999314
sS'CONJ'
p85
F0.000686
s(lp86
S'also'
p87
atp88
a(S'\xc3\xa0'
p89
(dp90
S'ADP'
p91
F1.0
s(lp92
S'to'
p93
atp94
a(S'la'
p95
(dp96
S'PRON'
p97
F1.2e-05
sS'DET'
p98
F0.999988
sS'NOUN'
p99
F0.0
s(lp100
S'diversity'
p101
atp102
a(S'r\xc3\xa9alit\xc3\xa9'
p103
(dp104
S'NOUN'
p105
F1.0
s(lp106
S'reality'
p107
atp108
a(S'd\xc3\xa9mographique'
p109
(dp110
S'ADJ'
p111
F1.0
s(lp112
S'demographic'
p113
atp114
a(S'.'
p115
(dp116
g115
F1.0
s(lp117
S','
p118
atp119
a(S'et'
p120
(dp121
S'CONJ'
p122
F1.0
s(lp123
S'and'
p124
atp125
a(S'nous'
p126
(dp127
S'PRON'
p128
F1.0
s(lp129
S'we'
p130
atp131
a(S'devons'
p132
(dp133
S'VERB'
p134
F0.999778
sS'NOUN'
p135
F0.000222
s(lp136
S'have'
p137
atp138
a(S"l'"
p139
(dp140
S'NOUN'
p141
F0.087873
sS'VERB'
p142
F0.7995450000000001
sS'ADJ'
p143
F0.112581
s(lp144
S'the'
p145
atp146
a(S'\xc3\xa9tudier'
p147
(dp148
S'VERB'
p149
F1.0
s(lp150
S'study'
p151
atp152
a(S'en'
p153
(dp154
S'PRON'
p155
F0.000572
sS'ADP'
p156
F0.999428
s(lp157
S'that'
p158
atp159
a(S'profondeur'
p160
(dp161
S'NOUN'
p162
F1.0
s(lp163
S'deeply'
p164
atp165
a(S"aujourd'"
p166
(dp167
S'NOUN'
p168
F0.049041
sS'VERB'
p169
F0.08583700000000001
sS'ADJ'
p170
F0.865121
s(lp171
tp172
a(S'hui'
p173
(dp174
S'ADJ'
p175
F0.023561
sS'VERB'
p176
F0.6555310000000001
sS'NOUN'
p177
F0.320907
s(lp178
S'now'
p179
atp180
a(S'plus'
p181
(dp182
S'ADV'
p183
F0.999757
sS'VERB'
p184
F0.00024400000000000002
s(lp185
S'more'
p186
atp187
a(S'que'
p188
(dp189
S'ADV'
p190
F0.110484
sS'PRON'
p191
F0.01741
sS'CONJ'
p192
F0.872106
s(lp193
S'than'
p194
atp195
a(S'jamais'
p196
(dp197
S'ADV'
p198
F1.0
s(lp199
S'before'
p200
atp201
a(g115
(dp202
g115
F1.0
s(lp203
g115
atp204
asS'en'
p205
(lp206
(g14
(dp207
S'NOUN'
p208
F1.0
s(lp209
g14
atp210
a(g21
(dp211
S'VERB'
p212
F1.0
s(lp213
g21
atp214
a(g27
(dp215
S'NOUN'
p216
F0.105068
sS'VERB'
p217
F0.00044
sS'ADJ'
p218
F0.894493
s(lp219
g27
atp220
a(g34
(dp221
S'ADV'
p222
F0.000222
sS'PRT'
p223
F0.000229
sS'ADP'
p224
F0.999549
s(lp225
g34
atp226
a(g42
(dp227
S'NOUN'
p228
F7e-06
sS'DET'
p229
F0.999993
s(lp230
g42
atp231
a(g54
(dp232
S'ADV'
p233
F2.3e-05
sS'ADJ'
p234
F0.001935
sS'VERB'
p235
F0.000194
sS'NOUN'
p236
F0.9978480000000001
s(lp237
g54
atp238
a(g60
(dp239
S'CONJ'
p240
F0.999998
sS'NOUN'
p241
F2e-06
s(lp242
g60
atp243
a(g66
(dp244
S'PRON'
p245
F1.0
s(lp246
g66
atp247
a(g87
(dp248
S'ADV'
p249
F1.0
s(lp250
g87
atp251
a(g80
(dp252
S'VERB'
p253
F1.0
s(lp254
g80
atp255
a(g93
(dp256
S'ADV'
p257
F1e-06
sS'PRT'
p258
F0.999996
sS'ADP'
p259
F3e-06
s(lp260
g93
atp261
a(g101
(dp262
S'NOUN'
p263
F1.0
s(lp264
g101
atp265
a(S'of'
p266
(dp267
S'ADP'
p268
F1.0
s(lp269
g266
atp270
a(g145
(dp271
S'NOUN'
p272
F1e-06
sS'DET'
p273
F0.999999
s(lp274
g145
atp275
a(g113
(dp276
S'ADJ'
p277
F1.0
s(lp278
g113
atp279
a(g107
(dp280
S'NOUN'
p281
F1.0
s(lp282
g107
atp283
a(g118
(dp284
g115
F1.0
s(lp285
g118
atp286
a(g124
(dp287
S'CONJ'
p288
F0.999998
sS'NOUN'
p289
F2e-06
s(lp290
g124
atp291
a(g130
(dp292
S'PRON'
p293
F1.0
s(lp294
g130
atp295
a(g137
(dp296
S'VERB'
p297
F1.0
s(lp298
g137
atp299
a(S'to'
p300
(dp301
S'ADV'
p302
F1e-06
sS'PRT'
p303
F0.999999
sS'ADP'
p304
F0.0
s(lp305
g300
atp306
a(g151
(dp307
S'VERB'
p308
F0.987537
sS'NOUN'
p309
F0.012463
s(lp310
g151
atp311
a(g158
(dp312
S'ADV'
p313
F0.002402
sS'DET'
p314
F0.345573
sS'ADP'
p315
F0.652025
s(lp316
g158
atp317
a(g186
(dp318
S'ADV'
p319
F0.909671
sS'ADJ'
p320
F0.090329
s(lp321
g186
atp322
a(g164
(dp323
S'ADV'
p324
F1.0
s(lp325
g164
atp326
a(g179
(dp327
S'ADV'
p328
F0.999937
sS'NOUN'
p329
F2e-06
sS'ADP'
p330
F6.2e-05
s(lp331
g179
atp332
a(g194
(dp333
S'ADP'
p334
F1.0
s(lp335
g194
atp336
a(g200
(dp337
S'ADV'
p338
F0.349902
sS'ADP'
p339
F0.650098
s(lp340
g200
atp341
a(g115
(dp342
g115
F1.0
s(lp343
g115
atp344
asS'nl'
p345
(lp346
(S'diversiteit'
p347
(dp348
S'NOUN'
p349
F1.0
s(lp350
g14
atp351
a(S'is'
p352
(dp353
S'VERB'
p354
F1.0
s(lp355
g21
atp356
a(S'een'
p357
(dp358
S'ADJ'
p359
F2e-06
sS'PRON'
p360
F3.6e-05
sS'NUM'
p361
F1e-06
sS'DET'
p362
F0.999962
s(lp363
tp364
a(S'belangrijk'
p365
(dp366
S'ADJ'
p367
F1.0
s(lp368
tp369
a(S'aspect'
p370
(dp371
S'NOUN'
p372
F1.0
s(lp373
g27
atp374
a(S'van'
p375
(dp376
S'ADP'
p377
F1.0
s(lp378
g34
atp379
a(S'de'
p380
(dp381
S'DET'
p382
F1.0
s(lp383
g42
atp384
a(S'eu'
p385
(dp386
S'NOUN'
p387
F1.0
s(lp388
g54
atp389
a(g118
(dp390
g115
F1.0
s(lp391
tp392
a(S'en'
p393
(dp394
S'CONJ'
p395
F1.0
s(lp396
g60
atp397
a(S'dat'
p398
(dp399
S'PRON'
p400
F0.877262
sS'CONJ'
p401
F0.122738
s(lp402
g66
atp403
a(S'geldt'
p404
(dp405
S'VERB'
p406
F1.0
s(lp407
tp408
a(S'ook'
p409
(dp410
S'ADV'
p411
F1.0
s(lp412
g87
atp413
a(S'voor'
p414
(dp415
S'ADV'
p416
F0.007758
sS'CONJ'
p417
F2.2e-05
sS'NOUN'
p418
F0.0
sS'ADP'
p419
F0.992219
s(lp420
g80
atp421
a(S'de'
p422
(dp423
S'DET'
p424
F1.0
s(lp425
tp426
a(S'diversiteit'
p427
(dp428
S'NOUN'
p429
F1.0
s(lp430
g101
atp431
a(S'van'
p432
(dp433
S'ADP'
p434
F1.0
s(lp435
g266
atp436
a(S'de'
p437
(dp438
S'DET'
p439
F1.0
s(lp440
g145
atp441
a(S'demografische'
p442
(dp443
S'NOUN'
p444
F0.006177
sS'ADJ'
p445
F0.993823
s(lp446
g113
atp447
a(S'realiteit'
p448
(dp449
S'NOUN'
p450
F1.0
s(lp451
g107
atp452
a(S';'
p453
(dp454
g115
F1.0
s(lp455
g124
atp456
a(S'we'
p457
(dp458
S'PRON'
p459
F1.0
s(lp460
g130
atp461
a(S'moeten'
p462
(dp463
S'VERB'
p464
F0.999999
sS'NOUN'
p465
F2e-06
s(lp466
g137
atp467
a(S'deze'
p468
(dp469
S'PRON'
p470
F1.0
s(lp471
g158
atp472
a(S'nu'
p473
(dp474
S'ADV'
p475
F0.843608
sS'CONJ'
p476
F0.153679
sS'NOUN'
p477
F0.002712
s(lp478
g179
atp479
a(S'diepgaander'
p480
(dp481
S'NOUN'
p482
F0.441727
sS'ADJ'
p483
F0.558273
s(lp484
g164
atp485
a(S'onderzoeken'
p486
(dp487
S'VERB'
p488
F0.640618
sS'NOUN'
p489
F0.35938200000000003
s(lp490
g151
atp491
a(S'dan'
p492
(dp493
S'ADV'
p494
F0.435976
sS'CONJ'
p495
F0.564024
s(lp496
g194
atp497
a(S'voorheen'
p498
(dp499
S'ADV'
p500
F1.0
s(lp501
g200
atp502
a(g115
(dp503
g115
F1.0
s(lp504
g115
atp505
asS'de'
p506
(lp507
(S'in'
p508
(dp509
S'ADP'
p510
F1.0
s(lp511
g34
atp512
a(S'der'
p513
(dp514
S'PRON'
p515
F0.000588
sS'DET'
p516
F0.999327
s(lp517
g42
atp518
a(S'eu'
p519
(dp520
S'NOUN'
p521
F0.385129
sS'ADJ'
p522
F0.4491
s(lp523
tp524
a(S'ist'
p525
(dp526
S'VERB'
p527
F1.0
s(lp528
g21
atp529
a(S'vielfalt'
p530
(dp531
S'NOUN'
p532
F0.304861
sS'ADJ'
p533
F0.385867
s(lp534
g14
atp535
a(S'der'
p536
(dp537
S'PRON'
p538
F0.028938
sS'DET'
p539
F0.968712
s(lp540
g54
atp541
a(S'schl\xc3\xbcssel'
p542
(dp543
S'VERB'
p544
F1.0
s(lp545
g27
atp546
a(g118
(dp547
g115
F1.0
s(lp548
tp549
a(S'und'
p550
(dp551
S'CONJ'
p552
F1.0
s(lp553
g60
atp554
a(S'dies'
p555
(dp556
S'PRON'
p557
F1.0
s(lp558
g66
atp559
a(S'trifft'
p560
(dp561
S'VERB'
p562
F1.0
s(lp563
g80
atp564
a(S'auch'
p565
(dp566
S'ADV'
p567
F1.0
s(lp568
g87
atp569
a(S'auf'
p570
(dp571
S'PRT'
p572
F0.000599
sS'ADP'
p573
F0.999364
s(lp574
tp575
a(S'die'
p576
(dp577
S'PRON'
p578
F0.000119
sS'DET'
p579
F0.999836
s(lp580
g145
atp581
a(S'vielfalt'
p582
(dp583
S'ADJ'
p584
F0.013922
sS'NOUN'
p585
F0.975013
s(lp586
g101
atp587
a(S'der'
p588
(dp589
S'PRON'
p590
F8.9e-05
sS'DET'
p591
F0.999885
s(lp592
g266
atp593
a(S'demografischen'
p594
(dp595
S'ADJ'
p596
F1.0
s(lp597
g113
atp598
a(S'realit\xc3\xa4t'
p599
(dp600
S'ADJ'
p601
F1.9e-05
sS'NOUN'
p602
F0.999965
s(lp603
g107
atp604
a(S'zu'
p605
(dp606
S'ADV'
p607
F0.000973
sS'PRT'
p608
F0.998297
s(lp609
g93
atp610
a(g118
(dp611
g115
F1.0
s(lp612
g118
atp613
a(S'und'
p614
(dp615
S'CONJ'
p616
F1.0
s(lp617
g124
atp618
a(S'wir'
p619
(dp620
S'PRON'
p621
F1.0
s(lp622
g130
atp623
a(S'm\xc3\xbcssen'
p624
(dp625
S'VERB'
p626
F0.998736
s(lp627
g137
atp628
a(S'dies'
p629
(dp630
S'PRON'
p631
F1.0
s(lp632
g158
atp633
a(S'genauer'
p634
(dp635
S'ADJ'
p636
F1.0
s(lp637
g186
atp638
a(S'untersuchen'
p639
(dp640
S'VERB'
p641
F1.0
s(lp642
g151
atp643
a(S'als'
p644
(dp645
S'CONJ'
p646
F0.955514
s(lp647
g194
atp648
a(S'wir'
p649
(dp650
S'PRON'
p651
F1.0
s(lp652
tp653
a(S'es'
p654
(dp655
S'PRON'
p656
F1.0
s(lp657
g130
atp658
a(S'bislang'
p659
(dp660
S'ADV'
p661
F1.0
s(lp662
g200
atp663
a(S'getan'
p664
(dp665
S'VERB'
p666
F1.0
s(lp667
g179
atp668
a(S'haben'
p669
(dp670
S'VERB'
p671
F0.999979
s(lp672
tp673
a(g115
(dp674
g115
F1.0
s(lp675
g115
atp676
asS'it'
p677
(lp678
(S'la'
p679
(dp680
S'PRON'
p681
F0.000408
sS'DET'
p682
F0.999592
s(lp683
tp684
a(S'diversit\xc3\xa0'
p685
(dp686
S'NOUN'
p687
F1.0
s(lp688
g14
atp689
a(S'\xc3\xa8'
p690
(dp691
S'VERB'
p692
F1.0
s(lp693
g21
atp694
a(S'un'
p695
(dp696
S'PRON'
p697
F0.001159
sS'DEF'
p698
F0.998841
s(lp699
tp700
a(S'concetto'
p701
(dp702
S'NOUN'
p703
F1.0
s(lp704
tp705
a(S'cruciale'
p706
(dp707
S'ADJ'
p708
F1.0
s(lp709
g27
atp710
a(S'per'
p711
(dp712
S'CONJ'
p713
F0.065566
sS'ADP'
p714
F0.934434
s(lp715
g34
atp716
a(S"l'"
p717
(dp718
S'NOUN'
p719
F0.009694
sS'VERB'
p720
F0.9666450000000001
sS'ADJ'
p721
F0.023661
s(lp722
g42
atp723
a(S'ue'
p724
(dp725
S'ADJ'
p726
F0.000925
sS'VERB'
p727
F0.05558899999999999
sS'NOUN'
p728
F0.943486
s(lp729
g54
atp730
a(S'e'
p731
(dp732
S'CONJ'
p733
F1.0
s(lp734
g60
atp735
a(S'deve'
p736
(dp737
S'VERB'
p738
F1.0
s(lp739
g93
atp740
a(S'essere'
p741
(dp742
S'VERB'
p743
F0.999965
sS'NOUN'
p744
F3.5e-05
s(lp745
g66
atp746
a(S'rispettata'
p747
(dp748
S'VERB'
p749
F0.956012
sS'ADJ'
p750
F0.043988
s(lp751
tp752
a(S'anche'
p753
(dp754
S'ADV'
p755
F0.999693
sS'NOUN'
p756
F0.000307
s(lp757
g87
atp758
a(S'con'
p759
(dp760
S'ADP'
p761
F1.0
s(lp762
tp763
a(S'riferimento'
p764
(dp765
S'NOUN'
p766
F1.0
s(lp767
g80
atp768
a(S'alle'
p769
(dp770
S'ADP'
p771
F1.0
s(lp772
g145
atp773
a(S'diverse'
p774
(dp775
S'VERB'
p776
F0.0035280000000000003
sS'ADJ'
p777
F0.996472
s(lp778
g101
atp779
a(S'realt\xc3\xa0'
p780
(dp781
S'NOUN'
p782
F1.0
s(lp783
tp784
a(S'demografiche'
p785
(dp786
S'ADJ'
p787
F1.0
s(lp788
g113
atp789
a(g118
(dp790
g115
F1.0
s(lp791
g118
atp792
a(S'fenomeno'
p793
(dp794
S'NOUN'
p795
F1.0
s(lp796
g107
atp797
a(S'che'
p798
(dp799
S'PRON'
p800
F0.967246
sS'CONJ'
p801
F0.031735
sS'ADJ'
p802
F0.001019
s(lp803
g124
atp804
a(S'dobbiamo'
p805
(dp806
S'VERB'
p807
F1.0
s(lp808
g130
atp809
a(S'analizzare'
p810
(dp811
S'VERB'
p812
F1.0
s(lp813
g151
atp814
a(S'in'
p815
(dp816
S'ADP'
p817
F1.0
s(lp818
g158
atp819
a(S'maggiore'
p820
(dp821
S'NOUN'
p822
F0.003996
sS'ADJ'
p823
F0.996004
s(lp824
g186
atp825
a(S'profondit\xc3\xa0'
p826
(dp827
S'NOUN'
p828
F1.0
s(lp829
g164
atp830
a(S'rispetto'
p831
(dp832
S'VERB'
p833
F0.465565
sS'NOUN'
p834
F0.534435
s(lp835
tp836
a(S'al'
p837
(dp838
S'ADP'
p839
F1.0
s(lp840
g194
atp841
a(S'passato'
p842
(dp843
S'ADJ'
p844
F0.018569
sS'VERB'
p845
F0.01261
sS'NOUN'
p846
F0.968821
s(lp847
g200
atp848
a(g115
(dp849
g115
F1.0
s(lp850
g115
atp851
asS'sk'
p852
(lp853
(S'rozmanitos\xc5\xa5'
p854
(dp855
S'NOUN'
p856
F1.0
s(lp857
g14
atp858
a(S'je'
p859
(dp860
S'X'
p861
F0.000147
sS'VERB'
p862
F0.999839
sS'PRON'
p863
F1.3e-05
s(lp864
g21
atp865
a(S'v'
p866
(dp867
g861
F0.000794
sS'ADP'
p868
F0.999206
s(lp869
g34
atp870
a(S'e\xc3\x9a'
p871
(dp872
S'ADV'
p873
F0.002375
sS'NOUN'
p874
F0.27384200000000003
sS'VERB'
p875
F0.000317
sS'ADJ'
p876
F0.7231949999999999
sg861
F0.000271
s(lp877
g54
atp878
a(S'k\xc4\xbe\xc3\xba\xc4\x8dov\xc3\xa1'
p879
(dp880
S'ADJ'
p881
F1.0
s(lp882
g27
atp883
a(S'a'
p884
(dp885
g861
F0.002131
sS'CONJ'
p886
F0.996544
sS'NOUN'
p887
F0.001261
sS'ADP'
p888
F0.0
sS'PRT'
p889
F6.1e-05
s(lp890
g60
atp891
a(S't\xc3\xbdka'
p892
(dp893
g861
F0.00799
sS'VERB'
p894
F0.99201
s(lp895
tp896
a(S'sa'
p897
(dp898
S'PRT'
p899
F0.998362
sS'ADP'
p900
F0.001049
sg861
F0.000589
s(lp901
g80
atp902
a(S'to'
p903
(dp904
S'PRON'
p905
F0.970005
sS'CONJ'
p906
F0.002359
sg861
F0.027636
s(lp907
g66
atp908
a(S'aj'
p909
(dp910
g861
F0.914424
sS'CONJ'
p911
F0.085576
s(lp912
g87
atp913
a(S'rozmanitosti'
p914
(dp915
S'NOUN'
p916
F1.0
s(lp917
g101
atp918
a(S'demografickej'
p919
(dp920
S'ADJ'
p921
F1.0
s(lp922
g113
atp923
a(S'reality'
p924
(dp925
S'NOUN'
p926
F1.0
s(lp927
g107
atp928
a(g118
(dp929
g115
F1.0
s(lp930
g118
atp931
a(S'ktor\xc3\xba'
p932
(dp933
S'PRON'
p934
F1.0
s(lp935
g130
atp936
a(S'teraz'
p937
(dp938
S'ADV'
p939
F1.0
s(lp940
g179
atp941
a(S'mus\xc3\xadme'
p942
(dp943
S'VERB'
p944
F1.0
s(lp945
g137
atp946
a(S'\xc5\xa1tudova\xc5\xa5'
p947
(dp948
S'VERB'
p949
F1.0
s(lp950
g151
atp951
a(S'podrobnej\xc5\xa1ie'
p952
(dp953
S'ADV'
p954
F0.786773
sS'ADJ'
p955
F0.213227
s(lp956
g164
atp957
a(S'ako'
p958
(dp959
S'PRON'
p960
F0.011026
sS'CONJ'
p961
F0.988913
sg861
F6.1e-05
s(lp962
g194
atp963
a(S'predt\xc3\xbdm'
p964
(dp965
S'ADV'
p966
F1.0
s(lp967
g200
atp968
a(g115
(dp969
g115
F1.0
s(lp970
g115
atp971
asS'pl'
p972
(lp973
(S'kluczow\xc4\x85'
p974
(dp975
S'ADJ'
p976
F1.0
s(lp977
g27
atp978
a(S'cech\xc4\x85'
p979
(dp980
S'NOUN'
p981
F1.0
s(lp982
tp983
a(S'ue'
p984
(dp985
S'ADJ'
p986
F0.00041700000000000005
sS'VERB'
p987
F0.0003200000000000001
sS'NOUN'
p988
F0.999263
s(lp989
g54
atp990
a(S'jest'
p991
(dp992
S'VERB'
p993
F1.0
s(lp994
g21
atp995
a(S'jej'
p996
(dp997
S'PRON'
p998
F0.9999990000000001
sg861
F0.0
s(lp999
g66
atp1000
a(S'r\xc3\xb3\xc5\xbcnorodno\xc5\x9b\xc4\x87'
p1001
(dp1002
S'NOUN'
p1003
F1.0
s(lp1004
g14
atp1005
a(g118
(dp1006
g861
F0.0
sg115
F1.0
s(lp1007
g118
atp1008
a(S'tak\xc5\xbce'
p1009
(dp1010
S'PRT'
p1011
F0.326854
sS'CONJ'
p1012
F0.673146
s(lp1013
g87
atp1014
a(S'r\xc3\xb3\xc5\xbcnorodno\xc5\x9b\xc4\x87'
p1015
(dp1016
S'NOUN'
p1017
F1.0
s(lp1018
g101
atp1019
a(S'reali\xc3\xb3w'
p1020
(dp1021
S'NOUN'
p1022
F1.0
s(lp1023
g107
atp1024
a(S'demograficznych'
p1025
(dp1026
S'ADV'
p1027
F0.000206
sS'NOUN'
p1028
F0.009683000000000004
sS'VERB'
p1029
F0.0037519999999999997
sS'ADJ'
p1030
F0.9863579999999997
s(lp1031
tp1032
a(g453
(dp1033
g115
F1.0
s(lp1034
g124
atp1035
a(S'ten'
p1036
(dp1037
g861
F0.001808
sS'ADJ'
p1038
F0.9980910000000001
sS'PRT'
p1039
F0.000101
s(lp1040
g158
atp1041
a(S'aspekt'
p1042
(dp1043
S'NOUN'
p1044
F1.0
s(lp1045
g113
atp1046
a(S'musimy'
p1047
(dp1048
S'VERB'
p1049
F1.0
s(lp1050
g130
atp1051
a(S'teraz'
p1052
(dp1053
S'ADV'
p1054
F1.0
s(lp1055
g179
atp1056
a(S'analizowa\xc4\x87'
p1057
(dp1058
S'VERB'
p1059
F1.0
s(lp1060
g151
atp1061
a(S'bardziej'
p1062
(dp1063
S'ADV'
p1064
F1.0
s(lp1065
g186
atp1066
a(S'drobiazgowo'
p1067
(dp1068
S'ADV'
p1069
F0.647887
sS'ADJ'
p1070
F0.003113
sS'VERB'
p1071
F0.018224999999999998
sS'NOUN'
p1072
F0.33077399999999996
s(lp1073
g164
atp1074
a(S'ni\xc5\xbc'
p1075
(dp1076
S'CONJ'
p1077
F0.979127
sS'NOUN'
p1078
F1.6e-05
sS'ADP'
p1079
F0.020857
s(lp1080
g194
atp1081
a(S'dawniej'
p1082
(dp1083
S'ADV'
p1084
F1.0
s(lp1085
g200
atp1086
a(g115
(dp1087
g115
F1.0
s(lp1088
g115
atp1089
asS'sl'
p1090
(lp1091
(S'raznolikost'
p1092
(dp1093
S'NOUN'
p1094
F1.0
s(lp1095
g14
atp1096
a(S'je'
p1097
(dp1098
S'PRON'
p1099
F3.4e-05
sS'VERB'
p1100
F0.99995
sg861
F1.6e-05
s(lp1101
g21
atp1102
a(S'klju\xc4\x8dna'
p1103
(dp1104
S'ADJ'
p1105
F0.9999999999999999
s(lp1106
g27
atp1107
a(g866
(dp1108
S'ADP'
p1109
F1.0
s(lp1110
g34
atp1111
a(S'eu'
p1112
(dp1113
S'ADV'
p1114
F0.000129
sS'ADJ'
p1115
F0.008535999999999998
sS'VERB'
p1116
F1e-06
sS'NOUN'
p1117
F0.99134
s(lp1118
g54
atp1119
a(S'in'
p1120
(dp1121
S'ADV'
p1122
F0.0005
sg861
F2.4e-05
sS'CONJ'
p1123
F0.999378
sS'NOUN'
p1124
F9.7e-05
s(lp1125
g60
atp1126
a(S'velja'
p1127
(dp1128
S'VERB'
p1129
F1.0
s(lp1130
g80
atp1131
a(S'tudi'
p1132
(dp1133
S'PRT'
p1134
F1.0
s(lp1135
g87
atp1136
a(S'za'
p1137
(dp1138
S'ADV'
p1139
F0.082995
sg861
F0.000602
sS'ADP'
p1140
F0.9164019999999999
s(lp1141
g93
atp1142
a(S'raznolikost'
p1143
(dp1144
S'NOUN'
p1145
F1.0
s(lp1146
g101
atp1147
a(S'demografske'
p1148
(dp1149
S'ADJ'
p1150
F1.0
s(lp1151
g113
atp1152
a(S'realnosti'
p1153
(dp1154
S'NOUN'
p1155
F1.0
s(lp1156
g107
atp1157
a(g118
(dp1158
g115
F1.0
s(lp1159
g118
atp1160
a(S'kar'
p1161
(dp1162
S'ADV'
p1163
F0.613959
sS'PRON'
p1164
F0.38604099999999997
s(lp1165
g124
atp1166
a(S'moramo'
p1167
(dp1168
S'VERB'
p1169
F1.0
s(lp1170
g130
atp1171
a(S'preu\xc4\x8diti'
p1172
(dp1173
S'ADJ'
p1174
F1e-06
sS'VERB'
p1175
F0.9999550000000001
sS'NOUN'
p1176
F4.4999999999999996e-05
s(lp1177
g151
atp1178
a(S'temeljiteje'
p1179
(dp1180
S'ADV'
p1181
F1.0
s(lp1182
g164
atp1183
a(S'kot'
p1184
(dp1185
S'CONJ'
p1186
F0.999575
sS'NOUN'
p1187
F0.000426
s(lp1188
g194
atp1189
a(S'prej'
p1190
(dp1191
S'ADV'
p1192
F1.0
s(lp1193
g200
atp1194
a(g115
(dp1195
g115
F1.0
s(lp1196
g115
atp1197
asS'es'
p1198
(lp1199
(S'la'
p1200
(dp1201
g861
F4.5e-05
sS'DET'
p1202
F0.999917
sS'NOUN'
p1203
F0.0
sS'PRON'
p1204
F3.8e-05
s(lp1205
tp1206
a(S'diversidad'
p1207
(dp1208
S'NOUN'
p1209
F1.0
s(lp1210
g14
atp1211
a(S'es'
p1212
(dp1213
S'VERB'
p1214
F1.0
s(lp1215
g21
atp1216
a(S'fundamental'
p1217
(dp1218
S'ADJ'
p1219
F1.0
s(lp1220
g27
atp1221
a(S'para'
p1222
(dp1223
S'CONJ'
p1224
F0.002186
sS'ADP'
p1225
F0.997814
s(lp1226
g34
atp1227
a(S'la'
p1228
(dp1229
g861
F0.0
sS'PRON'
p1230
F0.0
sS'DET'
p1231
F0.999999
sS'NOUN'
p1232
F0.0
s(lp1233
g42
atp1234
a(S'ue'
p1235
(dp1236
S'VERB'
p1237
F4e-06
sS'NOUN'
p1238
F0.999995
s(lp1239
g54
atp1240
a(S'y'
p1241
(dp1242
g861
F0.001025
sS'CONJ'
p1243
F0.998975
s(lp1244
g60
atp1245
a(S'en'
p1246
(dp1247
g861
F0.0
sS'CONJ'
p1248
F0.0
sS'ADP'
p1249
F1.0
s(lp1250
g66
atp1251
a(S'este'
p1252
(dp1253
S'PRON'
p1254
F0.999828
sS'NOUN'
p1255
F0.000172
s(lp1256
tp1257
a(S'caso'
p1258
(dp1259
S'NOUN'
p1260
F1.0
s(lp1261
g66
atp1262
a(S'tambi\xc3\xa9n'
p1263
(dp1264
S'ADV'
p1265
F1.0
s(lp1266
g87
atp1267
a(S'lo'
p1268
(dp1269
S'PRON'
p1270
F0.997466
sS'DET'
p1271
F0.002534
s(lp1272
tp1273
a(S'es'
p1274
(dp1275
S'VERB'
p1276
F1.0
s(lp1277
g80
atp1278
a(S'la'
p1279
(dp1280
g861
F1e-06
sS'DET'
p1281
F0.999999
sS'NOUN'
p1282
F0.0
sS'PRON'
p1283
F0.0
s(lp1284
g145
atp1285
a(S'diversidad'
p1286
(dp1287
S'NOUN'
p1288
F1.0
s(lp1289
g101
atp1290
a(S'demogr\xc3\xa1fica'
p1291
(dp1292
S'ADJ'
p1293
F1.0
s(lp1294
g113
atp1295
a(g115
(dp1296
g115
F1.0
s(lp1297
g118
atp1298
a(S'habr\xc3\xa1'
p1299
(dp1300
S'VERB'
p1301
F1.0
s(lp1302
g137
atp1303
a(S'que'
p1304
(dp1305
S'VERB'
p1306
F1.0
s(lp1307
g300
atp1308
a(S'estudiarla'
p1309
(dp1310
S'VERB'
p1311
F1.0
s(lp1312
g151
atp1313
a(S'en'
p1314
(dp1315
g861
F1.3e-05
sS'CONJ'
p1316
F2.6e-05
sS'ADP'
p1317
F0.999961
s(lp1318
g158
atp1319
a(S'mayor'
p1320
(dp1321
S'ADJ'
p1322
F1.0
s(lp1323
g186
atp1324
a(S'detalle'
p1325
(dp1326
S'NOUN'
p1327
F1.0
s(lp1328
g164
atp1329
a(S'de'
p1330
(dp1331
g861
F1e-06
sS'CONJ'
p1332
F0.001078
sS'ADP'
p1333
F0.998921
s(lp1334
g194
atp1335
a(S'ahora'
p1336
(dp1337
S'ADV'
p1338
F1.0
s(lp1339
tp1340
a(S'en'
p1341
(dp1342
g861
F0.0
sS'CONJ'
p1343
F0.000157
sS'ADP'
p1344
F0.999843
s(lp1345
g200
atp1346
a(S'adelante'
p1347
(dp1348
S'ADV'
p1349
F1.0
s(lp1350
g179
atp1351
a(g115
(dp1352
g115
F1.0
s(lp1353
g115
atp1354
as.