(dp0
S'fr'
p1
(lp2
(S"l'"
p3
(dp4
S'ADJ'
p5
F0.079749
sS'VERB'
p6
F0.5393100000000001
sS'NOUN'
p7
F0.380941
s(lp8
S'the'
p9
atp10
a(S'objectif'
p11
(dp12
S'NOUN'
p13
F0.200149
sS'ADJ'
p14
F0.799851
s(lp15
S'objective'
p16
atp17
a(S'de'
p18
(dp19
S'ADP'
p20
F1.0
s(lp21
S'of'
p22
atp23
a(S'ce'
p24
(dp25
S'PRON'
p26
F1.0
s(lp27
S'this'
p28
atp29
a(S'rapport'
p30
(dp31
S'NOUN'
p32
F1.0
s(lp33
S'report'
p34
atp35
a(S'est'
p36
(dp37
S'VERB'
p38
F0.99989
sS'NOUN'
p39
F0.00011
s(lp40
S'is'
p41
atp42
a(S'la'
p43
(dp44
S'PRON'
p45
F0.000842
sS'DET'
p46
F0.999151
sS'NOUN'
p47
F6e-06
s(lp48
S'the'
p49
atp50
a(S'n\xc3\xa9cessit\xc3\xa9'
p51
(dp52
S'VERB'
p53
F0.005671
sS'NOUN'
p54
F0.994329
s(lp55
S'need'
p56
atp57
a(S'de'
p58
(dp59
S'ADP'
p60
F1.0
s(lp61
S'to'
p62
atp63
a(S'favoriser'
p64
(dp65
S'VERB'
p66
F1.0
s(lp67
S'promote'
p68
atp69
a(S'de'
p70
(dp71
S'ADP'
p72
F1.0
s(lp73
tp74
a(S'plus'
p75
(dp76
S'ADV'
p77
F1.0
sS'VERB'
p78
F0.0
s(lp79
tp80
a(S'grandes'
p81
(dp82
S'ADJ'
p83
F1.0
s(lp84
S'greater'
p85
atp86
a(S'synergies'
p87
(dp88
S'NOUN'
p89
F1.0
s(lp90
S'synergies'
p91
atp92
a(S'entre'
p93
(dp94
S'VERB'
p95
F0.000526
sS'ADP'
p96
F0.999474
s(lp97
S'between'
p98
atp99
a(S'la'
p100
(dp101
S'PRON'
p102
F0.000187
sS'DET'
p103
F0.999812
sS'NOUN'
p104
F1e-06
s(lp105
tp106
a(S'politique'
p107
(dp108
S'ADJ'
p109
F0.071188
sS'VERB'
p110
F0.00022700000000000002
sS'NOUN'
p111
F0.928586
s(lp112
S'policy'
p113
atp114
a(S'fiscale'
p115
(dp116
S'ADJ'
p117
F1.0
s(lp118
S'tax'
p119
atp120
a(S'et'
p121
(dp122
S'CONJ'
p123
F1.0
s(lp124
S'and'
p125
atp126
a(S'la'
p127
(dp128
S'PRON'
p129
F0.001255
sS'DET'
p130
F0.998744
sS'NOUN'
p131
F1e-06
s(lp132
tp133
a(S'politique'
p134
(dp135
S'ADJ'
p136
F0.465247
sS'VERB'
p137
F0.001098
sS'NOUN'
p138
F0.533655
s(lp139
S'policy'
p140
atp141
a(S'de'
p142
(dp143
S'ADP'
p144
F1.0
s(lp145
S'making'
p146
atp147
a(S'd\xc3\xa9veloppement'
p148
(dp149
S'NOUN'
p150
F1.0
s(lp151
S'development'
p152
atp153
a(S'afin'
p154
(dp155
S'CONJ'
p156
F1.0
s(lp157
g146
atp158
a(S'de'
p159
(dp160
S'ADP'
p161
F1.0
s(lp162
tp163
a(S'les'
p164
(dp165
S'PRON'
p166
F0.557712
sS'DET'
p167
F0.441708
sS'ADP'
p168
F0.00058
s(lp169
tp170
a(S'rendre'
p171
(dp172
S'VERB'
p173
F1.0
s(lp174
g146
atp175
a(S'toutes'
p176
(dp177
S'PRON'
p178
F1.0
s(lp179
tp180
a(S'deux'
p181
(dp182
S'NUM'
p183
F0.650199
sS'NOUN'
p184
F0.349801
s(lp185
S'both'
p186
atp187
a(S'plus'
p188
(dp189
S'ADV'
p190
F0.987855
sS'VERB'
p191
F0.012145
s(lp192
S'more'
p193
atp194
a(S'efficaces'
p195
(dp196
S'NOUN'
p197
F0.008338
sS'ADJ'
p198
F0.991662
s(lp199
S'efficient'
p200
atp201
a(S'.'
p202
(dp203
g202
F1.0
s(lp204
S';'
p205
atp206
a(S'pour'
p207
(dp208
S'CONJ'
p209
F0.271004
sS'ADP'
p210
F0.728996
s(lp211
S'to'
p212
atp213
a(S'ce'
p214
(dp215
S'PRON'
p216
F1.0
s(lp217
S'that'
p218
atp219
a(S'faire'
p220
(dp221
S'VERB'
p222
F1.0
s(lp223
S'end'
p224
atp225
a(S','
p226
(dp227
g202
F1.0
s(lp228
g226
atp229
a(S'il'
p230
(dp231
S'PRON'
p232
F1.0
s(lp233
S'it'
p234
atp235
a(S'met'
p236
(dp237
S'VERB'
p238
F1.0
s(lp239
tp240
a(S'en'
p241
(dp242
S'PRON'
p243
F0.001468
sS'ADP'
p244
F0.998532
s(lp245
tp246
a(S'\xc3\xa9vidence'
p247
(dp248
S'NOUN'
p249
F1.0
s(lp250
S'identifies'
p251
atp252
a(S'les'
p253
(dp254
S'PRON'
p255
F0.000251
sS'DET'
p256
F0.999507
sS'ADP'
p257
F0.000243
s(lp258
S'the'
p259
atp260
a(S'difficult\xc3\xa9s'
p261
(dp262
S'NOUN'
p263
F1.0
s(lp264
S'difficulties'
p265
atp266
a(S'qui'
p267
(dp268
S'PRON'
p269
F1.0
s(lp270
S'that'
p271
atp272
a(S'existent'
p273
(dp274
S'VERB'
p275
F1.0
s(lp276
S'exist'
p277
atp278
a(S'dans'
p279
(dp280
S'NOUN'
p281
F3.2e-05
sS'ADP'
p282
F0.999968
s(lp283
S'in'
p284
atp285
a(S'les'
p286
(dp287
S'PRON'
p288
F5.6e-05
sS'DET'
p289
F0.999943
sS'ADP'
p290
F2e-06
s(lp291
S'developing'
p292
atp293
a(S'pays'
p294
(dp295
S'NOUN'
p296
F1.0
s(lp297
S'countries'
p298
atp299
a(S'en'
p300
(dp301
S'PRON'
p302
F0.000406
sS'ADP'
p303
F0.999594
s(lp304
tp305
a(S'd\xc3\xa9veloppement'
p306
(dp307
S'NOUN'
p308
F1.0
s(lp309
g292
atp310
a(S'en'
p311
(dp312
S'PRON'
p313
F0.000406
sS'ADP'
p314
F0.999594
s(lp315
S'with'
p316
atp317
a(S'mati\xc3\xa8re'
p318
(dp319
S'NOUN'
p320
F1.0
s(lp321
S'regard'
p322
atp323
a(S'de'
p324
(dp325
S'ADP'
p326
F1.0
s(lp327
S'to'
p328
atp329
a(S'mobilisation'
p330
(dp331
S'NOUN'
p332
F1.0
s(lp333
S'mobilisation'
p334
atp335
a(S'des'
p336
(dp337
S'DET'
p338
F2.1e-05
sS'ADP'
p339
F0.999979
s(lp340
S'of'
p341
atp342
a(S'recettes'
p343
(dp344
S'NOUN'
p345
F1.0
s(lp346
S'revenues'
p347
atp348
a(S'fiscales'
p349
(dp350
S'ADJ'
p351
F1.0
s(lp352
S'tax'
p353
atp354
a(g202
(dp355
g202
F1.0
s(lp356
g202
atp357
asS'en'
p358
(lp359
(g9
(dp360
S'NOUN'
p361
F5e-06
sS'DET'
p362
F0.999995
s(lp363
g9
atp364
a(g16
(dp365
S'ADJ'
p366
F0.089182
sS'NOUN'
p367
F0.910818
s(lp368
g16
atp369
a(g22
(dp370
S'ADP'
p371
F1.0
s(lp372
g22
atp373
a(g28
(dp374
S'ADV'
p375
F3e-06
sS'NOUN'
p376
F1.9e-05
sS'DET'
p377
F0.999978
s(lp378
g28
atp379
a(g34
(dp380
S'VERB'
p381
F0.000172
sS'NOUN'
p382
F0.999828
s(lp383
g34
atp384
a(g41
(dp385
S'VERB'
p386
F1.0
s(lp387
g41
atp388
a(g49
(dp389
S'NOUN'
p390
F2e-06
sS'DET'
p391
F0.999998
s(lp392
g49
atp393
a(g56
(dp394
S'VERB'
p395
F0.08742
sS'NOUN'
p396
F0.91258
s(lp397
g56
atp398
a(g62
(dp399
S'ADV'
p400
F0.0
sS'PRT'
p401
F1.0
sS'ADP'
p402
F0.0
s(lp403
g62
atp404
a(g68
(dp405
S'VERB'
p406
F1.0
s(lp407
g68
atp408
a(g85
(dp409
S'ADJ'
p410
F1.0
s(lp411
g85
atp412
a(g91
(dp413
S'NOUN'
p414
F1.0
s(lp415
g91
atp416
a(g98
(dp417
S'ADV'
p418
F0.000109
sS'ADP'
p419
F0.999891
s(lp420
g98
atp421
a(g119
(dp422
S'VERB'
p423
F2.3e-05
sS'NOUN'
p424
F0.999977
s(lp425
g119
atp426
a(g113
(dp427
S'NOUN'
p428
F1.0
s(lp429
g113
atp430
a(g125
(dp431
S'CONJ'
p432
F0.999998
sS'NOUN'
p433
F2e-06
s(lp434
g125
atp435
a(g152
(dp436
S'NOUN'
p437
F1.0
s(lp438
g152
atp439
a(g140
(dp440
S'NOUN'
p441
F1.0
s(lp442
g140
atp443
a(g226
(dp444
g202
F1.0
s(lp445
g226
atp446
a(g146
(dp447
S'VERB'
p448
F0.997321
sS'NOUN'
p449
F0.002679
s(lp450
g146
atp451
a(g186
(dp452
S'CONJ'
p453
F0.171307
sS'DET'
p454
F0.828692
s(lp455
g186
atp456
a(g193
(dp457
S'ADV'
p458
F0.642332
sS'ADJ'
p459
F0.357668
s(lp460
g193
atp461
a(g200
(dp462
S'ADJ'
p463
F1.0
s(lp464
g200
atp465
a(g205
(dp466
g202
F1.0
s(lp467
g205
atp468
a(g212
(dp469
S'ADV'
p470
F9e-06
sS'PRT'
p471
F0.999976
sS'ADP'
p472
F1.6e-05
s(lp473
g212
atp474
a(g218
(dp475
S'ADV'
p476
F0.000188
sS'DET'
p477
F0.999811
sS'ADP'
p478
F2e-06
s(lp479
g218
atp480
a(g224
(dp481
S'VERB'
p482
F0.0006919999999999999
sS'NOUN'
p483
F0.999308
s(lp484
g224
atp485
a(g226
(dp486
g202
F1.0
s(lp487
g226
atp488
a(g234
(dp489
S'PRON'
p490
F1.0
s(lp491
g234
atp492
a(g251
(dp493
S'VERB'
p494
F1.0
s(lp495
g251
atp496
a(g259
(dp497
S'NOUN'
p498
F9e-06
sS'DET'
p499
F0.999991
s(lp500
g259
atp501
a(g265
(dp502
S'NOUN'
p503
F1.0
s(lp504
g265
atp505
a(g271
(dp506
S'ADV'
p507
F0.001163
sS'DET'
p508
F0.998811
sS'ADP'
p509
F2.6e-05
s(lp510
g271
atp511
a(g277
(dp512
S'VERB'
p513
F1.0
s(lp514
g277
atp515
a(g284
(dp516
S'ADV'
p517
F0.008783
sS'PRT'
p518
F0.007336
sS'ADP'
p519
F0.983881
s(lp520
g284
atp521
a(g292
(dp522
S'NOUN'
p523
F0.015344
sS'VERB'
p524
F0.892514
sS'ADJ'
p525
F0.092142
s(lp526
g292
atp527
a(g298
(dp528
S'NOUN'
p529
F1.0
s(lp530
g298
atp531
a(g316
(dp532
S'ADP'
p533
F1.0
s(lp534
g316
atp535
a(g322
(dp536
S'VERB'
p537
F0.017924000000000002
sS'NOUN'
p538
F0.982076
s(lp539
g322
atp540
a(g328
(dp541
S'ADV'
p542
F1e-06
sS'PRT'
p543
F0.999989
sS'ADP'
p544
F1e-05
s(lp545
g328
atp546
a(S'the'
p547
(dp548
S'NOUN'
p549
F2e-06
sS'DET'
p550
F0.999998
s(lp551
g547
atp552
a(g334
(dp553
S'NOUN'
p554
F1.0
s(lp555
g334
atp556
a(g341
(dp557
S'ADP'
p558
F1.0
s(lp559
g341
atp560
a(g353
(dp561
S'VERB'
p562
F1.4e-05
sS'NOUN'
p563
F0.999986
s(lp564
g353
atp565
a(g347
(dp566
S'NOUN'
p567
F1.0
s(lp568
g347
atp569
a(g202
(dp570
g202
F1.0
s(lp571
g202
atp572
asS'nl'
p573
(lp574
(S'doel'
p575
(dp576
S'VERB'
p577
F0.000473
sS'NOUN'
p578
F0.999527
s(lp579
g16
atp580
a(S'van'
p581
(dp582
S'ADP'
p583
F1.0
s(lp584
g22
atp585
a(S'dit'
p586
(dp587
S'PRON'
p588
F1.0
s(lp589
g28
atp590
a(S'verslag'
p591
(dp592
S'NOUN'
p593
F1.0
s(lp594
g34
atp595
a(S'is'
p596
(dp597
S'VERB'
p598
F1.0
s(lp599
g41
atp600
a(S'synergie\xc3\xabn'
p601
(dp602
S'NOUN'
p603
F1.0
s(lp604
g91
atp605
a(S'tussen'
p606
(dp607
S'ADP'
p608
F1.0
s(lp609
g98
atp610
a(S'het'
p611
(dp612
S'PRON'
p613
F0.0008939999999999999
sS'DET'
p614
F0.999107
s(lp615
g49
atp616
a(S'belasting-'
p617
(dp618
S'ADJ'
p619
F0.02197
sS'NOUN'
p620
F0.978029
s(lp621
g119
atp622
a(S'en'
p623
(dp624
S'CONJ'
p625
F1.0
s(lp626
g125
atp627
a(S'ontwikkelingsbeleid'
p628
(dp629
S'NOUN'
p630
F1.0
s(lp631
g152
atp632
a(S'te'
p633
(dp634
S'PRT'
p635
F1.0
s(lp636
g62
atp637
a(S'verbeteren'
p638
(dp639
S'VERB'
p640
F0.999999
sS'NOUN'
p641
F0.0
s(lp642
g68
atp643
a(S'om'
p644
(dp645
S'ADV'
p646
F5e-06
sS'CONJ'
p647
F0.995024
sS'ADP'
p648
F0.004971
s(lp649
g146
atp650
a(S'ze'
p651
(dp652
S'PRON'
p653
F1.0
s(lp654
g186
atp655
a(S'doeltreffender'
p656
(dp657
S'ADJ'
p658
F1.0
s(lp659
g200
atp660
a(S'te'
p661
(dp662
S'PRT'
p663
F1.0
s(lp664
g146
atp665
a(S'maken'
p666
(dp667
S'VERB'
p668
F1.0
sS'NOUN'
p669
F0.0
s(lp670
g146
atp671
a(S'en'
p672
(dp673
S'CONJ'
p674
F1.0
s(lp675
g205
atp676
a(S'te'
p677
(dp678
S'PRT'
p679
F1.0
s(lp680
g212
atp681
a(S'dien'
p682
(dp683
S'PRON'
p684
F0.999996
sS'VERB'
p685
F4e-06
s(lp686
tp687
a(S'einde'
p688
(dp689
S'NOUN'
p690
F1.0
s(lp691
g224
atp692
a(S'problemen'
p693
(dp694
S'NOUN'
p695
F1.0
s(lp696
g265
atp697
a(S'aan'
p698
(dp699
S'ADV'
p700
F0.998392
sS'ADP'
p701
F0.001608
s(lp702
g251
atp703
a(S'te'
p704
(dp705
S'PRT'
p706
F1.0
s(lp707
tp708
a(S'wijzen'
p709
(dp710
S'VERB'
p711
F0.9657789999999999
sS'NOUN'
p712
F0.034221
s(lp713
g277
atp714
a(S'waar'
p715
(dp716
S'ADV'
p717
F0.978464
sS'NOUN'
p718
F2.8e-05
sS'ADJ'
p719
F0.021508
s(lp720
g284
atp721
a(S'ontwikkelingslanden'
p722
(dp723
S'NOUN'
p724
F1.0
s(lp725
g292
atp726
a(S'mee'
p727
(dp728
S'ADV'
p729
F0.999957
sS'NOUN'
p730
F4.3e-05
s(lp731
g316
atp732
a(S'te'
p733
(dp734
S'PRT'
p735
F1.0
s(lp736
tp737
a(S'maken'
p738
(dp739
S'VERB'
p740
F1.0
sS'NOUN'
p741
F0.0
s(lp742
g146
atp743
a(S'hebben'
p744
(dp745
S'VERB'
p746
F0.999992
sS'NOUN'
p747
F9e-06
s(lp748
g56
atp749
a(S'bij'
p750
(dp751
S'ADV'
p752
F0.002369
sS'ADJ'
p753
F0.0
sS'NOUN'
p754
F0.0
sS'ADP'
p755
F0.997631
s(lp756
g328
atp757
a(S'de'
p758
(dp759
S'DET'
p760
F1.0
s(lp761
g547
atp762
a(S'inzet'
p763
(dp764
S'VERB'
p765
F0.000156
sS'NOUN'
p766
F0.999844
s(lp767
g334
atp768
a(S'van'
p769
(dp770
S'ADP'
p771
F1.0
s(lp772
g341
atp773
a(S'ontvangsten'
p774
(dp775
S'NOUN'
p776
F1.0
s(lp777
g347
atp778
a(S'door'
p779
(dp780
S'ADV'
p781
F1e-06
sS'CONJ'
p782
F1.2e-05
sS'ADP'
p783
F0.999988
s(lp784
tp785
a(S'middel'
p786
(dp787
S'NOUN'
p788
F1.0
s(lp789
tp790
a(S'van'
p791
(dp792
S'ADP'
p793
F1.0
s(lp794
g341
atp795
a(S'belastingheffing'
p796
(dp797
S'NOUN'
p798
F1.0
s(lp799
g353
atp800
a(g202
(dp801
g202
F1.0
s(lp802
g202
atp803
asS'de'
p804
(lp805
(S'der'
p806
(dp807
S'PRON'
p808
F0.000343
sS'DET'
p809
F0.999539
s(lp810
g9
atp811
a(S'bericht'
p812
(dp813
S'ADJ'
p814
F0.00016
sS'NOUN'
p815
F0.999739
s(lp816
g34
atp817
a(S'zielt'
p818
(dp819
S'VERB'
p820
F1.0
s(lp821
g16
atp822
a(S'auf'
p823
(dp824
S'PRT'
p825
F0.000665
sS'ADP'
p826
F0.999301
s(lp827
g62
atp828
a(S'eine'
p829
(dp830
S'NUM'
p831
F0.000437
sS'DET'
p832
F0.999361
s(lp833
tp834
a(S'verbesserung'
p835
(dp836
S'ADJ'
p837
F9.3e-05
sS'NOUN'
p838
F0.999804
s(lp839
g85
atp840
a(S'der'
p841
(dp842
S'PRON'
p843
F8.6e-05
sS'DET'
p844
F0.999897
s(lp845
g49
atp846
a(S'synergieeffekte'
p847
(dp848
S'NOUN'
p849
F0.373069
sS'ADJ'
p850
F0.616084
s(lp851
g91
atp852
a(S'zwischen'
p853
(dp854
S'PRT'
p855
F2e-06
sS'ADP'
p856
F0.999998
s(lp857
g98
atp858
a(S'steuer-'
p859
(dp860
S'X'
p861
F1.0
s(lp862
g119
atp863
a(S'und'
p864
(dp865
S'CONJ'
p866
F1.0
s(lp867
g125
atp868
a(S'entwicklungspolitik'
p869
(dp870
S'VERB'
p871
F0.359014
sS'NOUN'
p872
F0.235585
s(lp873
g152
atp874
a(S'ab'
p875
(dp876
S'ADV'
p877
F0.003217
sS'PRT'
p878
F0.996783
s(lp879
g140
atp880
a(g226
(dp881
g202
F1.0
s(lp882
g226
atp883
a(S'um'
p884
(dp885
S'CONJ'
p886
F0.653211
sS'ADP'
p887
F0.346734
s(lp888
g146
atp889
a(S'diese'
p890
(dp891
S'PRON'
p892
F1.0
s(lp893
g28
atp894
a(S'wirksamer'
p895
(dp896
S'ADJ'
p897
F1.0
s(lp898
g200
atp899
a(S'zu'
p900
(dp901
S'PRT'
p902
F0.999979
s(lp903
tp904
a(S'gestalten'
p905
(dp906
S'VERB'
p907
F1.0
s(lp908
g146
atp909
a(g202
(dp910
g202
F1.0
s(lp911
g205
atp912
a(S'dabei'
p913
(dp914
S'ADV'
p915
F0.999987
sS'PRT'
p916
F1.3e-05
s(lp917
g218
atp918
a(S'h\xc3\xa4lt'
p919
(dp920
S'VERB'
p921
F1.0
s(lp922
tp923
a(S'er'
p924
(dp925
S'PRON'
p926
F1.0
s(lp927
g234
atp928
a(S'fest'
p929
(dp930
S'PRT'
p931
F0.896448
sS'ADJ'
p932
F0.103552
s(lp933
g251
atp934
a(g226
(dp935
g202
F1.0
s(lp936
g226
atp937
a(S'welche'
p938
(dp939
S'PRON'
p940
F0.8895759999999999
s(lp941
g259
atp942
a(S'schwierigkeiten'
p943
(dp944
S'VERB'
p945
F0.149354
sS'NOUN'
p946
F0.840989
s(lp947
g265
atp948
a(S'die'
p949
(dp950
S'PRON'
p951
F0.000634
sS'DET'
p952
F0.999278
s(lp953
tp954
a(S'entwicklungsl\xc3\xa4nder'
p955
(dp956
S'ADJ'
p957
F0.014675
sS'NOUN'
p958
F0.970226
s(lp959
g292
atp960
a(S'mit'
p961
(dp962
S'PRT'
p963
F0.000336
sS'ADP'
p964
F0.999664
s(lp965
g316
atp966
a(S'der'
p967
(dp968
S'PRON'
p969
F1.6e-05
sS'DET'
p970
F0.999978
s(lp971
g547
atp972
a(S'mobilisierung'
p973
(dp974
S'ADJ'
p975
F0.000144
sS'NOUN'
p976
F0.999746
s(lp977
g334
atp978
a(S'von'
p979
(dp980
S'NOUN'
p981
F0.002496
sS'ADP'
p982
F0.997504
s(lp983
g341
atp984
a(S'steuereinnahmen'
p985
(dp986
S'ADJ'
p987
F0.313603
sS'NOUN'
p988
F0.617531
s(lp989
g347
atp990
a(S'haben'
p991
(dp992
S'VERB'
p993
F0.995642
s(lp994
tp995
a(g202
(dp996
g202
F1.0
s(lp997
g202
atp998
asS'it'
p999
(lp1000
(S'la'
p1001
(dp1002
S'PRON'
p1003
F0.000408
sS'DET'
p1004
F0.999592
s(lp1005
g28
atp1006
a(S'relazione'
p1007
(dp1008
S'NOUN'
p1009
F1.0
s(lp1010
g34
atp1011
a(S'si'
p1012
(dp1013
S'PRON'
p1014
F0.999997
sS'NOUN'
p1015
F3e-06
s(lp1016
tp1017
a(S'pone'
p1018
(dp1019
S'VERB'
p1020
F1.0
s(lp1021
g41
atp1022
a(S'come'
p1023
(dp1024
S'PRON'
p1025
F0.001909
sS'CONJ'
p1026
F0.043265
sS'NOUN'
p1027
F0.000109
sS'ADP'
p1028
F0.954717
s(lp1029
g9
atp1030
a(S'obiettivo'
p1031
(dp1032
S'ADJ'
p1033
F0.100105
sS'VERB'
p1034
F0.001747
sS'NOUN'
p1035
F0.898148
s(lp1036
g16
atp1037
a(S'la'
p1038
(dp1039
S'PRON'
p1040
F0.000798
sS'DET'
p1041
F0.999202
s(lp1042
g49
atp1043
a(S'necessit\xc3\xa0'
p1044
(dp1045
S'NOUN'
p1046
F1.0
s(lp1047
g56
atp1048
a(S'di'
p1049
(dp1050
S'CONJ'
p1051
F6e-06
sS'ADP'
p1052
F0.999994
s(lp1053
g62
atp1054
a(S'promuovere'
p1055
(dp1056
S'VERB'
p1057
F1.0
s(lp1058
g68
atp1059
a(S'una'
p1060
(dp1061
S'PRON'
p1062
F4.9e-05
sS'DEF'
p1063
F0.999951
s(lp1064
tp1065
a(S'maggiore'
p1066
(dp1067
S'NOUN'
p1068
F0.005002
sS'ADJ'
p1069
F0.994998
s(lp1070
g85
atp1071
a(S'sinergia'
p1072
(dp1073
S'NOUN'
p1074
F1.0
s(lp1075
g91
atp1076
a(S'tra'
p1077
(dp1078
S'CONJ'
p1079
F0.001568
sS'ADP'
p1080
F0.998432
s(lp1081
g98
atp1082
a(S'la'
p1083
(dp1084
S'PRON'
p1085
F0.000235
sS'DET'
p1086
F0.999765
s(lp1087
tp1088
a(S'politica'
p1089
(dp1090
S'ADJ'
p1091
F0.035707
sS'NOUN'
p1092
F0.964293
s(lp1093
g113
atp1094
a(S'fiscale'
p1095
(dp1096
S'NOUN'
p1097
F0.004422
sS'ADJ'
p1098
F0.995578
s(lp1099
g119
atp1100
a(S'e'
p1101
(dp1102
S'CONJ'
p1103
F1.0
s(lp1104
g125
atp1105
a(S'quella'
p1106
(dp1107
S'PRON'
p1108
F1.0
s(lp1109
g140
atp1110
a(S'per'
p1111
(dp1112
S'CONJ'
p1113
F0.009061
sS'ADP'
p1114
F0.990939
s(lp1115
g22
atp1116
a(S'lo'
p1117
(dp1118
S'PRON'
p1119
F0.007668
sS'DET'
p1120
F0.992332
s(lp1121
tp1122
a(S'sviluppo'
p1123
(dp1124
S'VERB'
p1125
F0.001342
sS'NOUN'
p1126
F0.998658
s(lp1127
g152
atp1128
a(g226
(dp1129
g202
F1.0
s(lp1130
g226
atp1131
a(S'rendendo'
p1132
(dp1133
S'VERB'
p1134
F1.0
s(lp1135
g146
atp1136
a(S'entrambe'
p1137
(dp1138
S'ADJ'
p1139
F1.0
s(lp1140
g186
atp1141
a(S'pi\xc3\xb9'
p1142
(dp1143
S'ADV'
p1144
F0.996618
sS'NOUN'
p1145
F0.000534
sS'ADJ'
p1146
F0.002004
sS'ADP'
p1147
F0.000844
s(lp1148
g193
atp1149
a(S'efficienti'
p1150
(dp1151
S'ADJ'
p1152
F1.0
s(lp1153
g200
atp1154
a(g1101
(dp1155
S'CONJ'
p1156
F1.0
s(lp1157
g205
atp1158
a(g226
(dp1159
g202
F1.0
s(lp1160
tp1161
a(S'a'
p1162
(dp1163
S'CONJ'
p1164
F0.002788
sS'ADP'
p1165
F0.997212
s(lp1166
g212
atp1167
a(S'tal'
p1168
(dp1169
S'PRON'
p1170
F1.0
s(lp1171
g218
atp1172
a(S'fine'
p1173
(dp1174
S'ADJ'
p1175
F0.07683
sS'NOUN'
p1176
F0.92317
s(lp1177
g224
atp1178
a(g226
(dp1179
g202
F1.0
s(lp1180
g226
atp1181
a(S'identifica'
p1182
(dp1183
S'VERB'
p1184
F1.0
s(lp1185
g251
atp1186
a(S'le'
p1187
(dp1188
S'PRON'
p1189
F1e-06
sS'DET'
p1190
F0.999999
s(lp1191
g259
atp1192
a(S'difficolt\xc3\xa0'
p1193
(dp1194
S'NOUN'
p1195
F1.0
s(lp1196
g265
atp1197
a(S'presenti'
p1198
(dp1199
S'NOUN'
p1200
F0.016294
sS'VERB'
p1201
F0.013224
sS'ADJ'
p1202
F0.970482
s(lp1203
g277
atp1204
a(S'nei'
p1205
(dp1206
S'NOUN'
p1207
F0.00046
sS'ADP'
p1208
F0.99954
s(lp1209
g284
atp1210
a(S'paesi'
p1211
(dp1212
S'NOUN'
p1213
F1.0
s(lp1214
g298
atp1215
a(S'in'
p1216
(dp1217
S'ADP'
p1218
F1.0
s(lp1219
g292
atp1220
a(S'via'
p1221
(dp1222
S'ADV'
p1223
F0.101479
sg861
F5e-06
sS'NOUN'
p1224
F0.898517
s(lp1225
tp1226
a(S'di'
p1227
(dp1228
S'CONJ'
p1229
F5e-06
sS'ADP'
p1230
F0.999995
s(lp1231
tp1232
a(S'sviluppo'
p1233
(dp1234
S'VERB'
p1235
F0.000242
sS'NOUN'
p1236
F0.999758
s(lp1237
g292
atp1238
a(S'relativamente'
p1239
(dp1240
S'ADV'
p1241
F1.0
s(lp1242
g322
atp1243
a(S'alla'
p1244
(dp1245
S'ADP'
p1246
F1.0
s(lp1247
g328
atp1248
a(S'mobilitazione'
p1249
(dp1250
S'NOUN'
p1251
F1.0
s(lp1252
g334
atp1253
a(S'del'
p1254
(dp1255
S'DEF'
p1256
F0.001248
sS'ADP'
p1257
F0.998752
s(lp1258
g341
atp1259
a(S'gettito'
p1260
(dp1261
S'NOUN'
p1262
F1.0
s(lp1263
g347
atp1264
a(S'fiscale'
p1265
(dp1266
S'NOUN'
p1267
F0.000665
sS'ADJ'
p1268
F0.999335
s(lp1269
g353
atp1270
a(g202
(dp1271
g202
F1.0
s(lp1272
g202
atp1273
asS'sk'
p1274
(lp1275
(S'z\xc3\xa1merom'
p1276
(dp1277
S'NOUN'
p1278
F1.0
s(lp1279
g16
atp1280
a(S'tejto'
p1281
(dp1282
S'PRON'
p1283
F1.0
s(lp1284
g28
atp1285
a(S'spr\xc3\xa1vy'
p1286
(dp1287
S'NOUN'
p1288
F1.0
s(lp1289
g34
atp1290
a(S'je'
p1291
(dp1292
g861
F0.000198
sS'VERB'
p1293
F0.999715
sS'PRON'
p1294
F8.7e-05
s(lp1295
g41
atp1296
a(S'potreba'
p1297
(dp1298
S'NOUN'
p1299
F1.0
s(lp1300
g56
atp1301
a(S'podpori\xc5\xa5'
p1302
(dp1303
S'VERB'
p1304
F1.0
s(lp1305
g68
atp1306
a(S'lep\xc5\xa1iu'
p1307
(dp1308
S'ADJ'
p1309
F1.0
s(lp1310
g85
atp1311
a(S'synergiu'
p1312
(dp1313
S'NOUN'
p1314
F1.0
s(lp1315
g91
atp1316
a(S'medzi'
p1317
(dp1318
S'NOUN'
p1319
F0.000767
sS'ADP'
p1320
F0.999233
s(lp1321
g98
atp1322
a(S'da\xc5\x88ovou'
p1323
(dp1324
S'ADJ'
p1325
F1.0
s(lp1326
g119
atp1327
a(S'politikou'
p1328
(dp1329
S'NOUN'
p1330
F1.0
s(lp1331
g113
atp1332
a(g1162
(dp1333
g861
F0.001131
sS'CONJ'
p1334
F0.998072
sS'NOUN'
p1335
F0.000173
sS'ADP'
p1336
F0.000598
sS'PRT'
p1337
F2.6e-05
s(lp1338
g125
atp1339
a(S'rozvojovou'
p1340
(dp1341
S'ADJ'
p1342
F1.0
s(lp1343
g152
atp1344
a(S'politikou'
p1345
(dp1346
S'NOUN'
p1347
F1.0
s(lp1348
g140
atp1349
a(g226
(dp1350
g202
F1.0
s(lp1351
g226
atp1352
a(S'aby'
p1353
(dp1354
g861
F0.000249
sS'CONJ'
p1355
F0.999751
s(lp1356
g146
atp1357
a(S'tak'
p1358
(dp1359
g861
F0.716807
sS'CONJ'
p1360
F0.018825
sS'PRON'
p1361
F0.264367
s(lp1362
tp1363
a(S'obe'
p1364
(dp1365
S'NUM'
p1366
F1.0
s(lp1367
g186
atp1368
a(S'boli'
p1369
(dp1370
S'VERB'
p1371
F0.9999990000000001
s(lp1372
g193
atp1373
a(S'\xc3\xba\xc4\x8dinnej\xc5\xa1ie'
p1374
(dp1375
S'ADV'
p1376
F0.06761
sS'ADJ'
p1377
F0.93239
s(lp1378
g200
atp1379
a(g205
(dp1380
g202
F1.0
s(lp1381
g205
atp1382
a(S'identifikuje'
p1383
(dp1384
S'VERB'
p1385
F1.0
s(lp1386
g251
atp1387
a(S'preto'
p1388
(dp1389
S'PRON'
p1390
F0.687139
sS'CONJ'
p1391
F0.221587
sg861
F0.091273
s(lp1392
g224
atp1393
a(S'\xc5\xa5a\xc5\xbekosti'
p1394
(dp1395
S'NOUN'
p1396
F1.0
s(lp1397
g265
atp1398
a(g226
(dp1399
g202
F1.0
s(lp1400
g226
atp1401
a(S'ktor\xc3\xa9'
p1402
(dp1403
S'PRON'
p1404
F1.0
s(lp1405
g271
atp1406
a(S'existuj\xc3\xba'
p1407
(dp1408
S'VERB'
p1409
F1.0
s(lp1410
g277
atp1411
a(S'v'
p1412
(dp1413
g861
F0.00016
sS'ADP'
p1414
F0.999841
s(lp1415
g284
atp1416
a(S'rozvojov\xc3\xbdch'
p1417
(dp1418
S'ADJ'
p1419
F1.0
s(lp1420
g292
atp1421
a(S'krajin\xc3\xa1ch'
p1422
(dp1423
S'NOUN'
p1424
F1.0
s(lp1425
g298
atp1426
a(g1412
(dp1427
g861
F0.000112
sS'ADP'
p1428
F0.999888
s(lp1429
g316
atp1430
a(S's\xc3\xbavislosti'
p1431
(dp1432
S'NOUN'
p1433
F1.0
s(lp1434
g322
atp1435
a(S's'
p1436
(dp1437
g861
F0.002631
sS'CONJ'
p1438
F6.5e-05
sS'NOUN'
p1439
F1.3000000000000001e-05
sS'ADP'
p1440
F0.997269
sS'PRT'
p1441
F2.1e-05
s(lp1442
g328
atp1443
a(S'mobiliz\xc3\xa1ciou'
p1444
(dp1445
S'NOUN'
p1446
F1.0
s(lp1447
g334
atp1448
a(S'da\xc5\x88ov\xc3\xbdch'
p1449
(dp1450
S'ADJ'
p1451
F1.0
s(lp1452
g353
atp1453
a(S'pr\xc3\xadjmov'
p1454
(dp1455
S'NOUN'
p1456
F1.0
s(lp1457
g347
atp1458
a(g202
(dp1459
g202
F1.0
s(lp1460
g202
atp1461
asS'pl'
p1462
(lp1463
(S'celem'
p1464
(dp1465
S'NOUN'
p1466
F0.889043
sS'ADP'
p1467
F0.110957
s(lp1468
g16
atp1469
a(S'sprawozdania'
p1470
(dp1471
S'NOUN'
p1472
F1.0
s(lp1473
g34
atp1474
a(S'jest'
p1475
(dp1476
S'VERB'
p1477
F1.0
s(lp1478
g41
atp1479
a(S'potrzeba'
p1480
(dp1481
S'ADJ'
p1482
F0.025677
sS'NOUN'
p1483
F0.974323
s(lp1484
g56
atp1485
a(S'propagowania'
p1486
(dp1487
S'VERB'
p1488
F1.0
s(lp1489
g68
atp1490
a(S'wi\xc4\x99kszego'
p1491
(dp1492
S'ADJ'
p1493
F1.0
s(lp1494
g85
atp1495
a(S'efektu'
p1496
(dp1497
S'NOUN'
p1498
F1.0
s(lp1499
tp1500
a(S'synergii'
p1501
(dp1502
S'VERB'
p1503
F0.000514
sS'NOUN'
p1504
F0.999486
s(lp1505
g91
atp1506
a(S'mi\xc4\x99dzy'
p1507
(dp1508
S'ADP'
p1509
F1.0
s(lp1510
g98
atp1511
a(S'polityk\xc4\x85'
p1512
(dp1513
S'NOUN'
p1514
F1.0
s(lp1515
g113
atp1516
a(S'podatkow\xc4\x85'
p1517
(dp1518
S'ADJ'
p1519
F1.0
s(lp1520
g119
atp1521
a(g1162
(dp1522
S'ADV'
p1523
F3e-06
sS'NOUN'
p1524
F6e-06
sS'ADP'
p1525
F2e-06
sS'PRT'
p1526
F0.000144
sS'VERB'
p1527
F0.00025499999999999996
sg861
F2.8e-05
sS'CONJ'
p1528
F0.999558
sS'ADJ'
p1529
F0.0
s(lp1530
g125
atp1531
a(S'polityk\xc4\x85'
p1532
(dp1533
S'NOUN'
p1534
F1.0
s(lp1535
g140
atp1536
a(S'rozwoju'
p1537
(dp1538
S'NOUN'
p1539
F1.0
s(lp1540
g152
atp1541
a(g226
(dp1542
g861
F0.0
sg202
F1.0
s(lp1543
g226
atp1544
a(S'dzi\xc4\x99ki'
p1545
(dp1546
S'NOUN'
p1547
F0.00029
sS'ADP'
p1548
F0.99971
s(lp1549
tp1550
a(S'czemu'
p1551
(dp1552
S'ADV'
p1553
F0.001954
sS'CONJ'
p1554
F2.9e-05
sS'NOUN'
p1555
F0.998017
s(lp1556
g146
atp1557
a(S'obydwa'
p1558
(dp1559
S'NUM'
p1560
F1.0
s(lp1561
g186
atp1562
a(S'obszary'
p1563
(dp1564
S'NOUN'
p1565
F1.0
s(lp1566
g251
atp1567
a(S'zyskaj\xc4\x85'
p1568
(dp1569
S'VERB'
p1570
F1.0
s(lp1571
g251
atp1572
a(S'na'
p1573
(dp1574
S'PRT'
p1575
F1.6e-05
sS'VERB'
p1576
F0.0
sS'NOUN'
p1577
F3e-06
sS'ADP'
p1578
F0.9999779999999999
sg861
F3e-06
s(lp1579
tp1580
a(S'skuteczno\xc5\x9bci'
p1581
(dp1582
S'NOUN'
p1583
F1.0
s(lp1584
g200
atp1585
a(g205
(dp1586
g202
F1.0
s(lp1587
g205
atp1588
a(S'w'
p1589
(dp1590
S'ADJ'
p1591
F0.0
sg861
F1e-06
sS'NOUN'
p1592
F0.0
sS'ADP'
p1593
F0.9999990000000001
s(lp1594
g212
atp1595
a(S'tym'
p1596
(dp1597
S'ADV'
p1598
F1e-06
sS'NOUN'
p1599
F0.022785999999999997
sS'CONJ'
p1600
F0.0
sS'ADJ'
p1601
F0.977214
sS'PRT'
p1602
F0.0
s(lp1603
g218
atp1604
a(S'celu'
p1605
(dp1606
S'NOUN'
p1607
F1.0
s(lp1608
g224
atp1609
a(g1589
(dp1610
S'ADJ'
p1611
F0.0
sg861
F0.0
sS'NOUN'
p1612
F0.0
sS'ADP'
p1613
F1.0
s(lp1614
g234
atp1615
a(S'sprawozdaniu'
p1616
(dp1617
S'NOUN'
p1618
F1.0
s(lp1619
tp1620
a(S'wskazano'
p1621
(dp1622
S'ADV'
p1623
F0.025959
sS'ADJ'
p1624
F0.0005729999999999999
sS'VERB'
p1625
F0.9560449999999999
sS'NOUN'
p1626
F0.017422
s(lp1627
g251
atp1628
a(S'na'
p1629
(dp1630
S'PRT'
p1631
F0.003789
sS'VERB'
p1632
F8.3e-05
sS'NOUN'
p1633
F0.000243
sS'ADP'
p1634
F0.9936059999999999
sg861
F0.002278
s(lp1635
g259
atp1636
a(S'trudno\xc5\x9bci'
p1637
(dp1638
S'NOUN'
p1639
F1.0
s(lp1640
g265
atp1641
a(S'wyst\xc4\x99puj\xc4\x85ce'
p1642
(dp1643
S'VERB'
p1644
F1.0
s(lp1645
g277
atp1646
a(g1589
(dp1647
S'ADJ'
p1648
F0.0
sg861
F0.0
sS'NOUN'
p1649
F0.0
sS'ADP'
p1650
F1.0
s(lp1651
g284
atp1652
a(S'krajach'
p1653
(dp1654
S'NOUN'
p1655
F1.0
s(lp1656
g298
atp1657
a(S'rozwijaj\xc4\x85cych'
p1658
(dp1659
S'VERB'
p1660
F1.0
s(lp1661
tp1662
a(S'si\xc4\x99'
p1663
(dp1664
S'PRT'
p1665
F1.0
s(lp1666
g292
atp1667
a(g1589
(dp1668
S'NOUN'
p1669
F3e-06
sS'ADJ'
p1670
F1.2e-05
sS'ADP'
p1671
F0.999986
sg861
F0.0
s(lp1672
g316
atp1673
a(S'kwestii'
p1674
(dp1675
S'NOUN'
p1676
F1.0
s(lp1677
g322
atp1678
a(S'mobilizacji'
p1679
(dp1680
S'NOUN'
p1681
F1.0
s(lp1682
g334
atp1683
a(S'dochod\xc3\xb3w'
p1684
(dp1685
S'NOUN'
p1686
F1.0
s(lp1687
g347
atp1688
a(S'podatkowych'
p1689
(dp1690
S'ADJ'
p1691
F1.0
s(lp1692
g353
atp1693
a(g202
(dp1694
g202
F1.0
s(lp1695
g202
atp1696
asS'sl'
p1697
(lp1698
(S'cilj'
p1699
(dp1700
S'NOUN'
p1701
F1.0
s(lp1702
g16
atp1703
a(S'tega'
p1704
(dp1705
S'PRON'
p1706
F0.9999999999999999
s(lp1707
g28
atp1708
a(S'poro\xc4\x8dila'
p1709
(dp1710
S'VERB'
p1711
F0.003126
sS'NOUN'
p1712
F0.996874
s(lp1713
g34
atp1714
a(S'je'
p1715
(dp1716
S'PRON'
p1717
F6.9e-05
sS'VERB'
p1718
F0.999928
sg861
F4e-06
s(lp1719
g41
atp1720
a(S'potreba'
p1721
(dp1722
S'NOUN'
p1723
F1.0
s(lp1724
tp1725
a(S'po'
p1726
(dp1727
g861
F9e-06
sS'ADP'
p1728
F0.9999910000000001
s(lp1729
g56
atp1730
a(S'spodbujanju'
p1731
(dp1732
S'NOUN'
p1733
F1.0
s(lp1734
g68
atp1735
a(S've\xc4\x8dje'
p1736
(dp1737
S'ADJ'
p1738
F1.0
s(lp1739
g85
atp1740
a(S'sinergije'
p1741
(dp1742
S'NOUN'
p1743
F1.0
s(lp1744
g91
atp1745
a(S'med'
p1746
(dp1747
S'NOUN'
p1748
F1e-06
sS'ADP'
p1749
F0.999999
s(lp1750
g98
atp1751
a(S'dav\xc4\x8dnimi'
p1752
(dp1753
S'ADJ'
p1754
F1.0
s(lp1755
g119
atp1756
a(S'in'
p1757
(dp1758
S'ADV'
p1759
F5e-06
sg861
F3e-06
sS'CONJ'
p1760
F0.999991
sS'NOUN'
p1761
F1e-06
s(lp1762
g125
atp1763
a(S'razvojnimi'
p1764
(dp1765
S'ADJ'
p1766
F1.0
s(lp1767
g152
atp1768
a(S'politikami'
p1769
(dp1770
S'ADV'
p1771
F0.004187
sS'ADJ'
p1772
F0.000883
sS'VERB'
p1773
F0.005510999999999999
sS'NOUN'
p1774
F0.989424
s(lp1775
g140
atp1776
a(g226
(dp1777
g202
F1.0
s(lp1778
g226
atp1779
a(g1436
(dp1780
S'VERB'
p1781
F0.000106
sS'NOUN'
p1782
F2.8e-05
sS'ADP'
p1783
F0.9998659999999999
s(lp1784
g146
atp1785
a(S'\xc4\x8dimer'
p1786
(dp1787
S'PRON'
p1788
F1.0
s(lp1789
g146
atp1790
a(S'bi'
p1791
(dp1792
g861
F1.2e-05
sS'VERB'
p1793
F0.999988
s(lp1794
tp1795
a(S'bili'
p1796
(dp1797
S'VERB'
p1798
F1.0
s(lp1799
g146
atp1800
a(S'obe'
p1801
(dp1802
S'PRON'
p1803
F1.0
s(lp1804
g186
atp1805
a(S'u\xc4\x8dinkovitej\xc5\xa1i'
p1806
(dp1807
S'ADJ'
p1808
F1.0
s(lp1809
g200
atp1810
a(g205
(dp1811
g202
F1.0
s(lp1812
g205
atp1813
a(g1412
(dp1814
S'ADP'
p1815
F1.0
s(lp1816
g212
atp1817
a(S'ta'
p1818
(dp1819
S'PRON'
p1820
F1.000001
s(lp1821
g218
atp1822
a(S'namen'
p1823
(dp1824
S'NOUN'
p1825
F1.0
s(lp1826
g224
atp1827
a(S'opredeljuje'
p1828
(dp1829
S'VERB'
p1830
F1.0
s(lp1831
g251
atp1832
a(S'te\xc5\xbeave'
p1833
(dp1834
S'NOUN'
p1835
F1.0
s(lp1836
g265
atp1837
a(g226
(dp1838
g202
F1.0
s(lp1839
tp1840
a(S'ki'
p1841
(dp1842
S'CONJ'
p1843
F1.0
s(lp1844
g271
atp1845
a(g1412
(dp1846
S'ADP'
p1847
F1.0
s(lp1848
g284
atp1849
a(S'dr\xc5\xbeavah'
p1850
(dp1851
S'NOUN'
p1852
F1.0
s(lp1853
g298
atp1854
a(g1412
(dp1855
S'ADP'
p1856
F1.0
s(lp1857
tp1858
a(S'razvoju'
p1859
(dp1860
S'NOUN'
p1861
F1.0
s(lp1862
g292
atp1863
a(S'obstajajo'
p1864
(dp1865
S'VERB'
p1866
F1.0
s(lp1867
g277
atp1868
a(S'glede'
p1869
(dp1870
S'ADV'
p1871
F0.048169
sS'ADP'
p1872
F0.951831
s(lp1873
g322
atp1874
a(S'mobilizacije'
p1875
(dp1876
S'ADJ'
p1877
F4.5e-05
sS'VERB'
p1878
F0.005438
sS'NOUN'
p1879
F0.994518
s(lp1880
g334
atp1881
a(S'dav\xc4\x8dnih'
p1882
(dp1883
S'ADJ'
p1884
F1.0
s(lp1885
g353
atp1886
a(S'prihodkov'
p1887
(dp1888
S'NOUN'
p1889
F1.0
s(lp1890
g347
atp1891
a(g202
(dp1892
g202
F1.0
s(lp1893
g202
atp1894
asS'es'
p1895
(lp1896
(S'el'
p1897
(dp1898
S'PRON'
p1899
F1e-05
sS'DET'
p1900
F0.99999
s(lp1901
g9
atp1902
a(S'objeto'
p1903
(dp1904
S'NOUN'
p1905
F1.0
s(lp1906
g16
atp1907
a(S'del'
p1908
(dp1909
S'ADP'
p1910
F1.0
s(lp1911
g22
atp1912
a(S'presente'
p1913
(dp1914
S'VERB'
p1915
F9e-06
sS'ADJ'
p1916
F0.999991
s(lp1917
g28
atp1918
a(S'informe'
p1919
(dp1920
S'VERB'
p1921
F0.008804
sS'NOUN'
p1922
F0.991196
s(lp1923
g34
atp1924
a(S'es'
p1925
(dp1926
S'VERB'
p1927
F1.0
s(lp1928
g41
atp1929
a(S'la'
p1930
(dp1931
g861
F1e-06
sS'DET'
p1932
F0.999999
sS'NOUN'
p1933
F0.0
sS'PRON'
p1934
F0.0
s(lp1935
g49
atp1936
a(S'necesidad'
p1937
(dp1938
S'NOUN'
p1939
F1.0
s(lp1940
g56
atp1941
a(S'de'
p1942
(dp1943
g861
F0.0
sS'CONJ'
p1944
F0.345844
sS'ADP'
p1945
F0.654156
s(lp1946
g62
atp1947
a(S'mejorar'
p1948
(dp1949
S'VERB'
p1950
F1.0
s(lp1951
g68
atp1952
a(S'las'
p1953
(dp1954
S'PRON'
p1955
F2e-06
sS'DET'
p1956
F0.999998
s(lp1957
tp1958
a(S'sinergias'
p1959
(dp1960
S'ADJ'
p1961
F0.006008
sS'NOUN'
p1962
F0.993992
s(lp1963
g91
atp1964
a(S'entre'
p1965
(dp1966
g861
F3e-06
sS'ADP'
p1967
F0.999997
s(lp1968
g98
atp1969
a(S'las'
p1970
(dp1971
S'PRON'
p1972
F0.0
sS'DET'
p1973
F1.0
s(lp1974
tp1975
a(S'pol\xc3\xadticas'
p1976
(dp1977
S'ADJ'
p1978
F0.022857
sS'NOUN'
p1979
F0.977143
s(lp1980
g113
atp1981
a(S'fiscales'
p1982
(dp1983
S'NOUN'
p1984
F0.022106
sS'ADJ'
p1985
F0.977894
s(lp1986
g119
atp1987
a(S'y'
p1988
(dp1989
g861
F0.000319
sS'CONJ'
p1990
F0.999681
s(lp1991
g125
atp1992
a(S'de'
p1993
(dp1994
g861
F6e-06
sS'CONJ'
p1995
F4.1e-05
sS'ADP'
p1996
F0.999953
s(lp1997
tp1998
a(S'desarrollo'
p1999
(dp2000
S'NOUN'
p2001
F1.0
s(lp2002
g152
atp2003
a(S'para'
p2004
(dp2005
S'CONJ'
p2006
F0.952807
sS'ADP'
p2007
F0.047193
s(lp2008
g146
atp2009
a(S'aumentar'
p2010
(dp2011
S'VERB'
p2012
F1.0
s(lp2013
g193
atp2014
a(S'su'
p2015
(dp2016
S'PRON'
p2017
F1.0
s(lp2018
g186
atp2019
a(S'eficacia'
p2020
(dp2021
S'NOUN'
p2022
F1.0
s(lp2023
g200
atp2024
a(g1988
(dp2025
g861
F0.00897
sS'CONJ'
p2026
F0.99103
s(lp2027
g205
atp2028
a(g226
(dp2029
g202
F1.0
s(lp2030
g226
atp2031
a(g1162
(dp2032
g861
F0.00010300000000000001
sS'CONJ'
p2033
F0.000102
sS'ADP'
p2034
F0.999795
s(lp2035
g212
atp2036
a(S'tal'
p2037
(dp2038
S'ADJ'
p2039
F1.0
s(lp2040
g218
atp2041
a(S'fin'
p2042
(dp2043
g861
F1e-06
sS'NOUN'
p2044
F0.999999
s(lp2045
g224
atp2046
a(g226
(dp2047
g202
F1.0
s(lp2048
g226
atp2049
a(S'se'
p2050
(dp2051
S'PRON'
p2052
F1.0
sS'VERB'
p2053
F0.0
s(lp2054
g234
atp2055
a(S'definen'
p2056
(dp2057
S'VERB'
p2058
F1.0
s(lp2059
g251
atp2060
a(S'las'
p2061
(dp2062
S'PRON'
p2063
F0.0
sS'DET'
p2064
F1.0
s(lp2065
g259
atp2066
a(S'dificultades'
p2067
(dp2068
S'NOUN'
p2069
F1.0
s(lp2070
tp2071
a(g1162
(dp2072
g861
F0.000427
sS'CONJ'
p2073
F3e-06
sS'ADP'
p2074
F0.99957
s(lp2075
tp2076
a(S'las'
p2077
(dp2078
S'PRON'
p2079
F0.0
sS'DET'
p2080
F1.0
s(lp2081
g265
atp2082
a(S'que'
p2083
(dp2084
g861
F0.0
sS'CONJ'
p2085
F1.0
s(lp2086
g271
atp2087
a(S'deben'
p2088
(dp2089
S'VERB'
p2090
F1.0
s(lp2091
g277
atp2092
a(S'hacer'
p2093
(dp2094
S'VERB'
p2095
F1.0
s(lp2096
g328
atp2097
a(S'frente'
p2098
(dp2099
S'ADV'
p2100
F0.983944
sS'NOUN'
p2101
F0.016056
s(lp2102
g284
atp2103
a(S'los'
p2104
(dp2105
S'PRON'
p2106
F0.00025
sS'DET'
p2107
F0.99975
s(lp2108
g292
atp2109
a(S'pa\xc3\xadses'
p2110
(dp2111
S'NOUN'
p2112
F1.0
s(lp2113
g298
atp2114
a(S'en'
p2115
(dp2116
g861
F1.8e-05
sS'CONJ'
p2117
F1e-05
sS'ADP'
p2118
F0.999972
s(lp2119
tp2120
a(S'desarrollo'
p2121
(dp2122
S'NOUN'
p2123
F1.0
s(lp2124
g292
atp2125
a(S'al'
p2126
(dp2127
S'CONJ'
p2128
F0.963963
sS'ADP'
p2129
F0.036037
s(lp2130
g547
atp2131
a(S'movilizar'
p2132
(dp2133
S'VERB'
p2134
F1.0
s(lp2135
g334
atp2136
a(S'los'
p2137
(dp2138
S'PRON'
p2139
F3e-06
sS'DET'
p2140
F0.999997
s(lp2141
g347
atp2142
a(S'ingresos'
p2143
(dp2144
S'NOUN'
p2145
F1.0
s(lp2146
tp2147
a(S'mediante'
p2148
(dp2149
S'ADP'
p2150
F1.0
s(lp2151
g347
atp2152
a(S'el'
p2153
(dp2154
S'PRON'
p2155
F5e-06
sS'DET'
p2156
F0.999995
s(lp2157
g353
atp2158
a(S'pago'
p2159
(dp2160
S'NOUN'
p2161
F1.0
s(lp2162
tp2163
a(S'de'
p2164
(dp2165
g861
F5e-06
sS'CONJ'
p2166
F0.007164
sS'ADP'
p2167
F0.992831
s(lp2168
g341
atp2169
a(S'impuestos'
p2170
(dp2171
S'VERB'
p2172
F0.856965
sS'NOUN'
p2173
F0.143035
s(lp2174
g353
atp2175
a(g202
(dp2176
g202
F1.0
s(lp2177
g202
atp2178
as.