(dp0
S'fr'
p1
(lp2
(S'selon'
p3
(dp4
S'ADP'
p5
F1.0
s(lp6
S'according'
p7
atp8
a(S'les'
p9
(dp10
S'PRON'
p11
F5.6e-05
sS'DET'
p12
F0.999943
sS'ADP'
p13
F2e-06
s(lp14
S'the'
p15
atp16
a(S'autorit\xc3\xa9s'
p17
(dp18
S'NOUN'
p19
F1.0
s(lp20
S'authorities'
p21
atp22
a(S'irlandaises'
p23
(dp24
S'NOUN'
p25
F0.012186
sS'ADJ'
p26
F0.987814
s(lp27
S'irish'
p28
atp29
a(S','
p30
(dp31
S'.'
p32
F1.0
s(lp33
g30
atp34
a(S'cependant'
p35
(dp36
S'ADV'
p37
F1.0
s(lp38
S'however'
p39
atp40
a(g30
(dp41
g32
F1.0
s(lp42
g30
atp43
a(S'la'
p44
(dp45
S'PRON'
p46
F0.001202
sS'DET'
p47
F0.998798
sS'NOUN'
p48
F0.0
s(lp49
S'the'
p50
atp51
a(S'date'
p52
(dp53
S'VERB'
p54
F0.001207
sS'NOUN'
p55
F0.998793
s(lp56
S'date'
p57
atp58
a(S'de'
p59
(dp60
S'ADP'
p61
F1.0
s(lp62
S'for'
p63
atp64
a(S'cl\xc3\xb4ture'
p65
(dp66
S'VERB'
p67
F0.00114
sS'NOUN'
p68
F0.99886
s(lp69
S'closing'
p70
atp71
a(S'des'
p72
(dp73
S'DET'
p74
F2.2e-05
sS'ADP'
p75
F0.999978
s(lp76
tp77
a(S'demandes'
p78
(dp79
S'VERB'
p80
F0.0
sS'NOUN'
p81
F1.0
s(lp82
S'applications'
p83
atp84
a(S'au'
p85
(dp86
S'ADP'
p87
F1.0
s(lp88
tp89
a(S'titre'
p90
(dp91
S'VERB'
p92
F0.0
sS'NOUN'
p93
F1.0
s(lp94
S'under'
p95
atp96
a(S'du'
p97
(dp98
S'ADP'
p99
F1.0
s(lp100
S'the'
p101
atp102
a(S'programme'
p103
(dp104
S'VERB'
p105
F0.0
sS'NOUN'
p106
F1.0
s(lp107
S'scheme'
p108
atp109
a(S'est'
p110
(dp111
S'VERB'
p112
F0.999892
sS'NOUN'
p113
F0.000108
s(lp114
S'is'
p115
atp116
a(S'fix\xc3\xa9e'
p117
(dp118
S'VERB'
p119
F0.979533
sS'ADJ'
p120
F0.020467
s(lp121
tp122
a(S'au'
p123
(dp124
S'ADP'
p125
F1.0
s(lp126
tp127
a(S'30'
p128
(dp129
S'X'
p130
F7.1e-05
sS'NUM'
p131
F0.999929
s(lp132
S'30'
p133
atp134
a(S'avril'
p135
(dp136
S'NOUN'
p137
F1.0
s(lp138
S'april'
p139
atp140
a(S'2008'
p141
(dp142
g130
F0.004613
sS'NUM'
p143
F0.995387
s(lp144
S'2008'
p145
atp146
a(g30
(dp147
g32
F1.0
s(lp148
g30
atp149
a(S'date'
p150
(dp151
S'VERB'
p152
F0.038619
sS'NOUN'
p153
F0.961381
s(lp154
S'date'
p155
atp156
a(S'apr\xc3\xa8s'
p157
(dp158
S'ADV'
p159
F0.011514
sS'CONJ'
p160
F0.721494
sS'ADP'
p161
F0.266992
s(lp162
S'after'
p163
atp164
a(S'laquelle'
p165
(dp166
S'PRON'
p167
F1.0
s(lp168
S'which'
p169
atp170
a(S'on'
p171
(dp172
S'PRON'
p173
F1.0
s(lp174
S'be'
p175
atp176
a(S'en'
p177
(dp178
S'PRON'
p179
F1.0
sS'ADP'
p180
F0.0
s(lp181
tp182
a(S'saura'
p183
(dp184
S'VERB'
p185
F1.0
s(lp186
S'will'
p187
atp188
a(S'plus'
p189
(dp190
S'ADV'
p191
F0.997726
sS'VERB'
p192
F0.002274
s(lp193
tp194
a(S'sur'
p195
(dp196
S'ADP'
p197
F1.0
s(lp198
S'clearer'
p199
atp200
a(S'le'
p201
(dp202
S'PRON'
p203
F6.2e-05
sS'DET'
p204
F0.999938
s(lp205
S'the'
p206
atp207
a(S'niveau'
p208
(dp209
S'NOUN'
p210
F1.0
s(lp211
S'level'
p212
atp213
a(S'de'
p214
(dp215
S'ADP'
p216
F1.0
s(lp217
S'of'
p218
atp219
a(S'participation'
p220
(dp221
S'NOUN'
p222
F1.0
s(lp223
S'uptake'
p224
atp225
a(S'au'
p226
(dp227
S'ADP'
p228
F1.0
s(lp229
S'the'
p230
atp231
a(S'programme'
p232
(dp233
S'VERB'
p234
F0.0
sS'NOUN'
p235
F1.0
s(lp236
S'scheme'
p237
atp238
a(g32
(dp239
g32
F1.0
s(lp240
g32
atp241
asS'en'
p242
(lp243
(g39
(dp244
S'ADV'
p245
F1.0
s(lp246
g39
atp247
a(g30
(dp248
g32
F1.0
s(lp249
g30
atp250
a(g7
(dp251
S'VERB'
p252
F0.999951
sS'ADJ'
p253
F4.9e-05
s(lp254
g7
atp255
a(S'to'
p256
(dp257
S'ADV'
p258
F1e-06
sS'PRT'
p259
F0.999996
sS'ADP'
p260
F3e-06
s(lp261
g256
atp262
a(g15
(dp263
S'NOUN'
p264
F1e-06
sS'DET'
p265
F0.999999
s(lp266
g15
atp267
a(g28
(dp268
S'NOUN'
p269
F0.08887099999999999
sS'VERB'
p270
F6.2e-05
sS'ADJ'
p271
F0.911067
s(lp272
g28
atp273
a(g21
(dp274
S'NOUN'
p275
F1.0
s(lp276
g21
atp277
a(g30
(dp278
g32
F1.0
s(lp279
g30
atp280
a(g50
(dp281
S'NOUN'
p282
F4e-06
sS'DET'
p283
F0.999996
s(lp284
g50
atp285
a(g70
(dp286
S'ADJ'
p287
F0.168951
sS'VERB'
p288
F0.095077
sS'NOUN'
p289
F0.735972
s(lp290
g70
atp291
a(g57
(dp292
S'VERB'
p293
F0.002274
sS'NOUN'
p294
F0.997725
s(lp295
g57
atp296
a(g63
(dp297
S'ADP'
p298
F1.0
s(lp299
g63
atp300
a(g83
(dp301
S'NOUN'
p302
F1.0
s(lp303
g83
atp304
a(g95
(dp305
S'ADV'
p306
F0.000184
sS'ADP'
p307
F0.999816
s(lp308
g95
atp309
a(g101
(dp310
S'NOUN'
p311
F1e-06
sS'DET'
p312
F0.999999
s(lp313
g101
atp314
a(g108
(dp315
S'VERB'
p316
F4.9999999999999996e-06
sS'NOUN'
p317
F0.999995
s(lp318
g108
atp319
a(g115
(dp320
S'VERB'
p321
F1.0
s(lp322
g115
atp323
a(g133
(dp324
S'ADV'
p325
F0.000187
sS'NOUN'
p326
F0.000722
sS'NUM'
p327
F0.996122
sS'ADJ'
p328
F0.002969
sg130
F0.0
s(lp329
g133
atp330
a(g139
(dp331
S'ADJ'
p332
F0.032364
sS'VERB'
p333
F3e-05
sS'NOUN'
p334
F0.9676069999999999
s(lp335
g139
atp336
a(g145
(dp337
S'ADV'
p338
F0.003639
sS'ADJ'
p339
F0.004198
sS'NUM'
p340
F0.982713
sS'NOUN'
p341
F0.009446
sg130
F4e-06
s(lp342
g145
atp343
a(g30
(dp344
g32
F1.0
s(lp345
g30
atp346
a(g163
(dp347
S'ADV'
p348
F0.000135
sS'ADP'
p349
F0.999865
s(lp350
g163
atp351
a(g169
(dp352
S'DET'
p353
F1.0
s(lp354
g169
atp355
a(g155
(dp356
S'VERB'
p357
F0.650054
sS'NOUN'
p358
F0.349946
s(lp359
g155
atp360
a(g206
(dp361
S'NOUN'
p362
F2e-06
sS'DET'
p363
F0.999998
s(lp364
g206
atp365
a(g212
(dp366
S'ADJ'
p367
F0.003926
sS'VERB'
p368
F5.6e-05
sS'NOUN'
p369
F0.996018
s(lp370
g212
atp371
a(g218
(dp372
S'ADP'
p373
F1.0
s(lp374
g218
atp375
a(g224
(dp376
S'NOUN'
p377
F1.0
s(lp378
g224
atp379
a(S'of'
p380
(dp381
S'ADP'
p382
F1.0
s(lp383
g380
atp384
a(g230
(dp385
S'NOUN'
p386
F1e-06
sS'DET'
p387
F0.999999
s(lp388
g230
atp389
a(g237
(dp390
S'VERB'
p391
F9.999999999999999e-06
sS'NOUN'
p392
F0.99999
s(lp393
g237
atp394
a(g187
(dp395
S'VERB'
p396
F0.999992
sS'NOUN'
p397
F8e-06
s(lp398
g187
atp399
a(g175
(dp400
S'VERB'
p401
F1.0
s(lp402
g175
atp403
a(g199
(dp404
S'NOUN'
p405
F0.015269
sS'ADJ'
p406
F0.984731
s(lp407
g199
atp408
a(g32
(dp409
g32
F1.0
s(lp410
g32
atp411
asS'nl'
p412
(lp413
(S'volgens'
p414
(dp415
S'ADP'
p416
F1.0
s(lp417
g7
atp418
a(S'de'
p419
(dp420
S'DET'
p421
F1.0
s(lp422
g15
atp423
a(S'ierse'
p424
(dp425
S'NOUN'
p426
F0.136027
sS'ADJ'
p427
F0.863973
s(lp428
g28
atp429
a(S'overheid'
p430
(dp431
S'NOUN'
p432
F1.0
s(lp433
g21
atp434
a(S'is'
p435
(dp436
S'VERB'
p437
F1.0
s(lp438
g30
atp439
a(S'echter'
p440
(dp441
S'ADV'
p442
F0.999989
sS'ADJ'
p443
F1.1e-05
s(lp444
g39
atp445
a(S'de'
p446
(dp447
S'DET'
p448
F1.0
s(lp449
g50
atp450
a(S'indieningstermijn'
p451
(dp452
S'NOUN'
p453
F1.0
s(lp454
g70
atp455
a(S'voor'
p456
(dp457
S'ADV'
p458
F0.003366
sS'CONJ'
p459
F3e-06
sS'NOUN'
p460
F0.0
sS'ADP'
p461
F0.996631
s(lp462
g63
atp463
a(S'aanvragen'
p464
(dp465
S'VERB'
p466
F0.00024200000000000003
sS'NOUN'
p467
F0.999758
s(lp468
g83
atp469
a(S'onder'
p470
(dp471
S'ADV'
p472
F1.7e-05
sS'ADP'
p473
F0.999983
s(lp474
g95
atp475
a(S'het'
p476
(dp477
S'PRON'
p478
F0.000927
sS'DET'
p479
F0.999073
s(lp480
g101
atp481
a(S'stelsel'
p482
(dp483
S'NOUN'
p484
F1.0
s(lp485
g108
atp486
a(S'de'
p487
(dp488
S'DET'
p489
F1.0
s(lp490
tp491
a(S'30e'
p492
(dp493
S'ADJ'
p494
F0.012618
sS'NOUN'
p495
F0.987382
s(lp496
g133
atp497
a(S'april'
p498
(dp499
S'NOUN'
p500
F1.0
s(lp501
g139
atp502
a(S'2008'
p503
(dp504
S'NUM'
p505
F1.0
s(lp506
g145
atp507
a(S';'
p508
(dp509
g32
F1.0
s(lp510
g30
atp511
a(S'na'
p512
(dp513
S'ADV'
p514
F0.014848
sS'CONJ'
p515
F0.002847
sS'ADP'
p516
F0.982306
s(lp517
g163
atp518
a(S'deze'
p519
(dp520
S'PRON'
p521
F1.0
s(lp522
g169
atp523
a(S'datum'
p524
(dp525
S'NOUN'
p526
F1.0
s(lp527
g155
atp528
a(S'zal'
p529
(dp530
S'VERB'
p531
F1.0
s(lp532
g187
atp533
a(S'de'
p534
(dp535
S'DET'
p536
F1.0
s(lp537
g206
atp538
a(S'mate'
p539
(dp540
S'NOUN'
p541
F1.0
s(lp542
g212
atp543
a(S'van'
p544
(dp545
S'ADP'
p546
F1.0
s(lp547
g218
atp548
a(S'gebruikmaking'
p549
(dp550
S'NOUN'
p551
F1.0
s(lp552
g224
atp553
a(S'van'
p554
(dp555
S'ADP'
p556
F1.0
s(lp557
g380
atp558
a(S'het'
p559
(dp560
S'PRON'
p561
F0.000927
sS'DET'
p562
F0.999073
s(lp563
g230
atp564
a(S'stelsel'
p565
(dp566
S'NOUN'
p567
F1.0
s(lp568
g237
atp569
a(S'duidelijker'
p570
(dp571
S'ADJ'
p572
F1.0
s(lp573
g199
atp574
a(S'zijn'
p575
(dp576
S'PRON'
p577
F6.5e-05
sS'VERB'
p578
F0.996388
sS'NOUN'
p579
F0.003547
s(lp580
g175
atp581
a(g32
(dp582
g32
F1.0
s(lp583
g32
atp584
asS'de'
p585
(lp586
(S'doch'
p587
(dp588
S'ADV'
p589
F0.68848
sS'CONJ'
p590
F0.31152
s(lp591
g39
atp592
a(S'nach'
p593
(dp594
S'ADV'
p595
F0.011792
sS'ADP'
p596
F0.987524
s(lp597
tp598
a(S'auskunft'
p599
(dp600
S'ADJ'
p601
F0.005377
sS'NOUN'
p602
F0.994344
s(lp603
g7
atp604
a(S'der'
p605
(dp606
S'PRON'
p607
F8.7e-05
sS'DET'
p608
F0.999905
s(lp609
g15
atp610
a(S'irischen'
p611
(dp612
S'ADJ'
p613
F1.0
s(lp614
g28
atp615
a(S'beh\xc3\xb6rden'
p616
(dp617
S'ADJ'
p618
F0.000556
sS'NOUN'
p619
F0.998956
s(lp620
g21
atp621
a(S'k\xc3\xb6nnen'
p622
(dp623
S'VERB'
p624
F0.999986
s(lp625
g30
atp626
a(S'lediglich'
p627
(dp628
S'ADV'
p629
F1.0
s(lp630
g70
atp631
a(S'bis'
p632
(dp633
S'CONJ'
p634
F0.173155
sS'ADP'
p635
F0.809008
s(lp636
g57
atp637
a(S'zum'
p638
(dp639
S'ADP'
p640
F1.0
s(lp641
g101
atp642
a(S'30.'
p643
(dp644
S'NUM'
p645
F1.0
s(lp646
g133
atp647
a(S'april'
p648
(dp649
S'NOUN'
p650
F0.003479
sS'ADJ'
p651
F0.995925
s(lp652
g139
atp653
a(S'2008'
p654
(dp655
S'NUM'
p656
F0.919383
sS'ADJ'
p657
F0.080177
s(lp658
g145
atp659
a(S'antr\xc3\xa4ge'
p660
(dp661
S'VERB'
p662
F0.040254
sS'NOUN'
p663
F0.959746
s(lp664
g83
atp665
a(S'auf'
p666
(dp667
S'PRT'
p668
F0.002596
sS'ADP'
p669
F0.997396
s(lp670
g95
atp671
a(S'beihilfe'
p672
(dp673
S'ADJ'
p674
F0.000924
sS'NOUN'
p675
F0.998954
s(lp676
g224
atp677
a(S'gestellt'
p678
(dp679
S'VERB'
p680
F0.999482
sS'ADJ'
p681
F0.000518
s(lp682
g224
atp683
a(S'werden'
p684
(dp685
S'VERB'
p686
F0.9999960000000001
s(lp687
g175
atp688
a(g32
(dp689
g32
F1.0
s(lp690
g30
atp691
a(S'erst'
p692
(dp693
S'ADV'
p694
F0.999944
sS'ADJ'
p695
F5.6e-05
s(lp696
g155
atp697
a(S'danach'
p698
(dp699
S'ADV'
p700
F1.0
s(lp701
g163
atp702
a(S'wird'
p703
(dp704
S'VERB'
p705
F1.0
s(lp706
tp707
a(S'sich'
p708
(dp709
S'PRON'
p710
F1.0
s(lp711
tp712
a(S'deutlicher'
p713
(dp714
S'ADJ'
p715
F1.0
s(lp716
g199
atp717
a(S'abzeichnen'
p718
(dp719
S'VERB'
p720
F1.0
s(lp721
g224
atp722
a(g30
(dp723
g32
F1.0
s(lp724
tp725
a(S'in'
p726
(dp727
S'ADP'
p728
F1.0
s(lp729
g380
atp730
a(S'welchem'
p731
(dp732
S'PRON'
p733
F1.0
s(lp734
g224
atp735
a(S'umfang'
p736
(dp737
S'VERB'
p738
F1.0
s(lp739
g224
atp740
a(S'das'
p741
(dp742
S'PRON'
p743
F0.014416
sS'DET'
p744
F0.984376
s(lp745
g230
atp746
a(S'programm'
p747
(dp748
S'VERB'
p749
F0.000353
sS'NOUN'
p750
F0.999203
s(lp751
g237
atp752
a(S'in'
p753
(dp754
S'ADP'
p755
F1.0
s(lp756
tp757
a(S'anspruch'
p758
(dp759
S'ADJ'
p760
F0.00092
sS'NOUN'
p761
F0.998958
s(lp762
tp763
a(S'genommen'
p764
(dp765
S'VERB'
p766
F0.998463
sS'ADJ'
p767
F0.001537
s(lp768
g224
atp769
a(S'wird'
p770
(dp771
S'VERB'
p772
F1.0
s(lp773
g187
atp774
a(g32
(dp775
g32
F1.0
s(lp776
g32
atp777
asS'it'
p778
(lp779
(S'tuttavia'
p780
(dp781
S'ADV'
p782
F1.0
s(lp783
g39
atp784
a(g30
(dp785
g32
F1.0
s(lp786
g30
atp787
a(S'secondo'
p788
(dp789
S'ADV'
p790
F0.049915
sS'NOUN'
p791
F0.000154
sS'VERB'
p792
F0.00278
sS'ADJ'
p793
F0.088874
sS'ADP'
p794
F0.858278
s(lp795
g7
atp796
a(S'le'
p797
(dp798
S'PRON'
p799
F6.6e-05
sS'DET'
p800
F0.999934
s(lp801
tp802
a(S'autorit\xc3\xa0'
p803
(dp804
S'NOUN'
p805
F1.0
s(lp806
g21
atp807
a(S'irlandesi'
p808
(dp809
S'NOUN'
p810
F0.016345
sS'ADJ'
p811
F0.983655
s(lp812
g28
atp813
a(g30
(dp814
g32
F1.0
s(lp815
g30
atp816
a(S'la'
p817
(dp818
S'PRON'
p819
F0.001546
sS'DET'
p820
F0.998454
s(lp821
g50
atp822
a(S'data'
p823
(dp824
S'ADJ'
p825
F0.006545
sS'VERB'
p826
F0.0028190000000000003
sS'NOUN'
p827
F0.990636
s(lp828
g57
atp829
a(S'ultima'
p830
(dp831
S'NOUN'
p832
F0.039134
sS'VERB'
p833
F0.007776
sS'ADJ'
p834
F0.95309
s(lp835
g70
atp836
a(S'per'
p837
(dp838
S'CONJ'
p839
F0.060404
sS'ADP'
p840
F0.939596
s(lp841
g63
atp842
a(S'le'
p843
(dp844
S'PRON'
p845
F0.000111
sS'DET'
p846
F0.999889
s(lp847
tp848
a(S'richieste'
p849
(dp850
S'VERB'
p851
F0.003851
sS'NOUN'
p852
F0.996149
s(lp853
g83
atp854
a(S'conformi'
p855
(dp856
S'VERB'
p857
F0.022771
sS'ADJ'
p858
F0.97723
s(lp859
g95
atp860
a(S'al'
p861
(dp862
S'ADP'
p863
F1.0
s(lp864
g101
atp865
a(S'programma'
p866
(dp867
S'VERB'
p868
F2.8e-05
sS'NOUN'
p869
F0.999971
s(lp870
g108
atp871
a(S'\xc3\xa8'
p872
(dp873
S'VERB'
p874
F1.0
s(lp875
g115
atp876
a(S'il'
p877
(dp878
S'DET'
p879
F1.0
s(lp880
tp881
a(S'30'
p882
(dp883
S'NUM'
p884
F0.999491
sg32
F0.000509
s(lp885
g133
atp886
a(S'aprile'
p887
(dp888
S'VERB'
p889
F6e-06
sS'NOUN'
p890
F0.999994
s(lp891
g139
atp892
a(S'2008'
p893
(dp894
S'NUM'
p895
F0.98824
sg32
F0.01176
s(lp896
g145
atp897
a(g30
(dp898
g32
F1.0
s(lp899
g30
atp900
a(S'dopo'
p901
(dp902
S'ADV'
p903
F0.358552
sS'CONJ'
p904
F0.264917
sS'ADJ'
p905
F0.000729
sS'ADP'
p906
F0.375803
s(lp907
g163
atp908
a(S'la'
p909
(dp910
S'PRON'
p911
F0.013601
sS'DET'
p912
F0.986399
s(lp913
g230
atp914
a(S'quale'
p915
(dp916
S'PRON'
p917
F0.992807
sS'ADJ'
p918
F0.007193
s(lp919
g169
atp920
a(S'il'
p921
(dp922
S'DET'
p923
F1.0
s(lp924
g206
atp925
a(S'suo'
p926
(dp927
S'PRON'
p928
F1.0
s(lp929
tp930
a(S'livello'
p931
(dp932
S'VERB'
p933
F1e-05
sS'NOUN'
p934
F0.99999
s(lp935
g212
atp936
a(S'di'
p937
(dp938
S'CONJ'
p939
F4e-06
sS'ADP'
p940
F0.999996
s(lp941
g218
atp942
a(S'comprensione'
p943
(dp944
S'NOUN'
p945
F1.0
s(lp946
g224
atp947
a(S'sar\xc3\xa0'
p948
(dp949
S'VERB'
p950
F1.0
s(lp951
g187
atp952
a(S'pi\xc3\xb9'
p953
(dp954
S'ADV'
p955
F0.998883
sS'NOUN'
p956
F2.6e-05
sS'ADJ'
p957
F0.000877
sS'ADP'
p958
F0.000214
s(lp959
tp960
a(S'chiaro'
p961
(dp962
S'ADV'
p963
F0.011715
sS'NOUN'
p964
F0.002112
sS'ADJ'
p965
F0.986173
s(lp966
g199
atp967
a(g32
(dp968
g32
F1.0
s(lp969
g32
atp970
asS'sk'
p971
(lp972
(S'\xc3\x8drske'
p973
(dp974
S'ADJ'
p975
F1.0
s(lp976
g28
atp977
a(S'\xc3\xbarady'
p978
(dp979
S'NOUN'
p980
F1.0
s(lp981
g21
atp982
a(S'stanovili'
p983
(dp984
S'VERB'
p985
F1.0
s(lp986
g70
atp987
a(S'd\xc3\xa1tum'
p988
(dp989
S'NOUN'
p990
F1.0
s(lp991
g57
atp992
a(S'uz\xc3\xa1vierky'
p993
(dp994
S'NOUN'
p995
F1.0
s(lp996
g224
atp997
a(S'pre'
p998
(dp999
g130
F0.000169
sS'ADP'
p1000
F0.999831
s(lp1001
g63
atp1002
a(S'prij\xc3\xadmanie'
p1003
(dp1004
S'NOUN'
p1005
F1.0
s(lp1006
tp1007
a(S'\xc5\xbeiadost\xc3\xad'
p1008
(dp1009
S'NOUN'
p1010
F1.0
s(lp1011
g83
atp1012
a(S'na'
p1013
(dp1014
g130
F0.000143
sS'CONJ'
p1015
F7e-06
sS'ADP'
p1016
F0.99984
sS'PRT'
p1017
F9e-06
s(lp1018
g95
atp1019
a(S'30.'
p1020
(dp1021
S'NUM'
p1022
F1.0
s(lp1023
g133
atp1024
a(S'apr\xc3\xadl'
p1025
(dp1026
S'NOUN'
p1027
F1.0
s(lp1028
g139
atp1029
a(S'2008'
p1030
(dp1031
S'NUM'
p1032
F1.0
s(lp1033
g145
atp1034
a(g30
(dp1035
g32
F1.0
s(lp1036
g30
atp1037
a(S'po'
p1038
(dp1039
g130
F0.004003
sS'ADP'
p1040
F0.995997
s(lp1041
g163
atp1042
a(S'ktorom'
p1043
(dp1044
S'PRON'
p1045
F1.0
s(lp1046
g169
atp1047
a(S'bude'
p1048
(dp1049
g130
F0.000319
sS'VERB'
p1050
F0.999681
s(lp1051
g187
atp1052
a(S'miera'
p1053
(dp1054
S'NOUN'
p1055
F1.0
s(lp1056
g212
atp1057
a(S'prijatia'
p1058
(dp1059
S'NOUN'
p1060
F1.0
s(lp1061
g224
atp1062
a(S'syst\xc3\xa9mu'
p1063
(dp1064
S'NOUN'
p1065
F1.0
s(lp1066
g237
atp1067
a(S'jasnej\xc5\xa1ia'
p1068
(dp1069
S'ADJ'
p1070
F1.0
s(lp1071
g199
atp1072
a(g32
(dp1073
g32
F1.0
s(lp1074
g32
atp1075
asS'pl'
p1076
(lp1077
(S'jednak\xc5\xbce'
p1078
(dp1079
S'PRT'
p1080
F0.747883
sS'CONJ'
p1081
F0.252117
s(lp1082
g39
atp1083
a(S'wed\xc5\x82ug'
p1084
(dp1085
S'ADP'
p1086
F1.0
s(lp1087
g7
atp1088
a(S'w\xc5\x82adz'
p1089
(dp1090
S'NOUN'
p1091
F1.0
s(lp1092
g21
atp1093
a(S'irlandzkich'
p1094
(dp1095
S'ADV'
p1096
F0.002351
sS'NOUN'
p1097
F0.019742
sS'VERB'
p1098
F0.022816
sS'ADJ'
p1099
F0.9550909999999999
s(lp1100
g28
atp1101
a(S'ostateczny'
p1102
(dp1103
S'ADJ'
p1104
F1.0
s(lp1105
g70
atp1106
a(S'termin'
p1107
(dp1108
S'NOUN'
p1109
F1.0
s(lp1110
g57
atp1111
a(S'sk\xc5\x82adania'
p1112
(dp1113
S'VERB'
p1114
F1.0
s(lp1115
tp1116
a(S'aplikacji'
p1117
(dp1118
S'NOUN'
p1119
F0.999999
s(lp1120
g83
atp1121
a(S'to'
p1122
(dp1123
S'NOUN'
p1124
F0.249403
sS'ADP'
p1125
F0.009962
sS'PRT'
p1126
F0.090285
sg130
F3e-06
sS'CONJ'
p1127
F0.563581
sS'ADJ'
p1128
F0.086765
s(lp1129
g115
atp1130
a(S'30'
p1131
(dp1132
S'NUM'
p1133
F0.21096399999999996
sS'ADJ'
p1134
F0.789034
s(lp1135
g133
atp1136
a(S'kwietnia'
p1137
(dp1138
S'NOUN'
p1139
F1.0
s(lp1140
g139
atp1141
a(S'2008'
p1142
(dp1143
S'NUM'
p1144
F0.058198
sS'ADJ'
p1145
F0.9418019999999999
s(lp1146
tp1147
a(S'r'
p1148
(dp1149
g130
F0.906612
sS'NOUN'
p1150
F0.093388
s(lp1151
g145
atp1152
a(g32
(dp1153
g32
F1.0
s(lp1154
tp1155
a(g30
(dp1156
g130
F0.0
sg32
F1.0
s(lp1157
g30
atp1158
a(S'po'
p1159
(dp1160
g130
F3e-06
sS'VERB'
p1161
F0.000127
sS'NOUN'
p1162
F9.2e-05
sS'ADP'
p1163
F0.999779
s(lp1164
g163
atp1165
a(S'kt\xc3\xb3rej'
p1166
(dp1167
S'ADJ'
p1168
F1.0
s(lp1169
g169
atp1170
a(S'to'
p1171
(dp1172
S'NOUN'
p1173
F0.22105200000000003
sS'ADP'
p1174
F2e-06
sS'PRT'
p1175
F0.239849
sg130
F9e-06
sS'CONJ'
p1176
F0.460566
sS'ADJ'
p1177
F0.078523
s(lp1178
tp1179
a(S'dacie'
p1180
(dp1181
S'VERB'
p1182
F0.901237
sS'NOUN'
p1183
F0.098763
s(lp1184
g155
atp1185
a(S'poziom'
p1186
(dp1187
S'NOUN'
p1188
F1.0
s(lp1189
g212
atp1190
a(S'zainteresowania'
p1191
(dp1192
S'VERB'
p1193
F0.024548
sS'NOUN'
p1194
F0.9754520000000001
s(lp1195
g224
atp1196
a(S'planem'
p1197
(dp1198
S'NOUN'
p1199
F1.0
s(lp1200
g224
atp1201
a(S'b\xc4\x99dzie'
p1202
(dp1203
S'VERB'
p1204
F1.0
s(lp1205
g187
atp1206
a(S'znacznie'
p1207
(dp1208
S'ADV'
p1209
F1.0
s(lp1210
tp1211
a(S'\xc5\x82atwiejszy'
p1212
(dp1213
S'ADJ'
p1214
F1.0
s(lp1215
g224
atp1216
a(S'do'
p1217
(dp1218
g130
F1e-06
sS'NOUN'
p1219
F1.4e-05
sS'ADP'
p1220
F0.9999849999999999
s(lp1221
g230
atp1222
a(S'okre\xc5\x9blenia'
p1223
(dp1224
S'VERB'
p1225
F0.354788
sS'NOUN'
p1226
F0.645212
s(lp1227
g199
atp1228
a(g32
(dp1229
g32
F1.0
s(lp1230
g32
atp1231
asS'sl'
p1232
(lp1233
(S'vendar'
p1234
(dp1235
S'ADV'
p1236
F0.012875
sS'CONJ'
p1237
F0.987125
s(lp1238
g39
atp1239
a(S'je'
p1240
(dp1241
S'PRON'
p1242
F0.003887
sS'VERB'
p1243
F0.996113
sg130
F1e-06
s(lp1244
g30
atp1245
a(S'glede'
p1246
(dp1247
S'ADV'
p1248
F0.991137
sS'ADP'
p1249
F0.008863
s(lp1250
tp1251
a(S'na'
p1252
(dp1253
S'ADP'
p1254
F1.0
s(lp1255
g7
atp1256
a(S'irske'
p1257
(dp1258
S'ADJ'
p1259
F1.0
s(lp1260
g28
atp1261
a(S'organe'
p1262
(dp1263
S'NOUN'
p1264
F1.0
s(lp1265
g21
atp1266
a(S'rok'
p1267
(dp1268
S'NOUN'
p1269
F1.0
s(lp1270
g57
atp1271
a(S'za'
p1272
(dp1273
S'ADV'
p1274
F5.1e-05
sg130
F2e-06
sS'ADP'
p1275
F0.999946
s(lp1276
g63
atp1277
a(S'oddajo'
p1278
(dp1279
S'VERB'
p1280
F0.000134
sS'NOUN'
p1281
F0.9998659999999999
s(lp1282
tp1283
a(S'vlog'
p1284
(dp1285
S'NOUN'
p1286
F1.0
s(lp1287
g83
atp1288
a(S'v'
p1289
(dp1290
S'ADP'
p1291
F1.0
s(lp1292
tp1293
a(S'okviru'
p1294
(dp1295
S'NOUN'
p1296
F1.0
s(lp1297
g95
atp1298
a(S'sheme'
p1299
(dp1300
S'NOUN'
p1301
F1.0
s(lp1302
g108
atp1303
a(S'30.'
p1304
(dp1305
S'NUM'
p1306
F1.0
s(lp1307
g133
atp1308
a(S'april'
p1309
(dp1310
S'NOUN'
p1311
F1.0
s(lp1312
g139
atp1313
a(S'2008'
p1314
(dp1315
S'NUM'
p1316
F1.0
s(lp1317
g145
atp1318
a(g30
(dp1319
g32
F1.0
s(lp1320
g30
atp1321
a(S'po'
p1322
(dp1323
g130
F8e-06
sS'ADP'
p1324
F0.999992
s(lp1325
g163
atp1326
a(S'katerem'
p1327
(dp1328
S'PRON'
p1329
F1.0
s(lp1330
g169
atp1331
a(S'bo'
p1332
(dp1333
S'VERB'
p1334
F1.0
s(lp1335
g187
atp1336
a(S'stopnja'
p1337
(dp1338
S'NOUN'
p1339
F1.0
s(lp1340
g212
atp1341
a(S'izvajanja'
p1342
(dp1343
S'NOUN'
p1344
F1.0
s(lp1345
g224
atp1346
a(S'sheme'
p1347
(dp1348
S'NOUN'
p1349
F1.0
s(lp1350
g237
atp1351
a(S'jasnej\xc5\xa1a'
p1352
(dp1353
S'ADV'
p1354
F0.001205
sS'ADJ'
p1355
F0.028255999999999996
sS'VERB'
p1356
F0.3650480000000001
sS'NOUN'
p1357
F0.6054879999999999
s(lp1358
g199
atp1359
a(g32
(dp1360
g32
F1.0
s(lp1361
g32
atp1362
asS'es'
p1363
(lp1364
(S'sin'
p1365
(dp1366
S'ADV'
p1367
F1.0
s(lp1368
tp1369
a(S'embargo'
p1370
(dp1371
S'ADV'
p1372
F1.0
s(lp1373
g39
atp1374
a(g30
(dp1375
g32
F1.0
s(lp1376
g30
atp1377
a(S'de'
p1378
(dp1379
S'ADP'
p1380
F1.0
s(lp1381
tp1382
a(S'acuerdo'
p1383
(dp1384
S'ADP'
p1385
F1.0
s(lp1386
g7
atp1387
a(S'con'
p1388
(dp1389
S'ADP'
p1390
F1.0
s(lp1391
g256
atp1392
a(S'las'
p1393
(dp1394
S'PRON'
p1395
F0.0
sS'DET'
p1396
F1.0
s(lp1397
g15
atp1398
a(S'autoridades'
p1399
(dp1400
S'NOUN'
p1401
F1.0
s(lp1402
g21
atp1403
a(S'irlandesas'
p1404
(dp1405
S'NOUN'
p1406
F0.009092
sS'ADJ'
p1407
F0.990908
s(lp1408
g28
atp1409
a(g30
(dp1410
g32
F1.0
s(lp1411
g30
atp1412
a(S'la'
p1413
(dp1414
S'PRON'
p1415
F3.5e-05
sS'DET'
p1416
F0.999959
sS'NOUN'
p1417
F0.0
sg130
F5e-06
s(lp1418
g50
atp1419
a(S'fecha'
p1420
(dp1421
S'NOUN'
p1422
F1.0
s(lp1423
tp1424
a(S'l\xc3\xadmite'
p1425
(dp1426
S'NOUN'
p1427
F1.0
s(lp1428
g57
atp1429
a(S'de'
p1430
(dp1431
g130
F2.9e-05
sS'CONJ'
p1432
F0.000449
sS'ADP'
p1433
F0.999522
s(lp1434
g63
atp1435
a(S'admisi\xc3\xb3n'
p1436
(dp1437
S'NOUN'
p1438
F1.0
s(lp1439
tp1440
a(S'de'
p1441
(dp1442
g130
F2.9e-05
sS'CONJ'
p1443
F0.000449
sS'ADP'
p1444
F0.999522
s(lp1445
g108
atp1446
a(S'solicitudes'
p1447
(dp1448
S'NOUN'
p1449
F1.0
s(lp1450
g83
atp1451
a(S'en'
p1452
(dp1453
g130
F0.0
sS'CONJ'
p1454
F0.0
sS'ADP'
p1455
F1.0
s(lp1456
g95
atp1457
a(S'el'
p1458
(dp1459
S'PRON'
p1460
F5e-06
sS'DET'
p1461
F0.999995
s(lp1462
g101
atp1463
a(S'marco'
p1464
(dp1465
S'NOUN'
p1466
F1.0
s(lp1467
tp1468
a(S'del'
p1469
(dp1470
S'ADP'
p1471
F1.0
s(lp1472
g101
atp1473
a(S'r\xc3\xa9gimen'
p1474
(dp1475
S'NOUN'
p1476
F1.0
s(lp1477
g108
atp1478
a(S'es'
p1479
(dp1480
S'VERB'
p1481
F1.0
s(lp1482
g115
atp1483
a(S'el'
p1484
(dp1485
S'PRON'
p1486
F9.2e-05
sS'DET'
p1487
F0.999908
s(lp1488
tp1489
a(S'30'
p1490
(dp1491
g130
F0.06769
sS'NUM'
p1492
F0.93231
s(lp1493
g133
atp1494
a(S'de'
p1495
(dp1496
g130
F6.2e-05
sS'CONJ'
p1497
F4.9e-05
sS'ADP'
p1498
F0.999889
s(lp1499
g139
atp1500
a(S'abril'
p1501
(dp1502
S'NOUN'
p1503
F1.0
s(lp1504
tp1505
a(S'de'
p1506
(dp1507
g130
F0.001315
sS'CONJ'
p1508
F0.000139
sS'ADP'
p1509
F0.998546
s(lp1510
g139
atp1511
a(S'2008'
p1512
(dp1513
g130
F0.105131
sS'NUM'
p1514
F0.894869
s(lp1515
g145
atp1516
a(g30
(dp1517
g32
F1.0
s(lp1518
g30
atp1519
a(S'tras'
p1520
(dp1521
S'ADP'
p1522
F1.0
s(lp1523
g163
atp1524
a(S'la'
p1525
(dp1526
S'PRON'
p1527
F0.0
sS'DET'
p1528
F1.0
sg130
F0.0
sS'NOUN'
p1529
F0.0
s(lp1530
g101
atp1531
a(S'cual'
p1532
(dp1533
S'CONJ'
p1534
F1.0
s(lp1535
g169
atp1536
a(S'el'
p1537
(dp1538
S'PRON'
p1539
F3e-06
sS'DET'
p1540
F0.999997
s(lp1541
g206
atp1542
a(S'nivel'
p1543
(dp1544
S'NOUN'
p1545
F1.0
s(lp1546
g212
atp1547
a(S'de'
p1548
(dp1549
g130
F2.9e-05
sS'CONJ'
p1550
F0.000449
sS'ADP'
p1551
F0.999522
s(lp1552
g218
atp1553
a(S'consumo'
p1554
(dp1555
S'NOUN'
p1556
F1.0
s(lp1557
g224
atp1558
a(S'del'
p1559
(dp1560
S'ADP'
p1561
F1.0
s(lp1562
g380
atp1563
a(S'r\xc3\xa9gimen'
p1564
(dp1565
S'NOUN'
p1566
F1.0
s(lp1567
g237
atp1568
a(S'ser\xc3\xa1'
p1569
(dp1570
S'VERB'
p1571
F1.0
s(lp1572
g187
atp1573
a(S'm\xc3\xa1s'
p1574
(dp1575
S'ADV'
p1576
F0.999996
sS'CONJ'
p1577
F4e-06
s(lp1578
tp1579
a(S'claro'
p1580
(dp1581
S'ADJ'
p1582
F1.0
s(lp1583
g199
atp1584
a(g32
(dp1585
g32
F1.0
s(lp1586
g32
atp1587
as.