(dp0
S'fr'
p1
(lp2
(S'madame'
p3
(dp4
S'NOUN'
p5
F1.0
s(lp6
tp7
a(S'la'
p8
(dp9
S'PRON'
p10
F5.2e-05
sS'DET'
p11
F0.999948
sS'NOUN'
p12
F0.0
s(lp13
S'madam'
p14
atp15
a(S'pr\xc3\xa9sidente'
p16
(dp17
S'NOUN'
p18
F1.0
s(lp19
S'president'
p20
atp21
a(S','
p22
(dp23
S'.'
p24
F1.0
s(lp25
g22
atp26
a(S'monsieur'
p27
(dp28
S'NOUN'
p29
F1.0
s(lp30
S'mr'
p31
atp32
a(S'ciolo\xc5\x9f'
p33
(dp34
S'NOUN'
p35
F0.142077
sS'VERB'
p36
F0.011365
sS'ADJ'
p37
F0.83544
sS'X'
p38
F0.011119
s(lp39
S'ciolo\xc5\x9f'
p40
atp41
a(g22
(dp42
g24
F1.0
s(lp43
g22
atp44
a(S'mesdames'
p45
(dp46
S'NOUN'
p47
F1.0
s(lp48
S'ladies'
p49
atp50
a(S'et'
p51
(dp52
S'CONJ'
p53
F1.0
s(lp54
S'and'
p55
atp56
a(S'messieurs'
p57
(dp58
S'NOUN'
p59
F1.0
s(lp60
S'gentlemen'
p61
atp62
a(g22
(dp63
g24
F1.0
s(lp64
g22
atp65
a(S'assurer'
p66
(dp67
S'VERB'
p68
F1.0
s(lp69
tp70
a(S'la'
p71
(dp72
S'PRON'
p73
F6e-06
sS'DET'
p74
F0.999994
sS'NOUN'
p75
F0.0
s(lp76
S'providing'
p77
atp78
a(S'protection'
p79
(dp80
S'NOUN'
p81
F1.0
s(lp82
S'protection'
p83
atp84
a(S'des'
p85
(dp86
S'DET'
p87
F2.1e-05
sS'ADP'
p88
F0.999979
s(lp89
S'for'
p90
atp91
a(S'abeilles'
p92
(dp93
S'NOUN'
p94
F1.0
s(lp95
S'bees'
p96
atp97
a(S'est'
p98
(dp99
S'VERB'
p100
F0.999872
sS'NOUN'
p101
F0.000128
s(lp102
S'is'
p103
atp104
a(S'tout'
p105
(dp106
S'ADV'
p107
F0.970852
sS'PRON'
p108
F0.023113
sS'NOUN'
p109
F0.006035
s(lp110
tp111
a(S'\xc3\xa0'
p112
(dp113
S'ADP'
p114
F1.0
s(lp115
tp116
a(S'fait'
p117
(dp118
S'ADJ'
p119
F0.03046
sS'VERB'
p120
F0.019784
sS'NOUN'
p121
F0.949756
s(lp122
g103
atp123
a(S'dans'
p124
(dp125
S'NOUN'
p126
F0.000174
sS'ADP'
p127
F0.999826
s(lp128
S'in'
p129
atp130
a(S"l'"
p131
(dp132
S'ADJ'
p133
F0.160724
sS'VERB'
p134
F0.06491699999999999
sS'NOUN'
p135
F0.774359
s(lp136
S'the'
p137
atp138
a(S'int\xc3\xa9r\xc3\xaat'
p139
(dp140
S'NOUN'
p141
F1.0
s(lp142
S'interests'
p143
atp144
a(S'du'
p145
(dp146
S'ADP'
p147
F1.0
s(lp148
S'of'
p149
atp150
a(S'secteur'
p151
(dp152
S'NOUN'
p153
F1.0
s(lp154
S'sector'
p155
atp156
a(S'agricole'
p157
(dp158
S'ADJ'
p159
F1.0
s(lp160
S'agricultural'
p161
atp162
a(g22
(dp163
g24
F1.0
s(lp164
tp165
a(S'et'
p166
(dp167
S'CONJ'
p168
F1.0
s(lp169
S'and'
p170
atp171
a(S'de'
p172
(dp173
S'ADP'
p174
F1.0
s(lp175
tp176
a(S'nombreux'
p177
(dp178
S'ADJ'
p179
F1.0
s(lp180
S'many'
p181
atp182
a(S'agriculteurs'
p183
(dp184
S'NOUN'
p185
F1.0
s(lp186
S'farmers'
p187
atp188
a(S'sont'
p189
(dp190
S'VERB'
p191
F1.0
s(lp192
S'are'
p193
atp194
a(S'\xc3\xa9galement'
p195
(dp196
S'ADV'
p197
F1.0
s(lp198
S'also'
p199
atp200
a(S'apiculteurs'
p201
(dp202
S'NOUN'
p203
F1.0
s(lp204
S'beekeepers'
p205
atp206
a(g24
(dp207
g24
F1.0
s(lp208
g24
atp209
asS'en'
p210
(lp211
(g14
(dp212
S'NOUN'
p213
F1.0
s(lp214
g14
atp215
a(g20
(dp216
S'NOUN'
p217
F1.0
s(lp218
g20
atp219
a(g22
(dp220
g24
F1.0
s(lp221
g22
atp222
a(g31
(dp223
S'ADJ'
p224
F0.023248
sS'NOUN'
p225
F0.9767529999999999
s(lp226
g31
atp227
a(g40
(dp228
S'ADJ'
p229
F0.019667
sS'NOUN'
p230
F0.980333
s(lp231
g40
atp232
a(g22
(dp233
g24
F1.0
s(lp234
g22
atp235
a(g49
(dp236
S'NOUN'
p237
F1.0
s(lp238
g49
atp239
a(g55
(dp240
S'CONJ'
p241
F0.999998
sS'NOUN'
p242
F2e-06
s(lp243
g55
atp244
a(g61
(dp245
S'NOUN'
p246
F1.0
s(lp247
g61
atp248
a(g22
(dp249
g24
F1.0
s(lp250
g22
atp251
a(g77
(dp252
S'VERB'
p253
F1.0
s(lp254
g77
atp255
a(g83
(dp256
S'NOUN'
p257
F1.0
s(lp258
g83
atp259
a(g90
(dp260
S'ADP'
p261
F1.0
s(lp262
g90
atp263
a(g96
(dp264
S'NOUN'
p265
F1.0
s(lp266
g96
atp267
a(g103
(dp268
S'VERB'
p269
F1.0
s(lp270
g103
atp271
a(g129
(dp272
S'ADV'
p273
F0.012783
sS'PRT'
p274
F0.002758
sS'ADP'
p275
F0.984459
s(lp276
g129
atp277
a(g137
(dp278
S'NOUN'
p279
F0.0
sS'DET'
p280
F1.0
s(lp281
g137
atp282
a(S'best'
p283
(dp284
S'ADV'
p285
F0.01472
sS'VERB'
p286
F3e-06
sS'ADJ'
p287
F0.985276
s(lp288
g283
atp289
a(g143
(dp290
S'VERB'
p291
F3e-06
sS'NOUN'
p292
F0.999997
s(lp293
g143
atp294
a(g149
(dp295
S'ADP'
p296
F1.0
s(lp297
g149
atp298
a(S'the'
p299
(dp300
S'NOUN'
p301
F1e-06
sS'DET'
p302
F0.999999
s(lp303
g299
atp304
a(g161
(dp305
S'ADJ'
p306
F1.0
s(lp307
g161
atp308
a(g155
(dp309
S'NOUN'
p310
F1.0
s(lp311
g155
atp312
a(g170
(dp313
S'CONJ'
p314
F1.0
sS'NOUN'
p315
F0.0
s(lp316
g170
atp317
a(g181
(dp318
S'ADV'
p319
F9.8e-05
sS'DET'
p320
F0.006042
sS'ADJ'
p321
F0.99386
s(lp322
g181
atp323
a(g187
(dp324
S'NOUN'
p325
F1.0
s(lp326
g187
atp327
a(g193
(dp328
S'VERB'
p329
F1.0
sS'NOUN'
p330
F0.0
s(lp331
g193
atp332
a(g199
(dp333
S'ADV'
p334
F1.0
s(lp335
g199
atp336
a(g205
(dp337
S'NOUN'
p338
F1.0
s(lp339
g205
atp340
a(g24
(dp341
g24
F1.0
s(lp342
g24
atp343
asS'nl'
p344
(lp345
(S'namens'
p346
(dp347
S'ADP'
p348
F1.0
s(lp349
g14
atp350
a(S'de'
p351
(dp352
S'DET'
p353
F1.0
s(lp354
tp355
a(S'alde-fractie'
p356
(dp357
S'ADV'
p358
F0.009697
sS'NOUN'
p359
F0.990303
s(lp360
g20
atp361
a(g24
(dp362
g24
F1.0
s(lp363
tp364
a(S'-'
p365
(dp366
g24
F1.0
s(lp367
g14
atp368
a(S'('
p369
(dp370
g24
F1.0
s(lp371
tp372
a(S'de'
p373
(dp374
S'DET'
p375
F1.0
s(lp376
g20
atp377
a(S')'
p378
(dp379
g24
F1.0
s(lp380
g20
atp381
a(S'mevrouw'
p382
(dp383
S'NOUN'
p384
F1.0
s(lp385
g14
atp386
a(S'de'
p387
(dp388
S'DET'
p389
F1.0
s(lp390
g20
atp391
a(S'voorzitter'
p392
(dp393
S'NOUN'
p394
F1.0
s(lp395
tp396
a(g22
(dp397
g24
F1.0
s(lp398
g22
atp399
a(S'mijnheer'
p400
(dp401
S'NOUN'
p402
F1.0
s(lp403
g31
atp404
a(S'ciolo\xc5\x9f'
p405
(dp406
S'ADJ'
p407
F0.199477
sS'NOUN'
p408
F0.8005229999999999
s(lp409
g40
atp410
a(g22
(dp411
g24
F1.0
s(lp412
g22
atp413
a(S'dames'
p414
(dp415
S'NOUN'
p416
F1.0
s(lp417
g49
atp418
a(S'en'
p419
(dp420
S'CONJ'
p421
F1.0
s(lp422
g55
atp423
a(S'heren'
p424
(dp425
S'NOUN'
p426
F1.0
s(lp427
g61
atp428
a(g22
(dp429
g24
F1.0
s(lp430
g22
atp431
a(S'de'
p432
(dp433
S'DET'
p434
F1.0
s(lp435
g77
atp436
a(S'bescherming'
p437
(dp438
S'NOUN'
p439
F1.0
s(lp440
g83
atp441
a(S'van'
p442
(dp443
S'ADP'
p444
F1.0
s(lp445
g90
atp446
a(S'de'
p447
(dp448
S'DET'
p449
F1.0
s(lp450
g20
atp451
a(S'bijen'
p452
(dp453
S'NOUN'
p454
F1.0
s(lp455
g96
atp456
a(S'is'
p457
(dp458
S'VERB'
p459
F1.0
s(lp460
g103
atp461
a(S'van'
p462
(dp463
S'ADP'
p464
F1.0
s(lp465
g129
atp466
a(S'het'
p467
(dp468
S'PRON'
p469
F0.005758
sS'DET'
p470
F0.994243
s(lp471
g137
atp472
a(S'allergrootste'
p473
(dp474
S'NOUN'
p475
F0.012661
sS'ADJ'
p476
F0.987339
s(lp477
g283
atp478
a(S'belang'
p479
(dp480
S'NOUN'
p481
F1.0
s(lp482
g143
atp483
a(S'voor'
p484
(dp485
S'ADV'
p486
F0.001935
sS'CONJ'
p487
F3e-06
sS'NOUN'
p488
F0.0
sS'ADP'
p489
F0.998062
s(lp490
g149
atp491
a(S'de'
p492
(dp493
S'DET'
p494
F1.0
s(lp495
g299
atp496
a(S'landbouw'
p497
(dp498
S'NOUN'
p499
F1.0
s(lp500
g161
atp501
a(g24
(dp502
g24
F1.0
s(lp503
g170
atp504
a(S'veel'
p505
(dp506
S'ADV'
p507
F0.222056
sS'NUM'
p508
F0.777497
sS'VERB'
p509
F0.000447
s(lp510
g181
atp511
a(S'boeren'
p512
(dp513
S'VERB'
p514
F0.10095799999999999
sS'NOUN'
p515
F0.899042
s(lp516
g187
atp517
a(S'zijn'
p518
(dp519
S'PRON'
p520
F5e-06
sS'VERB'
p521
F0.999916
sS'NOUN'
p522
F7.9e-05
s(lp523
g193
atp524
a(S'ook'
p525
(dp526
S'ADV'
p527
F1.0
s(lp528
g199
atp529
a(S'imker'
p530
(dp531
S'NOUN'
p532
F1.0
s(lp533
g205
atp534
a(g24
(dp535
g24
F1.0
s(lp536
g24
atp537
asS'de'
p538
(lp539
(S'im'
p540
(dp541
S'ADP'
p542
F1.0
s(lp543
g155
atp544
a(S'namen'
p545
(dp546
S'ADJ'
p547
F0.000231
sS'NOUN'
p548
F0.999726
s(lp549
g40
atp550
a(S'der'
p551
(dp552
S'PRON'
p553
F2.1e-05
sS'DET'
p554
F0.99997
s(lp555
tp556
a(S'alde-fraktion'
p557
(dp558
S'ADJ'
p559
F0.000211
sS'NOUN'
p560
F0.999729
s(lp561
tp562
a(g24
(dp563
g24
F1.0
s(lp564
g170
atp565
a(g365
(dp566
g24
F1.0
s(lp567
g193
atp568
a(S'frau'
p569
(dp570
S'NOUN'
p571
F0.028238
sS'ADJ'
p572
F0.947263
s(lp573
g14
atp574
a(S'pr\xc3\xa4sidentin'
p575
(dp576
S'NOUN'
p577
F0.994209
s(lp578
g20
atp579
a(g22
(dp580
g24
F1.0
s(lp581
g22
atp582
a(S'herr'
p583
(dp584
S'VERB'
p585
F0.07311
sS'NOUN'
p586
F0.858922
s(lp587
g31
atp588
a(S'kommissar'
p589
(dp590
S'NOUN'
p591
F0.201385
sS'ADJ'
p592
F0.726126
s(lp593
g40
atp594
a(g22
(dp595
g24
F1.0
s(lp596
g22
atp597
a(S'verehrte'
p598
(dp599
S'VERB'
p600
F0.549995
sS'ADJ'
p601
F0.450005
s(lp602
g49
atp603
a(S'kollegen'
p604
(dp605
S'ADJ'
p606
F0.127749
sS'NOUN'
p607
F0.749663
s(lp608
tp609
a(S'!'
p610
(dp611
g24
F1.0
s(lp612
g61
atp613
a(S'der'
p614
(dp615
S'PRON'
p616
F0.000813
sS'DET'
p617
F0.99894
s(lp618
g77
atp619
a(S'schutz'
p620
(dp621
S'ADJ'
p622
F0.011948
sS'NOUN'
p623
F0.972522
s(lp624
g83
atp625
a(S'der'
p626
(dp627
S'PRON'
p628
F9.5e-05
sS'DET'
p629
F0.999868
s(lp630
g90
atp631
a(S'bienen'
p632
(dp633
S'ADJ'
p634
F1.0
s(lp635
g96
atp636
a(S'liegt'
p637
(dp638
S'VERB'
p639
F1.0
s(lp640
g103
atp641
a(S'im'
p642
(dp643
S'ADP'
p644
F1.0
s(lp645
g129
atp646
a(S'ureigensten'
p647
(dp648
S'ADJ'
p649
F1.0
s(lp650
g283
atp651
a(S'interesse'
p652
(dp653
S'VERB'
p654
F0.000461
sS'NOUN'
p655
F0.99952
s(lp656
g143
atp657
a(S'der'
p658
(dp659
S'PRON'
p660
F0.000106
sS'DET'
p661
F0.999864
s(lp662
g299
atp663
a(S'landwirtschaft'
p664
(dp665
S'ADJ'
p666
F0.024686
sS'NOUN'
p667
F0.966277
s(lp668
g161
atp669
a(g24
(dp670
g24
F1.0
s(lp671
g24
atp672
asS'it'
p673
(lp674
(S'signora'
p675
(dp676
S'NOUN'
p677
F1.0
s(lp678
g14
atp679
a(S'presidente'
p680
(dp681
S'NOUN'
p682
F1.0
s(lp683
g20
atp684
a(g22
(dp685
g24
F1.0
s(lp686
g22
atp687
a(S'signor'
p688
(dp689
S'NOUN'
p690
F1.0
s(lp691
g31
atp692
a(S'commissario'
p693
(dp694
S'VERB'
p695
F0.118816
sS'NOUN'
p696
F0.881184
s(lp697
g40
atp698
a(g22
(dp699
g24
F1.0
s(lp700
g22
atp701
a(S'onorevoli'
p702
(dp703
S'NOUN'
p704
F0.040819
sS'ADJ'
p705
F0.959181
s(lp706
g49
atp707
a(S'colleghi'
p708
(dp709
S'VERB'
p710
F0.01303
sS'NOUN'
p711
F0.986969
s(lp712
g61
atp713
a(g22
(dp714
g24
F1.0
s(lp715
g22
atp716
a(S'proteggere'
p717
(dp718
S'VERB'
p719
F1.0
s(lp720
g83
atp721
a(S'le'
p722
(dp723
S'PRON'
p724
F0.0
sS'DET'
p725
F1.0
s(lp726
tp727
a(S'api'
p728
(dp729
S'NOUN'
p730
F1.0
s(lp731
g96
atp732
a(S'\xc3\xa8'
p733
(dp734
S'VERB'
p735
F1.0
s(lp736
g103
atp737
a(S"nell'"
p738
(dp739
S'ADJ'
p740
F0.010298
sS'VERB'
p741
F0.103889
sS'NOUN'
p742
F0.885814
s(lp743
g129
atp744
a(S'interesse'
p745
(dp746
S'NOUN'
p747
F1.0
s(lp748
g143
atp749
a(S'del'
p750
(dp751
S'DEF'
p752
F0.001251
sS'ADP'
p753
F0.998749
s(lp754
g149
atp755
a(S'settore'
p756
(dp757
S'ADJ'
p758
F0.002309
sS'NOUN'
p759
F0.997691
s(lp760
g155
atp761
a(S'agricolo'
p762
(dp763
S'ADJ'
p764
F1.0
s(lp765
g161
atp766
a(g22
(dp767
g24
F1.0
s(lp768
tp769
a(S'considerando'
p770
(dp771
S'VERB'
p772
F1.0
s(lp773
tp774
a(S'poi'
p775
(dp776
S'ADV'
p777
F0.99824
sS'NOUN'
p778
F0.00176
s(lp779
g40
atp780
a(S'che'
p781
(dp782
S'PRON'
p783
F0.470501
sS'CONJ'
p784
F0.446205
sS'ADJ'
p785
F0.083294
s(lp786
g170
atp787
a(S'numerosi'
p788
(dp789
S'ADJ'
p790
F1.0
s(lp791
g181
atp792
a(S'agricoltori'
p793
(dp794
S'NOUN'
p795
F1.0
s(lp796
g187
atp797
a(S'sono'
p798
(dp799
S'VERB'
p800
F0.999812
sS'NOUN'
p801
F0.000188
s(lp802
g193
atp803
a(S'anche'
p804
(dp805
S'ADV'
p806
F0.999972
sS'NOUN'
p807
F2.8e-05
s(lp808
g199
atp809
a(S'apicoltori'
p810
(dp811
S'NOUN'
p812
F1.0
s(lp813
g205
atp814
a(g24
(dp815
g24
F1.0
s(lp816
g24
atp817
asS'sk'
p818
(lp819
(S'v\xc3\xa1\xc5\xbeen\xc3\xa1'
p820
(dp821
S'VERB'
p822
F0.607185
sS'ADJ'
p823
F0.392815
s(lp824
tp825
a(S'pani'
p826
(dp827
S'NOUN'
p828
F1.0
s(lp829
g14
atp830
a(S'predsedaj\xc3\xbaca'
p831
(dp832
S'NOUN'
p833
F0.030061
sS'VERB'
p834
F0.9221390000000002
sS'ADJ'
p835
F0.0478
s(lp836
g20
atp837
a(g22
(dp838
g24
F1.0
s(lp839
g22
atp840
a(S'p\xc3\xa1n'
p841
(dp842
S'NOUN'
p843
F1.0
s(lp844
g31
atp845
a(S'ciolo\xc5\x9f'
p846
(dp847
S'ADJ'
p848
F0.000986
sg38
F0.00942
sS'VERB'
p849
F0.027105
sS'NOUN'
p850
F0.96249
s(lp851
g40
atp852
a(g22
(dp853
g24
F1.0
s(lp854
g22
atp855
a(S'd\xc3\xa1my'
p856
(dp857
S'NOUN'
p858
F1.0
s(lp859
g49
atp860
a(S'a'
p861
(dp862
g38
F0.0013250000000000002
sS'CONJ'
p863
F0.997971
sS'NOUN'
p864
F0.000112
sS'ADP'
p865
F0.000533
sS'PRT'
p866
F5.9e-05
s(lp867
g55
atp868
a(S'p\xc3\xa1ni'
p869
(dp870
S'NOUN'
p871
F1.0
s(lp872
g61
atp873
a(g22
(dp874
g24
F1.0
s(lp875
g22
atp876
a(S'poskytnutie'
p877
(dp878
S'NOUN'
p879
F1.0
s(lp880
g77
atp881
a(S'ochrany'
p882
(dp883
S'NOUN'
p884
F1.0
s(lp885
g83
atp886
a(S'v\xc4\x8del\xc3\xa1m'
p887
(dp888
S'NOUN'
p889
F1.0
s(lp890
g96
atp891
a(S'je'
p892
(dp893
g38
F0.00014199999999999998
sS'VERB'
p894
F0.999837
sS'PRON'
p895
F2.1e-05
s(lp896
g103
atp897
a(S'v'
p898
(dp899
g38
F0.00012099999999999999
sS'ADP'
p900
F0.999878
s(lp901
g129
atp902
a(S'najlep\xc5\xa1om'
p903
(dp904
S'ADJ'
p905
F1.0
s(lp906
g283
atp907
a(S'z\xc3\xa1ujme'
p908
(dp909
S'NOUN'
p910
F1.0
s(lp911
g143
atp912
a(S'odvetvia'
p913
(dp914
S'NOUN'
p915
F1.0
s(lp916
g155
atp917
a(S'po\xc4\xbenohospod\xc3\xa1rstva'
p918
(dp919
S'NOUN'
p920
F1.0
s(lp921
g161
atp922
a(g861
(dp923
g38
F0.0021599999999999996
sS'CONJ'
p924
F0.996693
sS'NOUN'
p925
F7.099999999999999e-05
sS'ADP'
p926
F0.00107
sS'PRT'
p927
F5e-06
s(lp928
g170
atp929
a(S'mnoh\xc3\xad'
p930
(dp931
S'NUM'
p932
F1.0
s(lp933
g181
atp934
a(S'po\xc4\xbenohospod\xc3\xa1ri'
p935
(dp936
S'NOUN'
p937
F1.0
s(lp938
g187
atp939
a(S's\xc3\xba'
p940
(dp941
S'VERB'
p942
F1.0
s(lp943
g193
atp944
a(S'aj'
p945
(dp946
g38
F0.88843
sS'CONJ'
p947
F0.11157
s(lp948
g199
atp949
a(S'v\xc4\x8del\xc3\xa1ri'
p950
(dp951
S'NOUN'
p952
F1.0
s(lp953
g205
atp954
a(g24
(dp955
g24
F1.0
s(lp956
g24
atp957
asS'pl'
p958
(lp959
(S'pani'
p960
(dp961
S'NOUN'
p962
F0.999999
s(lp963
tp964
a(S'przewodnicz\xc4\x85ca'
p965
(dp966
S'NOUN'
p967
F1.0
s(lp968
g14
atp969
a(g22
(dp970
g38
F0.0
sg24
F1.0
s(lp971
g22
atp972
a(S'panie'
p973
(dp974
S'NOUN'
p975
F1.0
s(lp976
g31
atp977
a(S'komisarzu'
p978
(dp979
S'NOUN'
p980
F1.0
s(lp981
tp982
a(S'ciolo\xc5\x9f'
p983
(dp984
S'ADJ'
p985
F0.0009999999999999998
sS'VERB'
p986
F0.030236
sS'NOUN'
p987
F0.968664
sg38
F0.000101
s(lp988
g40
atp989
a(g22
(dp990
g38
F0.0
sg24
F1.0
s(lp991
g22
atp992
a(S'panie'
p993
(dp994
S'NOUN'
p995
F1.0000010000000001
s(lp996
g49
atp997
a(S'i'
p998
(dp999
S'PRT'
p1000
F0.003492
sS'CONJ'
p1001
F0.99649
sS'PRON'
p1002
F6e-06
sS'NOUN'
p1003
F5.999999999999999e-06
sg38
F7e-06
s(lp1004
g55
atp1005
a(S'panowie'
p1006
(dp1007
S'NOUN'
p1008
F1.0
s(lp1009
tp1010
a(g610
(dp1011
g24
F1.0
s(lp1012
g61
atp1013
a(S'zapewnienie'
p1014
(dp1015
S'VERB'
p1016
F0.948733
sS'NOUN'
p1017
F0.051268
s(lp1018
g77
atp1019
a(S'ochrony'
p1020
(dp1021
S'NOUN'
p1022
F1.0
s(lp1023
g83
atp1024
a(S'pszczo\xc5\x82om'
p1025
(dp1026
S'ADV'
p1027
F0.002152
sS'NOUN'
p1028
F0.946738
sS'PRT'
p1029
F0.008611
sS'VERB'
p1030
F0.0008510000000000001
sg38
F0.001738
sS'ADJ'
p1031
F0.039914
s(lp1032
g96
atp1033
a(S'le\xc5\xbcy'
p1034
(dp1035
S'VERB'
p1036
F1.0
s(lp1037
g103
atp1038
a(S'w'
p1039
(dp1040
S'ADJ'
p1041
F0.0
sg38
F0.0
sS'NOUN'
p1042
F0.0
sS'ADP'
p1043
F1.0
s(lp1044
g129
atp1045
a(S'interesie'
p1046
(dp1047
S'NOUN'
p1048
F1.0
s(lp1049
g143
atp1050
a(S'ca\xc5\x82ego'
p1051
(dp1052
S'ADJ'
p1053
F1.0
s(lp1054
g299
atp1055
a(S'sektora'
p1056
(dp1057
S'NOUN'
p1058
F1.0
s(lp1059
g155
atp1060
a(S'rolnego'
p1061
(dp1062
S'ADJ'
p1063
F1.0
s(lp1064
g161
atp1065
a(g22
(dp1066
g38
F0.0
sg24
F1.0
s(lp1067
tp1068
a(g861
(dp1069
S'ADV'
p1070
F0.000697
sS'NOUN'
p1071
F0.00031
sS'ADP'
p1072
F0.000384
sS'PRT'
p1073
F0.01158
sS'VERB'
p1074
F0.00022400000000000002
sg38
F0.000713
sS'CONJ'
p1075
F0.986075
sS'ADJ'
p1076
F1.6000000000000003e-05
s(lp1077
g170
atp1078
a(S'wielu'
p1079
(dp1080
S'NUM'
p1081
F1.000002
s(lp1082
g181
atp1083
a(S'rolnik\xc3\xb3w'
p1084
(dp1085
S'NOUN'
p1086
F1.0
s(lp1087
g187
atp1088
a(S'jest'
p1089
(dp1090
S'VERB'
p1091
F1.0
s(lp1092
g193
atp1093
a(S'r\xc3\xb3wnie\xc5\xbc'
p1094
(dp1095
S'PRT'
p1096
F0.97956
sS'CONJ'
p1097
F0.02044
s(lp1098
g199
atp1099
a(S'pszczelarzami'
p1100
(dp1101
S'ADV'
p1102
F0.005087
sS'NOUN'
p1103
F0.9548639999999999
sS'PRT'
p1104
F0.001581
sS'VERB'
p1105
F0.020567000000000002
sg38
F0.002413
sS'ADJ'
p1106
F0.015488
s(lp1107
g205
atp1108
a(g24
(dp1109
g24
F1.0
s(lp1110
g24
atp1111
asS'sl'
p1112
(lp1113
(S'gospa'
p1114
(dp1115
S'NOUN'
p1116
F1.0
s(lp1117
g14
atp1118
a(S'predsednica'
p1119
(dp1120
S'NOUN'
p1121
F1.0
s(lp1122
g20
atp1123
a(g22
(dp1124
g24
F1.0
s(lp1125
g22
atp1126
a(S'gospod'
p1127
(dp1128
S'NOUN'
p1129
F1.0
s(lp1130
g31
atp1131
a(S'ciolo\xc5\x9f'
p1132
(dp1133
S'ADV'
p1134
F0.000619
sS'NOUN'
p1135
F0.5314400000000001
sS'NUM'
p1136
F0.062154
sS'VERB'
p1137
F0.15213899999999997
sg38
F0.24721700000000002
sS'ADJ'
p1138
F0.006432000000000001
s(lp1139
g40
atp1140
a(g22
(dp1141
g24
F1.0
s(lp1142
g22
atp1143
a(S'gospe'
p1144
(dp1145
S'NOUN'
p1146
F1.0
s(lp1147
g49
atp1148
a(S'in'
p1149
(dp1150
S'ADV'
p1151
F2.2e-05
sg38
F1.4e-05
sS'CONJ'
p1152
F0.999957
sS'NOUN'
p1153
F7e-06
s(lp1154
g55
atp1155
a(S'gospodje'
p1156
(dp1157
S'NOUN'
p1158
F1.0
s(lp1159
g61
atp1160
a(g22
(dp1161
g24
F1.0
s(lp1162
g22
atp1163
a(S'zagotavljanje'
p1164
(dp1165
S'NOUN'
p1166
F1.0
s(lp1167
g77
atp1168
a(S'za\xc5\xa1\xc4\x8dite'
p1169
(dp1170
S'NOUN'
p1171
F1.0
s(lp1172
g83
atp1173
a(S'za'
p1174
(dp1175
S'ADV'
p1176
F0.000114
sg38
F1.6e-05
sS'ADP'
p1177
F0.9998710000000001
s(lp1178
g90
atp1179
a(S'\xc4\x8debele'
p1180
(dp1181
S'NOUN'
p1182
F1.0000010000000001
s(lp1183
g96
atp1184
a(S'je'
p1185
(dp1186
S'PRON'
p1187
F0.000443
sS'VERB'
p1188
F0.999497
sg38
F6e-05
s(lp1189
g103
atp1190
a(g898
(dp1191
S'ADP'
p1192
F1.0
s(lp1193
g129
atp1194
a(S'najbolj\xc5\xa1em'
p1195
(dp1196
S'ADJ'
p1197
F1.0
s(lp1198
g283
atp1199
a(S'interesu'
p1200
(dp1201
S'NOUN'
p1202
F1.0
s(lp1203
g143
atp1204
a(S'kmetijskega'
p1205
(dp1206
S'ADJ'
p1207
F1.0
s(lp1208
g161
atp1209
a(S'sektorja'
p1210
(dp1211
S'NOUN'
p1212
F1.0
s(lp1213
g155
atp1214
a(S'in'
p1215
(dp1216
S'ADV'
p1217
F0.000182
sg38
F6e-06
sS'CONJ'
p1218
F0.999809
sS'NOUN'
p1219
F3e-06
s(lp1220
g170
atp1221
a(S'\xc5\xa1tevilni'
p1222
(dp1223
S'ADJ'
p1224
F1.0
s(lp1225
g181
atp1226
a(S'kmetje'
p1227
(dp1228
S'NOUN'
p1229
F1.0
s(lp1230
g187
atp1231
a(S'so'
p1232
(dp1233
g38
F2.5e-05
sS'VERB'
p1234
F0.999974
s(lp1235
g193
atp1236
a(S'tudi'
p1237
(dp1238
S'PRT'
p1239
F1.0
s(lp1240
g199
atp1241
a(S'\xc4\x8debelarji'
p1242
(dp1243
S'NOUN'
p1244
F1.0
s(lp1245
g205
atp1246
a(g24
(dp1247
g24
F1.0
s(lp1248
g24
atp1249
asS'es'
p1250
(lp1251
(S'se\xc3\xb1ora'
p1252
(dp1253
S'NOUN'
p1254
F1.0
s(lp1255
g14
atp1256
a(S'presidenta'
p1257
(dp1258
S'NOUN'
p1259
F1.0
s(lp1260
g20
atp1261
a(g22
(dp1262
g24
F1.0
s(lp1263
g22
atp1264
a(S'se\xc3\xb1or'
p1265
(dp1266
S'NOUN'
p1267
F1.0
s(lp1268
g31
atp1269
a(S'ciolo\xc5\x9f'
p1270
(dp1271
S'ADJ'
p1272
F0.115278
sS'VERB'
p1273
F0.493244
sS'NOUN'
p1274
F0.391478
s(lp1275
g40
atp1276
a(g22
(dp1277
g24
F1.0
s(lp1278
g22
atp1279
a(S'se\xc3\xb1or\xc3\xadas'
p1280
(dp1281
S'NOUN'
p1282
F1.0
s(lp1283
g49
atp1284
a(g22
(dp1285
g24
F1.0
s(lp1286
g22
atp1287
a(S'proporcionar'
p1288
(dp1289
S'VERB'
p1290
F1.0
s(lp1291
g77
atp1292
a(S'protecci\xc3\xb3n'
p1293
(dp1294
S'NOUN'
p1295
F1.0
s(lp1296
g83
atp1297
a(g861
(dp1298
g38
F0.000427
sS'CONJ'
p1299
F3e-06
sS'ADP'
p1300
F0.99957
s(lp1301
g90
atp1302
a(S'las'
p1303
(dp1304
S'PRON'
p1305
F0.0
sS'DET'
p1306
F1.0
s(lp1307
tp1308
a(S'abejas'
p1309
(dp1310
S'NOUN'
p1311
F1.0
s(lp1312
g96
atp1313
a(S'es'
p1314
(dp1315
S'VERB'
p1316
F1.0
s(lp1317
g103
atp1318
a(S'lo'
p1319
(dp1320
S'PRON'
p1321
F2.2e-05
sS'DET'
p1322
F0.999978
s(lp1323
g137
atp1324
a(S'm\xc3\xa1s'
p1325
(dp1326
S'ADV'
p1327
F0.999991
sS'CONJ'
p1328
F9e-06
s(lp1329
tp1330
a(S'conveniente'
p1331
(dp1332
S'ADJ'
p1333
F1.0
s(lp1334
g283
atp1335
a(S'para'
p1336
(dp1337
S'CONJ'
p1338
F0.002185
sS'ADP'
p1339
F0.997815
s(lp1340
g149
atp1341
a(S'el'
p1342
(dp1343
S'PRON'
p1344
F5e-06
sS'DET'
p1345
F0.999995
s(lp1346
g299
atp1347
a(S'sector'
p1348
(dp1349
S'NOUN'
p1350
F1.0
s(lp1351
g155
atp1352
a(S'agr\xc3\xadcola'
p1353
(dp1354
S'ADJ'
p1355
F1.0
s(lp1356
g161
atp1357
a(S'y'
p1358
(dp1359
g38
F5e-06
sS'CONJ'
p1360
F0.999995
s(lp1361
g170
atp1362
a(S'muchos'
p1363
(dp1364
S'ADJ'
p1365
F1.0
s(lp1366
g181
atp1367
a(S'agricultores'
p1368
(dp1369
S'NOUN'
p1370
F1.0
s(lp1371
g187
atp1372
a(S'son'
p1373
(dp1374
S'VERB'
p1375
F0.99834
sS'NOUN'
p1376
F0.00166
s(lp1377
g193
atp1378
a(S'adem\xc3\xa1s'
p1379
(dp1380
S'ADV'
p1381
F1.0
s(lp1382
g199
atp1383
a(S'apicultores'
p1384
(dp1385
S'NOUN'
p1386
F1.0
s(lp1387
g205
atp1388
a(g24
(dp1389
g24
F1.0
s(lp1390
g24
atp1391
as.