(dp0
S'fr'
p1
(lp2
(S'face'
p3
(dp4
S'NOUN'
p5
F1.0
s(lp6
S'faced'
p7
atp8
a(S'\xc3\xa0'
p9
(dp10
S'ADP'
p11
F1.0
s(lp12
S'with'
p13
atp14
a(S"l'"
p15
(dp16
S'ADJ'
p17
F0.160704
sS'VERB'
p18
F0.06480800000000002
sS'NOUN'
p19
F0.774488
s(lp20
tp21
a(S'attitude'
p22
(dp23
S'NOUN'
p24
F1.0
s(lp25
S'attitude'
p26
atp27
a(S'inflexible'
p28
(dp29
S'ADJ'
p30
F1.0
s(lp31
S'inflexible'
p32
atp33
a(S'et'
p34
(dp35
S'CONJ'
p36
F1.0
s(lp37
S'and'
p38
atp39
a(S'rigide'
p40
(dp41
S'ADJ'
p42
F1.0
s(lp43
S'rigid'
p44
atp45
a(S'de'
p46
(dp47
S'ADP'
p48
F1.0
s(lp49
S"'s"
p50
atp51
a(S'la'
p52
(dp53
S'PRON'
p54
F0.00138
sS'DET'
p55
F0.998619
sS'NOUN'
p56
F1e-06
s(lp57
tp58
a(S'chine'
p59
(dp60
S'VERB'
p61
F0.0019010000000000001
sS'NOUN'
p62
F0.998099
s(lp63
S'china'
p64
atp65
a(S'envers'
p66
(dp67
S'NOUN'
p68
F1.2e-05
sS'ADP'
p69
F0.999988
s(lp70
S'to'
p71
atp72
a(S'le'
p73
(dp74
S'PRON'
p75
F6.2e-05
sS'DET'
p76
F0.999938
s(lp77
tp78
a(S'tibet'
p79
(dp80
S'ADJ'
p81
F0.002109
sS'NOUN'
p82
F0.997891
s(lp83
S'tibet'
p84
atp85
a(S','
p86
(dp87
S'.'
p88
F1.0
s(lp89
g86
atp90
a(S'je'
p91
(dp92
S'PRON'
p93
F1.0
s(lp94
S'i'
p95
atp96
a(S'voudrais'
p97
(dp98
S'VERB'
p99
F1.0
s(lp100
S'like'
p101
atp102
a(S'inviter'
p103
(dp104
S'VERB'
p105
F1.0
s(lp106
S'call'
p107
atp108
a(S'le'
p109
(dp110
S'PRON'
p111
F3.4e-05
sS'DET'
p112
F0.999966
s(lp113
S'the'
p114
atp115
a(S'parlement'
p116
(dp117
S'NOUN'
p118
F1.0
s(lp119
S'parliament'
p120
atp121
a(S'europ\xc3\xa9en'
p122
(dp123
S'NOUN'
p124
F0.007084
sS'ADJ'
p125
F0.992916
s(lp126
S'european'
p127
atp128
a(S'\xc3\xa0'
p129
(dp130
S'ADP'
p131
F1.0
s(lp132
S'to'
p133
atp134
a(S'afficher'
p135
(dp136
S'VERB'
p137
F1.0
s(lp138
S'maintain'
p139
atp140
a(S'une'
p141
(dp142
S'NOUN'
p143
F5e-06
sS'NUM'
p144
F0.006837
sS'DET'
p145
F0.993158
s(lp146
S'a'
p147
atp148
a(S'position'
p149
(dp150
S'NOUN'
p151
F1.0
s(lp152
S'position'
p153
atp154
a(S'intransigeante'
p155
(dp156
S'ADJ'
p157
F1.0
s(lp158
S'intransigence'
p159
atp160
a(S'vis-\xc3\xa0-vis'
p161
(dp162
S'ADV'
p163
F0.743614
sS'NOUN'
p164
F0.256386
s(lp165
S'regard'
p166
atp167
a(S'des'
p168
(dp169
S'DET'
p170
F9.4e-05
sS'ADP'
p171
F0.999906
s(lp172
tp173
a(S'violations'
p174
(dp175
S'NOUN'
p176
F1.0
s(lp177
S'violations'
p178
atp179
a(S'graves'
p180
(dp181
S'NOUN'
p182
F0.011394
sS'VERB'
p183
F0.002012
sS'ADJ'
p184
F0.986594
s(lp185
S'severe'
p186
atp187
a(S'des'
p188
(dp189
S'DET'
p190
F2.3e-05
sS'ADP'
p191
F0.999977
s(lp192
S'human'
p193
atp194
a(S'droits'
p195
(dp196
S'ADJ'
p197
F0.011772
sS'NOUN'
p198
F0.988228
s(lp199
S'rights'
p200
atp201
a(S'de'
p202
(dp203
S'ADP'
p204
F1.0
s(lp205
S'of'
p206
atp207
a(S"l'"
p208
(dp209
S'ADJ'
p210
F0.160704
sS'VERB'
p211
F0.06480800000000002
sS'NOUN'
p212
F0.774488
s(lp213
tp214
a(S'homme'
p215
(dp216
S'NOUN'
p217
F1.0
s(lp218
g193
atp219
a(S'et'
p220
(dp221
S'CONJ'
p222
F1.0
s(lp223
S'and'
p224
atp225
a(S'des'
p226
(dp227
S'DET'
p228
F0.000612
sS'ADP'
p229
F0.999388
s(lp230
S'minority'
p231
atp232
a(S'droits'
p233
(dp234
S'ADJ'
p235
F0.011157
sS'NOUN'
p236
F0.988843
s(lp237
S'rights'
p238
atp239
a(S'des'
p240
(dp241
S'DET'
p242
F2.1e-05
sS'ADP'
p243
F0.999979
s(lp244
tp245
a(S'minorit\xc3\xa9s'
p246
(dp247
S'NOUN'
p248
F1.0
s(lp249
g231
atp250
a(S'commises'
p251
(dp252
S'VERB'
p253
F0.979201
sS'NOUN'
p254
F0.020799
s(lp255
S'committed'
p256
atp257
a(S'par'
p258
(dp259
S'NOUN'
p260
F0.0
sS'ADP'
p261
F1.0
s(lp262
S'by'
p263
atp264
a(S'les'
p265
(dp266
S'PRON'
p267
F5.6e-05
sS'DET'
p268
F0.999943
sS'ADP'
p269
F2e-06
s(lp270
S'the'
p271
atp272
a(S'autorit\xc3\xa9s'
p273
(dp274
S'NOUN'
p275
F1.0
s(lp276
S'authorities'
p277
atp278
a(S'chinoises'
p279
(dp280
S'NOUN'
p281
F0.016774
sS'VERB'
p282
F0.001715
sS'ADJ'
p283
F0.981512
s(lp284
S'chinese'
p285
atp286
a(S'et'
p287
(dp288
S'CONJ'
p289
F1.0
s(lp290
S'and'
p291
atp292
a(S'\xc3\xa0'
p293
(dp294
S'ADP'
p295
F1.0
s(lp296
S'to'
p297
atp298
a(S"s'"
p299
(dp300
S'ADJ'
p301
F0.160704
sS'VERB'
p302
F0.06480800000000002
sS'NOUN'
p303
F0.774488
s(lp304
tp305
a(S'assurer'
p306
(dp307
S'VERB'
p308
F1.0
s(lp309
S'ensure'
p310
atp311
a(S'que'
p312
(dp313
S'ADV'
p314
F0.024563
sS'PRON'
p315
F0.025951
sS'CONJ'
p316
F0.949486
s(lp317
S'that'
p318
atp319
a(S'le'
p320
(dp321
S'PRON'
p322
F0.00165
sS'DET'
p323
F0.99835
s(lp324
S'the'
p325
atp326
a(S'peuple'
p327
(dp328
S'VERB'
p329
F0.001089
sS'NOUN'
p330
F0.998911
s(lp331
S'people'
p332
atp333
a(S'tib\xc3\xa9tain'
p334
(dp335
S'NOUN'
p336
F0.019003
sS'ADJ'
p337
F0.980997
s(lp338
S'tibet'
p339
atp340
a(S'saura'
p341
(dp342
S'VERB'
p343
F1.0
s(lp344
S'know'
p345
atp346
a(S'que'
p347
(dp348
S'ADV'
p349
F0.025348
sS'PRON'
p350
F0.118513
sS'CONJ'
p351
F0.856139
s(lp352
tp353
a(S'nous'
p354
(dp355
S'PRON'
p356
F1.0
s(lp357
S'we'
p358
atp359
a(S'les'
p360
(dp361
S'PRON'
p362
F0.999695
sS'DET'
p363
F0.000305
sS'ADP'
p364
F0.0
s(lp365
S'them'
p366
atp367
a(S'soutenons'
p368
(dp369
S'VERB'
p370
F1.0
s(lp371
S'behind'
p372
atp373
a(S'et'
p374
(dp375
S'CONJ'
p376
F1.0
s(lp377
S'and'
p378
atp379
a(S'que'
p380
(dp381
S'ADV'
p382
F0.005177
sS'PRON'
p383
F0.78298
sS'CONJ'
p384
F0.211843
s(lp385
tp386
a(S'sommes'
p387
(dp388
S'VERB'
p389
F0.990296
sS'NOUN'
p390
F0.009704
s(lp391
S'are'
p392
atp393
a(S'pr\xc3\xaats'
p394
(dp395
S'NOUN'
p396
F0.044502
sS'ADJ'
p397
F0.955498
s(lp398
S'ready'
p399
atp400
a(S'\xc3\xa0'
p401
(dp402
S'ADP'
p403
F1.0
s(lp404
S'to'
p405
atp406
a(S'les'
p407
(dp408
S'PRON'
p409
F0.557712
sS'DET'
p410
F0.441708
sS'ADP'
p411
F0.00058
s(lp412
tp413
a(S'aider'
p414
(dp415
S'VERB'
p416
F1.0
s(lp417
S'help'
p418
atp419
a(g88
(dp420
g88
F1.0
s(lp421
g88
atp422
asS'en'
p423
(lp424
(g7
(dp425
S'VERB'
p426
F1.0
s(lp427
g7
atp428
a(g13
(dp429
S'ADP'
p430
F1.0
s(lp431
g13
atp432
a(g64
(dp433
S'NOUN'
p434
F1.0
s(lp435
g64
atp436
a(g50
(dp437
S'PRT'
p438
F0.978585
sg88
F0.021415
s(lp439
g50
atp440
a(g32
(dp441
S'ADJ'
p442
F1.0
s(lp443
g32
atp444
a(g38
(dp445
S'CONJ'
p446
F0.999998
sS'NOUN'
p447
F2e-06
s(lp448
g38
atp449
a(g44
(dp450
S'ADJ'
p451
F1.0
s(lp452
g44
atp453
a(g26
(dp454
S'NOUN'
p455
F1.0
s(lp456
g26
atp457
a(g71
(dp458
S'ADV'
p459
F0.0
sS'PRT'
p460
F0.999988
sS'ADP'
p461
F1.2e-05
s(lp462
g71
atp463
a(g84
(dp464
S'ADJ'
p465
F0.022802
sS'NOUN'
p466
F0.977198
s(lp467
g84
atp468
a(g86
(dp469
g88
F1.0
s(lp470
g86
atp471
a(g95
(dp472
S'X'
p473
F0.177708
sS'NOUN'
p474
F0.822292
s(lp475
g95
atp476
a(S'would'
p477
(dp478
S'VERB'
p479
F1.0
s(lp480
g477
atp481
a(g101
(dp482
S'VERB'
p483
F0.9997360000000001
sS'ADJ'
p484
F3.1e-05
sS'ADP'
p485
F0.000233
s(lp486
g101
atp487
a(S'to'
p488
(dp489
S'ADV'
p490
F0.0
sS'PRT'
p491
F1.0
sS'ADP'
p492
F0.0
s(lp493
g488
atp494
a(g107
(dp495
S'ADJ'
p496
F0.001357
sS'VERB'
p497
F0.970932
sS'NOUN'
p498
F0.02771
s(lp499
g107
atp500
a(S'on'
p501
(dp502
S'ADV'
p503
F0.003726
sS'PRT'
p504
F0.037753
sS'ADJ'
p505
F0.0
sS'ADP'
p506
F0.958521
sS'NOUN'
p507
F0.0
s(lp508
g501
atp509
a(g114
(dp510
S'NOUN'
p511
F1e-06
sS'DET'
p512
F0.999999
s(lp513
g114
atp514
a(g127
(dp515
S'NOUN'
p516
F0.10881199999999999
sS'VERB'
p517
F1.1e-05
sS'ADJ'
p518
F0.891178
s(lp519
g127
atp520
a(g120
(dp521
S'NOUN'
p522
F1.0
s(lp523
g120
atp524
a(g133
(dp525
S'ADV'
p526
F0.0
sS'PRT'
p527
F1.0
sS'ADP'
p528
F0.0
s(lp529
g133
atp530
a(g139
(dp531
S'VERB'
p532
F1.0
s(lp533
g139
atp534
a(g147
(dp535
S'NOUN'
p536
F0.0
sS'DET'
p537
F1.0
s(lp538
g147
atp539
a(g153
(dp540
S'VERB'
p541
F3.6e-05
sS'NOUN'
p542
F0.999964
s(lp543
g153
atp544
a(S'of'
p545
(dp546
S'ADP'
p547
F1.0
s(lp548
g545
atp549
a(g159
(dp550
S'NOUN'
p551
F1.0
s(lp552
g159
atp553
a(S'with'
p554
(dp555
S'ADP'
p556
F1.0
s(lp557
g554
atp558
a(g166
(dp559
S'VERB'
p560
F0.017924000000000002
sS'NOUN'
p561
F0.982076
s(lp562
g166
atp563
a(S'to'
p564
(dp565
S'ADV'
p566
F1e-06
sS'PRT'
p567
F0.999989
sS'ADP'
p568
F1e-05
s(lp569
g564
atp570
a(S'the'
p571
(dp572
S'NOUN'
p573
F1e-06
sS'DET'
p574
F0.999999
s(lp575
g571
atp576
a(g186
(dp577
S'ADJ'
p578
F1.0
s(lp579
g186
atp580
a(g178
(dp581
S'NOUN'
p582
F1.0
s(lp583
g178
atp584
a(g206
(dp585
S'ADP'
p586
F1.0
s(lp587
g206
atp588
a(g193
(dp589
S'NOUN'
p590
F0.018066
sS'ADJ'
p591
F0.981934
s(lp592
g193
atp593
a(g200
(dp594
S'VERB'
p595
F2e-06
sS'NOUN'
p596
F0.999998
s(lp597
g200
atp598
a(g224
(dp599
S'CONJ'
p600
F0.999999
sS'NOUN'
p601
F1e-06
s(lp602
g224
atp603
a(g231
(dp604
S'NOUN'
p605
F1.0
s(lp606
g231
atp607
a(g238
(dp608
S'VERB'
p609
F0.000372
sS'NOUN'
p610
F0.999628
s(lp611
g238
atp612
a(g256
(dp613
S'VERB'
p614
F0.980803
sS'ADJ'
p615
F0.019196
s(lp616
g256
atp617
a(g263
(dp618
S'ADV'
p619
F0.000183
sS'NOUN'
p620
F0.0
sS'ADP'
p621
F0.999816
s(lp622
g263
atp623
a(g271
(dp624
S'NOUN'
p625
F1e-06
sS'DET'
p626
F0.999999
s(lp627
g271
atp628
a(g285
(dp629
S'NOUN'
p630
F0.296122
sS'ADJ'
p631
F0.703878
s(lp632
g285
atp633
a(g277
(dp634
S'NOUN'
p635
F1.0
s(lp636
g277
atp637
a(g291
(dp638
S'CONJ'
p639
F0.999992
sS'NOUN'
p640
F8e-06
s(lp641
g291
atp642
a(g297
(dp643
S'ADV'
p644
F2e-06
sS'PRT'
p645
F0.999998
sS'ADP'
p646
F0.0
s(lp647
g297
atp648
a(g310
(dp649
S'VERB'
p650
F1.0
s(lp651
g310
atp652
a(g318
(dp653
S'ADV'
p654
F0.000569
sS'DET'
p655
F0.017936
sS'ADP'
p656
F0.981495
s(lp657
g318
atp658
a(g325
(dp659
S'NOUN'
p660
F2.1e-05
sS'DET'
p661
F0.999979
s(lp662
g325
atp663
a(g332
(dp664
S'VERB'
p665
F2e-06
sS'NOUN'
p666
F0.999997
s(lp667
g332
atp668
a(S'of'
p669
(dp670
S'ADP'
p671
F1.0
s(lp672
g669
atp673
a(g339
(dp674
S'ADJ'
p675
F0.015383
sS'NOUN'
p676
F0.984616
s(lp677
g339
atp678
a(g345
(dp679
S'VERB'
p680
F1.0
s(lp681
g345
atp682
a(g358
(dp683
S'PRON'
p684
F1.0
s(lp685
g358
atp686
a(g392
(dp687
S'VERB'
p688
F1.0
sS'NOUN'
p689
F0.0
s(lp690
g392
atp691
a(g372
(dp692
S'ADV'
p693
F0.555486
sS'NOUN'
p694
F0.000108
sS'ADP'
p695
F0.444406
s(lp696
g372
atp697
a(g366
(dp698
S'PRON'
p699
F1.0
s(lp700
g366
atp701
a(g378
(dp702
S'CONJ'
p703
F1.0
sS'NOUN'
p704
F0.0
s(lp705
g378
atp706
a(g399
(dp707
S'ADV'
p708
F0.029026
sS'NOUN'
p709
F0.003446
sS'VERB'
p710
F0.011363999999999999
sS'ADJ'
p711
F0.956164
s(lp712
g399
atp713
a(g405
(dp714
S'ADV'
p715
F0.0
sS'PRT'
p716
F1.0
sS'ADP'
p717
F0.0
s(lp718
g405
atp719
a(g418
(dp720
S'VERB'
p721
F0.993244
sS'NOUN'
p722
F0.006756
s(lp723
g418
atp724
a(g88
(dp725
g88
F1.0
s(lp726
g88
atp727
asS'nl'
p728
(lp729
(S'in'
p730
(dp731
S'ADV'
p732
F0.009344
sS'VERB'
p733
F1e-06
sS'ADP'
p734
F0.990655
s(lp735
tp736
a(S'het'
p737
(dp738
S'PRON'
p739
F0.0012699999999999999
sS'DET'
p740
F0.99873
s(lp741
tp742
a(S'licht'
p743
(dp744
S'ADV'
p745
F0.000303
sS'ADJ'
p746
F0.053129
sS'VERB'
p747
F1.3e-05
sS'NOUN'
p748
F0.946554
s(lp749
g7
atp750
a(S'van'
p751
(dp752
S'ADP'
p753
F1.0
s(lp754
tp755
a(S'de'
p756
(dp757
S'DET'
p758
F1.0
s(lp759
tp760
a(S'starre'
p761
(dp762
S'NOUN'
p763
F0.437627
sS'ADJ'
p764
F0.562373
s(lp765
g32
atp766
a(g86
(dp767
g88
F1.0
s(lp768
g38
atp769
a(S'rigide'
p770
(dp771
S'ADJ'
p772
F1.0
s(lp773
g44
atp774
a(S'houding'
p775
(dp776
S'NOUN'
p777
F1.0
s(lp778
tp779
a(S'van'
p780
(dp781
S'ADP'
p782
F1.0
s(lp783
g50
atp784
a(S'china'
p785
(dp786
S'ADJ'
p787
F8.9e-05
sS'NOUN'
p788
F0.999911
s(lp789
g64
atp790
a(S'tegenover'
p791
(dp792
S'ADP'
p793
F1.0
s(lp794
g26
atp795
a(S'tibet'
p796
(dp797
S'ADJ'
p798
F0.005987
sS'NOUN'
p799
F0.9940129999999999
s(lp800
g84
atp801
a(S'wil'
p802
(dp803
S'VERB'
p804
F0.999746
sS'NOUN'
p805
F0.000254
s(lp806
g101
atp807
a(S'ik'
p808
(dp809
S'PRON'
p810
F1.0
sS'NOUN'
p811
F0.0
s(lp812
g95
atp813
a(S'het'
p814
(dp815
S'PRON'
p816
F0.008709
sS'DET'
p817
F0.991291
s(lp818
g114
atp819
a(S'parlement'
p820
(dp821
S'NOUN'
p822
F1.0
s(lp823
g120
atp824
a(S'verzoeken'
p825
(dp826
S'VERB'
p827
F0.999999
sS'NOUN'
p828
F1e-06
s(lp829
g107
atp830
a(S'zich'
p831
(dp832
S'PRON'
p833
F1.0
s(lp834
tp835
a(S'onverzoenlijk'
p836
(dp837
S'ADJ'
p838
F1.0
s(lp839
g159
atp840
a(S'op'
p841
(dp842
S'ADV'
p843
F0.99397
sS'ADJ'
p844
F0.000359
sS'ADP'
p845
F0.005671
s(lp846
g554
atp847
a(S'te'
p848
(dp849
S'PRT'
p850
F1.0
s(lp851
g133
atp852
a(S'stellen'
p853
(dp854
S'VERB'
p855
F0.999996
sS'NOUN'
p856
F4e-06
s(lp857
g139
atp858
a(S'tegenover'
p859
(dp860
S'ADP'
p861
F1.0
s(lp862
g166
atp863
a(S'de'
p864
(dp865
S'DET'
p866
F1.0
s(lp867
g571
atp868
a(S'ernstige'
p869
(dp870
S'NOUN'
p871
F7e-06
sS'ADJ'
p872
F0.999993
s(lp873
g186
atp874
a(S'schendingen'
p875
(dp876
S'NOUN'
p877
F1.0
s(lp878
g178
atp879
a(S'van'
p880
(dp881
S'ADP'
p882
F1.0
s(lp883
g206
atp884
a(S'de'
p885
(dp886
S'DET'
p887
F1.0
s(lp888
tp889
a(S'mensenrechten'
p890
(dp891
S'NOUN'
p892
F1.0
s(lp893
g193
atp894
a(S'en'
p895
(dp896
S'CONJ'
p897
F1.0
s(lp898
g224
atp899
a(S'de'
p900
(dp901
S'DET'
p902
F1.0
s(lp903
tp904
a(S'rechten'
p905
(dp906
S'ADJ'
p907
F2.4e-05
sS'VERB'
p908
F0.0
sS'NOUN'
p909
F0.999976
s(lp910
g238
atp911
a(S'van'
p912
(dp913
S'ADP'
p914
F1.0
s(lp915
tp916
a(S'minderheden'
p917
(dp918
S'NOUN'
p919
F1.0
s(lp920
g231
atp921
a(S'door'
p922
(dp923
S'ADV'
p924
F1e-06
sS'CONJ'
p925
F2.5e-05
sS'ADP'
p926
F0.999974
s(lp927
g263
atp928
a(S'de'
p929
(dp930
S'DET'
p931
F1.0
s(lp932
g271
atp933
a(S'chinese'
p934
(dp935
S'NOUN'
p936
F0.020985
sS'ADJ'
p937
F0.979015
s(lp938
g285
atp939
a(S'autoriteiten'
p940
(dp941
S'NOUN'
p942
F1.0
s(lp943
g277
atp944
a(g86
(dp945
g88
F1.0
s(lp946
g291
atp947
a(S'zodat'
p948
(dp949
S'CONJ'
p950
F1.0
s(lp951
g310
atp952
a(S'de'
p953
(dp954
S'DET'
p955
F1.0
s(lp956
g325
atp957
a(S'tibetanen'
p958
(dp959
S'NOUN'
p960
F1.0
s(lp961
g339
atp962
a(S'weten'
p963
(dp964
S'VERB'
p965
F0.998239
sS'NOUN'
p966
F0.001761
s(lp967
g345
atp968
a(S'dat'
p969
(dp970
S'PRON'
p971
F0.013799
sS'CONJ'
p972
F0.9862
s(lp973
g318
atp974
a(S'wij'
p975
(dp976
S'PRON'
p977
F1.0
s(lp978
g358
atp979
a(S'solidair'
p980
(dp981
S'ADJ'
p982
F1.0
s(lp983
g372
atp984
a(S'zijn'
p985
(dp986
S'PRON'
p987
F4.6e-05
sS'VERB'
p988
F0.99205
sS'NOUN'
p989
F0.007905
s(lp990
g392
atp991
a(S'met'
p992
(dp993
S'ADP'
p994
F1.0
s(lp995
g13
atp996
a(S'hen'
p997
(dp998
S'PRON'
p999
F0.980642
sS'NOUN'
p1000
F0.019358
s(lp1001
g366
atp1002
a(S'en'
p1003
(dp1004
S'CONJ'
p1005
F1.0
s(lp1006
g378
atp1007
a(S'bereid'
p1008
(dp1009
S'VERB'
p1010
F0.839643
sS'ADJ'
p1011
F0.160357
s(lp1012
tp1013
a(S'zijn'
p1014
(dp1015
S'PRON'
p1016
F1.3e-05
sS'VERB'
p1017
F0.986183
sS'NOUN'
p1018
F0.013803
s(lp1019
g399
atp1020
a(S'te'
p1021
(dp1022
S'PRT'
p1023
F1.0
s(lp1024
g405
atp1025
a(S'helpen'
p1026
(dp1027
S'VERB'
p1028
F0.9999990000000001
sS'NOUN'
p1029
F1e-06
s(lp1030
g418
atp1031
a(g88
(dp1032
g88
F1.0
s(lp1033
g88
atp1034
asS'de'
p1035
(lp1036
(S'angesichts'
p1037
(dp1038
S'ADP'
p1039
F1.0
s(lp1040
tp1041
a(S'der'
p1042
(dp1043
S'PRON'
p1044
F0.000438
sS'DET'
p1045
F0.999552
s(lp1046
g50
atp1047
a(S'starren'
p1048
(dp1049
S'VERB'
p1050
F0.001149
sS'ADJ'
p1051
F0.998713
s(lp1052
g32
atp1053
a(S'und'
p1054
(dp1055
S'CONJ'
p1056
F1.0
s(lp1057
g38
atp1058
a(S'unbiegsamen'
p1059
(dp1060
S'ADJ'
p1061
F1.0
s(lp1062
g44
atp1063
a(S'haltung'
p1064
(dp1065
S'ADJ'
p1066
F0.16109
sS'NOUN'
p1067
F0.837988
s(lp1068
tp1069
a(S'chinas'
p1070
(dp1071
S'NOUN'
p1072
F0.894243
s(lp1073
g64
atp1074
a(S'gegen\xc3\xbcber'
p1075
(dp1076
S'ADP'
p1077
F0.97462
s(lp1078
g26
atp1079
a(S'tibet'
p1080
(dp1081
S'ADJ'
p1082
F1.0
s(lp1083
g84
atp1084
a(S'm\xc3\xb6chte'
p1085
(dp1086
S'VERB'
p1087
F1.0
s(lp1088
g101
atp1089
a(S'ich'
p1090
(dp1091
S'PRON'
p1092
F1.0
s(lp1093
g95
atp1094
a(S'das'
p1095
(dp1096
S'PRON'
p1097
F0.059225
sS'DET'
p1098
F0.93964
s(lp1099
g114
atp1100
a(S'europ\xc3\xa4ische'
p1101
(dp1102
S'ADJ'
p1103
F1.0
s(lp1104
g127
atp1105
a(S'parlament'
p1106
(dp1107
S'ADJ'
p1108
F0.010975
sS'NOUN'
p1109
F0.983499
s(lp1110
g120
atp1111
a(S'dazu'
p1112
(dp1113
S'ADV'
p1114
F0.999911
sS'PRT'
p1115
F8.9e-05
s(lp1116
tp1117
a(S'auffordern'
p1118
(dp1119
S'VERB'
p1120
F1.0
s(lp1121
g107
atp1122
a(g86
(dp1123
g88
F1.0
s(lp1124
g564
atp1125
a(S'der'
p1126
(dp1127
S'PRON'
p1128
F0.044814
sS'DET'
p1129
F0.953586
s(lp1130
g571
atp1131
a(S'schweren'
p1132
(dp1133
S'ADJ'
p1134
F1.0
s(lp1135
g186
atp1136
a(g86
(dp1137
g88
F1.0
s(lp1138
tp1139
a(S'durch'
p1140
(dp1141
S'ADV'
p1142
F0.000186
sS'ADP'
p1143
F0.99978
s(lp1144
g263
atp1145
a(S'die'
p1146
(dp1147
S'PRON'
p1148
F0.000218
sS'DET'
p1149
F0.999766
s(lp1150
g271
atp1151
a(S'chinesische'
p1152
(dp1153
S'ADJ'
p1154
F1.0
s(lp1155
g285
atp1156
a(S'regierung'
p1157
(dp1158
S'ADJ'
p1159
F0.001745
sS'NOUN'
p1160
F0.998208
s(lp1161
g277
atp1162
a(S'ver\xc3\xbcbten'
p1163
(dp1164
S'VERB'
p1165
F0.17823
sS'ADJ'
p1166
F0.82177
s(lp1167
g256
atp1168
a(S'verletzungen'
p1169
(dp1170
S'ADJ'
p1171
F0.001615
sS'NOUN'
p1172
F0.998308
s(lp1173
g178
atp1174
a(S'von'
p1175
(dp1176
S'NOUN'
p1177
F0.000326
sS'ADP'
p1178
F0.999674
s(lp1179
g206
atp1180
a(S'menschen-'
p1181
(dp1182
g473
F1.0
s(lp1183
g193
atp1184
a(S'und'
p1185
(dp1186
S'CONJ'
p1187
F1.0
s(lp1188
g224
atp1189
a(S'minderheitenrechten'
p1190
(dp1191
S'VERB'
p1192
F0.942431
s(lp1193
g231
atp1194
a(S'weiterhin'
p1195
(dp1196
S'ADV'
p1197
F1.0
s(lp1198
g139
atp1199
a(S'unnachgiebig'
p1200
(dp1201
S'ADJ'
p1202
F1.0
s(lp1203
tp1204
a(S'gegen\xc3\xbcberzustehen'
p1205
(dp1206
S'VERB'
p1207
F1.0
s(lp1208
g159
atp1209
a(S'und'
p1210
(dp1211
S'CONJ'
p1212
F1.0
s(lp1213
g291
atp1214
a(S'sicherzustellen'
p1215
(dp1216
S'VERB'
p1217
F1.0
s(lp1218
g310
atp1219
a(g86
(dp1220
g88
F1.0
s(lp1221
tp1222
a(S'dass'
p1223
(dp1224
S'CONJ'
p1225
F1.0
s(lp1226
g318
atp1227
a(S'die'
p1228
(dp1229
S'PRON'
p1230
F0.003644
sS'DET'
p1231
F0.996227
s(lp1232
g325
atp1233
a(S'tibetanische'
p1234
(dp1235
S'ADJ'
p1236
F1.0
s(lp1237
g339
atp1238
a(S'bev\xc3\xb6lkerung'
p1239
(dp1240
S'ADJ'
p1241
F0.009951
sS'NOUN'
p1242
F0.981523
s(lp1243
g332
atp1244
a(S'darum'
p1245
(dp1246
S'ADV'
p1247
F1.0
s(lp1248
g133
atp1249
a(S'wei\xc3\x9f'
p1250
(dp1251
S'VERB'
p1252
F0.920708
sS'ADJ'
p1253
F0.051711
s(lp1254
tp1255
a(g86
(dp1256
g88
F1.0
s(lp1257
tp1258
a(S'dass'
p1259
(dp1260
S'CONJ'
p1261
F1.0
s(lp1262
g345
atp1263
a(S'wir'
p1264
(dp1265
S'PRON'
p1266
F1.0
s(lp1267
g358
atp1268
a(S'hinter'
p1269
(dp1270
S'PRT'
p1271
F0.001013
sS'ADP'
p1272
F0.998609
s(lp1273
g372
atp1274
a(S'ihr'
p1275
(dp1276
S'PRON'
p1277
F1.0
s(lp1278
g366
atp1279
a(S'stehen'
p1280
(dp1281
S'VERB'
p1282
F1.0
s(lp1283
g7
atp1284
a(S'und'
p1285
(dp1286
S'CONJ'
p1287
F1.0
s(lp1288
g378
atp1289
a(S'zur'
p1290
(dp1291
S'ADP'
p1292
F1.0
s(lp1293
g405
atp1294
a(S'hilfe'
p1295
(dp1296
S'ADJ'
p1297
F0.000165
sS'NOUN'
p1298
F0.999742
s(lp1299
g418
atp1300
a(S'bereit'
p1301
(dp1302
S'PRT'
p1303
F0.021606
sS'ADJ'
p1304
F0.978394
s(lp1305
tp1306
a(S'sind'
p1307
(dp1308
S'VERB'
p1309
F1.0
s(lp1310
g399
atp1311
a(g88
(dp1312
g88
F1.0
s(lp1313
g88
atp1314
asS'it'
p1315
(lp1316
(g147
(dp1317
S'CONJ'
p1318
F0.00036
sS'ADP'
p1319
F0.99964
s(lp1320
tp1321
a(S'fronte'
p1322
(dp1323
S'NOUN'
p1324
F1.0
s(lp1325
g7
atp1326
a(S"dell'"
p1327
(dp1328
S'ADJ'
p1329
F0.040682
sS'VERB'
p1330
F0.006560999999999999
sS'NOUN'
p1331
F0.952757
s(lp1332
g13
atp1333
a(S'immutabile'
p1334
(dp1335
S'ADJ'
p1336
F1.0
s(lp1337
g32
atp1338
a(S'e'
p1339
(dp1340
S'CONJ'
p1341
F1.0
s(lp1342
g38
atp1343
a(S'rigido'
p1344
(dp1345
S'NOUN'
p1346
F0.012102
sS'ADJ'
p1347
F0.987898
s(lp1348
g44
atp1349
a(S'atteggiamento'
p1350
(dp1351
S'NOUN'
p1352
F1.0
s(lp1353
g26
atp1354
a(S'della'
p1355
(dp1356
S'DEF'
p1357
F0.001587
sS'ADP'
p1358
F0.998413
s(lp1359
g50
atp1360
a(S'cina'
p1361
(dp1362
S'ADJ'
p1363
F0.000245
sS'VERB'
p1364
F0.00029
sS'NOUN'
p1365
F0.999465
s(lp1366
g64
atp1367
a(S'nei'
p1368
(dp1369
S'NOUN'
p1370
F2.4e-05
sS'ADP'
p1371
F0.999976
s(lp1372
tp1373
a(S'confronti'
p1374
(dp1375
S'VERB'
p1376
F5e-06
sS'NOUN'
p1377
F0.999995
s(lp1378
g26
atp1379
a(S'del'
p1380
(dp1381
S'DEF'
p1382
F0.00153
sS'ADP'
p1383
F0.99847
s(lp1384
tp1385
a(S'tibet'
p1386
(dp1387
S'ADJ'
p1388
F0.1887
sS'NOUN'
p1389
F0.8113
s(lp1390
g84
atp1391
a(g86
(dp1392
g88
F1.0
s(lp1393
g86
atp1394
a(S'vorrei'
p1395
(dp1396
S'VERB'
p1397
F1.0
s(lp1398
g101
atp1399
a(S'esortare'
p1400
(dp1401
S'VERB'
p1402
F1.0
s(lp1403
g107
atp1404
a(S'il'
p1405
(dp1406
S'DET'
p1407
F1.0
s(lp1408
g114
atp1409
a(S'parlamento'
p1410
(dp1411
S'VERB'
p1412
F0.000267
sS'NOUN'
p1413
F0.999733
s(lp1414
g120
atp1415
a(S'europeo'
p1416
(dp1417
S'NOUN'
p1418
F0.00272
sS'ADJ'
p1419
F0.99728
s(lp1420
g127
atp1421
a(g147
(dp1422
S'CONJ'
p1423
F0.000389
sS'ADP'
p1424
F0.999611
s(lp1425
g133
atp1426
a(S'mantenere'
p1427
(dp1428
S'VERB'
p1429
F1.0
s(lp1430
g139
atp1431
a(S'una'
p1432
(dp1433
S'PRON'
p1434
F0.000112
sS'DEF'
p1435
F0.999888
s(lp1436
g147
atp1437
a(S'posizione'
p1438
(dp1439
S'NOUN'
p1440
F1.0
s(lp1441
g153
atp1442
a(S'di'
p1443
(dp1444
S'CONJ'
p1445
F4e-06
sS'ADP'
p1446
F0.999996
s(lp1447
g545
atp1448
a(S'intransigenza'
p1449
(dp1450
S'NOUN'
p1451
F1.0
s(lp1452
g159
atp1453
a(S'verso'
p1454
(dp1455
S'NOUN'
p1456
F6.2e-05
sS'VERB'
p1457
F0.003051
sS'ADJ'
p1458
F0.03764
sS'ADP'
p1459
F0.959247
s(lp1460
g564
atp1461
a(S'le'
p1462
(dp1463
S'PRON'
p1464
F0.00077
sS'DET'
p1465
F0.99923
s(lp1466
g571
atp1467
a(S'gravi'
p1468
(dp1469
S'NOUN'
p1470
F0.015679
sS'VERB'
p1471
F0.001248
sS'ADJ'
p1472
F0.983073
s(lp1473
g186
atp1474
a(S'violazioni'
p1475
(dp1476
S'NOUN'
p1477
F1.0
s(lp1478
g178
atp1479
a(S'dei'
p1480
(dp1481
S'NOUN'
p1482
F2e-06
sS'DEF'
p1483
F0.001192
sS'ADP'
p1484
F0.998807
s(lp1485
tp1486
a(S'diritti'
p1487
(dp1488
S'ADJ'
p1489
F0.019464
sS'NOUN'
p1490
F0.980536
s(lp1491
g200
atp1492
a(S'umani'
p1493
(dp1494
S'NOUN'
p1495
F0.048784
sS'ADJ'
p1496
F0.951216
s(lp1497
g193
atp1498
a(g1339
(dp1499
S'CONJ'
p1500
F1.0
s(lp1501
g224
atp1502
a(S'dei'
p1503
(dp1504
S'NOUN'
p1505
F7e-06
sS'DEF'
p1506
F0.020082
sS'ADP'
p1507
F0.979911
s(lp1508
tp1509
a(S'diritti'
p1510
(dp1511
S'ADJ'
p1512
F0.018405
sS'NOUN'
p1513
F0.981595
s(lp1514
g238
atp1515
a(S'delle'
p1516
(dp1517
S'DEF'
p1518
F0.001062
sS'ADP'
p1519
F0.998938
s(lp1520
tp1521
a(S'minoranze'
p1522
(dp1523
S'NOUN'
p1524
F1.0
s(lp1525
g231
atp1526
a(S'perpetrati'
p1527
(dp1528
S'VERB'
p1529
F1.0
s(lp1530
g256
atp1531
a(S'dalle'
p1532
(dp1533
S'NOUN'
p1534
F0.000224
sS'ADP'
p1535
F0.999776
s(lp1536
g263
atp1537
a(S'autorit\xc3\xa0'
p1538
(dp1539
S'NOUN'
p1540
F1.0
s(lp1541
g277
atp1542
a(S'cinesi'
p1543
(dp1544
S'NOUN'
p1545
F0.036354
sS'ADJ'
p1546
F0.963646
s(lp1547
g285
atp1548
a(g1339
(dp1549
S'CONJ'
p1550
F1.0
s(lp1551
g291
atp1552
a(S'ribadire'
p1553
(dp1554
S'VERB'
p1555
F1.0
s(lp1556
g159
atp1557
a(S'la'
p1558
(dp1559
S'PRON'
p1560
F0.0
sS'DET'
p1561
F1.0
s(lp1562
g318
atp1563
a(S'nostra'
p1564
(dp1565
S'PRON'
p1566
F1.0
s(lp1567
tp1568
a(S'vicinanza'
p1569
(dp1570
S'NOUN'
p1571
F1.0
s(lp1572
g159
atp1573
a(g1339
(dp1574
S'CONJ'
p1575
F1.0
s(lp1576
g378
atp1577
a(S'il'
p1578
(dp1579
S'DET'
p1580
F1.0
s(lp1581
tp1582
a(S'nostro'
p1583
(dp1584
S'PRON'
p1585
F1.0
s(lp1586
g358
atp1587
a(S'aiuto'
p1588
(dp1589
S'VERB'
p1590
F4.4e-05
sS'NOUN'
p1591
F0.999956
s(lp1592
g418
atp1593
a(S'al'
p1594
(dp1595
S'ADP'
p1596
F1.0
s(lp1597
g325
atp1598
a(S'popolo'
p1599
(dp1600
S'VERB'
p1601
F0.000219
sS'NOUN'
p1602
F0.999781
s(lp1603
g332
atp1604
a(S'tibetano'
p1605
(dp1606
S'NOUN'
p1607
F0.015484
sS'ADJ'
p1608
F0.984516
s(lp1609
g339
atp1610
a(g88
(dp1611
g88
F1.0
s(lp1612
g88
atp1613
asS'sk'
p1614
(lp1615
(S'vzh\xc4\xbeadom'
p1616
(dp1617
S'NOUN'
p1618
F1.0
s(lp1619
g7
atp1620
a(S'na'
p1621
(dp1622
g473
F0.000156
sS'CONJ'
p1623
F1.5e-05
sS'ADP'
p1624
F0.999827
sS'PRT'
p1625
F3e-06
s(lp1626
g13
atp1627
a(S'neochotu'
p1628
(dp1629
S'NOUN'
p1630
F1.0
s(lp1631
g32
atp1632
a(g147
(dp1633
g473
F0.001131
sS'CONJ'
p1634
F0.998072
sS'NOUN'
p1635
F0.000173
sS'ADP'
p1636
F0.000598
sS'PRT'
p1637
F2.6e-05
s(lp1638
g38
atp1639
a(S'ne\xc3\xbastupn\xc3\xbd'
p1640
(dp1641
S'ADJ'
p1642
F1.0
s(lp1643
g44
atp1644
a(S'postoj'
p1645
(dp1646
S'VERB'
p1647
F6e-06
sS'NOUN'
p1648
F0.999994
s(lp1649
g26
atp1650
a(S'\xc4\x8c\xc3\xadny'
p1651
(dp1652
S'NOUN'
p1653
F1.0
s(lp1654
g64
atp1655
a(S'k'
p1656
(dp1657
g473
F0.001477
sS'NOUN'
p1658
F1.7e-05
sS'ADP'
p1659
F0.998506
s(lp1660
g71
atp1661
a(S'tibetu'
p1662
(dp1663
S'ADJ'
p1664
F0.1296
sg473
F0.225783
sS'NOUN'
p1665
F0.644617
s(lp1666
g84
atp1667
a(S'by'
p1668
(dp1669
S'PRT'
p1670
F0.999991
sg473
F9e-06
s(lp1671
g477
atp1672
a(S'som'
p1673
(dp1674
S'VERB'
p1675
F1.0
s(lp1676
tp1677
a(S'chcela'
p1678
(dp1679
S'VERB'
p1680
F1.0
s(lp1681
g101
atp1682
a(S'vyzva\xc5\xa5'
p1683
(dp1684
S'VERB'
p1685
F1.0
s(lp1686
g107
atp1687
a(S'eur\xc3\xb3psky'
p1688
(dp1689
S'ADJ'
p1690
F1.0
s(lp1691
g127
atp1692
a(S'parlament'
p1693
(dp1694
S'NOUN'
p1695
F1.0
s(lp1696
g120
atp1697
a(g86
(dp1698
g88
F1.0
s(lp1699
tp1700
a(S'aby'
p1701
(dp1702
g473
F6.6e-05
sS'CONJ'
p1703
F0.999934
s(lp1704
g133
atp1705
a(S'si'
p1706
(dp1707
S'PRT'
p1708
F0.992857
sS'VERB'
p1709
F0.007143
sg473
F0.0
s(lp1710
g139
atp1711
a(S'zachoval'
p1712
(dp1713
S'VERB'
p1714
F1.0
s(lp1715
tp1716
a(S'nekompromisn\xc3\xbd'
p1717
(dp1718
S'ADJ'
p1719
F1.0
s(lp1720
g159
atp1721
a(S'postoj'
p1722
(dp1723
S'VERB'
p1724
F1.6e-05
sS'NOUN'
p1725
F0.999984
s(lp1726
g153
atp1727
a(S'v'
p1728
(dp1729
g473
F0.0005020000000000001
sS'ADP'
p1730
F0.999498
s(lp1731
g554
atp1732
a(S's\xc3\xbavislosti'
p1733
(dp1734
S'NOUN'
p1735
F1.0
s(lp1736
g166
atp1737
a(S's'
p1738
(dp1739
g473
F0.001031
sS'CONJ'
p1740
F8.4e-05
sS'NOUN'
p1741
F1.7e-05
sS'ADP'
p1742
F0.998841
sS'PRT'
p1743
F2.7e-05
s(lp1744
g564
atp1745
a(S'v\xc3\xa1\xc5\xbenym'
p1746
(dp1747
S'ADJ'
p1748
F1.0
s(lp1749
g186
atp1750
a(S'poru\xc5\xa1ovan\xc3\xadm'
p1751
(dp1752
S'NOUN'
p1753
F1.0
s(lp1754
g178
atp1755
a(S'\xc4\xbeudsk\xc3\xbdch'
p1756
(dp1757
S'ADJ'
p1758
F1.0
s(lp1759
g193
atp1760
a(S'pr\xc3\xa1v'
p1761
(dp1762
g473
F2.8e-05
sS'NOUN'
p1763
F0.999972
s(lp1764
g200
atp1765
a(g147
(dp1766
g473
F0.0007130000000000001
sS'CONJ'
p1767
F0.998486
sS'NOUN'
p1768
F7.8e-05
sS'ADP'
p1769
F0.000636
sS'PRT'
p1770
F8.6e-05
s(lp1771
g224
atp1772
a(S'men\xc5\xa1inov\xc3\xbdch'
p1773
(dp1774
S'ADJ'
p1775
F1.0
s(lp1776
g231
atp1777
a(S'pr\xc3\xa1v'
p1778
(dp1779
g473
F2.2e-05
sS'NOUN'
p1780
F0.999978
s(lp1781
g238
atp1782
a(g86
(dp1783
g88
F1.0
s(lp1784
tp1785
a(S'ktor\xc3\xa9ho'
p1786
(dp1787
S'PRON'
p1788
F1.0
s(lp1789
g256
atp1790
a(S'sa'
p1791
(dp1792
S'PRT'
p1793
F0.99996
sS'ADP'
p1794
F0.0
sg473
F3.9e-05
s(lp1795
tp1796
a(S'dop\xc3\xba\xc5\xa1\xc5\xa5aj\xc3\xba'
p1797
(dp1798
S'VERB'
p1799
F1.0
s(lp1800
g256
atp1801
a(S'\xc4\x8d\xc3\xadnske'
p1802
(dp1803
S'ADJ'
p1804
F1.0
s(lp1805
g285
atp1806
a(S'org\xc3\xa1ny'
p1807
(dp1808
S'NOUN'
p1809
F1.0
s(lp1810
g277
atp1811
a(g86
(dp1812
g88
F1.0
s(lp1813
tp1814
a(g147
(dp1815
g473
F2.9e-05
sS'CONJ'
p1816
F0.99997
sS'NOUN'
p1817
F1e-06
sS'ADP'
p1818
F0.0
sS'PRT'
p1819
F0.0
s(lp1820
g291
atp1821
a(S'aby'
p1822
(dp1823
g473
F5.9e-05
sS'CONJ'
p1824
F0.999941
s(lp1825
g297
atp1826
a(S'zabezpe\xc4\x8dil'
p1827
(dp1828
S'VERB'
p1829
F1.0
s(lp1830
g310
atp1831
a(g86
(dp1832
g88
F1.0
s(lp1833
tp1834
a(S'\xc5\xbee'
p1835
(dp1836
g473
F0.000429
sS'CONJ'
p1837
F0.99957
s(lp1838
g318
atp1839
a(S'\xc4\xbeudia'
p1840
(dp1841
S'NOUN'
p1842
F1.0
s(lp1843
g332
atp1844
a(g1728
(dp1845
g473
F0.0039040000000000004
sS'ADP'
p1846
F0.996096
s(lp1847
g669
atp1848
a(S'tibete'
p1849
(dp1850
g473
F0.539196
sS'VERB'
p1851
F0.002702
sS'ADJ'
p1852
F0.399109
sS'NOUN'
p1853
F0.058994
s(lp1854
g339
atp1855
a(S'sa'
p1856
(dp1857
S'PRT'
p1858
F0.999883
sS'ADP'
p1859
F0.0
sg473
F0.000117
s(lp1860
tp1861
a(S'dozvedia'
p1862
(dp1863
S'VERB'
p1864
F1.0
s(lp1865
g345
atp1866
a(g86
(dp1867
g88
F1.0
s(lp1868
tp1869
a(S'\xc5\xbee'
p1870
(dp1871
g473
F0.000346
sS'CONJ'
p1872
F0.999654
s(lp1873
g358
atp1874
a(S'stoj\xc3\xadme'
p1875
(dp1876
S'VERB'
p1877
F1.0
s(lp1878
tp1879
a(S'za'
p1880
(dp1881
S'PRT'
p1882
F0.000736
sS'ADP'
p1883
F0.99923
sg473
F3.5e-05
s(lp1884
g372
atp1885
a(S'nimi'
p1886
(dp1887
S'PRON'
p1888
F1.0
s(lp1889
g366
atp1890
a(g147
(dp1891
g473
F0.0018279999999999998
sS'CONJ'
p1892
F0.99792
sS'NOUN'
p1893
F4.2e-05
sS'ADP'
p1894
F0.0
sS'PRT'
p1895
F0.00021
s(lp1896
g378
atp1897
a(S'sme'
p1898
(dp1899
g473
F4e-06
sS'VERB'
p1900
F0.999996
s(lp1901
g405
atp1902
a(S'pripraven\xc3\xad'
p1903
(dp1904
S'VERB'
p1905
F1.0
s(lp1906
g399
atp1907
a(S'im'
p1908
(dp1909
S'PRON'
p1910
F0.999997
sg473
F3e-06
s(lp1911
tp1912
a(S'pom\xc3\xb4c\xc5\xa5'
p1913
(dp1914
S'VERB'
p1915
F1.0
s(lp1916
g418
atp1917
a(g88
(dp1918
g88
F1.0
s(lp1919
g88
atp1920
asS'pl'
p1921
(lp1922
(S'wobec'
p1923
(dp1924
S'ADV'
p1925
F0.000482
sS'ADP'
p1926
F0.999518
s(lp1927
tp1928
a(S'nieelastycznego'
p1929
(dp1930
S'ADV'
p1931
F0.000197
sS'ADJ'
p1932
F0.999802
s(lp1933
g32
atp1934
a(g95
(dp1935
S'PRT'
p1936
F0.004379
sS'CONJ'
p1937
F0.995572
sS'PRON'
p1938
F2e-06
sS'NOUN'
p1939
F3.5e-05
sg473
F1.1e-05
s(lp1940
g38
atp1941
a(S'sztywnego'
p1942
(dp1943
S'ADJ'
p1944
F1.0
s(lp1945
g44
atp1946
a(S'nastawienia'
p1947
(dp1948
S'NOUN'
p1949
F1.0
s(lp1950
tp1951
a(S'chin'
p1952
(dp1953
S'ADV'
p1954
F0.00107
sS'ADJ'
p1955
F0.000988
sS'VERB'
p1956
F0.016831
sS'NOUN'
p1957
F0.981111
s(lp1958
g64
atp1959
a(S'w'
p1960
(dp1961
S'ADJ'
p1962
F0.0
sg473
F0.0
sS'NOUN'
p1963
F2e-06
sS'ADP'
p1964
F0.999999
s(lp1965
g7
atp1966
a(S'stosunku'
p1967
(dp1968
S'NOUN'
p1969
F1.0
s(lp1970
g26
atp1971
a(S'do'
p1972
(dp1973
g473
F0.0
sS'NOUN'
p1974
F8e-06
sS'ADP'
p1975
F0.999992
s(lp1976
g71
atp1977
a(S'tybetu'
p1978
(dp1979
S'NOUN'
p1980
F1.0
s(lp1981
g84
atp1982
a(S'chcia\xc5\x82abym'
p1983
(dp1984
S'ADV'
p1985
F0.017044
sS'ADJ'
p1986
F0.001572
sS'VERB'
p1987
F0.96176
sS'NOUN'
p1988
F0.019621
s(lp1989
g477
atp1990
a(S'wezwa\xc4\x87'
p1991
(dp1992
S'VERB'
p1993
F1.0
s(lp1994
g107
atp1995
a(S'parlament'
p1996
(dp1997
S'NOUN'
p1998
F1.0
s(lp1999
g120
atp2000
a(S'europejski'
p2001
(dp2002
S'ADJ'
p2003
F1.0
s(lp2004
g127
atp2005
a(S'do'
p2006
(dp2007
g473
F0.0
sS'NOUN'
p2008
F2e-06
sS'ADP'
p2009
F0.9999979999999999
s(lp2010
g133
atp2011
a(S'utrzymania'
p2012
(dp2013
S'VERB'
p2014
F0.442873
sS'NOUN'
p2015
F0.557127
s(lp2016
g139
atp2017
a(S'nieprzejednanego'
p2018
(dp2019
S'ADV'
p2020
F2e-06
sS'NOUN'
p2021
F0.001961000000000001
sS'VERB'
p2022
F0.019691999999999998
sS'ADJ'
p2023
F0.9783459999999999
s(lp2024
g159
atp2025
a(S'stanowiska'
p2026
(dp2027
S'NOUN'
p2028
F1.0
s(lp2029
g153
atp2030
a(g1960
(dp2031
S'ADJ'
p2032
F0.0
sg473
F0.0
sS'NOUN'
p2033
F0.0
sS'ADP'
p2034
F0.999999
s(lp2035
g554
atp2036
a(S'odniesieniu'
p2037
(dp2038
S'VERB'
p2039
F0.050349
sS'NOUN'
p2040
F0.949651
s(lp2041
g166
atp2042
a(S'do'
p2043
(dp2044
g473
F2e-06
sS'NOUN'
p2045
F9e-06
sS'ADP'
p2046
F0.999989
s(lp2047
g564
atp2048
a(S'powa\xc5\xbcnych'
p2049
(dp2050
S'ADJ'
p2051
F1.000001
s(lp2052
g186
atp2053
a(S'przypadk\xc3\xb3w'
p2054
(dp2055
S'NOUN'
p2056
F1.0
s(lp2057
tp2058
a(S'naruszania'
p2059
(dp2060
S'VERB'
p2061
F1.0
s(lp2062
g178
atp2063
a(S'praw'
p2064
(dp2065
S'NOUN'
p2066
F1.0
s(lp2067
g200
atp2068
a(S'cz\xc5\x82owieka'
p2069
(dp2070
S'NOUN'
p2071
F1.0
s(lp2072
g193
atp2073
a(g95
(dp2074
S'PRT'
p2075
F0.000352
sS'CONJ'
p2076
F0.999628
sS'PRON'
p2077
F2e-06
sS'NOUN'
p2078
F1.6000000000000003e-05
sg473
F2e-06
s(lp2079
g224
atp2080
a(S'praw'
p2081
(dp2082
S'NOUN'
p2083
F1.0
s(lp2084
g238
atp2085
a(S'mniejszo\xc5\x9bci'
p2086
(dp2087
S'NOUN'
p2088
F1.0
s(lp2089
g231
atp2090
a(g86
(dp2091
g473
F0.0
sg88
F1.0
s(lp2092
tp2093
a(S'pope\xc5\x82nianych'
p2094
(dp2095
S'VERB'
p2096
F1.0
s(lp2097
g256
atp2098
a(S'przez'
p2099
(dp2100
S'ADP'
p2101
F1.0
s(lp2102
g263
atp2103
a(S'w\xc5\x82adze'
p2104
(dp2105
S'NOUN'
p2106
F1.0
s(lp2107
g277
atp2108
a(S'chi\xc5\x84skie'
p2109
(dp2110
S'ADJ'
p2111
F1.000001
s(lp2112
g285
atp2113
a(g86
(dp2114
g473
F0.0
sg88
F1.0
s(lp2115
tp2116
a(S'oraz'
p2117
(dp2118
S'CONJ'
p2119
F1.0
s(lp2120
g291
atp2121
a(S'do'
p2122
(dp2123
g473
F0.0
sS'NOUN'
p2124
F9e-06
sS'ADP'
p2125
F0.9999910000000001
s(lp2126
g297
atp2127
a(S'zapewnienia'
p2128
(dp2129
S'VERB'
p2130
F0.99976
sS'NOUN'
p2131
F0.000241
s(lp2132
g310
atp2133
a(g86
(dp2134
g473
F0.0
sg88
F1.0
s(lp2135
tp2136
a(S'aby'
p2137
(dp2138
S'PRT'
p2139
F0.000687
sS'CONJ'
p2140
F0.999313
s(lp2141
g318
atp2142
a(S'tybeta\xc5\x84czycy'
p2143
(dp2144
S'ADV'
p2145
F0.004384
sS'NOUN'
p2146
F0.9949539999999999
sS'VERB'
p2147
F0.000194
sS'NUM'
p2148
F6e-06
sS'CONJ'
p2149
F0.000321
sS'ADJ'
p2150
F0.00014299999999999993
s(lp2151
g339
atp2152
a(S'wiedzieli'
p2153
(dp2154
S'VERB'
p2155
F1.0
s(lp2156
g345
atp2157
a(S'o'
p2158
(dp2159
g473
F1.9e-05
sS'VERB'
p2160
F0.0
sS'NOUN'
p2161
F1e-06
sS'ADP'
p2162
F0.9999790000000001
sS'PRT'
p2163
F1e-06
s(lp2164
g392
atp2165
a(S'naszym'
p2166
(dp2167
S'ADJ'
p2168
F1.0
s(lp2169
tp2170
a(S'poparciu'
p2171
(dp2172
S'NOUN'
p2173
F1.0
s(lp2174
g159
atp2175
a(S'dla'
p2176
(dp2177
S'ADP'
p2178
F1.0
s(lp2179
g372
atp2180
a(S'nich'
p2181
(dp2182
S'PRON'
p2183
F1.0000000000000002
s(lp2184
g366
atp2185
a(g95
(dp2186
S'PRT'
p2187
F0.013378
sS'CONJ'
p2188
F0.984636
sS'NOUN'
p2189
F0.001653
sg473
F5e-06
sS'PRON'
p2190
F0.000329
s(lp2191
g378
atp2192
a(S'gotowo\xc5\x9bci'
p2193
(dp2194
S'NOUN'
p2195
F1.0
s(lp2196
g399
atp2197
a(S'do'
p2198
(dp2199
g473
F0.0
sS'NOUN'
p2200
F5e-06
sS'ADP'
p2201
F0.999995
s(lp2202
g405
atp2203
a(S'niesienia'
p2204
(dp2205
S'VERB'
p2206
F1.0
s(lp2207
tp2208
a(S'pomocy'
p2209
(dp2210
S'NOUN'
p2211
F1.0000010000000001
s(lp2212
g418
atp2213
a(g88
(dp2214
g88
F1.0
s(lp2215
g88
atp2216
asS'sl'
p2217
(lp2218
(S'evropski'
p2219
(dp2220
S'ADJ'
p2221
F0.9999999999999999
s(lp2222
g127
atp2223
a(S'parlament'
p2224
(dp2225
S'NOUN'
p2226
F1.0
s(lp2227
g120
atp2228
a(S'bi'
p2229
(dp2230
g473
F0.000583
sS'VERB'
p2231
F0.999417
s(lp2232
g477
atp2233
a(S'rada'
p2234
(dp2235
S'ADV'
p2236
F1.0
s(lp2237
g101
atp2238
a(S'pozvala'
p2239
(dp2240
S'VERB'
p2241
F1.0
s(lp2242
tp2243
a(g86
(dp2244
g88
F1.0
s(lp2245
g86
atp2246
a(S'naj'
p2247
(dp2248
S'PRT'
p2249
F0.229733
sS'CONJ'
p2250
F0.770262
sS'ADJ'
p2251
F5.999999999999999e-06
s(lp2252
g107
atp2253
a(S'ob'
p2254
(dp2255
g473
F1.1e-05
sS'ADP'
p2256
F0.999989
s(lp2257
tp2258
a(S'soo\xc4\x8denju'
p2259
(dp2260
S'ADV'
p2261
F2.6e-05
sS'ADJ'
p2262
F0.0
sS'VERB'
p2263
F5.999999999999999e-06
sS'NOUN'
p2264
F0.99997
s(lp2265
g7
atp2266
a(g1738
(dp2267
S'VERB'
p2268
F5e-06
sS'NOUN'
p2269
F4e-05
sS'ADP'
p2270
F0.9999539999999999
s(lp2271
g13
atp2272
a(S'togim'
p2273
(dp2274
S'ADV'
p2275
F8.1e-05
sS'NOUN'
p2276
F0.043039000000000015
sS'VERB'
p2277
F7.599999999999996e-05
sS'ADJ'
p2278
F0.9568029999999998
s(lp2279
g32
atp2280
a(S'in'
p2281
(dp2282
S'ADV'
p2283
F1.7e-05
sg473
F8e-06
sS'CONJ'
p2284
F0.999973
sS'NOUN'
p2285
F1e-06
s(lp2286
g38
atp2287
a(S'nepopustljivim'
p2288
(dp2289
S'ADV'
p2290
F1.3e-05
sS'NOUN'
p2291
F5.599999999999999e-05
sS'VERB'
p2292
F0.00013000000000000002
sS'ADJ'
p2293
F0.9998
s(lp2294
g44
atp2295
a(S'odnosom'
p2296
(dp2297
S'NOUN'
p2298
F1.0
s(lp2299
g26
atp2300
a(S'kitajske'
p2301
(dp2302
S'ADJ'
p2303
F1.0
s(lp2304
g64
atp2305
a(S'do'
p2306
(dp2307
g473
F0.000363
sS'ADP'
p2308
F0.999637
s(lp2309
g71
atp2310
a(S'tibeta'
p2311
(dp2312
S'ADV'
p2313
F0.002206
sS'ADJ'
p2314
F0.000153
sS'VERB'
p2315
F0.00028000000000000025
sS'NOUN'
p2316
F0.9973400000000002
sS'NUM'
p2317
F1.8e-05
s(lp2318
g84
atp2319
a(S'obdr\xc5\xbei'
p2320
(dp2321
S'VERB'
p2322
F1.0
s(lp2323
g139
atp2324
a(S'svoje'
p2325
(dp2326
S'PRON'
p2327
F1.0000010000000001
s(lp2328
g159
atp2329
a(S'brezkompromisno'
p2330
(dp2331
S'ADV'
p2332
F0.000115
sS'NOUN'
p2333
F0.000389
sS'VERB'
p2334
F1.5000000000000002e-05
sS'ADJ'
p2335
F0.999477
s(lp2336
tp2337
a(S'stali\xc5\xa1\xc4\x8de'
p2338
(dp2339
S'NOUN'
p2340
F1.0
s(lp2341
g153
atp2342
a(S'glede'
p2343
(dp2344
S'ADV'
p2345
F0.10617
sS'ADP'
p2346
F0.89383
s(lp2347
g166
atp2348
a(S'hudih'
p2349
(dp2350
S'ADJ'
p2351
F1.0
s(lp2352
g186
atp2353
a(S'kr\xc5\xa1itev'
p2354
(dp2355
S'NOUN'
p2356
F1.0
s(lp2357
g178
atp2358
a(S'\xc4\x8dlovekovih'
p2359
(dp2360
S'ADJ'
p2361
F1.0
s(lp2362
g193
atp2363
a(S'pravic'
p2364
(dp2365
S'NOUN'
p2366
F1.0
s(lp2367
g200
atp2368
a(S'in'
p2369
(dp2370
S'ADV'
p2371
F0.000136
sg473
F2.1e-05
sS'CONJ'
p2372
F0.999818
sS'NOUN'
p2373
F2.4e-05
s(lp2374
g224
atp2375
a(S'pravic'
p2376
(dp2377
S'NOUN'
p2378
F1.0
s(lp2379
g238
atp2380
a(S'manj\xc5\xa1in'
p2381
(dp2382
S'NOUN'
p2383
F1.0
s(lp2384
g231
atp2385
a(g1738
(dp2386
S'VERB'
p2387
F6.9e-05
sS'NOUN'
p2388
F0.001864
sS'ADP'
p2389
F0.998067
s(lp2390
g554
atp2391
a(S'strani'
p2392
(dp2393
S'NOUN'
p2394
F1.0000000000000002
s(lp2395
g263
atp2396
a(S'kitajskih'
p2397
(dp2398
S'ADJ'
p2399
F1.0
s(lp2400
g285
atp2401
a(S'oblasti'
p2402
(dp2403
S'NOUN'
p2404
F1.0
s(lp2405
g277
atp2406
a(S'ter'
p2407
(dp2408
S'CONJ'
p2409
F1.0
s(lp2410
g291
atp2411
a(S'naj'
p2412
(dp2413
S'PRT'
p2414
F0.980544
sS'CONJ'
p2415
F0.01945
sS'ADJ'
p2416
F5.999999999999999e-06
s(lp2417
g297
atp2418
a(S'zagotovi'
p2419
(dp2420
S'VERB'
p2421
F1.0
s(lp2422
g310
atp2423
a(g86
(dp2424
g88
F1.0
s(lp2425
tp2426
a(S'da'
p2427
(dp2428
S'PRT'
p2429
F2.7e-05
sS'CONJ'
p2430
F0.999946
sS'VERB'
p2431
F2.6e-05
sg473
F1e-06
s(lp2432
g318
atp2433
a(S'tibetanci'
p2434
(dp2435
S'ADV'
p2436
F0.00297
sS'ADJ'
p2437
F0.000241
sS'VERB'
p2438
F0.0006590000000000002
sS'NOUN'
p2439
F0.9961320000000004
s(lp2440
g339
atp2441
a(S'izvejo'
p2442
(dp2443
S'ADV'
p2444
F0.000178
sS'ADJ'
p2445
F0.0005909999999999999
sS'VERB'
p2446
F0.9793080000000001
sS'NOUN'
p2447
F0.019923000000000007
s(lp2448
g159
atp2449
a(g86
(dp2450
g88
F1.0
s(lp2451
tp2452
a(S'da'
p2453
(dp2454
S'PRT'
p2455
F4e-06
sS'CONJ'
p2456
F0.999987
sS'VERB'
p2457
F9e-06
sg473
F0.0
s(lp2458
g358
atp2459
a(S'jih'
p2460
(dp2461
S'PRON'
p2462
F0.9999979999999999
s(lp2463
g392
atp2464
a(S'podpiramo'
p2465
(dp2466
S'VERB'
p2467
F1.0
s(lp2468
g372
atp2469
a(S'in'
p2470
(dp2471
S'ADV'
p2472
F0.000338
sg473
F3.3e-05
sS'CONJ'
p2473
F0.999619
sS'NOUN'
p2474
F9e-06
s(lp2475
g378
atp2476
a(S'da'
p2477
(dp2478
S'PRT'
p2479
F7.8e-05
sS'CONJ'
p2480
F0.999622
sS'VERB'
p2481
F0.000293
sg473
F8e-06
s(lp2482
g405
atp2483
a(S'smo'
p2484
(dp2485
g473
F1e-06
sS'VERB'
p2486
F0.999999
s(lp2487
tp2488
a(S'jim'
p2489
(dp2490
S'PRON'
p2491
F1.0
s(lp2492
g366
atp2493
a(S'pripravljeni'
p2494
(dp2495
S'ADJ'
p2496
F1.0
s(lp2497
g399
atp2498
a(S'pomagati'
p2499
(dp2500
S'VERB'
p2501
F1.0
s(lp2502
g418
atp2503
a(g88
(dp2504
g88
F1.0
s(lp2505
g88
atp2506
asS'es'
p2507
(lp2508
(S'frente'
p2509
(dp2510
S'ADP'
p2511
F1.0
s(lp2512
g7
atp2513
a(g147
(dp2514
S'ADP'
p2515
F1.0
s(lp2516
g13
atp2517
a(S'la'
p2518
(dp2519
S'NOUN'
p2520
F0.0
sS'PRON'
p2521
F0.0
sS'DET'
p2522
F0.999999
sg473
F0.0
s(lp2523
g50
atp2524
a(S'actitud'
p2525
(dp2526
S'NOUN'
p2527
F1.0
s(lp2528
tp2529
a(S'inflexible'
p2530
(dp2531
S'ADJ'
p2532
F1.0
s(lp2533
g32
atp2534
a(S'y'
p2535
(dp2536
g473
F0.000656
sS'CONJ'
p2537
F0.999344
s(lp2538
g38
atp2539
a(S'estricta'
p2540
(dp2541
S'ADJ'
p2542
F1.0
s(lp2543
g44
atp2544
a(S'que'
p2545
(dp2546
g473
F1.9e-05
sS'CONJ'
p2547
F0.999981
s(lp2548
tp2549
a(S'china'
p2550
(dp2551
S'ADJ'
p2552
F0.003027
sS'VERB'
p2553
F0.90449
sS'NOUN'
p2554
F0.092483
s(lp2555
g64
atp2556
a(S'mantiene'
p2557
(dp2558
S'VERB'
p2559
F1.0
s(lp2560
g26
atp2561
a(S'hacia'
p2562
(dp2563
S'VERB'
p2564
F9e-06
sS'ADP'
p2565
F0.999991
s(lp2566
g71
atp2567
a(S't\xc3\xadbet'
p2568
(dp2569
S'ADJ'
p2570
F0.001858
sS'NOUN'
p2571
F0.998142
s(lp2572
g84
atp2573
a(g86
(dp2574
g88
F1.0
s(lp2575
g86
atp2576
a(S'quiero'
p2577
(dp2578
S'VERB'
p2579
F1.0
s(lp2580
g101
atp2581
a(S'instar'
p2582
(dp2583
S'VERB'
p2584
F1.0
s(lp2585
g107
atp2586
a(S'al'
p2587
(dp2588
S'CONJ'
p2589
F0.000223
sS'ADP'
p2590
F0.9997769999999999
s(lp2591
g114
atp2592
a(S'parlamento'
p2593
(dp2594
S'VERB'
p2595
F2e-06
sS'NOUN'
p2596
F0.999998
s(lp2597
g120
atp2598
a(S'europeo'
p2599
(dp2600
S'NOUN'
p2601
F0.004636
sS'ADJ'
p2602
F0.995364
s(lp2603
g127
atp2604
a(g147
(dp2605
g473
F0.000104
sS'CONJ'
p2606
F0.216702
sS'ADP'
p2607
F0.783193
s(lp2608
g133
atp2609
a(S'mantener'
p2610
(dp2611
S'VERB'
p2612
F1.0
s(lp2613
g139
atp2614
a(S'una'
p2615
(dp2616
S'DET'
p2617
F1.0
s(lp2618
g147
atp2619
a(S'postura'
p2620
(dp2621
S'NOUN'
p2622
F1.0
s(lp2623
g153
atp2624
a(S'intransigente'
p2625
(dp2626
S'ADJ'
p2627
F1.0
s(lp2628
g159
atp2629
a(S'en'
p2630
(dp2631
g473
F0.0
sS'CONJ'
p2632
F1e-06
sS'ADP'
p2633
F0.999999
s(lp2634
g554
atp2635
a(S'lo'
p2636
(dp2637
S'PRON'
p2638
F0.0
sS'DET'
p2639
F1.0
s(lp2640
tp2641
a(S'relativo'
p2642
(dp2643
S'ADJ'
p2644
F1.0
s(lp2645
g166
atp2646
a(g147
(dp2647
g473
F0.000625
sS'CONJ'
p2648
F9e-06
sS'ADP'
p2649
F0.999366
s(lp2650
g564
atp2651
a(S'las'
p2652
(dp2653
S'PRON'
p2654
F2e-06
sS'DET'
p2655
F0.999998
s(lp2656
g571
atp2657
a(S'serias'
p2658
(dp2659
S'VERB'
p2660
F0.005142
sS'ADJ'
p2661
F0.994858
s(lp2662
g186
atp2663
a(S'violaciones'
p2664
(dp2665
S'NOUN'
p2666
F1.0
s(lp2667
g178
atp2668
a(S'de'
p2669
(dp2670
g473
F0.0
sS'CONJ'
p2671
F1.7e-05
sS'ADP'
p2672
F0.999983
s(lp2673
g206
atp2674
a(S'los'
p2675
(dp2676
S'PRON'
p2677
F0.0
sS'DET'
p2678
F1.0
s(lp2679
tp2680
a(S'derechos'
p2681
(dp2682
S'NOUN'
p2683
F1.0
s(lp2684
g200
atp2685
a(S'humanos'
p2686
(dp2687
S'NOUN'
p2688
F0.18529
sS'ADJ'
p2689
F0.81471
s(lp2690
g193
atp2691
a(g2535
(dp2692
g473
F0.000168
sS'CONJ'
p2693
F0.999832
s(lp2694
g224
atp2695
a(S'los'
p2696
(dp2697
S'PRON'
p2698
F0.000425
sS'DET'
p2699
F0.999575
s(lp2700
tp2701
a(S'derechos'
p2702
(dp2703
S'NOUN'
p2704
F1.0
s(lp2705
g238
atp2706
a(S'de'
p2707
(dp2708
g473
F0.0
sS'CONJ'
p2709
F1.7e-05
sS'ADP'
p2710
F0.999983
s(lp2711
tp2712
a(S'las'
p2713
(dp2714
S'PRON'
p2715
F0.0
sS'DET'
p2716
F1.0
s(lp2717
tp2718
a(S'minor\xc3\xadas'
p2719
(dp2720
S'NOUN'
p2721
F1.0
s(lp2722
g231
atp2723
a(S'cometidas'
p2724
(dp2725
S'VERB'
p2726
F1.0
s(lp2727
g256
atp2728
a(S'por'
p2729
(dp2730
S'ADP'
p2731
F1.0
s(lp2732
g263
atp2733
a(S'las'
p2734
(dp2735
S'PRON'
p2736
F0.0
sS'DET'
p2737
F1.0
s(lp2738
g271
atp2739
a(S'autoridades'
p2740
(dp2741
S'NOUN'
p2742
F1.0
s(lp2743
g277
atp2744
a(S'chinas'
p2745
(dp2746
S'NOUN'
p2747
F0.005794
sS'VERB'
p2748
F0.006823
sS'ADJ'
p2749
F0.987384
s(lp2750
g285
atp2751
a(g86
(dp2752
g88
F1.0
s(lp2753
tp2754
a(g2535
(dp2755
g473
F1.9e-05
sS'CONJ'
p2756
F0.999981
s(lp2757
g291
atp2758
a(S'garantizar'
p2759
(dp2760
S'VERB'
p2761
F1.0
s(lp2762
g310
atp2763
a(S'que'
p2764
(dp2765
g473
F0.0
sS'CONJ'
p2766
F1.0
s(lp2767
g318
atp2768
a(S'los'
p2769
(dp2770
S'PRON'
p2771
F0.000148
sS'DET'
p2772
F0.999852
s(lp2773
g325
atp2774
a(S'tibetanos'
p2775
(dp2776
S'ADJ'
p2777
F0.317843
sS'NOUN'
p2778
F0.682157
s(lp2779
g339
atp2780
a(S'sepan'
p2781
(dp2782
S'VERB'
p2783
F1.0
s(lp2784
g345
atp2785
a(S'que'
p2786
(dp2787
g473
F0.0
sS'CONJ'
p2788
F1.0
s(lp2789
g358
atp2790
a(S'les'
p2791
(dp2792
S'PRON'
p2793
F1.0
sg473
F0.0
s(lp2794
g366
atp2795
a(S'estamos'
p2796
(dp2797
S'VERB'
p2798
F1.0
s(lp2799
g392
atp2800
a(S'apoyando'
p2801
(dp2802
S'VERB'
p2803
F1.0
s(lp2804
g372
atp2805
a(g2535
(dp2806
g473
F0.095402
sS'CONJ'
p2807
F0.904598
s(lp2808
g378
atp2809
a(S'estamos'
p2810
(dp2811
S'VERB'
p2812
F1.0
s(lp2813
tp2814
a(S'preparados'
p2815
(dp2816
S'VERB'
p2817
F1.0
s(lp2818
g399
atp2819
a(S'para'
p2820
(dp2821
S'CONJ'
p2822
F0.920997
sS'ADP'
p2823
F0.079003
s(lp2824
g405
atp2825
a(S'ayudarles'
p2826
(dp2827
S'VERB'
p2828
F1.0
s(lp2829
g418
atp2830
a(g88
(dp2831
g88
F1.0
s(lp2832
g88
atp2833
as.