(dp0
S'fr'
p1
(lp2
(S"l'"
p3
(dp4
S'ADJ'
p5
F0.079749
sS'VERB'
p6
F0.5393100000000001
sS'NOUN'
p7
F0.380941
s(lp8
tp9
a(S'europe'
p10
(dp11
S'VERB'
p12
F0.4562279999999999
sS'NOUN'
p13
F0.5437719999999999
s(lp14
S'europe'
p15
atp16
a(S'ne'
p17
(dp18
S'ADV'
p19
F1.0
s(lp20
tp21
a(S'semble'
p22
(dp23
S'VERB'
p24
F0.999999
s(lp25
S'seems'
p26
atp27
a(S'pas'
p28
(dp29
S'ADV'
p30
F0.999901
sS'NOUN'
p31
F9.9e-05
s(lp32
S'not'
p33
atp34
a(S'vouloir'
p35
(dp36
S'VERB'
p37
F0.999088
sS'NOUN'
p38
F0.000912
s(lp39
S'want'
p40
atp41
a(S'suivre'
p42
(dp43
S'VERB'
p44
F1.0
s(lp45
S'move'
p46
atp47
a(S'la'
p48
(dp49
S'PRON'
p50
F0.000219
sS'DET'
p51
F0.999777
sS'NOUN'
p52
F4e-06
s(lp53
S'the'
p54
atp55
a(S'm\xc3\xaame'
p56
(dp57
S'ADV'
p58
F0.02704
sS'ADJ'
p59
F0.97296
s(lp60
S'same'
p61
atp62
a(S'voie'
p63
(dp64
S'VERB'
p65
F1.7e-05
sS'NOUN'
p66
F0.999983
s(lp67
S'direction'
p68
atp69
a(S'.'
p70
(dp71
g70
F1.0
s(lp72
g70
atp73
asS'en'
p74
(lp75
(g15
(dp76
S'ADV'
p77
F0.005134
sS'ADJ'
p78
F0.001876
sS'VERB'
p79
F0.0
sS'NOUN'
p80
F0.9929899999999999
s(lp81
g15
atp82
a(g26
(dp83
S'VERB'
p84
F1.0
s(lp85
g26
atp86
a(g33
(dp87
S'ADV'
p88
F1.0
s(lp89
g33
atp90
a(S'to'
p91
(dp92
S'ADV'
p93
F1e-06
sS'PRT'
p94
F0.999999
sS'ADP'
p95
F0.0
s(lp96
g91
atp97
a(g40
(dp98
S'VERB'
p99
F0.999821
sS'NOUN'
p100
F0.00018
s(lp101
g40
atp102
a(S'to'
p103
(dp104
S'ADV'
p105
F0.0
sS'PRT'
p106
F1.0
sS'ADP'
p107
F0.0
s(lp108
g103
atp109
a(g46
(dp110
S'VERB'
p111
F0.938024
sS'NOUN'
p112
F0.061976
s(lp113
g46
atp114
a(S'in'
p115
(dp116
S'ADV'
p117
F0.001439
sS'PRT'
p118
F0.019818
sS'ADP'
p119
F0.978743
s(lp120
g115
atp121
a(g54
(dp122
S'NOUN'
p123
F1e-06
sS'DET'
p124
F0.999999
s(lp125
g54
atp126
a(g61
(dp127
S'ADV'
p128
F2e-06
sS'NOUN'
p129
F0.000104
sS'ADJ'
p130
F0.999894
s(lp131
g61
atp132
a(g68
(dp133
S'NOUN'
p134
F1.0
s(lp135
g68
atp136
a(g70
(dp137
g70
F1.0
s(lp138
g70
atp139
asS'nl'
p140
(lp141
(S'europa'
p142
(dp143
S'NOUN'
p144
F1.0
s(lp145
g15
atp146
a(S'lijkt'
p147
(dp148
S'VERB'
p149
F1.0
s(lp150
tp151
a(S'zich'
p152
(dp153
S'PRON'
p154
F1.0
s(lp155
g26
atp156
a(S'niet'
p157
(dp158
S'ADV'
p159
F0.999998
sS'X'
p160
F0.0
sS'VERB'
p161
F2e-06
sS'PRON'
p162
F0.0
s(lp163
g33
atp164
a(S'in'
p165
(dp166
S'ADV'
p167
F0.004758
sS'VERB'
p168
F1e-06
sS'ADP'
p169
F0.995242
s(lp170
g115
atp171
a(S'dezelfde'
p172
(dp173
S'PRON'
p174
F1.0
s(lp175
g61
atp176
a(S'richting'
p177
(dp178
S'NOUN'
p179
F0.999995
sS'ADP'
p180
F5e-06
s(lp181
g68
atp182
a(S'te'
p183
(dp184
S'PRT'
p185
F1.0
s(lp186
g91
atp187
a(S'willen'
p188
(dp189
S'VERB'
p190
F1.0
sS'NOUN'
p191
F0.0
s(lp192
g40
atp193
a(S'bewegen'
p194
(dp195
S'VERB'
p196
F0.998545
sS'NOUN'
p197
F0.001455
s(lp198
g46
atp199
a(g70
(dp200
g70
F1.0
s(lp201
g70
atp202
asS'de'
p203
(lp204
(S'scheinbar'
p205
(dp206
S'ADJ'
p207
F1.0
s(lp208
tp209
a(S'tendiert'
p210
(dp211
S'VERB'
p212
F1.0
s(lp213
g26
atp214
a(S'europa'
p215
(dp216
S'ADJ'
p217
F0.37472
sS'NOUN'
p218
F0.604422
s(lp219
g15
atp220
a(S'nicht'
p221
(dp222
S'PRT'
p223
F1.0
s(lp224
g33
atp225
a(S'in'
p226
(dp227
S'ADP'
p228
F1.0
s(lp229
g115
atp230
a(S'die'
p231
(dp232
S'PRON'
p233
F0.000225
sS'DET'
p234
F0.99976
s(lp235
g54
atp236
a(S'gleiche'
p237
(dp238
S'VERB'
p239
F1.3e-05
sS'ADJ'
p240
F0.999987
s(lp241
g61
atp242
a(S'richtung'
p243
(dp244
S'VERB'
p245
F5.9e-05
sS'NOUN'
p246
F0.999915
s(lp247
g68
atp248
a(g70
(dp249
g70
F1.0
s(lp250
g70
atp251
asS'it'
p252
(lp253
(S"l'"
p254
(dp255
S'NOUN'
p256
F0.00259
sS'VERB'
p257
F0.9925710000000001
sS'ADJ'
p258
F0.00484
s(lp259
tp260
a(S'europa'
p261
(dp262
S'NOUN'
p263
F0.362916
sS'VERB'
p264
F0.063345
sS'ADJ'
p265
F0.573739
s(lp266
g15
atp267
a(S'sembra'
p268
(dp269
S'VERB'
p270
F1.0
s(lp271
g26
atp272
a(S'non'
p273
(dp274
S'ADV'
p275
F1.0
s(lp276
g33
atp277
a(S'volersi'
p278
(dp279
S'VERB'
p280
F1.0
s(lp281
g40
atp282
a(S'muovere'
p283
(dp284
S'VERB'
p285
F1.0
s(lp286
g46
atp287
a(S'nella'
p288
(dp289
S'ADP'
p290
F1.0
s(lp291
g115
atp292
a(S'stessa'
p293
(dp294
S'ADJ'
p295
F1.0
s(lp296
g61
atp297
a(S'direzione'
p298
(dp299
S'NOUN'
p300
F1.0
s(lp301
g68
atp302
a(g70
(dp303
g70
F1.0
s(lp304
g70
atp305
asS'sk'
p306
(lp307
(S'zd\xc3\xa1'
p308
(dp309
S'VERB'
p310
F1.0
s(lp311
tp312
a(S'sa'
p313
(dp314
S'PRT'
p315
F0.999102
sS'ADP'
p316
F1.3e-05
sg160
F0.000885
s(lp317
g26
atp318
a(S'ale'
p319
(dp320
g160
F0.890762
sS'CONJ'
p321
F0.109238
s(lp322
g33
atp323
a(S','
p324
(dp325
g70
F1.0
s(lp326
tp327
a(S'\xc5\xbee'
p328
(dp329
g160
F0.00033
sS'CONJ'
p330
F0.999671
s(lp331
g91
atp332
a(S'eur\xc3\xb3pa'
p333
(dp334
S'ADJ'
p335
F0.011193
sS'VERB'
p336
F6e-06
sS'NOUN'
p337
F0.988801
s(lp338
g15
atp339
a(S'nechce'
p340
(dp341
S'VERB'
p342
F1.0
s(lp343
g40
atp344
a(S'\xc3\xads\xc5\xa5'
p345
(dp346
S'VERB'
p347
F1.0
s(lp348
g46
atp349
a(S'rovnakou'
p350
(dp351
S'ADJ'
p352
F1.0
s(lp353
g61
atp354
a(S'cestou'
p355
(dp356
S'ADV'
p357
F0.000254
sS'NOUN'
p358
F0.999746
sS'ADP'
p359
F0.0
s(lp360
g68
atp361
a(g70
(dp362
g70
F1.0
s(lp363
g70
atp364
asS'pl'
p365
(lp366
(S'wydaje'
p367
(dp368
S'VERB'
p369
F1.0
s(lp370
g26
atp371
a(S'si\xc4\x99'
p372
(dp373
S'PRT'
p374
F1.0
s(lp375
tp376
a(g324
(dp377
g160
F0.0
sg70
F1.0
s(lp378
tp379
a(S'\xc5\xbce'
p380
(dp381
S'PRT'
p382
F0.000313
sS'CONJ'
p383
F0.9996860000000001
s(lp384
g26
atp385
a(S'europa'
p386
(dp387
S'ADJ'
p388
F0.016505000000000002
sS'VERB'
p389
F0.19054
sS'NOUN'
p390
F0.7929539999999999
s(lp391
g15
atp392
a(S'nie'
p393
(dp394
S'ADV'
p395
F1.3e-05
sS'PRT'
p396
F0.992755
sS'CONJ'
p397
F0.007223
sS'NOUN'
p398
F3e-06
sS'PRON'
p399
F4.9999999999999996e-06
s(lp400
g33
atp401
a(S'chce'
p402
(dp403
S'VERB'
p404
F1.0
s(lp405
g40
atp406
a(S'i\xc5\x9b\xc4\x87'
p407
(dp408
S'VERB'
p409
F1.0
s(lp410
g46
atp411
a(S'w'
p412
(dp413
S'ADJ'
p414
F0.0
sg160
F0.0
sS'NOUN'
p415
F0.0
sS'ADP'
p416
F1.0
s(lp417
g115
atp418
a(S'tym'
p419
(dp420
S'ADV'
p421
F4e-06
sS'NOUN'
p422
F0.062678
sS'CONJ'
p423
F2e-06
sS'ADJ'
p424
F0.937314
sS'PRT'
p425
F0.0
s(lp426
tp427
a(S'samym'
p428
(dp429
S'ADJ'
p430
F1.0
s(lp431
g61
atp432
a(S'kierunku'
p433
(dp434
S'NOUN'
p435
F1.0
s(lp436
g68
atp437
a(g70
(dp438
g70
F1.0
s(lp439
g70
atp440
asS'sl'
p441
(lp442
(S'zdi'
p443
(dp444
S'VERB'
p445
F1.0
s(lp446
tp447
a(S'se'
p448
(dp449
S'PRON'
p450
F0.998359
sg160
F0.001641
s(lp451
g26
atp452
a(g324
(dp453
g70
F1.0
s(lp454
tp455
a(S'da'
p456
(dp457
S'PRT'
p458
F5e-06
sS'CONJ'
p459
F0.99997
sS'VERB'
p460
F2.4e-05
sg160
F1e-06
s(lp461
tp462
a(S'se'
p463
(dp464
S'PRON'
p465
F0.999988
sg160
F1.2e-05
s(lp466
g91
atp467
a(S'evropa'
p468
(dp469
S'ADV'
p470
F0.008525
sS'ADJ'
p471
F0.00023799999999999998
sS'VERB'
p472
F0.00729
sS'NOUN'
p473
F0.9837530000000001
sg160
F0.000193
s(lp474
g15
atp475
a(S'no\xc4\x8de'
p476
(dp477
S'VERB'
p478
F1.0
s(lp479
g40
atp480
a(S'premakniti'
p481
(dp482
S'VERB'
p483
F1.0
s(lp484
g46
atp485
a(S'v'
p486
(dp487
S'ADP'
p488
F1.0
s(lp489
g115
atp490
a(S'isto'
p491
(dp492
S'PRON'
p493
F1.0
s(lp494
g61
atp495
a(S'smer'
p496
(dp497
S'NOUN'
p498
F1.0
s(lp499
g68
atp500
a(g70
(dp501
g70
F1.0
s(lp502
g70
atp503
asS'es'
p504
(lp505
(S'europa'
p506
(dp507
S'NOUN'
p508
F1.0
s(lp509
g15
atp510
a(S'no'
p511
(dp512
S'ADV'
p513
F0.999922
sg160
F7.8e-05
s(lp514
g33
atp515
a(S'parece'
p516
(dp517
S'VERB'
p518
F1.0
s(lp519
g26
atp520
a(S'querer'
p521
(dp522
S'VERB'
p523
F1.0
s(lp524
g40
atp525
a(S'seguir'
p526
(dp527
S'VERB'
p528
F1.0
s(lp529
g46
atp530
a(S'esta'
p531
(dp532
S'PRON'
p533
F1.0
sS'VERB'
p534
F0.0
s(lp535
g54
atp536
a(S'direcci\xc3\xb3n'
p537
(dp538
S'NOUN'
p539
F1.0
s(lp540
g68
atp541
a(g70
(dp542
g70
F1.0
s(lp543
g70
atp544
as.