(dp0
S'fr'
p1
(lp2
(S'('
p3
(dp4
S'.'
p5
F1.0
s(lp6
S'madam'
p7
atp8
a(S'en'
p9
(dp10
S'PRON'
p11
F0.551936
sS'ADP'
p12
F0.448064
s(lp13
tp14
a(S')'
p15
(dp16
g5
F1.0
s(lp17
tp18
a(S'madame'
p19
(dp20
S'NOUN'
p21
F1.0
s(lp22
tp23
a(S'la'
p24
(dp25
S'PRON'
p26
F5.2e-05
sS'DET'
p27
F0.999948
sS'NOUN'
p28
F0.0
s(lp29
g7
atp30
a(S'pr\xc3\xa9sidente'
p31
(dp32
S'NOUN'
p33
F1.0
s(lp34
S'president'
p35
atp36
a(S','
p37
(dp38
g5
F1.0
s(lp39
g37
atp40
a(S'chaque'
p41
(dp42
S'PRON'
p43
F1.0
s(lp44
S'every'
p45
atp46
a(S'jour'
p47
(dp48
S'NOUN'
p49
F1.0
s(lp50
S'day'
p51
atp52
a(g37
(dp53
g5
F1.0
s(lp54
g37
atp55
a(S'des'
p56
(dp57
S'DET'
p58
F0.000291
sS'ADP'
p59
F0.999709
s(lp60
tp61
a(S'milliers'
p62
(dp63
S'NOUN'
p64
F1.0
s(lp65
S'thousands'
p66
atp67
a(S'de'
p68
(dp69
S'ADP'
p70
F1.0
s(lp71
S'of'
p72
atp73
a(S'tonnes'
p74
(dp75
S'VERB'
p76
F0.000347
sS'NOUN'
p77
F0.999653
s(lp78
S'tonnes'
p79
atp80
a(S'de'
p81
(dp82
S'ADP'
p83
F1.0
s(lp84
S'of'
p85
atp86
a(S'poissons'
p87
(dp88
S'VERB'
p89
F0.00128
sS'NOUN'
p90
F0.998719
s(lp91
S'fish'
p92
atp93
a(S'morts'
p94
(dp95
S'NOUN'
p96
F0.081738
sS'VERB'
p97
F0.207566
sS'ADJ'
p98
F0.710696
s(lp99
S'dead'
p100
atp101
a(S'sont'
p102
(dp103
S'VERB'
p104
F1.0
s(lp105
S'are'
p106
atp107
a(S'rejet\xc3\xa9es'
p108
(dp109
S'VERB'
p110
F1.0
s(lp111
S'tipped'
p112
atp113
a(S'\xc3\xa0'
p114
(dp115
S'ADP'
p116
F1.0
s(lp117
S'into'
p118
atp119
a(S'la'
p120
(dp121
S'PRON'
p122
F1.2e-05
sS'DET'
p123
F0.999988
sS'NOUN'
p124
F0.0
s(lp125
S'the'
p126
atp127
a(S'mer'
p128
(dp129
S'NOUN'
p130
F1.0
s(lp131
S'sea'
p132
atp133
a(g5
(dp134
g5
F1.0
s(lp135
g5
atp136
asS'en'
p137
(lp138
(g7
(dp139
S'NOUN'
p140
F1.0
s(lp141
g7
atp142
a(g35
(dp143
S'NOUN'
p144
F1.0
s(lp145
g35
atp146
a(g37
(dp147
g5
F1.0
s(lp148
g37
atp149
a(g45
(dp150
S'DET'
p151
F1.0
s(lp152
g45
atp153
a(g51
(dp154
S'NOUN'
p155
F1.0
s(lp156
g51
atp157
a(g37
(dp158
g5
F1.0
s(lp159
g37
atp160
a(g66
(dp161
S'NOUN'
p162
F1.0
s(lp163
g66
atp164
a(g72
(dp165
S'ADP'
p166
F1.0
s(lp167
g72
atp168
a(g79
(dp169
S'NOUN'
p170
F1.0
s(lp171
g79
atp172
a(g85
(dp173
S'ADP'
p174
F1.0
s(lp175
g85
atp176
a(g100
(dp177
S'ADV'
p178
F0.00126
sS'NOUN'
p179
F0.013051
sS'ADJ'
p180
F0.985689
s(lp181
g100
atp182
a(g92
(dp183
S'VERB'
p184
F1.5e-05
sS'NOUN'
p185
F0.999986
s(lp186
g92
atp187
a(g106
(dp188
S'VERB'
p189
F0.999941
sS'NOUN'
p190
F5.9e-05
s(lp191
g106
atp192
a(g112
(dp193
S'VERB'
p194
F1.0
s(lp195
g112
atp196
a(S'over'
p197
(dp198
S'ADV'
p199
F0.004511
sS'PRT'
p200
F0.053093
sS'NOUN'
p201
F0.0
sS'ADP'
p202
F0.942396
s(lp203
g197
atp204
a(S'the'
p205
(dp206
S'NOUN'
p207
F1.1e-05
sS'DET'
p208
F0.999989
s(lp209
g205
atp210
a(S'sides'
p211
(dp212
S'VERB'
p213
F0.000107
sS'NOUN'
p214
F0.999893
s(lp215
g211
atp216
a(S'of'
p217
(dp218
S'ADP'
p219
F1.0
s(lp220
g217
atp221
a(S'vessels'
p222
(dp223
S'NOUN'
p224
F1.0
s(lp225
g222
atp226
a(g118
(dp227
S'ADP'
p228
F1.0
s(lp229
g118
atp230
a(g126
(dp231
S'NOUN'
p232
F1e-06
sS'DET'
p233
F0.999999
s(lp234
g126
atp235
a(g132
(dp236
S'NOUN'
p237
F1.0
s(lp238
g132
atp239
a(g5
(dp240
g5
F1.0
s(lp241
g5
atp242
asS'nl'
p243
(lp244
(g3
(dp245
g5
F1.0
s(lp246
tp247
a(S'en'
p248
(dp249
S'CONJ'
p250
F1.0
s(lp251
g35
atp252
a(g15
(dp253
g5
F1.0
s(lp254
g35
atp255
a(S'mevrouw'
p256
(dp257
S'NOUN'
p258
F1.0
s(lp259
g7
atp260
a(S'de'
p261
(dp262
S'DET'
p263
F1.0
s(lp264
tp265
a(S'voorzitter'
p266
(dp267
S'NOUN'
p268
F1.0
s(lp269
g35
atp270
a(g37
(dp271
g5
F1.0
s(lp272
g37
atp273
a(S'elke'
p274
(dp275
S'PRON'
p276
F1.0
s(lp277
g45
atp278
a(S'dag'
p279
(dp280
S'X'
p281
F0.0
sS'NOUN'
p282
F1.0
s(lp283
g51
atp284
a(S'worden'
p285
(dp286
S'VERB'
p287
F0.999998
sS'NOUN'
p288
F2e-06
s(lp289
tp290
a(S'er'
p291
(dp292
S'ADV'
p293
F1.0
s(lp294
g37
atp295
a(S'duizenden'
p296
(dp297
S'NUM'
p298
F1.0
s(lp299
g66
atp300
a(S'tonnen'
p301
(dp302
S'NOUN'
p303
F1.0
s(lp304
g79
atp305
a(S'dode'
p306
(dp307
S'NOUN'
p308
F0.003841
sS'ADJ'
p309
F0.996159
s(lp310
g100
atp311
a(S'vis'
p312
(dp313
S'VERB'
p314
F0.026623
sS'NOUN'
p315
F0.973377
s(lp316
g92
atp317
a(S'vanaf'
p318
(dp319
S'ADP'
p320
F1.0
s(lp321
tp322
a(S'vissersboten'
p323
(dp324
S'NOUN'
p325
F1.0
s(lp326
g222
atp327
a(S'in'
p328
(dp329
S'ADV'
p330
F0.001834
sS'VERB'
p331
F1e-06
sS'ADP'
p332
F0.998166
s(lp333
g118
atp334
a(S'zee'
p335
(dp336
S'NOUN'
p337
F1.0
s(lp338
g132
atp339
a(S'geworpen'
p340
(dp341
S'VERB'
p342
F1.0
s(lp343
g112
atp344
a(g5
(dp345
g5
F1.0
s(lp346
g5
atp347
asS'de'
p348
(lp349
(S'frau'
p350
(dp351
S'NOUN'
p352
F0.043603
sS'ADJ'
p353
F0.928717
s(lp354
g7
atp355
a(S'pr\xc3\xa4sidentin'
p356
(dp357
S'NOUN'
p358
F0.993293
s(lp359
tp360
a(S'!'
p361
(dp362
g5
F1.0
s(lp363
g35
atp364
a(S'jeden'
p365
(dp366
S'PRON'
p367
F1.0
s(lp368
g45
atp369
a(S'tag'
p370
(dp371
S'VERB'
p372
F1.0
s(lp373
g51
atp374
a(S'werden'
p375
(dp376
S'VERB'
p377
F0.999538
s(lp378
g106
atp379
a(S'tausende'
p380
(dp381
S'NOUN'
p382
F0.041309
sS'ADJ'
p383
F0.958691
s(lp384
g66
atp385
a(S'von'
p386
(dp387
S'NOUN'
p388
F0.035866
sS'ADP'
p389
F0.964134
s(lp390
g72
atp391
a(S'tonnen'
p392
(dp393
S'NOUN'
p394
F0.195602
sS'ADJ'
p395
F0.716193
s(lp396
g79
atp397
a(S'toten'
p398
(dp399
S'ADJ'
p400
F1.0
s(lp401
g100
atp402
a(S'fischs'
p403
(dp404
S'NOUN'
p405
F0.992448
s(lp406
g92
atp407
a(S'\xc3\xbcber'
p408
(dp409
S'PRT'
p410
F9.2e-05
sS'ADP'
p411
F0.999908
s(lp412
g197
atp413
a(S'die'
p414
(dp415
S'PRON'
p416
F0.000136
sS'DET'
p417
F0.999825
s(lp418
g205
atp419
a(S'relings'
p420
(dp421
S'ADJ'
p422
F0.403274
sS'NOUN'
p423
F0.456536
s(lp424
tp425
a(S'von'
p426
(dp427
S'NOUN'
p428
F0.998161
sS'ADP'
p429
F0.001839
s(lp430
g217
atp431
a(S'schiffen'
p432
(dp433
S'VERB'
p434
F1.0
s(lp435
g222
atp436
a(S'ins'
p437
(dp438
S'ADP'
p439
F1.0
s(lp440
g118
atp441
a(S'meer'
p442
(dp443
S'ADJ'
p444
F0.017866
sS'NOUN'
p445
F0.972688
s(lp446
g132
atp447
a(S'gekippt'
p448
(dp449
S'VERB'
p450
F1.0
s(lp451
g112
atp452
a(g5
(dp453
g5
F1.0
s(lp454
g5
atp455
asS'it'
p456
(lp457
(g3
(dp458
g5
F1.0
s(lp459
tp460
a(S'en'
p461
(dp462
S'ADJ'
p463
F0.097599
sS'VERB'
p464
F0.025145
sS'NOUN'
p465
F0.877257
s(lp466
g35
atp467
a(g15
(dp468
g5
F1.0
s(lp469
tp470
a(S'signora'
p471
(dp472
S'NOUN'
p473
F1.0
s(lp474
g7
atp475
a(S'presidente'
p476
(dp477
S'NOUN'
p478
F1.0
s(lp479
g35
atp480
a(g37
(dp481
g5
F1.0
s(lp482
g37
atp483
a(S'ogni'
p484
(dp485
S'PRON'
p486
F0.0922
sS'ADJ'
p487
F0.9078
s(lp488
g45
atp489
a(S'giorno'
p490
(dp491
S'NOUN'
p492
F1.0
s(lp493
g51
atp494
a(S'migliaia'
p495
(dp496
S'NOUN'
p497
F1.0
s(lp498
g66
atp499
a(S'di'
p500
(dp501
S'CONJ'
p502
F4e-06
sS'ADP'
p503
F0.999996
s(lp504
g72
atp505
a(S'tonnellate'
p506
(dp507
S'NOUN'
p508
F1.0
s(lp509
g79
atp510
a(S'di'
p511
(dp512
S'CONJ'
p513
F4e-06
sS'ADP'
p514
F0.999996
s(lp515
g85
atp516
a(S'pesci'
p517
(dp518
S'NOUN'
p519
F1.0
s(lp520
g92
atp521
a(S'morti'
p522
(dp523
S'ADJ'
p524
F0.477767
sS'VERB'
p525
F0.010387
sS'NOUN'
p526
F0.511846
s(lp527
g100
atp528
a(S'vengono'
p529
(dp530
S'VERB'
p531
F1.0
s(lp532
g106
atp533
a(S'gettate'
p534
(dp535
S'VERB'
p536
F0.944505
sS'NOUN'
p537
F0.055495
s(lp538
g112
atp539
a(S'in'
p540
(dp541
S'ADP'
p542
F1.0
s(lp543
g197
atp544
a(S'mare'
p545
(dp546
S'NOUN'
p547
F1.0
s(lp548
g132
atp549
a(S'dalle'
p550
(dp551
S'NOUN'
p552
F0.00012
sS'ADP'
p553
F0.99988
s(lp554
g205
atp555
a(S'navi'
p556
(dp557
S'NOUN'
p558
F1.0
s(lp559
g222
atp560
a(g5
(dp561
g5
F1.0
s(lp562
g5
atp563
asS'sk'
p564
(lp565
(S'ka\xc5\xbed\xc3\xbd'
p566
(dp567
S'PRON'
p568
F1.0
s(lp569
g45
atp570
a(S'de\xc5\x88'
p571
(dp572
S'NOUN'
p573
F1.0
s(lp574
g51
atp575
a(S'sa'
p576
(dp577
S'PRT'
p578
F0.999829
sS'ADP'
p579
F0.0
sg281
F0.000171
s(lp580
g106
atp581
a(S'cez'
p582
(dp583
S'ADP'
p584
F1.0
s(lp585
g112
atp586
a(S'palubu'
p587
(dp588
S'NOUN'
p589
F1.0
s(lp590
tp591
a(S'plavidiel'
p592
(dp593
S'NOUN'
p594
F1.0
s(lp595
g222
atp596
a(S'vyhadzuj\xc3\xba'
p597
(dp598
S'VERB'
p599
F1.0
s(lp600
g112
atp601
a(S'do'
p602
(dp603
g281
F0.00029200000000000005
sS'ADP'
p604
F0.99956
sS'PRON'
p605
F0.000149
s(lp606
g118
atp607
a(S'mora'
p608
(dp609
S'NOUN'
p610
F1.0
s(lp611
g132
atp612
a(S'tis\xc3\xadce'
p613
(dp614
S'NUM'
p615
F1.0
s(lp616
g66
atp617
a(S'ton'
p618
(dp619
g281
F2e-06
sS'NOUN'
p620
F0.999998
s(lp621
g79
atp622
a(S'uhynut\xc3\xbdch'
p623
(dp624
S'VERB'
p625
F1.0
s(lp626
g100
atp627
a(S'r\xc3\xbdb'
p628
(dp629
S'NOUN'
p630
F1.0
s(lp631
g92
atp632
a(g5
(dp633
g5
F1.0
s(lp634
g5
atp635
asS'pl'
p636
(lp637
(S'pani'
p638
(dp639
S'NOUN'
p640
F0.999999
s(lp641
tp642
a(S'przewodnicz\xc4\x85ca'
p643
(dp644
S'NOUN'
p645
F1.0
s(lp646
g7
atp647
a(g361
(dp648
g5
F1.0
s(lp649
g35
atp650
a(S'ka\xc5\xbcdego'
p651
(dp652
S'ADJ'
p653
F0.9999990000000001
s(lp654
g45
atp655
a(S'dnia'
p656
(dp657
S'NOUN'
p658
F1.0
s(lp659
g51
atp660
a(S'tysi\xc4\x85ce'
p661
(dp662
S'NUM'
p663
F0.6839700000000001
sS'NOUN'
p664
F0.31603
s(lp665
g66
atp666
a(S'ton'
p667
(dp668
S'NOUN'
p669
F1.0
s(lp670
g79
atp671
a(S'martwych'
p672
(dp673
S'ADJ'
p674
F1.0
s(lp675
g100
atp676
a(S'ryb'
p677
(dp678
S'NOUN'
p679
F1.0
s(lp680
g92
atp681
a(S'wyrzuca'
p682
(dp683
S'VERB'
p684
F1.0
s(lp685
tp686
a(S'si\xc4\x99'
p687
(dp688
S'PRT'
p689
F1.0
s(lp690
g106
atp691
a(S'do'
p692
(dp693
g281
F0.0
sS'NOUN'
p694
F7e-06
sS'ADP'
p695
F0.999993
s(lp696
g118
atp697
a(S'morza'
p698
(dp699
S'NOUN'
p700
F1.0
s(lp701
g132
atp702
a(S'z'
p703
(dp704
S'PRT'
p705
F0.000443
sS'VERB'
p706
F0.000321
sS'NOUN'
p707
F4.3e-05
sS'ADP'
p708
F0.99906
sg281
F0.000133
s(lp709
g217
atp710
a(S'burt'
p711
(dp712
S'ADJ'
p713
F0.002163
sS'VERB'
p714
F2.2e-05
sS'NOUN'
p715
F0.9975740000000001
sg281
F0.000243
s(lp716
g112
atp717
a(S'statk\xc3\xb3w'
p718
(dp719
S'NOUN'
p720
F1.0
s(lp721
g222
atp722
a(g5
(dp723
g5
F1.0
s(lp724
g5
atp725
asS'sl'
p726
(lp727
(S'gospa'
p728
(dp729
S'NOUN'
p730
F1.0
s(lp731
g7
atp732
a(S'predsednica'
p733
(dp734
S'NOUN'
p735
F1.0
s(lp736
g35
atp737
a(g37
(dp738
g5
F1.0
s(lp739
g37
atp740
a(g703
(dp741
S'ADP'
p742
F1.0
s(lp743
g205
atp744
a(S'ladij'
p745
(dp746
S'NOUN'
p747
F1.0
s(lp748
g222
atp749
a(S'v'
p750
(dp751
S'ADP'
p752
F1.0
s(lp753
g118
atp754
a(S'morje'
p755
(dp756
S'NOUN'
p757
F1.0
s(lp758
g132
atp759
a(S'vsak'
p760
(dp761
S'PRON'
p762
F1.0
s(lp763
g45
atp764
a(S'dan'
p765
(dp766
S'NOUN'
p767
F1.0
s(lp768
g51
atp769
a(S'odvr\xc5\xbeejo'
p770
(dp771
S'ADV'
p772
F0.002446
sS'ADJ'
p773
F0.000217
sS'VERB'
p774
F0.98082
sS'NOUN'
p775
F0.016517000000000004
s(lp776
g112
atp777
a(S've\xc4\x8d'
p778
(dp779
S'ADV'
p780
F0.895721
sS'PRT'
p781
F0.104279
s(lp782
tp783
a(S'tiso\xc4\x8d'
p784
(dp785
S'NUM'
p786
F0.999999
s(lp787
g66
atp788
a(S'ton'
p789
(dp790
S'NOUN'
p791
F1.0
s(lp792
g79
atp793
a(S'mrtvih'
p794
(dp795
S'ADJ'
p796
F1.0
s(lp797
g100
atp798
a(S'rib'
p799
(dp800
S'NOUN'
p801
F1.0
s(lp802
g92
atp803
a(g5
(dp804
g5
F1.0
s(lp805
g5
atp806
asS'es'
p807
(lp808
(S'se\xc3\xb1ora'
p809
(dp810
S'NOUN'
p811
F1.0
s(lp812
g7
atp813
a(S'presidenta'
p814
(dp815
S'NOUN'
p816
F1.0
s(lp817
g35
atp818
a(g37
(dp819
g5
F1.0
s(lp820
g37
atp821
a(S'cada'
p822
(dp823
S'ADJ'
p824
F1.0
s(lp825
g45
atp826
a(S'd\xc3\xada'
p827
(dp828
S'NOUN'
p829
F1.0
s(lp830
g51
atp831
a(S'se'
p832
(dp833
S'PRON'
p834
F1.0
sS'VERB'
p835
F0.0
s(lp836
g112
atp837
a(S'arrojan'
p838
(dp839
S'VERB'
p840
F1.0
s(lp841
tp842
a(S'al'
p843
(dp844
S'CONJ'
p845
F0.000159
sS'ADP'
p846
F0.999841
s(lp847
g126
atp848
a(S'mar'
p849
(dp850
S'NOUN'
p851
F1.0
s(lp852
g132
atp853
a(S'por'
p854
(dp855
S'ADP'
p856
F1.0
s(lp857
g197
atp858
a(S'la'
p859
(dp860
S'PRON'
p861
F0.003189
sS'DET'
p862
F0.996012
sS'NOUN'
p863
F0.000154
sg281
F0.000645
s(lp864
g205
atp865
a(S'borda'
p866
(dp867
S'VERB'
p868
F1.0
s(lp869
g112
atp870
a(S'de'
p871
(dp872
g281
F0.0
sS'CONJ'
p873
F2.6e-05
sS'ADP'
p874
F0.999974
s(lp875
g217
atp876
a(S'los'
p877
(dp878
S'PRON'
p879
F0.0
sS'DET'
p880
F1.0
s(lp881
tp882
a(S'buques'
p883
(dp884
S'NOUN'
p885
F1.0
s(lp886
g222
atp887
a(S'miles'
p888
(dp889
S'NOUN'
p890
F1.0
s(lp891
g66
atp892
a(S'de'
p893
(dp894
g281
F2.9e-05
sS'CONJ'
p895
F0.000449
sS'ADP'
p896
F0.999522
s(lp897
g72
atp898
a(S'toneladas'
p899
(dp900
S'NOUN'
p901
F1.0
s(lp902
g79
atp903
a(S'de'
p904
(dp905
g281
F2.9e-05
sS'CONJ'
p906
F0.000449
sS'ADP'
p907
F0.999522
s(lp908
g85
atp909
a(S'peces'
p910
(dp911
S'NOUN'
p912
F1.0
s(lp913
g92
atp914
a(S'muertos'
p915
(dp916
S'ADJ'
p917
F1.0
s(lp918
g100
atp919
a(g5
(dp920
g5
F1.0
s(lp921
g5
atp922
as.