(dp0
S'fr'
p1
(lp2
(S'malgr\xc3\xa9'
p3
(dp4
S'ADP'
p5
F1.0
s(lp6
S'despite'
p7
atp8
a(S'les'
p9
(dp10
S'PRON'
p11
F5.6e-05
sS'DET'
p12
F0.999943
sS'ADP'
p13
F2e-06
s(lp14
S'the'
p15
atp16
a(S'recommandations'
p17
(dp18
S'NOUN'
p19
F1.0
s(lp20
S'recommendations'
p21
atp22
a(S'du'
p23
(dp24
S'ADP'
p25
F1.0
s(lp26
S'of'
p27
atp28
a(S'code'
p29
(dp30
S'VERB'
p31
F2e-06
sS'NOUN'
p32
F0.999998
s(lp33
S'code'
p34
atp35
a(S'national'
p36
(dp37
S'NOUN'
p38
F0.007084
sS'ADJ'
p39
F0.992916
s(lp40
S'national'
p41
atp42
a(S'de'
p43
(dp44
S'ADP'
p45
F1.0
s(lp46
tp47
a(S'gouvernance'
p48
(dp49
S'NOUN'
p50
F1.0
s(lp51
S'governance'
p52
atp53
a(S'sur'
p54
(dp55
S'ADP'
p56
F1.0
s(lp57
S'corporate'
p58
atp59
a(S'les'
p60
(dp61
S'PRON'
p62
F0.0002
sS'DET'
p63
F0.999798
sS'ADP'
p64
F2e-06
s(lp65
S'companies'
p66
atp67
a(S'entreprises'
p68
(dp69
S'VERB'
p70
F0.000539
sS'NOUN'
p71
F0.999461
s(lp72
g66
atp73
a(S','
p74
(dp75
S'.'
p76
F1.0
s(lp77
g74
atp78
a(S'certaines'
p79
(dp80
S'PRON'
p81
F0.995754
sS'ADJ'
p82
F0.004246
s(lp83
S'some'
p84
atp85
a(S'entreprises'
p86
(dp87
S'VERB'
p88
F0.008202
sS'NOUN'
p89
F0.991798
s(lp90
tp91
a(S'se'
p92
(dp93
S'PRON'
p94
F1.0
s(lp95
S'is'
p96
atp97
a(S'sont'
p98
(dp99
S'VERB'
p100
F1.0
s(lp101
S'have'
p102
atp103
a(S'fait'
p104
(dp105
S'ADJ'
p106
F1.8e-05
sS'VERB'
p107
F0.997541
sS'NOUN'
p108
F0.002441
s(lp109
S'shown'
p110
atp111
a(S'prier'
p112
(dp113
S'VERB'
p114
F1.0
s(lp115
tp116
a(S'avant'
p117
(dp118
S'ADV'
p119
F0.121723
sS'NOUN'
p120
F0.009658
sS'ADP'
p121
F0.868619
s(lp122
S'reluctance'
p123
atp124
a(S'de'
p125
(dp126
S'ADP'
p127
F1.0
s(lp128
S'to'
p129
atp130
a(S'r\xc3\xa9v\xc3\xa9ler'
p131
(dp132
S'VERB'
p133
F1.0
s(lp134
S'disclose'
p135
atp136
a(S'leurs'
p137
(dp138
S'PRON'
p139
F1.0
s(lp140
g66
atp141
a(S'informations'
p142
(dp143
S'NOUN'
p144
F1.0
s(lp145
S'information'
p146
atp147
a(S'en'
p148
(dp149
S'PRON'
p150
F0.000406
sS'ADP'
p151
F0.999594
s(lp152
S'a'
p153
atp154
a(S'mati\xc3\xa8re'
p155
(dp156
S'NOUN'
p157
F1.0
s(lp158
S'field'
p159
atp160
a(S'de'
p161
(dp162
S'ADP'
p163
F1.0
s(lp164
S'in'
p165
atp166
a(S'r\xc3\xa9mun\xc3\xa9ration'
p167
(dp168
S'NOUN'
p169
F1.0
s(lp170
S'remuneration'
p171
atp172
a(g76
(dp173
g76
F1.0
s(lp174
g76
atp175
asS'en'
p176
(lp177
(g171
(dp178
S'NOUN'
p179
F1.0
s(lp180
g171
atp181
a(g96
(dp182
S'VERB'
p183
F1.0
s(lp184
g96
atp185
a(g153
(dp186
S'NOUN'
p187
F0.0
sS'DET'
p188
F1.0
s(lp189
g153
atp190
a(g159
(dp191
S'VERB'
p192
F7.7e-05
sS'NOUN'
p193
F0.999923
s(lp194
g159
atp195
a(g165
(dp196
S'ADV'
p197
F4e-06
sS'PRT'
p198
F1e-06
sS'ADP'
p199
F0.999995
s(lp200
g165
atp201
a(S'which'
p202
(dp203
S'DET'
p204
F1.0
s(lp205
g202
atp206
a(g84
(dp207
S'ADV'
p208
F0.000411
sS'DET'
p209
F0.999589
s(lp210
g84
atp211
a(g66
(dp212
S'VERB'
p213
F1e-06
sS'NOUN'
p214
F0.999999
s(lp215
g66
atp216
a(g102
(dp217
S'VERB'
p218
F1.0
s(lp219
g102
atp220
a(g110
(dp221
S'VERB'
p222
F1.0
s(lp223
g110
atp224
a(S'strong'
p225
(dp226
S'ADV'
p227
F0.001943
sS'ADJ'
p228
F0.998057
s(lp229
g225
atp230
a(g123
(dp231
S'NOUN'
p232
F1.0
s(lp233
g123
atp234
a(g129
(dp235
S'ADV'
p236
F0.0
sS'PRT'
p237
F1.0
sS'ADP'
p238
F0.0
s(lp239
g129
atp240
a(g135
(dp241
S'VERB'
p242
F1.0
s(lp243
g135
atp244
a(g146
(dp245
S'NOUN'
p246
F1.0
s(lp247
g146
atp248
a(g74
(dp249
g76
F1.0
s(lp250
g74
atp251
a(g7
(dp252
S'VERB'
p253
F0.000565
sS'NOUN'
p254
F5e-06
sS'ADP'
p255
F0.999429
s(lp256
g7
atp257
a(g15
(dp258
S'NOUN'
p259
F1.1e-05
sS'DET'
p260
F0.999989
s(lp261
g15
atp262
a(g21
(dp263
S'NOUN'
p264
F1.0
s(lp265
g21
atp266
a(g27
(dp267
S'ADP'
p268
F1.0
s(lp269
g27
atp270
a(S'the'
p271
(dp272
S'NOUN'
p273
F1e-06
sS'DET'
p274
F0.999999
s(lp275
g271
atp276
a(g41
(dp277
S'NOUN'
p278
F0.000157
sS'ADJ'
p279
F0.999843
s(lp280
g41
atp281
a(g58
(dp282
S'ADJ'
p283
F1.0
s(lp284
g58
atp285
a(g52
(dp286
S'NOUN'
p287
F1.0
s(lp288
g52
atp289
a(g34
(dp290
S'VERB'
p291
F0.0028209999999999997
sS'NOUN'
p292
F0.997179
s(lp293
g34
atp294
a(g76
(dp295
g76
F1.0
s(lp296
g76
atp297
asS'nl'
p298
(lp299
(S'bepaalde'
p300
(dp301
S'NOUN'
p302
F0.000258
sS'VERB'
p303
F4.7e-05
sS'ADJ'
p304
F0.999695
s(lp305
g84
atp306
a(S'ondernemingen'
p307
(dp308
S'NOUN'
p309
F1.0
s(lp310
g66
atp311
a(S'staan'
p312
(dp313
S'VERB'
p314
F0.999936
sS'NOUN'
p315
F6.4e-05
s(lp316
g225
atp317
a(S'huiverachtig'
p318
(dp319
S'NOUN'
p320
F0.0031799999999999997
sS'ADJ'
p321
F0.99682
s(lp322
tp323
a(S'tegenover'
p324
(dp325
S'ADP'
p326
F1.0
s(lp327
g123
atp328
a(S'de'
p329
(dp330
S'DET'
p331
F1.0
s(lp332
tp333
a(S'bekendmaking'
p334
(dp335
S'NOUN'
p336
F1.0
s(lp337
g135
atp338
a(S'van'
p339
(dp340
S'ADP'
p341
F1.0
s(lp342
tp343
a(S'informatie'
p344
(dp345
S'NOUN'
p346
F1.0
s(lp347
g146
atp348
a(S'op'
p349
(dp350
S'ADV'
p351
F0.001846
sS'ADJ'
p352
F2e-06
sS'ADP'
p353
F0.998153
s(lp354
g153
atp355
a(S'vlak'
p356
(dp357
S'ADJ'
p358
F0.000932
sS'NOUN'
p359
F0.999068
s(lp360
g159
atp361
a(S'van'
p362
(dp363
S'ADP'
p364
F1.0
s(lp365
g165
atp366
a(S'bezoldiging'
p367
(dp368
S'NOUN'
p369
F1.0
s(lp370
g171
atp371
a(g74
(dp372
g76
F1.0
s(lp373
g74
atp374
a(S'en'
p375
(dp376
S'CONJ'
p377
F1.0
s(lp378
tp379
a(S'dat'
p380
(dp381
S'PRON'
p382
F0.723339
sS'CONJ'
p383
F0.276661
s(lp384
g202
atp385
a(S'ondanks'
p386
(dp387
S'ADP'
p388
F1.0
s(lp389
g7
atp390
a(S'de'
p391
(dp392
S'DET'
p393
F1.0
s(lp394
g15
atp395
a(S'aanbevelingen'
p396
(dp397
S'NOUN'
p398
F1.0
s(lp399
g21
atp400
a(S'van'
p401
(dp402
S'ADP'
p403
F1.0
s(lp404
g27
atp405
a(S'de'
p406
(dp407
S'DET'
p408
F1.0
s(lp409
g271
atp410
a(S'nationale'
p411
(dp412
S'NOUN'
p413
F0.002833
sS'ADJ'
p414
F0.997167
s(lp415
g41
atp416
a(S'corporate'
p417
(dp418
S'ADJ'
p419
F0.459195
sS'NOUN'
p420
F0.540805
s(lp421
g58
atp422
a(S'governance'
p423
(dp424
S'ADJ'
p425
F0.245315
sS'NOUN'
p426
F0.754685
s(lp427
g52
atp428
a(S'code'
p429
(dp430
S'NOUN'
p431
F1.0
s(lp432
g34
atp433
a(g76
(dp434
g76
F1.0
s(lp435
g76
atp436
asS'de'
p437
(lp438
(S'die'
p439
(dp440
S'PRON'
p441
F0.001127
sS'DET'
p442
F0.99854
s(lp443
tp444
a(S'bezahlung'
p445
(dp446
S'ADJ'
p447
F0.000243
sS'NOUN'
p448
F0.999517
s(lp449
g171
atp450
a(S'ist'
p451
(dp452
S'VERB'
p453
F1.0
s(lp454
g96
atp455
a(S'ein'
p456
(dp457
S'NUM'
p458
F0.001134
sS'DET'
p459
F0.998866
s(lp460
g153
atp461
a(S'bereich'
p462
(dp463
S'ADJ'
p464
F0.021852
sS'NOUN'
p465
F0.967003
s(lp466
g159
atp467
a(g74
(dp468
g76
F1.0
s(lp469
g74
atp470
a(S'in'
p471
(dp472
S'ADP'
p473
F1.0
s(lp474
g165
atp475
a(S'dem'
p476
(dp477
S'PRON'
p478
F0.00103
sS'DET'
p479
F0.998826
s(lp480
g202
atp481
a(S'einige'
p482
(dp483
S'PRON'
p484
F1.0
s(lp485
g84
atp486
a(S'unternehmen'
p487
(dp488
S'VERB'
p489
F1.0
s(lp490
g66
atp491
a(S'trotz'
p492
(dp493
S'VERB'
p494
F2e-06
sS'ADP'
p495
F0.999998
s(lp496
g7
atp497
a(S'der'
p498
(dp499
S'PRON'
p500
F1.6e-05
sS'DET'
p501
F0.999979
s(lp502
g15
atp503
a(S'empfehlungen'
p504
(dp505
S'ADJ'
p506
F9.3e-05
sS'NOUN'
p507
F0.999849
s(lp508
g21
atp509
a(S'des'
p510
(dp511
S'DET'
p512
F1.0
s(lp513
g27
atp514
a(S'nationalen'
p515
(dp516
S'ADJ'
p517
F1.0
s(lp518
g41
atp519
a(S'corporate-governance-kodexes'
p520
(dp521
S'NOUN'
p522
F1.0
s(lp523
tp524
a(S'nur'
p525
(dp526
S'ADV'
p527
F1.0
s(lp528
tp529
a(S'sehr'
p530
(dp531
S'ADV'
p532
F1.0
s(lp533
g225
atp534
a(S'widerwillig'
p535
(dp536
S'ADJ'
p537
F1.0
s(lp538
g123
atp539
a(S'informationen'
p540
(dp541
S'NOUN'
p542
F0.141923
sS'ADJ'
p543
F0.783005
s(lp544
g146
atp545
a(S'preisgeben'
p546
(dp547
S'VERB'
p548
F1.0
s(lp549
g135
atp550
a(g76
(dp551
g76
F1.0
s(lp552
g76
atp553
asS'it'
p554
(lp555
(S'la'
p556
(dp557
S'PRON'
p558
F0.000408
sS'DET'
p559
F0.999592
s(lp560
tp561
a(S'retribuzione'
p562
(dp563
S'NOUN'
p564
F1.0
s(lp565
g171
atp566
a(S'\xc3\xa8'
p567
(dp568
S'VERB'
p569
F1.0
s(lp570
g96
atp571
a(S'un'
p572
(dp573
S'PRON'
p574
F0.00115
sS'DEF'
p575
F0.99885
s(lp576
g153
atp577
a(S'settore'
p578
(dp579
S'ADJ'
p580
F0.013346
sS'NOUN'
p581
F0.986654
s(lp582
g159
atp583
a(S'in'
p584
(dp585
S'ADP'
p586
F1.0
s(lp587
g165
atp588
a(S'cui'
p589
(dp590
S'PRON'
p591
F1.0
s(lp592
g202
atp593
a(S'alcune'
p594
(dp595
S'PRON'
p596
F1.0
s(lp597
g84
atp598
a(S'imprese'
p599
(dp600
S'VERB'
p601
F0.00016099999999999998
sS'NOUN'
p602
F0.999839
s(lp603
g66
atp604
a(S'hanno'
p605
(dp606
S'VERB'
p607
F1.0
s(lp608
g102
atp609
a(S'dimostrato'
p610
(dp611
S'VERB'
p612
F1.0
s(lp613
g110
atp614
a(S'forte'
p615
(dp616
S'ADV'
p617
F0.031337
sS'NOUN'
p618
F0.002141
sS'ADJ'
p619
F0.966522
s(lp620
g225
atp621
a(S'riluttanza'
p622
(dp623
S'NOUN'
p624
F1.0
s(lp625
g123
atp626
a(g153
(dp627
S'CONJ'
p628
F0.000335
sS'ADP'
p629
F0.999665
s(lp630
g129
atp631
a(S'divulgare'
p632
(dp633
S'VERB'
p634
F1.0
s(lp635
g135
atp636
a(S'informazioni'
p637
(dp638
S'NOUN'
p639
F1.0
s(lp640
g146
atp641
a(g74
(dp642
g76
F1.0
s(lp643
g74
atp644
a(S'nonostante'
p645
(dp646
S'CONJ'
p647
F0.164319
sS'ADP'
p648
F0.835681
s(lp649
g7
atp650
a(S'le'
p651
(dp652
S'PRON'
p653
F8.5e-05
sS'DET'
p654
F0.999915
s(lp655
g15
atp656
a(S'raccomandazioni'
p657
(dp658
S'NOUN'
p659
F1.0
s(lp660
g21
atp661
a(S'del'
p662
(dp663
S'DEF'
p664
F0.001248
sS'ADP'
p665
F0.998752
s(lp666
g27
atp667
a(S'sistema'
p668
(dp669
S'VERB'
p670
F9.2e-05
sS'NOUN'
p671
F0.999909
s(lp672
g34
atp673
a(S'nazionale'
p674
(dp675
S'NOUN'
p676
F0.001177
sS'ADJ'
p677
F0.998823
s(lp678
g41
atp679
a(S'di'
p680
(dp681
S'CONJ'
p682
F5e-06
sS'ADP'
p683
F0.999995
s(lp684
tp685
a(S'governo'
p686
(dp687
S'VERB'
p688
F6.5e-05
sS'NOUN'
p689
F0.999935
s(lp690
g52
atp691
a(S'societario'
p692
(dp693
S'ADJ'
p694
F1.0
s(lp695
g58
atp696
a(g76
(dp697
g76
F1.0
s(lp698
g76
atp699
asS'sk'
p700
(lp701
(S'odmeny'
p702
(dp703
S'NOUN'
p704
F1.0
s(lp705
g171
atp706
a(S'predstavuj\xc3\xba'
p707
(dp708
S'VERB'
p709
F1.0
s(lp710
g96
atp711
a(S'oblas\xc5\xa5'
p712
(dp713
S'NOUN'
p714
F1.0
s(lp715
g159
atp716
a(g74
(dp717
g76
F1.0
s(lp718
tp719
a(S'v'
p720
(dp721
S'X'
p722
F0.000125
sS'ADP'
p723
F0.999875
s(lp724
g165
atp725
a(S'ktorej'
p726
(dp727
S'PRON'
p728
F1.0
s(lp729
g202
atp730
a(S'niektor\xc3\xa9'
p731
(dp732
S'PRON'
p733
F1.0
s(lp734
g84
atp735
a(S'spolo\xc4\x8dnosti'
p736
(dp737
S'NOUN'
p738
F1.0
s(lp739
g66
atp740
a(S'preuk\xc3\xa1zali'
p741
(dp742
S'VERB'
p743
F1.0
s(lp744
g110
atp745
a(S'v\xc3\xbdrazn\xc3\xba'
p746
(dp747
S'ADJ'
p748
F1.0
s(lp749
g225
atp750
a(S'nechu\xc5\xa5'
p751
(dp752
S'VERB'
p753
F0.000606
sS'NOUN'
p754
F0.999394
s(lp755
g123
atp756
a(S'zverejni\xc5\xa5'
p757
(dp758
S'VERB'
p759
F1.0
s(lp760
g135
atp761
a(S'inform\xc3\xa1cie'
p762
(dp763
S'NOUN'
p764
F1.0
s(lp765
g146
atp766
a(S'aj'
p767
(dp768
g722
F0.537121
sS'CONJ'
p769
F0.462879
s(lp770
tp771
a(S'napriek'
p772
(dp773
S'ADV'
p774
F5.2e-05
sS'CONJ'
p775
F0.000128
sS'ADP'
p776
F0.99982
s(lp777
g7
atp778
a(S'odpor\xc3\xba\xc4\x8daniam'
p779
(dp780
S'NOUN'
p781
F1.0
s(lp782
g21
atp783
a(S'n\xc3\xa1rodn\xc3\xa9ho'
p784
(dp785
S'ADJ'
p786
F1.0
s(lp787
g41
atp788
a(S'k\xc3\xb3dexu'
p789
(dp790
S'NOUN'
p791
F1.0
s(lp792
g58
atp793
a(S'riadenia'
p794
(dp795
S'NOUN'
p796
F1.0
s(lp797
g52
atp798
a(S'podniku'
p799
(dp800
S'NOUN'
p801
F1.0
s(lp802
g34
atp803
a(g76
(dp804
g76
F1.0
s(lp805
g76
atp806
asS'pl'
p807
(lp808
(S'wynagrodzenie'
p809
(dp810
S'NOUN'
p811
F1.0
s(lp812
g171
atp813
a(S'jest'
p814
(dp815
S'VERB'
p816
F1.0
s(lp817
g96
atp818
a(S'obszarem'
p819
(dp820
S'NOUN'
p821
F1.0
s(lp822
g159
atp823
a(g74
(dp824
g722
F0.0
sg76
F1.0
s(lp825
tp826
a(S'w'
p827
(dp828
S'ADJ'
p829
F0.0
sg722
F2e-06
sS'NOUN'
p830
F0.0
sS'ADP'
p831
F0.9999979999999999
s(lp832
g165
atp833
a(S'kt\xc3\xb3rym'
p834
(dp835
S'ADJ'
p836
F0.9999989999999997
s(lp837
g202
atp838
a(S'niekt\xc3\xb3re'
p839
(dp840
S'ADJ'
p841
F1.0
s(lp842
g84
atp843
a(S'sp\xc3\xb3\xc5\x82ki'
p844
(dp845
S'NOUN'
p846
F1.0
s(lp847
g66
atp848
a(S'wykaza\xc5\x82y'
p849
(dp850
S'VERB'
p851
F1.000001
s(lp852
g110
atp853
a(S'silny'
p854
(dp855
S'ADJ'
p856
F1.0
s(lp857
g225
atp858
a(S'op\xc3\xb3r'
p859
(dp860
S'NOUN'
p861
F1.0
s(lp862
tp863
a(S'wobec'
p864
(dp865
S'ADV'
p866
F2e-06
sS'ADP'
p867
F0.999998
s(lp868
g123
atp869
a(S'ujawniania'
p870
(dp871
S'VERB'
p872
F1.0
s(lp873
g135
atp874
a(S'informacji'
p875
(dp876
S'NOUN'
p877
F0.999999
s(lp878
g146
atp879
a(g74
(dp880
g722
F0.0
sg76
F1.0
s(lp881
g74
atp882
a(S'pomimo'
p883
(dp884
S'ADP'
p885
F1.0
s(lp886
g7
atp887
a(S'zalece\xc5\x84'
p888
(dp889
S'NOUN'
p890
F1.0
s(lp891
tp892
a(S'zawartych'
p893
(dp894
S'VERB'
p895
F1.0
s(lp896
g21
atp897
a(g827
(dp898
S'ADJ'
p899
F0.0
sg722
F0.0
sS'NOUN'
p900
F0.0
sS'ADP'
p901
F1.0
s(lp902
g271
atp903
a(S'krajowym'
p904
(dp905
S'ADJ'
p906
F1.0
s(lp907
g41
atp908
a(S'kodeksie'
p909
(dp910
S'NOUN'
p911
F1.0
s(lp912
g34
atp913
a(S'zarz\xc4\x85dzania'
p914
(dp915
S'VERB'
p916
F0.969078
sS'NOUN'
p917
F0.030922
s(lp918
g52
atp919
a(S'sp\xc3\xb3\xc5\x82kami'
p920
(dp921
S'NOUN'
p922
F1.0
s(lp923
g58
atp924
a(g76
(dp925
g76
F1.0
s(lp926
g76
atp927
asS'sl'
p928
(lp929
(S'nekatere'
p930
(dp931
S'PRON'
p932
F1.000001
s(lp933
g84
atp934
a(S'dru\xc5\xbebe'
p935
(dp936
S'NOUN'
p937
F1.000001
s(lp938
g66
atp939
a(S'so'
p940
(dp941
g722
F0.0
sS'VERB'
p942
F0.999999
s(lp943
g102
atp944
a(S'se'
p945
(dp946
S'PRON'
p947
F0.999998
sg722
F2e-06
s(lp948
g96
atp949
a(S'odlo\xc4\x8dno'
p950
(dp951
S'ADV'
p952
F0.997731
sS'ADJ'
p953
F0.0022700000000000003
s(lp954
g225
atp955
a(S'upirale'
p956
(dp957
S'ADV'
p958
F0.000339
sS'ADJ'
p959
F0.013609
sS'VERB'
p960
F0.9620639999999999
sS'NOUN'
p961
F0.023962999999999998
sg722
F2.3e-05
s(lp962
g123
atp963
a(S'razkrivanju'
p964
(dp965
S'ADV'
p966
F0.005748
sS'ADJ'
p967
F0.00011499999999999999
sS'VERB'
p968
F0.009689
sS'NOUN'
p969
F0.9844500000000003
s(lp970
g135
atp971
a(S'informacij'
p972
(dp973
S'NOUN'
p974
F1.0
s(lp975
g146
atp976
a(S'o'
p977
(dp978
S'NOUN'
p979
F0.000102
sS'ADP'
p980
F0.999898
s(lp981
g153
atp982
a(S'prejemkih'
p983
(dp984
S'ADV'
p985
F0.000326
sS'ADJ'
p986
F0.04754100000000001
sS'VERB'
p987
F0.00011000000000000002
sS'NOUN'
p988
F0.9520230000000001
s(lp989
g171
atp990
a(S'kljub'
p991
(dp992
S'ADP'
p993
F1.0
s(lp994
g7
atp995
a(S'priporo\xc4\x8dilom'
p996
(dp997
S'ADV'
p998
F0.000544
sS'ADJ'
p999
F0.000647
sS'VERB'
p1000
F0.000669
sS'NOUN'
p1001
F0.9981410000000001
s(lp1002
g21
atp1003
a(S'nacionalnega'
p1004
(dp1005
S'ADJ'
p1006
F1.0
s(lp1007
g41
atp1008
a(S'kodeksa'
p1009
(dp1010
S'ADJ'
p1011
F1.2e-05
sS'PRON'
p1012
F7.1e-05
sS'VERB'
p1013
F1.1000000000000001e-05
sS'NOUN'
p1014
F0.999905
sg722
F0.0
s(lp1015
g34
atp1016
a(S'upravljanja'
p1017
(dp1018
S'NOUN'
p1019
F1.0
s(lp1020
g52
atp1021
a(S'dru\xc5\xbeb'
p1022
(dp1023
S'NOUN'
p1024
F1.0
s(lp1025
g58
atp1026
a(g76
(dp1027
g76
F1.0
s(lp1028
g76
atp1029
asS'es'
p1030
(lp1031
(S'la'
p1032
(dp1033
g722
F4.5e-05
sS'DET'
p1034
F0.999917
sS'NOUN'
p1035
F0.0
sS'PRON'
p1036
F3.8e-05
s(lp1037
tp1038
a(S'retribuci\xc3\xb3n'
p1039
(dp1040
S'NOUN'
p1041
F1.0
s(lp1042
g171
atp1043
a(S'es'
p1044
(dp1045
S'VERB'
p1046
F1.0
s(lp1047
g96
atp1048
a(S'un'
p1049
(dp1050
g722
F4e-06
sS'DET'
p1051
F0.999996
s(lp1052
g153
atp1053
a(S'\xc3\xa1mbito'
p1054
(dp1055
S'NOUN'
p1056
F1.0
s(lp1057
g159
atp1058
a(S'en'
p1059
(dp1060
g722
F0.0
sS'CONJ'
p1061
F0.0
sS'ADP'
p1062
F1.0
s(lp1063
g165
atp1064
a(S'el'
p1065
(dp1066
S'PRON'
p1067
F0.000544
sS'DET'
p1068
F0.999456
s(lp1069
g271
atp1070
a(S'que'
p1071
(dp1072
g722
F0.0
sS'CONJ'
p1073
F1.0
s(lp1074
g202
atp1075
a(S'algunas'
p1076
(dp1077
S'ADJ'
p1078
F1.0
s(lp1079
g84
atp1080
a(S'empresas'
p1081
(dp1082
S'NOUN'
p1083
F1.0
s(lp1084
g66
atp1085
a(S'han'
p1086
(dp1087
S'VERB'
p1088
F1.0
s(lp1089
g102
atp1090
a(S'mostrado'
p1091
(dp1092
S'VERB'
p1093
F1.0
s(lp1094
g110
atp1095
a(S'una'
p1096
(dp1097
S'DET'
p1098
F1.0
s(lp1099
tp1100
a(S'fuerte'
p1101
(dp1102
S'ADJ'
p1103
F1.0
s(lp1104
g225
atp1105
a(S'reticencia'
p1106
(dp1107
S'NOUN'
p1108
F1.0
s(lp1109
g123
atp1110
a(g153
(dp1111
g722
F8.499999999999999e-05
sS'CONJ'
p1112
F0.077467
sS'ADP'
p1113
F0.922448
s(lp1114
g129
atp1115
a(S'publicar'
p1116
(dp1117
S'VERB'
p1118
F1.0
s(lp1119
g135
atp1120
a(S'informaci\xc3\xb3n'
p1121
(dp1122
S'NOUN'
p1123
F1.0
s(lp1124
g146
atp1125
a(g74
(dp1126
g76
F1.0
s(lp1127
g74
atp1128
a(g153
(dp1129
S'CONJ'
p1130
F1.0
s(lp1131
tp1132
a(S'pesar'
p1133
(dp1134
S'CONJ'
p1135
F1.0
s(lp1136
g7
atp1137
a(S'de'
p1138
(dp1139
S'CONJ'
p1140
F1.0
s(lp1141
tp1142
a(S'las'
p1143
(dp1144
S'PRON'
p1145
F1.8e-05
sS'DET'
p1146
F0.999982
s(lp1147
g15
atp1148
a(S'recomendaciones'
p1149
(dp1150
S'NOUN'
p1151
F1.0
s(lp1152
g21
atp1153
a(S'del'
p1154
(dp1155
S'ADP'
p1156
F1.0
s(lp1157
tp1158
a(S'c\xc3\xb3digo'
p1159
(dp1160
S'NOUN'
p1161
F1.0
s(lp1162
g34
atp1163
a(S'nacional'
p1164
(dp1165
S'ADJ'
p1166
F1.0
s(lp1167
g41
atp1168
a(S'de'
p1169
(dp1170
g722
F3.6e-05
sS'CONJ'
p1171
F0.00149
sS'ADP'
p1172
F0.998474
s(lp1173
g27
atp1174
a(S'gobierno'
p1175
(dp1176
S'VERB'
p1177
F0.000268
sS'NOUN'
p1178
F0.999732
s(lp1179
g52
atp1180
a(S'corporativo'
p1181
(dp1182
S'ADJ'
p1183
F1.0
s(lp1184
g58
atp1185
a(g76
(dp1186
g76
F1.0
s(lp1187
g76
atp1188
as.