(dp0
S'fr'
p1
(lp2
(S'en'
p3
(dp4
S'PRON'
p5
F0.009587
sS'ADP'
p6
F0.990413
s(lp7
S'in'
p8
atp9
a(S'g\xc3\xa9n\xc3\xa9ral'
p10
(dp11
S'NOUN'
p12
F0.113314
sS'ADJ'
p13
F0.886686
s(lp14
S'general'
p15
atp16
a(S','
p17
(dp18
S'.'
p19
F1.0
s(lp20
g17
atp21
a(S'les'
p22
(dp23
S'PRON'
p24
F0.000333
sS'DET'
p25
F0.999645
sS'ADP'
p26
F2.2e-05
s(lp27
S'the'
p28
atp29
a(S'syst\xc3\xa8mes'
p30
(dp31
S'NOUN'
p32
F1.0
s(lp33
S'systems'
p34
atp35
a(S'ont'
p36
(dp37
S'VERB'
p38
F1.0
s(lp39
S'serve'
p40
atp41
a(S'un'
p42
(dp43
S'NOUN'
p44
F0.00056
sS'NUM'
p45
F0.004294
sS'DET'
p46
F0.995146
s(lp47
S'a'
p48
atp49
a(S'double'
p50
(dp51
S'ADJ'
p52
F0.087
sS'VERB'
p53
F0.000849
sS'NOUN'
p54
F0.91215
s(lp55
S'twofold'
p56
atp57
a(S'objectif'
p58
(dp59
S'NOUN'
p60
F0.070072
sS'ADJ'
p61
F0.929928
s(lp62
S'purpose'
p63
atp64
a(g17
(dp65
g19
F1.0
s(lp66
g17
atp67
a(S'm\xc3\xaame'
p68
(dp69
S'ADV'
p70
F0.528529
sS'ADJ'
p71
F0.471471
s(lp72
tp73
a(S'si'
p74
(dp75
S'ADV'
p76
F0.187035
sS'CONJ'
p77
F0.812881
sS'NOUN'
p78
F8.4e-05
s(lp79
S'though'
p80
atp81
a(S'le'
p82
(dp83
S'PRON'
p84
F0.343989
sS'DET'
p85
F0.656011
s(lp86
S'the'
p87
atp88
a(S'plus'
p89
(dp90
S'ADV'
p91
F0.999655
sS'VERB'
p92
F0.000344
s(lp93
S'more'
p94
atp95
a(S'important'
p96
(dp97
S'VERB'
p98
F0.146249
sS'ADJ'
p99
F0.853751
s(lp100
S'important'
p101
atp102
a(S'des'
p103
(dp104
S'DET'
p105
F1e-05
sS'ADP'
p106
F0.99999
s(lp107
S'of'
p108
atp109
a(S'deux'
p110
(dp111
S'NUM'
p112
F0.995947
sS'NOUN'
p113
F0.004053
s(lp114
S'two'
p115
atp116
a(S'est'
p117
(dp118
S'VERB'
p119
F0.971541
sS'NOUN'
p120
F0.028459
s(lp121
S'is'
p122
atp123
a(S'incontestablement'
p124
(dp125
S'ADV'
p126
F1.0
s(lp127
S'undoubtedly'
p128
atp129
a(S'de'
p130
(dp131
S'ADP'
p132
F1.0
s(lp133
S'to'
p134
atp135
a(S'mentionner'
p136
(dp137
S'VERB'
p138
F1.0
s(lp139
S'state'
p140
atp141
a(S'le'
p142
(dp143
S'PRON'
p144
F9.8e-05
sS'DET'
p145
F0.999902
s(lp146
S"'s"
p147
atp148
a(S'v\xc3\xa9ritable'
p149
(dp150
S'ADJ'
p151
F1.0
s(lp152
S'actual'
p153
atp154
a(S'pays'
p155
(dp156
S'NOUN'
p157
F1.0
s(lp158
S'country'
p159
atp160
a(S"d'"
p161
(dp162
S'NOUN'
p163
F0.032441
sS'VERB'
p164
F0.694014
sS'ADJ'
p165
F0.273544
s(lp166
S'of'
p167
atp168
a(S'origine'
p169
(dp170
S'VERB'
p171
F0.042293
sS'NOUN'
p172
F0.957707
s(lp173
S'origin'
p174
atp175
a(S'du'
p176
(dp177
S'ADP'
p178
F1.0
s(lp179
S'the'
p180
atp181
a(S'produit'
p182
(dp183
S'VERB'
p184
F0.003833
sS'NOUN'
p185
F0.996167
s(lp186
S'product'
p187
atp188
a(g19
(dp189
g19
F1.0
s(lp190
g19
atp191
asS'en'
p192
(lp193
(g8
(dp194
S'ADV'
p195
F0.003448
sS'PRT'
p196
F0.0
sS'ADP'
p197
F0.996552
s(lp198
g8
atp199
a(g15
(dp200
S'NOUN'
p201
F0.371866
sS'ADJ'
p202
F0.628134
s(lp203
g15
atp204
a(g17
(dp205
g19
F1.0
s(lp206
g17
atp207
a(g28
(dp208
S'NOUN'
p209
F3e-05
sS'DET'
p210
F0.99997
s(lp211
g28
atp212
a(g34
(dp213
S'NOUN'
p214
F1.0
s(lp215
g34
atp216
a(g40
(dp217
S'VERB'
p218
F0.9998560000000001
sS'NOUN'
p219
F0.000144
s(lp220
g40
atp221
a(g48
(dp222
S'NOUN'
p223
F0.0
sS'DET'
p224
F1.0
s(lp225
g48
atp226
a(g56
(dp227
S'ADV'
p228
F0.004326
sS'ADJ'
p229
F0.995674
s(lp230
g56
atp231
a(g63
(dp232
S'VERB'
p233
F5.3e-05
sS'NOUN'
p234
F0.999947
s(lp235
g63
atp236
a(g17
(dp237
g19
F1.0
s(lp238
g17
atp239
a(g80
(dp240
S'ADV'
p241
F0.116216
sS'ADP'
p242
F0.883784
s(lp243
g80
atp244
a(g87
(dp245
S'NOUN'
p246
F3e-06
sS'DET'
p247
F0.999997
s(lp248
g87
atp249
a(g94
(dp250
S'ADV'
p251
F0.739531
sS'ADJ'
p252
F0.260469
s(lp253
g94
atp254
a(g101
(dp255
S'ADJ'
p256
F1.0
s(lp257
g101
atp258
a(g108
(dp259
S'ADP'
p260
F1.0
s(lp261
g108
atp262
a(S'the'
p263
(dp264
S'NOUN'
p265
F4.3e-05
sS'DET'
p266
F0.999957
s(lp267
g263
atp268
a(g115
(dp269
S'NUM'
p270
F0.995993
sS'NOUN'
p271
F0.004007
s(lp272
g115
atp273
a(g122
(dp274
S'VERB'
p275
F1.0
s(lp276
g122
atp277
a(g128
(dp278
S'ADV'
p279
F1.0
s(lp280
g128
atp281
a(g134
(dp282
S'ADV'
p283
F1e-06
sS'PRT'
p284
F0.999999
sS'ADP'
p285
F1e-06
s(lp286
g134
atp287
a(g140
(dp288
S'VERB'
p289
F0.956545
sS'NOUN'
p290
F0.043454
s(lp291
g140
atp292
a(g180
(dp293
S'NOUN'
p294
F1e-06
sS'DET'
p295
F0.999999
s(lp296
g180
atp297
a(g187
(dp298
S'NOUN'
p299
F1.0
s(lp300
g187
atp301
a(g147
(dp302
S'PRT'
p303
F0.978585
sg19
F0.021415
s(lp304
g147
atp305
a(g153
(dp306
S'ADJ'
p307
F1.0
s(lp308
g153
atp309
a(g159
(dp310
S'NOUN'
p311
F1.0
s(lp312
g159
atp313
a(g167
(dp314
S'ADP'
p315
F1.0
s(lp316
g167
atp317
a(g174
(dp318
S'NOUN'
p319
F1.0
s(lp320
g174
atp321
a(g19
(dp322
g19
F1.0
s(lp323
g19
atp324
asS'nl'
p325
(lp326
(S'over'
p327
(dp328
S'ADV'
p329
F0.046869
sS'ADP'
p330
F0.953131
s(lp331
g8
atp332
a(S'het'
p333
(dp334
S'PRON'
p335
F0.00277
sS'DET'
p336
F0.99723
s(lp337
tp338
a(S'algemeen'
p339
(dp340
S'ADJ'
p341
F0.355677
sS'NOUN'
p342
F0.644323
s(lp343
g15
atp344
a(S'streven'
p345
(dp346
S'VERB'
p347
F0.977798
sS'NOUN'
p348
F0.022202
s(lp349
g17
atp350
a(S'de'
p351
(dp352
S'DET'
p353
F1.0
s(lp354
g28
atp355
a(S'stelsels'
p356
(dp357
S'NOUN'
p358
F1.0
s(lp359
g34
atp360
a(S'een'
p361
(dp362
S'ADJ'
p363
F1.2e-05
sS'PRON'
p364
F0.001551
sS'NUM'
p365
F4e-06
sS'DET'
p366
F0.998433
s(lp367
g48
atp368
a(S'tweeledig'
p369
(dp370
S'ADJ'
p371
F1.0
s(lp372
g56
atp373
a(S'doel'
p374
(dp375
S'VERB'
p376
F0.000584
sS'NOUN'
p377
F0.999416
s(lp378
g63
atp379
a(S'na'
p380
(dp381
S'ADV'
p382
F0.419057
sS'CONJ'
p383
F0.000998
sS'ADP'
p384
F0.579945
s(lp385
tp386
a(g17
(dp387
g19
F1.0
s(lp388
g17
atp389
a(S'waarvan'
p390
(dp391
S'ADV'
p392
F1.0
s(lp393
g80
atp394
a(S'het'
p395
(dp396
S'PRON'
p397
F0.881168
sS'DET'
p398
F0.118832
s(lp399
g87
atp400
a(S'kennen'
p401
(dp402
S'VERB'
p403
F0.878274
sS'NOUN'
p404
F0.121725
s(lp405
g56
atp406
a(S'van'
p407
(dp408
S'ADP'
p409
F1.0
s(lp410
g108
atp411
a(S'de'
p412
(dp413
S'DET'
p414
F1.0
s(lp415
tp416
a(S'daadwerkelijke'
p417
(dp418
S'NOUN'
p419
F0.000388
sS'ADJ'
p420
F0.999612
s(lp421
g153
atp422
a(S'herkomst'
p423
(dp424
S'NOUN'
p425
F1.0
s(lp426
g174
atp427
a(S'van'
p428
(dp429
S'ADP'
p430
F1.0
s(lp431
g147
atp432
a(S'het'
p433
(dp434
S'PRON'
p435
F0.000927
sS'DET'
p436
F0.999073
s(lp437
g180
atp438
a(S'product'
p439
(dp440
S'NOUN'
p441
F1.0
s(lp442
g187
atp443
a(S'ongetwijfeld'
p444
(dp445
S'ADV'
p446
F1.0
s(lp447
tp448
a(S'het'
p449
(dp450
S'PRON'
p451
F0.007692
sS'DET'
p452
F0.992309
s(lp453
g263
atp454
a(S'belangrijkste'
p455
(dp456
S'NOUN'
p457
F0.315543
sS'ADJ'
p458
F0.684457
s(lp459
g128
atp460
a(S'is'
p461
(dp462
S'VERB'
p463
F1.0
s(lp464
g122
atp465
a(g19
(dp466
g19
F1.0
s(lp467
g19
atp468
asS'de'
p469
(lp470
(S'im'
p471
(dp472
S'ADP'
p473
F1.0
s(lp474
g8
atp475
a(S'allgemeinen'
p476
(dp477
S'ADJ'
p478
F1.0
s(lp479
g15
atp480
a(S'dienen'
p481
(dp482
S'VERB'
p483
F1.0
s(lp484
g40
atp485
a(S'die'
p486
(dp487
S'PRON'
p488
F0.003865
sS'DET'
p489
F0.996114
s(lp490
g28
atp491
a(S'systeme'
p492
(dp493
S'ADJ'
p494
F0.329228
sS'NOUN'
p495
F0.634412
s(lp496
g34
atp497
a(S'zwei'
p498
(dp499
S'NUM'
p500
F1.0
s(lp501
g56
atp502
a(S'zielen'
p503
(dp504
S'VERB'
p505
F1.0
s(lp506
tp507
a(g17
(dp508
g19
F1.0
s(lp509
g17
atp510
a(S'wobei'
p511
(dp512
S'PRON'
p513
F1.0
s(lp514
g80
atp515
a(S'das'
p516
(dp517
S'PRON'
p518
F0.059225
sS'DET'
p519
F0.93964
s(lp520
g87
atp521
a(S'wichtigere'
p522
(dp523
S'ADJ'
p524
F1.0
s(lp525
g101
atp526
a(S'ziel'
p527
(dp528
S'VERB'
p529
F1.0
s(lp530
g63
atp531
a(S'zweifellos'
p532
(dp533
S'ADJ'
p534
F1.0
s(lp535
g128
atp536
a(S'ist'
p537
(dp538
S'VERB'
p539
F1.0
s(lp540
g122
atp541
a(g17
(dp542
g19
F1.0
s(lp543
g134
atp544
a(S'das'
p545
(dp546
S'PRON'
p547
F0.122918
sS'DET'
p548
F0.776458
s(lp549
g180
atp550
a(S'tats\xc3\xa4chliche'
p551
(dp552
S'ADJ'
p553
F1.0
s(lp554
g153
atp555
a(S'herkunftsland'
p556
(dp557
S'NOUN'
p558
F0.999939
s(lp559
g174
atp560
a(S'des'
p561
(dp562
S'DET'
p563
F1.0
s(lp564
g147
atp565
a(S'erzeugnisses'
p566
(dp567
S'ADJ'
p568
F0.001475
sS'NOUN'
p569
F0.998382
s(lp570
tp571
a(S'anzugeben'
p572
(dp573
S'VERB'
p574
F0.998458
sS'ADJ'
p575
F0.001542
s(lp576
g187
atp577
a(g19
(dp578
g19
F1.0
s(lp579
g19
atp580
asS'it'
p581
(lp582
(S'in'
p583
(dp584
S'ADP'
p585
F1.0
s(lp586
g8
atp587
a(S'generale'
p588
(dp589
S'NOUN'
p590
F0.062962
sS'VERB'
p591
F0.002825
sS'ADJ'
p592
F0.934213
s(lp593
g15
atp594
a(S'i'
p595
(dp596
S'DET'
p597
F1.0
s(lp598
g28
atp599
a(S'sistemi'
p600
(dp601
S'VERB'
p602
F5.4e-05
sS'NOUN'
p603
F0.999946
s(lp604
g34
atp605
a(S'perseguono'
p606
(dp607
S'VERB'
p608
F1.0
s(lp609
g40
atp610
a(S'una'
p611
(dp612
S'PRON'
p613
F3e-05
sS'DEF'
p614
F0.99997
s(lp615
g48
atp616
a(S'duplice'
p617
(dp618
S'ADJ'
p619
F1.0
s(lp620
g56
atp621
a(S'finalit\xc3\xa0'
p622
(dp623
S'NOUN'
p624
F1.0
s(lp625
g63
atp626
a(g17
(dp627
g19
F1.0
s(lp628
g17
atp629
a(S'e'
p630
(dp631
S'CONJ'
p632
F1.0
s(lp633
g17
atp634
a(S'la'
p635
(dp636
S'PRON'
p637
F0.070167
sS'DET'
p638
F0.929833
s(lp639
g87
atp640
a(S'pi\xc3\xb9'
p641
(dp642
S'ADV'
p643
F0.965694
sS'NOUN'
p644
F0.00599
sS'ADJ'
p645
F0.028314
sS'ADP'
p646
F2e-06
s(lp647
g94
atp648
a(S'importante'
p649
(dp650
S'NOUN'
p651
F0.011348
sS'VERB'
p652
F0.000382
sS'ADJ'
p653
F0.98827
s(lp654
g101
atp655
a(S'\xc3\xa8'
p656
(dp657
S'VERB'
p658
F1.0
s(lp659
g122
atp660
a(S'sicuramente'
p661
(dp662
S'ADV'
p663
F1.0
s(lp664
g128
atp665
a(S'quella'
p666
(dp667
S'PRON'
p668
F1.0
s(lp669
g180
atp670
a(S'di'
p671
(dp672
S'CONJ'
p673
F1e-06
sS'ADP'
p674
F0.999999
s(lp675
g167
atp676
a(S'conoscere'
p677
(dp678
S'VERB'
p679
F1.0
s(lp680
tp681
a(S"l'"
p682
(dp683
S'NOUN'
p684
F0.012178
sS'VERB'
p685
F0.890187
sS'ADJ'
p686
F0.097635
s(lp687
g263
atp688
a(S'effettiva'
p689
(dp690
S'ADJ'
p691
F1.0
s(lp692
g153
atp693
a(S'provenienza'
p694
(dp695
S'NOUN'
p696
F1.0
s(lp697
g174
atp698
a(S'del'
p699
(dp700
S'DEF'
p701
F0.001235
sS'ADP'
p702
F0.998765
s(lp703
g147
atp704
a(S'prodotto'
p705
(dp706
S'VERB'
p707
F0.015851
sS'NOUN'
p708
F0.984149
s(lp709
g187
atp710
a(g19
(dp711
g19
F1.0
s(lp712
g19
atp713
asS'sk'
p714
(lp715
(S'vo'
p716
(dp717
S'ADP'
p718
F1.0
s(lp719
g8
atp720
a(S'v\xc5\xa1eobecnosti'
p721
(dp722
S'NOUN'
p723
F1.0
s(lp724
g15
atp725
a(S'maj\xc3\xba'
p726
(dp727
S'VERB'
p728
F1.0
s(lp729
g56
atp730
a(S'tieto'
p731
(dp732
S'PRON'
p733
F1.0
s(lp734
g28
atp735
a(S'syst\xc3\xa9my'
p736
(dp737
S'NOUN'
p738
F1.0
s(lp739
g34
atp740
a(S'dvojak\xc3\xbd'
p741
(dp742
S'NUM'
p743
F1.0
s(lp744
g56
atp745
a(S'\xc3\xba\xc4\x8del'
p746
(dp747
S'NOUN'
p748
F1.0
s(lp749
g63
atp750
a(g17
(dp751
g19
F1.0
s(lp752
g17
atp753
a(S'hoci'
p754
(dp755
S'X'
p756
F0.056513
sS'CONJ'
p757
F0.943487
s(lp758
g80
atp759
a(S'd\xc3\xb4le\xc5\xbeitej\xc5\xa1\xc3\xadm'
p760
(dp761
S'ADJ'
p762
F1.0
s(lp763
g101
atp764
a(S'z'
p765
(dp766
g756
F6.4e-05
sS'NOUN'
p767
F0.00020700000000000002
sS'ADP'
p768
F0.999729
s(lp769
g108
atp770
a(S'nich'
p771
(dp772
S'PRON'
p773
F1.0
s(lp774
g115
atp775
a(S'je'
p776
(dp777
S'PRON'
p778
F2.2e-05
sS'VERB'
p779
F0.999974
sg756
F4e-06
s(lp780
g122
atp781
a(S'nepochybne'
p782
(dp783
S'ADV'
p784
F0.064103
sg756
F0.935897
s(lp785
g128
atp786
a(S'ten'
p787
(dp788
S'PRON'
p789
F1.0
s(lp790
g56
atp791
a(g17
(dp792
g19
F1.0
s(lp793
tp794
a(S'ktor\xc3\xbd'
p795
(dp796
S'PRON'
p797
F1.0
s(lp798
g134
atp799
a(S'stanovuje'
p800
(dp801
S'VERB'
p802
F1.0
s(lp803
tp804
a(S'povinnos\xc5\xa5'
p805
(dp806
S'NOUN'
p807
F1.0
s(lp808
g56
atp809
a(S'uv\xc3\xa1dza\xc5\xa5'
p810
(dp811
S'VERB'
p812
F1.0
s(lp813
g140
atp814
a(S'na'
p815
(dp816
g756
F6.3e-05
sS'CONJ'
p817
F6e-06
sS'ADP'
p818
F0.999928
sS'PRT'
p819
F3e-06
s(lp820
g180
atp821
a(S'v\xc3\xbdrobku'
p822
(dp823
S'NOUN'
p824
F1.0
s(lp825
g187
atp826
a(S'skuto\xc4\x8dn\xc3\xba'
p827
(dp828
S'ADJ'
p829
F1.0
s(lp830
g153
atp831
a(S'krajinu'
p832
(dp833
S'NOUN'
p834
F1.0
s(lp835
g159
atp836
a(S'p\xc3\xb4vodu'
p837
(dp838
S'NOUN'
p839
F1.0
s(lp840
g174
atp841
a(g19
(dp842
g19
F1.0
s(lp843
g19
atp844
asS'pl'
p845
(lp846
(S'zasadniczo'
p847
(dp848
S'ADV'
p849
F1.0
s(lp850
g15
atp851
a(S'te'
p852
(dp853
g756
F1.5e-05
sS'ADJ'
p854
F0.9999789999999998
sS'NOUN'
p855
F6e-06
s(lp856
g28
atp857
a(S'systemy'
p858
(dp859
S'NOUN'
p860
F1.0
s(lp861
g34
atp862
a(S's\xc5\x82u\xc5\xbc\xc4\x85'
p863
(dp864
S'VERB'
p865
F1.0
s(lp866
g40
atp867
a(S'dw\xc3\xb3m'
p868
(dp869
S'NUM'
p870
F1.0
s(lp871
g56
atp872
a(S'celom'
p873
(dp874
S'ADV'
p875
F2e-06
sS'ADJ'
p876
F1e-05
sS'VERB'
p877
F7.199999999999997e-05
sS'NOUN'
p878
F0.9999089999999999
s(lp879
g56
atp880
a(g17
(dp881
g756
F0.0
sg19
F1.0
s(lp882
g17
atp883
a(S'chocia\xc5\xbc'
p884
(dp885
S'PRT'
p886
F0.038312
sS'CONJ'
p887
F0.961688
s(lp888
g80
atp889
a(S'niew\xc4\x85tpliwie'
p890
(dp891
S'ADV'
p892
F1.0
s(lp893
g128
atp894
a(S'wa\xc5\xbcniejszym'
p895
(dp896
S'ADJ'
p897
F1.0
s(lp898
g56
atp899
a(g765
(dp900
S'PRT'
p901
F3e-06
sS'VERB'
p902
F0.0
sS'NOUN'
p903
F0.0
sS'ADP'
p904
F0.999997
sg756
F0.0
s(lp905
g108
atp906
a(S'nich'
p907
(dp908
S'PRON'
p909
F0.9999990000000001
s(lp910
tp911
a(S'jest'
p912
(dp913
S'VERB'
p914
F1.0
s(lp915
g122
atp916
a(S'okre\xc5\x9blenie'
p917
(dp918
S'VERB'
p919
F0.904298
sS'NOUN'
p920
F0.095702
s(lp921
g56
atp922
a(S'faktycznego'
p923
(dp924
S'ADJ'
p925
F1.0
s(lp926
g153
atp927
a(S'kraju'
p928
(dp929
S'NOUN'
p930
F1.0
s(lp931
g159
atp932
a(S'pochodzenia'
p933
(dp934
S'NOUN'
p935
F1.0
s(lp936
g174
atp937
a(S'produktu'
p938
(dp939
S'NOUN'
p940
F1.0
s(lp941
g187
atp942
a(g19
(dp943
g19
F1.0
s(lp944
g19
atp945
asS'sl'
p946
(lp947
(S'na'
p948
(dp949
S'ADP'
p950
F1.0
s(lp951
g8
atp952
a(S'splo\xc5\xa1no'
p953
(dp954
S'ADV'
p955
F0.246014
sS'ADJ'
p956
F0.7539869999999999
s(lp957
g15
atp958
a(S'imata'
p959
(dp960
S'VERB'
p961
F1.0
s(lp962
g56
atp963
a(S'sistema'
p964
(dp965
S'NOUN'
p966
F1.0
s(lp967
g34
atp968
a(S'dvojni'
p969
(dp970
S'NUM'
p971
F1.0
s(lp972
tp973
a(S'namen'
p974
(dp975
S'NOUN'
p976
F1.0
s(lp977
g63
atp978
a(g17
(dp979
g19
F1.0
s(lp980
g17
atp981
a(S'\xc4\x8deprav'
p982
(dp983
S'CONJ'
p984
F1.0
s(lp985
g80
atp986
a(S'je'
p987
(dp988
S'PRON'
p989
F0.010412
sS'VERB'
p990
F0.989585
sg756
F2e-06
s(lp991
g87
atp992
a(S'pomembnej\xc5\xa1i'
p993
(dp994
S'ADJ'
p995
F1.0000010000000001
s(lp996
g101
atp997
a(S'med'
p998
(dp999
S'NOUN'
p1000
F0.00064
sS'ADP'
p1001
F0.99936
s(lp1002
g108
atp1003
a(S'njima'
p1004
(dp1005
S'PRON'
p1006
F0.999999
s(lp1007
g115
atp1008
a(S'gotovo'
p1009
(dp1010
S'ADV'
p1011
F0.986952
sS'ADJ'
p1012
F0.013048
s(lp1013
g128
atp1014
a(S'navedba'
p1015
(dp1016
S'NOUN'
p1017
F1.0
s(lp1018
g56
atp1019
a(S'dejanske'
p1020
(dp1021
S'ADJ'
p1022
F1.0
s(lp1023
g153
atp1024
a(S'dr\xc5\xbeave'
p1025
(dp1026
S'NOUN'
p1027
F0.9999990000000001
s(lp1028
g159
atp1029
a(S'porekla'
p1030
(dp1031
S'NOUN'
p1032
F1.0
s(lp1033
g174
atp1034
a(S'izdelka'
p1035
(dp1036
S'NOUN'
p1037
F1.0
s(lp1038
g187
atp1039
a(g19
(dp1040
g19
F1.0
s(lp1041
g19
atp1042
asS'es'
p1043
(lp1044
(S'estos'
p1045
(dp1046
S'PRON'
p1047
F1.0
s(lp1048
g28
atp1049
a(S'sistemas'
p1050
(dp1051
S'NOUN'
p1052
F1.0
s(lp1053
g34
atp1054
a(S'tienen'
p1055
(dp1056
S'VERB'
p1057
F1.0
s(lp1058
g40
atp1059
a(S'en'
p1060
(dp1061
S'ADV'
p1062
F1.0
s(lp1063
g8
atp1064
a(S'general'
p1065
(dp1066
S'ADV'
p1067
F1.0
s(lp1068
g15
atp1069
a(S'un'
p1070
(dp1071
g756
F0.0
sS'DET'
p1072
F1.0
s(lp1073
g48
atp1074
a(S'doble'
p1075
(dp1076
S'NOUN'
p1077
F0.015108
sS'ADJ'
p1078
F0.984892
s(lp1079
g56
atp1080
a(S'prop\xc3\xb3sito'
p1081
(dp1082
S'NOUN'
p1083
F1.0
s(lp1084
g63
atp1085
a(g17
(dp1086
g19
F1.0
s(lp1087
g17
atp1088
a(S'aunque'
p1089
(dp1090
S'CONJ'
p1091
F1.0
s(lp1092
g80
atp1093
a(S'el'
p1094
(dp1095
S'PRON'
p1096
F0.01977
sS'DET'
p1097
F0.98023
s(lp1098
g87
atp1099
a(S'm\xc3\xa1s'
p1100
(dp1101
S'ADV'
p1102
F0.999993
sS'CONJ'
p1103
F7e-06
s(lp1104
g94
atp1105
a(S'importante'
p1106
(dp1107
S'VERB'
p1108
F0.415888
sS'ADJ'
p1109
F0.584112
s(lp1110
g101
atp1111
a(S'de'
p1112
(dp1113
g756
F0.0
sS'CONJ'
p1114
F3.9e-05
sS'ADP'
p1115
F0.999961
s(lp1116
g108
atp1117
a(S'ellos'
p1118
(dp1119
S'PRON'
p1120
F1.0
s(lp1121
g115
atp1122
a(S'es'
p1123
(dp1124
S'VERB'
p1125
F1.0
s(lp1126
g122
atp1127
a(S'indicar'
p1128
(dp1129
S'VERB'
p1130
F1.0
s(lp1131
g140
atp1132
a(S'el'
p1133
(dp1134
S'PRON'
p1135
F0.0
sS'DET'
p1136
F1.0
s(lp1137
g263
atp1138
a(S'pa\xc3\xads'
p1139
(dp1140
S'NOUN'
p1141
F1.0
s(lp1142
g159
atp1143
a(S'de'
p1144
(dp1145
g756
F2.9e-05
sS'CONJ'
p1146
F0.000449
sS'ADP'
p1147
F0.999522
s(lp1148
g167
atp1149
a(S'origen'
p1150
(dp1151
S'NOUN'
p1152
F1.0
s(lp1153
g174
atp1154
a(S'del'
p1155
(dp1156
S'ADP'
p1157
F1.0
s(lp1158
g180
atp1159
a(S'producto'
p1160
(dp1161
S'NOUN'
p1162
F1.0
s(lp1163
g187
atp1164
a(g19
(dp1165
g19
F1.0
s(lp1166
g19
atp1167
as.