(dp0
S'fr'
p1
(lp2
(S'le'
p3
(dp4
S'PRON'
p5
F0.000439
sS'DET'
p6
F0.999561
s(lp7
S'the'
p8
atp9
a(S'message'
p10
(dp11
S'NOUN'
p12
F1.0
s(lp13
S'message'
p14
atp15
a(S'des'
p16
(dp17
S'DET'
p18
F3.2e-05
sS'ADP'
p19
F0.999968
s(lp20
S'the'
p21
atp22
a(S'scientifiques'
p23
(dp24
S'ADJ'
p25
F1.0
s(lp26
S'scientists'
p27
atp28
a(S'sur'
p29
(dp30
S'ADP'
p31
F1.0
s(lp32
S'about'
p33
atp34
a(S"l'"
p35
(dp36
S'ADJ'
p37
F0.160704
sS'VERB'
p38
F0.06480800000000002
sS'NOUN'
p39
F0.774488
s(lp40
S'the'
p41
atp42
a(S'\xc3\xa9volution'
p43
(dp44
S'NOUN'
p45
F1.0
s(lp46
S'advance'
p47
atp48
a(S'du'
p49
(dp50
S'ADP'
p51
F1.0
s(lp52
S'of'
p53
atp54
a(S'changement'
p55
(dp56
S'NOUN'
p57
F1.0
s(lp58
S'change'
p59
atp60
a(S'climatique'
p61
(dp62
S'ADJ'
p63
F1.0
s(lp64
tp65
a(S'et'
p66
(dp67
S'CONJ'
p68
F1.0
s(lp69
S'and'
p70
atp71
a(S'sur'
p72
(dp73
S'ADP'
p74
F1.0
s(lp75
S'climate'
p76
atp77
a(S"l'"
p78
(dp79
S'ADJ'
p80
F0.160704
sS'VERB'
p81
F0.06480800000000002
sS'NOUN'
p82
F0.774488
s(lp83
S'the'
p84
atp85
a(S'urgence'
p86
(dp87
S'NOUN'
p88
F1.0
s(lp89
S'urgent'
p90
atp91
a(S'de'
p92
(dp93
S'ADP'
p94
F1.0
s(lp95
S'to'
p96
atp97
a(S'r\xc3\xa9duire'
p98
(dp99
S'VERB'
p100
F1.0
s(lp101
S'cut'
p102
atp103
a(S'les'
p104
(dp105
S'PRON'
p106
F0.001042
sS'DET'
p107
F0.998937
sS'ADP'
p108
F2.1e-05
s(lp109
tp110
a(S'\xc3\xa9missions'
p111
(dp112
S'VERB'
p113
F0.001012
sS'NOUN'
p114
F0.998988
s(lp115
S'emissions'
p116
atp117
a(S'est'
p118
(dp119
S'VERB'
p120
F0.999865
sS'NOUN'
p121
F0.000135
s(lp122
S'is'
p123
atp124
a(S'plus'
p125
(dp126
S'ADV'
p127
F0.999916
sS'VERB'
p128
F8.4e-05
s(lp129
S'more'
p130
atp131
a(S'alarmant'
p132
(dp133
S'VERB'
p134
F0.070128
sS'ADJ'
p135
F0.929872
s(lp136
S'alarming'
p137
atp138
a(S'que'
p139
(dp140
S'ADV'
p141
F0.02431
sS'PRON'
p142
F0.046237
sS'CONJ'
p143
F0.929453
s(lp144
tp145
a(S'jamais'
p146
(dp147
S'ADV'
p148
F1.0
s(lp149
S'ever'
p150
atp151
a(S'.'
p152
(dp153
g152
F1.0
s(lp154
g152
atp155
asS'en'
p156
(lp157
(g8
(dp158
S'NOUN'
p159
F5e-06
sS'DET'
p160
F0.999995
s(lp161
g8
atp162
a(g14
(dp163
S'NOUN'
p164
F1.0
s(lp165
g14
atp166
a(g21
(dp167
S'NOUN'
p168
F2.5e-05
sS'DET'
p169
F0.999975
s(lp170
g21
atp171
a(g27
(dp172
S'NOUN'
p173
F1.0
s(lp174
g27
atp175
a(S'are'
p176
(dp177
S'VERB'
p178
F1.0
sS'NOUN'
p179
F0.0
s(lp180
g176
atp181
a(S'sending'
p182
(dp183
S'VERB'
p184
F1.0
s(lp185
g182
atp186
a(S'out'
p187
(dp188
S'ADV'
p189
F0.035652
sS'NOUN'
p190
F0.000267
sS'ADP'
p191
F0.027261
sS'PRT'
p192
F0.936672
sS'VERB'
p193
F2e-06
sS'ADJ'
p194
F0.000147
s(lp195
g187
atp196
a(g33
(dp197
S'ADV'
p198
F0.150345
sS'ADP'
p199
F0.849655
s(lp200
g33
atp201
a(g41
(dp202
S'NOUN'
p203
F1e-06
sS'DET'
p204
F0.999999
s(lp205
g41
atp206
a(g47
(dp207
S'ADJ'
p208
F0.016712
sS'VERB'
p209
F0.0005020000000000001
sS'NOUN'
p210
F0.982786
s(lp211
g47
atp212
a(g53
(dp213
S'ADP'
p214
F1.0
s(lp215
g53
atp216
a(g76
(dp217
S'NOUN'
p218
F1.0
s(lp219
g76
atp220
a(g59
(dp221
S'VERB'
p222
F0.010436
sS'NOUN'
p223
F0.989564
s(lp224
g59
atp225
a(g70
(dp226
S'CONJ'
p227
F1.0
sS'NOUN'
p228
F0.0
s(lp229
g70
atp230
a(g84
(dp231
S'NOUN'
p232
F1e-06
sS'DET'
p233
F0.999999
s(lp234
g84
atp235
a(g90
(dp236
S'ADJ'
p237
F1.0
s(lp238
g90
atp239
a(S'need'
p240
(dp241
S'VERB'
p242
F0.081078
sS'NOUN'
p243
F0.918922
s(lp244
g240
atp245
a(g96
(dp246
S'ADV'
p247
F0.0
sS'PRT'
p248
F1.0
sS'ADP'
p249
F0.0
s(lp250
g96
atp251
a(g102
(dp252
S'ADJ'
p253
F0.002929
sS'VERB'
p254
F0.976087
sS'NOUN'
p255
F0.020984
s(lp256
g102
atp257
a(g116
(dp258
S'NOUN'
p259
F1.0
s(lp260
g116
atp261
a(g123
(dp262
S'VERB'
p263
F1.0
s(lp264
g123
atp265
a(S'becoming'
p266
(dp267
S'NOUN'
p268
F4e-06
sS'VERB'
p269
F0.999985
sS'ADJ'
p270
F1.2e-05
s(lp271
g266
atp272
a(S'an'
p273
(dp274
S'DET'
p275
F1.0
s(lp276
g273
atp277
a(g150
(dp278
S'ADV'
p279
F1.0
s(lp280
g150
atp281
a(g130
(dp282
S'ADV'
p283
F0.352659
sS'ADJ'
p284
F0.647341
s(lp285
g130
atp286
a(g137
(dp287
S'VERB'
p288
F0.496411
sS'ADJ'
p289
F0.503589
s(lp290
g137
atp291
a(S'one'
p292
(dp293
S'PRON'
p294
F0.092014
sS'NUM'
p295
F0.898213
sS'NOUN'
p296
F0.009774
s(lp297
g292
atp298
a(g152
(dp299
g152
F1.0
s(lp300
g152
atp301
asS'nl'
p302
(lp303
(S'de'
p304
(dp305
S'DET'
p306
F1.0
s(lp307
g8
atp308
a(S'boodschap'
p309
(dp310
S'NOUN'
p311
F1.0
s(lp312
tp313
a(S'die'
p314
(dp315
S'PRON'
p316
F1.0
s(lp317
g14
atp318
a(S'de'
p319
(dp320
S'DET'
p321
F1.0
s(lp322
g21
atp323
a(S'wetenschappers'
p324
(dp325
S'NOUN'
p326
F1.0
s(lp327
g27
atp328
a(S'uitzenden'
p329
(dp330
S'VERB'
p331
F0.549526
sS'NOUN'
p332
F0.450474
s(lp333
g182
atp334
a(S'over'
p335
(dp336
S'ADV'
p337
F0.035272
sS'ADP'
p338
F0.964728
s(lp339
g33
atp340
a(S'het'
p341
(dp342
S'PRON'
p343
F0.0009580000000000001
sS'DET'
p344
F0.999042
s(lp345
g41
atp346
a(S'tempo'
p347
(dp348
S'NOUN'
p349
F1.0
s(lp350
g47
atp351
a(S'van'
p352
(dp353
S'ADP'
p354
F1.0
s(lp355
g53
atp356
a(S'de'
p357
(dp358
S'DET'
p359
F1.0
s(lp360
g273
atp361
a(S'klimaatverandering'
p362
(dp363
S'NOUN'
p364
F1.0
s(lp365
g76
atp366
a(S'en'
p367
(dp368
S'CONJ'
p369
F1.0
s(lp370
g70
atp371
a(S'de'
p372
(dp373
S'DET'
p374
F1.0
s(lp375
g84
atp376
a(S'dringende'
p377
(dp378
S'NOUN'
p379
F6.4e-05
sS'VERB'
p380
F0.002027
sS'ADJ'
p381
F0.997908
s(lp382
g90
atp383
a(S'noodzaak'
p384
(dp385
S'VERB'
p386
F0.06586
sS'NOUN'
p387
F0.93414
s(lp388
g240
atp389
a(S'de'
p390
(dp391
S'DET'
p392
F1.0
s(lp393
tp394
a(S'emissies'
p395
(dp396
S'NOUN'
p397
F1.0
s(lp398
g116
atp399
a(S'terug'
p400
(dp401
S'ADV'
p402
F1.0
s(lp403
g102
atp404
a(S'te'
p405
(dp406
S'PRT'
p407
F1.0
s(lp408
g96
atp409
a(S'dringen'
p410
(dp411
S'VERB'
p412
F0.9999990000000001
sS'NOUN'
p413
F1e-06
s(lp414
tp415
a(S','
p416
(dp417
g152
F1.0
s(lp418
tp419
a(S'wordt'
p420
(dp421
S'VERB'
p422
F1.0
s(lp423
g102
atp424
a(S'steeds'
p425
(dp426
S'ADV'
p427
F1.0
s(lp428
g150
atp429
a(S'alarmerender'
p430
(dp431
S'ADJ'
p432
F0.103926
sS'NOUN'
p433
F0.896074
s(lp434
g137
atp435
a(g152
(dp436
g152
F1.0
s(lp437
g152
atp438
asS'de'
p439
(lp440
(S'die'
p441
(dp442
S'PRON'
p443
F0.003364
sS'DET'
p444
F0.995962
s(lp445
g8
atp446
a(S'botschaft'
p447
(dp448
S'ADJ'
p449
F0.011873
sS'NOUN'
p450
F0.975616
s(lp451
g14
atp452
a(S'der'
p453
(dp454
S'PRON'
p455
F6.4e-05
sS'DET'
p456
F0.999881
s(lp457
g21
atp458
a(S'wissenschaftler'
p459
(dp460
S'ADJ'
p461
F0.018717
sS'NOUN'
p462
F0.965384
s(lp463
g27
atp464
a(S'in'
p465
(dp466
S'ADP'
p467
F1.0
s(lp468
g187
atp469
a(S'bezug'
p470
(dp471
S'NOUN'
p472
F1.0
s(lp473
tp474
a(S'auf'
p475
(dp476
S'PRT'
p477
F0.004552
sS'ADP'
p478
F0.995416
s(lp479
g33
atp480
a(S'das'
p481
(dp482
S'PRON'
p483
F0.967204
sS'DET'
p484
F0.032287
s(lp485
g41
atp486
a(S'voranschreiten'
p487
(dp488
S'VERB'
p489
F1.0
s(lp490
g47
atp491
a(S'des'
p492
(dp493
S'DET'
p494
F1.0
s(lp495
g53
atp496
a(S'klimawandels'
p497
(dp498
S'X'
p499
F0.210982
sS'NOUN'
p500
F0.571092
s(lp501
g76
atp502
a(S'und'
p503
(dp504
S'CONJ'
p505
F1.0
s(lp506
g70
atp507
a(S'die'
p508
(dp509
S'PRON'
p510
F0.012419
sS'DET'
p511
F0.984637
s(lp512
g84
atp513
a(S'dringende'
p514
(dp515
S'ADJ'
p516
F1.0
s(lp517
g90
atp518
a(S'notwendigkeit'
p519
(dp520
S'ADJ'
p521
F0.002266
sS'NOUN'
p522
F0.99609
s(lp523
g240
atp524
a(S'zum'
p525
(dp526
S'ADP'
p527
F1.0
s(lp528
g96
atp529
a(S'abbau'
p530
(dp531
S'ADJ'
p532
F0.000102
sS'NOUN'
p533
F0.999865
s(lp534
g102
atp535
a(S'von'
p536
(dp537
S'NOUN'
p538
F0.001121
sS'ADP'
p539
F0.998879
s(lp540
tp541
a(S'emissionen'
p542
(dp543
S'ADJ'
p544
F0.093443
sS'NOUN'
p545
F0.869972
s(lp546
g116
atp547
a(S'wird'
p548
(dp549
S'VERB'
p550
F1.0
s(lp551
g266
atp552
a(S'immer'
p553
(dp554
S'ADV'
p555
F1.0
s(lp556
g150
atp557
a(S'alarmierender'
p558
(dp559
S'ADJ'
p560
F1.0
s(lp561
g137
atp562
a(g152
(dp563
g152
F1.0
s(lp564
g152
atp565
asS'it'
p566
(lp567
(S'quanto'
p568
(dp569
S'ADV'
p570
F0.762735
sS'PRON'
p571
F0.236383
sS'ADJ'
p572
F0.000791
sS'NOUN'
p573
F9.1e-05
s(lp574
g21
atp575
a(S'dicono'
p576
(dp577
S'VERB'
p578
F1.0
s(lp579
g27
atp580
a(S'gli'
p581
(dp582
S'PRON'
p583
F1e-06
sS'DET'
p584
F0.999999
s(lp585
tp586
a(S'scienziati'
p587
(dp588
S'NOUN'
p589
F1.0
s(lp590
g27
atp591
a(S"sull'"
p592
(dp593
S'ADJ'
p594
F0.040682
sS'VERB'
p595
F0.006560999999999999
sS'NOUN'
p596
F0.952757
s(lp597
g33
atp598
a(S'avanzamento'
p599
(dp600
S'NOUN'
p601
F1.0
s(lp602
g47
atp603
a(S'del'
p604
(dp605
S'DEF'
p606
F0.001248
sS'ADP'
p607
F0.998752
s(lp608
g53
atp609
a(S'cambiamento'
p610
(dp611
S'NOUN'
p612
F1.0
s(lp613
g59
atp614
a(S'climatico'
p615
(dp616
S'ADJ'
p617
F1.0
s(lp618
g76
atp619
a(S'e'
p620
(dp621
S'CONJ'
p622
F1.0
s(lp623
g70
atp624
a(S"sull'"
p625
(dp626
S'ADJ'
p627
F0.006467
sS'VERB'
p628
F0.11863800000000001
sS'NOUN'
p629
F0.874895
s(lp630
g84
atp631
a(S'urgente'
p632
(dp633
S'VERB'
p634
F0.10892
sS'ADJ'
p635
F0.89108
s(lp636
g90
atp637
a(S'necessit\xc3\xa0'
p638
(dp639
S'NOUN'
p640
F1.0
s(lp641
g240
atp642
a(S'di'
p643
(dp644
S'CONJ'
p645
F6e-06
sS'ADP'
p646
F0.999994
s(lp647
g96
atp648
a(S'tagliare'
p649
(dp650
S'VERB'
p651
F1.0
s(lp652
g102
atp653
a(S'le'
p654
(dp655
S'PRON'
p656
F0.0
sS'DET'
p657
F1.0
s(lp658
tp659
a(S'emissioni'
p660
(dp661
S'NOUN'
p662
F1.0
s(lp663
g116
atp664
a(S'ha'
p665
(dp666
S'VERB'
p667
F1.0
s(lp668
g123
atp669
a(S'toni'
p670
(dp671
S'VERB'
p672
F0.123094
sS'NOUN'
p673
F0.876906
s(lp674
g266
atp675
a(S'ancora'
p676
(dp677
S'ADV'
p678
F0.928902
sS'VERB'
p679
F0.070835
sS'NOUN'
p680
F0.000264
s(lp681
g150
atp682
a(S'pi\xc3\xb9'
p683
(dp684
S'ADV'
p685
F0.99667
sS'NOUN'
p686
F1.9e-05
sS'ADJ'
p687
F0.003042
sS'ADP'
p688
F0.000269
s(lp689
g130
atp690
a(S'allarmanti'
p691
(dp692
S'VERB'
p693
F0.012552
sS'ADJ'
p694
F0.987448
s(lp695
g137
atp696
a(g152
(dp697
g152
F1.0
s(lp698
g152
atp699
asS'sk'
p700
(lp701
(S'posolstvo'
p702
(dp703
S'NOUN'
p704
F1.0
s(lp705
g14
atp706
a(S'od'
p707
(dp708
g499
F0.00031
sS'ADP'
p709
F0.999691
s(lp710
g21
atp711
a(S'vedcov'
p712
(dp713
S'NOUN'
p714
F1.0
s(lp715
g27
atp716
a(S'o'
p717
(dp718
g499
F0.000223
sS'CONJ'
p719
F5.9e-05
sS'NOUN'
p720
F7e-06
sS'ADP'
p721
F0.99971
s(lp722
g33
atp723
a(S'postupe'
p724
(dp725
S'NOUN'
p726
F1.0
s(lp727
g47
atp728
a(S'klimatick\xc3\xbdch'
p729
(dp730
S'ADJ'
p731
F1.0
s(lp732
g76
atp733
a(S'zmien'
p734
(dp735
S'NOUN'
p736
F1.0
s(lp737
g59
atp738
a(S'a'
p739
(dp740
g499
F0.000461
sS'CONJ'
p741
F0.998971
sS'NOUN'
p742
F5.1e-05
sS'ADP'
p743
F0.000487
sS'PRT'
p744
F3.1e-05
s(lp745
g70
atp746
a(S'naliehavej'
p747
(dp748
S'ADJ'
p749
F1.0
s(lp750
g90
atp751
a(S'potrebe'
p752
(dp753
S'NOUN'
p754
F1.0
s(lp755
g240
atp756
a(S'zn\xc3\xad\xc5\xbei\xc5\xa5'
p757
(dp758
S'VERB'
p759
F1.0
s(lp760
g102
atp761
a(S'emisie'
p762
(dp763
S'NOUN'
p764
F1.0
s(lp765
g116
atp766
a(S'je'
p767
(dp768
g499
F0.039684000000000004
sS'VERB'
p769
F0.936108
sS'PRON'
p770
F0.024208
s(lp771
g123
atp772
a(S'st\xc3\xa1la'
p773
(dp774
S'VERB'
p775
F0.399847
sS'ADJ'
p776
F0.600154
s(lp777
g150
atp778
a(S'viac'
p779
(dp780
S'ADV'
p781
F0.335621
sg499
F0.036787
sS'CONJ'
p782
F0.037645
sS'NUM'
p783
F0.589947
s(lp784
g130
atp785
a(S'alarmuj\xc3\xbace'
p786
(dp787
S'ADJ'
p788
F0.219792
sS'VERB'
p789
F0.42995299999999986
sS'NOUN'
p790
F0.350254
s(lp791
g137
atp792
a(g152
(dp793
g152
F1.0
s(lp794
g152
atp795
asS'pl'
p796
(lp797
(S'komunikaty'
p798
(dp799
S'NOUN'
p800
F1.0
s(lp801
tp802
a(g416
(dp803
g499
F0.0
sg152
F1.0
s(lp804
tp805
a(S'jakie'
p806
(dp807
S'ADJ'
p808
F0.9999999999999999
s(lp809
g14
atp810
a(S'wysy\xc5\x82aj\xc4\x85'
p811
(dp812
S'VERB'
p813
F1.0
s(lp814
g182
atp815
a(S'naukowcy'
p816
(dp817
S'NOUN'
p818
F1.0
s(lp819
g27
atp820
a(S'na'
p821
(dp822
g499
F2.6e-05
sS'VERB'
p823
F0.0
sS'NOUN'
p824
F0.0
sS'ADP'
p825
F0.9999579999999999
sS'PRT'
p826
F1.5e-05
s(lp827
g187
atp828
a(S'temat'
p829
(dp830
S'NOUN'
p831
F1.0
s(lp832
g33
atp833
a(S'post\xc4\x99powania'
p834
(dp835
S'VERB'
p836
F0.82712
sS'NOUN'
p837
F0.17288
s(lp838
g47
atp839
a(S'zmian'
p840
(dp841
S'NOUN'
p842
F1.0
s(lp843
g59
atp844
a(S'klimatycznych'
p845
(dp846
S'ADJ'
p847
F1.0000010000000001
s(lp848
g76
atp849
a(S'i'
p850
(dp851
S'PRT'
p852
F0.005197
sS'CONJ'
p853
F0.994456
sS'NOUN'
p854
F7.2e-05
sg499
F9e-06
sS'PRON'
p855
F0.00026700000000000004
s(lp856
g70
atp857
a(S'pilnej'
p858
(dp859
S'ADJ'
p860
F1.0
s(lp861
g90
atp862
a(S'potrzeby'
p863
(dp864
S'NOUN'
p865
F1.0
s(lp866
g240
atp867
a(S'ograniczenia'
p868
(dp869
S'VERB'
p870
F0.894888
sS'NOUN'
p871
F0.10511200000000001
s(lp872
g102
atp873
a(S'emisji'
p874
(dp875
S'NOUN'
p876
F0.999999
s(lp877
g116
atp878
a(S's\xc4\x85'
p879
(dp880
S'VERB'
p881
F1.0
s(lp882
g123
atp883
a(S'coraz'
p884
(dp885
S'ADV'
p886
F1.0
s(lp887
g150
atp888
a(S'bardziej'
p889
(dp890
S'ADV'
p891
F1.0
s(lp892
g130
atp893
a(S'alarmuj\xc4\x85ce'
p894
(dp895
S'ADJ'
p896
F1.0
s(lp897
g137
atp898
a(g152
(dp899
g152
F1.0
s(lp900
g152
atp901
asS'sl'
p902
(lp903
(S'poro\xc4\x8dila'
p904
(dp905
S'VERB'
p906
F0.103172
sS'NOUN'
p907
F0.896828
s(lp908
g14
atp909
a(S'znanstvenikov'
p910
(dp911
S'NOUN'
p912
F1.0
s(lp913
g27
atp914
a(g717
(dp915
S'NOUN'
p916
F1e-06
sS'ADP'
p917
F0.999999
s(lp918
g33
atp919
a(S'napredovanju'
p920
(dp921
S'NOUN'
p922
F1.0
s(lp923
g47
atp924
a(S'podnebnih'
p925
(dp926
S'ADJ'
p927
F1.0
s(lp928
g76
atp929
a(S'sprememb'
p930
(dp931
S'NOUN'
p932
F1.0
s(lp933
g59
atp934
a(S'in'
p935
(dp936
S'ADV'
p937
F5.9e-05
sg499
F1.4e-05
sS'CONJ'
p938
F0.999896
sS'NOUN'
p939
F3.1e-05
s(lp940
g70
atp941
a(S'nujnosti'
p942
(dp943
S'NOUN'
p944
F1.0
s(lp945
g90
atp946
a(S'zmanj\xc5\xa1anja'
p947
(dp948
S'NOUN'
p949
F1.0
s(lp950
g102
atp951
a(S'emisij'
p952
(dp953
S'NOUN'
p954
F1.0
s(lp955
g116
atp956
a(S'postajajo'
p957
(dp958
S'VERB'
p959
F1.0
s(lp960
g266
atp961
a(S'vedno'
p962
(dp963
S'ADV'
p964
F1.0
s(lp965
g150
atp966
a(S'bolj'
p967
(dp968
S'ADV'
p969
F1.0
s(lp970
g130
atp971
a(S'zaskrbljujo\xc4\x8da'
p972
(dp973
S'ADV'
p974
F0.000565
sS'ADJ'
p975
F0.22482400000000005
sS'VERB'
p976
F0.146276
sS'NOUN'
p977
F0.6283360000000002
s(lp978
g137
atp979
a(g152
(dp980
g152
F1.0
s(lp981
g152
atp982
asS'es'
p983
(lp984
(S'el'
p985
(dp986
S'PRON'
p987
F1e-05
sS'DET'
p988
F0.99999
s(lp989
g8
atp990
a(S'mensaje'
p991
(dp992
S'NOUN'
p993
F1.0
s(lp994
g14
atp995
a(S'que'
p996
(dp997
g499
F0.0
sS'CONJ'
p998
F1.0
s(lp999
tp1000
a(S'los'
p1001
(dp1002
S'PRON'
p1003
F4.9e-05
sS'DET'
p1004
F0.999951
s(lp1005
g21
atp1006
a(S'cient\xc3\xadficos'
p1007
(dp1008
S'ADJ'
p1009
F1.0
s(lp1010
g27
atp1011
a(S'est\xc3\xa1n'
p1012
(dp1013
S'VERB'
p1014
F1.0
s(lp1015
g176
atp1016
a(S'enviando'
p1017
(dp1018
S'VERB'
p1019
F1.0
s(lp1020
g182
atp1021
a(S'sobre'
p1022
(dp1023
S'NOUN'
p1024
F0.0
sS'ADP'
p1025
F1.0
s(lp1026
g33
atp1027
a(S'el'
p1028
(dp1029
S'PRON'
p1030
F0.000111
sS'DET'
p1031
F0.999889
s(lp1032
g41
atp1033
a(S'avance'
p1034
(dp1035
S'VERB'
p1036
F0.000251
sS'NOUN'
p1037
F0.999749
s(lp1038
g47
atp1039
a(S'del'
p1040
(dp1041
S'ADP'
p1042
F1.0
s(lp1043
g53
atp1044
a(S'cambio'
p1045
(dp1046
S'NOUN'
p1047
F1.0
s(lp1048
g59
atp1049
a(S'clim\xc3\xa1tico'
p1050
(dp1051
S'ADJ'
p1052
F1.0
s(lp1053
g76
atp1054
a(S'y'
p1055
(dp1056
g499
F0.000117
sS'CONJ'
p1057
F0.999883
s(lp1058
g70
atp1059
a(S'la'
p1060
(dp1061
S'PRON'
p1062
F0.000591
sS'DET'
p1063
F0.999408
sS'NOUN'
p1064
F0.0
sg499
F0.0
s(lp1065
g84
atp1066
a(S'necesidad'
p1067
(dp1068
S'NOUN'
p1069
F1.0
s(lp1070
g240
atp1071
a(S'urgente'
p1072
(dp1073
S'ADJ'
p1074
F1.0
s(lp1075
g90
atp1076
a(S'de'
p1077
(dp1078
g499
F0.0
sS'CONJ'
p1079
F0.63617
sS'ADP'
p1080
F0.36383
s(lp1081
g96
atp1082
a(S'reducir'
p1083
(dp1084
S'VERB'
p1085
F1.0
s(lp1086
g102
atp1087
a(S'las'
p1088
(dp1089
S'PRON'
p1090
F2e-06
sS'DET'
p1091
F0.999998
s(lp1092
tp1093
a(S'emisiones'
p1094
(dp1095
S'NOUN'
p1096
F1.0
s(lp1097
g116
atp1098
a(S'es'
p1099
(dp1100
S'VERB'
p1101
F1.0
s(lp1102
g123
atp1103
a(S'cada'
p1104
(dp1105
S'ADJ'
p1106
F1.0
s(lp1107
tp1108
a(S'vez'
p1109
(dp1110
S'NOUN'
p1111
F1.0
s(lp1112
g150
atp1113
a(S'm\xc3\xa1s'
p1114
(dp1115
S'ADV'
p1116
F0.999993
sS'CONJ'
p1117
F7e-06
s(lp1118
g130
atp1119
a(S'alarmante'
p1120
(dp1121
S'ADJ'
p1122
F1.0
s(lp1123
g137
atp1124
a(g152
(dp1125
g152
F1.0
s(lp1126
g152
atp1127
as.