(dp0
S'fr'
p1
(lp2
(S'il'
p3
(dp4
S'PRON'
p5
F1.0
s(lp6
tp7
a(S'nous'
p8
(dp9
S'PRON'
p10
F1.0
s(lp11
S'we'
p12
atp13
a(S'faut'
p14
(dp15
S'VERB'
p16
F1.0
s(lp17
S'must'
p18
atp19
a(S'agir'
p20
(dp21
S'VERB'
p22
F1.0
s(lp23
S'action'
p24
atp25
a(S','
p26
(dp27
S'.'
p28
F1.0
s(lp29
g26
atp30
a(S'et'
p31
(dp32
S'CONJ'
p33
F1.0
s(lp34
tp35
a(S'pas'
p36
(dp37
S'ADV'
p38
F0.999536
sS'NOUN'
p39
F0.000464
s(lp40
S'not'
p41
atp42
a(S'seulement'
p43
(dp44
S'ADV'
p45
F1.0
s(lp46
S'merely'
p47
atp48
a(S'parler'
p49
(dp50
S'VERB'
p51
F0.912083
sS'NOUN'
p52
F0.087917
s(lp53
S'rhetoric'
p54
atp55
a(g28
(dp56
g28
F1.0
s(lp57
g28
atp58
asS'en'
p59
(lp60
(g12
(dp61
S'PRON'
p62
F1.0
s(lp63
g12
atp64
a(g18
(dp65
S'VERB'
p66
F1.0
sS'NOUN'
p67
F0.0
s(lp68
g18
atp69
a(S'take'
p70
(dp71
S'VERB'
p72
F0.999999
sS'NOUN'
p73
F1e-06
s(lp74
g70
atp75
a(g24
(dp76
S'NOUN'
p77
F1.0
s(lp78
g24
atp79
a(g26
(dp80
g28
F1.0
s(lp81
g26
atp82
a(g41
(dp83
S'ADV'
p84
F1.0
s(lp85
g41
atp86
a(g47
(dp87
S'ADV'
p88
F1.0
s(lp89
g47
atp90
a(S'indulge'
p91
(dp92
S'VERB'
p93
F1.0
s(lp94
g91
atp95
a(S'in'
p96
(dp97
S'ADV'
p98
F0.001036
sS'PRT'
p99
F0.0132
sS'ADP'
p100
F0.985763
s(lp101
g96
atp102
a(g54
(dp103
S'NOUN'
p104
F1.0
s(lp105
g54
atp106
a(g28
(dp107
g28
F1.0
s(lp108
g28
atp109
asS'nl'
p110
(lp111
(S'we'
p112
(dp113
S'PRON'
p114
F1.0
s(lp115
g12
atp116
a(S'moeten'
p117
(dp118
S'VERB'
p119
F0.999964
sS'NOUN'
p120
F3.6e-05
s(lp121
g18
atp122
a(S'actie'
p123
(dp124
S'NOUN'
p125
F1.0
s(lp126
tp127
a(S'ondernemen'
p128
(dp129
S'VERB'
p130
F0.995684
sS'NOUN'
p131
F0.004317
s(lp132
g24
atp133
a(S'in'
p134
(dp135
S'ADV'
p136
F0.001837
sS'VERB'
p137
F0.0
sS'ADP'
p138
F0.998163
s(lp139
g26
atp140
a(S'plaats'
p141
(dp142
S'VERB'
p143
F3e-06
sS'NOUN'
p144
F0.999997
s(lp145
g41
atp146
a(S'van'
p147
(dp148
S'ADP'
p149
F1.0
s(lp150
tp151
a(S'ons'
p152
(dp153
S'PRON'
p154
F0.9899060000000001
sS'NOUN'
p155
F0.010093
s(lp156
g91
atp157
a(S'te'
p158
(dp159
S'PRT'
p160
F1.0
s(lp161
tp162
a(S'verliezen'
p163
(dp164
S'VERB'
p165
F0.993061
sS'NOUN'
p166
F0.006939
s(lp167
g91
atp168
a(S'in'
p169
(dp170
S'ADV'
p171
F0.000263
sS'VERB'
p172
F0.0
sS'ADP'
p173
F0.999737
s(lp174
g96
atp175
a(S'retoriek'
p176
(dp177
S'NOUN'
p178
F1.0
s(lp179
g54
atp180
a(g28
(dp181
g28
F1.0
s(lp182
g28
atp183
asS'de'
p184
(lp185
(S'es'
p186
(dp187
S'PRON'
p188
F1.0
s(lp189
g12
atp190
a(S'sind'
p191
(dp192
S'VERB'
p193
F1.0
s(lp194
tp195
a(S'taten'
p196
(dp197
S'VERB'
p198
F1.0
s(lp199
g24
atp200
a(S'gefordert'
p201
(dp202
S'VERB'
p203
F0.498638
sS'ADJ'
p204
F0.501362
s(lp205
g18
atp206
a(g26
(dp207
g28
F1.0
s(lp208
g26
atp209
a(S'nicht'
p210
(dp211
S'PRT'
p212
F1.0
s(lp213
g41
atp214
a(S'nur'
p215
(dp216
S'ADV'
p217
F1.0
s(lp218
g47
atp219
a(S'reden'
p220
(dp221
S'VERB'
p222
F1.0
s(lp223
g54
atp224
a(g28
(dp225
g28
F1.0
s(lp226
g28
atp227
asS'it'
p228
(lp229
(S'dobbiamo'
p230
(dp231
S'VERB'
p232
F1.0
s(lp233
g18
atp234
a(S'agire'
p235
(dp236
S'VERB'
p237
F1.0
s(lp238
g24
atp239
a(g26
(dp240
g28
F1.0
s(lp241
g26
atp242
a(S'non'
p243
(dp244
S'ADV'
p245
F1.0
s(lp246
g41
atp247
a(S'indugiare'
p248
(dp249
S'VERB'
p250
F1.0
s(lp251
g91
atp252
a(S'nella'
p253
(dp254
S'ADP'
p255
F1.0
s(lp256
g96
atp257
a(S'retorica'
p258
(dp259
S'ADJ'
p260
F0.482731
sS'NOUN'
p261
F0.517269
s(lp262
g54
atp263
a(g28
(dp264
g28
F1.0
s(lp265
g28
atp266
asS'sk'
p267
(lp268
(S'mus\xc3\xadme'
p269
(dp270
S'VERB'
p271
F1.0
s(lp272
g18
atp273
a(S'kona\xc5\xa5'
p274
(dp275
S'VERB'
p276
F1.0
s(lp277
g24
atp278
a(g26
(dp279
g28
F1.0
s(lp280
g26
atp281
a(S'nie'
p282
(dp283
S'X'
p284
F1.0
s(lp285
g41
atp286
a(S'len'
p287
(dp288
g284
F0.997671
sS'CONJ'
p289
F0.002329
s(lp290
g47
atp291
a(S'rozpr\xc3\xa1va\xc5\xa5'
p292
(dp293
S'VERB'
p294
F1.0
s(lp295
g91
atp296
a(g28
(dp297
g28
F1.0
s(lp298
g28
atp299
asS'pl'
p300
(lp301
(S'musimy'
p302
(dp303
S'VERB'
p304
F1.0
s(lp305
g18
atp306
a(S'podj\xc4\x85\xc4\x87'
p307
(dp308
S'VERB'
p309
F1.0
s(lp310
g70
atp311
a(S'konkretne'
p312
(dp313
S'ADJ'
p314
F0.9999999999999999
s(lp315
tp316
a(S'dzia\xc5\x82ania'
p317
(dp318
S'VERB'
p319
F0.000155
sS'NOUN'
p320
F0.999845
s(lp321
g24
atp322
a(g26
(dp323
g284
F0.0
sg28
F1.0
s(lp324
tp325
a(S'a'
p326
(dp327
S'ADV'
p328
F0.000187
sS'NOUN'
p329
F0.002002
sS'ADP'
p330
F7.5e-05
sS'PRT'
p331
F0.004819
sS'VERB'
p332
F0.001124
sg284
F0.005703000000000001
sS'CONJ'
p333
F0.985982
sS'ADJ'
p334
F0.00010799999999999998
s(lp335
g26
atp336
a(S'nie'
p337
(dp338
S'ADV'
p339
F6.5e-05
sS'PRT'
p340
F0.98321
sS'CONJ'
p341
F0.016448
sS'NOUN'
p342
F2.2e-05
sS'PRON'
p343
F0.00025499999999999996
s(lp344
g41
atp345
a(S'tylko'
p346
(dp347
S'PRT'
p348
F0.888211
sS'CONJ'
p349
F0.111789
s(lp350
g47
atp351
a(S'ogranicza\xc4\x87'
p352
(dp353
S'VERB'
p354
F1.0
s(lp355
g91
atp356
a(S'si\xc4\x99'
p357
(dp358
S'PRT'
p359
F1.0
s(lp360
tp361
a(S'do'
p362
(dp363
g284
F0.0
sS'NOUN'
p364
F6e-06
sS'ADP'
p365
F0.9999939999999999
s(lp366
g96
atp367
a(S'retoryki'
p368
(dp369
S'ADJ'
p370
F0.0
sS'VERB'
p371
F0.0
sS'NOUN'
p372
F1.000001
s(lp373
g54
atp374
a(g28
(dp375
g28
F1.0
s(lp376
g28
atp377
asS'sl'
p378
(lp379
(S'potrebno'
p380
(dp381
S'ADV'
p382
F0.512772
sS'ADJ'
p383
F0.487228
s(lp384
g70
atp385
a(S'je'
p386
(dp387
S'PRON'
p388
F0.002217
sS'VERB'
p389
F0.997779
sg284
F4e-06
s(lp390
g18
atp391
a(S'ukrepanje'
p392
(dp393
S'NOUN'
p394
F1.0
s(lp395
g24
atp396
a(S'in'
p397
(dp398
S'ADV'
p399
F0.000141
sg284
F6e-06
sS'CONJ'
p400
F0.999838
sS'NOUN'
p401
F1.5e-05
s(lp402
g26
atp403
a(S'ne'
p404
(dp405
S'PRT'
p406
F0.993421
sS'CONJ'
p407
F0.006444
sg284
F0.000134
s(lp408
g41
atp409
a(S'le'
p410
(dp411
S'PRT'
p412
F0.999948
sg284
F5.2e-05
s(lp413
g47
atp414
a(S'besede'
p415
(dp416
S'NOUN'
p417
F0.999999
s(lp418
g54
atp419
a(g28
(dp420
g28
F1.0
s(lp421
g28
atp422
asS'es'
p423
(lp424
(S'debemos'
p425
(dp426
S'VERB'
p427
F1.0
s(lp428
g18
atp429
a(S'adoptar'
p430
(dp431
S'VERB'
p432
F1.0
s(lp433
g70
atp434
a(S'medidas'
p435
(dp436
S'VERB'
p437
F0.17797
sS'NOUN'
p438
F0.82203
s(lp439
g24
atp440
a(g26
(dp441
g28
F1.0
s(lp442
g26
atp443
a(S'no'
p444
(dp445
S'ADV'
p446
F0.999998
sg284
F2e-06
s(lp447
g41
atp448
a(S'limitarnos'
p449
(dp450
S'VERB'
p451
F1.0
s(lp452
g47
atp453
a(g326
(dp454
g284
F0.00026000000000000003
sS'CONJ'
p455
F5e-06
sS'ADP'
p456
F0.999735
s(lp457
g96
atp458
a(S'la'
p459
(dp460
S'NOUN'
p461
F2.2e-05
sS'PRON'
p462
F0.0
sS'DET'
p463
F0.999975
sg284
F3e-06
s(lp464
tp465
a(S'ret\xc3\xb3rica'
p466
(dp467
S'ADJ'
p468
F0.456388
sS'NOUN'
p469
F0.543612
s(lp470
g54
atp471
a(g28
(dp472
g28
F1.0
s(lp473
g28
atp474
as.