(dp0
S'fr'
p1
(lp2
(S'pour'
p3
(dp4
S'CONJ'
p5
F0.147666
sS'ADP'
p6
F0.852334
s(lp7
S'to'
p8
atp9
a(S'pallier'
p10
(dp11
S'VERB'
p12
F1.0
s(lp13
S'mitigate'
p14
atp15
a(S'le'
p16
(dp17
S'PRON'
p18
F3.4e-05
sS'DET'
p19
F0.999966
s(lp20
S'the'
p21
atp22
a(S'probl\xc3\xa8me'
p23
(dp24
S'NOUN'
p25
F1.0
s(lp26
S'problems'
p27
atp28
a(S','
p29
(dp30
S'.'
p31
F1.0
s(lp32
g29
atp33
a(S'il'
p34
(dp35
S'PRON'
p36
F1.0
s(lp37
tp38
a(S'faut'
p39
(dp40
S'VERB'
p41
F1.0
s(lp42
S'must'
p43
atp44
a(S'donc'
p45
(dp46
S'ADV'
p47
F1.0
s(lp48
S'therefore'
p49
atp50
a(S'que'
p51
(dp52
S'ADV'
p53
F0.022132
sS'PRON'
p54
F0.074811
sS'CONJ'
p55
F0.903056
s(lp56
tp57
a(S'le'
p58
(dp59
S'PRON'
p60
F0.661698
sS'DET'
p61
F0.338302
s(lp62
S'our'
p63
atp64
a(S'dire'
p65
(dp66
S'VERB'
p67
F0.712978
sS'NOUN'
p68
F0.287022
s(lp69
S'words'
p70
atp71
a(S'et'
p72
(dp73
S'CONJ'
p74
F1.0
s(lp75
S'with'
p76
atp77
a(S'le'
p78
(dp79
S'PRON'
p80
F0.925553
sS'DET'
p81
F0.074447
s(lp82
S'our'
p83
atp84
a(S'faire'
p85
(dp86
S'VERB'
p87
F1.0
s(lp88
S'be'
p89
atp90
a(S'soient'
p91
(dp92
S'VERB'
p93
F1.0
s(lp94
S'actions'
p95
atp96
a(S'en'
p97
(dp98
S'PRON'
p99
F0.012099
sS'ADP'
p100
F0.987901
s(lp101
S'in'
p102
atp103
a(S'harmonie'
p104
(dp105
S'VERB'
p106
F0.010889999999999999
sS'NOUN'
p107
F0.98911
s(lp108
S'harmony'
p109
atp110
a(g31
(dp111
g31
F1.0
s(lp112
g31
atp113
asS'en'
p114
(lp115
(g8
(dp116
S'ADV'
p117
F1e-06
sS'PRT'
p118
F0.999999
sS'ADP'
p119
F0.0
s(lp120
g8
atp121
a(g14
(dp122
S'VERB'
p123
F1.0
s(lp124
g14
atp125
a(g21
(dp126
S'NOUN'
p127
F5e-06
sS'DET'
p128
F0.999995
s(lp129
g21
atp130
a(g27
(dp131
S'NOUN'
p132
F1.0
s(lp133
g27
atp134
a(g29
(dp135
g31
F1.0
s(lp136
g29
atp137
a(g63
(dp138
S'PRON'
p139
F1.0
s(lp140
g63
atp141
a(g70
(dp142
S'VERB'
p143
F0.0
sS'NOUN'
p144
F1.0
s(lp145
g70
atp146
a(g43
(dp147
S'VERB'
p148
F1.0
sS'NOUN'
p149
F0.0
s(lp150
g43
atp151
a(g49
(dp152
S'ADV'
p153
F1.0
s(lp154
g49
atp155
a(g89
(dp156
S'VERB'
p157
F1.0
s(lp158
g89
atp159
a(g102
(dp160
S'ADV'
p161
F0.003142
sS'PRT'
p162
F0.001124
sS'ADP'
p163
F0.995734
s(lp164
g102
atp165
a(g109
(dp166
S'NOUN'
p167
F1.0
s(lp168
g109
atp169
a(g76
(dp170
S'ADP'
p171
F1.0
s(lp172
g76
atp173
a(g83
(dp174
S'PRON'
p175
F1.0
s(lp176
g83
atp177
a(g95
(dp178
S'NOUN'
p179
F1.0
s(lp180
g95
atp181
a(g31
(dp182
g31
F1.0
s(lp183
g31
atp184
asS'nl'
p185
(lp186
(S'als'
p187
(dp188
S'CONJ'
p189
F1.0
s(lp190
tp191
a(S'we'
p192
(dp193
S'PRON'
p194
F1.0
s(lp195
g14
atp196
a(S'deze'
p197
(dp198
S'PRON'
p199
F1.0
s(lp200
g21
atp201
a(S'problemen'
p202
(dp203
S'NOUN'
p204
F1.0
s(lp205
tp206
a(S'willen'
p207
(dp208
S'VERB'
p209
F0.999463
sS'NOUN'
p210
F0.000537
s(lp211
g8
atp212
a(S'aanpakken'
p213
(dp214
S'VERB'
p215
F0.998173
sS'NOUN'
p216
F0.001827
s(lp217
g27
atp218
a(g29
(dp219
g31
F1.0
s(lp220
g29
atp221
a(S'zullen'
p222
(dp223
S'VERB'
p224
F0.999998
sS'NOUN'
p225
F2e-06
s(lp226
tp227
a(S'onze'
p228
(dp229
S'PRON'
p230
F1.0
s(lp231
g63
atp232
a(S'woorden'
p233
(dp234
S'NOUN'
p235
F1.0
s(lp236
g70
atp237
a(S'in'
p238
(dp239
S'ADV'
p240
F0.001834
sS'VERB'
p241
F1e-06
sS'ADP'
p242
F0.998166
s(lp243
g102
atp244
a(S'harmonie'
p245
(dp246
S'NOUN'
p247
F1.0
s(lp248
g109
atp249
a(S'moeten'
p250
(dp251
S'VERB'
p252
F0.9999640000000001
sS'NOUN'
p253
F3.6e-05
s(lp254
g43
atp255
a(S'zijn'
p256
(dp257
S'PRON'
p258
F0.010315
sS'VERB'
p259
F0.989081
sS'NOUN'
p260
F0.000603
s(lp261
g89
atp262
a(S'met'
p263
(dp264
S'ADP'
p265
F1.0
s(lp266
g76
atp267
a(S'onze'
p268
(dp269
S'PRON'
p270
F1.0
s(lp271
g83
atp272
a(S'daden'
p273
(dp274
S'NOUN'
p275
F1.0
s(lp276
g95
atp277
a(g31
(dp278
g31
F1.0
s(lp279
g31
atp280
asS'de'
p281
(lp282
(S'die'
p283
(dp284
S'PRON'
p285
F0.001164
sS'DET'
p286
F0.998507
s(lp287
g8
atp288
a(S'bek\xc3\xa4mpfung'
p289
(dp290
S'ADJ'
p291
F9.3e-05
sS'NOUN'
p292
F0.99978
s(lp293
g14
atp294
a(S'der'
p295
(dp296
S'PRON'
p297
F7.7e-05
sS'DET'
p298
F0.999895
s(lp299
g21
atp300
a(S'probleme'
p301
(dp302
S'ADJ'
p303
F0.023502
sS'NOUN'
p304
F0.957609
s(lp305
g27
atp306
a(S'verlangt'
p307
(dp308
S'VERB'
p309
F0.999997
s(lp310
g43
atp311
a(S'also'
p312
(dp313
S'ADV'
p314
F1.0
s(lp315
g49
atp316
a(g29
(dp317
g31
F1.0
s(lp318
g29
atp319
a(S'dass'
p320
(dp321
S'CONJ'
p322
F1.0
s(lp323
tp324
a(S'unsere'
p325
(dp326
S'PRON'
p327
F1.0
s(lp328
g63
atp329
a(S'worte'
p330
(dp331
S'ADJ'
p332
F0.162474
sS'NOUN'
p333
F0.828381
s(lp334
g70
atp335
a(S'mit'
p336
(dp337
S'PRT'
p338
F0.000233
sS'ADP'
p339
F0.999767
s(lp340
g76
atp341
a(S'unseren'
p342
(dp343
S'PRON'
p344
F1.0
s(lp345
g83
atp346
a(S'taten'
p347
(dp348
S'VERB'
p349
F1.0
s(lp350
g95
atp351
a(S'in'
p352
(dp353
S'ADP'
p354
F1.0
s(lp355
g102
atp356
a(S'einklang'
p357
(dp358
S'VERB'
p359
F1.0
s(lp360
tp361
a(S'stehen'
p362
(dp363
S'VERB'
p364
F1.0
s(lp365
g109
atp366
a(g31
(dp367
g31
F1.0
s(lp368
g31
atp369
asS'it'
p370
(lp371
(S'per'
p372
(dp373
S'CONJ'
p374
F0.00889
sS'ADP'
p375
F0.99111
s(lp376
g8
atp377
a(S'ovviare'
p378
(dp379
S'VERB'
p380
F1.0
s(lp381
g14
atp382
a(S'ai'
p383
(dp384
S'NOUN'
p385
F6e-06
sS'ADP'
p386
F0.999994
s(lp387
g21
atp388
a(S'problemi'
p389
(dp390
S'NOUN'
p391
F1.0
s(lp392
g27
atp393
a(g29
(dp394
g31
F1.0
s(lp395
tp396
a(S'quindi'
p397
(dp398
S'ADV'
p399
F0.996527
sS'NOUN'
p400
F0.003473
s(lp401
g49
atp402
a(g29
(dp403
g31
F1.0
s(lp404
g29
atp405
a(S'le'
p406
(dp407
S'PRON'
p408
F3.9e-05
sS'DET'
p409
F0.999961
s(lp410
tp411
a(S'nostre'
p412
(dp413
S'PRON'
p414
F1.0
s(lp415
g63
atp416
a(S'parole'
p417
(dp418
S'NOUN'
p419
F1.0
s(lp420
g70
atp421
a(S'devono'
p422
(dp423
S'VERB'
p424
F1.0
s(lp425
g43
atp426
a(S'essere'
p427
(dp428
S'VERB'
p429
F0.999842
sS'NOUN'
p430
F0.000158
s(lp431
g89
atp432
a(S'in'
p433
(dp434
S'ADP'
p435
F1.0
s(lp436
g102
atp437
a(S'armonia'
p438
(dp439
S'NOUN'
p440
F1.0
s(lp441
g109
atp442
a(S'con'
p443
(dp444
S'ADP'
p445
F1.0
s(lp446
g76
atp447
a(S'le'
p448
(dp449
S'PRON'
p450
F1.1e-05
sS'DET'
p451
F0.999989
s(lp452
tp453
a(S'nostre'
p454
(dp455
S'PRON'
p456
F1.0
s(lp457
g83
atp458
a(S'azioni'
p459
(dp460
S'VERB'
p461
F1e-05
sS'NOUN'
p462
F0.999989
s(lp463
g95
atp464
a(g31
(dp465
g31
F1.0
s(lp466
g31
atp467
asS'sk'
p468
(lp469
(S'preto'
p470
(dp471
S'PRON'
p472
F0.983819
sS'CONJ'
p473
F0.004678
sS'X'
p474
F0.011503
s(lp475
g49
atp476
a(g29
(dp477
g31
F1.0
s(lp478
tp479
a(S'aby'
p480
(dp481
g474
F6.699999999999999e-05
sS'CONJ'
p482
F0.999934
s(lp483
tp484
a(S'sme'
p485
(dp486
g474
F0.0
sS'VERB'
p487
F1.0
s(lp488
g8
atp489
a(S'tieto'
p490
(dp491
S'PRON'
p492
F1.0
s(lp493
g21
atp494
a(S'probl\xc3\xa9my'
p495
(dp496
g474
F2e-06
sS'NOUN'
p497
F0.999998
s(lp498
g27
atp499
a(S'zmiernili'
p500
(dp501
S'VERB'
p502
F1.0
s(lp503
g14
atp504
a(g29
(dp505
g31
F1.0
s(lp506
g29
atp507
a(S'musia'
p508
(dp509
S'VERB'
p510
F1.0
s(lp511
g43
atp512
a(S'by\xc5\xa5'
p513
(dp514
S'VERB'
p515
F1.0
s(lp516
g89
atp517
a(S'na\xc5\xa1e'
p518
(dp519
S'PRON'
p520
F0.999984
sg474
F1.6e-05
s(lp521
g63
atp522
a(S'slov\xc3\xa1'
p523
(dp524
S'NOUN'
p525
F1.0
s(lp526
g70
atp527
a(S'v'
p528
(dp529
g474
F0.000112
sS'ADP'
p530
F0.999888
s(lp531
g102
atp532
a(S'zhode'
p533
(dp534
S'NOUN'
p535
F1.0
s(lp536
g109
atp537
a(S's'
p538
(dp539
g474
F0.00042699999999999997
sS'CONJ'
p540
F0.000174
sS'NOUN'
p541
F9e-06
sS'ADP'
p542
F0.999278
sS'PRT'
p543
F0.000112
s(lp544
g76
atp545
a(S'na\xc5\xa1imi'
p546
(dp547
S'PRON'
p548
F0.99991
sS'NOUN'
p549
F9e-05
s(lp550
g83
atp551
a(S'\xc4\x8dinmi'
p552
(dp553
S'NOUN'
p554
F1.0
s(lp555
g95
atp556
a(g31
(dp557
g31
F1.0
s(lp558
g31
atp559
asS'pl'
p560
(lp561
(S'aby\xc5\x9bmy'
p562
(dp563
S'ADV'
p564
F0.01464
sS'ADJ'
p565
F0.003704
sS'VERB'
p566
F0.22568799999999997
sS'NOUN'
p567
F0.7559710000000001
s(lp568
g8
atp569
a(S'mogli'
p570
(dp571
S'VERB'
p572
F1.0
s(lp573
tp574
a(S'z\xc5\x82agodzi\xc4\x87'
p575
(dp576
S'VERB'
p577
F1.0
s(lp578
g14
atp579
a(S'problemy'
p580
(dp581
S'NOUN'
p582
F1.0
s(lp583
g27
atp584
a(g29
(dp585
g474
F0.0
sg31
F1.0
s(lp586
g29
atp587
a(S'musimy'
p588
(dp589
S'VERB'
p590
F1.0
s(lp591
g43
atp592
a(S'przeku\xc4\x87'
p593
(dp594
S'VERB'
p595
F0.9968509999999999
sS'NOUN'
p596
F0.003148
s(lp597
g109
atp598
a(S'nasze'
p599
(dp600
g474
F1e-06
sS'ADJ'
p601
F1.000001
s(lp602
g63
atp603
a(S's\xc5\x82owa'
p604
(dp605
S'NOUN'
p606
F1.0
s(lp607
g70
atp608
a(S'w'
p609
(dp610
S'ADJ'
p611
F1e-06
sg474
F1.4999999999999999e-05
sS'NOUN'
p612
F2e-06
sS'ADP'
p613
F0.999982
s(lp614
g76
atp615
a(S'czyny'
p616
(dp617
S'NOUN'
p618
F1.0
s(lp619
g95
atp620
a(g31
(dp621
g31
F1.0
s(lp622
g31
atp623
asS'sl'
p624
(lp625
(S'za'
p626
(dp627
S'ADV'
p628
F0.000106
sg474
F1.1e-05
sS'ADP'
p629
F0.999883
s(lp630
g8
atp631
a(S'omilitev'
p632
(dp633
S'NOUN'
p634
F1.0
s(lp635
g14
atp636
a(S'problemov'
p637
(dp638
S'NOUN'
p639
F1.0
s(lp640
g27
atp641
a(S'morajo'
p642
(dp643
S'VERB'
p644
F1.0
s(lp645
g43
atp646
a(S'na\xc5\xa1e'
p647
(dp648
S'PRON'
p649
F0.9999999999999999
s(lp650
g63
atp651
a(S'besede'
p652
(dp653
S'NOUN'
p654
F0.999999
s(lp655
g70
atp656
a(S'biti'
p657
(dp658
S'VERB'
p659
F0.691672
sS'NOUN'
p660
F0.308328
s(lp661
g89
atp662
a(g528
(dp663
S'ADP'
p664
F1.0
s(lp665
g102
atp666
a(S'skladu'
p667
(dp668
S'NOUN'
p669
F1.0
s(lp670
g109
atp671
a(S'z'
p672
(dp673
S'ADP'
p674
F1.0
s(lp675
g76
atp676
a(S'na\xc5\xa1imi'
p677
(dp678
S'PRON'
p679
F1.000001
s(lp680
g83
atp681
a(S'dejanji'
p682
(dp683
S'NOUN'
p684
F1.0
s(lp685
g95
atp686
a(g31
(dp687
g31
F1.0
s(lp688
g31
atp689
asS'es'
p690
(lp691
(S'por'
p692
(dp693
S'ADP'
p694
F1.0
s(lp695
g49
atp696
a(S'ello'
p697
(dp698
S'PRON'
p699
F1.0
s(lp700
tp701
a(g29
(dp702
g31
F1.0
s(lp703
g49
atp704
a(S'para'
p705
(dp706
S'CONJ'
p707
F0.98704
sS'ADP'
p708
F0.01296
s(lp709
g8
atp710
a(S'mitigar'
p711
(dp712
S'VERB'
p713
F1.0
s(lp714
g14
atp715
a(S'los'
p716
(dp717
S'PRON'
p718
F3e-06
sS'DET'
p719
F0.999997
s(lp720
g21
atp721
a(S'problemas'
p722
(dp723
S'NOUN'
p724
F1.0
s(lp725
g27
atp726
a(g29
(dp727
g31
F1.0
s(lp728
g29
atp729
a(S'nuestras'
p730
(dp731
S'PRON'
p732
F1.0
s(lp733
g63
atp734
a(S'palabras'
p735
(dp736
S'NOUN'
p737
F1.0
s(lp738
g70
atp739
a(S'deben'
p740
(dp741
S'VERB'
p742
F1.0
s(lp743
g43
atp744
a(S'estar'
p745
(dp746
S'VERB'
p747
F1.0
s(lp748
g89
atp749
a(S'en'
p750
(dp751
g474
F0.000117
sS'CONJ'
p752
F2e-06
sS'ADP'
p753
F0.999881
s(lp754
g102
atp755
a(S'armon\xc3\xada'
p756
(dp757
S'NOUN'
p758
F1.0
s(lp759
g109
atp760
a(S'con'
p761
(dp762
S'ADP'
p763
F1.0
s(lp764
g76
atp765
a(S'nuestras'
p766
(dp767
S'PRON'
p768
F1.0
s(lp769
g83
atp770
a(S'acciones'
p771
(dp772
S'NOUN'
p773
F1.0
s(lp774
g95
atp775
a(g31
(dp776
g31
F1.0
s(lp777
g31
atp778
as.