(dp0
S'fr'
p1
(lp2
(S'pour'
p3
(dp4
S'CONJ'
p5
F0.820737
sS'ADP'
p6
F0.179263
s(lp7
S'order'
p8
atp9
a(S'que'
p10
(dp11
S'ADV'
p12
F0.003708
sS'PRON'
p13
F0.479122
sS'CONJ'
p14
F0.517169
s(lp15
tp16
a(S'nous'
p17
(dp18
S'PRON'
p19
F1.0
s(lp20
S'to'
p21
atp22
a(S'soyons'
p23
(dp24
S'VERB'
p25
F1.0
s(lp26
S'be'
p27
atp28
a(S'responsables'
p29
(dp30
S'ADJ'
p31
F1.0
s(lp32
S'accountable'
p33
atp34
a(S'de'
p35
(dp36
S'ADP'
p37
F1.0
s(lp38
S'for'
p39
atp40
a(S'nos'
p41
(dp42
S'PRON'
p43
F1.0
s(lp44
S'our'
p45
atp46
a(S'engagements'
p47
(dp48
S'NOUN'
p49
F1.0
s(lp50
S'pledges'
p51
atp52
a(S','
p53
(dp54
S'.'
p55
F1.0
s(lp56
g53
atp57
a(S'il'
p58
(dp59
S'PRON'
p60
F1.0
s(lp61
tp62
a(S'nous'
p63
(dp64
S'PRON'
p65
F1.0
s(lp66
S'we'
p67
atp68
a(S'faut'
p69
(dp70
S'VERB'
p71
F1.0
s(lp72
S'need'
p73
atp74
a(S'hi\xc3\xa9rarchiser'
p75
(dp76
S'VERB'
p77
F1.0
s(lp78
tp79
a(S'nos'
p80
(dp81
S'PRON'
p82
F1.0
s(lp83
tp84
a(S'engagements'
p85
(dp86
S'NOUN'
p87
F1.0
s(lp88
S'commitments'
p89
atp90
a(S'au'
p91
(dp92
S'ADP'
p93
F1.0
s(lp94
S'a'
p95
atp96
a(S'plan'
p97
(dp98
S'ADJ'
p99
F0.00973
sS'NOUN'
p100
F0.99027
s(lp101
S'pecking'
p102
atp103
a(S'mondial'
p104
(dp105
S'ADJ'
p106
F1.0
s(lp107
S'global'
p108
atp109
a(g53
(dp110
g55
F1.0
s(lp111
g53
atp112
a(S'mais'
p113
(dp114
S'CONJ'
p115
F1.0
s(lp116
S'but'
p117
atp118
a(S'nous'
p119
(dp120
S'PRON'
p121
F1.0
s(lp122
S'we'
p123
atp124
a(S'devons'
p125
(dp126
S'VERB'
p127
F0.999928
sS'NOUN'
p128
F7.2e-05
s(lp129
S'have'
p130
atp131
a(S'\xc3\xa9galement'
p132
(dp133
S'ADV'
p134
F1.0
s(lp135
S'also'
p136
atp137
a(S'd\xc3\xa9velopper'
p138
(dp139
S'VERB'
p140
F1.0
s(lp141
S'develop'
p142
atp143
a(S'des'
p144
(dp145
S'DET'
p146
F0.000198
sS'ADP'
p147
F0.999802
s(lp148
S'of'
p149
atp150
a(S'm\xc3\xa9canismes'
p151
(dp152
S'NOUN'
p153
F1.0
s(lp154
S'mechanisms'
p155
atp156
a(S'de'
p157
(dp158
S'ADP'
p159
F1.0
s(lp160
tp161
a(S'surveillance'
p162
(dp163
S'NOUN'
p164
F1.0
s(lp165
S'monitoring'
p166
atp167
a(g53
(dp168
g55
F1.0
s(lp169
g53
atp170
a(S'des'
p171
(dp172
S'DET'
p173
F0.000358
sS'ADP'
p174
F0.999642
s(lp175
tp176
a(S'indicateurs'
p177
(dp178
S'ADJ'
p179
F0.458473
sS'NOUN'
p180
F0.541527
s(lp181
S'indicators'
p182
atp183
a(S'et'
p184
(dp185
S'CONJ'
p186
F1.0
s(lp187
S'and'
p188
atp189
a(S'des'
p190
(dp191
S'DET'
p192
F0.000606
sS'ADP'
p193
F0.999394
s(lp194
S'benchmarks'
p195
atp196
a(S'points'
p197
(dp198
S'VERB'
p199
F0.004899
sS'NOUN'
p200
F0.995101
s(lp201
tp202
a(S'de'
p203
(dp204
S'ADP'
p205
F1.0
s(lp206
tp207
a(S'r\xc3\xa9f\xc3\xa9rence'
p208
(dp209
S'VERB'
p210
F0.000955
sS'NOUN'
p211
F0.999044
s(lp212
g195
atp213
a(S'sp\xc3\xa9cifiques'
p214
(dp215
S'ADJ'
p216
F1.0
s(lp217
S'specific'
p218
atp219
a(S'qui'
p220
(dp221
S'PRON'
p222
F1.0
s(lp223
S'which'
p224
atp225
a(S'pourront'
p226
(dp227
S'VERB'
p228
F1.0
s(lp229
S'can'
p230
atp231
a(S'\xc3\xaatre'
p232
(dp233
S'VERB'
p234
F0.997202
sS'NOUN'
p235
F0.002798
s(lp236
S'be'
p237
atp238
a(S'utilis\xc3\xa9s'
p239
(dp240
S'VERB'
p241
F1.0
s(lp242
S'used'
p243
atp244
a(S'pour'
p245
(dp246
S'CONJ'
p247
F0.020078
sS'ADP'
p248
F0.979922
s(lp249
S'to'
p250
atp251
a(S'mesurer'
p252
(dp253
S'VERB'
p254
F1.0
s(lp255
S'outcomes'
p256
atp257
a(S'les'
p258
(dp259
S'PRON'
p260
F3.1e-05
sS'DET'
p261
F0.999948
sS'ADP'
p262
F2.1e-05
s(lp263
S'the'
p264
atp265
a(S'r\xc3\xa9sultats'
p266
(dp267
S'NOUN'
p268
F1.0
s(lp269
tp270
a(S'et'
p271
(dp272
S'CONJ'
p273
F1.0
s(lp274
S'and'
p275
atp276
a(S'les'
p277
(dp278
S'PRON'
p279
F0.000497
sS'DET'
p280
F0.99949
sS'ADP'
p281
F1.3e-05
s(lp282
g256
atp283
a(S'effets'
p284
(dp285
S'NOUN'
p286
F1.0
s(lp287
S'impacts'
p288
atp289
a(S'des'
p290
(dp291
S'DET'
p292
F2.1e-05
sS'ADP'
p293
F0.999979
s(lp294
S'of'
p295
atp296
a(S'investissements'
p297
(dp298
S'NOUN'
p299
F1.0
s(lp300
S'investments'
p301
atp302
a(g55
(dp303
g55
F1.0
s(lp304
g55
atp305
asS'en'
p306
(lp307
(S'in'
p308
(dp309
S'ADV'
p310
F0.001045
sS'PRT'
p311
F0.0
sS'ADP'
p312
F0.998955
s(lp313
g308
atp314
a(g8
(dp315
S'VERB'
p316
F0.0008770000000000001
sS'NOUN'
p317
F0.999122
s(lp318
g8
atp319
a(g21
(dp320
S'ADV'
p321
F0.0
sS'PRT'
p322
F1.0
sS'ADP'
p323
F0.0
s(lp324
g21
atp325
a(g27
(dp326
S'VERB'
p327
F1.0
s(lp328
g27
atp329
a(g33
(dp330
S'ADJ'
p331
F1.0
s(lp332
g33
atp333
a(g39
(dp334
S'ADP'
p335
F1.0
s(lp336
g39
atp337
a(g45
(dp338
S'PRON'
p339
F1.0
s(lp340
g45
atp341
a(g51
(dp342
S'VERB'
p343
F6.3e-05
sS'NOUN'
p344
F0.999937
s(lp345
g51
atp346
a(g53
(dp347
g55
F1.0
s(lp348
g53
atp349
a(g67
(dp350
S'PRON'
p351
F1.0
s(lp352
g67
atp353
a(g73
(dp354
S'VERB'
p355
F0.9999989999999999
sS'NOUN'
p356
F1e-06
s(lp357
g73
atp358
a(g95
(dp359
S'NOUN'
p360
F0.0
sS'DET'
p361
F1.0
s(lp362
g95
atp363
a(g108
(dp364
S'ADJ'
p365
F1.0
s(lp366
g108
atp367
a(g102
(dp368
S'VERB'
p369
F1.0
s(lp370
g102
atp371
a(S'system'
p372
(dp373
S'NOUN'
p374
F1.0
s(lp375
g372
atp376
a(g149
(dp377
S'ADP'
p378
F1.0
s(lp379
g149
atp380
a(g89
(dp381
S'NOUN'
p382
F1.0
s(lp383
g89
atp384
a(g53
(dp385
g55
F1.0
s(lp386
g53
atp387
a(g117
(dp388
S'ADV'
p389
F0.017059
sS'CONJ'
p390
F0.98294
sS'NOUN'
p391
F1e-06
s(lp392
g117
atp393
a(g123
(dp394
S'PRON'
p395
F1.0
s(lp396
g123
atp397
a(g136
(dp398
S'ADV'
p399
F1.0
s(lp400
g136
atp401
a(g130
(dp402
S'VERB'
p403
F1.0
s(lp404
g130
atp405
a(S'to'
p406
(dp407
S'ADV'
p408
F0.0
sS'PRT'
p409
F1.0
sS'ADP'
p410
F0.0
s(lp411
g406
atp412
a(g142
(dp413
S'VERB'
p414
F1.0
s(lp415
g142
atp416
a(g166
(dp417
S'VERB'
p418
F0.528349
sS'NOUN'
p419
F0.471651
s(lp420
g166
atp421
a(g155
(dp422
S'NOUN'
p423
F1.0
s(lp424
g155
atp425
a(g53
(dp426
g55
F1.0
s(lp427
g53
atp428
a(g218
(dp429
S'NOUN'
p430
F0.006616
sS'ADJ'
p431
F0.993384
s(lp432
g218
atp433
a(g182
(dp434
S'NOUN'
p435
F1.0
s(lp436
g182
atp437
a(g188
(dp438
S'CONJ'
p439
F0.999998
sS'NOUN'
p440
F2e-06
s(lp441
g188
atp442
a(g195
(dp443
S'NOUN'
p444
F1.0
s(lp445
g195
atp446
a(g224
(dp447
S'DET'
p448
F1.0
s(lp449
g224
atp450
a(g230
(dp451
S'VERB'
p452
F0.999999
sS'NOUN'
p453
F1e-06
s(lp454
g230
atp455
a(g237
(dp456
S'VERB'
p457
F1.0
s(lp458
g237
atp459
a(g243
(dp460
S'VERB'
p461
F0.999404
sS'ADJ'
p462
F0.000596
s(lp463
g243
atp464
a(g250
(dp465
S'ADV'
p466
F0.0
sS'PRT'
p467
F1.0
sS'ADP'
p468
F0.0
s(lp469
g250
atp470
a(S'report'
p471
(dp472
S'VERB'
p473
F0.947228
sS'NOUN'
p474
F0.052772
s(lp475
g471
atp476
a(S'on'
p477
(dp478
S'ADV'
p479
F0.003647
sS'PRT'
p480
F0.036844
sS'ADJ'
p481
F0.0
sS'ADP'
p482
F0.959509
sS'NOUN'
p483
F0.0
s(lp484
g477
atp485
a(g264
(dp486
S'NOUN'
p487
F1.1e-05
sS'DET'
p488
F0.999989
s(lp489
g264
atp490
a(g256
(dp491
S'NOUN'
p492
F1.0
s(lp493
g256
atp494
a(g275
(dp495
S'CONJ'
p496
F0.999998
sS'NOUN'
p497
F2e-06
s(lp498
g275
atp499
a(g288
(dp500
S'VERB'
p501
F0.032527
sS'NOUN'
p502
F0.967473
s(lp503
g288
atp504
a(g295
(dp505
S'ADP'
p506
F1.0
s(lp507
g295
atp508
a(g301
(dp509
S'NOUN'
p510
F1.0
s(lp511
g301
atp512
a(g55
(dp513
g55
F1.0
s(lp514
g55
atp515
asS'nl'
p516
(lp517
(S'om'
p518
(dp519
S'ADV'
p520
F0.000949
sS'CONJ'
p521
F0.822811
sS'ADP'
p522
F0.17624
s(lp523
g8
atp524
a(S'verantwoording'
p525
(dp526
S'NOUN'
p527
F1.0
s(lp528
g33
atp529
a(S'af'
p530
(dp531
S'ADV'
p532
F0.999985
sS'ADP'
p533
F1.5e-05
s(lp534
tp535
a(S'te'
p536
(dp537
S'PRT'
p538
F1.0
s(lp539
g21
atp540
a(S'kunnen'
p541
(dp542
S'VERB'
p543
F1.0
sS'NOUN'
p544
F0.0
s(lp545
g27
atp546
a(S'leggen'
p547
(dp548
S'VERB'
p549
F0.999926
sS'NOUN'
p550
F7.5e-05
s(lp551
g33
atp552
a(S'voor'
p553
(dp554
S'ADV'
p555
F0.000514
sS'CONJ'
p556
F3.2e-05
sS'NOUN'
p557
F0.0
sS'ADP'
p558
F0.999454
s(lp559
g39
atp560
a(S'onze'
p561
(dp562
S'PRON'
p563
F1.0
s(lp564
g45
atp565
a(S'beloften'
p566
(dp567
S'NOUN'
p568
F1.0
s(lp569
g51
atp570
a(g53
(dp571
g55
F1.0
s(lp572
g53
atp573
a(S'hebben'
p574
(dp575
S'VERB'
p576
F0.999999
sS'NOUN'
p577
F0.0
s(lp578
tp579
a(S'we'
p580
(dp581
S'PRON'
p582
F1.0
s(lp583
g67
atp584
a(S'een'
p585
(dp586
S'ADJ'
p587
F5e-06
sS'PRON'
p588
F0.000528
sS'NUM'
p589
F1e-06
sS'DET'
p590
F0.999466
s(lp591
g95
atp592
a(S'wereldwijd'
p593
(dp594
S'ADJ'
p595
F1.0
s(lp596
g108
atp597
a(S'traceersysteem'
p598
(dp599
S'NOUN'
p600
F1.0
s(lp601
g102
atp602
a(S'van'
p603
(dp604
S'ADP'
p605
F1.0
s(lp606
g149
atp607
a(S'toezeggingen'
p608
(dp609
S'NOUN'
p610
F1.0
s(lp611
g89
atp612
a(S'nodig'
p613
(dp614
S'VERB'
p615
F0.026671
sS'ADJ'
p616
F0.973329
s(lp617
g73
atp618
a(g53
(dp619
g55
F1.0
s(lp620
g53
atp621
a(S'maar'
p622
(dp623
S'ADV'
p624
F0.011705
sS'CONJ'
p625
F0.988295
sS'NOUN'
p626
F0.0
s(lp627
g117
atp628
a(S'we'
p629
(dp630
S'PRON'
p631
F1.0
s(lp632
g123
atp633
a(S'moeten'
p634
(dp635
S'VERB'
p636
F0.9999830000000001
sS'NOUN'
p637
F1.7e-05
s(lp638
g130
atp639
a(S'ook'
p640
(dp641
S'ADV'
p642
F1.0
s(lp643
g136
atp644
a(S'controlesystemen'
p645
(dp646
S'NOUN'
p647
F1.0
s(lp648
g166
atp649
a(g53
(dp650
g55
F1.0
s(lp651
g53
atp652
a(S'specifieke'
p653
(dp654
S'NOUN'
p655
F1e-06
sS'ADJ'
p656
F0.999999
s(lp657
g218
atp658
a(S'indicatoren'
p659
(dp660
S'NOUN'
p661
F1.0
s(lp662
g182
atp663
a(S'en'
p664
(dp665
S'CONJ'
p666
F1.0
s(lp667
g188
atp668
a(S'criteria'
p669
(dp670
S'NOUN'
p671
F1.0
s(lp672
g195
atp673
a(S'ontwikkelen'
p674
(dp675
S'VERB'
p676
F0.994583
sS'NOUN'
p677
F0.005417
s(lp678
g142
atp679
a(g53
(dp680
g55
F1.0
s(lp681
tp682
a(S'die'
p683
(dp684
S'PRON'
p685
F0.999999
s(lp686
g224
atp687
a(S'gebruikt'
p688
(dp689
S'VERB'
p690
F1.0
s(lp691
g243
atp692
a(S'kunnen'
p693
(dp694
S'VERB'
p695
F0.999824
sS'NOUN'
p696
F0.000176
s(lp697
g230
atp698
a(S'worden'
p699
(dp700
S'VERB'
p701
F0.999999
sS'NOUN'
p702
F1e-06
s(lp703
g237
atp704
a(S'om'
p705
(dp706
S'ADV'
p707
F9.8e-05
sS'CONJ'
p708
F0.791693
sS'ADP'
p709
F0.208209
s(lp710
tp711
a(S'verslag'
p712
(dp713
S'NOUN'
p714
F1.0
s(lp715
g471
atp716
a(S'te'
p717
(dp718
S'PRT'
p719
F1.0
s(lp720
g250
atp721
a(S'doen'
p722
(dp723
S'VERB'
p724
F1.0
sS'NOUN'
p725
F0.0
s(lp726
tp727
a(S'van'
p728
(dp729
S'ADP'
p730
F1.0
s(lp731
g477
atp732
a(S'de'
p733
(dp734
S'DET'
p735
F1.0
s(lp736
g264
atp737
a(S'resultaten'
p738
(dp739
S'NOUN'
p740
F1.0
s(lp741
g256
atp742
a(S'en'
p743
(dp744
S'CONJ'
p745
F1.0
s(lp746
g275
atp747
a(S'effecten'
p748
(dp749
S'NOUN'
p750
F1.0
s(lp751
g288
atp752
a(S'van'
p753
(dp754
S'ADP'
p755
F1.0
s(lp756
g295
atp757
a(S'de'
p758
(dp759
S'DET'
p760
F1.0
s(lp761
tp762
a(S'investeringen'
p763
(dp764
S'NOUN'
p765
F1.0
s(lp766
g301
atp767
a(g55
(dp768
g55
F1.0
s(lp769
g55
atp770
asS'de'
p771
(lp772
(S'um'
p773
(dp774
S'CONJ'
p775
F0.087741
sS'ADP'
p776
F0.912002
s(lp777
g8
atp778
a(S'die'
p779
(dp780
S'PRON'
p781
F0.000123
sS'DET'
p782
F0.999786
s(lp783
g21
atp784
a(S'verantwortung'
p785
(dp786
S'ADJ'
p787
F0.000133
sS'NOUN'
p788
F0.999753
s(lp789
tp790
a(S'f\xc3\xbcr'
p791
(dp792
S'ADP'
p793
F1.0
s(lp794
g39
atp795
a(S'unsere'
p796
(dp797
S'PRON'
p798
F1.0
s(lp799
g45
atp800
a(S'zusagen'
p801
(dp802
S'VERB'
p803
F1.0
s(lp804
g51
atp805
a(S'zu'
p806
(dp807
S'PRT'
p808
F0.9999840000000001
s(lp809
tp810
a(S'tragen'
p811
(dp812
S'VERB'
p813
F1.0
s(lp814
g33
atp815
a(g53
(dp816
g55
F1.0
s(lp817
g53
atp818
a(S'ben\xc3\xb6tigen'
p819
(dp820
S'VERB'
p821
F1.0
s(lp822
g73
atp823
a(S'wir'
p824
(dp825
S'PRON'
p826
F1.0
s(lp827
g67
atp828
a(S'eine'
p829
(dp830
S'PRON'
p831
F0.000279
sS'DET'
p832
F0.999624
s(lp833
g95
atp834
a(S'globale'
p835
(dp836
S'ADJ'
p837
F1.0
s(lp838
g108
atp839
a(g53
(dp840
g55
F1.0
s(lp841
tp842
a(S'hierarchische'
p843
(dp844
S'ADJ'
p845
F1.0
s(lp846
g102
atp847
a(S'auflistung'
p848
(dp849
S'VERB'
p850
F0.011343
sS'NOUN'
p851
F0.988439
s(lp852
tp853
a(S'der'
p854
(dp855
S'PRON'
p856
F2.4e-05
sS'DET'
p857
F0.999968
s(lp858
g149
atp859
a(S'verpflichtungen'
p860
(dp861
S'ADJ'
p862
F0.001273
sS'NOUN'
p863
F0.998512
s(lp864
g89
atp865
a(g53
(dp866
g55
F1.0
s(lp867
g53
atp868
a(S'aber'
p869
(dp870
S'ADV'
p871
F0.03871
sS'CONJ'
p872
F0.96129
s(lp873
g117
atp874
a(S'wir'
p875
(dp876
S'PRON'
p877
F1.0
s(lp878
g123
atp879
a(S'm\xc3\xbcssen'
p880
(dp881
S'VERB'
p882
F0.999434
s(lp883
g130
atp884
a(S'auch'
p885
(dp886
S'ADV'
p887
F1.0
s(lp888
g136
atp889
a(S'die'
p890
(dp891
S'PRON'
p892
F0.001519
sS'DET'
p893
F0.998467
s(lp894
g166
atp895
a(S'kontrollmechanismen'
p896
(dp897
S'ADJ'
p898
F0.127416
sS'NOUN'
p899
F0.827481
s(lp900
g155
atp901
a(g53
(dp902
g55
F1.0
s(lp903
g53
atp904
a(S'spezielle'
p905
(dp906
S'ADJ'
p907
F1.0
s(lp908
g218
atp909
a(S'indikatoren'
p910
(dp911
S'ADJ'
p912
F0.0003
sS'NOUN'
p913
F0.999677
s(lp914
g182
atp915
a(S'und'
p916
(dp917
S'CONJ'
p918
F1.0
s(lp919
g188
atp920
a(S'richtwerte'
p921
(dp922
S'ADJ'
p923
F0.033378
sS'NOUN'
p924
F0.965668
s(lp925
g195
atp926
a(S'weiterentwickeln'
p927
(dp928
S'VERB'
p929
F1.0
s(lp930
g142
atp931
a(g53
(dp932
g55
F1.0
s(lp933
g406
atp934
a(S'die'
p935
(dp936
S'PRON'
p937
F0.9947539999999999
s(lp938
g224
atp939
a(S'genutzt'
p940
(dp941
S'VERB'
p942
F0.960687
sS'ADJ'
p943
F0.039313
s(lp944
g243
atp945
a(S'werden'
p946
(dp947
S'VERB'
p948
F0.999916
s(lp949
g237
atp950
a(S'k\xc3\xb6nnen'
p951
(dp952
S'VERB'
p953
F0.9998090000000001
s(lp954
g230
atp955
a(g53
(dp956
g55
F1.0
s(lp957
tp958
a(S'um'
p959
(dp960
S'CONJ'
p961
F0.639655
sS'ADP'
p962
F0.360212
s(lp963
g250
atp964
a(S'die'
p965
(dp966
S'PRON'
p967
F0.002222
sS'DET'
p968
F0.996278
s(lp969
g264
atp970
a(S'ergebnisse'
p971
(dp972
S'ADJ'
p973
F0.229354
sS'NOUN'
p974
F0.751004
s(lp975
g256
atp976
a(S'und'
p977
(dp978
S'CONJ'
p979
F1.0
s(lp980
g275
atp981
a(S'wirkungen'
p982
(dp983
S'ADJ'
p984
F0.304572
sS'NOUN'
p985
F0.677259
s(lp986
g288
atp987
a(S'von'
p988
(dp989
S'NOUN'
p990
F0.00073
sS'ADP'
p991
F0.99927
s(lp992
g295
atp993
a(S'investitionen'
p994
(dp995
S'ADJ'
p996
F0.000477
sS'NOUN'
p997
F0.99951
s(lp998
g301
atp999
a(S'festzuhalten'
p1000
(dp1001
S'VERB'
p1002
F1.0
s(lp1003
g102
atp1004
a(g55
(dp1005
g55
F1.0
s(lp1006
g55
atp1007
asS'it'
p1008
(lp1009
(S'per'
p1010
(dp1011
S'CONJ'
p1012
F0.00889
sS'ADP'
p1013
F0.99111
s(lp1014
g308
atp1015
a(S'poter'
p1016
(dp1017
S'VERB'
p1018
F1.0
s(lp1019
g8
atp1020
a(S'ottemperare'
p1021
(dp1022
S'VERB'
p1023
F1.0
s(lp1024
g102
atp1025
a(S'agli'
p1026
(dp1027
S'NOUN'
p1028
F5.4e-05
sS'ADP'
p1029
F0.999946
s(lp1030
g21
atp1031
a(S'impegni'
p1032
(dp1033
S'VERB'
p1034
F0.00031499999999999996
sS'NOUN'
p1035
F0.999685
s(lp1036
tp1037
a(S'assunti'
p1038
(dp1039
S'VERB'
p1040
F0.924627
sS'NOUN'
p1041
F0.075373
s(lp1042
g51
atp1043
a(g53
(dp1044
g55
F1.0
s(lp1045
g53
atp1046
a(S'dobbiamo'
p1047
(dp1048
S'VERB'
p1049
F1.0
s(lp1050
g73
atp1051
a(S'poter'
p1052
(dp1053
S'VERB'
p1054
F1.0
s(lp1055
g102
atp1056
a(S'contare'
p1057
(dp1058
S'VERB'
p1059
F1.0
s(lp1060
tp1061
a(S'su'
p1062
(dp1063
S'ADV'
p1064
F0.037463
sS'ADP'
p1065
F0.962537
s(lp1066
tp1067
a(S'un'
p1068
(dp1069
S'PRON'
p1070
F0.002646
sS'DEF'
p1071
F0.997354
s(lp1072
g95
atp1073
a(S'sistema'
p1074
(dp1075
S'VERB'
p1076
F3.9e-05
sS'NOUN'
p1077
F0.999961
s(lp1078
g372
atp1079
a(S'di'
p1080
(dp1081
S'CONJ'
p1082
F4e-06
sS'ADP'
p1083
F0.999996
s(lp1084
g149
atp1085
a(S'strutturazione'
p1086
(dp1087
S'NOUN'
p1088
F1.0
s(lp1089
g102
atp1090
a(S'globale'
p1091
(dp1092
S'ADJ'
p1093
F1.0
s(lp1094
g108
atp1095
a(S'degli'
p1096
(dp1097
S'DEF'
p1098
F0.003077
sS'ADP'
p1099
F0.996923
s(lp1100
tp1101
a(S'impegni'
p1102
(dp1103
S'VERB'
p1104
F1.9e-05
sS'NOUN'
p1105
F0.999981
s(lp1106
g89
atp1107
a(g53
(dp1108
g55
F1.0
s(lp1109
g53
atp1110
a(S'ma'
p1111
(dp1112
S'CONJ'
p1113
F0.999975
sS'NOUN'
p1114
F2.5e-05
s(lp1115
g117
atp1116
a(S'anche'
p1117
(dp1118
S'ADV'
p1119
F0.999999
sS'NOUN'
p1120
F1e-06
s(lp1121
g136
atp1122
a(S'sviluppare'
p1123
(dp1124
S'VERB'
p1125
F1.0
s(lp1126
g142
atp1127
a(S'meccanismi'
p1128
(dp1129
S'NOUN'
p1130
F1.0
s(lp1131
tp1132
a(S'di'
p1133
(dp1134
S'CONJ'
p1135
F4e-06
sS'ADP'
p1136
F0.999996
s(lp1137
g155
atp1138
a(S'monitoraggio'
p1139
(dp1140
S'NOUN'
p1141
F1.0
s(lp1142
g166
atp1143
a(g53
(dp1144
g55
F1.0
s(lp1145
g53
atp1146
a(S'indicatori'
p1147
(dp1148
S'NOUN'
p1149
F0.430365
sS'ADJ'
p1150
F0.569635
s(lp1151
g182
atp1152
a(S'specifici'
p1153
(dp1154
S'NOUN'
p1155
F0.400127
sS'ADJ'
p1156
F0.599873
s(lp1157
g218
atp1158
a(S'e'
p1159
(dp1160
S'CONJ'
p1161
F1.0
s(lp1162
g188
atp1163
a(S'parametri'
p1164
(dp1165
S'NOUN'
p1166
F1.0
s(lp1167
tp1168
a(S'di'
p1169
(dp1170
S'CONJ'
p1171
F4e-06
sS'ADP'
p1172
F0.999996
s(lp1173
tp1174
a(S'riferimento'
p1175
(dp1176
S'NOUN'
p1177
F1.0
s(lp1178
g195
atp1179
a(S'da'
p1180
(dp1181
S'ADP'
p1182
F1.0
s(lp1183
g224
atp1184
a(S'utilizzare'
p1185
(dp1186
S'VERB'
p1187
F1.0
s(lp1188
g243
atp1189
a(S'per'
p1190
(dp1191
S'CONJ'
p1192
F0.001332
sS'ADP'
p1193
F0.998668
s(lp1194
g250
atp1195
a(S'riferire'
p1196
(dp1197
S'VERB'
p1198
F1.0
s(lp1199
g471
atp1200
a(S'in'
p1201
(dp1202
S'ADP'
p1203
F1.0
s(lp1204
g477
atp1205
a(S'merito'
p1206
(dp1207
S'VERB'
p1208
F5.9e-05
sS'NOUN'
p1209
F0.999941
s(lp1210
tp1211
a(g95
(dp1212
S'CONJ'
p1213
F0.000233
sS'ADP'
p1214
F0.999767
s(lp1215
g477
atp1216
a(S'esiti'
p1217
(dp1218
S'VERB'
p1219
F0.0015699999999999998
sS'NOUN'
p1220
F0.99843
s(lp1221
g256
atp1222
a(g1159
(dp1223
S'CONJ'
p1224
F1.0
s(lp1225
g275
atp1226
a(S'impatti'
p1227
(dp1228
S'VERB'
p1229
F0.347311
sS'NOUN'
p1230
F0.652689
s(lp1231
g288
atp1232
a(S'degli'
p1233
(dp1234
S'DEF'
p1235
F0.010094
sS'ADP'
p1236
F0.989906
s(lp1237
tp1238
a(S'investimenti'
p1239
(dp1240
S'NOUN'
p1241
F1.0
s(lp1242
g301
atp1243
a(g55
(dp1244
g55
F1.0
s(lp1245
g55
atp1246
asS'sk'
p1247
(lp1248
(S'aby'
p1249
(dp1250
S'X'
p1251
F0.007674
sS'CONJ'
p1252
F0.992325
s(lp1253
tp1254
a(S'sme'
p1255
(dp1256
g1251
F0.0
sS'VERB'
p1257
F1.0
s(lp1258
g8
atp1259
a(S'pristupovali'
p1260
(dp1261
S'VERB'
p1262
F1.000001
s(lp1263
g102
atp1264
a(S'k'
p1265
(dp1266
g1251
F1e-06
sS'NOUN'
p1267
F2e-06
sS'ADP'
p1268
F0.999996
s(lp1269
g21
atp1270
a(S'svojim'
p1271
(dp1272
S'PRON'
p1273
F1.0
s(lp1274
g45
atp1275
a(S's\xc4\xbeubom'
p1276
(dp1277
S'NOUN'
p1278
F1.0
s(lp1279
g51
atp1280
a(S'zodpovedne'
p1281
(dp1282
S'ADV'
p1283
F1.0
s(lp1284
tp1285
a(g53
(dp1286
g55
F1.0
s(lp1287
g53
atp1288
a(S'potrebujeme'
p1289
(dp1290
S'VERB'
p1291
F1.0
s(lp1292
g73
atp1293
a(S'glob\xc3\xa1lny'
p1294
(dp1295
S'ADJ'
p1296
F1.0
s(lp1297
g108
atp1298
a(S'syst\xc3\xa9m'
p1299
(dp1300
S'NOUN'
p1301
F1.0
s(lp1302
g372
atp1303
a(S'z\xc3\xa1v\xc3\xa4zkov'
p1304
(dp1305
S'NOUN'
p1306
F1.0
s(lp1307
g89
atp1308
a(g55
(dp1309
g55
F1.0
s(lp1310
g53
atp1311
a(S'mus\xc3\xadme'
p1312
(dp1313
S'VERB'
p1314
F1.0
s(lp1315
g123
atp1316
a(S'v\xc5\xa1ak'
p1317
(dp1318
g1251
F0.951239
sS'CONJ'
p1319
F0.048761
s(lp1320
g117
atp1321
a(S'vypracova\xc5\xa5'
p1322
(dp1323
S'VERB'
p1324
F1.0
s(lp1325
g142
atp1326
a(S'aj'
p1327
(dp1328
g1251
F0.897325
sS'CONJ'
p1329
F0.102675
s(lp1330
g136
atp1331
a(S'monitorovacie'
p1332
(dp1333
S'ADJ'
p1334
F1.0
s(lp1335
g166
atp1336
a(S'mechanizmy'
p1337
(dp1338
S'NOUN'
p1339
F1.0
s(lp1340
g155
atp1341
a(g53
(dp1342
g55
F1.0
s(lp1343
g53
atp1344
a(S'osobitn\xc3\xa9'
p1345
(dp1346
S'ADJ'
p1347
F1.0
s(lp1348
g218
atp1349
a(S'ukazovatele'
p1350
(dp1351
S'NOUN'
p1352
F1.0
s(lp1353
g182
atp1354
a(g95
(dp1355
g1251
F0.000697
sS'CONJ'
p1356
F0.998698
sS'NOUN'
p1357
F5.7e-05
sS'ADP'
p1358
F0.000484
sS'PRT'
p1359
F6.4e-05
s(lp1360
g188
atp1361
a(S'krit\xc3\xa9ri\xc3\xa1'
p1362
(dp1363
S'NOUN'
p1364
F1.0
s(lp1365
g195
atp1366
a(g53
(dp1367
g55
F1.0
s(lp1368
tp1369
a(S'ktor\xc3\xa9'
p1370
(dp1371
S'PRON'
p1372
F1.0
s(lp1373
g224
atp1374
a(S'sa'
p1375
(dp1376
S'PRT'
p1377
F0.999963
sS'ADP'
p1378
F0.0
sg1251
F3.7e-05
s(lp1379
tp1380
a(S'bud\xc3\xba'
p1381
(dp1382
g1251
F0.0
sS'VERB'
p1383
F1.0
s(lp1384
g237
atp1385
a(S'da\xc5\xa5'
p1386
(dp1387
S'VERB'
p1388
F1.0
s(lp1389
g230
atp1390
a(S'pou\xc5\xbei\xc5\xa5'
p1391
(dp1392
S'VERB'
p1393
F1.0
s(lp1394
g243
atp1395
a(S'pri'
p1396
(dp1397
g1251
F2.9e-05
sS'VERB'
p1398
F0.0
sS'ADP'
p1399
F0.999971
s(lp1400
g250
atp1401
a(S'vypracov\xc3\xa1van\xc3\xad'
p1402
(dp1403
S'NOUN'
p1404
F0.320434
sS'VERB'
p1405
F0.386271
sS'ADJ'
p1406
F0.29329299999999997
s(lp1407
g102
atp1408
a(S'spr\xc3\xa1v'
p1409
(dp1410
g1251
F0.003417
sS'NOUN'
p1411
F0.996583
s(lp1412
g471
atp1413
a(S'o'
p1414
(dp1415
g1251
F0.000232
sS'CONJ'
p1416
F7.7e-05
sS'NOUN'
p1417
F1.6e-05
sS'ADP'
p1418
F0.999674
s(lp1419
g477
atp1420
a(S'v\xc3\xbdsledkoch'
p1421
(dp1422
S'NOUN'
p1423
F1.0
s(lp1424
g256
atp1425
a(g95
(dp1426
g1251
F0.000697
sS'CONJ'
p1427
F0.998698
sS'NOUN'
p1428
F5.7e-05
sS'ADP'
p1429
F0.000484
sS'PRT'
p1430
F6.4e-05
s(lp1431
g275
atp1432
a(S'vplyvoch'
p1433
(dp1434
S'NOUN'
p1435
F1.0
s(lp1436
g288
atp1437
a(S'invest\xc3\xadci\xc3\xad'
p1438
(dp1439
S'NOUN'
p1440
F1.0
s(lp1441
g301
atp1442
a(g55
(dp1443
g55
F1.0
s(lp1444
g55
atp1445
asS'pl'
p1446
(lp1447
(S'do'
p1448
(dp1449
g1251
F0.0
sS'NOUN'
p1450
F1.6e-05
sS'ADP'
p1451
F0.999984
s(lp1452
g21
atp1453
a(S'wywi\xc4\x85zania'
p1454
(dp1455
S'VERB'
p1456
F1.0
s(lp1457
g102
atp1458
a(S'si\xc4\x99'
p1459
(dp1460
S'PRT'
p1461
F1.0
s(lp1462
g27
atp1463
a(S'z'
p1464
(dp1465
S'PRT'
p1466
F0.005732
sS'VERB'
p1467
F0.000418
sS'NOUN'
p1468
F7e-06
sS'ADP'
p1469
F0.9938429999999999
sg1251
F0.0
s(lp1470
g39
atp1471
a(S'naszych'
p1472
(dp1473
S'NOUN'
p1474
F0.000163
sS'ADJ'
p1475
F0.9998379999999998
s(lp1476
g45
atp1477
a(S'obietnic'
p1478
(dp1479
S'NOUN'
p1480
F1.0
s(lp1481
g51
atp1482
a(S'potrzebny'
p1483
(dp1484
S'ADJ'
p1485
F1.0
s(lp1486
g73
atp1487
a(S'jest'
p1488
(dp1489
S'VERB'
p1490
F1.0
s(lp1491
g95
atp1492
a(S'nam'
p1493
(dp1494
S'PRON'
p1495
F1.0
s(lp1496
g67
atp1497
a(S'globalny'
p1498
(dp1499
S'ADJ'
p1500
F1.0
s(lp1501
g108
atp1502
a(S'system'
p1503
(dp1504
S'NOUN'
p1505
F1.0
s(lp1506
g372
atp1507
a(S'zobowi\xc4\x85za\xc5\x84'
p1508
(dp1509
S'NOUN'
p1510
F1.0
s(lp1511
g89
atp1512
a(g53
(dp1513
g1251
F0.0
sg55
F1.0
s(lp1514
g53
atp1515
a(S'ale'
p1516
(dp1517
S'PRT'
p1518
F0.010532
sS'CONJ'
p1519
F0.989322
sS'NOUN'
p1520
F0.000145
s(lp1521
g117
atp1522
a(S'musimy'
p1523
(dp1524
S'VERB'
p1525
F1.0
s(lp1526
g123
atp1527
a(S'r\xc3\xb3wnie\xc5\xbc'
p1528
(dp1529
S'PRT'
p1530
F0.97271
sS'CONJ'
p1531
F0.02729
s(lp1532
g136
atp1533
a(S'stworzy\xc4\x87'
p1534
(dp1535
S'VERB'
p1536
F1.0
s(lp1537
g142
atp1538
a(S'mechanizmy'
p1539
(dp1540
S'NOUN'
p1541
F1.0
s(lp1542
g155
atp1543
a(S'monitorowania'
p1544
(dp1545
S'VERB'
p1546
F1.0
s(lp1547
g166
atp1548
a(g53
(dp1549
g1251
F0.0
sg55
F1.0
s(lp1550
g53
atp1551
a(S'ustali\xc4\x87'
p1552
(dp1553
S'VERB'
p1554
F1.0
s(lp1555
tp1556
a(S'szczeg\xc3\xb3\xc5\x82owe'
p1557
(dp1558
S'ADJ'
p1559
F1.000001
s(lp1560
g218
atp1561
a(S'wska\xc5\xbaniki'
p1562
(dp1563
S'NOUN'
p1564
F1.0
s(lp1565
g182
atp1566
a(S'i'
p1567
(dp1568
S'PRT'
p1569
F0.001623
sS'CONJ'
p1570
F0.99836
sS'PRON'
p1571
F9e-06
sS'NOUN'
p1572
F1e-06
sg1251
F8e-06
s(lp1573
g188
atp1574
a(S'wzorce'
p1575
(dp1576
S'NOUN'
p1577
F1.0
s(lp1578
g195
atp1579
a(g53
(dp1580
g1251
F0.0
sg55
F1.0
s(lp1581
tp1582
a(S'kt\xc3\xb3re'
p1583
(dp1584
S'ADJ'
p1585
F1.0
s(lp1586
g224
atp1587
a(S'b\xc4\x99dzie'
p1588
(dp1589
S'VERB'
p1590
F1.0
s(lp1591
g230
atp1592
a(S'mo\xc5\xbcna'
p1593
(dp1594
S'ADJ'
p1595
F1.0
s(lp1596
g237
atp1597
a(S'wykorzysta\xc4\x87'
p1598
(dp1599
S'VERB'
p1600
F1.0
s(lp1601
g243
atp1602
a(S'do'
p1603
(dp1604
g1251
F0.0
sS'NOUN'
p1605
F1e-06
sS'ADP'
p1606
F1.0
s(lp1607
g250
atp1608
a(S'\xc5\x9bledzenia'
p1609
(dp1610
S'ADV'
p1611
F2e-06
sS'ADJ'
p1612
F2.1000000000000002e-05
sS'VERB'
p1613
F0.955421
sS'NOUN'
p1614
F0.044555
s(lp1615
g102
atp1616
a(S'wynik\xc3\xb3w'
p1617
(dp1618
S'NOUN'
p1619
F1.0
s(lp1620
g256
atp1621
a(g1567
(dp1622
S'PRT'
p1623
F0.001052
sS'CONJ'
p1624
F0.998903
sS'PRON'
p1625
F2e-06
sS'NOUN'
p1626
F3.4e-05
sg1251
F1e-05
s(lp1627
g275
atp1628
a(S'wp\xc5\x82ywu'
p1629
(dp1630
S'NOUN'
p1631
F1.0
s(lp1632
g288
atp1633
a(S'inwestycji'
p1634
(dp1635
S'NOUN'
p1636
F0.9999999999999999
s(lp1637
g301
atp1638
a(g55
(dp1639
g55
F1.0
s(lp1640
g55
atp1641
asS'sl'
p1642
(lp1643
(S'da'
p1644
(dp1645
S'PRT'
p1646
F0.001704
sS'CONJ'
p1647
F0.998243
sS'VERB'
p1648
F4.4e-05
sg1251
F9e-06
s(lp1649
tp1650
a(S'bi'
p1651
(dp1652
g1251
F4e-06
sS'VERB'
p1653
F0.999996
s(lp1654
g8
atp1655
a(S'lahko'
p1656
(dp1657
S'ADV'
p1658
F0.999992
sS'ADJ'
p1659
F8.000000000000001e-06
s(lp1660
g27
atp1661
a(S'prevzeli'
p1662
(dp1663
S'VERB'
p1664
F1.0
s(lp1665
tp1666
a(S'odgovornost'
p1667
(dp1668
S'NOUN'
p1669
F1.0
s(lp1670
g33
atp1671
a(S'za'
p1672
(dp1673
S'ADV'
p1674
F0.000147
sg1251
F2.2e-05
sS'ADP'
p1675
F0.99983
s(lp1676
g39
atp1677
a(S'na\xc5\xa1e'
p1678
(dp1679
S'PRON'
p1680
F1.0
s(lp1681
g45
atp1682
a(S'zaveze'
p1683
(dp1684
S'NOUN'
p1685
F1.0
s(lp1686
g51
atp1687
a(g53
(dp1688
g55
F1.0
s(lp1689
g53
atp1690
a(S'potrebujemo'
p1691
(dp1692
S'VERB'
p1693
F1.0
s(lp1694
g73
atp1695
a(S'svetoven'
p1696
(dp1697
S'ADV'
p1698
F0.021831
sS'NOUN'
p1699
F0.006596999999999999
sS'VERB'
p1700
F0.028883
sS'ADJ'
p1701
F0.942651
sg1251
F3.9e-05
s(lp1702
g108
atp1703
a(S'hierarhi\xc4\x8den'
p1704
(dp1705
S'ADV'
p1706
F0.00074
sS'NOUN'
p1707
F0.0037329999999999998
sS'VERB'
p1708
F0.000659
sS'ADJ'
p1709
F0.994852
sg1251
F1.6e-05
s(lp1710
g102
atp1711
a(S'sistem'
p1712
(dp1713
S'NOUN'
p1714
F1.0
s(lp1715
g372
atp1716
a(S'zavez'
p1717
(dp1718
S'NOUN'
p1719
F1.0
s(lp1720
g89
atp1721
a(g53
(dp1722
g55
F1.0
s(lp1723
g53
atp1724
a(S'razviti'
p1725
(dp1726
S'VERB'
p1727
F0.549583
sS'ADJ'
p1728
F0.450417
s(lp1729
g142
atp1730
a(S'pa'
p1731
(dp1732
g1251
F3.4e-05
sS'CONJ'
p1733
F0.999966
s(lp1734
g117
atp1735
a(S'moramo'
p1736
(dp1737
S'VERB'
p1738
F1.0
s(lp1739
g123
atp1740
a(S'tudi'
p1741
(dp1742
S'PRT'
p1743
F1.0
s(lp1744
g136
atp1745
a(S'mehanizme'
p1746
(dp1747
S'NOUN'
p1748
F1.0
s(lp1749
g155
atp1750
a(S'spremljanja'
p1751
(dp1752
S'NOUN'
p1753
F1.0
s(lp1754
g166
atp1755
a(g53
(dp1756
g55
F1.0
s(lp1757
g53
atp1758
a(S'psoebne'
p1759
(dp1760
S'ADV'
p1761
F0.000619
sS'NOUN'
p1762
F0.008478
sS'ADJ'
p1763
F0.9909020000000001
s(lp1764
g218
atp1765
a(S'kazalnike'
p1766
(dp1767
S'ADJ'
p1768
F0.002818
sS'NOUN'
p1769
F0.9971829999999999
s(lp1770
g182
atp1771
a(S'in'
p1772
(dp1773
S'ADV'
p1774
F0.000116
sg1251
F1e-05
sS'CONJ'
p1775
F0.99987
sS'NOUN'
p1776
F4e-06
s(lp1777
g188
atp1778
a(S'merila'
p1779
(dp1780
S'VERB'
p1781
F0.46507899999999996
sS'NOUN'
p1782
F0.534921
s(lp1783
g195
atp1784
a(g53
(dp1785
g55
F1.0
s(lp1786
tp1787
a(S'ki'
p1788
(dp1789
S'CONJ'
p1790
F1.0
s(lp1791
g224
atp1792
a(S'bi'
p1793
(dp1794
g1251
F2e-06
sS'VERB'
p1795
F0.999998
s(lp1796
g406
atp1797
a(S'jih'
p1798
(dp1799
S'PRON'
p1800
F1.0
s(lp1801
g130
atp1802
a(S'lahko'
p1803
(dp1804
S'ADV'
p1805
F0.999981
sS'ADJ'
p1806
F1.8e-05
s(lp1807
g230
atp1808
a(S'uporabili'
p1809
(dp1810
S'VERB'
p1811
F1.0
s(lp1812
g243
atp1813
a(S'za'
p1814
(dp1815
S'ADV'
p1816
F1e-05
sg1251
F0.0
sS'ADP'
p1817
F0.999989
s(lp1818
g250
atp1819
a(S'poro\xc4\x8danje'
p1820
(dp1821
S'NOUN'
p1822
F1.0
s(lp1823
g471
atp1824
a(g1414
(dp1825
S'NOUN'
p1826
F2.2e-05
sS'ADP'
p1827
F0.999978
s(lp1828
g477
atp1829
a(S'raezultatih'
p1830
(dp1831
S'ADV'
p1832
F6.7e-05
sS'ADJ'
p1833
F0.05015400000000002
sS'NUM'
p1834
F0.040076
sS'NOUN'
p1835
F0.9096979999999998
sS'VERB'
p1836
F1.1000000000000001e-05
s(lp1837
g256
atp1838
a(S'in'
p1839
(dp1840
S'ADV'
p1841
F0.000115
sg1251
F2.7e-05
sS'CONJ'
p1842
F0.999848
sS'NOUN'
p1843
F1e-05
s(lp1844
g275
atp1845
a(S'vplivih'
p1846
(dp1847
S'NOUN'
p1848
F1.0
s(lp1849
g288
atp1850
a(S'nalo\xc5\xbeb'
p1851
(dp1852
S'NOUN'
p1853
F1.0
s(lp1854
g301
atp1855
a(g55
(dp1856
g55
F1.0
s(lp1857
g55
atp1858
asS'es'
p1859
(lp1860
(S'para'
p1861
(dp1862
S'CONJ'
p1863
F0.930397
sS'ADP'
p1864
F0.069603
s(lp1865
g8
atp1866
a(S'ser'
p1867
(dp1868
S'VERB'
p1869
F0.999297
sS'NOUN'
p1870
F0.000703
s(lp1871
g27
atp1872
a(S'responsables'
p1873
(dp1874
S'ADJ'
p1875
F1.0
s(lp1876
g33
atp1877
a(S'de'
p1878
(dp1879
g1251
F0.0
sS'CONJ'
p1880
F5.7e-05
sS'ADP'
p1881
F0.999943
s(lp1882
g39
atp1883
a(S'las'
p1884
(dp1885
S'PRON'
p1886
F0.0
sS'DET'
p1887
F1.0
s(lp1888
g45
atp1889
a(S'cantidades'
p1890
(dp1891
S'NOUN'
p1892
F1.0
s(lp1893
tp1894
a(S'prometidas'
p1895
(dp1896
S'VERB'
p1897
F0.923658
sS'NOUN'
p1898
F0.076342
s(lp1899
g51
atp1900
a(g53
(dp1901
g55
F1.0
s(lp1902
g53
atp1903
a(S'necesitamos'
p1904
(dp1905
S'VERB'
p1906
F1.0
s(lp1907
g73
atp1908
a(S'un'
p1909
(dp1910
g1251
F1e-06
sS'DET'
p1911
F0.999999
s(lp1912
g95
atp1913
a(S'sistema'
p1914
(dp1915
S'NOUN'
p1916
F1.0
s(lp1917
g372
atp1918
a(S'de'
p1919
(dp1920
g1251
F2.9e-05
sS'CONJ'
p1921
F0.000449
sS'ADP'
p1922
F0.999522
s(lp1923
g149
atp1924
a(S'promesas'
p1925
(dp1926
S'NOUN'
p1927
F1.0
s(lp1928
g89
atp1929
a(S'global'
p1930
(dp1931
g1251
F4.7e-05
sS'ADJ'
p1932
F0.999953
s(lp1933
g108
atp1934
a(g53
(dp1935
g55
F1.0
s(lp1936
g53
atp1937
a(S'pero'
p1938
(dp1939
S'CONJ'
p1940
F0.999918
sS'NOUN'
p1941
F8.2e-05
s(lp1942
g117
atp1943
a(S'tambi\xc3\xa9n'
p1944
(dp1945
S'ADV'
p1946
F1.0
s(lp1947
g136
atp1948
a(S'debemos'
p1949
(dp1950
S'VERB'
p1951
F1.0
s(lp1952
g406
atp1953
a(S'desarrollar'
p1954
(dp1955
S'VERB'
p1956
F1.0
s(lp1957
g142
atp1958
a(S'mecanismos'
p1959
(dp1960
S'NOUN'
p1961
F1.0
s(lp1962
g155
atp1963
a(S'de'
p1964
(dp1965
g1251
F2.9e-05
sS'CONJ'
p1966
F0.000449
sS'ADP'
p1967
F0.999522
s(lp1968
tp1969
a(S'vigilancia'
p1970
(dp1971
S'NOUN'
p1972
F1.0
s(lp1973
g166
atp1974
a(g53
(dp1975
g55
F1.0
s(lp1976
g53
atp1977
a(S'indicadores'
p1978
(dp1979
S'ADJ'
p1980
F0.000601
sS'NOUN'
p1981
F0.999399
s(lp1982
g182
atp1983
a(S'espec\xc3\xadficos'
p1984
(dp1985
S'ADJ'
p1986
F1.0
s(lp1987
g218
atp1988
a(S'y'
p1989
(dp1990
g1251
F0.000297
sS'CONJ'
p1991
F0.999703
s(lp1992
g188
atp1993
a(S'puntos'
p1994
(dp1995
S'NOUN'
p1996
F1.0
s(lp1997
tp1998
a(S'de'
p1999
(dp2000
g1251
F2.9e-05
sS'CONJ'
p2001
F0.000449
sS'ADP'
p2002
F0.999522
s(lp2003
tp2004
a(S'referencia'
p2005
(dp2006
S'NOUN'
p2007
F1.0
s(lp2008
g195
atp2009
a(S'que'
p2010
(dp2011
g1251
F0.0
sS'CONJ'
p2012
F1.0
s(lp2013
g224
atp2014
a(S'pueden'
p2015
(dp2016
S'VERB'
p2017
F1.0
s(lp2018
g230
atp2019
a(S'ser'
p2020
(dp2021
S'VERB'
p2022
F1.0
sS'NOUN'
p2023
F0.0
s(lp2024
g237
atp2025
a(S'usados'
p2026
(dp2027
S'VERB'
p2028
F1.0
s(lp2029
g243
atp2030
a(S'para'
p2031
(dp2032
S'CONJ'
p2033
F0.9644
sS'ADP'
p2034
F0.0356
s(lp2035
g250
atp2036
a(S'informar'
p2037
(dp2038
S'VERB'
p2039
F1.0
s(lp2040
g471
atp2041
a(S'sobre'
p2042
(dp2043
S'NOUN'
p2044
F0.0
sS'ADP'
p2045
F1.0
s(lp2046
g477
atp2047
a(S'los'
p2048
(dp2049
S'PRON'
p2050
F0.0
sS'DET'
p2051
F1.0
s(lp2052
g264
atp2053
a(S'resultados'
p2054
(dp2055
S'NOUN'
p2056
F1.0
s(lp2057
g256
atp2058
a(g1159
(dp2059
g1251
F0.078422
sS'CONJ'
p2060
F0.872507
sS'ADP'
p2061
F0.049071
s(lp2062
g275
atp2063
a(S'impactos'
p2064
(dp2065
S'NOUN'
p2066
F1.0
s(lp2067
g288
atp2068
a(S'de'
p2069
(dp2070
g1251
F0.0
sS'CONJ'
p2071
F1.7e-05
sS'ADP'
p2072
F0.999983
s(lp2073
g295
atp2074
a(S'las'
p2075
(dp2076
S'PRON'
p2077
F0.0
sS'DET'
p2078
F1.0
s(lp2079
tp2080
a(S'inversiones'
p2081
(dp2082
S'NOUN'
p2083
F1.0
s(lp2084
g301
atp2085
a(g55
(dp2086
g55
F1.0
s(lp2087
g55
atp2088
as.