(dp0
S'fr'
p1
(lp2
(S'ce'
p3
(dp4
S'PRON'
p5
F1.0
s(lp6
S'this'
p7
atp8
a(S'rapport'
p9
(dp10
S'NOUN'
p11
F1.0
s(lp12
S'report'
p13
atp14
a(S'invite'
p15
(dp16
S'VERB'
p17
F0.317258
sS'NOUN'
p18
F0.682742
s(lp19
S'invites'
p20
atp21
a(S','
p22
(dp23
S'.'
p24
F1.0
s(lp25
tp26
a(S'et'
p27
(dp28
S'CONJ'
p29
F1.0
s(lp30
S'and'
p31
atp32
a(S"j'"
p33
(dp34
S'ADJ'
p35
F0.430229
sS'VERB'
p36
F0.032665
sS'NOUN'
p37
F0.535587
sS'X'
p38
F0.001519
s(lp39
S'dissensions'
p40
atp41
a(S'y'
p42
(dp43
S'PRON'
p44
F1.0
s(lp45
g40
atp46
a(S'tiens'
p47
(dp48
S'PRON'
p49
F4.8e-05
sS'VERB'
p50
F0.999951
sg38
F1e-06
s(lp51
g40
atp52
a(S'beaucoup'
p53
(dp54
S'ADV'
p55
F1.0
s(lp56
g40
atp57
a(g22
(dp58
g24
F1.0
s(lp59
tp60
a(S'la'
p61
(dp62
S'PRON'
p63
F0.000198
sS'DET'
p64
F0.999789
sS'NOUN'
p65
F1.3e-05
s(lp66
S'the'
p67
atp68
a(S'haute'
p69
(dp70
S'NOUN'
p71
F0.007454
sS'ADJ'
p72
F0.992546
s(lp73
S'high'
p74
atp75
a(S'repr\xc3\xa9sentante'
p76
(dp77
S'NOUN'
p78
F1.0
s(lp79
S'representative'
p80
atp81
a(S'et'
p82
(dp83
S'CONJ'
p84
F1.0
s(lp85
S'/'
p86
atp87
a(S'vice-pr\xc3\xa9sidente'
p88
(dp89
S'NOUN'
p90
F1.0
s(lp91
S'vice-president'
p92
atp93
a(S'de'
p94
(dp95
S'ADP'
p96
F1.0
s(lp97
S'of'
p98
atp99
a(S'la'
p100
(dp101
S'PRON'
p102
F1.2e-05
sS'DET'
p103
F0.999988
sS'NOUN'
p104
F0.0
s(lp105
S'the'
p106
atp107
a(S'commission'
p108
(dp109
S'NOUN'
p110
F1.0
s(lp111
S'commission'
p112
atp113
a(S'\xc3\xa0'
p114
(dp115
S'ADP'
p116
F1.0
s(lp117
S'to'
p118
atp119
a(S'rechercher'
p120
(dp121
S'VERB'
p122
F1.0
s(lp123
S'seek'
p124
atp125
a(S'des'
p126
(dp127
S'DET'
p128
F0.000198
sS'ADP'
p129
F0.999802
s(lp130
S'foreign'
p131
atp132
a(S'positions'
p133
(dp134
S'NOUN'
p135
F1.0
s(lp136
S'positions'
p137
atp138
a(S'communes'
p139
(dp140
S'NOUN'
p141
F0.261159
sS'ADJ'
p142
F0.738841
s(lp143
S'common'
p144
atp145
a(S'de'
p146
(dp147
S'ADP'
p148
F1.0
s(lp149
S'of'
p150
atp151
a(S"l'"
p152
(dp153
S'ADJ'
p154
F0.160704
sS'VERB'
p155
F0.06480800000000002
sS'NOUN'
p156
F0.774488
s(lp157
S'the'
p158
atp159
a(S'union'
p160
(dp161
S'NOUN'
p162
F1.0
s(lp163
S'union'
p164
atp165
a(S'sur'
p166
(dp167
S'ADP'
p168
F1.0
s(lp169
S'on'
p170
atp171
a(S'les'
p172
(dp173
S'PRON'
p174
F5.6e-05
sS'DET'
p175
F0.999943
sS'ADP'
p176
F2e-06
s(lp177
S'the'
p178
atp179
a(S'questions'
p180
(dp181
S'NOUN'
p182
F1.0
s(lp183
S'subjects'
p184
atp185
a(S'devant'
p186
(dp187
S'ADV'
p188
F0.058232
sS'VERB'
p189
F0.02203
sS'NOUN'
p190
F3.3e-05
sS'ADP'
p191
F0.919705
s(lp192
S'to'
p193
atp194
a(S'\xc3\xaatre'
p195
(dp196
S'VERB'
p197
F0.996019
sS'NOUN'
p198
F0.003981
s(lp199
S'be'
p200
atp201
a(S'tranch\xc3\xa9es'
p202
(dp203
S'ADJ'
p204
F0.010045
sS'VERB'
p205
F0.970599
sS'NOUN'
p206
F0.019356
s(lp207
S'decided'
p208
atp209
a(S'au'
p210
(dp211
S'ADP'
p212
F1.0
s(lp213
tp214
a(S'sein'
p215
(dp216
S'NOUN'
p217
F1.0
s(lp218
S'in'
p219
atp220
a(S'du'
p221
(dp222
S'ADP'
p223
F1.0
s(lp224
S'the'
p225
atp226
a(S'conseil'
p227
(dp228
S'NOUN'
p229
F1.0
s(lp230
S'council'
p231
atp232
a(S'de'
p233
(dp234
S'ADP'
p235
F1.0
s(lp236
S'in'
p237
atp238
a(S's\xc3\xa9curit\xc3\xa9'
p239
(dp240
S'NOUN'
p241
F1.0
s(lp242
S'security'
p243
atp244
a(g22
(dp245
g24
F1.0
s(lp246
tp247
a(S'afin'
p248
(dp249
S'CONJ'
p250
F1.0
s(lp251
S'order'
p252
atp253
a(S'que'
p254
(dp255
S'ADV'
p256
F0.008059
sS'PRON'
p257
F0.083867
sS'CONJ'
p258
F0.908074
s(lp259
S'to'
p260
atp261
a(S'ces'
p262
(dp263
S'PRON'
p264
F1.0
s(lp265
S'these'
p266
atp267
a(S'positions'
p268
(dp269
S'NOUN'
p270
F1.0
s(lp271
S'positions'
p272
atp273
a(S'soient'
p274
(dp275
S'VERB'
p276
F1.0
s(lp277
g40
atp278
a(S'mises'
p279
(dp280
S'NOUN'
p281
F0.001176
sS'VERB'
p282
F0.99425
sS'ADJ'
p283
F0.004573
s(lp284
g40
atp285
a(S'en'
p286
(dp287
S'PRON'
p288
F0.046
sS'ADP'
p289
F0.954
s(lp290
S'implement'
p291
atp292
a(S'\xc5\x93uvre'
p293
(dp294
S'VERB'
p295
F0.049399
sS'NOUN'
p296
F0.950601
s(lp297
tp298
a(S'par'
p299
(dp300
S'NOUN'
p301
F0.0
sS'ADP'
p302
F1.0
s(lp303
S'through'
p304
atp305
a(S'la'
p306
(dp307
S'PRON'
p308
F0.00344
sS'DET'
p309
F0.996556
sS'NOUN'
p310
F4e-06
s(lp311
S'security'
p312
atp313
a(S'pratique'
p314
(dp315
S'ADJ'
p316
F0.169923
sS'VERB'
p317
F0.004694
sS'NOUN'
p318
F0.825384
s(lp319
g291
atp320
a(S"d'"
p321
(dp322
S'NOUN'
p323
F0.128719
sS'VERB'
p324
F0.639934
sS'ADJ'
p325
F0.231348
s(lp326
S'avoid'
p327
atp328
a(S'un'
p329
(dp330
S'NOUN'
p331
F0.000131
sS'NUM'
p332
F0.025648
sS'DET'
p333
F0.974221
s(lp334
S'a'
p335
atp336
a(S'vote'
p337
(dp338
S'VERB'
p339
F0.000426
sS'NOUN'
p340
F0.999574
s(lp341
S'voting'
p342
atp343
a(S'commun'
p344
(dp345
S'NOUN'
p346
F0.031577
sS'ADJ'
p347
F0.968423
s(lp348
S'joint'
p349
atp350
a(S'et'
p351
(dp352
S'CONJ'
p353
F1.0
s(lp354
S'and'
p355
atp356
a(S'que'
p357
(dp358
S'ADV'
p359
F0.014567
sS'PRON'
p360
F0.215309
sS'CONJ'
p361
F0.770124
s(lp362
S'repetition'
p363
atp364
a(S'les'
p365
(dp366
S'PRON'
p367
F0.000735
sS'DET'
p368
F0.999253
sS'ADP'
p369
F1.2e-05
s(lp370
S'practices'
p371
atp372
a(S'divergences'
p373
(dp374
S'NOUN'
p375
F1.0
s(lp376
tp377
a(S'du'
p378
(dp379
S'ADP'
p380
F1.0
s(lp381
S'of'
p382
atp383
a(S'pass\xc3\xa9'
p384
(dp385
S'VERB'
p386
F0.109286
sS'NOUN'
p387
F0.890713
sS'ADP'
p388
F1e-06
s(lp389
S'past'
p390
atp391
a(S'ne'
p392
(dp393
S'ADV'
p394
F1.0
s(lp395
g363
atp396
a(S'se'
p397
(dp398
S'PRON'
p399
F1.0
s(lp400
tp401
a(S'reproduisent'
p402
(dp403
S'VERB'
p404
F1.0
s(lp405
g363
atp406
a(S'plus'
p407
(dp408
S'ADV'
p409
F0.99735
sS'VERB'
p410
F0.00265
s(lp411
g40
atp412
a(g24
(dp413
g24
F1.0
s(lp414
g24
atp415
asS'en'
p416
(lp417
(g7
(dp418
S'ADV'
p419
F1.4e-05
sS'NOUN'
p420
F1.1e-05
sS'DET'
p421
F0.999975
s(lp422
g7
atp423
a(g13
(dp424
S'VERB'
p425
F9e-05
sS'NOUN'
p426
F0.99991
s(lp427
g13
atp428
a(g20
(dp429
S'VERB'
p430
F0.993849
sS'NOUN'
p431
F0.006151
s(lp432
g20
atp433
a(g67
(dp434
S'NOUN'
p435
F1e-06
sS'DET'
p436
F0.999999
s(lp437
g67
atp438
a(g74
(dp439
S'ADV'
p440
F0.00047
sS'NOUN'
p441
F0.018052
sS'ADJ'
p442
F0.981478
s(lp443
g74
atp444
a(g80
(dp445
S'ADJ'
p446
F0.034201
sS'NOUN'
p447
F0.965799
s(lp448
g80
atp449
a(g150
(dp450
S'ADP'
p451
F1.0
s(lp452
g150
atp453
a(g158
(dp454
S'NOUN'
p455
F1e-06
sS'DET'
p456
F0.999999
s(lp457
g158
atp458
a(g164
(dp459
S'NOUN'
p460
F1.0
s(lp461
g164
atp462
a(S'for'
p463
(dp464
S'ADP'
p465
F1.0
s(lp466
g463
atp467
a(g131
(dp468
S'NOUN'
p469
F0.000184
sS'ADJ'
p470
F0.999816
s(lp471
g131
atp472
a(S'affairs'
p473
(dp474
S'NOUN'
p475
F1.0
s(lp476
g473
atp477
a(g31
(dp478
S'CONJ'
p479
F0.999999
sS'NOUN'
p480
F1e-06
s(lp481
g31
atp482
a(g312
(dp483
S'NOUN'
p484
F1.0
s(lp485
g312
atp486
a(S'policy'
p487
(dp488
S'NOUN'
p489
F1.0
s(lp490
g487
atp491
a(g86
(dp492
g38
F1.0
s(lp493
g86
atp494
a(g92
(dp495
S'NOUN'
p496
F1.0
s(lp497
g92
atp498
a(g98
(dp499
S'ADP'
p500
F1.0
s(lp501
g98
atp502
a(g106
(dp503
S'NOUN'
p504
F1e-06
sS'DET'
p505
F0.999999
s(lp506
g106
atp507
a(g112
(dp508
S'VERB'
p509
F5.4999999999999995e-05
sS'NOUN'
p510
F0.999946
s(lp511
g112
atp512
a(S'to'
p513
(dp514
S'ADV'
p515
F0.0
sS'PRT'
p516
F1.0
sS'ADP'
p517
F0.0
s(lp518
g513
atp519
a(S'do'
p520
(dp521
S'VERB'
p522
F0.999998
sS'NOUN'
p523
F1e-06
s(lp524
g520
atp525
a(S'something'
p526
(dp527
S'ADV'
p528
F0.001238
sS'NOUN'
p529
F0.998762
s(lp530
g526
atp531
a(S'that'
p532
(dp533
S'ADV'
p534
F0.000254
sS'DET'
p535
F0.161487
sS'ADP'
p536
F0.838259
s(lp537
g532
atp538
a(S'i'
p539
(dp540
g38
F0.004829
sS'NOUN'
p541
F0.9951720000000001
s(lp542
g539
atp543
a(S'consider'
p544
(dp545
S'VERB'
p546
F1.0
s(lp547
g544
atp548
a(S'very'
p549
(dp550
S'ADV'
p551
F0.978318
sS'ADJ'
p552
F0.021682
s(lp553
g549
atp554
a(S'important'
p555
(dp556
S'ADJ'
p557
F1.0
s(lp558
g555
atp559
a(g22
(dp560
g24
F1.0
s(lp561
g22
atp562
a(S'namely'
p563
(dp564
S'ADV'
p565
F1.0
s(lp566
g563
atp567
a(g22
(dp568
g24
F1.0
s(lp569
g22
atp570
a(g118
(dp571
S'ADV'
p572
F1e-06
sS'PRT'
p573
F0.999999
sS'ADP'
p574
F0.0
s(lp575
g118
atp576
a(g124
(dp577
S'VERB'
p578
F1.0
s(lp579
g124
atp580
a(g144
(dp581
S'NOUN'
p582
F0.0036
sS'ADJ'
p583
F0.9964
s(lp584
g144
atp585
a(S'eu'
p586
(dp587
S'ADV'
p588
F3e-06
sS'ADJ'
p589
F0.006083
sS'VERB'
p590
F0.000187
sS'NOUN'
p591
F0.993727
s(lp592
g586
atp593
a(g137
(dp594
S'VERB'
p595
F0.002668
sS'NOUN'
p596
F0.997332
s(lp597
g137
atp598
a(g170
(dp599
S'ADV'
p600
F0.000772
sS'PRT'
p601
F0.000493
sS'ADJ'
p602
F0.0
sS'ADP'
p603
F0.998735
sS'NOUN'
p604
F0.0
s(lp605
g170
atp606
a(g178
(dp607
S'NOUN'
p608
F1.1e-05
sS'DET'
p609
F0.999989
s(lp610
g178
atp611
a(g184
(dp612
S'VERB'
p613
F0.011802
sS'NOUN'
p614
F0.988198
s(lp615
g184
atp616
a(g193
(dp617
S'ADV'
p618
F0.0
sS'PRT'
p619
F1.0
sS'ADP'
p620
F0.0
s(lp621
g193
atp622
a(g200
(dp623
S'VERB'
p624
F1.0
s(lp625
g200
atp626
a(g208
(dp627
S'VERB'
p628
F0.9997210000000001
sS'ADJ'
p629
F0.00028
s(lp630
g208
atp631
a(g219
(dp632
S'ADV'
p633
F0.000366
sS'PRT'
p634
F0.003796
sS'ADP'
p635
F0.995837
s(lp636
g219
atp637
a(g225
(dp638
S'NOUN'
p639
F1e-06
sS'DET'
p640
F0.999999
s(lp641
g225
atp642
a(g243
(dp643
S'NOUN'
p644
F1.0
s(lp645
g243
atp646
a(g231
(dp647
S'NOUN'
p648
F1.0
s(lp649
g231
atp650
a(g237
(dp651
S'ADV'
p652
F0.000133
sS'PRT'
p653
F0.000193
sS'ADP'
p654
F0.999674
s(lp655
g237
atp656
a(g252
(dp657
S'VERB'
p658
F0.000656
sS'NOUN'
p659
F0.999343
s(lp660
g252
atp661
a(g260
(dp662
S'ADV'
p663
F0.0
sS'PRT'
p664
F1.0
sS'ADP'
p665
F0.0
s(lp666
g260
atp667
a(g291
(dp668
S'VERB'
p669
F0.999978
sS'NOUN'
p670
F2.2e-05
s(lp671
g291
atp672
a(g266
(dp673
S'NOUN'
p674
F3e-06
sS'DET'
p675
F0.999997
s(lp676
g266
atp677
a(g272
(dp678
S'VERB'
p679
F0.000415
sS'NOUN'
p680
F0.999585
s(lp681
g272
atp682
a(g304
(dp683
S'ADV'
p684
F0.007896
sS'PRT'
p685
F0.001053
sS'ADJ'
p686
F0.000108
sS'ADP'
p687
F0.990943
s(lp688
g304
atp689
a(g349
(dp690
S'NOUN'
p691
F0.015808
sS'VERB'
p692
F6e-06
sS'ADJ'
p693
F0.984187
s(lp694
g349
atp695
a(g342
(dp696
S'ADJ'
p697
F0.108058
sS'VERB'
p698
F0.031077
sS'NOUN'
p699
F0.860866
s(lp700
g342
atp701
a(g371
(dp702
S'VERB'
p703
F0.000166
sS'NOUN'
p704
F0.999834
s(lp705
g371
atp706
a(g355
(dp707
S'CONJ'
p708
F0.999991
sS'NOUN'
p709
F9e-06
s(lp710
g355
atp711
a(S'to'
p712
(dp713
S'ADV'
p714
F2e-06
sS'PRT'
p715
F0.999998
sS'ADP'
p716
F0.0
s(lp717
g712
atp718
a(g327
(dp719
S'VERB'
p720
F1.0
s(lp721
g327
atp722
a(g335
(dp723
S'NOUN'
p724
F0.0
sS'DET'
p725
F1.0
s(lp726
g335
atp727
a(g363
(dp728
S'NOUN'
p729
F1.0
s(lp730
g363
atp731
a(g382
(dp732
S'ADP'
p733
F1.0
s(lp734
g382
atp735
a(g390
(dp736
S'ADV'
p737
F3.5e-05
sS'NOUN'
p738
F0.046124
sS'VERB'
p739
F2e-06
sS'ADJ'
p740
F0.952176
sS'ADP'
p741
F0.001663
s(lp742
g390
atp743
a(g40
(dp744
S'NOUN'
p745
F1.0
s(lp746
g40
atp747
a(g24
(dp748
g24
F1.0
s(lp749
g24
atp750
asS'nl'
p751
(lp752
(S'dit'
p753
(dp754
S'PRON'
p755
F1.0
s(lp756
g7
atp757
a(S'verslag'
p758
(dp759
S'NOUN'
p760
F1.0
s(lp761
g13
atp762
a(S'vormt'
p763
(dp764
S'VERB'
p765
F1.0
s(lp766
tp767
a(S'een'
p768
(dp769
S'ADJ'
p770
F2e-06
sS'NUM'
p771
F0.0
sS'DET'
p772
F0.999997
sS'PRON'
p773
F1e-06
s(lp774
tp775
a(S'uitnodiging'
p776
(dp777
S'NOUN'
p778
F1.0
s(lp779
g20
atp780
a(S'aan'
p781
(dp782
S'ADV'
p783
F0.007796
sS'ADP'
p784
F0.992204
s(lp785
tp786
a(S'de'
p787
(dp788
S'DET'
p789
F1.0
s(lp790
g67
atp791
a(S'vicevoorzitter'
p792
(dp793
S'ADJ'
p794
F0.000129
sS'NOUN'
p795
F0.999871
s(lp796
g92
atp797
a(S'van'
p798
(dp799
S'ADP'
p800
F1.0
s(lp801
g98
atp802
a(S'de'
p803
(dp804
S'DET'
p805
F1.0
s(lp806
g106
atp807
a(S'commissie'
p808
(dp809
S'NOUN'
p810
F1.0
s(lp811
g112
atp812
a(g86
(dp813
g24
F1.0
s(lp814
g86
atp815
a(S'hoge'
p816
(dp817
S'NOUN'
p818
F0.000133
sS'ADJ'
p819
F0.999867
s(lp820
g74
atp821
a(S'vertegenwoordiger'
p822
(dp823
S'NOUN'
p824
F1.0
s(lp825
g80
atp826
a(S'van'
p827
(dp828
S'ADP'
p829
F1.0
s(lp830
g150
atp831
a(S'de'
p832
(dp833
S'DET'
p834
F1.0
s(lp835
g158
atp836
a(S'unie'
p837
(dp838
S'NOUN'
p839
F1.0
s(lp840
g164
atp841
a(S'voor'
p842
(dp843
S'ADV'
p844
F0.026659
sS'CONJ'
p845
F3e-06
sS'NOUN'
p846
F0.0
sS'ADP'
p847
F0.973338
s(lp848
g463
atp849
a(S'buitenlandse'
p850
(dp851
S'NOUN'
p852
F1e-06
sS'ADJ'
p853
F0.999999
s(lp854
g131
atp855
a(S'zaken'
p856
(dp857
S'NOUN'
p858
F1.0
s(lp859
g473
atp860
a(S'en'
p861
(dp862
S'CONJ'
p863
F1.0
s(lp864
g31
atp865
a(S'veiligheidsbeleid'
p866
(dp867
S'ADJ'
p868
F0.007659
sS'NOUN'
p869
F0.992341
s(lp870
g312
atp871
a(S'om'
p872
(dp873
S'ADV'
p874
F0.044825
sS'CONJ'
p875
F0.652412
sS'ADP'
p876
F0.302763
s(lp877
tp878
a(S'iets'
p879
(dp880
S'ADV'
p881
F0.900057
sS'PRON'
p882
F0.099943
s(lp883
g526
atp884
a(S'te'
p885
(dp886
S'PRT'
p887
F1.0
s(lp888
g513
atp889
a(S'doen'
p890
(dp891
S'VERB'
p892
F1.0
sS'NOUN'
p893
F0.0
s(lp894
g520
atp895
a(S'dat'
p896
(dp897
S'PRON'
p898
F0.013163
sS'CONJ'
p899
F0.986837
s(lp900
g532
atp901
a(S'ik'
p902
(dp903
S'PRON'
p904
F0.999987
sS'NOUN'
p905
F1.3e-05
s(lp906
g539
atp907
a(S'van'
p908
(dp909
S'ADP'
p910
F1.0
s(lp911
tp912
a(S'groot'
p913
(dp914
S'ADJ'
p915
F1.0
s(lp916
g549
atp917
a(S'belang'
p918
(dp919
S'NOUN'
p920
F1.0
s(lp921
g555
atp922
a(S'acht'
p923
(dp924
S'NUM'
p925
F0.902986
sS'NOUN'
p926
F0.002775
sS'VERB'
p927
F0.094239
s(lp928
g544
atp929
a(g22
(dp930
g24
F1.0
s(lp931
g22
atp932
a(S'namelijk'
p933
(dp934
S'ADV'
p935
F1.0
s(lp936
g563
atp937
a(S'het'
p938
(dp939
S'PRON'
p940
F0.321802
sS'DET'
p941
F0.678199
s(lp942
g118
atp943
a(S'zoeken'
p944
(dp945
S'VERB'
p946
F0.320676
sS'NOUN'
p947
F0.679324
s(lp948
tp949
a(S'naar'
p950
(dp951
S'CONJ'
p952
F0.006161
sS'ADJ'
p953
F3.4e-05
sS'ADP'
p954
F0.993805
s(lp955
g124
atp956
a(S'gemeenschappelijke'
p957
(dp958
S'NOUN'
p959
F7e-06
sS'ADJ'
p960
F0.999993
s(lp961
g144
atp962
a(S'eu-standpunten'
p963
(dp964
S'NOUN'
p965
F1.0
s(lp966
g137
atp967
a(S'over'
p968
(dp969
S'ADV'
p970
F0.01763
sS'ADP'
p971
F0.98237
s(lp972
g170
atp973
a(S'de'
p974
(dp975
S'DET'
p976
F1.0
s(lp977
g178
atp978
a(S'onderwerpen'
p979
(dp980
S'VERB'
p981
F2e-06
sS'NOUN'
p982
F0.999997
s(lp983
tp984
a(S'waarover'
p985
(dp986
S'ADV'
p987
F1.0
s(lp988
g184
atp989
a(S'in'
p990
(dp991
S'ADV'
p992
F0.009731
sS'VERB'
p993
F3e-06
sS'ADP'
p994
F0.990266
s(lp995
g219
atp996
a(S'de'
p997
(dp998
S'DET'
p999
F1.0
s(lp1000
g225
atp1001
a(S'veiligheidsraad'
p1002
(dp1003
S'NOUN'
p1004
F1.0
s(lp1005
g243
atp1006
a(S'besluiten'
p1007
(dp1008
S'VERB'
p1009
F0.782613
sS'NOUN'
p1010
F0.217387
s(lp1011
tp1012
a(S'zullen'
p1013
(dp1014
S'VERB'
p1015
F0.999681
sS'NOUN'
p1016
F0.000319
s(lp1017
g193
atp1018
a(S'worden'
p1019
(dp1020
S'VERB'
p1021
F0.999999
sS'NOUN'
p1022
F0.0
s(lp1023
g200
atp1024
a(S'genomen'
p1025
(dp1026
S'VERB'
p1027
F0.999985
sS'ADJ'
p1028
F1.5e-05
s(lp1029
g208
atp1030
a(g24
(dp1031
g24
F1.0
s(lp1032
g231
atp1033
a(S'op'
p1034
(dp1035
S'ADV'
p1036
F0.004494
sS'ADJ'
p1037
F0.0
sS'ADP'
p1038
F0.995506
s(lp1039
g237
atp1040
a(S'die'
p1041
(dp1042
S'PRON'
p1043
F1.0
s(lp1044
tp1045
a(S'manier'
p1046
(dp1047
S'NOUN'
p1048
F1.0
s(lp1049
g252
atp1050
a(S'kunnen'
p1051
(dp1052
S'VERB'
p1053
F1.0
sS'NOUN'
p1054
F0.0
s(lp1055
g260
atp1056
a(S'deze'
p1057
(dp1058
S'PRON'
p1059
F1.0
s(lp1060
g266
atp1061
a(S'standpunten'
p1062
(dp1063
S'NOUN'
p1064
F1.0
s(lp1065
g272
atp1066
a(S'worden'
p1067
(dp1068
S'VERB'
p1069
F1.0
sS'NOUN'
p1070
F0.0
s(lp1071
tp1072
a(S'verwezenlijkt'
p1073
(dp1074
S'VERB'
p1075
F1.0
s(lp1076
g40
atp1077
a(S'door'
p1078
(dp1079
S'ADV'
p1080
F1e-06
sS'CONJ'
p1081
F1.6e-05
sS'ADP'
p1082
F0.999984
s(lp1083
g304
atp1084
a(S'gezamenlijk'
p1085
(dp1086
S'ADJ'
p1087
F1.0
s(lp1088
g349
atp1089
a(S'te'
p1090
(dp1091
S'PRT'
p1092
F1.0
s(lp1093
tp1094
a(S'stemmen'
p1095
(dp1096
S'VERB'
p1097
F0.937952
sS'NOUN'
p1098
F0.062048
s(lp1099
g342
atp1100
a(S'en'
p1101
(dp1102
S'CONJ'
p1103
F1.0
s(lp1104
g355
atp1105
a(S'kan'
p1106
(dp1107
S'VERB'
p1108
F0.999868
sS'NOUN'
p1109
F0.000132
s(lp1110
g712
atp1111
a(S'voorkomen'
p1112
(dp1113
S'VERB'
p1114
F0.9997240000000001
sS'NOUN'
p1115
F0.000276
s(lp1116
g327
atp1117
a(S'worden'
p1118
(dp1119
S'VERB'
p1120
F0.999999
sS'NOUN'
p1121
F0.0
s(lp1122
tp1123
a(S'dat'
p1124
(dp1125
S'PRON'
p1126
F0.01105
sS'CONJ'
p1127
F0.98895
s(lp1128
g327
atp1129
a(S'de'
p1130
(dp1131
S'DET'
p1132
F1.0
s(lp1133
tp1134
a(S'verdeeldheid'
p1135
(dp1136
S'NOUN'
p1137
F1.0
s(lp1138
g40
atp1139
a(S'uit'
p1140
(dp1141
S'ADV'
p1142
F0.056844
sS'VERB'
p1143
F3.8e-05
sS'ADP'
p1144
F0.943118
s(lp1145
g382
atp1146
a(S'het'
p1147
(dp1148
S'PRON'
p1149
F0.008879999999999999
sS'DET'
p1150
F0.99112
s(lp1151
g335
atp1152
a(S'verleden'
p1153
(dp1154
S'ADJ'
p1155
F8e-06
sS'VERB'
p1156
F0.008002
sS'NOUN'
p1157
F0.991991
s(lp1158
g390
atp1159
a(S'zich'
p1160
(dp1161
S'PRON'
p1162
F1.0
s(lp1163
g363
atp1164
a(S'opnieuw'
p1165
(dp1166
S'ADV'
p1167
F1.0
s(lp1168
tp1169
a(S'voordoet'
p1170
(dp1171
S'VERB'
p1172
F1.0
s(lp1173
g40
atp1174
a(g24
(dp1175
g24
F1.0
s(lp1176
g24
atp1177
asS'de'
p1178
(lp1179
(S'dieser'
p1180
(dp1181
S'PRON'
p1182
F1.0
s(lp1183
g7
atp1184
a(S'bericht'
p1185
(dp1186
S'ADJ'
p1187
F0.000136
sS'NOUN'
p1188
F0.999771
s(lp1189
g13
atp1190
a(S'fordert'
p1191
(dp1192
S'VERB'
p1193
F1.0
s(lp1194
g20
atp1195
a(S'die'
p1196
(dp1197
S'PRON'
p1198
F0.002689
sS'DET'
p1199
F0.99731
s(lp1200
g67
atp1201
a(S'hohe'
p1202
(dp1203
S'ADJ'
p1204
F1.0
s(lp1205
g74
atp1206
a(S'vertreterin'
p1207
(dp1208
S'VERB'
p1209
F0.002429
sS'NOUN'
p1210
F0.994655
s(lp1211
g80
atp1212
a(S'der'
p1213
(dp1214
S'PRON'
p1215
F4.4e-05
sS'DET'
p1216
F0.999933
s(lp1217
g158
atp1218
a(S'union'
p1219
(dp1220
S'ADJ'
p1221
F0.023734
sS'NOUN'
p1222
F0.961669
s(lp1223
g164
atp1224
a(S'f\xc3\xbcr'
p1225
(dp1226
S'ADP'
p1227
F1.0
s(lp1228
g463
atp1229
a(S'au\xc3\x9fen-'
p1230
(dp1231
g38
F1.0
s(lp1232
g131
atp1233
a(S'und'
p1234
(dp1235
S'CONJ'
p1236
F1.0
s(lp1237
g31
atp1238
a(S'sicherheitspolitik'
p1239
(dp1240
S'VERB'
p1241
F0.013426
sS'NOUN'
p1242
F0.979971
s(lp1243
g312
atp1244
a(g86
(dp1245
g24
F1.0
s(lp1246
g86
atp1247
a(S'die'
p1248
(dp1249
S'PRON'
p1250
F0.017287
sS'DET'
p1251
F0.977609
s(lp1252
g106
atp1253
a(S'vizepr\xc3\xa4sidentin'
p1254
(dp1255
S'ADJ'
p1256
F0.016192
sS'NOUN'
p1257
F0.964404
s(lp1258
g92
atp1259
a(S'der'
p1260
(dp1261
S'PRON'
p1262
F0.000156
sS'DET'
p1263
F0.999695
s(lp1264
g98
atp1265
a(S'kommission'
p1266
(dp1267
S'ADJ'
p1268
F0.051238
sS'NOUN'
p1269
F0.947262
s(lp1270
g112
atp1271
a(S'auf'
p1272
(dp1273
S'ADV'
p1274
F4.1e-05
sS'PRT'
p1275
F0.999925
s(lp1276
tp1277
a(g22
(dp1278
g24
F1.0
s(lp1279
tp1280
a(S'etwas'
p1281
(dp1282
S'ADV'
p1283
F0.286862
sS'PRON'
p1284
F0.711182
s(lp1285
tp1286
a(S'zu'
p1287
(dp1288
S'PRT'
p1289
F0.9998919999999999
s(lp1290
g513
atp1291
a(S'tun'
p1292
(dp1293
S'VERB'
p1294
F1.0
s(lp1295
g520
atp1296
a(g22
(dp1297
g24
F1.0
s(lp1298
g532
atp1299
a(S'was'
p1300
(dp1301
S'PRON'
p1302
F0.99925
s(lp1303
g526
atp1304
a(S'ich'
p1305
(dp1306
S'PRON'
p1307
F1.0
s(lp1308
g539
atp1309
a(S'f\xc3\xbcr'
p1310
(dp1311
S'ADP'
p1312
F1.0
s(lp1313
tp1314
a(S'sehr'
p1315
(dp1316
S'ADV'
p1317
F1.0
s(lp1318
g549
atp1319
a(S'wichtig'
p1320
(dp1321
S'ADJ'
p1322
F1.0
s(lp1323
g555
atp1324
a(S'erachte'
p1325
(dp1326
S'VERB'
p1327
F1.0
s(lp1328
g544
atp1329
a(g22
(dp1330
g24
F1.0
s(lp1331
g22
atp1332
a(S'd.'
p1333
(dp1334
S'PRON'
p1335
F0.992599
sS'DET'
p1336
F0.007401
s(lp1337
tp1338
a(S'h.'
p1339
(dp1340
S'VERB'
p1341
F1.0
s(lp1342
g563
atp1343
a(S'gemeinsame'
p1344
(dp1345
S'ADJ'
p1346
F1.0
s(lp1347
g144
atp1348
a(S'eu-positionen'
p1349
(dp1350
S'ADJ'
p1351
F0.00231
sS'NOUN'
p1352
F0.99563
s(lp1353
tp1354
a(S'bei'
p1355
(dp1356
S'PRT'
p1357
F0.000184
sS'ADP'
p1358
F0.999816
s(lp1359
g237
atp1360
a(S'den'
p1361
(dp1362
S'PRON'
p1363
F9.7e-05
sS'DET'
p1364
F0.9999
s(lp1365
tp1366
a(S'themen'
p1367
(dp1368
S'ADJ'
p1369
F0.023548
sS'NOUN'
p1370
F0.974088
s(lp1371
g184
atp1372
a(S'einzunehmen'
p1373
(dp1374
S'VERB'
p1375
F1.0
s(lp1376
g137
atp1377
a(g22
(dp1378
g24
F1.0
s(lp1379
g193
atp1380
a(S'\xc3\xbcber'
p1381
(dp1382
S'PRT'
p1383
F2e-05
sS'ADP'
p1384
F0.99998
s(lp1385
g170
atp1386
a(S'die'
p1387
(dp1388
S'PRON'
p1389
F0.008424
sS'DET'
p1390
F0.98773
s(lp1391
g178
atp1392
a(S'im'
p1393
(dp1394
S'ADP'
p1395
F1.0
s(lp1396
g219
atp1397
a(S'sicherheitsrat'
p1398
(dp1399
S'ADJ'
p1400
F6.9e-05
sS'NOUN'
p1401
F0.999907
s(lp1402
g243
atp1403
a(S'eine'
p1404
(dp1405
S'NUM'
p1406
F0.000263
sS'DET'
p1407
F0.999631
s(lp1408
tp1409
a(S'entscheidung'
p1410
(dp1411
S'ADJ'
p1412
F0.000253
sS'NOUN'
p1413
F0.999634
s(lp1414
g40
atp1415
a(S'getroffen'
p1416
(dp1417
S'VERB'
p1418
F0.997793
sS'ADJ'
p1419
F0.002207
s(lp1420
g40
atp1421
a(S'wird'
p1422
(dp1423
S'VERB'
p1424
F1.0
s(lp1425
g200
atp1426
a(g22
(dp1427
g24
F1.0
s(lp1428
tp1429
a(S'um'
p1430
(dp1431
S'CONJ'
p1432
F0.588905
sS'ADP'
p1433
F0.411043
s(lp1434
g252
atp1435
a(S'diese'
p1436
(dp1437
S'PRON'
p1438
F1.0
s(lp1439
g266
atp1440
a(S'positionen'
p1441
(dp1442
S'ADJ'
p1443
F0.018974
sS'NOUN'
p1444
F0.972459
s(lp1445
g272
atp1446
a(S'\xc3\xbcber'
p1447
(dp1448
S'PRT'
p1449
F0.000185
sS'ADP'
p1450
F0.999815
s(lp1451
g304
atp1452
a(S'gemeinsame'
p1453
(dp1454
S'ADJ'
p1455
F1.0
s(lp1456
g349
atp1457
a(S'abstimmungen'
p1458
(dp1459
S'ADJ'
p1460
F1.9e-05
sS'NOUN'
p1461
F0.999978
s(lp1462
g342
atp1463
a(S'zu'
p1464
(dp1465
S'PRT'
p1466
F0.9999739999999999
s(lp1467
g24
atp1468
a(S'implementieren'
p1469
(dp1470
S'VERB'
p1471
F1.0
s(lp1472
g291
atp1473
a(S'und'
p1474
(dp1475
S'CONJ'
p1476
F1.0
s(lp1477
g355
atp1478
a(S'eine'
p1479
(dp1480
S'PRON'
p1481
F0.000658
sS'DET'
p1482
F0.999177
s(lp1483
g335
atp1484
a(S'wiederholung'
p1485
(dp1486
S'ADJ'
p1487
F0.016387
sS'NOUN'
p1488
F0.983043
s(lp1489
g363
atp1490
a(S'fr\xc3\xbcherer'
p1491
(dp1492
S'ADJ'
p1493
F1.0
s(lp1494
g390
atp1495
a(S'meinungsverschiedenheiten'
p1496
(dp1497
S'ADJ'
p1498
F0.074765
sS'NOUN'
p1499
F0.922949
s(lp1500
tp1501
a(S'zu'
p1502
(dp1503
S'PRT'
p1504
F0.077102
sS'ADP'
p1505
F0.919318
s(lp1506
g260
atp1507
a(S'vermeiden.-'
p1508
(dp1509
g38
F0.234491
sS'NOUN'
p1510
F0.681421
s(lp1511
g40
atp1512
asS'it'
p1513
(lp1514
(S'la'
p1515
(dp1516
S'PRON'
p1517
F0.000408
sS'DET'
p1518
F0.999592
s(lp1519
g7
atp1520
a(S'relazione'
p1521
(dp1522
S'NOUN'
p1523
F1.0
s(lp1524
g13
atp1525
a(S'invita'
p1526
(dp1527
S'VERB'
p1528
F1.0
s(lp1529
g20
atp1530
a(S"l'"
p1531
(dp1532
S'NOUN'
p1533
F0.000971
sS'VERB'
p1534
F0.983276
sS'ADJ'
p1535
F0.015752
s(lp1536
g67
atp1537
a(S'alto'
p1538
(dp1539
S'NOUN'
p1540
F0.06989
sS'ADJ'
p1541
F0.93011
s(lp1542
g74
atp1543
a(S'rappresentante'
p1544
(dp1545
S'ADJ'
p1546
F0.383805
sS'VERB'
p1547
F0.014006
sS'NOUN'
p1548
F0.602189
s(lp1549
g80
atp1550
a(S"dell'"
p1551
(dp1552
S'ADJ'
p1553
F0.024805
sS'VERB'
p1554
F0.004019
sS'NOUN'
p1555
F0.971177
s(lp1556
g150
atp1557
a(S'unione'
p1558
(dp1559
S'NOUN'
p1560
F1.0
s(lp1561
g164
atp1562
a(S'per'
p1563
(dp1564
S'CONJ'
p1565
F0.052975
sS'ADP'
p1566
F0.947025
s(lp1567
g463
atp1568
a(S'gli'
p1569
(dp1570
S'PRON'
p1571
F0.000471
sS'DET'
p1572
F0.999529
s(lp1573
tp1574
a(S'affari'
p1575
(dp1576
S'NOUN'
p1577
F1.0
s(lp1578
g473
atp1579
a(S'esteri'
p1580
(dp1581
S'NOUN'
p1582
F0.009304
sS'ADJ'
p1583
F0.990696
s(lp1584
g131
atp1585
a(S'e'
p1586
(dp1587
S'CONJ'
p1588
F1.0
s(lp1589
g31
atp1590
a(S'la'
p1591
(dp1592
S'PRON'
p1593
F0.000583
sS'DET'
p1594
F0.999417
s(lp1595
tp1596
a(S'politica'
p1597
(dp1598
S'ADJ'
p1599
F0.083282
sS'NOUN'
p1600
F0.916718
s(lp1601
g487
atp1602
a(S'di'
p1603
(dp1604
S'CONJ'
p1605
F4e-06
sS'ADP'
p1606
F0.999996
s(lp1607
tp1608
a(S'sicurezza'
p1609
(dp1610
S'NOUN'
p1611
F1.0
s(lp1612
g312
atp1613
a(g86
(dp1614
g38
F2.9e-05
sg24
F0.999971
s(lp1615
g86
atp1616
a(S'vicepresidente'
p1617
(dp1618
S'NOUN'
p1619
F1.0
s(lp1620
g92
atp1621
a(S'della'
p1622
(dp1623
S'DEF'
p1624
F0.001587
sS'ADP'
p1625
F0.998413
s(lp1626
g98
atp1627
a(S'commissione'
p1628
(dp1629
S'NOUN'
p1630
F1.0
s(lp1631
g112
atp1632
a(g335
(dp1633
S'CONJ'
p1634
F0.000335
sS'ADP'
p1635
F0.999665
s(lp1636
g513
atp1637
a(S'fare'
p1638
(dp1639
S'VERB'
p1640
F1.0
s(lp1641
g520
atp1642
a(S'una'
p1643
(dp1644
S'PRON'
p1645
F0.000112
sS'DEF'
p1646
F0.999888
s(lp1647
tp1648
a(S'cosa'
p1649
(dp1650
S'NOUN'
p1651
F1.0
s(lp1652
g526
atp1653
a(S'da'
p1654
(dp1655
S'ADP'
p1656
F1.0
s(lp1657
g532
atp1658
a(S'me'
p1659
(dp1660
S'PRON'
p1661
F1.0
s(lp1662
g539
atp1663
a(S'ritenuta'
p1664
(dp1665
S'VERB'
p1666
F0.27608
sS'NOUN'
p1667
F0.72392
s(lp1668
g544
atp1669
a(S'importante'
p1670
(dp1671
S'NOUN'
p1672
F0.013596
sS'VERB'
p1673
F0.023713
sS'ADJ'
p1674
F0.962691
s(lp1675
g555
atp1676
a(g22
(dp1677
g24
F1.0
s(lp1678
g22
atp1679
a(S'vale'
p1680
(dp1681
g38
F2.6e-05
sS'VERB'
p1682
F0.993954
sS'NOUN'
p1683
F0.00602
s(lp1684
tp1685
a(g335
(dp1686
S'CONJ'
p1687
F0.000132
sS'ADP'
p1688
F0.999868
s(lp1689
tp1690
a(S'dire'
p1691
(dp1692
S'VERB'
p1693
F0.99973
sS'ADJ'
p1694
F0.00027
s(lp1695
g563
atp1696
a(S'cercare'
p1697
(dp1698
S'VERB'
p1699
F1.0
s(lp1700
g124
atp1701
a(S'di'
p1702
(dp1703
S'CONJ'
p1704
F1e-06
sS'ADP'
p1705
F0.999999
s(lp1706
g118
atp1707
a(S'addivenire'
p1708
(dp1709
S'VERB'
p1710
F1.0
s(lp1711
g40
atp1712
a(g335
(dp1713
S'CONJ'
p1714
F7.5e-05
sS'ADP'
p1715
F0.999925
s(lp1716
tp1717
a(S'posizioni'
p1718
(dp1719
S'VERB'
p1720
F0.00508
sS'NOUN'
p1721
F0.99492
s(lp1722
g137
atp1723
a(S'ue'
p1724
(dp1725
S'ADJ'
p1726
F0.169179
sS'VERB'
p1727
F0.120195
sS'NOUN'
p1728
F0.710626
s(lp1729
g586
atp1730
a(S'comuni'
p1731
(dp1732
S'ADJ'
p1733
F0.210415
sS'NOUN'
p1734
F0.789585
s(lp1735
g144
atp1736
a(S'sui'
p1737
(dp1738
S'ADP'
p1739
F1.0
s(lp1740
g170
atp1741
a(S'temi'
p1742
(dp1743
S'VERB'
p1744
F0.001296
sS'NOUN'
p1745
F0.998703
s(lp1746
tp1747
a(S'oggetto'
p1748
(dp1749
S'ADJ'
p1750
F0.4794
sS'NOUN'
p1751
F0.5206
s(lp1752
g184
atp1753
a(S'di'
p1754
(dp1755
S'CONJ'
p1756
F4e-06
sS'ADP'
p1757
F0.999996
s(lp1758
g193
atp1759
a(S'decisione'
p1760
(dp1761
S'NOUN'
p1762
F1.0
s(lp1763
g208
atp1764
a(S'in'
p1765
(dp1766
S'ADP'
p1767
F1.0
s(lp1768
g219
atp1769
a(S'seno'
p1770
(dp1771
S'NOUN'
p1772
F1.0
s(lp1773
tp1774
a(S'al'
p1775
(dp1776
S'ADP'
p1777
F1.0
s(lp1778
g225
atp1779
a(S'consiglio'
p1780
(dp1781
S'VERB'
p1782
F0.000353
sS'NOUN'
p1783
F0.999647
s(lp1784
g231
atp1785
a(S'di'
p1786
(dp1787
S'CONJ'
p1788
F4e-06
sS'ADP'
p1789
F0.999996
s(lp1790
tp1791
a(S'sicurezza'
p1792
(dp1793
S'NOUN'
p1794
F1.0
s(lp1795
g243
atp1796
a(g22
(dp1797
g24
F1.0
s(lp1798
tp1799
a(S'al'
p1800
(dp1801
S'ADP'
p1802
F1.0
s(lp1803
g237
atp1804
a(S'fine'
p1805
(dp1806
S'ADJ'
p1807
F0.01644
sS'NOUN'
p1808
F0.98356
s(lp1809
g252
atp1810
a(S'di'
p1811
(dp1812
S'CONJ'
p1813
F6e-06
sS'ADP'
p1814
F0.999994
s(lp1815
g260
atp1816
a(S'attuare'
p1817
(dp1818
S'VERB'
p1819
F1.0
s(lp1820
g291
atp1821
a(S'tali'
p1822
(dp1823
S'PRON'
p1824
F0.999939
sS'NOUN'
p1825
F6.1e-05
s(lp1826
g266
atp1827
a(S'posizioni'
p1828
(dp1829
S'VERB'
p1830
F0.000339
sS'NOUN'
p1831
F0.999661
s(lp1832
g272
atp1833
a(S'attraverso'
p1834
(dp1835
S'ADV'
p1836
F0.040685
sS'VERB'
p1837
F0.002362
sS'ADP'
p1838
F0.956954
s(lp1839
g304
atp1840
a(S'votazioni'
p1841
(dp1842
S'NOUN'
p1843
F1.0
s(lp1844
g342
atp1845
a(S'congiunte'
p1846
(dp1847
S'NOUN'
p1848
F0.044413
sS'VERB'
p1849
F0.377862
sS'ADJ'
p1850
F0.577725
s(lp1851
g349
atp1852
a(g1586
(dp1853
S'CONJ'
p1854
F1.0
s(lp1855
g355
atp1856
a(S'per'
p1857
(dp1858
S'CONJ'
p1859
F0.002705
sS'ADP'
p1860
F0.997295
s(lp1861
g712
atp1862
a(S'evitare'
p1863
(dp1864
S'VERB'
p1865
F1.0
s(lp1866
g327
atp1867
a(S'il'
p1868
(dp1869
S'DET'
p1870
F1.0
s(lp1871
g335
atp1872
a(S'ripresentarsi'
p1873
(dp1874
S'VERB'
p1875
F1.0
s(lp1876
tp1877
a(S'dei'
p1878
(dp1879
S'NOUN'
p1880
F3e-06
sS'DEF'
p1881
F0.023871
sS'ADP'
p1882
F0.976126
s(lp1883
g382
atp1884
a(S'dissensi'
p1885
(dp1886
S'NOUN'
p1887
F1.0
s(lp1888
g40
atp1889
a(S'passati'
p1890
(dp1891
S'NOUN'
p1892
F0.006192
sS'VERB'
p1893
F0.059585
sS'ADJ'
p1894
F0.934222
s(lp1895
g390
atp1896
a(g24
(dp1897
g24
F1.0
s(lp1898
g24
atp1899
asS'sk'
p1900
(lp1901
(S't\xc3\xa1to'
p1902
(dp1903
S'PRON'
p1904
F1.0
s(lp1905
g7
atp1906
a(S'spr\xc3\xa1va'
p1907
(dp1908
S'VERB'
p1909
F0.000353
sS'NOUN'
p1910
F0.999647
s(lp1911
g13
atp1912
a(S'vyz\xc3\xbdva'
p1913
(dp1914
S'VERB'
p1915
F1.0
s(lp1916
g20
atp1917
a(S'vysok\xc3\xba'
p1918
(dp1919
S'NOUN'
p1920
F0.000665
sS'ADJ'
p1921
F0.999335
s(lp1922
g74
atp1923
a(S'predstavite\xc4\xbeku'
p1924
(dp1925
S'NOUN'
p1926
F1.0
s(lp1927
g80
atp1928
a(S'\xc3\x9anie'
p1929
(dp1930
S'NOUN'
p1931
F1.0
s(lp1932
g164
atp1933
a(S'pre'
p1934
(dp1935
g38
F8e-05
sS'ADP'
p1936
F0.99992
s(lp1937
g463
atp1938
a(S'zahrani\xc4\x8dn\xc3\xa9'
p1939
(dp1940
S'ADJ'
p1941
F1.0
s(lp1942
g131
atp1943
a(S'veci'
p1944
(dp1945
S'NOUN'
p1946
F1.0
s(lp1947
g473
atp1948
a(g335
(dp1949
g38
F0.000465
sS'CONJ'
p1950
F0.998965
sS'NOUN'
p1951
F5.2000000000000004e-05
sS'ADP'
p1952
F0.000488
sS'PRT'
p1953
F3.1e-05
s(lp1954
g31
atp1955
a(S'bezpe\xc4\x8dnostn\xc3\xba'
p1956
(dp1957
S'ADJ'
p1958
F1.0
s(lp1959
g312
atp1960
a(S'politiku'
p1961
(dp1962
S'NOUN'
p1963
F1.0
s(lp1964
g487
atp1965
a(g86
(dp1966
g24
F1.0
s(lp1967
g86
atp1968
a(S'podpredsedn\xc3\xad\xc4\x8dku'
p1969
(dp1970
S'NOUN'
p1971
F1.0
s(lp1972
g92
atp1973
a(S'komisie'
p1974
(dp1975
S'NOUN'
p1976
F1.0
s(lp1977
g112
atp1978
a(g22
(dp1979
g24
F1.0
s(lp1980
tp1981
a(S'aby'
p1982
(dp1983
g38
F5.2e-05
sS'CONJ'
p1984
F0.999948
s(lp1985
g513
atp1986
a(S'urobila'
p1987
(dp1988
S'VERB'
p1989
F1.0
s(lp1990
g520
atp1991
a(S'nie\xc4\x8do'
p1992
(dp1993
S'PRON'
p1994
F1.0
s(lp1995
tp1996
a(g22
(dp1997
g24
F1.0
s(lp1998
g532
atp1999
a(S'\xc4\x8do'
p2000
(dp2001
S'PRON'
p2002
F0.442318
sS'CONJ'
p2003
F0.527899
sg38
F0.029784
s(lp2004
g526
atp2005
a(S'pova\xc5\xbeujem'
p2006
(dp2007
S'VERB'
p2008
F1.0
s(lp2009
tp2010
a(S'za'
p2011
(dp2012
S'PRT'
p2013
F0.047993
sS'ADP'
p2014
F0.933426
sg38
F0.018581
s(lp2015
g544
atp2016
a(S've\xc4\xbemi'
p2017
(dp2018
S'ADV'
p2019
F1.0
s(lp2020
g549
atp2021
a(S'd\xc3\xb4le\xc5\xbeit\xc3\xa9'
p2022
(dp2023
S'ADJ'
p2024
F1.0
s(lp2025
g555
atp2026
a(g22
(dp2027
g24
F1.0
s(lp2028
g22
atp2029
a(g335
(dp2030
g38
F0.000231
sS'CONJ'
p2031
F0.999744
sS'NOUN'
p2032
F2e-06
sS'ADP'
p2033
F1.8e-05
sS'PRT'
p2034
F5e-06
s(lp2035
tp2036
a(S'to'
p2037
(dp2038
S'PRON'
p2039
F0.9874809999999999
sS'CONJ'
p2040
F0.001104
sg38
F0.011415000000000002
s(lp2041
g563
atp2042
a(g22
(dp2043
g24
F1.0
s(lp2044
g22
atp2045
a(S'aby'
p2046
(dp2047
g38
F6.7e-05
sS'CONJ'
p2048
F0.999933
s(lp2049
g118
atp2050
a(S'sa'
p2051
(dp2052
S'PRT'
p2053
F0.999995
sS'ADP'
p2054
F0.0
sg38
F5e-06
s(lp2055
g124
atp2056
a(S'sna\xc5\xbeila'
p2057
(dp2058
S'VERB'
p2059
F0.999999
s(lp2060
tp2061
a(S'n\xc3\xa1js\xc5\xa5'
p2062
(dp2063
S'VERB'
p2064
F1.0
s(lp2065
g124
atp2066
a(S'spolo\xc4\x8dn\xc3\xa9'
p2067
(dp2068
S'ADJ'
p2069
F1.0
s(lp2070
g144
atp2071
a(S'poz\xc3\xadcie'
p2072
(dp2073
S'NOUN'
p2074
F1.0
s(lp2075
g137
atp2076
a(S'e\xc3\x9a'
p2077
(dp2078
S'ADV'
p2079
F0.001984
sS'ADJ'
p2080
F0.031287
sS'VERB'
p2081
F0.856793
sS'NOUN'
p2082
F0.10833499999999999
sg38
F0.001601
s(lp2083
g586
atp2084
a(S'v'
p2085
(dp2086
g38
F0.000381
sS'ADP'
p2087
F0.999619
s(lp2088
g178
atp2089
a(S'ot\xc3\xa1zkach'
p2090
(dp2091
S'NOUN'
p2092
F1.0
s(lp2093
tp2094
a(g22
(dp2095
g24
F1.0
s(lp2096
tp2097
a(S'o'
p2098
(dp2099
g38
F0.00020999999999999998
sS'CONJ'
p2100
F0.00254
sS'NOUN'
p2101
F1.3000000000000001e-05
sS'ADP'
p2102
F0.997237
s(lp2103
g170
atp2104
a(S'ktor\xc3\xbdch'
p2105
(dp2106
S'PRON'
p2107
F1.0
s(lp2108
g184
atp2109
a(S'sa'
p2110
(dp2111
S'PRT'
p2112
F0.999952
sS'ADP'
p2113
F0.0
sg38
F4.7999999999999994e-05
s(lp2114
tp2115
a(S'm\xc3\xa1'
p2116
(dp2117
g38
F0.0
sS'VERB'
p2118
F1.0
s(lp2119
g200
atp2120
a(S'rozhodova\xc5\xa5'
p2121
(dp2122
S'VERB'
p2123
F1.0
s(lp2124
g208
atp2125
a(g2085
(dp2126
g38
F7.099999999999999e-05
sS'ADP'
p2127
F0.999929
s(lp2128
g219
atp2129
a(S'bezpe\xc4\x8dnostnej'
p2130
(dp2131
S'ADJ'
p2132
F1.0
s(lp2133
g243
atp2134
a(S'rade'
p2135
(dp2136
S'NOUN'
p2137
F1.0
s(lp2138
g231
atp2139
a(g22
(dp2140
g24
F1.0
s(lp2141
tp2142
a(S's'
p2143
(dp2144
g38
F0.0047209999999999995
sS'CONJ'
p2145
F0.001247
sS'NOUN'
p2146
F1.4000000000000001e-05
sS'ADP'
p2147
F0.993987
sS'PRT'
p2148
F3.1e-05
s(lp2149
tp2150
a(S'cie\xc4\xbeom'
p2151
(dp2152
S'NOUN'
p2153
F1.0
s(lp2154
g252
atp2155
a(S'uplatni\xc5\xa5'
p2156
(dp2157
S'VERB'
p2158
F1.0
s(lp2159
g291
atp2160
a(S'tieto'
p2161
(dp2162
S'PRON'
p2163
F1.0
s(lp2164
g266
atp2165
a(S'poz\xc3\xadcie'
p2166
(dp2167
S'NOUN'
p2168
F1.0
s(lp2169
g272
atp2170
a(S'pomocou'
p2171
(dp2172
S'NOUN'
p2173
F0.042082
sS'ADP'
p2174
F0.957918
s(lp2175
g304
atp2176
a(S'postupov'
p2177
(dp2178
S'NOUN'
p2179
F1.0
s(lp2180
g371
atp2181
a(S'spolo\xc4\x8dn\xc3\xa9ho'
p2182
(dp2183
S'ADJ'
p2184
F1.0
s(lp2185
g349
atp2186
a(S'hlasovania'
p2187
(dp2188
S'NOUN'
p2189
F1.0
s(lp2190
g342
atp2191
a(g335
(dp2192
g38
F0.0026279999999999997
sS'CONJ'
p2193
F0.996882
sS'NOUN'
p2194
F0.000221
sS'ADP'
p2195
F0.0
sS'PRT'
p2196
F0.000268
s(lp2197
g355
atp2198
a(S'vyhn\xc3\xba\xc5\xa5'
p2199
(dp2200
S'VERB'
p2201
F1.0
s(lp2202
g327
atp2203
a(S'sa'
p2204
(dp2205
S'PRT'
p2206
F0.999753
sS'ADP'
p2207
F6e-06
sg38
F0.000241
s(lp2208
tp2209
a(S'tak'
p2210
(dp2211
g38
F0.561024
sS'CONJ'
p2212
F0.051571
sS'PRON'
p2213
F0.387405
s(lp2214
g327
atp2215
a(S'opakovaniu'
p2216
(dp2217
S'NOUN'
p2218
F1.0
s(lp2219
g363
atp2220
a(S'nezh\xc3\xb4d'
p2221
(dp2222
S'NOUN'
p2223
F1.0
s(lp2224
g40
atp2225
a(S'z'
p2226
(dp2227
g38
F3.5000000000000004e-05
sS'NOUN'
p2228
F1.5e-05
sS'ADP'
p2229
F0.999949
s(lp2230
g382
atp2231
a(S'minulosti'
p2232
(dp2233
S'NOUN'
p2234
F1.0
s(lp2235
g390
atp2236
a(g24
(dp2237
g24
F1.0
s(lp2238
g24
atp2239
asS'pl'
p2240
(lp2241
(S'przedmiotowe'
p2242
(dp2243
S'ADJ'
p2244
F1.0
s(lp2245
g7
atp2246
a(S'sprawozdanie'
p2247
(dp2248
S'NOUN'
p2249
F1.0
s(lp2250
g13
atp2251
a(S'zach\xc4\x99ca'
p2252
(dp2253
S'VERB'
p2254
F1.0
s(lp2255
g20
atp2256
a(S'wysok\xc4\x85'
p2257
(dp2258
S'ADJ'
p2259
F1.0
s(lp2260
g74
atp2261
a(S'przedstawiciel'
p2262
(dp2263
S'NOUN'
p2264
F1.0
s(lp2265
g80
atp2266
a(S'unii'
p2267
(dp2268
S'NOUN'
p2269
F1.0
s(lp2270
g164
atp2271
a(S'do'
p2272
(dp2273
g38
F0.0
sS'NOUN'
p2274
F4e-06
sS'ADP'
p2275
F0.999996
s(lp2276
g463
atp2277
a(S'spraw'
p2278
(dp2279
S'VERB'
p2280
F0.0
sS'NOUN'
p2281
F1.0
s(lp2282
g473
atp2283
a(S'zagranicznych'
p2284
(dp2285
S'ADJ'
p2286
F1.000001
s(lp2287
g131
atp2288
a(g539
(dp2289
S'PRT'
p2290
F0.001297
sS'CONJ'
p2291
F0.998412
sS'NOUN'
p2292
F8.5e-05
sg38
F1e-06
sS'PRON'
p2293
F0.000205
s(lp2294
g31
atp2295
a(S'polityki'
p2296
(dp2297
S'NOUN'
p2298
F1.0
s(lp2299
g487
atp2300
a(S'bezpiecze\xc5\x84stwa'
p2301
(dp2302
S'NOUN'
p2303
F1.0
s(lp2304
g312
atp2305
a(g86
(dp2306
g24
F1.0
s(lp2307
g86
atp2308
a(S'wiceprzewodnicz\xc4\x85c\xc4\x85'
p2309
(dp2310
S'ADV'
p2311
F0.000145
sS'ADJ'
p2312
F0.000122
sS'VERB'
p2313
F0.08667399999999999
sS'NOUN'
p2314
F0.91306
s(lp2315
g92
atp2316
a(S'komisji'
p2317
(dp2318
S'NOUN'
p2319
F1.000001
s(lp2320
g112
atp2321
a(S'do'
p2322
(dp2323
g38
F0.0
sS'NOUN'
p2324
F2e-06
sS'ADP'
p2325
F0.999998
s(lp2326
g513
atp2327
a(S'dokonania'
p2328
(dp2329
S'VERB'
p2330
F0.993763
sS'NOUN'
p2331
F0.0062369999999999995
s(lp2332
g520
atp2333
a(S'czego\xc5\x9b'
p2334
(dp2335
S'ADV'
p2336
F0.000228
sS'NOUN'
p2337
F0.999772
s(lp2338
tp2339
a(g22
(dp2340
g38
F0.0
sg24
F1.0
s(lp2341
g532
atp2342
a(S'co'
p2343
(dp2344
S'PRT'
p2345
F0.006099
sS'CONJ'
p2346
F0.8607309999999999
sS'NOUN'
p2347
F0.120423
sS'ADP'
p2348
F0.012747
s(lp2349
g526
atp2350
a(S'ja'
p2351
(dp2352
S'PRON'
p2353
F0.999955
sS'NOUN'
p2354
F2.3000000000000003e-05
sg38
F0.0
sS'PRT'
p2355
F2.2e-05
s(lp2356
g539
atp2357
a(S'uwa\xc5\xbcam'
p2358
(dp2359
S'VERB'
p2360
F1.0
s(lp2361
tp2362
a(S'za'
p2363
(dp2364
S'PRT'
p2365
F0.078753
sS'VERB'
p2366
F4.4e-05
sS'NOUN'
p2367
F0.000211
sS'ADP'
p2368
F0.9209900000000001
sg38
F1e-06
s(lp2369
g544
atp2370
a(S'bardzo'
p2371
(dp2372
S'ADV'
p2373
F1.0
s(lp2374
g549
atp2375
a(S'wa\xc5\xbcne'
p2376
(dp2377
S'ADJ'
p2378
F0.9999990000000001
s(lp2379
g555
atp2380
a(g22
(dp2381
g38
F0.0
sg24
F1.0
s(lp2382
g22
atp2383
a(g335
(dp2384
S'ADV'
p2385
F0.000142
sS'NOUN'
p2386
F0.0031860000000000005
sS'ADP'
p2387
F3.4e-05
sS'PRT'
p2388
F0.002688
sS'VERB'
p2389
F0.000254
sg38
F0.007479
sS'CONJ'
p2390
F0.985786
sS'ADJ'
p2391
F0.00042899999999999997
s(lp2392
tp2393
a(S'mianowicie'
p2394
(dp2395
S'CONJ'
p2396
F1.0
s(lp2397
g563
atp2398
a(S'do'
p2399
(dp2400
g38
F0.0
sS'NOUN'
p2401
F1e-05
sS'ADP'
p2402
F0.999989
s(lp2403
g118
atp2404
a(S'poszukiwania'
p2405
(dp2406
S'VERB'
p2407
F0.986618
sS'NOUN'
p2408
F0.013380999999999999
s(lp2409
g124
atp2410
a(S'wsp\xc3\xb3lnych'
p2411
(dp2412
S'ADJ'
p2413
F1.0
s(lp2414
g144
atp2415
a(S'stanowisk'
p2416
(dp2417
S'NOUN'
p2418
F1.0
s(lp2419
g137
atp2420
a(S'ue'
p2421
(dp2422
S'ADJ'
p2423
F0.00015000000000000001
sS'VERB'
p2424
F0.0022299999999999998
sS'NOUN'
p2425
F0.99762
s(lp2426
g586
atp2427
a(S'w'
p2428
(dp2429
g38
F0.0
sS'ADJ'
p2430
F0.0
sS'ADP'
p2431
F1.0
sS'NOUN'
p2432
F0.0
s(lp2433
g170
atp2434
a(S'sprawach'
p2435
(dp2436
S'NOUN'
p2437
F1.0
s(lp2438
g184
atp2439
a(g22
(dp2440
g38
F0.0
sg24
F1.0
s(lp2441
tp2442
a(g2428
(dp2443
S'ADJ'
p2444
F0.0
sg38
F2e-06
sS'NOUN'
p2445
F2e-06
sS'ADP'
p2446
F0.999996
s(lp2447
g219
atp2448
a(S'kt\xc3\xb3rych'
p2449
(dp2450
S'ADJ'
p2451
F1.000001
s(lp2452
g40
atp2453
a(S'decyzje'
p2454
(dp2455
S'NOUN'
p2456
F1.0
s(lp2457
g40
atp2458
a(S'zapadn\xc4\x85'
p2459
(dp2460
S'ADV'
p2461
F0.004059
sS'ADJ'
p2462
F0.043588
sS'VERB'
p2463
F0.7781679999999999
sS'NOUN'
p2464
F0.174184
s(lp2465
g40
atp2466
a(g2428
(dp2467
S'ADJ'
p2468
F0.0
sg38
F0.0
sS'NOUN'
p2469
F0.0
sS'ADP'
p2470
F1.0
s(lp2471
g225
atp2472
a(S'radzie'
p2473
(dp2474
S'NOUN'
p2475
F1.0
s(lp2476
g231
atp2477
a(S'bezpiecze\xc5\x84stwa'
p2478
(dp2479
S'NOUN'
p2480
F1.0
s(lp2481
g243
atp2482
a(g2428
(dp2483
S'ADJ'
p2484
F0.0
sg38
F0.0
sS'NOUN'
p2485
F1e-06
sS'ADP'
p2486
F0.9999990000000001
s(lp2487
g237
atp2488
a(S'celu'
p2489
(dp2490
S'NOUN'
p2491
F1.0
s(lp2492
g252
atp2493
a(S'wdra\xc5\xbcania'
p2494
(dp2495
S'VERB'
p2496
F1.0
s(lp2497
g291
atp2498
a(S'tych'
p2499
(dp2500
S'ADJ'
p2501
F0.9999979999999998
s(lp2502
g266
atp2503
a(S'stanowisk'
p2504
(dp2505
S'NOUN'
p2506
F1.0
s(lp2507
g272
atp2508
a(g2428
(dp2509
S'ADJ'
p2510
F0.0
sg38
F0.0
sS'NOUN'
p2511
F0.0
sS'ADP'
p2512
F1.0
s(lp2513
tp2514
a(S'drodze'
p2515
(dp2516
S'NOUN'
p2517
F1.0
s(lp2518
g304
atp2519
a(S'wsp\xc3\xb3lnego'
p2520
(dp2521
S'ADJ'
p2522
F0.9999990000000001
s(lp2523
g349
atp2524
a(S'g\xc5\x82osowania'
p2525
(dp2526
S'VERB'
p2527
F0.134897
sS'NOUN'
p2528
F0.8651019999999999
s(lp2529
g342
atp2530
a(S'oraz'
p2531
(dp2532
S'CONJ'
p2533
F1.0
s(lp2534
g355
atp2535
a(g2428
(dp2536
S'ADJ'
p2537
F0.0
sg38
F0.0
sS'NOUN'
p2538
F1e-06
sS'ADP'
p2539
F0.9999979999999999
s(lp2540
tp2541
a(S'celu'
p2542
(dp2543
S'NOUN'
p2544
F1.0
s(lp2545
g712
atp2546
a(S'unikni\xc4\x99cia'
p2547
(dp2548
S'VERB'
p2549
F1.0
s(lp2550
g327
atp2551
a(S'powt\xc3\xb3rki'
p2552
(dp2553
S'NOUN'
p2554
F1.0
s(lp2555
g363
atp2556
a(S'tar\xc4\x87'
p2557
(dp2558
S'VERB'
p2559
F0.42695999999999995
sS'NOUN'
p2560
F0.5730379999999999
s(lp2561
g40
atp2562
a(g22
(dp2563
g38
F0.0
sg24
F1.0
s(lp2564
tp2565
a(S'jakie'
p2566
(dp2567
S'ADJ'
p2568
F1.0000000000000002
s(lp2569
g40
atp2570
a(S'mia\xc5\x82y'
p2571
(dp2572
S'VERB'
p2573
F1.0
s(lp2574
tp2575
a(S'miejsce'
p2576
(dp2577
S'NOUN'
p2578
F1.0
s(lp2579
g40
atp2580
a(g2428
(dp2581
S'NOUN'
p2582
F1e-06
sS'ADJ'
p2583
F2.9e-05
sS'ADP'
p2584
F0.9999690000000001
sg38
F0.0
s(lp2585
g382
atp2586
a(S'przesz\xc5\x82o\xc5\x9bci'
p2587
(dp2588
S'NOUN'
p2589
F1.0
s(lp2590
g390
atp2591
a(g24
(dp2592
g24
F1.0
s(lp2593
g24
atp2594
asS'sl'
p2595
(lp2596
(S'to'
p2597
(dp2598
S'PRON'
p2599
F0.999969
sg38
F3.1e-05
s(lp2600
g7
atp2601
a(S'poro\xc4\x8dilo'
p2602
(dp2603
S'NOUN'
p2604
F1.0
s(lp2605
g13
atp2606
a(S'vabi'
p2607
(dp2608
S'VERB'
p2609
F0.993494
sS'NOUN'
p2610
F0.006506
s(lp2611
g20
atp2612
a(S'visoko'
p2613
(dp2614
S'ADV'
p2615
F0.00295
sS'ADJ'
p2616
F0.99705
s(lp2617
g74
atp2618
a(S'predstavnico'
p2619
(dp2620
S'NOUN'
p2621
F1.0
s(lp2622
g80
atp2623
a(S'unije'
p2624
(dp2625
S'NOUN'
p2626
F1.0
s(lp2627
g164
atp2628
a(S'za'
p2629
(dp2630
S'ADV'
p2631
F8.7e-05
sg38
F3e-06
sS'ADP'
p2632
F0.99991
s(lp2633
g463
atp2634
a(S'zunanje'
p2635
(dp2636
S'ADV'
p2637
F2.5e-05
sS'ADJ'
p2638
F0.9999749999999998
s(lp2639
g131
atp2640
a(S'zadeve'
p2641
(dp2642
S'NOUN'
p2643
F1.000001
s(lp2644
g473
atp2645
a(S'in'
p2646
(dp2647
S'ADV'
p2648
F8.9e-05
sg38
F1.4e-05
sS'CONJ'
p2649
F0.999895
sS'NOUN'
p2650
F2e-06
s(lp2651
g31
atp2652
a(S'varnostno'
p2653
(dp2654
S'ADV'
p2655
F0.002922
sS'ADJ'
p2656
F0.997078
s(lp2657
g312
atp2658
a(S'politiko'
p2659
(dp2660
S'NOUN'
p2661
F1.0
s(lp2662
g487
atp2663
a(g86
(dp2664
g24
F1.0
s(lp2665
g86
atp2666
a(S'podpredsednico'
p2667
(dp2668
S'NOUN'
p2669
F1.0
s(lp2670
g92
atp2671
a(S'komisije'
p2672
(dp2673
S'NOUN'
p2674
F1.0
s(lp2675
g112
atp2676
a(g22
(dp2677
g24
F1.0
s(lp2678
tp2679
a(S'naj'
p2680
(dp2681
S'PRT'
p2682
F0.546544
sS'CONJ'
p2683
F0.453453
sS'ADJ'
p2684
F2e-06
s(lp2685
g513
atp2686
a(S'stori'
p2687
(dp2688
S'VERB'
p2689
F1.0
s(lp2690
g520
atp2691
a(S'nekaj'
p2692
(dp2693
S'ADV'
p2694
F0.398936
sS'PRON'
p2695
F0.601063
s(lp2696
tp2697
a(g22
(dp2698
g24
F1.0
s(lp2699
g532
atp2700
a(S'kar'
p2701
(dp2702
S'ADV'
p2703
F0.007741
sS'PRON'
p2704
F0.992258
s(lp2705
g526
atp2706
a(S'se'
p2707
(dp2708
S'PRON'
p2709
F1.0
sg38
F0.0
s(lp2710
g539
atp2711
a(S'mi'
p2712
(dp2713
S'PRON'
p2714
F0.999996
sg38
F4e-06
s(lp2715
tp2716
a(S'zdi'
p2717
(dp2718
S'VERB'
p2719
F1.0
s(lp2720
g544
atp2721
a(S'zelo'
p2722
(dp2723
S'ADV'
p2724
F1.0
s(lp2725
g549
atp2726
a(S'pomembno'
p2727
(dp2728
S'ADV'
p2729
F0.186945
sS'ADJ'
p2730
F0.8130550000000001
s(lp2731
g555
atp2732
a(g22
(dp2733
g24
F1.0
s(lp2734
g22
atp2735
a(S'namre\xc4\x8d'
p2736
(dp2737
S'CONJ'
p2738
F1.0
s(lp2739
g563
atp2740
a(g22
(dp2741
g24
F1.0
s(lp2742
g22
atp2743
a(S'naj'
p2744
(dp2745
S'PRT'
p2746
F0.029434
sS'CONJ'
p2747
F0.970565
sS'ADJ'
p2748
F1e-06
s(lp2749
g118
atp2750
a(S'si'
p2751
(dp2752
S'PRON'
p2753
F0.968134
sS'VERB'
p2754
F0.031866
s(lp2755
g124
atp2756
a(S'prizadeva'
p2757
(dp2758
S'VERB'
p2759
F1.0
s(lp2760
tp2761
a(S'za'
p2762
(dp2763
S'ADV'
p2764
F0.000101
sg38
F1e-06
sS'ADP'
p2765
F0.9998980000000001
s(lp2766
g124
atp2767
a(S'skupna'
p2768
(dp2769
S'ADJ'
p2770
F1.0
s(lp2771
g144
atp2772
a(S'stali\xc5\xa1\xc4\x8da'
p2773
(dp2774
S'NOUN'
p2775
F1.0
s(lp2776
g137
atp2777
a(S'eu'
p2778
(dp2779
S'ADV'
p2780
F0.006318
sS'ADJ'
p2781
F0.019669999999999997
sS'VERB'
p2782
F0.002196
sS'NOUN'
p2783
F0.9718160000000001
s(lp2784
g586
atp2785
a(g2098
(dp2786
S'NOUN'
p2787
F1e-05
sS'ADP'
p2788
F0.99999
s(lp2789
g170
atp2790
a(S'temah'
p2791
(dp2792
S'NOUN'
p2793
F1.0
s(lp2794
g184
atp2795
a(g22
(dp2796
g24
F1.0
s(lp2797
tp2798
a(g2098
(dp2799
S'NOUN'
p2800
F7.3e-05
sS'ADP'
p2801
F0.999927
s(lp2802
g193
atp2803
a(S'katerih'
p2804
(dp2805
S'PRON'
p2806
F1.000001
s(lp2807
tp2808
a(S'odlo\xc4\x8da'
p2809
(dp2810
S'VERB'
p2811
F1.0
s(lp2812
g208
atp2813
a(S'varnostni'
p2814
(dp2815
S'ADJ'
p2816
F1.0
s(lp2817
g243
atp2818
a(S'svet'
p2819
(dp2820
S'NOUN'
p2821
F1.0
s(lp2822
g231
atp2823
a(g22
(dp2824
g24
F1.0
s(lp2825
tp2826
a(S'da'
p2827
(dp2828
S'PRT'
p2829
F0.000137
sS'CONJ'
p2830
F0.999855
sS'VERB'
p2831
F8e-06
sg38
F0.0
s(lp2832
tp2833
a(S'bi'
p2834
(dp2835
g38
F1e-06
sS'VERB'
p2836
F0.999999
s(lp2837
g252
atp2838
a(S'se'
p2839
(dp2840
S'PRON'
p2841
F0.999995
sg38
F5e-06
s(lp2842
g260
atp2843
a(S'ta'
p2844
(dp2845
S'PRON'
p2846
F0.999999
s(lp2847
g266
atp2848
a(S'stali\xc5\xa1\xc4\x8da'
p2849
(dp2850
S'NOUN'
p2851
F1.0
s(lp2852
g272
atp2853
a(S'izvedla'
p2854
(dp2855
S'VERB'
p2856
F1.0
s(lp2857
g291
atp2858
a(g2143
(dp2859
S'VERB'
p2860
F1.4e-05
sS'NOUN'
p2861
F5e-06
sS'ADP'
p2862
F0.999981
s(lp2863
tp2864
a(S'pomo\xc4\x8djo'
p2865
(dp2866
S'NOUN'
p2867
F1.0
s(lp2868
g304
atp2869
a(S'skupne'
p2870
(dp2871
S'ADJ'
p2872
F1.0
s(lp2873
g349
atp2874
a(S'volilne'
p2875
(dp2876
S'ADJ'
p2877
F1.0
s(lp2878
g342
atp2879
a(S'prakse'
p2880
(dp2881
S'NOUN'
p2882
F1.0
s(lp2883
g371
atp2884
a(S'in'
p2885
(dp2886
S'ADV'
p2887
F2.6e-05
sg38
F9e-06
sS'CONJ'
p2888
F0.999958
sS'NOUN'
p2889
F6e-06
s(lp2890
g355
atp2891
a(S'bi'
p2892
(dp2893
g38
F2.5e-05
sS'VERB'
p2894
F0.999975
s(lp2895
g712
atp2896
a(S'se'
p2897
(dp2898
S'PRON'
p2899
F0.999997
sg38
F3e-06
s(lp2900
tp2901
a(S'izognili'
p2902
(dp2903
S'VERB'
p2904
F1.0
s(lp2905
g327
atp2906
a(S'ponavljanju'
p2907
(dp2908
S'ADV'
p2909
F0.004738
sS'ADJ'
p2910
F8.7e-05
sS'VERB'
p2911
F0.0035310000000000003
sS'NOUN'
p2912
F0.9916429999999999
s(lp2913
g363
atp2914
a(S'preteklih'
p2915
(dp2916
S'ADJ'
p2917
F1.0
s(lp2918
g390
atp2919
a(S'nesoglasij'
p2920
(dp2921
S'NOUN'
p2922
F1.0
s(lp2923
g40
atp2924
a(g24
(dp2925
g24
F1.0
s(lp2926
g24
atp2927
asS'es'
p2928
(lp2929
(S'este'
p2930
(dp2931
S'PRON'
p2932
F0.999963
sS'NOUN'
p2933
F3.7e-05
s(lp2934
g7
atp2935
a(S'informe'
p2936
(dp2937
S'VERB'
p2938
F0.000418
sS'NOUN'
p2939
F0.999582
s(lp2940
g13
atp2941
a(S'invita'
p2942
(dp2943
S'VERB'
p2944
F1.0
s(lp2945
tp2946
a(g335
(dp2947
g38
F6.4e-05
sS'CONJ'
p2948
F4e-06
sS'ADP'
p2949
F0.999933
s(lp2950
g20
atp2951
a(S'la'
p2952
(dp2953
S'NOUN'
p2954
F4.9e-05
sS'PRON'
p2955
F1e-06
sS'DET'
p2956
F0.999947
sg38
F4e-06
s(lp2957
g67
atp2958
a(S'alta'
p2959
(dp2960
S'ADJ'
p2961
F1.0
s(lp2962
g74
atp2963
a(S'representante'
p2964
(dp2965
S'NOUN'
p2966
F1.0
s(lp2967
g80
atp2968
a(S'de'
p2969
(dp2970
g38
F0.0
sS'CONJ'
p2971
F1.7e-05
sS'ADP'
p2972
F0.999983
s(lp2973
g150
atp2974
a(S'la'
p2975
(dp2976
g38
F0.0
sS'PRON'
p2977
F0.0
sS'DET'
p2978
F0.999999
sS'NOUN'
p2979
F0.0
s(lp2980
g158
atp2981
a(S'uni\xc3\xb3n'
p2982
(dp2983
S'NOUN'
p2984
F1.0
s(lp2985
g164
atp2986
a(S'para'
p2987
(dp2988
S'CONJ'
p2989
F0.016878
sS'ADP'
p2990
F0.983122
s(lp2991
g463
atp2992
a(S'asuntos'
p2993
(dp2994
S'NOUN'
p2995
F1.0
s(lp2996
g473
atp2997
a(S'exteriores'
p2998
(dp2999
S'ADJ'
p3000
F1.0
s(lp3001
g131
atp3002
a(g42
(dp3003
g38
F0.000439
sS'CONJ'
p3004
F0.999561
s(lp3005
g31
atp3006
a(S'pol\xc3\xadtica'
p3007
(dp3008
S'ADJ'
p3009
F0.397521
sS'NOUN'
p3010
F0.602479
s(lp3011
g487
atp3012
a(S'de'
p3013
(dp3014
g38
F3e-05
sS'CONJ'
p3015
F0.000861
sS'ADP'
p3016
F0.99911
s(lp3017
tp3018
a(S'seguridad'
p3019
(dp3020
S'NOUN'
p3021
F1.0
s(lp3022
g312
atp3023
a(g42
(dp3024
g38
F0.001008
sS'CONJ'
p3025
F0.998992
s(lp3026
g86
atp3027
a(S'vicepresidenta'
p3028
(dp3029
S'NOUN'
p3030
F1.0
s(lp3031
g92
atp3032
a(S'de'
p3033
(dp3034
g38
F0.0
sS'CONJ'
p3035
F1.7e-05
sS'ADP'
p3036
F0.999983
s(lp3037
g98
atp3038
a(S'la'
p3039
(dp3040
g38
F0.0
sS'PRON'
p3041
F0.0
sS'DET'
p3042
F0.999999
sS'NOUN'
p3043
F0.0
s(lp3044
g106
atp3045
a(S'comisi\xc3\xb3n'
p3046
(dp3047
S'NOUN'
p3048
F1.0
s(lp3049
g112
atp3050
a(g335
(dp3051
g38
F8.499999999999999e-05
sS'CONJ'
p3052
F0.077467
sS'ADP'
p3053
F0.922448
s(lp3054
g513
atp3055
a(S'hacer'
p3056
(dp3057
S'VERB'
p3058
F1.0
s(lp3059
g520
atp3060
a(S'algo'
p3061
(dp3062
S'ADJ'
p3063
F1.0
s(lp3064
g526
atp3065
a(S'que'
p3066
(dp3067
g38
F0.0
sS'CONJ'
p3068
F1.0
s(lp3069
g532
atp3070
a(S'yo'
p3071
(dp3072
S'PRON'
p3073
F1.0
s(lp3074
g539
atp3075
a(S'considero'
p3076
(dp3077
S'VERB'
p3078
F1.0
s(lp3079
g544
atp3080
a(S'muy'
p3081
(dp3082
S'ADV'
p3083
F1.0
s(lp3084
g549
atp3085
a(S'importante'
p3086
(dp3087
S'VERB'
p3088
F0.073326
sS'ADJ'
p3089
F0.926674
s(lp3090
g555
atp3091
a(g22
(dp3092
g24
F1.0
s(lp3093
g22
atp3094
a(S'es'
p3095
(dp3096
S'ADV'
p3097
F1.0
s(lp3098
tp3099
a(S'decir'
p3100
(dp3101
S'ADV'
p3102
F1.0
s(lp3103
g563
atp3104
a(g22
(dp3105
g24
F1.0
s(lp3106
g22
atp3107
a(S'buscar'
p3108
(dp3109
S'VERB'
p3110
F1.0
s(lp3111
g124
atp3112
a(S'posiciones'
p3113
(dp3114
S'NOUN'
p3115
F1.0
s(lp3116
g137
atp3117
a(S'comunes'
p3118
(dp3119
S'ADJ'
p3120
F1.0
s(lp3121
g144
atp3122
a(S'de'
p3123
(dp3124
g38
F0.0
sS'CONJ'
p3125
F5.7e-05
sS'ADP'
p3126
F0.999943
s(lp3127
tp3128
a(S'la'
p3129
(dp3130
g38
F0.0
sS'PRON'
p3131
F0.0
sS'DET'
p3132
F0.999999
sS'NOUN'
p3133
F0.0
s(lp3134
tp3135
a(S'ue'
p3136
(dp3137
S'VERB'
p3138
F4e-06
sS'NOUN'
p3139
F0.999996
s(lp3140
g586
atp3141
a(S'en'
p3142
(dp3143
g38
F1.8e-05
sS'CONJ'
p3144
F1e-05
sS'ADP'
p3145
F0.999972
s(lp3146
g170
atp3147
a(S'asuntos'
p3148
(dp3149
S'NOUN'
p3150
F1.0
s(lp3151
g184
atp3152
a(S'que'
p3153
(dp3154
g38
F0.0
sS'CONJ'
p3155
F1.0
s(lp3156
g193
atp3157
a(S'deben'
p3158
(dp3159
S'VERB'
p3160
F1.0
s(lp3161
g200
atp3162
a(S'decidirse'
p3163
(dp3164
S'VERB'
p3165
F1.0
s(lp3166
g208
atp3167
a(S'en'
p3168
(dp3169
g38
F0.0
sS'CONJ'
p3170
F1e-06
sS'ADP'
p3171
F0.999999
s(lp3172
g219
atp3173
a(S'el'
p3174
(dp3175
S'PRON'
p3176
F5e-06
sS'DET'
p3177
F0.999995
s(lp3178
g225
atp3179
a(S'consejo'
p3180
(dp3181
S'NOUN'
p3182
F1.0
s(lp3183
g231
atp3184
a(S'de'
p3185
(dp3186
g38
F2.9e-05
sS'CONJ'
p3187
F0.000449
sS'ADP'
p3188
F0.999522
s(lp3189
g237
atp3190
a(S'seguridad'
p3191
(dp3192
S'NOUN'
p3193
F1.0
s(lp3194
g243
atp3195
a(S'de'
p3196
(dp3197
g38
F0.0
sS'CONJ'
p3198
F1.7e-05
sS'ADP'
p3199
F0.999983
s(lp3200
g382
atp3201
a(S'las'
p3202
(dp3203
S'PRON'
p3204
F0.0
sS'DET'
p3205
F1.0
s(lp3206
g390
atp3207
a(S'naciones'
p3208
(dp3209
S'NOUN'
p3210
F0.378978
sS'VERB'
p3211
F0.176788
sS'ADJ'
p3212
F0.444234
s(lp3213
g40
atp3214
a(S'unidas'
p3215
(dp3216
S'NOUN'
p3217
F0.378978
sS'VERB'
p3218
F0.176788
sS'ADJ'
p3219
F0.444234
s(lp3220
g40
atp3221
a(g22
(dp3222
g24
F1.0
s(lp3223
tp3224
a(S'para'
p3225
(dp3226
S'CONJ'
p3227
F0.448349
sS'ADP'
p3228
F0.551651
s(lp3229
g252
atp3230
a(S'que'
p3231
(dp3232
g38
F0.0
sS'CONJ'
p3233
F1.0
s(lp3234
g260
atp3235
a(S'tales'
p3236
(dp3237
S'ADJ'
p3238
F1.0
s(lp3239
g266
atp3240
a(S'posiciones'
p3241
(dp3242
S'NOUN'
p3243
F1.0
s(lp3244
g272
atp3245
a(S'se'
p3246
(dp3247
S'PRON'
p3248
F1.0
sS'VERB'
p3249
F0.0
s(lp3250
tp3251
a(S'apliquen'
p3252
(dp3253
S'VERB'
p3254
F1.0
s(lp3255
tp3256
a(S'mediante'
p3257
(dp3258
S'ADP'
p3259
F1.0
s(lp3260
g304
atp3261
a(S'la'
p3262
(dp3263
S'NOUN'
p3264
F3e-06
sS'PRON'
p3265
F0.0
sS'DET'
p3266
F0.999997
sg38
F0.0
s(lp3267
tp3268
a(S'pr\xc3\xa1ctica'
p3269
(dp3270
S'ADJ'
p3271
F0.053295
sS'NOUN'
p3272
F0.946705
s(lp3273
g291
atp3274
a(S'de'
p3275
(dp3276
g38
F0.0
sS'CONJ'
p3277
F1.9e-05
sS'ADP'
p3278
F0.99998
s(lp3279
tp3280
a(S'la'
p3281
(dp3282
g38
F0.0
sS'PRON'
p3283
F0.0
sS'DET'
p3284
F0.999999
sS'NOUN'
p3285
F0.0
s(lp3286
tp3287
a(S'votaci\xc3\xb3n'
p3288
(dp3289
S'NOUN'
p3290
F1.0
s(lp3291
g342
atp3292
a(S'conjunta'
p3293
(dp3294
S'ADJ'
p3295
F1.0
s(lp3296
g349
atp3297
a(g42
(dp3298
g38
F0.000678
sS'CONJ'
p3299
F0.999322
s(lp3300
g355
atp3301
a(S'para'
p3302
(dp3303
S'CONJ'
p3304
F0.646024
sS'ADP'
p3305
F0.353976
s(lp3306
g712
atp3307
a(S'evitar'
p3308
(dp3309
S'VERB'
p3310
F1.0
s(lp3311
g327
atp3312
a(S'la'
p3313
(dp3314
S'PRON'
p3315
F4e-06
sS'DET'
p3316
F0.999995
sS'NOUN'
p3317
F0.0
sg38
F1e-06
s(lp3318
g335
atp3319
a(S'repetici\xc3\xb3n'
p3320
(dp3321
S'NOUN'
p3322
F1.0
s(lp3323
g363
atp3324
a(S'de'
p3325
(dp3326
g38
F2.9e-05
sS'CONJ'
p3327
F0.000449
sS'ADP'
p3328
F0.999522
s(lp3329
tp3330
a(S'discrepancias'
p3331
(dp3332
S'NOUN'
p3333
F1.0
s(lp3334
tp3335
a(S'anteriores'
p3336
(dp3337
S'ADJ'
p3338
F1.0
s(lp3339
g40
atp3340
a(g24
(dp3341
g24
F1.0
s(lp3342
g24
atp3343
as.