(dp0
S'fr'
p1
(lp2
(S'ce'
p3
(dp4
S'PRON'
p5
F1.0
s(lp6
S'this'
p7
atp8
a(S'partenariat'
p9
(dp10
S'NOUN'
p11
F1.0
s(lp12
S'partnership'
p13
atp14
a(S'contribuera'
p15
(dp16
S'VERB'
p17
F1.0
s(lp18
S'contribute'
p19
atp20
a(S'\xc3\xa0'
p21
(dp22
S'ADP'
p23
F1.0
s(lp24
S'to'
p25
atp26
a(S'pr\xc3\xa9venir'
p27
(dp28
S'VERB'
p29
F1.0
s(lp30
S'preventing'
p31
atp32
a(S'une'
p33
(dp34
S'NOUN'
p35
F0.00038
sS'NUM'
p36
F0.001409
sS'DET'
p37
F0.998211
s(lp38
tp39
a(S'autre'
p40
(dp41
S'ADJ'
p42
F1.0
s(lp43
S'another'
p44
atp45
a(S'crise'
p46
(dp47
S'NOUN'
p48
F1.0
s(lp49
S'crisis'
p50
atp51
a(S'similaire'
p52
(dp53
S'ADJ'
p54
F1.0
s(lp55
S'like'
p56
atp57
a(S'\xc3\xa0'
p58
(dp59
S'ADP'
p60
F1.0
s(lp61
tp62
a(S'celle-ci'
p63
(dp64
S'PRON'
p65
F1.0
s(lp66
S'present'
p67
atp68
a(S'.'
p69
(dp70
g69
F1.0
s(lp71
g69
atp72
asS'en'
p73
(lp74
(g7
(dp75
S'ADV'
p76
F1.3e-05
sS'NOUN'
p77
F1.1e-05
sS'DET'
p78
F0.999976
s(lp79
g7
atp80
a(g13
(dp81
S'NOUN'
p82
F1.0
s(lp83
g13
atp84
a(S'would'
p85
(dp86
S'VERB'
p87
F1.0
s(lp88
g85
atp89
a(g19
(dp90
S'VERB'
p91
F1.0
s(lp92
g19
atp93
a(g25
(dp94
S'ADV'
p95
F3e-06
sS'PRT'
p96
F0.999994
sS'ADP'
p97
F3e-06
s(lp98
g25
atp99
a(g31
(dp100
S'VERB'
p101
F1.0
s(lp102
g31
atp103
a(g44
(dp104
S'DET'
p105
F1.0
s(lp106
g44
atp107
a(g50
(dp108
S'NOUN'
p109
F1.0
s(lp110
g50
atp111
a(g56
(dp112
S'VERB'
p113
F0.0037790000000000002
sS'ADJ'
p114
F1.8e-05
sS'ADP'
p115
F0.996203
s(lp116
g56
atp117
a(S'the'
p118
(dp119
S'NOUN'
p120
F1e-06
sS'DET'
p121
F0.999999
s(lp122
g118
atp123
a(g67
(dp124
S'NOUN'
p125
F0.090772
sS'VERB'
p126
F0.008754
sS'ADJ'
p127
F0.900474
s(lp128
g67
atp129
a(S'one'
p130
(dp131
S'PRON'
p132
F0.059295
sS'NUM'
p133
F0.923303
sS'NOUN'
p134
F0.017402
s(lp135
g130
atp136
a(g69
(dp137
g69
F1.0
s(lp138
g69
atp139
asS'nl'
p140
(lp141
(S'dit'
p142
(dp143
S'PRON'
p144
F1.0
s(lp145
g7
atp146
a(S'partnerschap'
p147
(dp148
S'NOUN'
p149
F1.0
s(lp150
g13
atp151
a(S'zou'
p152
(dp153
S'VERB'
p154
F1.0
s(lp155
g85
atp156
a(S'ertoe'
p157
(dp158
S'ADV'
p159
F1.0
s(lp160
tp161
a(S'bijdragen'
p162
(dp163
S'VERB'
p164
F0.002735
sS'NOUN'
p165
F0.9972650000000001
s(lp166
g19
atp167
a(S'crises'
p168
(dp169
S'NOUN'
p170
F1.0
s(lp171
g50
atp172
a(S'zoals'
p173
(dp174
S'CONJ'
p175
F1.0
s(lp176
g56
atp177
a(S'de'
p178
(dp179
S'DET'
p180
F1.0
s(lp181
g118
atp182
a(S'huidige'
p183
(dp184
S'NOUN'
p185
F0.009962
sS'ADJ'
p186
F0.990038
s(lp187
tp188
a(S'in'
p189
(dp190
S'ADV'
p191
F0.002256
sS'VERB'
p192
F6e-06
sS'ADP'
p193
F0.997737
s(lp194
tp195
a(S'de'
p196
(dp197
S'DET'
p198
F1.0
s(lp199
tp200
a(S'toekomst'
p201
(dp202
S'NOUN'
p203
F1.0
s(lp204
g67
atp205
a(S'te'
p206
(dp207
S'PRT'
p208
F1.0
s(lp209
g25
atp210
a(S'voorkomen'
p211
(dp212
S'VERB'
p213
F1.0
sS'NOUN'
p214
F0.0
s(lp215
g31
atp216
a(g69
(dp217
g69
F1.0
s(lp218
g69
atp219
asS'de'
p220
(lp221
(S'diese'
p222
(dp223
S'PRON'
p224
F1.0
s(lp225
g7
atp226
a(S'partnerschaft'
p227
(dp228
S'ADJ'
p229
F0.000399
sS'NOUN'
p230
F0.999502
s(lp231
g13
atp232
a(S'w\xc3\xbcrde'
p233
(dp234
S'VERB'
p235
F1.0
s(lp236
g85
atp237
a(S'dazu'
p238
(dp239
S'ADV'
p240
F1.0
sS'PRT'
p241
F0.0
s(lp242
tp243
a(S'beitragen'
p244
(dp245
S'VERB'
p246
F1.0
s(lp247
g19
atp248
a(S','
p249
(dp250
g69
F1.0
s(lp251
g25
atp252
a(S'einer'
p253
(dp254
S'PRON'
p255
F0.006975
sS'DET'
p256
F0.992719
s(lp257
tp258
a(S'weiteren'
p259
(dp260
S'ADJ'
p261
F1.0
s(lp262
g44
atp263
a(S'krise'
p264
(dp265
S'NOUN'
p266
F0.999909
s(lp267
g50
atp268
a(S'wie'
p269
(dp270
S'CONJ'
p271
F0.9999979999999999
s(lp272
g56
atp273
a(S'die'
p274
(dp275
S'PRON'
p276
F0.002975
sS'DET'
p277
F0.997002
s(lp278
g118
atp279
a(S'derzeitige'
p280
(dp281
S'ADJ'
p282
F1.0
s(lp283
g67
atp284
a(S'vorzubeugen'
p285
(dp286
S'VERB'
p287
F1.0
s(lp288
g31
atp289
a(g69
(dp290
g69
F1.0
s(lp291
g69
atp292
asS'it'
p293
(lp294
(S'questo'
p295
(dp296
S'PRON'
p297
F1.0
s(lp298
g7
atp299
a(S'partenariato'
p300
(dp301
S'NOUN'
p302
F1.0
s(lp303
g13
atp304
a(S'contribuir\xc3\xa0'
p305
(dp306
S'VERB'
p307
F1.0
s(lp308
g19
atp309
a(S'a'
p310
(dp311
S'CONJ'
p312
F5.5e-05
sS'ADP'
p313
F0.999945
s(lp314
g25
atp315
a(S'evitare'
p316
(dp317
S'VERB'
p318
F1.0
s(lp319
g31
atp320
a(S'crisi'
p321
(dp322
S'NOUN'
p323
F1.0
s(lp324
g50
atp325
a(S'simili'
p326
(dp327
S'NOUN'
p328
F0.058426
sS'ADJ'
p329
F0.941574
s(lp330
g56
atp331
a(g310
(dp332
S'CONJ'
p333
F0.001534
sS'ADP'
p334
F0.998466
s(lp335
tp336
a(S'quella'
p337
(dp338
S'PRON'
p339
F1.0
s(lp340
g130
atp341
a(S'in'
p342
(dp343
S'ADP'
p344
F1.0
s(lp345
g118
atp346
a(S'corso'
p347
(dp348
S'ADJ'
p349
F0.02866
sS'VERB'
p350
F0.003872
sS'NOUN'
p351
F0.967467
s(lp352
g67
atp353
a(g69
(dp354
g69
F1.0
s(lp355
g69
atp356
asS'sk'
p357
(lp358
(S'toto'
p359
(dp360
S'PRON'
p361
F0.997962
sS'X'
p362
F0.002038
s(lp363
g7
atp364
a(S'partnerstvo'
p365
(dp366
S'NOUN'
p367
F1.0
s(lp368
g13
atp369
a(S'by'
p370
(dp371
S'PRT'
p372
F0.999923
sg362
F7.6e-05
s(lp373
g85
atp374
a(S'pomohlo'
p375
(dp376
S'VERB'
p377
F1.000001
s(lp378
g19
atp379
a(S'pred\xc3\xads\xc5\xa5'
p380
(dp381
S'VERB'
p382
F1.0
s(lp383
tp384
a(S'opakovaniu'
p385
(dp386
S'NOUN'
p387
F1.0
s(lp388
g31
atp389
a(S'podobnej'
p390
(dp391
S'ADJ'
p392
F1.0
s(lp393
g44
atp394
a(S'kr\xc3\xadzy'
p395
(dp396
S'NOUN'
p397
F1.0
s(lp398
g50
atp399
a(g249
(dp400
g69
F1.0
s(lp401
tp402
a(S'akou'
p403
(dp404
S'PRON'
p405
F1.0
s(lp406
g56
atp407
a(S'je'
p408
(dp409
S'PRON'
p410
F1.8e-05
sS'VERB'
p411
F0.999973
sg362
F8.000000000000001e-06
s(lp412
g118
atp413
a(S't\xc3\xa1'
p414
(dp415
S'PRON'
p416
F1.0
s(lp417
g130
atp418
a(S's\xc3\xba\xc4\x8dasn\xc3\xa1'
p419
(dp420
S'ADJ'
p421
F1.0
s(lp422
g67
atp423
a(g69
(dp424
g69
F1.0
s(lp425
g69
atp426
asS'pl'
p427
(lp428
(S'partnerstwo'
p429
(dp430
S'NOUN'
p431
F1.0
s(lp432
g13
atp433
a(S'to'
p434
(dp435
S'NOUN'
p436
F0.48219100000000004
sS'ADP'
p437
F0.0
sS'PRT'
p438
F0.390409
sg362
F1e-06
sS'CONJ'
p439
F0.063402
sS'ADJ'
p440
F0.063998
s(lp441
g7
atp442
a(S'przyczyni'
p443
(dp444
S'VERB'
p445
F1.0
s(lp446
tp447
a(S'si\xc4\x99'
p448
(dp449
S'PRT'
p450
F1.0
s(lp451
g19
atp452
a(S'do'
p453
(dp454
g362
F0.0
sS'NOUN'
p455
F3e-06
sS'ADP'
p456
F0.999997
s(lp457
g25
atp458
a(S'unikni\xc4\x99cia'
p459
(dp460
S'VERB'
p461
F1.0
s(lp462
g31
atp463
a(S'powt\xc3\xb3rki'
p464
(dp465
S'NOUN'
p466
F1.0
s(lp467
g44
atp468
a(S'obecnego'
p469
(dp470
S'ADJ'
p471
F1.0
s(lp472
g67
atp473
a(S'kryzysu'
p474
(dp475
S'NOUN'
p476
F1.0
s(lp477
g50
atp478
a(g69
(dp479
g69
F1.0
s(lp480
g69
atp481
asS'sl'
p482
(lp483
(S'to'
p484
(dp485
S'PRON'
p486
F0.999969
sg362
F3.1e-05
s(lp487
g7
atp488
a(S'partnerstvo'
p489
(dp490
S'NOUN'
p491
F1.0
s(lp492
g13
atp493
a(S'bo'
p494
(dp495
S'VERB'
p496
F1.0
s(lp497
g85
atp498
a(S'pomagalo'
p499
(dp500
S'VERB'
p501
F0.980656
sS'NOUN'
p502
F0.019344
s(lp503
g19
atp504
a(S'pri'
p505
(dp506
S'ADP'
p507
F1.0
s(lp508
g25
atp509
a(S'prepre\xc4\x8devanju'
p510
(dp511
S'NOUN'
p512
F1.0
s(lp513
tp514
a(S'nastajanja'
p515
(dp516
S'NOUN'
p517
F1.0
s(lp518
g31
atp519
a(S'podobnih'
p520
(dp521
S'ADJ'
p522
F0.9999990000000002
s(lp523
g44
atp524
a(S'kriz'
p525
(dp526
S'NOUN'
p527
F1.0
s(lp528
g50
atp529
a(g249
(dp530
g69
F1.0
s(lp531
tp532
a(S'kot'
p533
(dp534
S'CONJ'
p535
F0.999971
sS'NOUN'
p536
F2.9e-05
s(lp537
g56
atp538
a(S'je'
p539
(dp540
S'PRON'
p541
F0.000963
sS'VERB'
p542
F0.9990359999999999
sg362
F0.0
s(lp543
g118
atp544
a(S'trenutna'
p545
(dp546
S'ADJ'
p547
F1.0
s(lp548
g67
atp549
a(g69
(dp550
g69
F1.0
s(lp551
g69
atp552
asS'es'
p553
(lp554
(S'esta'
p555
(dp556
S'PRON'
p557
F0.999998
sS'VERB'
p558
F2e-06
s(lp559
g7
atp560
a(S'asociaci\xc3\xb3n'
p561
(dp562
S'NOUN'
p563
F1.0
s(lp564
g13
atp565
a(S'contribuir\xc3\xada'
p566
(dp567
S'VERB'
p568
F1.0
s(lp569
g19
atp570
a(g310
(dp571
g362
F1.3000000000000001e-05
sS'CONJ'
p572
F0.113064
sS'ADP'
p573
F0.886923
s(lp574
g25
atp575
a(S'evitar'
p576
(dp577
S'VERB'
p578
F1.0
s(lp579
g31
atp580
a(S'otra'
p581
(dp582
S'ADJ'
p583
F1.0
s(lp584
g44
atp585
a(S'crisis'
p586
(dp587
S'NOUN'
p588
F1.0
s(lp589
g50
atp590
a(S'como'
p591
(dp592
S'ADV'
p593
F0.191376
sS'CONJ'
p594
F0.808624
s(lp595
g56
atp596
a(S'la'
p597
(dp598
S'PRON'
p599
F4.1e-05
sS'DET'
p600
F0.99993
sg362
F2e-06
sS'NOUN'
p601
F2.8e-05
s(lp602
g118
atp603
a(S'actual'
p604
(dp605
g362
F6.5e-05
sS'ADJ'
p606
F0.999935
s(lp607
g67
atp608
a(g69
(dp609
g69
F1.0
s(lp610
g69
atp611
as.