(dp0
S'fr'
p1
(lp2
(S"l'"
p3
(dp4
S'ADJ'
p5
F0.079749
sS'VERB'
p6
F0.5393100000000001
sS'NOUN'
p7
F0.380941
s(lp8
S'the'
p9
atp10
a(S'ape'
p11
(dp12
S'NOUN'
p13
F1.0
s(lp14
tp15
a(S'avec'
p16
(dp17
S'ADV'
p18
F0.003816
sS'ADP'
p19
F0.996184
s(lp20
S'cariforum'
p21
atp22
a(S'les'
p23
(dp24
S'PRON'
p25
F3e-06
sS'DET'
p26
F0.999986
sS'ADP'
p27
F1.2e-05
s(lp28
S'epa'
p29
atp30
a(S'\xc3\x89tats'
p31
(dp32
S'NOUN'
p33
F1.0
s(lp34
g21
atp35
a(S'du'
p36
(dp37
S'ADP'
p38
F1.0
s(lp39
tp40
a(S'cariforum'
p41
(dp42
S'VERB'
p43
F0.0
sS'NOUN'
p44
F1.0
s(lp45
g21
atp46
a(S'a'
p47
(dp48
S'VERB'
p49
F1.0
s(lp50
S'has'
p51
atp52
a(S'\xc3\xa9t\xc3\xa9'
p53
(dp54
S'VERB'
p55
F0.986206
sS'NOUN'
p56
F0.013794
s(lp57
S'been'
p58
atp59
a(S'd\xc3\xa9battu'
p60
(dp61
S'VERB'
p62
F1.0
s(lp63
S'discussed'
p64
atp65
a(S'en'
p66
(dp67
S'PRON'
p68
F5e-06
sS'ADP'
p69
F0.999995
s(lp70
S'here'
p71
atp72
a(S'cette'
p73
(dp74
S'PRON'
p75
F1.0
s(lp76
tp77
a(S'assembl\xc3\xa9e'
p78
(dp79
S'VERB'
p80
F0.006629
sS'NOUN'
p81
F0.993371
s(lp82
g71
atp83
a(S','
p84
(dp85
S'.'
p86
F1.0
s(lp87
g84
atp88
a(S'alors'
p89
(dp90
S'ADV'
p91
F0.96866
sS'CONJ'
p92
F0.03134
s(lp93
tp94
a(S'que'
p95
(dp96
S'ADV'
p97
F0.04499
sS'PRON'
p98
F0.036475
sS'CONJ'
p99
F0.918535
s(lp100
S'while'
p101
atp102
a(S'les'
p103
(dp104
S'PRON'
p105
F0.000521
sS'DET'
p106
F0.999465
sS'ADP'
p107
F1.4e-05
s(lp108
S'the'
p109
atp110
a(S'parlements'
p111
(dp112
S'NOUN'
p113
F1.0
s(lp114
S'parliaments'
p115
atp116
a(S'des'
p117
(dp118
S'DET'
p119
F2.1e-05
sS'ADP'
p120
F0.999979
s(lp121
S'of'
p122
atp123
a(S'pays'
p124
(dp125
S'NOUN'
p126
F1.0
s(lp127
S'nations'
p128
atp129
a(S'concern\xc3\xa9s'
p130
(dp131
S'VERB'
p132
F1.0
s(lp133
S'cariforum'
p134
atp135
a(S"n'"
p136
(dp137
S'ADJ'
p138
F0.185351
sS'VERB'
p139
F0.35318400000000005
sS'NOUN'
p140
F0.461464
s(lp141
tp142
a(S'ont'
p143
(dp144
S'VERB'
p145
F1.0
s(lp146
S'have'
p147
atp148
a(S'pas'
p149
(dp150
S'ADV'
p151
F0.999264
sS'NOUN'
p152
F0.000736
s(lp153
S'not'
p154
atp155
a(S'encore'
p156
(dp157
S'ADV'
p158
F1.0
s(lp159
S'yet'
p160
atp161
a(S'eu'
p162
(dp163
S'VERB'
p164
F1.0
s(lp165
S'been'
p166
atp167
a(S'la'
p168
(dp169
S'PRON'
p170
F4.2e-05
sS'DET'
p171
F0.999958
sS'NOUN'
p172
F0.0
s(lp173
tp174
a(S'possibilit\xc3\xa9'
p175
(dp176
S'NOUN'
p177
F1.0
s(lp178
S'allowed'
p179
atp180
a(S"d'"
p181
(dp182
S'NOUN'
p183
F0.032441
sS'VERB'
p184
F0.694014
sS'ADJ'
p185
F0.273544
s(lp186
S'to'
p187
atp188
a(S'en'
p189
(dp190
S'PRON'
p191
F0.133368
sS'ADP'
p192
F0.866632
s(lp193
S'this'
p194
atp195
a(S'd\xc3\xa9battre'
p196
(dp197
S'VERB'
p198
F1.0
s(lp199
S'discuss'
p200
atp201
a(g86
(dp202
g86
F1.0
s(lp203
g86
atp204
asS'en'
p205
(lp206
(g9
(dp207
S'NOUN'
p208
F6e-06
sS'DET'
p209
F0.999994
s(lp210
g9
atp211
a(g21
(dp212
S'ADJ'
p213
F0.063346
sS'NOUN'
p214
F0.936655
s(lp215
g21
atp216
a(g29
(dp217
S'ADV'
p218
F0.000586
sS'ADJ'
p219
F0.0
sS'NOUN'
p220
F0.999413
s(lp221
g29
atp222
a(g51
(dp223
S'VERB'
p224
F1.0
s(lp225
g51
atp226
a(g58
(dp227
S'VERB'
p228
F1.0
s(lp229
g58
atp230
a(g64
(dp231
S'VERB'
p232
F1.0
s(lp233
g64
atp234
a(g71
(dp235
S'ADV'
p236
F0.999525
sS'ADP'
p237
F0.000475
s(lp238
g71
atp239
a(g84
(dp240
g86
F1.0
s(lp241
g84
atp242
a(g101
(dp243
S'NOUN'
p244
F0.000149
sS'ADP'
p245
F0.999851
s(lp246
g101
atp247
a(g109
(dp248
S'NOUN'
p249
F1.1e-05
sS'DET'
p250
F0.999989
s(lp251
g109
atp252
a(g115
(dp253
S'NOUN'
p254
F1.0
s(lp255
g115
atp256
a(g122
(dp257
S'ADP'
p258
F1.0
s(lp259
g122
atp260
a(S'the'
p261
(dp262
S'NOUN'
p263
F2e-06
sS'DET'
p264
F0.999998
s(lp265
g261
atp266
a(g134
(dp267
S'ADJ'
p268
F0.04958
sS'NOUN'
p269
F0.9504190000000001
s(lp270
g134
atp271
a(g128
(dp272
S'NOUN'
p273
F1.0
s(lp274
g128
atp275
a(g147
(dp276
S'VERB'
p277
F1.0
s(lp278
g147
atp279
a(g154
(dp280
S'ADV'
p281
F1.0
s(lp282
g154
atp283
a(g160
(dp284
S'ADV'
p285
F0.999448
sS'CONJ'
p286
F0.000391
sS'ADP'
p287
F0.000161
s(lp288
g160
atp289
a(g166
(dp290
S'VERB'
p291
F1.0
s(lp292
g166
atp293
a(g179
(dp294
S'VERB'
p295
F0.999632
sS'ADJ'
p296
F0.000369
s(lp297
g179
atp298
a(g187
(dp299
S'ADV'
p300
F0.0
sS'PRT'
p301
F1.0
sS'ADP'
p302
F0.0
s(lp303
g187
atp304
a(g200
(dp305
S'VERB'
p306
F1.0
s(lp307
g200
atp308
a(g194
(dp309
S'ADV'
p310
F0.002477
sS'NOUN'
p311
F0.003612
sS'DET'
p312
F0.99391
s(lp313
g194
atp314
a(g86
(dp315
g86
F1.0
s(lp316
g86
atp317
asS'nl'
p318
(lp319
(S'de'
p320
(dp321
S'DET'
p322
F1.0
s(lp323
g9
atp324
a(S'economische'
p325
(dp326
S'NOUN'
p327
F3.9e-05
sS'ADJ'
p328
F0.999961
s(lp329
tp330
a(S'partnerschapsovereenkomst'
p331
(dp332
S'NOUN'
p333
F1.0
s(lp334
tp335
a(S'met'
p336
(dp337
S'ADP'
p338
F1.0
s(lp339
g29
atp340
a(S'cariforum'
p341
(dp342
S'NOUN'
p343
F1.0
s(lp344
g21
atp345
a(S'is'
p346
(dp347
S'VERB'
p348
F1.0
s(lp349
g51
atp350
a(S'hier'
p351
(dp352
S'ADV'
p353
F1.0
s(lp354
g71
atp355
a(S'onderwerp'
p356
(dp357
S'VERB'
p358
F0.064061
sS'NOUN'
p359
F0.935939
s(lp360
tp361
a(S'van'
p362
(dp363
S'ADP'
p364
F1.0
s(lp365
tp366
a(S'debat'
p367
(dp368
S'NOUN'
p369
F1.0
s(lp370
g64
atp371
a(S'geweest'
p372
(dp373
S'VERB'
p374
F1.0
s(lp375
g58
atp376
a(S'terwijl'
p377
(dp378
S'CONJ'
p379
F1.0
s(lp380
g101
atp381
a(S'de'
p382
(dp383
S'DET'
p384
F1.0
s(lp385
g109
atp386
a(S'parlementen'
p387
(dp388
S'NOUN'
p389
F1.0
s(lp390
g115
atp391
a(S'van'
p392
(dp393
S'ADP'
p394
F1.0
s(lp395
g122
atp396
a(S'de'
p397
(dp398
S'DET'
p399
F1.0
s(lp400
g261
atp401
a(S'cariforum-landen'
p402
(dp403
S'NOUN'
p404
F1.0
s(lp405
g134
atp406
a(S'hierover'
p407
(dp408
S'ADV'
p409
F1.0
s(lp410
g194
atp411
a(S'nog'
p412
(dp413
S'ADV'
p414
F1.0
s(lp415
g160
atp416
a(S'niet'
p417
(dp418
S'ADV'
p419
F0.999992
sS'PRON'
p420
F5e-06
sS'VERB'
p421
F3e-06
sS'X'
p422
F0.0
s(lp423
g154
atp424
a(S'hebben'
p425
(dp426
S'VERB'
p427
F0.9999480000000001
sS'NOUN'
p428
F5.2e-05
s(lp429
g147
atp430
a(S'mogen'
p431
(dp432
S'VERB'
p433
F0.9997400000000001
sS'NOUN'
p434
F0.000261
s(lp435
g179
atp436
a(S'debatteren'
p437
(dp438
S'VERB'
p439
F0.998266
sS'NOUN'
p440
F0.001734
s(lp441
g200
atp442
a(g86
(dp443
g86
F1.0
s(lp444
g86
atp445
asS'de'
p446
(lp447
(S'hier'
p448
(dp449
S'ADV'
p450
F0.999975
sS'PRT'
p451
F2.5e-05
s(lp452
g71
atp453
a(S'ist'
p454
(dp455
S'VERB'
p456
F1.0
s(lp457
g51
atp458
a(S'\xc3\xbcber'
p459
(dp460
S'PRT'
p461
F0.0
sS'ADP'
p462
F1.0
s(lp463
tp464
a(S'das'
p465
(dp466
S'PRON'
p467
F0.00329
sS'DET'
p468
F0.996561
s(lp469
g9
atp470
a(S'cariforum-wpa'
p471
(dp472
S'NOUN'
p473
F0.996325
s(lp474
g21
atp475
a(S'debattiert'
p476
(dp477
S'VERB'
p478
F1.0
s(lp479
g64
atp480
a(S'worden'
p481
(dp482
S'VERB'
p483
F0.999996
sS'ADJ'
p484
F2e-06
s(lp485
g58
atp486
a(g84
(dp487
g86
F1.0
s(lp488
g84
atp489
a(S'w\xc3\xa4hrend'
p490
(dp491
S'CONJ'
p492
F0.97372
sS'ADP'
p493
F0.026243
s(lp494
g101
atp495
a(S'den'
p496
(dp497
S'PRON'
p498
F0.001647
sS'DET'
p499
F0.998339
s(lp500
g109
atp501
a(S'parlamenten'
p502
(dp503
S'NOUN'
p504
F0.417999
sS'ADJ'
p505
F0.572979
s(lp506
g115
atp507
a(S'in'
p508
(dp509
S'ADP'
p510
F1.0
s(lp511
g122
atp512
a(S'den'
p513
(dp514
S'PRON'
p515
F2.8e-05
sS'DET'
p516
F0.999971
s(lp517
g261
atp518
a(S'cariforum-staaten'
p519
(dp520
S'ADJ'
p521
F0.00076
sS'NOUN'
p522
F0.999006
s(lp523
g134
atp524
a(S'keine'
p525
(dp526
S'PRON'
p527
F1.0
s(lp528
g154
atp529
a(S'aussprache'
p530
(dp531
S'VERB'
p532
F0.016457
sS'NOUN'
p533
F0.97016
s(lp534
tp535
a(S'dar\xc3\xbcber'
p536
(dp537
S'ADV'
p538
F0.999862
sS'PRT'
p539
F0.000138
s(lp540
g200
atp541
a(S'gestattet'
p542
(dp543
S'VERB'
p544
F0.989343
sS'ADJ'
p545
F0.010401
s(lp546
g179
atp547
a(S'wurde'
p548
(dp549
S'VERB'
p550
F1.0
s(lp551
g166
atp552
a(g86
(dp553
g86
F1.0
s(lp554
g86
atp555
asS'it'
p556
(lp557
(S'il'
p558
(dp559
S'DET'
p560
F1.0
s(lp561
g9
atp562
a(S'parlamento'
p563
(dp564
S'VERB'
p565
F0.000267
sS'NOUN'
p566
F0.999733
s(lp567
g21
atp568
a(S'europeo'
p569
(dp570
S'NOUN'
p571
F0.002419
sS'ADJ'
p572
F0.997581
s(lp573
tp574
a(S'ha'
p575
(dp576
S'VERB'
p577
F1.0
s(lp578
g51
atp579
a(S'infatti'
p580
(dp581
S'ADV'
p582
F1.0
s(lp583
g58
atp584
a(S'discusso'
p585
(dp586
S'VERB'
p587
F0.98482
sS'ADJ'
p588
F0.01518
s(lp589
g64
atp590
a(S"l'"
p591
(dp592
S'NOUN'
p593
F0.020219
sS'VERB'
p594
F0.9280600000000001
sS'ADJ'
p595
F0.051722
s(lp596
g194
atp597
a(S'ape'
p598
(dp599
S'NOUN'
p600
F1.0
s(lp601
g29
atp602
a(S'con'
p603
(dp604
S'ADP'
p605
F1.0
s(lp606
g134
atp607
a(S'il'
p608
(dp609
S'DET'
p610
F1.0
s(lp611
g261
atp612
a(S'cariforum'
p613
(dp614
S'ADJ'
p615
F0.062313
sS'VERB'
p616
F3.3e-05
sS'NOUN'
p617
F0.937654
s(lp618
tp619
a(g84
(dp620
g86
F1.0
s(lp621
g84
atp622
a(S'ma'
p623
(dp624
S'CONJ'
p625
F0.999975
sS'NOUN'
p626
F2.5e-05
s(lp627
tp628
a(S'non'
p629
(dp630
S'ADV'
p631
F1.0
s(lp632
g154
atp633
a(S'pu\xc3\xb2'
p634
(dp635
S'VERB'
p636
F1.0
s(lp637
g179
atp638
a(S'dirsi'
p639
(dp640
S'VERB'
p641
F1.0
s(lp642
g134
atp643
a(S'lo'
p644
(dp645
S'PRON'
p646
F8.3e-05
sS'DET'
p647
F0.999917
s(lp648
g109
atp649
a(S'stesso'
p650
(dp651
S'NOUN'
p652
F0.074283
sS'ADJ'
p653
F0.925717
s(lp654
g101
atp655
a(S'dei'
p656
(dp657
S'NOUN'
p658
F1.8e-05
sS'DEF'
p659
F0.001934
sS'ADP'
p660
F0.998048
s(lp661
g115
atp662
a(S'parlamenti'
p663
(dp664
S'VERB'
p665
F5.8e-05
sS'NOUN'
p666
F0.999942
s(lp667
tp668
a(S'nazionali'
p669
(dp670
S'NOUN'
p671
F0.040877
sS'ADJ'
p672
F0.959123
s(lp673
g115
atp674
a(S'delle'
p675
(dp676
S'DEF'
p677
F0.001767
sS'ADP'
p678
F0.998233
s(lp679
g122
atp680
a(S'controparti'
p681
(dp682
S'NOUN'
p683
F1.0
s(lp684
g21
atp685
a(g86
(dp686
g86
F1.0
s(lp687
g86
atp688
asS'sk'
p689
(lp690
(S'hovor\xc3\xadme'
p691
(dp692
S'VERB'
p693
F1.0
s(lp694
g21
atp695
a(S'tu'
p696
(dp697
S'PRON'
p698
F0.9870570000000001
sg422
F0.012943
s(lp699
g71
atp700
a(S'o'
p701
(dp702
g422
F0.000873
sS'CONJ'
p703
F3.7e-05
sS'NOUN'
p704
F4.9999999999999996e-06
sS'ADP'
p705
F0.999084
s(lp706
g64
atp707
a(S'dhp'
p708
(dp709
S'ADJ'
p710
F0.000345
sg422
F0.000302
sS'VERB'
p711
F0.0
sS'NOUN'
p712
F0.999353
s(lp713
g29
atp714
a(S'so'
p715
(dp716
g422
F0.000154
sS'ADP'
p717
F0.999845
s(lp718
g134
atp719
a(S'zdru\xc5\xbeen\xc3\xadm'
p720
(dp721
S'NOUN'
p722
F1.0
s(lp723
tp724
a(S'cariforum'
p725
(dp726
S'ADJ'
p727
F0.001421
sg422
F0.332978
sS'NOUN'
p728
F0.665601
s(lp729
g21
atp730
a(g84
(dp731
g86
F1.0
s(lp732
g84
atp733
a(S'pri\xc4\x8dom'
p734
(dp735
S'CONJ'
p736
F1.0
s(lp737
g101
atp738
a(S'parlamenty'
p739
(dp740
S'NOUN'
p741
F1.0
s(lp742
g115
atp743
a(S'n\xc3\xa1rodov'
p744
(dp745
S'NOUN'
p746
F1.0
s(lp747
g128
atp748
a(S'zdru\xc5\xbeenia'
p749
(dp750
S'NOUN'
p751
F1.0
s(lp752
tp753
a(S'cariforum'
p754
(dp755
S'ADJ'
p756
F0.001192
sg422
F0.178593
sS'NOUN'
p757
F0.820215
s(lp758
g134
atp759
a(S'e\xc5\xa1te'
p760
(dp761
S'ADV'
p762
F0.09273
sg422
F0.90727
s(lp763
g147
atp764
a(S'ani'
p765
(dp766
g422
F0.955259
sS'CONJ'
p767
F0.044741
s(lp768
g154
atp769
a(S'len'
p770
(dp771
g422
F0.992881
sS'CONJ'
p772
F0.007119
s(lp773
g160
atp774
a(S'nemali'
p775
(dp776
S'VERB'
p777
F1.0
s(lp778
tp779
a(S'mo\xc5\xbenos\xc5\xa5'
p780
(dp781
S'NOUN'
p782
F1.0
s(lp783
g179
atp784
a(g701
(dp785
g422
F0.00018700000000000002
sS'CONJ'
p786
F0.000103
sS'NOUN'
p787
F8e-06
sS'ADP'
p788
F0.999702
s(lp789
g187
atp790
a(S'tom'
p791
(dp792
S'PRON'
p793
F0.999873
sg422
F0.000127
s(lp794
tp795
a(S'rokova\xc5\xa5'
p796
(dp797
S'VERB'
p798
F1.0
s(lp799
g200
atp800
a(g86
(dp801
g86
F1.0
s(lp802
g86
atp803
asS'pl'
p804
(lp805
(S'umowa'
p806
(dp807
S'NOUN'
p808
F1.0
s(lp809
g29
atp810
a(g701
(dp811
g422
F0.000116
sS'VERB'
p812
F0.0
sS'NOUN'
p813
F0.0
sS'ADP'
p814
F0.999885
sS'PRT'
p815
F0.0
s(lp816
g29
atp817
a(S'partnerstwie'
p818
(dp819
S'NOUN'
p820
F1.0
s(lp821
tp822
a(S'gospodarczym'
p823
(dp824
S'ADJ'
p825
F0.9999999999999999
s(lp826
g29
atp827
a(S'z'
p828
(dp829
S'PRT'
p830
F9e-06
sS'VERB'
p831
F0.0
sS'NOUN'
p832
F0.0
sS'ADP'
p833
F0.99999
sg422
F0.0
s(lp834
g9
atp835
a(S'pa\xc5\x84stwami'
p836
(dp837
S'NOUN'
p838
F1.0
s(lp839
tp840
a(S'cariforum'
p841
(dp842
S'ADV'
p843
F0.005714
sS'NOUN'
p844
F0.9771780000000002
sS'PRT'
p845
F0.007162
sS'VERB'
p846
F0.005233999999999999
sg422
F0.000217
sS'ADJ'
p847
F0.004496
s(lp848
g21
atp849
a(S'by\xc5\x82a'
p850
(dp851
S'VERB'
p852
F0.999896
sS'ADJ'
p853
F0.000104
s(lp854
g58
atp855
a(S'przedmiotem'
p856
(dp857
S'NOUN'
p858
F1.0
s(lp859
tp860
a(S'dyskusji'
p861
(dp862
S'NOUN'
p863
F1.0
s(lp864
g64
atp865
a(S'w'
p866
(dp867
g422
F0.0
sS'ADJ'
p868
F0.0
sS'ADP'
p869
F1.0
sS'NOUN'
p870
F0.0
s(lp871
g71
atp872
a(S'tej'
p873
(dp874
S'PRON'
p875
F1e-06
sS'ADJ'
p876
F0.999999
sg422
F0.0
s(lp877
tp878
a(S'izbie'
p879
(dp880
S'NOUN'
p881
F1.0
s(lp882
g71
atp883
a(g84
(dp884
g422
F0.0
sg86
F1.0
s(lp885
g84
atp886
a(S'natomiast'
p887
(dp888
S'PRT'
p889
F0.0007
sS'CONJ'
p890
F0.9993
s(lp891
g101
atp892
a(S'parlamenty'
p893
(dp894
S'ADV'
p895
F0.004089
sS'ADJ'
p896
F0.012827
sS'VERB'
p897
F0.004794
sS'NOUN'
p898
F0.9782910000000001
s(lp899
g115
atp900
a(S'tych'
p901
(dp902
S'ADJ'
p903
F0.9999990000000001
s(lp904
g261
atp905
a(S'pa\xc5\x84stw'
p906
(dp907
S'NOUN'
p908
F1.0
s(lp909
g134
atp910
a(S'nie'
p911
(dp912
S'ADV'
p913
F1.7e-05
sS'PRT'
p914
F0.940237
sS'CONJ'
p915
F0.059695
sS'NOUN'
p916
F1e-06
sS'PRON'
p917
F4.9999999999999996e-05
s(lp918
g154
atp919
a(S'mia\xc5\x82y'
p920
(dp921
S'VERB'
p922
F1.0
s(lp923
g147
atp924
a(S'mo\xc5\xbcliwo\xc5\x9bci'
p925
(dp926
S'NOUN'
p927
F1.0000010000000001
s(lp928
tp929
a(S'jej'
p930
(dp931
S'PRON'
p932
F0.999999
sg422
F1e-06
s(lp933
g179
atp934
a(S'przedyskutowania'
p935
(dp936
S'VERB'
p937
F1.0
s(lp938
g200
atp939
a(g86
(dp940
g86
F1.0
s(lp941
g86
atp942
asS'sl'
p943
(lp944
(g701
(dp945
S'NOUN'
p946
F4.3e-05
sS'ADP'
p947
F0.999957
s(lp948
tp949
a(S'sporazumu'
p950
(dp951
S'NOUN'
p952
F1.0
s(lp953
g29
atp954
a(g828
(dp955
S'ADP'
p956
F1.0
s(lp957
g9
atp958
a(S'dr\xc5\xbeavami'
p959
(dp960
S'NOUN'
p961
F1.0
s(lp962
g21
atp963
a(S'cariforum'
p964
(dp965
S'ADJ'
p966
F7.6e-05
sg422
F0.138949
sS'NOUN'
p967
F0.860975
s(lp968
g21
atp969
a(S'smo'
p970
(dp971
g422
F0.060621
sS'VERB'
p972
F0.939379
s(lp973
g58
atp974
a(S'v'
p975
(dp976
S'ADP'
p977
F1.0
s(lp978
g71
atp979
a(S'na\xc5\xa1i'
p980
(dp981
S'PRON'
p982
F0.999999
s(lp983
tp984
a(S'zbornici'
p985
(dp986
S'NOUN'
p987
F1.0
s(lp988
g21
atp989
a(S'razpravljali'
p990
(dp991
S'VERB'
p992
F1.0
s(lp993
g64
atp994
a(g84
(dp995
g86
F1.0
s(lp996
g84
atp997
a(S'parlamentom'
p998
(dp999
S'NOUN'
p1000
F1.0
s(lp1001
g115
atp1002
a(S'dr\xc5\xbeav'
p1003
(dp1004
S'NOUN'
p1005
F1.0
s(lp1006
g128
atp1007
a(S'cariforum'
p1008
(dp1009
S'ADJ'
p1010
F0.00217
sg422
F0.073973
sS'NOUN'
p1011
F0.9238589999999999
s(lp1012
tp1013
a(S'pa'
p1014
(dp1015
g422
F7.1e-05
sS'CONJ'
p1016
F0.999929
s(lp1017
g147
atp1018
a(S'taka'
p1019
(dp1020
S'PRON'
p1021
F1.0
s(lp1022
g134
atp1023
a(S'razprava'
p1024
(dp1025
S'NOUN'
p1026
F1.0
s(lp1027
g200
atp1028
a(S'\xc5\xa1e'
p1029
(dp1030
S'PRT'
p1031
F1.0
s(lp1032
g160
atp1033
a(S'ni'
p1034
(dp1035
S'VERB'
p1036
F1.0
s(lp1037
g154
atp1038
a(S'bila'
p1039
(dp1040
S'VERB'
p1041
F1.0
s(lp1042
g166
atp1043
a(S'omogo\xc4\x8dena'
p1044
(dp1045
S'ADJ'
p1046
F1.0
s(lp1047
g179
atp1048
a(g86
(dp1049
g86
F1.0
s(lp1050
g86
atp1051
asS'es'
p1052
(lp1053
(S'se'
p1054
(dp1055
S'PRON'
p1056
F1.0
sS'VERB'
p1057
F0.0
s(lp1058
g58
atp1059
a(S'ha'
p1060
(dp1061
S'VERB'
p1062
F1.0
s(lp1063
g51
atp1064
a(S'hablado'
p1065
(dp1066
S'VERB'
p1067
F1.0
s(lp1068
g64
atp1069
a(S'aqu\xc3\xad'
p1070
(dp1071
S'ADV'
p1072
F1.0
s(lp1073
g71
atp1074
a(S'del'
p1075
(dp1076
S'ADP'
p1077
F1.0
s(lp1078
g9
atp1079
a(S'aae'
p1080
(dp1081
S'ADV'
p1082
F2e-06
sS'ADJ'
p1083
F0.023552
sS'VERB'
p1084
F0.004286
sS'NOUN'
p1085
F0.972161
s(lp1086
g29
atp1087
a(S'del'
p1088
(dp1089
S'ADP'
p1090
F1.0
s(lp1091
g21
atp1092
a(S'cariforum'
p1093
(dp1094
S'ADJ'
p1095
F0.000417
sS'NOUN'
p1096
F0.999583
s(lp1097
tp1098
a(S'antes'
p1099
(dp1100
S'ADV'
p1101
F0.99721
sS'NOUN'
p1102
F0.00279
s(lp1103
g21
atp1104
a(S'de'
p1105
(dp1106
g422
F0.0
sS'CONJ'
p1107
F0.037177
sS'ADP'
p1108
F0.962823
s(lp1109
tp1110
a(S'que'
p1111
(dp1112
g422
F0.0
sS'CONJ'
p1113
F1.0
s(lp1114
g101
atp1115
a(S'los'
p1116
(dp1117
S'PRON'
p1118
F0.000194
sS'DET'
p1119
F0.999806
s(lp1120
g109
atp1121
a(S'parlamentos'
p1122
(dp1123
S'NOUN'
p1124
F1.0
s(lp1125
g115
atp1126
a(S'de'
p1127
(dp1128
g422
F0.0
sS'CONJ'
p1129
F1.7e-05
sS'ADP'
p1130
F0.999983
s(lp1131
g122
atp1132
a(S'los'
p1133
(dp1134
S'PRON'
p1135
F0.0
sS'DET'
p1136
F1.0
s(lp1137
g261
atp1138
a(S'estados'
p1139
(dp1140
S'NOUN'
p1141
F1.0
s(lp1142
tp1143
a(S'cariforum'
p1144
(dp1145
S'ADJ'
p1146
F0.151405
sS'NOUN'
p1147
F0.848595
s(lp1148
g134
atp1149
a(S'hayan'
p1150
(dp1151
S'VERB'
p1152
F1.0
s(lp1153
g147
atp1154
a(S'autorizado'
p1155
(dp1156
S'VERB'
p1157
F0.987755
sS'ADJ'
p1158
F0.012245
s(lp1159
g179
atp1160
a(S'que'
p1161
(dp1162
g422
F0.0
sS'CONJ'
p1163
F1.0
s(lp1164
g187
atp1165
a(S'se'
p1166
(dp1167
S'PRON'
p1168
F1.0
sS'VERB'
p1169
F0.0
s(lp1170
g166
atp1171
a(S'hable'
p1172
(dp1173
S'VERB'
p1174
F1.0
s(lp1175
g200
atp1176
a(S'de'
p1177
(dp1178
g422
F0.0
sS'CONJ'
p1179
F2.4e-05
sS'ADP'
p1180
F0.999976
s(lp1181
tp1182
a(S'ello'
p1183
(dp1184
S'PRON'
p1185
F1.0
s(lp1186
g194
atp1187
a(g86
(dp1188
g86
F1.0
s(lp1189
g86
atp1190
as.