(dp0
S'fr'
p1
(lp2
(S'n\xc3\xa9anmoins'
p3
(dp4
S'ADV'
p5
F1.0
s(lp6
S'nevertheless'
p7
atp8
a(S','
p9
(dp10
S'.'
p11
F1.0
s(lp12
tp13
a(S'je'
p14
(dp15
S'PRON'
p16
F1.0
s(lp17
S'i'
p18
atp19
a(S'pense'
p20
(dp21
S'VERB'
p22
F1.0
s(lp23
S'believe'
p24
atp25
a(S'que'
p26
(dp27
S'ADV'
p28
F0.11135
sS'PRON'
p29
F0.037054
sS'CONJ'
p30
F0.851596
s(lp31
S'that'
p32
atp33
a(S'le'
p34
(dp35
S'PRON'
p36
F0.017035
sS'DET'
p37
F0.982965
s(lp38
S'the'
p39
atp40
a(S'revenu'
p41
(dp42
S'VERB'
p43
F0.021094
sS'NOUN'
p44
F0.978906
s(lp45
S'income'
p46
atp47
a(S'minimum'
p48
(dp49
S'NOUN'
p50
F1.0
s(lp51
S'minimum'
p52
atp53
a(S'rel\xc3\xa8ve'
p54
(dp55
S'VERB'
p56
F0.968198
sS'NOUN'
p57
F0.031802
s(lp58
S'is'
p59
atp60
a(S'de'
p61
(dp62
S'ADP'
p63
F1.0
s(lp64
tp65
a(S'la'
p66
(dp67
S'PRON'
p68
F1.2e-05
sS'DET'
p69
F0.999988
sS'NOUN'
p70
F0.0
s(lp71
S'a'
p72
atp73
a(S'responsabilit\xc3\xa9'
p74
(dp75
S'NOUN'
p76
F1.0
s(lp77
S'responsibility'
p78
atp79
a(S'de'
p80
(dp81
S'ADP'
p82
F1.0
s(lp83
S'of'
p84
atp85
a(S'chaque'
p86
(dp87
S'PRON'
p88
F1.0
s(lp89
S'individual'
p90
atp91
a(S'\xc3\x89tat'
p92
(dp93
S'NOUN'
p94
F1.0
s(lp95
S'states'
p96
atp97
a(S'membre'
p98
(dp99
S'VERB'
p100
F0.349839
sS'NOUN'
p101
F0.650161
s(lp102
S'member'
p103
atp104
a(g9
(dp105
g11
F1.0
s(lp106
g9
atp107
a(S'sur'
p108
(dp109
S'ADP'
p110
F1.0
s(lp111
S'on'
p112
atp113
a(S'la'
p114
(dp115
S'PRON'
p116
F0.000102
sS'DET'
p117
F0.999897
sS'NOUN'
p118
F0.0
s(lp119
tp120
a(S'base'
p121
(dp122
S'VERB'
p123
F0.000126
sS'NOUN'
p124
F0.999874
s(lp125
S'based'
p126
atp127
a(S'du'
p128
(dp129
S'ADP'
p130
F1.0
s(lp131
S'the'
p132
atp133
a(S'principe'
p134
(dp135
S'NOUN'
p136
F1.0
s(lp137
S'principle'
p138
atp139
a(S'de'
p140
(dp141
S'ADP'
p142
F1.0
s(lp143
S'of'
p144
atp145
a(S'subsidiarit\xc3\xa9'
p146
(dp147
S'NOUN'
p148
F1.0
s(lp149
S'subsidiarity'
p150
atp151
a(g11
(dp152
g11
F1.0
s(lp153
g11
atp154
asS'en'
p155
(lp156
(g18
(dp157
S'X'
p158
F0.0008
sS'NOUN'
p159
F0.9992
s(lp160
g18
atp161
a(g7
(dp162
S'ADV'
p163
F1.0
s(lp164
g7
atp165
a(g24
(dp166
S'VERB'
p167
F1.0
s(lp168
g24
atp169
a(g32
(dp170
S'ADV'
p171
F0.00044
sS'DET'
p172
F0.002172
sS'ADP'
p173
F0.997388
s(lp174
g32
atp175
a(g39
(dp176
S'NOUN'
p177
F1e-06
sS'DET'
p178
F0.999999
s(lp179
g39
atp180
a(g52
(dp181
S'NOUN'
p182
F0.177642
sS'ADJ'
p183
F0.822358
s(lp184
g52
atp185
a(g46
(dp186
S'NOUN'
p187
F1.0
s(lp188
g46
atp189
a(g59
(dp190
S'VERB'
p191
F1.0
s(lp192
g59
atp193
a(g72
(dp194
S'NOUN'
p195
F0.0
sS'DET'
p196
F1.0
s(lp197
g72
atp198
a(g78
(dp199
S'NOUN'
p200
F1.0
s(lp201
g78
atp202
a(g84
(dp203
S'ADP'
p204
F1.0
s(lp205
g84
atp206
a(g90
(dp207
S'NOUN'
p208
F0.040607
sS'ADJ'
p209
F0.959393
s(lp210
g90
atp211
a(g103
(dp212
S'NOUN'
p213
F1.0
s(lp214
g103
atp215
a(g96
(dp216
S'VERB'
p217
F0.00932
sS'NOUN'
p218
F0.99068
s(lp219
g96
atp220
a(g9
(dp221
g11
F1.0
s(lp222
g9
atp223
a(g126
(dp224
S'VERB'
p225
F1.0
s(lp226
g126
atp227
a(g112
(dp228
S'ADV'
p229
F0.000948
sS'PRT'
p230
F0.00715
sS'ADJ'
p231
F0.0
sS'NOUN'
p232
F0.0
sS'ADP'
p233
F0.991902
s(lp234
g112
atp235
a(g132
(dp236
S'NOUN'
p237
F1e-06
sS'DET'
p238
F0.999999
s(lp239
g132
atp240
a(g138
(dp241
S'NOUN'
p242
F1.0
s(lp243
g138
atp244
a(g144
(dp245
S'ADP'
p246
F1.0
s(lp247
g144
atp248
a(g150
(dp249
S'NOUN'
p250
F1.0
s(lp251
g150
atp252
a(g11
(dp253
g11
F1.0
s(lp254
g11
atp255
asS'nl'
p256
(lp257
(S'wat'
p258
(dp259
S'ADV'
p260
F0.05752
sS'PRON'
p261
F0.94248
s(lp262
tp263
a(S'het'
p264
(dp265
S'PRON'
p266
F0.017688
sS'DET'
p267
F0.982312
s(lp268
g39
atp269
a(S'minimuminkomen'
p270
(dp271
S'NOUN'
p272
F1.0
s(lp273
g52
atp274
a(S'betreft'
p275
(dp276
S'VERB'
p277
F1.0
s(lp278
tp279
a(S'ben'
p280
(dp281
S'VERB'
p282
F1.0
s(lp283
tp284
a(S'ik'
p285
(dp286
S'PRON'
p287
F0.999995
sS'NOUN'
p288
F5e-06
s(lp289
g18
atp290
a(S'van'
p291
(dp292
S'ADP'
p293
F1.0
s(lp294
tp295
a(S'mening'
p296
(dp297
S'NOUN'
p298
F1.0
s(lp299
g24
atp300
a(S'dat'
p301
(dp302
S'PRON'
p303
F0.023346
sS'CONJ'
p304
F0.976654
s(lp305
g32
atp306
a(S'dit'
p307
(dp308
S'PRON'
p309
F1.0
s(lp310
g7
atp311
a(S'een'
p312
(dp313
S'ADJ'
p314
F9e-06
sS'NUM'
p315
F0.0
sS'DET'
p316
F0.999987
sS'PRON'
p317
F4e-06
s(lp318
g72
atp319
a(S'vraagstuk'
p320
(dp321
S'NOUN'
p322
F1.0
s(lp323
g46
atp324
a(S'is'
p325
(dp326
S'VERB'
p327
F1.0
s(lp328
g59
atp329
a(S'dat'
p330
(dp331
S'PRON'
p332
F0.247009
sS'CONJ'
p333
F0.752992
s(lp334
g9
atp335
a(S'op'
p336
(dp337
S'ADV'
p338
F0.006222
sS'ADJ'
p339
F1.2e-05
sS'ADP'
p340
F0.993766
s(lp341
tp342
a(S'grond'
p343
(dp344
S'VERB'
p345
F8e-06
sS'NOUN'
p346
F0.999992
s(lp347
g126
atp348
a(S'van'
p349
(dp350
S'ADP'
p351
F1.0
s(lp352
g112
atp353
a(S'het'
p354
(dp355
S'PRON'
p356
F0.000927
sS'DET'
p357
F0.999073
s(lp358
g132
atp359
a(S'subsidiariteitsbeginsel'
p360
(dp361
S'NOUN'
p362
F1.0
s(lp363
g150
atp364
a(S'onder'
p365
(dp366
S'ADV'
p367
F1.5e-05
sS'ADP'
p368
F0.999985
s(lp369
tp370
a(S'de'
p371
(dp372
S'DET'
p373
F1.0
s(lp374
tp375
a(S'bevoegdheid'
p376
(dp377
S'NOUN'
p378
F1.0
s(lp379
g78
atp380
a(S'van'
p381
(dp382
S'ADP'
p383
F1.0
s(lp384
g84
atp385
a(S'de'
p386
(dp387
S'DET'
p388
F1.0
s(lp389
g90
atp390
a(S'lidstaten'
p391
(dp392
S'NOUN'
p393
F1.0
s(lp394
g103
atp395
a(S'valt'
p396
(dp397
S'VERB'
p398
F1.0
s(lp399
g96
atp400
a(g11
(dp401
g11
F1.0
s(lp402
g11
atp403
asS'de'
p404
(lp405
(S'dennoch'
p406
(dp407
S'ADV'
p408
F1.0
s(lp409
g7
atp410
a(S'glaube'
p411
(dp412
S'VERB'
p413
F1.0
s(lp414
g24
atp415
a(S'ich'
p416
(dp417
S'PRON'
p418
F1.0
s(lp419
g18
atp420
a(g9
(dp421
g11
F1.0
s(lp422
tp423
a(S'dass'
p424
(dp425
S'CONJ'
p426
F1.0
s(lp427
g32
atp428
a(S'das'
p429
(dp430
S'PRON'
p431
F0.547095
sS'DET'
p432
F0.452231
s(lp433
g39
atp434
a(S'mindesteinkommen'
p435
(dp436
S'VERB'
p437
F0.402325
sS'NOUN'
p438
F0.244746
s(lp439
g52
atp440
a(S'aufgrund'
p441
(dp442
S'ADP'
p443
F1.0
s(lp444
g126
atp445
a(S'des'
p446
(dp447
S'DET'
p448
F1.0
s(lp449
g144
atp450
a(S'subsidiarit\xc3\xa4tsprinzips'
p451
(dp452
S'ADJ'
p453
F0.022546
sS'NOUN'
p454
F0.960024
s(lp455
g150
atp456
a(S'in'
p457
(dp458
S'ADP'
p459
F1.0
s(lp460
g112
atp461
a(S'den'
p462
(dp463
S'PRON'
p464
F4.5e-05
sS'DET'
p465
F0.999954
s(lp466
g132
atp467
a(S'verantwortungsbereich'
p468
(dp469
S'ADJ'
p470
F0.005901
sS'NOUN'
p471
F0.990606
s(lp472
g78
atp473
a(S'der'
p474
(dp475
S'PRON'
p476
F8.7e-05
sS'DET'
p477
F0.999905
s(lp478
g84
atp479
a(S'einzelnen'
p480
(dp481
S'ADJ'
p482
F1.0
s(lp483
g90
atp484
a(S'mitgliedstaaten'
p485
(dp486
S'ADJ'
p487
F0.002361
sS'NOUN'
p488
F0.995851
s(lp489
g103
atp490
a(S'f\xc3\xa4llt'
p491
(dp492
S'VERB'
p493
F1.0
s(lp494
g96
atp495
a(g11
(dp496
g11
F1.0
s(lp497
g11
atp498
asS'it'
p499
(lp500
(S'quanto'
p501
(dp502
S'ADV'
p503
F0.796989
sS'PRON'
p504
F0.1985
sS'ADJ'
p505
F0.004008
sS'NOUN'
p506
F0.000503
s(lp507
g32
atp508
a(S'al'
p509
(dp510
S'ADP'
p511
F1.0
s(lp512
g39
atp513
a(S'reddito'
p514
(dp515
S'NOUN'
p516
F1.0
s(lp517
g46
atp518
a(S'minimo'
p519
(dp520
S'NOUN'
p521
F0.043902
sS'ADJ'
p522
F0.956098
s(lp523
g52
atp524
a(g9
(dp525
g11
F1.0
s(lp526
g18
atp527
a(S'per\xc3\xb2'
p528
(dp529
S'ADV'
p530
F1.0
s(lp531
g7
atp532
a(g9
(dp533
g11
F1.0
s(lp534
tp535
a(S'ritengo'
p536
(dp537
S'VERB'
p538
F1.0
s(lp539
g24
atp540
a(S'rientri'
p541
(dp542
S'VERB'
p543
F0.142943
sS'NOUN'
p544
F0.857056
s(lp545
g59
atp546
a(S'nelle'
p547
(dp548
S'ADP'
p549
F1.0
s(lp550
tp551
a(S'competenze'
p552
(dp553
S'NOUN'
p554
F1.0
s(lp555
g78
atp556
a(S'dei'
p557
(dp558
S'NOUN'
p559
F3.5e-05
sS'DEF'
p560
F0.002022
sS'ADP'
p561
F0.997944
s(lp562
g84
atp563
a(S'singoli'
p564
(dp565
S'NOUN'
p566
F0.385116
sS'ADJ'
p567
F0.614884
s(lp568
g90
atp569
a(S'stati'
p570
(dp571
S'VERB'
p572
F0.88731
sS'NOUN'
p573
F0.11269
s(lp574
g96
atp575
a(S'membri'
p576
(dp577
S'NOUN'
p578
F1.0
s(lp579
g103
atp580
a(g9
(dp581
g11
F1.0
s(lp582
g9
atp583
a(S'sulla'
p584
(dp585
S'NOUN'
p586
F4.8e-05
sS'ADP'
p587
F0.999952
s(lp588
g112
atp589
a(S'base'
p590
(dp591
S'NOUN'
p592
F1.0
s(lp593
g126
atp594
a(S'del'
p595
(dp596
S'DEF'
p597
F0.001245
sS'ADP'
p598
F0.998755
s(lp599
tp600
a(S'rispetto'
p601
(dp602
S'VERB'
p603
F0.00238
sS'NOUN'
p604
F0.99762
s(lp605
g112
atp606
a(S'del'
p607
(dp608
S'DEF'
p609
F0.001364
sS'ADP'
p610
F0.998636
s(lp611
g132
atp612
a(S'principio'
p613
(dp614
S'VERB'
p615
F0.000174
sS'NOUN'
p616
F0.999826
s(lp617
g138
atp618
a(S'di'
p619
(dp620
S'CONJ'
p621
F4e-06
sS'ADP'
p622
F0.999996
s(lp623
g144
atp624
a(S'sussidiariet\xc3\xa0'
p625
(dp626
S'NOUN'
p627
F1.0
s(lp628
g150
atp629
a(g11
(dp630
g11
F1.0
s(lp631
g11
atp632
asS'sk'
p633
(lp634
(S'napriek'
p635
(dp636
S'ADV'
p637
F0.000166
sS'CONJ'
p638
F0.000163
sS'ADP'
p639
F0.999671
s(lp640
tp641
a(S'tomu'
p642
(dp643
S'PRON'
p644
F0.999971
sg158
F2.9e-05
s(lp645
g7
atp646
a(S'sa'
p647
(dp648
S'PRT'
p649
F0.999844
sS'ADP'
p650
F0.0
sg158
F0.000156
s(lp651
g24
atp652
a(S'domnievam'
p653
(dp654
S'VERB'
p655
F1.0
s(lp656
tp657
a(g9
(dp658
g11
F1.0
s(lp659
g24
atp660
a(S'\xc5\xbee'
p661
(dp662
g158
F0.000496
sS'CONJ'
p663
F0.999504
s(lp664
g32
atp665
a(S'minim\xc3\xa1lny'
p666
(dp667
S'ADJ'
p668
F1.0
s(lp669
g52
atp670
a(S'pr\xc3\xadjem'
p671
(dp672
S'NOUN'
p673
F1.0
s(lp674
g46
atp675
a(S'na'
p676
(dp677
g158
F0.000156
sS'CONJ'
p678
F1.5e-05
sS'ADP'
p679
F0.999826
sS'PRT'
p680
F3e-06
s(lp681
g112
atp682
a(S'z\xc3\xa1klade'
p683
(dp684
S'NOUN'
p685
F1.0
s(lp686
g126
atp687
a(S'z\xc3\xa1sady'
p688
(dp689
S'NOUN'
p690
F1.0
s(lp691
g138
atp692
a(S'subsidiarity'
p693
(dp694
S'NOUN'
p695
F1.0
s(lp696
g150
atp697
a(S'patr\xc3\xad'
p698
(dp699
S'VERB'
p700
F1.0
s(lp701
g59
atp702
a(S'do'
p703
(dp704
S'PRON'
p705
F0.000133
sS'ADP'
p706
F0.999651
sg158
F0.00021499999999999997
s(lp707
g72
atp708
a(S'kompetencie'
p709
(dp710
S'NOUN'
p711
F1.0
s(lp712
g78
atp713
a(S'jednotliv\xc3\xbdch'
p714
(dp715
S'ADJ'
p716
F1.0
s(lp717
g90
atp718
a(S'\xc4\x8dlensk\xc3\xbdch'
p719
(dp720
S'ADJ'
p721
F1.0
s(lp722
g103
atp723
a(S'\xc5\xa1t\xc3\xa1tov'
p724
(dp725
S'NOUN'
p726
F1.0
s(lp727
g96
atp728
a(g11
(dp729
g11
F1.0
s(lp730
g11
atp731
asS'pl'
p732
(lp733
(S'uwa\xc5\xbcam'
p734
(dp735
S'VERB'
p736
F1.0
s(lp737
g24
atp738
a(S'jednak'
p739
(dp740
S'PRT'
p741
F0.286219
sS'CONJ'
p742
F0.713781
s(lp743
g7
atp744
a(g9
(dp745
g158
F0.0
sg11
F1.0
s(lp746
tp747
a(S'\xc5\xbce'
p748
(dp749
S'PRT'
p750
F0.000143
sS'CONJ'
p751
F0.999857
s(lp752
g32
atp753
a(S'doch\xc3\xb3d'
p754
(dp755
S'NOUN'
p756
F1.0
s(lp757
g46
atp758
a(S'minimalny'
p759
(dp760
S'ADV'
p761
F7.1e-05
sS'NOUN'
p762
F0.0032719999999999993
sS'VERB'
p763
F8.1e-05
sS'ADJ'
p764
F0.9965759999999999
s(lp765
g52
atp766
a(S'jest'
p767
(dp768
S'VERB'
p769
F1.0
s(lp770
g59
atp771
a(S'spraw\xc4\x85'
p772
(dp773
S'NOUN'
p774
F1.0
s(lp775
g72
atp776
a(g9
(dp777
g158
F0.0
sg11
F1.0
s(lp778
tp779
a(S'kt\xc3\xb3ra'
p780
(dp781
S'ADJ'
p782
F1.0
s(lp783
tp784
a(S'wchodzi'
p785
(dp786
S'VERB'
p787
F1.0
s(lp788
g78
atp789
a(S'w'
p790
(dp791
S'ADJ'
p792
F0.0
sg158
F2e-06
sS'NOUN'
p793
F4e-05
sS'ADP'
p794
F0.999957
s(lp795
g72
atp796
a(S'zakres'
p797
(dp798
S'NOUN'
p799
F1.0
s(lp800
tp801
a(S'odpowiedzialno\xc5\x9bci'
p802
(dp803
S'NOUN'
p804
F1.0
s(lp805
g78
atp806
a(S'poszczeg\xc3\xb3lnych'
p807
(dp808
S'ADJ'
p809
F1.0
s(lp810
g90
atp811
a(S'pa\xc5\x84stw'
p812
(dp813
S'NOUN'
p814
F1.0
s(lp815
g96
atp816
a(S'cz\xc5\x82onkowskich'
p817
(dp818
S'ADJ'
p819
F1.000001
s(lp820
g103
atp821
a(g9
(dp822
g158
F0.0
sg11
F1.0
s(lp823
g9
atp824
a(S'zgodnie'
p825
(dp826
S'ADV'
p827
F1.0
s(lp828
g126
atp829
a(S'z'
p830
(dp831
S'PRT'
p832
F2.6e-05
sS'VERB'
p833
F1e-06
sS'NOUN'
p834
F0.0
sS'ADP'
p835
F0.999973
sg158
F0.0
s(lp836
g112
atp837
a(S'zasad\xc4\x85'
p838
(dp839
S'NOUN'
p840
F1.0
s(lp841
g138
atp842
a(S'pomocniczo\xc5\x9bci'
p843
(dp844
S'NOUN'
p845
F1.0
s(lp846
g150
atp847
a(g11
(dp848
g11
F1.0
s(lp849
g11
atp850
asS'sl'
p851
(lp852
(S'kljub'
p853
(dp854
S'ADP'
p855
F1.0
s(lp856
tp857
a(S'temu'
p858
(dp859
S'PRON'
p860
F1.0
s(lp861
g7
atp862
a(S'menim'
p863
(dp864
S'VERB'
p865
F1.0
s(lp866
g24
atp867
a(g9
(dp868
g11
F1.0
s(lp869
tp870
a(S'da'
p871
(dp872
S'PRT'
p873
F4e-06
sS'CONJ'
p874
F0.999979
sS'VERB'
p875
F1.5e-05
sg158
F2e-06
s(lp876
g32
atp877
a(S'je'
p878
(dp879
S'PRON'
p880
F0.400254
sS'VERB'
p881
F0.599706
sg158
F4e-05
s(lp882
g39
atp883
a(S'minimalni'
p884
(dp885
S'ADJ'
p886
F1.0
s(lp887
g52
atp888
a(S'dohodek'
p889
(dp890
S'NOUN'
p891
F1.0
s(lp892
g46
atp893
a(S'pristojnost'
p894
(dp895
S'NOUN'
p896
F1.0
s(lp897
g78
atp898
a(S'posameznih'
p899
(dp900
S'ADJ'
p901
F0.9999989999999999
s(lp902
g90
atp903
a(S'dr\xc5\xbeav'
p904
(dp905
S'NOUN'
p906
F1.0
s(lp907
g103
atp908
a(S'\xc4\x8dlanic'
p909
(dp910
S'NOUN'
p911
F1.0
s(lp912
g96
atp913
a(S'na'
p914
(dp915
S'ADP'
p916
F1.0
s(lp917
tp918
a(S'temelju'
p919
(dp920
S'NOUN'
p921
F1.0
s(lp922
g126
atp923
a(S'na\xc4\x8dela'
p924
(dp925
S'VERB'
p926
F0.071414
sS'NOUN'
p927
F0.928585
s(lp928
g138
atp929
a(S'subsidiarnosti'
p930
(dp931
S'ADV'
p932
F0.003285
sS'ADJ'
p933
F0.0045379999999999995
sS'VERB'
p934
F0.019099
sS'NOUN'
p935
F0.9730779999999997
s(lp936
g150
atp937
a(g11
(dp938
g11
F1.0
s(lp939
g11
atp940
asS'es'
p941
(lp942
(S'considero'
p943
(dp944
S'VERB'
p945
F1.0
s(lp946
g24
atp947
a(g9
(dp948
g11
F1.0
s(lp949
g18
atp950
a(S'no'
p951
(dp952
S'ADV'
p953
F1.0
s(lp954
tp955
a(S'obstante'
p956
(dp957
S'ADV'
p958
F1.0
s(lp959
g7
atp960
a(g9
(dp961
g11
F1.0
s(lp962
tp963
a(S'que'
p964
(dp965
g158
F0.0
sS'CONJ'
p966
F1.0
s(lp967
g32
atp968
a(S'la'
p969
(dp970
S'PRON'
p971
F0.005243
sS'DET'
p972
F0.994757
sg158
F0.0
sS'NOUN'
p973
F0.0
s(lp974
g39
atp975
a(S'renta'
p976
(dp977
S'VERB'
p978
F0.00506
sS'NOUN'
p979
F0.99494
s(lp980
g46
atp981
a(S'm\xc3\xadnima'
p982
(dp983
S'ADJ'
p984
F1.0
s(lp985
g52
atp986
a(S'es'
p987
(dp988
S'VERB'
p989
F1.0
s(lp990
g59
atp991
a(S'competencia'
p992
(dp993
S'NOUN'
p994
F1.0
s(lp995
g78
atp996
a(S'de'
p997
(dp998
g158
F0.0
sS'CONJ'
p999
F1.7e-05
sS'ADP'
p1000
F0.999983
s(lp1001
g84
atp1002
a(S'los'
p1003
(dp1004
S'PRON'
p1005
F0.0
sS'DET'
p1006
F1.0
s(lp1007
tp1008
a(S'estados'
p1009
(dp1010
S'NOUN'
p1011
F1.0
s(lp1012
g96
atp1013
a(S'miembros'
p1014
(dp1015
S'NOUN'
p1016
F1.0
s(lp1017
g103
atp1018
a(S'individuales'
p1019
(dp1020
S'ADJ'
p1021
F1.0
s(lp1022
g90
atp1023
a(g9
(dp1024
g11
F1.0
s(lp1025
g9
atp1026
a(S'sobre'
p1027
(dp1028
S'NOUN'
p1029
F0.0
sS'ADP'
p1030
F1.0
s(lp1031
g112
atp1032
a(S'la'
p1033
(dp1034
g158
F1e-06
sS'PRON'
p1035
F0.0
sS'DET'
p1036
F0.999999
sS'NOUN'
p1037
F1e-06
s(lp1038
tp1039
a(S'base'
p1040
(dp1041
S'ADJ'
p1042
F0.004199
sS'VERB'
p1043
F8e-06
sS'NOUN'
p1044
F0.99576
sg158
F3.4e-05
s(lp1045
g126
atp1046
a(S'del'
p1047
(dp1048
S'ADP'
p1049
F1.0
s(lp1050
g132
atp1051
a(S'principio'
p1052
(dp1053
S'NOUN'
p1054
F1.0
s(lp1055
g138
atp1056
a(S'de'
p1057
(dp1058
g158
F2.9e-05
sS'CONJ'
p1059
F0.000449
sS'ADP'
p1060
F0.999522
s(lp1061
g144
atp1062
a(S'subsidiariedad'
p1063
(dp1064
S'NOUN'
p1065
F1.0
s(lp1066
g150
atp1067
a(g11
(dp1068
g11
F1.0
s(lp1069
g11
atp1070
as.