(dp0
S'fr'
p1
(lp2
(S'le'
p3
(dp4
S'PRON'
p5
F0.000439
sS'DET'
p6
F0.999561
s(lp7
tp8
a(S'groenland'
p9
(dp10
S'ADJ'
p11
F0.000815
sS'NOUN'
p12
F0.999185
s(lp13
S'greenland'
p14
atp15
a(S'a-t-il'
p16
(dp17
S'VERB'
p18
F1.0
s(lp19
S'there'
p20
atp21
a(S'un'
p22
(dp23
S'NOUN'
p24
F8.2e-05
sS'NUM'
p25
F0.00014
sS'DET'
p26
F0.999779
s(lp27
S'a'
p28
atp29
a(S'r\xc3\xb4le'
p30
(dp31
S'NOUN'
p32
F1.0
s(lp33
tp34
a(S'\xc3\xa0'
p35
(dp36
S'ADP'
p37
F1.0
s(lp38
S'for'
p39
atp40
a(S'jouer'
p41
(dp42
S'VERB'
p43
F1.0
s(lp44
S'role'
p45
atp46
a(S'?'
p47
(dp48
S'.'
p49
F1.0
s(lp50
g47
atp51
asS'en'
p52
(lp53
(S'is'
p54
(dp55
S'VERB'
p56
F1.0
s(lp57
g54
atp58
a(g20
(dp59
S'ADV'
p60
F0.990445
sS'ADJ'
p61
F6e-06
sS'DET'
p62
F0.009335
sS'ADP'
p63
F0.000214
s(lp64
g20
atp65
a(g28
(dp66
S'NOUN'
p67
F0.0
sS'DET'
p68
F1.0
s(lp69
g28
atp70
a(g45
(dp71
S'NOUN'
p72
F1.0
s(lp73
g45
atp74
a(g39
(dp75
S'ADP'
p76
F1.0
s(lp77
g39
atp78
a(g14
(dp79
S'ADJ'
p80
F0.019544
sS'VERB'
p81
F0.001179
sS'NOUN'
p82
F0.979277
s(lp83
g14
atp84
a(g47
(dp85
g49
F1.0
s(lp86
g47
atp87
asS'nl'
p88
(lp89
(S'is'
p90
(dp91
S'VERB'
p92
F1.0
s(lp93
g54
atp94
a(S'er'
p95
(dp96
S'ADV'
p97
F1.0
s(lp98
g20
atp99
a(S'een'
p100
(dp101
S'ADJ'
p102
F1e-06
sS'PRON'
p103
F7e-06
sS'NUM'
p104
F0.0
sS'DET'
p105
F0.999992
s(lp106
g28
atp107
a(S'rol'
p108
(dp109
S'VERB'
p110
F5.5e-05
sS'NOUN'
p111
F0.999945
s(lp112
tp113
a(S'weggelegd'
p114
(dp115
S'VERB'
p116
F1.0
s(lp117
g45
atp118
a(S'voor'
p119
(dp120
S'ADV'
p121
F3.4e-05
sS'CONJ'
p122
F2e-06
sS'NOUN'
p123
F0.0
sS'ADP'
p124
F0.999964
s(lp125
g39
atp126
a(S'groenland'
p127
(dp128
S'ADJ'
p129
F0.000145
sS'NOUN'
p130
F0.9998549999999999
s(lp131
g14
atp132
a(g47
(dp133
g49
F1.0
s(lp134
g47
atp135
asS'de'
p136
(lp137
(S'spielt'
p138
(dp139
S'VERB'
p140
F1.0
s(lp141
g54
atp142
a(S'gr\xc3\xb6nland'
p143
(dp144
S'NOUN'
p145
F0.97356
s(lp146
g14
atp147
a(S'dabei'
p148
(dp149
S'ADV'
p150
F0.964691
sS'PRT'
p151
F0.035309
s(lp152
g20
atp153
a(S'eine'
p154
(dp155
S'PRON'
p156
F0.791547
sS'DET'
p157
F0.201464
s(lp158
g28
atp159
a(S'rolle'
p160
(dp161
S'VERB'
p162
F1.0
s(lp163
g45
atp164
a(g47
(dp165
g49
F1.0
s(lp166
g47
atp167
asS'it'
p168
(lp169
(S"c'"
p170
(dp171
S'NOUN'
p172
F1.0
s(lp173
g20
atp174
a(S'\xc3\xa8'
p175
(dp176
S'VERB'
p177
F1.0
s(lp178
g54
atp179
a(S'un'
p180
(dp181
S'PRON'
p182
F0.001159
sS'DEF'
p183
F0.998841
s(lp184
g28
atp185
a(S'ruolo'
p186
(dp187
S'NOUN'
p188
F1.0
s(lp189
g45
atp190
a(S'per'
p191
(dp192
S'CONJ'
p193
F0.057763
sS'ADP'
p194
F0.942237
s(lp195
g39
atp196
a(S'la'
p197
(dp198
S'PRON'
p199
F0.095158
sS'DET'
p200
F0.904842
s(lp201
tp202
a(S'groenlandia'
p203
(dp204
S'VERB'
p205
F0.095825
sS'NOUN'
p206
F0.904175
s(lp207
g14
atp208
a(g47
(dp209
g49
F1.0
s(lp210
g47
atp211
asS'sk'
p212
(lp213
(S'existuje'
p214
(dp215
S'VERB'
p216
F1.0
s(lp217
g20
atp218
a(S'\xc3\xbaloha'
p219
(dp220
S'NOUN'
p221
F1.0
s(lp222
g45
atp223
a(S'pre'
p224
(dp225
S'X'
p226
F0.00019
sS'ADP'
p227
F0.99981
s(lp228
g39
atp229
a(S'gr\xc3\xb3nsko'
p230
(dp231
S'ADJ'
p232
F0.000411
sS'NOUN'
p233
F0.9995580000000001
sg226
F3.1e-05
s(lp234
g14
atp235
a(g47
(dp236
g49
F1.0
s(lp237
g47
atp238
asS'pl'
p239
(lp240
(S'czy'
p241
(dp242
S'PRT'
p243
F0.555491
sS'CONJ'
p244
F0.444424
sS'NUM'
p245
F8e-05
sS'NOUN'
p246
F5e-06
s(lp247
g54
atp248
a(S'w'
p249
(dp250
S'ADJ'
p251
F0.0
sg226
F0.0
sS'NOUN'
p252
F0.0
sS'ADP'
p253
F0.999999
s(lp254
tp255
a(S'tym'
p256
(dp257
S'ADV'
p258
F1e-06
sS'NOUN'
p259
F0.006806
sS'CONJ'
p260
F0.0
sS'ADJ'
p261
F0.993193
sS'PRT'
p262
F0.0
s(lp263
g20
atp264
a(S'przypadku'
p265
(dp266
S'NOUN'
p267
F1.0
s(lp268
g39
atp269
a(S'pewn\xc4\x85'
p270
(dp271
S'ADJ'
p272
F1.0
s(lp273
g14
atp274
a(S'rol\xc4\x99'
p275
(dp276
S'NOUN'
p277
F1.0
s(lp278
g45
atp279
a(S'powinna'
p280
(dp281
S'VERB'
p282
F1.0
s(lp283
g14
atp284
a(S'odegra\xc4\x87'
p285
(dp286
S'VERB'
p287
F1.0
s(lp288
tp289
a(S'grenlandia'
p290
(dp291
S'ADJ'
p292
F0.15555699999999997
sS'VERB'
p293
F0.0056700000000000006
sS'NOUN'
p294
F0.8387709999999999
s(lp295
g14
atp296
a(g47
(dp297
g49
F1.0
s(lp298
g47
atp299
asS'sl'
p300
(lp301
(S'bo'
p302
(dp303
S'VERB'
p304
F1.0
s(lp305
g54
atp306
a(S'grenlandija'
p307
(dp308
S'ADJ'
p309
F0.000433
sS'VERB'
p310
F0.000127
sS'NOUN'
p311
F0.9994400000000001
s(lp312
g14
atp313
a(S'imela'
p314
(dp315
S'VERB'
p316
F1.0
s(lp317
tp318
a(S'kak\xc5\xa1no'
p319
(dp320
S'PRON'
p321
F1.000001
s(lp322
g14
atp323
a(S'vlogo'
p324
(dp325
S'NOUN'
p326
F1.0
s(lp327
g45
atp328
a(g47
(dp329
g49
F1.0
s(lp330
g47
atp331
asS'es'
p332
(lp333
(S'\xc2\xbf'
p334
(dp335
S'PRON'
p336
F0.925742
sg49
F0.074258
s(lp337
tp338
a(S'tiene'
p339
(dp340
S'VERB'
p341
F1.0
s(lp342
g54
atp343
a(S'groenlandia'
p344
(dp345
S'ADJ'
p346
F0.009304
sS'VERB'
p347
F0.252637
sS'NOUN'
p348
F0.7380589999999999
s(lp349
g14
atp350
a(S'aqu\xc3\xad'
p351
(dp352
S'ADV'
p353
F1.0
s(lp354
g20
atp355
a(S'alguna'
p356
(dp357
S'ADJ'
p358
F1.0
s(lp359
g28
atp360
a(S'funci\xc3\xb3n'
p361
(dp362
S'NOUN'
p363
F1.0
s(lp364
tp365
a(S'que'
p366
(dp367
g226
F5e-06
sS'CONJ'
p368
F0.999995
s(lp369
g39
atp370
a(S'desempe\xc3\xb1ar'
p371
(dp372
S'VERB'
p373
F1.0
s(lp374
g45
atp375
a(g47
(dp376
g49
F1.0
s(lp377
g47
atp378
as.