(dp0
S'fr'
p1
(lp2
(S'par'
p3
(dp4
S'NOUN'
p5
F7.6e-05
sS'ADP'
p6
F0.999924
s(lp7
S'in'
p8
atp9
a(S'\xc3\xa9crit'
p10
(dp11
S'VERB'
p12
F0.035327000000000004
sS'NOUN'
p13
F0.964674
s(lp14
S'writing'
p15
atp16
a(S'.'
p17
(dp18
g17
F1.0
s(lp19
g17
atp20
a(S'-'
p21
(dp22
g17
F1.0
s(lp23
g21
atp24
a(S"j'"
p25
(dp26
S'ADJ'
p27
F0.280608
sS'VERB'
p28
F0.007367
sS'NOUN'
p29
F0.681695
sS'X'
p30
F0.03033
s(lp31
S'i'
p32
atp33
a(S'ai'
p34
(dp35
S'VERB'
p36
F1.0
s(lp37
tp38
a(S'vot\xc3\xa9'
p39
(dp40
S'VERB'
p41
F1.0
s(lp42
S'voted'
p43
atp44
a(S'en'
p45
(dp46
S'PRON'
p47
F0.000403
sS'ADP'
p48
F0.999597
s(lp49
S'in'
p50
atp51
a(S'faveur'
p52
(dp53
S'NOUN'
p54
F1.0
s(lp55
S'favour'
p56
atp57
a(S'du'
p58
(dp59
S'ADP'
p60
F1.0
s(lp61
S'of'
p62
atp63
a(S'rapport'
p64
(dp65
S'NOUN'
p66
F1.0
s(lp67
S'report'
p68
atp69
a(S'sur'
p70
(dp71
S'ADP'
p72
F1.0
s(lp73
S'on'
p74
atp75
a(S'une'
p76
(dp77
S'NOUN'
p78
F0.001508
sS'NUM'
p79
F0.005241
sS'DET'
p80
F0.993251
s(lp81
S'a'
p82
atp83
a(S'nouvelle'
p84
(dp85
S'NOUN'
p86
F0.004219
sS'ADJ'
p87
F0.995781
s(lp88
S'new'
p89
atp90
a(S'strat\xc3\xa9gie'
p91
(dp92
S'NOUN'
p93
F1.0
s(lp94
S'strategy'
p95
atp96
a(S'de'
p97
(dp98
S'ADP'
p99
F1.0
s(lp100
tp101
a(S'sant\xc3\xa9'
p102
(dp103
S'NOUN'
p104
F1.0
s(lp105
S'health'
p106
atp107
a(S'animale'
p108
(dp109
S'ADJ'
p110
F1.0
s(lp111
S'animal'
p112
atp113
a(S'pour'
p114
(dp115
S'CONJ'
p116
F0.450305
sS'ADP'
p117
F0.549695
s(lp118
S'for'
p119
atp120
a(S"l'"
p121
(dp122
S'ADJ'
p123
F0.114474
sS'VERB'
p124
F0.4371050000000001
sS'NOUN'
p125
F0.448422
s(lp126
S'the'
p127
atp128
a(S'union'
p129
(dp130
S'NOUN'
p131
F1.0
s(lp132
tp133
a(S'europ\xc3\xa9enne'
p134
(dp135
S'NOUN'
p136
F0.009563
sS'ADJ'
p137
F0.990437
s(lp138
S'eu'
p139
atp140
a(S'car'
p141
(dp142
S'CONJ'
p143
F0.99465
sS'NOUN'
p144
F0.00535
s(lp145
S'because'
p146
atp147
a(S'je'
p148
(dp149
S'PRON'
p150
F1.0
s(lp151
g32
atp152
a(S'suis'
p153
(dp154
S'VERB'
p155
F1.0
s(lp156
S'am'
p157
atp158
a(S'clairement'
p159
(dp160
S'ADV'
p161
F1.0
s(lp162
S'strongly'
p163
atp164
a(S'en'
p165
(dp166
S'PRON'
p167
F0.001028
sS'ADP'
p168
F0.998972
s(lp169
S'in'
p170
atp171
a(S'faveur'
p172
(dp173
S'NOUN'
p174
F1.0
s(lp175
S'favour'
p176
atp177
a(S'de'
p178
(dp179
S'ADP'
p180
F1.0
s(lp181
S'of'
p182
atp183
a(S"l'"
p184
(dp185
S'ADJ'
p186
F0.160704
sS'VERB'
p187
F0.06480800000000002
sS'NOUN'
p188
F0.774488
s(lp189
tp190
a(S'agriculture'
p191
(dp192
S'NOUN'
p193
F1.0
s(lp194
S'agriculture'
p195
atp196
a(S'durable'
p197
(dp198
S'ADJ'
p199
F1.0
s(lp200
S'sustainable'
p201
atp202
a(S'et'
p203
(dp204
S'CONJ'
p205
F1.0
s(lp206
S'and'
p207
atp208
a(S'je'
p209
(dp210
S'PRON'
p211
F1.0
s(lp212
g32
atp213
a(S'ne'
p214
(dp215
S'ADV'
p216
F1.0
s(lp217
tp218
a(S'peux'
p219
(dp220
S'VERB'
p221
F1.0
s(lp222
S'can'
p223
atp224
a(S'que'
p225
(dp226
S'ADV'
p227
F0.153548
sS'PRON'
p228
F0.003195
sS'CONJ'
p229
F0.843257
s(lp230
S'only'
p231
atp232
a(S'soutenir'
p233
(dp234
S'VERB'
p235
F1.0
s(lp236
S'endorse'
p237
atp238
a(S'les'
p239
(dp240
S'PRON'
p241
F3.1e-05
sS'DET'
p242
F0.999948
sS'ADP'
p243
F2.1e-05
s(lp244
S'any'
p245
atp246
a(S'initiatives'
p247
(dp248
S'NOUN'
p249
F1.0
s(lp250
S'measure'
p251
atp252
a(S'politiques'
p253
(dp254
S'NOUN'
p255
F0.000812
sS'VERB'
p256
F8.3e-05
sS'ADJ'
p257
F0.999106
s(lp258
S'policy'
p259
atp260
a(S'et'
p261
(dp262
S'CONJ'
p263
F1.0
s(lp264
S'or'
p265
atp266
a(S'les'
p267
(dp268
S'PRON'
p269
F0.000808
sS'DET'
p270
F0.999176
sS'ADP'
p271
F1.6e-05
s(lp272
tp273
a(S'pratiques'
p274
(dp275
S'ADJ'
p276
F0.197304
sS'VERB'
p277
F0.000127
sS'NOUN'
p278
F0.802568
s(lp279
S'practice'
p280
atp281
a(S'visant'
p282
(dp283
S'VERB'
p284
F1.0
s(lp285
S'seeks'
p286
atp287
a(S'\xc3\xa0'
p288
(dp289
S'ADP'
p290
F1.0
s(lp291
S'to'
p292
atp293
a(S'promouvoir'
p294
(dp295
S'VERB'
p296
F1.0
s(lp297
S'promote'
p298
atp299
a(S'celle-ci'
p300
(dp301
S'PRON'
p302
F1.0
s(lp303
S'it'
p304
atp305
a(g17
(dp306
g17
F1.0
s(lp307
g17
atp308
asS'en'
p309
(lp310
(g8
(dp311
S'ADV'
p312
F0.002573
sS'PRT'
p313
F0.0
sS'ADP'
p314
F0.997427
s(lp315
g8
atp316
a(g15
(dp317
S'VERB'
p318
F0.650532
sS'NOUN'
p319
F0.349468
s(lp320
g15
atp321
a(g17
(dp322
g17
F1.0
s(lp323
g17
atp324
a(g21
(dp325
g17
F1.0
s(lp326
g21
atp327
a(S'('
p328
(dp329
g17
F1.0
s(lp330
g328
atp331
a(S'fr'
p332
(dp333
S'ADJ'
p334
F0.000672
sS'NOUN'
p335
F0.999327
s(lp336
g332
atp337
a(S')'
p338
(dp339
g17
F1.0
s(lp340
g338
atp341
a(g32
(dp342
g30
F0.017968
sS'NOUN'
p343
F0.982033
s(lp344
g32
atp345
a(g43
(dp346
S'VERB'
p347
F1.0
s(lp348
g43
atp349
a(g50
(dp350
S'ADV'
p351
F0.001614
sS'PRT'
p352
F0.007526
sS'ADP'
p353
F0.99086
s(lp354
g50
atp355
a(g56
(dp356
S'VERB'
p357
F0.0022370000000000003
sS'NOUN'
p358
F0.997763
s(lp359
g56
atp360
a(g62
(dp361
S'ADP'
p362
F1.0
s(lp363
g62
atp364
a(S'the'
p365
(dp366
S'NOUN'
p367
F2e-06
sS'DET'
p368
F0.999998
s(lp369
g365
atp370
a(g68
(dp371
S'VERB'
p372
F0.001311
sS'NOUN'
p373
F0.998688
s(lp374
g68
atp375
a(g74
(dp376
S'ADV'
p377
F0.000495
sS'PRT'
p378
F0.000565
sS'ADJ'
p379
F0.0
sS'NOUN'
p380
F0.0
sS'ADP'
p381
F0.99894
s(lp382
g74
atp383
a(g82
(dp384
S'NOUN'
p385
F0.0
sS'DET'
p386
F1.0
s(lp387
g82
atp388
a(g89
(dp389
S'NOUN'
p390
F4.1e-05
sS'ADJ'
p391
F0.999959
s(lp392
g89
atp393
a(g112
(dp394
S'ADJ'
p395
F0.374718
sS'NOUN'
p396
F0.625282
s(lp397
g112
atp398
a(g106
(dp399
S'NOUN'
p400
F1.0
s(lp401
g106
atp402
a(g95
(dp403
S'NOUN'
p404
F1.0
s(lp405
g95
atp406
a(g119
(dp407
S'ADP'
p408
F1.0
s(lp409
g119
atp410
a(g127
(dp411
S'NOUN'
p412
F3e-06
sS'DET'
p413
F0.999997
s(lp414
g127
atp415
a(g139
(dp416
S'ADV'
p417
F0.000108
sS'ADJ'
p418
F0.001041
sS'VERB'
p419
F0.00049
sS'NOUN'
p420
F0.9983620000000001
s(lp421
g139
atp422
a(g146
(dp423
S'ADV'
p424
F0.000466
sS'ADP'
p425
F0.999534
s(lp426
g146
atp427
a(g32
(dp428
g30
F0.0004
sS'NOUN'
p429
F0.9996
s(lp430
g32
atp431
a(g157
(dp432
S'ADV'
p433
F0.006737
sS'VERB'
p434
F0.993263
s(lp435
g157
atp436
a(g163
(dp437
S'ADV'
p438
F1.0
s(lp439
g163
atp440
a(g170
(dp441
S'ADV'
p442
F0.001486
sS'PRT'
p443
F5e-06
sS'ADP'
p444
F0.998509
s(lp445
g170
atp446
a(g176
(dp447
S'VERB'
p448
F0.001903
sS'NOUN'
p449
F0.998097
s(lp450
g176
atp451
a(g182
(dp452
S'ADP'
p453
F1.0
s(lp454
g182
atp455
a(g201
(dp456
S'ADJ'
p457
F1.0
s(lp458
g201
atp459
a(g195
(dp460
S'NOUN'
p461
F1.0
s(lp462
g195
atp463
a(g207
(dp464
S'CONJ'
p465
F0.999985
sS'NOUN'
p466
F1.5e-05
s(lp467
g207
atp468
a(g32
(dp469
g30
F0.006453
sS'NOUN'
p470
F0.993547
s(lp471
g32
atp472
a(g223
(dp473
S'VERB'
p474
F0.9997360000000001
sS'NOUN'
p475
F0.000264
s(lp476
g223
atp477
a(g231
(dp478
S'ADV'
p479
F0.999993
sS'NOUN'
p480
F0.0
sS'ADJ'
p481
F7e-06
s(lp482
g231
atp483
a(g237
(dp484
S'VERB'
p485
F1.0
s(lp486
g237
atp487
a(g245
(dp488
S'ADV'
p489
F0.000347
sS'DET'
p490
F0.999653
s(lp491
g245
atp492
a(g259
(dp493
S'NOUN'
p494
F1.0
s(lp495
g259
atp496
a(g251
(dp497
S'VERB'
p498
F0.001799
sS'NOUN'
p499
F0.998202
s(lp500
g251
atp501
a(g265
(dp502
S'CONJ'
p503
F0.999988
sS'ADJ'
p504
F1.2e-05
s(lp505
g265
atp506
a(g280
(dp507
S'VERB'
p508
F0.171914
sS'NOUN'
p509
F0.828086
s(lp510
g280
atp511
a(S'that'
p512
(dp513
S'ADV'
p514
F0.000654
sS'DET'
p515
F0.9991410000000001
sS'ADP'
p516
F0.000204
s(lp517
g512
atp518
a(g286
(dp519
S'VERB'
p520
F1.0
s(lp521
g286
atp522
a(g292
(dp523
S'ADV'
p524
F0.0
sS'PRT'
p525
F1.0
sS'ADP'
p526
F0.0
s(lp527
g292
atp528
a(g298
(dp529
S'VERB'
p530
F1.0
s(lp531
g298
atp532
a(g304
(dp533
S'PRON'
p534
F1.0
s(lp535
g304
atp536
a(g17
(dp537
g17
F1.0
s(lp538
g17
atp539
asS'nl'
p540
(lp541
(S'schriftelijk'
p542
(dp543
S'ADJ'
p544
F1.0
s(lp545
g15
atp546
a(g17
(dp547
g17
F1.0
s(lp548
g17
atp549
a(g21
(dp550
g17
F1.0
s(lp551
g21
atp552
a(g328
(dp553
g17
F1.0
s(lp554
g328
atp555
a(S'fr'
p556
(dp557
S'NOUN'
p558
F1.0
s(lp559
g332
atp560
a(g338
(dp561
g17
F1.0
s(lp562
g338
atp563
a(S'ik'
p564
(dp565
S'PRON'
p566
F0.999917
sS'NOUN'
p567
F8.3e-05
s(lp568
g32
atp569
a(S'heb'
p570
(dp571
S'VERB'
p572
F1.0
s(lp573
tp574
a(S'voor'
p575
(dp576
S'ADV'
p577
F0.013683
sS'CONJ'
p578
F2e-05
sS'NOUN'
p579
F0.0
sS'ADP'
p580
F0.986297
s(lp581
g56
atp582
a(S'het'
p583
(dp584
S'PRON'
p585
F0.0009400000000000001
sS'DET'
p586
F0.999061
s(lp587
g365
atp588
a(S'verslag'
p589
(dp590
S'NOUN'
p591
F1.0
s(lp592
g68
atp593
a(S'over'
p594
(dp595
S'ADV'
p596
F0.015327
sS'ADP'
p597
F0.984673
s(lp598
g74
atp599
a(S'een'
p600
(dp601
S'ADJ'
p602
F1e-06
sS'PRON'
p603
F0.000527
sS'NUM'
p604
F1e-06
sS'DET'
p605
F0.999472
s(lp606
g82
atp607
a(S'nieuwe'
p608
(dp609
S'NOUN'
p610
F1.7e-05
sS'ADJ'
p611
F0.999983
s(lp612
g89
atp613
a(S'eu-diergezondheidsstrategie'
p614
(dp615
S'NOUN'
p616
F1.0
s(lp617
g112
atp618
a(S'gestemd'
p619
(dp620
S'VERB'
p621
F0.970571
sS'ADJ'
p622
F0.029429
s(lp623
g43
atp624
a(S'omdat'
p625
(dp626
S'CONJ'
p627
F1.0
s(lp628
g146
atp629
a(S'ik'
p630
(dp631
S'PRON'
p632
F0.999999
sS'NOUN'
p633
F1e-06
s(lp634
g32
atp635
a(S'een'
p636
(dp637
S'ADJ'
p638
F5e-06
sS'PRON'
p639
F0.000529
sS'NUM'
p640
F1e-06
sS'DET'
p641
F0.999465
s(lp642
tp643
a(S'sterk'
p644
(dp645
S'ADV'
p646
F6.3e-05
sS'VERB'
p647
F1e-06
sS'ADJ'
p648
F0.999936
s(lp649
g163
atp650
a(S'voorstander'
p651
(dp652
S'NOUN'
p653
F1.0
s(lp654
g176
atp655
a(S'ben'
p656
(dp657
S'VERB'
p658
F1.0
s(lp659
g157
atp660
a(S'van'
p661
(dp662
S'ADP'
p663
F1.0
s(lp664
g182
atp665
a(S'duurzame'
p666
(dp667
S'NOUN'
p668
F0.00034
sS'ADJ'
p669
F0.99966
s(lp670
g201
atp671
a(S'landbouw'
p672
(dp673
S'NOUN'
p674
F1.0
s(lp675
g195
atp676
a(S'en'
p677
(dp678
S'CONJ'
p679
F1.0
s(lp680
g207
atp681
a(S'ik'
p682
(dp683
S'PRON'
p684
F0.999991
sS'NOUN'
p685
F9e-06
s(lp686
g32
atp687
a(S'alleen'
p688
(dp689
S'ADV'
p690
F0.989499
sS'ADJ'
p691
F0.010501
s(lp692
tp693
a(S'maar'
p694
(dp695
S'ADV'
p696
F0.52301
sS'CONJ'
p697
F0.476988
sS'NOUN'
p698
F2e-06
s(lp699
g231
atp700
a(S'beleidsmaatregelen'
p701
(dp702
S'NOUN'
p703
F1.0
s(lp704
g259
atp705
a(S'en'
p706
(dp707
S'CONJ'
p708
F1.0
s(lp709
g265
atp710
a(S'praktijken'
p711
(dp712
S'NOUN'
p713
F1.0
s(lp714
g280
atp715
a(S'ondersteunen'
p716
(dp717
S'VERB'
p718
F0.9513
sS'NOUN'
p719
F0.048701
s(lp720
g237
atp721
a(S'kan'
p722
(dp723
S'VERB'
p724
F0.999921
sS'NOUN'
p725
F7.9e-05
s(lp726
g223
atp727
a(S'waarmee'
p728
(dp729
S'ADV'
p730
F1.0
s(lp731
g512
atp732
a(S'beoogd'
p733
(dp734
S'VERB'
p735
F1.0
s(lp736
tp737
a(S'wordt'
p738
(dp739
S'VERB'
p740
F1.0
s(lp741
g286
atp742
a(S'deze'
p743
(dp744
S'PRON'
p745
F1.0
s(lp746
g304
atp747
a(S'te'
p748
(dp749
S'PRT'
p750
F1.0
s(lp751
g292
atp752
a(S'bevorderen'
p753
(dp754
S'VERB'
p755
F1.0
sS'NOUN'
p756
F0.0
s(lp757
g298
atp758
a(g17
(dp759
g17
F1.0
s(lp760
g17
atp761
asS'de'
p762
(lp763
(S'schriftlich'
p764
(dp765
S'ADJ'
p766
F1.0
s(lp767
g15
atp768
a(g17
(dp769
g17
F1.0
s(lp770
g17
atp771
a(g21
(dp772
g17
F1.0
s(lp773
g21
atp774
a(g328
(dp775
g17
F1.0
s(lp776
g328
atp777
a(S'fr'
p778
(dp779
S'NOUN'
p780
F0.987401
s(lp781
g332
atp782
a(g338
(dp783
g17
F1.0
s(lp784
g338
atp785
a(S'ich'
p786
(dp787
S'PRON'
p788
F1.0
s(lp789
g32
atp790
a(S'habe'
p791
(dp792
S'VERB'
p793
F1.0
s(lp794
tp795
a(S'f\xc3\xbcr'
p796
(dp797
S'ADP'
p798
F1.0
s(lp799
g56
atp800
a(S'den'
p801
(dp802
S'PRON'
p803
F5.3e-05
sS'DET'
p804
F0.999946
s(lp805
g365
atp806
a(S'bericht'
p807
(dp808
S'ADJ'
p809
F0.000139
sS'NOUN'
p810
F0.999666
s(lp811
g68
atp812
a(S'\xc3\xbcber'
p813
(dp814
S'PRT'
p815
F9e-05
sS'ADP'
p816
F0.99991
s(lp817
g74
atp818
a(S'eine'
p819
(dp820
S'PRON'
p821
F0.001197
sS'DET'
p822
F0.998738
s(lp823
g82
atp824
a(S'neue'
p825
(dp826
S'ADJ'
p827
F1.0
s(lp828
g89
atp829
a(S'tiergesundheitsstrategie'
p830
(dp831
S'ADJ'
p832
F0.002569
sS'NOUN'
p833
F0.995831
s(lp834
g112
atp835
a(S'f\xc3\xbcr'
p836
(dp837
S'ADP'
p838
F1.0
s(lp839
g119
atp840
a(S'die'
p841
(dp842
S'PRON'
p843
F0.001264
sS'DET'
p844
F0.998424
s(lp845
g127
atp846
a(S'eu'
p847
(dp848
S'ADJ'
p849
F0.274416
sS'NOUN'
p850
F0.49869
s(lp851
g139
atp852
a(S'gestimmt'
p853
(dp854
S'VERB'
p855
F1.0
s(lp856
g43
atp857
a(S','
p858
(dp859
g17
F1.0
s(lp860
tp861
a(S'da'
p862
(dp863
S'ADV'
p864
F0.001925
sS'CONJ'
p865
F0.998072
s(lp866
g146
atp867
a(S'ich'
p868
(dp869
S'PRON'
p870
F1.0
s(lp871
g32
atp872
a(S'mich'
p873
(dp874
S'PRON'
p875
F1.0
s(lp876
g157
atp877
a(S'eindeutig'
p878
(dp879
S'ADJ'
p880
F1.0
s(lp881
g163
atp882
a(S'f\xc3\xbcr'
p883
(dp884
S'ADP'
p885
F1.0
s(lp886
g176
atp887
a(S'eine'
p888
(dp889
S'PRON'
p890
F0.001197
sS'DET'
p891
F0.998738
s(lp892
g245
atp893
a(S'nachhaltige'
p894
(dp895
S'ADJ'
p896
F1.0
s(lp897
g201
atp898
a(S'landwirtschaft'
p899
(dp900
S'ADJ'
p901
F0.00285
sS'NOUN'
p902
F0.995413
s(lp903
g195
atp904
a(S'ausspreche'
p905
(dp906
S'VERB'
p907
F1.0
s(lp908
tp909
a(S'und'
p910
(dp911
S'CONJ'
p912
F1.0
s(lp913
g207
atp914
a(S'politische'
p915
(dp916
S'ADJ'
p917
F1.0
s(lp918
g259
atp919
a(S'initiativen'
p920
(dp921
S'ADJ'
p922
F1.0
s(lp923
g251
atp924
a(S'und'
p925
(dp926
S'CONJ'
p927
F1.0
s(lp928
g265
atp929
a(S'praktiken'
p930
(dp931
S'VERB'
p932
F0.696242
sS'NOUN'
p933
F0.131949
s(lp934
g280
atp935
a(S'zu'
p936
(dp937
S'PRT'
p938
F0.00257
sS'ADP'
p939
F0.996241
s(lp940
g292
atp941
a(S'deren'
p942
(dp943
S'PRON'
p944
F0.9996879999999999
s(lp945
g286
atp946
a(S'f\xc3\xb6rderung'
p947
(dp948
S'ADJ'
p949
F0.000163
sS'NOUN'
p950
F0.999684
s(lp951
g298
atp952
a(S'nur'
p953
(dp954
S'ADV'
p955
F1.0
s(lp956
g231
atp957
a(S'unterst\xc3\xbctzen'
p958
(dp959
S'VERB'
p960
F1.0
s(lp961
g237
atp962
a(S'kann'
p963
(dp964
S'VERB'
p965
F1.0
s(lp966
g223
atp967
a(g17
(dp968
g17
F1.0
s(lp969
g17
atp970
asS'it'
p971
(lp972
(S'per'
p973
(dp974
S'CONJ'
p975
F0.030106
sS'ADP'
p976
F0.969894
s(lp977
g8
atp978
a(S'iscritto'
p979
(dp980
S'NOUN'
p981
F0.123774
sS'VERB'
p982
F0.030022
sS'ADJ'
p983
F0.846204
s(lp984
g15
atp985
a(g17
(dp986
g17
F1.0
s(lp987
g17
atp988
a(g21
(dp989
g30
F1.8e-05
sg17
F0.999982
s(lp990
g21
atp991
a(g328
(dp992
g17
F1.0
s(lp993
g328
atp994
a(S'fr'
p995
(dp996
S'NOUN'
p997
F0.003774
sS'VERB'
p998
F0.984512
sS'ADJ'
p999
F0.011715
s(lp1000
g332
atp1001
a(g338
(dp1002
g17
F1.0
s(lp1003
g338
atp1004
a(S'ho'
p1005
(dp1006
S'VERB'
p1007
F1.0
s(lp1008
g32
atp1009
a(S'votato'
p1010
(dp1011
S'VERB'
p1012
F0.990109
sS'ADJ'
p1013
F0.009891
s(lp1014
g43
atp1015
a(g82
(dp1016
S'CONJ'
p1017
F7.6e-05
sS'ADP'
p1018
F0.999924
s(lp1019
g50
atp1020
a(S'favore'
p1021
(dp1022
S'NOUN'
p1023
F1.0
s(lp1024
g56
atp1025
a(S'della'
p1026
(dp1027
S'DEF'
p1028
F0.001587
sS'ADP'
p1029
F0.998413
s(lp1030
g62
atp1031
a(S'relazione'
p1032
(dp1033
S'NOUN'
p1034
F1.0
s(lp1035
g68
atp1036
a(S'su'
p1037
(dp1038
S'ADV'
p1039
F0.01259
sS'ADP'
p1040
F0.98741
s(lp1041
g74
atp1042
a(S'una'
p1043
(dp1044
S'PRON'
p1045
F6.8e-05
sS'DEF'
p1046
F0.999932
s(lp1047
g82
atp1048
a(S'nuova'
p1049
(dp1050
S'NOUN'
p1051
F0.003427
sS'ADJ'
p1052
F0.996573
s(lp1053
g89
atp1054
a(S'strategia'
p1055
(dp1056
S'NOUN'
p1057
F1.0
s(lp1058
g95
atp1059
a(S'per'
p1060
(dp1061
S'CONJ'
p1062
F0.052962
sS'ADP'
p1063
F0.947038
s(lp1064
g119
atp1065
a(S'la'
p1066
(dp1067
S'PRON'
p1068
F0.000212
sS'DET'
p1069
F0.999788
s(lp1070
g127
atp1071
a(S'salute'
p1072
(dp1073
g30
F6e-06
sS'NOUN'
p1074
F0.999994
s(lp1075
g106
atp1076
a(S'degli'
p1077
(dp1078
S'DEF'
p1079
F0.003691
sS'ADP'
p1080
F0.996309
s(lp1081
tp1082
a(S'animali'
p1083
(dp1084
S'NOUN'
p1085
F0.117611
sS'VERB'
p1086
F3.4e-05
sS'ADJ'
p1087
F0.882354
s(lp1088
g112
atp1089
a(S"nell'"
p1090
(dp1091
S'ADJ'
p1092
F0.005469
sS'VERB'
p1093
F0.000868
sS'NOUN'
p1094
F0.993663
s(lp1095
tp1096
a(S'ue'
p1097
(dp1098
S'ADJ'
p1099
F0.000997
sS'VERB'
p1100
F0.10275899999999999
sS'NOUN'
p1101
F0.896244
s(lp1102
g139
atp1103
a(S'perch\xc3\xa9'
p1104
(dp1105
S'ADV'
p1106
F0.206374
sS'CONJ'
p1107
F0.777621
sS'NOUN'
p1108
F0.016005
s(lp1109
g146
atp1110
a(S'sono'
p1111
(dp1112
S'VERB'
p1113
F0.99989
sS'NOUN'
p1114
F0.00011
s(lp1115
g157
atp1116
a(S'decisamente'
p1117
(dp1118
S'ADV'
p1119
F1.0
s(lp1120
g163
atp1121
a(g82
(dp1122
S'CONJ'
p1123
F0.000161
sS'ADP'
p1124
F0.999839
s(lp1125
g170
atp1126
a(S'favore'
p1127
(dp1128
S'NOUN'
p1129
F1.0
s(lp1130
g176
atp1131
a(S"dell'"
p1132
(dp1133
S'ADJ'
p1134
F0.040682
sS'VERB'
p1135
F0.006560999999999999
sS'NOUN'
p1136
F0.952757
s(lp1137
g182
atp1138
a(S'agricoltura'
p1139
(dp1140
S'NOUN'
p1141
F1.0
s(lp1142
g195
atp1143
a(S'sostenibile'
p1144
(dp1145
S'ADJ'
p1146
F1.0
s(lp1147
g201
atp1148
a(S'e'
p1149
(dp1150
S'CONJ'
p1151
F1.0
s(lp1152
g207
atp1153
a(S'non'
p1154
(dp1155
S'ADV'
p1156
F1.0
s(lp1157
g32
atp1158
a(S'posso'
p1159
(dp1160
S'VERB'
p1161
F1.0
s(lp1162
g223
atp1163
a(S'che'
p1164
(dp1165
S'PRON'
p1166
F0.969624
sS'CONJ'
p1167
F0.030234
sS'ADJ'
p1168
F0.000142
s(lp1169
g231
atp1170
a(S'appoggiare'
p1171
(dp1172
S'VERB'
p1173
F1.0
s(lp1174
g237
atp1175
a(S'le'
p1176
(dp1177
S'PRON'
p1178
F0.0
sS'DET'
p1179
F1.0
s(lp1180
g245
atp1181
a(S'iniziative'
p1182
(dp1183
S'NOUN'
p1184
F1.0
s(lp1185
g251
atp1186
a(S'politiche'
p1187
(dp1188
S'NOUN'
p1189
F0.019254
sS'ADJ'
p1190
F0.980746
s(lp1191
g259
atp1192
a(g1149
(dp1193
S'CONJ'
p1194
F1.0
s(lp1195
g265
atp1196
a(S'le'
p1197
(dp1198
S'PRON'
p1199
F0.000687
sS'DET'
p1200
F0.999313
s(lp1201
tp1202
a(S'pratiche'
p1203
(dp1204
S'NOUN'
p1205
F0.283307
sS'ADJ'
p1206
F0.716693
s(lp1207
g280
atp1208
a(S'intese'
p1209
(dp1210
S'ADJ'
p1211
F0.195744
sS'VERB'
p1212
F0.221919
sS'NOUN'
p1213
F0.582337
s(lp1214
g286
atp1215
a(g82
(dp1216
S'CONJ'
p1217
F0.000295
sS'ADP'
p1218
F0.999705
s(lp1219
g292
atp1220
a(S'promuoverla'
p1221
(dp1222
S'VERB'
p1223
F1.0
s(lp1224
g298
atp1225
a(g17
(dp1226
g17
F1.0
s(lp1227
g17
atp1228
asS'sk'
p1229
(lp1230
(S'p\xc3\xadsomne'
p1231
(dp1232
S'ADV'
p1233
F1.0
s(lp1234
g15
atp1235
a(g17
(dp1236
g17
F1.0
s(lp1237
g17
atp1238
a(g21
(dp1239
g17
F1.0
s(lp1240
g21
atp1241
a(g328
(dp1242
g17
F1.0
s(lp1243
g328
atp1244
a(S'fr'
p1245
(dp1246
g30
F1.0
s(lp1247
g332
atp1248
a(g338
(dp1249
g17
F1.0
s(lp1250
g338
atp1251
a(S'hlasovala'
p1252
(dp1253
S'VERB'
p1254
F1.0
s(lp1255
tp1256
a(S'som'
p1257
(dp1258
S'VERB'
p1259
F1.0
s(lp1260
g43
atp1261
a(S'v'
p1262
(dp1263
g30
F8.5e-05
sS'ADP'
p1264
F0.999915
s(lp1265
g50
atp1266
a(S'prospech'
p1267
(dp1268
S'NOUN'
p1269
F1.0
s(lp1270
g56
atp1271
a(S'spr\xc3\xa1vy'
p1272
(dp1273
S'NOUN'
p1274
F1.0
s(lp1275
g68
atp1276
a(S'o'
p1277
(dp1278
g30
F0.00031
sS'CONJ'
p1279
F6.7e-05
sS'NOUN'
p1280
F1.8e-05
sS'ADP'
p1281
F0.999607
s(lp1282
g74
atp1283
a(S'novej'
p1284
(dp1285
S'ADJ'
p1286
F1.0
s(lp1287
g89
atp1288
a(S'strat\xc3\xa9gii'
p1289
(dp1290
S'NOUN'
p1291
F1.0
s(lp1292
g95
atp1293
a(S't\xc3\xbdkaj\xc3\xbacej'
p1294
(dp1295
S'VERB'
p1296
F1.0
s(lp1297
tp1298
a(S'sa'
p1299
(dp1300
S'PRT'
p1301
F0.998803
sS'ADP'
p1302
F0.000776
sg30
F0.000421
s(lp1303
tp1304
a(S'zdravia'
p1305
(dp1306
S'VERB'
p1307
F0.809086
sS'NOUN'
p1308
F0.190914
s(lp1309
g106
atp1310
a(S'zvierat'
p1311
(dp1312
S'NOUN'
p1313
F1.0
s(lp1314
g112
atp1315
a(S'pre'
p1316
(dp1317
g30
F3e-06
sS'ADP'
p1318
F0.999997
s(lp1319
g119
atp1320
a(S'eur\xc3\xb3psku'
p1321
(dp1322
S'ADJ'
p1323
F1.0
s(lp1324
tp1325
a(S'\xc3\xbaniu'
p1326
(dp1327
S'NOUN'
p1328
F1.0
s(lp1329
g139
atp1330
a(S'preto\xc5\xbee'
p1331
(dp1332
S'CONJ'
p1333
F1.0
s(lp1334
g146
atp1335
a(S's\xc3\xbahlas\xc3\xadm'
p1336
(dp1337
S'VERB'
p1338
F1.0
s(lp1339
g176
atp1340
a(S's'
p1341
(dp1342
S'PRT'
p1343
F0.000421
sS'CONJ'
p1344
F1.6e-05
sS'NOUN'
p1345
F6e-06
sS'ADP'
p1346
F0.999445
sg30
F0.00011099999999999999
s(lp1347
g182
atp1348
a(S'udr\xc5\xbeate\xc4\xben\xc3\xbdm'
p1349
(dp1350
S'ADJ'
p1351
F1.0
s(lp1352
g201
atp1353
a(S'po\xc4\xbenohospod\xc3\xa1rstvo'
p1354
(dp1355
S'NOUN'
p1356
F1.0
s(lp1357
g195
atp1358
a(g17
(dp1359
g17
F1.0
s(lp1360
g207
atp1361
a(S'm\xc3\xb4\xc5\xbeem'
p1362
(dp1363
S'VERB'
p1364
F1.0
s(lp1365
g223
atp1366
a(S'len'
p1367
(dp1368
g30
F0.996684
sS'CONJ'
p1369
F0.003316
s(lp1370
g231
atp1371
a(S'podpori\xc5\xa5'
p1372
(dp1373
S'VERB'
p1374
F1.0
s(lp1375
g237
atp1376
a(S'ak\xc3\xa9ko\xc4\xbevek'
p1377
(dp1378
S'PRON'
p1379
F1.0
s(lp1380
g245
atp1381
a(S'opatrenia'
p1382
(dp1383
S'NOUN'
p1384
F1.0
s(lp1385
g251
atp1386
a(S'alebo'
p1387
(dp1388
g30
F4.5e-05
sS'CONJ'
p1389
F0.999955
s(lp1390
g265
atp1391
a(S'postupy'
p1392
(dp1393
S'NOUN'
p1394
F1.0
s(lp1395
g280
atp1396
a(g858
(dp1397
g17
F1.0
s(lp1398
tp1399
a(S'ktor\xc3\xa9'
p1400
(dp1401
S'PRON'
p1402
F1.0
s(lp1403
g512
atp1404
a(S'by'
p1405
(dp1406
S'PRT'
p1407
F0.999996
sg30
F4e-06
s(lp1408
g292
atp1409
a(S'ho'
p1410
(dp1411
S'PRON'
p1412
F0.999975
sg30
F2.5e-05
s(lp1413
g304
atp1414
a(S'podporili'
p1415
(dp1416
S'VERB'
p1417
F0.999999
s(lp1418
g298
atp1419
a(g17
(dp1420
g17
F1.0
s(lp1421
g17
atp1422
asS'pl'
p1423
(lp1424
(S'na'
p1425
(dp1426
g30
F1e-06
sS'VERB'
p1427
F0.0
sS'NOUN'
p1428
F0.0
sS'ADP'
p1429
F0.999997
sS'PRT'
p1430
F1e-06
s(lp1431
tp1432
a(S'pi\xc5\x9bmie'
p1433
(dp1434
S'NOUN'
p1435
F1.0
s(lp1436
g15
atp1437
a(g17
(dp1438
g17
F1.0
s(lp1439
g17
atp1440
a(g21
(dp1441
g30
F0.001074
sS'NUM'
p1442
F0.0
sS'NOUN'
p1443
F0.001806
sg17
F0.997121
s(lp1444
g21
atp1445
a(g328
(dp1446
S'NOUN'
p1447
F0.000614
sg17
F0.999386
s(lp1448
g328
atp1449
a(S'fr'
p1450
(dp1451
S'ADV'
p1452
F0.002251
sg30
F0.012754
sS'ADJ'
p1453
F0.000972
sS'NOUN'
p1454
F0.984023
s(lp1455
g332
atp1456
a(g338
(dp1457
g17
F1.0
s(lp1458
g338
atp1459
a(S'g\xc5\x82osowa\xc5\x82am'
p1460
(dp1461
S'ADV'
p1462
F0.00071
sS'ADJ'
p1463
F0.000819
sS'VERB'
p1464
F0.980105
sS'NOUN'
p1465
F0.018366999999999998
s(lp1466
g43
atp1467
a(S'za'
p1468
(dp1469
S'PRT'
p1470
F0.005138
sS'VERB'
p1471
F9.999999999999999e-06
sS'NOUN'
p1472
F1.9e-05
sS'ADP'
p1473
F0.9948330000000001
sg30
F0.0
s(lp1474
g56
atp1475
a(S'sprawozdaniem'
p1476
(dp1477
S'NOUN'
p1478
F1.0
s(lp1479
g68
atp1480
a(S'w'
p1481
(dp1482
S'ADJ'
p1483
F0.0
sg30
F0.0
sS'NOUN'
p1484
F0.0
sS'ADP'
p1485
F1.0
s(lp1486
tp1487
a(S'sprawie'
p1488
(dp1489
S'NOUN'
p1490
F1.0
s(lp1491
g74
atp1492
a(S'nowej'
p1493
(dp1494
S'NOUN'
p1495
F0.000558
sS'ADJ'
p1496
F0.999442
s(lp1497
g89
atp1498
a(S'strategii'
p1499
(dp1500
S'NOUN'
p1501
F1.0
s(lp1502
g95
atp1503
a(S'ue'
p1504
(dp1505
S'ADJ'
p1506
F0.000886
sS'VERB'
p1507
F0.0029449999999999997
sS'NOUN'
p1508
F0.996169
s(lp1509
g139
atp1510
a(g1481
(dp1511
g30
F0.0
sS'ADJ'
p1512
F0.0
sS'ADP'
p1513
F1.000001
sS'NOUN'
p1514
F0.0
s(lp1515
g50
atp1516
a(S'zakresie'
p1517
(dp1518
S'NOUN'
p1519
F1.0
s(lp1520
tp1521
a(S'zdrowia'
p1522
(dp1523
S'NOUN'
p1524
F1.0
s(lp1525
g106
atp1526
a(S'zwierz\xc4\x85t'
p1527
(dp1528
S'NOUN'
p1529
F1.0
s(lp1530
g112
atp1531
a(S'poniewa\xc5\xbc'
p1532
(dp1533
S'CONJ'
p1534
F1.0
s(lp1535
g146
atp1536
a(S'jestem'
p1537
(dp1538
S'VERB'
p1539
F1.0
s(lp1540
g157
atp1541
a(S'zdecydowan\xc4\x85'
p1542
(dp1543
S'ADJ'
p1544
F1.0
s(lp1545
g163
atp1546
a(S'zwolenniczk\xc4\x85'
p1547
(dp1548
S'ADJ'
p1549
F0.001897
sS'VERB'
p1550
F4e-06
sS'NOUN'
p1551
F0.9981
s(lp1552
g176
atp1553
a(S'zr\xc3\xb3wnowa\xc5\xbconego'
p1554
(dp1555
S'ADJ'
p1556
F1.0
s(lp1557
g201
atp1558
a(S'rolnictwa'
p1559
(dp1560
S'NOUN'
p1561
F1.0
s(lp1562
g195
atp1563
a(g32
(dp1564
S'PRT'
p1565
F0.020334
sS'CONJ'
p1566
F0.979644
sS'NOUN'
p1567
F2e-06
sg30
F3e-06
sS'PRON'
p1568
F1.7e-05
s(lp1569
g207
atp1570
a(S'mog\xc4\x99'
p1571
(dp1572
S'VERB'
p1573
F1.0
s(lp1574
g223
atp1575
a(S'poprze\xc4\x87'
p1576
(dp1577
S'VERB'
p1578
F1.0
s(lp1579
g237
atp1580
a(S'tylko'
p1581
(dp1582
S'PRT'
p1583
F0.719783
sS'CONJ'
p1584
F0.280217
s(lp1585
g231
atp1586
a(S'taki'
p1587
(dp1588
S'ADJ'
p1589
F1.0000010000000001
s(lp1590
tp1591
a(S'\xc5\x9brodki'
p1592
(dp1593
S'NOUN'
p1594
F1.0
s(lp1595
g251
atp1596
a(S'czy'
p1597
(dp1598
S'PRT'
p1599
F0.120739
sS'CONJ'
p1600
F0.879252
sS'NUM'
p1601
F4e-06
sS'NOUN'
p1602
F5e-06
s(lp1603
g265
atp1604
a(S'praktyki'
p1605
(dp1606
S'NOUN'
p1607
F1.0
s(lp1608
g280
atp1609
a(S'polityczne'
p1610
(dp1611
S'ADJ'
p1612
F0.9999990000000001
s(lp1613
g259
atp1614
a(S'kt\xc3\xb3re'
p1615
(dp1616
S'ADJ'
p1617
F1.0000009999999997
s(lp1618
g512
atp1619
a(S'staraj\xc4\x85'
p1620
(dp1621
S'VERB'
p1622
F1.0
s(lp1623
g286
atp1624
a(S'si\xc4\x99'
p1625
(dp1626
S'PRT'
p1627
F1.0
s(lp1628
g292
atp1629
a(S'je'
p1630
(dp1631
S'PRT'
p1632
F0.002942
sS'PRON'
p1633
F0.575812
sS'VERB'
p1634
F0.420613
sg30
F3e-06
sS'CONJ'
p1635
F0.000603
sS'ADJ'
p1636
F2.7e-05
s(lp1637
g304
atp1638
a(S'promowa\xc4\x87'
p1639
(dp1640
S'VERB'
p1641
F1.0
s(lp1642
g298
atp1643
a(g17
(dp1644
g17
F1.0
s(lp1645
g17
atp1646
asS'sl'
p1647
(lp1648
(g1262
(dp1649
S'ADP'
p1650
F1.0
s(lp1651
g8
atp1652
a(S'pisni'
p1653
(dp1654
S'ADJ'
p1655
F1.0
s(lp1656
tp1657
a(S'obliki'
p1658
(dp1659
S'NOUN'
p1660
F1.0
s(lp1661
g15
atp1662
a(g17
(dp1663
g17
F1.0
s(lp1664
g17
atp1665
a(g21
(dp1666
g17
F1.0
s(lp1667
g21
atp1668
a(g328
(dp1669
g17
F1.0
s(lp1670
g328
atp1671
a(S'fr'
p1672
(dp1673
S'ADV'
p1674
F0.000568
sg30
F0.035062
sS'ADJ'
p1675
F8.5e-05
sS'NOUN'
p1676
F0.9642849999999998
s(lp1677
g332
atp1678
a(g338
(dp1679
g17
F1.0
s(lp1680
g338
atp1681
a(S'glasovala'
p1682
(dp1683
S'VERB'
p1684
F1.0
s(lp1685
tp1686
a(S'sem'
p1687
(dp1688
S'ADV'
p1689
F0.056212
sS'PRT'
p1690
F0.007679
sS'VERB'
p1691
F0.936109
s(lp1692
g43
atp1693
a(S'za'
p1694
(dp1695
S'ADV'
p1696
F0.000124
sg30
F5e-06
sS'ADP'
p1697
F0.999871
s(lp1698
g56
atp1699
a(S'poro\xc4\x8dilo'
p1700
(dp1701
S'NOUN'
p1702
F1.0
s(lp1703
g68
atp1704
a(g1277
(dp1705
S'NOUN'
p1706
F2e-06
sS'ADP'
p1707
F0.999998
s(lp1708
g74
atp1709
a(S'novi'
p1710
(dp1711
S'ADJ'
p1712
F1.0
s(lp1713
g89
atp1714
a(S'strategiji'
p1715
(dp1716
S'NOUN'
p1717
F1.0
s(lp1718
g95
atp1719
a(S'za'
p1720
(dp1721
S'ADV'
p1722
F7e-05
sg30
F2.1e-05
sS'ADP'
p1723
F0.999909
s(lp1724
g112
atp1725
a(S'zdravstveno'
p1726
(dp1727
S'ADV'
p1728
F2.4e-05
sS'ADJ'
p1729
F0.999975
s(lp1730
g106
atp1731
a(S'varstvo'
p1732
(dp1733
S'NOUN'
p1734
F1.0
s(lp1735
tp1736
a(S'\xc5\xbeivali'
p1737
(dp1738
S'NOUN'
p1739
F0.9999990000000001
s(lp1740
g112
atp1741
a(S'za'
p1742
(dp1743
S'ADV'
p1744
F0.000266
sg30
F0.000157
sS'ADP'
p1745
F0.999576
s(lp1746
g119
atp1747
a(S'eu'
p1748
(dp1749
S'ADV'
p1750
F0.005773
sS'ADJ'
p1751
F0.12018699999999999
sS'VERB'
p1752
F6.5e-05
sS'NOUN'
p1753
F0.8739760000000002
s(lp1754
g139
atp1755
a(g858
(dp1756
g17
F1.0
s(lp1757
tp1758
a(S'ker'
p1759
(dp1760
S'CONJ'
p1761
F1.0
s(lp1762
g146
atp1763
a(S'trdno'
p1764
(dp1765
S'ADV'
p1766
F0.813369
sS'ADJ'
p1767
F0.18663000000000002
s(lp1768
g163
atp1769
a(S'podpiram'
p1770
(dp1771
S'ADV'
p1772
F0.007404
sS'ADJ'
p1773
F0.031140000000000004
sS'VERB'
p1774
F0.7723539999999999
sS'NOUN'
p1775
F0.18910399999999994
s(lp1776
g176
atp1777
a(S'trajnostno'
p1778
(dp1779
S'ADV'
p1780
F0.019882
sS'NOUN'
p1781
F0.002115
sS'VERB'
p1782
F0.0056489999999999995
sS'ADJ'
p1783
F0.972355
s(lp1784
g201
atp1785
a(S'kmetijstvo'
p1786
(dp1787
S'NOUN'
p1788
F1.0
s(lp1789
g195
atp1790
a(S'in'
p1791
(dp1792
S'ADV'
p1793
F0.000165
sg30
F4e-06
sS'CONJ'
p1794
F0.999821
sS'NOUN'
p1795
F1e-05
s(lp1796
g207
atp1797
a(S'lahko'
p1798
(dp1799
S'ADV'
p1800
F0.998683
sS'ADJ'
p1801
F0.001317
s(lp1802
g223
atp1803
a(S'le'
p1804
(dp1805
S'PRT'
p1806
F0.999995
sg30
F5e-06
s(lp1807
g231
atp1808
a(S'odobrim'
p1809
(dp1810
S'PRON'
p1811
F0.00368
sS'NUM'
p1812
F0.022794
sS'VERB'
p1813
F0.9035710000000001
sS'ADJ'
p1814
F0.048701999999999995
sS'NOUN'
p1815
F0.021252999999999998
s(lp1816
g237
atp1817
a(S'vsak'
p1818
(dp1819
S'PRON'
p1820
F1.0
s(lp1821
g245
atp1822
a(S'ukrep'
p1823
(dp1824
S'NOUN'
p1825
F1.0
s(lp1826
g251
atp1827
a(S'politike'
p1828
(dp1829
S'NOUN'
p1830
F0.9999999999999999
s(lp1831
g259
atp1832
a(S'ali'
p1833
(dp1834
S'ADV'
p1835
F0.004344
sS'CONJ'
p1836
F0.995656
s(lp1837
g265
atp1838
a(S'prakso'
p1839
(dp1840
S'NOUN'
p1841
F1.0
s(lp1842
g280
atp1843
a(g858
(dp1844
g17
F1.0
s(lp1845
tp1846
a(S'katere'
p1847
(dp1848
S'PRON'
p1849
F1.000001
s(lp1850
g512
atp1851
a(S'namen'
p1852
(dp1853
S'NOUN'
p1854
F1.0
s(lp1855
tp1856
a(S'je'
p1857
(dp1858
S'PRON'
p1859
F0.000126
sS'VERB'
p1860
F0.999856
sg30
F1.8e-05
s(lp1861
g286
atp1862
a(S'spodbujanje'
p1863
(dp1864
S'NOUN'
p1865
F1.0
s(lp1866
g298
atp1867
a(S'tega'
p1868
(dp1869
S'PRON'
p1870
F1.0
s(lp1871
g304
atp1872
a(g17
(dp1873
g17
F1.0
s(lp1874
g17
atp1875
asS'es'
p1876
(lp1877
(S'por'
p1878
(dp1879
S'ADP'
p1880
F1.0
s(lp1881
tp1882
a(S'escrito'
p1883
(dp1884
S'VERB'
p1885
F0.31338
sS'ADJ'
p1886
F0.68662
s(lp1887
g15
atp1888
a(g17
(dp1889
g17
F1.0
s(lp1890
g17
atp1891
a(g21
(dp1892
g17
F1.0
s(lp1893
g21
atp1894
a(g328
(dp1895
g17
F1.0
s(lp1896
g328
atp1897
a(S'fr'
p1898
(dp1899
S'ADJ'
p1900
F0.322495
sS'VERB'
p1901
F0.002738
sS'NOUN'
p1902
F0.674767
s(lp1903
g332
atp1904
a(g338
(dp1905
g17
F1.0
s(lp1906
g338
atp1907
a(S'he'
p1908
(dp1909
S'VERB'
p1910
F1.0
s(lp1911
g32
atp1912
a(S'votado'
p1913
(dp1914
S'VERB'
p1915
F1.0
s(lp1916
g43
atp1917
a(g82
(dp1918
g30
F3.9e-05
sS'CONJ'
p1919
F9.6e-05
sS'ADP'
p1920
F0.999865
s(lp1921
g50
atp1922
a(S'favor'
p1923
(dp1924
S'NOUN'
p1925
F1.0
s(lp1926
g56
atp1927
a(S'del'
p1928
(dp1929
S'ADP'
p1930
F1.0
s(lp1931
g62
atp1932
a(S'informe'
p1933
(dp1934
S'VERB'
p1935
F0.0
sS'NOUN'
p1936
F1.0
s(lp1937
g68
atp1938
a(S'sobre'
p1939
(dp1940
S'NOUN'
p1941
F0.0
sS'ADP'
p1942
F1.0
s(lp1943
g74
atp1944
a(S'una'
p1945
(dp1946
S'DET'
p1947
F1.0
s(lp1948
g82
atp1949
a(S'nueva'
p1950
(dp1951
S'NOUN'
p1952
F0.152632
sS'ADJ'
p1953
F0.847368
s(lp1954
g89
atp1955
a(S'estrategia'
p1956
(dp1957
S'NOUN'
p1958
F1.0
s(lp1959
g95
atp1960
a(S'de'
p1961
(dp1962
g30
F2.9e-05
sS'CONJ'
p1963
F0.000449
sS'ADP'
p1964
F0.999522
s(lp1965
tp1966
a(S'salud'
p1967
(dp1968
S'NOUN'
p1969
F1.0
s(lp1970
g106
atp1971
a(S'animal'
p1972
(dp1973
S'NOUN'
p1974
F1.0
s(lp1975
g112
atp1976
a(S'para'
p1977
(dp1978
S'CONJ'
p1979
F0.000662
sS'ADP'
p1980
F0.999338
s(lp1981
g119
atp1982
a(S'la'
p1983
(dp1984
S'PRON'
p1985
F0.0
sS'DET'
p1986
F0.999999
sS'NOUN'
p1987
F0.0
sg30
F0.0
s(lp1988
g127
atp1989
a(S'ue'
p1990
(dp1991
S'VERB'
p1992
F6.2e-05
sS'NOUN'
p1993
F0.999938
s(lp1994
g139
atp1995
a(S'porque'
p1996
(dp1997
S'CONJ'
p1998
F1.0
s(lp1999
g146
atp2000
a(S'estoy'
p2001
(dp2002
S'VERB'
p2003
F1.0
s(lp2004
g157
atp2005
a(S'totalmente'
p2006
(dp2007
S'ADV'
p2008
F1.0
s(lp2009
g163
atp2010
a(g82
(dp2011
g30
F0.005456
sS'CONJ'
p2012
F0.000487
sS'ADP'
p2013
F0.994057
s(lp2014
g170
atp2015
a(S'favor'
p2016
(dp2017
S'NOUN'
p2018
F1.0
s(lp2019
g176
atp2020
a(S'de'
p2021
(dp2022
g30
F0.0
sS'CONJ'
p2023
F1.7e-05
sS'ADP'
p2024
F0.999983
s(lp2025
g182
atp2026
a(S'la'
p2027
(dp2028
g30
F0.0
sS'PRON'
p2029
F0.0
sS'DET'
p2030
F0.999999
sS'NOUN'
p2031
F0.0
s(lp2032
tp2033
a(S'agricultura'
p2034
(dp2035
S'NOUN'
p2036
F1.0
s(lp2037
g195
atp2038
a(S'sostenible'
p2039
(dp2040
S'ADJ'
p2041
F1.0
s(lp2042
g201
atp2043
a(S'y'
p2044
(dp2045
g30
F0.002655
sS'CONJ'
p2046
F0.997345
s(lp2047
g207
atp2048
a(g858
(dp2049
g17
F1.0
s(lp2050
g32
atp2051
a(S'por'
p2052
(dp2053
S'CONJ'
p2054
F1.0
s(lp2055
g32
atp2056
a(S'lo'
p2057
(dp2058
S'CONJ'
p2059
F1.0
s(lp2060
g32
atp2061
a(S'tanto'
p2062
(dp2063
S'CONJ'
p2064
F1.0
s(lp2065
tp2066
a(g858
(dp2067
g17
F1.0
s(lp2068
g32
atp2069
a(S's\xc3\xb3lo'
p2070
(dp2071
S'ADV'
p2072
F1.0
s(lp2073
g231
atp2074
a(S'puedo'
p2075
(dp2076
S'VERB'
p2077
F1.0
s(lp2078
g223
atp2079
a(S'apoyar'
p2080
(dp2081
S'VERB'
p2082
F1.0
s(lp2083
g237
atp2084
a(S'cualquier'
p2085
(dp2086
S'ADJ'
p2087
F1.0
s(lp2088
g245
atp2089
a(S'medida'
p2090
(dp2091
S'VERB'
p2092
F0.008402
sS'NOUN'
p2093
F0.991598
s(lp2094
g251
atp2095
a(g1277
(dp2096
g30
F0.002522
sS'CONJ'
p2097
F0.997478
s(lp2098
g265
atp2099
a(S'pr\xc3\xa1ctica'
p2100
(dp2101
S'NOUN'
p2102
F0.39761
sS'ADJ'
p2103
F0.60239
s(lp2104
g280
atp2105
a(S'que'
p2106
(dp2107
g30
F2e-06
sS'CONJ'
p2108
F0.999998
s(lp2109
g512
atp2110
a(S'busque'
p2111
(dp2112
S'VERB'
p2113
F1.0
s(lp2114
g286
atp2115
a(S'su'
p2116
(dp2117
S'PRON'
p2118
F1.0
s(lp2119
g292
atp2120
a(S'promoci\xc3\xb3n'
p2121
(dp2122
S'NOUN'
p2123
F1.0
s(lp2124
g298
atp2125
a(g17
(dp2126
g17
F1.0
s(lp2127
g17
atp2128
as.