(dp0
S'fr'
p1
(lp2
(S'nous'
p3
(dp4
S'PRON'
p5
F1.0
s(lp6
S'we'
p7
atp8
a(S'exportons'
p9
(dp10
S'VERB'
p11
F1.0
s(lp12
S'exporting'
p13
atp14
a(S'nos'
p15
(dp16
S'PRON'
p17
F1.0
s(lp18
S'our'
p19
atp20
a(S'animaux'
p21
(dp22
S'ADJ'
p23
F0.082191
sS'NOUN'
p24
F0.917809
s(lp25
S'animals'
p26
atp27
a(S','
p28
(dp29
S'.'
p30
F1.0
s(lp31
S'-'
p32
atp33
a(S'et'
p34
(dp35
S'CONJ'
p36
F1.0
s(lp37
S'and'
p38
atp39
a(S'peut-\xc3\xaatre'
p40
(dp41
S'ADV'
p42
F1.0
s(lp43
S'perhaps'
p44
atp45
a(S'aussi'
p46
(dp47
S'ADV'
p48
F0.995464
sS'CONJ'
p49
F0.004536
s(lp50
S'too'
p51
atp52
a(S'leurs'
p53
(dp54
S'PRON'
p55
F1.0
s(lp56
S'their'
p57
atp58
a(S'probl\xc3\xa8mes'
p59
(dp60
S'NOUN'
p61
F1.0
s(lp62
S'problems'
p63
atp64
a(S'de'
p65
(dp66
S'ADP'
p67
F1.0
s(lp68
tp69
a(S'sant\xc3\xa9'
p70
(dp71
S'NOUN'
p72
F1.0
s(lp73
S'health'
p74
atp75
a(g28
(dp76
g30
F1.0
s(lp77
g32
atp78
a(S'et'
p79
(dp80
S'CONJ'
p81
F1.0
s(lp82
S'and'
p83
atp84
a(S'il'
p85
(dp86
S'PRON'
p87
F1.0
s(lp88
S'it'
p89
atp90
a(S'est'
p91
(dp92
S'VERB'
p93
F0.999985
sS'NOUN'
p94
F1.5e-05
s(lp95
S'is'
p96
atp97
a(S'clair'
p98
(dp99
S'ADV'
p100
F0.342263
sS'NOUN'
p101
F0.013486
sS'ADJ'
p102
F0.644251
s(lp103
S'clear'
p104
atp105
a(S'que'
p106
(dp107
S'ADV'
p108
F0.003763
sS'PRON'
p109
F0.181462
sS'CONJ'
p110
F0.814775
s(lp111
S'that'
p112
atp113
a(S'nous'
p114
(dp115
S'PRON'
p116
F1.0
s(lp117
S'we'
p118
atp119
a(S'sommes'
p120
(dp121
S'VERB'
p122
F0.999932
sS'NOUN'
p123
F6.8e-05
s(lp124
S'are'
p125
atp126
a(S'tous'
p127
(dp128
S'PRON'
p129
F0.997815
sS'NOUN'
p130
F0.002185
s(lp131
S'all'
p132
atp133
a(S'dans'
p134
(dp135
S'NOUN'
p136
F0.003937
sS'ADP'
p137
F0.996063
s(lp138
S'in'
p139
atp140
a(S'le'
p141
(dp142
S'PRON'
p143
F0.002154
sS'DET'
p144
F0.997846
s(lp145
S'this'
p146
atp147
a(S'm\xc3\xaame'
p148
(dp149
S'ADV'
p150
F0.028759
sS'ADJ'
p151
F0.971241
s(lp152
S'together'
p153
atp154
a(S'bateau'
p155
(dp156
S'NOUN'
p157
F1.0
s(lp158
tp159
a(S'en'
p160
(dp161
S'PRON'
p162
F0.000381
sS'ADP'
p163
F0.999619
s(lp164
g153
atp165
a(S'la'
p166
(dp167
S'PRON'
p168
F1.3e-05
sS'DET'
p169
F0.999987
sS'NOUN'
p170
F0.0
s(lp171
tp172
a(S'mati\xc3\xa8re'
p173
(dp174
S'NOUN'
p175
F1.0
s(lp176
tp177
a(g30
(dp178
g30
F1.0
s(lp179
g30
atp180
asS'en'
p181
(lp182
(g7
(dp183
S'PRON'
p184
F1.0
s(lp185
g7
atp186
a(S'are'
p187
(dp188
S'VERB'
p189
F1.0
sS'NOUN'
p190
F0.0
s(lp191
g187
atp192
a(g13
(dp193
S'VERB'
p194
F1.0
s(lp195
g13
atp196
a(g19
(dp197
S'PRON'
p198
F1.0
s(lp199
g19
atp200
a(g26
(dp201
S'NOUN'
p202
F1.0
s(lp203
g26
atp204
a(g32
(dp205
g30
F1.0
s(lp206
g32
atp207
a(g38
(dp208
S'CONJ'
p209
F0.999999
sS'NOUN'
p210
F1e-06
s(lp211
g38
atp212
a(g44
(dp213
S'ADV'
p214
F1.0
s(lp215
g44
atp216
a(g57
(dp217
S'PRON'
p218
F1.0
s(lp219
g57
atp220
a(g74
(dp221
S'NOUN'
p222
F1.0
s(lp223
g74
atp224
a(g63
(dp225
S'NOUN'
p226
F1.0
s(lp227
g63
atp228
a(g51
(dp229
S'ADV'
p230
F1.0
s(lp231
g51
atp232
a(g32
(dp233
g30
F1.0
s(lp234
g32
atp235
a(g83
(dp236
S'CONJ'
p237
F0.999998
sS'NOUN'
p238
F2e-06
s(lp239
g83
atp240
a(g89
(dp241
S'PRON'
p242
F1.0
s(lp243
g89
atp244
a(g96
(dp245
S'VERB'
p246
F1.0
s(lp247
g96
atp248
a(g104
(dp249
S'VERB'
p250
F0.015915
sS'ADJ'
p251
F0.984085
s(lp252
g104
atp253
a(g112
(dp254
S'ADV'
p255
F0.000127
sS'DET'
p256
F0.000491
sS'ADP'
p257
F0.999382
s(lp258
g112
atp259
a(g118
(dp260
S'PRON'
p261
F1.0
s(lp262
g118
atp263
a(g125
(dp264
S'VERB'
p265
F1.0
sS'NOUN'
p266
F0.0
s(lp267
g125
atp268
a(g132
(dp269
S'ADV'
p270
F0.878328
sS'DET'
p271
F0.121672
s(lp272
g132
atp273
a(g139
(dp274
S'ADV'
p275
F0.001752
sS'PRT'
p276
F6.3e-05
sS'ADP'
p277
F0.998185
s(lp278
g139
atp279
a(g146
(dp280
S'ADV'
p281
F0.000634
sS'NOUN'
p282
F0.000138
sS'DET'
p283
F0.999228
s(lp284
g146
atp285
a(g153
(dp286
S'ADV'
p287
F1.0
s(lp288
g153
atp289
a(g30
(dp290
g30
F1.0
s(lp291
g30
atp292
asS'nl'
p293
(lp294
(S'we'
p295
(dp296
S'PRON'
p297
F1.0
s(lp298
g7
atp299
a(S'exporteren'
p300
(dp301
S'VERB'
p302
F0.998055
sS'NOUN'
p303
F0.001944
s(lp304
g13
atp305
a(S'onze'
p306
(dp307
S'PRON'
p308
F1.0
s(lp309
g19
atp310
a(S'dieren'
p311
(dp312
S'NOUN'
p313
F1.0
s(lp314
g26
atp315
a(g32
(dp316
g30
F1.0
s(lp317
g32
atp318
a(S'en'
p319
(dp320
S'CONJ'
p321
F1.0
s(lp322
g38
atp323
a(S'wellicht'
p324
(dp325
S'ADV'
p326
F1.0
s(lp327
g44
atp328
a(S'ook'
p329
(dp330
S'ADV'
p331
F1.0
s(lp332
tp333
a(S'hun'
p334
(dp335
S'PRON'
p336
F1.0
s(lp337
g57
atp338
a(S'gezondheidsproblemen'
p339
(dp340
S'NOUN'
p341
F1.0
s(lp342
g74
atp343
a(g32
(dp344
g30
F1.0
s(lp345
g32
atp346
a(S'en'
p347
(dp348
S'CONJ'
p349
F1.0
s(lp350
g83
atp351
a(S'het'
p352
(dp353
S'PRON'
p354
F0.933482
sS'DET'
p355
F0.066518
s(lp356
g89
atp357
a(S'is'
p358
(dp359
S'VERB'
p360
F1.0
s(lp361
g96
atp362
a(S'duidelijk'
p363
(dp364
S'ADJ'
p365
F1.0
s(lp366
g104
atp367
a(S'dat'
p368
(dp369
S'PRON'
p370
F0.000673
sS'CONJ'
p371
F0.999327
s(lp372
g112
atp373
a(S'we'
p374
(dp375
S'PRON'
p376
F1.0
s(lp377
g118
atp378
a(S'hier'
p379
(dp380
S'ADV'
p381
F1.0
s(lp382
g146
atp383
a(S'allemaal'
p384
(dp385
S'PRON'
p386
F1.0
s(lp387
g132
atp388
a(S'samen'
p389
(dp390
S'ADV'
p391
F1.0
s(lp392
g153
atp393
a(S'mee'
p394
(dp395
S'ADV'
p396
F0.99999
sS'NOUN'
p397
F1e-05
s(lp398
g63
atp399
a(S'te'
p400
(dp401
S'PRT'
p402
F1.0
s(lp403
g51
atp404
a(S'maken'
p405
(dp406
S'VERB'
p407
F1.0
sS'NOUN'
p408
F0.0
s(lp409
tp410
a(S'hebben'
p411
(dp412
S'VERB'
p413
F0.999997
sS'NOUN'
p414
F3e-06
s(lp415
g125
atp416
a(g30
(dp417
g30
F1.0
s(lp418
g30
atp419
asS'de'
p420
(lp421
(S'wir'
p422
(dp423
S'PRON'
p424
F1.0
s(lp425
g7
atp426
a(S'exportieren'
p427
(dp428
S'VERB'
p429
F1.0
s(lp430
g13
atp431
a(S'unsere'
p432
(dp433
S'PRON'
p434
F1.0
s(lp435
g19
atp436
a(S'tiere'
p437
(dp438
S'NOUN'
p439
F0.161575
sS'ADJ'
p440
F0.835973
s(lp441
g26
atp442
a(S'und'
p443
(dp444
S'CONJ'
p445
F1.0
s(lp446
g38
atp447
a(S'dabei'
p448
(dp449
S'ADV'
p450
F1.0
sS'PRT'
p451
F0.0
s(lp452
g89
atp453
a(S'm\xc3\xb6glicherweise'
p454
(dp455
S'ADV'
p456
F1.0
s(lp457
g44
atp458
a(S'auch'
p459
(dp460
S'ADV'
p461
F1.0
s(lp462
g51
atp463
a(S'ihre'
p464
(dp465
S'PRON'
p466
F1.0
s(lp467
g57
atp468
a(S'gesundheitsprobleme'
p469
(dp470
S'ADJ'
p471
F0.00072
sS'NOUN'
p472
F0.999168
s(lp473
g74
atp474
a(g28
(dp475
g30
F1.0
s(lp476
g32
atp477
a(S'und'
p478
(dp479
S'CONJ'
p480
F1.0
s(lp481
g83
atp482
a(S'wir'
p483
(dp484
S'PRON'
p485
F1.0
s(lp486
g118
atp487
a(S'sind'
p488
(dp489
S'VERB'
p490
F1.0
s(lp491
g125
atp492
a(S'nat\xc3\xbcrlich'
p493
(dp494
S'ADV'
p495
F0.995043
sS'ADJ'
p496
F0.004957
s(lp497
g104
atp498
a(S'alle'
p499
(dp500
S'PRON'
p501
F1.0
s(lp502
g132
atp503
a(S'davon'
p504
(dp505
S'ADV'
p506
F0.997079
sS'PRT'
p507
F0.002921
s(lp508
g146
atp509
a(S'betroffen'
p510
(dp511
S'VERB'
p512
F0.994898
sS'ADJ'
p513
F0.005102
s(lp514
g63
atp515
a(g30
(dp516
g30
F1.0
s(lp517
g30
atp518
asS'it'
p519
(lp520
(S'esportiamo'
p521
(dp522
S'VERB'
p523
F1.0
s(lp524
g13
atp525
a(S'i'
p526
(dp527
S'DET'
p528
F1.0
s(lp529
tp530
a(S'nostri'
p531
(dp532
S'PRON'
p533
F1.0
s(lp534
g19
atp535
a(S'animali'
p536
(dp537
S'NOUN'
p538
F0.434814
sS'VERB'
p539
F3e-06
sS'ADJ'
p540
F0.565184
s(lp541
g26
atp542
a(g32
(dp543
S'X'
p544
F0.0
sg30
F1.0
s(lp545
g32
atp546
a(S'e'
p547
(dp548
S'CONJ'
p549
F1.0
s(lp550
g38
atp551
a(S'forse'
p552
(dp553
S'ADV'
p554
F0.999787
sS'NOUN'
p555
F0.000213
s(lp556
g44
atp557
a(S'anche'
p558
(dp559
S'ADV'
p560
F0.999991
sS'NOUN'
p561
F9e-06
s(lp562
g51
atp563
a(g526
(dp564
S'DET'
p565
F1.0
s(lp566
tp567
a(S'loro'
p568
(dp569
S'PRON'
p570
F1.0
s(lp571
g57
atp572
a(S'problemi'
p573
(dp574
S'NOUN'
p575
F1.0
s(lp576
g63
atp577
a(S'di'
p578
(dp579
S'CONJ'
p580
F4e-06
sS'ADP'
p581
F0.999996
s(lp582
tp583
a(S'salute'
p584
(dp585
g544
F7e-06
sS'NOUN'
p586
F0.999993
s(lp587
g74
atp588
a(g32
(dp589
g544
F0.0
sg30
F1.0
s(lp590
g32
atp591
a(S'ed'
p592
(dp593
S'CONJ'
p594
F1.0
s(lp595
g83
atp596
a(S'\xc3\xa8'
p597
(dp598
S'VERB'
p599
F1.0
s(lp600
g96
atp601
a(S'palese'
p602
(dp603
S'ADJ'
p604
F1.0
s(lp605
g104
atp606
a(S'che'
p607
(dp608
S'PRON'
p609
F0.960758
sS'CONJ'
p610
F0.039222
sS'ADJ'
p611
F2.1e-05
s(lp612
g112
atp613
a(S'ci'
p614
(dp615
S'ADV'
p616
F0.000337
sS'PRON'
p617
F0.999659
sS'NOUN'
p618
F4e-06
s(lp619
g118
atp620
a(S'siamo'
p621
(dp622
S'VERB'
p623
F0.9999999999999999
s(lp624
g125
atp625
a(S'dentro'
p626
(dp627
S'ADV'
p628
F0.830937
sS'ADP'
p629
F0.169063
s(lp630
g153
atp631
a(S'tutti'
p632
(dp633
S'PRON'
p634
F0.125501
sS'ADJ'
p635
F0.874499
s(lp636
g132
atp637
a(g30
(dp638
g30
F1.0
s(lp639
g30
atp640
asS'sk'
p641
(lp642
(S'vyv\xc3\xa1\xc5\xbeame'
p643
(dp644
S'VERB'
p645
F1.0
s(lp646
g13
atp647
a(S'na\xc5\xa1e'
p648
(dp649
S'PRON'
p650
F0.99998
sg544
F2e-05
s(lp651
g19
atp652
a(S'zvierat\xc3\xa1'
p653
(dp654
S'NOUN'
p655
F1.0
s(lp656
g26
atp657
a(g28
(dp658
g30
F1.0
s(lp659
g32
atp660
a(S'a'
p661
(dp662
g544
F0.00043499999999999995
sS'CONJ'
p663
F0.999553
sS'NOUN'
p664
F2e-06
sS'ADP'
p665
F1e-06
sS'PRT'
p666
F9e-06
s(lp667
g38
atp668
a(S'mo\xc5\xbeno'
p669
(dp670
S'ADV'
p671
F0.303362
sg544
F0.696638
s(lp672
g44
atp673
a(S'aj'
p674
(dp675
g544
F0.847285
sS'CONJ'
p676
F0.152715
s(lp677
g51
atp678
a(S'ich'
p679
(dp680
S'PRON'
p681
F1.0
s(lp682
g57
atp683
a(S'zdravotn\xc3\xa9'
p684
(dp685
S'ADJ'
p686
F1.0
s(lp687
g74
atp688
a(S'probl\xc3\xa9my'
p689
(dp690
g544
F2.5e-05
sS'NOUN'
p691
F0.999975
s(lp692
g63
atp693
a(g28
(dp694
g30
F1.0
s(lp695
g32
atp696
a(g661
(dp697
g544
F0.000862
sS'CONJ'
p698
F0.999107
sS'NOUN'
p699
F7e-06
sS'ADP'
p700
F0.0
sS'PRT'
p701
F2.3e-05
s(lp702
g83
atp703
a(S'je'
p704
(dp705
S'PRON'
p706
F0.000136
sS'VERB'
p707
F0.999846
sg544
F1.8e-05
s(lp708
g96
atp709
a(S'zrejm\xc3\xa9'
p710
(dp711
S'ADJ'
p712
F1.0
s(lp713
g104
atp714
a(g28
(dp715
g30
F1.0
s(lp716
tp717
a(S'\xc5\xbee'
p718
(dp719
g544
F0.000346
sS'CONJ'
p720
F0.999654
s(lp721
g112
atp722
a(S'sme'
p723
(dp724
g544
F2.9999999999999997e-05
sS'VERB'
p725
F0.999971
s(lp726
g118
atp727
a(S'v'
p728
(dp729
g544
F3.2e-05
sS'ADP'
p730
F0.999967
s(lp731
g139
atp732
a(S'tom'
p733
(dp734
S'PRON'
p735
F0.999854
sg544
F0.000146
s(lp736
g146
atp737
a(S'v\xc5\xa1etci'
p738
(dp739
S'PRON'
p740
F1.0
s(lp741
g132
atp742
a(S'spolo\xc4\x8dne'
p743
(dp744
S'ADV'
p745
F1.0
s(lp746
g153
atp747
a(g30
(dp748
g30
F1.0
s(lp749
g30
atp750
asS'pl'
p751
(lp752
(S'eksportujemy'
p753
(dp754
S'VERB'
p755
F1.0
s(lp756
g13
atp757
a(S'nasze'
p758
(dp759
g544
F1e-06
sS'ADJ'
p760
F0.999998
s(lp761
g19
atp762
a(S'zwierz\xc4\x99ta'
p763
(dp764
S'NOUN'
p765
F1.0
s(lp766
g26
atp767
a(g32
(dp768
g544
F1.2e-05
sS'NUM'
p769
F0.0
sS'NOUN'
p770
F4e-06
sg30
F0.999984
s(lp771
g32
atp772
a(g526
(dp773
S'PRT'
p774
F0.008867
sS'CONJ'
p775
F0.990933
sS'NOUN'
p776
F1.5e-05
sg544
F8.3e-05
sS'PRON'
p777
F0.000103
s(lp778
g38
atp779
a(S'zapewne'
p780
(dp781
S'PRT'
p782
F1.0
s(lp783
g44
atp784
a(S'ich'
p785
(dp786
S'PRON'
p787
F0.999999
sg544
F2e-06
s(lp788
g57
atp789
a(S'problemy'
p790
(dp791
S'NOUN'
p792
F1.0
s(lp793
g63
atp794
a(S'zdrowotne'
p795
(dp796
S'ADJ'
p797
F1.0
s(lp798
g74
atp799
a(g32
(dp800
g544
F0.00034
sS'NUM'
p801
F0.0
sS'NOUN'
p802
F8.000000000000001e-06
sg30
F0.999652
s(lp803
g32
atp804
a(g526
(dp805
S'PRT'
p806
F0.044121
sS'CONJ'
p807
F0.955721
sS'PRON'
p808
F2.1e-05
sS'NOUN'
p809
F8.1e-05
sg544
F5.6e-05
s(lp810
g83
atp811
a(S'jest'
p812
(dp813
S'VERB'
p814
F1.0
s(lp815
g96
atp816
a(S'jasne'
p817
(dp818
S'ADJ'
p819
F1.0000010000000001
s(lp820
g104
atp821
a(g28
(dp822
g544
F0.0
sg30
F1.0
s(lp823
tp824
a(S'\xc5\xbce'
p825
(dp826
S'PRT'
p827
F0.00024
sS'CONJ'
p828
F0.99976
s(lp829
g112
atp830
a(S'to'
p831
(dp832
S'NOUN'
p833
F0.34442500000000004
sS'ADP'
p834
F0.0
sS'PRT'
p835
F0.216666
sg544
F0.00012
sS'CONJ'
p836
F0.002102
sS'ADJ'
p837
F0.43668599999999996
s(lp838
g146
atp839
a(S'dotyczy'
p840
(dp841
S'VERB'
p842
F1.0
s(lp843
g125
atp844
a(S'nas'
p845
(dp846
S'PRON'
p847
F1.0
s(lp848
g118
atp849
a(S'wszystkich'
p850
(dp851
S'NOUN'
p852
F0.12327300000000001
sS'ADJ'
p853
F0.8767260000000002
s(lp854
g132
atp855
a(g30
(dp856
g30
F1.0
s(lp857
g30
atp858
asS'sl'
p859
(lp860
(S'na\xc5\xa1e'
p861
(dp862
S'PRON'
p863
F1.000001
s(lp864
g19
atp865
a(S'\xc5\xbeivali'
p866
(dp867
S'NOUN'
p868
F1.0
s(lp869
g26
atp870
a(S'izva\xc5\xbeamo'
p871
(dp872
S'VERB'
p873
F1.0
s(lp874
g13
atp875
a(g28
(dp876
g30
F1.0
s(lp877
g32
atp878
a(S'in'
p879
(dp880
S'ADV'
p881
F0.000559
sg544
F7e-06
sS'CONJ'
p882
F0.999422
sS'NOUN'
p883
F1.2e-05
s(lp884
g38
atp885
a(S'mogo\xc4\x8de'
p886
(dp887
S'ADV'
p888
F0.355109
sS'ADJ'
p889
F0.644891
s(lp890
g44
atp891
a(S's'
p892
(dp893
S'VERB'
p894
F1.3e-05
sS'NOUN'
p895
F3e-06
sS'ADP'
p896
F0.999984
s(lp897
tp898
a(S'tem'
p899
(dp900
S'ADV'
p901
F0.000211
sS'PRON'
p902
F0.9995459999999999
sS'NOUN'
p903
F0.000243
s(lp904
tp905
a(S'tudi'
p906
(dp907
S'PRT'
p908
F1.0
s(lp909
g51
atp910
a(S'njihove'
p911
(dp912
S'PRON'
p913
F1.0
s(lp914
g57
atp915
a(S'zdravstvene'
p916
(dp917
S'ADJ'
p918
F1.0
s(lp919
g74
atp920
a(S'te\xc5\xbeave'
p921
(dp922
S'NOUN'
p923
F1.000001
s(lp924
g63
atp925
a(g28
(dp926
g30
F1.0
s(lp927
g32
atp928
a(S'zato'
p929
(dp930
S'ADV'
p931
F0.082531
sS'CONJ'
p932
F0.917469
s(lp933
g83
atp934
a(S'je'
p935
(dp936
S'PRON'
p937
F0.002004
sS'VERB'
p938
F0.997995
sg544
F1e-06
s(lp939
g96
atp940
a(S'jasno'
p941
(dp942
S'ADV'
p943
F0.280573
sS'ADJ'
p944
F0.7194260000000001
s(lp945
g104
atp946
a(g28
(dp947
g30
F1.0
s(lp948
tp949
a(S'da'
p950
(dp951
S'PRT'
p952
F2e-06
sS'CONJ'
p953
F0.999988
sS'VERB'
p954
F9e-06
sg544
F1e-06
s(lp955
g112
atp956
a(S'smo'
p957
(dp958
g544
F8e-06
sS'VERB'
p959
F0.999992
s(lp960
g118
atp961
a(g728
(dp962
S'ADP'
p963
F1.0
s(lp964
g139
atp965
a(S'teh'
p966
(dp967
S'PRON'
p968
F1.0000000000000002
s(lp969
g146
atp970
a(S'razmerah'
p971
(dp972
S'NOUN'
p973
F1.0
s(lp974
tp975
a(S'skupaj'
p976
(dp977
S'ADV'
p978
F1.0
s(lp979
g153
atp980
a(g30
(dp981
g30
F1.0
s(lp982
g30
atp983
asS'es'
p984
(lp985
(S'exportamos'
p986
(dp987
S'VERB'
p988
F1.0
s(lp989
g13
atp990
a(S'nuestros'
p991
(dp992
S'PRON'
p993
F1.0
s(lp994
g19
atp995
a(S'animales'
p996
(dp997
S'NOUN'
p998
F1.0
s(lp999
g26
atp1000
a(S'-y'
p1001
(dp1002
S'ADV'
p1003
F0.006726
sS'ADJ'
p1004
F0.177311
sS'VERB'
p1005
F0.38372300000000004
sS'NOUN'
p1006
F0.43224
s(lp1007
g32
atp1008
a(S'tambi\xc3\xa9n'
p1009
(dp1010
S'ADV'
p1011
F1.0
s(lp1012
g44
atp1013
a(S'sus'
p1014
(dp1015
S'PRON'
p1016
F1.0
s(lp1017
g57
atp1018
a(S'problemas'
p1019
(dp1020
S'NOUN'
p1021
F1.0
s(lp1022
g63
atp1023
a(S'de'
p1024
(dp1025
g544
F0.000239
sS'CONJ'
p1026
F0.00057
sS'ADP'
p1027
F0.999191
s(lp1028
tp1029
a(S'salud-'
p1030
(dp1031
S'VERB'
p1032
F0.011549
sS'NOUN'
p1033
F0.988451
s(lp1034
g74
atp1035
a(S'y'
p1036
(dp1037
g544
F0.077022
sS'CONJ'
p1038
F0.922978
s(lp1039
g83
atp1040
a(S'es'
p1041
(dp1042
S'VERB'
p1043
F1.0
s(lp1044
g96
atp1045
a(S'evidente'
p1046
(dp1047
S'ADJ'
p1048
F1.0
s(lp1049
g104
atp1050
a(S'que'
p1051
(dp1052
g544
F0.0
sS'CONJ'
p1053
F1.0
s(lp1054
g112
atp1055
a(S'estamos'
p1056
(dp1057
S'VERB'
p1058
F1.0
s(lp1059
g125
atp1060
a(S'en'
p1061
(dp1062
g544
F0.0
sS'CONJ'
p1063
F0.0
sS'ADP'
p1064
F1.0
s(lp1065
g139
atp1066
a(S'el'
p1067
(dp1068
S'PRON'
p1069
F0.000153
sS'DET'
p1070
F0.999847
s(lp1071
g146
atp1072
a(S'mismo'
p1073
(dp1074
S'NOUN'
p1075
F0.030282
sS'ADJ'
p1076
F0.969718
s(lp1077
tp1078
a(S'barco'
p1079
(dp1080
S'NOUN'
p1081
F1.0
s(lp1082
g153
atp1083
a(g30
(dp1084
g30
F1.0
s(lp1085
g30
atp1086
as.