(dp0
S'fr'
p1
(lp2
(S"c'"
p3
(dp4
S'ADJ'
p5
F0.079749
sS'VERB'
p6
F0.5393100000000001
sS'NOUN'
p7
F0.380941
s(lp8
S'this'
p9
atp10
a(S'est'
p11
(dp12
S'VERB'
p13
F0.999409
sS'NOUN'
p14
F0.000591
s(lp15
S'is'
p16
atp17
a(S'le'
p18
(dp19
S'PRON'
p20
F0.000137
sS'DET'
p21
F0.999863
s(lp22
S'a'
p23
atp24
a(S'r\xc3\xa9sultat'
p25
(dp26
S'NOUN'
p27
F1.0
s(lp28
S'result'
p29
atp30
a(S'de'
p31
(dp32
S'ADP'
p33
F1.0
s(lp34
S'of'
p35
atp36
a(S"l'"
p37
(dp38
S'ADJ'
p39
F0.160704
sS'VERB'
p40
F0.06480800000000002
sS'NOUN'
p41
F0.774488
s(lp42
tp43
a(S'assouplissement'
p44
(dp45
S'NOUN'
p46
F1.0
s(lp47
S'facilitation'
p48
atp49
a(S'des'
p50
(dp51
S'DET'
p52
F2.1e-05
sS'ADP'
p53
F0.999979
s(lp54
g48
atp55
a(S'formalit\xc3\xa9s'
p56
(dp57
S'NOUN'
p58
F1.0
s(lp59
g48
atp60
a(S"d'"
p61
(dp62
S'NOUN'
p63
F0.032441
sS'VERB'
p64
F0.694014
sS'ADJ'
p65
F0.273544
s(lp66
S'for'
p67
atp68
a(S'octroi'
p69
(dp70
S'NOUN'
p71
F1.0
s(lp72
tp73
a(S'des'
p74
(dp75
S'DET'
p76
F2.1e-05
sS'ADP'
p77
F0.999979
s(lp78
g48
atp79
a(S'visas'
p80
(dp81
S'VERB'
p82
F1e-06
sS'NOUN'
p83
F0.999999
s(lp84
S'visa'
p85
atp86
a(S','
p87
(dp88
S'.'
p89
F1.0
s(lp90
g87
atp91
a(S'par'
p92
(dp93
S'NOUN'
p94
F1e-06
sS'ADP'
p95
F0.999999
s(lp96
tp97
a(S'exemple'
p98
(dp99
S'NOUN'
p100
F1.0
s(lp101
S'example'
p102
atp103
a(g87
(dp104
g89
F1.0
s(lp105
g87
atp106
a(S'pour'
p107
(dp108
S'CONJ'
p109
F0.253104
sS'ADP'
p110
F0.746896
s(lp111
S'for'
p112
atp113
a(S'la'
p114
(dp115
S'PRON'
p116
F4.1e-05
sS'DET'
p117
F0.999958
sS'NOUN'
p118
F1e-06
s(lp119
tp120
a(S'serbie'
p121
(dp122
S'ADJ'
p123
F0.095277
sS'VERB'
p124
F1e-06
sS'NOUN'
p125
F0.9047219999999999
s(lp126
S'serbia'
p127
atp128
a(S'et'
p129
(dp130
S'CONJ'
p131
F1.0
s(lp132
S'and'
p133
atp134
a(S'le'
p135
(dp136
S'PRON'
p137
F0.000549
sS'DET'
p138
F0.999451
s(lp139
tp140
a(S'mac\xc3\xa9doine'
p141
(dp142
S'NOUN'
p143
F1.0
s(lp144
S'macedonia'
p145
atp146
a(g89
(dp147
g89
F1.0
s(lp148
g89
atp149
asS'en'
p150
(lp151
(g9
(dp152
S'ADV'
p153
F0.000523
sS'NOUN'
p154
F0.000215
sS'DET'
p155
F0.999263
s(lp156
g9
atp157
a(g16
(dp158
S'VERB'
p159
F1.0
s(lp160
g16
atp161
a(g23
(dp162
S'NOUN'
p163
F0.0
sS'DET'
p164
F1.0
s(lp165
g23
atp166
a(g29
(dp167
S'VERB'
p168
F0.000678
sS'NOUN'
p169
F0.999322
s(lp170
g29
atp171
a(g35
(dp172
S'ADP'
p173
F1.0
s(lp174
g35
atp175
a(g85
(dp176
S'VERB'
p177
F0.00036399999999999996
sS'NOUN'
p178
F0.999636
s(lp179
g85
atp180
a(g48
(dp181
S'NOUN'
p182
F1.0
s(lp183
g48
atp184
a(g87
(dp185
g89
F1.0
s(lp186
g87
atp187
a(g67
(dp188
S'ADP'
p189
F1.0
s(lp190
g67
atp191
a(g102
(dp192
S'NOUN'
p193
F1.0
s(lp194
g102
atp195
a(g87
(dp196
g89
F1.0
s(lp197
g87
atp198
a(g112
(dp199
S'ADP'
p200
F1.0
s(lp201
g112
atp202
a(g127
(dp203
S'ADJ'
p204
F0.000715
sS'NOUN'
p205
F0.9992850000000001
s(lp206
g127
atp207
a(g133
(dp208
S'CONJ'
p209
F0.999918
sS'NOUN'
p210
F8.2e-05
s(lp211
g133
atp212
a(g145
(dp213
S'ADV'
p214
F0.00317
sS'ADJ'
p215
F0.017265
sS'VERB'
p216
F0.023141
sS'NOUN'
p217
F0.9564250000000001
s(lp218
g145
atp219
a(g89
(dp220
g89
F1.0
s(lp221
g89
atp222
asS'nl'
p223
(lp224
(S'dat'
p225
(dp226
S'PRON'
p227
F0.597317
sS'CONJ'
p228
F0.402683
s(lp229
g9
atp230
a(S'komt'
p231
(dp232
S'VERB'
p233
F1.0
s(lp234
g16
atp235
a(S'door'
p236
(dp237
S'ADV'
p238
F8e-06
sS'CONJ'
p239
F6.8e-05
sS'ADP'
p240
F0.999924
s(lp241
g29
atp242
a(S'de'
p243
(dp244
S'DET'
p245
F1.0
s(lp246
g23
atp247
a(S'versoepeling'
p248
(dp249
S'NOUN'
p250
F1.0
s(lp251
g48
atp252
a(S'van'
p253
(dp254
S'ADP'
p255
F1.0
s(lp256
g35
atp257
a(S'de'
p258
(dp259
S'DET'
p260
F1.0
s(lp261
g85
atp262
a(S'afgifte'
p263
(dp264
S'NOUN'
p265
F1.0
s(lp266
tp267
a(S'van'
p268
(dp269
S'ADP'
p270
F1.0
s(lp271
tp272
a(S'visa'
p273
(dp274
S'NOUN'
p275
F1.0
s(lp276
g48
atp277
a(g87
(dp278
g89
F1.0
s(lp279
g87
atp280
a(S'bijv.'
p281
(dp282
S'ADV'
p283
F1.0
s(lp284
g102
atp285
a(S'voor'
p286
(dp287
S'ADV'
p288
F0.001565
sS'CONJ'
p289
F0.0
sS'NOUN'
p290
F0.0
sS'ADP'
p291
F0.998435
s(lp292
g112
atp293
a(S'servi\xc3\xab'
p294
(dp295
S'ADJ'
p296
F0.022747
sS'NOUN'
p297
F0.977253
s(lp298
g127
atp299
a(S'en'
p300
(dp301
S'CONJ'
p302
F1.0
s(lp303
g133
atp304
a(S'macedoni\xc3\xab'
p305
(dp306
S'ADJ'
p307
F0.144547
sS'NOUN'
p308
F0.855453
s(lp309
g145
atp310
a(g89
(dp311
g89
F1.0
s(lp312
g89
atp313
asS'de'
p314
(lp315
(S'das'
p316
(dp317
S'PRON'
p318
F0.99851
sS'DET'
p319
F0.001372
s(lp320
g9
atp321
a(S'hat'
p322
(dp323
S'VERB'
p324
F1.0
s(lp325
g16
atp326
a(S'mit'
p327
(dp328
S'PRT'
p329
F0.0
sS'ADP'
p330
F1.0
s(lp331
g35
atp332
a(S'den'
p333
(dp334
S'PRON'
p335
F0.000123
sS'DET'
p336
F0.999873
s(lp337
g23
atp338
a(S'visaerleichterungen'
p339
(dp340
S'ADJ'
p341
F0.158883
sS'NOUN'
p342
F0.813373
s(lp343
g48
atp344
a(g87
(dp345
g89
F1.0
s(lp346
g87
atp347
a(S'z.b.'
p348
(dp349
S'NOUN'
p350
F0.8871770000000001
s(lp351
g102
atp352
a(S'f\xc3\xbcr'
p353
(dp354
S'ADP'
p355
F1.0
s(lp356
g112
atp357
a(S'serbien'
p358
(dp359
S'X'
p360
F0.239846
sS'NOUN'
p361
F0.571707
s(lp362
g127
atp363
a(S'und'
p364
(dp365
S'CONJ'
p366
F1.0
s(lp367
g133
atp368
a(S'mazedonien'
p369
(dp370
S'NOUN'
p371
F0.256777
sS'ADJ'
p372
F0.528737
s(lp373
g145
atp374
a(S'zu'
p375
(dp376
S'PRT'
p377
F0.9999709999999999
s(lp378
g29
atp379
a(S'tun'
p380
(dp381
S'VERB'
p382
F1.0
s(lp383
tp384
a(g89
(dp385
g89
F1.0
s(lp386
g89
atp387
asS'it'
p388
(lp389
(S'ci\xc3\xb2'
p390
(dp391
S'PRON'
p392
F1.0
s(lp393
g9
atp394
a(S'\xc3\xa8'
p395
(dp396
S'VERB'
p397
F1.0
s(lp398
g16
atp399
a(S'dovuto'
p400
(dp401
S'NOUN'
p402
F0.000439
sS'VERB'
p403
F0.998185
sS'ADJ'
p404
F0.001376
s(lp405
g29
atp406
a(S'alla'
p407
(dp408
S'ADP'
p409
F1.0
s(lp410
g35
atp411
a(S'maggiore'
p412
(dp413
S'NOUN'
p414
F0.01094
sS'ADJ'
p415
F0.98906
s(lp416
g48
atp417
a(S'facilit\xc3\xa0'
p418
(dp419
S'NOUN'
p420
F1.0
s(lp421
tp422
a(S'di'
p423
(dp424
S'CONJ'
p425
F4e-06
sS'ADP'
p426
F0.999996
s(lp427
tp428
a(S'ottenimento'
p429
(dp430
S'NOUN'
p431
F1.0
s(lp432
g48
atp433
a(S'dei'
p434
(dp435
S'NOUN'
p436
F1e-05
sS'DEF'
p437
F0.001114
sS'ADP'
p438
F0.998876
s(lp439
tp440
a(S'visti'
p441
(dp442
S'VERB'
p443
F0.067257
sS'NOUN'
p444
F0.932742
s(lp445
g85
atp446
a(g87
(dp447
g89
F1.0
s(lp448
g87
atp449
a(S'per'
p450
(dp451
S'CONJ'
p452
F0.00717
sS'ADP'
p453
F0.99283
s(lp454
g67
atp455
a(S'esempio'
p456
(dp457
S'NOUN'
p458
F1.0
s(lp459
g102
atp460
a(S'in'
p461
(dp462
S'ADP'
p463
F1.0
s(lp464
g112
atp465
a(S'serbia'
p466
(dp467
S'ADJ'
p468
F0.007565
sS'VERB'
p469
F0.9554419999999999
sS'NOUN'
p470
F0.036994
s(lp471
g127
atp472
a(S'e'
p473
(dp474
S'CONJ'
p475
F1.0
s(lp476
g133
atp477
a(S'macedonia'
p478
(dp479
S'NOUN'
p480
F1.0
s(lp481
g145
atp482
a(g89
(dp483
g89
F1.0
s(lp484
g89
atp485
asS'sk'
p486
(lp487
(S'ide'
p488
(dp489
S'VERB'
p490
F1.0
s(lp491
g16
atp492
a(S'o'
p493
(dp494
g360
F0.000917
sS'CONJ'
p495
F1.4e-05
sS'NOUN'
p496
F1.4e-05
sS'ADP'
p497
F0.999055
s(lp498
g23
atp499
a(S'd\xc3\xb4sledok'
p500
(dp501
S'NOUN'
p502
F1.0
s(lp503
g29
atp504
a(S'zjednodu\xc5\xa1enia'
p505
(dp506
S'NOUN'
p507
F1.0
s(lp508
tp509
a(S'v\xc3\xadzov\xc3\xa9ho'
p510
(dp511
S'ADJ'
p512
F1.0
s(lp513
g85
atp514
a(S'styku'
p515
(dp516
S'NOUN'
p517
F1.0
s(lp518
g48
atp519
a(g87
(dp520
g89
F1.0
s(lp521
g87
atp522
a(S'napr\xc3\xadklad'
p523
(dp524
g360
F1.0
s(lp525
g102
atp526
a(S'v'
p527
(dp528
g360
F0.000217
sS'ADP'
p529
F0.999784
s(lp530
g67
atp531
a(S'pr\xc3\xadpade'
p532
(dp533
S'NOUN'
p534
F1.0
s(lp535
g112
atp536
a(S'srbska'
p537
(dp538
S'NOUN'
p539
F0.396392
sS'ADJ'
p540
F0.603608
s(lp541
g127
atp542
a(g23
(dp543
g360
F0.0008320000000000001
sS'CONJ'
p544
F0.997868
sS'NOUN'
p545
F0.000984
sS'ADP'
p546
F0.000303
sS'PRT'
p547
F1.3e-05
s(lp548
g133
atp549
a(S'maced\xc3\xb3nska'
p550
(dp551
S'ADJ'
p552
F1.0
s(lp553
g145
atp554
a(g89
(dp555
g89
F1.0
s(lp556
g89
atp557
asS'pl'
p558
(lp559
(S'jest'
p560
(dp561
S'VERB'
p562
F1.0
s(lp563
g16
atp564
a(S'to'
p565
(dp566
S'NOUN'
p567
F0.250092
sS'ADP'
p568
F8e-06
sS'PRT'
p569
F0.219079
sg360
F1e-06
sS'CONJ'
p570
F0.090631
sS'ADJ'
p571
F0.440188
s(lp572
g9
atp573
a(S'wynik'
p574
(dp575
S'NOUN'
p576
F1.0
s(lp577
g29
atp578
a(S'u\xc5\x82atwie\xc5\x84'
p579
(dp580
S'NOUN'
p581
F1.0
s(lp582
g48
atp583
a(S'w'
p584
(dp585
g360
F0.0
sS'ADJ'
p586
F0.0
sS'ADP'
p587
F1.0
sS'NOUN'
p588
F0.0
s(lp589
tp590
a(S'przyznawaniu'
p591
(dp592
S'VERB'
p593
F1.0
s(lp594
tp595
a(S'wiz'
p596
(dp597
S'NOUN'
p598
F1.0
s(lp599
tp600
a(S'obywatelom'
p601
(dp602
S'NOUN'
p603
F1.0
s(lp604
g48
atp605
a(S'takich'
p606
(dp607
S'ADJ'
p608
F0.9999990000000001
s(lp609
g35
atp610
a(S'kraj\xc3\xb3w'
p611
(dp612
S'NOUN'
p613
F1.0
s(lp614
g85
atp615
a(g87
(dp616
g360
F0.0
sg89
F1.0
s(lp617
g87
atp618
a(S'jak'
p619
(dp620
S'ADV'
p621
F0.165779
sS'PRT'
p622
F0.000391
sS'CONJ'
p623
F0.062047
sS'ADP'
p624
F0.771758
sS'PRON'
p625
F2.5e-05
s(lp626
g102
atp627
a(S'serbia'
p628
(dp629
S'NOUN'
p630
F1.0
s(lp631
g127
atp632
a(S'i'
p633
(dp634
S'PRT'
p635
F0.008033
sS'CONJ'
p636
F0.991399
sS'PRON'
p637
F3e-06
sS'NOUN'
p638
F0.000535
sg360
F2.8e-05
s(lp639
g133
atp640
a(S'macedonia'
p641
(dp642
S'ADV'
p643
F0.00273
sS'ADJ'
p644
F0.020517999999999995
sS'VERB'
p645
F0.19534999999999997
sS'NOUN'
p646
F0.7814000000000001
s(lp647
g145
atp648
a(g89
(dp649
g89
F1.0
s(lp650
g89
atp651
asS'sl'
p652
(lp653
(S'to'
p654
(dp655
S'PRON'
p656
F0.999936
sg360
F6.3e-05
s(lp657
g9
atp658
a(S'je'
p659
(dp660
S'PRON'
p661
F0.000113
sS'VERB'
p662
F0.999885
sg360
F2e-06
s(lp663
g16
atp664
a(S'posledica'
p665
(dp666
S'NOUN'
p667
F1.0
s(lp668
g29
atp669
a(S'olaj\xc5\xa1anja'
p670
(dp671
S'NOUN'
p672
F1.0
s(lp673
tp674
a(S'na'
p675
(dp676
S'ADP'
p677
F1.0
s(lp678
g35
atp679
a(S'podro\xc4\x8dju'
p680
(dp681
S'NOUN'
p682
F1.0
s(lp683
g85
atp684
a(S'vizumov'
p685
(dp686
S'NOUN'
p687
F1.0
s(lp688
g48
atp689
a(g87
(dp690
g89
F1.0
s(lp691
g87
atp692
a(S'na'
p693
(dp694
S'ADP'
p695
F1.0
s(lp696
tp697
a(S'primer'
p698
(dp699
S'NOUN'
p700
F1.0
s(lp701
g102
atp702
a(S'za'
p703
(dp704
S'ADV'
p705
F7.9e-05
sg360
F1e-06
sS'ADP'
p706
F0.9999199999999999
s(lp707
g112
atp708
a(S'srbijo'
p709
(dp710
S'ADV'
p711
F5.8e-05
sS'ADJ'
p712
F7e-06
sS'VERB'
p713
F0.00047200000000000003
sS'NOUN'
p714
F0.9994630000000001
s(lp715
g127
atp716
a(S'in'
p717
(dp718
S'ADV'
p719
F0.000169
sg360
F9e-06
sS'CONJ'
p720
F0.999815
sS'NOUN'
p721
F8e-06
s(lp722
g133
atp723
a(S'makedonijo'
p724
(dp725
S'ADV'
p726
F0.000963
sS'ADJ'
p727
F0.001112
sS'VERB'
p728
F0.49895700000000004
sS'NOUN'
p729
F0.4989699999999999
s(lp730
g145
atp731
a(g89
(dp732
g89
F1.0
s(lp733
g89
atp734
asS'es'
p735
(lp736
(S'este'
p737
(dp738
S'PRON'
p739
F0.999925
sS'NOUN'
p740
F7.5e-05
s(lp741
g9
atp742
a(S'es'
p743
(dp744
S'VERB'
p745
F1.0
s(lp746
g16
atp747
a(S'uno'
p748
(dp749
S'NUM'
p750
F1.0
s(lp751
g23
atp752
a(S'de'
p753
(dp754
g360
F0.0
sS'CONJ'
p755
F1e-06
sS'ADP'
p756
F0.999999
s(lp757
tp758
a(S'los'
p759
(dp760
S'PRON'
p761
F0.0
sS'DET'
p762
F1.0
s(lp763
tp764
a(S'resultados'
p765
(dp766
S'NOUN'
p767
F1.0
s(lp768
g29
atp769
a(S'de'
p770
(dp771
g360
F0.0
sS'CONJ'
p772
F1.7e-05
sS'ADP'
p773
F0.999983
s(lp774
g35
atp775
a(S'la'
p776
(dp777
g360
F0.0
sS'PRON'
p778
F0.0
sS'DET'
p779
F0.999999
sS'NOUN'
p780
F0.0
s(lp781
g85
atp782
a(S'facilitaci\xc3\xb3n'
p783
(dp784
S'NOUN'
p785
F1.0
s(lp786
g48
atp787
a(S'de'
p788
(dp789
g360
F1e-06
sS'CONJ'
p790
F0.008285
sS'ADP'
p791
F0.991714
s(lp792
tp793
a(S'visados'
p794
(dp795
S'VERB'
p796
F1.0
s(lp797
g85
atp798
a(g87
(dp799
g89
F1.0
s(lp800
g87
atp801
a(S'por'
p802
(dp803
S'ADV'
p804
F1.0
s(lp805
g67
atp806
a(S'ejemplo'
p807
(dp808
S'ADV'
p809
F1.0
s(lp810
g102
atp811
a(g87
(dp812
g89
F1.0
s(lp813
g87
atp814
a(g23
(dp815
g360
F0.028841000000000002
sS'CONJ'
p816
F0.000326
sS'ADP'
p817
F0.970833
s(lp818
g112
atp819
a(S'serbia'
p820
(dp821
S'ADJ'
p822
F0.321658
sS'NOUN'
p823
F0.678342
s(lp824
g127
atp825
a(S'y'
p826
(dp827
g360
F0.008394
sS'CONJ'
p828
F0.991606
s(lp829
g133
atp830
a(S'macedonia'
p831
(dp832
S'VERB'
p833
F0.473098
sS'NOUN'
p834
F0.526903
s(lp835
g145
atp836
a(g89
(dp837
g89
F1.0
s(lp838
g89
atp839
as.