(dp0
S'fr'
p1
(lp2
(S'le'
p3
(dp4
S'PRON'
p5
F0.000807
sS'DET'
p6
F0.999193
s(lp7
S'the'
p8
atp9
a(S'm\xc3\xa9diateur'
p10
(dp11
S'ADJ'
p12
F0.444776
sS'NOUN'
p13
F0.555224
s(lp14
S'ombudsman'
p15
atp16
a(S'doit'
p17
(dp18
S'VERB'
p19
F0.997476
sS'NOUN'
p20
F0.002524
s(lp21
S'must'
p22
atp23
a(S'toutefois'
p24
(dp25
S'ADV'
p26
F1.0
s(lp27
S'however'
p28
atp29
a(S'r\xc3\xa9pondre'
p30
(dp31
S'VERB'
p32
F1.0
s(lp33
S'react'
p34
atp35
a(S'plus'
p36
(dp37
S'ADV'
p38
F0.999734
sS'VERB'
p39
F0.000265
s(lp40
tp41
a(S'rapidement'
p42
(dp43
S'ADV'
p44
F1.0
s(lp45
S'quicker'
p46
atp47
a(S'aux'
p48
(dp49
S'ADP'
p50
F1.0
s(lp51
S'the'
p52
atp53
a(S'besoins'
p54
(dp55
S'NOUN'
p56
F1.0
s(lp57
S'needs'
p58
atp59
a(S'des'
p60
(dp61
S'DET'
p62
F2.1e-05
sS'ADP'
p63
F0.999979
s(lp64
S'of'
p65
atp66
a(S'citoyens'
p67
(dp68
S'NOUN'
p69
F1.0
s(lp70
S'citizens'
p71
atp72
a(S'.'
p73
(dp74
g73
F1.0
s(lp75
g73
atp76
asS'en'
p77
(lp78
(g8
(dp79
S'NOUN'
p80
F5e-06
sS'DET'
p81
F0.999995
s(lp82
g8
atp83
a(g15
(dp84
S'NOUN'
p85
F1.0
s(lp86
g15
atp87
a(S','
p88
(dp89
g73
F1.0
s(lp90
g88
atp91
a(g28
(dp92
S'ADV'
p93
F1.0
s(lp94
g28
atp95
a(g88
(dp96
g73
F1.0
s(lp97
g88
atp98
a(g22
(dp99
S'VERB'
p100
F1.0
sS'NOUN'
p101
F0.0
s(lp102
g22
atp103
a(g34
(dp104
S'VERB'
p105
F1.0
s(lp106
g34
atp107
a(g46
(dp108
S'ADV'
p109
F0.658669
sS'ADJ'
p110
F0.341331
s(lp111
g46
atp112
a(S'to'
p113
(dp114
S'ADV'
p115
F3e-06
sS'PRT'
p116
F0.999975
sS'ADP'
p117
F2.2e-05
s(lp118
g113
atp119
a(g52
(dp120
S'NOUN'
p121
F1.5e-05
sS'DET'
p122
F0.999985
s(lp123
g52
atp124
a(g58
(dp125
S'ADV'
p126
F0.002627
sS'VERB'
p127
F0.067646
sS'NOUN'
p128
F0.929726
s(lp129
g58
atp130
a(g65
(dp131
S'ADP'
p132
F1.0
s(lp133
g65
atp134
a(g71
(dp135
S'NOUN'
p136
F1.0
s(lp137
g71
atp138
a(g73
(dp139
g73
F1.0
s(lp140
g73
atp141
asS'nl'
p142
(lp143
(S'de'
p144
(dp145
S'DET'
p146
F1.0
s(lp147
g8
atp148
a(S'ombudsman'
p149
(dp150
S'NOUN'
p151
F1.0
s(lp152
g15
atp153
a(S'moet'
p154
(dp155
S'VERB'
p156
F1.0
s(lp157
g22
atp158
a(S'echter'
p159
(dp160
S'ADV'
p161
F0.999993
sS'ADJ'
p162
F7e-06
s(lp163
tp164
a(S'nog'
p165
(dp166
S'ADV'
p167
F1.0
s(lp168
g28
atp169
a(S'sneller'
p170
(dp171
S'ADJ'
p172
F1.0
s(lp173
g46
atp174
a(S'reageren'
p175
(dp176
S'VERB'
p177
F0.666279
sS'NOUN'
p178
F0.333721
s(lp179
tp180
a(S'op'
p181
(dp182
S'ADV'
p183
F0.005914
sS'ADJ'
p184
F0.0
sS'ADP'
p185
F0.994086
s(lp186
g34
atp187
a(S'de'
p188
(dp189
S'DET'
p190
F1.0
s(lp191
g52
atp192
a(S'behoeften'
p193
(dp194
S'NOUN'
p195
F1.0
s(lp196
g58
atp197
a(S'van'
p198
(dp199
S'ADP'
p200
F1.0
s(lp201
g65
atp202
a(S'de'
p203
(dp204
S'DET'
p205
F1.0
s(lp206
tp207
a(S'burger'
p208
(dp209
S'NOUN'
p210
F1.0
s(lp211
g71
atp212
a(g73
(dp213
g73
F1.0
s(lp214
g73
atp215
asS'de'
p216
(lp217
(S'der'
p218
(dp219
S'PRON'
p220
F0.000734
sS'DET'
p221
F0.99911
s(lp222
g8
atp223
a(S'b\xc3\xbcrgerbeauftragte'
p224
(dp225
S'ADJ'
p226
F0.221166
sS'NOUN'
p227
F0.775319
s(lp228
g15
atp229
a(S'muss'
p230
(dp231
S'VERB'
p232
F1.0
s(lp233
g22
atp234
a(S'allerdings'
p235
(dp236
S'ADV'
p237
F1.0
s(lp238
g28
atp239
a(S'schneller'
p240
(dp241
S'ADJ'
p242
F1.0
s(lp243
g46
atp244
a(S'auf'
p245
(dp246
S'PRT'
p247
F0.001826
sS'ADP'
p248
F0.998161
s(lp249
g113
atp250
a(S'die'
p251
(dp252
S'PRON'
p253
F5.2e-05
sS'DET'
p254
F0.999921
s(lp255
g52
atp256
a(S'bed\xc3\xbcrfnisse'
p257
(dp258
S'ADJ'
p259
F9.5e-05
sS'NOUN'
p260
F0.999845
s(lp261
g58
atp262
a(S'der'
p263
(dp264
S'PRON'
p265
F0.000431
sS'DET'
p266
F0.999432
s(lp267
g65
atp268
a(S'b\xc3\xbcrgerinnen'
p269
(dp270
S'X'
p271
F0.178426
sS'NOUN'
p272
F0.502
s(lp273
g71
atp274
a(S'und'
p275
(dp276
S'CONJ'
p277
F1.0
s(lp278
tp279
a(S'b\xc3\xbcrger'
p280
(dp281
S'VERB'
p282
F1.0
s(lp283
g71
atp284
a(S'reagieren'
p285
(dp286
S'VERB'
p287
F1.0
s(lp288
g34
atp289
a(g73
(dp290
g73
F1.0
s(lp291
g73
atp292
asS'it'
p293
(lp294
(S'il'
p295
(dp296
S'DET'
p297
F1.0
s(lp298
g8
atp299
a(S'mediatore'
p300
(dp301
S'NOUN'
p302
F1.0
s(lp303
g15
atp304
a(g88
(dp305
g73
F1.0
s(lp306
g88
atp307
a(S'per\xc3\xb2'
p308
(dp309
S'ADV'
p310
F1.0
s(lp311
g28
atp312
a(g88
(dp313
g73
F1.0
s(lp314
g88
atp315
a(S'deve'
p316
(dp317
S'VERB'
p318
F1.0
s(lp319
g22
atp320
a(S'reagire'
p321
(dp322
S'VERB'
p323
F1.0
s(lp324
g34
atp325
a(S'pi\xc3\xb9'
p326
(dp327
S'ADV'
p328
F0.998729
sS'NOUN'
p329
F1.7e-05
sS'ADJ'
p330
F0.001087
sS'ADP'
p331
F0.000167
s(lp332
tp333
a(S'prontamente'
p334
(dp335
S'ADV'
p336
F1.0
s(lp337
g46
atp338
a(S'per'
p339
(dp340
S'CONJ'
p341
F0.003994
sS'ADP'
p342
F0.996006
s(lp343
g113
atp344
a(S'soddisfare'
p345
(dp346
S'VERB'
p347
F1.0
s(lp348
tp349
a(S'le'
p350
(dp351
S'PRON'
p352
F0.0
sS'DET'
p353
F1.0
s(lp354
g52
atp355
a(S'esigenze'
p356
(dp357
S'NOUN'
p358
F1.0
s(lp359
g58
atp360
a(S'dei'
p361
(dp362
S'NOUN'
p363
F7e-06
sS'DEF'
p364
F0.00133
sS'ADP'
p365
F0.998663
s(lp366
g65
atp367
a(S'cittadini'
p368
(dp369
S'ADJ'
p370
F0.1188
sS'NOUN'
p371
F0.8812
s(lp372
g71
atp373
a(g73
(dp374
g73
F1.0
s(lp375
g73
atp376
asS'sk'
p377
(lp378
(S'ombudsman'
p379
(dp380
S'NOUN'
p381
F1.0
s(lp382
g15
atp383
a(S'v\xc5\xa1ak'
p384
(dp385
g271
F0.6666789999999999
sS'CONJ'
p386
F0.333322
s(lp387
g28
atp388
a(S'mus\xc3\xad'
p389
(dp390
S'VERB'
p391
F1.0
s(lp392
g22
atp393
a(S'na'
p394
(dp395
g271
F0.000107
sS'CONJ'
p396
F5e-06
sS'ADP'
p397
F0.999885
sS'PRT'
p398
F3e-06
s(lp399
g113
atp400
a(S'potreby'
p401
(dp402
S'NOUN'
p403
F1.0
s(lp404
g58
atp405
a(S'ob\xc4\x8danov'
p406
(dp407
S'NOUN'
p408
F1.0
s(lp409
g71
atp410
a(S'reagova\xc5\xa5'
p411
(dp412
S'VERB'
p413
F1.0
s(lp414
g34
atp415
a(S'r\xc3\xbdchlej\xc5\xa1ie'
p416
(dp417
S'ADV'
p418
F0.931155
sS'ADJ'
p419
F0.068845
s(lp420
g46
atp421
a(g73
(dp422
g73
F1.0
s(lp423
g73
atp424
asS'pl'
p425
(lp426
(S'rzecznik'
p427
(dp428
S'NOUN'
p429
F1.0
s(lp430
g15
atp431
a(S'musi'
p432
(dp433
S'VERB'
p434
F1.0
s(lp435
g22
atp436
a(S'jeszcze'
p437
(dp438
S'PRT'
p439
F0.998728
sS'CONJ'
p440
F0.001272
s(lp441
tp442
a(S'jednak'
p443
(dp444
S'PRT'
p445
F0.307777
sS'CONJ'
p446
F0.692223
s(lp447
g28
atp448
a(S'reagowa\xc4\x87'
p449
(dp450
S'VERB'
p451
F1.0
s(lp452
g34
atp453
a(S'szybciej'
p454
(dp455
S'ADV'
p456
F1.0
s(lp457
g46
atp458
a(S'na'
p459
(dp460
g271
F9.7e-05
sS'VERB'
p461
F2.2e-05
sS'NOUN'
p462
F5e-06
sS'ADP'
p463
F0.999856
sS'PRT'
p464
F1.8e-05
s(lp465
g113
atp466
a(S'potrzeby'
p467
(dp468
S'NOUN'
p469
F1.0
s(lp470
g58
atp471
a(S'obywateli'
p472
(dp473
S'NOUN'
p474
F1.0
s(lp475
g71
atp476
a(g73
(dp477
g73
F1.0
s(lp478
g73
atp479
asS'sl'
p480
(lp481
(S'vendar'
p482
(dp483
S'ADV'
p484
F0.120781
sS'CONJ'
p485
F0.879219
s(lp486
tp487
a(S'pa'
p488
(dp489
g271
F0.00014
sS'CONJ'
p490
F0.99986
s(lp491
g28
atp492
a(S'se'
p493
(dp494
S'PRON'
p495
F0.999999
sg271
F1e-06
s(lp496
tp497
a(S'mora'
p498
(dp499
S'VERB'
p500
F0.999136
sS'NOUN'
p501
F0.000864
s(lp502
g22
atp503
a(S'varuh'
p504
(dp505
S'NOUN'
p506
F1.0
s(lp507
g15
atp508
a(S'\xc4\x8dlovekovih'
p509
(dp510
S'ADJ'
p511
F1.0
s(lp512
tp513
a(S'pravic'
p514
(dp515
S'NOUN'
p516
F1.0
s(lp517
g15
atp518
a(S'\xc5\xa1e'
p519
(dp520
S'PRT'
p521
F1.0
s(lp522
tp523
a(S'hitreje'
p524
(dp525
S'ADV'
p526
F1.0
s(lp527
g46
atp528
a(S'odzivati'
p529
(dp530
S'VERB'
p531
F1.0
s(lp532
g34
atp533
a(S'na'
p534
(dp535
S'ADP'
p536
F1.0
s(lp537
g113
atp538
a(S'potrebe'
p539
(dp540
S'NOUN'
p541
F1.0
s(lp542
g58
atp543
a(S'dr\xc5\xbeavljanov'
p544
(dp545
S'NOUN'
p546
F1.0
s(lp547
g71
atp548
a(g73
(dp549
g73
F1.0
s(lp550
g73
atp551
asS'es'
p552
(lp553
(S'no'
p554
(dp555
S'ADV'
p556
F1.0
s(lp557
tp558
a(S'obstante'
p559
(dp560
S'ADV'
p561
F1.0
s(lp562
g28
atp563
a(g88
(dp564
g73
F1.0
s(lp565
g88
atp566
a(S'el'
p567
(dp568
S'PRON'
p569
F1.2e-05
sS'DET'
p570
F0.999988
s(lp571
g8
atp572
a(S'defensor'
p573
(dp574
S'ADJ'
p575
F0.008158
sS'NOUN'
p576
F0.991842
s(lp577
g15
atp578
a(S'del'
p579
(dp580
S'ADP'
p581
F1.0
s(lp582
tp583
a(S'pueblo'
p584
(dp585
S'VERB'
p586
F0.0
sS'NOUN'
p587
F1.0
s(lp588
g15
atp589
a(S'debe'
p590
(dp591
S'VERB'
p592
F1.0
s(lp593
g22
atp594
a(S'reaccionar'
p595
(dp596
S'VERB'
p597
F1.0
s(lp598
g34
atp599
a(S'm\xc3\xa1s'
p600
(dp601
S'ADV'
p602
F0.999999
sS'CONJ'
p603
F1e-06
s(lp604
tp605
a(S'r\xc3\xa1pido'
p606
(dp607
S'ADJ'
p608
F1.0
s(lp609
g46
atp610
a(S'ante'
p611
(dp612
S'ADP'
p613
F1.0
s(lp614
g113
atp615
a(S'las'
p616
(dp617
S'PRON'
p618
F0.0
sS'DET'
p619
F1.0
s(lp620
g52
atp621
a(S'necesidades'
p622
(dp623
S'NOUN'
p624
F1.0
s(lp625
g58
atp626
a(S'de'
p627
(dp628
g271
F0.0
sS'CONJ'
p629
F1.7e-05
sS'ADP'
p630
F0.999983
s(lp631
g65
atp632
a(S'los'
p633
(dp634
S'PRON'
p635
F0.0
sS'DET'
p636
F1.0
s(lp637
tp638
a(S'ciudadanos'
p639
(dp640
S'NOUN'
p641
F1.0
s(lp642
g71
atp643
a(g73
(dp644
g73
F1.0
s(lp645
g73
atp646
as.