(dp0
S'fr'
p1
(lp2
(S"j'"
p3
(dp4
S'ADJ'
p5
F0.10952
sS'X'
p6
F0.13611
sS'VERB'
p7
F0.004198999999999999
sS'NOUN'
p8
F0.750172
s(lp9
S'i'
p10
atp11
a(S'ai'
p12
(dp13
S'VERB'
p14
F1.0
s(lp15
tp16
a(S'vot\xc3\xa9'
p17
(dp18
S'VERB'
p19
F1.0
s(lp20
S'voted'
p21
atp22
a(S'pour'
p23
(dp24
S'CONJ'
p25
F0.042114
sS'ADP'
p26
F0.957886
s(lp27
S'in'
p28
atp29
a(S'ce'
p30
(dp31
S'PRON'
p32
F1.0
s(lp33
S'this'
p34
atp35
a(S'rapport'
p36
(dp37
S'NOUN'
p38
F1.0
s(lp39
S'report'
p40
atp41
a(S'et'
p42
(dp43
S'CONJ'
p44
F1.0
s(lp45
S'and'
p46
atp47
a(S'aussi'
p48
(dp49
S'ADV'
p50
F0.995664
sS'CONJ'
p51
F0.004336
s(lp52
S'also'
p53
atp54
a(S'pour'
p55
(dp56
S'CONJ'
p57
F0.129528
sS'ADP'
p58
F0.870472
s(lp59
S'favour'
p60
atp61
a(S'les'
p62
(dp63
S'PRON'
p64
F5e-06
sS'DET'
p65
F0.999963
sS'ADP'
p66
F3.2e-05
s(lp67
S'the'
p68
atp69
a(S'deux'
p70
(dp71
S'NUM'
p72
F0.999934
sS'NOUN'
p73
F6.6e-05
s(lp74
S'two'
p75
atp76
a(S'rapports'
p77
(dp78
S'NOUN'
p79
F1.0
s(lp80
S'reports'
p81
atp82
a(S'suivants'
p83
(dp84
S'NOUN'
p85
F0.010118
sS'ADJ'
p86
F0.989882
s(lp87
S'following'
p88
atp89
a(S'concernant'
p90
(dp91
S'VERB'
p92
F0.688361
sS'ADP'
p93
F0.311639
s(lp94
S'concerning'
p95
atp96
a(S'la'
p97
(dp98
S'PRON'
p99
F4e-06
sS'DET'
p100
F0.999996
sS'NOUN'
p101
F0.0
s(lp102
S'the'
p103
atp104
a(S'mobilisation'
p105
(dp106
S'NOUN'
p107
F1.0
s(lp108
S'mobilisation'
p109
atp110
a(S'du'
p111
(dp112
S'ADP'
p113
F1.0
s(lp114
S'of'
p115
atp116
a(S'fonds'
p117
(dp118
S'VERB'
p119
F1e-06
sS'NOUN'
p120
F0.999998
s(lp121
S'fund'
p122
atp123
a(S'europ\xc3\xa9en'
p124
(dp125
S'NOUN'
p126
F0.00872
sS'ADJ'
p127
F0.99128
s(lp128
S'european'
p129
atp130
a(S"d'"
p131
(dp132
S'ADJ'
p133
F0.03179
sS'VERB'
p134
F0.375631
sS'NOUN'
p135
F0.59258
s(lp136
S'adjustment'
p137
atp138
a(S'ajustement'
p139
(dp140
S'NOUN'
p141
F1.0
s(lp142
tp143
a(S'\xc3\xa0'
p144
(dp145
S'ADP'
p146
F1.0
s(lp147
g137
atp148
a(S'la'
p149
(dp150
S'PRON'
p151
F1.2e-05
sS'DET'
p152
F0.999988
sS'NOUN'
p153
F0.0
s(lp154
tp155
a(S'mondialisation'
p156
(dp157
S'NOUN'
p158
F1.0
s(lp159
S'globalisation'
p160
atp161
a(S'.'
p162
(dp163
g162
F1.0
s(lp164
g162
atp165
asS'en'
p166
(lp167
(g10
(dp168
g6
F0.006032
sS'NOUN'
p169
F0.9939680000000001
s(lp170
g10
atp171
a(g21
(dp172
S'VERB'
p173
F1.0
s(lp174
g21
atp175
a(g28
(dp176
S'ADV'
p177
F0.001642
sS'PRT'
p178
F0.007631
sS'ADP'
p179
F0.990727
s(lp180
g28
atp181
a(g60
(dp182
S'VERB'
p183
F0.002253
sS'NOUN'
p184
F0.997747
s(lp185
g60
atp186
a(S'of'
p187
(dp188
S'ADP'
p189
F1.0
s(lp190
g187
atp191
a(g34
(dp192
S'ADV'
p193
F4e-06
sS'NOUN'
p194
F1.9e-05
sS'DET'
p195
F0.999977
s(lp196
g34
atp197
a(g40
(dp198
S'VERB'
p199
F0.000639
sS'NOUN'
p200
F0.999361
s(lp201
g40
atp202
a(g46
(dp203
S'CONJ'
p204
F1.0
sS'NOUN'
p205
F0.0
s(lp206
g46
atp207
a(g53
(dp208
S'ADV'
p209
F1.0
s(lp210
g53
atp211
a(g68
(dp212
S'NOUN'
p213
F3.6e-05
sS'DET'
p214
F0.999964
s(lp215
g68
atp216
a(g75
(dp217
S'NUM'
p218
F0.999449
sS'NOUN'
p219
F0.000551
s(lp220
g75
atp221
a(g88
(dp222
S'VERB'
p223
F0.237505
sS'NOUN'
p224
F0.762495
s(lp225
g88
atp226
a(g81
(dp227
S'VERB'
p228
F0.030744
sS'NOUN'
p229
F0.969256
s(lp230
g81
atp231
a(g95
(dp232
S'VERB'
p233
F0.991955
sS'ADJ'
p234
F5e-06
sS'ADP'
p235
F0.00804
s(lp236
g95
atp237
a(g103
(dp238
S'NOUN'
p239
F1e-06
sS'DET'
p240
F0.999999
s(lp241
g103
atp242
a(g109
(dp243
S'NOUN'
p244
F1.0
s(lp245
g109
atp246
a(g115
(dp247
S'ADP'
p248
F1.0
s(lp249
g115
atp250
a(S'the'
p251
(dp252
S'NOUN'
p253
F1e-06
sS'DET'
p254
F0.999999
s(lp255
g251
atp256
a(g129
(dp257
S'NOUN'
p258
F0.108042
sS'VERB'
p259
F1.2e-05
sS'ADJ'
p260
F0.891946
s(lp261
g129
atp262
a(g160
(dp263
S'ADJ'
p264
F0.013432
sS'NOUN'
p265
F0.986569
s(lp266
g160
atp267
a(g137
(dp268
S'NOUN'
p269
F1.0
s(lp270
g137
atp271
a(g122
(dp272
S'VERB'
p273
F0.0031999999999999997
sS'NOUN'
p274
F0.9968
s(lp275
g122
atp276
a(g162
(dp277
g162
F1.0
s(lp278
g162
atp279
asS'nl'
p280
(lp281
(S'schriftelijk'
p282
(dp283
S'ADJ'
p284
F1.0
s(lp285
g21
atp286
a(g162
(dp287
g162
F1.0
s(lp288
g21
atp289
a(S'-'
p290
(dp291
g162
F1.0
s(lp292
g21
atp293
a(S'('
p294
(dp295
g162
F1.0
s(lp296
g21
atp297
a(S'et'
p298
(dp299
S'ADJ'
p300
F0.06221
sS'NOUN'
p301
F0.93779
s(lp302
g21
atp303
a(S')'
p304
(dp305
g162
F1.0
s(lp306
g21
atp307
a(S'ik'
p308
(dp309
S'PRON'
p310
F0.999917
sS'NOUN'
p311
F8.3e-05
s(lp312
g10
atp313
a(S'heb'
p314
(dp315
S'VERB'
p316
F1.0
s(lp317
tp318
a(S'voor'
p319
(dp320
S'ADV'
p321
F0.013734
sS'CONJ'
p322
F2.1e-05
sS'NOUN'
p323
F0.0
sS'ADP'
p324
F0.986245
s(lp325
g60
atp326
a(S'het'
p327
(dp328
S'PRON'
p329
F0.005882
sS'DET'
p330
F0.994118
s(lp331
g34
atp332
a(S'onderhavige'
p333
(dp334
S'NOUN'
p335
F0.000386
sS'ADJ'
p336
F0.999614
s(lp337
tp338
a(S'verslag'
p339
(dp340
S'NOUN'
p341
F1.0
s(lp342
g40
atp343
a(S'gestemd'
p344
(dp345
S'VERB'
p346
F0.942326
sS'ADJ'
p347
F0.057674
s(lp348
g21
atp349
a(S'en'
p350
(dp351
S'CONJ'
p352
F1.0
s(lp353
g46
atp354
a(S'ook'
p355
(dp356
S'ADV'
p357
F1.0
s(lp358
g53
atp359
a(S'voor'
p360
(dp361
S'ADV'
p362
F0.007758
sS'CONJ'
p363
F2.2e-05
sS'NOUN'
p364
F0.0
sS'ADP'
p365
F0.992219
s(lp366
g28
atp367
a(S'de'
p368
(dp369
S'DET'
p370
F1.0
s(lp371
g68
atp372
a(S'twee'
p373
(dp374
S'NUM'
p375
F1.0
s(lp376
g75
atp377
a(S'volgende'
p378
(dp379
S'NOUN'
p380
F0.000162
sS'VERB'
p381
F0.000198
sS'ADJ'
p382
F0.99964
s(lp383
g88
atp384
a(S'verslagen'
p385
(dp386
S'ADJ'
p387
F3.9e-05
sS'VERB'
p388
F0.00199
sS'NOUN'
p389
F0.997971
s(lp390
g81
atp391
a(S'over'
p392
(dp393
S'ADV'
p394
F0.017614
sS'ADP'
p395
F0.982386
s(lp396
g95
atp397
a(S'de'
p398
(dp399
S'DET'
p400
F1.0
s(lp401
g103
atp402
a(S'beschikbaarstelling'
p403
(dp404
S'NOUN'
p405
F1.0
s(lp406
g109
atp407
a(S'van'
p408
(dp409
S'ADP'
p410
F1.0
s(lp411
tp412
a(S'middelen'
p413
(dp414
S'NOUN'
p415
F1.0
s(lp416
tp417
a(S'uit'
p418
(dp419
S'ADV'
p420
F0.064834
sS'VERB'
p421
F2.6e-05
sS'ADP'
p422
F0.93514
s(lp423
g109
atp424
a(S'het'
p425
(dp426
S'PRON'
p427
F0.005871
sS'DET'
p428
F0.994129
s(lp429
g251
atp430
a(S'europees'
p431
(dp432
S'NOUN'
p433
F0.04793
sS'ADJ'
p434
F0.95207
s(lp435
g129
atp436
a(S'fonds'
p437
(dp438
S'NOUN'
p439
F1.0
s(lp440
g122
atp441
a(S'voor'
p442
(dp443
S'ADV'
p444
F0.001032
sS'CONJ'
p445
F1e-06
sS'NOUN'
p446
F0.0
sS'ADP'
p447
F0.998967
s(lp448
g137
atp449
a(S'aanpassing'
p450
(dp451
S'NOUN'
p452
F1.0
s(lp453
tp454
a(S'aan'
p455
(dp456
S'ADV'
p457
F0.007796
sS'ADP'
p458
F0.992204
s(lp459
g137
atp460
a(S'de'
p461
(dp462
S'DET'
p463
F1.0
s(lp464
tp465
a(S'globalisering'
p466
(dp467
S'NOUN'
p468
F1.0
s(lp469
g160
atp470
a(g162
(dp471
g162
F1.0
s(lp472
g162
atp473
asS'de'
p474
(lp475
(S'ich'
p476
(dp477
S'PRON'
p478
F1.0
s(lp479
g10
atp480
a(S'habe'
p481
(dp482
S'VERB'
p483
F1.0
s(lp484
tp485
a(S'f\xc3\xbcr'
p486
(dp487
S'ADP'
p488
F1.0
s(lp489
g60
atp490
a(S'diesen'
p491
(dp492
S'PRON'
p493
F1.0
s(lp494
g34
atp495
a(S'bericht'
p496
(dp497
S'ADJ'
p498
F0.000894
sS'NOUN'
p499
F0.998409
s(lp500
g40
atp501
a(S'sowie'
p502
(dp503
S'CONJ'
p504
F1.0
s(lp505
g46
atp506
a(S'f\xc3\xbcr'
p507
(dp508
S'ADP'
p509
F1.0
s(lp510
g53
atp511
a(S'die'
p512
(dp513
S'PRON'
p514
F0.000355
sS'DET'
p515
F0.999317
s(lp516
g68
atp517
a(S'beiden'
p518
(dp519
S'PRON'
p520
F1.0
s(lp521
g75
atp522
a(S'folgenden'
p523
(dp524
S'ADJ'
p525
F1.0
s(lp526
g88
atp527
a(S'berichte'
p528
(dp529
S'VERB'
p530
F1.0
s(lp531
g81
atp532
a(S'gestimmt'
p533
(dp534
S'VERB'
p535
F1.0
s(lp536
g21
atp537
a(S','
p538
(dp539
g162
F1.0
s(lp540
tp541
a(S'welche'
p542
(dp543
S'PRON'
p544
F0.9663889999999999
s(lp545
tp546
a(S'die'
p547
(dp548
S'PRON'
p549
F0.000522
sS'DET'
p550
F0.999144
s(lp551
g251
atp552
a(S'inanspruchnahme'
p553
(dp554
S'ADJ'
p555
F9.3e-05
sS'NOUN'
p556
F0.999818
s(lp557
g109
atp558
a(S'des'
p559
(dp560
S'DET'
p561
F1.0
s(lp562
g115
atp563
a(S'europ\xc3\xa4ischen'
p564
(dp565
S'ADJ'
p566
F1.0
s(lp567
g129
atp568
a(S'fonds'
p569
(dp570
S'ADJ'
p571
F0.003469
sS'NOUN'
p572
F0.996531
s(lp573
g122
atp574
a(S'f\xc3\xbcr'
p575
(dp576
S'ADP'
p577
F1.0
s(lp578
g137
atp579
a(S'die'
p580
(dp581
S'PRON'
p582
F5.1e-05
sS'DET'
p583
F0.999934
s(lp584
g103
atp585
a(S'anpassung'
p586
(dp587
S'ADJ'
p588
F0.000131
sS'NOUN'
p589
F0.999759
s(lp590
tp591
a(S'an'
p592
(dp593
S'ADP'
p594
F0.996343
s(lp595
g137
atp596
a(S'die'
p597
(dp598
S'PRON'
p599
F0.000201
sS'DET'
p600
F0.999638
s(lp601
tp602
a(S'globalisierung'
p603
(dp604
S'ADJ'
p605
F0.01964
sS'NOUN'
p606
F0.962659
s(lp607
g160
atp608
a(S'betreffen'
p609
(dp610
S'VERB'
p611
F1.0
s(lp612
g95
atp613
a(g162
(dp614
g162
F1.0
s(lp615
g162
atp616
asS'it'
p617
(lp618
(S'ho'
p619
(dp620
S'VERB'
p621
F1.0
s(lp622
g10
atp623
a(S'votato'
p624
(dp625
S'VERB'
p626
F0.990109
sS'ADJ'
p627
F0.009891
s(lp628
g21
atp629
a(S'a'
p630
(dp631
S'CONJ'
p632
F7.6e-05
sS'ADP'
p633
F0.999924
s(lp634
g28
atp635
a(S'favore'
p636
(dp637
S'NOUN'
p638
F1.0
s(lp639
g60
atp640
a(S'della'
p641
(dp642
S'DEF'
p643
F0.001587
sS'ADP'
p644
F0.998413
s(lp645
g187
atp646
a(S'relazione'
p647
(dp648
S'NOUN'
p649
F1.0
s(lp650
g40
atp651
a(g538
(dp652
g162
F1.0
s(lp653
tp654
a(S'come'
p655
(dp656
S'PRON'
p657
F0.007146
sS'CONJ'
p658
F0.91394
sS'NOUN'
p659
F0.00012
sS'ADP'
p660
F0.078794
s(lp661
g46
atp662
a(S'pure'
p663
(dp664
S'ADV'
p665
F0.961373
sS'NOUN'
p666
F0.012769
sS'ADJ'
p667
F0.025859
s(lp668
g53
atp669
a(S'delle'
p670
(dp671
S'DEF'
p672
F0.039532
sS'ADP'
p673
F0.960468
s(lp674
g68
atp675
a(S'due'
p676
(dp677
S'NUM'
p678
F0.014191
sS'ADJ'
p679
F0.985809
s(lp680
g75
atp681
a(S'relazioni'
p682
(dp683
S'VERB'
p684
F0.009037
sS'NOUN'
p685
F0.990963
s(lp686
g81
atp687
a(S'successive'
p688
(dp689
S'ADJ'
p690
F1.0
s(lp691
g88
atp692
a(S'riguardanti'
p693
(dp694
S'VERB'
p695
F1.0
s(lp696
g95
atp697
a(S'la'
p698
(dp699
S'PRON'
p700
F3.4e-05
sS'DET'
p701
F0.999966
s(lp702
g103
atp703
a(S'mobilitazione'
p704
(dp705
S'NOUN'
p706
F1.0
s(lp707
g109
atp708
a(S'del'
p709
(dp710
S'DEF'
p711
F0.001248
sS'ADP'
p712
F0.998752
s(lp713
g115
atp714
a(S'fondo'
p715
(dp716
S'VERB'
p717
F0.000105
sS'NOUN'
p718
F0.999895
s(lp719
g122
atp720
a(S'europeo'
p721
(dp722
S'NOUN'
p723
F0.002719
sS'ADJ'
p724
F0.997281
s(lp725
g129
atp726
a(S'di'
p727
(dp728
S'CONJ'
p729
F4e-06
sS'ADP'
p730
F0.999996
s(lp731
g137
atp732
a(S'adeguamento'
p733
(dp734
S'NOUN'
p735
F1.0
s(lp736
tp737
a(S'alla'
p738
(dp739
S'ADP'
p740
F1.0
s(lp741
g137
atp742
a(S'globalizzazione'
p743
(dp744
S'NOUN'
p745
F1.0
s(lp746
g160
atp747
a(g162
(dp748
g162
F1.0
s(lp749
g162
atp750
asS'sk'
p751
(lp752
(S'hlasovala'
p753
(dp754
S'VERB'
p755
F1.0
s(lp756
tp757
a(S'som'
p758
(dp759
S'VERB'
p760
F1.0
s(lp761
g21
atp762
a(S'za'
p763
(dp764
S'PRT'
p765
F0.001906
sS'ADP'
p766
F0.998063
sg6
F3.1e-05
s(lp767
g60
atp768
a(S't\xc3\xbato'
p769
(dp770
S'PRON'
p771
F1.0
s(lp772
g34
atp773
a(S'spr\xc3\xa1vu'
p774
(dp775
S'NOUN'
p776
F1.0
s(lp777
g40
atp778
a(g630
(dp779
g6
F0.001292
sS'CONJ'
p780
F0.998534
sS'NOUN'
p781
F4e-05
sS'ADP'
p782
F7e-06
sS'PRT'
p783
F0.000127
s(lp784
g46
atp785
a(S'tie\xc5\xbe'
p786
(dp787
g6
F1.0
s(lp788
g53
atp789
a(S'za'
p790
(dp791
g6
F9e-06
sS'ADP'
p792
F0.999988
sS'PRT'
p793
F3e-06
s(lp794
g68
atp795
a(S'dve'
p796
(dp797
S'NUM'
p798
F1.0
s(lp799
g75
atp800
a(S'nasleduj\xc3\xbace'
p801
(dp802
S'VERB'
p803
F1.0
s(lp804
g88
atp805
a(S'spr\xc3\xa1vy'
p806
(dp807
S'NOUN'
p808
F1.0
s(lp809
g81
atp810
a(S'o'
p811
(dp812
g6
F0.000235
sS'CONJ'
p813
F5.9e-05
sS'NOUN'
p814
F7e-06
sS'ADP'
p815
F0.999697
s(lp816
g95
atp817
a(S'mobiliz\xc3\xa1cii'
p818
(dp819
S'NOUN'
p820
F1.0
s(lp821
g109
atp822
a(S'eur\xc3\xb3pskeho'
p823
(dp824
S'ADJ'
p825
F1.0
s(lp826
g129
atp827
a(S'fondu'
p828
(dp829
S'NOUN'
p830
F1.0
s(lp831
g160
atp832
a(S'na'
p833
(dp834
g6
F0.000156
sS'CONJ'
p835
F1.5e-05
sS'ADP'
p836
F0.999826
sS'PRT'
p837
F3e-06
s(lp838
g137
atp839
a(S'prisp\xc3\xb4sobenie'
p840
(dp841
S'NOUN'
p842
F1.0
s(lp843
g137
atp844
a(S'sa'
p845
(dp846
S'PRT'
p847
F0.995032
sS'ADP'
p848
F0.003554
sg6
F0.0014140000000000001
s(lp849
tp850
a(S'globaliz\xc3\xa1cii'
p851
(dp852
S'NOUN'
p853
F1.0
s(lp854
g137
atp855
a(g162
(dp856
g162
F1.0
s(lp857
g162
atp858
asS'pl'
p859
(lp860
(S'g\xc5\x82osowa\xc5\x82am'
p861
(dp862
S'ADV'
p863
F0.000422
sS'ADJ'
p864
F0.0009400000000000002
sS'VERB'
p865
F0.9788519999999999
sS'NOUN'
p866
F0.019786
s(lp867
g21
atp868
a(S'za'
p869
(dp870
S'PRT'
p871
F0.001022
sS'VERB'
p872
F2.1000000000000002e-05
sS'NOUN'
p873
F1e-05
sS'ADP'
p874
F0.998946
sg6
F0.0
s(lp875
tp876
a(S'przyj\xc4\x99ciem'
p877
(dp878
S'VERB'
p879
F0.984175
sS'NOUN'
p880
F0.015825
s(lp881
g60
atp882
a(S'sprawozdania'
p883
(dp884
S'NOUN'
p885
F1.0
s(lp886
g40
atp887
a(S'oraz'
p888
(dp889
S'CONJ'
p890
F1.0
s(lp891
g46
atp892
a(S'dw\xc3\xb3ch'
p893
(dp894
S'NUM'
p895
F1.0000000000000002
s(lp896
g75
atp897
a(S'kolejnych'
p898
(dp899
S'ADJ'
p900
F1.0
s(lp901
g88
atp902
a(S'sprawozda\xc5\x84'
p903
(dp904
S'NOUN'
p905
F1.0
s(lp906
g81
atp907
a(S'dotycz\xc4\x85cych'
p908
(dp909
S'VERB'
p910
F1.0
s(lp911
g95
atp912
a(S'uruchomienia'
p913
(dp914
S'VERB'
p915
F1.0
s(lp916
tp917
a(S'\xc5\x9brodk\xc3\xb3w'
p918
(dp919
S'NOUN'
p920
F1.0
s(lp921
g109
atp922
a(S'z'
p923
(dp924
S'PRT'
p925
F4e-06
sS'VERB'
p926
F8e-06
sS'NOUN'
p927
F2e-06
sS'ADP'
p928
F0.999984
sg6
F2e-06
s(lp929
g115
atp930
a(S'europejskiego'
p931
(dp932
S'ADJ'
p933
F1.0
s(lp934
g129
atp935
a(S'funduszu'
p936
(dp937
S'NOUN'
p938
F1.0
s(lp939
g122
atp940
a(S'dostosowania'
p941
(dp942
S'VERB'
p943
F1.0
s(lp944
tp945
a(S'do'
p946
(dp947
g6
F1e-06
sS'NOUN'
p948
F2e-06
sS'ADP'
p949
F0.999997
s(lp950
g137
atp951
a(S'globalizacji'
p952
(dp953
S'ADV'
p954
F0.000282
sS'ADJ'
p955
F0.011185999999999998
sS'VERB'
p956
F0.018034999999999995
sS'NOUN'
p957
F0.970497
s(lp958
g160
atp959
a(g162
(dp960
g162
F1.0
s(lp961
g162
atp962
asS'sl'
p963
(lp964
(S'glasovala'
p965
(dp966
S'VERB'
p967
F1.0
s(lp968
tp969
a(S'sem'
p970
(dp971
S'ADV'
p972
F0.056128
sS'PRT'
p973
F0.007667
sS'VERB'
p974
F0.936205
s(lp975
g21
atp976
a(S'za'
p977
(dp978
S'ADV'
p979
F0.000499
sg6
F6e-06
sS'ADP'
p980
F0.9994949999999999
s(lp981
g60
atp982
a(S'to'
p983
(dp984
S'PRON'
p985
F0.999993
sg6
F7e-06
s(lp986
g34
atp987
a(S'poro\xc4\x8dilo'
p988
(dp989
S'NOUN'
p990
F1.0
s(lp991
g40
atp992
a(S'in'
p993
(dp994
S'ADV'
p995
F6.5e-05
sg6
F2e-06
sS'CONJ'
p996
F0.999927
sS'NOUN'
p997
F6e-06
s(lp998
g46
atp999
a(S'tudi'
p1000
(dp1001
S'PRT'
p1002
F1.0
s(lp1003
g53
atp1004
a(S'za'
p1005
(dp1006
S'ADV'
p1007
F1.2e-05
sg6
F0.0
sS'ADP'
p1008
F0.999988
s(lp1009
g68
atp1010
a(S'naslednji'
p1011
(dp1012
S'ADJ'
p1013
F0.9999990000000001
s(lp1014
g88
atp1015
a(S'dve'
p1016
(dp1017
S'NUM'
p1018
F0.999999
s(lp1019
g75
atp1020
a(S'poro\xc4\x8dili'
p1021
(dp1022
S'VERB'
p1023
F1.0
s(lp1024
g81
atp1025
a(g811
(dp1026
S'NOUN'
p1027
F1.1e-05
sS'ADP'
p1028
F0.999989
s(lp1029
g95
atp1030
a(S'uporabi'
p1031
(dp1032
S'VERB'
p1033
F4.1e-05
sS'NOUN'
p1034
F0.9999600000000001
s(lp1035
tp1036
a(S'sredstev'
p1037
(dp1038
S'NOUN'
p1039
F1.0
s(lp1040
g109
atp1041
a(S'evropskega'
p1042
(dp1043
S'ADJ'
p1044
F1.0
s(lp1045
g129
atp1046
a(S'sklada'
p1047
(dp1048
S'VERB'
p1049
F0.00053
sS'NOUN'
p1050
F0.99947
s(lp1051
g160
atp1052
a(S'za'
p1053
(dp1054
S'ADV'
p1055
F2.3e-05
sg6
F3e-06
sS'ADP'
p1056
F0.9999750000000001
s(lp1057
g137
atp1058
a(S'prilagoditev'
p1059
(dp1060
S'ADJ'
p1061
F1e-06
sS'NOUN'
p1062
F0.9999979999999999
s(lp1063
tp1064
a(S'globalizaciji'
p1065
(dp1066
S'NOUN'
p1067
F1.0
s(lp1068
g137
atp1069
a(g162
(dp1070
g162
F1.0
s(lp1071
g162
atp1072
asS'es'
p1073
(lp1074
(S'he'
p1075
(dp1076
S'VERB'
p1077
F1.0
s(lp1078
g10
atp1079
a(S'votado'
p1080
(dp1081
S'VERB'
p1082
F1.0
s(lp1083
g21
atp1084
a(g630
(dp1085
g6
F3.9e-05
sS'CONJ'
p1086
F9.6e-05
sS'ADP'
p1087
F0.999865
s(lp1088
g28
atp1089
a(S'favor'
p1090
(dp1091
S'NOUN'
p1092
F1.0
s(lp1093
g60
atp1094
a(S'de'
p1095
(dp1096
g6
F0.0
sS'CONJ'
p1097
F2.5e-05
sS'ADP'
p1098
F0.999975
s(lp1099
g187
atp1100
a(S'este'
p1101
(dp1102
S'PRON'
p1103
F0.999823
sS'NOUN'
p1104
F0.000177
s(lp1105
g34
atp1106
a(S'informe'
p1107
(dp1108
S'VERB'
p1109
F0.002666
sS'NOUN'
p1110
F0.997334
s(lp1111
g40
atp1112
a(S'y'
p1113
(dp1114
g6
F2e-05
sS'CONJ'
p1115
F0.99998
s(lp1116
g46
atp1117
a(S'tambi\xc3\xa9n'
p1118
(dp1119
S'ADV'
p1120
F1.0
s(lp1121
g53
atp1122
a(S'de'
p1123
(dp1124
g6
F0.0
sS'CONJ'
p1125
F0.000119
sS'ADP'
p1126
F0.999881
s(lp1127
tp1128
a(S'los'
p1129
(dp1130
S'PRON'
p1131
F0.0
sS'DET'
p1132
F1.0
s(lp1133
g68
atp1134
a(S'dos'
p1135
(dp1136
S'NUM'
p1137
F0.080165
sS'NOUN'
p1138
F0.919835
s(lp1139
g75
atp1140
a(S'siguientes'
p1141
(dp1142
S'ADJ'
p1143
F1.0
s(lp1144
g88
atp1145
a(g538
(dp1146
g162
F1.0
s(lp1147
tp1148
a(S'referidos'
p1149
(dp1150
S'VERB'
p1151
F1.0
s(lp1152
g81
atp1153
a(g630
(dp1154
g6
F1.5e-05
sS'CONJ'
p1155
F4e-06
sS'ADP'
p1156
F0.999981
s(lp1157
g95
atp1158
a(S'la'
p1159
(dp1160
S'NOUN'
p1161
F0.0
sS'PRON'
p1162
F0.0
sS'DET'
p1163
F0.999999
sg6
F0.0
s(lp1164
g103
atp1165
a(S'movilizaci\xc3\xb3n'
p1166
(dp1167
S'NOUN'
p1168
F1.0
s(lp1169
g109
atp1170
a(S'del'
p1171
(dp1172
S'ADP'
p1173
F1.0
s(lp1174
g115
atp1175
a(S'fondo'
p1176
(dp1177
S'NOUN'
p1178
F1.0
s(lp1179
tp1180
a(S'europeo'
p1181
(dp1182
S'NOUN'
p1183
F0.005454
sS'ADJ'
p1184
F0.994546
s(lp1185
g129
atp1186
a(S'de'
p1187
(dp1188
g6
F3.1e-05
sS'CONJ'
p1189
F0.001479
sS'ADP'
p1190
F0.99849
s(lp1191
g122
atp1192
a(S'adaptaci\xc3\xb3n'
p1193
(dp1194
S'NOUN'
p1195
F1.0
s(lp1196
tp1197
a(g630
(dp1198
g6
F0.000427
sS'CONJ'
p1199
F3e-06
sS'ADP'
p1200
F0.99957
s(lp1201
g137
atp1202
a(S'la'
p1203
(dp1204
g6
F0.0
sS'PRON'
p1205
F0.0
sS'DET'
p1206
F0.999999
sS'NOUN'
p1207
F0.0
s(lp1208
tp1209
a(S'globalizaci\xc3\xb3n'
p1210
(dp1211
S'NOUN'
p1212
F1.0
s(lp1213
g160
atp1214
a(g162
(dp1215
g162
F1.0
s(lp1216
g162
atp1217
as.