(dp0
S'fr'
p1
(lp2
(S'la'
p3
(dp4
S'PRON'
p5
F8.2e-05
sS'DET'
p6
F0.999918
sS'NOUN'
p7
F0.0
s(lp8
S'the'
p9
atp10
a(S'crise'
p11
(dp12
S'NOUN'
p13
F1.0
s(lp14
S'crisis'
p15
atp16
a(S'\xc3\xa9conomique'
p17
(dp18
S'NOUN'
p19
F0.002475
sS'ADJ'
p20
F0.997525
s(lp21
S'economic'
p22
atp23
a(S'et'
p24
(dp25
S'CONJ'
p26
F1.0
s(lp27
S'and'
p28
atp29
a(S'ses'
p30
(dp31
S'PRON'
p32
F1.0
s(lp33
S'its'
p34
atp35
a(S'r\xc3\xa9percussions'
p36
(dp37
S'NOUN'
p38
F1.0
s(lp39
S'repercussions'
p40
atp41
a(S'nous'
p42
(dp43
S'PRON'
p44
F1.0
s(lp45
S'us'
p46
atp47
a(S'ont'
p48
(dp49
S'VERB'
p50
F1.0
s(lp51
S'have'
p52
atp53
a(S'montr\xc3\xa9'
p54
(dp55
S'VERB'
p56
F1.0
s(lp57
S'shown'
p58
atp59
a(S'que'
p60
(dp61
S'ADV'
p62
F0.098051
sS'PRON'
p63
F0.024335
sS'CONJ'
p64
F0.877614
s(lp65
S'that'
p66
atp67
a(S"l'"
p68
(dp69
S'NOUN'
p70
F0.04837
sS'VERB'
p71
F0.8803099999999998
sS'ADJ'
p72
F0.07132
s(lp73
S'the'
p74
atp75
a(S'avenir'
p76
(dp77
S'NOUN'
p78
F1.0
s(lp79
S'future'
p80
atp81
a(S'de'
p82
(dp83
S'ADP'
p84
F1.0
s(lp85
S"'s"
p86
atp87
a(S"l'"
p88
(dp89
S'ADJ'
p90
F0.160704
sS'VERB'
p91
F0.06480800000000002
sS'NOUN'
p92
F0.774488
s(lp93
tp94
a(S'ue'
p95
(dp96
S'VERB'
p97
F0.000601
sS'NOUN'
p98
F0.999399
s(lp99
S'eu'
p100
atp101
a(S'doit'
p102
(dp103
S'VERB'
p104
F0.998739
sS'NOUN'
p105
F0.001261
s(lp106
S'needs'
p107
atp108
a(S"s'"
p109
(dp110
S'NOUN'
p111
F0.087816
sS'VERB'
p112
F0.799435
sS'ADJ'
p113
F0.112749
s(lp114
S'be'
p115
atp116
a(S'appuyer'
p117
(dp118
S'VERB'
p119
F0.799764
sS'NOUN'
p120
F0.200236
s(lp121
S'built'
p122
atp123
a(S'sur'
p124
(dp125
S'ADP'
p126
F1.0
s(lp127
S'on'
p128
atp129
a(S'des'
p130
(dp131
S'DET'
p132
F0.00067
sS'ADP'
p133
F0.99933
s(lp134
tp135
a(S'solutions'
p136
(dp137
S'NOUN'
p138
F1.0
s(lp139
S'solutions'
p140
atp141
a(S'europ\xc3\xa9ennes'
p142
(dp143
S'NOUN'
p144
F0.009822
sS'ADJ'
p145
F0.990178
s(lp146
S'european'
p147
atp148
a(S'plut\xc3\xb4t'
p149
(dp150
S'ADV'
p151
F1.0
s(lp152
S'rather'
p153
atp154
a(S'que'
p155
(dp156
S'ADV'
p157
F0.310444
sS'PRON'
p158
F0.011625
sS'CONJ'
p159
F0.677931
s(lp160
S'than'
p161
atp162
a(S'nationales'
p163
(dp164
S'NOUN'
p165
F0.068007
sS'ADJ'
p166
F0.931993
s(lp167
S'domestic'
p168
atp169
a(S'.'
p170
(dp171
g170
F1.0
s(lp172
g170
atp173
asS'en'
p174
(lp175
(g9
(dp176
S'NOUN'
p177
F2e-06
sS'DET'
p178
F0.999998
s(lp179
g9
atp180
a(g22
(dp181
S'ADJ'
p182
F1.0
s(lp183
g22
atp184
a(g15
(dp185
S'NOUN'
p186
F1.0
s(lp187
g15
atp188
a(g28
(dp189
S'CONJ'
p190
F1.0
sS'NOUN'
p191
F0.0
s(lp192
g28
atp193
a(g34
(dp194
S'PRON'
p195
F1.0
s(lp196
g34
atp197
a(g40
(dp198
S'NOUN'
p199
F1.0
s(lp200
g40
atp201
a(g52
(dp202
S'VERB'
p203
F1.0
s(lp204
g52
atp205
a(g58
(dp206
S'VERB'
p207
F1.0
s(lp208
g58
atp209
a(g46
(dp210
S'PRON'
p211
F1.0
s(lp212
g46
atp213
a(g66
(dp214
S'ADV'
p215
F0.008566
sS'DET'
p216
F0.120323
sS'ADP'
p217
F0.871111
s(lp218
g66
atp219
a(g74
(dp220
S'NOUN'
p221
F8.9e-05
sS'DET'
p222
F0.999911
s(lp223
g74
atp224
a(g100
(dp225
S'ADV'
p226
F0.0
sS'ADJ'
p227
F1.3e-05
sS'VERB'
p228
F4e-06
sS'NOUN'
p229
F0.999983
s(lp230
g100
atp231
a(g86
(dp232
S'PRT'
p233
F0.990958
sg170
F0.009042
s(lp234
g86
atp235
a(g80
(dp236
S'ADJ'
p237
F0.283456
sS'NOUN'
p238
F0.716544
s(lp239
g80
atp240
a(g107
(dp241
S'ADV'
p242
F0.000451
sS'VERB'
p243
F0.518917
sS'NOUN'
p244
F0.480632
s(lp245
g107
atp246
a(S'to'
p247
(dp248
S'ADV'
p249
F0.0
sS'PRT'
p250
F1.0
sS'ADP'
p251
F0.0
s(lp252
g247
atp253
a(g115
(dp254
S'VERB'
p255
F1.0
s(lp256
g115
atp257
a(g122
(dp258
S'VERB'
p259
F1.0
s(lp260
g122
atp261
a(g128
(dp262
S'ADV'
p263
F0.001882
sS'PRT'
p264
F0.005851
sS'ADJ'
p265
F6e-06
sS'ADP'
p266
F0.99226
sS'NOUN'
p267
F1e-06
s(lp268
g128
atp269
a(g147
(dp270
S'ADJ'
p271
F0.483455
sS'VERB'
p272
F0.000463
sS'NOUN'
p273
F0.516082
s(lp274
g147
atp275
a(g153
(dp276
S'ADV'
p277
F0.994597
sS'ADJ'
p278
F0.005403
s(lp279
g153
atp280
a(g161
(dp281
S'ADP'
p282
F1.0
s(lp283
g161
atp284
a(g168
(dp285
S'NOUN'
p286
F0.00194
sS'ADJ'
p287
F0.99806
s(lp288
g168
atp289
a(g140
(dp290
S'NOUN'
p291
F1.0
s(lp292
g140
atp293
a(g170
(dp294
g170
F1.0
s(lp295
g170
atp296
asS'nl'
p297
(lp298
(S'de'
p299
(dp300
S'DET'
p301
F1.0
s(lp302
g9
atp303
a(S'economische'
p304
(dp305
S'NOUN'
p306
F3.9e-05
sS'ADJ'
p307
F0.999961
s(lp308
g22
atp309
a(S'crisis'
p310
(dp311
S'NOUN'
p312
F1.0
s(lp313
g15
atp314
a(S'en'
p315
(dp316
S'CONJ'
p317
F1.0
s(lp318
g28
atp319
a(S'de'
p320
(dp321
S'DET'
p322
F1.0
s(lp323
g34
atp324
a(S'gevolgen'
p325
(dp326
S'NOUN'
p327
F1.0
s(lp328
tp329
a(S'daarvan'
p330
(dp331
S'ADV'
p332
F1.0
s(lp333
g40
atp334
a(S'hebben'
p335
(dp336
S'VERB'
p337
F0.9999979999999999
sS'NOUN'
p338
F1e-06
s(lp339
g52
atp340
a(S'ons'
p341
(dp342
S'PRON'
p343
F0.9972810000000001
sS'NOUN'
p344
F0.002719
s(lp345
g46
atp346
a(S'laten'
p347
(dp348
S'VERB'
p349
F0.9958870000000001
sS'NOUN'
p350
F0.004113
s(lp351
tp352
a(S'zien'
p353
(dp354
S'VERB'
p355
F0.9998999999999999
sS'NOUN'
p356
F0.0001
s(lp357
g58
atp358
a(S'dat'
p359
(dp360
S'PRON'
p361
F0.010236
sS'CONJ'
p362
F0.989764
s(lp363
g66
atp364
a(S'de'
p365
(dp366
S'DET'
p367
F1.0
s(lp368
tp369
a(S'toekomst'
p370
(dp371
S'NOUN'
p372
F1.0
s(lp373
g80
atp374
a(S'van'
p375
(dp376
S'ADP'
p377
F1.0
s(lp378
g86
atp379
a(S'de'
p380
(dp381
S'DET'
p382
F1.0
s(lp383
g74
atp384
a(S'eu'
p385
(dp386
S'NOUN'
p387
F1.0
s(lp388
g100
atp389
a(S'moet'
p390
(dp391
S'VERB'
p392
F1.0
s(lp393
g107
atp394
a(S'worden'
p395
(dp396
S'VERB'
p397
F0.999999
sS'NOUN'
p398
F1e-06
s(lp399
g115
atp400
a(S'gebouwd'
p401
(dp402
S'VERB'
p403
F0.955165
sS'ADJ'
p404
F0.044835
s(lp405
g122
atp406
a(S'op'
p407
(dp408
S'ADV'
p409
F0.000123
sS'ADJ'
p410
F3e-06
sS'ADP'
p411
F0.999874
s(lp412
g128
atp413
a(S'europese'
p414
(dp415
S'NOUN'
p416
F1.0
s(lp417
g147
atp418
a(S'en'
p419
(dp420
S'CONJ'
p421
F1.0
s(lp422
g153
atp423
a(S'niet'
p424
(dp425
S'ADV'
p426
F0.99997
sS'PRON'
p427
F2.8e-05
sS'VERB'
p428
F3e-06
sS'X'
p429
F0.0
s(lp430
g161
atp431
a(S'op'
p432
(dp433
S'ADV'
p434
F0.162034
sS'ADJ'
p435
F1e-05
sS'ADP'
p436
F0.837956
s(lp437
tp438
a(S'binnenlandse'
p439
(dp440
S'NOUN'
p441
F7e-06
sS'ADJ'
p442
F0.999993
s(lp443
g168
atp444
a(S'oplossingen'
p445
(dp446
S'NOUN'
p447
F1.0
s(lp448
g140
atp449
a(g170
(dp450
g170
F1.0
s(lp451
g170
atp452
asS'de'
p453
(lp454
(S'die'
p455
(dp456
S'PRON'
p457
F0.001144
sS'DET'
p458
F0.998519
s(lp459
g9
atp460
a(S'wirtschaftskrise'
p461
(dp462
S'ADJ'
p463
F0.002372
sS'NOUN'
p464
F0.995276
s(lp465
g15
atp466
a(S'und'
p467
(dp468
S'CONJ'
p469
F1.0
s(lp470
g28
atp471
a(S'ihre'
p472
(dp473
S'PRON'
p474
F1.0
s(lp475
g34
atp476
a(S'auswirkungen'
p477
(dp478
S'VERB'
p479
F0.000595
sS'NOUN'
p480
F0.999342
s(lp481
g40
atp482
a(S'haben'
p483
(dp484
S'VERB'
p485
F0.999903
s(lp486
g52
atp487
a(S'uns'
p488
(dp489
S'PRON'
p490
F1.0
s(lp491
g46
atp492
a(S'gezeigt'
p493
(dp494
S'VERB'
p495
F0.986038
sS'ADJ'
p496
F0.013962
s(lp497
g58
atp498
a(S','
p499
(dp500
g170
F1.0
s(lp501
tp502
a(S'dass'
p503
(dp504
S'CONJ'
p505
F1.0
s(lp506
g66
atp507
a(S'die'
p508
(dp509
S'PRON'
p510
F0.014291
sS'DET'
p511
F0.9838
s(lp512
g74
atp513
a(S'zukunft'
p514
(dp515
S'ADJ'
p516
F0.149563
sS'NOUN'
p517
F0.837157
s(lp518
g80
atp519
a(S'der'
p520
(dp521
S'PRON'
p522
F0.001283
sS'DET'
p523
F0.998429
s(lp524
g86
atp525
a(S'eu'
p526
(dp527
S'ADJ'
p528
F0.344029
sS'NOUN'
p529
F0.528023
s(lp530
g100
atp531
a(S'auf'
p532
(dp533
S'PRT'
p534
F0.001433
sS'ADP'
p535
F0.998546
s(lp536
g128
atp537
a(S'europ\xc3\xa4ischen'
p538
(dp539
S'ADJ'
p540
F1.0
s(lp541
g147
atp542
a(S'statt'
p543
(dp544
S'PRT'
p545
F0.146866
sS'ADP'
p546
F0.706863
s(lp547
g153
atp548
a(S'auf'
p549
(dp550
S'PRT'
p551
F0.001475
sS'ADP'
p552
F0.998367
s(lp553
g161
atp554
a(S'nationalen'
p555
(dp556
S'ADJ'
p557
F1.0
s(lp558
g168
atp559
a(S'l\xc3\xb6sungen'
p560
(dp561
S'ADJ'
p562
F0.004565
sS'NOUN'
p563
F0.993792
s(lp564
g140
atp565
a(S'basieren'
p566
(dp567
S'VERB'
p568
F1.0
s(lp569
g122
atp570
a(S'muss'
p571
(dp572
S'VERB'
p573
F1.0
s(lp574
g107
atp575
a(g170
(dp576
g170
F1.0
s(lp577
g170
atp578
asS'it'
p579
(lp580
(S'la'
p581
(dp582
S'PRON'
p583
F0.000408
sS'DET'
p584
F0.999592
s(lp585
g9
atp586
a(S'crisi'
p587
(dp588
S'NOUN'
p589
F1.0
s(lp590
g15
atp591
a(S'economica'
p592
(dp593
S'ADJ'
p594
F1.0
s(lp595
g22
atp596
a(S'e'
p597
(dp598
S'CONJ'
p599
F1.0
s(lp600
g28
atp601
a(S'le'
p602
(dp603
S'PRON'
p604
F2.3e-05
sS'DET'
p605
F0.999977
s(lp606
tp607
a(S'sue'
p608
(dp609
S'PRON'
p610
F1.0
s(lp611
g34
atp612
a(S'ripercussioni'
p613
(dp614
S'NOUN'
p615
F1.0
s(lp616
g40
atp617
a(S'ci'
p618
(dp619
S'ADV'
p620
F0.001905
sS'PRON'
p621
F0.9980229999999999
sS'NOUN'
p622
F7.3e-05
s(lp623
g46
atp624
a(S'hanno'
p625
(dp626
S'VERB'
p627
F1.0
s(lp628
g52
atp629
a(S'dimostrato'
p630
(dp631
S'VERB'
p632
F1.0
s(lp633
g58
atp634
a(S'che'
p635
(dp636
S'PRON'
p637
F0.906456
sS'CONJ'
p638
F0.09292
sS'ADJ'
p639
F0.000624
s(lp640
g66
atp641
a(S'il'
p642
(dp643
S'DET'
p644
F1.0
s(lp645
g74
atp646
a(S'futuro'
p647
(dp648
S'NOUN'
p649
F0.373427
sS'ADJ'
p650
F0.626573
s(lp651
g80
atp652
a(S"dell'"
p653
(dp654
S'ADJ'
p655
F0.015677
sS'VERB'
p656
F0.002518
sS'NOUN'
p657
F0.981804
s(lp658
g86
atp659
a(S'europa'
p660
(dp661
S'NOUN'
p662
F0.362927
sS'VERB'
p663
F0.063318
sS'ADJ'
p664
F0.573754
s(lp665
g100
atp666
a(S'deve'
p667
(dp668
S'VERB'
p669
F1.0
s(lp670
g107
atp671
a(S'prendere'
p672
(dp673
S'VERB'
p674
F1.0
s(lp675
g247
atp676
a(S'le'
p677
(dp678
S'PRON'
p679
F0.0
sS'DET'
p680
F1.0
s(lp681
tp682
a(S'mosse'
p683
(dp684
S'ADJ'
p685
F0.019942
sS'VERB'
p686
F0.004682
sS'NOUN'
p687
F0.975375
s(lp688
g122
atp689
a(S'da'
p690
(dp691
S'ADP'
p692
F1.0
s(lp693
g128
atp694
a(S'soluzioni'
p695
(dp696
S'NOUN'
p697
F1.0
s(lp698
g140
atp699
a(S'europee'
p700
(dp701
S'NOUN'
p702
F0.047218
sS'ADJ'
p703
F0.952782
s(lp704
g147
atp705
a(S'invece'
p706
(dp707
S'ADV'
p708
F1.0
s(lp709
g153
atp710
a(S'che'
p711
(dp712
S'PRON'
p713
F0.474215
sS'CONJ'
p714
F0.398458
sS'ADJ'
p715
F0.127327
s(lp716
g161
atp717
a(S'nazionali'
p718
(dp719
S'NOUN'
p720
F0.181377
sS'ADJ'
p721
F0.818623
s(lp722
g168
atp723
a(g170
(dp724
g170
F1.0
s(lp725
g170
atp726
asS'sk'
p727
(lp728
(S'hospod\xc3\xa1rska'
p729
(dp730
S'ADJ'
p731
F1.0
s(lp732
g22
atp733
a(S'kr\xc3\xadza'
p734
(dp735
S'NOUN'
p736
F1.0
s(lp737
g15
atp738
a(S'a'
p739
(dp740
g429
F0.00043999999999999996
sS'CONJ'
p741
F0.999175
sS'NOUN'
p742
F3.5000000000000004e-05
sS'ADP'
p743
F0.000295
sS'PRT'
p744
F5.5e-05
s(lp745
g28
atp746
a(S'jej'
p747
(dp748
S'PRON'
p749
F1.0
sg429
F0.0
s(lp750
g34
atp751
a(S'n\xc3\xa1sledky'
p752
(dp753
S'NOUN'
p754
F1.0
s(lp755
g40
atp756
a(S'n\xc3\xa1m'
p757
(dp758
S'PRON'
p759
F0.997593
sg429
F0.002407
s(lp760
g46
atp761
a(S'uk\xc3\xa1zali'
p762
(dp763
S'VERB'
p764
F1.000001
s(lp765
g58
atp766
a(g499
(dp767
g170
F1.0
s(lp768
tp769
a(S'\xc5\xbee'
p770
(dp771
g429
F0.00032700000000000003
sS'CONJ'
p772
F0.999673
s(lp773
g66
atp774
a(S'bud\xc3\xbacnos\xc5\xa5'
p775
(dp776
S'NOUN'
p777
F1.0
s(lp778
g80
atp779
a(S'e\xc3\x9a'
p780
(dp781
S'ADV'
p782
F0.020393
sS'ADJ'
p783
F0.035330999999999994
sS'VERB'
p784
F0.738255
sS'NOUN'
p785
F0.20357999999999998
sg429
F0.002441
s(lp786
g100
atp787
a(S'treba'
p788
(dp789
S'ADV'
p790
F1.0
s(lp791
g107
atp792
a(S'stava\xc5\xa5'
p793
(dp794
S'VERB'
p795
F1.0
s(lp796
g122
atp797
a(S'na'
p798
(dp799
g429
F2.6000000000000002e-05
sS'CONJ'
p800
F6e-06
sS'ADP'
p801
F0.99996
sS'PRT'
p802
F7e-06
s(lp803
g128
atp804
a(S'eur\xc3\xb3pskych'
p805
(dp806
S'ADJ'
p807
F1.0
s(lp808
g147
atp809
a(g499
(dp810
g170
F1.0
s(lp811
tp812
a(S'nie'
p813
(dp814
g429
F1.0
s(lp815
g153
atp816
a(S'na'
p817
(dp818
g429
F3.9e-05
sS'CONJ'
p819
F3e-06
sS'ADP'
p820
F0.999951
sS'PRT'
p821
F7e-06
s(lp822
g161
atp823
a(S'dom\xc3\xa1cich'
p824
(dp825
S'NOUN'
p826
F0.00575
sS'ADJ'
p827
F0.99425
s(lp828
g168
atp829
a(S'rie\xc5\xa1eniach'
p830
(dp831
S'NOUN'
p832
F1.0
s(lp833
g140
atp834
a(g170
(dp835
g170
F1.0
s(lp836
g170
atp837
asS'pl'
p838
(lp839
(S'kryzys'
p840
(dp841
S'NOUN'
p842
F1.0
s(lp843
g15
atp844
a(S'gospodarczy'
p845
(dp846
S'ADJ'
p847
F1.0
s(lp848
g22
atp849
a(S'i'
p850
(dp851
S'PRT'
p852
F0.000809
sS'CONJ'
p853
F0.999183
sS'PRON'
p854
F2e-06
sS'NOUN'
p855
F1e-06
sg429
F6e-06
s(lp856
g28
atp857
a(S'jego'
p858
(dp859
S'PRON'
p860
F0.9999999999999999
s(lp861
g34
atp862
a(S'reperkusje'
p863
(dp864
S'NOUN'
p865
F1.0
s(lp866
g40
atp867
a(S'dowiod\xc5\x82y'
p868
(dp869
S'VERB'
p870
F1.0
s(lp871
g58
atp872
a(g499
(dp873
g429
F0.0
sg170
F1.0
s(lp874
tp875
a(S'\xc5\xbce'
p876
(dp877
S'PRT'
p878
F0.000123
sS'CONJ'
p879
F0.999876
s(lp880
g66
atp881
a(S'przysz\xc5\x82o\xc5\x9b\xc4\x87'
p882
(dp883
S'NOUN'
p884
F1.0
s(lp885
g80
atp886
a(S'ue'
p887
(dp888
S'ADJ'
p889
F0.004465
sS'VERB'
p890
F0.0046830000000000005
sS'NOUN'
p891
F0.990851
s(lp892
g100
atp893
a(S'trzeba'
p894
(dp895
S'ADJ'
p896
F1.0
s(lp897
g107
atp898
a(S'oprze\xc4\x87'
p899
(dp900
S'VERB'
p901
F1.0
s(lp902
g122
atp903
a(S'na'
p904
(dp905
S'PRT'
p906
F3e-06
sS'VERB'
p907
F0.0
sS'NOUN'
p908
F0.0
sS'ADP'
p909
F0.9999939999999999
sg429
F3e-06
s(lp910
g128
atp911
a(S'rozwi\xc4\x85zaniach'
p912
(dp913
S'NOUN'
p914
F1.0
s(lp915
g140
atp916
a(S'europejskich'
p917
(dp918
S'ADJ'
p919
F1.000001
s(lp920
g147
atp921
a(g499
(dp922
g429
F0.0
sg170
F1.0
s(lp923
tp924
a(g739
(dp925
S'ADV'
p926
F0.000185
sS'NOUN'
p927
F0.0020529999999999997
sS'ADP'
p928
F0.000101
sS'PRT'
p929
F0.004725
sS'VERB'
p930
F0.0010860000000000002
sg429
F0.005783
sS'CONJ'
p931
F0.985946
sS'ADJ'
p932
F0.000123
s(lp933
g153
atp934
a(S'nie'
p935
(dp936
S'ADV'
p937
F0.000399
sS'PRT'
p938
F0.939955
sS'CONJ'
p939
F0.059052
sS'NOUN'
p940
F4.9e-05
sS'PRON'
p941
F0.0005440000000000001
s(lp942
g161
atp943
a(S'krajowych'
p944
(dp945
S'ADJ'
p946
F1.0
s(lp947
g168
atp948
a(g170
(dp949
g170
F1.0
s(lp950
g170
atp951
asS'sl'
p952
(lp953
(S'gospodarska'
p954
(dp955
S'ADJ'
p956
F1.0
s(lp957
g22
atp958
a(S'kriza'
p959
(dp960
S'NOUN'
p961
F1.0
s(lp962
g15
atp963
a(S'in'
p964
(dp965
S'ADV'
p966
F6e-06
sg429
F9.9e-05
sS'CONJ'
p967
F0.999893
sS'NOUN'
p968
F2e-06
s(lp969
g28
atp970
a(S'njene'
p971
(dp972
S'PRON'
p973
F0.9999990000000002
s(lp974
g34
atp975
a(S'posledice'
p976
(dp977
S'NOUN'
p978
F1.0
s(lp979
g40
atp980
a(S'so'
p981
(dp982
g429
F3e-06
sS'VERB'
p983
F0.999997
s(lp984
g52
atp985
a(S'nam'
p986
(dp987
S'PRON'
p988
F0.999964
sg429
F3.6e-05
s(lp989
g46
atp990
a(S'pokazale'
p991
(dp992
S'VERB'
p993
F1.0
s(lp994
g58
atp995
a(g499
(dp996
g170
F1.0
s(lp997
tp998
a(S'da'
p999
(dp1000
S'PRT'
p1001
F4e-06
sS'CONJ'
p1002
F0.999979
sS'VERB'
p1003
F1.7e-05
sg429
F1e-06
s(lp1004
g66
atp1005
a(S'je'
p1006
(dp1007
S'PRON'
p1008
F0.00154
sS'VERB'
p1009
F0.99846
sg429
F0.0
s(lp1010
g107
atp1011
a(S'treba'
p1012
(dp1013
S'ADV'
p1014
F1.0
s(lp1015
g115
atp1016
a(S'prihodnost'
p1017
(dp1018
S'NOUN'
p1019
F1.0
s(lp1020
g80
atp1021
a(S'eu'
p1022
(dp1023
S'ADV'
p1024
F0.155006
sS'ADJ'
p1025
F0.09022799999999999
sS'VERB'
p1026
F0.012199
sS'NOUN'
p1027
F0.74257
s(lp1028
g100
atp1029
a(S'bolj'
p1030
(dp1031
S'ADV'
p1032
F1.0
s(lp1033
g153
atp1034
a(S'graditi'
p1035
(dp1036
S'VERB'
p1037
F1.0
s(lp1038
g122
atp1039
a(S'na'
p1040
(dp1041
S'ADP'
p1042
F1.0
s(lp1043
g128
atp1044
a(S'evropskih'
p1045
(dp1046
S'ADJ'
p1047
F1.0
s(lp1048
g147
atp1049
a(S'kot'
p1050
(dp1051
S'CONJ'
p1052
F0.995936
sS'NOUN'
p1053
F0.004063
s(lp1054
g161
atp1055
a(S'na'
p1056
(dp1057
S'ADP'
p1058
F1.0
s(lp1059
g74
atp1060
a(S'doma\xc4\x8dih'
p1061
(dp1062
S'ADJ'
p1063
F1.0
s(lp1064
g168
atp1065
a(S're\xc5\xa1itvah'
p1066
(dp1067
S'NOUN'
p1068
F1.0
s(lp1069
g140
atp1070
a(g170
(dp1071
g170
F1.0
s(lp1072
g170
atp1073
asS'es'
p1074
(lp1075
(S'la'
p1076
(dp1077
g429
F4.5e-05
sS'DET'
p1078
F0.999917
sS'NOUN'
p1079
F0.0
sS'PRON'
p1080
F3.8e-05
s(lp1081
g9
atp1082
a(S'crisis'
p1083
(dp1084
S'NOUN'
p1085
F1.0
s(lp1086
g15
atp1087
a(S'econ\xc3\xb3mica'
p1088
(dp1089
S'ADJ'
p1090
F1.0
s(lp1091
g22
atp1092
a(S'y'
p1093
(dp1094
g429
F0.0
sS'CONJ'
p1095
F1.0
s(lp1096
g28
atp1097
a(S'sus'
p1098
(dp1099
S'PRON'
p1100
F1.0
s(lp1101
g34
atp1102
a(S'repercusiones'
p1103
(dp1104
S'NOUN'
p1105
F1.0
s(lp1106
g40
atp1107
a(S'nos'
p1108
(dp1109
S'PRON'
p1110
F1.0
s(lp1111
g46
atp1112
a(S'han'
p1113
(dp1114
S'VERB'
p1115
F1.0
s(lp1116
g52
atp1117
a(S'demostrado'
p1118
(dp1119
S'VERB'
p1120
F1.0
s(lp1121
g58
atp1122
a(S'que'
p1123
(dp1124
g429
F0.0
sS'CONJ'
p1125
F1.0
s(lp1126
g66
atp1127
a(S'el'
p1128
(dp1129
S'PRON'
p1130
F7e-05
sS'DET'
p1131
F0.99993
s(lp1132
g74
atp1133
a(S'futuro'
p1134
(dp1135
S'ADJ'
p1136
F0.026599
sS'NOUN'
p1137
F0.973401
s(lp1138
g80
atp1139
a(S'de'
p1140
(dp1141
g429
F0.0
sS'CONJ'
p1142
F1.8e-05
sS'ADP'
p1143
F0.999982
s(lp1144
g86
atp1145
a(S'la'
p1146
(dp1147
g429
F0.0
sS'PRON'
p1148
F0.0
sS'DET'
p1149
F0.999999
sS'NOUN'
p1150
F0.0
s(lp1151
tp1152
a(S'ue'
p1153
(dp1154
S'VERB'
p1155
F0.0
sS'NOUN'
p1156
F1.0
s(lp1157
g100
atp1158
a(S'tiene'
p1159
(dp1160
S'VERB'
p1161
F1.0
s(lp1162
g107
atp1163
a(S'que'
p1164
(dp1165
S'VERB'
p1166
F1.0
s(lp1167
g247
atp1168
a(S'construirse'
p1169
(dp1170
S'VERB'
p1171
F1.0
s(lp1172
tp1173
a(S'apoy\xc3\xa1ndose'
p1174
(dp1175
S'VERB'
p1176
F1.0
s(lp1177
g122
atp1178
a(S'en'
p1179
(dp1180
g429
F5e-06
sS'CONJ'
p1181
F6e-06
sS'ADP'
p1182
F0.999988
s(lp1183
g128
atp1184
a(S'soluciones'
p1185
(dp1186
S'NOUN'
p1187
F1.0
s(lp1188
g140
atp1189
a(S'europeas'
p1190
(dp1191
S'NOUN'
p1192
F0.01965
sS'ADJ'
p1193
F0.98035
s(lp1194
g147
atp1195
a(S'm\xc3\xa1s'
p1196
(dp1197
S'ADV'
p1198
F0.97362
sS'CONJ'
p1199
F0.02638
s(lp1200
g153
atp1201
a(S'que'
p1202
(dp1203
g429
F0.000433
sS'CONJ'
p1204
F0.999567
s(lp1205
g161
atp1206
a(S'nacionales'
p1207
(dp1208
S'ADJ'
p1209
F1.0
s(lp1210
g168
atp1211
a(g170
(dp1212
g170
F1.0
s(lp1213
g170
atp1214
as.