(dp0
S'fr'
p1
(lp2
(S'le'
p3
(dp4
S'PRON'
p5
F0.000982
sS'DET'
p6
F0.999018
s(lp7
S'the'
p8
atp9
a(S'premier'
p10
(dp11
S'ADV'
p12
F0.002044
sS'NUM'
p13
F0.368553
sS'NOUN'
p14
F0.629403
s(lp15
S'first'
p16
atp17
a(S'est'
p18
(dp19
S'VERB'
p20
F0.968973
sS'NOUN'
p21
F0.031027
s(lp22
S'is'
p23
atp24
a(S"l'"
p25
(dp26
S'NOUN'
p27
F0.086165
sS'VERB'
p28
F0.7962940000000002
sS'ADJ'
p29
F0.117541
s(lp30
S'the'
p31
atp32
a(S'instrument'
p33
(dp34
S'NOUN'
p35
F1.0
s(lp36
S'instrument'
p37
atp38
a(S'relatif'
p39
(dp40
S'NOUN'
p41
F0.017216
sS'ADJ'
p42
F0.982784
s(lp43
tp44
a(S'\xc3\xa0'
p45
(dp46
S'ADP'
p47
F1.0
s(lp48
tp49
a(S'la'
p50
(dp51
S'PRON'
p52
F2.8e-05
sS'DET'
p53
F0.999971
sS'NOUN'
p54
F1e-06
s(lp55
tp56
a(S'facilit\xc3\xa9'
p57
(dp58
S'VERB'
p59
F0.000241
sS'NOUN'
p60
F0.999759
s(lp61
S'facility'
p62
atp63
a(S'alimentaire'
p64
(dp65
S'ADJ'
p66
F1.0
s(lp67
S'food'
p68
atp69
a(S'.'
p70
(dp71
g70
F1.0
s(lp72
g70
atp73
asS'en'
p74
(lp75
(g8
(dp76
S'NOUN'
p77
F4e-06
sS'DET'
p78
F0.999996
s(lp79
g8
atp80
a(g16
(dp81
S'ADV'
p82
F0.071942
sS'NOUN'
p83
F0.023623
sS'ADJ'
p84
F0.904436
s(lp85
g16
atp86
a(g23
(dp87
S'VERB'
p88
F1.0
s(lp89
g23
atp90
a(g31
(dp91
S'NOUN'
p92
F1e-06
sS'DET'
p93
F0.999999
s(lp94
g31
atp95
a(g68
(dp96
S'NOUN'
p97
F1.0
s(lp98
g68
atp99
a(g62
(dp100
S'NOUN'
p101
F1.0
s(lp102
g62
atp103
a(g37
(dp104
S'NOUN'
p105
F1.0
s(lp106
g37
atp107
a(g70
(dp108
g70
F1.0
s(lp109
g70
atp110
asS'nl'
p111
(lp112
(S'het'
p113
(dp114
S'PRON'
p115
F0.00045200000000000004
sS'DET'
p116
F0.999548
s(lp117
g8
atp118
a(S'eerste'
p119
(dp120
S'NUM'
p121
F0.998877
sS'NOUN'
p122
F0.001123
s(lp123
g16
atp124
a(S'betreft'
p125
(dp126
S'VERB'
p127
F1.0
s(lp128
g23
atp129
a(S'de'
p130
(dp131
S'DET'
p132
F1.0
s(lp133
g31
atp134
a(S'voedselfaciliteit'
p135
(dp136
S'NOUN'
p137
F1.0
s(lp138
g62
atp139
a(g70
(dp140
g70
F1.0
s(lp141
g70
atp142
asS'de'
p143
(lp144
(S'die'
p145
(dp146
S'PRON'
p147
F0.004888
sS'DET'
p148
F0.994789
s(lp149
g8
atp150
a(S'erste'
p151
(dp152
S'ADJ'
p153
F1.0
s(lp154
g16
atp155
a(S'betrifft'
p156
(dp157
S'VERB'
p158
F1.0
s(lp159
g23
atp160
a(S'das'
p161
(dp162
S'PRON'
p163
F0.017785
sS'DET'
p164
F0.982214
s(lp165
g31
atp166
a(S'instrument'
p167
(dp168
S'VERB'
p169
F0.000434
sS'NOUN'
p170
F0.999091
s(lp171
g37
atp172
a(S'f\xc3\xbcr'
p173
(dp174
S'ADP'
p175
F1.0
s(lp176
g68
atp177
a(S'nahrungsmittelhilfe'
p178
(dp179
S'ADJ'
p180
F0.150434
sS'NOUN'
p181
F0.740969
s(lp182
tp183
a(S','
p184
(dp185
g70
F1.0
s(lp186
tp187
a(S'das'
p188
(dp189
S'PRON'
p190
F0.331516
sS'DET'
p191
F0.436234
s(lp192
tp193
a(S'food'
p194
(dp195
S'X'
p196
F1.0
s(lp197
g68
atp198
a(S'facility'
p199
(dp200
S'NOUN'
p201
F0.99693
s(lp202
g62
atp203
a(S'instrument'
p204
(dp205
S'VERB'
p206
F0.041579
sS'NOUN'
p207
F0.94916
s(lp208
g37
atp209
a(g70
(dp210
g70
F1.0
s(lp211
g70
atp212
asS'it'
p213
(lp214
(S'la'
p215
(dp216
S'PRON'
p217
F0.015521
sS'DET'
p218
F0.984479
s(lp219
g8
atp220
a(S'prima'
p221
(dp222
S'ADV'
p223
F0.183298
sS'NOUN'
p224
F0.045399
sS'CONJ'
p225
F0.030246
sS'ADJ'
p226
F0.741056
sS'ADP'
p227
F1e-06
s(lp228
g16
atp229
a(S'\xc3\xa8'
p230
(dp231
S'VERB'
p232
F1.0
s(lp233
g23
atp234
a(S'lo'
p235
(dp236
S'PRON'
p237
F2.6e-05
sS'DET'
p238
F0.999974
s(lp239
tp240
a(S'strumento'
p241
(dp242
S'VERB'
p243
F0.00034
sS'NOUN'
p244
F0.99966
s(lp245
g37
atp246
a(S'alimentare'
p247
(dp248
S'NOUN'
p249
F0.003723
sS'VERB'
p250
F0.002064
sS'ADJ'
p251
F0.994213
s(lp252
g68
atp253
a(g70
(dp254
g70
F1.0
s(lp255
g70
atp256
asS'sk'
p257
(lp258
(S'prvou'
p259
(dp260
S'NUM'
p261
F1.0
s(lp262
g16
atp263
a(S'je'
p264
(dp265
S'PRON'
p266
F6.3e-05
sS'VERB'
p267
F0.999879
sg196
F5.8e-05
s(lp268
g23
atp269
a(S'potravinov\xc3\xbd'
p270
(dp271
S'ADJ'
p272
F1.0
s(lp273
g68
atp274
a(S'n\xc3\xa1stroj'
p275
(dp276
S'NOUN'
p277
F1.0
s(lp278
g37
atp279
a(g70
(dp280
g70
F1.0
s(lp281
g70
atp282
asS'pl'
p283
(lp284
(S'pierwsza'
p285
(dp286
S'NOUN'
p287
F0.042332
sS'ADJ'
p288
F0.957668
s(lp289
g16
atp290
a(S'dotyczy'
p291
(dp292
S'VERB'
p293
F1.0
s(lp294
g23
atp295
a(S'instrumentu'
p296
(dp297
S'NOUN'
p298
F1.0
s(lp299
g37
atp300
a(S'\xc5\xbcywno\xc5\x9bciowego'
p301
(dp302
S'ADJ'
p303
F1.0
s(lp304
g68
atp305
a(g70
(dp306
g70
F1.0
s(lp307
g70
atp308
asS'sl'
p309
(lp310
(S'prvo'
p311
(dp312
S'NUM'
p313
F1.000001
s(lp314
g16
atp315
a(S'zadeva'
p316
(dp317
S'VERB'
p318
F0.877885
sS'NOUN'
p319
F0.122115
s(lp320
g23
atp321
a(S'instrument'
p322
(dp323
S'NOUN'
p324
F1.0
s(lp325
g37
atp326
a(S'pomo\xc4\x8di'
p327
(dp328
S'NOUN'
p329
F1.0
s(lp330
g62
atp331
a(S'v'
p332
(dp333
S'ADP'
p334
F1.0
s(lp335
g31
atp336
a(S'hrani'
p337
(dp338
S'VERB'
p339
F8e-05
sS'NOUN'
p340
F0.99992
s(lp341
g68
atp342
a(g70
(dp343
g70
F1.0
s(lp344
g70
atp345
asS'es'
p346
(lp347
(S'en'
p348
(dp349
g196
F1.6e-05
sS'CONJ'
p350
F0.000341
sS'ADP'
p351
F0.999643
s(lp352
g16
atp353
a(S'primer'
p354
(dp355
S'ADJ'
p356
F1.0
s(lp357
tp358
a(S'lugar'
p359
(dp360
S'NOUN'
p361
F1.0
s(lp362
g16
atp363
a(g184
(dp364
g70
F1.0
s(lp365
g23
atp366
a(S'el'
p367
(dp368
S'PRON'
p369
F8e-06
sS'DET'
p370
F0.999992
s(lp371
g31
atp372
a(S'"'
p373
(dp374
g70
F1.0
s(lp375
g62
atp376
a(S'mecanismo'
p377
(dp378
S'NOUN'
p379
F1.0
s(lp380
tp381
a(S'alimentario'
p382
(dp383
S'ADJ'
p384
F1.0
s(lp385
g68
atp386
a(g373
(dp387
g70
F1.0
s(lp388
g62
atp389
a(g70
(dp390
g70
F1.0
s(lp391
g70
atp392
as.