(dp0
S'fr'
p1
(lp2
(S'les'
p3
(dp4
S'PRON'
p5
F0.000397
sS'DET'
p6
F0.99958
sS'ADP'
p7
F2.3e-05
s(lp8
S'those'
p9
atp10
a(S'organes'
p11
(dp12
S'NOUN'
p13
F1.0
s(lp14
S'bodies'
p15
atp16
a(S'charg\xc3\xa9s'
p17
(dp18
S'VERB'
p19
F1.0
s(lp20
S'responsible'
p21
atp22
a(S'de'
p23
(dp24
S'ADP'
p25
F1.0
s(lp26
S'for'
p27
atp28
a(S'mettre'
p29
(dp30
S'VERB'
p31
F1.0
s(lp32
S'providing'
p33
atp34
a(S'un'
p35
(dp36
S'NOUN'
p37
F1.9e-05
sS'NUM'
p38
F0.007963
sS'DET'
p39
F0.992018
s(lp40
S'the'
p41
atp42
a(S'environnement'
p43
(dp44
S'NOUN'
p45
F1.0
s(lp46
S'environment'
p47
atp48
a(S'de'
p49
(dp50
S'ADP'
p51
F1.0
s(lp52
tp53
a(S'travail'
p54
(dp55
S'NOUN'
p56
F1.0
s(lp57
S'productivity'
p58
atp59
a(S'\xc3\xa0'
p60
(dp61
S'ADP'
p62
F1.0
s(lp63
S'in'
p64
atp65
a(S'la'
p66
(dp67
S'PRON'
p68
F1.2e-05
sS'DET'
p69
F0.999988
sS'NOUN'
p70
F0.0
s(lp71
tp72
a(S'disposition'
p73
(dp74
S'NOUN'
p75
F1.0
s(lp76
S'providing'
p77
atp78
a(S'des'
p79
(dp80
S'DET'
p81
F2.1e-05
sS'ADP'
p82
F0.999979
s(lp83
S'by'
p84
atp85
a(S'compagnies'
p86
(dp87
S'NOUN'
p88
F1.0
s(lp89
tp90
a(S'a\xc3\xa9riennes'
p91
(dp92
S'ADJ'
p93
F1.0
s(lp94
S'airlines'
p95
atp96
a(S'doivent'
p97
(dp98
S'VERB'
p99
F1.0
s(lp100
S'must'
p101
atp102
a(S'faciliter'
p103
(dp104
S'VERB'
p105
F1.0
s(lp106
S'facilitate'
p107
atp108
a(S'une'
p109
(dp110
S'NOUN'
p111
F0.000806
sS'NUM'
p112
F0.000182
sS'DET'
p113
F0.999012
s(lp114
S'greater'
p115
atp116
a(S'plus'
p117
(dp118
S'ADV'
p119
F0.999972
sS'VERB'
p120
F2.8e-05
s(lp121
tp122
a(S'grande'
p123
(dp124
S'ADJ'
p125
F1.0
s(lp126
g115
atp127
a(S'productivit\xc3\xa9'
p128
(dp129
S'NOUN'
p130
F1.0
s(lp131
g58
atp132
a(S'en'
p133
(dp134
S'PRON'
p135
F0.07269
sS'ADP'
p136
F0.92731
s(lp137
g77
atp138
a(S'mettant'
p139
(dp140
S'VERB'
p141
F1.0
s(lp142
tp143
a(S'\xc3\xa0'
p144
(dp145
S'ADP'
p146
F1.0
s(lp147
tp148
a(S'disposition'
p149
(dp150
S'NOUN'
p151
F1.0
s(lp152
g77
atp153
a(S'des'
p154
(dp155
S'DET'
p156
F2.1e-05
sS'ADP'
p157
F0.999979
s(lp158
tp159
a(S'infrastructures'
p160
(dp161
S'NOUN'
p162
F1.0
s(lp163
S'infrastructure'
p164
atp165
a(S'ad\xc3\xa9quates'
p166
(dp167
S'ADJ'
p168
F1.0
s(lp169
S'adequate'
p170
atp171
a(S'et'
p172
(dp173
S'CONJ'
p174
F1.0
s(lp175
S'and'
p176
atp177
a(S'performantes'
p178
(dp179
S'ADJ'
p180
F1.0
s(lp181
S'efficient'
p182
atp183
a(S'et'
p184
(dp185
S'CONJ'
p186
F1.0
s(lp187
S'and'
p188
atp189
a(S'en'
p190
(dp191
S'PRON'
p192
F0.737318
sS'ADP'
p193
F0.262682
s(lp194
tp195
a(S'imposant'
p196
(dp197
S'VERB'
p198
F0.993668
sS'ADJ'
p199
F0.006332
s(lp200
S'imposing'
p201
atp202
a(S'uniquement'
p203
(dp204
S'ADV'
p205
F1.0
s(lp206
S'only'
p207
atp208
a(S'des'
p209
(dp210
S'DET'
p211
F0.000119
sS'ADP'
p212
F0.999881
s(lp213
tp214
a(S'conditions'
p215
(dp216
S'NOUN'
p217
F1.0
s(lp218
S'conditions'
p219
atp220
a(S'r\xc3\xa9glementaires'
p221
(dp222
S'ADJ'
p223
F1.0
s(lp224
S'regulatory'
p225
atp226
a(S'appropri\xc3\xa9es'
p227
(dp228
S'VERB'
p229
F0.817508
sS'ADJ'
p230
F0.182492
s(lp231
S'appropriate'
p232
atp233
a(S'.'
p234
(dp235
g234
F1.0
s(lp236
g234
atp237
asS'en'
p238
(lp239
(g9
(dp240
S'NOUN'
p241
F3e-06
sS'DET'
p242
F0.999997
s(lp243
g9
atp244
a(g15
(dp245
S'VERB'
p246
F0.010415
sS'NOUN'
p247
F0.989585
s(lp248
g15
atp249
a(g21
(dp250
S'ADJ'
p251
F1.0
s(lp252
g21
atp253
a(g27
(dp254
S'ADP'
p255
F1.0
s(lp256
g27
atp257
a(g33
(dp258
S'VERB'
p259
F1.0
s(lp260
g33
atp261
a(g41
(dp262
S'NOUN'
p263
F1e-06
sS'DET'
p264
F0.999999
s(lp265
g41
atp266
a(g47
(dp267
S'NOUN'
p268
F1.0
s(lp269
g47
atp270
a(g64
(dp271
S'ADV'
p272
F4e-06
sS'PRT'
p273
F1e-06
sS'ADP'
p274
F0.999995
s(lp275
g64
atp276
a(S'which'
p277
(dp278
S'DET'
p279
F1.0
s(lp280
g277
atp281
a(g95
(dp282
S'NOUN'
p283
F1.0
s(lp284
g95
atp285
a(S'operate'
p286
(dp287
S'VERB'
p288
F1.0
s(lp289
g286
atp290
a(g101
(dp291
S'VERB'
p292
F0.999999
sS'NOUN'
p293
F1e-06
s(lp294
g101
atp295
a(g107
(dp296
S'VERB'
p297
F1.0
s(lp298
g107
atp299
a(g115
(dp300
S'ADJ'
p301
F1.0
s(lp302
g115
atp303
a(g58
(dp304
S'NOUN'
p305
F1.0
s(lp306
g58
atp307
a(g84
(dp308
S'ADV'
p309
F0.000171
sS'NOUN'
p310
F1e-06
sS'ADP'
p311
F0.999829
s(lp312
g84
atp313
a(g77
(dp314
S'VERB'
p315
F1.0
s(lp316
g77
atp317
a(g170
(dp318
S'ADJ'
p319
F1.0
s(lp320
g170
atp321
a(g176
(dp322
S'CONJ'
p323
F0.999998
sS'NOUN'
p324
F2e-06
s(lp325
g176
atp326
a(g182
(dp327
S'ADJ'
p328
F1.0
s(lp329
g182
atp330
a(g164
(dp331
S'NOUN'
p332
F1.0
s(lp333
g164
atp334
a(g188
(dp335
S'CONJ'
p336
F1.0
sS'NOUN'
p337
F0.0
s(lp338
g188
atp339
a(g201
(dp340
S'VERB'
p341
F0.978099
sS'ADJ'
p342
F0.021901
s(lp343
g201
atp344
a(g207
(dp345
S'ADV'
p346
F0.885738
sS'NOUN'
p347
F1.6e-05
sS'ADJ'
p348
F0.114246
s(lp349
g207
atp350
a(g232
(dp351
S'VERB'
p352
F0.0034149999999999996
sS'ADJ'
p353
F0.996584
s(lp354
g232
atp355
a(g225
(dp356
S'ADJ'
p357
F1.0
s(lp358
g225
atp359
a(g219
(dp360
S'VERB'
p361
F3e-06
sS'NOUN'
p362
F0.999997
s(lp363
g219
atp364
a(g234
(dp365
g234
F1.0
s(lp366
g234
atp367
asS'nl'
p368
(lp369
(S'de'
p370
(dp371
S'DET'
p372
F1.0
s(lp373
g9
atp374
a(S'overheidsinstanties'
p375
(dp376
S'NOUN'
p377
F1.0
s(lp378
g15
atp379
a(S'die'
p380
(dp381
S'PRON'
p382
F1.000001
s(lp383
g21
atp384
a(S'de'
p385
(dp386
S'DET'
p387
F1.0
s(lp388
g41
atp389
a(S'omstandigheden'
p390
(dp391
S'NOUN'
p392
F1.0
s(lp393
g47
atp394
a(S'waaronder'
p395
(dp396
S'ADV'
p397
F1.0
s(lp398
g277
atp399
a(S'luchtvaartmaatschappijen'
p400
(dp401
S'NOUN'
p402
F1.0
s(lp403
tp404
a(S'moeten'
p405
(dp406
S'VERB'
p407
F0.999974
sS'NOUN'
p408
F2.6e-05
s(lp409
g286
atp410
a(S'opereren'
p411
(dp412
S'VERB'
p413
F0.991553
sS'NOUN'
p414
F0.008447
s(lp415
tp416
a(S'vormgeven'
p417
(dp418
S'VERB'
p419
F0.998745
sS'NOUN'
p420
F0.001255
s(lp421
g286
atp422
a(S','
p423
(dp424
g234
F1.0
s(lp425
tp426
a(S'dienen'
p427
(dp428
S'VERB'
p429
F0.999927
sS'NOUN'
p430
F7.3e-05
s(lp431
g101
atp432
a(S'mede'
p433
(dp434
S'ADV'
p435
F0.999989
sS'NOUN'
p436
F1.1e-05
s(lp437
g107
atp438
a(S'zorg'
p439
(dp440
S'VERB'
p441
F0.033007
sS'NOUN'
p442
F0.966993
s(lp443
tp444
a(S'te'
p445
(dp446
S'PRT'
p447
F1.0
s(lp448
g33
atp449
a(S'dragen'
p450
(dp451
S'VERB'
p452
F1.0
sS'NOUN'
p453
F0.0
s(lp454
g21
atp455
a(S'voor'
p456
(dp457
S'ADV'
p458
F0.000307
sS'CONJ'
p459
F3.4e-05
sS'NOUN'
p460
F0.0
sS'ADP'
p461
F0.999659
s(lp462
g27
atp463
a(S'een'
p464
(dp465
S'ADJ'
p466
F1e-06
sS'PRON'
p467
F0.000523
sS'NUM'
p468
F1e-06
sS'DET'
p469
F0.999476
s(lp470
tp471
a(S'grotere'
p472
(dp473
S'NOUN'
p474
F0.00073
sS'ADJ'
p475
F0.99927
s(lp476
g115
atp477
a(S'productiviteit'
p478
(dp479
S'NOUN'
p480
F1.0
s(lp481
g58
atp482
a(g423
(dp483
g234
F1.0
s(lp484
tp485
a(S'door'
p486
(dp487
S'ADV'
p488
F5e-06
sS'CONJ'
p489
F0.000261
sS'ADP'
p490
F0.999734
s(lp491
g84
atp492
a(S'de'
p493
(dp494
S'DET'
p495
F1.0
s(lp496
g77
atp497
a(S'luchtvaartmaatschappijen'
p498
(dp499
S'NOUN'
p500
F1.0
s(lp501
g95
atp502
a(S'een'
p503
(dp504
S'ADJ'
p505
F1.2e-05
sS'PRON'
p506
F0.001353
sS'NUM'
p507
F4e-06
sS'DET'
p508
F0.99863
s(lp509
g77
atp510
a(S'adequate'
p511
(dp512
S'NOUN'
p513
F0.130701
sS'ADJ'
p514
F0.869299
s(lp515
g170
atp516
a(S'en'
p517
(dp518
S'CONJ'
p519
F1.0
s(lp520
g176
atp521
a(S'doeltreffende'
p522
(dp523
S'NOUN'
p524
F0.000216
sS'ADJ'
p525
F0.999784
s(lp526
g182
atp527
a(S'infrastructuur'
p528
(dp529
S'NOUN'
p530
F1.0
s(lp531
g164
atp532
a(S'ter'
p533
(dp534
S'ADV'
p535
F1.8e-05
sS'ADP'
p536
F0.999982
s(lp537
g77
atp538
a(S'beschikking'
p539
(dp540
S'NOUN'
p541
F1.0
s(lp542
g77
atp543
a(S'te'
p544
(dp545
S'PRT'
p546
F1.0
s(lp547
g77
atp548
a(S'stellen'
p549
(dp550
S'VERB'
p551
F0.99998
sS'NOUN'
p552
F2e-05
s(lp553
tp554
a(S'en'
p555
(dp556
S'CONJ'
p557
F1.0
s(lp558
g188
atp559
a(S'alleen'
p560
(dp561
S'ADV'
p562
F0.999874
sS'ADJ'
p563
F0.000126
s(lp564
g207
atp565
a(S'waar'
p566
(dp567
S'ADV'
p568
F0.988853
sS'NOUN'
p569
F0.000207
sS'ADJ'
p570
F0.010941
s(lp571
g77
atp572
a(S'werkelijk'
p573
(dp574
S'ADV'
p575
F0.001946
sS'ADJ'
p576
F0.998054
s(lp577
g201
atp578
a(S'nodig'
p579
(dp580
S'VERB'
p581
F0.000144
sS'ADJ'
p582
F0.999856
s(lp583
g232
atp584
a(S'regelgeving'
p585
(dp586
S'NOUN'
p587
F1.0
s(lp588
g225
atp589
a(S'op'
p590
(dp591
S'ADV'
p592
F0.995704
sS'ADJ'
p593
F1e-05
sS'ADP'
p594
F0.004286
s(lp595
g201
atp596
a(S'te'
p597
(dp598
S'PRT'
p599
F1.0
s(lp600
tp601
a(S'leggen'
p602
(dp603
S'VERB'
p604
F0.99998
sS'NOUN'
p605
F2e-05
s(lp606
g201
atp607
a(g234
(dp608
g234
F1.0
s(lp609
g234
atp610
asS'de'
p611
(lp612
(S'die'
p613
(dp614
S'PRON'
p615
F0.127762
sS'DET'
p616
F0.799054
s(lp617
tp618
a(S'f\xc3\xbcr'
p619
(dp620
S'ADP'
p621
F1.0
s(lp622
g27
atp623
a(S'die'
p624
(dp625
S'PRON'
p626
F0.000152
sS'DET'
p627
F0.999822
s(lp628
tp629
a(S'betriebsbedingungen'
p630
(dp631
S'ADJ'
p632
F0.012954
sS'NOUN'
p633
F0.978277
s(lp634
g33
atp635
a(S'der'
p636
(dp637
S'PRON'
p638
F8.9e-05
sS'DET'
p639
F0.999882
s(lp640
g41
atp641
a(S'luftgesellschaften'
p642
(dp643
S'NOUN'
p644
F0.002913
sS'ADJ'
p645
F0.996983
s(lp646
g95
atp647
a(S'zust\xc3\xa4ndigen'
p648
(dp649
S'ADJ'
p650
F1.0
s(lp651
g21
atp652
a(S'beh\xc3\xb6rden'
p653
(dp654
S'ADJ'
p655
F0.003857
sS'NOUN'
p656
F0.992293
s(lp657
g15
atp658
a(S'sind'
p659
(dp660
S'VERB'
p661
F1.0
s(lp662
tp663
a(S'aufgefordert'
p664
(dp665
S'VERB'
p666
F0.955201
sS'ADJ'
p667
F0.044799
s(lp668
g286
atp669
a(g423
(dp670
g234
F1.0
s(lp671
tp672
a(S'die'
p673
(dp674
S'PRON'
p675
F0.294498
sS'DET'
p676
F0.702061
s(lp677
g9
atp678
a(S'produktivit\xc3\xa4t'
p679
(dp680
S'ADJ'
p681
F0.218816
sS'NOUN'
p682
F0.777239
s(lp683
tp684
a(S'zu'
p685
(dp686
S'PRT'
p687
F0.999977
s(lp688
g107
atp689
a(S'steigern'
p690
(dp691
S'VERB'
p692
F1.0
s(lp693
g58
atp694
a(g423
(dp695
g234
F1.0
s(lp696
tp697
a(S'indem'
p698
(dp699
S'CONJ'
p700
F1.0
s(lp701
g84
atp702
a(S'sie'
p703
(dp704
S'PRON'
p705
F1.0
s(lp706
g77
atp707
a(S'eine'
p708
(dp709
S'PRON'
p710
F0.000279
sS'DET'
p711
F0.999624
s(lp712
tp713
a(S'angemessene'
p714
(dp715
S'ADJ'
p716
F1.0
s(lp717
g170
atp718
a(S'und'
p719
(dp720
S'CONJ'
p721
F1.0
s(lp722
g176
atp723
a(S'effiziente'
p724
(dp725
S'ADJ'
p726
F1.0
s(lp727
g182
atp728
a(S'infrastruktur'
p729
(dp730
S'ADJ'
p731
F0.002751
sS'NOUN'
p732
F0.995107
s(lp733
g164
atp734
a(S'bereitstellen'
p735
(dp736
S'VERB'
p737
F1.0
s(lp738
g77
atp739
a(S'und'
p740
(dp741
S'CONJ'
p742
F1.0
s(lp743
g188
atp744
a(S'nur'
p745
(dp746
S'ADV'
p747
F1.0
s(lp748
g207
atp749
a(S'ma\xc3\x9fvolle'
p750
(dp751
S'ADJ'
p752
F1.0
s(lp753
g201
atp754
a(S'regulierungsbestimmungen'
p755
(dp756
S'ADJ'
p757
F1.8e-05
sS'NOUN'
p758
F0.999969
s(lp759
tp760
a(S'anwenden'
p761
(dp762
S'VERB'
p763
F1.0
s(lp764
g201
atp765
a(g234
(dp766
g234
F1.0
s(lp767
g234
atp768
asS'it'
p769
(lp770
(S'gli'
p771
(dp772
S'PRON'
p773
F0.000911
sS'DET'
p774
F0.999089
s(lp775
g9
atp776
a(S'enti'
p777
(dp778
S'NOUN'
p779
F1.0
s(lp780
g15
atp781
a(S'che'
p782
(dp783
S'PRON'
p784
F0.960049
sS'CONJ'
p785
F0.0391
sS'ADJ'
p786
F0.000851
s(lp787
tp788
a(S'gestiscono'
p789
(dp790
S'VERB'
p791
F1.0
s(lp792
g21
atp793
a(S"l'"
p794
(dp795
S'NOUN'
p796
F0.000971
sS'VERB'
p797
F0.9832770000000001
sS'ADJ'
p798
F0.015752
s(lp799
g41
atp800
a(S'ambiente'
p801
(dp802
S'NOUN'
p803
F1.0
s(lp804
g47
atp805
a(S'in'
p806
(dp807
S'ADP'
p808
F1.0
s(lp809
g64
atp810
a(S'cui'
p811
(dp812
S'PRON'
p813
F1.0
s(lp814
g277
atp815
a(S'operano'
p816
(dp817
S'VERB'
p818
F1.0
s(lp819
g286
atp820
a(S'le'
p821
(dp822
S'PRON'
p823
F0.0
sS'DET'
p824
F1.0
s(lp825
g95
atp826
a(S'compagnie'
p827
(dp828
S'NOUN'
p829
F1.0
s(lp830
tp831
a(S'aeree'
p832
(dp833
S'ADJ'
p834
F1.0
s(lp835
g95
atp836
a(S'devono'
p837
(dp838
S'VERB'
p839
F1.0
s(lp840
g101
atp841
a(S'facilitare'
p842
(dp843
S'VERB'
p844
F1.0
s(lp845
g107
atp846
a(S'un'
p847
(dp848
S'PRON'
p849
F0.001888
sS'DEF'
p850
F0.998112
s(lp851
tp852
a(S'incremento'
p853
(dp854
S'VERB'
p855
F1.1e-05
sS'NOUN'
p856
F0.999989
s(lp857
g115
atp858
a(S'della'
p859
(dp860
S'DEF'
p861
F0.001588
sS'ADP'
p862
F0.998412
s(lp863
tp864
a(S'produttivit\xc3\xa0'
p865
(dp866
S'NOUN'
p867
F1.0
s(lp868
g58
atp869
a(g423
(dp870
g234
F1.0
s(lp871
g84
atp872
a(S'fornendo'
p873
(dp874
S'VERB'
p875
F1.0
s(lp876
g77
atp877
a(S'infrastrutture'
p878
(dp879
S'NOUN'
p880
F1.0
s(lp881
g164
atp882
a(S'adeguate'
p883
(dp884
S'VERB'
p885
F0.09463
sS'ADJ'
p886
F0.90537
s(lp887
g170
atp888
a(S'ed'
p889
(dp890
S'CONJ'
p891
F1.0
s(lp892
g176
atp893
a(S'efficienti'
p894
(dp895
S'ADJ'
p896
F1.0
s(lp897
g182
atp898
a(S'e'
p899
(dp900
S'CONJ'
p901
F1.0
s(lp902
g188
atp903
a(S'imponendo'
p904
(dp905
S'VERB'
p906
F1.0
s(lp907
tp908
a(S'solo'
p909
(dp910
S'ADV'
p911
F0.979906
sS'NOUN'
p912
F0.000447
sS'VERB'
p913
F0.000192
sS'ADJ'
p914
F0.019456
s(lp915
g207
atp916
a(S'le'
p917
(dp918
S'PRON'
p919
F6.3e-05
sS'DET'
p920
F0.999937
s(lp921
g232
atp922
a(S'norme'
p923
(dp924
S'NOUN'
p925
F1.0
s(lp926
g225
atp927
a(S'restrittive'
p928
(dp929
S'ADJ'
p930
F1.0
s(lp931
g201
atp932
a(S'necessarie'
p933
(dp934
S'ADJ'
p935
F1.0
s(lp936
g219
atp937
a(g234
(dp938
g234
F1.0
s(lp939
g234
atp940
asS'sk'
p941
(lp942
(S'org\xc3\xa1ny'
p943
(dp944
S'NOUN'
p945
F1.0
s(lp946
g15
atp947
a(S'zodpovedn\xc3\xa9'
p948
(dp949
S'ADJ'
p950
F1.0
s(lp951
g21
atp952
a(S'za'
p953
(dp954
S'X'
p955
F0.002895
sS'ADP'
p956
F0.997064
sS'PRT'
p957
F4.1e-05
s(lp958
g27
atp959
a(S'vytv\xc3\xa1ranie'
p960
(dp961
S'NOUN'
p962
F1.0
s(lp963
g33
atp964
a(S'prostredia'
p965
(dp966
S'NOUN'
p967
F1.0
s(lp968
g47
atp969
a(g423
(dp970
g234
F1.0
s(lp971
tp972
a(S'v'
p973
(dp974
g955
F0.000125
sS'ADP'
p975
F0.999875
s(lp976
g64
atp977
a(S'ktorom'
p978
(dp979
S'PRON'
p980
F1.0
s(lp981
g277
atp982
a(S'pracuj\xc3\xba'
p983
(dp984
S'VERB'
p985
F1.0
s(lp986
g286
atp987
a(S'leteck\xc3\xa9'
p988
(dp989
S'ADJ'
p990
F1.0
s(lp991
tp992
a(S'spolo\xc4\x8dnosti'
p993
(dp994
S'NOUN'
p995
F1.0
s(lp996
g95
atp997
a(g423
(dp998
g234
F1.0
s(lp999
tp1000
a(S'musia'
p1001
(dp1002
S'VERB'
p1003
F1.0
s(lp1004
g101
atp1005
a(S'prostredn\xc3\xadctvom'
p1006
(dp1007
S'NOUN'
p1008
F0.001186
sS'ADP'
p1009
F0.998814
s(lp1010
g84
atp1011
a(S'poskytovania'
p1012
(dp1013
S'NOUN'
p1014
F1.0
s(lp1015
g77
atp1016
a(S'adekv\xc3\xa1tnej'
p1017
(dp1018
S'ADJ'
p1019
F1.0
s(lp1020
g170
atp1021
a(S'a'
p1022
(dp1023
g955
F0.000636
sS'CONJ'
p1024
F0.997733
sS'NOUN'
p1025
F0.001516
sS'ADP'
p1026
F0.000109
sS'PRT'
p1027
F5e-06
s(lp1028
g176
atp1029
a(S'efekt\xc3\xadvnej'
p1030
(dp1031
S'ADJ'
p1032
F1.0
s(lp1033
g182
atp1034
a(S'infra\xc5\xa1trukt\xc3\xbary'
p1035
(dp1036
S'NOUN'
p1037
F1.0
s(lp1038
g164
atp1039
a(g1022
(dp1040
g955
F0.002419
sS'CONJ'
p1041
F0.996639
sS'NOUN'
p1042
F0.000185
sS'ADP'
p1043
F0.000722
sS'PRT'
p1044
F3.4e-05
s(lp1045
g188
atp1046
a(S'stanovenia'
p1047
(dp1048
S'NOUN'
p1049
F1.0
s(lp1050
g201
atp1051
a(S'primeran\xc3\xbdch'
p1052
(dp1053
S'VERB'
p1054
F0.535093
sS'ADJ'
p1055
F0.464907
s(lp1056
g232
atp1057
a(S'regula\xc4\x8dn\xc3\xbdch'
p1058
(dp1059
S'ADJ'
p1060
F1.0
s(lp1061
g225
atp1062
a(S'podmienok'
p1063
(dp1064
S'NOUN'
p1065
F1.0
s(lp1066
g219
atp1067
a(S'umo\xc5\xbeni\xc5\xa5'
p1068
(dp1069
S'VERB'
p1070
F1.0
s(lp1071
g107
atp1072
a(S'vy\xc5\xa1\xc5\xa1iu'
p1073
(dp1074
S'ADJ'
p1075
F1.0
s(lp1076
g115
atp1077
a(S'produktivitu'
p1078
(dp1079
S'NOUN'
p1080
F1.0
s(lp1081
g58
atp1082
a(g234
(dp1083
g234
F1.0
s(lp1084
g234
atp1085
asS'pl'
p1086
(lp1087
(S'organy'
p1088
(dp1089
S'NOUN'
p1090
F1.0000010000000001
s(lp1091
g15
atp1092
a(S'odpowiedzialne'
p1093
(dp1094
S'ADJ'
p1095
F1.0000010000000001
s(lp1096
g21
atp1097
a(S'za'
p1098
(dp1099
S'PRT'
p1100
F0.03371
sS'VERB'
p1101
F0.0005759999999999999
sS'NOUN'
p1102
F5e-06
sS'ADP'
p1103
F0.965706
sg955
F3e-06
s(lp1104
g27
atp1105
a(S'otoczenie'
p1106
(dp1107
S'VERB'
p1108
F0.000358
sS'NOUN'
p1109
F0.999641
s(lp1110
g47
atp1111
a(g423
(dp1112
g955
F0.0
sg234
F1.0
s(lp1113
tp1114
a(S'w'
p1115
(dp1116
S'ADJ'
p1117
F0.0
sg955
F2e-06
sS'NOUN'
p1118
F0.0
sS'ADP'
p1119
F0.999999
s(lp1120
g64
atp1121
a(S'kt\xc3\xb3rym'
p1122
(dp1123
S'ADJ'
p1124
F0.9999979999999999
s(lp1125
g277
atp1126
a(S'dzia\xc5\x82aj\xc4\x85'
p1127
(dp1128
S'VERB'
p1129
F1.0
s(lp1130
g286
atp1131
a(S'linie'
p1132
(dp1133
S'NOUN'
p1134
F1.000001
s(lp1135
tp1136
a(S'lotnicze'
p1137
(dp1138
S'ADJ'
p1139
F0.9999999999999999
s(lp1140
g95
atp1141
a(g423
(dp1142
g955
F0.0
sg234
F1.0
s(lp1143
tp1144
a(S'musz\xc4\x85'
p1145
(dp1146
S'VERB'
p1147
F1.0
s(lp1148
g101
atp1149
a(S'u\xc5\x82atwia\xc4\x87'
p1150
(dp1151
S'VERB'
p1152
F1.0
s(lp1153
g107
atp1154
a(S'osi\xc4\x85ganie'
p1155
(dp1156
S'ADV'
p1157
F0.188801
sS'ADJ'
p1158
F0.007234
sS'VERB'
p1159
F0.6409009999999999
sS'NOUN'
p1160
F0.16306999999999994
s(lp1161
tp1162
a(S'wy\xc5\xbcszej'
p1163
(dp1164
S'ADJ'
p1165
F1.0
s(lp1166
g115
atp1167
a(S'skuteczno\xc5\x9bci'
p1168
(dp1169
S'NOUN'
p1170
F1.0
s(lp1171
g58
atp1172
a(g423
(dp1173
g955
F0.0
sg234
F1.0
s(lp1174
tp1175
a(S'zapewniaj\xc4\x85c'
p1176
(dp1177
S'VERB'
p1178
F1.0
s(lp1179
g77
atp1180
a(S'odpowiedni\xc4\x85'
p1181
(dp1182
S'ADJ'
p1183
F1.0
s(lp1184
g170
atp1185
a(S'i'
p1186
(dp1187
S'PRT'
p1188
F0.003216
sS'CONJ'
p1189
F0.836651
sS'PRON'
p1190
F6e-06
sS'NOUN'
p1191
F0.160027
sg955
F0.000101
s(lp1192
g176
atp1193
a(S'wydajn\xc4\x85'
p1194
(dp1195
S'ADV'
p1196
F0.000785
sS'NOUN'
p1197
F0.0073100000000000005
sS'VERB'
p1198
F0.109189
sS'ADJ'
p1199
F0.8827139999999999
s(lp1200
g182
atp1201
a(S'infrastruktur\xc4\x99'
p1202
(dp1203
S'NOUN'
p1204
F1.0
s(lp1205
g164
atp1206
a(g1186
(dp1207
S'PRT'
p1208
F0.003434
sS'CONJ'
p1209
F0.996517
sS'PRON'
p1210
F0.0
sS'NOUN'
p1211
F3.5e-05
sg955
F1.4e-05
s(lp1212
g188
atp1213
a(S'narzucaj\xc4\x85c'
p1214
(dp1215
S'ADV'
p1216
F0.000759
sS'ADJ'
p1217
F0.00030199999999999997
sS'VERB'
p1218
F0.9976040000000002
sS'NOUN'
p1219
F0.001336
s(lp1220
g201
atp1221
a(S'jedynie'
p1222
(dp1223
S'PRT'
p1224
F1.0
s(lp1225
g207
atp1226
a(S'w\xc5\x82a\xc5\x9bciwe'
p1227
(dp1228
S'PRT'
p1229
F0.002934
sS'ADJ'
p1230
F0.997066
s(lp1231
g232
atp1232
a(S'warunki'
p1233
(dp1234
S'NOUN'
p1235
F0.9999989999999999
s(lp1236
g219
atp1237
a(S'prawne'
p1238
(dp1239
S'ADJ'
p1240
F1.0
s(lp1241
g225
atp1242
a(g234
(dp1243
g234
F1.0
s(lp1244
g234
atp1245
asS'sl'
p1246
(lp1247
(S'organi'
p1248
(dp1249
S'NOUN'
p1250
F1.0
s(lp1251
g15
atp1252
a(g423
(dp1253
g234
F1.0
s(lp1254
tp1255
a(S'odgovorni'
p1256
(dp1257
S'ADJ'
p1258
F1.0
s(lp1259
g21
atp1260
a(S'za'
p1261
(dp1262
S'ADV'
p1263
F2e-05
sg955
F1e-06
sS'ADP'
p1264
F0.999979
s(lp1265
g27
atp1266
a(S'zagotavljanje'
p1267
(dp1268
S'NOUN'
p1269
F1.0
s(lp1270
g33
atp1271
a(S'okolja'
p1272
(dp1273
S'NOUN'
p1274
F1.0
s(lp1275
g47
atp1276
a(g423
(dp1277
g234
F1.0
s(lp1278
tp1279
a(g973
(dp1280
S'ADP'
p1281
F1.0
s(lp1282
g64
atp1283
a(S'katerem'
p1284
(dp1285
S'PRON'
p1286
F1.0
s(lp1287
g277
atp1288
a(S'letalske'
p1289
(dp1290
S'ADJ'
p1291
F1.0
s(lp1292
tp1293
a(S'dru\xc5\xbebe'
p1294
(dp1295
S'NOUN'
p1296
F1.0
s(lp1297
g95
atp1298
a(S'delujejo'
p1299
(dp1300
S'VERB'
p1301
F1.0
s(lp1302
g286
atp1303
a(g423
(dp1304
g234
F1.0
s(lp1305
tp1306
a(S'morajo'
p1307
(dp1308
S'VERB'
p1309
F1.0
s(lp1310
g101
atp1311
a(S'spodbujati'
p1312
(dp1313
S'VERB'
p1314
F1.0
s(lp1315
g107
atp1316
a(S've\xc4\x8djo'
p1317
(dp1318
S'ADJ'
p1319
F1.0
s(lp1320
g115
atp1321
a(S'produktivnost'
p1322
(dp1323
S'NOUN'
p1324
F1.0
s(lp1325
g58
atp1326
a(S'z'
p1327
(dp1328
S'ADP'
p1329
F1.0
s(lp1330
g84
atp1331
a(S'zagotavljanjem'
p1332
(dp1333
S'NOUN'
p1334
F1.0
s(lp1335
g77
atp1336
a(S'primerne'
p1337
(dp1338
S'ADJ'
p1339
F1.000001
s(lp1340
g170
atp1341
a(S'in'
p1342
(dp1343
S'ADV'
p1344
F2.4e-05
sg955
F2e-05
sS'CONJ'
p1345
F0.999923
sS'NOUN'
p1346
F3.3e-05
s(lp1347
g176
atp1348
a(S'u\xc4\x8dinkovite'
p1349
(dp1350
S'ADJ'
p1351
F1.0
s(lp1352
g182
atp1353
a(S'infrastrukture'
p1354
(dp1355
S'NOUN'
p1356
F1.0
s(lp1357
g164
atp1358
a(S'ter'
p1359
(dp1360
S'CONJ'
p1361
F1.0
s(lp1362
g188
atp1363
a(S'dolo\xc4\x8danjem'
p1364
(dp1365
S'ADV'
p1366
F0.007369
sS'ADJ'
p1367
F0.005722
sS'VERB'
p1368
F0.0461
sS'NOUN'
p1369
F0.94081
s(lp1370
g201
atp1371
a(S'le'
p1372
(dp1373
S'PRT'
p1374
F0.998792
sg955
F0.001208
s(lp1375
g207
atp1376
a(S'primernih'
p1377
(dp1378
S'ADJ'
p1379
F1.0
s(lp1380
g232
atp1381
a(S'regulativnih'
p1382
(dp1383
S'ADV'
p1384
F0.0
sS'NOUN'
p1385
F0.0010379999999999996
sS'VERB'
p1386
F0.0
sS'ADJ'
p1387
F0.998958
s(lp1388
g225
atp1389
a(S'pogojev'
p1390
(dp1391
S'NOUN'
p1392
F1.0
s(lp1393
g219
atp1394
a(g234
(dp1395
g234
F1.0
s(lp1396
g234
atp1397
asS'es'
p1398
(lp1399
(S'los'
p1400
(dp1401
S'PRON'
p1402
F2.7e-05
sS'DET'
p1403
F0.999973
s(lp1404
g9
atp1405
a(S'organismos'
p1406
(dp1407
S'NOUN'
p1408
F1.0
s(lp1409
g15
atp1410
a(S'responsables'
p1411
(dp1412
S'ADJ'
p1413
F1.0
s(lp1414
g21
atp1415
a(S'de'
p1416
(dp1417
g955
F0.0
sS'CONJ'
p1418
F0.63617
sS'ADP'
p1419
F0.36383
s(lp1420
g27
atp1421
a(S'proporcionar'
p1422
(dp1423
S'VERB'
p1424
F1.0
s(lp1425
g33
atp1426
a(S'el'
p1427
(dp1428
S'PRON'
p1429
F0.0
sS'DET'
p1430
F1.0
s(lp1431
g41
atp1432
a(S'entorno'
p1433
(dp1434
S'NOUN'
p1435
F1.0
s(lp1436
tp1437
a(S'en'
p1438
(dp1439
g955
F0.0
sS'CONJ'
p1440
F0.0
sS'ADP'
p1441
F1.0
s(lp1442
g64
atp1443
a(S'el'
p1444
(dp1445
S'PRON'
p1446
F0.000544
sS'DET'
p1447
F0.999456
s(lp1448
tp1449
a(S'que'
p1450
(dp1451
g955
F2e-06
sS'CONJ'
p1452
F0.999998
s(lp1453
g277
atp1454
a(S'operan'
p1455
(dp1456
S'VERB'
p1457
F1.0
s(lp1458
g286
atp1459
a(S'las'
p1460
(dp1461
S'PRON'
p1462
F0.0
sS'DET'
p1463
F1.0
s(lp1464
g95
atp1465
a(S'compa\xc3\xb1\xc3\xadas'
p1466
(dp1467
S'NOUN'
p1468
F1.0
s(lp1469
tp1470
a(S'a\xc3\xa9reas'
p1471
(dp1472
S'ADJ'
p1473
F1.0
s(lp1474
g95
atp1475
a(S'deben'
p1476
(dp1477
S'VERB'
p1478
F1.0
s(lp1479
g101
atp1480
a(S'facilitar'
p1481
(dp1482
S'VERB'
p1483
F1.0
s(lp1484
g107
atp1485
a(S'una'
p1486
(dp1487
S'DET'
p1488
F1.0
s(lp1489
tp1490
a(S'mayor'
p1491
(dp1492
S'ADJ'
p1493
F1.0
s(lp1494
g115
atp1495
a(S'productividad'
p1496
(dp1497
S'NOUN'
p1498
F1.0
s(lp1499
g58
atp1500
a(S'por'
p1501
(dp1502
S'ADP'
p1503
F1.0
s(lp1504
g84
atp1505
a(S'medio'
p1506
(dp1507
S'ADP'
p1508
F1.0
s(lp1509
g47
atp1510
a(S'de'
p1511
(dp1512
S'ADP'
p1513
F1.0
s(lp1514
tp1515
a(S'la'
p1516
(dp1517
S'NOUN'
p1518
F0.0
sS'PRON'
p1519
F0.0
sS'DET'
p1520
F0.999999
sg955
F0.0
s(lp1521
tp1522
a(S'provisi\xc3\xb3n'
p1523
(dp1524
S'NOUN'
p1525
F1.0
s(lp1526
g77
atp1527
a(S'de'
p1528
(dp1529
g955
F0.0
sS'CONJ'
p1530
F1.7e-05
sS'ADP'
p1531
F0.999983
s(lp1532
g84
atp1533
a(S'una'
p1534
(dp1535
S'DET'
p1536
F1.0
s(lp1537
tp1538
a(S'infraestructura'
p1539
(dp1540
S'NOUN'
p1541
F1.0
s(lp1542
g164
atp1543
a(S'adecuada'
p1544
(dp1545
S'VERB'
p1546
F0.273832
sS'ADJ'
p1547
F0.726168
s(lp1548
g170
atp1549
a(S'y'
p1550
(dp1551
g955
F0.0005
sS'CONJ'
p1552
F0.9995
s(lp1553
g176
atp1554
a(S'eficaz'
p1555
(dp1556
S'ADJ'
p1557
F1.0
s(lp1558
g182
atp1559
a(g423
(dp1560
g234
F1.0
s(lp1561
tp1562
a(g899
(dp1563
g955
F0.003055
sS'CONJ'
p1564
F0.996945
sS'ADP'
p1565
F0.0
s(lp1566
g188
atp1567
a(S'imponiendo'
p1568
(dp1569
S'VERB'
p1570
F1.0
s(lp1571
g201
atp1572
a(S'\xc3\xbanicamente'
p1573
(dp1574
S'ADV'
p1575
F1.0
s(lp1576
g207
atp1577
a(S'las'
p1578
(dp1579
S'PRON'
p1580
F0.000139
sS'DET'
p1581
F0.999861
s(lp1582
tp1583
a(S'condiciones'
p1584
(dp1585
S'NOUN'
p1586
F1.0
s(lp1587
g219
atp1588
a(S'de'
p1589
(dp1590
g955
F2.9e-05
sS'CONJ'
p1591
F0.000449
sS'ADP'
p1592
F0.999522
s(lp1593
tp1594
a(S'reglamentaci\xc3\xb3n'
p1595
(dp1596
S'NOUN'
p1597
F1.0
s(lp1598
g225
atp1599
a(S'apropiadas'
p1600
(dp1601
S'ADJ'
p1602
F1.0
s(lp1603
g232
atp1604
a(g234
(dp1605
g234
F1.0
s(lp1606
g234
atp1607
as.