(dp0
S'fr'
p1
(lp2
(S'monsieur'
p3
(dp4
S'NOUN'
p5
F1.0
s(lp6
S'mr'
p7
atp8
a(S'le'
p9
(dp10
S'PRON'
p11
F0.000321
sS'DET'
p12
F0.999679
s(lp13
tp14
a(S'pr\xc3\xa9sident'
p15
(dp16
S'VERB'
p17
F4.5e-05
sS'NOUN'
p18
F0.999955
s(lp19
S'president'
p20
atp21
a(S','
p22
(dp23
S'.'
p24
F1.0
s(lp25
g22
atp26
a(S'permettez-moi'
p27
(dp28
S'VERB'
p29
F1.0
s(lp30
S'i'
p31
atp32
a(S'de'
p33
(dp34
S'ADP'
p35
F1.0
s(lp36
S'to'
p37
atp38
a(S'commencer'
p39
(dp40
S'VERB'
p41
F1.0
s(lp42
S'start'
p43
atp44
a(S'en'
p45
(dp46
S'PRON'
p47
F0.099488
sS'ADP'
p48
F0.900512
s(lp49
S'by'
p50
atp51
a(S'remerciant'
p52
(dp53
S'VERB'
p54
F1.0
s(lp55
S'thanking'
p56
atp57
a(S'et'
p58
(dp59
S'CONJ'
p60
F1.0
s(lp61
S'and'
p62
atp63
a(S'en'
p64
(dp65
S'PRON'
p66
F0.736628
sS'ADP'
p67
F0.263372
s(lp68
tp69
a(S'f\xc3\xa9licitant'
p70
(dp71
S'ADJ'
p72
F0.000699
sS'VERB'
p73
F0.99277
sS'NOUN'
p74
F0.006531
s(lp75
S'congratulating'
p76
atp77
a(S'les'
p78
(dp79
S'PRON'
p80
F9e-06
sS'DET'
p81
F0.999957
sS'ADP'
p82
F3.4e-05
s(lp83
S'the'
p84
atp85
a(S'rapporteurs'
p86
(dp87
S'NOUN'
p88
F0.499736
sS'ADJ'
p89
F0.500264
s(lp90
S'rapporteurs'
p91
atp92
a(g22
(dp93
g24
F1.0
s(lp94
g22
atp95
a(S'mme'
p96
(dp97
S'NOUN'
p98
F0.048287
sS'VERB'
p99
F0.8937669999999999
sS'ADJ'
p100
F0.057946
s(lp101
S'mrs'
p102
atp103
a(S'mcavan'
p104
(dp105
S'ADJ'
p106
F0.380367
sS'VERB'
p107
F0.000699
sS'NOUN'
p108
F0.618933
s(lp109
S'mcavan'
p110
atp111
a(S'et'
p112
(dp113
S'CONJ'
p114
F1.0
s(lp115
S'and'
p116
atp117
a(S'm.'
p118
(dp119
S'X'
p120
F0.008128
sS'VERB'
p121
F0.944377
sS'ADJ'
p122
F0.045604
sS'NOUN'
p123
F0.001892
s(lp124
S'mr'
p125
atp126
a(S'tatarella'
p127
(dp128
S'ADJ'
p129
F0.00583
sS'VERB'
p130
F0.000425
sS'NOUN'
p131
F0.993745
s(lp132
S'tatarella'
p133
atp134
a(g22
(dp135
g24
F1.0
s(lp136
g22
atp137
a(S'pour'
p138
(dp139
S'CONJ'
p140
F0.168968
sS'ADP'
p141
F0.831032
s(lp142
S'on'
p143
atp144
a(S'leurs'
p145
(dp146
S'PRON'
p147
F1.0
s(lp148
S'their'
p149
atp150
a(S'excellents'
p151
(dp152
S'ADJ'
p153
F1.0
s(lp154
S'excellent'
p155
atp156
a(S'rapports'
p157
(dp158
S'NOUN'
p159
F1.0
s(lp160
S'reports'
p161
atp162
a(S'sur'
p163
(dp164
S'ADP'
p165
F1.0
s(lp166
S'on'
p167
atp168
a(S'la'
p169
(dp170
S'PRON'
p171
F1.2e-05
sS'DET'
p172
F0.999988
sS'NOUN'
p173
F0.0
s(lp174
S'the'
p175
atp176
a(S'proposition'
p177
(dp178
S'NOUN'
p179
F1.0
s(lp180
S'proposed'
p181
atp182
a(S'de'
p183
(dp184
S'ADP'
p185
F1.0
s(lp186
tp187
a(S'r\xc3\xa9vision'
p188
(dp189
S'NOUN'
p190
F1.0
s(lp191
S'review'
p192
atp193
a(S'du'
p194
(dp195
S'ADP'
p196
F1.0
s(lp197
S'of'
p198
atp199
a(S'syst\xc3\xa8me'
p200
(dp201
S'NOUN'
p202
F1.0
s(lp203
S'scheme'
p204
atp205
a(S'de'
p206
(dp207
S'ADP'
p208
F1.0
s(lp209
tp210
a(S'label'
p211
(dp212
S'NOUN'
p213
F1.0
s(lp214
tp215
a(S'\xc3\xa9cologique'
p216
(dp217
S'ADJ'
p218
F1.0
s(lp219
S'ecolabel'
p220
atp221
a(S'communautaire'
p222
(dp223
S'ADJ'
p224
F1.0
s(lp225
S'community'
p226
atp227
a(S'et'
p228
(dp229
S'CONJ'
p230
F1.0
s(lp231
S'and'
p232
atp233
a(S'du'
p234
(dp235
S'ADP'
p236
F1.0
s(lp237
g198
atp238
a(S'syst\xc3\xa8me'
p239
(dp240
S'NOUN'
p241
F1.0
s(lp242
S'eco-management'
p243
atp244
a(S'communautaire'
p245
(dp246
S'ADJ'
p247
F1.0
s(lp248
g243
atp249
a(S'de'
p250
(dp251
S'ADP'
p252
F1.0
s(lp253
tp254
a(S'management'
p255
(dp256
S'NOUN'
p257
F1.0
s(lp258
tp259
a(S'environnemental'
p260
(dp261
S'ADJ'
p262
F1.0
s(lp263
g243
atp264
a(S'et'
p265
(dp266
S'CONJ'
p267
F1.0
s(lp268
S'and'
p269
atp270
a(S"d'"
p271
(dp272
S'NOUN'
p273
F0.050387
sS'VERB'
p274
F0.8915730000000001
sS'ADJ'
p275
F0.05804
s(lp276
tp277
a(S'audit'
p278
(dp279
S'NOUN'
p280
F1.0
s(lp281
S'audit'
p282
atp283
a(g24
(dp284
g24
F1.0
s(lp285
g24
atp286
asS'en'
p287
(lp288
(S'\xce\x9cember'
p289
(dp290
S'ADJ'
p291
F0.027507
sS'VERB'
p292
F0.001594
sS'NOUN'
p293
F0.9708979999999999
s(lp294
g289
atp295
a(S'of'
p296
(dp297
S'ADP'
p298
F1.0
s(lp299
g296
atp300
a(S'the'
p301
(dp302
S'NOUN'
p303
F1e-06
sS'DET'
p304
F0.999999
s(lp305
g301
atp306
a(S'commission'
p307
(dp308
S'VERB'
p309
F8e-06
sS'NOUN'
p310
F0.999992
s(lp311
g307
atp312
a(g24
(dp313
g24
F1.0
s(lp314
g24
atp315
a(S'-'
p316
(dp317
g24
F1.0
s(lp318
g316
atp319
a(S'('
p320
(dp321
g24
F1.0
s(lp322
g320
atp323
a(S'el'
p324
(dp325
S'NOUN'
p326
F1.0
s(lp327
g324
atp328
a(S')'
p329
(dp330
g24
F1.0
s(lp331
g329
atp332
a(g7
(dp333
S'ADJ'
p334
F0.004952
sS'NOUN'
p335
F0.995048
s(lp336
g7
atp337
a(g20
(dp338
S'NOUN'
p339
F1.0
s(lp340
g20
atp341
a(g22
(dp342
g24
F1.0
s(lp343
g22
atp344
a(g31
(dp345
g120
F0.177708
sS'NOUN'
p346
F0.822292
s(lp347
g31
atp348
a(S'should'
p349
(dp350
S'VERB'
p351
F1.0
s(lp352
g349
atp353
a(S'like'
p354
(dp355
S'VERB'
p356
F0.9997360000000001
sS'ADJ'
p357
F3.1e-05
sS'ADP'
p358
F0.000233
s(lp359
g354
atp360
a(g37
(dp361
S'ADV'
p362
F0.0
sS'PRT'
p363
F1.0
sS'ADP'
p364
F0.0
s(lp365
g37
atp366
a(g43
(dp367
S'VERB'
p368
F0.978933
sS'NOUN'
p369
F0.021067
s(lp370
g43
atp371
a(g50
(dp372
S'ADV'
p373
F0.001367
sS'NOUN'
p374
F1e-06
sS'ADP'
p375
F0.998633
s(lp376
g50
atp377
a(g56
(dp378
S'VERB'
p379
F1.0
s(lp380
g56
atp381
a(g62
(dp382
S'CONJ'
p383
F0.999998
sS'NOUN'
p384
F2e-06
s(lp385
g62
atp386
a(g76
(dp387
S'VERB'
p388
F1.0
s(lp389
g76
atp390
a(g84
(dp391
S'NOUN'
p392
F8e-06
sS'DET'
p393
F0.999992
s(lp394
g84
atp395
a(g91
(dp396
S'NOUN'
p397
F1.0
s(lp398
g91
atp399
a(g22
(dp400
g24
F1.0
s(lp401
g22
atp402
a(g102
(dp403
S'ADV'
p404
F0.025241
sS'NOUN'
p405
F0.230611
sS'VERB'
p406
F0.210444
sS'ADJ'
p407
F0.533704
s(lp408
g102
atp409
a(g110
(dp410
S'ADJ'
p411
F0.093835
sS'NOUN'
p412
F0.906165
s(lp413
g110
atp414
a(g116
(dp415
S'CONJ'
p416
F0.99998
sS'NOUN'
p417
F2e-05
s(lp418
g116
atp419
a(g125
(dp420
S'ADJ'
p421
F0.029641
sS'NOUN'
p422
F0.970359
s(lp423
g125
atp424
a(g133
(dp425
S'ADJ'
p426
F0.000113
sS'VERB'
p427
F0.000181
sS'NOUN'
p428
F0.999707
s(lp429
g133
atp430
a(g22
(dp431
g24
F1.0
s(lp432
g22
atp433
a(g143
(dp434
S'ADV'
p435
F0.002553
sS'PRT'
p436
F1e-06
sS'ADJ'
p437
F0.0
sS'ADP'
p438
F0.997445
sS'NOUN'
p439
F0.0
s(lp440
g143
atp441
a(g149
(dp442
S'PRON'
p443
F1.0
s(lp444
g149
atp445
a(g155
(dp446
S'ADJ'
p447
F1.0
s(lp448
g155
atp449
a(g161
(dp450
S'VERB'
p451
F0.000323
sS'NOUN'
p452
F0.999677
s(lp453
g161
atp454
a(g167
(dp455
S'ADV'
p456
F0.000758
sS'PRT'
p457
F0.000446
sS'ADJ'
p458
F0.0
sS'ADP'
p459
F0.998796
sS'NOUN'
p460
F0.0
s(lp461
g167
atp462
a(g175
(dp463
S'NOUN'
p464
F6e-06
sS'DET'
p465
F0.999994
s(lp466
g175
atp467
a(g181
(dp468
S'VERB'
p469
F0.925123
sS'ADJ'
p470
F0.074878
s(lp471
g181
atp472
a(g192
(dp473
S'VERB'
p474
F0.004099
sS'NOUN'
p475
F0.995901
s(lp476
g192
atp477
a(g198
(dp478
S'ADP'
p479
F1.0
s(lp480
g198
atp481
a(S'the'
p482
(dp483
S'NOUN'
p484
F1e-06
sS'DET'
p485
F0.999999
s(lp486
g482
atp487
a(g226
(dp488
S'NOUN'
p489
F1.0
s(lp490
g226
atp491
a(g220
(dp492
S'ADJ'
p493
F0.000324
sS'NOUN'
p494
F0.9996749999999999
s(lp495
g220
atp496
a(g232
(dp497
S'CONJ'
p498
F0.999998
sS'NOUN'
p499
F2e-06
s(lp500
g232
atp501
a(g243
(dp502
S'ADJ'
p503
F0.043536
sS'NOUN'
p504
F0.956464
s(lp505
g243
atp506
a(g269
(dp507
S'CONJ'
p508
F0.999998
sS'NOUN'
p509
F2e-06
s(lp510
g269
atp511
a(g282
(dp512
S'VERB'
p513
F0.28356
sS'NOUN'
p514
F0.716439
s(lp515
g282
atp516
a(g204
(dp517
S'VERB'
p518
F0.00040899999999999997
sS'NOUN'
p519
F0.99959
s(lp520
g204
atp521
a(g24
(dp522
g24
F1.0
s(lp523
g24
atp524
asS'nl'
p525
(lp526
(S'mijnheer'
p527
(dp528
S'NOUN'
p529
F1.0
s(lp530
g289
atp531
a(S'de'
p532
(dp533
S'DET'
p534
F1.0
s(lp535
g301
atp536
a(S'voorzitter'
p537
(dp538
S'NOUN'
p539
F1.0
s(lp540
g20
atp541
a(g22
(dp542
g24
F1.0
s(lp543
g22
atp544
a(S'allereerst'
p545
(dp546
S'ADJ'
p547
F1.0
s(lp548
g43
atp549
a(S'wil'
p550
(dp551
S'VERB'
p552
F0.986989
sS'NOUN'
p553
F0.013011
s(lp554
g56
atp555
a(S'ik'
p556
(dp557
S'PRON'
p558
F0.999998
sS'NOUN'
p559
F2e-06
s(lp560
g31
atp561
a(S'de'
p562
(dp563
S'DET'
p564
F1.0
s(lp565
g84
atp566
a(S'rapporteurs'
p567
(dp568
S'NOUN'
p569
F1.0
s(lp570
g91
atp571
a(g22
(dp572
g24
F1.0
s(lp573
g22
atp574
a(S'mevrouw'
p575
(dp576
S'NOUN'
p577
F1.0
s(lp578
g102
atp579
a(S'mcavan'
p580
(dp581
S'NOUN'
p582
F1.0
s(lp583
g110
atp584
a(S'en'
p585
(dp586
S'CONJ'
p587
F1.0
s(lp588
g116
atp589
a(S'de'
p590
(dp591
S'DET'
p592
F1.0
s(lp593
tp594
a(S'heer'
p595
(dp596
S'NOUN'
p597
F1.0
s(lp598
g125
atp599
a(S'tatarella'
p600
(dp601
S'NOUN'
p602
F1.0
s(lp603
g133
atp604
a(g22
(dp605
g24
F1.0
s(lp606
g22
atp607
a(S'van'
p608
(dp609
S'ADP'
p610
F1.0
s(lp611
g143
atp612
a(S'harte'
p613
(dp614
S'ADJ'
p615
F0.118135
sS'NOUN'
p616
F0.881864
s(lp617
g76
atp618
a(S'gelukwensen'
p619
(dp620
S'VERB'
p621
F0.903458
sS'NOUN'
p622
F0.096542
s(lp623
tp624
a(S'met'
p625
(dp626
S'ADP'
p627
F1.0
s(lp628
g76
atp629
a(S'hun'
p630
(dp631
S'PRON'
p632
F1.0
s(lp633
g149
atp634
a(S'uitstekende'
p635
(dp636
S'NOUN'
p637
F6.4e-05
sS'VERB'
p638
F0.153288
sS'ADJ'
p639
F0.846649
s(lp640
g155
atp641
a(S'verslagen'
p642
(dp643
S'ADJ'
p644
F3.4e-05
sS'VERB'
p645
F0.00191
sS'NOUN'
p646
F0.998056
s(lp647
g161
atp648
a(S'over'
p649
(dp650
S'ADV'
p651
F0.017615
sS'ADP'
p652
F0.982385
s(lp653
g167
atp654
a(S'de'
p655
(dp656
S'DET'
p657
F1.0
s(lp658
g175
atp659
a(S'voorstellen'
p660
(dp661
S'VERB'
p662
F1e-06
sS'NOUN'
p663
F0.999999
s(lp664
g181
atp665
a(S'tot'
p666
(dp667
S'CONJ'
p668
F1.4e-05
sS'ADP'
p669
F0.999986
s(lp670
tp671
a(S'herziening'
p672
(dp673
S'NOUN'
p674
F1.0
s(lp675
g192
atp676
a(S'van'
p677
(dp678
S'ADP'
p679
F1.0
s(lp680
g198
atp681
a(S'het'
p682
(dp683
S'PRON'
p684
F0.000927
sS'DET'
p685
F0.999073
s(lp686
g482
atp687
a(S'systeem'
p688
(dp689
S'NOUN'
p690
F1.0
s(lp691
tp692
a(S'voor'
p693
(dp694
S'ADV'
p695
F0.001032
sS'CONJ'
p696
F1e-06
sS'NOUN'
p697
F0.0
sS'ADP'
p698
F0.998967
s(lp699
g204
atp700
a(S'toekenning'
p701
(dp702
S'NOUN'
p703
F1.0
s(lp704
tp705
a(S'van'
p706
(dp707
S'ADP'
p708
F1.0
s(lp709
g198
atp710
a(S'milieukeuren'
p711
(dp712
S'NOUN'
p713
F1.0
s(lp714
g220
atp715
a(S'van'
p716
(dp717
S'ADP'
p718
F1.0
s(lp719
tp720
a(S'de'
p721
(dp722
S'DET'
p723
F1.0
s(lp724
tp725
a(S'europese'
p726
(dp727
S'NOUN'
p728
F1.0
s(lp729
tp730
a(S'unie'
p731
(dp732
S'NOUN'
p733
F1.0
s(lp734
g226
atp735
a(S'en'
p736
(dp737
S'CONJ'
p738
F1.0
s(lp739
g232
atp740
a(S'van'
p741
(dp742
S'ADP'
p743
F1.0
s(lp744
g198
atp745
a(S'het'
p746
(dp747
S'PRON'
p748
F0.00582
sS'DET'
p749
F0.994181
s(lp750
g482
atp751
a(S'communautair'
p752
(dp753
S'ADJ'
p754
F1.0
s(lp755
tp756
a(S'milieubeheer-'
p757
(dp758
S'ADJ'
p759
F0.019077
sS'NOUN'
p760
F0.980923
s(lp761
g243
atp762
a(S'en'
p763
(dp764
S'CONJ'
p765
F1.0
s(lp766
g269
atp767
a(S'milieuauditsysteem'
p768
(dp769
S'NOUN'
p770
F1.0
s(lp771
g282
atp772
a(g24
(dp773
g24
F1.0
s(lp774
g24
atp775
asS'de'
p776
(lp777
(S'mitglied'
p778
(dp779
S'ADJ'
p780
F0.322771
sS'NOUN'
p781
F0.661941
s(lp782
g289
atp783
a(S'der'
p784
(dp785
S'PRON'
p786
F0.000229
sS'DET'
p787
F0.999687
s(lp788
g301
atp789
a(S'kommission'
p790
(dp791
S'ADJ'
p792
F0.048854
sS'NOUN'
p793
F0.944588
s(lp794
g307
atp795
a(g24
(dp796
g24
F1.0
s(lp797
g24
atp798
a(g316
(dp799
g24
F1.0
s(lp800
g316
atp801
a(g320
(dp802
g24
F1.0
s(lp803
g320
atp804
a(S'el'
p805
(dp806
S'NOUN'
p807
F1.0
s(lp808
g324
atp809
a(g329
(dp810
g24
F1.0
s(lp811
g329
atp812
a(S'herr'
p813
(dp814
S'ADJ'
p815
F0.19898
sS'NOUN'
p816
F0.770496
s(lp817
g7
atp818
a(S'pr\xc3\xa4sident'
p819
(dp820
S'VERB'
p821
F0.05857
sS'NOUN'
p822
F0.928761
s(lp823
tp824
a(S'!'
p825
(dp826
g24
F1.0
s(lp827
g20
atp828
a(S'zun\xc3\xa4chst'
p829
(dp830
S'ADV'
p831
F0.999942
sS'ADP'
p832
F5.8e-05
s(lp833
g43
atp834
a(S'm\xc3\xb6chte'
p835
(dp836
S'VERB'
p837
F1.0
s(lp838
g354
atp839
a(S'ich'
p840
(dp841
S'PRON'
p842
F1.0
s(lp843
g31
atp844
a(S'mich'
p845
(dp846
S'PRON'
p847
F1.0
s(lp848
tp849
a(S'bei'
p850
(dp851
S'PRT'
p852
F1e-05
sS'ADP'
p853
F0.99999
s(lp854
g56
atp855
a(S'den'
p856
(dp857
S'PRON'
p858
F0.000327
sS'DET'
p859
F0.99967
s(lp860
g84
atp861
a(S'berichterstattern'
p862
(dp863
S'ADJ'
p864
F0.014733
sS'NOUN'
p865
F0.982968
s(lp866
g91
atp867
a(g22
(dp868
g24
F1.0
s(lp869
g22
atp870
a(S'linda'
p871
(dp872
S'VERB'
p873
F0.013913
sS'NOUN'
p874
F0.98435
s(lp875
tp876
a(S'mcavan'
p877
(dp878
S'NOUN'
p879
F0.9989060000000001
s(lp880
g110
atp881
a(S'und'
p882
(dp883
S'CONJ'
p884
F1.0
s(lp885
g116
atp886
a(S'salvatore'
p887
(dp888
S'NOUN'
p889
F0.984369
s(lp890
g133
atp891
a(S'tatarella'
p892
(dp893
S'ADJ'
p894
F0.241421
sS'NOUN'
p895
F0.67563
s(lp896
g133
atp897
a(g22
(dp898
g24
F1.0
s(lp899
g22
atp900
a(S'bedanken'
p901
(dp902
S'VERB'
p903
F1.0
s(lp904
tp905
a(S'und'
p906
(dp907
S'CONJ'
p908
F1.0
s(lp909
g62
atp910
a(S'ihnen'
p911
(dp912
S'PRON'
p913
F1.0
s(lp914
g133
atp915
a(S'zu'
p916
(dp917
S'PRT'
p918
F0.005073
sS'ADP'
p919
F0.993072
s(lp920
g143
atp921
a(S'ihren'
p922
(dp923
S'PRON'
p924
F1.0
s(lp925
g149
atp926
a(S'hervorragenden'
p927
(dp928
S'ADJ'
p929
F1.0
s(lp930
g155
atp931
a(S'berichten'
p932
(dp933
S'VERB'
p934
F1.0
s(lp935
g161
atp936
a(S'\xc3\xbcber'
p937
(dp938
S'PRT'
p939
F6.6e-05
sS'ADP'
p940
F0.999934
s(lp941
g167
atp942
a(S'die'
p943
(dp944
S'PRON'
p945
F0.000218
sS'DET'
p946
F0.999766
s(lp947
g175
atp948
a(S'vorgeschlagene'
p949
(dp950
S'ADJ'
p951
F1.0
s(lp952
g181
atp953
a(S'\xc3\x9cberpr\xc3\xbcfung'
p954
(dp955
S'NOUN'
p956
F1.0
s(lp957
g192
atp958
a(S'der'
p959
(dp960
S'PRON'
p961
F2e-05
sS'DET'
p962
F0.999972
s(lp963
g198
atp964
a(S'regelung'
p965
(dp966
S'ADJ'
p967
F0.000133
sS'NOUN'
p968
F0.999757
s(lp969
g220
atp970
a(S'f\xc3\xbcr'
p971
(dp972
S'ADP'
p973
F1.0
s(lp974
tp975
a(S'das'
p976
(dp977
S'PRON'
p978
F0.006262
sS'DET'
p979
F0.993723
s(lp980
tp981
a(S'umweltzeichen'
p982
(dp983
S'ADJ'
p984
F1.0
s(lp985
g220
atp986
a(S'der'
p987
(dp988
S'PRON'
p989
F0.001292
sS'DET'
p990
F0.998662
s(lp991
g482
atp992
a(S'gemeinschaft'
p993
(dp994
S'ADJ'
p995
F0.002341
sS'NOUN'
p996
F0.99751
s(lp997
g226
atp998
a(S'und'
p999
(dp1000
S'CONJ'
p1001
F1.0
s(lp1002
g232
atp1003
a(S'des'
p1004
(dp1005
S'DET'
p1006
F1.0
s(lp1007
g198
atp1008
a(S'gemeinschaftssystems'
p1009
(dp1010
S'ADJ'
p1011
F0.000133
sS'NOUN'
p1012
F0.999758
s(lp1013
g243
atp1014
a(S'f\xc3\xbcr'
p1015
(dp1016
S'ADP'
p1017
F1.0
s(lp1018
tp1019
a(S'umweltmanagement'
p1020
(dp1021
S'ADJ'
p1022
F0.281702
sS'NOUN'
p1023
F0.674898
s(lp1024
g243
atp1025
a(S'und'
p1026
(dp1027
S'CONJ'
p1028
F1.0
s(lp1029
g269
atp1030
a(S'umweltbetriebspr\xc3\xbcfung'
p1031
(dp1032
S'ADJ'
p1033
F0.439825
sS'NOUN'
p1034
F0.548333
s(lp1035
g282
atp1036
a(S'gratulieren'
p1037
(dp1038
S'VERB'
p1039
F1.0
s(lp1040
g76
atp1041
a(g24
(dp1042
g24
F1.0
s(lp1043
g24
atp1044
asS'it'
p1045
(lp1046
(S'membro'
p1047
(dp1048
S'NOUN'
p1049
F1.0
s(lp1050
g289
atp1051
a(S'della'
p1052
(dp1053
S'DEF'
p1054
F0.001587
sS'ADP'
p1055
F0.998413
s(lp1056
g296
atp1057
a(S'commissione'
p1058
(dp1059
S'NOUN'
p1060
F1.0
s(lp1061
g307
atp1062
a(g24
(dp1063
g24
F1.0
s(lp1064
g24
atp1065
a(g316
(dp1066
g120
F1.8e-05
sg24
F0.999982
s(lp1067
g316
atp1068
a(g320
(dp1069
g24
F1.0
s(lp1070
g320
atp1071
a(S'el'
p1072
(dp1073
S'ADJ'
p1074
F0.044031
sS'VERB'
p1075
F0.025928
sS'NOUN'
p1076
F0.930042
s(lp1077
g324
atp1078
a(g329
(dp1079
g24
F1.0
s(lp1080
g329
atp1081
a(S'signor'
p1082
(dp1083
S'NOUN'
p1084
F1.0
s(lp1085
g7
atp1086
a(S'presidente'
p1087
(dp1088
S'NOUN'
p1089
F1.0
s(lp1090
g20
atp1091
a(g22
(dp1092
g24
F1.0
s(lp1093
g22
atp1094
a(S'desidero'
p1095
(dp1096
S'VERB'
p1097
F1.0
s(lp1098
g354
atp1099
a(S'iniziare'
p1100
(dp1101
S'VERB'
p1102
F1.0
s(lp1103
g43
atp1104
a(S'ringraziando'
p1105
(dp1106
S'VERB'
p1107
F1.0
s(lp1108
g56
atp1109
a(S'e'
p1110
(dp1111
S'CONJ'
p1112
F1.0
s(lp1113
g62
atp1114
a(S'congratulandomi'
p1115
(dp1116
S'VERB'
p1117
F1.0
s(lp1118
tp1119
a(S'con'
p1120
(dp1121
S'ADP'
p1122
F1.0
s(lp1123
g76
atp1124
a(g31
(dp1125
S'DET'
p1126
F1.0
s(lp1127
tp1128
a(S'relatori'
p1129
(dp1130
S'NOUN'
p1131
F1.0
s(lp1132
g91
atp1133
a(g22
(dp1134
g24
F1.0
s(lp1135
g22
atp1136
a(S'gli'
p1137
(dp1138
S'PRON'
p1139
F0.007266
sS'DET'
p1140
F0.992734
s(lp1141
tp1142
a(S'onorevoli'
p1143
(dp1144
S'NOUN'
p1145
F0.249541
sS'ADJ'
p1146
F0.750459
s(lp1147
g102
atp1148
a(S'mcavan'
p1149
(dp1150
S'NOUN'
p1151
F0.004788
sS'VERB'
p1152
F0.984277
sS'ADJ'
p1153
F0.010936
s(lp1154
g110
atp1155
a(g1110
(dp1156
S'CONJ'
p1157
F1.0
s(lp1158
g116
atp1159
a(S'tatarella'
p1160
(dp1161
S'ADJ'
p1162
F0.007881
sS'VERB'
p1163
F0.966514
sS'NOUN'
p1164
F0.025605
s(lp1165
g133
atp1166
a(g22
(dp1167
g24
F1.0
s(lp1168
g22
atp1169
a(S'per'
p1170
(dp1171
S'CONJ'
p1172
F0.104978
sS'ADP'
p1173
F0.895022
s(lp1174
g143
atp1175
a(S'le'
p1176
(dp1177
S'PRON'
p1178
F1.3e-05
sS'DET'
p1179
F0.999987
s(lp1180
tp1181
a(S'loro'
p1182
(dp1183
S'PRON'
p1184
F1.0
s(lp1185
g149
atp1186
a(S'eccellenti'
p1187
(dp1188
S'NOUN'
p1189
F0.180804
sS'VERB'
p1190
F0.000542
sS'ADJ'
p1191
F0.818655
s(lp1192
g155
atp1193
a(S'relazioni'
p1194
(dp1195
S'VERB'
p1196
F0.009098
sS'NOUN'
p1197
F0.990902
s(lp1198
g161
atp1199
a(S'sulla'
p1200
(dp1201
S'NOUN'
p1202
F1.1e-05
sS'ADP'
p1203
F0.999989
s(lp1204
g167
atp1205
a(S'proposta'
p1206
(dp1207
S'VERB'
p1208
F0.007571
sS'NOUN'
p1209
F0.992429
s(lp1210
g181
atp1211
a(S'di'
p1212
(dp1213
S'CONJ'
p1214
F4e-06
sS'ADP'
p1215
F0.999996
s(lp1216
tp1217
a(S'revisione'
p1218
(dp1219
S'NOUN'
p1220
F1.0
s(lp1221
g192
atp1222
a(S'del'
p1223
(dp1224
S'DEF'
p1225
F0.001248
sS'ADP'
p1226
F0.998752
s(lp1227
g198
atp1228
a(S'sistema'
p1229
(dp1230
S'VERB'
p1231
F0.000103
sS'NOUN'
p1232
F0.999897
s(lp1233
g220
atp1234
a(S'di'
p1235
(dp1236
S'CONJ'
p1237
F4e-06
sS'ADP'
p1238
F0.999996
s(lp1239
tp1240
a(S'marchio'
p1241
(dp1242
S'VERB'
p1243
F0.000171
sS'NOUN'
p1244
F0.999829
s(lp1245
g220
atp1246
a(S'comunitario'
p1247
(dp1248
S'NOUN'
p1249
F0.017187
sS'ADJ'
p1250
F0.982813
s(lp1251
g220
atp1252
a(S'di'
p1253
(dp1254
S'CONJ'
p1255
F4e-06
sS'ADP'
p1256
F0.999996
s(lp1257
tp1258
a(S'qualit\xc3\xa0'
p1259
(dp1260
S'NOUN'
p1261
F1.0
s(lp1262
g220
atp1263
a(S'ecologica'
p1264
(dp1265
S'ADJ'
p1266
F1.0
s(lp1267
g220
atp1268
a(g320
(dp1269
g24
F1.0
s(lp1270
tp1271
a(S'ecolabel'
p1272
(dp1273
S'ADJ'
p1274
F0.05929
sS'NOUN'
p1275
F0.94071
s(lp1276
g220
atp1277
a(g329
(dp1278
g24
F1.0
s(lp1279
g243
atp1280
a(g1110
(dp1281
S'CONJ'
p1282
F1.0
s(lp1283
g232
atp1284
a(S'per'
p1285
(dp1286
S'CONJ'
p1287
F0.007797
sS'ADP'
p1288
F0.992203
s(lp1289
tp1290
a(S'un'
p1291
(dp1292
S'PRON'
p1293
F0.002728
sS'DEF'
p1294
F0.997272
s(lp1295
tp1296
a(S'sistema'
p1297
(dp1298
S'VERB'
p1299
F3.9999999999999996e-05
sS'NOUN'
p1300
F0.99996
s(lp1301
tp1302
a(S'di'
p1303
(dp1304
S'CONJ'
p1305
F4e-06
sS'ADP'
p1306
F0.999996
s(lp1307
g204
atp1308
a(S'ecogestione'
p1309
(dp1310
S'ADJ'
p1311
F0.003404
sS'NOUN'
p1312
F0.996596
s(lp1313
g243
atp1314
a(g1110
(dp1315
S'CONJ'
p1316
F1.0
s(lp1317
g269
atp1318
a(S'audit'
p1319
(dp1320
S'NOUN'
p1321
F1.0
s(lp1322
g282
atp1323
a(g24
(dp1324
g24
F1.0
s(lp1325
g24
atp1326
asS'sk'
p1327
(lp1328
(S'v\xc3\xa1\xc5\xbeen\xc3\xbd'
p1329
(dp1330
S'VERB'
p1331
F0.141074
sS'ADJ'
p1332
F0.858926
s(lp1333
tp1334
a(S'p\xc3\xa1n'
p1335
(dp1336
S'NOUN'
p1337
F1.0
s(lp1338
g7
atp1339
a(S'predsedaj\xc3\xbaci'
p1340
(dp1341
S'VERB'
p1342
F1.0
s(lp1343
g20
atp1344
a(g22
(dp1345
g24
F1.0
s(lp1346
g22
atp1347
a(S'najprv'
p1348
(dp1349
S'ADV'
p1350
F0.673569
sS'CONJ'
p1351
F0.326431
s(lp1352
g43
atp1353
a(S'by'
p1354
(dp1355
S'PRT'
p1356
F0.999999
sg120
F1e-06
s(lp1357
g349
atp1358
a(S'som'
p1359
(dp1360
S'VERB'
p1361
F1.0
s(lp1362
tp1363
a(S'r\xc3\xa1d'
p1364
(dp1365
S'ADV'
p1366
F0.049573
sS'NOUN'
p1367
F0.410307
sS'ADJ'
p1368
F0.515488
sg120
F0.024631
s(lp1369
g354
atp1370
a(S'po\xc4\x8fakoval'
p1371
(dp1372
S'VERB'
p1373
F0.9999999999999999
s(lp1374
g56
atp1375
a(S'a'
p1376
(dp1377
g120
F0.0044870000000000005
sS'CONJ'
p1378
F0.995131
sS'NOUN'
p1379
F0.000233
sS'ADP'
p1380
F1e-06
sS'PRT'
p1381
F0.000149
s(lp1382
g62
atp1383
a(S'zablaho\xc5\xbeelal'
p1384
(dp1385
S'VERB'
p1386
F1.000001
s(lp1387
g76
atp1388
a(S'spravodajcom'
p1389
(dp1390
S'NOUN'
p1391
F1.0
s(lp1392
g91
atp1393
a(S'pani'
p1394
(dp1395
S'NOUN'
p1396
F1.0
s(lp1397
g102
atp1398
a(S'mcavanovej'
p1399
(dp1400
S'NOUN'
p1401
F0.041349
sS'VERB'
p1402
F0.001126
sS'ADJ'
p1403
F0.957077
sg120
F0.000449
s(lp1404
g110
atp1405
a(g1376
(dp1406
g120
F0.001543
sS'CONJ'
p1407
F0.996695
sS'NOUN'
p1408
F0.0015869999999999999
sS'ADP'
p1409
F0.000169
sS'PRT'
p1410
F6e-06
s(lp1411
g116
atp1412
a(S'p\xc3\xa1nu'
p1413
(dp1414
S'NOUN'
p1415
F1.0
s(lp1416
tp1417
a(S'tatarellovi'
p1418
(dp1419
S'NOUN'
p1420
F1.0
s(lp1421
g133
atp1422
a(S'k'
p1423
(dp1424
g120
F0.000334
sS'NOUN'
p1425
F4.4e-05
sS'ADP'
p1426
F0.999622
s(lp1427
g143
atp1428
a(S'vynikaj\xc3\xbacim'
p1429
(dp1430
S'VERB'
p1431
F1.0
s(lp1432
g155
atp1433
a(S'spr\xc3\xa1vam'
p1434
(dp1435
S'VERB'
p1436
F0.010036
sS'NOUN'
p1437
F0.989964
s(lp1438
g161
atp1439
a(S'o'
p1440
(dp1441
g120
F0.000588
sS'CONJ'
p1442
F0.000137
sS'NOUN'
p1443
F1.6000000000000003e-05
sS'ADP'
p1444
F0.999259
s(lp1445
g167
atp1446
a(S'navrhovanej'
p1447
(dp1448
S'VERB'
p1449
F1.0
s(lp1450
g181
atp1451
a(S'rev\xc3\xadzii'
p1452
(dp1453
S'NOUN'
p1454
F1.0
s(lp1455
g192
atp1456
a(S'environment\xc3\xa1lnej'
p1457
(dp1458
S'ADJ'
p1459
F1.0
s(lp1460
g220
atp1461
a(S'zna\xc4\x8dky'
p1462
(dp1463
S'NOUN'
p1464
F1.0
s(lp1465
tp1466
a(S'spolo\xc4\x8denstva'
p1467
(dp1468
S'NOUN'
p1469
F1.0
s(lp1470
g220
atp1471
a(g1376
(dp1472
g120
F0.004622
sS'CONJ'
p1473
F0.995
sS'NOUN'
p1474
F0.000222
sS'ADP'
p1475
F1e-06
sS'PRT'
p1476
F0.000154
s(lp1477
g232
atp1478
a(g1440
(dp1479
g120
F0.001146
sS'CONJ'
p1480
F0.00012
sS'NOUN'
p1481
F1.9e-05
sS'ADP'
p1482
F0.998715
s(lp1483
g482
atp1484
a(S'syst\xc3\xa9me'
p1485
(dp1486
S'NOUN'
p1487
F1.0
s(lp1488
g243
atp1489
a(S'spolo\xc4\x8denstva'
p1490
(dp1491
S'NOUN'
p1492
F1.0
s(lp1493
g226
atp1494
a(S'pre'
p1495
(dp1496
g120
F0.000104
sS'ADP'
p1497
F0.999896
s(lp1498
g243
atp1499
a(S'ekologick\xc3\xa9'
p1500
(dp1501
S'ADJ'
p1502
F1.0
s(lp1503
tp1504
a(S'riadenie'
p1505
(dp1506
S'NOUN'
p1507
F1.0
s(lp1508
g243
atp1509
a(g1376
(dp1510
g120
F0.0025380000000000003
sS'CONJ'
p1511
F0.996478
sS'NOUN'
p1512
F0.00018700000000000002
sS'ADP'
p1513
F0.00077
sS'PRT'
p1514
F2.7e-05
s(lp1515
g269
atp1516
a(S'audit'
p1517
(dp1518
S'NOUN'
p1519
F1.0
s(lp1520
g282
atp1521
a(g24
(dp1522
g24
F1.0
s(lp1523
g24
atp1524
asS'pl'
p1525
(lp1526
(S'komisarz'
p1527
(dp1528
S'NOUN'
p1529
F1.0
s(lp1530
g289
atp1531
a(g24
(dp1532
g24
F1.0
s(lp1533
g24
atp1534
a(g316
(dp1535
g120
F0.001073
sS'NUM'
p1536
F0.0
sS'NOUN'
p1537
F0.001803
sg24
F0.997125
s(lp1538
g316
atp1539
a(g320
(dp1540
S'NOUN'
p1541
F0.002559
sg24
F0.997441
s(lp1542
g320
atp1543
a(S'el'
p1544
(dp1545
S'ADJ'
p1546
F0.024165
sS'NOUN'
p1547
F0.975835
s(lp1548
g324
atp1549
a(g329
(dp1550
g24
F1.0
s(lp1551
g329
atp1552
a(S'panie'
p1553
(dp1554
S'NOUN'
p1555
F1.0
s(lp1556
g7
atp1557
a(S'przewodnicz\xc4\x85cy'
p1558
(dp1559
S'VERB'
p1560
F0.000602
sS'NOUN'
p1561
F0.999398
s(lp1562
tp1563
a(g825
(dp1564
g24
F1.0
s(lp1565
g20
atp1566
a(S'pragn\xc4\x99'
p1567
(dp1568
S'VERB'
p1569
F1.0
s(lp1570
g354
atp1571
a(S'rozpocz\xc4\x85\xc4\x87'
p1572
(dp1573
S'VERB'
p1574
F1.0
s(lp1575
tp1576
a(S'od'
p1577
(dp1578
S'VERB'
p1579
F0.0
sS'NOUN'
p1580
F1.6e-05
sS'ADP'
p1581
F0.999984
s(lp1582
g43
atp1583
a(S'podzi\xc4\x99kowa\xc5\x84'
p1584
(dp1585
S'NOUN'
p1586
F1.0
s(lp1587
g56
atp1588
a(g31
(dp1589
S'PRT'
p1590
F0.000656
sS'CONJ'
p1591
F0.999325
sS'NOUN'
p1592
F1.7e-05
sg120
F1e-06
sS'PRON'
p1593
F2e-06
s(lp1594
g62
atp1595
a(S'gratulacji'
p1596
(dp1597
S'ADJ'
p1598
F0.000722
sS'VERB'
p1599
F0.001831
sS'NOUN'
p1600
F0.997446
s(lp1601
tp1602
a(S'dla'
p1603
(dp1604
S'ADP'
p1605
F1.0
s(lp1606
g76
atp1607
a(S'sprawozdawc\xc3\xb3w'
p1608
(dp1609
S'NOUN'
p1610
F1.0
s(lp1611
g91
atp1612
a(g22
(dp1613
g120
F0.0
sg24
F1.0
s(lp1614
g22
atp1615
a(S'pani'
p1616
(dp1617
S'NOUN'
p1618
F1.0
s(lp1619
tp1620
a(S'pose\xc5\x82'
p1621
(dp1622
S'NOUN'
p1623
F1.0000010000000001
s(lp1624
g102
atp1625
a(S'mcavan'
p1626
(dp1627
S'ADV'
p1628
F0.000399
sS'ADJ'
p1629
F0.002414
sS'VERB'
p1630
F0.004965
sS'NOUN'
p1631
F0.9922169999999998
sg120
F4e-06
s(lp1632
g110
atp1633
a(g31
(dp1634
S'PRT'
p1635
F0.017882
sS'CONJ'
p1636
F0.982056
sS'PRON'
p1637
F4e-06
sS'NOUN'
p1638
F8e-06
sg120
F5.1e-05
s(lp1639
g116
atp1640
a(S'pan'
p1641
(dp1642
g120
F1.3e-05
sS'NOUN'
p1643
F0.999987
s(lp1644
g125
atp1645
a(S'pos\xc5\x82a'
p1646
(dp1647
S'NOUN'
p1648
F1.0
s(lp1649
tp1650
a(S'tatarelli'
p1651
(dp1652
S'ADV'
p1653
F0.001142
sS'ADJ'
p1654
F0.006112999999999999
sS'VERB'
p1655
F0.6591430000000003
sS'NOUN'
p1656
F0.333602
s(lp1657
g133
atp1658
a(g22
(dp1659
g120
F0.0
sg24
F1.0
s(lp1660
g22
atp1661
a(S'za'
p1662
(dp1663
S'PRT'
p1664
F0.030809
sS'VERB'
p1665
F0.000674
sS'NOUN'
p1666
F6e-06
sS'ADP'
p1667
F0.9685010000000001
sg120
F1e-05
s(lp1668
g143
atp1669
a(S'znakomite'
p1670
(dp1671
S'ADJ'
p1672
F1.0
s(lp1673
g155
atp1674
a(S'sprawozdania'
p1675
(dp1676
S'NOUN'
p1677
F1.0
s(lp1678
g161
atp1679
a(S'w'
p1680
(dp1681
S'ADJ'
p1682
F0.0
sg120
F0.0
sS'NOUN'
p1683
F0.0
sS'ADP'
p1684
F1.0
s(lp1685
tp1686
a(S'sprawie'
p1687
(dp1688
S'NOUN'
p1689
F1.0
s(lp1690
g167
atp1691
a(S'proponowanego'
p1692
(dp1693
S'VERB'
p1694
F1.0
s(lp1695
g181
atp1696
a(S'przegl\xc4\x85du'
p1697
(dp1698
S'NOUN'
p1699
F1.0
s(lp1700
g192
atp1701
a(S'wsp\xc3\xb3lnotowego'
p1702
(dp1703
S'ADV'
p1704
F0.0
sS'NOUN'
p1705
F2.3000000000000003e-05
sS'VERB'
p1706
F0.0
sS'ADJ'
p1707
F0.999974
s(lp1708
g220
atp1709
a(S'programu'
p1710
(dp1711
S'NOUN'
p1712
F1.0
s(lp1713
g220
atp1714
a(S'oznakowania'
p1715
(dp1716
S'ADV'
p1717
F2.3e-05
sS'ADJ'
p1718
F5.2999999999999994e-05
sS'VERB'
p1719
F0.5226669999999999
sS'NOUN'
p1720
F0.47726
s(lp1721
tp1722
a(S'ekologicznego'
p1723
(dp1724
S'ADJ'
p1725
F1.0
s(lp1726
g220
atp1727
a(S'oraz'
p1728
(dp1729
S'CONJ'
p1730
F1.0
s(lp1731
g232
atp1732
a(S'ekozarz\xc4\x85dzania'
p1733
(dp1734
S'ADV'
p1735
F0.00465
sS'ADJ'
p1736
F0.014104000000000002
sS'VERB'
p1737
F0.70786
sS'NOUN'
p1738
F0.27338799999999985
s(lp1739
g243
atp1740
a(g31
(dp1741
S'PRT'
p1742
F0.005317
sS'CONJ'
p1743
F0.994409
sS'NOUN'
p1744
F0.000246
sg120
F7e-06
sS'PRON'
p1745
F2.1000000000000002e-05
s(lp1746
g269
atp1747
a(S'audytu'
p1748
(dp1749
S'NOUN'
p1750
F1.0
s(lp1751
g282
atp1752
a(g24
(dp1753
g24
F1.0
s(lp1754
g24
atp1755
asS'sl'
p1756
(lp1757
(S'\xc4\x8dlan'
p1758
(dp1759
S'NOUN'
p1760
F1.0
s(lp1761
g289
atp1762
a(S'komisije'
p1763
(dp1764
S'NOUN'
p1765
F1.0
s(lp1766
g307
atp1767
a(g24
(dp1768
g24
F1.0
s(lp1769
g24
atp1770
a(g316
(dp1771
g24
F1.0
s(lp1772
g316
atp1773
a(g320
(dp1774
g24
F1.0
s(lp1775
g320
atp1776
a(S'el'
p1777
(dp1778
g120
F1.0
s(lp1779
g324
atp1780
a(g329
(dp1781
g24
F1.0
s(lp1782
g329
atp1783
a(S'gospod'
p1784
(dp1785
S'NOUN'
p1786
F1.0
s(lp1787
g7
atp1788
a(S'predsednik'
p1789
(dp1790
S'NOUN'
p1791
F1.0
s(lp1792
g20
atp1793
a(g22
(dp1794
g24
F1.0
s(lp1795
g22
atp1796
a(S'za'
p1797
(dp1798
S'ADV'
p1799
F0.000185
sg120
F1e-05
sS'ADP'
p1800
F0.9998049999999999
s(lp1801
g37
atp1802
a(S'za\xc4\x8detek'
p1803
(dp1804
S'NOUN'
p1805
F1.0
s(lp1806
g43
atp1807
a(S'bi'
p1808
(dp1809
g120
F0.000224
sS'VERB'
p1810
F0.999776
s(lp1811
g349
atp1812
a(S'se'
p1813
(dp1814
S'PRON'
p1815
F0.999997
sg120
F3e-06
s(lp1816
tp1817
a(S'zahvalil'
p1818
(dp1819
S'VERB'
p1820
F1.0
s(lp1821
g56
atp1822
a(S'in'
p1823
(dp1824
S'ADV'
p1825
F0.00201
sg120
F8e-06
sS'CONJ'
p1826
F0.997838
sS'NOUN'
p1827
F0.000144
s(lp1828
g62
atp1829
a(S'\xc4\x8destital'
p1830
(dp1831
S'VERB'
p1832
F1.0
s(lp1833
g76
atp1834
a(S'poro\xc4\x8devalcema'
p1835
(dp1836
S'ADV'
p1837
F0.002098
sS'ADJ'
p1838
F0.04626700000000001
sS'VERB'
p1839
F0.14708700000000002
sS'NOUN'
p1840
F0.804546
s(lp1841
g91
atp1842
a(g22
(dp1843
g24
F1.0
s(lp1844
g22
atp1845
a(S'gospe'
p1846
(dp1847
S'NOUN'
p1848
F1.0
s(lp1849
g102
atp1850
a(S'mcavan'
p1851
(dp1852
S'ADV'
p1853
F0.001031
sS'ADJ'
p1854
F0.026976999999999998
sS'VERB'
p1855
F0.008583999999999998
sS'NOUN'
p1856
F0.963074
sg120
F0.000335
s(lp1857
g110
atp1858
a(S'in'
p1859
(dp1860
S'ADV'
p1861
F3.3e-05
sg120
F0.000143
sS'CONJ'
p1862
F0.999747
sS'NOUN'
p1863
F7.7e-05
s(lp1864
g116
atp1865
a(S'gospodu'
p1866
(dp1867
S'NOUN'
p1868
F1.0
s(lp1869
g125
atp1870
a(S'tatarellu'
p1871
(dp1872
S'ADJ'
p1873
F0.002677
sS'VERB'
p1874
F0.000633
sS'NOUN'
p1875
F0.99669
s(lp1876
g133
atp1877
a(g22
(dp1878
g24
F1.0
s(lp1879
g22
atp1880
a(S'za'
p1881
(dp1882
S'ADV'
p1883
F0.017913
sg120
F0.003978
sS'ADP'
p1884
F0.9781099999999999
s(lp1885
g143
atp1886
a(S'njuni'
p1887
(dp1888
S'PRON'
p1889
F1.000001
s(lp1890
g149
atp1891
a(S'odli\xc4\x8dni'
p1892
(dp1893
S'ADJ'
p1894
F0.9999999999999999
s(lp1895
g155
atp1896
a(S'poro\xc4\x8dili'
p1897
(dp1898
S'VERB'
p1899
F1.0
s(lp1900
g161
atp1901
a(g1440
(dp1902
S'NOUN'
p1903
F1e-06
sS'ADP'
p1904
F0.999999
s(lp1905
g167
atp1906
a(S'predlaganem'
p1907
(dp1908
S'ADJ'
p1909
F1.0
s(lp1910
g181
atp1911
a(S'pregledu'
p1912
(dp1913
S'NOUN'
p1914
F1.0
s(lp1915
g192
atp1916
a(S'znaka'
p1917
(dp1918
S'ADV'
p1919
F0.003599
sS'ADJ'
p1920
F0.015034
sS'VERB'
p1921
F0.010565
sS'NOUN'
p1922
F0.970802
s(lp1923
g220
atp1924
a(S'skupnosti'
p1925
(dp1926
S'NOUN'
p1927
F1.0
s(lp1928
g226
atp1929
a(S'za'
p1930
(dp1931
S'ADV'
p1932
F9e-06
sg120
F2e-06
sS'ADP'
p1933
F0.99999
s(lp1934
g220
atp1935
a(S'okolje'
p1936
(dp1937
S'NOUN'
p1938
F1.0
s(lp1939
tp1940
a(S'in'
p1941
(dp1942
S'ADV'
p1943
F0.000105
sg120
F8e-06
sS'CONJ'
p1944
F0.99982
sS'NOUN'
p1945
F6.7e-05
s(lp1946
g232
atp1947
a(S'sistema'
p1948
(dp1949
S'NOUN'
p1950
F1.0
s(lp1951
g243
atp1952
a(S'za'
p1953
(dp1954
S'ADV'
p1955
F0.000669
sg120
F1.2e-05
sS'ADP'
p1956
F0.9993199999999999
s(lp1957
g220
atp1958
a(S'okoljsko'
p1959
(dp1960
S'ADV'
p1961
F0.459594
sS'ADJ'
p1962
F0.5404059999999999
s(lp1963
tp1964
a(S'ravnanje'
p1965
(dp1966
S'NOUN'
p1967
F1.0
s(lp1968
g243
atp1969
a(S'in'
p1970
(dp1971
S'ADV'
p1972
F3.8e-05
sg120
F1.2e-05
sS'CONJ'
p1973
F0.99994
sS'NOUN'
p1974
F1e-05
s(lp1975
g269
atp1976
a(S'presojo'
p1977
(dp1978
S'NOUN'
p1979
F1.0
s(lp1980
g282
atp1981
a(g24
(dp1982
g24
F1.0
s(lp1983
g24
atp1984
asS'es'
p1985
(lp1986
(S'miembro'
p1987
(dp1988
S'NOUN'
p1989
F1.0
s(lp1990
g289
atp1991
a(S'de'
p1992
(dp1993
g120
F0.0
sS'CONJ'
p1994
F1.7e-05
sS'ADP'
p1995
F0.999983
s(lp1996
g296
atp1997
a(S'la'
p1998
(dp1999
g120
F0.0
sS'PRON'
p2000
F0.0
sS'DET'
p2001
F0.999999
sS'NOUN'
p2002
F0.0
s(lp2003
g301
atp2004
a(S'comisi\xc3\xb3n'
p2005
(dp2006
S'NOUN'
p2007
F1.0
s(lp2008
g307
atp2009
a(g24
(dp2010
g24
F1.0
s(lp2011
g24
atp2012
a(g316
(dp2013
g24
F1.0
s(lp2014
g316
atp2015
a(g320
(dp2016
g24
F1.0
s(lp2017
g320
atp2018
a(S'el'
p2019
(dp2020
S'PRON'
p2021
F1e-06
sS'DET'
p2022
F0.999999
s(lp2023
g324
atp2024
a(g329
(dp2025
g24
F1.0
s(lp2026
g329
atp2027
a(S'se\xc3\xb1or'
p2028
(dp2029
S'NOUN'
p2030
F1.0
s(lp2031
g7
atp2032
a(S'presidente'
p2033
(dp2034
S'NOUN'
p2035
F1.0
s(lp2036
g20
atp2037
a(g22
(dp2038
g24
F1.0
s(lp2039
g22
atp2040
a(S'me'
p2041
(dp2042
S'PRON'
p2043
F0.999998
sS'NOUN'
p2044
F2e-06
s(lp2045
g31
atp2046
a(S'gustar\xc3\xada'
p2047
(dp2048
S'VERB'
p2049
F1.0
s(lp2050
g354
atp2051
a(S'empezar'
p2052
(dp2053
S'VERB'
p2054
F1.0
s(lp2055
g43
atp2056
a(S'dando'
p2057
(dp2058
S'VERB'
p2059
F1.0
s(lp2060
g56
atp2061
a(S'las'
p2062
(dp2063
S'PRON'
p2064
F0.0
sS'DET'
p2065
F1.0
s(lp2066
tp2067
a(S'gracias'
p2068
(dp2069
S'NOUN'
p2070
F1.0
s(lp2071
g56
atp2072
a(S'y'
p2073
(dp2074
g120
F8e-05
sS'CONJ'
p2075
F0.99992
s(lp2076
g62
atp2077
a(S'felicitando'
p2078
(dp2079
S'VERB'
p2080
F1.0
s(lp2081
tp2082
a(g1376
(dp2083
g120
F0.00154
sS'CONJ'
p2084
F2e-06
sS'ADP'
p2085
F0.998457
s(lp2086
g76
atp2087
a(S'los'
p2088
(dp2089
S'PRON'
p2090
F0.0
sS'DET'
p2091
F1.0
s(lp2092
g84
atp2093
a(S'ponentes'
p2094
(dp2095
S'ADJ'
p2096
F0.001376
sS'NOUN'
p2097
F0.998624
s(lp2098
g91
atp2099
a(g22
(dp2100
g24
F1.0
s(lp2101
g22
atp2102
a(S'la'
p2103
(dp2104
S'PRON'
p2105
F8.5e-05
sS'DET'
p2106
F0.999909
sS'NOUN'
p2107
F0.0
sg120
F5e-06
s(lp2108
tp2109
a(S'sra.'
p2110
(dp2111
S'VERB'
p2112
F5.7e-05
sS'NOUN'
p2113
F0.999943
s(lp2114
g102
atp2115
a(S'mcavan'
p2116
(dp2117
S'ADJ'
p2118
F0.060125
sS'VERB'
p2119
F0.53266
sS'NOUN'
p2120
F0.407214
s(lp2121
g110
atp2122
a(g2073
(dp2123
g120
F0.000195
sS'CONJ'
p2124
F0.999805
s(lp2125
g116
atp2126
a(S'el'
p2127
(dp2128
S'PRON'
p2129
F2.8e-05
sS'DET'
p2130
F0.999972
s(lp2131
tp2132
a(S'sr.'
p2133
(dp2134
S'NOUN'
p2135
F1.0
s(lp2136
g125
atp2137
a(S'tatarella'
p2138
(dp2139
S'NOUN'
p2140
F1.0
s(lp2141
g133
atp2142
a(g22
(dp2143
g24
F1.0
s(lp2144
g22
atp2145
a(S'por'
p2146
(dp2147
S'ADP'
p2148
F1.0
s(lp2149
g143
atp2150
a(S'sus'
p2151
(dp2152
S'PRON'
p2153
F1.0
s(lp2154
g149
atp2155
a(S'excelentes'
p2156
(dp2157
S'ADJ'
p2158
F1.0
s(lp2159
g155
atp2160
a(S'informes'
p2161
(dp2162
S'ADJ'
p2163
F0.102557
sS'NOUN'
p2164
F0.897443
s(lp2165
g161
atp2166
a(S'sobre'
p2167
(dp2168
S'NOUN'
p2169
F0.0
sS'ADP'
p2170
F1.0
s(lp2171
g167
atp2172
a(S'la'
p2173
(dp2174
S'NOUN'
p2175
F4e-06
sS'PRON'
p2176
F0.0
sS'DET'
p2177
F0.999996
sg120
F0.0
s(lp2178
g175
atp2179
a(S'propuesta'
p2180
(dp2181
S'VERB'
p2182
F0.026247
sS'NOUN'
p2183
F0.973753
s(lp2184
g181
atp2185
a(S'de'
p2186
(dp2187
g120
F2.8e-05
sS'CONJ'
p2188
F0.000453
sS'ADP'
p2189
F0.999518
s(lp2190
tp2191
a(S'revisi\xc3\xb3n'
p2192
(dp2193
S'NOUN'
p2194
F1.0
s(lp2195
g192
atp2196
a(S'de'
p2197
(dp2198
g120
F0.0
sS'CONJ'
p2199
F1.7e-05
sS'ADP'
p2200
F0.999983
s(lp2201
g198
atp2202
a(S'la'
p2203
(dp2204
g120
F0.0
sS'PRON'
p2205
F0.0
sS'DET'
p2206
F0.999999
sS'NOUN'
p2207
F0.0
s(lp2208
g482
atp2209
a(S'etiqueta'
p2210
(dp2211
S'NOUN'
p2212
F1.0
s(lp2213
tp2214
a(S'ecol\xc3\xb3gica'
p2215
(dp2216
S'ADJ'
p2217
F1.0
s(lp2218
g220
atp2219
a(S'comunitaria'
p2220
(dp2221
S'ADJ'
p2222
F1.0
s(lp2223
g226
atp2224
a(g2073
(dp2225
g120
F0.000117
sS'CONJ'
p2226
F0.999883
s(lp2227
g232
atp2228
a(S'el'
p2229
(dp2230
S'PRON'
p2231
F2.8e-05
sS'DET'
p2232
F0.999972
s(lp2233
tp2234
a(S'esquema'
p2235
(dp2236
S'NOUN'
p2237
F1.0
s(lp2238
g243
atp2239
a(S'de'
p2240
(dp2241
g120
F2.9e-05
sS'CONJ'
p2242
F0.000449
sS'ADP'
p2243
F0.999522
s(lp2244
g204
atp2245
a(S'gesti\xc3\xb3n'
p2246
(dp2247
S'NOUN'
p2248
F1.0
s(lp2249
tp2250
a(g2073
(dp2251
g120
F0.001008
sS'CONJ'
p2252
F0.998992
s(lp2253
g269
atp2254
a(S'auditor\xc3\xada'
p2255
(dp2256
S'NOUN'
p2257
F1.0
s(lp2258
g282
atp2259
a(S'medioambientales'
p2260
(dp2261
S'ADJ'
p2262
F1.0
s(lp2263
g243
atp2264
a(g24
(dp2265
g24
F1.0
s(lp2266
g24
atp2267
as.