(dp0
S'fr'
p1
(lp2
(S'nous'
p3
(dp4
S'PRON'
p5
F1.0
s(lp6
S'we'
p7
atp8
a(S'sommes'
p9
(dp10
S'VERB'
p11
F0.999947
sS'NOUN'
p12
F5.3e-05
s(lp13
S'have'
p14
atp15
a(S'absolument'
p16
(dp17
S'ADV'
p18
F1.0
s(lp19
S'every'
p20
atp21
a(S'convaincus'
p22
(dp23
S'VERB'
p24
F1.0
s(lp25
S'confidence'
p26
atp27
a(S'que'
p28
(dp29
S'ADV'
p30
F0.038376
sS'PRON'
p31
F0.007112
sS'CONJ'
p32
F0.954513
s(lp33
S'that'
p34
atp35
a(S'la'
p36
(dp37
S'PRON'
p38
F0.000101
sS'DET'
p39
F0.999899
sS'NOUN'
p40
F0.0
s(lp41
S'this'
p42
atp43
a(S'proc\xc3\xa9dure'
p44
(dp45
S'NOUN'
p46
F1.0
s(lp47
S'process'
p48
atp49
a(S'sera'
p50
(dp51
S'VERB'
p52
F1.0
s(lp53
S'be'
p54
atp55
a(S'r\xc3\xa9tablie'
p56
(dp57
S'VERB'
p58
F0.983736
sS'ADJ'
p59
F0.016264
s(lp60
S'restored'
p61
atp62
a(S'en'
p63
(dp64
S'PRON'
p65
F2e-06
sS'ADP'
p66
F0.999998
s(lp67
S'in'
p68
atp69
a(S'2011'
p70
(dp71
S'X'
p72
F0.000409
sS'NUM'
p73
F0.999591
s(lp74
S'2011'
p75
atp76
a(S','
p77
(dp78
S'.'
p79
F1.0
s(lp80
tp81
a(S'd\xc3\xa8s'
p82
(dp83
S'ADP'
p84
F1.0
s(lp85
S'after'
p86
atp87
a(S'que'
p88
(dp89
S'ADV'
p90
F0.070367
sS'PRON'
p91
F0.184888
sS'CONJ'
p92
F0.744745
s(lp93
tp94
a(S'les'
p95
(dp96
S'PRON'
p97
F0.000736
sS'DET'
p98
F0.99925
sS'ADP'
p99
F1.4e-05
s(lp100
tp101
a(S'probl\xc3\xa8mes'
p102
(dp103
S'NOUN'
p104
F1.0
s(lp105
S'difficulties'
p106
atp107
a(S'mineurs'
p108
(dp109
S'NOUN'
p110
F0.00457
sS'ADJ'
p111
F0.99543
s(lp112
S'minor'
p113
atp114
a(S'auront'
p115
(dp116
S'VERB'
p117
F1.0
s(lp118
tp119
a(S'\xc3\xa9t\xc3\xa9'
p120
(dp121
S'VERB'
p122
F0.982492
sS'NOUN'
p123
F0.017508
s(lp124
g61
atp125
a(S'r\xc3\xa9solus'
p126
(dp127
S'VERB'
p128
F0.791545
sS'ADJ'
p129
F0.208455
s(lp130
S'overcoming'
p131
atp132
a(g79
(dp133
g79
F1.0
s(lp134
g79
atp135
asS'en'
p136
(lp137
(g7
(dp138
S'PRON'
p139
F1.0
s(lp140
g7
atp141
a(g14
(dp142
S'VERB'
p143
F1.0
s(lp144
g14
atp145
a(g20
(dp146
S'DET'
p147
F1.0
s(lp148
g20
atp149
a(g26
(dp150
S'NOUN'
p151
F1.0
s(lp152
g26
atp153
a(g34
(dp154
S'ADV'
p155
F0.000563
sS'DET'
p156
F0.113961
sS'ADP'
p157
F0.885476
s(lp158
g34
atp159
a(g42
(dp160
S'ADV'
p161
F4e-06
sS'NOUN'
p162
F2.2e-05
sS'DET'
p163
F0.999973
s(lp164
g42
atp165
a(g48
(dp166
S'VERB'
p167
F6.6e-05
sS'NOUN'
p168
F0.999934
s(lp169
g48
atp170
a(S'can'
p171
(dp172
S'VERB'
p173
F0.999996
sS'NOUN'
p174
F4e-06
s(lp175
g171
atp176
a(g54
(dp177
S'VERB'
p178
F1.0
s(lp179
g54
atp180
a(g61
(dp181
S'VERB'
p182
F1.0
s(lp183
g61
atp184
a(g68
(dp185
S'ADV'
p186
F0.002116
sS'PRT'
p187
F0.002899
sS'ADP'
p188
F0.994985
s(lp189
g68
atp190
a(g75
(dp191
S'ADV'
p192
F0.000144
sS'NOUN'
p193
F0.000891
sS'NUM'
p194
F0.997985
sS'ADJ'
p195
F0.00098
sg72
F0.0
s(lp196
g75
atp197
a(g86
(dp198
S'ADV'
p199
F0.002786
sS'ADP'
p200
F0.997214
s(lp201
g86
atp202
a(g131
(dp203
S'VERB'
p204
F1.0
s(lp205
g131
atp206
a(g113
(dp207
S'NOUN'
p208
F0.006713
sS'ADJ'
p209
F0.993287
s(lp210
g113
atp211
a(g106
(dp212
S'NOUN'
p213
F1.0
s(lp214
g106
atp215
a(g79
(dp216
g79
F1.0
s(lp217
g79
atp218
asS'nl'
p219
(lp220
(S'we'
p221
(dp222
S'PRON'
p223
F1.0
s(lp224
g7
atp225
a(S'hebben'
p226
(dp227
S'VERB'
p228
F0.999977
sS'NOUN'
p229
F2.3e-05
s(lp230
tp231
a(S'er'
p232
(dp233
S'ADV'
p234
F1.0
s(lp235
g14
atp236
a(S'veel'
p237
(dp238
S'ADV'
p239
F0.98627
sS'NUM'
p240
F0.003409
sS'VERB'
p241
F0.010322
s(lp242
g20
atp243
a(S'vertrouwen'
p244
(dp245
S'VERB'
p246
F0.9947219999999999
sS'NOUN'
p247
F0.005278
s(lp248
g26
atp249
a(S'in'
p250
(dp251
S'ADV'
p252
F0.169779
sS'VERB'
p253
F7e-06
sS'ADP'
p254
F0.830213
s(lp255
tp256
a(S'dat'
p257
(dp258
S'PRON'
p259
F0.068984
sS'CONJ'
p260
F0.931017
s(lp261
g34
atp262
a(S'dit'
p263
(dp264
S'PRON'
p265
F1.0
s(lp266
g42
atp267
a(S'proces'
p268
(dp269
S'NOUN'
p270
F1.0
s(lp271
g48
atp272
a(S'in'
p273
(dp274
S'ADV'
p275
F0.008407
sS'VERB'
p276
F2e-06
sS'ADP'
p277
F0.991591
s(lp278
g68
atp279
a(S'2011'
p280
(dp281
S'NUM'
p282
F1.0
s(lp283
g75
atp284
a(S'kan'
p285
(dp286
S'VERB'
p287
F0.99087
sS'NOUN'
p288
F0.00913
s(lp289
g171
atp290
a(S'worden'
p291
(dp292
S'VERB'
p293
F1.0
sS'NOUN'
p294
F0.0
s(lp295
g54
atp296
a(S'hersteld'
p297
(dp298
S'VERB'
p299
F1.0
s(lp300
g61
atp301
a(g77
(dp302
g79
F1.0
s(lp303
tp304
a(S'na'
p305
(dp306
S'ADV'
p307
F0.036603
sS'CONJ'
p308
F0.002868
sS'ADP'
p309
F0.960528
s(lp310
g86
atp311
a(S'het'
p312
(dp313
S'PRON'
p314
F0.021228
sS'DET'
p315
F0.978772
s(lp316
g131
atp317
a(S'overwinnen'
p318
(dp319
S'VERB'
p320
F0.020247
sS'NOUN'
p321
F0.979753
s(lp322
tp323
a(S'van'
p324
(dp325
S'ADP'
p326
F1.0
s(lp327
g131
atp328
a(S'kleine'
p329
(dp330
S'NOUN'
p331
F1.1e-05
sS'ADJ'
p332
F0.999989
s(lp333
g113
atp334
a(S'obstakels'
p335
(dp336
S'NOUN'
p337
F1.0
s(lp338
g106
atp339
a(g79
(dp340
g79
F1.0
s(lp341
g79
atp342
asS'de'
p343
(lp344
(S'wir'
p345
(dp346
S'PRON'
p347
F1.0
s(lp348
g7
atp349
a(S'sind'
p350
(dp351
S'VERB'
p352
F1.0
s(lp353
g14
atp354
a(S'uns'
p355
(dp356
S'PRON'
p357
F1.0
s(lp358
g20
atp359
a(S'sicher'
p360
(dp361
S'PRT'
p362
F0.013125
sS'ADJ'
p363
F0.986186
s(lp364
g26
atp365
a(g77
(dp366
g79
F1.0
s(lp367
tp368
a(S'dass'
p369
(dp370
S'CONJ'
p371
F1.0
s(lp372
g34
atp373
a(S'dieser'
p374
(dp375
S'PRON'
p376
F1.0
s(lp377
g42
atp378
a(S'prozess'
p379
(dp380
S'ADJ'
p381
F0.154542
sS'NOUN'
p382
F0.790062
s(lp383
g48
atp384
a(S'2011'
p385
(dp386
S'ADV'
p387
F0.013603
sS'NUM'
p388
F0.980491
s(lp389
g75
atp390
a(S'wiederaufgenommen'
p391
(dp392
S'VERB'
p393
F1.0
s(lp394
g61
atp395
a(S'werden'
p396
(dp397
S'VERB'
p398
F0.999998
s(lp399
g54
atp400
a(S'kann'
p401
(dp402
S'VERB'
p403
F1.0
s(lp404
g171
atp405
a(g77
(dp406
g79
F1.0
s(lp407
tp408
a(S'nachdem'
p409
(dp410
S'CONJ'
p411
F1.0
s(lp412
g86
atp413
a(S'geringf\xc3\xbcgige'
p414
(dp415
S'ADJ'
p416
F1.0
s(lp417
g113
atp418
a(S'schwierigkeiten'
p419
(dp420
S'ADJ'
p421
F0.000544
sS'NOUN'
p422
F0.999423
s(lp423
g106
atp424
a(S'\xc3\xbcberwunden'
p425
(dp426
S'VERB'
p427
F1.0
s(lp428
tp429
a(S'wurden'
p430
(dp431
S'VERB'
p432
F1.0
s(lp433
g131
atp434
a(g79
(dp435
g79
F1.0
s(lp436
g79
atp437
asS'it'
p438
(lp439
(S'siamo'
p440
(dp441
S'VERB'
p442
F1.0
s(lp443
g7
atp444
a(S'assolutamente'
p445
(dp446
S'ADV'
p447
F1.0
s(lp448
g20
atp449
a(S'fiduciosi'
p450
(dp451
S'ADJ'
p452
F1.0
s(lp453
g26
atp454
a(S'che'
p455
(dp456
S'PRON'
p457
F0.902948
sS'CONJ'
p458
F0.096789
sS'ADJ'
p459
F0.000263
s(lp460
g34
atp461
a(S'tale'
p462
(dp463
S'PRON'
p464
F0.999869
sS'CONJ'
p465
F0.000123
sS'NOUN'
p466
F8e-06
s(lp467
g42
atp468
a(S'processo'
p469
(dp470
S'VERB'
p471
F2e-05
sS'NOUN'
p472
F0.99998
s(lp473
g48
atp474
a(S'potr\xc3\xa0'
p475
(dp476
S'VERB'
p477
F1.0
s(lp478
g171
atp479
a(S'riprendere'
p480
(dp481
S'VERB'
p482
F1.0
s(lp483
g61
atp484
a(S'nel'
p485
(dp486
S'ADP'
p487
F1.0
s(lp488
g68
atp489
a(S'2011'
p490
(dp491
S'NUM'
p492
F0.999739
sg79
F0.000261
s(lp493
g75
atp494
a(g77
(dp495
g79
F1.0
s(lp496
tp497
a(S'dopo'
p498
(dp499
S'ADV'
p500
F0.193254
sS'CONJ'
p501
F0.451181
sS'ADJ'
p502
F0.003248
sS'ADP'
p503
F0.352317
s(lp504
g86
atp505
a(S'che'
p506
(dp507
S'PRON'
p508
F0.989167
sS'CONJ'
p509
F0.009951
sS'ADJ'
p510
F0.000883
s(lp511
tp512
a(S'saranno'
p513
(dp514
S'VERB'
p515
F1.0
s(lp516
g54
atp517
a(S'state'
p518
(dp519
S'VERB'
p520
F1.0
s(lp521
g131
atp522
a(S'superate'
p523
(dp524
S'VERB'
p525
F0.061940999999999996
sS'ADJ'
p526
F0.938059
s(lp527
g113
atp528
a(S'alcune'
p529
(dp530
S'PRON'
p531
F1.0
s(lp532
tp533
a(S'difficolt\xc3\xa0'
p534
(dp535
S'NOUN'
p536
F1.0
s(lp537
g106
atp538
a(S'di'
p539
(dp540
S'CONJ'
p541
F1.5e-05
sS'ADP'
p542
F0.999985
s(lp543
tp544
a(S'minore'
p545
(dp546
S'NOUN'
p547
F0.020471
sS'ADJ'
p548
F0.979529
s(lp549
tp550
a(S'importanza'
p551
(dp552
S'NOUN'
p553
F1.0
s(lp554
g113
atp555
a(g79
(dp556
g79
F1.0
s(lp557
g79
atp558
asS'sk'
p559
(lp560
(S'sme'
p561
(dp562
g72
F0.001807
sS'VERB'
p563
F0.998193
s(lp564
g7
atp565
a(S'pevne'
p566
(dp567
S'ADV'
p568
F1.0
s(lp569
g20
atp570
a(S'presved\xc4\x8den\xc3\xad'
p571
(dp572
S'VERB'
p573
F0.95833
sS'NOUN'
p574
F0.041669
s(lp575
g26
atp576
a(S'o'
p577
(dp578
g72
F0.000297
sS'CONJ'
p579
F0.000111
sS'NOUN'
p580
F5.8e-05
sS'ADP'
p581
F0.999533
s(lp582
tp583
a(S'tom'
p584
(dp585
S'PRON'
p586
F0.99987
sg72
F0.00013
s(lp587
tp588
a(g77
(dp589
g79
F1.0
s(lp590
tp591
a(S'\xc5\xbee'
p592
(dp593
g72
F0.000353
sS'CONJ'
p594
F0.999647
s(lp595
g34
atp596
a(S'tento'
p597
(dp598
S'PRON'
p599
F0.999982
sg72
F1.8e-05
s(lp600
g42
atp601
a(S'proces'
p602
(dp603
S'NOUN'
p604
F1.0
s(lp605
g48
atp606
a(S'mo\xc5\xbeno'
p607
(dp608
S'ADV'
p609
F0.381759
sg72
F0.618241
s(lp610
g171
atp611
a(S'po'
p612
(dp613
g72
F0.006813
sS'ADP'
p614
F0.993187
s(lp615
g86
atp616
a(S'prekonan\xc3\xad'
p617
(dp618
S'NOUN'
p619
F1.0
s(lp620
g131
atp621
a(S'men\xc5\xa1\xc3\xadch'
p622
(dp623
S'ADJ'
p624
F1.0
s(lp625
g113
atp626
a(S'\xc5\xa5a\xc5\xbekost\xc3\xad'
p627
(dp628
S'NOUN'
p629
F1.0
s(lp630
g106
atp631
a(S'obnovi\xc5\xa5'
p632
(dp633
S'VERB'
p634
F1.0
s(lp635
g61
atp636
a(S'v'
p637
(dp638
g72
F0.000136
sS'ADP'
p639
F0.999865
s(lp640
g68
atp641
a(S'roku'
p642
(dp643
S'NOUN'
p644
F1.0
s(lp645
tp646
a(S'2011'
p647
(dp648
S'NUM'
p649
F1.0
s(lp650
g75
atp651
a(g79
(dp652
g79
F1.0
s(lp653
g79
atp654
asS'pl'
p655
(lp656
(S'mamy'
p657
(dp658
S'VERB'
p659
F0.9999
sS'NOUN'
p660
F0.0001
s(lp661
g7
atp662
a(S'ogromn\xc4\x85'
p663
(dp664
S'ADJ'
p665
F1.0
s(lp666
g20
atp667
a(S'nadziej\xc4\x99'
p668
(dp669
S'NOUN'
p670
F1.0
s(lp671
g26
atp672
a(g77
(dp673
g72
F0.0
sg79
F1.0
s(lp674
tp675
a(S'\xc5\xbce'
p676
(dp677
S'PRT'
p678
F0.000146
sS'CONJ'
p679
F0.999853
s(lp680
g34
atp681
a(S'proces'
p682
(dp683
S'NOUN'
p684
F1.0
s(lp685
g48
atp686
a(S'ten'
p687
(dp688
S'PRT'
p689
F0.009206
sS'ADJ'
p690
F0.9903550000000001
sg72
F0.000441
s(lp691
g42
atp692
a(S'zostanie'
p693
(dp694
S'VERB'
p695
F1.0
s(lp696
g54
atp697
a(S'wznowiony'
p698
(dp699
S'VERB'
p700
F1.0
s(lp701
g61
atp702
a(S'w'
p703
(dp704
S'ADJ'
p705
F0.0
sg72
F0.0
sS'NOUN'
p706
F1.4e-05
sS'ADP'
p707
F0.999986
s(lp708
g68
atp709
a(S'roku'
p710
(dp711
S'NOUN'
p712
F1.0
s(lp713
tp714
a(S'2011'
p715
(dp716
S'ADV'
p717
F1.6e-05
sS'NOUN'
p718
F0.000244
sS'NUM'
p719
F0.14961500000000016
sS'ADJ'
p720
F0.8501059999999998
sg72
F1.4e-05
s(lp721
g75
atp722
a(g77
(dp723
g72
F0.0
sg79
F1.0
s(lp724
tp725
a(S'po'
p726
(dp727
g72
F1e-06
sS'VERB'
p728
F1e-05
sS'NOUN'
p729
F0.0
sS'ADP'
p730
F0.9999899999999999
s(lp731
g86
atp732
a(S'pokonaniu'
p733
(dp734
S'VERB'
p735
F1.0
s(lp736
g131
atp737
a(S'drobnych'
p738
(dp739
S'ADJ'
p740
F1.0
s(lp741
g113
atp742
a(S'trudno\xc5\x9bci'
p743
(dp744
S'NOUN'
p745
F0.9999990000000001
s(lp746
g106
atp747
a(g79
(dp748
g79
F1.0
s(lp749
g79
atp750
asS'sl'
p751
(lp752
(S'prepri\xc4\x8dani'
p753
(dp754
S'ADJ'
p755
F1.0
s(lp756
g26
atp757
a(S'smo'
p758
(dp759
g72
F0.002574
sS'VERB'
p760
F0.997426
s(lp761
g7
atp762
a(g77
(dp763
g79
F1.0
s(lp764
tp765
a(S'da'
p766
(dp767
S'PRT'
p768
F5e-06
sS'CONJ'
p769
F0.99997
sS'VERB'
p770
F2.4e-05
sg72
F1e-06
s(lp771
g34
atp772
a(S'se'
p773
(dp774
S'PRON'
p775
F0.999999
sg72
F1e-06
s(lp776
g54
atp777
a(S'lahko'
p778
(dp779
S'ADV'
p780
F0.999949
sS'ADJ'
p781
F5.1e-05
s(lp782
g171
atp783
a(S'ta'
p784
(dp785
S'PRON'
p786
F1.0
s(lp787
g42
atp788
a(S'proces'
p789
(dp790
S'NOUN'
p791
F1.0
s(lp792
g48
atp793
a(S'po'
p794
(dp795
g72
F9e-06
sS'ADP'
p796
F0.999991
s(lp797
g86
atp798
a(S'odpravi'
p799
(dp800
S'VERB'
p801
F0.000206
sS'NOUN'
p802
F0.999795
s(lp803
g131
atp804
a(S'manj\xc5\xa1ih'
p805
(dp806
S'ADJ'
p807
F1.0000010000000001
s(lp808
g113
atp809
a(S'te\xc5\xbeav'
p810
(dp811
S'NOUN'
p812
F1.0
s(lp813
g106
atp814
a(S'obnovi'
p815
(dp816
S'VERB'
p817
F0.618617
sS'NOUN'
p818
F0.381383
s(lp819
g61
atp820
a(g637
(dp821
S'ADP'
p822
F1.0
s(lp823
g68
atp824
a(S'letu'
p825
(dp826
S'NOUN'
p827
F1.0
s(lp828
tp829
a(S'2011'
p830
(dp831
S'NUM'
p832
F1.0
s(lp833
g75
atp834
a(g79
(dp835
g79
F1.0
s(lp836
g79
atp837
asS'es'
p838
(lp839
(S'tenemos'
p840
(dp841
S'VERB'
p842
F1.0
s(lp843
g14
atp844
a(S'plena'
p845
(dp846
S'ADJ'
p847
F1.0
s(lp848
g20
atp849
a(S'confianza'
p850
(dp851
S'NOUN'
p852
F1.0
s(lp853
g26
atp854
a(S'en'
p855
(dp856
g72
F0.0
sS'CONJ'
p857
F0.00012
sS'ADP'
p858
F0.99988
s(lp859
tp860
a(S'que'
p861
(dp862
g72
F0.0
sS'CONJ'
p863
F1.0
s(lp864
g34
atp865
a(S'este'
p866
(dp867
S'PRON'
p868
F0.999994
sS'NOUN'
p869
F6e-06
s(lp870
g42
atp871
a(S'proceso'
p872
(dp873
S'NOUN'
p874
F1.0
s(lp875
g48
atp876
a(S'se'
p877
(dp878
S'PRON'
p879
F1.0
sS'VERB'
p880
F0.0
s(lp881
g54
atp882
a(S'pueda'
p883
(dp884
S'VERB'
p885
F1.0
s(lp886
g171
atp887
a(S'restablecer'
p888
(dp889
S'VERB'
p890
F1.0
s(lp891
g61
atp892
a(S'en'
p893
(dp894
g72
F0.00115
sS'CONJ'
p895
F5e-06
sS'ADP'
p896
F0.998845
s(lp897
g68
atp898
a(S'2011'
p899
(dp900
g72
F0.072661
sS'NUM'
p901
F0.927339
s(lp902
g75
atp903
a(S'tras'
p904
(dp905
S'ADP'
p906
F1.0
s(lp907
g86
atp908
a(S'superar'
p909
(dp910
S'VERB'
p911
F1.0
s(lp912
g131
atp913
a(S'dificultades'
p914
(dp915
S'NOUN'
p916
F1.0
s(lp917
g106
atp918
a(S'de'
p919
(dp920
g72
F0.000301
sS'CONJ'
p921
F0.000813
sS'ADP'
p922
F0.998886
s(lp923
tp924
a(S'menor'
p925
(dp926
S'ADJ'
p927
F1.0
s(lp928
tp929
a(S'importancia'
p930
(dp931
S'NOUN'
p932
F1.0
s(lp933
g113
atp934
a(g79
(dp935
g79
F1.0
s(lp936
g79
atp937
as.