(dp0
S'fr'
p1
(lp2
(S'comme'
p3
(dp4
S'ADV'
p5
F0.194486
sS'CONJ'
p6
F0.805514
s(lp7
S'as'
p8
atp9
a(S'je'
p10
(dp11
S'PRON'
p12
F1.0
s(lp13
S'i'
p14
atp15
a(S"l'"
p16
(dp17
S'ADJ'
p18
F0.000625
sS'VERB'
p19
F0.9973000000000002
sS'NOUN'
p20
F0.002077
s(lp21
S'said'
p22
atp23
a(S'ai'
p24
(dp25
S'VERB'
p26
F1.0
s(lp27
tp28
a(S'pr\xc3\xa9cis\xc3\xa9'
p29
(dp30
S'VERB'
p31
F1.0
s(lp32
g22
atp33
a(S'dans'
p34
(dp35
S'NOUN'
p36
F2e-06
sS'ADP'
p37
F0.999998
s(lp38
S'in'
p39
atp40
a(S'mes'
p41
(dp42
S'PRON'
p43
F1.0
s(lp44
S'my'
p45
atp46
a(S'remarques'
p47
(dp48
S'VERB'
p49
F1e-06
sS'NOUN'
p50
F0.999999
s(lp51
S'remarks'
p52
atp53
a(S"d'"
p54
(dp55
S'NOUN'
p56
F0.032441
sS'VERB'
p57
F0.6940129999999999
sS'ADJ'
p58
F0.273544
s(lp59
tp60
a(S'ouverture'
p61
(dp62
S'NOUN'
p63
F1.0
s(lp64
S'opening'
p65
atp66
a(S','
p67
(dp68
S'.'
p69
F1.0
s(lp70
g67
atp71
a(S'la'
p72
(dp73
S'PRON'
p74
F6.9e-05
sS'DET'
p75
F0.999931
sS'NOUN'
p76
F0.0
s(lp77
S'the'
p78
atp79
a(S'commission'
p80
(dp81
S'NOUN'
p82
F1.0
s(lp83
S'commission'
p84
atp85
a(S'appr\xc3\xa9cie'
p86
(dp87
S'VERB'
p88
F1.0
s(lp89
S'appreciates'
p90
atp91
a(S'beaucoup'
p92
(dp93
S'ADV'
p94
F1.0
s(lp95
S'much'
p96
atp97
a(S'la'
p98
(dp99
S'PRON'
p100
F2.3e-05
sS'DET'
p101
F0.999977
sS'NOUN'
p102
F0.0
s(lp103
S'the'
p104
atp105
a(S'contribution'
p106
(dp107
S'NOUN'
p108
F1.0
s(lp109
S'contribution'
p110
atp111
a(S'du'
p112
(dp113
S'ADP'
p114
F1.0
s(lp115
S'the'
p116
atp117
a(S'parlement'
p118
(dp119
S'NOUN'
p120
F1.0
s(lp121
S'parliament'
p122
atp123
a(S'europ\xc3\xa9en'
p124
(dp125
S'NOUN'
p126
F0.007478
sS'ADJ'
p127
F0.992522
s(lp128
S'european'
p129
atp130
a(S'au'
p131
(dp132
S'ADP'
p133
F1.0
s(lp134
S'the'
p135
atp136
a(S'd\xc3\xa9bat'
p137
(dp138
S'VERB'
p139
F2e-06
sS'NOUN'
p140
F0.999998
s(lp141
S'debate'
p142
atp143
a(S'sur'
p144
(dp145
S'ADP'
p146
F1.0
s(lp147
S'on'
p148
atp149
a(S'une'
p150
(dp151
S'NOUN'
p152
F1.8e-05
sS'NUM'
p153
F0.024699
sS'DET'
p154
F0.975283
s(lp155
S'a'
p156
atp157
a(S'strat\xc3\xa9gie'
p158
(dp159
S'NOUN'
p160
F1.0
s(lp161
S'strategy'
p162
atp163
a(S'coordonn\xc3\xa9e'
p164
(dp165
S'NOUN'
p166
F0.009364
sS'VERB'
p167
F0.866352
sS'ADJ'
p168
F0.124284
s(lp169
S'coordinated'
p170
atp171
a(S'en'
p172
(dp173
S'PRON'
p174
F0.001524
sS'ADP'
p175
F0.998476
s(lp176
S'to'
p177
atp178
a(S'vue'
p179
(dp180
S'VERB'
p181
F0.001175
sS'NOUN'
p182
F0.998825
s(lp183
S'improve'
p184
atp185
a(S'de'
p186
(dp187
S'ADP'
p188
F1.0
s(lp189
tp190
a(S'lutter'
p191
(dp192
S'VERB'
p193
F1.0
s(lp194
S'fight'
p195
atp196
a(S'contre'
p197
(dp198
S'VERB'
p199
F0.00010099999999999999
sS'NOUN'
p200
F1.9e-05
sS'ADP'
p201
F0.99988
s(lp202
S'against'
p203
atp204
a(S'la'
p205
(dp206
S'PRON'
p207
F0.001159
sS'DET'
p208
F0.99884
sS'NOUN'
p209
F1e-06
s(lp210
tp211
a(S'fraude'
p212
(dp213
S'VERB'
p214
F0.001594
sS'NOUN'
p215
F0.998407
s(lp216
S'fraud'
p217
atp218
a(S'fiscale'
p219
(dp220
S'ADJ'
p221
F1.0
s(lp222
S'fiscal'
p223
atp224
a(g69
(dp225
g69
F1.0
s(lp226
g69
atp227
asS'en'
p228
(lp229
(g8
(dp230
S'ADV'
p231
F0.069528
sS'ADP'
p232
F0.930472
s(lp233
g8
atp234
a(g14
(dp235
S'X'
p236
F0.000908
sS'NOUN'
p237
F0.9990920000000001
s(lp238
g14
atp239
a(g22
(dp240
S'ADJ'
p241
F4e-06
sS'VERB'
p242
F0.999873
sS'NOUN'
p243
F0.000124
s(lp244
g22
atp245
a(g39
(dp246
S'ADV'
p247
F0.001118
sS'PRT'
p248
F0.018234
sS'ADP'
p249
F0.980648
s(lp250
g39
atp251
a(g45
(dp252
S'PRON'
p253
F1.0
s(lp254
g45
atp255
a(g65
(dp256
S'ADJ'
p257
F0.204118
sS'VERB'
p258
F0.050623
sS'NOUN'
p259
F0.745259
s(lp260
g65
atp261
a(g52
(dp262
S'VERB'
p263
F0.007865
sS'NOUN'
p264
F0.992135
s(lp265
g52
atp266
a(g67
(dp267
g69
F1.0
s(lp268
g67
atp269
a(g78
(dp270
S'NOUN'
p271
F4e-06
sS'DET'
p272
F0.999996
s(lp273
g78
atp274
a(g84
(dp275
S'VERB'
p276
F0.00017099999999999998
sS'NOUN'
p277
F0.999829
s(lp278
g84
atp279
a(S'very'
p280
(dp281
S'ADV'
p282
F0.998833
sS'ADJ'
p283
F0.001167
s(lp284
g280
atp285
a(g96
(dp286
S'ADV'
p287
F0.96493
sS'ADJ'
p288
F0.03507
s(lp289
g96
atp290
a(g90
(dp291
S'VERB'
p292
F1.0
s(lp293
g90
atp294
a(g104
(dp295
S'NOUN'
p296
F1e-06
sS'DET'
p297
F0.999999
s(lp298
g104
atp299
a(g110
(dp300
S'NOUN'
p301
F1.0
s(lp302
g110
atp303
a(S'made'
p304
(dp305
S'VERB'
p306
F0.9999279999999999
sS'ADJ'
p307
F7.2e-05
s(lp308
g304
atp309
a(S'by'
p310
(dp311
S'ADV'
p312
F0.000285
sS'NOUN'
p313
F0.0
sS'ADP'
p314
F0.999715
s(lp315
g310
atp316
a(g116
(dp317
S'NOUN'
p318
F1e-06
sS'DET'
p319
F0.999999
s(lp320
g116
atp321
a(g129
(dp322
S'NOUN'
p323
F0.10881199999999999
sS'VERB'
p324
F1.1e-05
sS'ADJ'
p325
F0.891178
s(lp326
g129
atp327
a(g122
(dp328
S'NOUN'
p329
F1.0
s(lp330
g122
atp331
a(S'to'
p332
(dp333
S'ADV'
p334
F1e-06
sS'PRT'
p335
F0.999989
sS'ADP'
p336
F1.1e-05
s(lp337
g332
atp338
a(g135
(dp339
S'NOUN'
p340
F2e-06
sS'DET'
p341
F0.999998
s(lp342
g135
atp343
a(g142
(dp344
S'VERB'
p345
F0.000124
sS'NOUN'
p346
F0.999876
s(lp347
g142
atp348
a(g148
(dp349
S'ADV'
p350
F0.000489
sS'PRT'
p351
F0.000528
sS'ADJ'
p352
F0.0
sS'NOUN'
p353
F0.0
sS'ADP'
p354
F0.998983
s(lp355
g148
atp356
a(g156
(dp357
S'NOUN'
p358
F0.0
sS'DET'
p359
F1.0
s(lp360
g156
atp361
a(g170
(dp362
S'VERB'
p363
F1.0
s(lp364
g170
atp365
a(g162
(dp366
S'NOUN'
p367
F1.0
s(lp368
g162
atp369
a(g177
(dp370
S'ADV'
p371
F0.0
sS'PRT'
p372
F1.0
sS'ADP'
p373
F0.0
s(lp374
g177
atp375
a(g184
(dp376
S'VERB'
p377
F1.0
s(lp378
g184
atp379
a(S'the'
p380
(dp381
S'NOUN'
p382
F1e-06
sS'DET'
p383
F0.999999
s(lp384
g380
atp385
a(g195
(dp386
S'VERB'
p387
F0.0016170000000000002
sS'NOUN'
p388
F0.998383
s(lp389
g195
atp390
a(g203
(dp391
S'ADP'
p392
F1.0
s(lp393
g203
atp394
a(g223
(dp395
S'NOUN'
p396
F0.003422
sS'ADJ'
p397
F0.996578
s(lp398
g223
atp399
a(g217
(dp400
S'NOUN'
p401
F1.0
s(lp402
g217
atp403
a(g69
(dp404
g69
F1.0
s(lp405
g69
atp406
asS'nl'
p407
(lp408
(S'zoals'
p409
(dp410
S'CONJ'
p411
F1.0
s(lp412
g8
atp413
a(S'ik'
p414
(dp415
S'PRON'
p416
F0.999987
sS'NOUN'
p417
F1.3e-05
s(lp418
g14
atp419
a(S'in'
p420
(dp421
S'ADV'
p422
F0.012955
sS'VERB'
p423
F3e-06
sS'ADP'
p424
F0.987041
s(lp425
g39
atp426
a(S'het'
p427
(dp428
S'PRON'
p429
F0.0009390000000000001
sS'DET'
p430
F0.999061
s(lp431
g45
atp432
a(S'begin'
p433
(dp434
S'VERB'
p435
F0.0
sS'NOUN'
p436
F1.0
s(lp437
g65
atp438
a(S'opmerkte'
p439
(dp440
S'VERB'
p441
F1.0
s(lp442
g52
atp443
a(g67
(dp444
g69
F1.0
s(lp445
g67
atp446
a(S'stelt'
p447
(dp448
S'VERB'
p449
F0.999991
sS'NOUN'
p450
F9e-06
s(lp451
g90
atp452
a(S'de'
p453
(dp454
S'DET'
p455
F1.0
s(lp456
g78
atp457
a(S'commissie'
p458
(dp459
S'NOUN'
p460
F1.0
s(lp461
g84
atp462
a(S'de'
p463
(dp464
S'DET'
p465
F1.0
s(lp466
g104
atp467
a(S'bijdrage'
p468
(dp469
S'NOUN'
p470
F1.0
s(lp471
g110
atp472
a(S'van'
p473
(dp474
S'ADP'
p475
F1.0
s(lp476
g310
atp477
a(S'het'
p478
(dp479
S'PRON'
p480
F0.00558
sS'DET'
p481
F0.99442
s(lp482
g116
atp483
a(S'europees'
p484
(dp485
S'NOUN'
p486
F0.047942
sS'ADJ'
p487
F0.952058
s(lp488
g129
atp489
a(S'parlement'
p490
(dp491
S'NOUN'
p492
F1.0
s(lp493
g122
atp494
a(S'aan'
p495
(dp496
S'ADV'
p497
F0.007803
sS'ADP'
p498
F0.992197
s(lp499
g332
atp500
a(S'het'
p501
(dp502
S'PRON'
p503
F0.000933
sS'DET'
p504
F0.999066
s(lp505
g135
atp506
a(S'debat'
p507
(dp508
S'NOUN'
p509
F1.0
s(lp510
g142
atp511
a(S'over'
p512
(dp513
S'ADV'
p514
F0.015324
sS'ADP'
p515
F0.984676
s(lp516
g148
atp517
a(S'de'
p518
(dp519
S'DET'
p520
F1.0
s(lp521
g380
atp522
a(S'bestrijding'
p523
(dp524
S'NOUN'
p525
F1.0
s(lp526
g195
atp527
a(S'van'
p528
(dp529
S'ADP'
p530
F1.0
s(lp531
g203
atp532
a(S'belastingfraude'
p533
(dp534
S'NOUN'
p535
F1.0
s(lp536
g217
atp537
a(S'zeer'
p538
(dp539
S'NOUN'
p540
F0.002779
sS'ADJ'
p541
F0.997221
s(lp542
g90
atp543
a(S'op'
p544
(dp545
S'ADV'
p546
F0.001367
sS'ADJ'
p547
F4.1e-05
sS'ADP'
p548
F0.998592
s(lp549
tp550
a(S'prijs'
p551
(dp552
S'VERB'
p553
F4e-06
sS'NOUN'
p554
F0.999996
s(lp555
g90
atp556
a(g69
(dp557
g69
F1.0
s(lp558
g69
atp559
asS'de'
p560
(lp561
(S'wie'
p562
(dp563
S'CONJ'
p564
F0.999983
s(lp565
g8
atp566
a(S'ich'
p567
(dp568
S'PRON'
p569
F1.0
s(lp570
g14
atp571
a(S'in'
p572
(dp573
S'ADP'
p574
F1.0
s(lp575
g39
atp576
a(S'meinen'
p577
(dp578
S'PRON'
p579
F1.0
sS'VERB'
p580
F0.0
s(lp581
g45
atp582
a(S'einleitenden'
p583
(dp584
S'ADJ'
p585
F1.0
s(lp586
g65
atp587
a(S'worten'
p588
(dp589
S'ADJ'
p590
F0.04708
sS'NOUN'
p591
F0.949626
s(lp592
g52
atp593
a(S'schon'
p594
(dp595
S'ADV'
p596
F0.999877
sS'VERB'
p597
F0.000123
s(lp598
tp599
a(S'sagte'
p600
(dp601
S'VERB'
p602
F1.0
s(lp603
g22
atp604
a(g67
(dp605
g69
F1.0
s(lp606
g67
atp607
a(S'wei\xc3\x9f'
p608
(dp609
S'VERB'
p610
F0.989515
sS'ADJ'
p611
F0.006941
s(lp612
tp613
a(S'die'
p614
(dp615
S'PRON'
p616
F0.001582
sS'DET'
p617
F0.998406
s(lp618
g78
atp619
a(S'kommission'
p620
(dp621
S'ADJ'
p622
F0.014035
sS'NOUN'
p623
F0.974351
s(lp624
g84
atp625
a(S'die'
p626
(dp627
S'PRON'
p628
F0.000597
sS'DET'
p629
F0.999291
s(lp630
g104
atp631
a(S'beitr\xc3\xa4ge'
p632
(dp633
S'ADJ'
p634
F0.007605
sS'NOUN'
p635
F0.983375
s(lp636
g110
atp637
a(S'des'
p638
(dp639
S'DET'
p640
F1.0
s(lp641
g116
atp642
a(S'europ\xc3\xa4ischen'
p643
(dp644
S'ADJ'
p645
F1.0
s(lp646
g129
atp647
a(S'parlaments'
p648
(dp649
S'ADJ'
p650
F0.002472
sS'NOUN'
p651
F0.996167
s(lp652
g122
atp653
a(S'zur'
p654
(dp655
S'ADP'
p656
F1.0
s(lp657
g135
atp658
a(S'debatte'
p659
(dp660
S'ADJ'
p661
F9.9e-05
sS'NOUN'
p662
F0.999868
s(lp663
g142
atp664
a(S'\xc3\xbcber'
p665
(dp666
S'PRT'
p667
F9e-05
sS'ADP'
p668
F0.99991
s(lp669
g148
atp670
a(S'eine'
p671
(dp672
S'PRON'
p673
F0.00166
sS'DET'
p674
F0.998273
s(lp675
g156
atp676
a(S'koordinierte'
p677
(dp678
S'VERB'
p679
F0.000494
sS'ADJ'
p680
F0.999506
s(lp681
g170
atp682
a(S'strategie'
p683
(dp684
S'ADJ'
p685
F0.002896
sS'NOUN'
p686
F0.996153
s(lp687
g162
atp688
a(S'zur'
p689
(dp690
S'ADP'
p691
F1.0
s(lp692
g177
atp693
a(S'verbesserung'
p694
(dp695
S'ADJ'
p696
F6.9e-05
sS'NOUN'
p697
F0.999908
s(lp698
g184
atp699
a(S'der'
p700
(dp701
S'PRON'
p702
F2e-05
sS'DET'
p703
F0.999972
s(lp704
g380
atp705
a(S'bek\xc3\xa4mpfung'
p706
(dp707
S'ADJ'
p708
F0.000209
sS'NOUN'
p709
F0.999683
s(lp710
g195
atp711
a(S'von'
p712
(dp713
S'NOUN'
p714
F0.017736
sS'ADP'
p715
F0.982264
s(lp716
g203
atp717
a(S'steuerbetrug'
p718
(dp719
S'ADJ'
p720
F0.094508
sS'NOUN'
p721
F0.863662
s(lp722
g217
atp723
a(S'sehr'
p724
(dp725
S'ADV'
p726
F1.0
s(lp727
g280
atp728
a(S'zu'
p729
(dp730
S'PRT'
p731
F0.999675
s(lp732
tp733
a(S'sch\xc3\xa4tzen'
p734
(dp735
S'VERB'
p736
F1.0
s(lp737
g90
atp738
a(g69
(dp739
g69
F1.0
s(lp740
g69
atp741
asS'it'
p742
(lp743
(S'come'
p744
(dp745
S'PRON'
p746
F0.247417
sS'CONJ'
p747
F0.748183
sS'NOUN'
p748
F0.000142
sS'ADP'
p749
F0.004258
s(lp750
g8
atp751
a(S'ho'
p752
(dp753
S'VERB'
p754
F1.0
s(lp755
g14
atp756
a(S'affermato'
p757
(dp758
S'VERB'
p759
F0.998913
sS'ADJ'
p760
F0.001087
s(lp761
g22
atp762
a(S'nelle'
p763
(dp764
S'ADP'
p765
F1.0
s(lp766
g39
atp767
a(S'mie'
p768
(dp769
S'PRON'
p770
F1.0
s(lp771
g45
atp772
a(S'osservazioni'
p773
(dp774
S'NOUN'
p775
F1.0
s(lp776
g52
atp777
a(S'iniziali'
p778
(dp779
S'NOUN'
p780
F0.058475
sS'VERB'
p781
F0.0
sS'ADJ'
p782
F0.941525
s(lp783
g65
atp784
a(g67
(dp785
g69
F1.0
s(lp786
g67
atp787
a(S'la'
p788
(dp789
S'PRON'
p790
F0.000686
sS'DET'
p791
F0.999314
s(lp792
g78
atp793
a(S'commissione'
p794
(dp795
S'NOUN'
p796
F1.0
s(lp797
g84
atp798
a(S'apprezza'
p799
(dp800
S'VERB'
p801
F1.0
s(lp802
g90
atp803
a(S'molto'
p804
(dp805
S'ADV'
p806
F0.981416
sS'PRON'
p807
F0.001216
sS'VERB'
p808
F0.009304
sS'ADJ'
p809
F0.008064
s(lp810
g280
atp811
a(S'il'
p812
(dp813
S'DET'
p814
F1.0
s(lp815
g104
atp816
a(S'contributo'
p817
(dp818
S'NOUN'
p819
F1.0
s(lp820
g110
atp821
a(S'offerto'
p822
(dp823
S'VERB'
p824
F0.921088
sS'ADJ'
p825
F0.078912
s(lp826
g304
atp827
a(S'dal'
p828
(dp829
S'ADP'
p830
F1.0
s(lp831
g310
atp832
a(S'parlamento'
p833
(dp834
S'VERB'
p835
F0.00032
sS'NOUN'
p836
F0.99968
s(lp837
g122
atp838
a(S'europeo'
p839
(dp840
S'NOUN'
p841
F0.002646
sS'ADJ'
p842
F0.997354
s(lp843
g129
atp844
a(S'alla'
p845
(dp846
S'ADP'
p847
F1.0
s(lp848
g332
atp849
a(S'discussione'
p850
(dp851
S'NOUN'
p852
F1.0
s(lp853
g142
atp854
a(S'su'
p855
(dp856
S'ADV'
p857
F0.01259
sS'ADP'
p858
F0.98741
s(lp859
g148
atp860
a(S'una'
p861
(dp862
S'PRON'
p863
F0.000158
sS'DEF'
p864
F0.999842
s(lp865
g156
atp866
a(S'strategia'
p867
(dp868
S'NOUN'
p869
F1.0
s(lp870
tp871
a(S'coordinata'
p872
(dp873
S'NOUN'
p874
F0.001239
sS'VERB'
p875
F0.047664
sS'ADJ'
p876
F0.951097
s(lp877
g170
atp878
a(S'volta'
p879
(dp880
S'ADJ'
p881
F0.004894
sS'VERB'
p882
F0.013977999999999999
sS'NOUN'
p883
F0.981128
s(lp884
g162
atp885
a(g156
(dp886
S'CONJ'
p887
F0.000332
sS'ADP'
p888
F0.999668
s(lp889
g177
atp890
a(S'migliorare'
p891
(dp892
S'VERB'
p893
F1.0
s(lp894
g184
atp895
a(S'la'
p896
(dp897
S'PRON'
p898
F3e-06
sS'DET'
p899
F0.999997
s(lp900
g380
atp901
a(S'lotta'
p902
(dp903
S'VERB'
p904
F0.000533
sS'NOUN'
p905
F0.999467
s(lp906
g195
atp907
a(S'contro'
p908
(dp909
S'ADV'
p910
F0.279489
sS'ADP'
p911
F0.720511
s(lp912
g203
atp913
a(S'la'
p914
(dp915
S'PRON'
p916
F0.000193
sS'DET'
p917
F0.999807
s(lp918
tp919
a(S'frode'
p920
(dp921
S'NOUN'
p922
F1.0
s(lp923
g217
atp924
a(S'fiscale'
p925
(dp926
S'NOUN'
p927
F0.000665
sS'ADJ'
p928
F0.999335
s(lp929
g223
atp930
a(g69
(dp931
g69
F1.0
s(lp932
g69
atp933
asS'sk'
p934
(lp935
(S'ako'
p936
(dp937
S'PRON'
p938
F0.174276
sS'CONJ'
p939
F0.825202
sg236
F0.000522
s(lp940
g8
atp941
a(S'som'
p942
(dp943
S'VERB'
p944
F1.0
s(lp945
g14
atp946
a(S'povedal'
p947
(dp948
S'VERB'
p949
F1.0
s(lp950
g22
atp951
a(S'vo'
p952
(dp953
S'ADP'
p954
F1.0
s(lp955
g39
atp956
a(S'svojom'
p957
(dp958
S'PRON'
p959
F1.0
s(lp960
g45
atp961
a(S'\xc3\xbavodnom'
p962
(dp963
S'ADJ'
p964
F1.0
s(lp965
g65
atp966
a(S'vyst\xc3\xbapen\xc3\xad'
p967
(dp968
S'NOUN'
p969
F1.0
s(lp970
g52
atp971
a(g67
(dp972
g69
F1.0
s(lp973
g67
atp974
a(S'komisia'
p975
(dp976
S'NOUN'
p977
F1.0
s(lp978
g84
atp979
a(S've\xc4\xbemi'
p980
(dp981
S'ADV'
p982
F1.0
s(lp983
g280
atp984
a(S'oce\xc5\x88uje'
p985
(dp986
S'VERB'
p987
F1.0
s(lp988
g90
atp989
a(S'pr\xc3\xadspevok'
p990
(dp991
S'NOUN'
p992
F1.0
s(lp993
g110
atp994
a(S'eur\xc3\xb3pskeho'
p995
(dp996
S'ADJ'
p997
F1.0
s(lp998
g129
atp999
a(S'parlamentu'
p1000
(dp1001
S'NOUN'
p1002
F1.0
s(lp1003
g122
atp1004
a(S'k'
p1005
(dp1006
g236
F0.000426
sS'NOUN'
p1007
F9.999999999999999e-06
sS'ADP'
p1008
F0.999563
s(lp1009
g332
atp1010
a(S'diskusii'
p1011
(dp1012
S'NOUN'
p1013
F1.0
s(lp1014
g142
atp1015
a(S'o'
p1016
(dp1017
g236
F0.002202
sS'CONJ'
p1018
F0.000113
sS'NOUN'
p1019
F3.6e-05
sS'ADP'
p1020
F0.997649
s(lp1021
g148
atp1022
a(S'koordinovanej'
p1023
(dp1024
S'VERB'
p1025
F1.0
s(lp1026
g170
atp1027
a(S'strat\xc3\xa9gii'
p1028
(dp1029
S'NOUN'
p1030
F1.0
s(lp1031
g162
atp1032
a(S's'
p1033
(dp1034
g236
F0.002775
sS'CONJ'
p1035
F6.4e-05
sS'NOUN'
p1036
F1.4e-05
sS'ADP'
p1037
F0.997126
sS'PRT'
p1038
F2.1e-05
s(lp1039
tp1040
a(S'cie\xc4\xbeom'
p1041
(dp1042
S'NOUN'
p1043
F1.0
s(lp1044
g177
atp1045
a(S'zlep\xc5\xa1i\xc5\xa5'
p1046
(dp1047
S'VERB'
p1048
F1.0
s(lp1049
g184
atp1050
a(S'boj'
p1051
(dp1052
g236
F0.000492
sS'VERB'
p1053
F0.0
sS'NOUN'
p1054
F0.999508
s(lp1055
g195
atp1056
a(S'proti'
p1057
(dp1058
S'ADV'
p1059
F0.000756
sS'ADP'
p1060
F0.999244
s(lp1061
g203
atp1062
a(S'da\xc5\x88ov\xc3\xbdm'
p1063
(dp1064
S'ADJ'
p1065
F1.0
s(lp1066
g223
atp1067
a(S'podvodom'
p1068
(dp1069
S'NOUN'
p1070
F1.0
s(lp1071
g217
atp1072
a(g69
(dp1073
g69
F1.0
s(lp1074
g69
atp1075
asS'pl'
p1076
(lp1077
(S'jak'
p1078
(dp1079
S'ADV'
p1080
F0.9236169999999999
sS'PRT'
p1081
F0.001098
sS'CONJ'
p1082
F0.070675
sS'ADP'
p1083
F0.004571
sS'PRON'
p1084
F3.9e-05
s(lp1085
g8
atp1086
a(S'powiedzia\xc5\x82em'
p1087
(dp1088
S'ADV'
p1089
F0.007472
sS'ADJ'
p1090
F0.003773
sS'VERB'
p1091
F0.045052999999999996
sS'NOUN'
p1092
F0.943701
s(lp1093
g22
atp1094
a(S'w'
p1095
(dp1096
S'NOUN'
p1097
F0.0
sS'ADJ'
p1098
F0.0
sS'ADP'
p1099
F1.0
sg236
F0.0
s(lp1100
g39
atp1101
a(S'przem\xc3\xb3wieniu'
p1102
(dp1103
S'NOUN'
p1104
F1.0
s(lp1105
g65
atp1106
a(S'wst\xc4\x99pnym'
p1107
(dp1108
S'ADV'
p1109
F0.00073
sS'NOUN'
p1110
F0.024242999999999994
sS'VERB'
p1111
F0.041247
sS'ADJ'
p1112
F0.9337769999999999
s(lp1113
g52
atp1114
a(g67
(dp1115
g236
F0.0
sg69
F1.0
s(lp1116
g67
atp1117
a(S'komisja'
p1118
(dp1119
S'NOUN'
p1120
F1.0
s(lp1121
g84
atp1122
a(S'docenia'
p1123
(dp1124
S'VERB'
p1125
F1.0
s(lp1126
g90
atp1127
a(S'wk\xc5\x82ad'
p1128
(dp1129
S'NOUN'
p1130
F1.0
s(lp1131
g110
atp1132
a(S'parlamentu'
p1133
(dp1134
S'NOUN'
p1135
F1.0
s(lp1136
g122
atp1137
a(S'europejskiego'
p1138
(dp1139
S'ADJ'
p1140
F1.0
s(lp1141
g129
atp1142
a(g1095
(dp1143
S'ADJ'
p1144
F0.0
sg236
F9.9e-05
sS'NOUN'
p1145
F8e-06
sS'ADP'
p1146
F0.999892
s(lp1147
g332
atp1148
a(S'te'
p1149
(dp1150
S'NOUN'
p1151
F0.0006000000000000001
sS'ADJ'
p1152
F0.9992570000000001
sg236
F0.000142
s(lp1153
g135
atp1154
a(S'debat\xc4\x99'
p1155
(dp1156
S'NOUN'
p1157
F1.0
s(lp1158
g142
atp1159
a(S'dotycz\xc4\x85c\xc4\x85'
p1160
(dp1161
S'VERB'
p1162
F1.0
s(lp1163
g148
atp1164
a(S'skoordynowanej'
p1165
(dp1166
S'NOUN'
p1167
F0.004971000000000001
sS'VERB'
p1168
F0.17340200000000006
sS'ADJ'
p1169
F0.821627
s(lp1170
g170
atp1171
a(S'strategii'
p1172
(dp1173
S'NOUN'
p1174
F0.9999999999999999
s(lp1175
g162
atp1176
a(g1095
(dp1177
S'NOUN'
p1178
F0.0
sS'ADJ'
p1179
F0.0
sS'ADP'
p1180
F1.0
sg236
F0.0
s(lp1181
tp1182
a(S'celu'
p1183
(dp1184
S'NOUN'
p1185
F1.0
s(lp1186
g177
atp1187
a(S'poprawy'
p1188
(dp1189
S'NOUN'
p1190
F1.0
s(lp1191
g184
atp1192
a(S'walki'
p1193
(dp1194
S'NOUN'
p1195
F1.0
s(lp1196
g195
atp1197
a(S'z'
p1198
(dp1199
S'PRT'
p1200
F1e-06
sS'VERB'
p1201
F0.0
sS'NOUN'
p1202
F0.0
sS'ADP'
p1203
F0.999999
sg236
F0.0
s(lp1204
g203
atp1205
a(S'oszustwami'
p1206
(dp1207
S'ADV'
p1208
F1e-06
sS'ADJ'
p1209
F0.00012900000000000002
sS'VERB'
p1210
F9.999999999999999e-06
sS'NOUN'
p1211
F0.999856
s(lp1212
g217
atp1213
a(S'podatkowymi'
p1214
(dp1215
S'ADV'
p1216
F0.00019
sS'NOUN'
p1217
F0.007268
sS'VERB'
p1218
F0.0019309999999999998
sS'ADJ'
p1219
F0.9906090000000001
s(lp1220
g223
atp1221
a(g69
(dp1222
g69
F1.0
s(lp1223
g69
atp1224
asS'sl'
p1225
(lp1226
(S'kot'
p1227
(dp1228
S'CONJ'
p1229
F0.999766
sS'NOUN'
p1230
F0.000233
s(lp1231
g8
atp1232
a(S'sem'
p1233
(dp1234
S'ADV'
p1235
F0.001081
sS'PRT'
p1236
F4.9e-05
sS'VERB'
p1237
F0.99887
s(lp1238
g14
atp1239
a(S'dejal'
p1240
(dp1241
S'VERB'
p1242
F1.0
s(lp1243
g22
atp1244
a(S'v'
p1245
(dp1246
S'ADP'
p1247
F1.0
s(lp1248
g39
atp1249
a(S'svojih'
p1250
(dp1251
S'PRON'
p1252
F1.000001
s(lp1253
g45
atp1254
a(S'uvodnih'
p1255
(dp1256
S'ADJ'
p1257
F1.0
s(lp1258
g65
atp1259
a(S'pripombah'
p1260
(dp1261
S'ADV'
p1262
F0.001266
sS'ADJ'
p1263
F0.001181
sS'VERB'
p1264
F0.007379
sS'NOUN'
p1265
F0.990174
s(lp1266
g52
atp1267
a(g67
(dp1268
g69
F1.0
s(lp1269
g67
atp1270
a(S'komisija'
p1271
(dp1272
S'NOUN'
p1273
F1.0
s(lp1274
g84
atp1275
a(S'zelo'
p1276
(dp1277
S'ADV'
p1278
F1.0
s(lp1279
g280
atp1280
a(S'ceni'
p1281
(dp1282
S'VERB'
p1283
F0.98602
sS'NOUN'
p1284
F0.013981
s(lp1285
g90
atp1286
a(S'prispevek'
p1287
(dp1288
S'NOUN'
p1289
F1.0
s(lp1290
g110
atp1291
a(g67
(dp1292
g69
F1.0
s(lp1293
tp1294
a(S'ki'
p1295
(dp1296
S'CONJ'
p1297
F1.0
s(lp1298
tp1299
a(S'ga'
p1300
(dp1301
S'PRON'
p1302
F1.0
s(lp1303
g310
atp1304
a(S'je'
p1305
(dp1306
S'PRON'
p1307
F1.1e-05
sS'VERB'
p1308
F0.999989
sg236
F0.0
s(lp1309
g116
atp1310
a(S'dal'
p1311
(dp1312
S'VERB'
p1313
F1.0
s(lp1314
g304
atp1315
a(S'evropski'
p1316
(dp1317
S'ADJ'
p1318
F1.0
s(lp1319
g129
atp1320
a(S'parlament'
p1321
(dp1322
S'NOUN'
p1323
F1.0
s(lp1324
g122
atp1325
a(g1005
(dp1326
S'NOUN'
p1327
F0.003915
sS'ADP'
p1328
F0.996085
s(lp1329
g332
atp1330
a(S'razpravi'
p1331
(dp1332
S'NOUN'
p1333
F1.0
s(lp1334
g142
atp1335
a(g1016
(dp1336
S'NOUN'
p1337
F0.008129
sS'ADP'
p1338
F0.991871
s(lp1339
g148
atp1340
a(S'usklajeni'
p1341
(dp1342
S'ADJ'
p1343
F1.0
s(lp1344
g170
atp1345
a(S'strategiji'
p1346
(dp1347
S'NOUN'
p1348
F1.0
s(lp1349
g162
atp1350
a(S'za'
p1351
(dp1352
S'ADV'
p1353
F2.5e-05
sg236
F8e-06
sS'ADP'
p1354
F0.9999669999999999
s(lp1355
g177
atp1356
a(S'izbolj\xc5\xa1anje'
p1357
(dp1358
S'NOUN'
p1359
F1.0
s(lp1360
g184
atp1361
a(S'boja'
p1362
(dp1363
S'NOUN'
p1364
F1.0
s(lp1365
g195
atp1366
a(S'proti'
p1367
(dp1368
S'ADV'
p1369
F0.000112
sS'ADP'
p1370
F0.999888
s(lp1371
g203
atp1372
a(S'dav\xc4\x8dnim'
p1373
(dp1374
S'ADJ'
p1375
F1.0
s(lp1376
g223
atp1377
a(S'goljufijam'
p1378
(dp1379
S'ADV'
p1380
F0.0
sS'ADJ'
p1381
F4e-06
sS'VERB'
p1382
F5.999999999999999e-05
sS'NOUN'
p1383
F0.9999330000000002
s(lp1384
g217
atp1385
a(g69
(dp1386
g69
F1.0
s(lp1387
g69
atp1388
asS'es'
p1389
(lp1390
(S'como'
p1391
(dp1392
S'ADV'
p1393
F0.143655
sS'CONJ'
p1394
F0.856345
s(lp1395
g8
atp1396
a(S'se\xc3\xb1al\xc3\xa9'
p1397
(dp1398
S'VERB'
p1399
F1.0
s(lp1400
g22
atp1401
a(S'en'
p1402
(dp1403
g236
F0.0
sS'CONJ'
p1404
F9e-06
sS'ADP'
p1405
F0.999991
s(lp1406
g39
atp1407
a(S'mi'
p1408
(dp1409
S'PRON'
p1410
F1.0
s(lp1411
g45
atp1412
a(S'intervenci\xc3\xb3n'
p1413
(dp1414
S'NOUN'
p1415
F1.0
s(lp1416
g52
atp1417
a(S'inicial'
p1418
(dp1419
S'NOUN'
p1420
F0.00012
sS'ADJ'
p1421
F0.99988
s(lp1422
g65
atp1423
a(g67
(dp1424
g69
F1.0
s(lp1425
g67
atp1426
a(S'la'
p1427
(dp1428
S'PRON'
p1429
F3.5e-05
sS'DET'
p1430
F0.999959
sS'NOUN'
p1431
F0.0
sg236
F5e-06
s(lp1432
g78
atp1433
a(S'comisi\xc3\xb3n'
p1434
(dp1435
S'NOUN'
p1436
F1.0
s(lp1437
g84
atp1438
a(S'valora'
p1439
(dp1440
S'VERB'
p1441
F1.0
s(lp1442
g90
atp1443
a(S'enormemente'
p1444
(dp1445
S'ADV'
p1446
F1.0
s(lp1447
g280
atp1448
a(S'la'
p1449
(dp1450
S'PRON'
p1451
F0.000348
sS'DET'
p1452
F0.999652
sg236
F0.0
sS'NOUN'
p1453
F0.0
s(lp1454
g104
atp1455
a(S'contribuci\xc3\xb3n'
p1456
(dp1457
S'NOUN'
p1458
F1.0
s(lp1459
g110
atp1460
a(S'realizada'
p1461
(dp1462
S'VERB'
p1463
F1.0
s(lp1464
g304
atp1465
a(S'por'
p1466
(dp1467
S'ADP'
p1468
F1.0
s(lp1469
g310
atp1470
a(S'el'
p1471
(dp1472
S'PRON'
p1473
F7.1e-05
sS'DET'
p1474
F0.999929
s(lp1475
g116
atp1476
a(S'parlamento'
p1477
(dp1478
S'VERB'
p1479
F0.000156
sS'NOUN'
p1480
F0.999844
s(lp1481
g122
atp1482
a(S'europeo'
p1483
(dp1484
S'NOUN'
p1485
F0.001693
sS'ADJ'
p1486
F0.998307
s(lp1487
g129
atp1488
a(S'al'
p1489
(dp1490
S'CONJ'
p1491
F0.775328
sS'ADP'
p1492
F0.22467199999999998
s(lp1493
g135
atp1494
a(S'debate'
p1495
(dp1496
S'VERB'
p1497
F1.0
s(lp1498
g142
atp1499
a(S'sobre'
p1500
(dp1501
S'NOUN'
p1502
F0.0
sS'ADP'
p1503
F1.0
s(lp1504
g148
atp1505
a(S'una'
p1506
(dp1507
S'DET'
p1508
F1.0
s(lp1509
g156
atp1510
a(S'estrategia'
p1511
(dp1512
S'NOUN'
p1513
F1.0
s(lp1514
g162
atp1515
a(S'coordinada'
p1516
(dp1517
S'VERB'
p1518
F1.0
s(lp1519
g170
atp1520
a(S'para'
p1521
(dp1522
S'CONJ'
p1523
F0.000888
sS'ADP'
p1524
F0.999112
s(lp1525
g177
atp1526
a(S'la'
p1527
(dp1528
g236
F0.0
sS'PRON'
p1529
F0.0
sS'DET'
p1530
F0.999999
sS'NOUN'
p1531
F0.0
s(lp1532
tp1533
a(S'mejora'
p1534
(dp1535
S'VERB'
p1536
F3e-06
sS'NOUN'
p1537
F0.999997
s(lp1538
g184
atp1539
a(S'de'
p1540
(dp1541
g236
F0.0
sS'CONJ'
p1542
F1.7e-05
sS'ADP'
p1543
F0.999983
s(lp1544
tp1545
a(S'la'
p1546
(dp1547
g236
F0.0
sS'PRON'
p1548
F0.0
sS'DET'
p1549
F0.999999
sS'NOUN'
p1550
F0.0
s(lp1551
g380
atp1552
a(S'lucha'
p1553
(dp1554
S'VERB'
p1555
F2e-05
sS'NOUN'
p1556
F0.99998
s(lp1557
g195
atp1558
a(S'contra'
p1559
(dp1560
S'ADP'
p1561
F1.0
s(lp1562
g203
atp1563
a(S'el'
p1564
(dp1565
S'PRON'
p1566
F5e-06
sS'DET'
p1567
F0.999995
s(lp1568
tp1569
a(S'fraude'
p1570
(dp1571
S'NOUN'
p1572
F1.0
s(lp1573
g217
atp1574
a(S'fiscal'
p1575
(dp1576
S'NOUN'
p1577
F0.008827
sS'ADJ'
p1578
F0.991173
s(lp1579
g223
atp1580
a(g69
(dp1581
g69
F1.0
s(lp1582
g69
atp1583
as.