(dp0
S'fr'
p1
(lp2
(S'dans'
p3
(dp4
S'NOUN'
p5
F6.4e-05
sS'ADP'
p6
F0.999936
s(lp7
S'in'
p8
atp9
a(S'le'
p10
(dp11
S'PRON'
p12
F6.2e-05
sS'DET'
p13
F0.999938
s(lp14
S'the'
p15
atp16
a(S'cas'
p17
(dp18
S'NOUN'
p19
F1.0
s(lp20
S'case'
p21
atp22
a(S'des'
p23
(dp24
S'DET'
p25
F3.1e-05
sS'ADP'
p26
F0.999969
s(lp27
S'of'
p28
atp29
a(S'nouveaux'
p30
(dp31
S'NOUN'
p32
F0.129982
sS'ADJ'
p33
F0.870018
s(lp34
S'new'
p35
atp36
a(S'\xc3\x89tats'
p37
(dp38
S'NOUN'
p39
F1.0
s(lp40
S'states'
p41
atp42
a(S'membres'
p43
(dp44
S'VERB'
p45
F0.6240439999999999
sS'NOUN'
p46
F0.375956
s(lp47
S'member'
p48
atp49
a(S'confront\xc3\xa9s'
p50
(dp51
S'VERB'
p52
F1.0
s(lp53
S'confronted'
p54
atp55
a(S'\xc3\xa0'
p56
(dp57
S'ADP'
p58
F1.0
s(lp59
S'with'
p60
atp61
a(S'la'
p62
(dp63
S'PRON'
p64
F0.000379
sS'DET'
p65
F0.999611
sS'NOUN'
p66
F1e-05
s(lp67
S'the'
p68
atp69
a(S'n\xc3\xa9cessit\xc3\xa9'
p70
(dp71
S'VERB'
p72
F0.005228
sS'NOUN'
p73
F0.994772
s(lp74
S'requirement'
p75
atp76
a(S'de'
p77
(dp78
S'ADP'
p79
F1.0
s(lp80
S'to'
p81
atp82
a(S'd\xc3\xa9manteler'
p83
(dp84
S'VERB'
p85
F1.0
s(lp86
S'decommission'
p87
atp88
a(S'un'
p89
(dp90
S'NOUN'
p91
F0.003076
sS'NUM'
p92
F0.000208
sS'DET'
p93
F0.996715
s(lp94
S'a'
p95
atp96
a(S'certain'
p97
(dp98
S'PRON'
p99
F0.950226
sS'ADJ'
p100
F0.049774
s(lp101
tp102
a(S'nombre'
p103
(dp104
S'VERB'
p105
F0.007648
sS'NOUN'
p106
F0.992352
s(lp107
S'number'
p108
atp109
a(S'de'
p110
(dp111
S'ADP'
p112
F1.0
s(lp113
S'of'
p114
atp115
a(S'centrales'
p116
(dp117
S'NOUN'
p118
F0.33391
sS'ADJ'
p119
F0.66609
s(lp120
S'plants'
p121
atp122
a(S','
p123
(dp124
S'.'
p125
F1.0
s(lp126
g123
atp127
a(S'il'
p128
(dp129
S'PRON'
p130
F1.0
s(lp131
S'it'
p132
atp133
a(S'nous'
p134
(dp135
S'PRON'
p136
F1.0
s(lp137
S'us'
p138
atp139
a(S'semble'
p140
(dp141
S'VERB'
p142
F1.0
s(lp143
S'seems'
p144
atp145
a(S'absolument'
p146
(dp147
S'ADV'
p148
F1.0
s(lp149
S'only'
p150
atp151
a(S'normal'
p152
(dp153
S'NOUN'
p154
F0.046303
sS'ADJ'
p155
F0.953697
s(lp156
S'right'
p157
atp158
a(S"qu'"
p159
(dp160
S'ADJ'
p161
F0.139531
sS'VERB'
p162
F0.210377
sS'NOUN'
p163
F0.650091
s(lp164
S'that'
p165
atp166
a(S'ils'
p167
(dp168
S'PRON'
p169
F1.0
s(lp170
S'they'
p171
atp172
a(S'puissent'
p173
(dp174
S'VERB'
p175
F1.0
s(lp176
S'able'
p177
atp178
a(S'compter'
p179
(dp180
S'VERB'
p181
F1.0
s(lp182
S'expect'
p183
atp184
a(S'sur'
p185
(dp186
S'ADP'
p187
F1.0
s(lp188
S'to'
p189
atp190
a(S'une'
p191
(dp192
S'NOUN'
p193
F6.9e-05
sS'NUM'
p194
F0.024775
sS'DET'
p195
F0.975157
s(lp196
tp197
a(S'aide'
p198
(dp199
S'VERB'
p200
F0.000283
sS'NOUN'
p201
F0.999717
s(lp202
S'support'
p203
atp204
a(S'de'
p205
(dp206
S'ADP'
p207
F1.0
s(lp208
S'to'
p209
atp210
a(S"l'"
p211
(dp212
S'ADJ'
p213
F0.160704
sS'VERB'
p214
F0.06480800000000002
sS'NOUN'
p215
F0.774488
s(lp216
tp217
a(S'union'
p218
(dp219
S'NOUN'
p220
F1.0
s(lp221
S'eu'
p222
atp223
a(S'afin'
p224
(dp225
S'CONJ'
p226
F1.0
s(lp227
tp228
a(S"d'"
p229
(dp230
S'NOUN'
p231
F0.050387
sS'VERB'
p232
F0.8915730000000001
sS'ADJ'
p233
F0.05804
s(lp234
g209
atp235
a(S'achever'
p236
(dp237
S'VERB'
p238
F1.0
s(lp239
S'complete'
p240
atp241
a(S'comme'
p242
(dp243
S'ADV'
p244
F0.195024
sS'CONJ'
p245
F0.804976
s(lp246
S'adequately'
p247
atp248
a(S'il'
p249
(dp250
S'PRON'
p251
F1.0
s(lp252
tp253
a(S'convient'
p254
(dp255
S'VERB'
p256
F1.0
s(lp257
g247
atp258
a(g123
(dp259
g125
F1.0
s(lp260
tp261
a(S'et'
p262
(dp263
S'CONJ'
p264
F1.0
s(lp265
S'and'
p266
atp267
a(S'dans'
p268
(dp269
S'NOUN'
p270
F2e-05
sS'ADP'
p271
F0.99998
s(lp272
tp273
a(S'la'
p274
(dp275
S'PRON'
p276
F1.2e-05
sS'DET'
p277
F0.999988
sS'NOUN'
p278
F0.0
s(lp279
tp280
a(S's\xc3\xa9curit\xc3\xa9'
p281
(dp282
S'NOUN'
p283
F1.0
s(lp284
S'safely'
p285
atp286
a(g123
(dp287
g125
F1.0
s(lp288
tp289
a(S'leur'
p290
(dp291
S'PRON'
p292
F1.0
s(lp293
S'their'
p294
atp295
a(S'processus'
p296
(dp297
S'NOUN'
p298
F1.0
s(lp299
S'processes'
p300
atp301
a(S'de'
p302
(dp303
S'ADP'
p304
F1.0
s(lp305
tp306
a(S'd\xc3\xa9mant\xc3\xa8lement'
p307
(dp308
S'NOUN'
p309
F1.0
s(lp310
S'decommissioning'
p311
atp312
a(g125
(dp313
g125
F1.0
s(lp314
g125
atp315
asS'en'
p316
(lp317
(g8
(dp318
S'ADV'
p319
F0.001492
sS'PRT'
p320
F0.0
sS'ADP'
p321
F0.998508
s(lp322
g8
atp323
a(g15
(dp324
S'NOUN'
p325
F1e-06
sS'DET'
p326
F0.999999
s(lp327
g15
atp328
a(g21
(dp329
S'VERB'
p330
F3e-06
sS'NOUN'
p331
F0.999997
s(lp332
g21
atp333
a(g28
(dp334
S'ADP'
p335
F1.0
s(lp336
g28
atp337
a(g35
(dp338
S'NOUN'
p339
F3.2e-05
sS'ADJ'
p340
F0.999968
s(lp341
g35
atp342
a(g48
(dp343
S'NOUN'
p344
F1.0
s(lp345
g48
atp346
a(g41
(dp347
S'VERB'
p348
F0.015294
sS'NOUN'
p349
F0.984706
s(lp350
g41
atp351
a(g54
(dp352
S'VERB'
p353
F1.0
s(lp354
g54
atp355
a(g60
(dp356
S'ADP'
p357
F1.0
s(lp358
g60
atp359
a(g68
(dp360
S'NOUN'
p361
F1e-06
sS'DET'
p362
F0.999999
s(lp363
g68
atp364
a(g75
(dp365
S'NOUN'
p366
F1.0
s(lp367
g75
atp368
a(g81
(dp369
S'ADV'
p370
F0.0
sS'PRT'
p371
F0.99999
sS'ADP'
p372
F1e-05
s(lp373
g81
atp374
a(g87
(dp375
S'NOUN'
p376
F1.0
s(lp377
g87
atp378
a(g95
(dp379
S'NOUN'
p380
F3e-06
sS'DET'
p381
F0.999997
s(lp382
g95
atp383
a(g108
(dp384
S'ADJ'
p385
F0.000161
sS'VERB'
p386
F0.0
sS'NOUN'
p387
F0.999838
s(lp388
g108
atp389
a(g114
(dp390
S'ADP'
p391
F1.0
s(lp392
g114
atp393
a(g121
(dp394
S'VERB'
p395
F1e-05
sS'NOUN'
p396
F0.99999
s(lp397
g121
atp398
a(g123
(dp399
g125
F1.0
s(lp400
g123
atp401
a(g132
(dp402
S'PRON'
p403
F1.0
s(lp404
g132
atp405
a(g144
(dp406
S'VERB'
p407
F1.0
s(lp408
g144
atp409
a(g150
(dp410
S'ADV'
p411
F0.875731
sS'NOUN'
p412
F2.1e-05
sS'ADJ'
p413
F0.124248
s(lp414
g150
atp415
a(g157
(dp416
S'ADV'
p417
F0.609317
sS'NOUN'
p418
F0.186337
sS'VERB'
p419
F0.000937
sS'ADJ'
p420
F0.20341
s(lp421
g157
atp422
a(S'to'
p423
(dp424
S'ADV'
p425
F1.5e-05
sS'PRT'
p426
F0.999967
sS'ADP'
p427
F1.8e-05
s(lp428
g423
atp429
a(g138
(dp430
S'PRON'
p431
F1.0
s(lp432
g138
atp433
a(g165
(dp434
S'ADV'
p435
F0.003419
sS'DET'
p436
F0.171528
sS'ADP'
p437
F0.825053
s(lp438
g165
atp439
a(g171
(dp440
S'PRON'
p441
F1.0
s(lp442
g171
atp443
a(S'be'
p444
(dp445
S'VERB'
p446
F1.0
s(lp447
g444
atp448
a(g177
(dp449
S'ADJ'
p450
F1.0
s(lp451
g177
atp452
a(g189
(dp453
S'ADV'
p454
F0.0
sS'PRT'
p455
F1.0
sS'ADP'
p456
F0.0
s(lp457
g189
atp458
a(g183
(dp459
S'VERB'
p460
F1.0
s(lp461
g183
atp462
a(g222
(dp463
S'ADV'
p464
F0.004552
sS'ADJ'
p465
F0.034943
sS'VERB'
p466
F0.0038770000000000002
sS'NOUN'
p467
F0.956627
s(lp468
g222
atp469
a(g203
(dp470
S'VERB'
p471
F0.098811
sS'NOUN'
p472
F0.901189
s(lp473
g203
atp474
a(g209
(dp475
S'ADV'
p476
F6e-06
sS'PRT'
p477
F0.999989
sS'ADP'
p478
F6e-06
s(lp479
g209
atp480
a(g247
(dp481
S'ADV'
p482
F1.0
s(lp483
g247
atp484
a(g266
(dp485
S'CONJ'
p486
F0.999992
sS'NOUN'
p487
F8e-06
s(lp488
g266
atp489
a(g285
(dp490
S'ADV'
p491
F1.0
s(lp492
g285
atp493
a(g240
(dp494
S'VERB'
p495
F0.95199
sS'ADJ'
p496
F0.048009
s(lp497
g240
atp498
a(g294
(dp499
S'PRON'
p500
F1.0
s(lp501
g294
atp502
a(g311
(dp503
S'VERB'
p504
F1.0
s(lp505
g311
atp506
a(g300
(dp507
S'VERB'
p508
F5.2e-05
sS'NOUN'
p509
F0.999948
s(lp510
g300
atp511
a(g125
(dp512
g125
F1.0
s(lp513
g125
atp514
asS'nl'
p515
(lp516
(S'ook'
p517
(dp518
S'ADV'
p519
F1.0
s(lp520
g21
atp521
a(S'nieuwe'
p522
(dp523
S'NOUN'
p524
F0.0
sS'ADJ'
p525
F1.0
s(lp526
g35
atp527
a(S'lidstaten'
p528
(dp529
S'NOUN'
p530
F1.0
s(lp531
g48
atp532
a(S'worden'
p533
(dp534
S'VERB'
p535
F1.0
sS'NOUN'
p536
F0.0
s(lp537
tp538
a(S'geconfronteerd'
p539
(dp540
S'VERB'
p541
F1.0
s(lp542
g54
atp543
a(S'met'
p544
(dp545
S'ADP'
p546
F1.0
s(lp547
g60
atp548
a(S'de'
p549
(dp550
S'DET'
p551
F1.0
s(lp552
g68
atp553
a(S'noodzaak'
p554
(dp555
S'VERB'
p556
F0.000443
sS'NOUN'
p557
F0.999557
s(lp558
g75
atp559
a(S'een'
p560
(dp561
S'ADJ'
p562
F1.4e-05
sS'NUM'
p563
F1.5e-05
sS'DET'
p564
F0.999968
sS'PRON'
p565
F2e-06
s(lp566
g95
atp567
a(S'aantal'
p568
(dp569
S'NOUN'
p570
F1.0
s(lp571
g108
atp572
a(S'reactoren'
p573
(dp574
S'NOUN'
p575
F1.0
s(lp576
tp577
a(S'te'
p578
(dp579
S'PRT'
p580
F1.0
s(lp581
g81
atp582
a(S'ontmantelen'
p583
(dp584
S'VERB'
p585
F0.9999979999999999
sS'NOUN'
p586
F2e-06
s(lp587
g87
atp588
a(S'en'
p589
(dp590
S'CONJ'
p591
F1.0
s(lp592
g123
atp593
a(S'het'
p594
(dp595
S'PRON'
p596
F0.933482
sS'DET'
p597
F0.066518
s(lp598
g132
atp599
a(S'lijkt'
p600
(dp601
S'VERB'
p602
F1.0
s(lp603
g144
atp604
a(S'ons'
p605
(dp606
S'PRON'
p607
F0.999992
sS'NOUN'
p608
F7e-06
s(lp609
g138
atp610
a(S'terecht'
p611
(dp612
S'ADV'
p613
F0.070463
sS'ADJ'
p614
F0.929537
s(lp615
g157
atp616
a(S'dat'
p617
(dp618
S'PRON'
p619
F0.0009040000000000001
sS'CONJ'
p620
F0.999096
s(lp621
g165
atp622
a(S'zij'
p623
(dp624
S'PRON'
p625
F0.999996
sS'VERB'
p626
F1e-06
sS'NOUN'
p627
F3e-06
s(lp628
g171
atp629
a(S'op'
p630
(dp631
S'ADV'
p632
F0.172733
sS'ADJ'
p633
F8e-06
sS'ADP'
p634
F0.827259
s(lp635
g423
atp636
a(S'communautaire'
p637
(dp638
S'NOUN'
p639
F0.006869
sS'ADJ'
p640
F0.993131
s(lp641
g222
atp642
a(S'steun'
p643
(dp644
S'VERB'
p645
F0.000798
sS'NOUN'
p646
F0.999202
s(lp647
g203
atp648
a(S'kunnen'
p649
(dp650
S'VERB'
p651
F0.999995
sS'NOUN'
p652
F5e-06
s(lp653
g177
atp654
a(S'rekenen'
p655
(dp656
S'VERB'
p657
F0.999987
sS'NOUN'
p658
F1.4e-05
s(lp659
g183
atp660
a(S'om'
p661
(dp662
S'ADV'
p663
F5.5e-05
sS'CONJ'
p664
F0.891774
sS'ADP'
p665
F0.108171
s(lp666
g209
atp667
a(S'de'
p668
(dp669
S'DET'
p670
F1.0
s(lp671
g294
atp672
a(S'ontmanteling'
p673
(dp674
S'NOUN'
p675
F1.0
s(lp676
g311
atp677
a(S'op'
p678
(dp679
S'ADV'
p680
F0.003385
sS'ADJ'
p681
F0.0
sS'ADP'
p682
F0.996615
s(lp683
tp684
a(S'een'
p685
(dp686
S'ADJ'
p687
F1e-06
sS'PRON'
p688
F0.000457
sS'NUM'
p689
F1e-06
sS'DET'
p690
F0.999541
s(lp691
tp692
a(S'adequate'
p693
(dp694
S'NOUN'
p695
F0.130814
sS'ADJ'
p696
F0.869186
s(lp697
g247
atp698
a(S'en'
p699
(dp700
S'CONJ'
p701
F1.0
s(lp702
g266
atp703
a(S'veilige'
p704
(dp705
S'NOUN'
p706
F0.001883
sS'ADJ'
p707
F0.998117
s(lp708
g285
atp709
a(S'wijze'
p710
(dp711
S'ADJ'
p712
F0.004232
sS'NOUN'
p713
F0.995768
s(lp714
tp715
a(S'te'
p716
(dp717
S'PRT'
p718
F1.0
s(lp719
g209
atp720
a(S'kunnen'
p721
(dp722
S'VERB'
p723
F1.0
sS'NOUN'
p724
F0.0
s(lp725
g285
atp726
a(S'uitvoeren'
p727
(dp728
S'VERB'
p729
F0.960485
sS'NOUN'
p730
F0.039514
s(lp731
g240
atp732
a(g125
(dp733
g125
F1.0
s(lp734
g125
atp735
asS'de'
p736
(lp737
(S'im'
p738
(dp739
S'ADP'
p740
F1.0
s(lp741
g8
atp742
a(S'fall'
p743
(dp744
S'VERB'
p745
F1.0
s(lp746
g21
atp747
a(S'der'
p748
(dp749
S'PRON'
p750
F0.000667
sS'DET'
p751
F0.998895
s(lp752
g28
atp753
a(S'neuen'
p754
(dp755
S'ADJ'
p756
F1.0
s(lp757
g35
atp758
a(S'mitgliedstaaten'
p759
(dp760
S'ADJ'
p761
F0.019276
sS'NOUN'
p762
F0.97538
s(lp763
g48
atp764
a(g123
(dp765
g125
F1.0
s(lp766
tp767
a(S'die'
p768
(dp769
S'PRON'
p770
F0.969199
sS'DET'
p771
F0.026135
s(lp772
g41
atp773
a(S'mit'
p774
(dp775
S'PRT'
p776
F3.8e-05
sS'ADP'
p777
F0.999962
s(lp778
g60
atp779
a(S'der'
p780
(dp781
S'PRON'
p782
F4.6e-05
sS'DET'
p783
F0.99994
s(lp784
g68
atp785
a(S'forderung'
p786
(dp787
S'ADJ'
p788
F0.01557
sS'NOUN'
p789
F0.976121
s(lp790
g75
atp791
a(S'konfrontiert'
p792
(dp793
S'VERB'
p794
F1.0
s(lp795
g54
atp796
a(S'sind'
p797
(dp798
S'VERB'
p799
F1.0
s(lp800
tp801
a(g123
(dp802
g125
F1.0
s(lp803
g81
atp804
a(S'eine'
p805
(dp806
S'PRON'
p807
F0.974163
sS'DET'
p808
F0.025163
s(lp809
g95
atp810
a(S'reihe'
p811
(dp812
S'VERB'
p813
F1.0
s(lp814
g108
atp815
a(S'von'
p816
(dp817
S'NOUN'
p818
F0.997697
sS'ADP'
p819
F0.002303
s(lp820
g114
atp821
a(S'anlagen'
p822
(dp823
S'VERB'
p824
F1.0
s(lp825
g121
atp826
a(S'stillzulegen'
p827
(dp828
S'VERB'
p829
F1.0
s(lp830
g87
atp831
a(g123
(dp832
g125
F1.0
s(lp833
g123
atp834
a(S'scheint'
p835
(dp836
S'VERB'
p837
F1.0
s(lp838
g144
atp839
a(S'es'
p840
(dp841
S'PRON'
p842
F1.0
s(lp843
g132
atp844
a(S'uns'
p845
(dp846
S'PRON'
p847
F1.0
s(lp848
g138
atp849
a(S'nur'
p850
(dp851
S'ADV'
p852
F1.0
s(lp853
g150
atp854
a(S'richtig'
p855
(dp856
S'PRT'
p857
F0.005336
sS'ADJ'
p858
F0.994664
s(lp859
g157
atp860
a(g123
(dp861
g125
F1.0
s(lp862
tp863
a(S'dass'
p864
(dp865
S'CONJ'
p866
F1.0
s(lp867
g165
atp868
a(S'sie'
p869
(dp870
S'PRON'
p871
F1.0
s(lp872
g171
atp873
a(S'eu-unterst\xc3\xbctzung'
p874
(dp875
S'NOUN'
p876
F0.147465
sS'ADJ'
p877
F0.843437
s(lp878
g203
atp879
a(S'erwarten'
p880
(dp881
S'VERB'
p882
F1.0
s(lp883
g183
atp884
a(S'k\xc3\xb6nnen'
p885
(dp886
S'VERB'
p887
F0.999989
s(lp888
g177
atp889
a(g123
(dp890
g125
F1.0
s(lp891
tp892
a(S'um'
p893
(dp894
S'CONJ'
p895
F0.655993
sS'ADP'
p896
F0.343905
s(lp897
g189
atp898
a(S'ihre'
p899
(dp900
S'PRON'
p901
F1.0
s(lp902
g294
atp903
a(S'stilllegungsprozesse'
p904
(dp905
S'ADJ'
p906
F7.5e-05
sS'NOUN'
p907
F0.999872
s(lp908
g311
atp909
a(S'in'
p910
(dp911
S'ADP'
p912
F1.0
s(lp913
g209
atp914
a(S'angemessener'
p915
(dp916
S'ADJ'
p917
F1.0
s(lp918
g247
atp919
a(S'und'
p920
(dp921
S'CONJ'
p922
F1.0
s(lp923
g266
atp924
a(S'sicherer'
p925
(dp926
S'ADJ'
p927
F1.0
s(lp928
tp929
a(S'weise'
p930
(dp931
S'VERB'
p932
F0.050909
sS'ADJ'
p933
F0.905987
s(lp934
g285
atp935
a(S'abzuschlie\xc3\x9fen'
p936
(dp937
S'VERB'
p938
F1.0
s(lp939
g240
atp940
a(g125
(dp941
g125
F1.0
s(lp942
g125
atp943
asS'it'
p944
(lp945
(S'ci'
p946
(dp947
S'ADV'
p948
F0.000934
sS'PRON'
p949
F0.99903
sS'NOUN'
p950
F3.5e-05
s(lp951
g138
atp952
a(S'sembra'
p953
(dp954
S'VERB'
p955
F1.0
s(lp956
g144
atp957
a(S'giusto'
p958
(dp959
S'NOUN'
p960
F0.034948
sS'ADJ'
p961
F0.965052
s(lp962
g157
atp963
a(S'che'
p964
(dp965
S'PRON'
p966
F0.929678
sS'CONJ'
p967
F0.069849
sS'ADJ'
p968
F0.000473
s(lp969
g165
atp970
a(S'i'
p971
(dp972
S'DET'
p973
F1.0
s(lp974
tp975
a(S'nuovi'
p976
(dp977
S'NOUN'
p978
F0.150086
sS'ADJ'
p979
F0.849914
s(lp980
g35
atp981
a(S'stati'
p982
(dp983
S'VERB'
p984
F0.847083
sS'NOUN'
p985
F0.152917
s(lp986
tp987
a(S'membri'
p988
(dp989
S'NOUN'
p990
F1.0
s(lp991
g48
atp992
a(S'cui'
p993
(dp994
S'PRON'
p995
F1.0
s(lp996
g171
atp997
a(S'\xc3\xa8'
p998
(dp999
S'VERB'
p1000
F1.0
s(lp1001
g444
atp1002
a(S'stato'
p1003
(dp1004
S'VERB'
p1005
F0.989146
sS'NOUN'
p1006
F0.010854
s(lp1007
g41
atp1008
a(S'richiesto'
p1009
(dp1010
S'VERB'
p1011
F1.0
s(lp1012
g75
atp1013
a(S'di'
p1014
(dp1015
S'CONJ'
p1016
F2e-06
sS'ADP'
p1017
F0.999998
s(lp1018
g81
atp1019
a(S'disattivare'
p1020
(dp1021
S'VERB'
p1022
F1.0
s(lp1023
g87
atp1024
a(S'alcuni'
p1025
(dp1026
S'PRON'
p1027
F1.0
s(lp1028
g108
atp1029
a(S'impianti'
p1030
(dp1031
S'VERB'
p1032
F0.007614999999999999
sS'NOUN'
p1033
F0.992385
s(lp1034
g121
atp1035
a(S'possano'
p1036
(dp1037
S'VERB'
p1038
F1.0
s(lp1039
g177
atp1040
a(S'contare'
p1041
(dp1042
S'VERB'
p1043
F1.0
s(lp1044
g183
atp1045
a(S"sull'"
p1046
(dp1047
S'ADJ'
p1048
F0.005631
sS'VERB'
p1049
F0.01458
sS'NOUN'
p1050
F0.979789
s(lp1051
g222
atp1052
a(S'appoggio'
p1053
(dp1054
S'VERB'
p1055
F0.149706
sS'NOUN'
p1056
F0.850294
s(lp1057
g203
atp1058
a(S"dell'"
p1059
(dp1060
S'ADJ'
p1061
F0.036133
sS'VERB'
p1062
F0.021133
sS'NOUN'
p1063
F0.942735
s(lp1064
g222
atp1065
a(S'unione'
p1066
(dp1067
S'NOUN'
p1068
F1.0
s(lp1069
tp1070
a(S'europea'
p1071
(dp1072
S'NOUN'
p1073
F0.00434
sS'ADJ'
p1074
F0.99566
s(lp1075
g222
atp1076
a(S'per'
p1077
(dp1078
S'CONJ'
p1079
F0.006184
sS'ADP'
p1080
F0.993816
s(lp1081
g209
atp1082
a(S'portare'
p1083
(dp1084
S'VERB'
p1085
F1.0
s(lp1086
tp1087
a(g95
(dp1088
S'CONJ'
p1089
F5.4e-05
sS'ADP'
p1090
F0.999946
s(lp1091
tp1092
a(S'termine'
p1093
(dp1094
S'NOUN'
p1095
F1.0
s(lp1096
g240
atp1097
a(g971
(dp1098
S'DET'
p1099
F1.0
s(lp1100
g294
atp1101
a(S'processi'
p1102
(dp1103
S'VERB'
p1104
F0.00071
sS'NOUN'
p1105
F0.999289
s(lp1106
g300
atp1107
a(S'di'
p1108
(dp1109
S'CONJ'
p1110
F4e-06
sS'ADP'
p1111
F0.999996
s(lp1112
g28
atp1113
a(S'disattivazione'
p1114
(dp1115
S'NOUN'
p1116
F1.0
s(lp1117
g311
atp1118
a(S'nella'
p1119
(dp1120
S'ADP'
p1121
F1.0
s(lp1122
g8
atp1123
a(S'maniera'
p1124
(dp1125
S'NOUN'
p1126
F1.0
s(lp1127
g247
atp1128
a(S'pi\xc3\xb9'
p1129
(dp1130
S'ADV'
p1131
F0.996728
sS'NOUN'
p1132
F1e-05
sS'ADJ'
p1133
F0.00307
sS'ADP'
p1134
F0.000192
s(lp1135
tp1136
a(S'adeguata'
p1137
(dp1138
S'VERB'
p1139
F0.801937
sS'ADJ'
p1140
F0.198063
s(lp1141
g247
atp1142
a(S'e'
p1143
(dp1144
S'CONJ'
p1145
F1.0
s(lp1146
g266
atp1147
a(S'sicura'
p1148
(dp1149
S'NOUN'
p1150
F0.104611
sS'ADJ'
p1151
F0.895389
s(lp1152
tp1153
a(S'possibile'
p1154
(dp1155
S'NOUN'
p1156
F0.038883
sS'ADJ'
p1157
F0.961117
s(lp1158
g285
atp1159
a(g125
(dp1160
g125
F1.0
s(lp1161
g125
atp1162
asS'sk'
p1163
(lp1164
(S'v'
p1165
(dp1166
S'X'
p1167
F0.000596
sS'ADP'
p1168
F0.999404
s(lp1169
g8
atp1170
a(S'pr\xc3\xadpade'
p1171
(dp1172
S'NOUN'
p1173
F1.0
s(lp1174
g21
atp1175
a(S'nov\xc3\xbdch'
p1176
(dp1177
S'ADJ'
p1178
F1.0
s(lp1179
g35
atp1180
a(S'\xc4\x8dlensk\xc3\xbdch'
p1181
(dp1182
S'ADJ'
p1183
F1.0
s(lp1184
g48
atp1185
a(S'\xc5\xa1t\xc3\xa1tov'
p1186
(dp1187
S'NOUN'
p1188
F1.0
s(lp1189
g41
atp1190
a(g123
(dp1191
g125
F1.0
s(lp1192
tp1193
a(S'ktor\xc3\xa9'
p1194
(dp1195
S'PRON'
p1196
F1.0
s(lp1197
tp1198
a(S'\xc4\x8delia'
p1199
(dp1200
S'VERB'
p1201
F1.0
s(lp1202
g54
atp1203
a(S'po\xc5\xbeiadavke'
p1204
(dp1205
S'NOUN'
p1206
F1.0
s(lp1207
g75
atp1208
a(S'vyradi\xc5\xa5'
p1209
(dp1210
S'VERB'
p1211
F1.0
s(lp1212
g87
atp1213
a(S'nieko\xc4\xbeko'
p1214
(dp1215
S'PRON'
p1216
F1.0
s(lp1217
g108
atp1218
a(S'elektr\xc3\xa1rn\xc3\xad'
p1219
(dp1220
S'NOUN'
p1221
F1.0
s(lp1222
g121
atp1223
a(S'z'
p1224
(dp1225
g1167
F3.5000000000000004e-05
sS'NOUN'
p1226
F1.6e-05
sS'ADP'
p1227
F0.999949
s(lp1228
tp1229
a(S'prev\xc3\xa1dzky'
p1230
(dp1231
S'NOUN'
p1232
F1.0
s(lp1233
g121
atp1234
a(g123
(dp1235
g125
F1.0
s(lp1236
g123
atp1237
a(S'sa'
p1238
(dp1239
S'PRT'
p1240
F0.999057
sS'ADP'
p1241
F0.000449
sg1167
F0.0004930000000000001
s(lp1242
tp1243
a(S'n\xc3\xa1m'
p1244
(dp1245
S'PRON'
p1246
F0.998008
sg1167
F0.001992
s(lp1247
g138
atp1248
a(S'zd\xc3\xa1'
p1249
(dp1250
S'VERB'
p1251
F1.0
s(lp1252
g144
atp1253
a(S'spr\xc3\xa1vne'
p1254
(dp1255
S'ADV'
p1256
F0.722092
sg1167
F0.00988
sS'ADJ'
p1257
F0.268028
s(lp1258
g157
atp1259
a(g123
(dp1260
g125
F1.0
s(lp1261
tp1262
a(S'\xc5\xbee'
p1263
(dp1264
g1167
F0.00033
sS'CONJ'
p1265
F0.99967
s(lp1266
g165
atp1267
a(S'tieto'
p1268
(dp1269
S'PRON'
p1270
F1.0
s(lp1271
tp1272
a(S'\xc5\xa1t\xc3\xa1ty'
p1273
(dp1274
S'NOUN'
p1275
F1.0
s(lp1276
g171
atp1277
a(S'o\xc4\x8dak\xc3\xa1vaj\xc3\xba'
p1278
(dp1279
S'VERB'
p1280
F1.0
s(lp1281
tp1282
a(S'od'
p1283
(dp1284
g1167
F0.00066
sS'ADP'
p1285
F0.99934
s(lp1286
g183
atp1287
a(S'e\xc3\x9a'
p1288
(dp1289
S'ADV'
p1290
F0.000135
sS'NOUN'
p1291
F0.106442
sS'VERB'
p1292
F3.7e-05
sS'ADJ'
p1293
F0.893026
sg1167
F0.00036
s(lp1294
g222
atp1295
a(S'podporu'
p1296
(dp1297
S'NOUN'
p1298
F1.0
s(lp1299
g203
atp1300
a(S'na'
p1301
(dp1302
g1167
F0.000132
sS'CONJ'
p1303
F2.4e-05
sS'ADP'
p1304
F0.999838
sS'PRT'
p1305
F6e-06
s(lp1306
g209
atp1307
a(S'primeran\xc3\xa9'
p1308
(dp1309
S'VERB'
p1310
F0.494355
sS'ADJ'
p1311
F0.505646
s(lp1312
g247
atp1313
a(g95
(dp1314
g1167
F0.000837
sS'CONJ'
p1315
F0.998075
sS'NOUN'
p1316
F0.000732
sS'ADP'
p1317
F0.000339
sS'PRT'
p1318
F1.7e-05
s(lp1319
g266
atp1320
a(S'bezpe\xc4\x8dn\xc3\xa9'
p1321
(dp1322
S'ADJ'
p1323
F1.0
s(lp1324
g285
atp1325
a(S'dokon\xc4\x8denie'
p1326
(dp1327
S'NOUN'
p1328
F1.0
s(lp1329
g240
atp1330
a(S'procesov'
p1331
(dp1332
S'NOUN'
p1333
F1.0
s(lp1334
g300
atp1335
a(S'vyra\xc4\x8fovania'
p1336
(dp1337
S'ADJ'
p1338
F0.025536000000000003
sS'VERB'
p1339
F0.46626099999999987
sS'NOUN'
p1340
F0.508201
s(lp1341
g311
atp1342
a(g1224
(dp1343
g1167
F0.000217
sS'NOUN'
p1344
F6.6e-05
sS'ADP'
p1345
F0.999716
s(lp1346
tp1347
a(S'prev\xc3\xa1dzky'
p1348
(dp1349
S'NOUN'
p1350
F1.0
s(lp1351
g311
atp1352
a(g125
(dp1353
g125
F1.0
s(lp1354
g125
atp1355
asS'pl'
p1356
(lp1357
(S'co'
p1358
(dp1359
S'PRT'
p1360
F0.060869
sS'CONJ'
p1361
F0.187164
sS'NOUN'
p1362
F0.746359
sS'ADP'
p1363
F0.005608
s(lp1364
g8
atp1365
a(S'si\xc4\x99'
p1366
(dp1367
S'PRT'
p1368
F1.0
s(lp1369
g54
atp1370
a(S'tyczy'
p1371
(dp1372
S'VERB'
p1373
F1.0
s(lp1374
g21
atp1375
a(S'nowych'
p1376
(dp1377
S'NOUN'
p1378
F0.009427
sS'ADJ'
p1379
F0.9905709999999998
s(lp1380
g35
atp1381
a(S'pa\xc5\x84stw'
p1382
(dp1383
S'NOUN'
p1384
F1.0
s(lp1385
g41
atp1386
a(S'cz\xc5\x82onkowskich'
p1387
(dp1388
S'ADJ'
p1389
F1.000001
s(lp1390
g48
atp1391
a(g123
(dp1392
g1167
F0.0
sg125
F1.0
s(lp1393
tp1394
a(S'staj\xc4\x85cych'
p1395
(dp1396
S'ADJ'
p1397
F0.0020570000000000002
sS'VERB'
p1398
F0.9074580000000001
sS'NOUN'
p1399
F0.090484
s(lp1400
tp1401
a(S'w'
p1402
(dp1403
S'ADJ'
p1404
F0.0
sg1167
F0.0
sS'NOUN'
p1405
F0.0
sS'ADP'
p1406
F1.0000010000000001
s(lp1407
g60
atp1408
a(S'obliczu'
p1409
(dp1410
S'NOUN'
p1411
F1.0
s(lp1412
g54
atp1413
a(S'konieczno\xc5\x9bci'
p1414
(dp1415
S'NOUN'
p1416
F1.0
s(lp1417
g75
atp1418
a(S'likwidacji'
p1419
(dp1420
S'NOUN'
p1421
F1.0
s(lp1422
g87
atp1423
a(S'szeregu'
p1424
(dp1425
S'NOUN'
p1426
F1.0
s(lp1427
g108
atp1428
a(S'elektrowni'
p1429
(dp1430
S'NOUN'
p1431
F0.999999
s(lp1432
g121
atp1433
a(g123
(dp1434
g1167
F0.0
sg125
F1.0
s(lp1435
g123
atp1436
a(S'naszym'
p1437
(dp1438
S'ADJ'
p1439
F1.000001
s(lp1440
tp1441
a(S'zdaniem'
p1442
(dp1443
S'NOUN'
p1444
F1.0
s(lp1445
g144
atp1446
a(S'to'
p1447
(dp1448
S'NOUN'
p1449
F0.209609
sS'ADP'
p1450
F1.9e-05
sS'PRT'
p1451
F0.112252
sg1167
F1.5e-05
sS'CONJ'
p1452
F0.246646
sS'ADJ'
p1453
F0.431458
s(lp1454
g132
atp1455
a(S'do\xc5\x9b\xc4\x87'
p1456
(dp1457
S'PRT'
p1458
F0.885871
sS'CONJ'
p1459
F0.062184
sS'ADJ'
p1460
F0.051944
s(lp1461
g150
atp1462
a(S's\xc5\x82uszne'
p1463
(dp1464
S'ADJ'
p1465
F1.0
s(lp1466
g157
atp1467
a(g123
(dp1468
g1167
F0.0
sg125
F1.0
s(lp1469
tp1470
a(S'\xc5\xbce'
p1471
(dp1472
S'PRT'
p1473
F0.00107
sS'CONJ'
p1474
F0.99893
s(lp1475
g165
atp1476
a(S'mog\xc4\x85'
p1477
(dp1478
S'VERB'
p1479
F1.0
s(lp1480
g177
atp1481
a(S'one'
p1482
(dp1483
S'PRON'
p1484
F0.9996630000000002
sS'ADJ'
p1485
F0.00033099999999999997
sg1167
F0.0
sS'NOUN'
p1486
F6e-06
s(lp1487
g171
atp1488
a(S'oczekiwa\xc4\x87'
p1489
(dp1490
S'VERB'
p1491
F1.0
s(lp1492
tp1493
a(S'uzyskania'
p1494
(dp1495
S'VERB'
p1496
F1.0
s(lp1497
g183
atp1498
a(S'pomocy'
p1499
(dp1500
S'NOUN'
p1501
F0.9999999999999999
s(lp1502
g203
atp1503
a(S'ue'
p1504
(dp1505
S'ADJ'
p1506
F0.0018460000000000002
sS'VERB'
p1507
F0.0018930000000000002
sS'NOUN'
p1508
F0.9962630000000001
s(lp1509
g222
atp1510
a(g1402
(dp1511
S'ADJ'
p1512
F1e-06
sS'NOUN'
p1513
F2e-06
sS'ADP'
p1514
F0.9999960000000001
sg1167
F1e-06
s(lp1515
tp1516
a(S'celu'
p1517
(dp1518
S'NOUN'
p1519
F1.0
s(lp1520
g209
atp1521
a(S'odpowiedniego'
p1522
(dp1523
S'ADJ'
p1524
F1.0
s(lp1525
g247
atp1526
a(g971
(dp1527
S'PRT'
p1528
F0.003356
sS'CONJ'
p1529
F0.996593
sS'NOUN'
p1530
F4.4999999999999996e-05
sg1167
F1e-06
sS'PRON'
p1531
F4.9999999999999996e-06
s(lp1532
g266
atp1533
a(S'bezpiecznego'
p1534
(dp1535
S'ADJ'
p1536
F1.0
s(lp1537
g285
atp1538
a(S'uko\xc5\x84czenia'
p1539
(dp1540
S'VERB'
p1541
F1.0
s(lp1542
g240
atp1543
a(S'procesu'
p1544
(dp1545
S'NOUN'
p1546
F1.0
s(lp1547
g300
atp1548
a(S'likwidacji'
p1549
(dp1550
S'NOUN'
p1551
F1.0
s(lp1552
tp1553
a(S'tych'
p1554
(dp1555
S'ADJ'
p1556
F1.0000010000000001
s(lp1557
g294
atp1558
a(S'elektrowni'
p1559
(dp1560
S'NOUN'
p1561
F1.0
s(lp1562
g311
atp1563
a(g125
(dp1564
g125
F1.0
s(lp1565
g125
atp1566
asS'sl'
p1567
(lp1568
(g1165
(dp1569
S'ADP'
p1570
F1.0
s(lp1571
g8
atp1572
a(S'primeru'
p1573
(dp1574
S'NOUN'
p1575
F1.0
s(lp1576
g21
atp1577
a(S'novih'
p1578
(dp1579
S'ADJ'
p1580
F0.999999
s(lp1581
g35
atp1582
a(S'dr\xc5\xbeav'
p1583
(dp1584
S'NOUN'
p1585
F1.0
s(lp1586
g48
atp1587
a(S'\xc4\x8dlanic'
p1588
(dp1589
S'NOUN'
p1590
F1.0
s(lp1591
g41
atp1592
a(g123
(dp1593
g125
F1.0
s(lp1594
tp1595
a(S'ki'
p1596
(dp1597
S'CONJ'
p1598
F1.0
s(lp1599
tp1600
a(S'morajo'
p1601
(dp1602
S'VERB'
p1603
F1.0
s(lp1604
g54
atp1605
a(S'zaradi'
p1606
(dp1607
S'ADP'
p1608
F1.0
s(lp1609
g60
atp1610
a(S'zahteve'
p1611
(dp1612
S'NOUN'
p1613
F1.0
s(lp1614
g75
atp1615
a(S'razgraditi'
p1616
(dp1617
S'ADV'
p1618
F0.00012
sS'ADJ'
p1619
F8.4e-05
sS'VERB'
p1620
F0.999264
sS'NOUN'
p1621
F0.000531
s(lp1622
g87
atp1623
a(S'mnoge'
p1624
(dp1625
S'PRON'
p1626
F0.9999999999999999
s(lp1627
g108
atp1628
a(S'elektrarne'
p1629
(dp1630
S'NOUN'
p1631
F1.0
s(lp1632
g121
atp1633
a(g123
(dp1634
g125
F1.0
s(lp1635
g123
atp1636
a(S'se'
p1637
(dp1638
S'PRON'
p1639
F0.999999
sg1167
F1e-06
s(lp1640
tp1641
a(S'nam'
p1642
(dp1643
S'PRON'
p1644
F0.999988
sg1167
F1.2e-05
s(lp1645
g138
atp1646
a(S'zdi'
p1647
(dp1648
S'VERB'
p1649
F1.0
s(lp1650
g144
atp1651
a(S'prav'
p1652
(dp1653
S'ADV'
p1654
F0.212097
sS'PRT'
p1655
F0.786434
sS'VERB'
p1656
F0.001469
s(lp1657
g157
atp1658
a(g123
(dp1659
g125
F1.0
s(lp1660
tp1661
a(S'da'
p1662
(dp1663
S'PRT'
p1664
F0.000255
sS'CONJ'
p1665
F0.999719
sS'VERB'
p1666
F2.5e-05
sg1167
F1e-06
s(lp1667
g165
atp1668
a(S'pri\xc4\x8dakujejo'
p1669
(dp1670
S'VERB'
p1671
F1.0
s(lp1672
g183
atp1673
a(S'podporo'
p1674
(dp1675
S'NOUN'
p1676
F1.0
s(lp1677
g203
atp1678
a(S'eu'
p1679
(dp1680
S'ADV'
p1681
F0.009665
sS'ADJ'
p1682
F0.049040999999999994
sS'VERB'
p1683
F0.022493
sS'NOUN'
p1684
F0.9188039999999997
s(lp1685
g222
atp1686
a(S'za'
p1687
(dp1688
S'ADV'
p1689
F0.000212
sg1167
F1.4e-05
sS'ADP'
p1690
F0.999775
s(lp1691
g209
atp1692
a(S'ustrezno'
p1693
(dp1694
S'ADV'
p1695
F0.051889
sS'ADJ'
p1696
F0.9481109999999999
s(lp1697
g247
atp1698
a(S'in'
p1699
(dp1700
S'ADV'
p1701
F3.7e-05
sg1167
F2e-06
sS'CONJ'
p1702
F0.99996
sS'NOUN'
p1703
F1e-06
s(lp1704
g266
atp1705
a(S'varno'
p1706
(dp1707
S'ADV'
p1708
F0.002227
sS'ADJ'
p1709
F0.9977730000000001
s(lp1710
g285
atp1711
a(S'dokon\xc4\x8danje'
p1712
(dp1713
S'NOUN'
p1714
F1.0
s(lp1715
g240
atp1716
a(S'postopkov'
p1717
(dp1718
S'NOUN'
p1719
F1.0
s(lp1720
g300
atp1721
a(S'razgradnje'
p1722
(dp1723
S'NOUN'
p1724
F1.0
s(lp1725
g311
atp1726
a(g125
(dp1727
g125
F1.0
s(lp1728
g125
atp1729
asS'es'
p1730
(lp1731
(S'en'
p1732
(dp1733
g1167
F4e-06
sS'CONJ'
p1734
F2e-06
sS'ADP'
p1735
F0.999994
s(lp1736
g8
atp1737
a(S'el'
p1738
(dp1739
S'PRON'
p1740
F5e-06
sS'DET'
p1741
F0.999995
s(lp1742
g15
atp1743
a(S'caso'
p1744
(dp1745
S'NOUN'
p1746
F1.0
s(lp1747
g21
atp1748
a(S'de'
p1749
(dp1750
g1167
F0.0
sS'CONJ'
p1751
F1.7e-05
sS'ADP'
p1752
F0.999983
s(lp1753
g28
atp1754
a(S'los'
p1755
(dp1756
S'PRON'
p1757
F0.0
sS'DET'
p1758
F1.0
s(lp1759
tp1760
a(S'nuevos'
p1761
(dp1762
S'ADJ'
p1763
F1.0
s(lp1764
g35
atp1765
a(S'estados'
p1766
(dp1767
S'NOUN'
p1768
F1.0
s(lp1769
g41
atp1770
a(S'miembros'
p1771
(dp1772
S'NOUN'
p1773
F1.0
s(lp1774
g48
atp1775
a(S'que'
p1776
(dp1777
g1167
F4e-06
sS'CONJ'
p1778
F0.999996
s(lp1779
tp1780
a(S'se'
p1781
(dp1782
S'PRON'
p1783
F1.0
sS'VERB'
p1784
F0.0
s(lp1785
tp1786
a(S'enfrentan'
p1787
(dp1788
S'VERB'
p1789
F1.0
s(lp1790
g54
atp1791
a(S'al'
p1792
(dp1793
S'CONJ'
p1794
F0.000159
sS'ADP'
p1795
F0.999841
s(lp1796
g68
atp1797
a(S'requisito'
p1798
(dp1799
S'NOUN'
p1800
F1.0
s(lp1801
g75
atp1802
a(S'de'
p1803
(dp1804
g1167
F0.0
sS'CONJ'
p1805
F0.345844
sS'ADP'
p1806
F0.654156
s(lp1807
g81
atp1808
a(S'desmantelar'
p1809
(dp1810
S'VERB'
p1811
F1.0
s(lp1812
g87
atp1813
a(S'una'
p1814
(dp1815
S'DET'
p1816
F1.0
s(lp1817
g95
atp1818
a(S'serie'
p1819
(dp1820
S'NOUN'
p1821
F1.0
s(lp1822
g108
atp1823
a(S'de'
p1824
(dp1825
g1167
F4.1e-05
sS'CONJ'
p1826
F0.000466
sS'ADP'
p1827
F0.999493
s(lp1828
g114
atp1829
a(S'centrales'
p1830
(dp1831
S'ADJ'
p1832
F0.044896
sS'NOUN'
p1833
F0.955104
s(lp1834
g121
atp1835
a(g123
(dp1836
g125
F1.0
s(lp1837
g123
atp1838
a(S'no'
p1839
(dp1840
S'ADV'
p1841
F1.0
sg1167
F0.0
s(lp1842
g132
atp1843
a(S'nos'
p1844
(dp1845
S'PRON'
p1846
F1.0
s(lp1847
g138
atp1848
a(S'cabe'
p1849
(dp1850
S'VERB'
p1851
F1.0
s(lp1852
tp1853
a(S'duda'
p1854
(dp1855
S'NOUN'
p1856
F1.0
s(lp1857
g132
atp1858
a(S'de'
p1859
(dp1860
g1167
F0.0
sS'CONJ'
p1861
F0.00561
sS'ADP'
p1862
F0.99439
s(lp1863
g189
atp1864
a(S'que'
p1865
(dp1866
g1167
F0.0
sS'CONJ'
p1867
F1.0
s(lp1868
g165
atp1869
a(S'es'
p1870
(dp1871
S'VERB'
p1872
F1.0
s(lp1873
g144
atp1874
a(S'razonable'
p1875
(dp1876
S'ADJ'
p1877
F1.0
s(lp1878
g157
atp1879
a(S'que'
p1880
(dp1881
g1167
F1e-06
sS'CONJ'
p1882
F0.999999
s(lp1883
g423
atp1884
a(S'esperen'
p1885
(dp1886
S'VERB'
p1887
F1.0
s(lp1888
g183
atp1889
a(S'ayuda'
p1890
(dp1891
S'NOUN'
p1892
F1.0
s(lp1893
g203
atp1894
a(S'de'
p1895
(dp1896
g1167
F0.0
sS'CONJ'
p1897
F1.7e-05
sS'ADP'
p1898
F0.999983
s(lp1899
tp1900
a(S'la'
p1901
(dp1902
g1167
F0.0
sS'PRON'
p1903
F0.0
sS'DET'
p1904
F0.999999
sS'NOUN'
p1905
F0.0
s(lp1906
tp1907
a(S'ue'
p1908
(dp1909
S'VERB'
p1910
F5e-06
sS'NOUN'
p1911
F0.999994
s(lp1912
g222
atp1913
a(S'para'
p1914
(dp1915
S'CONJ'
p1916
F0.952862
sS'ADP'
p1917
F0.047138
s(lp1918
g209
atp1919
a(S'concluir'
p1920
(dp1921
S'VERB'
p1922
F1.0
s(lp1923
g240
atp1924
a(S'sus'
p1925
(dp1926
S'PRON'
p1927
F1.0
s(lp1928
g294
atp1929
a(S'procesos'
p1930
(dp1931
S'NOUN'
p1932
F1.0
s(lp1933
tp1934
a(S'de'
p1935
(dp1936
g1167
F2.9e-05
sS'CONJ'
p1937
F0.000449
sS'ADP'
p1938
F0.999522
s(lp1939
tp1940
a(S'desmantelamiento'
p1941
(dp1942
S'NOUN'
p1943
F1.0
s(lp1944
g311
atp1945
a(S'de'
p1946
(dp1947
g1167
F2.9e-05
sS'CONJ'
p1948
F0.000449
sS'ADP'
p1949
F0.999522
s(lp1950
g300
atp1951
a(S'manera'
p1952
(dp1953
S'NOUN'
p1954
F1.0
s(lp1955
tp1956
a(S'adecuada'
p1957
(dp1958
S'VERB'
p1959
F0.273832
sS'ADJ'
p1960
F0.726168
s(lp1961
g247
atp1962
a(S'y'
p1963
(dp1964
g1167
F0.0005
sS'CONJ'
p1965
F0.9995
s(lp1966
g266
atp1967
a(S'segura'
p1968
(dp1969
S'ADJ'
p1970
F1.0
s(lp1971
g285
atp1972
a(g125
(dp1973
g125
F1.0
s(lp1974
g125
atp1975
as.