(dp0
S'fr'
p1
(lp2
(S"aujourd'"
p3
(dp4
S'ADJ'
p5
F0.264722
sS'VERB'
p6
F0.130861
sS'NOUN'
p7
F0.604417
s(lp8
tp9
a(S'hui'
p10
(dp11
S'ADJ'
p12
F0.080146
sS'VERB'
p13
F0.36491399999999996
sS'NOUN'
p14
F0.554941
s(lp15
S'now'
p16
atp17
a(S','
p18
(dp19
S'.'
p20
F1.0
s(lp21
tp22
a(S'le'
p23
(dp24
S'PRON'
p25
F0.004799
sS'DET'
p26
F0.995201
s(lp27
S'the'
p28
atp29
a(S'monde'
p30
(dp31
S'ADJ'
p32
F0.00371
sS'VERB'
p33
F0.0044729999999999995
sS'NOUN'
p34
F0.991817
s(lp35
S'world'
p36
atp37
a(S'se'
p38
(dp39
S'PRON'
p40
F1.0
s(lp41
S'faces'
p42
atp43
a(S'retrouve'
p44
(dp45
S'VERB'
p46
F0.99988
sS'NOUN'
p47
F0.00012
s(lp48
g42
atp49
a(S'encore'
p50
(dp51
S'ADV'
p52
F1.0
s(lp53
S'again'
p54
atp55
a(S'une'
p56
(dp57
S'NOUN'
p58
F6e-06
sS'NUM'
p59
F0.009284
sS'DET'
p60
F0.99071
s(lp61
tp62
a(S'fois'
p63
(dp64
S'NOUN'
p65
F1.0
s(lp66
g54
atp67
a(S'face'
p68
(dp69
S'NOUN'
p70
F1.0
s(lp71
tp72
a(S'\xc3\xa0'
p73
(dp74
S'ADP'
p75
F1.0
s(lp76
g42
atp77
a(S'la'
p78
(dp79
S'PRON'
p80
F1.2e-05
sS'DET'
p81
F0.999988
sS'NOUN'
p82
F0.0
s(lp83
S'a'
p84
atp85
a(S'crise'
p86
(dp87
S'NOUN'
p88
F1.0
s(lp89
S'crisis'
p90
atp91
a(g18
(dp92
g20
F1.0
s(lp93
tp94
a(S'et'
p95
(dp96
S'CONJ'
p97
F1.0
s(lp98
S'and'
p99
atp100
a(S'il'
p101
(dp102
S'PRON'
p103
F1.0
s(lp104
S'it'
p105
atp106
a(S'est'
p107
(dp108
S'VERB'
p109
F0.999997
sS'NOUN'
p110
F3e-06
s(lp111
S'is'
p112
atp113
a(S'plus'
p114
(dp115
S'ADV'
p116
F0.999916
sS'VERB'
p117
F8.4e-05
s(lp118
S'more'
p119
atp120
a(S'important'
p121
(dp122
S'VERB'
p123
F0.004776
sS'ADJ'
p124
F0.995224
s(lp125
S'vital'
p126
atp127
a(S'que'
p128
(dp129
S'ADV'
p130
F0.008624
sS'PRON'
p131
F0.048722
sS'CONJ'
p132
F0.942654
s(lp133
S'than'
p134
atp135
a(S'jamais'
p136
(dp137
S'ADV'
p138
F1.0
s(lp139
S'ever'
p140
atp141
a(S'que'
p142
(dp143
S'ADV'
p144
F0.009934
sS'PRON'
p145
F0.097388
sS'CONJ'
p146
F0.892678
s(lp147
S'that'
p148
atp149
a(S'nous'
p150
(dp151
S'PRON'
p152
F1.0
s(lp153
tp154
a(S'conservions'
p155
(dp156
S'VERB'
p157
F1.0
s(lp158
S'retain'
p159
atp160
a(S'ce'
p161
(dp162
S'PRON'
p163
F1.0
s(lp164
S'this'
p165
atp166
a(S'lien'
p167
(dp168
S'NOUN'
p169
F1.0
s(lp170
S'link'
p171
atp172
a(S'et'
p173
(dp174
S'CONJ'
p175
F1.0
s(lp176
S'and'
p177
atp178
a(S'que'
p179
(dp180
S'ADV'
p181
F0.0022
sS'PRON'
p182
F0.477473
sS'CONJ'
p183
F0.520327
s(lp184
tp185
a(S'nous'
p186
(dp187
S'PRON'
p188
F1.0
s(lp189
S'we'
p190
atp191
a(S'collaborions'
p192
(dp193
S'VERB'
p194
F1.0
s(lp195
S'work'
p196
atp197
a(S'ensemble'
p198
(dp199
S'ADV'
p200
F0.889864
sS'NOUN'
p201
F0.110136
s(lp202
tp203
a(S'afin'
p204
(dp205
S'CONJ'
p206
F1.0
s(lp207
S'together'
p208
atp209
a(S'de'
p210
(dp211
S'ADP'
p212
F1.0
s(lp213
S'to'
p214
atp215
a(S'r\xc3\xa9soudre'
p216
(dp217
S'VERB'
p218
F1.0
s(lp219
S'resolve'
p220
atp221
a(S'les'
p222
(dp223
S'PRON'
p224
F3.1e-05
sS'DET'
p225
F0.999948
sS'ADP'
p226
F2.1e-05
s(lp227
S'the'
p228
atp229
a(S'probl\xc3\xa8mes'
p230
(dp231
S'NOUN'
p232
F1.0
s(lp233
S'problems'
p234
atp235
a(S'qui'
p236
(dp237
S'PRON'
p238
F1.0
s(lp239
S'which'
p240
atp241
a(S'minent'
p242
(dp243
S'VERB'
p244
F1.0
s(lp245
S'beset'
p246
atp247
a(S"l'"
p248
(dp249
S'NOUN'
p250
F0.087886
sS'VERB'
p251
F0.7995690000000001
sS'ADJ'
p252
F0.112546
s(lp253
S'the'
p254
atp255
a(S'\xc3\xa9conomie'
p256
(dp257
S'NOUN'
p258
F1.0
s(lp259
S'economy'
p260
atp261
a(S'mondiale'
p262
(dp263
S'ADJ'
p264
F1.0
s(lp265
S'world'
p266
atp267
a(g20
(dp268
g20
F1.0
s(lp269
g20
atp270
asS'en'
p271
(lp272
(g16
(dp273
S'ADV'
p274
F0.998703
sS'NOUN'
p275
F0.0
sS'ADP'
p276
F0.001297
s(lp277
g16
atp278
a(g28
(dp279
S'NOUN'
p280
F1e-06
sS'DET'
p281
F0.999999
s(lp282
g28
atp283
a(g36
(dp284
S'NOUN'
p285
F1.0
s(lp286
g36
atp287
a(g54
(dp288
S'ADV'
p289
F1.0
s(lp290
g54
atp291
a(g42
(dp292
S'VERB'
p293
F0.999478
sS'NOUN'
p294
F0.000522
s(lp295
g42
atp296
a(g84
(dp297
S'NOUN'
p298
F0.0
sS'DET'
p299
F1.0
s(lp300
g84
atp301
a(g90
(dp302
S'NOUN'
p303
F1.0
s(lp304
g90
atp305
a(g99
(dp306
S'CONJ'
p307
F1.0
sS'NOUN'
p308
F0.0
s(lp309
g99
atp310
a(g105
(dp311
S'PRON'
p312
F1.0
s(lp313
g105
atp314
a(g112
(dp315
S'VERB'
p316
F1.0
s(lp317
g112
atp318
a(g119
(dp319
S'ADV'
p320
F0.836459
sS'ADJ'
p321
F0.163541
s(lp322
g119
atp323
a(g126
(dp324
S'ADJ'
p325
F1.0
s(lp326
g126
atp327
a(g134
(dp328
S'ADP'
p329
F1.0
s(lp330
g134
atp331
a(g140
(dp332
S'ADV'
p333
F1.0
s(lp334
g140
atp335
a(g148
(dp336
S'ADV'
p337
F0.033892
sS'DET'
p338
F0.026691
sS'ADP'
p339
F0.939416
s(lp340
g148
atp341
a(g190
(dp342
S'PRON'
p343
F1.0
s(lp344
g190
atp345
a(g159
(dp346
S'VERB'
p347
F1.0
s(lp348
g159
atp349
a(g165
(dp350
S'ADV'
p351
F4.3e-05
sS'NOUN'
p352
F2e-05
sS'DET'
p353
F0.999937
s(lp354
g165
atp355
a(g171
(dp356
S'VERB'
p357
F0.000579
sS'NOUN'
p358
F0.999421
s(lp359
g171
atp360
a(g177
(dp361
S'CONJ'
p362
F1.0
sS'NOUN'
p363
F0.0
s(lp364
g177
atp365
a(g196
(dp366
S'VERB'
p367
F0.8903059999999999
sS'NOUN'
p368
F0.109694
s(lp369
g196
atp370
a(g208
(dp371
S'ADV'
p372
F1.0
s(lp373
g208
atp374
a(g214
(dp375
S'ADV'
p376
F0.0
sS'PRT'
p377
F1.0
sS'ADP'
p378
F0.0
s(lp379
g214
atp380
a(g220
(dp381
S'VERB'
p382
F0.99993
sS'NOUN'
p383
F7e-05
s(lp384
g220
atp385
a(g228
(dp386
S'NOUN'
p387
F5e-06
sS'DET'
p388
F0.999995
s(lp389
g228
atp390
a(g234
(dp391
S'NOUN'
p392
F1.0
s(lp393
g234
atp394
a(g240
(dp395
S'DET'
p396
F1.0
s(lp397
g240
atp398
a(S'have'
p399
(dp400
S'VERB'
p401
F1.0
s(lp402
g399
atp403
a(g246
(dp404
S'VERB'
p405
F0.999112
sS'ADJ'
p406
F0.000888
s(lp407
g246
atp408
a(g254
(dp409
S'NOUN'
p410
F5e-06
sS'DET'
p411
F0.999995
s(lp412
g254
atp413
a(g266
(dp414
S'NOUN'
p415
F1.0
s(lp416
g266
atp417
a(g260
(dp418
S'NOUN'
p419
F1.0
s(lp420
g260
atp421
a(g20
(dp422
g20
F1.0
s(lp423
g20
atp424
asS'nl'
p425
(lp426
(S'nu'
p427
(dp428
S'ADV'
p429
F0.914222
sS'CONJ'
p430
F0.085311
sS'NOUN'
p431
F0.000467
s(lp432
g16
atp433
a(S'heeft'
p434
(dp435
S'VERB'
p436
F1.0
s(lp437
tp438
a(S'de'
p439
(dp440
S'DET'
p441
F1.0
s(lp442
g28
atp443
a(S'wereld'
p444
(dp445
S'NOUN'
p446
F1.0
s(lp447
g36
atp448
a(S'weer'
p449
(dp450
S'ADV'
p451
F0.997607
sS'VERB'
p452
F0.002295
sS'NOUN'
p453
F9.8e-05
s(lp454
g54
atp455
a(S'met'
p456
(dp457
S'ADP'
p458
F1.0
s(lp459
g42
atp460
a(S'een'
p461
(dp462
S'ADJ'
p463
F1e-06
sS'PRON'
p464
F1.4e-05
sS'NUM'
p465
F0.0
sS'DET'
p466
F0.999985
s(lp467
g84
atp468
a(S'crisis'
p469
(dp470
S'NOUN'
p471
F1.0
s(lp472
g90
atp473
a(S'te'
p474
(dp475
S'PRT'
p476
F1.0
s(lp477
g42
atp478
a(S'kampen'
p479
(dp480
S'VERB'
p481
F0.9941549999999999
sS'NOUN'
p482
F0.005845
s(lp483
tp484
a(S'en'
p485
(dp486
S'CONJ'
p487
F1.0
s(lp488
g99
atp489
a(S'is'
p490
(dp491
S'VERB'
p492
F1.0
s(lp493
g112
atp494
a(S'het'
p495
(dp496
S'PRON'
p497
F0.192971
sS'DET'
p498
F0.807028
s(lp499
g105
atp500
a(S'belangrijker'
p501
(dp502
S'ADJ'
p503
F1.0
s(lp504
g119
atp505
a(S'dan'
p506
(dp507
S'ADV'
p508
F0.284491
sS'CONJ'
p509
F0.715509
s(lp510
g134
atp511
a(S'ooit'
p512
(dp513
S'ADV'
p514
F1.0
s(lp515
g140
atp516
a(S'dat'
p517
(dp518
S'PRON'
p519
F0.001031
sS'CONJ'
p520
F0.998968
s(lp521
g148
atp522
a(S'deze'
p523
(dp524
S'PRON'
p525
F1.0
s(lp526
g165
atp527
a(S'betrekkingen'
p528
(dp529
S'NOUN'
p530
F1.0
s(lp531
g171
atp532
a(S'worden'
p533
(dp534
S'VERB'
p535
F0.9999990000000001
sS'NOUN'
p536
F2e-06
s(lp537
tp538
a(S'behouden'
p539
(dp540
S'NOUN'
p541
F4e-06
sS'VERB'
p542
F0.999864
sS'ADJ'
p543
F0.000132
s(lp544
g159
atp545
a(S'en'
p546
(dp547
S'CONJ'
p548
F1.0
s(lp549
g177
atp550
a(S'wordt'
p551
(dp552
S'VERB'
p553
F1.0
s(lp554
g42
atp555
a(S'samengewerkt'
p556
(dp557
S'VERB'
p558
F1.0
s(lp559
g208
atp560
a(S'om'
p561
(dp562
S'ADV'
p563
F5e-05
sS'CONJ'
p564
F0.554663
sS'ADP'
p565
F0.445286
s(lp566
g214
atp567
a(S'een'
p568
(dp569
S'ADJ'
p570
F1e-06
sS'PRON'
p571
F1.6e-05
sS'NUM'
p572
F1e-06
sS'DET'
p573
F0.999983
s(lp574
g220
atp575
a(S'oplossing'
p576
(dp577
S'NOUN'
p578
F1.0
s(lp579
g220
atp580
a(S'te'
p581
(dp582
S'PRT'
p583
F1.0
s(lp584
tp585
a(S'vinden'
p586
(dp587
S'VERB'
p588
F1.0
sS'NOUN'
p589
F0.0
s(lp590
tp591
a(S'voor'
p592
(dp593
S'ADV'
p594
F0.000307
sS'CONJ'
p595
F3.4e-05
sS'NOUN'
p596
F0.0
sS'ADP'
p597
F0.999659
s(lp598
g214
atp599
a(S'de'
p600
(dp601
S'DET'
p602
F1.0
s(lp603
g228
atp604
a(S'problemen'
p605
(dp606
S'NOUN'
p607
F1.0
s(lp608
g234
atp609
a(S'die'
p610
(dp611
S'PRON'
p612
F1.000001
s(lp613
g240
atp614
a(S'de'
p615
(dp616
S'DET'
p617
F1.0
s(lp618
g266
atp619
a(S'wereldeconomie'
p620
(dp621
S'NOUN'
p622
F1.0
s(lp623
g260
atp624
a(S'op'
p625
(dp626
S'ADV'
p627
F0.001389
sS'ADJ'
p628
F0.0
sS'ADP'
p629
F0.998611
s(lp630
g220
atp631
a(S'dit'
p632
(dp633
S'PRON'
p634
F1.0
s(lp635
tp636
a(S'moment'
p637
(dp638
S'NOUN'
p639
F1.0
s(lp640
g16
atp641
a(S'het'
p642
(dp643
S'PRON'
p644
F0.001008
sS'DET'
p645
F0.998992
s(lp646
g254
atp647
a(S'hoofd'
p648
(dp649
S'NOUN'
p650
F1.0
s(lp651
tp652
a(S'moet'
p653
(dp654
S'VERB'
p655
F1.0
s(lp656
g399
atp657
a(S'bieden'
p658
(dp659
S'VERB'
p660
F0.999488
sS'NOUN'
p661
F0.000512
s(lp662
g246
atp663
a(g20
(dp664
g20
F1.0
s(lp665
g20
atp666
asS'de'
p667
(lp668
(S'jetzt'
p669
(dp670
S'ADV'
p671
F1.0
s(lp672
g16
atp673
a(S'steckt'
p674
(dp675
S'VERB'
p676
F1.0
s(lp677
tp678
a(S'die'
p679
(dp680
S'PRON'
p681
F0.001978
sS'DET'
p682
F0.998019
s(lp683
g28
atp684
a(S'welt'
p685
(dp686
S'ADJ'
p687
F0.019443
sS'NOUN'
p688
F0.961335
s(lp689
g36
atp690
a(S'in'
p691
(dp692
S'ADP'
p693
F1.0
s(lp694
tp695
a(S'einer'
p696
(dp697
S'PRON'
p698
F0.002948
sS'DET'
p699
F0.996882
s(lp700
g84
atp701
a(S'weiteren'
p702
(dp703
S'ADJ'
p704
F1.0
s(lp705
g54
atp706
a(S'krise'
p707
(dp708
S'NOUN'
p709
F0.999673
s(lp710
g90
atp711
a(S'und'
p712
(dp713
S'CONJ'
p714
F1.0
s(lp715
g99
atp716
a(S'es'
p717
(dp718
S'PRON'
p719
F1.0
s(lp720
g105
atp721
a(S'ist'
p722
(dp723
S'VERB'
p724
F1.0
s(lp725
g112
atp726
a(S'wichtiger'
p727
(dp728
S'ADJ'
p729
F1.0
s(lp730
g126
atp731
a(S'als'
p732
(dp733
S'CONJ'
p734
F0.999931
s(lp735
g134
atp736
a(S'je'
p737
(dp738
S'ADV'
p739
F0.758662
sS'ADP'
p740
F0.192408
s(lp741
tp742
a(S'zuvor'
p743
(dp744
S'ADV'
p745
F0.863656
sS'PRT'
p746
F0.136344
s(lp747
g140
atp748
a(g18
(dp749
g20
F1.0
s(lp750
tp751
a(S'dass'
p752
(dp753
S'CONJ'
p754
F1.0
s(lp755
g148
atp756
a(S'wir'
p757
(dp758
S'PRON'
p759
F1.0
s(lp760
g190
atp761
a(S'diese'
p762
(dp763
S'PRON'
p764
F1.0
s(lp765
g165
atp766
a(S'verbindung'
p767
(dp768
S'ADJ'
p769
F0.000348
sS'NOUN'
p770
F0.999548
s(lp771
g171
atp772
a(S'aufrecht'
p773
(dp774
S'PRT'
p775
F0.818053
sS'ADJ'
p776
F0.157613
s(lp777
tp778
a(S'erhalten'
p779
(dp780
S'VERB'
p781
F0.95914
s(lp782
g159
atp783
a(S'und'
p784
(dp785
S'CONJ'
p786
F1.0
s(lp787
g177
atp788
a(S'zusammenarbeiten'
p789
(dp790
S'VERB'
p791
F1.0
s(lp792
g208
atp793
a(g18
(dp794
g20
F1.0
s(lp795
g214
atp796
a(S'um'
p797
(dp798
S'CONJ'
p799
F0.923155
sS'ADP'
p800
F0.076659
s(lp801
g214
atp802
a(S'probleme'
p803
(dp804
S'NOUN'
p805
F0.204593
sS'ADJ'
p806
F0.753408
s(lp807
g234
atp808
a(S'zu'
p809
(dp810
S'PRT'
p811
F0.999979
s(lp812
tp813
a(S'l\xc3\xb6sen'
p814
(dp815
S'VERB'
p816
F1.0
s(lp817
g220
atp818
a(g18
(dp819
g20
F1.0
s(lp820
g214
atp821
a(S'die'
p822
(dp823
S'PRON'
p824
F0.997399
s(lp825
g240
atp826
a(S'die'
p827
(dp828
S'PRON'
p829
F0.002277
sS'DET'
p830
F0.996644
s(lp831
g254
atp832
a(S'weltwirtschaft'
p833
(dp834
S'ADJ'
p835
F0.031799
sS'NOUN'
p836
F0.951562
s(lp837
g260
atp838
a(S'beeintr\xc3\xa4chtigen'
p839
(dp840
S'VERB'
p841
F1.0
s(lp842
g246
atp843
a(g20
(dp844
g20
F1.0
s(lp845
g20
atp846
asS'it'
p847
(lp848
(S'ora'
p849
(dp850
S'ADV'
p851
F0.969366
sS'CONJ'
p852
F0.008937
sS'VERB'
p853
F0.019708999999999997
sS'NOUN'
p854
F0.001988
s(lp855
g16
atp856
a(S'il'
p857
(dp858
S'DET'
p859
F1.0
s(lp860
g28
atp861
a(S'mondo'
p862
(dp863
S'ADJ'
p864
F0.000818
sS'VERB'
p865
F0.0
sS'NOUN'
p866
F0.999182
s(lp867
g36
atp868
a(S'si'
p869
(dp870
S'PRON'
p871
F0.999996
sS'NOUN'
p872
F4e-06
s(lp873
g42
atp874
a(S'trova'
p875
(dp876
S'VERB'
p877
F1.0
s(lp878
g42
atp879
a(S'nuovamente'
p880
(dp881
S'ADV'
p882
F1.0
s(lp883
g54
atp884
a(S'di'
p885
(dp886
S'CONJ'
p887
F3e-06
sS'ADP'
p888
F0.999997
s(lp889
tp890
a(S'fronte'
p891
(dp892
S'NOUN'
p893
F1.0
s(lp894
tp895
a(g84
(dp896
S'CONJ'
p897
F0.000967
sS'ADP'
p898
F0.999033
s(lp899
g42
atp900
a(S'una'
p901
(dp902
S'PRON'
p903
F0.000159
sS'DEF'
p904
F0.999841
s(lp905
g84
atp906
a(S'crisi'
p907
(dp908
S'NOUN'
p909
F1.0
s(lp910
g90
atp911
a(S'ed'
p912
(dp913
S'CONJ'
p914
F1.0
s(lp915
g99
atp916
a(S'\xc3\xa8'
p917
(dp918
S'VERB'
p919
F1.0
s(lp920
g112
atp921
a(S'pi\xc3\xb9'
p922
(dp923
S'ADV'
p924
F0.999105
sS'NOUN'
p925
F1e-05
sS'ADJ'
p926
F0.000769
sS'ADP'
p927
F0.000116
s(lp928
g119
atp929
a(S'essenziale'
p930
(dp931
S'NOUN'
p932
F0.006403
sS'ADJ'
p933
F0.993597
s(lp934
g126
atp935
a(S'che'
p936
(dp937
S'PRON'
p938
F0.828615
sS'CONJ'
p939
F0.170961
sS'ADJ'
p940
F0.000424
s(lp941
g134
atp942
a(S'mai'
p943
(dp944
S'ADV'
p945
F0.999989
sS'NOUN'
p946
F1.1e-05
s(lp947
g140
atp948
a(S'conservare'
p949
(dp950
S'VERB'
p951
F1.0
s(lp952
g159
atp953
a(S'questo'
p954
(dp955
S'PRON'
p956
F1.0
s(lp957
g165
atp958
a(S'legame'
p959
(dp960
S'NOUN'
p961
F1.0
s(lp962
g171
atp963
a(S'e'
p964
(dp965
S'CONJ'
p966
F1.0
s(lp967
g177
atp968
a(S'lavorare'
p969
(dp970
S'VERB'
p971
F1.0
s(lp972
g196
atp973
a(S'insieme'
p974
(dp975
S'ADV'
p976
F0.995617
sS'NOUN'
p977
F0.004383
s(lp978
g208
atp979
a(S'per'
p980
(dp981
S'CONJ'
p982
F0.004
sS'ADP'
p983
F0.996
s(lp984
g214
atp985
a(S'risolvere'
p986
(dp987
S'VERB'
p988
F1.0
s(lp989
g220
atp990
a(S'i'
p991
(dp992
S'DET'
p993
F1.0
s(lp994
g228
atp995
a(S'problemi'
p996
(dp997
S'NOUN'
p998
F1.0
s(lp999
g234
atp1000
a(S'che'
p1001
(dp1002
S'PRON'
p1003
F0.960049
sS'CONJ'
p1004
F0.0391
sS'ADJ'
p1005
F0.000851
s(lp1006
g240
atp1007
a(S'hanno'
p1008
(dp1009
S'VERB'
p1010
F1.0
s(lp1011
g399
atp1012
a(S'assillato'
p1013
(dp1014
S'VERB'
p1015
F1.0
s(lp1016
g246
atp1017
a(S"l'"
p1018
(dp1019
S'NOUN'
p1020
F0.016123
sS'VERB'
p1021
F0.936126
sS'ADJ'
p1022
F0.04775
s(lp1023
g254
atp1024
a(S'economia'
p1025
(dp1026
S'NOUN'
p1027
F1.0
s(lp1028
g260
atp1029
a(S'mondiale'
p1030
(dp1031
S'NOUN'
p1032
F0.00223
sS'ADJ'
p1033
F0.99777
s(lp1034
g266
atp1035
a(g20
(dp1036
g20
F1.0
s(lp1037
g20
atp1038
asS'sk'
p1039
(lp1040
(S'v'
p1041
(dp1042
S'X'
p1043
F0.000596
sS'ADP'
p1044
F0.999404
s(lp1045
g16
atp1046
a(S's\xc3\xba\xc4\x8dasnosti'
p1047
(dp1048
S'NOUN'
p1049
F1.0
s(lp1050
tp1051
a(S'svet'
p1052
(dp1053
S'NOUN'
p1054
F1.0
s(lp1055
g36
atp1056
a(S'znova'
p1057
(dp1058
S'ADV'
p1059
F1.0
s(lp1060
g54
atp1061
a(S'\xc4\x8del\xc3\xad'
p1062
(dp1063
S'VERB'
p1064
F1.0
s(lp1065
g42
atp1066
a(S'kr\xc3\xadze'
p1067
(dp1068
S'NOUN'
p1069
F1.0
s(lp1070
g90
atp1071
a(g84
(dp1072
g1043
F0.004689
sS'CONJ'
p1073
F0.99493
sS'NOUN'
p1074
F0.00022700000000000002
sS'ADP'
p1075
F1e-06
sS'PRT'
p1076
F0.000154
s(lp1077
g99
atp1078
a(S'pre'
p1079
(dp1080
g1043
F5.6e-05
sS'ADP'
p1081
F0.999944
s(lp1082
g28
atp1083
a(S'n\xc3\xa1s'
p1084
(dp1085
S'PRON'
p1086
F0.999803
sg1043
F0.000198
s(lp1087
g105
atp1088
a(S'je'
p1089
(dp1090
g1043
F4.7e-05
sS'VERB'
p1091
F0.999929
sS'PRON'
p1092
F2.4e-05
s(lp1093
g112
atp1094
a(S'dnes'
p1095
(dp1096
S'ADV'
p1097
F0.999873
sg1043
F0.000127
s(lp1098
g16
atp1099
a(S'd\xc3\xb4le\xc5\xbeitej\xc5\xa1ie'
p1100
(dp1101
S'ADV'
p1102
F0.046513
sS'ADJ'
p1103
F0.953487
s(lp1104
g126
atp1105
a(S'ako'
p1106
(dp1107
S'PRON'
p1108
F0.001453
sS'CONJ'
p1109
F0.998475
sg1043
F7.2e-05
s(lp1110
g134
atp1111
a(S'kedyko\xc4\xbevek'
p1112
(dp1113
S'PRON'
p1114
F0.993166
sS'CONJ'
p1115
F0.006834
s(lp1116
tp1117
a(S'predt\xc3\xbdm'
p1118
(dp1119
S'ADV'
p1120
F1.0
s(lp1121
g140
atp1122
a(g18
(dp1123
g20
F1.0
s(lp1124
tp1125
a(S'aby'
p1126
(dp1127
g1043
F6.699999999999999e-05
sS'CONJ'
p1128
F0.999934
s(lp1129
g148
atp1130
a(S'sme'
p1131
(dp1132
g1043
F0.0
sS'VERB'
p1133
F1.0
s(lp1134
g190
atp1135
a(S'toto'
p1136
(dp1137
S'PRON'
p1138
F0.999999
sg1043
F1e-06
s(lp1139
g165
atp1140
a(S'spojenie'
p1141
(dp1142
S'NOUN'
p1143
F1.0
s(lp1144
g171
atp1145
a(S'udr\xc5\xbeali'
p1146
(dp1147
S'VERB'
p1148
F1.0
s(lp1149
g159
atp1150
a(g84
(dp1151
g1043
F0.0043690000000000005
sS'CONJ'
p1152
F0.995155
sS'NOUN'
p1153
F0.000192
sS'ADP'
p1154
F0.0
sS'PRT'
p1155
F0.000282
s(lp1156
g177
atp1157
a(S'spolupracovali'
p1158
(dp1159
S'VERB'
p1160
F1.0
s(lp1161
g196
atp1162
a(S'na'
p1163
(dp1164
g1043
F4e-05
sS'CONJ'
p1165
F6e-06
sS'ADP'
p1166
F0.999952
sS'PRT'
p1167
F1e-06
s(lp1168
g214
atp1169
a(S'rie\xc5\xa1en\xc3\xad'
p1170
(dp1171
S'VERB'
p1172
F0.09606
sS'NOUN'
p1173
F0.9039400000000001
s(lp1174
g220
atp1175
a(S'probl\xc3\xa9mov'
p1176
(dp1177
S'NOUN'
p1178
F1.0
s(lp1179
g234
atp1180
a(g18
(dp1181
g20
F1.0
s(lp1182
tp1183
a(S'ktor\xc3\xa9'
p1184
(dp1185
S'PRON'
p1186
F1.0
s(lp1187
g240
atp1188
a(S'su\xc5\xbeuj\xc3\xba'
p1189
(dp1190
S'VERB'
p1191
F1.0
s(lp1192
g246
atp1193
a(S'svetov\xc3\xa9'
p1194
(dp1195
S'ADJ'
p1196
F1.0
s(lp1197
g266
atp1198
a(S'hospod\xc3\xa1rstvo'
p1199
(dp1200
S'NOUN'
p1201
F1.0
s(lp1202
g260
atp1203
a(g20
(dp1204
g20
F1.0
s(lp1205
g20
atp1206
asS'pl'
p1207
(lp1208
(S'obecnie'
p1209
(dp1210
S'ADV'
p1211
F1.0
s(lp1212
g16
atp1213
a(S'\xc5\x9bwiat'
p1214
(dp1215
S'NOUN'
p1216
F1.0
s(lp1217
g36
atp1218
a(S'znowu'
p1219
(dp1220
S'ADV'
p1221
F0.604839
sS'PRT'
p1222
F0.395161
s(lp1223
g54
atp1224
a(S'stoi'
p1225
(dp1226
S'VERB'
p1227
F1.0
s(lp1228
g42
atp1229
a(S'w'
p1230
(dp1231
S'ADJ'
p1232
F0.0
sg1043
F0.0
sS'NOUN'
p1233
F0.0
sS'ADP'
p1234
F1.0
s(lp1235
g84
atp1236
a(S'obliczu'
p1237
(dp1238
S'NOUN'
p1239
F1.0
s(lp1240
tp1241
a(S'kryzysu'
p1242
(dp1243
S'NOUN'
p1244
F1.0
s(lp1245
g90
atp1246
a(g991
(dp1247
S'PRT'
p1248
F0.001025
sS'CONJ'
p1249
F0.998972
sS'PRON'
p1250
F0.0
sS'NOUN'
p1251
F1e-06
sg1043
F1e-06
s(lp1252
g99
atp1253
a(S'podtrzymanie'
p1254
(dp1255
S'ADV'
p1256
F0.000685
sS'ADJ'
p1257
F3e-06
sS'VERB'
p1258
F0.9977630000000001
sS'NOUN'
p1259
F0.0015480000000000001
s(lp1260
g159
atp1261
a(S'tych'
p1262
(dp1263
S'ADJ'
p1264
F0.9999990000000002
s(lp1265
g165
atp1266
a(S'wi\xc4\x99zi'
p1267
(dp1268
S'NOUN'
p1269
F0.9999999999999999
s(lp1270
g171
atp1271
a(S'oraz'
p1272
(dp1273
S'CONJ'
p1274
F1.0
s(lp1275
g177
atp1276
a(S'wsp\xc3\xb3\xc5\x82praca'
p1277
(dp1278
S'NOUN'
p1279
F1.0
s(lp1280
g196
atp1281
a(S'na'
p1282
(dp1283
g1043
F1e-05
sS'VERB'
p1284
F9e-05
sS'NOUN'
p1285
F2e-06
sS'ADP'
p1286
F0.99989
sS'PRT'
p1287
F7e-06
s(lp1288
tp1289
a(S'rzecz'
p1290
(dp1291
S'NOUN'
p1292
F1.0
s(lp1293
g214
atp1294
a(S'rozwi\xc4\x85zywania'
p1295
(dp1296
S'VERB'
p1297
F1.0
s(lp1298
g220
atp1299
a(S'problem\xc3\xb3w'
p1300
(dp1301
S'NOUN'
p1302
F1.0
s(lp1303
g234
atp1304
a(g18
(dp1305
g1043
F0.0
sg20
F1.0
s(lp1306
tp1307
a(S'z'
p1308
(dp1309
g1043
F2e-06
sS'VERB'
p1310
F1e-06
sS'NOUN'
p1311
F0.0
sS'ADP'
p1312
F0.999996
sS'PRT'
p1313
F1e-06
s(lp1314
g42
atp1315
a(S'kt\xc3\xb3rymi'
p1316
(dp1317
S'ADJ'
p1318
F1.0
s(lp1319
g240
atp1320
a(S'boryka'
p1321
(dp1322
S'ADJ'
p1323
F0.070007
sS'NOUN'
p1324
F0.9299940000000001
s(lp1325
g246
atp1326
a(S'si\xc4\x99'
p1327
(dp1328
S'PRT'
p1329
F1.0
s(lp1330
tp1331
a(S'gospodarka'
p1332
(dp1333
S'NOUN'
p1334
F1.0
s(lp1335
g260
atp1336
a(S'\xc5\x9bwiatowa'
p1337
(dp1338
S'ADJ'
p1339
F1.0
s(lp1340
g266
atp1341
a(S's\xc4\x85'
p1342
(dp1343
S'VERB'
p1344
F1.0
s(lp1345
g112
atp1346
a(S'konieczne'
p1347
(dp1348
S'ADJ'
p1349
F1.0
s(lp1350
g126
atp1351
a(S'bardziej'
p1352
(dp1353
S'ADV'
p1354
F1.0
s(lp1355
g119
atp1356
a(S'ni\xc5\xbc'
p1357
(dp1358
S'CONJ'
p1359
F0.888786
sS'NOUN'
p1360
F3.2e-05
sS'ADP'
p1361
F0.111182
s(lp1362
g134
atp1363
a(S'kiedykolwiek'
p1364
(dp1365
S'ADV'
p1366
F1.0
s(lp1367
tp1368
a(S'przedtem'
p1369
(dp1370
S'ADV'
p1371
F1.0
s(lp1372
g140
atp1373
a(g20
(dp1374
g20
F1.0
s(lp1375
g20
atp1376
asS'sl'
p1377
(lp1378
(S'zdaj'
p1379
(dp1380
S'ADV'
p1381
F1.0
s(lp1382
g16
atp1383
a(S'se'
p1384
(dp1385
S'PRON'
p1386
F0.99997
sg1043
F3e-05
s(lp1387
g28
atp1388
a(S'svet'
p1389
(dp1390
S'NOUN'
p1391
F1.0
s(lp1392
g36
atp1393
a(S'spet'
p1394
(dp1395
S'ADV'
p1396
F1.0
s(lp1397
g54
atp1398
a(S'soo\xc4\x8da'
p1399
(dp1400
S'VERB'
p1401
F1.0
s(lp1402
tp1403
a(S's'
p1404
(dp1405
S'VERB'
p1406
F2e-06
sS'NOUN'
p1407
F4.7e-05
sS'ADP'
p1408
F0.999951
s(lp1409
g42
atp1410
a(S'krizo'
p1411
(dp1412
S'NOUN'
p1413
F1.0
s(lp1414
g90
atp1415
a(S'in'
p1416
(dp1417
S'ADV'
p1418
F0.000343
sg1043
F3e-06
sS'CONJ'
p1419
F0.999653
sS'NOUN'
p1420
F1e-06
s(lp1421
g99
atp1422
a(S'pomembnej\xc5\xa1e'
p1423
(dp1424
S'ADJ'
p1425
F0.9999999999999999
s(lp1426
g119
atp1427
a(S'kot'
p1428
(dp1429
S'CONJ'
p1430
F0.998863
sS'NOUN'
p1431
F0.001137
s(lp1432
g134
atp1433
a(S'kadar'
p1434
(dp1435
S'CONJ'
p1436
F1.0
s(lp1437
tp1438
a(S'koli'
p1439
(dp1440
S'PRT'
p1441
F1.0
s(lp1442
g140
atp1443
a(S'je'
p1444
(dp1445
S'PRON'
p1446
F0.007352
sS'VERB'
p1447
F0.9925160000000001
sg1043
F0.000133
s(lp1448
g112
atp1449
a(g18
(dp1450
g20
F1.0
s(lp1451
tp1452
a(S'da'
p1453
(dp1454
S'PRT'
p1455
F0.000192
sS'CONJ'
p1456
F0.999773
sS'VERB'
p1457
F3.4e-05
sg1043
F1e-06
s(lp1458
g148
atp1459
a(S'ohranimo'
p1460
(dp1461
S'VERB'
p1462
F1.0
s(lp1463
g159
atp1464
a(S'to'
p1465
(dp1466
S'PRON'
p1467
F0.999953
sg1043
F4.6e-05
s(lp1468
g165
atp1469
a(S'vez'
p1470
(dp1471
S'NOUN'
p1472
F1.0
s(lp1473
g171
atp1474
a(S'in'
p1475
(dp1476
S'ADV'
p1477
F0.000358
sg1043
F3e-06
sS'CONJ'
p1478
F0.999634
sS'NOUN'
p1479
F4e-06
s(lp1480
g177
atp1481
a(S'sodelujemo'
p1482
(dp1483
S'ADV'
p1484
F0.000828
sS'ADJ'
p1485
F0.000869
sS'VERB'
p1486
F0.9731150000000001
sS'NOUN'
p1487
F0.025186999999999998
s(lp1488
g196
atp1489
a(S'pri'
p1490
(dp1491
S'ADP'
p1492
F1.0
s(lp1493
g208
atp1494
a(S're\xc5\xa1evanju'
p1495
(dp1496
S'NOUN'
p1497
F1.0
s(lp1498
g220
atp1499
a(S'problemov'
p1500
(dp1501
S'NOUN'
p1502
F1.0
s(lp1503
g234
atp1504
a(g18
(dp1505
g20
F1.0
s(lp1506
tp1507
a(S'ki'
p1508
(dp1509
S'CONJ'
p1510
F1.0
s(lp1511
g240
atp1512
a(S'mu\xc4\x8dijo'
p1513
(dp1514
S'VERB'
p1515
F1.0
s(lp1516
g246
atp1517
a(S'svetovno'
p1518
(dp1519
S'ADV'
p1520
F0.00159
sS'ADJ'
p1521
F0.998411
s(lp1522
g266
atp1523
a(S'gospodarstvo'
p1524
(dp1525
S'NOUN'
p1526
F1.0
s(lp1527
g260
atp1528
a(g20
(dp1529
g20
F1.0
s(lp1530
g20
atp1531
asS'es'
p1532
(lp1533
(S'ahora'
p1534
(dp1535
S'ADV'
p1536
F1.0
s(lp1537
g16
atp1538
a(S'el'
p1539
(dp1540
S'PRON'
p1541
F9e-06
sS'DET'
p1542
F0.999991
s(lp1543
g28
atp1544
a(S'mundo'
p1545
(dp1546
S'NOUN'
p1547
F1.0
s(lp1548
g36
atp1549
a(S'se'
p1550
(dp1551
S'PRON'
p1552
F1.0
sS'VERB'
p1553
F0.0
s(lp1554
g42
atp1555
a(S'enfrenta'
p1556
(dp1557
S'VERB'
p1558
F1.0
s(lp1559
tp1560
a(S'de'
p1561
(dp1562
S'ADV'
p1563
F1.0
s(lp1564
tp1565
a(S'nuevo'
p1566
(dp1567
S'ADV'
p1568
F1.0
s(lp1569
g54
atp1570
a(g84
(dp1571
g1043
F0.0021
sS'CONJ'
p1572
F1.9e-05
sS'ADP'
p1573
F0.997882
s(lp1574
g42
atp1575
a(S'una'
p1576
(dp1577
S'DET'
p1578
F1.0
s(lp1579
g84
atp1580
a(S'crisis'
p1581
(dp1582
S'NOUN'
p1583
F1.0
s(lp1584
g90
atp1585
a(S'y'
p1586
(dp1587
g1043
F0.001476
sS'CONJ'
p1588
F0.998524
s(lp1589
g99
atp1590
a(S'resulta'
p1591
(dp1592
S'VERB'
p1593
F1.0
s(lp1594
g112
atp1595
a(S'm\xc3\xa1s'
p1596
(dp1597
S'ADV'
p1598
F1.0
sS'CONJ'
p1599
F0.0
s(lp1600
g119
atp1601
a(S'vital'
p1602
(dp1603
S'ADJ'
p1604
F1.0
s(lp1605
g126
atp1606
a(S'que'
p1607
(dp1608
g1043
F0.0
sS'CONJ'
p1609
F1.0
s(lp1610
g134
atp1611
a(S'nunca'
p1612
(dp1613
S'ADV'
p1614
F1.0
s(lp1615
g140
atp1616
a(S'que'
p1617
(dp1618
g1043
F0.0
sS'CONJ'
p1619
F1.0
s(lp1620
g148
atp1621
a(S'conservemos'
p1622
(dp1623
S'VERB'
p1624
F1.0
s(lp1625
g159
atp1626
a(S'este'
p1627
(dp1628
S'PRON'
p1629
F0.99981
sS'NOUN'
p1630
F0.00019
s(lp1631
g165
atp1632
a(S'v\xc3\xadnculo'
p1633
(dp1634
S'NOUN'
p1635
F1.0
s(lp1636
g171
atp1637
a(g1586
(dp1638
g1043
F0.001694
sS'CONJ'
p1639
F0.998306
s(lp1640
g177
atp1641
a(S'que'
p1642
(dp1643
g1043
F0.0
sS'CONJ'
p1644
F1.0
s(lp1645
tp1646
a(S'trabajemos'
p1647
(dp1648
S'VERB'
p1649
F1.0
s(lp1650
g196
atp1651
a(S'juntos'
p1652
(dp1653
S'ADJ'
p1654
F1.0
s(lp1655
g208
atp1656
a(S'para'
p1657
(dp1658
S'CONJ'
p1659
F0.985245
sS'ADP'
p1660
F0.014755
s(lp1661
g214
atp1662
a(S'resolver'
p1663
(dp1664
S'VERB'
p1665
F1.0
s(lp1666
g220
atp1667
a(S'los'
p1668
(dp1669
S'PRON'
p1670
F3e-06
sS'DET'
p1671
F0.999997
s(lp1672
g228
atp1673
a(S'problemas'
p1674
(dp1675
S'NOUN'
p1676
F1.0
s(lp1677
g234
atp1678
a(S'que'
p1679
(dp1680
g1043
F1.4e-05
sS'CONJ'
p1681
F0.999986
s(lp1682
g240
atp1683
a(S'han'
p1684
(dp1685
S'VERB'
p1686
F1.0
s(lp1687
g399
atp1688
a(S'azotado'
p1689
(dp1690
S'VERB'
p1691
F1.0
s(lp1692
g246
atp1693
a(g84
(dp1694
g1043
F1.5e-05
sS'CONJ'
p1695
F4e-06
sS'ADP'
p1696
F0.999981
s(lp1697
tp1698
a(S'la'
p1699
(dp1700
S'NOUN'
p1701
F0.0
sS'PRON'
p1702
F0.0
sS'DET'
p1703
F0.999999
sg1043
F0.0
s(lp1704
g254
atp1705
a(S'econom\xc3\xada'
p1706
(dp1707
S'NOUN'
p1708
F1.0
s(lp1709
g260
atp1710
a(S'mundial'
p1711
(dp1712
S'NOUN'
p1713
F2.8e-05
sS'ADJ'
p1714
F0.999972
s(lp1715
g266
atp1716
a(g20
(dp1717
g20
F1.0
s(lp1718
g20
atp1719
as.