(dp0
S'fr'
p1
(lp2
(S'je'
p3
(dp4
S'PRON'
p5
F1.0
s(lp6
S'i'
p7
atp8
a(S'suis'
p9
(dp10
S'VERB'
p11
F1.0
s(lp12
S'agree'
p13
atp14
a(S"d'"
p15
(dp16
S'NOUN'
p17
F0.087886
sS'VERB'
p18
F0.7995690000000001
sS'ADJ'
p19
F0.112546
s(lp20
g13
atp21
a(S'accord'
p22
(dp23
S'NOUN'
p24
F1.0
s(lp25
g13
atp26
a(S'avec'
p27
(dp28
S'ADV'
p29
F0.003861
sS'ADP'
p30
F0.996139
s(lp31
tp32
a(S'le'
p33
(dp34
S'PRON'
p35
F0.012406
sS'DET'
p36
F0.987594
s(lp37
tp38
a(S'fait'
p39
(dp40
S'ADJ'
p41
F0.024247
sS'VERB'
p42
F0.013699
sS'NOUN'
p43
F0.962055
s(lp44
g13
atp45
a(S'que'
p46
(dp47
S'ADV'
p48
F0.007569
sS'PRON'
p49
F0.191291
sS'CONJ'
p50
F0.801139
s(lp51
S'that'
p52
atp53
a(S'la'
p54
(dp55
S'PRON'
p56
F0.000147
sS'DET'
p57
F0.999853
sS'NOUN'
p58
F0.0
s(lp59
S'the'
p60
atp61
a(S'commission'
p62
(dp63
S'NOUN'
p64
F1.0
s(lp65
S'commission'
p66
atp67
a(S'devrait'
p68
(dp69
S'VERB'
p70
F1.0
s(lp71
S'should'
p72
atp73
a(S'entamer'
p74
(dp75
S'VERB'
p76
F1.0
s(lp77
S'initiate'
p78
atp79
a(S'les'
p80
(dp81
S'PRON'
p82
F3.1e-05
sS'DET'
p83
F0.999948
sS'ADP'
p84
F2.1e-05
s(lp85
S'the'
p86
atp87
a(S'n\xc3\xa9gociations'
p88
(dp89
S'NOUN'
p90
F1.0
s(lp91
S'negotiations'
p92
atp93
a(S'aussi'
p94
(dp95
S'ADV'
p96
F0.990357
sS'CONJ'
p97
F0.009643
s(lp98
S'as'
p99
atp100
a(S'vite'
p101
(dp102
S'ADV'
p103
F0.929433
sS'ADJ'
p104
F0.070567
s(lp105
S'soon'
p106
atp107
a(S'que'
p108
(dp109
S'ADV'
p110
F0.301738
sS'PRON'
p111
F0.011695
sS'CONJ'
p112
F0.686567
s(lp113
S'as'
p114
atp115
a(S'possible'
p116
(dp117
S'NOUN'
p118
F0.017845
sS'ADJ'
p119
F0.982155
s(lp120
S'possible'
p121
atp122
a(S','
p123
(dp124
S'.'
p125
F1.0
s(lp126
g123
atp127
a(S'\xc3\xa0'
p128
(dp129
S'ADP'
p130
F1.0
s(lp131
tp132
a(S'condition'
p133
(dp134
S'NOUN'
p135
F1.0
s(lp136
S'provided'
p137
atp138
a(g123
(dp139
g125
F1.0
s(lp140
g123
atp141
a(S'bien'
p142
(dp143
S'ADV'
p144
F0.992399
sS'ADJ'
p145
F0.001773
sS'NOUN'
p146
F0.005828
s(lp147
tp148
a(S's\xc3\xbbr'
p149
(dp150
S'ADJ'
p151
F1.0
s(lp152
S'course'
p153
atp154
a(g123
(dp155
g125
F1.0
s(lp156
g123
atp157
a(S'que'
p158
(dp159
S'ADV'
p160
F0.01212
sS'PRON'
p161
F0.16972
sS'CONJ'
p162
F0.81816
s(lp163
S'that'
p164
atp165
a(S'le'
p166
(dp167
S'PRON'
p168
F0.001793
sS'DET'
p169
F0.998207
s(lp170
tp171
a(S'mont\xc3\xa9n\xc3\xa9gro'
p172
(dp173
S'ADJ'
p174
F0.009568
sS'VERB'
p175
F0.0010379999999999999
sS'NOUN'
p176
F0.989395
s(lp177
S'montenegro'
p178
atp179
a(S'continue'
p180
(dp181
S'VERB'
p182
F0.465018
sS'ADJ'
p183
F0.534982
s(lp184
S'continues'
p185
atp186
a(S'\xc3\xa0'
p187
(dp188
S'ADP'
p189
F1.0
s(lp190
S'to'
p191
atp192
a(S'se'
p193
(dp194
S'PRON'
p195
F1.0
s(lp196
S'move'
p197
atp198
a(S'conformer'
p199
(dp200
S'VERB'
p201
F1.0
s(lp202
S'towards'
p203
atp204
a(S'aux'
p205
(dp206
S'ADP'
p207
F1.0
s(lp208
S'the'
p209
atp210
a(S'objectifs'
p211
(dp212
S'ADJ'
p213
F0.31919
sS'NOUN'
p214
F0.68081
s(lp215
S'targets'
p216
atp217
a(S'de'
p218
(dp219
S'ADP'
p220
F1.0
s(lp221
S"'s"
p222
atp223
a(S"l'"
p224
(dp225
S'ADJ'
p226
F0.160704
sS'VERB'
p227
F0.06480800000000002
sS'NOUN'
p228
F0.774488
s(lp229
S'eu'
p230
atp231
a(S'union'
p232
(dp233
S'NOUN'
p234
F1.0
s(lp235
tp236
a(S'europ\xc3\xa9enne'
p237
(dp238
S'NOUN'
p239
F0.012852
sS'ADJ'
p240
F0.987148
s(lp241
g230
atp242
a(g125
(dp243
g125
F1.0
s(lp244
g125
atp245
asS'en'
p246
(lp247
(g7
(dp248
S'X'
p249
F0.00485
sS'NOUN'
p250
F0.9951510000000001
s(lp251
g7
atp252
a(g13
(dp253
S'VERB'
p254
F1.0
s(lp255
g13
atp256
a(g52
(dp257
S'ADV'
p258
F0.000461
sS'DET'
p259
F0.00476
sS'ADP'
p260
F0.99478
s(lp261
g52
atp262
a(g60
(dp263
S'NOUN'
p264
F3e-06
sS'DET'
p265
F0.999997
s(lp266
g60
atp267
a(g66
(dp268
S'VERB'
p269
F4e-06
sS'NOUN'
p270
F0.999997
s(lp271
g66
atp272
a(g72
(dp273
S'VERB'
p274
F1.0
s(lp275
g72
atp276
a(g78
(dp277
S'ADJ'
p278
F1e-06
sS'VERB'
p279
F0.999997
sS'NOUN'
p280
F2e-06
s(lp281
g78
atp282
a(g86
(dp283
S'NOUN'
p284
F5e-06
sS'DET'
p285
F0.999995
s(lp286
g86
atp287
a(g92
(dp288
S'NOUN'
p289
F1.0
s(lp290
g92
atp291
a(g99
(dp292
S'ADV'
p293
F0.215231
sS'ADP'
p294
F0.784769
s(lp295
g99
atp296
a(g106
(dp297
S'ADV'
p298
F1.0
s(lp299
g106
atp300
a(g114
(dp301
S'ADV'
p302
F0.262865
sS'ADP'
p303
F0.737135
s(lp304
g114
atp305
a(g121
(dp306
S'ADV'
p307
F0.033222
sS'NOUN'
p308
F0.002243
sS'ADJ'
p309
F0.964535
s(lp310
g121
atp311
a(g123
(dp312
g125
F1.0
s(lp313
g123
atp314
a(g137
(dp315
S'VERB'
p316
F1.0
s(lp317
g137
atp318
a(g123
(dp319
g125
F1.0
s(lp320
g123
atp321
a(S'of'
p322
(dp323
S'ADP'
p324
F1.0
s(lp325
g322
atp326
a(g153
(dp327
S'ADV'
p328
F0.000317
sS'VERB'
p329
F2e-06
sS'NOUN'
p330
F0.99968
s(lp331
g153
atp332
a(g123
(dp333
g125
F1.0
s(lp334
g123
atp335
a(g164
(dp336
S'ADV'
p337
F0.000557
sS'DET'
p338
F0.86212
sS'ADP'
p339
F0.137324
s(lp340
g164
atp341
a(g178
(dp342
S'ADV'
p343
F0.000414
sS'ADJ'
p344
F0.000169
sS'NOUN'
p345
F0.999417
s(lp346
g178
atp347
a(g185
(dp348
S'VERB'
p349
F1.0
s(lp350
g185
atp351
a(g191
(dp352
S'ADV'
p353
F0.0
sS'PRT'
p354
F1.0
sS'ADP'
p355
F0.0
s(lp356
g191
atp357
a(g197
(dp358
S'VERB'
p359
F0.936707
sS'NOUN'
p360
F0.063293
s(lp361
g197
atp362
a(g203
(dp363
S'ADP'
p364
F1.0
s(lp365
g203
atp366
a(g209
(dp367
S'NOUN'
p368
F5.1e-05
sS'DET'
p369
F0.999949
s(lp370
g209
atp371
a(g230
(dp372
S'ADV'
p373
F0.0
sS'ADJ'
p374
F1.2e-05
sS'VERB'
p375
F4e-06
sS'NOUN'
p376
F0.9999850000000001
s(lp377
g230
atp378
a(g222
(dp379
S'PRT'
p380
F0.991647
sg125
F0.008353
s(lp381
g222
atp382
a(g216
(dp383
S'VERB'
p384
F0.016266
sS'NOUN'
p385
F0.983734
s(lp386
g216
atp387
a(g125
(dp388
g125
F1.0
s(lp389
g125
atp390
asS'nl'
p391
(lp392
(S'ik'
p393
(dp394
S'PRON'
p395
F0.999981
sS'NOUN'
p396
F1.9e-05
s(lp397
g7
atp398
a(S'ben'
p399
(dp400
S'VERB'
p401
F1.0
s(lp402
g13
atp403
a(S'het'
p404
(dp405
S'PRON'
p406
F0.8426
sS'DET'
p407
F0.157401
s(lp408
g13
atp409
a(S'ermee'
p410
(dp411
S'ADV'
p412
F1.0
s(lp413
tp414
a(S'eens'
p415
(dp416
S'ADV'
p417
F0.999121
sS'ADJ'
p418
F0.000879
s(lp419
g13
atp420
a(S'dat'
p421
(dp422
S'PRON'
p423
F0.007204
sS'CONJ'
p424
F0.992795
s(lp425
g52
atp426
a(S'de'
p427
(dp428
S'DET'
p429
F1.0
s(lp430
g60
atp431
a(S'commissie'
p432
(dp433
S'NOUN'
p434
F1.0
s(lp435
g66
atp436
a(S'nu'
p437
(dp438
S'ADV'
p439
F0.963755
sS'CONJ'
p440
F0.036224
sS'NOUN'
p441
F2.1e-05
s(lp442
tp443
a(S'zo'
p444
(dp445
S'ADV'
p446
F0.999993
sg249
F0.0
sS'CONJ'
p447
F7e-06
s(lp448
g99
atp449
a(S'snel'
p450
(dp451
S'VERB'
p452
F0.116353
sS'ADJ'
p453
F0.883647
s(lp454
g106
atp455
a(S'mogelijk'
p456
(dp457
S'ADJ'
p458
F1.0
s(lp459
g121
atp460
a(S'de'
p461
(dp462
S'DET'
p463
F1.0
s(lp464
g86
atp465
a(S'onderhandelingen'
p466
(dp467
S'NOUN'
p468
F1.0
s(lp469
g92
atp470
a(S'moet'
p471
(dp472
S'VERB'
p473
F1.0
s(lp474
g72
atp475
a(S'opstarten'
p476
(dp477
S'VERB'
p478
F0.9947860000000001
sS'NOUN'
p479
F0.005215
s(lp480
g78
atp481
a(g123
(dp482
g125
F1.0
s(lp483
g123
atp484
a(S'natuurlijk'
p485
(dp486
S'ADJ'
p487
F1.0
s(lp488
g153
atp489
a(S'op'
p490
(dp491
S'ADV'
p492
F0.001362
sS'ADJ'
p493
F4.1e-05
sS'ADP'
p494
F0.998596
s(lp495
g191
atp496
a(S'voorwaarde'
p497
(dp498
S'NOUN'
p499
F1.0
s(lp500
g137
atp501
a(S'dat'
p502
(dp503
S'PRON'
p504
F0.08517100000000001
sS'CONJ'
p505
F0.914828
s(lp506
g164
atp507
a(S'montenegro'
p508
(dp509
S'NOUN'
p510
F1.0
s(lp511
g178
atp512
a(S'zich'
p513
(dp514
S'PRON'
p515
F1.0
s(lp516
g185
atp517
a(S'verder'
p518
(dp519
S'ADV'
p520
F0.037834
sS'ADJ'
p521
F0.962166
s(lp522
tp523
a(S'in'
p524
(dp525
S'ADV'
p526
F0.002615
sS'VERB'
p527
F6e-06
sS'ADP'
p528
F0.997379
s(lp529
g203
atp530
a(S'de'
p531
(dp532
S'DET'
p533
F1.0
s(lp534
tp535
a(S'richting'
p536
(dp537
S'NOUN'
p538
F0.975575
sS'ADP'
p539
F0.024425
s(lp540
tp541
a(S'van'
p542
(dp543
S'ADP'
p544
F1.0
s(lp545
g322
atp546
a(S'de'
p547
(dp548
S'DET'
p549
F1.0
s(lp550
g209
atp551
a(S'doelstellingen'
p552
(dp553
S'NOUN'
p554
F1.0
s(lp555
g216
atp556
a(S'van'
p557
(dp558
S'ADP'
p559
F1.0
s(lp560
g203
atp561
a(S'de'
p562
(dp563
S'DET'
p564
F1.0
s(lp565
tp566
a(S'eu'
p567
(dp568
S'NOUN'
p569
F1.0
s(lp570
g230
atp571
a(S'blijft'
p572
(dp573
S'VERB'
p574
F1.0
s(lp575
g185
atp576
a(S'ontwikkelen'
p577
(dp578
S'VERB'
p579
F0.9939359999999999
sS'NOUN'
p580
F0.006064
s(lp581
g197
atp582
a(g125
(dp583
g125
F1.0
s(lp584
g125
atp585
asS'de'
p586
(lp587
(S'auch'
p588
(dp589
S'ADV'
p590
F1.0
s(lp591
tp592
a(S'ich'
p593
(dp594
S'PRON'
p595
F1.0
s(lp596
g7
atp597
a(S'bin'
p598
(dp599
S'VERB'
p600
F1.0
s(lp601
tp602
a(S'der'
p603
(dp604
S'PRON'
p605
F0.001182
sS'DET'
p606
F0.998817
s(lp607
tp608
a(S'meinung'
p609
(dp610
S'ADJ'
p611
F0.142388
sS'NOUN'
p612
F0.819564
s(lp613
g13
atp614
a(g123
(dp615
g125
F1.0
s(lp616
tp617
a(S'dass'
p618
(dp619
S'CONJ'
p620
F1.0
s(lp621
g52
atp622
a(S'die'
p623
(dp624
S'PRON'
p625
F0.002154
sS'DET'
p626
F0.997543
s(lp627
g60
atp628
a(S'kommission'
p629
(dp630
S'ADJ'
p631
F0.014529
sS'NOUN'
p632
F0.973891
s(lp633
g66
atp634
a(S'die'
p635
(dp636
S'PRON'
p637
F7.3e-05
sS'DET'
p638
F0.999863
s(lp639
g86
atp640
a(S'verhandlungen'
p641
(dp642
S'ADJ'
p643
F0.000195
sS'NOUN'
p644
F0.999647
s(lp645
g92
atp646
a(S'so'
p647
(dp648
S'ADV'
p649
F0.999996
sS'PRON'
p650
F4e-06
s(lp651
g99
atp652
a(S'bald'
p653
(dp654
S'ADV'
p655
F1.0
s(lp656
g106
atp657
a(S'wie'
p658
(dp659
S'CONJ'
p660
F1.0
s(lp661
g114
atp662
a(S'm\xc3\xb6glich'
p663
(dp664
S'ADJ'
p665
F1.0
s(lp666
g121
atp667
a(S'einleiten'
p668
(dp669
S'VERB'
p670
F1.0
s(lp671
g78
atp672
a(S'sollte'
p673
(dp674
S'VERB'
p675
F1.0
s(lp676
g72
atp677
a(g123
(dp678
g125
F1.0
s(lp679
g123
atp680
a(S'vorausgesetzt'
p681
(dp682
S'VERB'
p683
F0.228842
sS'ADJ'
p684
F0.771158
s(lp685
g137
atp686
a(S'nat\xc3\xbcrlich'
p687
(dp688
S'ADV'
p689
F0.812389
sS'ADJ'
p690
F0.187611
s(lp691
g153
atp692
a(g123
(dp693
g125
F1.0
s(lp694
g123
atp695
a(S'dass'
p696
(dp697
S'CONJ'
p698
F1.0
s(lp699
g164
atp700
a(S'montenegro'
p701
(dp702
S'VERB'
p703
F0.039902
sS'NOUN'
p704
F0.959566
s(lp705
g178
atp706
a(S'sich'
p707
(dp708
S'PRON'
p709
F1.0
s(lp710
tp711
a(S'weiterhin'
p712
(dp713
S'ADV'
p714
F1.0
s(lp715
g185
atp716
a(S'auf'
p717
(dp718
S'PRT'
p719
F0.000612
sS'ADP'
p720
F0.99935
s(lp721
g203
atp722
a(S'die'
p723
(dp724
S'PRON'
p725
F0.000346
sS'DET'
p726
F0.99954
s(lp727
g209
atp728
a(S'eu-ziele'
p729
(dp730
S'ADJ'
p731
F0.049574
sS'NOUN'
p732
F0.935561
s(lp733
tp734
a(S'zubewegt'
p735
(dp736
S'VERB'
p737
F1.0
s(lp738
g216
atp739
a(g125
(dp740
g125
F1.0
s(lp741
g125
atp742
asS'it'
p743
(lp744
(S'concordo'
p745
(dp746
S'VERB'
p747
F1.0
s(lp748
tp749
a(S'nel'
p750
(dp751
S'ADP'
p752
F1.0
s(lp753
tp754
a(S'ritenere'
p755
(dp756
S'VERB'
p757
F1.0
s(lp758
g13
atp759
a(S'che'
p760
(dp761
S'PRON'
p762
F0.993757
sS'CONJ'
p763
F0.006044
sS'ADJ'
p764
F0.000199
s(lp765
g52
atp766
a(S'la'
p767
(dp768
S'PRON'
p769
F0.001027
sS'DET'
p770
F0.998973
s(lp771
g60
atp772
a(S'commissione'
p773
(dp774
S'NOUN'
p775
F1.0
s(lp776
g66
atp777
a(S'debba'
p778
(dp779
S'VERB'
p780
F1.0
s(lp781
g72
atp782
a(S'avviare'
p783
(dp784
S'VERB'
p785
F1.0
s(lp786
g78
atp787
a(g7
(dp788
S'DET'
p789
F1.0
s(lp790
g86
atp791
a(S'negoziati'
p792
(dp793
S'ADJ'
p794
F0.022939
sS'VERB'
p795
F0.009505
sS'NOUN'
p796
F0.967556
s(lp797
g92
atp798
a(S'quanto'
p799
(dp800
S'ADV'
p801
F0.928035
sS'PRON'
p802
F0.026528
sS'ADJ'
p803
F0.045053
sS'NOUN'
p804
F0.000384
s(lp805
g99
atp806
a(S'prima'
p807
(dp808
S'ADV'
p809
F0.270421
sS'NOUN'
p810
F0.003075
sS'CONJ'
p811
F0.124396
sS'ADJ'
p812
F0.600677
sS'ADP'
p813
F0.001431
s(lp814
g106
atp815
a(S'a'
p816
(dp817
S'CONJ'
p818
F0.000208
sS'ADP'
p819
F0.999792
s(lp820
g114
atp821
a(S'condizione'
p822
(dp823
S'NOUN'
p824
F1.0
s(lp825
g137
atp826
a(g123
(dp827
g125
F1.0
s(lp828
g123
atp829
a(S'ovviamente'
p830
(dp831
S'ADV'
p832
F1.0
s(lp833
g153
atp834
a(g123
(dp835
g125
F1.0
s(lp836
g123
atp837
a(S'che'
p838
(dp839
S'PRON'
p840
F0.924214
sS'CONJ'
p841
F0.075556
sS'ADJ'
p842
F0.000231
s(lp843
g164
atp844
a(S'il'
p845
(dp846
S'DET'
p847
F1.0
s(lp848
tp849
a(S'montenegro'
p850
(dp851
S'ADJ'
p852
F0.001003
sS'VERB'
p853
F0.000633
sS'NOUN'
p854
F0.998364
s(lp855
g178
atp856
a(S'continui'
p857
(dp858
S'VERB'
p859
F0.062737
sS'ADJ'
p860
F0.937263
s(lp861
g185
atp862
a(g816
(dp863
S'CONJ'
p864
F0.000368
sS'ADP'
p865
F0.999632
s(lp866
g191
atp867
a(S'perseguire'
p868
(dp869
S'VERB'
p870
F1.0
s(lp871
g203
atp872
a(S'gli'
p873
(dp874
S'PRON'
p875
F1.2e-05
sS'DET'
p876
F0.999988
s(lp877
g209
atp878
a(S'obiettivi'
p879
(dp880
S'ADJ'
p881
F0.008227
sS'VERB'
p882
F0.00189
sS'NOUN'
p883
F0.989884
s(lp884
tp885
a(S'indicati'
p886
(dp887
S'VERB'
p888
F0.229586
sS'ADJ'
p889
F0.770414
s(lp890
g216
atp891
a(S"dall'"
p892
(dp893
S'ADJ'
p894
F0.001294
sS'NOUN'
p895
F0.998706
s(lp896
g222
atp897
a(S'ue'
p898
(dp899
S'ADJ'
p900
F0.002294
sS'VERB'
p901
F0.022245999999999995
sS'NOUN'
p902
F0.97546
s(lp903
g230
atp904
a(g125
(dp905
g125
F1.0
s(lp906
g125
atp907
asS'sk'
p908
(lp909
(S's\xc3\xbahlas\xc3\xadm'
p910
(dp911
S'VERB'
p912
F1.0
s(lp913
g13
atp914
a(S's'
p915
(dp916
S'PRT'
p917
F0.001801
sS'CONJ'
p918
F2.7e-05
sS'NOUN'
p919
F3e-06
sS'ADP'
p920
F0.998118
sg249
F5.1e-05
s(lp921
tp922
a(S't\xc3\xbdm'
p923
(dp924
S'PRON'
p925
F0.9999899999999999
sS'CONJ'
p926
F1e-05
s(lp927
g13
atp928
a(g123
(dp929
g125
F1.0
s(lp930
tp931
a(S'aby'
p932
(dp933
g249
F0.00025
sS'CONJ'
p934
F0.99975
s(lp935
g52
atp936
a(S'komisia'
p937
(dp938
S'NOUN'
p939
F1.0
s(lp940
g66
atp941
a(S'\xc4\x8do'
p942
(dp943
S'PRON'
p944
F0.604573
sS'CONJ'
p945
F0.292665
sg249
F0.102763
s(lp946
g121
atp947
a(S'najsk\xc3\xb4r'
p948
(dp949
S'ADV'
p950
F0.9578770000000001
sg249
F0.042122
s(lp951
g106
atp952
a(S'za\xc4\x8dala'
p953
(dp954
S'VERB'
p955
F1.0
s(lp956
g78
atp957
a(S'rokovania'
p958
(dp959
S'NOUN'
p960
F1.0
s(lp961
g92
atp962
a(g123
(dp963
g125
F1.0
s(lp964
g123
atp965
a(S'samozrejme'
p966
(dp967
S'ADV'
p968
F0.000287
sg249
F0.999293
sS'ADJ'
p969
F0.00042
s(lp970
g153
atp971
a(S'za'
p972
(dp973
g249
F0.000252
sS'ADP'
p974
F0.999724
sS'PRT'
p975
F2.3e-05
s(lp976
tp977
a(S'predpokladu'
p978
(dp979
S'NOUN'
p980
F1.0
s(lp981
g137
atp982
a(g123
(dp983
g125
F1.0
s(lp984
g123
atp985
a(S'\xc5\xbee'
p986
(dp987
g249
F0.000486
sS'CONJ'
p988
F0.999514
s(lp989
g164
atp990
a(S'\xc4\x8cierna'
p991
(dp992
S'NOUN'
p993
F0.053847
sS'ADJ'
p994
F0.946153
s(lp995
tp996
a(S'hora'
p997
(dp998
S'NOUN'
p999
F1.0
s(lp1000
g178
atp1001
a(S'bude'
p1002
(dp1003
g249
F0.002354
sS'VERB'
p1004
F0.997646
s(lp1005
tp1006
a(S'na\xc4\x8falej'
p1007
(dp1008
S'ADV'
p1009
F1.0
s(lp1010
g185
atp1011
a(S'smerova\xc5\xa5'
p1012
(dp1013
S'VERB'
p1014
F1.0
s(lp1015
g197
atp1016
a(S'k'
p1017
(dp1018
g249
F0.00011
sS'NOUN'
p1019
F6e-06
sS'ADP'
p1020
F0.999885
s(lp1021
g203
atp1022
a(S'cie\xc4\xbeom'
p1023
(dp1024
S'NOUN'
p1025
F1.0
s(lp1026
g216
atp1027
a(S'e\xc3\x9a'
p1028
(dp1029
S'ADV'
p1030
F0.006095
sS'ADJ'
p1031
F0.33309200000000005
sS'VERB'
p1032
F0.292653
sS'NOUN'
p1033
F0.353665
sg249
F0.014494
s(lp1034
g230
atp1035
a(g125
(dp1036
g125
F1.0
s(lp1037
g125
atp1038
asS'pl'
p1039
(lp1040
(S'zgadzam'
p1041
(dp1042
S'VERB'
p1043
F1.0
s(lp1044
tp1045
a(S'si\xc4\x99'
p1046
(dp1047
S'PRT'
p1048
F1.0
s(lp1049
g13
atp1050
a(g123
(dp1051
g249
F0.0
sg125
F1.0
s(lp1052
tp1053
a(S'\xc5\xbce'
p1054
(dp1055
S'PRT'
p1056
F9.9e-05
sS'CONJ'
p1057
F0.999902
s(lp1058
g52
atp1059
a(S'komisja'
p1060
(dp1061
S'NOUN'
p1062
F1.0
s(lp1063
g66
atp1064
a(S'powinna'
p1065
(dp1066
S'VERB'
p1067
F1.0
s(lp1068
g72
atp1069
a(S'rozpocz\xc4\x85\xc4\x87'
p1070
(dp1071
S'VERB'
p1072
F1.0
s(lp1073
g78
atp1074
a(S'negocjacje'
p1075
(dp1076
S'NOUN'
p1077
F1.0
s(lp1078
g92
atp1079
a(S'jak'
p1080
(dp1081
S'ADV'
p1082
F0.636587
sS'PRT'
p1083
F0.000339
sS'CONJ'
p1084
F0.331834
sS'ADP'
p1085
F0.031234
sS'PRON'
p1086
F6e-06
s(lp1087
g99
atp1088
a(S'najszybciej'
p1089
(dp1090
S'ADV'
p1091
F1.0
s(lp1092
g106
atp1093
a(g123
(dp1094
g249
F1e-06
sg125
F0.999999
s(lp1095
g123
atp1096
a(S'pod'
p1097
(dp1098
S'ADV'
p1099
F0.000232
sS'ADP'
p1100
F0.9997670000000001
s(lp1101
tp1102
a(S'warunkiem'
p1103
(dp1104
S'NOUN'
p1105
F1.0
s(lp1106
g137
atp1107
a(S'oczywi\xc5\x9bcie'
p1108
(dp1109
S'PRT'
p1110
F1.0
s(lp1111
g153
atp1112
a(S'\xc5\xbce'
p1113
(dp1114
S'PRT'
p1115
F0.003404
sS'CONJ'
p1116
F0.996596
s(lp1117
g164
atp1118
a(S'czarnog\xc3\xb3ra'
p1119
(dp1120
S'ADV'
p1121
F0.000207
sS'ADJ'
p1122
F0.02492
sS'VERB'
p1123
F0.0034390000000000007
sS'NOUN'
p1124
F0.9714319999999997
s(lp1125
g178
atp1126
a(S'b\xc4\x99dzie'
p1127
(dp1128
S'VERB'
p1129
F1.0
s(lp1130
tp1131
a(S'nadal'
p1132
(dp1133
S'ADV'
p1134
F0.999625
sS'VERB'
p1135
F0.000375
s(lp1136
g185
atp1137
a(S'pod\xc4\x85\xc5\xbca\xc4\x87'
p1138
(dp1139
S'VERB'
p1140
F1.0
s(lp1141
g197
atp1142
a(S'w'
p1143
(dp1144
S'ADJ'
p1145
F0.0
sg249
F0.0
sS'NOUN'
p1146
F0.0
sS'ADP'
p1147
F0.999999
s(lp1148
tp1149
a(S'kierunku'
p1150
(dp1151
S'NOUN'
p1152
F1.0
s(lp1153
g203
atp1154
a(S'ue'
p1155
(dp1156
S'ADJ'
p1157
F0.000727
sS'VERB'
p1158
F0.0022890000000000002
sS'NOUN'
p1159
F0.9969840000000001
s(lp1160
g230
atp1161
a(g125
(dp1162
g125
F1.0
s(lp1163
g125
atp1164
asS'sl'
p1165
(lp1166
(S'strinjam'
p1167
(dp1168
S'VERB'
p1169
F1.0
s(lp1170
tp1171
a(S'se'
p1172
(dp1173
S'PRON'
p1174
F0.999338
sg249
F0.000662
s(lp1175
g13
atp1176
a(g123
(dp1177
g125
F1.0
s(lp1178
tp1179
a(S'da'
p1180
(dp1181
S'PRT'
p1182
F0.000313
sS'CONJ'
p1183
F0.999649
sS'VERB'
p1184
F3.6e-05
sg249
F2e-06
s(lp1185
g52
atp1186
a(S'mora'
p1187
(dp1188
S'VERB'
p1189
F0.979027
sS'NOUN'
p1190
F0.020973
s(lp1191
g72
atp1192
a(S'komisija'
p1193
(dp1194
S'NOUN'
p1195
F1.0
s(lp1196
g66
atp1197
a(S'\xc4\x8dim'
p1198
(dp1199
S'ADV'
p1200
F0.996964
sS'PRON'
p1201
F0.003036
s(lp1202
g121
atp1203
a(S'prej'
p1204
(dp1205
S'ADV'
p1206
F1.0
s(lp1207
tp1208
a(S'za\xc4\x8deti'
p1209
(dp1210
S'VERB'
p1211
F0.999329
sS'ADJ'
p1212
F0.000671
s(lp1213
g78
atp1214
a(S'pogajanja'
p1215
(dp1216
S'NOUN'
p1217
F1.0
s(lp1218
g92
atp1219
a(g123
(dp1220
g125
F1.0
s(lp1221
g123
atp1222
a(S'seveda'
p1223
(dp1224
S'PRT'
p1225
F1.0
s(lp1226
g153
atp1227
a(S'pod'
p1228
(dp1229
S'ADP'
p1230
F1.0
s(lp1231
tp1232
a(S'pogojem'
p1233
(dp1234
S'NOUN'
p1235
F1.0
s(lp1236
g137
atp1237
a(g123
(dp1238
g125
F1.0
s(lp1239
g123
atp1240
a(S'da'
p1241
(dp1242
S'PRT'
p1243
F5e-06
sS'CONJ'
p1244
F0.99997
sS'VERB'
p1245
F2.4e-05
sg249
F0.0
s(lp1246
g164
atp1247
a(S'se'
p1248
(dp1249
S'PRON'
p1250
F1.0
sg249
F0.0
s(lp1251
tp1252
a(S'bo'
p1253
(dp1254
S'VERB'
p1255
F1.0
s(lp1256
g106
atp1257
a(S'\xc4\x8crna'
p1258
(dp1259
S'NOUN'
p1260
F0.003353
sS'ADJ'
p1261
F0.996647
s(lp1262
tp1263
a(S'gora'
p1264
(dp1265
S'NOUN'
p1266
F1.0
s(lp1267
g178
atp1268
a(S'\xc5\xa1e'
p1269
(dp1270
S'PRT'
p1271
F1.0
s(lp1272
tp1273
a(S'naprej'
p1274
(dp1275
S'ADV'
p1276
F1.0
s(lp1277
g185
atp1278
a(S'premikala'
p1279
(dp1280
S'VERB'
p1281
F1.0
s(lp1282
g197
atp1283
a(S'v'
p1284
(dp1285
S'ADP'
p1286
F1.0
s(lp1287
tp1288
a(S'smeri'
p1289
(dp1290
S'NOUN'
p1291
F1.0
s(lp1292
g203
atp1293
a(S'ciljev'
p1294
(dp1295
S'NOUN'
p1296
F1.0
s(lp1297
g216
atp1298
a(S'eu'
p1299
(dp1300
S'ADV'
p1301
F0.007717
sS'ADJ'
p1302
F0.054404999999999995
sS'VERB'
p1303
F0.004962
sS'NOUN'
p1304
F0.9329180000000001
s(lp1305
g230
atp1306
a(g125
(dp1307
g125
F1.0
s(lp1308
g125
atp1309
asS'es'
p1310
(lp1311
(S'coincido'
p1312
(dp1313
S'VERB'
p1314
F1.0
s(lp1315
tp1316
a(S'en'
p1317
(dp1318
g249
F0.0
sS'CONJ'
p1319
F0.000181
sS'ADP'
p1320
F0.999819
s(lp1321
g13
atp1322
a(S'que'
p1323
(dp1324
g249
F0.0
sS'CONJ'
p1325
F1.0
s(lp1326
g52
atp1327
a(S'la'
p1328
(dp1329
S'PRON'
p1330
F0.00027
sS'DET'
p1331
F0.99973
sg249
F0.0
sS'NOUN'
p1332
F0.0
s(lp1333
g60
atp1334
a(S'comisi\xc3\xb3n'
p1335
(dp1336
S'NOUN'
p1337
F1.0
s(lp1338
g66
atp1339
a(S'deber\xc3\xada'
p1340
(dp1341
S'VERB'
p1342
F1.0
s(lp1343
g72
atp1344
a(S'iniciar'
p1345
(dp1346
S'VERB'
p1347
F1.0
s(lp1348
g78
atp1349
a(S'las'
p1350
(dp1351
S'PRON'
p1352
F2e-06
sS'DET'
p1353
F0.999998
s(lp1354
g86
atp1355
a(S'negociaciones'
p1356
(dp1357
S'NOUN'
p1358
F1.0
s(lp1359
g92
atp1360
a(S'lo'
p1361
(dp1362
S'PRON'
p1363
F0.027371
sS'DET'
p1364
F0.972629
s(lp1365
g99
atp1366
a(S'antes'
p1367
(dp1368
S'ADV'
p1369
F0.587065
sS'NOUN'
p1370
F0.412935
s(lp1371
g106
atp1372
a(S'posible'
p1373
(dp1374
S'ADJ'
p1375
F1.0
s(lp1376
g121
atp1377
a(g123
(dp1378
g125
F1.0
s(lp1379
g123
atp1380
a(S'siempre'
p1381
(dp1382
S'CONJ'
p1383
F1.0
s(lp1384
g137
atp1385
a(S'que'
p1386
(dp1387
S'CONJ'
p1388
F1.0
s(lp1389
g164
atp1390
a(g123
(dp1391
g125
F1.0
s(lp1392
g123
atp1393
a(S'desde'
p1394
(dp1395
S'ADP'
p1396
F1.0
s(lp1397
tp1398
a(S'luego'
p1399
(dp1400
S'ADV'
p1401
F0.995517
sS'CONJ'
p1402
F0.004483
s(lp1403
g153
atp1404
a(g123
(dp1405
g125
F1.0
s(lp1406
g123
atp1407
a(S'montenegro'
p1408
(dp1409
S'ADV'
p1410
F0.262816
sS'NOUN'
p1411
F0.131479
sS'VERB'
p1412
F0.444402
sS'ADJ'
p1413
F0.161303
s(lp1414
g178
atp1415
a(S'siga'
p1416
(dp1417
S'VERB'
p1418
F1.0
s(lp1419
g185
atp1420
a(S'avanzando'
p1421
(dp1422
S'VERB'
p1423
F1.0
s(lp1424
g197
atp1425
a(S'hacia'
p1426
(dp1427
S'VERB'
p1428
F5e-06
sS'ADP'
p1429
F0.999995
s(lp1430
g203
atp1431
a(S'los'
p1432
(dp1433
S'PRON'
p1434
F0.0
sS'DET'
p1435
F1.0
s(lp1436
g209
atp1437
a(S'objetivos'
p1438
(dp1439
S'ADJ'
p1440
F0.008368
sS'NOUN'
p1441
F0.991632
s(lp1442
g216
atp1443
a(S'de'
p1444
(dp1445
g249
F0.0
sS'CONJ'
p1446
F1.8e-05
sS'ADP'
p1447
F0.999982
s(lp1448
g222
atp1449
a(S'la'
p1450
(dp1451
g249
F0.0
sS'PRON'
p1452
F0.0
sS'DET'
p1453
F0.999999
sS'NOUN'
p1454
F0.0
s(lp1455
tp1456
a(S'ue'
p1457
(dp1458
S'VERB'
p1459
F4e-06
sS'NOUN'
p1460
F0.999997
s(lp1461
g230
atp1462
a(g125
(dp1463
g125
F1.0
s(lp1464
g125
atp1465
as.