(dp0
S'fr'
p1
(lp2
(S'nous'
p3
(dp4
S'PRON'
p5
F1.0
s(lp6
S'we'
p7
atp8
a(S'ne'
p9
(dp10
S'ADV'
p11
F1.0
s(lp12
tp13
a(S'parlons'
p14
(dp15
S'VERB'
p16
F1.0
s(lp17
tp18
a(S'ici'
p19
(dp20
S'ADV'
p21
F1.0
s(lp22
S'talking'
p23
atp24
a(S'que'
p25
(dp26
S'ADV'
p27
F0.200484
sS'PRON'
p28
F0.010373
sS'CONJ'
p29
F0.789142
s(lp30
S'only'
p31
atp32
a(S'des'
p33
(dp34
S'DET'
p35
F0.000578
sS'ADP'
p36
F0.999422
s(lp37
S'about'
p38
atp39
a(S'frais'
p40
(dp41
S'ADJ'
p42
F0.219563
sS'NOUN'
p43
F0.780437
s(lp44
S'costs'
p45
atp46
a(S'administratifs'
p47
(dp48
S'ADJ'
p49
F1.0
s(lp50
S'administrative'
p51
atp52
a(S','
p53
(dp54
S'.'
p55
F1.0
s(lp56
g53
atp57
a(S'sans'
p58
(dp59
S'CONJ'
p60
F0.026636
sS'ADP'
p61
F0.973364
s(lp62
S'without'
p63
atp64
a(S'tenir'
p65
(dp66
S'VERB'
p67
F1.0
s(lp68
tp69
a(S'compte'
p70
(dp71
S'VERB'
p72
F0.189468
sS'NOUN'
p73
F0.810532
s(lp74
S'counting'
p75
atp76
a(S'des'
p77
(dp78
S'DET'
p79
F6.4e-05
sS'ADP'
p80
F0.999936
s(lp81
S'the'
p82
atp83
a(S'co\xc3\xbbts'
p84
(dp85
S'NOUN'
p86
F1.0
s(lp87
S'costs'
p88
atp89
a(S'des'
p90
(dp91
S'DET'
p92
F2.1e-05
sS'ADP'
p93
F0.999979
s(lp94
S'the'
p95
atp96
a(S'demandeurs'
p97
(dp98
S'NOUN'
p99
F1.0
s(lp100
S'seekers'
p101
atp102
a(S"d'"
p103
(dp104
S'NOUN'
p105
F0.032441
sS'VERB'
p106
F0.694014
sS'ADJ'
p107
F0.273544
s(lp108
tp109
a(S'asile'
p110
(dp111
S'NOUN'
p112
F1.0
s(lp113
S'asylum'
p114
atp115
a(S'eux-m\xc3\xaames'
p116
(dp117
S'PRON'
p118
F1.0
s(lp119
S'themselves'
p120
atp121
a(g53
(dp122
g55
F1.0
s(lp123
g53
atp124
a(S"qu'"
p125
(dp126
S'NOUN'
p127
F0.204295
sS'VERB'
p128
F0.394755
sS'ADJ'
p129
F0.400951
s(lp130
tp131
a(S'ils'
p132
(dp133
S'PRON'
p134
F1.0
s(lp135
S'who'
p136
atp137
a(S'aient'
p138
(dp139
S'VERB'
p140
F1.0
s(lp141
tp142
a(S'droit'
p143
(dp144
S'ADV'
p145
F0.153377
sS'ADJ'
p146
F0.372658
sS'NOUN'
p147
F0.473965
s(lp148
S'entitled'
p149
atp150
a(S'\xc3\xa0'
p151
(dp152
S'ADP'
p153
F1.0
s(lp154
S'to'
p155
atp156
a(S"l'"
p157
(dp158
S'ADJ'
p159
F0.160704
sS'VERB'
p160
F0.06480800000000002
sS'NOUN'
p161
F0.774488
s(lp162
tp163
a(S'asile'
p164
(dp165
S'NOUN'
p166
F1.0
s(lp167
S'asylum'
p168
atp169
a(S'ou'
p170
(dp171
S'CONJ'
p172
F1.0
s(lp173
S'and'
p174
atp175
a(S'que'
p176
(dp177
S'ADV'
p178
F0.016646
sS'PRON'
p179
F0.006844
sS'CONJ'
p180
F0.976511
s(lp181
S'both'
p182
atp183
a(S'leurs'
p184
(dp185
S'PRON'
p186
F1.0
s(lp187
S'whose'
p188
atp189
a(S'demandes'
p190
(dp191
S'VERB'
p192
F0.0
sS'NOUN'
p193
F1.0
s(lp194
S'claims'
p195
atp196
a(S'soient'
p197
(dp198
S'VERB'
p199
F1.0
s(lp200
S'are'
p201
atp202
a(S'finalement'
p203
(dp204
S'ADV'
p205
F1.0
s(lp206
S'ultimately'
p207
atp208
a(S'rejet\xc3\xa9es'
p209
(dp210
S'VERB'
p211
F1.0
s(lp212
S'denied'
p213
atp214
a(S'pour'
p215
(dp216
S'CONJ'
p217
F0.188563
sS'ADP'
p218
F0.811437
s(lp219
S'for'
p220
atp221
a(S'de'
p222
(dp223
S'ADP'
p224
F1.0
s(lp225
tp226
a(S'bonnes'
p227
(dp228
S'NOUN'
p229
F0.05464
sS'ADJ'
p230
F0.94536
s(lp231
S'right'
p232
atp233
a(S'ou'
p234
(dp235
S'CONJ'
p236
F1.0
s(lp237
S'or'
p238
atp239
a(S'de'
p240
(dp241
S'ADP'
p242
F1.0
s(lp243
tp244
a(S'mauvaises'
p245
(dp246
S'NOUN'
p247
F0.006938
sS'ADJ'
p248
F0.993062
s(lp249
S'wrong'
p250
atp251
a(S'raisons'
p252
(dp253
S'NOUN'
p254
F1.0
s(lp255
S'reasons'
p256
atp257
a(g55
(dp258
g55
F1.0
s(lp259
g55
atp260
asS'en'
p261
(lp262
(g7
(dp263
S'PRON'
p264
F1.0
s(lp265
g7
atp266
a(S'are'
p267
(dp268
S'VERB'
p269
F1.0
sS'NOUN'
p270
F0.0
s(lp271
g267
atp272
a(g31
(dp273
S'ADV'
p274
F0.984107
sS'NOUN'
p275
F3e-06
sS'ADJ'
p276
F0.01589
s(lp277
g31
atp278
a(g23
(dp279
S'VERB'
p280
F0.994177
sS'NOUN'
p281
F0.005823
s(lp282
g23
atp283
a(g38
(dp284
S'ADV'
p285
F0.529185
sS'ADP'
p286
F0.470815
s(lp287
g38
atp288
a(g51
(dp289
S'ADJ'
p290
F1.0
s(lp291
g51
atp292
a(g45
(dp293
S'VERB'
p294
F0.000121
sS'NOUN'
p295
F0.999879
s(lp296
g45
atp297
a(g53
(dp298
g55
F1.0
s(lp299
g53
atp300
a(g63
(dp301
S'ADP'
p302
F1.0
s(lp303
g63
atp304
a(g75
(dp305
S'VERB'
p306
F0.997243
sS'NOUN'
p307
F0.002757
s(lp308
g75
atp309
a(g82
(dp310
S'NOUN'
p311
F8e-06
sS'DET'
p312
F0.999992
s(lp313
g82
atp314
a(g88
(dp315
S'VERB'
p316
F0.002661
sS'NOUN'
p317
F0.997339
s(lp318
g88
atp319
a(S'for'
p320
(dp321
S'ADP'
p322
F1.0
s(lp323
g320
atp324
a(g95
(dp325
S'NOUN'
p326
F1e-06
sS'DET'
p327
F0.999999
s(lp328
g95
atp329
a(g114
(dp330
S'NOUN'
p331
F1.0
s(lp332
g114
atp333
a(g101
(dp334
S'NOUN'
p335
F1.0
s(lp336
g101
atp337
a(g120
(dp338
S'PRON'
p339
F1.0
s(lp340
g120
atp341
a(g53
(dp342
g55
F1.0
s(lp343
g53
atp344
a(g182
(dp345
S'CONJ'
p346
F0.999462
sS'DET'
p347
F0.000539
s(lp348
g182
atp349
a(S'those'
p350
(dp351
S'NOUN'
p352
F0.000152
sS'DET'
p353
F0.999848
s(lp354
g350
atp355
a(g136
(dp356
S'PRON'
p357
F1.0
s(lp358
g136
atp359
a(S'are'
p360
(dp361
S'VERB'
p362
F0.999999
sS'NOUN'
p363
F1e-06
s(lp364
g360
atp365
a(g149
(dp366
S'VERB'
p367
F1.0
s(lp368
g149
atp369
a(g155
(dp370
S'ADV'
p371
F0.0
sS'PRT'
p372
F0.999991
sS'ADP'
p373
F8e-06
s(lp374
g155
atp375
a(g168
(dp376
S'NOUN'
p377
F1.0
s(lp378
g168
atp379
a(g174
(dp380
S'CONJ'
p381
F1.0
sS'NOUN'
p382
F0.0
s(lp383
g174
atp384
a(S'those'
p385
(dp386
S'NOUN'
p387
F0.00021
sS'DET'
p388
F0.99979
s(lp389
g385
atp390
a(g188
(dp391
S'PRON'
p392
F1.0
s(lp393
g188
atp394
a(g195
(dp395
S'VERB'
p396
F0.0
sS'NOUN'
p397
F1.0
s(lp398
g195
atp399
a(g201
(dp400
S'VERB'
p401
F1.0
sS'NOUN'
p402
F0.0
s(lp403
g201
atp404
a(g207
(dp405
S'ADV'
p406
F1.0
s(lp407
g207
atp408
a(g213
(dp409
S'VERB'
p410
F1.0
s(lp411
g213
atp412
a(g220
(dp413
S'ADP'
p414
F1.0
s(lp415
g220
atp416
a(S'the'
p417
(dp418
S'NOUN'
p419
F1e-06
sS'DET'
p420
F0.999999
s(lp421
g417
atp422
a(g232
(dp423
S'ADV'
p424
F0.007883
sS'ADJ'
p425
F0.214919
sS'VERB'
p426
F1e-06
sS'NOUN'
p427
F0.777196
s(lp428
g232
atp429
a(g238
(dp430
S'CONJ'
p431
F0.999993
sS'ADJ'
p432
F7e-06
s(lp433
g238
atp434
a(g250
(dp435
S'ADV'
p436
F0.000627
sS'NOUN'
p437
F0.001463
sS'VERB'
p438
F0.000451
sS'ADJ'
p439
F0.997459
s(lp440
g250
atp441
a(g256
(dp442
S'VERB'
p443
F0.00012
sS'NOUN'
p444
F0.99988
s(lp445
g256
atp446
a(g55
(dp447
g55
F1.0
s(lp448
g55
atp449
asS'nl'
p450
(lp451
(S'we'
p452
(dp453
S'PRON'
p454
F1.0
s(lp455
g7
atp456
a(S'hebben'
p457
(dp458
S'VERB'
p459
F0.999999
sS'NOUN'
p460
F1e-06
s(lp461
tp462
a(S'het'
p463
(dp464
S'PRON'
p465
F0.762063
sS'DET'
p466
F0.237937
s(lp467
g23
atp468
a(S'alleen'
p469
(dp470
S'ADV'
p471
F0.982054
sS'ADJ'
p472
F0.017946
s(lp473
g31
atp474
a(S'over'
p475
(dp476
S'ADV'
p477
F0.058195
sS'ADP'
p478
F0.941805
s(lp479
g38
atp480
a(S'de'
p481
(dp482
S'DET'
p483
F1.0
s(lp484
g417
atp485
a(S'administratieve'
p486
(dp487
S'NOUN'
p488
F1e-06
sS'ADJ'
p489
F0.999999
s(lp490
g51
atp491
a(S'kosten'
p492
(dp493
S'VERB'
p494
F0.000136
sS'NOUN'
p495
F0.9998640000000001
s(lp496
g45
atp497
a(g53
(dp498
g55
F1.0
s(lp499
g53
atp500
a(S'zonder'
p501
(dp502
S'CONJ'
p503
F0.00154
sS'ADP'
p504
F0.99846
s(lp505
g63
atp506
a(S'rekening'
p507
(dp508
S'NOUN'
p509
F1.0
s(lp510
tp511
a(S'te'
p512
(dp513
S'PRT'
p514
F1.0
s(lp515
tp516
a(S'houden'
p517
(dp518
S'VERB'
p519
F1.0
sS'NOUN'
p520
F0.0
s(lp521
g75
atp522
a(S'met'
p523
(dp524
S'ADP'
p525
F1.0
s(lp526
tp527
a(S'de'
p528
(dp529
S'DET'
p530
F1.0
s(lp531
g82
atp532
a(S'kosten'
p533
(dp534
S'VERB'
p535
F0.0
sS'NOUN'
p536
F1.0
s(lp537
g88
atp538
a(S'voor'
p539
(dp540
S'ADV'
p541
F0.002234
sS'CONJ'
p542
F7e-06
sS'NOUN'
p543
F0.0
sS'ADP'
p544
F0.997759
s(lp545
g320
atp546
a(S'de'
p547
(dp548
S'DET'
p549
F1.0
s(lp550
g95
atp551
a(S'asielaanvragers'
p552
(dp553
S'NOUN'
p554
F1.0
s(lp555
g101
atp556
a(S'zelf'
p557
(dp558
S'PRON'
p559
F1.0
s(lp560
g120
atp561
a(g53
(dp562
g55
F1.0
s(lp563
g53
atp564
a(S'zowel'
p565
(dp566
S'ADV'
p567
F0.002555
sS'CONJ'
p568
F0.997445
s(lp569
g182
atp570
a(S'voor'
p571
(dp572
S'ADV'
p573
F0.007678
sS'CONJ'
p574
F4.5e-05
sS'NOUN'
p575
F0.0
sS'ADP'
p576
F0.992277
s(lp577
g155
atp578
a(S'degenen'
p579
(dp580
S'PRON'
p581
F1.0
s(lp582
g350
atp583
a(S'die'
p584
(dp585
S'PRON'
p586
F1.0
s(lp587
g136
atp588
a(S'recht'
p589
(dp590
S'ADJ'
p591
F0.000119
sS'VERB'
p592
F0.000135
sS'NOUN'
p593
F0.999746
s(lp594
g149
atp595
a(S'op'
p596
(dp597
S'ADV'
p598
F0.001806
sS'ADJ'
p599
F2e-06
sS'ADP'
p600
F0.998192
s(lp601
tp602
a(S'asiel'
p603
(dp604
S'NOUN'
p605
F1.0
s(lp606
g168
atp607
a(S'hebben'
p608
(dp609
S'VERB'
p610
F0.9999990000000001
sS'NOUN'
p611
F1e-06
s(lp612
g149
atp613
a(S'als'
p614
(dp615
S'CONJ'
p616
F1.0
s(lp617
g174
atp618
a(S'voor'
p619
(dp620
S'ADV'
p621
F0.008985
sS'CONJ'
p622
F5.4e-05
sS'NOUN'
p623
F0.0
sS'ADP'
p624
F0.990961
s(lp625
g220
atp626
a(S'degenen'
p627
(dp628
S'PRON'
p629
F1.0
s(lp630
g385
atp631
a(S'die'
p632
(dp633
S'PRON'
p634
F1.000001
s(lp635
g188
atp636
a(S'uiteindelijk'
p637
(dp638
S'ADJ'
p639
F1.0
s(lp640
g207
atp641
a(S'hun'
p642
(dp643
S'PRON'
p644
F1.0
s(lp645
g213
atp646
a(S'verzoek'
p647
(dp648
S'VERB'
p649
F0.000443
sS'NOUN'
p650
F0.999557
s(lp651
g195
atp652
a(S'terecht'
p653
(dp654
S'ADV'
p655
F0.011806
sS'ADJ'
p656
F0.988194
s(lp657
g232
atp658
a(S'of'
p659
(dp660
S'CONJ'
p661
F1.0
s(lp662
g238
atp663
a(S'onterecht'
p664
(dp665
S'ADJ'
p666
F1.0
s(lp667
g250
atp668
a(S'afgewezen'
p669
(dp670
S'VERB'
p671
F1.0
s(lp672
g256
atp673
a(S'zien'
p674
(dp675
S'VERB'
p676
F0.995483
sS'NOUN'
p677
F0.004517
s(lp678
g201
atp679
a(g55
(dp680
g55
F1.0
s(lp681
g55
atp682
asS'de'
p683
(lp684
(S'wir'
p685
(dp686
S'PRON'
p687
F1.0
s(lp688
g7
atp689
a(S'sprechen'
p690
(dp691
S'VERB'
p692
F1.0
s(lp693
g23
atp694
a(S'nur'
p695
(dp696
S'ADV'
p697
F1.0
s(lp698
g31
atp699
a(S'von'
p700
(dp701
S'NOUN'
p702
F0.000233
sS'ADP'
p703
F0.999767
s(lp704
g38
atp705
a(S'administrativen'
p706
(dp707
S'ADJ'
p708
F1.0
s(lp709
g51
atp710
a(S'kosten'
p711
(dp712
S'VERB'
p713
F1.0
s(lp714
g45
atp715
a(g53
(dp716
g55
F1.0
s(lp717
g53
atp718
a(S'ohne'
p719
(dp720
S'CONJ'
p721
F0.762253
sS'ADP'
p722
F0.237747
s(lp723
g63
atp724
a(S'die'
p725
(dp726
S'PRON'
p727
F0.763499
sS'DET'
p728
F0.176029
s(lp729
g82
atp730
a(S'kosten'
p731
(dp732
S'VERB'
p733
F1.0
s(lp734
g88
atp735
a(S'f\xc3\xbcr'
p736
(dp737
S'ADP'
p738
F1.0
s(lp739
g320
atp740
a(S'die'
p741
(dp742
S'PRON'
p743
F0.001855
sS'DET'
p744
F0.997668
s(lp745
g95
atp746
a(S'asylbewerber'
p747
(dp748
S'ADJ'
p749
F0.29808
sS'NOUN'
p750
F0.459225
s(lp751
g114
atp752
a(S'selbst'
p753
(dp754
S'ADV'
p755
F0.992661
sS'PRT'
p756
F0.007339
s(lp757
g120
atp758
a(S'zu'
p759
(dp760
S'PRT'
p761
F0.999665
s(lp762
tp763
a(S'ber\xc3\xbccksichtigen'
p764
(dp765
S'VERB'
p766
F1.0
s(lp767
g101
atp768
a(g53
(dp769
g55
F1.0
s(lp770
g53
atp771
a(S'sowohl'
p772
(dp773
S'CONJ'
p774
F1.0
s(lp775
g182
atp776
a(S'f\xc3\xbcr'
p777
(dp778
S'ADP'
p779
F1.0
s(lp780
tp781
a(S'die'
p782
(dp783
S'PRON'
p784
F0.231024
sS'DET'
p785
F0.766207
s(lp786
g350
atp787
a(g53
(dp788
g55
F1.0
s(lp789
tp790
a(S'die'
p791
(dp792
S'PRON'
p793
F0.997048
s(lp794
g136
atp795
a(S'ein'
p796
(dp797
S'NUM'
p798
F0.001452
sS'DET'
p799
F0.998286
s(lp800
g149
atp801
a(S'anrecht'
p802
(dp803
S'ADJ'
p804
F0.022539
sS'NOUN'
p805
F0.967117
s(lp806
g149
atp807
a(S'auf'
p808
(dp809
S'PRT'
p810
F0.002704
sS'ADP'
p811
F0.997288
s(lp812
tp813
a(S'asyl'
p814
(dp815
S'ADJ'
p816
F0.001952
sS'NOUN'
p817
F0.997404
s(lp818
g168
atp819
a(S'haben'
p820
(dp821
S'VERB'
p822
F0.995819
s(lp823
g149
atp824
a(g53
(dp825
g55
F1.0
s(lp826
g155
atp827
a(S'als'
p828
(dp829
S'CONJ'
p830
F0.968261
s(lp831
g174
atp832
a(S'auch'
p833
(dp834
S'ADV'
p835
F1.0
s(lp836
tp837
a(S'die'
p838
(dp839
S'PRON'
p840
F0.511439
sS'DET'
p841
F0.488181
s(lp842
g385
atp843
a(g53
(dp844
g55
F1.0
s(lp845
tp846
a(S'deren'
p847
(dp848
S'PRON'
p849
F0.999234
s(lp850
g188
atp851
a(S'antr\xc3\xa4ge'
p852
(dp853
S'VERB'
p854
F0.065535
sS'NOUN'
p855
F0.934465
s(lp856
g195
atp857
a(S'schlie\xc3\x9flich'
p858
(dp859
S'ADV'
p860
F1.0
s(lp861
g207
atp862
a(S'aus'
p863
(dp864
S'PRT'
p865
F0.00227
sS'ADP'
p866
F0.996442
s(lp867
g220
atp868
a(S'den'
p869
(dp870
S'PRON'
p871
F0.000114
sS'DET'
p872
F0.999884
s(lp873
g417
atp874
a(S'richtigen'
p875
(dp876
S'ADJ'
p877
F1.0
s(lp878
g232
atp879
a(S'oder'
p880
(dp881
S'CONJ'
p882
F1.0
s(lp883
g238
atp884
a(S'falschen'
p885
(dp886
S'ADJ'
p887
F1.0
s(lp888
g250
atp889
a(S'gr\xc3\xbcnden'
p890
(dp891
S'VERB'
p892
F1.0
s(lp893
g256
atp894
a(S'abgelehnt'
p895
(dp896
S'VERB'
p897
F1.0
s(lp898
g213
atp899
a(S'werden'
p900
(dp901
S'VERB'
p902
F0.999996
s(lp903
g201
atp904
a(g55
(dp905
g55
F1.0
s(lp906
g55
atp907
asS'it'
p908
(lp909
(S'nella'
p910
(dp911
S'ADP'
p912
F1.0
s(lp913
g82
atp914
a(S'discussione'
p915
(dp916
S'NOUN'
p917
F1.0
s(lp918
g38
atp919
a(S'odierna'
p920
(dp921
S'ADJ'
p922
F1.0
s(lp923
g75
atp924
a(S'ci'
p925
(dp926
S'ADV'
p927
F0.007035
sS'PRON'
p928
F0.9866090000000001
sS'NOUN'
p929
F0.006357
s(lp930
g7
atp931
a(S'stiamo'
p932
(dp933
S'VERB'
p934
F1.0
s(lp935
g267
atp936
a(S'occupando'
p937
(dp938
S'VERB'
p939
F1.0
s(lp940
g23
atp941
a(S'esclusivamente'
p942
(dp943
S'ADV'
p944
F1.0
s(lp945
g31
atp946
a(S'dei'
p947
(dp948
S'NOUN'
p949
F2e-06
sS'DEF'
p950
F0.021412
sS'ADP'
p951
F0.978586
s(lp952
tp953
a(S'costi'
p954
(dp955
S'VERB'
p956
F0.000709
sS'NOUN'
p957
F0.999291
s(lp958
g45
atp959
a(S'amministrativi'
p960
(dp961
S'ADJ'
p962
F1.0
s(lp963
g51
atp964
a(g53
(dp965
g55
F1.0
s(lp966
g53
atp967
a(S'senza'
p968
(dp969
S'CONJ'
p970
F0.088317
sS'ADP'
p971
F0.911683
s(lp972
g63
atp973
a(S'tenere'
p974
(dp975
S'NOUN'
p976
F0.002581
sS'VERB'
p977
F0.907818
sS'ADJ'
p978
F0.089601
s(lp979
tp980
a(S'conto'
p981
(dp982
S'VERB'
p983
F0.001114
sS'NOUN'
p984
F0.998886
s(lp985
g75
atp986
a(S'dei'
p987
(dp988
S'NOUN'
p989
F2e-06
sS'DEF'
p990
F0.001214
sS'ADP'
p991
F0.998784
s(lp992
g88
atp993
a(S'costi'
p994
(dp995
S'VERB'
p996
F0.0015469999999999998
sS'NOUN'
p997
F0.998452
s(lp998
tp999
a(S'sostenuti'
p1000
(dp1001
S'NOUN'
p1002
F0.020222
sS'VERB'
p1003
F0.782093
sS'ADJ'
p1004
F0.197685
s(lp1005
g88
atp1006
a(S'direttamente'
p1007
(dp1008
S'ADV'
p1009
F1.0
s(lp1010
g120
atp1011
a(S'dai'
p1012
(dp1013
S'VERB'
p1014
F0.0030740000000000003
sS'ADP'
p1015
F0.996926
s(lp1016
g95
atp1017
a(S'richiedenti'
p1018
(dp1019
S'ADJ'
p1020
F0.313809
sS'VERB'
p1021
F0.000726
sS'NOUN'
p1022
F0.685465
s(lp1023
g101
atp1024
a(g53
(dp1025
g55
F1.0
s(lp1026
g53
atp1027
a(S'sia'
p1028
(dp1029
S'CONJ'
p1030
F0.991445
sS'VERB'
p1031
F0.008554
s(lp1032
g182
atp1033
a(S'quelli'
p1034
(dp1035
S'PRON'
p1036
F1.0
s(lp1037
g350
atp1038
a(S'che'
p1039
(dp1040
S'PRON'
p1041
F0.998575
sS'CONJ'
p1042
F0.001189
sS'ADJ'
p1043
F0.000236
s(lp1044
g136
atp1045
a(S'hanno'
p1046
(dp1047
S'VERB'
p1048
F1.0
s(lp1049
tp1050
a(S'diritto'
p1051
(dp1052
S'NOUN'
p1053
F0.230106
sS'ADJ'
p1054
F0.769894
s(lp1055
g149
atp1056
a(S"all'"
p1057
(dp1058
S'ADJ'
p1059
F0.009958
sS'VERB'
p1060
F0.001594
sS'NOUN'
p1061
F0.988448
s(lp1062
g155
atp1063
a(S'asilo'
p1064
(dp1065
S'NOUN'
p1066
F1.0
s(lp1067
g168
atp1068
a(g53
(dp1069
g55
F1.0
s(lp1070
tp1071
a(S'sia'
p1072
(dp1073
S'CONJ'
p1074
F0.991445
sS'VERB'
p1075
F0.008554
s(lp1076
g174
atp1077
a(S'quelli'
p1078
(dp1079
S'PRON'
p1080
F1.0
s(lp1081
g385
atp1082
a(S'cui'
p1083
(dp1084
S'PRON'
p1085
F1.0
s(lp1086
g188
atp1087
a(S'alla'
p1088
(dp1089
S'ADP'
p1090
F1.0
s(lp1091
tp1092
a(S'fine'
p1093
(dp1094
S'ADJ'
p1095
F0.014574
sS'NOUN'
p1096
F0.985426
s(lp1097
g207
atp1098
a(S'non'
p1099
(dp1100
S'ADV'
p1101
F1.0
s(lp1102
tp1103
a(S'viene'
p1104
(dp1105
S'VERB'
p1106
F1.0
s(lp1107
g213
atp1108
a(S'riconosciuto'
p1109
(dp1110
S'VERB'
p1111
F1.0
s(lp1112
tp1113
a(S'tale'
p1114
(dp1115
S'PRON'
p1116
F0.99728
sS'CONJ'
p1117
F0.002621
sS'NOUN'
p1118
F9.9e-05
s(lp1119
g417
atp1120
a(S'diritto'
p1121
(dp1122
S'ADJ'
p1123
F0.017217
sS'NOUN'
p1124
F0.982783
s(lp1125
g232
atp1126
a(S'per'
p1127
(dp1128
S'CONJ'
p1129
F0.00481
sS'ADP'
p1130
F0.99519
s(lp1131
g220
atp1132
a(S'motivi'
p1133
(dp1134
S'VERB'
p1135
F0.00528
sS'NOUN'
p1136
F0.994721
s(lp1137
tp1138
a(S'pi\xc3\xb9'
p1139
(dp1140
S'ADV'
p1141
F0.961582
sS'NOUN'
p1142
F6e-05
sS'ADJ'
p1143
F0.038291
sS'ADP'
p1144
F6.6e-05
s(lp1145
tp1146
a(S'o'
p1147
(dp1148
S'X'
p1149
F8e-06
sS'CONJ'
p1150
F0.999992
s(lp1151
g238
atp1152
a(S'meno'
p1153
(dp1154
S'ADV'
p1155
F0.99769
sS'NOUN'
p1156
F2.2e-05
sS'VERB'
p1157
F0.001436
sS'ADJ'
p1158
F0.000131
sS'ADP'
p1159
F0.000721
s(lp1160
g250
atp1161
a(S'fondati'
p1162
(dp1163
S'VERB'
p1164
F0.600539
sS'ADJ'
p1165
F0.399461
s(lp1166
g256
atp1167
a(g55
(dp1168
g55
F1.0
s(lp1169
g55
atp1170
asS'sk'
p1171
(lp1172
(S'hovor\xc3\xadme'
p1173
(dp1174
S'VERB'
p1175
F1.0
s(lp1176
g23
atp1177
a(S'iba'
p1178
(dp1179
g1149
F0.995782
sS'CONJ'
p1180
F0.004218
s(lp1181
g31
atp1182
a(g1147
(dp1183
g1149
F0.000154
sS'CONJ'
p1184
F9e-06
sS'NOUN'
p1185
F1.6000000000000003e-05
sS'ADP'
p1186
F0.99982
s(lp1187
g38
atp1188
a(S'administrat\xc3\xadvnych'
p1189
(dp1190
S'ADJ'
p1191
F1.0
s(lp1192
g51
atp1193
a(S'n\xc3\xa1kladoch'
p1194
(dp1195
S'NOUN'
p1196
F1.0
s(lp1197
g45
atp1198
a(S'bez'
p1199
(dp1200
g1149
F3e-06
sS'ADP'
p1201
F0.999997
s(lp1202
g63
atp1203
a(S'toho'
p1204
(dp1205
S'PRON'
p1206
F0.99983
sg1149
F0.00017
s(lp1207
tp1208
a(g53
(dp1209
g55
F1.0
s(lp1210
g53
atp1211
a(S'aby'
p1212
(dp1213
g1149
F6.699999999999999e-05
sS'CONJ'
p1214
F0.999934
s(lp1215
g63
atp1216
a(S'sme'
p1217
(dp1218
g1149
F0.0
sS'VERB'
p1219
F1.0
s(lp1220
g7
atp1221
a(S'brali'
p1222
(dp1223
S'VERB'
p1224
F1.0
s(lp1225
tp1226
a(S'do'
p1227
(dp1228
S'PRON'
p1229
F4.9e-05
sS'ADP'
p1230
F0.999929
sg1149
F2.1e-05
s(lp1231
g320
atp1232
a(S'\xc3\xbavahy'
p1233
(dp1234
S'NOUN'
p1235
F1.0
s(lp1236
g75
atp1237
a(S'n\xc3\xa1klady'
p1238
(dp1239
S'NOUN'
p1240
F1.0
s(lp1241
g88
atp1242
a(S'samotn\xc3\xbdch'
p1243
(dp1244
S'ADJ'
p1245
F1.0
s(lp1246
g120
atp1247
a(S'\xc5\xbeiadate\xc4\xbeov'
p1248
(dp1249
S'NOUN'
p1250
F1.0
s(lp1251
tp1252
a(g1147
(dp1253
g1149
F0.000223
sS'CONJ'
p1254
F5.9e-05
sS'NOUN'
p1255
F7e-06
sS'ADP'
p1256
F0.99971
s(lp1257
g114
atp1258
a(S'azyl'
p1259
(dp1260
S'NOUN'
p1261
F1.0
s(lp1262
g101
atp1263
a(g53
(dp1264
g55
F1.0
s(lp1265
g53
atp1266
a(S'medzi'
p1267
(dp1268
S'NOUN'
p1269
F0.000286
sS'ADP'
p1270
F0.999714
s(lp1271
g350
atp1272
a(S'ktor\xc3\xbdch'
p1273
(dp1274
S'PRON'
p1275
F1.0
s(lp1276
g136
atp1277
a(S'patria'
p1278
(dp1279
S'VERB'
p1280
F1.0
s(lp1281
g360
atp1282
a(S'rovnako'
p1283
(dp1284
S'ADV'
p1285
F0.933053
sg1149
F0.066947
s(lp1286
tp1287
a(S't\xc3\xad'
p1288
(dp1289
S'PRON'
p1290
F1.0
s(lp1291
tp1292
a(g53
(dp1293
g55
F1.0
s(lp1294
tp1295
a(S'ktor\xc3\xad'
p1296
(dp1297
S'PRON'
p1298
F1.0
s(lp1299
g350
atp1300
a(S'na'
p1301
(dp1302
g1149
F2.3e-05
sS'CONJ'
p1303
F9e-06
sS'ADP'
p1304
F0.999962
sS'PRT'
p1305
F6e-06
s(lp1306
g155
atp1307
a(S'azyl'
p1308
(dp1309
S'NOUN'
p1310
F1.0
s(lp1311
g168
atp1312
a(S'maj\xc3\xba'
p1313
(dp1314
S'VERB'
p1315
F1.0
s(lp1316
g149
atp1317
a(S'opr\xc3\xa1vnen\xc3\xbd'
p1318
(dp1319
S'VERB'
p1320
F1.0
s(lp1321
tp1322
a(S'n\xc3\xa1rok'
p1323
(dp1324
S'NOUN'
p1325
F1.0
s(lp1326
g149
atp1327
a(g53
(dp1328
g55
F1.0
s(lp1329
tp1330
a(S'ako'
p1331
(dp1332
S'PRON'
p1333
F0.025679
sS'CONJ'
p1334
F0.974187
sg1149
F0.000134
s(lp1335
g182
atp1336
a(S'aj'
p1337
(dp1338
g1149
F0.588595
sS'CONJ'
p1339
F0.411405
s(lp1340
g174
atp1341
a(S't\xc3\xad'
p1342
(dp1343
S'PRON'
p1344
F1.0
s(lp1345
g385
atp1346
a(g53
(dp1347
g55
F1.0
s(lp1348
tp1349
a(S'ktor\xc3\xbdch'
p1350
(dp1351
S'PRON'
p1352
F1.0
s(lp1353
g188
atp1354
a(S'\xc5\xbeiados\xc5\xa5'
p1355
(dp1356
S'NOUN'
p1357
F1.0
s(lp1358
g195
atp1359
a(S'je'
p1360
(dp1361
g1149
F0.000285
sS'VERB'
p1362
F0.999686
sS'PRON'
p1363
F2.9e-05
s(lp1364
g201
atp1365
a(S'napokon'
p1366
(dp1367
S'ADV'
p1368
F0.559467
sg1149
F0.440533
s(lp1369
g207
atp1370
a(S'pr\xc3\xa1vom'
p1371
(dp1372
S'ADV'
p1373
F0.680484
sS'NOUN'
p1374
F0.319516
s(lp1375
g232
atp1376
a(S'\xc4\x8di'
p1377
(dp1378
g1149
F0.0055980000000000005
sS'CONJ'
p1379
F0.994401
s(lp1380
g238
atp1381
a(S'nepr\xc3\xa1vom'
p1382
(dp1383
S'ADV'
p1384
F0.991314
sS'NOUN'
p1385
F0.008686
s(lp1386
g250
atp1387
a(S'zamietnut\xc3\xa1'
p1388
(dp1389
S'NOUN'
p1390
F0.000205
sS'VERB'
p1391
F0.9837859999999998
sS'ADJ'
p1392
F0.01601
s(lp1393
g256
atp1394
a(g55
(dp1395
g55
F1.0
s(lp1396
g55
atp1397
asS'pl'
p1398
(lp1399
(S'm\xc3\xb3wimy'
p1400
(dp1401
S'VERB'
p1402
F1.0
s(lp1403
g23
atp1404
a(S'tylko'
p1405
(dp1406
S'PRT'
p1407
F0.927743
sS'CONJ'
p1408
F0.072257
s(lp1409
g31
atp1410
a(g1147
(dp1411
g1149
F0.000244
sS'VERB'
p1412
F2e-06
sS'NOUN'
p1413
F0.0
sS'ADP'
p1414
F0.999749
sS'PRT'
p1415
F4e-06
s(lp1416
g38
atp1417
a(S'kosztach'
p1418
(dp1419
S'NOUN'
p1420
F1.0
s(lp1421
tp1422
a(S'administracyjnych'
p1423
(dp1424
S'ADJ'
p1425
F1.0
s(lp1426
g51
atp1427
a(S'nie'
p1428
(dp1429
S'ADV'
p1430
F3.9e-05
sS'PRT'
p1431
F0.947974
sS'CONJ'
p1432
F0.051762
sS'NOUN'
p1433
F5e-06
sS'PRON'
p1434
F0.000219
s(lp1435
g63
atp1436
a(S'licz\xc4\x85c'
p1437
(dp1438
S'VERB'
p1439
F1.0
s(lp1440
g75
atp1441
a(S'koszt\xc3\xb3w'
p1442
(dp1443
S'NOUN'
p1444
F1.0
s(lp1445
g88
atp1446
a(g53
(dp1447
g1149
F0.0
sg55
F1.0
s(lp1448
g53
atp1449
a(S'jakie'
p1450
(dp1451
S'ADJ'
p1452
F0.9999999999999999
s(lp1453
g95
atp1454
a(S'ponosz\xc4\x85'
p1455
(dp1456
S'VERB'
p1457
F1.0
s(lp1458
g45
atp1459
a(S'same'
p1460
(dp1461
S'ADJ'
p1462
F1.0000010000000001
s(lp1463
g120
atp1464
a(S'osoby'
p1465
(dp1466
S'NOUN'
p1467
F1.0
s(lp1468
g101
atp1469
a(S'ubiegaj\xc4\x85ce'
p1470
(dp1471
S'ADV'
p1472
F0.000692
sS'NOUN'
p1473
F0.0018519999999999997
sS'VERB'
p1474
F0.9700389999999999
sS'ADJ'
p1475
F0.027413999999999997
s(lp1476
tp1477
a(S'si\xc4\x99'
p1478
(dp1479
S'PRT'
p1480
F1.0
s(lp1481
tp1482
a(g1147
(dp1483
g1149
F0.002566
sS'VERB'
p1484
F0.000215
sS'NOUN'
p1485
F8.000000000000001e-06
sS'ADP'
p1486
F0.997192
sS'PRT'
p1487
F1.8e-05
s(lp1488
g101
atp1489
a(S'azyl'
p1490
(dp1491
S'NOUN'
p1492
F1.0
s(lp1493
g114
atp1494
a(g53
(dp1495
g1149
F0.0
sg55
F1.0
s(lp1496
g53
atp1497
a(S'zar\xc3\xb3wno'
p1498
(dp1499
S'ADV'
p1500
F0.006609
sS'CONJ'
p1501
F0.993391
s(lp1502
tp1503
a(S'te'
p1504
(dp1505
S'NOUN'
p1506
F0.007091
sS'ADJ'
p1507
F0.9914959999999999
sg1149
F0.001413
s(lp1508
g350
atp1509
a(g53
(dp1510
g1149
F0.0
sg55
F1.0
s(lp1511
tp1512
a(S'kt\xc3\xb3rym'
p1513
(dp1514
S'ADJ'
p1515
F1.000002
s(lp1516
g136
atp1517
a(S'prawo'
p1518
(dp1519
S'ADV'
p1520
F0.002257
sS'ADJ'
p1521
F0.054506
sS'NOUN'
p1522
F0.943237
s(lp1523
tp1524
a(S'do'
p1525
(dp1526
g1149
F0.0
sS'NOUN'
p1527
F2e-06
sS'ADP'
p1528
F0.9999979999999999
s(lp1529
g155
atp1530
a(S'azylu'
p1531
(dp1532
S'NOUN'
p1533
F1.0
s(lp1534
g168
atp1535
a(S'przys\xc5\x82uguje'
p1536
(dp1537
S'VERB'
p1538
F1.0
s(lp1539
g149
atp1540
a(g53
(dp1541
g1149
F0.0
sg55
F1.0
s(lp1542
tp1543
a(S'jak'
p1544
(dp1545
S'ADV'
p1546
F0.848617
sS'PRT'
p1547
F0.000955
sS'CONJ'
p1548
F0.12883399999999998
sS'ADP'
p1549
F0.021517
sS'PRON'
p1550
F7.8e-05
s(lp1551
g182
atp1552
a(S'i'
p1553
(dp1554
S'PRT'
p1555
F0.0082
sS'CONJ'
p1556
F0.991703
sS'NOUN'
p1557
F1.1e-05
sg1149
F1.2e-05
sS'PRON'
p1558
F7.4e-05
s(lp1559
g174
atp1560
a(S'te'
p1561
(dp1562
S'NOUN'
p1563
F0.007109
sS'ADJ'
p1564
F0.991437
sg1149
F0.001454
s(lp1565
g385
atp1566
a(g53
(dp1567
g1149
F0.0
sg55
F1.0
s(lp1568
tp1569
a(S'kt\xc3\xb3rych'
p1570
(dp1571
S'ADJ'
p1572
F0.9999979999999999
s(lp1573
g188
atp1574
a(S'wnioski'
p1575
(dp1576
S'NOUN'
p1577
F1.0
s(lp1578
g195
atp1579
a(S's\xc4\x85'
p1580
(dp1581
S'VERB'
p1582
F1.0
s(lp1583
g201
atp1584
a(S'ostatecznie'
p1585
(dp1586
S'ADV'
p1587
F1.0
s(lp1588
g207
atp1589
a(S'odrzucane'
p1590
(dp1591
S'VERB'
p1592
F1.0
s(lp1593
g213
atp1594
a(S'ze'
p1595
(dp1596
S'PRT'
p1597
F0.001748
sS'CONJ'
p1598
F6.2e-05
sS'ADP'
p1599
F0.99819
s(lp1600
g220
atp1601
a(S's\xc5\x82usznych'
p1602
(dp1603
S'ADJ'
p1604
F1.0
s(lp1605
g232
atp1606
a(S'lub'
p1607
(dp1608
S'CONJ'
p1609
F1.0
s(lp1610
g238
atp1611
a(S'nies\xc5\x82usznych'
p1612
(dp1613
S'ADJ'
p1614
F1.0
s(lp1615
g250
atp1616
a(S'powod\xc3\xb3w'
p1617
(dp1618
S'NOUN'
p1619
F1.0
s(lp1620
g256
atp1621
a(g55
(dp1622
g55
F1.0
s(lp1623
g55
atp1624
asS'sl'
p1625
(lp1626
(S'govorimo'
p1627
(dp1628
S'VERB'
p1629
F1.0
s(lp1630
g23
atp1631
a(S'le'
p1632
(dp1633
S'PRT'
p1634
F0.999925
sg1149
F7.5e-05
s(lp1635
g31
atp1636
a(g1147
(dp1637
S'NOUN'
p1638
F1e-05
sS'ADP'
p1639
F0.99999
s(lp1640
g38
atp1641
a(S'upravnih'
p1642
(dp1643
S'ADJ'
p1644
F1.0
s(lp1645
g51
atp1646
a(S'stro\xc5\xa1kih'
p1647
(dp1648
S'NOUN'
p1649
F1.0
s(lp1650
g45
atp1651
a(S'in'
p1652
(dp1653
S'ADV'
p1654
F0.000248
sg1149
F2.7e-05
sS'CONJ'
p1655
F0.999669
sS'NOUN'
p1656
F5.6e-05
s(lp1657
g53
atp1658
a(S'pri'
p1659
(dp1660
S'ADP'
p1661
F1.0
s(lp1662
tp1663
a(S'tem'
p1664
(dp1665
S'ADV'
p1666
F6.6e-05
sS'PRON'
p1667
F0.9999319999999999
sS'NOUN'
p1668
F1e-06
s(lp1669
g82
atp1670
a(S'ne'
p1671
(dp1672
S'PRT'
p1673
F0.997906
sS'CONJ'
p1674
F0.002072
sg1149
F2.3000000000000003e-05
s(lp1675
g63
atp1676
a(S'upo\xc5\xa1tevamo'
p1677
(dp1678
S'VERB'
p1679
F1.0
s(lp1680
g75
atp1681
a(S'stro\xc5\xa1kov'
p1682
(dp1683
S'NOUN'
p1684
F1.0
s(lp1685
g88
atp1686
a(S'za'
p1687
(dp1688
S'ADV'
p1689
F5e-05
sg1149
F1e-06
sS'ADP'
p1690
F0.9999499999999999
s(lp1691
g320
atp1692
a(S'same'
p1693
(dp1694
S'ADJ'
p1695
F1.0
s(lp1696
g120
atp1697
a(S'prosilce'
p1698
(dp1699
S'NOUN'
p1700
F1.0
s(lp1701
tp1702
a(S'za'
p1703
(dp1704
S'ADV'
p1705
F6e-06
sg1149
F0.0
sS'ADP'
p1706
F0.9999929999999999
s(lp1707
g114
atp1708
a(S'azil'
p1709
(dp1710
S'NOUN'
p1711
F1.0
s(lp1712
g101
atp1713
a(g53
(dp1714
g55
F1.0
s(lp1715
g53
atp1716
a(S'tiste'
p1717
(dp1718
S'PRON'
p1719
F1.0000010000000001
s(lp1720
g350
atp1721
a(g53
(dp1722
g55
F1.0
s(lp1723
tp1724
a(S'ki'
p1725
(dp1726
S'CONJ'
p1727
F1.0
s(lp1728
g136
atp1729
a(S'so'
p1730
(dp1731
g1149
F1e-06
sS'VERB'
p1732
F0.999999
s(lp1733
g360
atp1734
a(S'upravi\xc4\x8deni'
p1735
(dp1736
S'ADJ'
p1737
F1.0
s(lp1738
tp1739
a(S'do'
p1740
(dp1741
g1149
F1.6e-05
sS'ADP'
p1742
F0.999984
s(lp1743
g149
atp1744
a(S'azila'
p1745
(dp1746
S'NOUN'
p1747
F1.0
s(lp1748
g168
atp1749
a(g53
(dp1750
g55
F1.0
s(lp1751
tp1752
a(S'in'
p1753
(dp1754
S'ADV'
p1755
F0.000196
sg1149
F3e-06
sS'CONJ'
p1756
F0.999791
sS'NOUN'
p1757
F1e-05
s(lp1758
g174
atp1759
a(S'tudi'
p1760
(dp1761
S'PRT'
p1762
F1.0
s(lp1763
tp1764
a(S'tiste'
p1765
(dp1766
S'PRON'
p1767
F1.0
s(lp1768
g385
atp1769
a(g53
(dp1770
g55
F1.0
s(lp1771
tp1772
a(S'katerih'
p1773
(dp1774
S'PRON'
p1775
F1.000001
s(lp1776
g188
atp1777
a(S'pro\xc5\xa1nje'
p1778
(dp1779
S'NOUN'
p1780
F1.0
s(lp1781
g195
atp1782
a(S'se'
p1783
(dp1784
S'PRON'
p1785
F0.999941
sg1149
F5.9e-05
s(lp1786
g201
atp1787
a(S'nazadnje'
p1788
(dp1789
S'ADV'
p1790
F1.0
s(lp1791
g207
atp1792
a(S'zavrnejo'
p1793
(dp1794
S'ADV'
p1795
F0.000417
sS'ADJ'
p1796
F0.00121
sS'VERB'
p1797
F0.9814569999999999
sS'NOUN'
p1798
F0.016916000000000004
s(lp1799
g213
atp1800
a(S'zaradi'
p1801
(dp1802
S'ADP'
p1803
F1.0
s(lp1804
g220
atp1805
a(S'pravih'
p1806
(dp1807
S'NOUN'
p1808
F0.41458
sS'ADJ'
p1809
F0.58542
s(lp1810
g232
atp1811
a(S'ali'
p1812
(dp1813
S'ADV'
p1814
F0.021622
sS'CONJ'
p1815
F0.978378
s(lp1816
g238
atp1817
a(S'napa\xc4\x8dnih'
p1818
(dp1819
S'ADJ'
p1820
F1.0
s(lp1821
g250
atp1822
a(S'razlogov'
p1823
(dp1824
S'NOUN'
p1825
F1.0
s(lp1826
g256
atp1827
a(g55
(dp1828
g55
F1.0
s(lp1829
g55
atp1830
asS'es'
p1831
(lp1832
(S'solo'
p1833
(dp1834
S'ADV'
p1835
F0.923875
sS'NOUN'
p1836
F0.018835
sS'ADJ'
p1837
F0.05729
s(lp1838
g31
atp1839
a(S'hablamos'
p1840
(dp1841
S'VERB'
p1842
F1.0
s(lp1843
g23
atp1844
a(S'de'
p1845
(dp1846
g1149
F1.3e-05
sS'CONJ'
p1847
F0.000682
sS'ADP'
p1848
F0.999305
s(lp1849
g38
atp1850
a(S'costes'
p1851
(dp1852
S'NOUN'
p1853
F1.0
s(lp1854
g45
atp1855
a(S'administrativos'
p1856
(dp1857
S'ADJ'
p1858
F1.0
s(lp1859
g51
atp1860
a(S'sin'
p1861
(dp1862
S'ADP'
p1863
F1.0
s(lp1864
g63
atp1865
a(S'contar'
p1866
(dp1867
S'VERB'
p1868
F1.0
s(lp1869
g75
atp1870
a(S'los'
p1871
(dp1872
S'PRON'
p1873
F3e-06
sS'DET'
p1874
F0.999997
s(lp1875
g82
atp1876
a(S'costes'
p1877
(dp1878
S'NOUN'
p1879
F1.0
s(lp1880
g88
atp1881
a(S'para'
p1882
(dp1883
S'CONJ'
p1884
F0.000662
sS'ADP'
p1885
F0.999338
s(lp1886
g320
atp1887
a(S'los'
p1888
(dp1889
S'PRON'
p1890
F0.0
sS'DET'
p1891
F1.0
s(lp1892
g95
atp1893
a(S'propios'
p1894
(dp1895
S'ADJ'
p1896
F1.0
s(lp1897
g120
atp1898
a(S'solicitantes'
p1899
(dp1900
S'NOUN'
p1901
F1.0
s(lp1902
g101
atp1903
a(S'de'
p1904
(dp1905
g1149
F0.00032
sS'CONJ'
p1906
F0.000547
sS'ADP'
p1907
F0.999133
s(lp1908
tp1909
a(S'asilo'
p1910
(dp1911
S'VERB'
p1912
F0.016015
sS'NOUN'
p1913
F0.983985
s(lp1914
g114
atp1915
a(S'tanto'
p1916
(dp1917
S'ADV'
p1918
F0.964075
sS'NOUN'
p1919
F0.000178
sS'ADJ'
p1920
F0.035747
s(lp1921
g182
atp1922
a(S'de'
p1923
(dp1924
g1149
F0.0
sS'CONJ'
p1925
F0.000116
sS'ADP'
p1926
F0.999884
s(lp1927
tp1928
a(S'los'
p1929
(dp1930
S'PRON'
p1931
F0.0
sS'DET'
p1932
F1.0
s(lp1933
g350
atp1934
a(S'que'
p1935
(dp1936
g1149
F2e-06
sS'CONJ'
p1937
F0.999998
s(lp1938
g136
atp1939
a(S'tienen'
p1940
(dp1941
S'VERB'
p1942
F1.0
s(lp1943
tp1944
a(S'derecho'
p1945
(dp1946
S'ADV'
p1947
F0.052394
sS'NOUN'
p1948
F0.31809
sS'ADJ'
p1949
F0.629516
s(lp1950
g149
atp1951
a(S'al'
p1952
(dp1953
S'CONJ'
p1954
F0.002374
sS'ADP'
p1955
F0.997626
s(lp1956
g155
atp1957
a(S'asilo'
p1958
(dp1959
S'VERB'
p1960
F0.000529
sS'NOUN'
p1961
F0.999471
s(lp1962
g168
atp1963
a(S'como'
p1964
(dp1965
S'ADV'
p1966
F0.707638
sS'CONJ'
p1967
F0.29236199999999996
s(lp1968
g174
atp1969
a(S'de'
p1970
(dp1971
g1149
F0.0
sS'CONJ'
p1972
F0.000131
sS'ADP'
p1973
F0.999869
s(lp1974
tp1975
a(S'aquellos'
p1976
(dp1977
S'PRON'
p1978
F1.0
s(lp1979
g385
atp1980
a(S'cuyas'
p1981
(dp1982
S'CONJ'
p1983
F1.0
s(lp1984
g188
atp1985
a(S'solicitudes'
p1986
(dp1987
S'NOUN'
p1988
F1.0
s(lp1989
g195
atp1990
a(S'son'
p1991
(dp1992
S'VERB'
p1993
F0.996843
sS'NOUN'
p1994
F0.003157
s(lp1995
g201
atp1996
a(S'denegadas'
p1997
(dp1998
S'VERB'
p1999
F1.0
s(lp2000
g213
atp2001
a(S'en'
p2002
(dp2003
g1149
F0.0
sS'CONJ'
p2004
F2.3e-05
sS'ADP'
p2005
F0.999977
s(lp2006
g207
atp2007
a(S'\xc3\xbaltima'
p2008
(dp2009
S'ADJ'
p2010
F1.0
s(lp2011
tp2012
a(S'instancia'
p2013
(dp2014
S'NOUN'
p2015
F1.0
s(lp2016
g207
atp2017
a(S'ya'
p2018
(dp2019
S'ADV'
p2020
F1.0
s(lp2021
g220
atp2022
a(S'sea'
p2023
(dp2024
S'VERB'
p2025
F1.0
s(lp2026
tp2027
a(S'por'
p2028
(dp2029
S'ADP'
p2030
F1.0
s(lp2031
g417
atp2032
a(S'motivos'
p2033
(dp2034
S'NOUN'
p2035
F1.0
s(lp2036
g256
atp2037
a(S'correctos'
p2038
(dp2039
S'ADJ'
p2040
F1.0
s(lp2041
g232
atp2042
a(g1147
(dp2043
g1149
F1.2e-05
sS'CONJ'
p2044
F0.999988
s(lp2045
g238
atp2046
a(S'no'
p2047
(dp2048
S'ADV'
p2049
F0.999998
sg1149
F2e-06
s(lp2050
g250
atp2051
a(g55
(dp2052
g55
F1.0
s(lp2053
g55
atp2054
as.