(dp0
S'fr'
p1
(lp2
(S'je'
p3
(dp4
S'PRON'
p5
F1.0
s(lp6
S'i'
p7
atp8
a(S'sais'
p9
(dp10
S'VERB'
p11
F1.0
s(lp12
S'know'
p13
atp14
a(S'que'
p15
(dp16
S'ADV'
p17
F0.025348
sS'PRON'
p18
F0.118513
sS'CONJ'
p19
F0.856139
s(lp20
S'you'
p21
atp22
a(S'vous'
p23
(dp24
S'PRON'
p25
F1.0
s(lp26
tp27
a(S'avez'
p28
(dp29
S'VERB'
p30
F1.0
s(lp31
g21
atp32
a(S'r\xc3\xa9cemment'
p33
(dp34
S'ADV'
p35
F1.0
s(lp36
S'recently'
p37
atp38
a(S'annonc\xc3\xa9'
p39
(dp40
S'VERB'
p41
F1.0
s(lp42
S'announced'
p43
atp44
a(S'un'
p45
(dp46
S'NOUN'
p47
F7.1e-05
sS'NUM'
p48
F0.066189
sS'DET'
p49
F0.93374
s(lp50
S'an'
p51
atp52
a(S'programme'
p53
(dp54
S'VERB'
p55
F0.000264
sS'NOUN'
p56
F0.999736
s(lp57
S'programme'
p58
atp59
a(S'ambitieux'
p60
(dp61
S'NOUN'
p62
F0.015655
sS'ADJ'
p63
F0.984345
s(lp64
S'ambitious'
p65
atp66
a(S'pour'
p67
(dp68
S'CONJ'
p69
F0.207886
sS'ADP'
p70
F0.792114
s(lp71
S'to'
p72
atp73
a(S'investir'
p74
(dp75
S'VERB'
p76
F1.0
s(lp77
S'invest'
p78
atp79
a(S'500'
p80
(dp81
S'X'
p82
F0.0
sS'NUM'
p83
F1.0
s(lp84
S'500'
p85
atp86
a(S'millions'
p87
(dp88
S'NOUN'
p89
F1.0
s(lp90
S'million'
p91
atp92
a(S"d'"
p93
(dp94
S'NOUN'
p95
F0.032441
sS'VERB'
p96
F0.694014
sS'ADJ'
p97
F0.273544
s(lp98
tp99
a(S'euros'
p100
(dp101
S'NOUN'
p102
F1.0
s(lp103
S'eur'
p104
atp105
a(S'dans'
p106
(dp107
S'NOUN'
p108
F6e-06
sS'ADP'
p109
F0.999994
s(lp110
S'in'
p111
atp112
a(S'la'
p113
(dp114
S'PRON'
p115
F1.2e-05
sS'DET'
p116
F0.999988
sS'NOUN'
p117
F0.0
s(lp118
tp119
a(S'technologie'
p120
(dp121
S'NOUN'
p122
F1.0
s(lp123
S'technology'
p124
atp125
a(S'des'
p126
(dp127
S'DET'
p128
F2.2e-05
sS'ADP'
p129
F0.999978
s(lp130
tp131
a(S'moteurs'
p132
(dp133
S'ADJ'
p134
F0.059636
sS'NOUN'
p135
F0.940364
s(lp136
S'hydrogen'
p137
atp138
a(S'\xc3\xa0'
p139
(dp140
S'ADP'
p141
F1.0
s(lp142
tp143
a(S'hydrog\xc3\xa8ne'
p144
(dp145
S'VERB'
p146
F0.00055
sS'NOUN'
p147
F0.99945
s(lp148
g137
atp149
a(S'.'
p150
(dp151
g150
F1.0
s(lp152
g150
atp153
asS'en'
p154
(lp155
(g7
(dp156
g82
F0.003311
sS'NOUN'
p157
F0.996689
s(lp158
g7
atp159
a(g13
(dp160
S'VERB'
p161
F1.0
s(lp162
g13
atp163
a(g21
(dp164
S'PRON'
p165
F1.0
s(lp166
g21
atp167
a(g37
(dp168
S'ADV'
p169
F1.0
s(lp170
g37
atp171
a(g43
(dp172
S'VERB'
p173
F0.999149
sS'ADJ'
p174
F0.000851
s(lp175
g43
atp176
a(g51
(dp177
S'DET'
p178
F1.0
s(lp179
g51
atp180
a(g65
(dp181
S'ADJ'
p182
F1.0
s(lp183
g65
atp184
a(g58
(dp185
S'VERB'
p186
F0.0050349999999999995
sS'NOUN'
p187
F0.994965
s(lp188
g58
atp189
a(g72
(dp190
S'ADV'
p191
F0.0
sS'PRT'
p192
F1.0
sS'ADP'
p193
F0.0
s(lp194
g72
atp195
a(g78
(dp196
S'VERB'
p197
F1.0
s(lp198
g78
atp199
a(g104
(dp200
S'ADJ'
p201
F0.061791
sS'VERB'
p202
F0.001226
sS'NOUN'
p203
F0.9369839999999999
s(lp204
g104
atp205
a(g85
(dp206
S'ADV'
p207
F0.0007
sS'ADJ'
p208
F0.000127
sS'NUM'
p209
F0.997232
sS'NOUN'
p210
F0.001941
sg82
F0.0
s(lp211
g85
atp212
a(g91
(dp213
S'NUM'
p214
F0.999871
sS'NOUN'
p215
F0.000129
s(lp216
g91
atp217
a(g111
(dp218
S'ADV'
p219
F0.000177
sS'PRT'
p220
F0.001632
sS'ADP'
p221
F0.998192
s(lp222
g111
atp223
a(g137
(dp224
S'NOUN'
p225
F1.0
s(lp226
g137
atp227
a(g124
(dp228
S'NOUN'
p229
F1.0
s(lp230
g124
atp231
a(g150
(dp232
g150
F1.0
s(lp233
g150
atp234
asS'nl'
p235
(lp236
(S'ik'
p237
(dp238
S'PRON'
p239
F0.99998
sS'NOUN'
p240
F2e-05
s(lp241
g7
atp242
a(S'weet'
p243
(dp244
S'VERB'
p245
F0.996641
sS'NOUN'
p246
F0.00336
s(lp247
g13
atp248
a(S'dat'
p249
(dp250
S'PRON'
p251
F0.002709
sS'CONJ'
p252
F0.997291
s(lp253
tp254
a(S'u'
p255
(dp256
S'PRON'
p257
F0.9999709999999999
sS'NOUN'
p258
F2.9e-05
s(lp259
g21
atp260
a(S'onlangs'
p261
(dp262
S'ADV'
p263
F1.0
s(lp264
g37
atp265
a(S'een'
p266
(dp267
S'ADJ'
p268
F8e-06
sS'PRON'
p269
F0.000754
sS'NUM'
p270
F2e-06
sS'DET'
p271
F0.999236
s(lp272
g51
atp273
a(S'ambitieus'
p274
(dp275
S'ADJ'
p276
F1.0
s(lp277
g65
atp278
a(S'programma'
p279
(dp280
S'NOUN'
p281
F1.0
s(lp282
g58
atp283
a(S'hebt'
p284
(dp285
S'VERB'
p286
F1.0
s(lp287
tp288
a(S'aangekondigd'
p289
(dp290
S'VERB'
p291
F1.0
s(lp292
g43
atp293
a(S':'
p294
(dp295
g150
F1.0
s(lp296
tp297
a(S'500'
p298
(dp299
S'NUM'
p300
F1.0
s(lp301
g85
atp302
a(S'miljoen'
p303
(dp304
S'NUM'
p305
F0.999812
sS'NOUN'
p306
F0.000188
s(lp307
g91
atp308
a(S'euro'
p309
(dp310
S'NOUN'
p311
F1.0
s(lp312
g104
atp313
a(S'investeren'
p314
(dp315
S'VERB'
p316
F0.995683
sS'NOUN'
p317
F0.004317
s(lp318
g78
atp319
a(S'in'
p320
(dp321
S'ADV'
p322
F0.001833
sS'VERB'
p323
F0.0
sS'ADP'
p324
F0.998167
s(lp325
g111
atp326
a(S'waterstoftechnologie'
p327
(dp328
S'NOUN'
p329
F1.0
s(lp330
g137
atp331
a(g150
(dp332
g150
F1.0
s(lp333
g150
atp334
asS'de'
p335
(lp336
(S'ich'
p337
(dp338
S'PRON'
p339
F1.0
s(lp340
g7
atp341
a(S'wei\xc3\x9f'
p342
(dp343
S'VERB'
p344
F0.920708
sS'ADJ'
p345
F0.051711
s(lp346
g13
atp347
a(S','
p348
(dp349
g150
F1.0
s(lp350
tp351
a(S'sie'
p352
(dp353
S'PRON'
p354
F1.0
s(lp355
g21
atp356
a(S'haben'
p357
(dp358
S'VERB'
p359
F0.9998630000000001
s(lp360
g37
atp361
a(S'k\xc3\xbcrzlich'
p362
(dp363
S'ADJ'
p364
F1.0
s(lp365
tp366
a(S'ein'
p367
(dp368
S'PRT'
p369
F0.006159
sS'DET'
p370
F0.992536
s(lp371
g51
atp372
a(S'ehrgeiziges'
p373
(dp374
S'ADJ'
p375
F1.0
s(lp376
g65
atp377
a(S'programm'
p378
(dp379
S'VERB'
p380
F1.8e-05
sS'NOUN'
p381
F0.999955
s(lp382
g58
atp383
a(S'\xc3\xbcber'
p384
(dp385
S'PRT'
p386
F0.000267
sS'ADP'
p387
F0.999733
s(lp388
g72
atp389
a(S'investitionen'
p390
(dp391
S'ADJ'
p392
F0.000407
sS'NOUN'
p393
F0.999446
s(lp394
g78
atp395
a(S'in'
p396
(dp397
S'ADP'
p398
F1.0
s(lp399
g37
atp400
a(S'h\xc3\xb6he'
p401
(dp402
S'ADJ'
p403
F0.04189
sS'NOUN'
p404
F0.936713
s(lp405
g104
atp406
a(S'von'
p407
(dp408
S'NOUN'
p409
F0.000386
sS'ADP'
p410
F0.999614
s(lp411
tp412
a(S'500'
p413
(dp414
S'NUM'
p415
F1.0
s(lp416
g85
atp417
a(S'millionen'
p418
(dp419
S'NOUN'
p420
F0.478139
sS'ADJ'
p421
F0.517406
s(lp422
g91
atp423
a(S'euro'
p424
(dp425
S'NOUN'
p426
F0.989081
s(lp427
g104
atp428
a(S'in'
p429
(dp430
S'ADP'
p431
F1.0
s(lp432
g111
atp433
a(S'die'
p434
(dp435
S'PRON'
p436
F0.000283
sS'DET'
p437
F0.999642
s(lp438
g124
atp439
a(S'wasserstofftechnologie'
p440
(dp441
S'ADJ'
p442
F0.038969
sS'NOUN'
p443
F0.945765
s(lp444
g137
atp445
a(S'angek\xc3\xbcndigt'
p446
(dp447
S'VERB'
p448
F0.994748
sS'ADJ'
p449
F0.005252
s(lp450
g43
atp451
a(g150
(dp452
g150
F1.0
s(lp453
g150
atp454
asS'it'
p455
(lp456
(S'so'
p457
(dp458
S'VERB'
p459
F1.0
s(lp460
g13
atp461
a(S'che'
p462
(dp463
S'PRON'
p464
F0.95894
sS'CONJ'
p465
F0.035401
sS'ADJ'
p466
F0.005659
s(lp467
g21
atp468
a(S'di'
p469
(dp470
S'CONJ'
p471
F1e-06
sS'ADP'
p472
F0.999999
s(lp473
tp474
a(S'recente'
p475
(dp476
S'VERB'
p477
F0.004477
sS'ADJ'
p478
F0.995523
s(lp479
g37
atp480
a(S'ha'
p481
(dp482
S'VERB'
p483
F1.0
s(lp484
tp485
a(S'annunciato'
p486
(dp487
S'VERB'
p488
F1.0
s(lp489
g43
atp490
a(S'un'
p491
(dp492
S'PRON'
p493
F0.000199
sS'DEF'
p494
F0.999801
s(lp495
g51
atp496
a(S'programma'
p497
(dp498
S'VERB'
p499
F8e-06
sS'NOUN'
p500
F0.999992
s(lp501
g58
atp502
a(S'ambizioso'
p503
(dp504
S'NOUN'
p505
F0.016345
sS'ADJ'
p506
F0.983655
s(lp507
g65
atp508
a(g294
(dp509
g150
F1.0
s(lp510
g72
atp511
a(S'investire'
p512
(dp513
S'VERB'
p514
F1.0
s(lp515
g78
atp516
a(S'500'
p517
(dp518
S'NUM'
p519
F0.884352
sg150
F0.115648
s(lp520
g85
atp521
a(S'milioni'
p522
(dp523
S'NOUN'
p524
F1.0
s(lp525
tp526
a(S'di'
p527
(dp528
S'CONJ'
p529
F9e-06
sS'ADP'
p530
F0.999991
s(lp531
g91
atp532
a(S'euro'
p533
(dp534
S'ADJ'
p535
F0.486787
sS'NOUN'
p536
F0.513213
s(lp537
g104
atp538
a(S'nella'
p539
(dp540
S'ADP'
p541
F1.0
s(lp542
g111
atp543
a(S'tecnologia'
p544
(dp545
S'NOUN'
p546
F1.0
s(lp547
g124
atp548
a(S"dell'"
p549
(dp550
S'ADJ'
p551
F0.040682
sS'VERB'
p552
F0.006560999999999999
sS'NOUN'
p553
F0.952757
s(lp554
tp555
a(S'idrogeno'
p556
(dp557
S'VERB'
p558
F0.000966
sS'NOUN'
p559
F0.999034
s(lp560
g137
atp561
a(g150
(dp562
g150
F1.0
s(lp563
g150
atp564
asS'sk'
p565
(lp566
(S'viem'
p567
(dp568
S'VERB'
p569
F1.0
s(lp570
g13
atp571
a(g348
(dp572
g150
F1.0
s(lp573
tp574
a(S'\xc5\xbee'
p575
(dp576
g82
F0.000689
sS'CONJ'
p577
F0.999311
s(lp578
tp579
a(S'ste'
p580
(dp581
S'NUM'
p582
F7.8e-05
sS'VERB'
p583
F0.999922
s(lp584
g21
atp585
a(S'ned\xc3\xa1vno'
p586
(dp587
S'ADV'
p588
F1.0
s(lp589
g37
atp590
a(S'zverejnili'
p591
(dp592
S'VERB'
p593
F1.0
s(lp594
g43
atp595
a(S'ambici\xc3\xb3zny'
p596
(dp597
S'ADJ'
p598
F1.0
s(lp599
g65
atp600
a(S'program'
p601
(dp602
S'NOUN'
p603
F1.0
s(lp604
g58
atp605
a(S'na'
p606
(dp607
g82
F0.000156
sS'CONJ'
p608
F1.5e-05
sS'ADP'
p609
F0.999826
sS'PRT'
p610
F3e-06
s(lp611
g72
atp612
a(S'investovanie'
p613
(dp614
S'NOUN'
p615
F1.0
s(lp616
g78
atp617
a(S'500'
p618
(dp619
S'NUM'
p620
F1.0
s(lp621
g85
atp622
a(S'mili\xc3\xb3nov'
p623
(dp624
S'NUM'
p625
F0.999926
sS'NOUN'
p626
F7.4e-05
s(lp627
g91
atp628
a(S'eur'
p629
(dp630
S'NOUN'
p631
F1.0
s(lp632
g104
atp633
a(S'do'
p634
(dp635
S'PRON'
p636
F4.3e-05
sS'ADP'
p637
F0.99993
sg82
F2.6000000000000002e-05
s(lp638
g111
atp639
a(S'vod\xc3\xadkovej'
p640
(dp641
S'ADJ'
p642
F1.0
s(lp643
g137
atp644
a(S'technol\xc3\xb3gie'
p645
(dp646
S'NOUN'
p647
F1.0
s(lp648
g124
atp649
a(g150
(dp650
g150
F1.0
s(lp651
g150
atp652
asS'pl'
p653
(lp654
(S'jak'
p655
(dp656
S'ADV'
p657
F0.884865
sS'PRT'
p658
F0.008287
sS'CONJ'
p659
F0.09671
sS'ADP'
p660
F0.002243
sS'PRON'
p661
F0.007895
s(lp662
g7
atp663
a(S'wiem'
p664
(dp665
S'VERB'
p666
F1.0
s(lp667
g13
atp668
a(g348
(dp669
g82
F0.0
sg150
F1.0
s(lp670
tp671
a(S'niedawno'
p672
(dp673
S'ADV'
p674
F1.0
s(lp675
g37
atp676
a(S'og\xc5\x82osili'
p677
(dp678
S'VERB'
p679
F1.0
s(lp680
g43
atp681
a(S'pa\xc5\x84stwo'
p682
(dp683
S'NOUN'
p684
F0.9999990000000001
s(lp685
g21
atp686
a(S'ambitny'
p687
(dp688
S'ADJ'
p689
F1.0
s(lp690
g65
atp691
a(S'program'
p692
(dp693
S'NOUN'
p694
F1.0
s(lp695
g58
atp696
a(S'zainwestowania'
p697
(dp698
S'ADJ'
p699
F0.000131
sS'PRT'
p700
F0.003368
sS'VERB'
p701
F0.6865830000000003
sS'NOUN'
p702
F0.30992000000000003
s(lp703
g78
atp704
a(S'500'
p705
(dp706
S'NUM'
p707
F1.0
s(lp708
g85
atp709
a(S'milion\xc3\xb3w'
p710
(dp711
S'NOUN'
p712
F1.0
s(lp713
g91
atp714
a(S'euro'
p715
(dp716
S'NOUN'
p717
F1.0
s(lp718
g104
atp719
a(S'w'
p720
(dp721
S'ADJ'
p722
F0.0
sg82
F3e-06
sS'NOUN'
p723
F2e-06
sS'ADP'
p724
F0.999995
s(lp725
g111
atp726
a(S'technologi\xc4\x99'
p727
(dp728
S'NOUN'
p729
F1.0
s(lp730
g124
atp731
a(S'nap\xc4\x99du'
p732
(dp733
S'NOUN'
p734
F1.0
s(lp735
tp736
a(S'wodorowego'
p737
(dp738
S'ADV'
p739
F0.000141
sS'NOUN'
p740
F0.0063950000000000005
sS'VERB'
p741
F0.001705
sS'ADJ'
p742
F0.9917579999999999
s(lp743
g137
atp744
a(g150
(dp745
g150
F1.0
s(lp746
g150
atp747
asS'sl'
p748
(lp749
(S'vem'
p750
(dp751
S'VERB'
p752
F1.0
s(lp753
g13
atp754
a(g348
(dp755
g150
F1.0
s(lp756
tp757
a(S'da'
p758
(dp759
S'PRT'
p760
F3e-06
sS'CONJ'
p761
F0.999988
sS'VERB'
p762
F9e-06
sg82
F0.0
s(lp763
tp764
a(S'ste'
p765
(dp766
S'VERB'
p767
F1.0
s(lp768
g21
atp769
a(S'pred'
p770
(dp771
S'ADP'
p772
F1.0
s(lp773
tp774
a(S'kratkim'
p775
(dp776
S'ADJ'
p777
F1.0
s(lp778
g37
atp779
a(S'podprli'
p780
(dp781
S'VERB'
p782
F1.0
s(lp783
g43
atp784
a(S'ambiciozen'
p785
(dp786
S'ADV'
p787
F0.000177
sS'NOUN'
p788
F0.005624
sS'ADJ'
p789
F0.9941859999999999
sg82
F1.3e-05
s(lp790
g65
atp791
a(S'program'
p792
(dp793
S'NOUN'
p794
F1.0
s(lp795
g58
atp796
a(g348
(dp797
g150
F1.0
s(lp798
tp799
a(S'ki'
p800
(dp801
S'CONJ'
p802
F1.0
s(lp803
g72
atp804
a(S'vlaga'
p805
(dp806
S'VERB'
p807
F0.532069
sS'NOUN'
p808
F0.467931
s(lp809
g78
atp810
a(S'500'
p811
(dp812
S'NUM'
p813
F1.0
s(lp814
g85
atp815
a(S'milijonov'
p816
(dp817
S'NOUN'
p818
F1.0
s(lp819
g91
atp820
a(S'eur'
p821
(dp822
S'ADV'
p823
F0.049225
sS'ADJ'
p824
F0.003042
sS'NOUN'
p825
F0.9475880000000002
sg82
F0.000146
s(lp826
g104
atp827
a(S'v'
p828
(dp829
S'ADP'
p830
F1.0
s(lp831
g111
atp832
a(S'tehnologijo'
p833
(dp834
S'NOUN'
p835
F1.0
s(lp836
g124
atp837
a(S'vodika'
p838
(dp839
S'ADV'
p840
F0.000588
sS'ADJ'
p841
F0.004069
sS'VERB'
p842
F0.004537
sS'NOUN'
p843
F0.990806
s(lp844
g137
atp845
a(g150
(dp846
g150
F1.0
s(lp847
g150
atp848
asS'es'
p849
(lp850
(S's\xc3\xa9'
p851
(dp852
S'VERB'
p853
F1.0
s(lp854
g13
atp855
a(S'que'
p856
(dp857
g82
F0.0
sS'CONJ'
p858
F1.0
s(lp859
g7
atp860
a(S'recientemente'
p861
(dp862
S'ADV'
p863
F1.0
s(lp864
g37
atp865
a(S'usted'
p866
(dp867
S'PRON'
p868
F1.0
s(lp869
g21
atp870
a(S'anunci\xc3\xb3'
p871
(dp872
S'VERB'
p873
F1.0
s(lp874
g43
atp875
a(S'un'
p876
(dp877
g82
F1e-05
sS'DET'
p878
F0.99999
s(lp879
g51
atp880
a(S'ambicioso'
p881
(dp882
S'ADJ'
p883
F1.0
s(lp884
g65
atp885
a(S'programa'
p886
(dp887
S'NOUN'
p888
F1.0
s(lp889
g58
atp890
a(S'para'
p891
(dp892
S'CONJ'
p893
F0.952807
sS'ADP'
p894
F0.047193
s(lp895
g72
atp896
a(S'invertir'
p897
(dp898
S'VERB'
p899
F1.0
s(lp900
g78
atp901
a(S'500'
p902
(dp903
g82
F0.186505
sS'NUM'
p904
F0.813495
s(lp905
g85
atp906
a(S'millones'
p907
(dp908
S'NUM'
p909
F1.0
s(lp910
tp911
a(S'de'
p912
(dp913
g82
F6.2e-05
sS'CONJ'
p914
F1.6e-05
sS'ADP'
p915
F0.999921
s(lp916
g104
atp917
a(S'euros'
p918
(dp919
S'NOUN'
p920
F1.0
s(lp921
g91
atp922
a(S'en'
p923
(dp924
g82
F1.8e-05
sS'CONJ'
p925
F1e-05
sS'ADP'
p926
F0.999972
s(lp927
g111
atp928
a(S'tecnolog\xc3\xadas'
p929
(dp930
S'NOUN'
p931
F1.0
s(lp932
g124
atp933
a(S'de'
p934
(dp935
g82
F2.9e-05
sS'CONJ'
p936
F0.000449
sS'ADP'
p937
F0.999522
s(lp938
tp939
a(S'hidr\xc3\xb3geno'
p940
(dp941
S'NOUN'
p942
F1.0
s(lp943
g137
atp944
a(g150
(dp945
g150
F1.0
s(lp946
g150
atp947
as.