(dp0
S'fr'
p1
(lp2
(S'son'
p3
(dp4
S'PRON'
p5
F0.994531
sS'NOUN'
p6
F0.005469
s(lp7
S'the'
p8
atp9
a(S'nouveau'
p10
(dp11
S'NOUN'
p12
F0.010899
sS'ADJ'
p13
F0.989101
s(lp14
S'new'
p15
atp16
a(S'gouvernement'
p17
(dp18
S'NOUN'
p19
F1.0
s(lp20
S'government'
p21
atp22
a(S'a'
p23
(dp24
S'VERB'
p25
F1.0
s(lp26
S'has'
p27
atp28
a(S'd\xc3\xa9montr\xc3\xa9'
p29
(dp30
S'VERB'
p31
F1.0
s(lp32
S'proved'
p33
atp34
a(S"qu'"
p35
(dp36
S'NOUN'
p37
F0.281811
sS'VERB'
p38
F0.341831
sS'ADJ'
p39
F0.376359
s(lp40
tp41
a(S'il'
p42
(dp43
S'PRON'
p44
F1.0
s(lp45
g33
atp46
a(S'pouvait'
p47
(dp48
S'VERB'
p49
F1.0
s(lp50
S'itself'
p51
atp52
a(S'compter'
p53
(dp54
S'VERB'
p55
F1.0
s(lp56
S'have'
p57
atp58
a(S'sur'
p59
(dp60
S'ADP'
p61
F1.0
s(lp62
S'to'
p63
atp64
a(S'une'
p65
(dp66
S'NOUN'
p67
F3.3e-05
sS'NUM'
p68
F0.024773
sS'DET'
p69
F0.975194
s(lp70
g23
atp71
a(S's\xc3\xa9rie'
p72
(dp73
S'VERB'
p74
F0.000244
sS'NOUN'
p75
F0.999756
s(lp76
S'number'
p77
atp78
a(S'de'
p79
(dp80
S'ADP'
p81
F1.0
s(lp82
S'of'
p83
atp84
a(S'ministres'
p85
(dp86
S'NOUN'
p87
F1.0
s(lp88
S'ministers'
p89
atp90
a(S'dynamiques'
p91
(dp92
S'NOUN'
p93
F0.009609
sS'ADJ'
p94
F0.990391
s(lp95
S'dynamic'
p96
atp97
a(S'et'
p98
(dp99
S'CONJ'
p100
F1.0
s(lp101
S'and'
p102
atp103
a(S'ambitieux'
p104
(dp105
S'NOUN'
p106
F0.087008
sS'ADJ'
p107
F0.912992
s(lp108
S'ambitious'
p109
atp110
a(S'.'
p111
(dp112
g111
F1.0
s(lp113
g111
atp114
asS'en'
p115
(lp116
(g8
(dp117
S'NOUN'
p118
F2e-06
sS'DET'
p119
F0.999998
s(lp120
g8
atp121
a(g15
(dp122
S'NOUN'
p123
F5.2e-05
sS'ADJ'
p124
F0.999948
s(lp125
g15
atp126
a(g21
(dp127
S'NOUN'
p128
F1.0
s(lp129
g21
atp130
a(g27
(dp131
S'VERB'
p132
F1.0
s(lp133
g27
atp134
a(g33
(dp135
S'VERB'
p136
F0.99915
sS'ADJ'
p137
F0.00085
s(lp138
g33
atp139
a(g51
(dp140
S'PRON'
p141
F1.0
s(lp142
g51
atp143
a(g63
(dp144
S'ADV'
p145
F5e-06
sS'PRT'
p146
F0.999995
sS'ADP'
p147
F0.0
s(lp148
g63
atp149
a(g57
(dp150
S'VERB'
p151
F1.0
s(lp152
g57
atp153
a(g23
(dp154
S'NOUN'
p155
F0.0
sS'DET'
p156
F1.0
s(lp157
g23
atp158
a(g77
(dp159
S'ADJ'
p160
F0.000161
sS'VERB'
p161
F0.0
sS'NOUN'
p162
F0.999838
s(lp163
g77
atp164
a(g83
(dp165
S'ADP'
p166
F1.0
s(lp167
g83
atp168
a(g96
(dp169
S'NOUN'
p170
F0.18142
sS'ADJ'
p171
F0.81858
s(lp172
g96
atp173
a(g102
(dp174
S'CONJ'
p175
F0.999998
sS'NOUN'
p176
F2e-06
s(lp177
g102
atp178
a(g109
(dp179
S'ADJ'
p180
F1.0
s(lp181
g109
atp182
a(g89
(dp183
S'VERB'
p184
F1.3e-05
sS'NOUN'
p185
F0.999987
s(lp186
g89
atp187
a(g111
(dp188
g111
F1.0
s(lp189
g111
atp190
asS'nl'
p191
(lp192
(S'de'
p193
(dp194
S'DET'
p195
F1.0
s(lp196
g8
atp197
a(S'nieuwe'
p198
(dp199
S'NOUN'
p200
F1.7e-05
sS'ADJ'
p201
F0.999983
s(lp202
g15
atp203
a(S'regering'
p204
(dp205
S'NOUN'
p206
F1.0
s(lp207
g21
atp208
a(S'heeft'
p209
(dp210
S'VERB'
p211
F1.0
s(lp212
g27
atp213
a(S'laten'
p214
(dp215
S'VERB'
p216
F0.999928
sS'NOUN'
p217
F7.2e-05
s(lp218
g33
atp219
a(S'zien'
p220
(dp221
S'VERB'
p222
F0.999893
sS'NOUN'
p223
F0.000107
s(lp224
tp225
a(S','
p226
(dp227
g111
F1.0
s(lp228
tp229
a(S'dat'
p230
(dp231
S'PRON'
p232
F0.10628199999999999
sS'CONJ'
p233
F0.893717
s(lp234
g33
atp235
a(S'er'
p236
(dp237
S'ADV'
p238
F1.0
s(lp239
tp240
a(S'een'
p241
(dp242
S'ADJ'
p243
F1e-06
sS'PRON'
p244
F5e-06
sS'NUM'
p245
F0.0
sS'DET'
p246
F0.999995
s(lp247
g23
atp248
a(S'aantal'
p249
(dp250
S'NOUN'
p251
F1.0
s(lp252
g77
atp253
a(S'dynamische'
p254
(dp255
S'NOUN'
p256
F0.025531
sS'ADJ'
p257
F0.974469
s(lp258
g96
atp259
a(S'en'
p260
(dp261
S'CONJ'
p262
F1.0
s(lp263
g102
atp264
a(S'ambitieuze'
p265
(dp266
S'NOUN'
p267
F6.2e-05
sS'ADJ'
p268
F0.999938
s(lp269
g109
atp270
a(S'ministers'
p271
(dp272
S'NOUN'
p273
F1.0
s(lp274
g89
atp275
a(S'in'
p276
(dp277
S'ADV'
p278
F0.034832
sS'VERB'
p279
F1e-06
sS'ADP'
p280
F0.965167
s(lp281
tp282
a(S'zit'
p283
(dp284
S'VERB'
p285
F0.033175
sS'NOUN'
p286
F0.966825
s(lp287
g57
atp288
a(g111
(dp289
g111
F1.0
s(lp290
g111
atp291
asS'de'
p292
(lp293
(S'die'
p294
(dp295
S'PRON'
p296
F0.004888
sS'DET'
p297
F0.994789
s(lp298
g8
atp299
a(S'neue'
p300
(dp301
S'ADJ'
p302
F1.0
s(lp303
g15
atp304
a(S'regierung'
p305
(dp306
S'ADJ'
p307
F3e-05
sS'NOUN'
p308
F0.999951
s(lp309
g21
atp310
a(S'hat'
p311
(dp312
S'VERB'
p313
F1.0
s(lp314
tp315
a(S'bewiesen'
p316
(dp317
S'VERB'
p318
F1.0
s(lp319
g33
atp320
a(g226
(dp321
g111
F1.0
s(lp322
tp323
a(S'dass'
p324
(dp325
S'CONJ'
p326
F1.0
s(lp327
g63
atp328
a(S'sie'
p329
(dp330
S'PRON'
p331
F1.0
s(lp332
tp333
a(S'\xc3\xbcber'
p334
(dp335
S'PRT'
p336
F0.000459
sS'ADP'
p337
F0.999541
s(lp338
g57
atp339
a(S'einige'
p340
(dp341
S'PRON'
p342
F1.0
s(lp343
g77
atp344
a(S'dynamische'
p345
(dp346
S'ADJ'
p347
F1.0
s(lp348
g96
atp349
a(S'und'
p350
(dp351
S'CONJ'
p352
F1.0
s(lp353
g102
atp354
a(S'ehrgeizige'
p355
(dp356
S'ADJ'
p357
F1.0
s(lp358
g109
atp359
a(S'minister'
p360
(dp361
S'ADJ'
p362
F0.002872
sS'NOUN'
p363
F0.99543
s(lp364
g89
atp365
a(S'verf\xc3\xbcgt'
p366
(dp367
S'VERB'
p368
F0.9777089999999999
s(lp369
g27
atp370
a(g111
(dp371
g111
F1.0
s(lp372
g111
atp373
asS'it'
p374
(lp375
(S'il'
p376
(dp377
S'DET'
p378
F1.0
s(lp379
g8
atp380
a(S'nuovo'
p381
(dp382
S'NOUN'
p383
F0.002571
sS'ADJ'
p384
F0.997429
s(lp385
g15
atp386
a(S'governo'
p387
(dp388
S'VERB'
p389
F0.000384
sS'NOUN'
p390
F0.999616
s(lp391
g21
atp392
a(S'ha'
p393
(dp394
S'VERB'
p395
F1.0
s(lp396
g27
atp397
a(S'dimostrato'
p398
(dp399
S'VERB'
p400
F1.0
s(lp401
g33
atp402
a(S'di'
p403
(dp404
S'CONJ'
p405
F2e-06
sS'ADP'
p406
F0.999998
s(lp407
g63
atp408
a(S'essere'
p409
(dp410
S'VERB'
p411
F0.999858
sS'NOUN'
p412
F0.000142
s(lp413
g51
atp414
a(S'dotato'
p415
(dp416
S'VERB'
p417
F0.986948
sS'ADJ'
p418
F0.013052
s(lp419
g57
atp420
a(S'di'
p421
(dp422
S'CONJ'
p423
F1.2e-05
sS'ADP'
p424
F0.999988
s(lp425
g83
atp426
a(S'alcuni'
p427
(dp428
S'PRON'
p429
F1.0
s(lp430
g77
atp431
a(S'ministri'
p432
(dp433
S'VERB'
p434
F0.005808
sS'NOUN'
p435
F0.994193
s(lp436
g89
atp437
a(S'dinamici'
p438
(dp439
S'ADJ'
p440
F1.0
s(lp441
g96
atp442
a(S'e'
p443
(dp444
S'CONJ'
p445
F1.0
s(lp446
g102
atp447
a(S'ambiziosi'
p448
(dp449
S'NOUN'
p450
F0.083244
sS'ADJ'
p451
F0.916756
s(lp452
g109
atp453
a(g111
(dp454
g111
F1.0
s(lp455
g111
atp456
asS'sk'
p457
(lp458
(S'uk\xc3\xa1zalo'
p459
(dp460
S'VERB'
p461
F1.0
s(lp462
tp463
a(S'sa'
p464
(dp465
S'PRT'
p466
F0.99124
sS'ADP'
p467
F1.5e-05
sS'X'
p468
F0.008744
s(lp469
g51
atp470
a(g226
(dp471
g111
F1.0
s(lp472
tp473
a(S'\xc5\xbee'
p474
(dp475
g468
F0.000496
sS'CONJ'
p476
F0.999504
s(lp477
g33
atp478
a(S'nov\xc3\xa1'
p479
(dp480
S'ADJ'
p481
F1.0
s(lp482
g15
atp483
a(S'vl\xc3\xa1da'
p484
(dp485
S'NOUN'
p486
F1.0
s(lp487
g21
atp488
a(S'm\xc3\xa1'
p489
(dp490
g468
F0.000104
sS'VERB'
p491
F0.999896
s(lp492
g27
atp493
a(S'mno\xc5\xbestvo'
p494
(dp495
S'NOUN'
p496
F1.0
s(lp497
g77
atp498
a(S'dynamick\xc3\xbdch'
p499
(dp500
S'ADJ'
p501
F1.0
s(lp502
g96
atp503
a(g23
(dp504
g468
F0.00047799999999999996
sS'CONJ'
p505
F0.998379
sS'NOUN'
p506
F0.001055
sS'ADP'
p507
F7.2e-05
sS'PRT'
p508
F1.6e-05
s(lp509
g102
atp510
a(S'ambici\xc3\xb3znych'
p511
(dp512
S'ADJ'
p513
F1.0
s(lp514
g109
atp515
a(S'ministrov'
p516
(dp517
S'NOUN'
p518
F1.0
s(lp519
g89
atp520
a(g111
(dp521
g111
F1.0
s(lp522
g111
atp523
asS'pl'
p524
(lp525
(S'nowy'
p526
(dp527
S'ADJ'
p528
F1.0
s(lp529
g15
atp530
a(S'rz\xc4\x85d'
p531
(dp532
S'NOUN'
p533
F1.0
s(lp534
g21
atp535
a(S'pokaza\xc5\x82'
p536
(dp537
S'VERB'
p538
F1.0
s(lp539
tp540
a(g226
(dp541
g468
F0.0
sg111
F1.0
s(lp542
tp543
a(S'\xc5\xbce'
p544
(dp545
S'PRT'
p546
F0.001162
sS'CONJ'
p547
F0.998838
s(lp548
g33
atp549
a(S'ma'
p550
(dp551
S'VERB'
p552
F0.999084
sS'NOUN'
p553
F0.000211
sS'ADP'
p554
F0.000704
s(lp555
g57
atp556
a(S'wielu'
p557
(dp558
S'NUM'
p559
F0.9999990000000001
s(lp560
g77
atp561
a(S'dynamicznych'
p562
(dp563
S'ADV'
p564
F0.000311
sS'NOUN'
p565
F0.24184399999999998
sS'VERB'
p566
F0.0019330000000000003
sS'ADJ'
p567
F0.7559110000000001
s(lp568
g96
atp569
a(S'i'
p570
(dp571
S'PRT'
p572
F0.004089
sS'CONJ'
p573
F0.995775
sS'NOUN'
p574
F2.4e-05
sg468
F1e-06
sS'PRON'
p575
F0.000111
s(lp576
g102
atp577
a(S'ambitnych'
p578
(dp579
S'ADJ'
p580
F1.0
s(lp581
g109
atp582
a(S'ministr\xc3\xb3w'
p583
(dp584
S'NOUN'
p585
F1.0
s(lp586
g89
atp587
a(g111
(dp588
g111
F1.0
s(lp589
g111
atp590
asS'sl'
p591
(lp592
(S'nova'
p593
(dp594
S'ADJ'
p595
F1.0
s(lp596
g15
atp597
a(S'vlada'
p598
(dp599
S'VERB'
p600
F4.2e-05
sS'NOUN'
p601
F0.999958
s(lp602
g21
atp603
a(S'je'
p604
(dp605
S'PRON'
p606
F1.1e-05
sS'VERB'
p607
F0.9999849999999999
sg468
F4e-06
s(lp608
g27
atp609
a(S'dokazala'
p610
(dp611
S'VERB'
p612
F1.0
s(lp613
g33
atp614
a(g226
(dp615
g111
F1.0
s(lp616
tp617
a(S'da'
p618
(dp619
S'PRT'
p620
F9e-06
sS'CONJ'
p621
F0.999976
sS'VERB'
p622
F1.4e-05
sg468
F0.0
s(lp623
g63
atp624
a(S'ima'
p625
(dp626
S'VERB'
p627
F1.0
s(lp628
g57
atp629
a(S'veliko'
p630
(dp631
S'ADV'
p632
F0.691834
sS'ADJ'
p633
F0.308166
s(lp634
g77
atp635
a(S'dejavnih'
p636
(dp637
S'ADV'
p638
F0.001908
sS'ADJ'
p639
F0.6554190000000003
sS'VERB'
p640
F0.030406
sS'NOUN'
p641
F0.312269
s(lp642
g96
atp643
a(S'in'
p644
(dp645
S'ADV'
p646
F0.000154
sg468
F5e-06
sS'CONJ'
p647
F0.999803
sS'NOUN'
p648
F3.8e-05
s(lp649
g102
atp650
a(S'ambicioznih'
p651
(dp652
S'ADJ'
p653
F1.0
s(lp654
g109
atp655
a(S'ministrov'
p656
(dp657
S'NOUN'
p658
F1.0
s(lp659
g89
atp660
a(g111
(dp661
g111
F1.0
s(lp662
g111
atp663
asS'es'
p664
(lp665
(S'el'
p666
(dp667
S'PRON'
p668
F0.000299
sS'DET'
p669
F0.999701
s(lp670
g8
atp671
a(S'nuevo'
p672
(dp673
S'ADJ'
p674
F1.0
s(lp675
g15
atp676
a(S'gobierno'
p677
(dp678
S'VERB'
p679
F0.127882
sS'NOUN'
p680
F0.872118
s(lp681
g21
atp682
a(S'se'
p683
(dp684
S'PRON'
p685
F1.0
sS'VERB'
p686
F0.0
s(lp687
g51
atp688
a(S'ha'
p689
(dp690
S'VERB'
p691
F1.0
s(lp692
g27
atp693
a(S'demostrado'
p694
(dp695
S'VERB'
p696
F1.0
s(lp697
g33
atp698
a(g23
(dp699
g468
F7e-06
sS'CONJ'
p700
F4.1e-05
sS'ADP'
p701
F0.999952
s(lp702
tp703
a(S's\xc3\xad'
p704
(dp705
S'ADV'
p706
F0.166105
sS'PRON'
p707
F0.833895
s(lp708
g51
atp709
a(S'mismo'
p710
(dp711
S'NOUN'
p712
F0.001376
sS'ADJ'
p713
F0.998624
s(lp714
tp715
a(S'que'
p716
(dp717
g468
F8e-06
sS'CONJ'
p718
F0.999992
s(lp719
g63
atp720
a(S'cuenta'
p721
(dp722
S'VERB'
p723
F0.695205
sS'NOUN'
p724
F0.304795
s(lp725
g51
atp726
a(S'con'
p727
(dp728
S'ADP'
p729
F1.0
s(lp730
g57
atp731
a(S'una'
p732
(dp733
S'DET'
p734
F1.0
s(lp735
g23
atp736
a(S'serie'
p737
(dp738
S'NOUN'
p739
F1.0
s(lp740
g77
atp741
a(S'de'
p742
(dp743
g468
F2.9e-05
sS'CONJ'
p744
F0.000449
sS'ADP'
p745
F0.999522
s(lp746
g83
atp747
a(S'ministros'
p748
(dp749
S'NOUN'
p750
F1.0
s(lp751
g89
atp752
a(S'din\xc3\xa1micos'
p753
(dp754
S'ADJ'
p755
F1.0
s(lp756
g96
atp757
a(S'y'
p758
(dp759
g468
F0.000656
sS'CONJ'
p760
F0.999344
s(lp761
g102
atp762
a(S'ambiciosos'
p763
(dp764
S'ADJ'
p765
F1.0
s(lp766
g109
atp767
a(g111
(dp768
g111
F1.0
s(lp769
g111
atp770
as.