(dp0
S'fr'
p1
(lp2
(S'pour'
p3
(dp4
S'CONJ'
p5
F0.147666
sS'ADP'
p6
F0.852334
s(lp7
S'to'
p8
atp9
a(S'commencer'
p10
(dp11
S'VERB'
p12
F1.0
s(lp13
S'start'
p14
atp15
a(S','
p16
(dp17
S'.'
p18
F1.0
s(lp19
S'by'
p20
atp21
a(S'je'
p22
(dp23
S'PRON'
p24
F1.0
s(lp25
S'i'
p26
atp27
a(S'formulerai'
p28
(dp29
S'VERB'
p30
F1.0
s(lp31
tp32
a(S'un'
p33
(dp34
S'NOUN'
p35
F0.003822
sS'NUM'
p36
F0.001029
sS'DET'
p37
F0.99515
s(lp38
S'a'
p39
atp40
a(S'bref'
p41
(dp42
S'ADV'
p43
F0.017939
sS'NOUN'
p44
F0.030303
sS'ADJ'
p45
F0.951757
s(lp46
S'brief'
p47
atp48
a(S'commentaire'
p49
(dp50
S'NOUN'
p51
F1.0
s(lp52
S'comment'
p53
atp54
a(g16
(dp55
g18
F1.0
s(lp56
g16
atp57
a(S'madame'
p58
(dp59
S'NOUN'
p60
F1.0
s(lp61
S'commissioner'
p62
atp63
a(S'la'
p64
(dp65
S'PRON'
p66
F5.2e-05
sS'DET'
p67
F0.999948
sS'NOUN'
p68
F0.0
s(lp69
tp70
a(S'commissaire'
p71
(dp72
S'NOUN'
p73
F1.0
s(lp74
g62
atp75
a(g16
(dp76
g18
F1.0
s(lp77
g16
atp78
a(S'sur'
p79
(dp80
S'ADP'
p81
F1.0
s(lp82
S'in'
p83
atp84
a(S'les'
p85
(dp86
S'PRON'
p87
F5.6e-05
sS'DET'
p88
F0.999943
sS'ADP'
p89
F2e-06
s(lp90
tp91
a(S'propos'
p92
(dp93
S'NOUN'
p94
F1.0
s(lp95
S'relation'
p96
atp97
a(S'que'
p98
(dp99
S'ADV'
p100
F0.000965
sS'PRON'
p101
F0.44677300000000003
sS'CONJ'
p102
F0.552262
s(lp103
S'what'
p104
atp105
a(S'vous'
p106
(dp107
S'PRON'
p108
F1.0
s(lp109
tp110
a(S'avez'
p111
(dp112
S'VERB'
p113
F1.0
s(lp114
S'you'
p115
atp116
a(S'tenus'
p117
(dp118
S'NOUN'
p119
F0.001065
sS'VERB'
p120
F0.997482
sS'ADJ'
p121
F0.001454
s(lp122
S'said'
p123
atp124
a(S'il'
p125
(dp126
S'PRON'
p127
F1.0
s(lp128
S'ago'
p129
atp130
a(S'y'
p131
(dp132
S'PRON'
p133
F1.0
s(lp134
g129
atp135
a(g39
(dp136
S'VERB'
p137
F1.0
s(lp138
tp139
a(S'quelques'
p140
(dp141
S'PRON'
p142
F1.0
s(lp143
g129
atp144
a(S'instants'
p145
(dp146
S'ADJ'
p147
F0.426454
sS'NOUN'
p148
F0.573546
s(lp149
S'moment'
p150
atp151
a(g18
(dp152
g18
F1.0
s(lp153
g18
atp154
asS'en'
p155
(lp156
(g26
(dp157
S'X'
p158
F0.024389
sS'NOUN'
p159
F0.97561
s(lp160
g26
atp161
a(S'should'
p162
(dp163
S'VERB'
p164
F1.0
s(lp165
g162
atp166
a(S'like'
p167
(dp168
S'VERB'
p169
F0.9997360000000001
sS'ADJ'
p170
F3.1e-05
sS'ADP'
p171
F0.000233
s(lp172
g167
atp173
a(g8
(dp174
S'ADV'
p175
F0.0
sS'PRT'
p176
F1.0
sS'ADP'
p177
F0.0
s(lp178
g8
atp179
a(g14
(dp180
S'VERB'
p181
F0.978933
sS'NOUN'
p182
F0.021067
s(lp183
g14
atp184
a(g20
(dp185
S'ADV'
p186
F0.001366
sS'NOUN'
p187
F1e-06
sS'ADP'
p188
F0.998634
s(lp189
g20
atp190
a(S'making'
p191
(dp192
S'VERB'
p193
F0.999061
sS'NOUN'
p194
F0.000939
s(lp195
g191
atp196
a(g39
(dp197
S'NOUN'
p198
F0.0
sS'DET'
p199
F1.0
s(lp200
g39
atp201
a(g47
(dp202
S'NOUN'
p203
F0.191133
sS'VERB'
p204
F5.7e-05
sS'ADJ'
p205
F0.808811
s(lp206
g47
atp207
a(g53
(dp208
S'VERB'
p209
F0.005375
sS'NOUN'
p210
F0.994625
s(lp211
g53
atp212
a(g16
(dp213
g18
F1.0
s(lp214
g16
atp215
a(g62
(dp216
S'NOUN'
p217
F1.0
s(lp218
g62
atp219
a(g16
(dp220
g18
F1.0
s(lp221
g16
atp222
a(g83
(dp223
S'ADV'
p224
F0.000967
sS'PRT'
p225
F0.0
sS'ADP'
p226
F0.999033
s(lp227
g83
atp228
a(g96
(dp229
S'NOUN'
p230
F1.0
s(lp231
g96
atp232
a(S'to'
p233
(dp234
S'ADV'
p235
F1e-06
sS'PRT'
p236
F0.99999
sS'ADP'
p237
F9e-06
s(lp238
g233
atp239
a(g104
(dp240
S'PRON'
p241
F0.998847
sS'DET'
p242
F0.001153
s(lp243
g104
atp244
a(g115
(dp245
S'PRON'
p246
F1.0
s(lp247
g115
atp248
a(g123
(dp249
S'ADJ'
p250
F0.0
sS'VERB'
p251
F1.0
sS'NOUN'
p252
F0.0
s(lp253
g123
atp254
a(g39
(dp255
S'NOUN'
p256
F0.0
sS'DET'
p257
F1.0
s(lp258
g39
atp259
a(g150
(dp260
S'NOUN'
p261
F1.0
s(lp262
g150
atp263
a(g129
(dp264
S'ADV'
p265
F0.997987
sS'ADP'
p266
F0.002013
s(lp267
g129
atp268
a(g18
(dp269
g18
F1.0
s(lp270
g18
atp271
asS'nl'
p272
(lp273
(S'ik'
p274
(dp275
S'PRON'
p276
F0.999983
sS'NOUN'
p277
F1.7e-05
s(lp278
g26
atp279
a(S'wil'
p280
(dp281
S'VERB'
p282
F0.844002
sS'NOUN'
p283
F0.155998
s(lp284
g162
atp285
a(S'vooraf'
p286
(dp287
S'ADV'
p288
F1.0
s(lp289
g14
atp290
a(S'even'
p291
(dp292
S'ADV'
p293
F0.165718
sS'ADJ'
p294
F0.834282
s(lp295
g167
atp296
a(S'een'
p297
(dp298
S'ADJ'
p299
F8.1e-05
sS'PRON'
p300
F0.000126
sS'NUM'
p301
F0.0
sS'DET'
p302
F0.999793
s(lp303
g39
atp304
a(S'kleine'
p305
(dp306
S'NOUN'
p307
F0.000264
sS'ADJ'
p308
F0.999736
s(lp309
g47
atp310
a(S'kanttekening'
p311
(dp312
S'NOUN'
p313
F1.0
s(lp314
tp315
a(S'maken'
p316
(dp317
S'VERB'
p318
F0.9999969999999999
sS'NOUN'
p319
F3e-06
s(lp320
g53
atp321
a(g16
(dp322
g18
F1.0
s(lp323
g16
atp324
a(S'mevrouw'
p325
(dp326
S'NOUN'
p327
F1.0
s(lp328
tp329
a(S'de'
p330
(dp331
S'DET'
p332
F1.0
s(lp333
g39
atp334
a(S'commissaris'
p335
(dp336
S'NOUN'
p337
F1.0
s(lp338
g62
atp339
a(g16
(dp340
g18
F1.0
s(lp341
g16
atp342
a(S'bij'
p343
(dp344
S'ADV'
p345
F0.037722
sS'ADJ'
p346
F0.0
sS'NOUN'
p347
F8e-06
sS'ADP'
p348
F0.96227
s(lp349
g83
atp350
a(S'wat'
p351
(dp352
S'ADV'
p353
F0.003761
sS'PRON'
p354
F0.9962389999999999
s(lp355
g104
atp356
a(S'u'
p357
(dp358
S'PRON'
p359
F0.999842
sS'NOUN'
p360
F0.000158
s(lp361
g115
atp362
a(S'zonet'
p363
(dp364
S'ADV'
p365
F1.0
s(lp366
tp367
a(S'zei'
p368
(dp369
S'VERB'
p370
F1.0
s(lp371
g123
atp372
a(g16
(dp373
g18
F1.0
s(lp374
tp375
a(S'dat'
p376
(dp377
S'PRON'
p378
F0.033132
sS'CONJ'
p379
F0.966867
s(lp380
tp381
a(S'die'
p382
(dp383
S'PRON'
p384
F0.9999999999999999
s(lp385
tp386
a(S'markttoets'
p387
(dp388
S'NOUN'
p389
F1.0
s(lp390
g96
atp391
a(S'zoals'
p392
(dp393
S'CONJ'
p394
F1.0
s(lp395
tp396
a(g357
(dp397
S'PRON'
p398
F0.999977
sS'NOUN'
p399
F2.3e-05
s(lp400
g115
atp401
a(S'die'
p402
(dp403
S'PRON'
p404
F1.0
s(lp405
tp406
a(S'voorstelt'
p407
(dp408
S'VERB'
p409
F1.0
s(lp410
tp411
a(S'nu'
p412
(dp413
S'ADV'
p414
F0.967627
sS'CONJ'
p415
F0.032361
sS'NOUN'
p416
F1.2e-05
s(lp417
g150
atp418
a(S'al'
p419
(dp420
S'ADV'
p421
F0.920946
sS'PRON'
p422
F0.012304
sS'CONJ'
p423
F0.06675
s(lp424
g129
atp425
a(S'in'
p426
(dp427
S'ADV'
p428
F0.003025
sS'VERB'
p429
F0.012676
sS'ADP'
p430
F0.984299
s(lp431
g233
atp432
a(S'o.a.'
p433
(dp434
S'ADV'
p435
F1.0
s(lp436
g18
atp437
asS'de'
p438
(lp439
(S'ich'
p440
(dp441
S'PRON'
p442
F1.0
s(lp443
g26
atp444
a(S'm\xc3\xb6chte'
p445
(dp446
S'VERB'
p447
F1.0
s(lp448
g167
atp449
a(S'dies'
p450
(dp451
S'PRON'
p452
F1.0
s(lp453
tp454
a(S'zun\xc3\xa4chst'
p455
(dp456
S'ADV'
p457
F0.999803
sS'ADP'
p458
F0.000136
s(lp459
g14
atp460
a(S'kurz'
p461
(dp462
S'PRT'
p463
F0.000289
sS'ADJ'
p464
F0.999711
s(lp465
g47
atp466
a(S'kommentieren'
p467
(dp468
S'VERB'
p469
F1.0
s(lp470
g53
atp471
a(g16
(dp472
g18
F1.0
s(lp473
g16
atp474
a(S'frau'
p475
(dp476
S'ADJ'
p477
F0.9090860000000001
s(lp478
tp479
a(S'kommissarin'
p480
(dp481
S'ADJ'
p482
F0.351539
sS'NOUN'
p483
F0.609054
s(lp484
g62
atp485
a(g16
(dp486
g18
F1.0
s(lp487
g16
atp488
a(S'in'
p489
(dp490
S'ADP'
p491
F1.0
s(lp492
g83
atp493
a(S'zusammenhang'
p494
(dp495
S'ADJ'
p496
F0.000407
sS'NOUN'
p497
F0.999447
s(lp498
tp499
a(S'mit'
p500
(dp501
S'PRT'
p502
F0.000825
sS'ADP'
p503
F0.999175
s(lp504
g96
atp505
a(S'dem'
p506
(dp507
S'PRON'
p508
F0.19189
sS'DET'
p509
F0.806189
s(lp510
tp511
a(g16
(dp512
g18
F1.0
s(lp513
g233
atp514
a(S'was'
p515
(dp516
S'PRON'
p517
F0.99925
s(lp518
g104
atp519
a(S'sie'
p520
(dp521
S'PRON'
p522
F1.0
s(lp523
g115
atp524
a(S'eben'
p525
(dp526
S'ADV'
p527
F0.95399
sS'ADJ'
p528
F0.04601
s(lp529
g150
atp530
a(S'gesagt'
p531
(dp532
S'VERB'
p533
F0.992836
sS'ADJ'
p534
F0.007164
s(lp535
g123
atp536
a(S'haben'
p537
(dp538
S'VERB'
p539
F0.999968
s(lp540
g129
atp541
a(g18
(dp542
g18
F1.0
s(lp543
g18
atp544
asS'it'
p545
(lp546
(S'vorrei'
p547
(dp548
S'VERB'
p549
F1.0
s(lp550
g167
atp551
a(S'iniziare'
p552
(dp553
S'VERB'
p554
F1.0
s(lp555
g14
atp556
a(S'formulando'
p557
(dp558
S'VERB'
p559
F1.0
s(lp560
g191
atp561
a(S'un'
p562
(dp563
S'PRON'
p564
F0.000369
sS'DEF'
p565
F0.999631
s(lp566
g39
atp567
a(S'breve'
p568
(dp569
S'NOUN'
p570
F0.040185
sS'ADJ'
p571
F0.959815
s(lp572
g47
atp573
a(S'commento'
p574
(dp575
S'VERB'
p576
F0.002956
sS'NOUN'
p577
F0.997044
s(lp578
g53
atp579
a(g16
(dp580
g18
F1.0
s(lp581
g16
atp582
a(S'signora'
p583
(dp584
S'NOUN'
p585
F1.0
s(lp586
tp587
a(S'commissario'
p588
(dp589
S'VERB'
p590
F0.118816
sS'NOUN'
p591
F0.881184
s(lp592
g62
atp593
a(g16
(dp594
g18
F1.0
s(lp595
g16
atp596
a(S'in'
p597
(dp598
S'ADP'
p599
F1.0
s(lp600
g83
atp601
a(S'relazione'
p602
(dp603
S'NOUN'
p604
F1.0
s(lp605
g96
atp606
a(g39
(dp607
S'CONJ'
p608
F0.01079
sS'ADP'
p609
F0.98921
s(lp610
g233
atp611
a(S'quanto'
p612
(dp613
S'ADV'
p614
F0.5069
sS'PRON'
p615
F0.420261
sS'ADJ'
p616
F0.066213
sS'NOUN'
p617
F0.006626
s(lp618
tp619
a(S'da'
p620
(dp621
S'ADP'
p622
F1.0
s(lp623
g104
atp624
a(S'lei'
p625
(dp626
S'PRON'
p627
F1.0
s(lp628
g115
atp629
a(S'appena'
p630
(dp631
S'ADV'
p632
F1.0
s(lp633
g150
atp634
a(S'dichiarato'
p635
(dp636
S'VERB'
p637
F0.859767
sS'ADJ'
p638
F0.140233
s(lp639
g123
atp640
a(g18
(dp641
g18
F1.0
s(lp642
g18
atp643
asS'sk'
p644
(lp645
(S'chcel'
p646
(dp647
S'VERB'
p648
F1.0
s(lp649
tp650
a(S'by'
p651
(dp652
S'PRT'
p653
F0.999999
sg158
F1e-06
s(lp654
g162
atp655
a(S'som'
p656
(dp657
S'VERB'
p658
F1.0
s(lp659
g167
atp660
a(S'za\xc4\x8da\xc5\xa5'
p661
(dp662
S'VERB'
p663
F1.0
s(lp664
g14
atp665
a(S'stru\xc4\x8dnou'
p666
(dp667
S'ADJ'
p668
F1.0
s(lp669
g47
atp670
a(S'pripomienkou'
p671
(dp672
S'NOUN'
p673
F1.0
s(lp674
g53
atp675
a(g16
(dp676
g18
F1.0
s(lp677
g16
atp678
a(S'pani'
p679
(dp680
S'NOUN'
p681
F1.0
s(lp682
tp683
a(S'komis\xc3\xa1rka'
p684
(dp685
S'NOUN'
p686
F1.0
s(lp687
g62
atp688
a(g16
(dp689
g18
F1.0
s(lp690
g16
atp691
a(S'k'
p692
(dp693
g158
F0.000114
sS'NOUN'
p694
F8e-06
sS'ADP'
p695
F0.999878
s(lp696
g96
atp697
a(S'va\xc5\xa1im'
p698
(dp699
S'PRON'
p700
F1.0
s(lp701
g150
atp702
a(S'predch\xc3\xa1dzaj\xc3\xbacim'
p703
(dp704
S'VERB'
p705
F1.0
s(lp706
g129
atp707
a(S'slov\xc3\xa1m'
p708
(dp709
S'NOUN'
p710
F1.0
s(lp711
g123
atp712
a(g18
(dp713
g18
F1.0
s(lp714
g18
atp715
asS'pl'
p716
(lp717
(S'na'
p718
(dp719
g158
F4e-06
sS'VERB'
p720
F1e-06
sS'NOUN'
p721
F3e-06
sS'ADP'
p722
F0.999991
sS'PRT'
p723
F1e-06
s(lp724
g8
atp725
a(S'pocz\xc4\x85tku'
p726
(dp727
S'NOUN'
p728
F1.0
s(lp729
g14
atp730
a(S'chcia\xc5\x82bym'
p731
(dp732
S'ADV'
p733
F0.008366
sS'NOUN'
p734
F0.011261
sS'VERB'
p735
F0.9478809999999999
sS'ADJ'
p736
F0.032495
s(lp737
g53
atp738
a(S'zg\xc5\x82osi\xc4\x87'
p739
(dp740
S'VERB'
p741
F1.0
s(lp742
g53
atp743
a(S'jedn\xc4\x85'
p744
(dp745
S'ADJ'
p746
F1.0
s(lp747
g53
atp748
a(S'uwag\xc4\x99'
p749
(dp750
S'NOUN'
p751
F1.0
s(lp752
g53
atp753
a(g16
(dp754
g158
F0.0
sg18
F1.0
s(lp755
g16
atp756
a(S'pani'
p757
(dp758
S'NOUN'
p759
F1.000001
s(lp760
tp761
a(S'komisarz'
p762
(dp763
S'NOUN'
p764
F1.0
s(lp765
g62
atp766
a(g16
(dp767
g158
F0.0
sg18
F1.0
s(lp768
g16
atp769
a(S'odnosz\xc4\x85c\xc4\x85'
p770
(dp771
S'VERB'
p772
F1.0
s(lp773
tp774
a(S'si\xc4\x99'
p775
(dp776
S'PRT'
p777
F1.0
s(lp778
g39
atp779
a(S'do'
p780
(dp781
g158
F0.0
sS'NOUN'
p782
F9e-06
sS'ADP'
p783
F0.999991
s(lp784
g233
atp785
a(S'zagadnienia'
p786
(dp787
S'NOUN'
p788
F0.999999
s(lp789
g47
atp790
a(S'poruszonego'
p791
(dp792
S'ADV'
p793
F0.000325
sS'NOUN'
p794
F0.011262000000000003
sS'VERB'
p795
F0.9517659999999999
sS'ADJ'
p796
F0.036643
s(lp797
g53
atp798
a(S'przez'
p799
(dp800
S'ADP'
p801
F1.0
s(lp802
g20
atp803
a(S'pani\xc4\x85'
p804
(dp805
S'NOUN'
p806
F1.0
s(lp807
g115
atp808
a(S'przed'
p809
(dp810
S'ADP'
p811
F1.0
s(lp812
g129
atp813
a(S'chwil\xc4\x85'
p814
(dp815
S'NOUN'
p816
F1.0
s(lp817
g150
atp818
a(g18
(dp819
g18
F1.0
s(lp820
g18
atp821
asS'sl'
p822
(lp823
(S'\xc5\xbdelel'
p824
(dp825
S'VERB'
p826
F1.0
s(lp827
g26
atp828
a(S'bi'
p829
(dp830
g158
F0.000713
sS'VERB'
p831
F0.999287
s(lp832
g162
atp833
a(S'za\xc4\x8deti'
p834
(dp835
S'VERB'
p836
F0.996896
sS'ADJ'
p837
F0.003104
s(lp838
g14
atp839
a(S's'
p840
(dp841
S'VERB'
p842
F2e-06
sS'NOUN'
p843
F1.1e-05
sS'ADP'
p844
F0.9999870000000001
s(lp845
g20
atp846
a(S'kratko'
p847
(dp848
S'ADV'
p849
F7.2e-05
sS'ADJ'
p850
F0.999929
s(lp851
g47
atp852
a(S'pripombo'
p853
(dp854
S'NOUN'
p855
F1.0
s(lp856
g53
atp857
a(g16
(dp858
g18
F1.0
s(lp859
g16
atp860
a(S'gospa'
p861
(dp862
S'NOUN'
p863
F1.0
s(lp864
tp865
a(S'komisarka'
p866
(dp867
S'ADV'
p868
F0.000977
sS'ADJ'
p869
F0.071837
sS'VERB'
p870
F0.033846999999999995
sS'NOUN'
p871
F0.893338
s(lp872
g62
atp873
a(g16
(dp874
g18
F1.0
s(lp875
g16
atp876
a(S'v'
p877
(dp878
S'ADP'
p879
F1.0
s(lp880
g83
atp881
a(S'zvezi'
p882
(dp883
S'NOUN'
p884
F1.0
s(lp885
tp886
a(g840
(dp887
S'VERB'
p888
F5e-06
sS'NOUN'
p889
F9e-06
sS'ADP'
p890
F0.999987
s(lp891
g96
atp892
a(S'tem'
p893
(dp894
S'ADV'
p895
F0.000123
sS'PRON'
p896
F0.9990310000000001
sS'NOUN'
p897
F0.000845
s(lp898
tp899
a(g16
(dp900
g18
F1.0
s(lp901
tp902
a(S'kar'
p903
(dp904
S'ADV'
p905
F0.201746
sS'PRON'
p906
F0.798254
s(lp907
g104
atp908
a(S'ste'
p909
(dp910
S'VERB'
p911
F1.0
s(lp912
g115
atp913
a(S'pred'
p914
(dp915
S'ADP'
p916
F1.0
s(lp917
tp918
a(S'kratkim'
p919
(dp920
S'ADJ'
p921
F1.0
s(lp922
g129
atp923
a(S'povedali'
p924
(dp925
S'VERB'
p926
F1.0
s(lp927
g123
atp928
a(g18
(dp929
g18
F1.0
s(lp930
g18
atp931
asS'es'
p932
(lp933
(S'se\xc3\xb1ora'
p934
(dp935
S'NOUN'
p936
F1.0
s(lp937
tp938
a(S'comisaria'
p939
(dp940
S'ADJ'
p941
F0.312535
sS'VERB'
p942
F0.02882
sS'NOUN'
p943
F0.658645
s(lp944
g62
atp945
a(S'quiero'
p946
(dp947
S'VERB'
p948
F1.0
s(lp949
g167
atp950
a(S'comenzar'
p951
(dp952
S'VERB'
p953
F1.0
s(lp954
g14
atp955
a(S'con'
p956
(dp957
S'ADP'
p958
F1.0
s(lp959
g20
atp960
a(S'un'
p961
(dp962
g158
F1.7e-05
sS'DET'
p963
F0.999983
s(lp964
g39
atp965
a(S'breve'
p966
(dp967
S'ADJ'
p968
F1.0
s(lp969
g47
atp970
a(S'comentario'
p971
(dp972
S'NOUN'
p973
F1.0
s(lp974
g53
atp975
a(S'sobre'
p976
(dp977
S'NOUN'
p978
F0.0
sS'ADP'
p979
F1.0
s(lp980
g233
atp981
a(S'lo'
p982
(dp983
S'PRON'
p984
F0.0
sS'DET'
p985
F1.0
s(lp986
tp987
a(S'que'
p988
(dp989
g158
F2e-06
sS'CONJ'
p990
F0.999998
s(lp991
g104
atp992
a(S'acaba'
p993
(dp994
S'VERB'
p995
F1.0
s(lp996
g129
atp997
a(S'usted'
p998
(dp999
S'PRON'
p1000
F1.0
s(lp1001
g115
atp1002
a(S'de'
p1003
(dp1004
g158
F0.0
sS'CONJ'
p1005
F0.236764
sS'ADP'
p1006
F0.763236
s(lp1007
g83
atp1008
a(S'decir'
p1009
(dp1010
S'VERB'
p1011
F1.0
s(lp1012
g123
atp1013
a(g18
(dp1014
g18
F1.0
s(lp1015
g18
atp1016
as.