(dp0
S'fr'
p1
(lp2
(S'il'
p3
(dp4
S'PRON'
p5
F1.0
s(lp6
(S'it'
p7
I4
tp8
atp9
a(S"s'"
p10
(dp11
S'ADJ'
p12
F0.000625
sS'VERB'
p13
F0.9973000000000002
sS'NOUN'
p14
F0.002077
s(lp15
tp16
a(S'agit'
p17
(dp18
S'VERB'
p19
F1.0
s(lp20
(S'involves'
p21
I5
tp22
atp23
a(S','
p24
(dp25
S'.'
p26
F1.0
s(lp27
tp28
a(S'pour'
p29
(dp30
S'CONJ'
p31
F0.253264
sS'ADP'
p32
F0.746736
s(lp33
(S'for'
p34
I0
tp35
atp36
a(S'le'
p37
(dp38
S'PRON'
p39
F0.00036
sS'DET'
p40
F0.99964
s(lp41
(S'the'
p42
I1
tp43
atp44
a(S'm\xc3\xa9diateur'
p45
(dp46
S'NOUN'
p47
F0.499656
sS'ADJ'
p48
F0.500344
s(lp49
(S'ombudsman'
p50
I2
tp51
atp52
a(g24
(dp53
g26
F1.0
s(lp54
(g24
I3
tp55
atp56
a(S'de'
p57
(dp58
S'ADP'
p59
F1.0
s(lp60
tp61
a(S'promouvoir'
p62
(dp63
S'VERB'
p64
F1.0
s(lp65
(S'promoting'
p66
I6
tp67
atp68
a(S'la'
p69
(dp70
S'PRON'
p71
F6e-06
sS'DET'
p72
F0.999994
sS'NOUN'
p73
F0.0
s(lp74
tp75
a(S'culture'
p76
(dp77
S'NOUN'
p78
F1.0
s(lp79
(S'culture'
p80
I8
tp81
atp82
a(S'du'
p83
(dp84
S'ADP'
p85
F1.0
s(lp86
(S'of'
p87
I9
tp88
atp89
a(S'service'
p90
(dp91
S'NOUN'
p92
F1.0
s(lp93
(S'service'
p94
I10
tp95
atp96
a(g24
(dp97
g26
F1.0
s(lp98
(g24
I11
tp99
atp100
a(S'qui'
p101
(dp102
S'PRON'
p103
F1.0
s(lp104
(S'which'
p105
I12
tp106
atp107
a(S'ne'
p108
(dp109
S'ADV'
p110
F1.0
s(lp111
tp112
a(S'figure'
p113
(dp114
S'VERB'
p115
F0.984002
sS'NOUN'
p116
F0.015998
s(lp117
(S'mentioned'
p118
I16
tp119
atp120
a(S'pas'
p121
(dp122
S'ADV'
p123
F0.999262
sS'NOUN'
p124
F0.000738
s(lp125
(S'not'
p126
I14
tp127
atp128
a(S'express\xc3\xa9ment'
p129
(dp130
S'ADV'
p131
F1.0
s(lp132
(S'explicitly'
p133
I15
tp134
atp135
a(S'dans'
p136
(dp137
S'NOUN'
p138
F1.2e-05
sS'ADP'
p139
F0.999988
s(lp140
(S'in'
p141
I17
tp142
atp143
a(S'les'
p144
(dp145
S'PRON'
p146
F0.0002
sS'DET'
p147
F0.999798
sS'ADP'
p148
F2e-06
s(lp149
(S'the'
p150
I18
tp151
atp152
a(S'trait\xc3\xa9s'
p153
(dp154
S'VERB'
p155
F0.000539
sS'NOUN'
p156
F0.999461
s(lp157
(S'treaties'
p158
I19
tp159
atp160
a(g24
(dp161
g26
F1.0
s(lp162
(g24
I20
tp163
atp164
a(S'mais'
p165
(dp166
S'CONJ'
p167
F1.0
s(lp168
(S'but'
p169
I21
tp170
atp171
a(S'qui'
p172
(dp173
S'PRON'
p174
F1.0
s(lp175
(S'which'
p176
I22
tp177
atp178
a(S'fait'
p179
(dp180
S'ADJ'
p181
F9e-05
sS'VERB'
p182
F0.996808
sS'NOUN'
p183
F0.003103
s(lp184
(S'forms'
p185
I24
tp186
atp187
a(S'bien'
p188
(dp189
S'ADV'
p190
F0.964035
sS'NOUN'
p191
F0.000716
sS'ADJ'
p192
F0.035249
s(lp193
(S'certainly'
p194
I23
tp195
atp196
a(S'partie'
p197
(dp198
S'ADJ'
p199
F0.038977
sS'VERB'
p200
F0.647059
sS'NOUN'
p201
F0.313964
s(lp202
(S'part'
p203
I25
tp204
atp205
a(S'des'
p206
(dp207
S'DET'
p208
F3e-05
sS'ADP'
p209
F0.99997
s(lp210
(S'of'
p211
I26
tp212
atp213
a(S'engagements'
p214
(dp215
S'NOUN'
p216
F1.0
s(lp217
(S'commitments'
p218
I28
tp219
atp220
a(S'auxquels'
p221
(dp222
S'PRON'
p223
F1.0
s(lp224
(S'that'
p225
I29
tp226
atp227
a(S'se'
p228
(dp229
S'PRON'
p230
F1.0
s(lp231
(S'to'
p232
I31
tp233
atp234
a(S'sont'
p235
(dp236
S'VERB'
p237
F1.0
s(lp238
tp239
a(S'soumises'
p240
(dp241
S'VERB'
p242
F1.0
s(lp243
(S'apply'
p244
I30
tp245
atp246
a(S'les'
p247
(dp248
S'PRON'
p249
F0.000203
sS'DET'
p250
F0.999599
sS'ADP'
p251
F0.000198
s(lp252
(S'the'
p253
I32
tp254
atp255
a(S'institutions'
p256
(dp257
S'NOUN'
p258
F1.0
s(lp259
(S'institutions'
p260
I33
tp261
atp262
a(g26
(dp263
g26
F1.0
s(lp264
(g26
I34
tp265
atp266
asS'en'
p267
(lp268
(g34
(dp269
S'ADP'
p270
F1.0
s(lp271
(g34
I0
tp272
atp273
a(g42
(dp274
S'NOUN'
p275
F1e-06
sS'DET'
p276
F0.999999
s(lp277
(g42
I1
tp278
atp279
a(g50
(dp280
S'NOUN'
p281
F1.0
s(lp282
(g50
I2
tp283
atp284
a(g24
(dp285
g26
F1.0
s(lp286
(g24
I3
tp287
atp288
a(g7
(dp289
S'PRON'
p290
F1.0
s(lp291
(g7
I4
tp292
atp293
a(g21
(dp294
S'VERB'
p295
F1.0
s(lp296
(g21
I5
tp297
atp298
a(g66
(dp299
S'VERB'
p300
F1.0
s(lp301
(g66
I6
tp302
atp303
a(S'a'
p304
(dp305
S'NOUN'
p306
F0.0
sS'DET'
p307
F1.0
s(lp308
(g304
I7
tp309
atp310
a(g80
(dp311
S'VERB'
p312
F2.1e-05
sS'NOUN'
p313
F0.999979
s(lp314
(g80
I8
tp315
atp316
a(g87
(dp317
S'ADP'
p318
F1.0
s(lp319
(g87
I9
tp320
atp321
a(g94
(dp322
S'VERB'
p323
F6.8e-05
sS'NOUN'
p324
F0.999932
s(lp325
(g94
I10
tp326
atp327
a(g24
(dp328
g26
F1.0
s(lp329
(g24
I11
tp330
atp331
a(g105
(dp332
S'DET'
p333
F1.0
s(lp334
(g105
I12
tp335
atp336
a(S'is'
p337
(dp338
S'VERB'
p339
F1.0
s(lp340
(g337
I13
tp341
atp342
a(g126
(dp343
S'ADV'
p344
F1.0
s(lp345
(g126
I14
tp346
atp347
a(g133
(dp348
S'ADV'
p349
F1.0
s(lp350
(g133
I15
tp351
atp352
a(g118
(dp353
S'VERB'
p354
F1.0
s(lp355
(g118
I16
tp356
atp357
a(g141
(dp358
S'ADV'
p359
F0.000405
sS'PRT'
p360
F0.003988
sS'ADP'
p361
F0.995606
s(lp362
(g141
I17
tp363
atp364
a(g150
(dp365
S'NOUN'
p366
F1.1e-05
sS'DET'
p367
F0.999989
s(lp368
(g150
I18
tp369
atp370
a(g158
(dp371
S'NOUN'
p372
F1.0
s(lp373
(g158
I19
tp374
atp375
a(g24
(dp376
g26
F1.0
s(lp377
(g24
I20
tp378
atp379
a(g169
(dp380
S'ADV'
p381
F0.000405
sS'CONJ'
p382
F0.999542
sS'NOUN'
p383
F5.3e-05
s(lp384
(g169
I21
tp385
atp386
a(g176
(dp387
S'DET'
p388
F1.0
s(lp389
(g176
I22
tp390
atp391
a(g194
(dp392
S'ADV'
p393
F1.0
s(lp394
(g194
I23
tp395
atp396
a(g185
(dp397
S'VERB'
p398
F0.641639
sS'NOUN'
p399
F0.358361
s(lp400
(g185
I24
tp401
atp402
a(g203
(dp403
S'ADV'
p404
F0.00185
sS'VERB'
p405
F0.001706
sS'NOUN'
p406
F0.996445
s(lp407
(g203
I25
tp408
atp409
a(g211
(dp410
S'ADP'
p411
F1.0
s(lp412
(g211
I26
tp413
atp414
a(S'the'
p415
(dp416
S'NOUN'
p417
F1.1e-05
sS'DET'
p418
F0.999989
s(lp419
(g415
I27
tp420
atp421
a(g218
(dp422
S'NOUN'
p423
F1.0
s(lp424
(g218
I28
tp425
atp426
a(g225
(dp427
S'ADV'
p428
F0.002424
sS'DET'
p429
F0.9974989999999999
sS'ADP'
p430
F7.6e-05
s(lp431
(g225
I29
tp432
atp433
a(g244
(dp434
S'VERB'
p435
F1.0
s(lp436
(g244
I30
tp437
atp438
a(g232
(dp439
S'ADV'
p440
F2e-06
sS'PRT'
p441
F0.999996
sS'ADP'
p442
F2e-06
s(lp443
(g232
I31
tp444
atp445
a(g253
(dp446
S'NOUN'
p447
F1.3e-05
sS'DET'
p448
F0.999987
s(lp449
(g253
I32
tp450
atp451
a(g260
(dp452
S'NOUN'
p453
F1.0
s(lp454
(g260
I33
tp455
atp456
a(g26
(dp457
g26
F1.0
s(lp458
(g26
I34
tp459
atp460
asS'nl'
p461
(lp462
(S'de'
p463
(dp464
S'DET'
p465
F1.0
s(lp466
(g42
I1
tp467
atp468
a(S'ombudsman'
p469
(dp470
S'NOUN'
p471
F1.0
s(lp472
(g50
I2
tp473
atp474
a(S'moet'
p475
(dp476
S'VERB'
p477
F1.0
s(lp478
(g21
I5
tp479
atp480
a(S'een'
p481
(dp482
S'ADJ'
p483
F2e-06
sS'NUM'
p484
F0.0
sS'DET'
p485
F0.999997
sS'PRON'
p486
F1e-06
s(lp487
(g304
I7
tp488
atp489
a(S'cultuur'
p490
(dp491
S'NOUN'
p492
F1.0
s(lp493
(g80
I8
tp494
atp495
a(S'van'
p496
(dp497
S'ADP'
p498
F1.0
s(lp499
(g87
I9
tp500
atp501
a(S'dienstbaarheid'
p502
(dp503
S'NOUN'
p504
F1.0
s(lp505
(g94
I10
tp506
atp507
a(S'bevorderen'
p508
(dp509
S'VERB'
p510
F0.99993
sS'NOUN'
p511
F7e-05
s(lp512
(g66
I6
tp513
atp514
a(g26
(dp515
g26
F1.0
s(lp516
(g24
I11
tp517
atp518
a(S'die'
p519
(dp520
S'PRON'
p521
F1.000001
s(lp522
(g105
I12
tp523
atp524
a(S'wordt'
p525
(dp526
S'VERB'
p527
F1.0
s(lp528
(g337
I13
tp529
atp530
a(S'in'
p531
(dp532
S'ADV'
p533
F0.020912
sS'VERB'
p534
F0.0
sS'ADP'
p535
F0.979088
s(lp536
(g141
I17
tp537
atp538
a(S'de'
p539
(dp540
S'DET'
p541
F1.0
s(lp542
(g150
I18
tp543
atp544
a(S'verdragen'
p545
(dp546
S'VERB'
p547
F3e-05
sS'NOUN'
p548
F0.9999699999999999
s(lp549
(g158
I19
tp550
atp551
a(S'niet'
p552
(dp553
S'ADV'
p554
F0.999991
sS'PRON'
p555
F4e-06
sS'VERB'
p556
F6e-06
sS'X'
p557
F0.0
s(lp558
(g126
I14
tp559
atp560
a(S'uitdrukkelijk'
p561
(dp562
S'ADJ'
p563
F1.0
s(lp564
(g133
I15
tp565
atp566
a(S'genoemd'
p567
(dp568
S'VERB'
p569
F0.670159
sS'ADJ'
p570
F0.329841
s(lp571
(g118
I16
tp572
atp573
a(g24
(dp574
g26
F1.0
s(lp575
(g24
I20
tp576
atp577
a(S'maar'
p578
(dp579
S'ADV'
p580
F0.14007
sS'CONJ'
p581
F0.859872
sS'NOUN'
p582
F5.8e-05
s(lp583
(g169
I21
tp584
atp585
a(S'maakt'
p586
(dp587
S'VERB'
p588
F1.0
s(lp589
(g185
I24
tp590
atp591
a(S'wel'
p592
(dp593
S'ADV'
p594
F0.999996
sg557
F0.0
sS'VERB'
p595
F0.0
sS'NOUN'
p596
F4e-06
s(lp597
(g194
I23
tp598
atp599
a(S'deel'
p600
(dp601
S'VERB'
p602
F0.252469
sS'NOUN'
p603
F0.747531
s(lp604
tp605
a(S'uit'
p606
(dp607
S'ADV'
p608
F0.919348
sS'VERB'
p609
F0.000132
sS'ADP'
p610
F0.080521
s(lp611
(g203
I25
tp612
atp613
a(S'van'
p614
(dp615
S'ADP'
p616
F1.0
s(lp617
(g211
I26
tp618
atp619
a(S'de'
p620
(dp621
S'DET'
p622
F1.0
s(lp623
(g415
I27
tp624
atp625
a(S'toezeggingen'
p626
(dp627
S'NOUN'
p628
F1.0
s(lp629
tp630
a(S'die'
p631
(dp632
S'PRON'
p633
F1.000001
s(lp634
(g225
I29
tp635
atp636
a(S'de'
p637
(dp638
S'DET'
p639
F1.0
s(lp640
(g253
I32
tp641
atp642
a(S'instellingen'
p643
(dp644
S'NOUN'
p645
F1.0
s(lp646
(g260
I33
tp647
atp648
a(S'hebben'
p649
(dp650
S'VERB'
p651
F1.0
sS'NOUN'
p652
F1e-06
s(lp653
tp654
a(S'gedaan'
p655
(dp656
S'VERB'
p657
F0.999996
sS'ADJ'
p658
F4e-06
s(lp659
(g218
I28
tp660
atp661
a(g26
(dp662
g26
F1.0
s(lp663
(g26
I34
tp664
atp665
asS'de'
p666
(lp667
(S'f\xc3\xbcr'
p668
(dp669
S'ADP'
p670
F1.0
s(lp671
(g34
I0
tp672
atp673
a(S'den'
p674
(dp675
S'PRON'
p676
F0.000523
sS'DET'
p677
F0.999463
s(lp678
(g42
I1
tp679
atp680
a(S'b\xc3\xbcrgerbeauftragten'
p681
(dp682
S'ADJ'
p683
F0.992815
s(lp684
(g50
I2
tp685
atp686
a(S'bedeutet'
p687
(dp688
S'VERB'
p689
F0.996662
sS'ADJ'
p690
F0.002
s(lp691
(g21
I5
tp692
atp693
a(S'dies'
p694
(dp695
S'PRON'
p696
F1.0
s(lp697
(g7
I4
tp698
atp699
a(g24
(dp700
g26
F1.0
s(lp701
(g24
I3
tp702
atp703
a(S'eine'
p704
(dp705
S'PRON'
p706
F0.008813
sS'DET'
p707
F0.990741
s(lp708
(g304
I7
tp709
atp710
a(S'dienstleistungskultur'
p711
(dp712
S'ADJ'
p713
F0.042945
sS'NOUN'
p714
F0.953135
s(lp715
(g80
I8
tp716
atp717
a(S'zu'
p718
(dp719
S'PRT'
p720
F0.9999750000000001
s(lp721
tp722
a(S'f\xc3\xb6rdern'
p723
(dp724
S'VERB'
p725
F1.0
s(lp726
(g66
I6
tp727
atp728
a(g24
(dp729
g26
F1.0
s(lp730
(g24
I11
tp731
atp732
a(S'die'
p733
(dp734
S'PRON'
p735
F0.952385
sS'DET'
p736
F0.028249
s(lp737
(g105
I12
tp738
atp739
a(S'nicht'
p740
(dp741
S'PRT'
p742
F1.0
s(lp743
(g126
I14
tp744
atp745
a(S'ausdr\xc3\xbccklich'
p746
(dp747
S'ADJ'
p748
F1.0
s(lp749
(g133
I15
tp750
atp751
a(S'in'
p752
(dp753
S'ADP'
p754
F1.0
s(lp755
(g141
I17
tp756
atp757
a(S'den'
p758
(dp759
S'PRON'
p760
F0.00018
sS'DET'
p761
F0.999815
s(lp762
(g150
I18
tp763
atp764
a(S'vertr\xc3\xa4gen'
p765
(dp766
S'ADJ'
p767
F0.036952
sS'NOUN'
p768
F0.950937
s(lp769
(g158
I19
tp770
atp771
a(S'erw\xc3\xa4hnt'
p772
(dp773
S'VERB'
p774
F0.992682
sS'ADJ'
p775
F0.007069
s(lp776
(g118
I16
tp777
atp778
a(S'ist'
p779
(dp780
S'VERB'
p781
F1.0
s(lp782
(g337
I13
tp783
atp784
a(g24
(dp785
g26
F1.0
s(lp786
(g24
I20
tp787
atp788
a(S'aber'
p789
(dp790
S'ADV'
p791
F0.266477
sS'CONJ'
p792
F0.733523
s(lp793
(g169
I21
tp794
atp795
a(S'die'
p796
(dp797
S'PRON'
p798
F0.202495
sS'DET'
p799
F0.645711
s(lp800
(g176
I22
tp801
atp802
a(S'sicherlich'
p803
(dp804
S'ADV'
p805
F1.0
s(lp806
(g194
I23
tp807
atp808
a(S'teil'
p809
(dp810
S'PRT'
p811
F0.999994
sS'VERB'
p812
F6e-06
s(lp813
(g203
I25
tp814
atp815
a(S'der'
p816
(dp817
S'PRON'
p818
F0.002233
sS'DET'
p819
F0.997689
s(lp820
(g415
I27
tp821
atp822
a(S'verpflichtungen'
p823
(dp824
S'ADJ'
p825
F0.000257
sS'NOUN'
p826
F0.999505
s(lp827
(g218
I28
tp828
atp829
a(S'sind'
p830
(dp831
S'VERB'
p832
F1.0
s(lp833
tp834
a(g24
(dp835
g26
F1.0
s(lp836
tp837
a(S'die'
p838
(dp839
S'PRON'
p840
F0.969205
sS'DET'
p841
F0.026136
s(lp842
(g225
I29
tp843
atp844
a(S'f\xc3\xbcr'
p845
(dp846
S'ADP'
p847
F1.0
s(lp848
(g232
I31
tp849
atp850
a(S'die'
p851
(dp852
S'PRON'
p853
F0.000194
sS'DET'
p854
F0.999756
s(lp855
(g253
I32
tp856
atp857
a(S'institutionen'
p858
(dp859
S'ADJ'
p860
F0.022672
sS'NOUN'
p861
F0.960186
s(lp862
(g260
I33
tp863
atp864
a(S'gelten'
p865
(dp866
S'VERB'
p867
F1.0
s(lp868
(g244
I30
tp869
atp870
a(g26
(dp871
g26
F1.0
s(lp872
(g26
I34
tp873
atp874
asS'it'
p875
(lp876
(S'infatti'
p877
(dp878
S'ADV'
p879
F1.0
s(lp880
(g34
I0
tp881
atp882
a(S'il'
p883
(dp884
S'DET'
p885
F1.0
s(lp886
(g42
I1
tp887
atp888
a(S'mediatore'
p889
(dp890
S'NOUN'
p891
F1.0
s(lp892
(g50
I2
tp893
atp894
a(S'deve'
p895
(dp896
S'VERB'
p897
F1.0
s(lp898
(g21
I5
tp899
atp900
a(S'promuovere'
p901
(dp902
S'VERB'
p903
F1.0
s(lp904
(g66
I6
tp905
atp906
a(S'una'
p907
(dp908
S'PRON'
p909
F0.000112
sS'DEF'
p910
F0.999888
s(lp911
(g304
I7
tp912
atp913
a(S'cultura'
p914
(dp915
S'NOUN'
p916
F1.0
s(lp917
(g80
I8
tp918
atp919
a(S'del'
p920
(dp921
S'DEF'
p922
F0.001248
sS'ADP'
p923
F0.998752
s(lp924
(g87
I9
tp925
atp926
a(S'servizio'
p927
(dp928
S'NOUN'
p929
F1.0
s(lp930
(g94
I10
tp931
atp932
a(g24
(dp933
g26
F1.0
s(lp934
(g24
I11
tp935
atp936
a(S'che'
p937
(dp938
S'PRON'
p939
F0.814011
sS'CONJ'
p940
F0.185764
sS'ADJ'
p941
F0.000226
s(lp942
(g105
I12
tp943
atp944
a(S'non'
p945
(dp946
S'ADV'
p947
F1.0
s(lp948
(g126
I14
tp949
atp950
a(S'\xc3\xa8'
p951
(dp952
S'VERB'
p953
F1.0
s(lp954
(g337
I13
tp955
atp956
a(S'esplicitamente'
p957
(dp958
S'ADV'
p959
F1.0
s(lp960
tp961
a(S'prevista'
p962
(dp963
S'VERB'
p964
F0.99326
sS'ADJ'
p965
F0.00674
s(lp966
(g133
I15
tp967
atp968
a(S'nei'
p969
(dp970
S'NOUN'
p971
F0.000464
sS'ADP'
p972
F0.999536
s(lp973
(g141
I17
tp974
atp975
a(S'trattati'
p976
(dp977
S'VERB'
p978
F0.057732000000000006
sS'NOUN'
p979
F0.942268
s(lp980
(g158
I19
tp981
atp982
a(g24
(dp983
g26
F1.0
s(lp984
(g24
I20
tp985
atp986
a(S'ma'
p987
(dp988
S'CONJ'
p989
F0.999904
sS'NOUN'
p990
F9.6e-05
s(lp991
(g169
I21
tp992
atp993
a(S'che'
p994
(dp995
S'PRON'
p996
F0.941623
sS'CONJ'
p997
F0.058049
sS'ADJ'
p998
F0.000327
s(lp999
(g176
I22
tp1000
atp1001
a(S'certamente'
p1002
(dp1003
S'ADV'
p1004
F1.0
s(lp1005
(g194
I23
tp1006
atp1007
a(S'rientra'
p1008
(dp1009
S'VERB'
p1010
F1.0
s(lp1011
(g185
I24
tp1012
atp1013
a(S'tra'
p1014
(dp1015
S'CONJ'
p1016
F0.000614
sS'ADP'
p1017
F0.999386
s(lp1018
(g211
I26
tp1019
atp1020
a(S'gli'
p1021
(dp1022
S'PRON'
p1023
F0.002076
sS'DET'
p1024
F0.997924
s(lp1025
tp1026
a(S'impegni'
p1027
(dp1028
S'VERB'
p1029
F0.002228
sS'NOUN'
p1030
F0.997772
s(lp1031
(g218
I28
tp1032
atp1033
a(S'che'
p1034
(dp1035
S'PRON'
p1036
F0.960097
sS'CONJ'
p1037
F0.039051
sS'ADJ'
p1038
F0.000852
s(lp1039
(g225
I29
tp1040
atp1041
a(S'competono'
p1042
(dp1043
S'VERB'
p1044
F1.0
s(lp1045
(g244
I30
tp1046
atp1047
a(S'alle'
p1048
(dp1049
S'ADP'
p1050
F1.0
s(lp1051
(g232
I31
tp1052
atp1053
a(S'istituzioni'
p1054
(dp1055
S'NOUN'
p1056
F1.0
s(lp1057
(g260
I33
tp1058
atp1059
a(g26
(dp1060
g26
F1.0
s(lp1061
(g26
I34
tp1062
atp1063
asS'sk'
p1064
(lp1065
(S'pre'
p1066
(dp1067
g557
F0.000228
sS'ADP'
p1068
F0.999772
s(lp1069
(g34
I0
tp1070
atp1071
a(S'ombudsmana'
p1072
(dp1073
S'NOUN'
p1074
F1.0
s(lp1075
(g50
I2
tp1076
atp1077
a(S'to'
p1078
(dp1079
S'PRON'
p1080
F0.976192
sS'CONJ'
p1081
F0.014163
sg557
F0.009646
s(lp1082
(g7
I4
tp1083
atp1084
a(S'znamen\xc3\xa1'
p1085
(dp1086
g557
F1e-06
sS'VERB'
p1087
F0.999999
s(lp1088
(g21
I5
tp1089
atp1090
a(S'podporova\xc5\xa5'
p1091
(dp1092
S'VERB'
p1093
F1.0
s(lp1094
(g66
I6
tp1095
atp1096
a(S'kult\xc3\xbaru'
p1097
(dp1098
S'NOUN'
p1099
F1.0
s(lp1100
(g80
I8
tp1101
atp1102
a(S'slu\xc5\xbeby'
p1103
(dp1104
S'NOUN'
p1105
F1.0
s(lp1106
(g94
I10
tp1107
atp1108
a(g24
(dp1109
g26
F1.0
s(lp1110
(g24
I11
tp1111
atp1112
a(S'o'
p1113
(dp1114
g557
F0.000236
sS'CONJ'
p1115
F0.002
sS'NOUN'
p1116
F8.000000000000001e-06
sS'ADP'
p1117
F0.997755
s(lp1118
(g118
I16
tp1119
atp1120
a(S'ktorej'
p1121
(dp1122
S'PRON'
p1123
F1.0
s(lp1124
(g105
I12
tp1125
atp1126
a(S'sa'
p1127
(dp1128
S'PRT'
p1129
F0.99953
sS'ADP'
p1130
F0.000231
sg557
F0.00024
s(lp1131
(g337
I13
tp1132
atp1133
a(S'zmluvy'
p1134
(dp1135
S'NOUN'
p1136
F1.0
s(lp1137
(g158
I19
tp1138
atp1139
a(S'explicitne'
p1140
(dp1141
S'ADV'
p1142
F1.0
s(lp1143
tp1144
a(S'nezmie\xc5\x88uj\xc3\xba'
p1145
(dp1146
S'VERB'
p1147
F1.0
s(lp1148
(g133
I15
tp1149
atp1150
a(g24
(dp1151
g26
F1.0
s(lp1152
(g24
I20
tp1153
atp1154
a(S'ktor\xc3\xa1'
p1155
(dp1156
S'PRON'
p1157
F1.0
s(lp1158
(g176
I22
tp1159
atp1160
a(S'v\xc5\xa1ak'
p1161
(dp1162
g557
F0.9589719999999999
sS'CONJ'
p1163
F0.041028
s(lp1164
(g169
I21
tp1165
atp1166
a(S'nepochybne'
p1167
(dp1168
S'ADV'
p1169
F0.149427
sg557
F0.850573
s(lp1170
(g194
I23
tp1171
atp1172
a(S'tvor\xc3\xad'
p1173
(dp1174
S'VERB'
p1175
F1.0
s(lp1176
(g185
I24
tp1177
atp1178
a(S's\xc3\xba\xc4\x8das\xc5\xa5'
p1179
(dp1180
S'NOUN'
p1181
F1.0
s(lp1182
(g203
I25
tp1183
atp1184
a(S'z\xc3\xa1v\xc3\xa4zkov'
p1185
(dp1186
S'NOUN'
p1187
F1.0
s(lp1188
tp1189
a(S't\xc3\xbdkaj\xc3\xbacich'
p1190
(dp1191
S'VERB'
p1192
F1.0
s(lp1193
(g218
I28
tp1194
atp1195
a(S'sa'
p1196
(dp1197
S'PRT'
p1198
F0.998696
sS'ADP'
p1199
F0.000685
sg557
F0.000619
s(lp1200
(g244
I30
tp1201
atp1202
a(S'in\xc5\xa1tit\xc3\xbaci\xc3\xad'
p1203
(dp1204
S'NOUN'
p1205
F1.0
s(lp1206
(g260
I33
tp1207
atp1208
a(g26
(dp1209
g26
F1.0
s(lp1210
(g26
I34
tp1211
atp1212
asS'pl'
p1213
(lp1214
(S'w'
p1215
(dp1216
S'ADJ'
p1217
F0.0
sg557
F0.0
sS'NOUN'
p1218
F0.0
sS'ADP'
p1219
F1.0
s(lp1220
(g42
I1
tp1221
atp1222
a(S'przypadku'
p1223
(dp1224
S'NOUN'
p1225
F1.0
s(lp1226
(g34
I0
tp1227
atp1228
a(S'rzecznika'
p1229
(dp1230
S'NOUN'
p1231
F1.0
s(lp1232
(g50
I2
tp1233
atp1234
a(S'praw'
p1235
(dp1236
S'NOUN'
p1237
F1.0
s(lp1238
tp1239
a(S'obywatelskich'
p1240
(dp1241
S'ADJ'
p1242
F0.9999999999999999
s(lp1243
(g50
I2
tp1244
atp1245
a(S'obejmuje'
p1246
(dp1247
S'VERB'
p1248
F1.0
s(lp1249
(g21
I5
tp1250
atp1251
a(S'on'
p1252
(dp1253
S'PRON'
p1254
F0.9997140000000001
sS'ADJ'
p1255
F0.000167
sS'NOUN'
p1256
F0.00012
s(lp1257
(g7
I4
tp1258
atp1259
a(S'krzewienie'
p1260
(dp1261
S'VERB'
p1262
F1.0
s(lp1263
(g66
I6
tp1264
atp1265
a(S'kultury'
p1266
(dp1267
S'NOUN'
p1268
F1.0
s(lp1269
tp1270
a(S'sprawowania'
p1271
(dp1272
S'VERB'
p1273
F0.973141
sS'NOUN'
p1274
F0.026859
s(lp1275
(g80
I8
tp1276
atp1277
a(S's\xc5\x82u\xc5\xbcby'
p1278
(dp1279
S'NOUN'
p1280
F1.0
s(lp1281
(g94
I10
tp1282
atp1283
a(S'publicznej'
p1284
(dp1285
S'ADJ'
p1286
F1.0
s(lp1287
(g133
I15
tp1288
atp1289
a(g24
(dp1290
g557
F0.0
sg26
F1.0
s(lp1291
(g24
I11
tp1292
atp1293
a(g1113
(dp1294
g557
F0.001973
sS'VERB'
p1295
F2.3000000000000003e-05
sS'NOUN'
p1296
F1e-06
sS'ADP'
p1297
F0.9980020000000001
sS'PRT'
p1298
F1e-06
s(lp1299
tp1300
a(S'czym'
p1301
(dp1302
S'CONJ'
p1303
F0.000262
sS'NOUN'
p1304
F0.999738
s(lp1305
(g118
I16
tp1306
atp1307
a(S'traktaty'
p1308
(dp1309
S'NOUN'
p1310
F1.0
s(lp1311
(g158
I19
tp1312
atp1313
a(S'nie'
p1314
(dp1315
S'ADV'
p1316
F1.6e-05
sS'PRT'
p1317
F0.962251
sS'CONJ'
p1318
F0.037657
sS'NOUN'
p1319
F1e-06
sS'PRON'
p1320
F7.599999999999999e-05
s(lp1321
(g126
I14
tp1322
atp1323
a(S'm\xc3\xb3wi\xc4\x85'
p1324
(dp1325
S'VERB'
p1326
F1.0
s(lp1327
tp1328
a(S'wprost'
p1329
(dp1330
S'ADV'
p1331
F0.578841
sS'PRT'
p1332
F0.415405
sS'ADJ'
p1333
F0.005755
s(lp1334
(g133
I15
tp1335
atp1336
a(g24
(dp1337
g557
F0.0
sg26
F1.0
s(lp1338
(g24
I20
tp1339
atp1340
a(S'ale'
p1341
(dp1342
S'PRT'
p1343
F0.00156
sS'CONJ'
p1344
F0.997726
sS'NOUN'
p1345
F0.0007139999999999999
s(lp1346
(g169
I21
tp1347
atp1348
a(S'co'
p1349
(dp1350
S'PRT'
p1351
F0.059374
sS'CONJ'
p1352
F0.028258
sS'NOUN'
p1353
F0.911959
sS'ADP'
p1354
F0.000409
s(lp1355
(g176
I22
tp1356
atp1357
a(S'z'
p1358
(dp1359
S'PRT'
p1360
F9e-05
sS'VERB'
p1361
F1.4e-05
sS'NOUN'
p1362
F0.0
sS'ADP'
p1363
F0.9998950000000001
sg557
F1e-06
s(lp1364
tp1365
a(S'pewno\xc5\x9bci\xc4\x85'
p1366
(dp1367
S'NOUN'
p1368
F1.0
s(lp1369
(g194
I23
tp1370
atp1371
a(S'wchodzi'
p1372
(dp1373
S'VERB'
p1374
F1.0
s(lp1375
(g185
I24
tp1376
atp1377
a(g1215
(dp1378
S'ADJ'
p1379
F0.0
sg557
F2e-06
sS'NOUN'
p1380
F4.4e-05
sS'ADP'
p1381
F0.999953
s(lp1382
tp1383
a(S'zakres'
p1384
(dp1385
S'NOUN'
p1386
F1.0
s(lp1387
(g203
I25
tp1388
atp1389
a(S'zobowi\xc4\x85za\xc5\x84'
p1390
(dp1391
S'NOUN'
p1392
F1.0
s(lp1393
(g218
I28
tp1394
atp1395
a(S'instytucji'
p1396
(dp1397
S'NOUN'
p1398
F1.0
s(lp1399
(g260
I33
tp1400
atp1401
a(g26
(dp1402
g26
F1.0
s(lp1403
(g26
I34
tp1404
atp1405
asS'sl'
p1406
(lp1407
(S'varuh'
p1408
(dp1409
S'NOUN'
p1410
F1.0
s(lp1411
(g50
I2
tp1412
atp1413
a(S'\xc4\x8dlovekovih'
p1414
(dp1415
S'ADJ'
p1416
F1.0
s(lp1417
tp1418
a(S'pravic'
p1419
(dp1420
S'NOUN'
p1421
F1.0
s(lp1422
(g50
I2
tp1423
atp1424
a(S'mora'
p1425
(dp1426
S'VERB'
p1427
F0.999263
sS'NOUN'
p1428
F0.000737
s(lp1429
(g21
I5
tp1430
atp1431
a(S'spodbujati'
p1432
(dp1433
S'VERB'
p1434
F1.0
s(lp1435
(g66
I6
tp1436
atp1437
a(S'kulturo'
p1438
(dp1439
S'NOUN'
p1440
F1.0
s(lp1441
(g80
I8
tp1442
atp1443
a(S'storitve'
p1444
(dp1445
S'NOUN'
p1446
F1.0
s(lp1447
(g94
I10
tp1448
atp1449
a(g24
(dp1450
g26
F1.0
s(lp1451
(g24
I11
tp1452
atp1453
a(S'kar'
p1454
(dp1455
S'ADV'
p1456
F0.389527
sS'PRON'
p1457
F0.610473
s(lp1458
(g105
I12
tp1459
atp1460
a(S'ni'
p1461
(dp1462
S'VERB'
p1463
F1.0
s(lp1464
(g126
I14
tp1465
atp1466
a(S'izrecno'
p1467
(dp1468
S'ADV'
p1469
F0.577921
sS'ADJ'
p1470
F0.422079
s(lp1471
(g133
I15
tp1472
atp1473
a(S'omenjeno'
p1474
(dp1475
S'ADJ'
p1476
F1.0
s(lp1477
(g118
I16
tp1478
atp1479
a(S'v'
p1480
(dp1481
S'ADP'
p1482
F1.0
s(lp1483
(g141
I17
tp1484
atp1485
a(S'pogodbah'
p1486
(dp1487
S'NOUN'
p1488
F1.0
s(lp1489
(g158
I19
tp1490
atp1491
a(g24
(dp1492
g26
F1.0
s(lp1493
(g24
I20
tp1494
atp1495
a(S'vendar'
p1496
(dp1497
S'ADV'
p1498
F0.050108
sS'CONJ'
p1499
F0.949892
s(lp1500
(g169
I21
tp1501
atp1502
a(S'pa'
p1503
(dp1504
g557
F0.000316
sS'CONJ'
p1505
F0.999684
s(lp1506
(g176
I22
tp1507
atp1508
a(S'nedvomno'
p1509
(dp1510
S'ADV'
p1511
F0.998718
sS'ADJ'
p1512
F0.001282
s(lp1513
(g194
I23
tp1514
atp1515
a(S'sodi'
p1516
(dp1517
S'VERB'
p1518
F1.0
s(lp1519
(g185
I24
tp1520
atp1521
a(S'k'
p1522
(dp1523
S'NOUN'
p1524
F3.5e-05
sS'ADP'
p1525
F0.999965
s(lp1526
(g203
I25
tp1527
atp1528
a(S'zavezam'
p1529
(dp1530
S'ADJ'
p1531
F3.4e-05
sS'VERB'
p1532
F0.005171
sS'NOUN'
p1533
F0.9947960000000001
s(lp1534
(g218
I28
tp1535
atp1536
a(g24
(dp1537
g26
F1.0
s(lp1538
tp1539
a(S'ki'
p1540
(dp1541
S'CONJ'
p1542
F1.0
s(lp1543
(g225
I29
tp1544
atp1545
a(S'veljajo'
p1546
(dp1547
S'VERB'
p1548
F1.0
s(lp1549
(g244
I30
tp1550
atp1551
a(S'za'
p1552
(dp1553
S'ADV'
p1554
F0.000135
sg557
F3e-06
sS'ADP'
p1555
F0.9998630000000001
s(lp1556
(g232
I31
tp1557
atp1558
a(S'institucije'
p1559
(dp1560
S'NOUN'
p1561
F1.0
s(lp1562
(g260
I33
tp1563
atp1564
a(g26
(dp1565
g26
F1.0
s(lp1566
(g26
I34
tp1567
atp1568
asS'es'
p1569
(lp1570
(S'para'
p1571
(dp1572
S'CONJ'
p1573
F0.003274
sS'ADP'
p1574
F0.996726
s(lp1575
(g34
I0
tp1576
atp1577
a(S'el'
p1578
(dp1579
S'PRON'
p1580
F7e-06
sS'DET'
p1581
F0.999993
s(lp1582
(g42
I1
tp1583
atp1584
a(S'defensor'
p1585
(dp1586
S'ADJ'
p1587
F0.008157
sS'NOUN'
p1588
F0.991843
s(lp1589
(g50
I2
tp1590
atp1591
a(S'del'
p1592
(dp1593
S'ADP'
p1594
F1.0
s(lp1595
tp1596
a(S'pueblo'
p1597
(dp1598
S'VERB'
p1599
F0.0
sS'NOUN'
p1600
F1.0
s(lp1601
(g50
I2
tp1602
atp1603
a(S'comprende'
p1604
(dp1605
S'VERB'
p1606
F1.0
s(lp1607
(g21
I5
tp1608
atp1609
a(S'la'
p1610
(dp1611
g557
F0.0
sS'PRON'
p1612
F0.0
sS'DET'
p1613
F1.0
sS'NOUN'
p1614
F0.0
s(lp1615
tp1616
a(S'promoci\xc3\xb3n'
p1617
(dp1618
S'NOUN'
p1619
F1.0
s(lp1620
(g66
I6
tp1621
atp1622
a(S'de'
p1623
(dp1624
g557
F0.0
sS'CONJ'
p1625
F1.7e-05
sS'ADP'
p1626
F0.999982
s(lp1627
tp1628
a(S'la'
p1629
(dp1630
S'PRON'
p1631
F1e-06
sS'DET'
p1632
F0.999998
sS'NOUN'
p1633
F0.0
sg557
F1e-06
s(lp1634
(g304
I7
tp1635
atp1636
a(S'cultura'
p1637
(dp1638
S'VERB'
p1639
F0.000333
sS'NOUN'
p1640
F0.999667
s(lp1641
(g80
I8
tp1642
atp1643
a(S'de'
p1644
(dp1645
g557
F2.9e-05
sS'CONJ'
p1646
F0.000449
sS'ADP'
p1647
F0.999522
s(lp1648
(g87
I9
tp1649
atp1650
a(S'servicio'
p1651
(dp1652
S'NOUN'
p1653
F1.0
s(lp1654
(g94
I10
tp1655
atp1656
a(g24
(dp1657
g26
F1.0
s(lp1658
(g24
I11
tp1659
atp1660
a(S'que'
p1661
(dp1662
g557
F0.0
sS'CONJ'
p1663
F1.0
s(lp1664
(g105
I12
tp1665
atp1666
a(S'no'
p1667
(dp1668
S'ADV'
p1669
F1.0
sg557
F0.0
s(lp1670
(g126
I14
tp1671
atp1672
a(S'se'
p1673
(dp1674
S'PRON'
p1675
F1.0
sS'VERB'
p1676
F0.0
s(lp1677
(g337
I13
tp1678
atp1679
a(S'menciona'
p1680
(dp1681
S'VERB'
p1682
F1.0
s(lp1683
(g118
I16
tp1684
atp1685
a(S'de'
p1686
(dp1687
g557
F1.3e-05
sS'CONJ'
p1688
F0.000682
sS'ADP'
p1689
F0.999305
s(lp1690
tp1691
a(S'manera'
p1692
(dp1693
S'NOUN'
p1694
F1.0
s(lp1695
tp1696
a(S'expl\xc3\xadcita'
p1697
(dp1698
S'ADJ'
p1699
F1.0
s(lp1700
(g133
I15
tp1701
atp1702
a(S'en'
p1703
(dp1704
g557
F0.0
sS'CONJ'
p1705
F1e-06
sS'ADP'
p1706
F0.999999
s(lp1707
(g141
I17
tp1708
atp1709
a(S'los'
p1710
(dp1711
S'PRON'
p1712
F0.0
sS'DET'
p1713
F1.0
s(lp1714
(g150
I18
tp1715
atp1716
a(S'tratados'
p1717
(dp1718
S'VERB'
p1719
F1.0
s(lp1720
(g158
I19
tp1721
atp1722
a(g24
(dp1723
g26
F1.0
s(lp1724
(g24
I20
tp1725
atp1726
a(S'pero'
p1727
(dp1728
S'CONJ'
p1729
F0.999816
sS'NOUN'
p1730
F0.000184
s(lp1731
(g169
I21
tp1732
atp1733
a(S'que'
p1734
(dp1735
g557
F1e-06
sS'CONJ'
p1736
F0.999999
s(lp1737
(g176
I22
tp1738
atp1739
a(S'sin'
p1740
(dp1741
S'ADP'
p1742
F1.0
s(lp1743
tp1744
a(S'duda'
p1745
(dp1746
S'NOUN'
p1747
F1.0
s(lp1748
(g194
I23
tp1749
atp1750
a(S'forma'
p1751
(dp1752
S'VERB'
p1753
F0.313427
sS'NOUN'
p1754
F0.686573
s(lp1755
(g185
I24
tp1756
atp1757
a(S'parte'
p1758
(dp1759
S'VERB'
p1760
F0.004427
sS'NOUN'
p1761
F0.995573
s(lp1762
(g203
I25
tp1763
atp1764
a(S'de'
p1765
(dp1766
g557
F0.0
sS'CONJ'
p1767
F1.7e-05
sS'ADP'
p1768
F0.999983
s(lp1769
(g211
I26
tp1770
atp1771
a(S'los'
p1772
(dp1773
S'PRON'
p1774
F0.0
sS'DET'
p1775
F1.0
s(lp1776
(g415
I27
tp1777
atp1778
a(S'compromisos'
p1779
(dp1780
S'NOUN'
p1781
F1.0
s(lp1782
(g218
I28
tp1783
atp1784
a(S'aplicables'
p1785
(dp1786
S'ADJ'
p1787
F1.0
s(lp1788
(g244
I30
tp1789
atp1790
a(g304
(dp1791
g557
F0.000622
sS'CONJ'
p1792
F9e-06
sS'ADP'
p1793
F0.999368
s(lp1794
(g232
I31
tp1795
atp1796
a(S'las'
p1797
(dp1798
S'PRON'
p1799
F0.0
sS'DET'
p1800
F1.0
s(lp1801
(g253
I32
tp1802
atp1803
a(S'instituciones'
p1804
(dp1805
S'NOUN'
p1806
F1.0
s(lp1807
(g260
I33
tp1808
atp1809
a(g26
(dp1810
g26
F1.0
s(lp1811
(g26
I34
tp1812
atp1813
as.