(dp0
S'fr'
p1
(lp2
(S'au'
p3
(dp4
S'ADP'
p5
F1.0
s(lp6
(S'on'
p7
I0
tp8
atp9
a(S'nom'
p10
(dp11
S'NOUN'
p12
F1.0
s(lp13
(S'behalf'
p14
I1
tp15
atp16
a(S'du'
p17
(dp18
S'ADP'
p19
F1.0
s(lp20
(S'of'
p21
I2
tp22
atp23
a(S'groupe'
p24
(dp25
S'VERB'
p26
F0.0
sS'NOUN'
p27
F1.0
s(lp28
(S'group'
p29
I5
tp30
atp31
a(S'pse'
p32
(dp33
S'NOUN'
p34
F0.22413
sS'VERB'
p35
F0.0027890000000000002
sS'ADJ'
p36
F0.773081
s(lp37
(S'pse'
p38
I4
tp39
atp40
a(S'.'
p41
(dp42
g41
F1.0
s(lp43
(g41
I6
tp44
atp45
a(S'-'
p46
(dp47
g41
F1.0
s(lp48
(g46
I7
tp49
atp50
a(S'('
p51
(dp52
g41
F1.0
s(lp53
(g51
I8
tp54
atp55
a(S'it'
p56
(dp57
S'ADJ'
p58
F0.13429
sS'VERB'
p59
F0.638201
sS'NOUN'
p60
F0.227509
s(lp61
(S'it'
p62
I9
tp63
atp64
a(S')'
p65
(dp66
g41
F1.0
s(lp67
(g65
I10
tp68
atp69
a(S'monsieur'
p70
(dp71
S'NOUN'
p72
F1.0
s(lp73
(S'mr'
p74
I11
tp75
atp76
a(S'le'
p77
(dp78
S'PRON'
p79
F0.000321
sS'DET'
p80
F0.999679
s(lp81
tp82
a(S'pr\xc3\xa9sident'
p83
(dp84
S'VERB'
p85
F4.5e-05
sS'NOUN'
p86
F0.999955
s(lp87
(S'president'
p88
I12
tp89
atp90
a(S','
p91
(dp92
g41
F1.0
s(lp93
(g91
I13
tp94
atp95
a(S'mesdames'
p96
(dp97
S'NOUN'
p98
F1.0
s(lp99
(S'ladies'
p100
I14
tp101
atp102
a(S'et'
p103
(dp104
S'CONJ'
p105
F1.0
s(lp106
(S'and'
p107
I15
tp108
atp109
a(S'messieurs'
p110
(dp111
S'NOUN'
p112
F1.0
s(lp113
(S'gentlemen'
p114
I16
tp115
atp116
a(g91
(dp117
g41
F1.0
s(lp118
(g91
I17
tp119
atp120
a(S"j'"
p121
(dp122
S'ADJ'
p123
F0.280608
sS'VERB'
p124
F0.007367
sS'NOUN'
p125
F0.681695
sS'X'
p126
F0.03033
s(lp127
(S'i'
p128
I18
tp129
atp130
a(S'esp\xc3\xa8re'
p131
(dp132
S'VERB'
p133
F0.906022
sS'NOUN'
p134
F0.093977
s(lp135
(S'hope'
p136
I19
tp137
atp138
a(S"qu'"
p139
(dp140
S'NOUN'
p141
F0.042019
sS'VERB'
p142
F0.723272
sS'ADJ'
p143
F0.234709
s(lp144
tp145
a(S'il'
p146
(dp147
S'PRON'
p148
F1.0
s(lp149
(S'it'
p150
I20
tp151
atp152
a(S'sera'
p153
(dp154
S'VERB'
p155
F1.0
s(lp156
(S'will'
p157
I21
tp158
atp159
a(S'utile'
p160
(dp161
S'NOUN'
p162
F0.103412
sS'ADJ'
p163
F0.896588
s(lp164
(S'useful'
p165
I23
tp166
atp167
a(S'de'
p168
(dp169
S'ADP'
p170
F1.0
s(lp171
(S'for'
p172
I24
tp173
atp174
a(S'faire'
p175
(dp176
S'VERB'
p177
F1.0
s(lp178
(S'make'
p179
I29
tp180
atp181
a(S'entendre'
p182
(dp183
S'VERB'
p184
F1.0
s(lp185
(S'heard'
p186
I32
tp187
atp188
a(S'la'
p189
(dp190
S'PRON'
p191
F6e-06
sS'DET'
p192
F0.999994
sS'NOUN'
p193
F0.0
s(lp194
(S'its'
p195
I30
tp196
atp197
a(S'voix'
p198
(dp199
S'NOUN'
p200
F1.0
s(lp201
(S'voice'
p202
I31
tp203
atp204
a(S'du'
p205
(dp206
S'ADP'
p207
F1.0
s(lp208
(S'the'
p209
I25
tp210
atp211
a(S'parlement'
p212
(dp213
S'NOUN'
p214
F1.0
s(lp215
(S'parliament'
p216
I27
tp217
atp218
a(S'europ\xc3\xa9en'
p219
(dp220
S'NOUN'
p221
F0.010118
sS'ADJ'
p222
F0.989882
s(lp223
(S'european'
p224
I26
tp225
atp226
a(S'concernant'
p227
(dp228
S'VERB'
p229
F0.688357
sS'ADP'
p230
F0.311643
s(lp231
(S'on'
p232
I33
tp233
atp234
a(S'les'
p235
(dp236
S'PRON'
p237
F1.9e-05
sS'DET'
p238
F0.999965
sS'ADP'
p239
F1.5e-05
s(lp240
(S'the'
p241
I34
tp242
atp243
a(S'\xc3\xa9v\xc3\xa9nements'
p244
(dp245
S'NOUN'
p246
F1.0
s(lp247
(S'events'
p248
I36
tp249
atp250
a(S'tragiques'
p251
(dp252
S'ADJ'
p253
F1.0
s(lp254
(S'tragic'
p255
I35
tp256
atp257
a(S'au'
p258
(dp259
S'ADP'
p260
F1.0
s(lp261
tp262
a(S'tibet'
p263
(dp264
S'ADJ'
p265
F0.000988
sS'NOUN'
p266
F0.999012
s(lp267
(S'tibet'
p268
I38
tp269
atp270
a(S'avant'
p271
(dp272
S'ADV'
p273
F0.00225
sS'NOUN'
p274
F2e-05
sS'ADP'
p275
F0.99773
s(lp276
(S'prior'
p277
I40
tp278
atp279
a(S'la'
p280
(dp281
S'PRON'
p282
F1.2e-05
sS'DET'
p283
F0.999988
sS'NOUN'
p284
F0.0
s(lp285
(S'the'
p286
I42
tp287
atp288
a(S'r\xc3\xa9union'
p289
(dp290
S'NOUN'
p291
F1.0
s(lp292
(S'meeting'
p293
I43
tp294
atp295
a(S'des'
p296
(dp297
S'DET'
p298
F2.1e-05
sS'ADP'
p299
F0.999979
s(lp300
(S'of'
p301
I44
tp302
atp303
a(S'ministres'
p304
(dp305
S'NOUN'
p306
F1.0
s(lp307
(S'ministers'
p308
I48
tp309
atp310
a(S'des'
p311
(dp312
S'DET'
p313
F2.1e-05
sS'ADP'
p314
F0.999979
s(lp315
(S'the'
p316
I45
tp317
atp318
a(S'affaires'
p319
(dp320
S'VERB'
p321
F0.0
sS'NOUN'
p322
F1.0
s(lp323
tp324
a(S'\xc3\xa9trang\xc3\xa8res'
p325
(dp326
S'NOUN'
p327
F0.024952
sS'ADJ'
p328
F0.975048
s(lp329
(S'foreign'
p330
I47
tp331
atp332
a(S'europ\xc3\xa9ens'
p333
(dp334
S'ADJ'
p335
F0.328272
sS'NOUN'
p336
F0.671728
s(lp337
(S'european'
p338
I46
tp339
atp340
a(g41
(dp341
g41
F1.0
s(lp342
(g41
I49
tp343
atp344
asS'en'
p345
(lp346
(g7
(dp347
S'ADV'
p348
F0.002027
sS'NOUN'
p349
F3e-06
sS'ADJ'
p350
F4e-05
sS'ADP'
p351
F0.99793
sS'PRT'
p352
F0.0
s(lp353
(g7
I0
tp354
atp355
a(g14
(dp356
S'NOUN'
p357
F1.0
s(lp358
(g14
I1
tp359
atp360
a(g21
(dp361
S'ADP'
p362
F1.0
s(lp363
(g21
I2
tp364
atp365
a(S'the'
p366
(dp367
S'NOUN'
p368
F1e-06
sS'DET'
p369
F0.999999
s(lp370
(g366
I3
tp371
atp372
a(g38
(dp373
S'ADV'
p374
F0.000119
sS'NOUN'
p375
F0.45224899999999996
sS'ADJ'
p376
F0.547632
s(lp377
(g38
I4
tp378
atp379
a(g29
(dp380
S'VERB'
p381
F5.3e-05
sS'NOUN'
p382
F0.999947
s(lp383
(g29
I5
tp384
atp385
a(g41
(dp386
g41
F1.0
s(lp387
(g41
I6
tp388
atp389
a(g46
(dp390
g41
F1.0
s(lp391
(g46
I7
tp392
atp393
a(g51
(dp394
g41
F1.0
s(lp395
(g51
I8
tp396
atp397
a(g62
(dp398
S'PRON'
p399
F1.0
s(lp400
(g62
I9
tp401
atp402
a(g65
(dp403
g41
F1.0
s(lp404
(g65
I10
tp405
atp406
a(g74
(dp407
S'ADJ'
p408
F0.004952
sS'NOUN'
p409
F0.995048
s(lp410
(g74
I11
tp411
atp412
a(g88
(dp413
S'NOUN'
p414
F1.0
s(lp415
(g88
I12
tp416
atp417
a(g91
(dp418
g41
F1.0
s(lp419
(g91
I13
tp420
atp421
a(g100
(dp422
S'NOUN'
p423
F1.0
s(lp424
(g100
I14
tp425
atp426
a(g107
(dp427
S'CONJ'
p428
F0.999998
sS'NOUN'
p429
F2e-06
s(lp430
(g107
I15
tp431
atp432
a(g114
(dp433
S'NOUN'
p434
F1.0
s(lp435
(g114
I16
tp436
atp437
a(g91
(dp438
g41
F1.0
s(lp439
(g91
I17
tp440
atp441
a(g128
(dp442
g126
F0.038694
sS'NOUN'
p443
F0.961306
s(lp444
(g128
I18
tp445
atp446
a(g136
(dp447
S'VERB'
p448
F0.913146
sS'NOUN'
p449
F0.086854
s(lp450
(g136
I19
tp451
atp452
a(g150
(dp453
S'PRON'
p454
F1.0
s(lp455
(g150
I20
tp456
atp457
a(g157
(dp458
S'VERB'
p459
F1.0
sS'NOUN'
p460
F0.0
s(lp461
(g157
I21
tp462
atp463
a(S'be'
p464
(dp465
S'VERB'
p466
F1.0
s(lp467
(g464
I22
tp468
atp469
a(g165
(dp470
S'ADJ'
p471
F1.0
s(lp472
(g165
I23
tp473
atp474
a(g172
(dp475
S'ADP'
p476
F1.0
s(lp477
(g172
I24
tp478
atp479
a(g209
(dp480
S'NOUN'
p481
F1e-06
sS'DET'
p482
F0.999999
s(lp483
(g209
I25
tp484
atp485
a(g224
(dp486
S'NOUN'
p487
F0.10881199999999999
sS'VERB'
p488
F1.1e-05
sS'ADJ'
p489
F0.891178
s(lp490
(g224
I26
tp491
atp492
a(g216
(dp493
S'NOUN'
p494
F1.0
s(lp495
(g216
I27
tp496
atp497
a(S'to'
p498
(dp499
S'ADV'
p500
F0.0
sS'PRT'
p501
F1.0
sS'ADP'
p502
F0.0
s(lp503
(g498
I28
tp504
atp505
a(g179
(dp506
S'VERB'
p507
F1.0
sS'NOUN'
p508
F0.0
s(lp509
(g179
I29
tp510
atp511
a(g195
(dp512
S'PRON'
p513
F1.0
s(lp514
(g195
I30
tp515
atp516
a(g202
(dp517
S'VERB'
p518
F2.4e-05
sS'NOUN'
p519
F0.999976
s(lp520
(g202
I31
tp521
atp522
a(g186
(dp523
S'VERB'
p524
F1.0
s(lp525
(g186
I32
tp526
atp527
a(g232
(dp528
S'ADV'
p529
F0.001855
sS'PRT'
p530
F0.0104
sS'ADJ'
p531
F0.0
sS'NOUN'
p532
F0.0
sS'ADP'
p533
F0.987745
s(lp534
(g232
I33
tp535
atp536
a(g241
(dp537
S'NOUN'
p538
F1e-06
sS'DET'
p539
F0.999999
s(lp540
(g241
I34
tp541
atp542
a(g255
(dp543
S'ADJ'
p544
F1.0
s(lp545
(g255
I35
tp546
atp547
a(g248
(dp548
S'NOUN'
p549
F1.0
s(lp550
(g248
I36
tp551
atp552
a(S'in'
p553
(dp554
S'ADV'
p555
F0.000168
sS'PRT'
p556
F0.000168
sS'ADP'
p557
F0.999664
s(lp558
(g553
I37
tp559
atp560
a(g268
(dp561
S'ADJ'
p562
F0.017154
sS'NOUN'
p563
F0.982846
s(lp564
(g268
I38
tp565
atp566
a(g91
(dp567
g41
F1.0
s(lp568
(g91
I39
tp569
atp570
a(g277
(dp571
S'ADV'
p572
F0.885485
sS'NOUN'
p573
F0.000988
sS'ADJ'
p574
F0.113526
s(lp575
(g277
I40
tp576
atp577
a(S'to'
p578
(dp579
S'ADV'
p580
F5e-06
sS'PRT'
p581
F0.999982
sS'ADP'
p582
F1.2e-05
s(lp583
(g578
I41
tp584
atp585
a(g286
(dp586
S'NOUN'
p587
F2e-06
sS'DET'
p588
F0.999998
s(lp589
(g286
I42
tp590
atp591
a(g293
(dp592
S'VERB'
p593
F0.011346
sS'NOUN'
p594
F0.988654
s(lp595
(g293
I43
tp596
atp597
a(g301
(dp598
S'ADP'
p599
F1.0
s(lp600
(g301
I44
tp601
atp602
a(g316
(dp603
S'NOUN'
p604
F1e-06
sS'DET'
p605
F0.999999
s(lp606
(g316
I45
tp607
atp608
a(g338
(dp609
S'NOUN'
p610
F0.050419000000000005
sS'VERB'
p611
F6.2e-05
sS'ADJ'
p612
F0.949519
s(lp613
(g338
I46
tp614
atp615
a(g330
(dp616
S'NOUN'
p617
F0.000674
sS'ADJ'
p618
F0.999326
s(lp619
(g330
I47
tp620
atp621
a(g308
(dp622
S'VERB'
p623
F1.4e-05
sS'NOUN'
p624
F0.999986
s(lp625
(g308
I48
tp626
atp627
a(g41
(dp628
g41
F1.0
s(lp629
(g41
I49
tp630
atp631
asS'nl'
p632
(lp633
(S'namens'
p634
(dp635
S'ADP'
p636
F1.0
s(lp637
(g14
I1
tp638
atp639
a(S'de'
p640
(dp641
S'DET'
p642
F1.0
s(lp643
(g366
I3
tp644
atp645
a(S'pse-fractie'
p646
(dp647
S'NOUN'
p648
F1.0
s(lp649
(g38
I4
tp650
atp651
a(g41
(dp652
g41
F1.0
s(lp653
(g41
I6
tp654
atp655
a(g46
(dp656
g41
F1.0
s(lp657
(g46
I7
tp658
atp659
a(g51
(dp660
g41
F1.0
s(lp661
(g51
I8
tp662
atp663
a(S'it'
p664
(dp665
S'ADJ'
p666
F0.06221
sS'NOUN'
p667
F0.93779
s(lp668
(g62
I9
tp669
atp670
a(g65
(dp671
g41
F1.0
s(lp672
(g65
I10
tp673
atp674
a(S'mijnheer'
p675
(dp676
S'NOUN'
p677
F1.0
s(lp678
(g74
I11
tp679
atp680
a(S'de'
p681
(dp682
S'DET'
p683
F1.0
s(lp684
tp685
a(S'voorzitter'
p686
(dp687
S'NOUN'
p688
F1.0
s(lp689
(g88
I12
tp690
atp691
a(g91
(dp692
g41
F1.0
s(lp693
(g91
I13
tp694
atp695
a(S'dames'
p696
(dp697
S'NOUN'
p698
F1.0
s(lp699
(g100
I14
tp700
atp701
a(S'en'
p702
(dp703
S'CONJ'
p704
F1.0
s(lp705
(g107
I15
tp706
atp707
a(S'heren'
p708
(dp709
S'NOUN'
p710
F1.0
s(lp711
(g114
I16
tp712
atp713
a(g91
(dp714
g41
F1.0
s(lp715
(g91
I17
tp716
atp717
a(S'ik'
p718
(dp719
S'PRON'
p720
F0.99994
sS'NOUN'
p721
F6e-05
s(lp722
(g128
I18
tp723
atp724
a(S'hoop'
p725
(dp726
S'VERB'
p727
F0.6618
sS'NOUN'
p728
F0.3382
s(lp729
tp730
a(S'dat'
p731
(dp732
S'PRON'
p733
F0.04181
sS'CONJ'
p734
F0.95819
s(lp735
(g136
I19
tp736
atp737
a(S'het'
p738
(dp739
S'PRON'
p740
F0.020455
sS'DET'
p741
F0.979545
s(lp742
(g150
I20
tp743
atp744
a(S'nut'
p745
(dp746
S'NOUN'
p747
F1.0
s(lp748
(g165
I23
tp749
atp750
a(S'zal'
p751
(dp752
S'VERB'
p753
F1.0
s(lp754
(g157
I21
tp755
atp756
a(S'hebben'
p757
(dp758
S'VERB'
p759
F0.999997
sS'NOUN'
p760
F3e-06
s(lp761
tp762
a(S'dat'
p763
(dp764
S'PRON'
p765
F0.013965
sS'CONJ'
p766
F0.986035
s(lp767
(g172
I24
tp768
atp769
a(S'het'
p770
(dp771
S'PRON'
p772
F0.087116
sS'DET'
p773
F0.912884
s(lp774
(g209
I25
tp775
atp776
a(S'europees'
p777
(dp778
S'NOUN'
p779
F0.044813000000000006
sS'ADJ'
p780
F0.955187
s(lp781
(g224
I26
tp782
atp783
a(S'parlement'
p784
(dp785
S'NOUN'
p786
F1.0
s(lp787
(g216
I27
tp788
atp789
a(S'zijn'
p790
(dp791
S'PRON'
p792
F0.136188
sS'VERB'
p793
F0.863777
sS'NOUN'
p794
F3.6e-05
s(lp795
(g195
I30
tp796
atp797
a(S'stem'
p798
(dp799
S'VERB'
p800
F0.000218
sS'NOUN'
p801
F0.999782
s(lp802
tp803
a(S'laat'
p804
(dp805
S'VERB'
p806
F0.940982
sS'ADJ'
p807
F0.059018
s(lp808
(g202
I31
tp809
atp810
a(S'horen'
p811
(dp812
S'VERB'
p813
F0.984589
sS'NOUN'
p814
F0.01541
s(lp815
(g186
I32
tp816
atp817
a(S'over'
p818
(dp819
S'ADV'
p820
F0.002936
sS'ADP'
p821
F0.997064
s(lp822
(g232
I33
tp823
atp824
a(S'de'
p825
(dp826
S'DET'
p827
F1.0
s(lp828
(g241
I34
tp829
atp830
a(S'tragische'
p831
(dp832
S'NOUN'
p833
F0.000209
sS'ADJ'
p834
F0.999791
s(lp835
(g255
I35
tp836
atp837
a(S'gebeurtenissen'
p838
(dp839
S'NOUN'
p840
F1.0
s(lp841
(g248
I36
tp842
atp843
a(S'in'
p844
(dp845
S'ADV'
p846
F0.002038
sS'VERB'
p847
F1e-06
sS'ADP'
p848
F0.997961
s(lp849
(g553
I37
tp850
atp851
a(S'tibet'
p852
(dp853
S'ADJ'
p854
F0.003674
sS'NOUN'
p855
F0.996326
s(lp856
(g268
I38
tp857
atp858
a(g91
(dp859
g41
F1.0
s(lp860
(g91
I39
tp861
atp862
a(S'voorafgaand'
p863
(dp864
S'VERB'
p865
F0.900461
sS'ADJ'
p866
F0.099539
s(lp867
(g277
I40
tp868
atp869
a(S'aan'
p870
(dp871
S'ADV'
p872
F0.000731
sS'ADP'
p873
F0.999269
s(lp874
(g578
I41
tp875
atp876
a(S'de'
p877
(dp878
S'DET'
p879
F1.0
s(lp880
(g286
I42
tp881
atp882
a(S'vergadering'
p883
(dp884
S'NOUN'
p885
F1.0
s(lp886
(g293
I43
tp887
atp888
a(S'van'
p889
(dp890
S'ADP'
p891
F1.0
s(lp892
(g301
I44
tp893
atp894
a(S'de'
p895
(dp896
S'DET'
p897
F1.0
s(lp898
(g316
I45
tp899
atp900
a(S'europese'
p901
(dp902
S'NOUN'
p903
F1.0
s(lp904
(g338
I46
tp905
atp906
a(S'ministers'
p907
(dp908
S'NOUN'
p909
F1.0
s(lp910
tp911
a(S'van'
p912
(dp913
S'ADP'
p914
F1.0
s(lp915
tp916
a(S'buitenlandse'
p917
(dp918
S'NOUN'
p919
F1e-06
sS'ADJ'
p920
F0.999999
s(lp921
(g330
I47
tp922
atp923
a(S'zaken'
p924
(dp925
S'NOUN'
p926
F1.0
s(lp927
(g308
I48
tp928
atp929
a(g41
(dp930
g41
F1.0
s(lp931
(g41
I49
tp932
atp933
asS'de'
p934
(lp935
(S'verehrte'
p936
(dp937
S'VERB'
p938
F0.024687
sS'ADJ'
p939
F0.975313
s(lp940
tp941
a(S'damen'
p942
(dp943
S'ADJ'
p944
F0.049047
sS'NOUN'
p945
F0.937159
s(lp946
(g100
I14
tp947
atp948
a(S'und'
p949
(dp950
S'CONJ'
p951
F1.0
s(lp952
(g107
I15
tp953
atp954
a(S'herren'
p955
(dp956
S'VERB'
p957
F0.687557
sS'NOUN'
p958
F0.216284
s(lp959
tp960
a(S'!'
p961
(dp962
g41
F1.0
s(lp963
(g114
I16
tp964
atp965
a(S'hoffentlich'
p966
(dp967
S'ADV'
p968
F1.0
s(lp969
(g136
I19
tp970
atp971
a(S'gereicht'
p972
(dp973
S'VERB'
p974
F1.0
s(lp975
(g38
I4
tp976
atp977
a(S'es'
p978
(dp979
S'PRON'
p980
F1.0
s(lp981
(g150
I20
tp982
atp983
a(S'dem'
p984
(dp985
S'PRON'
p986
F0.001715
sS'DET'
p987
F0.997573
s(lp988
(g209
I25
tp989
atp990
a(S'europ\xc3\xa4ischen'
p991
(dp992
S'ADJ'
p993
F1.0
s(lp994
(g224
I26
tp995
atp996
a(S'parlament'
p997
(dp998
S'ADJ'
p999
F0.002472
sS'NOUN'
p1000
F0.996167
s(lp1001
(g216
I27
tp1002
atp1003
a(S'zum'
p1004
(dp1005
S'ADP'
p1006
F1.0
s(lp1007
(g7
I0
tp1008
atp1009
a(S'vorteil'
p1010
(dp1011
S'ADJ'
p1012
F0.129468
sS'NOUN'
p1013
F0.863504
s(lp1014
(g165
I23
tp1015
atp1016
a(g91
(dp1017
g41
F1.0
s(lp1018
(g91
I39
tp1019
atp1020
a(S'sich'
p1021
(dp1022
S'PRON'
p1023
F1.0
s(lp1024
tp1025
a(S'vor'
p1026
(dp1027
S'ADV'
p1028
F0.023484
sS'ADP'
p1029
F0.976281
s(lp1030
(g277
I40
tp1031
atp1032
a(S'dem'
p1033
(dp1034
S'PRON'
p1035
F0.453973
sS'DET'
p1036
F0.54226
s(lp1037
(g286
I42
tp1038
atp1039
a(S'treffen'
p1040
(dp1041
S'VERB'
p1042
F1.0
s(lp1043
(g293
I43
tp1044
atp1045
a(S'der'
p1046
(dp1047
S'PRON'
p1048
F0.000706
sS'DET'
p1049
F0.99929
s(lp1050
(g316
I45
tp1051
atp1052
a(S'eu-au\xc3\x9fenminister'
p1053
(dp1054
S'ADJ'
p1055
F0.023098
sS'NOUN'
p1056
F0.959501
s(lp1057
(g330
I47
tp1058
atp1059
a(S'zu'
p1060
(dp1061
S'PRT'
p1062
F0.002092
sS'ADP'
p1063
F0.997213
s(lp1064
(g232
I33
tp1065
atp1066
a(S'den'
p1067
(dp1068
S'PRON'
p1069
F0.000113
sS'DET'
p1070
F0.999885
s(lp1071
(g241
I34
tp1072
atp1073
a(S'tragischen'
p1074
(dp1075
S'ADJ'
p1076
F1.0
s(lp1077
(g255
I35
tp1078
atp1079
a(S'ereignissen'
p1080
(dp1081
S'VERB'
p1082
F0.173869
sS'ADJ'
p1083
F0.681782
s(lp1084
(g248
I36
tp1085
atp1086
a(S'in'
p1087
(dp1088
S'ADP'
p1089
F1.0
s(lp1090
(g553
I37
tp1091
atp1092
a(S'tibet'
p1093
(dp1094
S'ADJ'
p1095
F1.0
s(lp1096
(g268
I38
tp1097
atp1098
a(S'zu'
p1099
(dp1100
S'PRT'
p1101
F0.99997
s(lp1102
(g498
I28
tp1103
atp1104
a(S'\xc3\xa4u\xc3\x9fern'
p1105
(dp1106
S'VERB'
p1107
F1.0
s(lp1108
(g202
I31
tp1109
atp1110
a(g41
(dp1111
g41
F1.0
s(lp1112
(g41
I49
tp1113
atp1114
asS'it'
p1115
(lp1116
(S'a'
p1117
(dp1118
S'CONJ'
p1119
F0.00036
sS'ADP'
p1120
F0.99964
s(lp1121
tp1122
a(S'nome'
p1123
(dp1124
S'NOUN'
p1125
F1.0
s(lp1126
(g14
I1
tp1127
atp1128
a(S'del'
p1129
(dp1130
S'DEF'
p1131
F0.001248
sS'ADP'
p1132
F0.998752
s(lp1133
(g21
I2
tp1134
atp1135
a(S'gruppo'
p1136
(dp1137
S'NOUN'
p1138
F1.0
s(lp1139
(g29
I5
tp1140
atp1141
a(S'pse'
p1142
(dp1143
S'NOUN'
p1144
F0.034116
sS'ADJ'
p1145
F0.965884
s(lp1146
(g38
I4
tp1147
atp1148
a(g41
(dp1149
g41
F1.0
s(lp1150
(g41
I6
tp1151
atp1152
a(g46
(dp1153
g126
F2.7e-05
sg41
F0.999973
s(lp1154
(g46
I7
tp1155
atp1156
a(S'signor'
p1157
(dp1158
S'NOUN'
p1159
F1.0
s(lp1160
(g74
I11
tp1161
atp1162
a(S'presidente'
p1163
(dp1164
S'NOUN'
p1165
F1.0
s(lp1166
(g88
I12
tp1167
atp1168
a(g91
(dp1169
g41
F1.0
s(lp1170
(g91
I13
tp1171
atp1172
a(S'onorevoli'
p1173
(dp1174
S'NOUN'
p1175
F0.040819
sS'ADJ'
p1176
F0.959181
s(lp1177
(g100
I14
tp1178
atp1179
a(S'colleghi'
p1180
(dp1181
S'VERB'
p1182
F0.01303
sS'NOUN'
p1183
F0.986969
s(lp1184
(g114
I16
tp1185
atp1186
a(g91
(dp1187
g41
F1.0
s(lp1188
(g91
I17
tp1189
atp1190
a(S'spero'
p1191
(dp1192
S'VERB'
p1193
F1.0
s(lp1194
(g136
I19
tp1195
atp1196
a(S'sia'
p1197
(dp1198
S'CONJ'
p1199
F0.311523
sS'VERB'
p1200
F0.688477
s(lp1201
(g464
I22
tp1202
atp1203
a(S'utile'
p1204
(dp1205
S'ADJ'
p1206
F0.351592
sS'NOUN'
p1207
F0.648408
s(lp1208
(g165
I23
tp1209
atp1210
a(S'far'
p1211
(dp1212
S'VERB'
p1213
F1.0
s(lp1214
(g179
I29
tp1215
atp1216
a(S'sentire'
p1217
(dp1218
S'VERB'
p1219
F0.991402
sS'NOUN'
p1220
F0.008598
s(lp1221
(g186
I32
tp1222
atp1223
a(S'la'
p1224
(dp1225
S'PRON'
p1226
F8e-06
sS'DET'
p1227
F0.999992
s(lp1228
(g195
I30
tp1229
atp1230
a(S'voce'
p1231
(dp1232
S'NOUN'
p1233
F1.0
s(lp1234
(g202
I31
tp1235
atp1236
a(S'del'
p1237
(dp1238
S'DEF'
p1239
F0.001247
sS'ADP'
p1240
F0.998753
s(lp1241
(g209
I25
tp1242
atp1243
a(S'parlamento'
p1244
(dp1245
S'VERB'
p1246
F0.00032
sS'NOUN'
p1247
F0.99968
s(lp1248
(g216
I27
tp1249
atp1250
a(S'europeo'
p1251
(dp1252
S'NOUN'
p1253
F0.002646
sS'ADJ'
p1254
F0.997354
s(lp1255
(g224
I26
tp1256
atp1257
a(S'sui'
p1258
(dp1259
S'ADP'
p1260
F1.0
s(lp1261
(g232
I33
tp1262
atp1263
a(S'tragici'
p1264
(dp1265
S'ADJ'
p1266
F0.439326
sS'NOUN'
p1267
F0.560674
s(lp1268
(g255
I35
tp1269
atp1270
a(S'fatti'
p1271
(dp1272
S'VERB'
p1273
F0.6378959999999999
sS'NOUN'
p1274
F0.362104
s(lp1275
(g248
I36
tp1276
atp1277
a(S'del'
p1278
(dp1279
S'DEF'
p1280
F0.002901
sS'ADP'
p1281
F0.997099
s(lp1282
(g553
I37
tp1283
atp1284
a(S'tibet'
p1285
(dp1286
S'ADJ'
p1287
F0.052389
sS'NOUN'
p1288
F0.947611
s(lp1289
(g268
I38
tp1290
atp1291
a(S'prima'
p1292
(dp1293
S'ADV'
p1294
F0.165687
sS'NOUN'
p1295
F0.002065
sS'CONJ'
p1296
F0.197496
sS'ADJ'
p1297
F0.628884
sS'ADP'
p1298
F0.005868
s(lp1299
(g277
I40
tp1300
atp1301
a(S'della'
p1302
(dp1303
S'DEF'
p1304
F0.01446
sS'ADP'
p1305
F0.98554
s(lp1306
(g286
I42
tp1307
atp1308
a(S'riunione'
p1309
(dp1310
S'NOUN'
p1311
F1.0
s(lp1312
(g293
I43
tp1313
atp1314
a(S'dei'
p1315
(dp1316
S'NOUN'
p1317
F1e-06
sS'DEF'
p1318
F0.001164
sS'ADP'
p1319
F0.998835
s(lp1320
(g301
I44
tp1321
atp1322
a(S'ministri'
p1323
(dp1324
S'VERB'
p1325
F1.4e-05
sS'NOUN'
p1326
F0.999986
s(lp1327
(g308
I48
tp1328
atp1329
a(S'degli'
p1330
(dp1331
S'DEF'
p1332
F0.002611
sS'ADP'
p1333
F0.997389
s(lp1334
(g316
I45
tp1335
atp1336
a(S'esteri'
p1337
(dp1338
S'ADJ'
p1339
F0.379854
sS'NOUN'
p1340
F0.620146
s(lp1341
(g330
I47
tp1342
atp1343
a(S'europei'
p1344
(dp1345
S'NOUN'
p1346
F0.069731
sS'ADJ'
p1347
F0.930269
s(lp1348
(g338
I46
tp1349
atp1350
a(g41
(dp1351
g41
F1.0
s(lp1352
(g41
I49
tp1353
atp1354
asS'sk'
p1355
(lp1356
(S'v'
p1357
(dp1358
g126
F0.000596
sS'ADP'
p1359
F0.999404
s(lp1360
tp1361
a(S'mene'
p1362
(dp1363
S'NOUN'
p1364
F1.0
s(lp1365
(g14
I1
tp1366
atp1367
a(S'skupiny'
p1368
(dp1369
S'NOUN'
p1370
F1.0
s(lp1371
(g29
I5
tp1372
atp1373
a(S'pse'
p1374
(dp1375
S'NOUN'
p1376
F1.0
s(lp1377
(g38
I4
tp1378
atp1379
a(g41
(dp1380
g41
F1.0
s(lp1381
(g41
I6
tp1382
atp1383
a(g46
(dp1384
g41
F1.0
s(lp1385
(g46
I7
tp1386
atp1387
a(g51
(dp1388
g41
F1.0
s(lp1389
(g51
I8
tp1390
atp1391
a(S'sk'
p1392
(dp1393
g126
F1.0
s(lp1394
(g62
I9
tp1395
atp1396
a(g65
(dp1397
g41
F1.0
s(lp1398
(g65
I10
tp1399
atp1400
a(S'v\xc3\xa1\xc5\xbeen\xc3\xbd'
p1401
(dp1402
S'VERB'
p1403
F0.273237
sS'ADJ'
p1404
F0.726763
s(lp1405
tp1406
a(S'p\xc3\xa1n'
p1407
(dp1408
S'NOUN'
p1409
F1.0
s(lp1410
(g74
I11
tp1411
atp1412
a(S'predseda'
p1413
(dp1414
S'NOUN'
p1415
F1.0
s(lp1416
(g88
I12
tp1417
atp1418
a(g91
(dp1419
g41
F1.0
s(lp1420
(g91
I13
tp1421
atp1422
a(S'd\xc3\xa1my'
p1423
(dp1424
S'NOUN'
p1425
F1.0
s(lp1426
(g100
I14
tp1427
atp1428
a(g1117
(dp1429
g126
F0.0013250000000000002
sS'CONJ'
p1430
F0.997971
sS'NOUN'
p1431
F0.000112
sS'ADP'
p1432
F0.000533
sS'PRT'
p1433
F5.9e-05
s(lp1434
(g107
I15
tp1435
atp1436
a(S'p\xc3\xa1ni'
p1437
(dp1438
S'NOUN'
p1439
F1.0
s(lp1440
(g114
I16
tp1441
atp1442
a(g91
(dp1443
g41
F1.0
s(lp1444
(g91
I17
tp1445
atp1446
a(S'd\xc3\xbafam'
p1447
(dp1448
S'VERB'
p1449
F1.0
s(lp1450
tp1451
a(g91
(dp1452
g41
F1.0
s(lp1453
tp1454
a(S'\xc5\xbee'
p1455
(dp1456
g126
F0.000459
sS'CONJ'
p1457
F0.999541
s(lp1458
(g136
I19
tp1459
atp1460
a(S'bude'
p1461
(dp1462
g126
F7.6e-05
sS'VERB'
p1463
F0.999924
s(lp1464
(g157
I21
tp1465
atp1466
a(S'pre'
p1467
(dp1468
g126
F0.000235
sS'ADP'
p1469
F0.999765
s(lp1470
(g172
I24
tp1471
atp1472
a(S'eur\xc3\xb3psky'
p1473
(dp1474
S'ADJ'
p1475
F1.0
s(lp1476
(g224
I26
tp1477
atp1478
a(S'parlament'
p1479
(dp1480
S'NOUN'
p1481
F1.0
s(lp1482
(g216
I27
tp1483
atp1484
a(S'prospe\xc5\xa1n\xc3\xa9'
p1485
(dp1486
S'ADJ'
p1487
F1.0
s(lp1488
(g165
I23
tp1489
atp1490
a(g91
(dp1491
g41
F1.0
s(lp1492
tp1493
a(S'\xc5\xbee'
p1494
(dp1495
g126
F0.000353
sS'CONJ'
p1496
F0.999647
s(lp1497
(g498
I28
tp1498
atp1499
a(S'jeho'
p1500
(dp1501
S'PRON'
p1502
F0.9999910000000001
sg126
F9e-06
s(lp1503
(g195
I30
tp1504
atp1505
a(S'stanovisko'
p1506
(dp1507
S'NOUN'
p1508
F1.0
s(lp1509
(g202
I31
tp1510
atp1511
a(S'ku'
p1512
(dp1513
g126
F0.000354
sS'ADP'
p1514
F0.999645
s(lp1515
(g232
I33
tp1516
atp1517
a(S'tragick\xc3\xbdm'
p1518
(dp1519
S'NOUN'
p1520
F0.03178
sS'ADJ'
p1521
F0.968219
s(lp1522
(g255
I35
tp1523
atp1524
a(S'udalostiam'
p1525
(dp1526
S'NOUN'
p1527
F1.0
s(lp1528
(g248
I36
tp1529
atp1530
a(g1357
(dp1531
g126
F0.0017150000000000002
sS'ADP'
p1532
F0.998286
s(lp1533
(g553
I37
tp1534
atp1535
a(S'tibete'
p1536
(dp1537
g126
F0.748665
sS'VERB'
p1538
F9e-06
sS'ADJ'
p1539
F0.195046
sS'NOUN'
p1540
F0.05628
s(lp1541
(g268
I38
tp1542
atp1543
a(S'bude'
p1544
(dp1545
g126
F2.7e-05
sS'VERB'
p1546
F0.999972
s(lp1547
(g464
I22
tp1548
atp1549
a(S'po\xc4\x8du\xc5\xa5'
p1550
(dp1551
S'VERB'
p1552
F1.0
s(lp1553
(g186
I32
tp1554
atp1555
a(S'sk\xc3\xb4r'
p1556
(dp1557
S'ADV'
p1558
F0.675824
sg126
F0.323259
sS'CONJ'
p1559
F0.000918
s(lp1560
tp1561
a(g91
(dp1562
g41
F1.0
s(lp1563
(g91
I39
tp1564
atp1565
a(S'ne\xc5\xbe'
p1566
(dp1567
S'CONJ'
p1568
F1.0
s(lp1569
(g277
I40
tp1570
atp1571
a(S'sa'
p1572
(dp1573
S'PRT'
p1574
F0.999971
sS'ADP'
p1575
F0.0
sg126
F2.9e-05
s(lp1576
(g578
I41
tp1577
atp1578
a(S'stretn\xc3\xba'
p1579
(dp1580
S'VERB'
p1581
F1.0
s(lp1582
(g293
I43
tp1583
atp1584
a(S'eur\xc3\xb3pski'
p1585
(dp1586
S'ADJ'
p1587
F1.0
s(lp1588
(g338
I46
tp1589
atp1590
a(S'ministri'
p1591
(dp1592
S'NOUN'
p1593
F1.0
s(lp1594
tp1595
a(S'zahrani\xc4\x8dn\xc3\xbdch'
p1596
(dp1597
S'ADJ'
p1598
F1.0
s(lp1599
(g330
I47
tp1600
atp1601
a(S'vec\xc3\xad'
p1602
(dp1603
S'NOUN'
p1604
F1.0
s(lp1605
(g308
I48
tp1606
atp1607
a(g41
(dp1608
g41
F1.0
s(lp1609
(g41
I49
tp1610
atp1611
asS'pl'
p1612
(lp1613
(S'w'
p1614
(dp1615
S'ADJ'
p1616
F0.0
sg126
F0.0
sS'NOUN'
p1617
F0.0
sS'ADP'
p1618
F1.0
s(lp1619
(g7
I0
tp1620
atp1621
a(S'imieniu'
p1622
(dp1623
S'NOUN'
p1624
F1.0
s(lp1625
(g14
I1
tp1626
atp1627
a(S'grupy'
p1628
(dp1629
S'NOUN'
p1630
F1.000001
s(lp1631
(g29
I5
tp1632
atp1633
a(S'pse'
p1634
(dp1635
S'ADV'
p1636
F0.001279
sS'NOUN'
p1637
F0.9745770000000001
sS'PRT'
p1638
F0.000322
sS'VERB'
p1639
F0.001221
sg126
F0.0011099999999999999
sS'ADJ'
p1640
F0.021492999999999995
s(lp1641
(g38
I4
tp1642
atp1643
a(g41
(dp1644
g41
F1.0
s(lp1645
(g41
I6
tp1646
atp1647
a(g46
(dp1648
g126
F0.001075
sS'NUM'
p1649
F0.0
sS'NOUN'
p1650
F0.001806
sg41
F0.997119
s(lp1651
(g46
I7
tp1652
atp1653
a(g51
(dp1654
S'NOUN'
p1655
F0.000101
sg41
F0.999899
s(lp1656
(g51
I8
tp1657
atp1658
a(S'it'
p1659
(dp1660
g126
F1.0
s(lp1661
(g62
I9
tp1662
atp1663
a(g65
(dp1664
g41
F1.0
s(lp1665
(g65
I10
tp1666
atp1667
a(S'panie'
p1668
(dp1669
S'NOUN'
p1670
F0.999999
s(lp1671
(g74
I11
tp1672
atp1673
a(S'przewodnicz\xc4\x85cy'
p1674
(dp1675
S'VERB'
p1676
F0.000901
sS'NOUN'
p1677
F0.999099
s(lp1678
(g88
I12
tp1679
atp1680
a(g91
(dp1681
g126
F0.0
sg41
F1.0
s(lp1682
(g91
I13
tp1683
atp1684
a(S'panie'
p1685
(dp1686
S'NOUN'
p1687
F1.0000010000000001
s(lp1688
(g100
I14
tp1689
atp1690
a(g128
(dp1691
S'PRT'
p1692
F0.003492
sS'CONJ'
p1693
F0.99649
sS'PRON'
p1694
F6e-06
sS'NOUN'
p1695
F5.999999999999999e-06
sg126
F7e-06
s(lp1696
(g107
I15
tp1697
atp1698
a(S'panowie'
p1699
(dp1700
S'NOUN'
p1701
F1.0
s(lp1702
tp1703
a(g961
(dp1704
g41
F1.0
s(lp1705
(g114
I16
tp1706
atp1707
a(S'mam'
p1708
(dp1709
S'VERB'
p1710
F0.999999
sS'NOUN'
p1711
F1e-06
s(lp1712
tp1713
a(S'nadziej\xc4\x99'
p1714
(dp1715
S'NOUN'
p1716
F1.0
s(lp1717
(g136
I19
tp1718
atp1719
a(g91
(dp1720
g126
F0.0
sg41
F1.0
s(lp1721
(g91
I17
tp1722
atp1723
a(S'\xc5\xbce'
p1724
(dp1725
S'PRT'
p1726
F0.000611
sS'CONJ'
p1727
F0.999389
s(lp1728
(g128
I18
tp1729
atp1730
a(g91
(dp1731
g126
F3e-06
sg41
F0.999997
s(lp1732
(g91
I39
tp1733
atp1734
a(S'przed'
p1735
(dp1736
S'ADP'
p1737
F1.0
s(lp1738
(g277
I40
tp1739
atp1740
a(S'spotkaniem'
p1741
(dp1742
S'VERB'
p1743
F0.08238
sS'NOUN'
p1744
F0.91762
s(lp1745
(g293
I43
tp1746
atp1747
a(S'europejskich'
p1748
(dp1749
S'ADJ'
p1750
F1.0
s(lp1751
(g338
I46
tp1752
atp1753
a(S'ministr\xc3\xb3w'
p1754
(dp1755
S'NOUN'
p1756
F1.0
s(lp1757
tp1758
a(S'spraw'
p1759
(dp1760
S'VERB'
p1761
F3e-06
sS'NOUN'
p1762
F0.999997
s(lp1763
(g308
I48
tp1764
atp1765
a(S'zagranicznych'
p1766
(dp1767
S'ADJ'
p1768
F1.0
s(lp1769
(g330
I47
tp1770
atp1771
a(g91
(dp1772
g126
F0.0
sg41
F1.0
s(lp1773
tp1774
a(S'to'
p1775
(dp1776
S'NOUN'
p1777
F0.13483900000000001
sS'ADP'
p1778
F0.0
sS'PRT'
p1779
F0.140307
sg126
F4e-06
sS'CONJ'
p1780
F0.028459
sS'ADJ'
p1781
F0.696392
s(lp1782
(g150
I20
tp1783
atp1784
a(S'b\xc4\x99dzie'
p1785
(dp1786
S'VERB'
p1787
F1.0
s(lp1788
(g157
I21
tp1789
atp1790
a(S'z'
p1791
(dp1792
S'PRT'
p1793
F1.3e-05
sS'VERB'
p1794
F1e-06
sS'NOUN'
p1795
F1e-06
sS'ADP'
p1796
F0.9999840000000001
sg126
F0.0
s(lp1797
tp1798
a(S'po\xc5\xbcytkiem'
p1799
(dp1800
S'ADV'
p1801
F1.3e-05
sS'ADJ'
p1802
F5.4e-05
sS'VERB'
p1803
F0.07089500000000001
sS'NOUN'
p1804
F0.9290380000000001
s(lp1805
(g165
I23
tp1806
atp1807
a(S'dla'
p1808
(dp1809
S'ADP'
p1810
F1.0
s(lp1811
(g172
I24
tp1812
atp1813
a(S'parlamentu'
p1814
(dp1815
S'NOUN'
p1816
F1.0
s(lp1817
(g216
I27
tp1818
atp1819
a(S'europejskiego'
p1820
(dp1821
S'ADJ'
p1822
F1.0
s(lp1823
(g224
I26
tp1824
atp1825
a(g91
(dp1826
g126
F0.0
sg41
F1.0
s(lp1827
tp1828
a(S'by'
p1829
(dp1830
S'NOUN'
p1831
F2e-05
sS'ADP'
p1832
F7e-06
sS'PRT'
p1833
F0.603055
sS'VERB'
p1834
F1e-06
sg126
F5e-06
sS'CONJ'
p1835
F0.396913
s(lp1836
(g498
I28
tp1837
atp1838
a(S'us\xc5\x82yszano'
p1839
(dp1840
S'ADV'
p1841
F0.021925
sS'ADJ'
p1842
F0.000458
sS'VERB'
p1843
F0.965223
sS'NOUN'
p1844
F0.012396999999999997
s(lp1845
(g186
I32
tp1846
atp1847
a(S'jego'
p1848
(dp1849
S'PRON'
p1850
F0.9999990000000002
s(lp1851
(g195
I30
tp1852
atp1853
a(S'g\xc5\x82os'
p1854
(dp1855
S'NOUN'
p1856
F1.0
s(lp1857
(g202
I31
tp1858
atp1859
a(g1614
(dp1860
S'ADJ'
p1861
F0.0
sg126
F0.0
sS'NOUN'
p1862
F0.0
sS'ADP'
p1863
F1.0
s(lp1864
tp1865
a(S'sprawie'
p1866
(dp1867
S'NOUN'
p1868
F1.0
s(lp1869
(g232
I33
tp1870
atp1871
a(S'tragicznych'
p1872
(dp1873
S'ADJ'
p1874
F0.9999999999999999
s(lp1875
(g255
I35
tp1876
atp1877
a(S'wydarze\xc5\x84'
p1878
(dp1879
S'NOUN'
p1880
F1.0
s(lp1881
(g248
I36
tp1882
atp1883
a(g1614
(dp1884
S'ADJ'
p1885
F0.0
sg126
F0.0
sS'NOUN'
p1886
F0.0
sS'ADP'
p1887
F1.000001
s(lp1888
(g553
I37
tp1889
atp1890
a(S'tybecie'
p1891
(dp1892
S'ADV'
p1893
F0.000594
sS'NOUN'
p1894
F0.998998
sS'PRT'
p1895
F1e-06
sS'VERB'
p1896
F1e-05
sS'NUM'
p1897
F6e-06
sS'ADJ'
p1898
F0.00039000000000000005
s(lp1899
(g268
I38
tp1900
atp1901
a(g41
(dp1902
g41
F1.0
s(lp1903
(g41
I49
tp1904
atp1905
asS'sl'
p1906
(lp1907
(g1357
(dp1908
S'ADP'
p1909
F1.0
s(lp1910
(g14
I1
tp1911
atp1912
a(S'imenu'
p1913
(dp1914
S'NOUN'
p1915
F1.0
s(lp1916
tp1917
a(S'skupine'
p1918
(dp1919
S'NOUN'
p1920
F1.0
s(lp1921
(g14
I1
tp1922
atp1923
a(S'pse'
p1924
(dp1925
S'NOUN'
p1926
F1.0
s(lp1927
(g38
I4
tp1928
atp1929
a(g41
(dp1930
g41
F1.0
s(lp1931
(g41
I6
tp1932
atp1933
a(g46
(dp1934
g41
F1.0
s(lp1935
(g46
I7
tp1936
atp1937
a(g51
(dp1938
g41
F1.0
s(lp1939
(g51
I8
tp1940
atp1941
a(S'it'
p1942
(dp1943
S'ADV'
p1944
F0.008238
sS'NOUN'
p1945
F0.931016
sS'NUM'
p1946
F2e-05
sg126
F0.059577
sS'ADJ'
p1947
F0.001133
sS'VERB'
p1948
F1.5e-05
s(lp1949
(g62
I9
tp1950
atp1951
a(g65
(dp1952
g41
F1.0
s(lp1953
(g65
I10
tp1954
atp1955
a(S'gospod'
p1956
(dp1957
S'NOUN'
p1958
F1.0
s(lp1959
(g74
I11
tp1960
atp1961
a(S'predsednik'
p1962
(dp1963
S'NOUN'
p1964
F1.0
s(lp1965
(g88
I12
tp1966
atp1967
a(g91
(dp1968
g41
F1.0
s(lp1969
(g91
I13
tp1970
atp1971
a(S'gospe'
p1972
(dp1973
S'NOUN'
p1974
F1.0
s(lp1975
(g100
I14
tp1976
atp1977
a(S'in'
p1978
(dp1979
S'ADV'
p1980
F2.2e-05
sg126
F1.4e-05
sS'CONJ'
p1981
F0.999957
sS'NOUN'
p1982
F7e-06
s(lp1983
(g107
I15
tp1984
atp1985
a(S'gospodje'
p1986
(dp1987
S'NOUN'
p1988
F1.0
s(lp1989
(g114
I16
tp1990
atp1991
a(g91
(dp1992
g41
F1.0
s(lp1993
(g91
I17
tp1994
atp1995
a(S'upam'
p1996
(dp1997
S'VERB'
p1998
F1.0
s(lp1999
(g136
I19
tp2000
atp2001
a(S'da'
p2002
(dp2003
S'PRT'
p2004
F0.004437
sS'CONJ'
p2005
F0.995396
sS'VERB'
p2006
F0.000151
sg126
F1.7e-05
s(lp2007
(g172
I24
tp2008
atp2009
a(S'bo'
p2010
(dp2011
S'VERB'
p2012
F1.0
s(lp2013
(g157
I21
tp2014
atp2015
a(S'evropskemu'
p2016
(dp2017
S'ADJ'
p2018
F1.0
s(lp2019
(g224
I26
tp2020
atp2021
a(S'parlamentu'
p2022
(dp2023
S'NOUN'
p2024
F1.0
s(lp2025
(g216
I27
tp2026
atp2027
a(S'koristilo'
p2028
(dp2029
S'VERB'
p2030
F1.0
s(lp2031
(g165
I23
tp2032
atp2033
a(g91
(dp2034
g41
F1.0
s(lp2035
tp2036
a(S'\xc4\x8de'
p2037
(dp2038
S'CONJ'
p2039
F1.0
s(lp2040
(g498
I28
tp2041
atp2042
a(S'bo'
p2043
(dp2044
S'VERB'
p2045
F1.0
s(lp2046
(g179
I29
tp2047
atp2048
a(S'sli\xc5\xa1an'
p2049
(dp2050
S'ADV'
p2051
F0.012793
sS'ADJ'
p2052
F0.165922
sS'VERB'
p2053
F0.6295929999999998
sS'NOUN'
p2054
F0.19146800000000003
sg126
F0.000226
s(lp2055
(g186
I32
tp2056
atp2057
a(S'njegov'
p2058
(dp2059
S'PRON'
p2060
F1.0000000000000002
s(lp2061
(g195
I30
tp2062
atp2063
a(S'glas'
p2064
(dp2065
S'NOUN'
p2066
F1.0
s(lp2067
(g202
I31
tp2068
atp2069
a(S'o'
p2070
(dp2071
S'NOUN'
p2072
F1.7e-05
sS'ADP'
p2073
F0.999983
s(lp2074
(g232
I33
tp2075
atp2076
a(S'tragi\xc4\x8dnih'
p2077
(dp2078
S'ADV'
p2079
F0.0
sS'NOUN'
p2080
F0.000768
sS'VERB'
p2081
F0.0
sS'ADJ'
p2082
F0.99923
s(lp2083
(g255
I35
tp2084
atp2085
a(S'dogodkih'
p2086
(dp2087
S'NOUN'
p2088
F1.0
s(lp2089
(g248
I36
tp2090
atp2091
a(g1357
(dp2092
S'ADP'
p2093
F1.0
s(lp2094
(g553
I37
tp2095
atp2096
a(S'tibetu'
p2097
(dp2098
S'ADV'
p2099
F6.2e-05
sS'ADJ'
p2100
F0.000126
sS'VERB'
p2101
F2.8000000000000006e-05
sS'NOUN'
p2102
F0.999787
s(lp2103
(g268
I38
tp2104
atp2105
a(S'pred'
p2106
(dp2107
S'ADP'
p2108
F1.0
s(lp2109
(g277
I40
tp2110
atp2111
a(S'sre\xc4\x8danjem'
p2112
(dp2113
S'NOUN'
p2114
F1.0
s(lp2115
(g293
I43
tp2116
atp2117
a(S'evropskih'
p2118
(dp2119
S'ADJ'
p2120
F0.9999999999999999
s(lp2121
(g338
I46
tp2122
atp2123
a(S'zunanjih'
p2124
(dp2125
S'ADJ'
p2126
F1.000001
s(lp2127
(g330
I47
tp2128
atp2129
a(S'ministrov'
p2130
(dp2131
S'NOUN'
p2132
F1.0
s(lp2133
(g308
I48
tp2134
atp2135
a(g41
(dp2136
g41
F1.0
s(lp2137
(g41
I49
tp2138
atp2139
asS'es'
p2140
(lp2141
(S'en'
p2142
(dp2143
g126
F0.002093
sS'CONJ'
p2144
F4.7e-05
sS'ADP'
p2145
F0.99786
s(lp2146
(g7
I0
tp2147
atp2148
a(S'nombre'
p2149
(dp2150
S'NOUN'
p2151
F1.0
s(lp2152
(g14
I1
tp2153
atp2154
a(S'del'
p2155
(dp2156
S'ADP'
p2157
F1.0
s(lp2158
(g21
I2
tp2159
atp2160
a(S'grupo'
p2161
(dp2162
S'NOUN'
p2163
F1.0
s(lp2164
(g29
I5
tp2165
atp2166
a(S'del'
p2167
(dp2168
S'ADP'
p2169
F1.0
s(lp2170
tp2171
a(S'pse'
p2172
(dp2173
S'ADJ'
p2174
F0.001394
sS'VERB'
p2175
F0.0
sS'NOUN'
p2176
F0.998606
s(lp2177
(g38
I4
tp2178
atp2179
a(g41
(dp2180
g41
F1.0
s(lp2181
(g41
I6
tp2182
atp2183
a(g46
(dp2184
g41
F1.0
s(lp2185
(g46
I7
tp2186
atp2187
a(g51
(dp2188
g41
F1.0
s(lp2189
(g51
I8
tp2190
atp2191
a(S'it'
p2192
(dp2193
S'ADJ'
p2194
F0.011203
sS'NOUN'
p2195
F0.9887980000000001
s(lp2196
(g62
I9
tp2197
atp2198
a(g65
(dp2199
g41
F1.0
s(lp2200
(g65
I10
tp2201
atp2202
a(S'se\xc3\xb1or'
p2203
(dp2204
S'NOUN'
p2205
F1.0
s(lp2206
(g74
I11
tp2207
atp2208
a(S'presidente'
p2209
(dp2210
S'NOUN'
p2211
F1.0
s(lp2212
(g88
I12
tp2213
atp2214
a(g91
(dp2215
g41
F1.0
s(lp2216
(g91
I13
tp2217
atp2218
a(S'se\xc3\xb1or\xc3\xadas'
p2219
(dp2220
S'NOUN'
p2221
F1.0
s(lp2222
(g100
I14
tp2223
atp2224
a(g91
(dp2225
g41
F1.0
s(lp2226
(g91
I17
tp2227
atp2228
a(S'espero'
p2229
(dp2230
S'VERB'
p2231
F1.0
s(lp2232
(g136
I19
tp2233
atp2234
a(S'que'
p2235
(dp2236
g126
F0.0
sS'CONJ'
p2237
F1.0
s(lp2238
(g150
I20
tp2239
atp2240
a(S'el'
p2241
(dp2242
S'PRON'
p2243
F5.8e-05
sS'DET'
p2244
F0.999942
s(lp2245
tp2246
a(S'hecho'
p2247
(dp2248
S'ADJ'
p2249
F0.007453
sS'VERB'
p2250
F0.024971
sS'NOUN'
p2251
F0.967577
s(lp2252
(g150
I20
tp2253
atp2254
a(S'de'
p2255
(dp2256
g126
F0.0
sS'CONJ'
p2257
F0.005752
sS'ADP'
p2258
F0.994247
s(lp2259
tp2260
a(S'que'
p2261
(dp2262
g126
F0.0
sS'CONJ'
p2263
F1.0
s(lp2264
(g172
I24
tp2265
atp2266
a(S'el'
p2267
(dp2268
S'PRON'
p2269
F0.000517
sS'DET'
p2270
F0.999483
s(lp2271
(g209
I25
tp2272
atp2273
a(S'parlamento'
p2274
(dp2275
S'VERB'
p2276
F0.000566
sS'NOUN'
p2277
F0.999434
s(lp2278
(g216
I27
tp2279
atp2280
a(S'europeo'
p2281
(dp2282
S'NOUN'
p2283
F0.001114
sS'ADJ'
p2284
F0.998886
s(lp2285
(g224
I26
tp2286
atp2287
a(S'haga'
p2288
(dp2289
S'VERB'
p2290
F1.0
s(lp2291
(g179
I29
tp2292
atp2293
a(S'o\xc3\xadr'
p2294
(dp2295
S'VERB'
p2296
F1.0
s(lp2297
(g186
I32
tp2298
atp2299
a(S'su'
p2300
(dp2301
S'PRON'
p2302
F1.0
s(lp2303
(g195
I30
tp2304
atp2305
a(S'opini\xc3\xb3n'
p2306
(dp2307
S'NOUN'
p2308
F1.0
s(lp2309
(g202
I31
tp2310
atp2311
a(g91
(dp2312
g41
F1.0
s(lp2313
(g91
I39
tp2314
atp2315
a(S'antes'
p2316
(dp2317
S'ADV'
p2318
F0.998802
sS'NOUN'
p2319
F0.001198
s(lp2320
(g277
I40
tp2321
atp2322
a(S'de'
p2323
(dp2324
g126
F0.0
sS'CONJ'
p2325
F0.000119
sS'ADP'
p2326
F0.999881
s(lp2327
(g578
I41
tp2328
atp2329
a(S'la'
p2330
(dp2331
S'NOUN'
p2332
F0.0
sS'PRON'
p2333
F0.0
sS'DET'
p2334
F0.999999
sg126
F0.0
s(lp2335
(g286
I42
tp2336
atp2337
a(S'reuni\xc3\xb3n'
p2338
(dp2339
S'NOUN'
p2340
F1.0
s(lp2341
(g293
I43
tp2342
atp2343
a(S'de'
p2344
(dp2345
g126
F0.0
sS'CONJ'
p2346
F1.7e-05
sS'ADP'
p2347
F0.999983
s(lp2348
(g301
I44
tp2349
atp2350
a(S'los'
p2351
(dp2352
S'PRON'
p2353
F0.0
sS'DET'
p2354
F1.0
s(lp2355
(g316
I45
tp2356
atp2357
a(S'ministros'
p2358
(dp2359
S'NOUN'
p2360
F1.0
s(lp2361
(g308
I48
tp2362
atp2363
a(S'europeos'
p2364
(dp2365
S'NOUN'
p2366
F0.073937
sS'ADJ'
p2367
F0.926063
s(lp2368
(g338
I46
tp2369
atp2370
a(S'de'
p2371
(dp2372
g126
F3.1e-05
sS'CONJ'
p2373
F0.001408
sS'ADP'
p2374
F0.998561
s(lp2375
tp2376
a(S'asuntos'
p2377
(dp2378
S'NOUN'
p2379
F1.0
s(lp2380
tp2381
a(S'exteriores'
p2382
(dp2383
S'ADJ'
p2384
F1.0
s(lp2385
(g330
I47
tp2386
atp2387
a(g91
(dp2388
g41
F1.0
s(lp2389
tp2390
a(S'sobre'
p2391
(dp2392
S'NOUN'
p2393
F0.0
sS'ADP'
p2394
F1.0
s(lp2395
(g232
I33
tp2396
atp2397
a(S'los'
p2398
(dp2399
S'PRON'
p2400
F0.0
sS'DET'
p2401
F1.0
s(lp2402
(g241
I34
tp2403
atp2404
a(S'tr\xc3\xa1gicos'
p2405
(dp2406
S'ADJ'
p2407
F1.0
s(lp2408
(g255
I35
tp2409
atp2410
a(S'acontecimientos'
p2411
(dp2412
S'NOUN'
p2413
F1.0
s(lp2414
tp2415
a(S'ocurridos'
p2416
(dp2417
S'VERB'
p2418
F0.089777
sS'ADJ'
p2419
F0.910223
s(lp2420
(g248
I36
tp2421
atp2422
a(S'en'
p2423
(dp2424
g126
F0.0
sS'CONJ'
p2425
F1e-06
sS'ADP'
p2426
F0.999999
s(lp2427
(g553
I37
tp2428
atp2429
a(S'el'
p2430
(dp2431
S'PRON'
p2432
F5e-06
sS'DET'
p2433
F0.999995
s(lp2434
tp2435
a(S't\xc3\xadbet'
p2436
(dp2437
S'ADJ'
p2438
F0.00111
sS'NOUN'
p2439
F0.9988900000000001
s(lp2440
(g268
I38
tp2441
atp2442
a(S'tenga'
p2443
(dp2444
S'VERB'
p2445
F1.0
s(lp2446
(g157
I21
tp2447
atp2448
a(S'su'
p2449
(dp2450
S'PRON'
p2451
F1.0
s(lp2452
(g464
I22
tp2453
atp2454
a(S'utilidad'
p2455
(dp2456
S'NOUN'
p2457
F1.0
s(lp2458
(g165
I23
tp2459
atp2460
a(g41
(dp2461
g41
F1.0
s(lp2462
(g41
I49
tp2463
atp2464
as.