(dp0
S'fr'
p1
(lp2
(S'cela'
p3
(dp4
S'PRON'
p5
F0.999236
sS'VERB'
p6
F0.000764
s(lp7
(S'this'
p8
I0
tp9
atp10
a(S'ne'
p11
(dp12
S'ADV'
p13
F1.0
s(lp14
tp15
a(S'nous'
p16
(dp17
S'PRON'
p18
F1.0
s(lp19
(S'us'
p20
I2
tp21
atp22
a(S'laisse'
p23
(dp24
S'VERB'
p25
F0.99932
sS'NOUN'
p26
F0.00068
s(lp27
(S'leads'
p28
I1
tp29
atp30
a(S"d'"
p31
(dp32
S'NOUN'
p33
F0.087848
sS'VERB'
p34
F0.799497
sS'ADJ'
p35
F0.112655
s(lp36
tp37
a(S'autre'
p38
(dp39
S'ADJ'
p40
F1.0
s(lp41
(S'pursued'
p42
I7
tp43
atp44
a(S'choix'
p45
(dp46
S'NOUN'
p47
F1.0
s(lp48
tp49
a(S'que'
p50
(dp51
S'ADV'
p52
F0.022543
sS'PRON'
p53
F0.085066
sS'CONJ'
p54
F0.892391
s(lp55
tp56
a(S'de'
p57
(dp58
S'ADP'
p59
F1.0
s(lp60
(S'to'
p61
I3
tp62
atp63
a(S'condamner'
p64
(dp65
S'VERB'
p66
F1.0
s(lp67
(S'condemn'
p68
I4
tp69
atp70
a(S'les'
p71
(dp72
S'PRON'
p73
F0.000901
sS'DET'
p74
F0.999062
sS'ADP'
p75
F3.7e-05
s(lp76
(S'the'
p77
I5
tp78
atp79
a(S'politiques'
p80
(dp81
S'NOUN'
p82
F0.233084
sS'VERB'
p83
F0.00088
sS'ADJ'
p84
F0.766036
s(lp85
(S'policies'
p86
I6
tp87
atp88
a(S'appliqu\xc3\xa9es'
p89
(dp90
S'VERB'
p91
F0.97161
sS'ADJ'
p92
F0.02839
s(lp93
(g42
I7
tp94
atp95
a(S'par'
p96
(dp97
S'NOUN'
p98
F0.0
sS'ADP'
p99
F1.0
s(lp100
(S'by'
p101
I8
tp102
atp103
a(S'le'
p104
(dp105
S'PRON'
p106
F6.2e-05
sS'DET'
p107
F0.999938
s(lp108
(S'the'
p109
I9
tp110
atp111
a(S'r\xc3\xa9gime'
p112
(dp113
S'NOUN'
p114
F1.0
s(lp115
(S'regime'
p116
I11
tp117
atp118
a(S'iranien'
p119
(dp120
S'ADJ'
p121
F1.0
s(lp122
(S'iranian'
p123
I10
tp124
atp125
a(S'.'
p126
(dp127
g126
F1.0
s(lp128
(g126
I12
tp129
atp130
asS'en'
p131
(lp132
(g8
(dp133
S'ADV'
p134
F0.001183
sS'NOUN'
p135
F0.00052
sS'DET'
p136
F0.998297
s(lp137
(g8
I0
tp138
atp139
a(g28
(dp140
S'VERB'
p141
F0.742711
sS'NOUN'
p142
F0.257289
s(lp143
(g28
I1
tp144
atp145
a(g20
(dp146
S'PRON'
p147
F1.0
s(lp148
(g20
I2
tp149
atp150
a(g61
(dp151
S'ADV'
p152
F1e-06
sS'PRT'
p153
F0.999999
sS'ADP'
p154
F0.0
s(lp155
(g61
I3
tp156
atp157
a(g68
(dp158
S'VERB'
p159
F1.0
s(lp160
(g68
I4
tp161
atp162
a(g77
(dp163
S'NOUN'
p164
F5e-06
sS'DET'
p165
F0.999995
s(lp166
(g77
I5
tp167
atp168
a(g86
(dp169
S'NOUN'
p170
F1.0
s(lp171
(g86
I6
tp172
atp173
a(g42
(dp174
S'VERB'
p175
F0.9903230000000001
sS'ADJ'
p176
F0.009677
s(lp177
(g42
I7
tp178
atp179
a(g101
(dp180
S'ADV'
p181
F0.000239
sS'NOUN'
p182
F0.0
sS'ADP'
p183
F0.999761
s(lp184
(g101
I8
tp185
atp186
a(g109
(dp187
S'NOUN'
p188
F1e-06
sS'DET'
p189
F0.999999
s(lp190
(g109
I9
tp191
atp192
a(g123
(dp193
S'NOUN'
p194
F0.157877
sS'ADJ'
p195
F0.842123
s(lp196
(g123
I10
tp197
atp198
a(g116
(dp199
S'NOUN'
p200
F1.0
s(lp201
(g116
I11
tp202
atp203
a(g126
(dp204
g126
F1.0
s(lp205
(g126
I12
tp206
atp207
asS'nl'
p208
(lp209
(S'wij'
p210
(dp211
S'PRON'
p212
F1.0
s(lp213
(g20
I2
tp214
atp215
a(S'kunnen'
p216
(dp217
S'VERB'
p218
F0.999983
sS'NOUN'
p219
F1.7e-05
s(lp220
(g61
I3
tp221
atp222
a(S'dan'
p223
(dp224
S'ADV'
p225
F0.880015
sS'CONJ'
p226
F0.119985
s(lp227
(g8
I0
tp228
atp229
a(S'ook'
p230
(dp231
S'ADV'
p232
F1.0
s(lp233
tp234
a(S'niet'
p235
(dp236
S'ADV'
p237
F0.999996
sS'PRON'
p238
F3e-06
sS'VERB'
p239
F1e-06
sS'X'
p240
F0.0
s(lp241
(g68
I4
tp242
atp243
a(S'anders'
p244
(dp245
S'ADV'
p246
F0.040768
sS'ADJ'
p247
F0.959232
s(lp248
tp249
a(S'dan'
p250
(dp251
S'ADV'
p252
F0.025962
sS'CONJ'
p253
F0.974038
s(lp254
(g28
I1
tp255
atp256
a(S'het'
p257
(dp258
S'PRON'
p259
F0.020423
sS'DET'
p260
F0.979576
s(lp261
(g77
I5
tp262
atp263
a(S'beleid'
p264
(dp265
S'NOUN'
p266
F1.0
s(lp267
(g86
I6
tp268
atp269
a(S'van'
p270
(dp271
S'ADP'
p272
F1.0
s(lp273
(g101
I8
tp274
atp275
a(S'dit'
p276
(dp277
S'PRON'
p278
F1.0
s(lp279
(g109
I9
tp280
atp281
a(S'iraanse'
p282
(dp283
S'NOUN'
p284
F0.453718
sS'ADJ'
p285
F0.546282
s(lp286
(g123
I10
tp287
atp288
a(S'regime'
p289
(dp290
S'NOUN'
p291
F1.0
s(lp292
(g116
I11
tp293
atp294
a(S'afkeuren'
p295
(dp296
S'VERB'
p297
F0.999866
sS'NOUN'
p298
F0.000134
s(lp299
(g68
I4
tp300
atp301
a(g126
(dp302
g126
F1.0
s(lp303
(g126
I12
tp304
atp305
asS'de'
p306
(lp307
(S'folglich'
p308
(dp309
S'ADV'
p310
F1.0
s(lp311
(g28
I1
tp312
atp313
a(S'verurteilen'
p314
(dp315
S'VERB'
p316
F1.0
s(lp317
(g68
I4
tp318
atp319
a(S'wir'
p320
(dp321
S'PRON'
p322
F1.0
s(lp323
(g20
I2
tp324
atp325
a(S'die'
p326
(dp327
S'PRON'
p328
F0.224522
sS'DET'
p329
F0.714529
s(lp330
(g77
I5
tp331
atp332
a(S'vom'
p333
(dp334
S'ADP'
p335
F1.0
s(lp336
(g101
I8
tp337
atp338
a(S'iranischen'
p339
(dp340
S'ADJ'
p341
F1.0
s(lp342
(g123
I10
tp343
atp344
a(S'regime'
p345
(dp346
S'ADJ'
p347
F0.089768
sS'NOUN'
p348
F0.906755
s(lp349
(g116
I11
tp350
atp351
a(S'verfolgte'
p352
(dp353
S'VERB'
p354
F0.60464
sS'ADJ'
p355
F0.39536
s(lp356
(g42
I7
tp357
atp358
a(S'politik'
p359
(dp360
S'ADJ'
p361
F0.408013
sS'NOUN'
p362
F0.586041
s(lp363
(g86
I6
tp364
atp365
a(g126
(dp366
g126
F1.0
s(lp367
(g126
I12
tp368
atp369
asS'it'
p370
(lp371
(S'tutto'
p372
(dp373
S'ADV'
p374
F0.779265
sS'PRON'
p375
F0.173832
sS'ADJ'
p376
F0.044731
sS'NOUN'
p377
F0.002172
s(lp378
tp379
a(S'questo'
p380
(dp381
S'PRON'
p382
F1.0
s(lp383
(g8
I0
tp384
atp385
a(S'ci'
p386
(dp387
S'ADV'
p388
F0.000411
sS'PRON'
p389
F0.9993730000000001
sS'NOUN'
p390
F0.000216
s(lp391
(g20
I2
tp392
atp393
a(S'induce'
p394
(dp395
S'VERB'
p396
F1.0
s(lp397
(g28
I1
tp398
atp399
a(S'a'
p400
(dp401
S'CONJ'
p402
F0.000131
sS'ADP'
p403
F0.999869
s(lp404
(g61
I3
tp405
atp406
a(S'condannare'
p407
(dp408
S'VERB'
p409
F1.0
s(lp410
(g68
I4
tp411
atp412
a(S'le'
p413
(dp414
S'PRON'
p415
F0.0
sS'DET'
p416
F1.0
s(lp417
tp418
a(S'politiche'
p419
(dp420
S'ADJ'
p421
F0.360692
sS'NOUN'
p422
F0.639308
s(lp423
(g86
I6
tp424
atp425
a(S'perseguite'
p426
(dp427
S'VERB'
p428
F1.0
s(lp429
(g42
I7
tp430
atp431
a(S'dal'
p432
(dp433
S'ADP'
p434
F1.0
s(lp435
(g101
I8
tp436
atp437
a(S'governo'
p438
(dp439
S'VERB'
p440
F0.000127
sS'NOUN'
p441
F0.999873
s(lp442
(g116
I11
tp443
atp444
a(S'iraniano'
p445
(dp446
S'NOUN'
p447
F0.006229
sS'ADJ'
p448
F0.993771
s(lp449
(g123
I10
tp450
atp451
a(g126
(dp452
g126
F1.0
s(lp453
(g126
I12
tp454
atp455
asS'sk'
p456
(lp457
(S'to'
p458
(dp459
S'PRON'
p460
F0.815947
sS'CONJ'
p461
F0.09212
sg240
F0.091934
s(lp462
(g8
I0
tp463
atp464
a(S'n\xc3\xa1s'
p465
(dp466
S'PRON'
p467
F0.998207
sg240
F0.001793
s(lp468
(g20
I2
tp469
atp470
a(S'vedie'
p471
(dp472
S'VERB'
p473
F1.0
s(lp474
tp475
a(S'k'
p476
(dp477
g240
F0.000389
sS'NOUN'
p478
F9e-06
sS'ADP'
p479
F0.999602
s(lp480
(g28
I1
tp481
atp482
a(S'ods\xc3\xbadeniu'
p483
(dp484
S'NOUN'
p485
F1.0
s(lp486
(g68
I4
tp487
atp488
a(S'politiky'
p489
(dp490
S'NOUN'
p491
F1.0
s(lp492
(g86
I6
tp493
atp494
a(S'ir\xc3\xa1nskeho'
p495
(dp496
S'ADJ'
p497
F1.0
s(lp498
(g123
I10
tp499
atp500
a(S're\xc5\xbeimu'
p501
(dp502
S'NOUN'
p503
F1.0
s(lp504
(g116
I11
tp505
atp506
a(g126
(dp507
g126
F1.0
s(lp508
(g126
I12
tp509
atp510
asS'pl'
p511
(lp512
(S'prowadzi'
p513
(dp514
S'VERB'
p515
F1.0
s(lp516
(g28
I1
tp517
atp518
a(S'nas'
p519
(dp520
S'PRON'
p521
F1.0
s(lp522
(g20
I2
tp523
atp524
a(S'to'
p525
(dp526
S'NOUN'
p527
F0.622473
sS'ADP'
p528
F4.4e-05
sS'PRT'
p529
F0.17423
sg240
F9e-06
sS'CONJ'
p530
F0.107072
sS'ADJ'
p531
F0.09617400000000001
s(lp532
(g8
I0
tp533
atp534
a(S'do'
p535
(dp536
g240
F0.0
sS'NOUN'
p537
F5e-06
sS'ADP'
p538
F0.999995
s(lp539
(g61
I3
tp540
atp541
a(S'pot\xc4\x99pienia'
p542
(dp543
S'VERB'
p544
F1.0
s(lp545
(g68
I4
tp546
atp547
a(S'strategii'
p548
(dp549
S'NOUN'
p550
F0.999999
s(lp551
tp552
a(S'politycznych'
p553
(dp554
S'ADJ'
p555
F0.9999990000000002
s(lp556
(g86
I6
tp557
atp558
a(S'realizowanych'
p559
(dp560
S'VERB'
p561
F1.0
s(lp562
(g42
I7
tp563
atp564
a(S'przez'
p565
(dp566
S'ADP'
p567
F1.0
s(lp568
(g101
I8
tp569
atp570
a(S're\xc5\xbcim'
p571
(dp572
S'NOUN'
p573
F1.0
s(lp574
(g116
I11
tp575
atp576
a(S'ira\xc5\x84ski'
p577
(dp578
S'ADV'
p579
F0.00116
sS'NOUN'
p580
F0.530723
sS'VERB'
p581
F0.007331999999999999
sS'ADJ'
p582
F0.460783
s(lp583
(g123
I10
tp584
atp585
a(g126
(dp586
g126
F1.0
s(lp587
(g126
I12
tp588
atp589
asS'sl'
p590
(lp591
(S'to'
p592
(dp593
S'PRON'
p594
F0.999599
sg240
F0.000401
s(lp595
(g8
I0
tp596
atp597
a(S'nas'
p598
(dp599
S'PRON'
p600
F1.0
s(lp601
(g20
I2
tp602
atp603
a(S'vodi'
p604
(dp605
S'VERB'
p606
F0.96691
sS'NOUN'
p607
F0.03309
s(lp608
tp609
a(S'do'
p610
(dp611
g240
F6e-06
sS'ADP'
p612
F0.999994
s(lp613
(g28
I1
tp614
atp615
a(S'obsodbe'
p616
(dp617
S'NOUN'
p618
F1.0
s(lp619
(g68
I4
tp620
atp621
a(S'politike'
p622
(dp623
S'NOUN'
p624
F1.0000010000000001
s(lp625
(g86
I6
tp626
atp627
a(S','
p628
(dp629
g126
F1.0
s(lp630
tp631
a(S'ki'
p632
(dp633
S'CONJ'
p634
F1.0
s(lp635
(g42
I7
tp636
atp637
a(S'jo'
p638
(dp639
S'PRON'
p640
F0.999774
sg240
F0.000226
s(lp641
tp642
a(S'vr\xc5\xa1i'
p643
(dp644
S'ADV'
p645
F0.009982
sS'NOUN'
p646
F0.013829000000000003
sS'VERB'
p647
F0.451438
sS'ADJ'
p648
F0.52475
s(lp649
(g42
I7
tp650
atp651
a(S'iranski'
p652
(dp653
S'ADJ'
p654
F1.0
s(lp655
(g123
I10
tp656
atp657
a(S're\xc5\xbeim'
p658
(dp659
S'NOUN'
p660
F1.0
s(lp661
(g116
I11
tp662
atp663
a(g126
(dp664
g126
F1.0
s(lp665
(g126
I12
tp666
atp667
asS'es'
p668
(lp669
(S'esto'
p670
(dp671
S'PRON'
p672
F1.0
s(lp673
(g8
I0
tp674
atp675
a(S'nos'
p676
(dp677
S'PRON'
p678
F1.0
s(lp679
(g20
I2
tp680
atp681
a(S'lleva'
p682
(dp683
S'VERB'
p684
F1.0
s(lp685
(g28
I1
tp686
atp687
a(g400
(dp688
g240
F1.3000000000000001e-05
sS'CONJ'
p689
F0.113064
sS'ADP'
p690
F0.886923
s(lp691
(g61
I3
tp692
atp693
a(S'condenar'
p694
(dp695
S'VERB'
p696
F1.0
s(lp697
(g68
I4
tp698
atp699
a(S'las'
p700
(dp701
S'PRON'
p702
F2e-06
sS'DET'
p703
F0.999998
s(lp704
(g77
I5
tp705
atp706
a(S'pol\xc3\xadticas'
p707
(dp708
S'ADJ'
p709
F0.182938
sS'NOUN'
p710
F0.817062
s(lp711
(g86
I6
tp712
atp713
a(S'del'
p714
(dp715
S'ADP'
p716
F1.0
s(lp717
(g109
I9
tp718
atp719
a(S'r\xc3\xa9gimen'
p720
(dp721
S'NOUN'
p722
F1.0
s(lp723
(g116
I11
tp724
atp725
a(S'iran\xc3\xad'
p726
(dp727
S'NOUN'
p728
F0.008827
sS'ADJ'
p729
F0.991173
s(lp730
(g123
I10
tp731
atp732
a(g126
(dp733
g126
F1.0
s(lp734
(g126
I12
tp735
atp736
as.