(dp0
S'fr'
p1
(lp2
(S'je'
p3
(dp4
S'PRON'
p5
F1.0
s(lp6
(S'i'
p7
I0
tp8
atp9
a(S'salue'
p10
(dp11
S'VERB'
p12
F1.0
s(lp13
(S'welcome'
p14
I1
tp15
atp16
a(S"l'"
p17
(dp18
S'NOUN'
p19
F0.087886
sS'VERB'
p20
F0.7995690000000001
sS'ADJ'
p21
F0.112546
s(lp22
(S'the'
p23
I2
tp24
atp25
a(S'initiative'
p26
(dp27
S'NOUN'
p28
F1.0
s(lp29
(S'initiative'
p30
I5
tp31
atp32
a(S'du'
p33
(dp34
S'ADP'
p35
F1.0
s(lp36
(S"'s"
p37
I4
tp38
atp39
a(S'conseil'
p40
(dp41
S'NOUN'
p42
F1.0
s(lp43
(S'council'
p44
I3
tp45
atp46
a(S'de'
p47
(dp48
S'ADP'
p49
F1.0
s(lp50
(S'in'
p51
I6
tp52
atp53
a(S'pr\xc3\xa9parer'
p54
(dp55
S'VERB'
p56
F1.0
s(lp57
(S'preparing'
p58
I7
tp59
atp60
a(S','
p61
(dp62
S'.'
p63
F1.0
s(lp64
tp65
a(S'pour'
p66
(dp67
S'CONJ'
p68
F0.253102
sS'ADP'
p69
F0.746898
s(lp70
(S'for'
p71
I10
tp72
atp73
a(S'la'
p74
(dp75
S'PRON'
p76
F3.5e-05
sS'DET'
p77
F0.999965
sS'NOUN'
p78
F0.0
s(lp79
(S'the'
p80
I11
tp81
atp82
a(S'p\xc3\xa9riode'
p83
(dp84
S'NOUN'
p85
F1.0
s(lp86
(S'period'
p87
I13
tp88
atp89
a(S'2009-2010'
p90
(dp91
S'X'
p92
F0.004613
sS'NUM'
p93
F0.995387
s(lp94
(S'2009-2010'
p95
I12
tp96
atp97
a(g61
(dp98
g63
F1.0
s(lp99
tp100
a(S'des'
p101
(dp102
S'DET'
p103
F0.000291
sS'ADP'
p104
F0.999709
s(lp105
tp106
a(S'propositions'
p107
(dp108
S'NOUN'
p109
F1.0
s(lp110
tp111
a(S'l\xc3\xa9gislatives'
p112
(dp113
S'NOUN'
p114
F0.048509
sS'ADJ'
p115
F0.951491
s(lp116
tp117
a(S'relatives'
p118
(dp119
S'ADJ'
p120
F0.287031
sS'NOUN'
p121
F0.712969
s(lp122
(S'proposals'
p123
I9
tp124
atp125
a(S'\xc3\xa0'
p126
(dp127
S'ADP'
p128
F1.0
s(lp129
(S'on'
p130
I14
tp131
atp132
a(S'la'
p133
(dp134
S'PRON'
p135
F0.000432
sS'DET'
p136
F0.999561
sS'NOUN'
p137
F7e-06
s(lp138
(S'legislation'
p139
I8
tp140
atp141
a(S'mise'
p142
(dp143
S'ADJ'
p144
F0.045656
sS'VERB'
p145
F0.003437
sS'NOUN'
p146
F0.950907
s(lp147
(S'introducing'
p148
I15
tp149
atp150
a(S'en'
p151
(dp152
S'PRON'
p153
F0.04988
sS'ADP'
p154
F0.95012
s(lp155
(g148
I15
tp156
atp157
a(S'place'
p158
(dp159
S'VERB'
p160
F0.053805
sS'NOUN'
p161
F0.946194
s(lp162
(g148
I15
tp163
atp164
a(S"d'"
p165
(dp166
S'NOUN'
p167
F0.035425
sS'VERB'
p168
F0.6996939999999999
sS'ADJ'
p169
F0.264881
s(lp170
tp171
a(S'un'
p172
(dp173
S'NOUN'
p174
F6e-05
sS'NUM'
p175
F0.025531
sS'DET'
p176
F0.974409
s(lp177
(S'an'
p178
I16
tp179
atp180
a(S'syst\xc3\xa8me'
p181
(dp182
S'NOUN'
p183
F1.0
s(lp184
(S'system'
p185
I20
tp186
atp187
a(S"d'"
p188
(dp189
S'NOUN'
p190
F0.032441
sS'VERB'
p191
F0.694014
sS'ADJ'
p192
F0.273544
s(lp193
(g148
I15
tp194
atp195
a(S'entr\xc3\xa9e'
p196
(dp197
S'VERB'
p198
F0.154773
sS'NOUN'
p199
F0.845227
s(lp200
(S'entry'
p201
I17
tp202
atp203
a(S'/'
p204
(dp205
g63
F1.0
s(lp206
(g204
I18
tp207
atp208
a(S'sortie'
p209
(dp210
S'ADJ'
p211
F0.10051
sS'VERB'
p212
F0.299075
sS'NOUN'
p213
F0.600415
s(lp214
(S'exit'
p215
I19
tp216
atp217
a(g61
(dp218
g63
F1.0
s(lp219
(g61
I21
tp220
atp221
a(S"d'"
p222
(dp223
S'ADJ'
p224
F0.13429
sS'VERB'
p225
F0.638201
sS'NOUN'
p226
F0.227509
s(lp227
tp228
a(S'un'
p229
(dp230
S'NOUN'
p231
F9.1e-05
sS'NUM'
p232
F0.025583
sS'DET'
p233
F0.974325
s(lp234
(S'a'
p235
I22
tp236
atp237
a(S'programme'
p238
(dp239
S'VERB'
p240
F0.00018899999999999999
sS'NOUN'
p241
F0.999811
s(lp242
(S'programme'
p243
I25
tp244
atp245
a(S'relatif'
p246
(dp247
S'NOUN'
p248
F0.018181
sS'ADJ'
p249
F0.981819
s(lp250
(S'traveller'
p251
I24
tp252
atp253
a(S'aux'
p254
(dp255
S'ADP'
p256
F1.0
s(lp257
tp258
a(S'voyageurs'
p259
(dp260
S'ADJ'
p261
F0.162229
sS'NOUN'
p262
F0.837771
s(lp263
(g251
I24
tp264
atp265
a(S'enregistr\xc3\xa9s'
p266
(dp267
S'VERB'
p268
F1.0
s(lp269
(S'registered'
p270
I23
tp271
atp272
a(S'('
p273
(dp274
g63
F1.0
s(lp275
(g273
I26
tp276
atp277
a(S'rtp'
p278
(dp279
S'VERB'
p280
F0.001106
sS'NOUN'
p281
F0.998894
s(lp282
(S'rtp'
p283
I27
tp284
atp285
a(S')'
p286
(dp287
g63
F1.0
s(lp288
(g286
I28
tp289
atp290
a(S'et'
p291
(dp292
S'CONJ'
p293
F1.0
s(lp294
(S'and'
p295
I29
tp296
atp297
a(S"d'"
p298
(dp299
S'NOUN'
p300
F0.050387
sS'VERB'
p301
F0.8915730000000001
sS'ADJ'
p302
F0.05804
s(lp303
tp304
a(S'un'
p305
(dp306
S'NOUN'
p307
F6e-05
sS'NUM'
p308
F0.025531
sS'DET'
p309
F0.974409
s(lp310
(S'an'
p311
I30
tp312
atp313
a(S'syst\xc3\xa8me'
p314
(dp315
S'NOUN'
p316
F1.0
s(lp317
(S'system'
p318
I32
tp319
atp320
a(S'\xc3\xa9lectronique'
p321
(dp322
S'NOUN'
p323
F0.021142
sS'ADJ'
p324
F0.978858
s(lp325
(S'electronic'
p326
I31
tp327
atp328
a(S"d'"
p329
(dp330
S'ADJ'
p331
F0.034819
sS'VERB'
p332
F0.37962
sS'NOUN'
p333
F0.585561
s(lp334
(S'of'
p335
I33
tp336
atp337
a(S'autorisation'
p338
(dp339
S'NOUN'
p340
F1.0
s(lp341
(S'authorisation'
p342
I35
tp343
atp344
a(S'de'
p345
(dp346
S'ADP'
p347
F1.0
s(lp348
tp349
a(S'voyage'
p350
(dp351
S'VERB'
p352
F0.000114
sS'NOUN'
p353
F0.999886
s(lp354
(S'travel'
p355
I34
tp356
atp357
a(g273
(dp358
g63
F1.0
s(lp359
(g273
I36
tp360
atp361
a(S'esta'
p362
(dp363
S'ADJ'
p364
F0.13429
sS'VERB'
p365
F0.638201
sS'NOUN'
p366
F0.227509
s(lp367
(S'esta'
p368
I37
tp369
atp370
a(g286
(dp371
g63
F1.0
s(lp372
(g286
I38
tp373
atp374
a(g63
(dp375
g63
F1.0
s(lp376
(g63
I39
tp377
atp378
asS'en'
p379
(lp380
(g7
(dp381
g92
F0.002288
sS'NOUN'
p382
F0.997711
s(lp383
(g7
I0
tp384
atp385
a(g14
(dp386
S'ADJ'
p387
F0.011558
sS'VERB'
p388
F0.9653419999999999
sS'NOUN'
p389
F0.0231
s(lp390
(g14
I1
tp391
atp392
a(g23
(dp393
S'NOUN'
p394
F2e-06
sS'DET'
p395
F0.999998
s(lp396
(g23
I2
tp397
atp398
a(g44
(dp399
S'NOUN'
p400
F1.0
s(lp401
(g44
I3
tp402
atp403
a(g37
(dp404
S'PRT'
p405
F0.98434
sg63
F0.01566
s(lp406
(g37
I4
tp407
atp408
a(g30
(dp409
S'ADJ'
p410
F0.001078
sS'NOUN'
p411
F0.998922
s(lp412
(g30
I5
tp413
atp414
a(g51
(dp415
S'ADV'
p416
F0.000452
sS'PRT'
p417
F0.000192
sS'ADP'
p418
F0.999356
s(lp419
(g51
I6
tp420
atp421
a(g58
(dp422
S'VERB'
p423
F1.0
s(lp424
(g58
I7
tp425
atp426
a(g139
(dp427
S'NOUN'
p428
F1.0
s(lp429
(g139
I8
tp430
atp431
a(g123
(dp432
S'NOUN'
p433
F1.0
s(lp434
(g123
I9
tp435
atp436
a(g71
(dp437
S'ADP'
p438
F1.0
s(lp439
(g71
I10
tp440
atp441
a(g80
(dp442
S'NOUN'
p443
F4.3e-05
sS'DET'
p444
F0.999957
s(lp445
(g80
I11
tp446
atp447
a(g95
(dp448
S'ADV'
p449
F3e-06
sS'NOUN'
p450
F0.000189
sS'NUM'
p451
F0.994559
sS'ADJ'
p452
F0.005249
sg92
F0.0
s(lp453
(g95
I12
tp454
atp455
a(g87
(dp456
S'NOUN'
p457
F1.0
s(lp458
(g87
I13
tp459
atp460
a(g130
(dp461
S'ADV'
p462
F0.001158
sS'PRT'
p463
F0.00036
sS'ADJ'
p464
F0.0
sS'NOUN'
p465
F1e-06
sS'ADP'
p466
F0.99848
s(lp467
(g130
I14
tp468
atp469
a(g148
(dp470
S'VERB'
p471
F1.0
s(lp472
(g148
I15
tp473
atp474
a(g178
(dp475
S'DET'
p476
F1.0
s(lp477
(g178
I16
tp478
atp479
a(g201
(dp480
S'NOUN'
p481
F1.0
s(lp482
(g201
I17
tp483
atp484
a(g204
(dp485
g92
F1.0
s(lp486
(g204
I18
tp487
atp488
a(g215
(dp489
S'VERB'
p490
F0.007404
sS'NOUN'
p491
F0.992596
s(lp492
(g215
I19
tp493
atp494
a(g185
(dp495
S'NOUN'
p496
F1.0
s(lp497
(g185
I20
tp498
atp499
a(g61
(dp500
g63
F1.0
s(lp501
(g61
I21
tp502
atp503
a(g235
(dp504
S'NOUN'
p505
F0.0
sS'DET'
p506
F1.0
s(lp507
(g235
I22
tp508
atp509
a(g270
(dp510
S'VERB'
p511
F0.088361
sS'ADJ'
p512
F0.911639
s(lp513
(g270
I23
tp514
atp515
a(g251
(dp516
S'NOUN'
p517
F1.0
s(lp518
(g251
I24
tp519
atp520
a(g243
(dp521
S'VERB'
p522
F0.04703
sS'NOUN'
p523
F0.95297
s(lp524
(g243
I25
tp525
atp526
a(g273
(dp527
g63
F1.0
s(lp528
(g273
I26
tp529
atp530
a(g283
(dp531
S'ADJ'
p532
F0.036686
sS'VERB'
p533
F0.004182
sS'NOUN'
p534
F0.959131
s(lp535
(g283
I27
tp536
atp537
a(g286
(dp538
g63
F1.0
s(lp539
(g286
I28
tp540
atp541
a(g295
(dp542
S'CONJ'
p543
F1.0
sS'NOUN'
p544
F0.0
s(lp545
(g295
I29
tp546
atp547
a(g311
(dp548
S'DET'
p549
F1.0
s(lp550
(g311
I30
tp551
atp552
a(g326
(dp553
S'ADJ'
p554
F1.0
s(lp555
(g326
I31
tp556
atp557
a(g318
(dp558
S'NOUN'
p559
F1.0
s(lp560
(g318
I32
tp561
atp562
a(g335
(dp563
S'ADP'
p564
F1.0
s(lp565
(g335
I33
tp566
atp567
a(g355
(dp568
S'VERB'
p569
F0.002564
sS'NOUN'
p570
F0.997436
s(lp571
(g355
I34
tp572
atp573
a(g342
(dp574
S'NOUN'
p575
F1.0
s(lp576
(g342
I35
tp577
atp578
a(g273
(dp579
g63
F1.0
s(lp580
(g273
I36
tp581
atp582
a(g368
(dp583
S'ADJ'
p584
F0.001118
sS'VERB'
p585
F8.7e-05
sS'NOUN'
p586
F0.9987950000000001
s(lp587
(g368
I37
tp588
atp589
a(g286
(dp590
g63
F1.0
s(lp591
(g286
I38
tp592
atp593
a(g63
(dp594
g63
F1.0
s(lp595
(g63
I39
tp596
atp597
asS'nl'
p598
(lp599
(S'ik'
p600
(dp601
S'PRON'
p602
F0.999981
sS'NOUN'
p603
F1.9e-05
s(lp604
(g7
I0
tp605
atp606
a(S'ben'
p607
(dp608
S'VERB'
p609
F1.0
s(lp610
(g14
I1
tp611
atp612
a(S'verheugd'
p613
(dp614
S'VERB'
p615
F0.990714
sS'ADJ'
p616
F0.009286
s(lp617
tp618
a(S'over'
p619
(dp620
S'ADV'
p621
F0.000653
sS'ADP'
p622
F0.999347
s(lp623
(g14
I1
tp624
atp625
a(S'het'
p626
(dp627
S'PRON'
p628
F0.000927
sS'DET'
p629
F0.999072
s(lp630
tp631
a(S'initiatief'
p632
(dp633
S'NOUN'
p634
F1.0
s(lp635
tp636
a(S'dat'
p637
(dp638
S'PRON'
p639
F0.041986
sS'CONJ'
p640
F0.958014
s(lp641
tp642
a(S'de'
p643
(dp644
S'DET'
p645
F1.0
s(lp646
(g23
I2
tp647
atp648
a(S'commissie'
p649
(dp650
S'NOUN'
p651
F1.0
s(lp652
(g44
I3
tp653
atp654
a(S'heeft'
p655
(dp656
S'VERB'
p657
F1.0
s(lp658
(g37
I4
tp659
atp660
a(S'genomen'
p661
(dp662
S'VERB'
p663
F0.999136
sS'ADJ'
p664
F0.000864
s(lp665
(g30
I5
tp666
atp667
a(S'tot'
p668
(dp669
S'CONJ'
p670
F3.1e-05
sS'ADP'
p671
F0.999969
s(lp672
(g51
I6
tp673
atp674
a(S'de'
p675
(dp676
S'DET'
p677
F1.0
s(lp678
tp679
a(S'opstelling'
p680
(dp681
S'NOUN'
p682
F1.0
s(lp683
(g58
I7
tp684
atp685
a(S'van'
p686
(dp687
S'ADP'
p688
F1.0
s(lp689
tp690
a(S'wetgevingsvoorstellen'
p691
(dp692
S'ADJ'
p693
F0.001512
sS'NOUN'
p694
F0.9984869999999999
s(lp695
(g139
I8
tp696
atp697
a(S'voor'
p698
(dp699
S'ADV'
p700
F0.00212
sS'CONJ'
p701
F6e-06
sS'NOUN'
p702
F0.0
sS'ADP'
p703
F0.997874
s(lp704
(g71
I10
tp705
atp706
a(S'de'
p707
(dp708
S'DET'
p709
F1.0
s(lp710
(g80
I11
tp711
atp712
a(S'periode'
p713
(dp714
S'NOUN'
p715
F1.0
s(lp716
tp717
a(S'2009-2010'
p718
(dp719
S'NUM'
p720
F1.0
s(lp721
(g95
I12
tp722
atp723
a(S'over'
p724
(dp725
S'ADV'
p726
F0.001781
sS'ADP'
p727
F0.998219
s(lp728
(g130
I14
tp729
atp730
a(S'de'
p731
(dp732
S'DET'
p733
F1.0
s(lp734
(g148
I15
tp735
atp736
a(S'invoering'
p737
(dp738
S'NOUN'
p739
F1.0
s(lp740
tp741
a(S'van'
p742
(dp743
S'ADP'
p744
F1.0
s(lp745
(g148
I15
tp746
atp747
a(S'een'
p748
(dp749
S'ADJ'
p750
F2e-06
sS'PRON'
p751
F1.4e-05
sS'NUM'
p752
F2e-06
sS'DET'
p753
F0.999982
s(lp754
(g178
I16
tp755
atp756
a(S'inreis-'
p757
(dp758
S'NOUN'
p759
F1.0
s(lp760
(g201
I17
tp761
atp762
a(g204
(dp763
g63
F1.0
s(lp764
(g204
I18
tp765
atp766
a(S'uitreissysteem'
p767
(dp768
S'NOUN'
p769
F1.0
s(lp770
(g215
I19
tp771
atp772
a(g61
(dp773
g63
F1.0
s(lp774
(g61
I21
tp775
atp776
a(S'een'
p777
(dp778
S'ADJ'
p779
F3e-06
sS'PRON'
p780
F6.1e-05
sS'NUM'
p781
F1e-06
sS'DET'
p782
F0.999935
s(lp783
(g235
I22
tp784
atp785
a(S'programma'
p786
(dp787
S'NOUN'
p788
F1.0
s(lp789
tp790
a(S'voor'
p791
(dp792
S'ADV'
p793
F0.451928
sS'CONJ'
p794
F3.7e-05
sS'NOUN'
p795
F7e-06
sS'ADP'
p796
F0.548028
s(lp797
(g243
I25
tp798
atp799
a(S'geregistreerde'
p800
(dp801
S'VERB'
p802
F0.998121
sS'NOUN'
p803
F0.001879
s(lp804
(g270
I23
tp805
atp806
a(S'reizigers'
p807
(dp808
S'NOUN'
p809
F1.0
s(lp810
(g251
I24
tp811
atp812
a(g273
(dp813
g63
F1.0
s(lp814
(g273
I26
tp815
atp816
a(S'rtp'
p817
(dp818
S'NOUN'
p819
F1.0
s(lp820
(g283
I27
tp821
atp822
a(g286
(dp823
g63
F1.0
s(lp824
(g286
I28
tp825
atp826
a(S'en'
p827
(dp828
S'CONJ'
p829
F1.0
s(lp830
(g295
I29
tp831
atp832
a(S'een'
p833
(dp834
S'ADJ'
p835
F1e-06
sS'PRON'
p836
F0.001081
sS'NUM'
p837
F3e-06
sS'DET'
p838
F0.998915
s(lp839
(g311
I30
tp840
atp841
a(S'elektronisch'
p842
(dp843
S'ADJ'
p844
F1.0
s(lp845
(g326
I31
tp846
atp847
a(S'systeem'
p848
(dp849
S'NOUN'
p850
F1.0
s(lp851
(g318
I32
tp852
atp853
a(S'voor'
p854
(dp855
S'ADV'
p856
F0.003146
sS'CONJ'
p857
F3e-06
sS'NOUN'
p858
F0.0
sS'ADP'
p859
F0.996851
s(lp860
(g335
I33
tp861
atp862
a(S'reisvergunningen'
p863
(dp864
S'NOUN'
p865
F1.0
s(lp866
(g342
I35
tp867
atp868
a(g273
(dp869
g63
F1.0
s(lp870
(g273
I36
tp871
atp872
a(S'esta'
p873
(dp874
S'NOUN'
p875
F1.0
s(lp876
(g368
I37
tp877
atp878
a(g286
(dp879
g63
F1.0
s(lp880
(g286
I38
tp881
atp882
a(g63
(dp883
g63
F1.0
s(lp884
(g63
I39
tp885
atp886
asS'de'
p887
(lp888
(S'ich'
p889
(dp890
S'PRON'
p891
F1.0
s(lp892
(g7
I0
tp893
atp894
a(S'begr\xc3\xbc\xc3\x9fe'
p895
(dp896
S'VERB'
p897
F1.0
s(lp898
(g14
I1
tp899
atp900
a(S'die'
p901
(dp902
S'PRON'
p903
F0.002689
sS'DET'
p904
F0.99731
s(lp905
(g23
I2
tp906
atp907
a(S'initiative'
p908
(dp909
S'ADJ'
p910
F1.0
s(lp911
(g30
I5
tp912
atp913
a(S'des'
p914
(dp915
S'DET'
p916
F1.0
s(lp917
(g37
I4
tp918
atp919
a(S'rates'
p920
(dp921
S'ADJ'
p922
F0.004188
sS'NOUN'
p923
F0.995689
s(lp924
(g44
I3
tp925
atp926
a(S'bez\xc3\xbcglich'
p927
(dp928
S'ADJ'
p929
F0.046879
sS'ADP'
p930
F0.953121
s(lp931
(g283
I27
tp932
atp933
a(S'der'
p934
(dp935
S'PRON'
p936
F1.8e-05
sS'DET'
p937
F0.999977
s(lp938
tp939
a(S'erarbeitung'
p940
(dp941
S'ADJ'
p942
F0.000139
sS'NOUN'
p943
F0.999751
s(lp944
(g58
I7
tp945
atp946
a(S'von'
p947
(dp948
S'NOUN'
p949
F0.001293
sS'ADP'
p950
F0.998707
s(lp951
(g123
I9
tp952
atp953
a(S'gesetzesentw\xc3\xbcrfen'
p954
(dp955
S'ADJ'
p956
F0.073066
sS'NOUN'
p957
F0.900563
s(lp958
(g283
I27
tp959
atp960
a(S'f\xc3\xbcr'
p961
(dp962
S'ADP'
p963
F1.0
s(lp964
(g71
I10
tp965
atp966
a(S'den'
p967
(dp968
S'PRON'
p969
F0.00307
sS'DET'
p970
F0.996834
s(lp971
(g80
I11
tp972
atp973
a(S'zeitraum'
p974
(dp975
S'ADJ'
p976
F1.0
s(lp977
tp978
a(S'2009-2010'
p979
(dp980
S'ADV'
p981
F0.00932
sS'NUM'
p982
F0.984332
s(lp983
(g95
I12
tp984
atp985
a(S'\xc3\xbcber'
p986
(dp987
S'PRT'
p988
F4e-05
sS'ADP'
p989
F0.99996
s(lp990
(g130
I14
tp991
atp992
a(S'die'
p993
(dp994
S'PRON'
p995
F5.2e-05
sS'DET'
p996
F0.999933
s(lp997
tp998
a(S'einf\xc3\xbchrung'
p999
(dp1000
S'ADJ'
p1001
F9.4e-05
sS'NOUN'
p1002
F0.999845
s(lp1003
(g148
I15
tp1004
atp1005
a(S'eines'
p1006
(dp1007
S'PRON'
p1008
F0.000989
sS'DET'
p1009
F0.998612
s(lp1010
(g178
I16
tp1011
atp1012
a(S'ein-'
p1013
(dp1014
g92
F1.0
s(lp1015
(g215
I19
tp1016
atp1017
a(S'und'
p1018
(dp1019
S'CONJ'
p1020
F1.0
s(lp1021
(g61
I21
tp1022
atp1023
a(S'ausreise-systems'
p1024
(dp1025
S'VERB'
p1026
F0.056243
sS'NOUN'
p1027
F0.936211
s(lp1028
(g283
I27
tp1029
atp1030
a(g61
(dp1031
g63
F1.0
s(lp1032
tp1033
a(S'eines'
p1034
(dp1035
S'PRON'
p1036
F0.0064
sS'DET'
p1037
F0.993366
s(lp1038
(g283
I27
tp1039
atp1040
a(S'registered'
p1041
(dp1042
S'ADJ'
p1043
F0.080883
sS'NOUN'
p1044
F0.911424
s(lp1045
(g283
I27
tp1046
atp1047
a(S'traveller'
p1048
(dp1049
S'NOUN'
p1050
F0.056737
sS'ADJ'
p1051
F0.889041
s(lp1052
(g283
I27
tp1053
atp1054
a(S'programme'
p1055
(dp1056
S'VERB'
p1057
F0.001642
sS'NOUN'
p1058
F0.996559
s(lp1059
(g283
I27
tp1060
atp1061
a(g273
(dp1062
g63
F1.0
s(lp1063
(g273
I26
tp1064
atp1065
a(S'rtp'
p1066
(dp1067
S'NOUN'
p1068
F0.987432
s(lp1069
tp1070
a(g286
(dp1071
g63
F1.0
s(lp1072
(g286
I28
tp1073
atp1074
a(S'und'
p1075
(dp1076
S'CONJ'
p1077
F1.0
s(lp1078
(g295
I29
tp1079
atp1080
a(S'eines'
p1081
(dp1082
S'PRON'
p1083
F0.016013
sS'DET'
p1084
F0.983479
s(lp1085
(g311
I30
tp1086
atp1087
a(S'elektronischen'
p1088
(dp1089
S'ADJ'
p1090
F1.0
s(lp1091
(g326
I31
tp1092
atp1093
a(S'reisegenehmigungssystems'
p1094
(dp1095
S'ADJ'
p1096
F0.000318
sS'NOUN'
p1097
F0.999656
s(lp1098
(g368
I37
tp1099
atp1100
a(g273
(dp1101
g63
F1.0
s(lp1102
(g273
I36
tp1103
atp1104
a(S'electronic'
p1105
(dp1106
S'ADJ'
p1107
F0.05595
sS'NOUN'
p1108
F0.930774
s(lp1109
(g283
I27
tp1110
atp1111
a(S'system'
p1112
(dp1113
S'NOUN'
p1114
F0.354742
sS'ADJ'
p1115
F0.641093
s(lp1116
(g318
I32
tp1117
atp1118
a(S'of'
p1119
(dp1120
g92
F1.0
s(lp1121
(g335
I33
tp1122
atp1123
a(S'travel'
p1124
(dp1125
S'ADJ'
p1126
F0.000746
sS'NOUN'
p1127
F0.999162
s(lp1128
(g355
I34
tp1129
atp1130
a(S'authorisation'
p1131
(dp1132
S'ADJ'
p1133
F0.288358
sS'NOUN'
p1134
F0.452461
s(lp1135
(g342
I35
tp1136
atp1137
a(S'-'
p1138
(dp1139
g63
F1.0
s(lp1140
tp1141
a(S'esta'
p1142
(dp1143
S'ADJ'
p1144
F0.288203
sS'NOUN'
p1145
F0.482983
s(lp1146
(g368
I37
tp1147
atp1148
a(g286
(dp1149
g63
F1.0
s(lp1150
(g286
I38
tp1151
atp1152
a(g63
(dp1153
g63
F1.0
s(lp1154
(g63
I39
tp1155
atp1156
asS'it'
p1157
(lp1158
(S'apprezzo'
p1159
(dp1160
S'VERB'
p1161
F1.0
s(lp1162
(g14
I1
tp1163
atp1164
a(S"l'"
p1165
(dp1166
S'NOUN'
p1167
F0.000971
sS'VERB'
p1168
F0.9832770000000001
sS'ADJ'
p1169
F0.015752
s(lp1170
(g23
I2
tp1171
atp1172
a(S'iniziativa'
p1173
(dp1174
S'NOUN'
p1175
F1.0
s(lp1176
tp1177
a(S'assunta'
p1178
(dp1179
S'VERB'
p1180
F0.982146
sS'NOUN'
p1181
F0.017854
s(lp1182
(g30
I5
tp1183
atp1184
a(S'dal'
p1185
(dp1186
S'ADP'
p1187
F1.0
s(lp1188
(g37
I4
tp1189
atp1190
a(S'consiglio'
p1191
(dp1192
S'VERB'
p1193
F0.000221
sS'NOUN'
p1194
F0.999779
s(lp1195
(g44
I3
tp1196
atp1197
a(S'nel'
p1198
(dp1199
S'ADP'
p1200
F1.0
s(lp1201
(g51
I6
tp1202
atp1203
a(S'preparare'
p1204
(dp1205
S'VERB'
p1206
F1.0
s(lp1207
(g58
I7
tp1208
atp1209
a(S'proposte'
p1210
(dp1211
S'VERB'
p1212
F0.321806
sS'NOUN'
p1213
F0.678194
s(lp1214
(g123
I9
tp1215
atp1216
a(S'legislative'
p1217
(dp1218
S'ADJ'
p1219
F1.0
s(lp1220
(g139
I8
tp1221
atp1222
a(S'per'
p1223
(dp1224
S'CONJ'
p1225
F0.061022
sS'ADP'
p1226
F0.938978
s(lp1227
(g71
I10
tp1228
atp1229
a(S'il'
p1230
(dp1231
S'DET'
p1232
F1.0
s(lp1233
(g80
I11
tp1234
atp1235
a(S'biennio'
p1236
(dp1237
S'NOUN'
p1238
F1.0
s(lp1239
tp1240
a(S'2009-2010'
p1241
(dp1242
S'NUM'
p1243
F0.940717
sg63
F0.059284
s(lp1244
(g95
I12
tp1245
atp1246
a(S'in'
p1247
(dp1248
S'ADP'
p1249
F1.0
s(lp1250
(g130
I14
tp1251
atp1252
a(S'merito'
p1253
(dp1254
S'VERB'
p1255
F0.000211
sS'NOUN'
p1256
F0.999789
s(lp1257
tp1258
a(S"all'"
p1259
(dp1260
S'ADJ'
p1261
F0.040675
sS'VERB'
p1262
F0.006582
sS'NOUN'
p1263
F0.952743
s(lp1264
tp1265
a(S'introduzione'
p1266
(dp1267
S'NOUN'
p1268
F1.0
s(lp1269
(g148
I15
tp1270
atp1271
a(S'di'
p1272
(dp1273
S'CONJ'
p1274
F1.6e-05
sS'ADP'
p1275
F0.999984
s(lp1276
tp1277
a(S'un'
p1278
(dp1279
S'PRON'
p1280
F0.002708
sS'DEF'
p1281
F0.997292
s(lp1282
(g178
I16
tp1283
atp1284
a(S'sistema'
p1285
(dp1286
S'VERB'
p1287
F3.9e-05
sS'NOUN'
p1288
F0.99996
s(lp1289
(g185
I20
tp1290
atp1291
a(S'di'
p1292
(dp1293
S'CONJ'
p1294
F4e-06
sS'ADP'
p1295
F0.999996
s(lp1296
tp1297
a(S'ingresso'
p1298
(dp1299
S'NOUN'
p1300
F1.0
s(lp1301
(g201
I17
tp1302
atp1303
a(g204
(dp1304
g92
F2e-05
sg63
F0.99998
s(lp1305
(g204
I18
tp1306
atp1307
a(S'uscita'
p1308
(dp1309
S'VERB'
p1310
F0.465936
sS'NOUN'
p1311
F0.534064
s(lp1312
(g215
I19
tp1313
atp1314
a(g61
(dp1315
g63
F1.0
s(lp1316
(g61
I21
tp1317
atp1318
a(S'un'
p1319
(dp1320
S'PRON'
p1321
F0.005271
sS'DEF'
p1322
F0.994729
s(lp1323
(g235
I22
tp1324
atp1325
a(S'programma'
p1326
(dp1327
S'VERB'
p1328
F0.000141
sS'NOUN'
p1329
F0.999859
s(lp1330
(g243
I25
tp1331
atp1332
a(S'per'
p1333
(dp1334
S'CONJ'
p1335
F0.007862
sS'ADP'
p1336
F0.992138
s(lp1337
(g130
I14
tp1338
atp1339
a(S'viaggiatori'
p1340
(dp1341
S'ADJ'
p1342
F0.399675
sS'NOUN'
p1343
F0.600325
s(lp1344
(g251
I24
tp1345
atp1346
a(S'registrati'
p1347
(dp1348
S'VERB'
p1349
F1.0
s(lp1350
(g270
I23
tp1351
atp1352
a(g273
(dp1353
g63
F1.0
s(lp1354
(g273
I26
tp1355
atp1356
a(S'rtp'
p1357
(dp1358
S'NOUN'
p1359
F0.39543
sS'VERB'
p1360
F0.01799
sS'ADJ'
p1361
F0.58658
s(lp1362
(g283
I27
tp1363
atp1364
a(g286
(dp1365
g63
F1.0
s(lp1366
(g286
I28
tp1367
atp1368
a(S'e'
p1369
(dp1370
S'CONJ'
p1371
F1.0
s(lp1372
(g295
I29
tp1373
atp1374
a(S'un'
p1375
(dp1376
S'PRON'
p1377
F0.005375
sS'DEF'
p1378
F0.994625
s(lp1379
(g311
I30
tp1380
atp1381
a(S'sistema'
p1382
(dp1383
S'VERB'
p1384
F5.9000000000000004e-05
sS'NOUN'
p1385
F0.999941
s(lp1386
(g318
I32
tp1387
atp1388
a(S'elettronico'
p1389
(dp1390
S'ADJ'
p1391
F1.0
s(lp1392
(g326
I31
tp1393
atp1394
a(S'di'
p1395
(dp1396
S'CONJ'
p1397
F4e-06
sS'ADP'
p1398
F0.999996
s(lp1399
tp1400
a(S'autorizzazione'
p1401
(dp1402
S'NOUN'
p1403
F1.0
s(lp1404
(g342
I35
tp1405
atp1406
a(S'di'
p1407
(dp1408
S'CONJ'
p1409
F4e-06
sS'ADP'
p1410
F0.999996
s(lp1411
(g335
I33
tp1412
atp1413
a(S'viaggio'
p1414
(dp1415
S'VERB'
p1416
F5.8e-05
sS'NOUN'
p1417
F0.999942
s(lp1418
(g355
I34
tp1419
atp1420
a(g273
(dp1421
g63
F1.0
s(lp1422
(g273
I36
tp1423
atp1424
a(S'esta'
p1425
(dp1426
S'NOUN'
p1427
F0.003774
sS'VERB'
p1428
F0.984512
sS'ADJ'
p1429
F0.011715
s(lp1430
(g368
I37
tp1431
atp1432
a(g286
(dp1433
g63
F1.0
s(lp1434
(g286
I38
tp1435
atp1436
a(g63
(dp1437
g63
F1.0
s(lp1438
(g63
I39
tp1439
atp1440
asS'sk'
p1441
(lp1442
(S'v\xc3\xadtam'
p1443
(dp1444
S'VERB'
p1445
F1.0
s(lp1446
(g14
I1
tp1447
atp1448
a(S'iniciat\xc3\xadvu'
p1449
(dp1450
S'NOUN'
p1451
F1.0
s(lp1452
(g30
I5
tp1453
atp1454
a(S'rady'
p1455
(dp1456
S'ADJ'
p1457
F0.002453
sS'NOUN'
p1458
F0.997547
s(lp1459
(g44
I3
tp1460
atp1461
a(S'pri'
p1462
(dp1463
g92
F7.2e-05
sS'VERB'
p1464
F2e-06
sS'ADP'
p1465
F0.999926
s(lp1466
(g51
I6
tp1467
atp1468
a(S'pr\xc3\xadprave'
p1469
(dp1470
S'NOUN'
p1471
F1.0
s(lp1472
(g58
I7
tp1473
atp1474
a(S'n\xc3\xa1vrhov'
p1475
(dp1476
S'NOUN'
p1477
F1.0
s(lp1478
(g123
I9
tp1479
atp1480
a(S'pr\xc3\xa1vnych'
p1481
(dp1482
S'ADJ'
p1483
F1.0
s(lp1484
tp1485
a(S'predpisov'
p1486
(dp1487
S'NOUN'
p1488
F1.0
s(lp1489
(g139
I8
tp1490
atp1491
a(S'na'
p1492
(dp1493
g92
F2.2e-05
sS'CONJ'
p1494
F1.8e-05
sS'ADP'
p1495
F0.999956
sS'PRT'
p1496
F4e-06
s(lp1497
(g71
I10
tp1498
atp1499
a(S'obdobie'
p1500
(dp1501
S'NOUN'
p1502
F1.0
s(lp1503
(g87
I13
tp1504
atp1505
a(S'rokov'
p1506
(dp1507
S'NOUN'
p1508
F1.0
s(lp1509
(g95
I12
tp1510
atp1511
a(S'2009'
p1512
(dp1513
S'NUM'
p1514
F1.0
s(lp1515
(g95
I12
tp1516
atp1517
a(g1138
(dp1518
g63
F1.0
s(lp1519
tp1520
a(S'2010'
p1521
(dp1522
S'NUM'
p1523
F1.0
s(lp1524
(g95
I12
tp1525
atp1526
a(S'o'
p1527
(dp1528
g92
F0.070572
sS'CONJ'
p1529
F0.00013
sS'NOUN'
p1530
F0.000571
sS'ADP'
p1531
F0.928727
s(lp1532
(g130
I14
tp1533
atp1534
a(S'zaveden\xc3\xad'
p1535
(dp1536
S'VERB'
p1537
F0.002817
sS'NOUN'
p1538
F0.9971829999999999
s(lp1539
(g148
I15
tp1540
atp1541
a(S'syst\xc3\xa9mu'
p1542
(dp1543
S'NOUN'
p1544
F1.0
s(lp1545
(g185
I20
tp1546
atp1547
a(S'registr\xc3\xa1cie'
p1548
(dp1549
S'NOUN'
p1550
F1.0
s(lp1551
tp1552
a(S'vstupu'
p1553
(dp1554
S'NOUN'
p1555
F1.0
s(lp1556
(g201
I17
tp1557
atp1558
a(g204
(dp1559
g63
F1.0
s(lp1560
(g204
I18
tp1561
atp1562
a(S'v\xc3\xbdstupu'
p1563
(dp1564
S'NOUN'
p1565
F1.0
s(lp1566
(g215
I19
tp1567
atp1568
a(g61
(dp1569
g63
F1.0
s(lp1570
(g61
I21
tp1571
atp1572
a(S'programu'
p1573
(dp1574
S'NOUN'
p1575
F1.0
s(lp1576
(g243
I25
tp1577
atp1578
a(S'registrovan\xc3\xbdch'
p1579
(dp1580
S'VERB'
p1581
F1.0
s(lp1582
(g270
I23
tp1583
atp1584
a(S'cestuj\xc3\xbacich'
p1585
(dp1586
S'VERB'
p1587
F0.004762
sS'NOUN'
p1588
F0.995238
s(lp1589
(g251
I24
tp1590
atp1591
a(g273
(dp1592
g63
F1.0
s(lp1593
(g273
I26
tp1594
atp1595
a(S'rtp'
p1596
(dp1597
S'VERB'
p1598
F0.36086100000000004
sS'NOUN'
p1599
F0.63914
s(lp1600
(g283
I27
tp1601
atp1602
a(g286
(dp1603
g63
F1.0
s(lp1604
(g286
I28
tp1605
atp1606
a(g235
(dp1607
g92
F0.000505
sS'CONJ'
p1608
F0.999265
sS'NOUN'
p1609
F2.9e-05
sS'ADP'
p1610
F0.000182
sS'PRT'
p1611
F2.1e-05
s(lp1612
(g295
I29
tp1613
atp1614
a(S'elektronick\xc3\xa9ho'
p1615
(dp1616
S'ADJ'
p1617
F1.0
s(lp1618
(g326
I31
tp1619
atp1620
a(S'syst\xc3\xa9mu'
p1621
(dp1622
S'NOUN'
p1623
F1.0
s(lp1624
(g318
I32
tp1625
atp1626
a(S'cestovn\xc3\xbdch'
p1627
(dp1628
S'ADJ'
p1629
F1.0
s(lp1630
(g355
I34
tp1631
atp1632
a(S'povolen\xc3\xad'
p1633
(dp1634
S'VERB'
p1635
F0.001944
sS'NOUN'
p1636
F0.998056
s(lp1637
(g342
I35
tp1638
atp1639
a(g273
(dp1640
g63
F1.0
s(lp1641
(g273
I36
tp1642
atp1643
a(S'esta'
p1644
(dp1645
S'NOUN'
p1646
F1.0
s(lp1647
(g368
I37
tp1648
atp1649
a(g286
(dp1650
g63
F1.0
s(lp1651
(g286
I38
tp1652
atp1653
a(g63
(dp1654
g63
F1.0
s(lp1655
(g63
I39
tp1656
atp1657
asS'pl'
p1658
(lp1659
(S'z'
p1660
(dp1661
g92
F4e-06
sS'VERB'
p1662
F1e-06
sS'NOUN'
p1663
F1e-06
sS'ADP'
p1664
F0.9999939999999999
sS'PRT'
p1665
F0.0
s(lp1666
(g14
I1
tp1667
atp1668
a(S'zadowoleniem'
p1669
(dp1670
S'NOUN'
p1671
F1.0
s(lp1672
tp1673
a(S'przyjmuj\xc4\x99'
p1674
(dp1675
S'VERB'
p1676
F1.0
s(lp1677
(g14
I1
tp1678
atp1679
a(S'inicjatyw\xc4\x99'
p1680
(dp1681
S'NOUN'
p1682
F1.0
s(lp1683
tp1684
a(S'rady'
p1685
(dp1686
S'NOUN'
p1687
F1.0
s(lp1688
(g44
I3
tp1689
atp1690
a(S'polegaj\xc4\x85c\xc4\x85'
p1691
(dp1692
S'VERB'
p1693
F1.0
s(lp1694
(g30
I5
tp1695
atp1696
a(S'na'
p1697
(dp1698
S'PRT'
p1699
F0.0
sS'VERB'
p1700
F0.0
sS'NOUN'
p1701
F0.0
sS'ADP'
p1702
F1.0
sg92
F0.0
s(lp1703
(g51
I6
tp1704
atp1705
a(S'przygotowaniu'
p1706
(dp1707
S'VERB'
p1708
F0.934463
sS'NOUN'
p1709
F0.065537
s(lp1710
(g58
I7
tp1711
atp1712
a(S'wniosk\xc3\xb3w'
p1713
(dp1714
S'NOUN'
p1715
F1.0
s(lp1716
(g123
I9
tp1717
atp1718
a(S'legislacyjnych'
p1719
(dp1720
S'ADJ'
p1721
F1.0
s(lp1722
(g139
I8
tp1723
atp1724
a(S'na'
p1725
(dp1726
g92
F0.001465
sS'VERB'
p1727
F0.00035999999999999997
sS'NOUN'
p1728
F2e-05
sS'ADP'
p1729
F0.9979649999999999
sS'PRT'
p1730
F0.000188
s(lp1731
(g71
I10
tp1732
atp1733
a(S'okres'
p1734
(dp1735
S'NOUN'
p1736
F1.0
s(lp1737
(g87
I13
tp1738
atp1739
a(S'2009-2010'
p1740
(dp1741
S'ADV'
p1742
F0.000231
sS'NOUN'
p1743
F0.002569
sS'NUM'
p1744
F0.5681750000000003
sS'ADJ'
p1745
F0.42893799999999993
sg92
F8.5e-05
s(lp1746
(g95
I12
tp1747
atp1748
a(S'w'
p1749
(dp1750
S'ADJ'
p1751
F0.0
sg92
F1.8e-05
sS'NOUN'
p1752
F0.0
sS'ADP'
p1753
F0.999982
s(lp1754
tp1755
a(S'zakresie'
p1756
(dp1757
S'NOUN'
p1758
F1.0
s(lp1759
(g130
I14
tp1760
atp1761
a(S'wprowadzenia'
p1762
(dp1763
S'VERB'
p1764
F0.992777
sS'NOUN'
p1765
F0.007224
s(lp1766
(g148
I15
tp1767
atp1768
a(S'systemu'
p1769
(dp1770
S'NOUN'
p1771
F1.0
s(lp1772
(g185
I20
tp1773
atp1774
a(S'wjazd\xc3\xb3w'
p1775
(dp1776
S'ADJ'
p1777
F0.001105
sS'VERB'
p1778
F0.178201
sS'NOUN'
p1779
F0.820695
s(lp1780
(g283
I27
tp1781
atp1782
a(g7
(dp1783
S'PRT'
p1784
F0.011328
sS'CONJ'
p1785
F0.988184
sS'NOUN'
p1786
F0.00032
sg92
F1.8e-05
sS'PRON'
p1787
F0.00014900000000000002
s(lp1788
(g61
I21
tp1789
atp1790
a(S'wyjazd\xc3\xb3w'
p1791
(dp1792
S'NOUN'
p1793
F1.0
s(lp1794
tp1795
a(g61
(dp1796
g92
F0.0
sg63
F1.0
s(lp1797
tp1798
a(S'programu'
p1799
(dp1800
S'NOUN'
p1801
F1.0
s(lp1802
(g243
I25
tp1803
atp1804
a(S'rejestracji'
p1805
(dp1806
S'NOUN'
p1807
F1.0
s(lp1808
(g270
I23
tp1809
atp1810
a(S'os\xc3\xb3b'
p1811
(dp1812
S'NOUN'
p1813
F1.0
s(lp1814
tp1815
a(S'podr\xc3\xb3\xc5\xbcuj\xc4\x85cych'
p1816
(dp1817
S'VERB'
p1818
F1.0
s(lp1819
(g251
I24
tp1820
atp1821
a(g273
(dp1822
S'NOUN'
p1823
F7.1e-05
sg63
F0.999929
s(lp1824
(g273
I26
tp1825
atp1826
a(S'rtp'
p1827
(dp1828
S'ADV'
p1829
F0.008808999999999999
sS'ADJ'
p1830
F0.001664
sS'VERB'
p1831
F0.14715999999999999
sS'NOUN'
p1832
F0.8423639999999998
s(lp1833
(g283
I27
tp1834
atp1835
a(g286
(dp1836
g63
F1.0
s(lp1837
(g286
I28
tp1838
atp1839
a(S'oraz'
p1840
(dp1841
S'CONJ'
p1842
F1.0
s(lp1843
(g295
I29
tp1844
atp1845
a(S'elektronicznego'
p1846
(dp1847
S'ADJ'
p1848
F1.0
s(lp1849
(g326
I31
tp1850
atp1851
a(S'systemu'
p1852
(dp1853
S'NOUN'
p1854
F1.0
s(lp1855
(g318
I32
tp1856
atp1857
a(S'zezwole\xc5\x84'
p1858
(dp1859
S'NOUN'
p1860
F1.0
s(lp1861
(g342
I35
tp1862
atp1863
a(S'na'
p1864
(dp1865
S'PRT'
p1866
F5e-06
sS'VERB'
p1867
F2.6000000000000002e-05
sS'NOUN'
p1868
F1e-06
sS'ADP'
p1869
F0.999966
sg92
F2e-06
s(lp1870
(g335
I33
tp1871
atp1872
a(S'podr\xc3\xb3\xc5\xbc'
p1873
(dp1874
S'NOUN'
p1875
F1.0
s(lp1876
(g355
I34
tp1877
atp1878
a(g273
(dp1879
S'NOUN'
p1880
F1.2e-05
sg63
F0.999988
s(lp1881
(g273
I36
tp1882
atp1883
a(S'esta'
p1884
(dp1885
S'ADJ'
p1886
F0.135132
sS'VERB'
p1887
F0.012446
sS'NOUN'
p1888
F0.8524210000000001
s(lp1889
(g368
I37
tp1890
atp1891
a(g286
(dp1892
g63
F1.0
s(lp1893
(g286
I38
tp1894
atp1895
a(g63
(dp1896
g63
F1.0
s(lp1897
(g63
I39
tp1898
atp1899
asS'sl'
p1900
(lp1901
(S'pozdravljam'
p1902
(dp1903
S'VERB'
p1904
F1.0
s(lp1905
(g14
I1
tp1906
atp1907
a(S'pobudo'
p1908
(dp1909
S'NOUN'
p1910
F1.0
s(lp1911
(g30
I5
tp1912
atp1913
a(S'sveta'
p1914
(dp1915
S'ADJ'
p1916
F7.3e-05
sS'NOUN'
p1917
F0.999927
s(lp1918
(g44
I3
tp1919
atp1920
a(S'pri'
p1921
(dp1922
S'ADP'
p1923
F1.0
s(lp1924
(g51
I6
tp1925
atp1926
a(S'pripravi'
p1927
(dp1928
S'VERB'
p1929
F9.4e-05
sS'NOUN'
p1930
F0.999906
s(lp1931
(g58
I7
tp1932
atp1933
a(S'zakonodajnih'
p1934
(dp1935
S'ADJ'
p1936
F1.0
s(lp1937
(g139
I8
tp1938
atp1939
a(S'predlogov'
p1940
(dp1941
S'NOUN'
p1942
F1.0
s(lp1943
(g123
I9
tp1944
atp1945
a(S'za'
p1946
(dp1947
S'ADV'
p1948
F1.5e-05
sg92
F2e-06
sS'ADP'
p1949
F0.999983
s(lp1950
(g71
I10
tp1951
atp1952
a(S'obdobje'
p1953
(dp1954
S'NOUN'
p1955
F1.0
s(lp1956
(g87
I13
tp1957
atp1958
a(S'2009-2010'
p1959
(dp1960
S'NUM'
p1961
F1.0
s(lp1962
(g95
I12
tp1963
atp1964
a(g1527
(dp1965
S'NOUN'
p1966
F0.000514
sS'ADP'
p1967
F0.999486
s(lp1968
(g130
I14
tp1969
atp1970
a(S'uvedbi'
p1971
(dp1972
S'NOUN'
p1973
F1.0
s(lp1974
(g148
I15
tp1975
atp1976
a(S'sistema'
p1977
(dp1978
S'NOUN'
p1979
F1.0
s(lp1980
(g185
I20
tp1981
atp1982
a(S'vstopa'
p1983
(dp1984
S'VERB'
p1985
F0.017492
sS'NOUN'
p1986
F0.982508
s(lp1987
(g201
I17
tp1988
atp1989
a(g204
(dp1990
g63
F1.0
s(lp1991
(g204
I18
tp1992
atp1993
a(S'izstopa'
p1994
(dp1995
S'VERB'
p1996
F1.0
s(lp1997
(g215
I19
tp1998
atp1999
a(g61
(dp2000
g63
F1.0
s(lp2001
(g61
I21
tp2002
atp2003
a(S'program'
p2004
(dp2005
S'NOUN'
p2006
F1.0
s(lp2007
(g243
I25
tp2008
atp2009
a(S'za'
p2010
(dp2011
S'ADV'
p2012
F0.000105
sg92
F1.2e-05
sS'ADP'
p2013
F0.9998819999999999
s(lp2014
(g235
I22
tp2015
atp2016
a(S'registrirane'
p2017
(dp2018
S'ADV'
p2019
F1.2e-05
sS'NOUN'
p2020
F0.015355999999999996
sS'VERB'
p2021
F2.4000000000000004e-05
sS'ADJ'
p2022
F0.98461
s(lp2023
(g270
I23
tp2024
atp2025
a(S'potnike'
p2026
(dp2027
S'ADJ'
p2028
F0.0006619999999999998
sS'NOUN'
p2029
F0.9993389999999999
s(lp2030
(g251
I24
tp2031
atp2032
a(g273
(dp2033
g63
F1.0
s(lp2034
(g273
I26
tp2035
atp2036
a(S'rtp'
p2037
(dp2038
S'ADJ'
p2039
F0.000316
sg92
F0.01745
sS'ADV'
p2040
F7.6e-05
sS'VERB'
p2041
F4.7000000000000004e-05
sS'NOUN'
p2042
F0.982112
s(lp2043
(g283
I27
tp2044
atp2045
a(g286
(dp2046
g63
F1.0
s(lp2047
(g286
I28
tp2048
atp2049
a(S'in'
p2050
(dp2051
S'ADV'
p2052
F4.5e-05
sg92
F6e-06
sS'CONJ'
p2053
F0.999943
sS'NOUN'
p2054
F7e-06
s(lp2055
(g295
I29
tp2056
atp2057
a(S'elektronski'
p2058
(dp2059
S'ADJ'
p2060
F1.0
s(lp2061
(g326
I31
tp2062
atp2063
a(S'sistem'
p2064
(dp2065
S'NOUN'
p2066
F1.0
s(lp2067
(g318
I32
tp2068
atp2069
a(S'za'
p2070
(dp2071
S'ADV'
p2072
F0.007013
sg92
F0.002984
sS'ADP'
p2073
F0.990003
s(lp2074
(g335
I33
tp2075
atp2076
a(S'odobritev'
p2077
(dp2078
S'NOUN'
p2079
F1.0
s(lp2080
(g342
I35
tp2081
atp2082
a(S'potovanj'
p2083
(dp2084
S'NOUN'
p2085
F1.0
s(lp2086
(g355
I34
tp2087
atp2088
a(g273
(dp2089
g63
F1.0
s(lp2090
(g273
I36
tp2091
atp2092
a(S'esta'
p2093
(dp2094
S'ADV'
p2095
F0.001371
sS'ADJ'
p2096
F0.057594000000000006
sS'VERB'
p2097
F0.000432
sS'NOUN'
p2098
F0.9405780000000001
sS'NUM'
p2099
F2.4e-05
s(lp2100
(g368
I37
tp2101
atp2102
a(g286
(dp2103
g63
F1.0
s(lp2104
(g286
I38
tp2105
atp2106
a(g63
(dp2107
g63
F1.0
s(lp2108
(g63
I39
tp2109
atp2110
asS'es'
p2111
(lp2112
(S'celebro'
p2113
(dp2114
S'VERB'
p2115
F1.0
s(lp2116
(g14
I1
tp2117
atp2118
a(S'la'
p2119
(dp2120
g92
F0.0
sS'PRON'
p2121
F0.0
sS'DET'
p2122
F1.0
sS'NOUN'
p2123
F0.0
s(lp2124
(g23
I2
tp2125
atp2126
a(S'iniciativa'
p2127
(dp2128
S'NOUN'
p2129
F1.0
s(lp2130
(g30
I5
tp2131
atp2132
a(S'del'
p2133
(dp2134
S'ADP'
p2135
F1.0
s(lp2136
tp2137
a(S'consejo'
p2138
(dp2139
S'NOUN'
p2140
F1.0
s(lp2141
(g44
I3
tp2142
atp2143
a(S'al'
p2144
(dp2145
S'CONJ'
p2146
F0.963963
sS'ADP'
p2147
F0.036037
s(lp2148
(g51
I6
tp2149
atp2150
a(S'preparar'
p2151
(dp2152
S'VERB'
p2153
F1.0
s(lp2154
(g58
I7
tp2155
atp2156
a(S'la'
p2157
(dp2158
S'PRON'
p2159
F4e-06
sS'DET'
p2160
F0.999995
sS'NOUN'
p2161
F0.0
sg92
F1e-06
s(lp2162
(g37
I4
tp2163
atp2164
a(S'legislaci\xc3\xb3n'
p2165
(dp2166
S'NOUN'
p2167
F1.0
s(lp2168
(g139
I8
tp2169
atp2170
a(S'para'
p2171
(dp2172
S'CONJ'
p2173
F0.000662
sS'ADP'
p2174
F0.999338
s(lp2175
(g71
I10
tp2176
atp2177
a(S'el'
p2178
(dp2179
S'PRON'
p2180
F5e-06
sS'DET'
p2181
F0.999995
s(lp2182
(g80
I11
tp2183
atp2184
a(S'periodo'
p2185
(dp2186
S'NOUN'
p2187
F1.0
s(lp2188
(g87
I13
tp2189
atp2190
a(S'2009-2010'
p2191
(dp2192
g92
F0.474265
sS'NUM'
p2193
F0.525735
s(lp2194
(g95
I12
tp2195
atp2196
a(S'sobre'
p2197
(dp2198
S'NOUN'
p2199
F2e-06
sS'ADP'
p2200
F0.999998
s(lp2201
(g130
I14
tp2202
atp2203
a(S'la'
p2204
(dp2205
S'NOUN'
p2206
F1e-06
sS'PRON'
p2207
F0.0
sS'DET'
p2208
F0.999999
sg92
F0.0
s(lp2209
(g148
I15
tp2210
atp2211
a(S'puesta'
p2212
(dp2213
S'ADJ'
p2214
F0.001937
sS'VERB'
p2215
F0.004853
sS'NOUN'
p2216
F0.99321
s(lp2217
(g283
I27
tp2218
atp2219
a(S'en'
p2220
(dp2221
g92
F1.8e-05
sS'CONJ'
p2222
F1e-05
sS'ADP'
p2223
F0.999972
s(lp2224
tp2225
a(S'marcha'
p2226
(dp2227
S'NOUN'
p2228
F1.0
s(lp2229
(g283
I27
tp2230
atp2231
a(S'del'
p2232
(dp2233
S'ADP'
p2234
F1.0
s(lp2235
(g286
I28
tp2236
atp2237
a(S'sistema'
p2238
(dp2239
S'NOUN'
p2240
F1.0
s(lp2241
(g185
I20
tp2242
atp2243
a(S'de'
p2244
(dp2245
g92
F2.9e-05
sS'CONJ'
p2246
F0.000449
sS'ADP'
p2247
F0.999522
s(lp2248
(g178
I16
tp2249
atp2250
a(S'entrada'
p2251
(dp2252
S'NOUN'
p2253
F1.0
s(lp2254
(g201
I17
tp2255
atp2256
a(g204
(dp2257
g63
F1.0
s(lp2258
(g204
I18
tp2259
atp2260
a(S'salida'
p2261
(dp2262
S'ADJ'
p2263
F0.005174
sS'VERB'
p2264
F0.005604
sS'NOUN'
p2265
F0.989222
s(lp2266
(g215
I19
tp2267
atp2268
a(g61
(dp2269
g63
F1.0
s(lp2270
(g61
I21
tp2271
atp2272
a(S'un'
p2273
(dp2274
g92
F2.6e-05
sS'DET'
p2275
F0.999974
s(lp2276
(g235
I22
tp2277
atp2278
a(S'programa'
p2279
(dp2280
S'NOUN'
p2281
F1.0
s(lp2282
(g243
I25
tp2283
atp2284
a(S'de'
p2285
(dp2286
g92
F5.9e-05
sS'CONJ'
p2287
F0.00049
sS'ADP'
p2288
F0.999451
s(lp2289
tp2290
a(S'viajeros'
p2291
(dp2292
S'ADJ'
p2293
F0.111769
sS'NOUN'
p2294
F0.888231
s(lp2295
(g251
I24
tp2296
atp2297
a(S'registrados'
p2298
(dp2299
S'VERB'
p2300
F1.0
s(lp2301
(g270
I23
tp2302
atp2303
a(S'y'
p2304
(dp2305
g92
F1.6e-05
sS'CONJ'
p2306
F0.999984
s(lp2307
(g295
I29
tp2308
atp2309
a(S'un'
p2310
(dp2311
g92
F2e-06
sS'DET'
p2312
F0.999998
s(lp2313
(g311
I30
tp2314
atp2315
a(S'sistema'
p2316
(dp2317
S'NOUN'
p2318
F1.0
s(lp2319
(g318
I32
tp2320
atp2321
a(S'electr\xc3\xb3nico'
p2322
(dp2323
S'ADJ'
p2324
F1.0
s(lp2325
(g326
I31
tp2326
atp2327
a(S'para'
p2328
(dp2329
S'CONJ'
p2330
F0.002186
sS'ADP'
p2331
F0.997814
s(lp2332
tp2333
a(S'la'
p2334
(dp2335
g92
F0.0
sS'PRON'
p2336
F0.0
sS'DET'
p2337
F0.999999
sS'NOUN'
p2338
F0.0
s(lp2339
tp2340
a(S'autorizaci\xc3\xb3n'
p2341
(dp2342
S'NOUN'
p2343
F1.0
s(lp2344
(g342
I35
tp2345
atp2346
a(S'de'
p2347
(dp2348
g92
F2.9e-05
sS'CONJ'
p2349
F0.000449
sS'ADP'
p2350
F0.999521
s(lp2351
(g335
I33
tp2352
atp2353
a(S'viaje'
p2354
(dp2355
S'VERB'
p2356
F1.4e-05
sS'NOUN'
p2357
F0.999986
s(lp2358
(g355
I34
tp2359
atp2360
a(g273
(dp2361
g63
F1.0
s(lp2362
(g273
I36
tp2363
atp2364
a(S'esta'
p2365
(dp2366
S'PRON'
p2367
F1.0
sS'VERB'
p2368
F0.0
s(lp2369
(g368
I37
tp2370
atp2371
a(g61
(dp2372
g63
F1.0
s(lp2373
tp2374
a(S'seg\xc3\xban'
p2375
(dp2376
S'CONJ'
p2377
F0.837132
sS'ADP'
p2378
F0.162868
s(lp2379
(g283
I27
tp2380
atp2381
a(S'sus'
p2382
(dp2383
S'PRON'
p2384
F1.0
s(lp2385
(g283
I27
tp2386
atp2387
a(S'siglas'
p2388
(dp2389
S'NOUN'
p2390
F1.0
s(lp2391
tp2392
a(S'en'
p2393
(dp2394
g92
F0.000112
sS'CONJ'
p2395
F1.4e-05
sS'ADP'
p2396
F0.999874
s(lp2397
tp2398
a(S'ingl\xc3\xa9s'
p2399
(dp2400
S'NOUN'
p2401
F0.463546
sS'ADJ'
p2402
F0.536454
s(lp2403
(g283
I27
tp2404
atp2405
a(g286
(dp2406
g63
F1.0
s(lp2407
(g286
I38
tp2408
atp2409
a(g63
(dp2410
g63
F1.0
s(lp2411
(g63
I39
tp2412
atp2413
as.