(dp0
S'fr'
p1
(lp2
(S'd\xc3\xa8s'
p3
(dp4
S'ADP'
p5
F1.0
s(lp6
tp7
a(S'lors'
p8
(dp9
S'ADV'
p10
F1.0
s(lp11
(S'therefore'
p12
I0
tp13
atp14
a(S','
p15
(dp16
S'.'
p17
F1.0
s(lp18
tp19
a(S'nous'
p20
(dp21
S'PRON'
p22
F1.0
s(lp23
tp24
a(S'nous'
p25
(dp26
S'PRON'
p27
F1.0
s(lp28
(S'we'
p29
I1
tp30
atp31
a(S'trouvons'
p32
(dp33
S'VERB'
p34
F1.0
s(lp35
(S'are'
p36
I2
tp37
atp38
a(S'dans'
p39
(dp40
S'NOUN'
p41
F3.2e-05
sS'ADP'
p42
F0.999968
s(lp43
(S'in'
p44
I3
tp45
atp46
a(S'une'
p47
(dp48
S'NOUN'
p49
F1.8e-05
sS'NUM'
p50
F0.024699
sS'DET'
p51
F0.975282
s(lp52
(S'a'
p53
I4
tp54
atp55
a(S'situation'
p56
(dp57
S'NOUN'
p58
F1.0
s(lp59
(S'situation'
p60
I7
tp61
atp62
a(S'tr\xc3\xa8s'
p63
(dp64
S'ADV'
p65
F1.0
s(lp66
(S'very'
p67
I5
tp68
atp69
a(S'positive'
p70
(dp71
S'NOUN'
p72
F0.076433
sS'VERB'
p73
F0.00956
sS'ADJ'
p74
F0.914007
s(lp75
(S'positive'
p76
I6
tp77
atp78
a(S'o\xc3\xb9'
p79
(dp80
S'ADV'
p81
F0.010551
sS'PRON'
p82
F0.989449
s(lp83
(S'where'
p84
I8
tp85
atp86
a(S"l'"
p87
(dp88
S'ADJ'
p89
F0.008651
sS'VERB'
p90
F0.9704389999999999
sS'NOUN'
p91
F0.02091
s(lp92
tp93
a(S'on'
p94
(dp95
S'PRON'
p96
F1.0
s(lp97
(S'we'
p98
I9
tp99
atp100
a(S'peut'
p101
(dp102
S'VERB'
p103
F1.0
s(lp104
(S'can'
p105
I10
tp106
atp107
a(S'faire'
p108
(dp109
S'VERB'
p110
F1.0
s(lp111
(S'kill'
p112
I11
tp113
atp114
a(S"d'"
p115
(dp116
S'ADJ'
p117
F0.050629
sS'VERB'
p118
F0.794975
sS'NOUN'
p119
F0.154398
s(lp120
(S'with'
p121
I14
tp122
atp123
a(S'une'
p124
(dp125
S'NOUN'
p126
F1.5e-05
sS'NUM'
p127
F0.021976
sS'DET'
p128
F0.978009
s(lp129
(S'one'
p130
I15
tp131
atp132
a(S'pierre'
p133
(dp134
S'NOUN'
p135
F1.0
s(lp136
tp137
a(S'deux'
p138
(dp139
S'NUM'
p140
F0.999997
sS'NOUN'
p141
F3e-06
s(lp142
(S'two'
p143
I12
tp144
atp145
a(S'coups'
p146
(dp147
S'NOUN'
p148
F1.0
s(lp149
(S'stone'
p150
I16
tp151
atp152
a(g17
(dp153
g17
F1.0
s(lp154
(g17
I17
tp155
atp156
asS'en'
p157
(lp158
(g12
(dp159
S'ADV'
p160
F1.0
s(lp161
(g12
I0
tp162
atp163
a(g29
(dp164
S'PRON'
p165
F1.0
s(lp166
(g29
I1
tp167
atp168
a(g36
(dp169
S'VERB'
p170
F1.0
sS'NOUN'
p171
F0.0
s(lp172
(g36
I2
tp173
atp174
a(g44
(dp175
S'ADV'
p176
F0.013237
sS'PRT'
p177
F0.002087
sS'ADP'
p178
F0.984675
s(lp179
(g44
I3
tp180
atp181
a(g53
(dp182
S'NOUN'
p183
F1e-06
sS'DET'
p184
F0.999999
s(lp185
(g53
I4
tp186
atp187
a(g67
(dp188
S'ADV'
p189
F0.666634
sS'ADJ'
p190
F0.333366
s(lp191
(g67
I5
tp192
atp193
a(g76
(dp194
S'NOUN'
p195
F0.007987
sS'ADJ'
p196
F0.992013
s(lp197
(g76
I6
tp198
atp199
a(g60
(dp200
S'NOUN'
p201
F1.0
s(lp202
(g60
I7
tp203
atp204
a(g84
(dp205
S'ADV'
p206
F0.999877
sS'ADP'
p207
F0.000123
s(lp208
(g84
I8
tp209
atp210
a(g98
(dp211
S'PRON'
p212
F1.0
s(lp213
(g98
I9
tp214
atp215
a(g105
(dp216
S'VERB'
p217
F1.0
sS'NOUN'
p218
F0.0
s(lp219
(g105
I10
tp220
atp221
a(g112
(dp222
S'VERB'
p223
F0.999997
sS'NOUN'
p224
F2e-06
s(lp225
(g112
I11
tp226
atp227
a(g143
(dp228
S'NUM'
p229
F0.999935
sS'NOUN'
p230
F6.5e-05
s(lp231
(g143
I12
tp232
atp233
a(S'birds'
p234
(dp235
S'NOUN'
p236
F1.0
s(lp237
(g234
I13
tp238
atp239
a(g121
(dp240
S'ADP'
p241
F1.0
s(lp242
(g121
I14
tp243
atp244
a(g130
(dp245
S'PRON'
p246
F0.000203
sS'NUM'
p247
F0.999785
sS'NOUN'
p248
F1.2e-05
s(lp249
(g130
I15
tp250
atp251
a(g150
(dp252
S'ADJ'
p253
F0.005579
sS'VERB'
p254
F0.000196
sS'NOUN'
p255
F0.994225
s(lp256
(g150
I16
tp257
atp258
a(g17
(dp259
g17
F1.0
s(lp260
(g17
I17
tp261
atp262
asS'nl'
p263
(lp264
(S'we'
p265
(dp266
S'PRON'
p267
F1.0
s(lp268
(g29
I1
tp269
atp270
a(S'bevinden'
p271
(dp272
S'VERB'
p273
F0.999991
sS'NOUN'
p274
F8e-06
s(lp275
tp276
a(S'ons'
p277
(dp278
S'PRON'
p279
F0.99994
sS'NOUN'
p280
F6e-05
s(lp281
(g36
I2
tp282
atp283
a(S'dus'
p284
(dp285
S'ADV'
p286
F0.999674
sS'CONJ'
p287
F0.000326
s(lp288
(g12
I0
tp289
atp290
a(S'in'
p291
(dp292
S'ADV'
p293
F0.011907
sS'VERB'
p294
F2e-06
sS'ADP'
p295
F0.988091
s(lp296
(g44
I3
tp297
atp298
a(S'een'
p299
(dp300
S'ADJ'
p301
F1e-06
sS'PRON'
p302
F0.000526
sS'NUM'
p303
F1e-06
sS'DET'
p304
F0.999473
s(lp305
(g53
I4
tp306
atp307
a(S'zeer'
p308
(dp309
S'NOUN'
p310
F0.000596
sS'ADJ'
p311
F0.999404
s(lp312
(g67
I5
tp313
atp314
a(S'positieve'
p315
(dp316
S'NOUN'
p317
F0.000493
sS'ADJ'
p318
F0.999507
s(lp319
(g76
I6
tp320
atp321
a(S'situatie'
p322
(dp323
S'NOUN'
p324
F1.0
s(lp325
(g60
I7
tp326
atp327
a(S'waarbij'
p328
(dp329
S'ADV'
p330
F1.0
s(lp331
(g84
I8
tp332
atp333
a(S'we'
p334
(dp335
S'PRON'
p336
F1.0
s(lp337
(g98
I9
tp338
atp339
a(S'twee'
p340
(dp341
S'NUM'
p342
F1.0
s(lp343
(g143
I12
tp344
atp345
a(S'vliegen'
p346
(dp347
S'VERB'
p348
F0.007018
sS'NOUN'
p349
F0.9929830000000001
s(lp350
(g234
I13
tp351
atp352
a(S'in'
p353
(dp354
S'ADV'
p355
F0.003882
sS'VERB'
p356
F2e-06
sS'ADP'
p357
F0.996116
s(lp358
(g121
I14
tp359
atp360
a(S'\xc3\xa9\xc3\xa9n'
p361
(dp362
S'ADJ'
p363
F0.008047
sS'NUM'
p364
F0.004171
sS'DET'
p365
F0.985941
sS'PRON'
p366
F0.001841
s(lp367
(g130
I15
tp368
atp369
a(S'klap'
p370
(dp371
S'VERB'
p372
F0.00033
sS'NOUN'
p373
F0.99967
s(lp374
tp375
a(S'kunnen'
p376
(dp377
S'VERB'
p378
F0.999995
sS'NOUN'
p379
F5e-06
s(lp380
(g105
I10
tp381
atp382
a(S'vangen'
p383
(dp384
S'VERB'
p385
F0.999931
sS'NOUN'
p386
F6.9e-05
s(lp387
(g150
I16
tp388
atp389
a(g17
(dp390
g17
F1.0
s(lp391
(g17
I17
tp392
atp393
asS'de'
p394
(lp395
(S'wir'
p396
(dp397
S'PRON'
p398
F1.0
s(lp399
(g29
I1
tp400
atp401
a(S'sind'
p402
(dp403
S'VERB'
p404
F1.0
s(lp405
(g36
I2
tp406
atp407
a(S'folglich'
p408
(dp409
S'ADV'
p410
F1.0
s(lp411
(g12
I0
tp412
atp413
a(S'in'
p414
(dp415
S'ADP'
p416
F1.0
s(lp417
(g44
I3
tp418
atp419
a(S'der'
p420
(dp421
S'PRON'
p422
F0.001998
sS'DET'
p423
F0.997054
s(lp424
(g53
I4
tp425
atp426
a(S'sehr'
p427
(dp428
S'ADV'
p429
F1.0
s(lp430
(g67
I5
tp431
atp432
a(S'g\xc3\xbcnstigen'
p433
(dp434
S'ADJ'
p435
F1.0
s(lp436
(g76
I6
tp437
atp438
a(S'lage'
p439
(dp440
S'VERB'
p441
F0.000787
sS'NOUN'
p442
F0.999029
s(lp443
(g60
I7
tp444
atp445
a(g15
(dp446
g17
F1.0
s(lp447
(g84
I8
tp448
atp449
a(S'zwei'
p450
(dp451
S'NUM'
p452
F1.0
s(lp453
(g143
I12
tp454
atp455
a(S'fliegen'
p456
(dp457
S'VERB'
p458
F1.0
s(lp459
(g234
I13
tp460
atp461
a(S'mit'
p462
(dp463
S'PRT'
p464
F0.000284
sS'ADP'
p465
F0.999716
s(lp466
(g121
I14
tp467
atp468
a(S'einer'
p469
(dp470
S'PRON'
p471
F0.974614
sS'DET'
p472
F0.024231
s(lp473
(g130
I15
tp474
atp475
a(S'klappe'
p476
(dp477
S'VERB'
p478
F1.0
s(lp479
tp480
a(S'zu'
p481
(dp482
S'PRT'
p483
F0.998
s(lp484
tp485
a(S'schlagen'
p486
(dp487
S'VERB'
p488
F1.0
s(lp489
(g150
I16
tp490
atp491
a(g17
(dp492
g17
F1.0
s(lp493
(g17
I17
tp494
atp495
asS'it'
p496
(lp497
(S'pertanto'
p498
(dp499
S'ADV'
p500
F1.0
s(lp501
(g12
I0
tp502
atp503
a(g15
(dp504
g17
F1.0
s(lp505
tp506
a(S'ci'
p507
(dp508
S'ADV'
p509
F0.000565
sS'PRON'
p510
F0.999374
sS'NOUN'
p511
F6.2e-05
s(lp512
(g29
I1
tp513
atp514
a(S'troviamo'
p515
(dp516
S'VERB'
p517
F1.0
s(lp518
(g36
I2
tp519
atp520
a(S'in'
p521
(dp522
S'ADP'
p523
F1.0
s(lp524
(g44
I3
tp525
atp526
a(S'una'
p527
(dp528
S'PRON'
p529
F0.000159
sS'DEF'
p530
F0.999841
s(lp531
(g53
I4
tp532
atp533
a(S'situazione'
p534
(dp535
S'NOUN'
p536
F1.0
s(lp537
(g60
I7
tp538
atp539
a(S'molto'
p540
(dp541
S'ADV'
p542
F0.890973
sS'PRON'
p543
F0.002039
sS'VERB'
p544
F0.001163
sS'ADJ'
p545
F0.105825
s(lp546
(g67
I5
tp547
atp548
a(S'positiva'
p549
(dp550
S'NOUN'
p551
F0.112913
sS'ADJ'
p552
F0.887087
s(lp553
(g76
I6
tp554
atp555
a(S'in'
p556
(dp557
S'ADP'
p558
F1.0
s(lp559
tp560
a(S'cui'
p561
(dp562
S'PRON'
p563
F1.0
s(lp564
(g84
I8
tp565
atp566
a(S'possiamo'
p567
(dp568
S'VERB'
p569
F1.0000010000000001
s(lp570
(g105
I10
tp571
atp572
a(S'prendere'
p573
(dp574
S'VERB'
p575
F1.0
s(lp576
(g112
I11
tp577
atp578
a(S'due'
p579
(dp580
S'NUM'
p581
F0.00011
sS'ADJ'
p582
F0.99989
s(lp583
(g143
I12
tp584
atp585
a(S'piccioni'
p586
(dp587
S'NOUN'
p588
F1.0
s(lp589
(g234
I13
tp590
atp591
a(S'con'
p592
(dp593
S'ADP'
p594
F1.0
s(lp595
(g121
I14
tp596
atp597
a(S'una'
p598
(dp599
S'PRON'
p600
F0.000159
sS'DEF'
p601
F0.999841
s(lp602
(g130
I15
tp603
atp604
a(S'fava'
p605
(dp606
S'NOUN'
p607
F1.0
s(lp608
(g150
I16
tp609
atp610
a(g17
(dp611
g17
F1.0
s(lp612
(g17
I17
tp613
atp614
asS'sk'
p615
(lp616
(S'z'
p617
(dp618
S'X'
p619
F8.1e-05
sS'NOUN'
p620
F1.9e-05
sS'ADP'
p621
F0.999899
s(lp622
(g12
I0
tp623
atp624
a(S'tohto'
p625
(dp626
S'PRON'
p627
F0.999971
sg619
F2.9e-05
s(lp628
tp629
a(S'd\xc3\xb4vodu'
p630
(dp631
S'NOUN'
p632
F1.0
s(lp633
(g12
I0
tp634
atp635
a(S'sme'
p636
(dp637
g619
F0.0023829999999999997
sS'VERB'
p638
F0.997617
s(lp639
(g29
I1
tp640
atp641
a(S'vo'
p642
(dp643
S'ADP'
p644
F1.0
s(lp645
(g44
I3
tp646
atp647
a(S've\xc4\xbemi'
p648
(dp649
S'ADV'
p650
F1.0
s(lp651
(g67
I5
tp652
atp653
a(S'priaznivej'
p654
(dp655
S'ADJ'
p656
F1.0
s(lp657
(g76
I6
tp658
atp659
a(S'situ\xc3\xa1cii'
p660
(dp661
S'NOUN'
p662
F1.0
s(lp663
(g60
I7
tp664
atp665
a(g15
(dp666
g17
F1.0
s(lp667
tp668
a(S'ke\xc4\x8f'
p669
(dp670
g619
F0.000368
sS'CONJ'
p671
F0.999632
s(lp672
(g84
I8
tp673
atp674
a(S'm\xc3\xb4\xc5\xbeeme'
p675
(dp676
S'VERB'
p677
F1.0
s(lp678
(g105
I10
tp679
atp680
a(S'zabi\xc5\xa5'
p681
(dp682
S'VERB'
p683
F1.0
s(lp684
(g112
I11
tp685
atp686
a(S'dve'
p687
(dp688
S'NUM'
p689
F1.0
s(lp690
(g143
I12
tp691
atp692
a(S'muchy'
p693
(dp694
S'NOUN'
p695
F1.0
s(lp696
(g234
I13
tp697
atp698
a(S'jednou'
p699
(dp700
g619
F0.009079
sS'NUM'
p701
F0.990921
s(lp702
(g130
I15
tp703
atp704
a(S'ranou'
p705
(dp706
S'ADJ'
p707
F0.069119
sS'NOUN'
p708
F0.930881
s(lp709
(g150
I16
tp710
atp711
a(g17
(dp712
g17
F1.0
s(lp713
(g17
I17
tp714
atp715
asS'pl'
p716
(lp717
(S'jeste\xc5\x9bmy'
p718
(dp719
S'VERB'
p720
F1.0
s(lp721
(g36
I2
tp722
atp723
a(S'zatem'
p724
(dp725
S'CONJ'
p726
F1.0
s(lp727
(g12
I0
tp728
atp729
a(S'w'
p730
(dp731
S'NOUN'
p732
F6e-06
sS'ADJ'
p733
F2.1e-05
sS'ADP'
p734
F0.9999739999999999
sg619
F0.0
s(lp735
(g44
I3
tp736
atp737
a(S'sytuacji'
p738
(dp739
S'NOUN'
p740
F1.0
s(lp741
(g60
I7
tp742
atp743
a(g15
(dp744
g619
F0.0
sg17
F1.0
s(lp745
tp746
a(g730
(dp747
S'NOUN'
p748
F5e-06
sS'ADJ'
p749
F6e-06
sS'ADP'
p750
F0.999987
sg619
F3e-06
s(lp751
tp752
a(S'kt\xc3\xb3rej'
p753
(dp754
S'ADJ'
p755
F1.000001
s(lp756
(g84
I8
tp757
atp758
a(S'mo\xc5\xbcemy'
p759
(dp760
S'VERB'
p761
F1.0
s(lp762
(g105
I10
tp763
atp764
a(S'upiec'
p765
(dp766
S'ADV'
p767
F0.003349
sS'ADJ'
p768
F1.1e-05
sS'VERB'
p769
F0.961734
sS'NOUN'
p770
F0.03490599999999999
s(lp771
(g112
I11
tp772
atp773
a(S'dwie'
p774
(dp775
S'NUM'
p776
F1.0
s(lp777
(g143
I12
tp778
atp779
a(S'pieczenie'
p780
(dp781
S'ADV'
p782
F0.034983
sS'ADJ'
p783
F0.006438000000000001
sS'VERB'
p784
F0.005561000000000002
sS'NOUN'
p785
F0.953018
s(lp786
tp787
a(S'na'
p788
(dp789
S'PRT'
p790
F1e-06
sS'VERB'
p791
F0.0
sS'NOUN'
p792
F0.0
sS'ADP'
p793
F0.9999979999999999
sg619
F1e-06
s(lp794
(g234
I13
tp795
atp796
a(S'jednym'
p797
(dp798
S'NOUN'
p799
F0.001135
sS'ADJ'
p800
F0.9988660000000001
s(lp801
(g130
I15
tp802
atp803
a(S'ogniu'
p804
(dp805
S'NOUN'
p806
F1.0
s(lp807
(g150
I16
tp808
atp809
a(g17
(dp810
g17
F1.0
s(lp811
(g17
I17
tp812
atp813
asS'sl'
p814
(lp815
(S'zato'
p816
(dp817
S'ADV'
p818
F0.190012
sS'CONJ'
p819
F0.809988
s(lp820
(g12
I0
tp821
atp822
a(S'je'
p823
(dp824
S'PRON'
p825
F0.005246
sS'VERB'
p826
F0.9947520000000001
sg619
F2e-06
s(lp827
(g36
I2
tp828
atp829
a(S'sedanji'
p830
(dp831
S'ADJ'
p832
F0.9999999999999999
s(lp833
tp834
a(S'polo\xc5\xbeaj'
p835
(dp836
S'NOUN'
p837
F1.0
s(lp838
(g60
I7
tp839
atp840
a(S'zelo'
p841
(dp842
S'ADV'
p843
F1.0
s(lp844
(g67
I5
tp845
atp846
a(S'pozitiven'
p847
(dp848
S'ADJ'
p849
F1.0
s(lp850
(g76
I6
tp851
atp852
a(S'in'
p853
(dp854
S'ADV'
p855
F9.4e-05
sg619
F3e-06
sS'CONJ'
p856
F0.999377
sS'NOUN'
p857
F0.000526
s(lp858
(g121
I14
tp859
atp860
a(S'lahko'
p861
(dp862
S'ADV'
p863
F0.999625
sS'ADJ'
p864
F0.000375
s(lp865
(g105
I10
tp866
atp867
a(S'hkrati'
p868
(dp869
S'ADV'
p870
F1.0
s(lp871
(g234
I13
tp872
atp873
a(S'odpravimo'
p874
(dp875
S'VERB'
p876
F1.0
s(lp877
(g112
I11
tp878
atp879
a(S'dve'
p880
(dp881
S'NUM'
p882
F0.9999999999999999
s(lp883
(g143
I12
tp884
atp885
a(S'te\xc5\xbeavi'
p886
(dp887
S'NOUN'
p888
F1.0
s(lp889
(g150
I16
tp890
atp891
a(g17
(dp892
g17
F1.0
s(lp893
(g17
I17
tp894
atp895
asS'es'
p896
(lp897
(S'por'
p898
(dp899
S'ADV'
p900
F1.0
s(lp901
tp902
a(S'consiguiente'
p903
(dp904
S'ADV'
p905
F1.0
s(lp906
(g12
I0
tp907
atp908
a(g15
(dp909
g17
F1.0
s(lp910
(g29
I1
tp911
atp912
a(S'estamos'
p913
(dp914
S'VERB'
p915
F1.0
s(lp916
(g36
I2
tp917
atp918
a(S'en'
p919
(dp920
g619
F0.0
sS'CONJ'
p921
F0.0
sS'ADP'
p922
F1.0
s(lp923
(g44
I3
tp924
atp925
a(S'una'
p926
(dp927
S'DET'
p928
F1.0
s(lp929
(g53
I4
tp930
atp931
a(S'situaci\xc3\xb3n'
p932
(dp933
S'NOUN'
p934
F1.0
s(lp935
(g60
I7
tp936
atp937
a(S'muy'
p938
(dp939
S'ADV'
p940
F1.0
s(lp941
(g67
I5
tp942
atp943
a(S'favorable'
p944
(dp945
S'ADJ'
p946
F1.0
s(lp947
(g76
I6
tp948
atp949
a(S'para'
p950
(dp951
S'CONJ'
p952
F0.985245
sS'ADP'
p953
F0.014755
s(lp954
(g84
I8
tp955
atp956
a(S'matar'
p957
(dp958
S'VERB'
p959
F1.0
s(lp960
(g112
I11
tp961
atp962
a(S'dos'
p963
(dp964
S'NUM'
p965
F0.999922
sS'NOUN'
p966
F7.8e-05
s(lp967
(g143
I12
tp968
atp969
a(S'p\xc3\xa1jaros'
p970
(dp971
S'NOUN'
p972
F1.0
s(lp973
(g234
I13
tp974
atp975
a(S'de'
p976
(dp977
g619
F0.0
sS'CONJ'
p978
F1.7e-05
sS'ADP'
p979
F0.999982
s(lp980
(g121
I14
tp981
atp982
a(S'un'
p983
(dp984
g619
F3e-06
sS'DET'
p985
F0.999997
s(lp986
(g130
I15
tp987
atp988
a(S'tiro'
p989
(dp990
S'VERB'
p991
F0.000337
sS'NOUN'
p992
F0.999663
s(lp993
(g150
I16
tp994
atp995
a(g17
(dp996
g17
F1.0
s(lp997
(g17
I17
tp998
atp999
as.