(dp0
S'fr'
p1
(lp2
(S'monsieur'
p3
(dp4
S'NOUN'
p5
F1.0
s(lp6
(S'commissioner'
p7
I0
tp8
atp9
a(S'le'
p10
(dp11
S'PRON'
p12
F0.000277
sS'DET'
p13
F0.999723
s(lp14
tp15
a(S'commissaire'
p16
(dp17
S'NOUN'
p18
F1.0
s(lp19
(g7
I0
tp20
atp21
a(S','
p22
(dp23
S'.'
p24
F1.0
s(lp25
(g22
I1
tp26
atp27
a(S'je'
p28
(dp29
S'PRON'
p30
F1.0
s(lp31
(S'i'
p32
I2
tp33
atp34
a(S'vous'
p35
(dp36
S'PRON'
p37
F1.0
s(lp38
(S'you'
p39
I4
tp40
atp41
a(S'remercie'
p42
(dp43
S'VERB'
p44
F1.0
s(lp45
(S'thank'
p46
I3
tp47
atp48
a(S'pour'
p49
(dp50
S'CONJ'
p51
F0.041423
sS'ADP'
p52
F0.958577
s(lp53
(S'for'
p54
I5
tp55
atp56
a(S'vos'
p57
(dp58
S'PRON'
p59
F1.0
s(lp60
tp61
a(S'propositions'
p62
(dp63
S'NOUN'
p64
F1.0
s(lp65
(S'proposals'
p66
I7
tp67
atp68
a(S'et'
p69
(dp70
S'CONJ'
p71
F1.0
s(lp72
tp73
a(S'pour'
p74
(dp75
S'CONJ'
p76
F0.228469
sS'ADP'
p77
F0.771531
s(lp78
(S'and'
p79
I8
tp80
atp81
a(S'vos'
p82
(dp83
S'PRON'
p84
F1.0
s(lp85
(S'your'
p86
I6
tp87
atp88
a(S'efforts'
p89
(dp90
S'NOUN'
p91
F1.0
s(lp92
tp93
a(S'afin'
p94
(dp95
S'CONJ'
p96
F1.0
s(lp97
(S'efforts'
p98
I9
tp99
atp100
a(S'de'
p101
(dp102
S'ADP'
p103
F1.0
s(lp104
(S'to'
p105
I10
tp106
atp107
a(S'trouver'
p108
(dp109
S'VERB'
p110
F1.0
s(lp111
(S'find'
p112
I11
tp113
atp114
a(S'une'
p115
(dp116
S'NOUN'
p117
F5e-06
sS'NUM'
p118
F0.006837
sS'DET'
p119
F0.993158
s(lp120
(S'a'
p121
I12
tp122
atp123
a(S'solution'
p124
(dp125
S'NOUN'
p126
F1.0
s(lp127
(S'solution'
p128
I13
tp129
atp130
a(g24
(dp131
g24
F1.0
s(lp132
(g24
I14
tp133
atp134
asS'en'
p135
(lp136
(g7
(dp137
S'NOUN'
p138
F1.0
s(lp139
(g7
I0
tp140
atp141
a(g22
(dp142
g24
F1.0
s(lp143
(g22
I1
tp144
atp145
a(g32
(dp146
S'X'
p147
F0.025574
sS'NOUN'
p148
F0.974425
s(lp149
(g32
I2
tp150
atp151
a(g46
(dp152
S'VERB'
p153
F1.0
s(lp154
(g46
I3
tp155
atp156
a(g39
(dp157
S'PRON'
p158
F1.0
s(lp159
(g39
I4
tp160
atp161
a(g54
(dp162
S'ADP'
p163
F1.0
s(lp164
(g54
I5
tp165
atp166
a(g86
(dp167
S'PRON'
p168
F1.0
s(lp169
(g86
I6
tp170
atp171
a(g66
(dp172
S'NOUN'
p173
F1.0
s(lp174
(g66
I7
tp175
atp176
a(g79
(dp177
S'CONJ'
p178
F0.999998
sS'NOUN'
p179
F2e-06
s(lp180
(g79
I8
tp181
atp182
a(g98
(dp183
S'NOUN'
p184
F1.0
s(lp185
(g98
I9
tp186
atp187
a(g105
(dp188
S'ADV'
p189
F0.0
sS'PRT'
p190
F1.0
sS'ADP'
p191
F0.0
s(lp192
(g105
I10
tp193
atp194
a(g112
(dp195
S'VERB'
p196
F0.999997
sS'NOUN'
p197
F3e-06
s(lp198
(g112
I11
tp199
atp200
a(g121
(dp201
S'NOUN'
p202
F0.0
sS'DET'
p203
F1.0
s(lp204
(g121
I12
tp205
atp206
a(g128
(dp207
S'NOUN'
p208
F1.0
s(lp209
(g128
I13
tp210
atp211
a(g24
(dp212
g24
F1.0
s(lp213
(g24
I14
tp214
atp215
asS'nl'
p216
(lp217
(S'commissaris'
p218
(dp219
S'NOUN'
p220
F1.0
s(lp221
(g7
I0
tp222
atp223
a(g22
(dp224
g24
F1.0
s(lp225
(g22
I1
tp226
atp227
a(S'ik'
p228
(dp229
S'PRON'
p230
F0.999922
sS'NOUN'
p231
F7.8e-05
s(lp232
(g32
I2
tp233
atp234
a(S'dank'
p235
(dp236
S'VERB'
p237
F0.92295
sS'NOUN'
p238
F0.07705
s(lp239
(g46
I3
tp240
atp241
a(S'u'
p242
(dp243
S'PRON'
p244
F0.998566
sS'NOUN'
p245
F0.001434
s(lp246
(g39
I4
tp247
atp248
a(S'voor'
p249
(dp250
S'ADV'
p251
F0.007278
sS'CONJ'
p252
F2e-06
sS'NOUN'
p253
F0.0
sS'ADP'
p254
F0.99272
s(lp255
(g54
I5
tp256
atp257
a(S'uw'
p258
(dp259
S'PRON'
p260
F1.0
s(lp261
tp262
a(S'voorstellen'
p263
(dp264
S'VERB'
p265
F5e-06
sS'NOUN'
p266
F0.9999939999999999
s(lp267
(g66
I7
tp268
atp269
a(S'en'
p270
(dp271
S'CONJ'
p272
F1.0
s(lp273
(g79
I8
tp274
atp275
a(S'uw'
p276
(dp277
S'PRON'
p278
F1.0
s(lp279
(g86
I6
tp280
atp281
a(S'inspanningen'
p282
(dp283
S'NOUN'
p284
F1.0
s(lp285
(g98
I9
tp286
atp287
a(S'om'
p288
(dp289
S'ADV'
p290
F0.001351
sS'CONJ'
p291
F0.633675
sS'ADP'
p292
F0.364974
s(lp293
tp294
a(S'een'
p295
(dp296
S'ADJ'
p297
F1e-06
sS'PRON'
p298
F1.6e-05
sS'NUM'
p299
F1e-06
sS'DET'
p300
F0.999983
s(lp301
(g121
I12
tp302
atp303
a(S'oplossing'
p304
(dp305
S'NOUN'
p306
F1.0
s(lp307
(g128
I13
tp308
atp309
a(S'te'
p310
(dp311
S'PRT'
p312
F1.0
s(lp313
(g105
I10
tp314
atp315
a(S'vinden'
p316
(dp317
S'VERB'
p318
F1.0
sS'NOUN'
p319
F0.0
s(lp320
(g112
I11
tp321
atp322
a(g24
(dp323
g24
F1.0
s(lp324
(g24
I14
tp325
atp326
asS'de'
p327
(lp328
(S'herr'
p329
(dp330
S'NOUN'
p331
F0.960224
s(lp332
tp333
a(S'kommissar'
p334
(dp335
S'NOUN'
p336
F0.200041
sS'ADJ'
p337
F0.718185
s(lp338
(g7
I0
tp339
atp340
a(g22
(dp341
g24
F1.0
s(lp342
(g22
I1
tp343
atp344
a(S'ich'
p345
(dp346
S'PRON'
p347
F1.0
s(lp348
(g32
I2
tp349
atp350
a(S'danke'
p351
(dp352
S'PRT'
p353
F0.201263
sS'VERB'
p354
F0.798737
s(lp355
(g46
I3
tp356
atp357
a(S'ihnen'
p358
(dp359
S'PRON'
p360
F1.0
s(lp361
(g39
I4
tp362
atp363
a(S'f\xc3\xbcr'
p364
(dp365
S'ADP'
p366
F1.0
s(lp367
(g54
I5
tp368
atp369
a(S'ihre'
p370
(dp371
S'PRON'
p372
F1.0
s(lp373
(g86
I6
tp374
atp375
a(S'vorschl\xc3\xa4ge'
p376
(dp377
S'ADJ'
p378
F0.001325
sS'NOUN'
p379
F0.998617
s(lp380
(g66
I7
tp381
atp382
a(S'und'
p383
(dp384
S'CONJ'
p385
F1.0
s(lp386
(g79
I8
tp387
atp388
a(S'bem\xc3\xbchungen'
p389
(dp390
S'VERB'
p391
F0.016723
sS'NOUN'
p392
F0.979812
s(lp393
(g98
I9
tp394
atp395
a(S'um'
p396
(dp397
S'PRT'
p398
F0.000563
sS'ADP'
p399
F0.999299
s(lp400
(g105
I10
tp401
atp402
a(S'eine'
p403
(dp404
S'PRON'
p405
F0.004124
sS'DET'
p406
F0.995446
s(lp407
(g121
I12
tp408
atp409
a(S'l\xc3\xb6sung'
p410
(dp411
S'ADJ'
p412
F0.052368
sS'NOUN'
p413
F0.941095
s(lp414
(g128
I13
tp415
atp416
a(g24
(dp417
g24
F1.0
s(lp418
(g24
I14
tp419
atp420
asS'it'
p421
(lp422
(S'signor'
p423
(dp424
S'NOUN'
p425
F1.0
s(lp426
tp427
a(S'commissario'
p428
(dp429
S'VERB'
p430
F0.118816
sS'NOUN'
p431
F0.881184
s(lp432
(g7
I0
tp433
atp434
a(g22
(dp435
g24
F1.0
s(lp436
(g22
I1
tp437
atp438
a(S'la'
p439
(dp440
S'PRON'
p441
F0.848478
sS'DET'
p442
F0.151522
s(lp443
tp444
a(S'ringrazio'
p445
(dp446
S'VERB'
p447
F1.0
s(lp448
(g46
I3
tp449
atp450
a(S'per'
p451
(dp452
S'CONJ'
p453
F0.021358
sS'ADP'
p454
F0.978642
s(lp455
(g54
I5
tp456
atp457
a(S'le'
p458
(dp459
S'PRON'
p460
F1.2e-05
sS'DET'
p461
F0.999988
s(lp462
tp463
a(S'sue'
p464
(dp465
S'PRON'
p466
F1.0
s(lp467
(g86
I6
tp468
atp469
a(S'proposte'
p470
(dp471
S'VERB'
p472
F0.000168
sS'NOUN'
p473
F0.999832
s(lp474
(g66
I7
tp475
atp476
a(S'e'
p477
(dp478
S'CONJ'
p479
F1.0
s(lp480
(g79
I8
tp481
atp482
a(S"l'"
p483
(dp484
S'NOUN'
p485
F0.000589
sS'VERB'
p486
F0.9933339999999999
sS'ADJ'
p487
F0.006076
s(lp488
tp489
a(S'impegno'
p490
(dp491
S'VERB'
p492
F0.019132
sS'NOUN'
p493
F0.980868
s(lp494
tp495
a(S'da'
p496
(dp497
S'ADP'
p498
F1.0
s(lp499
tp500
a(S'lei'
p501
(dp502
S'PRON'
p503
F1.0
s(lp504
(g39
I4
tp505
atp506
a(S'profuso'
p507
(dp508
S'VERB'
p509
F0.968138
sS'ADJ'
p510
F0.031862
s(lp511
(g98
I9
tp512
atp513
a(S'alla'
p514
(dp515
S'ADP'
p516
F1.0
s(lp517
(g105
I10
tp518
atp519
a(S'ricerca'
p520
(dp521
S'VERB'
p522
F9.7e-05
sS'NOUN'
p523
F0.999903
s(lp524
(g112
I11
tp525
atp526
a(S'di'
p527
(dp528
S'CONJ'
p529
F1.6e-05
sS'ADP'
p530
F0.999984
s(lp531
tp532
a(S'una'
p533
(dp534
S'PRON'
p535
F0.000159
sS'DEF'
p536
F0.999841
s(lp537
(g121
I12
tp538
atp539
a(S'soluzione'
p540
(dp541
S'NOUN'
p542
F1.0
s(lp543
(g128
I13
tp544
atp545
a(g24
(dp546
g24
F1.0
s(lp547
(g24
I14
tp548
atp549
asS'sk'
p550
(lp551
(S'p\xc3\xa1n'
p552
(dp553
S'NOUN'
p554
F1.0
s(lp555
tp556
a(S'komis\xc3\xa1r'
p557
(dp558
S'NOUN'
p559
F1.0
s(lp560
(g7
I0
tp561
atp562
a(g22
(dp563
g24
F1.0
s(lp564
(g22
I1
tp565
atp566
a(S'\xc4\x8fakujem'
p567
(dp568
S'VERB'
p569
F0.997776
sS'NOUN'
p570
F0.002223
s(lp571
(g46
I3
tp572
atp573
a(S'v\xc3\xa1m'
p574
(dp575
S'PRON'
p576
F0.999994
sg147
F6e-06
s(lp577
(g39
I4
tp578
atp579
a(S'za'
p580
(dp581
S'PRT'
p582
F0.000239
sS'ADP'
p583
F0.999751
sg147
F1e-05
s(lp584
(g54
I5
tp585
atp586
a(S'va\xc5\xa1e'
p587
(dp588
S'PRON'
p589
F1.0
s(lp590
(g86
I6
tp591
atp592
a(S'n\xc3\xa1vrhy'
p593
(dp594
S'NOUN'
p595
F1.0
s(lp596
(g66
I7
tp597
atp598
a(g121
(dp599
g147
F0.0007580000000000001
sS'CONJ'
p600
F0.998528
sS'NOUN'
p601
F5.5e-05
sS'ADP'
p602
F0.000628
sS'PRT'
p603
F3.2e-05
s(lp604
(g79
I8
tp605
atp606
a(S'snahu'
p607
(dp608
S'NOUN'
p609
F1.0
s(lp610
(g98
I9
tp611
atp612
a(S'o'
p613
(dp614
g147
F0.0009609999999999999
sS'CONJ'
p615
F4.8e-05
sS'NOUN'
p616
F1.7e-05
sS'ADP'
p617
F0.998974
s(lp618
(g121
I12
tp619
atp620
a(S'rie\xc5\xa1enie'
p621
(dp622
S'NOUN'
p623
F1.0
s(lp624
(g128
I13
tp625
atp626
a(g24
(dp627
g24
F1.0
s(lp628
(g24
I14
tp629
atp630
asS'pl'
p631
(lp632
(S'panie'
p633
(dp634
S'NOUN'
p635
F1.0
s(lp636
(g7
I0
tp637
atp638
a(S'komisarzu'
p639
(dp640
S'NOUN'
p641
F1.0
s(lp642
tp643
a(S'!'
p644
(dp645
g24
F1.0
s(lp646
(g7
I0
tp647
atp648
a(S'dzi\xc4\x99kuj\xc4\x99'
p649
(dp650
S'VERB'
p651
F1.0
s(lp652
(g46
I3
tp653
atp654
a(S'za'
p655
(dp656
S'PRT'
p657
F0.007413
sS'VERB'
p658
F1.9e-05
sS'NOUN'
p659
F0.00106
sS'ADP'
p660
F0.991507
sg147
F1e-06
s(lp661
(g54
I5
tp662
atp663
a(S'pana'
p664
(dp665
S'NOUN'
p666
F1.0
s(lp667
(g86
I6
tp668
atp669
a(S'propozycje'
p670
(dp671
S'NOUN'
p672
F1.0
s(lp673
(g66
I7
tp674
atp675
a(g32
(dp676
S'PRT'
p677
F0.001524
sS'CONJ'
p678
F0.998449
sS'NOUN'
p679
F2e-06
sg147
F3e-06
sS'PRON'
p680
F2.3000000000000003e-05
s(lp681
(g79
I8
tp682
atp683
a(S'wysi\xc5\x82ki'
p684
(dp685
S'NOUN'
p686
F1.0
s(lp687
tp688
a(S'na'
p689
(dp690
g147
F3e-06
sS'VERB'
p691
F1e-06
sS'NOUN'
p692
F0.0
sS'ADP'
p693
F0.9999939999999999
sS'PRT'
p694
F1e-06
s(lp695
(g105
I10
tp696
atp697
a(S'rzecz'
p698
(dp699
S'NOUN'
p700
F1.0
s(lp701
(g98
I9
tp702
atp703
a(S'znalezienia'
p704
(dp705
S'VERB'
p706
F1.0
s(lp707
(g112
I11
tp708
atp709
a(S'rozwi\xc4\x85za\xc5\x84'
p710
(dp711
S'NOUN'
p712
F1.0
s(lp713
(g128
I13
tp714
atp715
a(g24
(dp716
g24
F1.0
s(lp717
(g24
I14
tp718
atp719
asS'sl'
p720
(lp721
(S'komisar'
p722
(dp723
S'NOUN'
p724
F1.0
s(lp725
(g7
I0
tp726
atp727
a(g22
(dp728
g24
F1.0
s(lp729
(g22
I1
tp730
atp731
a(S'zahvaljujem'
p732
(dp733
S'VERB'
p734
F1.0
s(lp735
tp736
a(S'se'
p737
(dp738
S'PRON'
p739
F0.999998
sg147
F2e-06
s(lp740
(g46
I3
tp741
atp742
a(S'vam'
p743
(dp744
S'PRON'
p745
F1.0
s(lp746
(g39
I4
tp747
atp748
a(S'za'
p749
(dp750
S'ADV'
p751
F2.6e-05
sg147
F1.3e-05
sS'ADP'
p752
F0.999962
s(lp753
(g54
I5
tp754
atp755
a(S'va\xc5\xa1e'
p756
(dp757
S'PRON'
p758
F1.0
s(lp759
(g86
I6
tp760
atp761
a(S'predloge'
p762
(dp763
S'NOUN'
p764
F1.0
s(lp765
(g66
I7
tp766
atp767
a(S'in'
p768
(dp769
S'ADV'
p770
F1.7e-05
sg147
F6e-06
sS'CONJ'
p771
F0.999976
sS'NOUN'
p772
F1e-06
s(lp773
(g79
I8
tp774
atp775
a(S'prizadevanja'
p776
(dp777
S'NOUN'
p778
F1.0
s(lp779
(g98
I9
tp780
atp781
a(g22
(dp782
g24
F1.0
s(lp783
tp784
a(S'da'
p785
(dp786
S'PRT'
p787
F0.000137
sS'CONJ'
p788
F0.999855
sS'VERB'
p789
F8e-06
sg147
F0.0
s(lp790
tp791
a(S'bi'
p792
(dp793
g147
F2e-06
sS'VERB'
p794
F0.999998
s(lp795
(g105
I10
tp796
atp797
a(S'na\xc5\xa1li'
p798
(dp799
S'VERB'
p800
F1.0
s(lp801
(g112
I11
tp802
atp803
a(S're\xc5\xa1itev'
p804
(dp805
S'NOUN'
p806
F1.000001
s(lp807
(g128
I13
tp808
atp809
a(g24
(dp810
g24
F1.0
s(lp811
(g24
I14
tp812
atp813
asS'es'
p814
(lp815
(S'se\xc3\xb1or'
p816
(dp817
S'NOUN'
p818
F1.0
s(lp819
tp820
a(S'comisario'
p821
(dp822
S'NOUN'
p823
F1.0
s(lp824
(g7
I0
tp825
atp826
a(g22
(dp827
g24
F1.0
s(lp828
(g22
I1
tp829
atp830
a(S'le'
p831
(dp832
S'PRON'
p833
F0.999034
sg147
F0.000966
s(lp834
(g32
I2
tp835
atp836
a(S'agradezco'
p837
(dp838
S'VERB'
p839
F1.0
s(lp840
(g46
I3
tp841
atp842
a(S'sus'
p843
(dp844
S'PRON'
p845
F1.0
s(lp846
(g86
I6
tp847
atp848
a(S'propuestas'
p849
(dp850
S'VERB'
p851
F0.000456
sS'NOUN'
p852
F0.999544
s(lp853
(g66
I7
tp854
atp855
a(S'y'
p856
(dp857
g147
F1e-06
sS'CONJ'
p858
F0.999999
s(lp859
(g79
I8
tp860
atp861
a(S'sus'
p862
(dp863
S'PRON'
p864
F1.0
s(lp865
tp866
a(S'esfuerzos'
p867
(dp868
S'NOUN'
p869
F1.0
s(lp870
(g98
I9
tp871
atp872
a(S'para'
p873
(dp874
S'CONJ'
p875
F0.952807
sS'ADP'
p876
F0.047193
s(lp877
(g105
I10
tp878
atp879
a(S'encontrar'
p880
(dp881
S'VERB'
p882
F1.0
s(lp883
(g112
I11
tp884
atp885
a(S'una'
p886
(dp887
S'DET'
p888
F1.0
s(lp889
(g121
I12
tp890
atp891
a(S'soluci\xc3\xb3n'
p892
(dp893
S'NOUN'
p894
F1.0
s(lp895
(g128
I13
tp896
atp897
a(g24
(dp898
g24
F1.0
s(lp899
(g24
I14
tp900
atp901
as.