(dp0
S'fr'
p1
(lp2
(S'en'
p3
(dp4
S'PRON'
p5
F0.428893
sS'ADP'
p6
F0.571107
s(lp7
(S'in'
p8
I0
tp9
atp10
a(S'outre'
p11
(dp12
S'ADV'
p13
F0.915346
sS'VERB'
p14
F0.047916
sS'NOUN'
p15
F0.035926
sS'ADP'
p16
F0.000811
s(lp17
(S'addition'
p18
I1
tp19
atp20
a(S','
p21
(dp22
S'.'
p23
F1.0
s(lp24
(g21
I2
tp25
atp26
a(S'je'
p27
(dp28
S'PRON'
p29
F1.0
s(lp30
(S'me'
p31
I7
tp32
atp33
a(S'trouve'
p34
(dp35
S'VERB'
p36
F1.0
s(lp37
tp38
a(S'personnellement'
p39
(dp40
S'ADV'
p41
F1.0
s(lp42
(g31
I7
tp43
atp44
a(S"qu'"
p45
(dp46
S'NOUN'
p47
F0.024273
sS'VERB'
p48
F0.527803
sS'ADJ'
p49
F0.447925
s(lp50
tp51
a(S'il'
p52
(dp53
S'PRON'
p54
F1.0
s(lp55
(S'it'
p56
I3
tp57
atp58
a(S'est'
p59
(dp60
S'VERB'
p61
F0.999977
sS'NOUN'
p62
F2.3e-05
s(lp63
(S'is'
p64
I4
tp65
atp66
a(S'important'
p67
(dp68
S'VERB'
p69
F0.000619
sS'ADJ'
p70
F0.999381
s(lp71
(S'important'
p72
I5
tp73
atp74
a(S'que'
p75
(dp76
S'ADV'
p77
F0.009686
sS'PRON'
p78
F0.101504
sS'CONJ'
p79
F0.88881
s(lp80
(S'that'
p81
I8
tp82
atp83
a(g21
(dp84
g23
F1.0
s(lp85
(g21
I9
tp86
atp87
a(S'notamment'
p88
(dp89
S'ADV'
p90
F1.0
s(lp91
(S'particular'
p92
I11
tp93
atp94
a(g21
(dp95
g23
F1.0
s(lp96
(g21
I12
tp97
atp98
a(S'les'
p99
(dp100
S'PRON'
p101
F0.000333
sS'DET'
p102
F0.999645
sS'ADP'
p103
F2.2e-05
s(lp104
tp105
a(S'exigences'
p106
(dp107
S'NOUN'
p108
F1.0
s(lp109
(S'requirements'
p110
I14
tp111
atp112
a(S'socio-\xc3\xa9conomiques'
p113
(dp114
S'ADJ'
p115
F1.0
s(lp116
(S'socio-economic'
p117
I13
tp118
atp119
a(S'des'
p120
(dp121
S'DET'
p122
F2.2e-05
sS'ADP'
p123
F0.999978
s(lp124
(S'the'
p125
I16
tp126
atp127
a(S'r\xc3\xa9gions'
p128
(dp129
S'NOUN'
p130
F1.0
s(lp131
(S'regions'
p132
I17
tp133
atp134
a(S'qui'
p135
(dp136
S'PRON'
p137
F1.0
s(lp138
(S'which'
p139
I18
tp140
atp141
a(S'd\xc3\xa9passent'
p142
(dp143
S'VERB'
p144
F1.0
s(lp145
(S'above'
p146
I21
tp147
atp148
a(S'\xc3\xa0'
p149
(dp150
S'ADP'
p151
F1.0
s(lp152
tp153
a(S'peine'
p154
(dp155
S'VERB'
p156
F0.029573000000000002
sS'NOUN'
p157
F0.970427
s(lp158
(S'just'
p159
I20
tp160
atp161
a(S'le'
p162
(dp163
S'PRON'
p164
F0.000273
sS'DET'
p165
F0.999727
s(lp166
(S'the'
p167
I22
tp168
atp169
a(S'seuil'
p170
(dp171
S'NOUN'
p172
F1.0
s(lp173
(S'threshold'
p174
I24
tp175
atp176
a(S"d'"
p177
(dp178
S'NOUN'
p179
F0.032441
sS'VERB'
p180
F0.694014
sS'ADJ'
p181
F0.273544
s(lp182
tp183
a(S'\xc3\xa9ligibilit\xc3\xa9'
p184
(dp185
S'NOUN'
p186
F1.0
s(lp187
(S'eligibility'
p188
I23
tp189
atp190
a(S'de'
p191
(dp192
S'ADP'
p193
F1.0
s(lp194
(S'of'
p195
I25
tp196
atp197
a(S'75'
p198
(dp199
S'X'
p200
F0.010548
sS'NUM'
p201
F0.989452
s(lp202
(S'75'
p203
I26
tp204
atp205
a(S'%'
p206
(dp207
g200
F1.0
s(lp208
(g206
I27
tp209
atp210
a(S'du'
p211
(dp212
S'ADP'
p213
F1.0
s(lp214
tp215
a(S'pib'
p216
(dp217
S'NOUN'
p218
F1.0
s(lp219
(S'gdp'
p220
I32
tp221
atp222
a(S'moyen'
p223
(dp224
S'NOUN'
p225
F0.040812
sS'ADJ'
p226
F0.959188
s(lp227
(S'average'
p228
I31
tp229
atp230
a(S'de'
p231
(dp232
S'ADP'
p233
F1.0
s(lp234
(S'of'
p235
I28
tp236
atp237
a(S"l'"
p238
(dp239
S'ADJ'
p240
F0.160704
sS'VERB'
p241
F0.06480800000000002
sS'NOUN'
p242
F0.774488
s(lp243
(S'the'
p244
I29
tp245
atp246
a(S'ue'
p247
(dp248
S'VERB'
p249
F0.006295
sS'NOUN'
p250
F0.993705
s(lp251
(S'eu'
p252
I30
tp253
atp254
a(S'par'
p255
(dp256
S'NOUN'
p257
F0.0
sS'ADP'
p258
F1.0
s(lp259
(S'per'
p260
I33
tp261
atp262
a(S'habitant'
p263
(dp264
S'VERB'
p265
F0.070721
sS'NOUN'
p266
F0.929279
s(lp267
(S'head'
p268
I34
tp269
atp270
a(S'soient'
p271
(dp272
S'VERB'
p273
F1.0
s(lp274
(S'are'
p275
I35
tp276
atp277
a(S'reconnues'
p278
(dp279
S'VERB'
p280
F1.0
s(lp281
(S'recognised'
p282
I36
tp283
atp284
a(g23
(dp285
g23
F1.0
s(lp286
(g23
I37
tp287
atp288
asS'en'
p289
(lp290
(g8
(dp291
S'ADV'
p292
F0.000791
sS'PRT'
p293
F0.0
sS'ADP'
p294
F0.999209
s(lp295
(g8
I0
tp296
atp297
a(g18
(dp298
S'NOUN'
p299
F1.0
s(lp300
(g18
I1
tp301
atp302
a(g21
(dp303
g23
F1.0
s(lp304
(g21
I2
tp305
atp306
a(g56
(dp307
S'PRON'
p308
F1.0
s(lp309
(g56
I3
tp310
atp311
a(g64
(dp312
S'VERB'
p313
F1.0
s(lp314
(g64
I4
tp315
atp316
a(g72
(dp317
S'ADJ'
p318
F1.0
s(lp319
(g72
I5
tp320
atp321
a(S'to'
p322
(dp323
S'ADV'
p324
F2e-06
sS'PRT'
p325
F0.999989
sS'ADP'
p326
F1e-05
s(lp327
(g322
I6
tp328
atp329
a(g31
(dp330
S'PRON'
p331
F0.990888
sg200
F0.009112
s(lp332
(g31
I7
tp333
atp334
a(g81
(dp335
S'ADV'
p336
F0.097754
sS'DET'
p337
F0.378872
sS'ADP'
p338
F0.523374
s(lp339
(g81
I8
tp340
atp341
a(g21
(dp342
g23
F1.0
s(lp343
(g21
I9
tp344
atp345
a(S'in'
p346
(dp347
S'ADV'
p348
F0.006142
sS'PRT'
p349
F1e-06
sS'ADP'
p350
F0.993858
s(lp351
(g346
I10
tp352
atp353
a(g92
(dp354
S'ADV'
p355
F0.023315
sS'NOUN'
p356
F0.089135
sS'ADJ'
p357
F0.88755
s(lp358
(g92
I11
tp359
atp360
a(g21
(dp361
g23
F1.0
s(lp362
(g21
I12
tp363
atp364
a(g117
(dp365
S'ADJ'
p366
F1.0
s(lp367
(g117
I13
tp368
atp369
a(g110
(dp370
S'NOUN'
p371
F1.0
s(lp372
(g110
I14
tp373
atp374
a(S'in'
p375
(dp376
S'ADV'
p377
F0.000295
sS'PRT'
p378
F0.000234
sS'ADP'
p379
F0.999471
s(lp380
(g375
I15
tp381
atp382
a(g125
(dp383
S'NOUN'
p384
F1.1e-05
sS'DET'
p385
F0.999989
s(lp386
(g125
I16
tp387
atp388
a(g132
(dp389
S'NOUN'
p390
F1.0
s(lp391
(g132
I17
tp392
atp393
a(g139
(dp394
S'DET'
p395
F1.0
s(lp396
(g139
I18
tp397
atp398
a(S'are'
p399
(dp400
S'VERB'
p401
F0.999997
sS'NOUN'
p402
F3e-06
s(lp403
(g399
I19
tp404
atp405
a(g159
(dp406
S'ADV'
p407
F0.998625
sS'NOUN'
p408
F1.1e-05
sS'ADJ'
p409
F0.001364
s(lp410
(g159
I20
tp411
atp412
a(g146
(dp413
S'ADV'
p414
F0.021679
sS'ADJ'
p415
F0.000309
sS'ADP'
p416
F0.978012
s(lp417
(g146
I21
tp418
atp419
a(g167
(dp420
S'NOUN'
p421
F1e-06
sS'DET'
p422
F0.999999
s(lp423
(g167
I22
tp424
atp425
a(g188
(dp426
S'NOUN'
p427
F1.0
s(lp428
(g188
I23
tp429
atp430
a(g174
(dp431
S'NOUN'
p432
F1.0
s(lp433
(g174
I24
tp434
atp435
a(g195
(dp436
S'ADP'
p437
F1.0
s(lp438
(g195
I25
tp439
atp440
a(g203
(dp441
S'ADV'
p442
F2e-06
sS'NOUN'
p443
F7.9e-05
sS'NUM'
p444
F0.99915
sS'ADJ'
p445
F0.000769
sg200
F0.0
s(lp446
(g203
I26
tp447
atp448
a(g206
(dp449
S'NOUN'
p450
F1.0
s(lp451
(g206
I27
tp452
atp453
a(g235
(dp454
S'ADP'
p455
F1.0
s(lp456
(g235
I28
tp457
atp458
a(g244
(dp459
S'NOUN'
p460
F5e-06
sS'DET'
p461
F0.999995
s(lp462
(g244
I29
tp463
atp464
a(g252
(dp465
S'ADV'
p466
F0.000638
sS'ADJ'
p467
F0.025646
sS'VERB'
p468
F0.001769
sS'NOUN'
p469
F0.9719460000000001
s(lp470
(g252
I30
tp471
atp472
a(g228
(dp473
S'ADJ'
p474
F0.446043
sS'VERB'
p475
F0.0015940000000000001
sS'NOUN'
p476
F0.552363
s(lp477
(g228
I31
tp478
atp479
a(g220
(dp480
S'ADJ'
p481
F0.007834
sS'VERB'
p482
F0.000454
sS'NOUN'
p483
F0.991712
s(lp484
(g220
I32
tp485
atp486
a(g260
(dp487
g200
F0.002301
sS'ADP'
p488
F0.997699
s(lp489
(g260
I33
tp490
atp491
a(g268
(dp492
S'ADJ'
p493
F0.008643
sS'VERB'
p494
F0.000128
sS'NOUN'
p495
F0.991229
s(lp496
(g268
I34
tp497
atp498
a(g275
(dp499
S'VERB'
p500
F0.999931
sS'NOUN'
p501
F6.9e-05
s(lp502
(g275
I35
tp503
atp504
a(g282
(dp505
S'VERB'
p506
F1.0
s(lp507
(g282
I36
tp508
atp509
a(g23
(dp510
g23
F1.0
s(lp511
(g23
I37
tp512
atp513
asS'nl'
p514
(lp515
(S'ik'
p516
(dp517
S'PRON'
p518
F0.999981
sS'NOUN'
p519
F1.9e-05
s(lp520
tp521
a(S'vind'
p522
(dp523
S'VERB'
p524
F1.0
s(lp525
(g31
I7
tp526
atp527
a(S'het'
p528
(dp529
S'PRON'
p530
F0.920288
sS'DET'
p531
F0.079712
s(lp532
(g56
I3
tp533
atp534
a(S'overigens'
p535
(dp536
S'ADV'
p537
F1.0
s(lp538
(g18
I1
tp539
atp540
a(S'ook'
p541
(dp542
S'ADV'
p543
F1.0
s(lp544
(g64
I4
tp545
atp546
a(S'belangrijk'
p547
(dp548
S'ADJ'
p549
F1.0
s(lp550
(g72
I5
tp551
atp552
a(S'dat'
p553
(dp554
S'PRON'
p555
F0.007402999999999999
sS'CONJ'
p556
F0.992597
s(lp557
(g81
I8
tp558
atp559
a(S'met'
p560
(dp561
S'ADP'
p562
F1.0
s(lp563
tp564
a(S'name'
p565
(dp566
S'NOUN'
p567
F1.0
s(lp568
(g92
I11
tp569
atp570
a(S'de'
p571
(dp572
S'DET'
p573
F1.0
s(lp574
tp575
a(S'sociaaleconomische'
p576
(dp577
S'NOUN'
p578
F0.003616
sS'ADJ'
p579
F0.996384
s(lp580
(g117
I13
tp581
atp582
a(S'voorwaarden'
p583
(dp584
S'NOUN'
p585
F1.0
s(lp586
(g110
I14
tp587
atp588
a(S'in'
p589
(dp590
S'ADV'
p591
F0.003438
sS'VERB'
p592
F2e-06
sS'ADP'
p593
F0.99656
s(lp594
(g375
I15
tp595
atp596
a(S'de'
p597
(dp598
S'DET'
p599
F1.0
s(lp600
(g125
I16
tp601
atp602
a(S'regio'
p603
(dp604
S'NOUN'
p605
F1.0
s(lp606
(g132
I17
tp607
atp608
a(S"'"
p609
(dp610
g23
F1.0
s(lp611
tp612
a(S's'
p613
(dp614
S'NOUN'
p615
F1.0
s(lp616
(g132
I17
tp617
atp618
a(S'die'
p619
(dp620
S'PRON'
p621
F1.0
s(lp622
(g139
I18
tp623
atp624
a(S'net'
p625
(dp626
S'ADV'
p627
F0.996135
sS'NOUN'
p628
F0.001887
sS'ADJ'
p629
F0.001978
s(lp630
(g159
I20
tp631
atp632
a(S'boven'
p633
(dp634
S'ADV'
p635
F0.207246
sS'ADP'
p636
F0.792754
s(lp637
(g146
I21
tp638
atp639
a(S'de'
p640
(dp641
S'DET'
p642
F1.0
s(lp643
(g167
I22
tp644
atp645
a(S'subsidiedrempel'
p646
(dp647
S'ADJ'
p648
F0.007541
sS'NOUN'
p649
F0.992459
s(lp650
(g188
I23
tp651
atp652
a(S'van'
p653
(dp654
S'ADP'
p655
F1.0
s(lp656
(g195
I25
tp657
atp658
a(S'75'
p659
(dp660
S'NUM'
p661
F1.0
s(lp662
(g203
I26
tp663
atp664
a(S'procent'
p665
(dp666
S'NOUN'
p667
F1.0
s(lp668
(g206
I27
tp669
atp670
a(S'van'
p671
(dp672
S'ADP'
p673
F1.0
s(lp674
(g235
I28
tp675
atp676
a(S'het'
p677
(dp678
S'PRON'
p679
F0.004591
sS'DET'
p680
F0.995409
s(lp681
(g244
I29
tp682
atp683
a(S'eu-gemiddelde'
p684
(dp685
S'NOUN'
p686
F0.251118
sS'ADJ'
p687
F0.748882
s(lp688
(g228
I31
tp689
atp690
a(S'bbp'
p691
(dp692
S'NOUN'
p693
F1.0
s(lp694
(g220
I32
tp695
atp696
a(S'per'
p697
(dp698
S'ADP'
p699
F1.0
s(lp700
(g260
I33
tp701
atp702
a(S'inwoner'
p703
(dp704
S'NOUN'
p705
F1.0
s(lp706
(g268
I34
tp707
atp708
a(S'liggen'
p709
(dp710
S'VERB'
p711
F0.999939
sS'NOUN'
p712
F6.1e-05
s(lp713
(g275
I35
tp714
atp715
a(g21
(dp716
g23
F1.0
s(lp717
tp718
a(S'worden'
p719
(dp720
S'VERB'
p721
F0.999999
sS'NOUN'
p722
F1e-06
s(lp723
tp724
a(S'erkend'
p725
(dp726
S'VERB'
p727
F0.99927
sS'ADJ'
p728
F0.00073
s(lp729
(g282
I36
tp730
atp731
a(g23
(dp732
g23
F1.0
s(lp733
(g23
I37
tp734
atp735
asS'de'
p736
(lp737
(S'wichtig'
p738
(dp739
S'ADJ'
p740
F1.0
s(lp741
(g72
I5
tp742
atp743
a(S'ist'
p744
(dp745
S'VERB'
p746
F1.0
s(lp747
(g64
I4
tp748
atp749
a(S'mir'
p750
(dp751
S'PRON'
p752
F1.0
s(lp753
(g31
I7
tp754
atp755
a(S'im'
p756
(dp757
S'ADP'
p758
F1.0
s(lp759
(g8
I0
tp760
atp761
a(S'\xc3\x9cbrigen'
p762
(dp763
S'NOUN'
p764
F1.0
s(lp765
tp766
a(S'auch'
p767
(dp768
S'ADV'
p769
F1.0
s(lp770
(g18
I1
tp771
atp772
a(g21
(dp773
g23
F1.0
s(lp774
tp775
a(S'dass'
p776
(dp777
S'CONJ'
p778
F1.0
s(lp779
(g81
I8
tp780
atp781
a(S'besonders'
p782
(dp783
S'ADV'
p784
F1.0
s(lp785
(g92
I11
tp786
atp787
a(S'sozial\xc3\xb6konomische'
p788
(dp789
S'ADJ'
p790
F1.0
s(lp791
(g117
I13
tp792
atp793
a(S'voraussetzungen'
p794
(dp795
S'VERB'
p796
F1.8e-05
sS'NOUN'
p797
F0.999955
s(lp798
(g110
I14
tp799
atp800
a(S'in'
p801
(dp802
S'ADP'
p803
F1.0
s(lp804
(g375
I15
tp805
atp806
a(S'den'
p807
(dp808
S'PRON'
p809
F2.8e-05
sS'DET'
p810
F0.999971
s(lp811
(g125
I16
tp812
atp813
a(S'regionen'
p814
(dp815
S'ADJ'
p816
F0.001273
sS'NOUN'
p817
F0.998512
s(lp818
(g132
I17
tp819
atp820
a(g21
(dp821
g23
F1.0
s(lp822
(g21
I2
tp823
atp824
a(S'die'
p825
(dp826
S'PRON'
p827
F0.922226
sS'DET'
p828
F0.067544
s(lp829
(g139
I18
tp830
atp831
a(S'knapp'
p832
(dp833
S'PRT'
p834
F9.3e-05
sS'ADJ'
p835
F0.999902
s(lp836
(g159
I20
tp837
atp838
a(S'\xc3\xbcber'
p839
(dp840
S'PRT'
p841
F0.000193
sS'ADP'
p842
F0.999807
s(lp843
(g146
I21
tp844
atp845
a(S'der'
p846
(dp847
S'PRON'
p848
F0.000308
sS'DET'
p849
F0.999567
s(lp850
(g167
I22
tp851
atp852
a(S'75'
p853
(dp854
S'NUM'
p855
F1.0
s(lp856
(g203
I26
tp857
atp858
a(g206
(dp859
S'NOUN'
p860
F1.0
s(lp861
(g206
I27
tp862
atp863
a(S'-schwelle'
p864
(dp865
S'VERB'
p866
F0.051649
sS'NOUN'
p867
F0.943959
s(lp868
(g174
I24
tp869
atp870
a(S'des'
p871
(dp872
S'DET'
p873
F1.0
s(lp874
(g195
I25
tp875
atp876
a(S'bip'
p877
(dp878
S'ADJ'
p879
F0.025689
sS'NOUN'
p880
F0.955664
s(lp881
(g220
I32
tp882
atp883
a(S'pro'
p884
(dp885
S'ADP'
p886
F1.0
s(lp887
(g260
I33
tp888
atp889
a(S'einwohner'
p890
(dp891
S'ADJ'
p892
F0.1087
sS'NOUN'
p893
F0.875535
s(lp894
(g268
I34
tp895
atp896
a(S'liegen'
p897
(dp898
S'VERB'
p899
F0.987684
s(lp900
(g228
I31
tp901
atp902
a(g21
(dp903
g23
F1.0
s(lp904
tp905
a(S'anerkannt'
p906
(dp907
S'VERB'
p908
F0.989925
sS'ADJ'
p909
F0.010075
s(lp910
(g282
I36
tp911
atp912
a(S'werden'
p913
(dp914
S'VERB'
p915
F0.999993
s(lp916
(g275
I35
tp917
atp918
a(g23
(dp919
g23
F1.0
s(lp920
(g23
I37
tp921
atp922
asS'it'
p923
(lp924
(S'inoltre'
p925
(dp926
S'ADV'
p927
F1.0
s(lp928
(g18
I1
tp929
atp930
a(g21
(dp931
g23
F1.0
s(lp932
(g21
I2
tp933
atp934
a(S'ritengo'
p935
(dp936
S'VERB'
p937
F1.0
s(lp938
tp939
a(S'che'
p940
(dp941
S'PRON'
p942
F0.996212
sS'CONJ'
p943
F0.00328
sS'ADJ'
p944
F0.000509
s(lp945
(g56
I3
tp946
atp947
a(S'sia'
p948
(dp949
S'CONJ'
p950
F0.001279
sS'VERB'
p951
F0.998721
s(lp952
(g64
I4
tp953
atp954
a(S'importante'
p955
(dp956
S'NOUN'
p957
F0.02158
sS'VERB'
p958
F0.000188
sS'ADJ'
p959
F0.978232
s(lp960
(g72
I5
tp961
atp962
a(S'che'
p963
(dp964
S'PRON'
p965
F0.985148
sS'CONJ'
p966
F0.014576
sS'ADJ'
p967
F0.000276
s(lp968
(g81
I8
tp969
atp970
a(S'vengano'
p971
(dp972
S'VERB'
p973
F1.0
s(lp974
(g275
I35
tp975
atp976
a(S'in'
p977
(dp978
S'ADP'
p979
F1.0
s(lp980
(g346
I10
tp981
atp982
a(S'particolare'
p983
(dp984
S'NOUN'
p985
F0.357948
sS'ADJ'
p986
F0.642052
s(lp987
(g92
I11
tp988
atp989
a(S'riconosciuti'
p990
(dp991
S'VERB'
p992
F1.0
s(lp993
(g282
I36
tp994
atp995
a(S'i'
p996
(dp997
S'DET'
p998
F1.0
s(lp999
tp1000
a(S'requisiti'
p1001
(dp1002
S'VERB'
p1003
F0.001635
sS'NOUN'
p1004
F0.998365
s(lp1005
(g110
I14
tp1006
atp1007
a(S'socioeconomici'
p1008
(dp1009
S'ADJ'
p1010
F1.0
s(lp1011
(g117
I13
tp1012
atp1013
a(S'delle'
p1014
(dp1015
S'DEF'
p1016
F0.001797
sS'ADP'
p1017
F0.998203
s(lp1018
(g125
I16
tp1019
atp1020
a(S'regioni'
p1021
(dp1022
S'NOUN'
p1023
F1.0
s(lp1024
(g132
I17
tp1025
atp1026
a(S'che'
p1027
(dp1028
S'PRON'
p1029
F0.960049
sS'CONJ'
p1030
F0.0391
sS'ADJ'
p1031
F0.000851
s(lp1032
(g139
I18
tp1033
atp1034
a(S'superano'
p1035
(dp1036
S'VERB'
p1037
F1.0
s(lp1038
(g146
I21
tp1039
atp1040
a(S'di'
p1041
(dp1042
S'CONJ'
p1043
F0.00011
sS'ADP'
p1044
F0.99989
s(lp1045
tp1046
a(S'poco'
p1047
(dp1048
S'ADV'
p1049
F0.817598
sS'PRON'
p1050
F0.083589
sS'ADJ'
p1051
F0.096441
sS'NOUN'
p1052
F0.002372
s(lp1053
(g159
I20
tp1054
atp1055
a(S'la'
p1056
(dp1057
S'PRON'
p1058
F0.002611
sS'DET'
p1059
F0.997389
s(lp1060
(g167
I22
tp1061
atp1062
a(S'soglia'
p1063
(dp1064
S'VERB'
p1065
F0.004927
sS'NOUN'
p1066
F0.995073
s(lp1067
(g174
I24
tp1068
atp1069
a(S'di'
p1070
(dp1071
S'CONJ'
p1072
F4e-06
sS'ADP'
p1073
F0.999996
s(lp1074
tp1075
a(S'ammissibilit\xc3\xa0'
p1076
(dp1077
S'NOUN'
p1078
F1.0
s(lp1079
(g188
I23
tp1080
atp1081
a(S'del'
p1082
(dp1083
S'DEF'
p1084
F6.7e-05
sS'ADP'
p1085
F0.999933
s(lp1086
(g195
I25
tp1087
atp1088
a(S'75'
p1089
(dp1090
S'NUM'
p1091
F0.9986
sg23
F0.0014
s(lp1092
(g203
I26
tp1093
atp1094
a(S'per'
p1095
(dp1096
S'CONJ'
p1097
F0.017225
sS'ADP'
p1098
F0.982775
s(lp1099
tp1100
a(S'cento'
p1101
(dp1102
S'NOUN'
p1103
F0.014847
sS'NUM'
p1104
F0.000217
sS'ADJ'
p1105
F0.984937
s(lp1106
(g206
I27
tp1107
atp1108
a(S'del'
p1109
(dp1110
S'DEF'
p1111
F0.002126
sS'ADP'
p1112
F0.997874
s(lp1113
(g235
I28
tp1114
atp1115
a(S'pil'
p1116
(dp1117
S'NOUN'
p1118
F1.0
s(lp1119
(g220
I32
tp1120
atp1121
a(S'medio'
p1122
(dp1123
S'VERB'
p1124
F0.000416
sS'ADJ'
p1125
F0.999584
s(lp1126
(g228
I31
tp1127
atp1128
a(S"dell'"
p1129
(dp1130
S'ADJ'
p1131
F0.000779
sS'VERB'
p1132
F0.000152
sS'NOUN'
p1133
F0.999069
s(lp1134
tp1135
a(S'ue'
p1136
(dp1137
S'ADJ'
p1138
F0.002294
sS'VERB'
p1139
F0.022245999999999995
sS'NOUN'
p1140
F0.97546
s(lp1141
(g252
I30
tp1142
atp1143
a(g23
(dp1144
g23
F1.0
s(lp1145
(g23
I37
tp1146
atp1147
asS'sk'
p1148
(lp1149
(S'navy\xc5\xa1e'
p1150
(dp1151
S'ADV'
p1152
F0.103468
sg200
F0.896532
sS'ADP'
p1153
F0.0
s(lp1154
(g18
I1
tp1155
atp1156
a(S'je'
p1157
(dp1158
S'PRON'
p1159
F1.5e-05
sS'VERB'
p1160
F0.999966
sg200
F1.9999999999999998e-05
s(lp1161
(g64
I4
tp1162
atp1163
a(S'pre'
p1164
(dp1165
g200
F3.2e-05
sS'ADP'
p1166
F0.999968
s(lp1167
(g322
I6
tp1168
atp1169
a(S'm\xc5\x88a'
p1170
(dp1171
S'PRON'
p1172
F1.0
s(lp1173
(g31
I7
tp1174
atp1175
a(S'd\xc3\xb4le\xc5\xbeit\xc3\xa9'
p1176
(dp1177
S'ADJ'
p1178
F1.0
s(lp1179
(g72
I5
tp1180
atp1181
a(g21
(dp1182
g23
F1.0
s(lp1183
(g21
I9
tp1184
atp1185
a(S'aby'
p1186
(dp1187
g200
F6.7e-05
sS'CONJ'
p1188
F0.999933
s(lp1189
(g81
I8
tp1190
atp1191
a(S'sa'
p1192
(dp1193
S'PRT'
p1194
F0.999997
sS'ADP'
p1195
F0.0
sg200
F3e-06
s(lp1196
(g275
I35
tp1197
atp1198
a(S'uznali'
p1199
(dp1200
S'VERB'
p1201
F1.0
s(lp1202
(g282
I36
tp1203
atp1204
a(S'najm\xc3\xa4'
p1205
(dp1206
g200
F1.0
s(lp1207
(g92
I11
tp1208
atp1209
a(S'soci\xc3\xa1lno-ekonomick\xc3\xa9'
p1210
(dp1211
S'ADJ'
p1212
F1.0
s(lp1213
(g117
I13
tp1214
atp1215
a(S'po\xc5\xbeiadavky'
p1216
(dp1217
S'NOUN'
p1218
F1.0
s(lp1219
(g110
I14
tp1220
atp1221
a(S'v'
p1222
(dp1223
g200
F0.00013000000000000002
sS'ADP'
p1224
F0.99987
s(lp1225
(g375
I15
tp1226
atp1227
a(S'regi\xc3\xb3noch'
p1228
(dp1229
S'NOUN'
p1230
F1.0
s(lp1231
(g132
I17
tp1232
atp1233
a(g21
(dp1234
g23
F1.0
s(lp1235
tp1236
a(S'ktor\xc3\xa9'
p1237
(dp1238
S'PRON'
p1239
F1.0
s(lp1240
(g139
I18
tp1241
atp1242
a(S's\xc3\xba'
p1243
(dp1244
S'VERB'
p1245
F1.0
s(lp1246
(g399
I19
tp1247
atp1248
a(S'tesne'
p1249
(dp1250
S'ADV'
p1251
F1.0
s(lp1252
(g159
I20
tp1253
atp1254
a(S'nad'
p1255
(dp1256
g200
F0.00033499999999999996
sS'ADP'
p1257
F0.999665
s(lp1258
(g146
I21
tp1259
atp1260
a(S'hranicou'
p1261
(dp1262
S'NOUN'
p1263
F1.0
s(lp1264
(g174
I24
tp1265
atp1266
a(S'opr\xc3\xa1vnenosti'
p1267
(dp1268
S'NOUN'
p1269
F1.0
s(lp1270
(g188
I23
tp1271
atp1272
a(S'vo'
p1273
(dp1274
S'ADP'
p1275
F1.0
s(lp1276
(g195
I25
tp1277
atp1278
a(S'v\xc3\xbd\xc5\xa1ke'
p1279
(dp1280
S'NOUN'
p1281
F1.0
s(lp1282
tp1283
a(S'75'
p1284
(dp1285
S'NUM'
p1286
F1.0
s(lp1287
(g203
I26
tp1288
atp1289
a(g206
(dp1290
g200
F0.884411
sg23
F0.115589
s(lp1291
(g206
I27
tp1292
atp1293
a(S'priemern\xc3\xa9ho'
p1294
(dp1295
S'ADJ'
p1296
F1.0
s(lp1297
(g228
I31
tp1298
atp1299
a(S'hdp'
p1300
(dp1301
S'VERB'
p1302
F0.14699
sS'NOUN'
p1303
F0.853009
s(lp1304
(g220
I32
tp1305
atp1306
a(S'na'
p1307
(dp1308
g200
F3.5000000000000004e-05
sS'CONJ'
p1309
F3e-05
sS'ADP'
p1310
F0.999934
sS'PRT'
p1311
F1e-06
s(lp1312
tp1313
a(S'jedn\xc3\xa9ho'
p1314
(dp1315
S'NUM'
p1316
F1.0
s(lp1317
(g260
I33
tp1318
atp1319
a(S'obyvate\xc4\xbea'
p1320
(dp1321
S'NOUN'
p1322
F1.0
s(lp1323
(g268
I34
tp1324
atp1325
a(S'e\xc3\x9a'
p1326
(dp1327
S'ADV'
p1328
F0.006274
sS'ADJ'
p1329
F0.343186
sS'VERB'
p1330
F0.269887
sS'NOUN'
p1331
F0.365624
sg200
F0.01503
s(lp1332
(g252
I30
tp1333
atp1334
a(g23
(dp1335
g23
F1.0
s(lp1336
(g23
I37
tp1337
atp1338
asS'pl'
p1339
(lp1340
(S'ponadto'
p1341
(dp1342
S'PRT'
p1343
F0.899549
sS'CONJ'
p1344
F0.100451
s(lp1345
(g18
I1
tp1346
atp1347
a(S'wa\xc5\xbcne'
p1348
(dp1349
S'ADJ'
p1350
F1.000002
s(lp1351
(g72
I5
tp1352
atp1353
a(S'jest'
p1354
(dp1355
S'VERB'
p1356
F1.0
s(lp1357
(g64
I4
tp1358
atp1359
a(S'dla'
p1360
(dp1361
S'ADP'
p1362
F1.0
s(lp1363
(g322
I6
tp1364
atp1365
a(S'mnie'
p1366
(dp1367
S'PRON'
p1368
F0.999999
s(lp1369
(g31
I7
tp1370
atp1371
a(g21
(dp1372
g200
F1e-06
sg23
F0.999999
s(lp1373
(g21
I9
tp1374
atp1375
a(S'by'
p1376
(dp1377
S'NOUN'
p1378
F1e-05
sS'ADP'
p1379
F0.0
sS'PRT'
p1380
F0.57733
sS'VERB'
p1381
F1e-06
sg200
F3e-06
sS'CONJ'
p1382
F0.422656
s(lp1383
(g81
I8
tp1384
atp1385
a(S'uznano'
p1386
(dp1387
S'VERB'
p1388
F1.0
s(lp1389
(g282
I36
tp1390
atp1391
a(S'w'
p1392
(dp1393
S'ADJ'
p1394
F0.0
sg200
F0.0
sS'NOUN'
p1395
F0.0
sS'ADP'
p1396
F1.0
s(lp1397
(g346
I10
tp1398
atp1399
a(S'szczeg\xc3\xb3lno\xc5\x9bci'
p1400
(dp1401
S'NOUN'
p1402
F1.0
s(lp1403
(g92
I11
tp1404
atp1405
a(S'warunki'
p1406
(dp1407
S'NOUN'
p1408
F0.999999
s(lp1409
(g110
I14
tp1410
atp1411
a(S'spo\xc5\x82eczno-gospodarcze'
p1412
(dp1413
S'ADV'
p1414
F0.002264
sS'NOUN'
p1415
F0.09757000000000002
sS'VERB'
p1416
F0.059852
sS'ADJ'
p1417
F0.8371190000000001
sS'PRT'
p1418
F0.003193
s(lp1419
(g117
I13
tp1420
atp1421
a(g1392
(dp1422
S'ADJ'
p1423
F0.0
sg200
F0.0
sS'NOUN'
p1424
F0.0
sS'ADP'
p1425
F1.0
s(lp1426
(g375
I15
tp1427
atp1428
a(S'regionach'
p1429
(dp1430
S'NOUN'
p1431
F1.0
s(lp1432
(g132
I17
tp1433
atp1434
a(g21
(dp1435
g200
F0.0
sg23
F1.0
s(lp1436
tp1437
a(S'kt\xc3\xb3re'
p1438
(dp1439
S'ADJ'
p1440
F0.9999999999999999
s(lp1441
(g139
I18
tp1442
atp1443
a(S'plasuj\xc4\x85'
p1444
(dp1445
S'ADJ'
p1446
F1e-06
sS'VERB'
p1447
F0.9997280000000001
sS'NOUN'
p1448
F0.00027000000000000006
s(lp1449
tp1450
a(S'si\xc4\x99'
p1451
(dp1452
S'PRT'
p1453
F1.0
s(lp1454
(g399
I19
tp1455
atp1456
a(S'nieco'
p1457
(dp1458
S'ADV'
p1459
F0.952165
sS'NUM'
p1460
F0.047834
s(lp1461
(g159
I20
tp1462
atp1463
a(S'powy\xc5\xbcej'
p1464
(dp1465
S'ADV'
p1466
F0.004377
sS'ADP'
p1467
F0.995623
s(lp1468
(g146
I21
tp1469
atp1470
a(S'progu'
p1471
(dp1472
S'NOUN'
p1473
F1.0
s(lp1474
tp1475
a(S'kwalifikowalno\xc5\x9bci'
p1476
(dp1477
S'ADJ'
p1478
F0.000108
sS'VERB'
p1479
F0.006857
sS'NOUN'
p1480
F0.993033
s(lp1481
(g188
I23
tp1482
atp1483
a(g21
(dp1484
g200
F0.0
sg23
F1.0
s(lp1485
tp1486
a(S'wynosz\xc4\x85cego'
p1487
(dp1488
S'ADV'
p1489
F0.027548999999999997
sS'ADJ'
p1490
F0.054108
sS'VERB'
p1491
F0.7526130000000002
sS'NOUN'
p1492
F0.16573000000000002
s(lp1493
(g174
I24
tp1494
atp1495
a(S'75'
p1496
(dp1497
S'NUM'
p1498
F0.9952160000000002
sS'ADJ'
p1499
F0.004785
s(lp1500
(g203
I26
tp1501
atp1502
a(g206
(dp1503
S'NOUN'
p1504
F1.000001
s(lp1505
(g206
I27
tp1506
atp1507
a(S'\xc5\x9bredniego'
p1508
(dp1509
S'ADJ'
p1510
F1.0
s(lp1511
(g228
I31
tp1512
atp1513
a(S'pkb'
p1514
(dp1515
S'ADV'
p1516
F0.000288
sg200
F0.929388
sS'VERB'
p1517
F0.000843
sS'NOUN'
p1518
F0.06948
s(lp1519
(g220
I32
tp1520
atp1521
a(S'na'
p1522
(dp1523
g200
F9e-06
sS'VERB'
p1524
F2.1e-05
sS'NOUN'
p1525
F4.1e-05
sS'ADP'
p1526
F0.9999239999999999
sS'PRT'
p1527
F5e-06
s(lp1528
(g260
I33
tp1529
atp1530
a(S'mieszka\xc5\x84ca'
p1531
(dp1532
S'NOUN'
p1533
F1.0
s(lp1534
(g268
I34
tp1535
atp1536
a(g1392
(dp1537
S'NOUN'
p1538
F8e-06
sS'ADJ'
p1539
F0.000485
sS'ADP'
p1540
F0.999506
sg200
F1e-06
s(lp1541
(g244
I29
tp1542
atp1543
a(S'ue'
p1544
(dp1545
S'ADJ'
p1546
F1e-06
sS'VERB'
p1547
F6.999999999999999e-06
sS'NOUN'
p1548
F0.9999929999999999
s(lp1549
(g252
I30
tp1550
atp1551
a(g23
(dp1552
g23
F1.0
s(lp1553
(g23
I37
tp1554
atp1555
asS'sl'
p1556
(lp1557
(S'poleg'
p1558
(dp1559
S'ADV'
p1560
F0.001018
sS'ADP'
p1561
F0.998982
s(lp1562
tp1563
a(S'tega'
p1564
(dp1565
S'PRON'
p1566
F1.0
s(lp1567
(g18
I1
tp1568
atp1569
a(S'je'
p1570
(dp1571
S'PRON'
p1572
F0.000174
sS'VERB'
p1573
F0.9998180000000001
sg200
F8e-06
s(lp1574
(g64
I4
tp1575
atp1576
a(S'zame'
p1577
(dp1578
S'PRON'
p1579
F1.0
s(lp1580
(g31
I7
tp1581
atp1582
a(S'pomembno'
p1583
(dp1584
S'ADV'
p1585
F0.208374
sS'ADJ'
p1586
F0.7916259999999999
s(lp1587
(g72
I5
tp1588
atp1589
a(g21
(dp1590
g23
F1.0
s(lp1591
(g21
I9
tp1592
atp1593
a(S'da'
p1594
(dp1595
S'PRT'
p1596
F5e-06
sS'CONJ'
p1597
F0.99997
sS'VERB'
p1598
F2.4e-05
sg200
F0.0
s(lp1599
(g81
I8
tp1600
atp1601
a(S'se'
p1602
(dp1603
S'PRON'
p1604
F1.0
sg200
F0.0
s(lp1605
(g275
I35
tp1606
atp1607
a(S'priznajo'
p1608
(dp1609
S'VERB'
p1610
F1.0
s(lp1611
(g282
I36
tp1612
atp1613
a(S'zlasti'
p1614
(dp1615
S'ADV'
p1616
F0.016914
sS'PRT'
p1617
F0.983086
s(lp1618
(g92
I11
tp1619
atp1620
a(S'socialno-ekonomske'
p1621
(dp1622
S'ADV'
p1623
F7.3e-05
sS'NOUN'
p1624
F0.0006880000000000001
sS'VERB'
p1625
F0.002725
sS'ADJ'
p1626
F0.9965120000000001
s(lp1627
(g117
I13
tp1628
atp1629
a(S'zahteve'
p1630
(dp1631
S'NOUN'
p1632
F1.0
s(lp1633
(g110
I14
tp1634
atp1635
a(g1222
(dp1636
S'ADP'
p1637
F1.0
s(lp1638
(g375
I15
tp1639
atp1640
a(S'regijah'
p1641
(dp1642
S'NOUN'
p1643
F1.0
s(lp1644
(g132
I17
tp1645
atp1646
a(g21
(dp1647
g23
F1.0
s(lp1648
tp1649
a(S'ki'
p1650
(dp1651
S'CONJ'
p1652
F1.0
s(lp1653
(g139
I18
tp1654
atp1655
a(S'so'
p1656
(dp1657
g200
F6e-06
sS'VERB'
p1658
F0.999994
s(lp1659
(g399
I19
tp1660
atp1661
a(S'tik'
p1662
(dp1663
S'ADV'
p1664
F0.986881
sS'NOUN'
p1665
F0.013119
s(lp1666
(g159
I20
tp1667
atp1668
a(S'nad'
p1669
(dp1670
S'ADP'
p1671
F1.0
s(lp1672
(g146
I21
tp1673
atp1674
a(S'pragom'
p1675
(dp1676
S'NOUN'
p1677
F1.0
s(lp1678
(g174
I24
tp1679
atp1680
a(S'upravi\xc4\x8denost'
p1681
(dp1682
S'NOUN'
p1683
F1.0
s(lp1684
(g188
I23
tp1685
atp1686
a(g21
(dp1687
g23
F1.0
s(lp1688
tp1689
a(S'ki'
p1690
(dp1691
S'CONJ'
p1692
F1.0
s(lp1693
(g195
I25
tp1694
atp1695
a(S'zna\xc5\xa1a'
p1696
(dp1697
S'VERB'
p1698
F1.0
s(lp1699
tp1700
a(S'75'
p1701
(dp1702
S'NUM'
p1703
F1.0
s(lp1704
(g203
I26
tp1705
atp1706
a(g206
(dp1707
g23
F1.0
s(lp1708
(g206
I27
tp1709
atp1710
a(S'povpre\xc4\x8dnega'
p1711
(dp1712
S'ADJ'
p1713
F1.0
s(lp1714
(g228
I31
tp1715
atp1716
a(S'bdp'
p1717
(dp1718
S'ADV'
p1719
F0.000496
sS'ADJ'
p1720
F0.010445999999999999
sS'VERB'
p1721
F0.002641
sS'NOUN'
p1722
F0.986376
sg200
F4.4e-05
s(lp1723
(g220
I32
tp1724
atp1725
a(S'na'
p1726
(dp1727
S'ADP'
p1728
F1.0
s(lp1729
(g260
I33
tp1730
atp1731
a(S'prebivalca'
p1732
(dp1733
S'NOUN'
p1734
F1.0
s(lp1735
(g268
I34
tp1736
atp1737
a(g1222
(dp1738
S'ADP'
p1739
F1.0
s(lp1740
(g346
I10
tp1741
atp1742
a(S'eu'
p1743
(dp1744
S'ADV'
p1745
F4.5e-05
sS'ADJ'
p1746
F0.000734
sS'VERB'
p1747
F0.0
sS'NOUN'
p1748
F0.9992200000000002
s(lp1749
(g252
I30
tp1750
atp1751
a(g23
(dp1752
g23
F1.0
s(lp1753
(g23
I37
tp1754
atp1755
asS'es'
p1756
(lp1757
(S'adem\xc3\xa1s'
p1758
(dp1759
S'ADV'
p1760
F1.0
s(lp1761
(g18
I1
tp1762
atp1763
a(g21
(dp1764
g23
F1.0
s(lp1765
(g21
I2
tp1766
atp1767
a(S'para'
p1768
(dp1769
S'CONJ'
p1770
F0.002248
sS'ADP'
p1771
F0.997752
s(lp1772
(g322
I6
tp1773
atp1774
a(S'm\xc3\xad'
p1775
(dp1776
S'PRON'
p1777
F1.0
s(lp1778
(g31
I7
tp1779
atp1780
a(S'es'
p1781
(dp1782
S'VERB'
p1783
F1.0
s(lp1784
(g64
I4
tp1785
atp1786
a(S'importante'
p1787
(dp1788
S'VERB'
p1789
F0.010727
sS'ADJ'
p1790
F0.989273
s(lp1791
(g72
I5
tp1792
atp1793
a(S'que'
p1794
(dp1795
g200
F2e-06
sS'CONJ'
p1796
F0.999998
s(lp1797
(g81
I8
tp1798
atp1799
a(g21
(dp1800
g23
F1.0
s(lp1801
(g21
I9
tp1802
atp1803
a(S'en'
p1804
(dp1805
S'ADV'
p1806
F0.978917
sS'ADJ'
p1807
F0.021083
s(lp1808
(g346
I10
tp1809
atp1810
a(S'especial'
p1811
(dp1812
S'ADV'
p1813
F0.978917
sS'ADJ'
p1814
F0.021083
s(lp1815
(g92
I11
tp1816
atp1817
a(g21
(dp1818
g23
F1.0
s(lp1819
(g21
I12
tp1820
atp1821
a(S'se'
p1822
(dp1823
S'PRON'
p1824
F1.0
sS'VERB'
p1825
F0.0
s(lp1826
(g275
I35
tp1827
atp1828
a(S'reconozcan'
p1829
(dp1830
S'VERB'
p1831
F1.0
s(lp1832
(g282
I36
tp1833
atp1834
a(S'los'
p1835
(dp1836
S'PRON'
p1837
F0.0
sS'DET'
p1838
F1.0
s(lp1839
tp1840
a(S'requisitos'
p1841
(dp1842
S'NOUN'
p1843
F1.0
s(lp1844
(g110
I14
tp1845
atp1846
a(S'socioecon\xc3\xb3micos'
p1847
(dp1848
S'ADJ'
p1849
F1.0
s(lp1850
(g117
I13
tp1851
atp1852
a(S'en'
p1853
(dp1854
g200
F0.0
sS'CONJ'
p1855
F1e-06
sS'ADP'
p1856
F0.999999
s(lp1857
(g375
I15
tp1858
atp1859
a(S'las'
p1860
(dp1861
S'PRON'
p1862
F0.0
sS'DET'
p1863
F1.0
s(lp1864
(g125
I16
tp1865
atp1866
a(S'regiones'
p1867
(dp1868
S'NOUN'
p1869
F1.0
s(lp1870
(g132
I17
tp1871
atp1872
a(S'que'
p1873
(dp1874
g200
F0.0
sS'CONJ'
p1875
F1.0
s(lp1876
(g139
I18
tp1877
atp1878
a(S'est\xc3\xa1n'
p1879
(dp1880
S'VERB'
p1881
F1.0
s(lp1882
(g399
I19
tp1883
atp1884
a(S'justo'
p1885
(dp1886
S'ADV'
p1887
F0.009773
sS'VERB'
p1888
F0.000374
sS'ADJ'
p1889
F0.989854
s(lp1890
(g159
I20
tp1891
atp1892
a(S'por'
p1893
(dp1894
S'ADP'
p1895
F1.0
s(lp1896
tp1897
a(S'encima'
p1898
(dp1899
S'ADP'
p1900
F1.0
s(lp1901
(g146
I21
tp1902
atp1903
a(S'del'
p1904
(dp1905
S'ADP'
p1906
F1.0
s(lp1907
(g167
I22
tp1908
atp1909
a(S'umbral'
p1910
(dp1911
S'NOUN'
p1912
F1.0
s(lp1913
(g174
I24
tp1914
atp1915
a(S'de'
p1916
(dp1917
g200
F2.9e-05
sS'CONJ'
p1918
F0.000449
sS'ADP'
p1919
F0.999522
s(lp1920
(g195
I25
tp1921
atp1922
a(S'admisibilidad'
p1923
(dp1924
S'NOUN'
p1925
F1.0
s(lp1926
(g188
I23
tp1927
atp1928
a(S'del'
p1929
(dp1930
S'ADP'
p1931
F1.0
s(lp1932
tp1933
a(S'75'
p1934
(dp1935
g200
F0.0
sS'NUM'
p1936
F1.0
s(lp1937
(g203
I26
tp1938
atp1939
a(g206
(dp1940
g23
F1.0
s(lp1941
(g206
I27
tp1942
atp1943
a(S'del'
p1944
(dp1945
S'ADP'
p1946
F1.0
s(lp1947
(g235
I28
tp1948
atp1949
a(S'pib'
p1950
(dp1951
S'NOUN'
p1952
F1.0
s(lp1953
(g220
I32
tp1954
atp1955
a(S'medio'
p1956
(dp1957
S'ADV'
p1958
F0.002653
sS'NOUN'
p1959
F0.009228
sS'ADJ'
p1960
F0.988119
s(lp1961
(g228
I31
tp1962
atp1963
a(S'per'
p1964
(dp1965
S'NOUN'
p1966
F1.0
s(lp1967
(g260
I33
tp1968
atp1969
a(S'c\xc3\xa1pita'
p1970
(dp1971
S'VERB'
p1972
F0.001157
sS'NOUN'
p1973
F0.998843
s(lp1974
(g268
I34
tp1975
atp1976
a(g23
(dp1977
g23
F1.0
s(lp1978
(g23
I37
tp1979
atp1980
as.