(dp0
S'fr'
p1
(lp2
(S'membre'
p3
(dp4
S'VERB'
p5
F0.08694299999999999
sS'NOUN'
p6
F0.913057
s(lp7
(S'member'
p8
I0
tp9
atp10
a(S'de'
p11
(dp12
S'ADP'
p13
F1.0
s(lp14
(S'of'
p15
I1
tp16
atp17
a(S'la'
p18
(dp19
S'PRON'
p20
F1.2e-05
sS'DET'
p21
F0.999988
sS'NOUN'
p22
F0.0
s(lp23
(S'the'
p24
I2
tp25
atp26
a(S'commission'
p27
(dp28
S'NOUN'
p29
F1.0
s(lp30
(S'commission'
p31
I3
tp32
atp33
a(S'.'
p34
(dp35
g34
F1.0
s(lp36
(g34
I4
tp37
atp38
a(S'-'
p39
(dp40
g34
F1.0
s(lp41
(g39
I5
tp42
atp43
a(S'('
p44
(dp45
g34
F1.0
s(lp46
tp47
a(S'en'
p48
(dp49
S'PRON'
p50
F0.551936
sS'ADP'
p51
F0.448064
s(lp52
tp53
a(S')'
p54
(dp55
g34
F1.0
s(lp56
(S'president'
p57
I7
tp58
atp59
a(S'monsieur'
p60
(dp61
S'NOUN'
p62
F1.0
s(lp63
(S'mr'
p64
I6
tp65
atp66
a(S'le'
p67
(dp68
S'PRON'
p69
F0.000321
sS'DET'
p70
F0.999679
s(lp71
tp72
a(S'pr\xc3\xa9sident'
p73
(dp74
S'VERB'
p75
F4.5e-05
sS'NOUN'
p76
F0.999955
s(lp77
(g57
I7
tp78
atp79
a(S','
p80
(dp81
g34
F1.0
s(lp82
(g80
I8
tp83
atp84
a(S'nous'
p85
(dp86
S'PRON'
p87
F1.0
s(lp88
(S'i'
p89
I9
tp90
atp91
a(S'tenons'
p92
(dp93
S'VERB'
p94
F0.9890789999999999
sS'NOUN'
p95
F0.010921
s(lp96
(S'like'
p97
I12
tp98
atp99
a(S'juste'
p100
(dp101
S'NOUN'
p102
F0.016474
sS'ADJ'
p103
F0.983526
s(lp104
(S'just'
p105
I11
tp106
atp107
a(S'\xc3\xa0'
p108
(dp109
S'ADP'
p110
F1.0
s(lp111
(S'to'
p112
I13
tp113
atp114
a(S'pr\xc3\xa9ciser'
p115
(dp116
S'VERB'
p117
F1.0
s(lp118
(S'say'
p119
I14
tp120
atp121
a(S"qu'"
p122
(dp123
S'NOUN'
p124
F0.099944
sS'VERB'
p125
F0.7910849999999999
sS'ADJ'
p126
F0.108969
s(lp127
(S'that'
p128
I17
tp129
atp130
a(S'il'
p131
(dp132
S'PRON'
p133
F1.0
s(lp134
(S'clearly'
p135
I16
tp136
atp137
a(S'nous'
p138
(dp139
S'PRON'
p140
F1.0
s(lp141
(g89
I18
tp142
atp143
a(S'para\xc3\xaet'
p144
(dp145
S'VERB'
p146
F1.0
s(lp147
tp148
a(S'impensable'
p149
(dp150
S'ADJ'
p151
F1.0
s(lp152
(S'imagine'
p153
I20
tp154
atp155
a(S'que'
p156
(dp157
S'ADV'
p158
F0.001419
sS'PRON'
p159
F0.027673
sS'CONJ'
p160
F0.970908
s(lp161
(S'that'
p162
I21
tp163
atp164
a(S'ces'
p165
(dp166
S'PRON'
p167
F1.0
s(lp168
(S'these'
p169
I22
tp170
atp171
a(S'trois'
p172
(dp173
S'NUM'
p174
F0.999844
sS'NOUN'
p175
F0.000156
s(lp176
(S'three'
p177
I23
tp178
atp179
a(S'institutions'
p180
(dp181
S'NOUN'
p182
F1.0
s(lp183
(S'institutions'
p184
I24
tp185
atp186
a(S'ne'
p187
(dp188
S'ADV'
p189
F1.0
s(lp190
tp191
a(S'travaillent'
p192
(dp193
S'VERB'
p194
F1.0
s(lp195
(S'work'
p196
I27
tp197
atp198
a(S'pas'
p199
(dp200
S'ADV'
p201
F0.999079
sS'NOUN'
p202
F0.000921
s(lp203
(S'not'
p204
I26
tp205
atp206
a(S'ensemble'
p207
(dp208
S'ADV'
p209
F0.799892
sS'NOUN'
p210
F0.200108
s(lp211
(S'together'
p212
I28
tp213
atp214
a(g34
(dp215
g34
F1.0
s(lp216
(g34
I29
tp217
atp218
asS'en'
p219
(lp220
(g8
(dp221
S'NOUN'
p222
F1.0
s(lp223
(g8
I0
tp224
atp225
a(g15
(dp226
S'ADP'
p227
F1.0
s(lp228
(g15
I1
tp229
atp230
a(g24
(dp231
S'NOUN'
p232
F1e-06
sS'DET'
p233
F0.999999
s(lp234
(g24
I2
tp235
atp236
a(g31
(dp237
S'VERB'
p238
F8e-06
sS'NOUN'
p239
F0.999992
s(lp240
(g31
I3
tp241
atp242
a(g34
(dp243
g34
F1.0
s(lp244
(g34
I4
tp245
atp246
a(g39
(dp247
g34
F1.0
s(lp248
(g39
I5
tp249
atp250
a(g64
(dp251
S'ADJ'
p252
F0.017511
sS'NOUN'
p253
F0.9824890000000001
s(lp254
(g64
I6
tp255
atp256
a(g57
(dp257
S'NOUN'
p258
F1.0
s(lp259
(g57
I7
tp260
atp261
a(g80
(dp262
g34
F1.0
s(lp263
(g80
I8
tp264
atp265
a(g89
(dp266
S'X'
p267
F0.177708
sS'NOUN'
p268
F0.822292
s(lp269
(g89
I9
tp270
atp271
a(S'would'
p272
(dp273
S'VERB'
p274
F1.0
s(lp275
(g272
I10
tp276
atp277
a(g105
(dp278
S'ADV'
p279
F0.999995
sS'NOUN'
p280
F0.0
sS'ADJ'
p281
F4e-06
s(lp282
(g105
I11
tp283
atp284
a(g97
(dp285
S'VERB'
p286
F0.442312
sS'ADJ'
p287
F0.045438
sS'ADP'
p288
F0.51225
s(lp289
(g97
I12
tp290
atp291
a(g112
(dp292
S'ADV'
p293
F1e-06
sS'PRT'
p294
F0.999999
sS'ADP'
p295
F0.0
s(lp296
(g112
I13
tp297
atp298
a(g119
(dp299
S'ADV'
p300
F3.2e-05
sS'VERB'
p301
F0.999899
sS'NOUN'
p302
F6.9e-05
s(lp303
(g119
I14
tp304
atp305
a(S'very'
p306
(dp307
S'ADV'
p308
F0.998447
sS'ADJ'
p309
F0.001553
s(lp310
(g306
I15
tp311
atp312
a(g135
(dp313
S'ADV'
p314
F1.0
s(lp315
(g135
I16
tp316
atp317
a(g128
(dp318
S'ADV'
p319
F0.006028
sS'DET'
p320
F0.8414379999999999
sS'ADP'
p321
F0.152534
s(lp322
(g128
I17
tp323
atp324
a(g89
(dp325
g267
F0.058116
sS'NOUN'
p326
F0.9418839999999999
s(lp327
(g89
I18
tp328
atp329
a(S'cannot'
p330
(dp331
S'VERB'
p332
F1.0
s(lp333
(g330
I19
tp334
atp335
a(g153
(dp336
S'VERB'
p337
F1.0
s(lp338
(g153
I20
tp339
atp340
a(g162
(dp341
S'ADV'
p342
F0.000569
sS'DET'
p343
F0.017934000000000002
sS'ADP'
p344
F0.981497
s(lp345
(g162
I21
tp346
atp347
a(g169
(dp348
S'NOUN'
p349
F1e-06
sS'DET'
p350
F0.999999
s(lp351
(g169
I22
tp352
atp353
a(g177
(dp354
S'NUM'
p355
F0.999424
sS'NOUN'
p356
F0.000576
s(lp357
(g177
I23
tp358
atp359
a(g184
(dp360
S'NOUN'
p361
F1.0
s(lp362
(g184
I24
tp363
atp364
a(S'would'
p365
(dp366
S'VERB'
p367
F1.0
s(lp368
(g365
I25
tp369
atp370
a(g204
(dp371
S'ADV'
p372
F1.0
s(lp373
(g204
I26
tp374
atp375
a(g196
(dp376
S'VERB'
p377
F0.9179090000000001
sS'NOUN'
p378
F0.082091
s(lp379
(g196
I27
tp380
atp381
a(g212
(dp382
S'ADV'
p383
F1.0
s(lp384
(g212
I28
tp385
atp386
a(g34
(dp387
g34
F1.0
s(lp388
(g34
I29
tp389
atp390
asS'nl'
p391
(lp392
(S'lid'
p393
(dp394
S'NOUN'
p395
F1.0
s(lp396
(g8
I0
tp397
atp398
a(S'van'
p399
(dp400
S'ADP'
p401
F1.0
s(lp402
(g15
I1
tp403
atp404
a(S'de'
p405
(dp406
S'DET'
p407
F1.0
s(lp408
(g24
I2
tp409
atp410
a(S'commissie'
p411
(dp412
S'NOUN'
p413
F1.0
s(lp414
(g31
I3
tp415
atp416
a(g34
(dp417
g34
F1.0
s(lp418
(g34
I4
tp419
atp420
a(g39
(dp421
g34
F1.0
s(lp422
(g39
I5
tp423
atp424
a(g44
(dp425
g34
F1.0
s(lp426
tp427
a(S'en'
p428
(dp429
S'CONJ'
p430
F1.0
s(lp431
(g57
I7
tp432
atp433
a(g54
(dp434
g34
F1.0
s(lp435
(g57
I7
tp436
atp437
a(S'mijnheer'
p438
(dp439
S'NOUN'
p440
F1.0
s(lp441
(g64
I6
tp442
atp443
a(S'de'
p444
(dp445
S'DET'
p446
F1.0
s(lp447
tp448
a(S'voorzitter'
p449
(dp450
S'NOUN'
p451
F1.0
s(lp452
(g57
I7
tp453
atp454
a(g80
(dp455
g34
F1.0
s(lp456
(g80
I8
tp457
atp458
a(S'ik'
p459
(dp460
S'PRON'
p461
F0.999928
sS'NOUN'
p462
F7.2e-05
s(lp463
(g89
I9
tp464
atp465
a(S'wil'
p466
(dp467
S'VERB'
p468
F0.835075
sS'NOUN'
p469
F0.164925
s(lp470
(g97
I12
tp471
atp472
a(S'heel'
p473
(dp474
S'ADV'
p475
F0.9244
sS'VERB'
p476
F0.000186
sS'ADJ'
p477
F0.075415
s(lp478
(g306
I15
tp479
atp480
a(S'duidelijk'
p481
(dp482
S'ADJ'
p483
F1.0
s(lp484
(g135
I16
tp485
atp486
a(S'stellen'
p487
(dp488
S'VERB'
p489
F0.9939089999999999
sS'NOUN'
p490
F0.006091
s(lp491
(g119
I14
tp492
atp493
a(S'dat'
p494
(dp495
S'PRON'
p496
F0.018997999999999998
sS'CONJ'
p497
F0.981002
s(lp498
(g128
I17
tp499
atp500
a(S'ik'
p501
(dp502
S'PRON'
p503
F1.0
sS'NOUN'
p504
F0.0
s(lp505
(g89
I18
tp506
atp507
a(S'me'
p508
(dp509
S'PRON'
p510
F1.0
s(lp511
tp512
a(S'niet'
p513
(dp514
S'ADV'
p515
F0.999996
sS'PRON'
p516
F4e-06
sS'VERB'
p517
F0.0
sg267
F0.0
s(lp518
tp519
a(S'kan'
p520
(dp521
S'VERB'
p522
F0.999957
sS'NOUN'
p523
F4.3e-05
s(lp524
(g330
I19
tp525
atp526
a(S'voorstellen'
p527
(dp528
S'VERB'
p529
F0.993395
sS'NOUN'
p530
F0.006605000000000001
s(lp531
(g153
I20
tp532
atp533
a(S'dat'
p534
(dp535
S'PRON'
p536
F0.004121
sS'CONJ'
p537
F0.995879
s(lp538
(g162
I21
tp539
atp540
a(S'deze'
p541
(dp542
S'PRON'
p543
F1.0
s(lp544
(g169
I22
tp545
atp546
a(S'drie'
p547
(dp548
S'NUM'
p549
F1.0
s(lp550
(g177
I23
tp551
atp552
a(S'instellingen'
p553
(dp554
S'NOUN'
p555
F1.0
s(lp556
(g184
I24
tp557
atp558
a(S'niet'
p559
(dp560
S'ADV'
p561
F0.999975
sS'PRON'
p562
F4e-06
sS'VERB'
p563
F2.1e-05
sg267
F0.0
s(lp564
(g204
I26
tp565
atp566
a(S'samen'
p567
(dp568
S'ADV'
p569
F1.0
s(lp570
(g212
I28
tp571
atp572
a(S'zouden'
p573
(dp574
S'VERB'
p575
F1.0
s(lp576
(g365
I25
tp577
atp578
a(S'werken'
p579
(dp580
S'VERB'
p581
F0.997954
sS'NOUN'
p582
F0.002046
s(lp583
(g196
I27
tp584
atp585
a(g34
(dp586
g34
F1.0
s(lp587
(g34
I29
tp588
atp589
asS'de'
p590
(lp591
(S'mitglied'
p592
(dp593
S'ADJ'
p594
F0.322771
sS'NOUN'
p595
F0.661941
s(lp596
(g8
I0
tp597
atp598
a(S'der'
p599
(dp600
S'PRON'
p601
F0.000229
sS'DET'
p602
F0.999687
s(lp603
(g24
I2
tp604
atp605
a(S'kommission'
p606
(dp607
S'ADJ'
p608
F0.048854
sS'NOUN'
p609
F0.944588
s(lp610
(g31
I3
tp611
atp612
a(g34
(dp613
g34
F1.0
s(lp614
(g34
I4
tp615
atp616
a(g39
(dp617
g34
F1.0
s(lp618
(g39
I5
tp619
atp620
a(g44
(dp621
g34
F1.0
s(lp622
tp623
a(S'en'
p624
(dp625
g267
F1.0
s(lp626
(g57
I7
tp627
atp628
a(g54
(dp629
g34
F1.0
s(lp630
(g57
I7
tp631
atp632
a(S'herr'
p633
(dp634
S'ADJ'
p635
F0.19898
sS'NOUN'
p636
F0.770496
s(lp637
(g64
I6
tp638
atp639
a(S'pr\xc3\xa4sident'
p640
(dp641
S'VERB'
p642
F0.05857
sS'NOUN'
p643
F0.928761
s(lp644
tp645
a(S'!'
p646
(dp647
g34
F1.0
s(lp648
(g57
I7
tp649
atp650
a(S'ich'
p651
(dp652
S'PRON'
p653
F1.0
s(lp654
(g89
I9
tp655
atp656
a(S'm\xc3\xb6chte'
p657
(dp658
S'VERB'
p659
F1.0
s(lp660
(g272
I10
tp661
atp662
a(S'nur'
p663
(dp664
S'ADV'
p665
F1.0
s(lp666
(g105
I11
tp667
atp668
a(S'noch'
p669
(dp670
S'ADV'
p671
F0.999409
sS'CONJ'
p672
F0.000591
s(lp673
(g97
I12
tp674
atp675
a(S'klar'
p676
(dp677
S'PRT'
p678
F0.004138
sS'ADJ'
p679
F0.99586
s(lp680
tp681
a(S'und'
p682
(dp683
S'CONJ'
p684
F1.0
s(lp685
tp686
a(S'deutlich'
p687
(dp688
S'ADJ'
p689
F1.0
s(lp690
(g135
I16
tp691
atp692
a(S'sagen'
p693
(dp694
S'VERB'
p695
F1.0
s(lp696
(g119
I14
tp697
atp698
a(g80
(dp699
g34
F1.0
s(lp700
tp701
a(S'dass'
p702
(dp703
S'CONJ'
p704
F1.0
s(lp705
(g128
I17
tp706
atp707
a(S'ich'
p708
(dp709
S'PRON'
p710
F1.0
s(lp711
(g89
I18
tp712
atp713
a(S'mir'
p714
(dp715
S'PRON'
p716
F1.0
s(lp717
tp718
a(S'nicht'
p719
(dp720
S'PRT'
p721
F1.0
s(lp722
tp723
a(S'vorstellen'
p724
(dp725
S'VERB'
p726
F1.0
s(lp727
(g153
I20
tp728
atp729
a(S'kann'
p730
(dp731
S'VERB'
p732
F1.0
s(lp733
(g330
I19
tp734
atp735
a(g80
(dp736
g34
F1.0
s(lp737
tp738
a(S'dass'
p739
(dp740
S'CONJ'
p741
F1.0
s(lp742
(g162
I21
tp743
atp744
a(S'die'
p745
(dp746
S'PRON'
p747
F0.000849
sS'DET'
p748
F0.99902
s(lp749
tp750
a(S'zusammenarbeit'
p751
(dp752
S'ADJ'
p753
F0.000134
sS'NOUN'
p754
F0.999724
s(lp755
tp756
a(S'zwischen'
p757
(dp758
S'PRT'
p759
F3e-06
sS'ADP'
p760
F0.999997
s(lp761
(g212
I28
tp762
atp763
a(S'den'
p764
(dp765
S'PRON'
p766
F0.000514
sS'DET'
p767
F0.999466
s(lp768
(g169
I22
tp769
atp770
a(S'drei'
p771
(dp772
S'NUM'
p773
F1.0
s(lp774
(g177
I23
tp775
atp776
a(S'institutionen'
p777
(dp778
S'ADJ'
p779
F0.027024
sS'NOUN'
p780
F0.957001
s(lp781
(g184
I24
tp782
atp783
a(S'nicht'
p784
(dp785
S'PRT'
p786
F1.0
s(lp787
(g204
I26
tp788
atp789
a(S'funktioniert'
p790
(dp791
S'VERB'
p792
F0.9088200000000001
s(lp793
(g196
I27
tp794
atp795
a(g34
(dp796
g34
F1.0
s(lp797
(g34
I29
tp798
atp799
asS'it'
p800
(lp801
(S'membro'
p802
(dp803
S'NOUN'
p804
F1.0
s(lp805
(g8
I0
tp806
atp807
a(S'della'
p808
(dp809
S'DEF'
p810
F0.001587
sS'ADP'
p811
F0.998413
s(lp812
(g15
I1
tp813
atp814
a(S'commissione'
p815
(dp816
S'NOUN'
p817
F1.0
s(lp818
(g31
I3
tp819
atp820
a(g34
(dp821
g34
F1.0
s(lp822
(g34
I4
tp823
atp824
a(g39
(dp825
g267
F1.8e-05
sg34
F0.999982
s(lp826
(g39
I5
tp827
atp828
a(g44
(dp829
g34
F1.0
s(lp830
tp831
a(S'en'
p832
(dp833
S'ADJ'
p834
F0.097599
sS'VERB'
p835
F0.025145
sS'NOUN'
p836
F0.877257
s(lp837
(g57
I7
tp838
atp839
a(g54
(dp840
g34
F1.0
s(lp841
tp842
a(S'signor'
p843
(dp844
S'NOUN'
p845
F1.0
s(lp846
(g64
I6
tp847
atp848
a(S'presidente'
p849
(dp850
S'NOUN'
p851
F1.0
s(lp852
(g57
I7
tp853
atp854
a(g80
(dp855
g34
F1.0
s(lp856
(g80
I8
tp857
atp858
a(S'vorrei'
p859
(dp860
S'VERB'
p861
F1.0
s(lp862
(g97
I12
tp863
atp864
a(S'solo'
p865
(dp866
S'ADV'
p867
F0.998967
sS'NOUN'
p868
F7.3e-05
sS'VERB'
p869
F3.7e-05
sS'ADJ'
p870
F0.000922
s(lp871
(g105
I11
tp872
atp873
a(S'dire'
p874
(dp875
S'VERB'
p876
F0.985354
sS'ADJ'
p877
F0.014646
s(lp878
(g119
I14
tp879
atp880
a(S'molto'
p881
(dp882
S'ADV'
p883
F0.97287
sS'PRON'
p884
F0.0025
sS'VERB'
p885
F0.016284
sS'ADJ'
p886
F0.008346
s(lp887
(g306
I15
tp888
atp889
a(S'chiaramente'
p890
(dp891
S'ADV'
p892
F1.0
s(lp893
(g135
I16
tp894
atp895
a(S'che'
p896
(dp897
S'PRON'
p898
F0.719268
sS'CONJ'
p899
F0.275091
sS'ADJ'
p900
F0.005641
s(lp901
(g128
I17
tp902
atp903
a(S'non'
p904
(dp905
S'ADV'
p906
F1.0
s(lp907
tp908
a(S'posso'
p909
(dp910
S'VERB'
p911
F1.0
s(lp912
(g330
I19
tp913
atp914
a(S'nemmeno'
p915
(dp916
S'ADV'
p917
F1.0
s(lp918
tp919
a(S'immaginare'
p920
(dp921
S'VERB'
p922
F1.0
s(lp923
(g153
I20
tp924
atp925
a(S'che'
p926
(dp927
S'PRON'
p928
F0.991102
sS'CONJ'
p929
F0.008771
sS'ADJ'
p930
F0.000127
s(lp931
(g162
I21
tp932
atp933
a(S'queste'
p934
(dp935
S'PRON'
p936
F1.0
s(lp937
(g169
I22
tp938
atp939
a(S'due'
p940
(dp941
S'NUM'
p942
F0.000275
sS'ADJ'
p943
F0.999725
s(lp944
(g177
I23
tp945
atp946
a(S'istituzioni'
p947
(dp948
S'NOUN'
p949
F1.0
s(lp950
(g184
I24
tp951
atp952
a(S'non'
p953
(dp954
S'ADV'
p955
F1.0
s(lp956
(g204
I26
tp957
atp958
a(S'lavorino'
p959
(dp960
S'VERB'
p961
F1.0
s(lp962
(g196
I27
tp963
atp964
a(S'insieme'
p965
(dp966
S'ADV'
p967
F0.985918
sS'NOUN'
p968
F0.014082
s(lp969
(g212
I28
tp970
atp971
a(g34
(dp972
g34
F1.0
s(lp973
(g34
I29
tp974
atp975
asS'sk'
p976
(lp977
(S'\xc4\x8dlenka'
p978
(dp979
S'NOUN'
p980
F1.0
s(lp981
(g8
I0
tp982
atp983
a(S'komisie'
p984
(dp985
S'NOUN'
p986
F1.0
s(lp987
(g31
I3
tp988
atp989
a(g34
(dp990
g34
F1.0
s(lp991
(g34
I4
tp992
atp993
a(g39
(dp994
g34
F1.0
s(lp995
(g39
I5
tp996
atp997
a(S'v\xc3\xa1\xc5\xbeen\xc3\xbd'
p998
(dp999
S'VERB'
p1000
F0.176052
sS'ADJ'
p1001
F0.823948
s(lp1002
tp1003
a(S'p\xc3\xa1n'
p1004
(dp1005
S'NOUN'
p1006
F1.0
s(lp1007
(g64
I6
tp1008
atp1009
a(S'predsedaj\xc3\xbaci'
p1010
(dp1011
S'VERB'
p1012
F1.0
s(lp1013
(g57
I7
tp1014
atp1015
a(g80
(dp1016
g34
F1.0
s(lp1017
(g80
I8
tp1018
atp1019
a(S'len'
p1020
(dp1021
g267
F0.472703
sS'CONJ'
p1022
F0.527297
s(lp1023
(g105
I11
tp1024
atp1025
a(S'by'
p1026
(dp1027
S'PRT'
p1028
F0.999999
sg267
F1e-06
s(lp1029
(g272
I10
tp1030
atp1031
a(S'som'
p1032
(dp1033
S'VERB'
p1034
F1.0
s(lp1035
tp1036
a(S'rada'
p1037
(dp1038
S'ADJ'
p1039
F0.34857
sS'NOUN'
p1040
F0.65143
s(lp1041
(g97
I12
tp1042
atp1043
a(S've\xc4\xbemi'
p1044
(dp1045
S'ADV'
p1046
F1.0
s(lp1047
(g306
I15
tp1048
atp1049
a(S'jasne'
p1050
(dp1051
S'ADV'
p1052
F0.999908
sS'ADJ'
p1053
F4.2e-05
sS'NOUN'
p1054
F5e-05
s(lp1055
(g135
I16
tp1056
atp1057
a(S'povedala'
p1058
(dp1059
S'VERB'
p1060
F0.9999990000000001
s(lp1061
(g119
I14
tp1062
atp1063
a(g80
(dp1064
g34
F1.0
s(lp1065
tp1066
a(S'\xc5\xbee'
p1067
(dp1068
g267
F0.00011499999999999999
sS'CONJ'
p1069
F0.999886
s(lp1070
(g128
I17
tp1071
atp1072
a(S'si'
p1073
(dp1074
S'PRT'
p1075
F0.997531
sS'VERB'
p1076
F0.002468
sg267
F1e-06
s(lp1077
tp1078
a(S'neviem'
p1079
(dp1080
g267
F0.025266
sS'VERB'
p1081
F0.974734
s(lp1082
(g330
I19
tp1083
atp1084
a(S'predstavi\xc5\xa5'
p1085
(dp1086
S'VERB'
p1087
F1.0
s(lp1088
(g153
I20
tp1089
atp1090
a(g80
(dp1091
g34
F1.0
s(lp1092
tp1093
a(S'\xc5\xbee'
p1094
(dp1095
g267
F0.00013099999999999999
sS'CONJ'
p1096
F0.999869
s(lp1097
(g162
I21
tp1098
atp1099
a(S'by'
p1100
(dp1101
S'PRT'
p1102
F0.999992
sg267
F8e-06
s(lp1103
(g365
I25
tp1104
atp1105
a(S'tieto'
p1106
(dp1107
S'PRON'
p1108
F1.0
s(lp1109
(g169
I22
tp1110
atp1111
a(S'tri'
p1112
(dp1113
S'NUM'
p1114
F1.0
sS'VERB'
p1115
F0.0
s(lp1116
(g177
I23
tp1117
atp1118
a(S'in\xc5\xa1tit\xc3\xbacie'
p1119
(dp1120
S'NOUN'
p1121
F1.0
s(lp1122
(g184
I24
tp1123
atp1124
a(S'nespolupracovali'
p1125
(dp1126
S'VERB'
p1127
F1.0
s(lp1128
(g212
I28
tp1129
atp1130
a(g34
(dp1131
g34
F1.0
s(lp1132
(g34
I29
tp1133
atp1134
asS'pl'
p1135
(lp1136
(S'komisarz'
p1137
(dp1138
S'NOUN'
p1139
F1.0
s(lp1140
(g8
I0
tp1141
atp1142
a(g34
(dp1143
g34
F1.0
s(lp1144
(g34
I4
tp1145
atp1146
a(g39
(dp1147
g267
F0.000546
sS'NUM'
p1148
F0.0
sS'NOUN'
p1149
F6e-06
sg34
F0.999448
s(lp1150
(g39
I5
tp1151
atp1152
a(S'panie'
p1153
(dp1154
S'NOUN'
p1155
F1.0
s(lp1156
(g64
I6
tp1157
atp1158
a(S'przewodnicz\xc4\x85cy'
p1159
(dp1160
S'VERB'
p1161
F0.000602
sS'NOUN'
p1162
F0.999398
s(lp1163
tp1164
a(g646
(dp1165
g34
F1.0
s(lp1166
(g57
I7
tp1167
atp1168
a(S'pragn\xc4\x99'
p1169
(dp1170
S'VERB'
p1171
F1.0
s(lp1172
(g272
I10
tp1173
atp1174
a(S'jedynie'
p1175
(dp1176
S'PRT'
p1177
F1.0
s(lp1178
(g105
I11
tp1179
atp1180
a(S'wyra\xc5\xbanie'
p1181
(dp1182
S'ADV'
p1183
F1.0
s(lp1184
(g135
I16
tp1185
atp1186
a(S'powiedzie\xc4\x87'
p1187
(dp1188
S'VERB'
p1189
F1.0
s(lp1190
(g119
I14
tp1191
atp1192
a(g80
(dp1193
g267
F0.0
sg34
F1.0
s(lp1194
tp1195
a(S'\xc5\xbce'
p1196
(dp1197
S'PRT'
p1198
F0.000283
sS'CONJ'
p1199
F0.9997170000000001
s(lp1200
(g128
I17
tp1201
atp1202
a(S'nie'
p1203
(dp1204
S'ADV'
p1205
F1.3e-05
sS'PRT'
p1206
F0.999429
sS'CONJ'
p1207
F0.00055
sS'NOUN'
p1208
F3e-06
sS'PRON'
p1209
F4e-06
s(lp1210
(g330
I19
tp1211
atp1212
a(S'wyobra\xc5\xbcam'
p1213
(dp1214
S'VERB'
p1215
F1.0
s(lp1216
(g153
I20
tp1217
atp1218
a(S'sobie'
p1219
(dp1220
S'PRON'
p1221
F1.0
s(lp1222
tp1223
a(S'braku'
p1224
(dp1225
S'NOUN'
p1226
F1.0
s(lp1227
(g204
I26
tp1228
atp1229
a(S'kooperacji'
p1230
(dp1231
S'VERB'
p1232
F0.000733
sS'NOUN'
p1233
F0.999268
s(lp1234
(g153
I20
tp1235
atp1236
a(S'mi\xc4\x99dzy'
p1237
(dp1238
S'ADP'
p1239
F1.0
s(lp1240
(g212
I28
tp1241
atp1242
a(S'tymi'
p1243
(dp1244
S'ADJ'
p1245
F0.999999
s(lp1246
(g169
I22
tp1247
atp1248
a(S'trzema'
p1249
(dp1250
S'NUM'
p1251
F0.9999999999999999
s(lp1252
(g177
I23
tp1253
atp1254
a(S'instytucjami'
p1255
(dp1256
S'NOUN'
p1257
F1.0
s(lp1258
(g184
I24
tp1259
atp1260
a(g34
(dp1261
g34
F1.0
s(lp1262
(g34
I29
tp1263
atp1264
asS'sl'
p1265
(lp1266
(S'komisarka'
p1267
(dp1268
S'ADV'
p1269
F0.003617
sS'ADJ'
p1270
F0.174182
sS'VERB'
p1271
F0.006204
sS'NOUN'
p1272
F0.8159979999999999
s(lp1273
(g8
I0
tp1274
atp1275
a(g34
(dp1276
g34
F1.0
s(lp1277
(g34
I4
tp1278
atp1279
a(g39
(dp1280
g34
F1.0
s(lp1281
(g39
I5
tp1282
atp1283
a(S'gospod'
p1284
(dp1285
S'NOUN'
p1286
F1.0
s(lp1287
(g64
I6
tp1288
atp1289
a(S'predsednik'
p1290
(dp1291
S'NOUN'
p1292
F1.0
s(lp1293
(g57
I7
tp1294
atp1295
a(g80
(dp1296
g34
F1.0
s(lp1297
(g80
I8
tp1298
atp1299
a(S'jasno'
p1300
(dp1301
S'ADV'
p1302
F0.992512
sS'ADJ'
p1303
F0.007488
s(lp1304
(g135
I16
tp1305
atp1306
a(S'\xc5\xbeelim'
p1307
(dp1308
S'VERB'
p1309
F1.0
s(lp1310
(g97
I12
tp1311
atp1312
a(S'povedati'
p1313
(dp1314
S'VERB'
p1315
F1.0
s(lp1316
(g119
I14
tp1317
atp1318
a(g80
(dp1319
g34
F1.0
s(lp1320
(g89
I18
tp1321
atp1322
a(S'da'
p1323
(dp1324
S'PRT'
p1325
F8e-06
sS'CONJ'
p1326
F0.999978
sS'VERB'
p1327
F1.3e-05
sg267
F0.0
s(lp1328
(g128
I17
tp1329
atp1330
a(S'si'
p1331
(dp1332
S'PRON'
p1333
F0.918483
sS'VERB'
p1334
F0.081517
s(lp1335
tp1336
a(S'ne'
p1337
(dp1338
S'PRT'
p1339
F0.998518
sS'CONJ'
p1340
F0.001472
sg267
F9e-06
s(lp1341
(g330
I19
tp1342
atp1343
a(S'predstavljam'
p1344
(dp1345
S'VERB'
p1346
F1.0
s(lp1347
(g153
I20
tp1348
atp1349
a(g80
(dp1350
g34
F1.0
s(lp1351
tp1352
a(S'da'
p1353
(dp1354
S'PRT'
p1355
F1.7e-05
sS'CONJ'
p1356
F0.999968
sS'VERB'
p1357
F1.5e-05
sg267
F1e-06
s(lp1358
(g162
I21
tp1359
atp1360
a(S'te'
p1361
(dp1362
S'PRON'
p1363
F1.0
s(lp1364
(g169
I22
tp1365
atp1366
a(S'tri'
p1367
(dp1368
S'NUM'
p1369
F0.9999999999999999
s(lp1370
(g177
I23
tp1371
atp1372
a(S'institucije'
p1373
(dp1374
S'NOUN'
p1375
F1.0
s(lp1376
(g184
I24
tp1377
atp1378
a(S'ne'
p1379
(dp1380
S'PRT'
p1381
F0.993733
sS'CONJ'
p1382
F0.00626
sg267
F7e-06
s(lp1383
(g204
I26
tp1384
atp1385
a(S'bi'
p1386
(dp1387
g267
F0.0
sS'VERB'
p1388
F1.0
s(lp1389
(g365
I25
tp1390
atp1391
a(S'sodelovale'
p1392
(dp1393
S'VERB'
p1394
F1.0
s(lp1395
(g212
I28
tp1396
atp1397
a(g34
(dp1398
g34
F1.0
s(lp1399
(g34
I29
tp1400
atp1401
asS'es'
p1402
(lp1403
(S'miembro'
p1404
(dp1405
S'NOUN'
p1406
F1.0
s(lp1407
(g8
I0
tp1408
atp1409
a(S'de'
p1410
(dp1411
g267
F0.0
sS'CONJ'
p1412
F1.7e-05
sS'ADP'
p1413
F0.999983
s(lp1414
(g15
I1
tp1415
atp1416
a(S'la'
p1417
(dp1418
g267
F0.0
sS'PRON'
p1419
F0.0
sS'DET'
p1420
F0.999999
sS'NOUN'
p1421
F0.0
s(lp1422
(g24
I2
tp1423
atp1424
a(S'comisi\xc3\xb3n'
p1425
(dp1426
S'NOUN'
p1427
F1.0
s(lp1428
(g31
I3
tp1429
atp1430
a(g34
(dp1431
g34
F1.0
s(lp1432
(g34
I4
tp1433
atp1434
a(g39
(dp1435
g34
F1.0
s(lp1436
(g39
I5
tp1437
atp1438
a(S'se\xc3\xb1or'
p1439
(dp1440
S'NOUN'
p1441
F1.0
s(lp1442
(g64
I6
tp1443
atp1444
a(S'presidente'
p1445
(dp1446
S'NOUN'
p1447
F1.0
s(lp1448
(g57
I7
tp1449
atp1450
a(g80
(dp1451
g34
F1.0
s(lp1452
(g80
I8
tp1453
atp1454
a(S's\xc3\xb3lo'
p1455
(dp1456
S'ADV'
p1457
F1.0
s(lp1458
(g105
I11
tp1459
atp1460
a(S'me'
p1461
(dp1462
S'PRON'
p1463
F0.999999
sS'NOUN'
p1464
F1e-06
s(lp1465
(g89
I9
tp1466
atp1467
a(S'gustar\xc3\xada'
p1468
(dp1469
S'VERB'
p1470
F1.0
s(lp1471
(g97
I12
tp1472
atp1473
a(S'se\xc3\xb1alar'
p1474
(dp1475
S'VERB'
p1476
F1.0
s(lp1477
(g119
I14
tp1478
atp1479
a(S'muy'
p1480
(dp1481
S'ADV'
p1482
F1.0
s(lp1483
(g306
I15
tp1484
atp1485
a(S'claramente'
p1486
(dp1487
S'ADV'
p1488
F1.0
s(lp1489
(g135
I16
tp1490
atp1491
a(S'que'
p1492
(dp1493
g267
F0.0
sS'CONJ'
p1494
F1.0
s(lp1495
(g128
I17
tp1496
atp1497
a(S'no'
p1498
(dp1499
S'ADV'
p1500
F1.0
sg267
F0.0
s(lp1501
tp1502
a(S'puedo'
p1503
(dp1504
S'VERB'
p1505
F1.0
s(lp1506
(g330
I19
tp1507
atp1508
a(S'imaginar'
p1509
(dp1510
S'VERB'
p1511
F1.0
s(lp1512
(g153
I20
tp1513
atp1514
a(S'que'
p1515
(dp1516
g267
F0.0
sS'CONJ'
p1517
F1.0
s(lp1518
(g162
I21
tp1519
atp1520
a(S'estas'
p1521
(dp1522
S'PRON'
p1523
F1.0
s(lp1524
(g169
I22
tp1525
atp1526
a(S'tres'
p1527
(dp1528
S'NUM'
p1529
F1.0
s(lp1530
(g177
I23
tp1531
atp1532
a(S'instituciones'
p1533
(dp1534
S'NOUN'
p1535
F1.0
s(lp1536
(g184
I24
tp1537
atp1538
a(S'no'
p1539
(dp1540
S'ADV'
p1541
F0.999922
sg267
F7.8e-05
s(lp1542
(g204
I26
tp1543
atp1544
a(S'colaboren'
p1545
(dp1546
S'VERB'
p1547
F1.0
s(lp1548
(g196
I27
tp1549
atp1550
a(g34
(dp1551
g34
F1.0
s(lp1552
(g34
I29
tp1553
atp1554
as.