(dp0
S'fr'
p1
(lp2
(S'il'
p3
(dp4
S'PRON'
p5
F1.0
s(lp6
(S'it'
p7
I0
tp8
atp9
a(S"n'"
p10
(dp11
S'ADJ'
p12
F0.000625
sS'VERB'
p13
F0.9973000000000002
sS'NOUN'
p14
F0.002077
s(lp15
tp16
a(S'est'
p17
(dp18
S'VERB'
p19
F0.999313
sS'NOUN'
p20
F0.000687
s(lp21
(S'is'
p22
I1
tp23
atp24
a(S'pas'
p25
(dp26
S'ADV'
p27
F0.997496
sS'NOUN'
p28
F0.002504
s(lp29
(S'quite'
p30
I2
tp31
atp32
a(S'normal'
p33
(dp34
S'NOUN'
p35
F0.016673
sS'ADJ'
p36
F0.983327
s(lp37
(S'wrong'
p38
I3
tp39
atp40
a(S'que'
p41
(dp42
S'ADV'
p43
F0.002915
sS'PRON'
p44
F0.081165
sS'CONJ'
p45
F0.915919
s(lp46
(S'that'
p47
I4
tp48
atp49
a(S'le'
p50
(dp51
S'PRON'
p52
F0.000649
sS'DET'
p53
F0.999351
s(lp54
tp55
a(S'parlement'
p56
(dp57
S'NOUN'
p58
F1.0
s(lp59
(S'parliament'
p60
I5
tp61
atp62
a(S'ne'
p63
(dp64
S'ADV'
p65
F1.0
s(lp66
(S'cannot'
p67
I6
tp68
atp69
a(S'puisse'
p70
(dp71
S'VERB'
p72
F1.0
s(lp73
tp74
a(S'pas'
p75
(dp76
S'ADV'
p77
F0.999903
sS'NOUN'
p78
F9.7e-05
s(lp79
(g67
I6
tp80
atp81
a(S'voter'
p82
(dp83
S'VERB'
p84
F1.0
s(lp85
(S'vote'
p86
I7
tp87
atp88
a(S'sur'
p89
(dp90
S'ADP'
p91
F1.0
s(lp92
(S'on'
p93
I8
tp94
atp95
a(S'chaque'
p96
(dp97
S'PRON'
p98
F1.0
s(lp99
tp100
a(S'commissaire'
p101
(dp102
S'NOUN'
p103
F1.0
s(lp104
(S'commissioners'
p105
I10
tp106
atp107
a(S'individuellement'
p108
(dp109
S'ADV'
p110
F1.0
s(lp111
(S'individual'
p112
I9
tp113
atp114
a(S','
p115
(dp116
S'.'
p117
F1.0
s(lp118
tp119
a(S'mais'
p120
(dp121
S'CONJ'
p122
F1.0
s(lp123
(S'but'
p124
I11
tp125
atp126
a(S'soit'
p127
(dp128
S'ADV'
p129
F0.063293
sS'CONJ'
p130
F0.172957
sS'VERB'
p131
F0.76375
s(lp132
tp133
a(S'oblig\xc3\xa9'
p134
(dp135
S'VERB'
p136
F0.430003
sS'ADJ'
p137
F0.569997
s(lp138
(S'must'
p139
I12
tp140
atp141
a(S"d'"
p142
(dp143
S'ADJ'
p144
F0.096609
sS'VERB'
p145
F0.36438200000000004
sS'NOUN'
p146
F0.539009
s(lp147
tp148
a(S'approuver'
p149
(dp150
S'VERB'
p151
F1.0
s(lp152
(S'vote'
p153
I13
tp154
atp155
a(S'ou'
p156
(dp157
S'CONJ'
p158
F1.0
s(lp159
(S'on'
p160
I14
tp161
atp162
a(S'de'
p163
(dp164
S'ADP'
p165
F1.0
s(lp166
tp167
a(S'rejeter'
p168
(dp169
S'VERB'
p170
F1.0
s(lp171
tp172
a(S'le'
p173
(dp174
S'PRON'
p175
F3.4e-05
sS'DET'
p176
F0.999966
s(lp177
(S'the'
p178
I15
tp179
atp180
a(S'coll\xc3\xa8ge'
p181
(dp182
S'NOUN'
p183
F1.0
s(lp184
(S'college'
p185
I16
tp186
atp187
a(S'dans'
p188
(dp189
S'NOUN'
p190
F2e-06
sS'ADP'
p191
F0.999998
s(lp192
(S'as'
p193
I17
tp194
atp195
a(S'son'
p196
(dp197
S'PRON'
p198
F0.99997
sS'NOUN'
p199
F3e-05
s(lp200
tp201
a(S'ensemble'
p202
(dp203
S'ADV'
p204
F2.3e-05
sS'NOUN'
p205
F0.999977
s(lp206
(S'whole'
p207
I19
tp208
atp209
a(g117
(dp210
g117
F1.0
s(lp211
(g117
I20
tp212
atp213
asS'en'
p214
(lp215
(g7
(dp216
S'PRON'
p217
F1.0
s(lp218
(g7
I0
tp219
atp220
a(g22
(dp221
S'VERB'
p222
F1.0
s(lp223
(g22
I1
tp224
atp225
a(g30
(dp226
S'ADV'
p227
F0.999616
sS'DET'
p228
F0.000384
s(lp229
(g30
I2
tp230
atp231
a(g38
(dp232
S'ADV'
p233
F0.34302
sS'NOUN'
p234
F0.006347
sS'VERB'
p235
F0.019056999999999998
sS'ADJ'
p236
F0.631577
s(lp237
(g38
I3
tp238
atp239
a(g47
(dp240
S'ADV'
p241
F0.000638
sS'DET'
p242
F0.435159
sS'ADP'
p243
F0.564204
s(lp244
(g47
I4
tp245
atp246
a(g60
(dp247
S'NOUN'
p248
F1.0
s(lp249
(g60
I5
tp250
atp251
a(g67
(dp252
S'VERB'
p253
F1.0
s(lp254
(g67
I6
tp255
atp256
a(g86
(dp257
S'VERB'
p258
F0.999377
sS'NOUN'
p259
F0.000623
s(lp260
(g86
I7
tp261
atp262
a(g93
(dp263
S'ADV'
p264
F0.012262
sS'PRT'
p265
F0.035265
sS'ADJ'
p266
F2.2e-05
sS'ADP'
p267
F0.95245
sS'NOUN'
p268
F1e-06
s(lp269
(g93
I8
tp270
atp271
a(g112
(dp272
S'NOUN'
p273
F0.052304
sS'ADJ'
p274
F0.947696
s(lp275
(g112
I9
tp276
atp277
a(g105
(dp278
S'NOUN'
p279
F1.0
s(lp280
(g105
I10
tp281
atp282
a(g124
(dp283
S'ADV'
p284
F0.000739
sS'CONJ'
p285
F0.99926
sS'NOUN'
p286
F1e-06
s(lp287
(g124
I11
tp288
atp289
a(g139
(dp290
S'VERB'
p291
F0.999998
sS'NOUN'
p292
F2e-06
s(lp293
(g139
I12
tp294
atp295
a(g153
(dp296
S'VERB'
p297
F0.999372
sS'NOUN'
p298
F0.000628
s(lp299
(g153
I13
tp300
atp301
a(g160
(dp302
S'ADV'
p303
F0.003821
sS'PRT'
p304
F0.038844
sS'ADJ'
p305
F0.0
sS'ADP'
p306
F0.957335
sS'NOUN'
p307
F0.0
s(lp308
(g160
I14
tp309
atp310
a(g178
(dp311
S'NOUN'
p312
F1e-06
sS'DET'
p313
F0.999999
s(lp314
(g178
I15
tp315
atp316
a(g185
(dp317
S'NOUN'
p318
F1.0
s(lp319
(g185
I16
tp320
atp321
a(g193
(dp322
S'ADV'
p323
F0.011782
sS'ADP'
p324
F0.988218
s(lp325
(g193
I17
tp326
atp327
a(S'a'
p328
(dp329
S'NOUN'
p330
F0.0
sS'DET'
p331
F1.0
s(lp332
(g328
I18
tp333
atp334
a(g207
(dp335
S'ADV'
p336
F6.5e-05
sS'ADJ'
p337
F0.42389
sS'NOUN'
p338
F0.575787
sS'PRT'
p339
F0.000258
s(lp340
(g207
I19
tp341
atp342
a(g117
(dp343
g117
F1.0
s(lp344
(g117
I20
tp345
atp346
asS'nl'
p347
(lp348
(S'het'
p349
(dp350
S'PRON'
p351
F0.962086
sS'DET'
p352
F0.037914
s(lp353
(g7
I0
tp354
atp355
a(S'is'
p356
(dp357
S'VERB'
p358
F1.0
s(lp359
(g22
I1
tp360
atp361
a(S'dan'
p362
(dp363
S'ADV'
p364
F0.807865
sS'CONJ'
p365
F0.192135
s(lp366
tp367
a(S'ook'
p368
(dp369
S'ADV'
p370
F1.0
s(lp371
(g30
I2
tp372
atp373
a(S'geen'
p374
(dp375
S'PRON'
p376
F0.999992
sS'DET'
p377
F8e-06
s(lp378
(g38
I3
tp379
atp380
a(S'goede'
p381
(dp382
S'NOUN'
p383
F0.052258
sS'ADJ'
p384
F0.947742
s(lp385
tp386
a(S'zaak'
p387
(dp388
S'NOUN'
p389
F1.0
s(lp390
(g38
I3
tp391
atp392
a(S'dat'
p393
(dp394
S'PRON'
p395
F0.042207
sS'CONJ'
p396
F0.957794
s(lp397
(g47
I4
tp398
atp399
a(S'het'
p400
(dp401
S'PRON'
p402
F0.021146
sS'DET'
p403
F0.978854
s(lp404
tp405
a(S'parlement'
p406
(dp407
S'NOUN'
p408
F1.0
s(lp409
(g60
I5
tp410
atp411
a(S'niet'
p412
(dp413
S'ADV'
p414
F0.999978
sS'PRON'
p415
F0.0
sS'VERB'
p416
F2.2e-05
sS'X'
p417
F0.0
s(lp418
tp419
a(S'over'
p420
(dp421
S'ADV'
p422
F0.469868
sS'ADP'
p423
F0.530132
s(lp424
(g93
I8
tp425
atp426
a(S'afzonderlijke'
p427
(dp428
S'NOUN'
p429
F1e-06
sS'ADJ'
p430
F0.999999
s(lp431
(g112
I9
tp432
atp433
a(S'commissarissen'
p434
(dp435
S'NOUN'
p436
F1.0
s(lp437
(g105
I10
tp438
atp439
a(S'kan'
p440
(dp441
S'VERB'
p442
F0.999832
sS'NOUN'
p443
F0.000168
s(lp444
(g67
I6
tp445
atp446
a(S'stemmen'
p447
(dp448
S'VERB'
p449
F0.993897
sS'NOUN'
p450
F0.006104
s(lp451
(g86
I7
tp452
atp453
a(g115
(dp454
g117
F1.0
s(lp455
tp456
a(S'maar'
p457
(dp458
S'ADV'
p459
F0.126721
sS'CONJ'
p460
F0.873271
sS'NOUN'
p461
F8e-06
s(lp462
(g124
I11
tp463
atp464
a(S'slechts'
p465
(dp466
S'ADV'
p467
F1.0
s(lp468
(g153
I13
tp469
atp470
a(S'over'
p471
(dp472
S'ADV'
p473
F0.059094
sS'ADP'
p474
F0.940906
s(lp475
(g160
I14
tp476
atp477
a(S'het'
p478
(dp479
S'PRON'
p480
F0.000979
sS'DET'
p481
F0.999022
s(lp482
(g178
I15
tp483
atp484
a(S'college'
p485
(dp486
S'NOUN'
p487
F1.0
s(lp488
(g185
I16
tp489
atp490
a(S'als'
p491
(dp492
S'CONJ'
p493
F1.0
s(lp494
(g193
I17
tp495
atp496
a(S'geheel'
p497
(dp498
S'ADJ'
p499
F0.104705
sS'NOUN'
p500
F0.895295
s(lp501
(g207
I19
tp502
atp503
a(g117
(dp504
g117
F1.0
s(lp505
(g117
I20
tp506
atp507
asS'de'
p508
(lp509
(S'ich'
p510
(dp511
S'PRON'
p512
F1.0
s(lp513
(g7
I0
tp514
atp515
a(S'halte'
p516
(dp517
S'VERB'
p518
F1.0
s(lp519
(g22
I1
tp520
atp521
a(S'es'
p522
(dp523
S'PRON'
p524
F1.0
s(lp525
tp526
a(S'f\xc3\xbcr'
p527
(dp528
S'ADP'
p529
F1.0
s(lp530
(g22
I1
tp531
atp532
a(S'untragbar'
p533
(dp534
S'ADJ'
p535
F1.0
s(lp536
(g38
I3
tp537
atp538
a(g115
(dp539
g117
F1.0
s(lp540
tp541
a(S'dass'
p542
(dp543
S'CONJ'
p544
F1.0
s(lp545
(g47
I4
tp546
atp547
a(S'das'
p548
(dp549
S'PRON'
p550
F0.124275
sS'DET'
p551
F0.875171
s(lp552
tp553
a(S'parlament'
p554
(dp555
S'ADJ'
p556
F0.133063
sS'NOUN'
p557
F0.791178
s(lp558
(g60
I5
tp559
atp560
a(S'nicht'
p561
(dp562
S'PRT'
p563
F1.0
s(lp564
tp565
a(S'\xc3\xbcber'
p566
(dp567
S'PRT'
p568
F0.000537
sS'ADP'
p569
F0.999463
s(lp570
(g93
I8
tp571
atp572
a(S'einzelne'
p573
(dp574
S'ADJ'
p575
F1.0
s(lp576
(g112
I9
tp577
atp578
a(S'kommissare'
p579
(dp580
S'ADJ'
p581
F0.038003
sS'NOUN'
p582
F0.954912
s(lp583
(g105
I10
tp584
atp585
a(S'sondern'
p586
(dp587
S'CONJ'
p588
F0.999322
sS'VERB'
p589
F0.000678
s(lp590
(g124
I11
tp591
atp592
a(S'nur'
p593
(dp594
S'ADV'
p595
F1.0
s(lp596
(g139
I12
tp597
atp598
a(S'\xc3\xbcber'
p599
(dp600
S'PRT'
p601
F6.3e-05
sS'ADP'
p602
F0.999937
s(lp603
(g160
I14
tp604
atp605
a(S'die'
p606
(dp607
S'PRON'
p608
F0.000573
sS'DET'
p609
F0.999273
s(lp610
(g178
I15
tp611
atp612
a(S'kommission'
p613
(dp614
S'ADJ'
p615
F0.087667
sS'NOUN'
p616
F0.886247
s(lp617
(g185
I16
tp618
atp619
a(S'als'
p620
(dp621
S'CONJ'
p622
F0.999784
s(lp623
(g193
I17
tp624
atp625
a(S'ganzes'
p626
(dp627
S'ADJ'
p628
F1.0
s(lp629
(g207
I19
tp630
atp631
a(S'abstimmen'
p632
(dp633
S'VERB'
p634
F1.0
s(lp635
(g86
I7
tp636
atp637
a(S'kann'
p638
(dp639
S'VERB'
p640
F1.0
s(lp641
(g67
I6
tp642
atp643
a(g117
(dp644
g117
F1.0
s(lp645
(g117
I20
tp646
atp647
asS'it'
p648
(lp649
(S'e'
p650
(dp651
S'CONJ'
p652
F1.0
s(lp653
(g7
I0
tp654
atp655
a(S"'"
p656
(dp657
g117
F1.0
s(lp658
(g22
I1
tp659
atp660
a(S'del'
p661
(dp662
S'DEF'
p663
F0.008195
sS'ADP'
p664
F0.991805
s(lp665
tp666
a(S'tutto'
p667
(dp668
S'ADV'
p669
F0.218443
sS'PRON'
p670
F0.394479
sS'ADJ'
p671
F0.208366
sS'NOUN'
p672
F0.178712
s(lp673
(g30
I2
tp674
atp675
a(S'sbagliato'
p676
(dp677
S'VERB'
p678
F0.6957
sS'ADJ'
p679
F0.3043
s(lp680
(g38
I3
tp681
atp682
a(S'che'
p683
(dp684
S'PRON'
p685
F0.913927
sS'CONJ'
p686
F0.085511
sS'ADJ'
p687
F0.000562
s(lp688
(g47
I4
tp689
atp690
a(S'il'
p691
(dp692
S'DET'
p693
F1.0
s(lp694
tp695
a(S'parlamento'
p696
(dp697
S'VERB'
p698
F0.002192
sS'NOUN'
p699
F0.997808
s(lp700
(g60
I5
tp701
atp702
a(S'non'
p703
(dp704
S'ADV'
p705
F1.0
s(lp706
tp707
a(S'possa'
p708
(dp709
S'VERB'
p710
F0.999973
sS'NOUN'
p711
F2.7e-05
s(lp712
(g67
I6
tp713
atp714
a(S'votare'
p715
(dp716
S'VERB'
p717
F1.0
s(lp718
(g86
I7
tp719
atp720
a(S'sui'
p721
(dp722
S'ADP'
p723
F1.0
s(lp724
(g93
I8
tp725
atp726
a(S'singoli'
p727
(dp728
S'NOUN'
p729
F0.026278
sS'ADJ'
p730
F0.973722
s(lp731
(g112
I9
tp732
atp733
a(S'commissari'
p734
(dp735
S'VERB'
p736
F0.008528
sS'NOUN'
p737
F0.991472
s(lp738
(g105
I10
tp739
atp740
a(S'ma'
p741
(dp742
S'CONJ'
p743
F0.999984
sS'NOUN'
p744
F1.6e-05
s(lp745
(g124
I11
tp746
atp747
a(S'debba'
p748
(dp749
S'VERB'
p750
F1.0
s(lp751
(g139
I12
tp752
atp753
a(S'votare'
p754
(dp755
S'VERB'
p756
F1.0
s(lp757
(g153
I13
tp758
atp759
a(S'sul'
p760
(dp761
S'ADP'
p762
F1.0
s(lp763
(g160
I14
tp764
atp765
a(S'collegio'
p766
(dp767
S'NOUN'
p768
F1.0
s(lp769
(g185
I16
tp770
atp771
a(S'nel'
p772
(dp773
S'ADP'
p774
F1.0
s(lp775
(g207
I19
tp776
atp777
a(S'suo'
p778
(dp779
S'PRON'
p780
F1.0
s(lp781
tp782
a(S'complesso'
p783
(dp784
S'NOUN'
p785
F0.452323
sS'ADJ'
p786
F0.547677
s(lp787
(g207
I19
tp788
atp789
a(g117
(dp790
g117
F1.0
s(lp791
(g117
I20
tp792
atp793
asS'sk'
p794
(lp795
(S'je'
p796
(dp797
g417
F0.000514
sS'VERB'
p798
F0.999409
sS'PRON'
p799
F7.8e-05
s(lp800
(g22
I1
tp801
atp802
a(S'dos\xc5\xa5'
p803
(dp804
S'ADV'
p805
F0.53483
sg417
F0.17299
sS'NUM'
p806
F0.29218
s(lp807
(g30
I2
tp808
atp809
a(S'nespr\xc3\xa1vne'
p810
(dp811
S'ADV'
p812
F0.769989
sS'ADJ'
p813
F0.230011
s(lp814
(g38
I3
tp815
atp816
a(g115
(dp817
g117
F1.0
s(lp818
tp819
a(S'\xc5\xbee'
p820
(dp821
g417
F0.00032700000000000003
sS'CONJ'
p822
F0.999673
s(lp823
(g47
I4
tp824
atp825
a(S'parlament'
p826
(dp827
S'NOUN'
p828
F1.0
s(lp829
(g60
I5
tp830
atp831
a(S'nem\xc3\xb4\xc5\xbee'
p832
(dp833
S'VERB'
p834
F1.0
s(lp835
(g67
I6
tp836
atp837
a(S'hlasova\xc5\xa5'
p838
(dp839
S'VERB'
p840
F1.0
s(lp841
(g86
I7
tp842
atp843
a(S'o'
p844
(dp845
g417
F9.7e-05
sS'CONJ'
p846
F2.1e-05
sS'NOUN'
p847
F2.1e-05
sS'ADP'
p848
F0.999861
s(lp849
(g93
I8
tp850
atp851
a(S'jednotliv\xc3\xbdch'
p852
(dp853
S'ADJ'
p854
F1.0
s(lp855
(g112
I9
tp856
atp857
a(S'komis\xc3\xa1roch'
p858
(dp859
S'NOUN'
p860
F1.0
s(lp861
(g105
I10
tp862
atp863
a(g115
(dp864
g117
F1.0
s(lp865
tp866
a(S'ale'
p867
(dp868
g417
F0.014740000000000001
sS'CONJ'
p869
F0.98526
s(lp870
(g124
I11
tp871
atp872
a(S'mus\xc3\xad'
p873
(dp874
S'VERB'
p875
F1.0
s(lp876
(g139
I12
tp877
atp878
a(S'hlasova\xc5\xa5'
p879
(dp880
S'VERB'
p881
F1.0
s(lp882
(g153
I13
tp883
atp884
a(g844
(dp885
g417
F0.000242
sS'CONJ'
p886
F2.1e-05
sS'NOUN'
p887
F9e-06
sS'ADP'
p888
F0.999728
s(lp889
(g160
I14
tp890
atp891
a(S'kol\xc3\xa9giu'
p892
(dp893
S'NOUN'
p894
F1.0
s(lp895
(g185
I16
tp896
atp897
a(S'ako'
p898
(dp899
S'PRON'
p900
F0.002847
sS'CONJ'
p901
F0.996992
sg417
F0.000162
s(lp902
(g193
I17
tp903
atp904
a(S'celku'
p905
(dp906
S'NOUN'
p907
F1.0
s(lp908
(g207
I19
tp909
atp910
a(g117
(dp911
g117
F1.0
s(lp912
(g117
I20
tp913
atp914
asS'pl'
p915
(lp916
(S'to'
p917
(dp918
S'NOUN'
p919
F0.199361
sS'ADP'
p920
F3.3e-05
sS'PRT'
p921
F0.096282
sg417
F4e-06
sS'CONJ'
p922
F0.11495
sS'ADJ'
p923
F0.58937
s(lp924
(g7
I0
tp925
atp926
a(S'bardzo'
p927
(dp928
S'ADV'
p929
F1.0
s(lp930
(g30
I2
tp931
atp932
a(S'\xc5\xbale'
p933
(dp934
S'ADV'
p935
F1.0
s(lp936
(g38
I3
tp937
atp938
a(g115
(dp939
g417
F0.0
sg117
F1.0
s(lp940
tp941
a(S'\xc5\xbce'
p942
(dp943
S'PRT'
p944
F0.00016
sS'CONJ'
p945
F0.999839
s(lp946
(g47
I4
tp947
atp948
a(S'parlament'
p949
(dp950
S'NOUN'
p951
F1.0
s(lp952
(g60
I5
tp953
atp954
a(S'nie'
p955
(dp956
S'ADV'
p957
F1.4e-05
sS'PRT'
p958
F0.986829
sS'CONJ'
p959
F0.013127
sS'NOUN'
p960
F1e-06
sS'PRON'
p961
F2.8e-05
s(lp962
tp963
a(S'mo\xc5\xbce'
p964
(dp965
S'PRT'
p966
F0.045048
sS'VERB'
p967
F0.954952
s(lp968
(g67
I6
tp969
atp970
a(S'g\xc5\x82osowa\xc4\x87'
p971
(dp972
S'VERB'
p973
F1.0
s(lp974
(g86
I7
tp975
atp976
a(S'na'
p977
(dp978
S'PRT'
p979
F0.000405
sS'VERB'
p980
F3.9999999999999996e-05
sS'NOUN'
p981
F3.2e-05
sS'ADP'
p982
F0.999481
sg417
F4.2e-05
s(lp983
(g93
I8
tp984
atp985
a(S'indywidualnych'
p986
(dp987
S'ADJ'
p988
F1.0
s(lp989
(g112
I9
tp990
atp991
a(S'kandydat\xc3\xb3w'
p992
(dp993
S'NOUN'
p994
F1.0
s(lp995
(g105
I10
tp996
atp997
a(g115
(dp998
g417
F0.0
sg117
F1.0
s(lp999
tp1000
a(S'tylko'
p1001
(dp1002
S'PRT'
p1003
F0.536001
sS'CONJ'
p1004
F0.463999
s(lp1005
(g124
I11
tp1006
atp1007
a(S'na'
p1008
(dp1009
S'PRT'
p1010
F3.7e-05
sS'VERB'
p1011
F0.000283
sS'NOUN'
p1012
F9.6e-05
sS'ADP'
p1013
F0.999575
sg417
F1e-05
s(lp1014
(g160
I14
tp1015
atp1016
a(S'ca\xc5\x82e'
p1017
(dp1018
S'ADJ'
p1019
F1.0
s(lp1020
(g207
I19
tp1021
atp1022
a(S'kolegium'
p1023
(dp1024
S'NOUN'
p1025
F1.0
s(lp1026
(g185
I16
tp1027
atp1028
a(g117
(dp1029
g117
F1.0
s(lp1030
(g117
I20
tp1031
atp1032
asS'sl'
p1033
(lp1034
(S'zelo'
p1035
(dp1036
S'ADV'
p1037
F1.0
s(lp1038
(g30
I2
tp1039
atp1040
a(S'narobe'
p1041
(dp1042
S'ADV'
p1043
F0.999679
sS'ADJ'
p1044
F0.000321
s(lp1045
(g38
I3
tp1046
atp1047
a(S'je'
p1048
(dp1049
S'PRON'
p1050
F0.012603
sS'VERB'
p1051
F0.987367
sg417
F3e-05
s(lp1052
(g22
I1
tp1053
atp1054
a(g115
(dp1055
g117
F1.0
s(lp1056
tp1057
a(S'da'
p1058
(dp1059
S'PRT'
p1060
F2.1e-05
sS'CONJ'
p1061
F0.999716
sS'VERB'
p1062
F0.000261
sg417
F1e-06
s(lp1063
(g47
I4
tp1064
atp1065
a(S'parlament'
p1066
(dp1067
S'NOUN'
p1068
F1.0
s(lp1069
(g60
I5
tp1070
atp1071
a(S'ne'
p1072
(dp1073
S'PRT'
p1074
F0.984583
sS'CONJ'
p1075
F0.014828
sg417
F0.000588
s(lp1076
tp1077
a(S'more'
p1078
(dp1079
S'VERB'
p1080
F0.999531
sS'NOUN'
p1081
F0.00047
s(lp1082
(g67
I6
tp1083
atp1084
a(S'glasovati'
p1085
(dp1086
S'VERB'
p1087
F1.0
s(lp1088
(g86
I7
tp1089
atp1090
a(g844
(dp1091
S'NOUN'
p1092
F8e-06
sS'ADP'
p1093
F0.999992
s(lp1094
(g93
I8
tp1095
atp1096
a(S'posameznih'
p1097
(dp1098
S'ADJ'
p1099
F1.0
s(lp1100
(g112
I9
tp1101
atp1102
a(S'komisarjih'
p1103
(dp1104
S'ADV'
p1105
F0.0
sS'ADJ'
p1106
F0.0
sS'VERB'
p1107
F5.999999999999999e-06
sS'NOUN'
p1108
F0.9999960000000001
s(lp1109
(g105
I10
tp1110
atp1111
a(g115
(dp1112
g117
F1.0
s(lp1113
tp1114
a(S'ampak'
p1115
(dp1116
S'CONJ'
p1117
F1.0
s(lp1118
(g124
I11
tp1119
atp1120
a(S'lahko'
p1121
(dp1122
S'ADV'
p1123
F0.999844
sS'ADJ'
p1124
F0.000156
s(lp1125
(g139
I12
tp1126
atp1127
a(S'glasuje'
p1128
(dp1129
S'VERB'
p1130
F1.0
s(lp1131
(g153
I13
tp1132
atp1133
a(g844
(dp1134
S'NOUN'
p1135
F4.9e-05
sS'ADP'
p1136
F0.999951
s(lp1137
(g160
I14
tp1138
atp1139
a(S'kolegiju'
p1140
(dp1141
S'NOUN'
p1142
F1.0
s(lp1143
(g185
I16
tp1144
atp1145
a(S'samo'
p1146
(dp1147
S'PRT'
p1148
F0.999393
sS'ADJ'
p1149
F0.000607
s(lp1150
tp1151
a(S'v'
p1152
(dp1153
S'ADP'
p1154
F1.0
s(lp1155
(g328
I18
tp1156
atp1157
a(S'sve\xc5\xbenju'
p1158
(dp1159
S'NOUN'
p1160
F1.0
s(lp1161
(g207
I19
tp1162
atp1163
a(g117
(dp1164
g117
F1.0
s(lp1165
(g117
I20
tp1166
atp1167
asS'es'
p1168
(lp1169
(S'es'
p1170
(dp1171
S'VERB'
p1172
F1.0
s(lp1173
(g22
I1
tp1174
atp1175
a(S'un'
p1176
(dp1177
g417
F4e-06
sS'DET'
p1178
F0.999996
s(lp1179
(g30
I2
tp1180
atp1181
a(S'error'
p1182
(dp1183
g417
F0.0
sS'NOUN'
p1184
F1.0
s(lp1185
(g38
I3
tp1186
atp1187
a(S'que'
p1188
(dp1189
g417
F0.0
sS'CONJ'
p1190
F1.0
s(lp1191
(g47
I4
tp1192
atp1193
a(S'el'
p1194
(dp1195
S'PRON'
p1196
F0.001998
sS'DET'
p1197
F0.998002
s(lp1198
tp1199
a(S'parlamento'
p1200
(dp1201
S'VERB'
p1202
F0.002324
sS'NOUN'
p1203
F0.997676
s(lp1204
(g60
I5
tp1205
atp1206
a(S'no'
p1207
(dp1208
S'ADV'
p1209
F1.0
sg417
F0.0
s(lp1210
tp1211
a(S'pueda'
p1212
(dp1213
S'VERB'
p1214
F1.0
s(lp1215
(g67
I6
tp1216
atp1217
a(S'votar'
p1218
(dp1219
S'VERB'
p1220
F1.0
s(lp1221
(g86
I7
tp1222
atp1223
a(g328
(dp1224
g417
F0.000259
sS'CONJ'
p1225
F5e-06
sS'ADP'
p1226
F0.999736
s(lp1227
(g93
I8
tp1228
atp1229
a(S'los'
p1230
(dp1231
S'PRON'
p1232
F0.0
sS'DET'
p1233
F1.0
s(lp1234
tp1235
a(S'comisarios'
p1236
(dp1237
S'NOUN'
p1238
F1.0
s(lp1239
(g105
I10
tp1240
atp1241
a(S'individuales'
p1242
(dp1243
S'ADJ'
p1244
F1.0
s(lp1245
(g112
I9
tp1246
atp1247
a(S'y'
p1248
(dp1249
g417
F0.001581
sS'CONJ'
p1250
F0.998419
s(lp1251
(g124
I11
tp1252
atp1253
a(S'tenga'
p1254
(dp1255
S'VERB'
p1256
F1.0
s(lp1257
tp1258
a(S'que'
p1259
(dp1260
S'VERB'
p1261
F1.0
s(lp1262
(g139
I12
tp1263
atp1264
a(S'votar'
p1265
(dp1266
S'VERB'
p1267
F1.0
s(lp1268
(g153
I13
tp1269
atp1270
a(S'al'
p1271
(dp1272
S'CONJ'
p1273
F0.000225
sS'ADP'
p1274
F0.999775
s(lp1275
(g178
I15
tp1276
atp1277
a(S'colegio'
p1278
(dp1279
S'VERB'
p1280
F7e-06
sS'NOUN'
p1281
F0.999993
s(lp1282
(g185
I16
tp1283
atp1284
a(S'en'
p1285
(dp1286
g417
F0.0
sS'CONJ'
p1287
F6e-06
sS'ADP'
p1288
F0.999994
s(lp1289
(g193
I17
tp1290
atp1291
a(S'su'
p1292
(dp1293
S'PRON'
p1294
F1.0
s(lp1295
(g328
I18
tp1296
atp1297
a(S'conjunto'
p1298
(dp1299
S'ADJ'
p1300
F0.018481
sS'NOUN'
p1301
F0.981519
s(lp1302
(g207
I19
tp1303
atp1304
a(g117
(dp1305
g117
F1.0
s(lp1306
(g117
I20
tp1307
atp1308
as.