(dp0
S'fr'
p1
(lp2
(S'soyons'
p3
(dp4
S'VERB'
p5
F1.0
s(lp6
(S'let'
p7
I0
tp8
atp9
a(S'honn\xc3\xaates'
p10
(dp11
S'NOUN'
p12
F0.075125
sS'ADJ'
p13
F0.924875
s(lp14
(S'honest'
p15
I3
tp16
atp17
a(S','
p18
(dp19
S'.'
p20
F1.0
s(lp21
(g18
I4
tp22
atp23
a(S'ce'
p24
(dp25
S'PRON'
p26
F1.0
s(lp27
(S'this'
p28
I5
tp29
atp30
a(S'ne'
p31
(dp32
S'ADV'
p33
F1.0
s(lp34
tp35
a(S'sont'
p36
(dp37
S'VERB'
p38
F1.0
s(lp39
(S'is'
p40
I6
tp41
atp42
a(S'pas'
p43
(dp44
S'ADV'
p45
F0.996535
sS'NOUN'
p46
F0.003465
s(lp47
(S'not'
p48
I7
tp49
atp50
a(S'des'
p51
(dp52
S'DET'
p53
F0.000119
sS'ADP'
p54
F0.999881
s(lp55
(S'the'
p56
I8
tp57
atp58
a(S'choses'
p59
(dp60
S'VERB'
p61
F0.0
sS'NOUN'
p62
F1.0
s(lp63
(S'stuff'
p64
I9
tp65
atp66
a(S'dont'
p67
(dp68
S'PRON'
p69
F1.0
s(lp70
(S'that'
p71
I10
tp72
atp73
a(S'les'
p74
(dp75
S'PRON'
p76
F0.00163
sS'DET'
p77
F0.998365
sS'ADP'
p78
F5e-06
s(lp79
tp80
a(S'gens'
p81
(dp82
S'NOUN'
p83
F1.0
s(lp84
(S'people'
p85
I11
tp86
atp87
a(S'parlent'
p88
(dp89
S'VERB'
p90
F1.0
s(lp91
(S'talk'
p92
I12
tp93
atp94
a(S'dans'
p95
(dp96
S'NOUN'
p97
F3.2e-05
sS'ADP'
p98
F0.999968
s(lp99
(S'in'
p100
I14
tp101
atp102
a(S'les'
p103
(dp104
S'PRON'
p105
F5.6e-05
sS'DET'
p106
F0.999943
sS'ADP'
p107
F2e-06
s(lp108
(S'houses'
p109
I16
tp110
atp111
a(S'caf\xc3\xa9s'
p112
(dp113
S'NOUN'
p114
F1.0
s(lp115
tp116
a(S'ou'
p117
(dp118
S'CONJ'
p119
F1.0
s(lp120
(S'and'
p121
I17
tp122
atp123
a(S'les'
p124
(dp125
S'PRON'
p126
F0.000497
sS'DET'
p127
F0.99949
sS'ADP'
p128
F1.3e-05
s(lp129
(S'social'
p130
I19
tp131
atp132
a(S'r\xc3\xa9ceptions'
p133
(dp134
S'NOUN'
p135
F1.0
s(lp136
(g64
I9
tp137
atp138
a(g20
(dp139
g20
F1.0
s(lp140
(g20
I21
tp141
atp142
asS'en'
p143
(lp144
(g7
(dp145
S'VERB'
p146
F0.998399
sS'NOUN'
p147
F0.001601
s(lp148
(g7
I0
tp149
atp150
a(S'us'
p151
(dp152
S'PRON'
p153
F1.0
s(lp154
(g151
I1
tp155
atp156
a(S'be'
p157
(dp158
S'VERB'
p159
F1.0
s(lp160
(g157
I2
tp161
atp162
a(g15
(dp163
S'ADJ'
p164
F1.0
s(lp165
(g15
I3
tp166
atp167
a(g18
(dp168
g20
F1.0
s(lp169
(g18
I4
tp170
atp171
a(g28
(dp172
S'ADV'
p173
F0.001574
sS'NOUN'
p174
F0.000274
sS'DET'
p175
F0.998152
s(lp176
(g28
I5
tp177
atp178
a(g40
(dp179
S'VERB'
p180
F1.0
s(lp181
(g40
I6
tp182
atp183
a(g48
(dp184
S'ADV'
p185
F1.0
s(lp186
(g48
I7
tp187
atp188
a(g56
(dp189
S'NOUN'
p190
F1e-06
sS'DET'
p191
F0.999999
s(lp192
(g56
I8
tp193
atp194
a(g64
(dp195
S'VERB'
p196
F0.013099000000000001
sS'NOUN'
p197
F0.986901
s(lp198
(g64
I9
tp199
atp200
a(g71
(dp201
S'ADV'
p202
F8.7e-05
sS'DET'
p203
F0.421223
sS'ADP'
p204
F0.57869
s(lp205
(g71
I10
tp206
atp207
a(g85
(dp208
S'VERB'
p209
F4.9e-05
sS'NOUN'
p210
F0.999951
s(lp211
(g85
I11
tp212
atp213
a(g92
(dp214
S'VERB'
p215
F0.940504
sS'NOUN'
p216
F0.059496
s(lp217
(g92
I12
tp218
atp219
a(S'about'
p220
(dp221
S'ADV'
p222
F0.930901
sS'ADP'
p223
F0.069099
s(lp224
(g220
I13
tp225
atp226
a(g100
(dp227
S'ADV'
p228
F0.005101
sS'PRT'
p229
F6e-06
sS'ADP'
p230
F0.994894
s(lp231
(g100
I14
tp232
atp233
a(S'public'
p234
(dp235
S'NOUN'
p236
F0.081506
sS'ADJ'
p237
F0.918494
s(lp238
(g234
I15
tp239
atp240
a(g109
(dp241
S'VERB'
p242
F0.000128
sS'NOUN'
p243
F0.999872
s(lp244
(g109
I16
tp245
atp246
a(g121
(dp247
S'CONJ'
p248
F0.999999
sS'NOUN'
p249
F1e-06
s(lp250
(g121
I17
tp251
atp252
a(S'on'
p253
(dp254
S'ADV'
p255
F0.017095
sS'PRT'
p256
F3.5e-05
sS'ADJ'
p257
F4.8e-05
sS'ADP'
p258
F0.982822
sS'NOUN'
p259
F1e-06
s(lp260
(g253
I18
tp261
atp262
a(g130
(dp263
S'NOUN'
p264
F0.001292
sS'ADJ'
p265
F0.998708
s(lp266
(g130
I19
tp267
atp268
a(S'occasions'
p269
(dp270
S'VERB'
p271
F1.8e-05
sS'NOUN'
p272
F0.999982
s(lp273
(g269
I20
tp274
atp275
a(g20
(dp276
g20
F1.0
s(lp277
(g20
I21
tp278
atp279
asS'nl'
p280
(lp281
(S'wij'
p282
(dp283
S'PRON'
p284
F1.0
s(lp285
(g151
I1
tp286
atp287
a(S'moeten'
p288
(dp289
S'VERB'
p290
F0.9999779999999999
sS'NOUN'
p291
F2.2e-05
s(lp292
(g157
I2
tp293
atp294
a(S'eerlijk'
p295
(dp296
S'ADJ'
p297
F1.0
s(lp298
tp299
a(S'zijn'
p300
(dp301
S'PRON'
p302
F6.5e-05
sS'VERB'
p303
F0.996388
sS'NOUN'
p304
F0.003547
s(lp305
(g15
I3
tp306
atp307
a(S':'
p308
(dp309
g20
F1.0
s(lp310
(g18
I4
tp311
atp312
a(S'dit'
p313
(dp314
S'PRON'
p315
F1.0
s(lp316
(g28
I5
tp317
atp318
a(S'is'
p319
(dp320
S'VERB'
p321
F1.0
s(lp322
(g40
I6
tp323
atp324
a(S'niet'
p325
(dp326
S'ADV'
p327
F0.999998
sS'PRON'
p328
F1e-06
sS'VERB'
p329
F1e-06
sS'X'
p330
F0.0
s(lp331
(g48
I7
tp332
atp333
a(S'waar'
p334
(dp335
S'ADV'
p336
F0.893297
sS'NOUN'
p337
F9e-06
sS'ADJ'
p338
F0.106695
s(lp339
(g71
I10
tp340
atp341
a(S'mensen'
p342
(dp343
S'NOUN'
p344
F1.0
s(lp345
(g85
I11
tp346
atp347
a(S'in'
p348
(dp349
S'ADV'
p350
F0.002974
sS'VERB'
p351
F1e-06
sS'ADP'
p352
F0.997025
s(lp353
(g100
I14
tp354
atp355
a(S'hun'
p356
(dp357
S'PRON'
p358
F1.0
s(lp359
(g234
I15
tp360
atp361
a(S'sociale'
p362
(dp363
S'NOUN'
p364
F3.7e-05
sS'ADJ'
p365
F0.999963
s(lp366
(g130
I19
tp367
atp368
a(S'leven'
p369
(dp370
S'VERB'
p371
F0.030335
sS'NOUN'
p372
F0.969665
s(lp373
(g269
I20
tp374
atp375
a(S'over'
p376
(dp377
S'ADV'
p378
F0.90864
sS'ADP'
p379
F0.09136
s(lp380
(g220
I13
tp381
atp382
a(S'praten'
p383
(dp384
S'VERB'
p385
F0.912559
sS'NOUN'
p386
F0.087442
s(lp387
(g92
I12
tp388
atp389
a(g20
(dp390
g20
F1.0
s(lp391
(g20
I21
tp392
atp393
asS'de'
p394
(lp395
(S'wir'
p396
(dp397
S'PRON'
p398
F1.0
s(lp399
tp400
a(S'wollen'
p401
(dp402
S'VERB'
p403
F1.0
s(lp404
(g7
I0
tp405
atp406
a(S'aufrichtig'
p407
(dp408
S'ADJ'
p409
F1.0
s(lp410
(g15
I3
tp411
atp412
a(S'sein'
p413
(dp414
S'VERB'
p415
F0.999936
s(lp416
(g157
I2
tp417
atp418
a(g18
(dp419
g20
F1.0
s(lp420
(g18
I4
tp421
atp422
a(S'dies'
p423
(dp424
S'PRON'
p425
F1.0
s(lp426
(g28
I5
tp427
atp428
a(S'ist'
p429
(dp430
S'VERB'
p431
F1.0
s(lp432
(g40
I6
tp433
atp434
a(S'kein'
p435
(dp436
S'PRON'
p437
F1.0
s(lp438
(g48
I7
tp439
atp440
a(S'thema'
p441
(dp442
S'ADJ'
p443
F0.0006
sS'NOUN'
p444
F0.999199
s(lp445
(g64
I9
tp446
atp447
a(g18
(dp448
g20
F1.0
s(lp449
tp450
a(S'\xc3\xbcber'
p451
(dp452
S'PRT'
p453
F7.2e-05
sS'ADP'
p454
F0.999928
s(lp455
(g220
I13
tp456
atp457
a(S'das'
p458
(dp459
S'PRON'
p460
F0.680662
sS'DET'
p461
F0.305962
s(lp462
(g71
I10
tp463
atp464
a(S'die'
p465
(dp466
S'PRON'
p467
F0.001693
sS'DET'
p468
F0.996642
s(lp469
tp470
a(S'menschen'
p471
(dp472
S'ADJ'
p473
F1.0
s(lp474
(g85
I11
tp475
atp476
a(S'in'
p477
(dp478
S'ADP'
p479
F1.0
s(lp480
(g100
I14
tp481
atp482
a(S'kneipen'
p483
(dp484
S'ADJ'
p485
F0.002553
sS'NOUN'
p486
F0.996961
s(lp487
(g109
I16
tp488
atp489
a(S'oder'
p490
(dp491
S'CONJ'
p492
F1.0
s(lp493
(g121
I17
tp494
atp495
a(S'bei'
p496
(dp497
S'PRT'
p498
F0.0
sS'ADP'
p499
F1.0
s(lp500
(g253
I18
tp501
atp502
a(S'gesellschaftlichen'
p503
(dp504
S'ADJ'
p505
F1.0
s(lp506
(g130
I19
tp507
atp508
a(S'anl\xc3\xa4ssen'
p509
(dp510
S'VERB'
p511
F0.008656
sS'NOUN'
p512
F0.988719
s(lp513
(g269
I20
tp514
atp515
a(S'sprechen'
p516
(dp517
S'VERB'
p518
F1.0
s(lp519
(g92
I12
tp520
atp521
a(g20
(dp522
g20
F1.0
s(lp523
(g20
I21
tp524
atp525
asS'it'
p526
(lp527
(S'siamo'
p528
(dp529
S'VERB'
p530
F0.9999999999999999
s(lp531
(g7
I0
tp532
atp533
a(S'onesti'
p534
(dp535
S'NOUN'
p536
F0.05754
sS'ADJ'
p537
F0.94246
s(lp538
(g15
I3
tp539
atp540
a(g18
(dp541
g20
F1.0
s(lp542
(g18
I4
tp543
atp544
a(S'queste'
p545
(dp546
S'PRON'
p547
F1.0
s(lp548
(g28
I5
tp549
atp550
a(S'non'
p551
(dp552
S'ADV'
p553
F1.0
s(lp554
(g48
I7
tp555
atp556
a(S'sono'
p557
(dp558
S'VERB'
p559
F0.999932
sS'NOUN'
p560
F6.8e-05
s(lp561
(g40
I6
tp562
atp563
a(S'le'
p564
(dp565
S'PRON'
p566
F0.0
sS'DET'
p567
F1.0
s(lp568
(g56
I8
tp569
atp570
a(S'cose'
p571
(dp572
S'VERB'
p573
F3e-06
sS'NOUN'
p574
F0.999997
s(lp575
(g64
I9
tp576
atp577
a(S'di'
p578
(dp579
S'CONJ'
p580
F0.000108
sS'ADP'
p581
F0.999892
s(lp582
tp583
a(S'cui'
p584
(dp585
S'PRON'
p586
F1.0
s(lp587
(g71
I10
tp588
atp589
a(S'le'
p590
(dp591
S'PRON'
p592
F0.000374
sS'DET'
p593
F0.999626
s(lp594
tp595
a(S'persone'
p596
(dp597
S'NOUN'
p598
F1.0
s(lp599
(g85
I11
tp600
atp601
a(S'parlano'
p602
(dp603
S'VERB'
p604
F1.0
s(lp605
(g92
I12
tp606
atp607
a(S'in'
p608
(dp609
S'ADP'
p610
F1.0
s(lp611
(g100
I14
tp612
atp613
a(S'pubblico'
p614
(dp615
S'NOUN'
p616
F0.463393
sS'VERB'
p617
F2e-06
sS'ADJ'
p618
F0.536605
s(lp619
(g234
I15
tp620
atp621
a(S'o'
p622
(dp623
g330
F3e-06
sS'CONJ'
p624
F0.999997
s(lp625
(g121
I17
tp626
atp627
a(S'in'
p628
(dp629
S'ADP'
p630
F1.0
s(lp631
(g253
I18
tp632
atp633
a(S'occasioni'
p634
(dp635
S'VERB'
p636
F0.007131
sS'NOUN'
p637
F0.99287
s(lp638
(g269
I20
tp639
atp640
a(S'sociali'
p641
(dp642
S'ADJ'
p643
F1.0
s(lp644
(g130
I19
tp645
atp646
a(g20
(dp647
g20
F1.0
s(lp648
(g20
I21
tp649
atp650
asS'sk'
p651
(lp652
(S'bu\xc4\x8fme'
p653
(dp654
S'VERB'
p655
F1.0
s(lp656
(g7
I0
tp657
atp658
a(S'\xc3\xbaprimn\xc3\xad'
p659
(dp660
S'ADJ'
p661
F1.0
s(lp662
(g15
I3
tp663
atp664
a(g18
(dp665
g20
F1.0
s(lp666
(g18
I4
tp667
atp668
a(S'\xc4\xbeudia'
p669
(dp670
S'NOUN'
p671
F1.0
s(lp672
(g85
I11
tp673
atp674
a(S'sa'
p675
(dp676
S'PRT'
p677
F0.99996
sS'ADP'
p678
F0.0
sg330
F4e-05
s(lp679
(g40
I6
tp680
atp681
a(g622
(dp682
g330
F6.3e-05
sS'CONJ'
p683
F1.2e-05
sS'NOUN'
p684
F2e-06
sS'ADP'
p685
F0.999923
s(lp686
(g220
I13
tp687
atp688
a(S'tejto'
p689
(dp690
S'PRON'
p691
F1.0
s(lp692
(g56
I8
tp693
atp694
a(S'problematike'
p695
(dp696
S'NOUN'
p697
F1.0
s(lp698
tp699
a(S'nerozpr\xc3\xa1vaj\xc3\xba'
p700
(dp701
S'VERB'
p702
F1.0
s(lp703
(g64
I9
tp704
atp705
a(S'na'
p706
(dp707
g330
F0.00016099999999999998
sS'CONJ'
p708
F7e-06
sS'ADP'
p709
F0.999828
sS'PRT'
p710
F4e-06
s(lp711
(g100
I14
tp712
atp713
a(S'verejnosti'
p714
(dp715
S'NOUN'
p716
F1.0
s(lp717
(g234
I15
tp718
atp719
a(S'alebo'
p720
(dp721
g330
F0.000201
sS'CONJ'
p722
F0.999799
s(lp723
(g121
I17
tp724
atp725
a(S'pri'
p726
(dp727
g330
F5.7e-05
sS'VERB'
p728
F1e-06
sS'ADP'
p729
F0.999942
s(lp730
(g253
I18
tp731
atp732
a(S'spolo\xc4\x8densk\xc3\xbdch'
p733
(dp734
S'ADJ'
p735
F1.0
s(lp736
(g130
I19
tp737
atp738
a(S'udalostiach'
p739
(dp740
S'NOUN'
p741
F1.0
s(lp742
(g269
I20
tp743
atp744
a(g20
(dp745
g20
F1.0
s(lp746
(g20
I21
tp747
atp748
asS'pl'
p749
(lp750
(S'b\xc4\x85d\xc5\xbamy'
p751
(dp752
S'ADV'
p753
F0.002469
sS'ADJ'
p754
F0.020136
sS'VERB'
p755
F0.8646260000000001
sS'NOUN'
p756
F0.11276700000000003
s(lp757
(g7
I0
tp758
atp759
a(S'jednak'
p760
(dp761
S'PRT'
p762
F0.171697
sS'CONJ'
p763
F0.828303
s(lp764
(g157
I2
tp765
atp766
a(S'uczciwi'
p767
(dp768
S'ADJ'
p769
F1.0
s(lp770
(g15
I3
tp771
atp772
a(g18
(dp773
g330
F0.0
sg20
F1.0
s(lp774
(g18
I4
tp775
atp776
a(S'to'
p777
(dp778
S'NOUN'
p779
F0.23824800000000002
sS'ADP'
p780
F4e-06
sS'PRT'
p781
F0.097752
sg330
F0.0001
sS'CONJ'
p782
F0.24534
sS'ADJ'
p783
F0.418556
s(lp784
(g28
I5
tp785
atp786
a(S'nie'
p787
(dp788
S'ADV'
p789
F1.7e-05
sS'PRT'
p790
F0.997489
sS'CONJ'
p791
F0.002479
sS'NOUN'
p792
F8e-06
sS'PRON'
p793
F9e-06
s(lp794
(g48
I7
tp795
atp796
a(S'jest'
p797
(dp798
S'VERB'
p799
F1.0
s(lp800
(g40
I6
tp801
atp802
a(S'temat'
p803
(dp804
S'NOUN'
p805
F1.0
s(lp806
(g220
I13
tp807
atp808
a(S'rozm\xc3\xb3w'
p809
(dp810
S'NOUN'
p811
F1.0
s(lp812
(g92
I12
tp813
atp814
a(S'ludzi'
p815
(dp816
S'NOUN'
p817
F1.0
s(lp818
(g85
I11
tp819
atp820
a(S'w'
p821
(dp822
S'NOUN'
p823
F0.0
sS'ADJ'
p824
F0.0
sS'ADP'
p825
F0.999999
sg330
F0.0
s(lp826
(g100
I14
tp827
atp828
a(S'pubach'
p829
(dp830
S'ADV'
p831
F2.1e-05
sS'ADJ'
p832
F0.001878
sS'VERB'
p833
F0.0
sS'NOUN'
p834
F0.9980990000000002
s(lp835
(g109
I16
tp836
atp837
a(S'i'
p838
(dp839
S'PRT'
p840
F0.010031
sS'CONJ'
p841
F0.989802
sS'NOUN'
p842
F0.000104
sg330
F2e-05
sS'PRON'
p843
F4.3e-05
s(lp844
(g121
I17
tp845
atp846
a(S'przy'
p847
(dp848
S'VERB'
p849
F1.3e-05
sS'ADP'
p850
F0.999987
s(lp851
tp852
a(S'okazji'
p853
(dp854
S'NOUN'
p855
F1.0
s(lp856
(g269
I20
tp857
atp858
a(S'spotka\xc5\x84'
p859
(dp860
S'NOUN'
p861
F1.0
s(lp862
tp863
a(S'towarzyskich'
p864
(dp865
S'ADJ'
p866
F1.0
s(lp867
(g64
I9
tp868
atp869
a(g20
(dp870
g20
F1.0
s(lp871
(g20
I21
tp872
atp873
asS'sl'
p874
(lp875
(S'\xc4\x8ce'
p876
(dp877
S'CONJ'
p878
F1.0
s(lp879
(g7
I0
tp880
atp881
a(S'smo'
p882
(dp883
g330
F8e-06
sS'VERB'
p884
F0.999992
s(lp885
(g151
I1
tp886
atp887
a(S'odkriti'
p888
(dp889
S'VERB'
p890
F0.470785
sS'ADJ'
p891
F0.529215
s(lp892
(g15
I3
tp893
atp894
a(g18
(dp895
g20
F1.0
s(lp896
(g18
I4
tp897
atp898
a(S'to'
p899
(dp900
S'PRON'
p901
F0.99999
sg330
F1e-05
s(lp902
(g28
I5
tp903
atp904
a(S'ni'
p905
(dp906
S'VERB'
p907
F1.0
s(lp908
(g48
I7
tp909
atp910
a(S'stvar'
p911
(dp912
S'NOUN'
p913
F1.0
s(lp914
(g64
I9
tp915
atp916
a(g18
(dp917
g20
F1.0
s(lp918
tp919
a(g622
(dp920
S'NOUN'
p921
F4.5e-05
sS'ADP'
p922
F0.999955
s(lp923
(g220
I13
tp924
atp925
a(S'kateri'
p926
(dp927
S'PRON'
p928
F1.000001
s(lp929
(g71
I10
tp930
atp931
a(S'bi'
p932
(dp933
g330
F0.000561
sS'VERB'
p934
F0.999439
s(lp935
(g157
I2
tp936
atp937
a(S'ljudje'
p938
(dp939
S'NOUN'
p940
F1.0
s(lp941
(g85
I11
tp942
atp943
a(S'govorili'
p944
(dp945
S'VERB'
p946
F1.0
s(lp947
(g92
I12
tp948
atp949
a(S'v'
p950
(dp951
S'ADP'
p952
F1.0
s(lp953
(g100
I14
tp954
atp955
a(S'javnih'
p956
(dp957
S'ADJ'
p958
F1.0
s(lp959
(g234
I15
tp960
atp961
a(S'prostorih'
p962
(dp963
S'NOUN'
p964
F1.0
s(lp965
(g109
I16
tp966
atp967
a(S'in'
p968
(dp969
S'ADV'
p970
F0.000371
sg330
F1.4e-05
sS'CONJ'
p971
F0.999547
sS'NOUN'
p972
F6.7e-05
s(lp973
(g121
I17
tp974
atp975
a(S'od'
p976
(dp977
S'ADP'
p978
F1.0
s(lp979
(g253
I18
tp980
atp981
a(S'dru\xc5\xbeabnih'
p982
(dp983
S'ADJ'
p984
F1.0
s(lp985
(g130
I19
tp986
atp987
a(S'prilo\xc5\xbenostih'
p988
(dp989
S'NOUN'
p990
F1.0
s(lp991
(g269
I20
tp992
atp993
a(g20
(dp994
g20
F1.0
s(lp995
(g20
I21
tp996
atp997
asS'es'
p998
(lp999
(S'seamos'
p1000
(dp1001
S'VERB'
p1002
F1.0
s(lp1003
(g7
I0
tp1004
atp1005
a(S'sinceros'
p1006
(dp1007
S'ADJ'
p1008
F1.0
s(lp1009
(g15
I3
tp1010
atp1011
a(g18
(dp1012
g20
F1.0
s(lp1013
(g18
I4
tp1014
atp1015
a(S'esto'
p1016
(dp1017
S'PRON'
p1018
F1.0
s(lp1019
(g28
I5
tp1020
atp1021
a(S'no'
p1022
(dp1023
S'ADV'
p1024
F1.0
sg330
F0.0
s(lp1025
(g48
I7
tp1026
atp1027
a(S'es'
p1028
(dp1029
S'VERB'
p1030
F1.0
s(lp1031
(g40
I6
tp1032
atp1033
a(S'de'
p1034
(dp1035
g330
F0.0
sS'CONJ'
p1036
F1.2e-05
sS'ADP'
p1037
F0.999988
s(lp1038
tp1039
a(S'lo'
p1040
(dp1041
S'PRON'
p1042
F1e-06
sS'DET'
p1043
F0.999999
s(lp1044
(g64
I9
tp1045
atp1046
a(S'que'
p1047
(dp1048
g330
F2e-06
sS'CONJ'
p1049
F0.999998
s(lp1050
(g71
I10
tp1051
atp1052
a(S'habla'
p1053
(dp1054
S'VERB'
p1055
F0.999938
sS'NOUN'
p1056
F6.2e-05
s(lp1057
(g92
I12
tp1058
atp1059
a(S'la'
p1060
(dp1061
g330
F0.0
sS'PRON'
p1062
F0.0
sS'DET'
p1063
F1.0
sS'NOUN'
p1064
F0.0
s(lp1065
(g220
I13
tp1066
atp1067
a(S'gente'
p1068
(dp1069
S'NOUN'
p1070
F1.0
s(lp1071
(g85
I11
tp1072
atp1073
a(S'en'
p1074
(dp1075
g330
F0.0
sS'CONJ'
p1076
F0.0
sS'ADP'
p1077
F1.0
s(lp1078
(g100
I14
tp1079
atp1080
a(S'los'
p1081
(dp1082
S'PRON'
p1083
F0.0
sS'DET'
p1084
F1.0
s(lp1085
(g234
I15
tp1086
atp1087
a(S'bares'
p1088
(dp1089
S'NOUN'
p1090
F1.0
s(lp1091
(g109
I16
tp1092
atp1093
a(S'y'
p1094
(dp1095
g330
F0.001029
sS'CONJ'
p1096
F0.998971
s(lp1097
(g121
I17
tp1098
atp1099
a(S'en'
p1100
(dp1101
g330
F0.0
sS'CONJ'
p1102
F0.0
sS'ADP'
p1103
F1.0
s(lp1104
(g253
I18
tp1105
atp1106
a(S'los'
p1107
(dp1108
S'PRON'
p1109
F0.0
sS'DET'
p1110
F1.0
s(lp1111
(g56
I8
tp1112
atp1113
a(S'actos'
p1114
(dp1115
S'NOUN'
p1116
F1.0
s(lp1117
(g269
I20
tp1118
atp1119
a(S'sociales'
p1120
(dp1121
S'ADJ'
p1122
F1.0
s(lp1123
(g130
I19
tp1124
atp1125
a(g20
(dp1126
g20
F1.0
s(lp1127
(g20
I21
tp1128
atp1129
as.