(dp0
S'fr'
p1
(lp2
(S'cela'
p3
(dp4
S'PRON'
p5
F0.999865
sS'VERB'
p6
F0.000135
s(lp7
(S'that'
p8
I0
tp9
atp10
a(S"m'"
p11
(dp12
S'ADJ'
p13
F0.022139
sS'VERB'
p14
F0.5640379999999998
sS'NOUN'
p15
F0.413822
s(lp16
(S'me'
p17
I4
tp18
atp19
a(S'a'
p20
(dp21
S'VERB'
p22
F1.0
s(lp23
(S'did'
p24
I1
tp25
atp26
a(S'plut\xc3\xb4t'
p27
(dp28
S'ADV'
p29
F1.0
s(lp30
(S'rather'
p31
I2
tp32
atp33
a(S'd\xc3\xa9\xc3\xa7u'
p34
(dp35
S'VERB'
p36
F0.745627
sS'ADJ'
p37
F0.254373
s(lp38
(S'disappoint'
p39
I3
tp40
atp41
a(S','
p42
(dp43
S'.'
p44
F1.0
s(lp45
(g42
I5
tp46
atp47
a(S'je'
p48
(dp49
S'PRON'
p50
F1.0
s(lp51
(S'i'
p52
I6
tp53
atp54
a(S'dois'
p55
(dp56
S'VERB'
p57
F1.0
s(lp58
(S'must'
p59
I7
tp60
atp61
a(S'dire'
p62
(dp63
S'VERB'
p64
F0.98784
sS'NOUN'
p65
F0.01216
s(lp66
(S'say'
p67
I8
tp68
atp69
a(g44
(dp70
g44
F1.0
s(lp71
(g44
I9
tp72
atp73
asS'en'
p74
(lp75
(g8
(dp76
S'ADV'
p77
F0.024997
sS'DET'
p78
F0.974919
sS'ADP'
p79
F8.4e-05
s(lp80
(g8
I0
tp81
atp82
a(g24
(dp83
S'VERB'
p84
F1.0
s(lp85
(g24
I1
tp86
atp87
a(g31
(dp88
S'ADV'
p89
F0.999999
sS'ADJ'
p90
F1e-06
s(lp91
(g31
I2
tp92
atp93
a(g39
(dp94
S'VERB'
p95
F1.0
s(lp96
(g39
I3
tp97
atp98
a(g17
(dp99
S'PRON'
p100
F0.996903
sS'X'
p101
F0.003097
s(lp102
(g17
I4
tp103
atp104
a(g42
(dp105
g44
F1.0
s(lp106
(g42
I5
tp107
atp108
a(g52
(dp109
g101
F0.177708
sS'NOUN'
p110
F0.822292
s(lp111
(g52
I6
tp112
atp113
a(g59
(dp114
S'VERB'
p115
F0.999999
sS'NOUN'
p116
F1e-06
s(lp117
(g59
I7
tp118
atp119
a(g67
(dp120
S'ADV'
p121
F8.8e-05
sS'VERB'
p122
F0.9999049999999999
sS'NOUN'
p123
F6e-06
s(lp124
(g67
I8
tp125
atp126
a(g44
(dp127
g44
F1.0
s(lp128
(g44
I9
tp129
atp130
asS'nl'
p131
(lp132
(S'dat'
p133
(dp134
S'PRON'
p135
F0.597317
sS'CONJ'
p136
F0.402683
s(lp137
(g8
I0
tp138
atp139
a(S'heeft'
p140
(dp141
S'VERB'
p142
F1.0
s(lp143
(g24
I1
tp144
atp145
a(S'me'
p146
(dp147
S'PRON'
p148
F1.0
s(lp149
(g17
I4
tp150
atp151
a(S'toch'
p152
(dp153
S'ADV'
p154
F1.0
s(lp155
(g59
I7
tp156
atp157
a(S'wat'
p158
(dp159
S'ADV'
p160
F0.481348
sS'PRON'
p161
F0.518652
s(lp162
(g31
I2
tp163
atp164
a(S'teleurgesteld'
p165
(dp166
S'VERB'
p167
F1.0
s(lp168
(g39
I3
tp169
atp170
a(g44
(dp171
g44
F1.0
s(lp172
(g44
I9
tp173
atp174
asS'de'
p175
(lp176
(S'das'
p177
(dp178
S'PRON'
p179
F0.99851
sS'DET'
p180
F0.001372
s(lp181
(g8
I0
tp182
atp183
a(S'hat'
p184
(dp185
S'VERB'
p186
F1.0
s(lp187
(g24
I1
tp188
atp189
a(S'mich'
p190
(dp191
S'PRON'
p192
F1.0
s(lp193
(g17
I4
tp194
atp195
a(S'doch'
p196
(dp197
S'ADV'
p198
F0.903491
sS'CONJ'
p199
F0.096509
s(lp200
tp201
a(S'etwas'
p202
(dp203
S'ADV'
p204
F0.763869
sS'PRON'
p205
F0.218339
s(lp206
(g31
I2
tp207
atp208
a(S'entt\xc3\xa4uscht'
p209
(dp210
S'VERB'
p211
F0.433182
sS'ADJ'
p212
F0.509292
s(lp213
(g39
I3
tp214
atp215
a(g44
(dp216
g44
F1.0
s(lp217
(g44
I9
tp218
atp219
asS'it'
p220
(lp221
(S'mi'
p222
(dp223
S'PRON'
p224
F1.0
s(lp225
(g17
I4
tp226
atp227
a(S'ha'
p228
(dp229
S'VERB'
p230
F1.0
s(lp231
(g24
I1
tp232
atp233
a(S'un'
p234
(dp235
S'PRON'
p236
F0.131833
sS'DEF'
p237
F0.868167
s(lp238
tp239
a(S'po'
p240
(dp241
S'NOUN'
p242
F0.294681
sS'VERB'
p243
F0.13908399999999999
sS'ADJ'
p244
F0.566235
s(lp245
(g31
I2
tp246
atp247
a(S"'"
p248
(dp249
g44
F1.0
s(lp250
tp251
a(S'deluso'
p252
(dp253
S'NOUN'
p254
F0.012472
sS'VERB'
p255
F0.955053
sS'ADJ'
p256
F0.032475
s(lp257
tp258
a(S'questo'
p259
(dp260
S'PRON'
p261
F1.0
s(lp262
(g8
I0
tp263
atp264
a(S'atteggiamento'
p265
(dp266
S'NOUN'
p267
F1.0
s(lp268
(g39
I3
tp269
atp270
a(g42
(dp271
g44
F1.0
s(lp272
(g42
I5
tp273
atp274
a(S'devo'
p275
(dp276
S'VERB'
p277
F1.0
s(lp278
(g59
I7
tp279
atp280
a(S'ammettere'
p281
(dp282
S'VERB'
p283
F1.0
s(lp284
(g67
I8
tp285
atp286
a(g44
(dp287
g44
F1.0
s(lp288
(g44
I9
tp289
atp290
asS'sk'
p291
(lp292
(S'mus\xc3\xadm'
p293
(dp294
S'VERB'
p295
F1.0
s(lp296
(g59
I7
tp297
atp298
a(S'poveda\xc5\xa5'
p299
(dp300
S'VERB'
p301
F1.0
s(lp302
(g67
I8
tp303
atp304
a(g42
(dp305
g44
F1.0
s(lp306
(g42
I5
tp307
atp308
a(S'\xc5\xbee'
p309
(dp310
g101
F0.00036100000000000005
sS'CONJ'
p311
F0.99964
s(lp312
(g8
I0
tp313
atp314
a(S'ma'
p315
(dp316
S'PRON'
p317
F0.989376
sS'VERB'
p318
F0.005121
sS'ADP'
p319
F0.005498
sg101
F5e-06
s(lp320
(g17
I4
tp321
atp322
a(S'to'
p323
(dp324
S'PRON'
p325
F0.9346450000000001
sS'CONJ'
p326
F0.008614
sg101
F0.056742
s(lp327
(g24
I1
tp328
atp329
a(S'dos\xc5\xa5'
p330
(dp331
S'ADV'
p332
F0.781802
sg101
F0.101569
sS'NUM'
p333
F0.116629
s(lp334
(g31
I2
tp335
atp336
a(S'sklamalo'
p337
(dp338
S'VERB'
p339
F1.0
s(lp340
(g39
I3
tp341
atp342
a(g44
(dp343
g44
F1.0
s(lp344
(g44
I9
tp345
atp346
asS'pl'
p347
(lp348
(S'musz\xc4\x99'
p349
(dp350
S'VERB'
p351
F1.0
s(lp352
(g59
I7
tp353
atp354
a(S'powiedzie\xc4\x87'
p355
(dp356
S'VERB'
p357
F1.0
s(lp358
(g67
I8
tp359
atp360
a(g42
(dp361
g101
F0.0
sg44
F1.0
s(lp362
(g42
I5
tp363
atp364
a(S'\xc5\xbce'
p365
(dp366
S'PRT'
p367
F6.1e-05
sS'CONJ'
p368
F0.999939
s(lp369
(g8
I0
tp370
atp371
a(S'ich'
p372
(dp373
S'PRON'
p374
F0.999992
sg101
F9e-06
s(lp375
(g39
I3
tp376
atp377
a(S'postawa'
p378
(dp379
S'NOUN'
p380
F1.0
s(lp381
tp382
a(S'mnie'
p383
(dp384
S'PRON'
p385
F1.0000010000000004
s(lp386
(g17
I4
tp387
atp388
a(S'rozczarowa\xc5\x82a'
p389
(dp390
S'VERB'
p391
F1.0
s(lp392
(g39
I3
tp393
atp394
a(g44
(dp395
g44
F1.0
s(lp396
(g44
I9
tp397
atp398
asS'sl'
p399
(lp400
(S'moram'
p401
(dp402
S'VERB'
p403
F1.0
s(lp404
(g59
I7
tp405
atp406
a(S're\xc4\x8di'
p407
(dp408
S'VERB'
p409
F0.932094
sS'NOUN'
p410
F0.067907
s(lp411
(g67
I8
tp412
atp413
a(g42
(dp414
g44
F1.0
s(lp415
(g42
I5
tp416
atp417
a(S'da'
p418
(dp419
S'PRT'
p420
F2e-06
sS'CONJ'
p421
F0.999944
sS'VERB'
p422
F5.3e-05
sg101
F1e-06
s(lp423
(g8
I0
tp424
atp425
a(S'me'
p426
(dp427
S'PRON'
p428
F0.999996
sg101
F3e-06
s(lp429
(g17
I4
tp430
atp431
a(S'je'
p432
(dp433
S'PRON'
p434
F2.6e-05
sS'VERB'
p435
F0.999973
sg101
F0.0
s(lp436
tp437
a(S'to'
p438
(dp439
S'PRON'
p440
F0.999995
sg101
F4e-06
s(lp441
(g24
I1
tp442
atp443
a(S'precej'
p444
(dp445
S'ADV'
p446
F1.0
s(lp447
(g31
I2
tp448
atp449
a(S'razo\xc4\x8daralo'
p450
(dp451
S'ADV'
p452
F0.001276
sS'ADJ'
p453
F0.071203
sS'VERB'
p454
F0.7178580000000001
sS'NOUN'
p455
F0.209665
s(lp456
(g39
I3
tp457
atp458
a(g44
(dp459
g44
F1.0
s(lp460
(g44
I9
tp461
atp462
asS'es'
p463
(lp464
(S'tengo'
p465
(dp466
S'VERB'
p467
F1.0
s(lp468
(g52
I6
tp469
atp470
a(S'que'
p471
(dp472
g101
F0.0
sS'CONJ'
p473
F1.0
s(lp474
(g59
I7
tp475
atp476
a(S'decir'
p477
(dp478
S'VERB'
p479
F1.0
s(lp480
(g67
I8
tp481
atp482
a(S'que'
p483
(dp484
g101
F0.0
sS'CONJ'
p485
F1.0
s(lp486
(g8
I0
tp487
atp488
a(S'es'
p489
(dp490
S'VERB'
p491
F1.0
s(lp492
(g24
I1
tp493
atp494
a(S'algo'
p495
(dp496
S'ADJ'
p497
F1.0
s(lp498
tp499
a(S'que'
p500
(dp501
g101
F0.0
sS'CONJ'
p502
F1.0
s(lp503
tp504
a(S'me'
p505
(dp506
S'PRON'
p507
F1.0
sS'NOUN'
p508
F0.0
s(lp509
(g17
I4
tp510
atp511
a(S'desagrada'
p512
(dp513
S'VERB'
p514
F1.0
s(lp515
(g39
I3
tp516
atp517
a(S'bastante'
p518
(dp519
S'ADV'
p520
F0.946023
sS'ADJ'
p521
F0.053977
s(lp522
(g31
I2
tp523
atp524
a(g44
(dp525
g44
F1.0
s(lp526
(g44
I9
tp527
atp528
as.