(dp0
S'fr'
p1
(lp2
(S'\xc3\x89tant'
p3
(dp4
S'VERB'
p5
F0.990723
sS'NOUN'
p6
F0.009277
s(lp7
(S'given'
p8
I0
tp9
atp10
a(S'donn\xc3\xa9'
p11
(dp12
S'NOUN'
p13
F0.00462
sS'VERB'
p14
F0.987248
sS'ADJ'
p15
F0.008132
s(lp16
(g8
I0
tp17
atp18
a(S'le'
p19
(dp20
S'PRON'
p21
F0.060841
sS'DET'
p22
F0.939159
s(lp23
(S'the'
p24
I5
tp25
atp26
a(S'fait'
p27
(dp28
S'ADJ'
p29
F0.022387
sS'VERB'
p30
F0.062332
sS'NOUN'
p31
F0.915281
s(lp32
tp33
a(S'que'
p34
(dp35
S'ADV'
p36
F0.054899
sS'PRON'
p37
F0.197852
sS'CONJ'
p38
F0.747249
s(lp39
(S'that'
p40
I1
tp41
atp42
a(S"j'"
p43
(dp44
S'ADJ'
p45
F0.395697
sS'VERB'
p46
F0.048556
sS'NOUN'
p47
F0.553643
sS'X'
p48
F0.002104
s(lp49
(S'i'
p50
I2
tp51
atp52
a(S'ai'
p53
(dp54
S'VERB'
p55
F1.0
s(lp56
(S'was'
p57
I3
tp58
atp59
a(S'\xc3\xa9galement'
p60
(dp61
S'ADV'
p62
F1.0
s(lp63
(S'also'
p64
I4
tp65
atp66
a(S'\xc3\xa9t\xc3\xa9'
p67
(dp68
S'VERB'
p69
F0.98023
sS'NOUN'
p70
F0.01977
s(lp71
(g8
I0
tp72
atp73
a(S'rapporteur'
p74
(dp75
S'NOUN'
p76
F0.240861
sS'ADJ'
p77
F0.759139
s(lp78
(S'rapporteur'
p79
I6
tp80
atp81
a(S'pour'
p82
(dp83
S'CONJ'
p84
F0.235773
sS'ADP'
p85
F0.764227
s(lp86
(S'for'
p87
I7
tp88
atp89
a(S'le'
p90
(dp91
S'PRON'
p92
F0.000482
sS'DET'
p93
F0.999518
s(lp94
(S'the'
p95
I8
tp96
atp97
a(S'seul'
p98
(dp99
S'NOUN'
p100
F0.082801
sS'ADJ'
p101
F0.917199
s(lp102
(S'only'
p103
I9
tp104
atp105
a(S'rapport'
p106
(dp107
S'NOUN'
p108
F1.0
s(lp109
tp110
a(S'\xc3\xa9labor\xc3\xa9'
p111
(dp112
S'VERB'
p113
F1.0
s(lp114
(S'report'
p115
I10
tp116
atp117
a(S'par'
p118
(dp119
S'NOUN'
p120
F0.0
sS'ADP'
p121
F1.0
s(lp122
(S'by'
p123
I11
tp124
atp125
a(S'une'
p126
(dp127
S'NOUN'
p128
F1.8e-05
sS'NUM'
p129
F0.024699
sS'DET'
p130
F0.975283
s(lp131
(S'a'
p132
I12
tp133
atp134
a(S'institution'
p135
(dp136
S'NOUN'
p137
F1.0
s(lp138
(S'institution'
p139
I14
tp140
atp141
a(S'europ\xc3\xa9enne'
p142
(dp143
S'NOUN'
p144
F0.017216
sS'ADJ'
p145
F0.982784
s(lp146
(S'european'
p147
I13
tp148
atp149
a(S'sur'
p150
(dp151
S'ADP'
p152
F1.0
s(lp153
(S'on'
p154
I15
tp155
atp156
a(S'le'
p157
(dp158
S'PRON'
p159
F6.2e-05
sS'DET'
p160
F0.999938
s(lp161
(S'the'
p162
I16
tp163
atp164
a(S'th\xc3\xa8me'
p165
(dp166
S'NOUN'
p167
F1.0
s(lp168
(S'subject'
p169
I17
tp170
atp171
a(S'des'
p172
(dp173
S'DET'
p174
F2.1e-05
sS'ADP'
p175
F0.999979
s(lp176
(S'of'
p177
I18
tp178
atp179
a(S'tremblements'
p180
(dp181
S'NOUN'
p182
F1.0
s(lp183
(S'earthquakes'
p184
I19
tp185
atp186
a(S'de'
p187
(dp188
S'ADP'
p189
F1.0
s(lp190
tp191
a(S'terre'
p192
(dp193
S'VERB'
p194
F2e-05
sS'NOUN'
p195
F0.99998
s(lp196
(g184
I19
tp197
atp198
a(S','
p199
(dp200
S'.'
p201
F1.0
s(lp202
(g199
I20
tp203
atp204
a(S'je'
p205
(dp206
S'PRON'
p207
F1.0
s(lp208
(g50
I21
tp209
atp210
a(S'sais'
p211
(dp212
S'VERB'
p213
F1.0
s(lp214
(S'know'
p215
I22
tp216
atp217
a(S'parfaitement'
p218
(dp219
S'ADV'
p220
F1.0
s(lp221
(S'full'
p222
I23
tp223
atp224
a(S'bien'
p225
(dp226
S'ADV'
p227
F0.921684
sS'NOUN'
p228
F0.001443
sS'ADJ'
p229
F0.076874
s(lp230
(S'well'
p231
I24
tp232
atp233
a(S'que'
p234
(dp235
S'ADV'
p236
F0.102419
sS'PRON'
p237
F0.01999
sS'CONJ'
p238
F0.877591
s(lp239
(S'that'
p240
I25
tp241
atp242
a(S'beaucoup'
p243
(dp244
S'ADV'
p245
F1.0
s(lp246
(S'great'
p247
I27
tp248
atp249
a(S'de'
p250
(dp251
S'ADP'
p252
F1.0
s(lp253
tp254
a(S'choses'
p255
(dp256
S'VERB'
p257
F3e-06
sS'NOUN'
p258
F0.999997
s(lp259
(S'deal'
p260
I28
tp261
atp262
a(S'peuvent'
p263
(dp264
S'VERB'
p265
F1.0
s(lp266
(S'can'
p267
I29
tp268
atp269
a(g199
(dp270
g201
F1.0
s(lp271
tp272
a(S'et'
p273
(dp274
S'CONJ'
p275
F1.0
s(lp276
(S'and'
p277
I30
tp278
atp279
a(S'doivent'
p280
(dp281
S'VERB'
p282
F1.0
s(lp283
(S'must'
p284
I31
tp285
atp286
a(g199
(dp287
g201
F1.0
s(lp288
tp289
a(S'\xc3\xaatre'
p290
(dp291
S'VERB'
p292
F0.937304
sS'NOUN'
p293
F0.062696
s(lp294
(S'be'
p295
I32
tp296
atp297
a(S'faites'
p298
(dp299
S'VERB'
p300
F0.981776
sS'ADJ'
p301
F0.018223
s(lp302
(S'done'
p303
I33
tp304
atp305
a(S'\xc3\xa0'
p306
(dp307
S'ADP'
p308
F1.0
s(lp309
(S'at'
p310
I34
tp311
atp312
a(S"l'"
p313
(dp314
S'ADJ'
p315
F0.160704
sS'VERB'
p316
F0.06480800000000002
sS'NOUN'
p317
F0.774488
s(lp318
tp319
a(S'\xc3\xa9chelon'
p320
(dp321
S'NOUN'
p322
F1.0
s(lp323
(S'level'
p324
I36
tp325
atp326
a(S'europ\xc3\xa9en'
p327
(dp328
S'NOUN'
p329
F0.005274
sS'ADJ'
p330
F0.994726
s(lp331
(S'european'
p332
I35
tp333
atp334
a(g201
(dp335
g201
F1.0
s(lp336
(g201
I37
tp337
atp338
asS'en'
p339
(lp340
(g8
(dp341
S'VERB'
p342
F0.987101
sS'ADJ'
p343
F0.012899
s(lp344
(g8
I0
tp345
atp346
a(g40
(dp347
S'ADV'
p348
F0.000544
sS'DET'
p349
F0.079432
sS'ADP'
p350
F0.920024
s(lp351
(g40
I1
tp352
atp353
a(g50
(dp354
g48
F0.062389
sS'NOUN'
p355
F0.9376110000000001
s(lp356
(g50
I2
tp357
atp358
a(g57
(dp359
S'VERB'
p360
F1.0
s(lp361
(g57
I3
tp362
atp363
a(g64
(dp364
S'ADV'
p365
F1.0
s(lp366
(g64
I4
tp367
atp368
a(g24
(dp369
S'NOUN'
p370
F1e-06
sS'DET'
p371
F0.999999
s(lp372
(g24
I5
tp373
atp374
a(g79
(dp375
S'NOUN'
p376
F1.0
s(lp377
(g79
I6
tp378
atp379
a(g87
(dp380
S'ADP'
p381
F1.0
s(lp382
(g87
I7
tp383
atp384
a(g95
(dp385
S'NOUN'
p386
F1e-06
sS'DET'
p387
F0.999999
s(lp388
(g95
I8
tp389
atp390
a(g103
(dp391
S'ADV'
p392
F0.043113
sS'NOUN'
p393
F0.00039
sS'ADJ'
p394
F0.956497
s(lp395
(g103
I9
tp396
atp397
a(g115
(dp398
S'VERB'
p399
F0.019678
sS'NOUN'
p400
F0.980322
s(lp401
(g115
I10
tp402
atp403
a(g123
(dp404
S'ADV'
p405
F8.5e-05
sS'NOUN'
p406
F0.0
sS'ADP'
p407
F0.999915
s(lp408
(g123
I11
tp409
atp410
a(g132
(dp411
S'NOUN'
p412
F0.0
sS'DET'
p413
F1.0
s(lp414
(g132
I12
tp415
atp416
a(g147
(dp417
S'NOUN'
p418
F0.10881199999999999
sS'VERB'
p419
F1.1e-05
sS'ADJ'
p420
F0.891178
s(lp421
(g147
I13
tp422
atp423
a(g139
(dp424
S'NOUN'
p425
F1.0
s(lp426
(g139
I14
tp427
atp428
a(g154
(dp429
S'ADV'
p430
F0.000489
sS'PRT'
p431
F0.000523
sS'ADJ'
p432
F0.0
sS'NOUN'
p433
F0.0
sS'ADP'
p434
F0.998988
s(lp435
(g154
I15
tp436
atp437
a(g162
(dp438
S'NOUN'
p439
F1e-06
sS'DET'
p440
F0.999999
s(lp441
(g162
I16
tp442
atp443
a(g169
(dp444
S'ADJ'
p445
F0.245518
sS'VERB'
p446
F8.599999999999999e-05
sS'NOUN'
p447
F0.754395
s(lp448
(g169
I17
tp449
atp450
a(g177
(dp451
S'ADP'
p452
F1.0
s(lp453
(g177
I18
tp454
atp455
a(g184
(dp456
S'NOUN'
p457
F1.0
s(lp458
(g184
I19
tp459
atp460
a(g199
(dp461
g201
F1.0
s(lp462
(g199
I20
tp463
atp464
a(g50
(dp465
g48
F0.028304
sS'NOUN'
p466
F0.971696
s(lp467
(g50
I21
tp468
atp469
a(g215
(dp470
S'VERB'
p471
F1.0
s(lp472
(g215
I22
tp473
atp474
a(g222
(dp475
S'ADV'
p476
F0.06491
sS'NOUN'
p477
F0.000495
sS'VERB'
p478
F0.000188
sS'ADJ'
p479
F0.934408
s(lp480
(g222
I23
tp481
atp482
a(g231
(dp483
S'ADV'
p484
F0.161697
sg48
F4e-06
sS'VERB'
p485
F0.006911
sS'NOUN'
p486
F0.831387
s(lp487
(g231
I24
tp488
atp489
a(g240
(dp490
S'ADV'
p491
F0.012928
sS'DET'
p492
F0.09848499999999999
sS'ADP'
p493
F0.888588
s(lp494
(g240
I25
tp495
atp496
a(g132
(dp497
S'NOUN'
p498
F0.0
sS'DET'
p499
F1.0
s(lp500
(g132
I26
tp501
atp502
a(g247
(dp503
S'ADV'
p504
F8.8e-05
sS'NOUN'
p505
F0.000562
sS'ADJ'
p506
F0.999349
s(lp507
(g247
I27
tp508
atp509
a(g260
(dp510
S'VERB'
p511
F0.000106
sS'NOUN'
p512
F0.999894
s(lp513
(g260
I28
tp514
atp515
a(g267
(dp516
S'VERB'
p517
F0.934445
sS'NOUN'
p518
F0.065555
s(lp519
(g267
I29
tp520
atp521
a(g277
(dp522
S'CONJ'
p523
F0.999998
sS'NOUN'
p524
F2e-06
s(lp525
(g277
I30
tp526
atp527
a(g284
(dp528
S'VERB'
p529
F1.0
sS'NOUN'
p530
F0.0
s(lp531
(g284
I31
tp532
atp533
a(g295
(dp534
S'VERB'
p535
F1.0
s(lp536
(g295
I32
tp537
atp538
a(g303
(dp539
S'VERB'
p540
F0.999957
sS'ADJ'
p541
F4.3e-05
s(lp542
(g303
I33
tp543
atp544
a(g310
(dp545
S'NOUN'
p546
F6e-06
sS'ADP'
p547
F0.999994
s(lp548
(g310
I34
tp549
atp550
a(g332
(dp551
S'NOUN'
p552
F0.07153300000000001
sS'VERB'
p553
F4e-06
sS'ADJ'
p554
F0.928463
s(lp555
(g332
I35
tp556
atp557
a(g324
(dp558
S'ADJ'
p559
F0.002179
sS'VERB'
p560
F5.6e-05
sS'NOUN'
p561
F0.997765
s(lp562
(g324
I36
tp563
atp564
a(g201
(dp565
g201
F1.0
s(lp566
(g201
I37
tp567
atp568
asS'nl'
p569
(lp570
(S'ik'
p571
(dp572
S'PRON'
p573
F0.999981
sS'NOUN'
p574
F1.9e-05
s(lp575
(g50
I2
tp576
atp577
a(S'ben'
p578
(dp579
S'VERB'
p580
F1.0
s(lp581
tp582
a(S'rapporteur'
p583
(dp584
S'NOUN'
p585
F1.0
s(lp586
(g79
I6
tp587
atp588
a(S'geweest'
p589
(dp590
S'VERB'
p591
F1.0
s(lp592
(g57
I3
tp593
atp594
a(S'van'
p595
(dp596
S'ADP'
p597
F1.0
s(lp598
(g87
I7
tp599
atp600
a(S'het'
p601
(dp602
S'PRON'
p603
F0.030078
sS'DET'
p604
F0.969922
s(lp605
(g95
I8
tp606
atp607
a(S'enige'
p608
(dp609
S'PRON'
p610
F0.165976
sS'ADJ'
p611
F0.830619
sS'NOUN'
p612
F0.003406
s(lp613
(g103
I9
tp614
atp615
a(S'verslag'
p616
(dp617
S'NOUN'
p618
F1.0
s(lp619
(g115
I10
tp620
atp621
a(S'dat'
p622
(dp623
S'PRON'
p624
F0.308245
sS'CONJ'
p625
F0.691755
s(lp626
(g162
I16
tp627
atp628
a(S'ooit'
p629
(dp630
S'ADV'
p631
F1.0
s(lp632
(g184
I19
tp633
atp634
a(S'door'
p635
(dp636
S'ADV'
p637
F5e-06
sS'CONJ'
p638
F7.7e-05
sS'ADP'
p639
F0.999919
s(lp640
(g123
I11
tp641
atp642
a(S'een'
p643
(dp644
S'ADJ'
p645
F1e-06
sS'PRON'
p646
F1.4e-05
sS'NUM'
p647
F0.0
sS'DET'
p648
F0.999985
s(lp649
(g132
I12
tp650
atp651
a(S'europese'
p652
(dp653
S'NOUN'
p654
F1.0
s(lp655
(g147
I13
tp656
atp657
a(S'instelling'
p658
(dp659
S'NOUN'
p660
F1.0
s(lp661
(g139
I14
tp662
atp663
a(S'is'
p664
(dp665
S'VERB'
p666
F1.0
s(lp667
tp668
a(S'geschreven'
p669
(dp670
S'VERB'
p671
F0.998886
sS'ADJ'
p672
F0.001114
s(lp673
tp674
a(S'over'
p675
(dp676
S'ADV'
p677
F0.000927
sS'ADP'
p678
F0.999073
s(lp679
(g154
I15
tp680
atp681
a(S'aardbevingen'
p682
(dp683
S'NOUN'
p684
F1.0
s(lp685
(g184
I19
tp686
atp687
a(g199
(dp688
g201
F1.0
s(lp689
tp690
a(S'en'
p691
(dp692
S'CONJ'
p693
F1.0
s(lp694
(g199
I20
tp695
atp696
a(S'daarom'
p697
(dp698
S'ADV'
p699
F1.0
s(lp700
(g50
I21
tp701
atp702
a(S'weet'
p703
(dp704
S'VERB'
p705
F0.999944
sS'NOUN'
p706
F5.6e-05
s(lp707
(g215
I22
tp708
atp709
a(S'ik'
p710
(dp711
S'PRON'
p712
F0.999997
sS'NOUN'
p713
F3e-06
s(lp714
(g50
I2
tp715
atp716
a(S'maar'
p717
(dp718
S'ADV'
p719
F0.986393
sS'CONJ'
p720
F0.013548
sS'NOUN'
p721
F5.9e-05
s(lp722
(g231
I24
tp723
atp724
a(S'al'
p725
(dp726
S'ADV'
p727
F0.969524
sS'PRON'
p728
F4.9e-05
sS'CONJ'
p729
F0.030427
s(lp730
tp731
a(S'te'
p732
(dp733
S'PRT'
p734
F1.0
s(lp735
tp736
a(S'goed'
p737
(dp738
S'ADV'
p739
F0.097566
sS'NOUN'
p740
F0.014207
sS'ADJ'
p741
F0.888227
s(lp742
(g231
I24
tp743
atp744
a(S'dat'
p745
(dp746
S'PRON'
p747
F0.005321
sS'CONJ'
p748
F0.994679
s(lp749
(g240
I25
tp750
atp751
a(S'er'
p752
(dp753
S'ADV'
p754
F1.0
s(lp755
(g132
I26
tp756
atp757
a(S'op'
p758
(dp759
S'ADV'
p760
F0.130146
sS'ADJ'
p761
F1.2e-05
sS'ADP'
p762
F0.869842
s(lp763
(g310
I34
tp764
atp765
a(S'europees'
p766
(dp767
S'NOUN'
p768
F0.048552
sS'ADJ'
p769
F0.951448
s(lp770
(g332
I35
tp771
atp772
a(S'niveau'
p773
(dp774
S'NOUN'
p775
F1.0
s(lp776
(g324
I36
tp777
atp778
a(S'heel'
p779
(dp780
S'ADV'
p781
F0.992478
sS'VERB'
p782
F0.002887
sS'ADJ'
p783
F0.004634
s(lp784
(g247
I27
tp785
atp786
a(S'wat'
p787
(dp788
S'ADV'
p789
F0.483594
sS'PRON'
p790
F0.516406
s(lp791
(g260
I28
tp792
atp793
a(S'ondernomen'
p794
(dp795
S'VERB'
p796
F1.0
s(lp797
(g303
I33
tp798
atp799
a(S'kan'
p800
(dp801
S'VERB'
p802
F0.99979
sS'NOUN'
p803
F0.00021
s(lp804
(g267
I29
tp805
atp806
a(S'en'
p807
(dp808
S'CONJ'
p809
F1.0
s(lp810
(g277
I30
tp811
atp812
a(S'moet'
p813
(dp814
S'VERB'
p815
F1.0
s(lp816
(g284
I31
tp817
atp818
a(S'worden'
p819
(dp820
S'VERB'
p821
F0.9999979999999999
sS'NOUN'
p822
F2e-06
s(lp823
(g295
I32
tp824
atp825
a(g201
(dp826
g201
F1.0
s(lp827
(g201
I37
tp828
atp829
asS'de'
p830
(lp831
(S'angesichts'
p832
(dp833
S'ADP'
p834
F1.0
s(lp835
tp836
a(S'der'
p837
(dp838
S'PRON'
p839
F1.7e-05
sS'DET'
p840
F0.999978
s(lp841
tp842
a(S'tatsache'
p843
(dp844
S'ADJ'
p845
F0.001273
sS'NOUN'
p846
F0.998513
s(lp847
(g8
I0
tp848
atp849
a(g199
(dp850
g201
F1.0
s(lp851
tp852
a(S'dass'
p853
(dp854
S'CONJ'
p855
F1.0
s(lp856
(g40
I1
tp857
atp858
a(S'ich'
p859
(dp860
S'PRON'
p861
F1.0
s(lp862
(g50
I2
tp863
atp864
a(S'auch'
p865
(dp866
S'ADV'
p867
F1.0
s(lp868
(g64
I4
tp869
atp870
a(S'der'
p871
(dp872
S'PRON'
p873
F8.2e-05
sS'DET'
p874
F0.999916
s(lp875
(g24
I5
tp876
atp877
a(S'berichterstatter'
p878
(dp879
S'ADJ'
p880
F0.006041
sS'NOUN'
p881
F0.98578
s(lp882
(g79
I6
tp883
atp884
a(S'f\xc3\xbcr'
p885
(dp886
S'ADP'
p887
F1.0
s(lp888
(g87
I7
tp889
atp890
a(S'den'
p891
(dp892
S'PRON'
p893
F0.000112
sS'DET'
p894
F0.999888
s(lp895
(g95
I8
tp896
atp897
a(S'einzigen'
p898
(dp899
S'ADJ'
p900
F1.0
s(lp901
(g103
I9
tp902
atp903
a(S'bericht'
p904
(dp905
S'VERB'
p906
F0.001766
sS'NOUN'
p907
F0.998217
s(lp908
(g115
I10
tp909
atp910
a(S'einer'
p911
(dp912
S'PRON'
p913
F0.001282
sS'DET'
p914
F0.998578
s(lp915
(g132
I12
tp916
atp917
a(S'europ\xc3\xa4ischen'
p918
(dp919
S'ADJ'
p920
F1.0
s(lp921
(g147
I13
tp922
atp923
a(S'institution'
p924
(dp925
g48
F0.005391
sS'NOUN'
p926
F0.990996
s(lp927
(g139
I14
tp928
atp929
a(S'zum'
p930
(dp931
S'ADP'
p932
F1.0
s(lp933
(g154
I15
tp934
atp935
a(S'thema'
p936
(dp937
S'ADJ'
p938
F0.026713
sS'NOUN'
p939
F0.973213
s(lp940
(g169
I17
tp941
atp942
a(S'erdbeben'
p943
(dp944
S'NOUN'
p945
F0.194815
sS'ADJ'
p946
F0.604432
s(lp947
(g184
I19
tp948
atp949
a(S'war'
p950
(dp951
S'VERB'
p952
F1.0
s(lp953
(g57
I3
tp954
atp955
a(g199
(dp956
g201
F1.0
s(lp957
(g199
I20
tp958
atp959
a(S'wei\xc3\x9f'
p960
(dp961
S'VERB'
p962
F0.999711
sS'ADJ'
p963
F0.00017
s(lp964
(g215
I22
tp965
atp966
a(S'ich'
p967
(dp968
S'PRON'
p969
F1.0
s(lp970
(g50
I21
tp971
atp972
a(S'sehr'
p973
(dp974
S'ADV'
p975
F1.0
s(lp976
(g222
I23
tp977
atp978
a(S'genau'
p979
(dp980
S'PRT'
p981
F0.004515
sS'ADJ'
p982
F0.995485
s(lp983
(g231
I24
tp984
atp985
a(g199
(dp986
g201
F1.0
s(lp987
tp988
a(S'dass'
p989
(dp990
S'CONJ'
p991
F1.0
s(lp992
(g240
I25
tp993
atp994
a(S'auf'
p995
(dp996
S'ADV'
p997
F0.000147
sS'ADP'
p998
F0.99976
s(lp999
(g310
I34
tp1000
atp1001
a(S'europ\xc3\xa4ischer'
p1002
(dp1003
S'ADJ'
p1004
F1.0
s(lp1005
(g332
I35
tp1006
atp1007
a(S'ebene'
p1008
(dp1009
S'ADJ'
p1010
F1.0
s(lp1011
(g324
I36
tp1012
atp1013
a(S'eine'
p1014
(dp1015
S'PRON'
p1016
F0.975594
sS'NUM'
p1017
F0.013181
s(lp1018
(g132
I26
tp1019
atp1020
a(S'menge'
p1021
(dp1022
S'VERB'
p1023
F1.0
s(lp1024
(g247
I27
tp1025
atp1026
a(S'getan'
p1027
(dp1028
S'VERB'
p1029
F1.0
s(lp1030
tp1031
a(S'werden'
p1032
(dp1033
S'VERB'
p1034
F0.999998
s(lp1035
(g295
I32
tp1036
atp1037
a(S'kann'
p1038
(dp1039
S'VERB'
p1040
F1.0
s(lp1041
(g267
I29
tp1042
atp1043
a(S'und'
p1044
(dp1045
S'CONJ'
p1046
F1.0
s(lp1047
(g277
I30
tp1048
atp1049
a(S'getan'
p1050
(dp1051
S'VERB'
p1052
F1.0
s(lp1053
(g303
I33
tp1054
atp1055
a(S'werden'
p1056
(dp1057
S'VERB'
p1058
F0.999998
s(lp1059
tp1060
a(S'muss'
p1061
(dp1062
S'VERB'
p1063
F1.0
s(lp1064
(g284
I31
tp1065
atp1066
a(g201
(dp1067
g201
F1.0
s(lp1068
(g201
I37
tp1069
atp1070
asS'it'
p1071
(lp1072
(S'dato'
p1073
(dp1074
S'ADJ'
p1075
F0.005201
sS'CONJ'
p1076
F0.13022
sS'VERB'
p1077
F0.729747
sS'NOUN'
p1078
F0.134832
s(lp1079
(g8
I0
tp1080
atp1081
a(S'che'
p1082
(dp1083
S'PRON'
p1084
F0.970432
sS'CONJ'
p1085
F0.029243
sS'ADJ'
p1086
F0.000326
s(lp1087
(g40
I1
tp1088
atp1089
a(S'sono'
p1090
(dp1091
S'VERB'
p1092
F0.999994
sS'NOUN'
p1093
F6e-06
s(lp1094
(g50
I2
tp1095
atp1096
a(S'stato'
p1097
(dp1098
S'VERB'
p1099
F0.999184
sS'NOUN'
p1100
F0.000816
s(lp1101
(g57
I3
tp1102
atp1103
a(S'anche'
p1104
(dp1105
S'ADV'
p1106
F0.999903
sS'NOUN'
p1107
F9.7e-05
s(lp1108
(g64
I4
tp1109
atp1110
a(S'relatore'
p1111
(dp1112
S'NOUN'
p1113
F1.0
s(lp1114
(g79
I6
tp1115
atp1116
a(S'per'
p1117
(dp1118
S'CONJ'
p1119
F0.056931
sS'ADP'
p1120
F0.943069
s(lp1121
(g87
I7
tp1122
atp1123
a(S"l'"
p1124
(dp1125
S'NOUN'
p1126
F0.009778
sS'VERB'
p1127
F0.9663980000000001
sS'ADJ'
p1128
F0.023823
s(lp1129
(g95
I8
tp1130
atp1131
a(S'unica'
p1132
(dp1133
S'NOUN'
p1134
F0.00731
sS'ADJ'
p1135
F0.99269
s(lp1136
(g103
I9
tp1137
atp1138
a(S'relazione'
p1139
(dp1140
S'NOUN'
p1141
F1.0
s(lp1142
(g115
I10
tp1143
atp1144
a(S'da'
p1145
(dp1146
S'ADP'
p1147
F1.0
s(lp1148
tp1149
a(S'parte'
p1150
(dp1151
S'VERB'
p1152
F6e-06
sS'NOUN'
p1153
F0.999994
s(lp1154
(g123
I11
tp1155
atp1156
a(S'di'
p1157
(dp1158
S'CONJ'
p1159
F1.7e-05
sS'ADP'
p1160
F0.999983
s(lp1161
tp1162
a(S"un'"
p1163
(dp1164
S'PRON'
p1165
F0.00969
sS'DEF'
p1166
F0.99031
s(lp1167
(g132
I12
tp1168
atp1169
a(S'istituzione'
p1170
(dp1171
S'NOUN'
p1172
F1.0
s(lp1173
(g139
I14
tp1174
atp1175
a(S'europea'
p1176
(dp1177
S'NOUN'
p1178
F0.004225
sS'ADJ'
p1179
F0.995775
s(lp1180
(g147
I13
tp1181
atp1182
a(S'sul'
p1183
(dp1184
S'ADP'
p1185
F1.0
s(lp1186
(g154
I15
tp1187
atp1188
a(S'tema'
p1189
(dp1190
S'VERB'
p1191
F2.1000000000000002e-05
sS'NOUN'
p1192
F0.999979
s(lp1193
(g169
I17
tp1194
atp1195
a(S'dei'
p1196
(dp1197
S'NOUN'
p1198
F1e-06
sS'DEF'
p1199
F0.001164
sS'ADP'
p1200
F0.998835
s(lp1201
(g177
I18
tp1202
atp1203
a(S'terremoti'
p1204
(dp1205
S'NOUN'
p1206
F1.0
s(lp1207
(g184
I19
tp1208
atp1209
a(g199
(dp1210
g201
F1.0
s(lp1211
(g199
I20
tp1212
atp1213
a(S'so'
p1214
(dp1215
S'VERB'
p1216
F1.0
s(lp1217
(g215
I22
tp1218
atp1219
a(S'benissimo'
p1220
(dp1221
S'ADV'
p1222
F1.0
s(lp1223
(g231
I24
tp1224
atp1225
a(S'che'
p1226
(dp1227
S'PRON'
p1228
F0.715987
sS'CONJ'
p1229
F0.238853
sS'ADJ'
p1230
F0.045159
s(lp1231
(g240
I25
tp1232
atp1233
a(g132
(dp1234
S'CONJ'
p1235
F4.6e-05
sS'ADP'
p1236
F0.999954
s(lp1237
(g310
I34
tp1238
atp1239
a(S'livello'
p1240
(dp1241
S'VERB'
p1242
F4.9e-05
sS'NOUN'
p1243
F0.999951
s(lp1244
(g324
I36
tp1245
atp1246
a(S'europeo'
p1247
(dp1248
S'NOUN'
p1249
F0.003092
sS'ADJ'
p1250
F0.996908
s(lp1251
(g332
I35
tp1252
atp1253
a(S'molto'
p1254
(dp1255
S'ADV'
p1256
F0.956537
sS'PRON'
p1257
F0.022906
sS'VERB'
p1258
F2.3e-05
sS'ADJ'
p1259
F0.020534
s(lp1260
(g247
I27
tp1261
atp1262
a(S'pu\xc3\xb2'
p1263
(dp1264
S'VERB'
p1265
F1.0
s(lp1266
(g267
I29
tp1267
atp1268
a(S'e'
p1269
(dp1270
S'CONJ'
p1271
F1.0
s(lp1272
(g277
I30
tp1273
atp1274
a(S'deve'
p1275
(dp1276
S'VERB'
p1277
F1.0
s(lp1278
(g284
I31
tp1279
atp1280
a(S'essere'
p1281
(dp1282
S'VERB'
p1283
F0.999944
sS'NOUN'
p1284
F5.6e-05
s(lp1285
(g295
I32
tp1286
atp1287
a(S'ancora'
p1288
(dp1289
S'ADV'
p1290
F0.988996
sS'VERB'
p1291
F0.010867
sS'NOUN'
p1292
F0.000138
s(lp1293
tp1294
a(S'fatto'
p1295
(dp1296
S'VERB'
p1297
F0.925292
sS'NOUN'
p1298
F0.074708
s(lp1299
(g303
I33
tp1300
atp1301
a(g201
(dp1302
g201
F1.0
s(lp1303
(g201
I37
tp1304
atp1305
asS'sk'
p1306
(lp1307
(S'ke\xc4\x8f\xc5\xbee'
p1308
(dp1309
S'CONJ'
p1310
F1.0
s(lp1311
(g8
I0
tp1312
atp1313
a(S'som'
p1314
(dp1315
S'VERB'
p1316
F1.0
s(lp1317
(g50
I2
tp1318
atp1319
a(S'bol'
p1320
(dp1321
S'VERB'
p1322
F1.0
s(lp1323
(g57
I3
tp1324
atp1325
a(S'aj'
p1326
(dp1327
g48
F0.625451
sS'CONJ'
p1328
F0.374549
s(lp1329
(g64
I4
tp1330
atp1331
a(S'spravodajcom'
p1332
(dp1333
S'NOUN'
p1334
F1.0
s(lp1335
(g79
I6
tp1336
atp1337
a(S'jedinej'
p1338
(dp1339
S'NUM'
p1340
F1.0
s(lp1341
(g103
I9
tp1342
atp1343
a(S'spr\xc3\xa1vy'
p1344
(dp1345
S'NOUN'
p1346
F1.0
s(lp1347
(g115
I10
tp1348
atp1349
a(S'eur\xc3\xb3pskych'
p1350
(dp1351
S'ADJ'
p1352
F1.0
s(lp1353
(g147
I13
tp1354
atp1355
a(S'in\xc5\xa1tit\xc3\xbaci\xc3\xad'
p1356
(dp1357
S'NOUN'
p1358
F1.0
s(lp1359
(g139
I14
tp1360
atp1361
a(S'o'
p1362
(dp1363
g48
F0.00022500000000000002
sS'CONJ'
p1364
F7.7e-05
sS'NOUN'
p1365
F1.6e-05
sS'ADP'
p1366
F0.999682
s(lp1367
(g154
I15
tp1368
atp1369
a(S'zemetraseniach'
p1370
(dp1371
S'NOUN'
p1372
F1.0
s(lp1373
(g184
I19
tp1374
atp1375
a(g199
(dp1376
g201
F1.0
s(lp1377
(g199
I20
tp1378
atp1379
a(S've\xc4\xbemi'
p1380
(dp1381
S'ADV'
p1382
F1.0
s(lp1383
(g222
I23
tp1384
atp1385
a(S'dobre'
p1386
(dp1387
S'ADV'
p1388
F0.983514
sg48
F0.01647
sS'NOUN'
p1389
F1.6e-05
s(lp1390
(g231
I24
tp1391
atp1392
a(S'viem'
p1393
(dp1394
S'VERB'
p1395
F1.0
s(lp1396
(g215
I22
tp1397
atp1398
a(g199
(dp1399
g201
F1.0
s(lp1400
tp1401
a(S'\xc5\xbee'
p1402
(dp1403
g48
F0.0009
sS'CONJ'
p1404
F0.9991
s(lp1405
(g240
I25
tp1406
atp1407
a(S'na'
p1408
(dp1409
g48
F8.1e-05
sS'CONJ'
p1410
F4.8e-05
sS'ADP'
p1411
F0.999843
sS'PRT'
p1412
F2.8e-05
s(lp1413
(g310
I34
tp1414
atp1415
a(S'eur\xc3\xb3pskej'
p1416
(dp1417
S'ADJ'
p1418
F1.0
s(lp1419
(g332
I35
tp1420
atp1421
a(S'\xc3\xbarovni'
p1422
(dp1423
S'NOUN'
p1424
F1.0
s(lp1425
(g324
I36
tp1426
atp1427
a(S'je'
p1428
(dp1429
S'PRON'
p1430
F3.7e-05
sS'VERB'
p1431
F0.999923
sg48
F4.1e-05
s(lp1432
(g132
I26
tp1433
atp1434
a(S'mo\xc5\xben\xc3\xa9'
p1435
(dp1436
S'ADJ'
p1437
F1.0
s(lp1438
(g267
I29
tp1439
atp1440
a(g132
(dp1441
g48
F0.000651
sS'CONJ'
p1442
F0.997693
sS'NOUN'
p1443
F0.001537
sS'ADP'
p1444
F0.000111
sS'PRT'
p1445
F6e-06
s(lp1446
(g277
I30
tp1447
atp1448
a(S'potrebn\xc3\xa9'
p1449
(dp1450
S'ADJ'
p1451
F1.0
s(lp1452
(g284
I31
tp1453
atp1454
a(S'urobi\xc5\xa5'
p1455
(dp1456
S'VERB'
p1457
F1.0
s(lp1458
(g303
I33
tp1459
atp1460
a(S've\xc4\xbea'
p1461
(dp1462
S'ADV'
p1463
F0.100333
sS'NUM'
p1464
F0.899666
s(lp1465
(g260
I28
tp1466
atp1467
a(g201
(dp1468
g201
F1.0
s(lp1469
(g201
I37
tp1470
atp1471
asS'pl'
p1472
(lp1473
(S'poniewa\xc5\xbc'
p1474
(dp1475
S'CONJ'
p1476
F1.0
s(lp1477
(g8
I0
tp1478
atp1479
a(S'by\xc5\x82em'
p1480
(dp1481
S'ADV'
p1482
F0.010499
sS'ADJ'
p1483
F0.012484
sS'VERB'
p1484
F0.27881399999999995
sS'NOUN'
p1485
F0.6982029999999998
s(lp1486
(g57
I3
tp1487
atp1488
a(S'r\xc3\xb3wnie\xc5\xbc'
p1489
(dp1490
S'PRT'
p1491
F0.617156
sS'CONJ'
p1492
F0.382844
s(lp1493
(g64
I4
tp1494
atp1495
a(S'sprawozdawc\xc4\x85'
p1496
(dp1497
S'NOUN'
p1498
F1.0
s(lp1499
(g79
I6
tp1500
atp1501
a(S'jedynego'
p1502
(dp1503
S'ADJ'
p1504
F1.000001
s(lp1505
(g103
I9
tp1506
atp1507
a(S'sprawozdania'
p1508
(dp1509
S'NOUN'
p1510
F1.0
s(lp1511
(g115
I10
tp1512
atp1513
a(S'instytucji'
p1514
(dp1515
S'NOUN'
p1516
F1.0
s(lp1517
(g139
I14
tp1518
atp1519
a(S'europejskiej'
p1520
(dp1521
S'ADJ'
p1522
F1.0
s(lp1523
(g147
I13
tp1524
atp1525
a(S'w'
p1526
(dp1527
g48
F0.0
sS'ADJ'
p1528
F1e-06
sS'ADP'
p1529
F0.999999
sS'NOUN'
p1530
F0.0
s(lp1531
tp1532
a(S'sprawie'
p1533
(dp1534
S'NOUN'
p1535
F1.0
s(lp1536
(g154
I15
tp1537
atp1538
a(S'trz\xc4\x99sie\xc5\x84'
p1539
(dp1540
S'ADJ'
p1541
F6.3e-05
sS'VERB'
p1542
F0.127146
sS'NOUN'
p1543
F0.872793
s(lp1544
tp1545
a(S'ziemi'
p1546
(dp1547
S'NOUN'
p1548
F1.0
s(lp1549
(g184
I19
tp1550
atp1551
a(g199
(dp1552
g48
F0.0
sg201
F1.0
s(lp1553
(g199
I20
tp1554
atp1555
a(S'wiem'
p1556
(dp1557
S'VERB'
p1558
F1.0
s(lp1559
(g215
I22
tp1560
atp1561
a(S'z'
p1562
(dp1563
S'PRT'
p1564
F3e-06
sS'VERB'
p1565
F0.0
sS'NOUN'
p1566
F0.0
sS'ADP'
p1567
F0.999996
sg48
F0.0
s(lp1568
(g177
I18
tp1569
atp1570
a(S'ca\xc5\x82\xc4\x85'
p1571
(dp1572
S'ADJ'
p1573
F1.0
s(lp1574
(g222
I23
tp1575
atp1576
a(S'pewno\xc5\x9bci\xc4\x85'
p1577
(dp1578
S'NOUN'
p1579
F1.0
s(lp1580
(g231
I24
tp1581
atp1582
a(g199
(dp1583
g48
F0.0
sg201
F1.0
s(lp1584
(g240
I25
tp1585
atp1586
a(S'jak'
p1587
(dp1588
S'ADV'
p1589
F0.882151
sS'PRT'
p1590
F0.000953
sS'CONJ'
p1591
F0.091866
sS'ADP'
p1592
F0.024979
sS'PRON'
p1593
F5.2e-05
s(lp1594
(g132
I26
tp1595
atp1596
a(S'wiele'
p1597
(dp1598
S'ADV'
p1599
F0.090081
sS'NUM'
p1600
F0.9099190000000001
s(lp1601
(g260
I28
tp1602
atp1603
a(S'mo\xc5\xbcna'
p1604
(dp1605
S'ADJ'
p1606
F1.0
s(lp1607
(g267
I29
tp1608
atp1609
a(g50
(dp1610
S'PRT'
p1611
F0.48676
sS'CONJ'
p1612
F0.512746
sS'NOUN'
p1613
F0.00044500000000000003
sg48
F1.5e-05
sS'PRON'
p1614
F3.2999999999999996e-05
s(lp1615
(g277
I30
tp1616
atp1617
a(S'nale\xc5\xbcy'
p1618
(dp1619
S'VERB'
p1620
F0.999402
sS'ADJ'
p1621
F0.000598
s(lp1622
(g284
I31
tp1623
atp1624
a(g1526
(dp1625
S'ADJ'
p1626
F0.0
sg48
F0.0
sS'NOUN'
p1627
F0.0
sS'ADP'
p1628
F1.0
s(lp1629
tp1630
a(S'tej'
p1631
(dp1632
S'PRON'
p1633
F1e-06
sS'ADJ'
p1634
F0.999998
sg48
F0.0
s(lp1635
(g162
I16
tp1636
atp1637
a(S'sprawie'
p1638
(dp1639
S'NOUN'
p1640
F1.0
s(lp1641
(g169
I17
tp1642
atp1643
a(S'zrobi\xc4\x87'
p1644
(dp1645
S'VERB'
p1646
F1.0
s(lp1647
(g303
I33
tp1648
atp1649
a(S'na'
p1650
(dp1651
g48
F3e-06
sS'VERB'
p1652
F0.0
sS'NOUN'
p1653
F0.0
sS'ADP'
p1654
F0.999995
sS'PRT'
p1655
F1e-06
s(lp1656
(g310
I34
tp1657
atp1658
a(S'szczeblu'
p1659
(dp1660
S'NOUN'
p1661
F1.0
s(lp1662
(g324
I36
tp1663
atp1664
a(S'europejskim'
p1665
(dp1666
S'ADJ'
p1667
F1.0
s(lp1668
(g332
I35
tp1669
atp1670
a(g201
(dp1671
g201
F1.0
s(lp1672
(g201
I37
tp1673
atp1674
asS'sl'
p1675
(lp1676
(S'glede'
p1677
(dp1678
S'ADV'
p1679
F0.979526
sS'ADP'
p1680
F0.020474
s(lp1681
(g8
I0
tp1682
atp1683
a(S'na'
p1684
(dp1685
S'ADP'
p1686
F1.0
s(lp1687
tp1688
a(S'to'
p1689
(dp1690
S'PRON'
p1691
F0.999946
sg48
F5.4e-05
s(lp1692
(g8
I0
tp1693
atp1694
a(g199
(dp1695
g201
F1.0
s(lp1696
tp1697
a(S'da'
p1698
(dp1699
S'PRT'
p1700
F4e-06
sS'CONJ'
p1701
F0.999983
sS'VERB'
p1702
F1.3e-05
sg48
F0.0
s(lp1703
(g40
I1
tp1704
atp1705
a(S'sem'
p1706
(dp1707
S'ADV'
p1708
F2.6e-05
sS'PRT'
p1709
F1.2e-05
sS'VERB'
p1710
F0.999962
s(lp1711
(g50
I2
tp1712
atp1713
a(S'bil'
p1714
(dp1715
S'VERB'
p1716
F1.0
s(lp1717
(g57
I3
tp1718
atp1719
a(S'poro\xc4\x8devalec'
p1720
(dp1721
S'NOUN'
p1722
F1.0
s(lp1723
(g79
I6
tp1724
atp1725
a(S'za'
p1726
(dp1727
S'ADV'
p1728
F0.006443
sg48
F0.000602
sS'ADP'
p1729
F0.9929549999999999
s(lp1730
(g87
I7
tp1731
atp1732
a(S'edino'
p1733
(dp1734
S'PRT'
p1735
F0.007237
sS'ADJ'
p1736
F0.992763
s(lp1737
(g103
I9
tp1738
atp1739
a(S'poro\xc4\x8dilo'
p1740
(dp1741
S'NOUN'
p1742
F1.0
s(lp1743
(g115
I10
tp1744
atp1745
a(S'evropske'
p1746
(dp1747
S'ADJ'
p1748
F0.9999999999999999
s(lp1749
(g147
I13
tp1750
atp1751
a(S'institucije'
p1752
(dp1753
S'NOUN'
p1754
F1.0
s(lp1755
(g139
I14
tp1756
atp1757
a(S'na'
p1758
(dp1759
S'ADP'
p1760
F1.0
s(lp1761
(g154
I15
tp1762
atp1763
a(S'temo'
p1764
(dp1765
S'NOUN'
p1766
F1.0
s(lp1767
(g169
I17
tp1768
atp1769
a(S'potresov'
p1770
(dp1771
S'NOUN'
p1772
F1.0
s(lp1773
(g184
I19
tp1774
atp1775
a(g199
(dp1776
g201
F1.0
s(lp1777
(g199
I20
tp1778
atp1779
a(S'zelo'
p1780
(dp1781
S'ADV'
p1782
F1.0
s(lp1783
(g222
I23
tp1784
atp1785
a(S'dobro'
p1786
(dp1787
S'ADV'
p1788
F0.996544
sS'NOUN'
p1789
F0.000655
sS'ADJ'
p1790
F0.002788
sg48
F1.2e-05
s(lp1791
(g231
I24
tp1792
atp1793
a(S'vem'
p1794
(dp1795
S'VERB'
p1796
F1.0
s(lp1797
(g215
I22
tp1798
atp1799
a(g199
(dp1800
g201
F1.0
s(lp1801
(g50
I21
tp1802
atp1803
a(S'da'
p1804
(dp1805
S'PRT'
p1806
F8.4e-05
sS'CONJ'
p1807
F0.999555
sS'VERB'
p1808
F0.000358
sg48
F3e-06
s(lp1809
(g240
I25
tp1810
atp1811
a(S'na'
p1812
(dp1813
S'ADP'
p1814
F1.0
s(lp1815
(g310
I34
tp1816
atp1817
a(S'evropski'
p1818
(dp1819
S'ADJ'
p1820
F1.000001
s(lp1821
(g332
I35
tp1822
atp1823
a(S'ravni'
p1824
(dp1825
S'ADJ'
p1826
F7e-06
sS'NOUN'
p1827
F0.999993
s(lp1828
(g324
I36
tp1829
atp1830
a(S'lahko'
p1831
(dp1832
S'ADV'
p1833
F0.995574
sS'ADJ'
p1834
F0.004426
s(lp1835
(g267
I29
tp1836
atp1837
a(S'in'
p1838
(dp1839
S'ADV'
p1840
F0.003787
sg48
F2e-06
sS'CONJ'
p1841
F0.996209
sS'NOUN'
p1842
F2e-06
s(lp1843
(g277
I30
tp1844
atp1845
a(S'moramo'
p1846
(dp1847
S'VERB'
p1848
F1.0
s(lp1849
(g284
I31
tp1850
atp1851
a(S'\xc5\xa1e'
p1852
(dp1853
S'PRT'
p1854
F1.0
s(lp1855
(g295
I32
tp1856
atp1857
a(S'veliko'
p1858
(dp1859
S'ADV'
p1860
F0.905152
sS'ADJ'
p1861
F0.094848
s(lp1862
(g247
I27
tp1863
atp1864
a(S'storiti'
p1865
(dp1866
S'VERB'
p1867
F1.0
s(lp1868
(g303
I33
tp1869
atp1870
a(g201
(dp1871
g201
F1.0
s(lp1872
(g201
I37
tp1873
atp1874
asS'es'
p1875
(lp1876
(S'puesto'
p1877
(dp1878
S'CONJ'
p1879
F1.0
s(lp1880
(g8
I0
tp1881
atp1882
a(S'que'
p1883
(dp1884
S'CONJ'
p1885
F1.0
s(lp1886
(g40
I1
tp1887
atp1888
a(S'fui'
p1889
(dp1890
S'VERB'
p1891
F1.0
s(lp1892
(g57
I3
tp1893
atp1894
a(S'tambi\xc3\xa9n'
p1895
(dp1896
S'ADV'
p1897
F1.0
s(lp1898
(g64
I4
tp1899
atp1900
a(S'el'
p1901
(dp1902
S'PRON'
p1903
F9e-06
sS'DET'
p1904
F0.999991
s(lp1905
(g24
I5
tp1906
atp1907
a(S'ponente'
p1908
(dp1909
S'NOUN'
p1910
F1.0
s(lp1911
(g79
I6
tp1912
atp1913
a(S'del'
p1914
(dp1915
S'ADP'
p1916
F1.0
s(lp1917
(g95
I8
tp1918
atp1919
a(S'\xc3\xbanico'
p1920
(dp1921
S'ADJ'
p1922
F1.0
s(lp1923
(g103
I9
tp1924
atp1925
a(S'informe'
p1926
(dp1927
S'VERB'
p1928
F0.029001
sS'NOUN'
p1929
F0.970999
s(lp1930
(g115
I10
tp1931
atp1932
a(S'de'
p1933
(dp1934
g48
F0.0
sS'CONJ'
p1935
F1.8e-05
sS'ADP'
p1936
F0.999982
s(lp1937
(g123
I11
tp1938
atp1939
a(S'una'
p1940
(dp1941
S'DET'
p1942
F1.0
s(lp1943
(g132
I12
tp1944
atp1945
a(S'instituci\xc3\xb3n'
p1946
(dp1947
S'NOUN'
p1948
F1.0
s(lp1949
(g139
I14
tp1950
atp1951
a(S'europea'
p1952
(dp1953
S'ADJ'
p1954
F1.0
s(lp1955
(g147
I13
tp1956
atp1957
a(S'sobre'
p1958
(dp1959
S'NOUN'
p1960
F0.0
sS'ADP'
p1961
F1.0
s(lp1962
(g154
I15
tp1963
atp1964
a(S'el'
p1965
(dp1966
S'PRON'
p1967
F5e-06
sS'DET'
p1968
F0.999995
s(lp1969
(g162
I16
tp1970
atp1971
a(S'asunto'
p1972
(dp1973
S'NOUN'
p1974
F1.0
s(lp1975
(g169
I17
tp1976
atp1977
a(S'de'
p1978
(dp1979
g48
F0.0
sS'CONJ'
p1980
F1.7e-05
sS'ADP'
p1981
F0.999983
s(lp1982
(g177
I18
tp1983
atp1984
a(S'los'
p1985
(dp1986
S'PRON'
p1987
F0.0
sS'DET'
p1988
F1.0
s(lp1989
tp1990
a(S'terremotos'
p1991
(dp1992
S'NOUN'
p1993
F1.0
s(lp1994
(g184
I19
tp1995
atp1996
a(g199
(dp1997
g201
F1.0
s(lp1998
(g199
I20
tp1999
atp2000
a(S's\xc3\xa9'
p2001
(dp2002
S'VERB'
p2003
F1.0
s(lp2004
(g215
I22
tp2005
atp2006
a(S'perfectamente'
p2007
(dp2008
S'ADV'
p2009
F1.0
s(lp2010
(g231
I24
tp2011
atp2012
a(S'que'
p2013
(dp2014
g48
F0.0
sS'CONJ'
p2015
F1.0
s(lp2016
(g240
I25
tp2017
atp2018
a(S'es'
p2019
(dp2020
S'VERB'
p2021
F1.0
s(lp2022
(g132
I26
tp2023
atp2024
a(S'mucho'
p2025
(dp2026
S'ADV'
p2027
F0.912213
sS'ADJ'
p2028
F0.087787
s(lp2029
(g247
I27
tp2030
atp2031
a(S'lo'
p2032
(dp2033
S'PRON'
p2034
F0.465156
sS'DET'
p2035
F0.534844
s(lp2036
tp2037
a(S'que'
p2038
(dp2039
g48
F1e-06
sS'CONJ'
p2040
F0.999999
s(lp2041
tp2042
a(S'se'
p2043
(dp2044
S'PRON'
p2045
F1.0
sS'VERB'
p2046
F0.0
s(lp2047
tp2048
a(S'puede'
p2049
(dp2050
S'VERB'
p2051
F1.0
s(lp2052
(g267
I29
tp2053
atp2054
a(S'y'
p2055
(dp2056
g48
F4e-06
sS'CONJ'
p2057
F0.999996
s(lp2058
(g277
I30
tp2059
atp2060
a(S'debe'
p2061
(dp2062
S'VERB'
p2063
F1.0
s(lp2064
(g284
I31
tp2065
atp2066
a(S'hacer'
p2067
(dp2068
S'VERB'
p2069
F1.0
s(lp2070
(g303
I33
tp2071
atp2072
a(g132
(dp2073
g48
F0.00083
sS'CONJ'
p2074
F0.000137
sS'ADP'
p2075
F0.999033
s(lp2076
(g310
I34
tp2077
atp2078
a(S'escala'
p2079
(dp2080
S'VERB'
p2081
F3e-06
sS'NOUN'
p2082
F0.999997
s(lp2083
(g324
I36
tp2084
atp2085
a(S'europea'
p2086
(dp2087
S'ADJ'
p2088
F1.0
s(lp2089
(g332
I35
tp2090
atp2091
a(g201
(dp2092
g201
F1.0
s(lp2093
(g201
I37
tp2094
atp2095
as.