(dp0
S'fr'
p1
(lp2
(S'('
p3
(dp4
S'.'
p5
F1.0
s(lp6
(g3
I0
tp7
atp8
a(S'fi'
p9
(dp10
S'X'
p11
F0.012237
sS'NOUN'
p12
F0.987763
s(lp13
(S'fi'
p14
I1
tp15
atp16
a(S')'
p17
(dp18
g5
F1.0
s(lp19
(g17
I2
tp20
atp21
a(S'monsieur'
p22
(dp23
S'NOUN'
p24
F1.0
s(lp25
(S'mr'
p26
I3
tp27
atp28
a(S'le'
p29
(dp30
S'PRON'
p31
F0.000321
sS'DET'
p32
F0.999679
s(lp33
tp34
a(S'pr\xc3\xa9sident'
p35
(dp36
S'VERB'
p37
F4.5e-05
sS'NOUN'
p38
F0.999955
s(lp39
(S'president'
p40
I4
tp41
atp42
a(S','
p43
(dp44
g5
F1.0
s(lp45
(g43
I5
tp46
atp47
a(S'je'
p48
(dp49
S'PRON'
p50
F1.0
s(lp51
(S'i'
p52
I6
tp53
atp54
a(S'tiens'
p55
(dp56
S'PRON'
p57
F4.8e-05
sS'VERB'
p58
F0.999943
sg11
F9e-06
s(lp59
(S'wish'
p60
I7
tp61
atp62
a(S'\xc3\xa0'
p63
(dp64
S'ADP'
p65
F1.0
s(lp66
(S'to'
p67
I8
tp68
atp69
a(S'remercier'
p70
(dp71
S'VERB'
p72
F1.0
s(lp73
(S'thank'
p74
I9
tp75
atp76
a(S'mme'
p77
(dp78
S'ADJ'
p79
F0.072726
sS'VERB'
p80
F0.553502
sS'NOUN'
p81
F0.373773
s(lp82
(S'commissioner'
p83
I10
tp84
atp85
a(S'georgieva'
p86
(dp87
S'VERB'
p88
F1.0
s(lp89
(S'georgieva'
p90
I11
tp91
atp92
a(S'pour'
p93
(dp94
S'CONJ'
p95
F0.067207
sS'ADP'
p96
F0.932793
s(lp97
(S'for'
p98
I12
tp99
atp100
a(S'le'
p101
(dp102
S'PRON'
p103
F9.4e-05
sS'DET'
p104
F0.999906
s(lp105
(S'the'
p106
I13
tp107
atp108
a(S'travail'
p109
(dp110
S'NOUN'
p111
F1.0
s(lp112
(S'work'
p113
I14
tp114
atp115
a(S'accompli'
p116
(dp117
S'NOUN'
p118
F0.009364
sS'VERB'
p119
F0.866297
sS'ADJ'
p120
F0.12434
s(lp121
(S'done'
p122
I19
tp123
atp124
a(S'par'
p125
(dp126
S'NOUN'
p127
F0.0
sS'ADP'
p128
F1.0
s(lp129
(S'that'
p130
I15
tp131
atp132
a(S'la'
p133
(dp134
S'PRON'
p135
F1.2e-05
sS'DET'
p136
F0.999988
sS'NOUN'
p137
F0.0
s(lp138
(S'the'
p139
I16
tp140
atp141
a(S'commission'
p142
(dp143
S'NOUN'
p144
F1.0
s(lp145
(S'commission'
p146
I17
tp147
atp148
a(g5
(dp149
g5
F1.0
s(lp150
(g5
I20
tp151
atp152
asS'en'
p153
(lp154
(g3
(dp155
g5
F1.0
s(lp156
(g3
I0
tp157
atp158
a(g14
(dp159
S'ADV'
p160
F4.6e-05
sS'ADJ'
p161
F0.001908
sS'VERB'
p162
F0.000178
sS'NOUN'
p163
F0.99787
s(lp164
(g14
I1
tp165
atp166
a(g17
(dp167
g5
F1.0
s(lp168
(g17
I2
tp169
atp170
a(g26
(dp171
S'ADJ'
p172
F0.004952
sS'NOUN'
p173
F0.995048
s(lp174
(g26
I3
tp175
atp176
a(g40
(dp177
S'NOUN'
p178
F1.0
s(lp179
(g40
I4
tp180
atp181
a(g43
(dp182
g5
F1.0
s(lp183
(g43
I5
tp184
atp185
a(g52
(dp186
g11
F0.036895
sS'NOUN'
p187
F0.963106
s(lp188
(g52
I6
tp189
atp190
a(g60
(dp191
S'VERB'
p192
F0.77768
sS'NOUN'
p193
F0.22232
s(lp194
(g60
I7
tp195
atp196
a(g67
(dp197
S'ADV'
p198
F0.0
sS'PRT'
p199
F1.0
sS'ADP'
p200
F0.0
s(lp201
(g67
I8
tp202
atp203
a(g74
(dp204
S'VERB'
p205
F1.0
s(lp206
(g74
I9
tp207
atp208
a(g83
(dp209
S'NOUN'
p210
F1.0
s(lp211
(g83
I10
tp212
atp213
a(g90
(dp214
S'ADV'
p215
F0.000578
sS'ADJ'
p216
F0.000158
sS'VERB'
p217
F0.0018180000000000002
sS'NOUN'
p218
F0.9974470000000001
s(lp219
(g90
I11
tp220
atp221
a(g98
(dp222
S'ADP'
p223
F1.0
s(lp224
(g98
I12
tp225
atp226
a(g106
(dp227
S'NOUN'
p228
F3e-06
sS'DET'
p229
F0.999997
s(lp230
(g106
I13
tp231
atp232
a(g113
(dp233
S'VERB'
p234
F0.029042000000000002
sS'NOUN'
p235
F0.970958
s(lp236
(g113
I14
tp237
atp238
a(g130
(dp239
S'ADV'
p240
F0.00056
sS'DET'
p241
F0.11077899999999999
sS'ADP'
p242
F0.888661
s(lp243
(g130
I15
tp244
atp245
a(g139
(dp246
S'NOUN'
p247
F2e-06
sS'DET'
p248
F0.999998
s(lp249
(g139
I16
tp250
atp251
a(g146
(dp252
S'VERB'
p253
F2e-06
sS'NOUN'
p254
F0.999998
s(lp255
(g146
I17
tp256
atp257
a(S'has'
p258
(dp259
S'VERB'
p260
F1.0
s(lp261
(g258
I18
tp262
atp263
a(g122
(dp264
S'VERB'
p265
F0.999983
sS'ADJ'
p266
F1.7e-05
s(lp267
(g122
I19
tp268
atp269
a(g5
(dp270
g5
F1.0
s(lp271
(g5
I20
tp272
atp273
asS'nl'
p274
(lp275
(g3
(dp276
g5
F1.0
s(lp277
(g3
I0
tp278
atp279
a(S'fi'
p280
(dp281
S'NOUN'
p282
F1.0
s(lp283
(g14
I1
tp284
atp285
a(g17
(dp286
g5
F1.0
s(lp287
(g17
I2
tp288
atp289
a(S'mijnheer'
p290
(dp291
S'NOUN'
p292
F1.0
s(lp293
(g26
I3
tp294
atp295
a(S'de'
p296
(dp297
S'DET'
p298
F1.0
s(lp299
tp300
a(S'voorzitter'
p301
(dp302
S'NOUN'
p303
F1.0
s(lp304
(g40
I4
tp305
atp306
a(g43
(dp307
g5
F1.0
s(lp308
(g43
I5
tp309
atp310
a(S'ik'
p311
(dp312
S'PRON'
p313
F0.999934
sS'NOUN'
p314
F6.6e-05
s(lp315
(g52
I6
tp316
atp317
a(S'wil'
p318
(dp319
S'VERB'
p320
F0.753253
sS'NOUN'
p321
F0.246747
s(lp322
(g60
I7
tp323
atp324
a(S'commissaris'
p325
(dp326
S'NOUN'
p327
F1.0
s(lp328
(g83
I10
tp329
atp330
a(S'georgieva'
p331
(dp332
S'ADJ'
p333
F0.436058
sS'NOUN'
p334
F0.563943
s(lp335
(g90
I11
tp336
atp337
a(S'bedanken'
p338
(dp339
S'VERB'
p340
F0.851847
sS'NOUN'
p341
F0.148153
s(lp342
(g74
I9
tp343
atp344
a(S'voor'
p345
(dp346
S'ADV'
p347
F0.002752
sS'CONJ'
p348
F2.6e-05
sS'NOUN'
p349
F0.0
sS'ADP'
p350
F0.997222
s(lp351
(g98
I12
tp352
atp353
a(S'het'
p354
(dp355
S'PRON'
p356
F0.00105
sS'DET'
p357
F0.998951
s(lp358
(g106
I13
tp359
atp360
a(S'werk'
p361
(dp362
S'VERB'
p363
F0.00017
sS'NOUN'
p364
F0.99983
s(lp365
(g113
I14
tp366
atp367
a(S'van'
p368
(dp369
S'ADP'
p370
F1.0
s(lp371
tp372
a(S'de'
p373
(dp374
S'DET'
p375
F1.0
s(lp376
(g139
I16
tp377
atp378
a(S'commissie'
p379
(dp380
S'NOUN'
p381
F1.0
s(lp382
(g146
I17
tp383
atp384
a(g5
(dp385
g5
F1.0
s(lp386
(g5
I20
tp387
atp388
asS'de'
p389
(lp390
(g3
(dp391
g5
F1.0
s(lp392
(g3
I0
tp393
atp394
a(S'fi'
p395
(dp396
S'ADJ'
p397
F0.697471
s(lp398
(g14
I1
tp399
atp400
a(g17
(dp401
g5
F1.0
s(lp402
(g17
I2
tp403
atp404
a(S'herr'
p405
(dp406
S'ADJ'
p407
F0.19898
sS'NOUN'
p408
F0.770496
s(lp409
(g26
I3
tp410
atp411
a(S'pr\xc3\xa4sident'
p412
(dp413
S'VERB'
p414
F0.05857
sS'NOUN'
p415
F0.928761
s(lp416
tp417
a(S'!'
p418
(dp419
g5
F1.0
s(lp420
(g40
I4
tp421
atp422
a(S'ich'
p423
(dp424
S'PRON'
p425
F1.0
s(lp426
(g52
I6
tp427
atp428
a(S'm\xc3\xb6chte'
p429
(dp430
S'VERB'
p431
F1.0
s(lp432
(g60
I7
tp433
atp434
a(S'kommissionsmitglied'
p435
(dp436
S'ADJ'
p437
F0.259621
sS'NOUN'
p438
F0.548579
s(lp439
(g83
I10
tp440
atp441
a(S'georgieva'
p442
(dp443
S'VERB'
p444
F0.023656
sS'NOUN'
p445
F0.946696
s(lp446
tp447
a(S'f\xc3\xbcr'
p448
(dp449
S'ADP'
p450
F1.0
s(lp451
(g98
I12
tp452
atp453
a(S'all'
p454
(dp455
S'PRON'
p456
F0.999372
sg11
F0.000628
s(lp457
(g90
I11
tp458
atp459
a(S'die'
p460
(dp461
S'PRON'
p462
F0.011775
sS'DET'
p463
F0.977939
s(lp464
(g106
I13
tp465
atp466
a(S'arbeit'
p467
(dp468
S'ADJ'
p469
F0.050987
sS'NOUN'
p470
F0.934481
s(lp471
(g113
I14
tp472
atp473
a(S'danken'
p474
(dp475
S'VERB'
p476
F1.0
s(lp477
(g74
I9
tp478
atp479
a(g43
(dp480
g5
F1.0
s(lp481
tp482
a(S'die'
p483
(dp484
S'PRON'
p485
F0.969134
sS'DET'
p486
F0.026207
s(lp487
(g130
I15
tp488
atp489
a(S'von'
p490
(dp491
S'NOUN'
p492
F0.000175
sS'ADP'
p493
F0.999825
s(lp494
tp495
a(S'der'
p496
(dp497
S'PRON'
p498
F0.000117
sS'DET'
p499
F0.999847
s(lp500
(g139
I16
tp501
atp502
a(S'kommission'
p503
(dp504
S'ADJ'
p505
F0.055697
sS'NOUN'
p506
F0.930943
s(lp507
(g146
I17
tp508
atp509
a(S'geleistet'
p510
(dp511
S'VERB'
p512
F1.0
s(lp513
(g122
I19
tp514
atp515
a(S'wurde'
p516
(dp517
S'VERB'
p518
F1.0
s(lp519
(g258
I18
tp520
atp521
a(g5
(dp522
g5
F1.0
s(lp523
(g5
I20
tp524
atp525
asS'it'
p526
(lp527
(g3
(dp528
g5
F1.0
s(lp529
(g3
I0
tp530
atp531
a(S'fi'
p532
(dp533
S'NOUN'
p534
F0.003774
sS'VERB'
p535
F0.984512
sS'ADJ'
p536
F0.011715
s(lp537
(g14
I1
tp538
atp539
a(g17
(dp540
g5
F1.0
s(lp541
(g17
I2
tp542
atp543
a(S'signor'
p544
(dp545
S'NOUN'
p546
F1.0
s(lp547
(g26
I3
tp548
atp549
a(S'presidente'
p550
(dp551
S'NOUN'
p552
F1.0
s(lp553
(g40
I4
tp554
atp555
a(g43
(dp556
g5
F1.0
s(lp557
(g43
I5
tp558
atp559
a(S'desidero'
p560
(dp561
S'VERB'
p562
F1.0
s(lp563
(g60
I7
tp564
atp565
a(S'ringraziare'
p566
(dp567
S'VERB'
p568
F1.0
s(lp569
(g74
I9
tp570
atp571
a(S'il'
p572
(dp573
S'DET'
p574
F1.0
s(lp575
tp576
a(S'commissario'
p577
(dp578
S'VERB'
p579
F0.000433
sS'NOUN'
p580
F0.999567
s(lp581
(g83
I10
tp582
atp583
a(S'georgieva'
p584
(dp585
S'NOUN'
p586
F0.008709
sS'VERB'
p587
F0.228302
sS'ADJ'
p588
F0.762989
s(lp589
(g90
I11
tp590
atp591
a(S'per'
p592
(dp593
S'CONJ'
p594
F0.049095
sS'ADP'
p595
F0.950905
s(lp596
(g98
I12
tp597
atp598
a(S'il'
p599
(dp600
S'DET'
p601
F1.0
s(lp602
(g106
I13
tp603
atp604
a(S'lavoro'
p605
(dp606
S'VERB'
p607
F0.000427
sS'NOUN'
p608
F0.999573
s(lp609
tp610
a(S'svolto'
p611
(dp612
S'VERB'
p613
F0.907581
sS'ADJ'
p614
F0.092419
s(lp615
(g113
I14
tp616
atp617
a(S'dalla'
p618
(dp619
S'NOUN'
p620
F1e-05
sS'ADP'
p621
F0.99999
s(lp622
(g139
I16
tp623
atp624
a(S'commissione'
p625
(dp626
S'NOUN'
p627
F1.0
s(lp628
(g146
I17
tp629
atp630
a(g5
(dp631
g5
F1.0
s(lp632
(g5
I20
tp633
atp634
asS'sk'
p635
(lp636
(g3
(dp637
g5
F1.0
s(lp638
(g3
I0
tp639
atp640
a(S'fi'
p641
(dp642
g11
F1.0
s(lp643
(g14
I1
tp644
atp645
a(g17
(dp646
g5
F1.0
s(lp647
(g17
I2
tp648
atp649
a(S'v\xc3\xa1\xc5\xbeen\xc3\xbd'
p650
(dp651
S'VERB'
p652
F0.273237
sS'ADJ'
p653
F0.726763
s(lp654
tp655
a(S'p\xc3\xa1n'
p656
(dp657
S'NOUN'
p658
F1.0
s(lp659
(g26
I3
tp660
atp661
a(S'predsedaj\xc3\xbaci'
p662
(dp663
S'VERB'
p664
F1.0
s(lp665
(g40
I4
tp666
atp667
a(g43
(dp668
g5
F1.0
s(lp669
(g43
I5
tp670
atp671
a(S'chcem'
p672
(dp673
S'VERB'
p674
F1.0
s(lp675
(g60
I7
tp676
atp677
a(S'po\xc4\x8fakova\xc5\xa5'
p678
(dp679
S'VERB'
p680
F1.0
s(lp681
(g74
I9
tp682
atp683
a(S'pani'
p684
(dp685
S'NOUN'
p686
F1.0
s(lp687
tp688
a(S'komis\xc3\xa1rke'
p689
(dp690
S'NOUN'
p691
F1.0
s(lp692
(g83
I10
tp693
atp694
a(S'georgievovej'
p695
(dp696
S'ADJ'
p697
F0.008111
sS'VERB'
p698
F0.000438
sS'NOUN'
p699
F0.9914510000000001
s(lp700
(g90
I11
tp701
atp702
a(S'za'
p703
(dp704
g11
F0.00034899999999999997
sS'ADP'
p705
F0.999629
sS'PRT'
p706
F2.2e-05
s(lp707
(g98
I12
tp708
atp709
a(S'pr\xc3\xa1cu'
p710
(dp711
S'NOUN'
p712
F1.0
s(lp713
(g113
I14
tp714
atp715
a(g43
(dp716
g5
F1.0
s(lp717
tp718
a(S'ktor\xc3\xba'
p719
(dp720
S'PRON'
p721
F1.0
s(lp722
(g130
I15
tp723
atp724
a(S'komisia'
p725
(dp726
S'NOUN'
p727
F1.0
s(lp728
(g146
I17
tp729
atp730
a(S'vykonala'
p731
(dp732
S'VERB'
p733
F1.000001
s(lp734
(g122
I19
tp735
atp736
a(g5
(dp737
g5
F1.0
s(lp738
(g5
I20
tp739
atp740
asS'pl'
p741
(lp742
(g3
(dp743
S'NOUN'
p744
F0.000747
sg5
F0.999253
s(lp745
(g3
I0
tp746
atp747
a(S'fi'
p748
(dp749
S'ADV'
p750
F0.005655
sg11
F0.002076
sS'ADJ'
p751
F0.001537
sS'VERB'
p752
F0.044788999999999995
sS'NOUN'
p753
F0.945943
s(lp754
(g14
I1
tp755
atp756
a(g17
(dp757
g5
F1.0
s(lp758
(g17
I2
tp759
atp760
a(S'panie'
p761
(dp762
S'NOUN'
p763
F1.0
s(lp764
(g26
I3
tp765
atp766
a(S'przewodnicz\xc4\x85cy'
p767
(dp768
S'VERB'
p769
F0.000602
sS'NOUN'
p770
F0.999398
s(lp771
tp772
a(g418
(dp773
g5
F1.0
s(lp774
(g40
I4
tp775
atp776
a(S'chcia\xc5\x82bym'
p777
(dp778
S'ADV'
p779
F0.041723
sS'ADJ'
p780
F0.008087999999999998
sS'VERB'
p781
F0.903913
sS'NOUN'
p782
F0.046274
s(lp783
(g60
I7
tp784
atp785
a(S'podzi\xc4\x99kowa\xc4\x87'
p786
(dp787
S'VERB'
p788
F1.0
s(lp789
(g74
I9
tp790
atp791
a(S'pani'
p792
(dp793
S'NOUN'
p794
F1.0
s(lp795
tp796
a(S'komisarz'
p797
(dp798
S'NOUN'
p799
F1.0
s(lp800
(g83
I10
tp801
atp802
a(S'georgievej'
p803
(dp804
S'ADV'
p805
F0.014736
sS'ADJ'
p806
F0.099528
sS'VERB'
p807
F0.17177800000000004
sS'NOUN'
p808
F0.7108880000000001
sS'PRT'
p809
F0.003069
s(lp810
(g90
I11
tp811
atp812
a(S'za'
p813
(dp814
S'PRT'
p815
F0.002489
sS'VERB'
p816
F0.0011149999999999999
sS'NOUN'
p817
F3.1e-05
sS'ADP'
p818
F0.9963650000000001
sg11
F0.0
s(lp819
(g98
I12
tp820
atp821
a(S'prac\xc4\x99'
p822
(dp823
S'NOUN'
p824
F1.0
s(lp825
(g113
I14
tp826
atp827
a(g43
(dp828
g11
F0.0
sg5
F1.0
s(lp829
tp830
a(S'jak\xc4\x85'
p831
(dp832
S'ADJ'
p833
F1.0
s(lp834
(g130
I15
tp835
atp836
a(S'wykona\xc5\x82a'
p837
(dp838
S'VERB'
p839
F1.0
s(lp840
(g122
I19
tp841
atp842
a(S'komisja'
p843
(dp844
S'NOUN'
p845
F1.0
s(lp846
(g146
I17
tp847
atp848
a(g5
(dp849
g5
F1.0
s(lp850
(g5
I20
tp851
atp852
asS'sl'
p853
(lp854
(g3
(dp855
g5
F1.0
s(lp856
(g3
I0
tp857
atp858
a(S'fi'
p859
(dp860
g11
F1.0
s(lp861
(g14
I1
tp862
atp863
a(g17
(dp864
g5
F1.0
s(lp865
(g17
I2
tp866
atp867
a(S'gospod'
p868
(dp869
S'NOUN'
p870
F1.0
s(lp871
(g26
I3
tp872
atp873
a(S'predsednik'
p874
(dp875
S'NOUN'
p876
F1.0
s(lp877
(g40
I4
tp878
atp879
a(g43
(dp880
g5
F1.0
s(lp881
(g43
I5
tp882
atp883
a(S'rad'
p884
(dp885
S'ADV'
p886
F1.0
s(lp887
tp888
a(S'bi'
p889
(dp890
g11
F3.4e-05
sS'VERB'
p891
F0.999966
s(lp892
(g60
I7
tp893
atp894
a(S'se'
p895
(dp896
S'PRON'
p897
F0.999997
sg11
F3e-06
s(lp898
tp899
a(S'zahvalil'
p900
(dp901
S'VERB'
p902
F1.0
s(lp903
(g74
I9
tp904
atp905
a(S'komisarki'
p906
(dp907
S'ADV'
p908
F0.000658
sS'NOUN'
p909
F0.020198
sS'VERB'
p910
F0.00092
sS'ADJ'
p911
F0.9782210000000001
s(lp912
(g83
I10
tp913
atp914
a(S'georgievi'
p915
(dp916
S'ADV'
p917
F0.019384
sS'ADJ'
p918
F0.047578000000000016
sS'VERB'
p919
F0.000974
sS'NOUN'
p920
F0.9320650000000001
s(lp921
(g90
I11
tp922
atp923
a(S'za'
p924
(dp925
S'ADV'
p926
F2.1e-05
sg11
F1.2e-05
sS'ADP'
p927
F0.999967
s(lp928
(g98
I12
tp929
atp930
a(S'delo'
p931
(dp932
S'NOUN'
p933
F1.0
s(lp934
(g113
I14
tp935
atp936
a(g43
(dp937
g5
F1.0
s(lp938
tp939
a(S'ki'
p940
(dp941
S'CONJ'
p942
F1.0
s(lp943
(g130
I15
tp944
atp945
a(S'ga'
p946
(dp947
S'PRON'
p948
F1.0000010000000001
s(lp949
(g139
I16
tp950
atp951
a(S'je'
p952
(dp953
S'PRON'
p954
F1.3e-05
sS'VERB'
p955
F0.999987
sg11
F0.0
s(lp956
(g258
I18
tp957
atp958
a(S'opravila'
p959
(dp960
S'VERB'
p961
F0.998986
sS'NOUN'
p962
F0.0010149999999999998
s(lp963
(g122
I19
tp964
atp965
a(S'komisija'
p966
(dp967
S'NOUN'
p968
F1.0
s(lp969
(g146
I17
tp970
atp971
a(g5
(dp972
g5
F1.0
s(lp973
(g5
I20
tp974
atp975
asS'es'
p976
(lp977
(g3
(dp978
g5
F1.0
s(lp979
(g3
I0
tp980
atp981
a(S'fi'
p982
(dp983
S'ADV'
p984
F0.061749
sS'ADJ'
p985
F0.386012
sS'VERB'
p986
F0.012539
sS'NOUN'
p987
F0.5397000000000001
s(lp988
(g14
I1
tp989
atp990
a(g17
(dp991
g5
F1.0
s(lp992
(g17
I2
tp993
atp994
a(S'se\xc3\xb1or'
p995
(dp996
S'NOUN'
p997
F1.0
s(lp998
(g26
I3
tp999
atp1000
a(S'presidente'
p1001
(dp1002
S'NOUN'
p1003
F1.0
s(lp1004
(g40
I4
tp1005
atp1006
a(g43
(dp1007
g5
F1.0
s(lp1008
(g43
I5
tp1009
atp1010
a(S'deseo'
p1011
(dp1012
S'NOUN'
p1013
F1.0
s(lp1014
(g60
I7
tp1015
atp1016
a(S'dar'
p1017
(dp1018
S'VERB'
p1019
F1.0
s(lp1020
(g74
I9
tp1021
atp1022
a(S'las'
p1023
(dp1024
S'PRON'
p1025
F1e-05
sS'DET'
p1026
F0.99999
s(lp1027
tp1028
a(S'gracias'
p1029
(dp1030
S'ADP'
p1031
F1.0
s(lp1032
(g74
I9
tp1033
atp1034
a(S'a'
p1035
(dp1036
S'ADP'
p1037
F1.0
s(lp1038
(g67
I8
tp1039
atp1040
a(S'la'
p1041
(dp1042
S'NOUN'
p1043
F0.0
sS'PRON'
p1044
F0.0
sS'DET'
p1045
F0.999999
sg11
F0.0
s(lp1046
tp1047
a(S'comisaria'
p1048
(dp1049
S'ADJ'
p1050
F0.000511
sS'VERB'
p1051
F5.8e-05
sS'NOUN'
p1052
F0.999432
s(lp1053
(g83
I10
tp1054
atp1055
a(S'georgieva'
p1056
(dp1057
S'ADV'
p1058
F0.000771
sS'NOUN'
p1059
F0.119672
sS'VERB'
p1060
F0.005752
sS'ADJ'
p1061
F0.873805
s(lp1062
(g90
I11
tp1063
atp1064
a(S'por'
p1065
(dp1066
S'ADP'
p1067
F1.0
s(lp1068
(g98
I12
tp1069
atp1070
a(S'el'
p1071
(dp1072
S'PRON'
p1073
F5e-06
sS'DET'
p1074
F0.999995
s(lp1075
(g106
I13
tp1076
atp1077
a(S'trabajo'
p1078
(dp1079
S'NOUN'
p1080
F1.0
s(lp1081
(g113
I14
tp1082
atp1083
a(S'realizado'
p1084
(dp1085
S'VERB'
p1086
F1.0
s(lp1087
(g122
I19
tp1088
atp1089
a(S'por'
p1090
(dp1091
S'ADP'
p1092
F1.0
s(lp1093
(g130
I15
tp1094
atp1095
a(S'la'
p1096
(dp1097
S'NOUN'
p1098
F0.0
sS'PRON'
p1099
F0.0
sS'DET'
p1100
F0.999999
sg11
F0.0
s(lp1101
(g139
I16
tp1102
atp1103
a(S'comisi\xc3\xb3n'
p1104
(dp1105
S'NOUN'
p1106
F1.0
s(lp1107
(g146
I17
tp1108
atp1109
a(g5
(dp1110
g5
F1.0
s(lp1111
(g5
I20
tp1112
atp1113
as.