(dp0
S'fr'
p1
(lp2
(S'lors'
p3
(dp4
S'ADV'
p5
F1.0
s(lp6
(S'at'
p7
I0
tp8
atp9
a(S'du'
p10
(dp11
S'ADP'
p12
F1.0
s(lp13
(S'the'
p14
I1
tp15
atp16
a(S'sommet'
p17
(dp18
S'NOUN'
p19
F1.0
s(lp20
(S'summit'
p21
I2
tp22
atp23
a(S','
p24
(dp25
S'.'
p26
F1.0
s(lp27
(g24
I3
tp28
atp29
a(S'nous'
p30
(dp31
S'PRON'
p32
F1.0
s(lp33
tp34
a(S'devrions'
p35
(dp36
S'VERB'
p37
F1.0
s(lp38
(S'we'
p39
I4
tp40
atp41
a(S'rapidement'
p42
(dp43
S'ADV'
p44
F1.0
s(lp45
(S'speedy'
p46
I8
tp47
atp48
a(S'pouvoir'
p49
(dp50
S'VERB'
p51
F0.966787
sS'NOUN'
p52
F0.033213
s(lp53
(S'achieve'
p54
I6
tp55
atp56
a(S'conclure'
p57
(dp58
S'VERB'
p59
F1.0
s(lp60
(S'conclusion'
p61
I9
tp62
atp63
a(S'les'
p64
(dp65
S'PRON'
p66
F3.1e-05
sS'DET'
p67
F0.999948
sS'ADP'
p68
F2.1e-05
s(lp69
tp70
a(S'n\xc3\xa9gociations'
p71
(dp72
S'NOUN'
p73
F1.0
s(lp74
(S'negotiations'
p75
I11
tp76
atp77
a(S'concernant'
p78
(dp79
S'VERB'
p80
F0.781815
sS'ADP'
p81
F0.218185
s(lp82
(S'on'
p83
I12
tp84
atp85
a(S'le'
p86
(dp87
S'PRON'
p88
F1e-06
sS'DET'
p89
F0.999999
s(lp90
(S'the'
p91
I13
tp92
atp93
a(S'deuxi\xc3\xa8me'
p94
(dp95
S'NUM'
p96
F0.999212
sS'NOUN'
p97
F0.000788
s(lp98
(S'second'
p99
I14
tp100
atp101
a(S'volet'
p102
(dp103
S'NOUN'
p104
F1.0
s(lp105
(S'stage'
p106
I15
tp107
atp108
a(S'de'
p109
(dp110
S'ADP'
p111
F1.0
s(lp112
(S'of'
p113
I16
tp114
atp115
a(S"l'"
p116
(dp117
S'ADJ'
p118
F0.160704
sS'VERB'
p119
F0.06480800000000002
sS'NOUN'
p120
F0.774488
s(lp121
(S'the'
p122
I17
tp123
atp124
a(S'accord'
p125
(dp126
S'NOUN'
p127
F1.0
s(lp128
(S'agreement'
p129
I20
tp130
atp131
a(S'sur'
p132
(dp133
S'ADP'
p134
F1.0
s(lp135
(S'air'
p136
I18
tp137
atp138
a(S'les'
p139
(dp140
S'PRON'
p141
F5.6e-05
sS'DET'
p142
F0.999943
sS'ADP'
p143
F2e-06
s(lp144
tp145
a(S'transports'
p146
(dp147
S'NOUN'
p148
F1.0
s(lp149
(S'transport'
p150
I19
tp151
atp152
a(S'a\xc3\xa9riens'
p153
(dp154
S'ADJ'
p155
F1.0
s(lp156
(g136
I18
tp157
atp158
a(g24
(dp159
g26
F1.0
s(lp160
(g24
I21
tp161
atp162
a(S'qui'
p163
(dp164
S'PRON'
p165
F1.0
s(lp166
(S'which'
p167
I22
tp168
atp169
a(S'donnera'
p170
(dp171
S'VERB'
p172
F1.0
s(lp173
(S'give'
p174
I24
tp175
atp176
a(S'un'
p177
(dp178
S'NOUN'
p179
F4.8e-05
sS'NUM'
p180
F0.004554
sS'DET'
p181
F0.995399
s(lp182
(S'an'
p183
I28
tp184
atp185
a(S'coup'
p186
(dp187
S'NOUN'
p188
F1.0
s(lp189
tp190
a(S'de'
p191
(dp192
S'ADP'
p193
F1.0
s(lp194
tp195
a(S'pouce'
p196
(dp197
S'NOUN'
p198
F1.0
s(lp199
(S'boost'
p200
I30
tp201
atp202
a(S'suppl\xc3\xa9mentaire'
p203
(dp204
S'ADJ'
p205
F1.0
s(lp206
(S'additional'
p207
I29
tp208
atp209
a(S'\xc3\xa0'
p210
(dp211
S'ADP'
p212
F1.0
s(lp213
tp214
a(S"l'"
p215
(dp216
S'ADJ'
p217
F0.160704
sS'VERB'
p218
F0.06480800000000002
sS'NOUN'
p219
F0.774488
s(lp220
(S'the'
p221
I25
tp222
atp223
a(S'\xc3\xa9conomie'
p224
(dp225
S'NOUN'
p226
F1.0
s(lp227
(S'economy'
p228
I27
tp229
atp230
a(S'transatlantique'
p231
(dp232
S'ADJ'
p233
F1.0
s(lp234
(S'transatlantic'
p235
I26
tp236
atp237
a(g26
(dp238
g26
F1.0
s(lp239
(g26
I31
tp240
atp241
asS'en'
p242
(lp243
(g7
(dp244
S'NOUN'
p245
F1e-06
sS'ADP'
p246
F0.999999
s(lp247
(g7
I0
tp248
atp249
a(g14
(dp250
S'NOUN'
p251
F1e-06
sS'DET'
p252
F0.999999
s(lp253
(g14
I1
tp254
atp255
a(g21
(dp256
S'NOUN'
p257
F1.0
s(lp258
(g21
I2
tp259
atp260
a(g24
(dp261
g26
F1.0
s(lp262
(g24
I3
tp263
atp264
a(g39
(dp265
S'PRON'
p266
F1.0
s(lp267
(g39
I4
tp268
atp269
a(S'will'
p270
(dp271
S'VERB'
p272
F1.0
sS'NOUN'
p273
F0.0
s(lp274
(g270
I5
tp275
atp276
a(g54
(dp277
S'VERB'
p278
F1.0
s(lp279
(g54
I6
tp280
atp281
a(S'a'
p282
(dp283
S'NOUN'
p284
F0.0
sS'DET'
p285
F1.0
s(lp286
(g282
I7
tp287
atp288
a(g46
(dp289
S'ADJ'
p290
F1.0
s(lp291
(g46
I8
tp292
atp293
a(g61
(dp294
S'NOUN'
p295
F1.0
s(lp296
(g61
I9
tp297
atp298
a(S'to'
p299
(dp300
S'ADV'
p301
F0.0
sS'PRT'
p302
F0.999991
sS'ADP'
p303
F9e-06
s(lp304
(g299
I10
tp305
atp306
a(g75
(dp307
S'NOUN'
p308
F1.0
s(lp309
(g75
I11
tp310
atp311
a(g83
(dp312
S'ADV'
p313
F0.000757
sS'PRT'
p314
F0.000439
sS'ADJ'
p315
F0.0
sS'ADP'
p316
F0.998804
sS'NOUN'
p317
F0.0
s(lp318
(g83
I12
tp319
atp320
a(g91
(dp321
S'NOUN'
p322
F1e-06
sS'DET'
p323
F0.999999
s(lp324
(g91
I13
tp325
atp326
a(g99
(dp327
S'ADV'
p328
F9.2e-05
sS'NOUN'
p329
F0.016737
sS'VERB'
p330
F1e-06
sS'ADJ'
p331
F0.98317
s(lp332
(g99
I14
tp333
atp334
a(g106
(dp335
S'VERB'
p336
F0.000422
sS'NOUN'
p337
F0.999578
s(lp338
(g106
I15
tp339
atp340
a(g113
(dp341
S'ADP'
p342
F1.0
s(lp343
(g113
I16
tp344
atp345
a(g122
(dp346
S'NOUN'
p347
F1e-06
sS'DET'
p348
F0.999999
s(lp349
(g122
I17
tp350
atp351
a(g136
(dp352
S'VERB'
p353
F0.000397
sS'NOUN'
p354
F0.999604
s(lp355
(g136
I18
tp356
atp357
a(g150
(dp358
S'VERB'
p359
F0.018303
sS'NOUN'
p360
F0.981697
s(lp361
(g150
I19
tp362
atp363
a(g129
(dp364
S'NOUN'
p365
F1.0
s(lp366
(g129
I20
tp367
atp368
a(g24
(dp369
g26
F1.0
s(lp370
(g24
I21
tp371
atp372
a(g167
(dp373
S'DET'
p374
F1.0
s(lp375
(g167
I22
tp376
atp377
a(S'will'
p378
(dp379
S'VERB'
p380
F0.9999950000000001
sS'NOUN'
p381
F6e-06
s(lp382
(g378
I23
tp383
atp384
a(g174
(dp385
S'VERB'
p386
F1.0
s(lp387
(g174
I24
tp388
atp389
a(g221
(dp390
S'NOUN'
p391
F0.0
sS'DET'
p392
F1.0
s(lp393
(g221
I25
tp394
atp395
a(g235
(dp396
S'ADJ'
p397
F1.0
s(lp398
(g235
I26
tp399
atp400
a(g228
(dp401
S'NOUN'
p402
F1.0
s(lp403
(g228
I27
tp404
atp405
a(g183
(dp406
S'DET'
p407
F1.0
s(lp408
(g183
I28
tp409
atp410
a(g207
(dp411
S'ADJ'
p412
F1.0
s(lp413
(g207
I29
tp414
atp415
a(g200
(dp416
S'VERB'
p417
F0.000515
sS'NOUN'
p418
F0.999485
s(lp419
(g200
I30
tp420
atp421
a(g26
(dp422
g26
F1.0
s(lp423
(g26
I31
tp424
atp425
asS'nl'
p426
(lp427
(S'tijdens'
p428
(dp429
S'ADP'
p430
F1.0
s(lp431
(g7
I0
tp432
atp433
a(S'de'
p434
(dp435
S'DET'
p436
F1.0
s(lp437
(g14
I1
tp438
atp439
a(S'top'
p440
(dp441
S'VERB'
p442
F2.4e-05
sS'NOUN'
p443
F0.999976
s(lp444
(g21
I2
tp445
atp446
a(S'zullen'
p447
(dp448
S'VERB'
p449
F1.0
sS'NOUN'
p450
F0.0
s(lp451
(g270
I5
tp452
atp453
a(S'we'
p454
(dp455
S'PRON'
p456
F1.0
s(lp457
(g39
I4
tp458
atp459
a(S'de'
p460
(dp461
S'DET'
p462
F1.0
s(lp463
tp464
a(S'onderhandelingen'
p465
(dp466
S'NOUN'
p467
F1.0
s(lp468
(g75
I11
tp469
atp470
a(S'over'
p471
(dp472
S'ADV'
p473
F0.017648
sS'ADP'
p474
F0.982352
s(lp475
(g83
I12
tp476
atp477
a(S'de'
p478
(dp479
S'DET'
p480
F1.0
s(lp481
(g91
I13
tp482
atp483
a(S'tweede'
p484
(dp485
S'NUM'
p486
F1.0
s(lp487
(g99
I14
tp488
atp489
a(S'fase'
p490
(dp491
S'NOUN'
p492
F1.0
s(lp493
(g106
I15
tp494
atp495
a(S'van'
p496
(dp497
S'ADP'
p498
F1.0
s(lp499
(g113
I16
tp500
atp501
a(S'de'
p502
(dp503
S'DET'
p504
F1.0
s(lp505
(g122
I17
tp506
atp507
a(S'overeenkomst'
p508
(dp509
S'NOUN'
p510
F1.0
s(lp511
(g129
I20
tp512
atp513
a(S'over'
p514
(dp515
S'ADV'
p516
F0.015337
sS'ADP'
p517
F0.984663
s(lp518
(g150
I19
tp519
atp520
a(S'het'
p521
(dp522
S'PRON'
p523
F0.000941
sS'DET'
p524
F0.99906
s(lp525
tp526
a(S'luchtvervoer'
p527
(dp528
S'NOUN'
p529
F1.0
s(lp530
(g136
I18
tp531
atp532
a(S'zo'
p533
(dp534
S'ADV'
p535
F0.999957
sS'X'
p536
F0.0
sS'CONJ'
p537
F4.3e-05
s(lp538
(g46
I8
tp539
atp540
a(S'snel'
p541
(dp542
S'VERB'
p543
F0.116357
sS'ADJ'
p544
F0.883643
s(lp545
tp546
a(S'mogelijk'
p547
(dp548
S'ADJ'
p549
F1.0
s(lp550
(g46
I8
tp551
atp552
a(S'tot'
p553
(dp554
S'CONJ'
p555
F0.000131
sS'ADP'
p556
F0.999869
s(lp557
(g61
I9
tp558
atp559
a(S'een'
p560
(dp561
S'ADJ'
p562
F1e-06
sS'PRON'
p563
F0.000435
sS'NUM'
p564
F1e-06
sS'DET'
p565
F0.999564
s(lp566
(g282
I7
tp567
atp568
a(S'goed'
p569
(dp570
S'ADV'
p571
F4.5e-05
sS'NOUN'
p572
F0.175123
sS'ADJ'
p573
F0.824832
s(lp574
tp575
a(S'einde'
p576
(dp577
S'NOUN'
p578
F1.0
s(lp579
(g61
I9
tp580
atp581
a(S'brengen'
p582
(dp583
S'VERB'
p584
F0.999984
sS'NOUN'
p585
F1.6e-05
s(lp586
(g54
I6
tp587
atp588
a(g24
(dp589
g26
F1.0
s(lp590
(g24
I21
tp591
atp592
a(S'wat'
p593
(dp594
S'ADV'
p595
F0.014231
sS'PRON'
p596
F0.985769
s(lp597
(g167
I22
tp598
atp599
a(S'de'
p600
(dp601
S'DET'
p602
F1.0
s(lp603
(g221
I25
tp604
atp605
a(S'trans-atlantische'
p606
(dp607
S'NOUN'
p608
F0.097305
sS'ADJ'
p609
F0.902695
s(lp610
(g235
I26
tp611
atp612
a(S'economie'
p613
(dp614
S'NOUN'
p615
F1.0
s(lp616
(g228
I27
tp617
atp618
a(S'een'
p619
(dp620
S'ADJ'
p621
F1.1e-05
sS'PRON'
p622
F8.3e-05
sS'NUM'
p623
F2.5e-05
sS'DET'
p624
F0.999881
s(lp625
(g183
I28
tp626
atp627
a(S'bijkomende'
p628
(dp629
S'NOUN'
p630
F3e-06
sS'VERB'
p631
F0.000575
sS'ADJ'
p632
F0.999422
s(lp633
(g207
I29
tp634
atp635
a(S'stimulans'
p636
(dp637
S'NOUN'
p638
F1.0
s(lp639
(g200
I30
tp640
atp641
a(S'zal'
p642
(dp643
S'VERB'
p644
F1.0
s(lp645
(g378
I23
tp646
atp647
a(S'geven'
p648
(dp649
S'VERB'
p650
F0.999959
sS'NOUN'
p651
F4.1e-05
s(lp652
(g174
I24
tp653
atp654
a(g26
(dp655
g26
F1.0
s(lp656
(g26
I31
tp657
atp658
asS'de'
p659
(lp660
(S'wir'
p661
(dp662
S'PRON'
p663
F1.0
s(lp664
(g39
I4
tp665
atp666
a(S'werden'
p667
(dp668
S'VERB'
p669
F0.9994999999999999
s(lp670
(g270
I5
tp671
atp672
a(S'auf'
p673
(dp674
S'ADV'
p675
F5.4e-05
sS'ADP'
p676
F0.999944
s(lp677
(g7
I0
tp678
atp679
a(S'dem'
p680
(dp681
S'PRON'
p682
F4.1e-05
sS'DET'
p683
F0.99995
s(lp684
(g14
I1
tp685
atp686
a(S'gipfel'
p687
(dp688
S'ADJ'
p689
F0.000104
sS'NOUN'
p690
F0.999836
s(lp691
(g21
I2
tp692
atp693
a(S'einen'
p694
(dp695
S'ADJ'
p696
F0.000666
sS'DET'
p697
F0.998739
s(lp698
(g282
I7
tp699
atp700
a(S'z\xc3\xbcgigen'
p701
(dp702
S'ADJ'
p703
F1.0
s(lp704
(g46
I8
tp705
atp706
a(S'abschluss'
p707
(dp708
S'VERB'
p709
F3.9e-05
sS'NOUN'
p710
F0.999944
s(lp711
(g61
I9
tp712
atp713
a(S'der'
p714
(dp715
S'PRON'
p716
F2e-05
sS'DET'
p717
F0.999972
s(lp718
(g113
I16
tp719
atp720
a(S'verhandlungen'
p721
(dp722
S'ADJ'
p723
F0.000133
sS'NOUN'
p724
F0.999757
s(lp725
(g75
I11
tp726
atp727
a(S'\xc3\xbcber'
p728
(dp729
S'PRT'
p730
F9e-05
sS'ADP'
p731
F0.99991
s(lp732
(g83
I12
tp733
atp734
a(S'ein'
p735
(dp736
S'NUM'
p737
F0.000461
sS'DET'
p738
F0.999535
s(lp739
(g122
I17
tp740
atp741
a(S'luftverkehrsabkommen'
p742
(dp743
S'ADJ'
p744
F1.0
s(lp745
(g136
I18
tp746
atp747
a(S'der'
p748
(dp749
S'PRON'
p750
F0.00127
sS'DET'
p751
F0.998532
s(lp752
(g91
I13
tp753
atp754
a(S'zweiten'
p755
(dp756
S'ADJ'
p757
F1.0
s(lp758
(g99
I14
tp759
atp760
a(S'stufe'
p761
(dp762
S'VERB'
p763
F1.0
s(lp764
(g106
I15
tp765
atp766
a(S'erreichen'
p767
(dp768
S'VERB'
p769
F1.0
s(lp770
(g54
I6
tp771
atp772
a(g24
(dp773
g26
F1.0
s(lp774
(g24
I21
tp775
atp776
a(S'was'
p777
(dp778
S'PRON'
p779
F0.976896
s(lp780
(g167
I22
tp781
atp782
a(S'der'
p783
(dp784
S'PRON'
p785
F0.000668
sS'DET'
p786
F0.999169
s(lp787
(g221
I25
tp788
atp789
a(S'transatlantischen'
p790
(dp791
S'ADJ'
p792
F1.0
s(lp793
(g235
I26
tp794
atp795
a(S'wirtschaft'
p796
(dp797
S'VERB'
p798
F3.9e-05
sS'NOUN'
p799
F0.999942
s(lp800
(g228
I27
tp801
atp802
a(S'einen'
p803
(dp804
S'ADJ'
p805
F0.000657
sS'DET'
p806
F0.99875
s(lp807
(g183
I28
tp808
atp809
a(S'zus\xc3\xa4tzlichen'
p810
(dp811
S'ADJ'
p812
F1.0
s(lp813
(g207
I29
tp814
atp815
a(S'schub'
p816
(dp817
S'ADJ'
p818
F1.9e-05
sS'NOUN'
p819
F0.999968
s(lp820
(g200
I30
tp821
atp822
a(S'versetzen'
p823
(dp824
S'VERB'
p825
F1.0
s(lp826
(g174
I24
tp827
atp828
a(S'wird'
p829
(dp830
S'VERB'
p831
F1.0
s(lp832
(g378
I23
tp833
atp834
a(g26
(dp835
g26
F1.0
s(lp836
(g26
I31
tp837
atp838
asS'it'
p839
(lp840
(S'al'
p841
(dp842
S'ADP'
p843
F1.0
s(lp844
(g7
I0
tp845
atp846
a(S'vertice'
p847
(dp848
S'NOUN'
p849
F1.0
s(lp850
(g21
I2
tp851
atp852
a(S'giungeremo'
p853
(dp854
S'VERB'
p855
F1.0
s(lp856
(g54
I6
tp857
atp858
a(g282
(dp859
S'CONJ'
p860
F0.000159
sS'ADP'
p861
F0.999841
s(lp862
(g299
I10
tp863
atp864
a(S'una'
p865
(dp866
S'PRON'
p867
F7.4e-05
sS'DEF'
p868
F0.999926
s(lp869
(g282
I7
tp870
atp871
a(S'rapida'
p872
(dp873
S'NOUN'
p874
F0.061647
sS'ADJ'
p875
F0.938353
s(lp876
(g46
I8
tp877
atp878
a(S'conclusione'
p879
(dp880
S'NOUN'
p881
F1.0
s(lp882
(g61
I9
tp883
atp884
a(S'dei'
p885
(dp886
S'NOUN'
p887
F3e-06
sS'DEF'
p888
F0.001182
sS'ADP'
p889
F0.998815
s(lp890
tp891
a(S'negoziati'
p892
(dp893
S'ADJ'
p894
F0.018033
sS'VERB'
p895
F0.010079
sS'NOUN'
p896
F0.971888
s(lp897
(g75
I11
tp898
atp899
a(S'sulla'
p900
(dp901
S'NOUN'
p902
F0.000414
sS'ADP'
p903
F0.999586
s(lp904
(g83
I12
tp905
atp906
a(S'seconda'
p907
(dp908
S'NOUN'
p909
F0.019348
sS'VERB'
p910
F8.3e-05
sS'ADJ'
p911
F0.980569
s(lp912
(g99
I14
tp913
atp914
a(S'fase'
p915
(dp916
S'NOUN'
p917
F1.0
s(lp918
(g106
I15
tp919
atp920
a(S"dell'"
p921
(dp922
S'ADJ'
p923
F0.040682
sS'VERB'
p924
F0.006560999999999999
sS'NOUN'
p925
F0.952757
s(lp926
(g113
I16
tp927
atp928
a(S'accordo'
p929
(dp930
S'VERB'
p931
F0.00403
sS'NOUN'
p932
F0.99597
s(lp933
(g129
I20
tp934
atp935
a(S'sul'
p936
(dp937
S'ADP'
p938
F1.0
s(lp939
(g122
I17
tp940
atp941
a(S'trasporto'
p942
(dp943
S'VERB'
p944
F8e-05
sS'NOUN'
p945
F0.99992
s(lp946
(g150
I19
tp947
atp948
a(S'aereo'
p949
(dp950
S'NOUN'
p951
F0.009441
sS'ADJ'
p952
F0.990559
s(lp953
(g136
I18
tp954
atp955
a(S'che'
p956
(dp957
S'PRON'
p958
F0.980275
sS'CONJ'
p959
F0.019543
sS'ADJ'
p960
F0.000182
s(lp961
(g167
I22
tp962
atp963
a(S'dar\xc3\xa0'
p964
(dp965
S'VERB'
p966
F1.0
s(lp967
(g174
I24
tp968
atp969
a(S'ulteriore'
p970
(dp971
S'ADJ'
p972
F1.0
s(lp973
(g207
I29
tp974
atp975
a(S'slancio'
p976
(dp977
S'VERB'
p978
F0.051062
sS'NOUN'
p979
F0.948938
s(lp980
(g200
I30
tp981
atp982
a(S"all'"
p983
(dp984
S'ADJ'
p985
F0.03913
sS'VERB'
p986
F0.011531000000000001
sS'NOUN'
p987
F0.949339
s(lp988
(g221
I25
tp989
atp990
a(S'economia'
p991
(dp992
S'NOUN'
p993
F1.0
s(lp994
(g228
I27
tp995
atp996
a(S'transatlantica'
p997
(dp998
S'ADJ'
p999
F1.0
s(lp1000
(g235
I26
tp1001
atp1002
a(g26
(dp1003
g26
F1.0
s(lp1004
(g26
I31
tp1005
atp1006
asS'sk'
p1007
(lp1008
(S'na'
p1009
(dp1010
g536
F0.000193
sS'CONJ'
p1011
F1.5e-05
sS'ADP'
p1012
F0.999793
sS'PRT'
p1013
F0.0
s(lp1014
(g7
I0
tp1015
atp1016
a(S'samite'
p1017
(dp1018
S'NOUN'
p1019
F1.0
s(lp1020
(g21
I2
tp1021
atp1022
a(S'dosiahneme'
p1023
(dp1024
S'VERB'
p1025
F1.0
s(lp1026
(g54
I6
tp1027
atp1028
a(S'r\xc3\xbdchle'
p1029
(dp1030
S'ADV'
p1031
F0.026784
sS'ADJ'
p1032
F0.973216
s(lp1033
(g46
I8
tp1034
atp1035
a(S'zav\xc5\x95\xc5\xa1enie'
p1036
(dp1037
S'NOUN'
p1038
F1.0
s(lp1039
(g61
I9
tp1040
atp1041
a(S'rokovania'
p1042
(dp1043
S'NOUN'
p1044
F1.0
s(lp1045
(g75
I11
tp1046
atp1047
a(S'o'
p1048
(dp1049
g536
F3.8e-05
sS'CONJ'
p1050
F0.000121
sS'NOUN'
p1051
F2e-06
sS'ADP'
p1052
F0.999837
s(lp1053
(g83
I12
tp1054
atp1055
a(S'druhej'
p1056
(dp1057
S'NUM'
p1058
F1.0
s(lp1059
(g99
I14
tp1060
atp1061
a(S'f\xc3\xa1ze'
p1062
(dp1063
S'NOUN'
p1064
F1.0
s(lp1065
(g106
I15
tp1066
atp1067
a(S'dohody'
p1068
(dp1069
S'NOUN'
p1070
F1.0
s(lp1071
(g129
I20
tp1072
atp1073
a(g1048
(dp1074
g536
F0.0007750000000000001
sS'CONJ'
p1075
F5.1e-05
sS'NOUN'
p1076
F1.4000000000000001e-05
sS'ADP'
p1077
F0.99916
s(lp1078
(g122
I17
tp1079
atp1080
a(S'bezpe\xc4\x8dnosti'
p1081
(dp1082
S'NOUN'
p1083
F1.0
s(lp1084
tp1085
a(S'leteckej'
p1086
(dp1087
S'ADJ'
p1088
F1.0
s(lp1089
(g136
I18
tp1090
atp1091
a(S'prev\xc3\xa1dzky'
p1092
(dp1093
S'NOUN'
p1094
F1.0
s(lp1095
(g150
I19
tp1096
atp1097
a(g24
(dp1098
g26
F1.0
s(lp1099
(g24
I21
tp1100
atp1101
a(S'ktor\xc3\xa1'
p1102
(dp1103
S'PRON'
p1104
F1.0
s(lp1105
(g167
I22
tp1106
atp1107
a(S'bude'
p1108
(dp1109
g536
F3e-06
sS'VERB'
p1110
F0.999997
s(lp1111
(g378
I23
tp1112
atp1113
a(S'znamena\xc5\xa5'
p1114
(dp1115
S'VERB'
p1116
F1.0
s(lp1117
(g174
I24
tp1118
atp1119
a(S'\xc4\x8fal\xc5\xa1\xc3\xad'
p1120
(dp1121
S'ADJ'
p1122
F1.0
s(lp1123
(g207
I29
tp1124
atp1125
a(S'podnet'
p1126
(dp1127
S'NOUN'
p1128
F1.0
s(lp1129
(g200
I30
tp1130
atp1131
a(S'pre'
p1132
(dp1133
g536
F0.000106
sS'ADP'
p1134
F0.999894
s(lp1135
(g221
I25
tp1136
atp1137
a(S'transatlantick\xc3\xa9'
p1138
(dp1139
S'ADJ'
p1140
F1.0
s(lp1141
(g235
I26
tp1142
atp1143
a(S'hospod\xc3\xa1rstvo'
p1144
(dp1145
S'NOUN'
p1146
F1.0
s(lp1147
(g228
I27
tp1148
atp1149
a(g26
(dp1150
g26
F1.0
s(lp1151
(g26
I31
tp1152
atp1153
asS'pl'
p1154
(lp1155
(S'na'
p1156
(dp1157
g536
F3e-06
sS'VERB'
p1158
F1e-06
sS'NOUN'
p1159
F1e-06
sS'ADP'
p1160
F0.9999950000000001
sS'PRT'
p1161
F0.0
s(lp1162
(g7
I0
tp1163
atp1164
a(S'szczycie'
p1165
(dp1166
S'NOUN'
p1167
F1.0
s(lp1168
(g21
I2
tp1169
atp1170
a(S'uda'
p1171
(dp1172
S'VERB'
p1173
F0.999497
sS'NOUN'
p1174
F0.000502
s(lp1175
(g270
I5
tp1176
atp1177
a(S'nam'
p1178
(dp1179
S'PRON'
p1180
F1.0
s(lp1181
(g54
I6
tp1182
atp1183
a(S'si\xc4\x99'
p1184
(dp1185
S'PRT'
p1186
F1.0
s(lp1187
(g282
I7
tp1188
atp1189
a(S'szybko'
p1190
(dp1191
S'ADV'
p1192
F1.0
s(lp1193
(g46
I8
tp1194
atp1195
a(S'zako\xc5\x84czy\xc4\x87'
p1196
(dp1197
S'VERB'
p1198
F1.0
s(lp1199
(g61
I9
tp1200
atp1201
a(S'negocjacje'
p1202
(dp1203
S'NOUN'
p1204
F1.0
s(lp1205
(g75
I11
tp1206
atp1207
a(S'dotycz\xc4\x85ce'
p1208
(dp1209
S'VERB'
p1210
F0.9999990000000001
s(lp1211
(g83
I12
tp1212
atp1213
a(S'drugiego'
p1214
(dp1215
S'NOUN'
p1216
F0.004611
sS'ADJ'
p1217
F0.995389
s(lp1218
(g99
I14
tp1219
atp1220
a(S'etapu'
p1221
(dp1222
S'NOUN'
p1223
F1.0
s(lp1224
(g106
I15
tp1225
atp1226
a(S'porozumienia'
p1227
(dp1228
S'VERB'
p1229
F0.006523
sS'NOUN'
p1230
F0.993477
s(lp1231
tp1232
a(S'w'
p1233
(dp1234
S'ADJ'
p1235
F0.0
sg536
F0.0
sS'NOUN'
p1236
F0.0
sS'ADP'
p1237
F1.0
s(lp1238
(g122
I17
tp1239
atp1240
a(S'sprawie'
p1241
(dp1242
S'NOUN'
p1243
F1.0
s(lp1244
(g129
I20
tp1245
atp1246
a(S'transportu'
p1247
(dp1248
S'NOUN'
p1249
F1.0
s(lp1250
(g150
I19
tp1251
atp1252
a(S'lotniczego'
p1253
(dp1254
S'ADJ'
p1255
F1.0
s(lp1256
(g136
I18
tp1257
atp1258
a(g24
(dp1259
g536
F0.0
sg26
F1.0
s(lp1260
(g24
I21
tp1261
atp1262
a(S'co'
p1263
(dp1264
S'PRT'
p1265
F0.037505
sS'CONJ'
p1266
F0.620105
sS'NOUN'
p1267
F0.30178699999999997
sS'ADP'
p1268
F0.040603
s(lp1269
(g167
I22
tp1270
atp1271
a(S'dodatkowo'
p1272
(dp1273
S'ADV'
p1274
F1.0
s(lp1275
(g207
I29
tp1276
atp1277
a(S'nap\xc4\x99dzi'
p1278
(dp1279
S'ADJ'
p1280
F0.00016900000000000002
sS'VERB'
p1281
F0.9993229999999999
sS'NOUN'
p1282
F0.000508
s(lp1283
(g200
I30
tp1284
atp1285
a(S'gospodark\xc4\x99'
p1286
(dp1287
S'NOUN'
p1288
F1.0
s(lp1289
(g228
I27
tp1290
atp1291
a(S'transatlantyck\xc4\x85'
p1292
(dp1293
S'NOUN'
p1294
F0.35162400000000005
sS'VERB'
p1295
F0.0022590000000000006
sS'ADJ'
p1296
F0.6461159999999999
s(lp1297
(g235
I26
tp1298
atp1299
a(g26
(dp1300
g26
F1.0
s(lp1301
(g26
I31
tp1302
atp1303
asS'sl'
p1304
(lp1305
(S'na'
p1306
(dp1307
S'ADP'
p1308
F1.0
s(lp1309
(g7
I0
tp1310
atp1311
a(S'sre\xc4\x8danju'
p1312
(dp1313
S'NOUN'
p1314
F1.0
s(lp1315
(g21
I2
tp1316
atp1317
a(S'na'
p1318
(dp1319
S'ADP'
p1320
F1.0
s(lp1321
tp1322
a(S'vrhu'
p1323
(dp1324
S'NOUN'
p1325
F0.9999990000000001
sS'ADP'
p1326
F1e-06
s(lp1327
(g21
I2
tp1328
atp1329
a(S'bomo'
p1330
(dp1331
S'VERB'
p1332
F1.0
s(lp1333
(g270
I5
tp1334
atp1335
a(S'hitro'
p1336
(dp1337
S'ADV'
p1338
F0.999048
sS'ADJ'
p1339
F0.0009509999999999999
s(lp1340
(g46
I8
tp1341
atp1342
a(S'zaklju\xc4\x8dili'
p1343
(dp1344
S'VERB'
p1345
F1.0
s(lp1346
(g61
I9
tp1347
atp1348
a(S'pogajanja'
p1349
(dp1350
S'NOUN'
p1351
F1.0
s(lp1352
(g75
I11
tp1353
atp1354
a(g1048
(dp1355
S'NOUN'
p1356
F2e-06
sS'ADP'
p1357
F0.999998
s(lp1358
(g83
I12
tp1359
atp1360
a(S'drugi'
p1361
(dp1362
S'NUM'
p1363
F0.999999
s(lp1364
(g99
I14
tp1365
atp1366
a(S'fazi'
p1367
(dp1368
S'NOUN'
p1369
F1.0
s(lp1370
(g106
I15
tp1371
atp1372
a(S'sporazuma'
p1373
(dp1374
S'NOUN'
p1375
F1.0
s(lp1376
(g129
I20
tp1377
atp1378
a(g1048
(dp1379
S'NOUN'
p1380
F3e-06
sS'ADP'
p1381
F0.999997
s(lp1382
(g113
I16
tp1383
atp1384
a(S'zra\xc4\x8dnem'
p1385
(dp1386
S'ADV'
p1387
F0.0
sS'NOUN'
p1388
F1e-05
sS'VERB'
p1389
F0.0
sS'ADJ'
p1390
F0.99999
s(lp1391
(g136
I18
tp1392
atp1393
a(S'prometu'
p1394
(dp1395
S'NOUN'
p1396
F1.0
s(lp1397
(g150
I19
tp1398
atp1399
a(g24
(dp1400
g26
F1.0
s(lp1401
(g24
I21
tp1402
atp1403
a(S'kar'
p1404
(dp1405
S'ADV'
p1406
F0.030688
sS'PRON'
p1407
F0.9693120000000001
s(lp1408
(g167
I22
tp1409
atp1410
a(S'bo'
p1411
(dp1412
S'VERB'
p1413
F1.0
s(lp1414
(g378
I23
tp1415
atp1416
a(S'dodatno'
p1417
(dp1418
S'ADV'
p1419
F0.996382
sS'ADJ'
p1420
F0.003619
s(lp1421
(g207
I29
tp1422
atp1423
a(S'spodbudilo'
p1424
(dp1425
S'VERB'
p1426
F1.0
s(lp1427
(g200
I30
tp1428
atp1429
a(S'\xc4\x8dezatlantsko'
p1430
(dp1431
S'ADV'
p1432
F0.001582
sS'NOUN'
p1433
F0.003454999999999999
sS'VERB'
p1434
F6.4e-05
sS'ADJ'
p1435
F0.9949000000000001
s(lp1436
(g235
I26
tp1437
atp1438
a(S'trgovino'
p1439
(dp1440
S'NOUN'
p1441
F1.0
s(lp1442
(g228
I27
tp1443
atp1444
a(g26
(dp1445
g26
F1.0
s(lp1446
(g26
I31
tp1447
atp1448
asS'es'
p1449
(lp1450
(S'en'
p1451
(dp1452
g536
F7e-06
sS'CONJ'
p1453
F2e-06
sS'ADP'
p1454
F0.999992
s(lp1455
(g7
I0
tp1456
atp1457
a(S'la'
p1458
(dp1459
g536
F3e-06
sS'PRON'
p1460
F0.0
sS'DET'
p1461
F0.999997
sS'NOUN'
p1462
F0.0
s(lp1463
(g14
I1
tp1464
atp1465
a(S'cumbre'
p1466
(dp1467
S'NOUN'
p1468
F1.0
s(lp1469
(g21
I2
tp1470
atp1471
a(g24
(dp1472
g26
F1.0
s(lp1473
(g24
I3
tp1474
atp1475
a(S'lograremos'
p1476
(dp1477
S'VERB'
p1478
F1.0
s(lp1479
(g270
I5
tp1480
atp1481
a(S'llevar'
p1482
(dp1483
S'VERB'
p1484
F1.0
s(lp1485
(g54
I6
tp1486
atp1487
a(g282
(dp1488
g536
F0.000829
sS'CONJ'
p1489
F0.000137
sS'ADP'
p1490
F0.999034
s(lp1491
(g282
I7
tp1492
atp1493
a(S't\xc3\xa9rmino'
p1494
(dp1495
S'NOUN'
p1496
F1.0
s(lp1497
(g61
I9
tp1498
atp1499
a(S'r\xc3\xa1pidamente'
p1500
(dp1501
S'ADV'
p1502
F1.0
s(lp1503
(g46
I8
tp1504
atp1505
a(S'las'
p1506
(dp1507
S'PRON'
p1508
F0.000139
sS'DET'
p1509
F0.999861
s(lp1510
tp1511
a(S'negociaciones'
p1512
(dp1513
S'NOUN'
p1514
F1.0
s(lp1515
(g75
I11
tp1516
atp1517
a(S'de'
p1518
(dp1519
g536
F0.0
sS'CONJ'
p1520
F1.7e-05
sS'ADP'
p1521
F0.999983
s(lp1522
(g83
I12
tp1523
atp1524
a(S'la'
p1525
(dp1526
g536
F0.0
sS'DET'
p1527
F1.0
sS'NOUN'
p1528
F0.0
sS'PRON'
p1529
F0.0
s(lp1530
(g91
I13
tp1531
atp1532
a(S'segunda'
p1533
(dp1534
S'ADJ'
p1535
F1.0
s(lp1536
(g99
I14
tp1537
atp1538
a(S'fase'
p1539
(dp1540
S'NOUN'
p1541
F1.0
s(lp1542
(g106
I15
tp1543
atp1544
a(S'del'
p1545
(dp1546
S'ADP'
p1547
F1.0
s(lp1548
(g113
I16
tp1549
atp1550
a(S'acuerdo'
p1551
(dp1552
S'VERB'
p1553
F0.0
sS'NOUN'
p1554
F1.0
s(lp1555
(g129
I20
tp1556
atp1557
a(S'de'
p1558
(dp1559
g536
F2.9e-05
sS'CONJ'
p1560
F0.000449
sS'ADP'
p1561
F0.999522
s(lp1562
(g122
I17
tp1563
atp1564
a(S'transporte'
p1565
(dp1566
S'VERB'
p1567
F8e-06
sS'NOUN'
p1568
F0.999992
s(lp1569
(g150
I19
tp1570
atp1571
a(S'a\xc3\xa9reo'
p1572
(dp1573
S'ADJ'
p1574
F1.0
s(lp1575
(g136
I18
tp1576
atp1577
a(g24
(dp1578
g26
F1.0
s(lp1579
(g24
I21
tp1580
atp1581
a(S'que'
p1582
(dp1583
g536
F4e-06
sS'CONJ'
p1584
F0.999996
s(lp1585
(g167
I22
tp1586
atp1587
a(S'impulsar\xc3\xa1'
p1588
(dp1589
S'VERB'
p1590
F1.0
s(lp1591
(g200
I30
tp1592
atp1593
a(S'a\xc3\xban'
p1594
(dp1595
S'ADV'
p1596
F1.0
s(lp1597
(g174
I24
tp1598
atp1599
a(S'm\xc3\xa1s'
p1600
(dp1601
S'ADV'
p1602
F0.999999
sS'CONJ'
p1603
F1e-06
s(lp1604
(g207
I29
tp1605
atp1606
a(S'la'
p1607
(dp1608
S'PRON'
p1609
F0.000348
sS'DET'
p1610
F0.999652
sg536
F0.0
sS'NOUN'
p1611
F0.0
s(lp1612
(g221
I25
tp1613
atp1614
a(S'econom\xc3\xada'
p1615
(dp1616
S'NOUN'
p1617
F1.0
s(lp1618
(g228
I27
tp1619
atp1620
a(S'transatl\xc3\xa1ntica'
p1621
(dp1622
S'ADJ'
p1623
F1.0
s(lp1624
(g235
I26
tp1625
atp1626
a(g26
(dp1627
g26
F1.0
s(lp1628
(g26
I31
tp1629
atp1630
as.