(dp0
S'fr'
p1
(lp2
(S'r\xc3\xa9sultat'
p3
(dp4
S'NOUN'
p5
F1.0
s(lp6
(S'outcome'
p7
I0
tp8
atp9
a(S'du'
p10
(dp11
S'ADP'
p12
F1.0
s(lp13
(S'the'
p14
I2
tp15
atp16
a(S'sommet'
p17
(dp18
S'NOUN'
p19
F1.0
s(lp20
(S'summit'
p21
I4
tp22
atp23
a(S'de'
p24
(dp25
S'ADP'
p26
F1.0
s(lp27
(S'of'
p28
I1
tp29
atp30
a(S"l'"
p31
(dp32
S'ADJ'
p33
F0.160704
sS'VERB'
p34
F0.06480800000000002
sS'NOUN'
p35
F0.774488
s(lp36
tp37
a(S'otan'
p38
(dp39
S'ADJ'
p40
F0.105779
sS'NOUN'
p41
F0.894221
s(lp42
(S'nato'
p43
I3
tp44
atp45
a(S'\xc3\xa0'
p46
(dp47
S'ADP'
p48
F1.0
s(lp49
(S'in'
p50
I5
tp51
atp52
a(S'lisbonne'
p53
(dp54
S'ADJ'
p55
F0.140963
sS'VERB'
p56
F0.00148
sS'NOUN'
p57
F0.857557
s(lp58
(S'lisbon'
p59
I6
tp60
atp61
a(S'('
p62
(dp63
S'.'
p64
F1.0
s(lp65
(g62
I7
tp66
atp67
a(S'd\xc3\xa9bat'
p68
(dp69
S'VERB'
p70
F0.095854
sS'NOUN'
p71
F0.904146
s(lp72
(S'debate'
p73
I8
tp74
atp75
a(S')'
p76
(dp77
g64
F1.0
s(lp78
(g76
I9
tp79
atp80
asS'en'
p81
(lp82
(g7
(dp83
S'NOUN'
p84
F1.0
s(lp85
(g7
I0
tp86
atp87
a(g28
(dp88
S'ADP'
p89
F1.0
s(lp90
(g28
I1
tp91
atp92
a(g14
(dp93
S'NOUN'
p94
F3e-06
sS'DET'
p95
F0.999997
s(lp96
(g14
I2
tp97
atp98
a(g43
(dp99
S'ADV'
p100
F0.000512
sS'ADJ'
p101
F0.217741
sS'VERB'
p102
F0.000204
sS'NOUN'
p103
F0.781544
s(lp104
(g43
I3
tp105
atp106
a(g21
(dp107
S'NOUN'
p108
F1.0
s(lp109
(g21
I4
tp110
atp111
a(g50
(dp112
S'ADV'
p113
F0.00011
sS'PRT'
p114
F0.000196
sS'ADP'
p115
F0.999694
s(lp116
(g50
I5
tp117
atp118
a(g59
(dp119
S'ADJ'
p120
F0.008677
sS'VERB'
p121
F3.6e-05
sS'NOUN'
p122
F0.991288
s(lp123
(g59
I6
tp124
atp125
a(g62
(dp126
g64
F1.0
s(lp127
(g62
I7
tp128
atp129
a(g73
(dp130
S'VERB'
p131
F0.035352
sS'NOUN'
p132
F0.964648
s(lp133
(g73
I8
tp134
atp135
a(g76
(dp136
g64
F1.0
s(lp137
(g76
I9
tp138
atp139
asS'nl'
p140
(lp141
(S'resultaat'
p142
(dp143
S'NOUN'
p144
F1.0
s(lp145
(g7
I0
tp146
atp147
a(S'van'
p148
(dp149
S'ADP'
p150
F1.0
s(lp151
(g28
I1
tp152
atp153
a(S'de'
p154
(dp155
S'DET'
p156
F1.0
s(lp157
(g14
I2
tp158
atp159
a(S'navo-top'
p160
(dp161
S'ADV'
p162
F0.000163
sS'ADJ'
p163
F0.005204
sS'NOUN'
p164
F0.994633
s(lp165
(g43
I3
tp166
atp167
a(S'in'
p168
(dp169
S'ADV'
p170
F0.001526
sS'VERB'
p171
F1e-06
sS'ADP'
p172
F0.998473
s(lp173
(g50
I5
tp174
atp175
a(S'lissabon'
p176
(dp177
S'NOUN'
p178
F1.0
s(lp179
(g59
I6
tp180
atp181
a(g62
(dp182
g64
F1.0
s(lp183
(g62
I7
tp184
atp185
a(S'debat'
p186
(dp187
S'NOUN'
p188
F1.0
s(lp189
(g73
I8
tp190
atp191
a(g76
(dp192
g64
F1.0
s(lp193
(g76
I9
tp194
atp195
asS'de'
p196
(lp197
(S'ergebnisse'
p198
(dp199
S'ADJ'
p200
F0.27169
sS'NOUN'
p201
F0.702441
s(lp202
(g7
I0
tp203
atp204
a(S'des'
p205
(dp206
S'DET'
p207
F1.0
s(lp208
(g28
I1
tp209
atp210
a(S'nato-gipfels'
p211
(dp212
S'ADJ'
p213
F0.021467
sS'NOUN'
p214
F0.960843
s(lp215
(g43
I3
tp216
atp217
a(S'von'
p218
(dp219
S'NOUN'
p220
F0.004353
sS'ADP'
p221
F0.995647
s(lp222
tp223
a(S'lissabon'
p224
(dp225
S'NOUN'
p226
F0.997565
s(lp227
(g59
I6
tp228
atp229
a(g62
(dp230
g64
F1.0
s(lp231
(g62
I7
tp232
atp233
a(S'aussprache'
p234
(dp235
S'VERB'
p236
F0.375477
sS'NOUN'
p237
F0.472564
s(lp238
(g73
I8
tp239
atp240
a(g76
(dp241
g64
F1.0
s(lp242
(g76
I9
tp243
atp244
asS'it'
p245
(lp246
(S'esito'
p247
(dp248
S'VERB'
p249
F0.025589
sS'NOUN'
p250
F0.974411
s(lp251
(g7
I0
tp252
atp253
a(S'del'
p254
(dp255
S'DEF'
p256
F0.002506
sS'ADP'
p257
F0.997494
s(lp258
(g28
I1
tp259
atp260
a(S'vertice'
p261
(dp262
S'NOUN'
p263
F1.0
s(lp264
(g21
I4
tp265
atp266
a(S'nato'
p267
(dp268
S'NOUN'
p269
F0.027029
sS'VERB'
p270
F0.670468
sS'ADJ'
p271
F0.302503
s(lp272
(g43
I3
tp273
atp274
a(S'di'
p275
(dp276
S'CONJ'
p277
F5e-05
sS'ADP'
p278
F0.99995
s(lp279
tp280
a(S'lisbona'
p281
(dp282
S'ADJ'
p283
F0.01353
sS'VERB'
p284
F0.6809379999999999
sS'NOUN'
p285
F0.305532
s(lp286
(g59
I6
tp287
atp288
a(g62
(dp289
g64
F1.0
s(lp290
(g62
I7
tp291
atp292
a(S'discussione'
p293
(dp294
S'NOUN'
p295
F1.0
s(lp296
(g73
I8
tp297
atp298
a(g76
(dp299
g64
F1.0
s(lp300
(g76
I9
tp301
atp302
asS'sk'
p303
(lp304
(S'v\xc3\xbdsledok'
p305
(dp306
S'NOUN'
p307
F1.0
s(lp308
(g7
I0
tp309
atp310
a(S'samitu'
p311
(dp312
S'NOUN'
p313
F1.0
s(lp314
(g21
I4
tp315
atp316
a(S'nato'
p317
(dp318
S'ADV'
p319
F0.887882
sS'PRON'
p320
F0.080008
sS'X'
p321
F0.032109
s(lp322
(g43
I3
tp323
atp324
a(S'v'
p325
(dp326
g321
F0.003083
sS'ADP'
p327
F0.996917
s(lp328
(g50
I5
tp329
atp330
a(S'lisabone'
p331
(dp332
g321
F0.084727
sS'VERB'
p333
F0.0005340000000000002
sS'NOUN'
p334
F0.91474
s(lp335
(g59
I6
tp336
atp337
a(g62
(dp338
g64
F1.0
s(lp339
(g62
I7
tp340
atp341
a(S'rozprava'
p342
(dp343
S'NOUN'
p344
F1.0
s(lp345
(g73
I8
tp346
atp347
a(g76
(dp348
g64
F1.0
s(lp349
(g76
I9
tp350
atp351
asS'pl'
p352
(lp353
(S'wyniki'
p354
(dp355
S'NOUN'
p356
F1.0
s(lp357
(g7
I0
tp358
atp359
a(S'szczytu'
p360
(dp361
S'NOUN'
p362
F1.0
s(lp363
(g21
I4
tp364
atp365
a(S'nato'
p366
(dp367
S'NOUN'
p368
F1.0
s(lp369
(g43
I3
tp370
atp371
a(S'w'
p372
(dp373
S'ADJ'
p374
F1e-06
sg321
F3e-06
sS'NOUN'
p375
F7e-06
sS'ADP'
p376
F0.999989
s(lp377
(g50
I5
tp378
atp379
a(S'lizbonie'
p380
(dp381
S'ADV'
p382
F0.002709
sS'ADJ'
p383
F0.00045000000000000004
sS'VERB'
p384
F0.011452999999999998
sS'NOUN'
p385
F0.9853900000000001
s(lp386
(g59
I6
tp387
atp388
a(g62
(dp389
S'NOUN'
p390
F5.6e-05
sg64
F0.999944
s(lp391
(g62
I7
tp392
atp393
a(S'debata'
p394
(dp395
S'NOUN'
p396
F1.0
s(lp397
(g73
I8
tp398
atp399
a(g76
(dp400
g64
F1.0
s(lp401
(g76
I9
tp402
atp403
asS'sl'
p404
(lp405
(S'izid'
p406
(dp407
S'NOUN'
p408
F1.0
s(lp409
(g7
I0
tp410
atp411
a(S'vrhunskega'
p412
(dp413
S'ADJ'
p414
F1.0
s(lp415
tp416
a(S'sre\xc4\x8danja'
p417
(dp418
S'NOUN'
p419
F0.9999990000000001
s(lp420
(g21
I4
tp421
atp422
a(S'nata'
p423
(dp424
S'ADV'
p425
F0.000376
sS'ADJ'
p426
F0.006138
sS'VERB'
p427
F0.08114699999999998
sS'NOUN'
p428
F0.912241
sg321
F0.000102
s(lp429
(g43
I3
tp430
atp431
a(g325
(dp432
S'ADP'
p433
F1.0
s(lp434
(g50
I5
tp435
atp436
a(S'lizboni'
p437
(dp438
S'ADV'
p439
F0.000166
sS'ADJ'
p440
F0.008994999999999998
sS'VERB'
p441
F2.8000000000000006e-05
sS'NOUN'
p442
F0.9908109999999999
s(lp443
(g59
I6
tp444
atp445
a(g62
(dp446
g64
F1.0
s(lp447
(g62
I7
tp448
atp449
a(S'razprava'
p450
(dp451
S'NOUN'
p452
F1.0
s(lp453
(g73
I8
tp454
atp455
a(g76
(dp456
g64
F1.0
s(lp457
(g76
I9
tp458
atp459
asS'es'
p460
(lp461
(S'resultados'
p462
(dp463
S'NOUN'
p464
F1.0
s(lp465
(g7
I0
tp466
atp467
a(S'de'
p468
(dp469
g321
F0.0
sS'CONJ'
p470
F1.7e-05
sS'ADP'
p471
F0.999983
s(lp472
(g28
I1
tp473
atp474
a(S'la'
p475
(dp476
g321
F0.0
sS'PRON'
p477
F0.0
sS'DET'
p478
F0.999999
sS'NOUN'
p479
F0.0
s(lp480
(g14
I2
tp481
atp482
a(S'cumbre'
p483
(dp484
S'NOUN'
p485
F1.0
s(lp486
(g21
I4
tp487
atp488
a(S'de'
p489
(dp490
g321
F6.6e-05
sS'CONJ'
p491
F0.000183
sS'ADP'
p492
F0.999751
s(lp493
tp494
a(S'la'
p495
(dp496
S'PRON'
p497
F0.0033520000000000004
sS'DET'
p498
F0.995781
sS'NOUN'
p499
F0.000154
sg321
F0.000713
s(lp500
tp501
a(S'otan'
p502
(dp503
S'VERB'
p504
F1.0
s(lp505
(g43
I3
tp506
atp507
a(S'en'
p508
(dp509
g321
F2.2e-05
sS'CONJ'
p510
F0.00026
sS'ADP'
p511
F0.999718
s(lp512
(g50
I5
tp513
atp514
a(S'lisboa'
p515
(dp516
S'ADV'
p517
F0.001684
sS'ADJ'
p518
F0.057886
sS'VERB'
p519
F0.02469
sS'NOUN'
p520
F0.9157409999999999
s(lp521
(g59
I6
tp522
atp523
a(g62
(dp524
g64
F1.0
s(lp525
(g62
I7
tp526
atp527
a(S'debate'
p528
(dp529
S'VERB'
p530
F1.0
s(lp531
(g73
I8
tp532
atp533
a(g76
(dp534
g64
F1.0
s(lp535
(g76
I9
tp536
atp537
as.