(dp0
S'fr'
p1
(lp2
(S'afin'
p3
(dp4
S'CONJ'
p5
F1.0
s(lp6
(S'order'
p7
I1
tp8
atp9
a(S"d'"
p10
(dp11
S'NOUN'
p12
F0.050387
sS'VERB'
p13
F0.8915730000000001
sS'ADJ'
p14
F0.05804
s(lp15
(S'to'
p16
I2
tp17
atp18
a(S'assurer'
p19
(dp20
S'VERB'
p21
F1.0
s(lp22
(S'ensure'
p23
I3
tp24
atp25
a(S'un'
p26
(dp27
S'NOUN'
p28
F1.9e-05
sS'NUM'
p29
F0.007963
sS'DET'
p30
F0.992018
s(lp31
(S'a'
p32
I4
tp33
atp34
a(S'niveau'
p35
(dp36
S'NOUN'
p37
F1.0
s(lp38
(S'level'
p39
I6
tp40
atp41
a(S'\xc3\xa9lev\xc3\xa9'
p42
(dp43
S'VERB'
p44
F0.930039
sS'ADJ'
p45
F0.069961
s(lp46
(S'high'
p47
I5
tp48
atp49
a(S'de'
p50
(dp51
S'ADP'
p52
F1.0
s(lp53
(S'of'
p54
I7
tp55
atp56
a(S's\xc3\xa9curit\xc3\xa9'
p57
(dp58
S'NOUN'
p59
F1.0
s(lp60
(S'safety'
p61
I8
tp62
atp63
a(S'en'
p64
(dp65
S'PRON'
p66
F2e-06
sS'ADP'
p67
F0.999998
s(lp68
(S'in'
p69
I9
tp70
atp71
a(S'toute'
p72
(dp73
S'ADV'
p74
F2.2e-05
sS'PRON'
p75
F0.999978
s(lp76
(S'all'
p77
I10
tp78
atp79
a(S'circonstance'
p80
(dp81
S'NOUN'
p82
F1.0
s(lp83
(S'circumstances'
p84
I11
tp85
atp86
a(S','
p87
(dp88
S'.'
p89
F1.0
s(lp90
(g87
I12
tp91
atp92
a(S"l'"
p93
(dp94
S'ADJ'
p95
F0.13429
sS'VERB'
p96
F0.638201
sS'NOUN'
p97
F0.227509
s(lp98
(S'the'
p99
I13
tp100
atp101
a(S'installation'
p102
(dp103
S'NOUN'
p104
F1.0
s(lp105
(S'installation'
p106
I15
tp107
atp108
a(S'de'
p109
(dp110
S'ADP'
p111
F1.0
s(lp112
tp113
a(S'dispositifs'
p114
(dp115
S'NOUN'
p116
F1.0
s(lp117
(S'systems'
p118
I20
tp119
atp120
a(S"d'"
p121
(dp122
S'NOUN'
p123
F0.032441
sS'VERB'
p124
F0.694014
sS'ADJ'
p125
F0.273544
s(lp126
(S'of'
p127
I16
tp128
atp129
a(S'assistance'
p130
(dp131
S'NOUN'
p132
F1.0
s(lp133
(S'assistance'
p134
I19
tp135
atp136
a(S'au'
p137
(dp138
S'ADP'
p139
F1.0
s(lp140
(S'active'
p141
I17
tp142
atp143
a(S'freinage'
p144
(dp145
S'NOUN'
p146
F1.0
s(lp147
(S'brake'
p148
I18
tp149
atp150
a(S'sur'
p151
(dp152
S'ADP'
p153
F1.0
s(lp154
(S'for'
p155
I21
tp156
atp157
a(S'tous'
p158
(dp159
S'PRON'
p160
F0.999979
sS'NOUN'
p161
F2.1e-05
s(lp162
(S'all'
p163
I22
tp164
atp165
a(S'les'
p166
(dp167
S'PRON'
p168
F0.000162
sS'DET'
p169
F0.999833
sS'ADP'
p170
F4e-06
s(lp171
tp172
a(S'nouveaux'
p173
(dp174
S'NOUN'
p175
F0.011717
sS'ADJ'
p176
F0.988283
s(lp177
(S'new'
p178
I23
tp179
atp180
a(S'v\xc3\xa9hicules'
p181
(dp182
S'VERB'
p183
F0.019069999999999997
sS'NOUN'
p184
F0.98093
s(lp185
(S'vehicles'
p186
I24
tp187
atp188
a(S'\xc3\xa0'
p189
(dp190
S'ADP'
p191
F1.0
s(lp192
tp193
a(S'partir'
p194
(dp195
S'VERB'
p196
F1.0
s(lp197
(S'as'
p198
I25
tp199
atp200
a(S'de'
p201
(dp202
S'ADP'
p203
F1.0
s(lp204
(S'of'
p205
I26
tp206
atp207
a(S'2009'
p208
(dp209
S'X'
p210
F0.006296
sS'NUM'
p211
F0.993704
s(lp212
(S'2009'
p213
I27
tp214
atp215
a(S'envisag\xc3\xa9e'
p216
(dp217
S'VERB'
p218
F1.0
s(lp219
(S'envisaged'
p220
I29
tp221
atp222
a(S'dans'
p223
(dp224
S'NOUN'
p225
F6e-06
sS'ADP'
p226
F0.999994
s(lp227
(S'in'
p228
I30
tp229
atp230
a(S'la'
p231
(dp232
S'PRON'
p233
F1.2e-05
sS'DET'
p234
F0.999988
sS'NOUN'
p235
F0.0
s(lp236
(S'the'
p237
I31
tp238
atp239
a(S'proposition'
p240
(dp241
S'NOUN'
p242
F1.0
s(lp243
(S'proposal'
p244
I33
tp245
atp246
a(S'de'
p247
(dp248
S'ADP'
p249
F1.0
s(lp250
tp251
a(S'la'
p252
(dp253
S'PRON'
p254
F1.2e-05
sS'DET'
p255
F0.999988
sS'NOUN'
p256
F0.0
s(lp257
tp258
a(S'commission'
p259
(dp260
S'NOUN'
p261
F1.0
s(lp262
(S'commission'
p263
I32
tp264
atp265
a(S'ne'
p266
(dp267
S'ADV'
p268
F1.0
s(lp269
tp270
a(S'devrait'
p271
(dp272
S'VERB'
p273
F1.0
s(lp274
(S'should'
p275
I35
tp276
atp277
a(S'pas'
p278
(dp279
S'ADV'
p280
F0.999903
sS'NOUN'
p281
F9.7e-05
s(lp282
(S'not'
p283
I36
tp284
atp285
a(S'remplacer'
p286
(dp287
S'VERB'
p288
F1.0
s(lp289
(S'replace'
p290
I37
tp291
atp292
a(S'les'
p293
(dp294
S'PRON'
p295
F3.1e-05
sS'DET'
p296
F0.999948
sS'ADP'
p297
F2.1e-05
s(lp298
(g237
I31
tp299
atp300
a(S'dispositifs'
p301
(dp302
S'NOUN'
p303
F1.0
s(lp304
(S'systems'
p305
I41
tp306
atp307
a(S'de'
p308
(dp309
S'ADP'
p310
F1.0
s(lp311
tp312
a(S's\xc3\xa9curit\xc3\xa9'
p313
(dp314
S'NOUN'
p315
F1.0
s(lp316
(S'safety'
p317
I40
tp318
atp319
a(S'passive'
p320
(dp321
S'VERB'
p322
F0.174134
sS'ADJ'
p323
F0.825866
s(lp324
(S'passive'
p325
I39
tp326
atp327
a(S'de'
p328
(dp329
S'ADP'
p330
F1.0
s(lp331
tp332
a(S'haut'
p333
(dp334
S'ADV'
p335
F0.102859
sS'NOUN'
p336
F0.014181
sS'ADJ'
p337
F0.88296
s(lp338
tp339
a(S'niveau'
p340
(dp341
S'NOUN'
p342
F1.0
s(lp343
(S'high-level'
p344
I38
tp345
atp346
a(g87
(dp347
g89
F1.0
s(lp348
(g87
I42
tp349
atp350
a(S'mais'
p351
(dp352
S'CONJ'
p353
F1.0
s(lp354
(S'but'
p355
I43
tp356
atp357
a(S'les'
p358
(dp359
S'PRON'
p360
F0.917532
sS'DET'
p361
F0.081548
sS'ADP'
p362
F0.00092
s(lp363
(S'them'
p364
I47
tp365
atp366
a(S'compl\xc3\xa9ter'
p367
(dp368
S'VERB'
p369
F1.0
s(lp370
(S'complement'
p371
I46
tp372
atp373
a(g89
(dp374
g89
F1.0
s(lp375
(g89
I48
tp376
atp377
asS'en'
p378
(lp379
(S'in'
p380
(dp381
S'ADV'
p382
F0.001045
sS'PRT'
p383
F0.0
sS'ADP'
p384
F0.998955
s(lp385
(g380
I0
tp386
atp387
a(g7
(dp388
S'VERB'
p389
F0.0008770000000000001
sS'NOUN'
p390
F0.999122
s(lp391
(g7
I1
tp392
atp393
a(g16
(dp394
S'ADV'
p395
F0.0
sS'PRT'
p396
F1.0
sS'ADP'
p397
F0.0
s(lp398
(g16
I2
tp399
atp400
a(g23
(dp401
S'VERB'
p402
F1.0
s(lp403
(g23
I3
tp404
atp405
a(g32
(dp406
S'NOUN'
p407
F0.0
sS'DET'
p408
F1.0
s(lp409
(g32
I4
tp410
atp411
a(g47
(dp412
S'ADV'
p413
F0.000291
sS'NOUN'
p414
F0.018401
sS'ADJ'
p415
F0.981308
s(lp416
(g47
I5
tp417
atp418
a(g39
(dp419
S'ADJ'
p420
F0.001857
sS'VERB'
p421
F5.8e-05
sS'NOUN'
p422
F0.998085
s(lp423
(g39
I6
tp424
atp425
a(g54
(dp426
S'ADP'
p427
F1.0
s(lp428
(g54
I7
tp429
atp430
a(g61
(dp431
S'VERB'
p432
F4.4e-05
sS'NOUN'
p433
F0.999956
s(lp434
(g61
I8
tp435
atp436
a(g69
(dp437
S'ADV'
p438
F0.000193
sS'PRT'
p439
F0.00028
sS'ADP'
p440
F0.999527
s(lp441
(g69
I9
tp442
atp443
a(g77
(dp444
S'ADV'
p445
F0.000677
sS'DET'
p446
F0.999324
s(lp447
(g77
I10
tp448
atp449
a(g84
(dp450
S'NOUN'
p451
F1.0
s(lp452
(g84
I11
tp453
atp454
a(g87
(dp455
g89
F1.0
s(lp456
(g87
I12
tp457
atp458
a(g99
(dp459
S'NOUN'
p460
F2e-06
sS'DET'
p461
F0.999998
s(lp462
(g99
I13
tp463
atp464
a(S'compulsory'
p465
(dp466
S'ADJ'
p467
F1.0
s(lp468
(g465
I14
tp469
atp470
a(g106
(dp471
S'NOUN'
p472
F1.0
s(lp473
(g106
I15
tp474
atp475
a(g127
(dp476
S'ADP'
p477
F1.0
s(lp478
(g127
I16
tp479
atp480
a(g141
(dp481
S'NOUN'
p482
F0.000449
sS'ADJ'
p483
F0.999551
s(lp484
(g141
I17
tp485
atp486
a(g148
(dp487
S'VERB'
p488
F0.001534
sS'NOUN'
p489
F0.998466
s(lp490
(g148
I18
tp491
atp492
a(g134
(dp493
S'NOUN'
p494
F1.0
s(lp495
(g134
I19
tp496
atp497
a(g118
(dp498
S'NOUN'
p499
F1.0
s(lp500
(g118
I20
tp501
atp502
a(g155
(dp503
S'ADP'
p504
F1.0
s(lp505
(g155
I21
tp506
atp507
a(g163
(dp508
S'ADV'
p509
F0.003975
sS'DET'
p510
F0.996024
s(lp511
(g163
I22
tp512
atp513
a(g178
(dp514
S'NOUN'
p515
F6.8e-05
sS'ADJ'
p516
F0.999932
s(lp517
(g178
I23
tp518
atp519
a(g186
(dp520
S'NOUN'
p521
F1.0
s(lp522
(g186
I24
tp523
atp524
a(g198
(dp525
S'ADV'
p526
F0.267404
sS'ADP'
p527
F0.732596
s(lp528
(g198
I25
tp529
atp530
a(g205
(dp531
S'ADP'
p532
F1.0
s(lp533
(g205
I26
tp534
atp535
a(g213
(dp536
S'ADV'
p537
F0.000218
sS'ADJ'
p538
F0.001596
sS'NUM'
p539
F0.993009
sS'NOUN'
p540
F0.005176
sg210
F0.0
s(lp541
(g213
I27
tp542
atp543
a(g87
(dp544
g89
F1.0
s(lp545
(g87
I28
tp546
atp547
a(g220
(dp548
S'VERB'
p549
F1.0
s(lp550
(g220
I29
tp551
atp552
a(g228
(dp553
S'ADV'
p554
F0.000861
sS'PRT'
p555
F0.006218
sS'ADP'
p556
F0.992921
s(lp557
(g228
I30
tp558
atp559
a(g237
(dp560
S'NOUN'
p561
F1e-06
sS'DET'
p562
F0.999999
s(lp563
(g237
I31
tp564
atp565
a(g263
(dp566
S'VERB'
p567
F1.8e-05
sS'NOUN'
p568
F0.999982
s(lp569
(g263
I32
tp570
atp571
a(g244
(dp572
S'NOUN'
p573
F1.0
s(lp574
(g244
I33
tp575
atp576
a(g87
(dp577
g89
F1.0
s(lp578
(g87
I34
tp579
atp580
a(g275
(dp581
S'VERB'
p582
F1.0
s(lp583
(g275
I35
tp584
atp585
a(g283
(dp586
S'ADV'
p587
F1.0
s(lp588
(g283
I36
tp589
atp590
a(g290
(dp591
S'VERB'
p592
F1.0
s(lp593
(g290
I37
tp594
atp595
a(g344
(dp596
S'ADJ'
p597
F1.0
s(lp598
(g344
I38
tp599
atp600
a(g325
(dp601
S'NOUN'
p602
F0.108489
sS'ADJ'
p603
F0.891511
s(lp604
(g325
I39
tp605
atp606
a(g317
(dp607
S'VERB'
p608
F6.8e-05
sS'NOUN'
p609
F0.999931
s(lp610
(g317
I40
tp611
atp612
a(g305
(dp613
S'NOUN'
p614
F1.0
s(lp615
(g305
I41
tp616
atp617
a(g87
(dp618
g89
F1.0
s(lp619
(g87
I42
tp620
atp621
a(g355
(dp622
S'ADV'
p623
F0.00079
sS'CONJ'
p624
F0.999209
sS'NOUN'
p625
F1e-06
s(lp626
(g355
I43
tp627
atp628
a(S'should'
p629
(dp630
S'VERB'
p631
F1.0
s(lp632
(g629
I44
tp633
atp634
a(S'instead'
p635
(dp636
S'ADV'
p637
F1.0
s(lp638
(g635
I45
tp639
atp640
a(g371
(dp641
S'VERB'
p642
F0.9965120000000001
sS'NOUN'
p643
F0.003487
s(lp644
(g371
I46
tp645
atp646
a(g364
(dp647
S'PRON'
p648
F1.0
s(lp649
(g364
I47
tp650
atp651
a(g89
(dp652
g89
F1.0
s(lp653
(g89
I48
tp654
atp655
asS'nl'
p656
(lp657
(S'om'
p658
(dp659
S'ADV'
p660
F0.032629
sS'CONJ'
p661
F0.967324
sS'ADP'
p662
F4.7e-05
s(lp663
(g7
I1
tp664
atp665
a(S'te'
p666
(dp667
S'PRT'
p668
F1.0
s(lp669
(g16
I2
tp670
atp671
a(S'zorgen'
p672
(dp673
S'VERB'
p674
F0.995316
sS'NOUN'
p675
F0.004684
s(lp676
tp677
a(S'voor'
p678
(dp679
S'ADV'
p680
F0.000316
sS'CONJ'
p681
F3.4e-05
sS'NOUN'
p682
F0.0
sS'ADP'
p683
F0.99965
s(lp684
(g23
I3
tp685
atp686
a(S'een'
p687
(dp688
S'ADJ'
p689
F1e-06
sS'PRON'
p690
F0.000525
sS'NUM'
p691
F1e-06
sS'DET'
p692
F0.999473
s(lp693
(g32
I4
tp694
atp695
a(S'hoog'
p696
(dp697
S'VERB'
p698
F1.4e-05
sS'ADJ'
p699
F0.999986
s(lp700
(g47
I5
tp701
atp702
a(S'veiligheidsniveau'
p703
(dp704
S'NOUN'
p705
F1.0
s(lp706
(g61
I8
tp707
atp708
a(S'in'
p709
(dp710
S'ADV'
p711
F0.021843
sS'VERB'
p712
F1e-05
sS'ADP'
p713
F0.978147
s(lp714
(g69
I9
tp715
atp716
a(S'alle'
p717
(dp718
S'PRON'
p719
F1.0
s(lp720
(g77
I10
tp721
atp722
a(S'situaties'
p723
(dp724
S'NOUN'
p725
F1.0
s(lp726
(g84
I11
tp727
atp728
a(S'moet'
p729
(dp730
S'VERB'
p731
F1.0
s(lp732
(g275
I35
tp733
atp734
a(S'de'
p735
(dp736
S'DET'
p737
F1.0
s(lp738
(g99
I13
tp739
atp740
a(S'verplichte'
p741
(dp742
S'NOUN'
p743
F0.000967
sS'VERB'
p744
F2.2e-05
sS'ADJ'
p745
F0.999011
s(lp746
(g465
I14
tp747
atp748
a(S'installatie'
p749
(dp750
S'NOUN'
p751
F1.0
s(lp752
(g106
I15
tp753
atp754
a(S'van'
p755
(dp756
S'ADP'
p757
F1.0
s(lp758
(g127
I16
tp759
atp760
a(S'actieve'
p761
(dp762
S'NOUN'
p763
F3.2e-05
sS'ADJ'
p764
F0.999968
s(lp765
(g141
I17
tp766
atp767
a(S'remsystemen'
p768
(dp769
S'NOUN'
p770
F1.0
s(lp771
(g148
I18
tp772
atp773
a(S'bij'
p774
(dp775
S'ADV'
p776
F0.034562
sS'ADJ'
p777
F0.0
sS'NOUN'
p778
F0.0
sS'ADP'
p779
F0.965438
s(lp780
(g134
I19
tp781
atp782
a(S'alle'
p783
(dp784
S'PRON'
p785
F1.0
s(lp786
(g163
I22
tp787
atp788
a(S'nieuwe'
p789
(dp790
S'NOUN'
p791
F0.0
sS'ADJ'
p792
F1.0
s(lp793
(g178
I23
tp794
atp795
a(S'voertuigen'
p796
(dp797
S'NOUN'
p798
F1.0
s(lp799
(g186
I24
tp800
atp801
a(S'vanaf'
p802
(dp803
S'ADP'
p804
F1.0
s(lp805
(g198
I25
tp806
atp807
a(S'2009'
p808
(dp809
S'NUM'
p810
F1.0
s(lp811
(g213
I27
tp812
atp813
a(g87
(dp814
g89
F1.0
s(lp815
(g87
I28
tp816
atp817
a(S'zoals'
p818
(dp819
S'CONJ'
p820
F1.0
s(lp821
(g220
I29
tp822
atp823
a(S'in'
p824
(dp825
S'ADV'
p826
F0.010022
sS'VERB'
p827
F1e-06
sS'ADP'
p828
F0.989977
s(lp829
(g228
I30
tp830
atp831
a(S'het'
p832
(dp833
S'PRON'
p834
F0.000937
sS'DET'
p835
F0.999063
s(lp836
tp837
a(S'voorstel'
p838
(dp839
S'VERB'
p840
F2e-06
sS'NOUN'
p841
F0.999998
s(lp842
(g244
I33
tp843
atp844
a(S'van'
p845
(dp846
S'ADP'
p847
F1.0
s(lp848
tp849
a(S'de'
p850
(dp851
S'DET'
p852
F1.0
s(lp853
(g237
I31
tp854
atp855
a(S'commissie'
p856
(dp857
S'NOUN'
p858
F1.0
s(lp859
(g263
I32
tp860
atp861
a(S'wordt'
p862
(dp863
S'VERB'
p864
F1.0
s(lp865
tp866
a(S'gesteld'
p867
(dp868
S'VERB'
p869
F0.999953
sS'ADJ'
p870
F4.7e-05
s(lp871
(g220
I29
tp872
atp873
a(g87
(dp874
g89
F1.0
s(lp875
(g87
I34
tp876
atp877
a(S'systemen'
p878
(dp879
S'NOUN'
p880
F1.0
s(lp881
(g118
I20
tp882
atp883
a(S'voor'
p884
(dp885
S'ADV'
p886
F0.002234
sS'CONJ'
p887
F7e-06
sS'NOUN'
p888
F0.0
sS'ADP'
p889
F0.997759
s(lp890
(g155
I21
tp891
atp892
a(S'een'
p893
(dp894
S'ADJ'
p895
F1e-06
sS'PRON'
p896
F0.000526
sS'NUM'
p897
F1e-06
sS'DET'
p898
F0.999473
s(lp899
tp900
a(S'hoog'
p901
(dp902
S'VERB'
p903
F1.4e-05
sS'ADJ'
p904
F0.999986
s(lp905
(g344
I38
tp906
atp907
a(S'niveau'
p908
(dp909
S'NOUN'
p910
F1.0
s(lp911
(g39
I6
tp912
atp913
a(S'van'
p914
(dp915
S'ADP'
p916
F1.0
s(lp917
(g54
I7
tp918
atp919
a(S'passieve'
p920
(dp921
S'NOUN'
p922
F0.007927
sS'ADJ'
p923
F0.992073
s(lp924
(g325
I39
tp925
atp926
a(S'veiligheid'
p927
(dp928
S'NOUN'
p929
F1.0
s(lp930
(g317
I40
tp931
atp932
a(S'niet'
p933
(dp934
S'ADV'
p935
F0.999964
sS'PRON'
p936
F0.0
sS'VERB'
p937
F3.6e-05
sg210
F0.0
s(lp938
(g283
I36
tp939
atp940
a(S'vervangen'
p941
(dp942
S'VERB'
p943
F0.9999330000000001
sS'NOUN'
p944
F6.8e-05
s(lp945
(g290
I37
tp946
atp947
a(g87
(dp948
g89
F1.0
s(lp949
(g87
I42
tp950
atp951
a(S'maar'
p952
(dp953
S'ADV'
p954
F0.013916
sS'CONJ'
p955
F0.986084
sS'NOUN'
p956
F0.0
s(lp957
(g355
I43
tp958
atp959
a(S'deze'
p960
(dp961
S'PRON'
p962
F1.0
s(lp963
(g364
I47
tp964
atp965
a(S'aanvullen'
p966
(dp967
S'VERB'
p968
F0.951035
sS'NOUN'
p969
F0.048965
s(lp970
(g371
I46
tp971
atp972
a(g89
(dp973
g89
F1.0
s(lp974
(g89
I48
tp975
atp976
asS'de'
p977
(lp978
(S'die'
p979
(dp980
S'PRON'
p981
F0.004888
sS'DET'
p982
F0.994789
s(lp983
(g99
I13
tp984
atp985
a(S'obligatorische'
p986
(dp987
S'ADJ'
p988
F1.0
s(lp989
(g465
I14
tp990
atp991
a(S'ausstattung'
p992
(dp993
S'ADJ'
p994
F9.7e-05
sS'NOUN'
p995
F0.999815
s(lp996
(g106
I15
tp997
atp998
a(S'aller'
p999
(dp1000
S'PRON'
p1001
F1.0
s(lp1002
(g163
I22
tp1003
atp1004
a(S'neufahrzeuge'
p1005
(dp1006
S'ADJ'
p1007
F0.013822
sS'NOUN'
p1008
F0.976218
s(lp1009
(g186
I24
tp1010
atp1011
a(S'mit'
p1012
(dp1013
S'PRT'
p1014
F0.000336
sS'ADP'
p1015
F0.999664
s(lp1016
(g380
I0
tp1017
atp1018
a(S'einem'
p1019
(dp1020
S'NUM'
p1021
F0.000989
sS'DET'
p1022
F0.998917
s(lp1023
(g32
I4
tp1024
atp1025
a(S'bremsassistenzsystem'
p1026
(dp1027
S'ADJ'
p1028
F0.000132
sS'NOUN'
p1029
F0.999739
s(lp1030
(g148
I18
tp1031
atp1032
a(S'ab'
p1033
(dp1034
S'ADV'
p1035
F0.03016
sS'ADP'
p1036
F0.948302
s(lp1037
(g198
I25
tp1038
atp1039
a(S'2009'
p1040
(dp1041
S'NUM'
p1042
F0.959111
sS'ADJ'
p1043
F0.039569
s(lp1044
(g213
I27
tp1045
atp1046
a(g87
(dp1047
g89
F1.0
s(lp1048
(g87
I28
tp1049
atp1050
a(S'wie'
p1051
(dp1052
S'CONJ'
p1053
F0.999988
s(lp1054
(g220
I29
tp1055
atp1056
a(S'es'
p1057
(dp1058
S'PRON'
p1059
F1.0
s(lp1060
tp1061
a(S'die'
p1062
(dp1063
S'PRON'
p1064
F0.004395
sS'DET'
p1065
F0.993591
s(lp1066
(g237
I31
tp1067
atp1068
a(S'kommission'
p1069
(dp1070
S'ADJ'
p1071
F0.029874
sS'NOUN'
p1072
F0.953863
s(lp1073
(g263
I32
tp1074
atp1075
a(S'in'
p1076
(dp1077
S'ADP'
p1078
F1.0
s(lp1079
(g228
I30
tp1080
atp1081
a(S'ihrem'
p1082
(dp1083
S'PRON'
p1084
F1.0
s(lp1085
tp1086
a(S'vorschlag'
p1087
(dp1088
S'ADJ'
p1089
F8.6e-05
sS'NOUN'
p1090
F0.999877
s(lp1091
(g244
I33
tp1092
atp1093
a(S'vorsieht'
p1094
(dp1095
S'VERB'
p1096
F1.0
s(lp1097
(g220
I29
tp1098
atp1099
a(g87
(dp1100
g89
F1.0
s(lp1101
(g87
I34
tp1102
atp1103
a(S'sollte'
p1104
(dp1105
S'VERB'
p1106
F1.0
s(lp1107
(g275
I35
tp1108
atp1109
a(S'die'
p1110
(dp1111
S'PRON'
p1112
F0.037774
sS'DET'
p1113
F0.961385
s(lp1114
tp1115
a(S'hoch'
p1116
(dp1117
S'PRT'
p1118
F0.001417
sS'ADJ'
p1119
F0.998583
s(lp1120
(g344
I38
tp1121
atp1122
a(S'entwickelten'
p1123
(dp1124
S'VERB'
p1125
F0.323126
sS'ADJ'
p1126
F0.676874
s(lp1127
tp1128
a(S'passiven'
p1129
(dp1130
S'ADJ'
p1131
F1.0
s(lp1132
(g325
I39
tp1133
atp1134
a(S'sicherheitssysteme'
p1135
(dp1136
S'ADJ'
p1137
F7.6e-05
sS'NOUN'
p1138
F0.999866
s(lp1139
(g305
I41
tp1140
atp1141
a(S'nicht'
p1142
(dp1143
S'PRT'
p1144
F1.0
s(lp1145
(g283
I36
tp1146
atp1147
a(S'ersetzen'
p1148
(dp1149
S'VERB'
p1150
F1.0
s(lp1151
(g290
I37
tp1152
atp1153
a(g87
(dp1154
g89
F1.0
s(lp1155
(g87
I42
tp1156
atp1157
a(S'sondern'
p1158
(dp1159
S'CONJ'
p1160
F0.999205
sS'VERB'
p1161
F0.000795
s(lp1162
(g355
I43
tp1163
atp1164
a(S'vielmehr'
p1165
(dp1166
S'ADV'
p1167
F1.0
s(lp1168
(g635
I45
tp1169
atp1170
a(S'erg\xc3\xa4nzen'
p1171
(dp1172
S'VERB'
p1173
F1.0
s(lp1174
(g371
I46
tp1175
atp1176
a(g89
(dp1177
g89
F1.0
s(lp1178
(g89
I48
tp1179
atp1180
asS'it'
p1181
(lp1182
(S'per'
p1183
(dp1184
S'CONJ'
p1185
F0.00889
sS'ADP'
p1186
F0.99111
s(lp1187
(g7
I1
tp1188
atp1189
a(S'assicurare'
p1190
(dp1191
S'VERB'
p1192
F1.0
s(lp1193
(g23
I3
tp1194
atp1195
a(S'un'
p1196
(dp1197
S'PRON'
p1198
F0.001062
sS'DEF'
p1199
F0.998938
s(lp1200
(g32
I4
tp1201
atp1202
a(S'elevato'
p1203
(dp1204
S'VERB'
p1205
F0.005033
sS'ADJ'
p1206
F0.994967
s(lp1207
(g47
I5
tp1208
atp1209
a(S'livello'
p1210
(dp1211
S'VERB'
p1212
F0.002056
sS'NOUN'
p1213
F0.997944
s(lp1214
(g39
I6
tp1215
atp1216
a(S'di'
p1217
(dp1218
S'CONJ'
p1219
F4e-06
sS'ADP'
p1220
F0.999996
s(lp1221
(g54
I7
tp1222
atp1223
a(S'sicurezza'
p1224
(dp1225
S'NOUN'
p1226
F1.0
s(lp1227
(g61
I8
tp1228
atp1229
a(S'in'
p1230
(dp1231
S'ADP'
p1232
F1.0
s(lp1233
(g69
I9
tp1234
atp1235
a(S'tutti'
p1236
(dp1237
S'PRON'
p1238
F0.710428
sS'ADJ'
p1239
F0.289572
s(lp1240
(g77
I10
tp1241
atp1242
a(S'i'
p1243
(dp1244
S'DET'
p1245
F1.0
s(lp1246
tp1247
a(S'casi'
p1248
(dp1249
S'NOUN'
p1250
F1.0
s(lp1251
(g84
I11
tp1252
atp1253
a(g87
(dp1254
g89
F1.0
s(lp1255
(g87
I12
tp1256
atp1257
a(S"l'"
p1258
(dp1259
S'NOUN'
p1260
F0.003774
sS'VERB'
p1261
F0.984512
sS'ADJ'
p1262
F0.011715
s(lp1263
(g99
I13
tp1264
atp1265
a(S'installazione'
p1266
(dp1267
S'NOUN'
p1268
F1.0
s(lp1269
(g106
I15
tp1270
atp1271
a(S'obbligatoria'
p1272
(dp1273
S'ADJ'
p1274
F1.0
s(lp1275
(g465
I14
tp1276
atp1277
a(S'di'
p1278
(dp1279
S'CONJ'
p1280
F2.6e-05
sS'ADP'
p1281
F0.999974
s(lp1282
tp1283
a(S'sistemi'
p1284
(dp1285
S'VERB'
p1286
F0.162221
sS'NOUN'
p1287
F0.837779
s(lp1288
(g118
I20
tp1289
atp1290
a(S'di'
p1291
(dp1292
S'CONJ'
p1293
F3e-06
sS'ADP'
p1294
F0.999997
s(lp1295
(g127
I16
tp1296
atp1297
a(S'assistenza'
p1298
(dp1299
S'NOUN'
p1300
F1.0
s(lp1301
(g134
I19
tp1302
atp1303
a(S'attiva'
p1304
(dp1305
S'VERB'
p1306
F0.125024
sS'ADJ'
p1307
F0.874976
s(lp1308
(g141
I17
tp1309
atp1310
a(S'dei'
p1311
(dp1312
S'NOUN'
p1313
F1.8e-05
sS'DEF'
p1314
F0.007648
sS'ADP'
p1315
F0.992334
s(lp1316
tp1317
a(S'freni'
p1318
(dp1319
S'VERB'
p1320
F6.7e-05
sS'NOUN'
p1321
F0.999933
s(lp1322
(g148
I18
tp1323
atp1324
a(S'per'
p1325
(dp1326
S'CONJ'
p1327
F0.025552
sS'ADP'
p1328
F0.974448
s(lp1329
(g155
I21
tp1330
atp1331
a(S'tutti'
p1332
(dp1333
S'PRON'
p1334
F0.71367
sS'ADJ'
p1335
F0.28633
s(lp1336
(g163
I22
tp1337
atp1338
a(g1243
(dp1339
S'DET'
p1340
F1.0
s(lp1341
(g118
I20
tp1342
atp1343
a(S'nuovi'
p1344
(dp1345
S'NOUN'
p1346
F0.007966
sS'ADJ'
p1347
F0.992034
s(lp1348
(g178
I23
tp1349
atp1350
a(S'veicoli'
p1351
(dp1352
S'VERB'
p1353
F0.023167
sS'NOUN'
p1354
F0.976833
s(lp1355
tp1356
a(g32
(dp1357
S'CONJ'
p1358
F0.000328
sS'ADP'
p1359
F0.999672
s(lp1360
tp1361
a(S'partire'
p1362
(dp1363
S'VERB'
p1364
F1.0
s(lp1365
(g186
I24
tp1366
atp1367
a(S'dal'
p1368
(dp1369
S'ADP'
p1370
F1.0
s(lp1371
(g198
I25
tp1372
atp1373
a(S'2009'
p1374
(dp1375
S'NUM'
p1376
F0.999739
sg89
F0.000261
s(lp1377
(g213
I27
tp1378
atp1379
a(g87
(dp1380
g89
F1.0
s(lp1381
(g87
I28
tp1382
atp1383
a(S'prevista'
p1384
(dp1385
S'VERB'
p1386
F0.996601
sS'ADJ'
p1387
F0.003399
s(lp1388
(g220
I29
tp1389
atp1390
a(S'dalla'
p1391
(dp1392
S'NOUN'
p1393
F1.3e-05
sS'ADP'
p1394
F0.999987
s(lp1395
(g237
I31
tp1396
atp1397
a(S'proposta'
p1398
(dp1399
S'VERB'
p1400
F0.00994
sS'NOUN'
p1401
F0.99006
s(lp1402
(g244
I33
tp1403
atp1404
a(S'della'
p1405
(dp1406
S'DEF'
p1407
F0.001616
sS'ADP'
p1408
F0.998384
s(lp1409
(g205
I26
tp1410
atp1411
a(S'commissione'
p1412
(dp1413
S'NOUN'
p1414
F1.0
s(lp1415
(g263
I32
tp1416
atp1417
a(g87
(dp1418
g89
F1.0
s(lp1419
(g87
I34
tp1420
atp1421
a(S'non'
p1422
(dp1423
S'ADV'
p1424
F1.0
s(lp1425
(g283
I36
tp1426
atp1427
a(S'dovrebbe'
p1428
(dp1429
S'VERB'
p1430
F1.0
s(lp1431
(g275
I35
tp1432
atp1433
a(S'sostituire'
p1434
(dp1435
S'VERB'
p1436
F1.0
s(lp1437
(g290
I37
tp1438
atp1439
a(g1243
(dp1440
S'DET'
p1441
F1.0
s(lp1442
tp1443
a(S'sistemi'
p1444
(dp1445
S'VERB'
p1446
F0.00048800000000000004
sS'NOUN'
p1447
F0.999512
s(lp1448
(g305
I41
tp1449
atp1450
a(S'di'
p1451
(dp1452
S'CONJ'
p1453
F4e-06
sS'ADP'
p1454
F0.999996
s(lp1455
(g344
I38
tp1456
atp1457
a(S'sicurezza'
p1458
(dp1459
S'NOUN'
p1460
F1.0
s(lp1461
(g317
I40
tp1462
atp1463
a(S'passiva'
p1464
(dp1465
S'ADJ'
p1466
F1.0
s(lp1467
(g325
I39
tp1468
atp1469
a(S'ad'
p1470
(dp1471
S'ADP'
p1472
F1.0
s(lp1473
(g344
I38
tp1474
atp1475
a(S'alto'
p1476
(dp1477
S'NOUN'
p1478
F0.004065
sS'ADJ'
p1479
F0.995935
s(lp1480
tp1481
a(S'livello'
p1482
(dp1483
S'VERB'
p1484
F0.001072
sS'NOUN'
p1485
F0.998928
s(lp1486
(g344
I38
tp1487
atp1488
a(g87
(dp1489
g89
F1.0
s(lp1490
(g87
I42
tp1491
atp1492
a(S'ma'
p1493
(dp1494
S'CONJ'
p1495
F0.999897
sS'NOUN'
p1496
F0.000103
s(lp1497
(g355
I43
tp1498
atp1499
a(S'dovrebbe'
p1500
(dp1501
S'VERB'
p1502
F1.0
s(lp1503
(g629
I44
tp1504
atp1505
a(S'invece'
p1506
(dp1507
S'ADV'
p1508
F1.0
s(lp1509
(g635
I45
tp1510
atp1511
a(S'integrarli'
p1512
(dp1513
S'VERB'
p1514
F1.0
s(lp1515
(g371
I46
tp1516
atp1517
a(g89
(dp1518
g89
F1.0
s(lp1519
(g89
I48
tp1520
atp1521
asS'sk'
p1522
(lp1523
(S's'
p1524
(dp1525
g210
F0.0032170000000000002
sS'CONJ'
p1526
F6.3e-05
sS'NOUN'
p1527
F1.4e-05
sS'ADP'
p1528
F0.996705
sS'PRT'
p1529
F0.0
s(lp1530
tp1531
a(S'cie\xc4\xbeom'
p1532
(dp1533
S'NOUN'
p1534
F1.0
s(lp1535
(g7
I1
tp1536
atp1537
a(S'zabezpe\xc4\x8di\xc5\xa5'
p1538
(dp1539
S'VERB'
p1540
F1.0
s(lp1541
(g23
I3
tp1542
atp1543
a(S'vysok\xc3\xba'
p1544
(dp1545
S'NOUN'
p1546
F0.000887
sS'ADJ'
p1547
F0.999113
s(lp1548
(g47
I5
tp1549
atp1550
a(S'\xc3\xbarove\xc5\x88'
p1551
(dp1552
S'NOUN'
p1553
F1.0
s(lp1554
(g39
I6
tp1555
atp1556
a(S'bezpe\xc4\x8dnosti'
p1557
(dp1558
S'NOUN'
p1559
F1.0
s(lp1560
(g61
I8
tp1561
atp1562
a(S'za'
p1563
(dp1564
S'PRT'
p1565
F0.000119
sS'ADP'
p1566
F0.99981
sg210
F7.1e-05
s(lp1567
(g69
I9
tp1568
atp1569
a(S'ka\xc5\xbed\xc3\xbdch'
p1570
(dp1571
S'PRON'
p1572
F1.0
s(lp1573
tp1574
a(S'okolnost\xc3\xad'
p1575
(dp1576
S'NOUN'
p1577
F1.0
s(lp1578
(g84
I11
tp1579
atp1580
a(S'by'
p1581
(dp1582
S'PRT'
p1583
F0.999788
sg210
F0.000212
s(lp1584
(g87
I12
tp1585
atp1586
a(S'povinn\xc3\xa1'
p1587
(dp1588
S'ADJ'
p1589
F1.0
s(lp1590
(g465
I14
tp1591
atp1592
a(S'in\xc5\xa1tal\xc3\xa1cia'
p1593
(dp1594
S'NOUN'
p1595
F1.0
s(lp1596
(g106
I15
tp1597
atp1598
a(S'akt\xc3\xadvnych'
p1599
(dp1600
S'ADJ'
p1601
F1.0
s(lp1602
(g141
I17
tp1603
atp1604
a(S'syst\xc3\xa9mov'
p1605
(dp1606
S'NOUN'
p1607
F1.0
s(lp1608
(g118
I20
tp1609
atp1610
a(S'asistenta'
p1611
(dp1612
S'NOUN'
p1613
F1.0
s(lp1614
(g148
I18
tp1615
atp1616
a(S'n\xc3\xbadzov\xc3\xa9ho'
p1617
(dp1618
S'ADJ'
p1619
F1.0
s(lp1620
tp1621
a(S'brzdenia'
p1622
(dp1623
S'VERB'
p1624
F0.055659999999999994
sS'NOUN'
p1625
F0.94434
s(lp1626
(g148
I18
tp1627
atp1628
a(S'vo'
p1629
(dp1630
S'ADP'
p1631
F1.0
s(lp1632
(g155
I21
tp1633
atp1634
a(S'v\xc5\xa1etk\xc3\xbdch'
p1635
(dp1636
S'PRON'
p1637
F1.0
s(lp1638
(g163
I22
tp1639
atp1640
a(S'nov\xc3\xbdch'
p1641
(dp1642
S'ADJ'
p1643
F1.0
s(lp1644
(g178
I23
tp1645
atp1646
a(S'vozidl\xc3\xa1ch'
p1647
(dp1648
S'NOUN'
p1649
F1.0
s(lp1650
(g186
I24
tp1651
atp1652
a(S'od'
p1653
(dp1654
g210
F2.7e-05
sS'ADP'
p1655
F0.999973
s(lp1656
(g198
I25
tp1657
atp1658
a(S'roku'
p1659
(dp1660
S'NOUN'
p1661
F1.0
s(lp1662
tp1663
a(S'2009'
p1664
(dp1665
S'NUM'
p1666
F1.0
s(lp1667
(g213
I27
tp1668
atp1669
a(S'stanoven\xc3\xa1'
p1670
(dp1671
S'VERB'
p1672
F1.0
s(lp1673
(g220
I29
tp1674
atp1675
a(S'v'
p1676
(dp1677
g210
F0.00029400000000000004
sS'ADP'
p1678
F0.999706
s(lp1679
(g228
I30
tp1680
atp1681
a(S'n\xc3\xa1vrhu'
p1682
(dp1683
S'NOUN'
p1684
F1.0
s(lp1685
(g244
I33
tp1686
atp1687
a(S'komisie'
p1688
(dp1689
S'NOUN'
p1690
F1.0
s(lp1691
(g263
I32
tp1692
atp1693
a(S'nemala'
p1694
(dp1695
S'VERB'
p1696
F1.0
s(lp1697
(g275
I35
tp1698
atp1699
a(S'nahradi\xc5\xa5'
p1700
(dp1701
S'VERB'
p1702
F1.0
s(lp1703
(g290
I37
tp1704
atp1705
a(S'syst\xc3\xa9my'
p1706
(dp1707
S'NOUN'
p1708
F1.0
s(lp1709
(g305
I41
tp1710
atp1711
a(S'pas\xc3\xadvnej'
p1712
(dp1713
S'ADJ'
p1714
F1.0
s(lp1715
(g325
I39
tp1716
atp1717
a(S'bezpe\xc4\x8dnosti'
p1718
(dp1719
S'NOUN'
p1720
F1.0
s(lp1721
(g317
I40
tp1722
atp1723
a(S'na'
p1724
(dp1725
g210
F7.500000000000001e-05
sS'CONJ'
p1726
F1.9e-05
sS'ADP'
p1727
F0.999902
sS'PRT'
p1728
F3e-06
s(lp1729
(g344
I38
tp1730
atp1731
a(S'vysokej'
p1732
(dp1733
S'NOUN'
p1734
F0.001145
sS'ADJ'
p1735
F0.998855
s(lp1736
tp1737
a(S'\xc3\xbarovni'
p1738
(dp1739
S'NOUN'
p1740
F1.0
s(lp1741
(g344
I38
tp1742
atp1743
a(g87
(dp1744
g89
F1.0
s(lp1745
(g87
I42
tp1746
atp1747
a(S'ale'
p1748
(dp1749
g210
F0.009009999999999999
sS'CONJ'
p1750
F0.99099
s(lp1751
(g355
I43
tp1752
atp1753
a(S'sk\xc3\xb4r'
p1754
(dp1755
S'ADV'
p1756
F0.28154599999999996
sg210
F0.616099
sS'CONJ'
p1757
F0.102355
s(lp1758
(g635
I45
tp1759
atp1760
a(S'ich'
p1761
(dp1762
S'PRON'
p1763
F1.0
s(lp1764
(g364
I47
tp1765
atp1766
a(S'doplni\xc5\xa5'
p1767
(dp1768
S'VERB'
p1769
F1.0
s(lp1770
(g371
I46
tp1771
atp1772
a(g89
(dp1773
g89
F1.0
s(lp1774
(g89
I48
tp1775
atp1776
asS'pl'
p1777
(lp1778
(S'aby'
p1779
(dp1780
S'PRT'
p1781
F0.009188
sS'CONJ'
p1782
F0.990812
s(lp1783
(g7
I1
tp1784
atp1785
a(S'zapewni\xc4\x87'
p1786
(dp1787
S'VERB'
p1788
F1.0
s(lp1789
(g23
I3
tp1790
atp1791
a(S'wysoki'
p1792
(dp1793
S'ADJ'
p1794
F1.0000010000000001
s(lp1795
(g47
I5
tp1796
atp1797
a(S'poziom'
p1798
(dp1799
S'NOUN'
p1800
F1.0
s(lp1801
(g39
I6
tp1802
atp1803
a(S'bezpiecze\xc5\x84stwa'
p1804
(dp1805
S'NOUN'
p1806
F1.0
s(lp1807
(g61
I8
tp1808
atp1809
a(S'we'
p1810
(dp1811
g210
F0.0
sS'ADP'
p1812
F1.0
s(lp1813
(g69
I9
tp1814
atp1815
a(S'wszystkich'
p1816
(dp1817
S'NOUN'
p1818
F1e-06
sS'ADJ'
p1819
F0.9999990000000001
s(lp1820
(g77
I10
tp1821
atp1822
a(S'okoliczno\xc5\x9bciach'
p1823
(dp1824
S'NOUN'
p1825
F1.0
s(lp1826
(g84
I11
tp1827
atp1828
a(g87
(dp1829
g210
F0.0
sg89
F1.0
s(lp1830
(g87
I12
tp1831
atp1832
a(S'obowi\xc4\x85zkowy'
p1833
(dp1834
S'ADJ'
p1835
F1.0
s(lp1836
(g465
I14
tp1837
atp1838
a(S'monta\xc5\xbc'
p1839
(dp1840
S'NOUN'
p1841
F1.0
s(lp1842
(g106
I15
tp1843
atp1844
a(S'aktywnego'
p1845
(dp1846
S'ADJ'
p1847
F1.0
s(lp1848
(g141
I17
tp1849
atp1850
a(S'systemu'
p1851
(dp1852
S'NOUN'
p1853
F1.0
s(lp1854
(g118
I20
tp1855
atp1856
a(S'wspomagaj\xc4\x85cego'
p1857
(dp1858
S'ADV'
p1859
F0.000149
sS'NOUN'
p1860
F0.008471999999999999
sS'VERB'
p1861
F0.9315420000000001
sS'ADJ'
p1862
F0.05983800000000001
s(lp1863
(g148
I18
tp1864
atp1865
a(S'hamowanie'
p1866
(dp1867
S'VERB'
p1868
F1.0
s(lp1869
tp1870
a(S'we'
p1871
(dp1872
g210
F5e-06
sS'ADP'
p1873
F0.999995
s(lp1874
(g148
I18
tp1875
atp1876
a(S'wszystkich'
p1877
(dp1878
S'NOUN'
p1879
F1.5e-05
sS'ADJ'
p1880
F0.9999859999999999
s(lp1881
(g163
I22
tp1882
atp1883
a(S'nowych'
p1884
(dp1885
S'NOUN'
p1886
F6e-06
sS'ADJ'
p1887
F0.999994
s(lp1888
(g178
I23
tp1889
atp1890
a(S'pojazdach'
p1891
(dp1892
S'NOUN'
p1893
F1.0
s(lp1894
(g186
I24
tp1895
atp1896
a(S'pocz\xc4\x85wszy'
p1897
(dp1898
S'VERB'
p1899
F1.0
s(lp1900
(g198
I25
tp1901
atp1902
a(S'od'
p1903
(dp1904
S'VERB'
p1905
F1e-06
sS'NOUN'
p1906
F1.2e-05
sS'ADP'
p1907
F0.9999880000000001
s(lp1908
(g205
I26
tp1909
atp1910
a(S'roku'
p1911
(dp1912
S'NOUN'
p1913
F1.0
s(lp1914
tp1915
a(S'2009'
p1916
(dp1917
S'NUM'
p1918
F0.049489
sS'ADJ'
p1919
F0.950511
s(lp1920
(g213
I27
tp1921
atp1922
a(g87
(dp1923
g210
F0.0
sg89
F1.0
s(lp1924
(g87
I28
tp1925
atp1926
a(S'przewidziany'
p1927
(dp1928
S'VERB'
p1929
F1.0
s(lp1930
(g220
I29
tp1931
atp1932
a(S'we'
p1933
(dp1934
g210
F9.5e-05
sS'ADP'
p1935
F0.999905
s(lp1936
(g228
I30
tp1937
atp1938
a(S'wniosku'
p1939
(dp1940
S'NOUN'
p1941
F1.0
s(lp1942
(g244
I33
tp1943
atp1944
a(S'komisji'
p1945
(dp1946
S'NOUN'
p1947
F1.0
s(lp1948
(g263
I32
tp1949
atp1950
a(g87
(dp1951
g210
F0.0
sg89
F1.0
s(lp1952
(g87
I34
tp1953
atp1954
a(S'nie'
p1955
(dp1956
S'ADV'
p1957
F1.9e-05
sS'PRT'
p1958
F0.981805
sS'CONJ'
p1959
F0.018155
sS'NOUN'
p1960
F1.9e-05
sS'PRON'
p1961
F4e-06
s(lp1962
(g283
I36
tp1963
atp1964
a(S'powinien'
p1965
(dp1966
S'VERB'
p1967
F1.0
s(lp1968
(g275
I35
tp1969
atp1970
a(S'zast\xc4\x99powa\xc4\x87'
p1971
(dp1972
S'VERB'
p1973
F1.0
s(lp1974
(g290
I37
tp1975
atp1976
a(S'system\xc3\xb3w'
p1977
(dp1978
S'NOUN'
p1979
F1.0
s(lp1980
(g305
I41
tp1981
atp1982
a(S'bezpiecze\xc5\x84stwa'
p1983
(dp1984
S'NOUN'
p1985
F1.0
s(lp1986
(g317
I40
tp1987
atp1988
a(S'biernego'
p1989
(dp1990
S'ADJ'
p1991
F1.0
s(lp1992
(g325
I39
tp1993
atp1994
a(S'na'
p1995
(dp1996
S'PRT'
p1997
F4e-06
sS'VERB'
p1998
F1e-06
sS'NOUN'
p1999
F0.0
sS'ADP'
p2000
F0.999993
sg210
F1e-06
s(lp2001
(g344
I38
tp2002
atp2003
a(S'wysokim'
p2004
(dp2005
S'ADJ'
p2006
F1.0
s(lp2007
tp2008
a(S'poziomie'
p2009
(dp2010
S'NOUN'
p2011
F1.0
s(lp2012
(g344
I38
tp2013
atp2014
a(g87
(dp2015
g210
F0.0
sg89
F1.0
s(lp2016
(g87
I42
tp2017
atp2018
a(S'lecz'
p2019
(dp2020
S'CONJ'
p2021
F1.0
s(lp2022
(g355
I43
tp2023
atp2024
a(S'je'
p2025
(dp2026
S'PRT'
p2027
F0.002416
sS'PRON'
p2028
F0.9294899999999999
sS'VERB'
p2029
F0.066988
sg210
F1.4e-05
sS'CONJ'
p2030
F0.001051
sS'ADJ'
p2031
F4.3e-05
s(lp2032
(g364
I47
tp2033
atp2034
a(S'uzupe\xc5\x82nia\xc4\x87'
p2035
(dp2036
S'VERB'
p2037
F1.0
s(lp2038
(g371
I46
tp2039
atp2040
a(g89
(dp2041
g89
F1.0
s(lp2042
(g89
I48
tp2043
atp2044
asS'sl'
p2045
(lp2046
(S'da'
p2047
(dp2048
S'PRT'
p2049
F6.4e-05
sS'CONJ'
p2050
F0.999781
sS'VERB'
p2051
F0.00014
sg210
F1.6e-05
s(lp2052
tp2053
a(S'se'
p2054
(dp2055
S'PRON'
p2056
F1.0
sg210
F0.0
s(lp2057
(g7
I1
tp2058
atp2059
a(S'zagotovi'
p2060
(dp2061
S'VERB'
p2062
F1.0
s(lp2063
(g23
I3
tp2064
atp2065
a(S'visoka'
p2066
(dp2067
S'ADJ'
p2068
F1.0
s(lp2069
(g47
I5
tp2070
atp2071
a(S'raven'
p2072
(dp2073
S'ADJ'
p2074
F2.1000000000000002e-05
sS'NOUN'
p2075
F0.9999790000000001
s(lp2076
(g39
I6
tp2077
atp2078
a(S'varnosti'
p2079
(dp2080
S'NOUN'
p2081
F0.999999
s(lp2082
(g61
I8
tp2083
atp2084
a(g1676
(dp2085
S'ADP'
p2086
F1.0
s(lp2087
(g69
I9
tp2088
atp2089
a(S'vseh'
p2090
(dp2091
S'PRON'
p2092
F0.9999999999999999
s(lp2093
(g77
I10
tp2094
atp2095
a(S'razmerah'
p2096
(dp2097
S'NOUN'
p2098
F1.0
s(lp2099
(g84
I11
tp2100
atp2101
a(g87
(dp2102
g89
F1.0
s(lp2103
(g87
I12
tp2104
atp2105
a(S'obvezna'
p2106
(dp2107
S'ADJ'
p2108
F1.0
s(lp2109
(g465
I14
tp2110
atp2111
a(S'vgradnja'
p2112
(dp2113
S'ADJ'
p2114
F0.028817
sS'VERB'
p2115
F0.006795
sS'NOUN'
p2116
F0.964386
s(lp2117
(g106
I15
tp2118
atp2119
a(S'aktivnih'
p2120
(dp2121
S'ADJ'
p2122
F1.0
s(lp2123
(g141
I17
tp2124
atp2125
a(S'sistemov'
p2126
(dp2127
S'NOUN'
p2128
F1.0
s(lp2129
(g118
I20
tp2130
atp2131
a(S'pomo\xc4\x8di'
p2132
(dp2133
S'NOUN'
p2134
F1.0
s(lp2135
(g134
I19
tp2136
atp2137
a(S'za'
p2138
(dp2139
S'ADV'
p2140
F2.1e-05
sg210
F5e-06
sS'ADP'
p2141
F0.9999750000000001
s(lp2142
(g155
I21
tp2143
atp2144
a(S'zaviranje'
p2145
(dp2146
S'ADV'
p2147
F0.000327
sS'ADJ'
p2148
F0.00047
sS'VERB'
p2149
F9e-06
sS'NOUN'
p2150
F0.9991939999999999
s(lp2151
(g148
I18
tp2152
atp2153
a(g1676
(dp2154
S'ADP'
p2155
F1.0
s(lp2156
(g228
I30
tp2157
atp2158
a(S'vsa'
p2159
(dp2160
S'PRON'
p2161
F1.0
s(lp2162
(g163
I22
tp2163
atp2164
a(S'nova'
p2165
(dp2166
S'ADJ'
p2167
F0.9999999999999999
s(lp2168
(g178
I23
tp2169
atp2170
a(S'vozila'
p2171
(dp2172
S'VERB'
p2173
F1.7e-05
sS'NOUN'
p2174
F0.999984
s(lp2175
(g186
I24
tp2176
atp2177
a(S'od'
p2178
(dp2179
S'ADP'
p2180
F1.0
s(lp2181
(g205
I26
tp2182
atp2183
a(S'leta'
p2184
(dp2185
S'NOUN'
p2186
F0.999999
s(lp2187
tp2188
a(S'2009'
p2189
(dp2190
S'NUM'
p2191
F1.0
s(lp2192
(g213
I27
tp2193
atp2194
a(S'naprej'
p2195
(dp2196
S'ADV'
p2197
F1.0
s(lp2198
(g220
I29
tp2199
atp2200
a(g87
(dp2201
g89
F1.0
s(lp2202
tp2203
a(S'kot'
p2204
(dp2205
S'CONJ'
p2206
F0.999922
sS'NOUN'
p2207
F7.8e-05
s(lp2208
tp2209
a(S'predvideva'
p2210
(dp2211
S'VERB'
p2212
F1.0
s(lp2213
(g220
I29
tp2214
atp2215
a(S'predlog'
p2216
(dp2217
S'NOUN'
p2218
F0.9999990000000001
s(lp2219
(g244
I33
tp2220
atp2221
a(S'komisije'
p2222
(dp2223
S'NOUN'
p2224
F1.0
s(lp2225
(g263
I32
tp2226
atp2227
a(g87
(dp2228
g89
F1.0
s(lp2229
(g87
I34
tp2230
atp2231
a(S'ne'
p2232
(dp2233
S'PRT'
p2234
F0.989085
sS'CONJ'
p2235
F0.010559
sg210
F0.000356
s(lp2236
(g283
I36
tp2237
atp2238
a(S'sme'
p2239
(dp2240
S'VERB'
p2241
F1.0
s(lp2242
(g275
I35
tp2243
atp2244
a(S'nadomestiti'
p2245
(dp2246
S'VERB'
p2247
F1.0
s(lp2248
(g290
I37
tp2249
atp2250
a(S'sistemov'
p2251
(dp2252
S'NOUN'
p2253
F1.0
s(lp2254
(g305
I41
tp2255
atp2256
a(S'pasivne'
p2257
(dp2258
S'ADV'
p2259
F5e-06
sS'NOUN'
p2260
F0.0003010000000000001
sS'VERB'
p2261
F4.9999999999999996e-05
sS'ADJ'
p2262
F0.9996449999999999
s(lp2263
(g325
I39
tp2264
atp2265
a(S'varnosti'
p2266
(dp2267
S'NOUN'
p2268
F1.0
s(lp2269
(g317
I40
tp2270
atp2271
a(S'na'
p2272
(dp2273
S'ADP'
p2274
F1.0
s(lp2275
(g344
I38
tp2276
atp2277
a(S'visoki'
p2278
(dp2279
S'ADJ'
p2280
F1.0
s(lp2281
tp2282
a(S'ravni'
p2283
(dp2284
S'ADJ'
p2285
F1.2e-05
sS'NOUN'
p2286
F0.999988
s(lp2287
(g344
I38
tp2288
atp2289
a(g87
(dp2290
g89
F1.0
s(lp2291
(g87
I42
tp2292
atp2293
a(S'ampak'
p2294
(dp2295
S'CONJ'
p2296
F1.0
s(lp2297
(g355
I43
tp2298
atp2299
a(S'jih'
p2300
(dp2301
S'PRON'
p2302
F1.000001
s(lp2303
(g364
I47
tp2304
atp2305
a(S'mora'
p2306
(dp2307
S'VERB'
p2308
F0.999358
sS'NOUN'
p2309
F0.000642
s(lp2310
(g629
I44
tp2311
atp2312
a(S'dopolnjevati'
p2313
(dp2314
S'VERB'
p2315
F1.0
s(lp2316
(g371
I46
tp2317
atp2318
a(g89
(dp2319
g89
F1.0
s(lp2320
(g89
I48
tp2321
atp2322
asS'es'
p2323
(lp2324
(S'para'
p2325
(dp2326
S'CONJ'
p2327
F0.990112
sS'ADP'
p2328
F0.009888
s(lp2329
(g7
I1
tp2330
atp2331
a(S'garantizar'
p2332
(dp2333
S'VERB'
p2334
F1.0
s(lp2335
(g23
I3
tp2336
atp2337
a(S'un'
p2338
(dp2339
g210
F3.3e-05
sS'DET'
p2340
F0.999967
s(lp2341
(g32
I4
tp2342
atp2343
a(S'elevado'
p2344
(dp2345
S'VERB'
p2346
F0.047886
sS'ADJ'
p2347
F0.952114
s(lp2348
(g47
I5
tp2349
atp2350
a(S'nivel'
p2351
(dp2352
S'NOUN'
p2353
F1.0
s(lp2354
(g39
I6
tp2355
atp2356
a(S'de'
p2357
(dp2358
g210
F2.9e-05
sS'CONJ'
p2359
F0.000449
sS'ADP'
p2360
F0.999522
s(lp2361
(g54
I7
tp2362
atp2363
a(S'seguridad'
p2364
(dp2365
S'NOUN'
p2366
F1.0
s(lp2367
(g61
I8
tp2368
atp2369
a(S'en'
p2370
(dp2371
g210
F0.0
sS'CONJ'
p2372
F4e-06
sS'ADP'
p2373
F0.999996
s(lp2374
(g69
I9
tp2375
atp2376
a(S'todas'
p2377
(dp2378
S'ADJ'
p2379
F1.0
s(lp2380
(g77
I10
tp2381
atp2382
a(S'las'
p2383
(dp2384
S'PRON'
p2385
F0.0
sS'DET'
p2386
F1.0
s(lp2387
tp2388
a(S'circunstancias'
p2389
(dp2390
S'NOUN'
p2391
F1.0
s(lp2392
(g84
I11
tp2393
atp2394
a(g87
(dp2395
g89
F1.0
s(lp2396
(g87
I12
tp2397
atp2398
a(S'la'
p2399
(dp2400
S'PRON'
p2401
F3.5e-05
sS'DET'
p2402
F0.999959
sS'NOUN'
p2403
F0.0
sg210
F5e-06
s(lp2404
(g99
I13
tp2405
atp2406
a(S'instalaci\xc3\xb3n'
p2407
(dp2408
S'NOUN'
p2409
F1.0
s(lp2410
(g106
I15
tp2411
atp2412
a(S'obligatoria'
p2413
(dp2414
S'ADJ'
p2415
F1.0
s(lp2416
(g465
I14
tp2417
atp2418
a(S'de'
p2419
(dp2420
g210
F3.1e-05
sS'CONJ'
p2421
F0.001485
sS'ADP'
p2422
F0.998485
s(lp2423
(g127
I16
tp2424
atp2425
a(S'sistemas'
p2426
(dp2427
S'NOUN'
p2428
F1.0
s(lp2429
tp2430
a(S'activos'
p2431
(dp2432
S'NOUN'
p2433
F0.005454
sS'ADJ'
p2434
F0.994546
s(lp2435
(g141
I17
tp2436
atp2437
a(S'de'
p2438
(dp2439
g210
F3.1e-05
sS'CONJ'
p2440
F0.001479
sS'ADP'
p2441
F0.99849
s(lp2442
(g118
I20
tp2443
atp2444
a(S'asistencia'
p2445
(dp2446
S'NOUN'
p2447
F1.0
s(lp2448
(g134
I19
tp2449
atp2450
a(S'en'
p2451
(dp2452
g210
F0.0
sS'CONJ'
p2453
F0.0
sS'ADP'
p2454
F1.0
s(lp2455
(g380
I0
tp2456
atp2457
a(S'la'
p2458
(dp2459
S'NOUN'
p2460
F0.000127
sS'DET'
p2461
F0.999873
sg210
F0.0
sS'PRON'
p2462
F0.0
s(lp2463
tp2464
a(S'frenada'
p2465
(dp2466
S'VERB'
p2467
F1.0
s(lp2468
(g148
I18
tp2469
atp2470
a(S'en'
p2471
(dp2472
g210
F0.0
sS'CONJ'
p2473
F5e-06
sS'ADP'
p2474
F0.999995
s(lp2475
(g155
I21
tp2476
atp2477
a(S'todos'
p2478
(dp2479
S'ADJ'
p2480
F1.0
s(lp2481
(g163
I22
tp2482
atp2483
a(S'los'
p2484
(dp2485
S'PRON'
p2486
F0.0
sS'DET'
p2487
F1.0
s(lp2488
tp2489
a(S'veh\xc3\xadculos'
p2490
(dp2491
S'NOUN'
p2492
F1.0
s(lp2493
(g186
I24
tp2494
atp2495
a(S'nuevos'
p2496
(dp2497
S'ADJ'
p2498
F1.0
s(lp2499
(g178
I23
tp2500
atp2501
a(g32
(dp2502
S'ADP'
p2503
F1.0
s(lp2504
tp2505
a(S'partir'
p2506
(dp2507
S'ADP'
p2508
F1.0
s(lp2509
(g198
I25
tp2510
atp2511
a(S'de'
p2512
(dp2513
S'ADP'
p2514
F1.0
s(lp2515
(g205
I26
tp2516
atp2517
a(S'2009'
p2518
(dp2519
g210
F0.104005
sS'NUM'
p2520
F0.895995
s(lp2521
(g213
I27
tp2522
atp2523
a(g87
(dp2524
g89
F1.0
s(lp2525
(g87
I28
tp2526
atp2527
a(S'recogida'
p2528
(dp2529
S'VERB'
p2530
F1.0
s(lp2531
(g220
I29
tp2532
atp2533
a(S'en'
p2534
(dp2535
g210
F0.0
sS'CONJ'
p2536
F0.0
sS'ADP'
p2537
F1.0
s(lp2538
(g228
I30
tp2539
atp2540
a(S'la'
p2541
(dp2542
S'NOUN'
p2543
F4e-06
sS'PRON'
p2544
F0.0
sS'DET'
p2545
F0.999996
sg210
F0.0
s(lp2546
(g237
I31
tp2547
atp2548
a(S'propuesta'
p2549
(dp2550
S'VERB'
p2551
F0.026244
sS'NOUN'
p2552
F0.973756
s(lp2553
(g244
I33
tp2554
atp2555
a(S'de'
p2556
(dp2557
g210
F0.0
sS'CONJ'
p2558
F1.7e-05
sS'ADP'
p2559
F0.999982
s(lp2560
tp2561
a(S'la'
p2562
(dp2563
g210
F0.0
sS'PRON'
p2564
F0.0
sS'DET'
p2565
F0.999999
sS'NOUN'
p2566
F0.0
s(lp2567
tp2568
a(S'comisi\xc3\xb3n'
p2569
(dp2570
S'NOUN'
p2571
F1.0
s(lp2572
(g263
I32
tp2573
atp2574
a(g87
(dp2575
g89
F1.0
s(lp2576
(g87
I34
tp2577
atp2578
a(S'no'
p2579
(dp2580
S'ADV'
p2581
F1.0
sg210
F0.0
s(lp2582
(g283
I36
tp2583
atp2584
a(S'debe'
p2585
(dp2586
S'VERB'
p2587
F1.0
s(lp2588
(g275
I35
tp2589
atp2590
a(S'sustituir'
p2591
(dp2592
S'VERB'
p2593
F1.0
s(lp2594
(g290
I37
tp2595
atp2596
a(g32
(dp2597
g210
F0.000259
sS'CONJ'
p2598
F5e-06
sS'ADP'
p2599
F0.999736
s(lp2600
tp2601
a(S'los'
p2602
(dp2603
S'PRON'
p2604
F0.0
sS'DET'
p2605
F1.0
s(lp2606
tp2607
a(S'sistemas'
p2608
(dp2609
S'NOUN'
p2610
F1.0
s(lp2611
(g305
I41
tp2612
atp2613
a(S'de'
p2614
(dp2615
g210
F2.9e-05
sS'CONJ'
p2616
F0.000449
sS'ADP'
p2617
F0.999522
s(lp2618
tp2619
a(S'seguridad'
p2620
(dp2621
S'NOUN'
p2622
F1.0
s(lp2623
(g317
I40
tp2624
atp2625
a(S'pasiva'
p2626
(dp2627
S'ADJ'
p2628
F1.0
s(lp2629
(g325
I39
tp2630
atp2631
a(S'de'
p2632
(dp2633
g210
F0.000251
sS'CONJ'
p2634
F0.0024
sS'ADP'
p2635
F0.997349
s(lp2636
tp2637
a(S'alto'
p2638
(dp2639
S'NOUN'
p2640
F0.236806
sS'ADJ'
p2641
F0.763194
s(lp2642
tp2643
a(S'nivel'
p2644
(dp2645
S'NOUN'
p2646
F1.0
s(lp2647
(g344
I38
tp2648
atp2649
a(S'sino'
p2650
(dp2651
S'CONJ'
p2652
F1.0
s(lp2653
(g355
I43
tp2654
atp2655
a(S'complementarlos'
p2656
(dp2657
S'NOUN'
p2658
F0.012433
sS'VERB'
p2659
F0.47648599999999997
sS'ADJ'
p2660
F0.511081
s(lp2661
(g371
I46
tp2662
atp2663
a(g89
(dp2664
g89
F1.0
s(lp2665
(g89
I48
tp2666
atp2667
as.