(dp0
S'fr'
p1
(lp2
(S'dans'
p3
(dp4
S'NOUN'
p5
F0.010046
sS'ADP'
p6
F0.989954
s(lp7
(S'in'
p8
I0
tp9
atp10
a(S'de'
p11
(dp12
S'ADP'
p13
F1.0
s(lp14
tp15
a(S'tels'
p16
(dp17
S'PRON'
p18
F0.999707
sS'NOUN'
p19
F0.000293
s(lp20
(S'such'
p21
I1
tp22
atp23
a(S'cas'
p24
(dp25
S'NOUN'
p26
F1.0
s(lp27
(S'cases'
p28
I2
tp29
atp30
a(S','
p31
(dp32
S'.'
p33
F1.0
s(lp34
(g31
I3
tp35
atp36
a(S'il'
p37
(dp38
S'PRON'
p39
F1.0
s(lp40
(S'it'
p41
I4
tp42
atp43
a(S'est'
p44
(dp45
S'VERB'
p46
F0.999791
sS'NOUN'
p47
F0.000209
s(lp48
(S'is'
p49
I5
tp50
atp51
a(S'int\xc3\xa9ressant'
p52
(dp53
S'VERB'
p54
F0.237142
sS'ADJ'
p55
F0.762858
s(lp56
(S'interesting'
p57
I7
tp58
atp59
a(S'\xc3\xa9galement'
p60
(dp61
S'ADV'
p62
F1.0
s(lp63
(S'also'
p64
I6
tp65
atp66
a(S"d'"
p67
(dp68
S'NOUN'
p69
F0.037162
sS'VERB'
p70
F0.7565829999999999
sS'ADJ'
p71
F0.206256
s(lp72
(S'to'
p73
I8
tp74
atp75
a(S'agir'
p76
(dp77
S'VERB'
p78
F1.0
s(lp79
(S'do'
p80
I9
tp81
atp82
a(S'soi-m\xc3\xaame'
p83
(dp84
S'NOUN'
p85
F0.001975
sS'ADJ'
p86
F0.998025
s(lp87
(S'yourself'
p88
I11
tp89
atp90
a(S'et'
p91
(dp92
S'CONJ'
p93
F1.0
s(lp94
(S'and'
p95
I12
tp96
atp97
a(g31
(dp98
g33
F1.0
s(lp99
tp100
a(S'si'
p101
(dp102
S'ADV'
p103
F0.089235
sS'CONJ'
p104
F0.910722
sS'NOUN'
p105
F4.3e-05
s(lp106
(S'if'
p107
I13
tp108
atp109
a(S'cette'
p110
(dp111
S'PRON'
p112
F1.0
s(lp113
(S'this'
p114
I14
tp115
atp116
a(S'action'
p117
(dp118
S'NOUN'
p119
F1.0
s(lp120
tp121
a(S'est'
p122
(dp123
S'VERB'
p124
F0.999886
sS'NOUN'
p125
F0.000114
s(lp126
(S'is'
p127
I15
tp128
atp129
a(S'per\xc3\xa7ue'
p130
(dp131
S'VERB'
p132
F0.973013
sS'ADJ'
p133
F0.026987
s(lp134
(S'seen'
p135
I16
tp136
atp137
a(S'comme'
p138
(dp139
S'ADV'
p140
F0.932989
sS'CONJ'
p141
F0.067011
s(lp142
(S'as'
p143
I17
tp144
atp145
a(S'souhaitable'
p146
(dp147
S'ADJ'
p148
F1.0
s(lp149
(S'desirable'
p150
I18
tp151
atp152
a(g31
(dp153
g33
F1.0
s(lp154
(g31
I19
tp155
atp156
a(S'je'
p157
(dp158
S'PRON'
p159
F1.0
s(lp160
(S'i'
p161
I20
tp162
atp163
a(S'peux'
p164
(dp165
S'VERB'
p166
F1.0
s(lp167
(S'can'
p168
I21
tp169
atp170
a(S'proposer'
p171
(dp172
S'VERB'
p173
F1.0
s(lp174
(S'offer'
p175
I22
tp176
atp177
a(S'de'
p178
(dp179
S'ADP'
p180
F1.0
s(lp181
(S'to'
p182
I23
tp183
atp184
a(S'mener'
p185
(dp186
S'VERB'
p187
F1.0
s(lp188
(S'carry'
p189
I24
tp190
atp191
a(S'un'
p192
(dp193
S'NOUN'
p194
F1.9e-05
sS'NUM'
p195
F0.007963
sS'DET'
p196
F0.992018
s(lp197
(S'a'
p198
I26
tp199
atp200
a(S'projet'
p201
(dp202
S'NOUN'
p203
F1.0
s(lp204
(S'project'
p205
I28
tp206
atp207
a(S'pilote'
p208
(dp209
S'VERB'
p210
F0.7325189999999999
sS'NOUN'
p211
F0.267481
s(lp212
(S'pilot'
p213
I27
tp214
atp215
a(S'avec'
p216
(dp217
S'ADV'
p218
F0.009993
sS'ADP'
p219
F0.990007
s(lp220
(S'with'
p221
I29
tp222
atp223
a(S'nos'
p224
(dp225
S'PRON'
p226
F1.0
s(lp227
(S'our'
p228
I30
tp229
atp230
a(S'amis'
p231
(dp232
S'ADJ'
p233
F0.006142
sS'NOUN'
p234
F0.993858
s(lp235
tp236
a(S'grecs'
p237
(dp238
S'NOUN'
p239
F0.014644
sS'ADJ'
p240
F0.985356
s(lp241
(S'greek'
p242
I31
tp243
atp244
a(S'ax\xc3\xa9'
p245
(dp246
S'VERB'
p247
F1.0
s(lp248
(S'friends'
p249
I32
tp250
atp251
a(S'sur'
p252
(dp253
S'ADP'
p254
F1.0
s(lp255
(S'on'
p256
I33
tp257
atp258
a(S"l'"
p259
(dp260
S'ADJ'
p261
F0.160704
sS'VERB'
p262
F0.06480800000000002
sS'NOUN'
p263
F0.774488
s(lp264
(S'the'
p265
I34
tp266
atp267
a(S'instauration'
p268
(dp269
S'NOUN'
p270
F1.0
s(lp271
(S'establishment'
p272
I35
tp273
atp274
a(S"d'"
p275
(dp276
S'NOUN'
p277
F0.032441
sS'VERB'
p278
F0.694014
sS'ADJ'
p279
F0.273544
s(lp280
(S'of'
p281
I36
tp282
atp283
a(S'une'
p284
(dp285
S'NOUN'
p286
F1.5e-05
sS'NUM'
p287
F0.021976
sS'DET'
p288
F0.978009
s(lp289
(g198
I37
tp290
atp291
a(S'brigade'
p292
(dp293
S'NOUN'
p294
F1.0
s(lp295
(S'brigade'
p296
I40
tp297
atp298
a(S'de'
p299
(dp300
S'ADP'
p301
F1.0
s(lp302
tp303
a(S'pompiers'
p304
(dp305
S'ADJ'
p306
F0.213416
sS'NOUN'
p307
F0.786584
s(lp308
(S'fire'
p309
I39
tp310
atp311
a(S'volontaires'
p312
(dp313
S'NOUN'
p314
F0.122491
sS'ADJ'
p315
F0.877509
s(lp316
(S'voluntary'
p317
I38
tp318
atp319
a(S'dans'
p320
(dp321
S'NOUN'
p322
F7.8e-05
sS'ADP'
p323
F0.999922
s(lp324
(S'in'
p325
I41
tp326
atp327
a(S'une'
p328
(dp329
S'NOUN'
p330
F1.8e-05
sS'NUM'
p331
F0.0247
sS'DET'
p332
F0.975282
s(lp333
(g198
I42
tp334
atp335
a(S'r\xc3\xa9gion'
p336
(dp337
S'NOUN'
p338
F1.0
s(lp339
(S'region'
p340
I44
tp341
atp342
a(S'ou'
p343
(dp344
S'CONJ'
p345
F1.0
s(lp346
(S'or'
p347
I45
tp348
atp349
a(S'une'
p350
(dp351
S'NOUN'
p352
F3e-06
sS'NUM'
p353
F0.012272
sS'DET'
p354
F0.987725
s(lp355
tp356
a(S'municipalit\xc3\xa9'
p357
(dp358
S'NOUN'
p359
F1.0
s(lp360
tp361
a(S'donn\xc3\xa9e'
p362
(dp363
S'NOUN'
p364
F0.01306
sS'VERB'
p365
F0.753592
sS'ADJ'
p366
F0.233348
s(lp367
(S'municipality'
p368
I46
tp369
atp370
a(g33
(dp371
g33
F1.0
s(lp372
(g33
I47
tp373
atp374
asS'en'
p375
(lp376
(g8
(dp377
S'ADV'
p378
F0.005018
sS'PRT'
p379
F0.0
sS'ADP'
p380
F0.994982
s(lp381
(g8
I0
tp382
atp383
a(g21
(dp384
S'ADV'
p385
F1e-06
sS'DET'
p386
F0.000978
sS'ADJ'
p387
F0.999016
sS'ADP'
p388
F6e-06
s(lp389
(g21
I1
tp390
atp391
a(g28
(dp392
S'VERB'
p393
F1.3e-05
sS'NOUN'
p394
F0.999987
s(lp395
(g28
I2
tp396
atp397
a(g31
(dp398
g33
F1.0
s(lp399
(g31
I3
tp400
atp401
a(g41
(dp402
S'PRON'
p403
F1.0
s(lp404
(g41
I4
tp405
atp406
a(g49
(dp407
S'VERB'
p408
F1.0
s(lp409
(g49
I5
tp410
atp411
a(g64
(dp412
S'ADV'
p413
F1.0
s(lp414
(g64
I6
tp415
atp416
a(g57
(dp417
S'VERB'
p418
F0.087689
sS'ADJ'
p419
F0.912311
s(lp420
(g57
I7
tp421
atp422
a(g73
(dp423
S'ADV'
p424
F0.0
sS'PRT'
p425
F1.0
sS'ADP'
p426
F0.0
s(lp427
(g73
I8
tp428
atp429
a(g80
(dp430
S'VERB'
p431
F0.999998
sS'NOUN'
p432
F1e-06
s(lp433
(g80
I9
tp434
atp435
a(S'something'
p436
(dp437
S'ADV'
p438
F0.041492
sS'NOUN'
p439
F0.958508
s(lp440
(g436
I10
tp441
atp442
a(g88
(dp443
S'PRON'
p444
F1.0
s(lp445
(g88
I11
tp446
atp447
a(g95
(dp448
S'CONJ'
p449
F0.999997
sS'NOUN'
p450
F3e-06
s(lp451
(g95
I12
tp452
atp453
a(g107
(dp454
S'ADP'
p455
F1.0
s(lp456
(g107
I13
tp457
atp458
a(g114
(dp459
S'ADV'
p460
F0.000111
sS'NOUN'
p461
F0.00037
sS'DET'
p462
F0.999519
s(lp463
(g114
I14
tp464
atp465
a(g127
(dp466
S'VERB'
p467
F1.0
s(lp468
(g127
I15
tp469
atp470
a(g135
(dp471
S'VERB'
p472
F0.999576
sS'ADJ'
p473
F0.000424
s(lp474
(g135
I16
tp475
atp476
a(g143
(dp477
S'ADV'
p478
F0.072044
sS'ADP'
p479
F0.927956
s(lp480
(g143
I17
tp481
atp482
a(g150
(dp483
S'ADJ'
p484
F1.0
s(lp485
(g150
I18
tp486
atp487
a(g31
(dp488
g33
F1.0
s(lp489
(g31
I19
tp490
atp491
a(g161
(dp492
S'X'
p493
F0.177681
sS'NOUN'
p494
F0.822319
s(lp495
(g161
I20
tp496
atp497
a(g168
(dp498
S'VERB'
p499
F0.999827
sS'NOUN'
p500
F0.000173
s(lp501
(g168
I21
tp502
atp503
a(g175
(dp504
S'ADJ'
p505
F1e-06
sS'VERB'
p506
F0.999537
sS'NOUN'
p507
F0.000462
s(lp508
(g175
I22
tp509
atp510
a(g182
(dp511
S'ADV'
p512
F0.0
sS'PRT'
p513
F1.0
sS'ADP'
p514
F0.0
s(lp515
(g182
I23
tp516
atp517
a(g189
(dp518
S'VERB'
p519
F0.999611
sS'NOUN'
p520
F0.000388
s(lp521
(g189
I24
tp522
atp523
a(S'out'
p524
(dp525
S'ADV'
p526
F0.030797
sS'NOUN'
p527
F8e-06
sS'ADP'
p528
F0.27253
sS'PRT'
p529
F0.696647
sS'VERB'
p530
F4.9999999999999996e-06
sS'ADJ'
p531
F1.3e-05
s(lp532
(g524
I25
tp533
atp534
a(g198
(dp535
S'NOUN'
p536
F0.0
sS'DET'
p537
F1.0
s(lp538
(g198
I26
tp539
atp540
a(g213
(dp541
S'ADJ'
p542
F0.202844
sS'VERB'
p543
F3.4e-05
sS'NOUN'
p544
F0.797121
s(lp545
(g213
I27
tp546
atp547
a(g205
(dp548
S'VERB'
p549
F0.0037219999999999996
sS'NOUN'
p550
F0.996278
s(lp551
(g205
I28
tp552
atp553
a(g221
(dp554
S'ADP'
p555
F1.0
s(lp556
(g221
I29
tp557
atp558
a(g228
(dp559
S'PRON'
p560
F1.0
s(lp561
(g228
I30
tp562
atp563
a(g242
(dp564
S'ADV'
p565
F3e-06
sS'ADJ'
p566
F0.215712
sS'NOUN'
p567
F0.784285
s(lp568
(g242
I31
tp569
atp570
a(g249
(dp571
S'VERB'
p572
F0.000993
sS'NOUN'
p573
F0.999007
s(lp574
(g249
I32
tp575
atp576
a(g256
(dp577
S'ADV'
p578
F0.000762
sS'PRT'
p579
F0.000459
sS'ADJ'
p580
F0.0
sS'ADP'
p581
F0.998779
sS'NOUN'
p582
F0.0
s(lp583
(g256
I33
tp584
atp585
a(g265
(dp586
S'NOUN'
p587
F1e-06
sS'DET'
p588
F0.999999
s(lp589
(g265
I34
tp590
atp591
a(g272
(dp592
S'NOUN'
p593
F1.0
s(lp594
(g272
I35
tp595
atp596
a(g281
(dp597
S'ADP'
p598
F1.0
s(lp599
(g281
I36
tp600
atp601
a(g198
(dp602
S'NOUN'
p603
F0.0
sS'DET'
p604
F1.0
s(lp605
(g198
I37
tp606
atp607
a(g317
(dp608
S'NOUN'
p609
F0.005497
sS'ADJ'
p610
F0.994503
s(lp611
(g317
I38
tp612
atp613
a(g309
(dp614
S'VERB'
p615
F1.9e-05
sS'NOUN'
p616
F0.999982
s(lp617
(g309
I39
tp618
atp619
a(g296
(dp620
S'VERB'
p621
F0.003758
sS'NOUN'
p622
F0.996242
s(lp623
(g296
I40
tp624
atp625
a(g325
(dp626
S'ADV'
p627
F0.000199
sS'PRT'
p628
F0.000337
sS'ADP'
p629
F0.999463
s(lp630
(g325
I41
tp631
atp632
a(g198
(dp633
S'NOUN'
p634
F0.0
sS'DET'
p635
F1.0
s(lp636
(g198
I42
tp637
atp638
a(S'selected'
p639
(dp640
S'VERB'
p641
F0.15327100000000002
sS'ADJ'
p642
F0.846729
s(lp643
(g639
I43
tp644
atp645
a(g340
(dp646
S'NOUN'
p647
F1.0
s(lp648
(g340
I44
tp649
atp650
a(g347
(dp651
S'CONJ'
p652
F0.999986
sS'ADJ'
p653
F1.4e-05
s(lp654
(g347
I45
tp655
atp656
a(g368
(dp657
S'NOUN'
p658
F1.0
s(lp659
(g368
I46
tp660
atp661
a(g33
(dp662
g33
F1.0
s(lp663
(g33
I47
tp664
atp665
asS'nl'
p666
(lp667
(S'in'
p668
(dp669
S'ADV'
p670
F0.003724
sS'VERB'
p671
F0.0
sS'ADP'
p672
F0.996276
s(lp673
(g8
I0
tp674
atp675
a(S'zulke'
p676
(dp677
S'PRON'
p678
F1.0
s(lp679
(g21
I1
tp680
atp681
a(S'gevallen'
p682
(dp683
S'ADJ'
p684
F1.4e-05
sS'VERB'
p685
F0.005504
sS'NOUN'
p686
F0.994483
s(lp687
(g28
I2
tp688
atp689
a(S'is'
p690
(dp691
S'VERB'
p692
F1.0
s(lp693
(g49
I5
tp694
atp695
a(S'het'
p696
(dp697
S'PRON'
p698
F0.192971
sS'DET'
p699
F0.807028
s(lp700
(g41
I4
tp701
atp702
a(S'interessant'
p703
(dp704
S'ADJ'
p705
F1.0
s(lp706
(g57
I7
tp707
atp708
a(S'om'
p709
(dp710
S'ADV'
p711
F0.000131
sS'CONJ'
p712
F0.960756
sS'ADP'
p713
F0.039113
s(lp714
tp715
a(S'zelf'
p716
(dp717
S'PRON'
p718
F1.0
s(lp719
(g88
I11
tp720
atp721
a(S'iets'
p722
(dp723
S'ADV'
p724
F0.997919
sS'PRON'
p725
F0.002081
s(lp726
(g436
I10
tp727
atp728
a(S'te'
p729
(dp730
S'PRT'
p731
F1.0
s(lp732
(g73
I8
tp733
atp734
a(S'doen'
p735
(dp736
S'VERB'
p737
F1.0
sS'NOUN'
p738
F0.0
s(lp739
(g80
I9
tp740
atp741
a(g31
(dp742
g33
F1.0
s(lp743
tp744
a(S'en'
p745
(dp746
S'CONJ'
p747
F1.0
s(lp748
(g95
I12
tp749
atp750
a(S'wanneer'
p751
(dp752
S'ADV'
p753
F0.027109
sS'CONJ'
p754
F0.972891
s(lp755
(g107
I13
tp756
atp757
a(S'ze'
p758
(dp759
S'PRON'
p760
F1.0
s(lp761
tp762
a(S'dit'
p763
(dp764
S'PRON'
p765
F1.0
s(lp766
(g114
I14
tp767
atp768
a(S'wensen'
p769
(dp770
S'VERB'
p771
F0.059841000000000005
sS'NOUN'
p772
F0.94016
s(lp773
(g150
I18
tp774
atp775
a(S'kan'
p776
(dp777
S'VERB'
p778
F1.0
sS'NOUN'
p779
F0.0
s(lp780
(g168
I21
tp781
atp782
a(S'ik'
p783
(dp784
S'PRON'
p785
F1.0
sS'NOUN'
p786
F0.0
s(lp787
(g161
I20
tp788
atp789
a(S'onze'
p790
(dp791
S'PRON'
p792
F1.0
s(lp793
(g228
I30
tp794
atp795
a(S'griekse'
p796
(dp797
S'NOUN'
p798
F0.008324
sS'ADJ'
p799
F0.991676
s(lp800
(g242
I31
tp801
atp802
a(S'vrienden'
p803
(dp804
S'NOUN'
p805
F1.0
s(lp806
(g249
I32
tp807
atp808
a(S'aanbieden'
p809
(dp810
S'VERB'
p811
F0.997142
sS'NOUN'
p812
F0.002858
s(lp813
(g175
I22
tp814
atp815
a(S'om'
p816
(dp817
S'ADV'
p818
F0.028928
sS'CONJ'
p819
F0.952878
sS'ADP'
p820
F0.018193
s(lp821
tp822
a(S'in'
p823
(dp824
S'ADV'
p825
F0.010447
sS'VERB'
p826
F1e-06
sS'ADP'
p827
F0.989553
s(lp828
(g325
I41
tp829
atp830
a(S'een'
p831
(dp832
S'ADJ'
p833
F1e-06
sS'PRON'
p834
F1.4e-05
sS'NUM'
p835
F0.0
sS'DET'
p836
F0.999985
s(lp837
(g198
I42
tp838
atp839
a(S'regio'
p840
(dp841
S'NOUN'
p842
F1.0
s(lp843
(g340
I44
tp844
atp845
a(S'of'
p846
(dp847
S'CONJ'
p848
F1.0
s(lp849
(g347
I45
tp850
atp851
a(S'gemeente'
p852
(dp853
S'NOUN'
p854
F1.0
s(lp855
(g368
I46
tp856
atp857
a(S'een'
p858
(dp859
S'ADJ'
p860
F1.4e-05
sS'NUM'
p861
F1.5e-05
sS'DET'
p862
F0.999968
sS'PRON'
p863
F2e-06
s(lp864
(g198
I26
tp865
atp866
a(S'proefproject'
p867
(dp868
S'NOUN'
p869
F1.0
s(lp870
(g213
I27
tp871
atp872
a(S'voor'
p873
(dp874
S'ADV'
p875
F0.001935
sS'CONJ'
p876
F3e-06
sS'NOUN'
p877
F0.0
sS'ADP'
p878
F0.998062
s(lp879
(g221
I29
tp880
atp881
a(S'de'
p882
(dp883
S'DET'
p884
F1.0
s(lp885
(g265
I34
tp886
atp887
a(S'opbouw'
p888
(dp889
S'VERB'
p890
F0.000156
sS'NOUN'
p891
F0.999844
s(lp892
(g272
I35
tp893
atp894
a(S'van'
p895
(dp896
S'ADP'
p897
F1.0
s(lp898
(g281
I36
tp899
atp900
a(S'een'
p901
(dp902
S'ADJ'
p903
F1e-06
sS'PRON'
p904
F0.000523
sS'NUM'
p905
F1e-06
sS'DET'
p906
F0.999476
s(lp907
(g198
I37
tp908
atp909
a(S'vrijwillig'
p910
(dp911
S'ADJ'
p912
F1.0
s(lp913
(g317
I38
tp914
atp915
a(S'brandweerkorps'
p916
(dp917
S'NOUN'
p918
F1.0
s(lp919
(g296
I40
tp920
atp921
a(S'op'
p922
(dp923
S'ADV'
p924
F0.010779
sS'ADJ'
p925
F9e-06
sS'ADP'
p926
F0.989213
s(lp927
(g256
I33
tp928
atp929
a(S'poten'
p930
(dp931
S'VERB'
p932
F0.009970000000000001
sS'NOUN'
p933
F0.99003
s(lp934
tp935
a(S'te'
p936
(dp937
S'PRT'
p938
F1.0
s(lp939
(g182
I23
tp940
atp941
a(S'zetten'
p942
(dp943
S'VERB'
p944
F0.999968
sS'NOUN'
p945
F3.2e-05
s(lp946
(g368
I46
tp947
atp948
a(g33
(dp949
g33
F1.0
s(lp950
(g33
I47
tp951
atp952
asS'de'
p953
(lp954
(S'in'
p955
(dp956
S'ADP'
p957
F1.0
s(lp958
(g8
I0
tp959
atp960
a(S'solchen'
p961
(dp962
S'PRON'
p963
F1.0
s(lp964
(g21
I1
tp965
atp966
a(S'f\xc3\xa4llen'
p967
(dp968
S'VERB'
p969
F1.0
s(lp970
(g28
I2
tp971
atp972
a(S'ist'
p973
(dp974
S'VERB'
p975
F1.0
s(lp976
(g49
I5
tp977
atp978
a(S'es'
p979
(dp980
S'PRON'
p981
F1.0
s(lp982
(g41
I4
tp983
atp984
a(S'auch'
p985
(dp986
S'ADV'
p987
F1.0
s(lp988
(g64
I6
tp989
atp990
a(S'interessant'
p991
(dp992
S'ADJ'
p993
F1.0
s(lp994
(g57
I7
tp995
atp996
a(g31
(dp997
g33
F1.0
s(lp998
(g73
I8
tp999
atp1000
a(S'selbst'
p1001
(dp1002
S'ADV'
p1003
F0.999996
sS'PRT'
p1004
F4e-06
s(lp1005
(g88
I11
tp1006
atp1007
a(S'etwas'
p1008
(dp1009
S'ADV'
p1010
F0.259942
sS'PRON'
p1011
F0.737153
s(lp1012
(g436
I10
tp1013
atp1014
a(S'zu'
p1015
(dp1016
S'PRT'
p1017
F0.9999
s(lp1018
tp1019
a(S'tun'
p1020
(dp1021
S'VERB'
p1022
F1.0
s(lp1023
(g80
I9
tp1024
atp1025
a(g31
(dp1026
g33
F1.0
s(lp1027
(g73
I8
tp1028
atp1029
a(S'und'
p1030
(dp1031
S'CONJ'
p1032
F1.0
s(lp1033
(g95
I12
tp1034
atp1035
a(S'wenn'
p1036
(dp1037
S'CONJ'
p1038
F1.0
s(lp1039
(g107
I13
tp1040
atp1041
a(S'dies'
p1042
(dp1043
S'PRON'
p1044
F1.0
s(lp1045
(g114
I14
tp1046
atp1047
a(S'gew\xc3\xbcnscht'
p1048
(dp1049
S'VERB'
p1050
F1.0
s(lp1051
(g150
I18
tp1052
atp1053
a(S'ist'
p1054
(dp1055
S'VERB'
p1056
F1.0
s(lp1057
(g127
I15
tp1058
atp1059
a(g31
(dp1060
g33
F1.0
s(lp1061
(g31
I19
tp1062
atp1063
a(S'kann'
p1064
(dp1065
S'VERB'
p1066
F1.0
s(lp1067
(g168
I21
tp1068
atp1069
a(S'ich'
p1070
(dp1071
S'PRON'
p1072
F1.0
s(lp1073
(g161
I20
tp1074
atp1075
a(S'den'
p1076
(dp1077
S'PRON'
p1078
F0.001115
sS'DET'
p1079
F0.99881
s(lp1080
(g228
I30
tp1081
atp1082
a(S'griechischen'
p1083
(dp1084
S'ADJ'
p1085
F1.0
s(lp1086
(g242
I31
tp1087
atp1088
a(S'freunden'
p1089
(dp1090
S'VERB'
p1091
F1.0
s(lp1092
(g249
I32
tp1093
atp1094
a(S'anbieten'
p1095
(dp1096
S'VERB'
p1097
F1.0
s(lp1098
(g175
I22
tp1099
atp1100
a(g31
(dp1101
g33
F1.0
s(lp1102
(g182
I23
tp1103
atp1104
a(S'ein'
p1105
(dp1106
S'NUM'
p1107
F0.001322
sS'DET'
p1108
F0.998516
s(lp1109
(g198
I26
tp1110
atp1111
a(S'pilotprojekt'
p1112
(dp1113
S'ADJ'
p1114
F0.000131
sS'NOUN'
p1115
F0.999778
s(lp1116
(g213
I27
tp1117
atp1118
a(S'zum'
p1119
(dp1120
S'ADP'
p1121
F1.0
s(lp1122
(g256
I33
tp1123
atp1124
a(S'aufbau'
p1125
(dp1126
S'ADJ'
p1127
F7e-05
sS'NOUN'
p1128
F0.999907
s(lp1129
(g272
I35
tp1130
atp1131
a(S'einer'
p1132
(dp1133
S'PRON'
p1134
F0.001275
sS'DET'
p1135
F0.998585
s(lp1136
(g198
I37
tp1137
atp1138
a(S'freiwilligen'
p1139
(dp1140
S'ADJ'
p1141
F1.0
s(lp1142
(g317
I38
tp1143
atp1144
a(S'feuerwehr'
p1145
(dp1146
S'ADJ'
p1147
F0.002298
sS'NOUN'
p1148
F0.99433
s(lp1149
(g296
I40
tp1150
atp1151
a(S'in'
p1152
(dp1153
S'ADP'
p1154
F1.0
s(lp1155
(g325
I41
tp1156
atp1157
a(S'einer'
p1158
(dp1159
S'PRON'
p1160
F0.002948
sS'DET'
p1161
F0.996882
s(lp1162
(g198
I42
tp1163
atp1164
a(S'ausgew\xc3\xa4hlten'
p1165
(dp1166
S'ADJ'
p1167
F1.0
s(lp1168
(g639
I43
tp1169
atp1170
a(S'region'
p1171
(dp1172
S'ADJ'
p1173
F0.0003
sS'NOUN'
p1174
F0.999677
s(lp1175
(g340
I44
tp1176
atp1177
a(S'oder'
p1178
(dp1179
S'CONJ'
p1180
F1.0
s(lp1181
(g347
I45
tp1182
atp1183
a(S'kommune'
p1184
(dp1185
S'ADJ'
p1186
F0.342075
sS'NOUN'
p1187
F0.587798
s(lp1188
(g368
I46
tp1189
atp1190
a(S'durchzuf\xc3\xbchren'
p1191
(dp1192
S'VERB'
p1193
F1.0
s(lp1194
(g189
I24
tp1195
atp1196
a(g33
(dp1197
g33
F1.0
s(lp1198
(g33
I47
tp1199
atp1200
asS'it'
p1201
(lp1202
(S'in'
p1203
(dp1204
S'ADP'
p1205
F1.0
s(lp1206
(g8
I0
tp1207
atp1208
a(S'questi'
p1209
(dp1210
S'PRON'
p1211
F1.0
s(lp1212
(g21
I1
tp1213
atp1214
a(S'casi'
p1215
(dp1216
S'NOUN'
p1217
F1.0
s(lp1218
(g28
I2
tp1219
atp1220
a(g31
(dp1221
g33
F1.0
s(lp1222
(g31
I3
tp1223
atp1224
a(S'\xc3\xa8'
p1225
(dp1226
S'VERB'
p1227
F1.0
s(lp1228
(g49
I5
tp1229
atp1230
a(S'anche'
p1231
(dp1232
S'ADV'
p1233
F0.999946
sS'NOUN'
p1234
F5.4e-05
s(lp1235
(g64
I6
tp1236
atp1237
a(S'interessante'
p1238
(dp1239
S'VERB'
p1240
F0.045637
sS'ADJ'
p1241
F0.954363
s(lp1242
(g57
I7
tp1243
atp1244
a(S'fare'
p1245
(dp1246
S'VERB'
p1247
F1.0
s(lp1248
(g80
I9
tp1249
atp1250
a(S'qualcosa'
p1251
(dp1252
S'PRON'
p1253
F1.0
s(lp1254
(g436
I10
tp1255
atp1256
a(S'in'
p1257
(dp1258
S'ADP'
p1259
F1.0
s(lp1260
tp1261
a(S'prima'
p1262
(dp1263
S'ADV'
p1264
F0.027585
sS'NOUN'
p1265
F0.001425
sS'CONJ'
p1266
F0.001705
sS'ADJ'
p1267
F0.964264
sS'ADP'
p1268
F0.005021
s(lp1269
tp1270
a(S'persona'
p1271
(dp1272
S'NOUN'
p1273
F1.0
s(lp1274
(g88
I11
tp1275
atp1276
a(S'e'
p1277
(dp1278
S'CONJ'
p1279
F1.0
s(lp1280
(g95
I12
tp1281
atp1282
a(S'qualora'
p1283
(dp1284
S'ADV'
p1285
F0.389753
sS'CONJ'
p1286
F0.610247
s(lp1287
(g107
I13
tp1288
atp1289
a(S'lo'
p1290
(dp1291
S'PRON'
p1292
F0.130539
sS'DET'
p1293
F0.869461
s(lp1294
(g114
I14
tp1295
atp1296
a(S'si'
p1297
(dp1298
S'PRON'
p1299
F0.999545
sS'NOUN'
p1300
F0.000455
s(lp1301
(g127
I15
tp1302
atp1303
a(S'ritenesse'
p1304
(dp1305
S'VERB'
p1306
F1.0
s(lp1307
(g135
I16
tp1308
atp1309
a(S'auspicabile'
p1310
(dp1311
S'ADJ'
p1312
F1.0
s(lp1313
(g150
I18
tp1314
atp1315
a(g31
(dp1316
g33
F1.0
s(lp1317
(g31
I19
tp1318
atp1319
a(S'potrei'
p1320
(dp1321
S'VERB'
p1322
F1.0
s(lp1323
(g168
I21
tp1324
atp1325
a(S'volentieri'
p1326
(dp1327
S'ADV'
p1328
F1.0
s(lp1329
tp1330
a(S'offrirmi'
p1331
(dp1332
S'VERB'
p1333
F1.0
s(lp1334
(g175
I22
tp1335
atp1336
a(S'di'
p1337
(dp1338
S'CONJ'
p1339
F1e-06
sS'ADP'
p1340
F0.999999
s(lp1341
(g182
I23
tp1342
atp1343
a(S'condurre'
p1344
(dp1345
S'VERB'
p1346
F1.0
s(lp1347
(g189
I24
tp1348
atp1349
a(S'un'
p1350
(dp1351
S'PRON'
p1352
F0.001891
sS'DEF'
p1353
F0.998109
s(lp1354
(g198
I26
tp1355
atp1356
a(S'progetto'
p1357
(dp1358
S'VERB'
p1359
F1.5e-05
sS'NOUN'
p1360
F0.999985
s(lp1361
(g205
I28
tp1362
atp1363
a(S'pilota'
p1364
(dp1365
S'VERB'
p1366
F0.407923
sS'NOUN'
p1367
F0.592078
s(lp1368
(g213
I27
tp1369
atp1370
a(S'con'
p1371
(dp1372
S'ADP'
p1373
F1.0
s(lp1374
(g221
I29
tp1375
atp1376
a(g161
(dp1377
S'DET'
p1378
F1.0
s(lp1379
tp1380
a(S'nostri'
p1381
(dp1382
S'PRON'
p1383
F1.0
s(lp1384
(g228
I30
tp1385
atp1386
a(S'amici'
p1387
(dp1388
S'ADJ'
p1389
F0.346492
sS'NOUN'
p1390
F0.653508
s(lp1391
(g249
I32
tp1392
atp1393
a(S'greci'
p1394
(dp1395
S'NOUN'
p1396
F0.271602
sS'ADJ'
p1397
F0.728398
s(lp1398
(g242
I31
tp1399
atp1400
a(S'per'
p1401
(dp1402
S'CONJ'
p1403
F0.058842
sS'ADP'
p1404
F0.941158
s(lp1405
(g256
I33
tp1406
atp1407
a(S'la'
p1408
(dp1409
S'PRON'
p1410
F0.000212
sS'DET'
p1411
F0.999788
s(lp1412
(g265
I34
tp1413
atp1414
a(S'creazione'
p1415
(dp1416
S'NOUN'
p1417
F1.0
s(lp1418
(g272
I35
tp1419
atp1420
a(S'di'
p1421
(dp1422
S'CONJ'
p1423
F1.6e-05
sS'ADP'
p1424
F0.999984
s(lp1425
(g281
I36
tp1426
atp1427
a(S'un'
p1428
(dp1429
S'PRON'
p1430
F0.00267
sS'DEF'
p1431
F0.99733
s(lp1432
(g198
I37
tp1433
atp1434
a(S'corpo'
p1435
(dp1436
S'NOUN'
p1437
F1.0
s(lp1438
(g296
I40
tp1439
atp1440
a(S'di'
p1441
(dp1442
S'CONJ'
p1443
F1.4e-05
sS'ADP'
p1444
F0.999986
s(lp1445
tp1446
a(S'vigili'
p1447
(dp1448
S'ADJ'
p1449
F0.454222
sS'VERB'
p1450
F0.019815000000000003
sS'NOUN'
p1451
F0.525964
s(lp1452
tp1453
a(S'del'
p1454
(dp1455
S'DEF'
p1456
F0.002001
sS'ADP'
p1457
F0.997999
s(lp1458
(g296
I40
tp1459
atp1460
a(S'fuoco'
p1461
(dp1462
S'NOUN'
p1463
F1.0
s(lp1464
(g309
I39
tp1465
atp1466
a(S'volontario'
p1467
(dp1468
S'NOUN'
p1469
F0.042007
sS'ADJ'
p1470
F0.957993
s(lp1471
(g317
I38
tp1472
atp1473
a(S'in'
p1474
(dp1475
S'ADP'
p1476
F1.0
s(lp1477
(g325
I41
tp1478
atp1479
a(S'una'
p1480
(dp1481
S'PRON'
p1482
F0.000196
sS'DEF'
p1483
F0.999804
s(lp1484
(g198
I42
tp1485
atp1486
a(S'data'
p1487
(dp1488
S'ADJ'
p1489
F0.184317
sS'VERB'
p1490
F0.008121999999999999
sS'NOUN'
p1491
F0.807561
s(lp1492
(g639
I43
tp1493
atp1494
a(S'regione'
p1495
(dp1496
S'NOUN'
p1497
F1.0
s(lp1498
(g340
I44
tp1499
atp1500
a(S'o'
p1501
(dp1502
g493
F0.0
sS'CONJ'
p1503
F1.0
s(lp1504
(g347
I45
tp1505
atp1506
a(S'in'
p1507
(dp1508
S'ADP'
p1509
F1.0
s(lp1510
tp1511
a(S'un'
p1512
(dp1513
S'PRON'
p1514
F0.004476
sS'DEF'
p1515
F0.995524
s(lp1516
tp1517
a(S'dato'
p1518
(dp1519
S'ADJ'
p1520
F0.012433
sS'CONJ'
p1521
F8e-06
sS'VERB'
p1522
F0.025858000000000003
sS'NOUN'
p1523
F0.961701
s(lp1524
tp1525
a(S'comune'
p1526
(dp1527
S'NOUN'
p1528
F0.01982
sS'ADJ'
p1529
F0.98018
s(lp1530
(g368
I46
tp1531
atp1532
a(g33
(dp1533
g33
F1.0
s(lp1534
(g33
I47
tp1535
atp1536
asS'sk'
p1537
(lp1538
(S'v'
p1539
(dp1540
g493
F0.00010200000000000001
sS'ADP'
p1541
F0.999898
s(lp1542
(g8
I0
tp1543
atp1544
a(S'tak\xc3\xbdch'
p1545
(dp1546
S'PRON'
p1547
F1.0
s(lp1548
(g21
I1
tp1549
atp1550
a(S'pr\xc3\xadpadoch'
p1551
(dp1552
S'NOUN'
p1553
F1.0
s(lp1554
(g28
I2
tp1555
atp1556
a(S'je'
p1557
(dp1558
S'PRON'
p1559
F4.3e-05
sS'VERB'
p1560
F0.999927
sg493
F2.9e-05
s(lp1561
(g49
I5
tp1562
atp1563
a(S'tie\xc5\xbe'
p1564
(dp1565
g493
F1.0
s(lp1566
(g64
I6
tp1567
atp1568
a(S'zauj\xc3\xadmav\xc3\xa9'
p1569
(dp1570
S'ADJ'
p1571
F1.0
s(lp1572
(g57
I7
tp1573
atp1574
a(S'akt\xc3\xadvne'
p1575
(dp1576
S'ADV'
p1577
F0.816719
sS'ADJ'
p1578
F0.183281
s(lp1579
(g296
I40
tp1580
atp1581
a(S'sa'
p1582
(dp1583
S'PRT'
p1584
F0.999909
sS'ADP'
p1585
F0.0
sg493
F9e-05
s(lp1586
(g73
I8
tp1587
atp1588
a(S'zapoji\xc5\xa5'
p1589
(dp1590
S'VERB'
p1591
F1.0
s(lp1592
(g296
I40
tp1593
atp1594
a(g198
(dp1595
g493
F0.000706
sS'CONJ'
p1596
F0.999173
sS'NOUN'
p1597
F0.000103
sS'ADP'
p1598
F1e-06
sS'PRT'
p1599
F1.7e-05
s(lp1600
(g95
I12
tp1601
atp1602
a(S'ak'
p1603
(dp1604
g493
F0.001591
sS'CONJ'
p1605
F0.998408
s(lp1606
tp1607
a(S'by'
p1608
(dp1609
S'PRT'
p1610
F0.999999
sg493
F1e-06
s(lp1611
(g107
I13
tp1612
atp1613
a(S'sa'
p1614
(dp1615
S'PRT'
p1616
F0.999977
sS'ADP'
p1617
F1e-05
sg493
F1.2e-05
s(lp1618
(g127
I15
tp1619
atp1620
a(S'to'
p1621
(dp1622
S'PRON'
p1623
F0.981527
sS'CONJ'
p1624
F0.001154
sg493
F0.017318000000000004
s(lp1625
(g114
I14
tp1626
atp1627
a(S'uk\xc3\xa1zalo'
p1628
(dp1629
S'VERB'
p1630
F1.0
s(lp1631
(g135
I16
tp1632
atp1633
a(S'ako'
p1634
(dp1635
S'PRON'
p1636
F0.021378
sS'CONJ'
p1637
F0.977088
sg493
F0.001533
s(lp1638
(g143
I17
tp1639
atp1640
a(S'pr\xc3\xadnosn\xc3\xa9'
p1641
(dp1642
S'NOUN'
p1643
F0.012634
sS'ADJ'
p1644
F0.987366
s(lp1645
(g150
I18
tp1646
atp1647
a(g31
(dp1648
g33
F1.0
s(lp1649
(g31
I19
tp1650
atp1651
a(S'm\xc3\xb4\xc5\xbeem'
p1652
(dp1653
S'VERB'
p1654
F1.0
s(lp1655
(g168
I21
tp1656
atp1657
a(S'pon\xc3\xbaknu\xc5\xa5'
p1658
(dp1659
S'VERB'
p1660
F1.0
s(lp1661
(g175
I22
tp1662
atp1663
a(S'realiz\xc3\xa1ciu'
p1664
(dp1665
S'NOUN'
p1666
F1.0
s(lp1667
(g189
I24
tp1668
atp1669
a(S'pilotn\xc3\xa9ho'
p1670
(dp1671
S'ADJ'
p1672
F1.0
s(lp1673
(g213
I27
tp1674
atp1675
a(S'projektu'
p1676
(dp1677
S'NOUN'
p1678
F1.0
s(lp1679
(g205
I28
tp1680
atp1681
a(S's'
p1682
(dp1683
g493
F0.00042699999999999997
sS'CONJ'
p1684
F0.000174
sS'NOUN'
p1685
F9e-06
sS'ADP'
p1686
F0.999278
sS'PRT'
p1687
F0.000112
s(lp1688
(g221
I29
tp1689
atp1690
a(S'na\xc5\xa1imi'
p1691
(dp1692
S'PRON'
p1693
F0.999772
sS'NOUN'
p1694
F0.000228
s(lp1695
(g228
I30
tp1696
atp1697
a(S'gr\xc3\xa9ckymi'
p1698
(dp1699
S'ADJ'
p1700
F1.0
s(lp1701
(g242
I31
tp1702
atp1703
a(S'priate\xc4\xbemi'
p1704
(dp1705
S'NOUN'
p1706
F1.0
s(lp1707
(g249
I32
tp1708
atp1709
a(g1682
(dp1710
g493
F0.00085
sS'CONJ'
p1711
F7.9e-05
sS'NOUN'
p1712
F7e-06
sS'ADP'
p1713
F0.999034
sS'PRT'
p1714
F3.1e-05
s(lp1715
(g265
I34
tp1716
atp1717
a(S'cie\xc4\xbeom'
p1718
(dp1719
S'NOUN'
p1720
F1.0
s(lp1721
(g317
I38
tp1722
atp1723
a(S'zalo\xc5\xbei\xc5\xa5'
p1724
(dp1725
S'VERB'
p1726
F1.0
s(lp1727
(g309
I39
tp1728
atp1729
a(S'dobrovo\xc4\xben\xc3\xadcky'
p1730
(dp1731
S'ADJ'
p1732
F1.0
s(lp1733
(g296
I40
tp1734
atp1735
a(S'protipo\xc5\xbeiarny'
p1736
(dp1737
S'ADJ'
p1738
F1.0
s(lp1739
tp1740
a(S'zbor'
p1741
(dp1742
g493
F0.001057
sS'NOUN'
p1743
F0.998943
s(lp1744
(g296
I40
tp1745
atp1746
a(S'vo'
p1747
(dp1748
S'ADP'
p1749
F1.0
s(lp1750
(g325
I41
tp1751
atp1752
a(S'vybranom'
p1753
(dp1754
S'VERB'
p1755
F1.0
s(lp1756
(g639
I43
tp1757
atp1758
a(S'regi\xc3\xb3ne'
p1759
(dp1760
S'NOUN'
p1761
F1.0
s(lp1762
(g340
I44
tp1763
atp1764
a(S'alebo'
p1765
(dp1766
g493
F0.000202
sS'CONJ'
p1767
F0.999798
s(lp1768
(g347
I45
tp1769
atp1770
a(S'vo'
p1771
(dp1772
S'ADP'
p1773
F1.0
s(lp1774
(g368
I46
tp1775
atp1776
a(S'vybranej'
p1777
(dp1778
S'VERB'
p1779
F1.0
s(lp1780
tp1781
a(S'obci'
p1782
(dp1783
S'NOUN'
p1784
F1.0
s(lp1785
(g368
I46
tp1786
atp1787
a(g33
(dp1788
g33
F1.0
s(lp1789
(g33
I47
tp1790
atp1791
asS'pl'
p1792
(lp1793
(S'w'
p1794
(dp1795
S'ADJ'
p1796
F0.0
sg493
F0.0
sS'NOUN'
p1797
F0.0
sS'ADP'
p1798
F0.999999
s(lp1799
(g8
I0
tp1800
atp1801
a(S'takich'
p1802
(dp1803
S'ADJ'
p1804
F1.0
s(lp1805
(g21
I1
tp1806
atp1807
a(S'przypadkach'
p1808
(dp1809
S'NOUN'
p1810
F1.0
s(lp1811
(g28
I2
tp1812
atp1813
a(S'nale\xc5\xbcy'
p1814
(dp1815
S'VERB'
p1816
F0.998522
sS'ADJ'
p1817
F0.001479
s(lp1818
(g41
I4
tp1819
atp1820
a(S'r\xc3\xb3wnie\xc5\xbc'
p1821
(dp1822
S'PRT'
p1823
F0.986367
sS'CONJ'
p1824
F0.013633
s(lp1825
(g64
I6
tp1826
atp1827
a(S'zrobi\xc4\x87'
p1828
(dp1829
S'VERB'
p1830
F1.0
s(lp1831
(g80
I9
tp1832
atp1833
a(S'co\xc5\x9b'
p1834
(dp1835
S'PRT'
p1836
F0.048833
sS'NOUN'
p1837
F0.951166
s(lp1838
(g436
I10
tp1839
atp1840
a(S'samodzielnie'
p1841
(dp1842
S'ADV'
p1843
F1.0
s(lp1844
(g88
I11
tp1845
atp1846
a(g31
(dp1847
g493
F0.0
sg33
F1.0
s(lp1848
tp1849
a(g198
(dp1850
S'ADV'
p1851
F0.000176
sS'NOUN'
p1852
F0.0014759999999999999
sS'ADP'
p1853
F4.4999999999999996e-05
sS'PRT'
p1854
F0.003556
sS'VERB'
p1855
F0.000612
sg493
F0.005586
sS'CONJ'
p1856
F0.988342
sS'ADJ'
p1857
F0.000207
s(lp1858
(g95
I12
tp1859
atp1860
a(S'gdyby'
p1861
(dp1862
S'PRT'
p1863
F0.491241
sS'CONJ'
p1864
F0.508759
s(lp1865
(g107
I13
tp1866
atp1867
a(S'zosta\xc5\x82o'
p1868
(dp1869
S'VERB'
p1870
F1.0
s(lp1871
(g127
I15
tp1872
atp1873
a(S'to'
p1874
(dp1875
S'NOUN'
p1876
F0.694857
sS'ADP'
p1877
F2e-06
sS'PRT'
p1878
F0.226667
sg493
F1e-06
sS'CONJ'
p1879
F0.07396
sS'ADJ'
p1880
F0.004513
s(lp1881
(g114
I14
tp1882
atp1883
a(S'uznane'
p1884
(dp1885
S'VERB'
p1886
F0.999999
s(lp1887
(g135
I16
tp1888
atp1889
a(S'za'
p1890
(dp1891
S'PRT'
p1892
F0.133131
sS'VERB'
p1893
F0.00014199999999999998
sS'NOUN'
p1894
F1e-05
sS'ADP'
p1895
F0.8667069999999999
sg493
F1e-05
s(lp1896
(g143
I17
tp1897
atp1898
a(S'przydatne'
p1899
(dp1900
S'ADJ'
p1901
F1.000001
s(lp1902
(g150
I18
tp1903
atp1904
a(g31
(dp1905
g493
F0.0
sg33
F1.0
s(lp1906
(g31
I19
tp1907
atp1908
a(S'm\xc3\xb3g\xc5\x82bym'
p1909
(dp1910
S'ADV'
p1911
F0.049121
sS'NOUN'
p1912
F0.09015199999999995
sS'VERB'
p1913
F0.7644410000000003
sS'ADJ'
p1914
F0.09629000000000003
s(lp1915
(g296
I40
tp1916
atp1917
a(S'przeprowadzi\xc4\x87'
p1918
(dp1919
S'VERB'
p1920
F1.0
s(lp1921
(g189
I24
tp1922
atp1923
a(S'z'
p1924
(dp1925
S'PRT'
p1926
F1e-06
sS'VERB'
p1927
F0.0
sS'NOUN'
p1928
F0.0
sS'ADP'
p1929
F0.999999
sg493
F0.0
s(lp1930
(g221
I29
tp1931
atp1932
a(S'naszymi'
p1933
(dp1934
S'ADJ'
p1935
F1.0
s(lp1936
(g228
I30
tp1937
atp1938
a(S'greckimi'
p1939
(dp1940
S'NOUN'
p1941
F0.001325
sS'ADJ'
p1942
F0.998674
s(lp1943
(g242
I31
tp1944
atp1945
a(S'kolegami'
p1946
(dp1947
S'NOUN'
p1948
F1.0
s(lp1949
(g296
I40
tp1950
atp1951
a(S'projekt'
p1952
(dp1953
S'NOUN'
p1954
F1.0
s(lp1955
(g205
I28
tp1956
atp1957
a(S'pilota\xc5\xbcowy'
p1958
(dp1959
S'ADJ'
p1960
F1.0
s(lp1961
(g213
I27
tp1962
atp1963
a(S'za\xc5\x82o\xc5\xbcenia'
p1964
(dp1965
S'VERB'
p1966
F0.198241
sS'NOUN'
p1967
F0.801759
s(lp1968
tp1969
a(S'ochotniczej'
p1970
(dp1971
S'ADV'
p1972
F3e-06
sS'NOUN'
p1973
F0.000255
sS'VERB'
p1974
F1.6e-05
sS'ADJ'
p1975
F0.999724
sS'PRT'
p1976
F4e-06
s(lp1977
(g296
I40
tp1978
atp1979
a(S'stra\xc5\xbcy'
p1980
(dp1981
S'NOUN'
p1982
F1.0
s(lp1983
tp1984
a(S'po\xc5\xbcarnej'
p1985
(dp1986
S'ADJ'
p1987
F1.0
s(lp1988
(g309
I39
tp1989
atp1990
a(g1794
(dp1991
g493
F0.0
sS'ADJ'
p1992
F1e-06
sS'ADP'
p1993
F0.999999
sS'NOUN'
p1994
F0.0
s(lp1995
(g325
I41
tp1996
atp1997
a(S'wybranym'
p1998
(dp1999
S'VERB'
p2000
F0.07614
sS'ADJ'
p2001
F0.92386
s(lp2002
(g639
I43
tp2003
atp2004
a(S'regionie'
p2005
(dp2006
S'NOUN'
p2007
F1.0
s(lp2008
(g340
I44
tp2009
atp2010
a(S'czy'
p2011
(dp2012
S'PRT'
p2013
F0.120287
sS'CONJ'
p2014
F0.879617
sS'NUM'
p2015
F5.3e-05
sS'NOUN'
p2016
F4.4e-05
s(lp2017
(g347
I45
tp2018
atp2019
a(S'gminie'
p2020
(dp2021
S'NOUN'
p2022
F1.0
s(lp2023
(g368
I46
tp2024
atp2025
a(g33
(dp2026
g33
F1.0
s(lp2027
(g33
I47
tp2028
atp2029
asS'sl'
p2030
(lp2031
(g1539
(dp2032
S'ADP'
p2033
F1.0
s(lp2034
(g8
I0
tp2035
atp2036
a(S'tak\xc5\xa1nih'
p2037
(dp2038
S'PRON'
p2039
F1.0
s(lp2040
(g21
I1
tp2041
atp2042
a(S'primerih'
p2043
(dp2044
S'NOUN'
p2045
F1.0
s(lp2046
(g28
I2
tp2047
atp2048
a(S'je'
p2049
(dp2050
S'PRON'
p2051
F0.026655
sS'VERB'
p2052
F0.97334
sg493
F6e-06
s(lp2053
(g49
I5
tp2054
atp2055
a(S'tudi'
p2056
(dp2057
S'PRT'
p2058
F1.0
s(lp2059
(g64
I6
tp2060
atp2061
a(S'zanimivo'
p2062
(dp2063
S'ADV'
p2064
F0.539548
sS'ADJ'
p2065
F0.460452
s(lp2066
(g57
I7
tp2067
atp2068
a(g31
(dp2069
g33
F1.0
s(lp2070
tp2071
a(S'da'
p2072
(dp2073
S'PRT'
p2074
F0.000226
sS'CONJ'
p2075
F0.999626
sS'VERB'
p2076
F0.000146
sg493
F3e-06
s(lp2077
(g73
I8
tp2078
atp2079
a(S'stori\xc5\xa1'
p2080
(dp2081
S'ADV'
p2082
F0.006725
sS'ADJ'
p2083
F0.018448
sS'VERB'
p2084
F0.44741
sS'NOUN'
p2085
F0.527131
sg493
F0.000286
s(lp2086
tp2087
a(S'kaj'
p2088
(dp2089
S'ADV'
p2090
F0.780576
sS'PRON'
p2091
F0.219424
s(lp2092
(g436
I10
tp2093
atp2094
a(S'sam'
p2095
(dp2096
S'ADV'
p2097
F0.005483
sS'PRT'
p2098
F0.006704
sS'ADJ'
p2099
F0.9837319999999999
sg493
F0.004082
s(lp2100
(g88
I11
tp2101
atp2102
a(S'in'
p2103
(dp2104
S'ADV'
p2105
F0.000795
sg493
F0.000109
sS'CONJ'
p2106
F0.979496
sS'NOUN'
p2107
F0.0196
s(lp2108
(g95
I12
tp2109
atp2110
a(g31
(dp2111
g33
F1.0
s(lp2112
tp2113
a(S'\xc4\x8de'
p2114
(dp2115
S'CONJ'
p2116
F1.0
s(lp2117
(g107
I13
tp2118
atp2119
a(S'je'
p2120
(dp2121
S'PRON'
p2122
F0.000684
sS'VERB'
p2123
F0.999316
sg493
F0.0
s(lp2124
(g127
I15
tp2125
atp2126
a(S'to'
p2127
(dp2128
S'PRON'
p2129
F1.0
sg493
F1e-06
s(lp2130
(g114
I14
tp2131
atp2132
a(S'za\xc5\xbeeleno'
p2133
(dp2134
S'ADJ'
p2135
F1.0
s(lp2136
(g150
I18
tp2137
atp2138
a(g31
(dp2139
g33
F1.0
s(lp2140
(g31
I19
tp2141
atp2142
a(S'se'
p2143
(dp2144
S'PRON'
p2145
F0.999987
sg493
F1.3e-05
s(lp2146
(g161
I20
tp2147
atp2148
a(S'lahko'
p2149
(dp2150
S'ADV'
p2151
F0.999492
sS'ADJ'
p2152
F0.0005070000000000001
s(lp2153
(g168
I21
tp2154
atp2155
a(S'ponudim'
p2156
(dp2157
S'ADV'
p2158
F0.005954
sS'NOUN'
p2159
F0.046483000000000003
sS'VERB'
p2160
F0.848616
sS'ADJ'
p2161
F0.09894599999999998
s(lp2162
(g175
I22
tp2163
atp2164
a(S'za'
p2165
(dp2166
S'ADV'
p2167
F1.6e-05
sg493
F1e-06
sS'ADP'
p2168
F0.999983
s(lp2169
(g182
I23
tp2170
atp2171
a(S'izvedbo'
p2172
(dp2173
S'NOUN'
p2174
F1.0
s(lp2175
(g189
I24
tp2176
atp2177
a(S'pilotnega'
p2178
(dp2179
S'NOUN'
p2180
F0.0004270000000000002
sS'VERB'
p2181
F2e-06
sS'ADJ'
p2182
F0.999572
s(lp2183
(g213
I27
tp2184
atp2185
a(S'projekta'
p2186
(dp2187
S'NOUN'
p2188
F1.0
s(lp2189
(g205
I28
tp2190
atp2191
a(g1924
(dp2192
S'ADP'
p2193
F1.0
s(lp2194
(g221
I29
tp2195
atp2196
a(S'na\xc5\xa1imi'
p2197
(dp2198
S'PRON'
p2199
F1.0
s(lp2200
(g228
I30
tp2201
atp2202
a(S'gr\xc5\xa1kimi'
p2203
(dp2204
S'ADJ'
p2205
F1.0
s(lp2206
(g242
I31
tp2207
atp2208
a(S'prijatelji'
p2209
(dp2210
S'NOUN'
p2211
F1.0
s(lp2212
(g249
I32
tp2213
atp2214
a(S'glede'
p2215
(dp2216
S'ADV'
p2217
F0.039034
sS'ADP'
p2218
F0.960966
s(lp2219
(g256
I33
tp2220
atp2221
a(S'ustanovitve'
p2222
(dp2223
S'NOUN'
p2224
F1.0
s(lp2225
(g272
I35
tp2226
atp2227
a(S'prostovoljne'
p2228
(dp2229
S'ADJ'
p2230
F1.0
s(lp2231
(g317
I38
tp2232
atp2233
a(S'gasilske'
p2234
(dp2235
S'ADJ'
p2236
F1.0
s(lp2237
(g309
I39
tp2238
atp2239
a(S'brigade'
p2240
(dp2241
S'NOUN'
p2242
F1.0
s(lp2243
(g296
I40
tp2244
atp2245
a(g1539
(dp2246
S'ADP'
p2247
F1.0
s(lp2248
(g325
I41
tp2249
atp2250
a(S'izbrani'
p2251
(dp2252
S'ADJ'
p2253
F0.9999999999999999
s(lp2254
(g639
I43
tp2255
atp2256
a(S'regiji'
p2257
(dp2258
S'NOUN'
p2259
F1.0
s(lp2260
(g340
I44
tp2261
atp2262
a(S'ali'
p2263
(dp2264
S'ADV'
p2265
F0.01439
sS'CONJ'
p2266
F0.98561
s(lp2267
(g347
I45
tp2268
atp2269
a(S'ob\xc4\x8dini'
p2270
(dp2271
S'NOUN'
p2272
F1.0000000000000002
s(lp2273
(g368
I46
tp2274
atp2275
a(g33
(dp2276
g33
F1.0
s(lp2277
(g33
I47
tp2278
atp2279
asS'es'
p2280
(lp2281
(S'en'
p2282
(dp2283
g493
F4e-06
sS'CONJ'
p2284
F3e-06
sS'ADP'
p2285
F0.999994
s(lp2286
(g8
I0
tp2287
atp2288
a(S'esos'
p2289
(dp2290
S'PRON'
p2291
F1.0
s(lp2292
(g21
I1
tp2293
atp2294
a(S'casos'
p2295
(dp2296
S'NOUN'
p2297
F1.0
s(lp2298
(g28
I2
tp2299
atp2300
a(g31
(dp2301
g33
F1.0
s(lp2302
(g31
I3
tp2303
atp2304
a(S'tambi\xc3\xa9n'
p2305
(dp2306
S'ADV'
p2307
F1.0
s(lp2308
(g64
I6
tp2309
atp2310
a(S'es'
p2311
(dp2312
S'VERB'
p2313
F1.0
s(lp2314
(g49
I5
tp2315
atp2316
a(S'interesante'
p2317
(dp2318
S'ADJ'
p2319
F1.0
s(lp2320
(g57
I7
tp2321
atp2322
a(S'hacer'
p2323
(dp2324
S'VERB'
p2325
F1.0
s(lp2326
(g80
I9
tp2327
atp2328
a(S'algo'
p2329
(dp2330
S'ADJ'
p2331
F1.0
s(lp2332
(g436
I10
tp2333
atp2334
a(S'uno'
p2335
(dp2336
S'NUM'
p2337
F1.0
s(lp2338
tp2339
a(S'mismo'
p2340
(dp2341
S'ADJ'
p2342
F0.258065
sS'NOUN'
p2343
F0.741935
s(lp2344
(g88
I11
tp2345
atp2346
a(S'y'
p2347
(dp2348
g493
F0.007341
sS'CONJ'
p2349
F0.992659
s(lp2350
(g95
I12
tp2351
atp2352
a(g31
(dp2353
g33
F1.0
s(lp2354
tp2355
a(S'si'
p2356
(dp2357
S'CONJ'
p2358
F0.999637
sS'NOUN'
p2359
F0.000363
s(lp2360
(g107
I13
tp2361
atp2362
a(S'as\xc3\xad'
p2363
(dp2364
S'ADV'
p2365
F0.207554
sS'CONJ'
p2366
F0.792446
s(lp2367
(g114
I14
tp2368
atp2369
a(S'se'
p2370
(dp2371
S'PRON'
p2372
F1.0
sS'VERB'
p2373
F0.0
s(lp2374
(g127
I15
tp2375
atp2376
a(S'quisiese'
p2377
(dp2378
S'VERB'
p2379
F1.0
s(lp2380
(g150
I18
tp2381
atp2382
a(g31
(dp2383
g33
F1.0
s(lp2384
(g31
I19
tp2385
atp2386
a(S'me'
p2387
(dp2388
S'PRON'
p2389
F0.999998
sS'NOUN'
p2390
F2e-06
s(lp2391
(g161
I20
tp2392
atp2393
a(S'ofrezco'
p2394
(dp2395
S'VERB'
p2396
F1.0
s(lp2397
(g175
I22
tp2398
atp2399
a(g198
(dp2400
g493
F1.3000000000000001e-05
sS'CONJ'
p2401
F0.113064
sS'ADP'
p2402
F0.886923
s(lp2403
(g182
I23
tp2404
atp2405
a(S'realizar'
p2406
(dp2407
S'VERB'
p2408
F1.0
s(lp2409
(g189
I24
tp2410
atp2411
a(S'un'
p2412
(dp2413
g493
F4e-06
sS'DET'
p2414
F0.999996
s(lp2415
(g198
I26
tp2416
atp2417
a(S'proyecto'
p2418
(dp2419
S'VERB'
p2420
F0.000144
sS'NOUN'
p2421
F0.999856
s(lp2422
(g205
I28
tp2423
atp2424
a(S'piloto'
p2425
(dp2426
S'ADJ'
p2427
F0.380591
sS'NOUN'
p2428
F0.619409
s(lp2429
(g213
I27
tp2430
atp2431
a(S'con'
p2432
(dp2433
S'ADP'
p2434
F1.0
s(lp2435
(g221
I29
tp2436
atp2437
a(S'nuestros'
p2438
(dp2439
S'PRON'
p2440
F1.0
s(lp2441
(g228
I30
tp2442
atp2443
a(S'amigos'
p2444
(dp2445
S'ADJ'
p2446
F0.043303
sS'NOUN'
p2447
F0.956697
s(lp2448
(g249
I32
tp2449
atp2450
a(S'griegos'
p2451
(dp2452
S'NOUN'
p2453
F0.099628
sS'ADJ'
p2454
F0.900372
s(lp2455
(g242
I31
tp2456
atp2457
a(S'para'
p2458
(dp2459
S'CONJ'
p2460
F0.002034
sS'ADP'
p2461
F0.997966
s(lp2462
(g256
I33
tp2463
atp2464
a(S'el'
p2465
(dp2466
S'PRON'
p2467
F5e-06
sS'DET'
p2468
F0.999995
s(lp2469
(g265
I34
tp2470
atp2471
a(S'establecimiento'
p2472
(dp2473
S'NOUN'
p2474
F1.0
s(lp2475
(g272
I35
tp2476
atp2477
a(S'de'
p2478
(dp2479
g493
F0.0
sS'CONJ'
p2480
F1.7e-05
sS'ADP'
p2481
F0.999983
s(lp2482
(g281
I36
tp2483
atp2484
a(S'una'
p2485
(dp2486
S'DET'
p2487
F1.0
s(lp2488
(g198
I37
tp2489
atp2490
a(S'brigada'
p2491
(dp2492
S'NOUN'
p2493
F1.0
s(lp2494
(g296
I40
tp2495
atp2496
a(S'de'
p2497
(dp2498
g493
F2.9e-05
sS'CONJ'
p2499
F0.000449
sS'ADP'
p2500
F0.999522
s(lp2501
tp2502
a(S'bomberos'
p2503
(dp2504
S'NOUN'
p2505
F1.0
s(lp2506
(g309
I39
tp2507
atp2508
a(S'voluntarios'
p2509
(dp2510
S'ADJ'
p2511
F1.0
s(lp2512
(g317
I38
tp2513
atp2514
a(S'en'
p2515
(dp2516
g493
F0.0
sS'CONJ'
p2517
F1e-06
sS'ADP'
p2518
F0.999999
s(lp2519
(g325
I41
tp2520
atp2521
a(S'una'
p2522
(dp2523
S'DET'
p2524
F1.0
s(lp2525
(g198
I42
tp2526
atp2527
a(S'regi\xc3\xb3n'
p2528
(dp2529
S'NOUN'
p2530
F1.0
s(lp2531
(g340
I44
tp2532
atp2533
a(g1501
(dp2534
g493
F0.000579
sS'CONJ'
p2535
F0.999421
s(lp2536
(g347
I45
tp2537
atp2538
a(S'un'
p2539
(dp2540
g493
F2e-06
sS'DET'
p2541
F0.999998
s(lp2542
tp2543
a(S'municipio'
p2544
(dp2545
S'NOUN'
p2546
F1.0
s(lp2547
tp2548
a(S'concreto'
p2549
(dp2550
S'ADJ'
p2551
F1.0
s(lp2552
(g368
I46
tp2553
atp2554
a(g33
(dp2555
g33
F1.0
s(lp2556
(g33
I47
tp2557
atp2558
as.