(dp0
S'fr'
p1
(lp2
(S'par'
p3
(dp4
S'NOUN'
p5
F7.6e-05
sS'ADP'
p6
F0.999924
s(lp7
(S'i'
p8
I0
tp9
atp10
a(S'\xc3\xa9crit'
p11
(dp12
S'VERB'
p13
F0.035327000000000004
sS'NOUN'
p14
F0.964674
s(lp15
(S'voted'
p16
I1
tp17
atp18
a(S'.'
p19
(dp20
g19
F1.0
s(lp21
(g16
I1
tp22
atp23
a(S'-'
p24
(dp25
g19
F1.0
s(lp26
(g16
I1
tp27
atp28
a(S"j'"
p29
(dp30
S'ADJ'
p31
F0.280608
sS'VERB'
p32
F0.007367
sS'NOUN'
p33
F0.681695
sS'X'
p34
F0.03033
s(lp35
(g16
I1
tp36
atp37
a(S'ai'
p38
(dp39
S'VERB'
p40
F1.0
s(lp41
tp42
a(S'vot\xc3\xa9'
p43
(dp44
S'VERB'
p45
F1.0
s(lp46
(g16
I1
tp47
atp48
a(S'les'
p49
(dp50
S'PRON'
p51
F0.000203
sS'DET'
p52
F0.999599
sS'ADP'
p53
F0.000198
s(lp54
(S'the'
p55
I3
tp56
atp57
a(S'amendements'
p58
(dp59
S'NOUN'
p60
F1.0
s(lp61
(S'amendments'
p62
I4
tp63
atp64
a(S'et'
p65
(dp66
S'CONJ'
p67
F1.0
s(lp68
(S'and'
p69
I5
tp70
atp71
a(S'les'
p72
(dp73
S'PRON'
p74
F0.015665
sS'DET'
p75
F0.984322
sS'ADP'
p76
F1.4e-05
s(lp77
(S'those'
p78
I7
tp79
atp80
a(S'parties'
p81
(dp82
S'ADJ'
p83
F0.05296
sS'VERB'
p84
F0.019756
sS'NOUN'
p85
F0.927284
s(lp86
(S'parts'
p87
I8
tp88
atp89
a(S'du'
p90
(dp91
S'ADP'
p92
F1.0
s(lp93
(S'of'
p94
I9
tp95
atp96
a(S'texte'
p97
(dp98
S'NOUN'
p99
F1.0
s(lp100
(S'text'
p101
I11
tp102
atp103
a(S'concernant'
p104
(dp105
S'VERB'
p106
F0.781813
sS'ADP'
p107
F0.218187
s(lp108
(S'relate'
p109
I13
tp110
atp111
a(S'la'
p112
(dp113
S'PRON'
p114
F3e-06
sS'DET'
p115
F0.999997
sS'NOUN'
p116
F0.0
s(lp117
(S'the'
p118
I10
tp119
atp120
a(S'taxation'
p121
(dp122
S'NOUN'
p123
F1.0
s(lp124
(S'taxing'
p125
I15
tp126
atp127
a(S'des'
p128
(dp129
S'DET'
p130
F2.1e-05
sS'ADP'
p131
F0.999979
s(lp132
(S'for'
p133
I2
tp134
atp135
a(S'transactions'
p136
(dp137
S'NOUN'
p138
F1.0
s(lp139
(S'transactions'
p140
I17
tp141
atp142
a(S'financi\xc3\xa8res'
p143
(dp144
S'NOUN'
p145
F0.012852
sS'ADJ'
p146
F0.987148
s(lp147
(S'financial'
p148
I16
tp149
atp150
a(g19
(dp151
g19
F1.0
s(lp152
(g19
I18
tp153
atp154
asS'en'
p155
(lp156
(g8
(dp157
g34
F0.006068
sS'NOUN'
p158
F0.993933
s(lp159
(g8
I0
tp160
atp161
a(g16
(dp162
S'VERB'
p163
F1.0
s(lp164
(g16
I1
tp165
atp166
a(g133
(dp167
S'ADP'
p168
F1.0
s(lp169
(g133
I2
tp170
atp171
a(g55
(dp172
S'NOUN'
p173
F1.1e-05
sS'DET'
p174
F0.999989
s(lp175
(g55
I3
tp176
atp177
a(g62
(dp178
S'NOUN'
p179
F1.0
s(lp180
(g62
I4
tp181
atp182
a(g69
(dp183
S'CONJ'
p184
F0.999999
sS'NOUN'
p185
F1e-06
s(lp186
(g69
I5
tp187
atp188
a(S'for'
p189
(dp190
S'ADP'
p191
F1.0
s(lp192
(g189
I6
tp193
atp194
a(g78
(dp195
S'NOUN'
p196
F2e-06
sS'DET'
p197
F0.999998
s(lp198
(g78
I7
tp199
atp200
a(g87
(dp201
S'VERB'
p202
F3.5e-05
sS'NOUN'
p203
F0.9999650000000001
s(lp204
(g87
I8
tp205
atp206
a(g94
(dp207
S'ADP'
p208
F1.0
s(lp209
(g94
I9
tp210
atp211
a(g118
(dp212
S'NOUN'
p213
F1e-06
sS'DET'
p214
F0.999999
s(lp215
(g118
I10
tp216
atp217
a(g101
(dp218
S'NOUN'
p219
F1.0
s(lp220
(g101
I11
tp221
atp222
a(S'that'
p223
(dp224
S'ADV'
p225
F0.00149
sS'DET'
p226
F0.998484
sS'ADP'
p227
F2.6e-05
s(lp228
(g223
I12
tp229
atp230
a(g109
(dp231
S'VERB'
p232
F1.0
s(lp233
(g109
I13
tp234
atp235
a(S'to'
p236
(dp237
S'ADV'
p238
F5e-06
sS'PRT'
p239
F0.999993
sS'ADP'
p240
F2e-06
s(lp241
(g236
I14
tp242
atp243
a(g125
(dp244
S'VERB'
p245
F1.0
s(lp246
(g125
I15
tp247
atp248
a(g148
(dp249
S'ADJ'
p250
F1.0
s(lp251
(g148
I16
tp252
atp253
a(g140
(dp254
S'NOUN'
p255
F1.0
s(lp256
(g140
I17
tp257
atp258
a(g19
(dp259
g19
F1.0
s(lp260
(g19
I18
tp261
atp262
asS'nl'
p263
(lp264
(S'schriftelijk'
p265
(dp266
S'ADJ'
p267
F1.0
s(lp268
(g16
I1
tp269
atp270
a(g19
(dp271
g19
F1.0
s(lp272
(g16
I1
tp273
atp274
a(g24
(dp275
g19
F1.0
s(lp276
(g16
I1
tp277
atp278
a(S'('
p279
(dp280
g19
F1.0
s(lp281
(g16
I1
tp282
atp283
a(S'fr'
p284
(dp285
S'NOUN'
p286
F1.0
s(lp287
(g16
I1
tp288
atp289
a(S')'
p290
(dp291
g19
F1.0
s(lp292
(g16
I1
tp293
atp294
a(S'ik'
p295
(dp296
S'PRON'
p297
F0.999917
sS'NOUN'
p298
F8.3e-05
s(lp299
(g8
I0
tp300
atp301
a(S'heb'
p302
(dp303
S'VERB'
p304
F1.0
s(lp305
tp306
a(S'v\xc3\xb3\xc3\xb3r'
p307
(dp308
S'ADV'
p309
F0.087229
sS'CONJ'
p310
F0.118697
sS'NOUN'
p311
F0.000271
sS'ADP'
p312
F0.793803
s(lp313
(g133
I2
tp314
atp315
a(S'de'
p316
(dp317
S'DET'
p318
F1.0
s(lp319
(g55
I3
tp320
atp321
a(S'amendementen'
p322
(dp323
S'NOUN'
p324
F1.0
s(lp325
(g62
I4
tp326
atp327
a(S'en'
p328
(dp329
S'CONJ'
p330
F1.0
s(lp331
(g69
I5
tp332
atp333
a(S'de'
p334
(dp335
S'DET'
p336
F1.0
s(lp337
(g78
I7
tp338
atp339
a(S'gedeelten'
p340
(dp341
S'NOUN'
p342
F1.0
s(lp343
(g87
I8
tp344
atp345
a(S'van'
p346
(dp347
S'ADP'
p348
F1.0
s(lp349
(g94
I9
tp350
atp351
a(S'de'
p352
(dp353
S'DET'
p354
F1.0
s(lp355
(g118
I10
tp356
atp357
a(S'tekst'
p358
(dp359
S'NOUN'
p360
F1.0
s(lp361
(g101
I11
tp362
atp363
a(S'gestemd'
p364
(dp365
S'VERB'
p366
F0.962314
sS'ADJ'
p367
F0.037686
s(lp368
(g16
I1
tp369
atp370
a(S'die'
p371
(dp372
S'PRON'
p373
F1.0000000000000002
s(lp374
(g223
I12
tp375
atp376
a(S'verband'
p377
(dp378
S'NOUN'
p379
F1.0
s(lp380
(g109
I13
tp381
atp382
a(S'houden'
p383
(dp384
S'VERB'
p385
F0.999968
sS'NOUN'
p386
F3.2e-05
s(lp387
tp388
a(S'met'
p389
(dp390
S'ADP'
p391
F1.0
s(lp392
(g109
I13
tp393
atp394
a(S'belastingheffing'
p395
(dp396
S'NOUN'
p397
F1.0
s(lp398
tp399
a(S'op'
p400
(dp401
S'ADV'
p402
F0.04575
sS'ADJ'
p403
F1e-06
sS'ADP'
p404
F0.954248
s(lp405
(g125
I15
tp406
atp407
a(S'financi\xc3\xable'
p408
(dp409
S'NOUN'
p410
F0.000257
sS'ADJ'
p411
F0.999743
s(lp412
(g148
I16
tp413
atp414
a(S'transacties'
p415
(dp416
S'NOUN'
p417
F1.0
s(lp418
(g140
I17
tp419
atp420
a(g19
(dp421
g19
F1.0
s(lp422
(g19
I18
tp423
atp424
asS'de'
p425
(lp426
(S'ich'
p427
(dp428
S'PRON'
p429
F1.0
s(lp430
(g8
I0
tp431
atp432
a(S'habe'
p433
(dp434
S'VERB'
p435
F1.0
s(lp436
tp437
a(S'f\xc3\xbcr'
p438
(dp439
S'ADP'
p440
F1.0
s(lp441
(g133
I2
tp442
atp443
a(S'die'
p444
(dp445
S'PRON'
p446
F4.9e-05
sS'DET'
p447
F0.999936
s(lp448
(g55
I3
tp449
atp450
a(S'\xc3\x84nderungsantr\xc3\xa4ge'
p451
(dp452
S'NOUN'
p453
F1.0
s(lp454
(g62
I4
tp455
atp456
a(S'und'
p457
(dp458
S'CONJ'
p459
F1.0
s(lp460
(g69
I5
tp461
atp462
a(S'f\xc3\xbcr'
p463
(dp464
S'ADP'
p465
F1.0
s(lp466
(g189
I6
tp467
atp468
a(S'die'
p469
(dp470
S'PRON'
p471
F0.505129
sS'DET'
p472
F0.489099
s(lp473
(g78
I7
tp474
atp475
a(S'teile'
p476
(dp477
S'VERB'
p478
F1.0
s(lp479
(g87
I8
tp480
atp481
a(S'des'
p482
(dp483
S'DET'
p484
F1.0
s(lp485
(g94
I9
tp486
atp487
a(S'textes'
p488
(dp489
S'ADJ'
p490
F0.000244
sS'NOUN'
p491
F0.999644
s(lp492
(g101
I11
tp493
atp494
a(S'gestimmt'
p495
(dp496
S'VERB'
p497
F1.0
s(lp498
(g16
I1
tp499
atp500
a(S','
p501
(dp502
g19
F1.0
s(lp503
(g223
I12
tp504
atp505
a(S'die'
p506
(dp507
S'PRON'
p508
F0.993273
sS'DET'
p509
F0.00405
s(lp510
(g118
I10
tp511
atp512
a(S'sich'
p513
(dp514
S'PRON'
p515
F1.0
s(lp516
tp517
a(S'auf'
p518
(dp519
S'ADV'
p520
F2.8e-05
sS'ADP'
p521
F0.999958
s(lp522
(g236
I14
tp523
atp524
a(S'die'
p525
(dp526
S'PRON'
p527
F5.1e-05
sS'DET'
p528
F0.999934
s(lp529
(g125
I15
tp530
atp531
a(S'besteuerung'
p532
(dp533
S'ADJ'
p534
F0.000138
sS'NOUN'
p535
F0.999751
s(lp536
tp537
a(S'von'
p538
(dp539
S'NOUN'
p540
F0.001178
sS'ADP'
p541
F0.998822
s(lp542
(g125
I15
tp543
atp544
a(S'finanztransaktionen'
p545
(dp546
S'ADJ'
p547
F0.10028
sS'NOUN'
p548
F0.884053
s(lp549
(g140
I17
tp550
atp551
a(S'beziehen'
p552
(dp553
S'VERB'
p554
F1.0
s(lp555
(g109
I13
tp556
atp557
a(g19
(dp558
g19
F1.0
s(lp559
(g19
I18
tp560
atp561
asS'it'
p562
(lp563
(S'ho'
p564
(dp565
S'VERB'
p566
F1.0
s(lp567
(g8
I0
tp568
atp569
a(S'votato'
p570
(dp571
S'VERB'
p572
F0.990109
sS'ADJ'
p573
F0.009891
s(lp574
tp575
a(S'a'
p576
(dp577
S'CONJ'
p578
F7.6e-05
sS'ADP'
p579
F0.999924
s(lp580
(g16
I1
tp581
atp582
a(S'favore'
p583
(dp584
S'NOUN'
p585
F1.0
s(lp586
(g133
I2
tp587
atp588
a(S'degli'
p589
(dp590
S'DEF'
p591
F0.001796
sS'ADP'
p592
F0.998204
s(lp593
tp594
a(S'emendamenti'
p595
(dp596
S'NOUN'
p597
F1.0
s(lp598
(g62
I4
tp599
atp600
a(S'e'
p601
(dp602
S'CONJ'
p603
F1.0
s(lp604
(g69
I5
tp605
atp606
a(S'delle'
p607
(dp608
S'DEF'
p609
F0.017734
sS'ADP'
p610
F0.982266
s(lp611
(g189
I6
tp612
atp613
a(S'parti'
p614
(dp615
S'VERB'
p616
F0.00022
sS'NOUN'
p617
F0.99978
s(lp618
(g87
I8
tp619
atp620
a(S'del'
p621
(dp622
S'DEF'
p623
F0.001256
sS'ADP'
p624
F0.998744
s(lp625
(g94
I9
tp626
atp627
a(S'testo'
p628
(dp629
S'VERB'
p630
F5.7e-05
sS'NOUN'
p631
F0.999943
s(lp632
(g101
I11
tp633
atp634
a(S'relative'
p635
(dp636
S'NOUN'
p637
F0.001924
sS'ADJ'
p638
F0.998076
s(lp639
(g109
I13
tp640
atp641
a(S'alla'
p642
(dp643
S'ADP'
p644
F1.0
s(lp645
(g236
I14
tp646
atp647
a(S'tassazione'
p648
(dp649
S'NOUN'
p650
F1.0
s(lp651
(g125
I15
tp652
atp653
a(S'delle'
p654
(dp655
S'DEF'
p656
F0.001048
sS'ADP'
p657
F0.998952
s(lp658
tp659
a(S'transazioni'
p660
(dp661
S'NOUN'
p662
F1.0
s(lp663
(g140
I17
tp664
atp665
a(S'finanziarie'
p666
(dp667
S'NOUN'
p668
F0.015475
sS'ADJ'
p669
F0.984525
s(lp670
(g148
I16
tp671
atp672
a(g19
(dp673
g19
F1.0
s(lp674
(g19
I18
tp675
atp676
asS'sk'
p677
(lp678
(S'hlasoval'
p679
(dp680
S'VERB'
p681
F0.9999999999999999
s(lp682
tp683
a(S'som'
p684
(dp685
S'VERB'
p686
F1.0
s(lp687
(g16
I1
tp688
atp689
a(S'za'
p690
(dp691
S'PRT'
p692
F0.001409
sS'ADP'
p693
F0.99848
sg34
F0.00011
s(lp694
(g133
I2
tp695
atp696
a(S'pozme\xc5\x88uj\xc3\xbace'
p697
(dp698
S'ADV'
p699
F0.000156
sS'NOUN'
p700
F0.049100000000000005
sS'VERB'
p701
F0.7998619999999999
sS'ADJ'
p702
F0.150881
s(lp703
(g62
I4
tp704
atp705
a(g576
(dp706
g34
F0.001993
sS'CONJ'
p707
F0.995862
sS'NOUN'
p708
F0.001243
sS'ADP'
p709
F0.000749
sS'PRT'
p710
F0.000154
s(lp711
(g62
I4
tp712
atp713
a(S'dopl\xc5\x88uj\xc3\xbace'
p714
(dp715
S'VERB'
p716
F0.5980070000000001
sS'ADJ'
p717
F0.40199399999999996
s(lp718
tp719
a(S'n\xc3\xa1vrhy'
p720
(dp721
S'NOUN'
p722
F1.0
s(lp723
(g62
I4
tp724
atp725
a(g576
(dp726
g34
F0.00023
sS'CONJ'
p727
F0.999464
sS'NOUN'
p728
F1.1e-05
sS'ADP'
p729
F0.000232
sS'PRT'
p730
F6.3e-05
s(lp731
(g69
I5
tp732
atp733
a(S'tie'
p734
(dp735
S'PRON'
p736
F1.0
s(lp737
(g78
I7
tp738
atp739
a(S'\xc4\x8dasti'
p740
(dp741
S'NOUN'
p742
F1.0
s(lp743
(g87
I8
tp744
atp745
a(S'textu'
p746
(dp747
S'NOUN'
p748
F1.0
s(lp749
(g101
I11
tp750
atp751
a(g501
(dp752
g19
F1.0
s(lp753
tp754
a(S'ktor\xc3\xa9'
p755
(dp756
S'PRON'
p757
F1.0
s(lp758
(g223
I12
tp759
atp760
a(S'sa'
p761
(dp762
S'PRT'
p763
F0.999959
sS'ADP'
p764
F0.0
sg34
F4.1e-05
s(lp765
tp766
a(S't\xc3\xbdkaj\xc3\xba'
p767
(dp768
S'VERB'
p769
F1.0
s(lp770
(g109
I13
tp771
atp772
a(S'zdanenia'
p773
(dp774
S'NOUN'
p775
F1.0
s(lp776
(g125
I15
tp777
atp778
a(S'finan\xc4\x8dn\xc3\xbdch'
p779
(dp780
S'ADJ'
p781
F1.0
s(lp782
(g148
I16
tp783
atp784
a(S'transakci\xc3\xad'
p785
(dp786
S'NOUN'
p787
F1.0
s(lp788
(g140
I17
tp789
atp790
a(g19
(dp791
g19
F1.0
s(lp792
(g19
I18
tp793
atp794
asS'pl'
p795
(lp796
(S'g\xc5\x82osowa\xc5\x82em'
p797
(dp798
S'ADV'
p799
F0.004589
sS'ADJ'
p800
F0.010162
sS'VERB'
p801
F0.098348
sS'NOUN'
p802
F0.8869029999999999
s(lp803
(g16
I1
tp804
atp805
a(S'za'
p806
(dp807
S'PRT'
p808
F0.000916
sS'VERB'
p809
F0.000154
sS'NOUN'
p810
F3e-06
sS'ADP'
p811
F0.998927
sg34
F0.0
s(lp812
tp813
a(S'przyj\xc4\x99ciem'
p814
(dp815
S'VERB'
p816
F0.990665
sS'NOUN'
p817
F0.009335
s(lp818
(g16
I1
tp819
atp820
a(S'poprawek'
p821
(dp822
S'NOUN'
p823
F1.0
s(lp824
(g62
I4
tp825
atp826
a(g8
(dp827
S'PRT'
p828
F0.00066
sS'CONJ'
p829
F0.999299
sS'PRON'
p830
F1e-06
sS'NOUN'
p831
F1.7e-05
sg34
F2.4e-05
s(lp832
(g69
I5
tp833
atp834
a(S'tych'
p835
(dp836
S'ADJ'
p837
F1.000002
s(lp838
(g78
I7
tp839
atp840
a(S'cz\xc4\x99\xc5\x9bci'
p841
(dp842
S'NOUN'
p843
F0.999999
s(lp844
(g87
I8
tp845
atp846
a(S'tekstu'
p847
(dp848
S'NOUN'
p849
F1.0
s(lp850
(g101
I11
tp851
atp852
a(g501
(dp853
g34
F0.0
sg19
F1.0
s(lp854
tp855
a(S'kt\xc3\xb3re'
p856
(dp857
S'ADJ'
p858
F0.9999999999999999
s(lp859
(g223
I12
tp860
atp861
a(S'dotycz\xc4\x85'
p862
(dp863
S'VERB'
p864
F1.0
s(lp865
(g109
I13
tp866
atp867
a(S'opodatkowania'
p868
(dp869
S'VERB'
p870
F0.909366
sS'NOUN'
p871
F0.090634
s(lp872
(g125
I15
tp873
atp874
a(S'transakcji'
p875
(dp876
S'NOUN'
p877
F1.0
s(lp878
(g140
I17
tp879
atp880
a(S'finansowych'
p881
(dp882
S'ADJ'
p883
F1.000001
s(lp884
(g148
I16
tp885
atp886
a(g19
(dp887
g19
F1.0
s(lp888
(g19
I18
tp889
atp890
asS'sl'
p891
(lp892
(S'glasoval'
p893
(dp894
S'VERB'
p895
F1.0
s(lp896
tp897
a(S'sem'
p898
(dp899
S'ADV'
p900
F0.056207
sS'PRT'
p901
F0.007678
sS'VERB'
p902
F0.936115
s(lp903
(g16
I1
tp904
atp905
a(S'za'
p906
(dp907
S'ADV'
p908
F0.000265
sg34
F8e-06
sS'ADP'
p909
F0.999728
s(lp910
(g133
I2
tp911
atp912
a(S'predloge'
p913
(dp914
S'NOUN'
p915
F1.0
s(lp916
tp917
a(S'sprememb'
p918
(dp919
S'NOUN'
p920
F1.0
s(lp921
(g62
I4
tp922
atp923
a(S'in'
p924
(dp925
S'ADV'
p926
F3.4e-05
sg34
F3.1e-05
sS'CONJ'
p927
F0.999923
sS'NOUN'
p928
F1.2e-05
s(lp929
(g69
I5
tp930
atp931
a(S'tiste'
p932
(dp933
S'PRON'
p934
F0.9999999999999999
s(lp935
(g78
I7
tp936
atp937
a(S'dele'
p938
(dp939
S'NOUN'
p940
F1.0
s(lp941
(g87
I8
tp942
atp943
a(S'besedila'
p944
(dp945
S'NOUN'
p946
F1.0
s(lp947
(g101
I11
tp948
atp949
a(g501
(dp950
g19
F1.0
s(lp951
tp952
a(S'ki'
p953
(dp954
S'CONJ'
p955
F1.0
s(lp956
(g223
I12
tp957
atp958
a(S'se'
p959
(dp960
S'PRON'
p961
F0.999999
sg34
F1e-06
s(lp962
(g109
I13
tp963
atp964
a(S'navezujejo'
p965
(dp966
S'ADV'
p967
F0.000231
sS'ADJ'
p968
F6.3e-05
sS'VERB'
p969
F0.994507
sS'NOUN'
p970
F0.005201000000000001
s(lp971
tp972
a(S'na'
p973
(dp974
S'ADP'
p975
F1.0
s(lp976
(g109
I13
tp977
atp978
a(S'obdav\xc4\x8ditev'
p979
(dp980
S'NOUN'
p981
F1.0
s(lp982
(g125
I15
tp983
atp984
a(S'finan\xc4\x8dnih'
p985
(dp986
S'ADJ'
p987
F0.999999
s(lp988
(g148
I16
tp989
atp990
a(S'transakcij'
p991
(dp992
S'ADV'
p993
F1e-06
sS'ADJ'
p994
F0.0
sS'VERB'
p995
F2e-06
sS'NOUN'
p996
F0.9999960000000002
s(lp997
(g140
I17
tp998
atp999
a(g19
(dp1000
g19
F1.0
s(lp1001
(g19
I18
tp1002
atp1003
asS'es'
p1004
(lp1005
(S'he'
p1006
(dp1007
S'VERB'
p1008
F1.0
s(lp1009
(g8
I0
tp1010
atp1011
a(S'votado'
p1012
(dp1013
S'VERB'
p1014
F1.0
s(lp1015
tp1016
a(g576
(dp1017
g34
F3.9e-05
sS'CONJ'
p1018
F9.6e-05
sS'ADP'
p1019
F0.999865
s(lp1020
tp1021
a(S'favor'
p1022
(dp1023
S'NOUN'
p1024
F1.0
s(lp1025
(g16
I1
tp1026
atp1027
a(S'de'
p1028
(dp1029
g34
F0.0
sS'CONJ'
p1030
F8.3e-05
sS'ADP'
p1031
F0.999917
s(lp1032
(g133
I2
tp1033
atp1034
a(S'las'
p1035
(dp1036
S'PRON'
p1037
F6.8e-05
sS'DET'
p1038
F0.999932
s(lp1039
(g55
I3
tp1040
atp1041
a(S'enmiendas'
p1042
(dp1043
S'VERB'
p1044
F1.0
s(lp1045
(g62
I4
tp1046
atp1047
a(S'y'
p1048
(dp1049
g34
F0.00013
sS'CONJ'
p1050
F0.99987
s(lp1051
(g69
I5
tp1052
atp1053
a(S'de'
p1054
(dp1055
g34
F0.0
sS'CONJ'
p1056
F2e-06
sS'ADP'
p1057
F0.999998
s(lp1058
(g189
I6
tp1059
atp1060
a(S'las'
p1061
(dp1062
S'PRON'
p1063
F0.0
sS'DET'
p1064
F1.0
s(lp1065
(g78
I7
tp1066
atp1067
a(S'partes'
p1068
(dp1069
S'NOUN'
p1070
F1.0
s(lp1071
(g87
I8
tp1072
atp1073
a(S'del'
p1074
(dp1075
S'ADP'
p1076
F1.0
s(lp1077
(g94
I9
tp1078
atp1079
a(S'texto'
p1080
(dp1081
S'NOUN'
p1082
F1.0
s(lp1083
(g101
I11
tp1084
atp1085
a(S'que'
p1086
(dp1087
g34
F4e-06
sS'CONJ'
p1088
F0.999996
s(lp1089
(g223
I12
tp1090
atp1091
a(S'se'
p1092
(dp1093
S'PRON'
p1094
F1.0
sS'VERB'
p1095
F0.0
s(lp1096
tp1097
a(S'refieren'
p1098
(dp1099
S'VERB'
p1100
F1.0
s(lp1101
(g109
I13
tp1102
atp1103
a(g576
(dp1104
g34
F6.3e-05
sS'CONJ'
p1105
F4e-06
sS'ADP'
p1106
F0.999933
s(lp1107
(g236
I14
tp1108
atp1109
a(S'la'
p1110
(dp1111
g34
F0.0
sS'PRON'
p1112
F0.0
sS'DET'
p1113
F0.999999
sS'NOUN'
p1114
F0.0
s(lp1115
tp1116
a(S'imposici\xc3\xb3n'
p1117
(dp1118
S'NOUN'
p1119
F1.0
s(lp1120
(g125
I15
tp1121
atp1122
a(S'de'
p1123
(dp1124
g34
F0.0
sS'CONJ'
p1125
F1.7e-05
sS'ADP'
p1126
F0.999983
s(lp1127
tp1128
a(S'las'
p1129
(dp1130
S'PRON'
p1131
F0.0
sS'DET'
p1132
F1.0
s(lp1133
tp1134
a(S'transacciones'
p1135
(dp1136
S'NOUN'
p1137
F1.0
s(lp1138
(g140
I17
tp1139
atp1140
a(S'financieras'
p1141
(dp1142
S'NOUN'
p1143
F0.008827
sS'ADJ'
p1144
F0.991173
s(lp1145
(g148
I16
tp1146
atp1147
a(g19
(dp1148
g19
F1.0
s(lp1149
(g19
I18
tp1150
atp1151
as.