(dp0
S'fr'
p1
(lp2
(S'la'
p3
(dp4
S'PRON'
p5
F8.2e-05
sS'DET'
p6
F0.999918
sS'NOUN'
p7
F0.0
s(lp8
(S'the'
p9
I0
tp10
atp11
a(S'violation'
p12
(dp13
S'NOUN'
p14
F1.0
s(lp15
(S'violation'
p16
I2
tp17
atp18
a(S'flagrante'
p19
(dp20
S'ADJ'
p21
F1.0
s(lp22
(S'flagrant'
p23
I1
tp24
atp25
a(S'des'
p26
(dp27
S'DET'
p28
F2.2e-05
sS'ADP'
p29
F0.999978
s(lp30
(S'human'
p31
I4
tp32
atp33
a(S'droits'
p34
(dp35
S'ADJ'
p36
F0.011772
sS'NOUN'
p37
F0.988228
s(lp38
(S'rights'
p39
I5
tp40
atp41
a(S'de'
p42
(dp43
S'ADP'
p44
F1.0
s(lp45
(S'of'
p46
I3
tp47
atp48
a(S"l'"
p49
(dp50
S'ADJ'
p51
F0.160704
sS'VERB'
p52
F0.06480800000000002
sS'NOUN'
p53
F0.774488
s(lp54
tp55
a(S'homme'
p56
(dp57
S'NOUN'
p58
F1.0
s(lp59
(g31
I4
tp60
atp61
a(S'et'
p62
(dp63
S'CONJ'
p64
F1.0
s(lp65
(S'and'
p66
I6
tp67
atp68
a(S'des'
p69
(dp70
S'DET'
p71
F0.000609
sS'ADP'
p72
F0.999391
s(lp73
tp74
a(S'libert\xc3\xa9s'
p75
(dp76
S'NOUN'
p77
F1.0
s(lp78
tp79
a(S'fondamentales'
p80
(dp81
S'ADJ'
p82
F1.0
s(lp83
(S'freedoms'
p84
I7
tp85
atp86
a(S'dans'
p87
(dp88
S'NOUN'
p89
F5.1e-05
sS'ADP'
p90
F0.999949
s(lp91
(S'in'
p92
I8
tp93
atp94
a(S'cette'
p95
(dp96
S'PRON'
p97
F1.0
s(lp98
(S'this'
p99
I9
tp100
atp101
a(S'r\xc3\xa9gion'
p102
(dp103
S'NOUN'
p104
F1.0
s(lp105
(S'region'
p106
I10
tp107
atp108
a(S'est'
p109
(dp110
S'VERB'
p111
F0.999855
sS'NOUN'
p112
F0.000145
s(lp113
(S'is'
p114
I11
tp115
atp116
a(S'source'
p117
(dp118
S'NOUN'
p119
F1.0
s(lp120
(S'cause'
p121
I13
tp122
atp123
a(S"d'"
p124
(dp125
S'NOUN'
p126
F0.032441
sS'VERB'
p127
F0.694014
sS'ADJ'
p128
F0.273544
s(lp129
(S'for'
p130
I14
tp131
atp132
a(S'inqui\xc3\xa9tude'
p133
(dp134
S'NOUN'
p135
F1.0
s(lp136
(S'concern'
p137
I15
tp138
atp139
a(S'pour'
p140
(dp141
S'CONJ'
p142
F0.312104
sS'ADP'
p143
F0.687896
s(lp144
(S'for'
p145
I16
tp146
atp147
a(S"l'"
p148
(dp149
S'ADJ'
p150
F0.128662
sS'VERB'
p151
F0.32284500000000005
sS'NOUN'
p152
F0.548493
s(lp153
(S'the'
p154
I17
tp155
atp156
a(S'union'
p157
(dp158
S'NOUN'
p159
F1.0
s(lp160
(S'union'
p161
I19
tp162
atp163
a(S'europ\xc3\xa9enne'
p164
(dp165
S'NOUN'
p166
F0.012186
sS'ADJ'
p167
F0.987814
s(lp168
(S'european'
p169
I18
tp170
atp171
a(S','
p172
(dp173
S'.'
p174
F1.0
s(lp175
(g172
I20
tp176
atp177
a(S'\xc3\xa0'
p178
(dp179
S'ADP'
p180
F1.0
s(lp181
(S'from'
p182
I21
tp183
atp184
a(S'la'
p185
(dp186
S'PRON'
p187
F1.2e-05
sS'DET'
p188
F0.999988
sS'NOUN'
p189
F0.0
s(lp190
(S'the'
p191
I22
tp192
atp193
a(S'fois'
p194
(dp195
S'NOUN'
p196
F1.0
s(lp197
tp198
a(S'pour'
p199
(dp200
S'CONJ'
p201
F0.103997
sS'ADP'
p202
F0.896003
s(lp203
(S'both'
p204
I25
tp205
atp206
a(S'ses'
p207
(dp208
S'PRON'
p209
F1.0
s(lp210
(S'its'
p211
I26
tp212
atp213
a(S'relations'
p214
(dp215
S'VERB'
p216
F1e-06
sS'NOUN'
p217
F0.999999
s(lp218
(S'relations'
p219
I27
tp220
atp221
a(S'avec'
p222
(dp223
S'ADV'
p224
F0.005921
sS'ADP'
p225
F0.994079
s(lp226
(S'with'
p227
I28
tp228
atp229
a(S'isra\xc3\xabl'
p230
(dp231
S'ADJ'
p232
F0.152053
sS'NOUN'
p233
F0.8479460000000001
s(lp234
(S'israel'
p235
I29
tp236
atp237
a(S'et'
p238
(dp239
S'CONJ'
p240
F1.0
s(lp241
(S'and'
p242
I30
tp243
atp244
a(S'pour'
p245
(dp246
S'CONJ'
p247
F0.330449
sS'ADP'
p248
F0.669551
s(lp249
(S'of'
p250
I31
tp251
atp252
a(S'la'
p253
(dp254
S'PRON'
p255
F4.2e-05
sS'DET'
p256
F0.999958
sS'NOUN'
p257
F0.0
s(lp258
tp259
a(S's\xc3\xa9curit\xc3\xa9'
p260
(dp261
S'NOUN'
p262
F1.0
s(lp263
(S'security'
p264
I32
tp265
atp266
a(S'et'
p267
(dp268
S'CONJ'
p269
F1.0
s(lp270
(S'and'
p271
I33
tp272
atp273
a(S'la'
p274
(dp275
S'PRON'
p276
F0.000103
sS'DET'
p277
F0.999897
sS'NOUN'
p278
F0.0
s(lp279
(S'the'
p280
I36
tp281
atp282
a(S'stabilit\xc3\xa9'
p283
(dp284
S'NOUN'
p285
F1.0
s(lp286
(S'stability'
p287
I34
tp288
atp289
a(S'au'
p290
(dp291
S'ADP'
p292
F1.0
s(lp293
(S'middle'
p294
I37
tp295
atp296
a(S'moyen-orient'
p297
(dp298
S'ADJ'
p299
F0.102964
sS'VERB'
p300
F0.000154
sS'NOUN'
p301
F0.896883
s(lp302
(S'east'
p303
I38
tp304
atp305
a(g174
(dp306
g174
F1.0
s(lp307
(g174
I39
tp308
atp309
asS'en'
p310
(lp311
(g9
(dp312
S'NOUN'
p313
F2e-06
sS'DET'
p314
F0.999998
s(lp315
(g9
I0
tp316
atp317
a(g23
(dp318
S'ADJ'
p319
F1.0
s(lp320
(g23
I1
tp321
atp322
a(g16
(dp323
S'NOUN'
p324
F1.0
s(lp325
(g16
I2
tp326
atp327
a(g46
(dp328
S'ADP'
p329
F1.0
s(lp330
(g46
I3
tp331
atp332
a(g31
(dp333
S'NOUN'
p334
F0.018066
sS'ADJ'
p335
F0.981934
s(lp336
(g31
I4
tp337
atp338
a(g39
(dp339
S'VERB'
p340
F2e-06
sS'NOUN'
p341
F0.999998
s(lp342
(g39
I5
tp343
atp344
a(g66
(dp345
S'CONJ'
p346
F0.999998
sS'NOUN'
p347
F2e-06
s(lp348
(g66
I6
tp349
atp350
a(g84
(dp351
S'NOUN'
p352
F1.0
s(lp353
(g84
I7
tp354
atp355
a(g92
(dp356
S'ADV'
p357
F0.000295
sS'PRT'
p358
F0.000234
sS'ADP'
p359
F0.999471
s(lp360
(g92
I8
tp361
atp362
a(g99
(dp363
S'ADV'
p364
F3e-06
sS'NOUN'
p365
F1.9e-05
sS'DET'
p366
F0.999978
s(lp367
(g99
I9
tp368
atp369
a(g106
(dp370
S'NOUN'
p371
F1.0
s(lp372
(g106
I10
tp373
atp374
a(g114
(dp375
S'VERB'
p376
F1.0
s(lp377
(g114
I11
tp378
atp379
a(S'a'
p380
(dp381
S'NOUN'
p382
F0.0
sS'DET'
p383
F1.0
s(lp384
(g380
I12
tp385
atp386
a(g121
(dp387
S'VERB'
p388
F0.003633
sS'NOUN'
p389
F0.996367
s(lp390
(g121
I13
tp391
atp392
a(g130
(dp393
S'ADP'
p394
F1.0
s(lp395
(g130
I14
tp396
atp397
a(g137
(dp398
S'VERB'
p399
F2.2e-05
sS'NOUN'
p400
F0.999977
s(lp401
(g137
I15
tp402
atp403
a(g145
(dp404
S'ADP'
p405
F1.0
s(lp406
(g145
I16
tp407
atp408
a(g154
(dp409
S'NOUN'
p410
F1e-06
sS'DET'
p411
F0.999999
s(lp412
(g154
I17
tp413
atp414
a(g169
(dp415
S'NOUN'
p416
F0.10881199999999999
sS'VERB'
p417
F1.1e-05
sS'ADJ'
p418
F0.891178
s(lp419
(g169
I18
tp420
atp421
a(g161
(dp422
S'NOUN'
p423
F1.0
s(lp424
(g161
I19
tp425
atp426
a(g172
(dp427
g174
F1.0
s(lp428
(g172
I20
tp429
atp430
a(g182
(dp431
S'ADP'
p432
F1.0
s(lp433
(g182
I21
tp434
atp435
a(g191
(dp436
S'NOUN'
p437
F1e-06
sS'DET'
p438
F0.999999
s(lp439
(g191
I22
tp440
atp441
a(S'perspective'
p442
(dp443
S'NOUN'
p444
F1.0
s(lp445
(g442
I23
tp446
atp447
a(S'of'
p448
(dp449
S'ADP'
p450
F1.0
s(lp451
(g448
I24
tp452
atp453
a(g204
(dp454
S'CONJ'
p455
F0.117932
sS'DET'
p456
F0.882068
s(lp457
(g204
I25
tp458
atp459
a(g211
(dp460
S'PRON'
p461
F1.0
s(lp462
(g211
I26
tp463
atp464
a(g219
(dp465
S'NOUN'
p466
F1.0
s(lp467
(g219
I27
tp468
atp469
a(g227
(dp470
S'ADP'
p471
F1.0
s(lp472
(g227
I28
tp473
atp474
a(g235
(dp475
S'ADV'
p476
F0.000602
sS'ADJ'
p477
F0.010521
sS'VERB'
p478
F0.005693000000000001
sS'NOUN'
p479
F0.983184
s(lp480
(g235
I29
tp481
atp482
a(g242
(dp483
S'CONJ'
p484
F0.999797
sS'NOUN'
p485
F0.000203
s(lp486
(g242
I30
tp487
atp488
a(g250
(dp489
S'ADP'
p490
F1.0
s(lp491
(g250
I31
tp492
atp493
a(g264
(dp494
S'NOUN'
p495
F1.0
s(lp496
(g264
I32
tp497
atp498
a(g271
(dp499
S'CONJ'
p500
F0.999998
sS'NOUN'
p501
F2e-06
s(lp502
(g271
I33
tp503
atp504
a(g287
(dp505
S'NOUN'
p506
F1.0
s(lp507
(g287
I34
tp508
atp509
a(S'in'
p510
(dp511
S'ADV'
p512
F0.000191
sS'PRT'
p513
F0.000279
sS'ADP'
p514
F0.999531
s(lp515
(g510
I35
tp516
atp517
a(g280
(dp518
S'NOUN'
p519
F1e-06
sS'DET'
p520
F0.999999
s(lp521
(g280
I36
tp522
atp523
a(g294
(dp524
S'NOUN'
p525
F0.17562
sS'VERB'
p526
F0.000126
sS'ADJ'
p527
F0.824254
s(lp528
(g294
I37
tp529
atp530
a(g303
(dp531
S'ADV'
p532
F0.058093
sS'NOUN'
p533
F0.221652
sS'ADJ'
p534
F0.720255
s(lp535
(g303
I38
tp536
atp537
a(g174
(dp538
g174
F1.0
s(lp539
(g174
I39
tp540
atp541
asS'nl'
p542
(lp543
(S'de'
p544
(dp545
S'DET'
p546
F1.0
s(lp547
(g9
I0
tp548
atp549
a(S'flagrante'
p550
(dp551
S'NOUN'
p552
F0.00073
sS'ADJ'
p553
F0.99927
s(lp554
(g23
I1
tp555
atp556
a(S'schending'
p557
(dp558
S'NOUN'
p559
F1.0
s(lp560
(g16
I2
tp561
atp562
a(S'van'
p563
(dp564
S'ADP'
p565
F1.0
s(lp566
(g46
I3
tp567
atp568
a(S'de'
p569
(dp570
S'DET'
p571
F1.0
s(lp572
tp573
a(S'mensenrechten'
p574
(dp575
S'NOUN'
p576
F1.0
s(lp577
(g31
I4
tp578
atp579
a(S'en'
p580
(dp581
S'CONJ'
p582
F1.0
s(lp583
(g66
I6
tp584
atp585
a(S'de'
p586
(dp587
S'DET'
p588
F1.0
s(lp589
tp590
a(S'vrijheden'
p591
(dp592
S'NOUN'
p593
F1.0
s(lp594
(g84
I7
tp595
atp596
a(S'in'
p597
(dp598
S'ADV'
p599
F0.001384
sS'VERB'
p600
F1e-06
sS'ADP'
p601
F0.998615
s(lp602
(g92
I8
tp603
atp604
a(S'deze'
p605
(dp606
S'PRON'
p607
F1.0
s(lp608
(g99
I9
tp609
atp610
a(S'regio'
p611
(dp612
S'NOUN'
p613
F1.0
s(lp614
(g106
I10
tp615
atp616
a(S'is'
p617
(dp618
S'VERB'
p619
F1.0
s(lp620
(g114
I11
tp621
atp622
a(S'voor'
p623
(dp624
S'ADV'
p625
F0.013671
sS'CONJ'
p626
F2e-05
sS'NOUN'
p627
F0.0
sS'ADP'
p628
F0.986309
s(lp629
(g145
I16
tp630
atp631
a(S'de'
p632
(dp633
S'DET'
p634
F1.0
s(lp635
(g154
I17
tp636
atp637
a(S'europese'
p638
(dp639
S'NOUN'
p640
F1.0
s(lp641
(g169
I18
tp642
atp643
a(S'unie'
p644
(dp645
S'NOUN'
p646
F1.0
s(lp647
(g161
I19
tp648
atp649
a(S'reden'
p650
(dp651
S'VERB'
p652
F0.001105
sS'NOUN'
p653
F0.998895
s(lp654
(g121
I13
tp655
atp656
a(S'tot'
p657
(dp658
S'CONJ'
p659
F8e-06
sS'ADP'
p660
F0.999992
s(lp661
(g130
I14
tp662
atp663
a(S'zorg'
p664
(dp665
S'VERB'
p666
F0.0
sS'NOUN'
p667
F1.0
s(lp668
(g137
I15
tp669
atp670
a(g172
(dp671
g174
F1.0
s(lp672
(g172
I20
tp673
atp674
a(S'vanuit'
p675
(dp676
S'ADP'
p677
F1.0
s(lp678
(g182
I21
tp679
atp680
a(S'het'
p681
(dp682
S'PRON'
p683
F0.000927
sS'DET'
p684
F0.999073
s(lp685
(g191
I22
tp686
atp687
a(S'perspectief'
p688
(dp689
S'NOUN'
p690
F1.0
s(lp691
(g442
I23
tp692
atp693
a(S'van'
p694
(dp695
S'ADP'
p696
F1.0
s(lp697
(g448
I24
tp698
atp699
a(S'zowel'
p700
(dp701
S'ADV'
p702
F0.00953
sS'CONJ'
p703
F0.99047
s(lp704
(g204
I25
tp705
atp706
a(S'de'
p707
(dp708
S'DET'
p709
F1.0
s(lp710
(g211
I26
tp711
atp712
a(S'betrekkingen'
p713
(dp714
S'NOUN'
p715
F1.0
s(lp716
(g219
I27
tp717
atp718
a(S'met'
p719
(dp720
S'ADP'
p721
F1.0
s(lp722
(g227
I28
tp723
atp724
a(S'isra\xc3\xabl'
p725
(dp726
S'ADJ'
p727
F0.006892
sS'NOUN'
p728
F0.993108
s(lp729
(g235
I29
tp730
atp731
a(S'als'
p732
(dp733
S'CONJ'
p734
F1.0
s(lp735
(g242
I30
tp736
atp737
a(S'de'
p738
(dp739
S'DET'
p740
F1.0
s(lp741
tp742
a(S'veiligheid'
p743
(dp744
S'NOUN'
p745
F1.0
s(lp746
(g264
I32
tp747
atp748
a(S'en'
p749
(dp750
S'CONJ'
p751
F1.0
s(lp752
(g271
I33
tp753
atp754
a(S'stabiliteit'
p755
(dp756
S'NOUN'
p757
F1.0
s(lp758
(g287
I34
tp759
atp760
a(S'in'
p761
(dp762
S'ADV'
p763
F0.002981
sS'VERB'
p764
F3e-06
sS'ADP'
p765
F0.997016
s(lp766
(g510
I35
tp767
atp768
a(S'het'
p769
(dp770
S'PRON'
p771
F0.000756
sS'DET'
p772
F0.999244
s(lp773
(g280
I36
tp774
atp775
a(S'midden-oosten'
p776
(dp777
S'ADJ'
p778
F0.001968
sS'NOUN'
p779
F0.998032
s(lp780
(g294
I37
tp781
atp782
a(g174
(dp783
g174
F1.0
s(lp784
(g174
I39
tp785
atp786
asS'de'
p787
(lp788
(S'der'
p789
(dp790
S'PRON'
p791
F0.001502
sS'DET'
p792
F0.998382
s(lp793
(g9
I0
tp794
atp795
a(S'eklatante'
p796
(dp797
S'ADJ'
p798
F1.0
s(lp799
(g23
I1
tp800
atp801
a(S'versto\xc3\x9f'
p802
(dp803
S'VERB'
p804
F1.8e-05
sS'NOUN'
p805
F0.999955
s(lp806
tp807
a(S'gegen'
p808
(dp809
S'PRT'
p810
F2e-06
sS'ADP'
p811
F0.999998
s(lp812
(g16
I2
tp813
atp814
a(S'die'
p815
(dp816
S'PRON'
p817
F0.000218
sS'DET'
p818
F0.999767
s(lp819
tp820
a(S'menschenrechte'
p821
(dp822
S'ADJ'
p823
F1.0
s(lp824
(g31
I4
tp825
atp826
a(S'und'
p827
(dp828
S'CONJ'
p829
F1.0
s(lp830
(g66
I6
tp831
atp832
a(S'grundfreiheiten'
p833
(dp834
S'VERB'
p835
F0.462039
sS'NOUN'
p836
F0.207025
s(lp837
(g84
I7
tp838
atp839
a(S'in'
p840
(dp841
S'ADP'
p842
F1.0
s(lp843
(g92
I8
tp844
atp845
a(S'dieser'
p846
(dp847
S'PRON'
p848
F1.0
s(lp849
(g99
I9
tp850
atp851
a(S'region'
p852
(dp853
S'ADJ'
p854
F0.00023
sS'NOUN'
p855
F0.999683
s(lp856
(g106
I10
tp857
atp858
a(S'ist'
p859
(dp860
S'VERB'
p861
F1.0
s(lp862
(g114
I11
tp863
atp864
a(S'grund'
p865
(dp866
S'NOUN'
p867
F0.007674
sS'ADJ'
p868
F0.992197
s(lp869
(g121
I13
tp870
atp871
a(S'f\xc3\xbcr'
p872
(dp873
S'ADP'
p874
F1.0
s(lp875
(g130
I14
tp876
atp877
a(S'besorgnis'
p878
(dp879
S'ADJ'
p880
F0.000407
sS'NOUN'
p881
F0.999448
s(lp882
(g137
I15
tp883
atp884
a(S'f\xc3\xbcr'
p885
(dp886
S'ADP'
p887
F1.0
s(lp888
(g145
I16
tp889
atp890
a(S'die'
p891
(dp892
S'PRON'
p893
F0.000218
sS'DET'
p894
F0.999767
s(lp895
(g154
I17
tp896
atp897
a(S'europ\xc3\xa4ische'
p898
(dp899
S'ADJ'
p900
F1.0
s(lp901
(g169
I18
tp902
atp903
a(S'union'
p904
(dp905
S'ADJ'
p906
F0.029108
sS'NOUN'
p907
F0.965042
s(lp908
(g161
I19
tp909
atp910
a(g172
(dp911
g174
F1.0
s(lp912
(g172
I20
tp913
atp914
a(S'sowohl'
p915
(dp916
S'CONJ'
p917
F1.0
s(lp918
(g204
I25
tp919
atp920
a(S'vom'
p921
(dp922
S'ADP'
p923
F1.0
s(lp924
(g182
I21
tp925
atp926
a(S'standpunkt'
p927
(dp928
S'ADJ'
p929
F6.9e-05
sS'NOUN'
p930
F0.999908
s(lp931
(g442
I23
tp932
atp933
a(S'der'
p934
(dp935
S'PRON'
p936
F8.8e-05
sS'DET'
p937
F0.999888
s(lp938
(g211
I26
tp939
atp940
a(S'beziehungen'
p941
(dp942
S'ADJ'
p943
F0.019167
sS'NOUN'
p944
F0.967649
s(lp945
(g219
I27
tp946
atp947
a(S'zu'
p948
(dp949
S'PRT'
p950
F0.126446
sS'ADP'
p951
F0.840736
s(lp952
(g227
I28
tp953
atp954
a(S'israel'
p955
(dp956
S'ADJ'
p957
F0.182846
sS'NOUN'
p958
F0.715342
s(lp959
(g235
I29
tp960
atp961
a(S'als'
p962
(dp963
S'CONJ'
p964
F0.997235
s(lp965
(g242
I30
tp966
atp967
a(S'auch'
p968
(dp969
S'ADV'
p970
F1.0
s(lp971
tp972
a(S'der'
p973
(dp974
S'PRON'
p975
F5.4e-05
sS'DET'
p976
F0.999945
s(lp977
(g250
I31
tp978
atp979
a(S'sicherheit'
p980
(dp981
S'ADJ'
p982
F0.002341
sS'NOUN'
p983
F0.997528
s(lp984
(g264
I32
tp985
atp986
a(S'und'
p987
(dp988
S'CONJ'
p989
F1.0
s(lp990
(g271
I33
tp991
atp992
a(S'stabilit\xc3\xa4t'
p993
(dp994
S'VERB'
p995
F0.016723
sS'NOUN'
p996
F0.979815
s(lp997
(g287
I34
tp998
atp999
a(S'in'
p1000
(dp1001
S'ADP'
p1002
F1.0
s(lp1003
(g510
I35
tp1004
atp1005
a(S'nahost'
p1006
(dp1007
S'ADJ'
p1008
F1.0
s(lp1009
(g294
I37
tp1010
atp1011
a(S'aus'
p1012
(dp1013
S'PRT'
p1014
F0.99406
sS'ADP'
p1015
F0.005579
s(lp1016
(g303
I38
tp1017
atp1018
a(g174
(dp1019
g174
F1.0
s(lp1020
(g174
I39
tp1021
atp1022
asS'it'
p1023
(lp1024
(S"l'"
p1025
(dp1026
S'NOUN'
p1027
F0.00259
sS'VERB'
p1028
F0.9925710000000001
sS'ADJ'
p1029
F0.00484
s(lp1030
(g9
I0
tp1031
atp1032
a(S'evidente'
p1033
(dp1034
S'ADJ'
p1035
F1.0
s(lp1036
(g23
I1
tp1037
atp1038
a(S'violazione'
p1039
(dp1040
S'NOUN'
p1041
F1.0
s(lp1042
(g16
I2
tp1043
atp1044
a(S'delle'
p1045
(dp1046
S'DEF'
p1047
F0.001048
sS'ADP'
p1048
F0.998952
s(lp1049
tp1050
a(S'libert\xc3\xa0'
p1051
(dp1052
S'NOUN'
p1053
F1.0
s(lp1054
(g84
I7
tp1055
atp1056
a(S'e'
p1057
(dp1058
S'CONJ'
p1059
F1.0
s(lp1060
(g66
I6
tp1061
atp1062
a(S'dei'
p1063
(dp1064
S'NOUN'
p1065
F7e-06
sS'DEF'
p1066
F0.020161
sS'ADP'
p1067
F0.979832
s(lp1068
tp1069
a(S'diritti'
p1070
(dp1071
S'ADJ'
p1072
F0.021895
sS'NOUN'
p1073
F0.978105
s(lp1074
(g39
I5
tp1075
atp1076
a(S'umani'
p1077
(dp1078
S'NOUN'
p1079
F0.056568
sS'ADJ'
p1080
F0.943432
s(lp1081
(g31
I4
tp1082
atp1083
a(S'in'
p1084
(dp1085
S'ADP'
p1086
F1.0
s(lp1087
(g92
I8
tp1088
atp1089
a(S"quest'"
p1090
(dp1091
S'ADJ'
p1092
F0.018253
sS'VERB'
p1093
F0.018786
sS'NOUN'
p1094
F0.962961
s(lp1095
(g99
I9
tp1096
atp1097
a(S'area'
p1098
(dp1099
S'NOUN'
p1100
F1.0
s(lp1101
(g106
I10
tp1102
atp1103
a(S'\xc3\xa8'
p1104
(dp1105
S'VERB'
p1106
F1.0
s(lp1107
(g114
I11
tp1108
atp1109
a(S'motivo'
p1110
(dp1111
S'VERB'
p1112
F0.002556
sS'NOUN'
p1113
F0.997444
s(lp1114
(g121
I13
tp1115
atp1116
a(S'di'
p1117
(dp1118
S'CONJ'
p1119
F4e-06
sS'ADP'
p1120
F0.999996
s(lp1121
(g130
I14
tp1122
atp1123
a(S'preoccupazione'
p1124
(dp1125
S'NOUN'
p1126
F1.0
s(lp1127
(g137
I15
tp1128
atp1129
a(S'per'
p1130
(dp1131
S'CONJ'
p1132
F0.056931
sS'ADP'
p1133
F0.943069
s(lp1134
(g145
I16
tp1135
atp1136
a(S"l'"
p1137
(dp1138
S'NOUN'
p1139
F0.009778
sS'VERB'
p1140
F0.9663980000000001
sS'ADJ'
p1141
F0.023823
s(lp1142
(g154
I17
tp1143
atp1144
a(S'unione'
p1145
(dp1146
S'NOUN'
p1147
F1.0
s(lp1148
(g161
I19
tp1149
atp1150
a(S'europea'
p1151
(dp1152
S'NOUN'
p1153
F0.00165
sS'ADJ'
p1154
F0.99835
s(lp1155
(g169
I18
tp1156
atp1157
a(g172
(dp1158
g174
F1.0
s(lp1159
(g172
I20
tp1160
atp1161
a(S'sia'
p1162
(dp1163
S'CONJ'
p1164
F0.769768
sS'VERB'
p1165
F0.23023200000000002
s(lp1166
(g204
I25
tp1167
atp1168
a(S'dal'
p1169
(dp1170
S'ADP'
p1171
F1.0
s(lp1172
(g182
I21
tp1173
atp1174
a(S'punto'
p1175
(dp1176
S'ADV'
p1177
F0.000196
sS'ADJ'
p1178
F0.000547
sS'VERB'
p1179
F0.000276
sS'NOUN'
p1180
F0.998981
s(lp1181
tp1182
a(S'di'
p1183
(dp1184
S'CONJ'
p1185
F8e-06
sS'ADP'
p1186
F0.999992
s(lp1187
tp1188
a(S'vista'
p1189
(dp1190
S'VERB'
p1191
F0.009527
sS'NOUN'
p1192
F0.990474
s(lp1193
(g442
I23
tp1194
atp1195
a(S'delle'
p1196
(dp1197
S'DEF'
p1198
F0.000261
sS'ADP'
p1199
F0.999739
s(lp1200
(g448
I24
tp1201
atp1202
a(S'sue'
p1203
(dp1204
S'PRON'
p1205
F1.0
s(lp1206
(g211
I26
tp1207
atp1208
a(S'relazioni'
p1209
(dp1210
S'VERB'
p1211
F0.00036899999999999997
sS'NOUN'
p1212
F0.99963
s(lp1213
(g219
I27
tp1214
atp1215
a(S'con'
p1216
(dp1217
S'ADP'
p1218
F1.0
s(lp1219
(g227
I28
tp1220
atp1221
a(S'israele'
p1222
(dp1223
S'NOUN'
p1224
F0.011555
sS'VERB'
p1225
F0.33553700000000003
sS'ADJ'
p1226
F0.652908
s(lp1227
tp1228
a(S'sai'
p1229
(dp1230
S'VERB'
p1231
F0.021066
sS'NOUN'
p1232
F0.978934
s(lp1233
(g235
I29
tp1234
atp1235
a(S'da'
p1236
(dp1237
S'ADP'
p1238
F1.0
s(lp1239
tp1240
a(S'quello'
p1241
(dp1242
S'PRON'
p1243
F1.0
s(lp1244
(g242
I30
tp1245
atp1246
a(S'della'
p1247
(dp1248
S'DEF'
p1249
F0.001087
sS'ADP'
p1250
F0.998913
s(lp1251
(g250
I31
tp1252
atp1253
a(S'sicurezza'
p1254
(dp1255
S'NOUN'
p1256
F1.0
s(lp1257
(g264
I32
tp1258
atp1259
a(g1057
(dp1260
S'CONJ'
p1261
F1.0
s(lp1262
(g271
I33
tp1263
atp1264
a(S'della'
p1265
(dp1266
S'DEF'
p1267
F0.026624
sS'ADP'
p1268
F0.973376
s(lp1269
(g46
I3
tp1270
atp1271
a(S'stabilit\xc3\xa0'
p1272
(dp1273
S'NOUN'
p1274
F1.0
s(lp1275
(g287
I34
tp1276
atp1277
a(S'in'
p1278
(dp1279
S'ADP'
p1280
F1.0
s(lp1281
(g510
I35
tp1282
atp1283
a(S'medio'
p1284
(dp1285
S'VERB'
p1286
F1.2e-05
sS'ADJ'
p1287
F0.999988
s(lp1288
(g294
I37
tp1289
atp1290
a(S'oriente'
p1291
(dp1292
S'NOUN'
p1293
F1.0
s(lp1294
(g303
I38
tp1295
atp1296
a(g174
(dp1297
g174
F1.0
s(lp1298
(g174
I39
tp1299
atp1300
asS'sk'
p1301
(lp1302
(S'do'
p1303
(dp1304
S'X'
p1305
F0.00032
sS'ADP'
p1306
F0.999642
sS'PRON'
p1307
F3.8e-05
s(lp1308
(g23
I1
tp1309
atp1310
a(S'o\xc4\x8d\xc3\xad'
p1311
(dp1312
S'NOUN'
p1313
F1.0
s(lp1314
tp1315
a(S'bij\xc3\xbace'
p1316
(dp1317
S'VERB'
p1318
F1.0
s(lp1319
(g23
I1
tp1320
atp1321
a(S'poru\xc5\xa1ovanie'
p1322
(dp1323
S'NOUN'
p1324
F1.0
s(lp1325
(g16
I2
tp1326
atp1327
a(S'\xc4\xbeudsk\xc3\xbdch'
p1328
(dp1329
S'ADJ'
p1330
F1.0
s(lp1331
(g31
I4
tp1332
atp1333
a(S'pr\xc3\xa1v'
p1334
(dp1335
g1305
F2.8e-05
sS'NOUN'
p1336
F0.999972
s(lp1337
(g39
I5
tp1338
atp1339
a(g380
(dp1340
g1305
F0.0006979999999999999
sS'CONJ'
p1341
F0.998697
sS'NOUN'
p1342
F5.7e-05
sS'ADP'
p1343
F0.000484
sS'PRT'
p1344
F6.4e-05
s(lp1345
(g66
I6
tp1346
atp1347
a(S'slob\xc3\xb4d'
p1348
(dp1349
S'NOUN'
p1350
F1.0
s(lp1351
(g84
I7
tp1352
atp1353
a(S'v'
p1354
(dp1355
g1305
F1.8e-05
sS'ADP'
p1356
F0.999982
s(lp1357
(g92
I8
tp1358
atp1359
a(S'tomto'
p1360
(dp1361
S'PRON'
p1362
F1.0
s(lp1363
(g99
I9
tp1364
atp1365
a(S'regi\xc3\xb3ne'
p1366
(dp1367
S'NOUN'
p1368
F1.0
s(lp1369
(g106
I10
tp1370
atp1371
a(S'znepokojuje'
p1372
(dp1373
S'VERB'
p1374
F1.0
s(lp1375
(g137
I15
tp1376
atp1377
a(S'eur\xc3\xb3psku'
p1378
(dp1379
S'ADJ'
p1380
F1.0
s(lp1381
(g169
I18
tp1382
atp1383
a(S'\xc3\xbaniu'
p1384
(dp1385
S'NOUN'
p1386
F1.0
s(lp1387
(g161
I19
tp1388
atp1389
a(S'z'
p1390
(dp1391
g1305
F0.000283
sS'NOUN'
p1392
F4.1e-05
sS'ADP'
p1393
F0.999675
s(lp1394
(g182
I21
tp1395
atp1396
a(S'h\xc4\xbeadiska'
p1397
(dp1398
S'NOUN'
p1399
F1.0
s(lp1400
tp1401
a(S'vz\xc5\xa5ahov'
p1402
(dp1403
S'NOUN'
p1404
F1.0
s(lp1405
(g219
I27
tp1406
atp1407
a(S's'
p1408
(dp1409
g1305
F0.00085
sS'CONJ'
p1410
F7.9e-05
sS'NOUN'
p1411
F7e-06
sS'ADP'
p1412
F0.999035
sS'PRT'
p1413
F3e-05
s(lp1414
(g227
I28
tp1415
atp1416
a(S'izraelom'
p1417
(dp1418
S'ADJ'
p1419
F0.000979
sS'NOUN'
p1420
F0.9990209999999999
s(lp1421
(g235
I29
tp1422
atp1423
a(S'aj'
p1424
(dp1425
g1305
F0.630933
sS'CONJ'
p1426
F0.369067
s(lp1427
(g242
I30
tp1428
atp1429
a(g1390
(dp1430
g1305
F0.00023100000000000003
sS'NOUN'
p1431
F2.9e-05
sS'ADP'
p1432
F0.99974
s(lp1433
(g250
I31
tp1434
atp1435
a(S'h\xc4\xbeadiska'
p1436
(dp1437
S'NOUN'
p1438
F1.0
s(lp1439
(g442
I23
tp1440
atp1441
a(S'bezpe\xc4\x8dnosti'
p1442
(dp1443
S'NOUN'
p1444
F1.0
s(lp1445
(g264
I32
tp1446
atp1447
a(g380
(dp1448
g1305
F0.002523
sS'CONJ'
p1449
F0.996497
sS'NOUN'
p1450
F0.00018600000000000002
sS'ADP'
p1451
F0.000766
sS'PRT'
p1452
F2.7e-05
s(lp1453
(g271
I33
tp1454
atp1455
a(S'stability'
p1456
(dp1457
S'NOUN'
p1458
F1.0
s(lp1459
(g287
I34
tp1460
atp1461
a(S'na'
p1462
(dp1463
g1305
F7.400000000000001e-05
sS'CONJ'
p1464
F1.9e-05
sS'ADP'
p1465
F0.999903
sS'PRT'
p1466
F3e-06
s(lp1467
(g510
I35
tp1468
atp1469
a(S'bl\xc3\xadzkom'
p1470
(dp1471
S'NOUN'
p1472
F0.006561
sS'ADJ'
p1473
F0.993439
s(lp1474
(g294
I37
tp1475
atp1476
a(S'v\xc3\xbdchode'
p1477
(dp1478
S'NOUN'
p1479
F1.0
s(lp1480
(g303
I38
tp1481
atp1482
a(g174
(dp1483
g174
F1.0
s(lp1484
(g174
I39
tp1485
atp1486
asS'pl'
p1487
(lp1488
(S'jawne'
p1489
(dp1490
S'ADJ'
p1491
F1.000001
s(lp1492
(g23
I1
tp1493
atp1494
a(S'pogwa\xc5\x82cenie'
p1495
(dp1496
S'VERB'
p1497
F1.0
s(lp1498
(g16
I2
tp1499
atp1500
a(S'praw'
p1501
(dp1502
S'NOUN'
p1503
F1.0
s(lp1504
(g39
I5
tp1505
atp1506
a(S'cz\xc5\x82owieka'
p1507
(dp1508
S'NOUN'
p1509
F1.0
s(lp1510
(g31
I4
tp1511
atp1512
a(S'i'
p1513
(dp1514
S'PRT'
p1515
F0.000517
sS'CONJ'
p1516
F0.999461
sS'PRON'
p1517
F2e-06
sS'NOUN'
p1518
F1.7e-05
sg1305
F3e-06
s(lp1519
(g66
I6
tp1520
atp1521
a(S'swob\xc3\xb3d'
p1522
(dp1523
S'NOUN'
p1524
F1.0
s(lp1525
tp1526
a(S'obywatelskich'
p1527
(dp1528
S'ADJ'
p1529
F1.000001
s(lp1530
(g84
I7
tp1531
atp1532
a(S'w'
p1533
(dp1534
S'ADJ'
p1535
F0.0
sg1305
F0.0
sS'NOUN'
p1536
F0.0
sS'ADP'
p1537
F1.0
s(lp1538
(g92
I8
tp1539
atp1540
a(S'tym'
p1541
(dp1542
S'ADV'
p1543
F1e-06
sS'NOUN'
p1544
F0.00624
sS'CONJ'
p1545
F0.0
sS'ADJ'
p1546
F0.993759
sS'PRT'
p1547
F0.0
s(lp1548
(g99
I9
tp1549
atp1550
a(S'regionie'
p1551
(dp1552
S'NOUN'
p1553
F1.0
s(lp1554
(g106
I10
tp1555
atp1556
a(S'jest'
p1557
(dp1558
S'VERB'
p1559
F1.0
s(lp1560
(g114
I11
tp1561
atp1562
a(S'przyczyna'
p1563
(dp1564
S'NOUN'
p1565
F1.0
s(lp1566
(g121
I13
tp1567
atp1568
a(S'powa\xc5\xbcnego'
p1569
(dp1570
S'ADJ'
p1571
F1.0
s(lp1572
tp1573
a(S'niepokoju'
p1574
(dp1575
S'NOUN'
p1576
F1.0
s(lp1577
(g137
I15
tp1578
atp1579
a(S'unii'
p1580
(dp1581
S'NOUN'
p1582
F1.0
s(lp1583
(g161
I19
tp1584
atp1585
a(S'europejskiej'
p1586
(dp1587
S'ADJ'
p1588
F1.0
s(lp1589
(g169
I18
tp1590
atp1591
a(g172
(dp1592
g1305
F0.0
sg174
F1.0
s(lp1593
(g172
I20
tp1594
atp1595
a(S'zar\xc3\xb3wno'
p1596
(dp1597
S'ADV'
p1598
F0.010996
sS'CONJ'
p1599
F0.989004
s(lp1600
tp1601
a(g1390
(dp1602
S'PRT'
p1603
F0.000354
sS'VERB'
p1604
F1.5e-05
sS'NOUN'
p1605
F2.8e-05
sS'ADP'
p1606
F0.9996019999999999
sg1305
F1e-06
s(lp1607
(g182
I21
tp1608
atp1609
a(S'perspektywy'
p1610
(dp1611
S'NOUN'
p1612
F0.9999999999999999
s(lp1613
(g442
I23
tp1614
atp1615
a(S'jej'
p1616
(dp1617
S'PRON'
p1618
F1.0
sg1305
F1e-06
s(lp1619
(g211
I26
tp1620
atp1621
a(S'stosunk\xc3\xb3w'
p1622
(dp1623
S'NOUN'
p1624
F1.0
s(lp1625
(g219
I27
tp1626
atp1627
a(g1390
(dp1628
S'PRT'
p1629
F2e-06
sS'VERB'
p1630
F2e-06
sS'NOUN'
p1631
F0.0
sS'ADP'
p1632
F0.9999950000000001
sg1305
F0.0
s(lp1633
(g227
I28
tp1634
atp1635
a(S'izraelem'
p1636
(dp1637
S'ADV'
p1638
F1.3e-05
sS'ADJ'
p1639
F0.000163
sS'VERB'
p1640
F0.040661
sS'NOUN'
p1641
F0.9591609999999998
s(lp1642
(g235
I29
tp1643
atp1644
a(g172
(dp1645
g1305
F0.0
sg174
F1.0
s(lp1646
tp1647
a(S'jak'
p1648
(dp1649
S'ADV'
p1650
F0.848175
sS'PRT'
p1651
F0.00096
sS'CONJ'
p1652
F0.129037
sS'ADP'
p1653
F0.021749
sS'PRON'
p1654
F8e-05
s(lp1655
(g204
I25
tp1656
atp1657
a(g1513
(dp1658
S'PRT'
p1659
F0.010911
sS'CONJ'
p1660
F0.988273
sS'NOUN'
p1661
F0.0005529999999999999
sg1305
F2.1e-05
sS'PRON'
p1662
F0.000243
s(lp1663
(g242
I30
tp1664
atp1665
a(S'bezpiecze\xc5\x84stwa'
p1666
(dp1667
S'NOUN'
p1668
F1.0
s(lp1669
(g264
I32
tp1670
atp1671
a(g1513
(dp1672
S'PRT'
p1673
F0.001489
sS'CONJ'
p1674
F0.998451
sS'NOUN'
p1675
F3.3e-05
sg1305
F1e-06
sS'PRON'
p1676
F2.6000000000000002e-05
s(lp1677
(g271
I33
tp1678
atp1679
a(S'stabilizacji'
p1680
(dp1681
S'NOUN'
p1682
F1.0
s(lp1683
(g287
I34
tp1684
atp1685
a(S'na'
p1686
(dp1687
g1305
F1e-06
sS'VERB'
p1688
F1e-06
sS'NOUN'
p1689
F0.0
sS'ADP'
p1690
F0.999997
sS'PRT'
p1691
F1e-06
s(lp1692
(g510
I35
tp1693
atp1694
a(S'bliskim'
p1695
(dp1696
S'ADJ'
p1697
F1.0
s(lp1698
(g294
I37
tp1699
atp1700
a(S'wschodzie'
p1701
(dp1702
S'NOUN'
p1703
F1.0
s(lp1704
(g303
I38
tp1705
atp1706
a(g174
(dp1707
g174
F1.0
s(lp1708
(g174
I39
tp1709
atp1710
asS'sl'
p1711
(lp1712
(S'o\xc4\x8ditno'
p1713
(dp1714
S'ADV'
p1715
F0.033989
sS'ADJ'
p1716
F0.96601
s(lp1717
(g23
I1
tp1718
atp1719
a(S'kr\xc5\xa1enje'
p1720
(dp1721
S'NOUN'
p1722
F1.0
s(lp1723
(g16
I2
tp1724
atp1725
a(S'\xc4\x8dlovekovih'
p1726
(dp1727
S'ADJ'
p1728
F1.0
s(lp1729
(g31
I4
tp1730
atp1731
a(S'pravic'
p1732
(dp1733
S'NOUN'
p1734
F1.0
s(lp1735
(g39
I5
tp1736
atp1737
a(S'in'
p1738
(dp1739
S'ADV'
p1740
F0.000136
sg1305
F2.1e-05
sS'CONJ'
p1741
F0.999818
sS'NOUN'
p1742
F2.4e-05
s(lp1743
(g66
I6
tp1744
atp1745
a(S'svobo\xc5\xa1\xc4\x8din'
p1746
(dp1747
S'NOUN'
p1748
F1.0
s(lp1749
(g84
I7
tp1750
atp1751
a(g1354
(dp1752
S'ADP'
p1753
F1.0
s(lp1754
(g92
I8
tp1755
atp1756
a(S'tej'
p1757
(dp1758
S'PRON'
p1759
F1.0
s(lp1760
(g99
I9
tp1761
atp1762
a(S'regiji'
p1763
(dp1764
S'NOUN'
p1765
F1.0
s(lp1766
(g106
I10
tp1767
atp1768
a(S'je'
p1769
(dp1770
S'PRON'
p1771
F0.000605
sS'VERB'
p1772
F0.9993380000000001
sg1305
F5.6e-05
s(lp1773
(g114
I11
tp1774
atp1775
a(S'razlog'
p1776
(dp1777
S'NOUN'
p1778
F1.0
s(lp1779
(g121
I13
tp1780
atp1781
a(S'za'
p1782
(dp1783
S'ADV'
p1784
F1.7e-05
sg1305
F1.4e-05
sS'ADP'
p1785
F0.999969
s(lp1786
(g130
I14
tp1787
atp1788
a(S'zaskrbljenost'
p1789
(dp1790
S'NOUN'
p1791
F1.0
s(lp1792
(g137
I15
tp1793
atp1794
a(S'evropske'
p1795
(dp1796
S'ADJ'
p1797
F0.9999999999999999
s(lp1798
(g169
I18
tp1799
atp1800
a(S'unije'
p1801
(dp1802
S'NOUN'
p1803
F1.0
s(lp1804
(g161
I19
tp1805
atp1806
a(g172
(dp1807
g174
F1.0
s(lp1808
(g172
I20
tp1809
atp1810
a(g1390
(dp1811
S'ADP'
p1812
F1.0
s(lp1813
(g182
I21
tp1814
atp1815
a(S'vidika'
p1816
(dp1817
S'NOUN'
p1818
F1.0
s(lp1819
tp1820
a(S'njenih'
p1821
(dp1822
S'PRON'
p1823
F0.9999999999999999
s(lp1824
(g211
I26
tp1825
atp1826
a(S'odnosov'
p1827
(dp1828
S'NOUN'
p1829
F1.0
s(lp1830
(g219
I27
tp1831
atp1832
a(g1390
(dp1833
S'ADP'
p1834
F1.0
s(lp1835
(g227
I28
tp1836
atp1837
a(S'izraelom'
p1838
(dp1839
S'ADV'
p1840
F1.3e-05
sS'ADJ'
p1841
F3.7e-05
sS'VERB'
p1842
F0.0
sS'NOUN'
p1843
F0.9999490000000002
s(lp1844
(g235
I29
tp1845
atp1846
a(S'in'
p1847
(dp1848
S'ADV'
p1849
F0.000131
sg1305
F2.1e-05
sS'CONJ'
p1850
F0.999773
sS'NOUN'
p1851
F7.6e-05
s(lp1852
(g242
I30
tp1853
atp1854
a(g1390
(dp1855
S'ADP'
p1856
F1.0
s(lp1857
(g250
I31
tp1858
atp1859
a(S'vidika'
p1860
(dp1861
S'NOUN'
p1862
F1.0
s(lp1863
(g442
I23
tp1864
atp1865
a(S'varnosti'
p1866
(dp1867
S'NOUN'
p1868
F0.9999999999999999
s(lp1869
(g264
I32
tp1870
atp1871
a(S'ter'
p1872
(dp1873
S'CONJ'
p1874
F1.0
s(lp1875
(g271
I33
tp1876
atp1877
a(S'stabilnosti'
p1878
(dp1879
S'NOUN'
p1880
F1.0
s(lp1881
(g287
I34
tp1882
atp1883
a(S'na'
p1884
(dp1885
S'ADP'
p1886
F1.0
s(lp1887
(g510
I35
tp1888
atp1889
a(S'bli\xc5\xbenjem'
p1890
(dp1891
S'ADJ'
p1892
F1.0
s(lp1893
(g294
I37
tp1894
atp1895
a(S'vzhodu'
p1896
(dp1897
S'NOUN'
p1898
F1.0
s(lp1899
(g303
I38
tp1900
atp1901
a(g174
(dp1902
g174
F1.0
s(lp1903
(g174
I39
tp1904
atp1905
asS'es'
p1906
(lp1907
(S'la'
p1908
(dp1909
g1305
F4.5e-05
sS'DET'
p1910
F0.999917
sS'NOUN'
p1911
F0.0
sS'PRON'
p1912
F3.8e-05
s(lp1913
(g9
I0
tp1914
atp1915
a(S'violaci\xc3\xb3n'
p1916
(dp1917
S'NOUN'
p1918
F1.0
s(lp1919
(g16
I2
tp1920
atp1921
a(S'flagrante'
p1922
(dp1923
S'ADJ'
p1924
F1.0
s(lp1925
(g23
I1
tp1926
atp1927
a(S'de'
p1928
(dp1929
g1305
F0.0
sS'CONJ'
p1930
F5.7e-05
sS'ADP'
p1931
F0.999943
s(lp1932
(g46
I3
tp1933
atp1934
a(S'los'
p1935
(dp1936
S'PRON'
p1937
F0.0
sS'DET'
p1938
F1.0
s(lp1939
tp1940
a(S'derechos'
p1941
(dp1942
S'NOUN'
p1943
F1.0
s(lp1944
(g39
I5
tp1945
atp1946
a(S'humanos'
p1947
(dp1948
S'NOUN'
p1949
F0.185357
sS'ADJ'
p1950
F0.814643
s(lp1951
(g31
I4
tp1952
atp1953
a(S'y'
p1954
(dp1955
g1305
F0.000437
sS'CONJ'
p1956
F0.999563
s(lp1957
(g66
I6
tp1958
atp1959
a(S'de'
p1960
(dp1961
g1305
F0.0
sS'CONJ'
p1962
F2e-06
sS'ADP'
p1963
F0.999998
s(lp1964
tp1965
a(S'la'
p1966
(dp1967
S'NOUN'
p1968
F0.0
sS'PRON'
p1969
F0.0
sS'DET'
p1970
F0.999999
sg1305
F0.0
s(lp1971
tp1972
a(S'libertad'
p1973
(dp1974
S'NOUN'
p1975
F1.0
s(lp1976
(g84
I7
tp1977
atp1978
a(S'en'
p1979
(dp1980
g1305
F0.0
sS'CONJ'
p1981
F1e-06
sS'ADP'
p1982
F0.999999
s(lp1983
(g92
I8
tp1984
atp1985
a(S'esta'
p1986
(dp1987
S'PRON'
p1988
F1.0
sS'VERB'
p1989
F0.0
s(lp1990
(g99
I9
tp1991
atp1992
a(S'regi\xc3\xb3n'
p1993
(dp1994
S'NOUN'
p1995
F1.0
s(lp1996
(g106
I10
tp1997
atp1998
a(S'es'
p1999
(dp2000
S'VERB'
p2001
F1.0
s(lp2002
(g114
I11
tp2003
atp2004
a(S'motivo'
p2005
(dp2006
S'ADJ'
p2007
F0.429005
sS'NOUN'
p2008
F0.570995
s(lp2009
(g121
I13
tp2010
atp2011
a(S'de'
p2012
(dp2013
g1305
F3e-05
sS'CONJ'
p2014
F0.000893
sS'ADP'
p2015
F0.999077
s(lp2016
(g130
I14
tp2017
atp2018
a(S'preocupaci\xc3\xb3n'
p2019
(dp2020
S'NOUN'
p2021
F1.0
s(lp2022
(g137
I15
tp2023
atp2024
a(S'para'
p2025
(dp2026
S'CONJ'
p2027
F0.000662
sS'ADP'
p2028
F0.999338
s(lp2029
(g145
I16
tp2030
atp2031
a(S'la'
p2032
(dp2033
g1305
F0.0
sS'PRON'
p2034
F0.0
sS'DET'
p2035
F0.999999
sS'NOUN'
p2036
F0.0
s(lp2037
(g154
I17
tp2038
atp2039
a(S'uni\xc3\xb3n'
p2040
(dp2041
S'NOUN'
p2042
F1.0
s(lp2043
(g161
I19
tp2044
atp2045
a(S'europea'
p2046
(dp2047
S'ADJ'
p2048
F1.0
s(lp2049
(g169
I18
tp2050
atp2051
a(g172
(dp2052
g174
F1.0
s(lp2053
(g172
I20
tp2054
atp2055
a(S'tanto'
p2056
(dp2057
S'ADV'
p2058
F0.985604
sS'NOUN'
p2059
F7.7e-05
sS'ADJ'
p2060
F0.014319
s(lp2061
(g204
I25
tp2062
atp2063
a(S'desde'
p2064
(dp2065
S'ADP'
p2066
F1.0
s(lp2067
(g182
I21
tp2068
atp2069
a(S'la'
p2070
(dp2071
S'NOUN'
p2072
F0.0
sS'PRON'
p2073
F0.0
sS'DET'
p2074
F0.999999
sg1305
F0.0
s(lp2075
(g191
I22
tp2076
atp2077
a(S'perspectiva'
p2078
(dp2079
S'NOUN'
p2080
F1.0
s(lp2081
(g442
I23
tp2082
atp2083
a(S'de'
p2084
(dp2085
g1305
F0.0
sS'CONJ'
p2086
F0.000289
sS'ADP'
p2087
F0.999711
s(lp2088
(g448
I24
tp2089
atp2090
a(S'sus'
p2091
(dp2092
S'PRON'
p2093
F1.0
s(lp2094
(g211
I26
tp2095
atp2096
a(S'relaciones'
p2097
(dp2098
S'NOUN'
p2099
F1.0
s(lp2100
(g219
I27
tp2101
atp2102
a(S'con'
p2103
(dp2104
S'ADP'
p2105
F1.0
s(lp2106
(g227
I28
tp2107
atp2108
a(S'israel'
p2109
(dp2110
S'ADJ'
p2111
F0.185102
sS'NOUN'
p2112
F0.8148980000000001
s(lp2113
(g235
I29
tp2114
atp2115
a(S'como'
p2116
(dp2117
S'ADV'
p2118
F0.624353
sS'CONJ'
p2119
F0.37564699999999995
s(lp2120
(g242
I30
tp2121
atp2122
a(S'por'
p2123
(dp2124
S'ADP'
p2125
F1.0
s(lp2126
(g250
I31
tp2127
atp2128
a(S'la'
p2129
(dp2130
S'NOUN'
p2131
F0.0
sS'PRON'
p2132
F0.0
sS'DET'
p2133
F0.999999
sg1305
F0.0
s(lp2134
tp2135
a(S'seguridad'
p2136
(dp2137
S'NOUN'
p2138
F1.0
s(lp2139
(g264
I32
tp2140
atp2141
a(g1954
(dp2142
g1305
F0.000396
sS'CONJ'
p2143
F0.999604
s(lp2144
(g271
I33
tp2145
atp2146
a(S'la'
p2147
(dp2148
S'PRON'
p2149
F0.000591
sS'DET'
p2150
F0.999408
sS'NOUN'
p2151
F0.0
sg1305
F0.0
s(lp2152
(g280
I36
tp2153
atp2154
a(S'estabilidad'
p2155
(dp2156
S'NOUN'
p2157
F1.0
s(lp2158
(g287
I34
tp2159
atp2160
a(S'en'
p2161
(dp2162
g1305
F0.011792
sS'CONJ'
p2163
F0.000141
sS'ADP'
p2164
F0.988067
s(lp2165
(g510
I35
tp2166
atp2167
a(S'oriente'
p2168
(dp2169
S'VERB'
p2170
F1.0
s(lp2171
(g303
I38
tp2172
atp2173
a(S'pr\xc3\xb3ximo'
p2174
(dp2175
S'ADJ'
p2176
F1.0
s(lp2177
(g294
I37
tp2178
atp2179
a(g174
(dp2180
g174
F1.0
s(lp2181
(g174
I39
tp2182
atp2183
as.