(dp0
S'fr'
p1
(lp2
(S"s'"
p3
(dp4
S'ADJ'
p5
F0.079749
sS'VERB'
p6
F0.5393100000000001
sS'NOUN'
p7
F0.380941
s(lp8
(S'if'
p9
I0
tp10
atp11
a(S'il'
p12
(dp13
S'PRON'
p14
F1.0
s(lp15
(S'he'
p16
I1
tp17
atp18
a(S'pense'
p19
(dp20
S'VERB'
p21
F1.0
s(lp22
(S'thinks'
p23
I2
tp24
atp25
a(S'que'
p26
(dp27
S'ADV'
p28
F0.24161
sS'PRON'
p29
F0.10223700000000001
sS'CONJ'
p30
F0.656153
s(lp31
(S'that'
p32
I3
tp33
atp34
a(S"l'"
p35
(dp36
S'NOUN'
p37
F0.044175
sS'VERB'
p38
F0.867238
sS'ADJ'
p39
F0.088589
s(lp40
(S'the'
p41
I4
tp42
atp43
a(S'union'
p44
(dp45
S'NOUN'
p46
F1.0
s(lp47
tp48
a(S'europ\xc3\xa9enne'
p49
(dp50
S'NOUN'
p51
F0.015315
sS'ADJ'
p52
F0.984685
s(lp53
(S'eu'
p54
I5
tp55
atp56
a(S'repr\xc3\xa9sente'
p57
(dp58
S'VERB'
p59
F1.0
s(lp60
(S'is'
p61
I6
tp62
atp63
a(S'un'
p64
(dp65
S'NOUN'
p66
F0.003855
sS'NUM'
p67
F0.000946
sS'DET'
p68
F0.995199
s(lp69
tp70
a(S'bon'
p71
(dp72
S'ADV'
p73
F0.002314
sS'NOUN'
p74
F0.003909
sS'ADJ'
p75
F0.993776
s(lp76
tp77
a(S'rapport'
p78
(dp79
S'NOUN'
p80
F1.0
s(lp81
(S'value'
p82
I7
tp83
atp84
a(S'qualit\xc3\xa9-prix'
p85
(dp86
S'VERB'
p87
F0.03671800000000001
sS'NOUN'
p88
F0.963283
s(lp89
(S'money'
p90
I9
tp91
atp92
a(S','
p93
(dp94
S'.'
p95
F1.0
s(lp96
(g93
I10
tp97
atp98
a(S'il'
p99
(dp100
S'PRON'
p101
F1.0
s(lp102
(S'he'
p103
I11
tp104
atp105
a(S'devrait'
p106
(dp107
S'VERB'
p108
F1.0
s(lp109
(S'should'
p110
I12
tp111
atp112
a(S'relever'
p113
(dp114
S'VERB'
p115
F1.0
s(lp116
tp117
a(S'mon'
p118
(dp119
S'PRON'
p120
F1.0
s(lp121
(S'my'
p122
I14
tp123
atp124
a(S'd\xc3\xa9fi'
p125
(dp126
S'NOUN'
p127
F1.0
s(lp128
(S'challenge'
p129
I15
tp130
atp131
a(S'et'
p132
(dp133
S'CONJ'
p134
F1.0
s(lp135
(S'and'
p136
I16
tp137
atp138
a(S'commander'
p139
(dp140
S'VERB'
p141
F1.0
s(lp142
(S'commission'
p143
I17
tp144
atp145
a(S'une'
p146
(dp147
S'NOUN'
p148
F7e-05
sS'NUM'
p149
F0.007225
sS'DET'
p150
F0.992706
s(lp151
(S'an'
p152
I18
tp153
atp154
a(S'analyse'
p155
(dp156
S'VERB'
p157
F0.003273
sS'NOUN'
p158
F0.996727
s(lp159
(S'analysis'
p160
I21
tp161
atp162
a(S'ind\xc3\xa9pendante'
p163
(dp164
S'NOUN'
p165
F0.001243
sS'ADJ'
p166
F0.998757
s(lp167
(S'independent'
p168
I19
tp169
atp170
a(S'co\xc3\xbbts-b\xc3\xa9n\xc3\xa9fices'
p171
(dp172
S'VERB'
p173
F0.0014899999999999998
sS'NOUN'
p174
F0.99851
s(lp175
(S'cost-benefit'
p176
I20
tp177
atp178
a(S'pour'
p179
(dp180
S'CONJ'
p181
F0.519983
sS'ADP'
p182
F0.480017
s(lp183
(S'to'
p184
I22
tp185
atp186
a(S'le'
p187
(dp188
S'PRON'
p189
F0.760876
sS'DET'
p190
F0.239124
s(lp191
(S'it'
p192
I24
tp193
atp194
a(S'd\xc3\xa9montrer'
p195
(dp196
S'VERB'
p197
F1.0
s(lp198
(S'prove'
p199
I23
tp200
atp201
a(g95
(dp202
g95
F1.0
s(lp203
(g95
I25
tp204
atp205
asS'en'
p206
(lp207
(g9
(dp208
S'ADP'
p209
F1.0
s(lp210
(g9
I0
tp211
atp212
a(g16
(dp213
S'PRON'
p214
F1.0
s(lp215
(g16
I1
tp216
atp217
a(g23
(dp218
S'VERB'
p219
F0.999995
sS'NOUN'
p220
F5e-06
s(lp221
(g23
I2
tp222
atp223
a(g32
(dp224
S'ADV'
p225
F0.000465
sS'DET'
p226
F0.001462
sS'ADP'
p227
F0.998073
s(lp228
(g32
I3
tp229
atp230
a(g41
(dp231
S'NOUN'
p232
F4e-06
sS'DET'
p233
F0.999996
s(lp234
(g41
I4
tp235
atp236
a(g54
(dp237
S'ADV'
p238
F6.1e-05
sS'ADJ'
p239
F0.000269
sS'VERB'
p240
F5.599999999999999e-05
sS'NOUN'
p241
F0.999615
s(lp242
(g54
I5
tp243
atp244
a(g61
(dp245
S'VERB'
p246
F1.0
s(lp247
(g61
I6
tp248
atp249
a(g82
(dp250
S'VERB'
p251
F0.000457
sS'NOUN'
p252
F0.999543
s(lp253
(g82
I7
tp254
atp255
a(S'for'
p256
(dp257
S'ADP'
p258
F1.0
s(lp259
(g256
I8
tp260
atp261
a(g90
(dp262
S'NOUN'
p263
F1.0
s(lp264
(g90
I9
tp265
atp266
a(g93
(dp267
g95
F1.0
s(lp268
(g93
I10
tp269
atp270
a(g103
(dp271
S'PRON'
p272
F1.0
s(lp273
(g103
I11
tp274
atp275
a(g110
(dp276
S'VERB'
p277
F1.0
s(lp278
(g110
I12
tp279
atp280
a(S'accept'
p281
(dp282
S'VERB'
p283
F1.0
s(lp284
(g281
I13
tp285
atp286
a(g122
(dp287
S'PRON'
p288
F1.0
s(lp289
(g122
I14
tp290
atp291
a(g129
(dp292
S'VERB'
p293
F7.699999999999999e-05
sS'NOUN'
p294
F0.999923
s(lp295
(g129
I15
tp296
atp297
a(g136
(dp298
S'CONJ'
p299
F0.999999
sS'NOUN'
p300
F1e-06
s(lp301
(g136
I16
tp302
atp303
a(g143
(dp304
S'VERB'
p305
F0.334745
sS'NOUN'
p306
F0.665255
s(lp307
(g143
I17
tp308
atp309
a(g152
(dp310
S'DET'
p311
F1.0
s(lp312
(g152
I18
tp313
atp314
a(g168
(dp315
S'NOUN'
p316
F0.001471
sS'ADJ'
p317
F0.998529
s(lp318
(g168
I19
tp319
atp320
a(g176
(dp321
S'ADJ'
p322
F1.0
s(lp323
(g176
I20
tp324
atp325
a(g160
(dp326
S'NOUN'
p327
F1.0
s(lp328
(g160
I21
tp329
atp330
a(g184
(dp331
S'ADV'
p332
F0.0
sS'PRT'
p333
F1.0
sS'ADP'
p334
F0.0
s(lp335
(g184
I22
tp336
atp337
a(g199
(dp338
S'VERB'
p339
F1.0
s(lp340
(g199
I23
tp341
atp342
a(g192
(dp343
S'PRON'
p344
F1.0
s(lp345
(g192
I24
tp346
atp347
a(g95
(dp348
g95
F1.0
s(lp349
(g95
I25
tp350
atp351
asS'nl'
p352
(lp353
(S'als'
p354
(dp355
S'CONJ'
p356
F1.0
s(lp357
(g9
I0
tp358
atp359
a(S'hij'
p360
(dp361
S'PRON'
p362
F1.0
s(lp363
(g16
I1
tp364
atp365
a(S'denkt'
p366
(dp367
S'VERB'
p368
F1.0
s(lp369
(g23
I2
tp370
atp371
a(S'dat'
p372
(dp373
S'PRON'
p374
F0.042407
sS'CONJ'
p375
F0.957593
s(lp376
(g32
I3
tp377
atp378
a(S'de'
p379
(dp380
S'DET'
p381
F1.0
s(lp382
(g41
I4
tp383
atp384
a(S'eu'
p385
(dp386
S'NOUN'
p387
F1.0
s(lp388
(g54
I5
tp389
atp390
a(S'waar'
p391
(dp392
S'ADV'
p393
F0.999874
sS'ADJ'
p394
F4.7e-05
sS'NOUN'
p395
F7.9e-05
s(lp396
(g82
I7
tp397
atp398
a(S'voor'
p399
(dp400
S'ADV'
p401
F0.005481
sS'CONJ'
p402
F2e-06
sS'NOUN'
p403
F0.0
sS'ADP'
p404
F0.994516
s(lp405
(g256
I8
tp406
atp407
a(S'haar'
p408
(dp409
S'ADV'
p410
F0.0
sS'PRON'
p411
F1.0
sS'NOUN'
p412
F1e-06
s(lp413
(g192
I24
tp414
atp415
a(S'geld'
p416
(dp417
S'VERB'
p418
F0.0
sS'NOUN'
p419
F1.0
s(lp420
(g90
I9
tp421
atp422
a(S'geeft'
p423
(dp424
S'VERB'
p425
F1.0
s(lp426
(g93
I10
tp427
atp428
a(g93
(dp429
g95
F1.0
s(lp430
tp431
a(S'zou'
p432
(dp433
S'VERB'
p434
F1.0
s(lp435
tp436
a(S'hij'
p437
(dp438
S'PRON'
p439
F1.0
s(lp440
(g103
I11
tp441
atp442
a(S'mijn'
p443
(dp444
S'PRON'
p445
F0.999997
sS'NOUN'
p446
F3e-06
s(lp447
(g122
I14
tp448
atp449
a(S'uitdaging'
p450
(dp451
S'NOUN'
p452
F1.0
s(lp453
(g129
I15
tp454
atp455
a(S'moeten'
p456
(dp457
S'VERB'
p458
F0.999985
sS'NOUN'
p459
F1.5e-05
s(lp460
(g110
I12
tp461
atp462
a(S'aannemen'
p463
(dp464
S'VERB'
p465
F0.999857
sS'NOUN'
p466
F0.000142
s(lp467
(g281
I13
tp468
atp469
a(S'en'
p470
(dp471
S'CONJ'
p472
F1.0
s(lp473
(g136
I16
tp474
atp475
a(S'een'
p476
(dp477
S'ADJ'
p478
F1e-06
sS'PRON'
p479
F0.001075
sS'NUM'
p480
F3e-06
sS'DET'
p481
F0.998921
s(lp482
(g152
I18
tp483
atp484
a(S'onafhankelijke'
p485
(dp486
S'NOUN'
p487
F0.006171
sS'ADJ'
p488
F0.993829
s(lp489
(g168
I19
tp490
atp491
a(S'kosten-batenanalyse'
p492
(dp493
S'NOUN'
p494
F1.0
s(lp495
tp496
a(S'laten'
p497
(dp498
S'VERB'
p499
F0.999964
sS'NOUN'
p500
F3.6e-05
s(lp501
(g176
I20
tp502
atp503
a(S'uitvoeren'
p504
(dp505
S'VERB'
p506
F0.9823219999999999
sS'NOUN'
p507
F0.017678
s(lp508
(g160
I21
tp509
atp510
a(S'om'
p511
(dp512
S'ADV'
p513
F0.011817
sS'CONJ'
p514
F0.961966
sS'ADP'
p515
F0.026217
s(lp516
tp517
a(S'dat'
p518
(dp519
S'PRON'
p520
F0.29007299999999997
sS'CONJ'
p521
F0.709926
s(lp522
tp523
a(S'te'
p524
(dp525
S'PRT'
p526
F1.0
s(lp527
(g184
I22
tp528
atp529
a(S'bewijzen'
p530
(dp531
S'VERB'
p532
F0.999748
sS'NOUN'
p533
F0.000252
s(lp534
(g199
I23
tp535
atp536
a(g95
(dp537
g95
F1.0
s(lp538
(g95
I25
tp539
atp540
asS'de'
p541
(lp542
(S'wenn'
p543
(dp544
S'CONJ'
p545
F1.0
s(lp546
(g9
I0
tp547
atp548
a(S'er'
p549
(dp550
S'PRON'
p551
F1.0
s(lp552
(g16
I1
tp553
atp554
a(S'der'
p555
(dp556
S'PRON'
p557
F0.002322
sS'DET'
p558
F0.996747
s(lp559
tp560
a(S'meinung'
p561
(dp562
S'ADJ'
p563
F0.044562
sS'NOUN'
p564
F0.925401
s(lp565
tp566
a(S'ist'
p567
(dp568
S'VERB'
p569
F1.0
s(lp570
(g23
I2
tp571
atp572
a(g93
(dp573
g95
F1.0
s(lp574
tp575
a(S'dass'
p576
(dp577
S'CONJ'
p578
F1.0
s(lp579
(g32
I3
tp580
atp581
a(S'die'
p582
(dp583
S'PRON'
p584
F0.07108
sS'DET'
p585
F0.92793
s(lp586
(g41
I4
tp587
atp588
a(S'eu'
p589
(dp590
S'NOUN'
p591
F0.365611
sS'ADJ'
p592
F0.485708
s(lp593
(g54
I5
tp594
atp595
a(S'ihr'
p596
(dp597
S'PRON'
p598
F1.0
s(lp599
tp600
a(S'geld'
p601
(dp602
S'ADJ'
p603
F0.000368
sS'NOUN'
p604
F0.999247
s(lp605
(g90
I9
tp606
atp607
a(S'wert'
p608
(dp609
S'PRT'
p610
F0.003401
sS'ADJ'
p611
F0.996599
s(lp612
(g82
I7
tp613
atp614
a(S'ist'
p615
(dp616
S'VERB'
p617
F1.0
s(lp618
(g61
I6
tp619
atp620
a(g93
(dp621
g95
F1.0
s(lp622
(g93
I10
tp623
atp624
a(S'sollte'
p625
(dp626
S'VERB'
p627
F1.0
s(lp628
(g110
I12
tp629
atp630
a(S'er'
p631
(dp632
S'PRON'
p633
F1.0
s(lp634
(g103
I11
tp635
atp636
a(S'sich'
p637
(dp638
S'PRON'
p639
F1.0
s(lp640
(g199
I23
tp641
atp642
a(S'meinen'
p643
(dp644
S'PRON'
p645
F0.940008
sS'VERB'
p646
F0.059904
s(lp647
(g122
I14
tp648
atp649
a(S'vorwurf'
p650
(dp651
S'ADJ'
p652
F0.063572
sS'NOUN'
p653
F0.935595
s(lp654
(g176
I20
tp655
atp656
a(S'zu'
p657
(dp658
S'PRT'
p659
F0.999976
s(lp660
tp661
a(S'herzen'
p662
(dp663
S'VERB'
p664
F1.0
s(lp665
(g176
I20
tp666
atp667
a(S'nehmen'
p668
(dp669
S'VERB'
p670
F1.0
s(lp671
(g281
I13
tp672
atp673
a(S'und'
p674
(dp675
S'CONJ'
p676
F1.0
s(lp677
(g136
I16
tp678
atp679
a(S'zum'
p680
(dp681
S'ADP'
p682
F1.0
s(lp683
(g184
I22
tp684
atp685
a(S'beweis'
p686
(dp687
S'VERB'
p688
F1.0
s(lp689
tp690
a(S'eine'
p691
(dp692
S'PRON'
p693
F0.000279
sS'DET'
p694
F0.999624
s(lp695
(g152
I18
tp696
atp697
a(S'unabh\xc3\xa4ngige'
p698
(dp699
S'ADJ'
p700
F1.0
s(lp701
(g168
I19
tp702
atp703
a(S'kosten-nutzen-analyse'
p704
(dp705
S'ADJ'
p706
F0.002337
sS'NOUN'
p707
F0.994349
s(lp708
tp709
a(S'in'
p710
(dp711
S'ADP'
p712
F1.0
s(lp713
(g192
I24
tp714
atp715
a(S'auftrag'
p716
(dp717
S'ADJ'
p718
F0.000731
sS'NOUN'
p719
F0.99915
s(lp720
(g176
I20
tp721
atp722
a(S'geben'
p723
(dp724
S'VERB'
p725
F1.0
s(lp726
(g199
I23
tp727
atp728
a(g95
(dp729
g95
F1.0
s(lp730
(g95
I25
tp731
atp732
asS'it'
p733
(lp734
(S'se'
p735
(dp736
S'PRON'
p737
F0.000494
sS'CONJ'
p738
F0.999492
sS'NOUN'
p739
F1.4e-05
s(lp740
(g9
I0
tp741
atp742
a(S'costui'
p743
(dp744
S'PRON'
p745
F1.0
s(lp746
(g16
I1
tp747
atp748
a(S'ritiene'
p749
(dp750
S'VERB'
p751
F1.0
s(lp752
(g23
I2
tp753
atp754
a(S'che'
p755
(dp756
S'PRON'
p757
F0.86208
sS'CONJ'
p758
F0.137494
sS'ADJ'
p759
F0.000427
s(lp760
(g32
I3
tp761
atp762
a(S"l'"
p763
(dp764
S'NOUN'
p765
F0.00217
sS'VERB'
p766
F0.9889040000000001
sS'ADJ'
p767
F0.008924
s(lp768
(g41
I4
tp769
atp770
a(S'unione'
p771
(dp772
S'NOUN'
p773
F1.0
s(lp774
tp775
a(S'europea'
p776
(dp777
S'NOUN'
p778
F0.003857
sS'ADJ'
p779
F0.996143
s(lp780
(g54
I5
tp781
atp782
a(S'vale'
p783
(dp784
S'X'
p785
F6e-06
sS'VERB'
p786
F0.998411
sS'NOUN'
p787
F0.001583
s(lp788
(g61
I6
tp789
atp790
a(S'quello'
p791
(dp792
S'PRON'
p793
F1.0
s(lp794
(g82
I7
tp795
atp796
a(S'che'
p797
(dp798
S'PRON'
p799
F0.977202
sS'CONJ'
p800
F0.004335
sS'ADJ'
p801
F0.018463
s(lp802
(g256
I8
tp803
atp804
a(S'costa'
p805
(dp806
S'VERB'
p807
F0.651141
sS'NOUN'
p808
F0.348859
s(lp809
(g90
I9
tp810
atp811
a(g93
(dp812
g95
F1.0
s(lp813
(g93
I10
tp814
atp815
a(S'dovrebbe'
p816
(dp817
S'VERB'
p818
F1.0
s(lp819
(g110
I12
tp820
atp821
a(S'accettare'
p822
(dp823
S'VERB'
p824
F1.0
s(lp825
(g281
I13
tp826
atp827
a(S'il'
p828
(dp829
S'DET'
p830
F1.0
s(lp831
tp832
a(S'mio'
p833
(dp834
S'PRON'
p835
F1.0
s(lp836
(g122
I14
tp837
atp838
a(S'invito'
p839
(dp840
S'VERB'
p841
F3.4e-05
sS'NOUN'
p842
F0.999966
s(lp843
(g129
I15
tp844
atp845
a(S'a'
p846
(dp847
S'CONJ'
p848
F0.000335
sS'ADP'
p849
F0.999665
s(lp850
tp851
a(S'commissionare'
p852
(dp853
S'VERB'
p854
F1.0
s(lp855
(g143
I17
tp856
atp857
a(S"un'"
p858
(dp859
S'PRON'
p860
F0.006833
sS'DEF'
p861
F0.993167
s(lp862
(g152
I18
tp863
atp864
a(S'analisi'
p865
(dp866
S'NOUN'
p867
F1.0
s(lp868
(g160
I21
tp869
atp870
a(S'indipendente'
p871
(dp872
S'NOUN'
p873
F0.020937
sS'ADJ'
p874
F0.979063
s(lp875
(g168
I19
tp876
atp877
a(S'costi-benefici'
p878
(dp879
S'ADJ'
p880
F0.176726
sS'VERB'
p881
F0.040923999999999995
sS'NOUN'
p882
F0.782349
s(lp883
(g176
I20
tp884
atp885
a(S'per'
p886
(dp887
S'CONJ'
p888
F0.005316
sS'ADP'
p889
F0.994684
s(lp890
(g184
I22
tp891
atp892
a(S'dimostrarlo'
p893
(dp894
S'VERB'
p895
F1.0
s(lp896
(g199
I23
tp897
atp898
a(g95
(dp899
g95
F1.0
s(lp900
(g95
I25
tp901
atp902
asS'sk'
p903
(lp904
(S'ak'
p905
(dp906
g785
F0.0034029999999999998
sS'CONJ'
p907
F0.996598
s(lp908
(g9
I0
tp909
atp910
a(S'si'
p911
(dp912
S'PRT'
p913
F0.999754
sS'VERB'
p914
F0.000245
sg785
F1e-06
s(lp915
tp916
a(S'mysl\xc3\xad'
p917
(dp918
S'VERB'
p919
F0.999205
sS'NOUN'
p920
F0.000795
s(lp921
(g23
I2
tp922
atp923
a(g93
(dp924
g95
F1.0
s(lp925
tp926
a(S'\xc5\xbee'
p927
(dp928
g785
F0.000496
sS'CONJ'
p929
F0.999504
s(lp930
(g32
I3
tp931
atp932
a(S'eur\xc3\xb3pska'
p933
(dp934
S'ADJ'
p935
F1.0
s(lp936
(g41
I4
tp937
atp938
a(S'\xc3\xbania'
p939
(dp940
S'NOUN'
p941
F1.0
s(lp942
(g54
I5
tp943
atp944
a(S's\xc3\xba'
p945
(dp946
S'VERB'
p947
F1.0
s(lp948
(g61
I6
tp949
atp950
a(S'dobre'
p951
(dp952
S'ADV'
p953
F0.984338
sg785
F0.015411
sS'NOUN'
p954
F0.000251
s(lp955
(g176
I20
tp956
atp957
a(S'vynalo\xc5\xbeen\xc3\xa9'
p958
(dp959
S'VERB'
p960
F1.0
s(lp961
(g176
I20
tp962
atp963
a(S'pe\xc5\x88a\xc5\xben\xc3\xa9'
p964
(dp965
S'ADJ'
p966
F1.0
s(lp967
(g176
I20
tp968
atp969
a(S'prostriedky'
p970
(dp971
S'NOUN'
p972
F1.0
s(lp973
(g90
I9
tp974
atp975
a(g93
(dp976
g95
F1.0
s(lp977
(g93
I10
tp978
atp979
a(S'mal'
p980
(dp981
g785
F0.000344
sS'VERB'
p982
F0.9996550000000001
s(lp983
tp984
a(S'by'
p985
(dp986
S'PRT'
p987
F0.999572
sg785
F0.000429
s(lp988
(g110
I12
tp989
atp990
a(S'prija\xc5\xa5'
p991
(dp992
S'VERB'
p993
F1.0
s(lp994
(g281
I13
tp995
atp996
a(S'moju'
p997
(dp998
S'PRON'
p999
F1.0
s(lp1000
(g122
I14
tp1001
atp1002
a(S'v\xc3\xbdzvu'
p1003
(dp1004
S'NOUN'
p1005
F1.0
s(lp1006
(g129
I15
tp1007
atp1008
a(g846
(dp1009
g785
F0.0026279999999999997
sS'CONJ'
p1010
F0.996881
sS'NOUN'
p1011
F0.000221
sS'ADP'
p1012
F0.0
sS'PRT'
p1013
F0.000268
s(lp1014
(g136
I16
tp1015
atp1016
a(S'predlo\xc5\xbei\xc5\xa5'
p1017
(dp1018
S'VERB'
p1019
F1.0
s(lp1020
(g143
I17
tp1021
atp1022
a(S'nez\xc3\xa1visl\xc3\xba'
p1023
(dp1024
S'ADJ'
p1025
F1.0
s(lp1026
(g168
I19
tp1027
atp1028
a(S'anal\xc3\xbdzu'
p1029
(dp1030
S'NOUN'
p1031
F1.0
s(lp1032
(g160
I21
tp1033
atp1034
a(S'n\xc3\xa1kladov'
p1035
(dp1036
S'NOUN'
p1037
F1.0
s(lp1038
(g176
I20
tp1039
atp1040
a(g846
(dp1041
g785
F0.000697
sS'CONJ'
p1042
F0.998698
sS'NOUN'
p1043
F5.7e-05
sS'ADP'
p1044
F0.000484
sS'PRT'
p1045
F6.4e-05
s(lp1046
(g176
I20
tp1047
atp1048
a(S'v\xc3\xbdnosov'
p1049
(dp1050
S'NOUN'
p1051
F1.0
s(lp1052
(g176
I20
tp1053
atp1054
a(g93
(dp1055
g95
F1.0
s(lp1056
tp1057
a(S'aby'
p1058
(dp1059
g785
F8.6e-05
sS'CONJ'
p1060
F0.999913
s(lp1061
(g184
I22
tp1062
atp1063
a(S'tak'
p1064
(dp1065
S'PRON'
p1066
F0.824306
sS'CONJ'
p1067
F0.015327
sg785
F0.160367
s(lp1068
tp1069
a(S'podlo\xc5\xbeil'
p1070
(dp1071
S'VERB'
p1072
F1.0
s(lp1073
tp1074
a(S'svoje'
p1075
(dp1076
S'PRON'
p1077
F1.0
s(lp1078
(g176
I20
tp1079
atp1080
a(S'tvrdenie'
p1081
(dp1082
S'NOUN'
p1083
F1.0
s(lp1084
(g199
I23
tp1085
atp1086
a(g95
(dp1087
g95
F1.0
s(lp1088
(g95
I25
tp1089
atp1090
asS'pl'
p1091
(lp1092
(S'je\xc5\xbceli'
p1093
(dp1094
S'CONJ'
p1095
F1.0
s(lp1096
(g9
I0
tp1097
atp1098
a(S'uwa\xc5\xbca'
p1099
(dp1100
S'VERB'
p1101
F1.0
s(lp1102
(g23
I2
tp1103
atp1104
a(g93
(dp1105
g785
F0.0
sg95
F1.0
s(lp1106
tp1107
a(S'\xc5\xbce'
p1108
(dp1109
S'PRT'
p1110
F0.000182
sS'CONJ'
p1111
F0.999818
s(lp1112
tp1113
a(S'cz\xc5\x82onkostwo'
p1114
(dp1115
S'NOUN'
p1116
F1.0
s(lp1117
(g23
I2
tp1118
atp1119
a(S'w'
p1120
(dp1121
S'NOUN'
p1122
F2.9e-05
sS'ADJ'
p1123
F0.000273
sS'ADP'
p1124
F0.9996820000000001
sg785
F1.8e-05
s(lp1125
(g41
I4
tp1126
atp1127
a(S'ue'
p1128
(dp1129
S'ADJ'
p1130
F4e-06
sS'VERB'
p1131
F1e-06
sS'NOUN'
p1132
F0.9999929999999999
s(lp1133
(g54
I5
tp1134
atp1135
a(S'jest'
p1136
(dp1137
S'VERB'
p1138
F1.0
s(lp1139
(g61
I6
tp1140
atp1141
a(S'dla'
p1142
(dp1143
S'ADP'
p1144
F1.0
s(lp1145
(g256
I8
tp1146
atp1147
a(S'wielkiej'
p1148
(dp1149
S'ADJ'
p1150
F1.0
s(lp1151
(g176
I20
tp1152
atp1153
a(S'brytanii'
p1154
(dp1155
S'VERB'
p1156
F6.6e-05
sS'NOUN'
p1157
F0.9999350000000001
s(lp1158
(g176
I20
tp1159
atp1160
a(S'op\xc5\x82acalne'
p1161
(dp1162
S'ADJ'
p1163
F1.0
s(lp1164
(g176
I20
tp1165
atp1166
a(g93
(dp1167
g785
F0.0
sg95
F1.0
s(lp1168
(g93
I10
tp1169
atp1170
a(S'powinien'
p1171
(dp1172
S'VERB'
p1173
F1.0
s(lp1174
(g110
I12
tp1175
atp1176
a(S'podj\xc4\x85\xc4\x87'
p1177
(dp1178
S'VERB'
p1179
F1.0
s(lp1180
(g281
I13
tp1181
atp1182
a(S'wyzwanie'
p1183
(dp1184
S'NOUN'
p1185
F1.0
s(lp1186
(g129
I15
tp1187
atp1188
a(S'i'
p1189
(dp1190
S'PRT'
p1191
F0.010733
sS'CONJ'
p1192
F0.989152
sS'NOUN'
p1193
F1.7e-05
sg785
F2.3e-05
sS'PRON'
p1194
F7.599999999999999e-05
s(lp1195
(g136
I16
tp1196
atp1197
a(S'zleci\xc4\x87'
p1198
(dp1199
S'VERB'
p1200
F1.0
s(lp1201
(g176
I20
tp1202
atp1203
a(S'niezale\xc5\xbcn\xc4\x85'
p1204
(dp1205
S'ADJ'
p1206
F1.0
s(lp1207
(g168
I19
tp1208
atp1209
a(S'analiz\xc4\x99'
p1210
(dp1211
S'NOUN'
p1212
F1.0
s(lp1213
(g160
I21
tp1214
atp1215
a(S'koszt\xc3\xb3w'
p1216
(dp1217
S'NOUN'
p1218
F1.0
s(lp1219
(g176
I20
tp1220
atp1221
a(g1189
(dp1222
S'PRT'
p1223
F0.000783
sS'CONJ'
p1224
F0.999194
sS'PRON'
p1225
F4e-06
sS'NOUN'
p1226
F9e-06
sg785
F1e-05
s(lp1227
tp1228
a(S'korzy\xc5\x9bci'
p1229
(dp1230
S'NOUN'
p1231
F1.0
s(lp1232
(g176
I20
tp1233
atp1234
a(g93
(dp1235
g785
F0.0
sg95
F1.0
s(lp1236
tp1237
a(S'aby'
p1238
(dp1239
S'PRT'
p1240
F0.00155
sS'CONJ'
p1241
F0.99845
s(lp1242
(g184
I22
tp1243
atp1244
a(S'to'
p1245
(dp1246
S'NOUN'
p1247
F0.018682999999999998
sS'ADP'
p1248
F0.0
sS'PRT'
p1249
F0.013369
sg785
F0.0
sS'CONJ'
p1250
F0.000699
sS'ADJ'
p1251
F0.9672489999999999
s(lp1252
(g192
I24
tp1253
atp1254
a(S'udowodni\xc4\x87'
p1255
(dp1256
S'VERB'
p1257
F1.0
s(lp1258
(g199
I23
tp1259
atp1260
a(g95
(dp1261
g95
F1.0
s(lp1262
(g95
I25
tp1263
atp1264
asS'sl'
p1265
(lp1266
(S'\xc4\x8ce'
p1267
(dp1268
S'CONJ'
p1269
F1.0
s(lp1270
(g9
I0
tp1271
atp1272
a(S'meni'
p1273
(dp1274
S'PRON'
p1275
F0.041915
sS'VERB'
p1276
F0.841256
sS'NOUN'
p1277
F0.116829
s(lp1278
(g23
I2
tp1279
atp1280
a(g93
(dp1281
g95
F1.0
s(lp1282
tp1283
a(S'da'
p1284
(dp1285
S'PRT'
p1286
F4e-06
sS'CONJ'
p1287
F0.999979
sS'VERB'
p1288
F1.7e-05
sg785
F1e-06
s(lp1289
(g32
I3
tp1290
atp1291
a(S'je'
p1292
(dp1293
S'PRON'
p1294
F0.020283
sS'VERB'
p1295
F0.979707
sg785
F1e-05
s(lp1296
(g61
I6
tp1297
atp1298
a(S'eu'
p1299
(dp1300
S'ADV'
p1301
F0.223128
sS'ADJ'
p1302
F0.196545
sS'VERB'
p1303
F0.109574
sS'NOUN'
p1304
F0.470754
s(lp1305
(g54
I5
tp1306
atp1307
a(S'stro\xc5\xa1kovno'
p1308
(dp1309
S'ADV'
p1310
F0.806254
sS'NOUN'
p1311
F0.053746
sS'VERB'
p1312
F0.01781
sS'ADJ'
p1313
F0.12218799999999999
s(lp1314
(g82
I7
tp1315
atp1316
a(S'u\xc4\x8dinkovita'
p1317
(dp1318
S'ADJ'
p1319
F1.0
s(lp1320
(g90
I9
tp1321
atp1322
a(g93
(dp1323
g95
F1.0
s(lp1324
(g93
I10
tp1325
atp1326
a(S'bi'
p1327
(dp1328
g785
F9.4e-05
sS'VERB'
p1329
F0.999906
s(lp1330
tp1331
a(S'moral'
p1332
(dp1333
S'VERB'
p1334
F1.0
s(lp1335
(g110
I12
tp1336
atp1337
a(S'sprejeti'
p1338
(dp1339
S'VERB'
p1340
F0.984562
sS'ADJ'
p1341
F0.015437000000000001
s(lp1342
(g281
I13
tp1343
atp1344
a(S'izziv'
p1345
(dp1346
S'NOUN'
p1347
F1.0
s(lp1348
(g129
I15
tp1349
atp1350
a(S'in'
p1351
(dp1352
S'ADV'
p1353
F0.000365
sg785
F2.3e-05
sS'CONJ'
p1354
F0.999566
sS'NOUN'
p1355
F4.6e-05
s(lp1356
(g136
I16
tp1357
atp1358
a(S'naro\xc4\x8diti'
p1359
(dp1360
S'VERB'
p1361
F1.0
s(lp1362
(g143
I17
tp1363
atp1364
a(S'neodvisno'
p1365
(dp1366
S'ADV'
p1367
F0.001414
sS'ADJ'
p1368
F0.998586
s(lp1369
(g168
I19
tp1370
atp1371
a(S'analizo'
p1372
(dp1373
S'NOUN'
p1374
F1.0
s(lp1375
(g160
I21
tp1376
atp1377
a(S'stro\xc5\xa1kov'
p1378
(dp1379
S'NOUN'
p1380
F1.0
s(lp1381
(g176
I20
tp1382
atp1383
a(S'in'
p1384
(dp1385
S'ADV'
p1386
F8.1e-05
sg785
F9e-06
sS'CONJ'
p1387
F0.999883
sS'NOUN'
p1388
F2.7e-05
s(lp1389
tp1390
a(S'koristi'
p1391
(dp1392
S'VERB'
p1393
F0.249694
sS'NOUN'
p1394
F0.7503059999999999
s(lp1395
(g176
I20
tp1396
atp1397
a(g93
(dp1398
g95
F1.0
s(lp1399
tp1400
a(S'ki'
p1401
(dp1402
S'CONJ'
p1403
F1.0
s(lp1404
tp1405
a(S'bi'
p1406
(dp1407
g785
F2e-06
sS'VERB'
p1408
F0.999998
s(lp1409
(g184
I22
tp1410
atp1411
a(S'to'
p1412
(dp1413
S'PRON'
p1414
F0.9999630000000002
sg785
F3.7e-05
s(lp1415
(g192
I24
tp1416
atp1417
a(S'potrdila'
p1418
(dp1419
S'VERB'
p1420
F0.654156
sS'NOUN'
p1421
F0.345844
s(lp1422
(g199
I23
tp1423
atp1424
a(g95
(dp1425
g95
F1.0
s(lp1426
(g95
I25
tp1427
atp1428
asS'es'
p1429
(lp1430
(S'si'
p1431
(dp1432
S'CONJ'
p1433
F0.999886
sS'NOUN'
p1434
F0.000114
s(lp1435
(g9
I0
tp1436
atp1437
a(S'piensa'
p1438
(dp1439
S'VERB'
p1440
F1.0
s(lp1441
(g23
I2
tp1442
atp1443
a(S'que'
p1444
(dp1445
g785
F0.0
sS'CONJ'
p1446
F1.0
s(lp1447
(g32
I3
tp1448
atp1449
a(S'la'
p1450
(dp1451
S'PRON'
p1452
F0.000437
sS'DET'
p1453
F0.999562
sg785
F0.0
sS'NOUN'
p1454
F0.0
s(lp1455
(g41
I4
tp1456
atp1457
a(S'ue'
p1458
(dp1459
S'VERB'
p1460
F0.000115
sS'NOUN'
p1461
F0.999885
s(lp1462
(g54
I5
tp1463
atp1464
a(S'vale'
p1465
(dp1466
S'ADV'
p1467
F0.022524
sS'VERB'
p1468
F0.977248
sS'NOUN'
p1469
F0.000228
s(lp1470
(g82
I7
tp1471
atp1472
a(S'lo'
p1473
(dp1474
S'PRON'
p1475
F0.011624
sS'DET'
p1476
F0.988376
s(lp1477
tp1478
a(S'que'
p1479
(dp1480
g785
F2e-06
sS'CONJ'
p1481
F0.999998
s(lp1482
(g256
I8
tp1483
atp1484
a(S'cuesta'
p1485
(dp1486
S'VERB'
p1487
F0.999494
sS'NOUN'
p1488
F0.000506
s(lp1489
(g90
I9
tp1490
atp1491
a(g93
(dp1492
g95
F1.0
s(lp1493
(g93
I10
tp1494
atp1495
a(S'deber\xc3\xada'
p1496
(dp1497
S'VERB'
p1498
F1.0
s(lp1499
(g110
I12
tp1500
atp1501
a(S'aceptar'
p1502
(dp1503
S'VERB'
p1504
F1.0
s(lp1505
(g281
I13
tp1506
atp1507
a(S'mi'
p1508
(dp1509
S'PRON'
p1510
F1.0
s(lp1511
(g122
I14
tp1512
atp1513
a(S'reto'
p1514
(dp1515
S'NOUN'
p1516
F1.0
s(lp1517
(g129
I15
tp1518
atp1519
a(S'y'
p1520
(dp1521
g785
F4.5e-05
sS'CONJ'
p1522
F0.999955
s(lp1523
(g136
I16
tp1524
atp1525
a(S'encargar'
p1526
(dp1527
S'VERB'
p1528
F1.0
s(lp1529
(g143
I17
tp1530
atp1531
a(S'un'
p1532
(dp1533
g785
F3e-06
sS'DET'
p1534
F0.999997
s(lp1535
(g152
I18
tp1536
atp1537
a(S'an\xc3\xa1lisis'
p1538
(dp1539
S'NOUN'
p1540
F1.0
s(lp1541
(g160
I21
tp1542
atp1543
a(S'independiente'
p1544
(dp1545
S'ADJ'
p1546
F1.0
s(lp1547
(g168
I19
tp1548
atp1549
a(S'de'
p1550
(dp1551
g785
F8.1e-05
sS'CONJ'
p1552
F0.001692
sS'ADP'
p1553
F0.998227
s(lp1554
tp1555
a(S'costes-beneficios'
p1556
(dp1557
S'ADJ'
p1558
F0.172608
sS'VERB'
p1559
F2e-05
sS'NOUN'
p1560
F0.827372
s(lp1561
(g176
I20
tp1562
atp1563
a(S'para'
p1564
(dp1565
S'CONJ'
p1566
F0.908794
sS'ADP'
p1567
F0.091206
s(lp1568
(g184
I22
tp1569
atp1570
a(S'demostrarlo'
p1571
(dp1572
S'VERB'
p1573
F1.0
s(lp1574
(g199
I23
tp1575
atp1576
a(g95
(dp1577
g95
F1.0
s(lp1578
(g95
I25
tp1579
atp1580
as.