(dp0
S'fr'
p1
(lp2
(S'il'
p3
(dp4
S'PRON'
p5
F1.0
s(lp6
(S'there'
p7
I0
tp8
atp9
a(S'est'
p10
(dp11
S'VERB'
p12
F0.999978
sS'NOUN'
p13
F2.2e-05
s(lp14
(S'is'
p15
I1
tp16
atp17
a(S'urgent'
p18
(dp19
S'ADJ'
p20
F1.0
s(lp21
(S'urgent'
p22
I3
tp23
atp24
a(S'que'
p25
(dp26
S'ADV'
p27
F0.002859
sS'PRON'
p28
F0.0792
sS'CONJ'
p29
F0.917941
s(lp30
(S'by'
p31
I9
tp32
atp33
a(S'les'
p34
(dp35
S'PRON'
p36
F0.000585
sS'DET'
p37
F0.999402
sS'ADP'
p38
F1.3e-05
s(lp39
(S'the'
p40
I10
tp41
atp42
a(S'syndicats'
p43
(dp44
S'NOUN'
p45
F1.0
s(lp46
(S'trade'
p47
I14
tp48
atp49
a(S'europ\xc3\xa9ens'
p50
(dp51
S'NOUN'
p52
F0.009609
sS'ADJ'
p53
F0.990391
s(lp54
(S'european'
p55
I11
tp56
atp57
a(S'et'
p58
(dp59
S'CONJ'
p60
F1.0
s(lp61
(S'and'
p62
I12
tp63
atp64
a(S'canadiens'
p65
(dp66
S'NOUN'
p67
F0.082824
sS'ADJ'
p68
F0.917176
s(lp69
(S'canadian'
p70
I13
tp71
atp72
a(S','
p73
(dp74
S'.'
p75
F1.0
s(lp76
(g73
I17
tp77
atp78
a(S'ainsi'
p79
(dp80
S'ADV'
p81
F0.405534
sS'CONJ'
p82
F0.594466
s(lp83
tp84
a(S'que'
p85
(dp86
S'ADV'
p87
F0.02728
sS'PRON'
p88
F0.140681
sS'CONJ'
p89
F0.832039
s(lp90
(S'with'
p91
I18
tp92
atp93
a(S'les'
p94
(dp95
S'PRON'
p96
F0.001862
sS'DET'
p97
F0.998112
sS'ADP'
p98
F2.5e-05
s(lp99
tp100
a(S'militants'
p101
(dp102
S'ADJ'
p103
F1.0
s(lp104
tp105
a(S'environnementaux'
p106
(dp107
S'ADJ'
p108
F1.0
s(lp109
(S'environmental'
p110
I19
tp111
atp112
a(S'et'
p113
(dp114
S'CONJ'
p115
F1.0
s(lp116
(S'and'
p117
I20
tp118
atp119
a(S'des'
p120
(dp121
S'DET'
p122
F0.000167
sS'ADP'
p123
F0.999833
s(lp124
tp125
a(S'premi\xc3\xa8res'
p126
(dp127
S'NUM'
p128
F0.999846
sS'NOUN'
p129
F0.000154
s(lp130
(S'indigenous'
p131
I21
tp132
atp133
a(S'nations'
p134
(dp135
S'NOUN'
p136
F1.0
s(lp137
(S'activists'
p138
I22
tp139
atp140
a(S"s'"
p141
(dp142
S'NOUN'
p143
F0.032441
sS'VERB'
p144
F0.694014
sS'ADJ'
p145
F0.273544
s(lp146
(S'to'
p147
I24
tp148
atp149
a(S'unissent'
p150
(dp151
S'VERB'
p152
F1.000001
s(lp153
(S'together'
p154
I26
tp155
atp156
a(S'et'
p157
(dp158
S'CONJ'
p159
F1.0
s(lp160
(S'and'
p161
I27
tp162
atp163
a(S'agissent'
p164
(dp165
S'VERB'
p166
F1.0
s(lp167
(S'action'
p168
I8
tp169
atp170
a(S'pour'
p171
(dp172
S'CONJ'
p173
F0.051716
sS'ADP'
p174
F0.948284
s(lp175
(S'for'
p176
I6
tp177
atp178
a(S'r\xc3\xa9sister'
p179
(dp180
S'VERB'
p181
F1.0
s(lp182
tp183
a(S'\xc3\xa0'
p184
(dp185
S'ADP'
p186
F1.0
s(lp187
(S'resist'
p188
I28
tp189
atp190
a(S"l'"
p191
(dp192
S'ADJ'
p193
F0.160704
sS'VERB'
p194
F0.06480800000000002
sS'NOUN'
p195
F0.774488
s(lp196
(S'this'
p197
I29
tp198
atp199
a(S'accord'
p200
(dp201
S'NOUN'
p202
F1.0
s(lp203
(S'agreement'
p204
I31
tp205
atp206
a(S'propos\xc3\xa9'
p207
(dp208
S'VERB'
p209
F1.0
s(lp210
(S'proposed'
p211
I30
tp212
atp213
a(g75
(dp214
g75
F1.0
s(lp215
(g75
I32
tp216
atp217
asS'en'
p218
(lp219
(g7
(dp220
S'ADV'
p221
F0.001099
sS'ADJ'
p222
F0.0
sS'DET'
p223
F0.998901
sS'ADP'
p224
F0.0
s(lp225
(g7
I0
tp226
atp227
a(g15
(dp228
S'VERB'
p229
F1.0
s(lp230
(g15
I1
tp231
atp232
a(S'an'
p233
(dp234
S'DET'
p235
F1.0
s(lp236
(g233
I2
tp237
atp238
a(g22
(dp239
S'ADJ'
p240
F1.0
s(lp241
(g22
I3
tp242
atp243
a(S'need'
p244
(dp245
S'VERB'
p246
F0.24949799999999997
sS'NOUN'
p247
F0.750502
s(lp248
(g244
I4
tp249
atp250
a(S'now'
p251
(dp252
S'ADV'
p253
F0.999564
sS'NOUN'
p254
F4.3e-05
sS'ADP'
p255
F0.000392
s(lp256
(g251
I5
tp257
atp258
a(g176
(dp259
S'ADP'
p260
F1.0
s(lp261
(g176
I6
tp262
atp263
a(S'united'
p264
(dp265
S'VERB'
p266
F0.408088
sS'ADJ'
p267
F0.591912
s(lp268
(g264
I7
tp269
atp270
a(g168
(dp271
S'NOUN'
p272
F1.0
s(lp273
(g168
I8
tp274
atp275
a(g31
(dp276
S'ADV'
p277
F7.2e-05
sS'NOUN'
p278
F0.0
sS'ADP'
p279
F0.999928
s(lp280
(g31
I9
tp281
atp282
a(g40
(dp283
S'NOUN'
p284
F2e-06
sS'DET'
p285
F0.999998
s(lp286
(g40
I10
tp287
atp288
a(g55
(dp289
S'ADJ'
p290
F0.488124
sS'VERB'
p291
F1.3000000000000001e-05
sS'NOUN'
p292
F0.511863
s(lp293
(g55
I11
tp294
atp295
a(g62
(dp296
S'CONJ'
p297
F0.999998
sS'NOUN'
p298
F2e-06
s(lp299
(g62
I12
tp300
atp301
a(g70
(dp302
S'NOUN'
p303
F0.034995
sS'ADJ'
p304
F0.965005
s(lp305
(g70
I13
tp306
atp307
a(g47
(dp308
S'VERB'
p309
F0.000851
sS'NOUN'
p310
F0.999149
s(lp311
(g47
I14
tp312
atp313
a(S'union'
p314
(dp315
S'NOUN'
p316
F1.0
s(lp317
(g314
I15
tp318
atp319
a(S'movement'
p320
(dp321
S'NOUN'
p322
F1.0
s(lp323
(g320
I16
tp324
atp325
a(g73
(dp326
g75
F1.0
s(lp327
(g73
I17
tp328
atp329
a(g91
(dp330
S'ADP'
p331
F1.0
s(lp332
(g91
I18
tp333
atp334
a(g110
(dp335
S'ADJ'
p336
F1.0
s(lp337
(g110
I19
tp338
atp339
a(g117
(dp340
S'CONJ'
p341
F0.999998
sS'NOUN'
p342
F2e-06
s(lp343
(g117
I20
tp344
atp345
a(g131
(dp346
S'ADJ'
p347
F1.0
s(lp348
(g131
I21
tp349
atp350
a(g138
(dp351
S'NOUN'
p352
F1.0
s(lp353
(g138
I22
tp354
atp355
a(g73
(dp356
g75
F1.0
s(lp357
(g73
I23
tp358
atp359
a(g147
(dp360
S'ADV'
p361
F1e-06
sS'PRT'
p362
F0.999999
sS'ADP'
p363
F0.0
s(lp364
(g147
I24
tp365
atp366
a(S'fight'
p367
(dp368
S'VERB'
p369
F0.995779
sS'NOUN'
p370
F0.004221
s(lp371
(g367
I25
tp372
atp373
a(g154
(dp374
S'ADV'
p375
F1.0
s(lp376
(g154
I26
tp377
atp378
a(g161
(dp379
S'CONJ'
p380
F0.999995
sS'NOUN'
p381
F5e-06
s(lp382
(g161
I27
tp383
atp384
a(g188
(dp385
S'VERB'
p386
F0.9993869999999999
sS'NOUN'
p387
F0.000614
s(lp388
(g188
I28
tp389
atp390
a(g197
(dp391
S'ADV'
p392
F0.000926
sS'NOUN'
p393
F5.5e-05
sS'DET'
p394
F0.999019
s(lp395
(g197
I29
tp396
atp397
a(g211
(dp398
S'VERB'
p399
F0.924895
sS'ADJ'
p400
F0.075105
s(lp401
(g211
I30
tp402
atp403
a(g204
(dp404
S'NOUN'
p405
F1.0
s(lp406
(g204
I31
tp407
atp408
a(g75
(dp409
g75
F1.0
s(lp410
(g75
I32
tp411
atp412
asS'nl'
p413
(lp414
(S'de'
p415
(dp416
S'DET'
p417
F1.0
s(lp418
(g40
I10
tp419
atp420
a(S'europese'
p421
(dp422
S'NOUN'
p423
F1.0
s(lp424
(g55
I11
tp425
atp426
a(S'en'
p427
(dp428
S'CONJ'
p429
F1.0
s(lp430
(g62
I12
tp431
atp432
a(S'canadese'
p433
(dp434
S'NOUN'
p435
F0.012559
sS'ADJ'
p436
F0.987441
s(lp437
tp438
a(S'vakbewegingen'
p439
(dp440
S'NOUN'
p441
F1.0
s(lp442
(g70
I13
tp443
atp444
a(S'moeten'
p445
(dp446
S'VERB'
p447
F0.999995
sS'NOUN'
p448
F4e-06
s(lp449
(g244
I4
tp450
atp451
a(S'nu'
p452
(dp453
S'ADV'
p454
F0.973777
sS'CONJ'
p455
F0.026211
sS'NOUN'
p456
F1.2e-05
s(lp457
(g251
I5
tp458
atp459
a(S'dringend'
p460
(dp461
S'VERB'
p462
F0.050965
sS'ADJ'
p463
F0.949035
s(lp464
(g22
I3
tp465
atp466
a(S'eendrachtig'
p467
(dp468
S'ADJ'
p469
F1.0
s(lp470
(g264
I7
tp471
atp472
a(S'actie'
p473
(dp474
S'NOUN'
p475
F1.0
s(lp476
tp477
a(S'ondernemen'
p478
(dp479
S'VERB'
p480
F0.998772
sS'NOUN'
p481
F0.001228
s(lp482
(g168
I8
tp483
atp484
a(g73
(dp485
g75
F1.0
s(lp486
(g73
I17
tp487
atp488
a(S'samen'
p489
(dp490
S'ADV'
p491
F1.0
s(lp492
tp493
a(S'met'
p494
(dp495
S'ADP'
p496
F1.0
s(lp497
(g91
I18
tp498
atp499
a(S'milieubeschermers'
p500
(dp501
S'NOUN'
p502
F1.0
s(lp503
(g110
I19
tp504
atp505
a(S'en'
p506
(dp507
S'CONJ'
p508
F1.0
s(lp509
(g117
I20
tp510
atp511
a(S'mensen'
p512
(dp513
S'NOUN'
p514
F1.0
s(lp515
(g131
I21
tp516
atp517
a(S'die'
p518
(dp519
S'PRON'
p520
F1.0
s(lp521
(g31
I9
tp522
atp523
a(S'opkomen'
p524
(dp525
S'VERB'
p526
F0.995775
sS'NOUN'
p527
F0.004225
s(lp528
tp529
a(S'voor'
p530
(dp531
S'ADV'
p532
F0.012712
sS'CONJ'
p533
F1e-05
sS'NOUN'
p534
F0.0
sS'ADP'
p535
F0.987277
s(lp536
(g176
I6
tp537
atp538
a(S'de'
p539
(dp540
S'DET'
p541
F1.0
s(lp542
tp543
a(S'belangen'
p544
(dp545
S'NOUN'
p546
F1.0
s(lp547
tp548
a(S'van'
p549
(dp550
S'ADP'
p551
F1.0
s(lp552
tp553
a(S'de'
p554
(dp555
S'DET'
p556
F1.0
s(lp557
tp558
a(S'inheemse'
p559
(dp560
S'NOUN'
p561
F0.000209
sS'ADJ'
p562
F0.999791
s(lp563
(g131
I21
tp564
atp565
a(S'volken'
p566
(dp567
S'NOUN'
p568
F1.0
s(lp569
(g138
I22
tp570
atp571
a(g73
(dp572
g75
F1.0
s(lp573
(g73
I23
tp574
atp575
a(S'om'
p576
(dp577
S'ADV'
p578
F0.013779
sS'CONJ'
p579
F0.97009
sS'ADP'
p580
F0.016131
s(lp581
(g147
I24
tp582
atp583
a(S'samen'
p584
(dp585
S'ADV'
p586
F1.0
s(lp587
(g154
I26
tp588
atp589
a(S'deze'
p590
(dp591
S'PRON'
p592
F1.0
s(lp593
(g197
I29
tp594
atp595
a(S'voorgestelde'
p596
(dp597
S'VERB'
p598
F0.998094
sS'NOUN'
p599
F0.001906
s(lp600
(g211
I30
tp601
atp602
a(S'overeenkomst'
p603
(dp604
S'NOUN'
p605
F1.0
s(lp606
(g204
I31
tp607
atp608
a(S'te'
p609
(dp610
S'PRT'
p611
F1.0
s(lp612
tp613
a(S'bestrijden'
p614
(dp615
S'VERB'
p616
F0.9999979999999999
sS'NOUN'
p617
F2e-06
s(lp618
(g367
I25
tp619
atp620
a(S'en'
p621
(dp622
S'CONJ'
p623
F1.0
s(lp624
(g161
I27
tp625
atp626
a(S'tegen'
p627
(dp628
S'ADV'
p629
F0.88939
sS'ADP'
p630
F0.11061
s(lp631
tp632
a(S'te'
p633
(dp634
S'PRT'
p635
F1.0
s(lp636
(g147
I24
tp637
atp638
a(S'houden'
p639
(dp640
S'VERB'
p641
F1.0
sS'NOUN'
p642
F0.0
s(lp643
(g188
I28
tp644
atp645
a(g75
(dp646
g75
F1.0
s(lp647
(g75
I32
tp648
atp649
asS'de'
p650
(lp651
(S'es'
p652
(dp653
S'PRON'
p654
F1.0
s(lp655
(g7
I0
tp656
atp657
a(S'ist'
p658
(dp659
S'VERB'
p660
F1.0
s(lp661
(g15
I1
tp662
atp663
a(S'dringend'
p664
(dp665
S'ADJ'
p666
F1.0
s(lp667
(g22
I3
tp668
atp669
a(S'erforderlich'
p670
(dp671
S'ADJ'
p672
F1.0
s(lp673
(g244
I4
tp674
atp675
a(g73
(dp676
g75
F1.0
s(lp677
tp678
a(S'dass'
p679
(dp680
S'CONJ'
p681
F1.0
s(lp682
(g176
I6
tp683
atp684
a(S'die'
p685
(dp686
S'PRON'
p687
F0.002483
sS'DET'
p688
F0.997182
s(lp689
(g40
I10
tp690
atp691
a(S'gewerkschaftsbewegungen'
p692
(dp693
S'ADJ'
p694
F0.018317
sS'NOUN'
p695
F0.961524
s(lp696
tp697
a(S'in'
p698
(dp699
S'ADP'
p700
F1.0
s(lp701
(g31
I9
tp702
atp703
a(S'der'
p704
(dp705
S'PRON'
p706
F0.000159
sS'DET'
p707
F0.999827
s(lp708
(g47
I14
tp709
atp710
a(S'eu'
p711
(dp712
S'X'
p713
F0.137428
sS'ADJ'
p714
F0.772954
s(lp715
(g314
I15
tp716
atp717
a(S'und'
p718
(dp719
S'CONJ'
p720
F1.0
s(lp721
(g73
I17
tp722
atp723
a(S'in'
p724
(dp725
S'ADP'
p726
F1.0
s(lp727
tp728
a(S'kanada'
p729
(dp730
g713
F0.014345
sS'NOUN'
p731
F0.970996
s(lp732
(g70
I13
tp733
atp734
a(S'sich'
p735
(dp736
S'PRON'
p737
F1.0
s(lp738
tp739
a(S'mit'
p740
(dp741
S'PRT'
p742
F1.6e-05
sS'ADP'
p743
F0.999984
s(lp744
(g91
I18
tp745
atp746
a(S'umweltsch\xc3\xbctzern'
p747
(dp748
S'ADJ'
p749
F0.281701
sS'NOUN'
p750
F0.674898
s(lp751
(g110
I19
tp752
atp753
a(S'und'
p754
(dp755
S'CONJ'
p756
F1.0
s(lp757
(g117
I20
tp758
atp759
a(S'lokalen'
p760
(dp761
S'ADJ'
p762
F1.0
s(lp763
(g131
I21
tp764
atp765
a(S'aktivisten'
p766
(dp767
S'ADJ'
p768
F0.0003
sS'NOUN'
p769
F0.999683
s(lp770
tp771
a(S'zusammentun'
p772
(dp773
S'VERB'
p774
F1.0
s(lp775
(g138
I22
tp776
atp777
a(g73
(dp778
g75
F1.0
s(lp779
(g73
I23
tp780
atp781
a(S'gemeinsam'
p782
(dp783
S'ADJ'
p784
F1.0
s(lp785
(g154
I26
tp786
atp787
a(S'k\xc3\xa4mpfen'
p788
(dp789
S'VERB'
p790
F1.0
s(lp791
(g367
I25
tp792
atp793
a(S'und'
p794
(dp795
S'CONJ'
p796
F1.0
s(lp797
(g161
I27
tp798
atp799
a(S'sich'
p800
(dp801
S'PRON'
p802
F1.0
s(lp803
(g188
I28
tp804
atp805
a(S'gegen'
p806
(dp807
S'PRT'
p808
F0.0
sS'ADP'
p809
F1.0
s(lp810
tp811
a(S'das'
p812
(dp813
S'PRON'
p814
F0.006262
sS'DET'
p815
F0.993723
s(lp816
(g197
I29
tp817
atp818
a(S'geplante'
p819
(dp820
S'ADJ'
p821
F1.0
s(lp822
(g211
I30
tp823
atp824
a(S'abkommen'
p825
(dp826
S'VERB'
p827
F1.0
s(lp828
(g204
I31
tp829
atp830
a(S'wehren'
p831
(dp832
S'VERB'
p833
F1.0
s(lp834
(g188
I28
tp835
atp836
a(g75
(dp837
g75
F1.0
s(lp838
(g75
I32
tp839
atp840
asS'it'
p841
(lp842
(S'\xc3\x88'
p843
(dp844
S'VERB'
p845
F1.0
s(lp846
(g15
I1
tp847
atp848
a(S'necessario'
p849
(dp850
S'NOUN'
p851
F0.006165
sS'ADJ'
p852
F0.993835
s(lp853
(g244
I4
tp854
atp855
a(S'che'
p856
(dp857
S'PRON'
p858
F0.930773
sS'CONJ'
p859
F0.068799
sS'ADJ'
p860
F0.000428
s(lp861
(g176
I6
tp862
atp863
a(S'i'
p864
(dp865
S'DET'
p866
F1.0
s(lp867
(g40
I10
tp868
atp869
a(S'movimenti'
p870
(dp871
S'VERB'
p872
F0.000285
sS'NOUN'
p873
F0.999714
s(lp874
(g320
I16
tp875
atp876
a(S'sindacali'
p877
(dp878
S'VERB'
p879
F0.0
sS'ADJ'
p880
F1.0
s(lp881
(g47
I14
tp882
atp883
a(S'europei'
p884
(dp885
S'NOUN'
p886
F0.340767
sS'ADJ'
p887
F0.659233
s(lp888
(g55
I11
tp889
atp890
a(S'e'
p891
(dp892
S'CONJ'
p893
F1.0
s(lp894
(g62
I12
tp895
atp896
a(S'canadesi'
p897
(dp898
S'NOUN'
p899
F0.057161
sS'ADJ'
p900
F0.942839
s(lp901
tp902
a(S'sviluppino'
p903
(dp904
S'VERB'
p905
F1.0
s(lp906
(g70
I13
tp907
atp908
a(S"un'"
p909
(dp910
S'PRON'
p911
F0.01048
sS'DEF'
p912
F0.98952
s(lp913
tp914
a(S'azione'
p915
(dp916
S'NOUN'
p917
F1.0
s(lp918
(g168
I8
tp919
atp920
a(S'congiunta'
p921
(dp922
S'NOUN'
p923
F0.026461
sS'VERB'
p924
F0.192063
sS'ADJ'
p925
F0.781476
s(lp926
(g264
I7
tp927
atp928
a(g73
(dp929
g75
F1.0
s(lp930
(g73
I17
tp931
atp932
a(S'con'
p933
(dp934
S'ADP'
p935
F1.0
s(lp936
(g91
I18
tp937
atp938
a(S'la'
p939
(dp940
S'PRON'
p941
F0.000199
sS'DET'
p942
F0.999801
s(lp943
tp944
a(S'partecipazione'
p945
(dp946
S'NOUN'
p947
F1.0
s(lp948
tp949
a(S'di'
p950
(dp951
S'CONJ'
p952
F4e-06
sS'ADP'
p953
F0.999996
s(lp954
tp955
a(S'attivisti'
p956
(dp957
S'NOUN'
p958
F1.0
s(lp959
(g138
I22
tp960
atp961
a(S'ambientali'
p962
(dp963
S'VERB'
p964
F0.0
sS'ADJ'
p965
F1.0
s(lp966
(g110
I19
tp967
atp968
a(g891
(dp969
S'CONJ'
p970
F1.0
s(lp971
(g117
I20
tp972
atp973
a(S'locali'
p974
(dp975
S'NOUN'
p976
F0.094108
sS'VERB'
p977
F0.001205
sS'ADJ'
p978
F0.904686
s(lp979
(g131
I21
tp980
atp981
a(g73
(dp982
g75
F1.0
s(lp983
(g73
I23
tp984
atp985
a(S'per'
p986
(dp987
S'CONJ'
p988
F0.011113
sS'ADP'
p989
F0.988887
s(lp990
(g147
I24
tp991
atp992
a(S'combattere'
p993
(dp994
S'VERB'
p995
F1.0
s(lp996
(g367
I25
tp997
atp998
a(S'insieme'
p999
(dp1000
S'ADV'
p1001
F0.994161
sS'NOUN'
p1002
F0.005839
s(lp1003
(g154
I26
tp1004
atp1005
a(g891
(dp1006
S'CONJ'
p1007
F1.0
s(lp1008
(g161
I27
tp1009
atp1010
a(S'contrastare'
p1011
(dp1012
S'VERB'
p1013
F1.0
s(lp1014
(g188
I28
tp1015
atp1016
a(S"l'"
p1017
(dp1018
S'NOUN'
p1019
F0.012178
sS'VERB'
p1020
F0.890187
sS'ADJ'
p1021
F0.097635
s(lp1022
(g197
I29
tp1023
atp1024
a(S'accordo'
p1025
(dp1026
S'VERB'
p1027
F0.124722
sS'NOUN'
p1028
F0.875278
s(lp1029
(g204
I31
tp1030
atp1031
a(S'proposto'
p1032
(dp1033
S'VERB'
p1034
F1.0
s(lp1035
(g211
I30
tp1036
atp1037
a(g75
(dp1038
g75
F1.0
s(lp1039
(g75
I32
tp1040
atp1041
asS'sk'
p1042
(lp1043
(S'preto'
p1044
(dp1045
S'PRON'
p1046
F0.901935
sS'CONJ'
p1047
F0.072535
sg713
F0.02553
s(lp1048
(g7
I0
tp1049
atp1050
a(S'je'
p1051
(dp1052
g713
F0.00030500000000000004
sS'VERB'
p1053
F0.999662
sS'PRON'
p1054
F3.4e-05
s(lp1055
(g15
I1
tp1056
atp1057
a(S'moment\xc3\xa1lne'
p1058
(dp1059
S'ADV'
p1060
F0.99589
sS'ADJ'
p1061
F0.004109
s(lp1062
(g251
I5
tp1063
atp1064
a(S'naliehavo'
p1065
(dp1066
S'ADV'
p1067
F1.0
s(lp1068
(g22
I3
tp1069
atp1070
a(S'potrebn\xc3\xa9'
p1071
(dp1072
S'ADJ'
p1073
F1.0
s(lp1074
(g244
I4
tp1075
atp1076
a(g73
(dp1077
g75
F1.0
s(lp1078
tp1079
a(S'aby'
p1080
(dp1081
g713
F7.3e-05
sS'CONJ'
p1082
F0.999927
s(lp1083
(g176
I6
tp1084
atp1085
a(S'eur\xc3\xb3pske'
p1086
(dp1087
S'ADJ'
p1088
F1.0
s(lp1089
(g55
I11
tp1090
atp1091
a(S'a'
p1092
(dp1093
g713
F0.00046600000000000005
sS'CONJ'
p1094
F0.998618
sS'NOUN'
p1095
F0.000831
sS'ADP'
p1096
F7.3e-05
sS'PRT'
p1097
F1.1e-05
s(lp1098
(g62
I12
tp1099
atp1100
a(S'kanadsk\xc3\xa9'
p1101
(dp1102
S'ADJ'
p1103
F1.0
s(lp1104
(g70
I13
tp1105
atp1106
a(S'odborov\xc3\xa9'
p1107
(dp1108
S'ADJ'
p1109
F1.0
s(lp1110
(g47
I14
tp1111
atp1112
a(S'hnutia'
p1113
(dp1114
S'NOUN'
p1115
F1.0
s(lp1116
(g320
I16
tp1117
atp1118
a(S's'
p1119
(dp1120
g713
F0.001748
sS'CONJ'
p1121
F7.2e-05
sS'NOUN'
p1122
F9.999999999999999e-06
sS'ADP'
p1123
F0.998145
sS'PRT'
p1124
F2.6e-05
s(lp1125
(g91
I18
tp1126
atp1127
a(S'podporou'
p1128
(dp1129
S'NOUN'
p1130
F1.0
s(lp1131
(g314
I15
tp1132
atp1133
a(S'environment\xc3\xa1lnych'
p1134
(dp1135
S'ADJ'
p1136
F1.0
s(lp1137
(g110
I19
tp1138
atp1139
a(g1092
(dp1140
g713
F0.00047799999999999996
sS'CONJ'
p1141
F0.998379
sS'NOUN'
p1142
F0.001055
sS'ADP'
p1143
F7.2e-05
sS'PRT'
p1144
F1.6e-05
s(lp1145
(g117
I20
tp1146
atp1147
a(S'domorod\xc3\xbdch'
p1148
(dp1149
S'ADJ'
p1150
F1.0
s(lp1151
(g131
I21
tp1152
atp1153
a(S'aktivistov'
p1154
(dp1155
S'NOUN'
p1156
F1.0
s(lp1157
(g138
I22
tp1158
atp1159
a(S'spolo\xc4\x8dne'
p1160
(dp1161
S'ADV'
p1162
F1.0
s(lp1163
(g154
I26
tp1164
atp1165
a(S'bojovali'
p1166
(dp1167
S'VERB'
p1168
F1.0
s(lp1169
(g367
I25
tp1170
atp1171
a(g1092
(dp1172
g713
F0.00394
sS'CONJ'
p1173
F0.995642
sS'NOUN'
p1174
F0.00016900000000000002
sS'ADP'
p1175
F0.0
sS'PRT'
p1176
F0.000249
s(lp1177
(g161
I27
tp1178
atp1179
a(S'vzopreli'
p1180
(dp1181
S'VERB'
p1182
F1.0
s(lp1183
(g188
I28
tp1184
atp1185
a(S'sa'
p1186
(dp1187
S'PRT'
p1188
F0.996971
sS'ADP'
p1189
F0.002454
sg713
F0.000575
s(lp1190
tp1191
a(S'tejto'
p1192
(dp1193
S'PRON'
p1194
F1.0
s(lp1195
(g197
I29
tp1196
atp1197
a(S'navrhovanej'
p1198
(dp1199
S'VERB'
p1200
F1.0
s(lp1201
(g211
I30
tp1202
atp1203
a(S'dohode'
p1204
(dp1205
S'NOUN'
p1206
F1.0
s(lp1207
(g204
I31
tp1208
atp1209
a(g75
(dp1210
g75
F1.0
s(lp1211
(g75
I32
tp1212
atp1213
asS'pl'
p1214
(lp1215
(S'istnieje'
p1216
(dp1217
S'VERB'
p1218
F1.0
s(lp1219
(g7
I0
tp1220
atp1221
a(S'pilna'
p1222
(dp1223
S'ADJ'
p1224
F1.0
s(lp1225
(g22
I3
tp1226
atp1227
a(S'potrzeba'
p1228
(dp1229
S'ADJ'
p1230
F0.00041
sS'NOUN'
p1231
F0.99959
s(lp1232
(g244
I4
tp1233
atp1234
a(S'podj\xc4\x99cia'
p1235
(dp1236
S'VERB'
p1237
F1.0
s(lp1238
(g176
I6
tp1239
atp1240
a(S'wsp\xc3\xb3lnych'
p1241
(dp1242
S'ADJ'
p1243
F0.999999
s(lp1244
tp1245
a(S'dzia\xc5\x82a\xc5\x84'
p1246
(dp1247
S'NOUN'
p1248
F1.0
s(lp1249
(g168
I8
tp1250
atp1251
a(S'przez'
p1252
(dp1253
S'ADP'
p1254
F1.0
s(lp1255
(g31
I9
tp1256
atp1257
a(S'ruch'
p1258
(dp1259
S'NOUN'
p1260
F1.0
s(lp1261
(g320
I16
tp1262
atp1263
a(S'europejskich'
p1264
(dp1265
S'ADJ'
p1266
F0.999998
s(lp1267
(g55
I11
tp1268
atp1269
a(g864
(dp1270
S'PRT'
p1271
F0.000466
sS'CONJ'
p1272
F0.999502
sS'NOUN'
p1273
F2e-06
sg713
F2e-06
sS'PRON'
p1274
F2.6e-05
s(lp1275
(g62
I12
tp1276
atp1277
a(S'kanadyjskich'
p1278
(dp1279
S'ADJ'
p1280
F1.0
s(lp1281
(g70
I13
tp1282
atp1283
a(S'zwi\xc4\x85zk\xc3\xb3w'
p1284
(dp1285
S'NOUN'
p1286
F1.0
s(lp1287
(g314
I15
tp1288
atp1289
a(S'zawodowych'
p1290
(dp1291
S'ADJ'
p1292
F1.000001
s(lp1293
(g47
I14
tp1294
atp1295
a(g73
(dp1296
g713
F0.0
sg75
F1.0
s(lp1297
(g73
I17
tp1298
atp1299
a(S'wsp\xc3\xb3lnie'
p1300
(dp1301
S'ADV'
p1302
F1.0
s(lp1303
tp1304
a(S'z'
p1305
(dp1306
S'PRT'
p1307
F1.8e-05
sS'VERB'
p1308
F0.0
sS'NOUN'
p1309
F0.0
sS'ADP'
p1310
F0.999981
sg713
F0.0
s(lp1311
(g91
I18
tp1312
atp1313
a(S'dzia\xc5\x82aczami'
p1314
(dp1315
S'NOUN'
p1316
F1.0
s(lp1317
tp1318
a(S'ochrony'
p1319
(dp1320
S'NOUN'
p1321
F1.0
s(lp1322
tp1323
a(S'\xc5\x9brodowiska'
p1324
(dp1325
S'NOUN'
p1326
F1.0
s(lp1327
(g110
I19
tp1328
atp1329
a(g864
(dp1330
S'PRT'
p1331
F0.003886
sS'CONJ'
p1332
F0.996095
sS'NOUN'
p1333
F0.0
sg713
F1e-06
sS'PRON'
p1334
F1.7e-05
s(lp1335
(g117
I20
tp1336
atp1337
a(S'dzia\xc5\x82aczami'
p1338
(dp1339
S'NOUN'
p1340
F1.0
s(lp1341
(g138
I22
tp1342
atp1343
a(S'reprezentuj\xc4\x85cymi'
p1344
(dp1345
S'ADV'
p1346
F0.00044
sS'NOUN'
p1347
F0.009437000000000004
sS'VERB'
p1348
F0.7608520000000002
sS'ADJ'
p1349
F0.22926900000000006
s(lp1350
(g131
I21
tp1351
atp1352
a(S'ludno\xc5\x9b\xc4\x87'
p1353
(dp1354
S'NOUN'
p1355
F1.0
s(lp1356
tp1357
a(S'tubylcz\xc4\x85'
p1358
(dp1359
S'ADJ'
p1360
F0.336173
sS'VERB'
p1361
F0.041928
sS'NOUN'
p1362
F0.621899
s(lp1363
(g131
I21
tp1364
atp1365
a(g73
(dp1366
g713
F0.0
sg75
F1.0
s(lp1367
(g73
I23
tp1368
atp1369
a(S'by'
p1370
(dp1371
S'NOUN'
p1372
F8.3e-05
sS'ADP'
p1373
F3.1e-05
sS'PRT'
p1374
F0.170987
sS'VERB'
p1375
F1e-06
sg713
F5e-06
sS'CONJ'
p1376
F0.828893
s(lp1377
(g147
I24
tp1378
atp1379
a(S'razem'
p1380
(dp1381
S'ADV'
p1382
F0.967293
sS'NOUN'
p1383
F0.032707
s(lp1384
(g154
I26
tp1385
atp1386
a(S'walczy\xc4\x87'
p1387
(dp1388
S'VERB'
p1389
F1.0
s(lp1390
(g367
I25
tp1391
atp1392
a(g864
(dp1393
S'PRT'
p1394
F0.031029
sS'CONJ'
p1395
F0.968319
sS'NOUN'
p1396
F0.000204
sg713
F4.8e-05
sS'PRON'
p1397
F0.000401
s(lp1398
(g161
I27
tp1399
atp1400
a(S'sprzeciwi\xc4\x87'
p1401
(dp1402
S'VERB'
p1403
F1.0
s(lp1404
tp1405
a(S'si\xc4\x99'
p1406
(dp1407
S'PRT'
p1408
F1.0
s(lp1409
(g188
I28
tp1410
atp1411
a(S'tej'
p1412
(dp1413
g713
F0.004413
sS'ADJ'
p1414
F0.991811
sS'PRON'
p1415
F0.003776
s(lp1416
(g197
I29
tp1417
atp1418
a(S'proponowanej'
p1419
(dp1420
S'VERB'
p1421
F1.0
s(lp1422
(g211
I30
tp1423
atp1424
a(S'umowie'
p1425
(dp1426
S'NOUN'
p1427
F1.0
s(lp1428
(g204
I31
tp1429
atp1430
a(g75
(dp1431
g75
F1.0
s(lp1432
(g75
I32
tp1433
atp1434
asS'sl'
p1435
(lp1436
(S'kar'
p1437
(dp1438
S'ADV'
p1439
F0.080119
sS'PRON'
p1440
F0.9198820000000001
s(lp1441
(g7
I0
tp1442
atp1443
a(S'je'
p1444
(dp1445
S'PRON'
p1446
F0.000267
sS'VERB'
p1447
F0.999732
sg713
F1e-06
s(lp1448
(g15
I1
tp1449
atp1450
a(S'zdaj'
p1451
(dp1452
S'ADV'
p1453
F1.0
s(lp1454
(g251
I5
tp1455
atp1456
a(S'nujno'
p1457
(dp1458
S'ADV'
p1459
F0.323458
sS'ADJ'
p1460
F0.676542
s(lp1461
(g22
I3
tp1462
atp1463
a(S'potrebno'
p1464
(dp1465
S'ADV'
p1466
F0.13627
sS'ADJ'
p1467
F0.8637290000000001
s(lp1468
(g244
I4
tp1469
atp1470
a(g73
(dp1471
g75
F1.0
s(lp1472
tp1473
a(S'je'
p1474
(dp1475
S'PRON'
p1476
F0.002121
sS'VERB'
p1477
F0.997876
sg713
F3e-06
s(lp1478
(g233
I2
tp1479
atp1480
a(S'skupno'
p1481
(dp1482
S'ADV'
p1483
F0.009052
sS'ADJ'
p1484
F0.990949
s(lp1485
(g264
I7
tp1486
atp1487
a(S'ukrepanje'
p1488
(dp1489
S'NOUN'
p1490
F1.0
s(lp1491
(g168
I8
tp1492
atp1493
a(S'evropskih'
p1494
(dp1495
S'ADJ'
p1496
F1.000001
s(lp1497
(g55
I11
tp1498
atp1499
a(S'in'
p1500
(dp1501
S'ADV'
p1502
F5.6e-05
sg713
F1e-06
sS'CONJ'
p1503
F0.999923
sS'NOUN'
p1504
F2e-05
s(lp1505
(g62
I12
tp1506
atp1507
a(S'kanadskih'
p1508
(dp1509
S'ADV'
p1510
F0.000644
sS'NOUN'
p1511
F0.012365999999999999
sS'VERB'
p1512
F0.000712
sS'ADJ'
p1513
F0.9862799999999999
s(lp1514
(g70
I13
tp1515
atp1516
a(S'sindikalnih'
p1517
(dp1518
S'ADJ'
p1519
F1.0
s(lp1520
(g47
I14
tp1521
atp1522
a(S'gibanj'
p1523
(dp1524
S'NOUN'
p1525
F1.0
s(lp1526
(g320
I16
tp1527
atp1528
a(g73
(dp1529
g75
F1.0
s(lp1530
(g73
I17
tp1531
atp1532
a(S'ki'
p1533
(dp1534
S'CONJ'
p1535
F1.0
s(lp1536
(g161
I27
tp1537
atp1538
a(S'bi'
p1539
(dp1540
g713
F1e-06
sS'VERB'
p1541
F0.999999
s(lp1542
(g147
I24
tp1543
atp1544
a(S'se'
p1545
(dp1546
S'PRON'
p1547
F0.999999
sg713
F1e-06
s(lp1548
(g367
I25
tp1549
atp1550
a(S'skupaj'
p1551
(dp1552
S'ADV'
p1553
F1.0
s(lp1554
(g154
I26
tp1555
atp1556
a(g1305
(dp1557
S'ADP'
p1558
F1.0
s(lp1559
(g91
I18
tp1560
atp1561
a(S'okoljskimi'
p1562
(dp1563
S'ADV'
p1564
F4.3e-05
sS'NOUN'
p1565
F0.02036199999999999
sS'VERB'
p1566
F1.3000000000000003e-05
sS'ADJ'
p1567
F0.979583
s(lp1568
(g110
I19
tp1569
atp1570
a(S'in'
p1571
(dp1572
S'ADV'
p1573
F4.4e-05
sg713
F3e-06
sS'CONJ'
p1574
F0.999951
sS'NOUN'
p1575
F3e-06
s(lp1576
(g117
I20
tp1577
atp1578
a(S'avtohtonimi'
p1579
(dp1580
S'ADV'
p1581
F0.001367
sS'NOUN'
p1582
F0.039447
sS'PRON'
p1583
F8.2e-05
sS'NUM'
p1584
F0.04721
sS'ADJ'
p1585
F0.9107120000000001
sS'VERB'
p1586
F0.001182
s(lp1587
(g131
I21
tp1588
atp1589
a(S'aktivisti'
p1590
(dp1591
S'ADV'
p1592
F0.005216
sS'ADJ'
p1593
F0.0030160000000000005
sS'VERB'
p1594
F0.000958
sS'NOUN'
p1595
F0.990809
s(lp1596
(g138
I22
tp1597
atp1598
a(S'uprli'
p1599
(dp1600
S'VERB'
p1601
F1.0
s(lp1602
(g188
I28
tp1603
atp1604
a(S'temu'
p1605
(dp1606
S'PRON'
p1607
F1.0
s(lp1608
(g197
I29
tp1609
atp1610
a(S'predlogu'
p1611
(dp1612
S'NOUN'
p1613
F1.0
s(lp1614
(g211
I30
tp1615
atp1616
a(S'sporazuma'
p1617
(dp1618
S'NOUN'
p1619
F1.0
s(lp1620
(g204
I31
tp1621
atp1622
a(g75
(dp1623
g75
F1.0
s(lp1624
(g75
I32
tp1625
atp1626
asS'es'
p1627
(lp1628
(S'actualmente'
p1629
(dp1630
S'ADV'
p1631
F1.0
s(lp1632
(g251
I5
tp1633
atp1634
a(g73
(dp1635
g75
F1.0
s(lp1636
(g7
I0
tp1637
atp1638
a(S'resulta'
p1639
(dp1640
S'VERB'
p1641
F1.0
s(lp1642
(g15
I1
tp1643
atp1644
a(S'urgente'
p1645
(dp1646
S'ADJ'
p1647
F1.0
s(lp1648
(g22
I3
tp1649
atp1650
a(S'una'
p1651
(dp1652
S'DET'
p1653
F1.0
s(lp1654
(g176
I6
tp1655
atp1656
a(S'acci\xc3\xb3n'
p1657
(dp1658
S'NOUN'
p1659
F1.0
s(lp1660
(g168
I8
tp1661
atp1662
a(S'conjunta'
p1663
(dp1664
S'ADJ'
p1665
F1.0
s(lp1666
(g264
I7
tp1667
atp1668
a(S'por'
p1669
(dp1670
S'ADP'
p1671
F1.0
s(lp1672
tp1673
a(S'parte'
p1674
(dp1675
S'ADP'
p1676
F1.0
s(lp1677
(g31
I9
tp1678
atp1679
a(S'del'
p1680
(dp1681
S'ADP'
p1682
F1.0
s(lp1683
(g40
I10
tp1684
atp1685
a(S'movimiento'
p1686
(dp1687
S'NOUN'
p1688
F1.0
s(lp1689
(g320
I16
tp1690
atp1691
a(S'sindical'
p1692
(dp1693
S'ADJ'
p1694
F1.0
s(lp1695
(g47
I14
tp1696
atp1697
a(S'europeo'
p1698
(dp1699
S'NOUN'
p1700
F0.027173
sS'ADJ'
p1701
F0.972827
s(lp1702
(g55
I11
tp1703
atp1704
a(S'y'
p1705
(dp1706
g713
F0.000641
sS'CONJ'
p1707
F0.999359
s(lp1708
(g62
I12
tp1709
atp1710
a(S'canadiense'
p1711
(dp1712
S'NOUN'
p1713
F0.148329
sS'ADJ'
p1714
F0.851671
s(lp1715
(g70
I13
tp1716
atp1717
a(g73
(dp1718
g75
F1.0
s(lp1719
(g73
I17
tp1720
atp1721
a(S'junto'
p1722
(dp1723
S'ADP'
p1724
F1.0
s(lp1725
tp1726
a(S'con'
p1727
(dp1728
S'ADP'
p1729
F1.0
s(lp1730
(g91
I18
tp1731
atp1732
a(S'los'
p1733
(dp1734
S'PRON'
p1735
F0.0
sS'DET'
p1736
F1.0
s(lp1737
tp1738
a(S'activistas'
p1739
(dp1740
S'NOUN'
p1741
F1.0
s(lp1742
(g138
I22
tp1743
atp1744
a(S'ambientales'
p1745
(dp1746
S'ADJ'
p1747
F1.0
s(lp1748
(g110
I19
tp1749
atp1750
a(g891
(dp1751
g713
F0.050817
sS'CONJ'
p1752
F0.946354
sS'ADP'
p1753
F0.002829
s(lp1754
(g117
I20
tp1755
atp1756
a(S'ind\xc3\xadgenas'
p1757
(dp1758
S'NOUN'
p1759
F0.145721
sS'ADJ'
p1760
F0.854279
s(lp1761
(g131
I21
tp1762
atp1763
a(g73
(dp1764
g75
F1.0
s(lp1765
(g73
I23
tp1766
atp1767
a(S'para'
p1768
(dp1769
S'CONJ'
p1770
F0.98704
sS'ADP'
p1771
F0.01296
s(lp1772
(g147
I24
tp1773
atp1774
a(S'luchar'
p1775
(dp1776
S'VERB'
p1777
F1.0
s(lp1778
(g367
I25
tp1779
atp1780
a(S'conjuntamente'
p1781
(dp1782
S'ADV'
p1783
F1.0
s(lp1784
(g154
I26
tp1785
atp1786
a(g1705
(dp1787
g713
F0.000225
sS'CONJ'
p1788
F0.999775
s(lp1789
(g161
I27
tp1790
atp1791
a(S'ofrecer'
p1792
(dp1793
S'VERB'
p1794
F1.0
s(lp1795
(g188
I28
tp1796
atp1797
a(S'resistencia'
p1798
(dp1799
S'NOUN'
p1800
F1.0
s(lp1801
tp1802
a(g1092
(dp1803
g713
F4.8e-05
sS'CONJ'
p1804
F4e-06
sS'ADP'
p1805
F0.999948
s(lp1806
(g188
I28
tp1807
atp1808
a(S'esta'
p1809
(dp1810
S'PRON'
p1811
F0.999996
sS'VERB'
p1812
F4e-06
s(lp1813
(g197
I29
tp1814
atp1815
a(S'propuesta'
p1816
(dp1817
S'VERB'
p1818
F0.006588
sS'NOUN'
p1819
F0.993412
s(lp1820
(g211
I30
tp1821
atp1822
a(S'de'
p1823
(dp1824
g713
F3.3e-05
sS'CONJ'
p1825
F0.000452
sS'ADP'
p1826
F0.999515
s(lp1827
tp1828
a(S'acuerdo'
p1829
(dp1830
S'VERB'
p1831
F0.000227
sS'NOUN'
p1832
F0.999773
s(lp1833
(g204
I31
tp1834
atp1835
a(g75
(dp1836
g75
F1.0
s(lp1837
(g75
I32
tp1838
atp1839
as.