(dp0
S'fr'
p1
(lp2
(S'en'
p3
(dp4
S'PRON'
p5
F0.009999
sS'ADP'
p6
F0.990001
s(lp7
(S'we'
p8
I0
tp9
atp10
a(S'notre'
p11
(dp12
S'PRON'
p13
F1.0
s(lp14
(g8
I0
tp15
atp16
a(S'qualit\xc3\xa9'
p17
(dp18
S'NOUN'
p19
F1.0
s(lp20
(S'as'
p21
I3
tp22
atp23
a(S'de'
p24
(dp25
S'ADP'
p26
F1.0
s(lp27
tp28
a(S'd\xc3\xa9put\xc3\xa9s'
p29
(dp30
S'VERB'
p31
F0.0001
sS'NOUN'
p32
F0.9999
s(lp33
(S'members'
p34
I4
tp35
atp36
a(S','
p37
(dp38
S'.'
p39
F1.0
s(lp40
(g37
I5
tp41
atp42
a(S'nous'
p43
(dp44
S'PRON'
p45
F1.0
s(lp46
tp47
a(S'avons'
p48
(dp49
S'VERB'
p50
F1.0
s(lp51
(g8
I0
tp52
atp53
a(S'remis'
p54
(dp55
S'VERB'
p56
F0.99794
sS'ADJ'
p57
F0.00206
s(lp58
(S'challenged'
p59
I6
tp60
atp61
a(S'en'
p62
(dp63
S'PRON'
p64
F0.000403
sS'ADP'
p65
F0.999597
s(lp66
tp67
a(S'question'
p68
(dp69
S'NOUN'
p70
F1.0
s(lp71
(g59
I6
tp72
atp73
a(S'les'
p74
(dp75
S'PRON'
p76
F0.000251
sS'DET'
p77
F0.999507
sS'ADP'
p78
F0.000243
s(lp79
(S'the'
p80
I7
tp81
atp82
a(S'implications'
p83
(dp84
S'NOUN'
p85
F1.0
s(lp86
(S'implications'
p87
I11
tp88
atp89
a(S'op\xc3\xa9rationnelles'
p90
(dp91
S'ADJ'
p92
F1.0
s(lp93
(S'operational'
p94
I8
tp95
atp96
a(S'et'
p97
(dp98
S'CONJ'
p99
F1.0
s(lp100
(S'and'
p101
I9
tp102
atp103
a(S'financi\xc3\xa8res'
p104
(dp105
S'NOUN'
p106
F0.113655
sS'ADJ'
p107
F0.886345
s(lp108
(S'cost'
p109
I10
tp110
atp111
a(S'de'
p112
(dp113
S'ADP'
p114
F1.0
s(lp115
(S'of'
p116
I12
tp117
atp118
a(S"l'"
p119
(dp120
S'ADJ'
p121
F0.160704
sS'VERB'
p122
F0.06480800000000002
sS'NOUN'
p123
F0.774488
s(lp124
(S'the'
p125
I13
tp126
atp127
a(S'identification'
p128
(dp129
S'NOUN'
p130
F1.0
s(lp131
(S'identification'
p132
I16
tp133
atp134
a(S'\xc3\xa9lectronique'
p135
(dp136
S'NOUN'
p137
F0.166093
sS'ADJ'
p138
F0.833907
s(lp139
(S'electronic'
p140
I15
tp141
atp142
a(S'obligatoire'
p143
(dp144
S'ADJ'
p145
F1.0
s(lp146
(S'compulsory'
p147
I14
tp148
atp149
a(g37
(dp150
g39
F1.0
s(lp151
(g37
I17
tp152
atp153
a(S'ainsi'
p154
(dp155
S'ADV'
p156
F0.405634
sS'CONJ'
p157
F0.594366
s(lp158
(S'and'
p159
I18
tp160
atp161
a(S'que'
p162
(dp163
S'ADV'
p164
F0.027307
sS'PRON'
p165
F0.140421
sS'CONJ'
p166
F0.832272
s(lp167
tp168
a(S'les'
p169
(dp170
S'PRON'
p171
F0.000645
sS'DET'
p172
F0.999342
sS'ADP'
p173
F1.3e-05
s(lp174
(S'the'
p175
I19
tp176
atp177
a(S'cons\xc3\xa9quences'
p178
(dp179
S'NOUN'
p180
F1.0
s(lp181
tp182
a(S'd\xc3\xa9sastreuses'
p183
(dp184
S'ADJ'
p185
F1.0
s(lp186
(S'disastrous'
p187
I20
tp188
atp189
a(S"qu'"
p190
(dp191
S'ADJ'
p192
F0.112319
sS'VERB'
p193
F0.207239
sS'NOUN'
p194
F0.680441
s(lp195
tp196
a(S'elle'
p197
(dp198
S'PRON'
p199
F1.0
s(lp200
tp201
a(S'aurait'
p202
(dp203
S'VERB'
p204
F1.0
s(lp205
(S'consequences'
p206
I21
tp207
atp208
a(S'sur'
p209
(dp210
S'ADP'
p211
F1.0
s(lp212
(S'for'
p213
I22
tp214
atp215
a(S'une'
p216
(dp217
S'NOUN'
p218
F1.8e-05
sS'NUM'
p219
F0.024699
sS'DET'
p220
F0.975283
s(lp221
(S'an'
p222
I23
tp223
atp224
a(S'industrie'
p225
(dp226
S'NOUN'
p227
F1.0
s(lp228
(S'industry'
p229
I24
tp230
atp231
a(S'd\xc3\xa9j\xc3\xa0'
p232
(dp233
S'ADV'
p234
F1.0
s(lp235
(S'already'
p236
I25
tp237
atp238
a(S'en'
p239
(dp240
S'PRON'
p241
F0.00147
sS'ADP'
p242
F0.99853
s(lp243
(S'in'
p244
I26
tp245
atp246
a(S's\xc3\xa9rieux'
p247
(dp248
S'NOUN'
p249
F0.045466
sS'ADJ'
p250
F0.954534
s(lp251
(S'serious'
p252
I27
tp253
atp254
a(S'd\xc3\xa9clin'
p255
(dp256
S'NOUN'
p257
F1.0
s(lp258
(S'decline'
p259
I28
tp260
atp261
a(g39
(dp262
g39
F1.0
s(lp263
(g39
I29
tp264
atp265
asS'en'
p266
(lp267
(g8
(dp268
S'PRON'
p269
F1.0
s(lp270
(g8
I0
tp271
atp272
a(S'have'
p273
(dp274
S'VERB'
p275
F1.0
s(lp276
(g273
I1
tp277
atp278
a(g37
(dp279
g39
F1.0
s(lp280
(g37
I2
tp281
atp282
a(g21
(dp283
S'ADV'
p284
F0.033842
sS'ADP'
p285
F0.966158
s(lp286
(g21
I3
tp287
atp288
a(g34
(dp289
S'NOUN'
p290
F1.0
s(lp291
(g34
I4
tp292
atp293
a(g37
(dp294
g39
F1.0
s(lp295
(g37
I5
tp296
atp297
a(g59
(dp298
S'VERB'
p299
F1.0
s(lp300
(g59
I6
tp301
atp302
a(g80
(dp303
S'NOUN'
p304
F1e-06
sS'DET'
p305
F0.999999
s(lp306
(g80
I7
tp307
atp308
a(g94
(dp309
S'ADJ'
p310
F1.0
s(lp311
(g94
I8
tp312
atp313
a(g101
(dp314
S'CONJ'
p315
F0.99998
sS'NOUN'
p316
F2e-05
s(lp317
(g101
I9
tp318
atp319
a(g109
(dp320
S'VERB'
p321
F0.3877
sS'NOUN'
p322
F0.6123
s(lp323
(g109
I10
tp324
atp325
a(g87
(dp326
S'NOUN'
p327
F1.0
s(lp328
(g87
I11
tp329
atp330
a(g116
(dp331
S'ADP'
p332
F1.0
s(lp333
(g116
I12
tp334
atp335
a(g125
(dp336
S'NOUN'
p337
F1e-06
sS'DET'
p338
F0.999999
s(lp339
(g125
I13
tp340
atp341
a(g147
(dp342
S'ADJ'
p343
F1.0
s(lp344
(g147
I14
tp345
atp346
a(g140
(dp347
S'ADJ'
p348
F1.0
s(lp349
(g140
I15
tp350
atp351
a(g132
(dp352
S'NOUN'
p353
F1.0
s(lp354
(g132
I16
tp355
atp356
a(g37
(dp357
g39
F1.0
s(lp358
(g37
I17
tp359
atp360
a(g159
(dp361
S'CONJ'
p362
F1.0
sS'NOUN'
p363
F0.0
s(lp364
(g159
I18
tp365
atp366
a(g175
(dp367
S'NOUN'
p368
F1e-06
sS'DET'
p369
F0.999999
s(lp370
(g175
I19
tp371
atp372
a(g187
(dp373
S'ADJ'
p374
F1.0
s(lp375
(g187
I20
tp376
atp377
a(g206
(dp378
S'NOUN'
p379
F1.0
s(lp380
(g206
I21
tp381
atp382
a(g213
(dp383
S'ADP'
p384
F1.0
s(lp385
(g213
I22
tp386
atp387
a(g222
(dp388
S'DET'
p389
F1.0
s(lp390
(g222
I23
tp391
atp392
a(g229
(dp393
S'NOUN'
p394
F1.0
s(lp395
(g229
I24
tp396
atp397
a(g236
(dp398
S'ADV'
p399
F1.0
s(lp400
(g236
I25
tp401
atp402
a(g244
(dp403
S'ADV'
p404
F0.005355
sS'PRT'
p405
F6e-06
sS'ADP'
p406
F0.994639
s(lp407
(g244
I26
tp408
atp409
a(g252
(dp410
S'ADJ'
p411
F1.0
s(lp412
(g252
I27
tp413
atp414
a(g259
(dp415
S'VERB'
p416
F0.00024900000000000004
sS'NOUN'
p417
F0.999752
s(lp418
(g259
I28
tp419
atp420
a(g39
(dp421
g39
F1.0
s(lp422
(g39
I29
tp423
atp424
asS'nl'
p425
(lp426
(S'in'
p427
(dp428
S'ADV'
p429
F0.009341
sS'VERB'
p430
F1e-06
sS'ADP'
p431
F0.990658
s(lp432
(g21
I3
tp433
atp434
a(S'het'
p435
(dp436
S'PRON'
p437
F0.0009350000000000001
sS'DET'
p438
F0.999065
s(lp439
tp440
a(S'parlement'
p441
(dp442
S'NOUN'
p443
F1.0
s(lp444
(g34
I4
tp445
atp446
a(S'hebben'
p447
(dp448
S'VERB'
p449
F1.0
sS'NOUN'
p450
F0.0
s(lp451
(g273
I1
tp452
atp453
a(S'we'
p454
(dp455
S'PRON'
p456
F1.0
s(lp457
(g8
I0
tp458
atp459
a(S'kritiek'
p460
(dp461
S'ADJ'
p462
F0.302062
sS'NOUN'
p463
F0.697938
s(lp464
(g59
I6
tp465
atp466
a(S'geuit'
p467
(dp468
S'VERB'
p469
F1.0
s(lp470
tp471
a(S'op'
p472
(dp473
S'ADV'
p474
F0.00012
sS'ADJ'
p475
F0.0
sS'ADP'
p476
F0.99988
s(lp477
(g59
I6
tp478
atp479
a(S'de'
p480
(dp481
S'DET'
p482
F1.0
s(lp483
(g80
I7
tp484
atp485
a(S'operationele'
p486
(dp487
S'NOUN'
p488
F0.130872
sS'ADJ'
p489
F0.869128
s(lp490
(g94
I8
tp491
atp492
a(S'en'
p493
(dp494
S'CONJ'
p495
F1.0
s(lp496
(g101
I9
tp497
atp498
a(S'financi\xc3\xable'
p499
(dp500
S'NOUN'
p501
F6.2e-05
sS'ADJ'
p502
F0.999938
s(lp503
(g109
I10
tp504
atp505
a(S'implicaties'
p506
(dp507
S'NOUN'
p508
F1.0
s(lp509
(g87
I11
tp510
atp511
a(S'van'
p512
(dp513
S'ADP'
p514
F1.0
s(lp515
(g116
I12
tp516
atp517
a(S'de'
p518
(dp519
S'DET'
p520
F1.0
s(lp521
(g125
I13
tp522
atp523
a(S'verplichte'
p524
(dp525
S'NOUN'
p526
F0.007019
sS'VERB'
p527
F1.4e-05
sS'ADJ'
p528
F0.992967
s(lp529
(g147
I14
tp530
atp531
a(S'elektronische'
p532
(dp533
S'NOUN'
p534
F0.00049
sS'ADJ'
p535
F0.99951
s(lp536
(g140
I15
tp537
atp538
a(S'identificatie'
p539
(dp540
S'NOUN'
p541
F1.0
s(lp542
(g132
I16
tp543
atp544
a(S'en'
p545
(dp546
S'CONJ'
p547
F1.0
s(lp548
(g159
I18
tp549
atp550
a(S'de'
p551
(dp552
S'DET'
p553
F1.0
s(lp554
(g175
I19
tp555
atp556
a(S'gevolgen'
p557
(dp558
S'NOUN'
p559
F1.0
s(lp560
(g187
I20
tp561
atp562
a(S'daarvan'
p563
(dp564
S'ADV'
p565
F1.0
s(lp566
(g206
I21
tp567
atp568
a(S'voor'
p569
(dp570
S'ADV'
p571
F0.006337
sS'CONJ'
p572
F2e-06
sS'NOUN'
p573
F0.0
sS'ADP'
p574
F0.99366
s(lp575
(g213
I22
tp576
atp577
a(S'een'
p578
(dp579
S'ADJ'
p580
F1e-06
sS'PRON'
p581
F1.4e-05
sS'NUM'
p582
F0.0
sS'DET'
p583
F0.999985
s(lp584
(g222
I23
tp585
atp586
a(S'bedrijfstak'
p587
(dp588
S'NOUN'
p589
F1.0
s(lp590
(g229
I24
tp591
atp592
a(S'die'
p593
(dp594
S'PRON'
p595
F1.0
s(lp596
tp597
a(S'toch'
p598
(dp599
S'ADV'
p600
F1.0
s(lp601
tp602
a(S'al'
p603
(dp604
S'ADV'
p605
F0.480142
sS'PRON'
p606
F0.014449
sS'CONJ'
p607
F0.505409
s(lp608
(g236
I25
tp609
atp610
a(S'een'
p611
(dp612
S'ADJ'
p613
F7e-06
sS'PRON'
p614
F0.000669
sS'NUM'
p615
F1e-06
sS'DET'
p616
F0.999322
s(lp617
tp618
a(S'sterke'
p619
(dp620
S'NOUN'
p621
F0.006173
sS'ADJ'
p622
F0.993827
s(lp623
(g252
I27
tp624
atp625
a(S'neergang'
p626
(dp627
S'NOUN'
p628
F1.0
s(lp629
tp630
a(S'doormaakt'
p631
(dp632
S'VERB'
p633
F1.0
s(lp634
(g259
I28
tp635
atp636
a(g39
(dp637
g39
F1.0
s(lp638
(g39
I29
tp639
atp640
asS'de'
p641
(lp642
(S'in'
p643
(dp644
S'ADP'
p645
F1.0
s(lp646
(g59
I6
tp647
atp648
a(S'unserer'
p649
(dp650
S'PRON'
p651
F1.0
s(lp652
tp653
a(S'funktion'
p654
(dp655
S'ADJ'
p656
F0.000167
sS'NOUN'
p657
F0.999694
s(lp658
tp659
a(S'als'
p660
(dp661
S'CONJ'
p662
F0.9998130000000001
s(lp663
(g21
I3
tp664
atp665
a(S'abgeordnete'
p666
(dp667
S'ADJ'
p668
F1.0
s(lp669
(g34
I4
tp670
atp671
a(S'haben'
p672
(dp673
S'VERB'
p674
F0.999664
s(lp675
(g273
I1
tp676
atp677
a(S'wir'
p678
(dp679
S'PRON'
p680
F1.0
s(lp681
(g8
I0
tp682
atp683
a(S'vor'
p684
(dp685
S'ADV'
p686
F0.014889
sS'ADP'
p687
F0.970382
s(lp688
(g59
I6
tp689
atp690
a(S'den'
p691
(dp692
S'PRON'
p693
F0.000122
sS'DET'
p694
F0.999871
s(lp695
(g80
I7
tp696
atp697
a(S'betrieblichen'
p698
(dp699
S'ADJ'
p700
F1.0
s(lp701
(g94
I8
tp702
atp703
a(S'und'
p704
(dp705
S'CONJ'
p706
F1.0
s(lp707
(g101
I9
tp708
atp709
a(S'kostentechnischen'
p710
(dp711
S'VERB'
p712
F0.00032
sS'ADJ'
p713
F0.99968
s(lp714
(g109
I10
tp715
atp716
a(S'auswirkungen'
p717
(dp718
S'VERB'
p719
F0.012038
sS'NOUN'
p720
F0.987961
s(lp721
(g87
I11
tp722
atp723
a(S'der'
p724
(dp725
S'PRON'
p726
F9.5e-05
sS'DET'
p727
F0.999897
s(lp728
(g125
I13
tp729
atp730
a(S'obligatorischen'
p731
(dp732
S'ADJ'
p733
F1.0
s(lp734
(g147
I14
tp735
atp736
a(S'elektronischen'
p737
(dp738
S'ADJ'
p739
F1.0
s(lp740
(g140
I15
tp741
atp742
a(S'identifizierung'
p743
(dp744
S'ADJ'
p745
F0.0003
sS'NOUN'
p746
F0.999677
s(lp747
tp748
a(S'sowie'
p749
(dp750
S'CONJ'
p751
F1.0
s(lp752
(g159
I18
tp753
atp754
a(S'den'
p755
(dp756
S'PRON'
p757
F0.016984
sS'DET'
p758
F0.981482
s(lp759
(g175
I19
tp760
atp761
a(S'desastr\xc3\xb6sen'
p762
(dp763
S'ADJ'
p764
F0.369876
sS'NOUN'
p765
F0.492565
s(lp766
(g187
I20
tp767
atp768
a(S'folgen'
p769
(dp770
S'VERB'
p771
F1.0
s(lp772
(g206
I21
tp773
atp774
a(S'f\xc3\xbcr'
p775
(dp776
S'ADP'
p777
F1.0
s(lp778
(g213
I22
tp779
atp780
a(S'eine'
p781
(dp782
S'PRON'
p783
F0.004269
sS'DET'
p784
F0.995304
s(lp785
(g222
I23
tp786
atp787
a(S'branche'
p788
(dp789
S'ADJ'
p790
F0.054196
sS'NOUN'
p791
F0.931717
s(lp792
(g229
I24
tp793
atp794
a(S'gewarnt'
p795
(dp796
S'VERB'
p797
F1.0
s(lp798
(g132
I16
tp799
atp800
a(g37
(dp801
g39
F1.0
s(lp802
(g37
I17
tp803
atp804
a(S'die'
p805
(dp806
S'PRON'
p807
F0.95207
sS'DET'
p808
F0.041161
s(lp809
tp810
a(S'schon'
p811
(dp812
S'ADV'
p813
F0.999971
sS'VERB'
p814
F2.9e-05
s(lp815
tp816
a(S'jetzt'
p817
(dp818
S'ADV'
p819
F1.0
s(lp820
(g236
I25
tp821
atp822
a(S'einen'
p823
(dp824
S'ADJ'
p825
F0.00965
sS'DET'
p826
F0.98771
s(lp827
(g259
I28
tp828
atp829
a(S'abschwung'
p830
(dp831
S'ADJ'
p832
F0.000172
sS'NOUN'
p833
F0.999689
s(lp834
tp835
a(S'erlebt'
p836
(dp837
S'VERB'
p838
F1.0
s(lp839
(g259
I28
tp840
atp841
a(g39
(dp842
g39
F1.0
s(lp843
(g39
I29
tp844
atp845
asS'it'
p846
(lp847
(S'nella'
p848
(dp849
S'ADP'
p850
F1.0
s(lp851
tp852
a(S'nostra'
p853
(dp854
S'PRON'
p855
F1.0
s(lp856
(g8
I0
tp857
atp858
a(S'veste'
p859
(dp860
S'VERB'
p861
F7e-05
sS'NOUN'
p862
F0.99993
s(lp863
(g21
I3
tp864
atp865
a(S'di'
p866
(dp867
S'CONJ'
p868
F7e-06
sS'ADP'
p869
F0.999993
s(lp870
tp871
a(S'deputati'
p872
(dp873
S'VERB'
p874
F0.014416000000000002
sS'NOUN'
p875
F0.985584
s(lp876
(g34
I4
tp877
atp878
a(g37
(dp879
g39
F1.0
s(lp880
(g37
I5
tp881
atp882
a(S'abbiamo'
p883
(dp884
S'VERB'
p885
F0.9999999999999999
s(lp886
(g273
I1
tp887
atp888
a(S'messo'
p889
(dp890
S'NOUN'
p891
F0.001322
sS'VERB'
p892
F0.994792
sS'ADJ'
p893
F0.003885
s(lp894
(g59
I6
tp895
atp896
a(S'in'
p897
(dp898
S'ADP'
p899
F1.0
s(lp900
tp901
a(S'discussione'
p902
(dp903
S'NOUN'
p904
F1.0
s(lp905
(g59
I6
tp906
atp907
a(S'le'
p908
(dp909
S'PRON'
p910
F0.000322
sS'DET'
p911
F0.999678
s(lp912
(g80
I7
tp913
atp914
a(S'implicazioni'
p915
(dp916
S'NOUN'
p917
F1.0
s(lp918
(g87
I11
tp919
atp920
a(S'operative'
p921
(dp922
S'ADJ'
p923
F1.0
s(lp924
(g94
I8
tp925
atp926
a(S'e'
p927
(dp928
S'CONJ'
p929
F1.0
s(lp930
(g101
I9
tp931
atp932
a(S'i'
p933
(dp934
S'DET'
p935
F1.0
s(lp936
(g125
I13
tp937
atp938
a(S'costi'
p939
(dp940
S'VERB'
p941
F0.014743
sS'NOUN'
p942
F0.985257
s(lp943
(g109
I10
tp944
atp945
a(S"dell'"
p946
(dp947
S'ADJ'
p948
F0.040129
sS'VERB'
p949
F0.006766
sS'NOUN'
p950
F0.953106
s(lp951
(g116
I12
tp952
atp953
a(S'identificazione'
p954
(dp955
S'NOUN'
p956
F1.0
s(lp957
(g132
I16
tp958
atp959
a(S'elettronica'
p960
(dp961
S'NOUN'
p962
F0.104523
sS'ADJ'
p963
F0.895477
s(lp964
(g140
I15
tp965
atp966
a(S'obbligatoria'
p967
(dp968
S'ADJ'
p969
F1.0
s(lp970
(g147
I14
tp971
atp972
a(g37
(dp973
g39
F1.0
s(lp974
(g37
I17
tp975
atp976
a(g927
(dp977
S'CONJ'
p978
F1.0
s(lp979
(g159
I18
tp980
atp981
a(S'le'
p982
(dp983
S'PRON'
p984
F0.000899
sS'DET'
p985
F0.999101
s(lp986
(g175
I19
tp987
atp988
a(S'disastrose'
p989
(dp990
S'ADJ'
p991
F1.0
s(lp992
(g187
I20
tp993
atp994
a(S'conseguenze'
p995
(dp996
S'NOUN'
p997
F1.0
s(lp998
(g206
I21
tp999
atp1000
a(S'per'
p1001
(dp1002
S'CONJ'
p1003
F0.015281
sS'ADP'
p1004
F0.984719
s(lp1005
(g213
I22
tp1006
atp1007
a(S'un'
p1008
(dp1009
S'PRON'
p1010
F0.002692
sS'DEF'
p1011
F0.997308
s(lp1012
(g222
I23
tp1013
atp1014
a(S'settore'
p1015
(dp1016
S'ADJ'
p1017
F0.011816
sS'NOUN'
p1018
F0.988184
s(lp1019
(g229
I24
tp1020
atp1021
a(S'gi\xc3\xa0'
p1022
(dp1023
S'ADV'
p1024
F1.0
s(lp1025
(g236
I25
tp1026
atp1027
a(S'in'
p1028
(dp1029
S'ADP'
p1030
F1.0
s(lp1031
(g244
I26
tp1032
atp1033
a(S'grave'
p1034
(dp1035
S'NOUN'
p1036
F0.012947
sS'ADJ'
p1037
F0.987053
s(lp1038
(g252
I27
tp1039
atp1040
a(S'declino'
p1041
(dp1042
S'VERB'
p1043
F0.000357
sS'NOUN'
p1044
F0.999643
s(lp1045
(g259
I28
tp1046
atp1047
a(g39
(dp1048
g39
F1.0
s(lp1049
(g39
I29
tp1050
atp1051
asS'sk'
p1052
(lp1053
(S'namietali'
p1054
(dp1055
S'VERB'
p1056
F1.000001
s(lp1057
tp1058
a(S'sme'
p1059
(dp1060
S'X'
p1061
F0.000155
sS'VERB'
p1062
F0.999845
s(lp1063
(g8
I0
tp1064
atp1065
a(S'ako'
p1066
(dp1067
S'PRON'
p1068
F0.168034
sS'CONJ'
p1069
F0.830174
sg1061
F0.001792
s(lp1070
(g21
I3
tp1071
atp1072
a(S'poslanci'
p1073
(dp1074
S'NOUN'
p1075
F1.0
s(lp1076
(g34
I4
tp1077
atp1078
a(S'vo\xc4\x8di'
p1079
(dp1080
S'ADV'
p1081
F0.003755
sS'ADP'
p1082
F0.996245
s(lp1083
(g59
I6
tp1084
atp1085
a(S'prev\xc3\xa1dzkov\xc3\xbdm'
p1086
(dp1087
S'ADJ'
p1088
F1.0
s(lp1089
(g94
I8
tp1090
atp1091
a(S'a'
p1092
(dp1093
g1061
F0.000523
sS'CONJ'
p1094
F0.998397
sS'NOUN'
p1095
F0.000988
sS'ADP'
p1096
F8.6e-05
sS'PRT'
p1097
F6e-06
s(lp1098
(g101
I9
tp1099
atp1100
a(S'n\xc3\xa1kladov\xc3\xbdm'
p1101
(dp1102
S'ADJ'
p1103
F1.0
s(lp1104
(g109
I10
tp1105
atp1106
a(S'd\xc3\xb4sledkom'
p1107
(dp1108
S'NOUN'
p1109
F1.0
s(lp1110
(g87
I11
tp1111
atp1112
a(S'povinn\xc3\xa9ho'
p1113
(dp1114
S'ADJ'
p1115
F1.0
s(lp1116
(g147
I14
tp1117
atp1118
a(S'elektronick\xc3\xa9ho'
p1119
(dp1120
S'ADJ'
p1121
F1.0
s(lp1122
(g140
I15
tp1123
atp1124
a(S'ozna\xc4\x8dovania'
p1125
(dp1126
S'NOUN'
p1127
F1.0
s(lp1128
(g132
I16
tp1129
atp1130
a(g1092
(dp1131
g1061
F0.004634
sS'CONJ'
p1132
F0.994991
sS'NOUN'
p1133
F0.000223
sS'ADP'
p1134
F1e-06
sS'PRT'
p1135
F0.000152
s(lp1136
(g159
I18
tp1137
atp1138
a(S'vo\xc4\x8di'
p1139
(dp1140
S'ADV'
p1141
F0.021948
sS'ADP'
p1142
F0.978052
s(lp1143
(g175
I19
tp1144
atp1145
a(S'katastrof\xc3\xa1lnym'
p1146
(dp1147
S'ADJ'
p1148
F1.0
s(lp1149
(g187
I20
tp1150
atp1151
a(S'n\xc3\xa1sledkom'
p1152
(dp1153
S'NOUN'
p1154
F0.999949
sS'ADP'
p1155
F5e-05
s(lp1156
(g206
I21
tp1157
atp1158
a(S'pre'
p1159
(dp1160
g1061
F8.2e-05
sS'ADP'
p1161
F0.999918
s(lp1162
(g213
I22
tp1163
atp1164
a(S'odvetvie'
p1165
(dp1166
S'NOUN'
p1167
F1.0
s(lp1168
(g229
I24
tp1169
atp1170
a(g37
(dp1171
g39
F1.0
s(lp1172
tp1173
a(S'ktor\xc3\xa9'
p1174
(dp1175
S'PRON'
p1176
F1.0
s(lp1177
tp1178
a(S'je'
p1179
(dp1180
S'PRON'
p1181
F2e-05
sS'VERB'
p1182
F0.999963
sg1061
F1.7e-05
s(lp1183
(g222
I23
tp1184
atp1185
a(S'u\xc5\xbe'
p1186
(dp1187
S'ADV'
p1188
F0.138018
sg1061
F0.8618859999999999
sS'CONJ'
p1189
F9.6e-05
s(lp1190
tp1191
a(S'teraz'
p1192
(dp1193
S'ADV'
p1194
F1.0
s(lp1195
(g236
I25
tp1196
atp1197
a(S'vo'
p1198
(dp1199
S'ADP'
p1200
F1.0
s(lp1201
(g244
I26
tp1202
atp1203
a(S'v\xc3\xa1\xc5\xbenej'
p1204
(dp1205
S'ADJ'
p1206
F1.0
s(lp1207
(g252
I27
tp1208
atp1209
a(S'recesii'
p1210
(dp1211
S'NOUN'
p1212
F1.0
s(lp1213
(g259
I28
tp1214
atp1215
a(g39
(dp1216
g39
F1.0
s(lp1217
(g39
I29
tp1218
atp1219
asS'pl'
p1220
(lp1221
(S'my'
p1222
(dp1223
S'PRON'
p1224
F0.9920730000000001
sS'NOUN'
p1225
F0.006487
sg1061
F0.001441
s(lp1226
(g8
I0
tp1227
atp1228
a(g37
(dp1229
g1061
F1e-06
sg39
F0.999999
s(lp1230
(g37
I2
tp1231
atp1232
a(S'jako'
p1233
(dp1234
S'ADV'
p1235
F0.005188
sS'CONJ'
p1236
F0.394544
sS'ADP'
p1237
F0.600268
s(lp1238
(g21
I3
tp1239
atp1240
a(S'pos\xc5\x82owie'
p1241
(dp1242
S'NOUN'
p1243
F1.0
s(lp1244
(g34
I4
tp1245
atp1246
a(g37
(dp1247
g1061
F0.0
sg39
F1.0
s(lp1248
(g37
I5
tp1249
atp1250
a(S'kwestionowali\xc5\x9bmy'
p1251
(dp1252
S'ADV'
p1253
F0.002714
sS'ADJ'
p1254
F0.000619
sS'VERB'
p1255
F0.720445
sS'NOUN'
p1256
F0.2762220000000002
s(lp1257
(g59
I6
tp1258
atp1259
a(S'operacyjne'
p1260
(dp1261
S'ADJ'
p1262
F1.0
s(lp1263
(g94
I8
tp1264
atp1265
a(g933
(dp1266
S'PRT'
p1267
F0.006601
sS'CONJ'
p1268
F0.993306
sS'PRON'
p1269
F3.2e-05
sS'NOUN'
p1270
F2e-06
sg1061
F6e-05
s(lp1271
(g101
I9
tp1272
atp1273
a(S'kosztowe'
p1274
(dp1275
S'ADV'
p1276
F0.000262
sS'NOUN'
p1277
F0.003474
sS'VERB'
p1278
F0.004722999999999999
sS'ADJ'
p1279
F0.991542
s(lp1280
(g109
I10
tp1281
atp1282
a(S'implikacje'
p1283
(dp1284
S'ADV'
p1285
F9.4e-05
sS'ADJ'
p1286
F0.0007680000000000001
sS'VERB'
p1287
F0.03500799999999999
sS'NOUN'
p1288
F0.9641300000000002
s(lp1289
(g87
I11
tp1290
atp1291
a(S'obowi\xc4\x85zkowej'
p1292
(dp1293
S'NOUN'
p1294
F0.233485
sS'VERB'
p1295
F0.000348
sS'ADJ'
p1296
F0.766167
s(lp1297
(g147
I14
tp1298
atp1299
a(S'elektronicznej'
p1300
(dp1301
S'ADJ'
p1302
F1.0
s(lp1303
(g140
I15
tp1304
atp1305
a(S'identyfikacji'
p1306
(dp1307
S'NOUN'
p1308
F1.0
s(lp1309
(g132
I16
tp1310
atp1311
a(S'oraz'
p1312
(dp1313
S'CONJ'
p1314
F1.0
s(lp1315
(g159
I18
tp1316
atp1317
a(S'jej'
p1318
(dp1319
S'PRON'
p1320
F0.999973
sg1061
F2.6e-05
s(lp1321
(g175
I19
tp1322
atp1323
a(S'katastrofalne'
p1324
(dp1325
S'ADJ'
p1326
F1.0
s(lp1327
(g187
I20
tp1328
atp1329
a(S'skutki'
p1330
(dp1331
S'NOUN'
p1332
F1.0
s(lp1333
(g206
I21
tp1334
atp1335
a(S'dla'
p1336
(dp1337
S'ADP'
p1338
F1.0
s(lp1339
(g213
I22
tp1340
atp1341
a(S'bran\xc5\xbcy'
p1342
(dp1343
S'NOUN'
p1344
F1.0
s(lp1345
(g229
I24
tp1346
atp1347
a(g37
(dp1348
g1061
F0.0
sg39
F1.0
s(lp1349
tp1350
a(S'kt\xc3\xb3ra'
p1351
(dp1352
S'ADJ'
p1353
F1.0
s(lp1354
(g222
I23
tp1355
atp1356
a(S'ju\xc5\xbc'
p1357
(dp1358
S'PRT'
p1359
F1.0
s(lp1360
(g236
I25
tp1361
atp1362
a(S'znacznie'
p1363
(dp1364
S'ADV'
p1365
F1.0
s(lp1366
tp1367
a(S'podupad\xc5\x82a'
p1368
(dp1369
S'ADJ'
p1370
F0.01557
sS'VERB'
p1371
F0.5054569999999999
sS'NOUN'
p1372
F0.4789729999999999
s(lp1373
(g259
I28
tp1374
atp1375
a(g39
(dp1376
g39
F1.0
s(lp1377
(g39
I29
tp1378
atp1379
asS'sl'
p1380
(lp1381
(S'kot'
p1382
(dp1383
S'CONJ'
p1384
F0.999696
sS'NOUN'
p1385
F0.00030500000000000004
s(lp1386
(g21
I3
tp1387
atp1388
a(S'poslanci'
p1389
(dp1390
S'NOUN'
p1391
F1.0
s(lp1392
(g34
I4
tp1393
atp1394
a(S'smo'
p1395
(dp1396
g1061
F4e-06
sS'VERB'
p1397
F0.999996
s(lp1398
(g8
I0
tp1399
atp1400
a(S'izrazili'
p1401
(dp1402
S'VERB'
p1403
F1.0
s(lp1404
tp1405
a(S'zaskrbljenost'
p1406
(dp1407
S'NOUN'
p1408
F1.0
s(lp1409
(g59
I6
tp1410
atp1411
a(S'zaradi'
p1412
(dp1413
S'ADP'
p1414
F1.0
s(lp1415
(g80
I7
tp1416
atp1417
a(S'operativnih'
p1418
(dp1419
S'ADJ'
p1420
F1.0
s(lp1421
(g94
I8
tp1422
atp1423
a(S'in'
p1424
(dp1425
S'ADV'
p1426
F7.2e-05
sg1061
F1e-06
sS'CONJ'
p1427
F0.999906
sS'NOUN'
p1428
F2.1e-05
s(lp1429
(g101
I9
tp1430
atp1431
a(S'stro\xc5\xa1kovnih'
p1432
(dp1433
S'ADV'
p1434
F0.000117
sS'NOUN'
p1435
F0.002663
sS'VERB'
p1436
F0.00018899999999999999
sS'ADJ'
p1437
F0.9970280000000001
s(lp1438
(g109
I10
tp1439
atp1440
a(S'vplivov'
p1441
(dp1442
S'NOUN'
p1443
F1.0
s(lp1444
(g87
I11
tp1445
atp1446
a(S'obvezne'
p1447
(dp1448
S'ADJ'
p1449
F1.0
s(lp1450
(g147
I14
tp1451
atp1452
a(S'elektronske'
p1453
(dp1454
S'ADJ'
p1455
F1.0
s(lp1456
(g140
I15
tp1457
atp1458
a(S'identifikacije'
p1459
(dp1460
S'NOUN'
p1461
F1.0
s(lp1462
(g132
I16
tp1463
atp1464
a(S'in'
p1465
(dp1466
S'ADV'
p1467
F0.00012
sg1061
F1e-05
sS'CONJ'
p1468
F0.99985
sS'NOUN'
p1469
F2e-05
s(lp1470
(g159
I18
tp1471
atp1472
a(S'katastrofalnih'
p1473
(dp1474
S'ADV'
p1475
F7.9e-05
sS'NOUN'
p1476
F0.0016920000000000006
sS'VERB'
p1477
F0.000118
sS'ADJ'
p1478
F0.998111
s(lp1479
(g187
I20
tp1480
atp1481
a(S'posledic'
p1482
(dp1483
S'NOUN'
p1484
F1.0
s(lp1485
(g206
I21
tp1486
atp1487
a(S'za'
p1488
(dp1489
S'ADV'
p1490
F1e-05
sg1061
F2e-06
sS'ADP'
p1491
F0.999988
s(lp1492
(g213
I22
tp1493
atp1494
a(S'industrijo'
p1495
(dp1496
S'NOUN'
p1497
F1.0
s(lp1498
(g229
I24
tp1499
atp1500
a(g37
(dp1501
g39
F1.0
s(lp1502
(g37
I2
tp1503
atp1504
a(S'ki'
p1505
(dp1506
S'CONJ'
p1507
F1.0
s(lp1508
tp1509
a(S'je'
p1510
(dp1511
S'PRON'
p1512
F0.025863
sS'VERB'
p1513
F0.9741369999999999
sg1061
F0.0
s(lp1514
(g273
I1
tp1515
atp1516
a(S'\xc5\xbee'
p1517
(dp1518
S'PRT'
p1519
F1.0
s(lp1520
tp1521
a(S'tako'
p1522
(dp1523
S'ADV'
p1524
F0.98563
sS'PRON'
p1525
F0.00859
sS'CONJ'
p1526
F0.00578
s(lp1527
(g236
I25
tp1528
atp1529
a(S'ali'
p1530
(dp1531
S'ADV'
p1532
F0.222998
sS'CONJ'
p1533
F0.777002
s(lp1534
(g244
I26
tp1535
atp1536
a(S'tako'
p1537
(dp1538
S'ADV'
p1539
F0.952713
sS'PRON'
p1540
F0.007154000000000001
sS'CONJ'
p1541
F0.040133
s(lp1542
tp1543
a(S'mo\xc4\x8dno'
p1544
(dp1545
S'ADV'
p1546
F0.997768
sS'ADJ'
p1547
F0.002232
s(lp1548
(g252
I27
tp1549
atp1550
a(S'upada'
p1551
(dp1552
S'VERB'
p1553
F1.0
s(lp1554
(g259
I28
tp1555
atp1556
a(g39
(dp1557
g39
F1.0
s(lp1558
(g39
I29
tp1559
atp1560
asS'es'
p1561
(lp1562
(S'como'
p1563
(dp1564
S'ADV'
p1565
F0.097951
sS'CONJ'
p1566
F0.902049
s(lp1567
(g21
I3
tp1568
atp1569
a(S'miembros'
p1570
(dp1571
S'NOUN'
p1572
F1.0
s(lp1573
(g34
I4
tp1574
atp1575
a(g37
(dp1576
g39
F1.0
s(lp1577
(g37
I5
tp1578
atp1579
a(S'hemos'
p1580
(dp1581
S'VERB'
p1582
F1.0
s(lp1583
(g273
I1
tp1584
atp1585
a(S'cuestionado'
p1586
(dp1587
S'VERB'
p1588
F1.0
s(lp1589
(g59
I6
tp1590
atp1591
a(S'las'
p1592
(dp1593
S'PRON'
p1594
F0.0
sS'DET'
p1595
F1.0
s(lp1596
(g80
I7
tp1597
atp1598
a(S'implicaciones'
p1599
(dp1600
S'NOUN'
p1601
F1.0
s(lp1602
(g87
I11
tp1603
atp1604
a(S'operativas'
p1605
(dp1606
S'ADJ'
p1607
F1.0
s(lp1608
(g94
I8
tp1609
atp1610
a(S'y'
p1611
(dp1612
g1061
F0.000439
sS'CONJ'
p1613
F0.999561
s(lp1614
(g101
I9
tp1615
atp1616
a(S'financieras'
p1617
(dp1618
S'ADJ'
p1619
F0.397282
sS'NOUN'
p1620
F0.602718
s(lp1621
(g109
I10
tp1622
atp1623
a(S'de'
p1624
(dp1625
g1061
F0.0
sS'CONJ'
p1626
F3.3e-05
sS'ADP'
p1627
F0.999967
s(lp1628
(g116
I12
tp1629
atp1630
a(S'la'
p1631
(dp1632
g1061
F0.0
sS'PRON'
p1633
F0.0
sS'DET'
p1634
F0.999999
sS'NOUN'
p1635
F0.0
s(lp1636
(g125
I13
tp1637
atp1638
a(S'identificaci\xc3\xb3n'
p1639
(dp1640
S'NOUN'
p1641
F1.0
s(lp1642
(g132
I16
tp1643
atp1644
a(S'electr\xc3\xb3nica'
p1645
(dp1646
S'ADJ'
p1647
F1.0
s(lp1648
(g140
I15
tp1649
atp1650
a(S'obligatoria'
p1651
(dp1652
S'ADJ'
p1653
F1.0
s(lp1654
(g147
I14
tp1655
atp1656
a(g37
(dp1657
g39
F1.0
s(lp1658
(g37
I17
tp1659
atp1660
a(g1611
(dp1661
g1061
F0.00017
sS'CONJ'
p1662
F0.99983
s(lp1663
(g159
I18
tp1664
atp1665
a(S'los'
p1666
(dp1667
S'PRON'
p1668
F0.000107
sS'DET'
p1669
F0.999893
s(lp1670
(g175
I19
tp1671
atp1672
a(S'desastrosos'
p1673
(dp1674
S'ADJ'
p1675
F1.0
s(lp1676
(g187
I20
tp1677
atp1678
a(S'efectos'
p1679
(dp1680
S'NOUN'
p1681
F1.0
s(lp1682
tp1683
a(S'que'
p1684
(dp1685
g1061
F3e-06
sS'CONJ'
p1686
F0.999997
s(lp1687
tp1688
a(S'tendr\xc3\xada'
p1689
(dp1690
S'VERB'
p1691
F1.0
s(lp1692
(g206
I21
tp1693
atp1694
a(S'sobre'
p1695
(dp1696
S'NOUN'
p1697
F0.0
sS'ADP'
p1698
F1.0
s(lp1699
(g213
I22
tp1700
atp1701
a(S'una'
p1702
(dp1703
S'DET'
p1704
F1.0
s(lp1705
(g222
I23
tp1706
atp1707
a(S'industria'
p1708
(dp1709
S'VERB'
p1710
F0.002263
sS'NOUN'
p1711
F0.997737
s(lp1712
(g229
I24
tp1713
atp1714
a(S'que'
p1715
(dp1716
g1061
F0.0
sS'CONJ'
p1717
F1.0
s(lp1718
tp1719
a(S'ya'
p1720
(dp1721
S'ADV'
p1722
F1.0
s(lp1723
tp1724
a(S'est\xc3\xa1'
p1725
(dp1726
S'VERB'
p1727
F1.0
s(lp1728
(g236
I25
tp1729
atp1730
a(S'en'
p1731
(dp1732
g1061
F2.6e-05
sS'CONJ'
p1733
F1e-06
sS'ADP'
p1734
F0.999973
s(lp1735
(g244
I26
tp1736
atp1737
a(S'seria'
p1738
(dp1739
S'VERB'
p1740
F0.075025
sS'ADJ'
p1741
F0.924975
s(lp1742
(g252
I27
tp1743
atp1744
a(S'decadencia'
p1745
(dp1746
S'NOUN'
p1747
F1.0
s(lp1748
(g259
I28
tp1749
atp1750
a(g39
(dp1751
g39
F1.0
s(lp1752
(g39
I29
tp1753
atp1754
as.