(dp0
S'fr'
p1
(lp2
(S'cette'
p3
(dp4
S'PRON'
p5
F1.0
s(lp6
(S'this'
p7
I0
tp8
atp9
a(S'proposition'
p10
(dp11
S'NOUN'
p12
F1.0
s(lp13
(S'proposal'
p14
I1
tp15
atp16
a(S"n'"
p17
(dp18
S'NOUN'
p19
F0.032441
sS'VERB'
p20
F0.694014
sS'ADJ'
p21
F0.273544
s(lp22
tp23
a(S'a'
p24
(dp25
S'VERB'
p26
F1.0
s(lp27
(S'was'
p28
I2
tp29
atp30
a(S'pas'
p31
(dp32
S'ADV'
p33
F0.999153
sS'NOUN'
p34
F0.000847
s(lp35
(S'not'
p36
I3
tp37
atp38
a(S'\xc3\xa9t\xc3\xa9'
p39
(dp40
S'VERB'
p41
F0.988792
sS'NOUN'
p42
F0.011208
s(lp43
tp44
a(S'adopt\xc3\xa9e'
p45
(dp46
S'VERB'
p47
F1.0
s(lp48
(S'adopted'
p49
I4
tp50
atp51
a(S'par'
p52
(dp53
S'NOUN'
p54
F0.0
sS'ADP'
p55
F1.0
s(lp56
(S'by'
p57
I5
tp58
atp59
a(S'la'
p60
(dp61
S'PRON'
p62
F1.2e-05
sS'DET'
p63
F0.999988
sS'NOUN'
p64
F0.0
s(lp65
(S'the'
p66
I6
tp67
atp68
a(S'conf\xc3\xa9rence'
p69
(dp70
S'NOUN'
p71
F1.0
s(lp72
(S'conference'
p73
I7
tp74
atp75
a(S'des'
p76
(dp77
S'DET'
p78
F1e-05
sS'ADP'
p79
F0.99999
s(lp80
(S'of'
p81
I8
tp82
atp83
a(S'\xc3\x89tats'
p84
(dp85
S'NOUN'
p86
F1.0
s(lp87
(S'states'
p88
I9
tp89
atp90
a(S'parties'
p91
(dp92
S'NOUN'
p93
F0.198529
sS'VERB'
p94
F0.56267
sS'ADJ'
p95
F0.238801
s(lp96
(S'parties'
p97
I10
tp98
atp99
a(S'.'
p100
(dp101
g100
F1.0
s(lp102
(g100
I11
tp103
atp104
asS'en'
p105
(lp106
(g7
(dp107
S'ADV'
p108
F1.3e-05
sS'NOUN'
p109
F1.1e-05
sS'DET'
p110
F0.999976
s(lp111
(g7
I0
tp112
atp113
a(g14
(dp114
S'NOUN'
p115
F1.0
s(lp116
(g14
I1
tp117
atp118
a(g28
(dp119
S'VERB'
p120
F1.0
s(lp121
(g28
I2
tp122
atp123
a(g36
(dp124
S'ADV'
p125
F1.0
s(lp126
(g36
I3
tp127
atp128
a(g49
(dp129
S'VERB'
p130
F0.997503
sS'ADJ'
p131
F0.002497
s(lp132
(g49
I4
tp133
atp134
a(g57
(dp135
S'ADV'
p136
F0.000174
sS'NOUN'
p137
F0.0
sS'ADP'
p138
F0.999825
s(lp139
(g57
I5
tp140
atp141
a(g66
(dp142
S'NOUN'
p143
F1e-06
sS'DET'
p144
F0.999999
s(lp145
(g66
I6
tp146
atp147
a(g73
(dp148
S'NOUN'
p149
F1.0
s(lp150
(g73
I7
tp151
atp152
a(g81
(dp153
S'ADP'
p154
F1.0
s(lp155
(g81
I8
tp156
atp157
a(g88
(dp158
S'VERB'
p159
F0.003582
sS'NOUN'
p160
F0.996418
s(lp161
(g88
I9
tp162
atp163
a(g97
(dp164
S'VERB'
p165
F0.002296
sS'NOUN'
p166
F0.997704
s(lp167
(g97
I10
tp168
atp169
a(g100
(dp170
g100
F1.0
s(lp171
(g100
I11
tp172
atp173
asS'nl'
p174
(lp175
(S'dit'
p176
(dp177
S'PRON'
p178
F1.0
s(lp179
(g7
I0
tp180
atp181
a(S'voorstel'
p182
(dp183
S'VERB'
p184
F0.0
sS'NOUN'
p185
F1.0
s(lp186
(g14
I1
tp187
atp188
a(S'werd'
p189
(dp190
S'VERB'
p191
F1.0
s(lp192
(g28
I2
tp193
atp194
a(S'niet'
p195
(dp196
S'ADV'
p197
F1.0
sS'PRON'
p198
F0.0
sS'VERB'
p199
F0.0
sS'X'
p200
F0.0
s(lp201
(g36
I3
tp202
atp203
a(S'goedgekeurd'
p204
(dp205
S'VERB'
p206
F1.0
s(lp207
tp208
a(S'tijdens'
p209
(dp210
S'ADP'
p211
F1.0
s(lp212
(g73
I7
tp213
atp214
a(S'de'
p215
(dp216
S'DET'
p217
F1.0
s(lp218
(g66
I6
tp219
atp220
a(S'herzieningsconferentie'
p221
(dp222
S'NOUN'
p223
F1.0
s(lp224
tp225
a(S'van'
p226
(dp227
S'ADP'
p228
F1.0
s(lp229
(g81
I8
tp230
atp231
a(S'de'
p232
(dp233
S'DET'
p234
F1.0
s(lp235
tp236
a(S'staten'
p237
(dp238
S'NOUN'
p239
F1.0
s(lp240
(g88
I9
tp241
atp242
a(S'die'
p243
(dp244
S'PRON'
p245
F1.0
s(lp246
(g49
I4
tp247
atp248
a(S'partij'
p249
(dp250
S'NOUN'
p251
F1.0
s(lp252
(g97
I10
tp253
atp254
a(S'zijn'
p255
(dp256
S'PRON'
p257
F9.3e-05
sS'VERB'
p258
F0.999802
sS'NOUN'
p259
F0.000105
s(lp260
tp261
a(S'bij'
p262
(dp263
S'ADV'
p264
F0.017409
sS'NOUN'
p265
F0.0
sS'ADJ'
p266
F0.0
sS'ADP'
p267
F0.982591
s(lp268
(g57
I5
tp269
atp270
a(S'het'
p271
(dp272
S'PRON'
p273
F0.000943
sS'DET'
p274
F0.999058
s(lp275
(g66
I6
tp276
atp277
a(S'verdrag'
p278
(dp279
S'NOUN'
p280
F1.0
s(lp281
(g73
I7
tp282
atp283
a(g100
(dp284
g100
F1.0
s(lp285
(g100
I11
tp286
atp287
asS'de'
p288
(lp289
(S'dieser'
p290
(dp291
S'PRON'
p292
F1.0
s(lp293
(g7
I0
tp294
atp295
a(S'vorschlag'
p296
(dp297
S'ADJ'
p298
F0.000305
sS'NOUN'
p299
F0.999603
s(lp300
(g14
I1
tp301
atp302
a(S'wurde'
p303
(dp304
S'VERB'
p305
F1.0
s(lp306
(g28
I2
tp307
atp308
a(S'von'
p309
(dp310
S'NOUN'
p311
F0.000243
sS'ADP'
p312
F0.999757
s(lp313
(g57
I5
tp314
atp315
a(S'den'
p316
(dp317
S'PRON'
p318
F2.6e-05
sS'DET'
p319
F0.999973
s(lp320
(g66
I6
tp321
atp322
a(S'unterzeichnerstaaten'
p323
(dp324
S'ADJ'
p325
F0.000245
sS'NOUN'
p326
F0.999643
s(lp327
(g97
I10
tp328
atp329
a(S'abgelehnt'
p330
(dp331
S'VERB'
p332
F1.0
s(lp333
(g49
I4
tp334
atp335
a(g100
(dp336
g100
F1.0
s(lp337
(g100
I11
tp338
atp339
asS'it'
p340
(lp341
(S'questa'
p342
(dp343
S'PRON'
p344
F1.0
s(lp345
(g7
I0
tp346
atp347
a(S'proposta'
p348
(dp349
S'VERB'
p350
F0.10711
sS'NOUN'
p351
F0.89289
s(lp352
(g14
I1
tp353
atp354
a(S'non'
p355
(dp356
S'ADV'
p357
F1.0
s(lp358
(g36
I3
tp359
atp360
a(S'\xc3\xa8'
p361
(dp362
S'VERB'
p363
F1.0
s(lp364
tp365
a(S'stata'
p366
(dp367
S'VERB'
p368
F1.0
s(lp369
(g28
I2
tp370
atp371
a(S'adottata'
p372
(dp373
S'VERB'
p374
F0.833756
sS'ADJ'
p375
F0.166244
s(lp376
(g49
I4
tp377
atp378
a(S'dalla'
p379
(dp380
S'NOUN'
p381
F1.3e-05
sS'ADP'
p382
F0.999987
s(lp383
(g57
I5
tp384
atp385
a(S'conferenza'
p386
(dp387
S'NOUN'
p388
F1.0
s(lp389
(g73
I7
tp390
atp391
a(S'degli'
p392
(dp393
S'DEF'
p394
F0.001575
sS'ADP'
p395
F0.998425
s(lp396
tp397
a(S'stati'
p398
(dp399
S'VERB'
p400
F0.190087
sS'NOUN'
p401
F0.809913
s(lp402
(g88
I9
tp403
atp404
a(g100
(dp405
g100
F1.0
s(lp406
(g100
I11
tp407
atp408
asS'sk'
p409
(lp410
(S'konferencia'
p411
(dp412
S'NOUN'
p413
F1.0
s(lp414
(g73
I7
tp415
atp416
a(S'\xc5\xa1t\xc3\xa1tov'
p417
(dp418
S'NOUN'
p419
F1.0
s(lp420
(g88
I9
tp421
atp422
a(S','
p423
(dp424
g100
F1.0
s(lp425
tp426
a(S'ktor\xc3\xa9'
p427
(dp428
S'PRON'
p429
F1.0
s(lp430
(g57
I5
tp431
atp432
a(S's\xc3\xba'
p433
(dp434
S'VERB'
p435
F1.0
s(lp436
(g66
I6
tp437
atp438
a(S'stranami'
p439
(dp440
S'NOUN'
p441
F1.0
s(lp442
(g97
I10
tp443
atp444
a(g423
(dp445
g100
F1.0
s(lp446
tp447
a(S'tento'
p448
(dp449
S'PRON'
p450
F0.999772
sg200
F0.000228
s(lp451
(g7
I0
tp452
atp453
a(S'n\xc3\xa1vrh'
p454
(dp455
S'NOUN'
p456
F1.0
s(lp457
(g14
I1
tp458
atp459
a(S'neprijala'
p460
(dp461
S'VERB'
p462
F1.0
s(lp463
(g49
I4
tp464
atp465
a(g100
(dp466
g100
F1.0
s(lp467
(g100
I11
tp468
atp469
asS'pl'
p470
(lp471
(S'propozycja'
p472
(dp473
S'NOUN'
p474
F1.0
s(lp475
(g14
I1
tp476
atp477
a(S'ta'
p478
(dp479
S'ADV'
p480
F0.00015
sS'PRT'
p481
F0.003521
sS'ADJ'
p482
F0.9955879999999999
sg200
F0.000741
s(lp483
(g7
I0
tp484
atp485
a(S'zosta\xc5\x82a'
p486
(dp487
S'VERB'
p488
F1.0
s(lp489
(g28
I2
tp490
atp491
a(S'odrzucona'
p492
(dp493
S'VERB'
p494
F1.0
s(lp495
(g49
I4
tp496
atp497
a(S'przez'
p498
(dp499
S'ADP'
p500
F1.0
s(lp501
(g57
I5
tp502
atp503
a(S'konferencj\xc4\x99'
p504
(dp505
S'NOUN'
p506
F1.0
s(lp507
(g73
I7
tp508
atp509
a(S'pa\xc5\x84stw'
p510
(dp511
S'NOUN'
p512
F1.0
s(lp513
(g88
I9
tp514
atp515
a(S'stron'
p516
(dp517
S'NOUN'
p518
F1.0
s(lp519
tp520
a(S'konwencji'
p521
(dp522
S'NOUN'
p523
F1.0
s(lp524
(g97
I10
tp525
atp526
a(g100
(dp527
g100
F1.0
s(lp528
(g100
I11
tp529
atp530
asS'sl'
p531
(lp532
(S'tega'
p533
(dp534
S'PRON'
p535
F1.0
s(lp536
(g7
I0
tp537
atp538
a(S'predloga'
p539
(dp540
S'NOUN'
p541
F1.0
s(lp542
(g14
I1
tp543
atp544
a(S'konferenca'
p545
(dp546
S'NOUN'
p547
F1.0
s(lp548
(g73
I7
tp549
atp550
a(S'dr\xc5\xbeav'
p551
(dp552
S'NOUN'
p553
F1.0
s(lp554
(g88
I9
tp555
atp556
a(S'pogodbenic'
p557
(dp558
S'ADV'
p559
F0.002671
sS'ADJ'
p560
F0.000414
sS'NOUN'
p561
F0.996916
s(lp562
(g97
I10
tp563
atp564
a(S'ni'
p565
(dp566
S'VERB'
p567
F1.0
s(lp568
(g36
I3
tp569
atp570
a(S'sprejela'
p571
(dp572
S'VERB'
p573
F1.0
s(lp574
(g49
I4
tp575
atp576
a(g100
(dp577
g100
F1.0
s(lp578
(g100
I11
tp579
atp580
asS'es'
p581
(lp582
(S'esta'
p583
(dp584
S'PRON'
p585
F0.999825
sS'VERB'
p586
F0.000175
s(lp587
(g7
I0
tp588
atp589
a(S'propuesta'
p590
(dp591
S'VERB'
p592
F0.002159
sS'NOUN'
p593
F0.997841
s(lp594
(g14
I1
tp595
atp596
a(S'no'
p597
(dp598
S'ADV'
p599
F0.999999
sg200
F1e-06
s(lp600
(g36
I3
tp601
atp602
a(S'fue'
p603
(dp604
S'VERB'
p605
F1.0
s(lp606
(g28
I2
tp607
atp608
a(S'aprobada'
p609
(dp610
S'VERB'
p611
F1.0
s(lp612
(g49
I4
tp613
atp614
a(S'por'
p615
(dp616
S'ADP'
p617
F1.0
s(lp618
(g57
I5
tp619
atp620
a(S'la'
p621
(dp622
S'NOUN'
p623
F0.0
sS'PRON'
p624
F0.0
sS'DET'
p625
F0.999999
sg200
F0.0
s(lp626
(g66
I6
tp627
atp628
a(S'conferencia'
p629
(dp630
S'NOUN'
p631
F1.0
s(lp632
(g73
I7
tp633
atp634
a(S'de'
p635
(dp636
g200
F2.9e-05
sS'CONJ'
p637
F0.000449
sS'ADP'
p638
F0.999522
s(lp639
(g81
I8
tp640
atp641
a(S'partes'
p642
(dp643
S'NOUN'
p644
F1.0
s(lp645
(g97
I10
tp646
atp647
a(g100
(dp648
g100
F1.0
s(lp649
(g100
I11
tp650
atp651
as.