(dp0
S'fr'
p1
(lp2
(S'je'
p3
(dp4
S'PRON'
p5
F1.0
s(lp6
(S'i'
p7
I0
tp8
atp9
a(S'voudrais'
p10
(dp11
S'VERB'
p12
F1.0
s(lp13
(S'like'
p14
I2
tp15
atp16
a(S"d'"
p17
(dp18
S'NOUN'
p19
F0.087886
sS'VERB'
p20
F0.7995690000000001
sS'ADJ'
p21
F0.112546
s(lp22
(S'to'
p23
I3
tp24
atp25
a(S'abord'
p26
(dp27
S'NOUN'
p28
F1.0
s(lp29
(S'start'
p30
I4
tp31
atp32
a(S'dire'
p33
(dp34
S'VERB'
p35
F0.961417
sS'NOUN'
p36
F0.038583
s(lp37
(S'saying'
p38
I6
tp39
atp40
a(S'que'
p41
(dp42
S'ADV'
p43
F0.076712
sS'PRON'
p44
F0.040156000000000004
sS'CONJ'
p45
F0.883131
s(lp46
(S'that'
p47
I7
tp48
atp49
a(S','
p50
(dp51
S'.'
p52
F1.0
s(lp53
(g50
I8
tp54
atp55
a(S'derri\xc3\xa8re'
p56
(dp57
S'ADV'
p58
F0.087143
sS'NOUN'
p59
F0.002467
sS'ADP'
p60
F0.910391
s(lp61
(S'behind'
p62
I9
tp63
atp64
a(S'les'
p65
(dp66
S'PRON'
p67
F6.1e-05
sS'DET'
p68
F0.999933
sS'ADP'
p69
F6e-06
s(lp70
tp71
a(S'syst\xc3\xa8mes'
p72
(dp73
S'NOUN'
p74
F1.0
s(lp75
(S'systems'
p76
I12
tp77
atp78
a(S'de'
p79
(dp80
S'ADP'
p81
F1.0
s(lp82
tp83
a(S'transport'
p84
(dp85
S'NOUN'
p86
F1.0
s(lp87
(S'transport'
p88
I11
tp89
atp90
a(S'intelligent'
p91
(dp92
S'ADJ'
p93
F1.0
s(lp94
(S'intelligent'
p95
I10
tp96
atp97
a(g50
(dp98
g52
F1.0
s(lp99
(g50
I13
tp100
atp101
a(S'il'
p102
(dp103
S'PRON'
p104
F1.0
s(lp105
(S'there'
p106
I14
tp107
atp108
a(S'y'
p109
(dp110
S'PRON'
p111
F1.0
s(lp112
tp113
a(S'a'
p114
(dp115
S'VERB'
p116
F1.0
s(lp117
(g106
I14
tp118
atp119
a(S'quand'
p120
(dp121
S'ADV'
p122
F0.782431
sS'CONJ'
p123
F0.217569
s(lp124
(S'all'
p125
I16
tp126
atp127
a(S'm\xc3\xaame'
p128
(dp129
S'ADV'
p130
F0.656691
sS'ADJ'
p131
F0.343309
s(lp132
(S'same'
p133
I18
tp134
atp135
a(S'des'
p136
(dp137
S'DET'
p138
F8.6e-05
sS'ADP'
p139
F0.999914
s(lp140
(S'the'
p141
I17
tp142
atp143
a(S'cr\xc3\xa9dits'
p144
(dp145
S'NOUN'
p146
F1.0
s(lp147
(S'funds'
p148
I20
tp149
atp150
a(S'europ\xc3\xa9ens'
p151
(dp152
S'NOUN'
p153
F0.009609
sS'ADJ'
p154
F0.990391
s(lp155
(S'european'
p156
I19
tp157
atp158
a(S'et'
p159
(dp160
S'CONJ'
p161
F1.0
s(lp162
(S'and'
p163
I22
tp164
atp165
a(S'que'
p166
(dp167
S'ADV'
p168
F0.072395
sS'PRON'
p169
F0.224079
sS'CONJ'
p170
F0.703527
s(lp171
(S'that'
p172
I23
tp173
atp174
a(S"j'"
p175
(dp176
S'ADJ'
p177
F0.394706
sS'VERB'
p178
F0.050505999999999995
sS'NOUN'
p179
F0.552623
sS'X'
p180
F0.002166
s(lp181
(g7
I24
tp182
atp183
a(S'ai'
p184
(dp185
S'VERB'
p186
F1.0
s(lp187
tp188
a(S'\xc3\xa9t\xc3\xa9'
p189
(dp190
S'VERB'
p191
F0.998784
sS'NOUN'
p192
F0.001216
s(lp193
(S'was'
p194
I25
tp195
atp196
a(S'un'
p197
(dp198
S'NOUN'
p199
F0.008488
sS'NUM'
p200
F0.001816
sS'DET'
p201
F0.989696
s(lp202
tp203
a(S'peu'
p204
(dp205
S'ADV'
p206
F1.0
s(lp207
(S'somewhat'
p208
I26
tp209
atp210
a(S'stup\xc3\xa9fait'
p211
(dp212
S'VERB'
p213
F0.98393
sS'ADJ'
p214
F0.01607
s(lp215
(S'amazed'
p216
I27
tp217
atp218
a(S'de'
p219
(dp220
S'ADP'
p221
F1.0
s(lp222
(S'to'
p223
I28
tp224
atp225
a(S'constater'
p226
(dp227
S'VERB'
p228
F1.0
s(lp229
(S'discover'
p230
I29
tp231
atp232
a(S'combien'
p233
(dp234
S'ADV'
p235
F1.0
s(lp236
(S'how'
p237
I30
tp238
atp239
a(S'ils'
p240
(dp241
S'PRON'
p242
F1.0
s(lp243
(S'they'
p244
I31
tp245
atp246
a(S'\xc3\xa9taient'
p247
(dp248
S'VERB'
p249
F1.0
s(lp250
(S'were'
p251
I32
tp252
atp253
a(S'presque'
p254
(dp255
S'ADV'
p256
F1.0
s(lp257
(S'practically'
p258
I33
tp259
atp260
a(S'essentiellement'
p261
(dp262
S'ADV'
p263
F1.0
s(lp264
tp265
a(S'orient\xc3\xa9s'
p266
(dp267
S'VERB'
p268
F1.0
s(lp269
(S'channelled'
p270
I35
tp271
atp272
a(S'vers'
p273
(dp274
S'NOUN'
p275
F1.5e-05
sS'ADP'
p276
F0.999985
s(lp277
(S'towards'
p278
I36
tp279
atp280
a(S"l'"
p281
(dp282
S'ADJ'
p283
F0.160706
sS'VERB'
p284
F0.06481699999999997
sS'NOUN'
p285
F0.774477
s(lp286
tp287
a(S'automobile'
p288
(dp289
S'NOUN'
p290
F0.156812
sS'ADJ'
p291
F0.843188
s(lp292
(S'cars'
p293
I37
tp294
atp295
a(g52
(dp296
g52
F1.0
s(lp297
(g52
I38
tp298
atp299
asS'en'
p300
(lp301
(g7
(dp302
g180
F0.024389
sS'NOUN'
p303
F0.97561
s(lp304
(g7
I0
tp305
atp306
a(S'should'
p307
(dp308
S'VERB'
p309
F1.0
s(lp310
(g307
I1
tp311
atp312
a(g14
(dp313
S'VERB'
p314
F0.9997360000000001
sS'ADJ'
p315
F3.1e-05
sS'ADP'
p316
F0.000233
s(lp317
(g14
I2
tp318
atp319
a(g23
(dp320
S'ADV'
p321
F0.0
sS'PRT'
p322
F1.0
sS'ADP'
p323
F0.0
s(lp324
(g23
I3
tp325
atp326
a(g30
(dp327
S'VERB'
p328
F0.978933
sS'NOUN'
p329
F0.021067
s(lp330
(g30
I4
tp331
atp332
a(S'by'
p333
(dp334
S'ADV'
p335
F0.001361
sS'NOUN'
p336
F1e-06
sS'ADP'
p337
F0.998638
s(lp338
(g333
I5
tp339
atp340
a(g38
(dp341
S'VERB'
p342
F0.99503
sS'NOUN'
p343
F0.00497
s(lp344
(g38
I6
tp345
atp346
a(g47
(dp347
S'ADV'
p348
F0.013634
sS'DET'
p349
F0.03211
sS'ADP'
p350
F0.954256
s(lp351
(g47
I7
tp352
atp353
a(g50
(dp354
g52
F1.0
s(lp355
(g50
I8
tp356
atp357
a(g62
(dp358
S'ADV'
p359
F0.186561
sS'NOUN'
p360
F0.000104
sS'ADP'
p361
F0.813335
s(lp362
(g62
I9
tp363
atp364
a(g95
(dp365
S'ADJ'
p366
F1.0
s(lp367
(g95
I10
tp368
atp369
a(g88
(dp370
S'VERB'
p371
F9.2e-05
sS'NOUN'
p372
F0.999908
s(lp373
(g88
I11
tp374
atp375
a(g76
(dp376
S'NOUN'
p377
F1.0
s(lp378
(g76
I12
tp379
atp380
a(g50
(dp381
g52
F1.0
s(lp382
(g50
I13
tp383
atp384
a(g106
(dp385
S'ADV'
p386
F0.001531
sS'ADJ'
p387
F0.0
sS'DET'
p388
F0.998469
sS'ADP'
p389
F0.0
s(lp390
(g106
I14
tp391
atp392
a(S'are'
p393
(dp394
S'VERB'
p395
F1.0
sS'NOUN'
p396
F0.0
s(lp397
(g393
I15
tp398
atp399
a(g125
(dp400
S'ADV'
p401
F0.847576
sS'DET'
p402
F0.152424
s(lp403
(g125
I16
tp404
atp405
a(g141
(dp406
S'NOUN'
p407
F4e-06
sS'DET'
p408
F0.999996
s(lp409
(g141
I17
tp410
atp411
a(g133
(dp412
S'ADV'
p413
F3.8e-05
sS'NOUN'
p414
F6e-05
sS'ADJ'
p415
F0.999902
s(lp416
(g133
I18
tp417
atp418
a(g156
(dp419
S'NOUN'
p420
F0.254471
sS'VERB'
p421
F1.5e-05
sS'ADJ'
p422
F0.745514
s(lp423
(g156
I19
tp424
atp425
a(g148
(dp426
S'VERB'
p427
F0.000104
sS'NOUN'
p428
F0.999896
s(lp429
(g148
I20
tp430
atp431
a(g50
(dp432
g52
F1.0
s(lp433
(g50
I21
tp434
atp435
a(g163
(dp436
S'CONJ'
p437
F0.999997
sS'NOUN'
p438
F3e-06
s(lp439
(g163
I22
tp440
atp441
a(g172
(dp442
S'ADV'
p443
F0.00113
sS'DET'
p444
F0.6557040000000001
sS'ADP'
p445
F0.343167
s(lp446
(g172
I23
tp447
atp448
a(g7
(dp449
g180
F0.078708
sS'NOUN'
p450
F0.921292
s(lp451
(g7
I24
tp452
atp453
a(g194
(dp454
S'VERB'
p455
F1.0
s(lp456
(g194
I25
tp457
atp458
a(g208
(dp459
S'ADV'
p460
F1.0
s(lp461
(g208
I26
tp462
atp463
a(g216
(dp464
S'VERB'
p465
F0.891859
sS'ADJ'
p466
F0.10814
s(lp467
(g216
I27
tp468
atp469
a(g223
(dp470
S'ADV'
p471
F0.0
sS'PRT'
p472
F1.0
sS'ADP'
p473
F0.0
s(lp474
(g223
I28
tp475
atp476
a(g230
(dp477
S'VERB'
p478
F1.0
s(lp479
(g230
I29
tp480
atp481
a(g237
(dp482
S'ADV'
p483
F1.0
sS'NOUN'
p484
F0.0
sS'ADJ'
p485
F0.0
s(lp486
(g237
I30
tp487
atp488
a(g244
(dp489
S'PRON'
p490
F1.0
s(lp491
(g244
I31
tp492
atp493
a(g251
(dp494
S'VERB'
p495
F1.0
s(lp496
(g251
I32
tp497
atp498
a(g258
(dp499
S'ADV'
p500
F1.0
s(lp501
(g258
I33
tp502
atp503
a(S'all'
p504
(dp505
S'ADV'
p506
F0.34839
sS'DET'
p507
F0.65161
s(lp508
(g504
I34
tp509
atp510
a(g270
(dp511
S'VERB'
p512
F1.0
s(lp513
(g270
I35
tp514
atp515
a(g278
(dp516
S'ADP'
p517
F1.0
s(lp518
(g278
I36
tp519
atp520
a(g293
(dp521
S'NOUN'
p522
F1.0
s(lp523
(g293
I37
tp524
atp525
a(g52
(dp526
g52
F1.0
s(lp527
(g52
I38
tp528
atp529
asS'nl'
p530
(lp531
(S'ik'
p532
(dp533
S'PRON'
p534
F0.999985
sS'NOUN'
p535
F1.5e-05
s(lp536
(g7
I0
tp537
atp538
a(S'wil'
p539
(dp540
S'VERB'
p541
F0.727603
sS'NOUN'
p542
F0.272397
s(lp543
(g14
I2
tp544
atp545
a(S'allereerst'
p546
(dp547
S'ADJ'
p548
F1.0
s(lp549
(g30
I4
tp550
atp551
a(S'opmerken'
p552
(dp553
S'VERB'
p554
F0.996389
sS'NOUN'
p555
F0.003611
s(lp556
(g38
I6
tp557
atp558
a(S'dat'
p559
(dp560
S'PRON'
p561
F0.10635200000000002
sS'CONJ'
p562
F0.893649
s(lp563
(g47
I7
tp564
atp565
a(S'achter'
p566
(dp567
S'ADV'
p568
F0.114004
sS'ADP'
p569
F0.885996
s(lp570
tp571
a(S'de'
p572
(dp573
S'DET'
p574
F1.0
s(lp575
(g141
I17
tp576
atp577
a(S'intelligente'
p578
(dp579
S'NOUN'
p580
F0.000212
sS'ADJ'
p581
F0.999788
s(lp582
(g95
I10
tp583
atp584
a(S'vervoerssystemen'
p585
(dp586
S'NOUN'
p587
F1.0
s(lp588
(g88
I11
tp589
atp590
a(S'toch'
p591
(dp592
S'ADV'
p593
F1.0
s(lp594
(g133
I18
tp595
atp596
a(S'europese'
p597
(dp598
S'NOUN'
p599
F1.0
s(lp600
(g156
I19
tp601
atp602
a(S'kredieten'
p603
(dp604
S'NOUN'
p605
F1.0
s(lp606
(g148
I20
tp607
atp608
a(S'schuilgaan'
p609
(dp610
S'VERB'
p611
F0.9895539999999999
sS'NOUN'
p612
F0.010446
s(lp613
(g62
I9
tp614
atp615
a(S'en'
p616
(dp617
S'CONJ'
p618
F1.0
s(lp619
(g163
I22
tp620
atp621
a(S'dat'
p622
(dp623
S'PRON'
p624
F0.192468
sS'CONJ'
p625
F0.807532
s(lp626
(g172
I23
tp627
atp628
a(S'ik'
p629
(dp630
S'PRON'
p631
F0.999999
sS'NOUN'
p632
F1e-06
s(lp633
tp634
a(S'een'
p635
(dp636
S'ADJ'
p637
F6e-06
sS'PRON'
p638
F1.4e-05
sS'NUM'
p639
F1e-06
sS'DET'
p640
F0.999979
s(lp641
tp642
a(S'beetje'
p643
(dp644
S'NOUN'
p645
F1.0
s(lp646
(g208
I26
tp647
atp648
a(S'verbluft'
p649
(dp650
S'VERB'
p651
F0.872028
sS'ADJ'
p652
F0.127971
s(lp653
tp654
a(S'was'
p655
(dp656
S'VERB'
p657
F0.999934
sS'NOUN'
p658
F6.5e-05
s(lp659
(g194
I25
tp660
atp661
a(S'toen'
p662
(dp663
S'ADV'
p664
F0.004879
sS'CONJ'
p665
F0.995121
s(lp666
(g216
I27
tp667
atp668
a(S'ik'
p669
(dp670
S'PRON'
p671
F0.999985
sS'NOUN'
p672
F1.5e-05
s(lp673
(g7
I24
tp674
atp675
a(S'ontdekte'
p676
(dp677
S'VERB'
p678
F0.994603
sS'NOUN'
p679
F0.005397
s(lp680
(g230
I29
tp681
atp682
a(S'dat'
p683
(dp684
S'PRON'
p685
F0.009493
sS'CONJ'
p686
F0.990507
s(lp687
(g237
I30
tp688
atp689
a(S'deze'
p690
(dp691
S'PRON'
p692
F1.0
s(lp693
(g244
I31
tp694
atp695
a(S'vrijwel'
p696
(dp697
S'ADV'
p698
F1.0
s(lp699
(g258
I33
tp700
atp701
a(S'geheel'
p702
(dp703
S'NOUN'
p704
F0.127212
sS'ADJ'
p705
F0.872788
s(lp706
(g504
I34
tp707
atp708
a(S'gericht'
p709
(dp710
S'NOUN'
p711
F0.000131
sS'VERB'
p712
F0.957532
sS'ADJ'
p713
F0.042337
s(lp714
tp715
a(S'werden'
p716
(dp717
S'VERB'
p718
F1.0
s(lp719
(g251
I32
tp720
atp721
a(S'op'
p722
(dp723
S'ADV'
p724
F0.011365
sS'ADJ'
p725
F0.0
sS'ADP'
p726
F0.988635
s(lp727
(g278
I36
tp728
atp729
a(S'de'
p730
(dp731
S'DET'
p732
F1.0
s(lp733
tp734
a(S'autosector'
p735
(dp736
S'NOUN'
p737
F1.0
s(lp738
(g270
I35
tp739
atp740
a(g52
(dp741
g52
F1.0
s(lp742
(g52
I38
tp743
atp744
asS'de'
p745
(lp746
(S'ich'
p747
(dp748
S'PRON'
p749
F1.0
s(lp750
(g7
I0
tp751
atp752
a(S'm\xc3\xb6chte'
p753
(dp754
S'VERB'
p755
F1.0
s(lp756
(g14
I2
tp757
atp758
a(S'zu'
p759
(dp760
S'PRT'
p761
F0.214602
sS'ADP'
p762
F0.645782
s(lp763
(g23
I3
tp764
atp765
a(S'beginn'
p766
(dp767
S'VERB'
p768
F1.0
s(lp769
(g30
I4
tp770
atp771
a(S'sagen'
p772
(dp773
S'VERB'
p774
F1.0
s(lp775
(g38
I6
tp776
atp777
a(g50
(dp778
g52
F1.0
s(lp779
(g50
I8
tp780
atp781
a(S'dass'
p782
(dp783
S'CONJ'
p784
F1.0
s(lp785
(g47
I7
tp786
atp787
a(S'hinter'
p788
(dp789
S'ADJ'
p790
F0.00015
sS'ADP'
p791
F0.999847
s(lp792
(g62
I9
tp793
atp794
a(S'den'
p795
(dp796
S'PRON'
p797
F0.000112
sS'DET'
p798
F0.999887
s(lp799
tp800
a(S'intelligenten'
p801
(dp802
S'ADJ'
p803
F1.0
s(lp804
(g95
I10
tp805
atp806
a(S'verkehrssystemen'
p807
(dp808
S'ADJ'
p809
F0.001619
sS'NOUN'
p810
F0.996123
s(lp811
(g88
I11
tp812
atp813
a(S'die'
p814
(dp815
S'PRON'
p816
F0.000286
sS'DET'
p817
F0.999682
s(lp818
(g141
I17
tp819
atp820
a(S'gleichen'
p821
(dp822
S'VERB'
p823
F2e-06
sS'ADJ'
p824
F0.999998
s(lp825
(g133
I18
tp826
atp827
a(S'europ\xc3\xa4ischen'
p828
(dp829
S'ADJ'
p830
F1.0
s(lp831
(g156
I19
tp832
atp833
a(S'fonds'
p834
(dp835
S'ADJ'
p836
F0.003519
sS'NOUN'
p837
F0.996481
s(lp838
tp839
a(S'stehen'
p840
(dp841
S'VERB'
p842
F1.0
s(lp843
(g393
I15
tp844
atp845
a(S'und'
p846
(dp847
S'CONJ'
p848
F1.0
s(lp849
(g163
I22
tp850
atp851
a(S'dass'
p852
(dp853
S'CONJ'
p854
F1.0
s(lp855
(g172
I23
tp856
atp857
a(S'ich'
p858
(dp859
S'PRON'
p860
F1.0
s(lp861
(g7
I24
tp862
atp863
a(S'etwas'
p864
(dp865
S'ADV'
p866
F0.97241
sS'PRON'
p867
F0.023298
s(lp868
(g208
I26
tp869
atp870
a(S'erstaunt'
p871
(dp872
S'VERB'
p873
F0.860795
sS'ADJ'
p874
F0.138601
s(lp875
(g216
I27
tp876
atp877
a(S'war'
p878
(dp879
S'VERB'
p880
F1.0
s(lp881
(g194
I25
tp882
atp883
a(S'herauszufinden'
p884
(dp885
S'VERB'
p886
F1.0
s(lp887
(g230
I29
tp888
atp889
a(g50
(dp890
g52
F1.0
s(lp891
(g50
I21
tp892
atp893
a(S'wie'
p894
(dp895
S'CONJ'
p896
F0.9994810000000001
s(lp897
(g237
I30
tp898
atp899
a(S'die'
p900
(dp901
S'PRON'
p902
F0.000928
sS'DET'
p903
F0.99895
s(lp904
(g244
I31
tp905
atp906
a(S'fonds'
p907
(dp908
S'ADJ'
p909
F0.044555
sS'NOUN'
p910
F0.955445
s(lp911
(g148
I20
tp912
atp913
a(S'praktisch'
p914
(dp915
S'ADJ'
p916
F1.0
s(lp917
(g258
I33
tp918
atp919
a(S'alle'
p920
(dp921
S'PRON'
p922
F1.0
s(lp923
(g504
I34
tp924
atp925
a(S'in'
p926
(dp927
S'ADP'
p928
F1.0
s(lp929
tp930
a(S'richtung'
p931
(dp932
S'ADJ'
p933
F0.184957
sS'NOUN'
p934
F0.814708
s(lp935
(g278
I36
tp936
atp937
a(S'autos'
p938
(dp939
S'ADJ'
p940
F0.016025
sS'NOUN'
p941
F0.983288
s(lp942
(g293
I37
tp943
atp944
a(S'gelenkt'
p945
(dp946
S'VERB'
p947
F1.0
s(lp948
(g270
I35
tp949
atp950
a(S'wurden'
p951
(dp952
S'VERB'
p953
F1.0
s(lp954
(g251
I32
tp955
atp956
a(g52
(dp957
g52
F1.0
s(lp958
(g52
I38
tp959
atp960
asS'it'
p961
(lp962
(S'desidero'
p963
(dp964
S'VERB'
p965
F1.0
s(lp966
(g14
I2
tp967
atp968
a(S'cominciare'
p969
(dp970
S'VERB'
p971
F1.0
s(lp972
(g30
I4
tp973
atp974
a(S'osservando'
p975
(dp976
S'VERB'
p977
F1.0
s(lp978
(g38
I6
tp979
atp980
a(S'che'
p981
(dp982
S'PRON'
p983
F0.962806
sS'CONJ'
p984
F0.027846
sS'ADJ'
p985
F0.009348
s(lp986
(g47
I7
tp987
atp988
a(g50
(dp989
g52
F1.0
s(lp990
(g50
I8
tp991
atp992
a(S'dietro'
p993
(dp994
S'ADV'
p995
F0.449943
sS'ADP'
p996
F0.550057
s(lp997
tp998
a(g7
(dp999
S'DET'
p1000
F1.0
s(lp1001
tp1002
a(S'sistemi'
p1003
(dp1004
S'VERB'
p1005
F0.00037
sS'NOUN'
p1006
F0.999631
s(lp1007
tp1008
a(S'intelligenti'
p1009
(dp1010
S'NOUN'
p1011
F0.042075
sS'ADJ'
p1012
F0.957925
s(lp1013
(g95
I10
tp1014
atp1015
a(S'di'
p1016
(dp1017
S'CONJ'
p1018
F4e-06
sS'ADP'
p1019
F0.999996
s(lp1020
(g76
I12
tp1021
atp1022
a(S'trasporto'
p1023
(dp1024
S'VERB'
p1025
F2.2e-05
sS'NOUN'
p1026
F0.999978
s(lp1027
(g88
I11
tp1028
atp1029
a(g50
(dp1030
g52
F1.0
s(lp1031
(g50
I13
tp1032
atp1033
a(S'si'
p1034
(dp1035
S'PRON'
p1036
F0.9999960000000001
sS'NOUN'
p1037
F4e-06
s(lp1038
(g106
I14
tp1039
atp1040
a(S'celano'
p1041
(dp1042
S'VERB'
p1043
F1.0
s(lp1044
(g62
I9
tp1045
atp1046
a(S'comunque'
p1047
(dp1048
S'ADV'
p1049
F1.0
s(lp1050
(g133
I18
tp1051
atp1052
a(S'finanziamenti'
p1053
(dp1054
S'NOUN'
p1055
F1.0
s(lp1056
(g148
I20
tp1057
atp1058
a(S'comunitari'
p1059
(dp1060
S'NOUN'
p1061
F0.016345
sS'ADJ'
p1062
F0.983655
s(lp1063
(g156
I19
tp1064
atp1065
a(g50
(dp1066
g52
F1.0
s(lp1067
(g50
I21
tp1068
atp1069
a(S'che'
p1070
(dp1071
S'PRON'
p1072
F0.924555
sS'CONJ'
p1073
F0.070613
sS'ADJ'
p1074
F0.004832
s(lp1075
(g172
I23
tp1076
atp1077
a(g50
(dp1078
g52
F1.0
s(lp1079
tp1080
a(S'con'
p1081
(dp1082
S'ADP'
p1083
F1.0
s(lp1084
(g216
I27
tp1085
atp1086
a(S'mia'
p1087
(dp1088
S'PRON'
p1089
F1.0
s(lp1090
(g216
I27
tp1091
atp1092
a(S'grande'
p1093
(dp1094
S'NOUN'
p1095
F0.023476
sS'ADJ'
p1096
F0.976524
s(lp1097
tp1098
a(S'sorpresa'
p1099
(dp1100
S'ADJ'
p1101
F0.104588
sS'VERB'
p1102
F0.045181
sS'NOUN'
p1103
F0.850232
s(lp1104
(g216
I27
tp1105
atp1106
a(g50
(dp1107
g52
F1.0
s(lp1108
tp1109
a(S'ho'
p1110
(dp1111
S'VERB'
p1112
F1.0
s(lp1113
(g7
I24
tp1114
atp1115
a(S'scoperto'
p1116
(dp1117
S'NOUN'
p1118
F0.006629
sS'VERB'
p1119
F0.982065
sS'ADJ'
p1120
F0.011306
s(lp1121
(g230
I29
tp1122
atp1123
a(S'essere'
p1124
(dp1125
S'VERB'
p1126
F0.962401
sS'NOUN'
p1127
F0.037599
s(lp1128
(g223
I28
tp1129
atp1130
a(S'per'
p1131
(dp1132
S'CONJ'
p1133
F0.023743
sS'ADP'
p1134
F0.976257
s(lp1135
(g237
I30
tp1136
atp1137
a(S'lo'
p1138
(dp1139
S'PRON'
p1140
F0.546833
sS'DET'
p1141
F0.453167
s(lp1142
(g244
I31
tp1143
atp1144
a(S'pi\xc3\xb9'
p1145
(dp1146
S'ADV'
p1147
F0.992703
sS'NOUN'
p1148
F0.000884
sS'ADJ'
p1149
F0.006413
sS'ADP'
p1150
F1e-06
s(lp1151
(g258
I33
tp1152
atp1153
a(S'destinati'
p1154
(dp1155
S'VERB'
p1156
F1.0
s(lp1157
(g270
I35
tp1158
atp1159
a(S'alle'
p1160
(dp1161
S'ADP'
p1162
F1.0
s(lp1163
(g278
I36
tp1164
atp1165
a(S'automobili'
p1166
(dp1167
S'ADJ'
p1168
F0.482731
sS'NOUN'
p1169
F0.517269
s(lp1170
(g293
I37
tp1171
atp1172
a(g52
(dp1173
g52
F1.0
s(lp1174
(g52
I38
tp1175
atp1176
asS'sk'
p1177
(lp1178
(S'na'
p1179
(dp1180
g180
F0.000193
sS'CONJ'
p1181
F1.5e-05
sS'ADP'
p1182
F0.999793
sS'PRT'
p1183
F0.0
s(lp1184
(g23
I3
tp1185
atp1186
a(S'za\xc4\x8diatok'
p1187
(dp1188
S'NOUN'
p1189
F1.0
s(lp1190
(g30
I4
tp1191
atp1192
a(S'by'
p1193
(dp1194
S'PRT'
p1195
F0.99999
sg180
F9.999999999999999e-06
s(lp1196
(g307
I1
tp1197
atp1198
a(S'som'
p1199
(dp1200
S'VERB'
p1201
F1.0
s(lp1202
tp1203
a(S'r\xc3\xa1d'
p1204
(dp1205
S'ADV'
p1206
F0.048849
sS'NOUN'
p1207
F0.411569
sS'ADJ'
p1208
F0.515069
sg180
F0.024513
s(lp1209
(g14
I2
tp1210
atp1211
a(S'povedal'
p1212
(dp1213
S'VERB'
p1214
F1.0
s(lp1215
(g38
I6
tp1216
atp1217
a(g50
(dp1218
g52
F1.0
s(lp1219
(g50
I8
tp1220
atp1221
a(S'\xc5\xbee'
p1222
(dp1223
g180
F0.0009
sS'CONJ'
p1224
F0.9991
s(lp1225
(g47
I7
tp1226
atp1227
a(S'za'
p1228
(dp1229
S'PRT'
p1230
F0.000497
sS'ADP'
p1231
F0.999321
sg180
F0.00018199999999999998
s(lp1232
(g62
I9
tp1233
atp1234
a(S'inteligentn\xc3\xbdmi'
p1235
(dp1236
S'ADJ'
p1237
F1.0
s(lp1238
(g95
I10
tp1239
atp1240
a(S'dopravn\xc3\xbdmi'
p1241
(dp1242
S'ADJ'
p1243
F1.0
s(lp1244
(g88
I11
tp1245
atp1246
a(S'syst\xc3\xa9mami'
p1247
(dp1248
S'NOUN'
p1249
F1.0
s(lp1250
(g76
I12
tp1251
atp1252
a(S'stoja'
p1253
(dp1254
S'VERB'
p1255
F0.999691
sS'NOUN'
p1256
F0.000309
s(lp1257
(g393
I15
tp1258
atp1259
a(S'rovnak\xc3\xa9'
p1260
(dp1261
S'ADJ'
p1262
F1.0
s(lp1263
(g133
I18
tp1264
atp1265
a(S'eur\xc3\xb3pske'
p1266
(dp1267
S'ADJ'
p1268
F1.0
s(lp1269
(g156
I19
tp1270
atp1271
a(S'fondy'
p1272
(dp1273
S'NOUN'
p1274
F1.0
s(lp1275
(g148
I20
tp1276
atp1277
a(g114
(dp1278
g180
F0.000545
sS'CONJ'
p1279
F0.999417
sS'NOUN'
p1280
F3e-05
sS'ADP'
p1281
F0.0
sS'PRT'
p1282
F8e-06
s(lp1283
(g163
I22
tp1284
atp1285
a(S'\xc5\xbee'
p1286
(dp1287
g180
F0.000985
sS'CONJ'
p1288
F0.999015
s(lp1289
(g172
I23
tp1290
atp1291
a(S'som'
p1292
(dp1293
S'VERB'
p1294
F1.0
s(lp1295
(g7
I24
tp1296
atp1297
a(S'trochu'
p1298
(dp1299
S'ADV'
p1300
F0.967222
sS'NUM'
p1301
F0.031849
sS'NOUN'
p1302
F0.00093
s(lp1303
(g208
I26
tp1304
atp1305
a(S'\xc5\xbeasol'
p1306
(dp1307
S'VERB'
p1308
F1.0
s(lp1309
(g216
I27
tp1310
atp1311
a(g50
(dp1312
g52
F1.0
s(lp1313
tp1314
a(S'ke\xc4\x8f'
p1315
(dp1316
g180
F0.000246
sS'CONJ'
p1317
F0.999754
s(lp1318
tp1319
a(S'som'
p1320
(dp1321
S'VERB'
p1322
F1.0
s(lp1323
(g216
I27
tp1324
atp1325
a(S'zistil'
p1326
(dp1327
S'VERB'
p1328
F1.0
s(lp1329
(g230
I29
tp1330
atp1331
a(g50
(dp1332
g52
F1.0
s(lp1333
tp1334
a(S'ako'
p1335
(dp1336
S'PRON'
p1337
F0.036228
sS'CONJ'
p1338
F0.963563
sg180
F0.000209
s(lp1339
(g237
I30
tp1340
atp1341
a(S'prakticky'
p1342
(dp1343
S'ADV'
p1344
F0.105203
sg180
F0.894797
s(lp1345
(g258
I33
tp1346
atp1347
a(S'v\xc5\xa1etky'
p1348
(dp1349
S'PRON'
p1350
F1.0
s(lp1351
(g504
I34
tp1352
atp1353
a(S'z'
p1354
(dp1355
g180
F1.5e-05
sS'NOUN'
p1356
F6.5e-05
sS'ADP'
p1357
F0.99992
s(lp1358
(g251
I32
tp1359
atp1360
a(S'nich'
p1361
(dp1362
S'PRON'
p1363
F1.0
s(lp1364
(g244
I31
tp1365
atp1366
a(S'smeruj\xc3\xba'
p1367
(dp1368
S'VERB'
p1369
F1.0
s(lp1370
(g270
I35
tp1371
atp1372
a(S'k'
p1373
(dp1374
g180
F0.000274
sS'NOUN'
p1375
F2.4999999999999998e-05
sS'ADP'
p1376
F0.9997
s(lp1377
(g278
I36
tp1378
atp1379
a(S'aut\xc3\xa1m'
p1380
(dp1381
S'NOUN'
p1382
F1.0
s(lp1383
(g293
I37
tp1384
atp1385
a(g52
(dp1386
g52
F1.0
s(lp1387
(g52
I38
tp1388
atp1389
asS'pl'
p1390
(lp1391
(S'na'
p1392
(dp1393
g180
F2.3e-05
sS'VERB'
p1394
F3.1e-05
sS'NOUN'
p1395
F6e-06
sS'ADP'
p1396
F0.9999250000000001
sS'PRT'
p1397
F1.5e-05
s(lp1398
(g23
I3
tp1399
atp1400
a(S'pocz\xc4\x85tek'
p1401
(dp1402
S'NOUN'
p1403
F1.0
s(lp1404
(g30
I4
tp1405
atp1406
a(S'chcia\xc5\x82bym'
p1407
(dp1408
S'ADV'
p1409
F0.07611
sS'ADJ'
p1410
F0.03664
sS'VERB'
p1411
F0.8085159999999998
sS'NOUN'
p1412
F0.078732
s(lp1413
(g14
I2
tp1414
atp1415
a(S'powiedzie\xc4\x87'
p1416
(dp1417
S'VERB'
p1418
F1.0
s(lp1419
(g38
I6
tp1420
atp1421
a(g50
(dp1422
g180
F0.0
sg52
F1.0
s(lp1423
(g50
I8
tp1424
atp1425
a(S'\xc5\xbce'
p1426
(dp1427
S'PRT'
p1428
F0.000523
sS'CONJ'
p1429
F0.999476
s(lp1430
(g47
I7
tp1431
atp1432
a(S'za'
p1433
(dp1434
S'PRT'
p1435
F0.081443
sS'VERB'
p1436
F6e-06
sS'NOUN'
p1437
F3.2e-05
sS'ADP'
p1438
F0.918515
sg180
F2e-06
s(lp1439
tp1440
a(S'inteligentnymi'
p1441
(dp1442
S'ADV'
p1443
F3.1e-05
sS'NOUN'
p1444
F0.0003190000000000001
sS'VERB'
p1445
F0.022155000000000015
sS'ADJ'
p1446
F0.9774960000000001
s(lp1447
(g95
I10
tp1448
atp1449
a(S'systemami'
p1450
(dp1451
S'NOUN'
p1452
F1.0
s(lp1453
(g76
I12
tp1454
atp1455
a(S'transportowymi'
p1456
(dp1457
S'ADJ'
p1458
F1.0
s(lp1459
(g88
I11
tp1460
atp1461
a(S'kryj\xc4\x85'
p1462
(dp1463
S'VERB'
p1464
F1.0
s(lp1465
(g62
I9
tp1466
atp1467
a(S'si\xc4\x99'
p1468
(dp1469
S'PRT'
p1470
F1.0
s(lp1471
(g393
I15
tp1472
atp1473
a(S'fundusze'
p1474
(dp1475
S'NOUN'
p1476
F1.0
s(lp1477
(g148
I20
tp1478
atp1479
a(S'europejskie'
p1480
(dp1481
S'ADJ'
p1482
F0.999999
s(lp1483
(g156
I19
tp1484
atp1485
a(g50
(dp1486
g180
F0.0
sg52
F1.0
s(lp1487
(g50
I21
tp1488
atp1489
a(S'wi\xc4\x99c'
p1490
(dp1491
S'PRT'
p1492
F0.001357
sS'CONJ'
p1493
F0.998643
s(lp1494
(g163
I22
tp1495
atp1496
a(S'jestem'
p1497
(dp1498
S'VERB'
p1499
F1.0
s(lp1500
(g7
I24
tp1501
atp1502
a(S'troch\xc4\x99'
p1503
(dp1504
S'ADV'
p1505
F0.992125
sS'PRT'
p1506
F0.000446
sS'NUM'
p1507
F0.007428
s(lp1508
(g208
I26
tp1509
atp1510
a(S'zaskoczony'
p1511
(dp1512
S'VERB'
p1513
F1.0
s(lp1514
(g216
I27
tp1515
atp1516
a(g50
(dp1517
g180
F0.0
sg52
F1.0
s(lp1518
tp1519
a(S'\xc5\xbce'
p1520
(dp1521
S'PRT'
p1522
F0.000403
sS'CONJ'
p1523
F0.9995959999999999
s(lp1524
(g172
I23
tp1525
atp1526
a(S'w'
p1527
(dp1528
S'ADJ'
p1529
F0.0
sg180
F0.0
sS'NOUN'
p1530
F0.0
sS'ADP'
p1531
F1.0
s(lp1532
(g237
I30
tp1533
atp1534
a(S'praktyce'
p1535
(dp1536
S'NOUN'
p1537
F1.0
s(lp1538
(g258
I33
tp1539
atp1540
a(S'wszystkie'
p1541
(dp1542
S'ADJ'
p1543
F0.999999
s(lp1544
(g504
I34
tp1545
atp1546
a(S'one'
p1547
(dp1548
S'PRON'
p1549
F0.9910409999999998
sS'ADJ'
p1550
F0.00868
sg180
F3e-06
sS'NOUN'
p1551
F0.000276
s(lp1552
(g244
I31
tp1553
atp1554
a(S'zosta\xc5\x82y'
p1555
(dp1556
S'VERB'
p1557
F1.0
s(lp1558
(g251
I32
tp1559
atp1560
a(S'przeznaczone'
p1561
(dp1562
S'VERB'
p1563
F0.9999999999999999
s(lp1564
(g270
I35
tp1565
atp1566
a(S'na'
p1567
(dp1568
S'PRT'
p1569
F5e-06
sS'VERB'
p1570
F2e-06
sS'NOUN'
p1571
F0.0
sS'ADP'
p1572
F0.999988
sg180
F4e-06
s(lp1573
(g278
I36
tp1574
atp1575
a(S'samochody'
p1576
(dp1577
S'NOUN'
p1578
F1.0
s(lp1579
(g293
I37
tp1580
atp1581
a(g52
(dp1582
g52
F1.0
s(lp1583
(g52
I38
tp1584
atp1585
asS'sl'
p1586
(lp1587
(S'najprej'
p1588
(dp1589
S'ADV'
p1590
F1.0
s(lp1591
(g30
I4
tp1592
atp1593
a(S'bi'
p1594
(dp1595
g180
F0.000101
sS'VERB'
p1596
F0.999899
s(lp1597
(g307
I1
tp1598
atp1599
a(S'rad'
p1600
(dp1601
S'ADV'
p1602
F1.0
s(lp1603
(g14
I2
tp1604
atp1605
a(S'povedal'
p1606
(dp1607
S'VERB'
p1608
F1.0
s(lp1609
(g38
I6
tp1610
atp1611
a(g50
(dp1612
g52
F1.0
s(lp1613
tp1614
a(S'da'
p1615
(dp1616
S'PRT'
p1617
F2e-06
sS'CONJ'
p1618
F0.999988
sS'VERB'
p1619
F1e-05
sg180
F0.0
s(lp1620
(g47
I7
tp1621
atp1622
a(S'so'
p1623
(dp1624
g180
F2.8e-05
sS'VERB'
p1625
F0.999971
s(lp1626
(g50
I8
tp1627
atp1628
a(S'za'
p1629
(dp1630
S'ADV'
p1631
F0.0003
sg180
F2.2e-05
sS'ADP'
p1632
F0.9996780000000001
s(lp1633
(g62
I9
tp1634
atp1635
a(S'inteligentnimi'
p1636
(dp1637
S'ADV'
p1638
F6e-06
sS'NOUN'
p1639
F0.000434
sS'PRON'
p1640
F5.1e-05
sS'NUM'
p1641
F0.000225
sS'ADJ'
p1642
F0.9992780000000001
sS'VERB'
p1643
F1e-06
s(lp1644
(g95
I10
tp1645
atp1646
a(S'prometnimi'
p1647
(dp1648
S'ADV'
p1649
F0.0
sS'NOUN'
p1650
F0.00038599999999999995
sS'PRON'
p1651
F0.0
sS'NUM'
p1652
F2e-06
sS'ADJ'
p1653
F0.999606
sS'VERB'
p1654
F0.0
s(lp1655
(g88
I11
tp1656
atp1657
a(S'sistemi'
p1658
(dp1659
S'NOUN'
p1660
F1.0
s(lp1661
(g76
I12
tp1662
atp1663
a(S'ista'
p1664
(dp1665
S'PRON'
p1666
F1.0
s(lp1667
(g133
I18
tp1668
atp1669
a(S'evropska'
p1670
(dp1671
S'ADJ'
p1672
F0.999999
s(lp1673
(g156
I19
tp1674
atp1675
a(S'sredstva'
p1676
(dp1677
S'NOUN'
p1678
F1.0
s(lp1679
(g148
I20
tp1680
atp1681
a(S'in'
p1682
(dp1683
S'ADV'
p1684
F4.3e-05
sg180
F1.1e-05
sS'CONJ'
p1685
F0.999941
sS'NOUN'
p1686
F6e-06
s(lp1687
(g163
I22
tp1688
atp1689
a(S'da'
p1690
(dp1691
S'PRT'
p1692
F0.000219
sS'CONJ'
p1693
F0.999267
sS'VERB'
p1694
F0.000505
sg180
F9e-06
s(lp1695
(g172
I23
tp1696
atp1697
a(S'sem'
p1698
(dp1699
S'ADV'
p1700
F0.005681
sS'PRT'
p1701
F0.001077
sS'VERB'
p1702
F0.993242
s(lp1703
(g7
I24
tp1704
atp1705
a(S'nekoliko'
p1706
(dp1707
S'ADV'
p1708
F1.0
s(lp1709
(g208
I26
tp1710
atp1711
a(S'presene\xc4\x8den'
p1712
(dp1713
S'ADJ'
p1714
F1.0
s(lp1715
tp1716
a(S'ob'
p1717
(dp1718
g180
F5e-06
sS'ADP'
p1719
F0.999995
s(lp1720
(g216
I27
tp1721
atp1722
a(S'ugotovitvi'
p1723
(dp1724
S'NOUN'
p1725
F1.0
s(lp1726
(g230
I29
tp1727
atp1728
a(g50
(dp1729
g52
F1.0
s(lp1730
tp1731
a(S'kako'
p1732
(dp1733
S'ADV'
p1734
F0.864155
sS'PRON'
p1735
F0.135846
s(lp1736
(g237
I30
tp1737
atp1738
a(S'so'
p1739
(dp1740
g180
F9.999999999999999e-05
sS'VERB'
p1741
F0.999899
s(lp1742
(g251
I32
tp1743
atp1744
a(S'prakti\xc4\x8dno'
p1745
(dp1746
S'ADV'
p1747
F0.996397
sS'ADJ'
p1748
F0.0036030000000000003
s(lp1749
(g258
I33
tp1750
atp1751
a(S'vsa'
p1752
(dp1753
S'PRON'
p1754
F1.0
s(lp1755
(g504
I34
tp1756
atp1757
a(S'usmerjena'
p1758
(dp1759
S'ADJ'
p1760
F1.0
s(lp1761
(g270
I35
tp1762
atp1763
a(S'proti'
p1764
(dp1765
S'ADV'
p1766
F0.001284
sS'ADP'
p1767
F0.998716
s(lp1768
(g278
I36
tp1769
atp1770
a(S'avtomobilom'
p1771
(dp1772
S'NOUN'
p1773
F1.0
s(lp1774
(g293
I37
tp1775
atp1776
a(g52
(dp1777
g52
F1.0
s(lp1778
(g52
I38
tp1779
atp1780
asS'es'
p1781
(lp1782
(S'me'
p1783
(dp1784
S'PRON'
p1785
F0.999999
sS'NOUN'
p1786
F1e-06
s(lp1787
(g7
I0
tp1788
atp1789
a(S'gustar\xc3\xada'
p1790
(dp1791
S'VERB'
p1792
F1.0
s(lp1793
(g14
I2
tp1794
atp1795
a(S'empezar'
p1796
(dp1797
S'VERB'
p1798
F1.0
s(lp1799
(g30
I4
tp1800
atp1801
a(S'diciendo'
p1802
(dp1803
S'VERB'
p1804
F1.0
s(lp1805
(g38
I6
tp1806
atp1807
a(S'que'
p1808
(dp1809
g180
F0.0
sS'CONJ'
p1810
F1.0
s(lp1811
(g47
I7
tp1812
atp1813
a(g50
(dp1814
g52
F1.0
s(lp1815
(g50
I8
tp1816
atp1817
a(S'detr\xc3\xa1s'
p1818
(dp1819
S'ADV'
p1820
F1.0
s(lp1821
tp1822
a(S'de'
p1823
(dp1824
g180
F0.0
sS'CONJ'
p1825
F0.000119
sS'ADP'
p1826
F0.999881
s(lp1827
tp1828
a(S'los'
p1829
(dp1830
S'PRON'
p1831
F0.0
sS'DET'
p1832
F1.0
s(lp1833
tp1834
a(S'sistemas'
p1835
(dp1836
S'NOUN'
p1837
F1.0
s(lp1838
(g76
I12
tp1839
atp1840
a(S'de'
p1841
(dp1842
g180
F2.9e-05
sS'CONJ'
p1843
F0.000449
sS'ADP'
p1844
F0.999522
s(lp1845
(g62
I9
tp1846
atp1847
a(S'transporte'
p1848
(dp1849
S'VERB'
p1850
F8e-06
sS'NOUN'
p1851
F0.999992
s(lp1852
(g88
I11
tp1853
atp1854
a(S'inteligentes'
p1855
(dp1856
S'ADJ'
p1857
F1.0
s(lp1858
(g95
I10
tp1859
atp1860
a(g50
(dp1861
g52
F1.0
s(lp1862
(g50
I13
tp1863
atp1864
a(S'hay'
p1865
(dp1866
S'VERB'
p1867
F1.0
s(lp1868
(g106
I14
tp1869
atp1870
a(S'una'
p1871
(dp1872
S'DET'
p1873
F1.0
s(lp1874
tp1875
a(S'serie'
p1876
(dp1877
S'NOUN'
p1878
F1.0
s(lp1879
(g393
I15
tp1880
atp1881
a(S'fondos'
p1882
(dp1883
S'NOUN'
p1884
F1.0
s(lp1885
(g148
I20
tp1886
atp1887
a(S'europeos'
p1888
(dp1889
S'NOUN'
p1890
F0.009092
sS'ADJ'
p1891
F0.990908
s(lp1892
(g156
I19
tp1893
atp1894
a(g50
(dp1895
g52
F1.0
s(lp1896
(g50
I21
tp1897
atp1898
a(g109
(dp1899
g180
F0.000728
sS'CONJ'
p1900
F0.999272
s(lp1901
(g163
I22
tp1902
atp1903
a(S'que'
p1904
(dp1905
g180
F0.0
sS'CONJ'
p1906
F1.0
s(lp1907
(g172
I23
tp1908
atp1909
a(S'me'
p1910
(dp1911
S'PRON'
p1912
F1.0
sS'NOUN'
p1913
F0.0
s(lp1914
(g7
I24
tp1915
atp1916
a(S'sorprendi\xc3\xb3'
p1917
(dp1918
S'VERB'
p1919
F1.0
s(lp1920
(g216
I27
tp1921
atp1922
a(S'bastante'
p1923
(dp1924
S'ADV'
p1925
F0.859397
sS'ADJ'
p1926
F0.140603
s(lp1927
(g208
I26
tp1928
atp1929
a(S'descubrir'
p1930
(dp1931
S'VERB'
p1932
F1.0
s(lp1933
(g230
I29
tp1934
atp1935
a(S'que'
p1936
(dp1937
g180
F0.0
sS'CONJ'
p1938
F1.0
s(lp1939
(g244
I31
tp1940
atp1941
a(S'casi'
p1942
(dp1943
S'ADV'
p1944
F1.0
s(lp1945
(g258
I33
tp1946
atp1947
a(S'todos'
p1948
(dp1949
S'ADJ'
p1950
F1.0
s(lp1951
(g504
I34
tp1952
atp1953
a(S'se'
p1954
(dp1955
S'PRON'
p1956
F1.0
sS'VERB'
p1957
F0.0
s(lp1958
(g251
I32
tp1959
atp1960
a(S'canalizaban'
p1961
(dp1962
S'VERB'
p1963
F1.0
s(lp1964
(g270
I35
tp1965
atp1966
a(S'hacia'
p1967
(dp1968
S'VERB'
p1969
F2.2e-05
sS'ADP'
p1970
F0.999978
s(lp1971
(g278
I36
tp1972
atp1973
a(S'los'
p1974
(dp1975
S'PRON'
p1976
F0.0
sS'DET'
p1977
F1.0
s(lp1978
tp1979
a(S'coches'
p1980
(dp1981
S'NOUN'
p1982
F1.0
s(lp1983
(g293
I37
tp1984
atp1985
a(g52
(dp1986
g52
F1.0
s(lp1987
(g52
I38
tp1988
atp1989
as.