(dp0
S'fr'
p1
(lp2
(S'toutefois'
p3
(dp4
S'ADV'
p5
F1.0
s(lp6
(S'however'
p7
I0
tp8
atp9
a(S','
p10
(dp11
S'.'
p12
F1.0
s(lp13
(g10
I1
tp14
atp15
a(S'le'
p16
(dp17
S'PRON'
p18
F0.000368
sS'DET'
p19
F0.999632
s(lp20
(S'the'
p21
I2
tp22
atp23
a(S'r\xc3\xa8glement'
p24
(dp25
S'NOUN'
p26
F1.0
s(lp27
(S'regulation'
p28
I3
tp29
atp30
a(S'pr\xc3\xa9voit'
p31
(dp32
S'VERB'
p33
F1.0
s(lp34
(S'provides'
p35
I4
tp36
atp37
a(S'des'
p38
(dp39
S'DET'
p40
F0.000244
sS'ADP'
p41
F0.999756
s(lp42
(S'for'
p43
I5
tp44
atp45
a(S'd\xc3\xa9rogations'
p46
(dp47
S'NOUN'
p48
F1.0
s(lp49
(S'derogations'
p50
I7
tp51
atp52
a(S'provisoires'
p53
(dp54
S'ADJ'
p55
F1.0
s(lp56
(S'temporary'
p57
I6
tp58
atp59
a(S'que'
p60
(dp61
S'ADV'
p62
F0.005099
sS'PRON'
p63
F0.027416
sS'CONJ'
p64
F0.967484
s(lp65
(S'which'
p66
I8
tp67
atp68
a(S'certains'
p69
(dp70
S'PRON'
p71
F0.947129
sS'ADJ'
p72
F0.052871
s(lp73
(S'some'
p74
I9
tp75
atp76
a(S'\xc3\x89tats'
p77
(dp78
S'NOUN'
p79
F1.0
s(lp80
(S'states'
p81
I11
tp82
atp83
a(S'membres'
p84
(dp85
S'VERB'
p86
F0.016281
sS'NOUN'
p87
F0.983719
s(lp88
(S'member'
p89
I10
tp90
atp91
a(S'peuvent'
p92
(dp93
S'VERB'
p94
F1.0
s(lp95
(S'can'
p96
I12
tp97
atp98
a(S'appliquer'
p99
(dp100
S'VERB'
p101
F1.0
s(lp102
(S'apply'
p103
I13
tp104
atp105
a(S"jusqu'"
p106
(dp107
S'ADJ'
p108
F0.00225
sS'VERB'
p109
F0.011329
sS'NOUN'
p110
F0.986421
s(lp111
tp112
a(S'au'
p113
(dp114
S'ADP'
p115
F1.0
s(lp116
(S'until'
p117
I14
tp118
atp119
a(S'3'
p120
(dp121
S'X'
p122
F7.1e-05
sS'NUM'
p123
F0.999929
s(lp124
(g120
I15
tp125
atp126
a(S'juillet'
p127
(dp128
S'NOUN'
p129
F1.0
s(lp130
(S'july'
p131
I16
tp132
atp133
a(S'2008'
p134
(dp135
g122
F0.004613
sS'NUM'
p136
F0.995387
s(lp137
(S'2008'
p138
I17
tp139
atp140
a(S'('
p141
(dp142
g12
F1.0
s(lp143
(g141
I18
tp144
atp145
a(S'article'
p146
(dp147
S'VERB'
p148
F0.255543
sS'NOUN'
p149
F0.744457
s(lp150
(S'article'
p151
I19
tp152
atp153
a(S'6'
p154
(dp155
g122
F0.003618
sS'NUM'
p156
F0.996382
s(lp157
(g154
I20
tp158
atp159
a(g10
(dp160
g12
F1.0
s(lp161
tp162
a(S'paragraphe'
p163
(dp164
S'NOUN'
p165
F1.0
s(lp166
(g141
I21
tp167
atp168
a(S'1'
p169
(dp170
g122
F0.004613
sS'NUM'
p171
F0.995387
s(lp172
(g169
I22
tp173
atp174
a(g10
(dp175
g12
F1.0
s(lp176
(S')'
p177
I23
tp178
atp179
a(S'et'
p180
(dp181
S'CONJ'
p182
F1.0
s(lp183
(S'and'
p184
I24
tp185
atp186
a(S'article'
p187
(dp188
S'VERB'
p189
F0.515643
sS'NOUN'
p190
F0.484357
s(lp191
(S'article'
p192
I25
tp193
atp194
a(S'16'
p195
(dp196
g122
F0.002606
sS'NUM'
p197
F0.997394
s(lp198
(S'16'
p199
I26
tp200
atp201
a(g177
(dp202
g12
F1.0
s(lp203
(g177
I27
tp204
atp205
a(g12
(dp206
g12
F1.0
s(lp207
(g12
I28
tp208
atp209
asS'en'
p210
(lp211
(g7
(dp212
S'ADV'
p213
F1.0
s(lp214
(g7
I0
tp215
atp216
a(g10
(dp217
g12
F1.0
s(lp218
(g10
I1
tp219
atp220
a(g21
(dp221
S'NOUN'
p222
F4e-06
sS'DET'
p223
F0.999996
s(lp224
(g21
I2
tp225
atp226
a(g28
(dp227
S'NOUN'
p228
F1.0
s(lp229
(g28
I3
tp230
atp231
a(g35
(dp232
S'VERB'
p233
F1.0
s(lp234
(g35
I4
tp235
atp236
a(g43
(dp237
S'ADP'
p238
F1.0
s(lp239
(g43
I5
tp240
atp241
a(g57
(dp242
S'ADJ'
p243
F1.0
s(lp244
(g57
I6
tp245
atp246
a(g50
(dp247
S'NOUN'
p248
F1.0
s(lp249
(g50
I7
tp250
atp251
a(g66
(dp252
S'DET'
p253
F1.0
s(lp254
(g66
I8
tp255
atp256
a(g74
(dp257
S'ADV'
p258
F0.000235
sS'DET'
p259
F0.999765
s(lp260
(g74
I9
tp261
atp262
a(g89
(dp263
S'NOUN'
p264
F1.0
s(lp265
(g89
I10
tp266
atp267
a(g81
(dp268
S'VERB'
p269
F0.001509
sS'NOUN'
p270
F0.998491
s(lp271
(g81
I11
tp272
atp273
a(g96
(dp274
S'VERB'
p275
F0.999999
sS'NOUN'
p276
F1e-06
s(lp277
(g96
I12
tp278
atp279
a(g103
(dp280
S'VERB'
p281
F1.0
s(lp282
(g103
I13
tp283
atp284
a(g117
(dp285
S'ADP'
p286
F1.0
s(lp287
(g117
I14
tp288
atp289
a(g120
(dp290
g122
F0.0
sS'NUM'
p291
F1.0
s(lp292
(g120
I15
tp293
atp294
a(g131
(dp295
S'ADV'
p296
F0.848298
sS'NOUN'
p297
F0.08027799999999999
sS'VERB'
p298
F0.000223
sS'ADJ'
p299
F0.071202
s(lp300
(g131
I16
tp301
atp302
a(g138
(dp303
S'ADV'
p304
F0.000148
sS'ADJ'
p305
F0.009707
sS'NUM'
p306
F0.974131
sS'NOUN'
p307
F0.016014
sg122
F0.0
s(lp308
(g138
I17
tp309
atp310
a(g141
(dp311
g12
F1.0
s(lp312
(g141
I18
tp313
atp314
a(g151
(dp315
S'VERB'
p316
F0.014511999999999999
sS'NOUN'
p317
F0.985488
s(lp318
(g151
I19
tp319
atp320
a(g154
(dp321
S'NUM'
p322
F1.0
s(lp323
(g154
I20
tp324
atp325
a(g141
(dp326
g12
F1.0
s(lp327
(g141
I21
tp328
atp329
a(g169
(dp330
g122
F0.999594
sS'NUM'
p331
F0.000406
s(lp332
(g169
I22
tp333
atp334
a(g177
(dp335
g12
F1.0
s(lp336
(g177
I23
tp337
atp338
a(g184
(dp339
S'CONJ'
p340
F0.99999
sS'NOUN'
p341
F1e-05
s(lp342
(g184
I24
tp343
atp344
a(g192
(dp345
S'VERB'
p346
F0.049254
sS'NOUN'
p347
F0.950745
s(lp348
(g192
I25
tp349
atp350
a(g199
(dp351
S'ADV'
p352
F7e-06
sg122
F0.005382
sS'NUM'
p353
F0.994242
sS'ADJ'
p354
F0.000228
sS'NOUN'
p355
F0.000141
s(lp356
(g199
I26
tp357
atp358
a(g177
(dp359
g12
F1.0
s(lp360
(g177
I27
tp361
atp362
a(g12
(dp363
g12
F1.0
s(lp364
(g12
I28
tp365
atp366
asS'nl'
p367
(lp368
(S'evenwel'
p369
(dp370
S'ADV'
p371
F1.0
s(lp372
(g7
I0
tp373
atp374
a(S'voorziet'
p375
(dp376
S'VERB'
p377
F1.0
s(lp378
(g35
I4
tp379
atp380
a(S'de'
p381
(dp382
S'DET'
p383
F1.0
s(lp384
(g21
I2
tp385
atp386
a(S'verordening'
p387
(dp388
S'NOUN'
p389
F1.0
s(lp390
(g28
I3
tp391
atp392
a(S'in'
p393
(dp394
S'ADV'
p395
F0.040495
sS'VERB'
p396
F7e-06
sS'ADP'
p397
F0.959498
s(lp398
(g43
I5
tp399
atp400
a(S'tijdelijke'
p401
(dp402
S'NOUN'
p403
F1e-06
sS'ADJ'
p404
F0.999999
s(lp405
(g57
I6
tp406
atp407
a(S'vrijstellingen'
p408
(dp409
S'NOUN'
p410
F1.0
s(lp411
(g50
I7
tp412
atp413
a(S'die'
p414
(dp415
S'PRON'
p416
F0.999999
s(lp417
tp418
a(S'door'
p419
(dp420
S'ADV'
p421
F2.7e-05
sS'CONJ'
p422
F3e-06
sS'ADP'
p423
F0.999971
s(lp424
(g66
I8
tp425
atp426
a(S'sommige'
p427
(dp428
S'PRON'
p429
F1.0
s(lp430
(g74
I9
tp431
atp432
a(S'lidstaten'
p433
(dp434
S'NOUN'
p435
F1.0
s(lp436
(g89
I10
tp437
atp438
a(S'tot'
p439
(dp440
S'CONJ'
p441
F6.9e-05
sS'ADP'
p442
F0.999931
s(lp443
(g117
I14
tp444
atp445
a(g120
(dp446
S'NUM'
p447
F1.0
s(lp448
(g120
I15
tp449
atp450
a(S'juli'
p451
(dp452
S'NOUN'
p453
F1.0
s(lp454
(g131
I16
tp455
atp456
a(S'2008'
p457
(dp458
S'NUM'
p459
F1.0
s(lp460
(g138
I17
tp461
atp462
a(S'kunnen'
p463
(dp464
S'VERB'
p465
F0.9873689999999999
sS'NOUN'
p466
F0.01263
s(lp467
(g96
I12
tp468
atp469
a(S'worden'
p470
(dp471
S'VERB'
p472
F1.0
sS'NOUN'
p473
F0.0
s(lp474
tp475
a(S'toegepast'
p476
(dp477
S'VERB'
p478
F0.999959
sS'ADJ'
p479
F4.1e-05
s(lp480
(g103
I13
tp481
atp482
a(g141
(dp483
g12
F1.0
s(lp484
(g141
I18
tp485
atp486
a(S'artikel'
p487
(dp488
S'NOUN'
p489
F1.0
s(lp490
(g151
I19
tp491
atp492
a(g154
(dp493
S'NUM'
p494
F1.0
s(lp495
(g154
I20
tp496
atp497
a(g10
(dp498
g12
F1.0
s(lp499
tp500
a(S'lid'
p501
(dp502
S'NOUN'
p503
F1.0
s(lp504
(g141
I21
tp505
atp506
a(g169
(dp507
S'NUM'
p508
F1.0
s(lp509
(g169
I22
tp510
atp511
a(g10
(dp512
g12
F1.0
s(lp513
(g177
I23
tp514
atp515
a(S'en'
p516
(dp517
S'CONJ'
p518
F1.0
s(lp519
(g184
I24
tp520
atp521
a(S'artikel'
p522
(dp523
S'NOUN'
p524
F1.0
s(lp525
(g192
I25
tp526
atp527
a(S'16'
p528
(dp529
S'NUM'
p530
F1.0
s(lp531
(g199
I26
tp532
atp533
a(g177
(dp534
g12
F1.0
s(lp535
(g177
I27
tp536
atp537
a(g12
(dp538
g12
F1.0
s(lp539
(g12
I28
tp540
atp541
asS'de'
p542
(lp543
(S'die'
p544
(dp545
S'PRON'
p546
F0.00111
sS'DET'
p547
F0.998561
s(lp548
(g21
I2
tp549
atp550
a(S'verordnung'
p551
(dp552
S'ADJ'
p553
F0.000153
sS'NOUN'
p554
F0.999743
s(lp555
(g28
I3
tp556
atp557
a(S'sieht'
p558
(dp559
S'VERB'
p560
F1.0
s(lp561
tp562
a(S'jedoch'
p563
(dp564
S'ADV'
p565
F0.987972
sS'CONJ'
p566
F0.012028
s(lp567
(g7
I0
tp568
atp569
a(S'vor\xc3\xbcbergehende'
p570
(dp571
S'ADJ'
p572
F1.0
s(lp573
(g57
I6
tp574
atp575
a(S'ausnahmeregelungen'
p576
(dp577
S'ADJ'
p578
F1.9e-05
sS'NOUN'
p579
F0.999965
s(lp580
(g50
I7
tp581
atp582
a(S'vor'
p583
(dp584
S'ADV'
p585
F0.004371
sS'PRT'
p586
F0.99562
s(lp587
(g35
I4
tp588
atp589
a(g10
(dp590
g12
F1.0
s(lp591
(g10
I1
tp592
atp593
a(S'die'
p594
(dp595
S'PRON'
p596
F0.751475
sS'DET'
p597
F0.246333
s(lp598
(g66
I8
tp599
atp600
a(S'einige'
p601
(dp602
S'PRON'
p603
F0.999947
s(lp604
(g74
I9
tp605
atp606
a(S'mitgliedstaaten'
p607
(dp608
S'ADJ'
p609
F0.080688
sS'NOUN'
p610
F0.838626
s(lp611
(g89
I10
tp612
atp613
a(S'bis'
p614
(dp615
S'CONJ'
p616
F0.688902
sS'ADP'
p617
F0.310887
s(lp618
tp619
a(S'zum'
p620
(dp621
S'ADP'
p622
F1.0
s(lp623
(g117
I14
tp624
atp625
a(S'3.'
p626
(dp627
S'NUM'
p628
F1.0
s(lp629
(g120
I15
tp630
atp631
a(S'juli'
p632
(dp633
S'NOUN'
p634
F0.994431
s(lp635
(g131
I16
tp636
atp637
a(S'2008'
p638
(dp639
S'ADV'
p640
F0.021921
sS'NUM'
p641
F0.971597
s(lp642
(g138
I17
tp643
atp644
a(S'in'
p645
(dp646
S'ADP'
p647
F1.0
s(lp648
tp649
a(S'anspruch'
p650
(dp651
S'ADJ'
p652
F0.000803
sS'NOUN'
p653
F0.999087
s(lp654
(g103
I13
tp655
atp656
a(S'nehmen'
p657
(dp658
S'VERB'
p659
F1.0
s(lp660
(g81
I11
tp661
atp662
a(S'k\xc3\xb6nnen'
p663
(dp664
S'VERB'
p665
F0.999952
s(lp666
(g96
I12
tp667
atp668
a(g141
(dp669
g12
F1.0
s(lp670
(g141
I18
tp671
atp672
a(S'artikel'
p673
(dp674
S'ADJ'
p675
F0.013688
sS'NOUN'
p676
F0.967197
s(lp677
(g151
I19
tp678
atp679
a(g154
(dp680
S'NUM'
p681
F1.0
s(lp682
(g154
I20
tp683
atp684
a(S'absatz'
p685
(dp686
S'ADJ'
p687
F0.00059
sS'NOUN'
p688
F0.999001
s(lp689
(g141
I21
tp690
atp691
a(g169
(dp692
S'NUM'
p693
F1.0
s(lp694
(g169
I22
tp695
atp696
a(S'und'
p697
(dp698
S'CONJ'
p699
F1.0
s(lp700
(g184
I24
tp701
atp702
a(S'artikel'
p703
(dp704
S'VERB'
p705
F0.023909
sS'NOUN'
p706
F0.945893
s(lp707
(g192
I25
tp708
atp709
a(S'16'
p710
(dp711
S'NUM'
p712
F1.0
s(lp713
(g199
I26
tp714
atp715
a(g177
(dp716
g12
F1.0
s(lp717
(g177
I27
tp718
atp719
a(g12
(dp720
g12
F1.0
s(lp721
(g12
I28
tp722
atp723
asS'it'
p724
(lp725
(S'tuttavia'
p726
(dp727
S'ADV'
p728
F1.0
s(lp729
(g7
I0
tp730
atp731
a(g10
(dp732
g12
F1.0
s(lp733
(g10
I1
tp734
atp735
a(S'il'
p736
(dp737
S'DET'
p738
F1.0
s(lp739
(g21
I2
tp740
atp741
a(S'regolamento'
p742
(dp743
S'VERB'
p744
F7.6e-05
sS'NOUN'
p745
F0.999924
s(lp746
(g28
I3
tp747
atp748
a(S'prevede'
p749
(dp750
S'VERB'
p751
F1.0
s(lp752
(g35
I4
tp753
atp754
a(S'deroghe'
p755
(dp756
S'NOUN'
p757
F1.0
s(lp758
(g50
I7
tp759
atp760
a(S'temporanee'
p761
(dp762
S'ADJ'
p763
F1.0
s(lp764
(g57
I6
tp765
atp766
a(S'che'
p767
(dp768
S'PRON'
p769
F0.859102
sS'CONJ'
p770
F0.138943
sS'ADJ'
p771
F0.001955
s(lp772
(g66
I8
tp773
atp774
a(S'alcuni'
p775
(dp776
S'PRON'
p777
F1.0
s(lp778
(g74
I9
tp779
atp780
a(S'stati'
p781
(dp782
S'VERB'
p783
F0.894796
sS'NOUN'
p784
F0.105204
s(lp785
(g81
I11
tp786
atp787
a(S'membri'
p788
(dp789
S'NOUN'
p790
F1.0
s(lp791
(g89
I10
tp792
atp793
a(S'possono'
p794
(dp795
S'VERB'
p796
F1.0
s(lp797
(g96
I12
tp798
atp799
a(S'applicare'
p800
(dp801
S'VERB'
p802
F1.0
s(lp803
(g103
I13
tp804
atp805
a(S'fino'
p806
(dp807
S'CONJ'
p808
F0.327068
sS'ADJ'
p809
F0.046661
sS'ADP'
p810
F0.626271
s(lp811
tp812
a(S'al'
p813
(dp814
S'ADP'
p815
F1.0
s(lp816
(g117
I14
tp817
atp818
a(g120
(dp819
S'NUM'
p820
F0.999798
sg12
F0.000202
s(lp821
(g120
I15
tp822
atp823
a(S'luglio'
p824
(dp825
S'NOUN'
p826
F1.0
s(lp827
(g131
I16
tp828
atp829
a(S'2008'
p830
(dp831
S'NUM'
p832
F0.98824
sg12
F0.01176
s(lp833
(g138
I17
tp834
atp835
a(g141
(dp836
g12
F1.0
s(lp837
(g141
I18
tp838
atp839
a(S'articolo'
p840
(dp841
S'VERB'
p842
F0.000199
sS'NOUN'
p843
F0.999801
s(lp844
(g151
I19
tp845
atp846
a(g154
(dp847
S'NUM'
p848
F0.988173
sg12
F0.011827
s(lp849
(g154
I20
tp850
atp851
a(g10
(dp852
g12
F1.0
s(lp853
tp854
a(S'paragrafo'
p855
(dp856
S'VERB'
p857
F0.001661
sS'NOUN'
p858
F0.998339
s(lp859
(g141
I21
tp860
atp861
a(g169
(dp862
S'NUM'
p863
F0.9876820000000001
sg12
F0.012318
s(lp864
(g169
I22
tp865
atp866
a(g10
(dp867
g12
F1.0
s(lp868
(g177
I23
tp869
atp870
a(S'e'
p871
(dp872
S'CONJ'
p873
F1.0
s(lp874
(g184
I24
tp875
atp876
a(S'articolo'
p877
(dp878
S'VERB'
p879
F0.000889
sS'NOUN'
p880
F0.999111
s(lp881
(g192
I25
tp882
atp883
a(S'16'
p884
(dp885
S'NUM'
p886
F0.987942
sg12
F0.012059
s(lp887
(g199
I26
tp888
atp889
a(g177
(dp890
g12
F1.0
s(lp891
(g177
I27
tp892
atp893
a(g12
(dp894
g12
F1.0
s(lp895
(g12
I28
tp896
atp897
asS'sk'
p898
(lp899
(S'nariadenie'
p900
(dp901
S'NOUN'
p902
F1.0
s(lp903
(g28
I3
tp904
atp905
a(S'v\xc5\xa1ak'
p906
(dp907
g122
F0.6666789999999999
sS'CONJ'
p908
F0.333322
s(lp909
(g7
I0
tp910
atp911
a(S'poskytuje'
p912
(dp913
S'VERB'
p914
F1.0
s(lp915
(g35
I4
tp916
atp917
a(S'do\xc4\x8dasn\xc3\xa9'
p918
(dp919
S'ADJ'
p920
F1.0
s(lp921
(g57
I6
tp922
atp923
a(S'\xc3\xba\xc4\xbeavy'
p924
(dp925
S'NOUN'
p926
F1.0
s(lp927
(g50
I7
tp928
atp929
a(g10
(dp930
g12
F1.0
s(lp931
tp932
a(S'ktor\xc3\xa9'
p933
(dp934
S'PRON'
p935
F1.0
s(lp936
(g66
I8
tp937
atp938
a(S'm\xc3\xb4\xc5\xbeu'
p939
(dp940
S'VERB'
p941
F1.0
s(lp942
(g96
I12
tp943
atp944
a(S'niektor\xc3\xa9'
p945
(dp946
S'PRON'
p947
F1.0
s(lp948
(g74
I9
tp949
atp950
a(S'\xc4\x8dlensk\xc3\xa9'
p951
(dp952
S'NOUN'
p953
F3.4e-05
sS'ADJ'
p954
F0.9999659999999999
s(lp955
(g89
I10
tp956
atp957
a(S'\xc5\xa1t\xc3\xa1ty'
p958
(dp959
S'NOUN'
p960
F1.0
s(lp961
(g81
I11
tp962
atp963
a(S'vyu\xc5\xbe\xc3\xadva\xc5\xa5'
p964
(dp965
S'VERB'
p966
F1.0
s(lp967
(g103
I13
tp968
atp969
a(S'do'
p970
(dp971
g122
F0.00015800000000000002
sS'ADP'
p972
F0.999841
sS'PRON'
p973
F2e-06
s(lp974
(g117
I14
tp975
atp976
a(S'3.'
p977
(dp978
S'NUM'
p979
F1.0
s(lp980
(g120
I15
tp981
atp982
a(S'j\xc3\xbala'
p983
(dp984
S'NOUN'
p985
F1.0
s(lp986
(g131
I16
tp987
atp988
a(S'2008'
p989
(dp990
S'NUM'
p991
F1.0
s(lp992
(g138
I17
tp993
atp994
a(g141
(dp995
g12
F1.0
s(lp996
(g141
I18
tp997
atp998
a(S'\xc4\x8dl\xc3\xa1nok'
p999
(dp1000
S'NOUN'
p1001
F1.0
s(lp1002
(g151
I19
tp1003
atp1004
a(g154
(dp1005
S'NUM'
p1006
F1.0
s(lp1007
(g154
I20
tp1008
atp1009
a(S'odsek'
p1010
(dp1011
S'NOUN'
p1012
F1.0
s(lp1013
(g141
I21
tp1014
atp1015
a(g169
(dp1016
S'NUM'
p1017
F1.0
s(lp1018
(g169
I22
tp1019
atp1020
a(S'a'
p1021
(dp1022
g122
F0.06720999999999999
sS'CONJ'
p1023
F0.932221
sS'NOUN'
p1024
F0.0003
sS'ADP'
p1025
F0.000249
sS'PRT'
p1026
F1.9e-05
s(lp1027
(g184
I24
tp1028
atp1029
a(S'\xc4\x8dl\xc3\xa1nok'
p1030
(dp1031
S'NOUN'
p1032
F1.0
s(lp1033
(g192
I25
tp1034
atp1035
a(S'16'
p1036
(dp1037
S'NUM'
p1038
F1.0
s(lp1039
(g199
I26
tp1040
atp1041
a(g177
(dp1042
g12
F1.0
s(lp1043
(g177
I27
tp1044
atp1045
a(g12
(dp1046
g12
F1.0
s(lp1047
(g12
I28
tp1048
atp1049
asS'pl'
p1050
(lp1051
(S'jednak\xc5\xbce'
p1052
(dp1053
S'PRT'
p1054
F0.576622
sS'CONJ'
p1055
F0.423378
s(lp1056
(g7
I0
tp1057
atp1058
a(S'rozporz\xc4\x85dzenie'
p1059
(dp1060
S'NOUN'
p1061
F1.0
s(lp1062
(g28
I3
tp1063
atp1064
a(S'przewiduje'
p1065
(dp1066
S'VERB'
p1067
F1.0
s(lp1068
(g35
I4
tp1069
atp1070
a(S'czasowe'
p1071
(dp1072
S'ADJ'
p1073
F1.0000010000000001
s(lp1074
(g57
I6
tp1075
atp1076
a(S'odst\xc4\x99pstwa'
p1077
(dp1078
S'NOUN'
p1079
F1.0
s(lp1080
(g50
I7
tp1081
atp1082
a(g10
(dp1083
g122
F0.0
sg12
F1.0
s(lp1084
tp1085
a(S'jakie'
p1086
(dp1087
S'ADJ'
p1088
F0.9999999999999999
s(lp1089
(g66
I8
tp1090
atp1091
a(S'mog\xc4\x85'
p1092
(dp1093
S'VERB'
p1094
F1.0
s(lp1095
(g96
I12
tp1096
atp1097
a(S'stosowa\xc4\x87'
p1098
(dp1099
S'VERB'
p1100
F1.0
s(lp1101
(g103
I13
tp1102
atp1103
a(S'niekt\xc3\xb3re'
p1104
(dp1105
S'ADJ'
p1106
F0.9999999999999999
s(lp1107
(g74
I9
tp1108
atp1109
a(S'pa\xc5\x84stwa'
p1110
(dp1111
S'NOUN'
p1112
F1.000001
s(lp1113
(g81
I11
tp1114
atp1115
a(S'cz\xc5\x82onkowskie'
p1116
(dp1117
S'ADJ'
p1118
F1.0
s(lp1119
(g89
I10
tp1120
atp1121
a(S'do'
p1122
(dp1123
g122
F0.0
sS'NOUN'
p1124
F3e-06
sS'ADP'
p1125
F0.999996
s(lp1126
tp1127
a(S'dnia'
p1128
(dp1129
S'NOUN'
p1130
F1.0
s(lp1131
(g117
I14
tp1132
atp1133
a(g120
(dp1134
S'ADV'
p1135
F1e-06
sS'NOUN'
p1136
F2.2e-05
sS'NUM'
p1137
F0.001046
sS'ADJ'
p1138
F0.9989290000000001
s(lp1139
(g120
I15
tp1140
atp1141
a(S'lipca'
p1142
(dp1143
S'NOUN'
p1144
F1.0
s(lp1145
(g131
I16
tp1146
atp1147
a(S'2008'
p1148
(dp1149
S'NUM'
p1150
F0.058198
sS'ADJ'
p1151
F0.9418019999999999
s(lp1152
tp1153
a(S'r'
p1154
(dp1155
g122
F0.906612
sS'NOUN'
p1156
F0.093388
s(lp1157
(g138
I17
tp1158
atp1159
a(g12
(dp1160
g12
F1.0
s(lp1161
(g12
I28
tp1162
atp1163
a(g141
(dp1164
S'NOUN'
p1165
F0.00209
sg12
F0.99791
s(lp1166
(g141
I18
tp1167
atp1168
a(S'art'
p1169
(dp1170
S'NOUN'
p1171
F1.0
s(lp1172
tp1173
a(g12
(dp1174
g12
F1.0
s(lp1175
(g151
I19
tp1176
atp1177
a(g154
(dp1178
S'NOUN'
p1179
F0.001354
sS'NUM'
p1180
F0.8877559999999999
sS'ADJ'
p1181
F0.11089099999999999
s(lp1182
(g154
I20
tp1183
atp1184
a(S'ust'
p1185
(dp1186
S'NOUN'
p1187
F1.0
s(lp1188
(g141
I21
tp1189
atp1190
a(g12
(dp1191
g12
F1.0
s(lp1192
(g192
I25
tp1193
atp1194
asS'sl'
p1195
(lp1196
(S'vendar'
p1197
(dp1198
S'ADV'
p1199
F0.004916
sS'CONJ'
p1200
F0.995084
s(lp1201
(g7
I0
tp1202
atp1203
a(S'ta'
p1204
(dp1205
S'PRON'
p1206
F0.9999999999999999
s(lp1207
(g21
I2
tp1208
atp1209
a(S'uredba'
p1210
(dp1211
S'NOUN'
p1212
F1.0
s(lp1213
(g28
I3
tp1214
atp1215
a(S'omogo\xc4\x8da'
p1216
(dp1217
S'VERB'
p1218
F1.0
s(lp1219
(g35
I4
tp1220
atp1221
a(S'za\xc4\x8dasna'
p1222
(dp1223
S'ADJ'
p1224
F1.0
s(lp1225
(g57
I6
tp1226
atp1227
a(S'odstopanja'
p1228
(dp1229
S'NOUN'
p1230
F1.0
s(lp1231
(g50
I7
tp1232
atp1233
a(g10
(dp1234
g12
F1.0
s(lp1235
tp1236
a(S'ki'
p1237
(dp1238
S'CONJ'
p1239
F1.0
s(lp1240
(g66
I8
tp1241
atp1242
a(S'jih'
p1243
(dp1244
S'PRON'
p1245
F1.0
s(lp1246
tp1247
a(S'lahko'
p1248
(dp1249
S'ADV'
p1250
F0.99966
sS'ADJ'
p1251
F0.00033999999999999997
s(lp1252
(g96
I12
tp1253
atp1254
a(S'nekatere'
p1255
(dp1256
S'PRON'
p1257
F1.0
s(lp1258
(g74
I9
tp1259
atp1260
a(S'dr\xc5\xbeave'
p1261
(dp1262
S'NOUN'
p1263
F1.0
s(lp1264
(g89
I10
tp1265
atp1266
a(S'\xc4\x8dlanice'
p1267
(dp1268
S'NOUN'
p1269
F1.0
s(lp1270
(g81
I11
tp1271
atp1272
a(S'uporabljajo'
p1273
(dp1274
S'VERB'
p1275
F1.0
s(lp1276
(g103
I13
tp1277
atp1278
a(S'do'
p1279
(dp1280
g122
F1.8e-05
sS'ADP'
p1281
F0.999982
s(lp1282
(g117
I14
tp1283
atp1284
a(S'3.'
p1285
(dp1286
S'NUM'
p1287
F1.0
s(lp1288
(g120
I15
tp1289
atp1290
a(S'julija'
p1291
(dp1292
S'NOUN'
p1293
F1.0
s(lp1294
(g131
I16
tp1295
atp1296
a(S'2008'
p1297
(dp1298
S'NUM'
p1299
F1.0
s(lp1300
(g138
I17
tp1301
atp1302
a(g141
(dp1303
g12
F1.0
s(lp1304
(g141
I18
tp1305
atp1306
a(S'\xc4\x8dlen'
p1307
(dp1308
S'NOUN'
p1309
F1.0
s(lp1310
(g151
I19
tp1311
atp1312
a(g154
(dp1313
S'NUM'
p1314
F1.0
s(lp1315
(g154
I20
tp1316
atp1317
a(g141
(dp1318
g12
F1.0
s(lp1319
(g141
I21
tp1320
atp1321
a(g169
(dp1322
S'NUM'
p1323
F1.0
s(lp1324
(g169
I22
tp1325
atp1326
a(g177
(dp1327
g12
F1.0
s(lp1328
(g177
I23
tp1329
atp1330
a(S'in'
p1331
(dp1332
S'ADV'
p1333
F2.1e-05
sg122
F1.1e-05
sS'CONJ'
p1334
F0.999931
sS'NOUN'
p1335
F3.7e-05
s(lp1336
(g184
I24
tp1337
atp1338
a(S'\xc4\x8dlen'
p1339
(dp1340
S'NOUN'
p1341
F1.0
s(lp1342
(g192
I25
tp1343
atp1344
a(S'16'
p1345
(dp1346
S'NUM'
p1347
F1.0
s(lp1348
(g199
I26
tp1349
atp1350
a(g177
(dp1351
g12
F1.0
s(lp1352
(g177
I27
tp1353
atp1354
a(g12
(dp1355
g12
F1.0
s(lp1356
(g12
I28
tp1357
atp1358
asS'es'
p1359
(lp1360
(S'sin'
p1361
(dp1362
S'ADV'
p1363
F1.0
s(lp1364
tp1365
a(S'embargo'
p1366
(dp1367
S'ADV'
p1368
F1.0
s(lp1369
(g7
I0
tp1370
atp1371
a(g10
(dp1372
g12
F1.0
s(lp1373
(g10
I1
tp1374
atp1375
a(S'el'
p1376
(dp1377
S'PRON'
p1378
F9.2e-05
sS'DET'
p1379
F0.999908
s(lp1380
(g21
I2
tp1381
atp1382
a(S'reglamento'
p1383
(dp1384
S'VERB'
p1385
F0.000143
sS'NOUN'
p1386
F0.999857
s(lp1387
(g28
I3
tp1388
atp1389
a(S'estipula'
p1390
(dp1391
S'VERB'
p1392
F1.0
s(lp1393
(g35
I4
tp1394
atp1395
a(S'ciertas'
p1396
(dp1397
S'ADJ'
p1398
F1.0
s(lp1399
tp1400
a(S'derogaciones'
p1401
(dp1402
S'NOUN'
p1403
F1.0
s(lp1404
(g50
I7
tp1405
atp1406
a(S'temporales'
p1407
(dp1408
S'ADJ'
p1409
F1.0
s(lp1410
(g57
I6
tp1411
atp1412
a(S'que'
p1413
(dp1414
g122
F0.0
sS'CONJ'
p1415
F1.0
s(lp1416
(g66
I8
tp1417
atp1418
a(S'algunos'
p1419
(dp1420
S'ADJ'
p1421
F1.0
s(lp1422
(g74
I9
tp1423
atp1424
a(S'estados'
p1425
(dp1426
S'NOUN'
p1427
F1.0
s(lp1428
(g81
I11
tp1429
atp1430
a(S'miembros'
p1431
(dp1432
S'NOUN'
p1433
F1.0
s(lp1434
(g89
I10
tp1435
atp1436
a(S'pueden'
p1437
(dp1438
S'VERB'
p1439
F1.0
s(lp1440
(g96
I12
tp1441
atp1442
a(S'aplicar'
p1443
(dp1444
S'VERB'
p1445
F1.0
s(lp1446
(g103
I13
tp1447
atp1448
a(S'hasta'
p1449
(dp1450
S'ADP'
p1451
F1.0
s(lp1452
(g117
I14
tp1453
atp1454
a(S'el'
p1455
(dp1456
S'PRON'
p1457
F0.00021
sS'DET'
p1458
F0.99979
s(lp1459
tp1460
a(g120
(dp1461
S'NUM'
p1462
F1.0
s(lp1463
(g120
I15
tp1464
atp1465
a(S'de'
p1466
(dp1467
g122
F6.2e-05
sS'CONJ'
p1468
F1.6e-05
sS'ADP'
p1469
F0.999921
s(lp1470
tp1471
a(S'julio'
p1472
(dp1473
S'NOUN'
p1474
F1.0
s(lp1475
(g131
I16
tp1476
atp1477
a(S'de'
p1478
(dp1479
g122
F0.003742
sS'CONJ'
p1480
F0.000317
sS'ADP'
p1481
F0.995941
s(lp1482
tp1483
a(S'2008'
p1484
(dp1485
g122
F0.323197
sS'NUM'
p1486
F0.676803
s(lp1487
(g138
I17
tp1488
atp1489
a(g141
(dp1490
g12
F1.0
s(lp1491
(g141
I18
tp1492
atp1493
a(S'art\xc3\xadculo'
p1494
(dp1495
S'NOUN'
p1496
F1.0
s(lp1497
(g151
I19
tp1498
atp1499
a(g154
(dp1500
S'NUM'
p1501
F1.0
s(lp1502
(g154
I20
tp1503
atp1504
a(g10
(dp1505
g12
F1.0
s(lp1506
tp1507
a(S'apartado'
p1508
(dp1509
S'ADJ'
p1510
F0.013383
sS'NOUN'
p1511
F0.986617
s(lp1512
(g141
I21
tp1513
atp1514
a(g169
(dp1515
S'NUM'
p1516
F1.0
s(lp1517
(g169
I22
tp1518
atp1519
a(g10
(dp1520
g12
F1.0
s(lp1521
(g177
I23
tp1522
atp1523
a(S'y'
p1524
(dp1525
g122
F0.000433
sS'CONJ'
p1526
F0.999567
s(lp1527
(g184
I24
tp1528
atp1529
a(S'art\xc3\xadculo'
p1530
(dp1531
S'NOUN'
p1532
F1.0
s(lp1533
(g192
I25
tp1534
atp1535
a(S'16'
p1536
(dp1537
g122
F0.435424
sS'NUM'
p1538
F0.564576
s(lp1539
(g199
I26
tp1540
atp1541
a(g177
(dp1542
g12
F1.0
s(lp1543
(g177
I27
tp1544
atp1545
a(g12
(dp1546
g12
F1.0
s(lp1547
(g12
I28
tp1548
atp1549
as.