(dp0
S'fr'
p1
(lp2
(S'les'
p3
(dp4
S'PRON'
p5
F0.003977
sS'DET'
p6
F0.996001
sS'ADP'
p7
F2.2e-05
s(lp8
(S'the'
p9
I0
tp10
atp11
a(S'ressources'
p12
(dp13
S'VERB'
p14
F0.003621
sS'NOUN'
p15
F0.996378
s(lp16
(S'finances'
p17
I1
tp18
atp19
a(S'issues'
p20
(dp21
S'NOUN'
p22
F0.007622
sS'ADJ'
p23
F0.992378
s(lp24
(S'from'
p25
I2
tp26
atp27
a(S'du'
p28
(dp29
S'ADP'
p30
F1.0
s(lp31
(S'the'
p32
I3
tp33
atp34
a(S'fonds'
p35
(dp36
S'VERB'
p37
F1e-06
sS'NOUN'
p38
F0.999999
s(lp39
(S'fund'
p40
I6
tp41
atp42
a(S'social'
p43
(dp44
S'ADJ'
p45
F1.0
s(lp46
(S'social'
p47
I5
tp48
atp49
a(S'europ\xc3\xa9en'
p50
(dp51
S'ADJ'
p52
F0.000493
sS'NOUN'
p53
F0.999507
s(lp54
(S'european'
p55
I4
tp56
atp57
a(S'devraient'
p58
(dp59
S'VERB'
p60
F1.0
s(lp61
(S'should'
p62
I7
tp63
atp64
a(S'contribuer'
p65
(dp66
S'VERB'
p67
F1.0
s(lp68
(S'contribution'
p69
I11
tp70
atp71
a(S'activement'
p72
(dp73
S'ADV'
p74
F1.0
s(lp75
(S'active'
p76
I10
tp77
atp78
a(S'\xc3\xa0'
p79
(dp80
S'ADP'
p81
F1.0
s(lp82
(S'to'
p83
I12
tp84
atp85
a(S'la'
p86
(dp87
S'PRON'
p88
F0.001029
sS'DET'
p89
F0.998971
sS'NOUN'
p90
F1e-06
s(lp91
(S'the'
p92
I13
tp93
atp94
a(S'reprise'
p95
(dp96
S'VERB'
p97
F0.001218
sS'NOUN'
p98
F0.998782
s(lp99
(S'recovery'
p100
I15
tp101
atp102
a(S'\xc3\xa9conomique'
p103
(dp104
S'NOUN'
p105
F0.004741
sS'ADJ'
p106
F0.995259
s(lp107
(S'economic'
p108
I14
tp109
atp110
a(S'des'
p111
(dp112
S'DET'
p113
F1.1e-05
sS'ADP'
p114
F0.999989
s(lp115
(S'of'
p116
I16
tp117
atp118
a(S'\xc3\x89tats'
p119
(dp120
S'NOUN'
p121
F1.0
s(lp122
(S'states'
p123
I19
tp124
atp125
a(S'membres'
p126
(dp127
S'VERB'
p128
F0.547952
sS'NOUN'
p129
F0.452048
s(lp130
(S'member'
p131
I18
tp132
atp133
a(S'les'
p134
(dp135
S'PRON'
p136
F0.173529
sS'DET'
p137
F0.825319
sS'ADP'
p138
F0.001152
s(lp139
(S'hardest'
p140
I23
tp141
atp142
a(S'plus'
p143
(dp144
S'ADV'
p145
F0.999533
sS'VERB'
p146
F0.000468
s(lp147
tp148
a(S'durement'
p149
(dp150
S'ADV'
p151
F1.0
s(lp152
(g140
I23
tp153
atp154
a(S'touch\xc3\xa9s'
p155
(dp156
S'VERB'
p157
F1.0
s(lp158
(S'hit'
p159
I24
tp160
atp161
a(S'par'
p162
(dp163
S'NOUN'
p164
F0.0
sS'ADP'
p165
F1.0
s(lp166
(S'by'
p167
I25
tp168
atp169
a(S'la'
p170
(dp171
S'PRON'
p172
F1.2e-05
sS'DET'
p173
F0.999988
sS'NOUN'
p174
F0.0
s(lp175
(S'the'
p176
I26
tp177
atp178
a(S'crise'
p179
(dp180
S'NOUN'
p181
F1.0
s(lp182
(S'crisis'
p183
I27
tp184
atp185
a(S'et'
p186
(dp187
S'CONJ'
p188
F1.0
s(lp189
(S','
p190
I28
tp191
atp192
a(g190
(dp193
S'.'
p194
F1.0
s(lp195
tp196
a(S'ce'
p197
(dp198
S'PRON'
p199
F1.0
s(lp200
tp201
a(S'faisant'
p202
(dp203
S'VERB'
p204
F1.0
s(lp205
tp206
a(g190
(dp207
g194
F1.0
s(lp208
(g190
I28
tp209
atp210
a(S'soutenir'
p211
(dp212
S'VERB'
p213
F1.0
s(lp214
(S'helping'
p215
I29
tp216
atp217
a(S'leurs'
p218
(dp219
S'PRON'
p220
F1.0
s(lp221
(S'their'
p222
I30
tp223
atp224
a(S'efforts'
p225
(dp226
S'NOUN'
p227
F1.0
s(lp228
(S'efforts'
p229
I31
tp230
atp231
a(S'pour'
p232
(dp233
S'CONJ'
p234
F0.127766
sS'ADP'
p235
F0.872234
s(lp236
(S'to'
p237
I32
tp238
atp239
a(S'maintenir'
p240
(dp241
S'VERB'
p242
F1.0
s(lp243
(S'preserve'
p244
I33
tp245
atp246
a(S'le'
p247
(dp248
S'PRON'
p249
F3.4e-05
sS'DET'
p250
F0.999966
s(lp251
tp252
a(S'niveau'
p253
(dp254
S'NOUN'
p255
F1.0
s(lp256
tp257
a(S"d'"
p258
(dp259
S'NOUN'
p260
F0.032441
sS'VERB'
p261
F0.694014
sS'ADJ'
p262
F0.273544
s(lp263
tp264
a(S'emploi'
p265
(dp266
S'NOUN'
p267
F1.0
s(lp268
(S'jobs'
p269
I34
tp270
atp271
a(g190
(dp272
g194
F1.0
s(lp273
(g190
I35
tp274
atp275
a(S'am\xc3\xa9liorer'
p276
(dp277
S'VERB'
p278
F1.0
s(lp279
(S'improve'
p280
I36
tp281
atp282
a(S'le'
p283
(dp284
S'PRON'
p285
F3.4e-05
sS'DET'
p286
F0.999966
s(lp287
(S'the'
p288
I37
tp289
atp290
a(S'niveau'
p291
(dp292
S'NOUN'
p293
F1.0
s(lp294
(S'level'
p295
I38
tp296
atp297
a(S'de'
p298
(dp299
S'ADP'
p300
F1.0
s(lp301
(S'of'
p302
I39
tp303
atp304
a(S'qualification'
p305
(dp306
S'NOUN'
p307
F1.0
s(lp308
(S'qualifications'
p309
I41
tp310
atp311
a(S'professionnelle'
p312
(dp313
S'NOUN'
p314
F0.009609
sS'ADJ'
p315
F0.990391
s(lp316
(S'professional'
p317
I40
tp318
atp319
a(S'et'
p320
(dp321
S'CONJ'
p322
F1.0
s(lp323
(S'and'
p324
I42
tp325
atp326
a(g190
(dp327
g194
F1.0
s(lp328
(g190
I43
tp329
atp330
a(S'partant'
p331
(dp332
S'NOUN'
p333
F0.011614
sS'CONJ'
p334
F0.016358
sS'VERB'
p335
F0.942023
sS'ADJ'
p336
F0.030005
s(lp337
(S'extension'
p338
I45
tp339
atp340
a(g190
(dp341
g194
F1.0
s(lp342
(g190
I46
tp343
atp344
a(S'pr\xc3\xa9venir'
p345
(dp346
S'VERB'
p347
F1.0
s(lp348
(S'prevent'
p349
I47
tp350
atp351
a(S'et'
p352
(dp353
S'CONJ'
p354
F1.0
s(lp355
(S'and'
p356
I48
tp357
atp358
a(S'combattre'
p359
(dp360
S'VERB'
p361
F1.0
s(lp362
(S'combat'
p363
I49
tp364
atp365
a(S'le'
p366
(dp367
S'PRON'
p368
F3.4e-05
sS'DET'
p369
F0.999966
s(lp370
tp371
a(S'ch\xc3\xb4mage'
p372
(dp373
S'NOUN'
p374
F1.0
s(lp375
(S'unemployment'
p376
I50
tp377
atp378
a(g194
(dp379
g194
F1.0
s(lp380
(g194
I51
tp381
atp382
asS'en'
p383
(lp384
(g9
(dp385
S'NOUN'
p386
F4.1e-05
sS'DET'
p387
F0.999959
s(lp388
(g9
I0
tp389
atp390
a(g17
(dp391
S'VERB'
p392
F0.002727
sS'NOUN'
p393
F0.997273
s(lp394
(g17
I1
tp395
atp396
a(g25
(dp397
S'ADP'
p398
F1.0
s(lp399
(g25
I2
tp400
atp401
a(g32
(dp402
S'NOUN'
p403
F1e-06
sS'DET'
p404
F0.999999
s(lp405
(g32
I3
tp406
atp407
a(g55
(dp408
S'NOUN'
p409
F0.050589
sS'VERB'
p410
F6.2e-05
sS'ADJ'
p411
F0.949349
s(lp412
(g55
I4
tp413
atp414
a(g47
(dp415
S'NOUN'
p416
F0.003594
sS'ADJ'
p417
F0.996406
s(lp418
(g47
I5
tp419
atp420
a(g40
(dp421
S'VERB'
p422
F2e-05
sS'NOUN'
p423
F0.999981
s(lp424
(g40
I6
tp425
atp426
a(g62
(dp427
S'VERB'
p428
F1.0
s(lp429
(g62
I7
tp430
atp431
a(S'make'
p432
(dp433
S'VERB'
p434
F1.0
sS'NOUN'
p435
F0.0
s(lp436
(g432
I8
tp437
atp438
a(S'an'
p439
(dp440
S'DET'
p441
F1.0
s(lp442
(g439
I9
tp443
atp444
a(g76
(dp445
S'NOUN'
p446
F0.000712
sS'ADJ'
p447
F0.999288
s(lp448
(g76
I10
tp449
atp450
a(g69
(dp451
S'NOUN'
p452
F1.0
s(lp453
(g69
I11
tp454
atp455
a(g83
(dp456
S'ADV'
p457
F1e-06
sS'PRT'
p458
F0.999989
sS'ADP'
p459
F1.1e-05
s(lp460
(g83
I12
tp461
atp462
a(g92
(dp463
S'NOUN'
p464
F1e-06
sS'DET'
p465
F0.999999
s(lp466
(g92
I13
tp467
atp468
a(g108
(dp469
S'ADJ'
p470
F1.0
s(lp471
(g108
I14
tp472
atp473
a(g100
(dp474
S'NOUN'
p475
F1.0
s(lp476
(g100
I15
tp477
atp478
a(g116
(dp479
S'ADP'
p480
F1.0
s(lp481
(g116
I16
tp482
atp483
a(S'the'
p484
(dp485
S'NOUN'
p486
F1e-06
sS'DET'
p487
F0.999999
s(lp488
(g484
I17
tp489
atp490
a(g131
(dp491
S'NOUN'
p492
F1.0
s(lp493
(g131
I18
tp494
atp495
a(g123
(dp496
S'VERB'
p497
F0.000782
sS'NOUN'
p498
F0.999218
s(lp499
(g123
I19
tp500
atp501
a(S'which'
p502
(dp503
S'DET'
p504
F1.0
s(lp505
(g502
I20
tp506
atp507
a(S'have'
p508
(dp509
S'VERB'
p510
F1.0
s(lp511
(g508
I21
tp512
atp513
a(S'been'
p514
(dp515
S'VERB'
p516
F1.0
s(lp517
(g514
I22
tp518
atp519
a(g140
(dp520
S'ADV'
p521
F0.999961
sS'ADJ'
p522
F3.9e-05
s(lp523
(g140
I23
tp524
atp525
a(g159
(dp526
S'VERB'
p527
F0.999649
sS'NOUN'
p528
F0.000351
s(lp529
(g159
I24
tp530
atp531
a(g167
(dp532
S'ADV'
p533
F0.000185
sS'NOUN'
p534
F0.0
sS'ADP'
p535
F0.999815
s(lp536
(g167
I25
tp537
atp538
a(g176
(dp539
S'NOUN'
p540
F1e-06
sS'DET'
p541
F0.999999
s(lp542
(g176
I26
tp543
atp544
a(g183
(dp545
S'NOUN'
p546
F1.0
s(lp547
(g183
I27
tp548
atp549
a(g190
(dp550
g194
F1.0
s(lp551
(g190
I28
tp552
atp553
a(g215
(dp554
S'VERB'
p555
F0.999996
sS'NOUN'
p556
F4e-06
s(lp557
(g215
I29
tp558
atp559
a(g222
(dp560
S'PRON'
p561
F1.0
s(lp562
(g222
I30
tp563
atp564
a(g229
(dp565
S'NOUN'
p566
F1.0
s(lp567
(g229
I31
tp568
atp569
a(g237
(dp570
S'ADV'
p571
F0.0
sS'PRT'
p572
F1.0
sS'ADP'
p573
F0.0
s(lp574
(g237
I32
tp575
atp576
a(g244
(dp577
S'VERB'
p578
F0.999009
sS'NOUN'
p579
F0.000991
s(lp580
(g244
I33
tp581
atp582
a(g269
(dp583
S'VERB'
p584
F1e-06
sS'NOUN'
p585
F0.999999
s(lp586
(g269
I34
tp587
atp588
a(g190
(dp589
g194
F1.0
s(lp590
(g190
I35
tp591
atp592
a(g280
(dp593
S'VERB'
p594
F1.0
s(lp595
(g280
I36
tp596
atp597
a(g288
(dp598
S'NOUN'
p599
F1e-06
sS'DET'
p600
F0.999999
s(lp601
(g288
I37
tp602
atp603
a(g295
(dp604
S'ADJ'
p605
F0.003926
sS'VERB'
p606
F5.6e-05
sS'NOUN'
p607
F0.996018
s(lp608
(g295
I38
tp609
atp610
a(g302
(dp611
S'ADP'
p612
F1.0
s(lp613
(g302
I39
tp614
atp615
a(g317
(dp616
S'NOUN'
p617
F0.014814
sS'ADJ'
p618
F0.985186
s(lp619
(g317
I40
tp620
atp621
a(g309
(dp622
S'NOUN'
p623
F1.0
s(lp624
(g309
I41
tp625
atp626
a(g324
(dp627
S'CONJ'
p628
F0.999997
sS'NOUN'
p629
F3e-06
s(lp630
(g324
I42
tp631
atp632
a(g190
(dp633
g194
F1.0
s(lp634
(g190
I43
tp635
atp636
a(S'by'
p637
(dp638
S'ADV'
p639
F0.000365
sS'NOUN'
p640
F1e-06
sS'ADP'
p641
F0.999634
s(lp642
(g637
I44
tp643
atp644
a(g338
(dp645
S'NOUN'
p646
F1.0
s(lp647
(g338
I45
tp648
atp649
a(g190
(dp650
g194
F1.0
s(lp651
(g190
I46
tp652
atp653
a(g349
(dp654
S'VERB'
p655
F1.0
s(lp656
(g349
I47
tp657
atp658
a(g356
(dp659
S'CONJ'
p660
F0.999973
sS'NOUN'
p661
F2.7e-05
s(lp662
(g356
I48
tp663
atp664
a(g363
(dp665
S'VERB'
p666
F0.620672
sS'NOUN'
p667
F0.379328
s(lp668
(g363
I49
tp669
atp670
a(g376
(dp671
S'NOUN'
p672
F1.0
s(lp673
(g376
I50
tp674
atp675
a(g194
(dp676
g194
F1.0
s(lp677
(g194
I51
tp678
atp679
asS'nl'
p680
(lp681
(S'de'
p682
(dp683
S'DET'
p684
F1.0
s(lp685
(g9
I0
tp686
atp687
a(S'financiering'
p688
(dp689
S'NOUN'
p690
F1.0
s(lp691
(g17
I1
tp692
atp693
a(S'uit'
p694
(dp695
S'ADV'
p696
F0.056462
sS'VERB'
p697
F2.7e-05
sS'ADP'
p698
F0.943511
s(lp699
(g25
I2
tp700
atp701
a(S'het'
p702
(dp703
S'PRON'
p704
F0.000978
sS'DET'
p705
F0.999023
s(lp706
(g32
I3
tp707
atp708
a(S'esf'
p709
(dp710
S'NOUN'
p711
F1.0
s(lp712
(g40
I6
tp713
atp714
a(S'moet'
p715
(dp716
S'VERB'
p717
F1.0
s(lp718
(g62
I7
tp719
atp720
a(S'een'
p721
(dp722
S'ADJ'
p723
F2e-06
sS'PRON'
p724
F3.6e-05
sS'NUM'
p725
F1e-06
sS'DET'
p726
F0.999962
s(lp727
(g439
I9
tp728
atp729
a(S'actieve'
p730
(dp731
S'NOUN'
p732
F0.000883
sS'ADJ'
p733
F0.999117
s(lp734
(g76
I10
tp735
atp736
a(S'rol'
p737
(dp738
S'VERB'
p739
F0.002996
sS'NOUN'
p740
F0.997004
s(lp741
tp742
a(S'spelen'
p743
(dp744
S'VERB'
p745
F0.996945
sS'NOUN'
p746
F0.0030549999999999996
s(lp747
(g69
I11
tp748
atp749
a(S'bij'
p750
(dp751
S'ADV'
p752
F0.004452
sS'NOUN'
p753
F0.0
sS'ADJ'
p754
F0.0
sS'ADP'
p755
F0.995548
s(lp756
(g83
I12
tp757
atp758
a(S'het'
p759
(dp760
S'PRON'
p761
F0.0058390000000000004
sS'DET'
p762
F0.99416
s(lp763
(g92
I13
tp764
atp765
a(S'economisch'
p766
(dp767
S'ADJ'
p768
F1.0
s(lp769
(g108
I14
tp770
atp771
a(S'herstel'
p772
(dp773
S'VERB'
p774
F0.00034
sS'NOUN'
p775
F0.99966
s(lp776
(g100
I15
tp777
atp778
a(S'van'
p779
(dp780
S'ADP'
p781
F1.0
s(lp782
(g116
I16
tp783
atp784
a(S'de'
p785
(dp786
S'DET'
p787
F1.0
s(lp788
(g484
I17
tp789
atp790
a(S'meest'
p791
(dp792
S'ADV'
p793
F0.000125
sS'NUM'
p794
F3e-05
sS'ADJ'
p795
F0.999845
s(lp796
(g140
I23
tp797
atp798
a(S'getroffen'
p799
(dp800
S'VERB'
p801
F0.272129
sS'ADJ'
p802
F0.727871
s(lp803
(g159
I24
tp804
atp805
a(S'lidstaten'
p806
(dp807
S'NOUN'
p808
F1.0
s(lp809
(g131
I18
tp810
atp811
a(g190
(dp812
g194
F1.0
s(lp813
(g190
I28
tp814
atp815
a(S'bij'
p816
(dp817
S'ADV'
p818
F0.020779
sS'ADJ'
p819
F0.0
sS'NOUN'
p820
F0.0
sS'ADP'
p821
F0.979221
s(lp822
(g215
I29
tp823
atp824
a(S'het'
p825
(dp826
S'PRON'
p827
F0.10642599999999999
sS'DET'
p828
F0.893575
s(lp829
(g222
I30
tp830
atp831
a(S'behouden'
p832
(dp833
S'ADJ'
p834
F0.002234
sS'VERB'
p835
F0.9937360000000001
sS'NOUN'
p836
F0.00403
s(lp837
(g244
I33
tp838
atp839
a(S'van'
p840
(dp841
S'ADP'
p842
F1.0
s(lp843
tp844
a(S'werkgelegenheid'
p845
(dp846
S'NOUN'
p847
F1.0
s(lp848
(g269
I34
tp849
atp850
a(g190
(dp851
g194
F1.0
s(lp852
(g190
I35
tp853
atp854
a(S'het'
p855
(dp856
S'PRON'
p857
F0.109915
sS'DET'
p858
F0.890085
s(lp859
(g176
I26
tp860
atp861
a(S'verbeteren'
p862
(dp863
S'VERB'
p864
F0.102857
sS'NOUN'
p865
F0.897143
s(lp866
(g280
I36
tp867
atp868
a(S'van'
p869
(dp870
S'ADP'
p871
F1.0
s(lp872
(g167
I25
tp873
atp874
a(S'het'
p875
(dp876
S'PRON'
p877
F0.000927
sS'DET'
p878
F0.999073
s(lp879
(g288
I37
tp880
atp881
a(S'niveau'
p882
(dp883
S'NOUN'
p884
F1.0
s(lp885
(g295
I38
tp886
atp887
a(S'van'
p888
(dp889
S'ADP'
p890
F1.0
s(lp891
(g302
I39
tp892
atp893
a(S'beroepskwalificaties'
p894
(dp895
S'NOUN'
p896
F1.0
s(lp897
(g309
I41
tp898
atp899
a(S'en'
p900
(dp901
S'CONJ'
p902
F1.0
s(lp903
(g324
I42
tp904
atp905
a(S'impliciet'
p906
(dp907
S'ADJ'
p908
F1.0
s(lp909
(g338
I45
tp910
atp911
a(S'ook'
p912
(dp913
S'ADV'
p914
F1.0
s(lp915
(g190
I46
tp916
atp917
a(S'het'
p918
(dp919
S'PRON'
p920
F0.032739
sS'DET'
p921
F0.967261
s(lp922
tp923
a(S'bestrijden'
p924
(dp925
S'VERB'
p926
F0.031009000000000002
sS'NOUN'
p927
F0.968991
s(lp928
(g363
I49
tp929
atp930
a(S'van'
p931
(dp932
S'ADP'
p933
F1.0
s(lp934
(g637
I44
tp935
atp936
a(S'werkloosheid'
p937
(dp938
S'NOUN'
p939
F1.0
s(lp940
(g376
I50
tp941
atp942
a(g194
(dp943
g194
F1.0
s(lp944
(g194
I51
tp945
atp946
asS'de'
p947
(lp948
(S'die'
p949
(dp950
S'PRON'
p951
F0.029872
sS'DET'
p952
F0.962728
s(lp953
(g9
I0
tp954
atp955
a(S'finanzmittel'
p956
(dp957
S'ADJ'
p958
F0.247899
sS'NOUN'
p959
F0.735996
s(lp960
(g17
I1
tp961
atp962
a(S'aus'
p963
(dp964
S'PRT'
p965
F0.004275
sS'ADP'
p966
F0.992746
s(lp967
(g25
I2
tp968
atp969
a(S'dem'
p970
(dp971
S'PRON'
p972
F0.000179
sS'DET'
p973
F0.999795
s(lp974
(g32
I3
tp975
atp976
a(S'europ\xc3\xa4ischen'
p977
(dp978
S'ADJ'
p979
F1.0
s(lp980
(g55
I4
tp981
atp982
a(S'sozialfonds'
p983
(dp984
S'X'
p985
F0.000554
sS'NOUN'
p986
F0.998604
s(lp987
(g40
I6
tp988
atp989
a(S'sollten'
p990
(dp991
S'VERB'
p992
F1.0
s(lp993
(g62
I7
tp994
atp995
a(S'einen'
p996
(dp997
S'PRON'
p998
F0.007351
sS'DET'
p999
F0.992423
s(lp1000
(g439
I9
tp1001
atp1002
a(S'aktiven'
p1003
(dp1004
S'ADJ'
p1005
F1.0
s(lp1006
(g76
I10
tp1007
atp1008
a(S'beitrag'
p1009
(dp1010
g985
F0.005224
sS'NOUN'
p1011
F0.990312
s(lp1012
(g69
I11
tp1013
atp1014
a(S'zum'
p1015
(dp1016
S'ADP'
p1017
F1.0
s(lp1018
tp1019
a(S'konjunkturaufschwung'
p1020
(dp1021
S'ADJ'
p1022
F0.010464
sS'NOUN'
p1023
F0.980462
s(lp1024
(g100
I15
tp1025
atp1026
a(S'in'
p1027
(dp1028
S'ADP'
p1029
F1.0
s(lp1030
(g116
I16
tp1031
atp1032
a(S'den'
p1033
(dp1034
S'PRON'
p1035
F0.000168
sS'DET'
p1036
F0.999827
s(lp1037
(g484
I17
tp1038
atp1039
a(S'mitgliedstaaten'
p1040
(dp1041
S'ADJ'
p1042
F0.044361
sS'NOUN'
p1043
F0.943825
s(lp1044
(g131
I18
tp1045
atp1046
a(S'leisten'
p1047
(dp1048
S'VERB'
p1049
F1.0
s(lp1050
(g69
I11
tp1051
atp1052
a(g190
(dp1053
g194
F1.0
s(lp1054
(g83
I12
tp1055
atp1056
a(S'die'
p1057
(dp1058
S'PRON'
p1059
F0.969134
sS'DET'
p1060
F0.026207
s(lp1061
(g92
I13
tp1062
atp1063
a(S'von'
p1064
(dp1065
S'NOUN'
p1066
F0.000175
sS'ADP'
p1067
F0.999825
s(lp1068
(g167
I25
tp1069
atp1070
a(S'der'
p1071
(dp1072
S'PRON'
p1073
F1.6e-05
sS'DET'
p1074
F0.999979
s(lp1075
(g176
I26
tp1076
atp1077
a(S'krise'
p1078
(dp1079
S'NOUN'
p1080
F0.999858
s(lp1081
(g183
I27
tp1082
atp1083
a(S'am'
p1084
(dp1085
S'PRT'
p1086
F0.508947
sS'ADP'
p1087
F0.491053
s(lp1088
tp1089
a(S'st\xc3\xa4rksten'
p1090
(dp1091
S'ADJ'
p1092
F1.0
s(lp1093
(g140
I23
tp1094
atp1095
a(S'betroffen'
p1096
(dp1097
S'VERB'
p1098
F0.995888
sS'ADJ'
p1099
F0.004112
s(lp1100
(g159
I24
tp1101
atp1102
a(S'sind'
p1103
(dp1104
S'VERB'
p1105
F1.0
s(lp1106
(g508
I21
tp1107
atp1108
a(g190
(dp1109
g194
F1.0
s(lp1110
(g190
I28
tp1111
atp1112
a(S'und'
p1113
(dp1114
S'CONJ'
p1115
F1.0
s(lp1116
(g502
I20
tp1117
atp1118
a(S'ihre'
p1119
(dp1120
S'PRON'
p1121
F1.0
s(lp1122
(g222
I30
tp1123
atp1124
a(S'bem\xc3\xbchungen'
p1125
(dp1126
S'ADJ'
p1127
F7.4e-05
sS'NOUN'
p1128
F0.999883
s(lp1129
(g229
I31
tp1130
atp1131
a(S'zur'
p1132
(dp1133
S'ADP'
p1134
F1.0
s(lp1135
(g237
I32
tp1136
atp1137
a(S'erhaltung'
p1138
(dp1139
S'ADJ'
p1140
F0.000102
sS'NOUN'
p1141
F0.999865
s(lp1142
(g244
I33
tp1143
atp1144
a(S'von'
p1145
(dp1146
S'NOUN'
p1147
F0.001142
sS'ADP'
p1148
F0.998858
s(lp1149
tp1150
a(S'arbeitspl\xc3\xa4tzen'
p1151
(dp1152
g985
F0.248794
sS'NOUN'
p1153
F0.514916
s(lp1154
(g269
I34
tp1155
atp1156
a(S'und'
p1157
(dp1158
S'CONJ'
p1159
F1.0
s(lp1160
(g190
I35
tp1161
atp1162
a(S'zur'
p1163
(dp1164
S'ADP'
p1165
F1.0
s(lp1166
(g215
I29
tp1167
atp1168
a(S'verbesserung'
p1169
(dp1170
S'ADJ'
p1171
F0.011447
sS'NOUN'
p1172
F0.988438
s(lp1173
(g280
I36
tp1174
atp1175
a(S'beruflicher'
p1176
(dp1177
S'ADJ'
p1178
F1.0
s(lp1179
(g317
I40
tp1180
atp1181
a(S'qualifikationen'
p1182
(dp1183
S'ADJ'
p1184
F0.050202
sS'NOUN'
p1185
F0.94424
s(lp1186
(g309
I41
tp1187
atp1188
a(S'unterst\xc3\xbctzen'
p1189
(dp1190
S'VERB'
p1191
F1.0
s(lp1192
(g215
I29
tp1193
atp1194
a(S'sowie'
p1195
(dp1196
S'CONJ'
p1197
F1.0
s(lp1198
(g324
I42
tp1199
atp1200
a(S'als'
p1201
(dp1202
S'CONJ'
p1203
F0.9448989999999999
s(lp1204
(g637
I44
tp1205
atp1206
a(S'folge'
p1207
(dp1208
S'VERB'
p1209
F1.0
s(lp1210
(g338
I45
tp1211
atp1212
a(S'davon'
p1213
(dp1214
S'ADV'
p1215
F0.999423
sS'PRT'
p1216
F0.000577
s(lp1217
tp1218
a(S'arbeitslosigkeit'
p1219
(dp1220
S'NOUN'
p1221
F0.168159
sS'ADJ'
p1222
F0.828323
s(lp1223
(g376
I50
tp1224
atp1225
a(S'zu'
p1226
(dp1227
S'PRT'
p1228
F0.99998
s(lp1229
tp1230
a(S'verhindern'
p1231
(dp1232
S'VERB'
p1233
F1.0
s(lp1234
(g349
I47
tp1235
atp1236
a(S'und'
p1237
(dp1238
S'CONJ'
p1239
F1.0
s(lp1240
(g356
I48
tp1241
atp1242
a(S'zu'
p1243
(dp1244
S'ADV'
p1245
F0.000608
sS'PRT'
p1246
F0.999307
s(lp1247
(g215
I29
tp1248
atp1249
a(S'bek\xc3\xa4mpfen'
p1250
(dp1251
S'VERB'
p1252
F1.0
s(lp1253
(g363
I49
tp1254
atp1255
a(g194
(dp1256
g194
F1.0
s(lp1257
(g194
I51
tp1258
atp1259
asS'it'
p1260
(lp1261
(S'le'
p1262
(dp1263
S'PRON'
p1264
F0.000148
sS'DET'
p1265
F0.999852
s(lp1266
(g9
I0
tp1267
atp1268
a(S'finanze'
p1269
(dp1270
S'NOUN'
p1271
F1.0
s(lp1272
(g17
I1
tp1273
atp1274
a(S'del'
p1275
(dp1276
S'DEF'
p1277
F0.001248
sS'ADP'
p1278
F0.998752
s(lp1279
(g25
I2
tp1280
atp1281
a(S'fondo'
p1282
(dp1283
S'VERB'
p1284
F0.000104
sS'NOUN'
p1285
F0.999896
s(lp1286
(g40
I6
tp1287
atp1288
a(S'sociale'
p1289
(dp1290
S'ADJ'
p1291
F1.0
s(lp1292
(g47
I5
tp1293
atp1294
a(S'europeo'
p1295
(dp1296
S'ADJ'
p1297
F0.498552
sS'NOUN'
p1298
F0.501448
s(lp1299
(g55
I4
tp1300
atp1301
a(S'dovrebbero'
p1302
(dp1303
S'VERB'
p1304
F1.0
s(lp1305
(g62
I7
tp1306
atp1307
a(S'contribuire'
p1308
(dp1309
S'VERB'
p1310
F1.0
s(lp1311
(g69
I11
tp1312
atp1313
a(S'concretamente'
p1314
(dp1315
S'ADV'
p1316
F1.0
s(lp1317
(g76
I10
tp1318
atp1319
a(S'alla'
p1320
(dp1321
S'ADP'
p1322
F1.0
s(lp1323
(g83
I12
tp1324
atp1325
a(S'ripresa'
p1326
(dp1327
S'VERB'
p1328
F0.000876
sS'NOUN'
p1329
F0.999124
s(lp1330
(g100
I15
tp1331
atp1332
a(S'economica'
p1333
(dp1334
S'ADJ'
p1335
F1.0
s(lp1336
(g108
I14
tp1337
atp1338
a(S'degli'
p1339
(dp1340
S'DEF'
p1341
F0.002168
sS'ADP'
p1342
F0.997832
s(lp1343
tp1344
a(S'stati'
p1345
(dp1346
S'VERB'
p1347
F0.458301
sS'NOUN'
p1348
F0.541699
s(lp1349
(g123
I19
tp1350
atp1351
a(S'membri'
p1352
(dp1353
S'NOUN'
p1354
F1.0
s(lp1355
(g131
I18
tp1356
atp1357
a(S'colpiti'
p1358
(dp1359
S'VERB'
p1360
F1.0
s(lp1361
(g159
I24
tp1362
atp1363
a(S'pi\xc3\xb9'
p1364
(dp1365
S'ADV'
p1366
F0.99906
sS'NOUN'
p1367
F2.4e-05
sS'ADJ'
p1368
F0.000592
sS'ADP'
p1369
F0.000323
s(lp1370
tp1371
a(S'duramente'
p1372
(dp1373
S'ADV'
p1374
F1.0
s(lp1375
(g140
I23
tp1376
atp1377
a(S'dalla'
p1378
(dp1379
S'NOUN'
p1380
F6e-06
sS'ADP'
p1381
F0.999994
s(lp1382
(g167
I25
tp1383
atp1384
a(S'crisi'
p1385
(dp1386
S'NOUN'
p1387
F1.0
s(lp1388
(g183
I27
tp1389
atp1390
a(g190
(dp1391
g194
F1.0
s(lp1392
(g190
I28
tp1393
atp1394
a(S'aiutandoli'
p1395
(dp1396
S'VERB'
p1397
F1.0
s(lp1398
(g215
I29
tp1399
atp1400
a(S'a'
p1401
(dp1402
S'CONJ'
p1403
F0.000131
sS'ADP'
p1404
F0.999869
s(lp1405
(g237
I32
tp1406
atp1407
a(S'conservare'
p1408
(dp1409
S'VERB'
p1410
F1.0
s(lp1411
(g244
I33
tp1412
atp1413
a(S'i'
p1414
(dp1415
S'DET'
p1416
F1.0
s(lp1417
(g269
I34
tp1418
atp1419
a(S'posti'
p1420
(dp1421
S'ADJ'
p1422
F0.11501
sS'VERB'
p1423
F0.021174999999999996
sS'NOUN'
p1424
F0.863816
s(lp1425
(g269
I34
tp1426
atp1427
a(S'di'
p1428
(dp1429
S'CONJ'
p1430
F4e-06
sS'ADP'
p1431
F0.999996
s(lp1432
tp1433
a(S'lavoro'
p1434
(dp1435
S'VERB'
p1436
F6e-06
sS'NOUN'
p1437
F0.999994
s(lp1438
(g269
I34
tp1439
atp1440
a(g190
(dp1441
g194
F1.0
s(lp1442
(g190
I35
tp1443
atp1444
a(g1401
(dp1445
S'CONJ'
p1446
F0.000702
sS'ADP'
p1447
F0.999298
s(lp1448
tp1449
a(S'migliorare'
p1450
(dp1451
S'VERB'
p1452
F1.0
s(lp1453
(g280
I36
tp1454
atp1455
a(S'il'
p1456
(dp1457
S'DET'
p1458
F1.0
s(lp1459
(g288
I37
tp1460
atp1461
a(S'livello'
p1462
(dp1463
S'VERB'
p1464
F7.4e-05
sS'NOUN'
p1465
F0.999926
s(lp1466
(g295
I38
tp1467
atp1468
a(S'professionale'
p1469
(dp1470
S'ADJ'
p1471
F1.0
s(lp1472
(g317
I40
tp1473
atp1474
a(S'e'
p1475
(dp1476
S'CONJ'
p1477
F1.0
s(lp1478
(g324
I42
tp1479
atp1480
a(g190
(dp1481
g194
F1.0
s(lp1482
(g190
I43
tp1483
atp1484
a(S'per'
p1485
(dp1486
S'CONJ'
p1487
F0.00717
sS'ADP'
p1488
F0.99283
s(lp1489
(g637
I44
tp1490
atp1491
a(S'estensione'
p1492
(dp1493
S'NOUN'
p1494
F1.0
s(lp1495
(g338
I45
tp1496
atp1497
a(g190
(dp1498
g194
F1.0
s(lp1499
(g190
I46
tp1500
atp1501
a(g1401
(dp1502
S'CONJ'
p1503
F0.000702
sS'ADP'
p1504
F0.999298
s(lp1505
tp1506
a(S'prevenire'
p1507
(dp1508
S'VERB'
p1509
F1.0
s(lp1510
(g349
I47
tp1511
atp1512
a(g1475
(dp1513
S'CONJ'
p1514
F1.0
s(lp1515
(g356
I48
tp1516
atp1517
a(S'combattere'
p1518
(dp1519
S'VERB'
p1520
F1.0
s(lp1521
(g363
I49
tp1522
atp1523
a(S'la'
p1524
(dp1525
S'PRON'
p1526
F0.0
sS'DET'
p1527
F1.0
s(lp1528
tp1529
a(S'disoccupazione'
p1530
(dp1531
S'NOUN'
p1532
F1.0
s(lp1533
(g376
I50
tp1534
atp1535
a(g194
(dp1536
g194
F1.0
s(lp1537
(g194
I51
tp1538
atp1539
asS'sk'
p1540
(lp1541
(S'prostriedky'
p1542
(dp1543
S'NOUN'
p1544
F1.0
s(lp1545
(g17
I1
tp1546
atp1547
a(S'z'
p1548
(dp1549
g985
F1.3e-05
sS'NOUN'
p1550
F1.9e-05
sS'ADP'
p1551
F0.999968
s(lp1552
(g25
I2
tp1553
atp1554
a(S'eur\xc3\xb3pskeho'
p1555
(dp1556
S'ADJ'
p1557
F1.0
s(lp1558
(g55
I4
tp1559
atp1560
a(S'soci\xc3\xa1lneho'
p1561
(dp1562
S'ADJ'
p1563
F1.0
s(lp1564
(g47
I5
tp1565
atp1566
a(S'fondy'
p1567
(dp1568
S'NOUN'
p1569
F1.0
s(lp1570
(g40
I6
tp1571
atp1572
a(S'by'
p1573
(dp1574
S'PRT'
p1575
F0.999971
sg985
F2.9e-05
s(lp1576
tp1577
a(S'mali'
p1578
(dp1579
S'VERB'
p1580
F0.9999999999999999
s(lp1581
(g62
I7
tp1582
atp1583
a(S'v\xc3\xbdrazne'
p1584
(dp1585
S'ADV'
p1586
F1.0
s(lp1587
(g432
I8
tp1588
atp1589
a(S'prispie\xc5\xa5'
p1590
(dp1591
S'VERB'
p1592
F1.0
s(lp1593
tp1594
a(S'k'
p1595
(dp1596
g985
F5.8e-05
sS'NOUN'
p1597
F7e-06
sS'ADP'
p1598
F0.999935
s(lp1599
(g69
I11
tp1600
atp1601
a(S'hospod\xc3\xa1rskej'
p1602
(dp1603
S'ADJ'
p1604
F1.0
s(lp1605
(g108
I14
tp1606
atp1607
a(S'obnove'
p1608
(dp1609
S'NOUN'
p1610
F1.0
s(lp1611
(g100
I15
tp1612
atp1613
a(S'\xc4\x8dlensk\xc3\xbdch'
p1614
(dp1615
S'ADJ'
p1616
F1.0
s(lp1617
(g131
I18
tp1618
atp1619
a(S'\xc5\xa1t\xc3\xa1tov'
p1620
(dp1621
S'NOUN'
p1622
F1.0
s(lp1623
(g123
I19
tp1624
atp1625
a(g190
(dp1626
g194
F1.0
s(lp1627
tp1628
a(S'ktor\xc3\xa9'
p1629
(dp1630
S'PRON'
p1631
F1.0
s(lp1632
(g502
I20
tp1633
atp1634
a(S'boli'
p1635
(dp1636
S'VERB'
p1637
F1.0
s(lp1638
(g514
I22
tp1639
atp1640
a(S'najviac'
p1641
(dp1642
S'ADV'
p1643
F0.962306
sg985
F0.012623
sS'NUM'
p1644
F0.025072
s(lp1645
(g140
I23
tp1646
atp1647
a(S'postihnut\xc3\xa9'
p1648
(dp1649
S'VERB'
p1650
F1.0
s(lp1651
(g159
I24
tp1652
atp1653
a(S'kr\xc3\xadzou'
p1654
(dp1655
S'NOUN'
p1656
F1.0
s(lp1657
(g183
I27
tp1658
atp1659
a(g190
(dp1660
g194
F1.0
s(lp1661
tp1662
a(g1401
(dp1663
g985
F0.0006690000000000001
sS'CONJ'
p1664
F0.999301
sS'NOUN'
p1665
F1.1000000000000001e-05
sS'ADP'
p1666
F0.0
sS'PRT'
p1667
F2e-05
s(lp1668
(g190
I28
tp1669
atp1670
a(S'pom\xc3\xb4c\xc5\xa5'
p1671
(dp1672
S'VERB'
p1673
F1.0
s(lp1674
(g215
I29
tp1675
atp1676
a(S'im'
p1677
(dp1678
S'PRON'
p1679
F1.0
sg985
F0.0
s(lp1680
(g222
I30
tp1681
atp1682
a(S'udr\xc5\xbea\xc5\xa5'
p1683
(dp1684
S'VERB'
p1685
F1.0
s(lp1686
(g244
I33
tp1687
atp1688
a(S'pracovn\xc3\xa9'
p1689
(dp1690
S'ADJ'
p1691
F1.0
s(lp1692
tp1693
a(S'miesta'
p1694
(dp1695
S'NOUN'
p1696
F1.0
s(lp1697
(g269
I34
tp1698
atp1699
a(g190
(dp1700
g194
F1.0
s(lp1701
(g190
I35
tp1702
atp1703
a(S'zlep\xc5\xa1i\xc5\xa5'
p1704
(dp1705
S'VERB'
p1706
F1.0
s(lp1707
(g280
I36
tp1708
atp1709
a(S'\xc3\xbarove\xc5\x88'
p1710
(dp1711
S'NOUN'
p1712
F1.0
s(lp1713
(g295
I38
tp1714
atp1715
a(S'odbornej'
p1716
(dp1717
S'ADJ'
p1718
F1.0
s(lp1719
(g317
I40
tp1720
atp1721
a(S'kvalifik\xc3\xa1cie'
p1722
(dp1723
S'NOUN'
p1724
F1.0
s(lp1725
(g309
I41
tp1726
atp1727
a(g1401
(dp1728
g985
F0.000604
sS'CONJ'
p1729
F0.998972
sS'NOUN'
p1730
F4.3e-05
sS'ADP'
p1731
F0.00032
sS'PRT'
p1732
F6e-05
s(lp1733
(g324
I42
tp1734
atp1735
a(S't\xc3\xbdm'
p1736
(dp1737
S'PRON'
p1738
F0.9169120000000001
sS'CONJ'
p1739
F0.083088
s(lp1740
(g637
I44
tp1741
atp1742
a(S'podpori\xc5\xa5'
p1743
(dp1744
S'VERB'
p1745
F1.0
s(lp1746
(g338
I45
tp1747
atp1748
a(S'prevenciu'
p1749
(dp1750
S'NOUN'
p1751
F1.0
s(lp1752
(g349
I47
tp1753
atp1754
a(g1401
(dp1755
g985
F0.003158
sS'CONJ'
p1756
F0.995859
sS'NOUN'
p1757
F0.00018700000000000002
sS'ADP'
p1758
F0.000769
sS'PRT'
p1759
F2.7e-05
s(lp1760
(g356
I48
tp1761
atp1762
a(S'boj'
p1763
(dp1764
g985
F0.001446
sS'VERB'
p1765
F0.000155
sS'NOUN'
p1766
F0.998399
s(lp1767
tp1768
a(S'proti'
p1769
(dp1770
S'ADV'
p1771
F9.7e-05
sS'ADP'
p1772
F0.999903
s(lp1773
(g363
I49
tp1774
atp1775
a(S'nezamestnanosti'
p1776
(dp1777
S'NOUN'
p1778
F1.0
s(lp1779
(g376
I50
tp1780
atp1781
a(g194
(dp1782
g194
F1.0
s(lp1783
(g194
I51
tp1784
atp1785
asS'pl'
p1786
(lp1787
(S'\xc5\x9arodki'
p1788
(dp1789
S'NOUN'
p1790
F1.0
s(lp1791
tp1792
a(S'finansowe'
p1793
(dp1794
S'ADJ'
p1795
F0.9999999999999999
s(lp1796
(g17
I1
tp1797
atp1798
a(g1548
(dp1799
S'PRT'
p1800
F1e-05
sS'VERB'
p1801
F1e-06
sS'NOUN'
p1802
F1e-06
sS'ADP'
p1803
F0.999987
sg985
F1e-06
s(lp1804
(g25
I2
tp1805
atp1806
a(S'europejskiego'
p1807
(dp1808
S'ADJ'
p1809
F1.0
s(lp1810
(g55
I4
tp1811
atp1812
a(S'funduszu'
p1813
(dp1814
S'NOUN'
p1815
F1.0
s(lp1816
(g40
I6
tp1817
atp1818
a(S'spo\xc5\x82ecznego'
p1819
(dp1820
S'ADJ'
p1821
F1.0
s(lp1822
(g47
I5
tp1823
atp1824
a(S'powinny'
p1825
(dp1826
S'VERB'
p1827
F1.0
s(lp1828
(g62
I7
tp1829
atp1830
a(S'w'
p1831
(dp1832
S'ADJ'
p1833
F0.0
sg985
F3.4e-05
sS'NOUN'
p1834
F2e-05
sS'ADP'
p1835
F0.999945
s(lp1836
(g439
I9
tp1837
atp1838
a(S'aktywny'
p1839
(dp1840
S'ADJ'
p1841
F1.0
s(lp1842
(g76
I10
tp1843
atp1844
a(S'spos\xc3\xb3b'
p1845
(dp1846
S'ADJ'
p1847
F0.00146
sS'NOUN'
p1848
F0.99854
s(lp1849
tp1850
a(S'przyczyni\xc4\x87'
p1851
(dp1852
S'VERB'
p1853
F1.0
s(lp1854
(g69
I11
tp1855
atp1856
a(S'si\xc4\x99'
p1857
(dp1858
S'PRT'
p1859
F1.0
s(lp1860
tp1861
a(S'do'
p1862
(dp1863
g985
F0.0
sS'NOUN'
p1864
F6e-06
sS'ADP'
p1865
F0.9999939999999999
s(lp1866
(g83
I12
tp1867
atp1868
a(S'naprawy'
p1869
(dp1870
S'NOUN'
p1871
F1.0
s(lp1872
(g100
I15
tp1873
atp1874
a(S'gospodarczej'
p1875
(dp1876
S'ADJ'
p1877
F0.999999
s(lp1878
(g108
I14
tp1879
atp1880
a(g1831
(dp1881
g985
F0.0
sS'ADJ'
p1882
F1e-06
sS'ADP'
p1883
F0.999999
sS'NOUN'
p1884
F0.0
s(lp1885
tp1886
a(S'tych'
p1887
(dp1888
S'ADJ'
p1889
F0.9999970000000001
s(lp1890
(g484
I17
tp1891
atp1892
a(S'pa\xc5\x84stwach'
p1893
(dp1894
S'NOUN'
p1895
F1.0
s(lp1896
(g123
I19
tp1897
atp1898
a(S'cz\xc5\x82onkowskich'
p1899
(dp1900
S'ADJ'
p1901
F1.0000010000000001
s(lp1902
(g131
I18
tp1903
atp1904
a(g190
(dp1905
g985
F0.0
sg194
F1.0
s(lp1906
tp1907
a(S'kt\xc3\xb3re'
p1908
(dp1909
S'ADJ'
p1910
F1.0000019999999998
s(lp1911
(g502
I20
tp1912
atp1913
a(S'zosta\xc5\x82y'
p1914
(dp1915
S'VERB'
p1916
F1.0
s(lp1917
(g514
I22
tp1918
atp1919
a(S'najbardziej'
p1920
(dp1921
S'ADV'
p1922
F1.0
s(lp1923
(g140
I23
tp1924
atp1925
a(S'poszkodowane'
p1926
(dp1927
S'VERB'
p1928
F0.998739
sS'ADJ'
p1929
F0.001261
s(lp1930
(g159
I24
tp1931
atp1932
a(S'przez'
p1933
(dp1934
S'ADP'
p1935
F1.0
s(lp1936
(g167
I25
tp1937
atp1938
a(S'kryzys'
p1939
(dp1940
S'NOUN'
p1941
F1.0
s(lp1942
(g183
I27
tp1943
atp1944
a(g190
(dp1945
g985
F0.0
sg194
F1.0
s(lp1946
(g190
I28
tp1947
atp1948
a(S'wspieraj\xc4\x85c'
p1949
(dp1950
S'VERB'
p1951
F1.0
s(lp1952
(g215
I29
tp1953
atp1954
a(S'ich'
p1955
(dp1956
S'PRON'
p1957
F0.999999
sg985
F1e-06
s(lp1958
(g222
I30
tp1959
atp1960
a(S'wysi\xc5\x82ki'
p1961
(dp1962
S'NOUN'
p1963
F1.0
s(lp1964
(g229
I31
tp1965
atp1966
a(S'na'
p1967
(dp1968
g985
F3e-06
sS'VERB'
p1969
F1e-06
sS'NOUN'
p1970
F0.0
sS'ADP'
p1971
F0.999995
sS'PRT'
p1972
F1e-06
s(lp1973
tp1974
a(S'rzecz'
p1975
(dp1976
S'NOUN'
p1977
F1.0
s(lp1978
(g237
I32
tp1979
atp1980
a(S'zachowania'
p1981
(dp1982
S'VERB'
p1983
F0.968537
sS'NOUN'
p1984
F0.031463
s(lp1985
(g244
I33
tp1986
atp1987
a(S'miejsc'
p1988
(dp1989
S'NOUN'
p1990
F1.0
s(lp1991
tp1992
a(S'pracy'
p1993
(dp1994
S'NOUN'
p1995
F1.0
s(lp1996
(g269
I34
tp1997
atp1998
a(g190
(dp1999
g985
F0.0
sg194
F1.0
s(lp2000
(g190
I35
tp2001
atp2002
a(S'podniesienia'
p2003
(dp2004
S'VERB'
p2005
F0.952993
sS'NOUN'
p2006
F0.047007
s(lp2007
(g280
I36
tp2008
atp2009
a(S'poziomu'
p2010
(dp2011
S'NOUN'
p2012
F1.0
s(lp2013
(g295
I38
tp2014
atp2015
a(S'kwalifikacji'
p2016
(dp2017
S'NOUN'
p2018
F1.0
s(lp2019
(g309
I41
tp2020
atp2021
a(S'zawodowych'
p2022
(dp2023
S'ADJ'
p2024
F0.9999999999999999
s(lp2025
(g317
I40
tp2026
atp2027
a(g190
(dp2028
g985
F0.0
sg194
F1.0
s(lp2029
(g190
I43
tp2030
atp2031
a(g1401
(dp2032
S'ADV'
p2033
F0.000355
sS'NOUN'
p2034
F0.001976
sS'ADP'
p2035
F3.699999999999999e-05
sS'PRT'
p2036
F0.004544
sS'VERB'
p2037
F0.0006219999999999999
sg985
F0.003439
sS'CONJ'
p2038
F0.988808
sS'ADJ'
p2039
F0.00021799999999999999
s(lp2040
(g324
I42
tp2041
atp2042
a(g1831
(dp2043
S'NOUN'
p2044
F4e-06
sS'ADJ'
p2045
F1e-05
sS'ADP'
p2046
F0.999984
sg985
F0.0
s(lp2047
(g637
I44
tp2048
atp2049
a(S'konsekwencji'
p2050
(dp2051
S'NOUN'
p2052
F1.000001
s(lp2053
(g338
I45
tp2054
atp2055
a(S'-'
p2056
(dp2057
g985
F7.999999999999999e-05
sS'NUM'
p2058
F4e-06
sS'NOUN'
p2059
F0.000109
sg194
F0.999807
s(lp2060
(g190
I46
tp2061
atp2062
a(S'zapobiegania'
p2063
(dp2064
S'VERB'
p2065
F0.628286
sS'NOUN'
p2066
F0.371714
s(lp2067
(g349
I47
tp2068
atp2069
a(g1414
(dp2070
S'PRT'
p2071
F0.000568
sS'CONJ'
p2072
F0.999343
sS'NOUN'
p2073
F7.8e-05
sg985
F0.0
sS'PRON'
p2074
F1.2e-05
s(lp2075
(g356
I48
tp2076
atp2077
a(S'przeciwdzia\xc5\x82ania'
p2078
(dp2079
S'VERB'
p2080
F1.0
s(lp2081
(g363
I49
tp2082
atp2083
a(S'bezrobociu'
p2084
(dp2085
S'NOUN'
p2086
F1.0
s(lp2087
(g376
I50
tp2088
atp2089
a(g194
(dp2090
g194
F1.0
s(lp2091
(g194
I51
tp2092
atp2093
asS'sl'
p2094
(lp2095
(S'finan\xc4\x8dna'
p2096
(dp2097
S'ADJ'
p2098
F1.0
s(lp2099
tp2100
a(S'sredstva'
p2101
(dp2102
S'NOUN'
p2103
F1.0
s(lp2104
(g17
I1
tp2105
atp2106
a(S'iz'
p2107
(dp2108
g985
F4e-06
sS'ADP'
p2109
F0.999996
s(lp2110
(g25
I2
tp2111
atp2112
a(S'evropskega'
p2113
(dp2114
S'ADJ'
p2115
F1.000001
s(lp2116
(g55
I4
tp2117
atp2118
a(S'socialnega'
p2119
(dp2120
S'ADJ'
p2121
F1.0
s(lp2122
(g47
I5
tp2123
atp2124
a(S'sklada'
p2125
(dp2126
S'VERB'
p2127
F0.000103
sS'NOUN'
p2128
F0.999897
s(lp2129
(g40
I6
tp2130
atp2131
a(S'bi'
p2132
(dp2133
g985
F0.000254
sS'VERB'
p2134
F0.999746
s(lp2135
tp2136
a(S'morala'
p2137
(dp2138
S'VERB'
p2139
F0.9986520000000001
sS'NOUN'
p2140
F0.001348
s(lp2141
(g62
I7
tp2142
atp2143
a(S'aktivno'
p2144
(dp2145
S'ADV'
p2146
F0.573532
sS'ADJ'
p2147
F0.426468
s(lp2148
(g76
I10
tp2149
atp2150
a(S'prispevati'
p2151
(dp2152
S'VERB'
p2153
F1.0
s(lp2154
tp2155
a(g1595
(dp2156
S'NOUN'
p2157
F0.000883
sS'ADP'
p2158
F0.999117
s(lp2159
(g69
I11
tp2160
atp2161
a(S'o\xc5\xbeivitvi'
p2162
(dp2163
S'NOUN'
p2164
F1.0
s(lp2165
tp2166
a(S'gospodarstva'
p2167
(dp2168
S'NOUN'
p2169
F1.0
s(lp2170
(g100
I15
tp2171
atp2172
a(S'dr\xc5\xbeav'
p2173
(dp2174
S'NOUN'
p2175
F1.0
s(lp2176
(g131
I18
tp2177
atp2178
a(S'\xc4\x8dlanic'
p2179
(dp2180
S'NOUN'
p2181
F1.0
s(lp2182
(g123
I19
tp2183
atp2184
a(g190
(dp2185
g194
F1.0
s(lp2186
tp2187
a(S'ki'
p2188
(dp2189
S'CONJ'
p2190
F1.0
s(lp2191
(g502
I20
tp2192
atp2193
a(S'jih'
p2194
(dp2195
S'PRON'
p2196
F0.9999999999999999
s(lp2197
(g508
I21
tp2198
atp2199
a(S'je'
p2200
(dp2201
S'PRON'
p2202
F5.1e-05
sS'VERB'
p2203
F0.999949
sg985
F1e-06
s(lp2204
(g176
I26
tp2205
atp2206
a(S'kriza'
p2207
(dp2208
S'NOUN'
p2209
F1.0
s(lp2210
(g183
I27
tp2211
atp2212
a(S'najbolj'
p2213
(dp2214
S'ADV'
p2215
F1.0
s(lp2216
(g140
I23
tp2217
atp2218
a(S'prizadela'
p2219
(dp2220
S'VERB'
p2221
F1.0
s(lp2222
(g159
I24
tp2223
atp2224
a(g190
(dp2225
g194
F1.0
s(lp2226
tp2227
a(S'ter'
p2228
(dp2229
S'CONJ'
p2230
F1.0
s(lp2231
(g190
I28
tp2232
atp2233
a(S'tako'
p2234
(dp2235
S'ADV'
p2236
F0.955402
sS'PRON'
p2237
F0.03177
sS'CONJ'
p2238
F0.012829
s(lp2239
(g167
I25
tp2240
atp2241
a(S'pomagati'
p2242
(dp2243
S'VERB'
p2244
F1.0
s(lp2245
(g215
I29
tp2246
atp2247
a(S'njihovim'
p2248
(dp2249
S'PRON'
p2250
F1.0
s(lp2251
(g222
I30
tp2252
atp2253
a(S'prizadevanjem'
p2254
(dp2255
S'NOUN'
p2256
F1.0
s(lp2257
(g229
I31
tp2258
atp2259
a(S'za'
p2260
(dp2261
S'ADV'
p2262
F2e-05
sg985
F2e-06
sS'ADP'
p2263
F0.999978
s(lp2264
(g237
I32
tp2265
atp2266
a(S'ohranitev'
p2267
(dp2268
S'NOUN'
p2269
F1.0
s(lp2270
(g244
I33
tp2271
atp2272
a(S'delovnih'
p2273
(dp2274
S'ADJ'
p2275
F1.0
s(lp2276
tp2277
a(S'mest'
p2278
(dp2279
S'NOUN'
p2280
F1.0
s(lp2281
(g269
I34
tp2282
atp2283
a(g190
(dp2284
g194
F1.0
s(lp2285
(g190
I35
tp2286
atp2287
a(S'izbolj\xc5\xa1anje'
p2288
(dp2289
S'NOUN'
p2290
F1.0
s(lp2291
(g280
I36
tp2292
atp2293
a(S'ravni'
p2294
(dp2295
S'ADJ'
p2296
F0.000319
sS'NOUN'
p2297
F0.9996809999999999
s(lp2298
(g295
I38
tp2299
atp2300
a(S'poklicnih'
p2301
(dp2302
S'ADJ'
p2303
F1.0
s(lp2304
(g317
I40
tp2305
atp2306
a(S'kvalifikacij'
p2307
(dp2308
S'NOUN'
p2309
F1.0
s(lp2310
(g309
I41
tp2311
atp2312
a(S'in'
p2313
(dp2314
S'ADV'
p2315
F5.1e-05
sg985
F9e-06
sS'CONJ'
p2316
F0.99994
sS'NOUN'
p2317
F1e-06
s(lp2318
(g324
I42
tp2319
atp2320
a(S'dodatno'
p2321
(dp2322
S'ADV'
p2323
F0.006194
sS'ADJ'
p2324
F0.993806
s(lp2325
(g338
I45
tp2326
atp2327
a(S'prepre\xc4\x8devanje'
p2328
(dp2329
S'NOUN'
p2330
F1.0
s(lp2331
(g349
I47
tp2332
atp2333
a(S'in'
p2334
(dp2335
S'ADV'
p2336
F2.8e-05
sg985
F1e-05
sS'CONJ'
p2337
F0.999934
sS'NOUN'
p2338
F2.8e-05
s(lp2339
(g356
I48
tp2340
atp2341
a(S'boj'
p2342
(dp2343
S'NOUN'
p2344
F1.0
s(lp2345
tp2346
a(S'proti'
p2347
(dp2348
S'ADV'
p2349
F0.031059
sS'ADP'
p2350
F0.968941
s(lp2351
(g363
I49
tp2352
atp2353
a(S'brezposelnosti'
p2354
(dp2355
S'NOUN'
p2356
F1.0
s(lp2357
(g376
I50
tp2358
atp2359
a(g194
(dp2360
g194
F1.0
s(lp2361
(g194
I51
tp2362
atp2363
asS'es'
p2364
(lp2365
(S'las'
p2366
(dp2367
S'PRON'
p2368
F1.5e-05
sS'DET'
p2369
F0.999985
s(lp2370
(g9
I0
tp2371
atp2372
a(S'finanzas'
p2373
(dp2374
S'NOUN'
p2375
F1.0
s(lp2376
(g17
I1
tp2377
atp2378
a(S'del'
p2379
(dp2380
S'ADP'
p2381
F1.0
s(lp2382
(g25
I2
tp2383
atp2384
a(S'fondo'
p2385
(dp2386
S'NOUN'
p2387
F1.0
s(lp2388
(g40
I6
tp2389
atp2390
a(S'social'
p2391
(dp2392
g985
F0.004688
sS'ADJ'
p2393
F0.995312
s(lp2394
(g47
I5
tp2395
atp2396
a(S'europeo'
p2397
(dp2398
S'NOUN'
p2399
F0.020413
sS'ADJ'
p2400
F0.979587
s(lp2401
(g55
I4
tp2402
atp2403
a(S'deber\xc3\xadan'
p2404
(dp2405
S'VERB'
p2406
F1.0
s(lp2407
(g62
I7
tp2408
atp2409
a(S'contribuir'
p2410
(dp2411
S'VERB'
p2412
F1.0
s(lp2413
(g432
I8
tp2414
atp2415
a(S'de'
p2416
(dp2417
g985
F5.5e-05
sS'CONJ'
p2418
F0.000863
sS'ADP'
p2419
F0.999082
s(lp2420
tp2421
a(S'manera'
p2422
(dp2423
S'NOUN'
p2424
F1.0
s(lp2425
(g69
I11
tp2426
atp2427
a(S'activa'
p2428
(dp2429
S'VERB'
p2430
F0.003973
sS'ADJ'
p2431
F0.996027
s(lp2432
(g76
I10
tp2433
atp2434
a(g1401
(dp2435
g985
F0.00062
sS'CONJ'
p2436
F9e-06
sS'ADP'
p2437
F0.99937
s(lp2438
(g83
I12
tp2439
atp2440
a(S'la'
p2441
(dp2442
g985
F0.0
sS'PRON'
p2443
F0.0
sS'DET'
p2444
F0.999999
sS'NOUN'
p2445
F0.0
s(lp2446
(g92
I13
tp2447
atp2448
a(S'recuperaci\xc3\xb3n'
p2449
(dp2450
S'NOUN'
p2451
F1.0
s(lp2452
(g100
I15
tp2453
atp2454
a(S'de'
p2455
(dp2456
g985
F0.0
sS'CONJ'
p2457
F1.7e-05
sS'ADP'
p2458
F0.999983
s(lp2459
(g116
I16
tp2460
atp2461
a(S'los'
p2462
(dp2463
S'PRON'
p2464
F0.0
sS'DET'
p2465
F1.0
s(lp2466
(g484
I17
tp2467
atp2468
a(S'estados'
p2469
(dp2470
S'NOUN'
p2471
F1.0
s(lp2472
(g123
I19
tp2473
atp2474
a(S'miembros'
p2475
(dp2476
S'NOUN'
p2477
F1.0
s(lp2478
(g131
I18
tp2479
atp2480
a(S'que'
p2481
(dp2482
g985
F0.0
sS'CONJ'
p2483
F1.0
s(lp2484
(g502
I20
tp2485
atp2486
a(S'm\xc3\xa1s'
p2487
(dp2488
S'ADV'
p2489
F1.0
sS'CONJ'
p2490
F0.0
s(lp2491
(g140
I23
tp2492
atp2493
a(S'han'
p2494
(dp2495
S'VERB'
p2496
F1.0
s(lp2497
(g508
I21
tp2498
atp2499
a(S'sufrido'
p2500
(dp2501
S'VERB'
p2502
F1.0
s(lp2503
(g514
I22
tp2504
atp2505
a(S'los'
p2506
(dp2507
S'PRON'
p2508
F1e-06
sS'DET'
p2509
F0.999999
s(lp2510
tp2511
a(S'efectos'
p2512
(dp2513
S'NOUN'
p2514
F1.0
s(lp2515
(g159
I24
tp2516
atp2517
a(S'de'
p2518
(dp2519
g985
F0.0
sS'CONJ'
p2520
F1.7e-05
sS'ADP'
p2521
F0.999983
s(lp2522
(g167
I25
tp2523
atp2524
a(S'la'
p2525
(dp2526
g985
F0.0
sS'PRON'
p2527
F0.0
sS'DET'
p2528
F0.999999
sS'NOUN'
p2529
F0.0
s(lp2530
(g176
I26
tp2531
atp2532
a(S'crisis'
p2533
(dp2534
S'NOUN'
p2535
F1.0
s(lp2536
(g183
I27
tp2537
atp2538
a(g190
(dp2539
g194
F1.0
s(lp2540
(g190
I28
tp2541
atp2542
a(S'mediante'
p2543
(dp2544
S'ADP'
p2545
F1.0
s(lp2546
tp2547
a(S'el'
p2548
(dp2549
S'PRON'
p2550
F5e-06
sS'DET'
p2551
F0.999995
s(lp2552
(g167
I25
tp2553
atp2554
a(S'apoyo'
p2555
(dp2556
S'NOUN'
p2557
F1.0
s(lp2558
tp2559
a(g1401
(dp2560
g985
F2e-06
sS'CONJ'
p2561
F4.6e-05
sS'ADP'
p2562
F0.999952
s(lp2563
(g215
I29
tp2564
atp2565
a(S'sus'
p2566
(dp2567
S'PRON'
p2568
F1.0
s(lp2569
(g222
I30
tp2570
atp2571
a(S'esfuerzos'
p2572
(dp2573
S'NOUN'
p2574
F1.0
s(lp2575
(g229
I31
tp2576
atp2577
a(S'por'
p2578
(dp2579
S'ADP'
p2580
F1.0
s(lp2581
(g237
I32
tp2582
atp2583
a(S'mantener'
p2584
(dp2585
S'VERB'
p2586
F1.0
s(lp2587
(g244
I33
tp2588
atp2589
a(S'puestos'
p2590
(dp2591
S'VERB'
p2592
F0.916455
sS'NOUN'
p2593
F0.083545
s(lp2594
tp2595
a(S'de'
p2596
(dp2597
g985
F2e-06
sS'CONJ'
p2598
F0.00059
sS'ADP'
p2599
F0.999408
s(lp2600
tp2601
a(S'trabajo'
p2602
(dp2603
S'NOUN'
p2604
F1.0
s(lp2605
(g269
I34
tp2606
atp2607
a(g190
(dp2608
g194
F1.0
s(lp2609
(g190
I35
tp2610
atp2611
a(S'la'
p2612
(dp2613
S'PRON'
p2614
F4.9e-05
sS'DET'
p2615
F0.999945
sS'NOUN'
p2616
F0.0
sg985
F5e-06
s(lp2617
tp2618
a(S'mejora'
p2619
(dp2620
S'VERB'
p2621
F1.6e-05
sS'NOUN'
p2622
F0.999984
s(lp2623
(g280
I36
tp2624
atp2625
a(S'del'
p2626
(dp2627
S'ADP'
p2628
F1.0
s(lp2629
(g288
I37
tp2630
atp2631
a(S'de'
p2632
(dp2633
g985
F2e-06
sS'CONJ'
p2634
F1e-06
sS'ADP'
p2635
F0.999997
s(lp2636
(g302
I39
tp2637
atp2638
a(S'calificaciones'
p2639
(dp2640
S'NOUN'
p2641
F1.0
s(lp2642
(g309
I41
tp2643
atp2644
a(S'profesionales'
p2645
(dp2646
S'NOUN'
p2647
F0.015504
sS'ADJ'
p2648
F0.984496
s(lp2649
(g317
I40
tp2650
atp2651
a(S'y'
p2652
(dp2653
g985
F0.002753
sS'CONJ'
p2654
F0.997247
s(lp2655
(g324
I42
tp2656
atp2657
a(g190
(dp2658
g194
F1.0
s(lp2659
(g190
I43
tp2660
atp2661
a(S'por'
p2662
(dp2663
S'ADV'
p2664
F1.0
s(lp2665
(g637
I44
tp2666
atp2667
a(S'extensi\xc3\xb3n'
p2668
(dp2669
S'ADV'
p2670
F1.0
s(lp2671
(g338
I45
tp2672
atp2673
a(g190
(dp2674
g194
F1.0
s(lp2675
(g190
I46
tp2676
atp2677
a(S'la'
p2678
(dp2679
S'PRON'
p2680
F3.5e-05
sS'DET'
p2681
F0.999959
sS'NOUN'
p2682
F0.0
sg985
F5e-06
s(lp2683
tp2684
a(S'prevenci\xc3\xb3n'
p2685
(dp2686
S'NOUN'
p2687
F1.0
s(lp2688
(g349
I47
tp2689
atp2690
a(g2652
(dp2691
g985
F0.000395
sS'CONJ'
p2692
F0.999605
s(lp2693
(g356
I48
tp2694
atp2695
a(S'la'
p2696
(dp2697
S'PRON'
p2698
F0.003069
sS'DET'
p2699
F0.99693
sS'NOUN'
p2700
F0.0
sg985
F0.0
s(lp2701
tp2702
a(S'lucha'
p2703
(dp2704
S'VERB'
p2705
F0.002499
sS'NOUN'
p2706
F0.997501
s(lp2707
tp2708
a(S'contra'
p2709
(dp2710
S'ADP'
p2711
F1.0
s(lp2712
(g363
I49
tp2713
atp2714
a(S'el'
p2715
(dp2716
S'PRON'
p2717
F5e-06
sS'DET'
p2718
F0.999995
s(lp2719
tp2720
a(S'desempleo'
p2721
(dp2722
S'NOUN'
p2723
F1.0
s(lp2724
(g376
I50
tp2725
atp2726
a(g194
(dp2727
g194
F1.0
s(lp2728
(g194
I51
tp2729
atp2730
as.