(dp0
S'fr'
p1
(lp2
(S'nous'
p3
(dp4
S'PRON'
p5
F1.0
s(lp6
(S'we'
p7
I0
tp8
atp9
a(S'ne'
p10
(dp11
S'ADV'
p12
F1.0
s(lp13
(S'no'
p14
I2
tp15
atp16
a(S'pouvons'
p17
(dp18
S'VERB'
p19
F1.0
s(lp20
(S'can'
p21
I1
tp22
atp23
a(S'plus'
p24
(dp25
S'ADV'
p26
F0.999573
sS'VERB'
p27
F0.00042699999999999997
s(lp28
(S'longer'
p29
I3
tp30
atp31
a(S'tol\xc3\xa9rer'
p32
(dp33
S'VERB'
p34
F1.0
s(lp35
tp36
a(S'que'
p37
(dp38
S'ADV'
p39
F0.024483
sS'PRON'
p40
F0.026182
sS'CONJ'
p41
F0.949335
s(lp42
(S'allow'
p43
I4
tp44
atp45
a(S'le'
p46
(dp47
S'PRON'
p48
F0.005777
sS'DET'
p49
F0.994223
s(lp50
(S'the'
p51
I5
tp52
atp53
a(S'd\xc3\xa9bat'
p54
(dp55
S'VERB'
p56
F0.005252
sS'NOUN'
p57
F0.994748
s(lp58
(S'passionate'
p59
I6
tp60
atp61
a(S'qui'
p62
(dp63
S'PRON'
p64
F1.0
s(lp65
tp66
a(S'fait'
p67
(dp68
S'ADJ'
p69
F0.002118
sS'VERB'
p70
F0.994419
sS'NOUN'
p71
F0.003463
s(lp72
(S'eliane'
p73
I57
tp74
atp75
a(S'rage'
p76
(dp77
S'VERB'
p78
F0.003961
sS'NOUN'
p79
F0.99604
s(lp80
(S'gluckman'
p81
I58
tp82
atp83
a(S','
p84
(dp85
S'.'
p86
F1.0
s(lp87
(S'-'
p88
I16
tp89
atp90
a(S'la'
p91
(dp92
S'PRON'
p93
F0.000587
sS'DET'
p94
F0.999413
sS'NOUN'
p95
F0.0
s(lp96
tp97
a(S'controverse'
p98
(dp99
S'VERB'
p100
F0.000551
sS'NOUN'
p101
F0.999448
s(lp102
(S'controversy'
p103
I18
tp104
atp105
a(S'qui'
p106
(dp107
S'PRON'
p108
F1.0
s(lp109
(S'surrounding'
p110
I19
tp111
atp112
a(S'existe'
p113
(dp114
S'VERB'
p115
F1.0
s(lp116
(g81
I58
tp117
atp118
a(S'sur'
p119
(dp120
S'ADP'
p121
F1.0
s(lp122
(g81
I58
tp123
atp124
a(S'la'
p125
(dp126
S'PRON'
p127
F1.2e-05
sS'DET'
p128
F0.999988
sS'NOUN'
p129
F0.0
s(lp130
(S'the'
p131
I20
tp132
atp133
a(S'destination'
p134
(dp135
S'NOUN'
p136
F1.0
s(lp137
(g81
I58
tp138
atp139
a(S'et'
p140
(dp141
S'CONJ'
p142
F1.0
s(lp143
(S'and'
p144
I22
tp145
atp146
a(S"l'"
p147
(dp148
S'NOUN'
p149
F0.050387
sS'VERB'
p150
F0.8915730000000001
sS'ADJ'
p151
F0.05804
s(lp152
tp153
a(S'utilisation'
p154
(dp155
S'NOUN'
p156
F1.0
s(lp157
(S'use'
p158
I23
tp159
atp160
a(S'de'
p161
(dp162
S'ADP'
p163
F1.0
s(lp164
(S'of'
p165
I24
tp166
atp167
a(S'ce'
p168
(dp169
S'PRON'
p170
F1.0
s(lp171
(S'this'
p172
I25
tp173
atp174
a(S'sang'
p175
(dp176
S'NOUN'
p177
F1.0
s(lp178
(S'blood'
p179
I26
tp180
atp181
a(g88
(dp182
g86
F1.0
s(lp183
(g88
I27
tp184
atp185
a(S'banques'
p186
(dp187
S'VERB'
p188
F0.035691
sS'NOUN'
p189
F0.964309
s(lp190
tp191
a(S'publiques'
p192
(dp193
S'NOUN'
p194
F0.0047
sS'ADJ'
p195
F0.9953
s(lp196
(S'public'
p197
I33
tp198
atp199
a(S'ou'
p200
(dp201
S'CONJ'
p202
F1.0
s(lp203
(S'or'
p204
I34
tp205
atp206
a(S'banques'
p207
(dp208
S'VERB'
p209
F0.39000900000000005
sS'NOUN'
p210
F0.609991
s(lp211
(S'banks'
p212
I37
tp213
atp214
a(S'priv\xc3\xa9es'
p215
(dp216
S'VERB'
p217
F0.656406
sS'ADJ'
p218
F0.343594
s(lp219
(S'private'
p220
I35
tp221
atp222
a(g88
(dp223
g86
F1.0
s(lp224
(g88
I38
tp225
atp226
a(g84
(dp227
g86
F1.0
s(lp228
tp229
a(S'que'
p230
(dp231
S'ADV'
p232
F0.00645
sS'PRON'
p233
F0.066229
sS'CONJ'
p234
F0.927322
s(lp235
(S'whether'
p236
I28
tp237
atp238
a(S'ce'
p239
(dp240
S'PRON'
p241
F1.0
s(lp242
(S'it'
p243
I29
tp244
atp245
a(S'd\xc3\xa9bat'
p246
(dp247
S'VERB'
p248
F0.135454
sS'NOUN'
p249
F0.864546
s(lp250
(S'debate'
p251
I7
tp252
atp253
a(g84
(dp254
g86
F1.0
s(lp255
(g88
I8
tp256
atp257
a(S"qu'"
p258
(dp259
S'NOUN'
p260
F0.204295
sS'VERB'
p261
F0.394755
sS'ADJ'
p262
F0.400951
s(lp263
(S'which'
p264
I9
tp265
atp266
a(S'il'
p267
(dp268
S'PRON'
p269
F1.0
s(lp270
(S'we'
p271
I10
tp272
atp273
a(S'ne'
p274
(dp275
S'ADV'
p276
F1.0
s(lp277
tp278
a(S"s'"
p279
(dp280
S'NOUN'
p281
F0.037162
sS'VERB'
p282
F0.7565829999999999
sS'ADJ'
p283
F0.206256
s(lp284
(S'stop'
p285
I41
tp286
atp287
a(S'agit'
p288
(dp289
S'VERB'
p290
F1.0
s(lp291
(S'talking'
p292
I44
tp293
atp294
a(S'pas'
p295
(dp296
S'ADV'
p297
F0.999264
sS'NOUN'
p298
F0.000736
s(lp299
(S'not'
p300
I12
tp301
atp302
a(S'ici'
p303
(dp304
S'ADV'
p305
F1.0
s(lp306
(S'here'
p307
I13
tp308
atp309
a(S'de'
p310
(dp311
S'ADP'
p312
F1.0
s(lp313
(S'to'
p314
I14
tp315
atp316
a(S'trancher'
p317
(dp318
S'VERB'
p319
F1.0
s(lp320
(g73
I57
tp321
atp322
a(g84
(dp323
g86
F1.0
s(lp324
(S'actually'
p325
I40
tp326
atp327
a(S'fasse'
p328
(dp329
S'VERB'
p330
F1.0
s(lp331
(g73
I57
tp332
atp333
a(S'peser'
p334
(dp335
S'VERB'
p336
F1.0
s(lp337
tp338
a(S'une'
p339
(dp340
S'NOUN'
p341
F0.00038
sS'NUM'
p342
F0.001409
sS'DET'
p343
F0.998211
s(lp344
(g81
I58
tp345
atp346
a(S'v\xc3\xa9ritable'
p347
(dp348
S'ADJ'
p349
F1.0
s(lp350
(g81
I58
tp351
atp352
a(S'omerta'
p353
(dp354
S'VERB'
p355
F0.972017
sS'NOUN'
p356
F0.027984
s(lp357
tp358
a(S'sur'
p359
(dp360
S'ADP'
p361
F1.0
s(lp362
(S'about'
p363
I45
tp364
atp365
a(S'cette'
p366
(dp367
S'PRON'
p368
F1.0
s(lp369
(S'this'
p370
I46
tp371
atp372
a(S'technique'
p373
(dp374
S'ADJ'
p375
F0.339494
sS'NOUN'
p376
F0.660506
s(lp377
(S'technique'
p378
I47
tp379
atp380
a(g84
(dp381
g86
F1.0
s(lp382
(g84
I48
tp383
atp384
a(S'et'
p385
(dp386
S'CONJ'
p387
F1.0
s(lp388
(S'and'
p389
I49
tp390
atp391
a(S"c'"
p392
(dp393
S'NOUN'
p394
F0.050387
sS'VERB'
p395
F0.8915730000000001
sS'ADJ'
p396
F0.05804
s(lp397
(S'this'
p398
I50
tp399
atp400
a(S'est'
p401
(dp402
S'VERB'
p403
F0.99664
sS'NOUN'
p404
F0.00336
s(lp405
(S'is'
p406
I51
tp407
atp408
a(S'cet'
p409
(dp410
S'PRON'
p411
F1.0
s(lp412
(S'the'
p413
I52
tp414
atp415
a(S'appel'
p416
(dp417
S'NOUN'
p418
F1.0
s(lp419
(S'appeal'
p420
I53
tp421
atp422
a(S'que'
p423
(dp424
S'ADV'
p425
F0.002498
sS'PRON'
p426
F0.7320049999999999
sS'CONJ'
p427
F0.265497
s(lp428
tp429
a(S'lance'
p430
(dp431
S'VERB'
p432
F0.96981
sS'NOUN'
p433
F0.030189
s(lp434
(S'launched'
p435
I54
tp436
atp437
a(S'le'
p438
(dp439
S'PRON'
p440
F0.000141
sS'DET'
p441
F0.999859
s(lp442
tp443
a(S'professeur'
p444
(dp445
S'NOUN'
p446
F1.0
s(lp447
(S'professor'
p448
I56
tp449
atp450
a(S'\xc3\x89liane'
p451
(dp452
S'NOUN'
p453
F1.0
s(lp454
(g73
I57
tp455
atp456
a(S'gluckman'
p457
(dp458
S'ADJ'
p459
F0.24122
sS'NOUN'
p460
F0.75878
s(lp461
(g81
I58
tp462
atp463
a(g84
(dp464
g86
F1.0
s(lp465
(g84
I59
tp466
atp467
a(S'qui'
p468
(dp469
S'PRON'
p470
F1.0
s(lp471
(S'who'
p472
I60
tp473
atp474
a(S'a'
p475
(dp476
S'VERB'
p477
F1.0
s(lp478
(S'has'
p479
I61
tp480
atp481
a(S'd\xc3\xa9di\xc3\xa9'
p482
(dp483
S'VERB'
p484
F1.0
s(lp485
(S'dedicated'
p486
I62
tp487
atp488
a(S'sa'
p489
(dp490
S'PRON'
p491
F1.0
s(lp492
(S'her'
p493
I63
tp494
atp495
a(S'carri\xc3\xa8re'
p496
(dp497
S'NOUN'
p498
F1.0
s(lp499
(S'career'
p500
I65
tp501
atp502
a(S'enti\xc3\xa8re'
p503
(dp504
S'ADJ'
p505
F1.0
s(lp506
(S'entire'
p507
I64
tp508
atp509
a(S'\xc3\xa0'
p510
(dp511
S'ADP'
p512
F1.0
s(lp513
(S'to'
p514
I66
tp515
atp516
a(S'faire'
p517
(dp518
S'VERB'
p519
F1.0
s(lp520
(S'making'
p521
I67
tp522
atp523
a(S'du'
p524
(dp525
S'ADP'
p526
F1.0
s(lp527
(S'the'
p528
I68
tp529
atp530
a(S'don'
p531
(dp532
S'NOUN'
p533
F1.0
s(lp534
(S'donation'
p535
I69
tp536
atp537
a(S'de'
p538
(dp539
S'ADP'
p540
F1.0
s(lp541
tp542
a(S'sang'
p543
(dp544
S'NOUN'
p545
F1.0
s(lp546
(S'blood'
p547
I72
tp548
atp549
a(S'de'
p550
(dp551
S'ADP'
p552
F1.0
s(lp553
(S'of'
p554
I70
tp555
atp556
a(S'cordon'
p557
(dp558
S'NOUN'
p559
F1.0
s(lp560
(S'cord'
p561
I71
tp562
atp563
a(S'un'
p564
(dp565
S'NOUN'
p566
F6.1e-05
sS'NUM'
p567
F0.045956
sS'DET'
p568
F0.953984
s(lp569
(g475
I73
tp570
atp571
a(S'don'
p572
(dp573
S'NOUN'
p574
F1.0
s(lp575
(S'donation'
p576
I74
tp577
atp578
a(S'de'
p579
(dp580
S'ADP'
p581
F1.0
s(lp582
(S'of'
p583
I75
tp584
atp585
a(S'vie'
p586
(dp587
S'NOUN'
p588
F1.0
s(lp589
(S'life'
p590
I76
tp591
atp592
a(g86
(dp593
g86
F1.0
s(lp594
(g86
I77
tp595
atp596
asS'en'
p597
(lp598
(g7
(dp599
S'PRON'
p600
F1.0
s(lp601
(g7
I0
tp602
atp603
a(g21
(dp604
S'VERB'
p605
F1.0
sS'NOUN'
p606
F0.0
s(lp607
(g21
I1
tp608
atp609
a(g14
(dp610
S'ADV'
p611
F0.922118
sS'NOUN'
p612
F1e-06
sS'DET'
p613
F0.077882
sS'X'
p614
F0.0
s(lp615
(g14
I2
tp616
atp617
a(g29
(dp618
S'ADV'
p619
F0.99075
sS'ADJ'
p620
F0.00925
s(lp621
(g29
I3
tp622
atp623
a(g43
(dp624
S'VERB'
p625
F1.0
s(lp626
(g43
I4
tp627
atp628
a(g51
(dp629
S'NOUN'
p630
F0.0
sS'DET'
p631
F1.0
s(lp632
(g51
I5
tp633
atp634
a(g59
(dp635
S'ADJ'
p636
F1.0
s(lp637
(g59
I6
tp638
atp639
a(g251
(dp640
S'VERB'
p641
F1.3e-05
sS'NOUN'
p642
F0.999987
s(lp643
(g251
I7
tp644
atp645
a(g88
(dp646
g86
F1.0
s(lp647
(g88
I8
tp648
atp649
a(g264
(dp650
S'DET'
p651
F1.0
s(lp652
(g264
I9
tp653
atp654
a(g271
(dp655
S'PRON'
p656
F1.0
s(lp657
(g271
I10
tp658
atp659
a(S'are'
p660
(dp661
S'VERB'
p662
F1.0
sS'NOUN'
p663
F0.0
s(lp664
(g660
I11
tp665
atp666
a(g300
(dp667
S'ADV'
p668
F1.0
s(lp669
(g300
I12
tp670
atp671
a(g307
(dp672
S'ADV'
p673
F0.999584
sS'ADP'
p674
F0.000416
s(lp675
(g307
I13
tp676
atp677
a(g314
(dp678
S'ADV'
p679
F0.0
sS'PRT'
p680
F1.0
sS'ADP'
p681
F0.0
s(lp682
(g314
I14
tp683
atp684
a(S'resolve'
p685
(dp686
S'VERB'
p687
F0.991705
sS'NOUN'
p688
F0.008295
s(lp689
(g685
I15
tp690
atp691
a(g88
(dp692
g86
F1.0
s(lp693
(g88
I16
tp694
atp695
a(S'and'
p696
(dp697
S'CONJ'
p698
F0.999987
sS'NOUN'
p699
F1.3e-05
s(lp700
(g696
I17
tp701
atp702
a(g103
(dp703
S'NOUN'
p704
F1.0
s(lp705
(g103
I18
tp706
atp707
a(g110
(dp708
S'VERB'
p709
F0.999709
sS'ADJ'
p710
F0.000291
s(lp711
(g110
I19
tp712
atp713
a(g131
(dp714
S'NOUN'
p715
F1e-06
sS'DET'
p716
F0.999999
s(lp717
(g131
I20
tp718
atp719
a(S'purpose'
p720
(dp721
S'VERB'
p722
F1.2e-05
sS'NOUN'
p723
F0.999988
s(lp724
(g720
I21
tp725
atp726
a(g144
(dp727
S'CONJ'
p728
F0.999999
sS'NOUN'
p729
F1e-06
s(lp730
(g144
I22
tp731
atp732
a(g158
(dp733
S'VERB'
p734
F0.6265239999999999
sS'NOUN'
p735
F0.373475
s(lp736
(g158
I23
tp737
atp738
a(g165
(dp739
S'ADP'
p740
F1.0
s(lp741
(g165
I24
tp742
atp743
a(g172
(dp744
S'ADV'
p745
F3e-06
sS'NOUN'
p746
F1.9e-05
sS'DET'
p747
F0.999978
s(lp748
(g172
I25
tp749
atp750
a(g179
(dp751
S'VERB'
p752
F2.2e-05
sS'NOUN'
p753
F0.999978
s(lp754
(g179
I26
tp755
atp756
a(g88
(dp757
g86
F1.0
s(lp758
(g88
I27
tp759
atp760
a(g236
(dp761
S'CONJ'
p762
F0.015784
sS'ADP'
p763
F0.984216
s(lp764
(g236
I28
tp765
atp766
a(g243
(dp767
S'PRON'
p768
F1.0
s(lp769
(g243
I29
tp770
atp771
a(S'ends'
p772
(dp773
S'VERB'
p774
F0.999908
sS'NOUN'
p775
F9.2e-05
s(lp776
(g772
I30
tp777
atp778
a(S'up'
p779
(dp780
S'ADV'
p781
F0.21059
sS'PRT'
p782
F0.784936
sS'NOUN'
p783
F5e-06
sS'ADP'
p784
F0.00447
s(lp785
(g779
I31
tp786
atp787
a(S'in'
p788
(dp789
S'ADV'
p790
F0.001677
sS'PRT'
p791
F5e-06
sS'ADP'
p792
F0.998318
s(lp793
(g788
I32
tp794
atp795
a(g197
(dp796
S'NOUN'
p797
F0.36176
sS'ADJ'
p798
F0.63824
s(lp799
(g197
I33
tp800
atp801
a(g204
(dp802
S'CONJ'
p803
F0.999984
sS'ADJ'
p804
F1.6e-05
s(lp805
(g204
I34
tp806
atp807
a(g220
(dp808
S'NOUN'
p809
F8.1e-05
sS'ADJ'
p810
F0.999919
s(lp811
(g220
I35
tp812
atp813
a(S'blood'
p814
(dp815
S'VERB'
p816
F1.8e-05
sS'NOUN'
p817
F0.999982
s(lp818
(g814
I36
tp819
atp820
a(g212
(dp821
S'VERB'
p822
F0.000108
sS'NOUN'
p823
F0.999892
s(lp824
(g212
I37
tp825
atp826
a(g88
(dp827
g86
F1.0
s(lp828
(g88
I38
tp829
atp830
a(S'to'
p831
(dp832
S'ADV'
p833
F7.4e-05
sS'PRT'
p834
F0.999918
sS'ADP'
p835
F8e-06
s(lp836
(g831
I39
tp837
atp838
a(g325
(dp839
S'ADV'
p840
F1.0
s(lp841
(g325
I40
tp842
atp843
a(g285
(dp844
S'VERB'
p845
F0.997165
sS'NOUN'
p846
F0.002835
s(lp847
(g285
I41
tp848
atp849
a(S'us'
p850
(dp851
S'PRON'
p852
F1.0
s(lp853
(g850
I42
tp854
atp855
a(S'from'
p856
(dp857
S'ADP'
p858
F1.0
s(lp859
(g856
I43
tp860
atp861
a(g292
(dp862
S'VERB'
p863
F0.984934
sS'NOUN'
p864
F0.015066
s(lp865
(g292
I44
tp866
atp867
a(g363
(dp868
S'ADV'
p869
F0.248365
sS'ADP'
p870
F0.751635
s(lp871
(g363
I45
tp872
atp873
a(g370
(dp874
S'ADV'
p875
F1.3e-05
sS'NOUN'
p876
F1.7e-05
sS'DET'
p877
F0.999971
s(lp878
(g370
I46
tp879
atp880
a(g378
(dp881
S'NOUN'
p882
F1.0
s(lp883
(g378
I47
tp884
atp885
a(g84
(dp886
g86
F1.0
s(lp887
(g84
I48
tp888
atp889
a(g389
(dp890
S'CONJ'
p891
F1.0
sS'NOUN'
p892
F0.0
s(lp893
(g389
I49
tp894
atp895
a(g398
(dp896
S'ADV'
p897
F0.000438
sS'NOUN'
p898
F0.000235
sS'DET'
p899
F0.999328
s(lp900
(g398
I50
tp901
atp902
a(g406
(dp903
S'VERB'
p904
F1.0
s(lp905
(g406
I51
tp906
atp907
a(g413
(dp908
S'NOUN'
p909
F1e-06
sS'DET'
p910
F0.999999
s(lp911
(g413
I52
tp912
atp913
a(g420
(dp914
S'VERB'
p915
F0.001765
sS'NOUN'
p916
F0.998235
s(lp917
(g420
I53
tp918
atp919
a(g435
(dp920
S'VERB'
p921
F1.0
s(lp922
(g435
I54
tp923
atp924
a(S'by'
p925
(dp926
S'ADV'
p927
F0.000159
sS'NOUN'
p928
F1e-06
sS'ADP'
p929
F0.99984
s(lp930
(g925
I55
tp931
atp932
a(g448
(dp933
S'NOUN'
p934
F1.0
s(lp935
(g448
I56
tp936
atp937
a(g73
(dp938
S'ADV'
p939
F0.000602
sS'ADJ'
p940
F0.009523
sS'VERB'
p941
F0.011966999999999998
sS'NOUN'
p942
F0.977907
s(lp943
(g73
I57
tp944
atp945
a(g81
(dp946
S'ADV'
p947
F0.000761
sS'ADJ'
p948
F0.000227
sS'NOUN'
p949
F0.99901
s(lp950
(g81
I58
tp951
atp952
a(g84
(dp953
g86
F1.0
s(lp954
(g84
I59
tp955
atp956
a(g472
(dp957
S'PRON'
p958
F1.0
s(lp959
(g472
I60
tp960
atp961
a(g479
(dp962
S'VERB'
p963
F1.0
s(lp964
(g479
I61
tp965
atp966
a(g486
(dp967
S'VERB'
p968
F0.990151
sS'ADJ'
p969
F0.009848
s(lp970
(g486
I62
tp971
atp972
a(g493
(dp973
S'PRON'
p974
F1.0
s(lp975
(g493
I63
tp976
atp977
a(g507
(dp978
S'NOUN'
p979
F0.01289
sS'ADJ'
p980
F0.98711
s(lp981
(g507
I64
tp982
atp983
a(g500
(dp984
S'VERB'
p985
F8.8e-05
sS'NOUN'
p986
F0.999912
s(lp987
(g500
I65
tp988
atp989
a(g514
(dp990
S'ADV'
p991
F1e-06
sS'PRT'
p992
F0.999987
sS'ADP'
p993
F1.1e-05
s(lp994
(g514
I66
tp995
atp996
a(g521
(dp997
S'VERB'
p998
F0.999108
sS'NOUN'
p999
F0.000892
s(lp1000
(g521
I67
tp1001
atp1002
a(g528
(dp1003
S'NOUN'
p1004
F1e-06
sS'DET'
p1005
F0.999999
s(lp1006
(g528
I68
tp1007
atp1008
a(g535
(dp1009
S'NOUN'
p1010
F1.0
s(lp1011
(g535
I69
tp1012
atp1013
a(g554
(dp1014
S'ADP'
p1015
F1.0
s(lp1016
(g554
I70
tp1017
atp1018
a(g561
(dp1019
S'VERB'
p1020
F0.00038
sS'NOUN'
p1021
F0.99962
s(lp1022
(g561
I71
tp1023
atp1024
a(g547
(dp1025
S'VERB'
p1026
F0.026482
sS'NOUN'
p1027
F0.973518
s(lp1028
(g547
I72
tp1029
atp1030
a(g475
(dp1031
S'NOUN'
p1032
F6e-06
sS'DET'
p1033
F0.999994
s(lp1034
(g475
I73
tp1035
atp1036
a(g576
(dp1037
S'NOUN'
p1038
F1.0
s(lp1039
(g576
I74
tp1040
atp1041
a(g583
(dp1042
S'ADP'
p1043
F1.0
s(lp1044
(g583
I75
tp1045
atp1046
a(g590
(dp1047
S'NOUN'
p1048
F1.0
s(lp1049
(g590
I76
tp1050
atp1051
a(g86
(dp1052
g86
F1.0
s(lp1053
(g86
I77
tp1054
atp1055
asS'nl'
p1056
(lp1057
(S'we'
p1058
(dp1059
S'PRON'
p1060
F1.0
s(lp1061
(g7
I0
tp1062
atp1063
a(S'mogen'
p1064
(dp1065
S'VERB'
p1066
F0.9999739999999999
sS'NOUN'
p1067
F2.6e-05
s(lp1068
(g21
I1
tp1069
atp1070
a(S'niet'
p1071
(dp1072
S'ADV'
p1073
F0.999998
sS'PRON'
p1074
F2e-06
sS'VERB'
p1075
F0.0
sg614
F0.0
s(lp1076
(g14
I2
tp1077
atp1078
a(S'langer'
p1079
(dp1080
S'ADJ'
p1081
F1.0
s(lp1082
(g29
I3
tp1083
atp1084
a(S'toestaan'
p1085
(dp1086
S'VERB'
p1087
F0.9988330000000001
sS'NOUN'
p1088
F0.001167
s(lp1089
tp1090
a(S'dat'
p1091
(dp1092
S'PRON'
p1093
F0.010469
sS'CONJ'
p1094
F0.989532
s(lp1095
(g43
I4
tp1096
atp1097
a(S'de'
p1098
(dp1099
S'DET'
p1100
F1.0
s(lp1101
(g51
I5
tp1102
atp1103
a(S'verhitte'
p1104
(dp1105
S'NOUN'
p1106
F0.002127
sS'VERB'
p1107
F0.008599
sS'ADJ'
p1108
F0.989274
s(lp1109
(g59
I6
tp1110
atp1111
a(S'discussie'
p1112
(dp1113
S'NOUN'
p1114
F1.0
s(lp1115
(g251
I7
tp1116
atp1117
a(g88
(dp1118
g86
F1.0
s(lp1119
(g88
I8
tp1120
atp1121
a(S'die'
p1122
(dp1123
S'PRON'
p1124
F1.0
s(lp1125
(g264
I9
tp1126
atp1127
a(S'we'
p1128
(dp1129
S'PRON'
p1130
F1.0
s(lp1131
(g271
I10
tp1132
atp1133
a(S'hier'
p1134
(dp1135
S'ADV'
p1136
F1.0
s(lp1137
(g307
I13
tp1138
atp1139
a(S'niet'
p1140
(dp1141
S'ADV'
p1142
F0.999985
sS'PRON'
p1143
F9e-06
sS'VERB'
p1144
F6e-06
sg614
F0.0
s(lp1145
(g300
I12
tp1146
atp1147
a(S'gaan'
p1148
(dp1149
S'VERB'
p1150
F0.999868
sS'NOUN'
p1151
F0.000132
s(lp1152
(g73
I57
tp1153
atp1154
a(S'afronden'
p1155
(dp1156
S'VERB'
p1157
F0.998226
sS'NOUN'
p1158
F0.001775
s(lp1159
(g81
I58
tp1160
atp1161
a(g88
(dp1162
g86
F1.0
s(lp1163
(g88
I16
tp1164
atp1165
a(S'en'
p1166
(dp1167
S'CONJ'
p1168
F1.0
s(lp1169
(g696
I17
tp1170
atp1171
a(S'de'
p1172
(dp1173
S'DET'
p1174
F1.0
s(lp1175
tp1176
a(S'controverse'
p1177
(dp1178
S'NOUN'
p1179
F1.0
s(lp1180
(g103
I18
tp1181
atp1182
a(S'die'
p1183
(dp1184
S'PRON'
p1185
F1.0
s(lp1186
(g110
I19
tp1187
atp1188
a(S'bestaat'
p1189
(dp1190
S'VERB'
p1191
F1.0
s(lp1192
(g73
I57
tp1193
atp1194
a(S'ten'
p1195
(dp1196
S'ADP'
p1197
F1.0
s(lp1198
(g73
I57
tp1199
atp1200
a(S'aanzien'
p1201
(dp1202
S'VERB'
p1203
F1.4e-05
sS'NOUN'
p1204
F0.999986
s(lp1205
(g81
I58
tp1206
atp1207
a(S'van'
p1208
(dp1209
S'ADP'
p1210
F1.0
s(lp1211
tp1212
a(S'de'
p1213
(dp1214
S'DET'
p1215
F1.0
s(lp1216
(g131
I20
tp1217
atp1218
a(S'bestemming'
p1219
(dp1220
S'NOUN'
p1221
F1.0
s(lp1222
(g81
I58
tp1223
atp1224
a(S'en'
p1225
(dp1226
S'CONJ'
p1227
F1.0
s(lp1228
(g144
I22
tp1229
atp1230
a(S'het'
p1231
(dp1232
S'PRON'
p1233
F0.006648
sS'DET'
p1234
F0.993352
s(lp1235
(g243
I29
tp1236
atp1237
a(S'gebruik'
p1238
(dp1239
S'VERB'
p1240
F1.1e-05
sS'NOUN'
p1241
F0.999989
s(lp1242
(g158
I23
tp1243
atp1244
a(S'van'
p1245
(dp1246
S'ADP'
p1247
F1.0
s(lp1248
(g165
I24
tp1249
atp1250
a(S'dit'
p1251
(dp1252
S'PRON'
p1253
F1.0
s(lp1254
(g172
I25
tp1255
atp1256
a(S'bloed'
p1257
(dp1258
S'VERB'
p1259
F0.002191
sS'NOUN'
p1260
F0.997809
s(lp1261
(g179
I26
tp1262
atp1263
a(g88
(dp1264
g86
F1.0
s(lp1265
(g88
I27
tp1266
atp1267
a(S'openbare'
p1268
(dp1269
S'NOUN'
p1270
F0.00021
sS'ADJ'
p1271
F0.99979
s(lp1272
(g197
I33
tp1273
atp1274
a(S'of'
p1275
(dp1276
S'CONJ'
p1277
F1.0
s(lp1278
(g204
I34
tp1279
atp1280
a(S'particuliere'
p1281
(dp1282
S'NOUN'
p1283
F6.4e-05
sS'ADJ'
p1284
F0.999936
s(lp1285
(g220
I35
tp1286
atp1287
a(S'bloedbanken'
p1288
(dp1289
S'NOUN'
p1290
F1.0
s(lp1291
(g814
I36
tp1292
atp1293
a(g88
(dp1294
g86
F1.0
s(lp1295
(g88
I38
tp1296
atp1297
a(S'ons'
p1298
(dp1299
S'PRON'
p1300
F0.999401
sS'NOUN'
p1301
F0.000599
s(lp1302
(g850
I42
tp1303
atp1304
a(S'ervan'
p1305
(dp1306
S'ADV'
p1307
F1.0
s(lp1308
(g73
I57
tp1309
atp1310
a(S'weerhouden'
p1311
(dp1312
S'VERB'
p1313
F0.801454
sS'NOUN'
p1314
F0.198545
s(lp1315
(g81
I58
tp1316
atp1317
a(S'om'
p1318
(dp1319
S'ADV'
p1320
F0.000194
sS'CONJ'
p1321
F0.578871
sS'ADP'
p1322
F0.420935
s(lp1323
(g363
I45
tp1324
atp1325
a(S'deze'
p1326
(dp1327
S'PRON'
p1328
F1.0
s(lp1329
(g370
I46
tp1330
atp1331
a(S'techniek'
p1332
(dp1333
S'NOUN'
p1334
F1.0
s(lp1335
(g378
I47
tp1336
atp1337
a(S'te'
p1338
(dp1339
S'PRT'
p1340
F1.0
s(lp1341
(g521
I67
tp1342
atp1343
a(S'bespreken'
p1344
(dp1345
S'VERB'
p1346
F1.0
sS'NOUN'
p1347
F0.0
s(lp1348
(g292
I44
tp1349
atp1350
a(g84
(dp1351
g86
F1.0
s(lp1352
(g84
I48
tp1353
atp1354
a(S'en'
p1355
(dp1356
S'CONJ'
p1357
F1.0
s(lp1358
(g389
I49
tp1359
atp1360
a(S'dit'
p1361
(dp1362
S'PRON'
p1363
F1.0
s(lp1364
(g398
I50
tp1365
atp1366
a(S'is'
p1367
(dp1368
S'VERB'
p1369
F1.0
s(lp1370
(g406
I51
tp1371
atp1372
a(S'het'
p1373
(dp1374
S'PRON'
p1375
F0.056681999999999996
sS'DET'
p1376
F0.943318
s(lp1377
(g413
I52
tp1378
atp1379
a(S'verzoek'
p1380
(dp1381
S'VERB'
p1382
F0.007145
sS'NOUN'
p1383
F0.992855
s(lp1384
(g420
I53
tp1385
atp1386
a(S'van'
p1387
(dp1388
S'ADP'
p1389
F1.0
s(lp1390
(g925
I55
tp1391
atp1392
a(S'professor'
p1393
(dp1394
S'NOUN'
p1395
F1.0
s(lp1396
(g448
I56
tp1397
atp1398
a(S'eliane'
p1399
(dp1400
S'NOUN'
p1401
F0.037758
sS'ADJ'
p1402
F0.962241
s(lp1403
tp1404
a(S'gluckman'
p1405
(dp1406
S'NOUN'
p1407
F1.0
s(lp1408
tp1409
a(g84
(dp1410
g86
F1.0
s(lp1411
(g84
I59
tp1412
atp1413
a(S'die'
p1414
(dp1415
S'PRON'
p1416
F1.0
s(lp1417
(g472
I60
tp1418
atp1419
a(S'haar'
p1420
(dp1421
S'ADV'
p1422
F0.000248
sS'PRON'
p1423
F0.999744
sS'NOUN'
p1424
F8e-06
s(lp1425
(g493
I63
tp1426
atp1427
a(S'hele'
p1428
(dp1429
S'NOUN'
p1430
F9.5e-05
sS'ADJ'
p1431
F0.999905
s(lp1432
(g507
I64
tp1433
atp1434
a(S'carri\xc3\xa8re'
p1435
(dp1436
S'NOUN'
p1437
F1.0
s(lp1438
(g500
I65
tp1439
atp1440
a(S'al'
p1441
(dp1442
S'ADV'
p1443
F0.937385
sS'PRON'
p1444
F0.02836
sS'CONJ'
p1445
F0.034254
s(lp1446
(g73
I57
tp1447
atp1448
a(S'bezig'
p1449
(dp1450
S'VERB'
p1451
F0.000265
sS'ADJ'
p1452
F0.999735
s(lp1453
(g81
I58
tp1454
atp1455
a(S'is'
p1456
(dp1457
S'VERB'
p1458
F1.0
s(lp1459
(g479
I61
tp1460
atp1461
a(S'om'
p1462
(dp1463
S'ADV'
p1464
F0.063196
sS'CONJ'
p1465
F0.917987
sS'ADP'
p1466
F0.018817
s(lp1467
(g514
I66
tp1468
atp1469
a(S'van'
p1470
(dp1471
S'ADP'
p1472
F1.0
s(lp1473
tp1474
a(S'de'
p1475
(dp1476
S'DET'
p1477
F1.0
s(lp1478
(g528
I68
tp1479
atp1480
a(S'donatie'
p1481
(dp1482
S'NOUN'
p1483
F1.0
s(lp1484
(g535
I69
tp1485
atp1486
a(S'van'
p1487
(dp1488
S'ADP'
p1489
F1.0
s(lp1490
(g554
I70
tp1491
atp1492
a(S'navelstrengbloed'
p1493
(dp1494
S'ADJ'
p1495
F0.01376
sS'NOUN'
p1496
F0.98624
s(lp1497
(g561
I71
tp1498
atp1499
a(S'een'
p1500
(dp1501
S'ADJ'
p1502
F1.6e-05
sS'NUM'
p1503
F1.5e-05
sS'DET'
p1504
F0.999967
sS'PRON'
p1505
F2e-06
s(lp1506
(g475
I73
tp1507
atp1508
a(S'gift'
p1509
(dp1510
S'NOUN'
p1511
F1.0
s(lp1512
(g576
I74
tp1513
atp1514
a(S'van'
p1515
(dp1516
S'ADP'
p1517
F1.0
s(lp1518
(g583
I75
tp1519
atp1520
a(S'leven'
p1521
(dp1522
S'VERB'
p1523
F2.1e-05
sS'NOUN'
p1524
F0.999979
s(lp1525
(g590
I76
tp1526
atp1527
a(S'te'
p1528
(dp1529
S'PRT'
p1530
F1.0
s(lp1531
tp1532
a(S'maken'
p1533
(dp1534
S'VERB'
p1535
F1.0
sS'NOUN'
p1536
F0.0
s(lp1537
(g521
I67
tp1538
atp1539
a(g86
(dp1540
g86
F1.0
s(lp1541
(g86
I77
tp1542
atp1543
asS'de'
p1544
(lp1545
(S'wir'
p1546
(dp1547
S'PRON'
p1548
F1.0
s(lp1549
(g7
I0
tp1550
atp1551
a(S'k\xc3\xb6nnen'
p1552
(dp1553
S'VERB'
p1554
F0.9998009999999999
s(lp1555
(g21
I1
tp1556
atp1557
a(S'nicht'
p1558
(dp1559
S'PRT'
p1560
F1.0
s(lp1561
(g14
I2
tp1562
atp1563
a(S'l\xc3\xa4nger'
p1564
(dp1565
S'ADJ'
p1566
F1.0
s(lp1567
(g29
I3
tp1568
atp1569
a(S'zulassen'
p1570
(dp1571
S'VERB'
p1572
F1.0
s(lp1573
tp1574
a(g84
(dp1575
g86
F1.0
s(lp1576
tp1577
a(S'dass'
p1578
(dp1579
S'CONJ'
p1580
F1.0
s(lp1581
(g43
I4
tp1582
atp1583
a(S'die'
p1584
(dp1585
S'PRON'
p1586
F0.003644
sS'DET'
p1587
F0.996227
s(lp1588
(g51
I5
tp1589
atp1590
a(S'leidenschaftliche'
p1591
(dp1592
S'ADJ'
p1593
F1.0
s(lp1594
(g59
I6
tp1595
atp1596
a(S'debatte'
p1597
(dp1598
S'ADJ'
p1599
F0.000318
sS'NOUN'
p1600
F0.999656
s(lp1601
(g251
I7
tp1602
atp1603
a(g88
(dp1604
g86
F1.0
s(lp1605
(g88
I8
tp1606
atp1607
a(S'zu'
p1608
(dp1609
S'ADV'
p1610
F0.000606
sS'ADP'
p1611
F0.999083
s(lp1612
(g314
I14
tp1613
atp1614
a(S'deren'
p1615
(dp1616
S'PRON'
p1617
F0.998538
s(lp1618
(g264
I9
tp1619
atp1620
a(S'l\xc3\xb6sung'
p1621
(dp1622
S'ADJ'
p1623
F0.039455
sS'NOUN'
p1624
F0.92575
s(lp1625
(g685
I15
tp1626
atp1627
a(S'wir'
p1628
(dp1629
S'PRON'
p1630
F1.0
s(lp1631
(g271
I10
tp1632
atp1633
a(S'nicht'
p1634
(dp1635
S'PRT'
p1636
F1.0
s(lp1637
(g300
I12
tp1638
atp1639
a(S'hier'
p1640
(dp1641
S'ADV'
p1642
F0.998746
sS'PRT'
p1643
F0.001254
s(lp1644
(g307
I13
tp1645
atp1646
a(S'sind'
p1647
(dp1648
S'VERB'
p1649
F1.0
s(lp1650
(g660
I11
tp1651
atp1652
a(g88
(dp1653
g86
F1.0
s(lp1654
(g88
I16
tp1655
atp1656
a(S'und'
p1657
(dp1658
S'CONJ'
p1659
F1.0
s(lp1660
(g696
I17
tp1661
atp1662
a(S'kontroverse'
p1663
(dp1664
S'ADJ'
p1665
F1.0
s(lp1666
(g103
I18
tp1667
atp1668
a(S'um'
p1669
(dp1670
S'CONJ'
p1671
F0.006961
sS'ADP'
p1672
F0.992885
s(lp1673
(g110
I19
tp1674
atp1675
a(S'den'
p1676
(dp1677
S'PRON'
p1678
F2.8e-05
sS'DET'
p1679
F0.999971
s(lp1680
(g131
I20
tp1681
atp1682
a(S'zweck'
p1683
(dp1684
S'ADJ'
p1685
F0.002341
sS'NOUN'
p1686
F0.997529
s(lp1687
(g720
I21
tp1688
atp1689
a(S'und'
p1690
(dp1691
S'CONJ'
p1692
F1.0
s(lp1693
(g144
I22
tp1694
atp1695
a(S'die'
p1696
(dp1697
S'PRON'
p1698
F0.003033
sS'DET'
p1699
F0.994004
s(lp1700
tp1701
a(S'verwendung'
p1702
(dp1703
S'ADJ'
p1704
F0.000245
sS'NOUN'
p1705
F0.999588
s(lp1706
(g158
I23
tp1707
atp1708
a(S'dieses'
p1709
(dp1710
S'PRON'
p1711
F1.0
s(lp1712
(g172
I25
tp1713
atp1714
a(S'blutes'
p1715
(dp1716
S'NOUN'
p1717
F0.014316
sS'ADJ'
p1718
F0.985163
s(lp1719
(g179
I26
tp1720
atp1721
a(g88
(dp1722
g86
F1.0
s(lp1723
(g88
I27
tp1724
atp1725
a(S'ob'
p1726
(dp1727
S'CONJ'
p1728
F0.981515
sS'ADP'
p1729
F0.012803
s(lp1730
(g236
I28
tp1731
atp1732
a(S'dieses'
p1733
(dp1734
S'PRON'
p1735
F1.0
s(lp1736
(g243
I29
tp1737
atp1738
a(S'nun'
p1739
(dp1740
S'ADV'
p1741
F0.999822
sS'CONJ'
p1742
F0.000178
s(lp1743
(g779
I31
tp1744
atp1745
a(S'in'
p1746
(dp1747
S'ADP'
p1748
F1.0
s(lp1749
(g788
I32
tp1750
atp1751
a(S'\xc3\xb6ffentlichen'
p1752
(dp1753
S'ADJ'
p1754
F1.0
s(lp1755
(g197
I33
tp1756
atp1757
a(S'oder'
p1758
(dp1759
S'CONJ'
p1760
F1.0
s(lp1761
(g204
I34
tp1762
atp1763
a(S'privaten'
p1764
(dp1765
S'ADJ'
p1766
F1.0
s(lp1767
(g220
I35
tp1768
atp1769
a(S'blutbanken'
p1770
(dp1771
S'ADJ'
p1772
F0.354561
sS'NOUN'
p1773
F0.643072
s(lp1774
(g73
I57
tp1775
atp1776
a(S'gelagert'
p1777
(dp1778
S'VERB'
p1779
F0.976503
sS'ADJ'
p1780
F0.023497
s(lp1781
(g81
I58
tp1782
atp1783
a(S'wird'
p1784
(dp1785
S'VERB'
p1786
F1.0
s(lp1787
(g81
I58
tp1788
atp1789
a(g88
(dp1790
g86
F1.0
s(lp1791
(g88
I38
tp1792
atp1793
a(S'uns'
p1794
(dp1795
S'PRON'
p1796
F1.0
s(lp1797
(g850
I42
tp1798
atp1799
a(S'tats\xc3\xa4chlich'
p1800
(dp1801
S'ADV'
p1802
F0.074165
sS'ADJ'
p1803
F0.925835
s(lp1804
(g325
I40
tp1805
atp1806
a(S'davon'
p1807
(dp1808
S'ADV'
p1809
F0.998307
sS'PRT'
p1810
F0.001693
s(lp1811
(g73
I57
tp1812
atp1813
a(S'abh\xc3\xa4lt'
p1814
(dp1815
S'VERB'
p1816
F1.0
s(lp1817
(g81
I58
tp1818
atp1819
a(g84
(dp1820
g86
F1.0
s(lp1821
(g831
I39
tp1822
atp1823
a(S'\xc3\xbcber'
p1824
(dp1825
S'PRT'
p1826
F3e-06
sS'ADP'
p1827
F0.999997
s(lp1828
(g363
I45
tp1829
atp1830
a(S'diese'
p1831
(dp1832
S'PRON'
p1833
F1.0
s(lp1834
(g370
I46
tp1835
atp1836
a(S'technik'
p1837
(dp1838
S'ADJ'
p1839
F0.017124
sS'NOUN'
p1840
F0.974937
s(lp1841
(g378
I47
tp1842
atp1843
a(S'zusprechen'
p1844
(dp1845
S'VERB'
p1846
F1.0
s(lp1847
(g73
I57
tp1848
atp1849
a(g84
(dp1850
g86
F1.0
s(lp1851
(g84
I48
tp1852
atp1853
a(S'und'
p1854
(dp1855
S'CONJ'
p1856
F1.0
s(lp1857
(g389
I49
tp1858
atp1859
a(S'das'
p1860
(dp1861
S'PRON'
p1862
F0.999042
sS'DET'
p1863
F0.000535
s(lp1864
(g398
I50
tp1865
atp1866
a(S'ist'
p1867
(dp1868
S'VERB'
p1869
F1.0
s(lp1870
(g406
I51
tp1871
atp1872
a(S'der'
p1873
(dp1874
S'PRON'
p1875
F0.000203
sS'DET'
p1876
F0.999796
s(lp1877
(g413
I52
tp1878
atp1879
a(S'aufruf'
p1880
(dp1881
S'ADJ'
p1882
F0.000136
sS'NOUN'
p1883
F0.999747
s(lp1884
(g420
I53
tp1885
atp1886
a(S'von'
p1887
(dp1888
S'NOUN'
p1889
F0.000701
sS'ADP'
p1890
F0.999299
s(lp1891
(g448
I56
tp1892
atp1893
a(S'frau'
p1894
(dp1895
S'NOUN'
p1896
F0.057761
sS'ADJ'
p1897
F0.939325
s(lp1898
(g73
I57
tp1899
atp1900
a(S'professorin'
p1901
(dp1902
S'NOUN'
p1903
F0.997913
s(lp1904
(g73
I57
tp1905
atp1906
a(S'eliane'
p1907
(dp1908
S'VERB'
p1909
F0.002159
sS'NOUN'
p1910
F0.996098
s(lp1911
(g73
I57
tp1912
atp1913
a(S'gluckman'
p1914
(dp1915
S'ADJ'
p1916
F0.050286
sS'NOUN'
p1917
F0.929167
s(lp1918
(g81
I58
tp1919
atp1920
a(g84
(dp1921
g86
F1.0
s(lp1922
(g84
I59
tp1923
atp1924
a(S'die'
p1925
(dp1926
S'PRON'
p1927
F0.988474
sS'DET'
p1928
F0.007342
s(lp1929
(g472
I60
tp1930
atp1931
a(S'ihr'
p1932
(dp1933
S'PRON'
p1934
F1.0
s(lp1935
tp1936
a(S'gesamtes'
p1937
(dp1938
S'ADJ'
p1939
F1.0
s(lp1940
(g73
I57
tp1941
atp1942
a(S'arbeitsleben'
p1943
(dp1944
S'VERB'
p1945
F0.03576
sS'NOUN'
p1946
F0.957208
s(lp1947
(g81
I58
tp1948
atp1949
a(S'dem'
p1950
(dp1951
S'PRON'
p1952
F0.040752
sS'DET'
p1953
F0.953749
s(lp1954
(g486
I62
tp1955
atp1956
a(S'ziel'
p1957
(dp1958
S'VERB'
p1959
F1.0
s(lp1960
(g81
I58
tp1961
atp1962
a(S'gewidmet'
p1963
(dp1964
S'VERB'
p1965
F1.0
s(lp1966
tp1967
a(S'hat'
p1968
(dp1969
S'VERB'
p1970
F1.0
s(lp1971
(g479
I61
tp1972
atp1973
a(g84
(dp1974
g86
F1.0
s(lp1975
(g514
I66
tp1976
atp1977
a(S'dass'
p1978
(dp1979
S'CONJ'
p1980
F1.0
s(lp1981
tp1982
a(S'die'
p1983
(dp1984
S'PRON'
p1985
F0.940187
sS'DET'
p1986
F0.054351
s(lp1987
(g528
I68
tp1988
atp1989
a(S'spende'
p1990
(dp1991
S'VERB'
p1992
F1.0
s(lp1993
(g535
I69
tp1994
atp1995
a(S'von'
p1996
(dp1997
S'NOUN'
p1998
F0.002613
sS'ADP'
p1999
F0.997387
s(lp2000
(g554
I70
tp2001
atp2002
a(S'nabelschnurblut'
p2003
(dp2004
S'ADJ'
p2005
F0.011714
sS'NOUN'
p2006
F0.986569
s(lp2007
(g561
I71
tp2008
atp2009
a(S'zu'
p2010
(dp2011
S'PRT'
p2012
F0.002367
sS'ADP'
p2013
F0.995516
s(lp2014
(g521
I67
tp2015
atp2016
a(S'einer'
p2017
(dp2018
S'PRON'
p2019
F0.974649
sS'DET'
p2020
F0.024195
s(lp2021
(g475
I73
tp2022
atp2023
a(S'spende'
p2024
(dp2025
S'VERB'
p2026
F1.0
s(lp2027
(g576
I74
tp2028
atp2029
a(S'von'
p2030
(dp2031
S'NOUN'
p2032
F0.995386
sS'ADP'
p2033
F0.004614
s(lp2034
(g583
I75
tp2035
atp2036
a(S'leben'
p2037
(dp2038
S'VERB'
p2039
F1.0
s(lp2040
(g590
I76
tp2041
atp2042
a(S'wird'
p2043
(dp2044
S'VERB'
p2045
F1.0
s(lp2046
(g81
I58
tp2047
atp2048
a(g86
(dp2049
g86
F1.0
s(lp2050
(g86
I77
tp2051
atp2052
asS'it'
p2053
(lp2054
(S'non'
p2055
(dp2056
S'ADV'
p2057
F1.0
s(lp2058
(g14
I2
tp2059
atp2060
a(S'possiamo'
p2061
(dp2062
S'VERB'
p2063
F1.0
s(lp2064
(g21
I1
tp2065
atp2066
a(S'pi\xc3\xb9'
p2067
(dp2068
S'ADV'
p2069
F0.99936
sS'NOUN'
p2070
F1e-06
sS'ADJ'
p2071
F3.7e-05
sS'ADP'
p2072
F0.000603
s(lp2073
(g29
I3
tp2074
atp2075
a(S'permettere'
p2076
(dp2077
S'VERB'
p2078
F1.0
s(lp2079
(g43
I4
tp2080
atp2081
a(S'che'
p2082
(dp2083
S'PRON'
p2084
F0.939703
sS'CONJ'
p2085
F0.060156
sS'ADJ'
p2086
F0.000141
s(lp2087
tp2088
a(S"l'"
p2089
(dp2090
S'NOUN'
p2091
F0.00222
sS'VERB'
p2092
F0.988697
sS'ADJ'
p2093
F0.009083
s(lp2094
(g51
I5
tp2095
atp2096
a(S'animato'
p2097
(dp2098
S'VERB'
p2099
F0.764063
sS'ADJ'
p2100
F0.235937
s(lp2101
(g59
I6
tp2102
atp2103
a(S'dibattito'
p2104
(dp2105
S'NOUN'
p2106
F1.0
s(lp2107
(g251
I7
tp2108
atp2109
a(g84
(dp2110
g86
F1.0
s(lp2111
(g88
I8
tp2112
atp2113
a(S'che'
p2114
(dp2115
S'PRON'
p2116
F0.814011
sS'CONJ'
p2117
F0.185764
sS'ADJ'
p2118
F0.000226
s(lp2119
(g264
I9
tp2120
atp2121
a(S'non'
p2122
(dp2123
S'ADV'
p2124
F1.0
s(lp2125
(g300
I12
tp2126
atp2127
a(S'siamo'
p2128
(dp2129
S'VERB'
p2130
F1.0
s(lp2131
(g271
I10
tp2132
atp2133
a(S'qui'
p2134
(dp2135
S'ADV'
p2136
F1.0
s(lp2137
(g307
I13
tp2138
atp2139
a(g475
(dp2140
S'CONJ'
p2141
F0.000251
sS'ADP'
p2142
F0.999749
s(lp2143
(g314
I14
tp2144
atp2145
a(S'risolvere'
p2146
(dp2147
S'VERB'
p2148
F1.0
s(lp2149
(g685
I15
tp2150
atp2151
a(g84
(dp2152
g86
F1.0
s(lp2153
(g88
I16
tp2154
atp2155
a(S'e'
p2156
(dp2157
S'CONJ'
p2158
F1.0
s(lp2159
(g696
I17
tp2160
atp2161
a(S'la'
p2162
(dp2163
S'PRON'
p2164
F0.000411
sS'DET'
p2165
F0.999589
s(lp2166
tp2167
a(S'controversia'
p2168
(dp2169
S'NOUN'
p2170
F1.0
s(lp2171
(g103
I18
tp2172
atp2173
a(S'che'
p2174
(dp2175
S'PRON'
p2176
F0.94757
sS'CONJ'
p2177
F0.051595
sS'ADJ'
p2178
F0.000835
s(lp2179
tp2180
a(S'circonda'
p2181
(dp2182
S'VERB'
p2183
F1.0
s(lp2184
(g110
I19
tp2185
atp2186
a(S'lo'
p2187
(dp2188
S'PRON'
p2189
F2.7e-05
sS'DET'
p2190
F0.999973
s(lp2191
tp2192
a(S'scopo'
p2193
(dp2194
S'VERB'
p2195
F8.6e-05
sS'NOUN'
p2196
F0.999914
s(lp2197
(g720
I21
tp2198
atp2199
a(g2156
(dp2200
S'CONJ'
p2201
F1.0
s(lp2202
(g144
I22
tp2203
atp2204
a(S"l'"
p2205
(dp2206
S'NOUN'
p2207
F0.000589
sS'VERB'
p2208
F0.9933339999999999
sS'ADJ'
p2209
F0.006076
s(lp2210
(g131
I20
tp2211
atp2212
a(S'uso'
p2213
(dp2214
S'ADJ'
p2215
F0.062146
sS'VERB'
p2216
F0.002221
sS'NOUN'
p2217
F0.935633
s(lp2218
(g158
I23
tp2219
atp2220
a(S'di'
p2221
(dp2222
S'CONJ'
p2223
F2.3e-05
sS'ADP'
p2224
F0.999977
s(lp2225
(g165
I24
tp2226
atp2227
a(S'tale'
p2228
(dp2229
S'PRON'
p2230
F0.997986
sS'CONJ'
p2231
F0.000133
sS'NOUN'
p2232
F0.001881
s(lp2233
(g172
I25
tp2234
atp2235
a(S'sangue'
p2236
(dp2237
S'NOUN'
p2238
F0.374428
sS'ADJ'
p2239
F0.625572
s(lp2240
(g179
I26
tp2241
atp2242
a(g84
(dp2243
g86
F1.0
s(lp2244
(g88
I27
tp2245
atp2246
a(S'finisca'
p2247
(dp2248
S'VERB'
p2249
F1.0
s(lp2250
(g772
I30
tp2251
atp2252
a(S'esso'
p2253
(dp2254
S'PRON'
p2255
F1.0
s(lp2256
(g243
I29
tp2257
atp2258
a(S'in'
p2259
(dp2260
S'ADP'
p2261
F1.0
s(lp2262
(g788
I32
tp2263
atp2264
a(S'banche'
p2265
(dp2266
S'NOUN'
p2267
F1.0
s(lp2268
(g212
I37
tp2269
atp2270
a(S'del'
p2271
(dp2272
S'DEF'
p2273
F0.001415
sS'ADP'
p2274
F0.998585
s(lp2275
tp2276
a(S'sangue'
p2277
(dp2278
S'ADJ'
p2279
F0.111793
sS'NOUN'
p2280
F0.888207
s(lp2281
(g814
I36
tp2282
atp2283
a(S'pubbliche'
p2284
(dp2285
S'ADJ'
p2286
F1.0
s(lp2287
(g197
I33
tp2288
atp2289
a(S'o'
p2290
(dp2291
g614
F1.1e-05
sS'CONJ'
p2292
F0.999989
s(lp2293
(g204
I34
tp2294
atp2295
a(S'private'
p2296
(dp2297
S'NOUN'
p2298
F0.018676
sS'VERB'
p2299
F0.11313499999999999
sS'ADJ'
p2300
F0.868189
s(lp2301
(g220
I35
tp2302
atp2303
a(g84
(dp2304
g86
F1.0
s(lp2305
(g88
I38
tp2306
atp2307
a(S'ci'
p2308
(dp2309
S'ADV'
p2310
F0.000139
sS'PRON'
p2311
F0.999819
sS'NOUN'
p2312
F4.1e-05
s(lp2313
(g850
I42
tp2314
atp2315
a(S'impedisca'
p2316
(dp2317
S'VERB'
p2318
F1.0
s(lp2319
(g285
I41
tp2320
atp2321
a(S'di'
p2322
(dp2323
S'CONJ'
p2324
F3e-06
sS'ADP'
p2325
F0.999997
s(lp2326
(g831
I39
tp2327
atp2328
a(S'fatto'
p2329
(dp2330
S'VERB'
p2331
F0.049553
sS'NOUN'
p2332
F0.950447
s(lp2333
(g325
I40
tp2334
atp2335
a(S'di'
p2336
(dp2337
S'CONJ'
p2338
F5e-06
sS'ADP'
p2339
F0.999995
s(lp2340
(g856
I43
tp2341
atp2342
a(S'parlare'
p2343
(dp2344
S'VERB'
p2345
F1.0
s(lp2346
(g292
I44
tp2347
atp2348
a(S'di'
p2349
(dp2350
S'CONJ'
p2351
F6e-06
sS'ADP'
p2352
F0.999994
s(lp2353
(g363
I45
tp2354
atp2355
a(S'questa'
p2356
(dp2357
S'PRON'
p2358
F1.0
s(lp2359
(g370
I46
tp2360
atp2361
a(S'tecnica'
p2362
(dp2363
S'ADJ'
p2364
F0.295759
sS'NOUN'
p2365
F0.704241
s(lp2366
(g378
I47
tp2367
atp2368
a(g84
(dp2369
g86
F1.0
s(lp2370
(g84
I48
tp2371
atp2372
a(g2156
(dp2373
S'CONJ'
p2374
F1.0
s(lp2375
(g389
I49
tp2376
atp2377
a(S'tale'
p2378
(dp2379
S'PRON'
p2380
F0.99561
sS'CONJ'
p2381
F0.004348
sS'NOUN'
p2382
F4.2e-05
s(lp2383
(g398
I50
tp2384
atp2385
a(S'\xc3\xa8'
p2386
(dp2387
S'VERB'
p2388
F1.0
s(lp2389
(g406
I51
tp2390
atp2391
a(S"l'"
p2392
(dp2393
S'NOUN'
p2394
F0.000971
sS'VERB'
p2395
F0.9832770000000001
sS'ADJ'
p2396
F0.015752
s(lp2397
(g413
I52
tp2398
atp2399
a(S'appello'
p2400
(dp2401
S'VERB'
p2402
F0.683106
sS'NOUN'
p2403
F0.316894
s(lp2404
(g420
I53
tp2405
atp2406
a(S'lanciato'
p2407
(dp2408
S'VERB'
p2409
F0.986483
sS'ADJ'
p2410
F0.013517
s(lp2411
(g435
I54
tp2412
atp2413
a(S'dal'
p2414
(dp2415
S'ADP'
p2416
F1.0
s(lp2417
(g925
I55
tp2418
atp2419
a(S'professor'
p2420
(dp2421
S'NOUN'
p2422
F1.0
s(lp2423
(g448
I56
tp2424
atp2425
a(S'eliane'
p2426
(dp2427
S'NOUN'
p2428
F0.005958
sS'VERB'
p2429
F0.000788
sS'ADJ'
p2430
F0.993254
s(lp2431
(g73
I57
tp2432
atp2433
a(S'gluckman'
p2434
(dp2435
S'ADJ'
p2436
F0.186815
sS'NOUN'
p2437
F0.813185
s(lp2438
(g81
I58
tp2439
atp2440
a(g84
(dp2441
g86
F1.0
s(lp2442
(g84
I59
tp2443
atp2444
a(S'che'
p2445
(dp2446
S'PRON'
p2447
F0.972388
sS'CONJ'
p2448
F0.027515
sS'ADJ'
p2449
F9.7e-05
s(lp2450
(g472
I60
tp2451
atp2452
a(S'ha'
p2453
(dp2454
S'VERB'
p2455
F1.0
s(lp2456
(g479
I61
tp2457
atp2458
a(S'dedicato'
p2459
(dp2460
S'VERB'
p2461
F1.0
s(lp2462
(g486
I62
tp2463
atp2464
a(S"l'"
p2465
(dp2466
S'NOUN'
p2467
F0.016123
sS'VERB'
p2468
F0.936126
sS'ADJ'
p2469
F0.04775
s(lp2470
(g493
I63
tp2471
atp2472
a(S'intera'
p2473
(dp2474
S'ADJ'
p2475
F1.0
s(lp2476
(g507
I64
tp2477
atp2478
a(S'carriera'
p2479
(dp2480
S'NOUN'
p2481
F1.0
s(lp2482
(g500
I65
tp2483
atp2484
a(g475
(dp2485
S'CONJ'
p2486
F0.000335
sS'ADP'
p2487
F0.999665
s(lp2488
(g514
I66
tp2489
atp2490
a(S'trasformare'
p2491
(dp2492
S'VERB'
p2493
F1.0
s(lp2494
(g521
I67
tp2495
atp2496
a(S'la'
p2497
(dp2498
S'PRON'
p2499
F0.0
sS'DET'
p2500
F1.0
s(lp2501
(g528
I68
tp2502
atp2503
a(S'donazione'
p2504
(dp2505
S'NOUN'
p2506
F1.0
s(lp2507
(g535
I69
tp2508
atp2509
a(S'di'
p2510
(dp2511
S'CONJ'
p2512
F9e-06
sS'ADP'
p2513
F0.999991
s(lp2514
(g554
I70
tp2515
atp2516
a(S'sangue'
p2517
(dp2518
S'ADJ'
p2519
F0.48701
sS'NOUN'
p2520
F0.51299
s(lp2521
(g547
I72
tp2522
atp2523
a(S'del'
p2524
(dp2525
S'DEF'
p2526
F0.001682
sS'ADP'
p2527
F0.998318
s(lp2528
(g561
I71
tp2529
atp2530
a(S'cordone'
p2531
(dp2532
S'NOUN'
p2533
F1.0
s(lp2534
tp2535
a(S'ombelicale'
p2536
(dp2537
S'ADJ'
p2538
F1.0
s(lp2539
(g561
I71
tp2540
atp2541
a(S'in'
p2542
(dp2543
S'ADP'
p2544
F1.0
s(lp2545
tp2546
a(S'una'
p2547
(dp2548
S'PRON'
p2549
F0.000159
sS'DEF'
p2550
F0.999841
s(lp2551
(g475
I73
tp2552
atp2553
a(S'donazione'
p2554
(dp2555
S'NOUN'
p2556
F1.0
s(lp2557
(g576
I74
tp2558
atp2559
a(S'di'
p2560
(dp2561
S'CONJ'
p2562
F4e-06
sS'ADP'
p2563
F0.999996
s(lp2564
(g583
I75
tp2565
atp2566
a(S'vita'
p2567
(dp2568
S'NOUN'
p2569
F1.0
s(lp2570
(g590
I76
tp2571
atp2572
a(g86
(dp2573
g86
F1.0
s(lp2574
(g86
I77
tp2575
atp2576
asS'sk'
p2577
(lp2578
(S'nemali'
p2579
(dp2580
S'VERB'
p2581
F1.0
s(lp2582
(g14
I2
tp2583
atp2584
a(S'by'
p2585
(dp2586
S'PRT'
p2587
F0.999999
sg614
F1e-06
s(lp2588
(g21
I1
tp2589
atp2590
a(S'sme'
p2591
(dp2592
g614
F2.6e-05
sS'VERB'
p2593
F0.999974
s(lp2594
(g7
I0
tp2595
atp2596
a(S'u\xc5\xbe'
p2597
(dp2598
S'ADV'
p2599
F0.242484
sg614
F0.75737
sS'CONJ'
p2600
F0.000146
s(lp2601
tp2602
a(S'\xc4\x8falej'
p2603
(dp2604
S'ADV'
p2605
F0.967624
sg614
F0.032376
s(lp2606
(g29
I3
tp2607
atp2608
a(S'tolerova\xc5\xa5'
p2609
(dp2610
S'VERB'
p2611
F1.0
s(lp2612
(g43
I4
tp2613
atp2614
a(S'v\xc3\xa1\xc5\xa1niv\xc3\xba'
p2615
(dp2616
S'ADJ'
p2617
F1.0
s(lp2618
(g59
I6
tp2619
atp2620
a(S'diskusiu'
p2621
(dp2622
S'NOUN'
p2623
F1.0
s(lp2624
(g251
I7
tp2625
atp2626
a(g88
(dp2627
g86
F1.0
s(lp2628
(g88
I8
tp2629
atp2630
a(S'ktor\xc3\xba'
p2631
(dp2632
S'PRON'
p2633
F1.0
s(lp2634
(g264
I9
tp2635
atp2636
a(S'tu'
p2637
(dp2638
S'PRON'
p2639
F0.990847
sg614
F0.009152
s(lp2640
(g307
I13
tp2641
atp2642
a(S'nevyrie\xc5\xa1ime'
p2643
(dp2644
S'VERB'
p2645
F1.0
s(lp2646
(g685
I15
tp2647
atp2648
a(g88
(dp2649
g86
F1.0
s(lp2650
(g88
I16
tp2651
atp2652
a(g475
(dp2653
g614
F0.002368
sS'CONJ'
p2654
F0.997303
sS'NOUN'
p2655
F9.099999999999999e-05
sS'ADP'
p2656
F0.000231
sS'PRT'
p2657
F9e-06
s(lp2658
(g696
I17
tp2659
atp2660
a(S'kontroverzn\xc3\xa9'
p2661
(dp2662
S'ADJ'
p2663
F1.0
s(lp2664
(g103
I18
tp2665
atp2666
a(S'pozadie'
p2667
(dp2668
S'NOUN'
p2669
F1.0
s(lp2670
(g73
I57
tp2671
atp2672
a(g2290
(dp2673
g614
F0.0009609999999999999
sS'CONJ'
p2674
F4.8e-05
sS'NOUN'
p2675
F1.7e-05
sS'ADP'
p2676
F0.998974
s(lp2677
(g110
I19
tp2678
atp2679
a(S'\xc3\xba\xc4\x8dele'
p2680
(dp2681
S'NOUN'
p2682
F1.0
s(lp2683
(g720
I21
tp2684
atp2685
a(g475
(dp2686
g614
F0.0025220000000000004
sS'CONJ'
p2687
F0.996501
sS'NOUN'
p2688
F0.00018800000000000002
sS'ADP'
p2689
F0.000762
sS'PRT'
p2690
F2.9e-05
s(lp2691
(g144
I22
tp2692
atp2693
a(S'pou\xc5\xbeit\xc3\xad'
p2694
(dp2695
S'VERB'
p2696
F0.004889
sS'NOUN'
p2697
F0.995111
s(lp2698
(g158
I23
tp2699
atp2700
a(S'tejto'
p2701
(dp2702
S'PRON'
p2703
F1.0
s(lp2704
(g172
I25
tp2705
atp2706
a(S'krvi'
p2707
(dp2708
S'NOUN'
p2709
F1.0
s(lp2710
(g179
I26
tp2711
atp2712
a(g84
(dp2713
g86
F1.0
s(lp2714
(g88
I27
tp2715
atp2716
a(g2290
(dp2717
g614
F0.00023899999999999998
sS'CONJ'
p2718
F0.002
sS'NOUN'
p2719
F8.000000000000001e-06
sS'ADP'
p2720
F0.997753
s(lp2721
(g925
I55
tp2722
atp2723
a(S'tom'
p2724
(dp2725
S'PRON'
p2726
F0.999876
sg614
F0.000124
s(lp2727
tp2728
a(g84
(dp2729
g86
F1.0
s(lp2730
tp2731
a(S'\xc4\x8di'
p2732
(dp2733
g614
F0.0027510000000000004
sS'CONJ'
p2734
F0.997249
s(lp2735
(g236
I28
tp2736
atp2737
a(S'skon\xc4\x8d\xc3\xad'
p2738
(dp2739
S'VERB'
p2740
F1.0
s(lp2741
(g772
I30
tp2742
atp2743
a(S'vo'
p2744
(dp2745
S'ADP'
p2746
F1.0
s(lp2747
(g788
I32
tp2748
atp2749
a(S'verejn\xc3\xbdch'
p2750
(dp2751
S'ADJ'
p2752
F1.0
s(lp2753
(g197
I33
tp2754
atp2755
a(S'alebo'
p2756
(dp2757
g614
F1.5e-05
sS'CONJ'
p2758
F0.999985
s(lp2759
(g204
I34
tp2760
atp2761
a(S's\xc3\xbakromn\xc3\xbdch'
p2762
(dp2763
S'ADJ'
p2764
F1.0
s(lp2765
(g220
I35
tp2766
atp2767
a(S'krvn\xc3\xbdch'
p2768
(dp2769
S'ADJ'
p2770
F1.0
s(lp2771
(g814
I36
tp2772
atp2773
a(S'bank\xc3\xa1ch'
p2774
(dp2775
S'NOUN'
p2776
F1.0
s(lp2777
(g212
I37
tp2778
atp2779
a(g84
(dp2780
g86
F1.0
s(lp2781
(g88
I38
tp2782
atp2783
a(S'aby'
p2784
(dp2785
g614
F6.699999999999999e-05
sS'CONJ'
p2786
F0.999934
s(lp2787
(g831
I39
tp2788
atp2789
a(S'sme'
p2790
(dp2791
g614
F0.0
sS'VERB'
p2792
F1.0
s(lp2793
(g850
I42
tp2794
atp2795
a(S'naozaj'
p2796
(dp2797
g614
F1.0
s(lp2798
(g325
I40
tp2799
atp2800
a(S'prestali'
p2801
(dp2802
S'VERB'
p2803
F1.0
s(lp2804
(g285
I41
tp2805
atp2806
a(S'hovori\xc5\xa5'
p2807
(dp2808
S'VERB'
p2809
F1.0
s(lp2810
(g292
I44
tp2811
atp2812
a(g2290
(dp2813
g614
F5.8e-05
sS'CONJ'
p2814
F4.4e-05
sS'NOUN'
p2815
F4e-06
sS'ADP'
p2816
F0.999893
s(lp2817
(g363
I45
tp2818
atp2819
a(S'tejto'
p2820
(dp2821
S'PRON'
p2822
F1.0
s(lp2823
(g370
I46
tp2824
atp2825
a(S'met\xc3\xb3de'
p2826
(dp2827
S'NOUN'
p2828
F1.0
s(lp2829
(g378
I47
tp2830
atp2831
a(g86
(dp2832
g86
F1.0
s(lp2833
(g389
I49
tp2834
atp2835
a(S'to'
p2836
(dp2837
S'PRON'
p2838
F0.96658
sS'CONJ'
p2839
F0.007316
sg614
F0.026105
s(lp2840
(g398
I50
tp2841
atp2842
a(S'je'
p2843
(dp2844
S'PRON'
p2845
F6e-05
sS'VERB'
p2846
F0.999873
sg614
F6.7e-05
s(lp2847
(g406
I51
tp2848
atp2849
a(S'v\xc3\xbdzva'
p2850
(dp2851
S'NOUN'
p2852
F1.0
s(lp2853
(g420
I53
tp2854
atp2855
a(g84
(dp2856
g86
F1.0
s(lp2857
tp2858
a(S's'
p2859
(dp2860
g614
F0.000741
sS'CONJ'
p2861
F0.002658
sS'NOUN'
p2862
F7e-06
sS'ADP'
p2863
F0.996429
sS'PRT'
p2864
F0.000164
s(lp2865
(g435
I54
tp2866
atp2867
a(S'ktorou'
p2868
(dp2869
S'PRON'
p2870
F1.0
s(lp2871
(g73
I57
tp2872
atp2873
a(S'pri\xc5\xa1la'
p2874
(dp2875
S'VERB'
p2876
F1.0
s(lp2877
(g73
I57
tp2878
atp2879
a(S'profesorka'
p2880
(dp2881
S'NOUN'
p2882
F1.0
s(lp2883
(g73
I57
tp2884
atp2885
a(S'eliane'
p2886
(dp2887
S'ADJ'
p2888
F0.004256
sS'NOUN'
p2889
F0.995744
s(lp2890
tp2891
a(S'gluckmanov\xc3\xa1'
p2892
(dp2893
S'NOUN'
p2894
F0.474478
sS'ADJ'
p2895
F0.525522
s(lp2896
(g81
I58
tp2897
atp2898
a(g84
(dp2899
g86
F1.0
s(lp2900
(g84
I59
tp2901
atp2902
a(S'ktor\xc3\xa1'
p2903
(dp2904
S'PRON'
p2905
F1.0
s(lp2906
(g472
I60
tp2907
atp2908
a(S'cel\xc3\xba'
p2909
(dp2910
S'NOUN'
p2911
F0.016837
sS'ADJ'
p2912
F0.983163
s(lp2913
(g507
I64
tp2914
atp2915
a(S'svoju'
p2916
(dp2917
S'PRON'
p2918
F1.0
s(lp2919
tp2920
a(S'kari\xc3\xa9ru'
p2921
(dp2922
S'NOUN'
p2923
F1.0
s(lp2924
(g500
I65
tp2925
atp2926
a(S'venovala'
p2927
(dp2928
S'VERB'
p2929
F1.0
s(lp2930
tp2931
a(S'tomu'
p2932
(dp2933
S'PRON'
p2934
F0.999202
sg614
F0.000798
s(lp2935
tp2936
a(g84
(dp2937
g86
F1.0
s(lp2938
tp2939
a(S'aby'
p2940
(dp2941
g614
F0.00025
sS'CONJ'
p2942
F0.99975
s(lp2943
(g521
I67
tp2944
atp2945
a(S'darovanie'
p2946
(dp2947
S'NOUN'
p2948
F1.0
s(lp2949
(g535
I69
tp2950
atp2951
a(S'pupo\xc4\x8dn\xc3\xadkovej'
p2952
(dp2953
S'NOUN'
p2954
F0.001853
sS'ADJ'
p2955
F0.998147
s(lp2956
(g561
I71
tp2957
atp2958
a(S'krvi'
p2959
(dp2960
S'NOUN'
p2961
F1.0
s(lp2962
(g547
I72
tp2963
atp2964
a(S'znamenalo'
p2965
(dp2966
S'VERB'
p2967
F0.9999990000000001
s(lp2968
(g73
I57
tp2969
atp2970
a(S'darovanie'
p2971
(dp2972
S'NOUN'
p2973
F1.0
s(lp2974
(g576
I74
tp2975
atp2976
a(S'\xc5\xbeivota'
p2977
(dp2978
g614
F0.001499
sS'NOUN'
p2979
F0.998501
s(lp2980
(g590
I76
tp2981
atp2982
a(g86
(dp2983
g86
F1.0
s(lp2984
(g86
I77
tp2985
atp2986
asS'pl'
p2987
(lp2988
(S'nie'
p2989
(dp2990
S'ADV'
p2991
F3.3e-05
sS'PRT'
p2992
F0.992645
sS'CONJ'
p2993
F0.007309
sS'NOUN'
p2994
F1.3e-05
sS'PRON'
p2995
F0.0
s(lp2996
(g14
I2
tp2997
atp2998
a(S'mo\xc5\xbcemy'
p2999
(dp3000
S'VERB'
p3001
F1.0
s(lp3002
(g21
I1
tp3003
atp3004
a(S'ju\xc5\xbc'
p3005
(dp3006
S'PRT'
p3007
F1.0
s(lp3008
tp3009
a(S'd\xc5\x82u\xc5\xbcej'
p3010
(dp3011
S'ADV'
p3012
F1.0
s(lp3013
(g29
I3
tp3014
atp3015
a(S'pozwala\xc4\x87'
p3016
(dp3017
S'VERB'
p3018
F1.0
s(lp3019
tp3020
a(S'na'
p3021
(dp3022
S'PRT'
p3023
F2.9e-05
sS'VERB'
p3024
F1.3000000000000001e-05
sS'NOUN'
p3025
F6e-06
sS'ADP'
p3026
F0.999937
sg614
F1.5e-05
s(lp3027
(g413
I52
tp3028
atp3029
a(S'to'
p3030
(dp3031
S'NOUN'
p3032
F0.969493
sS'ADP'
p3033
F0.0
sS'PRT'
p3034
F0.000911
sg614
F1.5e-05
sS'CONJ'
p3035
F8.3e-05
sS'ADJ'
p3036
F0.029497
s(lp3037
(g398
I50
tp3038
atp3039
a(g84
(dp3040
g614
F0.0
sg86
F1.0
s(lp3041
tp3042
a(S'aby'
p3043
(dp3044
S'PRT'
p3045
F0.000797
sS'CONJ'
p3046
F0.999203
s(lp3047
(g43
I4
tp3048
atp3049
a(S'pasjonuj\xc4\x85ca'
p3050
(dp3051
S'ADJ'
p3052
F1.0
s(lp3053
(g59
I6
tp3054
atp3055
a(S'debata'
p3056
(dp3057
S'NOUN'
p3058
F1.0
s(lp3059
(g251
I7
tp3060
atp3061
a(g88
(dp3062
g614
F0.000191
sS'NUM'
p3063
F3e-06
sS'NOUN'
p3064
F0.00015000000000000001
sg86
F0.999655
s(lp3065
(g88
I8
tp3066
atp3067
a(S'kt\xc3\xb3rej'
p3068
(dp3069
S'ADJ'
p3070
F1.0000010000000001
s(lp3071
(g264
I9
tp3072
atp3073
a(S'dzi\xc5\x9b'
p3074
(dp3075
S'ADV'
p3076
F0.948179
sS'NOUN'
p3077
F0.051821
s(lp3078
(g307
I13
tp3079
atp3080
a(S'nie'
p3081
(dp3082
S'ADV'
p3083
F1.3e-05
sS'PRT'
p3084
F0.996492
sS'CONJ'
p3085
F0.003434
sS'NOUN'
p3086
F5e-05
sS'PRON'
p3087
F9.999999999999999e-06
s(lp3088
(g300
I12
tp3089
atp3090
a(S'zako\xc5\x84czymy'
p3091
(dp3092
S'VERB'
p3093
F1.0
s(lp3094
(g81
I58
tp3095
atp3096
a(g88
(dp3097
g614
F0.000211
sS'NUM'
p3098
F2e-06
sS'NOUN'
p3099
F1.4999999999999999e-05
sg86
F0.999771
s(lp3100
(g88
I16
tp3101
atp3102
a(S'oraz'
p3103
(dp3104
S'CONJ'
p3105
F1.0
s(lp3106
(g696
I17
tp3107
atp3108
a(S'kontrowersje'
p3109
(dp3110
S'NOUN'
p3111
F1.0
s(lp3112
(g103
I18
tp3113
atp3114
a(S'towarzysz\xc4\x85ce'
p3115
(dp3116
S'VERB'
p3117
F1.0
s(lp3118
(g110
I19
tp3119
atp3120
a(S'celowi'
p3121
(dp3122
S'NOUN'
p3123
F1.0
s(lp3124
(g720
I21
tp3125
atp3126
a(S'i'
p3127
(dp3128
S'PRT'
p3129
F0.002484
sS'CONJ'
p3130
F0.997409
sS'NOUN'
p3131
F6.9e-05
sg614
F8e-06
sS'PRON'
p3132
F2.9e-05
s(lp3133
(g144
I22
tp3134
atp3135
a(S'wykorzystywaniu'
p3136
(dp3137
S'ADV'
p3138
F0.004374
sS'ADJ'
p3139
F0.016227000000000002
sS'VERB'
p3140
F0.41875300000000004
sS'NOUN'
p3141
F0.5606450000000001
s(lp3142
(g158
I23
tp3143
atp3144
a(S'tej'
p3145
(dp3146
S'PRON'
p3147
F0.000293
sS'ADJ'
p3148
F0.999702
sg614
F5e-06
s(lp3149
(g172
I25
tp3150
atp3151
a(S'krwi'
p3152
(dp3153
S'NOUN'
p3154
F1.0
s(lp3155
(g179
I26
tp3156
atp3157
a(g88
(dp3158
g614
F2.6e-05
sS'NUM'
p3159
F0.0
sS'NOUN'
p3160
F5.2000000000000004e-05
sg86
F0.999921
s(lp3161
(g88
I27
tp3162
atp3163
a(S'czy'
p3164
(dp3165
S'PRT'
p3166
F0.27041
sS'CONJ'
p3167
F0.729492
sS'NUM'
p3168
F9.2e-05
sS'NOUN'
p3169
F6e-06
s(lp3170
(g236
I28
tp3171
atp3172
a(S'to'
p3173
(dp3174
S'NOUN'
p3175
F0.49810699999999997
sS'ADP'
p3176
F1e-06
sS'PRT'
p3177
F0.168362
sg614
F2e-06
sS'CONJ'
p3178
F0.123529
sS'ADJ'
p3179
F0.20999900000000002
s(lp3180
(g243
I29
tp3181
atp3182
a(S'z'
p3183
(dp3184
S'PRT'
p3185
F0.0019
sS'VERB'
p3186
F0.000208
sS'NOUN'
p3187
F4e-06
sS'ADP'
p3188
F0.997885
sg614
F4e-06
s(lp3189
(g779
I31
tp3190
atp3191
a(S'prywatnych'
p3192
(dp3193
S'ADJ'
p3194
F0.9999990000000001
s(lp3195
(g220
I35
tp3196
atp3197
a(g84
(dp3198
g614
F0.0
sg86
F1.0
s(lp3199
tp3200
a(S'czy'
p3201
(dp3202
S'PRT'
p3203
F0.053112
sS'CONJ'
p3204
F0.946813
sS'NUM'
p3205
F7.1e-05
sS'NOUN'
p3206
F4e-06
s(lp3207
(g204
I34
tp3208
atp3209
a(S'publicznych'
p3210
(dp3211
S'ADJ'
p3212
F0.9999989999999999
s(lp3213
(g197
I33
tp3214
atp3215
a(S'bank\xc3\xb3w'
p3216
(dp3217
S'NOUN'
p3218
F1.0
s(lp3219
(g212
I37
tp3220
atp3221
a(S'krwi'
p3222
(dp3223
S'NOUN'
p3224
F1.0
s(lp3225
(g814
I36
tp3226
atp3227
a(g88
(dp3228
g614
F2.1e-05
sS'NUM'
p3229
F0.0
sS'NOUN'
p3230
F4e-05
sg86
F0.999939
s(lp3231
(g88
I38
tp3232
atp3233
a(S'faktycznie'
p3234
(dp3235
S'ADV'
p3236
F1.0
s(lp3237
(g325
I40
tp3238
atp3239
a(S'powstrzyma\xc5\x82y'
p3240
(dp3241
S'ADV'
p3242
F0.008618
sS'NOUN'
p3243
F0.009926000000000004
sS'VERB'
p3244
F0.965175
sS'ADJ'
p3245
F0.016281999999999998
s(lp3246
(g73
I57
tp3247
atp3248
a(S'nas'
p3249
(dp3250
S'PRON'
p3251
F1.0
s(lp3252
(g850
I42
tp3253
atp3254
a(S'przed'
p3255
(dp3256
S'ADP'
p3257
F1.000001
s(lp3258
(g856
I43
tp3259
atp3260
a(S'dyskutowaniem'
p3261
(dp3262
S'ADV'
p3263
F2e-05
sS'ADJ'
p3264
F7e-06
sS'VERB'
p3265
F0.017737000000000003
sS'NOUN'
p3266
F0.9822339999999999
s(lp3267
(g73
I57
tp3268
atp3269
a(g2290
(dp3270
g614
F0.000111
sS'VERB'
p3271
F3e-06
sS'NOUN'
p3272
F0.0
sS'ADP'
p3273
F0.9998859999999999
sS'PRT'
p3274
F0.0
s(lp3275
(g363
I45
tp3276
atp3277
a(S'tej'
p3278
(dp3279
S'PRON'
p3280
F3e-06
sS'ADJ'
p3281
F0.999997
sg614
F0.0
s(lp3282
(g370
I46
tp3283
atp3284
a(S'technice'
p3285
(dp3286
S'NOUN'
p3287
F1.0
s(lp3288
(g73
I57
tp3289
atp3290
a(g84
(dp3291
g614
F0.0
sg86
F1.0
s(lp3292
(g84
I48
tp3293
atp3294
a(S'tak'
p3295
(dp3296
S'ADV'
p3297
F0.692522
sS'NOUN'
p3298
F7.9e-05
sS'PRT'
p3299
F0.299192
sg614
F0.000139
sS'CONJ'
p3300
F0.008022
sS'ADJ'
p3301
F4.5e-05
s(lp3302
(g73
I57
tp3303
atp3304
a(S'te\xc5\xbc'
p3305
(dp3306
S'PRT'
p3307
F0.996315
sS'CONJ'
p3308
F0.003685
s(lp3309
(g73
I57
tp3310
atp3311
a(S'brzmi'
p3312
(dp3313
S'VERB'
p3314
F1.0
s(lp3315
(g81
I58
tp3316
atp3317
a(S'apel'
p3318
(dp3319
S'NOUN'
p3320
F1.0
s(lp3321
(g420
I53
tp3322
atp3323
a(S'wystosowany'
p3324
(dp3325
S'VERB'
p3326
F1.0
s(lp3327
(g81
I58
tp3328
atp3329
a(S'przez'
p3330
(dp3331
S'ADP'
p3332
F1.0
s(lp3333
(g925
I55
tp3334
atp3335
a(S'profesor'
p3336
(dp3337
S'NOUN'
p3338
F1.0
s(lp3339
(g448
I56
tp3340
atp3341
a(S'eliane'
p3342
(dp3343
S'ADV'
p3344
F0.000298
sS'ADJ'
p3345
F0.0005090000000000001
sS'VERB'
p3346
F0.001392
sS'NOUN'
p3347
F0.9978040000000001
sg614
F0.0
s(lp3348
(g73
I57
tp3349
atp3350
a(S'gluckman'
p3351
(dp3352
S'ADJ'
p3353
F9.4e-05
sS'NOUN'
p3354
F0.999906
s(lp3355
(g73
I57
tp3356
atp3357
a(g84
(dp3358
g614
F0.0
sg86
F1.0
s(lp3359
(g84
I59
tp3360
atp3361
a(S'kt\xc3\xb3ra'
p3362
(dp3363
S'ADJ'
p3364
F1.0
s(lp3365
tp3366
a(S'ca\xc5\x82\xc4\x85'
p3367
(dp3368
S'ADJ'
p3369
F1.0
s(lp3370
(g507
I64
tp3371
atp3372
a(S'swoj\xc4\x85'
p3373
(dp3374
S'ADJ'
p3375
F1.0
s(lp3376
(g81
I58
tp3377
atp3378
a(S'karier\xc4\x99'
p3379
(dp3380
S'NOUN'
p3381
F1.0
s(lp3382
(g500
I65
tp3383
atp3384
a(S'zawodow\xc4\x85'
p3385
(dp3386
S'ADJ'
p3387
F1.0
s(lp3388
(g81
I58
tp3389
atp3390
a(S'po\xc5\x9bwi\xc4\x99ci\xc5\x82a'
p3391
(dp3392
S'VERB'
p3393
F1.0
s(lp3394
(g81
I58
tp3395
atp3396
a(S'temu'
p3397
(dp3398
S'ADJ'
p3399
F0.128514
sS'NOUN'
p3400
F0.789413
sS'ADP'
p3401
F0.082074
s(lp3402
tp3403
a(g84
(dp3404
g614
F0.0
sg86
F1.0
s(lp3405
tp3406
a(S'by'
p3407
(dp3408
S'NOUN'
p3409
F2.1e-05
sS'ADP'
p3410
F0.001019
sS'PRT'
p3411
F0.086067
sS'VERB'
p3412
F3e-06
sg614
F7e-06
sS'CONJ'
p3413
F0.912883
s(lp3414
(g514
I66
tp3415
atp3416
a(S'oddawanie'
p3417
(dp3418
S'VERB'
p3419
F1.0
s(lp3420
(g535
I69
tp3421
atp3422
a(S'krwi'
p3423
(dp3424
S'NOUN'
p3425
F1.0
s(lp3426
(g547
I72
tp3427
atp3428
a(S'p\xc4\x99powinowej'
p3429
(dp3430
S'ADJ'
p3431
F1.0
s(lp3432
(g561
I71
tp3433
atp3434
a(S'by\xc5\x82o'
p3435
(dp3436
g614
F3e-06
sS'VERB'
p3437
F0.999997
s(lp3438
(g73
I57
tp3439
atp3440
a(S'darem'
p3441
(dp3442
S'NOUN'
p3443
F1.0
s(lp3444
(g81
I58
tp3445
atp3446
a(S'\xc5\xbcycia'
p3447
(dp3448
S'VERB'
p3449
F0.010885
sS'NOUN'
p3450
F0.989116
s(lp3451
(g590
I76
tp3452
atp3453
a(g86
(dp3454
g86
F1.0
s(lp3455
(g86
I77
tp3456
atp3457
asS'sl'
p3458
(lp3459
(S'ne'
p3460
(dp3461
S'PRT'
p3462
F0.997452
sS'CONJ'
p3463
F0.002535
sg614
F1.3000000000000001e-05
s(lp3464
(g14
I2
tp3465
atp3466
a(S'smemo'
p3467
(dp3468
S'VERB'
p3469
F1.0
s(lp3470
tp3471
a(S've\xc4\x8d'
p3472
(dp3473
S'ADV'
p3474
F0.834123
sS'PRT'
p3475
F0.165877
s(lp3476
(g29
I3
tp3477
atp3478
a(S'dopu\xc5\xa1\xc4\x8dati'
p3479
(dp3480
S'ADV'
p3481
F0.000654
sS'ADJ'
p3482
F0.005586000000000001
sS'VERB'
p3483
F0.9703949999999999
sS'NOUN'
p3484
F0.02336499999999999
s(lp3485
(g43
I4
tp3486
atp3487
a(g84
(dp3488
g86
F1.0
s(lp3489
tp3490
a(S'da'
p3491
(dp3492
S'PRT'
p3493
F0.000137
sS'CONJ'
p3494
F0.999855
sS'VERB'
p3495
F8e-06
sg614
F0.0
s(lp3496
(g831
I39
tp3497
atp3498
a(S'bi'
p3499
(dp3500
g614
F3e-06
sS'VERB'
p3501
F0.999997
s(lp3502
(g285
I41
tp3503
atp3504
a(S'nam'
p3505
(dp3506
S'PRON'
p3507
F0.999777
sg614
F0.000223
s(lp3508
(g850
I42
tp3509
atp3510
a(S'strastna'
p3511
(dp3512
S'NOUN'
p3513
F6.4e-05
sS'ADJ'
p3514
F0.9999370000000001
s(lp3515
(g59
I6
tp3516
atp3517
a(S'razprava'
p3518
(dp3519
S'NOUN'
p3520
F1.0
s(lp3521
(g251
I7
tp3522
atp3523
a(g88
(dp3524
g86
F1.0
s(lp3525
(g88
I8
tp3526
atp3527
a(S'tu'
p3528
(dp3529
S'ADV'
p3530
F1.0
s(lp3531
(g307
I13
tp3532
atp3533
a(S'nismo'
p3534
(dp3535
S'VERB'
p3536
F1.0
s(lp3537
(g300
I12
tp3538
atp3539
a(S'zaradi'
p3540
(dp3541
S'ADP'
p3542
F1.0
s(lp3543
(g856
I43
tp3544
atp3545
a(S'tega'
p3546
(dp3547
S'PRON'
p3548
F1.0
s(lp3549
(g398
I50
tp3550
atp3551
a(g84
(dp3552
g86
F1.0
s(lp3553
tp3554
a(S'da'
p3555
(dp3556
S'PRT'
p3557
F0.000137
sS'CONJ'
p3558
F0.999855
sS'VERB'
p3559
F8e-06
sg614
F0.0
s(lp3560
tp3561
a(S'bi'
p3562
(dp3563
g614
F1e-06
sS'VERB'
p3564
F0.999999
s(lp3565
(g314
I14
tp3566
atp3567
a(S'jo'
p3568
(dp3569
S'PRON'
p3570
F0.99999
sg614
F1e-05
s(lp3571
(g406
I51
tp3572
atp3573
a(S'razre\xc5\xa1ili'
p3574
(dp3575
S'VERB'
p3576
F1.0
s(lp3577
(g685
I15
tp3578
atp3579
a(g88
(dp3580
g86
F1.0
s(lp3581
(g88
I16
tp3582
atp3583
a(S'in'
p3584
(dp3585
S'ADV'
p3586
F0.000755
sg614
F0.000354
sS'CONJ'
p3587
F0.998592
sS'NOUN'
p3588
F0.000299
s(lp3589
(g696
I17
tp3590
atp3591
a(S'spori'
p3592
(dp3593
S'ADV'
p3594
F0.010564
sS'ADJ'
p3595
F0.016173
sS'VERB'
p3596
F0.35118199999999994
sS'NOUN'
p3597
F0.6191599999999998
sS'PRON'
p3598
F0.002924
s(lp3599
(g103
I18
tp3600
atp3601
a(S'glede'
p3602
(dp3603
S'ADV'
p3604
F0.040756
sS'ADP'
p3605
F0.959244
s(lp3606
(g110
I19
tp3607
atp3608
a(S'namena'
p3609
(dp3610
S'NOUN'
p3611
F1.0
s(lp3612
(g720
I21
tp3613
atp3614
a(S'in'
p3615
(dp3616
S'ADV'
p3617
F7.6e-05
sg614
F1.7e-05
sS'CONJ'
p3618
F0.999763
sS'NOUN'
p3619
F0.000144
s(lp3620
(g144
I22
tp3621
atp3622
a(S'uporabe'
p3623
(dp3624
S'NOUN'
p3625
F1.0
s(lp3626
(g158
I23
tp3627
atp3628
a(S'te'
p3629
(dp3630
S'PRON'
p3631
F1.000001
s(lp3632
(g172
I25
tp3633
atp3634
a(S'krvi'
p3635
(dp3636
S'NOUN'
p3637
F1.0
s(lp3638
(g179
I26
tp3639
atp3640
a(g88
(dp3641
g86
F1.0
s(lp3642
(g88
I27
tp3643
atp3644
a(S'ne'
p3645
(dp3646
S'PRT'
p3647
F0.988796
sS'CONJ'
p3648
F0.010299
sg614
F0.0009040000000000001
s(lp3649
(g236
I28
tp3650
atp3651
a(S'glede'
p3652
(dp3653
S'ADV'
p3654
F0.988399
sS'ADP'
p3655
F0.011601
s(lp3656
tp3657
a(S'na'
p3658
(dp3659
S'ADP'
p3660
F1.0
s(lp3661
(g413
I52
tp3662
atp3663
a(S'to'
p3664
(dp3665
S'PRON'
p3666
F0.999946
sg614
F5.4e-05
s(lp3667
(g243
I29
tp3668
atp3669
a(g84
(dp3670
g86
F1.0
s(lp3671
tp3672
a(S'ali'
p3673
(dp3674
S'ADV'
p3675
F0.318383
sS'CONJ'
p3676
F0.681617
s(lp3677
(g236
I28
tp3678
atp3679
a(S'kon\xc4\x8da'
p3680
(dp3681
S'VERB'
p3682
F1.0
s(lp3683
(g772
I30
tp3684
atp3685
a(S'v'
p3686
(dp3687
S'ADP'
p3688
F1.0
s(lp3689
(g788
I32
tp3690
atp3691
a(S'javnih'
p3692
(dp3693
S'ADJ'
p3694
F1.0
s(lp3695
(g197
I33
tp3696
atp3697
a(S'ali'
p3698
(dp3699
S'ADV'
p3700
F0.000515
sS'CONJ'
p3701
F0.999485
s(lp3702
(g204
I34
tp3703
atp3704
a(S'zasebnih'
p3705
(dp3706
S'ADJ'
p3707
F0.999999
s(lp3708
(g220
I35
tp3709
atp3710
a(S'bankah'
p3711
(dp3712
S'NOUN'
p3713
F1.0
s(lp3714
(g212
I37
tp3715
atp3716
a(S'krvi'
p3717
(dp3718
S'NOUN'
p3719
F1.0
s(lp3720
(g814
I36
tp3721
atp3722
a(g88
(dp3723
g86
F1.0
s(lp3724
(g88
I38
tp3725
atp3726
a(S'onemogo\xc4\x8dala'
p3727
(dp3728
S'VERB'
p3729
F1.0
s(lp3730
(g73
I57
tp3731
atp3732
a(S'razpravo'
p3733
(dp3734
S'NOUN'
p3735
F1.0
s(lp3736
(g81
I58
tp3737
atp3738
a(g2290
(dp3739
S'NOUN'
p3740
F4.1e-05
sS'ADP'
p3741
F0.999959
s(lp3742
(g363
I45
tp3743
atp3744
a(S'tej'
p3745
(dp3746
S'PRON'
p3747
F1.0
s(lp3748
(g370
I46
tp3749
atp3750
a(S'tehniki'
p3751
(dp3752
S'NOUN'
p3753
F1.0
s(lp3754
(g378
I47
tp3755
atp3756
a(g84
(dp3757
g86
F1.0
s(lp3758
(g84
I48
tp3759
atp3760
a(S'in'
p3761
(dp3762
S'ADV'
p3763
F0.000324
sg614
F7e-06
sS'CONJ'
p3764
F0.99962
sS'NOUN'
p3765
F4.9e-05
s(lp3766
(g389
I49
tp3767
atp3768
a(S'k'
p3769
(dp3770
S'NOUN'
p3771
F2e-06
sS'ADP'
p3772
F0.999998
s(lp3773
(g420
I53
tp3774
atp3775
a(S'temu'
p3776
(dp3777
S'PRON'
p3778
F1.0
s(lp3779
(g73
I57
tp3780
atp3781
a(S'poziva'
p3782
(dp3783
S'VERB'
p3784
F1.0
s(lp3785
(g81
I58
tp3786
atp3787
a(S'profesorica'
p3788
(dp3789
S'NOUN'
p3790
F1.0
s(lp3791
(g448
I56
tp3792
atp3793
a(S'eliane'
p3794
(dp3795
S'ADV'
p3796
F0.000297
sS'ADJ'
p3797
F0.25076400000000004
sS'VERB'
p3798
F0.019526
sS'NOUN'
p3799
F0.7294120000000002
s(lp3800
tp3801
a(S'gluckman'
p3802
(dp3803
S'ADJ'
p3804
F0.001834
sg614
F0.009792
sS'VERB'
p3805
F0.001704
sS'NOUN'
p3806
F0.986668
s(lp3807
(g81
I58
tp3808
atp3809
a(g84
(dp3810
g86
F1.0
s(lp3811
(g84
I59
tp3812
atp3813
a(S'ki'
p3814
(dp3815
S'CONJ'
p3816
F1.0
s(lp3817
(g472
I60
tp3818
atp3819
a(S'je'
p3820
(dp3821
S'PRON'
p3822
F0.025831
sS'VERB'
p3823
F0.9741679999999999
sg614
F0.0
s(lp3824
(g479
I61
tp3825
atp3826
a(S'celo'
p3827
(dp3828
S'PRT'
p3829
F0.998646
sS'ADJ'
p3830
F0.001354
s(lp3831
(g73
I57
tp3832
atp3833
a(S'svojo'
p3834
(dp3835
S'PRON'
p3836
F1.0
s(lp3837
(g81
I58
tp3838
atp3839
a(S'kariero'
p3840
(dp3841
S'NOUN'
p3842
F1.0
s(lp3843
(g81
I58
tp3844
atp3845
a(S'namenila'
p3846
(dp3847
S'VERB'
p3848
F1.0
s(lp3849
tp3850
a(S'prizadevanjem'
p3851
(dp3852
S'NOUN'
p3853
F1.0
s(lp3854
(g81
I58
tp3855
atp3856
a(g84
(dp3857
g86
F1.0
s(lp3858
tp3859
a(S'da'
p3860
(dp3861
S'PRT'
p3862
F0.000137
sS'CONJ'
p3863
F0.999855
sS'VERB'
p3864
F8e-06
sg614
F0.0
s(lp3865
(g514
I66
tp3866
atp3867
a(S'bi'
p3868
(dp3869
g614
F3.1e-05
sS'VERB'
p3870
F0.999969
s(lp3871
(g521
I67
tp3872
atp3873
a(S'darovanje'
p3874
(dp3875
S'ADV'
p3876
F0.00792
sS'ADJ'
p3877
F0.10278999999999999
sS'VERB'
p3878
F0.002968
sS'NOUN'
p3879
F0.8863230000000001
s(lp3880
(g535
I69
tp3881
atp3882
a(S'krvi'
p3883
(dp3884
S'NOUN'
p3885
F1.0
s(lp3886
(g547
I72
tp3887
atp3888
a(S'popkovine'
p3889
(dp3890
S'ADV'
p3891
F0.014863
sS'ADJ'
p3892
F0.051898999999999994
sS'VERB'
p3893
F0.023499000000000003
sS'NOUN'
p3894
F0.9097379999999999
s(lp3895
(g561
I71
tp3896
atp3897
a(S'postalo'
p3898
(dp3899
S'VERB'
p3900
F1.0
s(lp3901
(g475
I73
tp3902
atp3903
a(S'darovanje'
p3904
(dp3905
S'ADV'
p3906
F0.002353
sS'ADJ'
p3907
F0.0021050000000000005
sS'VERB'
p3908
F0.00047000000000000004
sS'NOUN'
p3909
F0.9950720000000002
s(lp3910
(g576
I74
tp3911
atp3912
a(S'za'
p3913
(dp3914
S'ADV'
p3915
F0.000941
sg614
F3.4e-05
sS'ADP'
p3916
F0.999025
s(lp3917
(g583
I75
tp3918
atp3919
a(S'\xc5\xbeivljenja'
p3920
(dp3921
S'NOUN'
p3922
F1.0
s(lp3923
(g590
I76
tp3924
atp3925
a(g86
(dp3926
g86
F1.0
s(lp3927
(g86
I77
tp3928
atp3929
asS'es'
p3930
(lp3931
(S'no'
p3932
(dp3933
S'ADV'
p3934
F0.999243
sg614
F0.000757
s(lp3935
(g14
I2
tp3936
atp3937
a(S'podemos'
p3938
(dp3939
S'VERB'
p3940
F1.0
s(lp3941
(g21
I1
tp3942
atp3943
a(S'permitir'
p3944
(dp3945
S'VERB'
p3946
F1.0
s(lp3947
(g43
I4
tp3948
atp3949
a(S'por'
p3950
(dp3951
S'ADP'
p3952
F1.0
s(lp3953
(g925
I55
tp3954
atp3955
a(S'm\xc3\xa1s'
p3956
(dp3957
S'ADV'
p3958
F1.0
sS'CONJ'
p3959
F0.0
s(lp3960
tp3961
a(S'tiempo'
p3962
(dp3963
S'NOUN'
p3964
F1.0
s(lp3965
(g29
I3
tp3966
atp3967
a(S'que'
p3968
(dp3969
g614
F0.0
sS'CONJ'
p3970
F1.0
s(lp3971
tp3972
a(S'el'
p3973
(dp3974
S'PRON'
p3975
F0.000453
sS'DET'
p3976
F0.999547
s(lp3977
(g51
I5
tp3978
atp3979
a(S'apasionado'
p3980
(dp3981
S'VERB'
p3982
F1.0
s(lp3983
(g59
I6
tp3984
atp3985
a(S'debate'
p3986
(dp3987
S'VERB'
p3988
F1.0
s(lp3989
(g251
I7
tp3990
atp3991
a(S'-que'
p3992
(dp3993
S'ADJ'
p3994
F0.071713
sS'VERB'
p3995
F0.060577
sS'NOUN'
p3996
F0.867711
s(lp3997
(g88
I8
tp3998
atp3999
a(S'no'
p4000
(dp4001
S'ADV'
p4002
F1.0
sg614
F0.0
s(lp4003
(g300
I12
tp4004
atp4005
a(S'nos'
p4006
(dp4007
S'PRON'
p4008
F1.0
s(lp4009
(g307
I13
tp4010
atp4011
a(S'corresponde'
p4012
(dp4013
S'VERB'
p4014
F1.0
s(lp4015
(g73
I57
tp4016
atp4017
a(S'resolver-'
p4018
(dp4019
S'ADJ'
p4020
F0.009717
sS'VERB'
p4021
F0.06606
sS'NOUN'
p4022
F0.924222
s(lp4023
(g685
I15
tp4024
atp4025
a(S'y'
p4026
(dp4027
g614
F0.000362
sS'CONJ'
p4028
F0.999638
s(lp4029
(g696
I17
tp4030
atp4031
a(S'la'
p4032
(dp4033
S'PRON'
p4034
F0.00015299999999999998
sS'DET'
p4035
F0.999794
sg614
F4e-06
sS'NOUN'
p4036
F5e-05
s(lp4037
tp4038
a(S'pol\xc3\xa9mica'
p4039
(dp4040
S'ADJ'
p4041
F1.0
s(lp4042
(g103
I18
tp4043
atp4044
a(S'que'
p4045
(dp4046
g614
F1e-06
sS'CONJ'
p4047
F0.999999
s(lp4048
tp4049
a(S'rodea'
p4050
(dp4051
S'VERB'
p4052
F1.0
s(lp4053
(g110
I19
tp4054
atp4055
a(S'el'
p4056
(dp4057
S'PRON'
p4058
F1e-06
sS'DET'
p4059
F0.999999
s(lp4060
(g131
I20
tp4061
atp4062
a(S'prop\xc3\xb3sito'
p4063
(dp4064
S'NOUN'
p4065
F1.0
s(lp4066
(g720
I21
tp4067
atp4068
a(g4026
(dp4069
g614
F0.001008
sS'CONJ'
p4070
F0.998992
s(lp4071
(g144
I22
tp4072
atp4073
a(S'uso'
p4074
(dp4075
S'NOUN'
p4076
F1.0
s(lp4077
(g158
I23
tp4078
atp4079
a(S'de'
p4080
(dp4081
g614
F0.0
sS'CONJ'
p4082
F2.5e-05
sS'ADP'
p4083
F0.999975
s(lp4084
(g165
I24
tp4085
atp4086
a(S'esta'
p4087
(dp4088
S'PRON'
p4089
F1.0
sS'VERB'
p4090
F0.0
s(lp4091
(g172
I25
tp4092
atp4093
a(S'sangre'
p4094
(dp4095
S'VERB'
p4096
F0.002414
sS'NOUN'
p4097
F0.997586
s(lp4098
(g179
I26
tp4099
atp4100
a(S'-si'
p4101
(dp4102
S'ADV'
p4103
F0.087799
sS'NOUN'
p4104
F0.038805
sS'VERB'
p4105
F0.022219
sS'ADJ'
p4106
F0.851177
s(lp4107
(g88
I27
tp4108
atp4109
a(S'acaba'
p4110
(dp4111
S'VERB'
p4112
F1.0
s(lp4113
(g772
I30
tp4114
atp4115
a(S'en'
p4116
(dp4117
g614
F8e-06
sS'CONJ'
p4118
F1.4e-05
sS'ADP'
p4119
F0.999977
s(lp4120
(g788
I32
tp4121
atp4122
a(S'bancos'
p4123
(dp4124
S'NOUN'
p4125
F1.0
s(lp4126
(g212
I37
tp4127
atp4128
a(S'de'
p4129
(dp4130
g614
F2.9e-05
sS'CONJ'
p4131
F0.00045
sS'ADP'
p4132
F0.999521
s(lp4133
(g831
I39
tp4134
atp4135
a(S'sangre'
p4136
(dp4137
S'VERB'
p4138
F3e-05
sS'NOUN'
p4139
F0.99997
s(lp4140
(g814
I36
tp4141
atp4142
a(S'p\xc3\xbablicos'
p4143
(dp4144
S'ADJ'
p4145
F1.0
s(lp4146
(g197
I33
tp4147
atp4148
a(g2290
(dp4149
g614
F0.000628
sS'CONJ'
p4150
F0.999372
s(lp4151
(g204
I34
tp4152
atp4153
a(S'privados-'
p4154
(dp4155
S'ADJ'
p4156
F2e-06
sS'VERB'
p4157
F0.961455
sS'NOUN'
p4158
F0.038542
s(lp4159
(g220
I35
tp4160
atp4161
a(S'nos'
p4162
(dp4163
S'PRON'
p4164
F1.0
s(lp4165
(g850
I42
tp4166
atp4167
a(S'impida'
p4168
(dp4169
S'VERB'
p4170
F1.0
s(lp4171
(g285
I41
tp4172
atp4173
a(S'hablar'
p4174
(dp4175
S'VERB'
p4176
F1.0
s(lp4177
(g292
I44
tp4178
atp4179
a(S'de'
p4180
(dp4181
g614
F0.0
sS'CONJ'
p4182
F4.8e-05
sS'ADP'
p4183
F0.999952
s(lp4184
(g363
I45
tp4185
atp4186
a(S'esta'
p4187
(dp4188
S'PRON'
p4189
F1.0
sS'VERB'
p4190
F0.0
s(lp4191
(g370
I46
tp4192
atp4193
a(S't\xc3\xa9cnica'
p4194
(dp4195
S'ADJ'
p4196
F0.100708
sS'NOUN'
p4197
F0.899292
s(lp4198
(g378
I47
tp4199
atp4200
a(g84
(dp4201
g86
F1.0
s(lp4202
(g84
I48
tp4203
atp4204
a(S'que'
p4205
(dp4206
g614
F0.0
sS'CONJ'
p4207
F1.0
s(lp4208
(g398
I50
tp4209
atp4210
a(S'es'
p4211
(dp4212
S'VERB'
p4213
F1.0
s(lp4214
(g406
I51
tp4215
atp4216
a(S'el'
p4217
(dp4218
S'PRON'
p4219
F2e-06
sS'DET'
p4220
F0.999998
s(lp4221
(g413
I52
tp4222
atp4223
a(S'llamamiento'
p4224
(dp4225
S'NOUN'
p4226
F1.0
s(lp4227
(g420
I53
tp4228
atp4229
a(S'que'
p4230
(dp4231
g614
F1.4e-05
sS'CONJ'
p4232
F0.999986
s(lp4233
tp4234
a(S'ha'
p4235
(dp4236
S'VERB'
p4237
F1.0
s(lp4238
(g435
I54
tp4239
atp4240
a(S'hecho'
p4241
(dp4242
S'ADJ'
p4243
F0.000868
sS'VERB'
p4244
F0.992863
sS'NOUN'
p4245
F0.006269
s(lp4246
(g73
I57
tp4247
atp4248
a(S'la'
p4249
(dp4250
S'PRON'
p4251
F3e-06
sS'DET'
p4252
F0.999996
sS'NOUN'
p4253
F0.0
sg614
F0.0
s(lp4254
tp4255
a(S'profesora'
p4256
(dp4257
S'NOUN'
p4258
F1.0
s(lp4259
tp4260
a(S'eliane'
p4261
(dp4262
S'NOUN'
p4263
F0.054064
sS'VERB'
p4264
F0.414598
sS'ADJ'
p4265
F0.531338
s(lp4266
tp4267
a(S'gluckman'
p4268
(dp4269
S'NOUN'
p4270
F0.024045
sS'VERB'
p4271
F0.012567
sS'ADJ'
p4272
F0.963388
s(lp4273
(g81
I58
tp4274
atp4275
a(g84
(dp4276
g86
F1.0
s(lp4277
(g84
I59
tp4278
atp4279
a(S'que'
p4280
(dp4281
g614
F1.9e-05
sS'CONJ'
p4282
F0.999981
s(lp4283
(g472
I60
tp4284
atp4285
a(S'ha'
p4286
(dp4287
S'VERB'
p4288
F1.0
s(lp4289
(g479
I61
tp4290
atp4291
a(S'dedicado'
p4292
(dp4293
S'VERB'
p4294
F1.0
s(lp4295
(g486
I62
tp4296
atp4297
a(S'toda'
p4298
(dp4299
S'ADJ'
p4300
F1.0
s(lp4301
(g507
I64
tp4302
atp4303
a(S'su'
p4304
(dp4305
S'PRON'
p4306
F1.0
s(lp4307
(g493
I63
tp4308
atp4309
a(S'carrera'
p4310
(dp4311
S'NOUN'
p4312
F1.0
s(lp4313
(g500
I65
tp4314
atp4315
a(g475
(dp4316
g614
F8.499999999999999e-05
sS'CONJ'
p4317
F0.077467
sS'ADP'
p4318
F0.922448
s(lp4319
(g514
I66
tp4320
atp4321
a(S'hacer'
p4322
(dp4323
S'VERB'
p4324
F1.0
s(lp4325
tp4326
a(S'que'
p4327
(dp4328
g614
F0.0
sS'CONJ'
p4329
F1.0
s(lp4330
(g521
I67
tp4331
atp4332
a(S'la'
p4333
(dp4334
S'PRON'
p4335
F0.00027
sS'DET'
p4336
F0.99973
sg614
F0.0
sS'NOUN'
p4337
F0.0
s(lp4338
(g528
I68
tp4339
atp4340
a(S'donaci\xc3\xb3n'
p4341
(dp4342
S'NOUN'
p4343
F1.0
s(lp4344
(g535
I69
tp4345
atp4346
a(S'de'
p4347
(dp4348
g614
F3.1e-05
sS'CONJ'
p4349
F0.00045
sS'ADP'
p4350
F0.999519
s(lp4351
(g554
I70
tp4352
atp4353
a(S'sangre'
p4354
(dp4355
S'VERB'
p4356
F0.000113
sS'NOUN'
p4357
F0.999887
s(lp4358
(g547
I72
tp4359
atp4360
a(S'de'
p4361
(dp4362
g614
F2.9e-05
sS'CONJ'
p4363
F0.000449
sS'ADP'
p4364
F0.999522
s(lp4365
(g561
I71
tp4366
atp4367
a(S'cord\xc3\xb3n'
p4368
(dp4369
S'NOUN'
p4370
F1.0
s(lp4371
tp4372
a(S'umbilical'
p4373
(dp4374
S'ADJ'
p4375
F1.0
s(lp4376
(g561
I71
tp4377
atp4378
a(S'sean'
p4379
(dp4380
S'VERB'
p4381
F1.0
s(lp4382
(g73
I57
tp4383
atp4384
a(S'una'
p4385
(dp4386
S'DET'
p4387
F1.0
s(lp4388
(g475
I73
tp4389
atp4390
a(S'donaci\xc3\xb3n'
p4391
(dp4392
S'NOUN'
p4393
F1.0
s(lp4394
(g576
I74
tp4395
atp4396
a(S'de'
p4397
(dp4398
g614
F2.9e-05
sS'CONJ'
p4399
F0.000449
sS'ADP'
p4400
F0.999522
s(lp4401
(g583
I75
tp4402
atp4403
a(S'vida'
p4404
(dp4405
S'NOUN'
p4406
F1.0
s(lp4407
(g590
I76
tp4408
atp4409
a(g86
(dp4410
g86
F1.0
s(lp4411
(g86
I77
tp4412
atp4413
as.