(dp0
S'fr'
p1
(lp2
(S"l'"
p3
(dp4
S'ADJ'
p5
F0.079749
sS'VERB'
p6
F0.5393100000000001
sS'NOUN'
p7
F0.380941
s(lp8
(S'the'
p9
I0
tp10
atp11
a(S'ue'
p12
(dp13
S'VERB'
p14
F0.00028
sS'NOUN'
p15
F0.999719
s(lp16
(S'eu'
p17
I1
tp18
atp19
a(S'deviendrait'
p20
(dp21
S'VERB'
p22
F1.0
s(lp23
(S'would'
p24
I2
tp25
atp26
a(S'tout'
p27
(dp28
S'ADV'
p29
F0.982598
sS'PRON'
p30
F0.016145
sS'NOUN'
p31
F0.001257
s(lp32
tp33
a(S'simplement'
p34
(dp35
S'ADV'
p36
F1.0
s(lp37
(S'simply'
p38
I3
tp39
atp40
a(S'une'
p41
(dp42
S'NOUN'
p43
F6e-06
sS'NUM'
p44
F0.009284
sS'DET'
p45
F0.99071
s(lp46
(S'a'
p47
I5
tp48
atp49
a(S'union'
p50
(dp51
S'NOUN'
p52
F1.0
s(lp53
(S'union'
p54
I7
tp55
atp56
a(S'de'
p57
(dp58
S'ADP'
p59
F1.0
s(lp60
tp61
a(S'transfert'
p62
(dp63
S'NOUN'
p64
F1.0
s(lp65
(S'transfer'
p66
I6
tp67
atp68
a(S'.'
p69
(dp70
g69
F1.0
s(lp71
(g69
I8
tp72
atp73
asS'en'
p74
(lp75
(g9
(dp76
S'NOUN'
p77
F1.6e-05
sS'DET'
p78
F0.999984
s(lp79
(g9
I0
tp80
atp81
a(g17
(dp82
S'ADV'
p83
F6.7e-05
sS'ADJ'
p84
F0.000191
sS'VERB'
p85
F4.9999999999999996e-06
sS'NOUN'
p86
F0.9997360000000001
s(lp87
(g17
I1
tp88
atp89
a(g24
(dp90
S'VERB'
p91
F1.0
s(lp92
(g24
I2
tp93
atp94
a(g38
(dp95
S'ADV'
p96
F0.999999
sS'ADJ'
p97
F1e-06
s(lp98
(g38
I3
tp99
atp100
a(S'become'
p101
(dp102
S'VERB'
p103
F1.0000010000000001
s(lp104
(g101
I4
tp105
atp106
a(g47
(dp107
S'NOUN'
p108
F0.0
sS'DET'
p109
F1.0
s(lp110
(g47
I5
tp111
atp112
a(g66
(dp113
S'VERB'
p114
F0.003593
sS'NOUN'
p115
F0.996407
s(lp116
(g66
I6
tp117
atp118
a(g54
(dp119
S'NOUN'
p120
F1.0
s(lp121
(g54
I7
tp122
atp123
a(g69
(dp124
g69
F1.0
s(lp125
(g69
I8
tp126
atp127
asS'nl'
p128
(lp129
(S'de'
p130
(dp131
S'DET'
p132
F1.0
s(lp133
(g9
I0
tp134
atp135
a(S'eu'
p136
(dp137
S'NOUN'
p138
F1.0
s(lp139
(g17
I1
tp140
atp141
a(S'zou'
p142
(dp143
S'VERB'
p144
F1.0
s(lp145
(g24
I2
tp146
atp147
a(S'dan'
p148
(dp149
S'ADV'
p150
F0.419093
sS'CONJ'
p151
F0.580907
s(lp152
(g38
I3
tp153
atp154
a(S'definitief'
p155
(dp156
S'ADJ'
p157
F1.0
s(lp158
tp159
a(S'een'
p160
(dp161
S'ADJ'
p162
F0.000122
sS'NUM'
p163
F0.0
sS'DET'
p164
F0.999878
sS'PRON'
p165
F0.0
s(lp166
(g47
I5
tp167
atp168
a(S'transferunie'
p169
(dp170
S'NOUN'
p171
F1.0
s(lp172
(g66
I6
tp173
atp174
a(S'worden'
p175
(dp176
S'VERB'
p177
F0.999999
sS'NOUN'
p178
F0.0
s(lp179
(g101
I4
tp180
atp181
a(g69
(dp182
g69
F1.0
s(lp183
(g69
I8
tp184
atp185
asS'de'
p186
(lp187
(S'die'
p188
(dp189
S'PRON'
p190
F0.041314
sS'DET'
p191
F0.95381
s(lp192
(g9
I0
tp193
atp194
a(S'eu'
p195
(dp196
S'NOUN'
p197
F0.36811
sS'ADJ'
p198
F0.430855
s(lp199
(g17
I1
tp200
atp201
a(S'w\xc3\xbcrde'
p202
(dp203
S'VERB'
p204
F1.0
s(lp205
(g24
I2
tp206
atp207
a(S'vollst\xc3\xa4ndig'
p208
(dp209
S'ADJ'
p210
F1.0
s(lp211
(g38
I3
tp212
atp213
a(S'zur'
p214
(dp215
S'ADP'
p216
F1.0
s(lp217
(g101
I4
tp218
atp219
a(S'transferunion'
p220
(dp221
S'NOUN'
p222
F0.999861
s(lp223
(g66
I6
tp224
atp225
a(S'mutieren'
p226
(dp227
S'VERB'
p228
F1.0
s(lp229
(g54
I7
tp230
atp231
a(g69
(dp232
g69
F1.0
s(lp233
(g69
I8
tp234
atp235
asS'it'
p236
(lp237
(S"l'"
p238
(dp239
S'NOUN'
p240
F0.00259
sS'VERB'
p241
F0.9925710000000001
sS'ADJ'
p242
F0.00484
s(lp243
(g9
I0
tp244
atp245
a(S'unione'
p246
(dp247
S'NOUN'
p248
F1.0
s(lp249
tp250
a(S'europea'
p251
(dp252
S'NOUN'
p253
F0.028412
sS'ADJ'
p254
F0.971588
s(lp255
(g17
I1
tp256
atp257
a(S'diventerebbe'
p258
(dp259
S'VERB'
p260
F1.0
s(lp261
(g101
I4
tp262
atp263
a(S'semplicemente'
p264
(dp265
S'ADV'
p266
F1.0
s(lp267
(g38
I3
tp268
atp269
a(S"un'"
p270
(dp271
S'PRON'
p272
F0.003852
sS'DEF'
p273
F0.996148
s(lp274
(g47
I5
tp275
atp276
a(S'unione'
p277
(dp278
S'NOUN'
p279
F1.0
s(lp280
(g54
I7
tp281
atp282
a(S'di'
p283
(dp284
S'CONJ'
p285
F4e-06
sS'ADP'
p286
F0.999996
s(lp287
tp288
a(S'trasferimenti'
p289
(dp290
S'NOUN'
p291
F1.0
s(lp292
(g66
I6
tp293
atp294
a(g69
(dp295
g69
F1.0
s(lp296
(g69
I8
tp297
atp298
asS'sk'
p299
(lp300
(S'e\xc3\x9a'
p301
(dp302
S'ADV'
p303
F0.09625600000000001
sS'NOUN'
p304
F0.293142
sS'VERB'
p305
F0.00213
sS'ADJ'
p306
F0.511098
sS'X'
p307
F0.097374
s(lp308
(g17
I1
tp309
atp310
a(S'by'
p311
(dp312
S'PRT'
p313
F0.999896
sg307
F0.00010400000000000001
s(lp314
(g24
I2
tp315
atp316
a(S'sa'
p317
(dp318
S'PRT'
p319
F0.999964
sS'ADP'
p320
F0.0
sg307
F3.6e-05
s(lp321
tp322
a(S'jednoducho'
p323
(dp324
S'ADV'
p325
F0.262093
sg307
F0.737907
s(lp326
(g38
I3
tp327
atp328
a(S'stala'
p329
(dp330
S'VERB'
p331
F1.0
s(lp332
(g101
I4
tp333
atp334
a(S'transferovou'
p335
(dp336
S'ADJ'
p337
F1.0
s(lp338
(g66
I6
tp339
atp340
a(S'\xc3\xbaniou'
p341
(dp342
S'NOUN'
p343
F1.0
s(lp344
(g54
I7
tp345
atp346
a(g69
(dp347
g69
F1.0
s(lp348
(g69
I8
tp349
atp350
asS'pl'
p351
(lp352
(S'w'
p353
(dp354
S'ADJ'
p355
F0.0
sg307
F2.5e-05
sS'NOUN'
p356
F0.000199
sS'ADP'
p357
F0.999777
s(lp358
(g9
I0
tp359
atp360
a(S'taki'
p361
(dp362
S'ADJ'
p363
F0.999999
s(lp364
(g47
I5
tp365
atp366
a(S'spos\xc3\xb3b'
p367
(dp368
S'ADJ'
p369
F2.9e-05
sS'NOUN'
p370
F0.99997
s(lp371
(g24
I2
tp372
atp373
a(S'ue'
p374
(dp375
S'ADJ'
p376
F0.017425
sS'VERB'
p377
F0.0012660000000000002
sS'NOUN'
p378
F0.9813100000000001
s(lp379
(g17
I1
tp380
atp381
a(S'sta\xc5\x82aby'
p382
(dp383
S'ADV'
p384
F0.000926
sS'NOUN'
p385
F0.8862400000000001
sS'PRT'
p386
F0.019699
sS'VERB'
p387
F0.069783
sS'CONJ'
p388
F0.008365
sS'ADJ'
p389
F0.014988
s(lp390
tp391
a(S'si\xc4\x99'
p392
(dp393
S'PRT'
p394
F1.0
s(lp395
(g101
I4
tp396
atp397
a(S'po'
p398
(dp399
g307
F0.0
sS'VERB'
p400
F7.699999999999999e-05
sS'NOUN'
p401
F1e-06
sS'ADP'
p402
F0.9999199999999999
s(lp403
tp404
a(S'prostu'
p405
(dp406
S'ADJ'
p407
F1.0
s(lp408
(g38
I3
tp409
atp410
a(S'uni\xc4\x85'
p411
(dp412
S'NOUN'
p413
F0.028821000000000003
sS'VERB'
p414
F0.263892
sS'ADJ'
p415
F0.707287
s(lp416
(g54
I7
tp417
atp418
a(S'transferow\xc4\x85'
p419
(dp420
S'ADJ'
p421
F1.0
s(lp422
(g66
I6
tp423
atp424
a(g69
(dp425
g69
F1.0
s(lp426
(g69
I8
tp427
atp428
asS'sl'
p429
(lp430
(S'eu'
p431
(dp432
S'ADV'
p433
F0.057504
sS'ADJ'
p434
F0.07001600000000004
sS'VERB'
p435
F0.002235
sS'NOUN'
p436
F0.8702460000000001
s(lp437
(g17
I1
tp438
atp439
a(S'bi'
p440
(dp441
g307
F0.000335
sS'VERB'
p442
F0.999665
s(lp443
(g24
I2
tp444
atp445
a(S'preprosto'
p446
(dp447
S'ADV'
p448
F0.999314
sS'ADJ'
p449
F0.000687
s(lp450
(g38
I3
tp451
atp452
a(S'postala'
p453
(dp454
S'VERB'
p455
F0.9999990000000001
s(lp456
(g101
I4
tp457
atp458
a(S'unija'
p459
(dp460
S'NOUN'
p461
F1.0
s(lp462
(g54
I7
tp463
atp464
a(S'nakazil'
p465
(dp466
S'ADJ'
p467
F0.009422
sS'VERB'
p468
F0.690684
sS'NOUN'
p469
F0.299894
s(lp470
(g66
I6
tp471
atp472
a(g69
(dp473
g69
F1.0
s(lp474
(g69
I8
tp475
atp476
asS'es'
p477
(lp478
(S'la'
p479
(dp480
S'PRON'
p481
F8.6e-05
sS'DET'
p482
F0.999868
sS'NOUN'
p483
F0.0
sg307
F4.6e-05
s(lp484
(g9
I0
tp485
atp486
a(S'ue'
p487
(dp488
S'VERB'
p489
F3.1e-05
sS'NOUN'
p490
F0.999969
s(lp491
(g17
I1
tp492
atp493
a(S'se'
p494
(dp495
S'PRON'
p496
F1.0
sS'VERB'
p497
F0.0
s(lp498
(g101
I4
tp499
atp500
a(S'convertir\xc3\xada'
p501
(dp502
S'VERB'
p503
F1.0
s(lp504
tp505
a(S'en'
p506
(dp507
g307
F0.0
sS'CONJ'
p508
F1e-06
sS'ADP'
p509
F0.999999
s(lp510
(g101
I4
tp511
atp512
a(S'una'
p513
(dp514
S'DET'
p515
F1.0
s(lp516
(g47
I5
tp517
atp518
a(S'mera'
p519
(dp520
S'VERB'
p521
F0.00514
sS'ADJ'
p522
F0.99486
s(lp523
(g38
I3
tp524
atp525
a(S'uni\xc3\xb3n'
p526
(dp527
S'NOUN'
p528
F1.0
s(lp529
(g54
I7
tp530
atp531
a(S'de'
p532
(dp533
g307
F2.9e-05
sS'CONJ'
p534
F0.000449
sS'ADP'
p535
F0.999522
s(lp536
tp537
a(S'transferencias'
p538
(dp539
S'NOUN'
p540
F1.0
s(lp541
(g66
I6
tp542
atp543
a(g69
(dp544
g69
F1.0
s(lp545
(g69
I8
tp546
atp547
as.