(dp0
S'fr'
p1
(lp2
(S'donc'
p3
(dp4
S'ADV'
p5
F1.0
s(lp6
(S'then'
p7
I2
tp8
atp9
a(S','
p10
(dp11
S'.'
p12
F1.0
s(lp13
(S'will'
p14
I3
tp15
atp16
a(S'le'
p17
(dp18
S'PRON'
p19
F0.008057
sS'DET'
p20
F0.991943
s(lp21
(S'the'
p22
I0
tp23
atp24
a(S'monde'
p25
(dp26
S'ADJ'
p27
F0.003928
sS'VERB'
p28
F0.007762
sS'NOUN'
p29
F0.98831
s(lp30
(S'world'
p31
I1
tp32
atp33
a(S'ne'
p34
(dp35
S'ADV'
p36
F1.0
s(lp37
tp38
a(S"l'"
p39
(dp40
S'NOUN'
p41
F0.037162
sS'VERB'
p42
F0.7565829999999999
sS'ADJ'
p43
F0.206256
s(lp44
tp45
a(S'oubliera'
p46
(dp47
S'VERB'
p48
F1.0
s(lp49
(S'forget'
p50
I5
tp51
atp52
a(S'pas'
p53
(dp54
S'ADV'
p55
F0.995329
sS'NOUN'
p56
F0.004671
s(lp57
(S'not'
p58
I4
tp59
atp60
a(S'mais'
p61
(dp62
S'CONJ'
p63
F1.0
s(lp64
(S'but'
p65
I7
tp66
atp67
a(S'nos'
p68
(dp69
S'PRON'
p70
F1.0
s(lp71
(S'mere'
p72
I8
tp73
atp74
a(S'seules'
p75
(dp76
S'NOUN'
p77
F0.093403
sS'ADJ'
p78
F0.906597
s(lp79
(g72
I8
tp80
atp81
a(S'paroles'
p82
(dp83
S'NOUN'
p84
F1.0
s(lp85
(S'words'
p86
I9
tp87
atp88
a(S"n'"
p89
(dp90
S'NOUN'
p91
F0.032441
sS'VERB'
p92
F0.694014
sS'ADJ'
p93
F0.273544
s(lp94
tp95
a(S'auront'
p96
(dp97
S'VERB'
p98
F1.0
s(lp99
(S'will'
p100
I10
tp101
atp102
a(S'que'
p103
(dp104
S'ADV'
p105
F0.247401
sS'PRON'
p106
F0.018484999999999998
sS'CONJ'
p107
F0.734114
s(lp108
(g72
I8
tp109
atp110
a(S'peu'
p111
(dp112
S'ADV'
p113
F1.0
s(lp114
(S'little'
p115
I12
tp116
atp117
a(S"d'"
p118
(dp119
S'NOUN'
p120
F0.037162
sS'VERB'
p121
F0.7565829999999999
sS'ADJ'
p122
F0.206256
s(lp123
tp124
a(S'effet'
p125
(dp126
S'NOUN'
p127
F1.0
s(lp128
(S'effect'
p129
I13
tp130
atp131
a(g10
(dp132
g12
F1.0
s(lp133
(g10
I14
tp134
atp135
a(S'madame'
p136
(dp137
S'NOUN'
p138
F1.0
s(lp139
tp140
a(S'la'
p141
(dp142
S'PRON'
p143
F5.2e-05
sS'DET'
p144
F0.999948
sS'NOUN'
p145
F0.0
s(lp146
(S'madam'
p147
I15
tp148
atp149
a(S'pr\xc3\xa9sidente'
p150
(dp151
S'NOUN'
p152
F1.0
s(lp153
(S'president'
p154
I16
tp155
atp156
a(g12
(dp157
g12
F1.0
s(lp158
(g12
I17
tp159
atp160
asS'en'
p161
(lp162
(g22
(dp163
S'NOUN'
p164
F5e-06
sS'DET'
p165
F0.999995
s(lp166
(g22
I0
tp167
atp168
a(g31
(dp169
S'NOUN'
p170
F1.0
s(lp171
(g31
I1
tp172
atp173
a(g7
(dp174
S'ADV'
p175
F0.999877
sS'ADJ'
p176
F0.000123
s(lp177
(g7
I2
tp178
atp179
a(g14
(dp180
S'VERB'
p181
F0.999726
sS'NOUN'
p182
F0.000274
s(lp183
(g14
I3
tp184
atp185
a(g58
(dp186
S'ADV'
p187
F1.0
s(lp188
(g58
I4
tp189
atp190
a(g50
(dp191
S'VERB'
p192
F1.0
s(lp193
(g50
I5
tp194
atp195
a(g10
(dp196
g12
F1.0
s(lp197
(g10
I6
tp198
atp199
a(g65
(dp200
S'ADV'
p201
F0.003104
sS'CONJ'
p202
F0.996896
sS'NOUN'
p203
F0.0
s(lp204
(g65
I7
tp205
atp206
a(g72
(dp207
S'NOUN'
p208
F0.000955
sS'ADJ'
p209
F0.999045
s(lp210
(g72
I8
tp211
atp212
a(g86
(dp213
S'VERB'
p214
F1e-06
sS'NOUN'
p215
F0.999999
s(lp216
(g86
I9
tp217
atp218
a(g100
(dp219
S'VERB'
p220
F0.9999990000000001
sS'NOUN'
p221
F1e-06
s(lp222
(g100
I10
tp223
atp224
a(S'have'
p225
(dp226
S'VERB'
p227
F1.0
s(lp228
(g225
I11
tp229
atp230
a(g115
(dp231
S'ADV'
p232
F0.010045
sS'ADJ'
p233
F0.989955
s(lp234
(g115
I12
tp235
atp236
a(g129
(dp237
S'VERB'
p238
F0.0002
sS'NOUN'
p239
F0.9998
s(lp240
(g129
I13
tp241
atp242
a(g10
(dp243
g12
F1.0
s(lp244
(g10
I14
tp245
atp246
a(g147
(dp247
S'NOUN'
p248
F1.0
s(lp249
(g147
I15
tp250
atp251
a(g154
(dp252
S'NOUN'
p253
F1.0
s(lp254
(g154
I16
tp255
atp256
a(g12
(dp257
g12
F1.0
s(lp258
(g12
I17
tp259
atp260
asS'nl'
p261
(lp262
(S'de'
p263
(dp264
S'DET'
p265
F1.0
s(lp266
(g22
I0
tp267
atp268
a(S'wereld'
p269
(dp270
S'NOUN'
p271
F1.0
s(lp272
(g31
I1
tp273
atp274
a(S'zal'
p275
(dp276
S'VERB'
p277
F1.0
s(lp278
(g14
I3
tp279
atp280
a(S'hem'
p281
(dp282
S'PRON'
p283
F1.0
s(lp284
(g7
I2
tp285
atp286
a(S'niet'
p287
(dp288
S'ADV'
p289
F0.999987
sS'PRON'
p290
F5e-06
sS'VERB'
p291
F8e-06
sS'X'
p292
F0.0
s(lp293
(g58
I4
tp294
atp295
a(S'vergeten'
p296
(dp297
S'VERB'
p298
F0.996213
sS'NOUN'
p299
F0.003788
s(lp300
(g50
I5
tp301
atp302
a(g10
(dp303
g12
F1.0
s(lp304
(g10
I6
tp305
atp306
a(S'maar'
p307
(dp308
S'ADV'
p309
F0.055903
sS'CONJ'
p310
F0.944097
sS'NOUN'
p311
F0.0
s(lp312
(g65
I7
tp313
atp314
a(S'onze'
p315
(dp316
S'PRON'
p317
F1.0
s(lp318
(g72
I8
tp319
atp320
a(S'woorden'
p321
(dp322
S'NOUN'
p323
F1.0
s(lp324
tp325
a(S'alleen'
p326
(dp327
S'ADV'
p328
F0.993986
sS'ADJ'
p329
F0.006014
s(lp330
(g86
I9
tp331
atp332
a(S'zullen'
p333
(dp334
S'VERB'
p335
F0.999991
sS'NOUN'
p336
F8e-06
s(lp337
(g100
I10
tp338
atp339
a(S'niet'
p340
(dp341
S'ADV'
p342
F0.999999
sS'PRON'
p343
F1e-06
sS'VERB'
p344
F0.0
sg292
F0.0
s(lp345
tp346
a(S'veel'
p347
(dp348
S'ADV'
p349
F0.58693
sS'NUM'
p350
F0.411168
sS'VERB'
p351
F0.001903
s(lp352
(g115
I12
tp353
atp354
a(S'effect'
p355
(dp356
S'NOUN'
p357
F1.0
s(lp358
tp359
a(S'sorteren'
p360
(dp361
S'VERB'
p362
F0.998772
sS'NOUN'
p363
F0.001228
s(lp364
(g129
I13
tp365
atp366
a(g10
(dp367
g12
F1.0
s(lp368
(g10
I14
tp369
atp370
a(S'mevrouw'
p371
(dp372
S'NOUN'
p373
F1.0
s(lp374
(g147
I15
tp375
atp376
a(S'de'
p377
(dp378
S'DET'
p379
F1.0
s(lp380
tp381
a(S'voorzitter'
p382
(dp383
S'NOUN'
p384
F1.0
s(lp385
(g154
I16
tp386
atp387
a(g12
(dp388
g12
F1.0
s(lp389
(g12
I17
tp390
atp391
asS'de'
p392
(lp393
(S'die'
p394
(dp395
S'PRON'
p396
F0.005742
sS'DET'
p397
F0.99281
s(lp398
(g22
I0
tp399
atp400
a(S'welt'
p401
(dp402
S'ADJ'
p403
F0.039337
sS'NOUN'
p404
F0.927468
s(lp405
(g31
I1
tp406
atp407
a(S'wird'
p408
(dp409
S'VERB'
p410
F1.0
s(lp411
(g14
I3
tp412
atp413
a(S'das'
p414
(dp415
S'PRON'
p416
F0.911733
sS'DET'
p417
F0.088247
s(lp418
(g7
I2
tp419
atp420
a(S'nicht'
p421
(dp422
S'PRT'
p423
F1.0
s(lp424
(g58
I4
tp425
atp426
a(S'vergessen'
p427
(dp428
S'VERB'
p429
F0.998089
s(lp430
(g50
I5
tp431
atp432
a(g10
(dp433
g12
F1.0
s(lp434
(g10
I6
tp435
atp436
a(S'aber'
p437
(dp438
S'ADV'
p439
F0.721465
sS'CONJ'
p440
F0.278535
s(lp441
(g65
I7
tp442
atp443
a(S'worte'
p444
(dp445
S'NOUN'
p446
F0.153396
sS'ADJ'
p447
F0.649248
s(lp448
(g86
I9
tp449
atp450
a(S'alleine'
p451
(dp452
S'ADV'
p453
F0.968508
sS'PRT'
p454
F0.031492
s(lp455
(g72
I8
tp456
atp457
a(S'werden'
p458
(dp459
S'VERB'
p460
F0.999587
s(lp461
(g100
I10
tp462
atp463
a(S'wenig'
p464
(dp465
S'ADV'
p466
F0.232075
sS'PRON'
p467
F0.761821
s(lp468
(g115
I12
tp469
atp470
a(S'ausrichten'
p471
(dp472
S'VERB'
p473
F1.0
s(lp474
(g129
I13
tp475
atp476
a(g10
(dp477
g12
F1.0
s(lp478
(g10
I14
tp479
atp480
a(S'frau'
p481
(dp482
S'ADJ'
p483
F0.966044
s(lp484
(g147
I15
tp485
atp486
a(S'pr\xc3\xa4sidentin'
p487
(dp488
S'NOUN'
p489
F0.9926609999999999
s(lp490
(g154
I16
tp491
atp492
a(g12
(dp493
g12
F1.0
s(lp494
(g12
I17
tp495
atp496
asS'it'
p497
(lp498
(S'il'
p499
(dp500
S'DET'
p501
F1.0
s(lp502
(g22
I0
tp503
atp504
a(S'mondo'
p505
(dp506
S'ADJ'
p507
F0.005777
sS'VERB'
p508
F3e-05
sS'NOUN'
p509
F0.994193
s(lp510
(g31
I1
tp511
atp512
a(S'allora'
p513
(dp514
S'ADV'
p515
F0.985474
sS'ADJ'
p516
F0.014526
s(lp517
(g7
I2
tp518
atp519
a(S'non'
p520
(dp521
S'ADV'
p522
F1.0
s(lp523
(g58
I4
tp524
atp525
a(S'dimenticher\xc3\xa0'
p526
(dp527
S'VERB'
p528
F1.0
s(lp529
(g50
I5
tp530
atp531
a(g10
(dp532
g12
F1.0
s(lp533
(g10
I6
tp534
atp535
a(S'ma'
p536
(dp537
S'CONJ'
p538
F0.999983
sS'NOUN'
p539
F1.7e-05
s(lp540
(g65
I7
tp541
atp542
a(S'le'
p543
(dp544
S'PRON'
p545
F0.000149
sS'DET'
p546
F0.999851
s(lp547
tp548
a(S'parole'
p549
(dp550
S'NOUN'
p551
F1.0
s(lp552
(g86
I9
tp553
atp554
a(S'da'
p555
(dp556
S'ADP'
p557
F1.0
s(lp558
tp559
a(S'sole'
p560
(dp561
S'NOUN'
p562
F0.277538
sS'ADJ'
p563
F0.722462
s(lp564
(g72
I8
tp565
atp566
a(S'hanno'
p567
(dp568
S'VERB'
p569
F1.0
s(lp570
(g225
I11
tp571
atp572
a(S'scarso'
p573
(dp574
S'ADJ'
p575
F1.0
s(lp576
(g115
I12
tp577
atp578
a(S'effetto'
p579
(dp580
S'NOUN'
p581
F1.0
s(lp582
(g129
I13
tp583
atp584
a(g10
(dp585
g12
F1.0
s(lp586
(g10
I14
tp587
atp588
a(S'signora'
p589
(dp590
S'NOUN'
p591
F1.0
s(lp592
(g147
I15
tp593
atp594
a(S'presidente'
p595
(dp596
S'NOUN'
p597
F1.0
s(lp598
(g154
I16
tp599
atp600
a(g12
(dp601
g12
F1.0
s(lp602
(g12
I17
tp603
atp604
asS'sk'
p605
(lp606
(S'tak\xc5\xbee'
p607
(dp608
g292
F0.506247
sS'CONJ'
p609
F0.493753
s(lp610
(g7
I2
tp611
atp612
a(g10
(dp613
g12
F1.0
s(lp614
tp615
a(S'svet'
p616
(dp617
S'NOUN'
p618
F1.0
s(lp619
(g31
I1
tp620
atp621
a(S'nezabudne'
p622
(dp623
S'VERB'
p624
F1.0
s(lp625
(g50
I5
tp626
atp627
a(g10
(dp628
g12
F1.0
s(lp629
(g10
I6
tp630
atp631
a(S'samotn\xc3\xa9'
p632
(dp633
S'ADJ'
p634
F1.0
s(lp635
(g72
I8
tp636
atp637
a(S'slov\xc3\xa1'
p638
(dp639
S'NOUN'
p640
F1.0
s(lp641
(g86
I9
tp642
atp643
a(S'v\xc5\xa1ak'
p644
(dp645
g292
F0.714649
sS'CONJ'
p646
F0.285351
s(lp647
(g65
I7
tp648
atp649
a(S'bud\xc3\xba'
p650
(dp651
g292
F0.0
sS'VERB'
p652
F1.0
s(lp653
(g100
I10
tp654
atp655
a(S'ma\xc5\xa5'
p656
(dp657
S'VERB'
p658
F0.999974
sS'NOUN'
p659
F2.6e-05
s(lp660
(g225
I11
tp661
atp662
a(S'len'
p663
(dp664
g292
F0.972128
sS'CONJ'
p665
F0.027872
s(lp666
tp667
a(S'mal\xc3\xbd'
p668
(dp669
S'ADJ'
p670
F1.0
s(lp671
(g115
I12
tp672
atp673
a(S'\xc3\xba\xc4\x8dinok'
p674
(dp675
S'NOUN'
p676
F1.0
s(lp677
(g129
I13
tp678
atp679
a(g10
(dp680
g12
F1.0
s(lp681
(g10
I14
tp682
atp683
a(S'pani'
p684
(dp685
S'NOUN'
p686
F1.0
s(lp687
(g147
I15
tp688
atp689
a(S'predsedaj\xc3\xbaca'
p690
(dp691
S'NOUN'
p692
F0.032614
sS'VERB'
p693
F0.9303720000000001
sS'ADJ'
p694
F0.037014
s(lp695
(g154
I16
tp696
atp697
a(g12
(dp698
g12
F1.0
s(lp699
(g12
I17
tp700
atp701
asS'pl'
p702
(lp703
(S'pani'
p704
(dp705
S'NOUN'
p706
F0.999999
s(lp707
tp708
a(S'przewodnicz\xc4\x85ca'
p709
(dp710
S'NOUN'
p711
F1.0
s(lp712
(g147
I15
tp713
atp714
a(S'!'
p715
(dp716
g12
F1.0
s(lp717
(g154
I16
tp718
atp719
a(S'\xc5\x9awiat'
p720
(dp721
S'NOUN'
p722
F1.0
s(lp723
(g31
I1
tp724
atp725
a(S'o'
p726
(dp727
g292
F0.000299
sS'VERB'
p728
F3.8e-05
sS'NOUN'
p729
F0.0
sS'ADP'
p730
F0.99966
sS'PRT'
p731
F2e-06
s(lp732
(g50
I5
tp733
atp734
a(S'tym'
p735
(dp736
S'ADV'
p737
F0.001348
sS'ADJ'
p738
F0.139435
sS'CONJ'
p739
F0.000132
sS'NOUN'
p740
F0.859059
sS'PRT'
p741
F2.6e-05
s(lp742
tp743
a(S'nie'
p744
(dp745
S'ADV'
p746
F8e-06
sS'PRT'
p747
F0.988423
sS'CONJ'
p748
F0.011486
sS'NOUN'
p749
F4e-06
sS'PRON'
p750
F7.999999999999999e-05
s(lp751
(g58
I4
tp752
atp753
a(S'zapomni'
p754
(dp755
S'VERB'
p756
F1.0
s(lp757
(g50
I5
tp758
atp759
a(g10
(dp760
g292
F0.0
sg12
F1.0
s(lp761
(g10
I6
tp762
atp763
a(S'ale'
p764
(dp765
S'PRT'
p766
F0.001396
sS'CONJ'
p767
F0.997057
sS'NOUN'
p768
F0.001547
s(lp769
(g65
I7
tp770
atp771
a(S'zwyk\xc5\x82e'
p772
(dp773
S'ADJ'
p774
F0.9999999999999999
s(lp775
tp776
a(S's\xc5\x82owa'
p777
(dp778
S'NOUN'
p779
F1.0
s(lp780
(g86
I9
tp781
atp782
a(S'mog\xc4\x85'
p783
(dp784
S'VERB'
p785
F1.0
s(lp786
(g100
I10
tp787
atp788
a(S'da\xc4\x87'
p789
(dp790
S'VERB'
p791
F1.0
s(lp792
(g72
I8
tp793
atp794
a(S'nik\xc5\x82e'
p795
(dp796
S'ADJ'
p797
F1.0
s(lp798
(g115
I12
tp799
atp800
a(S'skutki'
p801
(dp802
S'NOUN'
p803
F1.0
s(lp804
(g129
I13
tp805
atp806
a(g12
(dp807
g12
F1.0
s(lp808
(g12
I17
tp809
atp810
asS'sl'
p811
(lp812
(S'gospa'
p813
(dp814
S'NOUN'
p815
F1.0
s(lp816
(g147
I15
tp817
atp818
a(S'predsednica'
p819
(dp820
S'NOUN'
p821
F1.0
s(lp822
(g154
I16
tp823
atp824
a(g10
(dp825
g12
F1.0
s(lp826
(g10
I14
tp827
atp828
a(S'svet'
p829
(dp830
S'NOUN'
p831
F1.0
s(lp832
(g31
I1
tp833
atp834
a(S'potem'
p835
(dp836
S'ADV'
p837
F1.0
s(lp838
(g7
I2
tp839
atp840
a(S'ne'
p841
(dp842
S'PRT'
p843
F0.996005
sS'CONJ'
p844
F0.00396
sg292
F3.4e-05
s(lp845
(g58
I4
tp846
atp847
a(S'bo'
p848
(dp849
S'VERB'
p850
F1.0
s(lp851
(g14
I3
tp852
atp853
a(S'pozabil'
p854
(dp855
S'VERB'
p856
F1.0
s(lp857
(g50
I5
tp858
atp859
a(g10
(dp860
g12
F1.0
s(lp861
(g10
I6
tp862
atp863
a(S'a'
p864
(dp865
S'ADV'
p866
F0.004609
sg292
F0.000215
sS'CONJ'
p867
F0.993364
sS'NOUN'
p868
F0.001812
s(lp869
(g65
I7
tp870
atp871
a(S'zgolj'
p872
(dp873
S'PRT'
p874
F1.0
s(lp875
(g72
I8
tp876
atp877
a(S'besede'
p878
(dp879
S'NOUN'
p880
F1.0000010000000001
s(lp881
(g86
I9
tp882
atp883
a(S'bodo'
p884
(dp885
S'VERB'
p886
F1.0
s(lp887
(g100
I10
tp888
atp889
a(S'imele'
p890
(dp891
S'VERB'
p892
F1.0
s(lp893
(g225
I11
tp894
atp895
a(S'malo'
p896
(dp897
S'ADV'
p898
F0.99709
sS'ADJ'
p899
F0.002909
s(lp900
(g115
I12
tp901
atp902
a(S'u\xc4\x8dinka'
p903
(dp904
S'NOUN'
p905
F1.0
s(lp906
(g129
I13
tp907
atp908
a(g12
(dp909
g12
F1.0
s(lp910
(g12
I17
tp911
atp912
asS'es'
p913
(lp914
(S'el'
p915
(dp916
S'PRON'
p917
F1e-05
sS'DET'
p918
F0.99999
s(lp919
(g22
I0
tp920
atp921
a(S'mundo'
p922
(dp923
S'NOUN'
p924
F1.0
s(lp925
(g31
I1
tp926
atp927
a(S'entonces'
p928
(dp929
S'ADV'
p930
F1.0
s(lp931
(g7
I2
tp932
atp933
a(S'no'
p934
(dp935
S'ADV'
p936
F1.0
sg292
F0.0
s(lp937
(g58
I4
tp938
atp939
a(S'lo'
p940
(dp941
S'PRON'
p942
F0.999999
sS'DET'
p943
F1e-06
s(lp944
(g14
I3
tp945
atp946
a(S'olvidar\xc3\xa1'
p947
(dp948
S'VERB'
p949
F1.0
s(lp950
(g50
I5
tp951
atp952
a(g10
(dp953
g12
F1.0
s(lp954
(g10
I6
tp955
atp956
a(S'pero'
p957
(dp958
S'CONJ'
p959
F0.99991
sS'NOUN'
p960
F9e-05
s(lp961
(g65
I7
tp962
atp963
a(S'las'
p964
(dp965
S'PRON'
p966
F1.9e-05
sS'DET'
p967
F0.999981
s(lp968
tp969
a(S'simples'
p970
(dp971
S'ADJ'
p972
F1.0
s(lp973
(g72
I8
tp974
atp975
a(S'palabras'
p976
(dp977
S'NOUN'
p978
F1.0
s(lp979
(g86
I9
tp980
atp981
a(S'tendr\xc3\xa1n'
p982
(dp983
S'VERB'
p984
F1.0
s(lp985
(g100
I10
tp986
atp987
a(S'poco'
p988
(dp989
S'ADV'
p990
F0.087201
sS'ADJ'
p991
F0.912799
s(lp992
(g115
I12
tp993
atp994
a(S'efecto'
p995
(dp996
S'NOUN'
p997
F1.0
s(lp998
(g129
I13
tp999
atp1000
a(g10
(dp1001
g12
F1.0
s(lp1002
(g10
I14
tp1003
atp1004
a(S'se\xc3\xb1ora'
p1005
(dp1006
S'NOUN'
p1007
F1.0
s(lp1008
(g147
I15
tp1009
atp1010
a(S'presidenta'
p1011
(dp1012
S'NOUN'
p1013
F1.0
s(lp1014
(g154
I16
tp1015
atp1016
a(g12
(dp1017
g12
F1.0
s(lp1018
(g12
I17
tp1019
atp1020
as.