(dp0
S'fr'
p1
(lp2
(S'la'
p3
(dp4
S'PRON'
p5
F8.2e-05
sS'DET'
p6
F0.999918
sS'NOUN'
p7
F0.0
s(lp8
(S'the'
p9
I1
tp10
atp11
a(S'commission'
p12
(dp13
S'NOUN'
p14
F1.0
s(lp15
(S'commission'
p16
I2
tp17
atp18
a(S'a-t-elle'
p19
(dp20
S'VERB'
p21
F1.0
s(lp22
tp23
a(S'connaissance'
p24
(dp25
S'NOUN'
p26
F1.0
s(lp27
(S'aware'
p28
I3
tp29
atp30
a(S'de'
p31
(dp32
S'ADP'
p33
F1.0
s(lp34
(S'of'
p35
I4
tp36
atp37
a(S"l'"
p38
(dp39
S'ADJ'
p40
F0.160704
sS'VERB'
p41
F0.06480800000000002
sS'NOUN'
p42
F0.774488
s(lp43
(S'the'
p44
I5
tp45
atp46
a(S'\xc3\xa9tude'
p47
(dp48
S'NOUN'
p49
F1.0
s(lp50
(S'study'
p51
I6
tp52
atp53
a(S'de'
p54
(dp55
S'ADP'
p56
F1.0
s(lp57
(S'by'
p58
I7
tp59
atp60
a(S"l'"
p61
(dp62
S'ADJ'
p63
F0.160704
sS'VERB'
p64
F0.06480800000000002
sS'NOUN'
p65
F0.774488
s(lp66
(S'the'
p67
I8
tp68
atp69
a(S'office'
p70
(dp71
S'NOUN'
p72
F1.0
s(lp73
tp74
a(S'f\xc3\xa9d\xc3\xa9ral'
p75
(dp76
S'ADJ'
p77
F1.0
s(lp78
(S'federal'
p79
I10
tp80
atp81
a(S'allemand'
p82
(dp83
S'ADJ'
p84
F0.296079
sS'NOUN'
p85
F0.703921
s(lp86
(S'german'
p87
I9
tp88
atp89
a(S'pour'
p90
(dp91
S'CONJ'
p92
F0.353023
sS'ADP'
p93
F0.646977
s(lp94
(S'agency'
p95
I12
tp96
atp97
a(S"l'"
p98
(dp99
S'ADJ'
p100
F0.124462
sS'VERB'
p101
F0.35667600000000005
sS'NOUN'
p102
F0.518864
s(lp103
tp104
a(S'environnement'
p105
(dp106
S'NOUN'
p107
F1.0
s(lp108
(S'environment'
p109
I11
tp110
atp111
a(S'('
p112
(dp113
S'.'
p114
F1.0
s(lp115
(S'energy-saving'
p116
I17
tp117
atp118
a(S'bundesumweltamt'
p119
(dp120
S'VERB'
p121
F0.001086
sS'NOUN'
p122
F0.998914
s(lp123
(S'bulbs'
p124
I19
tp125
atp126
a(S')'
p127
(dp128
g114
F1.0
s(lp129
(g124
I19
tp130
atp131
a(S'selon'
p132
(dp133
S'ADP'
p134
F1.0
s(lp135
(S'according'
p136
I14
tp137
atp138
a(S'laquelle'
p139
(dp140
S'PRON'
p141
F1.0
s(lp142
(S'which'
p143
I16
tp144
atp145
a(S'les'
p146
(dp147
S'PRON'
p148
F0.00163
sS'DET'
p149
F0.998365
sS'ADP'
p150
F5e-06
s(lp151
(S'the'
p152
I29
tp153
atp154
a(S'ampoules'
p155
(dp156
S'NOUN'
p157
F1.0
s(lp158
(g124
I19
tp159
atp160
a(S'basse'
p161
(dp162
S'NOUN'
p163
F0.000477
sS'ADJ'
p164
F0.999523
s(lp165
tp166
a(S'consommation'
p167
(dp168
S'NOUN'
p169
F1.0
s(lp170
(g124
I19
tp171
atp172
a(S'repr\xc3\xa9sentent'
p173
(dp174
S'VERB'
p175
F1.0
s(lp176
(S'pose'
p177
I20
tp178
atp179
a(S','
p180
(dp181
g114
F1.0
s(lp182
(g180
I13
tp183
atp184
a(S'du'
p185
(dp186
S'ADP'
p187
F1.0
s(lp188
(S'of'
p189
I23
tp190
atp191
a(S'fait'
p192
(dp193
S'ADJ'
p194
F0.010218
sS'VERB'
p195
F0.033545000000000005
sS'NOUN'
p196
F0.956237
s(lp197
(S'causing'
p198
I24
tp199
atp200
a(S'de'
p201
(dp202
S'ADP'
p203
F1.0
s(lp204
tp205
a(S'leur'
p206
(dp207
S'PRON'
p208
F1.0
s(lp209
(S'them'
p210
I33
tp211
atp212
a(S'teneur'
p213
(dp214
S'NOUN'
p215
F1.0
s(lp216
(S'contained'
p217
I31
tp218
atp219
a(S'en'
p220
(dp221
S'PRON'
p222
F0.000406
sS'ADP'
p223
F0.999594
s(lp224
(S'in'
p225
I32
tp226
atp227
a(S'mercure'
p228
(dp229
S'NOUN'
p230
F1.0
s(lp231
(S'mercury'
p232
I30
tp233
atp234
a(g180
(dp235
g114
F1.0
s(lp236
(g180
I34
tp237
atp238
a(S'un'
p239
(dp240
S'NOUN'
p241
F6e-05
sS'NUM'
p242
F0.025531
sS'DET'
p243
F0.974409
s(lp244
(S'a'
p245
I21
tp246
atp247
a(S'danger'
p248
(dp249
S'NOUN'
p250
F1.0
s(lp251
(S'risk'
p252
I22
tp253
atp254
a(S"d'"
p255
(dp256
S'NOUN'
p257
F0.032441
sS'VERB'
p258
F0.694014
sS'ADJ'
p259
F0.273544
s(lp260
(S'of'
p261
I28
tp262
atp263
a(S'intoxication'
p264
(dp265
S'NOUN'
p266
F1.0
s(lp267
(S'poisoning'
p268
I25
tp269
atp270
a(S"lorsqu'"
p271
(dp272
S'NOUN'
p273
F0.024969
sS'VERB'
p274
F0.27500100000000005
sS'ADJ'
p275
F0.700029
s(lp276
(S'if'
p277
I35
tp278
atp279
a(S'elles'
p280
(dp281
S'PRON'
p282
F1.0
s(lp283
(S'they'
p284
I36
tp285
atp286
a(S'se'
p287
(dp288
S'PRON'
p289
F1.0
s(lp290
tp291
a(S'cassent'
p292
(dp293
S'VERB'
p294
F1.0
s(lp295
(S'break'
p296
I37
tp297
atp298
a(S'dans'
p299
(dp300
S'NOUN'
p301
F3.3e-05
sS'ADP'
p302
F0.999967
s(lp303
(S'in'
p304
I38
tp305
atp306
a(S'un'
p307
(dp308
S'NOUN'
p309
F7.4e-05
sS'NUM'
p310
F0.028682
sS'DET'
p311
F0.971243
s(lp312
(S'the'
p313
I39
tp314
atp315
a(S'contexte'
p316
(dp317
S'NOUN'
p318
F1.0
s(lp319
(S'environment'
p320
I41
tp321
atp322
a(S'domestique'
p323
(dp324
S'NOUN'
p325
F0.007379
sS'VERB'
p326
F0.002089
sS'ADJ'
p327
F0.990531
s(lp328
(S'domestic'
p329
I40
tp330
atp331
a(S'?'
p332
(dp333
g114
F1.0
s(lp334
(g332
I42
tp335
atp336
asS'en'
p337
(lp338
(S'is'
p339
(dp340
S'VERB'
p341
F1.0
s(lp342
(g339
I0
tp343
atp344
a(g9
(dp345
S'NOUN'
p346
F1e-06
sS'DET'
p347
F0.999999
s(lp348
(g9
I1
tp349
atp350
a(g16
(dp351
S'VERB'
p352
F0.000221
sS'NOUN'
p353
F0.999779
s(lp354
(g16
I2
tp355
atp356
a(g28
(dp357
S'ADJ'
p358
F1.0
s(lp359
(g28
I3
tp360
atp361
a(g35
(dp362
S'ADP'
p363
F1.0
s(lp364
(g35
I4
tp365
atp366
a(g44
(dp367
S'NOUN'
p368
F2e-06
sS'DET'
p369
F0.999998
s(lp370
(g44
I5
tp371
atp372
a(g51
(dp373
S'VERB'
p374
F0.000486
sS'NOUN'
p375
F0.999514
s(lp376
(g51
I6
tp377
atp378
a(g58
(dp379
S'ADV'
p380
F7.2e-05
sS'NOUN'
p381
F0.0
sS'ADP'
p382
F0.999928
s(lp383
(g58
I7
tp384
atp385
a(g67
(dp386
S'NOUN'
p387
F1e-06
sS'DET'
p388
F0.999999
s(lp389
(g67
I8
tp390
atp391
a(g87
(dp392
S'NOUN'
p393
F0.059498
sS'ADJ'
p394
F0.940502
s(lp395
(g87
I9
tp396
atp397
a(g79
(dp398
S'NOUN'
p399
F0.000323
sS'ADJ'
p400
F0.999677
s(lp401
(g79
I10
tp402
atp403
a(g109
(dp404
S'NOUN'
p405
F1.0
s(lp406
(g109
I11
tp407
atp408
a(g95
(dp409
S'NOUN'
p410
F1.0
s(lp411
(g95
I12
tp412
atp413
a(g180
(dp414
g114
F1.0
s(lp415
(g180
I13
tp416
atp417
a(g136
(dp418
S'VERB'
p419
F0.999951
sS'ADJ'
p420
F4.9e-05
s(lp421
(g136
I14
tp422
atp423
a(S'to'
p424
(dp425
S'ADV'
p426
F0.0
sS'PRT'
p427
F0.999985
sS'ADP'
p428
F1.5e-05
s(lp429
(g424
I15
tp430
atp431
a(g143
(dp432
S'DET'
p433
F1.0
s(lp434
(g143
I16
tp435
atp436
a(g116
(dp437
S'NOUN'
p438
F0.442692
sS'VERB'
p439
F0.001172
sS'ADJ'
p440
F0.556136
s(lp441
(g116
I17
tp442
atp443
a(S'light'
p444
(dp445
S'ADV'
p446
F6.1e-05
sS'ADJ'
p447
F0.475703
sS'VERB'
p448
F0.000332
sS'NOUN'
p449
F0.523904
s(lp450
(g444
I18
tp451
atp452
a(g124
(dp453
S'NOUN'
p454
F1.0
s(lp455
(g124
I19
tp456
atp457
a(g177
(dp458
S'VERB'
p459
F0.998864
sS'NOUN'
p460
F0.001136
s(lp461
(g177
I20
tp462
atp463
a(g245
(dp464
S'NOUN'
p465
F0.0
sS'DET'
p466
F1.0
s(lp467
(g245
I21
tp468
atp469
a(g252
(dp470
S'VERB'
p471
F0.000352
sS'NOUN'
p472
F0.999648
s(lp473
(g252
I22
tp474
atp475
a(g189
(dp476
S'ADP'
p477
F1.0
s(lp478
(g189
I23
tp479
atp480
a(g198
(dp481
S'VERB'
p482
F1.0
s(lp483
(g198
I24
tp484
atp485
a(g268
(dp486
S'VERB'
p487
F0.019229
sS'NOUN'
p488
F0.980771
s(lp489
(g268
I25
tp490
atp491
a(g180
(dp492
g114
F1.0
s(lp493
(g180
I26
tp494
atp495
a(S'because'
p496
(dp497
S'ADV'
p498
F0.111949
sS'ADP'
p499
F0.888051
s(lp500
(g496
I27
tp501
atp502
a(g261
(dp503
S'ADP'
p504
F1.0
s(lp505
(g261
I28
tp506
atp507
a(g152
(dp508
S'NOUN'
p509
F1e-06
sS'DET'
p510
F0.999999
s(lp511
(g152
I29
tp512
atp513
a(g232
(dp514
S'NOUN'
p515
F1.0
s(lp516
(g232
I30
tp517
atp518
a(g217
(dp519
S'VERB'
p520
F1.0
s(lp521
(g217
I31
tp522
atp523
a(g225
(dp524
S'ADV'
p525
F0.002291
sS'PRT'
p526
F7e-06
sS'ADP'
p527
F0.997702
s(lp528
(g225
I32
tp529
atp530
a(g210
(dp531
S'PRON'
p532
F1.0
s(lp533
(g210
I33
tp534
atp535
a(g180
(dp536
g114
F1.0
s(lp537
(g180
I34
tp538
atp539
a(g277
(dp540
S'ADP'
p541
F1.0
s(lp542
(g277
I35
tp543
atp544
a(g284
(dp545
S'PRON'
p546
F1.0
s(lp547
(g284
I36
tp548
atp549
a(g296
(dp550
S'VERB'
p551
F0.9997210000000001
sS'NOUN'
p552
F0.000279
s(lp553
(g296
I37
tp554
atp555
a(g304
(dp556
S'ADV'
p557
F0.00361
sS'PRT'
p558
F0.010364
sS'ADP'
p559
F0.986026
s(lp560
(g304
I38
tp561
atp562
a(g313
(dp563
S'NOUN'
p564
F1e-06
sS'DET'
p565
F0.999999
s(lp566
(g313
I39
tp567
atp568
a(g329
(dp569
S'NOUN'
p570
F0.002375
sS'ADJ'
p571
F0.997625
s(lp572
(g329
I40
tp573
atp574
a(g320
(dp575
S'NOUN'
p576
F1.0
s(lp577
(g320
I41
tp578
atp579
a(g332
(dp580
g114
F1.0
s(lp581
(g332
I42
tp582
atp583
asS'nl'
p584
(lp585
(S'is'
p586
(dp587
S'VERB'
p588
F1.0
s(lp589
(g339
I0
tp590
atp591
a(S'de'
p592
(dp593
S'DET'
p594
F1.0
s(lp595
(g9
I1
tp596
atp597
a(S'commissie'
p598
(dp599
S'NOUN'
p600
F1.0
s(lp601
(g16
I2
tp602
atp603
a(S'bekend'
p604
(dp605
S'VERB'
p606
F0.999769
sS'ADJ'
p607
F0.000231
s(lp608
(g28
I3
tp609
atp610
a(S'met'
p611
(dp612
S'ADP'
p613
F1.0
s(lp614
(g35
I4
tp615
atp616
a(S'de'
p617
(dp618
S'DET'
p619
F1.0
s(lp620
(g44
I5
tp621
atp622
a(S'studie'
p623
(dp624
S'NOUN'
p625
F1.0
s(lp626
(g51
I6
tp627
atp628
a(S'van'
p629
(dp630
S'ADP'
p631
F1.0
s(lp632
(g58
I7
tp633
atp634
a(S'het'
p635
(dp636
S'PRON'
p637
F0.005254999999999999
sS'DET'
p638
F0.994745
s(lp639
(g67
I8
tp640
atp641
a(S'duitse'
p642
(dp643
S'NOUN'
p644
F0.115344
sS'ADJ'
p645
F0.884656
s(lp646
(g87
I9
tp647
atp648
a(S'ministerie'
p649
(dp650
S'NOUN'
p651
F1.0
s(lp652
(g79
I10
tp653
atp654
a(S'voor'
p655
(dp656
S'ADV'
p657
F0.001032
sS'CONJ'
p658
F1e-06
sS'NOUN'
p659
F0.0
sS'ADP'
p660
F0.998967
s(lp661
tp662
a(S'milieu'
p663
(dp664
S'NOUN'
p665
F1.0
s(lp666
(g109
I11
tp667
atp668
a(g180
(dp669
g114
F1.0
s(lp670
(g180
I13
tp671
atp672
a(S'volgens'
p673
(dp674
S'ADP'
p675
F1.0
s(lp676
(g136
I14
tp677
atp678
a(S'welke'
p679
(dp680
S'PRON'
p681
F0.999999
s(lp682
(g143
I16
tp683
atp684
a(S'energiebesparende'
p685
(dp686
S'NOUN'
p687
F0.000532
sS'ADJ'
p688
F0.999468
s(lp689
(g116
I17
tp690
atp691
a(S'lampen'
p692
(dp693
S'NOUN'
p694
F1.0
s(lp695
(g124
I19
tp696
atp697
a(S'vergiftigingsgevaren'
p698
(dp699
S'ADJ'
p700
F0.047775
sS'NOUN'
p701
F0.952226
s(lp702
(g124
I19
tp703
atp704
a(S'kunnen'
p705
(dp706
S'VERB'
p707
F0.999966
sS'NOUN'
p708
F3.4e-05
s(lp709
(g252
I22
tp710
atp711
a(S'veroorzaken'
p712
(dp713
S'VERB'
p714
F0.99927
sS'NOUN'
p715
F0.000729
s(lp716
(g198
I24
tp717
atp718
a(S'vanwege'
p719
(dp720
S'ADP'
p721
F1.0
s(lp722
(g496
I27
tp723
atp724
a(S'het'
p725
(dp726
S'PRON'
p727
F0.999954
sS'DET'
p728
F4.6e-05
s(lp729
(g152
I29
tp730
atp731
a(S'zich'
p732
(dp733
S'PRON'
p734
F1.0
s(lp735
(g177
I20
tp736
atp737
a(S'daarin'
p738
(dp739
S'ADV'
p740
F1.0
s(lp741
(g124
I19
tp742
atp743
a(S'bevindende'
p744
(dp745
S'VERB'
p746
F0.99846
sS'NOUN'
p747
F0.00154
s(lp748
(g268
I25
tp749
atp750
a(S'kwik'
p751
(dp752
S'NOUN'
p753
F1.0
s(lp754
(g232
I30
tp755
atp756
a(g180
(dp757
g114
F1.0
s(lp758
(g180
I26
tp759
atp760
a(S'gevaren'
p761
(dp762
S'VERB'
p763
F0.886042
sS'NOUN'
p764
F0.113958
s(lp765
(g124
I19
tp766
atp767
a(S'die'
p768
(dp769
S'PRON'
p770
F1.0
s(lp771
(g210
I33
tp772
atp773
a(S'optreden'
p774
(dp775
S'VERB'
p776
F0.301742
sS'NOUN'
p777
F0.698258
s(lp778
tp779
a(S'wanneer'
p780
(dp781
S'ADV'
p782
F0.05293
sS'CONJ'
p783
F0.94707
s(lp784
(g277
I35
tp785
atp786
a(S'deze'
p787
(dp788
S'PRON'
p789
F1.0
s(lp790
(g284
I36
tp791
atp792
a(S'lampen'
p793
(dp794
S'NOUN'
p795
F1.0
s(lp796
(g124
I19
tp797
atp798
a(S'in'
p799
(dp800
S'ADV'
p801
F0.003438
sS'VERB'
p802
F2e-06
sS'ADP'
p803
F0.99656
s(lp804
(g304
I38
tp805
atp806
a(S'de'
p807
(dp808
S'DET'
p809
F1.0
s(lp810
(g313
I39
tp811
atp812
a(S'huiselijke'
p813
(dp814
S'NOUN'
p815
F0.006177
sS'ADJ'
p816
F0.993823
s(lp817
(g329
I40
tp818
atp819
a(S'omgeving'
p820
(dp821
S'NOUN'
p822
F1.0
s(lp823
(g320
I41
tp824
atp825
a(S'breken'
p826
(dp827
S'VERB'
p828
F0.998533
sS'NOUN'
p829
F0.001467
s(lp830
(g296
I37
tp831
atp832
a(g332
(dp833
g114
F1.0
s(lp834
(g332
I42
tp835
atp836
asS'de'
p837
(lp838
(S'ist'
p839
(dp840
S'VERB'
p841
F1.0
s(lp842
(g339
I0
tp843
atp844
a(S'der'
p845
(dp846
S'PRON'
p847
F0.000516
sS'DET'
p848
F0.999483
s(lp849
(g9
I1
tp850
atp851
a(S'kommission'
p852
(dp853
S'ADJ'
p854
F0.013379
sS'NOUN'
p855
F0.975053
s(lp856
(g16
I2
tp857
atp858
a(S'die'
p859
(dp860
S'PRON'
p861
F6.9e-05
sS'DET'
p862
F0.999867
s(lp863
(g44
I5
tp864
atp865
a(S'studie'
p866
(dp867
S'ADJ'
p868
F9.3e-05
sS'NOUN'
p869
F0.999846
s(lp870
(g51
I6
tp871
atp872
a(S'des'
p873
(dp874
S'DET'
p875
F1.0
s(lp876
(g67
I8
tp877
atp878
a(S'deutschen'
p879
(dp880
S'ADJ'
p881
F1.0
s(lp882
(g87
I9
tp883
atp884
a(S'bundesumweltamtes'
p885
(dp886
S'ADJ'
p887
F0.036967
sS'NOUN'
p888
F0.960164
s(lp889
(g79
I10
tp890
atp891
a(S'bekannt'
p892
(dp893
S'VERB'
p894
F0.510561
sS'ADJ'
p895
F0.415792
s(lp896
(g28
I3
tp897
atp898
a(g180
(dp899
g114
F1.0
s(lp900
(g180
I13
tp901
atp902
a(S'nach'
p903
(dp904
S'ADV'
p905
F0.013245
sS'ADP'
p906
F0.986684
s(lp907
(g136
I14
tp908
atp909
a(S'der'
p910
(dp911
S'PRON'
p912
F0.002186
sS'DET'
p913
F0.996317
s(lp914
(g143
I16
tp915
atp916
a(S'von'
p917
(dp918
S'NOUN'
p919
F0.02242
sS'ADP'
p920
F0.97758
s(lp921
(g189
I23
tp922
atp923
a(S'energiesparlampen'
p924
(dp925
S'ADJ'
p926
F0.070704
sS'NOUN'
p927
F0.901378
s(lp928
tp929
a(S'wegen'
p930
(dp931
S'ADP'
p932
F0.990468
s(lp933
(g496
I27
tp934
atp935
a(S'des'
p936
(dp937
S'DET'
p938
F1.0
s(lp939
(g152
I29
tp940
atp941
a(S'in'
p942
(dp943
S'ADP'
p944
F1.0
s(lp945
(g225
I32
tp946
atp947
a(S'ihnen'
p948
(dp949
S'PRON'
p950
F1.0
s(lp951
(g210
I33
tp952
atp953
a(S'enthaltenen'
p954
(dp955
S'ADJ'
p956
F1.0
s(lp957
(g217
I31
tp958
atp959
a(S'quecksilbers'
p960
(dp961
S'NOUN'
p962
F0.015396
sS'ADJ'
p963
F0.984004
s(lp964
(g232
I30
tp965
atp966
a(S'vergiftungsgefahren'
p967
(dp968
S'ADJ'
p969
F0.005046
sS'NOUN'
p970
F0.992191
s(lp971
(g124
I19
tp972
atp973
a(S'ausgehen'
p974
(dp975
S'VERB'
p976
F1.0
s(lp977
(g177
I20
tp978
atp979
a(g180
(dp980
g114
F1.0
s(lp981
(g180
I34
tp982
atp983
a(S'wenn'
p984
(dp985
S'CONJ'
p986
F1.0
s(lp987
(g277
I35
tp988
atp989
a(S'sie'
p990
(dp991
S'PRON'
p992
F1.0
s(lp993
(g284
I36
tp994
atp995
a(S'im'
p996
(dp997
S'ADP'
p998
F1.0
s(lp999
(g304
I38
tp1000
atp1001
a(S'h\xc3\xa4uslichen'
p1002
(dp1003
S'ADJ'
p1004
F1.0
s(lp1005
(g329
I40
tp1006
atp1007
a(S'umfeld'
p1008
(dp1009
S'ADJ'
p1010
F1.7e-05
sS'NOUN'
p1011
F0.999969
s(lp1012
(g320
I41
tp1013
atp1014
a(S'zerbrechen'
p1015
(dp1016
S'VERB'
p1017
F1.0
s(lp1018
(g296
I37
tp1019
atp1020
a(g332
(dp1021
g114
F1.0
s(lp1022
(g332
I42
tp1023
atp1024
asS'it'
p1025
(lp1026
(S'la'
p1027
(dp1028
S'PRON'
p1029
F0.000408
sS'DET'
p1030
F0.999592
s(lp1031
(g9
I1
tp1032
atp1033
a(S'commissione'
p1034
(dp1035
S'NOUN'
p1036
F1.0
s(lp1037
(g16
I2
tp1038
atp1039
a(S'\xc3\xa8'
p1040
(dp1041
S'VERB'
p1042
F1.0
s(lp1043
(g339
I0
tp1044
atp1045
a(g245
(dp1046
S'CONJ'
p1047
F8.4e-05
sS'ADP'
p1048
F0.999916
s(lp1049
tp1050
a(S'conoscenza'
p1051
(dp1052
S'NOUN'
p1053
F1.0
s(lp1054
(g28
I3
tp1055
atp1056
a(S'dello'
p1057
(dp1058
S'DEF'
p1059
F0.000111
sS'ADP'
p1060
F0.999889
s(lp1061
(g35
I4
tp1062
atp1063
a(S'studio'
p1064
(dp1065
S'VERB'
p1066
F0.001089
sS'NOUN'
p1067
F0.998911
s(lp1068
tp1069
a(S'realizzato'
p1070
(dp1071
S'VERB'
p1072
F1.0
s(lp1073
(g51
I6
tp1074
atp1075
a(S"dall'"
p1076
(dp1077
S'ADJ'
p1078
F0.00253
sS'NOUN'
p1079
F0.99747
s(lp1080
(g58
I7
tp1081
atp1082
a(S'agenzia'
p1083
(dp1084
S'NOUN'
p1085
F1.0
s(lp1086
tp1087
a(S'federale'
p1088
(dp1089
S'NOUN'
p1090
F0.0107
sS'ADJ'
p1091
F0.9893
s(lp1092
(g79
I10
tp1093
atp1094
a(S'per'
p1095
(dp1096
S'CONJ'
p1097
F0.065474
sS'ADP'
p1098
F0.934526
s(lp1099
(g95
I12
tp1100
atp1101
a(S"l'"
p1102
(dp1103
S'NOUN'
p1104
F0.009695
sS'VERB'
p1105
F0.966644
sS'ADJ'
p1106
F0.023663
s(lp1107
(g67
I8
tp1108
atp1109
a(S'ambiente'
p1110
(dp1111
S'NOUN'
p1112
F1.0
s(lp1113
(g109
I11
tp1114
atp1115
a(S'tedesca'
p1116
(dp1117
S'NOUN'
p1118
F0.002998
sS'ADJ'
p1119
F0.997002
s(lp1120
(g87
I9
tp1121
atp1122
a(g112
(dp1123
g114
F1.0
s(lp1124
(g124
I19
tp1125
atp1126
a(S'bundesumweltamt'
p1127
(dp1128
S'NOUN'
p1129
F1.0
s(lp1130
(g124
I19
tp1131
atp1132
a(g127
(dp1133
g114
F1.0
s(lp1134
(g124
I19
tp1135
atp1136
a(g180
(dp1137
g114
F1.0
s(lp1138
(g180
I13
tp1139
atp1140
a(S'secondo'
p1141
(dp1142
S'ADV'
p1143
F0.049915
sS'NOUN'
p1144
F0.000153
sS'VERB'
p1145
F0.00278
sS'ADJ'
p1146
F0.08888
sS'ADP'
p1147
F0.858272
s(lp1148
(g136
I14
tp1149
atp1150
a(S'il'
p1151
(dp1152
S'DET'
p1153
F1.0
s(lp1154
(g424
I15
tp1155
atp1156
a(S'quale'
p1157
(dp1158
S'PRON'
p1159
F0.992721
sS'ADJ'
p1160
F0.007278
s(lp1161
(g143
I16
tp1162
atp1163
a(S'le'
p1164
(dp1165
S'PRON'
p1166
F0.000372
sS'DET'
p1167
F0.999628
s(lp1168
tp1169
a(S'lampadine'
p1170
(dp1171
S'NOUN'
p1172
F1.0
s(lp1173
(g124
I19
tp1174
atp1175
a(g245
(dp1176
S'CONJ'
p1177
F0.001526
sS'ADP'
p1178
F0.998474
s(lp1179
(g116
I17
tp1180
atp1181
a(S'basso'
p1182
(dp1183
S'ADV'
p1184
F0.033804
sS'NOUN'
p1185
F0.034637
sS'ADJ'
p1186
F0.931559
s(lp1187
(g116
I17
tp1188
atp1189
a(S'consumo'
p1190
(dp1191
S'VERB'
p1192
F0.006145
sS'NOUN'
p1193
F0.993855
s(lp1194
tp1195
a(S'energetico'
p1196
(dp1197
S'ADJ'
p1198
F1.0
s(lp1199
(g116
I17
tp1200
atp1201
a(S'comportano'
p1202
(dp1203
S'VERB'
p1204
F1.0
s(lp1205
(g177
I20
tp1206
atp1207
a(g180
(dp1208
g114
F1.0
s(lp1209
(g180
I26
tp1210
atp1211
a(g245
(dp1212
S'CONJ'
p1213
F0.00054
sS'ADP'
p1214
F0.99946
s(lp1215
(g225
I32
tp1216
atp1217
a(S'causa'
p1218
(dp1219
S'VERB'
p1220
F0.004191
sS'NOUN'
p1221
F0.995809
s(lp1222
(g496
I27
tp1223
atp1224
a(S'del'
p1225
(dp1226
S'DEF'
p1227
F0.000302
sS'ADP'
p1228
F0.999698
s(lp1229
(g261
I28
tp1230
atp1231
a(S'loro'
p1232
(dp1233
S'PRON'
p1234
F1.0
s(lp1235
(g210
I33
tp1236
atp1237
a(S'contenuto'
p1238
(dp1239
S'ADJ'
p1240
F0.172389
sS'VERB'
p1241
F0.018279
sS'NOUN'
p1242
F0.809333
s(lp1243
(g217
I31
tp1244
atp1245
a(S'di'
p1246
(dp1247
S'CONJ'
p1248
F4e-06
sS'ADP'
p1249
F0.999996
s(lp1250
(g245
I21
tp1251
atp1252
a(S'mercurio'
p1253
(dp1254
S'NOUN'
p1255
F1.0
s(lp1256
(g232
I30
tp1257
atp1258
a(g180
(dp1259
g114
F1.0
s(lp1260
(g180
I34
tp1261
atp1262
a(S'rischi'
p1263
(dp1264
S'VERB'
p1265
F0.045621
sS'NOUN'
p1266
F0.95438
s(lp1267
(g252
I22
tp1268
atp1269
a(S'di'
p1270
(dp1271
S'CONJ'
p1272
F4e-06
sS'ADP'
p1273
F0.999996
s(lp1274
(g189
I23
tp1275
atp1276
a(S'intossicazione'
p1277
(dp1278
S'NOUN'
p1279
F1.0
s(lp1280
(g268
I25
tp1281
atp1282
a(S'in'
p1283
(dp1284
S'ADP'
p1285
F1.0
s(lp1286
tp1287
a(S'caso'
p1288
(dp1289
S'NOUN'
p1290
F1.0
s(lp1291
(g277
I35
tp1292
atp1293
a(S'di'
p1294
(dp1295
S'CONJ'
p1296
F4e-06
sS'ADP'
p1297
F0.999996
s(lp1298
tp1299
a(S'rottura'
p1300
(dp1301
S'NOUN'
p1302
F1.0
s(lp1303
tp1304
a(S'accidentale'
p1305
(dp1306
S'ADJ'
p1307
F1.0
s(lp1308
(g296
I37
tp1309
atp1310
a(S"nell'"
p1311
(dp1312
S'ADJ'
p1313
F0.000775
sS'VERB'
p1314
F0.00011
sS'NOUN'
p1315
F0.999116
s(lp1316
(g304
I38
tp1317
atp1318
a(S'ambiente'
p1319
(dp1320
S'NOUN'
p1321
F1.0
s(lp1322
(g320
I41
tp1323
atp1324
a(S'domestico'
p1325
(dp1326
S'NOUN'
p1327
F0.003899
sS'ADJ'
p1328
F0.996101
s(lp1329
(g329
I40
tp1330
atp1331
a(g332
(dp1332
g114
F1.0
s(lp1333
(g332
I42
tp1334
atp1335
asS'sk'
p1336
(lp1337
(S'je'
p1338
(dp1339
S'X'
p1340
F0.000377
sS'VERB'
p1341
F0.999384
sS'PRON'
p1342
F0.00024
s(lp1343
(g339
I0
tp1344
atp1345
a(S'komisii'
p1346
(dp1347
S'NOUN'
p1348
F1.0
s(lp1349
(g16
I2
tp1350
atp1351
a(S'zn\xc3\xa1ma'
p1352
(dp1353
S'NOUN'
p1354
F0.001421
sS'ADJ'
p1355
F0.998579
s(lp1356
(g28
I3
tp1357
atp1358
a(S'\xc5\xa1t\xc3\xbadia'
p1359
(dp1360
S'NOUN'
p1361
F1.0
s(lp1362
(g51
I6
tp1363
atp1364
a(S'nemeck\xc3\xa9ho'
p1365
(dp1366
S'ADJ'
p1367
F1.0
s(lp1368
(g87
I9
tp1369
atp1370
a(S'spolkov\xc3\xa9ho'
p1371
(dp1372
S'ADJ'
p1373
F1.0
s(lp1374
(g79
I10
tp1375
atp1376
a(S'\xc3\xbaradu'
p1377
(dp1378
S'NOUN'
p1379
F1.0
s(lp1380
tp1381
a(S'pre'
p1382
(dp1383
g1340
F0.000106
sS'ADP'
p1384
F0.999894
s(lp1385
(g95
I12
tp1386
atp1387
a(S'\xc5\xbeivotn\xc3\xa9'
p1388
(dp1389
S'ADJ'
p1390
F1.0
s(lp1391
tp1392
a(S'prostredie'
p1393
(dp1394
S'NOUN'
p1395
F1.0
s(lp1396
(g109
I11
tp1397
atp1398
a(g180
(dp1399
g114
F1.0
s(lp1400
(g180
I13
tp1401
atp1402
a(S'pod\xc4\xbea'
p1403
(dp1404
S'ADP'
p1405
F1.0
s(lp1406
(g136
I14
tp1407
atp1408
a(S'ktorej'
p1409
(dp1410
S'PRON'
p1411
F1.0
s(lp1412
(g143
I16
tp1413
atp1414
a(S'hroz\xc3\xad'
p1415
(dp1416
S'VERB'
p1417
F1.0
s(lp1418
(g252
I22
tp1419
atp1420
a(S'z'
p1421
(dp1422
g1340
F0.021934000000000002
sS'NOUN'
p1423
F0.000333
sS'ADP'
p1424
F0.977733
s(lp1425
(g189
I23
tp1426
atp1427
a(S'energeticky'
p1428
(dp1429
S'ADV'
p1430
F1.0
s(lp1431
tp1432
a(S'\xc3\xbasporn\xc3\xbdch'
p1433
(dp1434
S'ADJ'
p1435
F1.0
s(lp1436
(g116
I17
tp1437
atp1438
a(S'\xc5\xbeiariviek'
p1439
(dp1440
S'NOUN'
p1441
F1.0
s(lp1442
tp1443
a(S'nebezpe\xc4\x8denstvo'
p1444
(dp1445
S'NOUN'
p1446
F1.0
s(lp1447
(g177
I20
tp1448
atp1449
a(S'otravy'
p1450
(dp1451
S'NOUN'
p1452
F1.0
s(lp1453
(g268
I25
tp1454
atp1455
a(S'ortu\xc5\xa5ou'
p1456
(dp1457
S'NOUN'
p1458
F1.0
s(lp1459
(g232
I30
tp1460
atp1461
a(g180
(dp1462
g114
F1.0
s(lp1463
(g180
I34
tp1464
atp1465
a(S'ak'
p1466
(dp1467
g1340
F0.00032
sS'CONJ'
p1468
F0.99968
s(lp1469
(g277
I35
tp1470
atp1471
a(S'sa'
p1472
(dp1473
S'PRT'
p1474
F0.999867
sS'ADP'
p1475
F7.9e-05
sg1340
F5.4e-05
s(lp1476
(g284
I36
tp1477
atp1478
a(S'tieto'
p1479
(dp1480
S'PRON'
p1481
F1.0
s(lp1482
(g296
I37
tp1483
atp1484
a(S'\xc5\xbeiarivky'
p1485
(dp1486
S'NOUN'
p1487
F1.0
s(lp1488
(g124
I19
tp1489
atp1490
a(S'v'
p1491
(dp1492
g1340
F4.399999999999999e-05
sS'ADP'
p1493
F0.999956
s(lp1494
(g304
I38
tp1495
atp1496
a(S'dom\xc3\xa1com'
p1497
(dp1498
S'NOUN'
p1499
F0.017023
sS'ADJ'
p1500
F0.982977
s(lp1501
(g329
I40
tp1502
atp1503
a(S'prostred\xc3\xad'
p1504
(dp1505
S'NOUN'
p1506
F1.0
s(lp1507
tp1508
a(S'rozbij\xc3\xba'
p1509
(dp1510
S'VERB'
p1511
F1.0
s(lp1512
(g320
I41
tp1513
atp1514
a(g332
(dp1515
g114
F1.0
s(lp1516
(g332
I42
tp1517
atp1518
asS'pl'
p1519
(lp1520
(S'czy'
p1521
(dp1522
S'PRT'
p1523
F0.398656
sS'CONJ'
p1524
F0.6012230000000001
sS'NUM'
p1525
F0.000118
sS'NOUN'
p1526
F3e-06
s(lp1527
(g339
I0
tp1528
atp1529
a(S'komisja'
p1530
(dp1531
S'NOUN'
p1532
F1.0
s(lp1533
(g16
I2
tp1534
atp1535
a(S'zna'
p1536
(dp1537
S'VERB'
p1538
F1.0
s(lp1539
(g28
I3
tp1540
atp1541
a(S'badanie'
p1542
(dp1543
S'VERB'
p1544
F0.16798000000000002
sS'NOUN'
p1545
F0.83202
s(lp1546
tp1547
a(S'przeprowadzone'
p1548
(dp1549
S'VERB'
p1550
F1.000001
s(lp1551
(g51
I6
tp1552
atp1553
a(S'przez'
p1554
(dp1555
S'ADP'
p1556
F1.0
s(lp1557
(g58
I7
tp1558
atp1559
a(S'niemiecki'
p1560
(dp1561
S'ADJ'
p1562
F0.21381999999999998
sS'NOUN'
p1563
F0.78618
s(lp1564
(g87
I9
tp1565
atp1566
a(S'federalny'
p1567
(dp1568
S'ADJ'
p1569
F1.0
s(lp1570
(g79
I10
tp1571
atp1572
a(S'urz\xc4\x85d'
p1573
(dp1574
S'NOUN'
p1575
F1.0
s(lp1576
(g95
I12
tp1577
atp1578
a(S'ochrony'
p1579
(dp1580
S'NOUN'
p1581
F1.0
s(lp1582
tp1583
a(S'\xc5\x9arodowiska'
p1584
(dp1585
S'NOUN'
p1586
F1.0
s(lp1587
(g109
I11
tp1588
atp1589
a(g180
(dp1590
g1340
F0.0
sg114
F1.0
s(lp1591
(g180
I13
tp1592
atp1593
a(S'wedle'
p1594
(dp1595
S'ADP'
p1596
F1.0
s(lp1597
(g136
I14
tp1598
atp1599
a(S'kt\xc3\xb3rego'
p1600
(dp1601
S'ADJ'
p1602
F0.9999999999999999
s(lp1603
(g143
I16
tp1604
atp1605
a(S'\xc5\xbcar\xc3\xb3wki'
p1606
(dp1607
S'NOUN'
p1608
F1.0
s(lp1609
tp1610
a(S'energooszcz\xc4\x99dne'
p1611
(dp1612
S'ADV'
p1613
F0.000439
sS'NOUN'
p1614
F0.020889999999999995
sS'ADJ'
p1615
F0.978671
s(lp1616
(g116
I17
tp1617
atp1618
a(g1421
(dp1619
S'PRT'
p1620
F5e-06
sS'VERB'
p1621
F0.0
sS'NOUN'
p1622
F1e-06
sS'ADP'
p1623
F0.999993
sg1340
F0.0
s(lp1624
(g261
I28
tp1625
atp1626
a(S'powodu'
p1627
(dp1628
S'NOUN'
p1629
F1.0
s(lp1630
(g496
I27
tp1631
atp1632
a(S'zawartej'
p1633
(dp1634
S'VERB'
p1635
F1.0
s(lp1636
(g217
I31
tp1637
atp1638
a(S'w'
p1639
(dp1640
g1340
F0.0
sS'ADJ'
p1641
F0.0
sS'ADP'
p1642
F1.0
sS'NOUN'
p1643
F0.0
s(lp1644
(g225
I32
tp1645
atp1646
a(S'nich'
p1647
(dp1648
S'PRON'
p1649
F0.9999990000000001
s(lp1650
(g210
I33
tp1651
atp1652
a(S'rt\xc4\x99ci'
p1653
(dp1654
S'NOUN'
p1655
F1.0
s(lp1656
(g232
I30
tp1657
atp1658
a(S'mog\xc4\x85'
p1659
(dp1660
S'VERB'
p1661
F1.0
s(lp1662
(g177
I20
tp1663
atp1664
a(S'wywo\xc5\x82a\xc4\x87'
p1665
(dp1666
S'VERB'
p1667
F1.0
s(lp1668
(g124
I19
tp1669
atp1670
a(S'ryzyko'
p1671
(dp1672
S'NOUN'
p1673
F1.0
s(lp1674
(g252
I22
tp1675
atp1676
a(S'zatrucia'
p1677
(dp1678
S'VERB'
p1679
F1.0
s(lp1680
(g268
I25
tp1681
atp1682
a(g1639
(dp1683
g1340
F0.0
sS'ADJ'
p1684
F0.0
sS'ADP'
p1685
F0.9999990000000001
sS'NOUN'
p1686
F0.0
s(lp1687
(g245
I21
tp1688
atp1689
a(S'przypadku'
p1690
(dp1691
S'NOUN'
p1692
F1.0
s(lp1693
(g277
I35
tp1694
atp1695
a(S'ich'
p1696
(dp1697
S'PRON'
p1698
F0.999998
sg1340
F2e-06
s(lp1699
(g284
I36
tp1700
atp1701
a(S'rozbicia'
p1702
(dp1703
S'VERB'
p1704
F1.0
s(lp1705
(g296
I37
tp1706
atp1707
a(S'si\xc4\x99'
p1708
(dp1709
S'PRT'
p1710
F1.0
s(lp1711
tp1712
a(g1639
(dp1713
S'ADJ'
p1714
F0.0
sg1340
F0.0
sS'NOUN'
p1715
F0.0
sS'ADP'
p1716
F1.0
s(lp1717
(g304
I38
tp1718
atp1719
a(S'warunkach'
p1720
(dp1721
S'NOUN'
p1722
F1.0
s(lp1723
(g320
I41
tp1724
atp1725
a(S'domowych'
p1726
(dp1727
S'ADJ'
p1728
F0.9999999999999999
s(lp1729
(g329
I40
tp1730
atp1731
a(g332
(dp1732
g114
F1.0
s(lp1733
(g332
I42
tp1734
atp1735
asS'sl'
p1736
(lp1737
(S'ali'
p1738
(dp1739
S'ADV'
p1740
F0.038866
sS'CONJ'
p1741
F0.961134
s(lp1742
(g339
I0
tp1743
atp1744
a(S'je'
p1745
(dp1746
S'PRON'
p1747
F0.003062
sS'VERB'
p1748
F0.996937
sg1340
F1e-06
s(lp1749
(g9
I1
tp1750
atp1751
a(S'komisija'
p1752
(dp1753
S'NOUN'
p1754
F1.0
s(lp1755
(g16
I2
tp1756
atp1757
a(S'seznanjena'
p1758
(dp1759
S'ADJ'
p1760
F1.0
s(lp1761
(g28
I3
tp1762
atp1763
a(S's'
p1764
(dp1765
S'VERB'
p1766
F0.060061
sS'NOUN'
p1767
F0.002623
sS'ADP'
p1768
F0.937316
s(lp1769
(g44
I5
tp1770
atp1771
a(S'\xc5\xa1tudijo'
p1772
(dp1773
S'NOUN'
p1774
F1.0
s(lp1775
(g51
I6
tp1776
atp1777
a(S'nem\xc5\xa1kega'
p1778
(dp1779
S'ADJ'
p1780
F1.0
s(lp1781
(g87
I9
tp1782
atp1783
a(S'zveznega'
p1784
(dp1785
S'ADJ'
p1786
F1.0
s(lp1787
tp1788
a(S'urada'
p1789
(dp1790
S'NOUN'
p1791
F1.0
s(lp1792
(g79
I10
tp1793
atp1794
a(S'za'
p1795
(dp1796
S'ADV'
p1797
F6e-06
sg1340
F1e-06
sS'ADP'
p1798
F0.9999930000000001
s(lp1799
(g95
I12
tp1800
atp1801
a(S'okolje'
p1802
(dp1803
S'NOUN'
p1804
F1.0
s(lp1805
(g109
I11
tp1806
atp1807
a(g180
(dp1808
g114
F1.0
s(lp1809
(g180
I13
tp1810
atp1811
a(S'ki'
p1812
(dp1813
S'CONJ'
p1814
F1.0
s(lp1815
(g143
I16
tp1816
atp1817
a(S'pravi'
p1818
(dp1819
S'VERB'
p1820
F0.900618
sS'ADJ'
p1821
F0.09938299999999999
s(lp1822
(g136
I14
tp1823
atp1824
a(g180
(dp1825
g114
F1.0
s(lp1826
tp1827
a(S'da'
p1828
(dp1829
S'PRT'
p1830
F0.000272
sS'CONJ'
p1831
F0.999225
sS'VERB'
p1832
F0.000501
sg1340
F2e-06
s(lp1833
(g424
I15
tp1834
atp1835
a(S'lahko'
p1836
(dp1837
S'ADV'
p1838
F0.999079
sS'ADJ'
p1839
F0.0009209999999999999
s(lp1840
(g252
I22
tp1841
atp1842
a(S'energijsko'
p1843
(dp1844
S'ADJ'
p1845
F1.0
s(lp1846
tp1847
a(S'var\xc4\x8dne'
p1848
(dp1849
S'ADV'
p1850
F1.5e-05
sS'NOUN'
p1851
F0.461834
sS'VERB'
p1852
F0.000284
sS'ADJ'
p1853
F0.537865
s(lp1854
(g116
I17
tp1855
atp1856
a(S'\xc5\xbearnice'
p1857
(dp1858
S'NOUN'
p1859
F1.0
s(lp1860
(g124
I19
tp1861
atp1862
a(S'zaradi'
p1863
(dp1864
S'ADP'
p1865
F1.0
s(lp1866
(g496
I27
tp1867
atp1868
a(S'\xc5\xbeivega'
p1869
(dp1870
S'ADJ'
p1871
F1.0
s(lp1872
tp1873
a(S'srebra'
p1874
(dp1875
S'ADV'
p1876
F1.5e-05
sS'NOUN'
p1877
F0.999837
sS'PRON'
p1878
F0.0
sS'VERB'
p1879
F5.899999999999999e-05
sg1340
F1e-06
sS'ADJ'
p1880
F8.8e-05
s(lp1881
(g232
I30
tp1882
atp1883
a(g180
(dp1884
g114
F1.0
s(lp1885
(g180
I26
tp1886
atp1887
a(S'ki'
p1888
(dp1889
S'CONJ'
p1890
F1.0
s(lp1891
(g217
I31
tp1892
atp1893
a(S'ga'
p1894
(dp1895
S'PRON'
p1896
F1.000001
s(lp1897
tp1898
a(S'vsebujejo'
p1899
(dp1900
S'VERB'
p1901
F1.0
s(lp1902
(g217
I31
tp1903
atp1904
a(g180
(dp1905
g114
F1.0
s(lp1906
tp1907
a(S'povzro\xc4\x8dijo'
p1908
(dp1909
S'VERB'
p1910
F1.0
s(lp1911
(g198
I24
tp1912
atp1913
a(S'zastrupitev'
p1914
(dp1915
S'ADJ'
p1916
F2.6e-05
sS'NOUN'
p1917
F0.9999739999999999
s(lp1918
(g268
I25
tp1919
atp1920
a(g180
(dp1921
g114
F1.0
s(lp1922
(g180
I34
tp1923
atp1924
a(S'\xc4\x8de'
p1925
(dp1926
S'CONJ'
p1927
F1.0
s(lp1928
(g277
I35
tp1929
atp1930
a(S'se'
p1931
(dp1932
S'PRON'
p1933
F0.999999
sg1340
F1e-06
s(lp1934
(g284
I36
tp1935
atp1936
a(S'razbijejo'
p1937
(dp1938
S'ADV'
p1939
F0.000269
sS'ADJ'
p1940
F6.699999999999999e-05
sS'VERB'
p1941
F0.9928790000000001
sS'NOUN'
p1942
F0.006786
s(lp1943
(g296
I37
tp1944
atp1945
a(g1491
(dp1946
S'ADP'
p1947
F1.0
s(lp1948
(g304
I38
tp1949
atp1950
a(S'doma\xc4\x8dem'
p1951
(dp1952
S'ADJ'
p1953
F1.0
s(lp1954
(g329
I40
tp1955
atp1956
a(S'okolju'
p1957
(dp1958
S'NOUN'
p1959
F1.0
s(lp1960
(g320
I41
tp1961
atp1962
a(g332
(dp1963
g114
F1.0
s(lp1964
(g332
I42
tp1965
atp1966
asS'es'
p1967
(lp1968
(S'\xc2\xbf'
p1969
(dp1970
S'PRON'
p1971
F0.925742
sg114
F0.074258
s(lp1972
(g339
I0
tp1973
atp1974
a(S'conoce'
p1975
(dp1976
S'VERB'
p1977
F1.0
s(lp1978
(g28
I3
tp1979
atp1980
a(S'la'
p1981
(dp1982
g1340
F0.0
sS'PRON'
p1983
F0.0
sS'DET'
p1984
F1.0
sS'NOUN'
p1985
F0.0
s(lp1986
(g9
I1
tp1987
atp1988
a(S'comisi\xc3\xb3n'
p1989
(dp1990
S'NOUN'
p1991
F1.0
s(lp1992
(g16
I2
tp1993
atp1994
a(S'el'
p1995
(dp1996
S'PRON'
p1997
F1.2e-05
sS'DET'
p1998
F0.999988
s(lp1999
(g44
I5
tp2000
atp2001
a(S'estudio'
p2002
(dp2003
S'NOUN'
p2004
F1.0
s(lp2005
tp2006
a(S'elaborado'
p2007
(dp2008
S'VERB'
p2009
F1.0
s(lp2010
(g51
I6
tp2011
atp2012
a(S'por'
p2013
(dp2014
S'ADP'
p2015
F1.0
s(lp2016
(g58
I7
tp2017
atp2018
a(S'la'
p2019
(dp2020
S'PRON'
p2021
F0.003189
sS'DET'
p2022
F0.996012
sS'NOUN'
p2023
F0.000154
sg1340
F0.000645
s(lp2024
(g67
I8
tp2025
atp2026
a(S'agencia'
p2027
(dp2028
S'VERB'
p2029
F1.0
s(lp2030
(g95
I12
tp2031
atp2032
a(S'federal'
p2033
(dp2034
S'ADJ'
p2035
F1.0
s(lp2036
tp2037
a(S'de'
p2038
(dp2039
g1340
F2.2e-05
sS'CONJ'
p2040
F0.001171
sS'ADP'
p2041
F0.998806
s(lp2042
tp2043
a(S'medio'
p2044
(dp2045
S'ADV'
p2046
F0.002611
sS'ADJ'
p2047
F0.42786900000000005
sS'NOUN'
p2048
F0.56952
s(lp2049
tp2050
a(S'ambiente'
p2051
(dp2052
S'NOUN'
p2053
F0.358401
sS'VERB'
p2054
F0.001814
sS'ADJ'
p2055
F0.639785
s(lp2056
(g109
I11
tp2057
atp2058
a(S'de'
p2059
(dp2060
g1340
F0.0
sS'CONJ'
p2061
F4.3e-05
sS'ADP'
p2062
F0.999957
s(lp2063
(g35
I4
tp2064
atp2065
a(S'la'
p2066
(dp2067
S'NOUN'
p2068
F4.9e-05
sS'PRON'
p2069
F1e-06
sS'DET'
p2070
F0.999947
sg1340
F4e-06
s(lp2071
tp2072
a(S'rfa'
p2073
(dp2074
S'ADJ'
p2075
F1.0
s(lp2076
(g79
I10
tp2077
atp2078
a(g180
(dp2079
g114
F1.0
s(lp2080
(g180
I13
tp2081
atp2082
a(S'de'
p2083
(dp2084
S'ADP'
p2085
F1.0
s(lp2086
(g136
I14
tp2087
atp2088
a(S'acuerdo'
p2089
(dp2090
S'ADP'
p2091
F1.0
s(lp2092
tp2093
a(S'con'
p2094
(dp2095
S'ADP'
p2096
F1.0
s(lp2097
(g136
I14
tp2098
atp2099
a(S'el'
p2100
(dp2101
S'PRON'
p2102
F1.8e-05
sS'DET'
p2103
F0.999982
s(lp2104
(g424
I15
tp2105
atp2106
a(S'cual'
p2107
(dp2108
S'CONJ'
p2109
F1.0
s(lp2110
(g143
I16
tp2111
atp2112
a(S'la'
p2113
(dp2114
S'NOUN'
p2115
F3.9e-05
sS'PRON'
p2116
F1e-06
sS'DET'
p2117
F0.999959
sg1340
F1e-06
s(lp2118
(g245
I21
tp2119
atp2120
a(S'utilizaci\xc3\xb3n'
p2121
(dp2122
S'NOUN'
p2123
F1.0
s(lp2124
tp2125
a(S'de'
p2126
(dp2127
g1340
F2.9e-05
sS'CONJ'
p2128
F0.000449
sS'ADP'
p2129
F0.999522
s(lp2130
(g189
I23
tp2131
atp2132
a(S'bombillas'
p2133
(dp2134
S'NOUN'
p2135
F1.0
s(lp2136
(g124
I19
tp2137
atp2138
a(S'de'
p2139
(dp2140
g1340
F0.002348
sS'CONJ'
p2141
F0.002327
sS'ADP'
p2142
F0.995325
s(lp2143
tp2144
a(S'bajo'
p2145
(dp2146
S'NOUN'
p2147
F0.155254
sS'VERB'
p2148
F0.002617
sS'ADJ'
p2149
F0.640449
sS'ADP'
p2150
F0.20168
s(lp2151
(g124
I19
tp2152
atp2153
a(S'consumo'
p2154
(dp2155
S'NOUN'
p2156
F1.0
s(lp2157
(g124
I19
tp2158
atp2159
a(S'puede'
p2160
(dp2161
S'VERB'
p2162
F1.0
s(lp2163
(g124
I19
tp2164
atp2165
a(S'resultar'
p2166
(dp2167
S'VERB'
p2168
F1.0
s(lp2169
tp2170
a(S'peligrosa'
p2171
(dp2172
S'ADJ'
p2173
F1.0
s(lp2174
(g268
I25
tp2175
atp2176
a(g180
(dp2177
g114
F1.0
s(lp2178
(g180
I26
tp2179
atp2180
a(S'debido'
p2181
(dp2182
S'ADP'
p2183
F1.0
s(lp2184
(g496
I27
tp2185
atp2186
a(g245
(dp2187
S'ADP'
p2188
F1.0
s(lp2189
(g261
I28
tp2190
atp2191
a(S'la'
p2192
(dp2193
S'NOUN'
p2194
F0.0
sS'PRON'
p2195
F0.0
sS'DET'
p2196
F0.999999
sg1340
F0.0
s(lp2197
(g152
I29
tp2198
atp2199
a(S'toxicidad'
p2200
(dp2201
S'NOUN'
p2202
F1.0
s(lp2203
tp2204
a(S'del'
p2205
(dp2206
S'ADP'
p2207
F1.0
s(lp2208
(g189
I23
tp2209
atp2210
a(S'mercurio'
p2211
(dp2212
S'NOUN'
p2213
F1.0
s(lp2214
(g232
I30
tp2215
atp2216
a(S'que'
p2217
(dp2218
g1340
F4e-06
sS'CONJ'
p2219
F0.999996
s(lp2220
(g217
I31
tp2221
atp2222
a(S'se'
p2223
(dp2224
S'PRON'
p2225
F1.0
sS'VERB'
p2226
F0.0
s(lp2227
tp2228
a(S'libera'
p2229
(dp2230
S'VERB'
p2231
F1.0
s(lp2232
(g116
I17
tp2233
atp2234
a(S'cuando'
p2235
(dp2236
S'CONJ'
p2237
F1.0
s(lp2238
(g277
I35
tp2239
atp2240
a(S'la'
p2241
(dp2242
S'PRON'
p2243
F0.000111
sS'DET'
p2244
F0.999888
sg1340
F0.0
sS'NOUN'
p2245
F0.0
s(lp2246
tp2247
a(S'bombilla'
p2248
(dp2249
S'NOUN'
p2250
F1.0
s(lp2251
(g124
I19
tp2252
atp2253
a(S'se'
p2254
(dp2255
S'PRON'
p2256
F1.0
sS'VERB'
p2257
F0.0
s(lp2258
(g284
I36
tp2259
atp2260
a(S'rompe'
p2261
(dp2262
S'VERB'
p2263
F1.0
s(lp2264
(g296
I37
tp2265
atp2266
a(S'en'
p2267
(dp2268
g1340
F0.0
sS'CONJ'
p2269
F1e-06
sS'ADP'
p2270
F0.999999
s(lp2271
(g304
I38
tp2272
atp2273
a(S'el'
p2274
(dp2275
S'PRON'
p2276
F5e-06
sS'DET'
p2277
F0.999995
s(lp2278
(g313
I39
tp2279
atp2280
a(S'hogar'
p2281
(dp2282
S'NOUN'
p2283
F1.0
s(lp2284
(g329
I40
tp2285
atp2286
a(g332
(dp2287
g114
F1.0
s(lp2288
(g332
I42
tp2289
atp2290
as.