(dp0
S'fr'
p1
(lp2
(S"j'"
p3
(dp4
S'ADJ'
p5
F0.10952
sS'X'
p6
F0.13611
sS'VERB'
p7
F0.004198999999999999
sS'NOUN'
p8
F0.750172
s(lp9
(S'i'
p10
I0
tp11
atp12
a(S'\xc3\xa9tais'
p13
(dp14
S'VERB'
p15
F0.811039
sS'NOUN'
p16
F0.188961
s(lp17
(S'was'
p18
I1
tp19
atp20
a(S'en'
p21
(dp22
S'PRON'
p23
F0.001267
sS'ADP'
p24
F0.998733
s(lp25
(S'in'
p26
I2
tp27
atp28
a(S'mauritanie'
p29
(dp30
S'NOUN'
p31
F1.0
s(lp32
tp33
a(S'la'
p34
(dp35
S'PRON'
p36
F5.2e-05
sS'DET'
p37
F0.999948
sS'NOUN'
p38
F0.0
s(lp39
(S'mauritania'
p40
I3
tp41
atp42
a(S'semaine'
p43
(dp44
S'NOUN'
p45
F1.0
s(lp46
tp47
a(S'derni\xc3\xa8re'
p48
(dp49
S'NOUN'
p50
F0.001102
sS'ADJ'
p51
F0.998898
s(lp52
(S'last'
p53
I7
tp54
atp55
a(S','
p56
(dp57
S'.'
p58
F1.0
s(lp59
tp60
a(S'pendant'
p61
(dp62
S'ADJ'
p63
F2e-06
sS'VERB'
p64
F0.192053
sS'NOUN'
p65
F0.000189
sS'ADP'
p66
F0.807755
s(lp67
(S'for'
p68
I4
tp69
atp70
a(S'8'
p71
(dp72
g6
F1.3e-05
sS'NUM'
p73
F0.999987
s(lp74
(S'eight'
p75
I5
tp76
atp77
a(S'jours'
p78
(dp79
S'NOUN'
p80
F1.0
s(lp81
(S'days'
p82
I6
tp83
atp84
a(g56
(dp85
g58
F1.0
s(lp86
(S'week'
p87
I8
tp88
atp89
a(S'et'
p90
(dp91
S'CONJ'
p92
F1.0
s(lp93
(S'and'
p94
I9
tp95
atp96
a(S"qu'"
p97
(dp98
S'NOUN'
p99
F0.109289
sS'VERB'
p100
F0.472141
sS'ADJ'
p101
F0.418571
s(lp102
tp103
asS'en'
p104
(lp105
(g10
(dp106
g6
F0.037809
sS'NOUN'
p107
F0.962191
s(lp108
(g10
I0
tp109
atp110
a(g18
(dp111
S'VERB'
p112
F1.0
s(lp113
(g18
I1
tp114
atp115
a(g26
(dp116
S'ADV'
p117
F0.00709
sS'PRT'
p118
F0.000827
sS'ADP'
p119
F0.992083
s(lp120
(g26
I2
tp121
atp122
a(g40
(dp123
S'ADJ'
p124
F0.000541
sS'NOUN'
p125
F0.999459
s(lp126
(g40
I3
tp127
atp128
a(g68
(dp129
S'ADP'
p130
F1.0
s(lp131
(g68
I4
tp132
atp133
a(g75
(dp134
S'NUM'
p135
F0.999729
sS'NOUN'
p136
F0.000271
s(lp137
(g75
I5
tp138
atp139
a(g82
(dp140
S'ADV'
p141
F9.6e-05
sS'NOUN'
p142
F0.999904
s(lp143
(g82
I6
tp144
atp145
a(g53
(dp146
S'ADV'
p147
F0.002734
sS'NOUN'
p148
F0.000271
sS'VERB'
p149
F0.002731
sS'ADJ'
p150
F0.994264
s(lp151
(g53
I7
tp152
atp153
a(g87
(dp154
S'ADV'
p155
F5e-06
sS'NOUN'
p156
F0.999995
s(lp157
(g87
I8
tp158
atp159
a(g94
(dp160
S'CONJ'
p161
F1.0
sS'NOUN'
p162
F0.0
s(lp163
(g94
I9
tp164
atp165
a(S'what'
p166
(dp167
S'PRON'
p168
F0.999907
sS'DET'
p169
F9.3e-05
s(lp170
(g166
I10
tp171
atp172
a(S'did'
p173
(dp174
S'VERB'
p175
F1.0
s(lp176
(g173
I11
tp177
atp178
a(g10
(dp179
g6
F0.007642
sS'NOUN'
p180
F0.9923569999999999
s(lp181
(g10
I12
tp182
atp183
a(S'hear'
p184
(dp185
S'VERB'
p186
F1.0
s(lp187
(g184
I13
tp188
atp189
a(S'there'
p190
(dp191
S'ADV'
p192
F0.996266
sS'ADJ'
p193
F0.000549
sS'DET'
p194
F0.003065
sS'ADP'
p195
F0.00012
s(lp196
(g190
I14
tp197
atp198
a(S'?'
p199
(dp200
g58
F1.0
s(lp201
(g199
I15
tp202
atp203
asS'nl'
p204
(lp205
(S'ik'
p206
(dp207
S'PRON'
p208
F0.99997
sS'NOUN'
p209
F3e-05
s(lp210
(g10
I0
tp211
atp212
a(S'was'
p213
(dp214
S'VERB'
p215
F0.998263
sS'NOUN'
p216
F0.001737
s(lp217
(g18
I1
tp218
atp219
a(S'vorige'
p220
(dp221
S'NOUN'
p222
F3.1e-05
sS'ADJ'
p223
F0.999969
s(lp224
(g53
I7
tp225
atp226
a(S'week'
p227
(dp228
S'ADJ'
p229
F7.3e-05
sS'VERB'
p230
F0.079963
sS'NOUN'
p231
F0.919964
s(lp232
tp233
a(S'een'
p234
(dp235
S'ADJ'
p236
F1.3e-05
sS'NUM'
p237
F1.4e-05
sS'DET'
p238
F0.99997
sS'PRON'
p239
F2e-06
s(lp240
(g75
I5
tp241
atp242
a(S'week'
p243
(dp244
S'ADJ'
p245
F0.000481
sS'VERB'
p246
F3e-06
sS'NOUN'
p247
F0.999516
s(lp248
(g87
I8
tp249
atp250
a(S'lang'
p251
(dp252
S'ADV'
p253
F0.455813
sS'ADJ'
p254
F0.544187
s(lp255
(g82
I6
tp256
atp257
a(S'in'
p258
(dp259
S'ADV'
p260
F0.002494
sS'VERB'
p261
F0.0
sS'ADP'
p262
F0.997506
s(lp263
(g26
I2
tp264
atp265
a(S'mauritani\xc3\xab'
p266
(dp267
S'ADJ'
p268
F0.023484
sS'NOUN'
p269
F0.9765159999999999
s(lp270
(g40
I3
tp271
atp272
a(S'en'
p273
(dp274
S'CONJ'
p275
F1.0
s(lp276
(g94
I9
tp277
atp278
a(S'wat'
p279
(dp280
S'ADV'
p281
F0.064438
sS'PRON'
p282
F0.935562
s(lp283
(g166
I10
tp284
atp285
a(S'hoorde'
p286
(dp287
S'VERB'
p288
F1.0
s(lp289
(g184
I13
tp290
atp291
a(S'ik'
p292
(dp293
S'PRON'
p294
F1.0
sS'NOUN'
p295
F0.0
s(lp296
(g10
I12
tp297
atp298
a(S'daar'
p299
(dp300
S'ADV'
p301
F0.967805
sS'CONJ'
p302
F0.032195
s(lp303
(g190
I14
tp304
atp305
a(g199
(dp306
g58
F1.0
s(lp307
(g199
I15
tp308
atp309
asS'de'
p310
(lp311
(S'ich'
p312
(dp313
S'PRON'
p314
F1.0
s(lp315
(g10
I0
tp316
atp317
a(S'war'
p318
(dp319
S'VERB'
p320
F1.0
s(lp321
(g18
I1
tp322
atp323
a(S'in'
p324
(dp325
S'ADP'
p326
F1.0
s(lp327
(g26
I2
tp328
atp329
a(S'der'
p330
(dp331
S'PRON'
p332
F6.7e-05
sS'DET'
p333
F0.999928
s(lp334
(g68
I4
tp335
atp336
a(S'vorigen'
p337
(dp338
S'ADJ'
p339
F1.0
s(lp340
(g53
I7
tp341
atp342
a(S'woche'
p343
(dp344
S'ADJ'
p345
F0.075381
sS'NOUN'
p346
F0.915509
s(lp347
tp348
a(S'acht'
p349
(dp350
S'NUM'
p351
F0.95565
sS'ADJ'
p352
F0.020569
s(lp353
(g75
I5
tp354
atp355
a(S'tage'
p356
(dp357
S'VERB'
p358
F1.0
s(lp359
tp360
a(S'lang'
p361
(dp362
S'ADV'
p363
F0.004066
sS'ADJ'
p364
F0.9957
s(lp365
(g82
I6
tp366
atp367
a(S'in'
p368
(dp369
S'ADP'
p370
F1.0
s(lp371
(g87
I8
tp372
atp373
a(S'mauretanien'
p374
(dp375
S'NOUN'
p376
F0.813712
s(lp377
(g40
I3
tp378
atp379
a(g56
(dp380
g58
F1.0
s(lp381
tp382
a(S'und'
p383
(dp384
S'CONJ'
p385
F1.0
s(lp386
(g94
I9
tp387
atp388
a(S'was'
p389
(dp390
S'PRON'
p391
F0.995271
s(lp392
(g166
I10
tp393
atp394
a(S'h\xc3\xb6rte'
p395
(dp396
S'VERB'
p397
F1.0
s(lp398
(g184
I13
tp399
atp400
a(S'ich'
p401
(dp402
S'PRON'
p403
F1.0
s(lp404
(g10
I12
tp405
atp406
a(S'dort'
p407
(dp408
S'ADV'
p409
F0.620149
sS'PRT'
p410
F0.379851
s(lp411
(g190
I14
tp412
atp413
a(g199
(dp414
g58
F1.0
s(lp415
(g199
I15
tp416
atp417
asS'it'
p418
(lp419
(S'sono'
p420
(dp421
S'VERB'
p422
F0.999893
sS'NOUN'
p423
F0.000107
s(lp424
(g10
I0
tp425
atp426
a(S'stata'
p427
(dp428
S'VERB'
p429
F1.0
s(lp430
(g18
I1
tp431
atp432
a(S'in'
p433
(dp434
S'ADP'
p435
F1.0
s(lp436
(g26
I2
tp437
atp438
a(S'mauritania'
p439
(dp440
S'NOUN'
p441
F1.0
s(lp442
(g40
I3
tp443
atp444
a(S'per'
p445
(dp446
S'CONJ'
p447
F0.001183
sS'ADP'
p448
F0.998817
s(lp449
(g68
I4
tp450
atp451
a(g71
(dp452
S'NUM'
p453
F0.9996970000000001
sg58
F0.000304
s(lp454
(g75
I5
tp455
atp456
a(S'giorni'
p457
(dp458
S'NOUN'
p459
F1.0
s(lp460
(g82
I6
tp461
atp462
a(S'la'
p463
(dp464
S'PRON'
p465
F0.000887
sS'DET'
p466
F0.999113
s(lp467
(g53
I7
tp468
atp469
a(S'settimana'
p470
(dp471
S'NOUN'
p472
F1.0
s(lp473
tp474
a(S'scorsa'
p475
(dp476
S'NOUN'
p477
F0.003417
sS'VERB'
p478
F0.024805
sS'ADJ'
p479
F0.971777
s(lp480
(g87
I8
tp481
atp482
a(g56
(dp483
g58
F1.0
s(lp484
tp485
a(S'e'
p486
(dp487
S'CONJ'
p488
F1.0
s(lp489
(g94
I9
tp490
atp491
a(S'che'
p492
(dp493
S'PRON'
p494
F0.918002
sS'CONJ'
p495
F0.055039
sS'ADJ'
p496
F0.026958
s(lp497
tp498
a(S'cosa'
p499
(dp500
S'NOUN'
p501
F1.0
s(lp502
(g166
I10
tp503
atp504
a(S'ho'
p505
(dp506
S'VERB'
p507
F1.0
s(lp508
(g10
I12
tp509
atp510
a(S'sentito'
p511
(dp512
S'VERB'
p513
F0.994431
sS'ADJ'
p514
F0.005569
s(lp515
(g184
I13
tp516
atp517
a(S'laggi\xc3\xb9'
p518
(dp519
S'ADV'
p520
F1.0
s(lp521
(g190
I14
tp522
atp523
a(g199
(dp524
g58
F1.0
s(lp525
(g199
I15
tp526
atp527
asS'sk'
p528
(lp529
(S'ned\xc3\xa1vno'
p530
(dp531
S'ADV'
p532
F1.0
s(lp533
(g40
I3
tp534
atp535
a(S'som'
p536
(dp537
S'VERB'
p538
F1.0
s(lp539
(g10
I0
tp540
atp541
a(S'v'
p542
(dp543
g6
F8.5e-05
sS'ADP'
p544
F0.999915
s(lp545
(g26
I2
tp546
atp547
a(S'maurit\xc3\xa1nii'
p548
(dp549
S'ADJ'
p550
F0.00017
sS'NOUN'
p551
F0.9998290000000001
s(lp552
tp553
a(S'str\xc3\xa1vila'
p554
(dp555
S'VERB'
p556
F1.0
s(lp557
(g40
I3
tp558
atp559
a(S'osem'
p560
(dp561
S'NUM'
p562
F1.0
s(lp563
(g75
I5
tp564
atp565
a(S'dn\xc3\xad'
p566
(dp567
S'NOUN'
p568
F1.0
s(lp569
(g82
I6
tp570
atp571
a(S'a'
p572
(dp573
g6
F0.000331
sS'CONJ'
p574
F0.999362
sS'NOUN'
p575
F1.4999999999999999e-05
sS'ADP'
p576
F0.000223
sS'PRT'
p577
F6.9e-05
s(lp578
(g94
I9
tp579
atp580
a(S'\xc4\x8do'
p581
(dp582
S'PRON'
p583
F0.756004
sS'CONJ'
p584
F0.196615
sg6
F0.047381
s(lp585
(g166
I10
tp586
atp587
a(S'som'
p588
(dp589
S'VERB'
p590
F1.0
s(lp591
(g10
I12
tp592
atp593
a(S'po\xc4\x8dula'
p594
(dp595
S'VERB'
p596
F1.0
s(lp597
(g184
I13
tp598
atp599
a(g199
(dp600
g58
F1.0
s(lp601
(g199
I15
tp602
atp603
asS'pl'
p604
(lp605
(S'w'
p606
(dp607
S'ADJ'
p608
F0.0
sg6
F0.0
sS'NOUN'
p609
F0.0
sS'ADP'
p610
F1.0
s(lp611
tp612
a(S'ubieg\xc5\x82ym'
p613
(dp614
S'ADJ'
p615
F1.0
s(lp616
(g53
I7
tp617
atp618
a(S'tygodniu'
p619
(dp620
S'NOUN'
p621
F1.0
s(lp622
(g87
I8
tp623
atp624
a(S'przebywa\xc5\x82am'
p625
(dp626
S'ADV'
p627
F0.003325
sS'ADJ'
p628
F0.008095
sS'VERB'
p629
F0.7325990000000001
sS'NOUN'
p630
F0.2559820000000001
s(lp631
tp632
a(g606
(dp633
S'NOUN'
p634
F8.3e-05
sS'ADJ'
p635
F0.000923
sS'ADP'
p636
F0.9989870000000001
sg6
F6e-06
s(lp637
(g26
I2
tp638
atp639
a(S'mauretanii'
p640
(dp641
S'VERB'
p642
F2e-06
sS'NOUN'
p643
F0.9999989999999999
s(lp644
(g40
I3
tp645
atp646
a(S'przez'
p647
(dp648
S'ADP'
p649
F1.0
s(lp650
(g68
I4
tp651
atp652
a(S'osiem'
p653
(dp654
S'NUM'
p655
F1.0
s(lp656
(g75
I5
tp657
atp658
a(S'dni'
p659
(dp660
S'NOUN'
p661
F1.0
s(lp662
(g82
I6
tp663
atp664
a(g10
(dp665
S'PRT'
p666
F0.001856
sS'CONJ'
p667
F0.998126
sS'PRON'
p668
F2e-06
sS'NOUN'
p669
F4e-06
sg6
F1.2e-05
s(lp670
(g94
I9
tp671
atp672
a(S'co'
p673
(dp674
S'PRT'
p675
F0.110243
sS'CONJ'
p676
F0.20991500000000002
sS'NOUN'
p677
F0.6423449999999999
sS'ADP'
p678
F0.037498000000000004
s(lp679
(g166
I10
tp680
atp681
a(S'tam'
p682
(dp683
S'ADV'
p684
F0.528527
sS'PRT'
p685
F0.471474
s(lp686
(g190
I14
tp687
atp688
a(S'us\xc5\x82ysza\xc5\x82am'
p689
(dp690
S'ADV'
p691
F0.001546
sS'ADJ'
p692
F0.001161
sS'VERB'
p693
F0.9391550000000002
sS'NOUN'
p694
F0.058137
s(lp695
(g184
I13
tp696
atp697
a(g199
(dp698
g58
F1.0
s(lp699
(g199
I15
tp700
atp701
asS'sl'
p702
(lp703
(S'prej\xc5\xa1nji'
p704
(dp705
S'ADJ'
p706
F1.0
s(lp707
(g53
I7
tp708
atp709
a(S'teden'
p710
(dp711
S'NOUN'
p712
F1.0
s(lp713
(g87
I8
tp714
atp715
a(S'sem'
p716
(dp717
S'ADV'
p718
F0.008133
sS'PRT'
p719
F0.000321
sS'VERB'
p720
F0.991546
s(lp721
(g10
I0
tp722
atp723
a(S'obiskala'
p724
(dp725
S'VERB'
p726
F1.0
s(lp727
tp728
a(S'mavretanijo'
p729
(dp730
S'ADJ'
p731
F3e-06
sS'VERB'
p732
F0.000499
sS'NOUN'
p733
F0.9994970000000001
s(lp734
(g40
I3
tp735
atp736
a(S'za'
p737
(dp738
S'ADV'
p739
F0.0002
sg6
F1e-06
sS'ADP'
p740
F0.999799
s(lp741
(g68
I4
tp742
atp743
a(S'osem'
p744
(dp745
S'NUM'
p746
F1.0
s(lp747
(g75
I5
tp748
atp749
a(S'dni'
p750
(dp751
S'NOUN'
p752
F1.0
s(lp753
(g82
I6
tp754
atp755
a(g56
(dp756
g58
F1.0
s(lp757
tp758
a(S'in'
p759
(dp760
S'ADV'
p761
F0.000135
sg6
F4e-06
sS'CONJ'
p762
F0.999857
sS'NOUN'
p763
F4e-06
s(lp764
(g94
I9
tp765
atp766
a(S'kaj'
p767
(dp768
S'ADV'
p769
F0.238553
sS'PRON'
p770
F0.761447
s(lp771
(g166
I10
tp772
atp773
a(S'sem'
p774
(dp775
S'ADV'
p776
F0.011647
sS'PRT'
p777
F0.000421
sS'VERB'
p778
F0.987932
s(lp779
(g10
I12
tp780
atp781
a(S'sli\xc5\xa1ala'
p782
(dp783
S'VERB'
p784
F1.0
s(lp785
(g184
I13
tp786
atp787
a(S'tam'
p788
(dp789
S'ADV'
p790
F0.979573
sS'NOUN'
p791
F0.020427
s(lp792
(g190
I14
tp793
atp794
a(g199
(dp795
g58
F1.0
s(lp796
(g199
I15
tp797
atp798
asS'es'
p799
(lp800
(S'la'
p801
(dp802
g6
F4.5e-05
sS'DET'
p803
F0.999917
sS'NOUN'
p804
F0.0
sS'PRON'
p805
F3.8e-05
s(lp806
(g53
I7
tp807
atp808
a(S'semana'
p809
(dp810
S'NOUN'
p811
F1.0
s(lp812
tp813
a(S'pasada'
p814
(dp815
S'VERB'
p816
F0.977035
sS'NOUN'
p817
F0.022965
s(lp818
(g87
I8
tp819
atp820
a(S'estuve'
p821
(dp822
S'VERB'
p823
F1.0
s(lp824
(g18
I1
tp825
atp826
a(S'ocho'
p827
(dp828
S'NUM'
p829
F1.0
s(lp830
(g75
I5
tp831
atp832
a(S'd\xc3\xadas'
p833
(dp834
S'NOUN'
p835
F1.0
s(lp836
(g82
I6
tp837
atp838
a(S'en'
p839
(dp840
g6
F1.8e-05
sS'CONJ'
p841
F1e-05
sS'ADP'
p842
F0.999972
s(lp843
(g26
I2
tp844
atp845
a(S'mauritania'
p846
(dp847
S'NOUN'
p848
F1.0
s(lp849
(g40
I3
tp850
atp851
a(S'y'
p852
(dp853
g6
F0.861303
sS'CONJ'
p854
F0.138697
s(lp855
(g94
I9
tp856
atp857
a(S'\xc2\xbf'
p858
(dp859
S'PRON'
p860
F0.001124
sg58
F0.998876
s(lp861
tp862
a(S'qu\xc3\xa9'
p863
(dp864
S'PRON'
p865
F1.0
s(lp866
(g166
I10
tp867
atp868
a(S'me'
p869
(dp870
S'PRON'
p871
F1.0
sS'NOUN'
p872
F0.0
s(lp873
(g10
I12
tp874
atp875
a(S'encontr\xc3\xa9'
p876
(dp877
S'VERB'
p878
F1.0
s(lp879
(g184
I13
tp880
atp881
a(S'all\xc3\xad'
p882
(dp883
S'ADV'
p884
F1.0
s(lp885
(g190
I14
tp886
atp887
a(g199
(dp888
g58
F1.0
s(lp889
(g199
I15
tp890
atp891
as.