(dp0
S'fr'
p1
(lp2
(S'il'
p3
(dp4
S'PRON'
p5
F1.0
s(lp6
(S'it'
p7
I0
tp8
atp9
a(S'ne'
p10
(dp11
S'ADV'
p12
F1.0
s(lp13
tp14
a(S'diverge'
p15
(dp16
S'VERB'
p17
F1.0
s(lp18
tp19
a(S'pas'
p20
(dp21
S'ADV'
p22
F0.996535
sS'NOUN'
p23
F0.003465
s(lp24
(S'not'
p25
I2
tp26
atp27
a(S'des'
p28
(dp29
S'DET'
p30
F0.000119
sS'ADP'
p31
F0.999881
s(lp32
(S'divergent'
p33
I3
tp34
atp35
a(S'normes'
p36
(dp37
S'VERB'
p38
F0.0
sS'NOUN'
p39
F1.0
s(lp40
(S'norms'
p41
I7
tp42
atp43
a(S'juridiques'
p44
(dp45
S'ADJ'
p46
F1.0
s(lp47
(S'law'
p48
I6
tp49
atp50
a(S'des'
p51
(dp52
S'DET'
p53
F2.2e-05
sS'ADP'
p54
F0.999978
s(lp55
(S'from'
p56
I4
tp57
atp58
a(S'entreprises'
p59
(dp60
S'VERB'
p61
F0.003295
sS'NOUN'
p62
F0.996705
s(lp63
(S'company'
p64
I5
tp65
atp66
a(S'.'
p67
(dp68
g67
F1.0
s(lp69
(g67
I8
tp70
atp71
asS'en'
p72
(lp73
(g7
(dp74
S'PRON'
p75
F1.0
s(lp76
(g7
I0
tp77
atp78
a(S'is'
p79
(dp80
S'VERB'
p81
F1.0
s(lp82
(g79
I1
tp83
atp84
a(g25
(dp85
S'ADV'
p86
F1.0
s(lp87
(g25
I2
tp88
atp89
a(g33
(dp90
S'ADJ'
p91
F1.0
s(lp92
(g33
I3
tp93
atp94
a(g56
(dp95
S'ADP'
p96
F1.0
s(lp97
(g56
I4
tp98
atp99
a(g64
(dp100
S'VERB'
p101
F0.0
sS'NOUN'
p102
F1.0
s(lp103
(g64
I5
tp104
atp105
a(g48
(dp106
S'NOUN'
p107
F1.0
s(lp108
(g48
I6
tp109
atp110
a(g41
(dp111
S'NOUN'
p112
F1.0
s(lp113
(g41
I7
tp114
atp115
a(g67
(dp116
g67
F1.0
s(lp117
(g67
I8
tp118
atp119
asS'nl'
p120
(lp121
(S'het'
p122
(dp123
S'PRON'
p124
F0.962086
sS'DET'
p125
F0.037914
s(lp126
(g7
I0
tp127
atp128
a(S'wijkt'
p129
(dp130
S'VERB'
p131
F1.0
s(lp132
tp133
a(S'niet'
p134
(dp135
S'ADV'
p136
F1.0
sS'PRON'
p137
F0.0
sS'VERB'
p138
F0.0
sS'X'
p139
F0.0
s(lp140
(g25
I2
tp141
atp142
a(S'af'
p143
(dp144
S'ADV'
p145
F0.998245
sS'ADP'
p146
F0.001755
s(lp147
(g33
I3
tp148
atp149
a(S'van'
p150
(dp151
S'ADP'
p152
F1.0
s(lp153
tp154
a(S'de'
p155
(dp156
S'DET'
p157
F1.0
s(lp158
tp159
a(S'normen'
p160
(dp161
S'NOUN'
p162
F1.0
s(lp163
(g41
I7
tp164
atp165
a(S'van'
p166
(dp167
S'ADP'
p168
F1.0
s(lp169
(g56
I4
tp170
atp171
a(S'het'
p172
(dp173
S'PRON'
p174
F0.0010040000000000001
sS'DET'
p175
F0.998996
s(lp176
(g48
I6
tp177
atp178
a(S'vennootschapsrecht'
p179
(dp180
S'ADJ'
p181
F0.015632
sS'NOUN'
p182
F0.984368
s(lp183
(g64
I5
tp184
atp185
a(g67
(dp186
g67
F1.0
s(lp187
(g67
I8
tp188
atp189
asS'de'
p190
(lp191
(S'es'
p192
(dp193
S'PRON'
p194
F1.0
s(lp195
(g7
I0
tp196
atp197
a(S'weicht'
p198
(dp199
S'VERB'
p200
F1.0
s(lp201
(g33
I3
tp202
atp203
a(S'nicht'
p204
(dp205
S'PRT'
p206
F1.0
s(lp207
(g25
I2
tp208
atp209
a(S'von'
p210
(dp211
S'NOUN'
p212
F6.1e-05
sS'ADP'
p213
F0.999939
s(lp214
(g56
I4
tp215
atp216
a(S'den'
p217
(dp218
S'PRON'
p219
F2.6e-05
sS'DET'
p220
F0.999973
s(lp221
(g41
I7
tp222
atp223
a(S'gesellschaftsrechtsnormen'
p224
(dp225
S'ADJ'
p226
F0.000456
sS'NOUN'
p227
F0.999314
s(lp228
tp229
a(S'ab'
p230
(dp231
S'ADV'
p232
F0.000904
sS'PRT'
p233
F0.999096
s(lp234
(g33
I3
tp235
atp236
a(g67
(dp237
g67
F1.0
s(lp238
(g67
I8
tp239
atp240
asS'it'
p241
(lp242
(S'non'
p243
(dp244
S'ADV'
p245
F1.0
s(lp246
(g25
I2
tp247
atp248
a(S'diverge'
p249
(dp250
S'VERB'
p251
F1.0
s(lp252
tp253
a(S'dalle'
p254
(dp255
S'NOUN'
p256
F0.000631
sS'ADP'
p257
F0.999369
s(lp258
(g33
I3
tp259
atp260
a(S'norme'
p261
(dp262
S'NOUN'
p263
F1.0
s(lp264
tp265
a(S'in'
p266
(dp267
S'ADP'
p268
F1.0
s(lp269
tp270
a(S'materia'
p271
(dp272
S'NOUN'
p273
F1.0
s(lp274
(g41
I7
tp275
atp276
a(S'di'
p277
(dp278
S'CONJ'
p279
F4e-06
sS'ADP'
p280
F0.999996
s(lp281
(g56
I4
tp282
atp283
a(S'diritto'
p284
(dp285
S'ADJ'
p286
F0.009381
sS'NOUN'
p287
F0.990619
s(lp288
(g48
I6
tp289
atp290
a(S'societario'
p291
(dp292
S'ADJ'
p293
F1.0
s(lp294
(g64
I5
tp295
atp296
a(g67
(dp297
g67
F1.0
s(lp298
(g67
I8
tp299
atp300
asS'sk'
p301
(lp302
(S'neodli\xc5\xa1uje'
p303
(dp304
S'VERB'
p305
F1.0
s(lp306
(g33
I3
tp307
atp308
a(S'sa'
p309
(dp310
S'PRT'
p311
F0.999344
sS'ADP'
p312
F1e-06
sg139
F0.000655
s(lp313
(g79
I1
tp314
atp315
a(S'od'
p316
(dp317
g139
F8e-05
sS'ADP'
p318
F0.99992
s(lp319
(g56
I4
tp320
atp321
a(S'podnikov\xc3\xbdch'
p322
(dp323
S'ADJ'
p324
F1.0
s(lp325
(g64
I5
tp326
atp327
a(S'pr\xc3\xa1vnych'
p328
(dp329
S'ADJ'
p330
F1.0
s(lp331
(g48
I6
tp332
atp333
a(S'noriem'
p334
(dp335
S'NOUN'
p336
F1.0
s(lp337
(g41
I7
tp338
atp339
a(g67
(dp340
g67
F1.0
s(lp341
(g67
I8
tp342
atp343
asS'pl'
p344
(lp345
(S'nie'
p346
(dp347
S'ADV'
p348
F2.5e-05
sS'PRT'
p349
F0.994819
sS'CONJ'
p350
F0.005152
sS'NOUN'
p351
F4e-06
sS'PRON'
p352
F0.0
s(lp353
(g25
I2
tp354
atp355
a(S'odbiega'
p356
(dp357
S'VERB'
p358
F1.0
s(lp359
tp360
a(S'on'
p361
(dp362
S'PRON'
p363
F0.9820640000000002
sS'ADJ'
p364
F0.016793
sS'NOUN'
p365
F0.001143
s(lp366
(g7
I0
tp367
atp368
a(S'od'
p369
(dp370
S'VERB'
p371
F4.3e-05
sS'NOUN'
p372
F3.9e-05
sS'ADP'
p373
F0.999919
s(lp374
(g56
I4
tp375
atp376
a(S'norm'
p377
(dp378
S'NOUN'
p379
F1.0
s(lp380
(g41
I7
tp381
atp382
a(S'prawnych'
p383
(dp384
S'ADJ'
p385
F1.000001
s(lp386
(g48
I6
tp387
atp388
a(S'obowi\xc4\x85zuj\xc4\x85cych'
p389
(dp390
S'VERB'
p391
F0.807523
sS'ADJ'
p392
F0.192478
s(lp393
(g33
I3
tp394
atp395
a(S'przedsi\xc4\x99biorstwa'
p396
(dp397
S'NOUN'
p398
F1.0
s(lp399
(g64
I5
tp400
atp401
a(g67
(dp402
g67
F1.0
s(lp403
(g67
I8
tp404
atp405
asS'sl'
p406
(lp407
(S'ne'
p408
(dp409
S'PRT'
p410
F0.995949
sS'CONJ'
p411
F0.003983
sg139
F6.8e-05
s(lp412
(g25
I2
tp413
atp414
a(S'odstopa'
p415
(dp416
S'VERB'
p417
F0.978675
sS'NOUN'
p418
F0.021325
s(lp419
(g33
I3
tp420
atp421
a(S'od'
p422
(dp423
S'ADP'
p424
F1.0
s(lp425
(g56
I4
tp426
atp427
a(S'norm'
p428
(dp429
S'NOUN'
p430
F1.0
s(lp431
(g41
I7
tp432
atp433
a(S'prava'
p434
(dp435
S'ADJ'
p436
F0.010218999999999999
sS'NOUN'
p437
F0.989781
s(lp438
(g48
I6
tp439
atp440
a(S'dru\xc5\xbeb'
p441
(dp442
S'NOUN'
p443
F1.0
s(lp444
(g64
I5
tp445
atp446
a(g67
(dp447
g67
F1.0
s(lp448
(g67
I8
tp449
atp450
asS'es'
p451
(lp452
(S'no'
p453
(dp454
S'ADV'
p455
F0.999243
sg139
F0.000757
s(lp456
(g25
I2
tp457
atp458
a(S'difiere'
p459
(dp460
S'VERB'
p461
F1.0
s(lp462
(g33
I3
tp463
atp464
a(S'de'
p465
(dp466
g139
F0.0
sS'CONJ'
p467
F2.6e-05
sS'ADP'
p468
F0.999974
s(lp469
tp470
a(S'las'
p471
(dp472
S'PRON'
p473
F0.0
sS'DET'
p474
F1.0
s(lp475
tp476
a(S'normas'
p477
(dp478
S'NOUN'
p479
F1.0
s(lp480
(g41
I7
tp481
atp482
a(S'legislativas'
p483
(dp484
S'ADJ'
p485
F1.0
s(lp486
(g48
I6
tp487
atp488
a(S'de'
p489
(dp490
g139
F3.1e-05
sS'CONJ'
p491
F0.001485
sS'ADP'
p492
F0.998485
s(lp493
(g56
I4
tp494
atp495
a(S'sociedades'
p496
(dp497
S'NOUN'
p498
F1.0
s(lp499
(g64
I5
tp500
atp501
a(g67
(dp502
g67
F1.0
s(lp503
(g67
I8
tp504
atp505
as.