(dp0
S'fr'
p1
(lp2
(S'telles'
p3
(dp4
S'PRON'
p5
F0.999611
sS'NOUN'
p6
F0.000389
s(lp7
(S'these'
p8
I0
tp9
atp10
a(S'sont'
p11
(dp12
S'VERB'
p13
F1.0
s(lp14
(S'are'
p15
I1
tp16
atp17
a(S'les'
p18
(dp19
S'PRON'
p20
F0.000124
sS'DET'
p21
F0.999843
sS'ADP'
p22
F3.3e-05
s(lp23
(S'the'
p24
I2
tp25
atp26
a(S'obligations'
p27
(dp28
S'NOUN'
p29
F1.0
s(lp30
(S'obligations'
p31
I3
tp32
atp33
a(S'des'
p34
(dp35
S'DET'
p36
F1e-05
sS'ADP'
p37
F0.99999
s(lp38
(S'of'
p39
I4
tp40
atp41
a(S'\xc3\x89tats'
p42
(dp43
S'NOUN'
p44
F1.0
s(lp45
(S'states'
p46
I7
tp47
atp48
a(S'membres'
p49
(dp50
S'VERB'
p51
F0.107637
sS'NOUN'
p52
F0.892363
s(lp53
(S'member'
p54
I6
tp55
atp56
a(S'au'
p57
(dp58
S'ADP'
p59
F1.0
s(lp60
tp61
a(S'titre'
p62
(dp63
S'VERB'
p64
F0.0
sS'NOUN'
p65
F1.0
s(lp66
(S'under'
p67
I8
tp68
atp69
a(S'du'
p70
(dp71
S'ADP'
p72
F1.0
s(lp73
(S'the'
p74
I5
tp75
atp76
a(S'droit'
p77
(dp78
S'ADV'
p79
F0.001445
sS'ADJ'
p80
F0.00372
sS'NOUN'
p81
F0.994835
s(lp82
(S'law'
p83
I10
tp84
atp85
a(S'international'
p86
(dp87
S'ADJ'
p88
F1.0
s(lp89
(S'international'
p90
I9
tp91
atp92
a(S'.'
p93
(dp94
g93
F1.0
s(lp95
(g93
I11
tp96
atp97
asS'en'
p98
(lp99
(g8
(dp100
S'NOUN'
p101
F0.000969
sS'DET'
p102
F0.999031
s(lp103
(g8
I0
tp104
atp105
a(g15
(dp106
S'VERB'
p107
F0.999176
sS'NOUN'
p108
F0.000824
s(lp109
(g15
I1
tp110
atp111
a(g24
(dp112
S'NOUN'
p113
F1.2e-05
sS'DET'
p114
F0.999988
s(lp115
(g24
I2
tp116
atp117
a(g31
(dp118
S'NOUN'
p119
F1.0
s(lp120
(g31
I3
tp121
atp122
a(g39
(dp123
S'ADP'
p124
F1.0
s(lp125
(g39
I4
tp126
atp127
a(g74
(dp128
S'NOUN'
p129
F1e-06
sS'DET'
p130
F0.999999
s(lp131
(g74
I5
tp132
atp133
a(g54
(dp134
S'NOUN'
p135
F1.0
s(lp136
(g54
I6
tp137
atp138
a(g46
(dp139
S'VERB'
p140
F0.011072
sS'NOUN'
p141
F0.988928
s(lp142
(g46
I7
tp143
atp144
a(g67
(dp145
S'ADV'
p146
F0.000673
sS'ADP'
p147
F0.999327
s(lp148
(g67
I8
tp149
atp150
a(g90
(dp151
S'NOUN'
p152
F0.000286
sS'ADJ'
p153
F0.999714
s(lp154
(g90
I9
tp155
atp156
a(g83
(dp157
S'NOUN'
p158
F1.0
s(lp159
(g83
I10
tp160
atp161
a(g93
(dp162
g93
F1.0
s(lp163
(g93
I11
tp164
atp165
asS'nl'
p166
(lp167
(S'de'
p168
(dp169
S'DET'
p170
F1.0
s(lp171
(g74
I5
tp172
atp173
a(S'lidstaten'
p174
(dp175
S'NOUN'
p176
F1.0
s(lp177
(g54
I6
tp178
atp179
a(S'hebben'
p180
(dp181
S'VERB'
p182
F1.0
sS'NOUN'
p183
F0.0
s(lp184
(g15
I1
tp185
atp186
a(S'verplichtingen'
p187
(dp188
S'NOUN'
p189
F1.0
s(lp190
(g31
I3
tp191
atp192
a(S'op'
p193
(dp194
S'ADV'
p195
F0.002086
sS'ADJ'
p196
F3e-06
sS'ADP'
p197
F0.997911
s(lp198
(g39
I4
tp199
atp200
a(S'grond'
p201
(dp202
S'VERB'
p203
F3e-06
sS'NOUN'
p204
F0.999997
s(lp205
tp206
a(S'van'
p207
(dp208
S'ADP'
p209
F1.0
s(lp210
(g67
I8
tp211
atp212
a(S'het'
p213
(dp214
S'PRON'
p215
F0.00582
sS'DET'
p216
F0.994181
s(lp217
(g24
I2
tp218
atp219
a(S'internationaal'
p220
(dp221
S'ADJ'
p222
F1.0
s(lp223
(g90
I9
tp224
atp225
a(S'recht'
p226
(dp227
S'ADJ'
p228
F1.9e-05
sS'VERB'
p229
F5e-06
sS'NOUN'
p230
F0.999977
s(lp231
(g83
I10
tp232
atp233
a(g93
(dp234
g93
F1.0
s(lp235
(g93
I11
tp236
atp237
asS'de'
p238
(lp239
(S'nach'
p240
(dp241
S'ADV'
p242
F0.02016
sS'ADP'
p243
F0.979746
s(lp244
(g67
I8
tp245
atp246
a(S'internationalem'
p247
(dp248
S'ADJ'
p249
F1.0
s(lp250
(g90
I9
tp251
atp252
a(S'recht'
p253
(dp254
S'VERB'
p255
F0.000373
sS'ADJ'
p256
F0.999284
s(lp257
(g83
I10
tp258
atp259
a(S'sind'
p260
(dp261
S'VERB'
p262
F1.0
s(lp263
(g15
I1
tp264
atp265
a(S'die'
p266
(dp267
S'PRON'
p268
F0.006057
sS'DET'
p269
F0.993936
s(lp270
(g74
I5
tp271
atp272
a(S'mitgliedstaaten'
p273
(dp274
S'ADJ'
p275
F0.070432
sS'NOUN'
p276
F0.904265
s(lp277
(g54
I6
tp278
atp279
a(S'zust\xc3\xa4ndig'
p280
(dp281
S'ADJ'
p282
F1.0
s(lp283
(g46
I7
tp284
atp285
a(g93
(dp286
g93
F1.0
s(lp287
(g93
I11
tp288
atp289
asS'it'
p290
(lp291
(S'questi'
p292
(dp293
S'PRON'
p294
F1.0
s(lp295
(g8
I0
tp296
atp297
a(S'sono'
p298
(dp299
S'VERB'
p300
F0.998754
sS'NOUN'
p301
F0.001246
s(lp302
(g15
I1
tp303
atp304
a(S'obblighi'
p305
(dp306
S'VERB'
p307
F0.14362
sS'NOUN'
p308
F0.85638
s(lp309
(g31
I3
tp310
atp311
a(S'degli'
p312
(dp313
S'DEF'
p314
F0.002148
sS'ADP'
p315
F0.997852
s(lp316
tp317
a(S'stati'
p318
(dp319
S'VERB'
p320
F0.458306
sS'NOUN'
p321
F0.541694
s(lp322
(g46
I7
tp323
atp324
a(S'membri'
p325
(dp326
S'NOUN'
p327
F1.0
s(lp328
(g54
I6
tp329
atp330
a(S'conformemente'
p331
(dp332
S'ADV'
p333
F1.0
s(lp334
tp335
a(S'al'
p336
(dp337
S'ADP'
p338
F1.0
s(lp339
(g67
I8
tp340
atp341
a(S'diritto'
p342
(dp343
S'ADJ'
p344
F0.003423
sS'NOUN'
p345
F0.996577
s(lp346
(g83
I10
tp347
atp348
a(S'internazionale'
p349
(dp350
S'ADJ'
p351
F1.0
s(lp352
(g90
I9
tp353
atp354
a(g93
(dp355
g93
F1.0
s(lp356
(g93
I11
tp357
atp358
asS'sk'
p359
(lp360
(S'povinnosti'
p361
(dp362
S'NOUN'
p363
F1.0
s(lp364
(g31
I3
tp365
atp366
a(S'\xc4\x8dlensk\xc3\xbdch'
p367
(dp368
S'ADJ'
p369
F1.0
s(lp370
(g54
I6
tp371
atp372
a(S'\xc5\xa1t\xc3\xa1tov'
p373
(dp374
S'NOUN'
p375
F1.0
s(lp376
(g46
I7
tp377
atp378
a(S'v'
p379
(dp380
S'X'
p381
F1.8e-05
sS'ADP'
p382
F0.999982
s(lp383
tp384
a(S'tejto'
p385
(dp386
S'PRON'
p387
F1.0
s(lp388
(g8
I0
tp389
atp390
a(S'oblasti'
p391
(dp392
S'NOUN'
p393
F1.0
s(lp394
(g24
I2
tp395
atp396
a(S'upravuje'
p397
(dp398
S'VERB'
p399
F1.0
s(lp400
(g67
I8
tp401
atp402
a(S'medzin\xc3\xa1rodn\xc3\xa9'
p403
(dp404
S'ADJ'
p405
F1.0
s(lp406
(g90
I9
tp407
atp408
a(S'pr\xc3\xa1vo'
p409
(dp410
S'NOUN'
p411
F1.0
s(lp412
(g83
I10
tp413
atp414
a(g93
(dp415
g93
F1.0
s(lp416
(g93
I11
tp417
atp418
asS'pl'
p419
(lp420
(S'istniej\xc4\x85'
p421
(dp422
S'VERB'
p423
F1.0
s(lp424
(g15
I1
tp425
atp426
a(S'zobowi\xc4\x85zania'
p427
(dp428
S'NOUN'
p429
F1.0
s(lp430
tp431
a(S'wymagane'
p432
(dp433
S'VERB'
p434
F1.0
s(lp435
(g31
I3
tp436
atp437
a(S'przez'
p438
(dp439
S'ADP'
p440
F1.0
s(lp441
(g67
I8
tp442
atp443
a(S'prawo'
p444
(dp445
S'ADV'
p446
F0.000142
sS'ADJ'
p447
F0.116146
sS'NOUN'
p448
F0.883712
s(lp449
tp450
a(S'mi\xc4\x99dzynarodowe'
p451
(dp452
S'ADJ'
p453
F0.9999990000000001
s(lp454
(g90
I9
tp455
atp456
a(S','
p457
(dp458
g381
F2e-06
sg93
F0.999998
s(lp459
tp460
a(S'kt\xc3\xb3rych'
p461
(dp462
S'ADJ'
p463
F0.9999990000000001
s(lp464
(g39
I4
tp465
atp466
a(S'pa\xc5\x84stwa'
p467
(dp468
S'NOUN'
p469
F1.0
s(lp470
(g46
I7
tp471
atp472
a(S'cz\xc5\x82onkowskie'
p473
(dp474
S'ADJ'
p475
F1.0
s(lp476
(g54
I6
tp477
atp478
a(S'powinny'
p479
(dp480
S'VERB'
p481
F0.9999990000000001
s(lp482
(g8
I0
tp483
atp484
a(S'przestrzega\xc4\x87'
p485
(dp486
S'VERB'
p487
F1.0
s(lp488
(g83
I10
tp489
atp490
a(g93
(dp491
g93
F1.0
s(lp492
(g93
I11
tp493
atp494
asS'sl'
p495
(lp496
(S'tu'
p497
(dp498
S'ADV'
p499
F1.0
s(lp500
(g8
I0
tp501
atp502
a(S'gre'
p503
(dp504
S'VERB'
p505
F1.0
s(lp506
(g15
I1
tp507
atp508
a(S'za'
p509
(dp510
S'ADV'
p511
F0.000145
sg381
F1.9e-05
sS'ADP'
p512
F0.999836
s(lp513
(g24
I2
tp514
atp515
a(S'obveznosti'
p516
(dp517
S'NOUN'
p518
F0.9999999999999999
s(lp519
(g31
I3
tp520
atp521
a(S'dr\xc5\xbeav'
p522
(dp523
S'NOUN'
p524
F1.0
s(lp525
(g54
I6
tp526
atp527
a(S'\xc4\x8dlanic'
p528
(dp529
S'NOUN'
p530
F1.0
s(lp531
(g46
I7
tp532
atp533
a(S'po'
p534
(dp535
g381
F1e-06
sS'ADP'
p536
F0.999999
s(lp537
(g67
I8
tp538
atp539
a(S'mednarodnem'
p540
(dp541
S'ADJ'
p542
F1.0
s(lp543
(g90
I9
tp544
atp545
a(S'pravu'
p546
(dp547
S'NOUN'
p548
F1.0
s(lp549
(g83
I10
tp550
atp551
a(g93
(dp552
g93
F1.0
s(lp553
(g93
I11
tp554
atp555
asS'es'
p556
(lp557
(S'\xc3\x89stas'
p558
(dp559
S'PRON'
p560
F1.0
s(lp561
(g8
I0
tp562
atp563
a(S'son'
p564
(dp565
S'VERB'
p566
F0.99939
sS'NOUN'
p567
F0.00061
s(lp568
(g15
I1
tp569
atp570
a(S'las'
p571
(dp572
S'PRON'
p573
F0.0
sS'DET'
p574
F1.0
s(lp575
(g24
I2
tp576
atp577
a(S'obligaciones'
p578
(dp579
S'NOUN'
p580
F1.0
s(lp581
(g31
I3
tp582
atp583
a(S'de'
p584
(dp585
g381
F0.0
sS'CONJ'
p586
F1.7e-05
sS'ADP'
p587
F0.999983
s(lp588
(g39
I4
tp589
atp590
a(S'los'
p591
(dp592
S'PRON'
p593
F0.0
sS'DET'
p594
F1.0
s(lp595
(g74
I5
tp596
atp597
a(S'estados'
p598
(dp599
S'NOUN'
p600
F1.0
s(lp601
(g46
I7
tp602
atp603
a(S'miembros'
p604
(dp605
S'NOUN'
p606
F1.0
s(lp607
(g54
I6
tp608
atp609
a(S'en'
p610
(dp611
S'ADP'
p612
F1.0
s(lp613
(g67
I8
tp614
atp615
a(S'virtud'
p616
(dp617
S'ADP'
p618
F1.0
s(lp619
tp620
a(S'del'
p621
(dp622
S'ADP'
p623
F1.0
s(lp624
(g67
I8
tp625
atp626
a(S'derecho'
p627
(dp628
S'ADV'
p629
F2e-06
sS'ADJ'
p630
F0.012196
sS'NOUN'
p631
F0.987802
s(lp632
(g83
I10
tp633
atp634
a(S'internacional'
p635
(dp636
S'ADJ'
p637
F1.0
s(lp638
(g90
I9
tp639
atp640
a(g93
(dp641
g93
F1.0
s(lp642
(g93
I11
tp643
atp644
as.