(dp0
S'fr'
p1
(lp2
(S"j'"
p3
(dp4
S'ADJ'
p5
F0.10952
sS'X'
p6
F0.13611
sS'VERB'
p7
F0.004198999999999999
sS'NOUN'
p8
F0.750172
s(lp9
(S'i'
p10
I0
tp11
atp12
a(S'appr\xc3\xa9cie'
p13
(dp14
S'VERB'
p15
F1.0
s(lp16
(S'appreciate'
p17
I1
tp18
atp19
a(S'le'
p20
(dp21
S'PRON'
p22
F0.000137
sS'DET'
p23
F0.999863
s(lp24
tp25
a(S'soutien'
p26
(dp27
S'NOUN'
p28
F1.0
s(lp29
tp30
a(S"qu'"
p31
(dp32
S'NOUN'
p33
F0.024969
sS'VERB'
p34
F0.27500100000000005
sS'ADJ'
p35
F0.700029
s(lp36
tp37
a(S'a'
p38
(dp39
S'VERB'
p40
F1.0
s(lp41
(S"'s"
p42
I5
tp43
atp44
a(S'apport\xc3\xa9'
p45
(dp46
S'VERB'
p47
F1.0
s(lp48
(S'support'
p49
I6
tp50
atp51
a(S'la'
p52
(dp53
S'PRON'
p54
F4.2e-05
sS'DET'
p55
F0.999958
sS'NOUN'
p56
F0.0
s(lp57
(S'the'
p58
I2
tp59
atp60
a(S'pr\xc3\xa9sidence'
p61
(dp62
S'NOUN'
p63
F1.0
s(lp64
(S'presidency'
p65
I4
tp66
atp67
a(S'tch\xc3\xa8que'
p68
(dp69
S'NOUN'
p70
F0.017216
sS'ADJ'
p71
F0.982784
s(lp72
(S'czech'
p73
I3
tp74
atp75
a(S'\xc3\xa0'
p76
(dp77
S'ADP'
p78
F1.0
s(lp79
(S'for'
p80
I7
tp81
atp82
a(S'cette'
p83
(dp84
S'PRON'
p85
F1.0
s(lp86
(S'this'
p87
I8
tp88
atp89
a(S'version'
p90
(dp91
S'NOUN'
p92
F1.0
s(lp93
(S'version'
p94
I9
tp95
atp96
a(S'.'
p97
(dp98
g97
F1.0
s(lp99
(g97
I10
tp100
atp101
asS'en'
p102
(lp103
(g10
(dp104
g6
F0.001855
sS'NOUN'
p105
F0.9981450000000001
s(lp106
(g10
I0
tp107
atp108
a(g17
(dp109
S'VERB'
p110
F1.0
s(lp111
(g17
I1
tp112
atp113
a(g58
(dp114
S'NOUN'
p115
F1e-06
sS'DET'
p116
F0.999999
s(lp117
(g58
I2
tp118
atp119
a(g73
(dp120
S'NOUN'
p121
F1.0
s(lp122
(g73
I3
tp123
atp124
a(g65
(dp125
S'NOUN'
p126
F1.0
s(lp127
(g65
I4
tp128
atp129
a(g42
(dp130
S'PRT'
p131
F0.983751
sg97
F0.016249
s(lp132
(g42
I5
tp133
atp134
a(g49
(dp135
S'VERB'
p136
F0.039935
sS'NOUN'
p137
F0.960064
s(lp138
(g49
I6
tp139
atp140
a(g80
(dp141
S'ADP'
p142
F1.0
s(lp143
(g80
I7
tp144
atp145
a(g87
(dp146
S'ADV'
p147
F3e-06
sS'NOUN'
p148
F1.9e-05
sS'DET'
p149
F0.999978
s(lp150
(g87
I8
tp151
atp152
a(g94
(dp153
S'NOUN'
p154
F1.0
s(lp155
(g94
I9
tp156
atp157
a(g97
(dp158
g97
F1.0
s(lp159
(g97
I10
tp160
atp161
asS'nl'
p162
(lp163
(S'ik'
p164
(dp165
S'PRON'
p166
F0.999981
sS'NOUN'
p167
F1.9e-05
s(lp168
(g10
I0
tp169
atp170
a(S'stel'
p171
(dp172
S'VERB'
p173
F0.9541
sS'NOUN'
p174
F0.0459
s(lp175
(g17
I1
tp176
atp177
a(S'het'
p178
(dp179
S'PRON'
p180
F0.64756
sS'DET'
p181
F0.35244
s(lp182
(g42
I5
tp183
atp184
a(S'op'
p185
(dp186
S'ADV'
p187
F0.005872
sS'ADJ'
p188
F3.7e-05
sS'ADP'
p189
F0.994091
s(lp190
(g17
I1
tp191
atp192
a(S'prijs'
p193
(dp194
S'VERB'
p195
F0.000279
sS'NOUN'
p196
F0.999721
s(lp197
tp198
a(S'dat'
p199
(dp200
S'PRON'
p201
F0.042207
sS'CONJ'
p202
F0.957794
s(lp203
(g17
I1
tp204
atp205
a(S'het'
p206
(dp207
S'PRON'
p208
F0.021146
sS'DET'
p209
F0.978855
s(lp210
tp211
a(S'verslag'
p212
(dp213
S'NOUN'
p214
F1.0
s(lp215
tp216
a(S'in'
p217
(dp218
S'ADV'
p219
F0.001199
sS'VERB'
p220
F1e-06
sS'ADP'
p221
F0.9988
s(lp222
(g80
I7
tp223
atp224
a(S'deze'
p225
(dp226
S'PRON'
p227
F1.0
s(lp228
(g87
I8
tp229
atp230
a(S'lezing'
p231
(dp232
S'NOUN'
p233
F1.0
s(lp234
(g94
I9
tp235
atp236
a(S'wordt'
p237
(dp238
S'VERB'
p239
F1.0
s(lp240
tp241
a(S'gesteund'
p242
(dp243
S'VERB'
p244
F1.0
s(lp245
(g49
I6
tp246
atp247
a(S'door'
p248
(dp249
S'ADV'
p250
F0.0
sS'CONJ'
p251
F1.9e-05
sS'ADP'
p252
F0.999981
s(lp253
(g42
I5
tp254
atp255
a(S'het'
p256
(dp257
S'PRON'
p258
F0.0058200000000000005
sS'DET'
p259
F0.99418
s(lp260
(g58
I2
tp261
atp262
a(S'tsjechisch'
p263
(dp264
S'NOUN'
p265
F0.000155
sS'ADJ'
p266
F0.999845
s(lp267
(g73
I3
tp268
atp269
a(S'voorzitterschap'
p270
(dp271
S'NOUN'
p272
F1.0
s(lp273
(g65
I4
tp274
atp275
a(g97
(dp276
g97
F1.0
s(lp277
(g97
I10
tp278
atp279
asS'de'
p280
(lp281
(S'ich'
p282
(dp283
S'PRON'
p284
F1.0
s(lp285
(g10
I0
tp286
atp287
a(S'sch\xc3\xa4tze'
p288
(dp289
S'VERB'
p290
F1.0
s(lp291
(g17
I1
tp292
atp293
a(S'die'
p294
(dp295
S'PRON'
p296
F0.00064
sS'DET'
p297
F0.99936
s(lp298
(g58
I2
tp299
atp300
a(S'unterst\xc3\xbctzung'
p301
(dp302
S'ADJ'
p303
F9.3e-05
sS'NOUN'
p304
F0.999813
s(lp305
(g49
I6
tp306
atp307
a(S'der'
p308
(dp309
S'PRON'
p310
F8.6e-05
sS'DET'
p311
F0.999906
s(lp312
(g42
I5
tp313
atp314
a(S'tschechischen'
p315
(dp316
S'ADJ'
p317
F1.0
s(lp318
(g73
I3
tp319
atp320
a(S'pr\xc3\xa4sidentschaft'
p321
(dp322
S'VERB'
p323
F1.8e-05
sS'NOUN'
p324
F0.999955
s(lp325
(g65
I4
tp326
atp327
a(S'f\xc3\xbcr'
p328
(dp329
S'ADP'
p330
F1.0
s(lp331
(g80
I7
tp332
atp333
a(S'diese'
p334
(dp335
S'PRON'
p336
F1.0
s(lp337
(g87
I8
tp338
atp339
a(S'fassung'
p340
(dp341
S'ADJ'
p342
F0.042024
sS'NOUN'
p343
F0.955204
s(lp344
(g94
I9
tp345
atp346
a(g97
(dp347
g97
F1.0
s(lp348
(g97
I10
tp349
atp350
asS'it'
p351
(lp352
(S'apprezzo'
p353
(dp354
S'VERB'
p355
F1.0
s(lp356
(g17
I1
tp357
atp358
a(S'il'
p359
(dp360
S'DET'
p361
F1.0
s(lp362
(g58
I2
tp363
atp364
a(S'sostegno'
p365
(dp366
S'NOUN'
p367
F1.0
s(lp368
tp369
a(S'manifestato'
p370
(dp371
S'VERB'
p372
F1.0
s(lp373
(g49
I6
tp374
atp375
a(g38
(dp376
S'CONJ'
p377
F0.000457
sS'ADP'
p378
F0.999543
s(lp379
(g80
I7
tp380
atp381
a(S'tale'
p382
(dp383
S'PRON'
p384
F0.999887
sS'CONJ'
p385
F3.1e-05
sS'NOUN'
p386
F8.2e-05
s(lp387
(g87
I8
tp388
atp389
a(S'versione'
p390
(dp391
S'NOUN'
p392
F1.0
s(lp393
(g94
I9
tp394
atp395
a(S'dalla'
p396
(dp397
S'NOUN'
p398
F3e-06
sS'ADP'
p399
F0.999997
s(lp400
(g42
I5
tp401
atp402
a(S'presidenza'
p403
(dp404
S'NOUN'
p405
F1.0
s(lp406
(g65
I4
tp407
atp408
a(S'ceca'
p409
(dp410
S'NOUN'
p411
F0.015475
sS'ADJ'
p412
F0.984525
s(lp413
(g73
I3
tp414
atp415
a(g97
(dp416
g97
F1.0
s(lp417
(g97
I10
tp418
atp419
asS'sk'
p420
(lp421
(S'oce\xc5\x88ujem'
p422
(dp423
S'VERB'
p424
F1.0
s(lp425
(g17
I1
tp426
atp427
a(S'podporu'
p428
(dp429
S'NOUN'
p430
F1.0
s(lp431
(g49
I6
tp432
atp433
a(S'tohto'
p434
(dp435
S'PRON'
p436
F0.999604
sg6
F0.000396
s(lp437
(g87
I8
tp438
atp439
a(S'znenia'
p440
(dp441
S'NOUN'
p442
F1.0
s(lp443
(g94
I9
tp444
atp445
a(S'zo'
p446
(dp447
g6
F0.0027919999999999998
sS'ADP'
p448
F0.997208
s(lp449
tp450
a(S'strany'
p451
(dp452
S'NOUN'
p453
F1.0
s(lp454
(g42
I5
tp455
atp456
a(S'\xc4\x8desk\xc3\xa9ho'
p457
(dp458
g6
F0.000911
sS'ADJ'
p459
F0.999089
s(lp460
(g73
I3
tp461
atp462
a(S'predsedn\xc3\xadctva'
p463
(dp464
S'NOUN'
p465
F1.0
s(lp466
(g65
I4
tp467
atp468
a(g97
(dp469
g97
F1.0
s(lp470
(g97
I10
tp471
atp472
asS'pl'
p473
(lp474
(S'doceniam'
p475
(dp476
S'ADV'
p477
F0.000499
sS'ADJ'
p478
F0.00015299999999999998
sS'VERB'
p479
F0.9928480000000001
sS'NOUN'
p480
F0.006500000000000001
s(lp481
(g17
I1
tp482
atp483
a(S'poparcie'
p484
(dp485
S'VERB'
p486
F0.379352
sS'NOUN'
p487
F0.620647
s(lp488
(g49
I6
tp489
atp490
a(S'prezydencji'
p491
(dp492
S'NOUN'
p493
F1.0
s(lp494
(g65
I4
tp495
atp496
a(S'czeskiej'
p497
(dp498
S'ADJ'
p499
F1.0
s(lp500
(g73
I3
tp501
atp502
a(S'dla'
p503
(dp504
S'ADP'
p505
F1.0
s(lp506
(g80
I7
tp507
atp508
a(S'tej'
p509
(dp510
S'PRON'
p511
F4.5e-05
sS'ADJ'
p512
F0.999954
sg6
F0.0
s(lp513
(g87
I8
tp514
atp515
a(S'wersji'
p516
(dp517
S'NOUN'
p518
F1.0
s(lp519
(g94
I9
tp520
atp521
a(g97
(dp522
g97
F1.0
s(lp523
(g97
I10
tp524
atp525
asS'sl'
p526
(lp527
(S'cenim'
p528
(dp529
S'ADV'
p530
F0.003197
sS'NOUN'
p531
F0.043255000000000016
sS'VERB'
p532
F0.7375990000000001
sS'ADJ'
p533
F0.21594500000000008
s(lp534
(g17
I1
tp535
atp536
a(S'podporo'
p537
(dp538
S'NOUN'
p539
F1.0
s(lp540
(g49
I6
tp541
atp542
a(S'\xc4\x8de\xc5\xa1kega'
p543
(dp544
S'ADJ'
p545
F1.0
s(lp546
(g73
I3
tp547
atp548
a(S'predsedstva'
p549
(dp550
S'NOUN'
p551
F1.0
s(lp552
(g65
I4
tp553
atp554
a(S'tej'
p555
(dp556
S'PRON'
p557
F1.0
s(lp558
(g87
I8
tp559
atp560
a(S'razli\xc4\x8dici'
p561
(dp562
S'NOUN'
p563
F1.0
s(lp564
(g94
I9
tp565
atp566
a(g97
(dp567
g97
F1.0
s(lp568
(g97
I10
tp569
atp570
asS'es'
p571
(lp572
(S'quiero'
p573
(dp574
S'VERB'
p575
F1.0
s(lp576
(g10
I0
tp577
atp578
a(S'expresar'
p579
(dp580
S'VERB'
p581
F1.0
s(lp582
(g10
I0
tp583
atp584
a(S'mi'
p585
(dp586
S'PRON'
p587
F1.0
s(lp588
tp589
a(S'reconocimiento'
p590
(dp591
S'NOUN'
p592
F1.0
s(lp593
(g17
I1
tp594
atp595
a(g38
(dp596
g6
F0.000427
sS'CONJ'
p597
F3e-06
sS'ADP'
p598
F0.99957
s(lp599
(g10
I0
tp600
atp601
a(S'la'
p602
(dp603
g6
F0.0
sS'PRON'
p604
F0.0
sS'DET'
p605
F0.999999
sS'NOUN'
p606
F0.0
s(lp607
(g58
I2
tp608
atp609
a(S'presidencia'
p610
(dp611
S'NOUN'
p612
F1.0
s(lp613
(g65
I4
tp614
atp615
a(S'checa'
p616
(dp617
S'NOUN'
p618
F1.0
s(lp619
(g73
I3
tp620
atp621
a(S'por'
p622
(dp623
S'ADP'
p624
F1.0
s(lp625
tp626
a(S'el'
p627
(dp628
S'PRON'
p629
F5e-06
sS'DET'
p630
F0.999995
s(lp631
(g42
I5
tp632
atp633
a(S'apoyo'
p634
(dp635
S'NOUN'
p636
F1.0
s(lp637
(g49
I6
tp638
atp639
a(g38
(dp640
g6
F4.4e-05
sS'CONJ'
p641
F4e-06
sS'ADP'
p642
F0.999952
s(lp643
(g80
I7
tp644
atp645
a(S'esta'
p646
(dp647
S'PRON'
p648
F1.0
sS'VERB'
p649
F0.0
s(lp650
(g87
I8
tp651
atp652
a(S'versi\xc3\xb3n'
p653
(dp654
S'NOUN'
p655
F1.0
s(lp656
(g94
I9
tp657
atp658
a(g97
(dp659
g97
F1.0
s(lp660
(g97
I10
tp661
atp662
as.