(dp0
S'fr'
p1
(lp2
(S'pour'
p3
(dp4
S'CONJ'
p5
F0.271004
sS'ADP'
p6
F0.728996
s(lp7
(S'for'
p8
I0
tp9
atp10
a(S'cette'
p11
(dp12
S'PRON'
p13
F1.0
s(lp14
(S'this'
p15
I1
tp16
atp17
a(S'raison'
p18
(dp19
S'NOUN'
p20
F1.0
s(lp21
(S'reason'
p22
I2
tp23
atp24
a(S','
p25
(dp26
S'.'
p27
F1.0
s(lp28
tp29
a(S'la'
p30
(dp31
S'PRON'
p32
F6.9e-05
sS'DET'
p33
F0.999931
sS'NOUN'
p34
F0.0
s(lp35
(S'the'
p36
I3
tp37
atp38
a(S'commission'
p39
(dp40
S'NOUN'
p41
F1.0
s(lp42
(S'commission'
p43
I4
tp44
atp45
a(S'soumettra'
p46
(dp47
S'VERB'
p48
F1.0
s(lp49
(S'submit'
p50
I7
tp51
atp52
a(S'bient\xc3\xb4t'
p53
(dp54
S'ADV'
p55
F1.0
s(lp56
(S'soon'
p57
I6
tp58
atp59
a(S'un'
p60
(dp61
S'NOUN'
p62
F2.4e-05
sS'NUM'
p63
F0.01081
sS'DET'
p64
F0.989167
s(lp65
(S'a'
p66
I8
tp67
atp68
a(S'rapport'
p69
(dp70
S'NOUN'
p71
F1.0
s(lp72
(S'report'
p73
I9
tp74
atp75
a(S'visant'
p76
(dp77
S'VERB'
p78
F1.0
s(lp79
(S'aimed'
p80
I10
tp81
atp82
a(S'\xc3\xa0'
p83
(dp84
S'ADP'
p85
F1.0
s(lp86
(S'at'
p87
I11
tp88
atp89
a(S'aider'
p90
(dp91
S'VERB'
p92
F1.0
s(lp93
(S'helping'
p94
I12
tp95
atp96
a(S'les'
p97
(dp98
S'PRON'
p99
F3.1e-05
sS'DET'
p100
F0.999948
sS'ADP'
p101
F2.1e-05
s(lp102
(S'the'
p103
I13
tp104
atp105
a(S'partenaires'
p106
(dp107
S'NOUN'
p108
F1.0
s(lp109
(S'partners'
p110
I15
tp111
atp112
a(S'sociaux'
p113
(dp114
S'ADJ'
p115
F1.0
s(lp116
(S'social'
p117
I14
tp118
atp119
a(S'\xc3\xa0'
p120
(dp121
S'ADP'
p122
F1.0
s(lp123
(S'to'
p124
I16
tp125
atp126
a(S'prendre'
p127
(dp128
S'VERB'
p129
F1.0
s(lp130
(S'take'
p131
I17
tp132
atp133
a(S"d'"
p134
(dp135
S'ADJ'
p136
F0.050629
sS'VERB'
p137
F0.794975
sS'NOUN'
p138
F0.154398
s(lp139
tp140
a(S'autres'
p141
(dp142
S'ADJ'
p143
F1.0
s(lp144
(S'further'
p145
I18
tp146
atp147
a(S'mesures'
p148
(dp149
S'VERB'
p150
F0.017047
sS'NOUN'
p151
F0.982953
s(lp152
(S'steps'
p153
I19
tp154
atp155
a(S'en'
p156
(dp157
S'PRON'
p158
F0.000398
sS'ADP'
p159
F0.999602
s(lp160
(S'in'
p161
I20
tp162
atp163
a(S'la'
p164
(dp165
S'PRON'
p166
F1.3e-05
sS'DET'
p167
F0.999987
sS'NOUN'
p168
F0.0
s(lp169
(S'this'
p170
I21
tp171
atp172
a(S'mati\xc3\xa8re'
p173
(dp174
S'NOUN'
p175
F1.0
s(lp176
(S'area'
p177
I22
tp178
atp179
a(g25
(dp180
g27
F1.0
s(lp181
(g25
I23
tp182
atp183
a(S'par'
p184
(dp185
S'NOUN'
p186
F1e-06
sS'ADP'
p187
F0.999999
s(lp188
tp189
a(S'exemple'
p190
(dp191
S'NOUN'
p192
F1.0
s(lp193
(S'example'
p194
I25
tp195
atp196
a(g25
(dp197
g27
F1.0
s(lp198
tp199
a(S'par'
p200
(dp201
S'NOUN'
p202
F1e-06
sS'ADP'
p203
F0.999999
s(lp204
tp205
a(S'le'
p206
(dp207
S'PRON'
p208
F0.000104
sS'DET'
p209
F0.999896
s(lp210
(S'the'
p211
I31
tp212
atp213
a(S'biais'
p214
(dp215
S'ADJ'
p216
F0.363792
sS'NOUN'
p217
F0.636208
s(lp218
(S'through'
p219
I26
tp220
atp221
a(S"d'"
p222
(dp223
S'ADJ'
p224
F0.184822
sS'VERB'
p225
F0.5771709999999999
sS'NOUN'
p226
F0.238008
s(lp227
tp228
a(S'une'
p229
(dp230
S'NOUN'
p231
F0.000498
sS'NUM'
p232
F0.022449
sS'DET'
p233
F0.977053
s(lp234
tp235
a(S'mise'
p236
(dp237
S'ADJ'
p238
F0.042365
sS'VERB'
p239
F0.004709
sS'NOUN'
p240
F0.952927
s(lp241
(S'implementation'
p242
I29
tp243
atp244
a(S'en'
p245
(dp246
S'PRON'
p247
F0.226705
sS'ADP'
p248
F0.773295
s(lp249
tp250
a(S'\xc5\x93uvre'
p251
(dp252
S'VERB'
p253
F0.245337
sS'NOUN'
p254
F0.754663
s(lp255
(g242
I29
tp256
atp257
a(S'plus'
p258
(dp259
S'ADV'
p260
F0.999683
sS'VERB'
p261
F0.000316
s(lp262
(S'more'
p263
I27
tp264
atp265
a(S'efficace'
p266
(dp267
S'NOUN'
p268
F0.011335
sS'ADJ'
p269
F0.988665
s(lp270
(S'effective'
p271
I28
tp272
atp273
a(S'des'
p274
(dp275
S'DET'
p276
F2.2e-05
sS'ADP'
p277
F0.999978
s(lp278
(S'of'
p279
I30
tp280
atp281
a(S'orientations'
p282
(dp283
S'NOUN'
p284
F1.0
s(lp285
(S'guidelines'
p286
I33
tp287
atp288
a(S'existantes'
p289
(dp290
S'ADJ'
p291
F1.0
s(lp292
(S'existing'
p293
I32
tp294
atp295
a(g25
(dp296
g27
F1.0
s(lp297
(S'and'
p298
I34
tp299
atp300
a(S'en'
p301
(dp302
S'PRON'
p303
F0.530097
sS'ADP'
p304
F0.469903
s(lp305
(S'by'
p306
I35
tp307
atp308
a(S'\xc3\xa9tendant'
p309
(dp310
S'VERB'
p311
F1.0
s(lp312
(S'extending'
p313
I36
tp314
atp315
a(S'la'
p316
(dp317
S'PRON'
p318
F0.000105
sS'DET'
p319
F0.999882
sS'NOUN'
p320
F1.4e-05
s(lp321
(S'the'
p322
I37
tp323
atp324
a(S'port\xc3\xa9e'
p325
(dp326
S'ADJ'
p327
F0.130678
sS'VERB'
p328
F0.02772
sS'NOUN'
p329
F0.841603
s(lp330
(S'scope'
p331
I38
tp332
atp333
a(S'des'
p334
(dp335
S'DET'
p336
F2.2e-05
sS'ADP'
p337
F0.999978
s(lp338
(S'of'
p339
I39
tp340
atp341
a(S'principes'
p342
(dp343
S'NOUN'
p344
F1.0
s(lp345
(S'principles'
p346
I41
tp347
atp348
a(S'et'
p349
(dp350
S'CONJ'
p351
F1.0
s(lp352
(S'and'
p353
I42
tp354
atp355
a(S'en'
p356
(dp357
S'PRON'
p358
F0.713796
sS'ADP'
p359
F0.286204
s(lp360
tp361
a(S'd\xc3\xa9finissant'
p362
(dp363
S'VERB'
p364
F0.961379
sS'NOUN'
p365
F0.038621
s(lp366
(S'defining'
p367
I43
tp368
atp369
a(S'des'
p370
(dp371
S'DET'
p372
F0.000124
sS'ADP'
p373
F0.999876
s(lp374
tp375
a(S'mani\xc3\xa8res'
p376
(dp377
S'VERB'
p378
F0.0
sS'NOUN'
p379
F1.0
s(lp380
(S'ways'
p381
I44
tp382
atp383
a(S'de'
p384
(dp385
S'ADP'
p386
F1.0
s(lp387
(S'of'
p388
I45
tp389
atp390
a(S'traiter'
p391
(dp392
S'VERB'
p393
F1.0
s(lp394
(S'dealing'
p395
I46
tp396
atp397
a(S'des'
p398
(dp399
S'DET'
p400
F0.000198
sS'ADP'
p401
F0.999802
s(lp402
(S'with'
p403
I47
tp404
atp405
a(S'probl\xc3\xa8mes'
p406
(dp407
S'NOUN'
p408
F1.0
s(lp409
(S'problems'
p410
I50
tp411
atp412
a(S'graves'
p413
(dp414
S'NOUN'
p415
F0.107842
sS'VERB'
p416
F0.024804
sS'ADJ'
p417
F0.867354
s(lp418
(S'serious'
p419
I49
tp420
atp421
a(S'existants'
p422
(dp423
S'ADJ'
p424
F1.0
s(lp425
(S'exist'
p426
I52
tp427
atp428
a(g27
(dp429
g27
F1.0
s(lp430
(g27
I53
tp431
atp432
asS'en'
p433
(lp434
(g8
(dp435
S'ADP'
p436
F1.0
s(lp437
(g8
I0
tp438
atp439
a(g15
(dp440
S'ADV'
p441
F1.2e-05
sS'NOUN'
p442
F2.1e-05
sS'DET'
p443
F0.999967
s(lp444
(g15
I1
tp445
atp446
a(g22
(dp447
S'VERB'
p448
F0.007829000000000001
sS'NOUN'
p449
F0.992171
s(lp450
(g22
I2
tp451
atp452
a(g36
(dp453
S'NOUN'
p454
F3e-06
sS'DET'
p455
F0.999997
s(lp456
(g36
I3
tp457
atp458
a(g43
(dp459
S'VERB'
p460
F4e-06
sS'NOUN'
p461
F0.999997
s(lp462
(g43
I4
tp463
atp464
a(S'will'
p465
(dp466
S'VERB'
p467
F0.999385
sS'NOUN'
p468
F0.000615
s(lp469
(g465
I5
tp470
atp471
a(g57
(dp472
S'ADV'
p473
F1.0
s(lp474
(g57
I6
tp475
atp476
a(g50
(dp477
S'VERB'
p478
F1.0
s(lp479
(g50
I7
tp480
atp481
a(g66
(dp482
S'NOUN'
p483
F0.0
sS'DET'
p484
F1.0
s(lp485
(g66
I8
tp486
atp487
a(g73
(dp488
S'VERB'
p489
F0.002197
sS'NOUN'
p490
F0.997804
s(lp491
(g73
I9
tp492
atp493
a(g80
(dp494
S'VERB'
p495
F1.0
s(lp496
(g80
I10
tp497
atp498
a(g87
(dp499
S'NOUN'
p500
F1.7e-05
sS'ADP'
p501
F0.999983
s(lp502
(g87
I11
tp503
atp504
a(g94
(dp505
S'VERB'
p506
F0.999857
sS'NOUN'
p507
F0.000143
s(lp508
(g94
I12
tp509
atp510
a(g103
(dp511
S'NOUN'
p512
F0.0
sS'DET'
p513
F1.0
s(lp514
(g103
I13
tp515
atp516
a(g117
(dp517
S'NOUN'
p518
F0.002134
sS'ADJ'
p519
F0.997866
s(lp520
(g117
I14
tp521
atp522
a(g110
(dp523
S'VERB'
p524
F2.1e-05
sS'NOUN'
p525
F0.9999790000000001
s(lp526
(g110
I15
tp527
atp528
a(g124
(dp529
S'ADV'
p530
F0.0
sS'PRT'
p531
F1.0
sS'ADP'
p532
F0.0
s(lp533
(g124
I16
tp534
atp535
a(g131
(dp536
S'VERB'
p537
F0.999992
sS'NOUN'
p538
F8e-06
s(lp539
(g131
I17
tp540
atp541
a(g145
(dp542
S'ADV'
p543
F0.000422
sS'VERB'
p544
F0.000222
sS'ADJ'
p545
F0.999355
s(lp546
(g145
I18
tp547
atp548
a(g153
(dp549
S'VERB'
p550
F0.000154
sS'NOUN'
p551
F0.999846
s(lp552
(g153
I19
tp553
atp554
a(g161
(dp555
S'ADV'
p556
F0.000295
sS'PRT'
p557
F0.000235
sS'ADP'
p558
F0.999469
s(lp559
(g161
I20
tp560
atp561
a(g170
(dp562
S'ADV'
p563
F3e-06
sS'NOUN'
p564
F1.9e-05
sS'DET'
p565
F0.999978
s(lp566
(g170
I21
tp567
atp568
a(g177
(dp569
S'NOUN'
p570
F1.0
s(lp571
(g177
I22
tp572
atp573
a(g25
(dp574
g27
F1.0
s(lp575
(g25
I23
tp576
atp577
a(S'for'
p578
(dp579
S'ADP'
p580
F1.0
s(lp581
(g578
I24
tp582
atp583
a(g194
(dp584
S'NOUN'
p585
F1.0
s(lp586
(g194
I25
tp587
atp588
a(g219
(dp589
S'ADV'
p590
F0.01007
sS'PRT'
p591
F0.011501
sS'ADJ'
p592
F2.8e-05
sS'ADP'
p593
F0.978401
s(lp594
(g219
I26
tp595
atp596
a(g263
(dp597
S'ADV'
p598
F0.532304
sS'ADJ'
p599
F0.467696
s(lp600
(g263
I27
tp601
atp602
a(g271
(dp603
S'NOUN'
p604
F0.010089
sS'ADJ'
p605
F0.989911
s(lp606
(g271
I28
tp607
atp608
a(g242
(dp609
S'NOUN'
p610
F1.0
s(lp611
(g242
I29
tp612
atp613
a(g279
(dp614
S'ADP'
p615
F1.0
s(lp616
(g279
I30
tp617
atp618
a(g211
(dp619
S'NOUN'
p620
F1e-06
sS'DET'
p621
F0.999999
s(lp622
(g211
I31
tp623
atp624
a(g293
(dp625
S'VERB'
p626
F0.118417
sS'ADJ'
p627
F0.881583
s(lp628
(g293
I32
tp629
atp630
a(g286
(dp631
S'NOUN'
p632
F1.0
s(lp633
(g286
I33
tp634
atp635
a(g298
(dp636
S'CONJ'
p637
F0.999999
sS'NOUN'
p638
F1e-06
s(lp639
(g298
I34
tp640
atp641
a(g306
(dp642
S'ADV'
p643
F0.001797
sS'NOUN'
p644
F1e-06
sS'ADP'
p645
F0.998202
s(lp646
(g306
I35
tp647
atp648
a(g313
(dp649
S'VERB'
p650
F1.0
s(lp651
(g313
I36
tp652
atp653
a(g322
(dp654
S'NOUN'
p655
F1e-06
sS'DET'
p656
F0.999999
s(lp657
(g322
I37
tp658
atp659
a(g331
(dp660
S'NOUN'
p661
F1.0
s(lp662
(g331
I38
tp663
atp664
a(g339
(dp665
S'ADP'
p666
F1.0
s(lp667
(g339
I39
tp668
atp669
a(S'the'
p670
(dp671
S'NOUN'
p672
F1.1e-05
sS'DET'
p673
F0.999989
s(lp674
(g670
I40
tp675
atp676
a(g346
(dp677
S'NOUN'
p678
F1.0
s(lp679
(g346
I41
tp680
atp681
a(g353
(dp682
S'CONJ'
p683
F1.0
sS'NOUN'
p684
F0.0
s(lp685
(g353
I42
tp686
atp687
a(g367
(dp688
S'VERB'
p689
F1.0
s(lp690
(g367
I43
tp691
atp692
a(g381
(dp693
S'NOUN'
p694
F1.0
s(lp695
(g381
I44
tp696
atp697
a(g388
(dp698
S'ADP'
p699
F1.0
s(lp700
(g388
I45
tp701
atp702
a(g395
(dp703
S'VERB'
p704
F0.913863
sS'NOUN'
p705
F0.086137
s(lp706
(g395
I46
tp707
atp708
a(g403
(dp709
S'ADP'
p710
F1.0
s(lp711
(g403
I47
tp712
atp713
a(S'the'
p714
(dp715
S'NOUN'
p716
F1e-06
sS'DET'
p717
F0.999999
s(lp718
(g714
I48
tp719
atp720
a(g419
(dp721
S'ADJ'
p722
F1.0
s(lp723
(g419
I49
tp724
atp725
a(g410
(dp726
S'NOUN'
p727
F1.0
s(lp728
(g410
I50
tp729
atp730
a(S'that'
p731
(dp732
S'ADV'
p733
F0.001561
sS'DET'
p734
F0.998397
sS'ADP'
p735
F4.2e-05
s(lp736
(g731
I51
tp737
atp738
a(g426
(dp739
S'VERB'
p740
F1.0
s(lp741
(g426
I52
tp742
atp743
a(g27
(dp744
g27
F1.0
s(lp745
(g27
I53
tp746
atp747
asS'nl'
p748
(lp749
(S'daarom'
p750
(dp751
S'ADV'
p752
F1.0
s(lp753
(g22
I2
tp754
atp755
a(S'zal'
p756
(dp757
S'VERB'
p758
F1.0
s(lp759
(g465
I5
tp760
atp761
a(S'de'
p762
(dp763
S'DET'
p764
F1.0
s(lp765
(g36
I3
tp766
atp767
a(S'commissie'
p768
(dp769
S'NOUN'
p770
F1.0
s(lp771
(g43
I4
tp772
atp773
a(S'binnenkort'
p774
(dp775
S'ADV'
p776
F1.0
s(lp777
(g57
I6
tp778
atp779
a(S'een'
p780
(dp781
S'ADJ'
p782
F1.1e-05
sS'PRON'
p783
F2e-05
sS'NUM'
p784
F1e-06
sS'DET'
p785
F0.999968
s(lp786
(g66
I8
tp787
atp788
a(S'verslag'
p789
(dp790
S'NOUN'
p791
F1.0
s(lp792
(g73
I9
tp793
atp794
a(S'indienen'
p795
(dp796
S'VERB'
p797
F0.997608
sS'NOUN'
p798
F0.002392
s(lp799
(g50
I7
tp800
atp801
a(S'om'
p802
(dp803
S'ADV'
p804
F0.001775
sS'CONJ'
p805
F0.838411
sS'ADP'
p806
F0.159814
s(lp807
(g80
I10
tp808
atp809
a(S'de'
p810
(dp811
S'DET'
p812
F1.0
s(lp813
(g103
I13
tp814
atp815
a(S'sociale'
p816
(dp817
S'NOUN'
p818
F0.0
sS'ADJ'
p819
F1.0
s(lp820
(g117
I14
tp821
atp822
a(S'partners'
p823
(dp824
S'NOUN'
p825
F1.0
s(lp826
(g110
I15
tp827
atp828
a(S'te'
p829
(dp830
S'PRT'
p831
F1.0
s(lp832
(g94
I12
tp833
atp834
a(S'helpen'
p835
(dp836
S'VERB'
p837
F0.9999920000000001
sS'NOUN'
p838
F8e-06
s(lp839
tp840
a(S'verdere'
p841
(dp842
S'NOUN'
p843
F0.000129
sS'ADJ'
p844
F0.999871
s(lp845
(g145
I18
tp846
atp847
a(S'stappen'
p848
(dp849
S'VERB'
p850
F0.006685
sS'NOUN'
p851
F0.9933150000000001
s(lp852
tp853
a(S'op'
p854
(dp855
S'ADV'
p856
F0.001611
sS'ADJ'
p857
F0.0
sS'ADP'
p858
F0.998389
s(lp859
(g161
I20
tp860
atp861
a(S'dit'
p862
(dp863
S'PRON'
p864
F1.0
s(lp865
(g170
I21
tp866
atp867
a(S'gebied'
p868
(dp869
S'VERB'
p870
F0.00026
sS'NOUN'
p871
F0.99974
s(lp872
(g177
I22
tp873
atp874
a(S'te'
p875
(dp876
S'PRT'
p877
F1.0
s(lp878
(g94
I12
tp879
atp880
a(S'zetten'
p881
(dp882
S'VERB'
p883
F0.999951
sS'NOUN'
p884
F4.9e-05
s(lp885
(g153
I19
tp886
atp887
a(g25
(dp888
g27
F1.0
s(lp889
(g25
I23
tp890
atp891
a(S'bijvoorbeeld'
p892
(dp893
S'ADV'
p894
F1.0
s(lp895
(g194
I25
tp896
atp897
a(S'door'
p898
(dp899
S'ADV'
p900
F5e-06
sS'CONJ'
p901
F7.7e-05
sS'ADP'
p902
F0.999919
s(lp903
(g219
I26
tp904
atp905
a(S'een'
p906
(dp907
S'ADJ'
p908
F1e-06
sS'PRON'
p909
F0.018286
sS'NUM'
p910
F1e-06
sS'DET'
p911
F0.981712
s(lp912
tp913
a(S'meer'
p914
(dp915
S'ADV'
p916
F0.956505
sS'NUM'
p917
F0.043104
sS'NOUN'
p918
F0.000388
sS'VERB'
p919
F3e-06
s(lp920
(g263
I27
tp921
atp922
a(S'doeltreffende'
p923
(dp924
S'NOUN'
p925
F5.4e-05
sS'ADJ'
p926
F0.999946
s(lp927
(g271
I28
tp928
atp929
a(S'tenuitvoerlegging'
p930
(dp931
S'NOUN'
p932
F1.0
s(lp933
(g242
I29
tp934
atp935
a(S'van'
p936
(dp937
S'ADP'
p938
F1.0
s(lp939
(g279
I30
tp940
atp941
a(S'de'
p942
(dp943
S'DET'
p944
F1.0
s(lp945
(g211
I31
tp946
atp947
a(S'bestaande'
p948
(dp949
S'NOUN'
p950
F0.000184
sS'VERB'
p951
F0.409477
sS'ADJ'
p952
F0.59034
s(lp953
(g293
I32
tp954
atp955
a(S'richtsnoeren'
p956
(dp957
S'NOUN'
p958
F1.0
s(lp959
(g286
I33
tp960
atp961
a(S'en'
p962
(dp963
S'CONJ'
p964
F1.0
s(lp965
(g298
I34
tp966
atp967
a(S'door'
p968
(dp969
S'ADV'
p970
F3e-06
sS'CONJ'
p971
F3.3e-05
sS'ADP'
p972
F0.999964
s(lp973
(g306
I35
tp974
atp975
a(S'de'
p976
(dp977
S'DET'
p978
F1.0
s(lp979
(g322
I37
tp980
atp981
a(S'reikwijdte'
p982
(dp983
S'NOUN'
p984
F1.0
s(lp985
(g331
I38
tp986
atp987
a(S'van'
p988
(dp989
S'ADP'
p990
F1.0
s(lp991
(g339
I39
tp992
atp993
a(S'de'
p994
(dp995
S'DET'
p996
F1.0
s(lp997
(g670
I40
tp998
atp999
a(S'uitgangspunten'
p1000
(dp1001
S'NOUN'
p1002
F1.0
s(lp1003
(g346
I41
tp1004
atp1005
a(S'te'
p1006
(dp1007
S'PRT'
p1008
F1.0
s(lp1009
tp1010
a(S'vergroten'
p1011
(dp1012
S'VERB'
p1013
F0.9999979999999999
sS'NOUN'
p1014
F2e-06
s(lp1015
(g313
I36
tp1016
atp1017
a(S'en'
p1018
(dp1019
S'CONJ'
p1020
F1.0
s(lp1021
(g353
I42
tp1022
atp1023
a(S'methoden'
p1024
(dp1025
S'NOUN'
p1026
F1.0
s(lp1027
tp1028
a(S'te'
p1029
(dp1030
S'PRT'
p1031
F1.0
s(lp1032
(g124
I16
tp1033
atp1034
a(S'ontwikkelen'
p1035
(dp1036
S'VERB'
p1037
F1.0
sS'NOUN'
p1038
F1e-06
s(lp1039
(g131
I17
tp1040
atp1041
a(S'om'
p1042
(dp1043
S'ADV'
p1044
F5.5e-05
sS'CONJ'
p1045
F0.891786
sS'ADP'
p1046
F0.108159
s(lp1047
(g381
I44
tp1048
atp1049
a(S'de'
p1050
(dp1051
S'DET'
p1052
F1.0
s(lp1053
(g714
I48
tp1054
atp1055
a(S'bestaande'
p1056
(dp1057
S'NOUN'
p1058
F0.057416
sS'VERB'
p1059
F0.091285
sS'ADJ'
p1060
F0.851299
s(lp1061
(g426
I52
tp1062
atp1063
a(S'ernstige'
p1064
(dp1065
S'NOUN'
p1066
F1.1e-05
sS'ADJ'
p1067
F0.999989
s(lp1068
(g419
I49
tp1069
atp1070
a(S'problemen'
p1071
(dp1072
S'NOUN'
p1073
F1.0
s(lp1074
(g410
I50
tp1075
atp1076
a(S'aan'
p1077
(dp1078
S'ADV'
p1079
F0.998392
sS'ADP'
p1080
F0.001608
s(lp1081
(g388
I45
tp1082
atp1083
a(S'te'
p1084
(dp1085
S'PRT'
p1086
F1.0
s(lp1087
tp1088
a(S'pakken'
p1089
(dp1090
S'VERB'
p1091
F0.999249
sS'NOUN'
p1092
F0.000751
s(lp1093
(g395
I46
tp1094
atp1095
a(g27
(dp1096
g27
F1.0
s(lp1097
(g27
I53
tp1098
atp1099
asS'de'
p1100
(lp1101
(S'aus'
p1102
(dp1103
S'ADV'
p1104
F4.9e-05
sS'ADP'
p1105
F0.999903
s(lp1106
(g8
I0
tp1107
atp1108
a(S'diesem'
p1109
(dp1110
S'PRON'
p1111
F1.0
s(lp1112
(g15
I1
tp1113
atp1114
a(S'grunde'
p1115
(dp1116
S'ADJ'
p1117
F0.18841
sS'NOUN'
p1118
F0.772227
s(lp1119
(g22
I2
tp1120
atp1121
a(S'wird'
p1122
(dp1123
S'VERB'
p1124
F1.0
s(lp1125
(g465
I5
tp1126
atp1127
a(S'die'
p1128
(dp1129
S'PRON'
p1130
F0.003315
sS'DET'
p1131
F0.996681
s(lp1132
(g36
I3
tp1133
atp1134
a(S'kommission'
p1135
(dp1136
S'ADJ'
p1137
F0.036226
sS'NOUN'
p1138
F0.940343
s(lp1139
(g43
I4
tp1140
atp1141
a(S'demn\xc3\xa4chst'
p1142
(dp1143
S'ADV'
p1144
F1.0
s(lp1145
(g57
I6
tp1146
atp1147
a(S'einen'
p1148
(dp1149
S'ADJ'
p1150
F0.00965
sS'DET'
p1151
F0.987694
s(lp1152
(g66
I8
tp1153
atp1154
a(S'bericht'
p1155
(dp1156
S'ADJ'
p1157
F0.000255
sS'NOUN'
p1158
F0.999633
s(lp1159
(g73
I9
tp1160
atp1161
a(S'vorlegen'
p1162
(dp1163
S'VERB'
p1164
F1.0
s(lp1165
(g50
I7
tp1166
atp1167
a(g25
(dp1168
g27
F1.0
s(lp1169
tp1170
a(S'der'
p1171
(dp1172
S'PRON'
p1173
F0.988543
sS'DET'
p1174
F0.007194
s(lp1175
(g103
I13
tp1176
atp1177
a(S'den'
p1178
(dp1179
S'PRON'
p1180
F0.00124
sS'DET'
p1181
F0.99869
s(lp1182
(g117
I14
tp1183
atp1184
a(S'sozialpartnern'
p1185
(dp1186
S'ADJ'
p1187
F0.030697
sS'NOUN'
p1188
F0.952783
s(lp1189
(g110
I15
tp1190
atp1191
a(S'helfen'
p1192
(dp1193
S'VERB'
p1194
F1.0
s(lp1195
(g94
I12
tp1196
atp1197
a(S'soll'
p1198
(dp1199
S'VERB'
p1200
F1.0
s(lp1201
(g80
I10
tp1202
atp1203
a(g25
(dp1204
g27
F1.0
s(lp1205
tp1206
a(S'in'
p1207
(dp1208
S'ADP'
p1209
F1.0
s(lp1210
(g161
I20
tp1211
atp1212
a(S'diesem'
p1213
(dp1214
S'PRON'
p1215
F1.0
s(lp1216
(g170
I21
tp1217
atp1218
a(S'bereich'
p1219
(dp1220
S'ADJ'
p1221
F0.046991
sS'NOUN'
p1222
F0.944166
s(lp1223
(g177
I22
tp1224
atp1225
a(S'weitere'
p1226
(dp1227
S'ADJ'
p1228
F1.0
s(lp1229
(g145
I18
tp1230
atp1231
a(S'schritte'
p1232
(dp1233
S'VERB'
p1234
F1.0
s(lp1235
(g153
I19
tp1236
atp1237
a(S'zu'
p1238
(dp1239
S'PRT'
p1240
F0.998074
s(lp1241
(g124
I16
tp1242
atp1243
a(S'unternehmen'
p1244
(dp1245
S'VERB'
p1246
F1.0
s(lp1247
(g131
I17
tp1248
atp1249
a(g25
(dp1250
g27
F1.0
s(lp1251
(g25
I23
tp1252
atp1253
a(S'beispielsweise'
p1254
(dp1255
S'ADV'
p1256
F0.999971
sS'ADJ'
p1257
F2.9e-05
s(lp1258
(g194
I25
tp1259
atp1260
a(S'\xc3\xbcber'
p1261
(dp1262
S'PRT'
p1263
F6e-05
sS'ADP'
p1264
F0.99994
s(lp1265
(g219
I26
tp1266
atp1267
a(S'eine'
p1268
(dp1269
S'PRON'
p1270
F0.001197
sS'DET'
p1271
F0.998738
s(lp1272
(g263
I27
tp1273
atp1274
a(S'effektivere'
p1275
(dp1276
S'ADJ'
p1277
F1.0
s(lp1278
(g271
I28
tp1279
atp1280
a(S'umsetzung'
p1281
(dp1282
S'VERB'
p1283
F0.004293
sS'NOUN'
p1284
F0.994143
s(lp1285
(g242
I29
tp1286
atp1287
a(S'der'
p1288
(dp1289
S'PRON'
p1290
F8.9e-05
sS'DET'
p1291
F0.999901
s(lp1292
(g211
I31
tp1293
atp1294
a(S'bestehenden'
p1295
(dp1296
S'ADJ'
p1297
F1.0
s(lp1298
(g293
I32
tp1299
atp1300
a(S'vorgaben'
p1301
(dp1302
S'VERB'
p1303
F1.0
s(lp1304
(g286
I33
tp1305
atp1306
a(S'und'
p1307
(dp1308
S'CONJ'
p1309
F1.0
s(lp1310
(g298
I34
tp1311
atp1312
a(S'eine'
p1313
(dp1314
S'PRON'
p1315
F0.000588
sS'DET'
p1316
F0.999245
s(lp1317
tp1318
a(S'ausweitung'
p1319
(dp1320
S'VERB'
p1321
F0.000124
sS'NOUN'
p1322
F0.999715
s(lp1323
(g313
I36
tp1324
atp1325
a(S'des'
p1326
(dp1327
S'DET'
p1328
F1.0
s(lp1329
(g322
I37
tp1330
atp1331
a(S'geltungsbereichs'
p1332
(dp1333
S'ADJ'
p1334
F0.014127
sS'NOUN'
p1335
F0.966647
s(lp1336
(g331
I38
tp1337
atp1338
a(S'der'
p1339
(dp1340
S'PRON'
p1341
F9.9e-05
sS'DET'
p1342
F0.999828
s(lp1343
(g670
I40
tp1344
atp1345
a(S'grunds\xc3\xa4tze'
p1346
(dp1347
S'ADJ'
p1348
F0.209421
sS'NOUN'
p1349
F0.674021
s(lp1350
(g346
I41
tp1351
atp1352
a(S'sowie'
p1353
(dp1354
S'CONJ'
p1355
F1.0
s(lp1356
(g353
I42
tp1357
atp1358
a(S'durch'
p1359
(dp1360
S'ADV'
p1361
F0.000781
sS'ADP'
p1362
F0.999219
s(lp1363
tp1364
a(S'das'
p1365
(dp1366
S'PRON'
p1367
F0.968695
sS'DET'
p1368
F0.030933
s(lp1369
(g731
I51
tp1370
atp1371
a(S'aufzeigen'
p1372
(dp1373
S'VERB'
p1374
F1.0
s(lp1375
(g367
I43
tp1376
atp1377
a(S'von'
p1378
(dp1379
S'NOUN'
p1380
F0.001179
sS'ADP'
p1381
F0.998821
s(lp1382
tp1383
a(S'm\xc3\xb6glichkeiten'
p1384
(dp1385
S'ADJ'
p1386
F0.414217
sS'NOUN'
p1387
F0.5192
s(lp1388
(g381
I44
tp1389
atp1390
a(S'f\xc3\xbcr'
p1391
(dp1392
S'ADP'
p1393
F1.0
s(lp1394
(g388
I45
tp1395
atp1396
a(S'den'
p1397
(dp1398
S'PRON'
p1399
F7.9e-05
sS'DET'
p1400
F0.999919
s(lp1401
tp1402
a(S'umgang'
p1403
(dp1404
S'ADJ'
p1405
F0.01695
sS'NOUN'
p1406
F0.96836
s(lp1407
(g395
I46
tp1408
atp1409
a(S'mit'
p1410
(dp1411
S'PRT'
p1412
F0.000335
sS'ADP'
p1413
F0.999665
s(lp1414
(g403
I47
tp1415
atp1416
a(S'den'
p1417
(dp1418
S'PRON'
p1419
F0.000112
sS'DET'
p1420
F0.999887
s(lp1421
(g714
I48
tp1422
atp1423
a(S'ernsten'
p1424
(dp1425
S'ADJ'
p1426
F1.0
s(lp1427
(g419
I49
tp1428
atp1429
a(S'aktuellen'
p1430
(dp1431
S'ADJ'
p1432
F1.0
s(lp1433
tp1434
a(S'problemen'
p1435
(dp1436
S'ADJ'
p1437
F0.003623
sS'NOUN'
p1438
F0.993725
s(lp1439
(g410
I50
tp1440
atp1441
a(g27
(dp1442
g27
F1.0
s(lp1443
(g27
I53
tp1444
atp1445
asS'it'
p1446
(lp1447
(S'per'
p1448
(dp1449
S'CONJ'
p1450
F0.034452
sS'ADP'
p1451
F0.965548
s(lp1452
(g8
I0
tp1453
atp1454
a(S'questo'
p1455
(dp1456
S'PRON'
p1457
F1.0
s(lp1458
(g15
I1
tp1459
atp1460
a(S'motivo'
p1461
(dp1462
S'VERB'
p1463
F0.161945
sS'NOUN'
p1464
F0.838055
s(lp1465
(g22
I2
tp1466
atp1467
a(S'la'
p1468
(dp1469
S'PRON'
p1470
F0.000743
sS'DET'
p1471
F0.999257
s(lp1472
(g36
I3
tp1473
atp1474
a(S'commissione'
p1475
(dp1476
S'NOUN'
p1477
F1.0
s(lp1478
(g43
I4
tp1479
atp1480
a(S'presenter\xc3\xa0'
p1481
(dp1482
S'VERB'
p1483
F1.0
s(lp1484
(g50
I7
tp1485
atp1486
a(S'tra'
p1487
(dp1488
S'CONJ'
p1489
F5.4e-05
sS'ADP'
p1490
F0.999946
s(lp1491
tp1492
a(S'breve'
p1493
(dp1494
S'NOUN'
p1495
F0.27504
sS'ADJ'
p1496
F0.72496
s(lp1497
(g57
I6
tp1498
atp1499
a(S'una'
p1500
(dp1501
S'PRON'
p1502
F0.000898
sS'DEF'
p1503
F0.999102
s(lp1504
(g66
I8
tp1505
atp1506
a(S'relazione'
p1507
(dp1508
S'NOUN'
p1509
F1.0
s(lp1510
(g73
I9
tp1511
atp1512
a(S'volta'
p1513
(dp1514
S'ADJ'
p1515
F0.149743
sS'VERB'
p1516
F0.237348
sS'NOUN'
p1517
F0.61291
s(lp1518
(g80
I10
tp1519
atp1520
a(S'ad'
p1521
(dp1522
S'ADP'
p1523
F1.0
s(lp1524
(g87
I11
tp1525
atp1526
a(S'aiutare'
p1527
(dp1528
S'VERB'
p1529
F1.0
s(lp1530
(g94
I12
tp1531
atp1532
a(S'le'
p1533
(dp1534
S'PRON'
p1535
F0.0
sS'DET'
p1536
F1.0
s(lp1537
(g103
I13
tp1538
atp1539
a(S'parti'
p1540
(dp1541
S'VERB'
p1542
F0.0002
sS'NOUN'
p1543
F0.9998
s(lp1544
(g110
I15
tp1545
atp1546
a(S'sociali'
p1547
(dp1548
S'ADJ'
p1549
F1.0
s(lp1550
(g117
I14
tp1551
atp1552
a(g66
(dp1553
S'CONJ'
p1554
F0.000389
sS'ADP'
p1555
F0.999611
s(lp1556
(g124
I16
tp1557
atp1558
a(S'compiere'
p1559
(dp1560
S'VERB'
p1561
F1.0
s(lp1562
(g131
I17
tp1563
atp1564
a(S'altri'
p1565
(dp1566
S'PRON'
p1567
F0.723393
sS'ADJ'
p1568
F0.273059
sS'NOUN'
p1569
F0.003548
s(lp1570
(g145
I18
tp1571
atp1572
a(S'passi'
p1573
(dp1574
S'ADJ'
p1575
F0.163114
sS'VERB'
p1576
F0.29319300000000004
sS'NOUN'
p1577
F0.543693
s(lp1578
(g153
I19
tp1579
atp1580
a(S'in'
p1581
(dp1582
S'ADP'
p1583
F1.0
s(lp1584
(g161
I20
tp1585
atp1586
a(S'questo'
p1587
(dp1588
S'PRON'
p1589
F1.0
s(lp1590
(g170
I21
tp1591
atp1592
a(S'ambito'
p1593
(dp1594
S'ADJ'
p1595
F0.043184
sS'VERB'
p1596
F0.024331
sS'NOUN'
p1597
F0.932486
s(lp1598
(g177
I22
tp1599
atp1600
a(g25
(dp1601
g27
F1.0
s(lp1602
(g25
I23
tp1603
atp1604
a(S'ad'
p1605
(dp1606
S'ADP'
p1607
F1.0
s(lp1608
tp1609
a(S'esempio'
p1610
(dp1611
S'NOUN'
p1612
F1.0
s(lp1613
(g194
I25
tp1614
atp1615
a(S'attuando'
p1616
(dp1617
S'VERB'
p1618
F1.0
s(lp1619
(g242
I29
tp1620
atp1621
a(S'in'
p1622
(dp1623
S'ADP'
p1624
F1.0
s(lp1625
(g219
I26
tp1626
atp1627
a(S'maniera'
p1628
(dp1629
S'NOUN'
p1630
F1.0
s(lp1631
tp1632
a(S'pi\xc3\xb9'
p1633
(dp1634
S'ADV'
p1635
F0.994523
sS'NOUN'
p1636
F2.3e-05
sS'ADJ'
p1637
F0.004709
sS'ADP'
p1638
F0.000745
s(lp1639
(g263
I27
tp1640
atp1641
a(S'efficace'
p1642
(dp1643
S'ADJ'
p1644
F1.0
s(lp1645
(g271
I28
tp1646
atp1647
a(S'gli'
p1648
(dp1649
S'PRON'
p1650
F0.000251
sS'DET'
p1651
F0.999749
s(lp1652
(g211
I31
tp1653
atp1654
a(S'attuali'
p1655
(dp1656
S'VERB'
p1657
F4e-06
sS'ADJ'
p1658
F0.999996
s(lp1659
(g293
I32
tp1660
atp1661
a(S'orientamenti'
p1662
(dp1663
S'NOUN'
p1664
F1.0
s(lp1665
(g286
I33
tp1666
atp1667
a(g25
(dp1668
g27
F1.0
s(lp1669
(g298
I34
tp1670
atp1671
a(S'ampliando'
p1672
(dp1673
S'VERB'
p1674
F1.0
s(lp1675
(g313
I36
tp1676
atp1677
a(S'il'
p1678
(dp1679
S'DET'
p1680
F1.0
s(lp1681
(g322
I37
tp1682
atp1683
a(S'campo'
p1684
(dp1685
S'VERB'
p1686
F9.6e-05
sS'NOUN'
p1687
F0.999904
s(lp1688
tp1689
a(S'di'
p1690
(dp1691
S'CONJ'
p1692
F4e-06
sS'ADP'
p1693
F0.999996
s(lp1694
tp1695
a(S'applicazione'
p1696
(dp1697
S'NOUN'
p1698
F1.0
s(lp1699
(g331
I38
tp1700
atp1701
a(S'dei'
p1702
(dp1703
S'NOUN'
p1704
F3e-06
sS'DEF'
p1705
F0.001209
sS'ADP'
p1706
F0.998788
s(lp1707
(g339
I39
tp1708
atp1709
a(S'principi'
p1710
(dp1711
S'ADJ'
p1712
F0.03231
sS'VERB'
p1713
F1.1e-05
sS'NOUN'
p1714
F0.967679
s(lp1715
(g346
I41
tp1716
atp1717
a(S'e'
p1718
(dp1719
S'CONJ'
p1720
F1.0
s(lp1721
(g353
I42
tp1722
atp1723
a(S'definendo'
p1724
(dp1725
S'VERB'
p1726
F1.0
s(lp1727
(g367
I43
tp1728
atp1729
a(S'alcune'
p1730
(dp1731
S'PRON'
p1732
F1.0
s(lp1733
tp1734
a(S'soluzioni'
p1735
(dp1736
S'NOUN'
p1737
F1.0
s(lp1738
(g381
I44
tp1739
atp1740
a(S'per'
p1741
(dp1742
S'CONJ'
p1743
F0.005329
sS'ADP'
p1744
F0.994671
s(lp1745
(g388
I45
tp1746
atp1747
a(S'affrontare'
p1748
(dp1749
S'VERB'
p1750
F1.0
s(lp1751
(g395
I46
tp1752
atp1753
a(S'i'
p1754
(dp1755
S'DET'
p1756
F1.0
s(lp1757
(g714
I48
tp1758
atp1759
a(S'gravi'
p1760
(dp1761
S'NOUN'
p1762
F0.01569
sS'VERB'
p1763
F0.000892
sS'ADJ'
p1764
F0.983419
s(lp1765
(g419
I49
tp1766
atp1767
a(S'problemi'
p1768
(dp1769
S'NOUN'
p1770
F1.0
s(lp1771
(g410
I50
tp1772
atp1773
a(S'che'
p1774
(dp1775
S'PRON'
p1776
F0.960049
sS'CONJ'
p1777
F0.0391
sS'ADJ'
p1778
F0.000851
s(lp1779
(g731
I51
tp1780
atp1781
a(S'esistono'
p1782
(dp1783
S'VERB'
p1784
F1.0
s(lp1785
(g426
I52
tp1786
atp1787
a(g27
(dp1788
g27
F1.0
s(lp1789
(g27
I53
tp1790
atp1791
asS'sk'
p1792
(lp1793
(S'z'
p1794
(dp1795
S'X'
p1796
F8.1e-05
sS'NOUN'
p1797
F1.9e-05
sS'ADP'
p1798
F0.999899
s(lp1799
(g8
I0
tp1800
atp1801
a(S'tohto'
p1802
(dp1803
S'PRON'
p1804
F0.999971
sg1796
F2.9e-05
s(lp1805
(g15
I1
tp1806
atp1807
a(S'd\xc3\xb4vodu'
p1808
(dp1809
S'NOUN'
p1810
F1.0
s(lp1811
(g22
I2
tp1812
atp1813
a(S'komisia'
p1814
(dp1815
S'NOUN'
p1816
F1.0
s(lp1817
(g43
I4
tp1818
atp1819
a(S'\xc4\x8doskoro'
p1820
(dp1821
S'ADV'
p1822
F1.0
s(lp1823
(g57
I6
tp1824
atp1825
a(S'predlo\xc5\xbe\xc3\xad'
p1826
(dp1827
S'VERB'
p1828
F1.0
s(lp1829
(g50
I7
tp1830
atp1831
a(S'spr\xc3\xa1vu'
p1832
(dp1833
S'NOUN'
p1834
F1.0
s(lp1835
(g73
I9
tp1836
atp1837
a(S's'
p1838
(dp1839
g1796
F0.002775
sS'CONJ'
p1840
F6.4e-05
sS'NOUN'
p1841
F1.4e-05
sS'ADP'
p1842
F0.997126
sS'PRT'
p1843
F2.1e-05
s(lp1844
tp1845
a(S'cie\xc4\xbeom'
p1846
(dp1847
S'NOUN'
p1848
F1.0
s(lp1849
(g80
I10
tp1850
atp1851
a(S'podpori\xc5\xa5'
p1852
(dp1853
S'VERB'
p1854
F1.0
s(lp1855
(g94
I12
tp1856
atp1857
a(S'soci\xc3\xa1lnych'
p1858
(dp1859
S'ADJ'
p1860
F1.0
s(lp1861
(g117
I14
tp1862
atp1863
a(S'partnerov'
p1864
(dp1865
S'NOUN'
p1866
F1.0
s(lp1867
(g110
I15
tp1868
atp1869
a(S'v'
p1870
(dp1871
g1796
F3.8e-05
sS'ADP'
p1872
F0.999962
s(lp1873
(g124
I16
tp1874
atp1875
a(S'\xc4\x8fal\xc5\xa1\xc3\xadch'
p1876
(dp1877
S'ADJ'
p1878
F1.0
s(lp1879
(g145
I18
tp1880
atp1881
a(S'krokoch'
p1882
(dp1883
S'NOUN'
p1884
F1.0
s(lp1885
(g153
I19
tp1886
atp1887
a(g1870
(dp1888
g1796
F1.8e-05
sS'ADP'
p1889
F0.999982
s(lp1890
(g161
I20
tp1891
atp1892
a(S'tejto'
p1893
(dp1894
S'PRON'
p1895
F1.0
s(lp1896
(g170
I21
tp1897
atp1898
a(S'oblasti'
p1899
(dp1900
S'NOUN'
p1901
F1.0
s(lp1902
(g177
I22
tp1903
atp1904
a(g25
(dp1905
g27
F1.0
s(lp1906
(g25
I23
tp1907
atp1908
a(S'napr\xc3\xadklad'
p1909
(dp1910
g1796
F1.0
s(lp1911
(g194
I25
tp1912
atp1913
a(S'efekt\xc3\xadvnej\xc5\xa1ou'
p1914
(dp1915
S'ADJ'
p1916
F1.0
s(lp1917
(g271
I28
tp1918
atp1919
a(S'implement\xc3\xa1ciou'
p1920
(dp1921
S'NOUN'
p1922
F1.0
s(lp1923
(g242
I29
tp1924
atp1925
a(S't\xc3\xbdchto'
p1926
(dp1927
S'PRON'
p1928
F1.0
s(lp1929
(g211
I31
tp1930
atp1931
a(S'orient\xc3\xa1ci\xc3\xad'
p1932
(dp1933
S'NOUN'
p1934
F1.0
s(lp1935
(g286
I33
tp1936
atp1937
a(g66
(dp1938
g1796
F0.000675
sS'CONJ'
p1939
F0.999156
sS'NOUN'
p1940
F1.4e-05
sS'ADP'
p1941
F6e-06
sS'PRT'
p1942
F0.00015
s(lp1943
(g298
I34
tp1944
atp1945
a(S'tie\xc5\xbe'
p1946
(dp1947
g1796
F1.0
s(lp1948
(g306
I35
tp1949
atp1950
a(S'cez'
p1951
(dp1952
S'ADP'
p1953
F1.0
s(lp1954
(g219
I26
tp1955
atp1956
a(S'roz\xc5\xa1\xc3\xadrenie'
p1957
(dp1958
S'NOUN'
p1959
F1.0
s(lp1960
(g313
I36
tp1961
atp1962
a(S'z\xc3\xa1berov'
p1963
(dp1964
S'NOUN'
p1965
F1.0
s(lp1966
(g331
I38
tp1967
atp1968
a(S'z\xc3\xa1sad'
p1969
(dp1970
S'NOUN'
p1971
F1.0
s(lp1972
(g346
I41
tp1973
atp1974
a(g66
(dp1975
g1796
F0.0007580000000000001
sS'CONJ'
p1976
F0.998528
sS'NOUN'
p1977
F5.5e-05
sS'ADP'
p1978
F0.000628
sS'PRT'
p1979
F3.2e-05
s(lp1980
(g353
I42
tp1981
atp1982
a(S'definovanie'
p1983
(dp1984
S'NOUN'
p1985
F1.0
s(lp1986
(g367
I43
tp1987
atp1988
a(S'sp\xc3\xb4sobu'
p1989
(dp1990
S'NOUN'
p1991
F1.0
s(lp1992
(g381
I44
tp1993
atp1994
a(S'vysporiadania'
p1995
(dp1996
S'NOUN'
p1997
F1.0
s(lp1998
tp1999
a(S'sa'
p2000
(dp2001
S'PRT'
p2002
F0.999827
sS'ADP'
p2003
F1e-06
sg1796
F0.00017299999999999998
s(lp2004
(g395
I46
tp2005
atp2006
a(g1838
(dp2007
g1796
F0.000435
sS'CONJ'
p2008
F6e-06
sS'NOUN'
p2009
F2.4e-05
sS'ADP'
p2010
F0.999535
sS'PRT'
p2011
F0.0
s(lp2012
(g403
I47
tp2013
atp2014
a(S'existuj\xc3\xbacimi'
p2015
(dp2016
S'VERB'
p2017
F1.0
s(lp2018
(g426
I52
tp2019
atp2020
a(S'v\xc3\xa1\xc5\xbenymi'
p2021
(dp2022
S'ADJ'
p2023
F1.0
s(lp2024
(g419
I49
tp2025
atp2026
a(S'probl\xc3\xa9mami'
p2027
(dp2028
S'NOUN'
p2029
F1.0
s(lp2030
(g410
I50
tp2031
atp2032
a(g27
(dp2033
g27
F1.0
s(lp2034
(g27
I53
tp2035
atp2036
asS'pl'
p2037
(lp2038
(S'dlatego'
p2039
(dp2040
S'ADV'
p2041
F1.0
s(lp2042
(g22
I2
tp2043
atp2044
a(S'komisja'
p2045
(dp2046
S'NOUN'
p2047
F1.0
s(lp2048
tp2049
a(S'europejska'
p2050
(dp2051
S'ADJ'
p2052
F1.0
s(lp2053
(g43
I4
tp2054
atp2055
a(S'wkr\xc3\xb3tce'
p2056
(dp2057
S'ADV'
p2058
F1.0
s(lp2059
(g57
I6
tp2060
atp2061
a(S'przed\xc5\x82o\xc5\xbcy'
p2062
(dp2063
S'ADJ'
p2064
F0.0006289999999999999
sS'VERB'
p2065
F0.960127
sS'NOUN'
p2066
F0.039243
s(lp2067
(g50
I7
tp2068
atp2069
a(S'sprawozdanie'
p2070
(dp2071
S'NOUN'
p2072
F1.0
s(lp2073
(g73
I9
tp2074
atp2075
a(g25
(dp2076
g1796
F0.0
sg27
F1.0
s(lp2077
tp2078
a(S'kt\xc3\xb3rego'
p2079
(dp2080
S'ADJ'
p2081
F0.999999
s(lp2082
(g80
I10
tp2083
atp2084
a(S'celem'
p2085
(dp2086
S'NOUN'
p2087
F0.999841
sS'ADP'
p2088
F0.000159
s(lp2089
tp2090
a(S'jest'
p2091
(dp2092
S'VERB'
p2093
F1.0
s(lp2094
(g80
I10
tp2095
atp2096
a(S'pom\xc3\xb3c'
p2097
(dp2098
S'VERB'
p2099
F1.0
s(lp2100
(g94
I12
tp2101
atp2102
a(S'partnerom'
p2103
(dp2104
S'ADV'
p2105
F0.003315
sS'ADJ'
p2106
F0.005059000000000002
sS'VERB'
p2107
F0.006337999999999998
sS'NOUN'
p2108
F0.9852940000000001
s(lp2109
(g110
I15
tp2110
atp2111
a(S'spo\xc5\x82ecznym'
p2112
(dp2113
S'ADJ'
p2114
F1.000001
s(lp2115
(g117
I14
tp2116
atp2117
a(S'w'
p2118
(dp2119
S'ADJ'
p2120
F0.0
sg1796
F2e-06
sS'NOUN'
p2121
F0.0
sS'ADP'
p2122
F0.999998
s(lp2123
(g124
I16
tp2124
atp2125
a(S'podj\xc4\x99ciu'
p2126
(dp2127
S'VERB'
p2128
F1.0
s(lp2129
(g131
I17
tp2130
atp2131
a(S'dalszych'
p2132
(dp2133
S'ADJ'
p2134
F1.000002
s(lp2135
(g145
I18
tp2136
atp2137
a(S'dzia\xc5\x82a\xc5\x84'
p2138
(dp2139
S'NOUN'
p2140
F1.0
s(lp2141
(g153
I19
tp2142
atp2143
a(g2118
(dp2144
S'ADJ'
p2145
F0.0
sg1796
F0.0
sS'NOUN'
p2146
F0.0
sS'ADP'
p2147
F0.999999
s(lp2148
(g161
I20
tp2149
atp2150
a(S'tym'
p2151
(dp2152
S'ADV'
p2153
F1e-06
sS'NOUN'
p2154
F0.00624
sS'CONJ'
p2155
F0.0
sS'ADJ'
p2156
F0.9937579999999999
sS'PRT'
p2157
F0.0
s(lp2158
(g170
I21
tp2159
atp2160
a(S'zakresie'
p2161
(dp2162
S'NOUN'
p2163
F1.0
s(lp2164
(g177
I22
tp2165
atp2166
a(g25
(dp2167
g1796
F0.0
sg27
F1.0
s(lp2168
(g25
I23
tp2169
atp2170
a(S'na'
p2171
(dp2172
g1796
F5.2e-05
sS'VERB'
p2173
F2.7000000000000002e-05
sS'NOUN'
p2174
F1e-06
sS'ADP'
p2175
F0.999907
sS'PRT'
p2176
F1.2e-05
s(lp2177
(g578
I24
tp2178
atp2179
a(S'przyk\xc5\x82ad'
p2180
(dp2181
S'NOUN'
p2182
F1.0
s(lp2183
(g194
I25
tp2184
atp2185
a(S'poprzez'
p2186
(dp2187
S'ADP'
p2188
F1.0
s(lp2189
(g219
I26
tp2190
atp2191
a(S'skuteczniejsze'
p2192
(dp2193
S'ADJ'
p2194
F1.0
s(lp2195
(g271
I28
tp2196
atp2197
a(S'stosowanie'
p2198
(dp2199
S'VERB'
p2200
F1.0
s(lp2201
(g242
I29
tp2202
atp2203
a(S'istniej\xc4\x85cych'
p2204
(dp2205
S'VERB'
p2206
F0.9999999999999999
s(lp2207
tp2208
a(S'wytycznych'
p2209
(dp2210
S'ADJ'
p2211
F0.31477400000000005
sS'VERB'
p2212
F0.312725
sS'NOUN'
p2213
F0.372502
s(lp2214
(g286
I33
tp2215
atp2216
a(S'lub'
p2217
(dp2218
S'CONJ'
p2219
F1.0
s(lp2220
(g298
I34
tp2221
atp2222
a(S'poszerzanie'
p2223
(dp2224
S'VERB'
p2225
F1.0
s(lp2226
(g313
I36
tp2227
atp2228
a(S'zakresu'
p2229
(dp2230
S'NOUN'
p2231
F1.0
s(lp2232
(g331
I38
tp2233
atp2234
a(S'obowi\xc4\x85zuj\xc4\x85cych'
p2235
(dp2236
S'VERB'
p2237
F0.000814
sS'ADJ'
p2238
F0.9991850000000001
s(lp2239
(g293
I32
tp2240
atp2241
a(S'zasad'
p2242
(dp2243
S'NOUN'
p2244
F1.0
s(lp2245
(g346
I41
tp2246
atp2247
a(g1754
(dp2248
S'PRT'
p2249
F0.000427
sS'CONJ'
p2250
F0.99957
sS'PRON'
p2251
F0.0
sS'NOUN'
p2252
F0.0
sg1796
F2e-06
s(lp2253
(g353
I42
tp2254
atp2255
a(S'definiowanie'
p2256
(dp2257
S'ADV'
p2258
F0.010932
sS'ADJ'
p2259
F9.4e-05
sS'VERB'
p2260
F0.9433940000000001
sS'NOUN'
p2261
F0.04557700000000001
s(lp2262
(g367
I43
tp2263
atp2264
a(S'sposob\xc3\xb3w'
p2265
(dp2266
S'NOUN'
p2267
F1.0
s(lp2268
(g381
I44
tp2269
atp2270
a(S'walki'
p2271
(dp2272
S'NOUN'
p2273
F1.0
s(lp2274
(g395
I46
tp2275
atp2276
a(g1794
(dp2277
S'PRT'
p2278
F1e-06
sS'VERB'
p2279
F1e-06
sS'NOUN'
p2280
F0.0
sS'ADP'
p2281
F0.9999979999999999
sg1796
F0.0
s(lp2282
(g403
I47
tp2283
atp2284
a(S'powa\xc5\xbcnymi'
p2285
(dp2286
S'ADJ'
p2287
F1.0
s(lp2288
(g419
I49
tp2289
atp2290
a(S'problemami'
p2291
(dp2292
S'NOUN'
p2293
F1.0
s(lp2294
tp2295
a(g25
(dp2296
g1796
F0.0
sg27
F1.0
s(lp2297
tp2298
a(g1794
(dp2299
g1796
F2e-06
sS'VERB'
p2300
F1e-06
sS'NOUN'
p2301
F0.0
sS'ADP'
p2302
F0.999996
sS'PRT'
p2303
F1e-06
s(lp2304
tp2305
a(S'jakimi'
p2306
(dp2307
S'ADJ'
p2308
F1.0
s(lp2309
(g410
I50
tp2310
atp2311
a(S'mamy'
p2312
(dp2313
S'VERB'
p2314
F0.985087
sS'NOUN'
p2315
F0.014913
s(lp2316
tp2317
a(S'obecnie'
p2318
(dp2319
S'ADV'
p2320
F1.0
s(lp2321
(g426
I52
tp2322
atp2323
a(S'do'
p2324
(dp2325
g1796
F0.0
sS'NOUN'
p2326
F4e-06
sS'ADP'
p2327
F0.999996
s(lp2328
tp2329
a(S'czynienia'
p2330
(dp2331
S'VERB'
p2332
F0.482535
sS'NOUN'
p2333
F0.517465
s(lp2334
(g395
I46
tp2335
atp2336
a(g27
(dp2337
g27
F1.0
s(lp2338
(g27
I53
tp2339
atp2340
asS'sl'
p2341
(lp2342
(S'zato'
p2343
(dp2344
S'ADV'
p2345
F0.223962
sS'CONJ'
p2346
F0.776038
s(lp2347
(g22
I2
tp2348
atp2349
a(S'bo'
p2350
(dp2351
S'VERB'
p2352
F1.0
s(lp2353
tp2354
a(S'komisija'
p2355
(dp2356
S'NOUN'
p2357
F1.0
s(lp2358
(g43
I4
tp2359
atp2360
a(S'kmalu'
p2361
(dp2362
S'ADV'
p2363
F1.0
s(lp2364
(g57
I6
tp2365
atp2366
a(S'vlo\xc5\xbeila'
p2367
(dp2368
S'VERB'
p2369
F0.999999
s(lp2370
(g50
I7
tp2371
atp2372
a(S'poro\xc4\x8dilo'
p2373
(dp2374
S'NOUN'
p2375
F1.0
s(lp2376
(g73
I9
tp2377
atp2378
a(g25
(dp2379
g27
F1.0
s(lp2380
tp2381
a(S'ki'
p2382
(dp2383
S'CONJ'
p2384
F1.0
s(lp2385
(g80
I10
tp2386
atp2387
a(S'bo'
p2388
(dp2389
S'VERB'
p2390
F1.0
s(lp2391
(g465
I5
tp2392
atp2393
a(S'posku\xc5\xa1alo'
p2394
(dp2395
S'VERB'
p2396
F1.0
s(lp2397
tp2398
a(S'pomagati'
p2399
(dp2400
S'VERB'
p2401
F1.0
s(lp2402
(g94
I12
tp2403
atp2404
a(S'socialnim'
p2405
(dp2406
S'ADV'
p2407
F9e-06
sS'NOUN'
p2408
F0.00104
sS'VERB'
p2409
F0.000908
sS'ADJ'
p2410
F0.9980440000000002
s(lp2411
(g117
I14
tp2412
atp2413
a(S'partnerjem'
p2414
(dp2415
S'NOUN'
p2416
F1.0
s(lp2417
(g110
I15
tp2418
atp2419
a(S'napredovati'
p2420
(dp2421
S'VERB'
p2422
F1.0
s(lp2423
(g153
I19
tp2424
atp2425
a(S'na'
p2426
(dp2427
S'ADP'
p2428
F1.0
s(lp2429
(g161
I20
tp2430
atp2431
a(S'tem'
p2432
(dp2433
S'ADV'
p2434
F2.1e-05
sS'PRON'
p2435
F0.999979
sS'NOUN'
p2436
F2e-06
s(lp2437
(g170
I21
tp2438
atp2439
a(S'podro\xc4\x8dju'
p2440
(dp2441
S'NOUN'
p2442
F1.0
s(lp2443
(g177
I22
tp2444
atp2445
a(g25
(dp2446
g27
F1.0
s(lp2447
(g25
I23
tp2448
atp2449
a(S'na'
p2450
(dp2451
S'ADP'
p2452
F1.0
s(lp2453
tp2454
a(S'primer'
p2455
(dp2456
S'NOUN'
p2457
F1.0
s(lp2458
(g194
I25
tp2459
atp2460
a(g1794
(dp2461
S'ADP'
p2462
F1.0
s(lp2463
(g219
I26
tp2464
atp2465
a(S'u\xc4\x8dinkovitej\xc5\xa1im'
p2466
(dp2467
S'ADV'
p2468
F0.0
sS'NOUN'
p2469
F3.4e-05
sS'VERB'
p2470
F0.0
sS'ADJ'
p2471
F0.9999650000000001
s(lp2472
(g271
I28
tp2473
atp2474
a(S'izvajanjem'
p2475
(dp2476
S'NOUN'
p2477
F1.0
s(lp2478
(g242
I29
tp2479
atp2480
a(S'obstoje\xc4\x8dih'
p2481
(dp2482
S'ADJ'
p2483
F1.0
s(lp2484
(g293
I32
tp2485
atp2486
a(S'smernic'
p2487
(dp2488
S'NOUN'
p2489
F1.0
s(lp2490
(g286
I33
tp2491
atp2492
a(S'in'
p2493
(dp2494
S'ADV'
p2495
F8e-06
sg1796
F2.2e-05
sS'CONJ'
p2496
F0.999963
sS'NOUN'
p2497
F7e-06
s(lp2498
(g298
I34
tp2499
atp2500
a(S'\xc5\xa1iritvijo'
p2501
(dp2502
S'ADV'
p2503
F0.004423
sS'ADJ'
p2504
F0.033075
sS'VERB'
p2505
F0.0022789999999999998
sS'NOUN'
p2506
F0.9602240000000002
s(lp2507
(g313
I36
tp2508
atp2509
a(S'obsega'
p2510
(dp2511
S'VERB'
p2512
F0.400996
sS'NOUN'
p2513
F0.599004
s(lp2514
(g331
I38
tp2515
atp2516
a(S'na\xc4\x8del'
p2517
(dp2518
S'VERB'
p2519
F0.211495
sS'NOUN'
p2520
F0.788505
s(lp2521
(g346
I41
tp2522
atp2523
a(S'ter'
p2524
(dp2525
S'CONJ'
p2526
F1.0
s(lp2527
(g353
I42
tp2528
atp2529
a(S'opredelitvijo'
p2530
(dp2531
S'ADV'
p2532
F0.004535
sS'ADJ'
p2533
F0.000148
sS'VERB'
p2534
F0.004587999999999999
sS'NOUN'
p2535
F0.9907289999999999
s(lp2536
(g367
I43
tp2537
atp2538
a(S'na\xc4\x8dinov'
p2539
(dp2540
S'NOUN'
p2541
F1.0
s(lp2542
(g381
I44
tp2543
atp2544
a(S'za'
p2545
(dp2546
S'ADV'
p2547
F7e-06
sg1796
F1e-06
sS'ADP'
p2548
F0.9999909999999999
s(lp2549
(g388
I45
tp2550
atp2551
a(S're\xc5\xa1evanje'
p2552
(dp2553
S'NOUN'
p2554
F1.0
s(lp2555
(g395
I46
tp2556
atp2557
a(S'resnih'
p2558
(dp2559
S'ADJ'
p2560
F1.0
s(lp2561
(g419
I49
tp2562
atp2563
a(S'obstoje\xc4\x8dih'
p2564
(dp2565
S'ADJ'
p2566
F1.000001
s(lp2567
(g426
I52
tp2568
atp2569
a(S'te\xc5\xbeav'
p2570
(dp2571
S'NOUN'
p2572
F1.0
s(lp2573
(g410
I50
tp2574
atp2575
a(g27
(dp2576
g27
F1.0
s(lp2577
(g27
I53
tp2578
atp2579
asS'es'
p2580
(lp2581
(S'por'
p2582
(dp2583
S'ADP'
p2584
F1.0
s(lp2585
(g8
I0
tp2586
atp2587
a(S'este'
p2588
(dp2589
S'PRON'
p2590
F0.998667
sS'NOUN'
p2591
F0.001333
s(lp2592
(g15
I1
tp2593
atp2594
a(S'motivo'
p2595
(dp2596
S'ADJ'
p2597
F0.018592
sS'NOUN'
p2598
F0.981408
s(lp2599
(g22
I2
tp2600
atp2601
a(g25
(dp2602
g27
F1.0
s(lp2603
tp2604
a(S'la'
p2605
(dp2606
S'PRON'
p2607
F3.5e-05
sS'DET'
p2608
F0.999959
sS'NOUN'
p2609
F0.0
sg1796
F5e-06
s(lp2610
(g36
I3
tp2611
atp2612
a(S'comisi\xc3\xb3n'
p2613
(dp2614
S'NOUN'
p2615
F1.0
s(lp2616
(g43
I4
tp2617
atp2618
a(S'presentar\xc3\xa1'
p2619
(dp2620
S'VERB'
p2621
F1.0
s(lp2622
(g50
I7
tp2623
atp2624
a(S'pr\xc3\xb3ximamente'
p2625
(dp2626
S'ADV'
p2627
F1.0
s(lp2628
(g57
I6
tp2629
atp2630
a(S'un'
p2631
(dp2632
g1796
F0.0
sS'DET'
p2633
F1.0
s(lp2634
(g66
I8
tp2635
atp2636
a(S'informe'
p2637
(dp2638
S'VERB'
p2639
F8.9e-05
sS'NOUN'
p2640
F0.999911
s(lp2641
(g73
I9
tp2642
atp2643
a(S'dirigido'
p2644
(dp2645
S'VERB'
p2646
F1.0
s(lp2647
(g80
I10
tp2648
atp2649
a(g66
(dp2650
g1796
F3e-06
sS'CONJ'
p2651
F0.10127
sS'ADP'
p2652
F0.898727
s(lp2653
(g87
I11
tp2654
atp2655
a(S'ayudar'
p2656
(dp2657
S'VERB'
p2658
F1.0
s(lp2659
tp2660
a(g66
(dp2661
g1796
F0.000259
sS'CONJ'
p2662
F5e-06
sS'ADP'
p2663
F0.999736
s(lp2664
(g94
I12
tp2665
atp2666
a(S'los'
p2667
(dp2668
S'PRON'
p2669
F0.0
sS'DET'
p2670
F1.0
s(lp2671
(g103
I13
tp2672
atp2673
a(S'interlocutores'
p2674
(dp2675
S'NOUN'
p2676
F1.0
s(lp2677
(g110
I15
tp2678
atp2679
a(S'sociales'
p2680
(dp2681
S'ADJ'
p2682
F1.0
s(lp2683
(g117
I14
tp2684
atp2685
a(g66
(dp2686
g1796
F0.000104
sS'CONJ'
p2687
F0.217351
sS'ADP'
p2688
F0.782545
s(lp2689
(g124
I16
tp2690
atp2691
a(S'adoptar'
p2692
(dp2693
S'VERB'
p2694
F1.0
s(lp2695
(g131
I17
tp2696
atp2697
a(S'nuevas'
p2698
(dp2699
S'NOUN'
p2700
F0.273492
sS'ADJ'
p2701
F0.726508
s(lp2702
(g145
I18
tp2703
atp2704
a(S'medidas'
p2705
(dp2706
S'VERB'
p2707
F0.548234
sS'NOUN'
p2708
F0.451766
s(lp2709
(g153
I19
tp2710
atp2711
a(S'en'
p2712
(dp2713
g1796
F0.0
sS'CONJ'
p2714
F1e-06
sS'ADP'
p2715
F0.999999
s(lp2716
(g161
I20
tp2717
atp2718
a(S'este'
p2719
(dp2720
S'PRON'
p2721
F0.999828
sS'NOUN'
p2722
F0.000172
s(lp2723
(g170
I21
tp2724
atp2725
a(S'\xc3\xa1mbito'
p2726
(dp2727
S'NOUN'
p2728
F1.0
s(lp2729
(g177
I22
tp2730
atp2731
a(g25
(dp2732
g27
F1.0
s(lp2733
(g25
I23
tp2734
atp2735
a(S'por'
p2736
(dp2737
S'ADV'
p2738
F1.0
s(lp2739
(g578
I24
tp2740
atp2741
a(S'ejemplo'
p2742
(dp2743
S'ADV'
p2744
F1.0
s(lp2745
(g194
I25
tp2746
atp2747
a(S'mediante'
p2748
(dp2749
S'ADP'
p2750
F1.0
s(lp2751
(g219
I26
tp2752
atp2753
a(S'una'
p2754
(dp2755
S'DET'
p2756
F1.0
s(lp2757
tp2758
a(S'aplicaci\xc3\xb3n'
p2759
(dp2760
S'NOUN'
p2761
F1.0
s(lp2762
(g242
I29
tp2763
atp2764
a(S'm\xc3\xa1s'
p2765
(dp2766
S'ADV'
p2767
F0.999993
sS'CONJ'
p2768
F7e-06
s(lp2769
(g263
I27
tp2770
atp2771
a(S'eficaz'
p2772
(dp2773
S'ADJ'
p2774
F1.0
s(lp2775
(g271
I28
tp2776
atp2777
a(S'de'
p2778
(dp2779
g1796
F0.0
sS'CONJ'
p2780
F5.7e-05
sS'ADP'
p2781
F0.999943
s(lp2782
(g279
I30
tp2783
atp2784
a(S'las'
p2785
(dp2786
S'PRON'
p2787
F0.0
sS'DET'
p2788
F1.0
s(lp2789
(g211
I31
tp2790
atp2791
a(S'directrices'
p2792
(dp2793
S'NOUN'
p2794
F1.0
s(lp2795
(g286
I33
tp2796
atp2797
a(S'vigentes'
p2798
(dp2799
S'ADJ'
p2800
F1.0
s(lp2801
(g293
I32
tp2802
atp2803
a(S'y'
p2804
(dp2805
g1796
F0.000117
sS'CONJ'
p2806
F0.999883
s(lp2807
(g298
I34
tp2808
atp2809
a(S'la'
p2810
(dp2811
S'PRON'
p2812
F0.000591
sS'DET'
p2813
F0.999408
sS'NOUN'
p2814
F0.0
sg1796
F0.0
s(lp2815
tp2816
a(S'ampliaci\xc3\xb3n'
p2817
(dp2818
S'NOUN'
p2819
F1.0
s(lp2820
(g313
I36
tp2821
atp2822
a(S'del'
p2823
(dp2824
S'ADP'
p2825
F1.0
s(lp2826
(g322
I37
tp2827
atp2828
a(S'alcance'
p2829
(dp2830
S'VERB'
p2831
F1e-06
sS'NOUN'
p2832
F0.999999
s(lp2833
(g331
I38
tp2834
atp2835
a(S'de'
p2836
(dp2837
g1796
F0.0
sS'CONJ'
p2838
F1.7e-05
sS'ADP'
p2839
F0.999983
s(lp2840
(g339
I39
tp2841
atp2842
a(S'los'
p2843
(dp2844
S'PRON'
p2845
F0.0
sS'DET'
p2846
F1.0
s(lp2847
(g670
I40
tp2848
atp2849
a(S'principios'
p2850
(dp2851
S'NOUN'
p2852
F1.0
s(lp2853
(g346
I41
tp2854
atp2855
a(g2804
(dp2856
g1796
F0.001008
sS'CONJ'
p2857
F0.998992
s(lp2858
(g353
I42
tp2859
atp2860
a(S'f\xc3\xb3rmulas'
p2861
(dp2862
S'NOUN'
p2863
F1.0
s(lp2864
(g381
I44
tp2865
atp2866
a(S'para'
p2867
(dp2868
S'CONJ'
p2869
F0.952807
sS'ADP'
p2870
F0.047193
s(lp2871
(g388
I45
tp2872
atp2873
a(S'tratar'
p2874
(dp2875
S'VERB'
p2876
F1.0
s(lp2877
(g395
I46
tp2878
atp2879
a(S'los'
p2880
(dp2881
S'PRON'
p2882
F1e-06
sS'DET'
p2883
F0.999999
s(lp2884
(g714
I48
tp2885
atp2886
a(S'graves'
p2887
(dp2888
S'ADJ'
p2889
F1.0
s(lp2890
(g419
I49
tp2891
atp2892
a(S'problemas'
p2893
(dp2894
S'NOUN'
p2895
F1.0
s(lp2896
(g410
I50
tp2897
atp2898
a(S'que'
p2899
(dp2900
g1796
F3e-06
sS'CONJ'
p2901
F0.999997
s(lp2902
(g731
I51
tp2903
atp2904
a(S'existen'
p2905
(dp2906
S'VERB'
p2907
F1.0
s(lp2908
(g426
I52
tp2909
atp2910
a(g27
(dp2911
g27
F1.0
s(lp2912
(g27
I53
tp2913
atp2914
as.