(dp0
S'fr'
p1
(lp2
(S'tout'
p3
(dp4
S'ADV'
p5
F0.914133
sS'PRON'
p6
F0.082081
sS'NOUN'
p7
F0.003786
s(lp8
tp9
a(S'aussi'
p10
(dp11
S'ADV'
p12
F0.999607
sS'CONJ'
p13
F0.000393
s(lp14
(S'also'
p15
I0
tp16
atp17
a(S'importantes'
p18
(dp19
S'ADJ'
p20
F1.0
s(lp21
(S'important'
p22
I1
tp23
atp24
a(S'sont'
p25
(dp26
S'VERB'
p27
F1.0
s(lp28
(S'is'
p29
I2
tp30
atp31
a(S'les'
p32
(dp33
S'PRON'
p34
F0.000124
sS'DET'
p35
F0.999843
sS'ADP'
p36
F3.3e-05
s(lp37
(S'the'
p38
I3
tp39
atp40
a(S'questions'
p41
(dp42
S'NOUN'
p43
F1.0
s(lp44
(S'issue'
p45
I6
tp46
atp47
a(S'du'
p48
(dp49
S'ADP'
p50
F1.0
s(lp51
tp52
a(S'multilat\xc3\xa9ralisme'
p53
(dp54
S'ADJ'
p55
F0.000366
sS'NOUN'
p56
F0.999634
s(lp57
(S'multilateralism'
p58
I5
tp59
atp60
a(S'de'
p61
(dp62
S'ADP'
p63
F1.0
s(lp64
tp65
a(S"l'"
p66
(dp67
S'ADJ'
p68
F0.160704
sS'VERB'
p69
F0.06480800000000002
sS'NOUN'
p70
F0.774488
s(lp71
tp72
a(S'ue'
p73
(dp74
S'VERB'
p75
F0.002353
sS'NOUN'
p76
F0.997647
s(lp77
(S'eu'
p78
I4
tp79
atp80
a(S'et'
p81
(dp82
S'CONJ'
p83
F1.0
s(lp84
(S'and'
p85
I7
tp86
atp87
a(S'de'
p88
(dp89
S'ADP'
p90
F1.0
s(lp91
tp92
a(S'la'
p93
(dp94
S'PRON'
p95
F0.000379
sS'DET'
p96
F0.999611
sS'NOUN'
p97
F1e-05
s(lp98
(S'the'
p99
I8
tp100
atp101
a(S'n\xc3\xa9cessit\xc3\xa9'
p102
(dp103
S'VERB'
p104
F0.005228
sS'NOUN'
p105
F0.994772
s(lp106
(S'need'
p107
I9
tp108
atp109
a(S'de'
p110
(dp111
S'ADP'
p112
F1.0
s(lp113
(S'to'
p114
I10
tp115
atp116
a(S'veiller'
p117
(dp118
S'VERB'
p119
F1.0
s(lp120
tp121
a(S'\xc3\xa0'
p122
(dp123
S'ADP'
p124
F1.0
s(lp125
tp126
a(S'toujours'
p127
(dp128
S'ADV'
p129
F1.0
s(lp130
(S'always'
p131
I12
tp132
atp133
a(S'\xc3\xaatre'
p134
(dp135
S'VERB'
p136
F0.998803
sS'NOUN'
p137
F0.001197
s(lp138
(S'be'
p139
I11
tp140
atp141
a(S'convenablement'
p142
(dp143
S'ADV'
p144
F1.0
s(lp145
(S'well'
p146
I13
tp147
atp148
a(S'repr\xc3\xa9sent\xc3\xa9s'
p149
(dp150
S'VERB'
p151
F1.0
s(lp152
(S'represented'
p153
I14
tp154
atp155
a(S'dans'
p156
(dp157
S'NOUN'
p158
F6e-06
sS'ADP'
p159
F0.999994
s(lp160
(S'in'
p161
I15
tp162
atp163
a(S'les'
p164
(dp165
S'PRON'
p166
F0.000161
sS'DET'
p167
F0.999836
sS'ADP'
p168
F3e-06
s(lp169
(S'the'
p170
I16
tp171
atp172
a(S'diff\xc3\xa9rents'
p173
(dp174
S'ADJ'
p175
F1.0
s(lp176
(S'different'
p177
I17
tp178
atp179
a(S'contextes'
p180
(dp181
S'NOUN'
p182
F1.0
s(lp183
(S'contexts'
p184
I19
tp185
atp186
a(S'strat\xc3\xa9giques'
p187
(dp188
S'ADJ'
p189
F1.0
s(lp190
(S'strategic'
p191
I18
tp192
atp193
a(S','
p194
(dp195
S'.'
p196
F1.0
s(lp197
(g194
I20
tp198
atp199
a(S'en'
p200
(dp201
S'PRON'
p202
F0.600721
sS'ADP'
p203
F0.399279
s(lp204
tp205
a(S'nous'
p206
(dp207
S'PRON'
p208
F1.0
s(lp209
(S'taking'
p210
I21
tp211
atp212
a(S'appuyant'
p213
(dp214
S'VERB'
p215
F1.0
s(lp216
(S'advantage'
p217
I22
tp218
atp219
a(S'notamment'
p220
(dp221
S'ADV'
p222
F1.0
s(lp223
(S'particular'
p224
I25
tp225
atp226
a(S'sur'
p227
(dp228
S'ADP'
p229
F1.0
s(lp230
(S'of'
p231
I27
tp232
atp233
a(S'le'
p234
(dp235
S'PRON'
p236
F0.000178
sS'DET'
p237
F0.999822
s(lp238
(S'the'
p239
I28
tp240
atp241
a(S'nouveau'
p242
(dp243
S'NOUN'
p244
F0.004282
sS'ADJ'
p245
F0.995718
s(lp246
(S'new'
p247
I29
tp248
atp249
a(S'seae'
p250
(dp251
S'VERB'
p252
F0.000218
sS'NOUN'
p253
F0.999782
s(lp254
(S'eeas'
p255
I30
tp256
atp257
a(g194
(dp258
g196
F1.0
s(lp259
(g194
I31
tp260
atp261
a(S'le'
p262
(dp263
S'PRON'
p264
F0.000368
sS'DET'
p265
F0.999632
s(lp266
(S'the'
p267
I32
tp268
atp269
a(S'corps'
p270
(dp271
S'NOUN'
p272
F1.0
s(lp273
(S'corps'
p274
I35
tp275
atp276
a(S'diplomatique'
p277
(dp278
S'NOUN'
p279
F0.069702
sS'ADJ'
p280
F0.930298
s(lp281
(S'diplomatic'
p282
I34
tp283
atp284
a(S'europ\xc3\xa9en'
p285
(dp286
S'ADJ'
p287
F0.415535
sS'NOUN'
p288
F0.584465
s(lp289
(S'european'
p290
I33
tp291
atp292
a(S'enfin'
p293
(dp294
S'ADV'
p295
F1.0
s(lp296
(S'finally'
p297
I38
tp298
atp299
a(S'devenu'
p300
(dp301
S'VERB'
p302
F1.0
s(lp303
(S'become'
p304
I39
tp305
atp306
a(S'r\xc3\xa9alit\xc3\xa9'
p307
(dp308
S'NOUN'
p309
F1.0
s(lp310
(S'reality'
p311
I41
tp312
atp313
a(g196
(dp314
g196
F1.0
s(lp315
(g196
I42
tp316
atp317
asS'en'
p318
(lp319
(g15
(dp320
S'ADV'
p321
F1.0
s(lp322
(g15
I0
tp323
atp324
a(g22
(dp325
S'ADJ'
p326
F1.0
s(lp327
(g22
I1
tp328
atp329
a(g29
(dp330
S'VERB'
p331
F1.0
s(lp332
(g29
I2
tp333
atp334
a(g38
(dp335
S'NOUN'
p336
F2e-06
sS'DET'
p337
F0.999998
s(lp338
(g38
I3
tp339
atp340
a(g78
(dp341
S'ADV'
p342
F2.9e-05
sS'ADJ'
p343
F0.01671
sS'VERB'
p344
F0.0005160000000000001
sS'NOUN'
p345
F0.982745
s(lp346
(g78
I4
tp347
atp348
a(g58
(dp349
S'NOUN'
p350
F1.0
s(lp351
(g58
I5
tp352
atp353
a(g45
(dp354
S'VERB'
p355
F0.001727
sS'NOUN'
p356
F0.998273
s(lp357
(g45
I6
tp358
atp359
a(g85
(dp360
S'CONJ'
p361
F1.0
sS'NOUN'
p362
F0.0
s(lp363
(g85
I7
tp364
atp365
a(g99
(dp366
S'NOUN'
p367
F4e-06
sS'DET'
p368
F0.999996
s(lp369
(g99
I8
tp370
atp371
a(g107
(dp372
S'VERB'
p373
F0.087421
sS'NOUN'
p374
F0.912579
s(lp375
(g107
I9
tp376
atp377
a(g114
(dp378
S'ADV'
p379
F0.0
sS'PRT'
p380
F1.0
sS'ADP'
p381
F0.0
s(lp382
(g114
I10
tp383
atp384
a(g139
(dp385
S'VERB'
p386
F1.0
s(lp387
(g139
I11
tp388
atp389
a(g131
(dp390
S'ADV'
p391
F1.0
s(lp392
(g131
I12
tp393
atp394
a(g146
(dp395
S'ADV'
p396
F0.999727
sS'X'
p397
F0.0
sS'VERB'
p398
F2.4e-05
sS'NOUN'
p399
F0.000249
s(lp400
(g146
I13
tp401
atp402
a(g153
(dp403
S'VERB'
p404
F1.0
s(lp405
(g153
I14
tp406
atp407
a(g161
(dp408
S'ADV'
p409
F0.000531
sS'PRT'
p410
F0.004603
sS'ADP'
p411
F0.994866
s(lp412
(g161
I15
tp413
atp414
a(g170
(dp415
S'NOUN'
p416
F1e-06
sS'DET'
p417
F0.999999
s(lp418
(g170
I16
tp419
atp420
a(g177
(dp421
S'ADJ'
p422
F1.0
s(lp423
(g177
I17
tp424
atp425
a(g191
(dp426
S'ADJ'
p427
F1.0
s(lp428
(g191
I18
tp429
atp430
a(g184
(dp431
S'NOUN'
p432
F1.0
s(lp433
(g184
I19
tp434
atp435
a(g194
(dp436
g196
F1.0
s(lp437
(g194
I20
tp438
atp439
a(g210
(dp440
S'NOUN'
p441
F0.001718
sS'VERB'
p442
F0.99642
sS'ADJ'
p443
F0.001862
s(lp444
(g210
I21
tp445
atp446
a(g217
(dp447
S'VERB'
p448
F0.000478
sS'NOUN'
p449
F0.999521
s(lp450
(g217
I22
tp451
atp452
a(g194
(dp453
g196
F1.0
s(lp454
(g194
I23
tp455
atp456
a(S'in'
p457
(dp458
S'ADV'
p459
F0.006142
sS'PRT'
p460
F1e-06
sS'ADP'
p461
F0.993858
s(lp462
(g457
I24
tp463
atp464
a(g224
(dp465
S'ADV'
p466
F0.023315
sS'NOUN'
p467
F0.089135
sS'ADJ'
p468
F0.88755
s(lp469
(g224
I25
tp470
atp471
a(g194
(dp472
g196
F1.0
s(lp473
(g194
I26
tp474
atp475
a(g231
(dp476
S'ADP'
p477
F1.0
s(lp478
(g231
I27
tp479
atp480
a(g239
(dp481
S'NOUN'
p482
F1e-06
sS'DET'
p483
F0.999999
s(lp484
(g239
I28
tp485
atp486
a(g247
(dp487
S'NOUN'
p488
F6.9e-05
sS'ADJ'
p489
F0.999931
s(lp490
(g247
I29
tp491
atp492
a(g255
(dp493
S'ADV'
p494
F4.9e-05
sS'ADJ'
p495
F0.00022
sS'NOUN'
p496
F0.999731
s(lp497
(g255
I30
tp498
atp499
a(g194
(dp500
g196
F1.0
s(lp501
(g194
I31
tp502
atp503
a(g267
(dp504
S'NOUN'
p505
F2e-06
sS'DET'
p506
F0.999998
s(lp507
(g267
I32
tp508
atp509
a(g290
(dp510
S'NOUN'
p511
F0.05138
sS'VERB'
p512
F6.1e-05
sS'ADJ'
p513
F0.948559
s(lp514
(g290
I33
tp515
atp516
a(g282
(dp517
S'NOUN'
p518
F0.017123
sS'ADJ'
p519
F0.982877
s(lp520
(g282
I34
tp521
atp522
a(g274
(dp523
g397
F0.006494
sS'NOUN'
p524
F0.993506
s(lp525
(g274
I35
tp526
atp527
a(S'that'
p528
(dp529
S'ADV'
p530
F0.00075
sS'DET'
p531
F0.9992340000000001
sS'ADP'
p532
F1.6e-05
s(lp533
(g528
I36
tp534
atp535
a(S'has'
p536
(dp537
S'VERB'
p538
F1.0
s(lp539
(g536
I37
tp540
atp541
a(g297
(dp542
S'ADV'
p543
F1.0
s(lp544
(g297
I38
tp545
atp546
a(g304
(dp547
S'VERB'
p548
F1.0
s(lp549
(g304
I39
tp550
atp551
a(S'a'
p552
(dp553
S'NOUN'
p554
F0.0
sS'DET'
p555
F1.0
s(lp556
(g552
I40
tp557
atp558
a(g311
(dp559
S'NOUN'
p560
F1.0
s(lp561
(g311
I41
tp562
atp563
a(g196
(dp564
g196
F1.0
s(lp565
(g196
I42
tp566
atp567
asS'nl'
p568
(lp569
(S'de'
p570
(dp571
S'DET'
p572
F1.0
s(lp573
(g38
I3
tp574
atp575
a(S'kwestie'
p576
(dp577
S'NOUN'
p578
F1.0
s(lp579
(g45
I6
tp580
atp581
a(S'van'
p582
(dp583
S'ADP'
p584
F1.0
s(lp585
tp586
a(S'het'
p587
(dp588
S'PRON'
p589
F0.000927
sS'DET'
p590
F0.999073
s(lp591
tp592
a(S'multilateralisme'
p593
(dp594
S'NOUN'
p595
F1.0
s(lp596
(g58
I5
tp597
atp598
a(S'van'
p599
(dp600
S'ADP'
p601
F1.0
s(lp602
tp603
a(S'de'
p604
(dp605
S'DET'
p606
F1.0
s(lp607
(g38
I3
tp608
atp609
a(S'eu'
p610
(dp611
S'NOUN'
p612
F1.0
s(lp613
(g78
I4
tp614
atp615
a(S'is'
p616
(dp617
S'VERB'
p618
F1.0
s(lp619
(g29
I2
tp620
atp621
a(S'ook'
p622
(dp623
S'ADV'
p624
F1.0
s(lp625
(g15
I0
tp626
atp627
a(S'belangrijk'
p628
(dp629
S'ADJ'
p630
F1.0
s(lp631
(g22
I1
tp632
atp633
a(g194
(dp634
g196
F1.0
s(lp635
tp636
a(S'evenals'
p637
(dp638
S'CONJ'
p639
F1.0
s(lp640
(g85
I7
tp641
atp642
a(S'de'
p643
(dp644
S'DET'
p645
F1.0
s(lp646
(g99
I8
tp647
atp648
a(S'noodzaak'
p649
(dp650
S'VERB'
p651
F9.5e-05
sS'NOUN'
p652
F0.999905
s(lp653
(g107
I9
tp654
atp655
a(S'om'
p656
(dp657
S'ADV'
p658
F0.049865
sS'CONJ'
p659
F0.671249
sS'ADP'
p660
F0.278886
s(lp661
tp662
a(S'altijd'
p663
(dp664
S'ADV'
p665
F1.0
s(lp666
(g131
I12
tp667
atp668
a(S'goed'
p669
(dp670
S'ADV'
p671
F0.073119
sS'NOUN'
p672
F0.206679
sS'ADJ'
p673
F0.720202
s(lp674
(g146
I13
tp675
atp676
a(S'vertegenwoordigd'
p677
(dp678
S'VERB'
p679
F1.0
s(lp680
(g153
I14
tp681
atp682
a(S'te'
p683
(dp684
S'PRT'
p685
F1.0
s(lp686
(g114
I10
tp687
atp688
a(S'zijn'
p689
(dp690
S'PRON'
p691
F0.000946
sS'VERB'
p692
F0.999054
sS'NOUN'
p693
F0.0
s(lp694
(g139
I11
tp695
atp696
a(S'in'
p697
(dp698
S'ADV'
p699
F0.000473
sS'VERB'
p700
F0.0
sS'ADP'
p701
F0.999527
s(lp702
(g161
I15
tp703
atp704
a(S'de'
p705
(dp706
S'DET'
p707
F1.0
s(lp708
(g170
I16
tp709
atp710
a(S'verschillende'
p711
(dp712
S'NOUN'
p713
F4.7e-05
sS'VERB'
p714
F1.2e-05
sS'ADJ'
p715
F0.999919
sS'PRON'
p716
F2.2e-05
s(lp717
(g177
I17
tp718
atp719
a(S'strategische'
p720
(dp721
S'NOUN'
p722
F0.000266
sS'ADJ'
p723
F0.999734
s(lp724
(g191
I18
tp725
atp726
a(S'contexten'
p727
(dp728
S'NOUN'
p729
F1.0
s(lp730
(g184
I19
tp731
atp732
a(g194
(dp733
g196
F1.0
s(lp734
(g194
I20
tp735
atp736
a(S'en'
p737
(dp738
S'CONJ'
p739
F1.0
s(lp740
(g194
I23
tp741
atp742
a(S'daarbij'
p743
(dp744
S'ADV'
p745
F1.0
s(lp746
tp747
a(S'in'
p748
(dp749
S'ADV'
p750
F0.009778
sS'VERB'
p751
F4e-06
sS'ADP'
p752
F0.990218
s(lp753
(g457
I24
tp754
atp755
a(S'het'
p756
(dp757
S'PRON'
p758
F0.0061329999999999996
sS'DET'
p759
F0.993867
s(lp760
tp761
a(S'bijzonder'
p762
(dp763
S'ADV'
p764
F0.00132
sS'ADJ'
p765
F0.99868
s(lp766
(g224
I25
tp767
atp768
a(S'te'
p769
(dp770
S'PRT'
p771
F1.0
s(lp772
(g210
I21
tp773
atp774
a(S'profiteren'
p775
(dp776
S'VERB'
p777
F0.999997
sS'NOUN'
p778
F3e-06
s(lp779
(g217
I22
tp780
atp781
a(S'van'
p782
(dp783
S'ADP'
p784
F1.0
s(lp785
(g231
I27
tp786
atp787
a(S'de'
p788
(dp789
S'DET'
p790
F1.0
s(lp791
(g239
I28
tp792
atp793
a(S'nieuwe'
p794
(dp795
S'NOUN'
p796
F5e-06
sS'ADJ'
p797
F0.999995
s(lp798
(g247
I29
tp799
atp800
a(S'edeo'
p801
(dp802
S'ADJ'
p803
F0.007237
sS'NOUN'
p804
F0.992762
s(lp805
(g255
I30
tp806
atp807
a(g194
(dp808
g196
F1.0
s(lp809
(g194
I31
tp810
atp811
a(S'de'
p812
(dp813
S'DET'
p814
F1.0
s(lp815
(g267
I32
tp816
atp817
a(S'europese'
p818
(dp819
S'NOUN'
p820
F1.0
s(lp821
(g290
I33
tp822
atp823
a(S'diplomatieke'
p824
(dp825
S'NOUN'
p826
F6.8e-05
sS'ADJ'
p827
F0.999932
s(lp828
(g282
I34
tp829
atp830
a(S'dienst'
p831
(dp832
S'NOUN'
p833
F1.0
s(lp834
(g274
I35
tp835
atp836
a(S'die'
p837
(dp838
S'PRON'
p839
F1.0
s(lp840
(g528
I36
tp841
atp842
a(S'uiteindelijk'
p843
(dp844
S'ADJ'
p845
F1.0
s(lp846
(g297
I38
tp847
atp848
a(S'werkelijkheid'
p849
(dp850
S'NOUN'
p851
F1.0
s(lp852
(g311
I41
tp853
atp854
a(S'is'
p855
(dp856
S'VERB'
p857
F1.0
s(lp858
(g536
I37
tp859
atp860
a(S'geworden'
p861
(dp862
S'VERB'
p863
F1.0
s(lp864
(g304
I39
tp865
atp866
a(g196
(dp867
g196
F1.0
s(lp868
(g196
I42
tp869
atp870
asS'de'
p871
(lp872
(S'auch'
p873
(dp874
S'ADV'
p875
F1.0
s(lp876
tp877
a(S'das'
p878
(dp879
S'PRON'
p880
F0.005169
sS'DET'
p881
F0.994827
s(lp882
tp883
a(S'thema'
p884
(dp885
S'VERB'
p886
F0.000266
sS'NOUN'
p887
F0.999552
s(lp888
(g45
I6
tp889
atp890
a(S'des'
p891
(dp892
S'DET'
p893
F1.0
s(lp894
tp895
a(S'multilateralismus'
p896
(dp897
S'ADJ'
p898
F0.019706
sS'NOUN'
p899
F0.962723
s(lp900
(g58
I5
tp901
atp902
a(S'in'
p903
(dp904
S'ADP'
p905
F1.0
s(lp906
tp907
a(S'der'
p908
(dp909
S'PRON'
p910
F0.000588
sS'DET'
p911
F0.999327
s(lp912
(g38
I3
tp913
atp914
a(S'eu'
p915
(dp916
S'NOUN'
p917
F0.385129
sS'ADJ'
p918
F0.4491
s(lp919
(g78
I4
tp920
atp921
a(S'ist'
p922
(dp923
S'VERB'
p924
F1.0
s(lp925
(g29
I2
tp926
atp927
a(S'wichtig'
p928
(dp929
S'ADJ'
p930
F1.0
s(lp931
(g22
I1
tp932
atp933
a(g194
(dp934
g196
F1.0
s(lp935
(g528
I36
tp936
atp937
a(S'und'
p938
(dp939
S'CONJ'
p940
F1.0
s(lp941
(g85
I7
tp942
atp943
a(S'ebenso'
p944
(dp945
S'ADV'
p946
F1.0
s(lp947
(g15
I0
tp948
atp949
a(S'die'
p950
(dp951
S'PRON'
p952
F0.000877
sS'DET'
p953
F0.999109
s(lp954
(g99
I8
tp955
atp956
a(S'notwendigkeit'
p957
(dp958
S'ADJ'
p959
F0.143491
sS'NOUN'
p960
F0.825985
s(lp961
(g107
I9
tp962
atp963
a(g194
(dp964
g196
F1.0
s(lp965
(g194
I23
tp966
atp967
a(S'im'
p968
(dp969
S'ADP'
p970
F1.0
s(lp971
(g457
I24
tp972
atp973
a(S'hinblick'
p974
(dp975
S'VERB'
p976
F0.001253
sS'NOUN'
p977
F0.99874
s(lp978
(g224
I25
tp979
atp980
a(S'auf'
p981
(dp982
S'PRT'
p983
F0.000898
sS'ADP'
p984
F0.999092
s(lp985
(g161
I15
tp986
atp987
a(S'die'
p988
(dp989
S'PRON'
p990
F0.000219
sS'DET'
p991
F0.999761
s(lp992
(g170
I16
tp993
atp994
a(S'verschiedenen'
p995
(dp996
S'ADJ'
p997
F1.0
s(lp998
(g177
I17
tp999
atp1000
a(S'strategischen'
p1001
(dp1002
S'ADJ'
p1003
F1.0
s(lp1004
(g191
I18
tp1005
atp1006
a(S'zusammenh\xc3\xa4nge'
p1007
(dp1008
S'VERB'
p1009
F1.0
s(lp1010
(g184
I19
tp1011
atp1012
a(S'immer'
p1013
(dp1014
S'ADV'
p1015
F1.0
s(lp1016
(g131
I12
tp1017
atp1018
a(S'angemessen'
p1019
(dp1020
S'VERB'
p1021
F0.076687
sS'ADJ'
p1022
F0.923313
s(lp1023
(g146
I13
tp1024
atp1025
a(S'vertreten'
p1026
(dp1027
S'VERB'
p1028
F0.9986700000000001
s(lp1029
(g153
I14
tp1030
atp1031
a(S'zu'
p1032
(dp1033
S'PRT'
p1034
F0.999639
sS'ADP'
p1035
F0.000352
s(lp1036
tp1037
a(S'sein'
p1038
(dp1039
S'VERB'
p1040
F0.999648
s(lp1041
(g139
I11
tp1042
atp1043
a(S'und'
p1044
(dp1045
S'CONJ'
p1046
F1.0
s(lp1047
(g194
I20
tp1048
atp1049
a(S'die'
p1050
(dp1051
S'PRON'
p1052
F0.007157
sS'DET'
p1053
F0.987401
s(lp1054
(g210
I21
tp1055
atp1056
a(S'vorteile'
p1057
(dp1058
S'ADJ'
p1059
F0.01482
sS'NOUN'
p1060
F0.97052
s(lp1061
tp1062
a(S'des'
p1063
(dp1064
S'DET'
p1065
F1.0
s(lp1066
(g231
I27
tp1067
atp1068
a(S'neuen'
p1069
(dp1070
S'ADJ'
p1071
F1.0
s(lp1072
(g247
I29
tp1073
atp1074
a(S'ead'
p1075
(dp1076
S'NOUN'
p1077
F0.999953
s(lp1078
(g255
I30
tp1079
atp1080
a(S'zu'
p1081
(dp1082
S'PRT'
p1083
F0.999972
s(lp1084
(g114
I10
tp1085
atp1086
a(S'nutzen'
p1087
(dp1088
S'VERB'
p1089
F1.0
s(lp1090
(g217
I22
tp1091
atp1092
a(g194
(dp1093
g196
F1.0
s(lp1094
(g194
I31
tp1095
atp1096
a(S'des'
p1097
(dp1098
S'DET'
p1099
F1.0
s(lp1100
(g267
I32
tp1101
atp1102
a(S'europ\xc3\xa4ischen'
p1103
(dp1104
S'ADJ'
p1105
F1.0
s(lp1106
(g290
I33
tp1107
atp1108
a(S'diplomatischen'
p1109
(dp1110
S'ADJ'
p1111
F1.0
s(lp1112
(g282
I34
tp1113
atp1114
a(S'korps'
p1115
(dp1116
S'ADJ'
p1117
F0.026455
sS'NOUN'
p1118
F0.971428
s(lp1119
tp1120
a(g194
(dp1121
g196
F1.0
s(lp1122
(g194
I26
tp1123
atp1124
a(S'welches'
p1125
(dp1126
S'PRON'
p1127
F0.880827
s(lp1128
(g274
I35
tp1129
atp1130
a(S'nun'
p1131
(dp1132
S'ADV'
p1133
F0.999933
sS'CONJ'
p1134
F6.7e-05
s(lp1135
tp1136
a(S'endlich'
p1137
(dp1138
S'ADV'
p1139
F0.963106
sS'ADJ'
p1140
F0.036894
s(lp1141
(g297
I38
tp1142
atp1143
a(S'wirklichkeit'
p1144
(dp1145
S'NOUN'
p1146
F0.007942
sS'ADJ'
p1147
F0.991898
s(lp1148
(g311
I41
tp1149
atp1150
a(S'geworden'
p1151
(dp1152
S'VERB'
p1153
F0.999861
s(lp1154
(g304
I39
tp1155
atp1156
a(S'ist'
p1157
(dp1158
S'VERB'
p1159
F1.0
s(lp1160
(g536
I37
tp1161
atp1162
a(g196
(dp1163
g196
F1.0
s(lp1164
(g196
I42
tp1165
atp1166
asS'it'
p1167
(lp1168
(S'altrettanto'
p1169
(dp1170
S'ADV'
p1171
F0.998215
sS'ADJ'
p1172
F0.001785
s(lp1173
(g15
I0
tp1174
atp1175
a(S'importante'
p1176
(dp1177
S'NOUN'
p1178
F0.005475
sS'VERB'
p1179
F0.00034
sS'ADJ'
p1180
F0.994186
s(lp1181
(g22
I1
tp1182
atp1183
a(S'\xc3\xa8'
p1184
(dp1185
S'VERB'
p1186
F1.0
s(lp1187
(g29
I2
tp1188
atp1189
a(S'la'
p1190
(dp1191
S'PRON'
p1192
F0.0
sS'DET'
p1193
F1.0
s(lp1194
(g38
I3
tp1195
atp1196
a(S'questione'
p1197
(dp1198
S'NOUN'
p1199
F1.0
s(lp1200
(g45
I6
tp1201
atp1202
a(S'europea'
p1203
(dp1204
S'NOUN'
p1205
F0.004221
sS'ADJ'
p1206
F0.995779
s(lp1207
(g78
I4
tp1208
atp1209
a(S'del'
p1210
(dp1211
S'DEF'
p1212
F0.002135
sS'ADP'
p1213
F0.997865
s(lp1214
tp1215
a(S'multilateralismo'
p1216
(dp1217
S'NOUN'
p1218
F1.0
s(lp1219
(g58
I5
tp1220
atp1221
a(S'e'
p1222
(dp1223
S'CONJ'
p1224
F1.0
s(lp1225
(g85
I7
tp1226
atp1227
a(S"l'"
p1228
(dp1229
S'NOUN'
p1230
F0.000589
sS'VERB'
p1231
F0.9933339999999999
sS'ADJ'
p1232
F0.006076
s(lp1233
(g99
I8
tp1234
atp1235
a(S'esigenza'
p1236
(dp1237
S'NOUN'
p1238
F1.0
s(lp1239
(g107
I9
tp1240
atp1241
a(S'di'
p1242
(dp1243
S'CONJ'
p1244
F6e-06
sS'ADP'
p1245
F0.999994
s(lp1246
(g114
I10
tp1247
atp1248
a(S'essere'
p1249
(dp1250
S'VERB'
p1251
F0.999669
sS'NOUN'
p1252
F0.000331
s(lp1253
(g139
I11
tp1254
atp1255
a(S'sempre'
p1256
(dp1257
S'ADV'
p1258
F0.992086
sS'CONJ'
p1259
F0.007914
s(lp1260
(g131
I12
tp1261
atp1262
a(S'ben'
p1263
(dp1264
S'ADV'
p1265
F1.0
s(lp1266
(g146
I13
tp1267
atp1268
a(S'rappresentati'
p1269
(dp1270
S'VERB'
p1271
F1.0
s(lp1272
(g153
I14
tp1273
atp1274
a(S'nei'
p1275
(dp1276
S'NOUN'
p1277
F0.002989
sS'ADP'
p1278
F0.997011
s(lp1279
(g161
I15
tp1280
atp1281
a(S'diversi'
p1282
(dp1283
S'VERB'
p1284
F0.0024259999999999998
sS'ADJ'
p1285
F0.997574
s(lp1286
(g177
I17
tp1287
atp1288
a(S'contesti'
p1289
(dp1290
S'ADJ'
p1291
F0.100513
sS'VERB'
p1292
F0.19256700000000002
sS'NOUN'
p1293
F0.706919
s(lp1294
(g184
I19
tp1295
atp1296
a(S'strategici'
p1297
(dp1298
S'ADJ'
p1299
F1.0
s(lp1300
(g191
I18
tp1301
atp1302
a(g194
(dp1303
g196
F1.0
s(lp1304
(g194
I20
tp1305
atp1306
a(S'sfruttando'
p1307
(dp1308
S'VERB'
p1309
F1.0
s(lp1310
(g217
I22
tp1311
atp1312
a(S'in'
p1313
(dp1314
S'ADP'
p1315
F1.0
s(lp1316
(g457
I24
tp1317
atp1318
a(S'particolar'
p1319
(dp1320
S'ADJ'
p1321
F1.0
s(lp1322
tp1323
a(S'modo'
p1324
(dp1325
S'NOUN'
p1326
F1.0
s(lp1327
(g224
I25
tp1328
atp1329
a(S'il'
p1330
(dp1331
S'DET'
p1332
F1.0
s(lp1333
(g239
I28
tp1334
atp1335
a(S'nuovo'
p1336
(dp1337
S'NOUN'
p1338
F0.039623
sS'ADJ'
p1339
F0.960377
s(lp1340
(g247
I29
tp1341
atp1342
a(S'seae'
p1343
(dp1344
S'ADJ'
p1345
F0.306194
sS'VERB'
p1346
F0.000132
sS'NOUN'
p1347
F0.693674
s(lp1348
(g255
I30
tp1349
atp1350
a(g194
(dp1351
g196
F1.0
s(lp1352
(g194
I31
tp1353
atp1354
a(S'il'
p1355
(dp1356
S'DET'
p1357
F1.0
s(lp1358
(g267
I32
tp1359
atp1360
a(S'corpo'
p1361
(dp1362
S'NOUN'
p1363
F1.0
s(lp1364
(g274
I35
tp1365
atp1366
a(S'diplomatico'
p1367
(dp1368
S'NOUN'
p1369
F0.041286
sS'ADJ'
p1370
F0.958714
s(lp1371
(g282
I34
tp1372
atp1373
a(S'europeo'
p1374
(dp1375
S'NOUN'
p1376
F0.07277
sS'ADJ'
p1377
F0.92723
s(lp1378
(g290
I33
tp1379
atp1380
a(S'che'
p1381
(dp1382
S'PRON'
p1383
F0.973884
sS'CONJ'
p1384
F0.025892
sS'ADJ'
p1385
F0.000224
s(lp1386
(g528
I36
tp1387
atp1388
a(S'\xc3\xa8'
p1389
(dp1390
S'VERB'
p1391
F1.0
s(lp1392
(g536
I37
tp1393
atp1394
a(S'finalmente'
p1395
(dp1396
S'ADV'
p1397
F1.0
s(lp1398
(g297
I38
tp1399
atp1400
a(S'diventato'
p1401
(dp1402
S'VERB'
p1403
F1.0
s(lp1404
(g304
I39
tp1405
atp1406
a(S'realt\xc3\xa0'
p1407
(dp1408
S'NOUN'
p1409
F1.0
s(lp1410
(g311
I41
tp1411
atp1412
a(g196
(dp1413
g196
F1.0
s(lp1414
(g196
I42
tp1415
atp1416
asS'sk'
p1417
(lp1418
(S'd\xc3\xb4le\xc5\xbeit\xc3\xa1'
p1419
(dp1420
S'ADJ'
p1421
F1.0
s(lp1422
(g22
I1
tp1423
atp1424
a(S'je'
p1425
(dp1426
g397
F0.00027800000000000004
sS'VERB'
p1427
F0.999695
sS'PRON'
p1428
F2.7e-05
s(lp1429
(g29
I2
tp1430
atp1431
a(S'aj'
p1432
(dp1433
g397
F0.916854
sS'CONJ'
p1434
F0.083146
s(lp1435
(g15
I0
tp1436
atp1437
a(S'ot\xc3\xa1zka'
p1438
(dp1439
S'NOUN'
p1440
F1.0
s(lp1441
(g45
I6
tp1442
atp1443
a(S'mnohostrannosti'
p1444
(dp1445
S'NOUN'
p1446
F1.0
s(lp1447
(g58
I5
tp1448
atp1449
a(g552
(dp1450
g397
F0.001947
sS'CONJ'
p1451
F0.997195
sS'NOUN'
p1452
F0.000151
sS'ADP'
p1453
F0.00067
sS'PRT'
p1454
F3.9e-05
s(lp1455
(g85
I7
tp1456
atp1457
a(S'potreby'
p1458
(dp1459
S'NOUN'
p1460
F1.0
s(lp1461
(g107
I9
tp1462
atp1463
a(S'dobr\xc3\xa9ho'
p1464
(dp1465
S'NOUN'
p1466
F0.011594
sS'ADJ'
p1467
F0.988406
s(lp1468
(g131
I12
tp1469
atp1470
a(S'zast\xc3\xbapenia'
p1471
(dp1472
S'NOUN'
p1473
F1.0
s(lp1474
(g153
I14
tp1475
atp1476
a(S'e\xc3\x9a'
p1477
(dp1478
S'ADV'
p1479
F0.006416
sS'ADJ'
p1480
F0.100535
sS'VERB'
p1481
F0.468896
sS'NOUN'
p1482
F0.41683099999999995
sg397
F0.007322
s(lp1483
(g78
I4
tp1484
atp1485
a(S'v'
p1486
(dp1487
g397
F0.000241
sS'ADP'
p1488
F0.999759
s(lp1489
(g161
I15
tp1490
atp1491
a(S'r\xc3\xb4znych'
p1492
(dp1493
S'ADJ'
p1494
F1.0
s(lp1495
(g177
I17
tp1496
atp1497
a(S'strategick\xc3\xbdch'
p1498
(dp1499
S'ADJ'
p1500
F1.0
s(lp1501
(g191
I18
tp1502
atp1503
a(S's\xc3\xbavislostiach'
p1504
(dp1505
S'NOUN'
p1506
F1.0
s(lp1507
(g184
I19
tp1508
atp1509
a(S'najm\xc3\xa4'
p1510
(dp1511
g397
F1.0
s(lp1512
(g224
I25
tp1513
atp1514
a(S's'
p1515
(dp1516
g397
F0.00078
sS'CONJ'
p1517
F1.2e-05
sS'NOUN'
p1518
F7.000000000000001e-06
sS'ADP'
p1519
F0.99918
sS'PRT'
p1520
F2.2e-05
s(lp1521
(g231
I27
tp1522
atp1523
a(S'vyu\xc5\xbeit\xc3\xadm'
p1524
(dp1525
S'NOUN'
p1526
F1.0
s(lp1527
(g217
I22
tp1528
atp1529
a(S'novej'
p1530
(dp1531
S'ADJ'
p1532
F1.0
s(lp1533
(g247
I29
tp1534
atp1535
a(S'eur\xc3\xb3pskej'
p1536
(dp1537
S'ADJ'
p1538
F1.0
s(lp1539
(g255
I30
tp1540
atp1541
a(S'slu\xc5\xbeby'
p1542
(dp1543
S'NOUN'
p1544
F1.0
s(lp1545
(g255
I30
tp1546
atp1547
a(S'pre'
p1548
(dp1549
g397
F0.000105
sS'ADP'
p1550
F0.999895
s(lp1551
(g255
I30
tp1552
atp1553
a(S'vonkaj\xc5\xa1iu'
p1554
(dp1555
S'ADJ'
p1556
F1.0
s(lp1557
(g255
I30
tp1558
atp1559
a(S'\xc4\x8dinnos\xc5\xa5'
p1560
(dp1561
S'NOUN'
p1562
F1.0
s(lp1563
(g255
I30
tp1564
atp1565
a(S'('
p1566
(dp1567
g196
F1.0
s(lp1568
(g255
I30
tp1569
atp1570
a(S'esv\xc4\x8c'
p1571
(dp1572
S'ADV'
p1573
F0.016111999999999998
sS'ADJ'
p1574
F0.275783
sS'VERB'
p1575
F0.046857
sS'NOUN'
p1576
F0.6612469999999999
s(lp1577
tp1578
a(S')'
p1579
(dp1580
g196
F1.0
s(lp1581
(g255
I30
tp1582
atp1583
a(S'ako'
p1584
(dp1585
S'PRON'
p1586
F0.007235
sS'CONJ'
p1587
F0.992594
sg397
F0.000171
s(lp1588
(g267
I32
tp1589
atp1590
a(S'eur\xc3\xb3pskeho'
p1591
(dp1592
S'ADJ'
p1593
F1.0
s(lp1594
(g290
I33
tp1595
atp1596
a(S'diplomatick\xc3\xa9ho'
p1597
(dp1598
S'ADJ'
p1599
F1.0
s(lp1600
(g282
I34
tp1601
atp1602
a(S'zboru'
p1603
(dp1604
S'NOUN'
p1605
F1.0
s(lp1606
(g274
I35
tp1607
atp1608
a(g194
(dp1609
g196
F1.0
s(lp1610
tp1611
a(S'ktor\xc3\xbd'
p1612
(dp1613
S'PRON'
p1614
F1.0
s(lp1615
(g528
I36
tp1616
atp1617
a(S'sa'
p1618
(dp1619
S'PRT'
p1620
F0.999785
sS'ADP'
p1621
F2e-06
sg397
F0.00021300000000000003
s(lp1622
(g536
I37
tp1623
atp1624
a(S'kone\xc4\x8dne'
p1625
(dp1626
S'ADV'
p1627
F0.634989
sg397
F0.365011
s(lp1628
(g297
I38
tp1629
atp1630
a(S'stal'
p1631
(dp1632
S'VERB'
p1633
F1.0
s(lp1634
(g304
I39
tp1635
atp1636
a(S'skuto\xc4\x8dnos\xc5\xa5ou'
p1637
(dp1638
S'NOUN'
p1639
F1.0
s(lp1640
(g311
I41
tp1641
atp1642
a(g196
(dp1643
g196
F1.0
s(lp1644
(g196
I42
tp1645
atp1646
asS'pl'
p1647
(lp1648
(S'r\xc3\xb3wnie'
p1649
(dp1650
S'ADV'
p1651
F1.0
s(lp1652
(g15
I0
tp1653
atp1654
a(S'istotna'
p1655
(dp1656
S'ADJ'
p1657
F1.0
s(lp1658
(g22
I1
tp1659
atp1660
a(S'jest'
p1661
(dp1662
S'VERB'
p1663
F1.0
s(lp1664
(g29
I2
tp1665
atp1666
a(S'te\xc5\xbc'
p1667
(dp1668
S'PRT'
p1669
F0.994012
sS'CONJ'
p1670
F0.005988
s(lp1671
(g38
I3
tp1672
atp1673
a(S'kwestia'
p1674
(dp1675
S'NOUN'
p1676
F1.0
s(lp1677
(g45
I6
tp1678
atp1679
a(S'multilateralizmu'
p1680
(dp1681
S'ADJ'
p1682
F0.039035
sS'VERB'
p1683
F0.00189
sS'NOUN'
p1684
F0.959075
s(lp1685
(g58
I5
tp1686
atp1687
a(S'ue'
p1688
(dp1689
S'ADJ'
p1690
F0.000255
sS'VERB'
p1691
F0.001151
sS'NOUN'
p1692
F0.9985940000000001
s(lp1693
(g78
I4
tp1694
atp1695
a(S'i'
p1696
(dp1697
S'PRT'
p1698
F0.000937
sS'CONJ'
p1699
F0.998987
sS'NOUN'
p1700
F4.9999999999999996e-05
sg397
F5e-06
sS'PRON'
p1701
F2.1e-05
s(lp1702
(g85
I7
tp1703
atp1704
a(S'konieczno\xc5\x9bci'
p1705
(dp1706
S'NOUN'
p1707
F1.0
s(lp1708
(g107
I9
tp1709
atp1710
a(S'zapewnienia'
p1711
(dp1712
S'VERB'
p1713
F0.728715
sS'NOUN'
p1714
F0.271285
s(lp1715
(g139
I11
tp1716
atp1717
a(S'zawsze'
p1718
(dp1719
S'ADV'
p1720
F1.0
s(lp1721
(g131
I12
tp1722
atp1723
a(S'dobrej'
p1724
(dp1725
S'ADJ'
p1726
F1.0
s(lp1727
(g146
I13
tp1728
atp1729
a(S'reprezentacji'
p1730
(dp1731
S'NOUN'
p1732
F1.0
s(lp1733
(g153
I14
tp1734
atp1735
a(S'w'
p1736
(dp1737
g397
F0.0
sS'ADJ'
p1738
F0.0
sS'ADP'
p1739
F0.999999
sS'NOUN'
p1740
F0.0
s(lp1741
(g161
I15
tp1742
atp1743
a(S'r\xc3\xb3\xc5\xbcnych'
p1744
(dp1745
S'ADJ'
p1746
F0.9999990000000001
s(lp1747
(g177
I17
tp1748
atp1749
a(S'kontekstach'
p1750
(dp1751
S'NOUN'
p1752
F1.0
s(lp1753
tp1754
a(S'strategicznych'
p1755
(dp1756
S'ADJ'
p1757
F1.0
s(lp1758
(g191
I18
tp1759
atp1760
a(g194
(dp1761
g397
F0.0
sg196
F1.0
s(lp1762
(g194
I20
tp1763
atp1764
a(S'z'
p1765
(dp1766
g397
F1e-06
sS'VERB'
p1767
F0.0
sS'NOUN'
p1768
F0.0
sS'ADP'
p1769
F0.9999979999999999
sS'PRT'
p1770
F1e-06
s(lp1771
(g217
I22
tp1772
atp1773
a(S'wykorzystaniem'
p1774
(dp1775
S'VERB'
p1776
F1.0
s(lp1777
(g184
I19
tp1778
atp1779
a(g1736
(dp1780
g397
F0.0
sS'ADJ'
p1781
F0.0
sS'ADP'
p1782
F0.999999
sS'NOUN'
p1783
F0.0
s(lp1784
(g457
I24
tp1785
atp1786
a(S'szczeg\xc3\xb3lno\xc5\x9bci'
p1787
(dp1788
S'NOUN'
p1789
F1.0
s(lp1790
(g224
I25
tp1791
atp1792
a(S'nowej'
p1793
(dp1794
S'NOUN'
p1795
F0.003319
sS'ADJ'
p1796
F0.9966809999999999
s(lp1797
(g247
I29
tp1798
atp1799
a(S'esdz'
p1800
(dp1801
S'ADJ'
p1802
F0.001159
sS'VERB'
p1803
F0.000615
sS'NOUN'
p1804
F0.998225
s(lp1805
(g255
I30
tp1806
atp1807
a(g194
(dp1808
g397
F0.0
sg196
F1.0
s(lp1809
(g194
I31
tp1810
atp1811
a(S'europejskiego'
p1812
(dp1813
S'ADJ'
p1814
F1.0
s(lp1815
(g290
I33
tp1816
atp1817
a(S'korpusu'
p1818
(dp1819
S'NOUN'
p1820
F1.0
s(lp1821
(g274
I35
tp1822
atp1823
a(S'dyplomatycznego'
p1824
(dp1825
S'ADJ'
p1826
F1.0
s(lp1827
(g282
I34
tp1828
atp1829
a(g194
(dp1830
g397
F0.0
sg196
F1.0
s(lp1831
tp1832
a(S'kt\xc3\xb3ry'
p1833
(dp1834
S'ADJ'
p1835
F0.999999
s(lp1836
(g528
I36
tp1837
atp1838
a(S'wreszcie'
p1839
(dp1840
S'ADV'
p1841
F0.11038
sS'PRT'
p1842
F0.88962
s(lp1843
(g297
I38
tp1844
atp1845
a(S'zosta\xc5\x82'
p1846
(dp1847
S'VERB'
p1848
F1.0
s(lp1849
tp1850
a(S'utworzony'
p1851
(dp1852
S'VERB'
p1853
F1.0
s(lp1854
(g274
I35
tp1855
atp1856
a(g196
(dp1857
g196
F1.0
s(lp1858
(g196
I42
tp1859
atp1860
asS'sl'
p1861
(lp1862
(S'prav'
p1863
(dp1864
S'ADV'
p1865
F0.102297
sS'PRT'
p1866
F0.895972
sS'VERB'
p1867
F0.001732
s(lp1868
tp1869
a(S'tako'
p1870
(dp1871
S'ADV'
p1872
F0.980351
sS'PRON'
p1873
F0.011323000000000001
sS'CONJ'
p1874
F0.008325
s(lp1875
(g15
I0
tp1876
atp1877
a(S'pomembno'
p1878
(dp1879
S'ADV'
p1880
F0.001158
sS'ADJ'
p1881
F0.998842
s(lp1882
(g22
I1
tp1883
atp1884
a(S'vpra\xc5\xa1anje'
p1885
(dp1886
S'NOUN'
p1887
F1.0
s(lp1888
(g45
I6
tp1889
atp1890
a(S'je'
p1891
(dp1892
S'PRON'
p1893
F0.000124
sS'VERB'
p1894
F0.999876
sg397
F1e-06
s(lp1895
(g29
I2
tp1896
atp1897
a(S've\xc4\x8dstransko'
p1898
(dp1899
S'ADV'
p1900
F1.0
s(lp1901
tp1902
a(S'delovanje'
p1903
(dp1904
S'NOUN'
p1905
F1.0
s(lp1906
(g58
I5
tp1907
atp1908
a(S'eu'
p1909
(dp1910
S'ADV'
p1911
F0.004802
sS'ADJ'
p1912
F0.181124
sS'VERB'
p1913
F0.001177
sS'NOUN'
p1914
F0.8128939999999998
s(lp1915
(g78
I4
tp1916
atp1917
a(S'in'
p1918
(dp1919
S'ADV'
p1920
F3.2e-05
sg397
F2.6e-05
sS'CONJ'
p1921
F0.99991
sS'NOUN'
p1922
F3.2e-05
s(lp1923
(g85
I7
tp1924
atp1925
a(S'potreba'
p1926
(dp1927
S'NOUN'
p1928
F1.0
s(lp1929
(g107
I9
tp1930
atp1931
a(g194
(dp1932
g196
F1.0
s(lp1933
tp1934
a(S'da'
p1935
(dp1936
S'PRT'
p1937
F4e-06
sS'CONJ'
p1938
F0.999979
sS'VERB'
p1939
F1.7e-05
sg397
F1e-06
s(lp1940
(g114
I10
tp1941
atp1942
a(S'je'
p1943
(dp1944
S'PRON'
p1945
F0.00154
sS'VERB'
p1946
F0.99846
sg397
F0.0
s(lp1947
(g139
I11
tp1948
atp1949
a(S'vedno'
p1950
(dp1951
S'ADV'
p1952
F1.0
s(lp1953
(g131
I12
tp1954
atp1955
a(S'dobro'
p1956
(dp1957
S'ADV'
p1958
F0.967104
sS'NOUN'
p1959
F0.003796
sS'ADJ'
p1960
F0.029039999999999996
sg397
F6.1e-05
s(lp1961
(g146
I13
tp1962
atp1963
a(S'zastopana'
p1964
(dp1965
S'ADV'
p1966
F0.001561
sS'NOUN'
p1967
F0.27004999999999996
sS'VERB'
p1968
F0.030088999999999994
sS'ADJ'
p1969
F0.6982999999999998
s(lp1970
(g153
I14
tp1971
atp1972
a(g1486
(dp1973
S'ADP'
p1974
F1.0
s(lp1975
(g161
I15
tp1976
atp1977
a(S'razli\xc4\x8dnih'
p1978
(dp1979
S'ADJ'
p1980
F1.000001
s(lp1981
(g177
I17
tp1982
atp1983
a(S'strate\xc5\xa1kih'
p1984
(dp1985
S'ADJ'
p1986
F1.0
s(lp1987
(g191
I18
tp1988
atp1989
a(S'okvirih'
p1990
(dp1991
S'NOUN'
p1992
F1.0
s(lp1993
(g184
I19
tp1994
atp1995
a(g194
(dp1996
g196
F1.0
s(lp1997
(g194
I20
tp1998
atp1999
a(S'zlasti'
p2000
(dp2001
S'ADV'
p2002
F0.025437
sS'PRT'
p2003
F0.974563
s(lp2004
(g224
I25
tp2005
atp2006
a(g1765
(dp2007
S'ADP'
p2008
F1.0
s(lp2009
(g210
I21
tp2010
atp2011
a(S'izkori\xc5\xa1\xc4\x8danjem'
p2012
(dp2013
S'NOUN'
p2014
F1.0
s(lp2015
(g217
I22
tp2016
atp2017
a(S'nove'
p2018
(dp2019
g397
F0.000631
sS'ADJ'
p2020
F0.9993700000000001
s(lp2021
(g247
I29
tp2022
atp2023
a(S'evropske'
p2024
(dp2025
S'ADJ'
p2026
F0.9999999999999999
s(lp2027
(g255
I30
tp2028
atp2029
a(S'slu\xc5\xbebe'
p2030
(dp2031
S'NOUN'
p2032
F1.0
s(lp2033
(g255
I30
tp2034
atp2035
a(S'za'
p2036
(dp2037
S'ADV'
p2038
F3.2e-05
sg397
F2e-06
sS'ADP'
p2039
F0.9999659999999999
s(lp2040
(g231
I27
tp2041
atp2042
a(S'zunanje'
p2043
(dp2044
S'ADV'
p2045
F2.2e-05
sS'ADJ'
p2046
F0.999978
s(lp2047
tp2048
a(S'delovanje'
p2049
(dp2050
S'NOUN'
p2051
F1.0
s(lp2052
(g255
I30
tp2053
atp2054
a(g194
(dp2055
g196
F1.0
s(lp2056
(g194
I31
tp2057
atp2058
a(S'evropske'
p2059
(dp2060
S'ADJ'
p2061
F1.000001
s(lp2062
(g290
I33
tp2063
atp2064
a(S'diplomatske'
p2065
(dp2066
S'ADJ'
p2067
F1.0
s(lp2068
(g282
I34
tp2069
atp2070
a(S'slu\xc5\xbebe'
p2071
(dp2072
S'NOUN'
p2073
F0.999999
s(lp2074
(g274
I35
tp2075
atp2076
a(g194
(dp2077
g196
F1.0
s(lp2078
tp2079
a(S'ki'
p2080
(dp2081
S'CONJ'
p2082
F1.0
s(lp2083
(g528
I36
tp2084
atp2085
a(S'je'
p2086
(dp2087
S'PRON'
p2088
F0.001545
sS'VERB'
p2089
F0.9984550000000001
sg397
F0.0
s(lp2090
(g536
I37
tp2091
atp2092
a(S'kon\xc4\x8dno'
p2093
(dp2094
S'ADV'
p2095
F0.998232
sS'ADJ'
p2096
F0.001768
s(lp2097
(g297
I38
tp2098
atp2099
a(S'postala'
p2100
(dp2101
S'VERB'
p2102
F1.0
s(lp2103
(g304
I39
tp2104
atp2105
a(S'realnost'
p2106
(dp2107
S'NOUN'
p2108
F1.0
s(lp2109
(g311
I41
tp2110
atp2111
a(g196
(dp2112
g196
F1.0
s(lp2113
(g196
I42
tp2114
atp2115
asS'es'
p2116
(lp2117
(S'igual'
p2118
(dp2119
S'ADJ'
p2120
F1.0
s(lp2121
(g15
I0
tp2122
atp2123
a(S'de'
p2124
(dp2125
g397
F0.000308
sS'CONJ'
p2126
F0.003572
sS'ADP'
p2127
F0.99612
s(lp2128
tp2129
a(S'importante'
p2130
(dp2131
S'VERB'
p2132
F0.036689
sS'ADJ'
p2133
F0.963311
s(lp2134
(g22
I1
tp2135
atp2136
a(S'son'
p2137
(dp2138
S'VERB'
p2139
F0.999934
sS'NOUN'
p2140
F6.6e-05
s(lp2141
(g29
I2
tp2142
atp2143
a(S'los'
p2144
(dp2145
S'PRON'
p2146
F0.0
sS'DET'
p2147
F1.0
s(lp2148
(g38
I3
tp2149
atp2150
a(S'problemas'
p2151
(dp2152
S'NOUN'
p2153
F1.0
s(lp2154
(g45
I6
tp2155
atp2156
a(S'multilaterales'
p2157
(dp2158
S'ADJ'
p2159
F1.0
s(lp2160
(g58
I5
tp2161
atp2162
a(S'de'
p2163
(dp2164
g397
F0.0
sS'CONJ'
p2165
F5.7e-05
sS'ADP'
p2166
F0.999943
s(lp2167
tp2168
a(S'la'
p2169
(dp2170
g397
F0.0
sS'PRON'
p2171
F0.0
sS'DET'
p2172
F0.999999
sS'NOUN'
p2173
F0.0
s(lp2174
tp2175
a(S'ue'
p2176
(dp2177
S'VERB'
p2178
F4e-06
sS'NOUN'
p2179
F0.999995
s(lp2180
(g78
I4
tp2181
atp2182
a(S'y'
p2183
(dp2184
g397
F0.000395
sS'CONJ'
p2185
F0.999605
s(lp2186
(g85
I7
tp2187
atp2188
a(S'la'
p2189
(dp2190
S'PRON'
p2191
F0.000591
sS'DET'
p2192
F0.999408
sS'NOUN'
p2193
F0.0
sg397
F0.0
s(lp2194
(g99
I8
tp2195
atp2196
a(S'necesidad'
p2197
(dp2198
S'NOUN'
p2199
F1.0
s(lp2200
(g107
I9
tp2201
atp2202
a(S'de'
p2203
(dp2204
g397
F0.0
sS'CONJ'
p2205
F0.066337
sS'ADP'
p2206
F0.933663
s(lp2207
(g114
I10
tp2208
atp2209
a(S'ser'
p2210
(dp2211
S'VERB'
p2212
F0.997556
sS'NOUN'
p2213
F0.002444
s(lp2214
(g139
I11
tp2215
atp2216
a(S'siempre'
p2217
(dp2218
S'ADV'
p2219
F1.0
s(lp2220
(g131
I12
tp2221
atp2222
a(S'bien'
p2223
(dp2224
S'ADV'
p2225
F0.995395
sS'NOUN'
p2226
F0.004605
s(lp2227
(g146
I13
tp2228
atp2229
a(S'representados'
p2230
(dp2231
S'VERB'
p2232
F1.0
s(lp2233
(g153
I14
tp2234
atp2235
a(S'en'
p2236
(dp2237
g397
F0.0
sS'CONJ'
p2238
F0.0
sS'ADP'
p2239
F1.0
s(lp2240
(g161
I15
tp2241
atp2242
a(S'los'
p2243
(dp2244
S'PRON'
p2245
F0.0
sS'DET'
p2246
F1.0
s(lp2247
(g170
I16
tp2248
atp2249
a(S'diferentes'
p2250
(dp2251
S'ADJ'
p2252
F1.0
s(lp2253
(g177
I17
tp2254
atp2255
a(S'contextos'
p2256
(dp2257
S'NOUN'
p2258
F1.0
s(lp2259
(g184
I19
tp2260
atp2261
a(S'estrat\xc3\xa9gicos'
p2262
(dp2263
S'ADJ'
p2264
F1.0
s(lp2265
(g191
I18
tp2266
atp2267
a(g194
(dp2268
g196
F1.0
s(lp2269
(g194
I20
tp2270
atp2271
a(S'tomando'
p2272
(dp2273
S'VERB'
p2274
F1.0
s(lp2275
(g210
I21
tp2276
atp2277
a(S'ventaja'
p2278
(dp2279
S'NOUN'
p2280
F1.0
s(lp2281
(g217
I22
tp2282
atp2283
a(g194
(dp2284
g196
F1.0
s(lp2285
(g194
I23
tp2286
atp2287
a(S'en'
p2288
(dp2289
S'ADV'
p2290
F1.0
s(lp2291
(g457
I24
tp2292
atp2293
a(S'particular'
p2294
(dp2295
S'ADV'
p2296
F1.0
s(lp2297
(g224
I25
tp2298
atp2299
a(g194
(dp2300
g196
F1.0
s(lp2301
(g194
I26
tp2302
atp2303
a(S'del'
p2304
(dp2305
S'ADP'
p2306
F1.0
s(lp2307
(g231
I27
tp2308
atp2309
a(S'nuevo'
p2310
(dp2311
S'ADJ'
p2312
F1.0
s(lp2313
(g247
I29
tp2314
atp2315
a(S'seae'
p2316
(dp2317
S'ADV'
p2318
F0.06584
sS'ADJ'
p2319
F0.106232
sS'VERB'
p2320
F0.277724
sS'NOUN'
p2321
F0.550204
s(lp2322
(g255
I30
tp2323
atp2324
a(g194
(dp2325
g196
F1.0
s(lp2326
(g194
I31
tp2327
atp2328
a(S'el'
p2329
(dp2330
S'PRON'
p2331
F1e-05
sS'DET'
p2332
F0.99999
s(lp2333
(g267
I32
tp2334
atp2335
a(S'cuerpo'
p2336
(dp2337
S'NOUN'
p2338
F1.0
s(lp2339
(g274
I35
tp2340
atp2341
a(S'diplom\xc3\xa1tico'
p2342
(dp2343
S'NOUN'
p2344
F0.299473
sS'ADJ'
p2345
F0.700527
s(lp2346
(g282
I34
tp2347
atp2348
a(S'europeo'
p2349
(dp2350
S'NOUN'
p2351
F0.024956
sS'ADJ'
p2352
F0.975044
s(lp2353
(g290
I33
tp2354
atp2355
a(S'que'
p2356
(dp2357
g397
F0.0
sS'CONJ'
p2358
F1.0
s(lp2359
(g528
I36
tp2360
atp2361
a(S'finalmente'
p2362
(dp2363
S'ADV'
p2364
F1.0
s(lp2365
(g297
I38
tp2366
atp2367
a(S'se'
p2368
(dp2369
S'PRON'
p2370
F1.0
sS'VERB'
p2371
F0.0
s(lp2372
tp2373
a(S'ha'
p2374
(dp2375
S'VERB'
p2376
F1.0
s(lp2377
(g536
I37
tp2378
atp2379
a(S'vuelto'
p2380
(dp2381
S'VERB'
p2382
F1.0
s(lp2383
(g304
I39
tp2384
atp2385
a(S'una'
p2386
(dp2387
S'DET'
p2388
F1.0
s(lp2389
(g552
I40
tp2390
atp2391
a(S'realidad'
p2392
(dp2393
S'NOUN'
p2394
F1.0
s(lp2395
(g311
I41
tp2396
atp2397
a(g196
(dp2398
g196
F1.0
s(lp2399
(g196
I42
tp2400
atp2401
as.