(dp0
S'fr'
p1
(lp2
(S'les'
p3
(dp4
S'PRON'
p5
F0.000401
sS'DET'
p6
F0.999576
sS'ADP'
p7
F2.3e-05
s(lp8
tp9
a(S'travailleurs'
p10
(dp11
S'ADJ'
p12
F0.005825
sS'NOUN'
p13
F0.994175
s(lp14
(S'employees'
p15
I1
tp16
atp17
a(S'\xc3\xa2g\xc3\xa9s'
p18
(dp19
S'ADJ'
p20
F1.0
s(lp21
(S'older'
p22
I0
tp23
atp24
a(S'doivent'
p25
(dp26
S'VERB'
p27
F1.0
s(lp28
(S'must'
p29
I2
tp30
atp31
a(S'pouvoir'
p32
(dp33
S'VERB'
p34
F0.917765
sS'NOUN'
p35
F0.082235
s(lp36
(S'able'
p37
I5
tp38
atp39
a(S'continuer'
p40
(dp41
S'VERB'
p42
F1.0
s(lp43
(S'still'
p44
I3
tp45
atp46
a(S'\xc3\xa0'
p47
(dp48
S'ADP'
p49
F1.0
s(lp50
(S'to'
p51
I6
tp52
atp53
a(S'prendre'
p54
(dp55
S'VERB'
p56
F1.0
s(lp57
(S'retire'
p58
I7
tp59
atp60
a(S'leur'
p61
(dp62
S'PRON'
p63
F1.0
s(lp64
tp65
a(S'retraite'
p66
(dp67
S'ADJ'
p68
F0.012421
sS'VERB'
p69
F0.000833
sS'NOUN'
p70
F0.986746
s(lp71
(g58
I7
tp72
atp73
a(S'\xc3\xa0'
p74
(dp75
S'ADP'
p76
F1.0
s(lp77
(S'at'
p78
I8
tp79
atp80
a(S"l'"
p81
(dp82
S'ADJ'
p83
F0.160704
sS'VERB'
p84
F0.06480800000000002
sS'NOUN'
p85
F0.774488
s(lp86
(S'the'
p87
I9
tp88
atp89
a(S'\xc3\xa2ge'
p90
(dp91
S'NOUN'
p92
F1.0
s(lp93
(S'age'
p94
I10
tp95
atp96
a(S'fix\xc3\xa9'
p97
(dp98
S'NOUN'
p99
F0.003681
sS'VERB'
p100
F0.947442
sS'ADJ'
p101
F0.048877
s(lp102
(S'specified'
p103
I11
tp104
atp105
a(S'par'
p106
(dp107
S'NOUN'
p108
F0.0
sS'ADP'
p109
F1.0
s(lp110
(S'by'
p111
I12
tp112
atp113
a(S'la'
p114
(dp115
S'PRON'
p116
F1.2e-05
sS'DET'
p117
F0.999988
sS'NOUN'
p118
F0.0
s(lp119
tp120
a(S'loi'
p121
(dp122
S'NOUN'
p123
F1.0
s(lp124
(S'law'
p125
I13
tp126
atp127
a(S'sans'
p128
(dp129
S'CONJ'
p130
F0.015381
sS'ADP'
p131
F0.984619
s(lp132
(S'without'
p133
I14
tp134
atp135
a(S'courir'
p136
(dp137
S'VERB'
p138
F1.0
s(lp139
tp140
a(S'le'
p141
(dp142
S'PRON'
p143
F0.023834
sS'DET'
p144
F0.976166
s(lp145
(S'the'
p146
I15
tp147
atp148
a(S'risque'
p149
(dp150
S'VERB'
p151
F0.027060999999999998
sS'NOUN'
p152
F0.972938
s(lp153
(S'risk'
p154
I16
tp155
atp156
a(S'de'
p157
(dp158
S'ADP'
p159
F1.0
s(lp160
(S'of'
p161
I17
tp162
atp163
a(S'faire'
p164
(dp165
S'VERB'
p166
F1.0
s(lp167
(S'being'
p168
I18
tp169
atp170
a(S"l'"
p171
(dp172
S'ADJ'
p173
F0.050629
sS'VERB'
p174
F0.794975
sS'NOUN'
p175
F0.154398
s(lp176
tp177
a(S'objet'
p178
(dp179
S'NOUN'
p180
F1.0
s(lp181
(S'subjected'
p182
I19
tp183
atp184
a(S"d'"
p185
(dp186
S'NOUN'
p187
F0.032441
sS'VERB'
p188
F0.694014
sS'ADJ'
p189
F0.273544
s(lp190
(S'to'
p191
I20
tp192
atp193
a(S'une'
p194
(dp195
S'NOUN'
p196
F1.5e-05
sS'NUM'
p197
F0.021976
sS'DET'
p198
F0.978009
s(lp199
tp200
a(S'discrimination'
p201
(dp202
S'NOUN'
p203
F1.0
s(lp204
(S'discrimination'
p205
I21
tp206
atp207
a(S'.'
p208
(dp209
g208
F1.0
s(lp210
(g208
I22
tp211
atp212
asS'en'
p213
(lp214
(g22
(dp215
S'ADJ'
p216
F1.0
s(lp217
(g22
I0
tp218
atp219
a(g15
(dp220
S'NOUN'
p221
F1.0
s(lp222
(g15
I1
tp223
atp224
a(g29
(dp225
S'VERB'
p226
F1.0
sS'NOUN'
p227
F0.0
s(lp228
(g29
I2
tp229
atp230
a(g44
(dp231
S'ADV'
p232
F0.999999
sS'ADJ'
p233
F0.0
sS'VERB'
p234
F1e-06
sS'NOUN'
p235
F0.0
s(lp236
(g44
I3
tp237
atp238
a(S'be'
p239
(dp240
S'VERB'
p241
F1.0
s(lp242
(g239
I4
tp243
atp244
a(g37
(dp245
S'ADJ'
p246
F1.0
s(lp247
(g37
I5
tp248
atp249
a(g51
(dp250
S'ADV'
p251
F0.0
sS'PRT'
p252
F1.0
sS'ADP'
p253
F0.0
s(lp254
(g51
I6
tp255
atp256
a(g58
(dp257
S'VERB'
p258
F1.0
s(lp259
(g58
I7
tp260
atp261
a(g78
(dp262
S'NOUN'
p263
F1e-06
sS'ADP'
p264
F0.999998
s(lp265
(g78
I8
tp266
atp267
a(g87
(dp268
S'NOUN'
p269
F1e-06
sS'DET'
p270
F0.999999
s(lp271
(g87
I9
tp272
atp273
a(g94
(dp274
S'VERB'
p275
F0.000185
sS'NOUN'
p276
F0.999815
s(lp277
(g94
I10
tp278
atp279
a(g103
(dp280
S'VERB'
p281
F0.98414
sS'ADJ'
p282
F0.015859
s(lp283
(g103
I11
tp284
atp285
a(g111
(dp286
S'ADV'
p287
F8.3e-05
sS'NOUN'
p288
F2e-06
sS'ADP'
p289
F0.999915
s(lp290
(g111
I12
tp291
atp292
a(g125
(dp293
S'NOUN'
p294
F1.0
s(lp295
(g125
I13
tp296
atp297
a(g133
(dp298
S'ADP'
p299
F1.0
s(lp300
(g133
I14
tp301
atp302
a(g146
(dp303
S'NOUN'
p304
F1e-06
sS'DET'
p305
F0.999999
s(lp306
(g146
I15
tp307
atp308
a(g154
(dp309
S'VERB'
p310
F0.000352
sS'NOUN'
p311
F0.999648
s(lp312
(g154
I16
tp313
atp314
a(g161
(dp315
S'ADP'
p316
F1.0
s(lp317
(g161
I17
tp318
atp319
a(g168
(dp320
S'NOUN'
p321
F1.3e-05
sS'VERB'
p322
F0.999974
sS'ADJ'
p323
F1.3e-05
s(lp324
(g168
I18
tp325
atp326
a(g182
(dp327
S'VERB'
p328
F1.0
s(lp329
(g182
I19
tp330
atp331
a(g191
(dp332
S'ADV'
p333
F0.0
sS'PRT'
p334
F0.999991
sS'ADP'
p335
F8e-06
s(lp336
(g191
I20
tp337
atp338
a(g205
(dp339
S'NOUN'
p340
F1.0
s(lp341
(g205
I21
tp342
atp343
a(g208
(dp344
g208
F1.0
s(lp345
(g208
I22
tp346
atp347
asS'nl'
p348
(lp349
(S'oudere'
p350
(dp351
S'NOUN'
p352
F6e-06
sS'ADJ'
p353
F0.999994
s(lp354
(g22
I0
tp355
atp356
a(S'werknemers'
p357
(dp358
S'NOUN'
p359
F1.0
s(lp360
(g15
I1
tp361
atp362
a(S'moeten'
p363
(dp364
S'VERB'
p365
F0.999997
sS'NOUN'
p366
F3e-06
s(lp367
(g29
I2
tp368
atp369
a(S'de'
p370
(dp371
S'DET'
p372
F1.0
s(lp373
(g146
I15
tp374
atp375
a(S'mogelijkheid'
p376
(dp377
S'NOUN'
p378
F1.0
s(lp379
(g37
I5
tp380
atp381
a(S'behouden'
p382
(dp383
S'NOUN'
p384
F1e-06
sS'VERB'
p385
F0.999989
sS'ADJ'
p386
F1.1e-05
s(lp387
(g94
I10
tp388
atp389
a(S'om'
p390
(dp391
S'ADV'
p392
F0.008623
sS'CONJ'
p393
F0.976893
sS'ADP'
p394
F0.014484
s(lp395
tp396
a(S'op'
p397
(dp398
S'ADV'
p399
F0.011776
sS'ADJ'
p400
F0.0
sS'ADP'
p401
F0.988224
s(lp402
(g78
I8
tp403
atp404
a(S'het'
p405
(dp406
S'PRON'
p407
F0.005873
sS'DET'
p408
F0.994127
s(lp409
(g87
I9
tp410
atp411
a(S'wettelijk'
p412
(dp413
S'ADJ'
p414
F1.0
s(lp415
(g125
I13
tp416
atp417
a(S'vastgestelde'
p418
(dp419
S'VERB'
p420
F0.999865
sS'NOUN'
p421
F0.000135
s(lp422
(g103
I11
tp423
atp424
a(S'tijdstip'
p425
(dp426
S'NOUN'
p427
F1.0
s(lp428
(g58
I7
tp429
atp430
a(S'met'
p431
(dp432
S'ADP'
p433
F1.0
s(lp434
(g58
I7
tp435
atp436
a(S'pensioen'
p437
(dp438
S'NOUN'
p439
F1.0
s(lp440
tp441
a(S'te'
p442
(dp443
S'PRT'
p444
F1.0
s(lp445
(g51
I6
tp446
atp447
a(S'gaan'
p448
(dp449
S'VERB'
p450
F1.0
sS'NOUN'
p451
F0.0
s(lp452
(g58
I7
tp453
atp454
a(S','
p455
(dp456
g208
F1.0
s(lp457
tp458
a(S'zonder'
p459
(dp460
S'CONJ'
p461
F0.015527
sS'ADP'
p462
F0.984473
s(lp463
(g133
I14
tp464
atp465
a(S'dat'
p466
(dp467
S'PRON'
p468
F0.24354699999999999
sS'CONJ'
p469
F0.756454
s(lp470
tp471
a(S'zij'
p472
(dp473
S'PRON'
p474
F0.999982
sS'VERB'
p475
F7e-06
sS'NOUN'
p476
F1.1e-05
s(lp477
(g182
I19
tp478
atp479
a(S'gevaar'
p480
(dp481
S'NOUN'
p482
F1.0
s(lp483
tp484
a(S'lopen'
p485
(dp486
S'VERB'
p487
F0.98519
sS'NOUN'
p488
F0.01481
s(lp489
(g154
I16
tp490
atp491
a(S'te'
p492
(dp493
S'PRT'
p494
F1.0
s(lp495
(g191
I20
tp496
atp497
a(S'worden'
p498
(dp499
S'VERB'
p500
F1.0
sS'NOUN'
p501
F0.0
s(lp502
(g168
I18
tp503
atp504
a(S'gediscrimineerd'
p505
(dp506
S'VERB'
p507
F1.0
s(lp508
(g205
I21
tp509
atp510
a(g208
(dp511
g208
F1.0
s(lp512
(g208
I22
tp513
atp514
asS'de'
p515
(lp516
(S'\xc3\x84lteren'
p517
(dp518
S'NOUN'
p519
F0.00123
sS'ADJ'
p520
F0.99877
s(lp521
(g22
I0
tp522
atp523
a(S'arbeitnehmern'
p524
(dp525
S'ADJ'
p526
F0.001017
sS'NOUN'
p527
F0.997787
s(lp528
(g15
I1
tp529
atp530
a(S'muss'
p531
(dp532
S'VERB'
p533
F1.0
s(lp534
(g29
I2
tp535
atp536
a(g455
(dp537
g208
F1.0
s(lp538
tp539
a(S'ohne'
p540
(dp541
S'CONJ'
p542
F0.346412
sS'ADP'
p543
F0.653588
s(lp544
(g133
I14
tp545
atp546
a(S'der'
p547
(dp548
S'PRON'
p549
F0.000285
sS'DET'
p550
F0.999589
s(lp551
(g146
I15
tp552
atp553
a(S'gefahr'
p554
(dp555
S'ADJ'
p556
F0.012829
sS'NOUN'
p557
F0.978908
s(lp558
(g154
I16
tp559
atp560
a(S'der'
p561
(dp562
S'PRON'
p563
F2.5e-05
sS'DET'
p564
F0.999954
s(lp565
(g161
I17
tp566
atp567
a(S'diskriminierung'
p568
(dp569
S'ADJ'
p570
F0.000257
sS'NOUN'
p571
F0.999613
s(lp572
(g205
I21
tp573
atp574
a(S'ausgesetzt'
p575
(dp576
S'VERB'
p577
F0.851055
sS'ADJ'
p578
F0.148945
s(lp579
(g182
I19
tp580
atp581
a(S'zu'
p582
(dp583
S'PRT'
p584
F0.999941
sS'ADP'
p585
F3.1e-05
s(lp586
(g191
I20
tp587
atp588
a(S'sein'
p589
(dp590
S'VERB'
p591
F0.99997
s(lp592
(g239
I4
tp593
atp594
a(g455
(dp595
g208
F1.0
s(lp596
(g51
I6
tp597
atp598
a(S'der'
p599
(dp600
S'PRON'
p601
F0.045577
sS'DET'
p602
F0.95406
s(lp603
tp604
a(S'\xc3\x9cbergang'
p605
(dp606
S'ADJ'
p607
F0.000692
sS'NOUN'
p608
F0.999308
s(lp609
(g58
I7
tp610
atp611
a(S'in'
p612
(dp613
S'ADP'
p614
F1.0
s(lp615
(g78
I8
tp616
atp617
a(S'die'
p618
(dp619
S'PRON'
p620
F0.000204
sS'DET'
p621
F0.999766
s(lp622
(g87
I9
tp623
atp624
a(S'rente'
p625
(dp626
S'NOUN'
p627
F0.425942
sS'ADJ'
p628
F0.555649
s(lp629
(g58
I7
tp630
atp631
a(S'zum'
p632
(dp633
S'ADP'
p634
F1.0
s(lp635
(g111
I12
tp636
atp637
a(S'gesetzlich'
p638
(dp639
S'ADJ'
p640
F1.0
s(lp641
(g125
I13
tp642
atp643
a(S'vorgeschriebenen'
p644
(dp645
S'ADJ'
p646
F1.0
s(lp647
(g58
I7
tp648
atp649
a(S'zeitpunkt'
p650
(dp651
S'ADJ'
p652
F0.004754
sS'NOUN'
p653
F0.9923
s(lp654
tp655
a(S'erm\xc3\xb6glicht'
p656
(dp657
S'VERB'
p658
F0.595249
sS'ADJ'
p659
F0.401933
s(lp660
(g58
I7
tp661
atp662
a(S'bleiben'
p663
(dp664
S'VERB'
p665
F1.0
s(lp666
(g44
I3
tp667
atp668
a(g208
(dp669
g208
F1.0
s(lp670
(g208
I22
tp671
atp672
asS'it'
p673
(lp674
(S'i'
p675
(dp676
S'DET'
p677
F1.0
s(lp678
tp679
a(S'lavoratori'
p680
(dp681
S'NOUN'
p682
F1.0
s(lp683
(g15
I1
tp684
atp685
a(S'anziani'
p686
(dp687
S'NOUN'
p688
F0.037516
sS'ADJ'
p689
F0.962484
s(lp690
(g22
I0
tp691
atp692
a(S'devono'
p693
(dp694
S'VERB'
p695
F1.0
s(lp696
(g29
I2
tp697
atp698
a(S'comunque'
p699
(dp700
S'ADV'
p701
F1.0
s(lp702
(g44
I3
tp703
atp704
a(S'poter'
p705
(dp706
S'VERB'
p707
F1.0
s(lp708
(g37
I5
tp709
atp710
a(S'andare'
p711
(dp712
S'VERB'
p713
F1.0
s(lp714
(g58
I7
tp715
atp716
a(S'in'
p717
(dp718
S'ADP'
p719
F1.0
s(lp720
tp721
a(S'pensione'
p722
(dp723
S'NOUN'
p724
F1.0
s(lp725
(g58
I7
tp726
atp727
a(S"all'"
p728
(dp729
S'ADJ'
p730
F0.040682
sS'VERB'
p731
F0.006560999999999999
sS'NOUN'
p732
F0.952757
s(lp733
(g78
I8
tp734
atp735
a(S'et\xc3\xa0'
p736
(dp737
S'NOUN'
p738
F1.0
s(lp739
(g94
I10
tp740
atp741
a(S'prevista'
p742
(dp743
S'VERB'
p744
F0.971642
sS'ADJ'
p745
F0.028358
s(lp746
(g103
I11
tp747
atp748
a(S'per'
p749
(dp750
S'CONJ'
p751
F0.002372
sS'ADP'
p752
F0.997628
s(lp753
(g111
I12
tp754
atp755
a(S'legge'
p756
(dp757
S'VERB'
p758
F0.001839
sS'NOUN'
p759
F0.998161
s(lp760
(g125
I13
tp761
atp762
a(S'senza'
p763
(dp764
S'CONJ'
p765
F0.03894
sS'ADP'
p766
F0.96106
s(lp767
(g133
I14
tp768
atp769
a(S'correre'
p770
(dp771
S'VERB'
p772
F1.0
s(lp773
tp774
a(S'il'
p775
(dp776
S'DET'
p777
F1.0
s(lp778
(g146
I15
tp779
atp780
a(S'rischio'
p781
(dp782
S'VERB'
p783
F5.2e-05
sS'NOUN'
p784
F0.999948
s(lp785
(g154
I16
tp786
atp787
a(S'di'
p788
(dp789
S'CONJ'
p790
F6e-06
sS'ADP'
p791
F0.999994
s(lp792
(g161
I17
tp793
atp794
a(S'essere'
p795
(dp796
S'VERB'
p797
F0.999508
sS'NOUN'
p798
F0.000492
s(lp799
(g168
I18
tp800
atp801
a(S'oggetto'
p802
(dp803
S'ADJ'
p804
F0.110601
sS'NOUN'
p805
F0.889399
s(lp806
(g182
I19
tp807
atp808
a(S'di'
p809
(dp810
S'CONJ'
p811
F4e-06
sS'ADP'
p812
F0.999996
s(lp813
(g191
I20
tp814
atp815
a(S'discriminazione'
p816
(dp817
S'NOUN'
p818
F1.0
s(lp819
(g205
I21
tp820
atp821
a(g208
(dp822
g208
F1.0
s(lp823
(g208
I22
tp824
atp825
asS'sk'
p826
(lp827
(S'star\xc5\xa1\xc3\xad'
p828
(dp829
S'ADJ'
p830
F1.0
s(lp831
(g22
I0
tp832
atp833
a(S'zamestnanci'
p834
(dp835
S'NOUN'
p836
F1.0
s(lp837
(g15
I1
tp838
atp839
a(S'musia'
p840
(dp841
S'VERB'
p842
F1.0
s(lp843
(g29
I2
tp844
atp845
a(S'by\xc5\xa5'
p846
(dp847
S'VERB'
p848
F1.0
s(lp849
(g239
I4
tp850
atp851
a(S'st\xc3\xa1le'
p852
(dp853
S'ADV'
p854
F0.98475
sS'X'
p855
F0.000512
sS'ADJ'
p856
F0.014738
s(lp857
(g44
I3
tp858
atp859
a(S'schopn\xc3\xad'
p860
(dp861
S'ADJ'
p862
F1.0
s(lp863
(g37
I5
tp864
atp865
a(S'od\xc3\xads\xc5\xa5'
p866
(dp867
S'VERB'
p868
F1.0
s(lp869
(g58
I7
tp870
atp871
a(S'do'
p872
(dp873
S'PRON'
p874
F0.000127
sS'ADP'
p875
F0.999754
sg855
F0.00011800000000000001
s(lp876
tp877
a(S'd\xc3\xb4chodku'
p878
(dp879
S'NOUN'
p880
F1.0
s(lp881
(g58
I7
tp882
atp883
a(S'vo'
p884
(dp885
S'ADP'
p886
F1.0
s(lp887
(g78
I8
tp888
atp889
a(S'veku'
p890
(dp891
S'NOUN'
p892
F1.0
s(lp893
(g94
I10
tp894
atp895
a(S'stanovenom'
p896
(dp897
S'VERB'
p898
F1.0
s(lp899
(g103
I11
tp900
atp901
a(S'v'
p902
(dp903
g855
F0.000341
sS'ADP'
p904
F0.999659
s(lp905
(g111
I12
tp906
atp907
a(S'z\xc3\xa1kone'
p908
(dp909
g855
F0.001649
sS'NOUN'
p910
F0.998351
s(lp911
(g125
I13
tp912
atp913
a(S'bez'
p914
(dp915
g855
F0.000106
sS'ADP'
p916
F0.999894
s(lp917
(g133
I14
tp918
atp919
a(S'toho'
p920
(dp921
S'PRON'
p922
F0.99983
sg855
F0.00017
s(lp923
tp924
a(g455
(dp925
g208
F1.0
s(lp926
tp927
a(S'aby'
p928
(dp929
g855
F8.2e-05
sS'CONJ'
p930
F0.999918
s(lp931
(g133
I14
tp932
atp933
a(S'boli'
p934
(dp935
S'VERB'
p936
F1.0
s(lp937
(g168
I18
tp938
atp939
a(S'vystaven\xc3\xad'
p940
(dp941
S'VERB'
p942
F1.0
s(lp943
(g182
I19
tp944
atp945
a(S'riziku'
p946
(dp947
S'NOUN'
p948
F1.0
s(lp949
(g154
I16
tp950
atp951
a(S'diskrimin\xc3\xa1cie'
p952
(dp953
S'NOUN'
p954
F1.0
s(lp955
(g205
I21
tp956
atp957
a(g208
(dp958
g208
F1.0
s(lp959
(g208
I22
tp960
atp961
asS'pl'
p962
(lp963
(S'starsi'
p964
(dp965
S'ADJ'
p966
F1.0
s(lp967
(g22
I0
tp968
atp969
a(S'pracownicy'
p970
(dp971
S'NOUN'
p972
F1.0
s(lp973
(g15
I1
tp974
atp975
a(S'musz\xc4\x85'
p976
(dp977
S'VERB'
p978
F1.0
s(lp979
(g29
I2
tp980
atp981
a(S'wci\xc4\x85\xc5\xbc'
p982
(dp983
S'ADV'
p984
F1.0
s(lp985
(g44
I3
tp986
atp987
a(S'mie\xc4\x87'
p988
(dp989
S'VERB'
p990
F1.0
s(lp991
(g239
I4
tp992
atp993
a(S'mo\xc5\xbcliwo\xc5\x9b\xc4\x87'
p994
(dp995
S'NOUN'
p996
F1.0
s(lp997
(g37
I5
tp998
atp999
a(S'odchodzenia'
p1000
(dp1001
S'ADV'
p1002
F0.000275
sS'ADJ'
p1003
F0.004338000000000001
sS'VERB'
p1004
F0.762665
sS'NOUN'
p1005
F0.23272000000000004
s(lp1006
(g58
I7
tp1007
atp1008
a(S'na'
p1009
(dp1010
S'PRT'
p1011
F5e-06
sS'VERB'
p1012
F1.1e-05
sS'NOUN'
p1013
F1e-06
sS'ADP'
p1014
F0.999983
sg855
F1e-06
s(lp1015
tp1016
a(S'emerytur\xc4\x99'
p1017
(dp1018
S'NOUN'
p1019
F1.0
s(lp1020
(g58
I7
tp1021
atp1022
a(S'w'
p1023
(dp1024
S'ADJ'
p1025
F0.0
sS'NOUN'
p1026
F0.0
sS'ADP'
p1027
F0.9999990000000001
sg855
F0.0
s(lp1028
(g78
I8
tp1029
atp1030
a(S'wieku'
p1031
(dp1032
S'NOUN'
p1033
F1.0
s(lp1034
(g94
I10
tp1035
atp1036
a(S'okre\xc5\x9blonym'
p1037
(dp1038
S'VERB'
p1039
F0.953362
sS'ADJ'
p1040
F0.046638
s(lp1041
(g103
I11
tp1042
atp1043
a(S'prawem'
p1044
(dp1045
S'NOUN'
p1046
F1.0
s(lp1047
(g125
I13
tp1048
atp1049
a(S'bez'
p1050
(dp1051
S'NOUN'
p1052
F0.000145
sS'ADP'
p1053
F0.999855
s(lp1054
(g133
I14
tp1055
atp1056
a(S'zagro\xc5\xbcenia'
p1057
(dp1058
S'NOUN'
p1059
F0.999999
s(lp1060
(g154
I16
tp1061
atp1062
a(S'dyskryminacj\xc4\x85'
p1063
(dp1064
S'NOUN'
p1065
F1.0
s(lp1066
(g205
I21
tp1067
atp1068
a(g208
(dp1069
g208
F1.0
s(lp1070
(g208
I22
tp1071
atp1072
asS'sl'
p1073
(lp1074
(S'starej\xc5\xa1im'
p1075
(dp1076
S'ADJ'
p1077
F1.0
s(lp1078
(g22
I0
tp1079
atp1080
a(S'delavcem'
p1081
(dp1082
S'NOUN'
p1083
F1.0
s(lp1084
(g15
I1
tp1085
atp1086
a(S'je'
p1087
(dp1088
S'PRON'
p1089
F0.009693
sS'VERB'
p1090
F0.990271
sg855
F3.5e-05
s(lp1091
(g29
I2
tp1092
atp1093
a(S'\xc5\xa1e'
p1094
(dp1095
S'PRT'
p1096
F1.0
s(lp1097
tp1098
a(S'vedno'
p1099
(dp1100
S'ADV'
p1101
F1.0
s(lp1102
(g44
I3
tp1103
atp1104
a(S'treba'
p1105
(dp1106
S'ADV'
p1107
F1.0
s(lp1108
(g239
I4
tp1109
atp1110
a(S'omogo\xc4\x8diti'
p1111
(dp1112
S'VERB'
p1113
F1.0
s(lp1114
(g37
I5
tp1115
atp1116
a(S'upokojevanje'
p1117
(dp1118
S'ADV'
p1119
F0.000668
sS'ADJ'
p1120
F0.005119000000000001
sS'VERB'
p1121
F0.009963000000000001
sS'NOUN'
p1122
F0.9842509999999999
s(lp1123
(g58
I7
tp1124
atp1125
a(S'ob'
p1126
(dp1127
g855
F0.000567
sS'ADP'
p1128
F0.999432
s(lp1129
(g58
I7
tp1130
atp1131
a(S'zakonsko'
p1132
(dp1133
S'ADV'
p1134
F0.547883
sS'ADJ'
p1135
F0.452117
s(lp1136
tp1137
a(S'sprejeti'
p1138
(dp1139
S'VERB'
p1140
F0.656368
sS'ADJ'
p1141
F0.34363099999999996
s(lp1142
(g58
I7
tp1143
atp1144
a(S'starosti'
p1145
(dp1146
S'NOUN'
p1147
F1.0
s(lp1148
(g94
I10
tp1149
atp1150
a(S'brez'
p1151
(dp1152
S'ADP'
p1153
F1.0
s(lp1154
(g133
I14
tp1155
atp1156
a(S'tveganja'
p1157
(dp1158
S'NOUN'
p1159
F1.0
s(lp1160
(g154
I16
tp1161
atp1162
a(g455
(dp1163
g208
F1.0
s(lp1164
tp1165
a(S'da'
p1166
(dp1167
S'PRT'
p1168
F9.8e-05
sS'CONJ'
p1169
F0.999887
sS'VERB'
p1170
F1.4e-05
sg855
F0.0
s(lp1171
tp1172
a(S'bodo'
p1173
(dp1174
S'VERB'
p1175
F1.0
s(lp1176
(g168
I18
tp1177
atp1178
a(S'podvr\xc5\xbeeni'
p1179
(dp1180
S'ADJ'
p1181
F1.0
s(lp1182
(g182
I19
tp1183
atp1184
a(S'diskriminaciji'
p1185
(dp1186
S'NOUN'
p1187
F1.0
s(lp1188
(g205
I21
tp1189
atp1190
a(g208
(dp1191
g208
F1.0
s(lp1192
(g208
I22
tp1193
atp1194
asS'es'
p1195
(lp1196
(S'los'
p1197
(dp1198
S'PRON'
p1199
F2.5e-05
sS'DET'
p1200
F0.999975
s(lp1201
tp1202
a(S'trabajadores'
p1203
(dp1204
S'ADJ'
p1205
F0.085691
sS'NOUN'
p1206
F0.914309
s(lp1207
(g15
I1
tp1208
atp1209
a(S'de'
p1210
(dp1211
g855
F0.000303
sS'CONJ'
p1212
F0.000973
sS'ADP'
p1213
F0.998724
s(lp1214
tp1215
a(S'mayor'
p1216
(dp1217
S'ADJ'
p1218
F1.0
s(lp1219
tp1220
a(S'edad'
p1221
(dp1222
S'NOUN'
p1223
F1.0
s(lp1224
(g22
I0
tp1225
atp1226
a(S'han'
p1227
(dp1228
S'VERB'
p1229
F1.0
s(lp1230
(g29
I2
tp1231
atp1232
a(S'de'
p1233
(dp1234
S'VERB'
p1235
F1.0
s(lp1236
tp1237
a(S'poder'
p1238
(dp1239
S'VERB'
p1240
F1.0
s(lp1241
(g37
I5
tp1242
atp1243
a(S'jubilarse'
p1244
(dp1245
S'VERB'
p1246
F1.0
s(lp1247
(g58
I7
tp1248
atp1249
a(S'a'
p1250
(dp1251
g855
F4e-06
sS'CONJ'
p1252
F4e-06
sS'ADP'
p1253
F0.999992
s(lp1254
(g78
I8
tp1255
atp1256
a(S'la'
p1257
(dp1258
S'NOUN'
p1259
F0.0
sS'PRON'
p1260
F0.0
sS'DET'
p1261
F0.999999
sg855
F0.0
s(lp1262
(g87
I9
tp1263
atp1264
a(S'edad'
p1265
(dp1266
S'NOUN'
p1267
F1.0
s(lp1268
(g94
I10
tp1269
atp1270
a(S'que'
p1271
(dp1272
g855
F3e-06
sS'CONJ'
p1273
F0.999997
s(lp1274
(g111
I12
tp1275
atp1276
a(S'marca'
p1277
(dp1278
S'VERB'
p1279
F0.999392
sS'NOUN'
p1280
F0.000608
s(lp1281
(g103
I11
tp1282
atp1283
a(S'la'
p1284
(dp1285
g855
F0.0
sS'DET'
p1286
F0.999999
sS'NOUN'
p1287
F0.0
sS'PRON'
p1288
F0.0
s(lp1289
tp1290
a(S'ley'
p1291
(dp1292
S'NOUN'
p1293
F1.0
s(lp1294
(g125
I13
tp1295
atp1296
a(S'sin'
p1297
(dp1298
S'ADP'
p1299
F1.0
s(lp1300
(g133
I14
tp1301
atp1302
a(S'el'
p1303
(dp1304
S'PRON'
p1305
F5e-06
sS'DET'
p1306
F0.999995
s(lp1307
(g146
I15
tp1308
atp1309
a(S'riesgo'
p1310
(dp1311
S'NOUN'
p1312
F1.0
s(lp1313
(g154
I16
tp1314
atp1315
a(S'de'
p1316
(dp1317
g855
F0.0
sS'CONJ'
p1318
F0.066227
sS'ADP'
p1319
F0.933773
s(lp1320
(g161
I17
tp1321
atp1322
a(S'ser'
p1323
(dp1324
S'VERB'
p1325
F0.995891
sS'NOUN'
p1326
F0.004109
s(lp1327
(g168
I18
tp1328
atp1329
a(S'objeto'
p1330
(dp1331
S'NOUN'
p1332
F1.0
s(lp1333
(g182
I19
tp1334
atp1335
a(S'de'
p1336
(dp1337
g855
F2.9e-05
sS'CONJ'
p1338
F0.000449
sS'ADP'
p1339
F0.999522
s(lp1340
(g191
I20
tp1341
atp1342
a(S'discriminaci\xc3\xb3n'
p1343
(dp1344
S'NOUN'
p1345
F1.0
s(lp1346
(g205
I21
tp1347
atp1348
a(g208
(dp1349
g208
F1.0
s(lp1350
(g208
I22
tp1351
atp1352
as.