(dp0
S'fr'
p1
(lp2
(S'd\xc3\xa9fendons'
p3
(dp4
S'VERB'
p5
F1.0
s(lp6
(S'defend'
p7
I3
tp8
atp9
a(S"aujourd'"
p10
(dp11
S'NOUN'
p12
F0.266129
sS'VERB'
p13
F0.020872000000000005
sS'ADJ'
p14
F0.713
s(lp15
tp16
a(S'hui'
p17
(dp18
S'ADJ'
p19
F0.021871
sS'VERB'
p20
F0.7576140000000001
sS'NOUN'
p21
F0.22051500000000002
s(lp22
(S'now'
p23
I2
tp24
atp25
a(S'la'
p26
(dp27
S'PRON'
p28
F4.4e-05
sS'DET'
p29
F0.999956
sS'NOUN'
p30
F0.0
s(lp31
(S'the'
p32
I4
tp33
atp34
a(S'minorit\xc3\xa9'
p35
(dp36
S'NOUN'
p37
F1.0
s(lp38
(S'minority'
p39
I6
tp40
atp41
a(S'chr\xc3\xa9tienne'
p42
(dp43
S'NOUN'
p44
F0.009609
sS'ADJ'
p45
F0.990391
s(lp46
(S'christian'
p47
I5
tp48
atp49
a(S'et'
p50
(dp51
S'CONJ'
p52
F1.0
s(lp53
(S'and'
p54
I7
tp55
atp56
a(S'les'
p57
(dp58
S'PRON'
p59
F0.001434
sS'DET'
p60
F0.99854
sS'ADP'
p61
F2.6e-05
s(lp62
tp63
a(S'autres'
p64
(dp65
S'ADJ'
p66
F1.0
s(lp67
(S'other'
p68
I8
tp69
atp70
a(S'minorit\xc3\xa9s'
p71
(dp72
S'NOUN'
p73
F1.0
s(lp74
(S'minorities'
p75
I10
tp76
atp77
a(S'religieuses'
p78
(dp79
S'NOUN'
p80
F0.007478
sS'ADJ'
p81
F0.992522
s(lp82
(S'religious'
p83
I9
tp84
atp85
a(S'du'
p86
(dp87
S'ADP'
p88
F1.0
s(lp89
tp90
a(S'pakistan'
p91
(dp92
S'ADJ'
p93
F0.087761
sS'NOUN'
p94
F0.912239
s(lp95
(S'pakistan'
p96
I12
tp97
atp98
a(S','
p99
(dp100
S'.'
p101
F1.0
s(lp102
(g99
I14
tp103
atp104
a(S'm\xc3\xaame'
p105
(dp106
S'ADV'
p107
F0.502917
sS'ADJ'
p108
F0.497083
s(lp109
tp110
a(S'si'
p111
(dp112
S'ADV'
p113
F0.134559
sS'CONJ'
p114
F0.865401
sS'NOUN'
p115
F4e-05
s(lp116
(S'although'
p117
I13
tp118
atp119
a(S'ce'
p120
(dp121
S'PRON'
p122
F1.0
s(lp123
(S'this'
p124
I18
tp125
atp126
a(S"n'"
p127
(dp128
S'ADJ'
p129
F0.022127
sS'VERB'
p130
F0.564007
sS'NOUN'
p131
F0.413866
s(lp132
tp133
a(S'est'
p134
(dp135
S'VERB'
p136
F0.999302
sS'NOUN'
p137
F0.000698
s(lp138
(S'is'
p139
I19
tp140
atp141
a(S'bien'
p142
(dp143
S'ADV'
p144
F0.996953
sS'NOUN'
p145
F0.000474
sS'ADJ'
p146
F0.002572
s(lp147
tp148
a(S'\xc3\xa9videmment'
p149
(dp150
S'ADV'
p151
F1.0
s(lp152
(S'course'
p153
I16
tp154
atp155
a(S'pas'
p156
(dp157
S'ADV'
p158
F0.999683
sS'NOUN'
p159
F0.000317
s(lp160
(S'not'
p161
I20
tp162
atp163
a(S'le'
p164
(dp165
S'PRON'
p166
F0.000335
sS'DET'
p167
F0.999665
s(lp168
(S'the'
p169
I21
tp170
atp171
a(S'seul'
p172
(dp173
S'NOUN'
p174
F0.082808
sS'ADJ'
p175
F0.917192
s(lp176
(S'only'
p177
I22
tp178
atp179
a(S'probl\xc3\xa8me'
p180
(dp181
S'NOUN'
p182
F1.0
s(lp183
(S'problem'
p184
I23
tp185
atp186
a(S'que'
p187
(dp188
S'ADV'
p189
F0.002273
sS'PRON'
p190
F0.768493
sS'CONJ'
p191
F0.229234
s(lp192
tp193
a(S'conna\xc3\xaet'
p194
(dp195
S'VERB'
p196
F1.0
s(lp197
(S'facing'
p198
I24
tp199
atp200
a(S'ce'
p201
(dp202
S'PRON'
p203
F1.0
s(lp204
(S'a'
p205
I25
tp206
atp207
a(S'pays'
p208
(dp209
S'NOUN'
p210
F1.0
s(lp211
(S'country'
p212
I26
tp213
atp214
a(S'en'
p215
(dp216
S'PRON'
p217
F0.000406
sS'ADP'
p218
F0.999594
s(lp219
tp220
a(S'proie'
p221
(dp222
S'NOUN'
p223
F1.0
s(lp224
(S'troubled'
p225
I27
tp226
atp227
a(S'\xc3\xa0'
p228
(dp229
S'ADP'
p230
F1.0
s(lp231
(S'by'
p232
I28
tp233
atp234
a(S'de'
p235
(dp236
S'ADP'
p237
F1.0
s(lp238
(S'of'
p239
I15
tp240
atp241
a(S'graves'
p242
(dp243
S'NOUN'
p244
F0.028887
sS'VERB'
p245
F3.3e-05
sS'ADJ'
p246
F0.971079
s(lp247
(S'serious'
p248
I29
tp249
atp250
a(S'conflits'
p251
(dp252
S'NOUN'
p253
F1.0
s(lp254
(S'conflicts'
p255
I31
tp256
atp257
a(S'politiques'
p258
(dp259
S'NOUN'
p260
F0.000812
sS'VERB'
p261
F8.3e-05
sS'ADJ'
p262
F0.999106
s(lp263
(S'political'
p264
I30
tp265
atp266
a(S'et'
p267
(dp268
S'CONJ'
p269
F1.0
s(lp270
(S'and'
p271
I32
tp272
atp273
a(S'malheureusement'
p274
(dp275
S'ADV'
p276
F1.0
s(lp277
(S'unfortunately'
p278
I35
tp279
atp280
a(S'confront\xc3\xa9'
p281
(dp282
S'VERB'
p283
F1.0
s(lp284
tp285
a(S'\xc3\xa0'
p286
(dp287
S'ADP'
p288
F1.0
s(lp289
(S'faces'
p290
I37
tp291
atp292
a(S'des'
p293
(dp294
S'DET'
p295
F0.00067
sS'ADP'
p296
F0.99933
s(lp297
(S'of'
p298
I40
tp299
atp300
a(S'risques'
p301
(dp302
S'VERB'
p303
F0.0
sS'NOUN'
p304
F1.0
s(lp305
tp306
a(S'de'
p307
(dp308
S'ADP'
p309
F1.0
s(lp310
tp311
a(S'd\xc3\xa9stabilisation'
p312
(dp313
S'NOUN'
p314
F1.0
s(lp315
(S'destabilisation'
p316
I41
tp317
atp318
a(g101
(dp319
g101
F1.0
s(lp320
(g101
I42
tp321
atp322
asS'en'
p323
(lp324
(S'let'
p325
(dp326
S'VERB'
p327
F0.998399
sS'NOUN'
p328
F0.001601
s(lp329
(g325
I0
tp330
atp331
a(S'us'
p332
(dp333
S'PRON'
p334
F1.0
s(lp335
(g332
I1
tp336
atp337
a(g23
(dp338
S'ADV'
p339
F1.0
sS'NOUN'
p340
F0.0
sS'ADP'
p341
F0.0
s(lp342
(g23
I2
tp343
atp344
a(g7
(dp345
S'VERB'
p346
F1.0
s(lp347
(g7
I3
tp348
atp349
a(g32
(dp350
S'NOUN'
p351
F0.0
sS'DET'
p352
F1.0
s(lp353
(g32
I4
tp354
atp355
a(g47
(dp356
S'NOUN'
p357
F0.15978499999999998
sS'ADJ'
p358
F0.840216
s(lp359
(g47
I5
tp360
atp361
a(g39
(dp362
S'NOUN'
p363
F1.0
s(lp364
(g39
I6
tp365
atp366
a(g54
(dp367
S'CONJ'
p368
F1.0
sS'NOUN'
p369
F0.0
s(lp370
(g54
I7
tp371
atp372
a(g68
(dp373
S'ADV'
p374
F9.7e-05
sS'NOUN'
p375
F2e-06
sS'ADJ'
p376
F0.999901
s(lp377
(g68
I8
tp378
atp379
a(g83
(dp380
S'NOUN'
p381
F0.045997
sS'ADJ'
p382
F0.954003
s(lp383
(g83
I9
tp384
atp385
a(g75
(dp386
S'NOUN'
p387
F1.0
s(lp388
(g75
I10
tp389
atp390
a(S'in'
p391
(dp392
S'ADV'
p393
F0.000234
sS'PRT'
p394
F0.000167
sS'ADP'
p395
F0.999598
s(lp396
(g391
I11
tp397
atp398
a(g96
(dp399
S'ADJ'
p400
F0.090997
sS'NOUN'
p401
F0.909003
s(lp402
(g96
I12
tp403
atp404
a(g117
(dp405
S'ADP'
p406
F1.0
s(lp407
(g117
I13
tp408
atp409
a(g99
(dp410
g101
F1.0
s(lp411
(g99
I14
tp412
atp413
a(g239
(dp414
S'ADP'
p415
F1.0
s(lp416
(g239
I15
tp417
atp418
a(g153
(dp419
S'ADV'
p420
F0.000317
sS'VERB'
p421
F2e-06
sS'NOUN'
p422
F0.99968
s(lp423
(g153
I16
tp424
atp425
a(g99
(dp426
g101
F1.0
s(lp427
(g99
I17
tp428
atp429
a(g124
(dp430
S'ADV'
p431
F0.001574
sS'NOUN'
p432
F0.000274
sS'DET'
p433
F0.998152
s(lp434
(g124
I18
tp435
atp436
a(g139
(dp437
S'VERB'
p438
F1.0
s(lp439
(g139
I19
tp440
atp441
a(g161
(dp442
S'ADV'
p443
F1.0
s(lp444
(g161
I20
tp445
atp446
a(g169
(dp447
S'NOUN'
p448
F1e-06
sS'DET'
p449
F0.999999
s(lp450
(g169
I21
tp451
atp452
a(g177
(dp453
S'ADV'
p454
F0.024341
sS'NOUN'
p455
F0.000391
sS'ADJ'
p456
F0.975269
s(lp457
(g177
I22
tp458
atp459
a(g184
(dp460
S'NOUN'
p461
F1.0
s(lp462
(g184
I23
tp463
atp464
a(g198
(dp465
S'VERB'
p466
F0.999644
sS'NOUN'
p467
F0.000356
s(lp468
(g198
I24
tp469
atp470
a(g205
(dp471
S'NOUN'
p472
F0.0
sS'DET'
p473
F1.0
s(lp474
(g205
I25
tp475
atp476
a(g212
(dp477
S'NOUN'
p478
F1.0
s(lp479
(g212
I26
tp480
atp481
a(g225
(dp482
S'VERB'
p483
F0.893061
sS'ADJ'
p484
F0.106939
s(lp485
(g225
I27
tp486
atp487
a(g232
(dp488
S'ADV'
p489
F0.000525
sS'NOUN'
p490
F1e-06
sS'ADP'
p491
F0.999475
s(lp492
(g232
I28
tp493
atp494
a(g248
(dp495
S'ADJ'
p496
F1.0
s(lp497
(g248
I29
tp498
atp499
a(g264
(dp500
S'ADJ'
p501
F1.0
s(lp502
(g264
I30
tp503
atp504
a(g255
(dp505
S'VERB'
p506
F6e-06
sS'NOUN'
p507
F0.999994
s(lp508
(g255
I31
tp509
atp510
a(g271
(dp511
S'CONJ'
p512
F0.999995
sS'NOUN'
p513
F5e-06
s(lp514
(g271
I32
tp515
atp516
a(S'which'
p517
(dp518
S'DET'
p519
F1.0
s(lp520
(g517
I33
tp521
atp522
a(g99
(dp523
g101
F1.0
s(lp524
(g99
I34
tp525
atp526
a(g278
(dp527
S'ADV'
p528
F1.0
s(lp529
(g278
I35
tp530
atp531
a(g99
(dp532
g101
F1.0
s(lp533
(g99
I36
tp534
atp535
a(g290
(dp536
S'VERB'
p537
F0.999137
sS'NOUN'
p538
F0.000863
s(lp539
(g290
I37
tp540
atp541
a(S'the'
p542
(dp543
S'NOUN'
p544
F1e-06
sS'DET'
p545
F0.999999
s(lp546
(g542
I38
tp547
atp548
a(S'prospect'
p549
(dp550
S'VERB'
p551
F3e-05
sS'NOUN'
p552
F0.99997
s(lp553
(g549
I39
tp554
atp555
a(g298
(dp556
S'ADP'
p557
F1.0
s(lp558
(g298
I40
tp559
atp560
a(g316
(dp561
S'ADJ'
p562
F0.00366
sS'NOUN'
p563
F0.996341
s(lp564
(g316
I41
tp565
atp566
a(g101
(dp567
g101
F1.0
s(lp568
(g101
I42
tp569
atp570
asS'nl'
p571
(lp572
(S'nu'
p573
(dp574
S'ADV'
p575
F0.978572
sS'CONJ'
p576
F0.021139
sS'NOUN'
p577
F0.000288
s(lp578
(g23
I2
tp579
atp580
a(S'moeten'
p581
(dp582
S'VERB'
p583
F0.999999
sS'NOUN'
p584
F1e-06
s(lp585
(g325
I0
tp586
atp587
a(S'we'
p588
(dp589
S'PRON'
p590
F1.0
s(lp591
(g332
I1
tp592
atp593
a(S'in'
p594
(dp595
S'ADV'
p596
F0.012944
sS'VERB'
p597
F3e-06
sS'ADP'
p598
F0.987052
s(lp599
(g391
I11
tp600
atp601
a(S'de'
p602
(dp603
S'DET'
p604
F1.0
s(lp605
tp606
a(S'bres'
p607
(dp608
S'NOUN'
p609
F1.0
s(lp610
(g7
I3
tp611
atp612
a(S'springen'
p613
(dp614
S'VERB'
p615
F0.995684
sS'NOUN'
p616
F0.004316
s(lp617
tp618
a(S'voor'
p619
(dp620
S'ADV'
p621
F0.002233
sS'CONJ'
p622
F3.1e-05
sS'NOUN'
p623
F0.0
sS'ADP'
p624
F0.997736
s(lp625
(g7
I3
tp626
atp627
a(S'de'
p628
(dp629
S'DET'
p630
F1.0
s(lp631
(g32
I4
tp632
atp633
a(S'christelijke'
p634
(dp635
S'NOUN'
p636
F0.006177
sS'ADJ'
p637
F0.993823
s(lp638
(g47
I5
tp639
atp640
a(S'minderheid'
p641
(dp642
S'NOUN'
p643
F1.0
s(lp644
(g39
I6
tp645
atp646
a(S'en'
p647
(dp648
S'CONJ'
p649
F1.0
s(lp650
(g54
I7
tp651
atp652
a(S'andere'
p653
(dp654
S'NOUN'
p655
F0.011166
sS'ADJ'
p656
F0.988834
s(lp657
(g68
I8
tp658
atp659
a(S'religieuze'
p660
(dp661
S'NOUN'
p662
F0.000263
sS'ADJ'
p663
F0.999737
s(lp664
(g83
I9
tp665
atp666
a(S'minderheden'
p667
(dp668
S'NOUN'
p669
F1.0
s(lp670
(g75
I10
tp671
atp672
a(g99
(dp673
g101
F1.0
s(lp674
(g99
I14
tp675
atp676
a(S'hoewel'
p677
(dp678
S'CONJ'
p679
F1.0
s(lp680
(g117
I13
tp681
atp682
a(S'dit'
p683
(dp684
S'PRON'
p685
F1.0
s(lp686
(g124
I18
tp687
atp688
a(S'land'
p689
(dp690
S'VERB'
p691
F0.001244
sS'NOUN'
p692
F0.998756
s(lp693
(g212
I26
tp694
atp695
a(S'natuurlijk'
p696
(dp697
S'ADJ'
p698
F1.0
s(lp699
(g153
I16
tp700
atp701
a(S'ook'
p702
(dp703
S'ADV'
p704
F1.0
s(lp705
(g139
I19
tp706
atp707
a(S'te'
p708
(dp709
S'PRT'
p710
F1.0
s(lp711
(g198
I24
tp712
atp713
a(S'maken'
p714
(dp715
S'VERB'
p716
F1.0
sS'NOUN'
p717
F0.0
s(lp718
tp719
a(S'heeft'
p720
(dp721
S'VERB'
p722
F1.0
s(lp723
(g198
I24
tp724
atp725
a(S'met'
p726
(dp727
S'ADP'
p728
F1.0
s(lp729
(g232
I28
tp730
atp731
a(S'ernstige'
p732
(dp733
S'NOUN'
p734
F0.001878
sS'ADJ'
p735
F0.998122
s(lp736
(g248
I29
tp737
atp738
a(S'politieke'
p739
(dp740
S'NOUN'
p741
F9e-06
sS'ADJ'
p742
F0.999991
s(lp743
(g264
I30
tp744
atp745
a(S'conflicten'
p746
(dp747
S'NOUN'
p748
F1.0
s(lp749
(g255
I31
tp750
atp751
a(S'en'
p752
(dp753
S'CONJ'
p754
F1.0
s(lp755
(g271
I32
tp756
atp757
a(S'zich'
p758
(dp759
S'PRON'
p760
F1.0
s(lp761
(g290
I37
tp762
atp763
a(S'geconfronteerd'
p764
(dp765
S'VERB'
p766
F1.0
s(lp767
(g290
I37
tp768
atp769
a(S'ziet'
p770
(dp771
S'VERB'
p772
F1.0
s(lp773
tp774
a(S'met'
p775
(dp776
S'ADP'
p777
F1.0
s(lp778
(g290
I37
tp779
atp780
a(S'mogelijke'
p781
(dp782
S'NOUN'
p783
F0.000257
sS'ADJ'
p784
F0.999743
s(lp785
(g549
I39
tp786
atp787
a(S'destabilisatie'
p788
(dp789
S'NOUN'
p790
F1.0
s(lp791
(g316
I41
tp792
atp793
a(g101
(dp794
g101
F1.0
s(lp795
(g101
I42
tp796
atp797
asS'de'
p798
(lp799
(S'lassen'
p800
(dp801
S'VERB'
p802
F0.999679
sS'ADJ'
p803
F0.000292
s(lp804
tp805
a(S'sie'
p806
(dp807
S'PRON'
p808
F1.0
s(lp809
(g325
I0
tp810
atp811
a(S'uns'
p812
(dp813
S'PRON'
p814
F1.0
s(lp815
(g332
I1
tp816
atp817
a(S'nun'
p818
(dp819
S'ADV'
p820
F0.999969
sS'CONJ'
p821
F3.1e-05
s(lp822
(g23
I2
tp823
atp824
a(S'die'
p825
(dp826
S'PRON'
p827
F0.000757
sS'DET'
p828
F0.99924
s(lp829
(g32
I4
tp830
atp831
a(S'christlichen'
p832
(dp833
S'ADJ'
p834
F1.0
s(lp835
(g47
I5
tp836
atp837
a(S'und'
p838
(dp839
S'CONJ'
p840
F1.0
s(lp841
(g54
I7
tp842
atp843
a(S'andere'
p844
(dp845
S'PRON'
p846
F1.0
s(lp847
(g68
I8
tp848
atp849
a(S'minderheiten'
p850
(dp851
S'VERB'
p852
F0.350639
sS'NOUN'
p853
F0.626611
s(lp854
(g75
I10
tp855
atp856
a(S'in'
p857
(dp858
S'ADP'
p859
F1.0
s(lp860
(g391
I11
tp861
atp862
a(S'pakistan'
p863
(dp864
S'ADJ'
p865
F0.059508
sS'NOUN'
p866
F0.928054
s(lp867
(g96
I12
tp868
atp869
a(S'verteidigen'
p870
(dp871
S'VERB'
p872
F1.0
s(lp873
(g7
I3
tp874
atp875
a(g99
(dp876
g101
F1.0
s(lp877
(g99
I14
tp878
atp879
a(S'obwohl'
p880
(dp881
S'CONJ'
p882
F1.0
s(lp883
(g117
I13
tp884
atp885
a(S'dies'
p886
(dp887
S'PRON'
p888
F1.0
s(lp889
(g124
I18
tp890
atp891
a(S'nat\xc3\xbcrlich'
p892
(dp893
S'ADV'
p894
F0.992482
sS'ADJ'
p895
F0.007518
s(lp896
(g153
I16
tp897
atp898
a(S'nicht'
p899
(dp900
S'PRT'
p901
F1.0
s(lp902
(g161
I20
tp903
atp904
a(S'das'
p905
(dp906
S'PRON'
p907
F0.0084
sS'DET'
p908
F0.990027
s(lp909
(g169
I21
tp910
atp911
a(S'einzige'
p912
(dp913
S'ADJ'
p914
F1.0
s(lp915
(g177
I22
tp916
atp917
a(S'problem'
p918
(dp919
S'ADJ'
p920
F0.001643
sS'NOUN'
p921
F0.995209
s(lp922
(g184
I23
tp923
atp924
a(S'eines'
p925
(dp926
S'PRON'
p927
F0.004548
sS'DET'
p928
F0.993912
s(lp929
(g205
I25
tp930
atp931
a(S'landes'
p932
(dp933
S'ADJ'
p934
F0.032772
sS'NOUN'
p935
F0.937917
s(lp936
(g212
I26
tp937
atp938
a(S'ist'
p939
(dp940
S'VERB'
p941
F1.0
s(lp942
(g290
I37
tp943
atp944
a(g99
(dp945
g101
F1.0
s(lp946
(g99
I36
tp947
atp948
a(S'dass'
p949
(dp950
S'CONJ'
p951
F1.0
s(lp952
tp953
a(S'von'
p954
(dp955
S'NOUN'
p956
F0.002855
sS'ADP'
p957
F0.997145
s(lp958
(g232
I28
tp959
atp960
a(S'ernsthaften'
p961
(dp962
S'ADJ'
p963
F1.0
s(lp964
(g248
I29
tp965
atp966
a(S'politischen'
p967
(dp968
S'ADJ'
p969
F1.0
s(lp970
(g264
I30
tp971
atp972
a(S'konflikten'
p973
(dp974
S'ADJ'
p975
F0.031877
sS'NOUN'
p976
F0.963201
s(lp977
(g255
I31
tp978
atp979
a(S'gebeutelt'
p980
(dp981
S'VERB'
p982
F0.98203
sS'ADJ'
p983
F0.01797
s(lp984
(g225
I27
tp985
atp986
a(S'ist'
p987
(dp988
S'VERB'
p989
F1.0
s(lp990
tp991
a(S'und'
p992
(dp993
S'CONJ'
p994
F1.0
s(lp995
(g271
I32
tp996
atp997
a(S'dem'
p998
(dp999
S'PRON'
p1000
F0.190279
sS'DET'
p1001
F0.623605
s(lp1002
(g517
I33
tp1003
atp1004
a(S'ungl\xc3\xbccklicherweise'
p1005
(dp1006
S'ADV'
p1007
F1.0
s(lp1008
(g278
I35
tp1009
atp1010
a(S'eine'
p1011
(dp1012
S'PRON'
p1013
F0.004174
sS'DET'
p1014
F0.995707
s(lp1015
(g549
I39
tp1016
atp1017
a(S'weitere'
p1018
(dp1019
S'ADJ'
p1020
F1.0
s(lp1021
tp1022
a(S'destabilisierung'
p1023
(dp1024
S'ADJ'
p1025
F2e-05
sS'NOUN'
p1026
F0.999973
s(lp1027
(g316
I41
tp1028
atp1029
a(S'droht'
p1030
(dp1031
S'VERB'
p1032
F1.0
s(lp1033
(g290
I37
tp1034
atp1035
a(g101
(dp1036
g101
F1.0
s(lp1037
(g101
I42
tp1038
atp1039
asS'it'
p1040
(lp1041
(S'difendiamo'
p1042
(dp1043
S'VERB'
p1044
F1.0
s(lp1045
(g7
I3
tp1046
atp1047
a(g99
(dp1048
g101
F1.0
s(lp1049
(g325
I0
tp1050
atp1051
a(S'allora'
p1052
(dp1053
S'ADV'
p1054
F0.974423
sS'ADJ'
p1055
F0.025577
s(lp1056
(g23
I2
tp1057
atp1058
a(g99
(dp1059
g101
F1.0
s(lp1060
(g99
I14
tp1061
atp1062
a(S'la'
p1063
(dp1064
S'PRON'
p1065
F0.000686
sS'DET'
p1066
F0.999314
s(lp1067
(g32
I4
tp1068
atp1069
a(S'minoranza'
p1070
(dp1071
S'NOUN'
p1072
F1.0
s(lp1073
(g39
I6
tp1074
atp1075
a(S'cristiana'
p1076
(dp1077
S'NOUN'
p1078
F0.006781
sS'ADJ'
p1079
F0.993219
s(lp1080
(g47
I5
tp1081
atp1082
a(S'e'
p1083
(dp1084
S'CONJ'
p1085
F1.0
s(lp1086
(g54
I7
tp1087
atp1088
a(S'le'
p1089
(dp1090
S'PRON'
p1091
F0.000705
sS'DET'
p1092
F0.999295
s(lp1093
tp1094
a(S'altre'
p1095
(dp1096
S'PRON'
p1097
F0.295091
sS'ADJ'
p1098
F0.704909
s(lp1099
(g68
I8
tp1100
atp1101
a(S'minoranze'
p1102
(dp1103
S'NOUN'
p1104
F1.0
s(lp1105
(g75
I10
tp1106
atp1107
a(S'religiose'
p1108
(dp1109
S'NOUN'
p1110
F0.040859
sS'ADJ'
p1111
F0.959141
s(lp1112
(g83
I9
tp1113
atp1114
a(S'del'
p1115
(dp1116
S'DEF'
p1117
F0.002426
sS'ADP'
p1118
F0.997574
s(lp1119
(g391
I11
tp1120
atp1121
a(S'pakistan'
p1122
(dp1123
S'ADJ'
p1124
F0.130317
sS'VERB'
p1125
F0.00203
sS'NOUN'
p1126
F0.867653
s(lp1127
(g96
I12
tp1128
atp1129
a(g99
(dp1130
g101
F1.0
s(lp1131
(g99
I17
tp1132
atp1133
a(S'anche'
p1134
(dp1135
S'ADV'
p1136
F0.99969
sS'NOUN'
p1137
F0.00031
s(lp1138
tp1139
a(S'se'
p1140
(dp1141
S'PRON'
p1142
F0.000112
sS'CONJ'
p1143
F0.999874
sS'NOUN'
p1144
F1.5e-05
s(lp1145
(g117
I13
tp1146
atp1147
a(S'questo'
p1148
(dp1149
S'PRON'
p1150
F1.0
s(lp1151
(g124
I18
tp1152
atp1153
a(S'non'
p1154
(dp1155
S'ADV'
p1156
F1.0
s(lp1157
(g161
I20
tp1158
atp1159
a(S'\xc3\xa8'
p1160
(dp1161
S'VERB'
p1162
F1.0
s(lp1163
(g139
I19
tp1164
atp1165
a(S'naturalmente'
p1166
(dp1167
S'ADV'
p1168
F1.0
s(lp1169
(g153
I16
tp1170
atp1171
a(S'il'
p1172
(dp1173
S'DET'
p1174
F1.0
s(lp1175
(g169
I21
tp1176
atp1177
a(S'solo'
p1178
(dp1179
S'ADV'
p1180
F0.029018
sS'NOUN'
p1181
F0.011119
sS'VERB'
p1182
F3.9e-05
sS'ADJ'
p1183
F0.959824
s(lp1184
(g177
I22
tp1185
atp1186
a(S'problema'
p1187
(dp1188
S'NOUN'
p1189
F1.0
s(lp1190
(g184
I23
tp1191
atp1192
a(S'di'
p1193
(dp1194
S'CONJ'
p1195
F1.6e-05
sS'ADP'
p1196
F0.999984
s(lp1197
(g239
I15
tp1198
atp1199
a(S'un'
p1200
(dp1201
S'PRON'
p1202
F0.00267
sS'DEF'
p1203
F0.99733
s(lp1204
(g205
I25
tp1205
atp1206
a(S'paese'
p1207
(dp1208
S'NOUN'
p1209
F1.0
s(lp1210
(g212
I26
tp1211
atp1212
a(S'turbato'
p1213
(dp1214
S'VERB'
p1215
F0.803407
sS'ADJ'
p1216
F0.196593
s(lp1217
(g225
I27
tp1218
atp1219
a(S'da'
p1220
(dp1221
S'ADP'
p1222
F1.0
s(lp1223
(g232
I28
tp1224
atp1225
a(S'gravi'
p1226
(dp1227
S'NOUN'
p1228
F0.012538
sS'VERB'
p1229
F0.0038450000000000003
sS'ADJ'
p1230
F0.983618
s(lp1231
(g248
I29
tp1232
atp1233
a(S'conflitti'
p1234
(dp1235
S'VERB'
p1236
F0.036523
sS'NOUN'
p1237
F0.963477
s(lp1238
(g255
I31
tp1239
atp1240
a(S'politici'
p1241
(dp1242
S'NOUN'
p1243
F0.11569
sS'ADJ'
p1244
F0.88431
s(lp1245
(g264
I30
tp1246
atp1247
a(g1083
(dp1248
S'CONJ'
p1249
F1.0
s(lp1250
(g271
I32
tp1251
atp1252
a(S'che'
p1253
(dp1254
S'PRON'
p1255
F0.9916
sS'CONJ'
p1256
F0.008277
sS'ADJ'
p1257
F0.000124
s(lp1258
(g517
I33
tp1259
atp1260
a(S'rischia'
p1261
(dp1262
S'VERB'
p1263
F1.0
s(lp1264
(g290
I37
tp1265
atp1266
a(S'di'
p1267
(dp1268
S'CONJ'
p1269
F2e-06
sS'ADP'
p1270
F0.999998
s(lp1271
(g298
I40
tp1272
atp1273
a(S'essere'
p1274
(dp1275
S'VERB'
p1276
F0.999885
sS'NOUN'
p1277
F0.000115
s(lp1278
tp1279
a(S'destabilizzato'
p1280
(dp1281
S'VERB'
p1282
F1.0
s(lp1283
(g316
I41
tp1284
atp1285
a(g101
(dp1286
g101
F1.0
s(lp1287
(g101
I42
tp1288
atp1289
asS'sk'
p1290
(lp1291
(S'po\xc4\x8fme'
p1292
(dp1293
S'VERB'
p1294
F1.0
s(lp1295
(g325
I0
tp1296
atp1297
a(S'teraz'
p1298
(dp1299
S'ADV'
p1300
F1.0
s(lp1301
(g23
I2
tp1302
atp1303
a(S'br\xc3\xa1ni\xc5\xa5'
p1304
(dp1305
S'VERB'
p1306
F1.0
s(lp1307
(g7
I3
tp1308
atp1309
a(S'kres\xc5\xa5ansk\xc3\xba'
p1310
(dp1311
S'ADJ'
p1312
F1.0
s(lp1313
(g47
I5
tp1314
atp1315
a(S'men\xc5\xa1inu'
p1316
(dp1317
S'NOUN'
p1318
F1.0
s(lp1319
(g39
I6
tp1320
atp1321
a(g205
(dp1322
S'X'
p1323
F0.001704
sS'CONJ'
p1324
F0.997211
sS'NOUN'
p1325
F0.000196
sS'ADP'
p1326
F0.000835
sS'PRT'
p1327
F5.4e-05
s(lp1328
(g54
I7
tp1329
atp1330
a(S'ostatn\xc3\xa9'
p1331
(dp1332
S'NUM'
p1333
F0.256072
sS'ADJ'
p1334
F0.743928
s(lp1335
(g68
I8
tp1336
atp1337
a(S'n\xc3\xa1bo\xc5\xbeensk\xc3\xa9'
p1338
(dp1339
S'ADJ'
p1340
F1.0
s(lp1341
(g83
I9
tp1342
atp1343
a(S'men\xc5\xa1iny'
p1344
(dp1345
S'NOUN'
p1346
F1.0
s(lp1347
(g75
I10
tp1348
atp1349
a(S'v'
p1350
(dp1351
g1323
F0.000276
sS'ADP'
p1352
F0.999725
s(lp1353
(g391
I11
tp1354
atp1355
a(S'pakistane'
p1356
(dp1357
S'ADV'
p1358
F0.019112
sS'ADJ'
p1359
F0.348429
sS'VERB'
p1360
F0.0013980000000000002
sS'NOUN'
p1361
F0.619837
sg1323
F0.011223
s(lp1362
(g96
I12
tp1363
atp1364
a(g99
(dp1365
g101
F1.0
s(lp1366
tp1367
a(S'aj'
p1368
(dp1369
g1323
F0.086137
sS'CONJ'
p1370
F0.913863
s(lp1371
tp1372
a(S'ke\xc4\x8f'
p1373
(dp1374
g1323
F0.060742
sS'CONJ'
p1375
F0.939258
s(lp1376
(g117
I13
tp1377
atp1378
a(g99
(dp1379
g101
F1.0
s(lp1380
(g99
I14
tp1381
atp1382
a(S'samozrejme'
p1383
(dp1384
S'ADV'
p1385
F0.001025
sg1323
F0.994447
sS'ADJ'
p1386
F0.004528
s(lp1387
(g153
I16
tp1388
atp1389
a(g99
(dp1390
g101
F1.0
s(lp1391
(g99
I17
tp1392
atp1393
a(S'to'
p1394
(dp1395
S'PRON'
p1396
F0.9215110000000001
sS'CONJ'
p1397
F0.063017
sg1323
F0.015473
s(lp1398
(g124
I18
tp1399
atp1400
a(S'nie'
p1401
(dp1402
g1323
F1.0
s(lp1403
(g161
I20
tp1404
atp1405
a(S'je'
p1406
(dp1407
S'PRON'
p1408
F2.5e-05
sS'VERB'
p1409
F0.999968
sg1323
F7e-06
s(lp1410
(g139
I19
tp1411
atp1412
a(S'jedin\xc3\xbd'
p1413
(dp1414
S'NUM'
p1415
F1.0
s(lp1416
(g177
I22
tp1417
atp1418
a(S'probl\xc3\xa9m'
p1419
(dp1420
S'NOUN'
p1421
F1.0
s(lp1422
(g184
I23
tp1423
atp1424
a(g99
(dp1425
g101
F1.0
s(lp1426
tp1427
a(S'ktor\xc3\xa9mu'
p1428
(dp1429
S'PRON'
p1430
F1.0
s(lp1431
tp1432
a(S'\xc4\x8del\xc3\xad'
p1433
(dp1434
S'VERB'
p1435
F1.0
s(lp1436
(g198
I24
tp1437
atp1438
a(S't\xc3\xa1to'
p1439
(dp1440
S'PRON'
p1441
F1.0
s(lp1442
(g205
I25
tp1443
atp1444
a(S'krajina'
p1445
(dp1446
S'NOUN'
p1447
F1.0
s(lp1448
(g212
I26
tp1449
atp1450
a(S'su\xc5\xbeovan\xc3\xa1'
p1451
(dp1452
S'ADJ'
p1453
F0.000427
sS'VERB'
p1454
F0.163717
sS'NOUN'
p1455
F0.835856
s(lp1456
(g225
I27
tp1457
atp1458
a(S'v\xc3\xa1\xc5\xbenymi'
p1459
(dp1460
S'ADJ'
p1461
F1.0
s(lp1462
(g248
I29
tp1463
atp1464
a(S'politick\xc3\xbdmi'
p1465
(dp1466
S'ADJ'
p1467
F1.0
s(lp1468
(g264
I30
tp1469
atp1470
a(S'konfliktmi'
p1471
(dp1472
S'NOUN'
p1473
F1.0
s(lp1474
(g255
I31
tp1475
atp1476
a(g99
(dp1477
g101
F1.0
s(lp1478
tp1479
a(S'ktorej'
p1480
(dp1481
S'PRON'
p1482
F1.0
s(lp1483
(g517
I33
tp1484
atp1485
a(g99
(dp1486
g101
F1.0
s(lp1487
(g99
I34
tp1488
atp1489
a(S'\xc5\xbeia\xc4\xbe'
p1490
(dp1491
S'ADV'
p1492
F0.003771
sg1323
F0.814543
sS'VERB'
p1493
F0.009675
sS'NOUN'
p1494
F0.17201
s(lp1495
(g278
I35
tp1496
atp1497
a(g99
(dp1498
g101
F1.0
s(lp1499
(g99
I36
tp1500
atp1501
a(S'hroz\xc3\xad'
p1502
(dp1503
S'VERB'
p1504
F1.0
s(lp1505
tp1506
a(S'destabiliz\xc3\xa1cia'
p1507
(dp1508
S'NOUN'
p1509
F1.0
s(lp1510
(g316
I41
tp1511
atp1512
a(g101
(dp1513
g101
F1.0
s(lp1514
(g101
I42
tp1515
atp1516
asS'pl'
p1517
(lp1518
(S'bro\xc5\x84my'
p1519
(dp1520
S'ADV'
p1521
F0.000575
sS'ADJ'
p1522
F0.0031320000000000007
sS'VERB'
p1523
F0.9803049999999999
sS'NOUN'
p1524
F0.015986000000000004
s(lp1525
(g7
I3
tp1526
atp1527
a(S'teraz'
p1528
(dp1529
S'ADV'
p1530
F1.0
s(lp1531
(g23
I2
tp1532
atp1533
a(S'mniejszo\xc5\x9bci'
p1534
(dp1535
S'NOUN'
p1536
F1.0
s(lp1537
(g39
I6
tp1538
atp1539
a(S'chrze\xc5\x9bcija\xc5\x84skiej'
p1540
(dp1541
S'ADJ'
p1542
F1.0
s(lp1543
(g47
I5
tp1544
atp1545
a(S'i'
p1546
(dp1547
S'PRT'
p1548
F0.003812
sS'CONJ'
p1549
F0.995957
sS'PRON'
p1550
F4e-06
sS'NOUN'
p1551
F3.4e-05
sg1323
F0.000192
s(lp1552
(g54
I7
tp1553
atp1554
a(S'innych'
p1555
(dp1556
S'NOUN'
p1557
F0.004423
sS'ADJ'
p1558
F0.9955779999999999
s(lp1559
(g68
I8
tp1560
atp1561
a(S'mniejszo\xc5\x9bci'
p1562
(dp1563
S'NOUN'
p1564
F1.0
s(lp1565
(g75
I10
tp1566
atp1567
a(S'religijnych'
p1568
(dp1569
S'ADJ'
p1570
F1.000001
s(lp1571
(g83
I9
tp1572
atp1573
a(S'w'
p1574
(dp1575
S'ADJ'
p1576
F0.0
sg1323
F0.0
sS'NOUN'
p1577
F0.0
sS'ADP'
p1578
F0.9999979999999999
s(lp1579
(g391
I11
tp1580
atp1581
a(S'pakistanie'
p1582
(dp1583
S'ADV'
p1584
F5.9e-05
sS'ADJ'
p1585
F0.005788
sS'VERB'
p1586
F0.012770999999999998
sS'NOUN'
p1587
F0.981381
s(lp1588
(g96
I12
tp1589
atp1590
a(S'!'
p1591
(dp1592
g101
F1.0
s(lp1593
(g99
I14
tp1594
atp1595
a(S'cho\xc4\x87'
p1596
(dp1597
S'PRT'
p1598
F0.049197
sS'CONJ'
p1599
F0.9361
sS'VERB'
p1600
F0.014703
s(lp1601
(g117
I13
tp1602
atp1603
a(S'oczywi\xc5\x9bcie'
p1604
(dp1605
S'PRT'
p1606
F1.0
s(lp1607
(g153
I16
tp1608
atp1609
a(S'nie'
p1610
(dp1611
S'ADV'
p1612
F1.8e-05
sS'PRT'
p1613
F0.998331
sS'CONJ'
p1614
F0.001646
sS'NOUN'
p1615
F2e-06
sS'PRON'
p1616
F4e-06
s(lp1617
(g161
I20
tp1618
atp1619
a(S'jest'
p1620
(dp1621
S'VERB'
p1622
F1.0
s(lp1623
(g139
I19
tp1624
atp1625
a(S'to'
p1626
(dp1627
S'NOUN'
p1628
F0.182085
sS'ADP'
p1629
F1e-06
sS'PRT'
p1630
F0.260814
sg1323
F0.0
sS'CONJ'
p1631
F0.077601
sS'ADJ'
p1632
F0.479499
s(lp1633
(g124
I18
tp1634
atp1635
a(S'jedyna'
p1636
(dp1637
S'ADJ'
p1638
F1.0
s(lp1639
(g177
I22
tp1640
atp1641
a(S'sprawa'
p1642
(dp1643
S'NOUN'
p1644
F1.0
s(lp1645
(g184
I23
tp1646
atp1647
a(g99
(dp1648
g1323
F0.0
sg101
F1.0
s(lp1649
(g99
I17
tp1650
atp1651
a(S'kt\xc3\xb3ra'
p1652
(dp1653
S'ADJ'
p1654
F1.0
s(lp1655
(g205
I25
tp1656
atp1657
a(S'staje'
p1658
(dp1659
S'VERB'
p1660
F1.0
s(lp1661
tp1662
a(S'przed'
p1663
(dp1664
S'ADP'
p1665
F1.0
s(lp1666
(g198
I24
tp1667
atp1668
a(S'tym'
p1669
(dp1670
S'ADV'
p1671
F4e-06
sS'NOUN'
p1672
F0.0020959999999999998
sS'CONJ'
p1673
F2e-06
sS'ADJ'
p1674
F0.997898
sS'PRT'
p1675
F0.0
s(lp1676
tp1677
a(S'krajem'
p1678
(dp1679
S'NOUN'
p1680
F1.0
s(lp1681
(g212
I26
tp1682
atp1683
a(S'targanym'
p1684
(dp1685
S'ADV'
p1686
F0.000791
sS'NOUN'
p1687
F0.06145199999999999
sS'VERB'
p1688
F0.840348
sS'ADJ'
p1689
F0.09741000000000004
s(lp1690
(g225
I27
tp1691
atp1692
a(S'powa\xc5\xbcnymi'
p1693
(dp1694
S'ADJ'
p1695
F1.0
s(lp1696
(g248
I29
tp1697
atp1698
a(S'konfliktami'
p1699
(dp1700
S'NOUN'
p1701
F1.0
s(lp1702
(g255
I31
tp1703
atp1704
a(S'politycznymi'
p1705
(dp1706
S'ADJ'
p1707
F1.000001
s(lp1708
(g264
I30
tp1709
atp1710
a(g1546
(dp1711
S'PRT'
p1712
F0.013349
sS'CONJ'
p1713
F0.98652
sS'NOUN'
p1714
F9.499999999999999e-05
sg1323
F1.1e-05
sS'PRON'
p1715
F2.5e-05
s(lp1716
(g271
I32
tp1717
atp1718
a(S'przed'
p1719
(dp1720
S'ADP'
p1721
F0.9999999999999999
s(lp1722
tp1723
a(S'kt\xc3\xb3rym'
p1724
(dp1725
S'ADJ'
p1726
F0.9999999999999998
s(lp1727
(g517
I33
tp1728
atp1729
a(S'niestety'
p1730
(dp1731
S'PRT'
p1732
F1.0
s(lp1733
(g278
I35
tp1734
atp1735
a(S'le\xc5\xbcy'
p1736
(dp1737
S'VERB'
p1738
F1.0
s(lp1739
(g290
I37
tp1740
atp1741
a(S'perspektywa'
p1742
(dp1743
S'NOUN'
p1744
F1.0
s(lp1745
(g549
I39
tp1746
atp1747
a(S'destabilizacji'
p1748
(dp1749
S'NOUN'
p1750
F1.0
s(lp1751
(g316
I41
tp1752
atp1753
a(g101
(dp1754
g101
F1.0
s(lp1755
(g101
I42
tp1756
atp1757
asS'sl'
p1758
(lp1759
(S'branimo'
p1760
(dp1761
S'VERB'
p1762
F1.0
s(lp1763
(g7
I3
tp1764
atp1765
a(S'zdaj'
p1766
(dp1767
S'ADV'
p1768
F1.0
s(lp1769
(g23
I2
tp1770
atp1771
a(S'kr\xc5\xa1\xc4\x8dansko'
p1772
(dp1773
S'ADV'
p1774
F0.009838
sS'ADJ'
p1775
F0.990162
s(lp1776
(g47
I5
tp1777
atp1778
a(S'manj\xc5\xa1ino'
p1779
(dp1780
S'NOUN'
p1781
F1.0
s(lp1782
(g39
I6
tp1783
atp1784
a(S'in'
p1785
(dp1786
S'ADV'
p1787
F3e-06
sg1323
F2e-06
sS'CONJ'
p1788
F0.999995
sS'NOUN'
p1789
F1e-06
s(lp1790
(g54
I7
tp1791
atp1792
a(S'druge'
p1793
(dp1794
S'NUM'
p1795
F1.0
s(lp1796
(g68
I8
tp1797
atp1798
a(S'verske'
p1799
(dp1800
S'ADJ'
p1801
F1.0
s(lp1802
(g83
I9
tp1803
atp1804
a(S'manj\xc5\xa1ine'
p1805
(dp1806
S'NOUN'
p1807
F1.0
s(lp1808
(g75
I10
tp1809
atp1810
a(g1350
(dp1811
S'ADP'
p1812
F1.0
s(lp1813
(g391
I11
tp1814
atp1815
a(S'pakistanu'
p1816
(dp1817
S'ADV'
p1818
F3.5e-05
sS'ADJ'
p1819
F0.00010499999999999999
sS'VERB'
p1820
F1.7000000000000003e-05
sS'NOUN'
p1821
F0.9998449999999999
s(lp1822
(g96
I12
tp1823
atp1824
a(g99
(dp1825
g101
F1.0
s(lp1826
(g99
I14
tp1827
atp1828
a(S'\xc4\x8deprav'
p1829
(dp1830
S'CONJ'
p1831
F1.0
s(lp1832
(g117
I13
tp1833
atp1834
a(S'to'
p1835
(dp1836
S'PRON'
p1837
F0.999958
sg1323
F4.2e-05
s(lp1838
(g124
I18
tp1839
atp1840
a(S'seveda'
p1841
(dp1842
S'PRT'
p1843
F1.0
s(lp1844
(g153
I16
tp1845
atp1846
a(S'ni'
p1847
(dp1848
S'VERB'
p1849
F1.0
s(lp1850
(g161
I20
tp1851
atp1852
a(S'edini'
p1853
(dp1854
S'ADJ'
p1855
F1.000001
s(lp1856
(g177
I22
tp1857
atp1858
a(S'problem'
p1859
(dp1860
S'NOUN'
p1861
F1.0
s(lp1862
(g184
I23
tp1863
atp1864
a(g99
(dp1865
g101
F1.0
s(lp1866
(g99
I17
tp1867
atp1868
a(S's'
p1869
(dp1870
S'VERB'
p1871
F6e-05
sS'NOUN'
p1872
F1.6e-05
sS'ADP'
p1873
F0.999924
s(lp1874
(g198
I24
tp1875
atp1876
a(S'katerim'
p1877
(dp1878
S'PRON'
p1879
F1.0
s(lp1880
(g198
I24
tp1881
atp1882
a(S'se'
p1883
(dp1884
S'PRON'
p1885
F0.999993
sg1323
F7e-06
s(lp1886
tp1887
a(S'spopada'
p1888
(dp1889
S'VERB'
p1890
F1.0
s(lp1891
(g198
I24
tp1892
atp1893
a(S'dr\xc5\xbeava'
p1894
(dp1895
S'NOUN'
p1896
F1.0
s(lp1897
(g212
I26
tp1898
atp1899
a(g99
(dp1900
g101
F1.0
s(lp1901
tp1902
a(S'ki'
p1903
(dp1904
S'CONJ'
p1905
F1.0
s(lp1906
tp1907
a(S'ima'
p1908
(dp1909
S'VERB'
p1910
F1.0
s(lp1911
tp1912
a(S'te\xc5\xbeave'
p1913
(dp1914
S'NOUN'
p1915
F1.0
s(lp1916
(g225
I27
tp1917
atp1918
a(g1869
(dp1919
S'VERB'
p1920
F0.0
sS'NOUN'
p1921
F0.0
sS'ADP'
p1922
F0.999999
s(lp1923
(g232
I28
tp1924
atp1925
a(S'hudimi'
p1926
(dp1927
S'ADJ'
p1928
F1.0
s(lp1929
(g248
I29
tp1930
atp1931
a(S'politi\xc4\x8dnimi'
p1932
(dp1933
S'ADJ'
p1934
F1.0
s(lp1935
(g264
I30
tp1936
atp1937
a(S'spopadi'
p1938
(dp1939
S'NOUN'
p1940
F1.0
s(lp1941
(g255
I31
tp1942
atp1943
a(S'in'
p1944
(dp1945
S'ADV'
p1946
F1.7e-05
sg1323
F1e-06
sS'CONJ'
p1947
F0.999981
sS'NOUN'
p1948
F1e-06
s(lp1949
(g271
I32
tp1950
atp1951
a(S'ji'
p1952
(dp1953
S'PRON'
p1954
F1.0
s(lp1955
(g517
I33
tp1956
atp1957
a(S'na'
p1958
(dp1959
S'ADP'
p1960
F1.0
s(lp1961
tp1962
a(S'\xc5\xbealost'
p1963
(dp1964
S'NOUN'
p1965
F1.0
s(lp1966
(g278
I35
tp1967
atp1968
a(S'grozi'
p1969
(dp1970
S'VERB'
p1971
F0.992982
sS'NOUN'
p1972
F0.007018
s(lp1973
(g290
I37
tp1974
atp1975
a(S'mo\xc5\xbenost'
p1976
(dp1977
S'NOUN'
p1978
F1.0
s(lp1979
(g549
I39
tp1980
atp1981
a(S'destabilizacije'
p1982
(dp1983
S'ADJ'
p1984
F9.7e-05
sS'VERB'
p1985
F0.010826
sS'NOUN'
p1986
F0.9890770000000001
s(lp1987
(g316
I41
tp1988
atp1989
a(g101
(dp1990
g101
F1.0
s(lp1991
(g101
I42
tp1992
atp1993
asS'es'
p1994
(lp1995
(S'ahora'
p1996
(dp1997
S'ADV'
p1998
F1.0
s(lp1999
(g23
I2
tp2000
atp2001
a(S'debemos'
p2002
(dp2003
S'VERB'
p2004
F1.0
s(lp2005
(g325
I0
tp2006
atp2007
a(S'defender'
p2008
(dp2009
S'VERB'
p2010
F1.0
s(lp2011
(g7
I3
tp2012
atp2013
a(g205
(dp2014
g1323
F0.000259
sS'CONJ'
p2015
F5e-06
sS'ADP'
p2016
F0.999736
s(lp2017
tp2018
a(S'la'
p2019
(dp2020
g1323
F1e-06
sS'PRON'
p2021
F0.0
sS'DET'
p2022
F0.999999
sS'NOUN'
p2023
F0.0
s(lp2024
(g32
I4
tp2025
atp2026
a(S'minor\xc3\xada'
p2027
(dp2028
S'NOUN'
p2029
F1.0
s(lp2030
(g39
I6
tp2031
atp2032
a(S'cristiana'
p2033
(dp2034
S'VERB'
p2035
F0.002889
sS'ADJ'
p2036
F0.997111
s(lp2037
(g47
I5
tp2038
atp2039
a(S'y'
p2040
(dp2041
g1323
F0.000304
sS'CONJ'
p2042
F0.999696
s(lp2043
(g54
I7
tp2044
atp2045
a(g205
(dp2046
g1323
F0.001108
sS'CONJ'
p2047
F0.0
sS'ADP'
p2048
F0.998892
s(lp2049
tp2050
a(S'las'
p2051
(dp2052
S'PRON'
p2053
F0.0
sS'DET'
p2054
F1.0
s(lp2055
tp2056
a(S'otras'
p2057
(dp2058
S'ADJ'
p2059
F1.0
s(lp2060
(g68
I8
tp2061
atp2062
a(S'minor\xc3\xadas'
p2063
(dp2064
S'NOUN'
p2065
F1.0
s(lp2066
(g75
I10
tp2067
atp2068
a(S'religiosas'
p2069
(dp2070
S'NOUN'
p2071
F0.073935
sS'ADJ'
p2072
F0.926065
s(lp2073
(g83
I9
tp2074
atp2075
a(S'de'
p2076
(dp2077
g1323
F3.5e-05
sS'CONJ'
p2078
F0.001444
sS'ADP'
p2079
F0.998521
s(lp2080
(g391
I11
tp2081
atp2082
a(S'pakist\xc3\xa1n'
p2083
(dp2084
S'ADJ'
p2085
F0.014618
sS'NOUN'
p2086
F0.985382
s(lp2087
(g96
I12
tp2088
atp2089
a(g99
(dp2090
g101
F1.0
s(lp2091
tp2092
a(S'aunque'
p2093
(dp2094
S'CONJ'
p2095
F1.0
s(lp2096
tp2097
a(g99
(dp2098
g101
F1.0
s(lp2099
(g99
I14
tp2100
atp2101
a(S'como'
p2102
(dp2103
S'ADV'
p2104
F0.27157
sS'CONJ'
p2105
F0.728429
s(lp2106
(g239
I15
tp2107
atp2108
a(S'es'
p2109
(dp2110
S'VERB'
p2111
F1.0
s(lp2112
tp2113
a(S'bien'
p2114
(dp2115
S'ADV'
p2116
F0.992658
sS'NOUN'
p2117
F0.007342
s(lp2118
(g117
I13
tp2119
atp2120
a(S'sabido'
p2121
(dp2122
S'VERB'
p2123
F0.041595
sS'ADJ'
p2124
F0.958405
s(lp2125
(g153
I16
tp2126
atp2127
a(g99
(dp2128
g101
F1.0
s(lp2129
(g99
I17
tp2130
atp2131
a(S'este'
p2132
(dp2133
S'PRON'
p2134
F0.998349
sS'NOUN'
p2135
F0.001651
s(lp2136
(g124
I18
tp2137
atp2138
a(S'no'
p2139
(dp2140
S'ADV'
p2141
F1.0
sg1323
F0.0
s(lp2142
(g161
I20
tp2143
atp2144
a(S'es'
p2145
(dp2146
S'VERB'
p2147
F1.0
s(lp2148
(g139
I19
tp2149
atp2150
a(S'el'
p2151
(dp2152
S'PRON'
p2153
F7.1e-05
sS'DET'
p2154
F0.999929
s(lp2155
(g169
I21
tp2156
atp2157
a(S'\xc3\xbanico'
p2158
(dp2159
S'ADJ'
p2160
F1.0
s(lp2161
(g177
I22
tp2162
atp2163
a(S'problema'
p2164
(dp2165
S'NOUN'
p2166
F1.0
s(lp2167
(g184
I23
tp2168
atp2169
a(S'al'
p2170
(dp2171
S'CONJ'
p2172
F0.042447
sS'ADP'
p2173
F0.957553
s(lp2174
(g198
I24
tp2175
atp2176
a(S'que'
p2177
(dp2178
g1323
F0.0
sS'CONJ'
p2179
F1.0
s(lp2180
(g198
I24
tp2181
atp2182
a(S'se'
p2183
(dp2184
S'PRON'
p2185
F1.0
sS'VERB'
p2186
F0.0
s(lp2187
tp2188
a(S'enfrenta'
p2189
(dp2190
S'VERB'
p2191
F1.0
s(lp2192
(g198
I24
tp2193
atp2194
a(S'un'
p2195
(dp2196
g1323
F1e-06
sS'DET'
p2197
F0.999999
s(lp2198
(g205
I25
tp2199
atp2200
a(S'pa\xc3\xads'
p2201
(dp2202
S'NOUN'
p2203
F1.0
s(lp2204
(g212
I26
tp2205
atp2206
a(S'aquejado'
p2207
(dp2208
S'VERB'
p2209
F1.0
s(lp2210
(g225
I27
tp2211
atp2212
a(S'por'
p2213
(dp2214
S'ADP'
p2215
F1.0
s(lp2216
(g232
I28
tp2217
atp2218
a(S'graves'
p2219
(dp2220
S'ADJ'
p2221
F1.0
s(lp2222
(g248
I29
tp2223
atp2224
a(S'conflictos'
p2225
(dp2226
S'NOUN'
p2227
F1.0
s(lp2228
(g255
I31
tp2229
atp2230
a(S'pol\xc3\xadticos'
p2231
(dp2232
S'NOUN'
p2233
F0.009092
sS'ADJ'
p2234
F0.990908
s(lp2235
(g264
I30
tp2236
atp2237
a(g99
(dp2238
g101
F1.0
s(lp2239
(g99
I36
tp2240
atp2241
a(g2040
(dp2242
g1323
F0.000728
sS'CONJ'
p2243
F0.999272
s(lp2244
(g271
I32
tp2245
atp2246
a(S'que'
p2247
(dp2248
g1323
F0.0
sS'CONJ'
p2249
F1.0
s(lp2250
(g517
I33
tp2251
atp2252
a(S'lamentablemente'
p2253
(dp2254
S'ADV'
p2255
F1.0
s(lp2256
(g278
I35
tp2257
atp2258
a(S'hace'
p2259
(dp2260
S'VERB'
p2261
F1.0
s(lp2262
(g290
I37
tp2263
atp2264
a(S'frente'
p2265
(dp2266
S'ADP'
p2267
F1.0
s(lp2268
tp2269
a(g205
(dp2270
S'ADP'
p2271
F1.0
s(lp2272
(g290
I37
tp2273
atp2274
a(S'una'
p2275
(dp2276
S'DET'
p2277
F1.0
s(lp2278
(g542
I38
tp2279
atp2280
a(S'perspectiva'
p2281
(dp2282
S'NOUN'
p2283
F1.0
s(lp2284
(g549
I39
tp2285
atp2286
a(S'de'
p2287
(dp2288
g1323
F2.9e-05
sS'CONJ'
p2289
F0.000449
sS'ADP'
p2290
F0.999522
s(lp2291
(g298
I40
tp2292
atp2293
a(S'desestabilizaci\xc3\xb3n'
p2294
(dp2295
S'NOUN'
p2296
F1.0
s(lp2297
(g316
I41
tp2298
atp2299
a(g101
(dp2300
g101
F1.0
s(lp2301
(g101
I42
tp2302
atp2303
as.