(dp0
S'fr'
p1
(lp2
(S"j'"
p3
(dp4
S'ADJ'
p5
F0.10952
sS'X'
p6
F0.13611
sS'VERB'
p7
F0.004198999999999999
sS'NOUN'
p8
F0.750172
s(lp9
(S'i'
p10
I0
tp11
atp12
a(S'ai'
p13
(dp14
S'VERB'
p15
F1.0
s(lp16
tp17
a(S'vot\xc3\xa9'
p18
(dp19
S'VERB'
p20
F1.0
s(lp21
(S'voted'
p22
I1
tp23
atp24
a(S'en'
p25
(dp26
S'PRON'
p27
F0.000403
sS'ADP'
p28
F0.999597
s(lp29
(S'in'
p30
I2
tp31
atp32
a(S'faveur'
p33
(dp34
S'NOUN'
p35
F1.0
s(lp36
(S'favour'
p37
I3
tp38
atp39
a(S'de'
p40
(dp41
S'ADP'
p42
F1.0
s(lp43
(S'of'
p44
I4
tp45
atp46
a(S'ce'
p47
(dp48
S'PRON'
p49
F1.0
s(lp50
(S'this'
p51
I5
tp52
atp53
a(S'rapport'
p54
(dp55
S'NOUN'
p56
F1.0
s(lp57
(S'report'
p58
I6
tp59
atp60
a(S','
p61
(dp62
S'.'
p63
F1.0
s(lp64
tp65
a(S'car'
p66
(dp67
S'CONJ'
p68
F0.996098
sS'NOUN'
p69
F0.003902
s(lp70
(S'as'
p71
I7
tp72
atp73
a(S'je'
p74
(dp75
S'PRON'
p76
F1.0
s(lp77
(g10
I8
tp78
atp79
a(S'soutiens'
p80
(dp81
S'VERB'
p82
F0.9991329999999999
sS'NOUN'
p83
F0.000868
s(lp84
(S'agree'
p85
I9
tp86
atp87
a(S'sa'
p88
(dp89
S'PRON'
p90
F1.0
s(lp91
(S'its'
p92
I11
tp93
atp94
a(S'vision'
p95
(dp96
S'NOUN'
p97
F1.0
s(lp98
(S'vision'
p99
I12
tp100
atp101
a(S'et'
p102
(dp103
S'CONJ'
p104
F1.0
s(lp105
(S'and'
p106
I13
tp107
atp108
a(S'son'
p109
(dp110
S'PRON'
p111
F0.999997
sS'NOUN'
p112
F3e-06
s(lp113
(S'has'
p114
I19
tp115
atp116
a(S'ambition'
p117
(dp118
S'NOUN'
p119
F1.0
s(lp120
(S'ambition'
p121
I14
tp122
atp123
a(S'de'
p124
(dp125
S'ADP'
p126
F1.0
s(lp127
tp128
a(S'renforcer'
p129
(dp130
S'VERB'
p131
F1.0
s(lp132
(S'strong'
p133
I21
tp134
atp135
a(S'la'
p136
(dp137
S'PRON'
p138
F6e-06
sS'DET'
p139
F0.999994
sS'NOUN'
p140
F0.0
s(lp141
(S'a'
p142
I20
tp143
atp144
a(S'pr\xc3\xa9sence'
p145
(dp146
S'NOUN'
p147
F1.0
s(lp148
(S'presence'
p149
I22
tp150
atp151
a(S'de'
p152
(dp153
S'ADP'
p154
F1.0
s(lp155
(S'for'
p156
I15
tp157
atp158
a(S"l'"
p159
(dp160
S'ADJ'
p161
F0.160704
sS'VERB'
p162
F0.06480800000000002
sS'NOUN'
p163
F0.774488
s(lp164
(S'an'
p165
I16
tp166
atp167
a(S'union'
p168
(dp169
S'NOUN'
p170
F1.0
s(lp171
tp172
a(S'europ\xc3\xa9enne'
p173
(dp174
S'NOUN'
p175
F0.017216
sS'ADJ'
p176
F0.982784
s(lp177
(S'eu'
p178
I17
tp179
atp180
a(S'sur'
p181
(dp182
S'ADP'
p183
F1.0
s(lp184
(S'on'
p185
I23
tp186
atp187
a(S'la'
p188
(dp189
S'PRON'
p190
F1.2e-05
sS'DET'
p191
F0.999988
sS'NOUN'
p192
F0.0
s(lp193
(S'the'
p194
I24
tp195
atp196
a(S'sc\xc3\xa8ne'
p197
(dp198
S'NOUN'
p199
F1.0
s(lp200
(S'stage'
p201
I26
tp202
atp203
a(S'internationale'
p204
(dp205
S'ADJ'
p206
F1.0
s(lp207
(S'international'
p208
I25
tp209
atp210
a(g63
(dp211
g63
F1.0
s(lp212
(g63
I27
tp213
atp214
asS'en'
p215
(lp216
(g10
(dp217
g6
F0.006032
sS'NOUN'
p218
F0.9939680000000001
s(lp219
(g10
I0
tp220
atp221
a(g22
(dp222
S'VERB'
p223
F1.0
s(lp224
(g22
I1
tp225
atp226
a(g30
(dp227
S'ADV'
p228
F0.001642
sS'PRT'
p229
F0.007631
sS'ADP'
p230
F0.990727
s(lp231
(g30
I2
tp232
atp233
a(g37
(dp234
S'VERB'
p235
F0.002253
sS'NOUN'
p236
F0.997747
s(lp237
(g37
I3
tp238
atp239
a(g44
(dp240
S'ADP'
p241
F1.0
s(lp242
(g44
I4
tp243
atp244
a(g51
(dp245
S'ADV'
p246
F5e-06
sS'NOUN'
p247
F1.9e-05
sS'DET'
p248
F0.999975
s(lp249
(g51
I5
tp250
atp251
a(g58
(dp252
S'VERB'
p253
F0.0013900000000000002
sS'NOUN'
p254
F0.99861
s(lp255
(g58
I6
tp256
atp257
a(g71
(dp258
S'ADV'
p259
F0.008948
sS'ADP'
p260
F0.991052
s(lp261
(g71
I7
tp262
atp263
a(g10
(dp264
g6
F0.002734
sS'NOUN'
p265
F0.9972660000000001
s(lp266
(g10
I8
tp267
atp268
a(g85
(dp269
S'VERB'
p270
F1.0
s(lp271
(g85
I9
tp272
atp273
a(S'with'
p274
(dp275
S'ADP'
p276
F1.0
s(lp277
(g274
I10
tp278
atp279
a(g92
(dp280
S'PRON'
p281
F1.0
s(lp282
(g92
I11
tp283
atp284
a(g99
(dp285
S'VERB'
p286
F2e-06
sS'NOUN'
p287
F0.999997
s(lp288
(g99
I12
tp289
atp290
a(g106
(dp291
S'CONJ'
p292
F0.999998
sS'NOUN'
p293
F2e-06
s(lp294
(g106
I13
tp295
atp296
a(g121
(dp297
S'NOUN'
p298
F1.0
s(lp299
(g121
I14
tp300
atp301
a(g156
(dp302
S'ADP'
p303
F1.0
s(lp304
(g156
I15
tp305
atp306
a(g165
(dp307
S'DET'
p308
F1.0
s(lp309
(g165
I16
tp310
atp311
a(g178
(dp312
S'ADV'
p313
F3e-06
sS'ADJ'
p314
F3e-06
sS'VERB'
p315
F7.4e-05
sS'NOUN'
p316
F0.999919
s(lp317
(g178
I17
tp318
atp319
a(S'that'
p320
(dp321
S'ADV'
p322
F0.000752
sS'DET'
p323
F0.999234
sS'ADP'
p324
F1.5e-05
s(lp325
(g320
I18
tp326
atp327
a(g114
(dp328
S'VERB'
p329
F1.0
s(lp330
(g114
I19
tp331
atp332
a(g142
(dp333
S'NOUN'
p334
F0.0
sS'DET'
p335
F1.0
s(lp336
(g142
I20
tp337
atp338
a(g133
(dp339
S'ADV'
p340
F6.2e-05
sS'ADJ'
p341
F0.999938
s(lp342
(g133
I21
tp343
atp344
a(g149
(dp345
S'NOUN'
p346
F1.0
s(lp347
(g149
I22
tp348
atp349
a(g185
(dp350
S'ADV'
p351
F0.000489
sS'PRT'
p352
F0.000523
sS'ADJ'
p353
F0.0
sS'NOUN'
p354
F0.0
sS'ADP'
p355
F0.998988
s(lp356
(g185
I23
tp357
atp358
a(g194
(dp359
S'NOUN'
p360
F1e-06
sS'DET'
p361
F0.999999
s(lp362
(g194
I24
tp363
atp364
a(g208
(dp365
S'NOUN'
p366
F0.000469
sS'ADJ'
p367
F0.999531
s(lp368
(g208
I25
tp369
atp370
a(g201
(dp371
S'VERB'
p372
F0.00015
sS'NOUN'
p373
F0.99985
s(lp374
(g201
I26
tp375
atp376
a(g63
(dp377
g63
F1.0
s(lp378
(g63
I27
tp379
atp380
asS'nl'
p381
(lp382
(S'ik'
p383
(dp384
S'PRON'
p385
F0.999981
sS'NOUN'
p386
F1.9e-05
s(lp387
(g10
I0
tp388
atp389
a(S'heb'
p390
(dp391
S'VERB'
p392
F1.0
s(lp393
tp394
a(S'voor'
p395
(dp396
S'ADV'
p397
F0.005645
sS'CONJ'
p398
F2.3e-05
sS'NOUN'
p399
F0.0
sS'ADP'
p400
F0.994332
s(lp401
(g37
I3
tp402
atp403
a(S'dit'
p404
(dp405
S'PRON'
p406
F1.0
s(lp407
(g51
I5
tp408
atp409
a(S'verslag'
p410
(dp411
S'NOUN'
p412
F1.0
s(lp413
(g58
I6
tp414
atp415
a(S'gestemd'
p416
(dp417
S'VERB'
p418
F0.970521
sS'ADJ'
p419
F0.029479
s(lp420
(g22
I1
tp421
atp422
a(S'daar'
p423
(dp424
S'ADV'
p425
F0.000487
sS'CONJ'
p426
F0.999513
s(lp427
(g71
I7
tp428
atp429
a(S'ik'
p430
(dp431
S'PRON'
p432
F1.0
sS'NOUN'
p433
F0.0
s(lp434
(g10
I8
tp435
atp436
a(S'mij'
p437
(dp438
S'PRON'
p439
F1.0
s(lp440
(g85
I9
tp441
atp442
a(S'kan'
p443
(dp444
S'VERB'
p445
F0.999884
sS'NOUN'
p446
F0.000116
s(lp447
tp448
a(S'vinden'
p449
(dp450
S'VERB'
p451
F0.998528
sS'NOUN'
p452
F0.001472
s(lp453
(g85
I9
tp454
atp455
a(S'in'
p456
(dp457
S'ADV'
p458
F0.002011
sS'VERB'
p459
F0.0
sS'ADP'
p460
F0.997989
s(lp461
(g274
I10
tp462
atp463
a(S'de'
p464
(dp465
S'DET'
p466
F1.0
s(lp467
(g92
I11
tp468
atp469
a(S'visie'
p470
(dp471
S'NOUN'
p472
F1.0
s(lp473
(g99
I12
tp474
atp475
a(S'en'
p476
(dp477
S'CONJ'
p478
F1.0
s(lp479
(g106
I13
tp480
atp481
a(S'ambitie'
p482
(dp483
S'NOUN'
p484
F1.0
s(lp485
(g121
I14
tp486
atp487
a(S'dat'
p488
(dp489
S'PRON'
p490
F0.041986
sS'CONJ'
p491
F0.958014
s(lp492
(g156
I15
tp493
atp494
a(S'de'
p495
(dp496
S'DET'
p497
F1.0
s(lp498
(g165
I16
tp499
atp500
a(S'eu'
p501
(dp502
S'NOUN'
p503
F1.0
s(lp504
(g178
I17
tp505
atp506
a(S'duidelijk'
p507
(dp508
S'ADJ'
p509
F1.0
s(lp510
(g133
I21
tp511
atp512
a(S'aanwezig'
p513
(dp514
S'ADJ'
p515
F1.0
s(lp516
(g149
I22
tp517
atp518
a(S'is'
p519
(dp520
S'VERB'
p521
F1.0
s(lp522
(g114
I19
tp523
atp524
a(S'op'
p525
(dp526
S'ADV'
p527
F0.023801
sS'ADJ'
p528
F0.0
sS'ADP'
p529
F0.976198
s(lp530
(g185
I23
tp531
atp532
a(S'het'
p533
(dp534
S'PRON'
p535
F0.005929
sS'DET'
p536
F0.994072
s(lp537
(g194
I24
tp538
atp539
a(S'internationale'
p540
(dp541
S'NOUN'
p542
F5.8e-05
sS'ADJ'
p543
F0.999942
s(lp544
(g208
I25
tp545
atp546
a(S'toneel'
p547
(dp548
S'NOUN'
p549
F1.0
s(lp550
(g201
I26
tp551
atp552
a(g63
(dp553
g63
F1.0
s(lp554
(g63
I27
tp555
atp556
asS'de'
p557
(lp558
(S'ich'
p559
(dp560
S'PRON'
p561
F1.0
s(lp562
(g10
I0
tp563
atp564
a(S'habe'
p565
(dp566
S'VERB'
p567
F1.0
s(lp568
tp569
a(S'f\xc3\xbcr'
p570
(dp571
S'ADP'
p572
F1.0
s(lp573
(g37
I3
tp574
atp575
a(S'diesen'
p576
(dp577
S'PRON'
p578
F1.0
s(lp579
(g51
I5
tp580
atp581
a(S'bericht'
p582
(dp583
S'ADJ'
p584
F0.000282
sS'NOUN'
p585
F0.999652
s(lp586
(g58
I6
tp587
atp588
a(S'gestimmt'
p589
(dp590
S'VERB'
p591
F1.0
s(lp592
(g22
I1
tp593
atp594
a(g61
(dp595
g63
F1.0
s(lp596
tp597
a(S'weil'
p598
(dp599
S'CONJ'
p600
F0.999999
sS'VERB'
p601
F1e-06
s(lp602
(g71
I7
tp603
atp604
a(S'ich'
p605
(dp606
S'PRON'
p607
F1.0
s(lp608
(g10
I8
tp609
atp610
a(S'mit'
p611
(dp612
S'PRT'
p613
F0.000822
sS'ADP'
p614
F0.999178
s(lp615
(g274
I10
tp616
atp617
a(S'seiner'
p618
(dp619
S'PRON'
p620
F1.0
s(lp621
(g92
I11
tp622
atp623
a(S'vision'
p624
(dp625
S'ADJ'
p626
F0.174498
sS'NOUN'
p627
F0.819341
s(lp628
(g99
I12
tp629
atp630
a(S'und'
p631
(dp632
S'CONJ'
p633
F1.0
s(lp634
(g106
I13
tp635
atp636
a(S'der'
p637
(dp638
S'PRON'
p639
F0.004229
sS'DET'
p640
F0.991704
s(lp641
(g156
I15
tp642
atp643
a(S'zielsetzung'
p644
(dp645
S'ADJ'
p646
F0.158343
sS'NOUN'
p647
F0.808267
s(lp648
(g121
I14
tp649
atp650
a(g61
(dp651
g63
F1.0
s(lp652
tp653
a(S'eine'
p654
(dp655
S'PRON'
p656
F0.081088
sS'DET'
p657
F0.917508
s(lp658
(g165
I16
tp659
atp660
a(S'eu'
p661
(dp662
S'ADJ'
p663
F0.256404
sS'NOUN'
p664
F0.633113
s(lp665
(g178
I17
tp666
atp667
a(S'zu'
p668
(dp669
S'PRT'
p670
F0.999955
s(lp671
(g85
I9
tp672
atp673
a(S'schaffen'
p674
(dp675
S'VERB'
p676
F1.0
s(lp677
tp678
a(g61
(dp679
g63
F1.0
s(lp680
tp681
a(S'die'
p682
(dp683
S'PRON'
p684
F0.922236
sS'DET'
p685
F0.06755
s(lp686
(g142
I20
tp687
atp688
a(S'nachhaltig'
p689
(dp690
S'ADJ'
p691
F1.0
s(lp692
(g133
I21
tp693
atp694
a(S'auf'
p695
(dp696
S'PRT'
p697
F0.001821
sS'ADP'
p698
F0.998167
s(lp699
(g185
I23
tp700
atp701
a(S'der'
p702
(dp703
S'PRON'
p704
F6.7e-05
sS'DET'
p705
F0.999923
s(lp706
(g194
I24
tp707
atp708
a(S'internationalen'
p709
(dp710
S'ADJ'
p711
F1.0
s(lp712
(g208
I25
tp713
atp714
a(S'b\xc3\xbchne'
p715
(dp716
S'ADJ'
p717
F0.005439
sS'NOUN'
p718
F0.992789
s(lp719
(g201
I26
tp720
atp721
a(S'vertreten'
p722
(dp723
S'VERB'
p724
F0.999732
s(lp725
(g149
I22
tp726
atp727
a(S'ist'
p728
(dp729
S'VERB'
p730
F1.0
s(lp731
(g114
I19
tp732
atp733
a(g61
(dp734
g63
F1.0
s(lp735
(g320
I18
tp736
atp737
a(S'\xc3\xbcbereinstimme'
p738
(dp739
S'VERB'
p740
F1.0
s(lp741
(g85
I9
tp742
atp743
a(g63
(dp744
g63
F1.0
s(lp745
(g63
I27
tp746
atp747
asS'it'
p748
(lp749
(S'mi'
p750
(dp751
S'PRON'
p752
F1.0
s(lp753
tp754
a(S'sono'
p755
(dp756
S'VERB'
p757
F0.999996
sS'NOUN'
p758
F4e-06
s(lp759
(g10
I0
tp760
atp761
a(S'espressa'
p762
(dp763
S'VERB'
p764
F0.990108
sS'ADJ'
p765
F0.009892
s(lp766
(g22
I1
tp767
atp768
a(g142
(dp769
S'CONJ'
p770
F7.6e-05
sS'ADP'
p771
F0.999924
s(lp772
(g30
I2
tp773
atp774
a(S'favore'
p775
(dp776
S'NOUN'
p777
F1.0
s(lp778
(g37
I3
tp779
atp780
a(S'del'
p781
(dp782
S'DEF'
p783
F0.001248
sS'ADP'
p784
F0.998752
s(lp785
(g44
I4
tp786
atp787
a(S'documento'
p788
(dp789
S'VERB'
p790
F5.6e-05
sS'NOUN'
p791
F0.999944
s(lp792
(g58
I6
tp793
atp794
a(g61
(dp795
g63
F1.0
s(lp796
tp797
a(S'in'
p798
(dp799
S'ADP'
p800
F1.0
s(lp801
tp802
a(S'quanto'
p803
(dp804
S'ADV'
p805
F0.351426
sS'PRON'
p806
F0.635561
sS'ADJ'
p807
F0.01195
sS'NOUN'
p808
F0.001064
s(lp809
(g71
I7
tp810
atp811
a(S'concordo'
p812
(dp813
S'VERB'
p814
F1.0
s(lp815
(g85
I9
tp816
atp817
a(S'con'
p818
(dp819
S'ADP'
p820
F1.0
s(lp821
(g274
I10
tp822
atp823
a(S'la'
p824
(dp825
S'PRON'
p826
F3.1e-05
sS'DET'
p827
F0.999969
s(lp828
tp829
a(S'sua'
p830
(dp831
S'PRON'
p832
F1.0
s(lp833
(g92
I11
tp834
atp835
a(S'visione'
p836
(dp837
S'NOUN'
p838
F1.0
s(lp839
(g99
I12
tp840
atp841
a(S'e'
p842
(dp843
S'CONJ'
p844
F1.0
s(lp845
(g106
I13
tp846
atp847
a(S'ambizione'
p848
(dp849
S'NOUN'
p850
F1.0
s(lp851
(g121
I14
tp852
atp853
a(S'di'
p854
(dp855
S'CONJ'
p856
F1.7e-05
sS'ADP'
p857
F0.999983
s(lp858
(g156
I15
tp859
atp860
a(S"un'"
p861
(dp862
S'PRON'
p863
F0.00969
sS'DEF'
p864
F0.99031
s(lp865
(g165
I16
tp866
atp867
a(S'ue'
p868
(dp869
S'ADJ'
p870
F0.000732
sS'VERB'
p871
F0.131514
sS'NOUN'
p872
F0.867754
s(lp873
(g178
I17
tp874
atp875
a(S'con'
p876
(dp877
S'ADP'
p878
F1.0
s(lp879
(g114
I19
tp880
atp881
a(S'una'
p882
(dp883
S'PRON'
p884
F6.9e-05
sS'DEF'
p885
F0.999931
s(lp886
(g142
I20
tp887
atp888
a(S'forte'
p889
(dp890
S'ADV'
p891
F0.000981
sS'NOUN'
p892
F0.003397
sS'ADJ'
p893
F0.995622
s(lp894
(g133
I21
tp895
atp896
a(S'presenza'
p897
(dp898
S'NOUN'
p899
F1.0
s(lp900
(g149
I22
tp901
atp902
a(S'sulla'
p903
(dp904
S'NOUN'
p905
F5e-06
sS'ADP'
p906
F0.999995
s(lp907
(g185
I23
tp908
atp909
a(S'scena'
p910
(dp911
S'NOUN'
p912
F1.0
s(lp913
(g201
I26
tp914
atp915
a(S'internazionale'
p916
(dp917
S'ADJ'
p918
F1.0
s(lp919
(g208
I25
tp920
atp921
a(g63
(dp922
g63
F1.0
s(lp923
(g63
I27
tp924
atp925
asS'sk'
p926
(lp927
(S'hlasovala'
p928
(dp929
S'VERB'
p930
F1.0
s(lp931
tp932
a(S'som'
p933
(dp934
S'VERB'
p935
F1.0
s(lp936
(g22
I1
tp937
atp938
a(S'za'
p939
(dp940
S'PRT'
p941
F0.001906
sS'ADP'
p942
F0.998063
sg6
F3.1e-05
s(lp943
(g37
I3
tp944
atp945
a(S't\xc3\xbato'
p946
(dp947
S'PRON'
p948
F1.0
s(lp949
(g51
I5
tp950
atp951
a(S'spr\xc3\xa1vu'
p952
(dp953
S'NOUN'
p954
F1.0
s(lp955
(g58
I6
tp956
atp957
a(g61
(dp958
g63
F1.0
s(lp959
tp960
a(S'preto\xc5\xbee'
p961
(dp962
S'CONJ'
p963
F1.0
s(lp964
(g71
I7
tp965
atp966
a(S's\xc3\xbahlas\xc3\xadm'
p967
(dp968
S'VERB'
p969
F1.0
s(lp970
(g85
I9
tp971
atp972
a(S's'
p973
(dp974
S'PRT'
p975
F0.001801
sS'CONJ'
p976
F2.8e-05
sS'NOUN'
p977
F3e-06
sS'ADP'
p978
F0.99812
sg6
F4.8e-05
s(lp979
(g274
I10
tp980
atp981
a(S'jej'
p982
(dp983
S'PRON'
p984
F1.0
sg6
F0.0
s(lp985
(g92
I11
tp986
atp987
a(S'pl\xc3\xa1nom'
p988
(dp989
S'NOUN'
p990
F1.0
s(lp991
(g99
I12
tp992
atp993
a(g142
(dp994
g6
F0.002127
sS'CONJ'
p995
F0.996953
sS'NOUN'
p996
F0.00015700000000000002
sS'ADP'
p997
F0.000737
sS'PRT'
p998
F2.8e-05
s(lp999
(g106
I13
tp1000
atp1001
a(S'amb\xc3\xadciou'
p1002
(dp1003
S'NOUN'
p1004
F1.0
s(lp1005
(g121
I14
tp1006
atp1007
a(g61
(dp1008
g63
F1.0
s(lp1009
tp1010
a(S'aby'
p1011
(dp1012
g6
F0.001108
sS'CONJ'
p1013
F0.998892
s(lp1014
(g156
I15
tp1015
atp1016
a(S'e\xc3\x9a'
p1017
(dp1018
S'ADV'
p1019
F0.32530299999999995
sS'ADJ'
p1020
F0.078448
sS'VERB'
p1021
F0.000326
sS'NOUN'
p1022
F0.593879
sg6
F0.002043
s(lp1023
(g178
I17
tp1024
atp1025
a(S'mala'
p1026
(dp1027
S'ADV'
p1028
F0.001835
sS'VERB'
p1029
F0.998165
s(lp1030
(g114
I19
tp1031
atp1032
a(S'siln\xc3\xa9'
p1033
(dp1034
S'ADJ'
p1035
F1.0
s(lp1036
(g133
I21
tp1037
atp1038
a(S'zast\xc3\xbapenie'
p1039
(dp1040
S'NOUN'
p1041
F1.0
s(lp1042
(g149
I22
tp1043
atp1044
a(S'na'
p1045
(dp1046
g6
F7.500000000000001e-05
sS'CONJ'
p1047
F1.9e-05
sS'ADP'
p1048
F0.999902
sS'PRT'
p1049
F3e-06
s(lp1050
(g185
I23
tp1051
atp1052
a(S'medzin\xc3\xa1rodnej'
p1053
(dp1054
S'ADJ'
p1055
F1.0
s(lp1056
(g208
I25
tp1057
atp1058
a(S'sc\xc3\xa9ne'
p1059
(dp1060
S'NOUN'
p1061
F1.0
s(lp1062
(g201
I26
tp1063
atp1064
a(g63
(dp1065
g63
F1.0
s(lp1066
(g63
I27
tp1067
atp1068
asS'pl'
p1069
(lp1070
(S'g\xc5\x82osowa\xc5\x82am'
p1071
(dp1072
S'ADV'
p1073
F0.000422
sS'ADJ'
p1074
F0.0009400000000000002
sS'VERB'
p1075
F0.9788519999999999
sS'NOUN'
p1076
F0.019786
s(lp1077
(g22
I1
tp1078
atp1079
a(S'za'
p1080
(dp1081
S'PRT'
p1082
F0.001022
sS'VERB'
p1083
F2.1000000000000002e-05
sS'NOUN'
p1084
F1e-05
sS'ADP'
p1085
F0.998946
sg6
F0.0
s(lp1086
tp1087
a(S'przyj\xc4\x99ciem'
p1088
(dp1089
S'VERB'
p1090
F0.984143
sS'NOUN'
p1091
F0.015857
s(lp1092
(g37
I3
tp1093
atp1094
a(S'sprawozdania'
p1095
(dp1096
S'NOUN'
p1097
F0.999999
s(lp1098
(g58
I6
tp1099
atp1100
a(g61
(dp1101
g6
F0.0
sg63
F1.0
s(lp1102
tp1103
a(S'gdy\xc5\xbc'
p1104
(dp1105
S'CONJ'
p1106
F1.0
s(lp1107
(g71
I7
tp1108
atp1109
a(S'zgadzam'
p1110
(dp1111
S'VERB'
p1112
F1.0
s(lp1113
tp1114
a(S'si\xc4\x99'
p1115
(dp1116
S'PRT'
p1117
F1.0
s(lp1118
(g85
I9
tp1119
atp1120
a(S'z'
p1121
(dp1122
S'PRT'
p1123
F0.002402
sS'VERB'
p1124
F3.2e-05
sS'NOUN'
p1125
F0.0
sS'ADP'
p1126
F0.997566
sg6
F0.0
s(lp1127
(g274
I10
tp1128
atp1129
a(S'przedstawion\xc4\x85'
p1130
(dp1131
S'VERB'
p1132
F1.0
s(lp1133
tp1134
a(S'w'
p1135
(dp1136
S'ADJ'
p1137
F0.0
sg6
F0.0
sS'NOUN'
p1138
F0.0
sS'ADP'
p1139
F1.0
s(lp1140
(g30
I2
tp1141
atp1142
a(S'nim'
p1143
(dp1144
S'PRON'
p1145
F1.0000009999999997
sS'CONJ'
p1146
F0.0
s(lp1147
(g92
I11
tp1148
atp1149
a(S'wizj\xc4\x85'
p1150
(dp1151
S'NOUN'
p1152
F1.0
s(lp1153
(g99
I12
tp1154
atp1155
a(g10
(dp1156
S'PRT'
p1157
F0.011243
sS'CONJ'
p1158
F0.988733
sS'PRON'
p1159
F3e-06
sS'NOUN'
p1160
F3e-06
sg6
F1.8e-05
s(lp1161
(g106
I13
tp1162
atp1163
a(S'popieram'
p1164
(dp1165
S'VERB'
p1166
F1.0
s(lp1167
tp1168
a(S'ambicj\xc4\x99'
p1169
(dp1170
S'NOUN'
p1171
F1.0
s(lp1172
(g121
I14
tp1173
atp1174
a(g61
(dp1175
g6
F0.0
sg63
F1.0
s(lp1176
tp1177
a(S'by'
p1178
(dp1179
S'NOUN'
p1180
F0.000351
sS'ADP'
p1181
F2.1e-05
sS'PRT'
p1182
F0.125551
sS'VERB'
p1183
F1e-06
sg6
F1.5e-05
sS'CONJ'
p1184
F0.874061
s(lp1185
(g156
I15
tp1186
atp1187
a(S'ue'
p1188
(dp1189
S'ADJ'
p1190
F0.00106
sS'VERB'
p1191
F0.027128999999999997
sS'NOUN'
p1192
F0.9718100000000002
s(lp1193
(g178
I17
tp1194
atp1195
a(S'silnie'
p1196
(dp1197
S'ADV'
p1198
F1.0
s(lp1199
(g133
I21
tp1200
atp1201
a(S'zaznaczy\xc5\x82a'
p1202
(dp1203
S'VERB'
p1204
F1.0
s(lp1205
(g149
I22
tp1206
atp1207
a(S'sw\xc4\x85'
p1208
(dp1209
S'ADJ'
p1210
F1.0
s(lp1211
tp1212
a(S'obecno\xc5\x9b\xc4\x87'
p1213
(dp1214
S'NOUN'
p1215
F1.0
s(lp1216
(g149
I22
tp1217
atp1218
a(S'na'
p1219
(dp1220
g6
F0.0
sS'VERB'
p1221
F0.0
sS'NOUN'
p1222
F0.0
sS'ADP'
p1223
F0.9999990000000001
sS'PRT'
p1224
F0.0
s(lp1225
(g185
I23
tp1226
atp1227
a(S'arenie'
p1228
(dp1229
S'NOUN'
p1230
F1.0
s(lp1231
(g201
I26
tp1232
atp1233
a(S'mi\xc4\x99dzynarodowej'
p1234
(dp1235
S'ADJ'
p1236
F1.0
s(lp1237
(g208
I25
tp1238
atp1239
a(g63
(dp1240
g63
F1.0
s(lp1241
(g63
I27
tp1242
atp1243
asS'sl'
p1244
(lp1245
(S'glasovala'
p1246
(dp1247
S'VERB'
p1248
F1.0
s(lp1249
tp1250
a(S'sem'
p1251
(dp1252
S'ADV'
p1253
F0.056125
sS'PRT'
p1254
F0.007666
sS'VERB'
p1255
F0.936209
s(lp1256
(g22
I1
tp1257
atp1258
a(S'za'
p1259
(dp1260
S'ADV'
p1261
F0.000523
sg6
F7e-06
sS'ADP'
p1262
F0.9994699999999999
s(lp1263
(g37
I3
tp1264
atp1265
a(S'to'
p1266
(dp1267
S'PRON'
p1268
F0.9999939999999999
sg6
F7e-06
s(lp1269
(g51
I5
tp1270
atp1271
a(S'poro\xc4\x8dilo'
p1272
(dp1273
S'NOUN'
p1274
F1.0
s(lp1275
(g58
I6
tp1276
atp1277
a(g61
(dp1278
g63
F1.0
s(lp1279
tp1280
a(S'ker'
p1281
(dp1282
S'CONJ'
p1283
F1.0
s(lp1284
(g71
I7
tp1285
atp1286
a(S'se'
p1287
(dp1288
S'PRON'
p1289
F1.0
sg6
F0.0
s(lp1290
tp1291
a(S'strinjam'
p1292
(dp1293
S'VERB'
p1294
F1.0
s(lp1295
(g85
I9
tp1296
atp1297
a(g1121
(dp1298
S'ADP'
p1299
F1.0
s(lp1300
(g274
I10
tp1301
atp1302
a(S'njegovo'
p1303
(dp1304
S'PRON'
p1305
F0.9999999999999999
s(lp1306
(g92
I11
tp1307
atp1308
a(S'vizijo'
p1309
(dp1310
S'NOUN'
p1311
F1.0
s(lp1312
(g99
I12
tp1313
atp1314
a(S'in'
p1315
(dp1316
S'ADV'
p1317
F2.7e-05
sg6
F7e-06
sS'CONJ'
p1318
F0.999956
sS'NOUN'
p1319
F1e-05
s(lp1320
(g106
I13
tp1321
atp1322
a(S'ambicijo'
p1323
(dp1324
S'NOUN'
p1325
F1.000001
s(lp1326
(g121
I14
tp1327
atp1328
a(S'za'
p1329
(dp1330
S'ADV'
p1331
F3.2e-05
sg6
F1e-06
sS'ADP'
p1332
F0.999967
s(lp1333
(g156
I15
tp1334
atp1335
a(S'mo\xc4\x8dno'
p1336
(dp1337
S'ADV'
p1338
F0.003083
sS'ADJ'
p1339
F0.996917
s(lp1340
(g133
I21
tp1341
atp1342
a(S'navzo\xc4\x8dnost'
p1343
(dp1344
S'NOUN'
p1345
F1.0
s(lp1346
(g149
I22
tp1347
atp1348
a(S'eu'
p1349
(dp1350
S'ADV'
p1351
F0.006932
sS'ADJ'
p1352
F0.028026000000000006
sS'VERB'
p1353
F0.007728
sS'NOUN'
p1354
F0.957318
s(lp1355
(g178
I17
tp1356
atp1357
a(S'na'
p1358
(dp1359
S'ADP'
p1360
F1.0
s(lp1361
(g185
I23
tp1362
atp1363
a(S'mednarodnem'
p1364
(dp1365
S'ADJ'
p1366
F1.0
s(lp1367
(g208
I25
tp1368
atp1369
a(S'prizori\xc5\xa1\xc4\x8du'
p1370
(dp1371
S'NOUN'
p1372
F1.0
s(lp1373
(g201
I26
tp1374
atp1375
a(g63
(dp1376
g63
F1.0
s(lp1377
(g63
I27
tp1378
atp1379
asS'es'
p1380
(lp1381
(S'he'
p1382
(dp1383
S'VERB'
p1384
F1.0
s(lp1385
(g10
I0
tp1386
atp1387
a(S'votado'
p1388
(dp1389
S'VERB'
p1390
F1.0
s(lp1391
(g22
I1
tp1392
atp1393
a(g142
(dp1394
g6
F3.9e-05
sS'CONJ'
p1395
F9.6e-05
sS'ADP'
p1396
F0.999865
s(lp1397
(g30
I2
tp1398
atp1399
a(S'favor'
p1400
(dp1401
S'NOUN'
p1402
F1.0
s(lp1403
(g37
I3
tp1404
atp1405
a(S'de'
p1406
(dp1407
g6
F0.0
sS'CONJ'
p1408
F2.5e-05
sS'ADP'
p1409
F0.999975
s(lp1410
(g44
I4
tp1411
atp1412
a(S'este'
p1413
(dp1414
S'PRON'
p1415
F0.999757
sS'NOUN'
p1416
F0.000243
s(lp1417
(g51
I5
tp1418
atp1419
a(S'informe'
p1420
(dp1421
S'VERB'
p1422
F0.037695
sS'NOUN'
p1423
F0.962305
s(lp1424
(g58
I6
tp1425
atp1426
a(S'porque'
p1427
(dp1428
S'CONJ'
p1429
F1.0
s(lp1430
(g71
I7
tp1431
atp1432
a(S'estoy'
p1433
(dp1434
S'VERB'
p1435
F1.0
s(lp1436
tp1437
a(S'de'
p1438
(dp1439
S'ADP'
p1440
F1.0
s(lp1441
tp1442
a(S'acuerdo'
p1443
(dp1444
S'ADP'
p1445
F1.0
s(lp1446
(g85
I9
tp1447
atp1448
a(S'con'
p1449
(dp1450
S'ADP'
p1451
F1.0
s(lp1452
(g274
I10
tp1453
atp1454
a(S'su'
p1455
(dp1456
S'PRON'
p1457
F1.0
s(lp1458
(g92
I11
tp1459
atp1460
a(S'visi\xc3\xb3n'
p1461
(dp1462
S'NOUN'
p1463
F1.0
s(lp1464
(g99
I12
tp1465
atp1466
a(S'y'
p1467
(dp1468
g6
F0.001029
sS'CONJ'
p1469
F0.998971
s(lp1470
(g106
I13
tp1471
atp1472
a(S'con'
p1473
(dp1474
S'ADP'
p1475
F1.0
s(lp1476
(g185
I23
tp1477
atp1478
a(S'la'
p1479
(dp1480
S'NOUN'
p1481
F0.0
sS'PRON'
p1482
F0.0
sS'DET'
p1483
F0.999999
sg6
F0.0
s(lp1484
(g194
I24
tp1485
atp1486
a(S'ambici\xc3\xb3n'
p1487
(dp1488
S'NOUN'
p1489
F1.0
s(lp1490
(g121
I14
tp1491
atp1492
a(S'de'
p1493
(dp1494
g6
F0.0
sS'CONJ'
p1495
F0.00561
sS'ADP'
p1496
F0.99439
s(lp1497
(g156
I15
tp1498
atp1499
a(S'que'
p1500
(dp1501
g6
F0.0
sS'CONJ'
p1502
F1.0
s(lp1503
(g320
I18
tp1504
atp1505
a(S'la'
p1506
(dp1507
S'PRON'
p1508
F0.000362
sS'DET'
p1509
F0.999637
sg6
F0.0
sS'NOUN'
p1510
F0.0
s(lp1511
(g165
I16
tp1512
atp1513
a(S'ue'
p1514
(dp1515
S'VERB'
p1516
F3.8e-05
sS'NOUN'
p1517
F0.999961
s(lp1518
(g178
I17
tp1519
atp1520
a(S'cuente'
p1521
(dp1522
S'VERB'
p1523
F1.0
s(lp1524
(g114
I19
tp1525
atp1526
a(S'con'
p1527
(dp1528
S'ADP'
p1529
F1.0
s(lp1530
tp1531
a(S'una'
p1532
(dp1533
S'DET'
p1534
F1.0
s(lp1535
(g142
I20
tp1536
atp1537
a(S'presencia'
p1538
(dp1539
S'NOUN'
p1540
F1.0
s(lp1541
(g149
I22
tp1542
atp1543
a(S'firme'
p1544
(dp1545
S'VERB'
p1546
F0.00136
sS'ADJ'
p1547
F0.99864
s(lp1548
(g133
I21
tp1549
atp1550
a(g142
(dp1551
g6
F0.001706
sS'CONJ'
p1552
F0.000236
sS'ADP'
p1553
F0.998059
s(lp1554
tp1555
a(S'nivel'
p1556
(dp1557
S'NOUN'
p1558
F1.0
s(lp1559
(g201
I26
tp1560
atp1561
a(S'internacional'
p1562
(dp1563
S'ADJ'
p1564
F1.0
s(lp1565
(g208
I25
tp1566
atp1567
a(g63
(dp1568
g63
F1.0
s(lp1569
(g63
I27
tp1570
atp1571
as.