(dp0
S'fr'
p1
(lp2
(S'par'
p3
(dp4
S'NOUN'
p5
F7.6e-05
sS'ADP'
p6
F0.999924
s(lp7
(S'in'
p8
I0
tp9
atp10
a(S'\xc3\xa9crit'
p11
(dp12
S'VERB'
p13
F0.035327000000000004
sS'NOUN'
p14
F0.964674
s(lp15
(S'writing'
p16
I1
tp17
atp18
a(S'.'
p19
(dp20
g19
F1.0
s(lp21
(g19
I2
tp22
atp23
a(S'-'
p24
(dp25
g19
F1.0
s(lp26
(g24
I3
tp27
atp28
a(S'('
p29
(dp30
g19
F1.0
s(lp31
(g29
I4
tp32
atp33
a(S'pl'
p34
(dp35
S'ADJ'
p36
F0.197818
sS'VERB'
p37
F0.0012339999999999999
sS'NOUN'
p38
F0.800948
s(lp39
(S'pl'
p40
I5
tp41
atp42
a(S')'
p43
(dp44
g19
F1.0
s(lp45
(g43
I6
tp46
atp47
a(S"j'"
p48
(dp49
S'ADJ'
p50
F0.280608
sS'VERB'
p51
F0.007367
sS'NOUN'
p52
F0.681695
sS'X'
p53
F0.03033
s(lp54
(S'i'
p55
I7
tp56
atp57
a(S'ai'
p58
(dp59
S'VERB'
p60
F1.0
s(lp61
tp62
a(S'vot\xc3\xa9'
p63
(dp64
S'VERB'
p65
F1.0
s(lp66
(S'voted'
p67
I8
tp68
atp69
a(S'pour'
p70
(dp71
S'CONJ'
p72
F0.026346
sS'ADP'
p73
F0.973654
s(lp74
(S'favour'
p75
I10
tp76
atp77
a(S'la'
p78
(dp79
S'PRON'
p80
F1.4e-05
sS'DET'
p81
F0.999986
sS'NOUN'
p82
F0.0
s(lp83
(S'the'
p84
I12
tp85
atp86
a(S'r\xc3\xa9solution'
p87
(dp88
S'NOUN'
p89
F1.0
s(lp90
(S'resolution'
p91
I13
tp92
atp93
a(S'sur'
p94
(dp95
S'ADP'
p96
F1.0
s(lp97
(S'on'
p98
I14
tp99
atp100
a(S'le'
p101
(dp102
S'PRON'
p103
F0.004756
sS'DET'
p104
F0.995244
s(lp105
tp106
a(S'zimbabwe'
p107
(dp108
S'ADJ'
p109
F0.168584
sS'VERB'
p110
F0.0048400000000000006
sS'NOUN'
p111
F0.8265769999999999
s(lp112
(S'zimbabwe'
p113
I15
tp114
atp115
a(g19
(dp116
g19
F1.0
s(lp117
(g19
I16
tp118
atp119
asS'en'
p120
(lp121
(g8
(dp122
S'ADV'
p123
F0.002573
sS'PRT'
p124
F0.0
sS'ADP'
p125
F0.997427
s(lp126
(g8
I0
tp127
atp128
a(g16
(dp129
S'VERB'
p130
F0.650532
sS'NOUN'
p131
F0.349468
s(lp132
(g16
I1
tp133
atp134
a(g19
(dp135
g19
F1.0
s(lp136
(g19
I2
tp137
atp138
a(g24
(dp139
g19
F1.0
s(lp140
(g24
I3
tp141
atp142
a(g29
(dp143
g19
F1.0
s(lp144
(g29
I4
tp145
atp146
a(g40
(dp147
S'ADJ'
p148
F0.012789
sS'VERB'
p149
F0.0009939999999999999
sS'NOUN'
p150
F0.986217
s(lp151
(g40
I5
tp152
atp153
a(g43
(dp154
g19
F1.0
s(lp155
(g43
I6
tp156
atp157
a(g55
(dp158
g53
F0.017968
sS'NOUN'
p159
F0.982033
s(lp160
(g55
I7
tp161
atp162
a(g67
(dp163
S'VERB'
p164
F1.0
s(lp165
(g67
I8
tp166
atp167
a(S'in'
p168
(dp169
S'ADV'
p170
F0.001614
sS'PRT'
p171
F0.007526
sS'ADP'
p172
F0.99086
s(lp173
(g168
I9
tp174
atp175
a(g75
(dp176
S'VERB'
p177
F0.0022370000000000003
sS'NOUN'
p178
F0.997763
s(lp179
(g75
I10
tp180
atp181
a(S'of'
p182
(dp183
S'ADP'
p184
F1.0
s(lp185
(g182
I11
tp186
atp187
a(g84
(dp188
S'NOUN'
p189
F1e-06
sS'DET'
p190
F0.999999
s(lp191
(g84
I12
tp192
atp193
a(g91
(dp194
S'NOUN'
p195
F1.0
s(lp196
(g91
I13
tp197
atp198
a(g98
(dp199
S'ADV'
p200
F0.000475
sS'PRT'
p201
F0.000402
sS'ADJ'
p202
F1e-06
sS'ADP'
p203
F0.99912
sS'NOUN'
p204
F1e-06
s(lp205
(g98
I14
tp206
atp207
a(g113
(dp208
S'ADV'
p209
F0.000969
sS'ADJ'
p210
F0.009645
sS'VERB'
p211
F0.009679
sS'NOUN'
p212
F0.9797079999999999
s(lp213
(g113
I15
tp214
atp215
a(g19
(dp216
g19
F1.0
s(lp217
(g19
I16
tp218
atp219
asS'nl'
p220
(lp221
(S'schriftelijk'
p222
(dp223
S'ADJ'
p224
F1.0
s(lp225
(g16
I1
tp226
atp227
a(g19
(dp228
g19
F1.0
s(lp229
(g19
I2
tp230
atp231
a(g24
(dp232
g19
F1.0
s(lp233
(g24
I3
tp234
atp235
a(g29
(dp236
g19
F1.0
s(lp237
(g29
I4
tp238
atp239
a(S'pl'
p240
(dp241
S'ADJ'
p242
F0.022827
sS'NOUN'
p243
F0.977173
s(lp244
(g40
I5
tp245
atp246
a(g43
(dp247
g19
F1.0
s(lp248
(g43
I6
tp249
atp250
a(S'ik'
p251
(dp252
S'PRON'
p253
F0.999917
sS'NOUN'
p254
F8.3e-05
s(lp255
(g55
I7
tp256
atp257
a(S'heb'
p258
(dp259
S'VERB'
p260
F1.0
s(lp261
tp262
a(S'gestemd'
p263
(dp264
S'VERB'
p265
F0.990803
sS'ADJ'
p266
F0.009197
s(lp267
(g67
I8
tp268
atp269
a(S'voor'
p270
(dp271
S'ADV'
p272
F8.1e-05
sS'CONJ'
p273
F5e-06
sS'NOUN'
p274
F0.0
sS'ADP'
p275
F0.999913
s(lp276
(g75
I10
tp277
atp278
a(S'de'
p279
(dp280
S'DET'
p281
F1.0
s(lp282
(g84
I12
tp283
atp284
a(S'resolutie'
p285
(dp286
S'NOUN'
p287
F1.0
s(lp288
(g91
I13
tp289
atp290
a(S'over'
p291
(dp292
S'ADV'
p293
F0.01868
sS'ADP'
p294
F0.98132
s(lp295
(g98
I14
tp296
atp297
a(S'zimbabwe'
p298
(dp299
S'ADJ'
p300
F0.037289
sS'NOUN'
p301
F0.962711
s(lp302
(g113
I15
tp303
atp304
a(g19
(dp305
g19
F1.0
s(lp306
(g19
I16
tp307
atp308
asS'de'
p309
(lp310
(S'schriftlich'
p311
(dp312
S'ADJ'
p313
F1.0
s(lp314
(g16
I1
tp315
atp316
a(g19
(dp317
g19
F1.0
s(lp318
(g19
I2
tp319
atp320
a(g24
(dp321
g19
F1.0
s(lp322
(g24
I3
tp323
atp324
a(g29
(dp325
g19
F1.0
s(lp326
(g29
I4
tp327
atp328
a(S'pl'
p329
(dp330
S'NOUN'
p331
F0.923667
s(lp332
(g40
I5
tp333
atp334
a(g43
(dp335
g19
F1.0
s(lp336
(g43
I6
tp337
atp338
a(S'ich'
p339
(dp340
S'PRON'
p341
F1.0
s(lp342
(g55
I7
tp343
atp344
a(S'habe'
p345
(dp346
S'VERB'
p347
F1.0
s(lp348
tp349
a(S'f\xc3\xbcr'
p350
(dp351
S'ADP'
p352
F1.0
s(lp353
(g75
I10
tp354
atp355
a(S'den'
p356
(dp357
S'PRON'
p358
F2.6e-05
sS'DET'
p359
F0.999973
s(lp360
(g84
I12
tp361
atp362
a(S'entschlie\xc3\x9fungsantrag'
p363
(dp364
S'ADJ'
p365
F0.000131
sS'NOUN'
p366
F0.99978
s(lp367
(g91
I13
tp368
atp369
a(S'zur'
p370
(dp371
S'ADP'
p372
F1.0
s(lp373
(g98
I14
tp374
atp375
a(S'lage'
p376
(dp377
S'ADJ'
p378
F0.0001
sS'NOUN'
p379
F0.999821
s(lp380
tp381
a(S'in'
p382
(dp383
S'ADP'
p384
F1.0
s(lp385
(g168
I9
tp386
atp387
a(S'simbabwe'
p388
(dp389
S'NOUN'
p390
F0.255229
sS'ADJ'
p391
F0.359925
s(lp392
(g113
I15
tp393
atp394
a(S'gestimmt'
p395
(dp396
S'VERB'
p397
F1.0
s(lp398
(g67
I8
tp399
atp400
a(g19
(dp401
g19
F1.0
s(lp402
(g19
I16
tp403
atp404
asS'it'
p405
(lp406
(S'per'
p407
(dp408
S'CONJ'
p409
F0.030106
sS'ADP'
p410
F0.969894
s(lp411
(g8
I0
tp412
atp413
a(S'iscritto'
p414
(dp415
S'NOUN'
p416
F0.123774
sS'VERB'
p417
F0.030022
sS'ADJ'
p418
F0.846204
s(lp419
(g16
I1
tp420
atp421
a(g19
(dp422
g19
F1.0
s(lp423
(g19
I2
tp424
atp425
a(g24
(dp426
g53
F1.8e-05
sg19
F0.999982
s(lp427
(g24
I3
tp428
atp429
a(g29
(dp430
g19
F1.0
s(lp431
(g29
I4
tp432
atp433
a(S'pl'
p434
(dp435
S'NOUN'
p436
F0.003774
sS'VERB'
p437
F0.984512
sS'ADJ'
p438
F0.011715
s(lp439
(g40
I5
tp440
atp441
a(g43
(dp442
g19
F1.0
s(lp443
(g43
I6
tp444
atp445
a(S'ho'
p446
(dp447
S'VERB'
p448
F1.0
s(lp449
(g55
I7
tp450
atp451
a(S'votato'
p452
(dp453
S'VERB'
p454
F0.990109
sS'ADJ'
p455
F0.009891
s(lp456
(g67
I8
tp457
atp458
a(S'a'
p459
(dp460
S'CONJ'
p461
F7.6e-05
sS'ADP'
p462
F0.999924
s(lp463
(g168
I9
tp464
atp465
a(S'favore'
p466
(dp467
S'NOUN'
p468
F1.0
s(lp469
(g75
I10
tp470
atp471
a(S'della'
p472
(dp473
S'DEF'
p474
F0.001587
sS'ADP'
p475
F0.998413
s(lp476
(g182
I11
tp477
atp478
a(S'risoluzione'
p479
(dp480
S'NOUN'
p481
F1.0
s(lp482
(g91
I13
tp483
atp484
a(S'sullo'
p485
(dp486
S'ADP'
p487
F1.0
s(lp488
tp489
a(S'zimbabwe'
p490
(dp491
S'VERB'
p492
F0.326839
sS'NOUN'
p493
F0.673161
s(lp494
(g113
I15
tp495
atp496
a(g19
(dp497
g19
F1.0
s(lp498
(g19
I16
tp499
atp500
asS'sk'
p501
(lp502
(S'p\xc3\xadsomne'
p503
(dp504
S'ADV'
p505
F1.0
s(lp506
(g16
I1
tp507
atp508
a(g19
(dp509
g19
F1.0
s(lp510
(g19
I2
tp511
atp512
a(g24
(dp513
g19
F1.0
s(lp514
(g24
I3
tp515
atp516
a(g29
(dp517
g19
F1.0
s(lp518
(g29
I4
tp519
atp520
a(S'pl'
p521
(dp522
g53
F1.0
s(lp523
(g40
I5
tp524
atp525
a(g43
(dp526
g19
F1.0
s(lp527
(g43
I6
tp528
atp529
a(S'hlasoval'
p530
(dp531
S'VERB'
p532
F1.0
s(lp533
tp534
a(S'som'
p535
(dp536
S'VERB'
p537
F1.0
s(lp538
(g67
I8
tp539
atp540
a(S'za'
p541
(dp542
S'PRT'
p543
F0.000357
sS'ADP'
p544
F0.999525
sg53
F0.000118
s(lp545
(g75
I10
tp546
atp547
a(S'uznesenie'
p548
(dp549
S'NOUN'
p550
F1.0
s(lp551
(g91
I13
tp552
atp553
a(S'o'
p554
(dp555
g53
F0.0010450000000000001
sS'CONJ'
p556
F5e-05
sS'NOUN'
p557
F1.7e-05
sS'ADP'
p558
F0.998888
s(lp559
(g98
I14
tp560
atp561
a(S'zimbabwe'
p562
(dp563
S'ADJ'
p564
F0.000315
sg53
F0.000436
sS'VERB'
p565
F2.7000000000000006e-05
sS'NOUN'
p566
F0.9992219999999999
s(lp567
(g113
I15
tp568
atp569
a(g19
(dp570
g19
F1.0
s(lp571
(g19
I16
tp572
atp573
asS'pl'
p574
(lp575
(S'na'
p576
(dp577
g53
F1e-06
sS'VERB'
p578
F0.0
sS'NOUN'
p579
F0.0
sS'ADP'
p580
F0.999997
sS'PRT'
p581
F1e-06
s(lp582
tp583
a(S'pi\xc5\x9bmie'
p584
(dp585
S'NOUN'
p586
F1.0
s(lp587
(g16
I1
tp588
atp589
a(g19
(dp590
g19
F1.0
s(lp591
(g19
I2
tp592
atp593
a(g24
(dp594
g53
F0.000165
sS'NUM'
p595
F0.0
sS'NOUN'
p596
F0.000156
sg19
F0.999678
s(lp597
(g24
I3
tp598
atp599
a(S'g\xc5\x82osowa\xc5\x82em'
p600
(dp601
S'ADV'
p602
F0.005412
sS'ADJ'
p603
F0.006134
sS'VERB'
p604
F0.22001099999999998
sS'NOUN'
p605
F0.7684409999999998
s(lp606
(g67
I8
tp607
atp608
a(S'za'
p609
(dp610
S'PRT'
p611
F0.007039
sS'VERB'
p612
F8.6e-05
sS'NOUN'
p613
F1.5e-05
sS'ADP'
p614
F0.992859
sg53
F1e-06
s(lp615
(g75
I10
tp616
atp617
a(S'rezolucj\xc4\x85'
p618
(dp619
S'NOUN'
p620
F1.0
s(lp621
(g91
I13
tp622
atp623
a(S'w'
p624
(dp625
S'ADJ'
p626
F0.0
sg53
F0.0
sS'NOUN'
p627
F0.0
sS'ADP'
p628
F1.0
s(lp629
tp630
a(S'sprawie'
p631
(dp632
S'NOUN'
p633
F1.0
s(lp634
(g98
I14
tp635
atp636
a(S'zimbabwe'
p637
(dp638
S'ADV'
p639
F0.005767
sS'NOUN'
p640
F0.254639
sS'VERB'
p641
F0.11835499999999999
sS'ADJ'
p642
F0.621243
s(lp643
(g113
I15
tp644
atp645
a(g19
(dp646
g19
F1.0
s(lp647
(g19
I16
tp648
atp649
asS'sl'
p650
(lp651
(S'v'
p652
(dp653
S'ADP'
p654
F1.0
s(lp655
(g8
I0
tp656
atp657
a(S'pisni'
p658
(dp659
S'ADJ'
p660
F1.0
s(lp661
tp662
a(S'obliki'
p663
(dp664
S'NOUN'
p665
F1.0
s(lp666
(g16
I1
tp667
atp668
a(g19
(dp669
g19
F1.0
s(lp670
(g19
I2
tp671
atp672
a(g24
(dp673
g19
F1.0
s(lp674
(g24
I3
tp675
atp676
a(g29
(dp677
g19
F1.0
s(lp678
(g29
I4
tp679
atp680
a(S'pl'
p681
(dp682
S'ADJ'
p683
F0.0011220000000000002
sg53
F0.115589
sS'ADV'
p684
F0.000496
sS'VERB'
p685
F0.061393
sS'NOUN'
p686
F0.8214009999999999
s(lp687
(g40
I5
tp688
atp689
a(g43
(dp690
g19
F1.0
s(lp691
(g43
I6
tp692
atp693
a(S'glasoval'
p694
(dp695
S'VERB'
p696
F1.0
s(lp697
tp698
a(S'sem'
p699
(dp700
S'ADV'
p701
F0.054986
sS'PRT'
p702
F0.007491
sS'VERB'
p703
F0.937523
s(lp704
(g67
I8
tp705
atp706
a(S'za'
p707
(dp708
S'ADV'
p709
F0.000102
sg53
F4e-06
sS'ADP'
p710
F0.999893
s(lp711
(g75
I10
tp712
atp713
a(S'resolucijo'
p714
(dp715
S'NOUN'
p716
F1.0
s(lp717
(g91
I13
tp718
atp719
a(g554
(dp720
S'NOUN'
p721
F1.4e-05
sS'ADP'
p722
F0.999986
s(lp723
(g98
I14
tp724
atp725
a(S'zimbabveju'
p726
(dp727
S'ADV'
p728
F1.2e-05
sS'ADJ'
p729
F3e-05
sS'VERB'
p730
F0.0
sS'NOUN'
p731
F0.9999519999999998
sg53
F3e-06
s(lp732
(g113
I15
tp733
atp734
a(g19
(dp735
g19
F1.0
s(lp736
(g19
I16
tp737
atp738
asS'es'
p739
(lp740
(S'por'
p741
(dp742
S'ADP'
p743
F1.0
s(lp744
tp745
a(S'escrito'
p746
(dp747
S'VERB'
p748
F0.31338
sS'ADJ'
p749
F0.68662
s(lp750
(g16
I1
tp751
atp752
a(g19
(dp753
g19
F1.0
s(lp754
(g19
I2
tp755
atp756
a(g24
(dp757
g19
F1.0
s(lp758
(g24
I3
tp759
atp760
a(g29
(dp761
g19
F1.0
s(lp762
(g29
I4
tp763
atp764
a(S'pl'
p765
(dp766
S'NOUN'
p767
F0.37372799999999995
sS'VERB'
p768
F1.5e-05
sS'ADJ'
p769
F0.626256
s(lp770
(g40
I5
tp771
atp772
a(g43
(dp773
g19
F1.0
s(lp774
(g43
I6
tp775
atp776
a(S'he'
p777
(dp778
S'VERB'
p779
F1.0
s(lp780
(g55
I7
tp781
atp782
a(S'votado'
p783
(dp784
S'VERB'
p785
F1.0
s(lp786
(g67
I8
tp787
atp788
a(g459
(dp789
g53
F3.9e-05
sS'CONJ'
p790
F9.6e-05
sS'ADP'
p791
F0.999865
s(lp792
(g168
I9
tp793
atp794
a(S'favor'
p795
(dp796
S'NOUN'
p797
F1.0
s(lp798
(g75
I10
tp799
atp800
a(S'de'
p801
(dp802
g53
F0.0
sS'CONJ'
p803
F1.7e-05
sS'ADP'
p804
F0.999983
s(lp805
(g182
I11
tp806
atp807
a(S'la'
p808
(dp809
g53
F0.0
sS'PRON'
p810
F0.0
sS'DET'
p811
F0.999999
sS'NOUN'
p812
F0.0
s(lp813
(g84
I12
tp814
atp815
a(S'resoluci\xc3\xb3n'
p816
(dp817
S'NOUN'
p818
F1.0
s(lp819
(g91
I13
tp820
atp821
a(S'sobre'
p822
(dp823
S'NOUN'
p824
F1e-06
sS'ADP'
p825
F0.999999
s(lp826
(g98
I14
tp827
atp828
a(S'zimbabue'
p829
(dp830
S'VERB'
p831
F0.001558
sS'NOUN'
p832
F0.998443
s(lp833
(g113
I15
tp834
atp835
a(g19
(dp836
g19
F1.0
s(lp837
(g19
I16
tp838
atp839
as.