(dp0
S'fr'
p1
(lp2
(S'toutefois'
p3
(dp4
S'ADV'
p5
F1.0
s(lp6
(S'however'
p7
I15
tp8
atp9
a(S','
p10
(dp11
S'.'
p12
F1.0
s(lp13
(g10
I14
tp14
atp15
a(S'les'
p16
(dp17
S'PRON'
p18
F0.000333
sS'DET'
p19
F0.999645
sS'ADP'
p20
F2.2e-05
s(lp21
(S'the'
p22
I0
tp23
atp24
a(S'effets'
p25
(dp26
S'NOUN'
p27
F1.0
s(lp28
(S'effects'
p29
I2
tp30
atp31
a(S'l\xc3\xa9gislatifs'
p32
(dp33
S'NOUN'
p34
F0.040686
sS'ADJ'
p35
F0.959314
s(lp36
(S'legislative'
p37
I1
tp38
atp39
a(S'obtenus'
p40
(dp41
S'VERB'
p42
F1.0
s(lp43
(S'obtained'
p44
I3
tp45
atp46
a(S'ne'
p47
(dp48
S'ADV'
p49
F1.0
s(lp50
tp51
a(S'sont'
p52
(dp53
S'VERB'
p54
F1.0
s(lp55
(S'are'
p56
I4
tp57
atp58
a(S'pas'
p59
(dp60
S'ADV'
p61
F0.999264
sS'NOUN'
p62
F0.000736
s(lp63
(S'not'
p64
I5
tp65
atp66
a(S'toujours'
p67
(dp68
S'ADV'
p69
F1.0
s(lp70
(S'always'
p71
I6
tp72
atp73
a(S'bas\xc3\xa9s'
p74
(dp75
S'VERB'
p76
F1.0
s(lp77
(S'based'
p78
I7
tp79
atp80
a(S'sur'
p81
(dp82
S'ADP'
p83
F1.0
s(lp84
(S'on'
p85
I8
tp86
atp87
a(S'une'
p88
(dp89
S'NOUN'
p90
F1.8e-05
sS'NUM'
p91
F0.024699
sS'DET'
p92
F0.975283
s(lp93
(S'a'
p94
I9
tp95
atp96
a(S'disposition'
p97
(dp98
S'NOUN'
p99
F1.0
s(lp100
(S'provision'
p101
I13
tp102
atp103
a(S'claire'
p104
(dp105
S'NOUN'
p106
F0.009609
sS'ADJ'
p107
F0.990391
s(lp108
(S'clear'
p109
I10
tp110
atp111
a(S'et'
p112
(dp113
S'CONJ'
p114
F1.0
s(lp115
(S'and'
p116
I11
tp117
atp118
a(S'convaincante'
p119
(dp120
S'ADJ'
p121
F1.0
s(lp122
(S'convincing'
p123
I12
tp124
atp125
a(g12
(dp126
g12
F1.0
s(lp127
(g12
I16
tp128
atp129
asS'en'
p130
(lp131
(g22
(dp132
S'NOUN'
p133
F2e-06
sS'DET'
p134
F0.999998
s(lp135
(g22
I0
tp136
atp137
a(g37
(dp138
S'NOUN'
p139
F0.003271
sS'ADJ'
p140
F0.996729
s(lp141
(g37
I1
tp142
atp143
a(g29
(dp144
S'VERB'
p145
F5.7e-05
sS'NOUN'
p146
F0.999943
s(lp147
(g29
I2
tp148
atp149
a(g44
(dp150
S'VERB'
p151
F1.0
s(lp152
(g44
I3
tp153
atp154
a(g56
(dp155
S'VERB'
p156
F0.996141
sS'NOUN'
p157
F0.003859
s(lp158
(g56
I4
tp159
atp160
a(g64
(dp161
S'ADV'
p162
F1.0
s(lp163
(g64
I5
tp164
atp165
a(g71
(dp166
S'ADV'
p167
F1.0
s(lp168
(g71
I6
tp169
atp170
a(g78
(dp171
S'VERB'
p172
F1.0
s(lp173
(g78
I7
tp174
atp175
a(g85
(dp176
S'ADV'
p177
F0.000939
sS'PRT'
p178
F0.007119
sS'ADJ'
p179
F0.0
sS'NOUN'
p180
F0.0
sS'ADP'
p181
F0.991942
s(lp182
(g85
I8
tp183
atp184
a(g94
(dp185
S'NOUN'
p186
F0.0
sS'DET'
p187
F1.0
s(lp188
(g94
I9
tp189
atp190
a(g109
(dp191
S'VERB'
p192
F0.000337
sS'ADJ'
p193
F0.999663
s(lp194
(g109
I10
tp195
atp196
a(g116
(dp197
S'CONJ'
p198
F0.999998
sS'NOUN'
p199
F2e-06
s(lp200
(g116
I11
tp201
atp202
a(g123
(dp203
S'NOUN'
p204
F0.01329
sS'VERB'
p205
F0.217669
sS'ADJ'
p206
F0.769042
s(lp207
(g123
I12
tp208
atp209
a(g101
(dp210
S'VERB'
p211
F1.6e-05
sS'NOUN'
p212
F0.999984
s(lp213
(g101
I13
tp214
atp215
a(g10
(dp216
g12
F1.0
s(lp217
(g10
I14
tp218
atp219
a(g7
(dp220
S'ADV'
p221
F1.0
s(lp222
(g7
I15
tp223
atp224
a(g12
(dp225
g12
F1.0
s(lp226
(g12
I16
tp227
atp228
asS'nl'
p229
(lp230
(S'wetgevende'
p231
(dp232
S'NOUN'
p233
F4e-06
sS'ADJ'
p234
F0.999996
s(lp235
(g37
I1
tp236
atp237
a(S'effecten'
p238
(dp239
S'NOUN'
p240
F1.0
s(lp241
(g29
I2
tp242
atp243
a(S'zijn'
p244
(dp245
S'PRON'
p246
F1e-06
sS'VERB'
p247
F0.9999669999999999
sS'NOUN'
p248
F3.2e-05
s(lp249
(g56
I4
tp250
atp251
a(S'echter'
p252
(dp253
S'ADV'
p254
F0.999989
sS'ADJ'
p255
F1.1e-05
s(lp256
(g7
I15
tp257
atp258
a(S'niet'
p259
(dp260
S'ADV'
p261
F0.999993
sS'PRON'
p262
F3e-06
sS'VERB'
p263
F4e-06
sS'X'
p264
F0.0
s(lp265
(g64
I5
tp266
atp267
a(S'altijd'
p268
(dp269
S'ADV'
p270
F1.0
s(lp271
(g71
I6
tp272
atp273
a(S'gebaseerd'
p274
(dp275
S'VERB'
p276
F1.0
s(lp277
(g78
I7
tp278
atp279
a(S'op'
p280
(dp281
S'ADV'
p282
F0.001682
sS'ADJ'
p283
F1e-06
sS'ADP'
p284
F0.998316
s(lp285
(g85
I8
tp286
atp287
a(S'duidelijke'
p288
(dp289
S'NOUN'
p290
F0.006191
sS'ADJ'
p291
F0.993809
s(lp292
(g109
I10
tp293
atp294
a(S'en'
p295
(dp296
S'CONJ'
p297
F1.0
s(lp298
(g116
I11
tp299
atp300
a(S'overtuigende'
p301
(dp302
S'NOUN'
p303
F3e-06
sS'VERB'
p304
F0.370262
sS'ADJ'
p305
F0.629735
s(lp306
(g123
I12
tp307
atp308
a(S'bepalingen'
p309
(dp310
S'NOUN'
p311
F1.0
s(lp312
(g101
I13
tp313
atp314
a(g12
(dp315
g12
F1.0
s(lp316
(g12
I16
tp317
atp318
asS'de'
p319
(lp320
(S'die'
p321
(dp322
S'PRON'
p323
F0.101529
sS'DET'
p324
F0.89666
s(lp325
(g22
I0
tp326
atp327
a(S'damit'
p328
(dp329
S'ADV'
p330
F0.999268
sS'CONJ'
p331
F0.000732
s(lp332
(g56
I4
tp333
atp334
a(S'erzielten'
p335
(dp336
S'VERB'
p337
F0.314998
sS'ADJ'
p338
F0.685002
s(lp339
(g44
I3
tp340
atp341
a(S'rechtlichen'
p342
(dp343
S'ADJ'
p344
F1.0
s(lp345
(g37
I1
tp346
atp347
a(S'wirkungen'
p348
(dp349
S'ADJ'
p350
F0.003162
sS'NOUN'
p351
F0.9958
s(lp352
(g29
I2
tp353
atp354
a(S'beruhen'
p355
(dp356
S'VERB'
p357
F1.0
s(lp358
(g78
I7
tp359
atp360
a(S'allerdings'
p361
(dp362
S'ADV'
p363
F1.0
s(lp364
(g7
I15
tp365
atp366
a(S'nicht'
p367
(dp368
S'PRT'
p369
F1.0
s(lp370
(g64
I5
tp371
atp372
a(S'durchg\xc3\xa4ngig'
p373
(dp374
S'VERB'
p375
F0.000154
sS'ADJ'
p376
F0.99984
s(lp377
(g71
I6
tp378
atp379
a(S'auf'
p380
(dp381
S'PRT'
p382
F0.015822
sS'ADP'
p383
F0.984133
s(lp384
(g85
I8
tp385
atp386
a(S'klaren'
p387
(dp388
S'VERB'
p389
F0.011824
sS'ADJ'
p390
F0.987771
s(lp391
(g109
I10
tp392
atp393
a(S'und'
p394
(dp395
S'CONJ'
p396
F1.0
s(lp397
(g116
I11
tp398
atp399
a(S'\xc3\xbcberzeugenden'
p400
(dp401
S'ADJ'
p402
F1.0
s(lp403
(g123
I12
tp404
atp405
a(S'bestimmungen'
p406
(dp407
S'VERB'
p408
F5.9e-05
sS'NOUN'
p409
F0.999916
s(lp410
(g101
I13
tp411
atp412
a(g12
(dp413
g12
F1.0
s(lp414
(g12
I16
tp415
atp416
asS'it'
p417
(lp418
(S'gli'
p419
(dp420
S'PRON'
p421
F0.000911
sS'DET'
p422
F0.999089
s(lp423
tp424
a(S'effetti'
p425
(dp426
S'NOUN'
p427
F1.0
s(lp428
(g29
I2
tp429
atp430
a(S'legislativi'
p431
(dp432
S'ADJ'
p433
F1.0
s(lp434
(g37
I1
tp435
atp436
a(S'ottenuti'
p437
(dp438
S'VERB'
p439
F1.0
s(lp440
(g44
I3
tp441
atp442
a(S'non'
p443
(dp444
S'ADV'
p445
F1.0
s(lp446
(g64
I5
tp447
atp448
a(S'sono'
p449
(dp450
S'VERB'
p451
F0.999916
sS'NOUN'
p452
F8.4e-05
s(lp453
(g56
I4
tp454
atp455
a(S'per\xc3\xb2'
p456
(dp457
S'ADV'
p458
F1.0
s(lp459
(g7
I15
tp460
atp461
a(S'sempre'
p462
(dp463
S'ADV'
p464
F0.997842
sS'CONJ'
p465
F0.002158
s(lp466
(g71
I6
tp467
atp468
a(S'basati'
p469
(dp470
S'VERB'
p471
F1.0
s(lp472
(g78
I7
tp473
atp474
a(S'su'
p475
(dp476
S'ADV'
p477
F0.019694
sS'ADP'
p478
F0.980306
s(lp479
(g85
I8
tp480
atp481
a(S'un'
p482
(dp483
S'PRON'
p484
F0.002638
sS'DEF'
p485
F0.997362
s(lp486
(g94
I9
tp487
atp488
a(S'provvedimento'
p489
(dp490
S'NOUN'
p491
F1.0
s(lp492
(g101
I13
tp493
atp494
a(S'chiaro'
p495
(dp496
S'ADV'
p497
F0.042291
sS'NOUN'
p498
F0.004862
sS'ADJ'
p499
F0.952846
s(lp500
(g109
I10
tp501
atp502
a(S'e'
p503
(dp504
S'CONJ'
p505
F1.0
s(lp506
(g116
I11
tp507
atp508
a(S'convincente'
p509
(dp510
S'VERB'
p511
F0.033906
sS'ADJ'
p512
F0.966094
s(lp513
(g123
I12
tp514
atp515
a(g12
(dp516
g12
F1.0
s(lp517
(g12
I16
tp518
atp519
asS'sk'
p520
(lp521
(S'dosiahnut\xc3\xa9'
p522
(dp523
S'VERB'
p524
F1.0
s(lp525
(g44
I3
tp526
atp527
a(S'pr\xc3\xa1vne'
p528
(dp529
S'ADV'
p530
F6.5e-05
sS'ADJ'
p531
F0.999934
s(lp532
(g37
I1
tp533
atp534
a(S'\xc3\xba\xc4\x8dinky'
p535
(dp536
S'NOUN'
p537
F1.0
s(lp538
(g29
I2
tp539
atp540
a(S'sa'
p541
(dp542
S'PRT'
p543
F0.999952
sS'ADP'
p544
F5e-06
sg264
F4.399999999999999e-05
s(lp545
(g56
I4
tp546
atp547
a(S'v\xc5\xa1ak'
p548
(dp549
g264
F0.983235
sS'CONJ'
p550
F0.016765
s(lp551
(g7
I15
tp552
atp553
a(S'nie'
p554
(dp555
g264
F1.0
s(lp556
(g64
I5
tp557
atp558
a(S'v\xc5\xbedy'
p559
(dp560
S'PRON'
p561
F1.0
s(lp562
(g71
I6
tp563
atp564
a(S'zakladaj\xc3\xba'
p565
(dp566
S'VERB'
p567
F1.0
s(lp568
(g78
I7
tp569
atp570
a(S'na'
p571
(dp572
g264
F6.8e-05
sS'CONJ'
p573
F7e-06
sS'ADP'
p574
F0.999915
sS'PRT'
p575
F1e-05
s(lp576
(g85
I8
tp577
atp578
a(S'jasn\xc3\xbdch'
p579
(dp580
S'ADJ'
p581
F1.0
s(lp582
(g109
I10
tp583
atp584
a(g94
(dp585
g264
F0.00047799999999999996
sS'CONJ'
p586
F0.998379
sS'NOUN'
p587
F0.001055
sS'ADP'
p588
F7.2e-05
sS'PRT'
p589
F1.6e-05
s(lp590
(g116
I11
tp591
atp592
a(S'presved\xc4\x8div\xc3\xbdch'
p593
(dp594
S'ADJ'
p595
F1.0
s(lp596
(g123
I12
tp597
atp598
a(S'ustanoveniach'
p599
(dp600
S'NOUN'
p601
F1.0
s(lp602
(g101
I13
tp603
atp604
a(g12
(dp605
g12
F1.0
s(lp606
(g12
I16
tp607
atp608
asS'pl'
p609
(lp610
(S'uzyskane'
p611
(dp612
S'VERB'
p613
F0.9999990000000001
s(lp614
(g44
I3
tp615
atp616
a(S'efekty'
p617
(dp618
S'NOUN'
p619
F1.0
s(lp620
(g29
I2
tp621
atp622
a(S'legislacyjne'
p623
(dp624
S'ADV'
p625
F0.000521
sS'NOUN'
p626
F0.007161999999999999
sS'VERB'
p627
F0.036613999999999994
sS'ADJ'
p628
F0.955704
s(lp629
(g37
I1
tp630
atp631
a(S'nie'
p632
(dp633
S'ADV'
p634
F1.9e-05
sS'PRT'
p635
F0.872915
sS'CONJ'
p636
F0.126459
sS'NOUN'
p637
F1.3e-05
sS'PRON'
p638
F0.000594
s(lp639
(g64
I5
tp640
atp641
a(S'zawsze'
p642
(dp643
S'ADV'
p644
F1.0
s(lp645
(g71
I6
tp646
atp647
a(S'jednak'
p648
(dp649
S'PRT'
p650
F0.328195
sS'CONJ'
p651
F0.671805
s(lp652
(g7
I15
tp653
atp654
a(S'oparte'
p655
(dp656
S'VERB'
p657
F1.0000010000000001
s(lp658
(g78
I7
tp659
atp660
a(S's\xc4\x85'
p661
(dp662
S'VERB'
p663
F1.0
s(lp664
(g56
I4
tp665
atp666
a(S'na'
p667
(dp668
S'PRT'
p669
F1.4e-05
sS'VERB'
p670
F0.0
sS'NOUN'
p671
F0.0
sS'ADP'
p672
F0.999984
sg264
F2e-06
s(lp673
(g85
I8
tp674
atp675
a(S'jednoznacznym'
p676
(dp677
S'ADV'
p678
F4.9e-05
sS'NOUN'
p679
F0.108495
sS'VERB'
p680
F2e-06
sS'ADJ'
p681
F0.8914469999999999
s(lp682
(g109
I10
tp683
atp684
a(S'przekonywuj\xc4\x85cym'
p685
(dp686
S'ADV'
p687
F8e-06
sS'NOUN'
p688
F0.002335
sS'VERB'
p689
F0.0035309999999999994
sS'ADJ'
p690
F0.9941240000000001
s(lp691
tp692
a(S'zapisie'
p693
(dp694
S'ADV'
p695
F2.8e-05
sS'ADJ'
p696
F9.199999999999999e-05
sS'VERB'
p697
F0.001686
sS'NOUN'
p698
F0.998195
s(lp699
(g123
I12
tp700
atp701
a(g12
(dp702
g12
F1.0
s(lp703
(g12
I16
tp704
atp705
asS'sl'
p706
(lp707
(S'dose\xc5\xbeeni'
p708
(dp709
S'ADV'
p710
F0.008733
sS'NOUN'
p711
F0.11946500000000002
sS'VERB'
p712
F0.002408
sS'ADJ'
p713
F0.869393
s(lp714
(g44
I3
tp715
atp716
a(S'zakonodajni'
p717
(dp718
S'ADV'
p719
F2.8e-05
sS'NOUN'
p720
F0.027652
sS'VERB'
p721
F0.0007820000000000001
sS'ADJ'
p722
F0.9715400000000001
s(lp723
(g37
I1
tp724
atp725
a(S'u\xc4\x8dinki'
p726
(dp727
S'NOUN'
p728
F1.0
s(lp729
(g29
I2
tp730
atp731
a(S'ne'
p732
(dp733
S'PRT'
p734
F0.99062
sS'CONJ'
p735
F0.009303
sg264
F7.8e-05
s(lp736
(g64
I5
tp737
atp738
a(S'temeljijo'
p739
(dp740
S'VERB'
p741
F1.0
s(lp742
(g78
I7
tp743
atp744
a(S'vedno'
p745
(dp746
S'ADV'
p747
F1.0
s(lp748
(g71
I6
tp749
atp750
a(S'na'
p751
(dp752
S'ADP'
p753
F1.0
s(lp754
(g85
I8
tp755
atp756
a(S'jasnih'
p757
(dp758
S'ADJ'
p759
F1.0
s(lp760
(g109
I10
tp761
atp762
a(S'in'
p763
(dp764
S'ADV'
p765
F2e-06
sg264
F9e-06
sS'CONJ'
p766
F0.999984
sS'NOUN'
p767
F5e-06
s(lp768
(g116
I11
tp769
atp770
a(S'prepri\xc4\x8dljivih'
p771
(dp772
S'ADJ'
p773
F1.0
s(lp774
(g123
I12
tp775
atp776
a(S'predpisih'
p777
(dp778
S'NOUN'
p779
F1.0
s(lp780
(g101
I13
tp781
atp782
a(g12
(dp783
g12
F1.0
s(lp784
(g12
I16
tp785
atp786
asS'es'
p787
(lp788
(S'no'
p789
(dp790
S'ADV'
p791
F1.0
s(lp792
tp793
a(S'obstante'
p794
(dp795
S'ADV'
p796
F1.0
s(lp797
(g7
I15
tp798
atp799
a(g10
(dp800
g12
F1.0
s(lp801
(g10
I14
tp802
atp803
a(S'los'
p804
(dp805
S'PRON'
p806
F2.5e-05
sS'DET'
p807
F0.999975
s(lp808
(g22
I0
tp809
atp810
a(S'efectos'
p811
(dp812
S'NOUN'
p813
F1.0
s(lp814
(g29
I2
tp815
atp816
a(S'legislativos'
p817
(dp818
S'ADJ'
p819
F1.0
s(lp820
(g37
I1
tp821
atp822
a(S'obtenidos'
p823
(dp824
S'VERB'
p825
F1.0
s(lp826
(g44
I3
tp827
atp828
a(S'no'
p829
(dp830
S'ADV'
p831
F1.0
sg264
F0.0
s(lp832
(g64
I5
tp833
atp834
a(S'siempre'
p835
(dp836
S'ADV'
p837
F1.0
s(lp838
(g71
I6
tp839
atp840
a(S'se'
p841
(dp842
S'PRON'
p843
F1.0
sS'VERB'
p844
F0.0
s(lp845
(g56
I4
tp846
atp847
a(S'basan'
p848
(dp849
S'VERB'
p850
F1.0
s(lp851
(g78
I7
tp852
atp853
a(S'en'
p854
(dp855
g264
F8e-06
sS'CONJ'
p856
F1.4e-05
sS'ADP'
p857
F0.999977
s(lp858
(g85
I8
tp859
atp860
a(S'disposiciones'
p861
(dp862
S'NOUN'
p863
F1.0
s(lp864
(g101
I13
tp865
atp866
a(S'inequ\xc3\xadvocas'
p867
(dp868
S'ADJ'
p869
F1.0
s(lp870
(g109
I10
tp871
atp872
a(S'y'
p873
(dp874
g264
F0.000656
sS'CONJ'
p875
F0.999344
s(lp876
(g116
I11
tp877
atp878
a(S'convincentes'
p879
(dp880
S'ADJ'
p881
F1.0
s(lp882
(g123
I12
tp883
atp884
a(g12
(dp885
g12
F1.0
s(lp886
(g12
I16
tp887
atp888
as.