(dp0
S'fr'
p1
(lp2
(S'('
p3
(dp4
S'.'
p5
F1.0
s(lp6
(S'president-in-office'
p7
I0
tp8
atp9
a(S'en'
p10
(dp11
S'PRON'
p12
F0.551936
sS'ADP'
p13
F0.448064
s(lp14
(g7
I0
tp15
atp16
a(S')'
p17
(dp18
g5
F1.0
s(lp19
(g7
I0
tp20
atp21
a(S'monsieur'
p22
(dp23
S'NOUN'
p24
F1.0
s(lp25
(g7
I0
tp26
atp27
a(S'le'
p28
(dp29
S'PRON'
p30
F0.000533
sS'DET'
p31
F0.999467
s(lp32
(g7
I0
tp33
atp34
a(S'pr\xc3\xa9sident'
p35
(dp36
S'VERB'
p37
F0.000261
sS'NOUN'
p38
F0.99974
s(lp39
(g7
I0
tp40
atp41
a(S'en'
p42
(dp43
S'PRON'
p44
F0.000406
sS'ADP'
p45
F0.999594
s(lp46
tp47
a(S'exercice'
p48
(dp49
S'NOUN'
p50
F1.0
s(lp51
(g7
I0
tp52
atp53
a(S','
p54
(dp55
g5
F1.0
s(lp56
(g54
I1
tp57
atp58
a(S'puis-je'
p59
(dp60
S'ADV'
p61
F1.0
s(lp62
(S'might'
p63
I3
tp64
atp65
a(S'sugg\xc3\xa9rer'
p66
(dp67
S'VERB'
p68
F1.0
s(lp69
(S'suggest'
p70
I4
tp71
atp72
a(S"qu'"
p73
(dp74
S'NOUN'
p75
F0.099944
sS'VERB'
p76
F0.7910849999999999
sS'ADJ'
p77
F0.108969
s(lp78
(S'that'
p79
I5
tp80
atp81
a(S'une'
p82
(dp83
S'NOUN'
p84
F1.9e-05
sS'NUM'
p85
F0.022001
sS'DET'
p86
F0.97798
s(lp87
(S'a'
p88
I9
tp89
atp90
a(S'liste'
p91
(dp92
S'VERB'
p93
F8.7e-05
sS'NOUN'
p94
F0.999913
s(lp95
tp96
a(S'des'
p97
(dp98
S'DET'
p99
F2.1e-05
sS'ADP'
p100
F0.999979
s(lp101
(S'among'
p102
I12
tp103
atp104
a(S'candidats'
p105
(dp106
S'NOUN'
p107
F1.0
s(lp108
(S'candidates'
p109
I14
tp110
atp111
a(S'potentiels'
p112
(dp113
S'ADJ'
p114
F0.033024
sS'NOUN'
p115
F0.966976
s(lp116
(S'potential'
p117
I13
tp118
atp119
a(S'pourrait'
p120
(dp121
S'VERB'
p122
F1.0
s(lp123
(S'could'
p124
I7
tp125
atp126
a(S'avoir'
p127
(dp128
S'VERB'
p129
F0.998824
sS'NOUN'
p130
F0.001176
s(lp131
(S'be'
p132
I8
tp133
atp134
a(S'\xc3\xa9t\xc3\xa9'
p135
(dp136
S'VERB'
p137
F0.958156
sS'NOUN'
p138
F0.041844
s(lp139
(S'unofficial'
p140
I17
tp141
atp142
a(S'dress\xc3\xa9e'
p143
(dp144
S'VERB'
p145
F0.685158
sS'ADJ'
p146
F0.314842
s(lp147
tp148
a(S'-'
p149
(dp150
g5
F1.0
s(lp151
(g149
I15
tp152
atp153
a(S'une'
p154
(dp155
S'NOUN'
p156
F2.1e-05
sS'NUM'
p157
F0.02201
sS'DET'
p158
F0.977969
s(lp159
(S'an'
p160
I16
tp161
atp162
a(S'liste'
p163
(dp164
S'VERB'
p165
F0.000121
sS'NOUN'
p166
F0.999879
s(lp167
(S'list'
p168
I11
tp169
atp170
a(S'officieuse'
p171
(dp172
S'NOUN'
p173
F0.012194
sS'ADJ'
p174
F0.987806
s(lp175
(g140
I17
tp176
atp177
a(g54
(dp178
g5
F1.0
s(lp179
tp180
a(S'que'
p181
(dp182
S'ADV'
p183
F0.001954
sS'PRON'
p184
F0.40837
sS'CONJ'
p185
F0.589676
s(lp186
(S'which'
p187
I19
tp188
atp189
a(S'nous'
p190
(dp191
S'PRON'
p192
F1.0
s(lp193
(S'we'
p194
I20
tp195
atp196
a(S"n'"
p197
(dp198
S'ADJ'
p199
F0.000625
sS'VERB'
p200
F0.9973000000000002
sS'NOUN'
p201
F0.002077
s(lp202
tp203
a(S'avons'
p204
(dp205
S'VERB'
p206
F1.0
s(lp207
(S'have'
p208
I21
tp209
atp210
a(S'pas'
p211
(dp212
S'ADV'
p213
F0.999264
sS'NOUN'
p214
F0.000736
s(lp215
(S'not'
p216
I22
tp217
atp218
a(S'encore'
p219
(dp220
S'ADV'
p221
F1.0
s(lp222
(S'yet'
p223
I23
tp224
atp225
a(S'vue'
p226
(dp227
S'VERB'
p228
F0.657034
sS'NOUN'
p229
F0.342966
s(lp230
(S'seen'
p231
I24
tp232
atp233
a(g5
(dp234
g5
F1.0
s(lp235
(g5
I25
tp236
atp237
asS'en'
p238
(lp239
(g7
(dp240
S'ADJ'
p241
F0.017912
sS'VERB'
p242
F0.001065
sS'NOUN'
p243
F0.9810240000000001
s(lp244
(g7
I0
tp245
atp246
a(g54
(dp247
g5
F1.0
s(lp248
(g54
I1
tp249
atp250
a(S'i'
p251
(dp252
S'X'
p253
F0.177653
sS'NOUN'
p254
F0.822346
s(lp255
(g251
I2
tp256
atp257
a(g63
(dp258
S'VERB'
p259
F0.999653
sS'NOUN'
p260
F0.000347
s(lp261
(g63
I3
tp262
atp263
a(g70
(dp264
S'VERB'
p265
F1.0
s(lp266
(g70
I4
tp267
atp268
a(g79
(dp269
S'ADV'
p270
F0.000336
sS'DET'
p271
F0.000721
sS'ADP'
p272
F0.998944
s(lp273
(g79
I5
tp274
atp275
a(S'there'
p276
(dp277
S'ADV'
p278
F0.000577
sS'ADJ'
p279
F0.0
sS'DET'
p280
F0.999423
sS'ADP'
p281
F0.0
s(lp282
(g276
I6
tp283
atp284
a(g124
(dp285
S'VERB'
p286
F1.0
s(lp287
(g124
I7
tp288
atp289
a(g132
(dp290
S'VERB'
p291
F1.0
s(lp292
(g132
I8
tp293
atp294
a(g88
(dp295
S'NOUN'
p296
F0.0
sS'DET'
p297
F1.0
s(lp298
(g88
I9
tp299
atp300
a(S'wish'
p301
(dp302
S'VERB'
p303
F0.054278
sS'NOUN'
p304
F0.945722
s(lp305
(g301
I10
tp306
atp307
a(g168
(dp308
S'VERB'
p309
F0.00243
sS'NOUN'
p310
F0.99757
s(lp311
(g168
I11
tp312
atp313
a(g102
(dp314
S'ADP'
p315
F1.0
s(lp316
(g102
I12
tp317
atp318
a(g117
(dp319
S'NOUN'
p320
F0.051475
sS'ADJ'
p321
F0.948525
s(lp322
(g117
I13
tp323
atp324
a(g109
(dp325
S'NOUN'
p326
F1.0
s(lp327
(g109
I14
tp328
atp329
a(g149
(dp330
g5
F1.0
s(lp331
(g149
I15
tp332
atp333
a(g160
(dp334
S'DET'
p335
F1.0
s(lp336
(g160
I16
tp337
atp338
a(g140
(dp339
S'ADJ'
p340
F1.0
s(lp341
(g140
I17
tp342
atp343
a(S'one'
p344
(dp345
S'PRON'
p346
F0.012613
sS'NUM'
p347
F0.980086
sS'NOUN'
p348
F0.007301
s(lp349
(g344
I18
tp350
atp351
a(g187
(dp352
S'DET'
p353
F1.0
s(lp354
(g187
I19
tp355
atp356
a(g194
(dp357
S'PRON'
p358
F1.0
s(lp359
(g194
I20
tp360
atp361
a(g208
(dp362
S'VERB'
p363
F1.0
s(lp364
(g208
I21
tp365
atp366
a(g216
(dp367
S'ADV'
p368
F1.0
s(lp369
(g216
I22
tp370
atp371
a(g223
(dp372
S'ADV'
p373
F0.995798
sS'CONJ'
p374
F0.004129
sS'ADP'
p375
F7.3e-05
s(lp376
(g223
I23
tp377
atp378
a(g231
(dp379
S'VERB'
p380
F0.995587
sS'ADJ'
p381
F0.004413
s(lp382
(g231
I24
tp383
atp384
a(g5
(dp385
g5
F1.0
s(lp386
(g5
I25
tp387
atp388
asS'nl'
p389
(lp390
(g3
(dp391
g5
F1.0
s(lp392
(g7
I0
tp393
atp394
a(S'en'
p395
(dp396
S'CONJ'
p397
F1.0
s(lp398
tp399
a(g17
(dp400
g5
F1.0
s(lp401
tp402
a(S'mijnheer'
p403
(dp404
S'NOUN'
p405
F1.0
s(lp406
(g7
I0
tp407
atp408
a(S'de'
p409
(dp410
S'DET'
p411
F1.0
s(lp412
(g7
I0
tp413
atp414
a(S'fungerend'
p415
(dp416
S'VERB'
p417
F1.0
s(lp418
tp419
a(S'voorzitter'
p420
(dp421
S'NOUN'
p422
F1.0
s(lp423
(g7
I0
tp424
atp425
a(g54
(dp426
g5
F1.0
s(lp427
(g54
I1
tp428
atp429
a(S'ik'
p430
(dp431
S'PRON'
p432
F0.999917
sS'NOUN'
p433
F8.3e-05
s(lp434
(g251
I2
tp435
atp436
a(S'kan'
p437
(dp438
S'VERB'
p439
F1.0
sS'NOUN'
p440
F0.0
s(lp441
(g63
I3
tp442
atp443
a(S'mij'
p444
(dp445
S'PRON'
p446
F1.0
s(lp447
tp448
a(S'voorstellen'
p449
(dp450
S'VERB'
p451
F0.353681
sS'NOUN'
p452
F0.646319
s(lp453
(g70
I4
tp454
atp455
a(S'dat'
p456
(dp457
S'PRON'
p458
F0.232914
sS'CONJ'
p459
F0.767087
s(lp460
(g79
I5
tp461
atp462
a(S'er'
p463
(dp464
S'ADV'
p465
F1.0
s(lp466
(g276
I6
tp467
atp468
a(S'mogelijk'
p469
(dp470
S'ADJ'
p471
F1.0
s(lp472
(g124
I7
tp473
atp474
a(S'een'
p475
(dp476
S'ADJ'
p477
F0.000122
sS'NUM'
p478
F0.0
sS'DET'
p479
F0.999878
sS'PRON'
p480
F0.0
s(lp481
(g88
I9
tp482
atp483
a(S'verlanglijst'
p484
(dp485
S'NOUN'
p486
F1.0
s(lp487
tp488
a(S'van'
p489
(dp490
S'ADP'
p491
F1.0
s(lp492
(g102
I12
tp493
atp494
a(S'mogelijke'
p495
(dp496
S'NOUN'
p497
F9e-06
sS'ADJ'
p498
F0.999991
s(lp499
(g117
I13
tp500
atp501
a(S'kandidaten'
p502
(dp503
S'NOUN'
p504
F1.0
s(lp505
(g109
I14
tp506
atp507
a(S'is'
p508
(dp509
S'VERB'
p510
F1.0
s(lp511
tp512
a(g149
(dp513
g5
F1.0
s(lp514
(g149
I15
tp515
atp516
a(S'een'
p517
(dp518
S'ADJ'
p519
F2e-06
sS'PRON'
p520
F0.002225
sS'NUM'
p521
F1e-06
sS'DET'
p522
F0.997772
s(lp523
(g160
I16
tp524
atp525
a(S'onoffici\xc3\xable'
p526
(dp527
S'NOUN'
p528
F0.021675
sS'ADJ'
p529
F0.978325
s(lp530
(g140
I17
tp531
atp532
a(S'lijst'
p533
(dp534
S'VERB'
p535
F0.000368
sS'NOUN'
p536
F0.999632
s(lp537
(g168
I11
tp538
atp539
a(S'die'
p540
(dp541
S'PRON'
p542
F1.0
s(lp543
(g187
I19
tp544
atp545
a(S'wij'
p546
(dp547
S'PRON'
p548
F1.0
s(lp549
(g194
I20
tp550
atp551
a(S'nog'
p552
(dp553
S'ADV'
p554
F1.0
s(lp555
(g223
I23
tp556
atp557
a(S'niet'
p558
(dp559
S'ADV'
p560
F0.999996
sS'PRON'
p561
F2e-06
sS'VERB'
p562
F2e-06
sg253
F0.0
s(lp563
(g216
I22
tp564
atp565
a(S'hebben'
p566
(dp567
S'VERB'
p568
F0.999999
sS'NOUN'
p569
F1e-06
s(lp570
(g208
I21
tp571
atp572
a(S'gezien'
p573
(dp574
S'VERB'
p575
F0.998352
sS'ADJ'
p576
F3.7e-05
sS'ADP'
p577
F0.001611
s(lp578
(g231
I24
tp579
atp580
a(g5
(dp581
g5
F1.0
s(lp582
(g5
I25
tp583
atp584
asS'de'
p585
(lp586
(g3
(dp587
g5
F1.0
s(lp588
(g7
I0
tp589
atp590
a(S'en'
p591
(dp592
g253
F1.0
s(lp593
(g7
I0
tp594
atp595
a(g17
(dp596
g5
F1.0
s(lp597
(g7
I0
tp598
atp599
a(S'herr'
p600
(dp601
S'ADJ'
p602
F0.19898
sS'NOUN'
p603
F0.770496
s(lp604
(g7
I0
tp605
atp606
a(S'ratspr\xc3\xa4sident'
p607
(dp608
S'VERB'
p609
F0.05857
sS'NOUN'
p610
F0.928761
s(lp611
tp612
a(S'!'
p613
(dp614
g5
F1.0
s(lp615
(g7
I0
tp616
atp617
a(S'ich'
p618
(dp619
S'PRON'
p620
F1.0
s(lp621
tp622
a(S'k\xc3\xb6nnte'
p623
(dp624
S'VERB'
p625
F1.0
s(lp626
(g124
I7
tp627
atp628
a(S'mir'
p629
(dp630
S'PRON'
p631
F1.0
s(lp632
(g251
I2
tp633
atp634
a(S'denken'
p635
(dp636
S'VERB'
p637
F1.0
s(lp638
(g63
I3
tp639
atp640
a(g54
(dp641
g5
F1.0
s(lp642
tp643
a(S'dass'
p644
(dp645
S'CONJ'
p646
F1.0
s(lp647
(g79
I5
tp648
atp649
a(S'es'
p650
(dp651
S'PRON'
p652
F1.0
s(lp653
tp654
a(S'eine'
p655
(dp656
S'PRON'
p657
F0.000927
sS'DET'
p658
F0.998721
s(lp659
(g88
I9
tp660
atp661
a(S'wunschliste'
p662
(dp663
S'NOUN'
p664
F0.330777
sS'ADJ'
p665
F0.629597
s(lp666
(g168
I11
tp667
atp668
a(S'potenzieller'
p669
(dp670
S'ADJ'
p671
F1.0
s(lp672
(g117
I13
tp673
atp674
a(S'kandidaten'
p675
(dp676
S'ADJ'
p677
F0.000164
sS'NOUN'
p678
F0.999808
s(lp679
(g109
I14
tp680
atp681
a(S'gibt'
p682
(dp683
S'VERB'
p684
F1.0
s(lp685
(g276
I6
tp686
atp687
a(g149
(dp688
g5
F1.0
s(lp689
(g149
I15
tp690
atp691
a(S'eine'
p692
(dp693
S'PRON'
p694
F0.000335
sS'DET'
p695
F0.999638
s(lp696
(g160
I16
tp697
atp698
a(S'inoffizielle'
p699
(dp700
S'ADJ'
p701
F1.0
s(lp702
(g140
I17
tp703
atp704
a(g54
(dp705
g5
F1.0
s(lp706
tp707
a(S'die'
p708
(dp709
S'PRON'
p710
F0.999622
sS'DET'
p711
F0.000205
s(lp712
(g187
I19
tp713
atp714
a(S'wir'
p715
(dp716
S'PRON'
p717
F1.0
s(lp718
(g194
I20
tp719
atp720
a(S'noch'
p721
(dp722
S'ADV'
p723
F0.994247
sS'CONJ'
p724
F0.005753
s(lp725
(g223
I23
tp726
atp727
a(S'nicht'
p728
(dp729
S'PRT'
p730
F1.0
s(lp731
(g216
I22
tp732
atp733
a(S'gesehen'
p734
(dp735
S'VERB'
p736
F1.0
s(lp737
(g231
I24
tp738
atp739
a(S'haben'
p740
(dp741
S'VERB'
p742
F0.999979
s(lp743
(g208
I21
tp744
atp745
a(g5
(dp746
g5
F1.0
s(lp747
(g5
I25
tp748
atp749
asS'it'
p750
(lp751
(g3
(dp752
g5
F1.0
s(lp753
(g7
I0
tp754
atp755
a(S'en'
p756
(dp757
S'ADJ'
p758
F0.097599
sS'VERB'
p759
F0.025145
sS'NOUN'
p760
F0.877257
s(lp761
(g7
I0
tp762
atp763
a(g17
(dp764
g5
F1.0
s(lp765
(g7
I0
tp766
atp767
a(S'signor'
p768
(dp769
S'NOUN'
p770
F1.0
s(lp771
(g7
I0
tp772
atp773
a(S'presidente'
p774
(dp775
S'NOUN'
p776
F1.0
s(lp777
(g7
I0
tp778
atp779
a(S'in'
p780
(dp781
S'ADP'
p782
F1.0
s(lp783
(g7
I0
tp784
atp785
a(S'carica'
p786
(dp787
S'ADJ'
p788
F0.120658
sS'VERB'
p789
F0.0060999999999999995
sS'NOUN'
p790
F0.873242
s(lp791
(g7
I0
tp792
atp793
a(S'del'
p794
(dp795
S'DEF'
p796
F0.001359
sS'ADP'
p797
F0.998641
s(lp798
tp799
a(S'consiglio'
p800
(dp801
S'VERB'
p802
F0.000171
sS'NOUN'
p803
F0.999829
s(lp804
(g7
I0
tp805
atp806
a(g54
(dp807
g5
F1.0
s(lp808
(g54
I1
tp809
atp810
a(S'suggerisco'
p811
(dp812
S'VERB'
p813
F1.0
s(lp814
(g70
I4
tp815
atp816
a(S'che'
p817
(dp818
S'PRON'
p819
F0.996982
sS'CONJ'
p820
F0.002982
sS'ADJ'
p821
F3.5e-05
s(lp822
(g79
I5
tp823
atp824
a(S'potrebbe'
p825
(dp826
S'VERB'
p827
F1.0
s(lp828
(g124
I7
tp829
atp830
a(S'esserci'
p831
(dp832
S'VERB'
p833
F1.0
s(lp834
(g132
I8
tp835
atp836
a(S'un'
p837
(dp838
S'PRON'
p839
F0.000815
sS'DEF'
p840
F0.999185
s(lp841
(g88
I9
tp842
atp843
a(S'possibile'
p844
(dp845
S'NOUN'
p846
F0.003603
sS'ADJ'
p847
F0.996397
s(lp848
tp849
a(S'elenco'
p850
(dp851
S'VERB'
p852
F0.00307
sS'NOUN'
p853
F0.99693
s(lp854
tp855
a(S'di'
p856
(dp857
S'CONJ'
p858
F1.5e-05
sS'ADP'
p859
F0.999985
s(lp860
tp861
a(S'potenziali'
p862
(dp863
S'NOUN'
p864
F0.088738
sS'VERB'
p865
F0.000949
sS'ADJ'
p866
F0.910313
s(lp867
(g117
I13
tp868
atp869
a(S'candidati'
p870
(dp871
S'VERB'
p872
F0.038527
sS'NOUN'
p873
F0.961473
s(lp874
(g109
I14
tp875
atp876
a(g54
(dp877
g5
F1.0
s(lp878
(g149
I15
tp879
atp880
a(S'un'
p881
(dp882
S'PRON'
p883
F0.005161
sS'DEF'
p884
F0.994839
s(lp885
(g160
I16
tp886
atp887
a(S'elenco'
p888
(dp889
S'VERB'
p890
F2.8e-05
sS'NOUN'
p891
F0.999972
s(lp892
(g168
I11
tp893
atp894
a(S'ufficioso'
p895
(dp896
S'ADJ'
p897
F1.0
s(lp898
(g140
I17
tp899
atp900
a(S'che'
p901
(dp902
S'PRON'
p903
F0.829113
sS'CONJ'
p904
F0.170472
sS'ADJ'
p905
F0.000414
s(lp906
(g187
I19
tp907
atp908
a(S'non'
p909
(dp910
S'ADV'
p911
F1.0
s(lp912
(g216
I22
tp913
atp914
a(S'abbiamo'
p915
(dp916
S'VERB'
p917
F1.000001
s(lp918
(g194
I20
tp919
atp920
a(S'ancora'
p921
(dp922
S'ADV'
p923
F0.997764
sS'VERB'
p924
F0.002187
sS'NOUN'
p925
F5e-05
s(lp926
(g223
I23
tp927
atp928
a(S'consultato'
p929
(dp930
S'VERB'
p931
F1.0
s(lp932
(g231
I24
tp933
atp934
a(g5
(dp935
g5
F1.0
s(lp936
(g5
I25
tp937
atp938
asS'sk'
p939
(lp940
(S'v\xc3\xa1\xc5\xbeen\xc3\xbd'
p941
(dp942
S'VERB'
p943
F0.141074
sS'ADJ'
p944
F0.858926
s(lp945
(g7
I0
tp946
atp947
a(S'p\xc3\xa1n'
p948
(dp949
S'NOUN'
p950
F1.0
s(lp951
(g7
I0
tp952
atp953
a(S'\xc3\xbaraduj\xc3\xbaci'
p954
(dp955
S'VERB'
p956
F1.0
s(lp957
tp958
a(S'predseda'
p959
(dp960
S'NOUN'
p961
F1.0
s(lp962
(g7
I0
tp963
atp964
a(g54
(dp965
g5
F1.0
s(lp966
(g54
I1
tp967
atp968
a(S'chcela'
p969
(dp970
S'VERB'
p971
F1.0
s(lp972
tp973
a(S'by'
p974
(dp975
S'PRT'
p976
F0.999999
sg253
F1e-06
s(lp977
(g63
I3
tp978
atp979
a(S'som'
p980
(dp981
S'VERB'
p982
F1.0
s(lp983
(g251
I2
tp984
atp985
a(S'upozorni\xc5\xa5'
p986
(dp987
S'VERB'
p988
F1.0
s(lp989
(g70
I4
tp990
atp991
a(g54
(dp992
g5
F1.0
s(lp993
tp994
a(S'\xc5\xbee'
p995
(dp996
g253
F0.000698
sS'CONJ'
p997
F0.999302
s(lp998
(g79
I5
tp999
atp1000
a(S'skuto\xc4\x8dne'
p1001
(dp1002
S'ADV'
p1003
F0.662931
sg253
F0.337069
s(lp1004
(g276
I6
tp1005
atp1006
a(S'm\xc3\xb4\xc5\xbee'
p1007
(dp1008
S'VERB'
p1009
F1.0
s(lp1010
(g124
I7
tp1011
atp1012
a(S'existova\xc5\xa5'
p1013
(dp1014
S'VERB'
p1015
F1.0
s(lp1016
(g132
I8
tp1017
atp1018
a(S'neofici\xc3\xa1lny'
p1019
(dp1020
S'ADJ'
p1021
F1.0
s(lp1022
(g140
I17
tp1023
atp1024
a(S'zoznam'
p1025
(dp1026
S'NOUN'
p1027
F1.0
s(lp1028
(g168
I11
tp1029
atp1030
a(S'potenci\xc3\xa1lnych'
p1031
(dp1032
S'ADJ'
p1033
F1.0
s(lp1034
(g117
I13
tp1035
atp1036
a(S'kandid\xc3\xa1tov'
p1037
(dp1038
S'ADJ'
p1039
F9e-06
sS'NOUN'
p1040
F0.999991
s(lp1041
(g109
I14
tp1042
atp1043
a(g54
(dp1044
g5
F1.0
s(lp1045
(g149
I15
tp1046
atp1047
a(S'ktor\xc3\xbd'
p1048
(dp1049
S'PRON'
p1050
F1.0
s(lp1051
(g187
I19
tp1052
atp1053
a(S'sme'
p1054
(dp1055
g253
F0.00023600000000000002
sS'VERB'
p1056
F0.999763
s(lp1057
(g194
I20
tp1058
atp1059
a(S'e\xc5\xa1te'
p1060
(dp1061
S'ADV'
p1062
F0.405865
sg253
F0.594135
s(lp1063
(g223
I23
tp1064
atp1065
a(S'nevideli'
p1066
(dp1067
S'VERB'
p1068
F1.000001
s(lp1069
(g231
I24
tp1070
atp1071
a(g5
(dp1072
g5
F1.0
s(lp1073
(g5
I25
tp1074
atp1075
asS'pl'
p1076
(lp1077
(S'panie'
p1078
(dp1079
S'NOUN'
p1080
F1.0
s(lp1081
(g7
I0
tp1082
atp1083
a(S'przewodnicz\xc4\x85cy'
p1084
(dp1085
S'VERB'
p1086
F0.000653
sS'NOUN'
p1087
F0.999348
s(lp1088
tp1089
a(g613
(dp1090
g5
F1.0
s(lp1091
(g7
I0
tp1092
atp1093
a(S'o'
p1094
(dp1095
g253
F0.003043
sS'VERB'
p1096
F0.000193
sS'NOUN'
p1097
F6.4e-05
sS'ADP'
p1098
F0.9966090000000001
sS'PRT'
p1099
F9.2e-05
s(lp1100
tp1101
a(S'ile'
p1102
(dp1103
S'ADV'
p1104
F0.008482
sS'NUM'
p1105
F0.991518
s(lp1106
(g140
I17
tp1107
atp1108
a(S'wolno'
p1109
(dp1110
S'ADV'
p1111
F0.014937
sS'ADJ'
p1112
F0.985063
s(lp1113
(g140
I17
tp1114
atp1115
a(S'mi'
p1116
(dp1117
S'PRON'
p1118
F0.999999
sg253
F1e-06
s(lp1119
(g251
I2
tp1120
atp1121
a(S'zasugerowa\xc4\x87'
p1122
(dp1123
S'VERB'
p1124
F0.998617
sS'NOUN'
p1125
F0.001382
s(lp1126
(g70
I4
tp1127
atp1128
a(g54
(dp1129
g253
F1e-06
sg5
F0.999999
s(lp1130
(g79
I5
tp1131
atp1132
a(S'mo\xc5\xbce'
p1133
(dp1134
S'PRT'
p1135
F0.107458
sS'VERB'
p1136
F0.892542
s(lp1137
(g124
I7
tp1138
atp1139
a(S'istnie\xc4\x87'
p1140
(dp1141
S'VERB'
p1142
F1.0
s(lp1143
(g132
I8
tp1144
atp1145
a(S'lista'
p1146
(dp1147
S'NOUN'
p1148
F1.0
s(lp1149
(g168
I11
tp1150
atp1151
a(S'\xc5\xbcycze\xc5\x84'
p1152
(dp1153
S'NOUN'
p1154
F1.0
s(lp1155
(g301
I10
tp1156
atp1157
a(S'mi\xc4\x99dzy'
p1158
(dp1159
S'ADP'
p1160
F1.0
s(lp1161
(g102
I12
tp1162
atp1163
a(S'potencjalnymi'
p1164
(dp1165
S'ADV'
p1166
F1.5e-05
sS'NOUN'
p1167
F0.0006100000000000001
sS'VERB'
p1168
F0.002931
sS'ADJ'
p1169
F0.996439
s(lp1170
(g117
I13
tp1171
atp1172
a(S'kandydatami'
p1173
(dp1174
S'NOUN'
p1175
F1.0
s(lp1176
(g109
I14
tp1177
atp1178
a(g54
(dp1179
g253
F0.0
sg5
F1.0
s(lp1180
(g149
I15
tp1181
atp1182
a(S'kt\xc3\xb3ra'
p1183
(dp1184
S'ADJ'
p1185
F1.0
s(lp1186
(g160
I16
tp1187
atp1188
a(S'jest'
p1189
(dp1190
S'VERB'
p1191
F1.0
s(lp1192
tp1193
a(S'nieoficjalna'
p1194
(dp1195
S'ADV'
p1196
F0.000883
sS'NOUN'
p1197
F0.000203
sS'ADJ'
p1198
F0.998914
s(lp1199
(g140
I17
tp1200
atp1201
a(g251
(dp1202
S'PRT'
p1203
F0.009643
sS'CONJ'
p1204
F0.989373
sS'PRON'
p1205
F7e-06
sS'NOUN'
p1206
F0.000967
sg253
F1e-05
s(lp1207
(g187
I19
tp1208
atp1209
a(S'jeszcze'
p1210
(dp1211
S'PRT'
p1212
F0.997075
sS'CONJ'
p1213
F0.002925
s(lp1214
(g208
I21
tp1215
atp1216
a(S'nie'
p1217
(dp1218
S'ADV'
p1219
F3.4e-05
sS'PRT'
p1220
F0.996151
sS'CONJ'
p1221
F0.003806
sS'NOUN'
p1222
F4e-06
sS'PRON'
p1223
F4.9999999999999996e-06
s(lp1224
(g216
I22
tp1225
atp1226
a(S'zosta\xc5\x82a'
p1227
(dp1228
S'VERB'
p1229
F1.0
s(lp1230
(g223
I23
tp1231
atp1232
a(S'podana'
p1233
(dp1234
S'VERB'
p1235
F1.0
s(lp1236
(g140
I17
tp1237
atp1238
a(S'do'
p1239
(dp1240
g253
F0.0
sS'NOUN'
p1241
F1.3e-05
sS'ADP'
p1242
F0.9999870000000001
s(lp1243
(g160
I16
tp1244
atp1245
a(S'publicznej'
p1246
(dp1247
S'ADJ'
p1248
F1.0
s(lp1249
tp1250
a(S'wiadomo\xc5\x9bci'
p1251
(dp1252
S'NOUN'
p1253
F1.0
s(lp1254
(g140
I17
tp1255
atp1256
a(g5
(dp1257
g5
F1.0
s(lp1258
(g5
I25
tp1259
atp1260
asS'sl'
p1261
(lp1262
(S'predsedujo\xc4\x8di'
p1263
(dp1264
S'ADJ'
p1265
F1.0
s(lp1266
tp1267
a(S'svetu'
p1268
(dp1269
S'NOUN'
p1270
F1.0
s(lp1271
(g7
I0
tp1272
atp1273
a(g54
(dp1274
g5
F1.0
s(lp1275
(g54
I1
tp1276
atp1277
a(S'lahko'
p1278
(dp1279
S'ADV'
p1280
F0.999959
sS'ADJ'
p1281
F4e-05
s(lp1282
(g63
I3
tp1283
atp1284
a(S'priporo\xc4\x8dam'
p1285
(dp1286
S'VERB'
p1287
F1.0
s(lp1288
(g70
I4
tp1289
atp1290
a(S'seznam'
p1291
(dp1292
S'NOUN'
p1293
F1.0
s(lp1294
(g168
I11
tp1295
atp1296
a(S'morebitnih'
p1297
(dp1298
S'ADJ'
p1299
F0.9999990000000001
s(lp1300
(g117
I13
tp1301
atp1302
a(S'kandidatov'
p1303
(dp1304
S'NOUN'
p1305
F1.0
s(lp1306
(g109
I14
tp1307
atp1308
a(g149
(dp1309
g5
F1.0
s(lp1310
(g149
I15
tp1311
atp1312
a(S'neuraden'
p1313
(dp1314
S'ADV'
p1315
F0.007251
sS'NOUN'
p1316
F0.018742
sS'ADJ'
p1317
F0.9740049999999999
s(lp1318
(g140
I17
tp1319
atp1320
a(g54
(dp1321
g5
F1.0
s(lp1322
tp1323
a(S'ki'
p1324
(dp1325
S'CONJ'
p1326
F1.0
s(lp1327
(g187
I19
tp1328
atp1329
a(S'ga'
p1330
(dp1331
S'PRON'
p1332
F1.0
s(lp1333
(g208
I21
tp1334
atp1335
a(S'\xc5\xa1e'
p1336
(dp1337
S'PRT'
p1338
F1.0
s(lp1339
(g223
I23
tp1340
atp1341
a(S'nismo'
p1342
(dp1343
S'VERB'
p1344
F1.0
s(lp1345
(g216
I22
tp1346
atp1347
a(S'videli'
p1348
(dp1349
S'VERB'
p1350
F1.0
s(lp1351
(g231
I24
tp1352
atp1353
a(g5
(dp1354
g5
F1.0
s(lp1355
(g5
I25
tp1356
atp1357
asS'es'
p1358
(lp1359
(S'presidente'
p1360
(dp1361
S'NOUN'
p1362
F1.0
s(lp1363
(g7
I0
tp1364
atp1365
a(S'en'
p1366
(dp1367
g253
F1.8e-05
sS'CONJ'
p1368
F1e-05
sS'ADP'
p1369
F0.999972
s(lp1370
tp1371
a(S'ejercicio'
p1372
(dp1373
S'NOUN'
p1374
F1.0
s(lp1375
(g7
I0
tp1376
atp1377
a(g54
(dp1378
g5
F1.0
s(lp1379
(g54
I1
tp1380
atp1381
a(S'perm\xc3\xadtame'
p1382
(dp1383
S'VERB'
p1384
F1.0
s(lp1385
(g251
I2
tp1386
atp1387
a(S'sugerir'
p1388
(dp1389
S'VERB'
p1390
F1.0
s(lp1391
(g70
I4
tp1392
atp1393
a(S'la'
p1394
(dp1395
S'PRON'
p1396
F4e-06
sS'DET'
p1397
F0.999995
sS'NOUN'
p1398
F0.0
sg253
F1e-06
s(lp1399
(g160
I16
tp1400
atp1401
a(S'posibilidad'
p1402
(dp1403
S'NOUN'
p1404
F1.0
s(lp1405
(g63
I3
tp1406
atp1407
a(S'de'
p1408
(dp1409
g253
F0.0
sS'CONJ'
p1410
F0.00561
sS'ADP'
p1411
F0.99439
s(lp1412
tp1413
a(S'que'
p1414
(dp1415
g253
F0.0
sS'CONJ'
p1416
F1.0
s(lp1417
(g79
I5
tp1418
atp1419
a(S'pudiera'
p1420
(dp1421
S'VERB'
p1422
F1.0
s(lp1423
(g124
I7
tp1424
atp1425
a(S'existir'
p1426
(dp1427
S'VERB'
p1428
F1.0
s(lp1429
(g132
I8
tp1430
atp1431
a(S'una'
p1432
(dp1433
S'DET'
p1434
F1.0
s(lp1435
(g88
I9
tp1436
atp1437
a(S'lista'
p1438
(dp1439
S'ADJ'
p1440
F0.00194
sS'NOUN'
p1441
F0.99806
s(lp1442
tp1443
a(S'de'
p1444
(dp1445
g253
F2.9e-05
sS'CONJ'
p1446
F0.000451
sS'ADP'
p1447
F0.99952
s(lp1448
tp1449
a(S'pretensiones'
p1450
(dp1451
S'NOUN'
p1452
F1.0
s(lp1453
(g140
I17
tp1454
atp1455
a(S'entre'
p1456
(dp1457
g253
F3e-06
sS'ADP'
p1458
F0.999997
s(lp1459
(g102
I12
tp1460
atp1461
a(S'los'
p1462
(dp1463
S'PRON'
p1464
F0.0
sS'DET'
p1465
F1.0
s(lp1466
tp1467
a(S'candidatos'
p1468
(dp1469
S'NOUN'
p1470
F1.0
s(lp1471
(g109
I14
tp1472
atp1473
a(S'potenciales'
p1474
(dp1475
S'NOUN'
p1476
F0.000915
sS'ADJ'
p1477
F0.999085
s(lp1478
(g117
I13
tp1479
atp1480
a(S'-una'
p1481
(dp1482
S'ADJ'
p1483
F0.080244
sS'VERB'
p1484
F0.531078
sS'NOUN'
p1485
F0.388678
s(lp1486
(g149
I15
tp1487
atp1488
a(S'lista'
p1489
(dp1490
S'ADJ'
p1491
F0.182211
sS'NOUN'
p1492
F0.817789
s(lp1493
(g168
I11
tp1494
atp1495
a(S'no'
p1496
(dp1497
S'ADV'
p1498
F0.999759
sg253
F0.000241
s(lp1499
tp1500
a(S'oficial'
p1501
(dp1502
S'ADJ'
p1503
F1.0
s(lp1504
(g140
I17
tp1505
atp1506
a(S'que'
p1507
(dp1508
g253
F0.0
sS'CONJ'
p1509
F1.0
s(lp1510
(g187
I19
tp1511
atp1512
a(S'no'
p1513
(dp1514
S'ADV'
p1515
F1.0
sg253
F0.0
s(lp1516
(g216
I22
tp1517
atp1518
a(S'hemos'
p1519
(dp1520
S'VERB'
p1521
F1.0
s(lp1522
(g208
I21
tp1523
atp1524
a(S'visto'
p1525
(dp1526
S'VERB'
p1527
F1.0
s(lp1528
(g231
I24
tp1529
atp1530
a(S'todav\xc3\xada-'
p1531
(dp1532
S'ADV'
p1533
F0.223176
sS'NOUN'
p1534
F0.776824
s(lp1535
(g223
I23
tp1536
atp1537
a(g5
(dp1538
g5
F1.0
s(lp1539
(g5
I25
tp1540
atp1541
as.