(dp0
S'fr'
p1
(lp2
(S'la'
p3
(dp4
S'PRON'
p5
F8.2e-05
sS'DET'
p6
F0.999918
sS'NOUN'
p7
F0.0
s(lp8
(S'the'
p9
I0
tp10
atp11
a(S'commission'
p12
(dp13
S'NOUN'
p14
F1.0
s(lp15
(S'commission'
p16
I1
tp17
atp18
a(S'intensifiera'
p19
(dp20
S'VERB'
p21
F1.0
s(lp22
(S'intensify'
p23
I3
tp24
atp25
a(S'ses'
p26
(dp27
S'PRON'
p28
F1.0
s(lp29
(S'its'
p30
I4
tp31
atp32
a(S'efforts'
p33
(dp34
S'NOUN'
p35
F1.0
s(lp36
(S'efforts'
p37
I5
tp38
atp39
a(S'dans'
p40
(dp41
S'NOUN'
p42
F6e-06
sS'ADP'
p43
F0.999994
s(lp44
(S'in'
p45
I6
tp46
atp47
a(S'la'
p48
(dp49
S'PRON'
p50
F1.2e-05
sS'DET'
p51
F0.999988
sS'NOUN'
p52
F0.0
s(lp53
(S'the'
p54
I7
tp55
atp56
a(S'direction'
p57
(dp58
S'NOUN'
p59
F1.0
s(lp60
(S'direction'
p61
I8
tp62
atp63
a(S"d'"
p64
(dp65
S'NOUN'
p66
F0.032441
sS'VERB'
p67
F0.694014
sS'ADJ'
p68
F0.273544
s(lp69
(S'of'
p70
I9
tp71
atp72
a(S'une'
p73
(dp74
S'NOUN'
p75
F1.5e-05
sS'NUM'
p76
F0.021976
sS'DET'
p77
F0.978009
s(lp78
(S'adequate'
p79
I10
tp80
atp81
a(S'd\xc3\xa9finition'
p82
(dp83
S'NOUN'
p84
F1.0
s(lp85
(S'definition'
p86
I11
tp87
atp88
a(S'ad\xc3\xa9quate'
p89
(dp90
S'ADJ'
p91
F1.0
s(lp92
tp93
a(S'des'
p94
(dp95
S'DET'
p96
F2.2e-05
sS'ADP'
p97
F0.999978
s(lp98
(S'of'
p99
I12
tp100
atp101
a(S'indices'
p102
(dp103
S'VERB'
p104
F0.0
sS'NOUN'
p105
F1.0
s(lp106
(S'indices'
p107
I14
tp108
atp109
a(S'de'
p110
(dp111
S'ADP'
p112
F1.0
s(lp113
tp114
a(S'sant\xc3\xa9'
p115
(dp116
S'NOUN'
p117
F1.0
s(lp118
(S'health'
p119
I13
tp120
atp121
a(S'et'
p122
(dp123
S'CONJ'
p124
F1.0
s(lp125
(S'and'
p126
I15
tp127
atp128
a(S'des'
p129
(dp130
S'DET'
p131
F0.000915
sS'ADP'
p132
F0.999085
s(lp133
(g79
I10
tp134
atp135
a(S'autres'
p136
(dp137
S'ADJ'
p138
F1.0
s(lp139
(S'other'
p140
I16
tp141
atp142
a(S'mesures'
p143
(dp144
S'VERB'
p145
F0.015965
sS'NOUN'
p146
F0.984035
s(lp147
(S'measures'
p148
I18
tp149
atp150
a(S'statistiques'
p151
(dp152
S'NOUN'
p153
F0.022906
sS'VERB'
p154
F0.000986
sS'ADJ'
p155
F0.976108
s(lp156
(S'statistical'
p157
I17
tp158
atp159
a(S','
p160
(dp161
S'.'
p162
F1.0
s(lp163
(g160
I19
tp164
atp165
a(S'afin'
p166
(dp167
S'CONJ'
p168
F1.0
s(lp169
tp170
a(S'de'
p171
(dp172
S'ADP'
p173
F1.0
s(lp174
(S'to'
p175
I20
tp176
atp177
a(S'garantir'
p178
(dp179
S'VERB'
p180
F1.0
s(lp181
(S'ensure'
p182
I21
tp183
atp184
a(S'un'
p185
(dp186
S'NOUN'
p187
F0.000505
sS'NUM'
p188
F0.00798
sS'DET'
p189
F0.991514
s(lp190
tp191
a(S'suivi'
p192
(dp193
S'ADJ'
p194
F0.049371
sS'VERB'
p195
F0.002997
sS'NOUN'
p196
F0.947633
s(lp197
(S'monitored'
p198
I28
tp199
atp200
a(S'appropri\xc3\xa9'
p201
(dp202
S'VERB'
p203
F0.722264
sS'ADJ'
p204
F0.277736
s(lp205
(S'properly'
p206
I27
tp207
atp208
a(S'des'
p209
(dp210
S'DET'
p211
F3.1e-05
sS'ADP'
p212
F0.999969
s(lp213
(S'occupational'
p214
I23
tp215
atp216
a(S'risques'
p217
(dp218
S'VERB'
p219
F0.0
sS'NOUN'
p220
F1.0
s(lp221
(S'hazards'
p222
I25
tp223
atp224
a(S'sanitaires'
p225
(dp226
S'NOUN'
p227
F0.018164
sS'ADJ'
p228
F0.981836
s(lp229
(S'health'
p230
I24
tp231
atp232
a(S'au'
p233
(dp234
S'ADP'
p235
F1.0
s(lp236
tp237
a(S'travail'
p238
(dp239
S'NOUN'
p240
F1.0
s(lp241
(g214
I23
tp242
atp243
a(g162
(dp244
g162
F1.0
s(lp245
(g162
I29
tp246
atp247
asS'en'
p248
(lp249
(g9
(dp250
S'NOUN'
p251
F5e-06
sS'DET'
p252
F0.999995
s(lp253
(g9
I0
tp254
atp255
a(g16
(dp256
S'VERB'
p257
F4e-06
sS'NOUN'
p258
F0.999997
s(lp259
(g16
I1
tp260
atp261
a(S'will'
p262
(dp263
S'VERB'
p264
F0.999986
sS'NOUN'
p265
F1.4e-05
s(lp266
(g262
I2
tp267
atp268
a(g23
(dp269
S'VERB'
p270
F1.0
s(lp271
(g23
I3
tp272
atp273
a(g30
(dp274
S'PRON'
p275
F1.0
s(lp276
(g30
I4
tp277
atp278
a(g37
(dp279
S'NOUN'
p280
F1.0
s(lp281
(g37
I5
tp282
atp283
a(g45
(dp284
S'ADV'
p285
F0.000295
sS'PRT'
p286
F0.000234
sS'ADP'
p287
F0.999471
s(lp288
(g45
I6
tp289
atp290
a(g54
(dp291
S'NOUN'
p292
F1e-06
sS'DET'
p293
F0.999999
s(lp294
(g54
I7
tp295
atp296
a(g61
(dp297
S'NOUN'
p298
F1.0
s(lp299
(g61
I8
tp300
atp301
a(g70
(dp302
S'ADP'
p303
F1.0
s(lp304
(g70
I9
tp305
atp306
a(g79
(dp307
S'ADJ'
p308
F1.0
s(lp309
(g79
I10
tp310
atp311
a(g86
(dp312
S'NOUN'
p313
F1.0
s(lp314
(g86
I11
tp315
atp316
a(g99
(dp317
S'ADP'
p318
F1.0
s(lp319
(g99
I12
tp320
atp321
a(g119
(dp322
S'NOUN'
p323
F1.0
s(lp324
(g119
I13
tp325
atp326
a(g107
(dp327
S'NOUN'
p328
F1.0
s(lp329
(g107
I14
tp330
atp331
a(g126
(dp332
S'CONJ'
p333
F1.0
sS'NOUN'
p334
F0.0
s(lp335
(g126
I15
tp336
atp337
a(g140
(dp338
S'ADV'
p339
F0.000101
sS'NOUN'
p340
F2e-06
sS'ADJ'
p341
F0.999897
s(lp342
(g140
I16
tp343
atp344
a(g157
(dp345
S'ADJ'
p346
F1.0
s(lp347
(g157
I17
tp348
atp349
a(g148
(dp350
S'VERB'
p351
F0.000247
sS'NOUN'
p352
F0.999753
s(lp353
(g148
I18
tp354
atp355
a(g160
(dp356
g162
F1.0
s(lp357
(g160
I19
tp358
atp359
a(g175
(dp360
S'ADV'
p361
F1e-06
sS'PRT'
p362
F0.999999
sS'ADP'
p363
F0.0
s(lp364
(g175
I20
tp365
atp366
a(g182
(dp367
S'VERB'
p368
F1.0
s(lp369
(g182
I21
tp370
atp371
a(S'that'
p372
(dp373
S'ADV'
p374
F0.001339
sS'DET'
p375
F0.422436
sS'ADP'
p376
F0.576225
s(lp377
(g372
I22
tp378
atp379
a(g214
(dp380
S'ADJ'
p381
F1.0
s(lp382
(g214
I23
tp383
atp384
a(g230
(dp385
S'NOUN'
p386
F1.0
s(lp387
(g230
I24
tp388
atp389
a(g222
(dp390
S'VERB'
p391
F1e-06
sS'NOUN'
p392
F0.999999
s(lp393
(g222
I25
tp394
atp395
a(S'are'
p396
(dp397
S'VERB'
p398
F1.0
sS'NOUN'
p399
F0.0
s(lp400
(g396
I26
tp401
atp402
a(g206
(dp403
S'ADV'
p404
F1.0
s(lp405
(g206
I27
tp406
atp407
a(g198
(dp408
S'VERB'
p409
F0.93946
sS'ADJ'
p410
F0.06054
s(lp411
(g198
I28
tp412
atp413
a(g162
(dp414
g162
F1.0
s(lp415
(g162
I29
tp416
atp417
asS'nl'
p418
(lp419
(S'de'
p420
(dp421
S'DET'
p422
F1.0
s(lp423
(g9
I0
tp424
atp425
a(S'commissie'
p426
(dp427
S'NOUN'
p428
F1.0
s(lp429
(g16
I1
tp430
atp431
a(S'zal'
p432
(dp433
S'VERB'
p434
F1.0
s(lp435
(g262
I2
tp436
atp437
a(S'haar'
p438
(dp439
S'ADV'
p440
F6.7e-05
sS'PRON'
p441
F0.999933
sS'NOUN'
p442
F0.0
s(lp443
(g30
I4
tp444
atp445
a(S'inspanningen'
p446
(dp447
S'NOUN'
p448
F1.0
s(lp449
tp450
a(S'ten'
p451
(dp452
S'ADP'
p453
F1.0
s(lp454
(g54
I7
tp455
atp456
a(S'behoeve'
p457
(dp458
S'NOUN'
p459
F1.0
s(lp460
(g37
I5
tp461
atp462
a(S'van'
p463
(dp464
S'ADP'
p465
F1.0
s(lp466
(g70
I9
tp467
atp468
a(S'een'
p469
(dp470
S'ADJ'
p471
F1e-06
sS'PRON'
p472
F0.00052
sS'NUM'
p473
F1e-06
sS'DET'
p474
F0.999479
s(lp475
tp476
a(S'adequate'
p477
(dp478
S'NOUN'
p479
F0.006174
sS'ADJ'
p480
F0.993826
s(lp481
(g79
I10
tp482
atp483
a(S'definitie'
p484
(dp485
S'NOUN'
p486
F1.0
s(lp487
(g86
I11
tp488
atp489
a(S'van'
p490
(dp491
S'ADP'
p492
F1.0
s(lp493
(g99
I12
tp494
atp495
a(S'gezondheidsindices'
p496
(dp497
S'NOUN'
p498
F1.0
s(lp499
(g107
I14
tp500
atp501
a(S'en'
p502
(dp503
S'CONJ'
p504
F1.0
s(lp505
(g126
I15
tp506
atp507
a(S'andere'
p508
(dp509
S'NOUN'
p510
F0.011169
sS'ADJ'
p511
F0.988831
s(lp512
(g140
I16
tp513
atp514
a(S'statistische'
p515
(dp516
S'NOUN'
p517
F1.1e-05
sS'ADJ'
p518
F0.999989
s(lp519
(g157
I17
tp520
atp521
a(S'maatregelen'
p522
(dp523
S'NOUN'
p524
F1.0
s(lp525
(g148
I18
tp526
atp527
a(S'versterken'
p528
(dp529
S'VERB'
p530
F0.997495
sS'NOUN'
p531
F0.002505
s(lp532
(g23
I3
tp533
atp534
a(S'om'
p535
(dp536
S'ADV'
p537
F0.0004
sS'CONJ'
p538
F0.999533
sS'ADP'
p539
F6.7e-05
s(lp540
tp541
a(S'ervoor'
p542
(dp543
S'ADV'
p544
F1.0
s(lp545
tp546
a(S'te'
p547
(dp548
S'PRT'
p549
F1.0
s(lp550
(g175
I20
tp551
atp552
a(S'zorgen'
p553
(dp554
S'VERB'
p555
F0.998344
sS'NOUN'
p556
F0.001656
s(lp557
(g182
I21
tp558
atp559
a(S'dat'
p560
(dp561
S'PRON'
p562
F0.012981
sS'CONJ'
p563
F0.98702
s(lp564
(g372
I22
tp565
atp566
a(S'er'
p567
(dp568
S'ADV'
p569
F1.0
s(lp570
(g396
I26
tp571
atp572
a(S'een'
p573
(dp574
S'ADJ'
p575
F1e-06
sS'PRON'
p576
F0.000167
sS'NUM'
p577
F0.0
sS'DET'
p578
F0.999833
s(lp579
tp580
a(S'afdoende'
p581
(dp582
S'NOUN'
p583
F5.9e-05
sS'VERB'
p584
F0.0107
sS'ADJ'
p585
F0.989241
s(lp586
(g206
I27
tp587
atp588
a(S'controle'
p589
(dp590
S'NOUN'
p591
F1.0
s(lp592
(g198
I28
tp593
atp594
a(S'plaatsvindt'
p595
(dp596
S'VERB'
p597
F1.0
s(lp598
tp599
a(S'op'
p600
(dp601
S'ADV'
p602
F0.029162
sS'ADJ'
p603
F1.7e-05
sS'ADP'
p604
F0.970821
s(lp605
(g214
I23
tp606
atp607
a(S'gezondheidsrisico'
p608
(dp609
S'ADJ'
p610
F0.030449
sS'NOUN'
p611
F0.96955
s(lp612
(g230
I24
tp613
atp614
a(S"'"
p615
(dp616
g162
F1.0
s(lp617
(g222
I25
tp618
atp619
a(S's'
p620
(dp621
S'NOUN'
p622
F1.0
s(lp623
tp624
a(S'op'
p625
(dp626
S'ADV'
p627
F0.003384
sS'ADJ'
p628
F0.0
sS'ADP'
p629
F0.996616
s(lp630
(g198
I28
tp631
atp632
a(S'de'
p633
(dp634
S'DET'
p635
F1.0
s(lp636
tp637
a(S'werkplek'
p638
(dp639
S'NOUN'
p640
F1.0
s(lp641
(g222
I25
tp642
atp643
a(g162
(dp644
g162
F1.0
s(lp645
(g162
I29
tp646
atp647
asS'de'
p648
(lp649
(S'die'
p650
(dp651
S'PRON'
p652
F0.007474
sS'DET'
p653
F0.990644
s(lp654
(g9
I0
tp655
atp656
a(S'kommission'
p657
(dp658
S'ADJ'
p659
F0.054583
sS'NOUN'
p660
F0.917408
s(lp661
(g16
I1
tp662
atp663
a(S'wird'
p664
(dp665
S'VERB'
p666
F1.0
s(lp667
(g262
I2
tp668
atp669
a(S'ihre'
p670
(dp671
S'PRON'
p672
F1.0
s(lp673
(g30
I4
tp674
atp675
a(S'bem\xc3\xbchungen'
p676
(dp677
S'ADJ'
p678
F7.6e-05
sS'NOUN'
p679
F0.999872
s(lp680
(g37
I5
tp681
atp682
a(S'um'
p683
(dp684
S'PRT'
p685
F0.000563
sS'ADP'
p686
F0.999302
s(lp687
(g45
I6
tp688
atp689
a(S'eine'
p690
(dp691
S'PRON'
p692
F0.001197
sS'DET'
p693
F0.998738
s(lp694
(g54
I7
tp695
atp696
a(S'angemessene'
p697
(dp698
S'ADJ'
p699
F1.0
s(lp700
(g79
I10
tp701
atp702
a(S'definition'
p703
(dp704
S'VERB'
p705
F1.8e-05
sS'NOUN'
p706
F0.999955
s(lp707
(g86
I11
tp708
atp709
a(S'von'
p710
(dp711
S'NOUN'
p712
F0.000558
sS'ADP'
p713
F0.999442
s(lp714
(g99
I12
tp715
atp716
a(S'gesundheitsindizes'
p717
(dp718
S'ADJ'
p719
F0.002554
sS'NOUN'
p720
F0.996953
s(lp721
tp722
a(S'sowie'
p723
(dp724
S'CONJ'
p725
F1.0
s(lp726
(g126
I15
tp727
atp728
a(S'andere'
p729
(dp730
S'PRON'
p731
F1.0
s(lp732
(g140
I16
tp733
atp734
a(S'statistische'
p735
(dp736
S'ADJ'
p737
F1.0
s(lp738
(g157
I17
tp739
atp740
a(S'parameter'
p741
(dp742
S'ADJ'
p743
F0.002599
sS'NOUN'
p744
F0.995173
s(lp745
(g107
I14
tp746
atp747
a(S'intensivieren'
p748
(dp749
S'VERB'
p750
F1.0
s(lp751
(g23
I3
tp752
atp753
a(g160
(dp754
g162
F1.0
s(lp755
(g160
I19
tp756
atp757
a(S'damit'
p758
(dp759
S'ADV'
p760
F0.601261
sS'CONJ'
p761
F0.398739
s(lp762
(g182
I21
tp763
atp764
a(S'gesundheitliche'
p765
(dp766
S'ADJ'
p767
F1.0
s(lp768
(g230
I24
tp769
atp770
a(S'risiken'
p771
(dp772
S'X'
p773
F0.002926
sS'NOUN'
p774
F0.993481
s(lp775
(g222
I25
tp776
atp777
a(S'am'
p778
(dp779
S'PRT'
p780
F0.067925
sS'ADP'
p781
F0.932075
s(lp782
tp783
a(S'arbeitsplatz'
p784
(dp785
S'ADJ'
p786
F0.081712
sS'NOUN'
p787
F0.896581
s(lp788
(g214
I23
tp789
atp790
a(S'ordnungsgem\xc3\xa4\xc3\x9f'
p791
(dp792
S'ADJ'
p793
F1.0
s(lp794
(g206
I27
tp795
atp796
a(S'\xc3\xbcberwacht'
p797
(dp798
S'VERB'
p799
F0.978143
sS'ADJ'
p800
F0.021856
s(lp801
(g198
I28
tp802
atp803
a(S'werden'
p804
(dp805
S'VERB'
p806
F0.99992
s(lp807
(g396
I26
tp808
atp809
a(S'k\xc3\xb6nnen'
p810
(dp811
S'VERB'
p812
F0.999731
s(lp813
tp814
a(g162
(dp815
g162
F1.0
s(lp816
(g162
I29
tp817
atp818
asS'it'
p819
(lp820
(S'la'
p821
(dp822
S'PRON'
p823
F0.000408
sS'DET'
p824
F0.999592
s(lp825
(g9
I0
tp826
atp827
a(S'commissione'
p828
(dp829
S'NOUN'
p830
F1.0
s(lp831
(g16
I1
tp832
atp833
a(S'intensificher\xc3\xa0'
p834
(dp835
S'VERB'
p836
F1.0
s(lp837
(g23
I3
tp838
atp839
a(S'i'
p840
(dp841
S'DET'
p842
F1.0
s(lp843
tp844
a(S'suoi'
p845
(dp846
S'PRON'
p847
F0.999997
sS'VERB'
p848
F3e-06
s(lp849
(g30
I4
tp850
atp851
a(S'sforzi'
p852
(dp853
S'VERB'
p854
F0.0001
sS'NOUN'
p855
F0.999899
s(lp856
(g37
I5
tp857
atp858
a(S'nella'
p859
(dp860
S'ADP'
p861
F1.0
s(lp862
(g45
I6
tp863
atp864
a(S'direzione'
p865
(dp866
S'NOUN'
p867
F1.0
s(lp868
(g61
I8
tp869
atp870
a(S'di'
p871
(dp872
S'CONJ'
p873
F1.7e-05
sS'ADP'
p874
F0.999983
s(lp875
(g70
I9
tp876
atp877
a(S"un'"
p878
(dp879
S'PRON'
p880
F0.00969
sS'DEF'
p881
F0.99031
s(lp882
tp883
a(S'appropriata'
p884
(dp885
S'VERB'
p886
F0.878758
sS'ADJ'
p887
F0.121242
s(lp888
(g79
I10
tp889
atp890
a(S'definizione'
p891
(dp892
S'NOUN'
p893
F1.0
s(lp894
(g86
I11
tp895
atp896
a(S'degli'
p897
(dp898
S'DEF'
p899
F0.001895
sS'ADP'
p900
F0.998105
s(lp901
(g99
I12
tp902
atp903
a(S'indici'
p904
(dp905
S'ADJ'
p906
F0.046505
sS'VERB'
p907
F0.00042300000000000004
sS'NOUN'
p908
F0.953071
s(lp909
(g107
I14
tp910
atp911
a(S'di'
p912
(dp913
S'CONJ'
p914
F4e-06
sS'ADP'
p915
F0.999996
s(lp916
tp917
a(S'salute'
p918
(dp919
g773
F5e-06
sS'NOUN'
p920
F0.999995
s(lp921
(g119
I13
tp922
atp923
a(S'e'
p924
(dp925
S'CONJ'
p926
F1.0
s(lp927
(g126
I15
tp928
atp929
a(S'altre'
p930
(dp931
S'PRON'
p932
F0.868826
sS'ADJ'
p933
F0.131174
s(lp934
(g140
I16
tp935
atp936
a(S'misure'
p937
(dp938
S'NOUN'
p939
F1.0
s(lp940
(g148
I18
tp941
atp942
a(S'statistiche'
p943
(dp944
S'NOUN'
p945
F0.176117
sS'ADJ'
p946
F0.823883
s(lp947
(g157
I17
tp948
atp949
a(g160
(dp950
g162
F1.0
s(lp951
(g160
I19
tp952
atp953
a(S'al'
p954
(dp955
S'ADP'
p956
F1.0
s(lp957
(g175
I20
tp958
atp959
a(S'fine'
p960
(dp961
S'ADJ'
p962
F0.01644
sS'NOUN'
p963
F0.98356
s(lp964
tp965
a(S'di'
p966
(dp967
S'CONJ'
p968
F6e-06
sS'ADP'
p969
F0.999994
s(lp970
tp971
a(S'garantire'
p972
(dp973
S'VERB'
p974
F1.0
s(lp975
(g182
I21
tp976
atp977
a(S'che'
p978
(dp979
S'PRON'
p980
F0.993753
sS'CONJ'
p981
F0.006048
sS'ADJ'
p982
F0.000199
s(lp983
(g372
I22
tp984
atp985
a(g840
(dp986
S'DET'
p987
F1.0
s(lp988
(g222
I25
tp989
atp990
a(S'rischi'
p991
(dp992
S'VERB'
p993
F0.000679
sS'NOUN'
p994
F0.999321
s(lp995
tp996
a(S'per'
p997
(dp998
S'CONJ'
p999
F0.052933
sS'ADP'
p1000
F0.947067
s(lp1001
(g222
I25
tp1002
atp1003
a(S'la'
p1004
(dp1005
S'PRON'
p1006
F0.000212
sS'DET'
p1007
F0.999788
s(lp1008
tp1009
a(S'salute'
p1010
(dp1011
g773
F5e-06
sS'NOUN'
p1012
F0.999995
s(lp1013
(g230
I24
tp1014
atp1015
a(S'sul'
p1016
(dp1017
S'ADP'
p1018
F1.0
s(lp1019
(g214
I23
tp1020
atp1021
a(S'luogo'
p1022
(dp1023
S'NOUN'
p1024
F1.0
s(lp1025
tp1026
a(S'di'
p1027
(dp1028
S'CONJ'
p1029
F4e-06
sS'ADP'
p1030
F0.999996
s(lp1031
tp1032
a(S'lavoro'
p1033
(dp1034
S'VERB'
p1035
F1.2e-05
sS'NOUN'
p1036
F0.999988
s(lp1037
(g214
I23
tp1038
atp1039
a(S'siano'
p1040
(dp1041
S'VERB'
p1042
F1.0
s(lp1043
(g396
I26
tp1044
atp1045
a(S'adeguatamente'
p1046
(dp1047
S'ADV'
p1048
F1.0
s(lp1049
(g206
I27
tp1050
atp1051
a(S'controllati'
p1052
(dp1053
S'VERB'
p1054
F0.278779
sS'ADJ'
p1055
F0.721221
s(lp1056
(g198
I28
tp1057
atp1058
a(g162
(dp1059
g162
F1.0
s(lp1060
(g162
I29
tp1061
atp1062
asS'sk'
p1063
(lp1064
(S'komisia'
p1065
(dp1066
S'NOUN'
p1067
F1.0
s(lp1068
(g16
I1
tp1069
atp1070
a(S'zintenz\xc3\xadvni'
p1071
(dp1072
S'VERB'
p1073
F1.0
s(lp1074
(g23
I3
tp1075
atp1076
a(S'svoju'
p1077
(dp1078
S'PRON'
p1079
F1.0
s(lp1080
(g30
I4
tp1081
atp1082
a(S'snahu'
p1083
(dp1084
S'NOUN'
p1085
F1.0
s(lp1086
(g37
I5
tp1087
atp1088
a(S'smerom'
p1089
(dp1090
S'NOUN'
p1091
F1.0
s(lp1092
tp1093
a(S'k'
p1094
(dp1095
g773
F0.000185
sS'NOUN'
p1096
F1.4000000000000001e-05
sS'ADP'
p1097
F0.999802
s(lp1098
(g61
I8
tp1099
atp1100
a(S'adekv\xc3\xa1tnej'
p1101
(dp1102
S'ADJ'
p1103
F1.0
s(lp1104
(g79
I10
tp1105
atp1106
a(S'defin\xc3\xadci\xc3\xad'
p1107
(dp1108
S'NOUN'
p1109
F1.0
s(lp1110
(g86
I11
tp1111
atp1112
a(S'indexov'
p1113
(dp1114
S'NOUN'
p1115
F1.0
s(lp1116
(g107
I14
tp1117
atp1118
a(S'zdravia'
p1119
(dp1120
S'VERB'
p1121
F0.290383
sS'NOUN'
p1122
F0.709618
s(lp1123
(g119
I13
tp1124
atp1125
a(S'a'
p1126
(dp1127
g773
F0.0041730000000000005
sS'CONJ'
p1128
F0.994414
sS'NOUN'
p1129
F0.000212
sS'ADP'
p1130
F0.001113
sS'PRT'
p1131
F8.7e-05
s(lp1132
(g126
I15
tp1133
atp1134
a(S'ostatn\xc3\xbdch'
p1135
(dp1136
S'NUM'
p1137
F0.236235
sS'ADJ'
p1138
F0.763765
s(lp1139
(g140
I16
tp1140
atp1141
a(S'\xc5\xa1tatistick\xc3\xbdch'
p1142
(dp1143
S'ADJ'
p1144
F1.0
s(lp1145
(g157
I17
tp1146
atp1147
a(S'mier'
p1148
(dp1149
S'VERB'
p1150
F0.0
sS'NOUN'
p1151
F1.0
s(lp1152
tp1153
a(S'tak'
p1154
(dp1155
S'PRON'
p1156
F0.860157
sS'CONJ'
p1157
F0.025047
sg773
F0.114796
s(lp1158
(g107
I14
tp1159
atp1160
a(g160
(dp1161
g162
F1.0
s(lp1162
(g160
I19
tp1163
atp1164
a(S'aby'
p1165
(dp1166
g773
F4.9e-05
sS'CONJ'
p1167
F0.999951
s(lp1168
(g175
I20
tp1169
atp1170
a(S'zabezpe\xc4\x8dila'
p1171
(dp1172
S'VERB'
p1173
F1.0
s(lp1174
(g182
I21
tp1175
atp1176
a(S'spr\xc3\xa1vne'
p1177
(dp1178
S'ADV'
p1179
F0.051641
sg773
F0.00241
sS'ADJ'
p1180
F0.945949
s(lp1181
(g206
I27
tp1182
atp1183
a(S'sledovanie'
p1184
(dp1185
S'NOUN'
p1186
F1.0
s(lp1187
(g198
I28
tp1188
atp1189
a(S'ohrozenia'
p1190
(dp1191
S'NOUN'
p1192
F1.0
s(lp1193
(g214
I23
tp1194
atp1195
a(S'zdravia'
p1196
(dp1197
S'VERB'
p1198
F0.052605
sS'NOUN'
p1199
F0.947395
s(lp1200
(g230
I24
tp1201
atp1202
a(S'v'
p1203
(dp1204
g773
F0.000493
sS'ADP'
p1205
F0.999507
s(lp1206
tp1207
a(S'pr\xc3\xa1ci'
p1208
(dp1209
S'NOUN'
p1210
F1.0
s(lp1211
(g222
I25
tp1212
atp1213
a(g162
(dp1214
g162
F1.0
s(lp1215
(g162
I29
tp1216
atp1217
asS'pl'
p1218
(lp1219
(S'komisja'
p1220
(dp1221
S'NOUN'
p1222
F1.0
s(lp1223
(g16
I1
tp1224
atp1225
a(S'wzmocni'
p1226
(dp1227
S'VERB'
p1228
F1.0
s(lp1229
(g23
I3
tp1230
atp1231
a(S'swoje'
p1232
(dp1233
S'NOUN'
p1234
F0.000146
sS'ADJ'
p1235
F0.9998550000000002
s(lp1236
(g30
I4
tp1237
atp1238
a(S'wysi\xc5\x82ki'
p1239
(dp1240
S'NOUN'
p1241
F1.0
s(lp1242
(g37
I5
tp1243
atp1244
a(S'w'
p1245
(dp1246
S'ADJ'
p1247
F0.0
sg773
F0.0
sS'NOUN'
p1248
F0.0
sS'ADP'
p1249
F1.0
s(lp1250
(g45
I6
tp1251
atp1252
a(S'kierunku'
p1253
(dp1254
S'NOUN'
p1255
F1.0
s(lp1256
(g61
I8
tp1257
atp1258
a(S'odpowiedniego'
p1259
(dp1260
S'ADJ'
p1261
F1.0
s(lp1262
(g79
I10
tp1263
atp1264
a(S'zdefiniowania'
p1265
(dp1266
S'VERB'
p1267
F1.0
s(lp1268
(g86
I11
tp1269
atp1270
a(S'wska\xc5\xbanik\xc3\xb3w'
p1271
(dp1272
S'NOUN'
p1273
F1.0
s(lp1274
(g107
I14
tp1275
atp1276
a(S'zdrowia'
p1277
(dp1278
S'NOUN'
p1279
F1.0
s(lp1280
(g119
I13
tp1281
atp1282
a(g840
(dp1283
S'PRT'
p1284
F0.000857
sS'CONJ'
p1285
F0.999105
sS'NOUN'
p1286
F1.7e-05
sg773
F2e-06
sS'PRON'
p1287
F1.9e-05
s(lp1288
(g126
I15
tp1289
atp1290
a(S'innych'
p1291
(dp1292
S'NOUN'
p1293
F0.003113
sS'ADJ'
p1294
F0.9968890000000001
s(lp1295
(g140
I16
tp1296
atp1297
a(S'\xc5\x9brodk\xc3\xb3w'
p1298
(dp1299
S'NOUN'
p1300
F1.0
s(lp1301
(g148
I18
tp1302
atp1303
a(S'statystycznych'
p1304
(dp1305
S'ADJ'
p1306
F1.0
s(lp1307
(g157
I17
tp1308
atp1309
a(g160
(dp1310
g773
F0.0
sg162
F1.0
s(lp1311
(g160
I19
tp1312
atp1313
a(g1245
(dp1314
S'ADJ'
p1315
F0.0
sg773
F1e-06
sS'NOUN'
p1316
F1e-06
sS'ADP'
p1317
F0.999998
s(lp1318
tp1319
a(S'celu'
p1320
(dp1321
S'NOUN'
p1322
F1.0
s(lp1323
(g175
I20
tp1324
atp1325
a(S'zapewnienia'
p1326
(dp1327
S'VERB'
p1328
F0.991307
sS'NOUN'
p1329
F0.008693
s(lp1330
(g182
I21
tp1331
atp1332
a(S'w\xc5\x82a\xc5\x9bciwego'
p1333
(dp1334
S'ADJ'
p1335
F1.0
s(lp1336
(g206
I27
tp1337
atp1338
a(S'monitorowania'
p1339
(dp1340
S'VERB'
p1341
F1.0
s(lp1342
(g198
I28
tp1343
atp1344
a(S'zagro\xc5\xbce\xc5\x84'
p1345
(dp1346
S'NOUN'
p1347
F1.0
s(lp1348
tp1349
a(S'dla'
p1350
(dp1351
S'ADP'
p1352
F1.0
s(lp1353
(g222
I25
tp1354
atp1355
a(S'zdrowia'
p1356
(dp1357
S'NOUN'
p1358
F1.0
s(lp1359
(g230
I24
tp1360
atp1361
a(S'z'
p1362
(dp1363
S'PRT'
p1364
F0.005223
sS'VERB'
p1365
F0.002429
sS'NOUN'
p1366
F0.0001
sS'ADP'
p1367
F0.9913660000000001
sg773
F0.000881
s(lp1368
(g396
I26
tp1369
atp1370
a(S'miejscu'
p1371
(dp1372
S'NOUN'
p1373
F1.0
s(lp1374
tp1375
a(S'pracy'
p1376
(dp1377
S'NOUN'
p1378
F1.0
s(lp1379
(g214
I23
tp1380
atp1381
a(g162
(dp1382
g162
F1.0
s(lp1383
(g162
I29
tp1384
atp1385
asS'sl'
p1386
(lp1387
(S'komisija'
p1388
(dp1389
S'NOUN'
p1390
F1.0
s(lp1391
(g16
I1
tp1392
atp1393
a(S'si'
p1394
(dp1395
S'PRON'
p1396
F0.996049
sS'VERB'
p1397
F0.003951
s(lp1398
(g9
I0
tp1399
atp1400
a(S'bo'
p1401
(dp1402
S'VERB'
p1403
F1.0
s(lp1404
(g262
I2
tp1405
atp1406
a(S'\xc5\xa1e'
p1407
(dp1408
S'PRT'
p1409
F1.0
s(lp1410
tp1411
a(S'bolj'
p1412
(dp1413
S'ADV'
p1414
F1.0
s(lp1415
(g23
I3
tp1416
atp1417
a(S'prizadevala'
p1418
(dp1419
S'VERB'
p1420
F1.0
s(lp1421
(g37
I5
tp1422
atp1423
a(S'za'
p1424
(dp1425
S'ADV'
p1426
F1.2e-05
sg773
F1e-06
sS'ADP'
p1427
F0.9999870000000001
s(lp1428
(g45
I6
tp1429
atp1430
a(S'oblikovanje'
p1431
(dp1432
S'NOUN'
p1433
F1.0
s(lp1434
(g107
I14
tp1435
atp1436
a(S'ustrezne'
p1437
(dp1438
S'ADJ'
p1439
F0.9999990000000001
s(lp1440
(g79
I10
tp1441
atp1442
a(S'opredelitve'
p1443
(dp1444
S'NOUN'
p1445
F1.0
s(lp1446
(g86
I11
tp1447
atp1448
a(S'kazalnikov'
p1449
(dp1450
S'NOUN'
p1451
F1.0
s(lp1452
tp1453
a(S'zdravja'
p1454
(dp1455
S'NOUN'
p1456
F1.0
s(lp1457
(g119
I13
tp1458
atp1459
a(S'in'
p1460
(dp1461
S'ADV'
p1462
F2e-06
sg773
F1e-06
sS'CONJ'
p1463
F0.999997
sS'NOUN'
p1464
F0.0
s(lp1465
(g126
I15
tp1466
atp1467
a(S'drugih'
p1468
(dp1469
S'NUM'
p1470
F1.0000010000000001
s(lp1471
(g140
I16
tp1472
atp1473
a(S'statisti\xc4\x8dnih'
p1474
(dp1475
S'ADJ'
p1476
F1.0
s(lp1477
(g157
I17
tp1478
atp1479
a(S'ukrepov'
p1480
(dp1481
S'NOUN'
p1482
F1.0
s(lp1483
(g148
I18
tp1484
atp1485
a(S'ter'
p1486
(dp1487
S'CONJ'
p1488
F1.0
s(lp1489
(g160
I19
tp1490
atp1491
a(S'tako'
p1492
(dp1493
S'ADV'
p1494
F0.975147
sS'PRON'
p1495
F0.002287
sS'CONJ'
p1496
F0.022566
s(lp1497
(g372
I22
tp1498
atp1499
a(S'posku\xc5\xa1ala'
p1500
(dp1501
S'VERB'
p1502
F1.0
s(lp1503
(g107
I14
tp1504
atp1505
a(S'zagotoviti'
p1506
(dp1507
S'VERB'
p1508
F1.0
s(lp1509
(g182
I21
tp1510
atp1511
a(S'ustrezno'
p1512
(dp1513
S'ADV'
p1514
F0.001614
sS'ADJ'
p1515
F0.9983859999999999
s(lp1516
(g206
I27
tp1517
atp1518
a(S'spremljanje'
p1519
(dp1520
S'NOUN'
p1521
F1.0
s(lp1522
(g198
I28
tp1523
atp1524
a(S'poklicnega'
p1525
(dp1526
S'ADJ'
p1527
F1.0
s(lp1528
(g214
I23
tp1529
atp1530
a(S'tveganja'
p1531
(dp1532
S'NOUN'
p1533
F0.999999
s(lp1534
(g222
I25
tp1535
atp1536
a(S'za'
p1537
(dp1538
S'ADV'
p1539
F7e-06
sg773
F2e-06
sS'ADP'
p1540
F0.999991
s(lp1541
(g175
I20
tp1542
atp1543
a(S'zdravje'
p1544
(dp1545
S'NOUN'
p1546
F1.0
s(lp1547
(g230
I24
tp1548
atp1549
a(g162
(dp1550
g162
F1.0
s(lp1551
(g162
I29
tp1552
atp1553
asS'es'
p1554
(lp1555
(S'la'
p1556
(dp1557
g773
F4.5e-05
sS'DET'
p1558
F0.999917
sS'NOUN'
p1559
F0.0
sS'PRON'
p1560
F3.8e-05
s(lp1561
(g9
I0
tp1562
atp1563
a(S'comisi\xc3\xb3n'
p1564
(dp1565
S'NOUN'
p1566
F1.0
s(lp1567
(g16
I1
tp1568
atp1569
a(S'intensificar\xc3\xa1'
p1570
(dp1571
S'VERB'
p1572
F1.0
s(lp1573
(g23
I3
tp1574
atp1575
a(S'sus'
p1576
(dp1577
S'PRON'
p1578
F1.0
s(lp1579
(g30
I4
tp1580
atp1581
a(S'esfuerzos'
p1582
(dp1583
S'NOUN'
p1584
F1.0
s(lp1585
(g37
I5
tp1586
atp1587
a(S'en'
p1588
(dp1589
g773
F0.0
sS'CONJ'
p1590
F0.0
sS'ADP'
p1591
F1.0
s(lp1592
(g45
I6
tp1593
atp1594
a(S'el'
p1595
(dp1596
S'PRON'
p1597
F5e-06
sS'DET'
p1598
F0.999995
s(lp1599
(g54
I7
tp1600
atp1601
a(S'sentido'
p1602
(dp1603
S'NOUN'
p1604
F1.0
s(lp1605
(g61
I8
tp1606
atp1607
a(S'de'
p1608
(dp1609
g773
F0.0
sS'CONJ'
p1610
F0.345844
sS'ADP'
p1611
F0.654156
s(lp1612
(g70
I9
tp1613
atp1614
a(S'definir'
p1615
(dp1616
S'VERB'
p1617
F1.0
s(lp1618
(g86
I11
tp1619
atp1620
a(S'adecuadamente'
p1621
(dp1622
S'ADV'
p1623
F1.0
s(lp1624
(g79
I10
tp1625
atp1626
a(S'los'
p1627
(dp1628
S'PRON'
p1629
F0.00025
sS'DET'
p1630
F0.99975
s(lp1631
tp1632
a(S'\xc3\xadndices'
p1633
(dp1634
S'NOUN'
p1635
F1.0
s(lp1636
(g107
I14
tp1637
atp1638
a(S'de'
p1639
(dp1640
g773
F2.9e-05
sS'CONJ'
p1641
F0.000449
sS'ADP'
p1642
F0.999522
s(lp1643
(g99
I12
tp1644
atp1645
a(S'salud'
p1646
(dp1647
S'NOUN'
p1648
F1.0
s(lp1649
(g119
I13
tp1650
atp1651
a(S'y'
p1652
(dp1653
g773
F1.6e-05
sS'CONJ'
p1654
F0.999984
s(lp1655
(g126
I15
tp1656
atp1657
a(S'otras'
p1658
(dp1659
S'ADJ'
p1660
F1.0
s(lp1661
(g140
I16
tp1662
atp1663
a(S'medidas'
p1664
(dp1665
S'VERB'
p1666
F0.000216
sS'NOUN'
p1667
F0.999784
s(lp1668
(g148
I18
tp1669
atp1670
a(S'estad\xc3\xadsticas'
p1671
(dp1672
S'NOUN'
p1673
F0.030945
sS'ADJ'
p1674
F0.969055
s(lp1675
(g157
I17
tp1676
atp1677
a(S'para'
p1678
(dp1679
S'CONJ'
p1680
F0.984241
sS'ADP'
p1681
F0.015759
s(lp1682
(g175
I20
tp1683
atp1684
a(S'asegurar'
p1685
(dp1686
S'VERB'
p1687
F1.0
s(lp1688
(g182
I21
tp1689
atp1690
a(S'que'
p1691
(dp1692
g773
F0.0
sS'CONJ'
p1693
F1.0
s(lp1694
(g372
I22
tp1695
atp1696
a(S'los'
p1697
(dp1698
S'PRON'
p1699
F0.000194
sS'DET'
p1700
F0.999806
s(lp1701
tp1702
a(S'riesgos'
p1703
(dp1704
S'NOUN'
p1705
F1.0
s(lp1706
(g222
I25
tp1707
atp1708
a(g1126
(dp1709
g773
F0.000427
sS'CONJ'
p1710
F3e-06
sS'ADP'
p1711
F0.99957
s(lp1712
tp1713
a(S'la'
p1714
(dp1715
g773
F0.0
sS'PRON'
p1716
F0.0
sS'DET'
p1717
F0.999999
sS'NOUN'
p1718
F0.0
s(lp1719
tp1720
a(S'salud'
p1721
(dp1722
S'NOUN'
p1723
F1.0
s(lp1724
(g230
I24
tp1725
atp1726
a(S'en'
p1727
(dp1728
g773
F0.0
sS'CONJ'
p1729
F0.0
sS'ADP'
p1730
F1.0
s(lp1731
tp1732
a(S'el'
p1733
(dp1734
S'PRON'
p1735
F5e-06
sS'DET'
p1736
F0.999995
s(lp1737
tp1738
a(S'trabajo'
p1739
(dp1740
S'NOUN'
p1741
F1.0
s(lp1742
(g214
I23
tp1743
atp1744
a(S'reciban'
p1745
(dp1746
S'VERB'
p1747
F1.0
s(lp1748
(g206
I27
tp1749
atp1750
a(S'un'
p1751
(dp1752
g773
F1e-06
sS'DET'
p1753
F0.999999
s(lp1754
(g198
I28
tp1755
atp1756
a(S'seguimiento'
p1757
(dp1758
S'NOUN'
p1759
F1.0
s(lp1760
tp1761
a(S'adecuado'
p1762
(dp1763
S'VERB'
p1764
F0.172104
sS'ADJ'
p1765
F0.827896
s(lp1766
(g198
I28
tp1767
atp1768
a(g162
(dp1769
g162
F1.0
s(lp1770
(g162
I29
tp1771
atp1772
as.