(dp0
S'fr'
p1
(lp2
(S'au'
p3
(dp4
S'ADP'
p5
F1.0
s(lp6
(S'when'
p7
I3
tp8
atp9
a(S'nom'
p10
(dp11
S'NOUN'
p12
F1.0
s(lp13
(S'speaking'
p14
I4
tp15
atp16
a(S'du'
p17
(dp18
S'ADP'
p19
F1.0
s(lp20
(S'president'
p21
I1
tp22
atp23
a(S'groupe'
p24
(dp25
S'VERB'
p26
F1e-06
sS'NOUN'
p27
F0.999999
s(lp28
(g21
I1
tp29
atp30
a(S'uen'
p31
(dp32
S'NOUN'
p33
F1.0
s(lp34
(g21
I1
tp35
atp36
a(S'.'
p37
(dp38
g37
F1.0
s(lp39
(S'mr'
p40
I0
tp41
atp42
a(S'-'
p43
(dp44
g37
F1.0
s(lp45
(g40
I0
tp46
atp47
a(S'('
p48
(dp49
g37
F1.0
s(lp50
tp51
a(S'pl'
p52
(dp53
S'ADJ'
p54
F0.197818
sS'VERB'
p55
F0.0012339999999999999
sS'NOUN'
p56
F0.800948
s(lp57
(g21
I1
tp58
atp59
a(S')'
p60
(dp61
g37
F1.0
s(lp62
(g21
I1
tp63
atp64
a(S'monsieur'
p65
(dp66
S'NOUN'
p67
F1.0
s(lp68
(g40
I0
tp69
atp70
a(S'le'
p71
(dp72
S'PRON'
p73
F0.000321
sS'DET'
p74
F0.999679
s(lp75
tp76
a(S'pr\xc3\xa9sident'
p77
(dp78
S'VERB'
p79
F4.5e-05
sS'NOUN'
p80
F0.999955
s(lp81
(g21
I1
tp82
atp83
a(S','
p84
(dp85
g37
F1.0
s(lp86
(g84
I2
tp87
atp88
a(S'je'
p89
(dp90
S'PRON'
p91
F1.0
s(lp92
(S'i'
p93
I8
tp94
atp95
a(S'souhaiterais'
p96
(dp97
S'VERB'
p98
F1.0
s(lp99
(S'want'
p100
I9
tp101
atp102
a(S'verser'
p103
(dp104
S'VERB'
p105
F1.0
s(lp106
(S'draw'
p107
I11
tp108
atp109
a(S'au'
p110
(dp111
S'ADP'
p112
F1.0
s(lp113
(S'in'
p114
I5
tp115
atp116
a(S'd\xc3\xa9bat'
p117
(dp118
S'VERB'
p119
F2e-06
sS'NOUN'
p120
F0.999998
s(lp121
(S'debate'
p122
I7
tp123
atp124
a(S'quatre'
p125
(dp126
S'NUM'
p127
F0.999973
sS'NOUN'
p128
F2.7e-05
s(lp129
(S'four'
p130
I14
tp131
atp132
a(S'consid\xc3\xa9rations'
p133
(dp134
S'NOUN'
p135
F1.0
s(lp136
(S'issues'
p137
I15
tp138
atp139
a(g37
(dp140
g37
F1.0
s(lp141
(g37
I16
tp142
atp143
asS'en'
p144
(lp145
(g40
(dp146
S'ADJ'
p147
F0.013311
sS'NOUN'
p148
F0.986689
s(lp149
(g40
I0
tp150
atp151
a(g21
(dp152
S'NOUN'
p153
F1.0
s(lp154
(g21
I1
tp155
atp156
a(g84
(dp157
g37
F1.0
s(lp158
(g84
I2
tp159
atp160
a(g7
(dp161
S'ADV'
p162
F0.999949
sS'ADP'
p163
F5.1e-05
s(lp164
(g7
I3
tp165
atp166
a(g14
(dp167
S'ADJ'
p168
F0.037241
sS'VERB'
p169
F0.705678
sS'NOUN'
p170
F0.257081
s(lp171
(g14
I4
tp172
atp173
a(g114
(dp174
S'ADV'
p175
F0.000762
sS'PRT'
p176
F0.010007
sS'ADP'
p177
F0.989231
s(lp178
(g114
I5
tp179
atp180
a(S'this'
p181
(dp182
S'ADV'
p183
F4e-06
sS'NOUN'
p184
F1.9e-05
sS'DET'
p185
F0.999977
s(lp186
(g181
I6
tp187
atp188
a(g122
(dp189
S'VERB'
p190
F0.00026000000000000003
sS'NOUN'
p191
F0.99974
s(lp192
(g122
I7
tp193
atp194
a(g93
(dp195
S'X'
p196
F0.025142
sS'NOUN'
p197
F0.974858
s(lp198
(g93
I8
tp199
atp200
a(g100
(dp201
S'VERB'
p202
F0.998394
sS'NOUN'
p203
F0.001606
s(lp204
(g100
I9
tp205
atp206
a(S'to'
p207
(dp208
S'ADV'
p209
F0.0
sS'PRT'
p210
F1.0
sS'ADP'
p211
F0.0
s(lp212
(g207
I10
tp213
atp214
a(g107
(dp215
S'VERB'
p216
F0.997046
sS'NOUN'
p217
F0.002954
s(lp218
(g107
I11
tp219
atp220
a(S'attention'
p221
(dp222
S'NOUN'
p223
F1.0
s(lp224
(g221
I12
tp225
atp226
a(S'to'
p227
(dp228
S'ADV'
p229
F3e-06
sS'PRT'
p230
F0.999989
sS'ADP'
p231
F8e-06
s(lp232
(g227
I13
tp233
atp234
a(g130
(dp235
S'NUM'
p236
F0.999922
sS'NOUN'
p237
F7.8e-05
s(lp238
(g130
I14
tp239
atp240
a(g137
(dp241
S'VERB'
p242
F0.000153
sS'NOUN'
p243
F0.999847
s(lp244
(g137
I15
tp245
atp246
a(g37
(dp247
g37
F1.0
s(lp248
(g37
I16
tp249
atp250
asS'nl'
p251
(lp252
(S'namens'
p253
(dp254
S'ADP'
p255
F1.0
s(lp256
(g40
I0
tp257
atp258
a(S'de'
p259
(dp260
S'DET'
p261
F1.0
s(lp262
tp263
a(S'uen-fractie'
p264
(dp265
S'NOUN'
p266
F1.0
s(lp267
(g21
I1
tp268
atp269
a(g37
(dp270
g37
F1.0
s(lp271
tp272
a(g43
(dp273
g37
F1.0
s(lp274
(g40
I0
tp275
atp276
a(g48
(dp277
g37
F1.0
s(lp278
tp279
a(S'pl'
p280
(dp281
S'ADJ'
p282
F0.022827
sS'NOUN'
p283
F0.977173
s(lp284
(g21
I1
tp285
atp286
a(g60
(dp287
g37
F1.0
s(lp288
(g21
I1
tp289
atp290
a(S'mijnheer'
p291
(dp292
S'NOUN'
p293
F1.0
s(lp294
(g40
I0
tp295
atp296
a(S'de'
p297
(dp298
S'DET'
p299
F1.0
s(lp300
(g21
I1
tp301
atp302
a(S'voorzitter'
p303
(dp304
S'NOUN'
p305
F1.0
s(lp306
tp307
a(g84
(dp308
g37
F1.0
s(lp309
(g84
I2
tp310
atp311
a(S'in'
p312
(dp313
S'ADV'
p314
F0.014092
sS'VERB'
p315
F8e-06
sS'ADP'
p316
F0.9859
s(lp317
tp318
a(S'het'
p319
(dp320
S'PRON'
p321
F0.0012749999999999999
sS'DET'
p322
F0.998725
s(lp323
(g14
I4
tp324
atp325
a(S'licht'
p326
(dp327
S'ADV'
p328
F0.000303
sS'ADJ'
p329
F0.05313
sS'VERB'
p330
F1.4e-05
sS'NOUN'
p331
F0.946553
s(lp332
(g7
I3
tp333
atp334
a(S'van'
p335
(dp336
S'ADP'
p337
F1.0
s(lp338
(g114
I5
tp339
atp340
a(S'dit'
p341
(dp342
S'PRON'
p343
F1.0
s(lp344
(g181
I6
tp345
atp346
a(S'debat'
p347
(dp348
S'NOUN'
p349
F1.0
s(lp350
(g122
I7
tp351
atp352
a(S'zou'
p353
(dp354
S'VERB'
p355
F1.0
s(lp356
tp357
a(S'ik'
p358
(dp359
S'PRON'
p360
F0.999999
sS'NOUN'
p361
F1e-06
s(lp362
(g93
I8
tp363
atp364
a(S'vier'
p365
(dp366
S'NUM'
p367
F0.999996
sS'VERB'
p368
F4e-06
s(lp369
(g130
I14
tp370
atp371
a(S'kwesties'
p372
(dp373
S'NOUN'
p374
F1.0
s(lp375
(g137
I15
tp376
atp377
a(S'onder'
p378
(dp379
S'ADV'
p380
F1.7e-05
sS'ADP'
p381
F0.999983
s(lp382
tp383
a(S'de'
p384
(dp385
S'DET'
p386
F1.0
s(lp387
(g21
I1
tp388
atp389
a(S'aandacht'
p390
(dp391
S'NOUN'
p392
F1.0
s(lp393
(g221
I12
tp394
atp395
a(S'willen'
p396
(dp397
S'VERB'
p398
F0.9999180000000001
sS'NOUN'
p399
F8.2e-05
s(lp400
(g100
I9
tp401
atp402
a(S'brengen'
p403
(dp404
S'VERB'
p405
F0.999981
sS'NOUN'
p406
F1.9e-05
s(lp407
(g107
I11
tp408
atp409
a(g37
(dp410
g37
F1.0
s(lp411
(g37
I16
tp412
atp413
asS'de'
p414
(lp415
(S'herr'
p416
(dp417
S'ADJ'
p418
F0.129581
sS'NOUN'
p419
F0.788996
s(lp420
(g40
I0
tp421
atp422
a(S'pr\xc3\xa4sident'
p423
(dp424
S'VERB'
p425
F0.06215
sS'NOUN'
p426
F0.924499
s(lp427
tp428
a(S'!'
p429
(dp430
g37
F1.0
s(lp431
(g21
I1
tp432
atp433
a(S'wenn'
p434
(dp435
S'CONJ'
p436
F1.0
s(lp437
(g7
I3
tp438
atp439
a(S'ich'
p440
(dp441
S'PRON'
p442
F1.0
s(lp443
(g93
I8
tp444
atp445
a(S'in'
p446
(dp447
S'ADP'
p448
F1.0
s(lp449
(g114
I5
tp450
atp451
a(S'dieser'
p452
(dp453
S'PRON'
p454
F1.0
s(lp455
(g181
I6
tp456
atp457
a(S'debatte'
p458
(dp459
S'ADJ'
p460
F6.1e-05
sS'NOUN'
p461
F0.999863
s(lp462
(g122
I7
tp463
atp464
a(S'das'
p465
(dp466
S'PRON'
p467
F0.006299
sS'DET'
p468
F0.993633
s(lp469
(g14
I4
tp470
atp471
a(S'wort'
p472
(dp473
S'ADJ'
p474
F0.024093
sS'NOUN'
p475
F0.956542
s(lp476
(g14
I4
tp477
atp478
a(S'ergreife'
p479
(dp480
S'VERB'
p481
F1.0
s(lp482
tp483
a(g84
(dp484
g37
F1.0
s(lp485
(g207
I10
tp486
atp487
a(S'ist'
p488
(dp489
S'VERB'
p490
F1.0
s(lp491
tp492
a(S'das'
p493
(dp494
S'PRON'
p495
F0.991314
sS'DET'
p496
F0.008685
s(lp497
(g14
I4
tp498
atp499
a(g84
(dp500
g37
F1.0
s(lp501
tp502
a(S'um'
p503
(dp504
S'CONJ'
p505
F0.99159
sS'ADP'
p506
F0.008196
s(lp507
(g207
I10
tp508
atp509
a(S'auf'
p510
(dp511
S'PRT'
p512
F0.002231
sS'ADP'
p513
F0.997707
s(lp514
(g221
I12
tp515
atp516
a(S'vier'
p517
(dp518
S'NUM'
p519
F1.0
s(lp520
(g130
I14
tp521
atp522
a(S'angelegenheiten'
p523
(dp524
S'VERB'
p525
F0.000366
sS'NOUN'
p526
F0.999443
s(lp527
(g137
I15
tp528
atp529
a(S'hinzuweisen'
p530
(dp531
S'VERB'
p532
F0.9969429999999999
s(lp533
(g107
I11
tp534
atp535
a(g37
(dp536
g37
F1.0
s(lp537
(g37
I16
tp538
atp539
asS'it'
p540
(lp541
(S'signor'
p542
(dp543
S'NOUN'
p544
F1.0
s(lp545
(g40
I0
tp546
atp547
a(S'presidente'
p548
(dp549
S'NOUN'
p550
F1.0
s(lp551
(g21
I1
tp552
atp553
a(g84
(dp554
g37
F1.0
s(lp555
(g84
I2
tp556
atp557
a(S'nel'
p558
(dp559
S'ADP'
p560
F1.0
s(lp561
(g7
I3
tp562
atp563
a(S'mio'
p564
(dp565
S'PRON'
p566
F1.0
s(lp567
(g93
I8
tp568
atp569
a(S'intervento'
p570
(dp571
S'NOUN'
p572
F1.0
s(lp573
(g14
I4
tp574
atp575
a(S'nella'
p576
(dp577
S'ADP'
p578
F1.0
s(lp579
(g114
I5
tp580
atp581
a(S'discussione'
p582
(dp583
S'NOUN'
p584
F1.0
s(lp585
tp586
a(S'odierna'
p587
(dp588
S'ADJ'
p589
F1.0
s(lp590
(g122
I7
tp591
atp592
a(S'desidero'
p593
(dp594
S'VERB'
p595
F1.0
s(lp596
(g100
I9
tp597
atp598
a(S'attirare'
p599
(dp600
S'VERB'
p601
F1.0
s(lp602
(g107
I11
tp603
atp604
a(S"l'"
p605
(dp606
S'NOUN'
p607
F0.012178
sS'VERB'
p608
F0.890187
sS'ADJ'
p609
F0.097635
s(lp610
tp611
a(S'attenzione'
p612
(dp613
S'NOUN'
p614
F1.0
s(lp615
(g221
I12
tp616
atp617
a(S'su'
p618
(dp619
S'ADV'
p620
F0.040634
sS'ADP'
p621
F0.959366
s(lp622
(g227
I13
tp623
atp624
a(S'quattro'
p625
(dp626
S'NOUN'
p627
F0.015556
sS'NUM'
p628
F0.001891
sS'ADJ'
p629
F0.982553
s(lp630
(g130
I14
tp631
atp632
a(S'aspetti'
p633
(dp634
S'VERB'
p635
F0.001288
sS'NOUN'
p636
F0.998712
s(lp637
(g137
I15
tp638
atp639
a(g37
(dp640
g37
F1.0
s(lp641
(g37
I16
tp642
atp643
asS'sk'
p644
(lp645
(S'v\xc3\xa1\xc5\xbeen\xc3\xbd'
p646
(dp647
S'VERB'
p648
F0.141074
sS'ADJ'
p649
F0.858926
s(lp650
tp651
a(S'p\xc3\xa1n'
p652
(dp653
S'NOUN'
p654
F1.0
s(lp655
(g40
I0
tp656
atp657
a(S'predsedaj\xc3\xbaci'
p658
(dp659
S'VERB'
p660
F1.0
s(lp661
(g21
I1
tp662
atp663
a(g84
(dp664
g37
F1.0
s(lp665
(g84
I2
tp666
atp667
a(S'r\xc3\xa1d'
p668
(dp669
S'ADV'
p670
F0.011396
sS'NOUN'
p671
F0.292084
sS'ADJ'
p672
F0.67242
sg196
F0.0241
s(lp673
tp674
a(S'by'
p675
(dp676
S'PRT'
p677
F0.999988
sg196
F1.2e-05
s(lp678
(g100
I9
tp679
atp680
a(S'som'
p681
(dp682
S'VERB'
p683
F1.0
s(lp684
(g93
I8
tp685
atp686
a(S'v\xc3\xa1s'
p687
(dp688
S'PRON'
p689
F0.999999
sg196
F1e-06
s(lp690
(g107
I11
tp691
atp692
a(S'po\xc4\x8das'
p693
(dp694
S'ADP'
p695
F1.0
s(lp696
(g7
I3
tp697
atp698
a(S'svojho'
p699
(dp700
S'PRON'
p701
F1.0
s(lp702
tp703
a(S'vyst\xc3\xbapenia'
p704
(dp705
S'NOUN'
p706
F1.0
s(lp707
(g14
I4
tp708
atp709
a(S'v'
p710
(dp711
g196
F8.499999999999999e-05
sS'ADP'
p712
F0.999915
s(lp713
(g114
I5
tp714
atp715
a(S'tejto'
p716
(dp717
S'PRON'
p718
F1.0
s(lp719
(g181
I6
tp720
atp721
a(S'rozprave'
p722
(dp723
S'NOUN'
p724
F1.0
s(lp725
(g122
I7
tp726
atp727
a(S'upozornil'
p728
(dp729
S'VERB'
p730
F0.9999999999999999
s(lp731
(g221
I12
tp732
atp733
a(S'na'
p734
(dp735
g196
F1e-05
sS'CONJ'
p736
F5e-06
sS'ADP'
p737
F0.999986
sS'PRT'
p738
F0.0
s(lp739
(g227
I13
tp740
atp741
a(S'\xc5\xa1tyri'
p742
(dp743
S'NUM'
p744
F1.0
s(lp745
(g130
I14
tp746
atp747
a(S'ot\xc3\xa1zky'
p748
(dp749
S'NOUN'
p750
F1.0
s(lp751
(g137
I15
tp752
atp753
a(g37
(dp754
g37
F1.0
s(lp755
(g37
I16
tp756
atp757
asS'pl'
p758
(lp759
(S'w'
p760
(dp761
S'ADJ'
p762
F0.0
sg196
F0.0
sS'NOUN'
p763
F0.0
sS'ADP'
p764
F1.0
s(lp765
(g40
I0
tp766
atp767
a(S'imieniu'
p768
(dp769
S'NOUN'
p770
F1.0
s(lp771
(g21
I1
tp772
atp773
a(S'grupy'
p774
(dp775
S'NOUN'
p776
F1.000001
s(lp777
(g21
I1
tp778
atp779
a(S'uen'
p780
(dp781
S'ADV'
p782
F0.00076
sS'ADJ'
p783
F0.00678
sS'VERB'
p784
F0.005059
sS'NOUN'
p785
F0.9873750000000001
sg196
F2.5e-05
s(lp786
(g21
I1
tp787
atp788
a(g37
(dp789
g37
F1.0
s(lp790
tp791
a(g43
(dp792
g196
F0.001074
sS'NUM'
p793
F0.0
sS'NOUN'
p794
F0.0018050000000000002
sg37
F0.997121
s(lp795
(g84
I2
tp796
atp797
a(g48
(dp798
S'NOUN'
p799
F0.000821
sg37
F0.999179
s(lp800
(g21
I1
tp801
atp802
a(S'pl'
p803
(dp804
S'ADJ'
p805
F0.0008849999999999999
sS'VERB'
p806
F0.005222999999999999
sS'NOUN'
p807
F0.993893
s(lp808
(g21
I1
tp809
atp810
a(g60
(dp811
g37
F1.0
s(lp812
(g21
I1
tp813
atp814
a(S'panie'
p815
(dp816
S'NOUN'
p817
F1.0
s(lp818
(g21
I1
tp819
atp820
a(S'przewodnicz\xc4\x85cy'
p821
(dp822
S'VERB'
p823
F0.000602
sS'NOUN'
p824
F0.999398
s(lp825
tp826
a(g429
(dp827
g37
F1.0
s(lp828
(g21
I1
tp829
atp830
a(S'zabieraj\xc4\x85c'
p831
(dp832
S'VERB'
p833
F1.0
s(lp834
tp835
a(S'g\xc5\x82os'
p836
(dp837
S'NOUN'
p838
F1.0
s(lp839
(g14
I4
tp840
atp841
a(g760
(dp842
S'ADJ'
p843
F0.0
sg196
F0.0
sS'NOUN'
p844
F0.0
sS'ADP'
p845
F1.0
s(lp846
(g114
I5
tp847
atp848
a(S'tej'
p849
(dp850
S'PRON'
p851
F1e-06
sS'ADJ'
p852
F0.999999
sg196
F0.0
s(lp853
(g181
I6
tp854
atp855
a(S'debacie'
p856
(dp857
S'NOUN'
p858
F1.0
s(lp859
(g122
I7
tp860
atp861
a(g84
(dp862
g196
F0.0
sg37
F1.0
s(lp863
(g93
I8
tp864
atp865
a(S'chc\xc4\x99'
p866
(dp867
S'VERB'
p868
F1.0
s(lp869
(g100
I9
tp870
atp871
a(S'zwr\xc3\xb3ci\xc4\x87'
p872
(dp873
S'VERB'
p874
F1.0
s(lp875
(g107
I11
tp876
atp877
a(S'uwag\xc4\x99'
p878
(dp879
S'NOUN'
p880
F1.0
s(lp881
(g221
I12
tp882
atp883
a(S'na'
p884
(dp885
S'PRT'
p886
F6e-06
sS'VERB'
p887
F2e-06
sS'NOUN'
p888
F0.0
sS'ADP'
p889
F0.9999920000000001
sg196
F0.0
s(lp890
(g227
I13
tp891
atp892
a(S'cztery'
p893
(dp894
S'NUM'
p895
F0.999999
s(lp896
(g130
I14
tp897
atp898
a(S'kwestie'
p899
(dp900
S'NOUN'
p901
F1.0
s(lp902
(g137
I15
tp903
atp904
a(g37
(dp905
g37
F1.0
s(lp906
(g37
I16
tp907
atp908
asS'sl'
p909
(lp910
(g710
(dp911
S'ADP'
p912
F1.0
s(lp913
(g40
I0
tp914
atp915
a(S'imenu'
p916
(dp917
S'NOUN'
p918
F1.0
s(lp919
(g21
I1
tp920
atp921
a(S'skupine'
p922
(dp923
S'NOUN'
p924
F1.0
s(lp925
(g21
I1
tp926
atp927
a(S'uen'
p928
(dp929
S'ADV'
p930
F0.013002
sS'NOUN'
p931
F0.26719
sS'VERB'
p932
F0.025693999999999998
sS'ADJ'
p933
F0.692412
sg196
F0.001701
s(lp934
(g21
I1
tp935
atp936
a(g37
(dp937
g37
F1.0
s(lp938
(g40
I0
tp939
atp940
a(g43
(dp941
g37
F1.0
s(lp942
(g40
I0
tp943
atp944
a(g48
(dp945
g37
F1.0
s(lp946
(g21
I1
tp947
atp948
a(S'pl'
p949
(dp950
S'ADJ'
p951
F0.0011220000000000002
sg196
F0.115589
sS'ADV'
p952
F0.000496
sS'VERB'
p953
F0.061393
sS'NOUN'
p954
F0.8214009999999999
s(lp955
tp956
a(g60
(dp957
g37
F1.0
s(lp958
tp959
a(S'gospod'
p960
(dp961
S'NOUN'
p962
F1.0
s(lp963
(g40
I0
tp964
atp965
a(S'predsednik'
p966
(dp967
S'NOUN'
p968
F1.0
s(lp969
(g21
I1
tp970
atp971
a(g84
(dp972
g37
F1.0
s(lp973
(g84
I2
tp974
atp975
a(g710
(dp976
S'ADP'
p977
F1.0
s(lp978
(g7
I3
tp979
atp980
a(S'svojem'
p981
(dp982
S'PRON'
p983
F1.0
s(lp984
tp985
a(S'govoru'
p986
(dp987
S'NOUN'
p988
F1.0
s(lp989
(g14
I4
tp990
atp991
a(g710
(dp992
S'ADP'
p993
F1.0
s(lp994
(g114
I5
tp995
atp996
a(S'tej'
p997
(dp998
S'PRON'
p999
F1.0
s(lp1000
(g181
I6
tp1001
atp1002
a(S'razpravi'
p1003
(dp1004
S'NOUN'
p1005
F1.0
s(lp1006
(g122
I7
tp1007
atp1008
a(S'bi'
p1009
(dp1010
g196
F2.9e-05
sS'VERB'
p1011
F0.999971
s(lp1012
tp1013
a(S'rad'
p1014
(dp1015
S'ADV'
p1016
F1.0
s(lp1017
(g100
I9
tp1018
atp1019
a(S'opozoril'
p1020
(dp1021
S'VERB'
p1022
F0.982175
sS'NOUN'
p1023
F0.017825
s(lp1024
(g107
I11
tp1025
atp1026
a(S'na'
p1027
(dp1028
S'ADP'
p1029
F1.0
s(lp1030
(g221
I12
tp1031
atp1032
a(S'\xc5\xa1tiri'
p1033
(dp1034
S'NUM'
p1035
F0.9999999999999999
s(lp1036
(g130
I14
tp1037
atp1038
a(S'vpra\xc5\xa1anja'
p1039
(dp1040
S'NOUN'
p1041
F1.0000010000000001
s(lp1042
(g137
I15
tp1043
atp1044
a(g37
(dp1045
g37
F1.0
s(lp1046
(g37
I16
tp1047
atp1048
asS'es'
p1049
(lp1050
(S'en'
p1051
(dp1052
g196
F0.002093
sS'CONJ'
p1053
F4.7e-05
sS'ADP'
p1054
F0.99786
s(lp1055
(g14
I4
tp1056
atp1057
a(S'nombre'
p1058
(dp1059
S'NOUN'
p1060
F1.0
s(lp1061
(g14
I4
tp1062
atp1063
a(S'del'
p1064
(dp1065
S'ADP'
p1066
F1.0
s(lp1067
tp1068
a(S'grupo'
p1069
(dp1070
S'NOUN'
p1071
F1.0
s(lp1072
(g21
I1
tp1073
atp1074
a(S'uen'
p1075
(dp1076
S'VERB'
p1077
F0.031396
sS'NOUN'
p1078
F0.968604
s(lp1079
(g21
I1
tp1080
atp1081
a(g37
(dp1082
g37
F1.0
s(lp1083
(g40
I0
tp1084
atp1085
a(g43
(dp1086
g37
F1.0
s(lp1087
(g21
I1
tp1088
atp1089
a(g48
(dp1090
g37
F1.0
s(lp1091
(g21
I1
tp1092
atp1093
a(S'pl'
p1094
(dp1095
S'NOUN'
p1096
F0.37372799999999995
sS'VERB'
p1097
F1.5e-05
sS'ADJ'
p1098
F0.626256
s(lp1099
(g21
I1
tp1100
atp1101
a(g60
(dp1102
g37
F1.0
s(lp1103
(g21
I1
tp1104
atp1105
a(S'se\xc3\xb1or'
p1106
(dp1107
S'NOUN'
p1108
F1.0
s(lp1109
tp1110
a(S'presidente'
p1111
(dp1112
S'NOUN'
p1113
F1.0
s(lp1114
(g21
I1
tp1115
atp1116
a(g84
(dp1117
g37
F1.0
s(lp1118
(g84
I2
tp1119
atp1120
a(S'durante'
p1121
(dp1122
S'ADP'
p1123
F1.0
s(lp1124
(g7
I3
tp1125
atp1126
a(S'mi'
p1127
(dp1128
S'PRON'
p1129
F1.0
s(lp1130
tp1131
a(S'intervenci\xc3\xb3n'
p1132
(dp1133
S'NOUN'
p1134
F1.0
s(lp1135
(g14
I4
tp1136
atp1137
a(S'en'
p1138
(dp1139
g196
F0.0
sS'CONJ'
p1140
F1e-06
sS'ADP'
p1141
F0.999999
s(lp1142
(g114
I5
tp1143
atp1144
a(S'este'
p1145
(dp1146
S'PRON'
p1147
F0.997953
sS'NOUN'
p1148
F0.002047
s(lp1149
(g181
I6
tp1150
atp1151
a(S'debate'
p1152
(dp1153
S'VERB'
p1154
F1.0
s(lp1155
(g122
I7
tp1156
atp1157
a(S'quiero'
p1158
(dp1159
S'VERB'
p1160
F1.0
s(lp1161
(g100
I9
tp1162
atp1163
a(S'llamar'
p1164
(dp1165
S'VERB'
p1166
F1.0
s(lp1167
(g107
I11
tp1168
atp1169
a(S'la'
p1170
(dp1171
S'PRON'
p1172
F4e-06
sS'DET'
p1173
F0.999995
sS'NOUN'
p1174
F0.0
sg196
F1e-06
s(lp1175
tp1176
a(S'atenci\xc3\xb3n'
p1177
(dp1178
S'NOUN'
p1179
F1.0
s(lp1180
tp1181
a(S'sobre'
p1182
(dp1183
S'NOUN'
p1184
F1e-06
sS'ADP'
p1185
F0.999999
s(lp1186
(g221
I12
tp1187
atp1188
a(S'cuatro'
p1189
(dp1190
S'NUM'
p1191
F1.0
s(lp1192
(g130
I14
tp1193
atp1194
a(S'cuestiones'
p1195
(dp1196
S'NOUN'
p1197
F1.0
s(lp1198
(g137
I15
tp1199
atp1200
a(g37
(dp1201
g37
F1.0
s(lp1202
(g37
I16
tp1203
atp1204
as.