(dp0
S'fr'
p1
(lp2
(S"l'"
p3
(dp4
S'ADJ'
p5
F0.079749
sS'VERB'
p6
F0.5393100000000001
sS'NOUN'
p7
F0.380941
s(lp8
(S'the'
p9
I0
tp10
atp11
a(S'horrible'
p12
(dp13
S'ADJ'
p14
F1.0
s(lp15
(S'horrifying'
p16
I2
tp17
atp18
a(S'affaire'
p19
(dp20
S'VERB'
p21
F0.06899
sS'NOUN'
p22
F0.93101
s(lp23
(S'case'
p24
I3
tp25
atp26
a(S'r\xc3\xa9cente'
p27
(dp28
S'ADJ'
p29
F1.0
s(lp30
(S'recent'
p31
I1
tp32
atp33
a(S"d'"
p34
(dp35
S'ADJ'
p36
F0.029663
sS'VERB'
p37
F0.37283
sS'NOUN'
p38
F0.597507
s(lp39
(S'of'
p40
I4
tp41
atp42
a(S'une'
p43
(dp44
S'NOUN'
p45
F0.000282
sS'NUM'
p46
F0.018103
sS'DET'
p47
F0.981615
s(lp48
(S'a'
p49
I5
tp50
atp51
a(S'adolescente'
p52
(dp53
S'ADJ'
p54
F0.222652
sS'NOUN'
p55
F0.777348
s(lp56
(S'teenage'
p57
I6
tp58
atp59
a(S'enterr\xc3\xa9e'
p60
(dp61
S'VERB'
p62
F1.0
s(lp63
(S'buried'
p64
I8
tp65
atp66
a(S'vivante'
p67
(dp68
S'NOUN'
p69
F0.058508
sS'ADJ'
p70
F0.941492
s(lp71
(S'alive'
p72
I9
tp73
atp74
a(S'pour'
p75
(dp76
S'CONJ'
p77
F0.204187
sS'ADP'
p78
F0.795813
s(lp79
tp80
a(S'avoir'
p81
(dp82
S'VERB'
p83
F0.99864
sS'NOUN'
p84
F0.00136
s(lp85
(S'for'
p86
I10
tp87
atp88
a(S'parl\xc3\xa9'
p89
(dp90
S'VERB'
p91
F0.995875
sS'ADJ'
p92
F0.004125
s(lp93
(S'talking'
p94
I11
tp95
atp96
a(S'avec'
p97
(dp98
S'ADV'
p99
F0.015226
sS'ADP'
p100
F0.984774
s(lp101
(S'to'
p102
I12
tp103
atp104
a(S'des'
p105
(dp106
S'DET'
p107
F0.000662
sS'ADP'
p108
F0.999338
s(lp109
tp110
a(S'gar\xc3\xa7ons'
p111
(dp112
S'NOUN'
p113
F1.0
s(lp114
(S'boys'
p115
I13
tp116
atp117
a(S'apporte'
p118
(dp119
S'VERB'
p120
F1.0
s(lp121
(S'gives'
p122
I15
tp123
atp124
a(S'de'
p125
(dp126
S'ADP'
p127
F1.0
s(lp128
tp129
a(S"l'"
p130
(dp131
S'ADJ'
p132
F0.160704
sS'VERB'
p133
F0.06480800000000002
sS'NOUN'
p134
F0.774488
s(lp135
tp136
a(S'eau'
p137
(dp138
S'NOUN'
p139
F1.0
s(lp140
(S'ammunition'
p141
I16
tp142
atp143
a(S'au'
p144
(dp145
S'ADP'
p146
F1.0
s(lp147
(g102
I12
tp148
atp149
a(S'moulin'
p150
(dp151
S'NOUN'
p152
F1.0
s(lp153
tp154
a(S'de'
p155
(dp156
S'ADP'
p157
F1.0
s(lp158
(S'to'
p159
I17
tp160
atp161
a(S'ceux'
p162
(dp163
S'PRON'
p164
F1.0
s(lp165
(S'those'
p166
I18
tp167
atp168
a(S'qui'
p169
(dp170
S'PRON'
p171
F1.0
s(lp172
(S'who'
p173
I19
tp174
atp175
a(S'disent'
p176
(dp177
S'VERB'
p178
F1.0
s(lp179
(S'say'
p180
I20
tp181
atp182
a(S'que'
p183
(dp184
S'ADV'
p185
F0.112831
sS'PRON'
p186
F0.035651
sS'CONJ'
p187
F0.851518
s(lp188
(S'that'
p189
I21
tp190
atp191
a(S'la'
p192
(dp193
S'PRON'
p194
F0.000102
sS'DET'
p195
F0.999898
sS'NOUN'
p196
F0.0
s(lp197
tp198
a(S'turquie'
p199
(dp200
S'NOUN'
p201
F1.0
s(lp202
(S'turkey'
p203
I22
tp204
atp205
a(S"n'"
p206
(dp207
S'NOUN'
p208
F0.032441
sS'VERB'
p209
F0.694014
sS'ADJ'
p210
F0.273544
s(lp211
tp212
a(g49
(dp213
S'VERB'
p214
F1.0
s(lp215
(S'has'
p216
I23
tp217
atp218
a(S'pas'
p219
(dp220
S'ADV'
p221
F0.999675
sS'NOUN'
p222
F0.000325
s(lp223
(S'no'
p224
I24
tp225
atp226
a(S'sa'
p227
(dp228
S'PRON'
p229
F1.0
s(lp230
(g141
I16
tp231
atp232
a(S'place'
p233
(dp234
S'VERB'
p235
F3e-06
sS'NOUN'
p236
F0.999997
s(lp237
(S'place'
p238
I25
tp239
atp240
a(S'dans'
p241
(dp242
S'NOUN'
p243
F0.000115
sS'ADP'
p244
F0.999885
s(lp245
(S'in'
p246
I26
tp247
atp248
a(S"l'"
p249
(dp250
S'ADJ'
p251
F0.160717
sS'VERB'
p252
F0.06488100000000001
sS'NOUN'
p253
F0.774403
s(lp254
(S'the'
p255
I27
tp256
atp257
a(S'union'
p258
(dp259
S'NOUN'
p260
F1.0
s(lp261
(S'union'
p262
I29
tp263
atp264
a(S'europ\xc3\xa9enne'
p265
(dp266
S'NOUN'
p267
F0.012852
sS'ADJ'
p268
F0.987148
s(lp269
(S'european'
p270
I28
tp271
atp272
a(S'.'
p273
(dp274
g273
F1.0
s(lp275
(g273
I30
tp276
atp277
asS'en'
p278
(lp279
(g9
(dp280
S'NOUN'
p281
F2e-06
sS'DET'
p282
F0.999998
s(lp283
(g9
I0
tp284
atp285
a(g31
(dp286
S'ADJ'
p287
F1.0
s(lp288
(g31
I1
tp289
atp290
a(g16
(dp291
S'VERB'
p292
F1.0
s(lp293
(g16
I2
tp294
atp295
a(g24
(dp296
S'VERB'
p297
F2.1000000000000002e-05
sS'NOUN'
p298
F0.999979
s(lp299
(g24
I3
tp300
atp301
a(g40
(dp302
S'ADP'
p303
F1.0
s(lp304
(g40
I4
tp305
atp306
a(g49
(dp307
S'NOUN'
p308
F0.0
sS'DET'
p309
F1.0
s(lp310
(g49
I5
tp311
atp312
a(g57
(dp313
S'NOUN'
p314
F0.03529
sS'ADJ'
p315
F0.96471
s(lp316
(g57
I6
tp317
atp318
a(S'girl'
p319
(dp320
S'NOUN'
p321
F1.0
s(lp322
(g319
I7
tp323
atp324
a(g64
(dp325
S'VERB'
p326
F1.0
s(lp327
(g64
I8
tp328
atp329
a(g72
(dp330
S'ADV'
p331
F0.469792
sS'ADJ'
p332
F0.530208
s(lp333
(g72
I9
tp334
atp335
a(g86
(dp336
S'ADP'
p337
F1.0
s(lp338
(g86
I10
tp339
atp340
a(g94
(dp341
S'VERB'
p342
F0.993875
sS'NOUN'
p343
F0.006125
s(lp344
(g94
I11
tp345
atp346
a(g102
(dp347
S'ADV'
p348
F0.0
sS'PRT'
p349
F0.999997
sS'ADP'
p350
F3e-06
s(lp351
(g102
I12
tp352
atp353
a(g115
(dp354
S'NOUN'
p355
F1.0
s(lp356
(g115
I13
tp357
atp358
a(S'simply'
p359
(dp360
S'ADV'
p361
F0.999802
sS'ADJ'
p362
F0.000198
s(lp363
(g359
I14
tp364
atp365
a(g122
(dp366
S'VERB'
p367
F1.0
s(lp368
(g122
I15
tp369
atp370
a(g141
(dp371
S'NOUN'
p372
F1.0
s(lp373
(g141
I16
tp374
atp375
a(g159
(dp376
S'ADV'
p377
F1e-06
sS'PRT'
p378
F0.999989
sS'ADP'
p379
F1.1e-05
s(lp380
(g159
I17
tp381
atp382
a(g166
(dp383
S'NOUN'
p384
F0.000179
sS'DET'
p385
F0.999821
s(lp386
(g166
I18
tp387
atp388
a(g173
(dp389
S'PRON'
p390
F1.0
s(lp391
(g173
I19
tp392
atp393
a(g180
(dp394
S'ADV'
p395
F1.2e-05
sS'VERB'
p396
F0.999895
sS'NOUN'
p397
F9.4e-05
s(lp398
(g180
I20
tp399
atp400
a(g189
(dp401
S'ADV'
p402
F0.000337
sS'DET'
p403
F0.36288499999999996
sS'ADP'
p404
F0.636778
s(lp405
(g189
I21
tp406
atp407
a(g203
(dp408
S'NOUN'
p409
F1.0
s(lp410
(g203
I22
tp411
atp412
a(g216
(dp413
S'VERB'
p414
F1.0
s(lp415
(g216
I23
tp416
atp417
a(g224
(dp418
S'ADV'
p419
F0.041354
sS'NOUN'
p420
F3e-06
sS'DET'
p421
F0.958641
sS'X'
p422
F1e-06
s(lp423
(g224
I24
tp424
atp425
a(g238
(dp426
S'VERB'
p427
F0.010386
sS'NOUN'
p428
F0.989613
s(lp429
(g238
I25
tp430
atp431
a(g246
(dp432
S'ADV'
p433
F0.000213
sS'PRT'
p434
F0.00045
sS'ADP'
p435
F0.999337
s(lp436
(g246
I26
tp437
atp438
a(g255
(dp439
S'NOUN'
p440
F1e-06
sS'DET'
p441
F0.999999
s(lp442
(g255
I27
tp443
atp444
a(g270
(dp445
S'NOUN'
p446
F0.10881199999999999
sS'VERB'
p447
F1.1e-05
sS'ADJ'
p448
F0.891178
s(lp449
(g270
I28
tp450
atp451
a(g262
(dp452
S'NOUN'
p453
F1.0
s(lp454
(g262
I29
tp455
atp456
a(g273
(dp457
g273
F1.0
s(lp458
(g273
I30
tp459
atp460
asS'nl'
p461
(lp462
(S'de'
p463
(dp464
S'DET'
p465
F1.0
s(lp466
(g9
I0
tp467
atp468
a(S'recente'
p469
(dp470
S'NOUN'
p471
F0.001914
sS'ADJ'
p472
F0.998086
s(lp473
(g31
I1
tp474
atp475
a(S'afschuwwekkende'
p476
(dp477
S'NOUN'
p478
F0.007824
sS'ADJ'
p479
F0.992176
s(lp480
(g16
I2
tp481
atp482
a(S'zaak'
p483
(dp484
S'NOUN'
p485
F1.0
s(lp486
(g24
I3
tp487
atp488
a(S'van'
p489
(dp490
S'ADP'
p491
F1.0
s(lp492
(g40
I4
tp493
atp494
a(S'een'
p495
(dp496
S'ADJ'
p497
F1e-06
sS'PRON'
p498
F1.4e-05
sS'NUM'
p499
F0.0
sS'DET'
p500
F0.999985
s(lp501
(g49
I5
tp502
atp503
a(S'tienermeisje'
p504
(dp505
S'NOUN'
p506
F1.0
s(lp507
(g57
I6
tp508
atp509
a(S'dat'
p510
(dp511
S'PRON'
p512
F0.29413500000000004
sS'CONJ'
p513
F0.705865
s(lp514
tp515
a(S'levend'
p516
(dp517
S'VERB'
p518
F0.060628
sS'ADJ'
p519
F0.939372
s(lp520
(g72
I9
tp521
atp522
a(S'werd'
p523
(dp524
S'VERB'
p525
F1.0
s(lp526
(g319
I7
tp527
atp528
a(S'begraven'
p529
(dp530
S'VERB'
p531
F0.999963
sS'NOUN'
p532
F3.8e-05
s(lp533
tp534
a(S'omdat'
p535
(dp536
S'CONJ'
p537
F1.0
s(lp538
tp539
a(S'ze'
p540
(dp541
S'PRON'
p542
F1.0
s(lp543
(g57
I6
tp544
atp545
a(S'met'
p546
(dp547
S'ADP'
p548
F1.0
s(lp549
(g102
I12
tp550
atp551
a(S'jongens'
p552
(dp553
S'NOUN'
p554
F1.0
s(lp555
(g115
I13
tp556
atp557
a(S'had'
p558
(dp559
S'VERB'
p560
F1.0
s(lp561
(g64
I8
tp562
atp563
a(S'gepraat'
p564
(dp565
S'VERB'
p566
F0.999891
sS'NOUN'
p567
F0.000109
s(lp568
(g94
I11
tp569
atp570
a(S','
p571
(dp572
g273
F1.0
s(lp573
tp574
a(S'is'
p575
(dp576
S'VERB'
p577
F1.0
s(lp578
(g122
I15
tp579
atp580
a(S'alleen'
p581
(dp582
S'ADV'
p583
F0.996786
sS'ADJ'
p584
F0.003214
s(lp585
tp586
a(S'maar'
p587
(dp588
S'ADV'
p589
F0.569805
sS'CONJ'
p590
F0.430175
sS'NOUN'
p591
F1.9e-05
s(lp592
(g359
I14
tp593
atp594
a(S'munitie'
p595
(dp596
S'NOUN'
p597
F1.0
s(lp598
(g141
I16
tp599
atp600
a(S'voor'
p601
(dp602
S'ADV'
p603
F0.002671
sS'CONJ'
p604
F1.4e-05
sS'NOUN'
p605
F0.0
sS'ADP'
p606
F0.997315
s(lp607
(g159
I17
tp608
atp609
a(S'degenen'
p610
(dp611
S'PRON'
p612
F1.0
s(lp613
(g166
I18
tp614
atp615
a(S'die'
p616
(dp617
S'PRON'
p618
F1.0
s(lp619
(g173
I19
tp620
atp621
a(S'zeggen'
p622
(dp623
S'VERB'
p624
F0.9932840000000001
sS'NOUN'
p625
F0.006715
s(lp626
(g180
I20
tp627
atp628
a(S'dat'
p629
(dp630
S'PRON'
p631
F0.149313
sS'CONJ'
p632
F0.850687
s(lp633
(g189
I21
tp634
atp635
a(S'er'
p636
(dp637
S'ADV'
p638
F1.0
s(lp639
tp640
a(S'voor'
p641
(dp642
S'ADV'
p643
F0.001292
sS'CONJ'
p644
F0.0
sS'NOUN'
p645
F0.0
sS'ADP'
p646
F0.998708
s(lp647
(g86
I10
tp648
atp649
a(S'turkije'
p650
(dp651
S'ADJ'
p652
F0.001586
sS'NOUN'
p653
F0.9984149999999999
s(lp654
(g203
I22
tp655
atp656
a(S'geen'
p657
(dp658
S'PRON'
p659
F0.99988
sS'DET'
p660
F0.00012
s(lp661
(g224
I24
tp662
atp663
a(S'plaats'
p664
(dp665
S'VERB'
p666
F0.0
sS'NOUN'
p667
F1.0
s(lp668
(g238
I25
tp669
atp670
a(S'is'
p671
(dp672
S'VERB'
p673
F1.0
s(lp674
(g216
I23
tp675
atp676
a(S'in'
p677
(dp678
S'ADV'
p679
F0.020912
sS'VERB'
p680
F0.0
sS'ADP'
p681
F0.979088
s(lp682
(g246
I26
tp683
atp684
a(S'de'
p685
(dp686
S'DET'
p687
F1.0
s(lp688
(g255
I27
tp689
atp690
a(S'europese'
p691
(dp692
S'NOUN'
p693
F1.0
s(lp694
(g270
I28
tp695
atp696
a(S'unie'
p697
(dp698
S'NOUN'
p699
F1.0
s(lp700
(g262
I29
tp701
atp702
a(g273
(dp703
g273
F1.0
s(lp704
(g273
I30
tp705
atp706
asS'de'
p707
(lp708
(S'der'
p709
(dp710
S'PRON'
p711
F0.001502
sS'DET'
p712
F0.998382
s(lp713
(g9
I0
tp714
atp715
a(S'grausame'
p716
(dp717
S'ADJ'
p718
F1.0
s(lp719
(g16
I2
tp720
atp721
a(S'j\xc3\xbcngste'
p722
(dp723
S'ADJ'
p724
F1.0
s(lp725
(g31
I1
tp726
atp727
a(S'fall'
p728
(dp729
S'VERB'
p730
F1.0
s(lp731
(g24
I3
tp732
atp733
a(S'eines'
p734
(dp735
S'PRON'
p736
F0.081733
sS'DET'
p737
F0.916972
s(lp738
(g49
I5
tp739
atp740
a(S'lebendig'
p741
(dp742
S'ADJ'
p743
F1.0
s(lp744
(g72
I9
tp745
atp746
a(S'begrabenen'
p747
(dp748
S'ADJ'
p749
F1.0
s(lp750
(g57
I6
tp751
atp752
a(S'jungen'
p753
(dp754
S'ADJ'
p755
F1.0
s(lp756
(g57
I6
tp757
atp758
a(S'm\xc3\xa4dchens'
p759
(dp760
S'ADJ'
p761
F0.027981
sS'NOUN'
p762
F0.96812
s(lp763
(g319
I7
tp764
atp765
a(g571
(dp766
g273
F1.0
s(lp767
tp768
a(S'dessen'
p769
(dp770
S'PRON'
p771
F0.9974510000000001
s(lp772
(g57
I6
tp773
atp774
a(S'vergehen'
p775
(dp776
S'VERB'
p777
F1.0
s(lp778
(g57
I6
tp779
atp780
a(S'darin'
p781
(dp782
S'ADV'
p783
F1.0
s(lp784
(g57
I6
tp785
atp786
a(S'bestanden'
p787
(dp788
S'VERB'
p789
F0.983073
sS'ADJ'
p790
F0.013515
s(lp791
tp792
a(S'hatte'
p793
(dp794
S'VERB'
p795
F1.0
s(lp796
(g216
I23
tp797
atp798
a(g571
(dp799
g273
F1.0
s(lp800
tp801
a(S'sich'
p802
(dp803
S'PRON'
p804
F1.0
s(lp805
tp806
a(S'mit'
p807
(dp808
S'PRT'
p809
F1.1e-05
sS'ADP'
p810
F0.999989
s(lp811
(g102
I12
tp812
atp813
a(S'jungen'
p814
(dp815
S'ADJ'
p816
F1.0
s(lp817
(g115
I13
tp818
atp819
a(S'zu'
p820
(dp821
S'ADV'
p822
F0.000535
sS'PRT'
p823
F0.999
s(lp824
(g86
I10
tp825
atp826
a(S'unterhalten'
p827
(dp828
S'VERB'
p829
F0.9999910000000001
s(lp830
(g94
I11
tp831
atp832
a(g571
(dp833
g273
F1.0
s(lp834
(g159
I17
tp835
atp836
a(S'liefert'
p837
(dp838
S'VERB'
p839
F1.0
s(lp840
(g122
I15
tp841
atp842
a(S'lediglich'
p843
(dp844
S'ADV'
p845
F1.0
s(lp846
(g359
I14
tp847
atp848
a(S'denjenigen'
p849
(dp850
S'PRON'
p851
F1.0
s(lp852
tp853
a(S'munition'
p854
(dp855
S'VERB'
p856
F0.000953
sS'NOUN'
p857
F0.998045
s(lp858
(g141
I16
tp859
atp860
a(g571
(dp861
g273
F1.0
s(lp862
tp863
a(S'die'
p864
(dp865
S'PRON'
p866
F0.739844
sS'DET'
p867
F0.257857
s(lp868
(g166
I18
tp869
atp870
a(S'keinen'
p871
(dp872
S'PRON'
p873
F1.0
s(lp874
(g224
I24
tp875
atp876
a(S'platz'
p877
(dp878
S'VERB'
p879
F1.0
s(lp880
(g238
I25
tp881
atp882
a(S'f\xc3\xbcr'
p883
(dp884
S'ADP'
p885
F1.0
s(lp886
(g159
I17
tp887
atp888
a(S'die'
p889
(dp890
S'PRON'
p891
F0.000157
sS'DET'
p892
F0.999708
s(lp893
(g173
I19
tp894
atp895
a(S't\xc3\xbcrkei'
p896
(dp897
S'ADJ'
p898
F0.010216
sS'NOUN'
p899
F0.983295
s(lp900
(g203
I22
tp901
atp902
a(S'in'
p903
(dp904
S'ADP'
p905
F1.0
s(lp906
(g246
I26
tp907
atp908
a(S'der'
p909
(dp910
S'PRON'
p911
F0.000352
sS'DET'
p912
F0.999554
s(lp913
(g255
I27
tp914
atp915
a(S'eu'
p916
(dp917
S'ADJ'
p918
F0.282934
sS'NOUN'
p919
F0.527578
s(lp920
(g262
I29
tp921
atp922
a(S'sehen'
p923
(dp924
S'VERB'
p925
F1.0
s(lp926
(g57
I6
tp927
atp928
a(g273
(dp929
g273
F1.0
s(lp930
(g273
I30
tp931
atp932
asS'it'
p933
(lp934
(S'il'
p935
(dp936
S'DET'
p937
F1.0
s(lp938
(g9
I0
tp939
atp940
a(S'grave'
p941
(dp942
S'NOUN'
p943
F0.028647
sS'ADJ'
p944
F0.971353
s(lp945
tp946
a(S'caso'
p947
(dp948
S'NOUN'
p949
F1.0
s(lp950
(g24
I3
tp951
atp952
a(S'verificatosi'
p953
(dp954
S'VERB'
p955
F1.0
s(lp956
(g16
I2
tp957
atp958
a(S'di'
p959
(dp960
S'CONJ'
p961
F5e-06
sS'ADP'
p962
F0.999995
s(lp963
tp964
a(S'recente'
p965
(dp966
S'VERB'
p967
F0.054296
sS'ADJ'
p968
F0.945704
s(lp969
(g31
I1
tp970
atp971
a(S'di'
p972
(dp973
S'CONJ'
p974
F1.8e-05
sS'ADP'
p975
F0.999982
s(lp976
(g40
I4
tp977
atp978
a(S'una'
p979
(dp980
S'PRON'
p981
F0.000159
sS'DEF'
p982
F0.999841
s(lp983
(g49
I5
tp984
atp985
a(S'ragazza'
p986
(dp987
S'NOUN'
p988
F1.0
s(lp989
(g319
I7
tp990
atp991
a(S'che'
p992
(dp993
S'PRON'
p994
F0.960049
sS'CONJ'
p995
F0.0391
sS'ADJ'
p996
F0.000851
s(lp997
tp998
a(S'\xc3\xa8'
p999
(dp1000
S'VERB'
p1001
F1.0
s(lp1002
tp1003
a(S'stata'
p1004
(dp1005
S'VERB'
p1006
F1.0
s(lp1007
tp1008
a(S'sepolta'
p1009
(dp1010
S'ADJ'
p1011
F0.367061
sS'NOUN'
p1012
F0.632939
s(lp1013
(g64
I8
tp1014
atp1015
a(S'viva'
p1016
(dp1017
S'NOUN'
p1018
F0.050162
sS'VERB'
p1019
F0.066434
sS'ADJ'
p1020
F0.883123
sg422
F0.000282
s(lp1021
(g72
I9
tp1022
atp1023
a(S'per'
p1024
(dp1025
S'CONJ'
p1026
F0.005791
sS'ADP'
p1027
F0.994209
s(lp1028
(g86
I10
tp1029
atp1030
a(S'aver'
p1031
(dp1032
S'VERB'
p1033
F1.0
s(lp1034
(g115
I13
tp1035
atp1036
a(S'parlato'
p1037
(dp1038
S'NOUN'
p1039
F0.001875
sS'VERB'
p1040
F0.995301
sS'ADJ'
p1041
F0.002824
s(lp1042
(g94
I11
tp1043
atp1044
a(S'con'
p1045
(dp1046
S'ADP'
p1047
F1.0
s(lp1048
(g102
I12
tp1049
atp1050
a(S'dei'
p1051
(dp1052
S'NOUN'
p1053
F0.000258
sS'DEF'
p1054
F0.382243
sS'ADP'
p1055
F0.617499
s(lp1056
tp1057
a(S'ragazzi'
p1058
(dp1059
S'NOUN'
p1060
F1.0
s(lp1061
(g115
I13
tp1062
atp1063
a(S'aggiunge'
p1064
(dp1065
S'VERB'
p1066
F1.0
s(lp1067
(g141
I16
tp1068
atp1069
a(S'frecce'
p1070
(dp1071
S'NOUN'
p1072
F1.0
s(lp1073
(g141
I16
tp1074
atp1075
a(S"all'"
p1076
(dp1077
S'ADJ'
p1078
F0.040682
sS'VERB'
p1079
F0.006560999999999999
sS'NOUN'
p1080
F0.952757
s(lp1081
tp1082
a(S'arco'
p1083
(dp1084
S'NOUN'
p1085
F1.0
s(lp1086
(g141
I16
tp1087
atp1088
a(S'di'
p1089
(dp1090
S'CONJ'
p1091
F0.004386
sS'ADP'
p1092
F0.995614
s(lp1093
(g159
I17
tp1094
atp1095
a(S'coloro'
p1096
(dp1097
S'PRON'
p1098
F0.013169
sS'VERB'
p1099
F0.986831
s(lp1100
(g166
I18
tp1101
atp1102
a(S'che'
p1103
(dp1104
S'PRON'
p1105
F0.994342
sS'CONJ'
p1106
F0.005393
sS'ADJ'
p1107
F0.000265
s(lp1108
(g173
I19
tp1109
atp1110
a(S'dicono'
p1111
(dp1112
S'VERB'
p1113
F1.0
s(lp1114
(g180
I20
tp1115
atp1116
a(S'che'
p1117
(dp1118
S'PRON'
p1119
F0.95772
sS'CONJ'
p1120
F0.036274
sS'ADJ'
p1121
F0.006005
s(lp1122
tp1123
a(S'per'
p1124
(dp1125
S'CONJ'
p1126
F0.003571
sS'ADP'
p1127
F0.996429
s(lp1128
(g189
I21
tp1129
atp1130
a(S'la'
p1131
(dp1132
S'PRON'
p1133
F0.00084
sS'DET'
p1134
F0.99916
s(lp1135
tp1136
a(S'turchia'
p1137
(dp1138
S'ADJ'
p1139
F0.043464
sS'VERB'
p1140
F0.000914
sS'NOUN'
p1141
F0.955622
s(lp1142
(g203
I22
tp1143
atp1144
a(S'non'
p1145
(dp1146
S'ADV'
p1147
F1.0
s(lp1148
tp1149
a(S"c'"
p1150
(dp1151
S'NOUN'
p1152
F1.0
s(lp1153
(g224
I24
tp1154
atp1155
a(S'\xc3\xa8'
p1156
(dp1157
S'VERB'
p1158
F1.0
s(lp1159
(g216
I23
tp1160
atp1161
a(S'posto'
p1162
(dp1163
S'NOUN'
p1164
F0.000501
sS'VERB'
p1165
F0.998494
sS'ADJ'
p1166
F0.001006
s(lp1167
(g238
I25
tp1168
atp1169
a(S"nell'"
p1170
(dp1171
S'ADJ'
p1172
F0.002112
sS'VERB'
p1173
F0.01185
sS'NOUN'
p1174
F0.986037
s(lp1175
(g246
I26
tp1176
atp1177
a(S'unione'
p1178
(dp1179
S'NOUN'
p1180
F1.0
s(lp1181
(g262
I29
tp1182
atp1183
a(S'europea'
p1184
(dp1185
S'NOUN'
p1186
F0.001561
sS'ADJ'
p1187
F0.998439
s(lp1188
(g270
I28
tp1189
atp1190
a(g273
(dp1191
g273
F1.0
s(lp1192
(g273
I30
tp1193
atp1194
asS'sk'
p1195
(lp1196
(S'ned\xc3\xa1vny'
p1197
(dp1198
S'ADJ'
p1199
F1.0
s(lp1200
(g31
I1
tp1201
atp1202
a(S'otrasn\xc3\xbd'
p1203
(dp1204
S'ADJ'
p1205
F1.0
s(lp1206
(g16
I2
tp1207
atp1208
a(S'pr\xc3\xadpad'
p1209
(dp1210
S'NOUN'
p1211
F1.0
s(lp1212
(g24
I3
tp1213
atp1214
a(S'mlad\xc3\xa9ho'
p1215
(dp1216
S'NOUN'
p1217
F0.001362
sS'ADJ'
p1218
F0.998638
s(lp1219
(g57
I6
tp1220
atp1221
a(S'diev\xc4\x8da\xc5\xa5a'
p1222
(dp1223
S'NOUN'
p1224
F1.0
s(lp1225
(g319
I7
tp1226
atp1227
a(g571
(dp1228
g273
F1.0
s(lp1229
tp1230
a(S'ktor\xc3\xa9'
p1231
(dp1232
S'PRON'
p1233
F1.0
s(lp1234
(g319
I7
tp1235
atp1236
a(S'bolo'
p1237
(dp1238
S'VERB'
p1239
F0.999999
s(lp1240
tp1241
a(S'pochovan\xc3\xa9'
p1242
(dp1243
S'VERB'
p1244
F1.0
s(lp1245
(g64
I8
tp1246
atp1247
a(S'za\xc5\xbeiva'
p1248
(dp1249
S'ADV'
p1250
F1.0
s(lp1251
(g72
I9
tp1252
atp1253
a(S'len'
p1254
(dp1255
g422
F0.968305
sS'CONJ'
p1256
F0.031695
s(lp1257
(g359
I14
tp1258
atp1259
a(S'kv\xc3\xb4li'
p1260
(dp1261
S'ADV'
p1262
F0.000714
sS'ADP'
p1263
F0.999286
s(lp1264
(g57
I6
tp1265
atp1266
a(S'tomu'
p1267
(dp1268
S'PRON'
p1269
F0.999571
sg422
F0.000429
s(lp1270
(g122
I15
tp1271
atp1272
a(g571
(dp1273
g273
F1.0
s(lp1274
tp1275
a(S'\xc5\xbee'
p1276
(dp1277
g422
F0.000113
sS'CONJ'
p1278
F0.999887
s(lp1279
tp1280
a(S'sa'
p1281
(dp1282
S'PRT'
p1283
F0.999981
sS'ADP'
p1284
F0.0
sg422
F1.8e-05
s(lp1285
(g159
I17
tp1286
atp1287
a(S'rozpr\xc3\xa1valo'
p1288
(dp1289
S'VERB'
p1290
F1.0
s(lp1291
(g57
I6
tp1292
atp1293
a(S's'
p1294
(dp1295
g422
F0.000962
sS'CONJ'
p1296
F3.5e-05
sS'NOUN'
p1297
F1.4999999999999999e-05
sS'ADP'
p1298
F0.998975
sS'PRT'
p1299
F1.3e-05
s(lp1300
(g102
I12
tp1301
atp1302
a(S'chlapcami'
p1303
(dp1304
S'NOUN'
p1305
F1.0
s(lp1306
(g115
I13
tp1307
atp1308
a(g571
(dp1309
g273
F1.0
s(lp1310
tp1311
a(S'jasne'
p1312
(dp1313
S'ADV'
p1314
F0.999215
sS'ADJ'
p1315
F0.000187
sS'NOUN'
p1316
F0.000598
s(lp1317
tp1318
a(S'nahr\xc3\xa1va'
p1319
(dp1320
S'VERB'
p1321
F1.0
s(lp1322
(g319
I7
tp1323
atp1324
a(S'na'
p1325
(dp1326
g422
F0.000115
sS'CONJ'
p1327
F4e-06
sS'ADP'
p1328
F0.999879
sS'PRT'
p1329
F2e-06
s(lp1330
(g86
I10
tp1331
atp1332
a(S'sme\xc4\x8d'
p1333
(dp1334
S'NOUN'
p1335
F1.0
s(lp1336
(g57
I6
tp1337
atp1338
a(S't\xc3\xbdm'
p1339
(dp1340
S'PRON'
p1341
F0.9808190000000001
sS'CONJ'
p1342
F0.019181
s(lp1343
(g166
I18
tp1344
atp1345
a(g571
(dp1346
g273
F1.0
s(lp1347
tp1348
a(S'ktor\xc3\xad'
p1349
(dp1350
S'PRON'
p1351
F1.0
s(lp1352
(g173
I19
tp1353
atp1354
a(S'vyhlasuj\xc3\xba'
p1355
(dp1356
S'VERB'
p1357
F1.0
s(lp1358
(g180
I20
tp1359
atp1360
a(g571
(dp1361
g273
F1.0
s(lp1362
tp1363
a(S'\xc5\xbee'
p1364
(dp1365
g422
F0.000554
sS'CONJ'
p1366
F0.999446
s(lp1367
(g189
I21
tp1368
atp1369
a(S'turecko'
p1370
(dp1371
g422
F1.0
s(lp1372
(g203
I22
tp1373
atp1374
a(S'nem\xc3\xa1'
p1375
(dp1376
S'ADJ'
p1377
F0.000936
sg422
F0.003797
sS'VERB'
p1378
F0.993471
sS'NOUN'
p1379
F0.001796
s(lp1380
(g224
I24
tp1381
atp1382
a(S'v'
p1383
(dp1384
g422
F0.000236
sS'ADP'
p1385
F0.999764
s(lp1386
(g246
I26
tp1387
atp1388
a(S'eur\xc3\xb3pskej'
p1389
(dp1390
S'ADJ'
p1391
F1.0
s(lp1392
(g270
I28
tp1393
atp1394
a(S'\xc3\xbanii'
p1395
(dp1396
S'NOUN'
p1397
F1.0
s(lp1398
(g262
I29
tp1399
atp1400
a(S'miesto'
p1401
(dp1402
S'NOUN'
p1403
F0.999931
sS'ADP'
p1404
F6.9e-05
s(lp1405
(g238
I25
tp1406
atp1407
a(g273
(dp1408
g273
F1.0
s(lp1409
(g273
I30
tp1410
atp1411
asS'pl'
p1412
(lp1413
(S'ostatni'
p1414
(dp1415
S'NOUN'
p1416
F0.000112
sS'ADJ'
p1417
F0.999887
s(lp1418
(g31
I1
tp1419
atp1420
a(S'przera\xc5\xbcaj\xc4\x85cy'
p1421
(dp1422
S'VERB'
p1423
F0.002634
sS'ADJ'
p1424
F0.997366
s(lp1425
(g16
I2
tp1426
atp1427
a(S'przypadek'
p1428
(dp1429
S'NOUN'
p1430
F1.0
s(lp1431
(g24
I3
tp1432
atp1433
a(S'nastolatki'
p1434
(dp1435
S'NOUN'
p1436
F1.000001
s(lp1437
(g57
I6
tp1438
atp1439
a(S'pogrzebanej'
p1440
(dp1441
S'ADV'
p1442
F0.000646
sS'NOUN'
p1443
F0.006541999999999998
sS'VERB'
p1444
F0.47259400000000007
sS'ADJ'
p1445
F0.5202180000000001
s(lp1446
(g319
I7
tp1447
atp1448
a(S'\xc5\xbcywcem'
p1449
(dp1450
S'ADV'
p1451
F0.33517
sS'NOUN'
p1452
F0.66483
s(lp1453
(g72
I9
tp1454
atp1455
a(S'za'
p1456
(dp1457
S'PRT'
p1458
F0.014111
sS'VERB'
p1459
F0.000191
sS'NOUN'
p1460
F1.5e-05
sS'ADP'
p1461
F0.9856800000000001
sg422
F1e-06
s(lp1462
(g86
I10
tp1463
atp1464
a(S'rozmawianie'
p1465
(dp1466
S'ADV'
p1467
F0.078666
sS'ADJ'
p1468
F0.0009580000000000001
sS'VERB'
p1469
F0.334465
sS'NOUN'
p1470
F0.5859130000000001
s(lp1471
(g94
I11
tp1472
atp1473
a(S'z'
p1474
(dp1475
S'PRT'
p1476
F5e-06
sS'VERB'
p1477
F0.0
sS'NOUN'
p1478
F0.0
sS'ADP'
p1479
F0.999995
sg422
F0.0
s(lp1480
(g102
I12
tp1481
atp1482
a(S'ch\xc5\x82opcami'
p1483
(dp1484
S'NOUN'
p1485
F1.0
s(lp1486
(g115
I13
tp1487
atp1488
a(S'daje'
p1489
(dp1490
S'VERB'
p1491
F1.0
s(lp1492
(g122
I15
tp1493
atp1494
a(S'mocne'
p1495
(dp1496
S'ADJ'
p1497
F0.9999999999999999
s(lp1498
(g141
I16
tp1499
atp1500
a(S'argumenty'
p1501
(dp1502
S'NOUN'
p1503
F1.0
s(lp1504
tp1505
a(S'osobom'
p1506
(dp1507
S'NOUN'
p1508
F1.0
s(lp1509
(g166
I18
tp1510
atp1511
a(S'twierdz\xc4\x85cym'
p1512
(dp1513
S'ADV'
p1514
F0.000223
sS'NOUN'
p1515
F0.021832000000000004
sS'VERB'
p1516
F0.9418830000000001
sS'ADJ'
p1517
F0.03606100000000002
s(lp1518
(g319
I7
tp1519
atp1520
a(g571
(dp1521
g422
F0.0
sg273
F1.0
s(lp1522
tp1523
a(S'\xc5\xbce'
p1524
(dp1525
S'PRT'
p1526
F0.000405
sS'CONJ'
p1527
F0.999594
s(lp1528
(g189
I21
tp1529
atp1530
a(S'w'
p1531
(dp1532
S'ADJ'
p1533
F0.000261
sS'NOUN'
p1534
F0.000361
sS'ADP'
p1535
F0.999368
sg422
F9.999999999999999e-06
s(lp1536
(g246
I26
tp1537
atp1538
a(S'unii'
p1539
(dp1540
S'NOUN'
p1541
F1.0
s(lp1542
(g262
I29
tp1543
atp1544
a(S'europejskiej'
p1545
(dp1546
S'ADJ'
p1547
F1.0
s(lp1548
(g270
I28
tp1549
atp1550
a(S'nie'
p1551
(dp1552
S'ADV'
p1553
F2e-05
sS'PRT'
p1554
F0.965667
sS'CONJ'
p1555
F0.034097
sS'NOUN'
p1556
F2.7e-05
sS'PRON'
p1557
F0.000189
s(lp1558
(g224
I24
tp1559
atp1560
a(S'ma'
p1561
(dp1562
S'VERB'
p1563
F0.999292
sS'NOUN'
p1564
F0.000176
sS'ADP'
p1565
F0.000532
s(lp1566
(g216
I23
tp1567
atp1568
a(S'miejsca'
p1569
(dp1570
S'NOUN'
p1571
F1.0
s(lp1572
(g238
I25
tp1573
atp1574
a(S'dla'
p1575
(dp1576
S'ADP'
p1577
F1.0
s(lp1578
(g159
I17
tp1579
atp1580
a(S'turcji'
p1581
(dp1582
S'ADJ'
p1583
F0.0
sS'VERB'
p1584
F0.0
sS'NOUN'
p1585
F0.999999
s(lp1586
(g203
I22
tp1587
atp1588
a(g273
(dp1589
g273
F1.0
s(lp1590
(g273
I30
tp1591
atp1592
asS'sl'
p1593
(lp1594
(S'nedavni'
p1595
(dp1596
S'ADJ'
p1597
F1.0
s(lp1598
(g31
I1
tp1599
atp1600
a(S'grozljivi'
p1601
(dp1602
S'ADJ'
p1603
F1.0
s(lp1604
(g16
I2
tp1605
atp1606
a(S'primer'
p1607
(dp1608
S'NOUN'
p1609
F1.0
s(lp1610
(g24
I3
tp1611
atp1612
a(S'najstnice'
p1613
(dp1614
S'NOUN'
p1615
F1.0
s(lp1616
(g57
I6
tp1617
atp1618
a(g571
(dp1619
g273
F1.0
s(lp1620
tp1621
a(S'ki'
p1622
(dp1623
S'CONJ'
p1624
F1.0
s(lp1625
(g40
I4
tp1626
atp1627
a(S'je'
p1628
(dp1629
S'PRON'
p1630
F0.000133
sS'VERB'
p1631
F0.9998670000000001
sg422
F0.0
s(lp1632
(g49
I5
tp1633
atp1634
a(S'bila'
p1635
(dp1636
S'VERB'
p1637
F1.0
s(lp1638
(g319
I7
tp1639
atp1640
a(S'\xc5\xbeiva'
p1641
(dp1642
S'ADJ'
p1643
F1.0
s(lp1644
(g72
I9
tp1645
atp1646
a(S'pokopana'
p1647
(dp1648
S'ADJ'
p1649
F1.0
s(lp1650
(g64
I8
tp1651
atp1652
a(S'zaradi'
p1653
(dp1654
S'ADP'
p1655
F1.0
s(lp1656
tp1657
a(S'tega'
p1658
(dp1659
S'PRON'
p1660
F1.0
s(lp1661
(g64
I8
tp1662
atp1663
a(g571
(dp1664
g273
F1.0
s(lp1665
tp1666
a(S'ker'
p1667
(dp1668
S'CONJ'
p1669
F1.0
s(lp1670
(g86
I10
tp1671
atp1672
a(S'je'
p1673
(dp1674
S'PRON'
p1675
F0.000495
sS'VERB'
p1676
F0.999505
sg422
F0.0
s(lp1677
(g216
I23
tp1678
atp1679
a(S'govorila'
p1680
(dp1681
S'VERB'
p1682
F1.0
s(lp1683
(g94
I11
tp1684
atp1685
a(g1294
(dp1686
S'VERB'
p1687
F4e-06
sS'NOUN'
p1688
F8e-06
sS'ADP'
p1689
F0.999987
s(lp1690
(g102
I12
tp1691
atp1692
a(S'fanti'
p1693
(dp1694
S'NOUN'
p1695
F1.0
s(lp1696
(g115
I13
tp1697
atp1698
a(g571
(dp1699
g273
F1.0
s(lp1700
tp1701
a(S'zagotavlja'
p1702
(dp1703
S'VERB'
p1704
F1.0
s(lp1705
(g122
I15
tp1706
atp1707
a(S'strelivo'
p1708
(dp1709
S'NOUN'
p1710
F1.0
s(lp1711
(g141
I16
tp1712
atp1713
a(S'za'
p1714
(dp1715
S'ADV'
p1716
F1.9e-05
sg422
F1e-06
sS'ADP'
p1717
F0.99998
s(lp1718
(g159
I17
tp1719
atp1720
a(S'tiste'
p1721
(dp1722
S'PRON'
p1723
F1.000001
s(lp1724
(g166
I18
tp1725
atp1726
a(g571
(dp1727
g273
F1.0
s(lp1728
tp1729
a(S'ki'
p1730
(dp1731
S'CONJ'
p1732
F1.0
s(lp1733
(g173
I19
tp1734
atp1735
a(S'pravijo'
p1736
(dp1737
S'VERB'
p1738
F1.0
s(lp1739
(g180
I20
tp1740
atp1741
a(g571
(dp1742
g273
F1.0
s(lp1743
tp1744
a(S'da'
p1745
(dp1746
S'PRT'
p1747
F3.6e-05
sS'CONJ'
p1748
F0.999674
sS'VERB'
p1749
F0.000284
sg422
F6e-06
s(lp1750
(g189
I21
tp1751
atp1752
a(S'tur\xc4\x8diji'
p1753
(dp1754
S'ADV'
p1755
F0.016384
sS'ADJ'
p1756
F0.010221
sS'VERB'
p1757
F0.0020499999999999997
sS'NOUN'
p1758
F0.9713459999999999
s(lp1759
(g203
I22
tp1760
atp1761
a(S'ni'
p1762
(dp1763
S'VERB'
p1764
F1.0
s(lp1765
(g224
I24
tp1766
atp1767
a(S'mesto'
p1768
(dp1769
S'NOUN'
p1770
F1.0
s(lp1771
(g238
I25
tp1772
atp1773
a(g1383
(dp1774
S'ADP'
p1775
F1.0
s(lp1776
(g246
I26
tp1777
atp1778
a(S'evropski'
p1779
(dp1780
S'ADJ'
p1781
F1.0
s(lp1782
(g270
I28
tp1783
atp1784
a(S'uniji'
p1785
(dp1786
S'NOUN'
p1787
F1.0
s(lp1788
(g262
I29
tp1789
atp1790
a(g273
(dp1791
g273
F1.0
s(lp1792
(g273
I30
tp1793
atp1794
asS'es'
p1795
(lp1796
(S'el'
p1797
(dp1798
S'PRON'
p1799
F0.000299
sS'DET'
p1800
F0.999701
s(lp1801
(g9
I0
tp1802
atp1803
a(S'espantoso'
p1804
(dp1805
S'ADJ'
p1806
F1.0
s(lp1807
(g16
I2
tp1808
atp1809
a(S'caso'
p1810
(dp1811
S'NOUN'
p1812
F1.0
s(lp1813
(g24
I3
tp1814
atp1815
a(S'reciente'
p1816
(dp1817
S'ADJ'
p1818
F1.0
s(lp1819
(g31
I1
tp1820
atp1821
a(S'de'
p1822
(dp1823
g422
F0.0
sS'CONJ'
p1824
F5.7e-05
sS'ADP'
p1825
F0.999943
s(lp1826
(g40
I4
tp1827
atp1828
a(S'una'
p1829
(dp1830
S'DET'
p1831
F1.0
s(lp1832
(g49
I5
tp1833
atp1834
a(S'adolescente'
p1835
(dp1836
S'ADJ'
p1837
F0.262989
sS'NOUN'
p1838
F0.737011
s(lp1839
(g57
I6
tp1840
atp1841
a(S'que'
p1842
(dp1843
g422
F0.0
sS'CONJ'
p1844
F1.0
s(lp1845
tp1846
a(S'fue'
p1847
(dp1848
S'VERB'
p1849
F1.0
s(lp1850
(g319
I7
tp1851
atp1852
a(S'enterrada'
p1853
(dp1854
S'VERB'
p1855
F1.0
s(lp1856
(g64
I8
tp1857
atp1858
a(S'viva'
p1859
(dp1860
S'NOUN'
p1861
F0.17082399999999998
sS'VERB'
p1862
F0.594949
sS'ADJ'
p1863
F0.234228
s(lp1864
(g72
I9
tp1865
atp1866
a(S'por'
p1867
(dp1868
S'ADP'
p1869
F1.0
s(lp1870
(g86
I10
tp1871
atp1872
a(S'hablar'
p1873
(dp1874
S'VERB'
p1875
F1.0
s(lp1876
(g94
I11
tp1877
atp1878
a(S'con'
p1879
(dp1880
S'ADP'
p1881
F1.0
s(lp1882
(g102
I12
tp1883
atp1884
a(S'unos'
p1885
(dp1886
S'DET'
p1887
F1.0
s(lp1888
tp1889
a(S'chicos'
p1890
(dp1891
S'ADJ'
p1892
F0.449001
sS'NOUN'
p1893
F0.550999
s(lp1894
(g115
I13
tp1895
atp1896
a(g571
(dp1897
g273
F1.0
s(lp1898
tp1899
a(S'simplemente'
p1900
(dp1901
S'ADV'
p1902
F1.0
s(lp1903
(g359
I14
tp1904
atp1905
a(S'da'
p1906
(dp1907
S'VERB'
p1908
F1.0
s(lp1909
(g122
I15
tp1910
atp1911
a(S'argumentos'
p1912
(dp1913
S'NOUN'
p1914
F1.0
s(lp1915
(g141
I16
tp1916
atp1917
a(g49
(dp1918
g422
F4.4e-05
sS'CONJ'
p1919
F4e-06
sS'ADP'
p1920
F0.999952
s(lp1921
(g159
I17
tp1922
atp1923
a(S'aquellos'
p1924
(dp1925
S'PRON'
p1926
F1.0
s(lp1927
(g166
I18
tp1928
atp1929
a(S'que'
p1930
(dp1931
g422
F0.0
sS'CONJ'
p1932
F1.0
s(lp1933
(g173
I19
tp1934
atp1935
a(S'dicen'
p1936
(dp1937
S'VERB'
p1938
F1.0
s(lp1939
(g180
I20
tp1940
atp1941
a(S'que'
p1942
(dp1943
g422
F0.0
sS'CONJ'
p1944
F1.0
s(lp1945
(g189
I21
tp1946
atp1947
a(S'no'
p1948
(dp1949
S'ADV'
p1950
F1.0
sg422
F0.0
s(lp1951
(g224
I24
tp1952
atp1953
a(S'hay'
p1954
(dp1955
S'VERB'
p1956
F1.0
s(lp1957
(g216
I23
tp1958
atp1959
a(S'lugar'
p1960
(dp1961
S'NOUN'
p1962
F1.0
s(lp1963
(g238
I25
tp1964
atp1965
a(S'para'
p1966
(dp1967
S'CONJ'
p1968
F0.017262
sS'ADP'
p1969
F0.982738
s(lp1970
tp1971
a(S'turqu\xc3\xada'
p1972
(dp1973
S'VERB'
p1974
F0.001985
sS'NOUN'
p1975
F0.998015
s(lp1976
(g203
I22
tp1977
atp1978
a(S'en'
p1979
(dp1980
g422
F0.0
sS'CONJ'
p1981
F0.0
sS'ADP'
p1982
F1.0
s(lp1983
(g246
I26
tp1984
atp1985
a(S'la'
p1986
(dp1987
S'NOUN'
p1988
F0.0
sS'PRON'
p1989
F0.0
sS'DET'
p1990
F0.999999
sg422
F0.0
s(lp1991
(g255
I27
tp1992
atp1993
a(S'uni\xc3\xb3n'
p1994
(dp1995
S'NOUN'
p1996
F1.0
s(lp1997
(g262
I29
tp1998
atp1999
a(S'europea'
p2000
(dp2001
S'ADJ'
p2002
F1.0
s(lp2003
(g270
I28
tp2004
atp2005
a(g273
(dp2006
g273
F1.0
s(lp2007
(g273
I30
tp2008
atp2009
as.