(dp0
S'fr'
p1
(lp2
(S'ils'
p3
(dp4
S'PRON'
p5
F1.0
s(lp6
(S'they'
p7
I0
tp8
atp9
a(S'\xc3\xa9voquent'
p10
(dp11
S'VERB'
p12
F1.0
s(lp13
(S'speak'
p14
I1
tp15
atp16
a(S'la'
p17
(dp18
S'PRON'
p19
F2.6e-05
sS'DET'
p20
F0.999974
sS'NOUN'
p21
F0.0
s(lp22
(S'the'
p23
I3
tp24
atp25
a(S'd\xc3\xa9tention'
p26
(dp27
S'NOUN'
p28
F1.0
s(lp29
(S'imprisonment'
p30
I4
tp31
atp32
a(S'de'
p33
(dp34
S'ADP'
p35
F1.0
s(lp36
(S'of'
p37
I5
tp38
atp39
a(S'parlementaires'
p40
(dp41
S'NOUN'
p42
F0.33391
sS'ADJ'
p43
F0.66609
s(lp44
(S'parliamentarians'
p45
I6
tp46
atp47
a(S','
p48
(dp49
S'.'
p50
F1.0
s(lp51
(g48
I7
tp52
atp53
a(S'des'
p54
(dp55
S'DET'
p56
F0.000291
sS'ADP'
p57
F0.999709
s(lp58
tp59
a(S'assassinats'
p60
(dp61
S'NOUN'
p62
F1.0
s(lp63
(S'assassinations'
p64
I8
tp65
atp66
a(g48
(dp67
g50
F1.0
s(lp68
(g48
I9
tp69
atp70
a(S'les'
p71
(dp72
S'PRON'
p73
F0.000333
sS'DET'
p74
F0.999645
sS'ADP'
p75
F2.2e-05
s(lp76
tp77
a(S'conditions'
p78
(dp79
S'NOUN'
p80
F1.0
s(lp81
(S'conditions'
p82
I11
tp83
atp84
a(S'de'
p85
(dp86
S'ADP'
p87
F1.0
s(lp88
(S'in'
p89
I12
tp90
atp91
a(S'd\xc3\xa9tention'
p92
(dp93
S'NOUN'
p94
F1.0
s(lp95
(S'prisons'
p96
I13
tp97
atp98
a(S'effroyables'
p99
(dp100
S'ADJ'
p101
F1.0
s(lp102
(S'terrible'
p103
I10
tp104
atp105
a(S'des'
p106
(dp107
S'DET'
p108
F2.2e-05
sS'ADP'
p109
F0.999978
s(lp110
(S'for'
p111
I14
tp112
atp113
a(S'prisonniers'
p114
(dp115
S'NOUN'
p116
F1.0
s(lp117
(S'prisoners'
p118
I16
tp119
atp120
a(S'politiques'
p121
(dp122
S'NOUN'
p123
F0.000812
sS'VERB'
p124
F8.3e-05
sS'ADJ'
p125
F0.999106
s(lp126
(S'political'
p127
I15
tp128
atp129
a(S'et'
p130
(dp131
S'CONJ'
p132
F1.0
s(lp133
(S'and'
p134
I17
tp135
atp136
a(S'la'
p137
(dp138
S'PRON'
p139
F0.003632
sS'DET'
p140
F0.996367
sS'NOUN'
p141
F1e-06
s(lp142
(S'a'
p143
I18
tp144
atp145
a(S'mise'
p146
(dp147
S'ADJ'
p148
F0.046243
sS'VERB'
p149
F0.006518
sS'NOUN'
p150
F0.947239
s(lp151
tp152
a(S'\xc3\xa0'
p153
(dp154
S'ADP'
p155
F1.0
s(lp156
tp157
a(S'sac'
p158
(dp159
S'NOUN'
p160
F1.0
s(lp161
(S'catastrophic'
p162
I19
tp163
atp164
a(S'de'
p165
(dp166
S'ADP'
p167
F1.0
s(lp168
(S'for'
p169
I21
tp170
atp171
a(S'la'
p172
(dp173
S'PRON'
p174
F1.2e-05
sS'DET'
p175
F0.999988
sS'NOUN'
p176
F0.0
s(lp177
tp178
a(S'civilisation'
p179
(dp180
S'NOUN'
p181
F1.0
s(lp182
(S'civilisation'
p183
I22
tp184
atp185
a(S'de'
p186
(dp187
S'ADP'
p188
F1.0
s(lp189
(S'in'
p190
I23
tp191
atp192
a(S'ce'
p193
(dp194
S'PRON'
p195
F1.0
s(lp196
(S'that'
p197
I24
tp198
atp199
a(S'pays'
p200
(dp201
S'NOUN'
p202
F1.0
s(lp203
(S'country'
p204
I25
tp205
atp206
a(g50
(dp207
g50
F1.0
s(lp208
(g50
I26
tp209
atp210
asS'en'
p211
(lp212
(g7
(dp213
S'PRON'
p214
F1.0
s(lp215
(g7
I0
tp216
atp217
a(g14
(dp218
S'VERB'
p219
F1.0
s(lp220
(g14
I1
tp221
atp222
a(S'of'
p223
(dp224
S'ADP'
p225
F1.0
s(lp226
(g223
I2
tp227
atp228
a(g23
(dp229
S'NOUN'
p230
F1e-06
sS'DET'
p231
F0.999999
s(lp232
(g23
I3
tp233
atp234
a(g30
(dp235
S'NOUN'
p236
F1.0
s(lp237
(g30
I4
tp238
atp239
a(g37
(dp240
S'ADP'
p241
F1.0
s(lp242
(g37
I5
tp243
atp244
a(g45
(dp245
S'NOUN'
p246
F1.0
s(lp247
(g45
I6
tp248
atp249
a(g48
(dp250
g50
F1.0
s(lp251
(g48
I7
tp252
atp253
a(g64
(dp254
S'NOUN'
p255
F1.0
s(lp256
(g64
I8
tp257
atp258
a(g48
(dp259
g50
F1.0
s(lp260
(g48
I9
tp261
atp262
a(g103
(dp263
S'ADJ'
p264
F1.0
s(lp265
(g103
I10
tp266
atp267
a(g82
(dp268
S'VERB'
p269
F3e-06
sS'NOUN'
p270
F0.999997
s(lp271
(g82
I11
tp272
atp273
a(g89
(dp274
S'ADV'
p275
F9.1e-05
sS'PRT'
p276
F0.000277
sS'ADP'
p277
F0.999632
s(lp278
(g89
I12
tp279
atp280
a(g96
(dp281
S'NOUN'
p282
F1.0
s(lp283
(g96
I13
tp284
atp285
a(g111
(dp286
S'ADP'
p287
F1.0
s(lp288
(g111
I14
tp289
atp290
a(g127
(dp291
S'ADJ'
p292
F1.0
s(lp293
(g127
I15
tp294
atp295
a(g118
(dp296
S'NOUN'
p297
F1.0
s(lp298
(g118
I16
tp299
atp300
a(g134
(dp301
S'CONJ'
p302
F1.0
sS'NOUN'
p303
F0.0
s(lp304
(g134
I17
tp305
atp306
a(g143
(dp307
S'NOUN'
p308
F0.0
sS'DET'
p309
F1.0
s(lp310
(g143
I18
tp311
atp312
a(g162
(dp313
S'ADJ'
p314
F1.0
s(lp315
(g162
I19
tp316
atp317
a(S'situation'
p318
(dp319
S'NOUN'
p320
F1.0
s(lp321
(g318
I20
tp322
atp323
a(g169
(dp324
S'ADP'
p325
F1.0
s(lp326
(g169
I21
tp327
atp328
a(g183
(dp329
S'NOUN'
p330
F1.0
s(lp331
(g183
I22
tp332
atp333
a(g190
(dp334
S'ADV'
p335
F0.000175
sS'PRT'
p336
F0.000279
sS'ADP'
p337
F0.999546
s(lp338
(g190
I23
tp339
atp340
a(g197
(dp341
S'ADV'
p342
F7.8e-05
sS'DET'
p343
F0.986541
sS'ADP'
p344
F0.013382
s(lp345
(g197
I24
tp346
atp347
a(g204
(dp348
S'NOUN'
p349
F1.0
s(lp350
(g204
I25
tp351
atp352
a(g50
(dp353
g50
F1.0
s(lp354
(g50
I26
tp355
atp356
asS'nl'
p357
(lp358
(S'ze'
p359
(dp360
S'PRON'
p361
F1.0
s(lp362
(g7
I0
tp363
atp364
a(S'maken'
p365
(dp366
S'VERB'
p367
F0.999718
sS'NOUN'
p368
F0.000282
s(lp369
tp370
a(S'gewag'
p371
(dp372
S'NOUN'
p373
F1.0
s(lp374
(g14
I1
tp375
atp376
a(S'van'
p377
(dp378
S'ADP'
p379
F1.0
s(lp380
(g223
I2
tp381
atp382
a(S'de'
p383
(dp384
S'DET'
p385
F1.0
s(lp386
(g23
I3
tp387
atp388
a(S'gevangenhouding'
p389
(dp390
S'NOUN'
p391
F1.0
s(lp392
(g30
I4
tp393
atp394
a(S'van'
p395
(dp396
S'ADP'
p397
F1.0
s(lp398
(g37
I5
tp399
atp400
a(S'parlementsleden'
p401
(dp402
S'NOUN'
p403
F1.0
s(lp404
(g45
I6
tp405
atp406
a(g48
(dp407
g50
F1.0
s(lp408
(g48
I7
tp409
atp410
a(S'moorden'
p411
(dp412
S'VERB'
p413
F0.825566
sS'NOUN'
p414
F0.174434
s(lp415
(g64
I8
tp416
atp417
a(g48
(dp418
g50
F1.0
s(lp419
(g48
I9
tp420
atp421
a(S'verschrikkelijke'
p422
(dp423
S'NOUN'
p424
F0.000105
sS'ADJ'
p425
F0.999895
s(lp426
(g103
I10
tp427
atp428
a(S'omstandigheden'
p429
(dp430
S'NOUN'
p431
F1.0
s(lp432
(g82
I11
tp433
atp434
a(S'in'
p435
(dp436
S'ADV'
p437
F0.00566
sS'VERB'
p438
F0.0
sS'ADP'
p439
F0.99434
s(lp440
(g89
I12
tp441
atp442
a(S'gevangenissen'
p443
(dp444
S'NOUN'
p445
F1.0
s(lp446
(g96
I13
tp447
atp448
a(S'voor'
p449
(dp450
S'ADV'
p451
F0.030649
sS'CONJ'
p452
F6e-06
sS'NOUN'
p453
F1e-06
sS'ADP'
p454
F0.969344
s(lp455
(g111
I14
tp456
atp457
a(S'politieke'
p458
(dp459
S'NOUN'
p460
F8e-06
sS'ADJ'
p461
F0.999992
s(lp462
(g127
I15
tp463
atp464
a(S'gevangenen'
p465
(dp466
S'NOUN'
p467
F1.0
s(lp468
(g118
I16
tp469
atp470
a(S'en'
p471
(dp472
S'CONJ'
p473
F1.0
s(lp474
(g134
I17
tp475
atp476
a(S'een'
p477
(dp478
S'ADJ'
p479
F1e-06
sS'PRON'
p480
F0.001075
sS'NUM'
p481
F3e-06
sS'DET'
p482
F0.998921
s(lp483
(g143
I18
tp484
atp485
a(S'catastrofale'
p486
(dp487
S'NOUN'
p488
F0.006171
sS'ADJ'
p489
F0.993829
s(lp490
(g162
I19
tp491
atp492
a(S'beschavingssituatie'
p493
(dp494
S'NOUN'
p495
F1.0
s(lp496
(g183
I22
tp497
atp498
a(S'in'
p499
(dp500
S'ADV'
p501
F0.011033
sS'VERB'
p502
F4e-06
sS'ADP'
p503
F0.988963
s(lp504
(g190
I23
tp505
atp506
a(S'dat'
p507
(dp508
S'PRON'
p509
F0.97098
sS'CONJ'
p510
F0.02902
s(lp511
(g197
I24
tp512
atp513
a(S'land'
p514
(dp515
S'VERB'
p516
F3.2e-05
sS'NOUN'
p517
F0.999968
s(lp518
(g204
I25
tp519
atp520
a(g50
(dp521
g50
F1.0
s(lp522
(g50
I26
tp523
atp524
asS'de'
p525
(lp526
(S'sie'
p527
(dp528
S'PRON'
p529
F1.0
s(lp530
(g7
I0
tp531
atp532
a(S'schildern'
p533
(dp534
S'VERB'
p535
F1.0
s(lp536
(g14
I1
tp537
atp538
a(S'festnahmen'
p539
(dp540
S'VERB'
p541
F1.0
s(lp542
(g30
I4
tp543
atp544
a(S'von'
p545
(dp546
S'NOUN'
p547
F0.001964
sS'ADP'
p548
F0.998036
s(lp549
(g37
I5
tp550
atp551
a(S'parlamentariern'
p552
(dp553
S'ADJ'
p554
F0.15338
sS'NOUN'
p555
F0.741812
s(lp556
(g45
I6
tp557
atp558
a(g48
(dp559
g50
F1.0
s(lp560
(g48
I7
tp561
atp562
a(S'ermordungen'
p563
(dp564
S'VERB'
p565
F0.155747
sS'NOUN'
p566
F0.830081
s(lp567
(g64
I8
tp568
atp569
a(g48
(dp570
g50
F1.0
s(lp571
(g48
I9
tp572
atp573
a(S'furchtbare'
p574
(dp575
S'ADJ'
p576
F1.0
s(lp577
(g103
I10
tp578
atp579
a(S'verh\xc3\xa4ltnisse'
p580
(dp581
S'VERB'
p582
F1.8e-05
sS'NOUN'
p583
F0.999955
s(lp584
(g82
I11
tp585
atp586
a(S'in'
p587
(dp588
S'ADP'
p589
F1.0
s(lp590
(g89
I12
tp591
atp592
a(S'gef\xc3\xa4ngnissen'
p593
(dp594
S'NOUN'
p595
F0.56258
s(lp596
(g96
I13
tp597
atp598
a(S'f\xc3\xbcr'
p599
(dp600
S'ADP'
p601
F1.0
s(lp602
(g111
I14
tp603
atp604
a(S'politische'
p605
(dp606
S'ADJ'
p607
F1.0
s(lp608
(g127
I15
tp609
atp610
a(S'gefangene'
p611
(dp612
S'ADJ'
p613
F1.0
s(lp614
(g118
I16
tp615
atp616
a(S'und'
p617
(dp618
S'CONJ'
p619
F1.0
s(lp620
(g134
I17
tp621
atp622
a(S'eine'
p623
(dp624
S'PRON'
p625
F0.003479
sS'DET'
p626
F0.996479
s(lp627
(g143
I18
tp628
atp629
a(S'katastrophale'
p630
(dp631
S'ADJ'
p632
F1.0
s(lp633
(g162
I19
tp634
atp635
a(S'situation'
p636
(dp637
S'ADJ'
p638
F0.002428
sS'NOUN'
p639
F0.995469
s(lp640
(g318
I20
tp641
atp642
a(S'f\xc3\xbcr'
p643
(dp644
S'ADP'
p645
F1.0
s(lp646
(g169
I21
tp647
atp648
a(S'die'
p649
(dp650
S'PRON'
p651
F0.000124
sS'DET'
p652
F0.999846
s(lp653
(g23
I3
tp654
atp655
a(S'zivilisation'
p656
(dp657
S'ADJ'
p658
F0.021068
sS'NOUN'
p659
F0.96839
s(lp660
(g183
I22
tp661
atp662
a(S'in'
p663
(dp664
S'ADP'
p665
F1.0
s(lp666
(g190
I23
tp667
atp668
a(S'diesem'
p669
(dp670
S'PRON'
p671
F1.0
s(lp672
(g197
I24
tp673
atp674
a(S'land'
p675
(dp676
S'ADJ'
p677
F0.213076
sS'NOUN'
p678
F0.605677
s(lp679
(g204
I25
tp680
atp681
a(g50
(dp682
g50
F1.0
s(lp683
(g50
I26
tp684
atp685
asS'it'
p686
(lp687
(S'parlano'
p688
(dp689
S'VERB'
p690
F1.0
s(lp691
(g14
I1
tp692
atp693
a(S'di'
p694
(dp695
S'CONJ'
p696
F1e-06
sS'ADP'
p697
F0.999999
s(lp698
(g223
I2
tp699
atp700
a(S'incarcerazione'
p701
(dp702
S'NOUN'
p703
F1.0
s(lp704
(g30
I4
tp705
atp706
a(S'di'
p707
(dp708
S'CONJ'
p709
F7e-06
sS'ADP'
p710
F0.999993
s(lp711
(g37
I5
tp712
atp713
a(S'parlamentari'
p714
(dp715
S'ADJ'
p716
F0.259883
sS'NOUN'
p717
F0.740117
s(lp718
(g45
I6
tp719
atp720
a(g48
(dp721
g50
F1.0
s(lp722
(g48
I7
tp723
atp724
a(S'omicidi'
p725
(dp726
S'NOUN'
p727
F1.0
s(lp728
(g64
I8
tp729
atp730
a(g48
(dp731
g50
F1.0
s(lp732
(g48
I9
tp733
atp734
a(S'condizioni'
p735
(dp736
S'VERB'
p737
F0.00598
sS'NOUN'
p738
F0.99402
s(lp739
(g82
I11
tp740
atp741
a(S'terribili'
p742
(dp743
S'ADJ'
p744
F1.0
s(lp745
(g103
I10
tp746
atp747
a(S'per'
p748
(dp749
S'CONJ'
p750
F0.061022
sS'ADP'
p751
F0.938978
s(lp752
(g111
I14
tp753
atp754
a(S'i'
p755
(dp756
S'DET'
p757
F1.0
s(lp758
tp759
a(S'prigionieri'
p760
(dp761
S'ADJ'
p762
F0.118927
sS'NOUN'
p763
F0.881073
s(lp764
(g118
I16
tp765
atp766
a(S'politici'
p767
(dp768
S'NOUN'
p769
F0.184459
sS'ADJ'
p770
F0.815541
s(lp771
(g127
I15
tp772
atp773
a(S'e'
p774
(dp775
S'CONJ'
p776
F1.0
s(lp777
(g134
I17
tp778
atp779
a(S'una'
p780
(dp781
S'PRON'
p782
F0.000318
sS'DEF'
p783
F0.999682
s(lp784
(g143
I18
tp785
atp786
a(S'situazione'
p787
(dp788
S'NOUN'
p789
F1.0
s(lp790
(g318
I20
tp791
atp792
a(S'catastrofica'
p793
(dp794
S'ADJ'
p795
F1.0
s(lp796
(g162
I19
tp797
atp798
a(S'della'
p799
(dp800
S'DEF'
p801
F0.00272
sS'ADP'
p802
F0.99728
s(lp803
(g169
I21
tp804
atp805
a(S'civilt\xc3\xa0'
p806
(dp807
S'NOUN'
p808
F1.0
s(lp809
(g183
I22
tp810
atp811
a(S'in'
p812
(dp813
S'ADP'
p814
F1.0
s(lp815
(g190
I23
tp816
atp817
a(S'tale'
p818
(dp819
S'PRON'
p820
F0.999887
sS'CONJ'
p821
F3.1e-05
sS'NOUN'
p822
F8.2e-05
s(lp823
(g197
I24
tp824
atp825
a(S'paese'
p826
(dp827
S'NOUN'
p828
F1.0
s(lp829
(g204
I25
tp830
atp831
a(g50
(dp832
g50
F1.0
s(lp833
(g50
I26
tp834
atp835
asS'sk'
p836
(lp837
(S'hovoria'
p838
(dp839
S'VERB'
p840
F1.0
s(lp841
(g14
I1
tp842
atp843
a(S'o'
p844
(dp845
S'X'
p846
F0.000402
sS'CONJ'
p847
F1.9e-05
sS'NOUN'
p848
F0.000151
sS'ADP'
p849
F0.999429
s(lp850
(g23
I3
tp851
atp852
a(S'v\xc3\xa4znen\xc3\xad'
p853
(dp854
S'VERB'
p855
F0.881022
sS'NOUN'
p856
F0.118978
s(lp857
(g30
I4
tp858
atp859
a(S'poslancov'
p860
(dp861
S'NOUN'
p862
F1.0
s(lp863
tp864
a(S'parlamentu'
p865
(dp866
S'NOUN'
p867
F1.0
s(lp868
(g45
I6
tp869
atp870
a(g48
(dp871
g50
F1.0
s(lp872
(g48
I7
tp873
atp874
a(S'atent\xc3\xa1toch'
p875
(dp876
S'NOUN'
p877
F1.0
s(lp878
(g64
I8
tp879
atp880
a(g48
(dp881
g50
F1.0
s(lp882
(g48
I9
tp883
atp884
a(S'hrozn\xc3\xbdch'
p885
(dp886
S'ADJ'
p887
F1.0
s(lp888
(g103
I10
tp889
atp890
a(S'podmienkach'
p891
(dp892
S'NOUN'
p893
F1.0
s(lp894
(g82
I11
tp895
atp896
a(S'politick\xc3\xbdch'
p897
(dp898
S'ADJ'
p899
F1.0
s(lp900
(g127
I15
tp901
atp902
a(S'v\xc3\xa4z\xc5\x88ov'
p903
(dp904
S'NOUN'
p905
F1.0
s(lp906
(g118
I16
tp907
atp908
a(S'vo'
p909
(dp910
S'ADP'
p911
F1.0
s(lp912
(g89
I12
tp913
atp914
a(S'v\xc3\xa4zniciach'
p915
(dp916
S'NOUN'
p917
F1.0
s(lp918
(g96
I13
tp919
atp920
a(g143
(dp921
g846
F0.000461
sS'CONJ'
p922
F0.998971
sS'NOUN'
p923
F5.1e-05
sS'ADP'
p924
F0.000487
sS'PRT'
p925
F3.1e-05
s(lp926
(g134
I17
tp927
atp928
a(S'katastrof\xc3\xa1lnej'
p929
(dp930
S'ADJ'
p931
F1.0
s(lp932
(g162
I19
tp933
atp934
a(S'situ\xc3\xa1cii'
p935
(dp936
S'NOUN'
p937
F1.0
s(lp938
(g318
I20
tp939
atp940
a(S'civiliz\xc3\xa1cie'
p941
(dp942
S'NOUN'
p943
F1.0
s(lp944
(g183
I22
tp945
atp946
a(S'v'
p947
(dp948
g846
F9.1e-05
sS'ADP'
p949
F0.999909
s(lp950
(g190
I23
tp951
atp952
a(S'tejto'
p953
(dp954
S'PRON'
p955
F1.0
s(lp956
(g197
I24
tp957
atp958
a(S'krajine'
p959
(dp960
S'NOUN'
p961
F1.0
s(lp962
(g204
I25
tp963
atp964
a(g50
(dp965
g50
F1.0
s(lp966
(g50
I26
tp967
atp968
asS'pl'
p969
(lp970
(S'te'
p971
(dp972
S'NOUN'
p973
F0.00015900000000000002
sS'ADJ'
p974
F0.9997640000000002
sg846
F7.8e-05
s(lp975
tp976
a(S'sprawozdania'
p977
(dp978
S'NOUN'
p979
F1.0
s(lp980
(g64
I8
tp981
atp982
a(S's\xc4\x85'
p983
(dp984
S'VERB'
p985
F1.0
s(lp986
(g7
I0
tp987
atp988
a(S'jednoznaczne'
p989
(dp990
S'ADJ'
p991
F1.000001
s(lp992
(g64
I8
tp993
atp994
a(S'-'
p995
(dp996
g846
F0.000185
sS'NUM'
p997
F0.0
sS'NOUN'
p998
F7e-06
sg50
F0.999809
s(lp999
(g23
I3
tp1000
atp1001
a(S'wi\xc4\x99zienie'
p1002
(dp1003
S'NOUN'
p1004
F1.0
s(lp1005
(g30
I4
tp1006
atp1007
a(S'parlamentarzyst\xc3\xb3w'
p1008
(dp1009
S'NOUN'
p1010
F1.0
s(lp1011
(g45
I6
tp1012
atp1013
a(g48
(dp1014
g846
F0.0
sg50
F1.0
s(lp1015
(g48
I7
tp1016
atp1017
a(S'zamachy'
p1018
(dp1019
S'NOUN'
p1020
F1.0
s(lp1021
(g64
I8
tp1022
atp1023
a(g48
(dp1024
g846
F0.0
sg50
F1.0
s(lp1025
(g48
I9
tp1026
atp1027
a(S'bardzo'
p1028
(dp1029
S'ADV'
p1030
F1.0
s(lp1031
tp1032
a(S'niedobra'
p1033
(dp1034
S'ADV'
p1035
F0.000624
sS'NOUN'
p1036
F0.256938
sS'VERB'
p1037
F0.12913500000000003
sS'ADJ'
p1038
F0.613303
s(lp1039
(g64
I8
tp1040
atp1041
a(S'sytuacja'
p1042
(dp1043
S'NOUN'
p1044
F1.0
s(lp1045
(g82
I11
tp1046
atp1047
a(S'w'
p1048
(dp1049
S'ADJ'
p1050
F0.0
sg846
F0.0
sS'NOUN'
p1051
F0.0
sS'ADP'
p1052
F1.0
s(lp1053
(g89
I12
tp1054
atp1055
a(S'wi\xc4\x99zieniach'
p1056
(dp1057
S'NOUN'
p1058
F1.0
s(lp1059
(g96
I13
tp1060
atp1061
a(S'dla'
p1062
(dp1063
S'ADP'
p1064
F1.0
s(lp1065
(g111
I14
tp1066
atp1067
a(S'wi\xc4\x99\xc5\xbani\xc3\xb3w'
p1068
(dp1069
S'NOUN'
p1070
F1.0
s(lp1071
(g118
I16
tp1072
atp1073
a(S'politycznych'
p1074
(dp1075
S'ADJ'
p1076
F0.999999
s(lp1077
(g127
I15
tp1078
atp1079
a(g48
(dp1080
g846
F0.0
sg50
F1.0
s(lp1081
(g134
I17
tp1082
atp1083
a(S'katastrofa'
p1084
(dp1085
S'NOUN'
p1086
F1.0
s(lp1087
(g162
I19
tp1088
atp1089
a(S'cywilizacyjna'
p1090
(dp1091
S'NOUN'
p1092
F0.023357999999999997
sS'VERB'
p1093
F0.000755
sS'ADJ'
p1094
F0.975886
s(lp1095
(g183
I22
tp1096
atp1097
a(g1048
(dp1098
S'ADJ'
p1099
F0.0
sg846
F0.0
sS'NOUN'
p1100
F0.0
sS'ADP'
p1101
F0.999999
s(lp1102
(g190
I23
tp1103
atp1104
a(S'tym'
p1105
(dp1106
S'ADV'
p1107
F1e-06
sS'NOUN'
p1108
F0.06509200000000001
sS'CONJ'
p1109
F1e-06
sS'ADJ'
p1110
F0.934906
sS'PRT'
p1111
F0.0
s(lp1112
(g197
I24
tp1113
atp1114
a(S'kraju'
p1115
(dp1116
S'NOUN'
p1117
F1.0000010000000001
s(lp1118
(g204
I25
tp1119
atp1120
a(g50
(dp1121
g50
F1.0
s(lp1122
(g50
I26
tp1123
atp1124
asS'sl'
p1125
(lp1126
(S'obravnavata'
p1127
(dp1128
S'ADV'
p1129
F0.012092
sS'ADJ'
p1130
F0.08356100000000001
sS'VERB'
p1131
F0.7438280000000002
sS'NOUN'
p1132
F0.15983600000000006
sg846
F0.000684
s(lp1133
(g14
I1
tp1134
atp1135
a(S'zaporno'
p1136
(dp1137
S'ADJ'
p1138
F1.0
s(lp1139
tp1140
a(S'kazen'
p1141
(dp1142
S'NOUN'
p1143
F1.0
s(lp1144
(g30
I4
tp1145
atp1146
a(S'za'
p1147
(dp1148
S'ADV'
p1149
F1.4e-05
sg846
F1e-06
sS'ADP'
p1150
F0.999985
s(lp1151
(g37
I5
tp1152
atp1153
a(S'poslance'
p1154
(dp1155
S'NOUN'
p1156
F1.0
s(lp1157
(g45
I6
tp1158
atp1159
a(g48
(dp1160
g50
F1.0
s(lp1161
(g48
I7
tp1162
atp1163
a(S'umore'
p1164
(dp1165
S'NOUN'
p1166
F1.0
s(lp1167
(g64
I8
tp1168
atp1169
a(g48
(dp1170
g50
F1.0
s(lp1171
(g48
I9
tp1172
atp1173
a(S'nevzdr\xc5\xbene'
p1174
(dp1175
S'ADJ'
p1176
F1.0
s(lp1177
(g103
I10
tp1178
atp1179
a(S'razmere'
p1180
(dp1181
S'NOUN'
p1182
F1.0
s(lp1183
(g82
I11
tp1184
atp1185
a(g947
(dp1186
S'ADP'
p1187
F1.0
s(lp1188
(g89
I12
tp1189
atp1190
a(S'zaporih'
p1191
(dp1192
S'NOUN'
p1193
F1.0
s(lp1194
(g96
I13
tp1195
atp1196
a(S'za'
p1197
(dp1198
S'ADV'
p1199
F0.000299
sg846
F3e-06
sS'ADP'
p1200
F0.9996970000000001
s(lp1201
(g111
I14
tp1202
atp1203
a(S'politi\xc4\x8dne'
p1204
(dp1205
S'ADJ'
p1206
F1.0
s(lp1207
(g127
I15
tp1208
atp1209
a(S'zapornike'
p1210
(dp1211
S'NOUN'
p1212
F1.0
s(lp1213
(g118
I16
tp1214
atp1215
a(S'in'
p1216
(dp1217
S'ADV'
p1218
F0.000133
sg846
F4e-06
sS'CONJ'
p1219
F0.999861
sS'NOUN'
p1220
F2e-06
s(lp1221
(g134
I17
tp1222
atp1223
a(S'katastrofalne'
p1224
(dp1225
S'ADJ'
p1226
F1.0
s(lp1227
(g162
I19
tp1228
atp1229
a(S'razmere'
p1230
(dp1231
S'NOUN'
p1232
F1.0
s(lp1233
(g318
I20
tp1234
atp1235
a(S'za'
p1236
(dp1237
S'ADV'
p1238
F8e-06
sg846
F2e-06
sS'ADP'
p1239
F0.999989
s(lp1240
(g169
I21
tp1241
atp1242
a(S'prebivalstvo'
p1243
(dp1244
S'NOUN'
p1245
F1.0
s(lp1246
(g183
I22
tp1247
atp1248
a(S'te'
p1249
(dp1250
S'PRON'
p1251
F1.0
s(lp1252
(g197
I24
tp1253
atp1254
a(S'dr\xc5\xbeave'
p1255
(dp1256
S'NOUN'
p1257
F0.9999999999999999
s(lp1258
(g204
I25
tp1259
atp1260
a(g50
(dp1261
g50
F1.0
s(lp1262
(g50
I26
tp1263
atp1264
asS'es'
p1265
(lp1266
(S'hablan'
p1267
(dp1268
S'VERB'
p1269
F1.0
s(lp1270
(g14
I1
tp1271
atp1272
a(S'de'
p1273
(dp1274
g846
F1.3e-05
sS'CONJ'
p1275
F0.000682
sS'ADP'
p1276
F0.999305
s(lp1277
(g223
I2
tp1278
atp1279
a(S'encarcelamiento'
p1280
(dp1281
S'NOUN'
p1282
F1.0
s(lp1283
(g30
I4
tp1284
atp1285
a(S'de'
p1286
(dp1287
g846
F0.000148
sS'CONJ'
p1288
F0.000608
sS'ADP'
p1289
F0.999244
s(lp1290
(g37
I5
tp1291
atp1292
a(S'parlamentarios'
p1293
(dp1294
S'ADJ'
p1295
F0.43748
sS'NOUN'
p1296
F0.56252
s(lp1297
(g45
I6
tp1298
atp1299
a(g48
(dp1300
g50
F1.0
s(lp1301
(g48
I7
tp1302
atp1303
a(S'asesinatos'
p1304
(dp1305
S'NOUN'
p1306
F1.0
s(lp1307
(g64
I8
tp1308
atp1309
a(g48
(dp1310
g50
F1.0
s(lp1311
(g48
I9
tp1312
atp1313
a(S'condiciones'
p1314
(dp1315
S'NOUN'
p1316
F1.0
s(lp1317
(g82
I11
tp1318
atp1319
a(S'terribles'
p1320
(dp1321
S'ADJ'
p1322
F1.0
s(lp1323
(g103
I10
tp1324
atp1325
a(S'en'
p1326
(dp1327
g846
F0.0
sS'CONJ'
p1328
F1e-06
sS'ADP'
p1329
F0.999999
s(lp1330
(g89
I12
tp1331
atp1332
a(S'las'
p1333
(dp1334
S'PRON'
p1335
F0.0
sS'DET'
p1336
F1.0
s(lp1337
tp1338
a(S'c\xc3\xa1rceles'
p1339
(dp1340
S'NOUN'
p1341
F1.0
s(lp1342
(g96
I13
tp1343
atp1344
a(S'para'
p1345
(dp1346
S'CONJ'
p1347
F0.000662
sS'ADP'
p1348
F0.999338
s(lp1349
(g111
I14
tp1350
atp1351
a(S'los'
p1352
(dp1353
S'PRON'
p1354
F0.0
sS'DET'
p1355
F1.0
s(lp1356
tp1357
a(S'presos'
p1358
(dp1359
S'ADJ'
p1360
F0.022855
sS'NOUN'
p1361
F0.977145
s(lp1362
(g118
I16
tp1363
atp1364
a(S'pol\xc3\xadticos'
p1365
(dp1366
S'NOUN'
p1367
F0.022096
sS'ADJ'
p1368
F0.977904
s(lp1369
(g127
I15
tp1370
atp1371
a(S'y'
p1372
(dp1373
g846
F0.000123
sS'CONJ'
p1374
F0.999877
s(lp1375
(g134
I17
tp1376
atp1377
a(S'una'
p1378
(dp1379
S'DET'
p1380
F1.0
s(lp1381
(g143
I18
tp1382
atp1383
a(S'situaci\xc3\xb3n'
p1384
(dp1385
S'NOUN'
p1386
F1.0
s(lp1387
(g318
I20
tp1388
atp1389
a(S'catastr\xc3\xb3fica'
p1390
(dp1391
S'ADJ'
p1392
F1.0
s(lp1393
(g162
I19
tp1394
atp1395
a(S'para'
p1396
(dp1397
S'CONJ'
p1398
F0.002186
sS'ADP'
p1399
F0.997814
s(lp1400
(g169
I21
tp1401
atp1402
a(S'la'
p1403
(dp1404
g846
F0.0
sS'PRON'
p1405
F0.0
sS'DET'
p1406
F0.999999
sS'NOUN'
p1407
F0.0
s(lp1408
tp1409
a(S'civilizaci\xc3\xb3n'
p1410
(dp1411
S'NOUN'
p1412
F1.0
s(lp1413
(g183
I22
tp1414
atp1415
a(S'en'
p1416
(dp1417
g846
F0.0
sS'CONJ'
p1418
F1e-06
sS'ADP'
p1419
F0.999999
s(lp1420
(g190
I23
tp1421
atp1422
a(S'ese'
p1423
(dp1424
S'PRON'
p1425
F0.999929
sS'NOUN'
p1426
F7.1e-05
s(lp1427
(g197
I24
tp1428
atp1429
a(S'pa\xc3\xads'
p1430
(dp1431
S'NOUN'
p1432
F1.0
s(lp1433
(g204
I25
tp1434
atp1435
a(g50
(dp1436
g50
F1.0
s(lp1437
(g50
I26
tp1438
atp1439
as.