(dp0
S'fr'
p1
(lp2
(S'le'
p3
(dp4
S'PRON'
p5
F0.000439
sS'DET'
p6
F0.999561
s(lp7
(S'the'
p8
I0
tp9
atp10
a(S'projet'
p11
(dp12
S'NOUN'
p13
F1.0
s(lp14
(S'draft'
p15
I2
tp16
atp17
a(S'd\xc3\xa9finitif'
p18
(dp19
S'ADJ'
p20
F1.0
s(lp21
(S'final'
p22
I1
tp23
atp24
a(S"d'"
p25
(dp26
S'ADJ'
p27
F0.029663
sS'VERB'
p28
F0.37283
sS'NOUN'
p29
F0.597507
s(lp30
tp31
a(S'ordre'
p32
(dp33
S'NOUN'
p34
F1.0
s(lp35
(S'agenda'
p36
I3
tp37
atp38
a(S'du'
p39
(dp40
S'ADP'
p41
F1.0
s(lp42
tp43
a(S'jour'
p44
(dp45
S'NOUN'
p46
F1.0
s(lp47
(g36
I3
tp48
atp49
a(S'tel'
p50
(dp51
S'PRON'
p52
F0.993566
sS'NOUN'
p53
F0.006434
s(lp54
(S'as'
p55
I4
tp56
atp57
a(S"qu'"
p58
(dp59
S'ADJ'
p60
F0.145557
sS'VERB'
p61
F0.060813000000000006
sS'NOUN'
p62
F0.79363
s(lp63
(S'drawn'
p64
I5
tp65
atp66
a(S'il'
p67
(dp68
S'PRON'
p69
F1.0
s(lp70
(g64
I5
tp71
atp72
a(S'a'
p73
(dp74
S'VERB'
p75
F1.0
s(lp76
(g64
I5
tp77
atp78
a(S'\xc3\xa9t\xc3\xa9'
p79
(dp80
S'VERB'
p81
F0.985897
sS'NOUN'
p82
F0.014103
s(lp83
tp84
a(S'\xc3\xa9tabli'
p85
(dp86
S'ADJ'
p87
F0.069329
sS'VERB'
p88
F0.855799
sS'NOUN'
p89
F0.074872
s(lp90
(g64
I5
tp91
atp92
a(S','
p93
(dp94
S'.'
p95
F1.0
s(lp96
(g93
I21
tp97
atp98
a(S'conform\xc3\xa9ment'
p99
(dp100
S'ADV'
p101
F1.0
s(lp102
(S'pursuant'
p103
I22
tp104
atp105
a(S'\xc3\xa0'
p106
(dp107
S'ADP'
p108
F1.0
s(lp109
(S'to'
p110
I23
tp111
atp112
a(S"l'"
p113
(dp114
S'ADJ'
p115
F0.160704
sS'VERB'
p116
F0.06480800000000002
sS'NOUN'
p117
F0.774488
s(lp118
tp119
a(S'article'
p120
(dp121
S'VERB'
p122
F0.25624399999999997
sS'NOUN'
p123
F0.743756
s(lp124
(S'rule'
p125
I24
tp126
atp127
a(S'137'
p128
(dp129
S'X'
p130
F0.000206
sS'NUM'
p131
F0.999794
s(lp132
(S'137'
p133
I25
tp134
atp135
a(S'du'
p136
(dp137
S'ADP'
p138
F1.0
s(lp139
(S'of'
p140
I26
tp141
atp142
a(S'r\xc3\xa8glement'
p143
(dp144
S'NOUN'
p145
F1.0
s(lp146
(S'rules'
p147
I28
tp148
atp149
a(g93
(dp150
g95
F1.0
s(lp151
(g93
I31
tp152
atp153
a(S'par'
p154
(dp155
S'NOUN'
p156
F1e-06
sS'ADP'
p157
F0.999999
s(lp158
(S'by'
p159
I7
tp160
atp161
a(S'la'
p162
(dp163
S'PRON'
p164
F1.2e-05
sS'DET'
p165
F0.999988
sS'NOUN'
p166
F0.0
s(lp167
(S'the'
p168
I8
tp169
atp170
a(S'conf\xc3\xa9rence'
p171
(dp172
S'NOUN'
p173
F1.0
s(lp174
(S'conference'
p175
I9
tp176
atp177
a(S'des'
p178
(dp179
S'DET'
p180
F2.1e-05
sS'ADP'
p181
F0.999979
s(lp182
(S'of'
p183
I10
tp184
atp185
a(S'pr\xc3\xa9sidents'
p186
(dp187
S'NOUN'
p188
F1.0
s(lp189
(S'presidents'
p190
I11
tp191
atp192
a(S'lors'
p193
(dp194
S'ADV'
p195
F1.0
s(lp196
(S'at'
p197
I12
tp198
atp199
a(S'de'
p200
(dp201
S'ADP'
p202
F1.0
s(lp203
tp204
a(S'sa'
p205
(dp206
S'PRON'
p207
F1.0
s(lp208
(S'its'
p209
I13
tp210
atp211
a(S'r\xc3\xa9union'
p212
(dp213
S'NOUN'
p214
F1.0
s(lp215
(S'meeting'
p216
I14
tp217
atp218
a(S'du'
p219
(dp220
S'ADP'
p221
F1.0
s(lp222
(S'of'
p223
I15
tp224
atp225
a(S'jeudi'
p226
(dp227
S'NOUN'
p228
F1.0
s(lp229
(S'thursday'
p230
I16
tp231
atp232
a(S'20'
p233
(dp234
g130
F0.000173
sS'NUM'
p235
F0.999827
s(lp236
(S'20'
p237
I18
tp238
atp239
a(S'janvier'
p240
(dp241
S'NOUN'
p242
F1.0
s(lp243
(S'january'
p244
I19
tp245
atp246
a(S'2011'
p247
(dp248
g130
F0.001306
sS'NUM'
p249
F0.998694
s(lp250
(S'2011'
p251
I20
tp252
atp253
a(g73
(dp254
S'VERB'
p255
F1.0
s(lp256
(S'has'
p257
I32
tp258
atp259
a(S'\xc3\xa9t\xc3\xa9'
p260
(dp261
S'VERB'
p262
F0.986206
sS'NOUN'
p263
F0.013794
s(lp264
(S'been'
p265
I33
tp266
atp267
a(S'distribu\xc3\xa9'
p268
(dp269
S'VERB'
p270
F1.0
s(lp271
(S'distributed'
p272
I34
tp273
atp274
a(g95
(dp275
g95
F1.0
s(lp276
(g95
I35
tp277
atp278
asS'en'
p279
(lp280
(g8
(dp281
S'NOUN'
p282
F2e-06
sS'DET'
p283
F0.999998
s(lp284
(g8
I0
tp285
atp286
a(g22
(dp287
S'NOUN'
p288
F0.000817
sS'ADJ'
p289
F0.999183
s(lp290
(g22
I1
tp291
atp292
a(g15
(dp293
S'VERB'
p294
F0.000155
sS'NOUN'
p295
F0.999845
s(lp296
(g15
I2
tp297
atp298
a(g36
(dp299
S'NOUN'
p300
F1.0
s(lp301
(g36
I3
tp302
atp303
a(g55
(dp304
S'ADV'
p305
F0.194736
sS'ADP'
p306
F0.805264
s(lp307
(g55
I4
tp308
atp309
a(g64
(dp310
S'VERB'
p311
F0.998638
sS'ADJ'
p312
F0.001362
s(lp313
(g64
I5
tp314
atp315
a(S'up'
p316
(dp317
S'ADV'
p318
F0.099563
sS'PRT'
p319
F0.885438
sS'NOUN'
p320
F1.1e-05
sS'ADP'
p321
F0.014988
s(lp322
(g316
I6
tp323
atp324
a(g159
(dp325
S'ADV'
p326
F0.00023
sS'NOUN'
p327
F0.0
sS'ADP'
p328
F0.99977
s(lp329
(g159
I7
tp330
atp331
a(g168
(dp332
S'NOUN'
p333
F1e-06
sS'DET'
p334
F0.999999
s(lp335
(g168
I8
tp336
atp337
a(g175
(dp338
S'NOUN'
p339
F1.0
s(lp340
(g175
I9
tp341
atp342
a(g183
(dp343
S'ADP'
p344
F1.0
s(lp345
(g183
I10
tp346
atp347
a(g190
(dp348
S'NOUN'
p349
F1.0
s(lp350
(g190
I11
tp351
atp352
a(g197
(dp353
S'NOUN'
p354
F0.0
sS'ADP'
p355
F1.0
s(lp356
(g197
I12
tp357
atp358
a(g209
(dp359
S'PRON'
p360
F1.0
s(lp361
(g209
I13
tp362
atp363
a(g216
(dp364
S'VERB'
p365
F0.011701
sS'NOUN'
p366
F0.988299
s(lp367
(g216
I14
tp368
atp369
a(g223
(dp370
S'ADP'
p371
F1.0
s(lp372
(g223
I15
tp373
atp374
a(g230
(dp375
S'ADV'
p376
F0.002577
sS'ADJ'
p377
F0.018144
sS'NOUN'
p378
F0.979279
s(lp379
(g230
I16
tp380
atp381
a(g93
(dp382
g95
F1.0
s(lp383
(g93
I17
tp384
atp385
a(g237
(dp386
S'ADV'
p387
F0.000707
sS'NOUN'
p388
F0.002983
sS'NUM'
p389
F0.99268
sS'ADJ'
p390
F0.003626
sg130
F4e-06
s(lp391
(g237
I18
tp392
atp393
a(g244
(dp394
S'ADJ'
p395
F0.391742
sS'NOUN'
p396
F0.608258
s(lp397
(g244
I19
tp398
atp399
a(g251
(dp400
S'ADV'
p401
F0.002712
sS'ADJ'
p402
F0.009972
sS'NUM'
p403
F0.975228
sS'NOUN'
p404
F0.012085
sg130
F3e-06
s(lp405
(g251
I20
tp406
atp407
a(g93
(dp408
g95
F1.0
s(lp409
(g93
I21
tp410
atp411
a(g103
(dp412
S'ADJ'
p413
F1.0
s(lp414
(g103
I22
tp415
atp416
a(g110
(dp417
S'ADV'
p418
F0.0
sS'PRT'
p419
F1.0
sS'ADP'
p420
F0.0
s(lp421
(g110
I23
tp422
atp423
a(g125
(dp424
S'VERB'
p425
F0.992368
sS'NOUN'
p426
F0.007632
s(lp427
(g125
I24
tp428
atp429
a(g133
(dp430
S'ADV'
p431
F0.001725
sS'NOUN'
p432
F0.001367
sS'NUM'
p433
F0.993339
sS'ADJ'
p434
F0.003569
sg130
F0.0
s(lp435
(g133
I25
tp436
atp437
a(g140
(dp438
S'ADP'
p439
F1.0
s(lp440
(g140
I26
tp441
atp442
a(S'the'
p443
(dp444
S'NOUN'
p445
F1.1e-05
sS'DET'
p446
F0.999989
s(lp447
(g443
I27
tp448
atp449
a(g147
(dp450
S'VERB'
p451
F0.000442
sS'NOUN'
p452
F0.999558
s(lp453
(g147
I28
tp454
atp455
a(S'of'
p456
(dp457
S'ADP'
p458
F1.0
s(lp459
(g456
I29
tp460
atp461
a(S'procedure'
p462
(dp463
S'NOUN'
p464
F1.0
s(lp465
(g462
I30
tp466
atp467
a(g93
(dp468
g95
F1.0
s(lp469
(g93
I31
tp470
atp471
a(g257
(dp472
S'VERB'
p473
F1.0
s(lp474
(g257
I32
tp475
atp476
a(g265
(dp477
S'VERB'
p478
F1.0
s(lp479
(g265
I33
tp480
atp481
a(g272
(dp482
S'VERB'
p483
F1.0
s(lp484
(g272
I34
tp485
atp486
a(g95
(dp487
g95
F1.0
s(lp488
(g95
I35
tp489
atp490
asS'nl'
p491
(lp492
(S'de'
p493
(dp494
S'DET'
p495
F1.0
s(lp496
(g8
I0
tp497
atp498
a(S'definitieve'
p499
(dp500
S'NOUN'
p501
F6.3e-05
sS'ADJ'
p502
F0.999937
s(lp503
(g22
I1
tp504
atp505
a(S'ontwerpagenda'
p506
(dp507
S'NOUN'
p508
F1.0
s(lp509
(g15
I2
tp510
atp511
a(g93
(dp512
g95
F1.0
s(lp513
tp514
a(S'zoals'
p515
(dp516
S'CONJ'
p517
F1.0
s(lp518
(g55
I4
tp519
atp520
a(S'opgesteld'
p521
(dp522
S'VERB'
p523
F1.0
s(lp524
(g64
I5
tp525
atp526
a(S'door'
p527
(dp528
S'ADV'
p529
F0.0
sS'CONJ'
p530
F1.8e-05
sS'ADP'
p531
F0.999982
s(lp532
(g159
I7
tp533
atp534
a(S'de'
p535
(dp536
S'DET'
p537
F1.0
s(lp538
(g168
I8
tp539
atp540
a(S'conferentie'
p541
(dp542
S'NOUN'
p543
F1.0
s(lp544
(g175
I9
tp545
atp546
a(S'van'
p547
(dp548
S'ADP'
p549
F1.0
s(lp550
(g183
I10
tp551
atp552
a(S'voorzitters'
p553
(dp554
S'NOUN'
p555
F1.0
s(lp556
(g190
I11
tp557
atp558
a(S'tijdens'
p559
(dp560
S'ADP'
p561
F1.0
s(lp562
(g197
I12
tp563
atp564
a(S'haar'
p565
(dp566
S'ADV'
p567
F0.0
sS'PRON'
p568
F0.999999
sS'NOUN'
p569
F1e-06
s(lp570
(g209
I13
tp571
atp572
a(S'vergadering'
p573
(dp574
S'NOUN'
p575
F1.0
s(lp576
(g216
I14
tp577
atp578
a(S'van'
p579
(dp580
S'ADP'
p581
F1.0
s(lp582
(g223
I15
tp583
atp584
a(S'donderdag'
p585
(dp586
S'NOUN'
p587
F1.0
s(lp588
(g230
I16
tp589
atp590
a(S'20'
p591
(dp592
S'NUM'
p593
F1.0
s(lp594
(g237
I18
tp595
atp596
a(S'januari'
p597
(dp598
S'NOUN'
p599
F1.0
s(lp600
(g244
I19
tp601
atp602
a(S'2011'
p603
(dp604
S'NUM'
p605
F1.0
s(lp606
(g251
I20
tp607
atp608
a(S'op'
p609
(dp610
S'ADV'
p611
F0.000199
sS'ADJ'
p612
F3.4e-05
sS'ADP'
p613
F0.999767
s(lp614
(g110
I23
tp615
atp616
a(S'grond'
p617
(dp618
S'VERB'
p619
F0.0
sS'NOUN'
p620
F1.0
s(lp621
(g103
I22
tp622
atp623
a(S'van'
p624
(dp625
S'ADP'
p626
F1.0
s(lp627
(g456
I29
tp628
atp629
a(S'artikel'
p630
(dp631
S'NOUN'
p632
F1.0
s(lp633
(g125
I24
tp634
atp635
a(S'137'
p636
(dp637
S'NUM'
p638
F1.0
s(lp639
(g133
I25
tp640
atp641
a(S'van'
p642
(dp643
S'ADP'
p644
F1.0
s(lp645
(g140
I26
tp646
atp647
a(S'het'
p648
(dp649
S'PRON'
p650
F0.000927
sS'DET'
p651
F0.999073
s(lp652
(g443
I27
tp653
atp654
a(S'reglement'
p655
(dp656
S'NOUN'
p657
F1.0
s(lp658
(g147
I28
tp659
atp660
a(g93
(dp661
g95
F1.0
s(lp662
(g93
I31
tp663
atp664
a(S'is'
p665
(dp666
S'VERB'
p667
F1.0
s(lp668
(g257
I32
tp669
atp670
a(S'rondgedeeld'
p671
(dp672
S'VERB'
p673
F1.0
s(lp674
(g272
I34
tp675
atp676
a(g95
(dp677
g95
F1.0
s(lp678
(g95
I35
tp679
atp680
asS'de'
p681
(lp682
(S'der'
p683
(dp684
S'PRON'
p685
F0.001502
sS'DET'
p686
F0.998382
s(lp687
(g8
I0
tp688
atp689
a(S'endg\xc3\xbcltige'
p690
(dp691
S'ADJ'
p692
F1.0
s(lp693
(g22
I1
tp694
atp695
a(S'entwurf'
p696
(dp697
S'VERB'
p698
F3.9e-05
sS'NOUN'
p699
F0.999944
s(lp700
tp701
a(S'der'
p702
(dp703
S'PRON'
p704
F9.6e-05
sS'DET'
p705
F0.999874
s(lp706
(g15
I2
tp707
atp708
a(S'tagesordnung'
p709
(dp710
S'ADJ'
p711
F0.144289
sS'NOUN'
p712
F0.795497
s(lp713
(g36
I3
tp714
atp715
a(g93
(dp716
g95
F1.0
s(lp717
tp718
a(S'wie'
p719
(dp720
S'CONJ'
p721
F0.999988
s(lp722
(g55
I4
tp723
atp724
a(S'er'
p725
(dp726
S'PRON'
p727
F1.0
s(lp728
(g64
I5
tp729
atp730
a(S'von'
p731
(dp732
S'NOUN'
p733
F4.1e-05
sS'ADP'
p734
F0.999959
s(lp735
(g159
I7
tp736
atp737
a(S'der'
p738
(dp739
S'PRON'
p740
F1.6e-05
sS'DET'
p741
F0.999979
s(lp742
(g168
I8
tp743
atp744
a(S'konferenz'
p745
(dp746
S'ADJ'
p747
F9.3e-05
sS'NOUN'
p748
F0.999849
s(lp749
(g175
I9
tp750
atp751
a(S'der'
p752
(dp753
S'PRON'
p754
F2.1e-05
sS'DET'
p755
F0.999971
s(lp756
(g183
I10
tp757
atp758
a(S'pr\xc3\xa4sidenten'
p759
(dp760
S'ADJ'
p761
F0.009129
sS'NOUN'
p762
F0.990755
s(lp763
(g190
I11
tp764
atp765
a(S'in'
p766
(dp767
S'ADP'
p768
F1.0
s(lp769
(g197
I12
tp770
atp771
a(S'ihrer'
p772
(dp773
S'PRON'
p774
F1.0
s(lp775
(g209
I13
tp776
atp777
a(S'sitzung'
p778
(dp779
S'ADJ'
p780
F0.014874
sS'NOUN'
p781
F0.985126
s(lp782
(g216
I14
tp783
atp784
a(S'vom'
p785
(dp786
S'ADP'
p787
F1.0
s(lp788
tp789
a(S'donnerstag'
p790
(dp791
S'ADJ'
p792
F0.000943
sS'NOUN'
p793
F0.998987
s(lp794
(g230
I16
tp795
atp796
a(g93
(dp797
g95
F1.0
s(lp798
(g93
I17
tp799
atp800
a(S'den'
p801
(dp802
S'PRON'
p803
F0.146389
sS'DET'
p804
F0.842723
s(lp805
tp806
a(S'20.'
p807
(dp808
S'NUM'
p809
F1.0
s(lp810
(g237
I18
tp811
atp812
a(S'januar'
p813
(dp814
S'ADJ'
p815
F0.010112
sS'NOUN'
p816
F0.985803
s(lp817
(g244
I19
tp818
atp819
a(S'2011'
p820
(dp821
S'ADV'
p822
F0.01914
sS'NUM'
p823
F0.976704
s(lp824
(g251
I20
tp825
atp826
a(S'gem\xc3\xa4\xc3\x9f'
p827
(dp828
S'ADJ'
p829
F0.068343
sS'ADP'
p830
F0.931476
s(lp831
(g103
I22
tp832
atp833
a(S'artikel'
p834
(dp835
S'NOUN'
p836
F0.987583
s(lp837
(g125
I24
tp838
atp839
a(S'137'
p840
(dp841
S'NUM'
p842
F1.0
s(lp843
(g133
I25
tp844
atp845
a(S'der'
p846
(dp847
S'PRON'
p848
F7e-06
sS'DET'
p849
F0.999993
s(lp850
(g443
I27
tp851
atp852
a(S'gesch\xc3\xa4ftsordnung'
p853
(dp854
S'ADJ'
p855
F0.000244
sS'NOUN'
p856
F0.999644
s(lp857
(g147
I28
tp858
atp859
a(S'aufgestellt'
p860
(dp861
S'VERB'
p862
F1.0
s(lp863
(g272
I34
tp864
atp865
a(S'wurde'
p866
(dp867
S'VERB'
p868
F1.0
s(lp869
(g265
I33
tp870
atp871
a(g93
(dp872
g95
F1.0
s(lp873
(g93
I31
tp874
atp875
a(S'ist'
p876
(dp877
S'VERB'
p878
F1.0
s(lp879
(g257
I32
tp880
atp881
a(S'verteilt'
p882
(dp883
S'VERB'
p884
F0.980493
sS'ADJ'
p885
F0.019507
s(lp886
tp887
a(S'worden'
p888
(dp889
S'VERB'
p890
F0.999999
s(lp891
(g272
I34
tp892
atp893
a(g95
(dp894
g95
F1.0
s(lp895
(g95
I35
tp896
atp897
asS'it'
p898
(lp899
(S'il'
p900
(dp901
S'DET'
p902
F1.0
s(lp903
(g8
I0
tp904
atp905
a(S'progetto'
p906
(dp907
S'VERB'
p908
F4.8e-05
sS'NOUN'
p909
F0.999952
s(lp910
tp911
a(S'di'
p912
(dp913
S'CONJ'
p914
F4e-06
sS'ADP'
p915
F0.999996
s(lp916
(g15
I2
tp917
atp918
a(S'ordine'
p919
(dp920
S'NOUN'
p921
F1.0
s(lp922
(g36
I3
tp923
atp924
a(S'del'
p925
(dp926
S'DEF'
p927
F0.001248
sS'ADP'
p928
F0.998752
s(lp929
tp930
a(S'giorno'
p931
(dp932
S'NOUN'
p933
F1.0
s(lp934
(g36
I3
tp935
atp936
a(S'definitivo'
p937
(dp938
S'ADJ'
p939
F1.0
s(lp940
(g22
I1
tp941
atp942
a(S'predisposto'
p943
(dp944
S'VERB'
p945
F0.885899
sS'ADJ'
p946
F0.114101
s(lp947
(g64
I5
tp948
atp949
a(S'in'
p950
(dp951
S'ADP'
p952
F1.0
s(lp953
(g197
I12
tp954
atp955
a(S'occasione'
p956
(dp957
S'NOUN'
p958
F1.0
s(lp959
tp960
a(S'della'
p961
(dp962
S'DEF'
p963
F0.001587
sS'ADP'
p964
F0.998413
s(lp965
(g209
I13
tp966
atp967
a(S'riunione'
p968
(dp969
S'NOUN'
p970
F1.0
s(lp971
(g216
I14
tp972
atp973
a(S'di'
p974
(dp975
S'CONJ'
p976
F4e-06
sS'ADP'
p977
F0.999996
s(lp978
(g223
I15
tp979
atp980
a(S'gioved\xc3\xac'
p981
(dp982
S'NOUN'
p983
F1.0
s(lp984
(g230
I16
tp985
atp986
a(S'20'
p987
(dp988
S'NUM'
p989
F0.990887
sg95
F0.009112
s(lp990
(g237
I18
tp991
atp992
a(S'febbraio'
p993
(dp994
S'NOUN'
p995
F1.0
s(lp996
(g244
I19
tp997
atp998
a(S'2011'
p999
(dp1000
S'NUM'
p1001
F0.962697
sg95
F0.037304
s(lp1002
(g251
I20
tp1003
atp1004
a(S'dalla'
p1005
(dp1006
S'NOUN'
p1007
F0.000116
sS'ADP'
p1008
F0.999884
s(lp1009
(g159
I7
tp1010
atp1011
a(S'conferenza'
p1012
(dp1013
S'NOUN'
p1014
F1.0
s(lp1015
(g175
I9
tp1016
atp1017
a(S'dei'
p1018
(dp1019
S'NOUN'
p1020
F1e-06
sS'DEF'
p1021
F0.001164
sS'ADP'
p1022
F0.998835
s(lp1023
(g183
I10
tp1024
atp1025
a(S'presidenti'
p1026
(dp1027
S'NOUN'
p1028
F1.0
s(lp1029
(g190
I11
tp1030
atp1031
a(S'ai'
p1032
(dp1033
S'NOUN'
p1034
F2e-06
sS'ADP'
p1035
F0.999998
s(lp1036
(g103
I22
tp1037
atp1038
a(S'sensi'
p1039
(dp1040
S'NOUN'
p1041
F1.0
s(lp1042
tp1043
a(S"dell'"
p1044
(dp1045
S'ADJ'
p1046
F0.040682
sS'VERB'
p1047
F0.006560999999999999
sS'NOUN'
p1048
F0.952757
s(lp1049
(g103
I22
tp1050
atp1051
a(S'articolo'
p1052
(dp1053
S'VERB'
p1054
F0.000347
sS'NOUN'
p1055
F0.999653
s(lp1056
(g125
I24
tp1057
atp1058
a(S'137'
p1059
(dp1060
S'NUM'
p1061
F0.9623
sg95
F0.037701
s(lp1062
(g133
I25
tp1063
atp1064
a(S'del'
p1065
(dp1066
S'DEF'
p1067
F0.004146
sS'ADP'
p1068
F0.995854
s(lp1069
(g140
I26
tp1070
atp1071
a(S'regolamento'
p1072
(dp1073
S'VERB'
p1074
F9.1e-05
sS'NOUN'
p1075
F0.999909
s(lp1076
(g147
I28
tp1077
atp1078
a(S'\xc3\xa8'
p1079
(dp1080
S'VERB'
p1081
F1.0
s(lp1082
(g257
I32
tp1083
atp1084
a(S'stato'
p1085
(dp1086
S'VERB'
p1087
F0.989146
sS'NOUN'
p1088
F0.010854
s(lp1089
(g265
I33
tp1090
atp1091
a(S'distribuito'
p1092
(dp1093
S'VERB'
p1094
F1.0
s(lp1095
(g272
I34
tp1096
atp1097
a(g95
(dp1098
g95
F1.0
s(lp1099
(g95
I35
tp1100
atp1101
asS'sk'
p1102
(lp1103
(S'kone\xc4\x8dn\xc3\xa9'
p1104
(dp1105
S'NOUN'
p1106
F0.001406
sS'ADJ'
p1107
F0.998595
s(lp1108
tp1109
a(S'znenie'
p1110
(dp1111
S'NOUN'
p1112
F1.0
s(lp1113
(g22
I1
tp1114
atp1115
a(S'n\xc3\xa1vrhu'
p1116
(dp1117
S'NOUN'
p1118
F1.0
s(lp1119
(g15
I2
tp1120
atp1121
a(S'programu'
p1122
(dp1123
S'NOUN'
p1124
F1.0
s(lp1125
(g36
I3
tp1126
atp1127
a(g93
(dp1128
g95
F1.0
s(lp1129
tp1130
a(S'ktor\xc3\xa9'
p1131
(dp1132
S'PRON'
p1133
F1.0
s(lp1134
(g55
I4
tp1135
atp1136
a(S'pripravila'
p1137
(dp1138
S'VERB'
p1139
F1.0
s(lp1140
(g64
I5
tp1141
atp1142
a(S'konferencia'
p1143
(dp1144
S'NOUN'
p1145
F1.0
s(lp1146
(g175
I9
tp1147
atp1148
a(S'predsedov'
p1149
(dp1150
S'ADJ'
p1151
F0.157874
sS'NOUN'
p1152
F0.842126
s(lp1153
(g190
I11
tp1154
atp1155
a(S'na'
p1156
(dp1157
g130
F3.7e-05
sS'CONJ'
p1158
F6.1e-05
sS'ADP'
p1159
F0.999882
sS'PRT'
p1160
F2e-05
s(lp1161
(g197
I12
tp1162
atp1163
a(S'svojom'
p1164
(dp1165
S'PRON'
p1166
F1.0
s(lp1167
(g209
I13
tp1168
atp1169
a(S'zasadnut\xc3\xad'
p1170
(dp1171
S'NOUN'
p1172
F1.0
s(lp1173
(g216
I14
tp1174
atp1175
a(S'vo'
p1176
(dp1177
S'ADP'
p1178
F1.0
s(lp1179
tp1180
a(S'\xc5\xa1tvrtok'
p1181
(dp1182
S'NOUN'
p1183
F1.0
s(lp1184
(g230
I16
tp1185
atp1186
a(S'20.'
p1187
(dp1188
S'NUM'
p1189
F1.0
s(lp1190
(g237
I18
tp1191
atp1192
a(S'janu\xc3\xa1ra'
p1193
(dp1194
S'NOUN'
p1195
F1.0
s(lp1196
(g244
I19
tp1197
atp1198
a(S'2011'
p1199
(dp1200
S'NUM'
p1201
F1.0
s(lp1202
(g251
I20
tp1203
atp1204
a(S'v'
p1205
(dp1206
g130
F0.034898
sS'ADP'
p1207
F0.965102
s(lp1208
(g103
I22
tp1209
atp1210
a(S's\xc3\xbalade'
p1211
(dp1212
S'NOUN'
p1213
F1.0
s(lp1214
tp1215
a(S's'
p1216
(dp1217
g130
F0.0027730000000000003
sS'CONJ'
p1218
F6.5e-05
sS'NOUN'
p1219
F1.4e-05
sS'ADP'
p1220
F0.997125
sS'PRT'
p1221
F2.2e-05
s(lp1222
(g103
I22
tp1223
atp1224
a(S'\xc4\x8dl\xc3\xa1nkom'
p1225
(dp1226
S'NOUN'
p1227
F1.0
s(lp1228
tp1229
a(S'137'
p1230
(dp1231
S'NUM'
p1232
F1.0
s(lp1233
(g133
I25
tp1234
atp1235
a(S'rokovacieho'
p1236
(dp1237
S'ADJ'
p1238
F1.0
s(lp1239
(g147
I28
tp1240
atp1241
a(S'poriadku'
p1242
(dp1243
S'NOUN'
p1244
F1.0
s(lp1245
(g462
I30
tp1246
atp1247
a(g93
(dp1248
g95
F1.0
s(lp1249
(g93
I31
tp1250
atp1251
a(S'bolo'
p1252
(dp1253
S'VERB'
p1254
F1.0
s(lp1255
(g265
I33
tp1256
atp1257
a(S'rozdan\xc3\xa9'
p1258
(dp1259
S'VERB'
p1260
F1.0
s(lp1261
(g272
I34
tp1262
atp1263
a(g95
(dp1264
g95
F1.0
s(lp1265
(g95
I35
tp1266
atp1267
asS'pl'
p1268
(lp1269
(S'rozdany'
p1270
(dp1271
S'ADV'
p1272
F0.000785
sS'NOUN'
p1273
F0.081808
sS'VERB'
p1274
F0.708484
sS'ADJ'
p1275
F0.20892500000000003
s(lp1276
(g133
I25
tp1277
atp1278
a(S'zosta\xc5\x82'
p1279
(dp1280
S'VERB'
p1281
F0.9999999999999999
s(lp1282
(g133
I25
tp1283
atp1284
a(S'ko\xc5\x84cowy'
p1285
(dp1286
S'ADJ'
p1287
F1.0
s(lp1288
(g22
I1
tp1289
atp1290
a(S'projekt'
p1291
(dp1292
S'NOUN'
p1293
F1.0
s(lp1294
(g15
I2
tp1295
atp1296
a(S'porz\xc4\x85dku'
p1297
(dp1298
S'NOUN'
p1299
F1.0
s(lp1300
(g36
I3
tp1301
atp1302
a(S'dziennego'
p1303
(dp1304
S'ADJ'
p1305
F1.0
s(lp1306
(g133
I25
tp1307
atp1308
a(S'sporz\xc4\x85dzony'
p1309
(dp1310
S'VERB'
p1311
F1.0
s(lp1312
(g64
I5
tp1313
atp1314
a(S'zgodnie'
p1315
(dp1316
S'ADV'
p1317
F1.0
s(lp1318
tp1319
a(S'z'
p1320
(dp1321
S'PRT'
p1322
F0.000212
sS'VERB'
p1323
F3e-06
sS'NOUN'
p1324
F7e-06
sS'ADP'
p1325
F0.9997760000000001
sg130
F0.0
s(lp1326
(g103
I22
tp1327
atp1328
a(S'art'
p1329
(dp1330
S'NOUN'
p1331
F1.0
s(lp1332
tp1333
a(g95
(dp1334
g95
F1.0
s(lp1335
(g125
I24
tp1336
atp1337
a(S'137'
p1338
(dp1339
S'NUM'
p1340
F0.124992
sS'ADJ'
p1341
F0.875009
s(lp1342
tp1343
a(S'regulaminu'
p1344
(dp1345
S'NOUN'
p1346
F1.0
s(lp1347
(g133
I25
tp1348
atp1349
a(S'przez'
p1350
(dp1351
S'ADP'
p1352
F1.0
s(lp1353
(g159
I7
tp1354
atp1355
a(S'konferencj\xc4\x99'
p1356
(dp1357
S'NOUN'
p1358
F1.0
s(lp1359
(g175
I9
tp1360
atp1361
a(S'przewodnicz\xc4\x85cych'
p1362
(dp1363
S'NOUN'
p1364
F1.0
s(lp1365
(g190
I11
tp1366
atp1367
a(S'na'
p1368
(dp1369
S'PRT'
p1370
F0.0
sS'VERB'
p1371
F1e-06
sS'NOUN'
p1372
F0.0
sS'ADP'
p1373
F0.999999
sg130
F0.0
s(lp1374
(g197
I12
tp1375
atp1376
a(S'posiedzeniu'
p1377
(dp1378
S'NOUN'
p1379
F1.0
s(lp1380
(g216
I14
tp1381
atp1382
a(S'w'
p1383
(dp1384
S'ADJ'
p1385
F0.0
sg130
F2.9e-05
sS'NOUN'
p1386
F1e-05
sS'ADP'
p1387
F0.999961
s(lp1388
(g223
I15
tp1389
atp1390
a(S'czwartek'
p1391
(dp1392
S'NOUN'
p1393
F1.0
s(lp1394
(g230
I16
tp1395
atp1396
a(g93
(dp1397
g130
F0.0
sg95
F1.0
s(lp1398
(g93
I17
tp1399
atp1400
a(S'20'
p1401
(dp1402
S'NUM'
p1403
F0.2691049999999999
sS'ADJ'
p1404
F0.7308919999999999
s(lp1405
(g237
I18
tp1406
atp1407
a(S'stycznia'
p1408
(dp1409
S'NOUN'
p1410
F1.0
s(lp1411
(g244
I19
tp1412
atp1413
a(S'2011'
p1414
(dp1415
S'ADV'
p1416
F1e-05
sS'NOUN'
p1417
F3.2e-05
sS'NUM'
p1418
F0.197403
sS'ADJ'
p1419
F0.8025509999999997
sg130
F6e-06
s(lp1420
tp1421
a(S'r'
p1422
(dp1423
g130
F0.714859
sS'NOUN'
p1424
F0.285141
s(lp1425
(g251
I20
tp1426
atp1427
a(g95
(dp1428
g95
F1.0
s(lp1429
(g95
I35
tp1430
atp1431
asS'sl'
p1432
(lp1433
(S'razdeljen'
p1434
(dp1435
S'ADJ'
p1436
F1.0
s(lp1437
(g272
I34
tp1438
atp1439
a(S'je'
p1440
(dp1441
S'PRON'
p1442
F0.000252
sS'VERB'
p1443
F0.999747
sg130
F0.0
s(lp1444
(g257
I32
tp1445
atp1446
a(S'bil'
p1447
(dp1448
S'VERB'
p1449
F1.0
s(lp1450
(g265
I33
tp1451
atp1452
a(S'zadnji'
p1453
(dp1454
S'ADJ'
p1455
F1.0
s(lp1456
(g22
I1
tp1457
atp1458
a(S'osnutek'
p1459
(dp1460
S'NOUN'
p1461
F1.0
s(lp1462
(g15
I2
tp1463
atp1464
a(S'dnevnega'
p1465
(dp1466
S'ADJ'
p1467
F1.0
s(lp1468
tp1469
a(S'reda'
p1470
(dp1471
S'NOUN'
p1472
F1.0
s(lp1473
(g36
I3
tp1474
atp1475
a(g93
(dp1476
g95
F1.0
s(lp1477
(g93
I31
tp1478
atp1479
a(S'kot'
p1480
(dp1481
S'CONJ'
p1482
F0.999971
sS'NOUN'
p1483
F2.9e-05
s(lp1484
(g55
I4
tp1485
atp1486
a(S'je'
p1487
(dp1488
S'PRON'
p1489
F0.000899
sS'VERB'
p1490
F0.999102
sg130
F0.0
s(lp1491
(g64
I5
tp1492
atp1493
a(S'bil'
p1494
(dp1495
S'VERB'
p1496
F1.0
s(lp1497
tp1498
a(S'pripravljen'
p1499
(dp1500
S'ADJ'
p1501
F1.0
s(lp1502
(g64
I5
tp1503
atp1504
a(S'na'
p1505
(dp1506
S'ADP'
p1507
F1.0
s(lp1508
(g159
I7
tp1509
atp1510
a(S'konferenci'
p1511
(dp1512
S'NOUN'
p1513
F1.0
s(lp1514
(g175
I9
tp1515
atp1516
a(S'predsednikov'
p1517
(dp1518
S'ADJ'
p1519
F0.00643
sS'NOUN'
p1520
F0.9935700000000001
s(lp1521
(g190
I11
tp1522
atp1523
a(S'na'
p1524
(dp1525
S'ADP'
p1526
F1.0
s(lp1527
(g197
I12
tp1528
atp1529
a(S'zasedanju'
p1530
(dp1531
S'NOUN'
p1532
F1.0
s(lp1533
(g216
I14
tp1534
atp1535
a(g1205
(dp1536
S'ADP'
p1537
F1.0
s(lp1538
tp1539
a(S'\xc4\x8detrtek'
p1540
(dp1541
S'NOUN'
p1542
F1.0
s(lp1543
(g230
I16
tp1544
atp1545
a(g93
(dp1546
g95
F1.0
s(lp1547
(g93
I17
tp1548
atp1549
a(S'20.'
p1550
(dp1551
S'NUM'
p1552
F1.0
s(lp1553
(g237
I18
tp1554
atp1555
a(S'januarja'
p1556
(dp1557
S'NOUN'
p1558
F1.0
s(lp1559
(g244
I19
tp1560
atp1561
a(S'2011'
p1562
(dp1563
S'NUM'
p1564
F1.0
s(lp1565
(g251
I20
tp1566
atp1567
a(g93
(dp1568
g95
F1.0
s(lp1569
(g93
I21
tp1570
atp1571
a(g1205
(dp1572
S'ADP'
p1573
F1.0
s(lp1574
(g103
I22
tp1575
atp1576
a(S'skladu'
p1577
(dp1578
S'NOUN'
p1579
F1.0
s(lp1580
tp1581
a(g1216
(dp1582
S'VERB'
p1583
F2e-06
sS'NOUN'
p1584
F1.3e-05
sS'ADP'
p1585
F0.999984
s(lp1586
(g103
I22
tp1587
atp1588
a(S'\xc4\x8dlenom'
p1589
(dp1590
S'NOUN'
p1591
F1.0
s(lp1592
(g125
I24
tp1593
atp1594
a(S'137'
p1595
(dp1596
S'NUM'
p1597
F1.0
s(lp1598
(g133
I25
tp1599
atp1600
a(S'poslovnika'
p1601
(dp1602
S'NOUN'
p1603
F1.0
s(lp1604
(g462
I30
tp1605
atp1606
a(g95
(dp1607
g95
F1.0
s(lp1608
(g95
I35
tp1609
atp1610
asS'es'
p1611
(lp1612
(S'se'
p1613
(dp1614
S'PRON'
p1615
F1.0
sS'VERB'
p1616
F0.0
s(lp1617
(g265
I33
tp1618
atp1619
a(S'ha'
p1620
(dp1621
S'VERB'
p1622
F1.0
s(lp1623
(g257
I32
tp1624
atp1625
a(S'distribuido'
p1626
(dp1627
S'VERB'
p1628
F1.0
s(lp1629
(g272
I34
tp1630
atp1631
a(S'el'
p1632
(dp1633
S'PRON'
p1634
F0.0
sS'DET'
p1635
F1.0
s(lp1636
(g8
I0
tp1637
atp1638
a(S'proyecto'
p1639
(dp1640
S'VERB'
p1641
F1e-05
sS'NOUN'
p1642
F0.99999
s(lp1643
(g15
I2
tp1644
atp1645
a(S'definitivo'
p1646
(dp1647
S'ADJ'
p1648
F1.0
s(lp1649
(g22
I1
tp1650
atp1651
a(S'de'
p1652
(dp1653
g130
F3.1e-05
sS'CONJ'
p1654
F0.001485
sS'ADP'
p1655
F0.998485
s(lp1656
tp1657
a(S'orden'
p1658
(dp1659
S'NOUN'
p1660
F1.0
s(lp1661
(g36
I3
tp1662
atp1663
a(S'del'
p1664
(dp1665
S'ADP'
p1666
F1.0
s(lp1667
tp1668
a(S'd\xc3\xada'
p1669
(dp1670
S'NOUN'
p1671
F1.0
s(lp1672
(g36
I3
tp1673
atp1674
a(S'elaborado'
p1675
(dp1676
S'VERB'
p1677
F1.0
s(lp1678
(g64
I5
tp1679
atp1680
a(S'por'
p1681
(dp1682
S'ADP'
p1683
F1.0
s(lp1684
(g159
I7
tp1685
atp1686
a(S'la'
p1687
(dp1688
S'NOUN'
p1689
F0.0
sS'PRON'
p1690
F0.0
sS'DET'
p1691
F0.999999
sg130
F0.0
s(lp1692
(g168
I8
tp1693
atp1694
a(S'conferencia'
p1695
(dp1696
S'NOUN'
p1697
F1.0
s(lp1698
(g175
I9
tp1699
atp1700
a(S'de'
p1701
(dp1702
g130
F2.9e-05
sS'CONJ'
p1703
F0.000449
sS'ADP'
p1704
F0.999522
s(lp1705
(g183
I10
tp1706
atp1707
a(S'presidentes'
p1708
(dp1709
S'NOUN'
p1710
F1.0
s(lp1711
(g190
I11
tp1712
atp1713
a(S'en'
p1714
(dp1715
g130
F0.0
sS'CONJ'
p1716
F6e-06
sS'ADP'
p1717
F0.999994
s(lp1718
(g197
I12
tp1719
atp1720
a(S'su'
p1721
(dp1722
S'PRON'
p1723
F1.0
s(lp1724
(g209
I13
tp1725
atp1726
a(S'reuni\xc3\xb3n'
p1727
(dp1728
S'NOUN'
p1729
F1.0
s(lp1730
(g216
I14
tp1731
atp1732
a(S'del'
p1733
(dp1734
S'ADP'
p1735
F1.0
s(lp1736
(g230
I16
tp1737
atp1738
a(S'20'
p1739
(dp1740
g130
F0.000436
sS'NUM'
p1741
F0.999564
s(lp1742
(g237
I18
tp1743
atp1744
a(S'de'
p1745
(dp1746
g130
F3.7e-05
sS'CONJ'
p1747
F0.000308
sS'ADP'
p1748
F0.999655
s(lp1749
(g244
I19
tp1750
atp1751
a(S'enero'
p1752
(dp1753
S'NOUN'
p1754
F1.0
s(lp1755
tp1756
a(S'de'
p1757
(dp1758
g130
F0.00082
sS'CONJ'
p1759
F3e-06
sS'ADP'
p1760
F0.999177
s(lp1761
(g244
I19
tp1762
atp1763
a(S'2011'
p1764
(dp1765
g130
F0.104661
sS'NUM'
p1766
F0.895339
s(lp1767
(g251
I20
tp1768
atp1769
a(g93
(dp1770
g95
F1.0
s(lp1771
(g93
I21
tp1772
atp1773
a(S'de'
p1774
(dp1775
S'ADP'
p1776
F1.0
s(lp1777
tp1778
a(S'conformidad'
p1779
(dp1780
S'ADP'
p1781
F1.0
s(lp1782
tp1783
a(S'con'
p1784
(dp1785
S'ADP'
p1786
F1.0
s(lp1787
(g103
I22
tp1788
atp1789
a(S'el'
p1790
(dp1791
S'PRON'
p1792
F5e-06
sS'DET'
p1793
F0.999995
s(lp1794
tp1795
a(S'art\xc3\xadculo'
p1796
(dp1797
S'NOUN'
p1798
F1.0
s(lp1799
(g125
I24
tp1800
atp1801
a(S'137'
p1802
(dp1803
g130
F0.885943
sS'NUM'
p1804
F0.114057
s(lp1805
(g133
I25
tp1806
atp1807
a(S'del'
p1808
(dp1809
S'ADP'
p1810
F1.0
s(lp1811
(g140
I26
tp1812
atp1813
a(S'reglamento'
p1814
(dp1815
S'VERB'
p1816
F1e-06
sS'NOUN'
p1817
F0.999999
s(lp1818
(g147
I28
tp1819
atp1820
a(S'del'
p1821
(dp1822
S'ADP'
p1823
F1.0
s(lp1824
(g456
I29
tp1825
atp1826
a(S'parlamento'
p1827
(dp1828
S'VERB'
p1829
F1e-06
sS'NOUN'
p1830
F0.999999
s(lp1831
(g462
I30
tp1832
atp1833
a(g95
(dp1834
g95
F1.0
s(lp1835
(g95
I35
tp1836
atp1837
as.