(dp0
S'fr'
p1
(lp2
(S'il'
p3
(dp4
S'PRON'
p5
F1.0
s(lp6
(S'it'
p7
I0
tp8
atp9
a(S'est'
p10
(dp11
S'VERB'
p12
F0.999978
sS'NOUN'
p13
F2.2e-05
s(lp14
(S'is'
p15
I1
tp16
atp17
a(S'difficile'
p18
(dp19
S'ADJ'
p20
F1.0
s(lp21
(S'difficult'
p22
I2
tp23
atp24
a(S'de'
p25
(dp26
S'ADP'
p27
F1.0
s(lp28
(S'to'
p29
I3
tp30
atp31
a(S'trouver'
p32
(dp33
S'VERB'
p34
F1.0
s(lp35
(S'find'
p36
I4
tp37
atp38
a(S'le'
p39
(dp40
S'PRON'
p41
F9.7e-05
sS'DET'
p42
F0.999903
s(lp43
(S'the'
p44
I5
tp45
atp46
a(S'juste'
p47
(dp48
S'NOUN'
p49
F0.016284
sS'ADJ'
p50
F0.983716
s(lp51
(S'right'
p52
I6
tp53
atp54
a(S'\xc3\xa9quilibre'
p55
(dp56
S'VERB'
p57
F0.017497000000000002
sS'NOUN'
p58
F0.982503
s(lp59
(S'balance'
p60
I7
tp61
atp62
a(S','
p63
(dp64
S'.'
p65
F1.0
s(lp66
(g63
I8
tp67
atp68
a(S"d'"
p69
(dp70
S'ADJ'
p71
F0.13429
sS'VERB'
p72
F0.638201
sS'NOUN'
p73
F0.227509
s(lp74
(S'other'
p75
I19
tp76
atp77
a(S'autant'
p78
(dp79
S'ADV'
p80
F1.0
s(lp81
(S'all'
p82
I9
tp83
atp84
a(S'plus'
p85
(dp86
S'ADV'
p87
F0.999724
sS'VERB'
p88
F0.000276
s(lp89
(S'more'
p90
I11
tp91
atp92
a(S'que'
p93
(dp94
S'ADV'
p95
F0.045867
sS'PRON'
p96
F0.030879
sS'CONJ'
p97
F0.923254
s(lp98
(S'since'
p99
I13
tp100
atp101
a(S'le'
p102
(dp103
S'PRON'
p104
F0.003454
sS'DET'
p105
F0.996546
s(lp106
tp107
a(S'pr\xc3\xa9sident'
p108
(dp109
S'VERB'
p110
F0.0029110000000000004
sS'NOUN'
p111
F0.997089
s(lp112
(S'president'
p113
I14
tp114
atp115
a(S'poutine'
p116
(dp117
S'NOUN'
p118
F1.0
s(lp119
(S'putin'
p120
I15
tp121
atp122
a(g63
(dp123
g65
F1.0
s(lp124
(g63
I20
tp125
atp126
a(S'comprend'
p127
(dp128
S'VERB'
p129
F1.0
s(lp130
(S'understands'
p131
I21
tp132
atp133
a(S'comme'
p134
(dp135
S'ADV'
p136
F0.932148
sS'CONJ'
p137
F0.067852
s(lp138
(S'like'
p139
I17
tp140
atp141
a(S'personne'
p142
(dp143
S'ADV'
p144
F0.886436
sS'NOUN'
p145
F0.113564
s(lp146
(S'no'
p147
I18
tp148
atp149
a(S"l'"
p150
(dp151
S'NOUN'
p152
F0.036626
sS'VERB'
p153
F0.7494770000000001
sS'ADJ'
p154
F0.213897
s(lp155
(S'the'
p156
I22
tp157
atp158
a(S'art'
p159
(dp160
S'NOUN'
p161
F1.0
s(lp162
(S'art'
p163
I23
tp164
atp165
a(S"d'"
p166
(dp167
S'NOUN'
p168
F0.032441
sS'VERB'
p169
F0.694014
sS'ADJ'
p170
F0.273544
s(lp171
(S'of'
p172
I24
tp173
atp174
a(S'exploiter'
p175
(dp176
S'VERB'
p177
F1.0
s(lp178
(S'exploiting'
p179
I25
tp180
atp181
a(S'chaque'
p182
(dp183
S'PRON'
p184
F1.0
s(lp185
(S'every'
p186
I26
tp187
atp188
a(S'divergence'
p189
(dp190
S'NOUN'
p191
F1.0
s(lp192
(S'difference'
p193
I27
tp194
atp195
a(S"d'"
p196
(dp197
S'NOUN'
p198
F0.032441
sS'VERB'
p199
F0.694014
sS'ADJ'
p200
F0.273544
s(lp201
(S'of'
p202
I28
tp203
atp204
a(S'opinion'
p205
(dp206
S'NOUN'
p207
F1.0
s(lp208
(S'opinion'
p209
I29
tp210
atp211
a(S'ou'
p212
(dp213
S'CONJ'
p214
F1.0
s(lp215
(S'or'
p216
I30
tp217
atp218
a(S'chaque'
p219
(dp220
S'PRON'
p221
F1.0
s(lp222
(S'different'
p223
I31
tp224
atp225
a(S'nuance'
p226
(dp227
S'VERB'
p228
F0.119121
sS'NOUN'
p229
F0.880879
s(lp230
(S'nuance'
p231
I32
tp232
atp233
a(S"d'"
p234
(dp235
S'NOUN'
p236
F0.039046
sS'VERB'
p237
F0.7065889999999999
sS'ADJ'
p238
F0.254366
s(lp239
(S'of'
p240
I33
tp241
atp242
a(S'opinion'
p243
(dp244
S'NOUN'
p245
F1.0
s(lp246
(S'opinion'
p247
I34
tp248
atp249
a(S'entre'
p250
(dp251
S'VERB'
p252
F0.000526
sS'ADP'
p253
F0.999474
s(lp254
(S'between'
p255
I35
tp256
atp257
a(S'les'
p258
(dp259
S'PRON'
p260
F3e-06
sS'DET'
p261
F0.999987
sS'ADP'
p262
F1.1e-05
s(lp263
(S'the'
p264
I36
tp265
atp266
a(S'\xc3\x89tats'
p267
(dp268
S'NOUN'
p269
F1.0
s(lp270
(S'states'
p271
I38
tp272
atp273
a(S'membres'
p274
(dp275
S'VERB'
p276
F0.025273
sS'NOUN'
p277
F0.974727
s(lp278
(S'member'
p279
I37
tp280
atp281
a(g65
(dp282
g65
F1.0
s(lp283
(g65
I39
tp284
atp285
asS'en'
p286
(lp287
(g7
(dp288
S'PRON'
p289
F1.0
s(lp290
(g7
I0
tp291
atp292
a(g15
(dp293
S'VERB'
p294
F1.0
s(lp295
(g15
I1
tp296
atp297
a(g22
(dp298
S'ADJ'
p299
F1.0
s(lp300
(g22
I2
tp301
atp302
a(g29
(dp303
S'ADV'
p304
F0.0
sS'PRT'
p305
F1.0
sS'ADP'
p306
F0.0
s(lp307
(g29
I3
tp308
atp309
a(g36
(dp310
S'VERB'
p311
F0.999997
sS'NOUN'
p312
F3e-06
s(lp313
(g36
I4
tp314
atp315
a(g44
(dp316
S'NOUN'
p317
F0.0
sS'DET'
p318
F1.0
s(lp319
(g44
I5
tp320
atp321
a(g52
(dp322
S'ADV'
p323
F0.004103
sS'NOUN'
p324
F0.298052
sS'VERB'
p325
F2e-06
sS'ADJ'
p326
F0.697843
s(lp327
(g52
I6
tp328
atp329
a(g60
(dp330
S'VERB'
p331
F0.001119
sS'NOUN'
p332
F0.998881
s(lp333
(g60
I7
tp334
atp335
a(g63
(dp336
g65
F1.0
s(lp337
(g63
I8
tp338
atp339
a(g82
(dp340
S'ADV'
p341
F0.837568
sS'DET'
p342
F0.16243200000000002
s(lp343
(g82
I9
tp344
atp345
a(S'the'
p346
(dp347
S'NOUN'
p348
F7.4e-05
sS'DET'
p349
F0.999926
s(lp350
(g346
I10
tp351
atp352
a(g90
(dp353
S'ADV'
p354
F0.859352
sS'ADJ'
p355
F0.140648
s(lp356
(g90
I11
tp357
atp358
a(S'so'
p359
(dp360
S'ADV'
p361
F0.893783
sS'ADJ'
p362
F0.0001
sS'CONJ'
p363
F0.00422
sS'NOUN'
p364
F0.000643
sS'ADP'
p365
F0.101255
s(lp366
(g359
I12
tp367
atp368
a(g99
(dp369
S'ADV'
p370
F0.0054
sS'ADP'
p371
F0.9946
s(lp372
(g99
I13
tp373
atp374
a(g113
(dp375
S'NOUN'
p376
F1.0
s(lp377
(g113
I14
tp378
atp379
a(g120
(dp380
S'ADJ'
p381
F0.002596
sS'NOUN'
p382
F0.997404
s(lp383
(g120
I15
tp384
atp385
a(g63
(dp386
g65
F1.0
s(lp387
(g63
I16
tp388
atp389
a(g139
(dp390
S'VERB'
p391
F0.08626500000000001
sS'ADJ'
p392
F0.000188
sS'ADP'
p393
F0.913546
s(lp394
(g139
I17
tp395
atp396
a(g147
(dp397
S'ADV'
p398
F0.013242
sS'X'
p399
F1.2e-05
sS'DET'
p400
F0.986743
sS'NOUN'
p401
F2e-06
s(lp402
(g147
I18
tp403
atp404
a(g75
(dp405
S'ADV'
p406
F3.8e-05
sS'NOUN'
p407
F0.000346
sS'ADJ'
p408
F0.999615
s(lp409
(g75
I19
tp410
atp411
a(g63
(dp412
g65
F1.0
s(lp413
(g63
I20
tp414
atp415
a(g131
(dp416
S'VERB'
p417
F1.0
s(lp418
(g131
I21
tp419
atp420
a(g156
(dp421
S'NOUN'
p422
F1e-06
sS'DET'
p423
F0.999999
s(lp424
(g156
I22
tp425
atp426
a(g163
(dp427
S'NOUN'
p428
F1.0
s(lp429
(g163
I23
tp430
atp431
a(g172
(dp432
S'ADP'
p433
F1.0
s(lp434
(g172
I24
tp435
atp436
a(g179
(dp437
S'VERB'
p438
F1.0
s(lp439
(g179
I25
tp440
atp441
a(g186
(dp442
S'DET'
p443
F1.0
s(lp444
(g186
I26
tp445
atp446
a(g193
(dp447
S'NOUN'
p448
F1.0
s(lp449
(g193
I27
tp450
atp451
a(g202
(dp452
S'ADP'
p453
F1.0
s(lp454
(g202
I28
tp455
atp456
a(g209
(dp457
S'NOUN'
p458
F1.0
s(lp459
(g209
I29
tp460
atp461
a(g216
(dp462
S'CONJ'
p463
F0.999999
sS'ADJ'
p464
F1e-06
s(lp465
(g216
I30
tp466
atp467
a(g223
(dp468
S'ADJ'
p469
F1.0
s(lp470
(g223
I31
tp471
atp472
a(g231
(dp473
S'NOUN'
p474
F1.0
s(lp475
(g231
I32
tp476
atp477
a(g240
(dp478
S'ADP'
p479
F1.0
s(lp480
(g240
I33
tp481
atp482
a(g247
(dp483
S'NOUN'
p484
F1.0
s(lp485
(g247
I34
tp486
atp487
a(g255
(dp488
S'ADV'
p489
F0.000132
sS'ADP'
p490
F0.999868
s(lp491
(g255
I35
tp492
atp493
a(g264
(dp494
S'NOUN'
p495
F1e-06
sS'DET'
p496
F0.999999
s(lp497
(g264
I36
tp498
atp499
a(g279
(dp500
S'NOUN'
p501
F1.0
s(lp502
(g279
I37
tp503
atp504
a(g271
(dp505
S'VERB'
p506
F0.009364
sS'NOUN'
p507
F0.990636
s(lp508
(g271
I38
tp509
atp510
a(g65
(dp511
g65
F1.0
s(lp512
(g65
I39
tp513
atp514
asS'nl'
p515
(lp516
(S'het'
p517
(dp518
S'PRON'
p519
F0.795342
sS'DET'
p520
F0.204658
s(lp521
(g7
I0
tp522
atp523
a(S'vinden'
p524
(dp525
S'VERB'
p526
F0.7926989999999999
sS'NOUN'
p527
F0.207301
s(lp528
(g36
I4
tp529
atp530
a(S'van'
p531
(dp532
S'ADP'
p533
F1.0
s(lp534
tp535
a(S'een'
p536
(dp537
S'ADJ'
p538
F1e-06
sS'PRON'
p539
F0.000516
sS'NUM'
p540
F1e-06
sS'DET'
p541
F0.999483
s(lp542
(g44
I5
tp543
atp544
a(S'juiste'
p545
(dp546
S'NOUN'
p547
F0.01362
sS'ADJ'
p548
F0.98638
s(lp549
(g52
I6
tp550
atp551
a(S'balans'
p552
(dp553
S'NOUN'
p554
F1.0
s(lp555
(g60
I7
tp556
atp557
a(S'is'
p558
(dp559
S'VERB'
p560
F1.0
s(lp561
(g15
I1
tp562
atp563
a(S'moeilijk'
p564
(dp565
S'ADJ'
p566
F1.0
s(lp567
(g22
I2
tp568
atp569
a(g63
(dp570
g65
F1.0
s(lp571
(g63
I8
tp572
atp573
a(S'temeer'
p574
(dp575
S'ADV'
p576
F1.0
s(lp577
(g90
I11
tp578
atp579
a(S'daar'
p580
(dp581
S'ADV'
p582
F0.139678
sS'CONJ'
p583
F0.860322
s(lp584
(g99
I13
tp585
atp586
a(S'president'
p587
(dp588
S'NOUN'
p589
F1.0
s(lp590
(g113
I14
tp591
atp592
a(S'poetin'
p593
(dp594
S'NOUN'
p595
F1.0
s(lp596
(g120
I15
tp597
atp598
a(S'als'
p599
(dp600
S'CONJ'
p601
F1.0
s(lp602
(g139
I17
tp603
atp604
a(S'geen'
p605
(dp606
S'PRON'
p607
F0.999917
sS'DET'
p608
F8.2e-05
s(lp609
(g147
I18
tp610
atp611
a(S'ander'
p612
(dp613
S'PRON'
p614
F0.000274
sS'ADJ'
p615
F0.999726
s(lp616
(g75
I19
tp617
atp618
a(S'de'
p619
(dp620
S'DET'
p621
F1.0
s(lp622
(g156
I22
tp623
atp624
a(S'kunst'
p625
(dp626
S'NOUN'
p627
F1.0
s(lp628
(g163
I23
tp629
atp630
a(S'verstaat'
p631
(dp632
S'VERB'
p633
F1.0
s(lp634
(g131
I21
tp635
atp636
a(S'om'
p637
(dp638
S'ADV'
p639
F0.063879
sS'CONJ'
p640
F0.91426
sS'ADP'
p641
F0.021861
s(lp642
(g179
I25
tp643
atp644
a(S'op'
p645
(dp646
S'ADV'
p647
F0.081922
sS'ADJ'
p648
F0.0
sS'ADP'
p649
F0.918078
s(lp650
(g202
I28
tp651
atp652
a(S'elk'
p653
(dp654
S'PRON'
p655
F1.0
s(lp656
(g186
I26
tp657
atp658
a(S'meningsverschil'
p659
(dp660
S'NOUN'
p661
F1.0
s(lp662
(g193
I27
tp663
atp664
a(S'en'
p665
(dp666
S'CONJ'
p667
F1.0
s(lp668
(g216
I30
tp669
atp670
a(S'zelfs'
p671
(dp672
S'ADV'
p673
F1.0
s(lp674
(g231
I32
tp675
atp676
a(S'elk'
p677
(dp678
S'PRON'
p679
F1.0
s(lp680
(g223
I31
tp681
atp682
a(S'nuanceverschil'
p683
(dp684
S'NOUN'
p685
F1.0
s(lp686
(g231
I32
tp687
atp688
a(S'tussen'
p689
(dp690
S'ADP'
p691
F1.0
s(lp692
(g255
I35
tp693
atp694
a(S'de'
p695
(dp696
S'DET'
p697
F1.0
s(lp698
(g264
I36
tp699
atp700
a(S'lidstaten'
p701
(dp702
S'NOUN'
p703
F1.0
s(lp704
(g279
I37
tp705
atp706
a(S'handig'
p707
(dp708
S'ADJ'
p709
F1.0
s(lp710
tp711
a(S'in'
p712
(dp713
S'ADV'
p714
F0.992912
sS'VERB'
p715
F0.000651
sS'ADP'
p716
F0.006437
s(lp717
(g240
I33
tp718
atp719
a(S'te'
p720
(dp721
S'PRT'
p722
F1.0
s(lp723
tp724
a(S'spelen'
p725
(dp726
S'VERB'
p727
F0.999249
sS'NOUN'
p728
F0.000751
s(lp729
(g231
I32
tp730
atp731
a(g65
(dp732
g65
F1.0
s(lp733
(g65
I39
tp734
atp735
asS'de'
p736
(lp737
(S'es'
p738
(dp739
S'PRON'
p740
F1.0
s(lp741
(g7
I0
tp742
atp743
a(S'ist'
p744
(dp745
S'VERB'
p746
F1.0
s(lp747
(g15
I1
tp748
atp749
a(S'schwer'
p750
(dp751
S'PRT'
p752
F1.5e-05
sS'ADJ'
p753
F0.999985
s(lp754
(g22
I2
tp755
atp756
a(g63
(dp757
g65
F1.0
s(lp758
tp759
a(S'das'
p760
(dp761
S'PRON'
p762
F0.122918
sS'DET'
p763
F0.776458
s(lp764
(g44
I5
tp765
atp766
a(S'richtige'
p767
(dp768
S'ADJ'
p769
F1.0
s(lp770
(g52
I6
tp771
atp772
a(S'gleichgewicht'
p773
(dp774
S'ADJ'
p775
F1.9e-05
sS'NOUN'
p776
F0.999978
s(lp777
(g60
I7
tp778
atp779
a(S'zu'
p780
(dp781
S'PRT'
p782
F0.9999709999999999
s(lp783
(g29
I3
tp784
atp785
a(S'finden'
p786
(dp787
S'VERB'
p788
F1.0
s(lp789
(g36
I4
tp790
atp791
a(g63
(dp792
g65
F1.0
s(lp793
(g63
I8
tp794
atp795
a(S'und'
p796
(dp797
S'CONJ'
p798
F1.0
s(lp799
(g82
I9
tp800
atp801
a(S'das'
p802
(dp803
S'PRON'
p804
F0.878233
sS'DET'
p805
F0.080277
s(lp806
(g346
I10
tp807
atp808
a(S'umso'
p809
(dp810
S'ADV'
p811
F1.0
s(lp812
tp813
a(S'mehr'
p814
(dp815
S'ADV'
p816
F0.830609
sS'PRON'
p817
F0.112222
s(lp818
(g90
I11
tp819
atp820
a(g63
(dp821
g65
F1.0
s(lp822
tp823
a(S'weil'
p824
(dp825
S'CONJ'
p826
F0.999864
sS'VERB'
p827
F0.000136
s(lp828
(g99
I13
tp829
atp830
a(S'pr\xc3\xa4sident'
p831
(dp832
S'ADJ'
p833
F0.000952
sS'NOUN'
p834
F0.997555
s(lp835
(g113
I14
tp836
atp837
a(S'putin'
p838
(dp839
S'VERB'
p840
F0.722634
sS'NOUN'
p841
F0.275574
s(lp842
(g120
I15
tp843
atp844
a(S'es'
p845
(dp846
S'PRON'
p847
F1.0
s(lp848
(g63
I16
tp849
atp850
a(S'wie'
p851
(dp852
S'CONJ'
p853
F0.999891
s(lp854
(g139
I17
tp855
atp856
a(S'kein'
p857
(dp858
S'PRON'
p859
F1.0
s(lp860
(g147
I18
tp861
atp862
a(S'anderer'
p863
(dp864
S'PRON'
p865
F1.0
s(lp866
(g75
I19
tp867
atp868
a(S'versteht'
p869
(dp870
S'VERB'
p871
F1.0
s(lp872
(g131
I21
tp873
atp874
a(g63
(dp875
g65
F1.0
s(lp876
(g63
I20
tp877
atp878
a(S'jede'
p879
(dp880
S'PRON'
p881
F1.0
s(lp882
(g186
I26
tp883
atp884
a(S'meinungsverschiedenheit'
p885
(dp886
S'ADJ'
p887
F0.128547
sS'NOUN'
p888
F0.836246
s(lp889
(g193
I27
tp890
atp891
a(S'oder'
p892
(dp893
S'CONJ'
p894
F1.0
s(lp895
(g216
I30
tp896
atp897
a(S'auch'
p898
(dp899
S'ADV'
p900
F1.0
s(lp901
tp902
a(S'nur'
p903
(dp904
S'ADV'
p905
F1.0
s(lp906
(g231
I32
tp907
atp908
a(S'die'
p909
(dp910
S'PRON'
p911
F0.000757
sS'DET'
p912
F0.99924
s(lp913
tp914
a(S'kleinste'
p915
(dp916
S'ADJ'
p917
F1.0
s(lp918
tp919
a(S'nuance'
p920
(dp921
S'NOUN'
p922
F0.994595
s(lp923
(g231
I32
tp924
atp925
a(S'in'
p926
(dp927
S'ADP'
p928
F1.0
s(lp929
(g172
I24
tp930
atp931
a(S'den'
p932
(dp933
S'PRON'
p934
F6.2e-05
sS'DET'
p935
F0.999936
s(lp936
(g156
I22
tp937
atp938
a(S'meinungen'
p939
(dp940
S'ADJ'
p941
F0.01236
sS'NOUN'
p942
F0.975979
s(lp943
(g247
I34
tp944
atp945
a(S'der'
p946
(dp947
S'PRON'
p948
F9e-05
sS'DET'
p949
F0.999822
s(lp950
(g264
I36
tp951
atp952
a(S'mitgliedstaaten'
p953
(dp954
S'ADJ'
p955
F0.027489
sS'NOUN'
p956
F0.971258
s(lp957
(g279
I37
tp958
atp959
a(S'auszunutzen'
p960
(dp961
S'VERB'
p962
F1.0
s(lp963
(g179
I25
tp964
atp965
a(g65
(dp966
g65
F1.0
s(lp967
(g65
I39
tp968
atp969
asS'it'
p970
(lp971
(S'e'
p972
(dp973
S'CONJ'
p974
F1.0
s(lp975
(g7
I0
tp976
atp977
a(S"'"
p978
(dp979
g65
F1.0
s(lp980
(g15
I1
tp981
atp982
a(S'complicato'
p983
(dp984
S'ADJ'
p985
F0.070696
sS'VERB'
p986
F0.669927
sS'NOUN'
p987
F0.259377
s(lp988
(g22
I2
tp989
atp990
a(S'trovare'
p991
(dp992
S'VERB'
p993
F1.0
s(lp994
(g36
I4
tp995
atp996
a(S'il'
p997
(dp998
S'DET'
p999
F1.0
s(lp1000
(g44
I5
tp1001
atp1002
a(S'giusto'
p1003
(dp1004
S'NOUN'
p1005
F0.045098
sS'ADJ'
p1006
F0.954902
s(lp1007
(g52
I6
tp1008
atp1009
a(S'equilibrio'
p1010
(dp1011
S'NOUN'
p1012
F1.0
s(lp1013
(g60
I7
tp1014
atp1015
a(g63
(dp1016
g65
F1.0
s(lp1017
(g63
I8
tp1018
atp1019
a(S'ancora'
p1020
(dp1021
S'ADV'
p1022
F0.969068
sS'VERB'
p1023
F0.02953
sS'NOUN'
p1024
F0.001402
s(lp1025
(g82
I9
tp1026
atp1027
a(S'di'
p1028
(dp1029
S'CONJ'
p1030
F0.000243
sS'ADP'
p1031
F0.999757
s(lp1032
tp1033
a(S'pi\xc3\xb9'
p1034
(dp1035
S'ADV'
p1036
F0.97358
sS'NOUN'
p1037
F0.001137
sS'ADJ'
p1038
F0.02528
sS'ADP'
p1039
F3e-06
s(lp1040
(g90
I11
tp1041
atp1042
a(S'da'
p1043
(dp1044
S'ADP'
p1045
F1.0
s(lp1046
(g359
I12
tp1047
atp1048
a(S'quando'
p1049
(dp1050
S'ADV'
p1051
F0.653598
sS'PRON'
p1052
F0.007159
sS'CONJ'
p1053
F0.325613
sS'NOUN'
p1054
F0.01363
s(lp1055
(g99
I13
tp1056
atp1057
a(S'il'
p1058
(dp1059
S'DET'
p1060
F1.0
s(lp1061
(g346
I10
tp1062
atp1063
a(S'presidente'
p1064
(dp1065
S'NOUN'
p1066
F1.0
s(lp1067
(g113
I14
tp1068
atp1069
a(S'putin'
p1070
(dp1071
S'VERB'
p1072
F0.836552
sS'NOUN'
p1073
F0.163448
s(lp1074
(g120
I15
tp1075
atp1076
a(g63
(dp1077
g65
F1.0
s(lp1078
(g63
I16
tp1079
atp1080
a(S'come'
p1081
(dp1082
S'PRON'
p1083
F0.002547
sS'CONJ'
p1084
F0.613221
sS'NOUN'
p1085
F4.6e-05
sS'ADP'
p1086
F0.384186
s(lp1087
(g139
I17
tp1088
atp1089
a(S'nessun'
p1090
(dp1091
S'PRON'
p1092
F0.983813
sS'ADJ'
p1093
F0.016187
s(lp1094
(g147
I18
tp1095
atp1096
a(S'altro'
p1097
(dp1098
S'ADV'
p1099
F0.009402
sS'PRON'
p1100
F0.661659
sS'ADJ'
p1101
F0.277836
sS'NOUN'
p1102
F0.051104
s(lp1103
(g75
I19
tp1104
atp1105
a(g63
(dp1106
g65
F1.0
s(lp1107
(g63
I20
tp1108
atp1109
a(S'comprende'
p1110
(dp1111
S'VERB'
p1112
F1.0
s(lp1113
(g131
I21
tp1114
atp1115
a(S"l'"
p1116
(dp1117
S'NOUN'
p1118
F0.000971
sS'VERB'
p1119
F0.9832770000000001
sS'ADJ'
p1120
F0.015752
s(lp1121
(g156
I22
tp1122
atp1123
a(S'arte'
p1124
(dp1125
S'NOUN'
p1126
F1.0
s(lp1127
(g163
I23
tp1128
atp1129
a(S'di'
p1130
(dp1131
S'CONJ'
p1132
F6e-06
sS'ADP'
p1133
F0.999994
s(lp1134
(g172
I24
tp1135
atp1136
a(S'sfruttare'
p1137
(dp1138
S'VERB'
p1139
F1.0
s(lp1140
(g179
I25
tp1141
atp1142
a(S'ogni'
p1143
(dp1144
S'PRON'
p1145
F0.118773
sS'ADJ'
p1146
F0.881227
s(lp1147
(g186
I26
tp1148
atp1149
a(S'divergenza'
p1150
(dp1151
S'NOUN'
p1152
F1.0
s(lp1153
(g193
I27
tp1154
atp1155
a(S"d'"
p1156
(dp1157
g399
F1.0
s(lp1158
(g202
I28
tp1159
atp1160
a(S'opinione'
p1161
(dp1162
S'NOUN'
p1163
F1.0
s(lp1164
(g209
I29
tp1165
atp1166
a(S'o'
p1167
(dp1168
g399
F0.0
sS'CONJ'
p1169
F1.0
s(lp1170
(g216
I30
tp1171
atp1172
a(S'sfumatura'
p1173
(dp1174
S'NOUN'
p1175
F1.0
s(lp1176
(g231
I32
tp1177
atp1178
a(S'tra'
p1179
(dp1180
S'CONJ'
p1181
F0.001604
sS'ADP'
p1182
F0.998396
s(lp1183
(g255
I35
tp1184
atp1185
a(S'gli'
p1186
(dp1187
S'PRON'
p1188
F0.021616
sS'DET'
p1189
F0.978384
s(lp1190
tp1191
a(S'stati'
p1192
(dp1193
S'VERB'
p1194
F0.428356
sS'NOUN'
p1195
F0.571644
s(lp1196
(g271
I38
tp1197
atp1198
a(S'membri'
p1199
(dp1200
S'NOUN'
p1201
F1.0
s(lp1202
(g279
I37
tp1203
atp1204
a(g65
(dp1205
g65
F1.0
s(lp1206
(g65
I39
tp1207
atp1208
asS'sk'
p1209
(lp1210
(S'je'
p1211
(dp1212
S'PRON'
p1213
F9.3e-05
sS'VERB'
p1214
F0.999794
sg399
F0.000113
s(lp1215
(g15
I1
tp1216
atp1217
a(S'n\xc3\xa1ro\xc4\x8dn\xc3\xa9'
p1218
(dp1219
S'ADJ'
p1220
F1.0
s(lp1221
(g22
I2
tp1222
atp1223
a(S'n\xc3\xa1js\xc5\xa5'
p1224
(dp1225
S'VERB'
p1226
F1.0
s(lp1227
(g36
I4
tp1228
atp1229
a(S'spr\xc3\xa1vnu'
p1230
(dp1231
S'ADJ'
p1232
F1.0
s(lp1233
(g52
I6
tp1234
atp1235
a(S'rovnov\xc3\xa1hu'
p1236
(dp1237
S'NOUN'
p1238
F1.0
s(lp1239
(g60
I7
tp1240
atp1241
a(g63
(dp1242
g65
F1.0
s(lp1243
(g63
I8
tp1244
atp1245
a(S't\xc3\xbdm'
p1246
(dp1247
S'PRON'
p1248
F0.389433
sS'CONJ'
p1249
F0.610567
s(lp1250
(g346
I10
tp1251
atp1252
a(S'viac'
p1253
(dp1254
S'ADV'
p1255
F0.518468
sg399
F0.037143
sS'CONJ'
p1256
F0.000299
sS'NUM'
p1257
F0.44408899999999996
s(lp1258
(g90
I11
tp1259
atp1260
a(g63
(dp1261
g65
F1.0
s(lp1262
tp1263
a(S'odkedy'
p1264
(dp1265
S'PRON'
p1266
F1.0
s(lp1267
(g99
I13
tp1268
atp1269
a(S'prezident'
p1270
(dp1271
S'NOUN'
p1272
F1.0
s(lp1273
(g113
I14
tp1274
atp1275
a(S'putin'
p1276
(dp1277
S'NOUN'
p1278
F1.0
s(lp1279
(g120
I15
tp1280
atp1281
a(g63
(dp1282
g65
F1.0
s(lp1283
(g63
I16
tp1284
atp1285
a(S'tak'
p1286
(dp1287
S'PRON'
p1288
F0.249814
sS'CONJ'
p1289
F0.715298
sg399
F0.034888999999999996
s(lp1290
tp1291
a(S'ako'
p1292
(dp1293
S'PRON'
p1294
F0.104235
sS'CONJ'
p1295
F0.895169
sg399
F0.000596
s(lp1296
(g139
I17
tp1297
atp1298
a(S'nikto'
p1299
(dp1300
S'PRON'
p1301
F1.0
s(lp1302
(g147
I18
tp1303
atp1304
a(S'in\xc3\xbd'
p1305
(dp1306
S'PRON'
p1307
F0.987889
sS'NOUN'
p1308
F0.012111
s(lp1309
(g75
I19
tp1310
atp1311
a(g63
(dp1312
g65
F1.0
s(lp1313
(g63
I20
tp1314
atp1315
a(S'ch\xc3\xa1pe'
p1316
(dp1317
S'VERB'
p1318
F1.0
s(lp1319
(g131
I21
tp1320
atp1321
a(S'umenie'
p1322
(dp1323
S'NOUN'
p1324
F1.0
s(lp1325
(g163
I23
tp1326
atp1327
a(S'vyu\xc5\xbe\xc3\xadvania'
p1328
(dp1329
S'NOUN'
p1330
F1.0
s(lp1331
(g179
I25
tp1332
atp1333
a(S'ka\xc5\xbed\xc3\xa9ho'
p1334
(dp1335
S'PRON'
p1336
F1.0
s(lp1337
(g186
I26
tp1338
atp1339
a(S'rozdielu'
p1340
(dp1341
S'NOUN'
p1342
F1.0
s(lp1343
(g193
I27
tp1344
atp1345
a(S'v'
p1346
(dp1347
g399
F0.000465
sS'ADP'
p1348
F0.999535
s(lp1349
(g202
I28
tp1350
atp1351
a(S'n\xc3\xa1zoroch'
p1352
(dp1353
S'NOUN'
p1354
F1.0
s(lp1355
(g209
I29
tp1356
atp1357
a(S'alebo'
p1358
(dp1359
g399
F2.5e-05
sS'CONJ'
p1360
F0.999975
s(lp1361
(g216
I30
tp1362
atp1363
a(S'rozli\xc4\x8dn\xc3\xa9'
p1364
(dp1365
S'ADJ'
p1366
F1.0
s(lp1367
(g223
I31
tp1368
atp1369
a(S'odtienky'
p1370
(dp1371
S'NOUN'
p1372
F1.0
s(lp1373
(g231
I32
tp1374
atp1375
a(g1346
(dp1376
g399
F0.00011300000000000001
sS'ADP'
p1377
F0.999887
s(lp1378
(g240
I33
tp1379
atp1380
a(S'n\xc3\xa1zoroch'
p1381
(dp1382
S'NOUN'
p1383
F1.0
s(lp1384
(g247
I34
tp1385
atp1386
a(S'medzi'
p1387
(dp1388
S'NOUN'
p1389
F0.000263
sS'ADP'
p1390
F0.999737
s(lp1391
(g255
I35
tp1392
atp1393
a(S'\xc4\x8dlensk\xc3\xbdmi'
p1394
(dp1395
S'ADJ'
p1396
F1.0
s(lp1397
(g279
I37
tp1398
atp1399
a(S'\xc5\xa1t\xc3\xa1tmi'
p1400
(dp1401
S'NOUN'
p1402
F1.0
s(lp1403
(g271
I38
tp1404
atp1405
a(g65
(dp1406
g65
F1.0
s(lp1407
(g65
I39
tp1408
atp1409
asS'pl'
p1410
(lp1411
(S'trudno'
p1412
(dp1413
S'ADV'
p1414
F1.0
s(lp1415
(g22
I2
tp1416
atp1417
a(S'jest'
p1418
(dp1419
S'VERB'
p1420
F1.0
s(lp1421
(g15
I1
tp1422
atp1423
a(S'znale\xc5\xba\xc4\x87'
p1424
(dp1425
S'VERB'
p1426
F1.0
s(lp1427
(g36
I4
tp1428
atp1429
a(S'odpowiedni\xc4\x85'
p1430
(dp1431
S'ADJ'
p1432
F1.0
s(lp1433
(g52
I6
tp1434
atp1435
a(S'r\xc3\xb3wnowag\xc4\x99'
p1436
(dp1437
S'NOUN'
p1438
F1.0
s(lp1439
(g60
I7
tp1440
atp1441
a(g63
(dp1442
g399
F0.0
sg65
F1.0
s(lp1443
(g63
I8
tp1444
atp1445
a(S'szczeg\xc3\xb3lnie'
p1446
(dp1447
S'ADV'
p1448
F0.423919
sS'PRT'
p1449
F0.576081
s(lp1450
(g90
I11
tp1451
atp1452
a(S'odk\xc4\x85d'
p1453
(dp1454
S'ADV'
p1455
F1.0
s(lp1456
(g99
I13
tp1457
atp1458
a(S'prezydent'
p1459
(dp1460
S'NOUN'
p1461
F1.0
s(lp1462
tp1463
a(S'putin'
p1464
(dp1465
S'ADV'
p1466
F0.000338
sS'ADJ'
p1467
F0.00018700000000000002
sS'VERB'
p1468
F0.004458999999999999
sS'NOUN'
p1469
F0.9950170000000002
s(lp1470
(g120
I15
tp1471
atp1472
a(g63
(dp1473
g399
F0.0
sg65
F1.0
s(lp1474
(g63
I16
tp1475
atp1476
a(S'jak'
p1477
(dp1478
S'ADV'
p1479
F0.317458
sS'PRT'
p1480
F0.000667
sS'CONJ'
p1481
F0.092633
sS'ADP'
p1482
F0.589228
sS'PRON'
p1483
F1.5e-05
s(lp1484
(g139
I17
tp1485
atp1486
a(S'nikt'
p1487
(dp1488
S'NOUN'
p1489
F1.0
s(lp1490
(g147
I18
tp1491
atp1492
a(S'inny'
p1493
(dp1494
S'NOUN'
p1495
F0.0441
sS'ADJ'
p1496
F0.9559000000000001
s(lp1497
(g75
I19
tp1498
atp1499
a(g63
(dp1500
g399
F0.0
sg65
F1.0
s(lp1501
(g63
I20
tp1502
atp1503
a(S'poj\xc4\x85\xc5\x82'
p1504
(dp1505
S'VERB'
p1506
F1.0
s(lp1507
(g131
I21
tp1508
atp1509
a(S'sztuk\xc4\x99'
p1510
(dp1511
S'NOUN'
p1512
F1.0
s(lp1513
(g163
I23
tp1514
atp1515
a(S'wykorzystywania'
p1516
(dp1517
S'VERB'
p1518
F1.0
s(lp1519
(g179
I25
tp1520
atp1521
a(S'ka\xc5\xbcdej'
p1522
(dp1523
S'ADJ'
p1524
F1.0
s(lp1525
(g186
I26
tp1526
atp1527
a(S'r\xc3\xb3\xc5\xbcnicy'
p1528
(dp1529
S'NOUN'
p1530
F1.0
s(lp1531
(g193
I27
tp1532
atp1533
a(S'zda\xc5\x84'
p1534
(dp1535
S'NOUN'
p1536
F1.0
s(lp1537
(g231
I32
tp1538
atp1539
a(S'mi\xc4\x99dzy'
p1540
(dp1541
S'ADP'
p1542
F1.0
s(lp1543
(g255
I35
tp1544
atp1545
a(S'pa\xc5\x84stwami'
p1546
(dp1547
S'NOUN'
p1548
F1.0
s(lp1549
(g271
I38
tp1550
atp1551
a(S'cz\xc5\x82onkowskimi'
p1552
(dp1553
S'ADJ'
p1554
F1.0
s(lp1555
(g279
I37
tp1556
atp1557
a(g65
(dp1558
g65
F1.0
s(lp1559
(g65
I39
tp1560
atp1561
asS'sl'
p1562
(lp1563
(S'te\xc5\xbeko'
p1564
(dp1565
S'ADV'
p1566
F0.812096
sS'ADJ'
p1567
F0.187904
s(lp1568
(g22
I2
tp1569
atp1570
a(S'je'
p1571
(dp1572
S'PRON'
p1573
F0.005487
sS'VERB'
p1574
F0.994509
sg399
F4e-06
s(lp1575
(g15
I1
tp1576
atp1577
a(S'vzpostaviti'
p1578
(dp1579
S'VERB'
p1580
F1.0
s(lp1581
(g36
I4
tp1582
atp1583
a(S'pravo'
p1584
(dp1585
S'NOUN'
p1586
F0.0009209999999999999
sS'ADJ'
p1587
F0.9990799999999999
s(lp1588
(g52
I6
tp1589
atp1590
a(S'ravnovesje'
p1591
(dp1592
S'NOUN'
p1593
F1.0
s(lp1594
(g60
I7
tp1595
atp1596
a(g63
(dp1597
g65
F1.0
s(lp1598
(g63
I8
tp1599
atp1600
a(S'\xc5\xa1e'
p1601
(dp1602
S'PRT'
p1603
F1.0
s(lp1604
(g82
I9
tp1605
atp1606
a(S'zlasti'
p1607
(dp1608
S'ADV'
p1609
F0.023366
sS'PRT'
p1610
F0.976634
s(lp1611
(g90
I11
tp1612
atp1613
a(S'zato'
p1614
(dp1615
S'ADV'
p1616
F0.981924
sS'CONJ'
p1617
F0.018076
s(lp1618
(g359
I12
tp1619
atp1620
a(g63
(dp1621
g65
F1.0
s(lp1622
tp1623
a(S'ker'
p1624
(dp1625
S'CONJ'
p1626
F1.0
s(lp1627
(g99
I13
tp1628
atp1629
a(S'je'
p1630
(dp1631
S'PRON'
p1632
F0.001655
sS'VERB'
p1633
F0.998344
sg399
F1e-06
s(lp1634
tp1635
a(S'predsednik'
p1636
(dp1637
S'NOUN'
p1638
F1.0
s(lp1639
(g113
I14
tp1640
atp1641
a(S'putin'
p1642
(dp1643
S'ADV'
p1644
F0.000383
sS'ADJ'
p1645
F0.16312000000000004
sS'VERB'
p1646
F0.008833
sS'NOUN'
p1647
F0.8266140000000002
sg399
F0.001052
s(lp1648
(g120
I15
tp1649
atp1650
a(g63
(dp1651
g65
F1.0
s(lp1652
(g63
I16
tp1653
atp1654
a(S'kot'
p1655
(dp1656
S'CONJ'
p1657
F0.999985
sS'NOUN'
p1658
F1.4999999999999999e-05
s(lp1659
(g139
I17
tp1660
atp1661
a(S'nih\xc4\x8de'
p1662
(dp1663
S'PRON'
p1664
F1.0
s(lp1665
(g147
I18
tp1666
atp1667
a(S'drug'
p1668
(dp1669
S'NUM'
p1670
F1.0
s(lp1671
(g75
I19
tp1672
atp1673
a(g63
(dp1674
g65
F1.0
s(lp1675
(g63
I20
tp1676
atp1677
a(S've\xc5\xa1\xc4\x8d'
p1678
(dp1679
S'ADV'
p1680
F0.094925
sS'ADJ'
p1681
F0.022901
sS'CONJ'
p1682
F0.004997
sS'VERB'
p1683
F0.012491
sS'NOUN'
p1684
F0.864685
s(lp1685
(g163
I23
tp1686
atp1687
a(g1346
(dp1688
S'ADP'
p1689
F1.0
s(lp1690
(g172
I24
tp1691
atp1692
a(S'izkori\xc5\xa1\xc4\x8danju'
p1693
(dp1694
S'NOUN'
p1695
F1.0
s(lp1696
(g179
I25
tp1697
atp1698
a(S'vsakega'
p1699
(dp1700
S'PRON'
p1701
F1.0
s(lp1702
(g186
I26
tp1703
atp1704
a(S'razlikovanja'
p1705
(dp1706
S'NOUN'
p1707
F1.0
s(lp1708
(g193
I27
tp1709
atp1710
a(S'mnenj'
p1711
(dp1712
S'NOUN'
p1713
F1.0
s(lp1714
(g209
I29
tp1715
atp1716
a(S'ali'
p1717
(dp1718
S'ADV'
p1719
F0.054348
sS'CONJ'
p1720
F0.945652
s(lp1721
(g216
I30
tp1722
atp1723
a(S'najmanj\xc5\xa1ih'
p1724
(dp1725
S'ADJ'
p1726
F1.0
s(lp1727
tp1728
a(S'odstopanj'
p1729
(dp1730
S'NOUN'
p1731
F1.0
s(lp1732
(g231
I32
tp1733
atp1734
a(g1346
(dp1735
S'ADP'
p1736
F1.0
s(lp1737
(g240
I33
tp1738
atp1739
a(S'mnenjih'
p1740
(dp1741
S'NOUN'
p1742
F1.0
s(lp1743
(g247
I34
tp1744
atp1745
a(S'med'
p1746
(dp1747
S'NOUN'
p1748
F4.9999999999999996e-06
sS'ADP'
p1749
F0.999994
s(lp1750
(g255
I35
tp1751
atp1752
a(S'dr\xc5\xbeavami'
p1753
(dp1754
S'NOUN'
p1755
F1.0
s(lp1756
(g279
I37
tp1757
atp1758
a(S'\xc4\x8dlanicami'
p1759
(dp1760
S'NOUN'
p1761
F1.0
s(lp1762
(g271
I38
tp1763
atp1764
a(g65
(dp1765
g65
F1.0
s(lp1766
(g65
I39
tp1767
atp1768
asS'es'
p1769
(lp1770
(S'es'
p1771
(dp1772
S'VERB'
p1773
F1.0
s(lp1774
(g15
I1
tp1775
atp1776
a(S'dif\xc3\xadcil'
p1777
(dp1778
S'ADJ'
p1779
F1.0
s(lp1780
(g22
I2
tp1781
atp1782
a(S'encontrar'
p1783
(dp1784
S'VERB'
p1785
F1.0
s(lp1786
(g36
I4
tp1787
atp1788
a(S'el'
p1789
(dp1790
S'PRON'
p1791
F0.0
sS'DET'
p1792
F1.0
s(lp1793
(g44
I5
tp1794
atp1795
a(S'equilibrio'
p1796
(dp1797
S'NOUN'
p1798
F1.0
s(lp1799
(g60
I7
tp1800
atp1801
a(S'adecuado'
p1802
(dp1803
S'VERB'
p1804
F0.143854
sS'ADJ'
p1805
F0.856146
s(lp1806
(g52
I6
tp1807
atp1808
a(g63
(dp1809
g65
F1.0
s(lp1810
(g63
I8
tp1811
atp1812
a(S'sobre'
p1813
(dp1814
S'ADV'
p1815
F1.0
s(lp1816
tp1817
a(S'todo'
p1818
(dp1819
S'ADV'
p1820
F1.0
s(lp1821
(g82
I9
tp1822
atp1823
a(S'porque'
p1824
(dp1825
S'CONJ'
p1826
F1.0
s(lp1827
(g99
I13
tp1828
atp1829
a(S'el'
p1830
(dp1831
S'PRON'
p1832
F1.2e-05
sS'DET'
p1833
F0.999988
s(lp1834
(g346
I10
tp1835
atp1836
a(S'presidente'
p1837
(dp1838
S'NOUN'
p1839
F1.0
s(lp1840
(g113
I14
tp1841
atp1842
a(S'putin'
p1843
(dp1844
S'ADV'
p1845
F0.040151
sS'NOUN'
p1846
F0.376162
sS'VERB'
p1847
F0.000314
sS'ADJ'
p1848
F0.583373
s(lp1849
(g120
I15
tp1850
atp1851
a(S'conoce'
p1852
(dp1853
S'VERB'
p1854
F1.0
s(lp1855
(g131
I21
tp1856
atp1857
a(S'mejor'
p1858
(dp1859
S'ADJ'
p1860
F1.0
s(lp1861
(g90
I11
tp1862
atp1863
a(S'que'
p1864
(dp1865
g399
F2.4e-05
sS'CONJ'
p1866
F0.999976
s(lp1867
(g63
I16
tp1868
atp1869
a(S'nadie'
p1870
(dp1871
S'NOUN'
p1872
F1.0
s(lp1873
(g147
I18
tp1874
atp1875
a(S'el'
p1876
(dp1877
S'PRON'
p1878
F1.2e-05
sS'DET'
p1879
F0.999988
s(lp1880
(g156
I22
tp1881
atp1882
a(S'arte'
p1883
(dp1884
S'NOUN'
p1885
F1.0
s(lp1886
(g163
I23
tp1887
atp1888
a(S'de'
p1889
(dp1890
g399
F0.0
sS'CONJ'
p1891
F0.345844
sS'ADP'
p1892
F0.654156
s(lp1893
(g172
I24
tp1894
atp1895
a(S'aprovechar'
p1896
(dp1897
S'VERB'
p1898
F1.0
s(lp1899
(g179
I25
tp1900
atp1901
a(S'cualquier'
p1902
(dp1903
S'ADJ'
p1904
F1.0
s(lp1905
(g186
I26
tp1906
atp1907
a(S'diferencia'
p1908
(dp1909
S'NOUN'
p1910
F1.0
s(lp1911
(g193
I27
tp1912
atp1913
a(S'de'
p1914
(dp1915
g399
F2.9e-05
sS'CONJ'
p1916
F0.000449
sS'ADP'
p1917
F0.999522
s(lp1918
(g202
I28
tp1919
atp1920
a(S'opini\xc3\xb3n'
p1921
(dp1922
S'NOUN'
p1923
F1.0
s(lp1924
(g209
I29
tp1925
atp1926
a(g1167
(dp1927
g399
F2.3e-05
sS'CONJ'
p1928
F0.999977
s(lp1929
(g216
I30
tp1930
atp1931
a(S'cualquier'
p1932
(dp1933
S'ADJ'
p1934
F1.0
s(lp1935
tp1936
a(S'matiz'
p1937
(dp1938
S'NOUN'
p1939
F1.0
s(lp1940
(g231
I32
tp1941
atp1942
a(S'diferente'
p1943
(dp1944
S'ADJ'
p1945
F1.0
s(lp1946
(g223
I31
tp1947
atp1948
a(S'de'
p1949
(dp1950
g399
F3.1e-05
sS'CONJ'
p1951
F0.001485
sS'ADP'
p1952
F0.998485
s(lp1953
(g240
I33
tp1954
atp1955
a(S'opini\xc3\xb3n'
p1956
(dp1957
S'NOUN'
p1958
F1.0
s(lp1959
(g247
I34
tp1960
atp1961
a(S'entre'
p1962
(dp1963
g399
F3e-06
sS'ADP'
p1964
F0.999997
s(lp1965
(g255
I35
tp1966
atp1967
a(S'los'
p1968
(dp1969
S'PRON'
p1970
F0.0
sS'DET'
p1971
F1.0
s(lp1972
(g264
I36
tp1973
atp1974
a(S'estados'
p1975
(dp1976
S'NOUN'
p1977
F1.0
s(lp1978
(g271
I38
tp1979
atp1980
a(S'miembros'
p1981
(dp1982
S'NOUN'
p1983
F1.0
s(lp1984
(g279
I37
tp1985
atp1986
a(g65
(dp1987
g65
F1.0
s(lp1988
(g65
I39
tp1989
atp1990
as.