(dp0
S'fr'
p1
(lp2
(S'par'
p3
(dp4
S'NOUN'
p5
F7.6e-05
sS'ADP'
p6
F0.999924
s(lp7
(S'in'
p8
I0
tp9
atp10
a(S'\xc3\xa9crit'
p11
(dp12
S'VERB'
p13
F0.035327000000000004
sS'NOUN'
p14
F0.964674
s(lp15
(S'writing'
p16
I1
tp17
atp18
a(S'.'
p19
(dp20
g19
F1.0
s(lp21
(g19
I2
tp22
atp23
a(S'-'
p24
(dp25
g19
F1.0
s(lp26
(g24
I3
tp27
atp28
a(S'('
p29
(dp30
g19
F1.0
s(lp31
tp32
a(S'en'
p33
(dp34
S'PRON'
p35
F0.551936
sS'ADP'
p36
F0.448064
s(lp37
tp38
a(S')'
p39
(dp40
g19
F1.0
s(lp41
(g16
I1
tp42
atp43
a(S'je'
p44
(dp45
S'PRON'
p46
F1.0
s(lp47
(S'i'
p48
I4
tp49
atp50
a(S'me'
p51
(dp52
S'PRON'
p53
F1.0
s(lp54
(S'welcome'
p55
I5
tp56
atp57
a(S'r\xc3\xa9jouis'
p58
(dp59
S'VERB'
p60
F1.0
s(lp61
tp62
a(S'de'
p63
(dp64
S'ADP'
p65
F1.0
s(lp66
tp67
a(S'constater'
p68
(dp69
S'VERB'
p70
F1.0
s(lp71
(g55
I5
tp72
atp73
a(S"l'"
p74
(dp75
S'ADJ'
p76
F0.050629
sS'VERB'
p77
F0.794975
sS'NOUN'
p78
F0.154398
s(lp79
(S"'s"
p80
I7
tp81
atp82
a(S'importance'
p83
(dp84
S'NOUN'
p85
F1.0
s(lp86
tp87
a(S'que'
p88
(dp89
S'ADV'
p90
F0.006234
sS'PRON'
p91
F0.196514
sS'CONJ'
p92
F0.797253
s(lp93
tp94
a(S'le'
p95
(dp96
S'PRON'
p97
F0.000792
sS'DET'
p98
F0.999208
s(lp99
tp100
a(S'parlement'
p101
(dp102
S'NOUN'
p103
F1.0
s(lp104
(S'parliament'
p105
I6
tp106
atp107
a(S'accorde'
p108
(dp109
S'VERB'
p110
F1.0
s(lp111
(S'commitment'
p112
I8
tp113
atp114
a(S'\xc3\xa0'
p115
(dp116
S'ADP'
p117
F1.0
s(lp118
(S'to'
p119
I9
tp120
atp121
a(S'cette'
p122
(dp123
S'PRON'
p124
F1.0
s(lp125
(S'this'
p126
I10
tp127
atp128
a(S'cause'
p129
(dp130
S'VERB'
p131
F0.021447
sS'NOUN'
p132
F0.978554
s(lp133
(S'cause'
p134
I11
tp135
atp136
a(g19
(dp137
g19
F1.0
s(lp138
(g19
I12
tp139
atp140
asS'en'
p141
(lp142
(g8
(dp143
S'ADV'
p144
F0.002573
sS'PRT'
p145
F0.0
sS'ADP'
p146
F0.997427
s(lp147
(g8
I0
tp148
atp149
a(g16
(dp150
S'VERB'
p151
F0.650532
sS'NOUN'
p152
F0.349468
s(lp153
(g16
I1
tp154
atp155
a(g19
(dp156
g19
F1.0
s(lp157
(g19
I2
tp158
atp159
a(g24
(dp160
g19
F1.0
s(lp161
(g24
I3
tp162
atp163
a(g48
(dp164
S'X'
p165
F0.009749
sS'NOUN'
p166
F0.990251
s(lp167
(g48
I4
tp168
atp169
a(g55
(dp170
S'NOUN'
p171
F0.160918
sS'VERB'
p172
F0.109664
sS'ADJ'
p173
F0.729417
s(lp174
(g55
I5
tp175
atp176
a(g105
(dp177
S'NOUN'
p178
F1.0
s(lp179
(g105
I6
tp180
atp181
a(g80
(dp182
S'PRT'
p183
F0.984346
sg19
F0.015654
s(lp184
(g80
I7
tp185
atp186
a(g112
(dp187
S'NOUN'
p188
F1.0
s(lp189
(g112
I8
tp190
atp191
a(g119
(dp192
S'ADV'
p193
F1e-06
sS'PRT'
p194
F0.999989
sS'ADP'
p195
F1.1e-05
s(lp196
(g119
I9
tp197
atp198
a(g126
(dp199
S'ADV'
p200
F1.5e-05
sS'NOUN'
p201
F1.7e-05
sS'DET'
p202
F0.999967
s(lp203
(g126
I10
tp204
atp205
a(g134
(dp206
S'VERB'
p207
F0.002981
sS'NOUN'
p208
F0.997019
s(lp209
(g134
I11
tp210
atp211
a(g19
(dp212
g19
F1.0
s(lp213
(g19
I12
tp214
atp215
asS'nl'
p216
(lp217
(S'schriftelijk'
p218
(dp219
S'ADJ'
p220
F1.0
s(lp221
(g16
I1
tp222
atp223
a(g19
(dp224
g19
F1.0
s(lp225
(g19
I2
tp226
atp227
a(g24
(dp228
g19
F1.0
s(lp229
(g24
I3
tp230
atp231
a(g29
(dp232
g19
F1.0
s(lp233
(g16
I1
tp234
atp235
a(S'en'
p236
(dp237
S'CONJ'
p238
F1.0
s(lp239
tp240
a(g39
(dp241
g19
F1.0
s(lp242
(g16
I1
tp243
atp244
a(S'ik'
p245
(dp246
S'PRON'
p247
F0.999917
sS'NOUN'
p248
F8.3e-05
s(lp249
(g48
I4
tp250
atp251
a(S'juich'
p252
(dp253
S'VERB'
p254
F1.0
s(lp255
tp256
a(S'de'
p257
(dp258
S'DET'
p259
F1.0
s(lp260
tp261
a(S'betrokkenheid'
p262
(dp263
S'NOUN'
p264
F1.0
s(lp265
(g112
I8
tp266
atp267
a(S'van'
p268
(dp269
S'ADP'
p270
F1.0
s(lp271
(g80
I7
tp272
atp273
a(S'het'
p274
(dp275
S'PRON'
p276
F0.000927
sS'DET'
p277
F0.999073
s(lp278
tp279
a(S'parlement'
p280
(dp281
S'NOUN'
p282
F1.0
s(lp283
(g105
I6
tp284
atp285
a(S'bij'
p286
(dp287
S'ADV'
p288
F0.001665
sS'NOUN'
p289
F0.0
sS'ADJ'
p290
F0.0
sS'ADP'
p291
F0.998335
s(lp292
(g119
I9
tp293
atp294
a(S'deze'
p295
(dp296
S'PRON'
p297
F1.0
s(lp298
(g126
I10
tp299
atp300
a(S'zaak'
p301
(dp302
S'NOUN'
p303
F1.0
s(lp304
(g134
I11
tp305
atp306
a(S'toe'
p307
(dp308
S'ADV'
p309
F1.0
sg165
F0.0
s(lp310
(g55
I5
tp311
atp312
a(g19
(dp313
g19
F1.0
s(lp314
(g19
I12
tp315
atp316
asS'de'
p317
(lp318
(S'schriftlich'
p319
(dp320
S'ADJ'
p321
F1.0
s(lp322
(g16
I1
tp323
atp324
a(g19
(dp325
g19
F1.0
s(lp326
(g19
I2
tp327
atp328
a(g24
(dp329
g19
F1.0
s(lp330
(g24
I3
tp331
atp332
a(S'ich'
p333
(dp334
S'PRON'
p335
F1.0
s(lp336
(g48
I4
tp337
atp338
a(S'begr\xc3\xbc\xc3\x9fe'
p339
(dp340
S'VERB'
p341
F1.0
s(lp342
(g55
I5
tp343
atp344
a(S'das'
p345
(dp346
S'PRON'
p347
F0.018158
sS'DET'
p348
F0.981841
s(lp349
tp350
a(S'engagement'
p351
(dp352
S'VERB'
p353
F0.000929
sS'NOUN'
p354
F0.998804
s(lp355
(g112
I8
tp356
atp357
a(S'des'
p358
(dp359
S'DET'
p360
F1.0
s(lp361
(g80
I7
tp362
atp363
a(S'parlaments'
p364
(dp365
S'ADJ'
p366
F0.019062
sS'NOUN'
p367
F0.962445
s(lp368
(g105
I6
tp369
atp370
a(S'in'
p371
(dp372
S'ADP'
p373
F1.0
s(lp374
(g119
I9
tp375
atp376
a(S'dieser'
p377
(dp378
S'PRON'
p379
F1.0
s(lp380
(g126
I10
tp381
atp382
a(S'sache'
p383
(dp384
S'ADJ'
p385
F0.042378
sS'NOUN'
p386
F0.954481
s(lp387
(g134
I11
tp388
atp389
a(g19
(dp390
g19
F1.0
s(lp391
(g19
I12
tp392
atp393
asS'it'
p394
(lp395
(S'accolgo'
p396
(dp397
S'VERB'
p398
F1.0
s(lp399
(g55
I5
tp400
atp401
a(S'con'
p402
(dp403
S'ADP'
p404
F1.0
s(lp405
tp406
a(S'piacere'
p407
(dp408
S'VERB'
p409
F0.966041
sS'NOUN'
p410
F0.033959
s(lp411
(g55
I5
tp412
atp413
a(S"l'"
p414
(dp415
S'NOUN'
p416
F0.0121
sS'VERB'
p417
F0.873614
sS'ADJ'
p418
F0.114285
s(lp419
(g112
I8
tp420
atp421
a(S'impegno'
p422
(dp423
S'VERB'
p424
F0.012689
sS'NOUN'
p425
F0.987311
s(lp426
tp427
a(S'del'
p428
(dp429
S'DEF'
p430
F0.001871
sS'ADP'
p431
F0.998129
s(lp432
(g80
I7
tp433
atp434
a(S'parlamento'
p435
(dp436
S'VERB'
p437
F0.000353
sS'NOUN'
p438
F0.999647
s(lp439
(g105
I6
tp440
atp441
a(S'a'
p442
(dp443
S'CONJ'
p444
F0.000215
sS'ADP'
p445
F0.999785
s(lp446
(g119
I9
tp447
atp448
a(S'favore'
p449
(dp450
S'NOUN'
p451
F1.0
s(lp452
(g112
I8
tp453
atp454
a(S'di'
p455
(dp456
S'CONJ'
p457
F2.3e-05
sS'ADP'
p458
F0.999977
s(lp459
tp460
a(S'questa'
p461
(dp462
S'PRON'
p463
F1.0
s(lp464
(g126
I10
tp465
atp466
a(S'causa'
p467
(dp468
S'VERB'
p469
F0.000848
sS'NOUN'
p470
F0.999152
s(lp471
(g134
I11
tp472
atp473
a(g19
(dp474
g19
F1.0
s(lp475
(g19
I12
tp476
atp477
asS'sk'
p478
(lp479
(S'p\xc3\xadsomne'
p480
(dp481
S'ADV'
p482
F1.0
s(lp483
(g16
I1
tp484
atp485
a(g19
(dp486
g19
F1.0
s(lp487
(g19
I2
tp488
atp489
a(g24
(dp490
g19
F1.0
s(lp491
(g24
I3
tp492
atp493
a(S'v\xc3\xadtam'
p494
(dp495
S'VERB'
p496
F1.0
s(lp497
(g55
I5
tp498
atp499
a(S'anga\xc5\xbeovanos\xc5\xa5'
p500
(dp501
S'NOUN'
p502
F1.0
s(lp503
(g112
I8
tp504
atp505
a(S'parlamentu'
p506
(dp507
S'NOUN'
p508
F1.0
s(lp509
(g105
I6
tp510
atp511
a(S'v'
p512
(dp513
g165
F9.900000000000001e-05
sS'ADP'
p514
F0.999901
s(lp515
(g119
I9
tp516
atp517
a(S'tejto'
p518
(dp519
S'PRON'
p520
F1.0
s(lp521
(g126
I10
tp522
atp523
a(S'veci'
p524
(dp525
S'NOUN'
p526
F1.0
s(lp527
(g134
I11
tp528
atp529
a(g19
(dp530
g19
F1.0
s(lp531
(g19
I12
tp532
atp533
asS'pl'
p534
(lp535
(S'na'
p536
(dp537
g165
F1e-06
sS'VERB'
p538
F0.0
sS'NOUN'
p539
F0.0
sS'ADP'
p540
F0.999997
sS'PRT'
p541
F1e-06
s(lp542
tp543
a(S'pi\xc5\x9bmie'
p544
(dp545
S'NOUN'
p546
F1.0
s(lp547
(g16
I1
tp548
atp549
a(g19
(dp550
g19
F1.0
s(lp551
(g19
I2
tp552
atp553
a(g24
(dp554
g165
F0.000314
sS'NUM'
p555
F0.0
sS'NOUN'
p556
F0.000399
sg19
F0.999287
s(lp557
(g24
I3
tp558
atp559
a(S'z'
p560
(dp561
g165
F4e-06
sS'VERB'
p562
F0.0
sS'NOUN'
p563
F0.0
sS'ADP'
p564
F0.999994
sS'PRT'
p565
F1e-06
s(lp566
(g55
I5
tp567
atp568
a(S'zadowoleniem'
p569
(dp570
S'NOUN'
p571
F1.0
s(lp572
tp573
a(S'przyjmuj\xc4\x99'
p574
(dp575
S'VERB'
p576
F1.0
s(lp577
(g55
I5
tp578
atp579
a(S'zaanga\xc5\xbcowanie'
p580
(dp581
S'VERB'
p582
F0.062373
sS'NOUN'
p583
F0.937627
s(lp584
(g112
I8
tp585
atp586
a(S'parlamentu'
p587
(dp588
S'NOUN'
p589
F1.0
s(lp590
(g105
I6
tp591
atp592
a(S'w'
p593
(dp594
S'ADJ'
p595
F0.0
sg165
F1.1e-05
sS'NOUN'
p596
F6e-06
sS'ADP'
p597
F0.999984
s(lp598
(g119
I9
tp599
atp600
a(S't\xc4\x99'
p601
(dp602
S'ADJ'
p603
F1.0
s(lp604
(g126
I10
tp605
atp606
a(S'spraw\xc4\x99'
p607
(dp608
S'NOUN'
p609
F1.0
s(lp610
(g134
I11
tp611
atp612
a(g19
(dp613
g19
F1.0
s(lp614
(g19
I12
tp615
atp616
asS'sl'
p617
(lp618
(g512
(dp619
S'ADP'
p620
F1.0
s(lp621
(g8
I0
tp622
atp623
a(S'pisni'
p624
(dp625
S'ADJ'
p626
F1.0
s(lp627
tp628
a(S'obliki'
p629
(dp630
S'NOUN'
p631
F1.0
s(lp632
(g16
I1
tp633
atp634
a(g19
(dp635
g19
F1.0
s(lp636
(g19
I2
tp637
atp638
a(g24
(dp639
g19
F1.0
s(lp640
(g24
I3
tp641
atp642
a(S'pozdravljam'
p643
(dp644
S'VERB'
p645
F1.0
s(lp646
(g55
I5
tp647
atp648
a(S'zavezo'
p649
(dp650
S'VERB'
p651
F0.000145
sS'NOUN'
p652
F0.9998560000000003
s(lp653
(g112
I8
tp654
atp655
a(S'pralamenta'
p656
(dp657
S'ADV'
p658
F0.000782
sS'ADJ'
p659
F0.017969
sS'VERB'
p660
F0.026228000000000005
sS'NOUN'
p661
F0.9549830000000001
sS'NUM'
p662
F3.6e-05
s(lp663
(g105
I6
tp664
atp665
a(S'za'
p666
(dp667
S'ADV'
p668
F1.7e-05
sg165
F1e-06
sS'ADP'
p669
F0.999982
s(lp670
(g119
I9
tp671
atp672
a(S'ta'
p673
(dp674
S'PRON'
p675
F0.999999
s(lp676
(g126
I10
tp677
atp678
a(S'cilj'
p679
(dp680
S'NOUN'
p681
F1.0
s(lp682
(g134
I11
tp683
atp684
a(g19
(dp685
g19
F1.0
s(lp686
(g19
I12
tp687
atp688
asS'es'
p689
(lp690
(S'por'
p691
(dp692
S'ADP'
p693
F1.0
s(lp694
tp695
a(S'escrito'
p696
(dp697
S'VERB'
p698
F0.31338
sS'ADJ'
p699
F0.68662
s(lp700
(g16
I1
tp701
atp702
a(g19
(dp703
g19
F1.0
s(lp704
(g19
I2
tp705
atp706
a(g24
(dp707
g19
F1.0
s(lp708
(g24
I3
tp709
atp710
a(S'acojo'
p711
(dp712
S'VERB'
p713
F1.0
s(lp714
(g55
I5
tp715
atp716
a(S'con'
p717
(dp718
S'ADP'
p719
F1.0
s(lp720
tp721
a(S'agrado'
p722
(dp723
S'VERB'
p724
F0.100716
sS'NOUN'
p725
F0.899284
s(lp726
(g55
I5
tp727
atp728
a(S'el'
p729
(dp730
S'PRON'
p731
F1.1e-05
sS'DET'
p732
F0.999989
s(lp733
tp734
a(S'compromiso'
p735
(dp736
S'NOUN'
p737
F1.0
s(lp738
(g112
I8
tp739
atp740
a(S'del'
p741
(dp742
S'ADP'
p743
F1.0
s(lp744
(g80
I7
tp745
atp746
a(S'parlamento'
p747
(dp748
S'VERB'
p749
F1e-06
sS'NOUN'
p750
F0.999999
s(lp751
(g105
I6
tp752
atp753
a(S'en'
p754
(dp755
g165
F0.0
sS'CONJ'
p756
F1e-06
sS'ADP'
p757
F0.999999
s(lp758
(g119
I9
tp759
atp760
a(S'esta'
p761
(dp762
S'PRON'
p763
F1.0
sS'VERB'
p764
F0.0
s(lp765
(g126
I10
tp766
atp767
a(S'causa'
p768
(dp769
S'VERB'
p770
F0.004848
sS'NOUN'
p771
F0.995152
s(lp772
(g134
I11
tp773
atp774
a(g19
(dp775
g19
F1.0
s(lp776
(g19
I12
tp777
atp778
as.