(dp0
S'fr'
p1
(lp2
(S'il'
p3
(dp4
S'PRON'
p5
F1.0
s(lp6
(S'it'
p7
I0
tp8
atp9
a(S'doit'
p10
(dp11
S'VERB'
p12
F0.999998
sS'NOUN'
p13
F2e-06
s(lp14
(S'should'
p15
I1
tp16
atp17
a(S'\xc3\xaatre'
p18
(dp19
S'VERB'
p20
F0.950483
sS'NOUN'
p21
F0.049517
s(lp22
(S'be'
p23
I2
tp24
atp25
a(S'facile'
p26
(dp27
S'ADJ'
p28
F1.0
s(lp29
(S'easy'
p30
I3
tp31
atp32
a(S'de'
p33
(dp34
S'ADP'
p35
F1.0
s(lp36
(S'to'
p37
I4
tp38
atp39
a(S'v\xc3\xa9rifier'
p40
(dp41
S'VERB'
p42
F1.0
s(lp43
(S'scrutinise'
p44
I5
tp45
atp46
a(S'comment'
p47
(dp48
S'ADV'
p49
F0.999609
sS'NOUN'
p50
F0.000391
s(lp51
(S'how'
p52
I6
tp53
atp54
a(S'les'
p55
(dp56
S'PRON'
p57
F0.000111
sS'DET'
p58
F0.999846
sS'ADP'
p59
F4.2e-05
s(lp60
tp61
a(S'd\xc3\xa9cisions'
p62
(dp63
S'NOUN'
p64
F1.0
s(lp65
(S'decisions'
p66
I7
tp67
atp68
a(S'sont'
p69
(dp70
S'VERB'
p71
F1.0
s(lp72
(S'are'
p73
I8
tp74
atp75
a(S'prises'
p76
(dp77
S'NOUN'
p78
F0.002044
sS'VERB'
p79
F0.986498
sS'ADJ'
p80
F0.011458
s(lp81
(S'made'
p82
I9
tp83
atp84
a(S','
p85
(dp86
S'.'
p87
F1.0
s(lp88
(g85
I10
tp89
atp90
a(S'quelles'
p91
(dp92
S'PRON'
p93
F1.0
s(lp94
(S'what'
p95
I11
tp96
atp97
a(S'influences'
p98
(dp99
S'VERB'
p100
F0.085263
sS'NOUN'
p101
F0.914737
s(lp102
(S'influences'
p103
I14
tp104
atp105
a(S'ont'
p106
(dp107
S'VERB'
p108
F1.0
s(lp109
(S'them'
p110
I16
tp111
atp112
a(S'pu'
p113
(dp114
S'VERB'
p115
F1.0
s(lp116
tp117
a(S'jouer'
p118
(dp119
S'VERB'
p120
F1.0
s(lp121
(g103
I14
tp122
atp123
a(S'et'
p124
(dp125
S'CONJ'
p126
F1.0
s(lp127
(S'and'
p128
I17
tp129
atp130
a(g85
(dp131
g87
F1.0
s(lp132
tp133
a(S'en'
p134
(dp135
S'PRON'
p136
F0.006003
sS'ADP'
p137
F0.993997
s(lp138
tp139
a(S'fin'
p140
(dp141
S'ADJ'
p142
F0.075568
sS'NOUN'
p143
F0.924432
s(lp144
tp145
a(S'de'
p146
(dp147
S'ADP'
p148
F1.0
s(lp149
(S'behind'
p150
I15
tp151
atp152
a(S'compte'
p153
(dp154
S'VERB'
p155
F0.001497
sS'NOUN'
p156
F0.998503
s(lp157
(S'finally'
p158
I18
tp159
atp160
a(g85
(dp161
g87
F1.0
s(lp162
(g85
I19
tp163
atp164
a(S'comment'
p165
(dp166
S'ADV'
p167
F0.999201
sS'NOUN'
p168
F0.000799
s(lp169
(S'how'
p170
I20
tp171
atp172
a(S'les'
p173
(dp174
S'PRON'
p175
F0.000309
sS'DET'
p176
F0.999649
sS'ADP'
p177
F4.3e-05
s(lp178
tp179
a(S'ressources'
p180
(dp181
S'VERB'
p182
F0.000206
sS'NOUN'
p183
F0.999794
s(lp184
(S'resources'
p185
I21
tp186
atp187
a(g85
(dp188
g87
F1.0
s(lp189
(g85
I22
tp190
atp191
a(S"c'"
p192
(dp193
S'ADJ'
p194
F0.13429
sS'VERB'
p195
F0.638201
sS'NOUN'
p196
F0.227509
s(lp197
tp198
a(S'est-\xc3\xa0-dire'
p199
(dp200
S'ADV'
p201
F1.0
s(lp202
(S'i.e.'
p203
I23
tp204
atp205
a(S"l'"
p206
(dp207
S'NOUN'
p208
F0.037162
sS'VERB'
p209
F0.7565829999999999
sS'ADJ'
p210
F0.206256
s(lp211
tp212
a(S'argent'
p213
(dp214
S'NOUN'
p215
F1.0
s(lp216
(S'money'
p217
I26
tp218
atp219
a(S'des'
p220
(dp221
S'DET'
p222
F2.1e-05
sS'ADP'
p223
F0.999979
s(lp224
(S"'s"
p225
I25
tp226
atp227
a(S'contribuables'
p228
(dp229
S'NOUN'
p230
F1.0
s(lp231
(S'taxpayer'
p232
I24
tp233
atp234
a(g85
(dp235
g87
F1.0
s(lp236
(g85
I27
tp237
atp238
a(S'sont'
p239
(dp240
S'VERB'
p241
F1.0
s(lp242
(S'are'
p243
I28
tp244
atp245
a(S'allou\xc3\xa9es'
p246
(dp247
S'VERB'
p248
F0.909722
sS'ADJ'
p249
F0.090278
s(lp250
(S'allocated'
p251
I29
tp252
atp253
a(g87
(dp254
g87
F1.0
s(lp255
(g87
I30
tp256
atp257
asS'en'
p258
(lp259
(g7
(dp260
S'PRON'
p261
F1.0
s(lp262
(g7
I0
tp263
atp264
a(g15
(dp265
S'VERB'
p266
F1.0
s(lp267
(g15
I1
tp268
atp269
a(g23
(dp270
S'VERB'
p271
F1.0
s(lp272
(g23
I2
tp273
atp274
a(g30
(dp275
S'ADV'
p276
F0.119024
sS'ADJ'
p277
F0.880976
s(lp278
(g30
I3
tp279
atp280
a(g37
(dp281
S'ADV'
p282
F0.0
sS'PRT'
p283
F1.0
sS'ADP'
p284
F0.0
s(lp285
(g37
I4
tp286
atp287
a(g44
(dp288
S'VERB'
p289
F1.0
s(lp290
(g44
I5
tp291
atp292
a(g52
(dp293
S'ADV'
p294
F0.99981
sS'NOUN'
p295
F2.5e-05
sS'ADJ'
p296
F0.000165
s(lp297
(g52
I6
tp298
atp299
a(g66
(dp300
S'NOUN'
p301
F1.0
s(lp302
(g66
I7
tp303
atp304
a(g73
(dp305
S'VERB'
p306
F1.0
sS'NOUN'
p307
F0.0
s(lp308
(g73
I8
tp309
atp310
a(g82
(dp311
S'VERB'
p312
F0.999834
sS'ADJ'
p313
F0.000166
s(lp314
(g82
I9
tp315
atp316
a(g85
(dp317
g87
F1.0
s(lp318
(g85
I10
tp319
atp320
a(g95
(dp321
S'PRON'
p322
F0.920747
sS'DET'
p323
F0.079253
s(lp324
(g95
I11
tp325
atp326
a(S'are'
p327
(dp328
S'VERB'
p329
F0.999998
sS'NOUN'
p330
F2e-06
s(lp331
(g327
I12
tp332
atp333
a(S'the'
p334
(dp335
S'NOUN'
p336
F1.3e-05
sS'DET'
p337
F0.999987
s(lp338
(g334
I13
tp339
atp340
a(g103
(dp341
S'VERB'
p342
F0.032979
sS'NOUN'
p343
F0.967021
s(lp344
(g103
I14
tp345
atp346
a(g150
(dp347
S'ADV'
p348
F0.032263
sS'NOUN'
p349
F3.6e-05
sS'ADP'
p350
F0.967701
s(lp351
(g150
I15
tp352
atp353
a(g110
(dp354
S'PRON'
p355
F1.0
s(lp356
(g110
I16
tp357
atp358
a(g128
(dp359
S'CONJ'
p360
F1.0
sS'NOUN'
p361
F0.0
s(lp362
(g128
I17
tp363
atp364
a(g158
(dp365
S'ADV'
p366
F1.0
s(lp367
(g158
I18
tp368
atp369
a(g85
(dp370
g87
F1.0
s(lp371
(g85
I19
tp372
atp373
a(g170
(dp374
S'ADV'
p375
F0.99973
sS'NOUN'
p376
F2.4e-05
sS'ADJ'
p377
F0.000246
s(lp378
(g170
I20
tp379
atp380
a(g185
(dp381
S'NOUN'
p382
F1.0
s(lp383
(g185
I21
tp384
atp385
a(g85
(dp386
g87
F1.0
s(lp387
(g85
I22
tp388
atp389
a(g203
(dp390
S'X'
p391
F1.0
s(lp392
(g203
I23
tp393
atp394
a(g232
(dp395
S'NOUN'
p396
F1.0
s(lp397
(g232
I24
tp398
atp399
a(g225
(dp400
S'PRT'
p401
F0.984346
sg87
F0.015654
s(lp402
(g225
I25
tp403
atp404
a(g217
(dp405
S'NOUN'
p406
F1.0
s(lp407
(g217
I26
tp408
atp409
a(g85
(dp410
g87
F1.0
s(lp411
(g85
I27
tp412
atp413
a(g243
(dp414
S'VERB'
p415
F0.999996
sS'NOUN'
p416
F4e-06
s(lp417
(g243
I28
tp418
atp419
a(g251
(dp420
S'VERB'
p421
F1.0
s(lp422
(g251
I29
tp423
atp424
a(g87
(dp425
g87
F1.0
s(lp426
(g87
I30
tp427
atp428
asS'nl'
p429
(lp430
(S'gemakkelijk'
p431
(dp432
S'ADJ'
p433
F1.0
s(lp434
(g30
I3
tp435
atp436
a(S'moet'
p437
(dp438
S'VERB'
p439
F1.0
s(lp440
(g15
I1
tp441
atp442
a(S'kunnen'
p443
(dp444
S'VERB'
p445
F0.999961
sS'NOUN'
p446
F3.9e-05
s(lp447
(g37
I4
tp448
atp449
a(S'worden'
p450
(dp451
S'VERB'
p452
F1.0
sS'NOUN'
p453
F0.0
s(lp454
(g23
I2
tp455
atp456
a(S'nagegaan'
p457
(dp458
S'VERB'
p459
F1.0
s(lp460
(g44
I5
tp461
atp462
a(S'hoe'
p463
(dp464
S'ADV'
p465
F0.998804
sS'CONJ'
p466
F0.001196
s(lp467
(g52
I6
tp468
atp469
a(S'besluitvorming'
p470
(dp471
S'NOUN'
p472
F1.0
s(lp473
(g66
I7
tp474
atp475
a(S'tot'
p476
(dp477
S'CONJ'
p478
F8e-06
sS'ADP'
p479
F0.999992
s(lp480
(g158
I18
tp481
atp482
a(S'stand'
p483
(dp484
S'NOUN'
p485
F1.0
s(lp486
tp487
a(S'komt'
p488
(dp489
S'VERB'
p490
F1.0
s(lp491
(g44
I5
tp492
atp493
a(g85
(dp494
g87
F1.0
s(lp495
(g85
I10
tp496
atp497
a(S'welke'
p498
(dp499
S'PRON'
p500
F0.9999990000000002
s(lp501
(g95
I11
tp502
atp503
a(S'invloed'
p504
(dp505
S'NOUN'
p506
F1.0
s(lp507
(g103
I14
tp508
atp509
a(S'hierop'
p510
(dp511
S'ADV'
p512
F1.0
s(lp513
(g103
I14
tp514
atp515
a(S'is'
p516
(dp517
S'VERB'
p518
F1.0
s(lp519
(g85
I19
tp520
atp521
a(S'uitgeoefend'
p522
(dp523
S'VERB'
p524
F1.0
s(lp525
tp526
a(S'en'
p527
(dp528
S'CONJ'
p529
F1.0
s(lp530
(g128
I17
tp531
atp532
a(S'op'
p533
(dp534
S'ADV'
p535
F0.004761
sS'ADJ'
p536
F0.0
sS'ADP'
p537
F0.995239
s(lp538
(g103
I14
tp539
atp540
a(S'welke'
p541
(dp542
S'PRON'
p543
F0.9999989999999999
s(lp544
tp545
a(S'wijze'
p546
(dp547
S'ADJ'
p548
F0.002314
sS'NOUN'
p549
F0.997686
s(lp550
(g170
I20
tp551
atp552
a(S'de'
p553
(dp554
S'DET'
p555
F1.0
s(lp556
tp557
a(S'financi\xc3\xable'
p558
(dp559
S'NOUN'
p560
F0.000209
sS'ADJ'
p561
F0.999791
s(lp562
tp563
a(S'middelen'
p564
(dp565
S'NOUN'
p566
F1.0
s(lp567
(g185
I21
tp568
atp569
a(g85
(dp570
g87
F1.0
s(lp571
(g85
I22
tp572
atp573
a(S'i.e.'
p574
(dp575
S'ADV'
p576
F1.0
s(lp577
(g203
I23
tp578
atp579
a(S'het'
p580
(dp581
S'PRON'
p582
F0.00445
sS'DET'
p583
F0.995549
s(lp584
tp585
a(S'geld'
p586
(dp587
S'VERB'
p588
F2.1e-05
sS'NOUN'
p589
F0.999979
s(lp590
(g217
I26
tp591
atp592
a(S'van'
p593
(dp594
S'ADP'
p595
F1.0
s(lp596
(g225
I25
tp597
atp598
a(S'de'
p599
(dp600
S'DET'
p601
F1.0
s(lp602
tp603
a(S'belastingbetaler'
p604
(dp605
S'NOUN'
p606
F1.0
s(lp607
(g232
I24
tp608
atp609
a(g85
(dp610
g87
F1.0
s(lp611
(g85
I27
tp612
atp613
a(S'wordt'
p614
(dp615
S'VERB'
p616
F1.0
s(lp617
(g243
I28
tp618
atp619
a(S'besteed'
p620
(dp621
S'VERB'
p622
F1.0
s(lp623
(g251
I29
tp624
atp625
a(g87
(dp626
g87
F1.0
s(lp627
(g87
I30
tp628
atp629
asS'de'
p630
(lp631
(S'es'
p632
(dp633
S'PRON'
p634
F1.0
s(lp635
(g7
I0
tp636
atp637
a(S'sollte'
p638
(dp639
S'VERB'
p640
F1.0
s(lp641
(g15
I1
tp642
atp643
a(S'einfach'
p644
(dp645
S'ADV'
p646
F0.135685
sS'ADJ'
p647
F0.864315
s(lp648
(g30
I3
tp649
atp650
a(S'nachvollziehbar'
p651
(dp652
S'ADJ'
p653
F1.0
s(lp654
(g44
I5
tp655
atp656
a(S'sein'
p657
(dp658
S'VERB'
p659
F0.999936
s(lp660
(g23
I2
tp661
atp662
a(g85
(dp663
g87
F1.0
s(lp664
tp665
a(S'wie'
p666
(dp667
S'CONJ'
p668
F0.9990539999999999
s(lp669
(g52
I6
tp670
atp671
a(S'beschl\xc3\xbcsse'
p672
(dp673
S'ADJ'
p674
F0.00409
sS'NOUN'
p675
F0.994477
s(lp676
tp677
a(S'gefasst'
p678
(dp679
S'VERB'
p680
F1.0
s(lp681
(g66
I7
tp682
atp683
a(S'werden'
p684
(dp685
S'VERB'
p686
F0.999996
s(lp687
(g73
I8
tp688
atp689
a(g85
(dp690
g87
F1.0
s(lp691
(g85
I10
tp692
atp693
a(S'welche'
p694
(dp695
S'PRON'
p696
F0.918766
s(lp697
(g95
I11
tp698
atp699
a(S'interessentr\xc3\xa4ger'
p700
(dp701
S'VERB'
p702
F0.053114
sS'NOUN'
p703
F0.91168
s(lp704
(g103
I14
tp705
atp706
a(S'diese'
p707
(dp708
S'PRON'
p709
F1.0
s(lp710
(g110
I16
tp711
atp712
a(S'beeinflussen'
p713
(dp714
S'VERB'
p715
F1.0
s(lp716
tp717
a(S'und'
p718
(dp719
S'CONJ'
p720
F1.0
s(lp721
(g128
I17
tp722
atp723
a(S'wie'
p724
(dp725
S'CONJ'
p726
F0.999366
s(lp727
(g170
I20
tp728
atp729
a(S'die'
p730
(dp731
S'PRON'
p732
F0.003463
sS'DET'
p733
F0.996436
s(lp734
tp735
a(S'vorhandenen'
p736
(dp737
S'ADJ'
p738
F1.0
s(lp739
(g103
I14
tp740
atp741
a(S'mittel'
p742
(dp743
S'VERB'
p744
F1.0
s(lp745
(g185
I21
tp746
atp747
a(g85
(dp748
g87
F1.0
s(lp749
(g85
I22
tp750
atp751
a(S'd.'
p752
(dp753
S'PRON'
p754
F0.992599
sS'DET'
p755
F0.007401
s(lp756
(g203
I23
tp757
atp758
a(S'h.'
p759
(dp760
S'VERB'
p761
F1.0
s(lp762
tp763
a(S'das'
p764
(dp765
S'PRON'
p766
F0.018161
sS'DET'
p767
F0.981838
s(lp768
(g203
I23
tp769
atp770
a(S'geld'
p771
(dp772
S'VERB'
p773
F0.000932
sS'NOUN'
p774
F0.998799
s(lp775
(g217
I26
tp776
atp777
a(S'der'
p778
(dp779
S'PRON'
p780
F0.000388
sS'DET'
p781
F0.999492
s(lp782
(g225
I25
tp783
atp784
a(S'steuerzahler'
p785
(dp786
S'ADJ'
p787
F0.923771
s(lp788
(g232
I24
tp789
atp790
a(g85
(dp791
g87
F1.0
s(lp792
(g85
I27
tp793
atp794
a(S'eingesetzt'
p795
(dp796
S'VERB'
p797
F0.996956
sS'ADJ'
p798
F0.003044
s(lp799
(g251
I29
tp800
atp801
a(S'werden'
p802
(dp803
S'VERB'
p804
F0.999996
s(lp805
(g243
I28
tp806
atp807
a(g87
(dp808
g87
F1.0
s(lp809
(g87
I30
tp810
atp811
asS'it'
p812
(lp813
(S'dovrebbe'
p814
(dp815
S'VERB'
p816
F1.0
s(lp817
(g15
I1
tp818
atp819
a(S'essere'
p820
(dp821
S'VERB'
p822
F0.999872
sS'NOUN'
p823
F0.000128
s(lp824
(g23
I2
tp825
atp826
a(S'facile'
p827
(dp828
S'ADJ'
p829
F1.0
s(lp830
(g30
I3
tp831
atp832
a(S'controllare'
p833
(dp834
S'VERB'
p835
F1.0
s(lp836
(g44
I5
tp837
atp838
a(S'come'
p839
(dp840
S'PRON'
p841
F0.038731
sS'CONJ'
p842
F0.916734
sS'NOUN'
p843
F0.000915
sS'ADP'
p844
F0.043621
s(lp845
(g52
I6
tp846
atp847
a(S'sono'
p848
(dp849
S'VERB'
p850
F0.991224
sS'NOUN'
p851
F0.008776
s(lp852
(g73
I8
tp853
atp854
a(S'prese'
p855
(dp856
S'NOUN'
p857
F0.022235
sS'VERB'
p858
F0.8073760000000001
sS'ADJ'
p859
F0.170389
s(lp860
(g82
I9
tp861
atp862
a(S'le'
p863
(dp864
S'PRON'
p865
F9e-06
sS'DET'
p866
F0.999991
s(lp867
tp868
a(S'decisioni'
p869
(dp870
S'NOUN'
p871
F1.0
s(lp872
(g66
I7
tp873
atp874
a(g85
(dp875
g87
F1.0
s(lp876
(g85
I10
tp877
atp878
a(S'quali'
p879
(dp880
S'PRON'
p881
F0.9336450000000001
sS'ADJ'
p882
F0.066355
s(lp883
(g95
I11
tp884
atp885
a(S'influenze'
p886
(dp887
S'NOUN'
p888
F1.0
s(lp889
(g103
I14
tp890
atp891
a(S'vi'
p892
(dp893
S'ADV'
p894
F0.060967
sS'PRON'
p895
F0.939033
s(lp896
tp897
a(S'sono'
p898
(dp899
S'VERB'
p900
F0.999961
sS'NOUN'
p901
F3.9e-05
s(lp902
(g327
I12
tp903
atp904
a(S'dietro'
p905
(dp906
S'ADV'
p907
F0.973427
sS'ADP'
p908
F0.026573
s(lp909
(g150
I15
tp910
atp911
a(S'di'
p912
(dp913
S'CONJ'
p914
F9.2e-05
sS'ADP'
p915
F0.999908
s(lp916
tp917
a(S'esse'
p918
(dp919
S'PRON'
p920
F1.0
s(lp921
(g110
I16
tp922
atp923
a(S'e'
p924
(dp925
S'CONJ'
p926
F1.0
s(lp927
(g128
I17
tp928
atp929
a(g85
(dp930
g87
F1.0
s(lp931
(g85
I27
tp932
atp933
a(S'infine'
p934
(dp935
S'ADV'
p936
F1.0
s(lp937
(g158
I18
tp938
atp939
a(g85
(dp940
g87
F1.0
s(lp941
(g85
I19
tp942
atp943
a(S'come'
p944
(dp945
S'PRON'
p946
F0.044065
sS'CONJ'
p947
F0.951148
sS'NOUN'
p948
F0.000227
sS'ADP'
p949
F0.004559
s(lp950
(g170
I20
tp951
atp952
a(S'sono'
p953
(dp954
S'VERB'
p955
F0.999706
sS'NOUN'
p956
F0.000294
s(lp957
(g243
I28
tp958
atp959
a(S'stanziate'
p960
(dp961
S'VERB'
p962
F1.0
s(lp963
(g251
I29
tp964
atp965
a(S'le'
p966
(dp967
S'PRON'
p968
F2e-06
sS'DET'
p969
F0.999998
s(lp970
tp971
a(S'risorse'
p972
(dp973
S'VERB'
p974
F2e-06
sS'NOUN'
p975
F0.999998
s(lp976
(g185
I21
tp977
atp978
a(g85
(dp979
g87
F1.0
s(lp980
(g85
I22
tp981
atp982
a(S'ovverosia'
p983
(dp984
S'ADV'
p985
F0.466736
sS'CONJ'
p986
F0.533264
s(lp987
(g203
I23
tp988
atp989
a(S'il'
p990
(dp991
S'DET'
p992
F1.0
s(lp993
tp994
a(S'denaro'
p995
(dp996
S'NOUN'
p997
F1.0
s(lp998
(g217
I26
tp999
atp1000
a(S'dei'
p1001
(dp1002
S'NOUN'
p1003
F1e-06
sS'DEF'
p1004
F0.001164
sS'ADP'
p1005
F0.998834
s(lp1006
(g225
I25
tp1007
atp1008
a(S'contribuenti'
p1009
(dp1010
S'VERB'
p1011
F3e-05
sS'NOUN'
p1012
F0.99997
s(lp1013
(g232
I24
tp1014
atp1015
a(g87
(dp1016
g87
F1.0
s(lp1017
(g87
I30
tp1018
atp1019
asS'sk'
p1020
(lp1021
(S'malo'
p1022
(dp1023
S'ADV'
p1024
F0.022428
sS'VERB'
p1025
F0.977572
s(lp1026
tp1027
a(S'by'
p1028
(dp1029
S'PRT'
p1030
F0.999975
sg391
F2.4999999999999998e-05
s(lp1031
(g15
I1
tp1032
atp1033
a(S'sa'
p1034
(dp1035
S'PRT'
p1036
F0.999989
sS'ADP'
p1037
F0.0
sg391
F1.1e-05
s(lp1038
(g23
I2
tp1039
atp1040
a(S'da\xc5\xa5'
p1041
(dp1042
S'VERB'
p1043
F1.0
s(lp1044
(g30
I3
tp1045
atp1046
a(S'jednoducho'
p1047
(dp1048
S'ADV'
p1049
F0.270699
sg391
F0.729301
s(lp1050
tp1051
a(S'skontrolova\xc5\xa5'
p1052
(dp1053
S'VERB'
p1054
F1.0
s(lp1055
(g44
I5
tp1056
atp1057
a(g85
(dp1058
g87
F1.0
s(lp1059
tp1060
a(S'ako'
p1061
(dp1062
S'PRON'
p1063
F0.056567
sS'CONJ'
p1064
F0.943406
sg391
F2.8e-05
s(lp1065
(g52
I6
tp1066
atp1067
a(S'sa'
p1068
(dp1069
S'PRT'
p1070
F0.999702
sS'ADP'
p1071
F0.000174
sg391
F0.000124
s(lp1072
(g73
I8
tp1073
atp1074
a(S'rozhodnutia'
p1075
(dp1076
S'NOUN'
p1077
F1.0
s(lp1078
(g66
I7
tp1079
atp1080
a(S'prij\xc3\xadmaj\xc3\xba'
p1081
(dp1082
S'VERB'
p1083
F1.0
s(lp1084
(g82
I9
tp1085
atp1086
a(g85
(dp1087
g87
F1.0
s(lp1088
(g85
I10
tp1089
atp1090
a(S'\xc4\x8do'
p1091
(dp1092
S'PRON'
p1093
F0.303554
sS'CONJ'
p1094
F0.642675
sg391
F0.053770000000000005
s(lp1095
tp1096
a(S'ich'
p1097
(dp1098
S'PRON'
p1099
F1.0
s(lp1100
(g110
I16
tp1101
atp1102
a(S'ovplyv\xc5\x88uje'
p1103
(dp1104
S'VERB'
p1105
F1.0
s(lp1106
(g103
I14
tp1107
atp1108
a(S'a'
p1109
(dp1110
g391
F0.015455
sS'CONJ'
p1111
F0.984143
sS'NOUN'
p1112
F0.000127
sS'ADP'
p1113
F5.1e-05
sS'PRT'
p1114
F0.000224
s(lp1115
(g128
I17
tp1116
atp1117
a(S'napokon'
p1118
(dp1119
S'ADV'
p1120
F0.635869
sg391
F0.364131
s(lp1121
(g158
I18
tp1122
atp1123
a(S'aj'
p1124
(dp1125
g391
F0.75173
sS'CONJ'
p1126
F0.24827
s(lp1127
(g334
I13
tp1128
atp1129
a(S'to'
p1130
(dp1131
S'PRON'
p1132
F0.9765170000000001
sS'CONJ'
p1133
F0.000429
sg391
F0.023055000000000003
s(lp1134
(g95
I11
tp1135
atp1136
a(g85
(dp1137
g87
F1.0
s(lp1138
(g85
I19
tp1139
atp1140
a(S'ako'
p1141
(dp1142
S'PRON'
p1143
F0.05657
sS'CONJ'
p1144
F0.943403
sg391
F2.8e-05
s(lp1145
(g170
I20
tp1146
atp1147
a(S'sa'
p1148
(dp1149
S'PRT'
p1150
F0.999972
sS'ADP'
p1151
F0.0
sg391
F2.9e-05
s(lp1152
(g243
I28
tp1153
atp1154
a(S'rozde\xc4\xbeuj\xc3\xba'
p1155
(dp1156
S'VERB'
p1157
F1.0
s(lp1158
(g251
I29
tp1159
atp1160
a(S'zdroje'
p1161
(dp1162
S'NOUN'
p1163
F1.0
s(lp1164
(g185
I21
tp1165
atp1166
a(g85
(dp1167
g87
F1.0
s(lp1168
(g85
I22
tp1169
atp1170
a(S't.'
p1171
(dp1172
S'ADJ'
p1173
F0.003844
sg391
F0.576476
sS'VERB'
p1174
F0.132016
sS'NOUN'
p1175
F0.287668
s(lp1176
tp1177
a(S'j.'
p1178
(dp1179
S'ADV'
p1180
F0.000211
sg391
F0.628125
sS'NOUN'
p1181
F0.371664
s(lp1182
(g203
I23
tp1183
atp1184
a(S'peniaze'
p1185
(dp1186
S'NOUN'
p1187
F1.0
s(lp1188
(g217
I26
tp1189
atp1190
a(S'da\xc5\x88ov\xc3\xbdch'
p1191
(dp1192
S'ADJ'
p1193
F1.0
s(lp1194
tp1195
a(S'poplatn\xc3\xadkov'
p1196
(dp1197
S'NOUN'
p1198
F1.0
s(lp1199
(g232
I24
tp1200
atp1201
a(g87
(dp1202
g87
F1.0
s(lp1203
(g87
I30
tp1204
atp1205
asS'pl'
p1206
(lp1207
(S'przypatrywanie'
p1208
(dp1209
S'ADV'
p1210
F0.080342
sS'ADJ'
p1211
F0.004508
sS'VERB'
p1212
F0.5169699999999999
sS'NOUN'
p1213
F0.39818000000000003
s(lp1214
(g44
I5
tp1215
atp1216
a(S'si\xc4\x99'
p1217
(dp1218
S'PRT'
p1219
F1.0
s(lp1220
tp1221
a(S'procesowi'
p1222
(dp1223
S'NOUN'
p1224
F1.0
s(lp1225
(g44
I5
tp1226
atp1227
a(S'decyzyjnemu'
p1228
(dp1229
S'ADV'
p1230
F0.000315
sS'NOUN'
p1231
F0.12968300000000002
sS'VERB'
p1232
F0.08456299999999996
sS'ADJ'
p1233
F0.7854350000000003
s(lp1234
tp1235
a(g85
(dp1236
g391
F1e-06
sg87
F0.999999
s(lp1237
(g85
I10
tp1238
atp1239
a(S'kryj\xc4\x85cym'
p1240
(dp1241
S'ADV'
p1242
F0.008028
sS'NOUN'
p1243
F0.086702
sS'VERB'
p1244
F0.7773349999999999
sS'ADJ'
p1245
F0.12793199999999996
s(lp1246
(g44
I5
tp1247
atp1248
a(S'si\xc4\x99'
p1249
(dp1250
S'PRT'
p1251
F1.0
s(lp1252
(g327
I12
tp1253
atp1254
a(S'za'
p1255
(dp1256
S'PRT'
p1257
F0.008482
sS'VERB'
p1258
F0.000296
sS'NOUN'
p1259
F0.0
sS'ADP'
p1260
F0.991222
sg391
F0.0
s(lp1261
(g150
I15
tp1262
atp1263
a(S'nim'
p1264
(dp1265
S'PRON'
p1266
F0.9999979999999998
sS'CONJ'
p1267
F1e-06
s(lp1268
(g110
I16
tp1269
atp1270
a(S'wp\xc5\x82ywom'
p1271
(dp1272
S'NOUN'
p1273
F1.0
s(lp1274
tp1275
a(S'i'
p1276
(dp1277
S'PRT'
p1278
F0.00425
sS'CONJ'
p1279
F0.995713
sS'NOUN'
p1280
F1.1999999999999999e-05
sg391
F1e-05
sS'PRON'
p1281
F1.7e-05
s(lp1282
(g128
I17
tp1283
atp1284
a(S'wreszcie'
p1285
(dp1286
S'ADV'
p1287
F0.436838
sS'PRT'
p1288
F0.563162
s(lp1289
(g158
I18
tp1290
atp1291
a(S'przydzielaniu'
p1292
(dp1293
S'ADJ'
p1294
F0.007071
sS'VERB'
p1295
F0.48777600000000004
sS'NOUN'
p1296
F0.5051529999999999
s(lp1297
(g103
I14
tp1298
atp1299
a(S'\xc5\x9brodk\xc3\xb3w'
p1300
(dp1301
S'NOUN'
p1302
F1.0
s(lp1303
(g185
I21
tp1304
atp1305
a(S'finansowych'
p1306
(dp1307
S'ADJ'
p1308
F1.0000000000000002
s(lp1309
(g251
I29
tp1310
atp1311
a(g85
(dp1312
g391
F0.0
sg87
F1.0
s(lp1313
(g85
I22
tp1314
atp1315
a(S'tj.'
p1316
(dp1317
g391
F1.0
s(lp1318
(g203
I23
tp1319
atp1320
a(S'pieni\xc4\x99dzy'
p1321
(dp1322
S'NOUN'
p1323
F1.0
s(lp1324
(g217
I26
tp1325
atp1326
a(S'podatnik\xc3\xb3w'
p1327
(dp1328
S'NOUN'
p1329
F1.0
s(lp1330
(g232
I24
tp1331
atp1332
a(g85
(dp1333
g391
F0.0
sg87
F1.0
s(lp1334
(g85
I27
tp1335
atp1336
a(S'powinno'
p1337
(dp1338
S'VERB'
p1339
F1.0
s(lp1340
(g15
I1
tp1341
atp1342
a(S'by\xc4\x87'
p1343
(dp1344
S'VERB'
p1345
F1.0
s(lp1346
(g23
I2
tp1347
atp1348
a(S'\xc5\x82atwe'
p1349
(dp1350
S'ADJ'
p1351
F0.9999999999999999
s(lp1352
(g30
I3
tp1353
atp1354
a(g87
(dp1355
g87
F1.0
s(lp1356
(g87
I30
tp1357
atp1358
asS'sl'
p1359
(lp1360
(S'ne'
p1361
(dp1362
S'PRT'
p1363
F0.998252
sS'CONJ'
p1364
F0.001737
sg391
F9.999999999999999e-06
s(lp1365
(g7
I0
tp1366
atp1367
a(S'bi'
p1368
(dp1369
g391
F0.0
sS'VERB'
p1370
F1.0
s(lp1371
tp1372
a(S'smelo'
p1373
(dp1374
S'VERB'
p1375
F1.0
s(lp1376
(g15
I1
tp1377
atp1378
a(S'biti'
p1379
(dp1380
S'VERB'
p1381
F0.997186
sS'NOUN'
p1382
F0.0028139999999999997
s(lp1383
(g23
I2
tp1384
atp1385
a(S'te\xc5\xbeko'
p1386
(dp1387
S'ADV'
p1388
F0.621652
sS'ADJ'
p1389
F0.37834799999999996
s(lp1390
(g30
I3
tp1391
atp1392
a(S'preveriti'
p1393
(dp1394
S'VERB'
p1395
F1.0
s(lp1396
(g44
I5
tp1397
atp1398
a(g85
(dp1399
g87
F1.0
s(lp1400
tp1401
a(S'kako'
p1402
(dp1403
S'ADV'
p1404
F0.730214
sS'PRON'
p1405
F0.269786
s(lp1406
(g52
I6
tp1407
atp1408
a(S'se'
p1409
(dp1410
S'PRON'
p1411
F0.999996
sg391
F4e-06
s(lp1412
(g73
I8
tp1413
atp1414
a(S'sprejemajo'
p1415
(dp1416
S'VERB'
p1417
F1.0
s(lp1418
tp1419
a(S'odlo\xc4\x8ditve'
p1420
(dp1421
S'NOUN'
p1422
F1.0
s(lp1423
(g66
I7
tp1424
atp1425
a(g85
(dp1426
g87
F1.0
s(lp1427
(g85
I10
tp1428
atp1429
a(S'kaj'
p1430
(dp1431
S'ADV'
p1432
F0.035351
sS'PRON'
p1433
F0.9646489999999999
s(lp1434
(g95
I11
tp1435
atp1436
a(S'na'
p1437
(dp1438
S'ADP'
p1439
F1.0
s(lp1440
tp1441
a(S'njih'
p1442
(dp1443
S'PRON'
p1444
F0.9999990000000001
s(lp1445
(g110
I16
tp1446
atp1447
a(S'vpliva'
p1448
(dp1449
S'VERB'
p1450
F0.437866
sS'NOUN'
p1451
F0.562134
s(lp1452
(g103
I14
tp1453
atp1454
a(S'in'
p1455
(dp1456
S'ADV'
p1457
F0.000639
sg391
F1.7e-05
sS'CONJ'
p1458
F0.999279
sS'NOUN'
p1459
F6.5e-05
s(lp1460
(g128
I17
tp1461
atp1462
a(S'kon\xc4\x8dno'
p1463
(dp1464
S'ADV'
p1465
F0.926934
sS'ADJ'
p1466
F0.073066
s(lp1467
(g158
I18
tp1468
atp1469
a(g85
(dp1470
g87
F1.0
s(lp1471
(g85
I19
tp1472
atp1473
a(S'kako'
p1474
(dp1475
S'ADV'
p1476
F0.730214
sS'PRON'
p1477
F0.269786
s(lp1478
(g170
I20
tp1479
atp1480
a(S'se'
p1481
(dp1482
S'PRON'
p1483
F0.999996
sg391
F4e-06
s(lp1484
(g243
I28
tp1485
atp1486
a(S'dodeljujejo'
p1487
(dp1488
S'VERB'
p1489
F1.0
s(lp1490
(g251
I29
tp1491
atp1492
a(S'sredstva'
p1493
(dp1494
S'NOUN'
p1495
F1.0
s(lp1496
(g185
I21
tp1497
atp1498
a(g85
(dp1499
g87
F1.0
s(lp1500
(g85
I22
tp1501
atp1502
a(S'tj.'
p1503
(dp1504
g391
F1.0
s(lp1505
(g203
I23
tp1506
atp1507
a(S'davkopla\xc4\x8devalski'
p1508
(dp1509
S'ADJ'
p1510
F1.0
s(lp1511
(g232
I24
tp1512
atp1513
a(S'denar'
p1514
(dp1515
S'NOUN'
p1516
F1.0
s(lp1517
(g217
I26
tp1518
atp1519
a(g87
(dp1520
g87
F1.0
s(lp1521
(g87
I30
tp1522
atp1523
asS'es'
p1524
(lp1525
(S'deber\xc3\xada'
p1526
(dp1527
S'VERB'
p1528
F1.0
s(lp1529
(g15
I1
tp1530
atp1531
a(S'ser'
p1532
(dp1533
S'VERB'
p1534
F0.999999
sS'NOUN'
p1535
F1e-06
s(lp1536
(g23
I2
tp1537
atp1538
a(S'f\xc3\xa1cil'
p1539
(dp1540
S'ADJ'
p1541
F1.0
s(lp1542
(g30
I3
tp1543
atp1544
a(S'poder'
p1545
(dp1546
S'VERB'
p1547
F0.997065
sS'NOUN'
p1548
F0.002935
s(lp1549
(g37
I4
tp1550
atp1551
a(S'controlar'
p1552
(dp1553
S'VERB'
p1554
F1.0
s(lp1555
(g44
I5
tp1556
atp1557
a(S'c\xc3\xb3mo'
p1558
(dp1559
S'ADV'
p1560
F0.87091
sS'PRON'
p1561
F0.12909
s(lp1562
(g52
I6
tp1563
atp1564
a(S'se'
p1565
(dp1566
S'PRON'
p1567
F0.999999
sS'VERB'
p1568
F0.0
s(lp1569
(g73
I8
tp1570
atp1571
a(S'toman'
p1572
(dp1573
S'VERB'
p1574
F1.0
s(lp1575
(g82
I9
tp1576
atp1577
a(S'las'
p1578
(dp1579
S'PRON'
p1580
F0.0
sS'DET'
p1581
F1.0
s(lp1582
tp1583
a(S'decisiones'
p1584
(dp1585
S'NOUN'
p1586
F1.0
s(lp1587
(g66
I7
tp1588
atp1589
a(g85
(dp1590
g87
F1.0
s(lp1591
(g85
I10
tp1592
atp1593
a(S'qu\xc3\xa9'
p1594
(dp1595
S'PRON'
p1596
F1.0
s(lp1597
(g95
I11
tp1598
atp1599
a(S'influencias'
p1600
(dp1601
S'VERB'
p1602
F0.151035
sS'NOUN'
p1603
F0.848965
s(lp1604
tp1605
a(S'se'
p1606
(dp1607
S'PRON'
p1608
F1.0
sS'VERB'
p1609
F0.0
s(lp1610
(g327
I12
tp1611
atp1612
a(S'esconden'
p1613
(dp1614
S'VERB'
p1615
F1.0
s(lp1616
tp1617
a(S'tras'
p1618
(dp1619
S'ADP'
p1620
F1.0
s(lp1621
(g150
I15
tp1622
atp1623
a(S'ellas'
p1624
(dp1625
S'PRON'
p1626
F1.0
s(lp1627
(g110
I16
tp1628
atp1629
a(S'y'
p1630
(dp1631
g391
F0.000141
sS'CONJ'
p1632
F0.999859
s(lp1633
(g128
I17
tp1634
atp1635
a(g85
(dp1636
g87
F1.0
s(lp1637
tp1638
a(S'finalmente'
p1639
(dp1640
S'ADV'
p1641
F1.0
s(lp1642
(g158
I18
tp1643
atp1644
a(g85
(dp1645
g87
F1.0
s(lp1646
(g85
I19
tp1647
atp1648
a(S'de'
p1649
(dp1650
g391
F0.0
sS'CONJ'
p1651
F7.9e-05
sS'ADP'
p1652
F0.999921
s(lp1653
tp1654
a(S'qu\xc3\xa9'
p1655
(dp1656
S'PRON'
p1657
F1.0
s(lp1658
tp1659
a(S'manera'
p1660
(dp1661
S'NOUN'
p1662
F1.0
s(lp1663
(g170
I20
tp1664
atp1665
a(S'se'
p1666
(dp1667
S'PRON'
p1668
F1.0
sS'VERB'
p1669
F0.0
s(lp1670
(g243
I28
tp1671
atp1672
a(S'distribuyen'
p1673
(dp1674
S'VERB'
p1675
F1.0
s(lp1676
(g103
I14
tp1677
atp1678
a(S'los'
p1679
(dp1680
S'PRON'
p1681
F0.0
sS'DET'
p1682
F1.0
s(lp1683
tp1684
a(S'recursos'
p1685
(dp1686
S'NOUN'
p1687
F1.0
s(lp1688
(g185
I21
tp1689
atp1690
a(g85
(dp1691
g87
F1.0
s(lp1692
(g85
I22
tp1693
atp1694
a(S'es'
p1695
(dp1696
S'ADV'
p1697
F1.0
s(lp1698
tp1699
a(S'decir'
p1700
(dp1701
S'ADV'
p1702
F1.0
s(lp1703
(g203
I23
tp1704
atp1705
a(g85
(dp1706
g87
F1.0
s(lp1707
(g85
I27
tp1708
atp1709
a(S'el'
p1710
(dp1711
S'PRON'
p1712
F1e-05
sS'DET'
p1713
F0.99999
s(lp1714
(g334
I13
tp1715
atp1716
a(S'dinero'
p1717
(dp1718
S'NOUN'
p1719
F1.0
s(lp1720
(g217
I26
tp1721
atp1722
a(S'del'
p1723
(dp1724
S'ADP'
p1725
F1.0
s(lp1726
(g225
I25
tp1727
atp1728
a(S'contribuyente'
p1729
(dp1730
S'ADJ'
p1731
F0.347951
sS'NOUN'
p1732
F0.652049
s(lp1733
(g232
I24
tp1734
atp1735
a(g87
(dp1736
g87
F1.0
s(lp1737
(g87
I30
tp1738
atp1739
as.