(dp0
S'fr'
p1
(lp2
(S"j'"
p3
(dp4
S'ADJ'
p5
F0.10952
sS'X'
p6
F0.13611
sS'VERB'
p7
F0.004198999999999999
sS'NOUN'
p8
F0.750172
s(lp9
(S'i'
p10
I0
tp11
atp12
a(S'estime'
p13
(dp14
S'VERB'
p15
F0.737848
sS'NOUN'
p16
F0.262152
s(lp17
(S'consider'
p18
I1
tp19
atp20
a(S'capital'
p21
(dp22
S'NOUN'
p23
F0.080816
sS'ADJ'
p24
F0.919184
s(lp25
(S'essential'
p26
I3
tp27
atp28
a(S'de'
p29
(dp30
S'ADP'
p31
F1.0
s(lp32
(S'to'
p33
I4
tp34
atp35
a(S'garantir'
p36
(dp37
S'VERB'
p38
F1.0
s(lp39
(S'guarantee'
p40
I5
tp41
atp42
a(S'de'
p43
(dp44
S'ADP'
p45
F1.0
s(lp46
tp47
a(S'bonnes'
p48
(dp49
S'NOUN'
p50
F0.006938
sS'ADJ'
p51
F0.993062
s(lp52
(S'good'
p53
I10
tp54
atp55
a(S'conditions'
p56
(dp57
S'NOUN'
p58
F1.0
s(lp59
(S'conditions'
p60
I12
tp61
atp62
a(S'de'
p63
(dp64
S'ADP'
p65
F1.0
s(lp66
tp67
a(S'sant\xc3\xa9'
p68
(dp69
S'NOUN'
p70
F1.0
s(lp71
(S'health'
p72
I11
tp73
atp74
a(S'aux'
p75
(dp76
S'ADP'
p77
F1.0
s(lp78
tp79
a(S'enfants'
p80
(dp81
S'NOUN'
p82
F1.0
s(lp83
(S'children'
p84
I6
tp85
atp86
a(S'et'
p87
(dp88
S'CONJ'
p89
F1.0
s(lp90
(S'and'
p91
I7
tp92
atp93
a(S'aux'
p94
(dp95
S'ADP'
p96
F1.0
s(lp97
tp98
a(S'femmes'
p99
(dp100
S'NOUN'
p101
F1.0
s(lp102
(S'women'
p103
I9
tp104
atp105
a(S'enceintes'
p106
(dp107
S'NOUN'
p108
F0.006363
sS'VERB'
p109
F0.771105
sS'ADJ'
p110
F0.222532
s(lp111
(S'pregnant'
p112
I8
tp113
atp114
a(S'.'
p115
(dp116
g115
F1.0
s(lp117
(g115
I13
tp118
atp119
asS'en'
p120
(lp121
(g10
(dp122
g6
F0.002518
sS'NOUN'
p123
F0.997482
s(lp124
(g10
I0
tp125
atp126
a(g18
(dp127
S'VERB'
p128
F1.0
s(lp129
(g18
I1
tp130
atp131
a(S'it'
p132
(dp133
S'PRON'
p134
F1.0
s(lp135
(g132
I2
tp136
atp137
a(g26
(dp138
S'NOUN'
p139
F0.006205
sS'ADJ'
p140
F0.993795
s(lp141
(g26
I3
tp142
atp143
a(g33
(dp144
S'ADV'
p145
F0.0
sS'PRT'
p146
F0.999999
sS'ADP'
p147
F0.0
s(lp148
(g33
I4
tp149
atp150
a(g40
(dp151
S'VERB'
p152
F0.935083
sS'NOUN'
p153
F0.064917
s(lp154
(g40
I5
tp155
atp156
a(g84
(dp157
S'NOUN'
p158
F1.0
s(lp159
(g84
I6
tp160
atp161
a(g91
(dp162
S'CONJ'
p163
F1.0
sS'NOUN'
p164
F0.0
s(lp165
(g91
I7
tp166
atp167
a(g112
(dp168
S'ADJ'
p169
F1.0
s(lp170
(g112
I8
tp171
atp172
a(g103
(dp173
S'NOUN'
p174
F1.0
s(lp175
(g103
I9
tp176
atp177
a(g53
(dp178
S'ADV'
p179
F0.001704
sS'NOUN'
p180
F0.003562
sS'ADJ'
p181
F0.994734
s(lp182
(g53
I10
tp183
atp184
a(g72
(dp185
S'NOUN'
p186
F1.0
s(lp187
(g72
I11
tp188
atp189
a(g60
(dp190
S'VERB'
p191
F0.000328
sS'NOUN'
p192
F0.999672
s(lp193
(g60
I12
tp194
atp195
a(g115
(dp196
g115
F1.0
s(lp197
(g115
I13
tp198
atp199
asS'nl'
p200
(lp201
(S'ik'
p202
(dp203
S'PRON'
p204
F0.999979
sS'NOUN'
p205
F2.1e-05
s(lp206
(g10
I0
tp207
atp208
a(S'acht'
p209
(dp210
S'NUM'
p211
F0.064579
sS'VERB'
p212
F0.931844
sS'NOUN'
p213
F0.003576
s(lp214
(g18
I1
tp215
atp216
a(S'het'
p217
(dp218
S'PRON'
p219
F0.629735
sS'DET'
p220
F0.370265
s(lp221
(g132
I2
tp222
atp223
a(S'van'
p224
(dp225
S'ADP'
p226
F1.0
s(lp227
tp228
a(S'fundamenteel'
p229
(dp230
S'ADJ'
p231
F1.0
s(lp232
tp233
a(S'belang'
p234
(dp235
S'NOUN'
p236
F1.0
s(lp237
(g26
I3
tp238
atp239
a(S'ervoor'
p240
(dp241
S'ADV'
p242
F1.0
s(lp243
(g40
I5
tp244
atp245
a(S'te'
p246
(dp247
S'PRT'
p248
F1.0
s(lp249
tp250
a(S'zorgen'
p251
(dp252
S'VERB'
p253
F0.997705
sS'NOUN'
p254
F0.002295
s(lp255
tp256
a(S'dat'
p257
(dp258
S'PRON'
p259
F0.022958999999999997
sS'CONJ'
p260
F0.977041
s(lp261
(g33
I4
tp262
atp263
a(S'kinderen'
p264
(dp265
S'NOUN'
p266
F1.0
s(lp267
(g84
I6
tp268
atp269
a(S'en'
p270
(dp271
S'CONJ'
p272
F1.0
s(lp273
(g91
I7
tp274
atp275
a(S'zwangere'
p276
(dp277
S'NOUN'
p278
F2e-06
sS'ADJ'
p279
F0.999998
s(lp280
(g112
I8
tp281
atp282
a(S'vrouwen'
p283
(dp284
S'NOUN'
p285
F1.0
s(lp286
(g103
I9
tp287
atp288
a(S'in'
p289
(dp290
S'ADV'
p291
F0.042645
sS'VERB'
p292
F5e-06
sS'ADP'
p293
F0.95735
s(lp294
tp295
a(S'goede'
p296
(dp297
S'NOUN'
p298
F0.085438
sS'ADJ'
p299
F0.914562
s(lp300
(g53
I10
tp301
atp302
a(S'gezondheid'
p303
(dp304
g6
F0.0
sS'NOUN'
p305
F1.0
s(lp306
(g72
I11
tp307
atp308
a(S'kunnen'
p309
(dp310
S'VERB'
p311
F0.999995
sS'NOUN'
p312
F5e-06
s(lp313
(g40
I5
tp314
atp315
a(S'leven'
p316
(dp317
S'VERB'
p318
F0.961357
sS'NOUN'
p319
F0.038643
s(lp320
(g60
I12
tp321
atp322
a(g115
(dp323
g115
F1.0
s(lp324
(g115
I13
tp325
atp326
asS'de'
p327
(lp328
(S'ich'
p329
(dp330
S'PRON'
p331
F1.0
s(lp332
(g10
I0
tp333
atp334
a(S'erachte'
p335
(dp336
S'VERB'
p337
F1.0
s(lp338
tp339
a(S'es'
p340
(dp341
S'PRON'
p342
F1.0
s(lp343
(g132
I2
tp344
atp345
a(S'als'
p346
(dp347
S'CONJ'
p348
F0.998696
s(lp349
(g18
I1
tp350
atp351
a(S'entscheidend'
p352
(dp353
S'ADJ'
p354
F1.0
s(lp355
(g26
I3
tp356
atp357
a(S','
p358
(dp359
g115
F1.0
s(lp360
tp361
a(S'kindern'
p362
(dp363
S'NOUN'
p364
F0.049973
sS'ADJ'
p365
F0.869533
s(lp366
(g84
I6
tp367
atp368
a(S'und'
p369
(dp370
S'CONJ'
p371
F1.0
s(lp372
(g91
I7
tp373
atp374
a(S'schwangeren'
p375
(dp376
S'ADJ'
p377
F1.0
s(lp378
(g112
I8
tp379
atp380
a(S'frauen'
p381
(dp382
S'NOUN'
p383
F0.031738
sS'ADJ'
p384
F0.968038
s(lp385
(g103
I9
tp386
atp387
a(S'gute'
p388
(dp389
S'ADJ'
p390
F1.0
s(lp391
(g53
I10
tp392
atp393
a(S'gesundheitliche'
p394
(dp395
S'ADJ'
p396
F1.0
s(lp397
(g72
I11
tp398
atp399
a(S'bedingungen'
p400
(dp401
S'ADJ'
p402
F0.001485
sS'NOUN'
p403
F0.997059
s(lp404
(g60
I12
tp405
atp406
a(S'zu'
p407
(dp408
S'PRT'
p409
F0.999975
s(lp410
(g33
I4
tp411
atp412
a(S'garantieren'
p413
(dp414
S'VERB'
p415
F1.0
s(lp416
(g40
I5
tp417
atp418
a(g115
(dp419
g115
F1.0
s(lp420
(g115
I13
tp421
atp422
asS'it'
p423
(lp424
(S'ritengo'
p425
(dp426
S'VERB'
p427
F1.0
s(lp428
(g18
I1
tp429
atp430
a(S'essenziale'
p431
(dp432
S'NOUN'
p433
F0.079006
sS'ADJ'
p434
F0.920994
s(lp435
(g26
I3
tp436
atp437
a(S'garantire'
p438
(dp439
S'VERB'
p440
F1.0
s(lp441
(g40
I5
tp442
atp443
a(S'a'
p444
(dp445
S'CONJ'
p446
F5.4e-05
sS'ADP'
p447
F0.999946
s(lp448
(g33
I4
tp449
atp450
a(S'bambini'
p451
(dp452
S'NOUN'
p453
F1.0
s(lp454
(g84
I6
tp455
atp456
a(S'e'
p457
(dp458
S'CONJ'
p459
F1.0
s(lp460
(g91
I7
tp461
atp462
a(S'donne'
p463
(dp464
S'NOUN'
p465
F1.0
s(lp466
(g103
I9
tp467
atp468
a(S'in'
p469
(dp470
S'ADP'
p471
F1.0
s(lp472
(g112
I8
tp473
atp474
a(S'stato'
p475
(dp476
S'VERB'
p477
F0.118966
sS'NOUN'
p478
F0.881034
s(lp479
tp480
a(S'interessante'
p481
(dp482
S'VERB'
p483
F0.057481
sS'ADJ'
p484
F0.942519
s(lp485
(g112
I8
tp486
atp487
a(S'buone'
p488
(dp489
S'NOUN'
p490
F0.10651
sS'ADJ'
p491
F0.89349
s(lp492
(g53
I10
tp493
atp494
a(S'condizioni'
p495
(dp496
S'VERB'
p497
F0.003899
sS'NOUN'
p498
F0.996101
s(lp499
(g60
I12
tp500
atp501
a(S'sanitarie'
p502
(dp503
S'ADJ'
p504
F1.0
s(lp505
(g72
I11
tp506
atp507
a(g115
(dp508
g115
F1.0
s(lp509
(g115
I13
tp510
atp511
asS'sk'
p512
(lp513
(S'pova\xc5\xbeujem'
p514
(dp515
S'VERB'
p516
F1.0
s(lp517
tp518
a(S'za'
p519
(dp520
S'PRT'
p521
F0.000526
sS'ADP'
p522
F0.999411
sg6
F6.3e-05
s(lp523
(g18
I1
tp524
atp525
a(S'nevyhnutn\xc3\xa9'
p526
(dp527
S'ADJ'
p528
F1.0
s(lp529
(g26
I3
tp530
atp531
a(S'zabezpe\xc4\x8di\xc5\xa5'
p532
(dp533
S'VERB'
p534
F1.0
s(lp535
(g40
I5
tp536
atp537
a(S'dobr\xc3\xa9'
p538
(dp539
S'NOUN'
p540
F0.002509
sS'ADJ'
p541
F0.99746
sg6
F3.2e-05
s(lp542
(g53
I10
tp543
atp544
a(S'zdravotn\xc3\xa9'
p545
(dp546
S'ADJ'
p547
F1.0
s(lp548
(g72
I11
tp549
atp550
a(S'podmienky'
p551
(dp552
S'NOUN'
p553
F1.0
s(lp554
(g60
I12
tp555
atp556
a(S'de\xc5\xa5om'
p557
(dp558
S'NOUN'
p559
F1.0
s(lp560
(g84
I6
tp561
atp562
a(g444
(dp563
g6
F0.0007120000000000001
sS'CONJ'
p564
F0.998487
sS'NOUN'
p565
F7.8e-05
sS'ADP'
p566
F0.000636
sS'PRT'
p567
F8.6e-05
s(lp568
(g91
I7
tp569
atp570
a(S'tehotn\xc3\xbdm'
p571
(dp572
S'ADJ'
p573
F1.0
s(lp574
(g112
I8
tp575
atp576
a(S'\xc5\xbeen\xc3\xa1m'
p577
(dp578
S'NOUN'
p579
F1.0
s(lp580
(g103
I9
tp581
atp582
a(g115
(dp583
g115
F1.0
s(lp584
(g115
I13
tp585
atp586
asS'pl'
p587
(lp588
(S'za'
p589
(dp590
S'PRT'
p591
F0.003075
sS'VERB'
p592
F0.000823
sS'NOUN'
p593
F3.4e-05
sS'ADP'
p594
F0.9960660000000001
sg6
F2e-06
s(lp595
(g18
I1
tp596
atp597
a(S'kwesti\xc4\x99'
p598
(dp599
S'NOUN'
p600
F1.0
s(lp601
tp602
a(S'zasadnicz\xc4\x85'
p603
(dp604
S'ADJ'
p605
F1.0
s(lp606
(g26
I3
tp607
atp608
a(S'uwa\xc5\xbcam'
p609
(dp610
S'VERB'
p611
F1.0
s(lp612
(g18
I1
tp613
atp614
a(S'zapewnienie'
p615
(dp616
S'VERB'
p617
F0.998918
sS'NOUN'
p618
F0.001082
s(lp619
(g40
I5
tp620
atp621
a(S'nale\xc5\xbcytych'
p622
(dp623
S'ADV'
p624
F3e-06
sS'NOUN'
p625
F0.007388
sS'VERB'
p626
F0.1911490000000001
sS'ADJ'
p627
F0.80146
s(lp628
(g112
I8
tp629
atp630
a(S'warunk\xc3\xb3w'
p631
(dp632
S'NOUN'
p633
F1.0
s(lp634
(g60
I12
tp635
atp636
a(S'zdrowotnych'
p637
(dp638
S'ADJ'
p639
F1.0
s(lp640
(g72
I11
tp641
atp642
a(S'dzieciom'
p643
(dp644
S'NOUN'
p645
F1.0
s(lp646
(g84
I6
tp647
atp648
a(g10
(dp649
S'PRT'
p650
F0.007176
sS'CONJ'
p651
F0.992787
sS'NOUN'
p652
F2.7e-05
sg6
F0.0
sS'PRON'
p653
F1e-05
s(lp654
(g91
I7
tp655
atp656
a(S'kobietom'
p657
(dp658
S'NOUN'
p659
F1.0
s(lp660
(g103
I9
tp661
atp662
a(S'w'
p663
(dp664
S'NOUN'
p665
F5e-06
sS'ADJ'
p666
F3e-05
sS'ADP'
p667
F0.999963
sg6
F2e-06
s(lp668
tp669
a(S'ci\xc4\x85\xc5\xbcy'
p670
(dp671
S'VERB'
p672
F6e-06
sS'NOUN'
p673
F0.9999939999999999
s(lp674
(g112
I8
tp675
atp676
a(g115
(dp677
g115
F1.0
s(lp678
(g115
I13
tp679
atp680
asS'sl'
p681
(lp682
(S'menim'
p683
(dp684
S'VERB'
p685
F1.0
s(lp686
tp687
a(g358
(dp688
g115
F1.0
s(lp689
tp690
a(S'da'
p691
(dp692
S'PRT'
p693
F4e-06
sS'CONJ'
p694
F0.999979
sS'VERB'
p695
F1.7e-05
sg6
F1e-06
s(lp696
(g18
I1
tp697
atp698
a(S'je'
p699
(dp700
S'PRON'
p701
F0.019995
sS'VERB'
p702
F0.980001
sg6
F5e-06
s(lp703
(g132
I2
tp704
atp705
a(S'bistvenega'
p706
(dp707
S'ADJ'
p708
F1.0
s(lp709
tp710
a(S'pomena'
p711
(dp712
S'NOUN'
p713
F1.0
s(lp714
(g26
I3
tp715
atp716
a(g358
(dp717
g115
F1.0
s(lp718
tp719
a(S'da'
p720
(dp721
S'PRT'
p722
F0.000192
sS'CONJ'
p723
F0.999773
sS'VERB'
p724
F3.4e-05
sg6
F1e-06
s(lp725
tp726
a(S'poskrbimo'
p727
(dp728
S'VERB'
p729
F1.0
s(lp730
(g103
I9
tp731
atp732
a(S'za'
p733
(dp734
S'ADV'
p735
F7.5e-05
sg6
F1e-06
sS'ADP'
p736
F0.999924
s(lp737
(g33
I4
tp738
atp739
a(S'dobro'
p740
(dp741
S'ADV'
p742
F0.015388
sS'NOUN'
p743
F0.002391
sS'ADJ'
p744
F0.982212
sg6
F1e-05
s(lp745
(g53
I10
tp746
atp747
a(S'zdravstveno'
p748
(dp749
S'ADV'
p750
F5.5e-05
sS'ADJ'
p751
F0.9999450000000001
s(lp752
(g72
I11
tp753
atp754
a(S'stanje'
p755
(dp756
S'NOUN'
p757
F1.0
s(lp758
(g60
I12
tp759
atp760
a(S'otrok'
p761
(dp762
S'NOUN'
p763
F0.9999990000000001
s(lp764
(g84
I6
tp765
atp766
a(S'in'
p767
(dp768
S'ADV'
p769
F0.000124
sg6
F1.8e-05
sS'CONJ'
p770
F0.99983
sS'NOUN'
p771
F2.8e-05
s(lp772
(g91
I7
tp773
atp774
a(S'nose\xc4\x8dnic'
p775
(dp776
S'NOUN'
p777
F1.0
s(lp778
(g112
I8
tp779
atp780
a(g115
(dp781
g115
F1.0
s(lp782
(g115
I13
tp783
atp784
asS'es'
p785
(lp786
(S'considero'
p787
(dp788
S'VERB'
p789
F1.0
s(lp790
(g18
I1
tp791
atp792
a(S'que'
p793
(dp794
g6
F0.0
sS'CONJ'
p795
F1.0
s(lp796
(g10
I0
tp797
atp798
a(S'es'
p799
(dp800
S'VERB'
p801
F1.0
s(lp802
(g132
I2
tp803
atp804
a(S'esencial'
p805
(dp806
S'ADJ'
p807
F1.0
s(lp808
(g26
I3
tp809
atp810
a(S'garantizar'
p811
(dp812
S'VERB'
p813
F1.0
s(lp814
(g40
I5
tp815
atp816
a(g444
(dp817
g6
F0.000259
sS'CONJ'
p818
F5e-06
sS'ADP'
p819
F0.999736
s(lp820
(g33
I4
tp821
atp822
a(S'los'
p823
(dp824
S'PRON'
p825
F0.0
sS'DET'
p826
F1.0
s(lp827
tp828
a(S'ni\xc3\xb1os'
p829
(dp830
S'NOUN'
p831
F1.0
s(lp832
(g84
I6
tp833
atp834
a(S'y'
p835
(dp836
g6
F0.000396
sS'CONJ'
p837
F0.999604
s(lp838
(g91
I7
tp839
atp840
a(S'las'
p841
(dp842
S'PRON'
p843
F0.000237
sS'DET'
p844
F0.999763
s(lp845
tp846
a(S'mujeres'
p847
(dp848
S'NOUN'
p849
F1.0
s(lp850
(g103
I9
tp851
atp852
a(S'embarazadas'
p853
(dp854
S'VERB'
p855
F1.0
s(lp856
(g112
I8
tp857
atp858
a(S'buenas'
p859
(dp860
S'ADJ'
p861
F1.0
s(lp862
(g53
I10
tp863
atp864
a(S'condiciones'
p865
(dp866
S'NOUN'
p867
F1.0
s(lp868
(g60
I12
tp869
atp870
a(S'de'
p871
(dp872
g6
F2.9e-05
sS'CONJ'
p873
F0.000449
sS'ADP'
p874
F0.999522
s(lp875
tp876
a(S'salud'
p877
(dp878
S'NOUN'
p879
F1.0
s(lp880
(g72
I11
tp881
atp882
a(g115
(dp883
g115
F1.0
s(lp884
(g115
I13
tp885
atp886
as.