(dp0
S'fr'
p1
(lp2
(S'les'
p3
(dp4
S'PRON'
p5
F0.000397
sS'DET'
p6
F0.99958
sS'ADP'
p7
F2.3e-05
s(lp8
tp9
a(S'personnes'
p10
(dp11
S'NOUN'
p12
F1.0
s(lp13
(S'those'
p14
I0
tp15
atp16
a(S'qui'
p17
(dp18
S'PRON'
p19
F1.0
s(lp20
(S'who'
p21
I1
tp22
atp23
a(S'tentent'
p24
(dp25
S'VERB'
p26
F1.0
s(lp27
(S'trying'
p28
I3
tp29
atp30
a(S"d'"
p31
(dp32
S'NOUN'
p33
F0.087886
sS'VERB'
p34
F0.7995690000000001
sS'ADJ'
p35
F0.112546
s(lp36
(S'to'
p37
I4
tp38
atp39
a(S'entraver'
p40
(dp41
S'VERB'
p42
F1.0
s(lp43
tp44
a(S'ce'
p45
(dp46
S'PRON'
p47
F1.0
s(lp48
(S'this'
p49
I6
tp50
atp51
a(S'processus'
p52
(dp53
S'NOUN'
p54
F1.0
s(lp55
(S'hinder'
p56
I5
tp57
atp58
a(S'en'
p59
(dp60
S'PRON'
p61
F0.000406
sS'ADP'
p62
F0.999594
s(lp63
tp64
a(S'raison'
p65
(dp66
S'NOUN'
p67
F1.0
s(lp68
(S'because'
p69
I7
tp70
atp71
a(S'de'
p72
(dp73
S'ADP'
p74
F1.0
s(lp75
(S'of'
p76
I8
tp77
atp78
a(S'leurs'
p79
(dp80
S'PRON'
p81
F1.0
s(lp82
(S'their'
p83
I9
tp84
atp85
a(S'convictions'
p86
(dp87
S'NOUN'
p88
F1.0
s(lp89
tp90
a(S'vis-\xc3\xa0-vis'
p91
(dp92
S'ADV'
p93
F0.983187
sS'NOUN'
p94
F0.016813
s(lp95
(S'attitude'
p96
I10
tp97
atp98
a(S'de'
p99
(dp100
S'ADP'
p101
F1.0
s(lp102
(S'to'
p103
I11
tp104
atp105
a(S"l'"
p106
(dp107
S'ADJ'
p108
F0.160704
sS'VERB'
p109
F0.06480800000000002
sS'NOUN'
p110
F0.774488
s(lp111
tp112
a(S'\xc3\xa9nergie'
p113
(dp114
S'NOUN'
p115
F1.0
s(lp116
(S'power'
p117
I13
tp118
atp119
a(S'nucl\xc3\xa9aire'
p120
(dp121
S'NOUN'
p122
F0.015689
sS'ADJ'
p123
F0.984311
s(lp124
(S'nuclear'
p125
I12
tp126
atp127
a(S'emp\xc3\xaachent'
p128
(dp129
S'VERB'
p130
F1.0
s(lp131
(S'preventing'
p132
I17
tp133
atp134
a(S','
p135
(dp136
S'.'
p137
F1.0
s(lp138
(S'are'
p139
I14
tp140
atp141
a(S'en'
p142
(dp143
S'PRON'
p144
F0.375107
sS'ADP'
p145
F0.624893
s(lp146
(S'in'
p147
I15
tp148
atp149
a(S'fait'
p150
(dp151
S'ADJ'
p152
F0.027313
sS'VERB'
p153
F0.37354
sS'NOUN'
p154
F0.599148
s(lp155
(S'reality'
p156
I16
tp157
atp158
a(g135
(dp159
g137
F1.0
s(lp160
tp161
a(S"l'"
p162
(dp163
S'ADJ'
p164
F0.13429
sS'VERB'
p165
F0.638201
sS'NOUN'
p166
F0.227509
s(lp167
(S'the'
p168
I18
tp169
atp170
a(S'union'
p171
(dp172
S'NOUN'
p173
F1.0
s(lp174
(S'union'
p175
I20
tp176
atp177
a(S'europ\xc3\xa9enne'
p178
(dp179
S'NOUN'
p180
F0.017216
sS'ADJ'
p181
F0.982784
s(lp182
(S'european'
p183
I19
tp184
atp185
a(S'de'
p186
(dp187
S'ADP'
p188
F1.0
s(lp189
(S'from'
p190
I21
tp191
atp192
a(S'se'
p193
(dp194
S'PRON'
p195
F1.0
s(lp196
tp197
a(S'doter'
p198
(dp199
S'VERB'
p200
F1.0
s(lp201
(S'having'
p202
I22
tp203
atp204
a(S"d'"
p205
(dp206
S'ADJ'
p207
F0.050629
sS'VERB'
p208
F0.794975
sS'NOUN'
p209
F0.154398
s(lp210
tp211
a(S'un'
p212
(dp213
S'NOUN'
p214
F7.1e-05
sS'NUM'
p215
F0.02555
sS'DET'
p216
F0.974379
s(lp217
(S'a'
p218
I23
tp219
atp220
a(S'cadre'
p221
(dp222
S'VERB'
p223
F6.6e-05
sS'NOUN'
p224
F0.999933
s(lp225
(S'framework'
p226
I25
tp227
atp228
a(S'communautaire'
p229
(dp230
S'ADJ'
p231
F1.0
s(lp232
(S'community'
p233
I24
tp234
atp235
a(S'qui'
p236
(dp237
S'PRON'
p238
F1.0
s(lp239
tp240
a(S'\xc3\xa9tablit'
p241
(dp242
S'VERB'
p243
F1.0
s(lp244
(S'establishing'
p245
I26
tp246
atp247
a(S'des'
p248
(dp249
S'DET'
p250
F0.000244
sS'ADP'
p251
F0.999756
s(lp252
(S'safe'
p253
I28
tp254
atp255
a(S'r\xc3\xa8gles'
p256
(dp257
S'VERB'
p258
F0.0
sS'NOUN'
p259
F1.0
s(lp260
(S'rules'
p261
I31
tp262
atp263
a(S'garantissant'
p264
(dp265
S'VERB'
p266
F1.0
s(lp267
(S'secure'
p268
I30
tp269
atp270
a(S'une'
p271
(dp272
S'NOUN'
p273
F4e-06
sS'NUM'
p274
F0.022161
sS'DET'
p275
F0.977834
s(lp276
tp277
a(S's\xc3\xbbret\xc3\xa9'
p278
(dp279
S'NOUN'
p280
F1.0
s(lp281
(g253
I28
tp282
atp283
a(S'et'
p284
(dp285
S'CONJ'
p286
F1.0
s(lp287
(S'and'
p288
I29
tp289
atp290
a(S'une'
p291
(dp292
S'NOUN'
p293
F3e-06
sS'NUM'
p294
F0.012272
sS'DET'
p295
F0.987725
s(lp296
(g268
I30
tp297
atp298
a(S's\xc3\xa9curisation'
p299
(dp300
S'NOUN'
p301
F1.0
s(lp302
tp303
a(S'maximales'
p304
(dp305
S'ADJ'
p306
F1.0
s(lp307
(g268
I30
tp308
atp309
a(g137
(dp310
g137
F1.0
s(lp311
(g137
I34
tp312
atp313
asS'en'
p314
(lp315
(g14
(dp316
S'NOUN'
p317
F0.000195
sS'DET'
p318
F0.999805
s(lp319
(g14
I0
tp320
atp321
a(g21
(dp322
S'PRON'
p323
F1.0
s(lp324
(g21
I1
tp325
atp326
a(S'are'
p327
(dp328
S'VERB'
p329
F0.999999
sS'NOUN'
p330
F1e-06
s(lp331
(g327
I2
tp332
atp333
a(g28
(dp334
S'VERB'
p335
F0.999936
sS'ADJ'
p336
F6.4e-05
s(lp337
(g28
I3
tp338
atp339
a(g37
(dp340
S'ADV'
p341
F0.0
sS'PRT'
p342
F1.0
sS'ADP'
p343
F0.0
s(lp344
(g37
I4
tp345
atp346
a(g56
(dp347
S'VERB'
p348
F0.999996
sS'ADJ'
p349
F4e-06
s(lp350
(g56
I5
tp351
atp352
a(g49
(dp353
S'ADV'
p354
F0.003736
sS'NOUN'
p355
F0.00122
sS'DET'
p356
F0.995044
s(lp357
(g49
I6
tp358
atp359
a(g69
(dp360
S'ADV'
p361
F0.161656
sS'ADP'
p362
F0.838344
s(lp363
(g69
I7
tp364
atp365
a(g76
(dp366
S'ADP'
p367
F1.0
s(lp368
(g76
I8
tp369
atp370
a(g83
(dp371
S'PRON'
p372
F1.0
s(lp373
(g83
I9
tp374
atp375
a(g96
(dp376
S'NOUN'
p377
F1.0
s(lp378
(g96
I10
tp379
atp380
a(g103
(dp381
S'ADV'
p382
F2e-06
sS'PRT'
p383
F0.999989
sS'ADP'
p384
F9e-06
s(lp385
(g103
I11
tp386
atp387
a(g125
(dp388
S'ADJ'
p389
F1.0
s(lp390
(g125
I12
tp391
atp392
a(g117
(dp393
S'VERB'
p394
F4e-06
sS'NOUN'
p395
F0.999996
s(lp396
(g117
I13
tp397
atp398
a(g139
(dp399
S'VERB'
p400
F0.997068
sS'NOUN'
p401
F0.002932
s(lp402
(g139
I14
tp403
atp404
a(g147
(dp405
S'ADV'
p406
F0.007044
sS'PRT'
p407
F0.001451
sS'ADP'
p408
F0.991505
s(lp409
(g147
I15
tp410
atp411
a(g156
(dp412
S'NOUN'
p413
F1.0
s(lp414
(g156
I16
tp415
atp416
a(g132
(dp417
S'VERB'
p418
F1.0
s(lp419
(g132
I17
tp420
atp421
a(g168
(dp422
S'NOUN'
p423
F1e-06
sS'DET'
p424
F0.999999
s(lp425
(g168
I18
tp426
atp427
a(g183
(dp428
S'NOUN'
p429
F0.10881199999999999
sS'VERB'
p430
F1.1e-05
sS'ADJ'
p431
F0.891178
s(lp432
(g183
I19
tp433
atp434
a(g175
(dp435
S'NOUN'
p436
F1.0
s(lp437
(g175
I20
tp438
atp439
a(g190
(dp440
S'ADP'
p441
F1.0
s(lp442
(g190
I21
tp443
atp444
a(g202
(dp445
S'VERB'
p446
F1.0
s(lp447
(g202
I22
tp448
atp449
a(g218
(dp450
S'NOUN'
p451
F0.0
sS'DET'
p452
F1.0
s(lp453
(g218
I23
tp454
atp455
a(g233
(dp456
S'NOUN'
p457
F1.0
s(lp458
(g233
I24
tp459
atp460
a(g226
(dp461
S'NOUN'
p462
F1.0
s(lp463
(g226
I25
tp464
atp465
a(g245
(dp466
S'VERB'
p467
F1.0
s(lp468
(g245
I26
tp469
atp470
a(S'as'
p471
(dp472
S'ADV'
p473
F0.172989
sS'ADP'
p474
F0.827011
s(lp475
(g471
I27
tp476
atp477
a(g253
(dp478
S'ADV'
p479
F0.001696
sS'NOUN'
p480
F0.027205
sS'ADJ'
p481
F0.971099
s(lp482
(g253
I28
tp483
atp484
a(g288
(dp485
S'CONJ'
p486
F0.999998
sS'NOUN'
p487
F2e-06
s(lp488
(g288
I29
tp489
atp490
a(g268
(dp491
S'VERB'
p492
F0.131843
sS'ADJ'
p493
F0.868157
s(lp494
(g268
I30
tp495
atp496
a(g261
(dp497
S'VERB'
p498
F3.2e-05
sS'NOUN'
p499
F0.999968
s(lp500
(g261
I31
tp501
atp502
a(S'as'
p503
(dp504
S'ADV'
p505
F0.059299
sS'ADP'
p506
F0.940701
s(lp507
(g503
I32
tp508
atp509
a(S'possible'
p510
(dp511
S'ADV'
p512
F0.004605
sS'NOUN'
p513
F0.002528
sS'ADJ'
p514
F0.992867
s(lp515
(g510
I33
tp516
atp517
a(g137
(dp518
g137
F1.0
s(lp519
(g137
I34
tp520
atp521
asS'nl'
p522
(lp523
(S'zij'
p524
(dp525
S'PRON'
p526
F0.999994
sS'VERB'
p527
F1e-06
sS'NOUN'
p528
F4e-06
s(lp529
(g14
I0
tp530
atp531
a(S'die'
p532
(dp533
S'PRON'
p534
F1.0
s(lp535
(g21
I1
tp536
atp537
a(S'dit'
p538
(dp539
S'PRON'
p540
F1.0
s(lp541
(g49
I6
tp542
atp543
a(S'proces'
p544
(dp545
S'NOUN'
p546
F1.0
s(lp547
(g56
I5
tp548
atp549
a(S'proberen'
p550
(dp551
S'VERB'
p552
F0.999802
sS'NOUN'
p553
F0.000198
s(lp554
(g28
I3
tp555
atp556
a(S'tegen'
p557
(dp558
S'ADV'
p559
F0.939362
sS'ADP'
p560
F0.060638
s(lp561
tp562
a(S'te'
p563
(dp564
S'PRT'
p565
F1.0
s(lp566
(g37
I4
tp567
atp568
a(S'houden'
p569
(dp570
S'VERB'
p571
F1.0
sS'NOUN'
p572
F0.0
s(lp573
(g56
I5
tp574
atp575
a(S'omdat'
p576
(dp577
S'CONJ'
p578
F1.0
s(lp579
(g69
I7
tp580
atp581
a(S'ze'
p582
(dp583
S'PRON'
p584
F1.0
s(lp585
(g83
I9
tp586
atp587
a(S'tegen'
p588
(dp589
S'ADV'
p590
F9.5e-05
sS'ADP'
p591
F0.999905
s(lp592
(g190
I21
tp593
atp594
a(S'kernenergie'
p595
(dp596
S'NOUN'
p597
F1.0
s(lp598
(g125
I12
tp599
atp600
a(S'zijn'
p601
(dp602
S'PRON'
p603
F5.6e-05
sS'VERB'
p604
F0.9999119999999999
sS'NOUN'
p605
F3.3e-05
s(lp606
(g139
I14
tp607
atp608
a(g135
(dp609
g137
F1.0
s(lp610
tp611
a(S'voorkomen'
p612
(dp613
S'VERB'
p614
F0.9984919999999999
sS'NOUN'
p615
F0.001508
s(lp616
(g132
I17
tp617
atp618
a(S'daarmee'
p619
(dp620
S'ADV'
p621
F1.0
s(lp622
(g202
I22
tp623
atp624
a(S'dat'
p625
(dp626
S'PRON'
p627
F0.752463
sS'CONJ'
p628
F0.247536
s(lp629
tp630
a(S'er'
p631
(dp632
S'ADV'
p633
F1.0
s(lp634
(g202
I22
tp635
atp636
a(S'een'
p637
(dp638
S'ADJ'
p639
F1e-06
sS'PRON'
p640
F5e-06
sS'NUM'
p641
F0.0
sS'DET'
p642
F0.999994
s(lp643
(g218
I23
tp644
atp645
a(S'gemeenschapskader'
p646
(dp647
S'ADJ'
p648
F0.004415
sS'NOUN'
p649
F0.995585
s(lp650
(g233
I24
tp651
atp652
a(S'komt'
p653
(dp654
S'VERB'
p655
F1.0
s(lp656
(g156
I16
tp657
atp658
a(S'met'
p659
(dp660
S'ADP'
p661
F1.0
s(lp662
(g147
I15
tp663
atp664
a(S'zo'
p665
(dp666
S'ADV'
p667
F0.999985
sS'X'
p668
F0.0
sS'CONJ'
p669
F1.5e-05
s(lp670
(g471
I27
tp671
atp672
a(S'veilig'
p673
(dp674
S'ADJ'
p675
F1.0
s(lp676
(g253
I28
tp677
atp678
a(S'mogelijke'
p679
(dp680
S'NOUN'
p681
F9e-06
sS'ADJ'
p682
F0.999991
s(lp683
(g510
I33
tp684
atp685
a(S'regels'
p686
(dp687
S'NOUN'
p688
F1.0
s(lp689
(g261
I31
tp690
atp691
a(g137
(dp692
g137
F1.0
s(lp693
(g137
I34
tp694
atp695
asS'de'
p696
(lp697
(S'diejenigen'
p698
(dp699
S'PRON'
p700
F1.0
s(lp701
(g14
I0
tp702
atp703
a(g135
(dp704
g137
F1.0
s(lp705
tp706
a(S'die'
p707
(dp708
S'PRON'
p709
F0.99297
s(lp710
(g21
I1
tp711
atp712
a(S'versuchen'
p713
(dp714
S'VERB'
p715
F1.0
s(lp716
(g28
I3
tp717
atp718
a(g135
(dp719
g137
F1.0
s(lp720
(g37
I4
tp721
atp722
a(S'diesen'
p723
(dp724
S'PRON'
p725
F1.0
s(lp726
(g49
I6
tp727
atp728
a(S'prozess'
p729
(dp730
S'NOUN'
p731
F0.386636
sS'ADJ'
p732
F0.518863
s(lp733
tp734
a(S'aufgrund'
p735
(dp736
S'ADP'
p737
F1.0
s(lp738
(g69
I7
tp739
atp740
a(S'ihrer'
p741
(dp742
S'PRON'
p743
F1.0
s(lp744
(g83
I9
tp745
atp746
a(S'meinung'
p747
(dp748
S'ADJ'
p749
F0.009888
sS'NOUN'
p750
F0.982368
s(lp751
(g96
I10
tp752
atp753
a(S'zur'
p754
(dp755
S'ADP'
p756
F1.0
s(lp757
(g103
I11
tp758
atp759
a(S'kernkraft'
p760
(dp761
S'NOUN'
p762
F0.99037
s(lp763
(g125
I12
tp764
atp765
a(S'aufzuhalten'
p766
(dp767
S'VERB'
p768
F1.0
s(lp769
(g56
I5
tp770
atp771
a(g135
(dp772
g137
F1.0
s(lp773
tp774
a(S'halten'
p775
(dp776
S'VERB'
p777
F1.0
s(lp778
(g139
I14
tp779
atp780
a(S'tats\xc3\xa4chlich'
p781
(dp782
S'ADV'
p783
F0.502137
sS'ADJ'
p784
F0.497863
s(lp785
(g156
I16
tp786
atp787
a(S'die'
p788
(dp789
S'PRON'
p790
F0.000787
sS'DET'
p791
F0.999207
s(lp792
(g168
I18
tp793
atp794
a(S'europ\xc3\xa4ische'
p795
(dp796
S'ADJ'
p797
F1.0
s(lp798
(g183
I19
tp799
atp800
a(S'union'
p801
(dp802
S'ADJ'
p803
F0.013636
sS'NOUN'
p804
F0.981088
s(lp805
(g175
I20
tp806
atp807
a(S'davon'
p808
(dp809
S'ADV'
p810
F0.999584
sS'PRT'
p811
F0.000416
s(lp812
tp813
a(S'ab'
p814
(dp815
S'ADV'
p816
F0.00181
sS'PRT'
p817
F0.998189
s(lp818
(g190
I21
tp819
atp820
a(g135
(dp821
g137
F1.0
s(lp822
(g202
I22
tp823
atp824
a(S'einen'
p825
(dp826
S'ADJ'
p827
F0.00353
sS'DET'
p828
F0.995289
s(lp829
(g218
I23
tp830
atp831
a(S'gemeinschaftsrahmen'
p832
(dp833
S'ADJ'
p834
F0.000149
sS'NOUN'
p835
F0.999705
s(lp836
(g233
I24
tp837
atp838
a(S'einzurichten'
p839
(dp840
S'VERB'
p841
F1.0
s(lp842
tp843
a(g135
(dp844
g137
F1.0
s(lp845
tp846
a(S'der'
p847
(dp848
S'PRON'
p849
F0.885822
sS'DET'
p850
F0.108718
s(lp851
tp852
a(S'm\xc3\xb6glichst'
p853
(dp854
S'ADV'
p855
F0.979648
sS'ADJ'
p856
F0.020352
s(lp857
(g471
I27
tp858
atp859
a(S'sichere'
p860
(dp861
S'VERB'
p862
F0.815178
sS'ADJ'
p863
F0.184822
s(lp864
(g253
I28
tp865
atp866
a(S'und'
p867
(dp868
S'CONJ'
p869
F1.0
s(lp870
(g288
I29
tp871
atp872
a(S'zuverl\xc3\xa4ssige'
p873
(dp874
S'ADJ'
p875
F1.0
s(lp876
(g268
I30
tp877
atp878
a(S'regeln'
p879
(dp880
S'VERB'
p881
F1.0
s(lp882
(g261
I31
tp883
atp884
a(S'festlegt'
p885
(dp886
S'VERB'
p887
F1.0
s(lp888
(g245
I26
tp889
atp890
a(g137
(dp891
g137
F1.0
s(lp892
(g137
I34
tp893
atp894
asS'it'
p895
(lp896
(S'chi'
p897
(dp898
S'PRON'
p899
F1.0
s(lp900
(g21
I1
tp901
atp902
a(S'cerca'
p903
(dp904
S'VERB'
p905
F0.988871
sS'NOUN'
p906
F0.011129
s(lp907
(g28
I3
tp908
atp909
a(S'di'
p910
(dp911
S'CONJ'
p912
F2e-06
sS'ADP'
p913
F0.999998
s(lp914
(g37
I4
tp915
atp916
a(S'ostacolare'
p917
(dp918
S'VERB'
p919
F1.0
s(lp920
tp921
a(S'questo'
p922
(dp923
S'PRON'
p924
F1.0
s(lp925
(g49
I6
tp926
atp927
a(S'processo'
p928
(dp929
S'VERB'
p930
F0.003634
sS'NOUN'
p931
F0.996366
s(lp932
(g56
I5
tp933
atp934
a(S'poich\xc3\xa9'
p935
(dp936
S'CONJ'
p937
F1.0
s(lp938
(g69
I7
tp939
atp940
a(S'contrario'
p941
(dp942
S'NOUN'
p943
F0.150549
sS'VERB'
p944
F0.007304
sS'ADJ'
p945
F0.842147
s(lp946
(g96
I10
tp947
atp948
a(S"all'"
p949
(dp950
S'ADJ'
p951
F0.006852
sS'VERB'
p952
F0.001839
sS'NOUN'
p953
F0.991309
s(lp954
(g103
I11
tp955
atp956
a(S'energia'
p957
(dp958
S'NOUN'
p959
F1.0
s(lp960
(g117
I13
tp961
atp962
a(S'nucleare'
p963
(dp964
S'NOUN'
p965
F0.002998
sS'ADJ'
p966
F0.997002
s(lp967
(g125
I12
tp968
atp969
a(g135
(dp970
g137
F1.0
s(lp971
tp972
a(S'sta'
p973
(dp974
S'VERB'
p975
F1.0
s(lp976
(g139
I14
tp977
atp978
a(S'in'
p979
(dp980
S'ADP'
p981
F1.0
s(lp982
(g147
I15
tp983
atp984
a(S'realt\xc3\xa0'
p985
(dp986
S'NOUN'
p987
F1.0
s(lp988
(g156
I16
tp989
atp990
a(S'impedendo'
p991
(dp992
S'VERB'
p993
F1.0
s(lp994
(g132
I17
tp995
atp996
a(S"all'"
p997
(dp998
S'ADJ'
p999
F0.002437
sS'VERB'
p1000
F0.00051
sS'NOUN'
p1001
F0.997053
s(lp1002
(g168
I18
tp1003
atp1004
a(S'unione'
p1005
(dp1006
S'NOUN'
p1007
F1.0
s(lp1008
(g175
I20
tp1009
atp1010
a(S'europea'
p1011
(dp1012
S'NOUN'
p1013
F0.004343
sS'ADJ'
p1014
F0.995657
s(lp1015
(g183
I19
tp1016
atp1017
a(S'di'
p1018
(dp1019
S'CONJ'
p1020
F7e-06
sS'ADP'
p1021
F0.999993
s(lp1022
(g190
I21
tp1023
atp1024
a(S'avere'
p1025
(dp1026
S'VERB'
p1027
F0.999306
sS'NOUN'
p1028
F0.000694
s(lp1029
(g202
I22
tp1030
atp1031
a(S'un'
p1032
(dp1033
S'PRON'
p1034
F0.001839
sS'DEF'
p1035
F0.998161
s(lp1036
(g218
I23
tp1037
atp1038
a(S'quadro'
p1039
(dp1040
S'ADJ'
p1041
F0.040248
sS'VERB'
p1042
F3e-06
sS'NOUN'
p1043
F0.95975
s(lp1044
(g226
I25
tp1045
atp1046
a(S'comunitario'
p1047
(dp1048
S'NOUN'
p1049
F0.022863
sS'ADJ'
p1050
F0.977137
s(lp1051
(g233
I24
tp1052
atp1053
a(S'che'
p1054
(dp1055
S'PRON'
p1056
F0.984752
sS'CONJ'
p1057
F0.014971
sS'ADJ'
p1058
F0.000277
s(lp1059
(g288
I29
tp1060
atp1061
a(S'stabilisca'
p1062
(dp1063
S'VERB'
p1064
F1.0
s(lp1065
(g245
I26
tp1066
atp1067
a(S'regole'
p1068
(dp1069
S'NOUN'
p1070
F1.0
s(lp1071
(g261
I31
tp1072
atp1073
a(S'il'
p1074
(dp1075
S'DET'
p1076
F1.0
s(lp1077
(g503
I32
tp1078
atp1079
a(S'pi\xc3\xb9'
p1080
(dp1081
S'ADV'
p1082
F0.965665
sS'NOUN'
p1083
F0.006405
sS'ADJ'
p1084
F0.027928
sS'ADP'
p1085
F1e-06
s(lp1086
(g471
I27
tp1087
atp1088
a(S'possibile'
p1089
(dp1090
S'NOUN'
p1091
F0.00742
sS'ADJ'
p1092
F0.99258
s(lp1093
(g510
I33
tp1094
atp1095
a(S'sicure'
p1096
(dp1097
S'NOUN'
p1098
F0.460543
sS'ADJ'
p1099
F0.539457
s(lp1100
(g253
I28
tp1101
atp1102
a(g137
(dp1103
g137
F1.0
s(lp1104
(g137
I34
tp1105
atp1106
asS'sk'
p1107
(lp1108
(S't\xc3\xad'
p1109
(dp1110
S'PRON'
p1111
F1.0
s(lp1112
(g14
I0
tp1113
atp1114
a(g135
(dp1115
g137
F1.0
s(lp1116
tp1117
a(S'ktor\xc3\xad'
p1118
(dp1119
S'PRON'
p1120
F1.0
s(lp1121
(g21
I1
tp1122
atp1123
a(S'sa'
p1124
(dp1125
S'PRT'
p1126
F0.999958
sS'ADP'
p1127
F0.0
sg668
F4.2000000000000004e-05
s(lp1128
tp1129
a(S'sna\xc5\xbeia'
p1130
(dp1131
S'VERB'
p1132
F1.0
s(lp1133
(g28
I3
tp1134
atp1135
a(S'tomuto'
p1136
(dp1137
S'PRON'
p1138
F1.0
s(lp1139
(g49
I6
tp1140
atp1141
a(S'\xc3\xbasiliu'
p1142
(dp1143
S'NOUN'
p1144
F1.0
s(lp1145
tp1146
a(S'zabr\xc3\xa1ni\xc5\xa5'
p1147
(dp1148
S'VERB'
p1149
F1.0
s(lp1150
(g56
I5
tp1151
atp1152
a(S'pre'
p1153
(dp1154
g668
F2.9e-05
sS'ADP'
p1155
F0.999971
s(lp1156
(g69
I7
tp1157
atp1158
a(S'svoj'
p1159
(dp1160
S'PRON'
p1161
F1.0
s(lp1162
(g83
I9
tp1163
atp1164
a(S'postoj'
p1165
(dp1166
S'VERB'
p1167
F0.000261
sS'NOUN'
p1168
F0.999739
s(lp1169
(g96
I10
tp1170
atp1171
a(S'k'
p1172
(dp1173
g668
F0.000185
sS'NOUN'
p1174
F1.4000000000000001e-05
sS'ADP'
p1175
F0.999802
s(lp1176
(g103
I11
tp1177
atp1178
a(S'jadrovej'
p1179
(dp1180
S'ADJ'
p1181
F1.0
s(lp1182
(g125
I12
tp1183
atp1184
a(S'energii'
p1185
(dp1186
S'NOUN'
p1187
F1.0
s(lp1188
(g117
I13
tp1189
atp1190
a(g135
(dp1191
g137
F1.0
s(lp1192
(g139
I14
tp1193
atp1194
a(S'v'
p1195
(dp1196
g668
F0.000753
sS'ADP'
p1197
F0.999247
s(lp1198
(g147
I15
tp1199
atp1200
a(S'podstate'
p1201
(dp1202
S'NOUN'
p1203
F1.0
s(lp1204
(g156
I16
tp1205
atp1206
a(S'br\xc3\xa1nia'
p1207
(dp1208
S'VERB'
p1209
F1.0
s(lp1210
(g132
I17
tp1211
atp1212
a(S'eur\xc3\xb3pskej'
p1213
(dp1214
S'ADJ'
p1215
F1.0
s(lp1216
(g183
I19
tp1217
atp1218
a(S'\xc3\xbanii'
p1219
(dp1220
S'NOUN'
p1221
F1.0
s(lp1222
(g175
I20
tp1223
atp1224
a(S'vytvori\xc5\xa5'
p1225
(dp1226
S'VERB'
p1227
F1.0
s(lp1228
(g218
I23
tp1229
atp1230
a(S'r\xc3\xa1mec'
p1231
(dp1232
S'NOUN'
p1233
F1.0
s(lp1234
(g226
I25
tp1235
atp1236
a(S'spolo\xc4\x8denstva'
p1237
(dp1238
S'NOUN'
p1239
F1.0
s(lp1240
(g233
I24
tp1241
atp1242
a(g135
(dp1243
g137
F1.0
s(lp1244
tp1245
a(S'ktor\xc3\xbdm'
p1246
(dp1247
S'PRON'
p1248
F1.0
s(lp1249
tp1250
a(S'sa'
p1251
(dp1252
S'PRT'
p1253
F0.99996
sS'ADP'
p1254
F0.0
sg668
F4e-05
s(lp1255
tp1256
a(S'vytvoria'
p1257
(dp1258
S'VERB'
p1259
F1.0
s(lp1260
(g245
I26
tp1261
atp1262
a(S'najbezpe\xc4\x8dnej\xc5\xa1ie'
p1263
(dp1264
S'ADV'
p1265
F0.001462
sS'ADJ'
p1266
F0.9985379999999999
s(lp1267
(g253
I28
tp1268
atp1269
a(S'mo\xc5\xben\xc3\xa9'
p1270
(dp1271
S'ADJ'
p1272
F1.0
s(lp1273
(g510
I33
tp1274
atp1275
a(S'pravidl\xc3\xa1'
p1276
(dp1277
S'NOUN'
p1278
F1.0
s(lp1279
(g261
I31
tp1280
atp1281
a(g137
(dp1282
g137
F1.0
s(lp1283
(g137
I34
tp1284
atp1285
asS'pl'
p1286
(lp1287
(S'ci'
p1288
(dp1289
S'PRT'
p1290
F0.001935
sS'ADJ'
p1291
F0.996846
sS'PRON'
p1292
F0.001219
s(lp1293
(g14
I0
tp1294
atp1295
a(g135
(dp1296
g668
F0.0
sg137
F1.0
s(lp1297
tp1298
a(S'kt\xc3\xb3rzy'
p1299
(dp1300
S'ADJ'
p1301
F1.0
s(lp1302
(g21
I1
tp1303
atp1304
a(S'pr\xc3\xb3buj\xc4\x85'
p1305
(dp1306
S'VERB'
p1307
F1.0
s(lp1308
(g28
I3
tp1309
atp1310
a(S'op\xc3\xb3\xc5\xbani\xc4\x87'
p1311
(dp1312
S'VERB'
p1313
F1.0
s(lp1314
tp1315
a(S'ten'
p1316
(dp1317
g668
F0.000339
sS'ADJ'
p1318
F0.999594
sS'PRT'
p1319
F6.7e-05
s(lp1320
(g49
I6
tp1321
atp1322
a(S'proces'
p1323
(dp1324
S'NOUN'
p1325
F1.0
s(lp1326
(g56
I5
tp1327
atp1328
a(S'ze'
p1329
(dp1330
S'PRT'
p1331
F1e-05
sS'CONJ'
p1332
F0.0
sS'ADP'
p1333
F0.999989
s(lp1334
tp1335
a(S'wzgl\xc4\x99du'
p1336
(dp1337
S'NOUN'
p1338
F1.0
s(lp1339
(g69
I7
tp1340
atp1341
a(S'na'
p1342
(dp1343
g668
F4e-06
sS'VERB'
p1344
F2.8e-05
sS'NOUN'
p1345
F0.0
sS'ADP'
p1346
F0.9999640000000001
sS'PRT'
p1347
F4e-06
s(lp1348
(g76
I8
tp1349
atp1350
a(S'sw\xc3\xb3j'
p1351
(dp1352
S'ADJ'
p1353
F1.0
s(lp1354
(g83
I9
tp1355
atp1356
a(S'stosunek'
p1357
(dp1358
S'NOUN'
p1359
F1.0
s(lp1360
(g96
I10
tp1361
atp1362
a(S'do'
p1363
(dp1364
g668
F0.0
sS'NOUN'
p1365
F1e-06
sS'ADP'
p1366
F0.999999
s(lp1367
(g103
I11
tp1368
atp1369
a(S'energii'
p1370
(dp1371
S'NOUN'
p1372
F1.0
s(lp1373
(g117
I13
tp1374
atp1375
a(S'j\xc4\x85drowej'
p1376
(dp1377
S'ADJ'
p1378
F1.0
s(lp1379
(g125
I12
tp1380
atp1381
a(g135
(dp1382
g668
F0.0
sg137
F1.0
s(lp1383
(g139
I14
tp1384
atp1385
a(S'w'
p1386
(dp1387
S'NOUN'
p1388
F2.3e-05
sS'ADJ'
p1389
F6.8e-05
sS'ADP'
p1390
F0.999904
sg668
F4.9999999999999996e-06
s(lp1391
(g147
I15
tp1392
atp1393
a(S'rzeczywisto\xc5\x9bci'
p1394
(dp1395
S'NOUN'
p1396
F0.9999999999999999
s(lp1397
(g156
I16
tp1398
atp1399
a(S'uniemo\xc5\xbcliwiaj\xc4\x85'
p1400
(dp1401
S'ADJ'
p1402
F0.111561
sS'VERB'
p1403
F0.5523
sS'NOUN'
p1404
F0.336139
s(lp1405
(g132
I17
tp1406
atp1407
a(S'unii'
p1408
(dp1409
S'NOUN'
p1410
F1.0
s(lp1411
(g175
I20
tp1412
atp1413
a(S'europejskiej'
p1414
(dp1415
S'ADJ'
p1416
F1.0
s(lp1417
(g183
I19
tp1418
atp1419
a(S'ustanowienie'
p1420
(dp1421
S'VERB'
p1422
F1.0
s(lp1423
(g202
I22
tp1424
atp1425
a(S'wsp\xc3\xb3lnotowych'
p1426
(dp1427
S'ADV'
p1428
F0.0
sS'NOUN'
p1429
F0.0006740000000000001
sS'VERB'
p1430
F0.00011899999999999999
sS'ADJ'
p1431
F0.9992030000000001
s(lp1432
(g233
I24
tp1433
atp1434
a(S'ram'
p1435
(dp1436
S'NOUN'
p1437
F1.0
s(lp1438
(g226
I25
tp1439
atp1440
a(S'pozwalaj\xc4\x85cych'
p1441
(dp1442
S'VERB'
p1443
F1.0
s(lp1444
tp1445
a(S'na'
p1446
(dp1447
S'PRT'
p1448
F2e-05
sS'VERB'
p1449
F1.1e-05
sS'NOUN'
p1450
F4e-06
sS'ADP'
p1451
F0.999964
sg668
F1e-06
s(lp1452
tp1453
a(S'stworzenie'
p1454
(dp1455
S'VERB'
p1456
F0.299245
sS'NOUN'
p1457
F0.700754
s(lp1458
(g245
I26
tp1459
atp1460
a(S'jak'
p1461
(dp1462
S'ADV'
p1463
F0.824746
sS'PRT'
p1464
F0.000658
sS'CONJ'
p1465
F0.165544
sS'ADP'
p1466
F0.008945
sS'PRON'
p1467
F0.000107
s(lp1468
(g471
I27
tp1469
atp1470
a(S'najbezpieczniejszych'
p1471
(dp1472
S'ADV'
p1473
F0.0023
sS'ADJ'
p1474
F0.9977
s(lp1475
(g253
I28
tp1476
atp1477
a(S'przepis\xc3\xb3w'
p1478
(dp1479
S'NOUN'
p1480
F1.0
s(lp1481
(g261
I31
tp1482
atp1483
a(g137
(dp1484
g137
F1.0
s(lp1485
(g137
I34
tp1486
atp1487
asS'sl'
p1488
(lp1489
(S'tisti'
p1490
(dp1491
S'PRON'
p1492
F1.000001
s(lp1493
(g14
I0
tp1494
atp1495
a(g135
(dp1496
g137
F1.0
s(lp1497
tp1498
a(S'ki'
p1499
(dp1500
S'CONJ'
p1501
F1.0
s(lp1502
(g21
I1
tp1503
atp1504
a(S'jih'
p1505
(dp1506
S'PRON'
p1507
F0.999999
s(lp1508
(g327
I2
tp1509
atp1510
a(S'\xc5\xbeelijo'
p1511
(dp1512
S'VERB'
p1513
F1.0
s(lp1514
(g28
I3
tp1515
atp1516
a(S'prepre\xc4\x8diti'
p1517
(dp1518
S'VERB'
p1519
F1.0
s(lp1520
(g56
I5
tp1521
atp1522
a(S'zaradi'
p1523
(dp1524
S'ADP'
p1525
F1.0
s(lp1526
(g69
I7
tp1527
atp1528
a(S'svojega'
p1529
(dp1530
S'PRON'
p1531
F1.0000010000000001
s(lp1532
(g83
I9
tp1533
atp1534
a(S'odnosa'
p1535
(dp1536
S'NOUN'
p1537
F1.0
s(lp1538
(g96
I10
tp1539
atp1540
a(S'do'
p1541
(dp1542
g668
F5e-06
sS'ADP'
p1543
F0.999995
s(lp1544
(g103
I11
tp1545
atp1546
a(S'jedrske'
p1547
(dp1548
S'ADJ'
p1549
F1.0
s(lp1550
(g125
I12
tp1551
atp1552
a(S'energije'
p1553
(dp1554
S'NOUN'
p1555
F1.0
s(lp1556
(g117
I13
tp1557
atp1558
a(g135
(dp1559
g137
F1.0
s(lp1560
(g139
I14
tp1561
atp1562
a(g1195
(dp1563
S'ADP'
p1564
F1.0
s(lp1565
(g147
I15
tp1566
atp1567
a(S'resnici'
p1568
(dp1569
S'NOUN'
p1570
F1.0
s(lp1571
(g156
I16
tp1572
atp1573
a(S'prepre\xc4\x8dujejo'
p1574
(dp1575
S'VERB'
p1576
F1.0
s(lp1577
(g132
I17
tp1578
atp1579
a(g135
(dp1580
g137
F1.0
s(lp1581
tp1582
a(S'da'
p1583
(dp1584
S'PRT'
p1585
F0.000137
sS'CONJ'
p1586
F0.999855
sS'VERB'
p1587
F8e-06
sg668
F0.0
s(lp1588
(g132
I17
tp1589
atp1590
a(S'bi'
p1591
(dp1592
g668
F1.6e-05
sS'VERB'
p1593
F0.999984
s(lp1594
(g168
I18
tp1595
atp1596
a(S'evropska'
p1597
(dp1598
S'ADJ'
p1599
F1.000001
s(lp1600
(g183
I19
tp1601
atp1602
a(S'unija'
p1603
(dp1604
S'NOUN'
p1605
F1.0
s(lp1606
(g175
I20
tp1607
atp1608
a(S'imela'
p1609
(dp1610
S'VERB'
p1611
F1.0
s(lp1612
(g202
I22
tp1613
atp1614
a(S'okvir'
p1615
(dp1616
S'NOUN'
p1617
F1.0
s(lp1618
(g226
I25
tp1619
atp1620
a(S'skupnosti'
p1621
(dp1622
S'NOUN'
p1623
F0.9999990000000001
s(lp1624
(g233
I24
tp1625
atp1626
a(g135
(dp1627
g137
F1.0
s(lp1628
tp1629
a(S'ki'
p1630
(dp1631
S'CONJ'
p1632
F1.0
s(lp1633
tp1634
a(S'bi'
p1635
(dp1636
g668
F3e-06
sS'VERB'
p1637
F0.999997
s(lp1638
(g132
I17
tp1639
atp1640
a(S'vzpostavljal'
p1641
(dp1642
S'ADV'
p1643
F0.001681
sS'ADJ'
p1644
F6.2e-05
sS'VERB'
p1645
F0.991955
sS'NOUN'
p1646
F0.006294
sg668
F1e-05
s(lp1647
(g245
I26
tp1648
atp1649
a(S'\xc4\x8dim'
p1650
(dp1651
S'ADV'
p1652
F0.993516
sS'PRON'
p1653
F0.006484
s(lp1654
(g471
I27
tp1655
atp1656
a(S'varnej\xc5\xa1a'
p1657
(dp1658
S'ADV'
p1659
F0.002084
sS'NOUN'
p1660
F0.082277
sS'VERB'
p1661
F0.5433590000000001
sS'ADJ'
p1662
F0.37228400000000017
s(lp1663
(g253
I28
tp1664
atp1665
a(S'in'
p1666
(dp1667
S'ADV'
p1668
F0.001208
sg668
F2.6e-05
sS'CONJ'
p1669
F0.998446
sS'NOUN'
p1670
F0.00032
s(lp1671
(g288
I29
tp1672
atp1673
a(S'zanesljivej\xc5\xa1a'
p1674
(dp1675
S'ADV'
p1676
F0.000694
sS'NOUN'
p1677
F0.08199300000000001
sS'VERB'
p1678
F0.7347859999999998
sS'ADJ'
p1679
F0.18252500000000002
s(lp1680
(g268
I30
tp1681
atp1682
a(S'pravila'
p1683
(dp1684
S'NOUN'
p1685
F1.0
s(lp1686
(g261
I31
tp1687
atp1688
a(g137
(dp1689
g137
F1.0
s(lp1690
(g137
I34
tp1691
atp1692
asS'es'
p1693
(lp1694
(S'aquellos'
p1695
(dp1696
S'PRON'
p1697
F1.0
s(lp1698
(g14
I0
tp1699
atp1700
a(S'que'
p1701
(dp1702
g668
F0.0
sS'CONJ'
p1703
F1.0
s(lp1704
(g21
I1
tp1705
atp1706
a(S'intentan'
p1707
(dp1708
S'VERB'
p1709
F1.0
s(lp1710
(g28
I3
tp1711
atp1712
a(S'ponerle'
p1713
(dp1714
S'VERB'
p1715
F1.0
s(lp1716
tp1717
a(S'trabas'
p1718
(dp1719
S'VERB'
p1720
F1.0
s(lp1721
(g56
I5
tp1722
atp1723
a(S'debido'
p1724
(dp1725
S'ADP'
p1726
F1.0
s(lp1727
(g69
I7
tp1728
atp1729
a(g218
(dp1730
S'ADP'
p1731
F1.0
s(lp1732
(g76
I8
tp1733
atp1734
a(S'su'
p1735
(dp1736
S'PRON'
p1737
F1.0
s(lp1738
(g83
I9
tp1739
atp1740
a(S'actitud'
p1741
(dp1742
S'NOUN'
p1743
F1.0
s(lp1744
(g96
I10
tp1745
atp1746
a(S'con'
p1747
(dp1748
S'ADP'
p1749
F1.0
s(lp1750
tp1751
a(S'respecto'
p1752
(dp1753
S'ADP'
p1754
F1.0
s(lp1755
(g96
I10
tp1756
atp1757
a(g218
(dp1758
S'ADP'
p1759
F1.0
s(lp1760
(g103
I11
tp1761
atp1762
a(S'la'
p1763
(dp1764
S'NOUN'
p1765
F0.0
sS'PRON'
p1766
F0.0
sS'DET'
p1767
F0.999999
sg668
F0.0
s(lp1768
tp1769
a(S'energ\xc3\xada'
p1770
(dp1771
S'NOUN'
p1772
F1.0
s(lp1773
(g117
I13
tp1774
atp1775
a(S'nuclear'
p1776
(dp1777
S'VERB'
p1778
F3e-05
sS'ADJ'
p1779
F0.99997
s(lp1780
(g125
I12
tp1781
atp1782
a(S'est\xc3\xa1n'
p1783
(dp1784
S'VERB'
p1785
F1.0
s(lp1786
(g139
I14
tp1787
atp1788
a(S'en'
p1789
(dp1790
S'ADV'
p1791
F1.0
s(lp1792
(g147
I15
tp1793
atp1794
a(S'realidad'
p1795
(dp1796
S'ADV'
p1797
F1.0
s(lp1798
(g156
I16
tp1799
atp1800
a(S'evitando'
p1801
(dp1802
S'VERB'
p1803
F1.0
s(lp1804
tp1805
a(S'que'
p1806
(dp1807
g668
F0.0
sS'CONJ'
p1808
F1.0
s(lp1809
(g132
I17
tp1810
atp1811
a(S'la'
p1812
(dp1813
S'PRON'
p1814
F0.00027
sS'DET'
p1815
F0.99973
sg668
F0.0
sS'NOUN'
p1816
F0.0
s(lp1817
(g168
I18
tp1818
atp1819
a(S'uni\xc3\xb3n'
p1820
(dp1821
S'NOUN'
p1822
F1.0
s(lp1823
(g175
I20
tp1824
atp1825
a(S'europea'
p1826
(dp1827
S'ADJ'
p1828
F1.0
s(lp1829
(g183
I19
tp1830
atp1831
a(S'tenga'
p1832
(dp1833
S'VERB'
p1834
F1.0
s(lp1835
(g202
I22
tp1836
atp1837
a(S'un'
p1838
(dp1839
g668
F1e-06
sS'DET'
p1840
F0.999999
s(lp1841
(g218
I23
tp1842
atp1843
a(S'marco'
p1844
(dp1845
S'NOUN'
p1846
F1.0
s(lp1847
(g226
I25
tp1848
atp1849
a(S'comunitario'
p1850
(dp1851
S'ADJ'
p1852
F1.0
s(lp1853
(g233
I24
tp1854
atp1855
a(S'que'
p1856
(dp1857
g668
F1e-06
sS'CONJ'
p1858
F0.999999
s(lp1859
tp1860
a(S'establezca'
p1861
(dp1862
S'VERB'
p1863
F1.0
s(lp1864
(g245
I26
tp1865
atp1866
a(S'unas'
p1867
(dp1868
S'DET'
p1869
F1.0
s(lp1870
(g268
I30
tp1871
atp1872
a(S'normas'
p1873
(dp1874
S'NOUN'
p1875
F1.0
s(lp1876
(g261
I31
tp1877
atp1878
a(S'lo'
p1879
(dp1880
S'PRON'
p1881
F0.033857
sS'DET'
p1882
F0.966143
s(lp1883
(g503
I32
tp1884
atp1885
a(S'm\xc3\xa1s'
p1886
(dp1887
S'ADV'
p1888
F0.999949
sS'CONJ'
p1889
F5.1e-05
s(lp1890
(g471
I27
tp1891
atp1892
a(S'seguras'
p1893
(dp1894
S'ADJ'
p1895
F1.0
s(lp1896
(g253
I28
tp1897
atp1898
a(S'posibles'
p1899
(dp1900
S'ADJ'
p1901
F1.0
s(lp1902
(g510
I33
tp1903
atp1904
a(g137
(dp1905
g137
F1.0
s(lp1906
(g137
I34
tp1907
atp1908
as.