(dp0
S'fr'
p1
(lp2
(S'apr\xc3\xa8s'
p3
(dp4
S'ADV'
p5
F0.187633
sS'CONJ'
p6
F0.235166
sS'ADP'
p7
F0.577202
s(lp8
(S'after'
p9
I0
tp10
atp11
a(S'tout'
p12
(dp13
S'ADV'
p14
F0.757215
sS'PRON'
p15
F0.15772
sS'NOUN'
p16
F0.085065
s(lp17
(S'all'
p18
I1
tp19
atp20
a(S','
p21
(dp22
S'.'
p23
F1.0
s(lp24
(g21
I2
tp25
atp26
a(S'ce'
p27
(dp28
S'PRON'
p29
F1.0
s(lp30
(S'these'
p31
I3
tp32
atp33
a(S'sont'
p34
(dp35
S'VERB'
p36
F1.0
s(lp37
(S'are'
p38
I4
tp39
atp40
a(S'des'
p41
(dp42
S'DET'
p43
F0.000244
sS'ADP'
p44
F0.999756
s(lp45
tp46
a(S'march\xc3\xa9s'
p47
(dp48
S'VERB'
p49
F0.002013
sS'NOUN'
p50
F0.997987
s(lp51
(S'markets'
p52
I6
tp53
atp54
a(S'instables'
p55
(dp56
S'ADJ'
p57
F1.0
s(lp58
(S'unstable'
p59
I5
tp60
atp61
a(S'et'
p62
(dp63
S'CONJ'
p64
F1.0
s(lp65
(S'and'
p66
I8
tp67
atp68
a(S'les'
p69
(dp70
S'PRON'
p71
F0.000497
sS'DET'
p72
F0.99949
sS'ADP'
p73
F1.3e-05
s(lp74
(S'the'
p75
I9
tp76
atp77
a(S'projets'
p78
(dp79
S'NOUN'
p80
F1.0
s(lp81
(S'projects'
p82
I10
tp83
atp84
a(S"d'"
p85
(dp86
S'NOUN'
p87
F0.032441
sS'VERB'
p88
F0.694014
sS'ADJ'
p89
F0.273544
s(lp90
(S'to'
p91
I15
tp92
atp93
a(S'investissement'
p94
(dp95
S'NOUN'
p96
F1.0
s(lp97
(S'investing'
p98
I16
tp99
atp100
a(S'relatifs'
p101
(dp102
S'NOUN'
p103
F0.017216
sS'ADJ'
p104
F0.982784
s(lp105
(S'climate-change'
p106
I18
tp107
atp108
a(S'\xc3\xa0'
p109
(dp110
S'ADP'
p111
F1.0
s(lp112
(S'in'
p113
I17
tp114
atp115
a(S"l'"
p116
(dp117
S'ADJ'
p118
F0.160704
sS'VERB'
p119
F0.06480800000000002
sS'NOUN'
p120
F0.774488
s(lp121
tp122
a(S'adaptation'
p123
(dp124
S'NOUN'
p125
F1.0
s(lp126
(S'adaptation'
p127
I19
tp128
atp129
a(S'au'
p130
(dp131
S'ADP'
p132
F1.0
s(lp133
(g106
I18
tp134
atp135
a(S'changement'
p136
(dp137
S'NOUN'
p138
F1.0
s(lp139
tp140
a(S'climatique'
p141
(dp142
S'ADJ'
p143
F1.0
s(lp144
(g106
I18
tp145
atp146
a(S'sont'
p147
(dp148
S'VERB'
p149
F1.0
s(lp150
(S'are'
p151
I20
tp152
atp153
a(S'de'
p154
(dp155
S'ADP'
p156
F1.0
s(lp157
(S'in'
p158
I22
tp159
atp160
a(S'port\xc3\xa9e'
p161
(dp162
S'ADJ'
p163
F0.074569
sS'VERB'
p164
F0.000259
sS'NOUN'
p165
F0.925172
s(lp166
(S'size'
p167
I23
tp168
atp169
a(S'r\xc3\xa9duite'
p170
(dp171
S'VERB'
p172
F0.512807
sS'ADJ'
p173
F0.487193
s(lp174
(S'small'
p175
I21
tp176
atp177
a(g23
(dp178
g23
F1.0
s(lp179
(g23
I24
tp180
atp181
asS'en'
p182
(lp183
(g9
(dp184
S'ADV'
p185
F0.025255
sS'ADP'
p186
F0.974745
s(lp187
(g9
I0
tp188
atp189
a(g18
(dp190
S'ADV'
p191
F0.294585
sS'DET'
p192
F0.705415
s(lp193
(g18
I1
tp194
atp195
a(g21
(dp196
g23
F1.0
s(lp197
(g21
I2
tp198
atp199
a(g31
(dp200
S'NOUN'
p201
F0.001308
sS'DET'
p202
F0.998692
s(lp203
(g31
I3
tp204
atp205
a(g38
(dp206
S'VERB'
p207
F0.999407
sS'NOUN'
p208
F0.000593
s(lp209
(g38
I4
tp210
atp211
a(g59
(dp212
S'ADJ'
p213
F1.0
s(lp214
(g59
I5
tp215
atp216
a(g52
(dp217
S'VERB'
p218
F2.2e-05
sS'NOUN'
p219
F0.999978
s(lp220
(g52
I6
tp221
atp222
a(g21
(dp223
g23
F1.0
s(lp224
(g21
I7
tp225
atp226
a(g66
(dp227
S'CONJ'
p228
F1.0
sS'NOUN'
p229
F0.0
s(lp230
(g66
I8
tp231
atp232
a(g75
(dp233
S'NOUN'
p234
F1.3e-05
sS'DET'
p235
F0.999987
s(lp236
(g75
I9
tp237
atp238
a(g82
(dp239
S'VERB'
p240
F0.002085
sS'NOUN'
p241
F0.997915
s(lp242
(g82
I10
tp243
atp244
a(S'involved'
p245
(dp246
S'VERB'
p247
F0.9940939999999999
sS'ADJ'
p248
F0.005906
s(lp249
(g245
I11
tp250
atp251
a(S'when'
p252
(dp253
S'ADV'
p254
F0.99999
sS'ADP'
p255
F1.1e-05
s(lp256
(g252
I12
tp257
atp258
a(S'it'
p259
(dp260
S'PRON'
p261
F1.0
s(lp262
(g259
I13
tp263
atp264
a(S'comes'
p265
(dp266
S'VERB'
p267
F1.0
s(lp268
(g265
I14
tp269
atp270
a(g91
(dp271
S'ADV'
p272
F4e-06
sS'PRT'
p273
F0.999994
sS'ADP'
p274
F2e-06
s(lp275
(g91
I15
tp276
atp277
a(g98
(dp278
S'ADJ'
p279
F0.010269
sS'VERB'
p280
F0.765521
sS'NOUN'
p281
F0.22421
s(lp282
(g98
I16
tp283
atp284
a(g113
(dp285
S'ADV'
p286
F0.001303
sS'PRT'
p287
F0.008483
sS'ADP'
p288
F0.990215
s(lp289
(g113
I17
tp290
atp291
a(g106
(dp292
S'ADJ'
p293
F0.370125
sS'VERB'
p294
F0.000111
sS'NOUN'
p295
F0.629764
s(lp296
(g106
I18
tp297
atp298
a(g127
(dp299
S'NOUN'
p300
F1.0
s(lp301
(g127
I19
tp302
atp303
a(g151
(dp304
S'VERB'
p305
F0.999966
sS'NOUN'
p306
F3.4e-05
s(lp307
(g151
I20
tp308
atp309
a(g175
(dp310
S'ADV'
p311
F0.004021
sS'NOUN'
p312
F9.5e-05
sS'ADJ'
p313
F0.995885
s(lp314
(g175
I21
tp315
atp316
a(g158
(dp317
S'ADV'
p318
F0.000127
sS'PRT'
p319
F0.000147
sS'ADP'
p320
F0.999726
s(lp321
(g158
I22
tp322
atp323
a(g167
(dp324
S'VERB'
p325
F5.7e-05
sS'NOUN'
p326
F0.999943
s(lp327
(g167
I23
tp328
atp329
a(g23
(dp330
g23
F1.0
s(lp331
(g23
I24
tp332
atp333
asS'nl'
p334
(lp335
(S'dat'
p336
(dp337
S'PRON'
p338
F0.8697349999999999
sS'CONJ'
p339
F0.130265
s(lp340
(g31
I3
tp341
atp342
a(S'zijn'
p343
(dp344
S'PRON'
p345
F0.000237
sS'VERB'
p346
F0.997723
sS'NOUN'
p347
F0.00204
s(lp348
(g38
I4
tp349
atp350
a(S'namelijk'
p351
(dp352
S'ADV'
p353
F1.0
s(lp354
(g9
I0
tp355
atp356
a(S'instabiele'
p357
(dp358
S'NOUN'
p359
F1e-05
sS'ADJ'
p360
F0.99999
s(lp361
(g59
I5
tp362
atp363
a(S'markten'
p364
(dp365
S'NOUN'
p366
F1.0
s(lp367
(g52
I6
tp368
atp369
a(S'en'
p370
(dp371
S'CONJ'
p372
F1.0
s(lp373
(g66
I8
tp374
atp375
a(S'de'
p376
(dp377
S'DET'
p378
F1.0
s(lp379
(g75
I9
tp380
atp381
a(S'besteding'
p382
(dp383
S'NOUN'
p384
F1.0
s(lp385
tp386
a(S'aan'
p387
(dp388
S'ADV'
p389
F0.004167
sS'ADP'
p390
F0.995833
s(lp391
(g113
I17
tp392
atp393
a(S'klimaatadaptatie'
p394
(dp395
S'NOUN'
p396
F1.0
s(lp397
(g106
I18
tp398
atp399
a(S'gaat'
p400
(dp401
S'VERB'
p402
F1.0
s(lp403
(g265
I14
tp404
atp405
a(S'om'
p406
(dp407
S'ADV'
p408
F0.058252
sS'CONJ'
p409
F0.761762
sS'ADP'
p410
F0.179986
s(lp411
(g98
I16
tp412
atp413
a(S'kleine'
p414
(dp415
S'NOUN'
p416
F7e-06
sS'ADJ'
p417
F0.999993
s(lp418
(g175
I21
tp419
atp420
a(S'projecten'
p421
(dp422
S'NOUN'
p423
F1.0
s(lp424
(g82
I10
tp425
atp426
a(g23
(dp427
g23
F1.0
s(lp428
(g23
I24
tp429
atp430
asS'de'
p431
(lp432
(S'schlie\xc3\x9flich'
p433
(dp434
S'ADV'
p435
F1.0
s(lp436
(g9
I0
tp437
atp438
a(S'handelt'
p439
(dp440
S'VERB'
p441
F1.0
s(lp442
(g38
I4
tp443
atp444
a(S'es'
p445
(dp446
S'PRON'
p447
F1.0
s(lp448
(g31
I3
tp449
atp450
a(S'sich'
p451
(dp452
S'PRON'
p453
F1.0
s(lp454
tp455
a(S'um'
p456
(dp457
S'CONJ'
p458
F0.000677
sS'ADP'
p459
F0.998925
s(lp460
tp461
a(S'instabile'
p462
(dp463
S'ADJ'
p464
F1.0
s(lp465
(g59
I5
tp466
atp467
a(S'm\xc3\xa4rkte'
p468
(dp469
S'ADJ'
p470
F0.444277
sS'NOUN'
p471
F0.555145
s(lp472
(g52
I6
tp473
atp474
a(g21
(dp475
g23
F1.0
s(lp476
(g21
I7
tp477
atp478
a(S'und'
p479
(dp480
S'CONJ'
p481
F1.0
s(lp482
(g66
I8
tp483
atp484
a(S'die'
p485
(dp486
S'PRON'
p487
F0.003136
sS'DET'
p488
F0.993808
s(lp489
(g75
I9
tp490
atp491
a(S'projekte'
p492
(dp493
S'ADJ'
p494
F0.001285
sS'NOUN'
p495
F0.998109
s(lp496
(g82
I10
tp497
atp498
a(g21
(dp499
g23
F1.0
s(lp500
(g21
I2
tp501
atp502
a(S'um'
p503
(dp504
S'CONJ'
p505
F0.980916
sS'ADP'
p506
F0.018946
s(lp507
(g245
I11
tp508
atp509
a(S'die'
p510
(dp511
S'PRON'
p512
F0.959673
sS'DET'
p513
F0.032873
s(lp514
(g252
I12
tp515
atp516
a(S'es'
p517
(dp518
S'PRON'
p519
F1.0
s(lp520
(g259
I13
tp521
atp522
a(S'bei'
p523
(dp524
S'PRT'
p525
F0.000812
sS'ADP'
p526
F0.999188
s(lp527
(g113
I17
tp528
atp529
a(S'den'
p530
(dp531
S'PRON'
p532
F2.6e-05
sS'DET'
p533
F0.999973
s(lp534
(g91
I15
tp535
atp536
a(S'investitionen'
p537
(dp538
S'ADJ'
p539
F0.000133
sS'NOUN'
p540
F0.999757
s(lp541
tp542
a(S'in'
p543
(dp544
S'ADP'
p545
F1.0
s(lp546
(g158
I22
tp547
atp548
a(S'die'
p549
(dp550
S'PRON'
p551
F5.1e-05
sS'DET'
p552
F0.999934
s(lp553
(g98
I16
tp554
atp555
a(S'anpassung'
p556
(dp557
S'ADJ'
p558
F0.000131
sS'NOUN'
p559
F0.999759
s(lp560
tp561
a(S'an'
p562
(dp563
S'ADP'
p564
F0.9963989999999999
s(lp565
(g127
I19
tp566
atp567
a(S'den'
p568
(dp569
S'PRON'
p570
F7.2e-05
sS'DET'
p571
F0.999921
s(lp572
(g175
I21
tp573
atp574
a(S'klimawandel'
p575
(dp576
S'ADJ'
p577
F0.022292
sS'NOUN'
p578
F0.964253
s(lp579
(g106
I18
tp580
atp581
a(S'geht'
p582
(dp583
S'VERB'
p584
F1.0
s(lp585
(g265
I14
tp586
atp587
a(g21
(dp588
g23
F1.0
s(lp589
tp590
a(S'sind'
p591
(dp592
S'VERB'
p593
F1.0
s(lp594
(g151
I20
tp595
atp596
a(S'nicht'
p597
(dp598
S'PRT'
p599
F1.0
s(lp600
tp601
a(S'besonders'
p602
(dp603
S'ADV'
p604
F1.0
s(lp605
(g106
I18
tp606
atp607
a(S'gro\xc3\x9f'
p608
(dp609
S'PRT'
p610
F0.0164
sS'ADJ'
p611
F0.9836
s(lp612
(g167
I23
tp613
atp614
a(g23
(dp615
g23
F1.0
s(lp616
(g23
I24
tp617
atp618
asS'it'
p619
(lp620
(S'dopotutto'
p621
(dp622
S'ADV'
p623
F1.0
s(lp624
(g9
I0
tp625
atp626
a(g21
(dp627
g23
F1.0
s(lp628
(g21
I2
tp629
atp630
a(S'stiamo'
p631
(dp632
S'VERB'
p633
F0.999999
s(lp634
(g38
I4
tp635
atp636
a(S'parlando'
p637
(dp638
S'VERB'
p639
F1.0
s(lp640
(g265
I14
tp641
atp642
a(S'di'
p643
(dp644
S'CONJ'
p645
F1e-06
sS'ADP'
p646
F0.999999
s(lp647
tp648
a(S'mercati'
p649
(dp650
S'NOUN'
p651
F1.0
s(lp652
(g52
I6
tp653
atp654
a(S'instabili'
p655
(dp656
S'ADJ'
p657
F1.0
s(lp658
(g59
I5
tp659
atp660
a(S'e'
p661
(dp662
S'CONJ'
p663
F1.0
s(lp664
(g66
I8
tp665
atp666
a(S'i'
p667
(dp668
S'DET'
p669
F1.0
s(lp670
(g75
I9
tp671
atp672
a(S'progetti'
p673
(dp674
S'VERB'
p675
F0.000155
sS'NOUN'
p676
F0.999845
s(lp677
(g82
I10
tp678
atp679
a(S'di'
p680
(dp681
S'CONJ'
p682
F4e-06
sS'ADP'
p683
F0.999996
s(lp684
(g91
I15
tp685
atp686
a(S'investimento'
p687
(dp688
S'NOUN'
p689
F1.0
s(lp690
(g98
I16
tp691
atp692
a(S'nelle'
p693
(dp694
S'ADP'
p695
F1.0
s(lp696
(g113
I17
tp697
atp698
a(S'misure'
p699
(dp700
S'NOUN'
p701
F1.0
s(lp702
(g106
I18
tp703
atp704
a(S'di'
p705
(dp706
S'CONJ'
p707
F4e-06
sS'ADP'
p708
F0.999996
s(lp709
tp710
a(S'adattamento'
p711
(dp712
S'NOUN'
p713
F1.0
s(lp714
(g127
I19
tp715
atp716
a(S'al'
p717
(dp718
S'ADP'
p719
F1.0
s(lp720
(g252
I12
tp721
atp722
a(S'cambiamento'
p723
(dp724
S'NOUN'
p725
F1.0
s(lp726
tp727
a(S'climatico'
p728
(dp729
S'ADJ'
p730
F1.0
s(lp731
(g106
I18
tp732
atp733
a(S'sono'
p734
(dp735
S'VERB'
p736
F0.97489
sS'NOUN'
p737
F0.02511
s(lp738
(g151
I20
tp739
atp740
a(S'di'
p741
(dp742
S'CONJ'
p743
F3e-06
sS'ADP'
p744
F0.999997
s(lp745
(g158
I22
tp746
atp747
a(S'dimensioni'
p748
(dp749
S'VERB'
p750
F0.009817
sS'NOUN'
p751
F0.990183
s(lp752
(g167
I23
tp753
atp754
a(S'ridotte'
p755
(dp756
S'NOUN'
p757
F0.012359
sS'VERB'
p758
F0.605589
sS'ADJ'
p759
F0.382052
s(lp760
(g175
I21
tp761
atp762
a(g23
(dp763
g23
F1.0
s(lp764
(g23
I24
tp765
atp766
asS'sk'
p767
(lp768
(S've\xc4\x8f'
p769
(dp770
S'X'
p771
F0.541711
sS'CONJ'
p772
F0.418671
sS'VERB'
p773
F0.039618
s(lp774
tp775
a(S'napokon'
p776
(dp777
S'ADV'
p778
F0.756281
sg771
F0.243719
s(lp779
(g9
I0
tp780
atp781
a(S'ide'
p782
(dp783
S'VERB'
p784
F1.0
s(lp785
(g31
I3
tp786
atp787
a(S'o'
p788
(dp789
g771
F0.000319
sS'CONJ'
p790
F1.4e-05
sS'NOUN'
p791
F2.3e-05
sS'ADP'
p792
F0.999645
s(lp793
(g38
I4
tp794
atp795
a(S'nestabiln\xc3\xa9'
p796
(dp797
S'ADJ'
p798
F1.0
s(lp799
(g59
I5
tp800
atp801
a(S'trhy'
p802
(dp803
S'NOUN'
p804
F1.0
s(lp805
(g52
I6
tp806
atp807
a(S'a'
p808
(dp809
g771
F0.000697
sS'CONJ'
p810
F0.998698
sS'NOUN'
p811
F5.7e-05
sS'ADP'
p812
F0.000484
sS'PRT'
p813
F6.4e-05
s(lp814
(g66
I8
tp815
atp816
a(S'projekty'
p817
(dp818
S'NOUN'
p819
F1.0
s(lp820
(g82
I10
tp821
atp822
a(S'v'
p823
(dp824
g771
F0.000112
sS'ADP'
p825
F0.999888
s(lp826
(g252
I12
tp827
atp828
a(S'oblasti'
p829
(dp830
S'NOUN'
p831
F1.0
s(lp832
(g265
I14
tp833
atp834
a(S'invest\xc3\xadci\xc3\xad'
p835
(dp836
S'NOUN'
p837
F1.0
s(lp838
tp839
a(S'do'
p840
(dp841
S'PRON'
p842
F4.5e-05
sS'ADP'
p843
F0.999922
sg771
F3.3e-05
s(lp844
(g98
I16
tp845
atp846
a(S'adapt\xc3\xa1cie'
p847
(dp848
S'NOUN'
p849
F1.0
s(lp850
(g127
I19
tp851
atp852
a(S'na'
p853
(dp854
g771
F0.000144
sS'CONJ'
p855
F1.5e-05
sS'ADP'
p856
F0.999838
sS'PRT'
p857
F3e-06
s(lp858
(g113
I17
tp859
atp860
a(S'zmenu'
p861
(dp862
S'NOUN'
p863
F1.0
s(lp864
tp865
a(S'kl\xc3\xadmy'
p866
(dp867
S'NOUN'
p868
F1.0
s(lp869
(g106
I18
tp870
atp871
a(S's\xc3\xba'
p872
(dp873
S'VERB'
p874
F1.0
s(lp875
(g151
I20
tp876
atp877
a(S'mal\xc3\xa9'
p878
(dp879
S'NOUN'
p880
F0.020191
sS'ADJ'
p881
F0.979809
s(lp882
(g175
I21
tp883
atp884
a(g23
(dp885
g23
F1.0
s(lp886
(g23
I24
tp887
atp888
asS'pl'
p889
(lp890
(S'to'
p891
(dp892
S'NOUN'
p893
F0.250725
sS'ADP'
p894
F6e-06
sS'PRT'
p895
F0.087002
sg771
F3.7e-05
sS'CONJ'
p896
F0.084059
sS'ADJ'
p897
F0.578172
s(lp898
(g31
I3
tp899
atp900
a(S'przecie\xc5\xbc'
p901
(dp902
S'PRT'
p903
F1.0
s(lp904
(g9
I0
tp905
atp906
a(S'niestabilne'
p907
(dp908
S'ADV'
p909
F0.0009
sS'NOUN'
p910
F2.4999999999999998e-05
sS'ADJ'
p911
F0.9990739999999999
s(lp912
(g59
I5
tp913
atp914
a(S'rynki'
p915
(dp916
S'NOUN'
p917
F1.0
s(lp918
(g52
I6
tp919
atp920
a(g21
(dp921
g771
F0.0
sg23
F1.0
s(lp922
(g21
I7
tp923
atp924
a(g808
(dp925
S'ADV'
p926
F0.000167
sS'NOUN'
p927
F0.000121
sS'ADP'
p928
F0.001738
sS'PRT'
p929
F0.002162
sS'VERB'
p930
F0.00017
sg771
F0.003363
sS'CONJ'
p931
F0.977446
sS'ADJ'
p932
F0.014832999999999999
s(lp933
(g66
I8
tp934
atp935
a(S'projekty'
p936
(dp937
S'NOUN'
p938
F1.0
s(lp939
(g82
I10
tp940
atp941
a(S'zwi\xc4\x85zane'
p942
(dp943
S'VERB'
p944
F0.000327
sS'ADJ'
p945
F0.999672
s(lp946
(g245
I11
tp947
atp948
a(S'z'
p949
(dp950
S'PRT'
p951
F7e-06
sS'VERB'
p952
F0.0
sS'NOUN'
p953
F0.0
sS'ADP'
p954
F0.999993
sg771
F0.0
s(lp955
(g259
I13
tp956
atp957
a(S'inwestycjami'
p958
(dp959
S'NOUN'
p960
F1.0
s(lp961
(g98
I16
tp962
atp963
a(S'w'
p964
(dp965
S'ADJ'
p966
F1e-06
sg771
F2.6e-05
sS'NOUN'
p967
F1e-06
sS'ADP'
p968
F0.999972
s(lp969
(g113
I17
tp970
atp971
a(S'dostosowanie'
p972
(dp973
S'VERB'
p974
F1.0
s(lp975
tp976
a(S'si\xc4\x99'
p977
(dp978
S'PRT'
p979
F1.0
s(lp980
tp981
a(S'do'
p982
(dp983
g771
F0.0
sS'NOUN'
p984
F8e-06
sS'ADP'
p985
F0.999992
s(lp986
(g127
I19
tp987
atp988
a(S'zmian'
p989
(dp990
S'NOUN'
p991
F1.0
s(lp992
tp993
a(S'klimatycznych'
p994
(dp995
S'ADJ'
p996
F0.9999990000000001
s(lp997
(g106
I18
tp998
atp999
a(S's\xc4\x85'
p1000
(dp1001
S'VERB'
p1002
F1.0
s(lp1003
(g151
I20
tp1004
atp1005
a(S'niewielkie'
p1006
(dp1007
S'ADJ'
p1008
F0.9999990000000001
s(lp1009
(g175
I21
tp1010
atp1011
a(g23
(dp1012
g23
F1.0
s(lp1013
(g23
I24
tp1014
atp1015
asS'sl'
p1016
(lp1017
(S'navsezadnje'
p1018
(dp1019
S'ADV'
p1020
F1.0
s(lp1021
(g9
I0
tp1022
atp1023
a(S'so'
p1024
(dp1025
g771
F0.000143
sS'VERB'
p1026
F0.999857
s(lp1027
(g38
I4
tp1028
atp1029
a(S'to'
p1030
(dp1031
S'PRON'
p1032
F0.999436
sg771
F0.000565
s(lp1033
(g31
I3
tp1034
atp1035
a(S'nestabilni'
p1036
(dp1037
S'ADV'
p1038
F0.000167
sS'NOUN'
p1039
F0.000156
sS'ADJ'
p1040
F0.999677
s(lp1041
(g59
I5
tp1042
atp1043
a(S'trgi'
p1044
(dp1045
S'NOUN'
p1046
F1.0
s(lp1047
(g52
I6
tp1048
atp1049
a(S'in'
p1050
(dp1051
S'ADV'
p1052
F3.8e-05
sg771
F3e-06
sS'CONJ'
p1053
F0.999956
sS'NOUN'
p1054
F2e-06
s(lp1055
(g66
I8
tp1056
atp1057
a(S'projekti'
p1058
(dp1059
S'NOUN'
p1060
F1.0
s(lp1061
(g82
I10
tp1062
atp1063
a(g21
(dp1064
g23
F1.0
s(lp1065
(g21
I2
tp1066
atp1067
a(S'ki'
p1068
(dp1069
S'CONJ'
p1070
F1.0
s(lp1071
(g245
I11
tp1072
atp1073
a(S'so'
p1074
(dp1075
g771
F0.0
sS'VERB'
p1076
F0.999999
s(lp1077
tp1078
a(S'vklju\xc4\x8deni'
p1079
(dp1080
S'ADJ'
p1081
F1.0
s(lp1082
(g245
I11
tp1083
atp1084
a(g21
(dp1085
g23
F1.0
s(lp1086
tp1087
a(S'ko'
p1088
(dp1089
S'CONJ'
p1090
F1.0
s(lp1091
(g252
I12
tp1092
atp1093
a(S'gre'
p1094
(dp1095
S'VERB'
p1096
F1.0
s(lp1097
(g265
I14
tp1098
atp1099
a(S'za'
p1100
(dp1101
S'ADV'
p1102
F4.4e-05
sg771
F1.2e-05
sS'ADP'
p1103
F0.999944
s(lp1104
(g91
I15
tp1105
atp1106
a(S'vlaganja'
p1107
(dp1108
S'NOUN'
p1109
F1.0
s(lp1110
(g98
I16
tp1111
atp1112
a(g823
(dp1113
S'ADP'
p1114
F1.0
s(lp1115
(g113
I17
tp1116
atp1117
a(S'prilagajanje'
p1118
(dp1119
S'NOUN'
p1120
F1.0
s(lp1121
(g127
I19
tp1122
atp1123
a(S'na'
p1124
(dp1125
S'ADP'
p1126
F1.0
s(lp1127
(g106
I18
tp1128
atp1129
a(S'podnebne'
p1130
(dp1131
S'ADJ'
p1132
F1.0
s(lp1133
tp1134
a(S'spremembe'
p1135
(dp1136
S'NOUN'
p1137
F1.0
s(lp1138
(g106
I18
tp1139
atp1140
a(g21
(dp1141
g23
F1.0
s(lp1142
tp1143
a(S'so'
p1144
(dp1145
g771
F0.000347
sS'VERB'
p1146
F0.999653
s(lp1147
(g151
I20
tp1148
atp1149
a(S'majhni'
p1150
(dp1151
S'ADJ'
p1152
F1.0
s(lp1153
(g175
I21
tp1154
atp1155
a(g23
(dp1156
g23
F1.0
s(lp1157
(g23
I24
tp1158
atp1159
asS'es'
p1160
(lp1161
(S'despu\xc3\xa9s'
p1162
(dp1163
S'CONJ'
p1164
F0.013258
sS'ADP'
p1165
F0.986742
s(lp1166
(g9
I0
tp1167
atp1168
a(S'de'
p1169
(dp1170
S'CONJ'
p1171
F0.013258
sS'ADP'
p1172
F0.986742
s(lp1173
tp1174
a(S'todo'
p1175
(dp1176
S'ADJ'
p1177
F1.0
s(lp1178
(g18
I1
tp1179
atp1180
a(g21
(dp1181
g23
F1.0
s(lp1182
(g21
I2
tp1183
atp1184
a(S'se'
p1185
(dp1186
S'PRON'
p1187
F1.0
sS'VERB'
p1188
F0.0
s(lp1189
(g38
I4
tp1190
atp1191
a(S'trata'
p1192
(dp1193
S'VERB'
p1194
F0.999781
sS'NOUN'
p1195
F0.000219
s(lp1196
(g31
I3
tp1197
atp1198
a(S'de'
p1199
(dp1200
g771
F1.3e-05
sS'CONJ'
p1201
F0.00072
sS'ADP'
p1202
F0.999266
s(lp1203
tp1204
a(S'mercados'
p1205
(dp1206
S'VERB'
p1207
F0.003251
sS'NOUN'
p1208
F0.996749
s(lp1209
(g52
I6
tp1210
atp1211
a(S'inestables'
p1212
(dp1213
S'ADJ'
p1214
F1.0
s(lp1215
(g59
I5
tp1216
atp1217
a(g21
(dp1218
g23
F1.0
s(lp1219
(g21
I7
tp1220
atp1221
a(S'y'
p1222
(dp1223
g771
F0.00017
sS'CONJ'
p1224
F0.99983
s(lp1225
(g66
I8
tp1226
atp1227
a(S'los'
p1228
(dp1229
S'PRON'
p1230
F0.000425
sS'DET'
p1231
F0.999575
s(lp1232
(g75
I9
tp1233
atp1234
a(S'proyectos'
p1235
(dp1236
S'NOUN'
p1237
F1.0
s(lp1238
(g82
I10
tp1239
atp1240
a(S'relacionados'
p1241
(dp1242
S'VERB'
p1243
F1.0
s(lp1244
(g245
I11
tp1245
atp1246
a(S'con'
p1247
(dp1248
S'ADP'
p1249
F1.0
s(lp1250
(g252
I12
tp1251
atp1252
a(S'inversiones'
p1253
(dp1254
S'NOUN'
p1255
F1.0
s(lp1256
(g98
I16
tp1257
atp1258
a(S'para'
p1259
(dp1260
S'CONJ'
p1261
F0.000662
sS'ADP'
p1262
F0.999338
s(lp1263
(g91
I15
tp1264
atp1265
a(S'la'
p1266
(dp1267
g771
F0.0
sS'PRON'
p1268
F0.0
sS'DET'
p1269
F0.999999
sS'NOUN'
p1270
F0.0
s(lp1271
tp1272
a(S'adaptaci\xc3\xb3n'
p1273
(dp1274
S'NOUN'
p1275
F1.0
s(lp1276
(g127
I19
tp1277
atp1278
a(S'al'
p1279
(dp1280
S'CONJ'
p1281
F0.000852
sS'ADP'
p1282
F0.999148
s(lp1283
(g113
I17
tp1284
atp1285
a(S'cambio'
p1286
(dp1287
S'NOUN'
p1288
F1.0
s(lp1289
(g106
I18
tp1290
atp1291
a(S'clim\xc3\xa1tico'
p1292
(dp1293
S'ADJ'
p1294
F1.0
s(lp1295
tp1296
a(S'tienen'
p1297
(dp1298
S'VERB'
p1299
F1.0
s(lp1300
(g151
I20
tp1301
atp1302
a(S'un'
p1303
(dp1304
g771
F1e-06
sS'DET'
p1305
F0.999999
s(lp1306
tp1307
a(S'volumen'
p1308
(dp1309
S'NOUN'
p1310
F1.0
s(lp1311
(g167
I23
tp1312
atp1313
a(S'relativamente'
p1314
(dp1315
S'ADV'
p1316
F1.0
s(lp1317
(g106
I18
tp1318
atp1319
a(S'peque\xc3\xb1o'
p1320
(dp1321
S'ADJ'
p1322
F1.0
s(lp1323
(g175
I21
tp1324
atp1325
a(g23
(dp1326
g23
F1.0
s(lp1327
(g23
I24
tp1328
atp1329
as.