(dp0
S'fr'
p1
(lp2
(S'le'
p3
(dp4
S'PRON'
p5
F0.001198
sS'DET'
p6
F0.998802
s(lp7
(S'the'
p8
I0
tp9
atp10
a(S'seul'
p11
(dp12
S'NOUN'
p13
F0.082763
sS'ADJ'
p14
F0.917237
s(lp15
(S'only'
p16
I1
tp17
atp18
a(S'vainqueur'
p19
(dp20
S'NOUN'
p21
F1.0
s(lp22
(S'winner'
p23
I2
tp24
atp25
a(S'dans'
p26
(dp27
S'NOUN'
p28
F3e-06
sS'ADP'
p29
F0.999997
s(lp30
(S'in'
p31
I3
tp32
atp33
a(S'ce'
p34
(dp35
S'PRON'
p36
F1.0
s(lp37
(S'such'
p38
I4
tp39
atp40
a(S'sc\xc3\xa9nario'
p41
(dp42
S'NOUN'
p43
F1.0
s(lp44
(S'eventuality'
p45
I6
tp46
atp47
a(S'serait'
p48
(dp49
S'VERB'
p50
F1.0
s(lp51
(S'would'
p52
I7
tp53
atp54
a(S'm.'
p55
(dp56
S'X'
p57
F0.030044
sS'VERB'
p58
F0.660361
sS'ADJ'
p59
F0.298487
sS'NOUN'
p60
F0.011107
s(lp61
(S'mr'
p62
I9
tp63
atp64
a(S'ahmadinejad'
p65
(dp66
S'VERB'
p67
F0.004265
sS'NOUN'
p68
F0.995733
s(lp69
(S'ahmadinejad'
p70
I10
tp71
atp72
a(S'.'
p73
(dp74
g73
F1.0
s(lp75
(g73
I11
tp76
atp77
asS'en'
p78
(lp79
(g8
(dp80
S'NOUN'
p81
F3e-06
sS'DET'
p82
F0.999997
s(lp83
(g8
I0
tp84
atp85
a(g16
(dp86
S'ADV'
p87
F0.024341
sS'NOUN'
p88
F0.000391
sS'ADJ'
p89
F0.975268
s(lp90
(g16
I1
tp91
atp92
a(g23
(dp93
S'NOUN'
p94
F1.0
s(lp95
(g23
I2
tp96
atp97
a(g31
(dp98
S'ADV'
p99
F0.000322
sS'PRT'
p100
F2e-05
sS'ADP'
p101
F0.999658
s(lp102
(g31
I3
tp103
atp104
a(g38
(dp105
S'ADV'
p106
F1e-05
sS'ADJ'
p107
F0.003113
sS'DET'
p108
F0.996861
sS'ADP'
p109
F1.6e-05
s(lp110
(g38
I4
tp111
atp112
a(S'an'
p113
(dp114
S'DET'
p115
F1.0
s(lp116
(g113
I5
tp117
atp118
a(g45
(dp119
S'NOUN'
p120
F1.0
s(lp121
(g45
I6
tp122
atp123
a(g52
(dp124
S'VERB'
p125
F1.0
s(lp126
(g52
I7
tp127
atp128
a(S'be'
p129
(dp130
S'VERB'
p131
F1.0
s(lp132
(g129
I8
tp133
atp134
a(g62
(dp135
S'ADJ'
p136
F0.180881
sS'NOUN'
p137
F0.819119
s(lp138
(g62
I9
tp139
atp140
a(g70
(dp141
S'ADV'
p142
F0.000416
sS'ADJ'
p143
F0.002806
sS'VERB'
p144
F0.000175
sS'NOUN'
p145
F0.996602
s(lp146
(g70
I10
tp147
atp148
a(g73
(dp149
g73
F1.0
s(lp150
(g73
I11
tp151
atp152
asS'nl'
p153
(lp154
(S'in'
p155
(dp156
S'ADV'
p157
F0.009335
sS'VERB'
p158
F1e-06
sS'ADP'
p159
F0.990664
s(lp160
(g31
I3
tp161
atp162
a(S'een'
p163
(dp164
S'ADJ'
p165
F1e-06
sS'PRON'
p166
F0.000525
sS'NUM'
p167
F1e-06
sS'DET'
p168
F0.999473
s(lp169
(g113
I5
tp170
atp171
a(S'dergelijk'
p172
(dp173
S'ADJ'
p174
F1.0
s(lp175
(g38
I4
tp176
atp177
a(S'geval'
p178
(dp179
S'NOUN'
p180
F1.0
s(lp181
(g45
I6
tp182
atp183
a(S'zou'
p184
(dp185
S'VERB'
p186
F1.0
s(lp187
(g52
I7
tp188
atp189
a(S'ahmadinejad'
p190
(dp191
S'NOUN'
p192
F1.0
s(lp193
(g70
I10
tp194
atp195
a(S'de'
p196
(dp197
S'DET'
p198
F1.0
s(lp199
(g8
I0
tp200
atp201
a(S'enige'
p202
(dp203
S'PRON'
p204
F0.145099
sS'ADJ'
p205
F0.851393
sS'NOUN'
p206
F0.003508
s(lp207
(g16
I1
tp208
atp209
a(S'winnaar'
p210
(dp211
S'NOUN'
p212
F1.0
s(lp213
(g23
I2
tp214
atp215
a(S'zijn'
p216
(dp217
S'PRON'
p218
F0.000122
sS'VERB'
p219
F0.999834
sS'NOUN'
p220
F4.4e-05
s(lp221
(g129
I8
tp222
atp223
a(g73
(dp224
g73
F1.0
s(lp225
(g73
I11
tp226
atp227
asS'de'
p228
(lp229
(S'der'
p230
(dp231
S'PRON'
p232
F0.001502
sS'DET'
p233
F0.998382
s(lp234
(g8
I0
tp235
atp236
a(S'einzige'
p237
(dp238
S'ADJ'
p239
F1.0
s(lp240
(g16
I1
tp241
atp242
a(S','
p243
(dp244
g73
F1.0
s(lp245
tp246
a(S'der'
p247
(dp248
S'PRON'
p249
F0.926016
sS'DET'
p250
F0.070165
s(lp251
tp252
a(S'von'
p253
(dp254
S'NOUN'
p255
F0.000299
sS'ADP'
p256
F0.999701
s(lp257
(g31
I3
tp258
atp259
a(S'einer'
p260
(dp261
S'PRON'
p262
F0.000542
sS'DET'
p263
F0.999451
s(lp264
(g113
I5
tp265
atp266
a(S'solchen'
p267
(dp268
S'PRON'
p269
F1.0
s(lp270
(g38
I4
tp271
atp272
a(S'eventualit\xc3\xa4t'
p273
(dp274
S'ADJ'
p275
F0.018391
sS'NOUN'
p276
F0.97363
s(lp277
tp278
a(S'profitieren'
p279
(dp280
S'VERB'
p281
F1.0
s(lp282
(g45
I6
tp283
atp284
a(S'w\xc3\xbcrde'
p285
(dp286
S'VERB'
p287
F1.0
s(lp288
tp289
a(g243
(dp290
g73
F1.0
s(lp291
tp292
a(S'w\xc3\xa4re'
p293
(dp294
S'VERB'
p295
F1.0
s(lp296
(g52
I7
tp297
atp298
a(S'mahmoud'
p299
(dp300
S'ADJ'
p301
F0.002251
sS'NOUN'
p302
F0.997295
s(lp303
tp304
a(S'ahmadinejad'
p305
(dp306
S'NOUN'
p307
F0.994879
s(lp308
(g70
I10
tp309
atp310
a(g73
(dp311
g73
F1.0
s(lp312
(g73
I11
tp313
atp314
asS'it'
p315
(lp316
(S'in'
p317
(dp318
S'ADP'
p319
F1.0
s(lp320
(g31
I3
tp321
atp322
a(S'una'
p323
(dp324
S'PRON'
p325
F7.1e-05
sS'DEF'
p326
F0.999929
s(lp327
(g113
I5
tp328
atp329
a(S'simile'
p330
(dp331
S'NOUN'
p332
F0.02552
sS'ADJ'
p333
F0.97448
s(lp334
(g38
I4
tp335
atp336
a(S'eventualit\xc3\xa0'
p337
(dp338
S'NOUN'
p339
F1.0
s(lp340
(g45
I6
tp341
atp342
a(g243
(dp343
g73
F1.0
s(lp344
tp345
a(S"l'"
p346
(dp347
S'NOUN'
p348
F0.003774
sS'VERB'
p349
F0.984512
sS'ADJ'
p350
F0.011715
s(lp351
(g8
I0
tp352
atp353
a(S'unico'
p354
(dp355
S'NOUN'
p356
F0.007569
sS'ADJ'
p357
F0.992431
s(lp358
(g16
I1
tp359
atp360
a(S'vincitore'
p361
(dp362
S'ADJ'
p363
F0.063618
sS'NOUN'
p364
F0.936382
s(lp365
(g23
I2
tp366
atp367
a(S'sarebbe'
p368
(dp369
S'VERB'
p370
F1.0
s(lp371
(g52
I7
tp372
atp373
a(S'ahmadinejad'
p374
(dp375
S'ADJ'
p376
F0.400161
sS'VERB'
p377
F0.036062000000000004
sS'NOUN'
p378
F0.563778
s(lp379
(g70
I10
tp380
atp381
a(g73
(dp382
g73
F1.0
s(lp383
(g73
I11
tp384
atp385
asS'sk'
p386
(lp387
(S'jedin\xc3\xbdm'
p388
(dp389
S'NUM'
p390
F1.0
s(lp391
(g16
I1
tp392
atp393
a(S'v\xc3\xad\xc5\xa5azom'
p394
(dp395
S'NOUN'
p396
F1.0
s(lp397
(g23
I2
tp398
atp399
a(S'by'
p400
(dp401
S'PRT'
p402
F0.999057
sg57
F0.000943
s(lp403
(g52
I7
tp404
atp405
a(S'v'
p406
(dp407
g57
F0.000199
sS'ADP'
p408
F0.999802
s(lp409
(g31
I3
tp410
atp411
a(S'takom'
p412
(dp413
S'PRON'
p414
F1.0
s(lp415
(g38
I4
tp416
atp417
a(S'pr\xc3\xadpade'
p418
(dp419
S'NOUN'
p420
F1.0
s(lp421
(g45
I6
tp422
atp423
a(S'bol'
p424
(dp425
S'VERB'
p426
F1.0
s(lp427
(g129
I8
tp428
atp429
a(S'p\xc3\xa1n'
p430
(dp431
S'NOUN'
p432
F1.0
s(lp433
(g62
I9
tp434
atp435
a(S'ahmed\xc3\xadned\xc5\xbe\xc3\xa1d'
p436
(dp437
g57
F0.35504499999999994
sS'ADJ'
p438
F0.392667
sS'NOUN'
p439
F0.25228700000000004
s(lp440
(g70
I10
tp441
atp442
a(g73
(dp443
g73
F1.0
s(lp444
(g73
I11
tp445
atp446
asS'pl'
p447
(lp448
(S'jedynym'
p449
(dp450
S'ADJ'
p451
F1.0
s(lp452
(g16
I1
tp453
atp454
a(S'zwyci\xc4\x99zc\xc4\x85'
p455
(dp456
S'NOUN'
p457
F1.0
s(lp458
(g23
I2
tp459
atp460
a(S'w'
p461
(dp462
g57
F0.0
sS'ADJ'
p463
F0.0
sS'ADP'
p464
F1.0
sS'NOUN'
p465
F0.0
s(lp466
(g31
I3
tp467
atp468
a(S'takim'
p469
(dp470
S'ADJ'
p471
F0.999999
s(lp472
(g38
I4
tp473
atp474
a(S'przypadku'
p475
(dp476
S'NOUN'
p477
F1.0
s(lp478
(g45
I6
tp479
atp480
a(S'by\xc5\x82by'
p481
(dp482
S'ADV'
p483
F0.000432
sS'NOUN'
p484
F0.8583069999999999
sS'PRT'
p485
F0.012227
sS'VERB'
p486
F0.03657300000000001
sS'CONJ'
p487
F0.006594
sS'ADJ'
p488
F0.085867
s(lp489
(g52
I7
tp490
atp491
a(S'prezydent'
p492
(dp493
S'NOUN'
p494
F1.0
s(lp495
tp496
a(S'ahmadine\xc5\xbcad'
p497
(dp498
S'ADV'
p499
F0.000303
sS'ADJ'
p500
F3.4e-05
sS'NOUN'
p501
F0.999661
sS'ADP'
p502
F1e-06
sg57
F1e-06
s(lp503
(g70
I10
tp504
atp505
a(g73
(dp506
g73
F1.0
s(lp507
(g73
I11
tp508
atp509
asS'sl'
p510
(lp511
(g406
(dp512
S'ADP'
p513
F1.0
s(lp514
(g31
I3
tp515
atp516
a(S'tak\xc5\xa1nih'
p517
(dp518
S'PRON'
p519
F1.0
s(lp520
(g38
I4
tp521
atp522
a(S'razmerah'
p523
(dp524
S'NOUN'
p525
F1.0
s(lp526
(g45
I6
tp527
atp528
a(S'bi'
p529
(dp530
g57
F5e-06
sS'VERB'
p531
F0.999995
s(lp532
(g52
I7
tp533
atp534
a(S'bil'
p535
(dp536
S'VERB'
p537
F1.0
s(lp538
(g129
I8
tp539
atp540
a(S'edini'
p541
(dp542
S'ADJ'
p543
F1.000001
s(lp544
(g16
I1
tp545
atp546
a(S'zmagovalec'
p547
(dp548
S'NOUN'
p549
F1.0
s(lp550
(g23
I2
tp551
atp552
a(S'gospod'
p553
(dp554
S'NOUN'
p555
F1.0
s(lp556
(g62
I9
tp557
atp558
a(S'ahmadined\xc5\xbead'
p559
(dp560
S'ADV'
p561
F0.00742
sS'ADJ'
p562
F0.00998
sS'NOUN'
p563
F0.977081
sg57
F0.005518
s(lp564
(g70
I10
tp565
atp566
a(g73
(dp567
g73
F1.0
s(lp568
(g73
I11
tp569
atp570
asS'es'
p571
(lp572
(S'el'
p573
(dp574
S'PRON'
p575
F0.000299
sS'DET'
p576
F0.999701
s(lp577
(g8
I0
tp578
atp579
a(S'\xc3\xbanico'
p580
(dp581
S'ADJ'
p582
F1.0
s(lp583
(g16
I1
tp584
atp585
a(S'ganador'
p586
(dp587
S'NOUN'
p588
F1.0
s(lp589
(g23
I2
tp590
atp591
a(S'en'
p592
(dp593
g57
F0.0
sS'CONJ'
p594
F4e-06
sS'ADP'
p595
F0.999996
s(lp596
(g31
I3
tp597
atp598
a(S'tal'
p599
(dp600
S'ADJ'
p601
F1.0
s(lp602
(g38
I4
tp603
atp604
a(S'supuesto'
p605
(dp606
S'ADJ'
p607
F0.107834
sS'VERB'
p608
F0.021056
sS'NOUN'
p609
F0.87111
s(lp610
(g45
I6
tp611
atp612
a(S'ser\xc3\xada'
p613
(dp614
S'VERB'
p615
F1.0
s(lp616
(g52
I7
tp617
atp618
a(S'el'
p619
(dp620
S'PRON'
p621
F2e-06
sS'DET'
p622
F0.999998
s(lp623
tp624
a(S'se\xc3\xb1or'
p625
(dp626
S'NOUN'
p627
F1.0
s(lp628
(g62
I9
tp629
atp630
a(S'ahmadineyad'
p631
(dp632
S'NOUN'
p633
F0.076615
sS'VERB'
p634
F0.754401
sS'ADJ'
p635
F0.168984
s(lp636
(g70
I10
tp637
atp638
a(g73
(dp639
g73
F1.0
s(lp640
(g73
I11
tp641
atp642
as.