(dp0
S'fr'
p1
(lp2
(S'je'
p3
(dp4
S'PRON'
p5
F1.0
s(lp6
(S'i'
p7
I0
tp8
atp9
a(S'le'
p10
(dp11
S'PRON'
p12
F0.999708
sS'DET'
p13
F0.000292
s(lp14
(S'the'
p15
I3
tp16
atp17
a(S'dis'
p18
(dp19
S'VERB'
p20
F1.0
s(lp21
(S'point'
p22
I4
tp23
atp24
a(S'cet'
p25
(dp26
S'PRON'
p27
F1.0
s(lp28
(S'this'
p29
I5
tp30
atp31
a(S'apr\xc3\xa8s-midi'
p32
(dp33
S'NOUN'
p34
F1.0
s(lp35
(S'afternoon'
p36
I6
tp37
atp38
a(S'parce'
p39
(dp40
S'CONJ'
p41
F1.0
s(lp42
tp43
a(S'que'
p44
(dp45
S'ADV'
p46
F0.0022
sS'PRON'
p47
F0.477473
sS'CONJ'
p48
F0.520327
s(lp49
(S'because'
p50
I7
tp51
atp52
a(S'je'
p53
(dp54
S'PRON'
p55
F1.0
s(lp56
(S'my'
p57
I10
tp58
atp59
a(S'le'
p60
(dp61
S'PRON'
p62
F0.999725
sS'DET'
p63
F0.000275
s(lp64
(S'it'
p65
I8
tp66
atp67
a(S'pense'
p68
(dp69
S'VERB'
p70
F1.0
s(lp71
(S'opinion'
p72
I12
tp73
atp74
a(S'sinc\xc3\xa8rement'
p75
(dp76
S'ADV'
p77
F1.0
s(lp78
(S'honest'
p79
I11
tp80
atp81
a(S'.'
p82
(dp83
g82
F1.0
s(lp84
(g82
I13
tp85
atp86
asS'en'
p87
(lp88
(g7
(dp89
S'X'
p90
F0.000586
sS'NOUN'
p91
F0.999414
s(lp92
(g7
I0
tp93
atp94
a(S'am'
p95
(dp96
S'ADV'
p97
F0.00205
sS'VERB'
p98
F0.99795
s(lp99
(g95
I1
tp100
atp101
a(S'making'
p102
(dp103
S'VERB'
p104
F0.999976
sS'NOUN'
p105
F2.4e-05
s(lp106
(g102
I2
tp107
atp108
a(g15
(dp109
S'NOUN'
p110
F2e-06
sS'DET'
p111
F0.999998
s(lp112
(g15
I3
tp113
atp114
a(g22
(dp115
S'VERB'
p116
F0.04909
sS'NOUN'
p117
F0.95091
s(lp118
(g22
I4
tp119
atp120
a(g29
(dp121
S'ADV'
p122
F0.000121
sS'NOUN'
p123
F0.000873
sS'DET'
p124
F0.999006
s(lp125
(g29
I5
tp126
atp127
a(g36
(dp128
S'NOUN'
p129
F1.0
s(lp130
(g36
I6
tp131
atp132
a(g50
(dp133
S'ADV'
p134
F0.001662
sS'ADP'
p135
F0.998338
s(lp136
(g50
I7
tp137
atp138
a(g65
(dp139
S'PRON'
p140
F1.0
s(lp141
(g65
I8
tp142
atp143
a(S'is'
p144
(dp145
S'VERB'
p146
F1.0
s(lp147
(g144
I9
tp148
atp149
a(g57
(dp150
S'PRON'
p151
F1.0
s(lp152
(g57
I10
tp153
atp154
a(g79
(dp155
S'ADJ'
p156
F1.0
s(lp157
(g79
I11
tp158
atp159
a(g72
(dp160
S'NOUN'
p161
F1.0
s(lp162
(g72
I12
tp163
atp164
a(g82
(dp165
g82
F1.0
s(lp166
(g82
I13
tp167
atp168
asS'nl'
p169
(lp170
(S'ik'
p171
(dp172
S'PRON'
p173
F0.999981
sS'NOUN'
p174
F1.9e-05
s(lp175
(g7
I0
tp176
atp177
a(S'zeg'
p178
(dp179
g90
F4e-06
sS'VERB'
p180
F0.999996
s(lp181
(g95
I1
tp182
atp183
a(S'dit'
p184
(dp185
S'PRON'
p186
F1.0
s(lp187
(g15
I3
tp188
atp189
a(S'hier'
p190
(dp191
S'ADV'
p192
F1.0
s(lp193
(g29
I5
tp194
atp195
a(S'vanmiddag'
p196
(dp197
S'ADV'
p198
F1.0
s(lp199
(g36
I6
tp200
atp201
a(S'omdat'
p202
(dp203
S'CONJ'
p204
F1.0
s(lp205
(g50
I7
tp206
atp207
a(S'ik'
p208
(dp209
S'PRON'
p210
F1.0
sS'NOUN'
p211
F0.0
s(lp212
(g57
I10
tp213
atp214
a(S'het'
p215
(dp216
S'PRON'
p217
F0.6651980000000001
sS'DET'
p218
F0.334802
s(lp219
(g65
I8
tp220
atp221
a(S'ook'
p222
(dp223
S'ADV'
p224
F1.0
s(lp225
(g144
I9
tp226
atp227
a(S'echt'
p228
(dp229
S'ADV'
p230
F0.591285
sS'ADJ'
p231
F0.18472
sS'NOUN'
p232
F0.223994
s(lp233
(g79
I11
tp234
atp235
a(S'vind'
p236
(dp237
S'VERB'
p238
F1.0
s(lp239
(g72
I12
tp240
atp241
a(g82
(dp242
g82
F1.0
s(lp243
(g82
I13
tp244
atp245
asS'de'
p246
(lp247
(S'ich'
p248
(dp249
S'PRON'
p250
F1.0
s(lp251
(g7
I0
tp252
atp253
a(S'sage'
p254
(dp255
S'VERB'
p256
F1.0
s(lp257
(g95
I1
tp258
atp259
a(S'das'
p260
(dp261
S'PRON'
p262
F0.700552
sS'DET'
p263
F0.299402
s(lp264
(g15
I3
tp265
atp266
a(S'hier'
p267
(dp268
S'ADV'
p269
F0.999796
sS'PRT'
p270
F0.000204
s(lp271
(g29
I5
tp272
atp273
a(S'heute'
p274
(dp275
S'ADV'
p276
F0.999936
sS'VERB'
p277
F6.4e-05
s(lp278
tp279
a(S'nachmittag'
p280
(dp281
S'ADV'
p282
F1.0
s(lp283
(g36
I6
tp284
atp285
a(S','
p286
(dp287
g82
F1.0
s(lp288
(g102
I2
tp289
atp290
a(S'weil'
p291
(dp292
S'CONJ'
p293
F0.999972
sS'VERB'
p294
F2.8e-05
s(lp295
(g50
I7
tp296
atp297
a(S'das'
p298
(dp299
S'PRON'
p300
F0.912039
sS'DET'
p301
F0.08121
s(lp302
(g65
I8
tp303
atp304
a(S'meine'
p305
(dp306
S'PRON'
p307
F0.975201
sS'VERB'
p308
F0.023873
s(lp309
(g57
I10
tp310
atp311
a(S'ehrliche'
p312
(dp313
S'ADJ'
p314
F1.0
s(lp315
(g79
I11
tp316
atp317
a(S'meinung'
p318
(dp319
S'ADJ'
p320
F0.004113
sS'NOUN'
p321
F0.991929
s(lp322
(g72
I12
tp323
atp324
a(S'ist'
p325
(dp326
S'VERB'
p327
F1.0
s(lp328
(g144
I9
tp329
atp330
a(g82
(dp331
g82
F1.0
s(lp332
(g82
I13
tp333
atp334
asS'it'
p335
(lp336
(S'lo'
p337
(dp338
S'PRON'
p339
F0.990634
sS'DET'
p340
F0.009366
s(lp341
(g7
I0
tp342
atp343
a(S'dico'
p344
(dp345
S'VERB'
p346
F1.0
s(lp347
(g95
I1
tp348
atp349
a(S'oggi'
p350
(dp351
S'ADV'
p352
F0.998481
sS'NOUN'
p353
F0.001519
s(lp354
tp355
a(S'pomeriggio'
p356
(dp357
S'NOUN'
p358
F1.0
s(lp359
(g36
I6
tp360
atp361
a(S'perch\xc3\xa9'
p362
(dp363
S'ADV'
p364
F0.057976
sS'CONJ'
p365
F0.936749
sS'NOUN'
p366
F0.005275
s(lp367
(g50
I7
tp368
atp369
a(S'onestamente'
p370
(dp371
S'ADV'
p372
F1.0
s(lp373
(g79
I11
tp374
atp375
a(S'questo'
p376
(dp377
S'PRON'
p378
F1.0
s(lp379
(g29
I5
tp380
atp381
a(S'penso'
p382
(dp383
S'VERB'
p384
F1.0
s(lp385
(g72
I12
tp386
atp387
a(g82
(dp388
g82
F1.0
s(lp389
(g82
I13
tp390
atp391
asS'sk'
p392
(lp393
(S'dnes'
p394
(dp395
S'ADV'
p396
F0.999909
sg90
F9.1e-05
s(lp397
tp398
a(S'popoludn\xc3\xad'
p399
(dp400
S'ADV'
p401
F0.996816
sS'NOUN'
p402
F0.003185
s(lp403
(g36
I6
tp404
atp405
a(S'to'
p406
(dp407
S'PRON'
p408
F0.96349
sS'CONJ'
p409
F0.027507
sg90
F0.009003
s(lp410
(g29
I5
tp411
atp412
a(S'hovor\xc3\xadm'
p413
(dp414
S'VERB'
p415
F1.0
s(lp416
(g95
I1
tp417
atp418
a(S'preto'
p419
(dp420
S'PRON'
p421
F0.993164
sS'CONJ'
p422
F0.000686
sg90
F0.00615
s(lp423
tp424
a(g286
(dp425
g82
F1.0
s(lp426
tp427
a(S'lebo'
p428
(dp429
g90
F0.000373
sS'CONJ'
p430
F0.999627
s(lp431
(g50
I7
tp432
atp433
a(S'je'
p434
(dp435
S'PRON'
p436
F0.000101
sS'VERB'
p437
F0.999882
sg90
F1.8e-05
s(lp438
(g144
I9
tp439
atp440
a(S'to'
p441
(dp442
S'PRON'
p443
F0.954606
sS'CONJ'
p444
F0.010018
sg90
F0.035377
s(lp445
(g65
I8
tp446
atp447
a(S'm\xc3\xb4j'
p448
(dp449
S'PRON'
p450
F1.0
s(lp451
(g57
I10
tp452
atp453
a(S'\xc3\xbaprimn\xc3\xbd'
p454
(dp455
S'ADJ'
p456
F1.0
s(lp457
(g79
I11
tp458
atp459
a(S'n\xc3\xa1zor'
p460
(dp461
S'NOUN'
p462
F1.0
s(lp463
(g72
I12
tp464
atp465
a(g82
(dp466
g82
F1.0
s(lp467
(g82
I13
tp468
atp469
asS'pl'
p470
(lp471
(S'm\xc3\xb3wi\xc4\x99'
p472
(dp473
S'VERB'
p474
F1.0
s(lp475
(g95
I1
tp476
atp477
a(S'o'
p478
(dp479
g90
F0.001804
sS'VERB'
p480
F0.000139
sS'NOUN'
p481
F1.3000000000000001e-05
sS'ADP'
p482
F0.9980380000000001
sS'PRT'
p483
F6e-06
s(lp484
(g22
I4
tp485
atp486
a(S'tym'
p487
(dp488
S'ADV'
p489
F0.000718
sS'ADJ'
p490
F0.10790700000000002
sS'CONJ'
p491
F8.5e-05
sS'NOUN'
p492
F0.891281
sS'PRT'
p493
F6e-06
s(lp494
(g29
I5
tp495
atp496
a(S'dzisiejszego'
p497
(dp498
S'ADJ'
p499
F1.0
s(lp500
tp501
a(S'popo\xc5\x82udnia'
p502
(dp503
S'NOUN'
p504
F1.0
s(lp505
(g36
I6
tp506
atp507
a(g286
(dp508
g90
F0.0
sg82
F1.0
s(lp509
tp510
a(S'bo'
p511
(dp512
S'PRT'
p513
F0.000274
sS'CONJ'
p514
F0.999726
s(lp515
(g50
I7
tp516
atp517
a(S'tak'
p518
(dp519
S'ADV'
p520
F0.516487
sS'NOUN'
p521
F9.4e-05
sS'PRT'
p522
F0.483084
sg90
F4.1e-05
sS'CONJ'
p523
F0.000277
sS'ADJ'
p524
F1.6e-05
s(lp525
(g65
I8
tp526
atp527
a(S'w\xc5\x82a\xc5\x9bnie'
p528
(dp529
S'ADV'
p530
F0.049989
sS'PRT'
p531
F0.95001
s(lp532
(g144
I9
tp533
atp534
a(S'my\xc5\x9bl\xc4\x99'
p535
(dp536
S'VERB'
p537
F1.0
s(lp538
(g79
I11
tp539
atp540
a(g82
(dp541
g82
F1.0
s(lp542
(g82
I13
tp543
atp544
asS'sl'
p545
(lp546
(S'danes'
p547
(dp548
S'ADV'
p549
F1.0
s(lp550
tp551
a(S'popoldan'
p552
(dp553
S'ADV'
p554
F1.0
s(lp555
(g36
I6
tp556
atp557
a(S'to'
p558
(dp559
S'PRON'
p560
F0.999996
sg90
F5e-06
s(lp561
(g29
I5
tp562
atp563
a(S'poudarjam'
p564
(dp565
S'VERB'
p566
F1.0
s(lp567
(g22
I4
tp568
atp569
a(g286
(dp570
g82
F1.0
s(lp571
(g7
I0
tp572
atp573
a(S'ker'
p574
(dp575
S'CONJ'
p576
F1.0
s(lp577
(g50
I7
tp578
atp579
a(S'je'
p580
(dp581
S'PRON'
p582
F0.001163
sS'VERB'
p583
F0.9988360000000001
sg90
F1e-06
s(lp584
(g144
I9
tp585
atp586
a(S'to'
p587
(dp588
S'PRON'
p589
F0.99998
sg90
F2e-05
s(lp590
(g65
I8
tp591
atp592
a(S'moje'
p593
(dp594
S'PRON'
p595
F0.999999
s(lp596
(g57
I10
tp597
atp598
a(S'iskreno'
p599
(dp600
S'ADV'
p601
F0.005764
sS'ADJ'
p602
F0.994236
s(lp603
(g79
I11
tp604
atp605
a(S'mnenje'
p606
(dp607
S'NOUN'
p608
F1.0
s(lp609
(g72
I12
tp610
atp611
a(g82
(dp612
g82
F1.0
s(lp613
(g82
I13
tp614
atp615
asS'es'
p616
(lp617
(S'esta'
p618
(dp619
S'PRON'
p620
F1.0
sS'VERB'
p621
F0.0
s(lp622
(g29
I5
tp623
atp624
a(S'es'
p625
(dp626
S'VERB'
p627
F1.0
s(lp628
(g144
I9
tp629
atp630
a(S'mi'
p631
(dp632
S'PRON'
p633
F1.0
s(lp634
(g57
I10
tp635
atp636
a(S'honesta'
p637
(dp638
S'VERB'
p639
F0.01591
sS'ADJ'
p640
F0.98409
s(lp641
(g79
I11
tp642
atp643
a(S'opini\xc3\xb3n'
p644
(dp645
S'NOUN'
p646
F1.0
s(lp647
(g72
I12
tp648
atp649
a(S'y'
p650
(dp651
g90
F0.001029
sS'CONJ'
p652
F0.998971
s(lp653
(g65
I8
tp654
atp655
a(S'por'
p656
(dp657
S'ADP'
p658
F1.0
s(lp659
(g50
I7
tp660
atp661
a(S'eso'
p662
(dp663
S'PRON'
p664
F1.0
s(lp665
(g29
I5
tp666
atp667
a(S'la'
p668
(dp669
S'NOUN'
p670
F0.031421
sS'DET'
p671
F0.967866
sg90
F4e-06
sS'PRON'
p672
F0.000709
s(lp673
(g15
I3
tp674
atp675
a(S'expreso'
p676
(dp677
S'ADJ'
p678
F1.0
s(lp679
(g95
I1
tp680
atp681
a(S'as\xc3\xad'
p682
(dp683
S'ADV'
p684
F0.286634
sS'CONJ'
p685
F0.713366
s(lp686
tp687
a(S'esta'
p688
(dp689
S'PRON'
p690
F0.983451
sS'VERB'
p691
F0.016549
s(lp692
(g29
I5
tp693
atp694
a(S'tarde'
p695
(dp696
S'ADV'
p697
F0.052792
sS'NOUN'
p698
F0.947208
s(lp699
(g36
I6
tp700
atp701
a(g82
(dp702
g82
F1.0
s(lp703
(g82
I13
tp704
atp705
as.