(dp0
S'fr'
p1
(lp2
(S'n\xc3\xa9anmoins'
p3
(dp4
S'ADV'
p5
F1.0
s(lp6
(S'nevertheless'
p7
I0
tp8
atp9
a(S','
p10
(dp11
S'.'
p12
F1.0
s(lp13
(g10
I1
tp14
atp15
a(S'le'
p16
(dp17
S'PRON'
p18
F0.000368
sS'DET'
p19
F0.999632
s(lp20
tp21
a(S'cancer'
p22
(dp23
S'NOUN'
p24
F1.0
s(lp25
(S'cancer'
p26
I3
tp27
atp28
a(S'du'
p29
(dp30
S'ADP'
p31
F1.0
s(lp32
(S'cervical'
p33
I2
tp34
atp35
a(S'col'
p36
(dp37
S'NOUN'
p38
F1.0
s(lp39
(g33
I2
tp40
atp41
a(S'de'
p42
(dp43
S'ADP'
p44
F1.0
s(lp45
tp46
a(S"l'"
p47
(dp48
S'ADJ'
p49
F0.160704
sS'VERB'
p50
F0.06480800000000002
sS'NOUN'
p51
F0.774488
s(lp52
tp53
a(S'ut\xc3\xa9rus'
p54
(dp55
S'NOUN'
p56
F1.0
s(lp57
(g33
I2
tp58
atp59
a(S'peut'
p60
(dp61
S'VERB'
p62
F1.0
s(lp63
(S'can'
p64
I4
tp65
atp66
a(S'\xc3\xaatre'
p67
(dp68
S'VERB'
p69
F0.996884
sS'NOUN'
p70
F0.003116
s(lp71
(S'be'
p72
I5
tp73
atp74
a(S'pratiquement'
p75
(dp76
S'ADV'
p77
F1.0
s(lp78
(S'practically'
p79
I6
tp80
atp81
a(S'\xc3\xa9limin\xc3\xa9'
p82
(dp83
S'VERB'
p84
F1.0
s(lp85
(S'eliminated'
p86
I7
tp87
atp88
a(S'avec'
p89
(dp90
S'ADV'
p91
F0.002746
sS'ADP'
p92
F0.997254
s(lp93
(S'by'
p94
I8
tp95
atp96
a(S'la'
p97
(dp98
S'PRON'
p99
F1.2e-05
sS'DET'
p100
F0.999988
sS'NOUN'
p101
F0.0
s(lp102
(S'making'
p103
I9
tp104
atp105
a(S'g\xc3\xa9n\xc3\xa9ralisation'
p106
(dp107
S'NOUN'
p108
F1.0
s(lp109
tp110
a(S'des'
p111
(dp112
S'DET'
p113
F2.1e-05
sS'ADP'
p114
F0.999979
s(lp115
(g103
I9
tp116
atp117
a(S'programmes'
p118
(dp119
S'VERB'
p120
F0.0
sS'NOUN'
p121
F1.0
s(lp122
(S'programmes'
p123
I13
tp124
atp125
a(S'de'
p126
(dp127
S'ADP'
p128
F1.0
s(lp129
tp130
a(S'vaccination'
p131
(dp132
S'NOUN'
p133
F1.0
s(lp134
(S'vaccination'
p135
I10
tp136
atp137
a(S'et'
p138
(dp139
S'CONJ'
p140
F1.0
s(lp141
(S'and'
p142
I11
tp143
atp144
a(S'de'
p145
(dp146
S'ADP'
p147
F1.0
s(lp148
(g103
I9
tp149
atp150
a(S'd\xc3\xa9pistage'
p151
(dp152
S'NOUN'
p153
F1.0
s(lp154
(S'scanning'
p155
I12
tp156
atp157
a(g12
(dp158
g12
F1.0
s(lp159
(g12
I16
tp160
atp161
asS'en'
p162
(lp163
(g7
(dp164
S'ADV'
p165
F1.0
s(lp166
(g7
I0
tp167
atp168
a(g10
(dp169
g12
F1.0
s(lp170
(g10
I1
tp171
atp172
a(g33
(dp173
S'ADJ'
p174
F1.0
s(lp175
(g33
I2
tp176
atp177
a(g26
(dp178
S'NOUN'
p179
F1.0
s(lp180
(g26
I3
tp181
atp182
a(g64
(dp183
S'VERB'
p184
F0.999996
sS'NOUN'
p185
F4e-06
s(lp186
(g64
I4
tp187
atp188
a(g72
(dp189
S'VERB'
p190
F1.0
s(lp191
(g72
I5
tp192
atp193
a(g79
(dp194
S'ADV'
p195
F1.0
s(lp196
(g79
I6
tp197
atp198
a(g86
(dp199
S'VERB'
p200
F1.0
s(lp201
(g86
I7
tp202
atp203
a(g94
(dp204
S'ADV'
p205
F0.000382
sS'NOUN'
p206
F0.0
sS'ADP'
p207
F0.999618
s(lp208
(g94
I8
tp209
atp210
a(g103
(dp211
S'VERB'
p212
F0.970912
sS'NOUN'
p213
F0.029088
s(lp214
(g103
I9
tp215
atp216
a(g135
(dp217
S'NOUN'
p218
F1.0
s(lp219
(g135
I10
tp220
atp221
a(g142
(dp222
S'CONJ'
p223
F1.0
sS'NOUN'
p224
F0.0
s(lp225
(g142
I11
tp226
atp227
a(g155
(dp228
S'VERB'
p229
F1.0
s(lp230
(g155
I12
tp231
atp232
a(g123
(dp233
S'VERB'
p234
F0.000164
sS'NOUN'
p235
F0.999836
s(lp236
(g123
I13
tp237
atp238
a(S'widely'
p239
(dp240
S'ADV'
p241
F1.0
s(lp242
(g239
I14
tp243
atp244
a(S'available'
p245
(dp246
S'ADJ'
p247
F1.0
s(lp248
(g245
I15
tp249
atp250
a(g12
(dp251
g12
F1.0
s(lp252
(g12
I16
tp253
atp254
asS'nl'
p255
(lp256
(S'baarmoederkanker'
p257
(dp258
S'ADJ'
p259
F0.015598
sS'NOUN'
p260
F0.984402
s(lp261
(g33
I2
tp262
atp263
a(S'kan'
p264
(dp265
S'VERB'
p266
F0.999996
sS'NOUN'
p267
F4e-06
s(lp268
(g64
I4
tp269
atp270
a(S'echter'
p271
(dp272
S'ADV'
p273
F0.999993
sS'ADJ'
p274
F7e-06
s(lp275
(g7
I0
tp276
atp277
a(S'vrijwel'
p278
(dp279
S'ADV'
p280
F1.0
s(lp281
tp282
a(S'geheel'
p283
(dp284
S'NOUN'
p285
F0.336009
sS'ADJ'
p286
F0.663991
s(lp287
(g79
I6
tp288
atp289
a(S'worden'
p290
(dp291
S'VERB'
p292
F0.999997
sS'NOUN'
p293
F4e-06
s(lp294
(g72
I5
tp295
atp296
a(S'uitgebannen'
p297
(dp298
S'VERB'
p299
F1.0
s(lp300
(g86
I7
tp301
atp302
a(S'door'
p303
(dp304
S'ADV'
p305
F2e-06
sS'CONJ'
p306
F5.6e-05
sS'ADP'
p307
F0.999942
s(lp308
(g94
I8
tp309
atp310
a(S'overal'
p311
(dp312
S'ADV'
p313
F0.95595
sS'NOUN'
p314
F0.04405
s(lp315
(g239
I14
tp316
atp317
a(S'vaccinatie-'
p318
(dp319
S'NOUN'
p320
F0.481203
sS'ADJ'
p321
F0.518797
s(lp322
(g135
I10
tp323
atp324
a(S'en'
p325
(dp326
S'CONJ'
p327
F1.0
s(lp328
(g142
I11
tp329
atp330
a(S'screeningsprogramma'
p331
(dp332
S'NOUN'
p333
F1.0
s(lp334
tp335
a(S"'"
p336
(dp337
g12
F1.0
s(lp338
tp339
a(S's'
p340
(dp341
S'NOUN'
p342
F1.0
s(lp343
(g123
I13
tp344
atp345
a(S'te'
p346
(dp347
S'PRT'
p348
F1.0
s(lp349
(g103
I9
tp350
atp351
a(S'implementeren'
p352
(dp353
S'VERB'
p354
F0.9999990000000001
sS'NOUN'
p355
F1e-06
s(lp356
(g155
I12
tp357
atp358
a(g12
(dp359
g12
F1.0
s(lp360
(g12
I16
tp361
atp362
asS'de'
p363
(lp364
(S'nichtsdestotrotz'
p365
(dp366
S'ADV'
p367
F1.0
s(lp368
(g7
I0
tp369
atp370
a(S'kann'
p371
(dp372
S'VERB'
p373
F1.0
s(lp374
(g64
I4
tp375
atp376
a(S'geb\xc3\xa4rmutterhalskrebs'
p377
(dp378
S'NOUN'
p379
F0.9899709999999999
s(lp380
tp381
a(S'dank'
p382
(dp383
S'PRT'
p384
F0.000305
sS'ADP'
p385
F0.999694
s(lp386
(g33
I2
tp387
atp388
a(S'einer'
p389
(dp390
S'PRON'
p391
F0.000446
sS'DET'
p392
F0.998899
s(lp393
(g103
I9
tp394
atp395
a(S'impfung'
p396
(dp397
S'ADJ'
p398
F0.002345
sS'NOUN'
p399
F0.997468
s(lp400
(g135
I10
tp401
atp402
a(S'und'
p403
(dp404
S'CONJ'
p405
F1.0
s(lp406
(g142
I11
tp407
atp408
a(S'vielerorts'
p409
(dp410
S'ADV'
p411
F1.0
s(lp412
(g155
I12
tp413
atp414
a(S'verf\xc3\xbcgbaren'
p415
(dp416
S'ADJ'
p417
F1.0
s(lp418
(g245
I15
tp419
atp420
a(S'vorsorgeprogrammen'
p421
(dp422
S'VERB'
p423
F0.001733
sS'NOUN'
p424
F0.997825
s(lp425
(g155
I12
tp426
atp427
a(S'praktisch'
p428
(dp429
S'ADJ'
p430
F1.0
s(lp431
(g79
I6
tp432
atp433
a(S'g\xc3\xa4nzlich'
p434
(dp435
S'ADJ'
p436
F1.0
s(lp437
tp438
a(S'vermieden'
p439
(dp440
S'VERB'
p441
F0.998634
sS'ADJ'
p442
F0.001366
s(lp443
(g155
I12
tp444
atp445
a(S'werden'
p446
(dp447
S'VERB'
p448
F0.999996
s(lp449
(g72
I5
tp450
atp451
a(g12
(dp452
g12
F1.0
s(lp453
(g12
I16
tp454
atp455
asS'it'
p456
(lp457
(S'il'
p458
(dp459
S'DET'
p460
F1.0
s(lp461
(g26
I3
tp462
atp463
a(S'tumore'
p464
(dp465
S'NOUN'
p466
F1.0
s(lp467
(g33
I2
tp468
atp469
a(S'al'
p470
(dp471
S'ADP'
p472
F1.0
s(lp473
(g33
I2
tp474
atp475
a(S'collo'
p476
(dp477
S'VERB'
p478
F0.04772
sS'NOUN'
p479
F0.947716
sS'ADP'
p480
F0.004564
s(lp481
(g33
I2
tp482
atp483
a(S"dell'"
p484
(dp485
S'ADJ'
p486
F0.039049
sS'VERB'
p487
F0.011176000000000002
sS'NOUN'
p488
F0.949775
s(lp489
tp490
a(S'utero'
p491
(dp492
S'NOUN'
p493
F1.0
s(lp494
(g33
I2
tp495
atp496
a(S'tuttavia'
p497
(dp498
S'ADV'
p499
F1.0
s(lp500
(g7
I0
tp501
atp502
a(S'pu\xc3\xb2'
p503
(dp504
S'VERB'
p505
F1.0
s(lp506
(g64
I4
tp507
atp508
a(S'essere'
p509
(dp510
S'VERB'
p511
F0.99998
sS'NOUN'
p512
F2e-05
s(lp513
(g72
I5
tp514
atp515
a(S'eliminato'
p516
(dp517
S'VERB'
p518
F1.0
s(lp519
(g86
I7
tp520
atp521
a(S'rendendo'
p522
(dp523
S'VERB'
p524
F1.0
s(lp525
(g103
I9
tp526
atp527
a(S'pi\xc3\xb9'
p528
(dp529
S'ADV'
p530
F0.999284
sS'NOUN'
p531
F3.8e-05
sS'ADJ'
p532
F0.000449
sS'ADP'
p533
F0.00023
s(lp534
(g239
I14
tp535
atp536
a(S'accessibili'
p537
(dp538
S'ADJ'
p539
F1.0
s(lp540
(g245
I15
tp541
atp542
a(S'i'
p543
(dp544
S'DET'
p545
F1.0
s(lp546
tp547
a(S'programmi'
p548
(dp549
S'VERB'
p550
F0.000155
sS'NOUN'
p551
F0.999845
s(lp552
(g123
I13
tp553
atp554
a(S'di'
p555
(dp556
S'CONJ'
p557
F4e-06
sS'ADP'
p558
F0.999996
s(lp559
tp560
a(S'vaccinazione'
p561
(dp562
S'NOUN'
p563
F1.0
s(lp564
(g135
I10
tp565
atp566
a(S'e'
p567
(dp568
S'CONJ'
p569
F1.0
s(lp570
(g142
I11
tp571
atp572
a(S'di'
p573
(dp574
S'CONJ'
p575
F2e-06
sS'ADP'
p576
F0.999998
s(lp577
tp578
a(S'controllo'
p579
(dp580
S'VERB'
p581
F2e-06
sS'NOUN'
p582
F0.999998
s(lp583
(g155
I12
tp584
atp585
a(g12
(dp586
g12
F1.0
s(lp587
(g12
I16
tp588
atp589
asS'sk'
p590
(lp591
(S'rakovinu'
p592
(dp593
S'NOUN'
p594
F1.0
s(lp595
(g26
I3
tp596
atp597
a(S'kr\xc4\x8dka'
p598
(dp599
S'NOUN'
p600
F1.0
s(lp601
tp602
a(S'maternice'
p603
(dp604
S'NOUN'
p605
F1.0
s(lp606
(g33
I2
tp607
atp608
a(S'v\xc5\xa1ak'
p609
(dp610
S'X'
p611
F0.556796
sS'CONJ'
p612
F0.443204
s(lp613
(g7
I0
tp614
atp615
a(S'mo\xc5\xbeno'
p616
(dp617
S'ADV'
p618
F0.342026
sg611
F0.657974
s(lp619
(g64
I4
tp620
atp621
a(S'prakticky'
p622
(dp623
S'ADV'
p624
F0.554798
sg611
F0.445202
s(lp625
(g79
I6
tp626
atp627
a(S'eliminova\xc5\xa5'
p628
(dp629
S'VERB'
p630
F1.0
s(lp631
(g86
I7
tp632
atp633
a(S'prostredn\xc3\xadctvom'
p634
(dp635
S'NOUN'
p636
F0.001754
sS'ADP'
p637
F0.998246
s(lp638
(g94
I8
tp639
atp640
a(S'o\xc4\x8dkovania'
p641
(dp642
S'NOUN'
p643
F1.0
s(lp644
(g135
I10
tp645
atp646
a(S'a'
p647
(dp648
g611
F0.000953
sS'CONJ'
p649
F0.998164
sS'NOUN'
p650
F0.000124
sS'ADP'
p651
F0.000676
sS'PRT'
p652
F8.2e-05
s(lp653
(g142
I11
tp654
atp655
a(S'skr\xc3\xadningov\xc3\xbdch'
p656
(dp657
S'ADJ'
p658
F1.0
s(lp659
(g155
I12
tp660
atp661
a(S'programov'
p662
(dp663
S'NOUN'
p664
F1.0
s(lp665
(g123
I13
tp666
atp667
a(g10
(dp668
g12
F1.0
s(lp669
tp670
a(S'ktor\xc3\xa9'
p671
(dp672
S'PRON'
p673
F1.0
s(lp674
(g245
I15
tp675
atp676
a(S's\xc3\xba'
p677
(dp678
S'VERB'
p679
F1.0
s(lp680
tp681
a(S'\xc5\xa1iroko'
p682
(dp683
S'ADV'
p684
F0.973405
sg611
F0.026595
s(lp685
(g239
I14
tp686
atp687
a(S'dostupn\xc3\xa9'
p688
(dp689
S'ADJ'
p690
F1.0
s(lp691
(g245
I15
tp692
atp693
a(g12
(dp694
g12
F1.0
s(lp695
(g12
I16
tp696
atp697
asS'pl'
p698
(lp699
(S'niemniej'
p700
(dp701
S'PRT'
p702
F1.0
s(lp703
tp704
a(S'jednak'
p705
(dp706
S'PRT'
p707
F0.20588
sS'CONJ'
p708
F0.79412
s(lp709
(g7
I0
tp710
atp711
a(S'zachorowalno\xc5\x9b\xc4\x87'
p712
(dp713
S'NOUN'
p714
F1.0
s(lp715
(g33
I2
tp716
atp717
a(S'na'
p718
(dp719
g611
F2.2e-05
sS'VERB'
p720
F4.7000000000000004e-05
sS'NOUN'
p721
F5e-06
sS'ADP'
p722
F0.99991
sS'PRT'
p723
F1.7e-05
s(lp724
tp725
a(S'raka'
p726
(dp727
S'NOUN'
p728
F1.0
s(lp729
(g26
I3
tp730
atp731
a(S'szyjki'
p732
(dp733
S'NOUN'
p734
F1.0
s(lp735
tp736
a(S'macicy'
p737
(dp738
S'NOUN'
p739
F1.0
s(lp740
(g33
I2
tp741
atp742
a(S'mo\xc5\xbcna'
p743
(dp744
S'ADJ'
p745
F1.0
s(lp746
(g64
I4
tp747
atp748
a(S'praktycznie'
p749
(dp750
S'ADV'
p751
F0.973518
sS'PRT'
p752
F0.026482
s(lp753
(g79
I6
tp754
atp755
a(S'wykluczy\xc4\x87'
p756
(dp757
S'VERB'
p758
F1.0
s(lp759
(g86
I7
tp760
atp761
a(g10
(dp762
g611
F0.0
sg12
F1.0
s(lp763
tp764
a(S'zapewniaj\xc4\x85c'
p765
(dp766
S'VERB'
p767
F1.0
s(lp768
(g103
I9
tp769
atp770
a(S'dost\xc4\x99p'
p771
(dp772
S'NOUN'
p773
F1.0
s(lp774
(g245
I15
tp775
atp776
a(S'do'
p777
(dp778
g611
F0.0
sS'NOUN'
p779
F1e-06
sS'ADP'
p780
F0.999999
s(lp781
(g94
I8
tp782
atp783
a(S'szczepie\xc5\x84'
p784
(dp785
S'NOUN'
p786
F1.0
s(lp787
(g135
I10
tp788
atp789
a(g543
(dp790
S'PRT'
p791
F0.001173
sS'CONJ'
p792
F0.99881
sS'PRON'
p793
F2e-06
sS'NOUN'
p794
F1.5e-05
sg611
F1e-06
s(lp795
(g142
I11
tp796
atp797
a(S'program\xc3\xb3w'
p798
(dp799
S'NOUN'
p800
F1.0
s(lp801
(g123
I13
tp802
atp803
a(S'bada\xc5\x84'
p804
(dp805
S'NOUN'
p806
F1.0
s(lp807
tp808
a(S'przesiewowych'
p809
(dp810
S'ADV'
p811
F0.000387
sS'NOUN'
p812
F0.08122599999999999
sS'VERB'
p813
F0.005825999999999998
sS'ADJ'
p814
F0.912562
s(lp815
(g155
I12
tp816
atp817
a(g12
(dp818
g12
F1.0
s(lp819
(g12
I16
tp820
atp821
asS'sl'
p822
(lp823
(S'kljub'
p824
(dp825
S'ADP'
p826
F1.0
s(lp827
tp828
a(S'temu'
p829
(dp830
S'PRON'
p831
F1.0
s(lp832
(g7
I0
tp833
atp834
a(S'je'
p835
(dp836
S'PRON'
p837
F0.001334
sS'VERB'
p838
F0.998663
sg611
F3e-06
s(lp839
(g72
I5
tp840
atp841
a(S'mogo\xc4\x8de'
p842
(dp843
S'ADV'
p844
F0.314642
sS'ADJ'
p845
F0.685358
s(lp846
(g64
I4
tp847
atp848
a(S'raka'
p849
(dp850
S'NOUN'
p851
F1.0
s(lp852
(g26
I3
tp853
atp854
a(S'materni\xc4\x8dnega'
p855
(dp856
S'ADJ'
p857
F1.0
s(lp858
tp859
a(S'vratu'
p860
(dp861
S'NOUN'
p862
F1.0
s(lp863
(g33
I2
tp864
atp865
a(S'tako'
p866
(dp867
S'ADV'
p868
F0.935566
sS'PRON'
p869
F7.699999999999999e-05
sS'CONJ'
p870
F0.064357
s(lp871
tp872
a(S'reko\xc4\x8d'
p873
(dp874
S'ADV'
p875
F1.0
s(lp876
(g79
I6
tp877
atp878
a(S'odpraviti'
p879
(dp880
S'VERB'
p881
F1.0
s(lp882
(g86
I7
tp883
atp884
a(g340
(dp885
S'VERB'
p886
F0.000703
sS'NOUN'
p887
F0.001734
sS'ADP'
p888
F0.997564
s(lp889
(g94
I8
tp890
atp891
a(S'\xc5\xa1iroko'
p892
(dp893
S'ADV'
p894
F0.797075
sS'ADJ'
p895
F0.202926
s(lp896
(g239
I14
tp897
atp898
a(S'dostopnostjo'
p899
(dp900
S'ADV'
p901
F0.048823
sS'ADJ'
p902
F0.0022150000000000004
sS'VERB'
p903
F0.127989
sS'NOUN'
p904
F0.8200940000000001
sS'NUM'
p905
F0.000877
s(lp906
tp907
a(S'programov'
p908
(dp909
S'NOUN'
p910
F1.0
s(lp911
(g123
I13
tp912
atp913
a(S'cepljenja'
p914
(dp915
S'NOUN'
p916
F1.0
s(lp917
(g135
I10
tp918
atp919
a(S'in'
p920
(dp921
S'ADV'
p922
F5.3e-05
sg611
F1.6e-05
sS'CONJ'
p923
F0.999907
sS'NOUN'
p924
F2.4e-05
s(lp925
(g142
I11
tp926
atp927
a(S'iskanja'
p928
(dp929
S'NOUN'
p930
F1.0
s(lp931
(g155
I12
tp932
atp933
a(g12
(dp934
g12
F1.0
s(lp935
(g12
I16
tp936
atp937
asS'es'
p938
(lp939
(S'no'
p940
(dp941
S'ADV'
p942
F1.0
s(lp943
tp944
a(S'obstante'
p945
(dp946
S'ADV'
p947
F1.0
s(lp948
(g7
I0
tp949
atp950
a(g10
(dp951
g12
F1.0
s(lp952
(g10
I1
tp953
atp954
a(S'el'
p955
(dp956
S'PRON'
p957
F1e-05
sS'DET'
p958
F0.99999
s(lp959
tp960
a(S'c\xc3\xa1ncer'
p961
(dp962
S'NOUN'
p963
F1.0
s(lp964
(g26
I3
tp965
atp966
a(S'de'
p967
(dp968
g611
F2.9e-05
sS'CONJ'
p969
F0.000449
sS'ADP'
p970
F0.999522
s(lp971
(g33
I2
tp972
atp973
a(S'cuello'
p974
(dp975
S'NOUN'
p976
F1.0
s(lp977
tp978
a(S'de'
p979
(dp980
g611
F2.9e-05
sS'CONJ'
p981
F0.000449
sS'ADP'
p982
F0.999522
s(lp983
tp984
a(S'\xc3\xbatero'
p985
(dp986
S'NOUN'
p987
F1.0
s(lp988
(g33
I2
tp989
atp990
a(S'puede'
p991
(dp992
S'VERB'
p993
F1.0
s(lp994
(g64
I4
tp995
atp996
a(S'eliminarse'
p997
(dp998
S'VERB'
p999
F1.0
s(lp1000
(g86
I7
tp1001
atp1002
a(S'pr\xc3\xa1cticamente'
p1003
(dp1004
S'ADV'
p1005
F1.0
s(lp1006
(g79
I6
tp1007
atp1008
a(S'aplicando'
p1009
(dp1010
S'VERB'
p1011
F1.0
s(lp1012
(g155
I12
tp1013
atp1014
a(S'de'
p1015
(dp1016
g611
F4e-06
sS'CONJ'
p1017
F0.000408
sS'ADP'
p1018
F0.999589
s(lp1019
tp1020
a(S'forma'
p1021
(dp1022
S'VERB'
p1023
F0.000177
sS'NOUN'
p1024
F0.999823
s(lp1025
tp1026
a(S'generalizada'
p1027
(dp1028
S'VERB'
p1029
F0.06241
sS'ADJ'
p1030
F0.93759
s(lp1031
(g239
I14
tp1032
atp1033
a(S'programas'
p1034
(dp1035
S'NOUN'
p1036
F1.0
s(lp1037
(g123
I13
tp1038
atp1039
a(S'de'
p1040
(dp1041
g611
F2.9e-05
sS'CONJ'
p1042
F0.000449
sS'ADP'
p1043
F0.999522
s(lp1044
tp1045
a(S'vacunaci\xc3\xb3n'
p1046
(dp1047
S'NOUN'
p1048
F1.0
s(lp1049
(g135
I10
tp1050
atp1051
a(S'y'
p1052
(dp1053
g611
F0.001008
sS'CONJ'
p1054
F0.998992
s(lp1055
(g142
I11
tp1056
atp1057
a(S'diagn\xc3\xb3stico'
p1058
(dp1059
S'NOUN'
p1060
F1.0
s(lp1061
tp1062
a(S'por'
p1063
(dp1064
S'ADP'
p1065
F1.0
s(lp1066
(g94
I8
tp1067
atp1068
a(S'esc\xc3\xa1ner'
p1069
(dp1070
S'NOUN'
p1071
F1.0
s(lp1072
(g155
I12
tp1073
atp1074
a(g12
(dp1075
g12
F1.0
s(lp1076
(g12
I16
tp1077
atp1078
as.