(dp0
S'fr'
p1
(lp2
(S"j'"
p3
(dp4
S'ADJ'
p5
F0.10952
sS'X'
p6
F0.13611
sS'VERB'
p7
F0.004198999999999999
sS'NOUN'
p8
F0.750172
s(lp9
tp10
a(S'ai'
p11
(dp12
S'VERB'
p13
F1.0
s(lp14
(S'i'
p15
I3
tp16
atp17
a(S'constat\xc3\xa9'
p18
(dp19
S'VERB'
p20
F1.0
s(lp21
(S'encountered'
p22
I4
tp23
atp24
a(S'une'
p25
(dp26
S'NOUN'
p27
F1.2e-05
sS'NUM'
p28
F0.057193
sS'DET'
p29
F0.942795
s(lp30
(S'a'
p31
I5
tp32
atp33
a(S'm\xc3\xa9fiance'
p34
(dp35
S'NOUN'
p36
F1.0
s(lp37
tp38
a(S'croissante'
p39
(dp40
S'ADJ'
p41
F1.0
s(lp42
(S'growing'
p43
I6
tp44
atp45
a(S'des'
p46
(dp47
S'DET'
p48
F2.2e-05
sS'ADP'
p49
F0.999978
s(lp50
(S'among'
p51
I0
tp52
atp53
a(S'travailleurs'
p54
(dp55
S'ADJ'
p56
F0.040423
sS'NOUN'
p57
F0.959577
s(lp58
(S'workers'
p59
I1
tp60
atp61
a(S'vis-\xc3\xa0-vis'
p62
(dp63
S'ADV'
p64
F0.973965
sS'NOUN'
p65
F0.026035
s(lp66
(S'mistrust'
p67
I7
tp68
atp69
a(S'des'
p70
(dp71
S'DET'
p72
F0.000117
sS'ADP'
p73
F0.999883
s(lp74
(S'of'
p75
I8
tp76
atp77
a(S'institutions'
p78
(dp79
S'NOUN'
p80
F1.0
s(lp81
(S'institutions'
p82
I11
tp83
atp84
a(S'europ\xc3\xa9ennes'
p85
(dp86
S'NOUN'
p87
F0.005274
sS'ADJ'
p88
F0.994726
s(lp89
(S'european'
p90
I10
tp91
atp92
a(S'.'
p93
(dp94
g93
F1.0
s(lp95
(g93
I12
tp96
atp97
asS'en'
p98
(lp99
(g51
(dp100
S'ADP'
p101
F1.0
s(lp102
(g51
I0
tp103
atp104
a(g59
(dp105
S'NOUN'
p106
F1.0
s(lp107
(g59
I1
tp108
atp109
a(S','
p110
(dp111
g93
F1.0
s(lp112
(g110
I2
tp113
atp114
a(g15
(dp115
g6
F0.010611
sS'NOUN'
p116
F0.9893890000000001
s(lp117
(g15
I3
tp118
atp119
a(g22
(dp120
S'VERB'
p121
F1.0
s(lp122
(g22
I4
tp123
atp124
a(g31
(dp125
S'NOUN'
p126
F0.0
sS'DET'
p127
F1.0
s(lp128
(g31
I5
tp129
atp130
a(g43
(dp131
S'NOUN'
p132
F0.12423
sS'VERB'
p133
F0.5392
sS'ADJ'
p134
F0.33657
s(lp135
(g43
I6
tp136
atp137
a(g67
(dp138
S'VERB'
p139
F0.0013629999999999998
sS'NOUN'
p140
F0.998637
s(lp141
(g67
I7
tp142
atp143
a(g75
(dp144
S'ADP'
p145
F1.0
s(lp146
(g75
I8
tp147
atp148
a(S'the'
p149
(dp150
S'NOUN'
p151
F1e-06
sS'DET'
p152
F0.999999
s(lp153
(g149
I9
tp154
atp155
a(g90
(dp156
S'NOUN'
p157
F0.13958800000000002
sS'VERB'
p158
F9e-06
sS'ADJ'
p159
F0.860402
s(lp160
(g90
I10
tp161
atp162
a(g82
(dp163
S'NOUN'
p164
F1.0
s(lp165
(g82
I11
tp166
atp167
a(g93
(dp168
g93
F1.0
s(lp169
(g93
I12
tp170
atp171
asS'nl'
p172
(lp173
(S'onder'
p174
(dp175
S'ADV'
p176
F4.7e-05
sS'ADP'
p177
F0.999953
s(lp178
(g51
I0
tp179
atp180
a(S'de'
p181
(dp182
S'DET'
p183
F1.0
s(lp184
tp185
a(S'arbeiders'
p186
(dp187
S'NOUN'
p188
F1.0
s(lp189
(g59
I1
tp190
atp191
a(S'zag'
p192
(dp193
S'VERB'
p194
F1.0
s(lp195
(g22
I4
tp196
atp197
a(S'ik'
p198
(dp199
S'PRON'
p200
F1.0
sS'NOUN'
p201
F0.0
s(lp202
(g15
I3
tp203
atp204
a(S'een'
p205
(dp206
S'ADJ'
p207
F0.0
sS'PRON'
p208
F1.6e-05
sS'NUM'
p209
F1e-06
sS'DET'
p210
F0.999983
s(lp211
(g31
I5
tp212
atp213
a(S'groeiend'
p214
(dp215
S'VERB'
p216
F1.0
s(lp217
(g43
I6
tp218
atp219
a(S'wantrouwen'
p220
(dp221
S'VERB'
p222
F0.6366
sS'NOUN'
p223
F0.363401
s(lp224
tp225
a(S'tegen'
p226
(dp227
S'ADV'
p228
F0.000168
sS'ADP'
p229
F0.999832
s(lp230
(g67
I7
tp231
atp232
a(S'de'
p233
(dp234
S'DET'
p235
F1.0
s(lp236
(g149
I9
tp237
atp238
a(S'europese'
p239
(dp240
S'NOUN'
p241
F1.0
s(lp242
(g90
I10
tp243
atp244
a(S'instellingen'
p245
(dp246
S'NOUN'
p247
F1.0
s(lp248
(g82
I11
tp249
atp250
a(g93
(dp251
g93
F1.0
s(lp252
(g93
I12
tp253
atp254
asS'de'
p255
(lp256
(S'bei'
p257
(dp258
S'PRT'
p259
F5e-06
sS'ADP'
p260
F0.999995
s(lp261
tp262
a(S'den'
p263
(dp264
S'PRON'
p265
F7.7e-05
sS'DET'
p266
F0.99992
s(lp267
(g51
I0
tp268
atp269
a(S'arbeitern'
p270
(dp271
S'ADJ'
p272
F0.021193
sS'NOUN'
p273
F0.961423
s(lp274
(g59
I1
tp275
atp276
a(S'beobachtete'
p277
(dp278
S'VERB'
p279
F0.99953
sS'ADJ'
p280
F0.00047
s(lp281
(g22
I4
tp282
atp283
a(S'ich'
p284
(dp285
S'PRON'
p286
F1.0
s(lp287
(g15
I3
tp288
atp289
a(S'ein'
p290
(dp291
S'PRT'
p292
F0.005514
sS'DET'
p293
F0.994191
s(lp294
(g31
I5
tp295
atp296
a(S'wachsendes'
p297
(dp298
S'ADJ'
p299
F1.0
s(lp300
(g43
I6
tp301
atp302
a(S'misstrauen'
p303
(dp304
S'VERB'
p305
F1.0
s(lp306
tp307
a(S'gegen\xc3\xbcber'
p308
(dp309
S'PRT'
p310
F0.001691
sS'ADP'
p311
F0.997036
s(lp312
(g67
I7
tp313
atp314
a(S'den'
p315
(dp316
S'PRON'
p317
F0.000113
sS'DET'
p318
F0.999886
s(lp319
(g149
I9
tp320
atp321
a(S'europ\xc3\xa4ischen'
p322
(dp323
S'ADJ'
p324
F1.0
s(lp325
(g90
I10
tp326
atp327
a(S'institutionen'
p328
(dp329
S'ADJ'
p330
F0.00244
sS'NOUN'
p331
F0.993729
s(lp332
(g82
I11
tp333
atp334
a(g93
(dp335
g93
F1.0
s(lp336
(g93
I12
tp337
atp338
asS'it'
p339
(lp340
(S'ho'
p341
(dp342
S'VERB'
p343
F1.0
s(lp344
(g15
I3
tp345
atp346
a(S'riscontrato'
p347
(dp348
S'VERB'
p349
F1.0
s(lp350
(g22
I4
tp351
atp352
a(g110
(dp353
g93
F1.0
s(lp354
tp355
a(S'tra'
p356
(dp357
S'CONJ'
p358
F0.003283
sS'ADP'
p359
F0.996717
s(lp360
(g51
I0
tp361
atp362
a(g15
(dp363
S'DET'
p364
F1.0
s(lp365
tp366
a(S'lavoratori'
p367
(dp368
S'NOUN'
p369
F1.0
s(lp370
(g59
I1
tp371
atp372
a(g110
(dp373
g93
F1.0
s(lp374
(g110
I2
tp375
atp376
a(S'una'
p377
(dp378
S'PRON'
p379
F0.000143
sS'DEF'
p380
F0.999857
s(lp381
(g31
I5
tp382
atp383
a(S'crescente'
p384
(dp385
S'NOUN'
p386
F0.060743
sS'VERB'
p387
F2.1e-05
sS'ADJ'
p388
F0.939236
s(lp389
(g43
I6
tp390
atp391
a(S'sfiducia'
p392
(dp393
S'VERB'
p394
F0.058447
sS'NOUN'
p395
F0.941553
s(lp396
tp397
a(S'verso'
p398
(dp399
S'NOUN'
p400
F7e-05
sS'VERB'
p401
F0.002897
sS'ADJ'
p402
F0.037457
sS'ADP'
p403
F0.959576
s(lp404
(g67
I7
tp405
atp406
a(S'le'
p407
(dp408
S'PRON'
p409
F7e-05
sS'DET'
p410
F0.99993
s(lp411
tp412
a(S'istituzioni'
p413
(dp414
S'NOUN'
p415
F1.0
s(lp416
(g82
I11
tp417
atp418
a(S'europee'
p419
(dp420
S'NOUN'
p421
F0.015475
sS'ADJ'
p422
F0.984525
s(lp423
(g90
I10
tp424
atp425
a(g93
(dp426
g93
F1.0
s(lp427
(g93
I12
tp428
atp429
asS'sk'
p430
(lp431
(S'medzi'
p432
(dp433
S'NOUN'
p434
F0.000806
sS'ADP'
p435
F0.999194
s(lp436
(g51
I0
tp437
atp438
a(S'pracovn\xc3\xadkmi'
p439
(dp440
S'NOUN'
p441
F1.0
s(lp442
(g59
I1
tp443
atp444
a(S'som'
p445
(dp446
S'VERB'
p447
F1.0
s(lp448
(g15
I3
tp449
atp450
a(S'sa'
p451
(dp452
S'PRT'
p453
F0.999994
sS'ADP'
p454
F0.0
sg6
F6e-06
s(lp455
(g22
I4
tp456
atp457
a(S'stretol'
p458
(dp459
S'VERB'
p460
F1.0
s(lp461
tp462
a(S's'
p463
(dp464
g6
F0.00146
sS'CONJ'
p465
F5.1e-05
sS'NOUN'
p466
F1.8e-05
sS'ADP'
p467
F0.998463
sS'PRT'
p468
F8e-06
s(lp469
(g22
I4
tp470
atp471
a(S'narastaj\xc3\xbacou'
p472
(dp473
S'NOUN'
p474
F0.024668
sS'VERB'
p475
F0.5054230000000001
sS'ADJ'
p476
F0.469909
s(lp477
(g43
I6
tp478
atp479
a(S'ned\xc3\xb4verou'
p480
(dp481
S'NOUN'
p482
F1.0
s(lp483
tp484
a(S'vo\xc4\x8di'
p485
(dp486
S'ADV'
p487
F0.000422
sS'ADP'
p488
F0.999578
s(lp489
(g67
I7
tp490
atp491
a(S'in\xc5\xa1tit\xc3\xbaci\xc3\xa1m'
p492
(dp493
S'NOUN'
p494
F1.0
s(lp495
(g82
I11
tp496
atp497
a(S'e\xc3\x9a'
p498
(dp499
S'ADV'
p500
F0.001839
sS'ADJ'
p501
F0.09263400000000001
sS'VERB'
p502
F0.835061
sS'NOUN'
p503
F0.068732
sg6
F0.001733
s(lp504
(g90
I10
tp505
atp506
a(g93
(dp507
g93
F1.0
s(lp508
(g93
I12
tp509
atp510
asS'pl'
p511
(lp512
(S'w\xc5\x9br\xc3\xb3d'
p513
(dp514
S'ADP'
p515
F1.0
s(lp516
(g51
I0
tp517
atp518
a(S'pracownik\xc3\xb3w'
p519
(dp520
S'NOUN'
p521
F1.0
s(lp522
(g59
I1
tp523
atp524
a(S'zauwa\xc5\xbcy\xc5\x82em'
p525
(dp526
S'ADJ'
p527
F0.099006
sS'VERB'
p528
F0.25349999999999995
sS'NOUN'
p529
F0.6474930000000003
s(lp530
(g22
I4
tp531
atp532
a(S'rosn\xc4\x85cy'
p533
(dp534
S'VERB'
p535
F1.0
s(lp536
(g43
I6
tp537
atp538
a(S'brak'
p539
(dp540
S'ADJ'
p541
F0.000849
sS'NOUN'
p542
F0.999152
s(lp543
tp544
a(S'zaufania'
p545
(dp546
S'VERB'
p547
F0.018631
sS'NOUN'
p548
F0.981369
s(lp549
(g67
I7
tp550
atp551
a(S'do'
p552
(dp553
g6
F0.0
sS'NOUN'
p554
F3e-06
sS'ADP'
p555
F0.999996
s(lp556
(g149
I9
tp557
atp558
a(S'instytucji'
p559
(dp560
S'NOUN'
p561
F1.0
s(lp562
(g82
I11
tp563
atp564
a(S'europejskich'
p565
(dp566
S'ADJ'
p567
F1.0000010000000001
s(lp568
(g90
I10
tp569
atp570
a(g93
(dp571
g93
F1.0
s(lp572
(g93
I12
tp573
atp574
asS'sl'
p575
(lp576
(S'opazil'
p577
(dp578
S'VERB'
p579
F1.0
s(lp580
(g22
I4
tp581
atp582
a(S'sem'
p583
(dp584
S'ADV'
p585
F0.068718
sS'PRT'
p586
F0.003141
sS'VERB'
p587
F0.928141
s(lp588
(g15
I3
tp589
atp590
a(g110
(dp591
g93
F1.0
s(lp592
tp593
a(S'da'
p594
(dp595
S'PRT'
p596
F2e-06
sS'CONJ'
p597
F0.999988
sS'VERB'
p598
F1e-05
sg6
F0.0
s(lp599
(g31
I5
tp600
atp601
a(S'so'
p602
(dp603
g6
F1e-06
sS'VERB'
p604
F0.999998
s(lp605
(g110
I2
tp606
atp607
a(S'delavci'
p608
(dp609
S'NOUN'
p610
F1.0
s(lp611
(g59
I1
tp612
atp613
a(S'do'
p614
(dp615
g6
F2e-06
sS'ADP'
p616
F0.999998
s(lp617
(g75
I8
tp618
atp619
a(S'evropskih'
p620
(dp621
S'ADJ'
p622
F1.0
s(lp623
(g90
I10
tp624
atp625
a(S'institucij'
p626
(dp627
S'NOUN'
p628
F1.0
s(lp629
(g82
I11
tp630
atp631
a(S'vedno'
p632
(dp633
S'ADV'
p634
F1.0
s(lp635
tp636
a(S'bolj'
p637
(dp638
S'ADV'
p639
F1.0
s(lp640
(g43
I6
tp641
atp642
a(S'nezaupljivi'
p643
(dp644
S'ADJ'
p645
F1.0
s(lp646
(g67
I7
tp647
atp648
a(g93
(dp649
g93
F1.0
s(lp650
(g93
I12
tp651
atp652
asS'es'
p653
(lp654
(S'he'
p655
(dp656
S'VERB'
p657
F1.0
s(lp658
(g15
I3
tp659
atp660
a(S'podido'
p661
(dp662
S'VERB'
p663
F1.0
s(lp664
tp665
a(S'constatar'
p666
(dp667
S'VERB'
p668
F1.0
s(lp669
(g22
I4
tp670
atp671
a(g110
(dp672
g93
F1.0
s(lp673
tp674
a(S'entre'
p675
(dp676
g6
F6e-06
sS'ADP'
p677
F0.999994
s(lp678
(g51
I0
tp679
atp680
a(S'los'
p681
(dp682
S'PRON'
p683
F0.0
sS'DET'
p684
F1.0
s(lp685
tp686
a(S'trabajadores'
p687
(dp688
S'ADJ'
p689
F0.449001
sS'NOUN'
p690
F0.550999
s(lp691
(g59
I1
tp692
atp693
a(g110
(dp694
g93
F1.0
s(lp695
(g110
I2
tp696
atp697
a(S'una'
p698
(dp699
S'DET'
p700
F1.0
s(lp701
(g31
I5
tp702
atp703
a(S'creciente'
p704
(dp705
S'VERB'
p706
F0.040181
sS'ADJ'
p707
F0.959819
s(lp708
(g43
I6
tp709
atp710
a(S'desconfianza'
p711
(dp712
S'NOUN'
p713
F1.0
s(lp714
tp715
a(S'hacia'
p716
(dp717
S'VERB'
p718
F0.000119
sS'ADP'
p719
F0.999881
s(lp720
(g67
I7
tp721
atp722
a(S'las'
p723
(dp724
S'PRON'
p725
F0.0
sS'DET'
p726
F1.0
s(lp727
(g149
I9
tp728
atp729
a(S'instituciones'
p730
(dp731
S'NOUN'
p732
F1.0
s(lp733
(g82
I11
tp734
atp735
a(S'europeas'
p736
(dp737
S'NOUN'
p738
F0.008827
sS'ADJ'
p739
F0.991173
s(lp740
(g90
I10
tp741
atp742
a(g93
(dp743
g93
F1.0
s(lp744
(g93
I12
tp745
atp746
as.