(dp0
S'fr'
p1
(lp2
(S'les'
p3
(dp4
S'PRON'
p5
F0.000397
sS'DET'
p6
F0.99958
sS'ADP'
p7
F2.3e-05
s(lp8
(S'the'
p9
I0
tp10
atp11
a(S'auteurs'
p12
(dp13
S'NOUN'
p14
F1.0
s(lp15
(S'perpetrators'
p16
I1
tp17
atp18
a(S'de'
p19
(dp20
S'ADP'
p21
F1.0
s(lp22
tp23
a(S'ces'
p24
(dp25
S'PRON'
p26
F1.0
s(lp27
tp28
a(S'actes'
p29
(dp30
S'VERB'
p31
F0.005515
sS'NOUN'
p32
F0.994485
s(lp33
(g16
I1
tp34
atp35
a(S','
p36
(dp37
S'.'
p38
F1.0
s(lp39
(g36
I2
tp40
atp41
a(S'qui'
p42
(dp43
S'PRON'
p44
F1.0
s(lp45
(S'who'
p46
I3
tp47
atp48
a(S'appartiennent'
p49
(dp50
S'VERB'
p51
F1.0
s(lp52
(S'belong'
p53
I4
tp54
atp55
a(S'en'
p56
(dp57
S'PRON'
p58
F0.001468
sS'ADP'
p59
F0.998532
s(lp60
tp61
a(S'majorit\xc3\xa9'
p62
(dp63
S'NOUN'
p64
F1.0
s(lp65
(S'mainly'
p66
I5
tp67
atp68
a(S'\xc3\xa0'
p69
(dp70
S'ADP'
p71
F1.0
s(lp72
tp73
a(S'des'
p74
(dp75
S'DET'
p76
F0.00067
sS'ADP'
p77
F0.99933
s(lp78
(S'are'
p79
I10
tp80
atp81
a(S'institutions'
p82
(dp83
S'NOUN'
p84
F1.0
s(lp85
(S'institutions'
p86
I8
tp87
atp88
a(S"d'"
p89
(dp90
S'NOUN'
p91
F0.032441
sS'VERB'
p92
F0.694014
sS'ADJ'
p93
F0.273544
s(lp94
(S'to'
p95
I6
tp96
atp97
a(S'\xc3\x89tat'
p98
(dp99
S'NOUN'
p100
F1.0
s(lp101
(S'state'
p102
I7
tp103
atp104
a(g36
(dp105
g38
F1.0
s(lp106
(g36
I9
tp107
atp108
a(S'agissent'
p109
(dp110
S'VERB'
p111
F1.000001
s(lp112
(S'acting'
p113
I11
tp114
atp115
a(S'en'
p116
(dp117
S'PRON'
p118
F8e-06
sS'ADP'
p119
F0.999992
s(lp120
(S'with'
p121
I12
tp122
atp123
a(S'toute'
p124
(dp125
S'ADV'
p126
F2.5e-05
sS'PRON'
p127
F0.999975
s(lp128
tp129
a(S'impunit\xc3\xa9'
p130
(dp131
S'NOUN'
p132
F1.0
s(lp133
(S'impunity'
p134
I13
tp135
atp136
a(g38
(dp137
g38
F1.0
s(lp138
(g38
I14
tp139
atp140
asS'en'
p141
(lp142
(g9
(dp143
S'NOUN'
p144
F4e-05
sS'DET'
p145
F0.99996
s(lp146
(g9
I0
tp147
atp148
a(g16
(dp149
S'NOUN'
p150
F1.0
s(lp151
(g16
I1
tp152
atp153
a(g36
(dp154
g38
F1.0
s(lp155
(g36
I2
tp156
atp157
a(g46
(dp158
S'PRON'
p159
F1.0
s(lp160
(g46
I3
tp161
atp162
a(g53
(dp163
S'VERB'
p164
F1.0
s(lp165
(g53
I4
tp166
atp167
a(g66
(dp168
S'ADV'
p169
F1.0
s(lp170
(g66
I5
tp171
atp172
a(g95
(dp173
S'ADV'
p174
F3e-06
sS'PRT'
p175
F0.999984
sS'ADP'
p176
F1.2e-05
s(lp177
(g95
I6
tp178
atp179
a(g102
(dp180
S'VERB'
p181
F0.172149
sS'NOUN'
p182
F0.827851
s(lp183
(g102
I7
tp184
atp185
a(g86
(dp186
S'NOUN'
p187
F1.0
s(lp188
(g86
I8
tp189
atp190
a(g36
(dp191
g38
F1.0
s(lp192
(g36
I9
tp193
atp194
a(g79
(dp195
S'VERB'
p196
F0.999997
sS'NOUN'
p197
F3e-06
s(lp198
(g79
I10
tp199
atp200
a(g113
(dp201
S'NOUN'
p202
F0.00084
sS'VERB'
p203
F0.98904
sS'ADJ'
p204
F0.01012
s(lp205
(g113
I11
tp206
atp207
a(g121
(dp208
S'ADP'
p209
F1.0
s(lp210
(g121
I12
tp211
atp212
a(g134
(dp213
S'NOUN'
p214
F1.0
s(lp215
(g134
I13
tp216
atp217
a(g38
(dp218
g38
F1.0
s(lp219
(g38
I14
tp220
atp221
asS'nl'
p222
(lp223
(S'de'
p224
(dp225
S'DET'
p226
F1.0
s(lp227
(g9
I0
tp228
atp229
a(S'daders'
p230
(dp231
S'NOUN'
p232
F1.0
s(lp233
(g16
I1
tp234
atp235
a(S'die'
p236
(dp237
S'PRON'
p238
F1.0
s(lp239
(g46
I3
tp240
atp241
a(S'grotendeels'
p242
(dp243
S'ADV'
p244
F1.0
s(lp245
(g66
I5
tp246
atp247
a(S'tot'
p248
(dp249
S'CONJ'
p250
F0.00011
sS'ADP'
p251
F0.99989
s(lp252
tp253
a(S'staatsinstellingen'
p254
(dp255
S'NOUN'
p256
F1.0
s(lp257
(g86
I8
tp258
atp259
a(S'behoren'
p260
(dp261
S'VERB'
p262
F0.999937
sS'NOUN'
p263
F6.3e-05
s(lp264
(g53
I4
tp265
atp266
a(g36
(dp267
g38
F1.0
s(lp268
(g36
I9
tp269
atp270
a(S'handelen'
p271
(dp272
S'VERB'
p273
F0.857249
sS'NOUN'
p274
F0.142752
s(lp275
tp276
a(S'zonder'
p277
(dp278
S'CONJ'
p279
F0.009352
sS'ADP'
p280
F0.990648
s(lp281
(g121
I12
tp282
atp283
a(S'gestraft'
p284
(dp285
S'VERB'
p286
F1.0
s(lp287
(g134
I13
tp288
atp289
a(S'te'
p290
(dp291
S'PRT'
p292
F1.0
s(lp293
(g113
I11
tp294
atp295
a(S'worden'
p296
(dp297
S'VERB'
p298
F1.0
sS'NOUN'
p299
F0.0
s(lp300
(g79
I10
tp301
atp302
a(g38
(dp303
g38
F1.0
s(lp304
(g38
I14
tp305
atp306
asS'de'
p307
(lp308
(S'die'
p309
(dp310
S'PRON'
p311
F0.001287
sS'DET'
p312
F0.99834
s(lp313
(g9
I0
tp314
atp315
a(S't\xc3\xa4ter'
p316
(dp317
S'ADJ'
p318
F0.001644
sS'NOUN'
p319
F0.9982
s(lp320
(g16
I1
tp321
atp322
a(S'geh\xc3\xb6ren'
p323
(dp324
S'VERB'
p325
F1.0
s(lp326
(g53
I4
tp327
atp328
a(S'zum'
p329
(dp330
S'ADP'
p331
F1.0
s(lp332
(g95
I6
tp333
atp334
a(S'gr\xc3\xb6\xc3\x9ften'
p335
(dp336
S'ADJ'
p337
F1.0
s(lp338
tp339
a(S'teil'
p340
(dp341
S'PRT'
p342
F0.819363
sS'VERB'
p343
F0.180637
s(lp344
(g66
I5
tp345
atp346
a(S'staatlichen'
p347
(dp348
S'ADJ'
p349
F1.0
s(lp350
(g102
I7
tp351
atp352
a(S'institutionen'
p353
(dp354
S'ADJ'
p355
F0.002171
sS'NOUN'
p356
F0.996643
s(lp357
(g86
I8
tp358
atp359
a(S'an'
p360
(dp361
S'PRT'
p362
F0.811841
sS'ADP'
p363
F0.113853
s(lp364
(g121
I12
tp365
atp366
a(S'und'
p367
(dp368
S'CONJ'
p369
F1.0
s(lp370
(g36
I9
tp371
atp372
a(S'bleiben'
p373
(dp374
S'VERB'
p375
F1.0
s(lp376
tp377
a(S'ungestraft'
p378
(dp379
S'ADJ'
p380
F1.0
s(lp381
(g134
I13
tp382
atp383
a(g38
(dp384
g38
F1.0
s(lp385
(g38
I14
tp386
atp387
asS'it'
p388
(lp389
(S'i'
p390
(dp391
S'DET'
p392
F1.0
s(lp393
(g9
I0
tp394
atp395
a(S'loro'
p396
(dp397
S'PRON'
p398
F1.0
s(lp399
tp400
a(S'autori'
p401
(dp402
S'NOUN'
p403
F1.0
s(lp404
(g16
I1
tp405
atp406
a(g36
(dp407
g38
F1.0
s(lp408
(g36
I2
tp409
atp410
a(S'che'
p411
(dp412
S'PRON'
p413
F0.828793
sS'CONJ'
p414
F0.169243
sS'ADJ'
p415
F0.001965
s(lp416
(g46
I3
tp417
atp418
a(S'per'
p419
(dp420
S'CONJ'
p421
F0.006694
sS'ADP'
p422
F0.993306
s(lp423
(g121
I12
tp424
atp425
a(S'la'
p426
(dp427
S'PRON'
p428
F0.001208
sS'DET'
p429
F0.998792
s(lp430
tp431
a(S'maggior'
p432
(dp433
S'ADJ'
p434
F1.0
s(lp435
(g66
I5
tp436
atp437
a(S'parte'
p438
(dp439
S'VERB'
p440
F3e-05
sS'NOUN'
p441
F0.99997
s(lp442
tp443
a(S'appartengono'
p444
(dp445
S'VERB'
p446
F1.0
s(lp447
(g53
I4
tp448
atp449
a(S'alle'
p450
(dp451
S'ADP'
p452
F1.0
s(lp453
(g95
I6
tp454
atp455
a(S'istituzioni'
p456
(dp457
S'NOUN'
p458
F1.0
s(lp459
(g86
I8
tp460
atp461
a(S'statali'
p462
(dp463
S'NOUN'
p464
F0.016345
sS'ADJ'
p465
F0.983655
s(lp466
(g102
I7
tp467
atp468
a(g36
(dp469
g38
F1.0
s(lp470
(g36
I9
tp471
atp472
a(S'godono'
p473
(dp474
S'VERB'
p475
F1.0
s(lp476
(g134
I13
tp477
atp478
a(S"dell'"
p479
(dp480
S'ADJ'
p481
F0.010298
sS'VERB'
p482
F0.103889
sS'NOUN'
p483
F0.885814
s(lp484
tp485
a(S'impunit\xc3\xa0'
p486
(dp487
S'NOUN'
p488
F1.0
s(lp489
(g134
I13
tp490
atp491
a(g38
(dp492
g38
F1.0
s(lp493
(g38
I14
tp494
atp495
asS'sk'
p496
(lp497
(S'p\xc3\xa1chatelia'
p498
(dp499
S'NOUN'
p500
F1.0
s(lp501
(g16
I1
tp502
atp503
a(g36
(dp504
g38
F1.0
s(lp505
(g36
I2
tp506
atp507
a(S'ktor\xc3\xbdmi'
p508
(dp509
S'PRON'
p510
F1.0
s(lp511
(g46
I3
tp512
atp513
a(S's\xc3\xba'
p514
(dp515
S'VERB'
p516
F1.0
s(lp517
(g53
I4
tp518
atp519
a(S'predov\xc5\xa1etk\xc3\xbdm'
p520
(dp521
S'X'
p522
F1.0
s(lp523
(g66
I5
tp524
atp525
a(S'\xc5\xa1t\xc3\xa1tne'
p526
(dp527
S'ADJ'
p528
F1.0
s(lp529
(g102
I7
tp530
atp531
a(S'in\xc5\xa1tit\xc3\xbacie'
p532
(dp533
S'NOUN'
p534
F1.0
s(lp535
(g86
I8
tp536
atp537
a(g36
(dp538
g38
F1.0
s(lp539
(g36
I9
tp540
atp541
a(S'konaj\xc3\xba'
p542
(dp543
S'VERB'
p544
F1.0
s(lp545
(g113
I11
tp546
atp547
a(S'beztrestne'
p548
(dp549
S'ADV'
p550
F1.0
s(lp551
(g134
I13
tp552
atp553
a(g38
(dp554
g38
F1.0
s(lp555
(g38
I14
tp556
atp557
asS'pl'
p558
(lp559
(S'sprawcy'
p560
(dp561
S'NOUN'
p562
F1.0
s(lp563
(g16
I1
tp564
atp565
a(g36
(dp566
g522
F0.0
sg38
F1.0
s(lp567
(g36
I2
tp568
atp569
a(S'kt\xc3\xb3rzy'
p570
(dp571
S'ADJ'
p572
F1.0
s(lp573
(g46
I3
tp574
atp575
a(S'nale\xc5\xbc\xc4\x85'
p576
(dp577
S'VERB'
p578
F1.0
s(lp579
(g53
I4
tp580
atp581
a(S'g\xc5\x82\xc3\xb3wnie'
p582
(dp583
S'ADV'
p584
F0.017388
sS'PRT'
p585
F0.982612
s(lp586
(g66
I5
tp587
atp588
a(S'do'
p589
(dp590
g522
F0.0
sS'NOUN'
p591
F8e-06
sS'ADP'
p592
F0.999992
s(lp593
(g95
I6
tp594
atp595
a(S'instytucji'
p596
(dp597
S'NOUN'
p598
F1.0
s(lp599
(g86
I8
tp600
atp601
a(S'pa\xc5\x84stwowych'
p602
(dp603
S'ADJ'
p604
F1.0
s(lp605
(g102
I7
tp606
atp607
a(g36
(dp608
g522
F0.0
sg38
F1.0
s(lp609
(g36
I9
tp610
atp611
a(S'dzia\xc5\x82aj\xc4\x85'
p612
(dp613
S'VERB'
p614
F1.0
s(lp615
(g113
I11
tp616
atp617
a(S'bezkarnie'
p618
(dp619
S'ADV'
p620
F1.0
s(lp621
(g134
I13
tp622
atp623
a(g38
(dp624
g38
F1.0
s(lp625
(g38
I14
tp626
atp627
asS'sl'
p628
(lp629
(S'storilci'
p630
(dp631
S'NOUN'
p632
F1.0
s(lp633
(g16
I1
tp634
atp635
a(g36
(dp636
g38
F1.0
s(lp637
(g36
I2
tp638
atp639
a(S'ki'
p640
(dp641
S'CONJ'
p642
F1.0
s(lp643
(g46
I3
tp644
atp645
a(S've\xc4\x8dinoma'
p646
(dp647
S'ADV'
p648
F1.0
s(lp649
(g66
I5
tp650
atp651
a(S'pripadajo'
p652
(dp653
S'VERB'
p654
F1.0
s(lp655
(g53
I4
tp656
atp657
a(S'dr\xc5\xbeavnim'
p658
(dp659
S'ADJ'
p660
F1.0
s(lp661
(g102
I7
tp662
atp663
a(S'ustanovam'
p664
(dp665
S'NOUN'
p666
F1.0
s(lp667
(g86
I8
tp668
atp669
a(g36
(dp670
g38
F1.0
s(lp671
(g36
I9
tp672
atp673
a(S'delujejo'
p674
(dp675
S'VERB'
p676
F1.0
s(lp677
(g113
I11
tp678
atp679
a(S'nekaznovano'
p680
(dp681
S'ADV'
p682
F1.0
s(lp683
(g134
I13
tp684
atp685
a(g38
(dp686
g38
F1.0
s(lp687
(g38
I14
tp688
atp689
asS'es'
p690
(lp691
(S'los'
p692
(dp693
S'PRON'
p694
F2.7e-05
sS'DET'
p695
F0.999973
s(lp696
(g9
I0
tp697
atp698
a(S'autores'
p699
(dp700
S'NOUN'
p701
F1.0
s(lp702
(g16
I1
tp703
atp704
a(g36
(dp705
g38
F1.0
s(lp706
(g36
I2
tp707
atp708
a(S'que'
p709
(dp710
g522
F4e-06
sS'CONJ'
p711
F0.999996
s(lp712
(g46
I3
tp713
atp714
a(S'pertenecen'
p715
(dp716
S'VERB'
p717
F1.0
s(lp718
(g53
I4
tp719
atp720
a(S'principalmente'
p721
(dp722
S'ADV'
p723
F1.0
s(lp724
(g66
I5
tp725
atp726
a(S'a'
p727
(dp728
g522
F0.005456
sS'CONJ'
p729
F0.000487
sS'ADP'
p730
F0.994057
s(lp731
(g95
I6
tp732
atp733
a(S'instituciones'
p734
(dp735
S'NOUN'
p736
F1.0
s(lp737
(g86
I8
tp738
atp739
a(S'estatales'
p740
(dp741
S'ADJ'
p742
F1.0
s(lp743
(g102
I7
tp744
atp745
a(g36
(dp746
g38
F1.0
s(lp747
(g36
I9
tp748
atp749
a(S'est\xc3\xa1n'
p750
(dp751
S'VERB'
p752
F1.0
s(lp753
(g79
I10
tp754
atp755
a(S'actuando'
p756
(dp757
S'VERB'
p758
F1.0
s(lp759
(g113
I11
tp760
atp761
a(S'con'
p762
(dp763
S'ADP'
p764
F1.0
s(lp765
(g121
I12
tp766
atp767
a(S'impunidad'
p768
(dp769
S'NOUN'
p770
F1.0
s(lp771
(g134
I13
tp772
atp773
a(g38
(dp774
g38
F1.0
s(lp775
(g38
I14
tp776
atp777
as.