(dp0
S'fr'
p1
(lp2
(S'je'
p3
(dp4
S'PRON'
p5
F1.0
s(lp6
(S'i'
p7
I0
tp8
atp9
a(S'consid\xc3\xa8re'
p10
(dp11
S'VERB'
p12
F1.0
s(lp13
tp14
a(S'comme'
p15
(dp16
S'ADV'
p17
F0.946113
sS'CONJ'
p18
F0.053887
s(lp19
(S'consider'
p20
I1
tp21
atp22
a(S'sans'
p23
(dp24
S'CONJ'
p25
F0.009787
sS'ADP'
p26
F0.990213
s(lp27
tp28
a(S'pr\xc3\xa9c\xc3\xa9dent'
p29
(dp30
S'NOUN'
p31
F0.412486
sS'ADJ'
p32
F0.587514
s(lp33
(S'unprecedented'
p34
I3
tp35
atp36
a(S'dans'
p37
(dp38
S'NOUN'
p39
F0.001054
sS'ADP'
p40
F0.998946
s(lp41
(S'in'
p42
I4
tp43
atp44
a(S"l'"
p45
(dp46
S'ADJ'
p47
F0.160823
sS'VERB'
p48
F0.06547100000000002
sS'NOUN'
p49
F0.773706
s(lp50
(S'the'
p51
I5
tp52
atp53
a(S'histoire'
p54
(dp55
S'NOUN'
p56
F1.0
s(lp57
(S'history'
p58
I6
tp59
atp60
a(S'de'
p61
(dp62
S'ADP'
p63
F1.0
s(lp64
(S'of'
p65
I7
tp66
atp67
a(S"l'"
p68
(dp69
S'ADJ'
p70
F0.160704
sS'VERB'
p71
F0.06480800000000002
sS'NOUN'
p72
F0.774488
s(lp73
(S'the'
p74
I8
tp75
atp76
a(S'ue'
p77
(dp78
S'VERB'
p79
F0.037114999999999995
sS'NOUN'
p80
F0.962885
s(lp81
(S'eu'
p82
I9
tp83
atp84
a(S'le'
p85
(dp86
S'PRON'
p87
F0.329543
sS'DET'
p88
F0.670457
s(lp89
(S'the'
p90
I16
tp91
atp92
a(S'fait'
p93
(dp94
S'ADJ'
p95
F0.005806
sS'VERB'
p96
F0.33526
sS'NOUN'
p97
F0.658933
s(lp98
tp99
a(S"qu'"
p100
(dp101
S'NOUN'
p102
F0.035229
sS'VERB'
p103
F0.44022500000000003
sS'ADJ'
p104
F0.524547
s(lp105
(S'that'
p106
I10
tp107
atp108
a(S'un'
p109
(dp110
S'NOUN'
p111
F0.000937
sS'NUM'
p112
F0.007738
sS'DET'
p113
F0.991325
s(lp114
(S'one'
p115
I11
tp116
atp117
a(S'\xc3\x89tat'
p118
(dp119
S'NOUN'
p120
F1.0
s(lp121
(S'state'
p122
I13
tp123
atp124
a(S'membre'
p125
(dp126
S'VERB'
p127
F0.216618
sS'NOUN'
p128
F0.783383
s(lp129
(S'member'
p130
I12
tp131
atp132
a(S'paralyse'
p133
(dp134
S'VERB'
p135
F0.9999999999999999
s(lp136
(S'paralyse'
p137
I15
tp138
atp139
a(S"l'"
p140
(dp141
S'NOUN'
p142
F0.087886
sS'VERB'
p143
F0.7995690000000001
sS'ADJ'
p144
F0.112546
s(lp145
tp146
a(S'\xc3\xa9largissement'
p147
(dp148
S'NOUN'
p149
F1.0
s(lp150
(S'enlargement'
p151
I17
tp152
atp153
a(S'de'
p154
(dp155
S'ADP'
p156
F1.0
s(lp157
(S'of'
p158
I18
tp159
atp160
a(S"l'"
p161
(dp162
S'ADJ'
p163
F0.160704
sS'VERB'
p164
F0.06480800000000002
sS'NOUN'
p165
F0.774488
s(lp166
(S'the'
p167
I19
tp168
atp169
a(S'union'
p170
(dp171
S'NOUN'
p172
F1.0
s(lp173
(S'union'
p174
I20
tp175
atp176
a(S'et'
p177
(dp178
S'CONJ'
p179
F1.0
s(lp180
(S'and'
p181
I21
tp182
atp183
a(S'emp\xc3\xaache'
p184
(dp185
S'VERB'
p186
F1.000001
s(lp187
(S'prevent'
p188
I23
tp189
atp190
a(S'actuellement'
p191
(dp192
S'ADV'
p193
F1.0
s(lp194
(S'currently'
p195
I22
tp196
atp197
a(S'douze'
p198
(dp199
S'NUM'
p200
F0.999882
sS'NOUN'
p201
F0.000118
s(lp202
(S'12'
p203
I24
tp204
atp205
a(S'chapitres'
p206
(dp207
S'VERB'
p208
F0.000503
sS'NOUN'
p209
F0.999498
s(lp210
(S'chapters'
p211
I26
tp212
atp213
a(S'de'
p214
(dp215
S'ADP'
p216
F1.0
s(lp217
tp218
a(S'n\xc3\xa9gociation'
p219
(dp220
S'NOUN'
p221
F1.0
s(lp222
(S'negotiation'
p223
I25
tp224
atp225
a(S"d'"
p226
(dp227
S'NOUN'
p228
F0.032441
sS'VERB'
p229
F0.694014
sS'ADJ'
p230
F0.273544
s(lp231
(S'from'
p232
I27
tp233
atp234
a(S'\xc3\xaatre'
p235
(dp236
S'VERB'
p237
F0.978424
sS'NOUN'
p238
F0.021576
s(lp239
(S'being'
p240
I28
tp241
atp242
a(S'ouverts'
p243
(dp244
S'VERB'
p245
F0.937793
sS'ADJ'
p246
F0.062207
s(lp247
(S'opened'
p248
I29
tp249
atp250
a(S','
p251
(dp252
S'.'
p253
F1.0
s(lp254
(g251
I30
tp255
atp256
a(S'alors'
p257
(dp258
S'ADV'
p259
F0.997183
sS'CONJ'
p260
F0.002817
s(lp261
tp262
a(S"qu'"
p263
(dp264
S'NOUN'
p265
F0.024512
sS'VERB'
p266
F0.5276460000000001
sS'ADJ'
p267
F0.447843
s(lp268
(S'while'
p269
I31
tp270
atp271
a(S'en'
p272
(dp273
S'PRON'
p274
F2.6e-05
sS'ADP'
p275
F0.999974
s(lp276
(S'in'
p277
I33
tp278
atp279
a(S'2001'
p280
(dp281
S'X'
p282
F0.000409
sS'NUM'
p283
F0.999591
s(lp284
(S'2001'
p285
I34
tp286
atp287
a(g251
(dp288
g253
F1.0
s(lp289
(g251
I35
tp290
atp291
a(S'\xc3\xa0'
p292
(dp293
S'ADP'
p294
F1.0
s(lp295
(S'at'
p296
I36
tp297
atp298
a(S"l'"
p299
(dp300
S'ADJ'
p301
F0.160704
sS'VERB'
p302
F0.06480800000000002
sS'NOUN'
p303
F0.774488
s(lp304
(S'the'
p305
I37
tp306
atp307
a(S'\xc3\xa9poque'
p308
(dp309
S'NOUN'
p310
F1.0
s(lp311
(S'time'
p312
I38
tp313
atp314
a(S'de'
p315
(dp316
S'ADP'
p317
F1.0
s(lp318
(S'of'
p319
I39
tp320
atp321
a(S'ses'
p322
(dp323
S'PRON'
p324
F1.0
s(lp325
(S'its'
p326
I40
tp327
atp328
a(S'propres'
p329
(dp330
S'NOUN'
p331
F0.04502
sS'ADJ'
p332
F0.95498
s(lp333
(S'own'
p334
I41
tp335
atp336
a(S'n\xc3\xa9gociations'
p337
(dp338
S'NOUN'
p339
F1.0
s(lp340
(S'talks'
p341
I43
tp342
atp343
a(S"d'"
p344
(dp345
S'NOUN'
p346
F0.032441
sS'VERB'
p347
F0.694014
sS'ADJ'
p348
F0.273544
s(lp349
tp350
a(S'adh\xc3\xa9sion'
p351
(dp352
S'NOUN'
p353
F1.0
s(lp354
(S'accession'
p355
I42
tp356
atp357
a(g251
(dp358
g253
F1.0
s(lp359
(g251
I44
tp360
atp361
a(S'ce'
p362
(dp363
S'PRON'
p364
F1.0
s(lp365
(S'it'
p366
I45
tp367
atp368
a(S'm\xc3\xaame'
p369
(dp370
S'ADV'
p371
F0.282739
sS'ADJ'
p372
F0.717261
s(lp373
(S'that'
p374
I47
tp375
atp376
a(S'pays'
p377
(dp378
S'NOUN'
p379
F1.0
s(lp380
(S'it'
p381
I48
tp382
atp383
a(S'avait'
p384
(dp385
S'VERB'
p386
F1.0
s(lp387
tp388
a(S'd\xc3\xa9clar\xc3\xa9'
p389
(dp390
S'VERB'
p391
F1.0
s(lp392
(S'declared'
p393
I46
tp394
atp395
a(S'ne'
p396
(dp397
S'ADV'
p398
F1.0
s(lp399
tp400
a(S'pas'
p401
(dp402
S'ADV'
p403
F0.99995
sS'NOUN'
p404
F5e-05
s(lp405
(S'no'
p406
I50
tp407
atp408
a(S'avoir'
p409
(dp410
S'VERB'
p411
F0.99886
sS'NOUN'
p412
F0.00114
s(lp413
(S'had'
p414
I49
tp415
atp416
a(S'de'
p417
(dp418
S'ADP'
p419
F1.0
s(lp420
tp421
a(S'conflit'
p422
(dp423
S'NOUN'
p424
F1.0
s(lp425
(S'disputes'
p426
I52
tp427
atp428
a(S'de'
p429
(dp430
S'ADP'
p431
F1.0
s(lp432
tp433
a(S'fronti\xc3\xa8re'
p434
(dp435
S'ADJ'
p436
F0.065053
sS'NOUN'
p437
F0.934947
s(lp438
(S'border'
p439
I51
tp440
atp441
a(S'avec'
p442
(dp443
S'ADV'
p444
F0.002028
sS'ADP'
p445
F0.997972
s(lp446
(S'with'
p447
I53
tp448
atp449
a(S'ses'
p450
(dp451
S'PRON'
p452
F1.0
s(lp453
(S'its'
p454
I54
tp455
atp456
a(S'voisins'
p457
(dp458
S'ADJ'
p459
F0.045953
sS'NOUN'
p460
F0.954047
s(lp461
(S'neighbours'
p462
I55
tp463
atp464
a(g253
(dp465
g253
F1.0
s(lp466
(g253
I56
tp467
atp468
asS'en'
p469
(lp470
(g7
(dp471
g282
F0.002518
sS'NOUN'
p472
F0.997482
s(lp473
(g7
I0
tp474
atp475
a(g20
(dp476
S'VERB'
p477
F1.0
s(lp478
(g20
I1
tp479
atp480
a(S'it'
p481
(dp482
S'PRON'
p483
F1.0
s(lp484
(g481
I2
tp485
atp486
a(g34
(dp487
S'ADJ'
p488
F1.0
s(lp489
(g34
I3
tp490
atp491
a(g42
(dp492
S'ADV'
p493
F0.000225
sS'PRT'
p494
F0.000213
sS'ADP'
p495
F0.999562
s(lp496
(g42
I4
tp497
atp498
a(g51
(dp499
S'NOUN'
p500
F1e-06
sS'DET'
p501
F0.999999
s(lp502
(g51
I5
tp503
atp504
a(g58
(dp505
S'NOUN'
p506
F1.0
s(lp507
(g58
I6
tp508
atp509
a(g65
(dp510
S'ADP'
p511
F1.0
s(lp512
(g65
I7
tp513
atp514
a(g74
(dp515
S'NOUN'
p516
F3e-06
sS'DET'
p517
F0.999997
s(lp518
(g74
I8
tp519
atp520
a(g82
(dp521
S'ADV'
p522
F9e-05
sS'ADJ'
p523
F0.001571
sS'VERB'
p524
F0.001354
sS'NOUN'
p525
F0.9969840000000001
s(lp526
(g82
I9
tp527
atp528
a(g106
(dp529
S'ADV'
p530
F0.013012
sS'DET'
p531
F0.412972
sS'ADP'
p532
F0.574015
s(lp533
(g106
I10
tp534
atp535
a(g115
(dp536
S'PRON'
p537
F0.000156
sS'NUM'
p538
F0.999788
sS'NOUN'
p539
F5.7e-05
s(lp540
(g115
I11
tp541
atp542
a(g130
(dp543
S'NOUN'
p544
F1.0
s(lp545
(g130
I12
tp546
atp547
a(g122
(dp548
S'VERB'
p549
F0.000287
sS'NOUN'
p550
F0.999713
s(lp551
(g122
I13
tp552
atp553
a(S'should'
p554
(dp555
S'VERB'
p556
F1.0
s(lp557
(g554
I14
tp558
atp559
a(g137
(dp560
S'VERB'
p561
F1.0
s(lp562
(g137
I15
tp563
atp564
a(g90
(dp565
S'NOUN'
p566
F1e-06
sS'DET'
p567
F0.999999
s(lp568
(g90
I16
tp569
atp570
a(g151
(dp571
S'NOUN'
p572
F1.0
s(lp573
(g151
I17
tp574
atp575
a(g158
(dp576
S'ADP'
p577
F1.0
s(lp578
(g158
I18
tp579
atp580
a(g167
(dp581
S'NOUN'
p582
F1e-06
sS'DET'
p583
F0.999999
s(lp584
(g167
I19
tp585
atp586
a(g174
(dp587
S'NOUN'
p588
F1.0
s(lp589
(g174
I20
tp590
atp591
a(g181
(dp592
S'CONJ'
p593
F1.0
sS'NOUN'
p594
F0.0
s(lp595
(g181
I21
tp596
atp597
a(g195
(dp598
S'ADV'
p599
F1.0
s(lp600
(g195
I22
tp601
atp602
a(g188
(dp603
S'VERB'
p604
F1.0
s(lp605
(g188
I23
tp606
atp607
a(g203
(dp608
S'ADV'
p609
F2.4e-05
sS'NOUN'
p610
F0.000116
sS'NUM'
p611
F0.997254
sS'ADJ'
p612
F0.002606
sg282
F0.0
s(lp613
(g203
I24
tp614
atp615
a(g223
(dp616
S'NOUN'
p617
F1.0
s(lp618
(g223
I25
tp619
atp620
a(g211
(dp621
S'VERB'
p622
F0.007392
sS'NOUN'
p623
F0.992608
s(lp624
(g211
I26
tp625
atp626
a(g232
(dp627
S'ADP'
p628
F1.0
s(lp629
(g232
I27
tp630
atp631
a(g240
(dp632
S'ADJ'
p633
F1.3e-05
sS'VERB'
p634
F0.999955
sS'NOUN'
p635
F3.2e-05
s(lp636
(g240
I28
tp637
atp638
a(g248
(dp639
S'VERB'
p640
F1.0
s(lp641
(g248
I29
tp642
atp643
a(g251
(dp644
g253
F1.0
s(lp645
(g251
I30
tp646
atp647
a(g269
(dp648
S'NOUN'
p649
F0.006484
sS'ADP'
p650
F0.993516
s(lp651
(g269
I31
tp652
atp653
a(S'back'
p654
(dp655
S'ADV'
p656
F0.846497
sS'ADJ'
p657
F0.028953
sS'VERB'
p658
F0.000288
sS'NOUN'
p659
F0.124262
s(lp660
(g654
I32
tp661
atp662
a(g277
(dp663
S'ADV'
p664
F0.007879
sS'PRT'
p665
F3.9e-05
sS'ADP'
p666
F0.992081
s(lp667
(g277
I33
tp668
atp669
a(g285
(dp670
S'ADV'
p671
F0.000221
sS'ADJ'
p672
F0.001591
sS'NUM'
p673
F0.993046
sS'NOUN'
p674
F0.005141
sg282
F0.0
s(lp675
(g285
I34
tp676
atp677
a(g251
(dp678
g253
F1.0
s(lp679
(g251
I35
tp680
atp681
a(g296
(dp682
S'NOUN'
p683
F0.0
sS'ADP'
p684
F0.999999
s(lp685
(g296
I36
tp686
atp687
a(g305
(dp688
S'NOUN'
p689
F1e-06
sS'DET'
p690
F0.999999
s(lp691
(g305
I37
tp692
atp693
a(g312
(dp694
S'VERB'
p695
F7e-06
sS'NOUN'
p696
F0.999993
s(lp697
(g312
I38
tp698
atp699
a(g319
(dp700
S'ADP'
p701
F1.0
s(lp702
(g319
I39
tp703
atp704
a(g326
(dp705
S'PRON'
p706
F1.0
s(lp707
(g326
I40
tp708
atp709
a(g334
(dp710
S'VERB'
p711
F1.9e-05
sS'ADJ'
p712
F0.999982
s(lp713
(g334
I41
tp714
atp715
a(g355
(dp716
S'VERB'
p717
F0.001047
sS'NOUN'
p718
F0.998954
s(lp719
(g355
I42
tp720
atp721
a(g341
(dp722
S'VERB'
p723
F0.006329
sS'NOUN'
p724
F0.993671
s(lp725
(g341
I43
tp726
atp727
a(g251
(dp728
g253
F1.0
s(lp729
(g251
I44
tp730
atp731
a(g366
(dp732
S'PRON'
p733
F1.0
s(lp734
(g366
I45
tp735
atp736
a(g393
(dp737
S'VERB'
p738
F1.0
s(lp739
(g393
I46
tp740
atp741
a(g374
(dp742
S'ADV'
p743
F0.000155
sS'DET'
p744
F0.001136
sS'ADP'
p745
F0.998709
s(lp746
(g374
I47
tp747
atp748
a(g381
(dp749
S'PRON'
p750
F1.0
s(lp751
(g381
I48
tp752
atp753
a(g414
(dp754
S'VERB'
p755
F1.0
s(lp756
(g414
I49
tp757
atp758
a(g406
(dp759
S'ADV'
p760
F0.012713
sS'NOUN'
p761
F7e-06
sS'DET'
p762
F0.98728
sg282
F0.0
s(lp763
(g406
I50
tp764
atp765
a(g439
(dp766
S'VERB'
p767
F0.000387
sS'NOUN'
p768
F0.999612
s(lp769
(g439
I51
tp770
atp771
a(g426
(dp772
S'VERB'
p773
F0.038274
sS'NOUN'
p774
F0.961726
s(lp775
(g426
I52
tp776
atp777
a(g447
(dp778
S'ADP'
p779
F1.0
s(lp780
(g447
I53
tp781
atp782
a(g454
(dp783
S'PRON'
p784
F1.0
s(lp785
(g454
I54
tp786
atp787
a(g462
(dp788
S'VERB'
p789
F3.4e-05
sS'NOUN'
p790
F0.999966
s(lp791
(g462
I55
tp792
atp793
a(g253
(dp794
g253
F1.0
s(lp795
(g253
I56
tp796
atp797
asS'nl'
p798
(lp799
(S'dit'
p800
(dp801
S'PRON'
p802
F1.0
s(lp803
(g195
I22
tp804
atp805
a(S'is'
p806
(dp807
S'VERB'
p808
F1.0
s(lp809
tp810
a(S'bij'
p811
(dp812
S'ADV'
p813
F0.024935
sS'NOUN'
p814
F0.0
sS'ADJ'
p815
F0.0
sS'ADP'
p816
F0.975065
s(lp817
tp818
a(S'mijn'
p819
(dp820
S'PRON'
p821
F0.998354
sS'NOUN'
p822
F0.001646
s(lp823
(g7
I0
tp824
atp825
a(S'weten'
p826
(dp827
S'VERB'
p828
F0.001848
sS'NOUN'
p829
F0.998151
s(lp830
(g20
I1
tp831
atp832
a(S'zonder'
p833
(dp834
S'CONJ'
p835
F6.3e-05
sS'ADP'
p836
F0.999937
s(lp837
tp838
a(S'precedent'
p839
(dp840
S'NOUN'
p841
F1.0
s(lp842
(g34
I3
tp843
atp844
a(S'in'
p845
(dp846
S'ADV'
p847
F0.002979
sS'VERB'
p848
F2e-06
sS'ADP'
p849
F0.997018
s(lp850
(g42
I4
tp851
atp852
a(S'de'
p853
(dp854
S'DET'
p855
F1.0
s(lp856
(g51
I5
tp857
atp858
a(S'geschiedenis'
p859
(dp860
S'NOUN'
p861
F1.0
s(lp862
(g58
I6
tp863
atp864
a(S'van'
p865
(dp866
S'ADP'
p867
F1.0
s(lp868
(g65
I7
tp869
atp870
a(S'de'
p871
(dp872
S'DET'
p873
F1.0
s(lp874
(g74
I8
tp875
atp876
a(S'eu'
p877
(dp878
S'NOUN'
p879
F1.0
s(lp880
(g82
I9
tp881
atp882
a(S':'
p883
(dp884
g253
F1.0
s(lp885
tp886
a(S'dat'
p887
(dp888
S'PRON'
p889
F0.045762
sS'CONJ'
p890
F0.954238
s(lp891
(g106
I10
tp892
atp893
a(S'\xc3\xa9\xc3\xa9n'
p894
(dp895
S'ADJ'
p896
F0.011961
sS'NUM'
p897
F0.006529
sS'DET'
p898
F0.979766
sS'PRON'
p899
F0.001744
s(lp900
(g115
I11
tp901
atp902
a(S'lidstaat'
p903
(dp904
S'NOUN'
p905
F1.0
s(lp906
(g130
I12
tp907
atp908
a(S'de'
p909
(dp910
S'DET'
p911
F1.0
s(lp912
(g90
I16
tp913
atp914
a(S'uitbreiding'
p915
(dp916
S'NOUN'
p917
F1.0
s(lp918
(g151
I17
tp919
atp920
a(S'van'
p921
(dp922
S'ADP'
p923
F1.0
s(lp924
(g158
I18
tp925
atp926
a(S'de'
p927
(dp928
S'DET'
p929
F1.0
s(lp930
(g167
I19
tp931
atp932
a(S'unie'
p933
(dp934
S'NOUN'
p935
F1.0
s(lp936
(g174
I20
tp937
atp938
a(S'en'
p939
(dp940
S'CONJ'
p941
F1.0
s(lp942
(g181
I21
tp943
atp944
a(S'de'
p945
(dp946
S'DET'
p947
F1.0
s(lp948
tp949
a(S'opening'
p950
(dp951
S'NOUN'
p952
F1.0
s(lp953
(g248
I29
tp954
atp955
a(S'van'
p956
(dp957
S'ADP'
p958
F1.0
s(lp959
(g232
I27
tp960
atp961
a(S'12'
p962
(dp963
S'NUM'
p964
F1.0
s(lp965
(g203
I24
tp966
atp967
a(S'onderhandelingshoofdstukken'
p968
(dp969
S'NOUN'
p970
F1.0
s(lp971
(g211
I26
tp972
atp973
a(S'tegenhoudt'
p974
(dp975
S'VERB'
p976
F1.0
s(lp977
(g137
I15
tp978
atp979
a(g251
(dp980
g253
F1.0
s(lp981
(g251
I30
tp982
atp983
a(S'terwijl'
p984
(dp985
S'CONJ'
p986
F1.0
s(lp987
(g269
I31
tp988
atp989
a(S'dat'
p990
(dp991
S'PRON'
p992
F0.9015380000000001
sS'CONJ'
p993
F0.098462
s(lp994
(g188
I23
tp995
atp996
a(S'land'
p997
(dp998
S'VERB'
p999
F0.00188
sS'NOUN'
p1000
F0.99812
s(lp1001
(g122
I13
tp1002
atp1003
a(S'destijds'
p1004
(dp1005
S'ADV'
p1006
F1.0
s(lp1007
(g654
I32
tp1008
atp1009
a(S'in'
p1010
(dp1011
S'ADV'
p1012
F0.033026
sS'VERB'
p1013
F1e-06
sS'ADP'
p1014
F0.966972
s(lp1015
(g277
I33
tp1016
atp1017
a(S'2001'
p1018
(dp1019
S'NUM'
p1020
F1.0
s(lp1021
(g285
I34
tp1022
atp1023
a(g251
(dp1024
g253
F1.0
s(lp1025
(g251
I35
tp1026
atp1027
a(S'bij'
p1028
(dp1029
S'ADV'
p1030
F0.033338
sS'ADJ'
p1031
F2e-06
sS'NOUN'
p1032
F2e-06
sS'ADP'
p1033
F0.966659
s(lp1034
(g296
I36
tp1035
atp1036
a(S'zijn'
p1037
(dp1038
S'PRON'
p1039
F0.981437
sS'VERB'
p1040
F0.018463
sS'NOUN'
p1041
F0.0001
s(lp1042
(g326
I40
tp1043
atp1044
a(S'eigen'
p1045
(dp1046
S'ADJ'
p1047
F1.0
s(lp1048
(g334
I41
tp1049
atp1050
a(S'toetredingsonderhandelingen'
p1051
(dp1052
S'NOUN'
p1053
F1.0
s(lp1054
(g355
I42
tp1055
atp1056
a(g251
(dp1057
g253
F1.0
s(lp1058
(g251
I44
tp1059
atp1060
a(S'verklaard'
p1061
(dp1062
S'VERB'
p1063
F1.0
s(lp1064
tp1065
a(S'heeft'
p1066
(dp1067
S'VERB'
p1068
F1.0
s(lp1069
(g393
I46
tp1070
atp1071
a(S'dat'
p1072
(dp1073
S'PRON'
p1074
F0.010734
sS'CONJ'
p1075
F0.989266
s(lp1076
(g374
I47
tp1077
atp1078
a(S'het'
p1079
(dp1080
S'PRON'
p1081
F0.796087
sS'DET'
p1082
F0.203913
s(lp1083
(g381
I48
tp1084
atp1085
a(S'geen'
p1086
(dp1087
S'PRON'
p1088
F0.999989
sS'DET'
p1089
F1e-05
s(lp1090
(g406
I50
tp1091
atp1092
a(S'grensgeschillen'
p1093
(dp1094
S'ADJ'
p1095
F0.001678
sS'NOUN'
p1096
F0.998322
s(lp1097
(g439
I51
tp1098
atp1099
a(S'met'
p1100
(dp1101
S'ADP'
p1102
F1.0
s(lp1103
(g447
I53
tp1104
atp1105
a(S'buurlanden'
p1106
(dp1107
S'NOUN'
p1108
F1.0
s(lp1109
(g462
I55
tp1110
atp1111
a(S'had'
p1112
(dp1113
S'VERB'
p1114
F1.0
s(lp1115
(g414
I49
tp1116
atp1117
a(g253
(dp1118
g253
F1.0
s(lp1119
(g253
I56
tp1120
atp1121
asS'de'
p1122
(lp1123
(S'es'
p1124
(dp1125
S'PRON'
p1126
F1.0
s(lp1127
(g481
I2
tp1128
atp1129
a(S'ist'
p1130
(dp1131
S'VERB'
p1132
F1.0
s(lp1133
tp1134
a(S'meiner'
p1135
(dp1136
S'PRON'
p1137
F1.0
s(lp1138
(g7
I0
tp1139
atp1140
a(S'ansicht'
p1141
(dp1142
S'ADJ'
p1143
F7.6e-05
sS'NOUN'
p1144
F0.999794
s(lp1145
tp1146
a(S'nach'
p1147
(dp1148
S'ADV'
p1149
F0.003807
sS'ADP'
p1150
F0.991914
s(lp1151
(g20
I1
tp1152
atp1153
a(S'eine'
p1154
(dp1155
S'PRON'
p1156
F0.120683
sS'DET'
p1157
F0.878145
s(lp1158
tp1159
a(S'in'
p1160
(dp1161
S'ADP'
p1162
F1.0
s(lp1163
(g42
I4
tp1164
atp1165
a(S'der'
p1166
(dp1167
S'PRON'
p1168
F4.7e-05
sS'DET'
p1169
F0.999947
s(lp1170
(g51
I5
tp1171
atp1172
a(S'geschichte'
p1173
(dp1174
S'ADJ'
p1175
F0.005965
sS'NOUN'
p1176
F0.993844
s(lp1177
(g58
I6
tp1178
atp1179
a(S'der'
p1180
(dp1181
S'PRON'
p1182
F0.000121
sS'DET'
p1183
F0.99985
s(lp1184
(g74
I8
tp1185
atp1186
a(S'eu'
p1187
(dp1188
S'NOUN'
p1189
F0.012019
sS'ADJ'
p1190
F0.977936
s(lp1191
(g82
I9
tp1192
atp1193
a(S'einmalige'
p1194
(dp1195
S'ADJ'
p1196
F1.0
s(lp1197
(g34
I3
tp1198
atp1199
a(S'sache'
p1200
(dp1201
g282
F0.024534
sS'NOUN'
p1202
F0.950565
s(lp1203
tp1204
a(g251
(dp1205
g253
F1.0
s(lp1206
tp1207
a(S'dass'
p1208
(dp1209
S'CONJ'
p1210
F1.0
s(lp1211
(g106
I10
tp1212
atp1213
a(S'ein'
p1214
(dp1215
S'NUM'
p1216
F0.000313
sS'DET'
p1217
F0.999674
s(lp1218
(g115
I11
tp1219
atp1220
a(S'mitgliedstaat'
p1221
(dp1222
S'ADJ'
p1223
F0.012001
sS'NOUN'
p1224
F0.976968
s(lp1225
(g130
I12
tp1226
atp1227
a(S'die'
p1228
(dp1229
S'PRON'
p1230
F6.9e-05
sS'DET'
p1231
F0.999869
s(lp1232
(g90
I16
tp1233
atp1234
a(S'erweiterung'
p1235
(dp1236
S'ADJ'
p1237
F9.3e-05
sS'NOUN'
p1238
F0.999846
s(lp1239
(g151
I17
tp1240
atp1241
a(S'der'
p1242
(dp1243
S'PRON'
p1244
F3.9e-05
sS'DET'
p1245
F0.999946
s(lp1246
(g167
I19
tp1247
atp1248
a(S'union'
p1249
(dp1250
S'ADJ'
p1251
F0.027092
sS'NOUN'
p1252
F0.956954
s(lp1253
(g174
I20
tp1254
atp1255
a(S'l\xc3\xa4hmt'
p1256
(dp1257
S'VERB'
p1258
F1.0
s(lp1259
(g137
I15
tp1260
atp1261
a(S'und'
p1262
(dp1263
S'CONJ'
p1264
F1.0
s(lp1265
(g181
I21
tp1266
atp1267
a(S'derzeit'
p1268
(dp1269
S'ADV'
p1270
F1.0
s(lp1271
(g195
I22
tp1272
atp1273
a(S'verhindert'
p1274
(dp1275
S'VERB'
p1276
F0.88015
s(lp1277
tp1278
a(g251
(dp1279
g253
F1.0
s(lp1280
tp1281
a(S'dass'
p1282
(dp1283
S'CONJ'
p1284
F1.0
s(lp1285
(g188
I23
tp1286
atp1287
a(S'zw\xc3\xb6lf'
p1288
(dp1289
S'NUM'
p1290
F1.0
s(lp1291
(g203
I24
tp1292
atp1293
a(S'verhandlungskapitel'
p1294
(dp1295
S'ADJ'
p1296
F0.000216
sS'NOUN'
p1297
F0.999748
s(lp1298
(g211
I26
tp1299
atp1300
a(S'ge\xc3\xb6ffnet'
p1301
(dp1302
S'VERB'
p1303
F0.927875
sS'ADJ'
p1304
F0.072125
s(lp1305
(g248
I29
tp1306
atp1307
a(S'werden'
p1308
(dp1309
S'VERB'
p1310
F0.999976
s(lp1311
(g240
I28
tp1312
atp1313
a(g251
(dp1314
g253
F1.0
s(lp1315
(g251
I30
tp1316
atp1317
a(S'w\xc3\xa4hrend'
p1318
(dp1319
S'CONJ'
p1320
F0.999311
sS'ADP'
p1321
F0.000688
s(lp1322
(g269
I31
tp1323
atp1324
a(S'er'
p1325
(dp1326
S'PRON'
p1327
F1.0
s(lp1328
(g381
I48
tp1329
atp1330
a(S'im'
p1331
(dp1332
S'ADP'
p1333
F1.0
s(lp1334
(g277
I33
tp1335
atp1336
a(S'jahr'
p1337
(dp1338
S'ADJ'
p1339
F0.002892
sS'NOUN'
p1340
F0.997033
s(lp1341
tp1342
a(S'2001'
p1343
(dp1344
S'ADV'
p1345
F0.033822
sS'NUM'
p1346
F0.958039
s(lp1347
(g285
I34
tp1348
atp1349
a(S'zum'
p1350
(dp1351
S'ADP'
p1352
F1.0
s(lp1353
(g305
I37
tp1354
atp1355
a(S'zeitpunkt'
p1356
(dp1357
S'ADJ'
p1358
F0.009357
sS'NOUN'
p1359
F0.987394
s(lp1360
(g312
I38
tp1361
atp1362
a(S'der'
p1363
(dp1364
S'PRON'
p1365
F8.8e-05
sS'DET'
p1366
F0.999892
s(lp1367
(g326
I40
tp1368
atp1369
a(S'eigenen'
p1370
(dp1371
S'ADJ'
p1372
F1.0
s(lp1373
(g334
I41
tp1374
atp1375
a(S'beitrittsverhandlungen'
p1376
(dp1377
S'ADJ'
p1378
F0.001904
sS'NOUN'
p1379
F0.9963
s(lp1380
(g355
I42
tp1381
atp1382
a(S'erkl\xc3\xa4rt'
p1383
(dp1384
S'VERB'
p1385
F0.991747
sS'ADJ'
p1386
F0.004971
s(lp1387
(g393
I46
tp1388
atp1389
a(S'hatte'
p1390
(dp1391
S'VERB'
p1392
F1.0
s(lp1393
(g414
I49
tp1394
atp1395
a(g251
(dp1396
g253
F1.0
s(lp1397
tp1398
a(S'dass'
p1399
(dp1400
S'CONJ'
p1401
F1.0
s(lp1402
(g374
I47
tp1403
atp1404
a(S'keine'
p1405
(dp1406
S'PRON'
p1407
F1.0
s(lp1408
(g406
I50
tp1409
atp1410
a(S'grenzkonflikte'
p1411
(dp1412
S'ADJ'
p1413
F8.9e-05
sS'NOUN'
p1414
F0.999825
s(lp1415
(g439
I51
tp1416
atp1417
a(S'mit'
p1418
(dp1419
S'PRT'
p1420
F0.000186
sS'ADP'
p1421
F0.999814
s(lp1422
(g447
I53
tp1423
atp1424
a(S'seinen'
p1425
(dp1426
S'PRON'
p1427
F1.0
s(lp1428
(g454
I54
tp1429
atp1430
a(S'nachbarn'
p1431
(dp1432
S'ADJ'
p1433
F0.005255
sS'NOUN'
p1434
F0.991624
s(lp1435
(g462
I55
tp1436
atp1437
a(S'bestehen'
p1438
(dp1439
S'VERB'
p1440
F0.948881
s(lp1441
(g122
I13
tp1442
atp1443
a(S'w\xc3\xbcrden'
p1444
(dp1445
S'VERB'
p1446
F1.0
s(lp1447
(g554
I14
tp1448
atp1449
a(g253
(dp1450
g253
F1.0
s(lp1451
(g253
I56
tp1452
atp1453
asS'it'
p1454
(lp1455
(S'ritengo'
p1456
(dp1457
S'VERB'
p1458
F1.0
s(lp1459
(g20
I1
tp1460
atp1461
a(S'sia'
p1462
(dp1463
S'CONJ'
p1464
F0.394292
sS'VERB'
p1465
F0.605707
s(lp1466
(g481
I2
tp1467
atp1468
a(S'un'
p1469
(dp1470
S'PRON'
p1471
F0.005004
sS'DEF'
p1472
F0.994996
s(lp1473
tp1474
a(S'fatto'
p1475
(dp1476
S'VERB'
p1477
F0.012234
sS'NOUN'
p1478
F0.987766
s(lp1479
tp1480
a(S'senza'
p1481
(dp1482
S'CONJ'
p1483
F0.055374
sS'ADP'
p1484
F0.944626
s(lp1485
tp1486
a(S'precedenti'
p1487
(dp1488
S'ADJ'
p1489
F0.404551
sS'VERB'
p1490
F0.021171
sS'NOUN'
p1491
F0.574277
s(lp1492
(g34
I3
tp1493
atp1494
a(S'nella'
p1495
(dp1496
S'ADP'
p1497
F1.0
s(lp1498
(g42
I4
tp1499
atp1500
a(S'storia'
p1501
(dp1502
S'NOUN'
p1503
F1.0
s(lp1504
(g58
I6
tp1505
atp1506
a(S"dell'"
p1507
(dp1508
S'ADJ'
p1509
F0.040682
sS'VERB'
p1510
F0.006560999999999999
sS'NOUN'
p1511
F0.952757
s(lp1512
(g65
I7
tp1513
atp1514
a(S'unione'
p1515
(dp1516
S'NOUN'
p1517
F1.0
s(lp1518
tp1519
a(S'europea'
p1520
(dp1521
S'NOUN'
p1522
F0.002695
sS'ADJ'
p1523
F0.997305
s(lp1524
(g82
I9
tp1525
atp1526
a(S'che'
p1527
(dp1528
S'PRON'
p1529
F0.775343
sS'CONJ'
p1530
F0.219843
sS'ADJ'
p1531
F0.004814
s(lp1532
(g106
I10
tp1533
atp1534
a(S'uno'
p1535
(dp1536
S'PRON'
p1537
F0.198053
sS'ADJ'
p1538
F0.114444
sS'DEF'
p1539
F0.599157
sS'NOUN'
p1540
F0.088346
s(lp1541
(g115
I11
tp1542
atp1543
a(S'stato'
p1544
(dp1545
S'VERB'
p1546
F0.614444
sS'NOUN'
p1547
F0.385556
s(lp1548
(g122
I13
tp1549
atp1550
a(S'membro'
p1551
(dp1552
S'NOUN'
p1553
F1.0
s(lp1554
(g130
I12
tp1555
atp1556
a(S'paralizzi'
p1557
(dp1558
S'VERB'
p1559
F1.0
s(lp1560
tp1561
a(S"l'"
p1562
(dp1563
S'NOUN'
p1564
F0.001578
sS'VERB'
p1565
F0.9786659999999998
sS'ADJ'
p1566
F0.019755
s(lp1567
tp1568
a(S'allargamento'
p1569
(dp1570
S'NOUN'
p1571
F1.0
s(lp1572
(g151
I17
tp1573
atp1574
a(S"dell'"
p1575
(dp1576
S'ADJ'
p1577
F0.040682
sS'VERB'
p1578
F0.006560999999999999
sS'NOUN'
p1579
F0.952757
s(lp1580
(g158
I18
tp1581
atp1582
a(S'unione'
p1583
(dp1584
S'NOUN'
p1585
F1.0
s(lp1586
(g174
I20
tp1587
atp1588
a(S'e'
p1589
(dp1590
S'CONJ'
p1591
F1.0
s(lp1592
(g181
I21
tp1593
atp1594
a(S'impedisca'
p1595
(dp1596
S'VERB'
p1597
F1.0
s(lp1598
(g188
I23
tp1599
atp1600
a(S"l'"
p1601
(dp1602
S'NOUN'
p1603
F0.004382
sS'VERB'
p1604
F0.9563980000000001
sS'ADJ'
p1605
F0.03922
s(lp1606
(g90
I16
tp1607
atp1608
a(S'apertura'
p1609
(dp1610
S'NOUN'
p1611
F1.0
s(lp1612
(g248
I29
tp1613
atp1614
a(S'di'
p1615
(dp1616
S'CONJ'
p1617
F1.5e-05
sS'ADP'
p1618
F0.999985
s(lp1619
tp1620
a(S'dodici'
p1621
(dp1622
S'NOUN'
p1623
F0.006717
sS'NUM'
p1624
F0.004037
sS'ADJ'
p1625
F0.989246
s(lp1626
(g203
I24
tp1627
atp1628
a(S'capitoli'
p1629
(dp1630
S'VERB'
p1631
F0.014086
sS'NOUN'
p1632
F0.985914
s(lp1633
(g211
I26
tp1634
atp1635
a(S'negoziali'
p1636
(dp1637
S'VERB'
p1638
F1e-06
sS'ADJ'
p1639
F0.999999
s(lp1640
(g223
I25
tp1641
atp1642
a(g251
(dp1643
g253
F1.0
s(lp1644
(g251
I30
tp1645
atp1646
a(S'mentre'
p1647
(dp1648
S'CONJ'
p1649
F1.0
s(lp1650
(g269
I31
tp1651
atp1652
a(S'nel'
p1653
(dp1654
S'ADP'
p1655
F1.0
s(lp1656
(g277
I33
tp1657
atp1658
a(S'2001'
p1659
(dp1660
S'NUM'
p1661
F0.999739
sg253
F0.000261
s(lp1662
(g285
I34
tp1663
atp1664
a(g251
(dp1665
g253
F1.0
s(lp1666
(g251
I35
tp1667
atp1668
a(S'quando'
p1669
(dp1670
S'ADV'
p1671
F0.094884
sS'PRON'
p1672
F0.019921
sS'CONJ'
p1673
F0.885025
sS'NOUN'
p1674
F0.00017
s(lp1675
(g296
I36
tp1676
atp1677
a(S'lo'
p1678
(dp1679
S'PRON'
p1680
F0.078783
sS'DET'
p1681
F0.921217
s(lp1682
(g122
I13
tp1683
atp1684
a(S'stesso'
p1685
(dp1686
S'NOUN'
p1687
F0.003717
sS'ADJ'
p1688
F0.996283
s(lp1689
tp1690
a(S'paese'
p1691
(dp1692
S'NOUN'
p1693
F1.0
s(lp1694
(g122
I13
tp1695
atp1696
a(S'discuteva'
p1697
(dp1698
S'VERB'
p1699
F1.0
s(lp1700
(g137
I15
tp1701
atp1702
a(S'la'
p1703
(dp1704
S'PRON'
p1705
F5.7e-05
sS'DET'
p1706
F0.999943
s(lp1707
(g305
I37
tp1708
atp1709
a(S'propria'
p1710
(dp1711
S'ADJ'
p1712
F1.0
s(lp1713
(g326
I40
tp1714
atp1715
a(S'adesione'
p1716
(dp1717
S'NOUN'
p1718
F1.0
s(lp1719
(g355
I42
tp1720
atp1721
a(g251
(dp1722
g253
F1.0
s(lp1723
(g251
I44
tp1724
atp1725
a(S'aveva'
p1726
(dp1727
S'VERB'
p1728
F1.0
s(lp1729
tp1730
a(S'dichiarato'
p1731
(dp1732
S'VERB'
p1733
F0.991923
sS'ADJ'
p1734
F0.008077
s(lp1735
(g393
I46
tp1736
atp1737
a(S'di'
p1738
(dp1739
S'CONJ'
p1740
F0.000118
sS'ADP'
p1741
F0.999882
s(lp1742
tp1743
a(S'non'
p1744
(dp1745
S'ADV'
p1746
F1.0
s(lp1747
(g406
I50
tp1748
atp1749
a(S'avere'
p1750
(dp1751
S'VERB'
p1752
F0.998955
sS'NOUN'
p1753
F0.001045
s(lp1754
(g414
I49
tp1755
atp1756
a(S'controversie'
p1757
(dp1758
S'NOUN'
p1759
F1.0
s(lp1760
tp1761
a(S'transfrontaliere'
p1762
(dp1763
S'ADJ'
p1764
F1.0
s(lp1765
(g439
I51
tp1766
atp1767
a(S'in'
p1768
(dp1769
S'ADP'
p1770
F1.0
s(lp1771
tp1772
a(S'sospeso'
p1773
(dp1774
S'ADJ'
p1775
F0.20785
sS'VERB'
p1776
F0.33298
sS'NOUN'
p1777
F0.459169
s(lp1778
(g426
I52
tp1779
atp1780
a(S'con'
p1781
(dp1782
S'ADP'
p1783
F1.0
s(lp1784
(g447
I53
tp1785
atp1786
a(g7
(dp1787
S'DET'
p1788
F1.0
s(lp1789
(g454
I54
tp1790
atp1791
a(S'paesi'
p1792
(dp1793
S'NOUN'
p1794
F1.0
s(lp1795
tp1796
a(S'confinanti'
p1797
(dp1798
S'NOUN'
p1799
F0.021836
sS'VERB'
p1800
F0.263696
sS'ADJ'
p1801
F0.714468
s(lp1802
(g462
I55
tp1803
atp1804
a(g253
(dp1805
g253
F1.0
s(lp1806
(g253
I56
tp1807
atp1808
asS'sk'
p1809
(lp1810
(S'v'
p1811
(dp1812
g282
F0.0005470000000000001
sS'ADP'
p1813
F0.999453
s(lp1814
(g42
I4
tp1815
atp1816
a(S'dejin\xc3\xa1ch'
p1817
(dp1818
S'NOUN'
p1819
F1.0
s(lp1820
(g58
I6
tp1821
atp1822
a(S'e\xc3\x9a'
p1823
(dp1824
S'ADV'
p1825
F0.056058
sS'ADJ'
p1826
F0.325795
sS'VERB'
p1827
F0.159657
sS'NOUN'
p1828
F0.447975
sg282
F0.010513999999999999
s(lp1829
(g82
I9
tp1830
atp1831
a(S'nem\xc3\xa1'
p1832
(dp1833
g282
F0.005351
sS'VERB'
p1834
F0.819435
sS'ADJ'
p1835
F0.170699
sS'NOUN'
p1836
F0.004515
s(lp1837
tp1838
a(S'obdoby'
p1839
(dp1840
S'NOUN'
p1841
F1.0
s(lp1842
(g34
I3
tp1843
atp1844
a(g251
(dp1845
g253
F1.0
s(lp1846
tp1847
a(S'aby'
p1848
(dp1849
g282
F0.003176
sS'CONJ'
p1850
F0.996824
s(lp1851
(g106
I10
tp1852
atp1853
a(S'jeden'
p1854
(dp1855
S'NUM'
p1856
F1.0
s(lp1857
(g115
I11
tp1858
atp1859
a(S'\xc4\x8dlensk\xc3\xbd'
p1860
(dp1861
S'ADJ'
p1862
F1.0
s(lp1863
(g130
I12
tp1864
atp1865
a(S'\xc5\xa1t\xc3\xa1t'
p1866
(dp1867
S'NOUN'
p1868
F1.0
s(lp1869
(g122
I13
tp1870
atp1871
a(S'paralyzoval'
p1872
(dp1873
S'VERB'
p1874
F1.0
s(lp1875
(g137
I15
tp1876
atp1877
a(S'roz\xc5\xa1\xc3\xadrenie'
p1878
(dp1879
S'NOUN'
p1880
F1.0
s(lp1881
(g151
I17
tp1882
atp1883
a(S'\xc3\x9anie'
p1884
(dp1885
S'NOUN'
p1886
F1.0
s(lp1887
(g174
I20
tp1888
atp1889
a(S'a'
p1890
(dp1891
g282
F0.004702
sS'CONJ'
p1892
F0.994917
sS'NOUN'
p1893
F0.00022700000000000002
sS'ADP'
p1894
F1e-06
sS'PRT'
p1895
F0.000154
s(lp1896
(g181
I21
tp1897
atp1898
a(g1811
(dp1899
g282
F0.0005889999999999999
sS'ADP'
p1900
F0.999411
s(lp1901
tp1902
a(S's\xc3\xba\xc4\x8dasnosti'
p1903
(dp1904
S'NOUN'
p1905
F1.0
s(lp1906
(g195
I22
tp1907
atp1908
a(S'br\xc3\xa1nil'
p1909
(dp1910
S'VERB'
p1911
F1.0
s(lp1912
(g188
I23
tp1913
atp1914
a(S'otvoreniu'
p1915
(dp1916
S'NOUN'
p1917
F1.0
s(lp1918
(g248
I29
tp1919
atp1920
a(S'dvan\xc3\xa1stich'
p1921
(dp1922
S'NUM'
p1923
F1.0
s(lp1924
(g203
I24
tp1925
atp1926
a(S'rokovac\xc3\xadch'
p1927
(dp1928
S'ADJ'
p1929
F1.0
s(lp1930
(g223
I25
tp1931
atp1932
a(S'kapitol'
p1933
(dp1934
S'NOUN'
p1935
F1.0
s(lp1936
(g211
I26
tp1937
atp1938
a(g251
(dp1939
g253
F1.0
s(lp1940
(g251
I30
tp1941
atp1942
a(S'pri\xc4\x8dom'
p1943
(dp1944
S'CONJ'
p1945
F1.0
s(lp1946
(g269
I31
tp1947
atp1948
a(g1811
(dp1949
g282
F0.0005769999999999999
sS'ADP'
p1950
F0.999424
s(lp1951
(g277
I33
tp1952
atp1953
a(S'roku'
p1954
(dp1955
S'NOUN'
p1956
F1.0
s(lp1957
tp1958
a(S'2001'
p1959
(dp1960
S'NUM'
p1961
F1.0
s(lp1962
(g285
I34
tp1963
atp1964
a(g251
(dp1965
g253
F1.0
s(lp1966
(g251
I35
tp1967
atp1968
a(g1811
(dp1969
g282
F0.000753
sS'ADP'
p1970
F0.999247
s(lp1971
(g296
I36
tp1972
atp1973
a(S'\xc4\x8dase'
p1974
(dp1975
S'NOUN'
p1976
F1.0
s(lp1977
(g312
I38
tp1978
atp1979
a(S'vlastn\xc3\xbdch'
p1980
(dp1981
S'ADJ'
p1982
F1.0
s(lp1983
(g334
I41
tp1984
atp1985
a(S'pr\xc3\xadstupov\xc3\xbdch'
p1986
(dp1987
S'ADJ'
p1988
F1.0
s(lp1989
(g355
I42
tp1990
atp1991
a(S'rozhovorov'
p1992
(dp1993
S'NOUN'
p1994
F1.0
s(lp1995
(g341
I43
tp1996
atp1997
a(S'prehl\xc3\xa1sil'
p1998
(dp1999
S'VERB'
p2000
F1.0
s(lp2001
(g393
I46
tp2002
atp2003
a(g251
(dp2004
g253
F1.0
s(lp2005
(g251
I44
tp2006
atp2007
a(S'\xc5\xbee'
p2008
(dp2009
g282
F0.001181
sS'CONJ'
p2010
F0.998819
s(lp2011
(g374
I47
tp2012
atp2013
a(S'nem\xc3\xa1'
p2014
(dp2015
S'ADJ'
p2016
F8.4e-05
sS'VERB'
p2017
F0.999691
sS'NOUN'
p2018
F0.000206
sg282
F1.9e-05
s(lp2019
tp2020
a(S'\xc5\xbeiadne'
p2021
(dp2022
S'PRON'
p2023
F1.0
s(lp2024
(g406
I50
tp2025
atp2026
a(S'pohrani\xc4\x8dn\xc3\xa9'
p2027
(dp2028
S'ADJ'
p2029
F1.0
s(lp2030
(g439
I51
tp2031
atp2032
a(S'spory'
p2033
(dp2034
S'NOUN'
p2035
F1.0
s(lp2036
(g426
I52
tp2037
atp2038
a(S'so'
p2039
(dp2040
g282
F1.5e-05
sS'ADP'
p2041
F0.999985
s(lp2042
(g447
I53
tp2043
atp2044
a(S'susedmi'
p2045
(dp2046
S'NOUN'
p2047
F1.0
s(lp2048
(g462
I55
tp2049
atp2050
a(g253
(dp2051
g253
F1.0
s(lp2052
(g253
I56
tp2053
atp2054
asS'pl'
p2055
(lp2056
(S'uwa\xc5\xbcam'
p2057
(dp2058
S'VERB'
p2059
F1.0
s(lp2060
tp2061
a(S'za'
p2062
(dp2063
S'PRT'
p2064
F0.004867
sS'VERB'
p2065
F1.7e-05
sS'NOUN'
p2066
F1e-05
sS'ADP'
p2067
F0.9951059999999998
sg282
F0.0
s(lp2068
(g20
I1
tp2069
atp2070
a(S'co\xc5\x9b'
p2071
(dp2072
S'PRT'
p2073
F0.000354
sS'NOUN'
p2074
F0.999645
s(lp2075
tp2076
a(S'bezprecedensowego'
p2077
(dp2078
S'ADV'
p2079
F0.004268
sS'NOUN'
p2080
F0.026042000000000003
sS'VERB'
p2081
F0.035491999999999996
sS'ADJ'
p2082
F0.9341990000000001
s(lp2083
(g34
I3
tp2084
atp2085
a(S'w'
p2086
(dp2087
S'NOUN'
p2088
F4e-06
sS'ADJ'
p2089
F3.9e-05
sS'ADP'
p2090
F0.999955
sg282
F2e-06
s(lp2091
(g42
I4
tp2092
atp2093
a(S'historii'
p2094
(dp2095
S'NOUN'
p2096
F1.000001
s(lp2097
(g58
I6
tp2098
atp2099
a(S'ue'
p2100
(dp2101
S'ADJ'
p2102
F0.000544
sS'VERB'
p2103
F0.002296
sS'NOUN'
p2104
F0.9971600000000002
s(lp2105
(g82
I9
tp2106
atp2107
a(g251
(dp2108
g282
F0.0
sg253
F1.0
s(lp2109
tp2110
a(S'\xc5\xbceby'
p2111
(dp2112
S'PRT'
p2113
F0.001509
sS'CONJ'
p2114
F0.998491
s(lp2115
(g106
I10
tp2116
atp2117
a(S'jedno'
p2118
(dp2119
S'NOUN'
p2120
F0.010601
sS'ADJ'
p2121
F0.9894000000000001
s(lp2122
(g115
I11
tp2123
atp2124
a(S'pa\xc5\x84stwo'
p2125
(dp2126
S'NOUN'
p2127
F0.9999990000000001
s(lp2128
(g122
I13
tp2129
atp2130
a(S'cz\xc5\x82onkowskie'
p2131
(dp2132
S'ADJ'
p2133
F1.0
s(lp2134
(g130
I12
tp2135
atp2136
a(S'mia\xc5\x82o'
p2137
(dp2138
S'VERB'
p2139
F1.0
s(lp2140
(g137
I15
tp2141
atp2142
a(S'parali\xc5\xbcowa\xc4\x87'
p2143
(dp2144
S'VERB'
p2145
F1.0
s(lp2146
(g137
I15
tp2147
atp2148
a(S'rozszerzenie'
p2149
(dp2150
S'VERB'
p2151
F1.0
s(lp2152
(g151
I17
tp2153
atp2154
a(S'unii'
p2155
(dp2156
S'NOUN'
p2157
F1.0
s(lp2158
(g174
I20
tp2159
atp2160
a(g7
(dp2161
S'PRT'
p2162
F0.00291
sS'CONJ'
p2163
F0.997033
sS'NOUN'
p2164
F8e-06
sg282
F3e-06
sS'PRON'
p2165
F4.7e-05
s(lp2166
(g181
I21
tp2167
atp2168
a(S'uniemo\xc5\xbcliwia\xc4\x87'
p2169
(dp2170
S'VERB'
p2171
F1.0
s(lp2172
(g188
I23
tp2173
atp2174
a(S'otwarcie'
p2175
(dp2176
S'ADV'
p2177
F0.802287
sS'VERB'
p2178
F0.145727
sS'NOUN'
p2179
F0.051986000000000004
s(lp2180
(g248
I29
tp2181
atp2182
a(S'12'
p2183
(dp2184
S'NUM'
p2185
F0.920506
sS'ADJ'
p2186
F0.07949399999999995
s(lp2187
(g203
I24
tp2188
atp2189
a(S'rozdzia\xc5\x82\xc3\xb3w'
p2190
(dp2191
S'NOUN'
p2192
F1.0
s(lp2193
(g211
I26
tp2194
atp2195
a(S'negocjacyjnych'
p2196
(dp2197
S'ADV'
p2198
F0.000331
sS'NOUN'
p2199
F0.10623999999999999
sS'VERB'
p2200
F0.001343
sS'ADJ'
p2201
F0.8920859999999999
s(lp2202
(g223
I25
tp2203
atp2204
a(g251
(dp2205
g282
F0.0
sg253
F1.0
s(lp2206
(g251
I30
tp2207
atp2208
a(S'cho\xc4\x87'
p2209
(dp2210
S'PRT'
p2211
F0.010132
sS'CONJ'
p2212
F0.987863
sS'VERB'
p2213
F0.002005
s(lp2214
(g269
I31
tp2215
atp2216
a(g2086
(dp2217
S'ADJ'
p2218
F0.0
sg282
F0.0
sS'NOUN'
p2219
F8e-06
sS'ADP'
p2220
F0.999992
s(lp2221
(g277
I33
tp2222
atp2223
a(S'roku'
p2224
(dp2225
S'NOUN'
p2226
F1.0
s(lp2227
tp2228
a(S'2001'
p2229
(dp2230
S'NOUN'
p2231
F0.008391
sS'NUM'
p2232
F0.081756
sS'ADJ'
p2233
F0.9098539999999999
s(lp2234
(g285
I34
tp2235
atp2236
a(g251
(dp2237
g282
F0.0
sg253
F1.0
s(lp2238
(g251
I35
tp2239
atp2240
a(S'gdy'
p2241
(dp2242
S'ADV'
p2243
F1.0
s(lp2244
(g312
I38
tp2245
atp2246
a(S'samo'
p2247
(dp2248
S'ADV'
p2249
F0.613436
sS'ADJ'
p2250
F0.386563
s(lp2251
tp2252
a(S'negocjowa\xc5\x82o'
p2253
(dp2254
S'ADV'
p2255
F0.006052
sS'ADJ'
p2256
F0.004100999999999999
sS'VERB'
p2257
F0.9782700000000002
sS'NOUN'
p2258
F0.011578999999999999
s(lp2259
(g137
I15
tp2260
atp2261
a(S'przyst\xc4\x85pienie'
p2262
(dp2263
S'VERB'
p2264
F0.9538690000000001
sS'NOUN'
p2265
F0.046131
s(lp2266
(g355
I42
tp2267
atp2268
a(S'do'
p2269
(dp2270
g282
F0.0
sS'NOUN'
p2271
F2e-06
sS'ADP'
p2272
F0.9999979999999999
s(lp2273
tp2274
a(S'ue'
p2275
(dp2276
S'ADJ'
p2277
F0.00034100000000000005
sS'VERB'
p2278
F5.999999999999999e-06
sS'NOUN'
p2279
F0.9996520000000001
s(lp2280
(g355
I42
tp2281
atp2282
a(g251
(dp2283
g282
F0.0
sg253
F1.0
s(lp2284
(g251
I44
tp2285
atp2286
a(S'deklarowa\xc5\x82o'
p2287
(dp2288
S'ADV'
p2289
F0.000106
sS'ADJ'
p2290
F6.999999999999999e-06
sS'VERB'
p2291
F0.999497
sS'NOUN'
p2292
F0.0003910000000000002
s(lp2293
(g393
I46
tp2294
atp2295
a(S'ono'
p2296
(dp2297
S'PRON'
p2298
F1.0
s(lp2299
(g381
I48
tp2300
atp2301
a(S'brak'
p2302
(dp2303
S'ADJ'
p2304
F0.020614
sS'NOUN'
p2305
F0.979386
s(lp2306
tp2307
a(S'jakichkolwiek'
p2308
(dp2309
S'ADJ'
p2310
F1.0
s(lp2311
(g406
I50
tp2312
atp2313
a(S'spor\xc3\xb3w'
p2314
(dp2315
S'NOUN'
p2316
F1.0
s(lp2317
(g426
I52
tp2318
atp2319
a(S'granicznych'
p2320
(dp2321
S'ADJ'
p2322
F1.0
s(lp2323
(g439
I51
tp2324
atp2325
a(S'z'
p2326
(dp2327
S'PRT'
p2328
F2e-06
sS'VERB'
p2329
F0.0
sS'NOUN'
p2330
F0.0
sS'ADP'
p2331
F0.999998
sg282
F0.0
s(lp2332
(g447
I53
tp2333
atp2334
a(S's\xc4\x85siadami'
p2335
(dp2336
S'NOUN'
p2337
F1.0
s(lp2338
(g462
I55
tp2339
atp2340
a(g253
(dp2341
g253
F1.0
s(lp2342
(g253
I56
tp2343
atp2344
asS'sl'
p2345
(lp2346
(S'menim'
p2347
(dp2348
S'VERB'
p2349
F1.0
s(lp2350
(g20
I1
tp2351
atp2352
a(g251
(dp2353
g253
F1.0
s(lp2354
tp2355
a(S'da'
p2356
(dp2357
S'PRT'
p2358
F5e-06
sS'CONJ'
p2359
F0.99997
sS'VERB'
p2360
F2.4e-05
sg282
F1e-06
s(lp2361
tp2362
a(S'se'
p2363
(dp2364
S'PRON'
p2365
F0.999994
sg282
F6e-06
s(lp2366
(g481
I2
tp2367
atp2368
a(g1811
(dp2369
S'ADP'
p2370
F1.0
s(lp2371
(g42
I4
tp2372
atp2373
a(S'zgodovini'
p2374
(dp2375
S'NOUN'
p2376
F1.0
s(lp2377
(g58
I6
tp2378
atp2379
a(S'eu'
p2380
(dp2381
S'ADV'
p2382
F0.031405
sS'ADJ'
p2383
F0.03847000000000001
sS'VERB'
p2384
F0.032107
sS'NOUN'
p2385
F0.8980180000000004
s(lp2386
(g82
I9
tp2387
atp2388
a(S'\xc5\xa1e'
p2389
(dp2390
S'PRT'
p2391
F1.0
s(lp2392
(g34
I3
tp2393
atp2394
a(S'ni'
p2395
(dp2396
S'VERB'
p2397
F1.0
s(lp2398
tp2399
a(S'zgodilo'
p2400
(dp2401
S'VERB'
p2402
F1.0
s(lp2403
(g34
I3
tp2404
atp2405
a(g251
(dp2406
g253
F1.0
s(lp2407
tp2408
a(S'da'
p2409
(dp2410
S'PRT'
p2411
F0.000137
sS'CONJ'
p2412
F0.999855
sS'VERB'
p2413
F8e-06
sg282
F0.0
s(lp2414
(g106
I10
tp2415
atp2416
a(S'bi'
p2417
(dp2418
g282
F7.2e-05
sS'VERB'
p2419
F0.999928
s(lp2420
(g554
I14
tp2421
atp2422
a(S'ena'
p2423
(dp2424
S'NUM'
p2425
F1.0
s(lp2426
(g115
I11
tp2427
atp2428
a(S'dr\xc5\xbeava'
p2429
(dp2430
S'NOUN'
p2431
F1.0
s(lp2432
(g122
I13
tp2433
atp2434
a(S'\xc4\x8dlanica'
p2435
(dp2436
S'NOUN'
p2437
F1.0
s(lp2438
(g130
I12
tp2439
atp2440
a(S'ohromila'
p2441
(dp2442
S'ADV'
p2443
F4.7e-05
sS'NOUN'
p2444
F0.007734999999999999
sS'VERB'
p2445
F0.930187
sS'ADJ'
p2446
F0.06203000000000001
s(lp2447
(g137
I15
tp2448
atp2449
a(S'\xc5\xa1iritev'
p2450
(dp2451
S'NOUN'
p2452
F1.0
s(lp2453
(g151
I17
tp2454
atp2455
a(S'unije'
p2456
(dp2457
S'NOUN'
p2458
F1.0
s(lp2459
(g174
I20
tp2460
atp2461
a(S'in'
p2462
(dp2463
S'ADV'
p2464
F0.000111
sg282
F9e-06
sS'CONJ'
p2465
F0.999871
sS'NOUN'
p2466
F9e-06
s(lp2467
(g181
I21
tp2468
atp2469
a(S'trenutno'
p2470
(dp2471
S'ADV'
p2472
F0.998755
sS'ADJ'
p2473
F0.001245
s(lp2474
(g195
I22
tp2475
atp2476
a(S'prepre\xc4\x8duje'
p2477
(dp2478
S'VERB'
p2479
F1.0
s(lp2480
(g188
I23
tp2481
atp2482
a(S'odprtje'
p2483
(dp2484
S'NOUN'
p2485
F1.0
s(lp2486
(g248
I29
tp2487
atp2488
a(S'dvanajstih'
p2489
(dp2490
S'NUM'
p2491
F1.0
s(lp2492
(g203
I24
tp2493
atp2494
a(S'pogajalskih'
p2495
(dp2496
S'ADJ'
p2497
F1.0
s(lp2498
(g223
I25
tp2499
atp2500
a(S'poglavij'
p2501
(dp2502
S'NOUN'
p2503
F1.0
s(lp2504
(g211
I26
tp2505
atp2506
a(g251
(dp2507
g253
F1.0
s(lp2508
(g251
I30
tp2509
atp2510
a(S'medtem'
p2511
(dp2512
S'ADV'
p2513
F1.0
s(lp2514
tp2515
a(S'ko'
p2516
(dp2517
S'CONJ'
p2518
F1.0
s(lp2519
(g269
I31
tp2520
atp2521
a(S'je'
p2522
(dp2523
S'PRON'
p2524
F0.025477
sS'VERB'
p2525
F0.974515
sg282
F8e-06
s(lp2526
tp2527
a(S'leta'
p2528
(dp2529
S'NOUN'
p2530
F1.0
s(lp2531
tp2532
a(S'2001'
p2533
(dp2534
S'NUM'
p2535
F1.0
s(lp2536
(g285
I34
tp2537
atp2538
a(g251
(dp2539
g253
F1.0
s(lp2540
(g251
I35
tp2541
atp2542
a(g1811
(dp2543
S'ADP'
p2544
F1.0
s(lp2545
(g296
I36
tp2546
atp2547
a(S'\xc4\x8dasu'
p2548
(dp2549
S'NOUN'
p2550
F1.0
s(lp2551
(g312
I38
tp2552
atp2553
a(S'svojih'
p2554
(dp2555
S'PRON'
p2556
F1.0
s(lp2557
(g326
I40
tp2558
atp2559
a(S'pristopnih'
p2560
(dp2561
S'ADJ'
p2562
F0.999999
s(lp2563
(g355
I42
tp2564
atp2565
a(S'pogajanj'
p2566
(dp2567
S'NOUN'
p2568
F1.0
s(lp2569
(g341
I43
tp2570
atp2571
a(g251
(dp2572
g253
F1.0
s(lp2573
(g251
I44
tp2574
atp2575
a(S'navedla'
p2576
(dp2577
S'VERB'
p2578
F1.0
s(lp2579
(g393
I46
tp2580
atp2581
a(g251
(dp2582
g253
F1.0
s(lp2583
tp2584
a(S'da'
p2585
(dp2586
S'PRT'
p2587
F0.000542
sS'CONJ'
p2588
F0.999406
sS'VERB'
p2589
F5e-05
sg282
F2e-06
s(lp2590
(g374
I47
tp2591
atp2592
a(S'ni'
p2593
(dp2594
S'VERB'
p2595
F1.0
s(lp2596
(g406
I50
tp2597
atp2598
a(g1811
(dp2599
S'ADP'
p2600
F1.0
s(lp2601
(g277
I33
tp2602
atp2603
a(S'sporu'
p2604
(dp2605
S'NOUN'
p2606
F1.0
s(lp2607
tp2608
a(S'glede'
p2609
(dp2610
S'ADV'
p2611
F0.071901
sS'ADP'
p2612
F0.928099
s(lp2613
(g426
I52
tp2614
atp2615
a(S'meje'
p2616
(dp2617
S'NOUN'
p2618
F0.9999990000000001
s(lp2619
(g439
I51
tp2620
atp2621
a(S's'
p2622
(dp2623
S'VERB'
p2624
F0.0
sS'NOUN'
p2625
F1e-06
sS'ADP'
p2626
F0.9999979999999999
s(lp2627
(g447
I53
tp2628
atp2629
a(S'svojimi'
p2630
(dp2631
S'PRON'
p2632
F1.0
s(lp2633
(g454
I54
tp2634
atp2635
a(S'sosedi'
p2636
(dp2637
S'NOUN'
p2638
F1.0
s(lp2639
(g462
I55
tp2640
atp2641
a(g253
(dp2642
g253
F1.0
s(lp2643
(g253
I56
tp2644
atp2645
asS'es'
p2646
(lp2647
(S'considero'
p2648
(dp2649
S'VERB'
p2650
F1.0
s(lp2651
(g20
I1
tp2652
atp2653
a(S'un'
p2654
(dp2655
g282
F1e-06
sS'DET'
p2656
F0.999999
s(lp2657
tp2658
a(S'hecho'
p2659
(dp2660
S'ADJ'
p2661
F0.007351
sS'VERB'
p2662
F0.024917
sS'NOUN'
p2663
F0.967733
s(lp2664
(g481
I2
tp2665
atp2666
a(S'sin'
p2667
(dp2668
S'ADP'
p2669
F1.0
s(lp2670
tp2671
a(S'precedentes'
p2672
(dp2673
S'VERB'
p2674
F0.368137
sS'ADJ'
p2675
F0.631863
s(lp2676
(g34
I3
tp2677
atp2678
a(S'en'
p2679
(dp2680
g282
F0.0
sS'CONJ'
p2681
F1e-06
sS'ADP'
p2682
F0.999999
s(lp2683
(g42
I4
tp2684
atp2685
a(S'la'
p2686
(dp2687
S'NOUN'
p2688
F0.0
sS'PRON'
p2689
F0.0
sS'DET'
p2690
F0.999999
sg282
F0.0
s(lp2691
(g51
I5
tp2692
atp2693
a(S'historia'
p2694
(dp2695
S'VERB'
p2696
F1.3e-05
sS'NOUN'
p2697
F0.999987
s(lp2698
(g58
I6
tp2699
atp2700
a(S'de'
p2701
(dp2702
g282
F0.0
sS'CONJ'
p2703
F1.7e-05
sS'ADP'
p2704
F0.999983
s(lp2705
(g65
I7
tp2706
atp2707
a(S'la'
p2708
(dp2709
g282
F0.0
sS'PRON'
p2710
F0.0
sS'DET'
p2711
F0.999999
sS'NOUN'
p2712
F0.0
s(lp2713
(g74
I8
tp2714
atp2715
a(S'ue'
p2716
(dp2717
S'VERB'
p2718
F2.5e-05
sS'NOUN'
p2719
F0.9999750000000001
s(lp2720
(g82
I9
tp2721
atp2722
a(S'que'
p2723
(dp2724
g282
F0.0
sS'CONJ'
p2725
F1.0
s(lp2726
(g106
I10
tp2727
atp2728
a(S'un'
p2729
(dp2730
g282
F0.0
sS'DET'
p2731
F1.0
s(lp2732
(g115
I11
tp2733
atp2734
a(S'estado'
p2735
(dp2736
S'VERB'
p2737
F5e-06
sS'NOUN'
p2738
F0.999995
s(lp2739
(g122
I13
tp2740
atp2741
a(S'miembro'
p2742
(dp2743
S'NOUN'
p2744
F1.0
s(lp2745
(g130
I12
tp2746
atp2747
a(S'paralice'
p2748
(dp2749
S'VERB'
p2750
F1.0
s(lp2751
tp2752
a(S'la'
p2753
(dp2754
g282
F0.0
sS'PRON'
p2755
F0.0
sS'DET'
p2756
F1.0
sS'NOUN'
p2757
F0.0
s(lp2758
(g90
I16
tp2759
atp2760
a(S'ampliaci\xc3\xb3n'
p2761
(dp2762
S'NOUN'
p2763
F1.0
s(lp2764
(g151
I17
tp2765
atp2766
a(S'de'
p2767
(dp2768
g282
F0.0
sS'CONJ'
p2769
F1.7e-05
sS'ADP'
p2770
F0.999983
s(lp2771
(g158
I18
tp2772
atp2773
a(S'la'
p2774
(dp2775
g282
F0.0
sS'PRON'
p2776
F0.0
sS'DET'
p2777
F0.999999
sS'NOUN'
p2778
F0.0
s(lp2779
(g167
I19
tp2780
atp2781
a(S'uni\xc3\xb3n'
p2782
(dp2783
S'NOUN'
p2784
F1.0
s(lp2785
(g174
I20
tp2786
atp2787
a(S'y'
p2788
(dp2789
g282
F0.001476
sS'CONJ'
p2790
F0.998524
s(lp2791
(g181
I21
tp2792
atp2793
a(S'evite'
p2794
(dp2795
S'VERB'
p2796
F1.0
s(lp2797
(g188
I23
tp2798
atp2799
a(g251
(dp2800
g253
F1.0
s(lp2801
tp2802
a(S'hoy'
p2803
(dp2804
S'ADV'
p2805
F1.0
s(lp2806
(g195
I22
tp2807
atp2808
a(S'en'
p2809
(dp2810
g282
F1e-06
sS'CONJ'
p2811
F6.7e-05
sS'ADP'
p2812
F0.999933
s(lp2813
tp2814
a(S'd\xc3\xada'
p2815
(dp2816
S'NOUN'
p2817
F1.0
s(lp2818
(g195
I22
tp2819
atp2820
a(g251
(dp2821
g253
F1.0
s(lp2822
tp2823
a(S'que'
p2824
(dp2825
g282
F5e-06
sS'CONJ'
p2826
F0.999995
s(lp2827
tp2828
a(S'se'
p2829
(dp2830
S'PRON'
p2831
F1.0
sS'VERB'
p2832
F0.0
s(lp2833
(g240
I28
tp2834
atp2835
a(S'abran'
p2836
(dp2837
S'VERB'
p2838
F1.0
s(lp2839
(g248
I29
tp2840
atp2841
a(S'12'
p2842
(dp2843
g282
F0.003694
sS'NUM'
p2844
F0.996306
s(lp2845
(g203
I24
tp2846
atp2847
a(S'cap\xc3\xadtulos'
p2848
(dp2849
S'NOUN'
p2850
F1.0
s(lp2851
(g211
I26
tp2852
atp2853
a(S'de'
p2854
(dp2855
g282
F2.9e-05
sS'CONJ'
p2856
F0.000449
sS'ADP'
p2857
F0.999522
s(lp2858
(g232
I27
tp2859
atp2860
a(S'negociaci\xc3\xb3n'
p2861
(dp2862
S'NOUN'
p2863
F1.0
s(lp2864
(g223
I25
tp2865
atp2866
a(g251
(dp2867
g253
F1.0
s(lp2868
(g251
I30
tp2869
atp2870
a(S'cuando'
p2871
(dp2872
S'CONJ'
p2873
F1.0
s(lp2874
(g269
I31
tp2875
atp2876
a(S'en'
p2877
(dp2878
g282
F0.001522
sS'CONJ'
p2879
F4e-06
sS'ADP'
p2880
F0.998473
s(lp2881
(g277
I33
tp2882
atp2883
a(S'2001'
p2884
(dp2885
g282
F0.105222
sS'NUM'
p2886
F0.894778
s(lp2887
(g285
I34
tp2888
atp2889
a(g251
(dp2890
g253
F1.0
s(lp2891
(g251
I35
tp2892
atp2893
a(S'mientras'
p2894
(dp2895
S'CONJ'
p2896
F1.0
s(lp2897
(g296
I36
tp2898
atp2899
a(S'se'
p2900
(dp2901
S'PRON'
p2902
F1.0
sS'VERB'
p2903
F0.0
s(lp2904
(g305
I37
tp2905
atp2906
a(S'produc\xc3\xadan'
p2907
(dp2908
S'VERB'
p2909
F1.0
s(lp2910
(g137
I15
tp2911
atp2912
a(S'las'
p2913
(dp2914
S'PRON'
p2915
F0.0
sS'DET'
p2916
F1.0
s(lp2917
tp2918
a(S'negociaciones'
p2919
(dp2920
S'NOUN'
p2921
F1.0
s(lp2922
(g341
I43
tp2923
atp2924
a(S'para'
p2925
(dp2926
S'CONJ'
p2927
F0.010922
sS'ADP'
p2928
F0.989078
s(lp2929
(g319
I39
tp2930
atp2931
a(S'su'
p2932
(dp2933
S'PRON'
p2934
F1.0
s(lp2935
(g326
I40
tp2936
atp2937
a(S'propia'
p2938
(dp2939
S'ADJ'
p2940
F1.0
s(lp2941
(g334
I41
tp2942
atp2943
a(S'adhesi\xc3\xb3n'
p2944
(dp2945
S'NOUN'
p2946
F1.0
s(lp2947
(g355
I42
tp2948
atp2949
a(g251
(dp2950
g253
F1.0
s(lp2951
(g251
I44
tp2952
atp2953
a(S'declar\xc3\xb3'
p2954
(dp2955
S'VERB'
p2956
F1.0
s(lp2957
(g393
I46
tp2958
atp2959
a(S'que'
p2960
(dp2961
g282
F0.0
sS'CONJ'
p2962
F1.0
s(lp2963
(g374
I47
tp2964
atp2965
a(S'no'
p2966
(dp2967
S'ADV'
p2968
F1.0
sg282
F0.0
s(lp2969
(g406
I50
tp2970
atp2971
a(S'ten\xc3\xada'
p2972
(dp2973
S'VERB'
p2974
F1.0
s(lp2975
(g414
I49
tp2976
atp2977
a(S'conflictos'
p2978
(dp2979
S'NOUN'
p2980
F1.0
s(lp2981
(g426
I52
tp2982
atp2983
a(S'fronterizos'
p2984
(dp2985
S'ADJ'
p2986
F1.0
s(lp2987
(g439
I51
tp2988
atp2989
a(S'con'
p2990
(dp2991
S'ADP'
p2992
F1.0
s(lp2993
(g447
I53
tp2994
atp2995
a(S'sus'
p2996
(dp2997
S'PRON'
p2998
F1.0
s(lp2999
(g454
I54
tp3000
atp3001
a(S'vecinos'
p3002
(dp3003
S'NOUN'
p3004
F1.0
s(lp3005
(g462
I55
tp3006
atp3007
a(g253
(dp3008
g253
F1.0
s(lp3009
(g253
I56
tp3010
atp3011
as.