(dp0
S'fr'
p1
(lp2
(S'je'
p3
(dp4
S'PRON'
p5
F1.0
s(lp6
(S'i'
p7
I0
tp8
atp9
a(S'crois'
p10
(dp11
S'VERB'
p12
F1.0
s(lp13
(S'believe'
p14
I1
tp15
atp16
a(S"qu'"
p17
(dp18
S'NOUN'
p19
F0.043787
sS'VERB'
p20
F0.7697689999999999
sS'ADJ'
p21
F0.186444
s(lp22
(S'there'
p23
I2
tp24
atp25
a(S'il'
p26
(dp27
S'PRON'
p28
F1.0
s(lp29
tp30
a(S'existe'
p31
(dp32
S'VERB'
p33
F1.0
s(lp34
(g23
I2
tp35
atp36
a(S'plusieurs'
p37
(dp38
S'PRON'
p39
F0.999988
sS'NOUN'
p40
F1.2e-05
s(lp41
(S'number'
p42
I5
tp43
atp44
a(S'avis'
p45
(dp46
S'NOUN'
p47
F1.0
s(lp48
(S'opinions'
p49
I8
tp50
atp51
a(S'd\xc3\xa9fendables'
p52
(dp53
S'ADJ'
p54
F1.0
s(lp55
(S'defensible'
p56
I7
tp57
atp58
a(S'en'
p59
(dp60
S'PRON'
p61
F0.000258
sS'ADP'
p62
F0.999742
s(lp63
(S'on'
p64
I9
tp65
atp66
a(S'la'
p67
(dp68
S'PRON'
p69
F1.2e-05
sS'DET'
p70
F0.999987
sS'NOUN'
p71
F0.0
s(lp72
(S'this'
p73
I10
tp74
atp75
a(S'mati\xc3\xa8re'
p76
(dp77
S'NOUN'
p78
F1.0
s(lp79
(S'issue'
p80
I11
tp81
atp82
a(S'.'
p83
(dp84
g83
F1.0
s(lp85
(g83
I12
tp86
atp87
asS'en'
p88
(lp89
(g7
(dp90
S'X'
p91
F0.004558
sS'NOUN'
p92
F0.9954419999999999
s(lp93
(g7
I0
tp94
atp95
a(g14
(dp96
S'VERB'
p97
F1.0
s(lp98
(g14
I1
tp99
atp100
a(g23
(dp101
S'ADV'
p102
F0.006062
sS'ADJ'
p103
F0.0
sS'DET'
p104
F0.993938
sS'ADP'
p105
F0.0
s(lp106
(g23
I2
tp107
atp108
a(S'are'
p109
(dp110
S'VERB'
p111
F1.0
sS'NOUN'
p112
F0.0
s(lp113
(g109
I3
tp114
atp115
a(S'a'
p116
(dp117
S'NOUN'
p118
F0.0
sS'DET'
p119
F1.0
s(lp120
(g116
I4
tp121
atp122
a(g42
(dp123
S'ADJ'
p124
F0.000161
sS'VERB'
p125
F0.0
sS'NOUN'
p126
F0.999838
s(lp127
(g42
I5
tp128
atp129
a(S'of'
p130
(dp131
S'ADP'
p132
F1.0
s(lp133
(g130
I6
tp134
atp135
a(g56
(dp136
S'ADJ'
p137
F1.0
s(lp138
(g56
I7
tp139
atp140
a(g49
(dp141
S'NOUN'
p142
F1.0
s(lp143
(g49
I8
tp144
atp145
a(g64
(dp146
S'ADV'
p147
F0.000757
sS'PRT'
p148
F0.000439
sS'ADJ'
p149
F0.0
sS'ADP'
p150
F0.998804
sS'NOUN'
p151
F0.0
s(lp152
(g64
I9
tp153
atp154
a(g73
(dp155
S'ADV'
p156
F3e-06
sS'NOUN'
p157
F1.9e-05
sS'DET'
p158
F0.999978
s(lp159
(g73
I10
tp160
atp161
a(g80
(dp162
S'VERB'
p163
F0.00018600000000000002
sS'NOUN'
p164
F0.999814
s(lp165
(g80
I11
tp166
atp167
a(g83
(dp168
g83
F1.0
s(lp169
(g83
I12
tp170
atp171
asS'nl'
p172
(lp173
(S'ik'
p174
(dp175
S'PRON'
p176
F0.999981
sS'NOUN'
p177
F1.9e-05
s(lp178
(g7
I0
tp179
atp180
a(S'denk'
p181
(dp182
S'VERB'
p183
F1.0
s(lp184
tp185
a(S'dat'
p186
(dp187
S'PRON'
p188
F0.002611
sS'CONJ'
p189
F0.997389
s(lp190
(g14
I1
tp191
atp192
a(S'men'
p193
(dp194
S'PRON'
p195
F0.999978
sS'VERB'
p196
F2.2e-05
s(lp197
(g23
I2
tp198
atp199
a(S'daarover'
p200
(dp201
S'ADV'
p202
F1.0
s(lp203
(g73
I10
tp204
atp205
a(S'van'
p206
(dp207
S'ADP'
p208
F1.0
s(lp209
(g130
I6
tp210
atp211
a(S'mening'
p212
(dp213
S'NOUN'
p214
F1.0
s(lp215
(g49
I8
tp216
atp217
a(S'kan'
p218
(dp219
S'VERB'
p220
F0.999959
sS'NOUN'
p221
F4.1e-05
s(lp222
tp223
a(S'verschillen'
p224
(dp225
S'VERB'
p226
F0.9900140000000001
sS'NOUN'
p227
F0.009986
s(lp228
(g56
I7
tp229
atp230
a(g83
(dp231
g83
F1.0
s(lp232
(g83
I12
tp233
atp234
asS'de'
p235
(lp236
(S'ich'
p237
(dp238
S'PRON'
p239
F1.0
s(lp240
(g7
I0
tp241
atp242
a(S'denke'
p243
(dp244
S'VERB'
p245
F1.0
s(lp246
(g14
I1
tp247
atp248
a(S','
p249
(dp250
g83
F1.0
s(lp251
tp252
a(S'da'
p253
(dp254
S'ADV'
p255
F0.371279
sS'CONJ'
p256
F0.628278
s(lp257
(g23
I2
tp258
atp259
a(S'sind'
p260
(dp261
S'VERB'
p262
F1.0
s(lp263
(g109
I3
tp264
atp265
a(S'unterschiedliche'
p266
(dp267
S'ADJ'
p268
F1.0
s(lp269
tp270
a(S'meinungen'
p271
(dp272
S'ADJ'
p273
F0.004283
sS'NOUN'
p274
F0.993608
s(lp275
(g49
I8
tp276
atp277
a(S'berechtigt'
p278
(dp279
S'VERB'
p280
F0.966023
s(lp281
(g56
I7
tp282
atp283
a(g83
(dp284
g83
F1.0
s(lp285
(g83
I12
tp286
atp287
asS'it'
p288
(lp289
(S'ritengo'
p290
(dp291
S'VERB'
p292
F1.0
s(lp293
(g14
I1
tp294
atp295
a(S'che'
p296
(dp297
S'PRON'
p298
F0.95894
sS'CONJ'
p299
F0.035401
sS'ADJ'
p300
F0.005659
s(lp301
(g7
I0
tp302
atp303
a(S'in'
p304
(dp305
S'ADP'
p306
F1.0
s(lp307
(g64
I9
tp308
atp309
a(S'merito'
p310
(dp311
S'VERB'
p312
F5.9e-05
sS'NOUN'
p313
F0.999941
s(lp314
tp315
a(g116
(dp316
S'CONJ'
p317
F0.001332
sS'ADP'
p318
F0.998668
s(lp319
(g64
I9
tp320
atp321
a(S'tale'
p322
(dp323
S'PRON'
p324
F0.999886
sS'CONJ'
p325
F3.2e-05
sS'NOUN'
p326
F8.2e-05
s(lp327
(g73
I10
tp328
atp329
a(S'questione'
p330
(dp331
S'NOUN'
p332
F1.0
s(lp333
(g80
I11
tp334
atp335
a(S'ci'
p336
(dp337
S'ADV'
p338
F0.000198
sS'PRON'
p339
F0.9997720000000001
sS'NOUN'
p340
F3.1e-05
s(lp341
(g23
I2
tp342
atp343
a(S'siano'
p344
(dp345
S'VERB'
p346
F1.0
s(lp347
(g109
I3
tp348
atp349
a(S'numerose'
p350
(dp351
S'ADJ'
p352
F1.0
s(lp353
(g42
I5
tp354
atp355
a(S'considerazioni'
p356
(dp357
S'NOUN'
p358
F1.0
s(lp359
(g49
I8
tp360
atp361
a(S'difendibili'
p362
(dp363
S'ADJ'
p364
F1.0
s(lp365
(g56
I7
tp366
atp367
a(g83
(dp368
g83
F1.0
s(lp369
(g83
I12
tp370
atp371
asS'sk'
p372
(lp373
(S'domnievam'
p374
(dp375
S'VERB'
p376
F1.0
s(lp377
(g14
I1
tp378
atp379
a(S'sa'
p380
(dp381
S'PRT'
p382
F0.999842
sS'ADP'
p383
F0.0
sg91
F0.00015800000000000002
s(lp384
tp385
a(g249
(dp386
g83
F1.0
s(lp387
tp388
a(S'\xc5\xbee'
p389
(dp390
g91
F0.0009
sS'CONJ'
p391
F0.9991
s(lp392
(g14
I1
tp393
atp394
a(S'k'
p395
(dp396
g91
F9.1e-05
sS'NOUN'
p397
F6e-06
sS'ADP'
p398
F0.999903
s(lp399
(g64
I9
tp400
atp401
a(S'tejto'
p402
(dp403
S'PRON'
p404
F1.0
s(lp405
(g73
I10
tp406
atp407
a(S'problematike'
p408
(dp409
S'NOUN'
p410
F1.0
s(lp411
(g80
I11
tp412
atp413
a(S'existuje'
p414
(dp415
S'VERB'
p416
F1.0
s(lp417
(g23
I2
tp418
atp419
a(S'mno\xc5\xbestvo'
p420
(dp421
S'NOUN'
p422
F1.0
s(lp423
(g42
I5
tp424
atp425
a(S'obh\xc3\xa1jite\xc4\xben\xc3\xbdch'
p426
(dp427
S'NOUN'
p428
F0.00021
sS'VERB'
p429
F0.07158499999999997
sS'ADJ'
p430
F0.9282039999999999
s(lp431
(g56
I7
tp432
atp433
a(S'n\xc3\xa1zorov'
p434
(dp435
S'NOUN'
p436
F1.0
s(lp437
(g49
I8
tp438
atp439
a(g83
(dp440
g83
F1.0
s(lp441
(g83
I12
tp442
atp443
asS'pl'
p444
(lp445
(S'wierz\xc4\x99'
p446
(dp447
S'VERB'
p448
F1.0
s(lp449
(g14
I1
tp450
atp451
a(g249
(dp452
g91
F0.0
sg83
F1.0
s(lp453
tp454
a(S'\xc5\xbce'
p455
(dp456
S'PRT'
p457
F0.001163
sS'CONJ'
p458
F0.998837
s(lp459
(g23
I2
tp460
atp461
a(S'jest'
p462
(dp463
S'VERB'
p464
F1.0
s(lp465
(g109
I3
tp466
atp467
a(S'wiele'
p468
(dp469
S'ADV'
p470
F0.005862
sS'NUM'
p471
F0.994138
s(lp472
(g42
I5
tp473
atp474
a(S'obronnych'
p475
(dp476
S'ADJ'
p477
F1.0
s(lp478
(g56
I7
tp479
atp480
a(S'opinii'
p481
(dp482
S'NOUN'
p483
F1.0
s(lp484
(g49
I8
tp485
atp486
a(S'w'
p487
(dp488
g91
F0.0
sS'ADJ'
p489
F3e-06
sS'ADP'
p490
F0.9999959999999999
sS'NOUN'
p491
F0.0
s(lp492
(g64
I9
tp493
atp494
a(S'tej'
p495
(dp496
S'PRON'
p497
F7e-06
sS'ADJ'
p498
F0.999993
sg91
F0.0
s(lp499
(g73
I10
tp500
atp501
a(S'kwestii'
p502
(dp503
S'NOUN'
p504
F1.0
s(lp505
(g80
I11
tp506
atp507
a(g83
(dp508
g83
F1.0
s(lp509
(g83
I12
tp510
atp511
asS'sl'
p512
(lp513
(S'menim'
p514
(dp515
S'VERB'
p516
F1.0
s(lp517
(g14
I1
tp518
atp519
a(g249
(dp520
g83
F1.0
s(lp521
tp522
a(S'da'
p523
(dp524
S'PRT'
p525
F4e-06
sS'CONJ'
p526
F0.999979
sS'VERB'
p527
F1.7e-05
sg91
F1e-06
s(lp528
(g23
I2
tp529
atp530
a(S'je'
p531
(dp532
S'PRON'
p533
F0.002422
sS'VERB'
p534
F0.997576
sg91
F1e-06
s(lp535
(g109
I3
tp536
atp537
a(S'o'
p538
(dp539
S'NOUN'
p540
F1.6e-05
sS'ADP'
p541
F0.999984
s(lp542
(g64
I9
tp543
atp544
a(S'tem'
p545
(dp546
S'ADV'
p547
F4e-06
sS'PRON'
p548
F0.9999959999999999
sS'NOUN'
p549
F1e-06
s(lp550
(g73
I10
tp551
atp552
a(S'vpra\xc5\xa1anju'
p553
(dp554
S'NOUN'
p555
F1.0
s(lp556
(g80
I11
tp557
atp558
a(S'upravi\xc4\x8denih'
p559
(dp560
S'ADJ'
p561
F1.0
s(lp562
(g56
I7
tp563
atp564
a(S've\xc4\x8d'
p565
(dp566
S'ADV'
p567
F0.987336
sS'PRT'
p568
F0.012664
s(lp569
(g42
I5
tp570
atp571
a(S'mnenj'
p572
(dp573
S'NOUN'
p574
F1.0
s(lp575
(g49
I8
tp576
atp577
a(g83
(dp578
g83
F1.0
s(lp579
(g83
I12
tp580
atp581
asS'es'
p582
(lp583
(S'yo'
p584
(dp585
S'PRON'
p586
F1.0
s(lp587
(g7
I0
tp588
atp589
a(S'creo'
p590
(dp591
S'VERB'
p592
F1.0
s(lp593
(g14
I1
tp594
atp595
a(S'que'
p596
(dp597
g91
F1e-06
sS'CONJ'
p598
F0.999999
s(lp599
tp600
a(S'hay'
p601
(dp602
S'VERB'
p603
F1.0
s(lp604
(g23
I2
tp605
atp606
a(S'distintas'
p607
(dp608
S'ADJ'
p609
F1.0
s(lp610
(g42
I5
tp611
atp612
a(S'opiniones'
p613
(dp614
S'NOUN'
p615
F1.0
s(lp616
(g49
I8
tp617
atp618
a(S'defendibles'
p619
(dp620
S'NOUN'
p621
F0.002534
sS'VERB'
p622
F0.001764
sS'ADJ'
p623
F0.995701
s(lp624
(g56
I7
tp625
atp626
a(S'sobre'
p627
(dp628
S'NOUN'
p629
F0.0
sS'ADP'
p630
F1.0
s(lp631
(g64
I9
tp632
atp633
a(S'esta'
p634
(dp635
S'PRON'
p636
F1.0
sS'VERB'
p637
F0.0
s(lp638
(g73
I10
tp639
atp640
a(S'cuesti\xc3\xb3n'
p641
(dp642
S'NOUN'
p643
F1.0
s(lp644
(g80
I11
tp645
atp646
a(g83
(dp647
g83
F1.0
s(lp648
(g83
I12
tp649
atp650
as.