(dp0
S'fr'
p1
(lp2
(S'si'
p3
(dp4
S'ADV'
p5
F0.075137
sS'CONJ'
p6
F0.924768
sS'NOUN'
p7
F9.5e-05
s(lp8
(S'if'
p9
I0
tp10
atp11
a(S'nous'
p12
(dp13
S'PRON'
p14
F1.0
s(lp15
(S'we'
p16
I1
tp17
atp18
a(S'voulons'
p19
(dp20
S'VERB'
p21
F1.0
s(lp22
(S'want'
p23
I2
tp24
atp25
a(S'faire'
p26
(dp27
S'VERB'
p28
F1.0
s(lp29
(S'be'
p30
I4
tp31
atp32
a(S'de'
p33
(dp34
S'ADP'
p35
F1.0
s(lp36
(S'about'
p37
I6
tp38
atp39
a(S'la'
p40
(dp41
S'PRON'
p42
F1.2e-05
sS'DET'
p43
F0.999988
sS'NOUN'
p44
F0.0
s(lp45
tp46
a(S'gouvernance'
p47
(dp48
S'NOUN'
p49
F1.0
s(lp50
(S'governance'
p51
I8
tp52
atp53
a(S'\xc3\xa9conomique'
p54
(dp55
S'NOUN'
p56
F0.048464
sS'ADJ'
p57
F0.951536
s(lp58
(S'economic'
p59
I7
tp60
atp61
a(S's\xc3\xa9rieuse'
p62
(dp63
S'ADJ'
p64
F1.0
s(lp65
(S'serious'
p66
I5
tp67
atp68
a(S','
p69
(dp70
S'.'
p71
F1.0
s(lp72
(g69
I9
tp73
atp74
a(S"c'"
p75
(dp76
S'ADJ'
p77
F0.13429
sS'VERB'
p78
F0.638201
sS'NOUN'
p79
F0.227509
s(lp80
(S'that'
p81
I10
tp82
atp83
a(S'est'
p84
(dp85
S'VERB'
p86
F0.999409
sS'NOUN'
p87
F0.000591
s(lp88
(S'is'
p89
I11
tp90
atp91
a(S'la'
p92
(dp93
S'PRON'
p94
F7.4e-05
sS'DET'
p95
F0.999916
sS'NOUN'
p96
F1e-05
s(lp97
(S'the'
p98
I12
tp99
atp100
a(S'seule'
p101
(dp102
S'NOUN'
p103
F0.008109
sS'ADJ'
p104
F0.991891
s(lp105
(S'only'
p106
I13
tp107
atp108
a(S'mani\xc3\xa8re'
p109
(dp110
S'VERB'
p111
F0.028789
sS'NOUN'
p112
F0.971211
s(lp113
(S'way'
p114
I14
tp115
atp116
a(S"d'"
p117
(dp118
S'NOUN'
p119
F0.034038
sS'VERB'
p120
F0.6970529999999999
sS'ADJ'
p121
F0.268909
s(lp122
(S'to'
p123
I15
tp124
atp125
a(S'en'
p126
(dp127
S'PRON'
p128
F0.133368
sS'ADP'
p129
F0.866632
s(lp130
(S'it'
p131
I17
tp132
atp133
a(S'faire'
p134
(dp135
S'VERB'
p136
F1.0
s(lp137
(S'do'
p138
I16
tp139
atp140
a(g71
(dp141
g71
F1.0
s(lp142
(g71
I18
tp143
atp144
asS'en'
p145
(lp146
(g9
(dp147
S'ADP'
p148
F1.0
s(lp149
(g9
I0
tp150
atp151
a(g16
(dp152
S'PRON'
p153
F1.0
s(lp154
(g16
I1
tp155
atp156
a(g23
(dp157
S'VERB'
p158
F1.0
sS'NOUN'
p159
F0.0
s(lp160
(g23
I2
tp161
atp162
a(S'to'
p163
(dp164
S'ADV'
p165
F0.0
sS'PRT'
p166
F1.0
s(lp167
(g163
I3
tp168
atp169
a(g30
(dp170
S'VERB'
p171
F1.0
s(lp172
(g30
I4
tp173
atp174
a(g66
(dp175
S'ADJ'
p176
F1.0
s(lp177
(g66
I5
tp178
atp179
a(g37
(dp180
S'ADV'
p181
F0.200808
sS'ADP'
p182
F0.799192
s(lp183
(g37
I6
tp184
atp185
a(g59
(dp186
S'ADJ'
p187
F1.0
s(lp188
(g59
I7
tp189
atp190
a(g51
(dp191
S'NOUN'
p192
F1.0
s(lp193
(g51
I8
tp194
atp195
a(g69
(dp196
g71
F1.0
s(lp197
(g69
I9
tp198
atp199
a(g81
(dp200
S'ADV'
p201
F0.001747
sS'DET'
p202
F0.9982420000000001
sS'ADP'
p203
F1.1e-05
s(lp204
(g81
I10
tp205
atp206
a(g89
(dp207
S'VERB'
p208
F1.0
s(lp209
(g89
I11
tp210
atp211
a(g98
(dp212
S'NOUN'
p213
F0.0
sS'DET'
p214
F1.0
s(lp215
(g98
I12
tp216
atp217
a(g106
(dp218
S'ADV'
p219
F0.027495
sS'NOUN'
p220
F0.000391
sS'ADJ'
p221
F0.972114
s(lp222
(g106
I13
tp223
atp224
a(g114
(dp225
S'ADV'
p226
F0.00355
sS'NOUN'
p227
F0.99645
s(lp228
(g114
I14
tp229
atp230
a(g123
(dp231
S'ADV'
p232
F0.0
sS'PRT'
p233
F1.0
sS'ADP'
p234
F0.0
s(lp235
(g123
I15
tp236
atp237
a(g138
(dp238
S'VERB'
p239
F0.999999
sS'NOUN'
p240
F0.0
s(lp241
(g138
I16
tp242
atp243
a(g131
(dp244
S'PRON'
p245
F1.0
s(lp246
(g131
I17
tp247
atp248
a(g71
(dp249
g71
F1.0
s(lp250
(g71
I18
tp251
atp252
asS'nl'
p253
(lp254
(S'als'
p255
(dp256
S'CONJ'
p257
F1.0
s(lp258
(g9
I0
tp259
atp260
a(S'we'
p261
(dp262
S'PRON'
p263
F1.0
s(lp264
(g16
I1
tp265
atp266
a(S'het'
p267
(dp268
S'PRON'
p269
F0.039917
sS'DET'
p270
F0.960083
s(lp271
(g163
I3
tp272
atp273
a(S'economisch'
p274
(dp275
S'ADJ'
p276
F1.0
s(lp277
(g59
I7
tp278
atp279
a(S'bestuur'
p280
(dp281
S'VERB'
p282
F0.001199
sS'NOUN'
p283
F0.998801
s(lp284
(g51
I8
tp285
atp286
a(S'serieus'
p287
(dp288
S'ADJ'
p289
F1.0
s(lp290
(g66
I5
tp291
atp292
a(S'nemen'
p293
(dp294
S'VERB'
p295
F0.9151290000000001
sS'NOUN'
p296
F0.084871
s(lp297
(g30
I4
tp298
atp299
a(g69
(dp300
g71
F1.0
s(lp301
(g69
I9
tp302
atp303
a(S'is'
p304
(dp305
S'VERB'
p306
F1.0
s(lp307
(g89
I11
tp308
atp309
a(S'dat'
p310
(dp311
S'PRON'
p312
F0.042407
sS'CONJ'
p313
F0.957593
s(lp314
(g81
I10
tp315
atp316
a(S'de'
p317
(dp318
S'DET'
p319
F1.0
s(lp320
(g98
I12
tp321
atp322
a(S'enige'
p323
(dp324
S'PRON'
p325
F0.145099
sS'ADJ'
p326
F0.851393
sS'NOUN'
p327
F0.003508
s(lp328
(g106
I13
tp329
atp330
a(S'manier'
p331
(dp332
S'NOUN'
p333
F1.0
s(lp334
(g114
I14
tp335
atp336
a(S'om'
p337
(dp338
S'ADV'
p339
F0.001242
sS'CONJ'
p340
F0.673257
sS'ADP'
p341
F0.325502
s(lp342
tp343
a(S'het'
p344
(dp345
S'PRON'
p346
F0.627066
sS'DET'
p347
F0.372933
s(lp348
(g131
I17
tp349
atp350
a(S'te'
p351
(dp352
S'PRT'
p353
F1.0
s(lp354
(g123
I15
tp355
atp356
a(S'doen'
p357
(dp358
S'VERB'
p359
F1.0
sS'NOUN'
p360
F0.0
s(lp361
(g138
I16
tp362
atp363
a(g71
(dp364
g71
F1.0
s(lp365
(g71
I18
tp366
atp367
asS'de'
p368
(lp369
(S'wenn'
p370
(dp371
S'CONJ'
p372
F1.0
s(lp373
(g9
I0
tp374
atp375
a(S'wir'
p376
(dp377
S'PRON'
p378
F1.0
s(lp379
(g16
I1
tp380
atp381
a(S'es'
p382
(dp383
S'PRON'
p384
F1.0
s(lp385
(g30
I4
tp386
atp387
a(S'mit'
p388
(dp389
S'PRT'
p390
F0.00148
sS'ADP'
p391
F0.99852
s(lp392
(g37
I6
tp393
atp394
a(S'der'
p395
(dp396
S'PRON'
p397
F2e-05
sS'DET'
p398
F0.999971
s(lp399
tp400
a(S'economic'
p401
(dp402
S'ADJ'
p403
F0.087413
sS'NOUN'
p404
F0.912528
s(lp405
(g59
I7
tp406
atp407
a(S'governance'
p408
(dp409
S'NOUN'
p410
F0.962953
s(lp411
(g51
I8
tp412
atp413
a(S'ernst'
p414
(dp415
S'PRT'
p416
F0.047618
sS'ADJ'
p417
F0.952382
s(lp418
tp419
a(S'meinen'
p420
(dp421
S'VERB'
p422
F0.9983639999999999
s(lp423
(g66
I5
tp424
atp425
a(g69
(dp426
g71
F1.0
s(lp427
(g69
I9
tp428
atp429
a(S'dann'
p430
(dp431
S'ADV'
p432
F1.0
s(lp433
(g81
I10
tp434
atp435
a(S'ist'
p436
(dp437
S'VERB'
p438
F1.0
s(lp439
(g89
I11
tp440
atp441
a(S'das'
p442
(dp443
S'PRON'
p444
F0.965401
sS'DET'
p445
F0.034514
s(lp446
(g131
I17
tp447
atp448
a(S'der'
p449
(dp450
S'PRON'
p451
F0.044454
sS'DET'
p452
F0.938682
s(lp453
(g98
I12
tp454
atp455
a(S'einzig'
p456
(dp457
S'ADJ'
p458
F1.0
s(lp459
(g106
I13
tp460
atp461
a(S'm\xc3\xb6gliche'
p462
(dp463
S'ADJ'
p464
F1.0
s(lp465
tp466
a(S'weg'
p467
(dp468
S'ADV'
p469
F0.139631
sS'PRT'
p470
F0.860369
s(lp471
(g114
I14
tp472
atp473
a(g71
(dp474
g71
F1.0
s(lp475
(g71
I18
tp476
atp477
asS'it'
p478
(lp479
(S'se'
p480
(dp481
S'PRON'
p482
F0.514877
sS'CONJ'
p483
F0.485057
sS'NOUN'
p484
F6.6e-05
s(lp485
(g9
I0
tp486
atp487
a(S'vogliamo'
p488
(dp489
S'VERB'
p490
F1.0
s(lp491
(g23
I2
tp492
atp493
a(S'porci'
p494
(dp495
S'NOUN'
p496
F0.014419
sS'VERB'
p497
F0.877669
sS'ADJ'
p498
F0.107912
s(lp499
(g30
I4
tp500
atp501
a(S'seriamente'
p502
(dp503
S'ADV'
p504
F1.0
s(lp505
(g66
I5
tp506
atp507
a(S'la'
p508
(dp509
S'PRON'
p510
F0.000175
sS'DET'
p511
F0.999825
s(lp512
tp513
a(S'questione'
p514
(dp515
S'NOUN'
p516
F1.0
s(lp517
tp518
a(S'del'
p519
(dp520
S'DEF'
p521
F0.002741
sS'ADP'
p522
F0.997259
s(lp523
(g37
I6
tp524
atp525
a(S'buon'
p526
(dp527
S'ADJ'
p528
F1.0
s(lp529
tp530
a(S'governo'
p531
(dp532
S'VERB'
p533
F0.00261
sS'NOUN'
p534
F0.99739
s(lp535
(g51
I8
tp536
atp537
a(S'economico'
p538
(dp539
S'ADJ'
p540
F1.0
s(lp541
(g59
I7
tp542
atp543
a(g69
(dp544
g71
F1.0
s(lp545
(g69
I9
tp546
atp547
a(S'questo'
p548
(dp549
S'PRON'
p550
F1.0
s(lp551
(g81
I10
tp552
atp553
a(S'\xc3\xa8'
p554
(dp555
S'VERB'
p556
F1.0
s(lp557
(g89
I11
tp558
atp559
a(S"l'"
p560
(dp561
S'NOUN'
p562
F0.000971
sS'VERB'
p563
F0.9832770000000001
sS'ADJ'
p564
F0.015752
s(lp565
(g98
I12
tp566
atp567
a(S'unico'
p568
(dp569
S'NOUN'
p570
F0.001836
sS'ADJ'
p571
F0.998164
s(lp572
(g106
I13
tp573
atp574
a(S'modo'
p575
(dp576
S'NOUN'
p577
F1.0
s(lp578
(g114
I14
tp579
atp580
a(S'per'
p581
(dp582
S'CONJ'
p583
F0.005329
sS'ADP'
p584
F0.994671
s(lp585
(g123
I15
tp586
atp587
a(S'farlo'
p588
(dp589
S'VERB'
p590
F1.0
s(lp591
(g138
I16
tp592
atp593
a(g71
(dp594
g71
F1.0
s(lp595
(g71
I18
tp596
atp597
asS'sk'
p598
(lp599
(S'ak'
p600
(dp601
S'X'
p602
F0.010781
sS'CONJ'
p603
F0.989219
s(lp604
(g9
I0
tp605
atp606
a(S'to'
p607
(dp608
S'PRON'
p609
F0.9433159999999999
sS'CONJ'
p610
F0.026658
sg602
F0.030026
s(lp611
tp612
a(S's'
p613
(dp614
g602
F0.000812
sS'CONJ'
p615
F5.4e-05
sS'NOUN'
p616
F7.8e-05
sS'ADP'
p617
F0.998777
sS'PRT'
p618
F0.000277
s(lp619
(g37
I6
tp620
atp621
a(S'hospod\xc3\xa1rskym'
p622
(dp623
S'ADJ'
p624
F1.0
s(lp625
(g59
I7
tp626
atp627
a(S'riaden\xc3\xadm'
p628
(dp629
S'NOUN'
p630
F1.0
s(lp631
(g51
I8
tp632
atp633
a(S'mysl\xc3\xadme'
p634
(dp635
S'VERB'
p636
F1.0
s(lp637
(g16
I1
tp638
atp639
a(S'v\xc3\xa1\xc5\xbene'
p640
(dp641
S'ADV'
p642
F0.948502
sg602
F0.003935
sS'ADJ'
p643
F0.047563
s(lp644
(g66
I5
tp645
atp646
a(g69
(dp647
g71
F1.0
s(lp648
(g69
I9
tp649
atp650
a(S'je'
p651
(dp652
S'PRON'
p653
F8.8e-05
sS'VERB'
p654
F0.999832
sg602
F7.999999999999999e-05
s(lp655
(g89
I11
tp656
atp657
a(S'to'
p658
(dp659
S'PRON'
p660
F0.907121
sS'CONJ'
p661
F0.007905
sg602
F0.08497400000000001
s(lp662
(g81
I10
tp663
atp664
a(S'jedin\xc3\xbd'
p665
(dp666
S'NUM'
p667
F1.0
s(lp668
(g106
I13
tp669
atp670
a(S'sp\xc3\xb4sob'
p671
(dp672
S'VERB'
p673
F0.0
sS'NOUN'
p674
F1.0
s(lp675
tp676
a(g69
(dp677
g71
F1.0
s(lp678
tp679
a(S'ako'
p680
(dp681
S'PRON'
p682
F0.02106
sS'CONJ'
p683
F0.978848
sg602
F9.2e-05
s(lp684
(g114
I14
tp685
atp686
a(S'to'
p687
(dp688
S'PRON'
p689
F0.9697479999999999
sS'CONJ'
p690
F0.012407
sg602
F0.017845
s(lp691
(g131
I17
tp692
atp693
a(S'dosiahnu\xc5\xa5'
p694
(dp695
S'VERB'
p696
F1.0
s(lp697
(g138
I16
tp698
atp699
a(g71
(dp700
g71
F1.0
s(lp701
(g71
I18
tp702
atp703
asS'pl'
p704
(lp705
(S'je\xc5\xbceli'
p706
(dp707
S'CONJ'
p708
F1.0
s(lp709
(g9
I0
tp710
atp711
a(S'chcemy'
p712
(dp713
S'VERB'
p714
F1.0
s(lp715
(g23
I2
tp716
atp717
a(S'powa\xc5\xbcnie'
p718
(dp719
S'ADV'
p720
F1.0
s(lp721
tp722
a(S'podchodzi\xc4\x87'
p723
(dp724
S'VERB'
p725
F1.0
s(lp726
(g66
I5
tp727
atp728
a(S'do'
p729
(dp730
g602
F0.0
sS'NOUN'
p731
F2e-06
sS'ADP'
p732
F0.999998
s(lp733
(g37
I6
tp734
atp735
a(S'zarz\xc4\x85dzania'
p736
(dp737
S'VERB'
p738
F0.343751
sS'NOUN'
p739
F0.656249
s(lp740
(g51
I8
tp741
atp742
a(S'gospodarczego'
p743
(dp744
S'ADJ'
p745
F1.0
s(lp746
(g59
I7
tp747
atp748
a(g69
(dp749
g602
F2e-06
sg71
F0.999998
s(lp750
(g69
I9
tp751
atp752
a(S'jest'
p753
(dp754
S'VERB'
p755
F1.0
s(lp756
(g89
I11
tp757
atp758
a(S'to'
p759
(dp760
S'NOUN'
p761
F0.157551
sS'ADP'
p762
F2e-06
sS'PRT'
p763
F0.354227
sg602
F1e-06
sS'CONJ'
p764
F0.142347
sS'ADJ'
p765
F0.345871
s(lp766
(g81
I10
tp767
atp768
a(S'jedyny'
p769
(dp770
S'ADJ'
p771
F0.9999999999999999
s(lp772
(g106
I13
tp773
atp774
a(S'spos\xc3\xb3b'
p775
(dp776
S'ADJ'
p777
F0.000663
sS'NOUN'
p778
F0.999337
s(lp779
(g114
I14
tp780
atp781
a(g71
(dp782
g71
F1.0
s(lp783
(g71
I18
tp784
atp785
asS'sl'
p786
(lp787
(S'\xc4\x8ce'
p788
(dp789
S'CONJ'
p790
F1.0
s(lp791
(g9
I0
tp792
atp793
a(S'z'
p794
(dp795
S'ADP'
p796
F1.0
s(lp797
(g37
I6
tp798
atp799
a(S'gospodarskim'
p800
(dp801
S'ADJ'
p802
F1.0
s(lp803
(g59
I7
tp804
atp805
a(S'upravljanjem'
p806
(dp807
S'ADV'
p808
F0.000486
sS'ADJ'
p809
F0.000148
sS'VERB'
p810
F5.099999999999999e-05
sS'NOUN'
p811
F0.9993150000000002
s(lp812
(g51
I8
tp813
atp814
a(S'mislimo'
p815
(dp816
S'VERB'
p817
F1.0
s(lp818
(g16
I1
tp819
atp820
a(S'resno'
p821
(dp822
S'ADV'
p823
F0.849659
sS'ADJ'
p824
F0.150341
s(lp825
(g66
I5
tp826
atp827
a(g69
(dp828
g71
F1.0
s(lp829
(g69
I9
tp830
atp831
a(S'je'
p832
(dp833
S'PRON'
p834
F0.000909
sS'VERB'
p835
F0.999085
sg602
F5e-06
s(lp836
(g89
I11
tp837
atp838
a(S'to'
p839
(dp840
S'PRON'
p841
F0.999988
sg602
F1.1e-05
s(lp842
(g81
I10
tp843
atp844
a(S'edini'
p845
(dp846
S'ADJ'
p847
F0.9999999999999999
s(lp848
(g106
I13
tp849
atp850
a(S'pravi'
p851
(dp852
S'VERB'
p853
F0.000213
sS'ADJ'
p854
F0.9997870000000001
s(lp855
tp856
a(S'pristop'
p857
(dp858
S'NOUN'
p859
F1.0
s(lp860
(g114
I14
tp861
atp862
a(g71
(dp863
g71
F1.0
s(lp864
(g71
I18
tp865
atp866
asS'es'
p867
(lp868
(S'si'
p869
(dp870
S'CONJ'
p871
F0.999886
sS'NOUN'
p872
F0.000114
s(lp873
(g9
I0
tp874
atp875
a(S'queremos'
p876
(dp877
S'VERB'
p878
F1.0
s(lp879
(g23
I2
tp880
atp881
a(S'ser'
p882
(dp883
S'VERB'
p884
F0.998521
sS'NOUN'
p885
F0.001479
s(lp886
(g30
I4
tp887
atp888
a(S'serios'
p889
(dp890
S'ADJ'
p891
F1.0
s(lp892
(g66
I5
tp893
atp894
a(S'sobre'
p895
(dp896
S'NOUN'
p897
F0.0
sS'ADP'
p898
F1.0
s(lp899
(g37
I6
tp900
atp901
a(S'la'
p902
(dp903
S'NOUN'
p904
F0.0
sS'PRON'
p905
F0.0
sS'DET'
p906
F0.999999
sg602
F0.0
s(lp907
tp908
a(S'gobernanza'
p909
(dp910
S'VERB'
p911
F1e-06
sS'NOUN'
p912
F0.999999
s(lp913
(g51
I8
tp914
atp915
a(S'econ\xc3\xb3mica'
p916
(dp917
S'ADJ'
p918
F1.0
s(lp919
(g59
I7
tp920
atp921
a(g69
(dp922
g71
F1.0
s(lp923
(g69
I9
tp924
atp925
a(S'esta'
p926
(dp927
S'PRON'
p928
F1.0
sS'VERB'
p929
F0.0
s(lp930
(g81
I10
tp931
atp932
a(S'es'
p933
(dp934
S'VERB'
p935
F1.0
s(lp936
(g89
I11
tp937
atp938
a(S'la'
p939
(dp940
S'NOUN'
p941
F2.6e-05
sS'PRON'
p942
F0.0
sS'DET'
p943
F0.999966
sg602
F8e-06
s(lp944
(g98
I12
tp945
atp946
a(S'\xc3\xbanica'
p947
(dp948
S'ADJ'
p949
F1.0
s(lp950
(g106
I13
tp951
atp952
a(S'forma'
p953
(dp954
S'VERB'
p955
F0.083439
sS'NOUN'
p956
F0.916561
s(lp957
(g114
I14
tp958
atp959
a(S'de'
p960
(dp961
g602
F0.0
sS'CONJ'
p962
F0.191298
sS'ADP'
p963
F0.808702
s(lp964
(g123
I15
tp965
atp966
a(S'hacerlo'
p967
(dp968
S'VERB'
p969
F1.0
s(lp970
(g138
I16
tp971
atp972
a(g71
(dp973
g71
F1.0
s(lp974
(g71
I18
tp975
atp976
as.