(dp0
S'fr'
p1
(lp2
(S'la'
p3
(dp4
S'PRON'
p5
F0.000146
sS'DET'
p6
F0.999854
sS'NOUN'
p7
F0.0
s(lp8
(S'the'
p9
I0
tp10
atp11
a(S'visite'
p12
(dp13
S'VERB'
p14
F6.8e-05
sS'NOUN'
p15
F0.999932
s(lp16
(S'visit'
p17
I1
tp18
atp19
a(S'a'
p20
(dp21
S'VERB'
p22
F1.0
s(lp23
tp24
a(S'eu'
p25
(dp26
S'VERB'
p27
F1.0
s(lp28
(S'took'
p29
I2
tp30
atp31
a(S'lieu'
p32
(dp33
S'NOUN'
p34
F1.0
s(lp35
(S'place'
p36
I3
tp37
atp38
a(S'et'
p39
(dp40
S'CONJ'
p41
F1.0
s(lp42
(S'and'
p43
I4
tp44
atp45
a(S'aucun'
p46
(dp47
S'PRON'
p48
F1.0
s(lp49
tp50
a(S'mot'
p51
(dp52
S'NOUN'
p53
F1.0
s(lp54
(S'word'
p55
I7
tp56
atp57
a(S"n'"
p58
(dp59
S'NOUN'
p60
F0.032441
sS'VERB'
p61
F0.694014
sS'ADJ'
p62
F0.273544
s(lp63
(S'not'
p64
I5
tp65
atp66
a(g20
(dp67
S'VERB'
p68
F1.0
s(lp69
tp70
a(S'\xc3\xa9t\xc3\xa9'
p71
(dp72
S'VERB'
p73
F0.986206
sS'NOUN'
p74
F0.013794
s(lp75
(S'was'
p76
I11
tp77
atp78
a(S'prononc\xc3\xa9'
p79
(dp80
S'VERB'
p81
F1.0
s(lp82
(S'uttered'
p83
I12
tp84
atp85
a(S'sur'
p86
(dp87
S'ADP'
p88
F1.0
s(lp89
(S'on'
p90
I8
tp91
atp92
a(S'les'
p93
(dp94
S'PRON'
p95
F5.6e-05
sS'DET'
p96
F0.999943
sS'ADP'
p97
F2e-06
s(lp98
tp99
a(S'valeurs'
p100
(dp101
S'NOUN'
p102
F1.0
s(lp103
(S'values'
p104
I10
tp105
atp106
a(S'd\xc3\xa9mocratiques'
p107
(dp108
S'ADJ'
p109
F1.0
s(lp110
(S'democratic'
p111
I9
tp112
atp113
a(S'.'
p114
(dp115
g114
F1.0
s(lp116
(g114
I13
tp117
atp118
asS'en'
p119
(lp120
(g9
(dp121
S'NOUN'
p122
F5e-06
sS'DET'
p123
F0.999995
s(lp124
(g9
I0
tp125
atp126
a(g17
(dp127
S'VERB'
p128
F0.000165
sS'NOUN'
p129
F0.999835
s(lp130
(g17
I1
tp131
atp132
a(g29
(dp133
S'VERB'
p134
F1.0
s(lp135
(g29
I2
tp136
atp137
a(g36
(dp138
S'VERB'
p139
F0.018177
sS'NOUN'
p140
F0.981822
s(lp141
(g36
I3
tp142
atp143
a(g43
(dp144
S'CONJ'
p145
F1.0
sS'NOUN'
p146
F0.0
s(lp147
(g43
I4
tp148
atp149
a(g64
(dp150
S'ADV'
p151
F1.0
s(lp152
(g64
I5
tp153
atp154
a(g20
(dp155
S'NOUN'
p156
F0.0
sS'DET'
p157
F1.0
s(lp158
(g20
I6
tp159
atp160
a(g55
(dp161
S'VERB'
p162
F1.9e-05
sS'NOUN'
p163
F0.999981
s(lp164
(g55
I7
tp165
atp166
a(g90
(dp167
S'ADV'
p168
F0.001649
sS'PRT'
p169
F0.000484
sS'ADJ'
p170
F1e-06
sS'ADP'
p171
F0.997865
sS'NOUN'
p172
F0.0
s(lp173
(g90
I8
tp174
atp175
a(g111
(dp176
S'ADJ'
p177
F1.0
s(lp178
(g111
I9
tp179
atp180
a(g104
(dp181
S'VERB'
p182
F0.0
sS'NOUN'
p183
F1.0
s(lp184
(g104
I10
tp185
atp186
a(g76
(dp187
S'VERB'
p188
F1.0
s(lp189
(g76
I11
tp190
atp191
a(g83
(dp192
S'VERB'
p193
F1.0
s(lp194
(g83
I12
tp195
atp196
a(g114
(dp197
g114
F1.0
s(lp198
(g114
I13
tp199
atp200
asS'nl'
p201
(lp202
(S'het'
p203
(dp204
S'PRON'
p205
F0.012892
sS'DET'
p206
F0.987108
s(lp207
(g9
I0
tp208
atp209
a(S'bezoek'
p210
(dp211
S'VERB'
p212
F2e-06
sS'NOUN'
p213
F0.999998
s(lp214
(g17
I1
tp215
atp216
a(S'heeft'
p217
(dp218
S'VERB'
p219
F1.0
s(lp220
(g29
I2
tp221
atp222
a(S'plaatsgevonden'
p223
(dp224
S'VERB'
p225
F1.0
s(lp226
(g36
I3
tp227
atp228
a(S'en'
p229
(dp230
S'CONJ'
p231
F1.0
s(lp232
(g43
I4
tp233
atp234
a(S'er'
p235
(dp236
S'ADV'
p237
F1.0
s(lp238
(g20
I6
tp239
atp240
a(S'is'
p241
(dp242
S'VERB'
p243
F1.0
s(lp244
(g76
I11
tp245
atp246
a(S'geen'
p247
(dp248
S'PRON'
p249
F0.999981
sS'DET'
p250
F1.9e-05
s(lp251
(g64
I5
tp252
atp253
a(S'woord'
p254
(dp255
S'NOUN'
p256
F1.0
s(lp257
(g55
I7
tp258
atp259
a(S'gezegd'
p260
(dp261
S'VERB'
p262
F0.993121
sS'ADJ'
p263
F0.006879
s(lp264
(g83
I12
tp265
atp266
a(S'over'
p267
(dp268
S'ADV'
p269
F0.008633
sS'ADP'
p270
F0.991367
s(lp271
(g90
I8
tp272
atp273
a(S'democratische'
p274
(dp275
S'NOUN'
p276
F0.000267
sS'ADJ'
p277
F0.999733
s(lp278
(g111
I9
tp279
atp280
a(S'waarden'
p281
(dp282
S'NOUN'
p283
F1.0
s(lp284
(g104
I10
tp285
atp286
a(g114
(dp287
g114
F1.0
s(lp288
(g114
I13
tp289
atp290
asS'de'
p291
(lp292
(S'der'
p293
(dp294
S'PRON'
p295
F0.183578
sS'DET'
p296
F0.791726
s(lp297
(g9
I0
tp298
atp299
a(S'besuch'
p300
(dp301
S'VERB'
p302
F1.0
s(lp303
(g17
I1
tp304
atp305
a(S'fand'
p306
(dp307
S'VERB'
p308
F1.0
s(lp309
(g29
I2
tp310
atp311
a(S'statt'
p312
(dp313
S'PRT'
p314
F0.999991
sS'CONJ'
p315
F6e-06
s(lp316
(g36
I3
tp317
atp318
a(S','
p319
(dp320
g114
F1.0
s(lp321
tp322
a(S'und'
p323
(dp324
S'CONJ'
p325
F1.0
s(lp326
(g43
I4
tp327
atp328
a(S'demokratische'
p329
(dp330
S'ADJ'
p331
F1.0
s(lp332
(g111
I9
tp333
atp334
a(S'werte'
p335
(dp336
S'VERB'
p337
F1.0
s(lp338
(g104
I10
tp339
atp340
a(S'wurden'
p341
(dp342
S'VERB'
p343
F1.0
s(lp344
(g76
I11
tp345
atp346
a(S'mit'
p347
(dp348
S'PRT'
p349
F0.0
sS'ADP'
p350
F1.0
s(lp351
(g90
I8
tp352
atp353
a(S'keinem'
p354
(dp355
S'PRON'
p356
F1.0
s(lp357
(g64
I5
tp358
atp359
a(S'wort'
p360
(dp361
S'ADJ'
p362
F0.060338
sS'NOUN'
p363
F0.932946
s(lp364
(g55
I7
tp365
atp366
a(S'erw\xc3\xa4hnt'
p367
(dp368
S'VERB'
p369
F0.991125
s(lp370
(g83
I12
tp371
atp372
a(g114
(dp373
g114
F1.0
s(lp374
(g114
I13
tp375
atp376
asS'it'
p377
(lp378
(S'la'
p379
(dp380
S'PRON'
p381
F0.001437
sS'DET'
p382
F0.998563
s(lp383
(g9
I0
tp384
atp385
a(S'visita'
p386
(dp387
S'VERB'
p388
F0.00122
sS'NOUN'
p389
F0.99878
s(lp390
(g17
I1
tp391
atp392
a(S'ha'
p393
(dp394
S'VERB'
p395
F1.0
s(lp396
tp397
a(S'avuto'
p398
(dp399
S'VERB'
p400
F1.0
s(lp401
(g29
I2
tp402
atp403
a(S'luogo'
p404
(dp405
S'NOUN'
p406
F1.0
s(lp407
(g36
I3
tp408
atp409
a(S'e'
p410
(dp411
S'CONJ'
p412
F1.0
s(lp413
(g43
I4
tp414
atp415
a(S'non'
p416
(dp417
S'ADV'
p418
F1.0
s(lp419
(g64
I5
tp420
atp421
a(S'\xc3\xa8'
p422
(dp423
S'VERB'
p424
F1.0
s(lp425
tp426
a(S'stato'
p427
(dp428
S'VERB'
p429
F0.996559
sS'NOUN'
p430
F0.003441
s(lp431
(g76
I11
tp432
atp433
a(S'fatto'
p434
(dp435
S'VERB'
p436
F0.282397
sS'NOUN'
p437
F0.717603
s(lp438
tp439
a(S'nemmeno'
p440
(dp441
S'ADV'
p442
F1.0
s(lp443
(g83
I12
tp444
atp445
a(S'un'
p446
(dp447
S'PRON'
p448
F0.001057
sS'DEF'
p449
F0.998943
s(lp450
(g20
I6
tp451
atp452
a(S'riferimento'
p453
(dp454
S'NOUN'
p455
F1.0
s(lp456
(g55
I7
tp457
atp458
a(S'ai'
p459
(dp460
S'NOUN'
p461
F2e-06
sS'ADP'
p462
F0.999998
s(lp463
tp464
a(S'valori'
p465
(dp466
S'NOUN'
p467
F1.0
s(lp468
(g104
I10
tp469
atp470
a(S'democratici'
p471
(dp472
S'NOUN'
p473
F0.015475
sS'ADJ'
p474
F0.984525
s(lp475
(g111
I9
tp476
atp477
a(g114
(dp478
g114
F1.0
s(lp479
(g114
I13
tp480
atp481
asS'sk'
p482
(lp483
(S'n\xc3\xa1v\xc5\xa1teva'
p484
(dp485
S'NOUN'
p486
F1.0
s(lp487
(g17
I1
tp488
atp489
a(S'sa'
p490
(dp491
S'PRT'
p492
F0.999958
sS'ADP'
p493
F0.0
sS'X'
p494
F4.1e-05
s(lp495
(g29
I2
tp496
atp497
a(S'uskuto\xc4\x8dnila'
p498
(dp499
S'VERB'
p500
F0.9999999999999999
s(lp501
(g36
I3
tp502
atp503
a(g20
(dp504
g494
F0.005031
sS'CONJ'
p505
F0.994525
sS'NOUN'
p506
F0.00027
sS'ADP'
p507
F1e-06
sS'PRT'
p508
F0.000173
s(lp509
(g43
I4
tp510
atp511
a(S'nepovedalo'
p512
(dp513
S'VERB'
p514
F0.9999999999999999
s(lp515
(g83
I12
tp516
atp517
a(S'sa'
p518
(dp519
S'PRT'
p520
F0.999046
sS'ADP'
p521
F3e-05
sg494
F0.000923
s(lp522
(g76
I11
tp523
atp524
a(S'ani'
p525
(dp526
g494
F0.986252
sS'CONJ'
p527
F0.013748
s(lp528
tp529
a(S'jedno'
p530
(dp531
S'ADV'
p532
F0.002211
sg494
F0.00051
sS'NUM'
p533
F0.997279
s(lp534
(g83
I12
tp535
atp536
a(S'slovo'
p537
(dp538
S'NOUN'
p539
F1.0
s(lp540
(g55
I7
tp541
atp542
a(S'o'
p543
(dp544
g494
F0.00034700000000000003
sS'CONJ'
p545
F4.8e-05
sS'NOUN'
p546
F3.2e-05
sS'ADP'
p547
F0.999574
s(lp548
(g90
I8
tp549
atp550
a(S'demokratick\xc3\xbdch'
p551
(dp552
S'ADJ'
p553
F1.0
s(lp554
(g111
I9
tp555
atp556
a(S'hodnot\xc3\xa1ch'
p557
(dp558
S'NOUN'
p559
F1.0
s(lp560
(g104
I10
tp561
atp562
a(g114
(dp563
g114
F1.0
s(lp564
(g114
I13
tp565
atp566
asS'pl'
p567
(lp568
(S'podczas'
p569
(dp570
S'ADP'
p571
F1.0
s(lp572
(g17
I1
tp573
atp574
a(S'ca\xc5\x82ej'
p575
(dp576
S'ADJ'
p577
F1.0
s(lp578
tp579
a(S'wizyty'
p580
(dp581
S'NOUN'
p582
F1.0
s(lp583
(g17
I1
tp584
atp585
a(S'nie'
p586
(dp587
S'ADV'
p588
F1.5e-05
sS'PRT'
p589
F0.966888
sS'CONJ'
p590
F0.033087
sS'NOUN'
p591
F1e-06
sS'PRON'
p592
F9.999999999999999e-06
s(lp593
(g64
I5
tp594
atp595
a(S'pad\xc5\x82o'
p596
(dp597
S'VERB'
p598
F1.0
s(lp599
(g83
I12
tp600
atp601
a(S'ani'
p602
(dp603
S'PRT'
p604
F0.535746
sS'CONJ'
p605
F0.464254
s(lp606
tp607
a(S'jedno'
p608
(dp609
S'NOUN'
p610
F0.002332
sS'ADJ'
p611
F0.997668
s(lp612
(g83
I12
tp613
atp614
a(S's\xc5\x82owo'
p615
(dp616
S'NOUN'
p617
F1.0
s(lp618
(g55
I7
tp619
atp620
a(S'na'
p621
(dp622
g494
F2.1e-05
sS'VERB'
p623
F9.8e-05
sS'NOUN'
p624
F2e-06
sS'ADP'
p625
F0.9998710000000001
sS'PRT'
p626
F8e-06
s(lp627
tp628
a(S'temat'
p629
(dp630
S'NOUN'
p631
F1.0
s(lp632
(g90
I8
tp633
atp634
a(S'warto\xc5\x9bci'
p635
(dp636
S'NOUN'
p637
F1.0
s(lp638
(g104
I10
tp639
atp640
a(S'demokratycznych'
p641
(dp642
S'ADJ'
p643
F1.0
s(lp644
(g111
I9
tp645
atp646
a(g114
(dp647
g114
F1.0
s(lp648
(g114
I13
tp649
atp650
asS'sl'
p651
(lp652
(S'obisk'
p653
(dp654
S'NOUN'
p655
F1.0
s(lp656
(g17
I1
tp657
atp658
a(S'je'
p659
(dp660
S'PRON'
p661
F1.4e-05
sS'VERB'
p662
F0.999982
sg494
F3e-06
s(lp663
(g29
I2
tp664
atp665
a(S'potekal'
p666
(dp667
S'VERB'
p668
F1.0
s(lp669
(g36
I3
tp670
atp671
a(S'brez'
p672
(dp673
S'ADP'
p674
F1.0
s(lp675
(g64
I5
tp676
atp677
a(S'vsakr\xc5\xa1ne'
p678
(dp679
S'PRON'
p680
F0.999999
s(lp681
tp682
a(S'omembe'
p683
(dp684
S'NOUN'
p685
F1.0
s(lp686
(g83
I12
tp687
atp688
a(S'demokrati\xc4\x8dnih'
p689
(dp690
S'ADJ'
p691
F1.0
s(lp692
(g111
I9
tp693
atp694
a(S'vrednot'
p695
(dp696
S'NOUN'
p697
F1.0
s(lp698
(g104
I10
tp699
atp700
a(g114
(dp701
g114
F1.0
s(lp702
(g114
I13
tp703
atp704
asS'es'
p705
(lp706
(S'la'
p707
(dp708
S'PRON'
p709
F9.2e-05
sS'DET'
p710
F0.999862
sS'NOUN'
p711
F0.0
sg494
F4.6e-05
s(lp712
(g9
I0
tp713
atp714
a(S'visita'
p715
(dp716
S'VERB'
p717
F6.2e-05
sS'NOUN'
p718
F0.999938
s(lp719
(g17
I1
tp720
atp721
a(S'tuvo'
p722
(dp723
S'VERB'
p724
F1.0
s(lp725
(g29
I2
tp726
atp727
a(S'lugar'
p728
(dp729
S'NOUN'
p730
F1.0
s(lp731
(g36
I3
tp732
atp733
a(S'y'
p734
(dp735
g494
F2.7e-05
sS'CONJ'
p736
F0.999973
s(lp737
(g43
I4
tp738
atp739
a(S'no'
p740
(dp741
S'ADV'
p742
F1.0
sg494
F0.0
s(lp743
(g64
I5
tp744
atp745
a(S'se'
p746
(dp747
S'PRON'
p748
F1.0
sS'VERB'
p749
F0.0
s(lp750
(g76
I11
tp751
atp752
a(S'pronunci\xc3\xb3'
p753
(dp754
S'VERB'
p755
F1.0
s(lp756
(g83
I12
tp757
atp758
a(S'ni'
p759
(dp760
S'ADV'
p761
F9e-06
sS'CONJ'
p762
F0.999991
s(lp763
(g55
I7
tp764
atp765
a(S'una'
p766
(dp767
S'DET'
p768
F1.0
s(lp769
(g20
I6
tp770
atp771
a(S'sola'
p772
(dp773
S'ADJ'
p774
F1.0
s(lp775
tp776
a(S'palabra'
p777
(dp778
S'NOUN'
p779
F1.0
s(lp780
(g55
I7
tp781
atp782
a(S'sobre'
p783
(dp784
S'NOUN'
p785
F0.0
sS'ADP'
p786
F1.0
s(lp787
(g90
I8
tp788
atp789
a(S'los'
p790
(dp791
S'PRON'
p792
F0.0
sS'DET'
p793
F1.0
s(lp794
tp795
a(S'valores'
p796
(dp797
S'NOUN'
p798
F1.0
s(lp799
(g104
I10
tp800
atp801
a(S'democr\xc3\xa1ticos'
p802
(dp803
S'ADJ'
p804
F1.0
s(lp805
(g111
I9
tp806
atp807
a(g114
(dp808
g114
F1.0
s(lp809
(g114
I13
tp810
atp811
as.