(dp0
S'fr'
p1
(lp2
(S'nous'
p3
(dp4
S'PRON'
p5
F1.0
s(lp6
(S'we'
p7
I0
tp8
atp9
a(S'travaillons'
p10
(dp11
S'VERB'
p12
F1.0
s(lp13
(S'working'
p14
I2
tp15
atp16
a(S'avec'
p17
(dp18
S'ADV'
p19
F0.007497
sS'ADP'
p20
F0.992503
s(lp21
tp22
a(S'diligence'
p23
(dp24
S'NOUN'
p25
F1.0
s(lp26
(S'hard'
p27
I3
tp28
atp29
a(S'sur'
p30
(dp31
S'ADP'
p32
F1.0
s(lp33
(S'on'
p34
I4
tp35
atp36
a(S'ce'
p37
(dp38
S'PRON'
p39
F1.0
s(lp40
(S'this'
p41
I5
tp42
atp43
a(S'sujet'
p44
(dp45
S'ADJ'
p46
F0.339494
sS'NOUN'
p47
F0.660506
s(lp48
tp49
a(S','
p50
(dp51
S'.'
p52
F1.0
s(lp53
(g50
I6
tp54
atp55
a(S'mais'
p56
(dp57
S'CONJ'
p58
F1.0
s(lp59
(S'but'
p60
I7
tp61
atp62
a(S'comme'
p63
(dp64
S'ADV'
p65
F0.15037
sS'CONJ'
p66
F0.84963
s(lp67
(S'as'
p68
I8
tp69
atp70
a(S'vous'
p71
(dp72
S'PRON'
p73
F1.0
s(lp74
(S'you'
p75
I9
tp76
atp77
a(S'le'
p78
(dp79
S'PRON'
p80
F0.999724
sS'DET'
p81
F0.000276
s(lp82
tp83
a(S'savez'
p84
(dp85
S'VERB'
p86
F1.0
s(lp87
(S'know'
p88
I10
tp89
atp90
a(S'les'
p91
(dp92
S'PRON'
p93
F0.000124
sS'DET'
p94
F0.999843
sS'ADP'
p95
F3.3e-05
s(lp96
tp97
a(S'questions'
p98
(dp99
S'NOUN'
p100
F1.0
s(lp101
(S'issues'
p102
I13
tp103
atp104
a(S'fiscales'
p105
(dp106
S'ADJ'
p107
F1.0
s(lp108
(S'tax'
p109
I12
tp110
atp111
a(S'sont'
p112
(dp113
S'VERB'
p114
F1.0
s(lp115
(S'are'
p116
I14
tp117
atp118
a(S'extraordinairement'
p119
(dp120
S'ADV'
p121
F1.0
s(lp122
(S'extraordinarily'
p123
I15
tp124
atp125
a(S'sensibles'
p126
(dp127
S'ADJ'
p128
F1.0
s(lp129
(S'sensitive'
p130
I16
tp131
atp132
a(g52
(dp133
g52
F1.0
s(lp134
(g52
I17
tp135
atp136
asS'en'
p137
(lp138
(g7
(dp139
S'PRON'
p140
F1.0
s(lp141
(g7
I0
tp142
atp143
a(S'are'
p144
(dp145
S'VERB'
p146
F1.0
sS'NOUN'
p147
F0.0
s(lp148
(g144
I1
tp149
atp150
a(g14
(dp151
S'NOUN'
p152
F0.000255
sS'VERB'
p153
F0.993028
sS'ADJ'
p154
F0.006717
s(lp155
(g14
I2
tp156
atp157
a(g27
(dp158
S'ADV'
p159
F0.614603
sS'NOUN'
p160
F0.002528
sS'ADJ'
p161
F0.382868
s(lp162
(g27
I3
tp163
atp164
a(g34
(dp165
S'ADV'
p166
F0.002833
sS'PRT'
p167
F0.000165
sS'ADJ'
p168
F1e-06
sS'ADP'
p169
F0.997001
sS'NOUN'
p170
F1e-06
s(lp171
(g34
I4
tp172
atp173
a(g41
(dp174
S'ADV'
p175
F0.003184
sS'NOUN'
p176
F0.005345
sS'DET'
p177
F0.991471
s(lp178
(g41
I5
tp179
atp180
a(g50
(dp181
g52
F1.0
s(lp182
(g50
I6
tp183
atp184
a(g60
(dp185
S'ADV'
p186
F0.00883
sS'CONJ'
p187
F0.991165
sS'NOUN'
p188
F5e-06
s(lp189
(g60
I7
tp190
atp191
a(g68
(dp192
S'ADV'
p193
F0.238682
sS'ADP'
p194
F0.761318
s(lp195
(g68
I8
tp196
atp197
a(g75
(dp198
S'PRON'
p199
F1.0
s(lp200
(g75
I9
tp201
atp202
a(g88
(dp203
S'VERB'
p204
F1.0
s(lp205
(g88
I10
tp206
atp207
a(g50
(dp208
g52
F1.0
s(lp209
(g50
I11
tp210
atp211
a(g109
(dp212
S'VERB'
p213
F0.012554
sS'NOUN'
p214
F0.987446
s(lp215
(g109
I12
tp216
atp217
a(g102
(dp218
S'VERB'
p219
F0.0
sS'NOUN'
p220
F1.0
s(lp221
(g102
I13
tp222
atp223
a(g116
(dp224
S'VERB'
p225
F1.0
sS'NOUN'
p226
F0.0
s(lp227
(g116
I14
tp228
atp229
a(g123
(dp230
S'ADV'
p231
F1.0
s(lp232
(g123
I15
tp233
atp234
a(g130
(dp235
S'ADJ'
p236
F1.0
s(lp237
(g130
I16
tp238
atp239
a(g52
(dp240
g52
F1.0
s(lp241
(g52
I17
tp242
atp243
asS'nl'
p244
(lp245
(S'we'
p246
(dp247
S'PRON'
p248
F1.0
s(lp249
(g7
I0
tp250
atp251
a(S'werken'
p252
(dp253
S'VERB'
p254
F0.885586
sS'NOUN'
p255
F0.114414
s(lp256
(g14
I2
tp257
atp258
a(S'er'
p259
(dp260
S'ADV'
p261
F1.0
s(lp262
(g41
I5
tp263
atp264
a(S'hard'
p265
(dp266
S'ADV'
p267
F0.188476
sS'VERB'
p268
F0.027501
sS'ADJ'
p269
F0.784023
s(lp270
(g27
I3
tp271
atp272
a(S'aan'
p273
(dp274
S'ADV'
p275
F0.439273
sS'ADP'
p276
F0.560727
s(lp277
(g34
I4
tp278
atp279
a(g50
(dp280
g52
F1.0
s(lp281
(g50
I6
tp282
atp283
a(S'maar'
p284
(dp285
S'ADV'
p286
F0.194314
sS'CONJ'
p287
F0.805679
sS'NOUN'
p288
F7e-06
s(lp289
(g60
I7
tp290
atp291
a(S'zoals'
p292
(dp293
S'CONJ'
p294
F1.0
s(lp295
(g68
I8
tp296
atp297
a(S'u'
p298
(dp299
S'PRON'
p300
F0.999929
sS'NOUN'
p301
F7.1e-05
s(lp302
(g75
I9
tp303
atp304
a(S'weet'
p305
(dp306
S'VERB'
p307
F0.9767870000000001
sS'NOUN'
p308
F0.023213
s(lp309
(g88
I10
tp310
atp311
a(S'liggen'
p312
(dp313
S'VERB'
p314
F0.9993669999999999
sS'NOUN'
p315
F0.000633
s(lp316
(g116
I14
tp317
atp318
a(S'belastingkwesties'
p319
(dp320
S'NOUN'
p321
F1.0
s(lp322
(g109
I12
tp323
atp324
a(S'zeer'
p325
(dp326
S'NOUN'
p327
F0.000133
sS'ADJ'
p328
F0.999867
s(lp329
(g123
I15
tp330
atp331
a(S'gevoelig'
p332
(dp333
S'ADJ'
p334
F1.0
s(lp335
(g130
I16
tp336
atp337
a(g52
(dp338
g52
F1.0
s(lp339
(g52
I17
tp340
atp341
asS'de'
p342
(lp343
(S'wir'
p344
(dp345
S'PRON'
p346
F1.0
s(lp347
(g7
I0
tp348
atp349
a(S'arbeiten'
p350
(dp351
S'VERB'
p352
F1.0
s(lp353
(g14
I2
tp354
atp355
a(S'intensiv'
p356
(dp357
S'ADJ'
p358
F1.0
s(lp359
tp360
a(S'daran'
p361
(dp362
S'ADV'
p363
F0.996422
sS'PRT'
p364
F0.003578
s(lp365
(g27
I3
tp366
atp367
a(g50
(dp368
g52
F1.0
s(lp369
(g50
I6
tp370
atp371
a(S'aber'
p372
(dp373
S'ADV'
p374
F0.17653
sS'CONJ'
p375
F0.82347
s(lp376
(g60
I7
tp377
atp378
a(S'wie'
p379
(dp380
S'CONJ'
p381
F0.999984
s(lp382
(g68
I8
tp383
atp384
a(S'sie'
p385
(dp386
S'PRON'
p387
F1.0
s(lp388
(g75
I9
tp389
atp390
a(S'wissen'
p391
(dp392
S'VERB'
p393
F1.0
s(lp394
(g88
I10
tp395
atp396
a(g50
(dp397
g52
F1.0
s(lp398
(g50
I11
tp399
atp400
a(S'sind'
p401
(dp402
S'VERB'
p403
F1.0
s(lp404
(g116
I14
tp405
atp406
a(S'steuerfragen'
p407
(dp408
S'NOUN'
p409
F0.066507
sS'ADJ'
p410
F0.919909
s(lp411
(g109
I12
tp412
atp413
a(S'au\xc3\x9ferordentlich'
p414
(dp415
S'ADJ'
p416
F1.0
s(lp417
(g123
I15
tp418
atp419
a(S'sensible'
p420
(dp421
S'ADJ'
p422
F1.0
s(lp423
(g130
I16
tp424
atp425
a(S'fragen'
p426
(dp427
S'VERB'
p428
F1.0
s(lp429
(g102
I13
tp430
atp431
a(g52
(dp432
g52
F1.0
s(lp433
(g52
I17
tp434
atp435
asS'it'
p436
(lp437
(S'stiamo'
p438
(dp439
S'VERB'
p440
F1.0
s(lp441
(g144
I1
tp442
atp443
a(S'lavorando'
p444
(dp445
S'VERB'
p446
F1.0
s(lp447
(g14
I2
tp448
atp449
a(S'duramente'
p450
(dp451
S'ADV'
p452
F1.0
s(lp453
(g27
I3
tp454
atp455
a(S'a'
p456
(dp457
S'CONJ'
p458
F0.000997
sS'ADP'
p459
F0.999003
s(lp460
(g34
I4
tp461
atp462
a(S'tale'
p463
(dp464
S'PRON'
p465
F0.999882
sS'CONJ'
p466
F3.4e-05
sS'NOUN'
p467
F8.4e-05
s(lp468
tp469
a(S'scopo'
p470
(dp471
S'VERB'
p472
F0.013562
sS'NOUN'
p473
F0.986438
s(lp474
(g41
I5
tp475
atp476
a(g50
(dp477
g52
F1.0
s(lp478
(g50
I6
tp479
atp480
a(S'ma'
p481
(dp482
S'CONJ'
p483
F0.99952
sS'NOUN'
p484
F0.00048
s(lp485
(g60
I7
tp486
atp487
a(g50
(dp488
g52
F1.0
s(lp489
tp490
a(S'come'
p491
(dp492
S'PRON'
p493
F0.044066
sS'CONJ'
p494
F0.951385
sS'NOUN'
p495
F0.000227
sS'ADP'
p496
F0.004322
s(lp497
(g68
I8
tp498
atp499
a(S'sapete'
p500
(dp501
S'VERB'
p502
F1.0
s(lp503
(g88
I10
tp504
atp505
a(g50
(dp506
g52
F1.0
s(lp507
(g50
I11
tp508
atp509
a(S'i'
p510
(dp511
S'DET'
p512
F1.0
s(lp513
tp514
a(S'problemi'
p515
(dp516
S'NOUN'
p517
F1.0
s(lp518
(g102
I13
tp519
atp520
a(S'fiscali'
p521
(dp522
S'NOUN'
p523
F0.006982
sS'ADJ'
p524
F0.993018
s(lp525
(g109
I12
tp526
atp527
a(S'sono'
p528
(dp529
S'VERB'
p530
F0.996585
sS'NOUN'
p531
F0.003415
s(lp532
(g116
I14
tp533
atp534
a(S'alquanto'
p535
(dp536
S'ADV'
p537
F1.0
s(lp538
(g123
I15
tp539
atp540
a(S'delicati'
p541
(dp542
S'ADJ'
p543
F1.0
s(lp544
(g130
I16
tp545
atp546
a(g52
(dp547
g52
F1.0
s(lp548
(g52
I17
tp549
atp550
asS'sk'
p551
(lp552
(S'pracujeme'
p553
(dp554
S'VERB'
p555
F1.0
s(lp556
(g14
I2
tp557
atp558
a(S'na'
p559
(dp560
S'PRT'
p561
F8.7e-05
sS'CONJ'
p562
F1.1e-05
sS'ADP'
p563
F0.999878
sS'X'
p564
F2.4e-05
s(lp565
(g34
I4
tp566
atp567
a(S'tom'
p568
(dp569
S'PRON'
p570
F0.997486
sg564
F0.002514
s(lp571
(g41
I5
tp572
atp573
a(S'usilovne'
p574
(dp575
S'ADV'
p576
F1.0
s(lp577
(g27
I3
tp578
atp579
a(g50
(dp580
g52
F1.0
s(lp581
(g50
I6
tp582
atp583
a(S'ale'
p584
(dp585
g564
F0.002809
sS'CONJ'
p586
F0.99719
s(lp587
(g60
I7
tp588
atp589
a(S'ako'
p590
(dp591
S'PRON'
p592
F0.239389
sS'CONJ'
p593
F0.760022
sg564
F0.000589
s(lp594
(g68
I8
tp595
atp596
a(S'viete'
p597
(dp598
S'VERB'
p599
F1.0
s(lp600
(g88
I10
tp601
atp602
a(g50
(dp603
g52
F1.0
s(lp604
(g50
I11
tp605
atp606
a(S'da\xc5\x88ov\xc3\xa9'
p607
(dp608
S'ADJ'
p609
F1.0
s(lp610
(g109
I12
tp611
atp612
a(S'ot\xc3\xa1zky'
p613
(dp614
S'NOUN'
p615
F1.0
s(lp616
(g102
I13
tp617
atp618
a(S's\xc3\xba'
p619
(dp620
S'VERB'
p621
F1.0
s(lp622
(g116
I14
tp623
atp624
a(S'mimoriadne'
p625
(dp626
S'ADV'
p627
F0.670362
sS'ADJ'
p628
F0.32963800000000004
s(lp629
(g123
I15
tp630
atp631
a(S'citliv\xc3\xa9'
p632
(dp633
S'ADJ'
p634
F1.0
s(lp635
(g130
I16
tp636
atp637
a(g52
(dp638
g52
F1.0
s(lp639
(g52
I17
tp640
atp641
asS'pl'
p642
(lp643
(S'ci\xc4\x99\xc5\xbcko'
p644
(dp645
S'ADV'
p646
F1.0
s(lp647
(g27
I3
tp648
atp649
a(S'nad'
p650
(dp651
S'ADP'
p652
F0.9999990000000001
s(lp653
(g34
I4
tp654
atp655
a(S'tym'
p656
(dp657
S'ADV'
p658
F0.001287
sS'ADJ'
p659
F0.23034499999999997
sS'CONJ'
p660
F0.000198
sS'NOUN'
p661
F0.768038
sS'PRT'
p662
F0.000133
s(lp663
(g41
I5
tp664
atp665
a(S'pracujemy'
p666
(dp667
S'VERB'
p668
F1.0
s(lp669
(g14
I2
tp670
atp671
a(g50
(dp672
g564
F0.0
sg52
F1.0
s(lp673
(g50
I6
tp674
atp675
a(S'ale'
p676
(dp677
S'PRT'
p678
F0.002737
sS'CONJ'
p679
F0.996955
sS'NOUN'
p680
F0.00030800000000000006
s(lp681
(g60
I7
tp682
atp683
a(S'jak'
p684
(dp685
S'ADV'
p686
F0.8472459999999999
sS'PRT'
p687
F0.001584
sS'CONJ'
p688
F0.048771999999999996
sS'ADP'
p689
F0.10222
sS'PRON'
p690
F0.000178
s(lp691
(g68
I8
tp692
atp693
a(S'pa\xc5\x84stwo'
p694
(dp695
S'NOUN'
p696
F1.0000010000000001
s(lp697
(g75
I9
tp698
atp699
a(S'wiedz\xc4\x85'
p700
(dp701
S'VERB'
p702
F0.982023
sS'NOUN'
p703
F0.017977
s(lp704
(g88
I10
tp705
atp706
a(g50
(dp707
g564
F0.0
sg52
F1.0
s(lp708
(g50
I11
tp709
atp710
a(S'kwestie'
p711
(dp712
S'NOUN'
p713
F1.0
s(lp714
(g102
I13
tp715
atp716
a(S'podatkowe'
p717
(dp718
S'ADJ'
p719
F1.0
s(lp720
(g109
I12
tp721
atp722
a(S's\xc4\x85'
p723
(dp724
S'VERB'
p725
F1.0
s(lp726
(g116
I14
tp727
atp728
a(S'szczeg\xc3\xb3lnie'
p729
(dp730
S'ADV'
p731
F0.543577
sS'PRT'
p732
F0.456423
s(lp733
(g123
I15
tp734
atp735
a(S'delikatne'
p736
(dp737
S'ADJ'
p738
F1.0
s(lp739
(g130
I16
tp740
atp741
a(g52
(dp742
g52
F1.0
s(lp743
(g52
I17
tp744
atp745
asS'sl'
p746
(lp747
(S'zelo'
p748
(dp749
S'ADV'
p750
F1.0
s(lp751
(g27
I3
tp752
atp753
a(S'se'
p754
(dp755
S'PRON'
p756
F0.999999
sg564
F1e-06
s(lp757
(g144
I1
tp758
atp759
a(S'trudimo'
p760
(dp761
S'VERB'
p762
F1.0
s(lp763
(g14
I2
tp764
atp765
a(S'v'
p766
(dp767
S'ADP'
p768
F1.0
s(lp769
(g34
I4
tp770
atp771
a(S'zvezi'
p772
(dp773
S'NOUN'
p774
F1.0
s(lp775
tp776
a(S's'
p777
(dp778
S'VERB'
p779
F5e-06
sS'NOUN'
p780
F9e-06
sS'ADP'
p781
F0.999987
s(lp782
(g34
I4
tp783
atp784
a(S'tem'
p785
(dp786
S'ADV'
p787
F0.000123
sS'PRON'
p788
F0.9990310000000001
sS'NOUN'
p789
F0.000845
s(lp790
(g41
I5
tp791
atp792
a(g50
(dp793
g52
F1.0
s(lp794
(g50
I6
tp795
atp796
a(S'vendar'
p797
(dp798
S'ADV'
p799
F0.004641
sS'CONJ'
p800
F0.995359
s(lp801
(g60
I7
tp802
atp803
a(S'so'
p804
(dp805
g564
F0.001684
sS'VERB'
p806
F0.998316
s(lp807
(g116
I14
tp808
atp809
a(g50
(dp810
g52
F1.0
s(lp811
tp812
a(S'kot'
p813
(dp814
S'CONJ'
p815
F0.999995
sS'NOUN'
p816
F4.9999999999999996e-06
s(lp817
(g68
I8
tp818
atp819
a(S'veste'
p820
(dp821
S'VERB'
p822
F1.0
s(lp823
(g88
I10
tp824
atp825
a(g50
(dp826
g52
F1.0
s(lp827
(g50
I11
tp828
atp829
a(S'dav\xc4\x8dne'
p830
(dp831
S'ADJ'
p832
F1.0
s(lp833
(g109
I12
tp834
atp835
a(S'zadeve'
p836
(dp837
S'NOUN'
p838
F0.9999989999999999
s(lp839
(g102
I13
tp840
atp841
a(S'izredno'
p842
(dp843
S'ADV'
p844
F0.998838
sS'ADJ'
p845
F0.001162
s(lp846
(g123
I15
tp847
atp848
a(S'ob\xc4\x8dutljive'
p849
(dp850
S'ADJ'
p851
F1.0000010000000001
s(lp852
(g130
I16
tp853
atp854
a(g52
(dp855
g52
F1.0
s(lp856
(g52
I17
tp857
atp858
asS'es'
p859
(lp860
(S'estamos'
p861
(dp862
S'VERB'
p863
F1.0
s(lp864
(g144
I1
tp865
atp866
a(S'trabajando'
p867
(dp868
S'VERB'
p869
F1.0
s(lp870
(g14
I2
tp871
atp872
a(S'intensamente'
p873
(dp874
S'ADV'
p875
F1.0
s(lp876
(g27
I3
tp877
atp878
a(S'en'
p879
(dp880
g564
F0.0
sS'CONJ'
p881
F4e-06
sS'ADP'
p882
F0.999996
s(lp883
(g34
I4
tp884
atp885
a(S'esta'
p886
(dp887
S'PRON'
p888
F1.0
sS'VERB'
p889
F0.0
s(lp890
(g41
I5
tp891
atp892
a(S'cuesti\xc3\xb3n'
p893
(dp894
S'NOUN'
p895
F1.0
s(lp896
tp897
a(S'pero'
p898
(dp899
S'CONJ'
p900
F0.18362
sS'NOUN'
p901
F0.81638
s(lp902
(g60
I7
tp903
atp904
a(g50
(dp905
g52
F1.0
s(lp906
(g50
I6
tp907
atp908
a(S'como'
p909
(dp910
S'ADV'
p911
F0.196767
sS'CONJ'
p912
F0.803233
s(lp913
(g68
I8
tp914
atp915
a(S'saben'
p916
(dp917
S'VERB'
p918
F1.0
s(lp919
(g88
I10
tp920
atp921
a(S'sus'
p922
(dp923
S'PRON'
p924
F1.0
s(lp925
tp926
a(S'se\xc3\xb1or\xc3\xadas'
p927
(dp928
S'NOUN'
p929
F1.0
s(lp930
(g75
I9
tp931
atp932
a(g50
(dp933
g52
F1.0
s(lp934
(g50
I11
tp935
atp936
a(S'los'
p937
(dp938
S'PRON'
p939
F2.5e-05
sS'DET'
p940
F0.999975
s(lp941
tp942
a(S'asuntos'
p943
(dp944
S'NOUN'
p945
F1.0
s(lp946
(g102
I13
tp947
atp948
a(S'fiscales'
p949
(dp950
S'NOUN'
p951
F0.003917
sS'ADJ'
p952
F0.996083
s(lp953
(g109
I12
tp954
atp955
a(S'son'
p956
(dp957
S'VERB'
p958
F0.999623
sS'NOUN'
p959
F0.000377
s(lp960
(g116
I14
tp961
atp962
a(S'extraordinariamente'
p963
(dp964
S'ADV'
p965
F1.0
s(lp966
(g123
I15
tp967
atp968
a(S'delicados'
p969
(dp970
S'ADJ'
p971
F1.0
s(lp972
(g130
I16
tp973
atp974
a(g52
(dp975
g52
F1.0
s(lp976
(g52
I17
tp977
atp978
as.