(dp0
S'fr'
p1
(lp2
(S'le'
p3
(dp4
S'PRON'
p5
F0.015678
sS'DET'
p6
F0.984322
s(lp7
(S'on'
p8
I3
tp9
atp10
a(S'but'
p11
(dp12
S'VERB'
p13
F0.015871
sS'NOUN'
p14
F0.984129
s(lp15
(S'order'
p16
I6
tp17
atp18
a(S'de'
p19
(dp20
S'ADP'
p21
F1.0
s(lp22
(S'in'
p23
I5
tp24
atp25
a(S'notre'
p26
(dp27
S'PRON'
p28
F1.0
s(lp29
(S'we'
p30
I0
tp31
atp32
a(S'travail'
p33
(dp34
S'NOUN'
p35
F1.0
s(lp36
(S'working'
p37
I2
tp38
atp39
a(S'est'
p40
(dp41
S'VERB'
p42
F0.999198
sS'NOUN'
p43
F0.000802
s(lp44
(S'are'
p45
I1
tp46
atp47
a(S'de'
p48
(dp49
S'ADP'
p50
F1.0
s(lp51
(S'to'
p52
I7
tp53
atp54
a(S'faciliter'
p55
(dp56
S'VERB'
p57
F1.0
s(lp58
(S'facilitate'
p59
I8
tp60
atp61
a(S'cet'
p62
(dp63
S'PRON'
p64
F1.0
s(lp65
(S'such'
p66
I9
tp67
atp68
a(S'accord'
p69
(dp70
S'NOUN'
p71
F1.0
s(lp72
(S'agreement'
p73
I11
tp74
atp75
a(S'.'
p76
(dp77
g76
F1.0
s(lp78
(g76
I12
tp79
atp80
asS'en'
p81
(lp82
(g30
(dp83
S'PRON'
p84
F1.0
s(lp85
(g30
I0
tp86
atp87
a(g45
(dp88
S'VERB'
p89
F1.0
sS'NOUN'
p90
F0.0
s(lp91
(g45
I1
tp92
atp93
a(g37
(dp94
S'NOUN'
p95
F0.001592
sS'VERB'
p96
F0.993901
sS'ADJ'
p97
F0.004507
s(lp98
(g37
I2
tp99
atp100
a(g8
(dp101
S'ADV'
p102
F0.00268
sS'PRT'
p103
F0.065523
sS'ADJ'
p104
F1.2e-05
sS'ADP'
p105
F0.931774
sS'NOUN'
p106
F1.1e-05
s(lp107
(g8
I3
tp108
atp109
a(S'that'
p110
(dp111
S'ADV'
p112
F0.022575
sS'DET'
p113
F0.693032
sS'ADP'
p114
F0.284393
s(lp115
(g110
I4
tp116
atp117
a(g23
(dp118
S'ADV'
p119
F0.002102
sS'PRT'
p120
F0.000188
sS'ADP'
p121
F0.997709
s(lp122
(g23
I5
tp123
atp124
a(g16
(dp125
S'VERB'
p126
F0.001134
sS'NOUN'
p127
F0.998866
s(lp128
(g16
I6
tp129
atp130
a(g52
(dp131
S'ADV'
p132
F0.0
sS'PRT'
p133
F1.0
sS'ADP'
p134
F0.0
s(lp135
(g52
I7
tp136
atp137
a(g59
(dp138
S'VERB'
p139
F1.0
s(lp140
(g59
I8
tp141
atp142
a(g66
(dp143
S'ADV'
p144
F4.4e-05
sS'ADJ'
p145
F0.004185
sS'DET'
p146
F0.995672
sS'ADP'
p147
F9.9e-05
s(lp148
(g66
I9
tp149
atp150
a(S'an'
p151
(dp152
S'DET'
p153
F1.0
s(lp154
(g151
I10
tp155
atp156
a(g73
(dp157
S'NOUN'
p158
F1.0
s(lp159
(g73
I11
tp160
atp161
a(g76
(dp162
g76
F1.0
s(lp163
(g76
I12
tp164
atp165
asS'nl'
p166
(lp167
(S'en'
p168
(dp169
S'CONJ'
p170
F1.0
s(lp171
tp172
a(S'daar'
p173
(dp174
S'ADV'
p175
F0.960952
sS'CONJ'
p176
F0.039048
s(lp177
(g45
I1
tp178
atp179
a(S'werken'
p180
(dp181
S'VERB'
p182
F0.989036
sS'NOUN'
p183
F0.010964
s(lp184
tp185
a(S'wij'
p186
(dp187
S'PRON'
p188
F1.0
s(lp189
(g30
I0
tp190
atp191
a(S'momenteel'
p192
(dp193
S'ADJ'
p194
F0.353898
sS'NOUN'
p195
F0.646102
s(lp196
(g37
I2
tp197
atp198
a(S'aan'
p199
(dp200
S'ADV'
p201
F0.395128
sS'ADP'
p202
F0.604872
s(lp203
(g8
I3
tp204
atp205
a(S','
p206
(dp207
g76
F1.0
s(lp208
tp209
a(S'in'
p210
(dp211
S'ADV'
p212
F0.014077
sS'VERB'
p213
F8e-06
sS'ADP'
p214
F0.985916
s(lp215
(g23
I5
tp216
atp217
a(S'een'
p218
(dp219
S'ADJ'
p220
F1e-06
sS'PRON'
p221
F1.4e-05
sS'NUM'
p222
F0.0
sS'DET'
p223
F0.999984
s(lp224
tp225
a(S'poging'
p226
(dp227
S'NOUN'
p228
F1.0
s(lp229
(g59
I8
tp230
atp231
a(S'een'
p232
(dp233
S'ADJ'
p234
F1.1e-05
sS'PRON'
p235
F8.3e-05
sS'NUM'
p236
F2.5e-05
sS'DET'
p237
F0.999881
s(lp238
(g151
I10
tp239
atp240
a(S'dergelijk'
p241
(dp242
S'ADJ'
p243
F1.0
s(lp244
(g66
I9
tp245
atp246
a(S'akkoord'
p247
(dp248
S'ADJ'
p249
F0.00135
sS'NOUN'
p250
F0.99865
s(lp251
tp252
a(S'tot'
p253
(dp254
S'CONJ'
p255
F9e-06
sS'ADP'
p256
F0.999991
s(lp257
(g52
I7
tp258
atp259
a(S'stand'
p260
(dp261
S'NOUN'
p262
F1.0
s(lp263
(g16
I6
tp264
atp265
a(S'te'
p266
(dp267
S'PRT'
p268
F1.0
s(lp269
tp270
a(S'laten'
p271
(dp272
S'VERB'
p273
F1.0
sS'NOUN'
p274
F0.0
s(lp275
(g52
I7
tp276
atp277
a(S'komen'
p278
(dp279
S'VERB'
p280
F0.999985
sS'NOUN'
p281
F1.6e-05
s(lp282
(g73
I11
tp283
atp284
a(g76
(dp285
g76
F1.0
s(lp286
(g76
I12
tp287
atp288
asS'de'
p289
(lp290
(S'wir'
p291
(dp292
S'PRON'
p293
F1.0
s(lp294
(g30
I0
tp295
atp296
a(S'arbeiten'
p297
(dp298
S'VERB'
p299
F1.0
s(lp300
tp301
a(S'daran'
p302
(dp303
S'ADV'
p304
F0.999112
sS'PRT'
p305
F0.000888
s(lp306
(g37
I2
tp307
atp308
a(g206
(dp309
g76
F1.0
s(lp310
(g110
I4
tp311
atp312
a(S'um'
p313
(dp314
S'CONJ'
p315
F0.638665
sS'ADP'
p316
F0.361202
s(lp317
(g16
I6
tp318
atp319
a(S'eine'
p320
(dp321
S'VERB'
p322
F0.000913
sS'DET'
p323
F0.998884
s(lp324
(g151
I10
tp325
atp326
a(S'solche'
p327
(dp328
S'PRON'
p329
F1.0
s(lp330
(g66
I9
tp331
atp332
a(S'vereinbarung'
p333
(dp334
S'ADJ'
p335
F0.025013
sS'NOUN'
p336
F0.957852
s(lp337
(g73
I11
tp338
atp339
a(S'zu'
p340
(dp341
S'PRT'
p342
F0.9999750000000001
s(lp343
(g52
I7
tp344
atp345
a(S'erleichtern'
p346
(dp347
S'VERB'
p348
F1.0
s(lp349
(g59
I8
tp350
atp351
a(g76
(dp352
g76
F1.0
s(lp353
(g76
I12
tp354
atp355
asS'it'
p356
(lp357
(S'stiamo'
p358
(dp359
S'VERB'
p360
F1.0
s(lp361
(g45
I1
tp362
atp363
a(S'lavorando'
p364
(dp365
S'VERB'
p366
F1.0
s(lp367
(g37
I2
tp368
atp369
a(S'per'
p370
(dp371
S'CONJ'
p372
F0.002085
sS'ADP'
p373
F0.997915
s(lp374
(g16
I6
tp375
atp376
a(S'facilitare'
p377
(dp378
S'VERB'
p379
F1.0
s(lp380
(g59
I8
tp381
atp382
a(S'il'
p383
(dp384
S'DET'
p385
F1.0
s(lp386
(g8
I3
tp387
atp388
a(S'raggiungimento'
p389
(dp390
S'NOUN'
p391
F1.0
s(lp392
tp393
a(S'ti'
p394
(dp395
S'PRON'
p396
F0.018589
sS'VERB'
p397
F0.981412
s(lp398
(g59
I8
tp399
atp400
a(S'tale'
p401
(dp402
S'PRON'
p403
F0.998898
sS'CONJ'
p404
F0.001054
sS'NOUN'
p405
F4.8e-05
s(lp406
(g66
I9
tp407
atp408
a(S'accordo'
p409
(dp410
S'VERB'
p411
F0.000222
sS'NOUN'
p412
F0.999778
s(lp413
(g73
I11
tp414
atp415
a(g76
(dp416
g76
F1.0
s(lp417
(g76
I12
tp418
atp419
asS'sk'
p420
(lp421
(S'pracujeme'
p422
(dp423
S'VERB'
p424
F1.0
s(lp425
(g37
I2
tp426
atp427
a(S'na'
p428
(dp429
S'PRT'
p430
F8.7e-05
sS'CONJ'
p431
F1.1e-05
sS'ADP'
p432
F0.999887
sS'X'
p433
F1.5e-05
s(lp434
(g8
I3
tp435
atp436
a(S'tom'
p437
(dp438
S'PRON'
p439
F0.999878
sg433
F0.000122
s(lp440
(g110
I4
tp441
atp442
a(g206
(dp443
g76
F1.0
s(lp444
tp445
a(S'aby'
p446
(dp447
g433
F6.699999999999999e-05
sS'CONJ'
p448
F0.999934
s(lp449
tp450
a(S'sme'
p451
(dp452
g433
F0.0
sS'VERB'
p453
F1.0
s(lp454
(g16
I6
tp455
atp456
a(S'tak\xc3\xbato'
p457
(dp458
S'PRON'
p459
F1.0
s(lp460
(g66
I9
tp461
atp462
a(S'dohodu'
p463
(dp464
S'NOUN'
p465
F1.0
s(lp466
(g73
I11
tp467
atp468
a(S'u\xc4\xbeah\xc4\x8dili'
p469
(dp470
S'VERB'
p471
F1.0
s(lp472
(g59
I8
tp473
atp474
a(g76
(dp475
g76
F1.0
s(lp476
(g76
I12
tp477
atp478
asS'pl'
p479
(lp480
(S'nasze'
p481
(dp482
g433
F1.1e-05
sS'ADJ'
p483
F0.99999
s(lp484
(g30
I0
tp485
atp486
a(S'dzia\xc5\x82ania'
p487
(dp488
S'VERB'
p489
F8.1e-05
sS'NOUN'
p490
F0.999919
s(lp491
tp492
a(S'zmierzaj\xc4\x85'
p493
(dp494
S'VERB'
p495
F1.0
s(lp496
(g37
I2
tp497
atp498
a(S'do'
p499
(dp500
g433
F0.0
sS'NOUN'
p501
F0.0
sS'ADP'
p502
F1.0
s(lp503
(g52
I7
tp504
atp505
a(S'u\xc5\x82atwienia'
p506
(dp507
S'VERB'
p508
F0.999979
sS'NOUN'
p509
F2.1e-05
s(lp510
(g59
I8
tp511
atp512
a(S'zawarcia'
p513
(dp514
S'VERB'
p515
F1.0
s(lp516
(g151
I10
tp517
atp518
a(S'takiego'
p519
(dp520
S'ADJ'
p521
F0.999998
s(lp522
(g66
I9
tp523
atp524
a(S'porozumienia'
p525
(dp526
S'VERB'
p527
F0.002191
sS'NOUN'
p528
F0.9978079999999999
s(lp529
(g73
I11
tp530
atp531
a(g76
(dp532
g76
F1.0
s(lp533
(g76
I12
tp534
atp535
asS'sl'
p536
(lp537
(S'prizadevamo'
p538
(dp539
S'VERB'
p540
F1.0
s(lp541
tp542
a(S'si'
p543
(dp544
S'PRON'
p545
F0.880564
sS'VERB'
p546
F0.119436
s(lp547
(g37
I2
tp548
atp549
a(S'za'
p550
(dp551
S'ADV'
p552
F0.000637
sg433
F3.3e-05
sS'ADP'
p553
F0.9993299999999999
s(lp554
(g8
I3
tp555
atp556
a(S'to'
p557
(dp558
S'PRON'
p559
F0.999934
sg433
F6.6e-05
s(lp560
(g110
I4
tp561
atp562
a(g206
(dp563
g76
F1.0
s(lp564
tp565
a(S'da'
p566
(dp567
S'PRT'
p568
F0.000137
sS'CONJ'
p569
F0.999855
sS'VERB'
p570
F8e-06
sg433
F0.0
s(lp571
tp572
a(S'bi'
p573
(dp574
g433
F2e-06
sS'VERB'
p575
F0.999998
s(lp576
(g16
I6
tp577
atp578
a(S'omogo\xc4\x8dili'
p579
(dp580
S'VERB'
p581
F1.0
s(lp582
(g59
I8
tp583
atp584
a(S'tak\xc5\xa1en'
p585
(dp586
S'PRON'
p587
F1.0
s(lp588
(g66
I9
tp589
atp590
a(S'sporazum'
p591
(dp592
S'NOUN'
p593
F1.0
s(lp594
(g73
I11
tp595
atp596
a(g76
(dp597
g76
F1.0
s(lp598
(g76
I12
tp599
atp600
asS'es'
p601
(lp602
(S'estamos'
p603
(dp604
S'VERB'
p605
F1.0
s(lp606
(g45
I1
tp607
atp608
a(S'trabajando'
p609
(dp610
S'VERB'
p611
F1.0
s(lp612
(g37
I2
tp613
atp614
a(S'en'
p615
(dp616
g433
F0.0
sS'CONJ'
p617
F0.0
sS'ADP'
p618
F1.0
s(lp619
(g8
I3
tp620
atp621
a(S'ello'
p622
(dp623
S'PRON'
p624
F1.0
s(lp625
(g110
I4
tp626
atp627
a(S'para'
p628
(dp629
S'CONJ'
p630
F0.112231
sS'ADP'
p631
F0.887769
s(lp632
(g16
I6
tp633
atp634
a(S'que'
p635
(dp636
g433
F2e-06
sS'CONJ'
p637
F0.999998
s(lp638
(g52
I7
tp639
atp640
a(S'se'
p641
(dp642
S'PRON'
p643
F0.999997
sS'VERB'
p644
F2e-06
s(lp645
(g151
I10
tp646
atp647
a(S'alcance'
p648
(dp649
S'VERB'
p650
F0.99864
sS'NOUN'
p651
F0.00136
s(lp652
(g59
I8
tp653
atp654
a(S'tal'
p655
(dp656
S'ADJ'
p657
F1.0
s(lp658
(g66
I9
tp659
atp660
a(S'acuerdo'
p661
(dp662
S'VERB'
p663
F0.000455
sS'NOUN'
p664
F0.999545
s(lp665
(g73
I11
tp666
atp667
a(g76
(dp668
g76
F1.0
s(lp669
(g76
I12
tp670
atp671
as.