(dp0
S'fr'
p1
(lp2
(S'selon'
p3
(dp4
S'ADP'
p5
F1.0
s(lp6
(S'according'
p7
I0
tp8
atp9
a(S'un'
p10
(dp11
S'NOUN'
p12
F7.4e-05
sS'NUM'
p13
F0.028682
sS'DET'
p14
F0.971244
s(lp15
tp16
a(S'porte-parole'
p17
(dp18
S'NOUN'
p19
F1.0
s(lp20
(S'spokesman'
p21
I4
tp22
atp23
a(S'de'
p24
(dp25
S'ADP'
p26
F1.0
s(lp27
(S'to'
p28
I1
tp29
atp30
a(S'la'
p31
(dp32
S'PRON'
p33
F1.2e-05
sS'DET'
p34
F0.999988
sS'NOUN'
p35
F0.0
s(lp36
(S'a'
p37
I2
tp38
atp39
a(S'commission'
p40
(dp41
S'NOUN'
p42
F1.0
s(lp43
(S'commission'
p44
I3
tp45
atp46
a(S','
p47
(dp48
S'.'
p49
F1.0
s(lp50
(g47
I5
tp51
atp52
a(S'aucun'
p53
(dp54
S'PRON'
p55
F1.0
s(lp56
(S'no'
p57
I6
tp58
atp59
a(S'signe'
p60
(dp61
S'VERB'
p62
F0.040978
sS'NOUN'
p63
F0.959022
s(lp64
(S'signs'
p65
I7
tp66
atp67
a(S'de'
p68
(dp69
S'ADP'
p70
F1.0
s(lp71
(S'of'
p72
I8
tp73
atp74
a(S'fraude'
p75
(dp76
S'VERB'
p77
F0.008039999999999999
sS'NOUN'
p78
F0.99196
s(lp79
(S'fraud'
p80
I9
tp81
atp82
a(S"n'"
p83
(dp84
S'NOUN'
p85
F0.032887
sS'VERB'
p86
F0.6948619999999999
sS'ADJ'
p87
F0.27225
s(lp88
tp89
a(g37
(dp90
S'VERB'
p91
F1.0
s(lp92
(S'were'
p93
I10
tp94
atp95
a(S'\xc3\xa9t\xc3\xa9'
p96
(dp97
S'VERB'
p98
F0.986206
sS'NOUN'
p99
F0.013794
s(lp100
tp101
a(S'd\xc3\xa9tect\xc3\xa9'
p102
(dp103
S'VERB'
p104
F1.0
s(lp105
(S'discovered'
p106
I11
tp107
atp108
a(S'pendant'
p109
(dp110
S'NOUN'
p111
F1.3e-05
sS'VERB'
p112
F0.000467
sS'ADJ'
p113
F1.6e-05
sS'ADP'
p114
F0.999504
s(lp115
(S'during'
p116
I12
tp117
atp118
a(S'le'
p119
(dp120
S'PRON'
p121
F7.4e-05
sS'DET'
p122
F0.999926
s(lp123
(S'the'
p124
I13
tp125
atp126
a(S'recomptage'
p127
(dp128
S'VERB'
p129
F1.4000000000000001e-05
sS'NOUN'
p130
F0.999986
s(lp131
(S'recount'
p132
I14
tp133
atp134
a(g49
(dp135
g49
F1.0
s(lp136
(g49
I15
tp137
atp138
asS'en'
p139
(lp140
(g7
(dp141
S'VERB'
p142
F0.999821
sS'ADJ'
p143
F0.000179
s(lp144
(g7
I0
tp145
atp146
a(g28
(dp147
S'ADV'
p148
F1e-06
sS'PRT'
p149
F0.999996
sS'ADP'
p150
F3e-06
s(lp151
(g28
I1
tp152
atp153
a(g37
(dp154
S'NOUN'
p155
F0.0
sS'DET'
p156
F1.0
s(lp157
(g37
I2
tp158
atp159
a(g44
(dp160
S'VERB'
p161
F1.8e-05
sS'NOUN'
p162
F0.999982
s(lp163
(g44
I3
tp164
atp165
a(g21
(dp166
S'NOUN'
p167
F1.0
s(lp168
(g21
I4
tp169
atp170
a(g47
(dp171
g49
F1.0
s(lp172
(g47
I5
tp173
atp174
a(g57
(dp175
S'ADV'
p176
F0.023804
sS'X'
p177
F0.016943
sS'DET'
p178
F0.95919
sS'NOUN'
p179
F6.3e-05
s(lp180
(g57
I6
tp181
atp182
a(g65
(dp183
S'VERB'
p184
F0.001362
sS'NOUN'
p185
F0.998638
s(lp186
(g65
I7
tp187
atp188
a(g72
(dp189
S'ADP'
p190
F1.0
s(lp191
(g72
I8
tp192
atp193
a(g80
(dp194
S'NOUN'
p195
F1.0
s(lp196
(g80
I9
tp197
atp198
a(g93
(dp199
S'VERB'
p200
F1.0
s(lp201
(g93
I10
tp202
atp203
a(g106
(dp204
S'VERB'
p205
F1.0
s(lp206
(g106
I11
tp207
atp208
a(g116
(dp209
S'ADP'
p210
F1.0
s(lp211
(g116
I12
tp212
atp213
a(g124
(dp214
S'NOUN'
p215
F2e-06
sS'DET'
p216
F0.999998
s(lp217
(g124
I13
tp218
atp219
a(g132
(dp220
S'VERB'
p221
F0.001062
sS'NOUN'
p222
F0.998938
s(lp223
(g132
I14
tp224
atp225
a(g49
(dp226
g49
F1.0
s(lp227
(g49
I15
tp228
atp229
asS'nl'
p230
(lp231
(S'volgens'
p232
(dp233
S'ADP'
p234
F1.0
s(lp235
(g7
I0
tp236
atp237
a(S'de'
p238
(dp239
S'DET'
p240
F1.0
s(lp241
(g37
I2
tp242
atp243
a(S'woordvoerder'
p244
(dp245
S'NOUN'
p246
F1.0
s(lp247
(g21
I4
tp248
atp249
a(S'van'
p250
(dp251
S'ADP'
p252
F1.0
s(lp253
tp254
a(S'de'
p255
(dp256
S'DET'
p257
F1.0
s(lp258
(g124
I13
tp259
atp260
a(S'kiescommissie'
p261
(dp262
S'NOUN'
p263
F1.0
s(lp264
(g132
I14
tp265
atp266
a(S'werd'
p267
(dp268
S'VERB'
p269
F1.0
s(lp270
(g93
I10
tp271
atp272
a(S'er'
p273
(dp274
S'ADV'
p275
F1.0
s(lp276
(g106
I11
tp277
atp278
a(S'tijdens'
p279
(dp280
S'ADP'
p281
F1.0
s(lp282
(g116
I12
tp283
atp284
a(S'de'
p285
(dp286
S'DET'
p287
F1.0
s(lp288
tp289
a(S'hertelling'
p290
(dp291
S'NOUN'
p292
F1.0
s(lp293
(g132
I14
tp294
atp295
a(S'echter'
p296
(dp297
S'ADV'
p298
F0.999999
sS'ADJ'
p299
F1e-06
s(lp300
(g132
I14
tp301
atp302
a(S'geen'
p303
(dp304
S'PRON'
p305
F1.0
sS'DET'
p306
F0.0
s(lp307
tp308
a(S'enkele'
p309
(dp310
S'PRON'
p311
F1.0
s(lp312
(g57
I6
tp313
atp314
a(S'aanwijzing'
p315
(dp316
S'NOUN'
p317
F1.0
s(lp318
tp319
a(S'gevonden'
p320
(dp321
S'VERB'
p322
F1.0
s(lp323
(g132
I14
tp324
atp325
a(S'voor'
p326
(dp327
S'ADV'
p328
F3.7e-05
sS'CONJ'
p329
F2e-06
sS'NOUN'
p330
F0.0
sS'ADP'
p331
F0.999961
s(lp332
(g72
I8
tp333
atp334
a(S'fraude'
p335
(dp336
S'NOUN'
p337
F1.0
s(lp338
(g80
I9
tp339
atp340
a(g49
(dp341
g49
F1.0
s(lp342
(g49
I15
tp343
atp344
asS'de'
p345
(lp346
(S'gem\xc3\xa4\xc3\x9f'
p347
(dp348
S'ADJ'
p349
F0.056868
sS'ADP'
p350
F0.942305
s(lp351
(g7
I0
tp352
atp353
a(S'einem'
p354
(dp355
S'NUM'
p356
F0.001093
sS'DET'
p357
F0.998793
s(lp358
(g37
I2
tp359
atp360
a(S'sprecher'
p361
(dp362
S'ADJ'
p363
F9.3e-05
sS'NOUN'
p364
F0.999823
s(lp365
(g21
I4
tp366
atp367
a(S'der'
p368
(dp369
S'PRON'
p370
F7e-05
sS'DET'
p371
F0.999905
s(lp372
tp373
a(S'kommission'
p374
(dp375
S'ADJ'
p376
F0.02088
sS'NOUN'
p377
F0.96037
s(lp378
(g44
I3
tp379
atp380
a(S'gab'
p381
(dp382
S'VERB'
p383
F1.0
s(lp384
tp385
a(S'es'
p386
(dp387
S'PRON'
p388
F1.0
s(lp389
(g93
I10
tp390
atp391
a(S'bei'
p392
(dp393
S'PRT'
p394
F0.000817
sS'ADP'
p395
F0.999183
s(lp396
(g116
I12
tp397
atp398
a(S'der'
p399
(dp400
S'PRON'
p401
F7e-05
sS'DET'
p402
F0.999907
s(lp403
(g124
I13
tp404
atp405
a(S'neuausz\xc3\xa4hlung'
p406
(dp407
S'ADJ'
p408
F0.109256
sS'NOUN'
p409
F0.869257
s(lp410
(g132
I14
tp411
atp412
a(S'keine'
p413
(dp414
S'PRON'
p415
F1.0
s(lp416
(g57
I6
tp417
atp418
a(S'anzeichen'
p419
(dp420
S'ADJ'
p421
F0.132032
sS'NOUN'
p422
F0.867033
s(lp423
(g65
I7
tp424
atp425
a(S'f\xc3\xbcr'
p426
(dp427
S'ADP'
p428
F1.0
s(lp429
(g72
I8
tp430
atp431
a(S'betrug'
p432
(dp433
S'VERB'
p434
F1.0
s(lp435
(g80
I9
tp436
atp437
a(g49
(dp438
g49
F1.0
s(lp439
(g49
I15
tp440
atp441
asS'it'
p442
(lp443
(S'secondo'
p444
(dp445
S'ADV'
p446
F0.036243
sS'NOUN'
p447
F3.5e-05
sS'VERB'
p448
F0.003002
sS'ADJ'
p449
F0.006701
sS'ADP'
p450
F0.954019
s(lp451
(g7
I0
tp452
atp453
a(S'un'
p454
(dp455
S'PRON'
p456
F0.002718
sS'DEF'
p457
F0.997282
s(lp458
(g37
I2
tp459
atp460
a(S'portavoce'
p461
(dp462
S'NOUN'
p463
F1.0
s(lp464
(g21
I4
tp465
atp466
a(S'della'
p467
(dp468
S'DEF'
p469
F0.001587
sS'ADP'
p470
F0.998413
s(lp471
tp472
a(S'commissione'
p473
(dp474
S'NOUN'
p475
F1.0
s(lp476
(g44
I3
tp477
atp478
a(g47
(dp479
g49
F1.0
s(lp480
(g47
I5
tp481
atp482
a(S'non'
p483
(dp484
S'ADV'
p485
F1.0
s(lp486
(g57
I6
tp487
atp488
a(S'sono'
p489
(dp490
S'VERB'
p491
F0.999785
sS'NOUN'
p492
F0.000215
s(lp493
tp494
a(S'emerse'
p495
(dp496
S'VERB'
p497
F0.72344
sS'ADJ'
p498
F0.27656
s(lp499
(g93
I10
tp500
atp501
a(S'indicazioni'
p502
(dp503
S'NOUN'
p504
F1.0
s(lp505
(g65
I7
tp506
atp507
a(S'di'
p508
(dp509
S'CONJ'
p510
F4e-06
sS'ADP'
p511
F0.999996
s(lp512
(g72
I8
tp513
atp514
a(S'frode'
p515
(dp516
S'NOUN'
p517
F1.0
s(lp518
(g80
I9
tp519
atp520
a(S'durante'
p521
(dp522
S'VERB'
p523
F0.063292
sS'ADP'
p524
F0.936708
s(lp525
(g116
I12
tp526
atp527
a(S'il'
p528
(dp529
S'DET'
p530
F1.0
s(lp531
(g124
I13
tp532
atp533
a(S'riconteggio'
p534
(dp535
S'VERB'
p536
F0.006398
sS'NOUN'
p537
F0.993601
s(lp538
(g132
I14
tp539
atp540
a(g49
(dp541
g49
F1.0
s(lp542
(g49
I15
tp543
atp544
asS'sk'
p545
(lp546
(S'pod\xc4\xbea'
p547
(dp548
S'ADP'
p549
F1.0
s(lp550
(g7
I0
tp551
atp552
a(S'hovorcu'
p553
(dp554
S'NOUN'
p555
F1.0
s(lp556
(g21
I4
tp557
atp558
a(S'komisie'
p559
(dp560
S'NOUN'
p561
F1.0
s(lp562
(g44
I3
tp563
atp564
a(S'neboli'
p565
(dp566
S'VERB'
p567
F0.9999999999999999
s(lp568
(g93
I10
tp569
atp570
a(S'po\xc4\x8das'
p571
(dp572
S'ADP'
p573
F1.0
s(lp574
(g116
I12
tp575
atp576
a(S'prepo\xc4\x8d\xc3\xadtavania'
p577
(dp578
S'VERB'
p579
F7e-06
sS'NOUN'
p580
F0.999993
s(lp581
tp582
a(S'zisten\xc3\xa9'
p583
(dp584
S'VERB'
p585
F1.0
s(lp586
(g132
I14
tp587
atp588
a(S'\xc5\xbeiadne'
p589
(dp590
S'PRON'
p591
F1.0
s(lp592
(g57
I6
tp593
atp594
a(S'zn\xc3\xa1mky'
p595
(dp596
S'NOUN'
p597
F1.0
s(lp598
(g65
I7
tp599
atp600
a(S'podvodu'
p601
(dp602
S'NOUN'
p603
F1.0
s(lp604
(g80
I9
tp605
atp606
a(g49
(dp607
g49
F1.0
s(lp608
(g49
I15
tp609
atp610
asS'pl'
p611
(lp612
(S'wed\xc5\x82ug'
p613
(dp614
S'ADP'
p615
F1.0
s(lp616
(g7
I0
tp617
atp618
a(S'rzecznika'
p619
(dp620
S'NOUN'
p621
F1.0
s(lp622
(g21
I4
tp623
atp624
a(S'komisji'
p625
(dp626
S'NOUN'
p627
F1.0
s(lp628
(g44
I3
tp629
atp630
a(g47
(dp631
g177
F0.0
sg49
F1.0
s(lp632
(g47
I5
tp633
atp634
a(S'podczas'
p635
(dp636
S'ADP'
p637
F1.0
s(lp638
(g116
I12
tp639
atp640
a(S'ponownego'
p641
(dp642
S'ADJ'
p643
F1.0
s(lp644
(g132
I14
tp645
atp646
a(S'liczenia'
p647
(dp648
S'VERB'
p649
F1.0
s(lp650
(g132
I14
tp651
atp652
a(S'nie'
p653
(dp654
S'ADV'
p655
F1.2e-05
sS'PRT'
p656
F0.996676
sS'CONJ'
p657
F0.003261
sS'NOUN'
p658
F0.0
sS'PRON'
p659
F5.099999999999999e-05
s(lp660
(g57
I6
tp661
atp662
a(S'stwierdzono'
p663
(dp664
S'VERB'
p665
F1.0
s(lp666
(g132
I14
tp667
atp668
a(S'\xc5\xbcadnych'
p669
(dp670
S'ADJ'
p671
F0.9999990000000002
s(lp672
tp673
a(S'\xc5\x9blad\xc3\xb3w'
p674
(dp675
S'NOUN'
p676
F1.0
s(lp677
(g132
I14
tp678
atp679
a(S'nadu\xc5\xbcy\xc4\x87'
p680
(dp681
S'NOUN'
p682
F1.0
s(lp683
(g80
I9
tp684
atp685
a(g49
(dp686
g49
F1.0
s(lp687
(g49
I15
tp688
atp689
asS'sl'
p690
(lp691
(S'kot'
p692
(dp693
S'CONJ'
p694
F0.998973
sS'NOUN'
p695
F0.001027
s(lp696
(g7
I0
tp697
atp698
a(S'je'
p699
(dp700
S'PRON'
p701
F0.000375
sS'VERB'
p702
F0.9996259999999999
sg177
F0.0
s(lp703
(g37
I2
tp704
atp705
a(S'dejal'
p706
(dp707
S'VERB'
p708
F1.0
s(lp709
tp710
a(S'predstavnik'
p711
(dp712
S'NOUN'
p713
F1.0
s(lp714
(g21
I4
tp715
atp716
a(S'komisije'
p717
(dp718
S'NOUN'
p719
F1.0
s(lp720
(g44
I3
tp721
atp722
a(g47
(dp723
g49
F1.0
s(lp724
(g47
I5
tp725
atp726
a(S'med'
p727
(dp728
S'NOUN'
p729
F8e-06
sS'ADP'
p730
F0.999993
s(lp731
(g116
I12
tp732
atp733
a(S'ponovnim'
p734
(dp735
S'ADV'
p736
F0.0
sS'NOUN'
p737
F3.4e-05
sS'VERB'
p738
F0.0
sS'ADJ'
p739
F0.9999640000000001
s(lp740
(g132
I14
tp741
atp742
a(S'\xc5\xa1tetjem'
p743
(dp744
S'NOUN'
p745
F1.0
s(lp746
(g132
I14
tp747
atp748
a(S'glasov'
p749
(dp750
S'NOUN'
p751
F1.0
s(lp752
tp753
a(S'ni'
p754
(dp755
S'VERB'
p756
F1.0
s(lp757
tp758
a(S'bilo'
p759
(dp760
S'VERB'
p761
F1.0
s(lp762
(g93
I10
tp763
atp764
a(S'zaznati'
p765
(dp766
S'VERB'
p767
F1.0
s(lp768
(g132
I14
tp769
atp770
a(S'nobenih'
p771
(dp772
S'PRON'
p773
F0.9999999999999999
s(lp774
(g57
I6
tp775
atp776
a(S'znakov'
p777
(dp778
S'NOUN'
p779
F1.0
s(lp780
(g65
I7
tp781
atp782
a(S'goljufije'
p783
(dp784
S'NOUN'
p785
F1.0
s(lp786
(g80
I9
tp787
atp788
a(g49
(dp789
g49
F1.0
s(lp790
(g49
I15
tp791
atp792
asS'es'
p793
(lp794
(S'seg\xc3\xban'
p795
(dp796
S'CONJ'
p797
F0.735558
sS'ADP'
p798
F0.264442
s(lp799
(g7
I0
tp800
atp801
a(S'un'
p802
(dp803
g177
F1e-06
sS'DET'
p804
F0.999999
s(lp805
(g37
I2
tp806
atp807
a(S'portavoz'
p808
(dp809
S'NOUN'
p810
F1.0
s(lp811
(g21
I4
tp812
atp813
a(S'de'
p814
(dp815
g177
F0.0
sS'CONJ'
p816
F1.7e-05
sS'ADP'
p817
F0.999983
s(lp818
tp819
a(S'la'
p820
(dp821
g177
F0.0
sS'PRON'
p822
F0.0
sS'DET'
p823
F0.999999
sS'NOUN'
p824
F0.0
s(lp825
tp826
a(S'comisi\xc3\xb3n'
p827
(dp828
S'NOUN'
p829
F1.0
s(lp830
(g44
I3
tp831
atp832
a(g47
(dp833
g49
F1.0
s(lp834
(g47
I5
tp835
atp836
a(S'no'
p837
(dp838
S'ADV'
p839
F0.999975
sg177
F2.5e-05
s(lp840
(g57
I6
tp841
atp842
a(S'se'
p843
(dp844
S'PRON'
p845
F1.0
sS'VERB'
p846
F0.0
s(lp847
tp848
a(S'han'
p849
(dp850
S'VERB'
p851
F1.0
s(lp852
(g93
I10
tp853
atp854
a(S'descubierto'
p855
(dp856
S'VERB'
p857
F1.0
s(lp858
(g106
I11
tp859
atp860
a(S'se\xc3\xb1ales'
p861
(dp862
S'NOUN'
p863
F1.0
s(lp864
(g65
I7
tp865
atp866
a(S'de'
p867
(dp868
g177
F2.9e-05
sS'CONJ'
p869
F0.000449
sS'ADP'
p870
F0.999522
s(lp871
(g72
I8
tp872
atp873
a(S'fraude'
p874
(dp875
S'NOUN'
p876
F1.0
s(lp877
(g80
I9
tp878
atp879
a(S'durante'
p880
(dp881
S'ADP'
p882
F1.0
s(lp883
(g116
I12
tp884
atp885
a(S'el'
p886
(dp887
S'PRON'
p888
F0.000249
sS'DET'
p889
F0.999751
s(lp890
(g124
I13
tp891
atp892
a(S'recuento'
p893
(dp894
S'VERB'
p895
F0.000579
sS'NOUN'
p896
F0.999421
s(lp897
(g132
I14
tp898
atp899
a(g49
(dp900
g49
F1.0
s(lp901
(g49
I15
tp902
atp903
as.