(dp0
S'fr'
p1
(lp2
(S"l'"
p3
(dp4
S'ADJ'
p5
F0.079749
sS'VERB'
p6
F0.5393100000000001
sS'NOUN'
p7
F0.380941
s(lp8
(S'the'
p9
I0
tp10
atp11
a(S'union'
p12
(dp13
S'NOUN'
p14
F1.0
s(lp15
(S'union'
p16
I2
tp17
atp18
a(S'europ\xc3\xa9enne'
p19
(dp20
S'NOUN'
p21
F0.015315
sS'ADJ'
p22
F0.984685
s(lp23
(S'european'
p24
I1
tp25
atp26
a(S'repr\xc3\xa9sente'
p27
(dp28
S'VERB'
p29
F1.0
s(lp30
(S'is'
p31
I3
tp32
atp33
a(S'le'
p34
(dp35
S'PRON'
p36
F0.000391
sS'DET'
p37
F0.999609
s(lp38
(S'the'
p39
I4
tp40
atp41
a(S'principal'
p42
(dp43
S'NOUN'
p44
F0.017385
sS'ADJ'
p45
F0.982615
s(lp46
(S'largest'
p47
I7
tp48
atp49
a(S'fournisseur'
p50
(dp51
S'NOUN'
p52
F1.0
s(lp53
(S'donor'
p54
I8
tp55
atp56
a(S"d'"
p57
(dp58
S'NOUN'
p59
F0.032441
sS'VERB'
p60
F0.694014
sS'ADJ'
p61
F0.273544
s(lp62
(S'of'
p63
I9
tp64
atp65
a(S'aide'
p66
(dp67
S'VERB'
p68
F0.23475
sS'NOUN'
p69
F0.76525
s(lp70
(S'aid'
p71
I11
tp72
atp73
a(S'humanitaire'
p74
(dp75
S'ADJ'
p76
F1.0
s(lp77
(S'humanitarian'
p78
I10
tp79
atp80
a(S'dans'
p81
(dp82
S'NOUN'
p83
F8.7e-05
sS'ADP'
p84
F0.999913
s(lp85
tp86
a(S'le'
p87
(dp88
S'PRON'
p89
F9.8e-05
sS'DET'
p90
F0.999902
s(lp91
(S"'s"
p92
I6
tp93
atp94
a(S'monde'
p95
(dp96
S'ADJ'
p97
F0.00778
sS'VERB'
p98
F3.7e-05
sS'NOUN'
p99
F0.992183
s(lp100
(S'world'
p101
I5
tp102
atp103
a(S','
p104
(dp105
S'.'
p106
F1.0
s(lp107
(g104
I12
tp108
atp109
a(S'offrant'
p110
(dp111
S'ADJ'
p112
F0.003282
sS'VERB'
p113
F0.982042
sS'NOUN'
p114
F0.014676
s(lp115
(S'providing'
p116
I13
tp117
atp118
a(S'plus'
p119
(dp120
S'ADV'
p121
F0.998812
sS'VERB'
p122
F0.001188
s(lp123
(S'more'
p124
I14
tp125
atp126
a(S'de'
p127
(dp128
S'ADP'
p129
F1.0
s(lp130
(S'than'
p131
I15
tp132
atp133
a(S'40'
p134
(dp135
S'X'
p136
F0.010548
sS'NUM'
p137
F0.989452
s(lp138
(S'40'
p139
I16
tp140
atp141
a(S'%'
p142
(dp143
g136
F1.0
s(lp144
(g142
I17
tp145
atp146
a(S'de'
p147
(dp148
S'ADP'
p149
F1.0
s(lp150
(S'of'
p151
I18
tp152
atp153
a(S'la'
p154
(dp155
S'PRON'
p156
F1.2e-05
sS'DET'
p157
F0.999988
sS'NOUN'
p158
F0.0
s(lp159
tp160
a(S'totalit\xc3\xa9'
p161
(dp162
S'NOUN'
p163
F1.0
s(lp164
(S'all'
p165
I19
tp166
atp167
a(S'de'
p168
(dp169
S'ADP'
p170
F1.0
s(lp171
tp172
a(S"l'"
p173
(dp174
S'ADJ'
p175
F0.160704
sS'VERB'
p176
F0.06480800000000002
sS'NOUN'
p177
F0.774488
s(lp178
tp179
a(S'aide'
p180
(dp181
S'VERB'
p182
F0.23475
sS'NOUN'
p183
F0.76525
s(lp184
(S'assistance'
p185
I23
tp186
atp187
a(S'humanitaire'
p188
(dp189
S'ADJ'
p190
F1.0
s(lp191
(S'humanitarian'
p192
I22
tp193
atp194
a(S'publique'
p195
(dp196
S'ADJ'
p197
F0.334561
sS'NOUN'
p198
F0.665439
s(lp199
(S'official'
p200
I20
tp201
atp202
a(S'internationale'
p203
(dp204
S'ADJ'
p205
F1.0
s(lp206
(S'international'
p207
I21
tp208
atp209
a(g106
(dp210
g106
F1.0
s(lp211
(g106
I24
tp212
atp213
asS'en'
p214
(lp215
(g9
(dp216
S'NOUN'
p217
F3e-06
sS'DET'
p218
F0.999997
s(lp219
(g9
I0
tp220
atp221
a(g24
(dp222
S'NOUN'
p223
F0.10881199999999999
sS'VERB'
p224
F1.1e-05
sS'ADJ'
p225
F0.891177
s(lp226
(g24
I1
tp227
atp228
a(g16
(dp229
S'NOUN'
p230
F1.0
s(lp231
(g16
I2
tp232
atp233
a(g31
(dp234
S'VERB'
p235
F1.0
s(lp236
(g31
I3
tp237
atp238
a(g39
(dp239
S'NOUN'
p240
F1e-06
sS'DET'
p241
F0.999999
s(lp242
(g39
I4
tp243
atp244
a(g101
(dp245
S'NOUN'
p246
F1.0
s(lp247
(g101
I5
tp248
atp249
a(g92
(dp250
S'PRT'
p251
F0.782559
sg106
F0.217441
s(lp252
(g92
I6
tp253
atp254
a(g47
(dp255
S'ADJ'
p256
F1.0
s(lp257
(g47
I7
tp258
atp259
a(g54
(dp260
S'NOUN'
p261
F1.0
s(lp262
(g54
I8
tp263
atp264
a(g63
(dp265
S'ADP'
p266
F1.0
s(lp267
(g63
I9
tp268
atp269
a(g78
(dp270
S'NOUN'
p271
F0.00616
sS'ADJ'
p272
F0.99384
s(lp273
(g78
I10
tp274
atp275
a(g71
(dp276
S'VERB'
p277
F2.1e-05
sS'NOUN'
p278
F0.999979
s(lp279
(g71
I11
tp280
atp281
a(g104
(dp282
g106
F1.0
s(lp283
(g104
I12
tp284
atp285
a(g116
(dp286
S'VERB'
p287
F1.0
s(lp288
(g116
I13
tp289
atp290
a(g124
(dp291
S'ADV'
p292
F0.313555
sS'ADJ'
p293
F0.686445
s(lp294
(g124
I14
tp295
atp296
a(g131
(dp297
S'ADP'
p298
F1.0
s(lp299
(g131
I15
tp300
atp301
a(g139
(dp302
S'ADV'
p303
F2e-06
sS'NOUN'
p304
F7.9e-05
sS'NUM'
p305
F0.99915
sS'ADJ'
p306
F0.000769
sg136
F0.0
s(lp307
(g139
I16
tp308
atp309
a(g142
(dp310
S'NOUN'
p311
F1.0
s(lp312
(g142
I17
tp313
atp314
a(g151
(dp315
S'ADP'
p316
F1.0
s(lp317
(g151
I18
tp318
atp319
a(g165
(dp320
S'ADV'
p321
F0.003167
sS'DET'
p322
F0.9968330000000001
s(lp323
(g165
I19
tp324
atp325
a(g200
(dp326
S'NOUN'
p327
F0.225241
sS'ADJ'
p328
F0.774759
s(lp329
(g200
I20
tp330
atp331
a(g207
(dp332
S'NOUN'
p333
F0.000563
sS'ADJ'
p334
F0.999437
s(lp335
(g207
I21
tp336
atp337
a(g192
(dp338
S'NOUN'
p339
F0.020813
sS'ADJ'
p340
F0.979187
s(lp341
(g192
I22
tp342
atp343
a(g185
(dp344
S'NOUN'
p345
F1.0
s(lp346
(g185
I23
tp347
atp348
a(g106
(dp349
g106
F1.0
s(lp350
(g106
I24
tp351
atp352
asS'nl'
p353
(lp354
(S'de'
p355
(dp356
S'DET'
p357
F1.0
s(lp358
(g9
I0
tp359
atp360
a(S'europese'
p361
(dp362
S'NOUN'
p363
F1.0
s(lp364
(g24
I1
tp365
atp366
a(S'unie'
p367
(dp368
S'NOUN'
p369
F1.0
s(lp370
(g16
I2
tp371
atp372
a(S'is'
p373
(dp374
S'VERB'
p375
F1.0
s(lp376
tp377
a(S'de'
p378
(dp379
S'DET'
p380
F1.0
s(lp381
tp382
a(S'grootste'
p383
(dp384
S'NOUN'
p385
F0.00073
sS'ADJ'
p386
F0.99927
s(lp387
(g47
I7
tp388
atp389
a(S'donor'
p390
(dp391
S'NOUN'
p392
F1.0
s(lp393
(g54
I8
tp394
atp395
a(S'van'
p396
(dp397
S'ADP'
p398
F1.0
s(lp399
(g63
I9
tp400
atp401
a(S'humanitaire'
p402
(dp403
S'NOUN'
p404
F0.007927
sS'ADJ'
p405
F0.992073
s(lp406
(g78
I10
tp407
atp408
a(S'hulp'
p409
(dp410
S'NOUN'
p411
F1.0
s(lp412
(g71
I11
tp413
atp414
a(S'in'
p415
(dp416
S'ADV'
p417
F0.002979
sS'VERB'
p418
F2e-06
sS'ADP'
p419
F0.997018
s(lp420
(g92
I6
tp421
atp422
a(S'de'
p423
(dp424
S'DET'
p425
F1.0
s(lp426
(g39
I4
tp427
atp428
a(S'wereld'
p429
(dp430
S'NOUN'
p431
F1.0
s(lp432
tp433
a(S'en'
p434
(dp435
S'CONJ'
p436
F1.0
s(lp437
tp438
a(S'is'
p439
(dp440
S'VERB'
p441
F1.0
s(lp442
(g31
I3
tp443
atp444
a(S'mondiaal'
p445
(dp446
S'ADJ'
p447
F1.0
s(lp448
(g101
I5
tp449
atp450
a(S'gezien'
p451
(dp452
S'VERB'
p453
F0.788562
sS'ADJ'
p454
F0.010989
sS'ADP'
p455
F0.200449
s(lp456
(g104
I12
tp457
atp458
a(S'goed'
p459
(dp460
S'ADV'
p461
F0.000404
sS'ADJ'
p462
F0.013204
sS'NOUN'
p463
F0.986393
s(lp464
tp465
a(S'voor'
p466
(dp467
S'ADV'
p468
F0.096965
sS'CONJ'
p469
F1e-05
sS'NOUN'
p470
F5e-06
sS'ADP'
p471
F0.90302
s(lp472
(g116
I13
tp473
atp474
a(S'meer'
p475
(dp476
S'ADV'
p477
F0.995477
sS'NUM'
p478
F0.004463
sS'NOUN'
p479
F5.7e-05
sS'VERB'
p480
F3e-06
s(lp481
(g124
I14
tp482
atp483
a(S'dan'
p484
(dp485
S'ADV'
p486
F0.174427
sS'CONJ'
p487
F0.825573
s(lp488
(g131
I15
tp489
atp490
a(S'40'
p491
(dp492
S'NUM'
p493
F1.0
s(lp494
(g139
I16
tp495
atp496
a(S'procent'
p497
(dp498
S'NOUN'
p499
F1.0
s(lp500
(g142
I17
tp501
atp502
a(S'van'
p503
(dp504
S'ADP'
p505
F1.0
s(lp506
(g151
I18
tp507
atp508
a(S'de'
p509
(dp510
S'DET'
p511
F1.0
s(lp512
(g165
I19
tp513
atp514
a(S'offici\xc3\xable'
p515
(dp516
S'NOUN'
p517
F0.043146
sS'ADJ'
p518
F0.956854
s(lp519
(g200
I20
tp520
atp521
a(S'humanitaire'
p522
(dp523
S'NOUN'
p524
F0.007546
sS'ADJ'
p525
F0.992454
s(lp526
(g192
I22
tp527
atp528
a(S'hulp'
p529
(dp530
S'NOUN'
p531
F1.0
s(lp532
(g185
I23
tp533
atp534
a(g106
(dp535
g106
F1.0
s(lp536
(g106
I24
tp537
atp538
asS'de'
p539
(lp540
(S'die'
p541
(dp542
S'PRON'
p543
F0.004888
sS'DET'
p544
F0.994789
s(lp545
(g9
I0
tp546
atp547
a(S'europ\xc3\xa4ische'
p548
(dp549
S'ADJ'
p550
F1.0
s(lp551
(g24
I1
tp552
atp553
a(S'union'
p554
(dp555
S'ADJ'
p556
F0.005574
sS'NOUN'
p557
F0.988944
s(lp558
(g16
I2
tp559
atp560
a(S'ist'
p561
(dp562
S'VERB'
p563
F1.0
s(lp564
(g31
I3
tp565
atp566
a(S'die'
p567
(dp568
S'PRON'
p569
F0.073085
sS'DET'
p570
F0.926825
s(lp571
(g39
I4
tp572
atp573
a(S'weltweit'
p574
(dp575
S'ADJ'
p576
F1.0
s(lp577
(g101
I5
tp578
atp579
a(S'gr\xc3\xb6\xc3\x9fte'
p580
(dp581
S'ADJ'
p582
F1.0
s(lp583
(g47
I7
tp584
atp585
a(S'geberorganisation'
p586
(dp587
S'VERB'
p588
F1.7e-05
sS'NOUN'
p589
F0.999958
s(lp590
(g54
I8
tp591
atp592
a(S'im'
p593
(dp594
S'ADP'
p595
F1.0
s(lp596
(g92
I6
tp597
atp598
a(S'bereich'
p599
(dp600
S'ADJ'
p601
F0.013851
sS'NOUN'
p602
F0.963143
s(lp603
tp604
a(S'humanit\xc3\xa4re'
p605
(dp606
S'ADJ'
p607
F1.0
s(lp608
(g78
I10
tp609
atp610
a(S'hilfe'
p611
(dp612
S'VERB'
p613
F5.9e-05
sS'NOUN'
p614
F0.999916
s(lp615
(g71
I11
tp616
atp617
a(S';'
p618
(dp619
g106
F1.0
s(lp620
(g104
I12
tp621
atp622
a(S'ihr'
p623
(dp624
S'PRON'
p625
F1.0
s(lp626
(g116
I13
tp627
atp628
a(S'anteil'
p629
(dp630
S'ADJ'
p631
F0.117212
sS'NOUN'
p632
F0.857704
s(lp633
(g54
I8
tp634
atp635
a(S'an'
p636
(dp637
S'ADP'
p638
F0.995197
s(lp639
(g63
I9
tp640
atp641
a(S'der'
p642
(dp643
S'PRON'
p644
F0.002088
sS'DET'
p645
F0.995959
s(lp646
(g151
I18
tp647
atp648
a(S'offiziell'
p649
(dp650
S'ADJ'
p651
F1.0
s(lp652
tp653
a(S'verzeichneten'
p654
(dp655
S'VERB'
p656
F0.272983
sS'ADJ'
p657
F0.727017
s(lp658
(g200
I20
tp659
atp660
a(S'internationalen'
p661
(dp662
S'ADJ'
p663
F1.0
s(lp664
(g207
I21
tp665
atp666
a(S'humanit\xc3\xa4ren'
p667
(dp668
S'ADJ'
p669
F1.0
s(lp670
(g192
I22
tp671
atp672
a(S'hilfe'
p673
(dp674
S'ADJ'
p675
F2e-05
sS'NOUN'
p676
F0.999973
s(lp677
(g185
I23
tp678
atp679
a(S'betr\xc3\xa4gt'
p680
(dp681
S'VERB'
p682
F1.0
s(lp683
tp684
a(S'\xc3\xbcber'
p685
(dp686
S'PRT'
p687
F3.8e-05
sS'ADP'
p688
F0.999962
s(lp689
(g131
I15
tp690
atp691
a(S'40'
p692
(dp693
S'NUM'
p694
F1.0
s(lp695
(g139
I16
tp696
atp697
a(g142
(dp698
S'NOUN'
p699
F1.0
s(lp700
(g142
I17
tp701
atp702
a(g106
(dp703
g106
F1.0
s(lp704
(g106
I24
tp705
atp706
asS'it'
p707
(lp708
(S"l'"
p709
(dp710
S'NOUN'
p711
F0.00259
sS'VERB'
p712
F0.9925710000000001
sS'ADJ'
p713
F0.00484
s(lp714
(g9
I0
tp715
atp716
a(S'unione'
p717
(dp718
S'NOUN'
p719
F1.0
s(lp720
(g16
I2
tp721
atp722
a(S'europea'
p723
(dp724
S'NOUN'
p725
F0.003863
sS'ADJ'
p726
F0.996137
s(lp727
(g24
I1
tp728
atp729
a(S'\xc3\xa8'
p730
(dp731
S'VERB'
p732
F1.0
s(lp733
(g31
I3
tp734
atp735
a(S'il'
p736
(dp737
S'DET'
p738
F1.0
s(lp739
(g92
I6
tp740
atp741
a(S'maggiore'
p742
(dp743
S'NOUN'
p744
F0.008984
sS'ADJ'
p745
F0.991016
s(lp746
(g47
I7
tp747
atp748
a(S'donatore'
p749
(dp750
S'NOUN'
p751
F1.0
s(lp752
(g54
I8
tp753
atp754
a(S'al'
p755
(dp756
S'ADP'
p757
F1.0
s(lp758
(g39
I4
tp759
atp760
a(S'mondo'
p761
(dp762
S'ADJ'
p763
F0.005399
sS'VERB'
p764
F5e-06
sS'NOUN'
p765
F0.994596
s(lp766
(g101
I5
tp767
atp768
a(S'di'
p769
(dp770
S'CONJ'
p771
F4e-06
sS'ADP'
p772
F0.999996
s(lp773
(g63
I9
tp774
atp775
a(S'aiuti'
p776
(dp777
S'VERB'
p778
F0.00148
sS'NOUN'
p779
F0.998521
s(lp780
(g71
I11
tp781
atp782
a(S'umanitari'
p783
(dp784
S'NOUN'
p785
F0.01644
sS'ADJ'
p786
F0.98356
s(lp787
(g78
I10
tp788
atp789
a(g104
(dp790
g106
F1.0
s(lp791
(g104
I12
tp792
atp793
a(S'visto'
p794
(dp795
S'CONJ'
p796
F0.86577
sS'VERB'
p797
F0.129213
sS'NOUN'
p798
F0.005017
s(lp799
(g116
I13
tp800
atp801
a(S'che'
p802
(dp803
S'PRON'
p804
F0.989184
sS'CONJ'
p805
F0.010671
sS'ADJ'
p806
F0.000146
s(lp807
tp808
a(S'eroga'
p809
(dp810
S'VERB'
p811
F1.0
s(lp812
(g116
I13
tp813
atp814
a(S'oltre'
p815
(dp816
S'ADV'
p817
F0.930676
sS'CONJ'
p818
F0.041764
sS'ADP'
p819
F0.02756
s(lp820
(g131
I15
tp821
atp822
a(S'il'
p823
(dp824
S'DET'
p825
F1.0
s(lp826
(g142
I17
tp827
atp828
a(S'40'
p829
(dp830
S'NUM'
p831
F0.996498
sg106
F0.003502
s(lp832
(g139
I16
tp833
atp834
a(S'per'
p835
(dp836
S'CONJ'
p837
F0.017245
sS'ADP'
p838
F0.982755
s(lp839
tp840
a(S'cento'
p841
(dp842
S'NOUN'
p843
F0.015273
sS'NUM'
p844
F0.00022
sS'ADJ'
p845
F0.984507
s(lp846
(g142
I17
tp847
atp848
a(S'di'
p849
(dp850
S'CONJ'
p851
F3.7e-05
sS'ADP'
p852
F0.999963
s(lp853
(g151
I18
tp854
atp855
a(S'tutta'
p856
(dp857
S'PRON'
p858
F0.955172
sS'ADJ'
p859
F0.044828
s(lp860
(g165
I19
tp861
atp862
a(S"l'"
p863
(dp864
S'NOUN'
p865
F0.015291
sS'VERB'
p866
F0.968786
sS'ADJ'
p867
F0.015921
s(lp868
tp869
a(S'assistenza'
p870
(dp871
S'NOUN'
p872
F1.0
s(lp873
(g185
I23
tp874
atp875
a(S'umanitaria'
p876
(dp877
S'NOUN'
p878
F0.104523
sS'ADJ'
p879
F0.895477
s(lp880
(g192
I22
tp881
atp882
a(S'internazionale'
p883
(dp884
S'ADJ'
p885
F1.0
s(lp886
(g207
I21
tp887
atp888
a(g106
(dp889
g106
F1.0
s(lp890
(g106
I24
tp891
atp892
asS'sk'
p893
(lp894
(S'eur\xc3\xb3pska'
p895
(dp896
S'ADJ'
p897
F1.0
s(lp898
(g24
I1
tp899
atp900
a(S'\xc3\xbania'
p901
(dp902
S'NOUN'
p903
F1.0
s(lp904
(g16
I2
tp905
atp906
a(S'je'
p907
(dp908
g136
F6.7e-05
sS'VERB'
p909
F0.999917
sS'PRON'
p910
F1.7e-05
s(lp911
(g31
I3
tp912
atp913
a(S'najv\xc3\xbdznamnej\xc5\xa1\xc3\xadm'
p914
(dp915
S'ADJ'
p916
F1.0
s(lp917
(g47
I7
tp918
atp919
a(S'svetov\xc3\xbdm'
p920
(dp921
S'ADJ'
p922
F1.0
s(lp923
(g101
I5
tp924
atp925
a(S'darcom'
p926
(dp927
S'NOUN'
p928
F1.0
s(lp929
(g54
I8
tp930
atp931
a(S'humanit\xc3\xa1rnej'
p932
(dp933
S'ADJ'
p934
F1.0
s(lp935
(g78
I10
tp936
atp937
a(S'pomoci'
p938
(dp939
S'NOUN'
p940
F1.0
s(lp941
(g71
I11
tp942
atp943
a(S'-'
p944
(dp945
g106
F1.0
s(lp946
(g104
I12
tp947
atp948
a(S'poskytuje'
p949
(dp950
S'VERB'
p951
F1.0
s(lp952
(g116
I13
tp953
atp954
a(S'viac'
p955
(dp956
S'ADV'
p957
F0.27938
sg136
F0.020387
sS'CONJ'
p958
F0.005463
sS'NUM'
p959
F0.694769
s(lp960
(g124
I14
tp961
atp962
a(S'ne\xc5\xbe'
p963
(dp964
S'CONJ'
p965
F1.0
s(lp966
(g131
I15
tp967
atp968
a(S'40'
p969
(dp970
S'NUM'
p971
F1.0
s(lp972
(g139
I16
tp973
atp974
a(g142
(dp975
g136
F0.884411
sg106
F0.115589
s(lp976
(g142
I17
tp977
atp978
a(S'celkovej'
p979
(dp980
S'ADJ'
p981
F1.0
s(lp982
(g165
I19
tp983
atp984
a(S'ofici\xc3\xa1lnej'
p985
(dp986
S'ADJ'
p987
F1.0
s(lp988
(g200
I20
tp989
atp990
a(S'medzin\xc3\xa1rodnej'
p991
(dp992
S'ADJ'
p993
F1.0
s(lp994
(g207
I21
tp995
atp996
a(S'humanit\xc3\xa1rnej'
p997
(dp998
S'ADJ'
p999
F1.0
s(lp1000
(g192
I22
tp1001
atp1002
a(S'pomoci'
p1003
(dp1004
S'NOUN'
p1005
F1.0
s(lp1006
(g185
I23
tp1007
atp1008
a(g106
(dp1009
g106
F1.0
s(lp1010
(g106
I24
tp1011
atp1012
asS'pl'
p1013
(lp1014
(S'unia'
p1015
(dp1016
S'ADV'
p1017
F0.000458
sS'ADJ'
p1018
F0.029097
sS'VERB'
p1019
F0.044296999999999996
sS'NOUN'
p1020
F0.926146
s(lp1021
(g16
I2
tp1022
atp1023
a(S'europejska'
p1024
(dp1025
S'ADJ'
p1026
F1.0
s(lp1027
(g24
I1
tp1028
atp1029
a(S'jest'
p1030
(dp1031
S'VERB'
p1032
F1.0
s(lp1033
(g31
I3
tp1034
atp1035
a(S'najwi\xc4\x99kszym'
p1036
(dp1037
S'ADJ'
p1038
F1.0
s(lp1039
(g47
I7
tp1040
atp1041
a(S'\xc5\x9bwiatowym'
p1042
(dp1043
S'ADJ'
p1044
F1.0
s(lp1045
(g101
I5
tp1046
atp1047
a(S'ofiarodawc\xc4\x85'
p1048
(dp1049
S'ADV'
p1050
F0.0
sS'ADJ'
p1051
F1.8e-05
sS'VERB'
p1052
F1e-06
sS'NOUN'
p1053
F0.9999780000000001
s(lp1054
(g54
I8
tp1055
atp1056
a(S'pomocy'
p1057
(dp1058
S'NOUN'
p1059
F1.000001
s(lp1060
(g71
I11
tp1061
atp1062
a(S'humanitarnej'
p1063
(dp1064
S'ADJ'
p1065
F1.0
s(lp1066
(g78
I10
tp1067
atp1068
a(g104
(dp1069
g136
F0.0
sg106
F1.0
s(lp1070
(g104
I12
tp1071
atp1072
a(S'do'
p1073
(dp1074
g136
F3e-06
sS'NOUN'
p1075
F2.7e-05
sS'ADP'
p1076
F0.99997
s(lp1077
tp1078
a(S'kt\xc3\xb3rego'
p1079
(dp1080
S'ADJ'
p1081
F0.9999990000000001
s(lp1082
(g116
I13
tp1083
atp1084
a(S'nale\xc5\xbcy'
p1085
(dp1086
S'VERB'
p1087
F0.997326
sS'ADJ'
p1088
F0.002675
s(lp1089
(g124
I14
tp1090
atp1091
a(S'ponad'
p1092
(dp1093
S'PRT'
p1094
F0.99165
sS'ADP'
p1095
F0.008349
s(lp1096
(g131
I15
tp1097
atp1098
a(S'40'
p1099
(dp1100
S'NUM'
p1101
F0.9998409999999999
sS'ADJ'
p1102
F0.000159
s(lp1103
(g139
I16
tp1104
atp1105
a(g142
(dp1106
S'NOUN'
p1107
F1.0
s(lp1108
(g142
I17
tp1109
atp1110
a(S'oficjalnej'
p1111
(dp1112
S'ADJ'
p1113
F1.0
s(lp1114
(g200
I20
tp1115
atp1116
a(S'\xc5\x9bwiatowej'
p1117
(dp1118
S'ADJ'
p1119
F1.0
s(lp1120
(g207
I21
tp1121
atp1122
a(S'pomocy'
p1123
(dp1124
S'NOUN'
p1125
F1.0
s(lp1126
(g185
I23
tp1127
atp1128
a(S'humanitarnej'
p1129
(dp1130
S'ADJ'
p1131
F1.0
s(lp1132
(g192
I22
tp1133
atp1134
a(g106
(dp1135
g106
F1.0
s(lp1136
(g106
I24
tp1137
atp1138
asS'sl'
p1139
(lp1140
(S'evropska'
p1141
(dp1142
S'ADJ'
p1143
F1.0
s(lp1144
(g24
I1
tp1145
atp1146
a(S'unija'
p1147
(dp1148
S'NOUN'
p1149
F1.0
s(lp1150
(g16
I2
tp1151
atp1152
a(S'je'
p1153
(dp1154
S'PRON'
p1155
F1.7e-05
sS'VERB'
p1156
F0.999978
sg136
F5e-06
s(lp1157
(g31
I3
tp1158
atp1159
a(S'najve\xc4\x8dja'
p1160
(dp1161
S'ADJ'
p1162
F1.0
s(lp1163
(g47
I7
tp1164
atp1165
a(S'donatorka'
p1166
(dp1167
S'ADV'
p1168
F2.9e-05
sS'ADJ'
p1169
F0.036071
sS'VERB'
p1170
F8e-06
sS'NOUN'
p1171
F0.963893
s(lp1172
(g54
I8
tp1173
atp1174
a(S'humanitarne'
p1175
(dp1176
S'ADJ'
p1177
F1.0
s(lp1178
(g78
I10
tp1179
atp1180
a(S'pomo\xc4\x8di'
p1181
(dp1182
S'NOUN'
p1183
F1.0
s(lp1184
(g71
I11
tp1185
atp1186
a(S'v'
p1187
(dp1188
S'ADP'
p1189
F1.0
s(lp1190
(g39
I4
tp1191
atp1192
a(S'svetu'
p1193
(dp1194
S'NOUN'
p1195
F1.0
s(lp1196
(g101
I5
tp1197
atp1198
a(S'in'
p1199
(dp1200
S'ADV'
p1201
F0.000492
sg136
F7e-06
sS'CONJ'
p1202
F0.999407
sS'NOUN'
p1203
F9.4e-05
s(lp1204
(g104
I12
tp1205
atp1206
a(S'zagotavlja'
p1207
(dp1208
S'VERB'
p1209
F1.0
s(lp1210
(g116
I13
tp1211
atp1212
a(S'40'
p1213
(dp1214
S'NUM'
p1215
F1.0
s(lp1216
(g139
I16
tp1217
atp1218
a(g142
(dp1219
g106
F1.0
s(lp1220
(g142
I17
tp1221
atp1222
a(S'celotne'
p1223
(dp1224
S'ADJ'
p1225
F1.0
s(lp1226
(g165
I19
tp1227
atp1228
a(S'uradne'
p1229
(dp1230
S'ADJ'
p1231
F0.999999
s(lp1232
(g200
I20
tp1233
atp1234
a(S'mednarodne'
p1235
(dp1236
S'ADJ'
p1237
F1.0
s(lp1238
(g207
I21
tp1239
atp1240
a(S'humanitarne'
p1241
(dp1242
S'ADJ'
p1243
F1.0
s(lp1244
(g192
I22
tp1245
atp1246
a(S'pomo\xc4\x8di'
p1247
(dp1248
S'NOUN'
p1249
F1.0
s(lp1250
(g185
I23
tp1251
atp1252
a(g106
(dp1253
g106
F1.0
s(lp1254
(g106
I24
tp1255
atp1256
asS'es'
p1257
(lp1258
(S'la'
p1259
(dp1260
g136
F4.5e-05
sS'DET'
p1261
F0.999917
sS'NOUN'
p1262
F0.0
sS'PRON'
p1263
F3.8e-05
s(lp1264
(g9
I0
tp1265
atp1266
a(S'uni\xc3\xb3n'
p1267
(dp1268
S'NOUN'
p1269
F1.0
s(lp1270
(g16
I2
tp1271
atp1272
a(S'europea'
p1273
(dp1274
S'ADJ'
p1275
F1.0
s(lp1276
(g24
I1
tp1277
atp1278
a(S'es'
p1279
(dp1280
S'VERB'
p1281
F1.0
s(lp1282
(g31
I3
tp1283
atp1284
a(S'el'
p1285
(dp1286
S'PRON'
p1287
F7.1e-05
sS'DET'
p1288
F0.999929
s(lp1289
(g39
I4
tp1290
atp1291
a(S'mayor'
p1292
(dp1293
S'ADJ'
p1294
F1.0
s(lp1295
(g47
I7
tp1296
atp1297
a(S'donante'
p1298
(dp1299
S'NOUN'
p1300
F1.0
s(lp1301
(g54
I8
tp1302
atp1303
a(S'mundial'
p1304
(dp1305
S'NOUN'
p1306
F0.000255
sS'ADJ'
p1307
F0.999745
s(lp1308
(g101
I5
tp1309
atp1310
a(S'de'
p1311
(dp1312
g136
F3.1e-05
sS'CONJ'
p1313
F0.001484
sS'ADP'
p1314
F0.998485
s(lp1315
(g63
I9
tp1316
atp1317
a(S'ayuda'
p1318
(dp1319
S'NOUN'
p1320
F1.0
s(lp1321
(g71
I11
tp1322
atp1323
a(S'humanitaria'
p1324
(dp1325
S'ADJ'
p1326
F1.0
s(lp1327
(g78
I10
tp1328
atp1329
a(g104
(dp1330
g106
F1.0
s(lp1331
(g104
I12
tp1332
atp1333
a(S'aportando'
p1334
(dp1335
S'VERB'
p1336
F1.0
s(lp1337
(g116
I13
tp1338
atp1339
a(S'm\xc3\xa1s'
p1340
(dp1341
S'ADV'
p1342
F1.0
sS'CONJ'
p1343
F0.0
s(lp1344
(g124
I14
tp1345
atp1346
a(S'del'
p1347
(dp1348
S'ADP'
p1349
F1.0
s(lp1350
(g131
I15
tp1351
atp1352
a(S'40'
p1353
(dp1354
g136
F0.0
sS'NUM'
p1355
F1.0
s(lp1356
(g139
I16
tp1357
atp1358
a(g142
(dp1359
g106
F1.0
s(lp1360
(g142
I17
tp1361
atp1362
a(S'de'
p1363
(dp1364
g136
F0.0
sS'CONJ'
p1365
F1.9e-05
sS'ADP'
p1366
F0.999981
s(lp1367
(g151
I18
tp1368
atp1369
a(S'toda'
p1370
(dp1371
S'ADJ'
p1372
F1.0
s(lp1373
(g165
I19
tp1374
atp1375
a(S'la'
p1376
(dp1377
S'NOUN'
p1378
F4e-06
sS'DET'
p1379
F0.999996
sg136
F0.0
sS'PRON'
p1380
F0.0
s(lp1381
tp1382
a(S'ayuda'
p1383
(dp1384
S'NOUN'
p1385
F1.0
s(lp1386
(g185
I23
tp1387
atp1388
a(S'humanitaria'
p1389
(dp1390
S'ADJ'
p1391
F1.0
s(lp1392
(g192
I22
tp1393
atp1394
a(S'oficial'
p1395
(dp1396
S'ADJ'
p1397
F1.0
s(lp1398
tp1399
a(S'de'
p1400
(dp1401
g136
F3.1e-05
sS'CONJ'
p1402
F0.001485
sS'ADP'
p1403
F0.998485
s(lp1404
tp1405
a(S'car\xc3\xa1cter'
p1406
(dp1407
S'NOUN'
p1408
F1.0
s(lp1409
(g200
I20
tp1410
atp1411
a(S'internacional'
p1412
(dp1413
S'ADJ'
p1414
F1.0
s(lp1415
(g207
I21
tp1416
atp1417
a(g106
(dp1418
g106
F1.0
s(lp1419
(g106
I24
tp1420
atp1421
as.