(dp0
S'fr'
p1
(lp2
(S'ce'
p3
(dp4
S'PRON'
p5
F1.0
s(lp6
tp7
a(S'faisant'
p8
(dp9
S'VERB'
p10
F1.0
s(lp11
(S'doing'
p12
I1
tp13
atp14
a(S','
p15
(dp16
S'.'
p17
F1.0
s(lp18
(g15
I3
tp19
atp20
a(S"l'"
p21
(dp22
S'ADJ'
p23
F0.13429
sS'VERB'
p24
F0.638201
sS'NOUN'
p25
F0.227509
s(lp26
(S'the'
p27
I4
tp28
atp29
a(S'\xc3\xa9tiquetage'
p30
(dp31
S'NOUN'
p32
F1.0
s(lp33
(S'label'
p34
I5
tp35
atp36
a(S'permettra'
p37
(dp38
S'VERB'
p39
F1.0
s(lp40
(S'will'
p41
I6
tp42
atp43
a(S'au'
p44
(dp45
S'ADP'
p46
F1.0
s(lp47
(S'the'
p48
I8
tp49
atp50
a(S'march\xc3\xa9'
p51
(dp52
S'VERB'
p53
F0.004015
sS'NOUN'
p54
F0.995985
s(lp55
(S'market'
p56
I9
tp57
atp58
a(S'de'
p59
(dp60
S'ADP'
p61
F1.0
s(lp62
tp63
a(S'se'
p64
(dp65
S'PRON'
p66
F1.0
s(lp67
(S'better-performing'
p68
I11
tp69
atp70
a(S'tourner'
p71
(dp72
S'VERB'
p73
F1.0
s(lp74
(g68
I11
tp75
atp76
a(S'vers'
p77
(dp78
S'NOUN'
p79
F8.2e-05
sS'ADP'
p80
F0.999918
s(lp81
(S'towards'
p82
I10
tp83
atp84
a(S'des'
p85
(dp86
S'DET'
p87
F0.000755
sS'ADP'
p88
F0.999245
s(lp89
tp90
a(S'pneumatiques'
p91
(dp92
S'ADJ'
p93
F0.25225
sS'NOUN'
p94
F0.74775
s(lp95
(S'tyres'
p96
I12
tp97
atp98
a(S'plus'
p99
(dp100
S'ADV'
p101
F0.999622
sS'VERB'
p102
F0.000377
s(lp103
(g68
I11
tp104
atp105
a(S'performants'
p106
(dp107
S'ADJ'
p108
F1.0
s(lp109
(g68
I11
tp110
atp111
a(g15
(dp112
g17
F1.0
s(lp113
tp114
a(S'tout'
p115
(dp116
S'ADV'
p117
F0.790359
sS'PRON'
p118
F0.193717
sS'NOUN'
p119
F0.015925
s(lp120
tp121
a(S'en'
p122
(dp123
S'PRON'
p124
F0.262294
sS'ADP'
p125
F0.737706
s(lp126
(S'while'
p127
I13
tp128
atp129
a(S'\xc3\xa9vitant'
p130
(dp131
S'VERB'
p132
F1.0
s(lp133
(S'avoiding'
p134
I14
tp135
atp136
a(S'de'
p137
(dp138
S'ADP'
p139
F1.0
s(lp140
tp141
a(S'se'
p142
(dp143
S'PRON'
p144
F1.0
s(lp145
(g68
I11
tp146
atp147
a(S'concentrer'
p148
(dp149
S'VERB'
p150
F1.0
s(lp151
tp152
a(S'sur'
p153
(dp154
S'ADP'
p155
F1.0
s(lp156
(S'on'
p157
I16
tp158
atp159
a(S'un'
p160
(dp161
S'NOUN'
p162
F0.005613
sS'NUM'
p163
F0.007892
sS'DET'
p164
F0.986495
s(lp165
tp166
a(S'seul'
p167
(dp168
S'NOUN'
p169
F0.084127
sS'ADJ'
p170
F0.915873
s(lp171
(S'one'
p172
I17
tp173
atp174
a(S'aspect'
p175
(dp176
S'NOUN'
p177
F1.0
s(lp178
(S'aspect'
p179
I18
tp180
atp181
a(S'au'
p182
(dp183
S'ADP'
p184
F1.0
s(lp185
(S'at'
p186
I21
tp187
atp188
a(S'd\xc3\xa9triment'
p189
(dp190
S'NOUN'
p191
F1.0
s(lp192
(g68
I11
tp193
atp194
a(S'des'
p195
(dp196
S'DET'
p197
F3.2e-05
sS'ADP'
p198
F0.999968
s(lp199
(S'of'
p200
I24
tp201
atp202
a(S'autres'
p203
(dp204
S'ADJ'
p205
F1.0
s(lp206
(S'others'
p207
I25
tp208
atp209
a(g17
(dp210
g17
F1.0
s(lp211
(g17
I26
tp212
atp213
asS'en'
p214
(lp215
(S'by'
p216
(dp217
S'ADV'
p218
F0.001336
sS'NOUN'
p219
F1e-06
sS'ADP'
p220
F0.998664
s(lp221
(g216
I0
tp222
atp223
a(g12
(dp224
S'VERB'
p225
F0.999569
sS'NOUN'
p226
F0.000431
s(lp227
(g12
I1
tp228
atp229
a(S'so'
p230
(dp231
S'ADV'
p232
F0.98016
sS'ADJ'
p233
F4.4e-05
sS'CONJ'
p234
F0.001055
sS'NOUN'
p235
F0.000183
sS'ADP'
p236
F0.018558
s(lp237
(g230
I2
tp238
atp239
a(g15
(dp240
g17
F1.0
s(lp241
(g15
I3
tp242
atp243
a(g27
(dp244
S'NOUN'
p245
F4e-06
sS'DET'
p246
F0.999996
s(lp247
(g27
I4
tp248
atp249
a(g34
(dp250
S'VERB'
p251
F0.000298
sS'NOUN'
p252
F0.999702
s(lp253
(g34
I5
tp254
atp255
a(g41
(dp256
S'VERB'
p257
F0.99998
sS'NOUN'
p258
F2e-05
s(lp259
(g41
I6
tp260
atp261
a(S'pull'
p262
(dp263
S'VERB'
p264
F0.999999
sS'NOUN'
p265
F1e-06
s(lp266
(g262
I7
tp267
atp268
a(g48
(dp269
S'NOUN'
p270
F1e-06
sS'DET'
p271
F0.999999
s(lp272
(g48
I8
tp273
atp274
a(g56
(dp275
S'VERB'
p276
F3.2e-05
sS'NOUN'
p277
F0.999968
s(lp278
(g56
I9
tp279
atp280
a(g82
(dp281
S'ADP'
p282
F1.0
s(lp283
(g82
I10
tp284
atp285
a(g68
(dp286
S'ADJ'
p287
F1.0
s(lp288
(g68
I11
tp289
atp290
a(g96
(dp291
S'VERB'
p292
F0.000517
sS'NOUN'
p293
F0.999483
s(lp294
(g96
I12
tp295
atp296
a(g127
(dp297
S'NOUN'
p298
F0.000694
sS'ADP'
p299
F0.999306
s(lp300
(g127
I13
tp301
atp302
a(g134
(dp303
S'VERB'
p304
F1.0
s(lp305
(g134
I14
tp306
atp307
a(S'improvements'
p308
(dp309
S'NOUN'
p310
F1.0
s(lp311
(g308
I15
tp312
atp313
a(g157
(dp314
S'ADV'
p315
F0.004363
sS'PRT'
p316
F0.000334
sS'ADJ'
p317
F0.0
sS'ADP'
p318
F0.995303
sS'NOUN'
p319
F0.0
s(lp320
(g157
I16
tp321
atp322
a(g172
(dp323
S'PRON'
p324
F6e-06
sS'NUM'
p325
F0.999982
sS'NOUN'
p326
F1.2e-05
s(lp327
(g172
I17
tp328
atp329
a(g179
(dp330
S'NOUN'
p331
F1.0
s(lp332
(g179
I18
tp333
atp334
a(S'being'
p335
(dp336
S'ADJ'
p337
F1e-05
sS'VERB'
p338
F0.999903
sS'NOUN'
p339
F8.7e-05
s(lp340
(g335
I19
tp341
atp342
a(S'achieved'
p343
(dp344
S'VERB'
p345
F1.0
s(lp346
(g343
I20
tp347
atp348
a(g186
(dp349
S'NOUN'
p350
F1e-06
sS'ADP'
p351
F0.999999
s(lp352
(g186
I21
tp353
atp354
a(S'the'
p355
(dp356
S'NOUN'
p357
F1.1e-05
sS'DET'
p358
F0.999989
s(lp359
(g355
I22
tp360
atp361
a(S'costs'
p362
(dp363
S'VERB'
p364
F0.002661
sS'NOUN'
p365
F0.997339
s(lp366
(g362
I23
tp367
atp368
a(g200
(dp369
S'ADP'
p370
F1.0
s(lp371
(g200
I24
tp372
atp373
a(g207
(dp374
S'NOUN'
p375
F1.0
s(lp376
(g207
I25
tp377
atp378
a(g17
(dp379
g17
F1.0
s(lp380
(g17
I26
tp381
atp382
asS'nl'
p383
(lp384
(S'op'
p385
(dp386
S'ADV'
p387
F0.004282
sS'ADJ'
p388
F0.0
sS'ADP'
p389
F0.995718
s(lp390
(g216
I0
tp391
atp392
a(S'deze'
p393
(dp394
S'PRON'
p395
F1.0
s(lp396
(g41
I6
tp397
atp398
a(S'manier'
p399
(dp400
S'NOUN'
p401
F1.0
s(lp402
(g12
I1
tp403
atp404
a(S'zorgt'
p405
(dp406
S'VERB'
p407
F1.0
s(lp408
(g68
I11
tp409
atp410
a(S'de'
p411
(dp412
S'DET'
p413
F1.0
s(lp414
(g27
I4
tp415
atp416
a(S'etikettering'
p417
(dp418
S'NOUN'
p419
F1.0
s(lp420
(g34
I5
tp421
atp422
a(S'ervoor'
p423
(dp424
S'ADV'
p425
F1.0
s(lp426
(g68
I11
tp427
atp428
a(S'dat'
p429
(dp430
S'PRON'
p431
F0.935661
sS'CONJ'
p432
F0.064338
s(lp433
tp434
a(S'beter'
p435
(dp436
S'ADV'
p437
F0.763331
sS'VERB'
p438
F0.002413
sS'ADJ'
p439
F0.234256
s(lp440
(g68
I11
tp441
atp442
a(S'presterende'
p443
(dp444
S'VERB'
p445
F0.990811
sS'NOUN'
p446
F0.009189
s(lp447
(g68
I11
tp448
atp449
a(S'banden'
p450
(dp451
S'VERB'
p452
F0.00585
sS'NOUN'
p453
F0.99415
s(lp454
(g96
I12
tp455
atp456
a(S'op'
p457
(dp458
S'ADV'
p459
F0.003948
sS'ADJ'
p460
F0.0
sS'ADP'
p461
F0.996052
s(lp462
(g82
I10
tp463
atp464
a(S'de'
p465
(dp466
S'DET'
p467
F1.0
s(lp468
(g48
I8
tp469
atp470
a(S'markt'
p471
(dp472
S'NOUN'
p473
F1.0
s(lp474
(g56
I9
tp475
atp476
a(S'worden'
p477
(dp478
S'VERB'
p479
F1.0
sS'NOUN'
p480
F0.0
s(lp481
tp482
a(S'bevorderd'
p483
(dp484
S'VERB'
p485
F1.0
s(lp486
(g68
I11
tp487
atp488
a(g17
(dp489
g17
F1.0
s(lp490
(g127
I13
tp491
atp492
a(S'verder'
p493
(dp494
S'ADV'
p495
F0.005458
sS'ADJ'
p496
F0.994542
s(lp497
(g68
I11
tp498
atp499
a(S'wordt'
p500
(dp501
S'VERB'
p502
F1.0
s(lp503
(g134
I14
tp504
atp505
a(S'zo'
p506
(dp507
S'ADV'
p508
F0.999997
sS'X'
p509
F0.0
sS'CONJ'
p510
F3e-06
s(lp511
(g134
I14
tp512
atp513
a(S'voorkomen'
p514
(dp515
S'VERB'
p516
F0.999942
sS'NOUN'
p517
F5.8e-05
s(lp518
tp519
a(S'dat'
p520
(dp521
S'PRON'
p522
F0.20312200000000002
sS'CONJ'
p523
F0.796878
s(lp524
(g134
I14
tp525
atp526
a(S'alleen'
p527
(dp528
S'ADV'
p529
F0.991835
sS'ADJ'
p530
F0.008165
s(lp531
tp532
a(S'bepaalde'
p533
(dp534
S'NOUN'
p535
F2.4e-05
sS'VERB'
p536
F0.000109
sS'ADJ'
p537
F0.999867
s(lp538
(g68
I11
tp539
atp540
a(S'aspecten'
p541
(dp542
S'NOUN'
p543
F1.0
s(lp544
(g179
I18
tp545
atp546
a(S'worden'
p547
(dp548
S'VERB'
p549
F1.0
sS'NOUN'
p550
F0.0
s(lp551
(g335
I19
tp552
atp553
a(S'verbeterd'
p554
(dp555
S'VERB'
p556
F1.0
s(lp557
(g308
I15
tp558
atp559
a(S'ten'
p560
(dp561
S'ADP'
p562
F1.0
s(lp563
(g186
I21
tp564
atp565
a(S'koste'
p566
(dp567
S'NOUN'
p568
F1.0
s(lp569
(g362
I23
tp570
atp571
a(S'van'
p572
(dp573
S'ADP'
p574
F1.0
s(lp575
(g200
I24
tp576
atp577
a(S'andere'
p578
(dp579
S'NOUN'
p580
F0.433461
sS'ADJ'
p581
F0.566539
s(lp582
(g207
I25
tp583
atp584
a(g17
(dp585
g17
F1.0
s(lp586
(g17
I26
tp587
atp588
asS'de'
p589
(lp590
(S'die'
p591
(dp592
S'PRON'
p593
F0.001127
sS'DET'
p594
F0.99854
s(lp595
(g27
I4
tp596
atp597
a(S'aufschrift'
p598
(dp599
S'ADJ'
p600
F0.000243
sS'NOUN'
p601
F0.999517
s(lp602
(g34
I5
tp603
atp604
a(S'wird'
p605
(dp606
S'VERB'
p607
F1.0
s(lp608
(g41
I6
tp609
atp610
a(S'den'
p611
(dp612
S'PRON'
p613
F0.002765
sS'DET'
p614
F0.997235
s(lp615
(g48
I8
tp616
atp617
a(S'markt'
p618
(dp619
S'ADJ'
p620
F0.072711
sS'NOUN'
p621
F0.865527
s(lp622
(g56
I9
tp623
atp624
a(S'dazu'
p625
(dp626
S'ADV'
p627
F0.999912
sS'PRT'
p628
F8.8e-05
s(lp629
(g68
I11
tp630
atp631
a(S'bringen'
p632
(dp633
S'VERB'
p634
F1.0
s(lp635
(g68
I11
tp636
atp637
a(g15
(dp638
g17
F1.0
s(lp639
(g15
I3
tp640
atp641
a(S'effizientere'
p642
(dp643
S'ADJ'
p644
F1.0
s(lp645
(g68
I11
tp646
atp647
a(S'reifen'
p648
(dp649
S'VERB'
p650
F0.386382
sS'ADJ'
p651
F0.613151
s(lp652
(g96
I12
tp653
atp654
a(S'anzubieten'
p655
(dp656
S'VERB'
p657
F1.0
s(lp658
tp659
a(S'und'
p660
(dp661
S'CONJ'
p662
F1.0
s(lp663
(g127
I13
tp664
atp665
a(S'verhindern'
p666
(dp667
S'VERB'
p668
F1.0
s(lp669
tp670
a(g15
(dp671
g17
F1.0
s(lp672
tp673
a(S'dass'
p674
(dp675
S'CONJ'
p676
F1.0
s(lp677
(g134
I14
tp678
atp679
a(S'verbesserungen'
p680
(dp681
S'VERB'
p682
F0.002858
sS'NOUN'
p683
F0.996376
s(lp684
(g308
I15
tp685
atp686
a(S'eines'
p687
(dp688
S'NUM'
p689
F0.000839
sS'DET'
p690
F0.998082
s(lp691
(g172
I17
tp692
atp693
a(S'aspekts'
p694
(dp695
S'ADJ'
p696
F0.000256
sS'NOUN'
p697
F0.999699
s(lp698
(g179
I18
tp699
atp700
a(S'auf'
p701
(dp702
S'ADV'
p703
F0.00475
sS'PRT'
p704
F0.992855
s(lp705
(g186
I21
tp706
atp707
a(S'kosten'
p708
(dp709
S'VERB'
p710
F1.0
s(lp711
(g362
I23
tp712
atp713
a(S'eines'
p714
(dp715
S'PRON'
p716
F0.066734
sS'DET'
p717
F0.927525
s(lp718
(g200
I24
tp719
atp720
a(S'anderen'
p721
(dp722
S'PRON'
p723
F1.0
s(lp724
(g207
I25
tp725
atp726
a(S'gehen'
p727
(dp728
S'VERB'
p729
F1.0
s(lp730
(g68
I11
tp731
atp732
a(g17
(dp733
g17
F1.0
s(lp734
(g17
I26
tp735
atp736
asS'it'
p737
(lp738
(S'in'
p739
(dp740
S'ADP'
p741
F1.0
s(lp742
(g216
I0
tp743
atp744
a(S'questo'
p745
(dp746
S'PRON'
p747
F1.0
s(lp748
(g12
I1
tp749
atp750
a(S'modo'
p751
(dp752
S'NOUN'
p753
F1.0
s(lp754
(g230
I2
tp755
atp756
a(g15
(dp757
g17
F1.0
s(lp758
(g15
I3
tp759
atp760
a(S"l'"
p761
(dp762
S'NOUN'
p763
F0.003774
sS'VERB'
p764
F0.984512
sS'ADJ'
p765
F0.011715
s(lp766
(g27
I4
tp767
atp768
a(S'etichetta'
p769
(dp770
S'VERB'
p771
F0.026894
sS'NOUN'
p772
F0.973106
s(lp773
(g34
I5
tp774
atp775
a(S'spinger\xc3\xa0'
p776
(dp777
S'VERB'
p778
F1.0
s(lp779
(g68
I11
tp780
atp781
a(S'il'
p782
(dp783
S'DET'
p784
F1.0
s(lp785
(g48
I8
tp786
atp787
a(S'mercato'
p788
(dp789
S'NOUN'
p790
F1.0
s(lp791
(g56
I9
tp792
atp793
a(S'verso'
p794
(dp795
S'NOUN'
p796
F0.000404
sS'VERB'
p797
F0.002032
sS'ADJ'
p798
F0.045093
sS'ADP'
p799
F0.952471
s(lp800
(g82
I10
tp801
atp802
a(S'pneumatici'
p803
(dp804
S'NOUN'
p805
F0.219421
sS'ADJ'
p806
F0.780579
s(lp807
(g96
I12
tp808
atp809
a(S'con'
p810
(dp811
S'ADP'
p812
F1.0
s(lp813
(g68
I11
tp814
atp815
a(S'prestazioni'
p816
(dp817
S'NOUN'
p818
F1.0
s(lp819
(g68
I11
tp820
atp821
a(S'migliori'
p822
(dp823
S'NOUN'
p824
F0.006479
sS'VERB'
p825
F0.003646
sS'ADJ'
p826
F0.989875
s(lp827
(g68
I11
tp828
atp829
a(g15
(dp830
g17
F1.0
s(lp831
(g127
I13
tp832
atp833
a(S'evitando'
p834
(dp835
S'VERB'
p836
F1.0
s(lp837
(g134
I14
tp838
atp839
a(S'che'
p840
(dp841
S'PRON'
p842
F0.985409
sS'CONJ'
p843
F0.014577
sS'ADJ'
p844
F1.4e-05
s(lp845
tp846
a(S'si'
p847
(dp848
S'PRON'
p849
F0.999999
sS'NOUN'
p850
F1e-06
s(lp851
(g308
I15
tp852
atp853
a(S'migliori'
p854
(dp855
S'NOUN'
p856
F0.001874
sS'VERB'
p857
F0.987806
sS'ADJ'
p858
F0.010319
s(lp859
(g68
I11
tp860
atp861
a(S'solamente'
p862
(dp863
S'ADV'
p864
F1.0
s(lp865
tp866
a(S'un'
p867
(dp868
S'PRON'
p869
F0.001064
sS'DEF'
p870
F0.998936
s(lp871
(g172
I17
tp872
atp873
a(S'aspetto'
p874
(dp875
S'VERB'
p876
F1e-05
sS'NOUN'
p877
F0.99999
s(lp878
(g179
I18
tp879
atp880
a(g15
(dp881
g17
F1.0
s(lp882
tp883
a(S'a'
p884
(dp885
S'CONJ'
p886
F0.000656
sS'ADP'
p887
F0.999344
s(lp888
(g186
I21
tp889
atp890
a(S'scapito'
p891
(dp892
S'VERB'
p893
F0.000575
sS'NOUN'
p894
F0.999425
s(lp895
(g68
I11
tp896
atp897
a(S'di'
p898
(dp899
S'CONJ'
p900
F2.5e-05
sS'ADP'
p901
F0.999975
s(lp902
(g200
I24
tp903
atp904
a(S'altri'
p905
(dp906
S'PRON'
p907
F0.565293
sS'ADJ'
p908
F0.417289
sS'NOUN'
p909
F0.017418
s(lp910
(g207
I25
tp911
atp912
a(g17
(dp913
g17
F1.0
s(lp914
(g17
I26
tp915
atp916
asS'sk'
p917
(lp918
(S't\xc3\xbdm'
p919
(dp920
S'PRON'
p921
F0.947905
sS'CONJ'
p922
F0.052095
s(lp923
(g12
I1
tp924
atp925
a(S'ozna\xc4\x8dovanie'
p926
(dp927
S'NOUN'
p928
F1.0
s(lp929
(g34
I5
tp930
atp931
a(S'posunie'
p932
(dp933
S'VERB'
p934
F1.0
s(lp935
(g68
I11
tp936
atp937
a(S'trh'
p938
(dp939
S'NOUN'
p940
F1.0
s(lp941
(g56
I9
tp942
atp943
a(S'smerom'
p944
(dp945
S'NOUN'
p946
F1.0
s(lp947
tp948
a(S'k'
p949
(dp950
g509
F0.0009350000000000001
sS'NOUN'
p951
F1.4000000000000001e-05
sS'ADP'
p952
F0.99905
s(lp953
(g82
I10
tp954
atp955
a(S'\xc3\xbaspornej\xc5\xa1\xc3\xadm'
p956
(dp957
S'ADJ'
p958
F1.0
s(lp959
(g68
I11
tp960
atp961
a(S'pneumatik\xc3\xa1m'
p962
(dp963
S'NOUN'
p964
F1.0
s(lp965
(g68
I11
tp966
atp967
a(g15
(dp968
g17
F1.0
s(lp969
tp970
a(S'pri\xc4\x8dom'
p971
(dp972
S'CONJ'
p973
F1.0
s(lp974
(g127
I13
tp975
atp976
a(S'sa'
p977
(dp978
S'PRT'
p979
F0.999969
sS'ADP'
p980
F0.0
sg509
F3.1e-05
s(lp981
(g134
I14
tp982
atp983
a(S'zabezpe\xc4\x8d\xc3\xad'
p984
(dp985
S'VERB'
p986
F1.0
s(lp987
(g68
I11
tp988
atp989
a(g15
(dp990
g17
F1.0
s(lp991
tp992
a(S'aby'
p993
(dp994
g509
F0.00025
sS'CONJ'
p995
F0.99975
s(lp996
(g68
I11
tp997
atp998
a(S'zlep\xc5\xa1enie'
p999
(dp1000
S'NOUN'
p1001
F1.0
s(lp1002
(g308
I15
tp1003
atp1004
a(S'jedn\xc3\xa9ho'
p1005
(dp1006
S'NUM'
p1007
F1.0
s(lp1008
(g172
I17
tp1009
atp1010
a(S'aspektu'
p1011
(dp1012
S'NOUN'
p1013
F1.0
s(lp1014
(g179
I18
tp1015
atp1016
a(S'ne\xc5\xa1lo'
p1017
(dp1018
S'VERB'
p1019
F1.0
s(lp1020
tp1021
a(S'na'
p1022
(dp1023
g509
F6e-05
sS'CONJ'
p1024
F6e-06
sS'ADP'
p1025
F0.999933
sS'PRT'
p1026
F1e-06
s(lp1027
(g186
I21
tp1028
atp1029
a(S'\xc3\xbakor'
p1030
(dp1031
S'NOUN'
p1032
F1.0
s(lp1033
(g68
I11
tp1034
atp1035
a(S'in\xc3\xa9ho'
p1036
(dp1037
S'PRON'
p1038
F0.954827
sS'NOUN'
p1039
F0.045173
s(lp1040
(g207
I25
tp1041
atp1042
a(g17
(dp1043
g17
F1.0
s(lp1044
(g17
I26
tp1045
atp1046
asS'pl'
p1047
(lp1048
(S'dzi\xc4\x99ki'
p1049
(dp1050
S'NOUN'
p1051
F0.012032
sS'ADP'
p1052
F0.987968
s(lp1053
(g216
I0
tp1054
atp1055
a(S'temu'
p1056
(dp1057
S'ADJ'
p1058
F0.147285
sS'NOUN'
p1059
F0.811388
sS'ADP'
p1060
F0.041327
s(lp1061
(g12
I1
tp1062
atp1063
a(S'stosowanie'
p1064
(dp1065
S'VERB'
p1066
F1.0
s(lp1067
(g68
I11
tp1068
atp1069
a(S'etykiet'
p1070
(dp1071
S'NOUN'
p1072
F1.0
s(lp1073
(g34
I5
tp1074
atp1075
a(S'spowoduje'
p1076
(dp1077
S'VERB'
p1078
F1.0
s(lp1079
(g68
I11
tp1080
atp1081
a(g15
(dp1082
g509
F0.0
sg17
F1.0
s(lp1083
(g15
I3
tp1084
atp1085
a(S'\xc5\xbce'
p1086
(dp1087
S'PRT'
p1088
F0.000139
sS'CONJ'
p1089
F0.999861
s(lp1090
(g68
I11
tp1091
atp1092
a(S'konsumenci'
p1093
(dp1094
S'NOUN'
p1095
F1.0
s(lp1096
(g68
I11
tp1097
atp1098
a(S'b\xc4\x99d\xc4\x85'
p1099
(dp1100
S'VERB'
p1101
F1.0
s(lp1102
(g68
I11
tp1103
atp1104
a(S'kupowa\xc4\x87'
p1105
(dp1106
S'VERB'
p1107
F1.0
s(lp1108
(g68
I11
tp1109
atp1110
a(S'opony'
p1111
(dp1112
S'NOUN'
p1113
F1.0
s(lp1114
(g96
I12
tp1115
atp1116
a(S'o'
p1117
(dp1118
g509
F1.3e-05
sS'VERB'
p1119
F0.0
sS'NOUN'
p1120
F0.0
sS'ADP'
p1121
F0.999986
sS'PRT'
p1122
F0.0
s(lp1123
tp1124
a(S'lepszych'
p1125
(dp1126
S'ADJ'
p1127
F0.9999999999999999
s(lp1128
tp1129
a(S'parametrach'
p1130
(dp1131
S'NOUN'
p1132
F1.0
s(lp1133
(g68
I11
tp1134
atp1135
a(g15
(dp1136
g509
F0.0
sg17
F1.0
s(lp1137
tp1138
a(S'unikaj\xc4\x85c'
p1139
(dp1140
S'ADV'
p1141
F0.000161
sS'ADJ'
p1142
F1.8e-05
sS'VERB'
p1143
F0.9995069999999999
sS'NOUN'
p1144
F0.000315
s(lp1145
(g134
I14
tp1146
atp1147
a(S'przy'
p1148
(dp1149
S'VERB'
p1150
F2e-06
sS'ADP'
p1151
F0.999998
s(lp1152
(g127
I13
tp1153
atp1154
a(S'tym'
p1155
(dp1156
S'ADV'
p1157
F0.00011
sS'ADJ'
p1158
F0.213792
sS'CONJ'
p1159
F0.000107
sS'NOUN'
p1160
F0.785987
sS'PRT'
p1161
F5e-06
s(lp1162
(g335
I19
tp1163
atp1164
a(S'osi\xc4\x85gni\xc4\x99cia'
p1165
(dp1166
S'VERB'
p1167
F0.545432
sS'NOUN'
p1168
F0.454568
s(lp1169
(g343
I20
tp1170
atp1171
a(S'usprawnie\xc5\x84'
p1172
(dp1173
S'NOUN'
p1174
F1.0
s(lp1175
(g308
I15
tp1176
atp1177
a(S'w'
p1178
(dp1179
S'ADJ'
p1180
F0.0
sg509
F0.0
sS'NOUN'
p1181
F0.0
sS'ADP'
p1182
F1.0
s(lp1183
(g157
I16
tp1184
atp1185
a(S'ramach'
p1186
(dp1187
S'NOUN'
p1188
F1.0
s(lp1189
(g355
I22
tp1190
atp1191
a(S'jednego'
p1192
(dp1193
S'NOUN'
p1194
F0.001498
sS'ADJ'
p1195
F0.998502
s(lp1196
(g172
I17
tp1197
atp1198
a(S'aspektu'
p1199
(dp1200
S'NOUN'
p1201
F1.000001
s(lp1202
(g179
I18
tp1203
atp1204
a(S'kosztem'
p1205
(dp1206
S'NOUN'
p1207
F1.0
s(lp1208
(g362
I23
tp1209
atp1210
a(S'innych'
p1211
(dp1212
S'NOUN'
p1213
F0.34763199999999994
sS'ADJ'
p1214
F0.652367
s(lp1215
(g207
I25
tp1216
atp1217
a(g17
(dp1218
g17
F1.0
s(lp1219
(g17
I26
tp1220
atp1221
asS'sl'
p1222
(lp1223
(S'tako'
p1224
(dp1225
S'ADV'
p1226
F0.684395
sS'PRON'
p1227
F0.07824800000000001
sS'CONJ'
p1228
F0.237357
s(lp1229
(g230
I2
tp1230
atp1231
a(S'bo'
p1232
(dp1233
S'VERB'
p1234
F1.0
s(lp1235
(g41
I6
tp1236
atp1237
a(S'oznaka'
p1238
(dp1239
S'NOUN'
p1240
F1.0
s(lp1241
(g34
I5
tp1242
atp1243
a(S'trg'
p1244
(dp1245
S'NOUN'
p1246
F1.0
s(lp1247
(g56
I9
tp1248
atp1249
a(S'pribli\xc5\xbeala'
p1250
(dp1251
S'VERB'
p1252
F1.0
s(lp1253
(g68
I11
tp1254
atp1255
a(S'bolj'
p1256
(dp1257
S'ADV'
p1258
F1.0
s(lp1259
(g68
I11
tp1260
atp1261
a(S'kakovostnim'
p1262
(dp1263
S'ADJ'
p1264
F1.0
s(lp1265
(g68
I11
tp1266
atp1267
a(S'pnevmatikam'
p1268
(dp1269
S'ADV'
p1270
F0.000165
sS'ADJ'
p1271
F0.001279
sS'VERB'
p1272
F0.046182
sS'NOUN'
p1273
F0.9523689999999997
s(lp1274
(g68
I11
tp1275
atp1276
a(g15
(dp1277
g17
F1.0
s(lp1278
tp1279
a(S'hkrati'
p1280
(dp1281
S'ADV'
p1282
F1.0
s(lp1283
tp1284
a(S'pa'
p1285
(dp1286
g509
F3e-05
sS'CONJ'
p1287
F0.99997
s(lp1288
(g127
I13
tp1289
atp1290
a(S'se'
p1291
(dp1292
S'PRON'
p1293
F0.999989
sg509
F1.1e-05
s(lp1294
(g134
I14
tp1295
atp1296
a(S'izbolj\xc5\xa1ave'
p1297
(dp1298
S'NOUN'
p1299
F1.000001
s(lp1300
(g308
I15
tp1301
atp1302
a(S'ne'
p1303
(dp1304
S'PRT'
p1305
F0.975751
sS'CONJ'
p1306
F0.024227
sg509
F2.1000000000000002e-05
s(lp1307
(g68
I11
tp1308
atp1309
a(S'bodo'
p1310
(dp1311
S'VERB'
p1312
F1.0
s(lp1313
(g68
I11
tp1314
atp1315
a(S'uresni\xc4\x8devale'
p1316
(dp1317
S'ADV'
p1318
F0.000115
sS'ADJ'
p1319
F0.000563
sS'VERB'
p1320
F0.9921089999999999
sS'NOUN'
p1321
F0.007211999999999998
sg509
F1e-06
s(lp1322
tp1323
a(S'na'
p1324
(dp1325
S'ADP'
p1326
F1.0
s(lp1327
(g157
I16
tp1328
atp1329
a(S'ra\xc4\x8dun'
p1330
(dp1331
S'NOUN'
p1332
F1.0
s(lp1333
(g68
I11
tp1334
atp1335
a(S'drugih'
p1336
(dp1337
S'NUM'
p1338
F0.9999999999999999
s(lp1339
(g207
I25
tp1340
atp1341
a(g17
(dp1342
g17
F1.0
s(lp1343
(g17
I26
tp1344
atp1345
asS'es'
p1346
(lp1347
(g884
(dp1348
S'ADP'
p1349
F1.0
s(lp1350
(g216
I0
tp1351
atp1352
a(S'trav\xc3\xa9s'
p1353
(dp1354
S'ADP'
p1355
F1.0
s(lp1356
(g68
I11
tp1357
atp1358
a(S'de'
p1359
(dp1360
S'ADP'
p1361
F1.0
s(lp1362
tp1363
a(S'esta'
p1364
(dp1365
S'PRON'
p1366
F1.0
sS'VERB'
p1367
F0.0
s(lp1368
(g68
I11
tp1369
atp1370
a(S'medida'
p1371
(dp1372
S'VERB'
p1373
F0.002489
sS'NOUN'
p1374
F0.997511
s(lp1375
(g68
I11
tp1376
atp1377
a(g15
(dp1378
g17
F1.0
s(lp1379
(g15
I3
tp1380
atp1381
a(S'la'
p1382
(dp1383
S'PRON'
p1384
F3.5e-05
sS'DET'
p1385
F0.999959
sS'NOUN'
p1386
F0.0
sg509
F5e-06
s(lp1387
(g27
I4
tp1388
atp1389
a(S'etiqueta'
p1390
(dp1391
S'NOUN'
p1392
F1.0
s(lp1393
(g34
I5
tp1394
atp1395
a(S'llevar\xc3\xa1'
p1396
(dp1397
S'VERB'
p1398
F1.0
s(lp1399
(g41
I6
tp1400
atp1401
a(S'al'
p1402
(dp1403
S'CONJ'
p1404
F0.000539
sS'ADP'
p1405
F0.999461
s(lp1406
(g48
I8
tp1407
atp1408
a(S'mercado'
p1409
(dp1410
S'VERB'
p1411
F0.06614
sS'NOUN'
p1412
F0.93386
s(lp1413
(g56
I9
tp1414
atp1415
a(S'hacia'
p1416
(dp1417
S'VERB'
p1418
F0.000119
sS'ADP'
p1419
F0.999881
s(lp1420
(g82
I10
tp1421
atp1422
a(S'unos'
p1423
(dp1424
S'DET'
p1425
F1.0
s(lp1426
(g68
I11
tp1427
atp1428
a(S'neum\xc3\xa1ticos'
p1429
(dp1430
S'ADJ'
p1431
F0.085692
sS'NOUN'
p1432
F0.914308
s(lp1433
(g96
I12
tp1434
atp1435
a(S'de'
p1436
(dp1437
g509
F0.000303
sS'CONJ'
p1438
F0.000973
sS'ADP'
p1439
F0.998724
s(lp1440
tp1441
a(S'mejor'
p1442
(dp1443
S'ADJ'
p1444
F1.0
s(lp1445
(g68
I11
tp1446
atp1447
a(S'rendimiento'
p1448
(dp1449
S'NOUN'
p1450
F1.0
s(lp1451
tp1452
a(S'al'
p1453
(dp1454
S'ADV'
p1455
F1.0
s(lp1456
(g127
I13
tp1457
atp1458
a(S'mismo'
p1459
(dp1460
S'ADV'
p1461
F1.0
s(lp1462
(g68
I11
tp1463
atp1464
a(S'tiempo'
p1465
(dp1466
S'ADV'
p1467
F1.0
s(lp1468
(g127
I13
tp1469
atp1470
a(S'que'
p1471
(dp1472
g509
F0.0
sS'CONJ'
p1473
F1.0
s(lp1474
tp1475
a(S'evita'
p1476
(dp1477
S'VERB'
p1478
F1.0
s(lp1479
(g134
I14
tp1480
atp1481
a(S'que'
p1482
(dp1483
g509
F0.0
sS'CONJ'
p1484
F1.0
s(lp1485
(g127
I13
tp1486
atp1487
a(S'se'
p1488
(dp1489
S'PRON'
p1490
F1.0
sS'VERB'
p1491
F0.0
s(lp1492
(g335
I19
tp1493
atp1494
a(S'consigan'
p1495
(dp1496
S'VERB'
p1497
F1.0
s(lp1498
(g343
I20
tp1499
atp1500
a(S'mejoras'
p1501
(dp1502
S'NOUN'
p1503
F1.0
s(lp1504
(g308
I15
tp1505
atp1506
a(S'en'
p1507
(dp1508
g509
F0.0
sS'CONJ'
p1509
F0.0
sS'ADP'
p1510
F0.999999
s(lp1511
(g157
I16
tp1512
atp1513
a(S'un'
p1514
(dp1515
g509
F2e-06
sS'DET'
p1516
F0.999998
s(lp1517
(g172
I17
tp1518
atp1519
a(S'aspecto'
p1520
(dp1521
S'NOUN'
p1522
F1.0
s(lp1523
(g179
I18
tp1524
atp1525
a(g884
(dp1526
g509
F0.001194
sS'CONJ'
p1527
F7.1e-05
sS'ADP'
p1528
F0.998735
s(lp1529
(g186
I21
tp1530
atp1531
a(S'costa'
p1532
(dp1533
S'NOUN'
p1534
F1.0
s(lp1535
(g362
I23
tp1536
atp1537
a(S'de'
p1538
(dp1539
g509
F0.0
sS'CONJ'
p1540
F1.7e-05
sS'ADP'
p1541
F0.999983
s(lp1542
(g200
I24
tp1543
atp1544
a(S'los'
p1545
(dp1546
S'PRON'
p1547
F0.0
sS'DET'
p1548
F1.0
s(lp1549
tp1550
a(S'otros'
p1551
(dp1552
S'ADJ'
p1553
F1.0
s(lp1554
(g207
I25
tp1555
atp1556
a(g17
(dp1557
g17
F1.0
s(lp1558
(g17
I26
tp1559
atp1560
as.