(dp0
S'fr'
p1
(lp2
(S'le'
p3
(dp4
S'PRON'
p5
F0.000439
sS'DET'
p6
F0.999561
s(lp7
tp8
a(S'mois'
p9
(dp10
S'NOUN'
p11
F1.0
s(lp12
(S'month'
p13
I1
tp14
atp15
a(S'dernier'
p16
(dp17
S'NOUN'
p18
F0.000793
sS'ADJ'
p19
F0.999207
s(lp20
(S'last'
p21
I0
tp22
atp23
a(S','
p24
(dp25
S'.'
p26
F1.0
s(lp27
tp28
a(S"j'"
p29
(dp30
S'ADJ'
p31
F0.280608
sS'VERB'
p32
F0.007367
sS'NOUN'
p33
F0.681695
sS'X'
p34
F0.03033
s(lp35
(S'i'
p36
I2
tp37
atp38
a(S'ai'
p39
(dp40
S'VERB'
p41
F1.0
s(lp42
tp43
a(S'eu'
p44
(dp45
S'VERB'
p46
F1.0
s(lp47
(S'had'
p48
I3
tp49
atp50
a(S"l'"
p51
(dp52
S'ADJ'
p53
F0.185351
sS'VERB'
p54
F0.35318400000000005
sS'NOUN'
p55
F0.461464
s(lp56
(S'the'
p57
I4
tp58
atp59
a(S'occasion'
p60
(dp61
S'NOUN'
p62
F1.0
s(lp63
(S'chance'
p64
I5
tp65
atp66
a(S'de'
p67
(dp68
S'ADP'
p69
F1.0
s(lp70
(S'to'
p71
I6
tp72
atp73
a(S'me'
p74
(dp75
S'PRON'
p76
F1.0
s(lp77
(S'myself'
p78
I8
tp79
atp80
a(S'familiariser'
p81
(dp82
S'VERB'
p83
F1.0
s(lp84
(S'familiarise'
p85
I7
tp86
atp87
a(S'personnellement'
p88
(dp89
S'ADV'
p90
F1.0
s(lp91
(S'personally'
p92
I9
tp93
atp94
a(S'avec'
p95
(dp96
S'ADV'
p97
F0.01827
sS'ADP'
p98
F0.98173
s(lp99
(S'with'
p100
I10
tp101
atp102
a(S'la'
p103
(dp104
S'PRON'
p105
F1.2e-05
sS'DET'
p106
F0.999988
sS'NOUN'
p107
F0.0
s(lp108
(S'the'
p109
I11
tp110
atp111
a(S'situation'
p112
(dp113
S'NOUN'
p114
F1.0
s(lp115
(S'situation'
p116
I13
tp117
atp118
a(S'politique'
p119
(dp120
S'NOUN'
p121
F0.014683
sS'VERB'
p122
F0.00394
sS'ADJ'
p123
F0.981377
s(lp124
(S'political'
p125
I12
tp126
atp127
a(S'au'
p128
(dp129
S'ADP'
p130
F1.0
s(lp131
tp132
a(S'pakistan'
p133
(dp134
S'ADJ'
p135
F0.104982
sS'NOUN'
p136
F0.895018
s(lp137
(S'pakistan'
p138
I15
tp139
atp140
a(g26
(dp141
g26
F1.0
s(lp142
(g26
I16
tp143
atp144
asS'en'
p145
(lp146
(g21
(dp147
S'ADV'
p148
F0.001839
sS'NOUN'
p149
F0.000276
sS'VERB'
p150
F0.00065
sS'ADJ'
p151
F0.997234
s(lp152
(g21
I0
tp153
atp154
a(g13
(dp155
S'NOUN'
p156
F1.0
s(lp157
(g13
I1
tp158
atp159
a(g36
(dp160
g34
F0.006073
sS'NOUN'
p161
F0.993928
s(lp162
(g36
I2
tp163
atp164
a(g48
(dp165
S'VERB'
p166
F1.0
s(lp167
(g48
I3
tp168
atp169
a(g57
(dp170
S'NOUN'
p171
F0.0
sS'DET'
p172
F1.0
s(lp173
(g57
I4
tp174
atp175
a(g64
(dp176
S'VERB'
p177
F0.0007149999999999999
sS'NOUN'
p178
F0.999284
s(lp179
(g64
I5
tp180
atp181
a(g71
(dp182
S'ADV'
p183
F0.0
sS'PRT'
p184
F1.0
sS'ADP'
p185
F0.0
s(lp186
(g71
I6
tp187
atp188
a(g85
(dp189
S'VERB'
p190
F1.0
s(lp191
(g85
I7
tp192
atp193
a(g78
(dp194
S'PRON'
p195
F1.0
s(lp196
(g78
I8
tp197
atp198
a(g92
(dp199
S'ADV'
p200
F1.0
s(lp201
(g92
I9
tp202
atp203
a(g100
(dp204
S'ADP'
p205
F1.0
s(lp206
(g100
I10
tp207
atp208
a(g109
(dp209
S'NOUN'
p210
F1e-06
sS'DET'
p211
F0.999999
s(lp212
(g109
I11
tp213
atp214
a(g125
(dp215
S'ADJ'
p216
F1.0
s(lp217
(g125
I12
tp218
atp219
a(g116
(dp220
S'NOUN'
p221
F1.0
s(lp222
(g116
I13
tp223
atp224
a(S'in'
p225
(dp226
S'ADV'
p227
F0.000161
sS'PRT'
p228
F0.000201
sS'ADP'
p229
F0.999638
s(lp230
(g225
I14
tp231
atp232
a(g138
(dp233
S'ADJ'
p234
F0.104587
sS'NOUN'
p235
F0.8954129999999999
s(lp236
(g138
I15
tp237
atp238
a(g26
(dp239
g26
F1.0
s(lp240
(g26
I16
tp241
atp242
asS'nl'
p243
(lp244
(S'vorige'
p245
(dp246
S'NOUN'
p247
F1.5e-05
sS'ADJ'
p248
F0.999985
s(lp249
(g21
I0
tp250
atp251
a(S'maand'
p252
(dp253
S'NOUN'
p254
F1.0
s(lp255
(g13
I1
tp256
atp257
a(S'heb'
p258
(dp259
S'VERB'
p260
F1.0
s(lp261
(g48
I3
tp262
atp263
a(S'ik'
p264
(dp265
S'PRON'
p266
F1.0
sS'NOUN'
p267
F0.0
s(lp268
(g36
I2
tp269
atp270
a(S'de'
p271
(dp272
S'DET'
p273
F1.0
s(lp274
(g57
I4
tp275
atp276
a(S'gelegenheid'
p277
(dp278
S'NOUN'
p279
F1.0
s(lp280
tp281
a(S'gehad'
p282
(dp283
S'VERB'
p284
F1.0
s(lp285
(g64
I5
tp286
atp287
a(S'om'
p288
(dp289
S'ADV'
p290
F7e-06
sS'CONJ'
p291
F0.967917
sS'ADP'
p292
F0.032075
s(lp293
tp294
a(S'mij'
p295
(dp296
S'PRON'
p297
F1.0
s(lp298
(g78
I8
tp299
atp300
a(S'persoonlijk'
p301
(dp302
S'ADJ'
p303
F1.0
s(lp304
(g92
I9
tp305
atp306
a(S'op'
p307
(dp308
S'ADV'
p309
F0.002555
sS'ADJ'
p310
F0.0
sS'ADP'
p311
F0.997445
s(lp312
(g100
I10
tp313
atp314
a(S'de'
p315
(dp316
S'DET'
p317
F1.0
s(lp318
tp319
a(S'hoogte'
p320
(dp321
S'NOUN'
p322
F1.0
s(lp323
tp324
a(S'te'
p325
(dp326
S'PRT'
p327
F1.0
s(lp328
(g71
I6
tp329
atp330
a(S'stellen'
p331
(dp332
S'VERB'
p333
F0.999996
sS'NOUN'
p334
F4e-06
s(lp335
(g85
I7
tp336
atp337
a(S'van'
p338
(dp339
S'ADP'
p340
F1.0
s(lp341
tp342
a(S'de'
p343
(dp344
S'DET'
p345
F1.0
s(lp346
(g109
I11
tp347
atp348
a(S'politieke'
p349
(dp350
S'NOUN'
p351
F0.0002
sS'ADJ'
p352
F0.9998
s(lp353
(g125
I12
tp354
atp355
a(S'situatie'
p356
(dp357
S'NOUN'
p358
F1.0
s(lp359
(g116
I13
tp360
atp361
a(S'in'
p362
(dp363
S'ADV'
p364
F0.001311
sS'VERB'
p365
F1e-06
sS'ADP'
p366
F0.998688
s(lp367
(g225
I14
tp368
atp369
a(S'pakistan'
p370
(dp371
S'ADJ'
p372
F0.000145
sS'NOUN'
p373
F0.9998549999999999
s(lp374
(g138
I15
tp375
atp376
a(g26
(dp377
g26
F1.0
s(lp378
(g26
I16
tp379
atp380
asS'de'
p381
(lp382
(S'letzten'
p383
(dp384
S'ADJ'
p385
F1.0
s(lp386
(g21
I0
tp387
atp388
a(S'monat'
p389
(dp390
S'ADJ'
p391
F0.004569
sS'NOUN'
p392
F0.991749
s(lp393
(g13
I1
tp394
atp395
a(S'hatte'
p396
(dp397
S'VERB'
p398
F1.0
s(lp399
(g48
I3
tp400
atp401
a(S'ich'
p402
(dp403
S'PRON'
p404
F1.0
s(lp405
(g36
I2
tp406
atp407
a(S'gelegenheit'
p408
(dp409
S'VERB'
p410
F0.569295
sS'ADJ'
p411
F0.232176
s(lp412
(g64
I5
tp413
atp414
a(g24
(dp415
g26
F1.0
s(lp416
tp417
a(S'mich'
p418
(dp419
S'PRON'
p420
F1.0
s(lp421
(g78
I8
tp422
atp423
a(S'pers\xc3\xb6nlich'
p424
(dp425
S'ADJ'
p426
F1.0
s(lp427
(g92
I9
tp428
atp429
a(S'mit'
p430
(dp431
S'PRT'
p432
F0.000683
sS'ADP'
p433
F0.999317
s(lp434
(g100
I10
tp435
atp436
a(S'der'
p437
(dp438
S'PRON'
p439
F6.7e-05
sS'DET'
p440
F0.999926
s(lp441
(g109
I11
tp442
atp443
a(S'politischen'
p444
(dp445
S'ADJ'
p446
F1.0
s(lp447
(g125
I12
tp448
atp449
a(S'situation'
p450
(dp451
S'ADJ'
p452
F0.002428
sS'NOUN'
p453
F0.995469
s(lp454
(g116
I13
tp455
atp456
a(S'in'
p457
(dp458
S'ADP'
p459
F1.0
s(lp460
(g225
I14
tp461
atp462
a(S'pakistan'
p463
(dp464
S'ADJ'
p465
F0.062513
sS'NOUN'
p466
F0.923596
s(lp467
(g138
I15
tp468
atp469
a(S'vertraut'
p470
(dp471
S'VERB'
p472
F0.152494
sS'ADJ'
p473
F0.84428
s(lp474
tp475
a(S'zu'
p476
(dp477
S'PRT'
p478
F0.999981
s(lp479
(g71
I6
tp480
atp481
a(S'machen'
p482
(dp483
S'VERB'
p484
F1.0
s(lp485
(g85
I7
tp486
atp487
a(g26
(dp488
g26
F1.0
s(lp489
(g26
I16
tp490
atp491
asS'it'
p492
(lp493
(S'lo'
p494
(dp495
S'PRON'
p496
F0.074206
sS'DET'
p497
F0.925794
s(lp498
tp499
a(S'scorso'
p500
(dp501
S'NOUN'
p502
F0.004642
sS'VERB'
p503
F0.003768
sS'ADJ'
p504
F0.99159
s(lp505
(g21
I0
tp506
atp507
a(S'mese'
p508
(dp509
S'NOUN'
p510
F1.0
s(lp511
(g13
I1
tp512
atp513
a(S'ho'
p514
(dp515
S'VERB'
p516
F1.0
s(lp517
(g36
I2
tp518
atp519
a(S'avuto'
p520
(dp521
S'VERB'
p522
F1.0
s(lp523
(g48
I3
tp524
atp525
a(S"l'"
p526
(dp527
S'NOUN'
p528
F0.016123
sS'VERB'
p529
F0.936126
sS'ADJ'
p530
F0.04775
s(lp531
(g57
I4
tp532
atp533
a(S'opportunit\xc3\xa0'
p534
(dp535
S'NOUN'
p536
F1.0
s(lp537
(g64
I5
tp538
atp539
a(S'di'
p540
(dp541
S'CONJ'
p542
F6e-06
sS'ADP'
p543
F0.999994
s(lp544
(g71
I6
tp545
atp546
a(S'conoscere'
p547
(dp548
S'VERB'
p549
F1.0
s(lp550
(g85
I7
tp551
atp552
a(S'in'
p553
(dp554
S'ADP'
p555
F1.0
s(lp556
tp557
a(S'prima'
p558
(dp559
S'ADV'
p560
F0.027585
sS'NOUN'
p561
F0.001425
sS'CONJ'
p562
F0.001705
sS'ADJ'
p563
F0.964264
sS'ADP'
p564
F0.005021
s(lp565
(g78
I8
tp566
atp567
a(S'persona'
p568
(dp569
S'NOUN'
p570
F1.0
s(lp571
(g92
I9
tp572
atp573
a(S'la'
p574
(dp575
S'PRON'
p576
F0.000887
sS'DET'
p577
F0.999113
s(lp578
(g109
I11
tp579
atp580
a(S'situazione'
p581
(dp582
S'NOUN'
p583
F1.0
s(lp584
(g116
I13
tp585
atp586
a(S'in'
p587
(dp588
S'ADP'
p589
F1.0
s(lp590
(g225
I14
tp591
atp592
a(S'pakistan'
p593
(dp594
S'ADJ'
p595
F0.303741
sS'VERB'
p596
F0.000695
sS'NOUN'
p597
F0.695564
s(lp598
(g138
I15
tp599
atp600
a(g26
(dp601
g26
F1.0
s(lp602
(g26
I16
tp603
atp604
asS'sk'
p605
(lp606
(S'minul\xc3\xbd'
p607
(dp608
S'ADJ'
p609
F1.0
s(lp610
(g21
I0
tp611
atp612
a(S'mesiac'
p613
(dp614
S'NOUN'
p615
F1.0
s(lp616
(g13
I1
tp617
atp618
a(S'som'
p619
(dp620
S'VERB'
p621
F1.0
s(lp622
(g36
I2
tp623
atp624
a(S'mala'
p625
(dp626
S'ADV'
p627
F0.000246
sS'VERB'
p628
F0.999754
s(lp629
(g48
I3
tp630
atp631
a(S'pr\xc3\xadle\xc5\xbeitos\xc5\xa5'
p632
(dp633
S'NOUN'
p634
F1.0
s(lp635
(g64
I5
tp636
atp637
a(S'osobne'
p638
(dp639
S'ADV'
p640
F1.0
s(lp641
(g92
I9
tp642
atp643
a(S'sa'
p644
(dp645
S'PRT'
p646
F0.999979
sS'ADP'
p647
F0.0
sg34
F2.1e-05
s(lp648
tp649
a(S'obozn\xc3\xa1mi\xc5\xa5'
p650
(dp651
S'VERB'
p652
F1.0
s(lp653
(g85
I7
tp654
atp655
a(S's'
p656
(dp657
g34
F0.000176
sS'CONJ'
p658
F3.6e-05
sS'NOUN'
p659
F9.999999999999999e-06
sS'ADP'
p660
F0.999752
sS'PRT'
p661
F2.7e-05
s(lp662
(g100
I10
tp663
atp664
a(S'politickou'
p665
(dp666
S'ADJ'
p667
F1.0
s(lp668
(g125
I12
tp669
atp670
a(S'situ\xc3\xa1ciou'
p671
(dp672
S'NOUN'
p673
F1.0
s(lp674
(g116
I13
tp675
atp676
a(S'v'
p677
(dp678
g34
F0.0015459999999999998
sS'ADP'
p679
F0.998454
s(lp680
(g225
I14
tp681
atp682
a(S'pakistane'
p683
(dp684
S'ADV'
p685
F0.016313
sS'ADJ'
p686
F0.273807
sS'VERB'
p687
F0.001648
sS'NOUN'
p688
F0.68435
sg34
F0.023882
s(lp689
(g138
I15
tp690
atp691
a(g26
(dp692
g26
F1.0
s(lp693
(g26
I16
tp694
atp695
asS'pl'
p696
(lp697
(S'w'
p698
(dp699
S'ADJ'
p700
F0.0
sg34
F0.0
sS'NOUN'
p701
F0.0
sS'ADP'
p702
F1.0
s(lp703
tp704
a(S'zesz\xc5\x82ym'
p705
(dp706
S'ADJ'
p707
F1.0
s(lp708
(g21
I0
tp709
atp710
a(S'miesi\xc4\x85cu'
p711
(dp712
S'NOUN'
p713
F1.0
s(lp714
(g13
I1
tp715
atp716
a(S'mia\xc5\x82am'
p717
(dp718
S'ADV'
p719
F0.000825
sS'NOUN'
p720
F0.015069
sS'VERB'
p721
F0.9478079999999999
sS'ADJ'
p722
F0.0363
s(lp723
(g48
I3
tp724
atp725
a(S'okazj\xc4\x99'
p726
(dp727
S'NOUN'
p728
F1.0
s(lp729
(g64
I5
tp730
atp731
a(S'osobi\xc5\x9bcie'
p732
(dp733
S'ADV'
p734
F1.0
s(lp735
(g92
I9
tp736
atp737
a(S'zapozna\xc4\x87'
p738
(dp739
S'VERB'
p740
F1.0
s(lp741
(g85
I7
tp742
atp743
a(S'si\xc4\x99'
p744
(dp745
S'PRT'
p746
F1.0
s(lp747
(g78
I8
tp748
atp749
a(S'z'
p750
(dp751
S'PRT'
p752
F0.00128
sS'VERB'
p753
F6e-06
sS'NOUN'
p754
F0.0
sS'ADP'
p755
F0.998714
sg34
F0.0
s(lp756
(g100
I10
tp757
atp758
a(S'polityczn\xc4\x85'
p759
(dp760
S'ADJ'
p761
F1.0
s(lp762
(g125
I12
tp763
atp764
a(S'sytuacj\xc4\x85'
p765
(dp766
S'NOUN'
p767
F1.0
s(lp768
(g116
I13
tp769
atp770
a(g698
(dp771
S'ADJ'
p772
F0.0
sg34
F0.0
sS'NOUN'
p773
F0.0
sS'ADP'
p774
F0.999999
s(lp775
(g225
I14
tp776
atp777
a(S'pakistanie'
p778
(dp779
S'ADV'
p780
F6.2e-05
sS'ADJ'
p781
F0.005784
sS'VERB'
p782
F0.017508000000000003
sS'NOUN'
p783
F0.9766410000000001
s(lp784
(g138
I15
tp785
atp786
a(g26
(dp787
g26
F1.0
s(lp788
(g26
I16
tp789
atp790
asS'sl'
p791
(lp792
(S'prej\xc5\xa1nji'
p793
(dp794
S'ADJ'
p795
F1.0
s(lp796
(g21
I0
tp797
atp798
a(S'mesec'
p799
(dp800
S'NOUN'
p801
F1.0
s(lp802
(g13
I1
tp803
atp804
a(S'sem'
p805
(dp806
S'ADV'
p807
F0.00484
sS'PRT'
p808
F0.000228
sS'VERB'
p809
F0.994933
s(lp810
(g36
I2
tp811
atp812
a(S'imela'
p813
(dp814
S'VERB'
p815
F0.999999
s(lp816
(g48
I3
tp817
atp818
a(S'prilo\xc5\xbenost'
p819
(dp820
S'NOUN'
p821
F1.0
s(lp822
(g64
I5
tp823
atp824
a(S'osebno'
p825
(dp826
S'ADV'
p827
F0.583455
sS'ADJ'
p828
F0.416545
s(lp829
(g92
I9
tp830
atp831
a(S'seznaniti'
p832
(dp833
S'VERB'
p834
F1.0
s(lp835
tp836
a(S'se'
p837
(dp838
S'PRON'
p839
F0.999935
sg34
F6.5e-05
s(lp840
(g85
I7
tp841
atp842
a(g656
(dp843
S'VERB'
p844
F1e-06
sS'NOUN'
p845
F3e-06
sS'ADP'
p846
F0.999996
s(lp847
(g100
I10
tp848
atp849
a(S'politi\xc4\x8dnimi'
p850
(dp851
S'ADJ'
p852
F1.0
s(lp853
(g125
I12
tp854
atp855
a(S'razmerami'
p856
(dp857
S'NOUN'
p858
F1.0
s(lp859
(g116
I13
tp860
atp861
a(g677
(dp862
S'ADP'
p863
F1.0
s(lp864
(g225
I14
tp865
atp866
a(S'pakistanu'
p867
(dp868
S'ADV'
p869
F2.3e-05
sS'ADJ'
p870
F9.199999999999999e-05
sS'VERB'
p871
F9e-06
sS'NOUN'
p872
F0.9998750000000001
s(lp873
(g138
I15
tp874
atp875
a(g26
(dp876
g26
F1.0
s(lp877
(g26
I16
tp878
atp879
asS'es'
p880
(lp881
(S'el'
p882
(dp883
S'PRON'
p884
F1e-05
sS'DET'
p885
F0.99999
s(lp886
tp887
a(S'mes'
p888
(dp889
S'NOUN'
p890
F1.0
s(lp891
(g13
I1
tp892
atp893
a(S'pasado'
p894
(dp895
S'VERB'
p896
F1.0
s(lp897
(g21
I0
tp898
atp899
a(S'tuve'
p900
(dp901
S'VERB'
p902
F1.0
s(lp903
(g48
I3
tp904
atp905
a(S'la'
p906
(dp907
g34
F0.0
sS'PRON'
p908
F0.0
sS'DET'
p909
F1.0
sS'NOUN'
p910
F0.0
s(lp911
(g57
I4
tp912
atp913
a(S'ocasi\xc3\xb3n'
p914
(dp915
S'NOUN'
p916
F1.0
s(lp917
(g64
I5
tp918
atp919
a(S'de'
p920
(dp921
g34
F0.000368
sS'CONJ'
p922
F0.288037
sS'ADP'
p923
F0.711596
s(lp924
(g71
I6
tp925
atp926
a(S'familiarizarme'
p927
(dp928
S'VERB'
p929
F0.852224
sS'NOUN'
p930
F0.147776
s(lp931
(g85
I7
tp932
atp933
a(S'personalmente'
p934
(dp935
S'ADV'
p936
F1.0
s(lp937
(g92
I9
tp938
atp939
a(S'con'
p940
(dp941
S'ADP'
p942
F1.0
s(lp943
(g100
I10
tp944
atp945
a(S'la'
p946
(dp947
S'NOUN'
p948
F0.0
sS'PRON'
p949
F0.0
sS'DET'
p950
F0.999999
sg34
F0.0
s(lp951
(g109
I11
tp952
atp953
a(S'situaci\xc3\xb3n'
p954
(dp955
S'NOUN'
p956
F1.0
s(lp957
(g116
I13
tp958
atp959
a(S'pol\xc3\xadtica'
p960
(dp961
S'NOUN'
p962
F0.074006
sS'ADJ'
p963
F0.925994
s(lp964
(g125
I12
tp965
atp966
a(S'en'
p967
(dp968
g34
F2.2e-05
sS'CONJ'
p969
F3.1e-05
sS'ADP'
p970
F0.999947
s(lp971
(g225
I14
tp972
atp973
a(S'pakist\xc3\xa1n'
p974
(dp975
S'ADJ'
p976
F0.015047
sS'NOUN'
p977
F0.984953
s(lp978
(g138
I15
tp979
atp980
a(g26
(dp981
g26
F1.0
s(lp982
(g26
I16
tp983
atp984
as.