(dp0
S'fr'
p1
(lp2
(S'telle'
p3
(dp4
S'PRON'
p5
F0.99981
sS'NOUN'
p6
F0.00019
s(lp7
(S'that'
p8
I0
tp9
atp10
a(S'a'
p11
(dp12
S'VERB'
p13
F1.0
s(lp14
tp15
a(S'toujours'
p16
(dp17
S'ADV'
p18
F1.0
s(lp19
(S'always'
p20
I2
tp21
atp22
a(S'\xc3\xa9t\xc3\xa9'
p23
(dp24
S'VERB'
p25
F0.999017
sS'NOUN'
p26
F0.000983
s(lp27
(S'was'
p28
I1
tp29
atp30
a(S'la'
p31
(dp32
S'PRON'
p33
F4.2e-05
sS'DET'
p34
F0.999958
sS'NOUN'
p35
F0.0
s(lp36
(S'the'
p37
I3
tp38
atp39
a(S'philosophie'
p40
(dp41
S'NOUN'
p42
F1.0
s(lp43
(S'philosophy'
p44
I5
tp45
atp46
a(S'fondamentale'
p47
(dp48
S'ADJ'
p49
F1.0
s(lp50
(S'underlying'
p51
I4
tp52
atp53
a(S'de'
p54
(dp55
S'ADP'
p56
F1.0
s(lp57
(S'in'
p58
I6
tp59
atp60
a(S"l'"
p61
(dp62
S'ADJ'
p63
F0.160704
sS'VERB'
p64
F0.06480800000000002
sS'NOUN'
p65
F0.774488
s(lp66
tp67
a(S'europe'
p68
(dp69
S'VERB'
p70
F0.022223000000000003
sS'NOUN'
p71
F0.977777
s(lp72
(S'europe'
p73
I7
tp74
atp75
a(S','
p76
(dp77
S'.'
p78
F1.0
s(lp79
(S'-'
p80
I8
tp81
atp82
a(S'y'
p83
(dp84
S'PRON'
p85
F1.0
s(lp86
tp87
a(S'compris'
p88
(dp89
S'VERB'
p90
F1.0
s(lp91
(S'too'
p92
I13
tp93
atp94
a(S"d'"
p95
(dp96
S'ADJ'
p97
F0.137687
sS'VERB'
p98
F0.6454230000000001
sS'NOUN'
p99
F0.21689
s(lp100
(S'by'
p101
I15
tp102
atp103
a(S'ailleurs'
p104
(dp105
S'ADV'
p106
F0.9957
sS'NOUN'
p107
F0.0043
s(lp108
(S'way'
p109
I17
tp110
atp111
a(S'pour'
p112
(dp113
S'CONJ'
p114
F0.129107
sS'ADP'
p115
F0.870893
s(lp116
(S'for'
p117
I9
tp118
atp119
a(S'les'
p120
(dp121
S'PRON'
p122
F0.00074
sS'DET'
p123
F0.999256
sS'ADP'
p124
F4e-06
s(lp125
(S'the'
p126
I10
tp127
atp128
a(S'd\xc3\xa9mocrates-chr\xc3\xa9tiens'
p129
(dp130
S'ADJ'
p131
F0.234378
sS'VERB'
p132
F0.0006029999999999999
sS'NOUN'
p133
F0.76502
s(lp134
(S'christian'
p135
I11
tp136
atp137
a(g78
(dp138
g78
F1.0
s(lp139
(g78
I18
tp140
atp141
asS'en'
p142
(lp143
(g8
(dp144
S'ADV'
p145
F0.025233
sS'DET'
p146
F0.974745
sS'ADP'
p147
F2.2e-05
s(lp148
(g8
I0
tp149
atp150
a(g28
(dp151
S'VERB'
p152
F1.0
s(lp153
(g28
I1
tp154
atp155
a(g20
(dp156
S'ADV'
p157
F1.0
s(lp158
(g20
I2
tp159
atp160
a(g37
(dp161
S'NOUN'
p162
F1e-06
sS'DET'
p163
F0.999999
s(lp164
(g37
I3
tp165
atp166
a(g51
(dp167
S'VERB'
p168
F0.840465
sS'ADJ'
p169
F0.159535
s(lp170
(g51
I4
tp171
atp172
a(g44
(dp173
S'NOUN'
p174
F1.0
s(lp175
(g44
I5
tp176
atp177
a(g58
(dp178
S'ADV'
p179
F0.000109
sS'PRT'
p180
F0.000197
sS'ADP'
p181
F0.999694
s(lp182
(g58
I6
tp183
atp184
a(g73
(dp185
S'ADV'
p186
F0.000659
sS'ADJ'
p187
F0.011307
sS'VERB'
p188
F3e-06
sS'NOUN'
p189
F0.988032
s(lp190
(g73
I7
tp191
atp192
a(g80
(dp193
g78
F1.0
s(lp194
(g80
I8
tp195
atp196
a(g117
(dp197
S'ADP'
p198
F1.0
s(lp199
(g117
I9
tp200
atp201
a(g126
(dp202
S'NOUN'
p203
F1e-06
sS'DET'
p204
F0.999999
s(lp205
(g126
I10
tp206
atp207
a(g135
(dp208
S'NOUN'
p209
F0.201712
sS'ADJ'
p210
F0.798288
s(lp211
(g135
I11
tp212
atp213
a(S'democrats'
p214
(dp215
S'NOUN'
p216
F1.0
s(lp217
(g214
I12
tp218
atp219
a(g92
(dp220
S'ADV'
p221
F1.0
s(lp222
(g92
I13
tp223
atp224
a(g76
(dp225
g78
F1.0
s(lp226
(g76
I14
tp227
atp228
a(g101
(dp229
S'ADV'
p230
F0.000689
sS'NOUN'
p231
F0.0
sS'ADP'
p232
F0.999311
s(lp233
(g101
I15
tp234
atp235
a(S'the'
p236
(dp237
S'NOUN'
p238
F1e-06
sS'DET'
p239
F0.999999
s(lp240
(g236
I16
tp241
atp242
a(g109
(dp243
S'ADV'
p244
F0.000187
sS'NOUN'
p245
F0.999813
s(lp246
(g109
I17
tp247
atp248
a(g78
(dp249
g78
F1.0
s(lp250
(g78
I18
tp251
atp252
asS'nl'
p253
(lp254
(S'dat'
p255
(dp256
S'PRON'
p257
F0.8257169999999999
sS'CONJ'
p258
F0.174282
s(lp259
(g8
I0
tp260
atp261
a(S'was'
p262
(dp263
S'VERB'
p264
F0.989957
sS'NOUN'
p265
F0.010043
s(lp266
(g28
I1
tp267
atp268
a(S'altijd'
p269
(dp270
S'ADV'
p271
F1.0
s(lp272
(g20
I2
tp273
atp274
a(S'de'
p275
(dp276
S'DET'
p277
F1.0
s(lp278
(g37
I3
tp279
atp280
a(S'onderliggende'
p281
(dp282
S'NOUN'
p283
F0.006177
sS'ADJ'
p284
F0.993823
s(lp285
(g51
I4
tp286
atp287
a(S'filosofie'
p288
(dp289
S'NOUN'
p290
F1.0
s(lp291
(g44
I5
tp292
atp293
a(S'in'
p294
(dp295
S'ADV'
p296
F0.00091
sS'VERB'
p297
F0.0
sS'ADP'
p298
F0.999089
s(lp299
(g58
I6
tp300
atp301
a(S'europa'
p302
(dp303
S'NOUN'
p304
F0.999999
s(lp305
(g73
I7
tp306
atp307
a(g78
(dp308
g78
F1.0
s(lp309
(g80
I8
tp310
atp311
a(S'ook'
p312
(dp313
S'ADV'
p314
F1.0
s(lp315
(g92
I13
tp316
atp317
a(S'voor'
p318
(dp319
S'ADV'
p320
F0.007758
sS'CONJ'
p321
F2.2e-05
sS'NOUN'
p322
F0.0
sS'ADP'
p323
F0.992219
s(lp324
(g117
I9
tp325
atp326
a(S'de'
p327
(dp328
S'DET'
p329
F1.0
s(lp330
(g126
I10
tp331
atp332
a(S'christendemocraten'
p333
(dp334
S'ADJ'
p335
F0.001505
sS'NOUN'
p336
F0.9984949999999999
s(lp337
(g135
I11
tp338
atp339
a(g76
(dp340
g78
F1.0
s(lp341
(g76
I14
tp342
atp343
a(S'trouwens'
p344
(dp345
S'ADV'
p346
F1.0
s(lp347
(g109
I17
tp348
atp349
a(g78
(dp350
g78
F1.0
s(lp351
(g78
I18
tp352
atp353
asS'de'
p354
(lp355
(S'das'
p356
(dp357
S'PRON'
p358
F0.99851
sS'DET'
p359
F0.001372
s(lp360
(g8
I0
tp361
atp362
a(S'war'
p363
(dp364
S'VERB'
p365
F1.0
s(lp366
(g28
I1
tp367
atp368
a(S'immer'
p369
(dp370
S'ADV'
p371
F1.0
s(lp372
(g20
I2
tp373
atp374
a(S'die'
p375
(dp376
S'PRON'
p377
F0.000193
sS'DET'
p378
F0.999804
s(lp379
(g37
I3
tp380
atp381
a(S'philosophie'
p382
(dp383
S'NOUN'
p384
F0.998413
s(lp385
(g44
I5
tp386
atp387
a(g76
(dp388
g78
F1.0
s(lp389
(g76
I14
tp390
atp391
a(S'\xc3\xbcbrigens'
p392
(dp393
S'ADV'
p394
F1.0
s(lp395
(g109
I17
tp396
atp397
a(S'auch'
p398
(dp399
S'ADV'
p400
F1.0
s(lp401
(g92
I13
tp402
atp403
a(S'der'
p404
(dp405
S'PRON'
p406
F0.000595
sS'DET'
p407
F0.999403
s(lp408
(g126
I10
tp409
atp410
a(S'christdemokraten'
p411
(dp412
S'ADJ'
p413
F0.429607
sS'NOUN'
p414
F0.559397
s(lp415
(g135
I11
tp416
atp417
a(S'in'
p418
(dp419
S'ADP'
p420
F1.0
s(lp421
(g58
I6
tp422
atp423
a(S'europa'
p424
(dp425
S'ADJ'
p426
F0.040688
sS'NOUN'
p427
F0.949795
s(lp428
(g73
I7
tp429
atp430
a(g78
(dp431
g78
F1.0
s(lp432
(g78
I18
tp433
atp434
asS'it'
p435
(lp436
(S'questa'
p437
(dp438
S'PRON'
p439
F1.0
s(lp440
(g8
I0
tp441
atp442
a(S'\xc3\xa8'
p443
(dp444
S'VERB'
p445
F1.0
s(lp446
tp447
a(S'sempre'
p448
(dp449
S'ADV'
p450
F0.999553
sS'CONJ'
p451
F0.000447
s(lp452
(g20
I2
tp453
atp454
a(S'stata'
p455
(dp456
S'VERB'
p457
F1.0
s(lp458
(g28
I1
tp459
atp460
a(S'la'
p461
(dp462
S'PRON'
p463
F1e-06
sS'DET'
p464
F0.999999
s(lp465
(g37
I3
tp466
atp467
a(S'filosofia'
p468
(dp469
S'NOUN'
p470
F1.0
s(lp471
(g44
I5
tp472
atp473
a(S'di'
p474
(dp475
S'CONJ'
p476
F4e-06
sS'ADP'
p477
F0.999996
s(lp478
tp479
a(S'base'
p480
(dp481
S'NOUN'
p482
F1.0
s(lp483
(g51
I4
tp484
atp485
a(S'in'
p486
(dp487
S'ADP'
p488
F1.0
s(lp489
(g58
I6
tp490
atp491
a(S'europa'
p492
(dp493
S'NOUN'
p494
F0.255598
sS'VERB'
p495
F0.008687
sS'ADJ'
p496
F0.735715
s(lp497
(g73
I7
tp498
atp499
a(g76
(dp500
g78
F1.0
s(lp501
(g80
I8
tp502
atp503
a(S'anche'
p504
(dp505
S'ADV'
p506
F0.999765
sS'NOUN'
p507
F0.000235
s(lp508
(g92
I13
tp509
atp510
a(S'per'
p511
(dp512
S'CONJ'
p513
F0.040171
sS'ADP'
p514
F0.959829
s(lp515
(g117
I9
tp516
atp517
a(S'i'
p518
(dp519
S'DET'
p520
F1.0
s(lp521
(g126
I10
tp522
atp523
a(S'democratici'
p524
(dp525
S'ADJ'
p526
F0.399662
sS'NOUN'
p527
F0.600338
s(lp528
(g214
I12
tp529
atp530
a(S'cristiani'
p531
(dp532
S'NOUN'
p533
F0.350415
sS'ADJ'
p534
F0.649585
s(lp535
(g135
I11
tp536
atp537
a(g76
(dp538
g78
F1.0
s(lp539
(g76
I14
tp540
atp541
a(S'tra'
p542
(dp543
S'CONJ'
p544
F0.003543
sS'ADP'
p545
F0.996457
s(lp546
(g101
I15
tp547
atp548
a(S"l'"
p549
(dp550
S'NOUN'
p551
F0.010299
sS'VERB'
p552
F0.964873
sS'ADJ'
p553
F0.024828
s(lp554
(g236
I16
tp555
atp556
a(S'altro'
p557
(dp558
S'ADV'
p559
F0.066639
sS'PRON'
p560
F0.423837
sS'ADJ'
p561
F0.486746
sS'NOUN'
p562
F0.022777
s(lp563
(g109
I17
tp564
atp565
a(g78
(dp566
g78
F1.0
s(lp567
(g78
I18
tp568
atp569
asS'sk'
p570
(lp571
(S'v\xc5\xbedy'
p572
(dp573
S'PRON'
p574
F1.0
s(lp575
(g20
I2
tp576
atp577
a(S'to'
p578
(dp579
S'PRON'
p580
F0.977899
sS'CONJ'
p581
F0.006743
sS'X'
p582
F0.015357
s(lp583
(g8
I0
tp584
atp585
a(S'bola'
p586
(dp587
S'VERB'
p588
F1.0
s(lp589
(g28
I1
tp590
atp591
a(S'z\xc3\xa1kladn\xc3\xa1'
p592
(dp593
S'ADJ'
p594
F1.0
s(lp595
(g51
I4
tp596
atp597
a(S'filozofia'
p598
(dp599
S'NOUN'
p600
F1.0
s(lp601
(g44
I5
tp602
atp603
a(S'eur\xc3\xb3py'
p604
(dp605
S'NOUN'
p606
F1.0
s(lp607
(g73
I7
tp608
atp609
a(g80
(dp610
g78
F1.0
s(lp611
(g80
I8
tp612
atp613
a(g11
(dp614
g582
F0.0014020000000000003
sS'CONJ'
p615
F0.99842
sS'NOUN'
p616
F2e-05
sS'ADP'
p617
F0.000135
sS'PRT'
p618
F2.2e-05
s(lp619
(g76
I14
tp620
atp621
a(S'to'
p622
(dp623
S'PRON'
p624
F0.967458
sS'CONJ'
p625
F0.01764
sg582
F0.014902
s(lp626
tp627
a(S'aj'
p628
(dp629
g582
F0.96401
sS'CONJ'
p630
F0.03599
s(lp631
(g92
I13
tp632
atp633
a(S'pre'
p634
(dp635
g582
F6.3e-05
sS'ADP'
p636
F0.999937
s(lp637
(g117
I9
tp638
atp639
a(S'kres\xc5\xa5ansk\xc3\xbdch'
p640
(dp641
S'ADJ'
p642
F1.0
s(lp643
(g135
I11
tp644
atp645
a(S'demokratov'
p646
(dp647
S'NOUN'
p648
F1.0
s(lp649
(g214
I12
tp650
atp651
a(g78
(dp652
g78
F1.0
s(lp653
(g78
I18
tp654
atp655
asS'pl'
p656
(lp657
(S'by\xc5\x82a'
p658
(dp659
S'VERB'
p660
F0.997572
sS'ADJ'
p661
F0.002428
s(lp662
(g28
I1
tp663
atp664
a(S'to'
p665
(dp666
S'NOUN'
p667
F0.112198
sS'ADP'
p668
F8e-06
sS'PRT'
p669
F0.296643
sg582
F1e-06
sS'CONJ'
p670
F0.098456
sS'ADJ'
p671
F0.49269500000000005
s(lp672
(g8
I0
tp673
atp674
a(S'zawsze'
p675
(dp676
S'ADV'
p677
F1.0
s(lp678
(g20
I2
tp679
atp680
a(S'podstawowa'
p681
(dp682
S'ADJ'
p683
F1.0
s(lp684
tp685
a(S'dewiza'
p686
(dp687
S'NOUN'
p688
F1.0
s(lp689
(g44
I5
tp690
atp691
a(S'w'
p692
(dp693
S'ADJ'
p694
F0.0
sg582
F0.0
sS'NOUN'
p695
F1e-06
sS'ADP'
p696
F0.999999
s(lp697
(g58
I6
tp698
atp699
a(S'europie'
p700
(dp701
S'ADV'
p702
F1.6e-05
sS'ADJ'
p703
F0.000146
sS'VERB'
p704
F1e-06
sS'NOUN'
p705
F0.9998330000000001
s(lp706
(g73
I7
tp707
atp708
a(g80
(dp709
g582
F1.1e-05
sS'NUM'
p710
F1e-06
sS'NOUN'
p711
F1.5000000000000002e-05
sg78
F0.999973
s(lp712
(g80
I8
tp713
atp714
a(S'nawiasem'
p715
(dp716
S'NOUN'
p717
F1.0
s(lp718
(g101
I15
tp719
atp720
a(S'm\xc3\xb3wi\xc4\x85c'
p721
(dp722
S'VERB'
p723
F1.0
s(lp724
(g109
I17
tp725
atp726
a(g76
(dp727
g582
F0.0
sg78
F1.0
s(lp728
(g76
I14
tp729
atp730
a(S'r\xc3\xb3wnie\xc5\xbc'
p731
(dp732
S'PRT'
p733
F0.821557
sS'CONJ'
p734
F0.178443
s(lp735
(g92
I13
tp736
atp737
a(S'dla'
p738
(dp739
S'ADP'
p740
F1.0
s(lp741
(g117
I9
tp742
atp743
a(S'chrze\xc5\x9bcija\xc5\x84skich'
p744
(dp745
S'ADJ'
p746
F0.999999
s(lp747
(g135
I11
tp748
atp749
a(S'demokrat\xc3\xb3w'
p750
(dp751
S'NOUN'
p752
F1.0
s(lp753
(g214
I12
tp754
atp755
a(g78
(dp756
g78
F1.0
s(lp757
(g78
I18
tp758
atp759
asS'sl'
p760
(lp761
(S'to'
p762
(dp763
S'PRON'
p764
F0.999937
sg582
F6.3e-05
s(lp765
(g8
I0
tp766
atp767
a(S'je'
p768
(dp769
S'PRON'
p770
F1.3e-05
sS'VERB'
p771
F0.9999870000000001
sg582
F0.0
s(lp772
tp773
a(S'bila'
p774
(dp775
S'VERB'
p776
F1.0
s(lp777
(g28
I1
tp778
atp779
a(S'vedno'
p780
(dp781
S'ADV'
p782
F1.0
s(lp783
(g20
I2
tp784
atp785
a(S'temeljna'
p786
(dp787
S'ADJ'
p788
F1.0000010000000001
s(lp789
(g51
I4
tp790
atp791
a(S'filozofija'
p792
(dp793
S'NOUN'
p794
F1.0
s(lp795
(g44
I5
tp796
atp797
a(S'v'
p798
(dp799
S'ADP'
p800
F1.0
s(lp801
(g58
I6
tp802
atp803
a(S'evropi'
p804
(dp805
S'ADV'
p806
F0.003595
sS'ADJ'
p807
F0.021526
sS'VERB'
p808
F0.007923000000000001
sS'NOUN'
p809
F0.9669570000000001
s(lp810
(g73
I7
tp811
atp812
a(g80
(dp813
g78
F1.0
s(lp814
(g80
I8
tp815
atp816
a(S'mimogrede'
p817
(dp818
S'ADV'
p819
F1.0
s(lp820
(g109
I17
tp821
atp822
a(g76
(dp823
g78
F1.0
s(lp824
(g76
I14
tp825
atp826
a(S'tudi'
p827
(dp828
S'PRT'
p829
F1.0
s(lp830
(g92
I13
tp831
atp832
a(S'za'
p833
(dp834
S'ADV'
p835
F0.000495
sg582
F1e-06
sS'ADP'
p836
F0.999504
s(lp837
(g117
I9
tp838
atp839
a(S'kr\xc5\xa1\xc4\x8danske'
p840
(dp841
S'ADJ'
p842
F0.999999
s(lp843
(g135
I11
tp844
atp845
a(S'demokrate'
p846
(dp847
S'NOUN'
p848
F1.0
s(lp849
(g214
I12
tp850
atp851
a(g78
(dp852
g78
F1.0
s(lp853
(g78
I18
tp854
atp855
asS'es'
p856
(lp857
(S'\xc3\x89sa'
p858
(dp859
S'PRON'
p860
F1.0
s(lp861
(g8
I0
tp862
atp863
a(S'fue'
p864
(dp865
S'VERB'
p866
F1.0
s(lp867
(g28
I1
tp868
atp869
a(S'siempre'
p870
(dp871
S'ADV'
p872
F1.0
s(lp873
(g20
I2
tp874
atp875
a(S'la'
p876
(dp877
S'PRON'
p878
F0.000348
sS'DET'
p879
F0.999652
sg582
F0.0
sS'NOUN'
p880
F0.0
s(lp881
(g37
I3
tp882
atp883
a(S'filosof\xc3\xada'
p884
(dp885
S'NOUN'
p886
F1.0
s(lp887
(g44
I5
tp888
atp889
a(S'subyacente'
p890
(dp891
S'ADJ'
p892
F1.0
s(lp893
(g51
I4
tp894
atp895
a(S'en'
p896
(dp897
g582
F2e-05
sS'CONJ'
p898
F3.2e-05
sS'ADP'
p899
F0.999949
s(lp900
(g58
I6
tp901
atp902
a(S'europa'
p903
(dp904
S'NOUN'
p905
F1.0
s(lp906
(g73
I7
tp907
atp908
a(S';'
p909
(dp910
g78
F1.0
s(lp911
(g80
I8
tp912
atp913
a(S'tambi\xc3\xa9n'
p914
(dp915
S'ADV'
p916
F1.0
s(lp917
(g92
I13
tp918
atp919
a(S'para'
p920
(dp921
S'CONJ'
p922
F0.004527
sS'ADP'
p923
F0.995473
s(lp924
(g117
I9
tp925
atp926
a(S'los'
p927
(dp928
S'PRON'
p929
F4e-06
sS'DET'
p930
F0.999996
s(lp931
(g126
I10
tp932
atp933
a(S'cristianodem\xc3\xb3cratas'
p934
(dp935
S'ADJ'
p936
F0.204047
sS'VERB'
p937
F0.000141
sS'NOUN'
p938
F0.795811
s(lp939
(g135
I11
tp940
atp941
a(g76
(dp942
g78
F1.0
s(lp943
(g76
I14
tp944
atp945
a(S'por'
p946
(dp947
S'ADV'
p948
F1.0
s(lp949
(g101
I15
tp950
atp951
a(S'cierto'
p952
(dp953
S'ADV'
p954
F1.0
s(lp955
(g109
I17
tp956
atp957
a(g78
(dp958
g78
F1.0
s(lp959
(g78
I18
tp960
atp961
as.