(dp0
S'fr'
p1
(lp2
(S'en'
p3
(dp4
S'PRON'
p5
F0.006872
sS'ADP'
p6
F0.993128
s(lp7
(S'in'
p8
I0
tp9
atp10
a(S'r\xc3\xa9ponse'
p11
(dp12
S'NOUN'
p13
F1.0
s(lp14
(S'response'
p15
I1
tp16
atp17
a(S'\xc3\xa0'
p18
(dp19
S'ADP'
p20
F1.0
s(lp21
(S'to'
p22
I2
tp23
atp24
a(S'ces'
p25
(dp26
S'PRON'
p27
F1.0
s(lp28
(S'these'
p29
I3
tp30
atp31
a(S'probl\xc3\xa8mes'
p32
(dp33
S'NOUN'
p34
F1.0
s(lp35
(S'problems'
p36
I4
tp37
atp38
a(S','
p39
(dp40
S'.'
p41
F1.0
s(lp42
(g39
I5
tp43
atp44
a(S'la'
p45
(dp46
S'PRON'
p47
F6.9e-05
sS'DET'
p48
F0.999931
sS'NOUN'
p49
F0.0
s(lp50
(S'the'
p51
I6
tp52
atp53
a(S'proposition'
p54
(dp55
S'NOUN'
p56
F1.0
s(lp57
(S'proposal'
p58
I7
tp59
atp60
a(S'de'
p61
(dp62
S'ADP'
p63
F1.0
s(lp64
(S'for'
p65
I8
tp66
atp67
a(S'directive'
p68
(dp69
S'NOUN'
p70
F0.386488
sS'ADJ'
p71
F0.613512
s(lp72
(S'directive'
p73
I10
tp74
atp75
a(S'pr\xc3\xa9voit'
p76
(dp77
S'VERB'
p78
F1.0
s(lp79
(S'provides'
p80
I11
tp81
atp82
a(S'de'
p83
(dp84
S'ADP'
p85
F1.0
s(lp86
(S'for'
p87
I12
tp88
atp89
a(S'simplifier'
p90
(dp91
S'VERB'
p92
F1.0
s(lp93
(S'simplified'
p94
I17
tp95
atp96
a(S'autant'
p97
(dp98
S'ADV'
p99
F1.0
s(lp100
(S'much'
p101
I19
tp102
atp103
a(S'que'
p104
(dp105
S'ADV'
p106
F0.320647
sS'PRON'
p107
F0.010131
sS'CONJ'
p108
F0.669222
s(lp109
(S'as'
p110
I20
tp111
atp112
a(S'possible'
p113
(dp114
S'NOUN'
p115
F0.025159
sS'ADJ'
p116
F0.974841
s(lp117
(S'possible'
p118
I21
tp119
atp120
a(S'les'
p121
(dp122
S'PRON'
p123
F0.000176
sS'DET'
p124
F0.999574
sS'ADP'
p125
F0.000249
s(lp126
tp127
a(S'proc\xc3\xa9dures'
p128
(dp129
S'NOUN'
p130
F1.0
s(lp131
(S'procedures'
p132
I14
tp133
atp134
a(S'administratives'
p135
(dp136
S'ADJ'
p137
F1.0
s(lp138
(S'administrative'
p139
I13
tp140
atp141
a(g39
(dp142
g41
F1.0
s(lp143
(g39
I22
tp144
atp145
a(S'par'
p146
(dp147
S'NOUN'
p148
F1e-06
sS'ADP'
p149
F0.999999
s(lp150
tp151
a(S'exemple'
p152
(dp153
S'NOUN'
p154
F1.0
s(lp155
(S'example'
p156
I24
tp157
atp158
a(S'en'
p159
(dp160
S'PRON'
p161
F0.062141
sS'ADP'
p162
F0.937859
s(lp163
(S'by'
p164
I26
tp165
atp166
a(S'limitant'
p167
(dp168
S'VERB'
p169
F0.853694
sS'ADJ'
p170
F0.146306
s(lp171
(S'limiting'
p172
I27
tp173
atp174
a(S"l'"
p175
(dp176
S'ADJ'
p177
F0.248205
sS'VERB'
p178
F0.45324300000000006
sS'NOUN'
p179
F0.298552
s(lp180
(S'the'
p181
I28
tp182
atp183
a(S'obligation'
p184
(dp185
S'NOUN'
p186
F1.0
s(lp187
(S'obligation'
p188
I29
tp189
atp190
a(S"d'"
p191
(dp192
S'NOUN'
p193
F0.032441
sS'VERB'
p194
F0.694014
sS'ADJ'
p195
F0.273544
s(lp196
(S'for'
p197
I30
tp198
atp199
a(S'autorisation'
p200
(dp201
S'NOUN'
p202
F1.0
s(lp203
(S'authorisation'
p204
I32
tp205
atp206
a(S'pr\xc3\xa9alable'
p207
(dp208
S'NOUN'
p209
F0.025667
sS'ADJ'
p210
F0.974333
s(lp211
(S'prior'
p212
I31
tp213
atp214
a(S'par'
p215
(dp216
S'NOUN'
p217
F3.9e-05
sS'ADP'
p218
F0.999961
s(lp219
(S'by'
p220
I35
tp221
atp222
a(S"l'"
p223
(dp224
S'ADJ'
p225
F0.160709
sS'VERB'
p226
F0.06483299999999999
sS'NOUN'
p227
F0.774459
s(lp228
(S'the'
p229
I36
tp230
atp231
a(S'organisme'
p232
(dp233
S'NOUN'
p234
F1.0
s(lp235
(S'body'
p236
I39
tp237
atp238
a(S'national'
p239
(dp240
S'NOUN'
p241
F0.007478
sS'ADJ'
p242
F0.992522
s(lp243
(S'national'
p244
I37
tp245
atp246
a(S'des'
p247
(dp248
S'DET'
p249
F2.2e-05
sS'ADP'
p250
F0.999978
s(lp251
(S'healthcare'
p252
I38
tp253
atp254
a(S'soins'
p255
(dp256
S'NOUN'
p257
F1.0
s(lp258
(g252
I38
tp259
atp260
a(S'de'
p261
(dp262
S'ADP'
p263
F1.0
s(lp264
tp265
a(S'sant\xc3\xa9'
p266
(dp267
S'NOUN'
p268
F1.0
s(lp269
(g252
I38
tp270
atp271
a(S'et'
p272
(dp273
S'CONJ'
p274
F1.0
s(lp275
(S'and'
p276
I41
tp277
atp278
a(S'en'
p279
(dp280
S'PRON'
p281
F0.741881
sS'ADP'
p282
F0.258119
s(lp283
(S'by'
p284
I42
tp285
atp286
a(S'garantissant'
p287
(dp288
S'VERB'
p289
F1.0
s(lp290
(S'ensuring'
p291
I43
tp292
atp293
a(S'un'
p294
(dp295
S'NOUN'
p296
F0.001462
sS'NUM'
p297
F0.005382
sS'DET'
p298
F0.993156
s(lp299
tp300
a(S'meilleur'
p301
(dp302
S'ADJ'
p303
F1.0
s(lp304
(S'better'
p305
I44
tp306
atp307
a(S'\xc3\xa9change'
p308
(dp309
S'VERB'
p310
F0.308343
sS'NOUN'
p311
F0.691656
s(lp312
(S'exchange'
p313
I45
tp314
atp315
a(S'de'
p316
(dp317
S'ADP'
p318
F1.0
s(lp319
(S'of'
p320
I46
tp321
atp322
a(S"l'"
p323
(dp324
S'ADJ'
p325
F0.160704
sS'VERB'
p326
F0.06480800000000002
sS'NOUN'
p327
F0.774488
s(lp328
tp329
a(S'information'
p330
(dp331
S'NOUN'
p332
F1.0
s(lp333
(S'information'
p334
I47
tp335
atp336
a(S'concernant'
p337
(dp338
S'VERB'
p339
F0.781809
sS'ADP'
p340
F0.218191
s(lp341
(S'on'
p342
I48
tp343
atp344
a(S'les'
p345
(dp346
S'PRON'
p347
F1.4e-05
sS'DET'
p348
F0.999969
sS'ADP'
p349
F1.7e-05
s(lp350
tp351
a(S'services'
p352
(dp353
S'NOUN'
p354
F1.0
s(lp355
(S'services'
p356
I50
tp357
atp358
a(S'm\xc3\xa9dicaux'
p359
(dp360
S'ADJ'
p361
F1.0
s(lp362
(S'medical'
p363
I49
tp364
atp365
a(S'dans'
p366
(dp367
S'NOUN'
p368
F0.001714
sS'ADP'
p369
F0.998286
s(lp370
(S'in'
p371
I51
tp372
atp373
a(S"d'"
p374
(dp375
S'ADJ'
p376
F0.160898
sS'VERB'
p377
F0.065885
sS'NOUN'
p378
F0.773216
s(lp379
tp380
a(S'autres'
p381
(dp382
S'ADJ'
p383
F1.0
s(lp384
(S'other'
p385
I52
tp386
atp387
a(S'pays'
p388
(dp389
S'NOUN'
p390
F1.0
s(lp391
(S'countries'
p392
I53
tp393
atp394
a(g39
(dp395
g41
F1.0
s(lp396
tp397
a(S'gr\xc3\xa2ce'
p398
(dp399
S'NOUN'
p400
F1.0
s(lp401
tp402
a(S'\xc3\xa0'
p403
(dp404
S'ADP'
p405
F1.0
s(lp406
(S'by'
p407
I54
tp408
atp409
a(S'la'
p410
(dp411
S'PRON'
p412
F1.2e-05
sS'DET'
p413
F0.999988
sS'NOUN'
p414
F0.0
s(lp415
tp416
a(S'cr\xc3\xa9ation'
p417
(dp418
S'NOUN'
p419
F1.0
s(lp420
(S'setting'
p421
I55
tp422
atp423
a(S'de'
p424
(dp425
S'ADP'
p426
F1.0
s(lp427
tp428
a(S'points'
p429
(dp430
S'VERB'
p431
F4.6e-05
sS'NOUN'
p432
F0.999954
s(lp433
(S'points'
p434
I59
tp435
atp436
a(S'de'
p437
(dp438
S'ADP'
p439
F1.0
s(lp440
(S'up'
p441
I56
tp442
atp443
a(S'contact'
p444
(dp445
S'NOUN'
p446
F1.0
s(lp447
(S'contact'
p448
I58
tp449
atp450
a(S'nationaux'
p451
(dp452
S'NOUN'
p453
F0.012852
sS'ADJ'
p454
F0.987148
s(lp455
(S'national'
p456
I57
tp457
atp458
a(g41
(dp459
g41
F1.0
s(lp460
(g41
I60
tp461
atp462
asS'en'
p463
(lp464
(g8
(dp465
S'ADV'
p466
F0.000791
sS'PRT'
p467
F0.0
sS'ADP'
p468
F0.999209
s(lp469
(g8
I0
tp470
atp471
a(g15
(dp472
S'NOUN'
p473
F1.0
s(lp474
(g15
I1
tp475
atp476
a(g22
(dp477
S'ADV'
p478
F1e-06
sS'PRT'
p479
F0.999989
sS'ADP'
p480
F1.1e-05
s(lp481
(g22
I2
tp482
atp483
a(g29
(dp484
S'NOUN'
p485
F3e-06
sS'DET'
p486
F0.999997
s(lp487
(g29
I3
tp488
atp489
a(g36
(dp490
S'NOUN'
p491
F1.0
s(lp492
(g36
I4
tp493
atp494
a(g39
(dp495
g41
F1.0
s(lp496
(g39
I5
tp497
atp498
a(g51
(dp499
S'NOUN'
p500
F4e-06
sS'DET'
p501
F0.999996
s(lp502
(g51
I6
tp503
atp504
a(g58
(dp505
S'NOUN'
p506
F1.0
s(lp507
(g58
I7
tp508
atp509
a(g65
(dp510
S'ADP'
p511
F1.0
s(lp512
(g65
I8
tp513
atp514
a(S'a'
p515
(dp516
S'NOUN'
p517
F0.0
sS'DET'
p518
F1.0
s(lp519
(g515
I9
tp520
atp521
a(g73
(dp522
S'ADJ'
p523
F0.003037
sS'NOUN'
p524
F0.996963
s(lp525
(g73
I10
tp526
atp527
a(g80
(dp528
S'VERB'
p529
F1.0
s(lp530
(g80
I11
tp531
atp532
a(g87
(dp533
S'ADP'
p534
F1.0
s(lp535
(g87
I12
tp536
atp537
a(g139
(dp538
S'ADJ'
p539
F1.0
s(lp540
(g139
I13
tp541
atp542
a(g132
(dp543
S'NOUN'
p544
F1.0
s(lp545
(g132
I14
tp546
atp547
a(S'to'
p548
(dp549
S'ADV'
p550
F0.0
sS'PRT'
p551
F1.0
sS'ADP'
p552
F0.0
s(lp553
(g548
I15
tp554
atp555
a(S'be'
p556
(dp557
S'VERB'
p558
F1.0
s(lp559
(g556
I16
tp560
atp561
a(g94
(dp562
S'VERB'
p563
F1.0
s(lp564
(g94
I17
tp565
atp566
a(S'as'
p567
(dp568
S'ADV'
p569
F0.188543
sS'ADP'
p570
F0.811457
s(lp571
(g567
I18
tp572
atp573
a(g101
(dp574
S'ADV'
p575
F0.638059
sS'ADJ'
p576
F0.361941
s(lp577
(g101
I19
tp578
atp579
a(g110
(dp580
S'ADV'
p581
F0.185055
sS'ADP'
p582
F0.814945
s(lp583
(g110
I20
tp584
atp585
a(g118
(dp586
S'ADV'
p587
F0.028766
sS'NOUN'
p588
F0.002434
sS'ADJ'
p589
F0.968799
s(lp590
(g118
I21
tp591
atp592
a(g39
(dp593
g41
F1.0
s(lp594
(g39
I22
tp595
atp596
a(S'for'
p597
(dp598
S'ADP'
p599
F1.0
s(lp600
(g597
I23
tp601
atp602
a(g156
(dp603
S'NOUN'
p604
F1.0
s(lp605
(g156
I24
tp606
atp607
a(g39
(dp608
g41
F1.0
s(lp609
(g39
I25
tp610
atp611
a(g164
(dp612
S'ADV'
p613
F0.001633
sS'NOUN'
p614
F0.0
sS'ADP'
p615
F0.998367
s(lp616
(g164
I26
tp617
atp618
a(g172
(dp619
S'VERB'
p620
F1.0
s(lp621
(g172
I27
tp622
atp623
a(g181
(dp624
S'NOUN'
p625
F1e-06
sS'DET'
p626
F0.999999
s(lp627
(g181
I28
tp628
atp629
a(g188
(dp630
S'NOUN'
p631
F1.0
s(lp632
(g188
I29
tp633
atp634
a(g197
(dp635
S'ADP'
p636
F1.0
s(lp637
(g197
I30
tp638
atp639
a(g212
(dp640
S'ADV'
p641
F0.033094
sS'NOUN'
p642
F0.002053
sS'ADJ'
p643
F0.964853
s(lp644
(g212
I31
tp645
atp646
a(g204
(dp647
S'NOUN'
p648
F1.0
s(lp649
(g204
I32
tp650
atp651
a(S'of'
p652
(dp653
S'ADP'
p654
F1.0
s(lp655
(g652
I33
tp656
atp657
a(S'treatment'
p658
(dp659
S'NOUN'
p660
F1.0
s(lp661
(g658
I34
tp662
atp663
a(g220
(dp664
S'ADV'
p665
F7.2e-05
sS'NOUN'
p666
F0.0
sS'ADP'
p667
F0.999928
s(lp668
(g220
I35
tp669
atp670
a(g229
(dp671
S'NOUN'
p672
F1e-06
sS'DET'
p673
F0.999999
s(lp674
(g229
I36
tp675
atp676
a(g244
(dp677
S'NOUN'
p678
F0.000366
sS'ADJ'
p679
F0.999634
s(lp680
(g244
I37
tp681
atp682
a(g252
(dp683
S'NOUN'
p684
F1.0
s(lp685
(g252
I38
tp686
atp687
a(g236
(dp688
S'VERB'
p689
F0.000258
sS'NOUN'
p690
F0.999742
s(lp691
(g236
I39
tp692
atp693
a(g39
(dp694
g41
F1.0
s(lp695
(g39
I40
tp696
atp697
a(g276
(dp698
S'CONJ'
p699
F0.999991
sS'NOUN'
p700
F9e-06
s(lp701
(g276
I41
tp702
atp703
a(g284
(dp704
S'ADV'
p705
F0.001797
sS'NOUN'
p706
F1e-06
sS'ADP'
p707
F0.998202
s(lp708
(g284
I42
tp709
atp710
a(g291
(dp711
S'VERB'
p712
F1.0
s(lp713
(g291
I43
tp714
atp715
a(g305
(dp716
S'ADV'
p717
F0.018729
sS'NOUN'
p718
F5.1e-05
sS'VERB'
p719
F2.6000000000000002e-05
sS'ADJ'
p720
F0.981195
s(lp721
(g305
I44
tp722
atp723
a(g313
(dp724
S'VERB'
p725
F0.000137
sS'NOUN'
p726
F0.999863
s(lp727
(g313
I45
tp728
atp729
a(g320
(dp730
S'ADP'
p731
F1.0
s(lp732
(g320
I46
tp733
atp734
a(g334
(dp735
S'NOUN'
p736
F1.0
s(lp737
(g334
I47
tp738
atp739
a(g342
(dp740
S'ADV'
p741
F0.001649
sS'PRT'
p742
F0.000484
sS'ADJ'
p743
F1e-06
sS'ADP'
p744
F0.997866
sS'NOUN'
p745
F0.0
s(lp746
(g342
I48
tp747
atp748
a(g363
(dp749
S'ADJ'
p750
F1.0
s(lp751
(g363
I49
tp752
atp753
a(g356
(dp754
S'VERB'
p755
F7e-06
sS'NOUN'
p756
F0.999993
s(lp757
(g356
I50
tp758
atp759
a(g371
(dp760
S'ADV'
p761
F0.000996
sS'PRT'
p762
F0.000216
sS'ADP'
p763
F0.998788
s(lp764
(g371
I51
tp765
atp766
a(g385
(dp767
S'ADV'
p768
F1e-06
sS'NOUN'
p769
F1.9e-05
sS'ADJ'
p770
F0.99998
s(lp771
(g385
I52
tp772
atp773
a(g392
(dp774
S'NOUN'
p775
F1.0
s(lp776
(g392
I53
tp777
atp778
a(g407
(dp779
S'ADV'
p780
F0.00026
sS'NOUN'
p781
F0.0
sS'ADP'
p782
F0.99974
s(lp783
(g407
I54
tp784
atp785
a(g421
(dp786
S'VERB'
p787
F0.978366
sS'NOUN'
p788
F0.021634
s(lp789
(g421
I55
tp790
atp791
a(g441
(dp792
S'ADV'
p793
F0.285118
sS'PRT'
p794
F0.613979
sS'NOUN'
p795
F2e-06
sS'ADP'
p796
F0.100902
s(lp797
(g441
I56
tp798
atp799
a(g456
(dp800
S'NOUN'
p801
F0.000137
sS'ADJ'
p802
F0.999863
s(lp803
(g456
I57
tp804
atp805
a(g448
(dp806
S'VERB'
p807
F8.6e-05
sS'NOUN'
p808
F0.999914
s(lp809
(g448
I58
tp810
atp811
a(g434
(dp812
S'VERB'
p813
F0.01131
sS'NOUN'
p814
F0.98869
s(lp815
(g434
I59
tp816
atp817
a(g41
(dp818
g41
F1.0
s(lp819
(g41
I60
tp820
atp821
asS'nl'
p822
(lp823
(S'in'
p824
(dp825
S'ADV'
p826
F0.009341
sS'VERB'
p827
F1e-06
sS'ADP'
p828
F0.990658
s(lp829
(g8
I0
tp830
atp831
a(S'het'
p832
(dp833
S'PRON'
p834
F0.000937
sS'DET'
p835
F0.999063
s(lp836
(g51
I6
tp837
atp838
a(S'voorstel'
p839
(dp840
S'VERB'
p841
F2e-06
sS'NOUN'
p842
F0.999998
s(lp843
(g58
I7
tp844
atp845
a(S'voor'
p846
(dp847
S'ADV'
p848
F0.001935
sS'CONJ'
p849
F3e-06
sS'NOUN'
p850
F0.0
sS'ADP'
p851
F0.998062
s(lp852
(g65
I8
tp853
atp854
a(S'de'
p855
(dp856
S'DET'
p857
F1.0
s(lp858
(g515
I9
tp859
atp860
a(S'richtlijn'
p861
(dp862
S'NOUN'
p863
F1.0
s(lp864
(g73
I10
tp865
atp866
a(g39
(dp867
g41
F1.0
s(lp868
tp869
a(S'dat'
p870
(dp871
S'PRON'
p872
F0.10628199999999999
sS'CONJ'
p873
F0.893717
s(lp874
tp875
a(S'erop'
p876
(dp877
S'ADV'
p878
F1.0
s(lp879
(g80
I11
tp880
atp881
a(S'gericht'
p882
(dp883
S'NOUN'
p884
F0.000346
sS'VERB'
p885
F0.991456
sS'ADJ'
p886
F0.008198
s(lp887
(g80
I11
tp888
atp889
a(S'is'
p890
(dp891
S'VERB'
p892
F1.0
s(lp893
(g80
I11
tp894
atp895
a(S'de'
p896
(dp897
S'DET'
p898
F1.0
s(lp899
(g181
I28
tp900
atp901
a(S'eerder'
p902
(dp903
S'ADV'
p904
F0.000596
sS'ADJ'
p905
F0.999404
s(lp906
(g212
I31
tp907
atp908
a(S'genoemde'
p909
(dp910
S'NOUN'
p911
F0.0
sS'VERB'
p912
F7.1e-05
sS'ADJ'
p913
F0.999928
s(lp914
(g29
I3
tp915
atp916
a(S'problemen'
p917
(dp918
S'NOUN'
p919
F1.0
s(lp920
tp921
a(S'op'
p922
(dp923
S'ADV'
p924
F0.996267
sS'ADJ'
p925
F1.8e-05
sS'ADP'
p926
F0.003715
s(lp927
(g15
I1
tp928
atp929
a(S'te'
p930
(dp931
S'PRT'
p932
F1.0
s(lp933
(g22
I2
tp934
atp935
a(S'lossen'
p936
(dp937
S'VERB'
p938
F1.0
sS'NOUN'
p939
F0.0
s(lp940
(g36
I4
tp941
atp942
a(g39
(dp943
g41
F1.0
s(lp944
(g39
I5
tp945
atp946
a(S'wordt'
p947
(dp948
S'VERB'
p949
F1.0
s(lp950
(g80
I11
tp951
atp952
a(S'ervoor'
p953
(dp954
S'ADV'
p955
F1.0
s(lp956
(g80
I11
tp957
atp958
a(S'gepleit'
p959
(dp960
S'VERB'
p961
F1.0
s(lp962
tp963
a(S'om'
p964
(dp965
S'ADV'
p966
F5e-05
sS'CONJ'
p967
F0.554663
sS'ADP'
p968
F0.445287
s(lp969
(g87
I12
tp970
atp971
a(S'de'
p972
(dp973
S'DET'
p974
F1.0
s(lp975
tp976
a(S'administratieve'
p977
(dp978
S'NOUN'
p979
F1e-06
sS'ADJ'
p980
F0.999999
s(lp981
(g139
I13
tp982
atp983
a(S'procedures'
p984
(dp985
S'NOUN'
p986
F1.0
s(lp987
(g132
I14
tp988
atp989
a(S'zoveel'
p990
(dp991
S'ADV'
p992
F0.018267
sS'NUM'
p993
F0.981733
s(lp994
(g101
I19
tp995
atp996
a(S'mogelijk'
p997
(dp998
S'ADJ'
p999
F1.0
s(lp1000
(g118
I21
tp1001
atp1002
a(S'te'
p1003
(dp1004
S'PRT'
p1005
F1.0
s(lp1006
(g548
I15
tp1007
atp1008
a(S'vereenvoudigen'
p1009
(dp1010
S'VERB'
p1011
F0.9999990000000001
sS'NOUN'
p1012
F1e-06
s(lp1013
(g94
I17
tp1014
atp1015
a(g39
(dp1016
g41
F1.0
s(lp1017
(g39
I22
tp1018
atp1019
a(S'bijvoorbeeld'
p1020
(dp1021
S'ADV'
p1022
F1.0
s(lp1023
(g156
I24
tp1024
atp1025
a(S'door'
p1026
(dp1027
S'ADV'
p1028
F2e-06
sS'CONJ'
p1029
F3.6e-05
sS'ADP'
p1030
F0.999962
s(lp1031
(g164
I26
tp1032
atp1033
a(S'inperking'
p1034
(dp1035
S'NOUN'
p1036
F1.0
s(lp1037
(g172
I27
tp1038
atp1039
a(S'van'
p1040
(dp1041
S'ADP'
p1042
F1.0
s(lp1043
(g597
I23
tp1044
atp1045
a(S'het'
p1046
(dp1047
S'PRON'
p1048
F0.000927
sS'DET'
p1049
F0.999073
s(lp1050
tp1051
a(S'aantal'
p1052
(dp1053
S'NOUN'
p1054
F1.0
s(lp1055
(g172
I27
tp1056
atp1057
a(S'gevallen'
p1058
(dp1059
S'ADJ'
p1060
F3e-06
sS'VERB'
p1061
F0.411663
sS'NOUN'
p1062
F0.588334
s(lp1063
(g212
I31
tp1064
atp1065
a(S'waarin'
p1066
(dp1067
S'ADV'
p1068
F1.0
s(lp1069
(g220
I35
tp1070
atp1071
a(S'de'
p1072
(dp1073
S'DET'
p1074
F1.0
s(lp1075
(g229
I36
tp1076
atp1077
a(S'nationale'
p1078
(dp1079
S'NOUN'
p1080
F0.000732
sS'ADJ'
p1081
F0.999268
s(lp1082
(g244
I37
tp1083
atp1084
a(S'zorginstelling'
p1085
(dp1086
S'ADJ'
p1087
F0.000466
sS'NOUN'
p1088
F0.999534
s(lp1089
(g252
I38
tp1090
atp1091
a(S'voorafgaande'
p1092
(dp1093
S'NOUN'
p1094
F0.0
sS'VERB'
p1095
F0.917233
sS'ADJ'
p1096
F0.082767
s(lp1097
tp1098
a(S'toestemming'
p1099
(dp1100
S'NOUN'
p1101
F1.0
s(lp1102
(g212
I31
tp1103
atp1104
a(S'moet'
p1105
(dp1106
S'VERB'
p1107
F1.0
s(lp1108
(g236
I39
tp1109
atp1110
a(S'geven'
p1111
(dp1112
S'VERB'
p1113
F0.999875
sS'NOUN'
p1114
F0.000126
s(lp1115
(g204
I32
tp1116
atp1117
a(S'voor'
p1118
(dp1119
S'ADV'
p1120
F0.000558
sS'CONJ'
p1121
F3.4e-05
sS'NOUN'
p1122
F0.0
sS'ADP'
p1123
F0.999408
s(lp1124
(g652
I33
tp1125
atp1126
a(S'de'
p1127
(dp1128
S'DET'
p1129
F1.0
s(lp1130
tp1131
a(S'behandeling'
p1132
(dp1133
S'NOUN'
p1134
F1.0
s(lp1135
(g658
I34
tp1136
atp1137
a(g39
(dp1138
g41
F1.0
s(lp1139
(g39
I40
tp1140
atp1141
a(S'alsmede'
p1142
(dp1143
S'CONJ'
p1144
F1.0
s(lp1145
(g276
I41
tp1146
atp1147
a(S'door'
p1148
(dp1149
S'ADV'
p1150
F3e-06
sS'CONJ'
p1151
F3.4e-05
sS'ADP'
p1152
F0.999963
s(lp1153
(g284
I42
tp1154
atp1155
a(S'het'
p1156
(dp1157
S'PRON'
p1158
F0.010778
sS'DET'
p1159
F0.989221
s(lp1160
tp1161
a(S'verzekeren'
p1162
(dp1163
S'VERB'
p1164
F0.009864000000000001
sS'NOUN'
p1165
F0.990136
s(lp1166
(g291
I43
tp1167
atp1168
a(S'van'
p1169
(dp1170
S'ADP'
p1171
F1.0
s(lp1172
tp1173
a(S'een'
p1174
(dp1175
S'ADJ'
p1176
F1e-06
sS'PRON'
p1177
F0.00052
sS'NUM'
p1178
F1e-06
sS'DET'
p1179
F0.999479
s(lp1180
(g80
I11
tp1181
atp1182
a(S'betere'
p1183
(dp1184
S'NOUN'
p1185
F0.006174
sS'ADJ'
p1186
F0.993826
s(lp1187
(g305
I44
tp1188
atp1189
a(S'uitwisseling'
p1190
(dp1191
S'NOUN'
p1192
F1.0
s(lp1193
(g313
I45
tp1194
atp1195
a(S'van'
p1196
(dp1197
S'ADP'
p1198
F1.0
s(lp1199
(g320
I46
tp1200
atp1201
a(S'informatie'
p1202
(dp1203
S'NOUN'
p1204
F1.0
s(lp1205
(g334
I47
tp1206
atp1207
a(S'over'
p1208
(dp1209
S'ADV'
p1210
F0.180196
sS'ADP'
p1211
F0.819804
s(lp1212
(g342
I48
tp1213
atp1214
a(S'medische'
p1215
(dp1216
S'NOUN'
p1217
F1e-06
sS'ADJ'
p1218
F0.999999
s(lp1219
(g363
I49
tp1220
atp1221
a(S'diensten'
p1222
(dp1223
S'NOUN'
p1224
F1.0
s(lp1225
(g356
I50
tp1226
atp1227
a(S'in'
p1228
(dp1229
S'ADV'
p1230
F0.046023
sS'VERB'
p1231
F6e-06
sS'ADP'
p1232
F0.953971
s(lp1233
(g371
I51
tp1234
atp1235
a(S'andere'
p1236
(dp1237
S'NOUN'
p1238
F0.009739
sS'ADJ'
p1239
F0.990261
s(lp1240
(g385
I52
tp1241
atp1242
a(S'landen'
p1243
(dp1244
S'VERB'
p1245
F0.022095
sS'NOUN'
p1246
F0.9779049999999999
s(lp1247
(g392
I53
tp1248
atp1249
a(S'door'
p1250
(dp1251
S'ADV'
p1252
F1e-06
sS'CONJ'
p1253
F2.6e-05
sS'ADP'
p1254
F0.999972
s(lp1255
(g407
I54
tp1256
atp1257
a(S'de'
p1258
(dp1259
S'DET'
p1260
F1.0
s(lp1261
tp1262
a(S'oprichting'
p1263
(dp1264
S'NOUN'
p1265
F1.0
s(lp1266
(g421
I55
tp1267
atp1268
a(S'van'
p1269
(dp1270
S'ADP'
p1271
F1.0
s(lp1272
(g441
I56
tp1273
atp1274
a(S'nationale'
p1275
(dp1276
S'NOUN'
p1277
F3.2e-05
sS'ADJ'
p1278
F0.999968
s(lp1279
(g456
I57
tp1280
atp1281
a(S'contactpunten'
p1282
(dp1283
S'NOUN'
p1284
F1.0
s(lp1285
(g448
I58
tp1286
atp1287
a(g41
(dp1288
g41
F1.0
s(lp1289
(g41
I60
tp1290
atp1291
asS'de'
p1292
(lp1293
(S'um'
p1294
(dp1295
S'CONJ'
p1296
F0.072372
sS'ADP'
p1297
F0.927541
s(lp1298
(g22
I2
tp1299
atp1300
a(S'diese'
p1301
(dp1302
S'PRON'
p1303
F1.0
s(lp1304
(g29
I3
tp1305
atp1306
a(S'probleme'
p1307
(dp1308
S'ADJ'
p1309
F0.027599
sS'NOUN'
p1310
F0.971699
s(lp1311
tp1312
a(S'anzugehen'
p1313
(dp1314
S'VERB'
p1315
F1.0
s(lp1316
(g36
I4
tp1317
atp1318
a(g39
(dp1319
g41
F1.0
s(lp1320
(g39
I5
tp1321
atp1322
a(S'soll'
p1323
(dp1324
S'VERB'
p1325
F1.0
s(lp1326
(g80
I11
tp1327
atp1328
a(S'der'
p1329
(dp1330
S'PRON'
p1331
F0.0001
sS'DET'
p1332
F0.999897
s(lp1333
(g51
I6
tp1334
atp1335
a(S'richtlinienvorschlag'
p1336
(dp1337
S'ADJ'
p1338
F9.3e-05
sS'NOUN'
p1339
F0.999844
s(lp1340
(g58
I7
tp1341
atp1342
a(S'die'
p1343
(dp1344
S'PRON'
p1345
F0.000281
sS'DET'
p1346
F0.999696
s(lp1347
(g87
I12
tp1348
atp1349
a(S'administrativen'
p1350
(dp1351
S'ADJ'
p1352
F1.0
s(lp1353
(g139
I13
tp1354
atp1355
a(S'verfahren'
p1356
(dp1357
S'VERB'
p1358
F0.9566610000000001
s(lp1359
(g132
I14
tp1360
atp1361
a(S'so'
p1362
(dp1363
S'ADV'
p1364
F0.999992
sS'PRON'
p1365
F8e-06
s(lp1366
(g567
I18
tp1367
atp1368
a(S'weit'
p1369
(dp1370
S'PRT'
p1371
F0.001282
sS'ADJ'
p1372
F0.998718
s(lp1373
(g101
I19
tp1374
atp1375
a(S'wie'
p1376
(dp1377
S'CONJ'
p1378
F1.0
s(lp1379
(g110
I20
tp1380
atp1381
a(S'm\xc3\xb6glich'
p1382
(dp1383
S'ADJ'
p1384
F1.0
s(lp1385
(g118
I21
tp1386
atp1387
a(S'vereinfachen'
p1388
(dp1389
S'VERB'
p1390
F1.0
s(lp1391
(g94
I17
tp1392
atp1393
a(g39
(dp1394
g41
F1.0
s(lp1395
(g39
I22
tp1396
atp1397
a(S'beispielsweise'
p1398
(dp1399
S'ADV'
p1400
F0.999971
sS'ADJ'
p1401
F2.9e-05
s(lp1402
(g156
I24
tp1403
atp1404
a(S'durch'
p1405
(dp1406
S'PRT'
p1407
F0.000255
sS'ADP'
p1408
F0.99958
s(lp1409
(g164
I26
tp1410
atp1411
a(S'eine'
p1412
(dp1413
S'NUM'
p1414
F0.000437
sS'DET'
p1415
F0.999361
s(lp1416
tp1417
a(S'beschr\xc3\xa4nkung'
p1418
(dp1419
S'ADJ'
p1420
F9.3e-05
sS'NOUN'
p1421
F0.999804
s(lp1422
(g172
I27
tp1423
atp1424
a(S'der'
p1425
(dp1426
S'PRON'
p1427
F2.2e-05
sS'DET'
p1428
F0.99997
s(lp1429
(g181
I28
tp1430
atp1431
a(S'verpflichtung'
p1432
(dp1433
S'ADJ'
p1434
F0.001273
sS'NOUN'
p1435
F0.998512
s(lp1436
(g188
I29
tp1437
atp1438
a(g39
(dp1439
g41
F1.0
s(lp1440
tp1441
a(S'eine'
p1442
(dp1443
S'PRON'
p1444
F0.000437
sS'DET'
p1445
F0.999311
s(lp1446
(g212
I31
tp1447
atp1448
a(S'vorabgenehmigung'
p1449
(dp1450
S'ADJ'
p1451
F0.000134
sS'NOUN'
p1452
F0.999689
s(lp1453
(g204
I32
tp1454
atp1455
a(S'von'
p1456
(dp1457
S'NOUN'
p1458
F0.000181
sS'ADP'
p1459
F0.999819
s(lp1460
(g220
I35
tp1461
atp1462
a(S'der'
p1463
(dp1464
S'PRON'
p1465
F6.7e-05
sS'DET'
p1466
F0.999928
s(lp1467
(g229
I36
tp1468
atp1469
a(S'nationalen'
p1470
(dp1471
S'ADJ'
p1472
F1.0
s(lp1473
(g244
I37
tp1474
atp1475
a(S'gesundheitsbeh\xc3\xb6rde'
p1476
(dp1477
S'ADJ'
p1478
F1.1e-05
sS'NOUN'
p1479
F0.999985
s(lp1480
(g252
I38
tp1481
atp1482
a(S'einzuholen'
p1483
(dp1484
S'VERB'
p1485
F1.0
s(lp1486
(g236
I39
tp1487
atp1488
a(g39
(dp1489
g41
F1.0
s(lp1490
(g39
I40
tp1491
atp1492
a(S'oder'
p1493
(dp1494
S'CONJ'
p1495
F1.0
s(lp1496
(g276
I41
tp1497
atp1498
a(S'durch'
p1499
(dp1500
S'ADV'
p1501
F0.00023
sS'ADP'
p1502
F0.99977
s(lp1503
(g284
I42
tp1504
atp1505
a(S'die'
p1506
(dp1507
S'PRON'
p1508
F5.2e-05
sS'DET'
p1509
F0.999933
s(lp1510
(g291
I43
tp1511
atp1512
a(S'gew\xc3\xa4hrleistung'
p1513
(dp1514
S'ADJ'
p1515
F9.6e-05
sS'NOUN'
p1516
F0.999843
s(lp1517
tp1518
a(S'eines'
p1519
(dp1520
S'PRON'
p1521
F0.002407
sS'DET'
p1522
F0.997142
s(lp1523
(g291
I43
tp1524
atp1525
a(S'besseren'
p1526
(dp1527
S'ADJ'
p1528
F1.0
s(lp1529
(g305
I44
tp1530
atp1531
a(S'informationsaustausches'
p1532
(dp1533
S'ADJ'
p1534
F1.0
s(lp1535
(g313
I45
tp1536
atp1537
a(S'\xc3\xbcber'
p1538
(dp1539
S'PRT'
p1540
F1.7e-05
sS'ADP'
p1541
F0.999983
s(lp1542
(g342
I48
tp1543
atp1544
a(S'medizinische'
p1545
(dp1546
S'ADJ'
p1547
F1.0
s(lp1548
(g363
I49
tp1549
atp1550
a(S'leistungen'
p1551
(dp1552
S'ADJ'
p1553
F0.002397
sS'NOUN'
p1554
F0.995359
s(lp1555
(g356
I50
tp1556
atp1557
a(S'in'
p1558
(dp1559
S'ADP'
p1560
F1.0
s(lp1561
(g371
I51
tp1562
atp1563
a(S'anderen'
p1564
(dp1565
S'PRON'
p1566
F1.0
s(lp1567
(g385
I52
tp1568
atp1569
a(S'l\xc3\xa4ndern'
p1570
(dp1571
S'NOUN'
p1572
F0.097348
sS'ADJ'
p1573
F0.841458
s(lp1574
(g392
I53
tp1575
atp1576
a(S'durch'
p1577
(dp1578
S'PRT'
p1579
F0.000732
sS'ADP'
p1580
F0.999209
s(lp1581
(g407
I54
tp1582
atp1583
a(S'die'
p1584
(dp1585
S'PRON'
p1586
F0.000531
sS'DET'
p1587
F0.999403
s(lp1588
tp1589
a(S'einrichtung'
p1590
(dp1591
S'ADJ'
p1592
F0.020661
sS'NOUN'
p1593
F0.978627
s(lp1594
(g421
I55
tp1595
atp1596
a(S'nationaler'
p1597
(dp1598
S'ADJ'
p1599
F1.0
s(lp1600
(g456
I57
tp1601
atp1602
a(S'kontaktstellen'
p1603
(dp1604
S'VERB'
p1605
F0.015648
sS'NOUN'
p1606
F0.967604
s(lp1607
(g448
I58
tp1608
atp1609
a(g41
(dp1610
g41
F1.0
s(lp1611
(g41
I60
tp1612
atp1613
asS'it'
p1614
(lp1615
(S'in'
p1616
(dp1617
S'ADP'
p1618
F1.0
s(lp1619
(g8
I0
tp1620
atp1621
a(S'risposta'
p1622
(dp1623
S'VERB'
p1624
F0.006203
sS'NOUN'
p1625
F0.993797
s(lp1626
(g15
I1
tp1627
atp1628
a(g515
(dp1629
S'CONJ'
p1630
F0.001325
sS'ADP'
p1631
F0.998675
s(lp1632
(g22
I2
tp1633
atp1634
a(S'questi'
p1635
(dp1636
S'PRON'
p1637
F1.0
s(lp1638
(g29
I3
tp1639
atp1640
a(S'problemi'
p1641
(dp1642
S'NOUN'
p1643
F1.0
s(lp1644
(g36
I4
tp1645
atp1646
a(g39
(dp1647
g41
F1.0
s(lp1648
(g39
I5
tp1649
atp1650
a(S'la'
p1651
(dp1652
S'PRON'
p1653
F0.001195
sS'DET'
p1654
F0.998805
s(lp1655
(g51
I6
tp1656
atp1657
a(S'proposta'
p1658
(dp1659
S'VERB'
p1660
F0.006869
sS'NOUN'
p1661
F0.993131
s(lp1662
(g58
I7
tp1663
atp1664
a(S'di'
p1665
(dp1666
S'CONJ'
p1667
F5e-06
sS'ADP'
p1668
F0.999995
s(lp1669
(g65
I8
tp1670
atp1671
a(S'direttiva'
p1672
(dp1673
S'ADJ'
p1674
F0.130199
sS'NOUN'
p1675
F0.869801
s(lp1676
(g73
I10
tp1677
atp1678
a(S'consente'
p1679
(dp1680
S'VERB'
p1681
F1.0
s(lp1682
(g80
I11
tp1683
atp1684
a(S'di'
p1685
(dp1686
S'CONJ'
p1687
F2e-06
sS'ADP'
p1688
F0.999998
s(lp1689
(g87
I12
tp1690
atp1691
a(S'snellire'
p1692
(dp1693
S'VERB'
p1694
F1.0
s(lp1695
(g94
I17
tp1696
atp1697
a(S'al'
p1698
(dp1699
S'ADP'
p1700
F1.0
s(lp1701
(g567
I18
tp1702
atp1703
a(S'massimo'
p1704
(dp1705
S'ADJ'
p1706
F0.24537
sS'NOUN'
p1707
F0.75463
s(lp1708
(g118
I21
tp1709
atp1710
a(S'le'
p1711
(dp1712
S'PRON'
p1713
F0.000245
sS'DET'
p1714
F0.999755
s(lp1715
tp1716
a(S'procedure'
p1717
(dp1718
S'NOUN'
p1719
F1.0
s(lp1720
(g132
I14
tp1721
atp1722
a(S'amministrative'
p1723
(dp1724
S'NOUN'
p1725
F0.016345
sS'ADJ'
p1726
F0.983655
s(lp1727
(g139
I13
tp1728
atp1729
a(g39
(dp1730
g41
F1.0
s(lp1731
(g39
I22
tp1732
atp1733
a(S'ad'
p1734
(dp1735
S'ADP'
p1736
F1.0
s(lp1737
tp1738
a(S'esempio'
p1739
(dp1740
S'NOUN'
p1741
F1.0
s(lp1742
(g156
I24
tp1743
atp1744
a(S'limitando'
p1745
(dp1746
S'VERB'
p1747
F1.0
s(lp1748
(g172
I27
tp1749
atp1750
a(S"l'"
p1751
(dp1752
S'NOUN'
p1753
F0.107286
sS'VERB'
p1754
F0.5268700000000001
sS'ADJ'
p1755
F0.365844
s(lp1756
(g181
I28
tp1757
atp1758
a(S'obbligo'
p1759
(dp1760
S'VERB'
p1761
F0.008016
sS'NOUN'
p1762
F0.991984
s(lp1763
(g188
I29
tp1764
atp1765
a(S'di'
p1766
(dp1767
S'CONJ'
p1768
F4e-06
sS'ADP'
p1769
F0.999996
s(lp1770
(g197
I30
tp1771
atp1772
a(S'autorizzazione'
p1773
(dp1774
S'NOUN'
p1775
F1.0
s(lp1776
(g204
I32
tp1777
atp1778
a(S'preventiva'
p1779
(dp1780
S'VERB'
p1781
F0.03485
sS'ADJ'
p1782
F0.96515
s(lp1783
(g212
I31
tp1784
atp1785
a(S'del'
p1786
(dp1787
S'DEF'
p1788
F0.003821
sS'ADP'
p1789
F0.996179
s(lp1790
(g652
I33
tp1791
atp1792
a(S'trattamento'
p1793
(dp1794
S'NOUN'
p1795
F1.0
s(lp1796
(g658
I34
tp1797
atp1798
a(S'da'
p1799
(dp1800
S'ADP'
p1801
F1.0
s(lp1802
(g220
I35
tp1803
atp1804
a(S'parte'
p1805
(dp1806
S'VERB'
p1807
F2.1e-05
sS'NOUN'
p1808
F0.999979
s(lp1809
tp1810
a(S"dell'"
p1811
(dp1812
S'ADJ'
p1813
F0.040681
sS'VERB'
p1814
F0.006562999999999999
sS'NOUN'
p1815
F0.952756
s(lp1816
(g220
I35
tp1817
atp1818
a(S'istituzione'
p1819
(dp1820
S'NOUN'
p1821
F1.0
s(lp1822
(g236
I39
tp1823
atp1824
a(S'sanitaria'
p1825
(dp1826
S'ADJ'
p1827
F1.0
s(lp1828
(g252
I38
tp1829
atp1830
a(S'nazionale'
p1831
(dp1832
S'NOUN'
p1833
F0.052861
sS'ADJ'
p1834
F0.947139
s(lp1835
(g244
I37
tp1836
atp1837
a(S'e'
p1838
(dp1839
S'CONJ'
p1840
F1.0
s(lp1841
(g276
I41
tp1842
atp1843
a(S'assicurando'
p1844
(dp1845
S'VERB'
p1846
F1.0
s(lp1847
(g291
I43
tp1848
atp1849
a(S'un'
p1850
(dp1851
S'PRON'
p1852
F0.000359
sS'DEF'
p1853
F0.999641
s(lp1854
tp1855
a(S'migliore'
p1856
(dp1857
S'NOUN'
p1858
F0.018108
sS'ADJ'
p1859
F0.981892
s(lp1860
(g305
I44
tp1861
atp1862
a(S'scambio'
p1863
(dp1864
S'VERB'
p1865
F0.009349
sS'NOUN'
p1866
F0.990651
s(lp1867
(g313
I45
tp1868
atp1869
a(S'di'
p1870
(dp1871
S'CONJ'
p1872
F4e-06
sS'ADP'
p1873
F0.999996
s(lp1874
(g320
I46
tp1875
atp1876
a(S'informazioni'
p1877
(dp1878
S'NOUN'
p1879
F1.0
s(lp1880
(g334
I47
tp1881
atp1882
a(S'sui'
p1883
(dp1884
S'ADP'
p1885
F1.0
s(lp1886
(g342
I48
tp1887
atp1888
a(S'servizi'
p1889
(dp1890
S'NOUN'
p1891
F1.0
s(lp1892
tp1893
a(S'medici'
p1894
(dp1895
S'NOUN'
p1896
F0.203569
sS'ADJ'
p1897
F0.796431
s(lp1898
(g363
I49
tp1899
atp1900
a(S'offerti'
p1901
(dp1902
S'VERB'
p1903
F0.936599
sS'ADJ'
p1904
F0.063401
s(lp1905
(g356
I50
tp1906
atp1907
a(S'in'
p1908
(dp1909
S'ADP'
p1910
F1.0
s(lp1911
(g371
I51
tp1912
atp1913
a(S'altri'
p1914
(dp1915
S'PRON'
p1916
F0.880817
sS'ADJ'
p1917
F0.118516
sS'NOUN'
p1918
F0.000667
s(lp1919
(g385
I52
tp1920
atp1921
a(S'paesi'
p1922
(dp1923
S'NOUN'
p1924
F1.0
s(lp1925
(g392
I53
tp1926
atp1927
a(S'attraverso'
p1928
(dp1929
S'ADV'
p1930
F0.130654
sS'VERB'
p1931
F0.022245
sS'ADP'
p1932
F0.847101
s(lp1933
(g407
I54
tp1934
atp1935
a(S"l'"
p1936
(dp1937
S'NOUN'
p1938
F0.009146
sS'VERB'
p1939
F0.9463619999999999
sS'ADJ'
p1940
F0.044491
s(lp1941
(g441
I56
tp1942
atp1943
a(S'istituzione'
p1944
(dp1945
S'NOUN'
p1946
F1.0
s(lp1947
(g421
I55
tp1948
atp1949
a(S'di'
p1950
(dp1951
S'CONJ'
p1952
F6e-06
sS'ADP'
p1953
F0.999994
s(lp1954
tp1955
a(S'punti'
p1956
(dp1957
S'ADJ'
p1958
F0.007061
sS'VERB'
p1959
F0.008558
sS'NOUN'
p1960
F0.98438
s(lp1961
(g434
I59
tp1962
atp1963
a(S'di'
p1964
(dp1965
S'CONJ'
p1966
F5e-06
sS'ADP'
p1967
F0.999995
s(lp1968
tp1969
a(S'contatto'
p1970
(dp1971
S'VERB'
p1972
F0.000349
sS'NOUN'
p1973
F0.999651
s(lp1974
(g448
I58
tp1975
atp1976
a(S'nazionali'
p1977
(dp1978
S'NOUN'
p1979
F0.015489
sS'ADJ'
p1980
F0.984511
s(lp1981
(g456
I57
tp1982
atp1983
a(g41
(dp1984
g41
F1.0
s(lp1985
(g41
I60
tp1986
atp1987
asS'sk'
p1988
(lp1989
(S'n\xc3\xa1vrh'
p1990
(dp1991
S'NOUN'
p1992
F1.0
s(lp1993
(g58
I7
tp1994
atp1995
a(g39
(dp1996
g41
F1.0
s(lp1997
tp1998
a(S'ktor\xc3\xbd'
p1999
(dp2000
S'PRON'
p2001
F1.0
s(lp2002
(g515
I9
tp2003
atp2004
a(S'na'
p2005
(dp2006
S'PRT'
p2007
F0.000156
sS'CONJ'
p2008
F2.5e-05
sS'ADP'
p2009
F0.999771
sS'X'
p2010
F4.8e-05
s(lp2011
(g22
I2
tp2012
atp2013
a(S'tieto'
p2014
(dp2015
S'PRON'
p2016
F1.0
s(lp2017
(g29
I3
tp2018
atp2019
a(S'probl\xc3\xa9my'
p2020
(dp2021
g2010
F2.2e-05
sS'NOUN'
p2022
F0.999978
s(lp2023
(g36
I4
tp2024
atp2025
a(S'reaguje'
p2026
(dp2027
S'VERB'
p2028
F1.0
s(lp2029
(g15
I1
tp2030
atp2031
a(g39
(dp2032
g41
F1.0
s(lp2033
(g39
I5
tp2034
atp2035
a(S'prin\xc3\xa1\xc5\xa1a'
p2036
(dp2037
S'VERB'
p2038
F1.0
s(lp2039
(g80
I11
tp2040
atp2041
a(S'\xc4\x8do'
p2042
(dp2043
S'PRON'
p2044
F0.701633
sS'CONJ'
p2045
F0.081665
sg2010
F0.216702
s(lp2046
(g118
I21
tp2047
atp2048
a(S'najv\xc3\xa4\xc4\x8d\xc5\xa1ie'
p2049
(dp2050
S'ADJ'
p2051
F1.0
s(lp2052
(g101
I19
tp2053
atp2054
a(S'zjednodu\xc5\xa1enie'
p2055
(dp2056
S'NOUN'
p2057
F1.0
s(lp2058
(g94
I17
tp2059
atp2060
a(S'administrat\xc3\xadvnych'
p2061
(dp2062
S'ADJ'
p2063
F1.0
s(lp2064
(g139
I13
tp2065
atp2066
a(S'postupov'
p2067
(dp2068
S'NOUN'
p2069
F1.0
s(lp2070
(g132
I14
tp2071
atp2072
a(S'napr\xc3\xadklad'
p2073
(dp2074
g2010
F1.0
s(lp2075
(g156
I24
tp2076
atp2077
a(S'obmedzen\xc3\xadm'
p2078
(dp2079
S'NOUN'
p2080
F1.0
s(lp2081
(g172
I27
tp2082
atp2083
a(S'potreby'
p2084
(dp2085
S'NOUN'
p2086
F1.0
s(lp2087
(g188
I29
tp2088
atp2089
a(S'predch\xc3\xa1dzaj\xc3\xbaceho'
p2090
(dp2091
S'VERB'
p2092
F1.0
s(lp2093
(g212
I31
tp2094
atp2095
a(S'povolenia'
p2096
(dp2097
S'NOUN'
p2098
F1.0
s(lp2099
(g204
I32
tp2100
atp2101
a(S'lie\xc4\x8dby'
p2102
(dp2103
S'NOUN'
p2104
F1.0
s(lp2105
(g658
I34
tp2106
atp2107
a(S'vn\xc3\xbatro\xc5\xa1t\xc3\xa1tnym'
p2108
(dp2109
S'ADJ'
p2110
F1.0
s(lp2111
(g244
I37
tp2112
atp2113
a(S'org\xc3\xa1nom'
p2114
(dp2115
S'NOUN'
p2116
F1.0
s(lp2117
(g236
I39
tp2118
atp2119
a(S'zdravotnej'
p2120
(dp2121
S'ADJ'
p2122
F1.0
s(lp2123
tp2124
a(S'starostlivosti'
p2125
(dp2126
S'NOUN'
p2127
F1.0
s(lp2128
(g252
I38
tp2129
atp2130
a(g515
(dp2131
g2010
F0.0025380000000000003
sS'CONJ'
p2132
F0.996478
sS'NOUN'
p2133
F0.00018700000000000002
sS'ADP'
p2134
F0.00077
sS'PRT'
p2135
F2.7e-05
s(lp2136
(g276
I41
tp2137
atp2138
a(S'zabezpe\xc4\x8den\xc3\xadm'
p2139
(dp2140
S'NOUN'
p2141
F1.0
s(lp2142
(g291
I43
tp2143
atp2144
a(S'lep\xc5\xa1ej'
p2145
(dp2146
S'ADJ'
p2147
F1.0
s(lp2148
(g305
I44
tp2149
atp2150
a(S'v\xc3\xbdmeny'
p2151
(dp2152
S'NOUN'
p2153
F1.0
s(lp2154
(g313
I45
tp2155
atp2156
a(S'inform\xc3\xa1ci\xc3\xad'
p2157
(dp2158
S'NOUN'
p2159
F1.0
s(lp2160
(g334
I47
tp2161
atp2162
a(S'o'
p2163
(dp2164
g2010
F7.400000000000001e-05
sS'CONJ'
p2165
F5.9e-05
sS'NOUN'
p2166
F2.1e-05
sS'ADP'
p2167
F0.999846
s(lp2168
(g342
I48
tp2169
atp2170
a(S'lek\xc3\xa1rskych'
p2171
(dp2172
S'ADJ'
p2173
F1.0
s(lp2174
(g363
I49
tp2175
atp2176
a(S'slu\xc5\xbeb\xc3\xa1ch'
p2177
(dp2178
S'NOUN'
p2179
F1.0
s(lp2180
(g356
I50
tp2181
atp2182
a(S'v'
p2183
(dp2184
g2010
F1.6e-05
sS'ADP'
p2185
F0.999984
s(lp2186
(g371
I51
tp2187
atp2188
a(S'in\xc3\xbdch'
p2189
(dp2190
S'PRON'
p2191
F0.999994
sS'NOUN'
p2192
F6e-06
s(lp2193
(g385
I52
tp2194
atp2195
a(S'krajin\xc3\xa1ch'
p2196
(dp2197
S'NOUN'
p2198
F1.0
s(lp2199
(g392
I53
tp2200
atp2201
a(S'vytvoren\xc3\xadm'
p2202
(dp2203
S'NOUN'
p2204
F1.0
s(lp2205
(g421
I55
tp2206
atp2207
a(S'n\xc3\xa1rodn\xc3\xbdch'
p2208
(dp2209
S'ADJ'
p2210
F1.0
s(lp2211
(g456
I57
tp2212
atp2213
a(S'kontaktn\xc3\xbdch'
p2214
(dp2215
S'ADJ'
p2216
F1.0
s(lp2217
(g448
I58
tp2218
atp2219
a(S'miest'
p2220
(dp2221
S'NOUN'
p2222
F1.0
s(lp2223
(g434
I59
tp2224
atp2225
a(g41
(dp2226
g41
F1.0
s(lp2227
(g41
I60
tp2228
atp2229
asS'pl'
p2230
(lp2231
(S'odpowiadaj\xc4\x85c'
p2232
(dp2233
S'VERB'
p2234
F1.0
s(lp2235
(g15
I1
tp2236
atp2237
a(S'na'
p2238
(dp2239
S'PRT'
p2240
F2.4e-05
sS'VERB'
p2241
F2e-06
sS'NOUN'
p2242
F0.0
sS'ADP'
p2243
F0.999973
sg2010
F2e-06
s(lp2244
(g22
I2
tp2245
atp2246
a(S'te'
p2247
(dp2248
S'NOUN'
p2249
F1.3e-05
sS'ADJ'
p2250
F0.9999819999999999
sg2010
F5e-06
s(lp2251
(g29
I3
tp2252
atp2253
a(S'problemy'
p2254
(dp2255
S'NOUN'
p2256
F1.0
s(lp2257
(g36
I4
tp2258
atp2259
a(g39
(dp2260
g2010
F0.0
sg41
F1.0
s(lp2261
(g39
I5
tp2262
atp2263
a(S'projekt'
p2264
(dp2265
S'NOUN'
p2266
F1.0
s(lp2267
(g58
I7
tp2268
atp2269
a(S'dyrektywy'
p2270
(dp2271
S'NOUN'
p2272
F1.0
s(lp2273
(g73
I10
tp2274
atp2275
a(S'zak\xc5\x82ada'
p2276
(dp2277
S'VERB'
p2278
F1.0
s(lp2279
(g80
I11
tp2280
atp2281
a(S'maksymalne'
p2282
(dp2283
S'ADJ'
p2284
F1.0
s(lp2285
(g101
I19
tp2286
atp2287
a(S'uproszczenie'
p2288
(dp2289
S'VERB'
p2290
F1.0
s(lp2291
(g94
I17
tp2292
atp2293
a(S'procedur'
p2294
(dp2295
S'NOUN'
p2296
F1.0
s(lp2297
(g132
I14
tp2298
atp2299
a(S'administracyjnych'
p2300
(dp2301
S'ADJ'
p2302
F1.0
s(lp2303
(g139
I13
tp2304
atp2305
a(g39
(dp2306
g2010
F0.0
sg41
F1.0
s(lp2307
(g39
I22
tp2308
atp2309
a(S'np.'
p2310
(dp2311
g2010
F1.0
s(lp2312
(g156
I24
tp2313
atp2314
a(S'dzi\xc4\x99ki'
p2315
(dp2316
S'NOUN'
p2317
F0.000104
sS'ADP'
p2318
F0.999896
s(lp2319
(g164
I26
tp2320
atp2321
a(S'ograniczeniu'
p2322
(dp2323
S'VERB'
p2324
F0.62444
sS'NOUN'
p2325
F0.37556
s(lp2326
(g172
I27
tp2327
atp2328
a(S'obowi\xc4\x85zku'
p2329
(dp2330
S'NOUN'
p2331
F1.0
s(lp2332
(g188
I29
tp2333
atp2334
a(S'uprzedniej'
p2335
(dp2336
S'ADJ'
p2337
F1.0
s(lp2338
(g212
I31
tp2339
atp2340
a(S'autoryzacji'
p2341
(dp2342
S'NOUN'
p2343
F1.0
s(lp2344
(g204
I32
tp2345
atp2346
a(S'leczenia'
p2347
(dp2348
S'VERB'
p2349
F0.609031
sS'NOUN'
p2350
F0.390969
s(lp2351
(g658
I34
tp2352
atp2353
a(S'ze'
p2354
(dp2355
S'PRT'
p2356
F6.3e-05
sS'CONJ'
p2357
F2e-06
sS'ADP'
p2358
F0.9999349999999999
s(lp2359
(g220
I35
tp2360
atp2361
a(S'strony'
p2362
(dp2363
S'NOUN'
p2364
F1.0
s(lp2365
(g229
I36
tp2366
atp2367
a(S'narodowego'
p2368
(dp2369
S'ADJ'
p2370
F1.0000010000000001
s(lp2371
(g244
I37
tp2372
atp2373
a(S'organu'
p2374
(dp2375
S'NOUN'
p2376
F1.0
s(lp2377
(g236
I39
tp2378
atp2379
a(S'ochrony'
p2380
(dp2381
S'NOUN'
p2382
F1.0
s(lp2383
tp2384
a(S'zdrowia'
p2385
(dp2386
S'NOUN'
p2387
F1.0
s(lp2388
(g252
I38
tp2389
atp2390
a(g39
(dp2391
g2010
F0.0
sg41
F1.0
s(lp2392
(g39
I40
tp2393
atp2394
a(S'oraz'
p2395
(dp2396
S'CONJ'
p2397
F1.0
s(lp2398
(g276
I41
tp2399
atp2400
a(S'zapewnieniu'
p2401
(dp2402
S'VERB'
p2403
F1.0
s(lp2404
(g291
I43
tp2405
atp2406
a(S'lepszej'
p2407
(dp2408
S'ADJ'
p2409
F1.0
s(lp2410
(g305
I44
tp2411
atp2412
a(S'wymiany'
p2413
(dp2414
S'NOUN'
p2415
F1.0
s(lp2416
(g313
I45
tp2417
atp2418
a(S'informacji'
p2419
(dp2420
S'NOUN'
p2421
F1.000001
s(lp2422
(g334
I47
tp2423
atp2424
a(g2163
(dp2425
g2010
F4.3e-05
sS'VERB'
p2426
F0.0
sS'NOUN'
p2427
F0.0
sS'ADP'
p2428
F0.9999549999999999
sS'PRT'
p2429
F1e-06
s(lp2430
(g342
I48
tp2431
atp2432
a(S'us\xc5\x82ugach'
p2433
(dp2434
S'NOUN'
p2435
F1.0
s(lp2436
(g356
I50
tp2437
atp2438
a(S'medycznych'
p2439
(dp2440
S'ADJ'
p2441
F1.000001
s(lp2442
(g363
I49
tp2443
atp2444
a(S'w'
p2445
(dp2446
g2010
F0.0
sS'ADJ'
p2447
F0.0
sS'ADP'
p2448
F1.0
sS'NOUN'
p2449
F0.0
s(lp2450
(g371
I51
tp2451
atp2452
a(S'innych'
p2453
(dp2454
S'NOUN'
p2455
F9.7e-05
sS'ADJ'
p2456
F0.9999029999999999
s(lp2457
(g385
I52
tp2458
atp2459
a(S'pa\xc5\x84stwach'
p2460
(dp2461
S'NOUN'
p2462
F1.0
s(lp2463
(g392
I53
tp2464
atp2465
a(S'poprzez'
p2466
(dp2467
S'ADP'
p2468
F1.0
s(lp2469
(g407
I54
tp2470
atp2471
a(S'stworzenie'
p2472
(dp2473
S'VERB'
p2474
F0.7856879999999999
sS'NOUN'
p2475
F0.214312
s(lp2476
(g421
I55
tp2477
atp2478
a(S'krajowych'
p2479
(dp2480
S'ADJ'
p2481
F1.000001
s(lp2482
(g456
I57
tp2483
atp2484
a(S'punkt\xc3\xb3w'
p2485
(dp2486
S'NOUN'
p2487
F1.0
s(lp2488
(g434
I59
tp2489
atp2490
a(S'kontaktowych'
p2491
(dp2492
S'ADJ'
p2493
F1.0
s(lp2494
(g448
I58
tp2495
atp2496
a(g41
(dp2497
g41
F1.0
s(lp2498
(g41
I60
tp2499
atp2500
asS'sl'
p2501
(lp2502
(g2183
(dp2503
S'ADP'
p2504
F1.0
s(lp2505
(g8
I0
tp2506
atp2507
a(S'odgovor'
p2508
(dp2509
S'NOUN'
p2510
F1.0
s(lp2511
(g15
I1
tp2512
atp2513
a(S'na'
p2514
(dp2515
S'ADP'
p2516
F1.0
s(lp2517
(g22
I2
tp2518
atp2519
a(S'te'
p2520
(dp2521
S'PRON'
p2522
F0.999999
s(lp2523
(g29
I3
tp2524
atp2525
a(S'te\xc5\xbeave'
p2526
(dp2527
S'NOUN'
p2528
F1.0
s(lp2529
(g36
I4
tp2530
atp2531
a(S'predlog'
p2532
(dp2533
S'NOUN'
p2534
F1.0
s(lp2535
(g58
I7
tp2536
atp2537
a(S'direktive'
p2538
(dp2539
S'NOUN'
p2540
F1.0
s(lp2541
(g73
I10
tp2542
atp2543
a(S'dolo\xc4\x8da'
p2544
(dp2545
S'VERB'
p2546
F1.0
s(lp2547
(g80
I11
tp2548
atp2549
a(g39
(dp2550
g41
F1.0
s(lp2551
tp2552
a(S'da'
p2553
(dp2554
S'PRT'
p2555
F0.000255
sS'CONJ'
p2556
F0.999719
sS'VERB'
p2557
F2.5e-05
sg2010
F1e-06
s(lp2558
(g548
I15
tp2559
atp2560
a(S'morajo'
p2561
(dp2562
S'VERB'
p2563
F1.0
s(lp2564
tp2565
a(S'biti'
p2566
(dp2567
S'VERB'
p2568
F0.9999509999999999
sS'NOUN'
p2569
F4.8e-05
s(lp2570
(g556
I16
tp2571
atp2572
a(S'upravni'
p2573
(dp2574
S'ADJ'
p2575
F1.0
s(lp2576
(g139
I13
tp2577
atp2578
a(S'postopki'
p2579
(dp2580
S'NOUN'
p2581
F1.0
s(lp2582
(g132
I14
tp2583
atp2584
a(S'\xc4\x8dim'
p2585
(dp2586
S'ADV'
p2587
F0.997821
sS'PRON'
p2588
F0.002179
s(lp2589
(g118
I21
tp2590
atp2591
a(S'bolj'
p2592
(dp2593
S'ADV'
p2594
F1.0
s(lp2595
(g101
I19
tp2596
atp2597
a(S'poenostavljeni'
p2598
(dp2599
S'ADV'
p2600
F0.032071
sS'ADJ'
p2601
F0.205286
sS'VERB'
p2602
F0.42022400000000004
sS'NOUN'
p2603
F0.34242200000000006
s(lp2604
(g94
I17
tp2605
atp2606
a(g39
(dp2607
g41
F1.0
s(lp2608
(g39
I22
tp2609
atp2610
a(S'na'
p2611
(dp2612
S'ADP'
p2613
F1.0
s(lp2614
tp2615
a(S'primer'
p2616
(dp2617
S'NOUN'
p2618
F1.0
s(lp2619
(g156
I24
tp2620
atp2621
a(S'omejuje'
p2622
(dp2623
S'VERB'
p2624
F1.0
s(lp2625
(g172
I27
tp2626
atp2627
a(S'obveznost'
p2628
(dp2629
S'NOUN'
p2630
F1.0
s(lp2631
(g188
I29
tp2632
atp2633
a(S'predhodne'
p2634
(dp2635
S'ADV'
p2636
F0.010147
sS'NOUN'
p2637
F0.012825999999999999
sS'ADJ'
p2638
F0.9770269999999999
s(lp2639
(g212
I31
tp2640
atp2641
a(S'odobritve'
p2642
(dp2643
S'NOUN'
p2644
F1.0
s(lp2645
tp2646
a(S'zdravljenja'
p2647
(dp2648
S'NOUN'
p2649
F1.0
s(lp2650
(g658
I34
tp2651
atp2652
a(g39
(dp2653
g41
F1.0
s(lp2654
tp2655
a(S'ki'
p2656
(dp2657
S'CONJ'
p2658
F1.0
s(lp2659
tp2660
a(S'jo'
p2661
(dp2662
S'PRON'
p2663
F0.999957
sg2010
F4.3e-05
s(lp2664
(g220
I35
tp2665
atp2666
a(S'mora'
p2667
(dp2668
S'VERB'
p2669
F0.999871
sS'NOUN'
p2670
F0.000129
s(lp2671
(g229
I36
tp2672
atp2673
a(S'dati'
p2674
(dp2675
S'VERB'
p2676
F1.0
s(lp2677
(g204
I32
tp2678
atp2679
a(S'nacionalni'
p2680
(dp2681
S'ADJ'
p2682
F1.0
s(lp2683
(g244
I37
tp2684
atp2685
a(S'zdravstveni'
p2686
(dp2687
S'ADJ'
p2688
F0.9999990000000001
s(lp2689
(g252
I38
tp2690
atp2691
a(S'organ'
p2692
(dp2693
S'NOUN'
p2694
F1.0
s(lp2695
(g236
I39
tp2696
atp2697
a(g39
(dp2698
g41
F1.0
s(lp2699
(g39
I40
tp2700
atp2701
a(S'in'
p2702
(dp2703
S'ADV'
p2704
F0.000746
sg2010
F7e-06
sS'CONJ'
p2705
F0.999186
sS'NOUN'
p2706
F6e-05
s(lp2707
(g276
I41
tp2708
atp2709
a(S'zagotavlja'
p2710
(dp2711
S'VERB'
p2712
F1.0
s(lp2713
(g291
I43
tp2714
atp2715
a(S'bolj\xc5\xa1o'
p2716
(dp2717
S'ADJ'
p2718
F1.0
s(lp2719
(g305
I44
tp2720
atp2721
a(S'izmenjavo'
p2722
(dp2723
S'NOUN'
p2724
F1.0
s(lp2725
(g313
I45
tp2726
atp2727
a(S'informacij'
p2728
(dp2729
S'NOUN'
p2730
F1.0
s(lp2731
(g334
I47
tp2732
atp2733
a(g2163
(dp2734
S'NOUN'
p2735
F1e-06
sS'ADP'
p2736
F0.999999
s(lp2737
(g342
I48
tp2738
atp2739
a(S'zdravstvenih'
p2740
(dp2741
S'ADJ'
p2742
F1.0
s(lp2743
(g363
I49
tp2744
atp2745
a(S'storitvah'
p2746
(dp2747
S'NOUN'
p2748
F1.0
s(lp2749
(g356
I50
tp2750
atp2751
a(g2183
(dp2752
S'ADP'
p2753
F1.0
s(lp2754
(g371
I51
tp2755
atp2756
a(S'drugih'
p2757
(dp2758
S'NUM'
p2759
F0.9999999999999998
s(lp2760
(g385
I52
tp2761
atp2762
a(S'dr\xc5\xbeavah'
p2763
(dp2764
S'NOUN'
p2765
F1.0
s(lp2766
(g392
I53
tp2767
atp2768
a(S'z'
p2769
(dp2770
S'ADP'
p2771
F1.0
s(lp2772
(g407
I54
tp2773
atp2774
a(S'vzpostavitvijo'
p2775
(dp2776
S'NOUN'
p2777
F1.0
s(lp2778
(g421
I55
tp2779
atp2780
a(S'nacionalnih'
p2781
(dp2782
S'ADJ'
p2783
F1.0
s(lp2784
(g456
I57
tp2785
atp2786
a(S'kontaktnih'
p2787
(dp2788
S'ADJ'
p2789
F1.0
s(lp2790
(g448
I58
tp2791
atp2792
a(S'to\xc4\x8dk'
p2793
(dp2794
S'NOUN'
p2795
F1.0
s(lp2796
(g434
I59
tp2797
atp2798
a(g41
(dp2799
g41
F1.0
s(lp2800
(g41
I60
tp2801
atp2802
asS'es'
p2803
(lp2804
(S'en'
p2805
(dp2806
g2010
F0.002093
sS'CONJ'
p2807
F4.7e-05
sS'ADP'
p2808
F0.99786
s(lp2809
(g8
I0
tp2810
atp2811
a(S'respuesta'
p2812
(dp2813
S'NOUN'
p2814
F1.0
s(lp2815
(g15
I1
tp2816
atp2817
a(g515
(dp2818
g2010
F4.4e-05
sS'CONJ'
p2819
F4e-06
sS'ADP'
p2820
F0.999952
s(lp2821
(g22
I2
tp2822
atp2823
a(S'estos'
p2824
(dp2825
S'PRON'
p2826
F1.0
s(lp2827
(g29
I3
tp2828
atp2829
a(S'problemas'
p2830
(dp2831
S'NOUN'
p2832
F1.0
s(lp2833
(g36
I4
tp2834
atp2835
a(g39
(dp2836
g41
F1.0
s(lp2837
(g39
I5
tp2838
atp2839
a(S'la'
p2840
(dp2841
S'PRON'
p2842
F0.000153
sS'DET'
p2843
F0.999838
sS'NOUN'
p2844
F4e-06
sg2010
F5e-06
s(lp2845
(g51
I6
tp2846
atp2847
a(S'propuesta'
p2848
(dp2849
S'VERB'
p2850
F0.02636
sS'NOUN'
p2851
F0.97364
s(lp2852
(g58
I7
tp2853
atp2854
a(S'de'
p2855
(dp2856
g2010
F0.00011
sS'CONJ'
p2857
F0.000566
sS'ADP'
p2858
F0.999324
s(lp2859
(g65
I8
tp2860
atp2861
a(S'directiva'
p2862
(dp2863
S'ADJ'
p2864
F0.307837
sS'NOUN'
p2865
F0.692163
s(lp2866
(g73
I10
tp2867
atp2868
a(S'establece'
p2869
(dp2870
S'VERB'
p2871
F1.0
s(lp2872
(g80
I11
tp2873
atp2874
a(S'que'
p2875
(dp2876
g2010
F0.0
sS'CONJ'
p2877
F1.0
s(lp2878
(g87
I12
tp2879
atp2880
a(S'los'
p2881
(dp2882
S'PRON'
p2883
F0.000194
sS'DET'
p2884
F0.999806
s(lp2885
tp2886
a(S'procedimientos'
p2887
(dp2888
S'NOUN'
p2889
F1.0
s(lp2890
(g132
I14
tp2891
atp2892
a(S'administrativos'
p2893
(dp2894
S'ADJ'
p2895
F1.0
s(lp2896
(g139
I13
tp2897
atp2898
a(S'deben'
p2899
(dp2900
S'VERB'
p2901
F1.0
s(lp2902
(g556
I16
tp2903
atp2904
a(S'simplificarse'
p2905
(dp2906
S'VERB'
p2907
F1.0
s(lp2908
(g94
I17
tp2909
atp2910
a(S'al'
p2911
(dp2912
S'CONJ'
p2913
F0.000298
sS'ADP'
p2914
F0.9997020000000001
s(lp2915
(g567
I18
tp2916
atp2917
a(S'm\xc3\xa1ximo'
p2918
(dp2919
S'ADJ'
p2920
F1.0
s(lp2921
(g118
I21
tp2922
atp2923
a(g39
(dp2924
g41
F1.0
s(lp2925
(g39
I22
tp2926
atp2927
a(S'por'
p2928
(dp2929
S'ADV'
p2930
F1.0
s(lp2931
(g597
I23
tp2932
atp2933
a(S'ejemplo'
p2934
(dp2935
S'ADV'
p2936
F1.0
s(lp2937
(g156
I24
tp2938
atp2939
a(S'limitando'
p2940
(dp2941
S'VERB'
p2942
F1.0
s(lp2943
(g172
I27
tp2944
atp2945
a(S'la'
p2946
(dp2947
S'NOUN'
p2948
F0.0
sS'PRON'
p2949
F0.0
sS'DET'
p2950
F1.0
sg2010
F0.0
s(lp2951
(g181
I28
tp2952
atp2953
a(S'exigencia'
p2954
(dp2955
S'NOUN'
p2956
F1.0
s(lp2957
(g188
I29
tp2958
atp2959
a(S'de'
p2960
(dp2961
g2010
F0.0
sS'CONJ'
p2962
F0.345844
sS'ADP'
p2963
F0.654156
s(lp2964
tp2965
a(S'obtener'
p2966
(dp2967
S'VERB'
p2968
F1.0
s(lp2969
(g197
I30
tp2970
atp2971
a(S'la'
p2972
(dp2973
S'PRON'
p2974
F4e-06
sS'DET'
p2975
F0.999995
sS'NOUN'
p2976
F0.0
sg2010
F1e-06
s(lp2977
(g229
I36
tp2978
atp2979
a(S'autorizaci\xc3\xb3n'
p2980
(dp2981
S'NOUN'
p2982
F1.0
s(lp2983
(g204
I32
tp2984
atp2985
a(S'previa'
p2986
(dp2987
S'ADJ'
p2988
F1.0
s(lp2989
(g212
I31
tp2990
atp2991
a(S'del'
p2992
(dp2993
S'ADP'
p2994
F1.0
s(lp2995
(g652
I33
tp2996
atp2997
a(S'organismo'
p2998
(dp2999
S'NOUN'
p3000
F1.0
s(lp3001
(g236
I39
tp3002
atp3003
a(S'nacional'
p3004
(dp3005
S'ADJ'
p3006
F1.0
s(lp3007
(g244
I37
tp3008
atp3009
a(S'de'
p3010
(dp3011
g2010
F3.1e-05
sS'CONJ'
p3012
F0.001485
sS'ADP'
p3013
F0.998485
s(lp3014
(g220
I35
tp3015
atp3016
a(S'salud'
p3017
(dp3018
S'NOUN'
p3019
F1.0
s(lp3020
(g252
I38
tp3021
atp3022
a(g39
(dp3023
g41
F1.0
s(lp3024
(g39
I40
tp3025
atp3026
a(S'y'
p3027
(dp3028
g2010
F3.4e-05
sS'CONJ'
p3029
F0.999966
s(lp3030
(g276
I41
tp3031
atp3032
a(S'garantizando'
p3033
(dp3034
S'VERB'
p3035
F1.0
s(lp3036
(g291
I43
tp3037
atp3038
a(S'un'
p3039
(dp3040
g2010
F1e-06
sS'DET'
p3041
F0.999999
s(lp3042
tp3043
a(S'mejor'
p3044
(dp3045
S'ADJ'
p3046
F1.0
s(lp3047
(g305
I44
tp3048
atp3049
a(S'intercambio'
p3050
(dp3051
S'NOUN'
p3052
F1.0
s(lp3053
(g313
I45
tp3054
atp3055
a(S'de'
p3056
(dp3057
g2010
F2.9e-05
sS'CONJ'
p3058
F0.000449
sS'ADP'
p3059
F0.999522
s(lp3060
(g320
I46
tp3061
atp3062
a(S'informaci\xc3\xb3n'
p3063
(dp3064
S'NOUN'
p3065
F1.0
s(lp3066
(g334
I47
tp3067
atp3068
a(S'sobre'
p3069
(dp3070
S'NOUN'
p3071
F0.0
sS'ADP'
p3072
F1.0
s(lp3073
(g342
I48
tp3074
atp3075
a(S'los'
p3076
(dp3077
S'PRON'
p3078
F0.0
sS'DET'
p3079
F1.0
s(lp3080
tp3081
a(S'servicios'
p3082
(dp3083
S'NOUN'
p3084
F1.0
s(lp3085
(g356
I50
tp3086
atp3087
a(S'm\xc3\xa9dicos'
p3088
(dp3089
S'NOUN'
p3090
F0.306697
sS'ADJ'
p3091
F0.693303
s(lp3092
tp3093
a(S'disponibles'
p3094
(dp3095
S'ADJ'
p3096
F1.0
s(lp3097
(g363
I49
tp3098
atp3099
a(S'en'
p3100
(dp3101
g2010
F0.0
sS'CONJ'
p3102
F1.2e-05
sS'ADP'
p3103
F0.999988
s(lp3104
(g371
I51
tp3105
atp3106
a(S'otros'
p3107
(dp3108
S'ADJ'
p3109
F1.0
s(lp3110
(g385
I52
tp3111
atp3112
a(S'pa\xc3\xadses'
p3113
(dp3114
S'NOUN'
p3115
F1.0
s(lp3116
(g392
I53
tp3117
atp3118
a(S'mediante'
p3119
(dp3120
S'ADP'
p3121
F1.0
s(lp3122
(g407
I54
tp3123
atp3124
a(S'la'
p3125
(dp3126
S'NOUN'
p3127
F0.0
sS'PRON'
p3128
F0.0
sS'DET'
p3129
F0.999999
sg2010
F0.0
s(lp3130
tp3131
a(S'creaci\xc3\xb3n'
p3132
(dp3133
S'NOUN'
p3134
F1.0
s(lp3135
(g421
I55
tp3136
atp3137
a(S'de'
p3138
(dp3139
g2010
F2.9e-05
sS'CONJ'
p3140
F0.000449
sS'ADP'
p3141
F0.999522
s(lp3142
(g441
I56
tp3143
atp3144
a(S'puntos'
p3145
(dp3146
S'NOUN'
p3147
F1.0
s(lp3148
(g434
I59
tp3149
atp3150
a(S'de'
p3151
(dp3152
g2010
F2.9e-05
sS'CONJ'
p3153
F0.000449
sS'ADP'
p3154
F0.999522
s(lp3155
tp3156
a(S'contacto'
p3157
(dp3158
S'NOUN'
p3159
F1.0
s(lp3160
(g448
I58
tp3161
atp3162
a(S'nacionales'
p3163
(dp3164
S'ADJ'
p3165
F1.0
s(lp3166
(g456
I57
tp3167
atp3168
a(g41
(dp3169
g41
F1.0
s(lp3170
(g41
I60
tp3171
atp3172
as.