(dp0
S'fr'
p1
(lp2
(S'le'
p3
(dp4
S'PRON'
p5
F0.003266
sS'DET'
p6
F0.996734
s(lp7
(S'the'
p8
I0
tp9
atp10
a(S'groupe'
p11
(dp12
S'VERB'
p13
F0.0028580000000000003
sS'NOUN'
p14
F0.997142
s(lp15
(S'group'
p16
I1
tp17
atp18
a(S'de'
p19
(dp20
S'ADP'
p21
F1.0
s(lp22
(S'of'
p23
I2
tp24
atp25
a(S"l'"
p26
(dp27
S'ADJ'
p28
F0.160704
sS'VERB'
p29
F0.06480800000000002
sS'NOUN'
p30
F0.774488
s(lp31
(S'the'
p32
I3
tp33
atp34
a(S'alliance'
p35
(dp36
S'NOUN'
p37
F1.0
s(lp38
(S'alliance'
p39
I5
tp40
atp41
a(S'progressiste'
p42
(dp43
S'NOUN'
p44
F0.018164
sS'ADJ'
p45
F0.981836
s(lp46
(S'progressive'
p47
I4
tp48
atp49
a(S'des'
p50
(dp51
S'DET'
p52
F2.7e-05
sS'ADP'
p53
F0.999973
s(lp54
(S'of'
p55
I6
tp56
atp57
a(S'socialistes'
p58
(dp59
S'ADJ'
p60
F0.458439
sS'NOUN'
p61
F0.541561
s(lp62
(S'socialists'
p63
I7
tp64
atp65
a(S'et'
p66
(dp67
S'CONJ'
p68
F1.0
s(lp69
(S'and'
p70
I8
tp71
atp72
a(S'd\xc3\xa9mocrates'
p73
(dp74
S'NOUN'
p75
F0.119269
sS'ADJ'
p76
F0.880731
s(lp77
(S'democrats'
p78
I9
tp79
atp80
a(S'au'
p81
(dp82
S'ADP'
p83
F1.0
s(lp84
(S'in'
p85
I10
tp86
atp87
a(S'parlement'
p88
(dp89
S'NOUN'
p90
F1.0
s(lp91
(S'parliament'
p92
I13
tp93
atp94
a(S'europ\xc3\xa9en'
p95
(dp96
S'NOUN'
p97
F0.006284
sS'ADJ'
p98
F0.993716
s(lp99
(S'european'
p100
I12
tp101
atp102
a(S'propose'
p103
(dp104
S'VERB'
p105
F0.999999
s(lp106
(S'proposing'
p107
I15
tp108
atp109
a(S'une'
p110
(dp111
S'NOUN'
p112
F4.4e-05
sS'NUM'
p113
F0.00395
sS'DET'
p114
F0.996007
s(lp115
(S'a'
p116
I16
tp117
atp118
a(S'taxe'
p119
(dp120
S'VERB'
p121
F0.000606
sS'NOUN'
p122
F0.999394
s(lp123
(S'tax'
p124
I19
tp125
atp126
a(S'sur'
p127
(dp128
S'ADP'
p129
F1.0
s(lp130
(S'transaction'
p131
I18
tp132
atp133
a(S'les'
p134
(dp135
S'PRON'
p136
F5.6e-05
sS'DET'
p137
F0.999943
sS'ADP'
p138
F2e-06
s(lp139
tp140
a(S'transactions'
p141
(dp142
S'NOUN'
p143
F1.0
s(lp144
(g131
I18
tp145
atp146
a(S'financi\xc3\xa8res'
p147
(dp148
S'NOUN'
p149
F0.012186
sS'ADJ'
p150
F0.987814
s(lp151
(S'financial'
p152
I17
tp153
atp154
a(S'('
p155
(dp156
S'.'
p157
F1.0
s(lp158
(g155
I20
tp159
atp160
a(S'ttf'
p161
(dp162
S'ADJ'
p163
F0.046633
sS'VERB'
p164
F0.001648
sS'NOUN'
p165
F0.951718
s(lp166
(S'ftt'
p167
I21
tp168
atp169
a(S')'
p170
(dp171
g157
F1.0
s(lp172
(g170
I22
tp173
atp174
a(S','
p175
(dp176
g157
F1.0
s(lp177
(g175
I23
tp178
atp179
a(S'dont'
p180
(dp181
S'PRON'
p182
F1.0
s(lp183
(S'which'
p184
I27
tp185
atp186
a(S'les'
p187
(dp188
S'PRON'
p189
F0.00163
sS'DET'
p190
F0.998365
sS'ADP'
p191
F5e-06
s(lp192
(S'the'
p193
I24
tp194
atp195
a(S'recettes'
p196
(dp197
S'NOUN'
p198
F1.0
s(lp199
(S'proceeds'
p200
I25
tp201
atp202
a(S'seront'
p203
(dp204
S'VERB'
p205
F1.0
s(lp206
tp207
a(S'port\xc3\xa9es'
p208
(dp209
S'NOUN'
p210
F0.008755
sS'VERB'
p211
F0.974527
sS'ADJ'
p212
F0.016719
s(lp213
(g200
I25
tp214
atp215
a(S'au'
p216
(dp217
S'ADP'
p218
F1.0
s(lp219
(S'the'
p220
I31
tp221
atp222
a(S'budget'
p223
(dp224
S'NOUN'
p225
F1.0
s(lp226
(S'budget'
p227
I33
tp228
atp229
a(S'de'
p230
(dp231
S'ADP'
p232
F1.0
s(lp233
(S'of'
p234
I26
tp235
atp236
a(S"l'"
p237
(dp238
S'ADJ'
p239
F0.160704
sS'VERB'
p240
F0.06480800000000002
sS'NOUN'
p241
F0.774488
s(lp242
tp243
a(S'ue'
p244
(dp245
S'VERB'
p246
F0.000875
sS'NOUN'
p247
F0.999125
s(lp248
(S'eu'
p249
I32
tp250
atp251
a(g157
(dp252
g157
F1.0
s(lp253
(g157
I34
tp254
atp255
asS'en'
p256
(lp257
(g8
(dp258
S'NOUN'
p259
F5e-06
sS'DET'
p260
F0.999995
s(lp261
(g8
I0
tp262
atp263
a(g16
(dp264
S'VERB'
p265
F4.9999999999999996e-06
sS'NOUN'
p266
F0.999995
s(lp267
(g16
I1
tp268
atp269
a(g23
(dp270
S'ADP'
p271
F1.0
s(lp272
(g23
I2
tp273
atp274
a(g32
(dp275
S'NOUN'
p276
F1e-06
sS'DET'
p277
F0.999999
s(lp278
(g32
I3
tp279
atp280
a(g47
(dp281
S'NOUN'
p282
F0.0259
sS'ADJ'
p283
F0.9741
s(lp284
(g47
I4
tp285
atp286
a(g39
(dp287
S'NOUN'
p288
F1.0
s(lp289
(g39
I5
tp290
atp291
a(g55
(dp292
S'ADP'
p293
F1.0
s(lp294
(g55
I6
tp295
atp296
a(g63
(dp297
S'NOUN'
p298
F1.0
s(lp299
(g63
I7
tp300
atp301
a(g70
(dp302
S'CONJ'
p303
F0.999998
sS'NOUN'
p304
F2e-06
s(lp305
(g70
I8
tp306
atp307
a(g78
(dp308
S'NOUN'
p309
F1.0
s(lp310
(g78
I9
tp311
atp312
a(g85
(dp313
S'ADV'
p314
F0.000295
sS'PRT'
p315
F0.000234
sS'ADP'
p316
F0.999471
s(lp317
(g85
I10
tp318
atp319
a(S'the'
p320
(dp321
S'NOUN'
p322
F1e-06
sS'DET'
p323
F0.999999
s(lp324
(g320
I11
tp325
atp326
a(g100
(dp327
S'NOUN'
p328
F0.10881199999999999
sS'VERB'
p329
F1.1e-05
sS'ADJ'
p330
F0.891178
s(lp331
(g100
I12
tp332
atp333
a(g92
(dp334
S'NOUN'
p335
F1.0
s(lp336
(g92
I13
tp337
atp338
a(S'is'
p339
(dp340
S'VERB'
p341
F1.0
s(lp342
(g339
I14
tp343
atp344
a(g107
(dp345
S'VERB'
p346
F1.0
s(lp347
(g107
I15
tp348
atp349
a(g116
(dp350
S'NOUN'
p351
F0.0
sS'DET'
p352
F1.0
s(lp353
(g116
I16
tp354
atp355
a(g152
(dp356
S'ADJ'
p357
F1.0
s(lp358
(g152
I17
tp359
atp360
a(g131
(dp361
S'NOUN'
p362
F1.0
s(lp363
(g131
I18
tp364
atp365
a(g124
(dp366
S'VERB'
p367
F0.0005859999999999999
sS'NOUN'
p368
F0.999414
s(lp369
(g124
I19
tp370
atp371
a(g155
(dp372
g157
F1.0
s(lp373
(g155
I20
tp374
atp375
a(g167
(dp376
S'ADV'
p377
F7.6e-05
sS'ADJ'
p378
F0.003169
sS'VERB'
p379
F0.0013570000000000001
sS'NOUN'
p380
F0.9953989999999999
s(lp381
(g167
I21
tp382
atp383
a(g170
(dp384
g157
F1.0
s(lp385
(g170
I22
tp386
atp387
a(g175
(dp388
g157
F1.0
s(lp389
(g175
I23
tp390
atp391
a(g193
(dp392
S'NOUN'
p393
F3e-05
sS'DET'
p394
F0.99997
s(lp395
(g193
I24
tp396
atp397
a(g200
(dp398
S'VERB'
p399
F0.002208
sS'NOUN'
p400
F0.997792
s(lp401
(g200
I25
tp402
atp403
a(g234
(dp404
S'ADP'
p405
F1.0
s(lp406
(g234
I26
tp407
atp408
a(g184
(dp409
S'DET'
p410
F1.0
s(lp411
(g184
I27
tp412
atp413
a(S'would'
p414
(dp415
S'VERB'
p416
F1.0
s(lp417
(g414
I28
tp418
atp419
a(S'go'
p420
(dp421
S'ADJ'
p422
F0.0
sS'VERB'
p423
F0.9999990000000001
sS'NOUN'
p424
F1e-06
s(lp425
(g420
I29
tp426
atp427
a(S'to'
p428
(dp429
S'ADV'
p430
F1e-06
sS'PRT'
p431
F0.999996
sS'ADP'
p432
F3e-06
s(lp433
(g428
I30
tp434
atp435
a(g220
(dp436
S'NOUN'
p437
F5e-06
sS'DET'
p438
F0.999995
s(lp439
(g220
I31
tp440
atp441
a(g249
(dp442
S'ADV'
p443
F2.9e-05
sS'ADJ'
p444
F0.016709
sS'VERB'
p445
F0.0005160000000000001
sS'NOUN'
p446
F0.982746
s(lp447
(g249
I32
tp448
atp449
a(g227
(dp450
S'VERB'
p451
F5.3e-05
sS'NOUN'
p452
F0.999946
s(lp453
(g227
I33
tp454
atp455
a(g157
(dp456
g157
F1.0
s(lp457
(g157
I34
tp458
atp459
asS'nl'
p460
(lp461
(S'de'
p462
(dp463
S'DET'
p464
F1.0
s(lp465
(g8
I0
tp466
atp467
a(S'sociaal-democraten'
p468
(dp469
S'NOUN'
p470
F1.0
s(lp471
(g63
I7
tp472
atp473
a(S'stellen'
p474
(dp475
S'VERB'
p476
F0.999894
sS'NOUN'
p477
F0.000106
s(lp478
tp479
a(S'een'
p480
(dp481
S'ADJ'
p482
F7e-06
sS'PRON'
p483
F7.4e-05
sS'NUM'
p484
F0.0
sS'DET'
p485
F0.999919
s(lp486
(g116
I16
tp487
atp488
a(S'belasting'
p489
(dp490
S'NOUN'
p491
F1.0
s(lp492
(g124
I19
tp493
atp494
a(S'op'
p495
(dp496
S'ADV'
p497
F0.04575
sS'ADJ'
p498
F1e-06
sS'ADP'
p499
F0.954248
s(lp500
(g167
I21
tp501
atp502
a(S'financi\xc3\xable'
p503
(dp504
S'NOUN'
p505
F0.000257
sS'ADJ'
p506
F0.999743
s(lp507
(g152
I17
tp508
atp509
a(S'transacties'
p510
(dp511
S'NOUN'
p512
F1.0
s(lp513
(g131
I18
tp514
atp515
a(S'voor'
p516
(dp517
S'ADV'
p518
F0.170244
sS'CONJ'
p519
F0.000102
sS'NOUN'
p520
F3.9e-05
sS'ADP'
p521
F0.829615
s(lp522
(g107
I15
tp523
atp524
a(g175
(dp525
g157
F1.0
s(lp526
(g175
I23
tp527
atp528
a(S'waarvan'
p529
(dp530
S'ADV'
p531
F1.0
s(lp532
(g184
I27
tp533
atp534
a(S'de'
p535
(dp536
S'DET'
p537
F1.0
s(lp538
(g193
I24
tp539
atp540
a(S'opbrengst'
p541
(dp542
S'NOUN'
p543
F1.0
s(lp544
(g200
I25
tp545
atp546
a(S'naar'
p547
(dp548
S'CONJ'
p549
F0.001654
sS'ADJ'
p550
F0.0
sS'ADP'
p551
F0.998346
s(lp552
(g234
I26
tp553
atp554
a(S'de'
p555
(dp556
S'DET'
p557
F1.0
s(lp558
(g220
I31
tp559
atp560
a(S'eu-begroting'
p561
(dp562
S'NOUN'
p563
F1.0
s(lp564
(g227
I33
tp565
atp566
a(S'zou'
p567
(dp568
S'VERB'
p569
F1.0
s(lp570
(g414
I28
tp571
atp572
a(S'gaan'
p573
(dp574
S'VERB'
p575
F0.999998
sS'NOUN'
p576
F2e-06
s(lp577
(g420
I29
tp578
atp579
a(g157
(dp580
g157
F1.0
s(lp581
(g157
I34
tp582
atp583
asS'de'
p584
(lp585
(S'die'
p586
(dp587
S'PRON'
p588
F0.001164
sS'DET'
p589
F0.998507
s(lp590
(g8
I0
tp591
atp592
a(S'fraktion'
p593
(dp594
S'ADJ'
p595
F9.3e-05
sS'NOUN'
p596
F0.99978
s(lp597
(g16
I1
tp598
atp599
a(S'der'
p600
(dp601
S'PRON'
p602
F8.6e-05
sS'DET'
p603
F0.999906
s(lp604
(g32
I3
tp605
atp606
a(S'progressiven'
p607
(dp608
S'ADJ'
p609
F1.0
s(lp610
(g47
I4
tp611
atp612
a(S'allianz'
p613
(dp614
S'NOUN'
p615
F0.999943
s(lp616
(g39
I5
tp617
atp618
a(S'der'
p619
(dp620
S'PRON'
p621
F8.7e-05
sS'DET'
p622
F0.999903
s(lp623
(g55
I6
tp624
atp625
a(S'sozialisten'
p626
(dp627
S'NOUN'
p628
F0.112897
sS'ADJ'
p629
F0.854783
s(lp630
tp631
a(S'&'
p632
(dp633
S'CONJ'
p634
F1.0
s(lp635
(g63
I7
tp636
atp637
a(S'demokraten'
p638
(dp639
S'VERB'
p640
F0.918441
sS'NOUN'
p641
F0.035103
s(lp642
(g78
I9
tp643
atp644
a(S'im'
p645
(dp646
S'ADP'
p647
F1.0
s(lp648
(g85
I10
tp649
atp650
a(S'europ\xc3\xa4ischen'
p651
(dp652
S'ADJ'
p653
F1.0
s(lp654
(g100
I12
tp655
atp656
a(S'parlament'
p657
(dp658
S'ADJ'
p659
F0.004488
sS'NOUN'
p660
F0.992272
s(lp661
(g92
I13
tp662
atp663
a(S'hat'
p664
(dp665
S'VERB'
p666
F1.0
s(lp667
(g339
I14
tp668
atp669
a(S'eine'
p670
(dp671
S'PRON'
p672
F0.06362
sS'DET'
p673
F0.936234
s(lp674
(g116
I16
tp675
atp676
a(S'finanztransaktionssteuer'
p677
(dp678
S'ADJ'
p679
F0.35889
sS'NOUN'
p680
F0.630826
s(lp681
(g131
I18
tp682
atp683
a(S'vorgeschlagen'
p684
(dp685
S'VERB'
p686
F0.994252
sS'ADJ'
p687
F0.005748
s(lp688
(g107
I15
tp689
atp690
a(g157
(dp691
g157
F1.0
s(lp692
(g170
I22
tp693
atp694
a(S'die'
p695
(dp696
S'PRON'
p697
F0.130052
sS'DET'
p698
F0.79695
s(lp699
(g193
I24
tp700
atp701
a(S'aus'
p702
(dp703
S'ADP'
p704
F0.999021
s(lp705
(g200
I25
tp706
atp707
a(S'dieser'
p708
(dp709
S'PRON'
p710
F1.0
s(lp711
(g200
I25
tp712
atp713
a(S'steuer'
p714
(dp715
S'VERB'
p716
F1.0
s(lp717
(g124
I19
tp718
atp719
a(S'erwirtschafteten'
p720
(dp721
S'VERB'
p722
F0.619522
sS'ADJ'
p723
F0.380478
s(lp724
(g167
I21
tp725
atp726
a(S'einnahmen'
p727
(dp728
S'VERB'
p729
F1.0
s(lp730
tp731
a(S'w\xc3\xbcrden'
p732
(dp733
S'VERB'
p734
F1.0
s(lp735
(g414
I28
tp736
atp737
a(S'in'
p738
(dp739
S'ADP'
p740
F1.0
s(lp741
(g428
I30
tp742
atp743
a(S'den'
p744
(dp745
S'PRON'
p746
F0.000155
sS'DET'
p747
F0.99984
s(lp748
(g220
I31
tp749
atp750
a(S'eu-haushalt'
p751
(dp752
S'ADJ'
p753
F0.042212
sS'NOUN'
p754
F0.94432
s(lp755
(g227
I33
tp756
atp757
a(S'einflie\xc3\x9fen'
p758
(dp759
S'VERB'
p760
F1.0
s(lp761
(g200
I25
tp762
atp763
a(g157
(dp764
g157
F1.0
s(lp765
(g157
I34
tp766
atp767
asS'it'
p768
(lp769
(S'il'
p770
(dp771
S'DET'
p772
F1.0
s(lp773
(g8
I0
tp774
atp775
a(S'gruppo'
p776
(dp777
S'NOUN'
p778
F1.0
s(lp779
(g16
I1
tp780
atp781
a(S"dell'"
p782
(dp783
S'ADJ'
p784
F0.040682
sS'VERB'
p785
F0.006560999999999999
sS'NOUN'
p786
F0.952757
s(lp787
(g23
I2
tp788
atp789
a(S'alleanza'
p790
(dp791
S'NOUN'
p792
F1.0
s(lp793
(g39
I5
tp794
atp795
a(S'progressista'
p796
(dp797
S'NOUN'
p798
F1.0
s(lp799
(g47
I4
tp800
atp801
a(S'di'
p802
(dp803
S'CONJ'
p804
F1e-05
sS'ADP'
p805
F0.99999
s(lp806
(g55
I6
tp807
atp808
a(S'socialisti'
p809
(dp810
S'NOUN'
p811
F0.482588
sS'ADJ'
p812
F0.517412
s(lp813
(g63
I7
tp814
atp815
a(S'e'
p816
(dp817
S'CONJ'
p818
F1.0
s(lp819
(g70
I8
tp820
atp821
a(S'democratici'
p822
(dp823
S'NOUN'
p824
F0.197652
sS'ADJ'
p825
F0.802348
s(lp826
(g78
I9
tp827
atp828
a(S'al'
p829
(dp830
S'ADP'
p831
F1.0
s(lp832
(g85
I10
tp833
atp834
a(S'parlamento'
p835
(dp836
S'VERB'
p837
F0.00032
sS'NOUN'
p838
F0.99968
s(lp839
(g92
I13
tp840
atp841
a(S'europeo'
p842
(dp843
S'NOUN'
p844
F0.002419
sS'ADJ'
p845
F0.997581
s(lp846
(g100
I12
tp847
atp848
a(S'propone'
p849
(dp850
S'VERB'
p851
F1.0
s(lp852
(g107
I15
tp853
atp854
a(S'una'
p855
(dp856
S'PRON'
p857
F8.1e-05
sS'DEF'
p858
F0.999919
s(lp859
(g116
I16
tp860
atp861
a(S'tassa'
p862
(dp863
S'VERB'
p864
F2.9e-05
sS'NOUN'
p865
F0.999971
s(lp866
(g124
I19
tp867
atp868
a(S'sulle'
p869
(dp870
S'NOUN'
p871
F7e-06
sS'ADP'
p872
F0.999993
s(lp873
(g131
I18
tp874
atp875
a(S'transazioni'
p876
(dp877
S'NOUN'
p878
F1.0
s(lp879
tp880
a(S'commerciali'
p881
(dp882
S'VERB'
p883
F1e-06
sS'ADJ'
p884
F0.999999
s(lp885
(g131
I18
tp886
atp887
a(S'il'
p888
(dp889
S'DET'
p890
F1.0
s(lp891
(g193
I24
tp892
atp893
a(S'cui'
p894
(dp895
S'PRON'
p896
F1.0
s(lp897
(g184
I27
tp898
atp899
a(S'gettito'
p900
(dp901
S'NOUN'
p902
F1.0
s(lp903
(g200
I25
tp904
atp905
a(S'affluirebbe'
p906
(dp907
S'VERB'
p908
F1.0
s(lp909
(g167
I21
tp910
atp911
a(S'nel'
p912
(dp913
S'ADP'
p914
F1.0
s(lp915
(g220
I31
tp916
atp917
a(S'bilancio'
p918
(dp919
S'VERB'
p920
F0.000224
sS'NOUN'
p921
F0.999776
s(lp922
(g227
I33
tp923
atp924
a(S"dell'"
p925
(dp926
S'ADJ'
p927
F0.040675
sS'VERB'
p928
F0.0065840000000000004
sS'NOUN'
p929
F0.952742
s(lp930
(g249
I32
tp931
atp932
a(S'unione'
p933
(dp934
S'NOUN'
p935
F1.0
s(lp936
tp937
a(S'europea'
p938
(dp939
S'NOUN'
p940
F0.001561
sS'ADJ'
p941
F0.998439
s(lp942
(g249
I32
tp943
atp944
a(g157
(dp945
g157
F1.0
s(lp946
(g157
I34
tp947
atp948
asS'sk'
p949
(lp950
(S'skupina'
p951
(dp952
S'NOUN'
p953
F1.0
s(lp954
(g16
I1
tp955
atp956
a(S'progres\xc3\xadvnej'
p957
(dp958
S'ADJ'
p959
F1.0
s(lp960
(g47
I4
tp961
atp962
a(S'aliancie'
p963
(dp964
S'NOUN'
p965
F1.0
s(lp966
(g39
I5
tp967
atp968
a(S'socialistov'
p969
(dp970
S'NOUN'
p971
F1.0
s(lp972
(g63
I7
tp973
atp974
a(g116
(dp975
S'X'
p976
F0.000697
sS'CONJ'
p977
F0.998698
sS'NOUN'
p978
F5.7e-05
sS'ADP'
p979
F0.000484
sS'PRT'
p980
F6.4e-05
s(lp981
(g70
I8
tp982
atp983
a(S'demokratov'
p984
(dp985
S'NOUN'
p986
F1.0
s(lp987
(g78
I9
tp988
atp989
a(S'v'
p990
(dp991
g976
F4.2e-05
sS'ADP'
p992
F0.999958
s(lp993
(g85
I10
tp994
atp995
a(S'eur\xc3\xb3pskom'
p996
(dp997
S'ADJ'
p998
F1.0
s(lp999
(g100
I12
tp1000
atp1001
a(S'parlamente'
p1002
(dp1003
S'NOUN'
p1004
F1.0
s(lp1005
(g92
I13
tp1006
atp1007
a(S'navrhuje'
p1008
(dp1009
S'VERB'
p1010
F1.0
s(lp1011
(g107
I15
tp1012
atp1013
a(S'da\xc5\x88'
p1014
(dp1015
S'NOUN'
p1016
F1.0
s(lp1017
(g124
I19
tp1018
atp1019
a(S'z'
p1020
(dp1021
g976
F0.000114
sS'NOUN'
p1022
F5.5e-05
sS'ADP'
p1023
F0.999832
s(lp1024
(g167
I21
tp1025
atp1026
a(S'finan\xc4\x8dn\xc3\xbdch'
p1027
(dp1028
S'ADJ'
p1029
F1.0
s(lp1030
(g167
I21
tp1031
atp1032
a(S'transakci\xc3\xad'
p1033
(dp1034
S'NOUN'
p1035
F1.0
s(lp1036
tp1037
a(g175
(dp1038
g157
F1.0
s(lp1039
(g175
I23
tp1040
atp1041
a(S'v\xc3\xbdnos'
p1042
(dp1043
S'NOUN'
p1044
F1.0
s(lp1045
(g200
I25
tp1046
atp1047
a(g1020
(dp1048
g976
F6.500000000000001e-05
sS'NOUN'
p1049
F1.9e-05
sS'ADP'
p1050
F0.999916
s(lp1051
(g167
I21
tp1052
atp1053
a(S'ktorej'
p1054
(dp1055
S'PRON'
p1056
F1.0
s(lp1057
(g184
I27
tp1058
atp1059
a(S'by'
p1060
(dp1061
S'PRT'
p1062
F0.999996
sg976
F3e-06
s(lp1063
(g414
I28
tp1064
atp1065
a(S'\xc5\xa1iel'
p1066
(dp1067
S'VERB'
p1068
F0.9999999999999999
s(lp1069
(g420
I29
tp1070
atp1071
a(S'do'
p1072
(dp1073
S'PRON'
p1074
F0.000139
sS'ADP'
p1075
F0.999746
sg976
F0.000115
s(lp1076
(g428
I30
tp1077
atp1078
a(S'rozpo\xc4\x8dtu'
p1079
(dp1080
S'NOUN'
p1081
F1.0
s(lp1082
(g227
I33
tp1083
atp1084
a(S'e\xc3\x9a'
p1085
(dp1086
S'ADV'
p1087
F0.006274
sS'ADJ'
p1088
F0.343186
sS'VERB'
p1089
F0.269887
sS'NOUN'
p1090
F0.365624
sg976
F0.01503
s(lp1091
(g249
I32
tp1092
atp1093
a(g157
(dp1094
g157
F1.0
s(lp1095
(g157
I34
tp1096
atp1097
asS'pl'
p1098
(lp1099
(S'grupa'
p1100
(dp1101
S'NOUN'
p1102
F1.0
s(lp1103
(g16
I1
tp1104
atp1105
a(S'post\xc4\x99powego'
p1106
(dp1107
S'ADJ'
p1108
F1.0
s(lp1109
(g47
I4
tp1110
atp1111
a(S'sojuszu'
p1112
(dp1113
S'NOUN'
p1114
F1.0
s(lp1115
(g39
I5
tp1116
atp1117
a(S'socjalist\xc3\xb3w'
p1118
(dp1119
S'NOUN'
p1120
F1.0
s(lp1121
(g63
I7
tp1122
atp1123
a(S'i'
p1124
(dp1125
S'PRT'
p1126
F0.000644
sS'CONJ'
p1127
F0.999301
sS'NOUN'
p1128
F5.2000000000000004e-05
sg976
F1e-06
sS'PRON'
p1129
F1e-06
s(lp1130
(g70
I8
tp1131
atp1132
a(S'demokrat\xc3\xb3w'
p1133
(dp1134
S'NOUN'
p1135
F1.0
s(lp1136
(g78
I9
tp1137
atp1138
a(S'w'
p1139
(dp1140
S'ADJ'
p1141
F0.0
sg976
F0.0
sS'NOUN'
p1142
F0.0
sS'ADP'
p1143
F1.0
s(lp1144
(g85
I10
tp1145
atp1146
a(S'parlamencie'
p1147
(dp1148
S'NOUN'
p1149
F1.0
s(lp1150
(g92
I13
tp1151
atp1152
a(S'europejskim'
p1153
(dp1154
S'ADJ'
p1155
F1.0
s(lp1156
(g100
I12
tp1157
atp1158
a(S'proponuje'
p1159
(dp1160
S'VERB'
p1161
F1.0
s(lp1162
(g107
I15
tp1163
atp1164
a(S'podatek'
p1165
(dp1166
S'NOUN'
p1167
F1.0
s(lp1168
(g131
I18
tp1169
atp1170
a(S'od'
p1171
(dp1172
S'VERB'
p1173
F1.8e-05
sS'NOUN'
p1174
F0.000113
sS'ADP'
p1175
F0.999869
s(lp1176
tp1177
a(S'transakcji'
p1178
(dp1179
S'NOUN'
p1180
F1.0
s(lp1181
(g131
I18
tp1182
atp1183
a(S'finansowych'
p1184
(dp1185
S'ADJ'
p1186
F1.000001
s(lp1187
(g152
I17
tp1188
atp1189
a(g155
(dp1190
S'NOUN'
p1191
F4.1e-05
sg157
F0.999959
s(lp1192
(g155
I20
tp1193
atp1194
a(S'ftt'
p1195
(dp1196
S'ADV'
p1197
F0.001987
sg976
F0.005071
sS'ADJ'
p1198
F0.000858
sS'NOUN'
p1199
F0.992084
s(lp1200
(g167
I21
tp1201
atp1202
a(g170
(dp1203
g157
F1.0
s(lp1204
(g170
I22
tp1205
atp1206
a(g175
(dp1207
g976
F3e-06
sg157
F0.999997
s(lp1208
(g175
I23
tp1209
atp1210
a(g1020
(dp1211
g976
F1.7e-05
sS'VERB'
p1212
F3e-05
sS'NOUN'
p1213
F3.3e-05
sS'ADP'
p1214
F0.999917
sS'PRT'
p1215
F4e-06
s(lp1216
(g234
I26
tp1217
atp1218
a(S'kt\xc3\xb3rego'
p1219
(dp1220
S'ADJ'
p1221
F1.0000000000000002
s(lp1222
(g184
I27
tp1223
atp1224
a(S'wp\xc5\x82ywy'
p1225
(dp1226
S'NOUN'
p1227
F1.0
s(lp1228
tp1229
a(S'zasila\xc5\x82yby'
p1230
(dp1231
S'ADV'
p1232
F0.00085
sS'NOUN'
p1233
F0.8048130000000001
sS'PRT'
p1234
F0.009603
sS'VERB'
p1235
F0.027137
sS'CONJ'
p1236
F0.013374
sS'ADJ'
p1237
F0.144224
s(lp1238
(g200
I25
tp1239
atp1240
a(S'bud\xc5\xbcet'
p1241
(dp1242
S'NOUN'
p1243
F1.0
s(lp1244
(g227
I33
tp1245
atp1246
a(S'ue'
p1247
(dp1248
S'ADJ'
p1249
F8.8e-05
sS'VERB'
p1250
F0.001389
sS'NOUN'
p1251
F0.998521
s(lp1252
(g249
I32
tp1253
atp1254
a(g157
(dp1255
g157
F1.0
s(lp1256
(g157
I34
tp1257
atp1258
asS'sl'
p1259
(lp1260
(S'skupina'
p1261
(dp1262
S'NOUN'
p1263
F1.0
s(lp1264
(g16
I1
tp1265
atp1266
a(S'naprednega'
p1267
(dp1268
S'ADV'
p1269
F8e-06
sS'NOUN'
p1270
F0.000653
sS'VERB'
p1271
F7.099999999999999e-05
sS'ADJ'
p1272
F0.999268
s(lp1273
(g47
I4
tp1274
atp1275
a(S'zavezni\xc5\xa1tva'
p1276
(dp1277
S'NOUN'
p1278
F1.0
s(lp1279
(g39
I5
tp1280
atp1281
a(S'socialistov'
p1282
(dp1283
S'NOUN'
p1284
F1.0
s(lp1285
(g63
I7
tp1286
atp1287
a(S'in'
p1288
(dp1289
S'ADV'
p1290
F0.0001
sg976
F9e-06
sS'CONJ'
p1291
F0.999859
sS'NOUN'
p1292
F3.1e-05
s(lp1293
(g70
I8
tp1294
atp1295
a(S'demokratov'
p1296
(dp1297
S'NOUN'
p1298
F1.0
s(lp1299
(g78
I9
tp1300
atp1301
a(g990
(dp1302
S'ADP'
p1303
F1.0
s(lp1304
(g85
I10
tp1305
atp1306
a(S'evropskem'
p1307
(dp1308
S'ADJ'
p1309
F1.0
s(lp1310
(g100
I12
tp1311
atp1312
a(S'parlamentu'
p1313
(dp1314
S'NOUN'
p1315
F1.0
s(lp1316
(g92
I13
tp1317
atp1318
a(S'predlaga'
p1319
(dp1320
S'VERB'
p1321
F1.0
s(lp1322
(g107
I15
tp1323
atp1324
a(S'davek'
p1325
(dp1326
S'NOUN'
p1327
F1.0
s(lp1328
(g124
I19
tp1329
atp1330
a(S'na'
p1331
(dp1332
S'ADP'
p1333
F1.0
s(lp1334
(g167
I21
tp1335
atp1336
a(S'finan\xc4\x8dne'
p1337
(dp1338
S'ADJ'
p1339
F1.0
s(lp1340
tp1341
a(S'transakcije'
p1342
(dp1343
S'NOUN'
p1344
F1.0
s(lp1345
(g167
I21
tp1346
atp1347
a(g175
(dp1348
g157
F1.0
s(lp1349
(g175
I23
tp1350
atp1351
a(S'prihodki'
p1352
(dp1353
S'NOUN'
p1354
F1.0
s(lp1355
(g200
I25
tp1356
atp1357
a(S'pa'
p1358
(dp1359
g976
F0.000136
sS'CONJ'
p1360
F0.999864
s(lp1361
(g184
I27
tp1362
atp1363
a(S'bi'
p1364
(dp1365
g976
F1.8e-05
sS'VERB'
p1366
F0.999982
s(lp1367
(g414
I28
tp1368
atp1369
a(S'\xc5\xa1li'
p1370
(dp1371
S'VERB'
p1372
F1.0
s(lp1373
(g420
I29
tp1374
atp1375
a(g990
(dp1376
S'ADP'
p1377
F1.0
s(lp1378
(g428
I30
tp1379
atp1380
a(S'prora\xc4\x8dun'
p1381
(dp1382
S'NOUN'
p1383
F1.0
s(lp1384
(g227
I33
tp1385
atp1386
a(S'eu'
p1387
(dp1388
S'ADV'
p1389
F0.003441
sS'ADJ'
p1390
F0.03532
sS'VERB'
p1391
F0.002607
sS'NOUN'
p1392
F0.958632
s(lp1393
(g249
I32
tp1394
atp1395
a(g157
(dp1396
g157
F1.0
s(lp1397
(g157
I34
tp1398
atp1399
asS'es'
p1400
(lp1401
(S'el'
p1402
(dp1403
S'PRON'
p1404
F1e-05
sS'DET'
p1405
F0.99999
s(lp1406
(g8
I0
tp1407
atp1408
a(S'grupo'
p1409
(dp1410
S'NOUN'
p1411
F1.0
s(lp1412
(g16
I1
tp1413
atp1414
a(S'de'
p1415
(dp1416
g976
F0.0
sS'CONJ'
p1417
F1.7e-05
sS'ADP'
p1418
F0.999983
s(lp1419
(g23
I2
tp1420
atp1421
a(S'la'
p1422
(dp1423
g976
F0.0
sS'PRON'
p1424
F0.0
sS'DET'
p1425
F0.999999
sS'NOUN'
p1426
F0.0
s(lp1427
(g32
I3
tp1428
atp1429
a(S'alianza'
p1430
(dp1431
S'NOUN'
p1432
F1.0
s(lp1433
(g39
I5
tp1434
atp1435
a(S'de'
p1436
(dp1437
g976
F0.000112
sS'CONJ'
p1438
F0.000561
sS'ADP'
p1439
F0.999327
s(lp1440
(g55
I6
tp1441
atp1442
a(S'socialistas'
p1443
(dp1444
S'ADJ'
p1445
F0.306764
sS'NOUN'
p1446
F0.693236
s(lp1447
(g63
I7
tp1448
atp1449
a(S'y'
p1450
(dp1451
g976
F0.001169
sS'CONJ'
p1452
F0.998831
s(lp1453
(g70
I8
tp1454
atp1455
a(S'dem\xc3\xb3cratas'
p1456
(dp1457
S'ADJ'
p1458
F0.397416
sS'NOUN'
p1459
F0.602584
s(lp1460
(g78
I9
tp1461
atp1462
a(S'en'
p1463
(dp1464
g976
F0.0
sS'CONJ'
p1465
F1e-06
sS'ADP'
p1466
F0.999999
s(lp1467
(g85
I10
tp1468
atp1469
a(S'el'
p1470
(dp1471
S'PRON'
p1472
F7e-05
sS'DET'
p1473
F0.99993
s(lp1474
(g320
I11
tp1475
atp1476
a(S'parlamento'
p1477
(dp1478
S'VERB'
p1479
F0.000154
sS'NOUN'
p1480
F0.999846
s(lp1481
(g92
I13
tp1482
atp1483
a(S'europeo'
p1484
(dp1485
S'NOUN'
p1486
F0.001104
sS'ADJ'
p1487
F0.998896
s(lp1488
(g100
I12
tp1489
atp1490
a(S'propone'
p1491
(dp1492
S'VERB'
p1493
F1.0
s(lp1494
(g107
I15
tp1495
atp1496
a(S'un'
p1497
(dp1498
g976
F0.0
sS'DET'
p1499
F1.0
s(lp1500
(g116
I16
tp1501
atp1502
a(S'impuesto'
p1503
(dp1504
S'VERB'
p1505
F1.0
s(lp1506
tp1507
a(S'sobre'
p1508
(dp1509
S'NOUN'
p1510
F0.0
sS'ADP'
p1511
F1.0
s(lp1512
(g124
I19
tp1513
atp1514
a(S'las'
p1515
(dp1516
S'PRON'
p1517
F0.0
sS'DET'
p1518
F1.0
s(lp1519
tp1520
a(S'transacciones'
p1521
(dp1522
S'NOUN'
p1523
F1.0
s(lp1524
(g131
I18
tp1525
atp1526
a(S'financieras'
p1527
(dp1528
S'NOUN'
p1529
F0.009092
sS'ADJ'
p1530
F0.990908
s(lp1531
(g152
I17
tp1532
atp1533
a(g175
(dp1534
g157
F1.0
s(lp1535
(g175
I23
tp1536
atp1537
a(S'cuya'
p1538
(dp1539
S'CONJ'
p1540
F1.0
s(lp1541
(g184
I27
tp1542
atp1543
a(S'recaudaci\xc3\xb3n'
p1544
(dp1545
S'NOUN'
p1546
F1.0
s(lp1547
(g200
I25
tp1548
atp1549
a(S'se'
p1550
(dp1551
S'PRON'
p1552
F1.0
sS'VERB'
p1553
F0.0
s(lp1554
(g420
I29
tp1555
atp1556
a(S'destinar\xc3\xada'
p1557
(dp1558
S'VERB'
p1559
F1.0
s(lp1560
(g167
I21
tp1561
atp1562
a(S'al'
p1563
(dp1564
S'CONJ'
p1565
F0.000716
sS'ADP'
p1566
F0.999285
s(lp1567
(g220
I31
tp1568
atp1569
a(S'presupuesto'
p1570
(dp1571
S'VERB'
p1572
F0.094839
sS'NOUN'
p1573
F0.905161
s(lp1574
(g227
I33
tp1575
atp1576
a(S'de'
p1577
(dp1578
g976
F0.0
sS'CONJ'
p1579
F1.8e-05
sS'ADP'
p1580
F0.999982
s(lp1581
(g428
I30
tp1582
atp1583
a(S'la'
p1584
(dp1585
g976
F0.0
sS'PRON'
p1586
F0.0
sS'DET'
p1587
F0.999999
sS'NOUN'
p1588
F0.0
s(lp1589
tp1590
a(S'ue'
p1591
(dp1592
S'VERB'
p1593
F4e-06
sS'NOUN'
p1594
F0.999997
s(lp1595
(g249
I32
tp1596
atp1597
a(g157
(dp1598
g157
F1.0
s(lp1599
(g157
I34
tp1600
atp1601
as.