(dp0
S'fr'
p1
(lp2
(S'les'
p3
(dp4
S'PRON'
p5
F0.000397
sS'DET'
p6
F0.99958
sS'ADP'
p7
F2.3e-05
s(lp8
(S'the'
p9
I8
tp10
atp11
a(S'millions'
p12
(dp13
S'NOUN'
p14
F1.0
s(lp15
(S'millions'
p16
I9
tp17
atp18
a(S'de'
p19
(dp20
S'ADP'
p21
F1.0
s(lp22
(S'of'
p23
I10
tp24
atp25
a(S'petits'
p26
(dp27
S'NOUN'
p28
F0.041333
sS'ADJ'
p29
F0.958667
s(lp30
(S'small'
p31
I11
tp32
atp33
a(S'agriculteurs'
p34
(dp35
S'NOUN'
p36
F1.0
s(lp37
(S'farmers'
p38
I12
tp39
atp40
a(S'et'
p41
(dp42
S'CONJ'
p43
F1.0
s(lp44
(S'and'
p45
I13
tp46
atp47
a(S"d'"
p48
(dp49
S'NOUN'
p50
F0.050387
sS'VERB'
p51
F0.8915730000000001
sS'ADJ'
p52
F0.05804
s(lp53
(S'landless'
p54
I14
tp55
atp56
a(S'agriculteurs'
p57
(dp58
S'NOUN'
p59
F1.0
s(lp60
(S'farmers'
p61
I15
tp62
atp63
a(S'sans'
p64
(dp65
S'CONJ'
p66
F0.003284
sS'ADP'
p67
F0.996716
s(lp68
tp69
a(S'terre'
p70
(dp71
S'VERB'
p72
F0.00026799999999999995
sS'NOUN'
p73
F0.999732
s(lp74
(g54
I14
tp75
atp76
a(S"aujourd'"
p77
(dp78
S'NOUN'
p79
F0.0491
sS'VERB'
p80
F0.08581900000000002
sS'ADJ'
p81
F0.86508
s(lp82
tp83
a(S'hui'
p84
(dp85
S'ADJ'
p86
F0.0266
sS'VERB'
p87
F0.713093
sS'NOUN'
p88
F0.26030800000000004
s(lp89
(S'now'
p90
I16
tp91
atp92
a(S'\xc3\xa0'
p93
(dp94
S'ADP'
p95
F1.0
s(lp96
(S'at'
p97
I17
tp98
atp99
a(S'la'
p100
(dp101
S'PRON'
p102
F1.2e-05
sS'DET'
p103
F0.999988
sS'NOUN'
p104
F0.0
s(lp105
(S'the'
p106
I18
tp107
atp108
a(S'merci'
p109
(dp110
S'NOUN'
p111
F1.0
s(lp112
(S'mercy'
p113
I19
tp114
atp115
a(S'des'
p116
(dp117
S'DET'
p118
F3.2e-05
sS'ADP'
p119
F0.999968
s(lp120
(S'of'
p121
I20
tp122
atp123
a(S'grands'
p124
(dp125
S'ADJ'
p126
F1.0
s(lp127
(S'landlord'
p128
I22
tp129
atp130
a(S'propri\xc3\xa9taires'
p131
(dp132
S'ADJ'
p133
F0.006995
sS'NOUN'
p134
F0.993005
s(lp135
tp136
a(S'fonciers'
p137
(dp138
S'ADJ'
p139
F1.0
s(lp140
(g128
I22
tp141
atp142
a(S'sont'
p143
(dp144
S'VERB'
p145
F1.0
s(lp146
(S'are'
p147
I7
tp148
atp149
a(S'essentiels'
p150
(dp151
S'NOUN'
p152
F0.092575
sS'ADJ'
p153
F0.907425
s(lp154
(S'critical'
p155
I0
tp156
atp157
a(S'pour'
p158
(dp159
S'CONJ'
p160
F0.249901
sS'ADP'
p161
F0.750099
s(lp162
(S'to'
p163
I1
tp164
atp165
a(S'la'
p166
(dp167
S'PRON'
p168
F3.4e-05
sS'DET'
p169
F0.999966
sS'NOUN'
p170
F0.0
s(lp171
tp172
a(S'production'
p173
(dp174
S'NOUN'
p175
F1.0
s(lp176
(S'production'
p177
I3
tp178
atp179
a(S'alimentaire'
p180
(dp181
S'ADJ'
p182
F1.0
s(lp183
(S'food'
p184
I2
tp185
atp186
a(S'\xc3\xa0'
p187
(dp188
S'ADP'
p189
F1.0
s(lp190
(S'at'
p191
I4
tp192
atp193
a(S'des'
p194
(dp195
S'DET'
p196
F0.00067
sS'ADP'
p197
F0.99933
s(lp198
tp199
a(S'prix'
p200
(dp201
S'NOUN'
p202
F1.0
s(lp203
(S'prices'
p204
I6
tp205
atp206
a(S'abordables'
p207
(dp208
S'ADJ'
p209
F1.0
s(lp210
(S'affordable'
p211
I5
tp212
atp213
a(S'.'
p214
(dp215
g214
F1.0
s(lp216
(g214
I24
tp217
atp218
asS'en'
p219
(lp220
(g155
(dp221
S'ADJ'
p222
F1.0
s(lp223
(g155
I0
tp224
atp225
a(g163
(dp226
S'ADV'
p227
F0.0
sS'PRT'
p228
F0.999993
sS'ADP'
p229
F7e-06
s(lp230
(g163
I1
tp231
atp232
a(g184
(dp233
S'NOUN'
p234
F1.0
s(lp235
(g184
I2
tp236
atp237
a(g177
(dp238
S'NOUN'
p239
F1.0
s(lp240
(g177
I3
tp241
atp242
a(g191
(dp243
S'NOUN'
p244
F8.000000000000001e-06
sS'ADP'
p245
F0.999992
s(lp246
(g191
I4
tp247
atp248
a(g211
(dp249
S'ADJ'
p250
F1.0
s(lp251
(g211
I5
tp252
atp253
a(g204
(dp254
S'VERB'
p255
F0.0
sS'NOUN'
p256
F1.0
s(lp257
(g204
I6
tp258
atp259
a(g147
(dp260
S'VERB'
p261
F0.999999
sS'NOUN'
p262
F1e-06
s(lp263
(g147
I7
tp264
atp265
a(g9
(dp266
S'NOUN'
p267
F1.2e-05
sS'DET'
p268
F0.999988
s(lp269
(g9
I8
tp270
atp271
a(g16
(dp272
S'NOUN'
p273
F1.0
s(lp274
(g16
I9
tp275
atp276
a(g23
(dp277
S'ADP'
p278
F1.0
s(lp279
(g23
I10
tp280
atp281
a(g31
(dp282
S'ADV'
p283
F3e-06
sS'NOUN'
p284
F8.8e-05
sS'ADJ'
p285
F0.999908
s(lp286
(g31
I11
tp287
atp288
a(g38
(dp289
S'NOUN'
p290
F1.0
s(lp291
(g38
I12
tp292
atp293
a(g45
(dp294
S'CONJ'
p295
F1.0
sS'NOUN'
p296
F0.0
s(lp297
(g45
I13
tp298
atp299
a(g54
(dp300
S'ADJ'
p301
F1.0
s(lp302
(g54
I14
tp303
atp304
a(g61
(dp305
S'NOUN'
p306
F1.0
s(lp307
(g61
I15
tp308
atp309
a(g90
(dp310
S'ADV'
p311
F0.999664
sS'NOUN'
p312
F4e-06
sS'ADP'
p313
F0.000332
s(lp314
(g90
I16
tp315
atp316
a(g97
(dp317
S'NOUN'
p318
F0.0
sS'ADP'
p319
F1.0
s(lp320
(g97
I17
tp321
atp322
a(g106
(dp323
S'NOUN'
p324
F1e-06
sS'DET'
p325
F0.999999
s(lp326
(g106
I18
tp327
atp328
a(g113
(dp329
S'NOUN'
p330
F1.0
s(lp331
(g113
I19
tp332
atp333
a(g121
(dp334
S'ADP'
p335
F1.0
s(lp336
(g121
I20
tp337
atp338
a(S'the'
p339
(dp340
S'NOUN'
p341
F1e-06
sS'DET'
p342
F0.999999
s(lp343
(g339
I21
tp344
atp345
a(g128
(dp346
S'NOUN'
p347
F1.0
s(lp348
(g128
I22
tp349
atp350
a(S'class'
p351
(dp352
S'VERB'
p353
F0.000198
sS'NOUN'
p354
F0.999802
s(lp355
(g351
I23
tp356
atp357
a(g214
(dp358
g214
F1.0
s(lp359
(g214
I24
tp360
atp361
asS'nl'
p362
(lp363
(S'de'
p364
(dp365
S'DET'
p366
F1.0
s(lp367
(g9
I8
tp368
atp369
a(S'miljoenen'
p370
(dp371
S'NOUN'
p372
F1.0
s(lp373
(g16
I9
tp374
atp375
a(S'kleine'
p376
(dp377
S'NOUN'
p378
F0.000326
sS'ADJ'
p379
F0.999674
s(lp380
(g31
I11
tp381
atp382
a(S'boeren'
p383
(dp384
S'VERB'
p385
F0.04849
sS'NOUN'
p386
F0.9515100000000001
s(lp387
(g38
I12
tp388
atp389
a(S'en'
p390
(dp391
S'CONJ'
p392
F1.0
s(lp393
(g45
I13
tp394
atp395
a(S'landloze'
p396
(dp397
S'NOUN'
p398
F0.29638000000000003
sS'ADJ'
p399
F0.70362
s(lp400
(g54
I14
tp401
atp402
a(S'boeren'
p403
(dp404
S'VERB'
p405
F0.316175
sS'NOUN'
p406
F0.683825
s(lp407
(g61
I15
tp408
atp409
a(S'die'
p410
(dp411
S'PRON'
p412
F1.0
s(lp413
tp414
a(S'nu'
p415
(dp416
S'ADV'
p417
F0.997886
sS'CONJ'
p418
F0.001896
sS'NOUN'
p419
F0.000218
s(lp420
(g90
I16
tp421
atp422
a(S'zijn'
p423
(dp424
S'PRON'
p425
F0.017844
sS'VERB'
p426
F0.982143
sS'NOUN'
p427
F1.3e-05
s(lp428
tp429
a(S'overgeleverd'
p430
(dp431
S'VERB'
p432
F1.0
s(lp433
tp434
a(S'aan'
p435
(dp436
S'ADV'
p437
F0.000278
sS'ADP'
p438
F0.999722
s(lp439
(g97
I17
tp440
atp441
a(S'de'
p442
(dp443
S'DET'
p444
F1.0
s(lp445
tp446
a(S'genade'
p447
(dp448
S'NOUN'
p449
F1.0
s(lp450
(g113
I19
tp451
atp452
a(S'van'
p453
(dp454
S'ADP'
p455
F1.0
s(lp456
tp457
a(S'de'
p458
(dp459
S'DET'
p460
F1.0
s(lp461
(g106
I18
tp462
atp463
a(S'klasse'
p464
(dp465
S'NOUN'
p466
F1.0
s(lp467
(g351
I23
tp468
atp469
a(S'van'
p470
(dp471
S'ADP'
p472
F1.0
s(lp473
(g121
I20
tp474
atp475
a(S'de'
p476
(dp477
S'DET'
p478
F1.0
s(lp479
(g339
I21
tp480
atp481
a(S'pachtheren'
p482
(dp483
S'NOUN'
p484
F1.0
s(lp485
(g128
I22
tp486
atp487
a(S','
p488
(dp489
g214
F1.0
s(lp490
tp491
a(S'zijn'
p492
(dp493
S'PRON'
p494
F0.358162
sS'VERB'
p495
F0.641708
sS'NOUN'
p496
F0.00013
s(lp497
(g147
I7
tp498
atp499
a(S'essentieel'
p500
(dp501
S'ADJ'
p502
F1.0
s(lp503
(g155
I0
tp504
atp505
a(S'voor'
p506
(dp507
S'ADV'
p508
F0.000778
sS'CONJ'
p509
F1e-05
sS'NOUN'
p510
F6e-06
sS'ADP'
p511
F0.999206
s(lp512
(g163
I1
tp513
atp514
a(S'voedselproductie'
p515
(dp516
S'NOUN'
p517
F1.0
s(lp518
(g177
I3
tp519
atp520
a(S'tegen'
p521
(dp522
S'ADV'
p523
F0.000574
sS'ADP'
p524
F0.999426
s(lp525
(g191
I4
tp526
atp527
a(S'betaalbare'
p528
(dp529
S'NOUN'
p530
F0.001622
sS'ADJ'
p531
F0.998378
s(lp532
(g211
I5
tp533
atp534
a(S'prijzen'
p535
(dp536
S'VERB'
p537
F0.002719
sS'NOUN'
p538
F0.997281
s(lp539
(g204
I6
tp540
atp541
a(g214
(dp542
g214
F1.0
s(lp543
(g214
I24
tp544
atp545
asS'de'
p546
(lp547
(S'die'
p548
(dp549
S'PRON'
p550
F0.002508
sS'DET'
p551
F0.997147
s(lp552
(g9
I8
tp553
atp554
a(S'kleinbauern'
p555
(dp556
S'ADJ'
p557
F0.002596
sS'NOUN'
p558
F0.995787
s(lp559
(g38
I12
tp560
atp561
a(S'und'
p562
(dp563
S'CONJ'
p564
F1.0
s(lp565
(g45
I13
tp566
atp567
a(S'landlosen'
p568
(dp569
S'ADJ'
p570
F1.0
s(lp571
(g54
I14
tp572
atp573
a(S'bauern'
p574
(dp575
S'VERB'
p576
F0.002838
sS'NOUN'
p577
F0.996376
s(lp578
(g61
I15
tp579
atp580
a(g488
(dp581
g214
F1.0
s(lp582
(g163
I1
tp583
atp584
a(S'die'
p585
(dp586
S'PRON'
p587
F0.969205
sS'DET'
p588
F0.026136
s(lp589
(g339
I21
tp590
atp591
a(S'f\xc3\xbcr'
p592
(dp593
S'ADP'
p594
F1.0
s(lp595
tp596
a(S'die'
p597
(dp598
S'PRON'
p599
F0.000218
sS'DET'
p600
F0.999723
s(lp601
(g177
I3
tp602
atp603
a(S'nahrungsmittelproduktion'
p604
(dp605
S'ADJ'
p606
F0.028246
sS'NOUN'
p607
F0.96104
s(lp608
(g184
I2
tp609
atp610
a(S'zu'
p611
(dp612
S'PRT'
p613
F0.45132
sS'ADP'
p614
F0.525211
s(lp615
(g191
I4
tp616
atp617
a(S'erschwinglichen'
p618
(dp619
S'ADJ'
p620
F1.0
s(lp621
(g211
I5
tp622
atp623
a(S'preisen'
p624
(dp625
S'VERB'
p626
F1.0
s(lp627
(g204
I6
tp628
atp629
a(S'so'
p630
(dp631
S'ADV'
p632
F0.999992
sS'PRON'
p633
F8e-06
s(lp634
tp635
a(S'wichtig'
p636
(dp637
S'ADJ'
p638
F1.0
s(lp639
(g128
I22
tp640
atp641
a(S'sind'
p642
(dp643
S'VERB'
p644
F1.0
s(lp645
(g147
I7
tp646
atp647
a(g488
(dp648
g214
F1.0
s(lp649
(g163
I1
tp650
atp651
a(S'sehen'
p652
(dp653
S'VERB'
p654
F1.0
s(lp655
tp656
a(S'sich'
p657
(dp658
S'PRON'
p659
F1.0
s(lp660
tp661
a(S'nun'
p662
(dp663
S'ADV'
p664
F0.999983
sS'CONJ'
p665
F1.7e-05
s(lp666
(g90
I16
tp667
atp668
a(S'den'
p669
(dp670
S'PRON'
p671
F9.4e-05
sS'DET'
p672
F0.999906
s(lp673
(g106
I18
tp674
atp675
a(S'landbesitzern'
p676
(dp677
S'ADJ'
p678
F0.02296
sS'NOUN'
p679
F0.97704
s(lp680
(g128
I22
tp681
atp682
a(S'ausgeliefert'
p683
(dp684
S'VERB'
p685
F0.97691
sS'ADJ'
p686
F0.02309
s(lp687
(g113
I19
tp688
atp689
a(g214
(dp690
g214
F1.0
s(lp691
(g214
I24
tp692
atp693
asS'it'
p694
(lp695
(S'fondamentali'
p696
(dp697
S'ADJ'
p698
F1.0
s(lp699
(g155
I0
tp700
atp701
a(S'per'
p702
(dp703
S'CONJ'
p704
F0.017674
sS'ADP'
p705
F0.982326
s(lp706
(g163
I1
tp707
atp708
a(S'una'
p709
(dp710
S'PRON'
p711
F0.000162
sS'DEF'
p712
F0.999838
s(lp713
tp714
a(S'produzione'
p715
(dp716
S'NOUN'
p717
F1.0
s(lp718
(g177
I3
tp719
atp720
a(S'alimentare'
p721
(dp722
S'NOUN'
p723
F0.010057
sS'VERB'
p724
F0.026423
sS'ADJ'
p725
F0.96352
s(lp726
(g184
I2
tp727
atp728
a(S'a'
p729
(dp730
S'CONJ'
p731
F0.000245
sS'ADP'
p732
F0.999755
s(lp733
(g191
I4
tp734
atp735
a(S'prezzi'
p736
(dp737
S'NOUN'
p738
F1.0
s(lp739
(g204
I6
tp740
atp741
a(S'accessibili'
p742
(dp743
S'ADJ'
p744
F1.0
s(lp745
(g211
I5
tp746
atp747
a(S'sono'
p748
(dp749
S'VERB'
p750
F0.997189
sS'NOUN'
p751
F0.002811
s(lp752
(g147
I7
tp753
atp754
a(S'i'
p755
(dp756
S'DET'
p757
F1.0
s(lp758
(g9
I8
tp759
atp760
a(S'milioni'
p761
(dp762
S'NOUN'
p763
F1.0
s(lp764
(g16
I9
tp765
atp766
a(S'di'
p767
(dp768
S'CONJ'
p769
F1.5e-05
sS'ADP'
p770
F0.999985
s(lp771
(g23
I10
tp772
atp773
a(S'piccoli'
p774
(dp775
S'NOUN'
p776
F0.049815
sS'ADJ'
p777
F0.950185
s(lp778
(g31
I11
tp779
atp780
a(S'allevatori'
p781
(dp782
S'NOUN'
p783
F1.0
s(lp784
(g38
I12
tp785
atp786
a(S'e'
p787
(dp788
S'CONJ'
p789
F1.0
s(lp790
(g45
I13
tp791
atp792
a(S'coltivatori'
p793
(dp794
S'NOUN'
p795
F1.0
s(lp796
(g61
I15
tp797
atp798
a(S'senza'
p799
(dp800
S'CONJ'
p801
F0.025404
sS'ADP'
p802
F0.974596
s(lp803
tp804
a(S'terra'
p805
(dp806
S'NOUN'
p807
F1.0
s(lp808
(g54
I14
tp809
atp810
a(S'ora'
p811
(dp812
S'ADV'
p813
F0.959941
sS'CONJ'
p814
F0.012687
sS'VERB'
p815
F0.004566000000000001
sS'NOUN'
p816
F0.022806
s(lp817
(g90
I16
tp818
atp819
a(S'alla'
p820
(dp821
S'ADP'
p822
F1.0
s(lp823
(g97
I17
tp824
atp825
a(S'merc\xc3\xa9'
p826
(dp827
S'NOUN'
p828
F1.0
s(lp829
(g113
I19
tp830
atp831
a(S'dei'
p832
(dp833
S'NOUN'
p834
F1e-06
sS'DEF'
p835
F0.001164
sS'ADP'
p836
F0.998835
s(lp837
(g121
I20
tp838
atp839
a(S'latifondisti'
p840
(dp841
S'NOUN'
p842
F1.0
s(lp843
(g128
I22
tp844
atp845
a(g214
(dp846
g214
F1.0
s(lp847
(g214
I24
tp848
atp849
asS'sk'
p850
(lp851
(S'mili\xc3\xb3ny'
p852
(dp853
S'NUM'
p854
F0.994179
sS'NOUN'
p855
F0.005821
s(lp856
(g16
I9
tp857
atp858
a(S'drobn\xc3\xbdch'
p859
(dp860
S'NOUN'
p861
F0.011916
sS'ADJ'
p862
F0.988084
s(lp863
(g31
I11
tp864
atp865
a(S'po\xc4\xbenohospod\xc3\xa1rov'
p866
(dp867
S'NOUN'
p868
F1.0
s(lp869
(g38
I12
tp870
atp871
a(g729
(dp872
S'X'
p873
F0.000697
sS'CONJ'
p874
F0.998698
sS'NOUN'
p875
F5.7e-05
sS'ADP'
p876
F0.000484
sS'PRT'
p877
F6.4e-05
s(lp878
(g45
I13
tp879
atp880
a(S'po\xc4\xbenohospod\xc3\xa1rov'
p881
(dp882
S'NOUN'
p883
F1.0
s(lp884
(g61
I15
tp885
atp886
a(g488
(dp887
g214
F1.0
s(lp888
tp889
a(S'ktor\xc3\xad'
p890
(dp891
S'PRON'
p892
F1.0
s(lp893
(g54
I14
tp894
atp895
a(S'pri\xc5\xa1li'
p896
(dp897
S'VERB'
p898
F1.0
s(lp899
(g54
I14
tp900
atp901
a(S'o'
p902
(dp903
g873
F0.000215
sS'CONJ'
p904
F1.9e-05
sS'NOUN'
p905
F1.1e-05
sS'ADP'
p906
F0.999755
s(lp907
(g9
I8
tp908
atp909
a(S'p\xc3\xb4du'
p910
(dp911
S'NOUN'
p912
F1.0
s(lp913
(g54
I14
tp914
atp915
a(g729
(dp916
g873
F0.00043
sS'CONJ'
p917
F0.999196
sS'NOUN'
p918
F3.5000000000000004e-05
sS'ADP'
p919
F0.000285
sS'PRT'
p920
F5.3e-05
s(lp921
(g9
I8
tp922
atp923
a(S'ktor\xc3\xad'
p924
(dp925
S'PRON'
p926
F1.0
s(lp927
(g54
I14
tp928
atp929
a(S's\xc3\xba'
p930
(dp931
S'VERB'
p932
F1.0
s(lp933
(g147
I7
tp934
atp935
a(S'v'
p936
(dp937
g873
F0.00040400000000000006
sS'ADP'
p938
F0.999595
s(lp939
(g9
I8
tp940
atp941
a(S's\xc3\xba\xc4\x8dasnosti'
p942
(dp943
S'NOUN'
p944
F1.0
s(lp945
(g90
I16
tp946
atp947
a(S'vydan\xc3\xad'
p948
(dp949
S'VERB'
p950
F0.010752
sS'NOUN'
p951
F0.989248
s(lp952
tp953
a(S'napospas'
p954
(dp955
S'ADV'
p956
F1.0
s(lp957
(g113
I19
tp958
atp959
a(S'vlastn\xc3\xadkom'
p960
(dp961
S'NOUN'
p962
F1.0
s(lp963
tp964
a(S'p\xc3\xb4dy'
p965
(dp966
S'NOUN'
p967
F1.0
s(lp968
(g128
I22
tp969
atp970
a(g488
(dp971
g214
F1.0
s(lp972
tp973
a(S's\xc3\xba'
p974
(dp975
S'VERB'
p976
F1.0
s(lp977
(g9
I8
tp978
atp979
a(g936
(dp980
g873
F0.00020299999999999997
sS'ADP'
p981
F0.999796
s(lp982
(g9
I8
tp983
atp984
a(S'kritickej'
p985
(dp986
S'ADJ'
p987
F1.0
s(lp988
(g54
I14
tp989
atp990
a(S'situ\xc3\xa1cii'
p991
(dp992
S'NOUN'
p993
F1.0
s(lp994
(g54
I14
tp995
atp996
a(g936
(dp997
g873
F0.0005020000000000001
sS'ADP'
p998
F0.999498
s(lp999
tp1000
a(S's\xc3\xbavislosti'
p1001
(dp1002
S'NOUN'
p1003
F1.0
s(lp1004
tp1005
a(S's'
p1006
(dp1007
g873
F0.002631
sS'CONJ'
p1008
F6.5e-05
sS'NOUN'
p1009
F1.3000000000000001e-05
sS'ADP'
p1010
F0.997269
sS'PRT'
p1011
F2.1e-05
s(lp1012
(g9
I8
tp1013
atp1014
a(S'v\xc3\xbdrobou'
p1015
(dp1016
S'NOUN'
p1017
F1.0
s(lp1018
(g54
I14
tp1019
atp1020
a(S'potrav\xc3\xadn'
p1021
(dp1022
S'NOUN'
p1023
F1.0
s(lp1024
(g184
I2
tp1025
atp1026
a(S'za'
p1027
(dp1028
S'PRT'
p1029
F8.4e-05
sS'ADP'
p1030
F0.999909
sg873
F8e-06
s(lp1031
tp1032
a(S'dostupn\xc3\xa9'
p1033
(dp1034
S'ADJ'
p1035
F1.0
s(lp1036
(g211
I5
tp1037
atp1038
a(S'ceny'
p1039
(dp1040
S'NOUN'
p1041
F1.0
s(lp1042
(g204
I6
tp1043
atp1044
a(g214
(dp1045
g214
F1.0
s(lp1046
(g214
I24
tp1047
atp1048
asS'pl'
p1049
(lp1050
(S'decyduj\xc4\x85cy'
p1051
(dp1052
S'VERB'
p1053
F0.193569
sS'ADJ'
p1054
F0.8064309999999999
s(lp1055
(g155
I0
tp1056
atp1057
a(S'wk\xc5\x82ad'
p1058
(dp1059
S'NOUN'
p1060
F1.0
s(lp1061
(g54
I14
tp1062
atp1063
a(S'w'
p1064
(dp1065
S'ADJ'
p1066
F0.0
sg873
F2e-06
sS'NOUN'
p1067
F1.3e-05
sS'ADP'
p1068
F0.999984
s(lp1069
(g163
I1
tp1070
atp1071
a(S'produkcj\xc4\x99'
p1072
(dp1073
S'NOUN'
p1074
F1.0
s(lp1075
(g177
I3
tp1076
atp1077
a(S'\xc5\xbcywno\xc5\x9bci'
p1078
(dp1079
S'NOUN'
p1080
F1.0
s(lp1081
(g184
I2
tp1082
atp1083
a(S'po'
p1084
(dp1085
g873
F0.0
sS'VERB'
p1086
F5.999999999999999e-06
sS'NOUN'
p1087
F2.2e-05
sS'ADP'
p1088
F0.999971
s(lp1089
tp1090
a(S'przyst\xc4\x99pnych'
p1091
(dp1092
S'ADV'
p1093
F2e-06
sS'NOUN'
p1094
F0.00048400000000000006
sS'VERB'
p1095
F0.1329
sS'ADJ'
p1096
F0.8666109999999998
s(lp1097
(g211
I5
tp1098
atp1099
a(S'cenach'
p1100
(dp1101
S'NOUN'
p1102
F1.0
s(lp1103
(g204
I6
tp1104
atp1105
a(S'maj\xc4\x85'
p1106
(dp1107
S'VERB'
p1108
F1.0
s(lp1109
(g147
I7
tp1110
atp1111
a(S'miliony'
p1112
(dp1113
S'NOUN'
p1114
F1.0
s(lp1115
(g16
I9
tp1116
atp1117
a(S'drobnych'
p1118
(dp1119
S'ADJ'
p1120
F1.000001
s(lp1121
(g31
I11
tp1122
atp1123
a(S'rolnik\xc3\xb3w'
p1124
(dp1125
S'NOUN'
p1126
F1.0
s(lp1127
(g38
I12
tp1128
atp1129
a(g755
(dp1130
S'PRT'
p1131
F0.000676
sS'CONJ'
p1132
F0.999275
sS'NOUN'
p1133
F4.7000000000000004e-05
sg873
F1e-06
sS'PRON'
p1134
F1e-06
s(lp1135
(g45
I13
tp1136
atp1137
a(S'rolnik\xc3\xb3w'
p1138
(dp1139
S'NOUN'
p1140
F1.0
s(lp1141
(g61
I15
tp1142
atp1143
a(S'bezrolnych'
p1144
(dp1145
S'ADV'
p1146
F0.00059
sS'NOUN'
p1147
F0.04731200000000001
sS'VERB'
p1148
F0.014618000000000003
sS'ADJ'
p1149
F0.9374790000000004
s(lp1150
tp1151
a(g488
(dp1152
g873
F0.0
sg214
F1.0
s(lp1153
tp1154
a(S'obecnie'
p1155
(dp1156
S'ADV'
p1157
F1.0
s(lp1158
(g90
I16
tp1159
atp1160
a(S'skazanych'
p1161
(dp1162
S'VERB'
p1163
F0.88799
sS'NOUN'
p1164
F0.112009
s(lp1165
(g54
I14
tp1166
atp1167
a(S'na'
p1168
(dp1169
S'PRT'
p1170
F2e-06
sS'VERB'
p1171
F0.000148
sS'NOUN'
p1172
F1e-06
sS'ADP'
p1173
F0.9998480000000001
sg873
F2e-06
s(lp1174
(g97
I17
tp1175
atp1176
a(S'\xc5\x82ask\xc4\x99'
p1177
(dp1178
S'NOUN'
p1179
F1.0
s(lp1180
(g113
I19
tp1181
atp1182
a(S'klasy'
p1183
(dp1184
S'NOUN'
p1185
F1.0
s(lp1186
(g351
I23
tp1187
atp1188
a(S'w\xc5\x82a\xc5\x9bcicieli'
p1189
(dp1190
S'NOUN'
p1191
F1.0
s(lp1192
tp1193
a(S'ziemskich'
p1194
(dp1195
S'ADJ'
p1196
F1.0
s(lp1197
(g128
I22
tp1198
atp1199
a(g214
(dp1200
g214
F1.0
s(lp1201
(g214
I24
tp1202
atp1203
asS'sl'
p1204
(lp1205
(S'klju\xc4\x8dni'
p1206
(dp1207
S'ADJ'
p1208
F1.000001
s(lp1209
(g155
I0
tp1210
atp1211
a(S'za'
p1212
(dp1213
S'ADV'
p1214
F2.4e-05
sg873
F1e-06
sS'ADP'
p1215
F0.999976
s(lp1216
(g163
I1
tp1217
atp1218
a(S'proizvodnjo'
p1219
(dp1220
S'NOUN'
p1221
F1.0
s(lp1222
(g177
I3
tp1223
atp1224
a(S'hrane'
p1225
(dp1226
S'NOUN'
p1227
F1.0
s(lp1228
(g184
I2
tp1229
atp1230
a(S'po'
p1231
(dp1232
g873
F0.001416
sS'ADP'
p1233
F0.998583
s(lp1234
tp1235
a(S'dosegljivih'
p1236
(dp1237
S'ADJ'
p1238
F1.0
s(lp1239
(g211
I5
tp1240
atp1241
a(S'cenah'
p1242
(dp1243
S'NOUN'
p1244
F1.0
s(lp1245
(g204
I6
tp1246
atp1247
a(S'so'
p1248
(dp1249
g873
F4e-06
sS'VERB'
p1250
F0.999996
s(lp1251
(g147
I7
tp1252
atp1253
a(S'milijoni'
p1254
(dp1255
S'NOUN'
p1256
F1.0
s(lp1257
(g16
I9
tp1258
atp1259
a(S'majhnih'
p1260
(dp1261
S'ADJ'
p1262
F0.9999999999999999
s(lp1263
(g31
I11
tp1264
atp1265
a(S'kmetov'
p1266
(dp1267
S'NOUN'
p1268
F1.0
s(lp1269
(g38
I12
tp1270
atp1271
a(S'in'
p1272
(dp1273
S'ADV'
p1274
F8.9e-05
sg873
F4e-06
sS'CONJ'
p1275
F0.999903
sS'NOUN'
p1276
F5e-06
s(lp1277
(g45
I13
tp1278
atp1279
a(S'zdaj'
p1280
(dp1281
S'ADV'
p1282
F1.0
s(lp1283
(g90
I16
tp1284
atp1285
a(S'kmetov'
p1286
(dp1287
S'NOUN'
p1288
F1.0
s(lp1289
(g61
I15
tp1290
atp1291
a(S'brez'
p1292
(dp1293
S'ADP'
p1294
F1.0
s(lp1295
(g54
I14
tp1296
atp1297
a(S'zemlje'
p1298
(dp1299
S'NOUN'
p1300
F1.0
s(lp1301
tp1302
a(g488
(dp1303
g214
F1.0
s(lp1304
tp1305
a(S'prepu\xc5\xa1\xc4\x8denih'
p1306
(dp1307
S'ADV'
p1308
F0.057356
sS'NOUN'
p1309
F0.26745399999999997
sS'VERB'
p1310
F0.35523899999999997
sS'ADJ'
p1311
F0.319952
s(lp1312
(g54
I14
tp1313
atp1314
a(S'na'
p1315
(dp1316
S'ADP'
p1317
F1.0
s(lp1318
(g97
I17
tp1319
atp1320
a(S'milost'
p1321
(dp1322
S'NOUN'
p1323
F1.0
s(lp1324
(g113
I19
tp1325
atp1326
a(S'in'
p1327
(dp1328
S'ADV'
p1329
F2.5e-05
sg873
F6e-06
sS'CONJ'
p1330
F0.999959
sS'NOUN'
p1331
F1e-05
s(lp1332
tp1333
a(S'nemilost'
p1334
(dp1335
S'NOUN'
p1336
F1.0
s(lp1337
(g113
I19
tp1338
atp1339
a(S'posestni\xc5\xa1kega'
p1340
(dp1341
S'ADV'
p1342
F2e-06
sS'NOUN'
p1343
F0.00015000000000000001
sS'VERB'
p1344
F8e-06
sS'ADJ'
p1345
F0.9998389999999999
s(lp1346
(g128
I22
tp1347
atp1348
a(S'razreda'
p1349
(dp1350
S'NOUN'
p1351
F1.0
s(lp1352
(g351
I23
tp1353
atp1354
a(g214
(dp1355
g214
F1.0
s(lp1356
(g214
I24
tp1357
atp1358
asS'es'
p1359
(lp1360
(S'los'
p1361
(dp1362
S'PRON'
p1363
F0.002855
sS'DET'
p1364
F0.997145
s(lp1365
(g9
I8
tp1366
atp1367
a(S'millones'
p1368
(dp1369
S'NUM'
p1370
F1.0
s(lp1371
(g16
I9
tp1372
atp1373
a(S'de'
p1374
(dp1375
g873
F0.000651
sS'CONJ'
p1376
F3e-05
sS'ADP'
p1377
F0.999319
s(lp1378
(g23
I10
tp1379
atp1380
a(S'peque\xc3\xb1os'
p1381
(dp1382
S'ADJ'
p1383
F1.0
s(lp1384
(g31
I11
tp1385
atp1386
a(S'agricultores'
p1387
(dp1388
S'NOUN'
p1389
F1.0
s(lp1390
(g38
I12
tp1391
atp1392
a(S'sin'
p1393
(dp1394
S'ADP'
p1395
F1.0
s(lp1396
(g54
I14
tp1397
atp1398
a(S'tierras'
p1399
(dp1400
S'NOUN'
p1401
F1.0
s(lp1402
tp1403
a(S'que'
p1404
(dp1405
g873
F4e-06
sS'CONJ'
p1406
F0.999996
s(lp1407
tp1408
a(S'se'
p1409
(dp1410
S'PRON'
p1411
F1.0
sS'VERB'
p1412
F0.0
s(lp1413
(g147
I7
tp1414
atp1415
a(S'encuentran'
p1416
(dp1417
S'VERB'
p1418
F1.0
s(lp1419
(g54
I14
tp1420
atp1421
a(S'ahora'
p1422
(dp1423
S'ADV'
p1424
F1.0
s(lp1425
(g90
I16
tp1426
atp1427
a(g729
(dp1428
g873
F0.005456
sS'CONJ'
p1429
F0.000487
sS'ADP'
p1430
F0.994057
s(lp1431
(g97
I17
tp1432
atp1433
a(S'merced'
p1434
(dp1435
S'NOUN'
p1436
F1.0
s(lp1437
(g113
I19
tp1438
atp1439
a(S'de'
p1440
(dp1441
g873
F0.0
sS'CONJ'
p1442
F1.7e-05
sS'ADP'
p1443
F0.999983
s(lp1444
(g121
I20
tp1445
atp1446
a(S'la'
p1447
(dp1448
g873
F0.0
sS'PRON'
p1449
F0.0
sS'DET'
p1450
F0.999999
sS'NOUN'
p1451
F0.0
s(lp1452
(g339
I21
tp1453
atp1454
a(S'clase'
p1455
(dp1456
S'NOUN'
p1457
F1.0
s(lp1458
(g351
I23
tp1459
atp1460
a(S'de'
p1461
(dp1462
g873
F2.9e-05
sS'CONJ'
p1463
F0.000449
sS'ADP'
p1464
F0.999522
s(lp1465
(g128
I22
tp1466
atp1467
a(S'terratenientes'
p1468
(dp1469
S'NOUN'
p1470
F1.0
s(lp1471
tp1472
a(S'resultan'
p1473
(dp1474
S'VERB'
p1475
F1.0
s(lp1476
(g128
I22
tp1477
atp1478
a(S'decisivos'
p1479
(dp1480
S'ADJ'
p1481
F1.0
s(lp1482
(g155
I0
tp1483
atp1484
a(S'para'
p1485
(dp1486
S'CONJ'
p1487
F0.002186
sS'ADP'
p1488
F0.997814
s(lp1489
(g163
I1
tp1490
atp1491
a(S'la'
p1492
(dp1493
g873
F0.0
sS'PRON'
p1494
F0.0
sS'DET'
p1495
F0.999999
sS'NOUN'
p1496
F0.0
s(lp1497
tp1498
a(S'producci\xc3\xb3n'
p1499
(dp1500
S'NOUN'
p1501
F1.0
s(lp1502
(g177
I3
tp1503
atp1504
a(S'alimentaria'
p1505
(dp1506
S'ADJ'
p1507
F1.0
s(lp1508
(g184
I2
tp1509
atp1510
a(g729
(dp1511
g873
F0.001708
sS'CONJ'
p1512
F0.000236
sS'ADP'
p1513
F0.998056
s(lp1514
(g191
I4
tp1515
atp1516
a(S'precios'
p1517
(dp1518
S'NOUN'
p1519
F1.0
s(lp1520
(g204
I6
tp1521
atp1522
a(S'asequibles'
p1523
(dp1524
S'ADJ'
p1525
F1.0
s(lp1526
(g211
I5
tp1527
atp1528
a(g214
(dp1529
g214
F1.0
s(lp1530
(g214
I24
tp1531
atp1532
as.