(dp0
S'fr'
p1
(lp2
(S'm.'
p3
(dp4
S'X'
p5
F0.865669
sS'VERB'
p6
F0.11767400000000001
sS'ADJ'
p7
F0.013682
sS'NOUN'
p8
F0.002975
s(lp9
(S'mr'
p10
I0
tp11
atp12
a(S'makhkamboy'
p13
(dp14
S'NOUN'
p15
F1.0
s(lp16
(S'makhkamboy'
p17
I1
tp18
atp19
a(S'azimovich'
p20
(dp21
S'NOUN'
p22
F0.077335
sS'VERB'
p23
F0.05145600000000001
sS'ADJ'
p24
F0.871208
s(lp25
(S'azimovich'
p26
I2
tp27
atp28
a(S'makhmudov'
p29
(dp30
S'NOUN'
p31
F1.0
s(lp32
(S'makhmudov'
p33
I3
tp34
atp35
a(S','
p36
(dp37
S'.'
p38
F1.0
s(lp39
(g36
I4
tp40
atp41
a(S'qui'
p42
(dp43
S'PRON'
p44
F1.0
s(lp45
(S'who'
p46
I5
tp47
atp48
a(S'm\xc3\xa8ne'
p49
(dp50
S'VERB'
p51
F1.000001
s(lp52
(S'leading'
p53
I7
tp54
atp55
a(S'la'
p56
(dp57
S'PRON'
p58
F2.6e-05
sS'DET'
p59
F0.999974
sS'NOUN'
p60
F0.0
s(lp61
(S'the'
p62
I8
tp63
atp64
a(S'd\xc3\xa9l\xc3\xa9gation'
p65
(dp66
S'NOUN'
p67
F1.0
s(lp68
(S'delegation'
p69
I9
tp70
atp71
a(g36
(dp72
g38
F1.0
s(lp73
(g36
I10
tp74
atp75
a(S'est'
p76
(dp77
S'VERB'
p78
F0.999511
sS'NOUN'
p79
F0.000489
s(lp80
(S'is'
p81
I11
tp82
atp83
a(S'accompagn\xc3\xa9'
p84
(dp85
S'VERB'
p86
F1.0
s(lp87
(S'accompanied'
p88
I12
tp89
atp90
a(S'par'
p91
(dp92
S'NOUN'
p93
F6e-06
sS'ADP'
p94
F0.999994
s(lp95
(S'by'
p96
I13
tp97
atp98
a(S'm.'
p99
(dp100
g5
F0.346858
sS'VERB'
p101
F0.27636799999999995
sS'ADJ'
p102
F0.277942
sS'NOUN'
p103
F0.098831
s(lp104
(S'mr'
p105
I14
tp106
atp107
a(S'nosir'
p108
(dp109
S'ADJ'
p110
F0.054053
sS'VERB'
p111
F0.016865
sS'NOUN'
p112
F0.929081
s(lp113
(S'nosir'
p114
I15
tp115
atp116
a(S'yusupovich'
p117
(dp118
S'NOUN'
p119
F1.0
s(lp120
(S'yusupovich'
p121
I16
tp122
atp123
a(S'salimov'
p124
(dp125
S'VERB'
p126
F0.049773000000000005
sS'NOUN'
p127
F0.950228
s(lp128
(S'salimov'
p129
I17
tp130
atp131
a(S'et'
p132
(dp133
S'CONJ'
p134
F1.0
s(lp135
(S'and'
p136
I18
tp137
atp138
a(S'm.'
p139
(dp140
g5
F0.007804
sS'VERB'
p141
F0.946367
sS'ADJ'
p142
F0.043398
sS'NOUN'
p143
F0.00243
s(lp144
(S'mr'
p145
I19
tp146
atp147
a(S'gulkhoja'
p148
(dp149
S'ADJ'
p150
F0.055879
sS'NOUN'
p151
F0.944121
s(lp152
(S'gulkhoja'
p153
I20
tp154
atp155
a(S'gangibekov'
p156
(dp157
S'VERB'
p158
F0.025611999999999996
sS'NOUN'
p159
F0.974388
s(lp160
(S'gangibekov'
p161
I21
tp162
atp163
a(g38
(dp164
g38
F1.0
s(lp165
(g38
I22
tp166
atp167
asS'en'
p168
(lp169
(g10
(dp170
S'ADJ'
p171
F0.001363
sS'NOUN'
p172
F0.998636
s(lp173
(g10
I0
tp174
atp175
a(g17
(dp176
S'VERB'
p177
F0.00047100000000000006
sS'NOUN'
p178
F0.999529
s(lp179
(g17
I1
tp180
atp181
a(g26
(dp182
S'ADV'
p183
F0.000362
sS'ADJ'
p184
F0.001878
sS'VERB'
p185
F0.004201000000000001
sS'NOUN'
p186
F0.99356
s(lp187
(g26
I2
tp188
atp189
a(g33
(dp190
S'ADV'
p191
F0.000332
sS'ADJ'
p192
F0.000178
sS'VERB'
p193
F0.000569
sS'NOUN'
p194
F0.998921
s(lp195
(g33
I3
tp196
atp197
a(g36
(dp198
g38
F1.0
s(lp199
(g36
I4
tp200
atp201
a(g46
(dp202
S'PRON'
p203
F1.0
s(lp204
(g46
I5
tp205
atp206
a(S'is'
p207
(dp208
S'VERB'
p209
F1.0
s(lp210
(g207
I6
tp211
atp212
a(g53
(dp213
S'NOUN'
p214
F1e-06
sS'VERB'
p215
F0.999996
sS'ADJ'
p216
F3e-06
s(lp217
(g53
I7
tp218
atp219
a(g62
(dp220
S'NOUN'
p221
F1e-06
sS'DET'
p222
F0.999999
s(lp223
(g62
I8
tp224
atp225
a(g69
(dp226
S'NOUN'
p227
F1.0
s(lp228
(g69
I9
tp229
atp230
a(g36
(dp231
g38
F1.0
s(lp232
(g36
I10
tp233
atp234
a(g81
(dp235
S'VERB'
p236
F1.0
s(lp237
(g81
I11
tp238
atp239
a(g88
(dp240
S'VERB'
p241
F1.0
s(lp242
(g88
I12
tp243
atp244
a(g96
(dp245
S'ADV'
p246
F0.000109
sS'NOUN'
p247
F0.0
sS'ADP'
p248
F0.999891
s(lp249
(g96
I13
tp250
atp251
a(g105
(dp252
S'ADJ'
p253
F0.002754
sS'NOUN'
p254
F0.997246
s(lp255
(g105
I14
tp256
atp257
a(g114
(dp258
S'ADJ'
p259
F0.00032
sS'NOUN'
p260
F0.99968
s(lp261
(g114
I15
tp262
atp263
a(g121
(dp264
S'ADV'
p265
F0.000477
sS'ADJ'
p266
F0.002497
sS'VERB'
p267
F0.005706000000000001
sS'NOUN'
p268
F0.991321
s(lp269
(g121
I16
tp270
atp271
a(g129
(dp272
S'ADV'
p273
F8.7e-05
sS'ADJ'
p274
F0.000357
sS'VERB'
p275
F0.000499
sS'NOUN'
p276
F0.999057
s(lp277
(g129
I17
tp278
atp279
a(g136
(dp280
S'CONJ'
p281
F0.998546
sS'NOUN'
p282
F0.001454
s(lp283
(g136
I18
tp284
atp285
a(g145
(dp286
S'ADJ'
p287
F0.013412
sS'NOUN'
p288
F0.986589
s(lp289
(g145
I19
tp290
atp291
a(g153
(dp292
S'ADV'
p293
F0.000159
sS'ADJ'
p294
F0.001186
sS'VERB'
p295
F0.0015379999999999999
sS'NOUN'
p296
F0.997116
s(lp297
(g153
I20
tp298
atp299
a(g161
(dp300
S'ADV'
p301
F0.000503
sS'ADJ'
p302
F0.00074
sS'VERB'
p303
F0.006461
sS'NOUN'
p304
F0.9922970000000001
s(lp305
(g161
I21
tp306
atp307
a(g38
(dp308
g38
F1.0
s(lp309
(g38
I22
tp310
atp311
asS'nl'
p312
(lp313
(S'de'
p314
(dp315
S'DET'
p316
F1.0
s(lp317
(g10
I0
tp318
atp319
a(S'heer'
p320
(dp321
S'NOUN'
p322
F1.0
s(lp323
tp324
a(S'makhkamboy'
p325
(dp326
S'NOUN'
p327
F0.264991
sS'ADJ'
p328
F0.73501
s(lp329
(g17
I1
tp330
atp331
a(S'azimovich'
p332
(dp333
S'NOUN'
p334
F0.257411
sS'ADJ'
p335
F0.742589
s(lp336
(g26
I2
tp337
atp338
a(S'makhmudov'
p339
(dp340
S'ADJ'
p341
F0.056721
sS'NOUN'
p342
F0.9432789999999999
s(lp343
tp344
a(g36
(dp345
g38
F1.0
s(lp346
(g36
I4
tp347
atp348
a(S'die'
p349
(dp350
S'PRON'
p351
F1.0
s(lp352
(g46
I5
tp353
atp354
a(S'de'
p355
(dp356
S'DET'
p357
F1.0
s(lp358
(g62
I8
tp359
atp360
a(S'delegatie'
p361
(dp362
S'NOUN'
p363
F1.0
s(lp364
(g69
I9
tp365
atp366
a(S'leidt'
p367
(dp368
S'VERB'
p369
F1.0
s(lp370
(g53
I7
tp371
atp372
a(g36
(dp373
g38
F1.0
s(lp374
(g36
I10
tp375
atp376
a(S'wordtvergezeld'
p377
(dp378
S'ADJ'
p379
F0.000235
sS'NOUN'
p380
F0.999765
s(lp381
(g33
I3
tp382
atp383
a(S'door'
p384
(dp385
S'ADV'
p386
F1e-06
sS'CONJ'
p387
F1e-05
sS'ADP'
p388
F0.999988
s(lp389
(g96
I13
tp390
atp391
a(S'de'
p392
(dp393
S'DET'
p394
F1.0
s(lp395
tp396
a(S'heer'
p397
(dp398
S'NOUN'
p399
F1.0
s(lp400
(g105
I14
tp401
atp402
a(S'nosir'
p403
(dp404
S'NOUN'
p405
F0.013847
sS'ADJ'
p406
F0.986153
s(lp407
(g114
I15
tp408
atp409
a(S'yusupovich'
p410
(dp411
S'NOUN'
p412
F1.0
s(lp413
(g121
I16
tp414
atp415
a(S'salimov'
p416
(dp417
S'NOUN'
p418
F1.0
s(lp419
(g129
I17
tp420
atp421
a(S'en'
p422
(dp423
S'CONJ'
p424
F1.0
s(lp425
(g136
I18
tp426
atp427
a(S'de'
p428
(dp429
S'DET'
p430
F1.0
s(lp431
tp432
a(S'heer'
p433
(dp434
S'NOUN'
p435
F1.0
s(lp436
(g145
I19
tp437
atp438
a(S'gulkhoja'
p439
(dp440
S'ADJ'
p441
F0.239413
sS'NOUN'
p442
F0.760587
s(lp443
(g153
I20
tp444
atp445
a(S'gangibekov'
p446
(dp447
S'ADJ'
p448
F0.180893
sS'NOUN'
p449
F0.8191069999999999
s(lp450
(g161
I21
tp451
atp452
a(g38
(dp453
g38
F1.0
s(lp454
(g38
I22
tp455
atp456
asS'de'
p457
(lp458
(S'herr'
p459
(dp460
S'NOUN'
p461
F0.894087
s(lp462
(g10
I0
tp463
atp464
a(S'makhkamboy'
p465
(dp466
S'NOUN'
p467
F0.944886
s(lp468
tp469
a(S'azimovich'
p470
(dp471
S'ADJ'
p472
F1.0
s(lp473
tp474
a(S'makhmudov'
p475
(dp476
S'NOUN'
p477
F0.980176
s(lp478
(g33
I3
tp479
atp480
a(g36
(dp481
g38
F1.0
s(lp482
(g46
I5
tp483
atp484
a(S'unter'
p485
(dp486
S'PRT'
p487
F0.0
sS'ADP'
p488
F1.0
s(lp489
(g17
I1
tp490
atp491
a(S'dessen'
p492
(dp493
S'PRON'
p494
F0.997065
s(lp495
(g26
I2
tp496
atp497
a(S'leitung'
p498
(dp499
S'ADJ'
p500
F0.016745
sS'NOUN'
p501
F0.978961
s(lp502
(g53
I7
tp503
atp504
a(S'die'
p505
(dp506
S'PRON'
p507
F6.6e-05
sS'DET'
p508
F0.999896
s(lp509
(g62
I8
tp510
atp511
a(S'delegation'
p512
(dp513
S'ADJ'
p514
F0.000153
sS'NOUN'
p515
F0.999757
s(lp516
(g69
I9
tp517
atp518
a(S'steht'
p519
(dp520
S'VERB'
p521
F1.0
s(lp522
(g207
I6
tp523
atp524
a(g36
(dp525
g38
F1.0
s(lp526
(g36
I10
tp527
atp528
a(S'wird'
p529
(dp530
S'VERB'
p531
F1.0
s(lp532
(g81
I11
tp533
atp534
a(S'begleitet'
p535
(dp536
S'VERB'
p537
F1.0
s(lp538
(g88
I12
tp539
atp540
a(S'von'
p541
(dp542
S'NOUN'
p543
F0.000187
sS'ADP'
p544
F0.999813
s(lp545
(g96
I13
tp546
atp547
a(S'herrn'
p548
(dp549
S'ADJ'
p550
F0.159019
sS'NOUN'
p551
F0.840482
s(lp552
(g105
I14
tp553
atp554
a(S'nosir'
p555
(dp556
S'ADJ'
p557
F0.130779
sS'NOUN'
p558
F0.832991
s(lp559
(g114
I15
tp560
atp561
a(S'yusupovich'
p562
(dp563
S'ADJ'
p564
F0.336066
sS'NOUN'
p565
F0.571839
s(lp566
(g121
I16
tp567
atp568
a(S'salimov'
p569
(dp570
S'ADJ'
p571
F0.005017
sS'NOUN'
p572
F0.983283
s(lp573
(g129
I17
tp574
atp575
a(S'und'
p576
(dp577
S'CONJ'
p578
F1.0
s(lp579
(g136
I18
tp580
atp581
a(S'herrn'
p582
(dp583
S'VERB'
p584
F0.0264
sS'NOUN'
p585
F0.963364
s(lp586
(g145
I19
tp587
atp588
a(S'gulkhoja'
p589
(dp590
S'ADJ'
p591
F0.049313
sS'NOUN'
p592
F0.934314
s(lp593
(g153
I20
tp594
atp595
a(S'gangibekov'
p596
(dp597
S'ADJ'
p598
F0.069362
sS'NOUN'
p599
F0.929799
s(lp600
(g161
I21
tp601
atp602
a(g38
(dp603
g38
F1.0
s(lp604
(g38
I22
tp605
atp606
asS'it'
p607
(lp608
(S'makhkamboy'
p609
(dp610
S'ADJ'
p611
F0.041911
sS'VERB'
p612
F0.09107300000000002
sS'NOUN'
p613
F0.867015
s(lp614
(g17
I1
tp615
atp616
a(S'azimovich'
p617
(dp618
S'NOUN'
p619
F0.080749
sS'VERB'
p620
F0.002443
sS'ADJ'
p621
F0.916808
s(lp622
(g26
I2
tp623
atp624
a(S'makhmudov'
p625
(dp626
S'ADJ'
p627
F0.223738
sS'VERB'
p628
F0.00016700000000000002
sS'NOUN'
p629
F0.776095
s(lp630
(g33
I3
tp631
atp632
a(g36
(dp633
g38
F1.0
s(lp634
(g36
I4
tp635
atp636
a(S'che'
p637
(dp638
S'PRON'
p639
F0.933318
sS'CONJ'
p640
F0.065753
sS'ADJ'
p641
F0.000929
s(lp642
(g46
I5
tp643
atp644
a(S'guida'
p645
(dp646
S'VERB'
p647
F0.955295
sS'NOUN'
p648
F0.044705
s(lp649
(g53
I7
tp650
atp651
a(S'la'
p652
(dp653
S'PRON'
p654
F4.1e-05
sS'DET'
p655
F0.999959
s(lp656
(g62
I8
tp657
atp658
a(S'delegazione'
p659
(dp660
S'NOUN'
p661
F1.0
s(lp662
(g69
I9
tp663
atp664
a(g36
(dp665
g38
F1.0
s(lp666
(g36
I10
tp667
atp668
a(S'\xc3\xa8'
p669
(dp670
S'VERB'
p671
F1.0
s(lp672
(g81
I11
tp673
atp674
a(S'accompagnato'
p675
(dp676
S'VERB'
p677
F1.0
s(lp678
(g88
I12
tp679
atp680
a(S'da'
p681
(dp682
S'ADP'
p683
F1.0
s(lp684
(g96
I13
tp685
atp686
a(S'nosir'
p687
(dp688
S'NOUN'
p689
F0.066148
sS'VERB'
p690
F0.65946
sS'ADJ'
p691
F0.274392
s(lp692
(g114
I15
tp693
atp694
a(S'yusupovich'
p695
(dp696
S'ADJ'
p697
F0.320041
sS'NOUN'
p698
F0.679959
s(lp699
(g121
I16
tp700
atp701
a(S'salimov'
p702
(dp703
S'NOUN'
p704
F0.427641
sS'VERB'
p705
F0.063634
sS'ADJ'
p706
F0.508725
s(lp707
(g129
I17
tp708
atp709
a(S'e'
p710
(dp711
S'CONJ'
p712
F1.0
s(lp713
(g136
I18
tp714
atp715
a(S'gulkhoja'
p716
(dp717
S'ADJ'
p718
F0.009555
sS'VERB'
p719
F0.40911
sS'NOUN'
p720
F0.581335
s(lp721
(g153
I20
tp722
atp723
a(S'gangibekov'
p724
(dp725
S'NOUN'
p726
F0.423498
sS'ADJ'
p727
F0.576502
s(lp728
(g161
I21
tp729
atp730
a(g38
(dp731
g38
F1.0
s(lp732
(g38
I22
tp733
atp734
asS'sk'
p735
(lp736
(S'p\xc3\xa1na'
p737
(dp738
g5
F0.001429
sS'NOUN'
p739
F0.998571
s(lp740
(g10
I0
tp741
atp742
a(S'makhkamboya'
p743
(dp744
S'ADJ'
p745
F0.006196
sS'NOUN'
p746
F0.993804
s(lp747
(g17
I1
tp748
atp749
a(S'azimovi\xc4\x8da'
p750
(dp751
S'NOUN'
p752
F1.0
s(lp753
(g26
I2
tp754
atp755
a(S'makhmudova'
p756
(dp757
S'ADJ'
p758
F0.110322
sS'NOUN'
p759
F0.889678
s(lp760
(g33
I3
tp761
atp762
a(S'sprev\xc3\xa1dzaj\xc3\xba'
p763
(dp764
S'VERB'
p765
F1.0
s(lp766
(g88
I12
tp767
atp768
a(S'p\xc3\xa1n'
p769
(dp770
S'NOUN'
p771
F1.0
s(lp772
(g105
I14
tp773
atp774
a(S'nosir'
p775
(dp776
S'ADV'
p777
F0.000863
sS'ADJ'
p778
F0.009387
sS'VERB'
p779
F0.058099000000000005
sS'NOUN'
p780
F0.929594
sg5
F0.002058
s(lp781
(g114
I15
tp782
atp783
a(S'jusupovi\xc4\x8d'
p784
(dp785
S'VERB'
p786
F0.015746
sS'NOUN'
p787
F0.984253
s(lp788
(g121
I16
tp789
atp790
a(S'salimov'
p791
(dp792
S'ADJ'
p793
F0.0196
sS'NOUN'
p794
F0.9804
s(lp795
(g129
I17
tp796
atp797
a(S'a'
p798
(dp799
g5
F0.000771
sS'CONJ'
p800
F0.998493
sS'NOUN'
p801
F8.7e-05
sS'ADP'
p802
F0.000618
sS'PRT'
p803
F3.1e-05
s(lp804
(g136
I18
tp805
atp806
a(S'p\xc3\xa1n'
p807
(dp808
S'NOUN'
p809
F1.0
s(lp810
(g145
I19
tp811
atp812
a(S'gulkhoja'
p813
(dp814
S'ADJ'
p815
F0.036764
sS'VERB'
p816
F0.01267
sS'NOUN'
p817
F0.9505669999999999
s(lp818
(g153
I20
tp819
atp820
a(S'gangibekov'
p821
(dp822
S'ADJ'
p823
F0.004506
sS'NOUN'
p824
F0.995494
s(lp825
(g161
I21
tp826
atp827
a(g38
(dp828
g38
F1.0
s(lp829
(g38
I22
tp830
atp831
asS'pl'
p832
(lp833
(S'panu'
p834
(dp835
S'NOUN'
p836
F1.0
s(lp837
(g10
I0
tp838
atp839
a(S'makhkamboyowi'
p840
(dp841
S'ADV'
p842
F2e-06
sS'ADJ'
p843
F2.3000000000000003e-05
sS'VERB'
p844
F0.00022899999999999998
sS'NOUN'
p845
F0.9997429999999999
s(lp846
tp847
a(S'azimovichowi'
p848
(dp849
S'ADJ'
p850
F0.005297999999999998
sS'VERB'
p851
F0.00036700000000000003
sS'NOUN'
p852
F0.994333
s(lp853
(g17
I1
tp854
atp855
a(S'makhmudovi'
p856
(dp857
S'ADV'
p858
F0.001496
sS'ADJ'
p859
F0.000388
sS'VERB'
p860
F0.029530999999999998
sS'NOUN'
p861
F0.968419
sg5
F0.000166
s(lp862
(g26
I2
tp863
atp864
a(g36
(dp865
g5
F0.0
sg38
F1.0
s(lp866
(g36
I4
tp867
atp868
a(S'kt\xc3\xb3ry'
p869
(dp870
S'ADJ'
p871
F0.9999999999999999
s(lp872
(g46
I5
tp873
atp874
a(S'przewodniczy'
p875
(dp876
S'VERB'
p877
F1.0
s(lp878
(g33
I3
tp879
atp880
a(S'delegacji'
p881
(dp882
S'NOUN'
p883
F1.0
s(lp884
(g69
I9
tp885
atp886
a(g36
(dp887
g5
F0.0
sg38
F1.0
s(lp888
(g36
I10
tp889
atp890
a(S'towarzysz\xc4\x85'
p891
(dp892
S'VERB'
p893
F1.0
s(lp894
(g88
I12
tp895
atp896
a(S'pan'
p897
(dp898
g5
F3e-06
sS'NOUN'
p899
F0.999997
s(lp900
(g105
I14
tp901
atp902
a(S'pose\xc5\x82'
p903
(dp904
S'NOUN'
p905
F1.0
s(lp906
(g114
I15
tp907
atp908
a(S'nosir'
p909
(dp910
S'ADV'
p911
F4e-06
sg5
F0.0
sS'ADJ'
p912
F0.0
sS'VERB'
p913
F0.000596
sS'NOUN'
p914
F0.9993970000000001
s(lp915
tp916
a(S'yusupovich'
p917
(dp918
S'ADJ'
p919
F0.00016799999999999996
sS'NOUN'
p920
F0.999358
sg5
F3e-06
sg38
F0.00047
s(lp921
(g129
I17
tp922
atp923
a(S'salimov'
p924
(dp925
S'ADV'
p926
F0.000247
sS'ADJ'
p927
F5.2e-05
sS'VERB'
p928
F0.00258
sS'NOUN'
p929
F0.99712
s(lp930
(g121
I16
tp931
atp932
a(S'i'
p933
(dp934
S'PRT'
p935
F0.026698
sS'CONJ'
p936
F0.973216
sS'PRON'
p937
F5e-06
sS'NOUN'
p938
F3e-06
sg5
F7.8e-05
s(lp939
(g136
I18
tp940
atp941
a(S'pan'
p942
(dp943
g5
F2e-06
sS'NOUN'
p944
F0.999998
s(lp945
(g145
I19
tp946
atp947
a(S'pose\xc5\x82'
p948
(dp949
S'NOUN'
p950
F1.0
s(lp951
(g153
I20
tp952
atp953
a(S'gulkhoja'
p954
(dp955
S'ADJ'
p956
F0.318416
sS'VERB'
p957
F0.13947
sS'NOUN'
p958
F0.542112
s(lp959
tp960
a(S'gangibekov'
p961
(dp962
S'ADJ'
p963
F2.9e-05
sS'VERB'
p964
F0.001433
sS'NOUN'
p965
F0.9985379999999998
s(lp966
(g161
I21
tp967
atp968
a(g38
(dp969
g38
F1.0
s(lp970
(g38
I22
tp971
atp972
asS'sl'
p973
(lp974
(S'gospoda'
p975
(dp976
S'NOUN'
p977
F1.0
s(lp978
(g10
I0
tp979
atp980
a(S'makhkamboyja'
p981
(dp982
S'ADV'
p983
F0.000176
sS'ADJ'
p984
F0.198579
sS'VERB'
p985
F0.184914
sS'NOUN'
p986
F0.616328
s(lp987
(g17
I1
tp988
atp989
a(S'azimovicha'
p990
(dp991
S'ADJ'
p992
F0.372414
sS'VERB'
p993
F0.006666
sS'NOUN'
p994
F0.6209169999999999
s(lp995
(g26
I2
tp996
atp997
a(S'makhmudova'
p998
(dp999
S'ADV'
p1000
F0.001089
sS'ADJ'
p1001
F0.06990100000000002
sS'VERB'
p1002
F0.021237
sS'NOUN'
p1003
F0.9076660000000001
sS'PRON'
p1004
F0.00010899999999999999
s(lp1005
(g33
I3
tp1006
atp1007
a(g36
(dp1008
g38
F1.0
s(lp1009
(g36
I4
tp1010
atp1011
a(S'ki'
p1012
(dp1013
S'CONJ'
p1014
F1.0
s(lp1015
(g46
I5
tp1016
atp1017
a(S'je'
p1018
(dp1019
S'PRON'
p1020
F0.001577
sS'VERB'
p1021
F0.998422
sg5
F1e-06
s(lp1022
(g207
I6
tp1023
atp1024
a(S'vodja'
p1025
(dp1026
S'NOUN'
p1027
F1.0
s(lp1028
(g53
I7
tp1029
atp1030
a(S'delegacije'
p1031
(dp1032
S'NOUN'
p1033
F1.0
s(lp1034
(g69
I9
tp1035
atp1036
a(g36
(dp1037
g38
F1.0
s(lp1038
(g36
I10
tp1039
atp1040
a(S'spremljata'
p1041
(dp1042
S'VERB'
p1043
F1.0
s(lp1044
(g88
I12
tp1045
atp1046
a(S'gospod'
p1047
(dp1048
S'NOUN'
p1049
F1.0
s(lp1050
(g105
I14
tp1051
atp1052
a(S'nosir'
p1053
(dp1054
S'ADV'
p1055
F0.009937
sg5
F0.001916
sS'ADJ'
p1056
F0.0013340000000000001
sS'VERB'
p1057
F0.0033509999999999994
sS'NOUN'
p1058
F0.9834629999999999
s(lp1059
(g114
I15
tp1060
atp1061
a(S'yusupovich'
p1062
(dp1063
S'ADJ'
p1064
F0.002682
sg5
F0.003199
sS'NUM'
p1065
F0.94951
sS'NOUN'
p1066
F0.044609
s(lp1067
(g121
I16
tp1068
atp1069
a(S'salimov'
p1070
(dp1071
S'ADV'
p1072
F3.8e-05
sS'ADJ'
p1073
F0.000294
sS'NOUN'
p1074
F0.9996669999999999
s(lp1075
(g129
I17
tp1076
atp1077
a(S'in'
p1078
(dp1079
S'ADV'
p1080
F2e-05
sg5
F1.7e-05
sS'CONJ'
p1081
F0.99993
sS'NOUN'
p1082
F3.2e-05
s(lp1083
(g136
I18
tp1084
atp1085
a(S'gospod'
p1086
(dp1087
S'NOUN'
p1088
F1.0
s(lp1089
(g145
I19
tp1090
atp1091
a(S'gulkhoja'
p1092
(dp1093
S'ADJ'
p1094
F0.26092499999999996
sS'VERB'
p1095
F0.0015680000000000002
sS'NOUN'
p1096
F0.7368009999999998
sg5
F0.000706
s(lp1097
(g153
I20
tp1098
atp1099
a(S'gangibekov'
p1100
(dp1101
S'ADV'
p1102
F0.000293
sS'ADJ'
p1103
F0.001432
sS'NOUN'
p1104
F0.998275
s(lp1105
(g161
I21
tp1106
atp1107
a(g38
(dp1108
g38
F1.0
s(lp1109
(g38
I22
tp1110
atp1111
asS'es'
p1112
(lp1113
(S'el'
p1114
(dp1115
S'PRON'
p1116
F1e-05
sS'DET'
p1117
F0.99999
s(lp1118
tp1119
a(S'se\xc3\xb1or'
p1120
(dp1121
S'NOUN'
p1122
F1.0
s(lp1123
(g10
I0
tp1124
atp1125
a(S'makhkamboy'
p1126
(dp1127
S'ADJ'
p1128
F0.207508
sS'VERB'
p1129
F0.019716
sS'NOUN'
p1130
F0.772776
s(lp1131
(g17
I1
tp1132
atp1133
a(S'azimovich'
p1134
(dp1135
S'ADJ'
p1136
F0.198227
sS'NOUN'
p1137
F0.8017719999999999
s(lp1138
(g26
I2
tp1139
atp1140
a(S'makhmudov'
p1141
(dp1142
S'ADJ'
p1143
F0.144413
sS'VERB'
p1144
F0.004295
sS'NOUN'
p1145
F0.851291
s(lp1146
(g33
I3
tp1147
atp1148
a(g36
(dp1149
g38
F1.0
s(lp1150
(g36
I4
tp1151
atp1152
a(S'que'
p1153
(dp1154
g5
F4e-06
sS'CONJ'
p1155
F0.999996
s(lp1156
(g46
I5
tp1157
atp1158
a(S'encabeza'
p1159
(dp1160
S'VERB'
p1161
F1.0
s(lp1162
(g53
I7
tp1163
atp1164
a(S'la'
p1165
(dp1166
g5
F0.0
sS'PRON'
p1167
F0.0
sS'DET'
p1168
F1.0
sS'NOUN'
p1169
F0.0
s(lp1170
(g62
I8
tp1171
atp1172
a(S'delegaci\xc3\xb3n'
p1173
(dp1174
S'NOUN'
p1175
F1.0
s(lp1176
(g69
I9
tp1177
atp1178
a(g36
(dp1179
g38
F1.0
s(lp1180
(g36
I10
tp1181
atp1182
a(S'viene'
p1183
(dp1184
S'VERB'
p1185
F1.0
s(lp1186
tp1187
a(S'acompa\xc3\xb1ado'
p1188
(dp1189
S'VERB'
p1190
F1.0
s(lp1191
(g88
I12
tp1192
atp1193
a(S'de'
p1194
(dp1195
g5
F0.0
sS'CONJ'
p1196
F2.3e-05
sS'ADP'
p1197
F0.999977
s(lp1198
(g96
I13
tp1199
atp1200
a(S'los'
p1201
(dp1202
S'PRON'
p1203
F0.0
sS'DET'
p1204
F1.0
s(lp1205
tp1206
a(S'se\xc3\xb1ores'
p1207
(dp1208
S'NOUN'
p1209
F1.0
s(lp1210
tp1211
a(S'nosir'
p1212
(dp1213
S'NOUN'
p1214
F0.01454
sS'VERB'
p1215
F0.093022
sS'ADJ'
p1216
F0.892438
s(lp1217
(g114
I15
tp1218
atp1219
a(S'yusupovich'
p1220
(dp1221
S'ADJ'
p1222
F0.028344
sS'NOUN'
p1223
F0.971657
s(lp1224
(g121
I16
tp1225
atp1226
a(S'salimov'
p1227
(dp1228
S'ADJ'
p1229
F0.100088
sS'VERB'
p1230
F0.04396799999999999
sS'NOUN'
p1231
F0.855943
s(lp1232
(g129
I17
tp1233
atp1234
a(S'y'
p1235
(dp1236
g5
F0.001149
sS'CONJ'
p1237
F0.998851
s(lp1238
(g136
I18
tp1239
atp1240
a(S'gulkhoja'
p1241
(dp1242
S'ADJ'
p1243
F0.008262
sS'VERB'
p1244
F0.956146
sS'NOUN'
p1245
F0.035592
s(lp1246
(g153
I20
tp1247
atp1248
a(S'gangibekov'
p1249
(dp1250
S'ADJ'
p1251
F0.02159
sS'VERB'
p1252
F0.022407
sS'NOUN'
p1253
F0.9560029999999999
s(lp1254
(g161
I21
tp1255
atp1256
a(g38
(dp1257
g38
F1.0
s(lp1258
(g38
I22
tp1259
atp1260
as.