(dp0
S'fr'
p1
(lp2
(S'il'
p3
(dp4
S'PRON'
p5
F1.0
s(lp6
(S'we'
p7
I0
tp8
atp9
a(S'convient'
p10
(dp11
S'VERB'
p12
F1.0
s(lp13
(S'need'
p14
I2
tp15
atp16
a(S'd\xc3\xa8s'
p17
(dp18
S'ADP'
p19
F1.0
s(lp20
tp21
a(S'lors'
p22
(dp23
S'ADV'
p24
F1.0
s(lp25
(S'therefore'
p26
I1
tp27
atp28
a(S"d'"
p29
(dp30
S'NOUN'
p31
F0.037162
sS'VERB'
p32
F0.7565829999999999
sS'ADJ'
p33
F0.206256
s(lp34
(S'to'
p35
I3
tp36
atp37
a(S'\xc3\xa9tudier'
p38
(dp39
S'VERB'
p40
F1.0
s(lp41
(S'study'
p42
I4
tp43
atp44
a(S'en'
p45
(dp46
S'PRON'
p47
F0.000572
sS'ADP'
p48
F0.999428
s(lp49
(S'in'
p50
I10
tp51
atp52
a(S'd\xc3\xa9tail'
p53
(dp54
S'NOUN'
p55
F1.0
s(lp56
(S'detail'
p57
I11
tp58
atp59
a(S'ses'
p60
(dp61
S'PRON'
p62
F1.0
s(lp63
(S'its'
p64
I5
tp65
atp66
a(S'r\xc3\xa9percussions'
p67
(dp68
S'NOUN'
p69
F1.0
s(lp70
(S'repercussions'
p71
I9
tp72
atp73
a(S'\xc3\xa9conomiques'
p74
(dp75
S'NOUN'
p76
F0.003936
sS'ADJ'
p77
F0.996064
s(lp78
(S'economic'
p79
I6
tp80
atp81
a(S'et'
p82
(dp83
S'CONJ'
p84
F1.0
s(lp85
(S'and'
p86
I7
tp87
atp88
a(S'juridiques'
p89
(dp90
S'ADJ'
p91
F1.0
s(lp92
(S'legal'
p93
I8
tp94
atp95
a(S'.'
p96
(dp97
g96
F1.0
s(lp98
(g96
I12
tp99
atp100
asS'en'
p101
(lp102
(g7
(dp103
S'PRON'
p104
F1.0
s(lp105
(g7
I0
tp106
atp107
a(g26
(dp108
S'ADV'
p109
F1.0
s(lp110
(g26
I1
tp111
atp112
a(g14
(dp113
S'VERB'
p114
F0.971502
sS'NOUN'
p115
F0.028498
s(lp116
(g14
I2
tp117
atp118
a(g35
(dp119
S'ADV'
p120
F0.0
sS'PRT'
p121
F1.0
sS'ADP'
p122
F0.0
s(lp123
(g35
I3
tp124
atp125
a(g42
(dp126
S'VERB'
p127
F0.99964
sS'NOUN'
p128
F0.00036
s(lp129
(g42
I4
tp130
atp131
a(g64
(dp132
S'PRON'
p133
F1.0
s(lp134
(g64
I5
tp135
atp136
a(g79
(dp137
S'ADJ'
p138
F1.0
s(lp139
(g79
I6
tp140
atp141
a(g86
(dp142
S'CONJ'
p143
F0.999998
sS'NOUN'
p144
F2e-06
s(lp145
(g86
I7
tp146
atp147
a(g93
(dp148
S'ADJ'
p149
F1.0
s(lp150
(g93
I8
tp151
atp152
a(g71
(dp153
S'NOUN'
p154
F1.0
s(lp155
(g71
I9
tp156
atp157
a(g50
(dp158
S'ADV'
p159
F0.00016
sS'PRT'
p160
F0.000162
sS'ADP'
p161
F0.999678
s(lp162
(g50
I10
tp163
atp164
a(g57
(dp165
S'VERB'
p166
F4.4e-05
sS'NOUN'
p167
F0.999956
s(lp168
(g57
I11
tp169
atp170
a(g96
(dp171
g96
F1.0
s(lp172
(g96
I12
tp173
atp174
asS'nl'
p175
(lp176
(S'het'
p177
(dp178
S'PRON'
p179
F0.962086
sS'DET'
p180
F0.037914
s(lp181
(g7
I0
tp182
atp183
a(S'is'
p184
(dp185
S'VERB'
p186
F1.0
s(lp187
tp188
a(S'dan'
p189
(dp190
S'ADV'
p191
F0.807865
sS'CONJ'
p192
F0.192135
s(lp193
tp194
a(S'ook'
p195
(dp196
S'ADV'
p197
F1.0
s(lp198
(g26
I1
tp199
atp200
a(S'zaak'
p201
(dp202
S'NOUN'
p203
F1.0
s(lp204
(g14
I2
tp205
atp206
a(S'de'
p207
(dp208
S'DET'
p209
F1.0
s(lp210
(g64
I5
tp211
atp212
a(S'economische'
p213
(dp214
S'NOUN'
p215
F0.000948
sS'ADJ'
p216
F0.999052
s(lp217
(g79
I6
tp218
atp219
a(S'en'
p220
(dp221
S'CONJ'
p222
F1.0
s(lp223
(g86
I7
tp224
atp225
a(S'juridische'
p226
(dp227
S'NOUN'
p228
F1e-06
sS'ADJ'
p229
F0.999999
s(lp230
(g93
I8
tp231
atp232
a(S'repercussies'
p233
(dp234
S'NOUN'
p235
F1.0
s(lp236
tp237
a(S'ervan'
p238
(dp239
S'ADV'
p240
F1.0
s(lp241
(g71
I9
tp242
atp243
a(S'onder'
p244
(dp245
S'ADV'
p246
F5e-05
sS'ADP'
p247
F0.99995
s(lp248
(g50
I10
tp249
atp250
a(S'de'
p251
(dp252
S'DET'
p253
F1.0
s(lp254
tp255
a(S'loep'
p256
(dp257
S'NOUN'
p258
F1.0
s(lp259
(g57
I11
tp260
atp261
a(S'te'
p262
(dp263
S'PRT'
p264
F1.0
s(lp265
(g35
I3
tp266
atp267
a(S'nemen'
p268
(dp269
S'VERB'
p270
F1.0
sS'NOUN'
p271
F0.0
s(lp272
(g42
I4
tp273
atp274
a(g96
(dp275
g96
F1.0
s(lp276
(g96
I12
tp277
atp278
asS'de'
p279
(lp280
(S'wir'
p281
(dp282
S'PRON'
p283
F1.0
s(lp284
(g7
I0
tp285
atp286
a(S'm\xc3\xbcssen'
p287
(dp288
S'VERB'
p289
F0.999251
s(lp290
(g14
I2
tp291
atp292
a(S'daher'
p293
(dp294
S'ADV'
p295
F0.9999979999999999
s(lp296
(g26
I1
tp297
atp298
a(S'ihre'
p299
(dp300
S'PRON'
p301
F1.0
s(lp302
(g64
I5
tp303
atp304
a(S'wirtschaftlichen'
p305
(dp306
S'ADJ'
p307
F1.0
s(lp308
(g79
I6
tp309
atp310
a(S'und'
p311
(dp312
S'CONJ'
p313
F1.0
s(lp314
(g86
I7
tp315
atp316
a(S'rechtlichen'
p317
(dp318
S'ADJ'
p319
F1.0
s(lp320
(g93
I8
tp321
atp322
a(S'auswirkungen'
p323
(dp324
S'VERB'
p325
F0.008988
sS'NOUN'
p326
F0.991012
s(lp327
(g71
I9
tp328
atp329
a(S'detaillierter'
p330
(dp331
S'ADJ'
p332
F1.0
s(lp333
(g57
I11
tp334
atp335
a(S'untersuchen'
p336
(dp337
S'VERB'
p338
F1.0
s(lp339
(g42
I4
tp340
atp341
a(g96
(dp342
g96
F1.0
s(lp343
(g96
I12
tp344
atp345
asS'it'
p346
(lp347
(S'e'
p348
(dp349
S'CONJ'
p350
F1.0
s(lp351
(g7
I0
tp352
atp353
a(S"'"
p354
(dp355
g96
F1.0
s(lp356
(g26
I1
tp357
atp358
a(S'indispensabile'
p359
(dp360
S'NOUN'
p361
F0.417833
sS'ADJ'
p362
F0.582167
s(lp363
(g14
I2
tp364
atp365
a(S'studiarne'
p366
(dp367
S'VERB'
p368
F1.0
s(lp369
(g42
I4
tp370
atp371
a(S'in'
p372
(dp373
S'ADP'
p374
F1.0
s(lp375
(g50
I10
tp376
atp377
a(S'dettaglio'
p378
(dp379
S'VERB'
p380
F0.003377
sS'NOUN'
p381
F0.996623
s(lp382
(g57
I11
tp383
atp384
a(S'le'
p385
(dp386
S'PRON'
p387
F0.000321
sS'DET'
p388
F0.999679
s(lp389
(g64
I5
tp390
atp391
a(S'ripercussioni'
p392
(dp393
S'NOUN'
p394
F1.0
s(lp395
(g71
I9
tp396
atp397
a(S'economiche'
p398
(dp399
S'ADJ'
p400
F1.0
s(lp401
(g79
I6
tp402
atp403
a(g348
(dp404
S'CONJ'
p405
F1.0
s(lp406
(g86
I7
tp407
atp408
a(S'legali'
p409
(dp410
S'NOUN'
p411
F0.020055
sS'VERB'
p412
F0.001029
sS'ADJ'
p413
F0.978916
s(lp414
(g93
I8
tp415
atp416
a(g96
(dp417
g96
F1.0
s(lp418
(g96
I12
tp419
atp420
asS'sk'
p421
(lp422
(S'preto'
p423
(dp424
S'PRON'
p425
F0.893955
sS'CONJ'
p426
F0.096114
sS'X'
p427
F0.009931
s(lp428
(g26
I1
tp429
atp430
a(S'mus\xc3\xadme'
p431
(dp432
S'VERB'
p433
F1.0
s(lp434
(g14
I2
tp435
atp436
a(S'do'
p437
(dp438
g427
F0.000132
sS'ADP'
p439
F0.99984
sS'PRON'
p440
F2.8e-05
s(lp441
(g50
I10
tp442
atp443
a(S'podrobnost\xc3\xad'
p444
(dp445
S'NOUN'
p446
F1.0
s(lp447
(g57
I11
tp448
atp449
a(S'pre\xc5\xa1tudova\xc5\xa5'
p450
(dp451
S'VERB'
p452
F1.0
s(lp453
(g42
I4
tp454
atp455
a(S'jeho'
p456
(dp457
S'PRON'
p458
F0.999997
sg427
F3e-06
s(lp459
(g64
I5
tp460
atp461
a(S'hospod\xc3\xa1rske'
p462
(dp463
S'ADJ'
p464
F1.0
s(lp465
(g79
I6
tp466
atp467
a(S'a'
p468
(dp469
g427
F0.0005369999999999999
sS'CONJ'
p470
F0.998166
sS'NOUN'
p471
F0.0011970000000000001
sS'ADP'
p472
F8.3e-05
sS'PRT'
p473
F1.6e-05
s(lp474
(g86
I7
tp475
atp476
a(S'pr\xc3\xa1vne'
p477
(dp478
S'ADV'
p479
F0.00154
sS'ADJ'
p480
F0.99846
s(lp481
(g93
I8
tp482
atp483
a(S'd\xc3\xb4sledky'
p484
(dp485
S'NOUN'
p486
F1.0
s(lp487
(g71
I9
tp488
atp489
a(g96
(dp490
g96
F1.0
s(lp491
(g96
I12
tp492
atp493
asS'pl'
p494
(lp495
(S'dlatego'
p496
(dp497
S'ADV'
p498
F1.0
s(lp499
tp500
a(S'powinni\xc5\x9bmy'
p501
(dp502
S'ADJ'
p503
F0.003188
sS'VERB'
p504
F0.9601319999999998
sS'NOUN'
p505
F0.036680000000000004
s(lp506
(g14
I2
tp507
atp508
a(S'szczeg\xc3\xb3\xc5\x82owo'
p509
(dp510
S'ADV'
p511
F1.0
s(lp512
(g57
I11
tp513
atp514
a(S'zbada\xc4\x87'
p515
(dp516
S'VERB'
p517
F1.0
s(lp518
(g42
I4
tp519
atp520
a(S'skutki'
p521
(dp522
S'NOUN'
p523
F1.0
s(lp524
tp525
a(S'gospodarcze'
p526
(dp527
S'ADJ'
p528
F1.000001
s(lp529
(g79
I6
tp530
atp531
a(S'i'
p532
(dp533
S'PRT'
p534
F0.005249
sS'CONJ'
p535
F0.994576
sS'NOUN'
p536
F1e-06
sg427
F6.5e-05
sS'PRON'
p537
F0.00010899999999999999
s(lp538
(g86
I7
tp539
atp540
a(S'prawne'
p541
(dp542
S'ADJ'
p543
F0.999999
s(lp544
(g93
I8
tp545
atp546
a(S'tego'
p547
(dp548
S'NOUN'
p549
F0.112912
sS'ADJ'
p550
F0.879309
sS'PRT'
p551
F0.000199
sg427
F0.00758
s(lp552
(g26
I1
tp553
atp554
a(S'rozwi\xc4\x85zania'
p555
(dp556
S'VERB'
p557
F0.048579
sS'NOUN'
p558
F0.9514199999999999
s(lp559
(g71
I9
tp560
atp561
a(g96
(dp562
g96
F1.0
s(lp563
(g96
I12
tp564
atp565
asS'sl'
p566
(lp567
(S'zato'
p568
(dp569
S'ADV'
p570
F0.833304
sS'CONJ'
p571
F0.166696
s(lp572
(g26
I1
tp573
atp574
a(S'moramo'
p575
(dp576
S'VERB'
p577
F1.0
s(lp578
(g14
I2
tp579
atp580
a(S'podrobno'
p581
(dp582
S'ADV'
p583
F0.747939
sS'ADJ'
p584
F0.252061
s(lp585
(g57
I11
tp586
atp587
a(S'preu\xc4\x8diti'
p588
(dp589
S'ADJ'
p590
F2e-06
sS'VERB'
p591
F0.9999920000000001
sS'NOUN'
p592
F4.9999999999999996e-06
s(lp593
(g42
I4
tp594
atp595
a(S'njegove'
p596
(dp597
S'PRON'
p598
F0.9999999999999999
s(lp599
(g64
I5
tp600
atp601
a(S'gospodarske'
p602
(dp603
S'ADJ'
p604
F1.0
s(lp605
(g79
I6
tp606
atp607
a(S'in'
p608
(dp609
S'ADV'
p610
F1.8e-05
sg427
F2.5e-05
sS'CONJ'
p611
F0.999957
sS'NOUN'
p612
F0.0
s(lp613
(g86
I7
tp614
atp615
a(S'pravne'
p616
(dp617
S'ADJ'
p618
F0.9999999999999999
s(lp619
(g93
I8
tp620
atp621
a(S'posledice'
p622
(dp623
S'NOUN'
p624
F1.0
s(lp625
(g71
I9
tp626
atp627
a(g96
(dp628
g96
F1.0
s(lp629
(g96
I12
tp630
atp631
asS'es'
p632
(lp633
(S'por'
p634
(dp635
S'CONJ'
p636
F1.0
s(lp637
(g26
I1
tp638
atp639
a(S'tanto'
p640
(dp641
S'CONJ'
p642
F1.0
s(lp643
tp644
a(S','
p645
(dp646
g96
F1.0
s(lp647
(g26
I1
tp648
atp649
a(S'necesitamos'
p650
(dp651
S'VERB'
p652
F1.0
s(lp653
(g14
I2
tp654
atp655
a(S'estudiar'
p656
(dp657
S'VERB'
p658
F1.0
s(lp659
(g42
I4
tp660
atp661
a(S'detalladamente'
p662
(dp663
S'ADV'
p664
F1.0
s(lp665
(g57
I11
tp666
atp667
a(S'sus'
p668
(dp669
S'PRON'
p670
F1.0
s(lp671
(g64
I5
tp672
atp673
a(S'repercusiones'
p674
(dp675
S'NOUN'
p676
F1.0
s(lp677
(g71
I9
tp678
atp679
a(S'econ\xc3\xb3micas'
p680
(dp681
S'ADJ'
p682
F1.0
s(lp683
(g79
I6
tp684
atp685
a(S'y'
p686
(dp687
g427
F0.000656
sS'CONJ'
p688
F0.999344
s(lp689
(g86
I7
tp690
atp691
a(S'legales'
p692
(dp693
S'ADJ'
p694
F1.0
s(lp695
(g93
I8
tp696
atp697
a(g96
(dp698
g96
F1.0
s(lp699
(g96
I12
tp700
atp701
as.