(dp0
S'fr'
p1
(lp2
(S'diriger'
p3
(dp4
S'VERB'
p5
F1.0
s(lp6
(S'leading'
p7
I0
tp8
atp9
a(S"l'"
p10
(dp11
S'ADJ'
p12
F0.050629
sS'VERB'
p13
F0.794975
sS'NOUN'
p14
F0.154398
s(lp15
(S'the'
p16
I1
tp17
atp18
a(S'union'
p19
(dp20
S'NOUN'
p21
F1.0
s(lp22
(S'union'
p23
I2
tp24
atp25
a(S'signifie'
p26
(dp27
S'VERB'
p28
F1.0
s(lp29
(S'means'
p30
I3
tp31
atp32
a(S'venir'
p33
(dp34
S'VERB'
p35
F1.0
s(lp36
(S'bringing'
p37
I4
tp38
atp39
a(S'avec'
p40
(dp41
S'ADV'
p42
F0.045952
sS'ADP'
p43
F0.954048
s(lp44
(S'in'
p45
I5
tp46
atp47
a(S'des'
p48
(dp49
S'DET'
p50
F0.000645
sS'ADP'
p51
F0.999355
s(lp52
tp53
a(S'id\xc3\xa9es'
p54
(dp55
S'VERB'
p56
F0.0
sS'NOUN'
p57
F1.0
s(lp58
(S'idea'
p59
I8
tp60
atp61
a(S'nouvelles'
p62
(dp63
S'NOUN'
p64
F0.002561
sS'ADJ'
p65
F0.997439
s(lp66
(S'new'
p67
I7
tp68
atp69
a(S'sur'
p70
(dp71
S'ADP'
p72
F1.0
s(lp73
(S'on'
p74
I9
tp75
atp76
a(S'la'
p77
(dp78
S'PRON'
p79
F1.2e-05
sS'DET'
p80
F0.999988
sS'NOUN'
p81
F0.0
s(lp82
(S'the'
p83
I10
tp84
atp85
a(S'question'
p86
(dp87
S'NOUN'
p88
F1.0
s(lp89
(S'issue'
p90
I11
tp91
atp92
a(S'de'
p93
(dp94
S'ADP'
p95
F1.0
s(lp96
(S'of'
p97
I12
tp98
atp99
a(S'la'
p100
(dp101
S'PRON'
p102
F1.2e-05
sS'DET'
p103
F0.999988
sS'NOUN'
p104
F0.0
s(lp105
tp106
a(S'gouvernance'
p107
(dp108
S'NOUN'
p109
F1.0
s(lp110
(S'governance'
p111
I13
tp112
atp113
a(S','
p114
(dp115
S'.'
p116
F1.0
s(lp117
(g114
I14
tp118
atp119
a(S'sur'
p120
(dp121
S'ADP'
p122
F1.0
s(lp123
(S'on'
p124
I15
tp125
atp126
a(S'laquelle'
p127
(dp128
S'PRON'
p129
F1.0
s(lp130
(S'which'
p131
I16
tp132
atp133
a(S'vous'
p134
(dp135
S'PRON'
p136
F1.0
s(lp137
(S'you'
p138
I17
tp139
atp140
a(S'venez'
p141
(dp142
S'VERB'
p143
F1.0
s(lp144
tp145
a(S'de'
p146
(dp147
S'ADP'
p148
F1.0
s(lp149
tp150
a(S'vous'
p151
(dp152
S'PRON'
p153
F1.0
s(lp154
(g138
I17
tp155
atp156
a(S'exprimer'
p157
(dp158
S'VERB'
p159
F1.0
s(lp160
(S'just'
p161
I19
tp162
atp163
a(S'dans'
p164
(dp165
S'NOUN'
p166
F2e-05
sS'ADP'
p167
F0.99998
s(lp168
(S'in'
p169
I21
tp170
atp171
a(S'un'
p172
(dp173
S'NOUN'
p174
F0.000457
sS'NUM'
p175
F0.027244
sS'DET'
p176
F0.972299
s(lp177
(S'a'
p178
I22
tp179
atp180
a(S'journal'
p181
(dp182
S'ADJ'
p183
F0.06336
sS'NOUN'
p184
F0.93664
s(lp185
(S'newspaper'
p186
I23
tp187
atp188
a(g116
(dp189
g116
F1.0
s(lp190
(g116
I24
tp191
atp192
asS'en'
p193
(lp194
(g7
(dp195
S'ADJ'
p196
F1.2e-05
sS'VERB'
p197
F0.999966
sS'NOUN'
p198
F2.1e-05
s(lp199
(g7
I0
tp200
atp201
a(g16
(dp202
S'NOUN'
p203
F1e-06
sS'DET'
p204
F0.999999
s(lp205
(g16
I1
tp206
atp207
a(g23
(dp208
S'NOUN'
p209
F1.0
s(lp210
(g23
I2
tp211
atp212
a(g30
(dp213
S'VERB'
p214
F0.466251
sS'NOUN'
p215
F0.533748
s(lp216
(g30
I3
tp217
atp218
a(g37
(dp219
S'VERB'
p220
F0.975452
sS'NOUN'
p221
F0.024548
s(lp222
(g37
I4
tp223
atp224
a(g45
(dp225
S'ADV'
p226
F0.000979
sS'PRT'
p227
F0.013729
sS'ADP'
p228
F0.985292
s(lp229
(g45
I5
tp230
atp231
a(g178
(dp232
S'NOUN'
p233
F0.0
sS'DET'
p234
F1.0
s(lp235
(g178
I6
tp236
atp237
a(g67
(dp238
S'NOUN'
p239
F5.2e-05
sS'ADJ'
p240
F0.999948
s(lp241
(g67
I7
tp242
atp243
a(g59
(dp244
S'NOUN'
p245
F1.0
s(lp246
(g59
I8
tp247
atp248
a(g74
(dp249
S'ADV'
p250
F0.000489
sS'PRT'
p251
F0.000523
sS'ADJ'
p252
F0.0
sS'NOUN'
p253
F0.0
sS'ADP'
p254
F0.998988
s(lp255
(g74
I9
tp256
atp257
a(g83
(dp258
S'NOUN'
p259
F1e-06
sS'DET'
p260
F0.999999
s(lp261
(g83
I10
tp262
atp263
a(g90
(dp264
S'VERB'
p265
F0.000203
sS'NOUN'
p266
F0.999797
s(lp267
(g90
I11
tp268
atp269
a(g97
(dp270
S'ADP'
p271
F1.0
s(lp272
(g97
I12
tp273
atp274
a(g111
(dp275
S'NOUN'
p276
F1.0
s(lp277
(g111
I13
tp278
atp279
a(g114
(dp280
g116
F1.0
s(lp281
(g114
I14
tp282
atp283
a(g124
(dp284
S'ADV'
p285
F9.8e-05
sS'PRT'
p286
F0.0
sS'ADJ'
p287
F0.0
sS'NOUN'
p288
F3e-06
sS'ADP'
p289
F0.999898
s(lp290
(g124
I15
tp291
atp292
a(g131
(dp293
S'DET'
p294
F1.0
s(lp295
(g131
I16
tp296
atp297
a(g138
(dp298
S'PRON'
p299
F1.0
s(lp300
(g138
I17
tp301
atp302
a(S'have'
p303
(dp304
S'VERB'
p305
F1.0
s(lp306
(g303
I18
tp307
atp308
a(g161
(dp309
S'ADV'
p310
F0.99992
sS'NOUN'
p311
F1e-06
sS'ADJ'
p312
F7.9e-05
s(lp313
(g161
I19
tp314
atp315
a(S'written'
p316
(dp317
S'VERB'
p318
F0.979975
sS'ADJ'
p319
F0.020025
s(lp320
(g316
I20
tp321
atp322
a(g169
(dp323
S'ADV'
p324
F0.000363
sS'PRT'
p325
F0.003724
sS'ADP'
p326
F0.995913
s(lp327
(g169
I21
tp328
atp329
a(g178
(dp330
S'NOUN'
p331
F0.0
sS'DET'
p332
F1.0
s(lp333
(g178
I22
tp334
atp335
a(g186
(dp336
S'NOUN'
p337
F1.0
s(lp338
(g186
I23
tp339
atp340
a(g116
(dp341
g116
F1.0
s(lp342
(g116
I24
tp343
atp344
asS'nl'
p345
(lp346
(S'leiding'
p347
(dp348
S'NOUN'
p349
F1.0
s(lp350
tp351
a(S'geven'
p352
(dp353
S'VERB'
p354
F0.99997
sS'NOUN'
p355
F3e-05
s(lp356
(g7
I0
tp357
atp358
a(S'aan'
p359
(dp360
S'ADV'
p361
F0.007567
sS'ADP'
p362
F0.992433
s(lp363
(g45
I5
tp364
atp365
a(S'de'
p366
(dp367
S'DET'
p368
F1.0
s(lp369
(g16
I1
tp370
atp371
a(S'unie'
p372
(dp373
S'NOUN'
p374
F1.0
s(lp375
(g23
I2
tp376
atp377
a(S'betekent'
p378
(dp379
S'VERB'
p380
F1.0
s(lp381
(g30
I3
tp382
atp383
a(S'een'
p384
(dp385
S'ADJ'
p386
F2e-06
sS'PRON'
p387
F3.6e-05
sS'NUM'
p388
F1e-06
sS'DET'
p389
F0.999962
s(lp390
(g178
I6
tp391
atp392
a(S'nieuw'
p393
(dp394
S'ADJ'
p395
F1.0
s(lp396
(g67
I7
tp397
atp398
a(S'idee'
p399
(dp400
S'NOUN'
p401
F1.0
s(lp402
(g59
I8
tp403
atp404
a(S'introduceren'
p405
(dp406
S'VERB'
p407
F0.995684
sS'NOUN'
p408
F0.004316
s(lp409
tp410
a(S'voor'
p411
(dp412
S'ADV'
p413
F0.002235
sS'CONJ'
p414
F3.1e-05
sS'NOUN'
p415
F0.0
sS'ADP'
p416
F0.997734
s(lp417
(g74
I9
tp418
atp419
a(S'het'
p420
(dp421
S'PRON'
p422
F0.000929
sS'DET'
p423
F0.99907
s(lp424
(g83
I10
tp425
atp426
a(S'thema'
p427
(dp428
S'NOUN'
p429
F1.0
s(lp430
(g90
I11
tp431
atp432
a(S'van'
p433
(dp434
S'ADP'
p435
F1.0
s(lp436
(g97
I12
tp437
atp438
a(S'het'
p439
(dp440
S'PRON'
p441
F0.0009339999999999999
sS'DET'
p442
F0.999066
s(lp443
(g37
I4
tp444
atp445
a(S'bestuur'
p446
(dp447
S'VERB'
p448
F1e-05
sS'NOUN'
p449
F0.99999
s(lp450
(g111
I13
tp451
atp452
a(g114
(dp453
g116
F1.0
s(lp454
(g114
I14
tp455
atp456
a(S'waarover'
p457
(dp458
S'ADV'
p459
F1.0
s(lp460
(g131
I16
tp461
atp462
a(S'u'
p463
(dp464
S'PRON'
p465
F0.9999849999999999
sS'NOUN'
p466
F1.6e-05
s(lp467
tp468
a(S'onlangs'
p469
(dp470
S'ADV'
p471
F1.0
s(lp472
(g161
I19
tp473
atp474
a(S'hebt'
p475
(dp476
S'VERB'
p477
F1.0
s(lp478
(g138
I17
tp479
atp480
a(S'geschreven'
p481
(dp482
S'VERB'
p483
F0.998904
sS'ADJ'
p484
F0.001096
s(lp485
(g316
I20
tp486
atp487
a(S'in'
p488
(dp489
S'ADV'
p490
F0.000108
sS'VERB'
p491
F1e-06
sS'ADP'
p492
F0.999891
s(lp493
(g169
I21
tp494
atp495
a(S'een'
p496
(dp497
S'ADJ'
p498
F1e-06
sS'PRON'
p499
F1.4e-05
sS'NUM'
p500
F0.0
sS'DET'
p501
F0.999985
s(lp502
(g178
I22
tp503
atp504
a(S'krantenartikel'
p505
(dp506
S'NOUN'
p507
F1.0
s(lp508
(g186
I23
tp509
atp510
a(g116
(dp511
g116
F1.0
s(lp512
(g116
I24
tp513
atp514
asS'de'
p515
(lp516
(S'die'
p517
(dp518
S'PRON'
p519
F0.00368
sS'DET'
p520
F0.995343
s(lp521
(g16
I1
tp522
atp523
a(S'union'
p524
(dp525
S'ADJ'
p526
F0.022366
sS'NOUN'
p527
F0.970849
s(lp528
(g23
I2
tp529
atp530
a(S'zu'
p531
(dp532
S'PRT'
p533
F0.999975
s(lp534
tp535
a(S'f\xc3\xbchren'
p536
(dp537
S'VERB'
p538
F1.0
s(lp539
(g7
I0
tp540
atp541
a(S'hei\xc3\x9ft'
p542
(dp543
S'VERB'
p544
F1.0
s(lp545
(g30
I3
tp546
atp547
a(g114
(dp548
g116
F1.0
s(lp549
tp550
a(S'eine'
p551
(dp552
S'PRON'
p553
F0.002838
sS'DET'
p554
F0.997067
s(lp555
(g178
I6
tp556
atp557
a(S'neue'
p558
(dp559
S'ADJ'
p560
F1.0
s(lp561
(g67
I7
tp562
atp563
a(S'idee'
p564
(dp565
S'X'
p566
F0.007174
sS'NOUN'
p567
F0.989131
s(lp568
(g59
I8
tp569
atp570
a(S'zur'
p571
(dp572
S'ADP'
p573
F1.0
s(lp574
(g74
I9
tp575
atp576
a(S'frage'
p577
(dp578
S'VERB'
p579
F1.0
s(lp580
(g90
I11
tp581
atp582
a(S'der'
p583
(dp584
S'PRON'
p585
F0.000197
sS'DET'
p586
F0.999802
s(lp587
(g97
I12
tp588
atp589
a(S'governance'
p590
(dp591
S'NOUN'
p592
F0.999814
s(lp593
(g111
I13
tp594
atp595
a(S'einzubringen'
p596
(dp597
S'VERB'
p598
F1.0
s(lp599
(g37
I4
tp600
atp601
a(g114
(dp602
g116
F1.0
s(lp603
(g114
I14
tp604
atp605
a(S'\xc3\xbcber'
p606
(dp607
S'PRT'
p608
F0.001125
sS'ADP'
p609
F0.998875
s(lp610
(g124
I15
tp611
atp612
a(S'die'
p613
(dp614
S'PRON'
p615
F0.352487
sS'DET'
p616
F0.626457
s(lp617
(g131
I16
tp618
atp619
a(S'sie'
p620
(dp621
S'PRON'
p622
F1.0
s(lp623
(g138
I17
tp624
atp625
a(S'gerade'
p626
(dp627
S'ADV'
p628
F0.984753
sS'PRT'
p629
F0.010982
s(lp630
(g161
I19
tp631
atp632
a(S'in'
p633
(dp634
S'ADP'
p635
F1.0
s(lp636
(g169
I21
tp637
atp638
a(S'einer'
p639
(dp640
S'PRON'
p641
F0.009583
sS'DET'
p642
F0.989779
s(lp643
(g178
I22
tp644
atp645
a(S'zeitung'
p646
(dp647
S'ADJ'
p648
F0.054007
sS'NOUN'
p649
F0.930757
s(lp650
(g186
I23
tp651
atp652
a(S'geschrieben'
p653
(dp654
S'VERB'
p655
F0.998479
sS'ADJ'
p656
F0.001521
s(lp657
(g316
I20
tp658
atp659
a(S'haben'
p660
(dp661
S'VERB'
p662
F0.999976
s(lp663
(g303
I18
tp664
atp665
a(g116
(dp666
g116
F1.0
s(lp667
(g116
I24
tp668
atp669
asS'it'
p670
(lp671
(S'guidare'
p672
(dp673
S'VERB'
p674
F1.0
s(lp675
(g7
I0
tp676
atp677
a(S"l'"
p678
(dp679
S'NOUN'
p680
F0.012178
sS'VERB'
p681
F0.890187
sS'ADJ'
p682
F0.097635
s(lp683
(g16
I1
tp684
atp685
a(S'unione'
p686
(dp687
S'NOUN'
p688
F1.0
s(lp689
(g23
I2
tp690
atp691
a(S'significa'
p692
(dp693
S'VERB'
p694
F1.0
s(lp695
(g30
I3
tp696
atp697
a(S'apportare'
p698
(dp699
S'VERB'
p700
F1.0
s(lp701
(g37
I4
tp702
atp703
a(S"un'"
p704
(dp705
S'PRON'
p706
F0.006833
sS'DEF'
p707
F0.993167
s(lp708
(g178
I6
tp709
atp710
a(S'idea'
p711
(dp712
S'VERB'
p713
F0.037118
sS'NOUN'
p714
F0.962882
s(lp715
(g59
I8
tp716
atp717
a(S'nuova'
p718
(dp719
S'NOUN'
p720
F0.002462
sS'ADJ'
p721
F0.997538
s(lp722
(g67
I7
tp723
atp724
a(S'sulla'
p725
(dp726
S'NOUN'
p727
F9.2e-05
sS'ADP'
p728
F0.999908
s(lp729
(g74
I9
tp730
atp731
a(S'questione'
p732
(dp733
S'NOUN'
p734
F1.0
s(lp735
(g90
I11
tp736
atp737
a(S'della'
p738
(dp739
S'DEF'
p740
F0.001588
sS'ADP'
p741
F0.998412
s(lp742
(g97
I12
tp743
atp744
a(S'governance'
p745
(dp746
S'ADJ'
p747
F0.000627
sS'VERB'
p748
F8.5e-05
sS'NOUN'
p749
F0.999288
s(lp750
(g111
I13
tp751
atp752
a(g114
(dp753
g116
F1.0
s(lp754
(g114
I14
tp755
atp756
a(S'di'
p757
(dp758
S'CONJ'
p759
F0.000227
sS'ADP'
p760
F0.999773
s(lp761
tp762
a(S'cui'
p763
(dp764
S'PRON'
p765
F1.0
s(lp766
(g131
I16
tp767
atp768
a(S'lei'
p769
(dp770
S'PRON'
p771
F1.0
s(lp772
(g138
I17
tp773
atp774
a(S'ha'
p775
(dp776
S'VERB'
p777
F1.0
s(lp778
(g303
I18
tp779
atp780
a(S'recentemente'
p781
(dp782
S'ADV'
p783
F1.0
s(lp784
(g161
I19
tp785
atp786
a(S'scritto'
p787
(dp788
S'NOUN'
p789
F0.000919
sS'VERB'
p790
F0.98837
sS'ADJ'
p791
F0.010711
s(lp792
(g316
I20
tp793
atp794
a(S'in'
p795
(dp796
S'ADP'
p797
F1.0
s(lp798
(g169
I21
tp799
atp800
a(S'un'
p801
(dp802
S'PRON'
p803
F0.002153
sS'DEF'
p804
F0.997847
s(lp805
(g178
I22
tp806
atp807
a(S'giornale'
p808
(dp809
S'ADJ'
p810
F0.340807
sS'NOUN'
p811
F0.659193
s(lp812
(g186
I23
tp813
atp814
a(g116
(dp815
g116
F1.0
s(lp816
(g116
I24
tp817
atp818
asS'sk'
p819
(lp820
(S'vies\xc5\xa5'
p821
(dp822
S'VERB'
p823
F1.0
s(lp824
(g7
I0
tp825
atp826
a(S'\xc3\x9aniu'
p827
(dp828
S'NOUN'
p829
F1.0
s(lp830
(g23
I2
tp831
atp832
a(S'znamen\xc3\xa1'
p833
(dp834
g566
F2e-06
sS'VERB'
p835
F0.999998
s(lp836
(g30
I3
tp837
atp838
a(S'prinies\xc5\xa5'
p839
(dp840
S'VERB'
p841
F1.0
s(lp842
(g37
I4
tp843
atp844
a(S'nov\xc3\xba'
p845
(dp846
S'ADJ'
p847
F1.0
s(lp848
(g67
I7
tp849
atp850
a(S'my\xc5\xa1lienku'
p851
(dp852
S'NOUN'
p853
F1.0
s(lp854
(g59
I8
tp855
atp856
a(S'v'
p857
(dp858
g566
F0.000504
sS'ADP'
p859
F0.999496
s(lp860
(g74
I9
tp861
atp862
a(S'oblasti'
p863
(dp864
S'NOUN'
p865
F1.0
s(lp866
(g90
I11
tp867
atp868
a(S'riadenia'
p869
(dp870
S'NOUN'
p871
F1.0
s(lp872
(g111
I13
tp873
atp874
a(g114
(dp875
g116
F1.0
s(lp876
(g114
I14
tp877
atp878
a(S'o'
p879
(dp880
g566
F0.000236
sS'CONJ'
p881
F0.002
sS'NOUN'
p882
F8.000000000000001e-06
sS'ADP'
p883
F0.997755
s(lp884
(g124
I15
tp885
atp886
a(S'ktorom'
p887
(dp888
S'PRON'
p889
F1.0
s(lp890
(g131
I16
tp891
atp892
a(S'sa'
p893
(dp894
S'PRT'
p895
F0.999974
sS'ADP'
p896
F0.0
sg566
F2.5e-05
s(lp897
(g303
I18
tp898
atp899
a(S'p\xc3\xadsalo'
p900
(dp901
S'VERB'
p902
F0.9999999999999999
s(lp903
(g316
I20
tp904
atp905
a(g857
(dp906
g566
F0.000195
sS'ADP'
p907
F0.999805
s(lp908
(g169
I21
tp909
atp910
a(S'tla\xc4\x8di'
p911
(dp912
S'NOUN'
p913
F1.0
s(lp914
(g186
I23
tp915
atp916
a(g116
(dp917
g116
F1.0
s(lp918
(g116
I24
tp919
atp920
asS'pl'
p921
(lp922
(S'przewodzenie'
p923
(dp924
S'VERB'
p925
F1.0
s(lp926
(g7
I0
tp927
atp928
a(S'unii'
p929
(dp930
S'NOUN'
p931
F1.0
s(lp932
(g23
I2
tp933
atp934
a(S'oznacza'
p935
(dp936
S'VERB'
p937
F1.0
s(lp938
(g30
I3
tp939
atp940
a(S'nowy'
p941
(dp942
S'ADJ'
p943
F0.999999
s(lp944
(g67
I7
tp945
atp946
a(S'pogl\xc4\x85d'
p947
(dp948
S'NOUN'
p949
F1.0
s(lp950
(g59
I8
tp951
atp952
a(S'na'
p953
(dp954
S'PRT'
p955
F1e-06
sS'VERB'
p956
F6e-06
sS'NOUN'
p957
F0.0
sS'ADP'
p958
F0.999993
sg566
F0.0
s(lp959
(g74
I9
tp960
atp961
a(S'kwesti\xc4\x99'
p962
(dp963
S'NOUN'
p964
F1.0
s(lp965
(g90
I11
tp966
atp967
a(S'\xc5\x82adu'
p968
(dp969
S'NOUN'
p970
F1.0
s(lp971
tp972
a(S'administracyjno-regulacyjnego'
p973
(dp974
S'ADV'
p975
F9.1e-05
sS'NOUN'
p976
F0.010319999999999996
sS'VERB'
p977
F0.000172
sS'ADJ'
p978
F0.9894160000000001
s(lp979
(g111
I13
tp980
atp981
a(g114
(dp982
g566
F0.0
sg116
F1.0
s(lp983
(g114
I14
tp984
atp985
a(g879
(dp986
g566
F0.003786
sS'VERB'
p987
F1.6e-05
sS'NOUN'
p988
F1.5e-05
sS'ADP'
p989
F0.996178
sS'PRT'
p990
F4e-06
s(lp991
(g124
I15
tp992
atp993
a(S'kt\xc3\xb3rej'
p994
(dp995
S'ADJ'
p996
F1.0
s(lp997
(g131
I16
tp998
atp999
a(S'niedawno'
p1000
(dp1001
S'ADV'
p1002
F1.0
s(lp1003
(g161
I19
tp1004
atp1005
a(S'pisa\xc5\x82'
p1006
(dp1007
S'VERB'
p1008
F1.0
s(lp1009
(g316
I20
tp1010
atp1011
a(S'pan'
p1012
(dp1013
g566
F3e-06
sS'NOUN'
p1014
F0.999997
s(lp1015
(g138
I17
tp1016
atp1017
a(S'w'
p1018
(dp1019
g566
F0.0
sS'ADJ'
p1020
F0.0
sS'ADP'
p1021
F0.999999
sS'NOUN'
p1022
F0.0
s(lp1023
(g169
I21
tp1024
atp1025
a(S'gazecie'
p1026
(dp1027
S'NOUN'
p1028
F1.0
s(lp1029
(g186
I23
tp1030
atp1031
a(g116
(dp1032
g116
F1.0
s(lp1033
(g116
I24
tp1034
atp1035
asS'sl'
p1036
(lp1037
(S'vodenje'
p1038
(dp1039
S'NOUN'
p1040
F1.0
s(lp1041
(g7
I0
tp1042
atp1043
a(S'unije'
p1044
(dp1045
S'NOUN'
p1046
F1.0
s(lp1047
(g23
I2
tp1048
atp1049
a(S'pomeni'
p1050
(dp1051
S'VERB'
p1052
F0.999932
sS'NOUN'
p1053
F6.8e-05
s(lp1054
(g30
I3
tp1055
atp1056
a(S'uvajanje'
p1057
(dp1058
S'NOUN'
p1059
F1.0
s(lp1060
(g37
I4
tp1061
atp1062
a(S'nove'
p1063
(dp1064
g566
F1.2e-05
sS'ADJ'
p1065
F0.999987
s(lp1066
(g67
I7
tp1067
atp1068
a(S'ideje'
p1069
(dp1070
S'NOUN'
p1071
F1.0
s(lp1072
(g59
I8
tp1073
atp1074
a(S'glede'
p1075
(dp1076
S'ADV'
p1077
F0.052031
sS'ADP'
p1078
F0.947969
s(lp1079
(g74
I9
tp1080
atp1081
a(S'vpra\xc5\xa1anja'
p1082
(dp1083
S'NOUN'
p1084
F1.0
s(lp1085
(g90
I11
tp1086
atp1087
a(S'vodenja'
p1088
(dp1089
S'NOUN'
p1090
F1.0
s(lp1091
(g111
I13
tp1092
atp1093
a(g114
(dp1094
g116
F1.0
s(lp1095
(g114
I14
tp1096
atp1097
a(g879
(dp1098
S'NOUN'
p1099
F4.7e-05
sS'ADP'
p1100
F0.999953
s(lp1101
(g124
I15
tp1102
atp1103
a(S'\xc4\x8demer'
p1104
(dp1105
S'PRON'
p1106
F1.0
s(lp1107
(g131
I16
tp1108
atp1109
a(S'ste'
p1110
(dp1111
S'VERB'
p1112
F1.0
s(lp1113
(g138
I17
tp1114
atp1115
a(S'pravkar'
p1116
(dp1117
S'ADV'
p1118
F1.0
s(lp1119
(g161
I19
tp1120
atp1121
a(S'pisali'
p1122
(dp1123
S'VERB'
p1124
F0.999189
sS'NOUN'
p1125
F0.000811
s(lp1126
(g316
I20
tp1127
atp1128
a(g857
(dp1129
S'ADP'
p1130
F1.0
s(lp1131
(g169
I21
tp1132
atp1133
a(S'\xc4\x8dasopisu'
p1134
(dp1135
S'NOUN'
p1136
F1.0
s(lp1137
(g186
I23
tp1138
atp1139
a(g116
(dp1140
g116
F1.0
s(lp1141
(g116
I24
tp1142
atp1143
asS'es'
p1144
(lp1145
(S'dirigir'
p1146
(dp1147
S'VERB'
p1148
F1.0
s(lp1149
(g7
I0
tp1150
atp1151
a(S'la'
p1152
(dp1153
S'PRON'
p1154
F4e-06
sS'DET'
p1155
F0.999995
sS'NOUN'
p1156
F0.0
sg566
F1e-06
s(lp1157
(g16
I1
tp1158
atp1159
a(S'uni\xc3\xb3n'
p1160
(dp1161
S'NOUN'
p1162
F1.0
s(lp1163
(g23
I2
tp1164
atp1165
a(S'es'
p1166
(dp1167
S'VERB'
p1168
F1.0
s(lp1169
(g30
I3
tp1170
atp1171
a(S'traer'
p1172
(dp1173
S'VERB'
p1174
F1.0
s(lp1175
(g37
I4
tp1176
atp1177
a(S'alguna'
p1178
(dp1179
S'ADJ'
p1180
F1.0
s(lp1181
(g178
I6
tp1182
atp1183
a(S'idea'
p1184
(dp1185
S'NOUN'
p1186
F1.0
s(lp1187
(g59
I8
tp1188
atp1189
a(S'nueva'
p1190
(dp1191
S'NOUN'
p1192
F0.006096
sS'ADJ'
p1193
F0.993904
s(lp1194
(g67
I7
tp1195
atp1196
a(S'sobre'
p1197
(dp1198
S'NOUN'
p1199
F0.0
sS'ADP'
p1200
F1.0
s(lp1201
(g74
I9
tp1202
atp1203
a(S'el'
p1204
(dp1205
S'PRON'
p1206
F5e-06
sS'DET'
p1207
F0.999995
s(lp1208
(g83
I10
tp1209
atp1210
a(S'tema'
p1211
(dp1212
S'NOUN'
p1213
F1.0
s(lp1214
(g90
I11
tp1215
atp1216
a(S'de'
p1217
(dp1218
g566
F0.0
sS'CONJ'
p1219
F1.7e-05
sS'ADP'
p1220
F0.999983
s(lp1221
(g97
I12
tp1222
atp1223
a(S'la'
p1224
(dp1225
g566
F0.0
sS'PRON'
p1226
F0.0
sS'DET'
p1227
F0.999999
sS'NOUN'
p1228
F0.0
s(lp1229
tp1230
a(S'gobernanza'
p1231
(dp1232
S'VERB'
p1233
F7e-06
sS'NOUN'
p1234
F0.999993
s(lp1235
(g111
I13
tp1236
atp1237
a(g114
(dp1238
g116
F1.0
s(lp1239
(g114
I14
tp1240
atp1241
a(S'sobre'
p1242
(dp1243
S'NOUN'
p1244
F0.0
sS'ADP'
p1245
F1.0
s(lp1246
(g124
I15
tp1247
atp1248
a(S'el'
p1249
(dp1250
S'PRON'
p1251
F0.000544
sS'DET'
p1252
F0.999456
s(lp1253
tp1254
a(S'que'
p1255
(dp1256
g566
F0.0
sS'CONJ'
p1257
F1.0
s(lp1258
(g131
I16
tp1259
atp1260
a(S'su'
p1261
(dp1262
S'PRON'
p1263
F1.0
s(lp1264
tp1265
a(S'se\xc3\xb1or\xc3\xada'
p1266
(dp1267
S'NOUN'
p1268
F1.0
s(lp1269
(g138
I17
tp1270
atp1271
a(S'acaba'
p1272
(dp1273
S'VERB'
p1274
F1.0
s(lp1275
(g161
I19
tp1276
atp1277
a(S'de'
p1278
(dp1279
g566
F0.0
sS'CONJ'
p1280
F0.445224
sS'ADP'
p1281
F0.554775
s(lp1282
tp1283
a(S'escribir'
p1284
(dp1285
S'VERB'
p1286
F1.0
s(lp1287
(g316
I20
tp1288
atp1289
a(S'en'
p1290
(dp1291
g566
F2e-06
sS'CONJ'
p1292
F1e-06
sS'ADP'
p1293
F0.999997
s(lp1294
(g169
I21
tp1295
atp1296
a(S'un'
p1297
(dp1298
g566
F1.9e-05
sS'DET'
p1299
F0.999981
s(lp1300
(g178
I22
tp1301
atp1302
a(S'peri\xc3\xb3dico'
p1303
(dp1304
S'ADJ'
p1305
F1.0
s(lp1306
(g186
I23
tp1307
atp1308
a(g116
(dp1309
g116
F1.0
s(lp1310
(g116
I24
tp1311
atp1312
as.