(dp0
S'fr'
p1
(lp2
(S'le'
p3
(dp4
S'PRON'
p5
F0.000439
sS'DET'
p6
F0.999561
s(lp7
(S'the'
p8
I0
tp9
atp10
a(S'projet'
p11
(dp12
S'NOUN'
p13
F1.0
s(lp14
(S'project'
p15
I3
tp16
atp17
a(S'nord'
p18
(dp19
S'NOUN'
p20
F0.001171
sS'ADJ'
p21
F0.998829
s(lp22
(S'nord'
p23
I1
tp24
atp25
a(S'stream'
p26
(dp27
S'NOUN'
p28
F1.0
s(lp29
(S'stream'
p30
I2
tp31
atp32
a(S'montre'
p33
(dp34
S'VERB'
p35
F0.998633
sS'NOUN'
p36
F0.001367
s(lp37
(S'demonstrates'
p38
I4
tp39
atp40
a(S'la'
p41
(dp42
S'PRON'
p43
F2.6e-05
sS'DET'
p44
F0.999974
sS'NOUN'
p45
F0.0
s(lp46
(S'the'
p47
I5
tp48
atp49
a(S'capacit\xc3\xa9'
p50
(dp51
S'NOUN'
p52
F1.0
s(lp53
(S'capability'
p54
I8
tp55
atp56
a(S'du'
p57
(dp58
S'ADP'
p59
F1.0
s(lp60
(S"'s"
p61
I7
tp62
atp63
a(S'kremlin'
p64
(dp65
S'NOUN'
p66
F1.0
s(lp67
(S'kremlin'
p68
I6
tp69
atp70
a(S'\xc3\xa0'
p71
(dp72
S'ADP'
p73
F1.0
s(lp74
(S'to'
p75
I9
tp76
atp77
a(S'monopoliser'
p78
(dp79
S'VERB'
p80
F1.0
s(lp81
(S'monopolise'
p82
I10
tp83
atp84
a(S'le'
p85
(dp86
S'PRON'
p87
F4e-05
sS'DET'
p88
F0.99996
s(lp89
(S'the'
p90
I11
tp91
atp92
a(S'march\xc3\xa9'
p93
(dp94
S'VERB'
p95
F3.4e-05
sS'NOUN'
p96
F0.999966
s(lp97
(S'market'
p98
I12
tp99
atp100
a(S'gazier'
p101
(dp102
S'NOUN'
p103
F0.01724
sS'ADJ'
p104
F0.98276
s(lp105
(S'gas'
p106
I14
tp107
atp108
a(S'en'
p109
(dp110
S'PRON'
p111
F0.001955
sS'ADP'
p112
F0.998045
s(lp113
(S'in'
p114
I15
tp115
atp116
a(S'europe'
p117
(dp118
S'VERB'
p119
F0.001773
sS'NOUN'
p120
F0.998228
s(lp121
(S'europe'
p122
I16
tp123
atp124
a(S'.'
p125
(dp126
g125
F1.0
s(lp127
(g125
I17
tp128
atp129
asS'en'
p130
(lp131
(g8
(dp132
S'NOUN'
p133
F6e-06
sS'DET'
p134
F0.999994
s(lp135
(g8
I0
tp136
atp137
a(g23
(dp138
S'ADJ'
p139
F0.028858
sS'NOUN'
p140
F0.971142
s(lp141
(g23
I1
tp142
atp143
a(g30
(dp144
S'VERB'
p145
F0.00142
sS'NOUN'
p146
F0.998581
s(lp147
(g30
I2
tp148
atp149
a(g15
(dp150
S'VERB'
p151
F0.000517
sS'NOUN'
p152
F0.999484
s(lp153
(g15
I3
tp154
atp155
a(g38
(dp156
S'VERB'
p157
F1.0
s(lp158
(g38
I4
tp159
atp160
a(g47
(dp161
S'NOUN'
p162
F1e-06
sS'DET'
p163
F0.999999
s(lp164
(g47
I5
tp165
atp166
a(g68
(dp167
S'NOUN'
p168
F1.0
s(lp169
(g68
I6
tp170
atp171
a(g61
(dp172
S'PRT'
p173
F0.984346
sg125
F0.015654
s(lp174
(g61
I7
tp175
atp176
a(g54
(dp177
S'NOUN'
p178
F1.0
s(lp179
(g54
I8
tp180
atp181
a(g75
(dp182
S'ADV'
p183
F0.0
sS'PRT'
p184
F1.0
sS'ADP'
p185
F0.0
s(lp186
(g75
I9
tp187
atp188
a(g82
(dp189
S'VERB'
p190
F1.0
s(lp191
(g82
I10
tp192
atp193
a(g90
(dp194
S'NOUN'
p195
F1e-06
sS'DET'
p196
F0.999999
s(lp197
(g90
I11
tp198
atp199
a(g98
(dp200
S'VERB'
p201
F3.2e-05
sS'NOUN'
p202
F0.999968
s(lp203
(g98
I12
tp204
atp205
a(S'for'
p206
(dp207
S'ADP'
p208
F1.0
s(lp209
(g206
I13
tp210
atp211
a(g106
(dp212
S'VERB'
p213
F4e-06
sS'NOUN'
p214
F0.999995
s(lp215
(g106
I14
tp216
atp217
a(g114
(dp218
S'ADV'
p219
F0.000111
sS'PRT'
p220
F0.000197
sS'ADP'
p221
F0.999692
s(lp222
(g114
I15
tp223
atp224
a(g122
(dp225
S'ADV'
p226
F0.000281
sS'ADJ'
p227
F0.016835
sS'VERB'
p228
F3e-06
sS'NOUN'
p229
F0.9828810000000001
s(lp230
(g122
I16
tp231
atp232
a(g125
(dp233
g125
F1.0
s(lp234
(g125
I17
tp235
atp236
asS'nl'
p237
(lp238
(S'het'
p239
(dp240
S'PRON'
p241
F0.01289
sS'DET'
p242
F0.98711
s(lp243
(g8
I0
tp244
atp245
a(S'project'
p246
(dp247
S'NOUN'
p248
F1.0
s(lp249
(g15
I3
tp250
atp251
a(S'nord'
p252
(dp253
S'NOUN'
p254
F0.156198
sS'ADJ'
p255
F0.843802
s(lp256
(g23
I1
tp257
atp258
a(S'stream'
p259
(dp260
S'NOUN'
p261
F1.0
s(lp262
(g30
I2
tp263
atp264
a(S'toont'
p265
(dp266
S'VERB'
p267
F1.0
s(lp268
(g38
I4
tp269
atp270
a(S'het'
p271
(dp272
S'PRON'
p273
F0.05033
sS'DET'
p274
F0.94967
s(lp275
tp276
a(S'vermogen'
p277
(dp278
S'VERB'
p279
F0.000387
sS'NOUN'
p280
F0.999613
s(lp281
(g54
I8
tp282
atp283
a(S'van'
p284
(dp285
S'ADP'
p286
F1.0
s(lp287
(g61
I7
tp288
atp289
a(S'het'
p290
(dp291
S'PRON'
p292
F0.000927
sS'DET'
p293
F0.999073
s(lp294
(g47
I5
tp295
atp296
a(S'kremlin'
p297
(dp298
S'NOUN'
p299
F1.0
s(lp300
(g68
I6
tp301
atp302
a(S'om'
p303
(dp304
S'ADV'
p305
F0.001848
sS'CONJ'
p306
F0.421818
sS'ADP'
p307
F0.576334
s(lp308
tp309
a(S'de'
p310
(dp311
S'DET'
p312
F1.0
s(lp313
(g90
I11
tp314
atp315
a(S'markt'
p316
(dp317
S'NOUN'
p318
F1.0
s(lp319
(g98
I12
tp320
atp321
a(S'voor'
p322
(dp323
S'ADV'
p324
F0.001032
sS'CONJ'
p325
F1e-06
sS'NOUN'
p326
F0.0
sS'ADP'
p327
F0.998967
s(lp328
(g206
I13
tp329
atp330
a(S'gas'
p331
(dp332
S'NOUN'
p333
F1.0
s(lp334
(g106
I14
tp335
atp336
a(S'in'
p337
(dp338
S'ADV'
p339
F0.002037
sS'VERB'
p340
F1e-06
sS'ADP'
p341
F0.997963
s(lp342
(g114
I15
tp343
atp344
a(S'europa'
p345
(dp346
S'NOUN'
p347
F1.0
s(lp348
(g122
I16
tp349
atp350
a(S'te'
p351
(dp352
S'PRT'
p353
F1.0
s(lp354
(g75
I9
tp355
atp356
a(S'monopoliseren'
p357
(dp358
S'VERB'
p359
F0.9999990000000001
sS'NOUN'
p360
F1e-06
s(lp361
(g82
I10
tp362
atp363
a(g125
(dp364
g125
F1.0
s(lp365
(g125
I17
tp366
atp367
asS'de'
p368
(lp369
(S'das'
p370
(dp371
S'PRON'
p372
F0.037876
sS'DET'
p373
F0.961812
s(lp374
(g8
I0
tp375
atp376
a(S'projekt'
p377
(dp378
S'ADJ'
p379
F0.06079
sS'NOUN'
p380
F0.937646
s(lp381
(g15
I3
tp382
atp383
a(S'nord'
p384
(dp385
S'NOUN'
p386
F0.8411500000000001
s(lp387
(g23
I1
tp388
atp389
a(S'stream'
p390
(dp391
S'ADJ'
p392
F0.004809
sS'NOUN'
p393
F0.994869
s(lp394
(g30
I2
tp395
atp396
a(S'zeigt'
p397
(dp398
S'VERB'
p399
F1.0
s(lp400
tp401
a(S','
p402
(dp403
g125
F1.0
s(lp404
tp405
a(S'dass'
p406
(dp407
S'CONJ'
p408
F1.0
s(lp409
(g38
I4
tp410
atp411
a(S'der'
p412
(dp413
S'PRON'
p414
F0.016233
sS'DET'
p415
F0.982793
s(lp416
(g47
I5
tp417
atp418
a(S'kreml'
p419
(dp420
S'NOUN'
p421
F0.923378
s(lp422
(g68
I6
tp423
atp424
a(S'in'
p425
(dp426
S'ADP'
p427
F1.0
s(lp428
tp429
a(S'der'
p430
(dp431
S'PRON'
p432
F1.5e-05
sS'DET'
p433
F0.999979
s(lp434
(g61
I7
tp435
atp436
a(S'lage'
p437
(dp438
S'ADJ'
p439
F0.000241
sS'NOUN'
p440
F0.999547
s(lp441
tp442
a(S'ist'
p443
(dp444
S'VERB'
p445
F1.0
s(lp446
(g54
I8
tp447
atp448
a(g402
(dp449
g125
F1.0
s(lp450
tp451
a(S'den'
p452
(dp453
S'PRON'
p454
F0.022268
sS'DET'
p455
F0.975717
s(lp456
(g90
I11
tp457
atp458
a(S'gasmarkt'
p459
(dp460
S'ADJ'
p461
F0.033238
sS'NOUN'
p462
F0.944487
s(lp463
(g106
I14
tp464
atp465
a(S'in'
p466
(dp467
S'ADP'
p468
F1.0
s(lp469
(g114
I15
tp470
atp471
a(S'europa'
p472
(dp473
S'ADJ'
p474
F0.09085
sS'NOUN'
p475
F0.894064
s(lp476
(g122
I16
tp477
atp478
a(S'zu'
p479
(dp480
S'PRT'
p481
F0.999944
s(lp482
(g75
I9
tp483
atp484
a(S'monopolisieren'
p485
(dp486
S'VERB'
p487
F1.0
s(lp488
(g82
I10
tp489
atp490
a(g125
(dp491
g125
F1.0
s(lp492
(g125
I17
tp493
atp494
asS'it'
p495
(lp496
(S'il'
p497
(dp498
S'DET'
p499
F1.0
s(lp500
(g8
I0
tp501
atp502
a(S'progetto'
p503
(dp504
S'VERB'
p505
F4.5e-05
sS'NOUN'
p506
F0.999955
s(lp507
(g15
I3
tp508
atp509
a(S'nord'
p510
(dp511
S'NOUN'
p512
F0.016575
sS'ADJ'
p513
F0.983425
s(lp514
(g23
I1
tp515
atp516
a(S'stream'
p517
(dp518
S'ADJ'
p519
F0.13968
sS'VERB'
p520
F0.0019909999999999997
sS'NOUN'
p521
F0.858329
s(lp522
(g30
I2
tp523
atp524
a(S'dimostra'
p525
(dp526
S'VERB'
p527
F1.0
s(lp528
(g38
I4
tp529
atp530
a(S'che'
p531
(dp532
S'PRON'
p533
F0.984431
sS'CONJ'
p534
F0.01492
sS'ADJ'
p535
F0.000649
s(lp536
tp537
a(S'la'
p538
(dp539
S'PRON'
p540
F0.001021
sS'DET'
p541
F0.998979
s(lp542
(g47
I5
tp543
atp544
a(S'capacit\xc3\xa0'
p545
(dp546
S'NOUN'
p547
F1.0
s(lp548
(g54
I8
tp549
atp550
a(S'del'
p551
(dp552
S'DEF'
p553
F0.001248
sS'ADP'
p554
F0.998752
s(lp555
(g61
I7
tp556
atp557
a(S'cremlino'
p558
(dp559
S'VERB'
p560
F1.6e-05
sS'NOUN'
p561
F0.999984
s(lp562
(g68
I6
tp563
atp564
a(S'di'
p565
(dp566
S'CONJ'
p567
F6e-06
sS'ADP'
p568
F0.999994
s(lp569
(g75
I9
tp570
atp571
a(S'monopolizzare'
p572
(dp573
S'VERB'
p574
F1.0
s(lp575
(g82
I10
tp576
atp577
a(S'il'
p578
(dp579
S'DET'
p580
F1.0
s(lp581
(g90
I11
tp582
atp583
a(S'mercato'
p584
(dp585
S'NOUN'
p586
F1.0
s(lp587
(g98
I12
tp588
atp589
a(S'del'
p590
(dp591
S'DEF'
p592
F0.001248
sS'ADP'
p593
F0.998752
s(lp594
tp595
a(S'gas'
p596
(dp597
S'NOUN'
p598
F1.0
s(lp599
(g106
I14
tp600
atp601
a(S'in'
p602
(dp603
S'ADP'
p604
F1.0
s(lp605
(g114
I15
tp606
atp607
a(S'europa'
p608
(dp609
S'NOUN'
p610
F0.246479
sS'VERB'
p611
F0.003532
sS'ADJ'
p612
F0.749989
s(lp613
(g122
I16
tp614
atp615
a(g125
(dp616
g125
F1.0
s(lp617
(g125
I17
tp618
atp619
asS'sk'
p620
(lp621
(S'projekt'
p622
(dp623
S'NOUN'
p624
F1.0
s(lp625
(g15
I3
tp626
atp627
a(S'nord'
p628
(dp629
S'NOUN'
p630
F0.085608
sS'NUM'
p631
F0.029829
sS'ADJ'
p632
F0.882119
sS'X'
p633
F0.002444
s(lp634
(g23
I1
tp635
atp636
a(S'stream'
p637
(dp638
S'ADJ'
p639
F0.00041799999999999997
sS'VERB'
p640
F1.4e-05
sS'NOUN'
p641
F0.9995679999999999
s(lp642
(g30
I2
tp643
atp644
a(S'demon\xc5\xa1truje'
p645
(dp646
S'VERB'
p647
F1.0
s(lp648
(g38
I4
tp649
atp650
a(S'schopnos\xc5\xa5'
p651
(dp652
S'NOUN'
p653
F1.0
s(lp654
(g54
I8
tp655
atp656
a(S'krem\xc4\xbea'
p657
(dp658
S'ADJ'
p659
F0.001558
sS'VERB'
p660
F0.031154
sS'NOUN'
p661
F0.967288
s(lp662
(g68
I6
tp663
atp664
a(S'monopolizova\xc5\xa5'
p665
(dp666
S'VERB'
p667
F1.0
s(lp668
(g82
I10
tp669
atp670
a(S'trh'
p671
(dp672
S'NOUN'
p673
F1.0
s(lp674
(g98
I12
tp675
atp676
a(S's'
p677
(dp678
g633
F0.0027740000000000004
sS'CONJ'
p679
F6.5e-05
sS'NOUN'
p680
F1.4e-05
sS'ADP'
p681
F0.997125
sS'PRT'
p682
F2.2e-05
s(lp683
(g206
I13
tp684
atp685
a(S'plynom'
p686
(dp687
S'NOUN'
p688
F1.0
s(lp689
(g106
I14
tp690
atp691
a(S'v'
p692
(dp693
g633
F0.00048699999999999997
sS'ADP'
p694
F0.999513
s(lp695
(g114
I15
tp696
atp697
a(S'eur\xc3\xb3pe'
p698
(dp699
S'NOUN'
p700
F1.0
s(lp701
(g122
I16
tp702
atp703
a(g125
(dp704
g125
F1.0
s(lp705
(g125
I17
tp706
atp707
asS'pl'
p708
(lp709
(S'budowa'
p710
(dp711
S'NOUN'
p712
F1.0
s(lp713
tp714
a(S'nord'
p715
(dp716
S'ADV'
p717
F0.0049949999999999994
sS'ADJ'
p718
F0.222642
sS'VERB'
p719
F0.049506999999999995
sS'NOUN'
p720
F0.7228550000000002
sg633
F3e-06
s(lp721
(g23
I1
tp722
atp723
a(S'stream'
p724
(dp725
S'ADJ'
p726
F0.00027
sS'VERB'
p727
F0.131159
sS'NOUN'
p728
F0.8685700000000001
s(lp729
(g30
I2
tp730
atp731
a(S'demonstruje'
p732
(dp733
S'VERB'
p734
F1.0
s(lp735
(g38
I4
tp736
atp737
a(S'mo\xc5\xbcliwo\xc5\x9bci'
p738
(dp739
S'NOUN'
p740
F1.0
s(lp741
(g54
I8
tp742
atp743
a(S'kremla'
p744
(dp745
S'ADJ'
p746
F0.003046
sS'VERB'
p747
F0.12049899999999998
sS'NOUN'
p748
F0.8764550000000001
s(lp749
(g68
I6
tp750
atp751
a(S'w'
p752
(dp753
S'ADJ'
p754
F0.0
sS'NOUN'
p755
F3e-06
sS'ADP'
p756
F0.9999970000000001
sg633
F0.0
s(lp757
(g61
I7
tp758
atp759
a(S'monopolizowaniu'
p760
(dp761
S'ADV'
p762
F3e-06
sS'ADJ'
p763
F0.00041099999999999996
sS'VERB'
p764
F0.140099
sS'NOUN'
p765
F0.8594850000000003
s(lp766
(g82
I10
tp767
atp768
a(S'rynku'
p769
(dp770
S'NOUN'
p771
F1.0
s(lp772
(g98
I12
tp773
atp774
a(S'gazu'
p775
(dp776
S'NOUN'
p777
F1.0
s(lp778
(g106
I14
tp779
atp780
a(g752
(dp781
S'ADJ'
p782
F0.0
sg633
F0.0
sS'NOUN'
p783
F0.0
sS'ADP'
p784
F0.9999990000000001
s(lp785
(g114
I15
tp786
atp787
a(S'europie'
p788
(dp789
S'ADV'
p790
F1.2e-05
sS'ADJ'
p791
F4.9e-05
sS'VERB'
p792
F1e-06
sS'NOUN'
p793
F0.9999409999999997
s(lp794
(g122
I16
tp795
atp796
a(g125
(dp797
g125
F1.0
s(lp798
(g125
I17
tp799
atp800
asS'sl'
p801
(lp802
(S'projekt'
p803
(dp804
S'NOUN'
p805
F1.0
s(lp806
(g15
I3
tp807
atp808
a(S'nord'
p809
(dp810
S'ADV'
p811
F0.043767
sS'ADJ'
p812
F0.077316
sS'VERB'
p813
F0.010376999999999999
sS'NOUN'
p814
F0.8650389999999998
sg633
F0.003501
s(lp815
(g23
I1
tp816
atp817
a(S'stream'
p818
(dp819
S'ADV'
p820
F0.002314
sS'ADJ'
p821
F0.008055999999999999
sS'VERB'
p822
F0.07286800000000002
sS'NOUN'
p823
F0.9167640000000001
s(lp824
(g30
I2
tp825
atp826
a(S'je'
p827
(dp828
S'PRON'
p829
F0.001919
sS'VERB'
p830
F0.997914
sg633
F0.000167
s(lp831
(g47
I5
tp832
atp833
a(S'primer'
p834
(dp835
S'NOUN'
p836
F1.0
s(lp837
(g82
I10
tp838
atp839
a(S'ruskega'
p840
(dp841
S'ADJ'
p842
F1.0
s(lp843
(g82
I10
tp844
atp845
a(S'monopola'
p846
(dp847
S'ADV'
p848
F1.1e-05
sS'ADJ'
p849
F4.599999999999999e-05
sS'VERB'
p850
F0.003466
sS'NOUN'
p851
F0.9964789999999999
s(lp852
tp853
a(S'na'
p854
(dp855
S'ADP'
p856
F1.0
s(lp857
(g38
I4
tp858
atp859
a(S'evropskem'
p860
(dp861
S'ADJ'
p862
F1.0
s(lp863
(g82
I10
tp864
atp865
a(S'trgu'
p866
(dp867
S'NOUN'
p868
F1.0
s(lp869
(g98
I12
tp870
atp871
a(S'zemeljskega'
p872
(dp873
S'ADJ'
p874
F1.0
s(lp875
tp876
a(S'plina'
p877
(dp878
S'NOUN'
p879
F1.0
s(lp880
(g106
I14
tp881
atp882
a(g125
(dp883
g125
F1.0
s(lp884
(g125
I17
tp885
atp886
asS'es'
p887
(lp888
(S'el'
p889
(dp890
S'PRON'
p891
F0.000134
sS'DET'
p892
F0.999866
s(lp893
(g8
I0
tp894
atp895
a(S'proyecto'
p896
(dp897
S'VERB'
p898
F0.000213
sS'NOUN'
p899
F0.999787
s(lp900
(g15
I3
tp901
atp902
a(S'nord'
p903
(dp904
S'NOUN'
p905
F0.38036200000000003
sS'ADJ'
p906
F0.619638
s(lp907
(g23
I1
tp908
atp909
a(S'stream'
p910
(dp911
S'NOUN'
p912
F1.0
s(lp913
(g30
I2
tp914
atp915
a(S'demuestra'
p916
(dp917
S'VERB'
p918
F1.0
s(lp919
(g38
I4
tp920
atp921
a(S'la'
p922
(dp923
g633
F0.0
sS'PRON'
p924
F0.0
sS'DET'
p925
F1.0
sS'NOUN'
p926
F0.0
s(lp927
(g47
I5
tp928
atp929
a(S'capacidad'
p930
(dp931
S'NOUN'
p932
F1.0
s(lp933
(g54
I8
tp934
atp935
a(S'del'
p936
(dp937
S'ADP'
p938
F1.0
s(lp939
tp940
a(S'kremlin'
p941
(dp942
S'ADJ'
p943
F0.000271
sS'NOUN'
p944
F0.999729
s(lp945
(g68
I6
tp946
atp947
a(S'de'
p948
(dp949
g633
F0.0
sS'CONJ'
p950
F0.349642
sS'ADP'
p951
F0.650358
s(lp952
(g61
I7
tp953
atp954
a(S'monopolizar'
p955
(dp956
S'VERB'
p957
F1.0
s(lp958
(g82
I10
tp959
atp960
a(S'el'
p961
(dp962
S'PRON'
p963
F0.0
sS'DET'
p964
F1.0
s(lp965
(g90
I11
tp966
atp967
a(S'mercado'
p968
(dp969
S'VERB'
p970
F0.014371
sS'NOUN'
p971
F0.985629
s(lp972
(g98
I12
tp973
atp974
a(S'del'
p975
(dp976
S'ADP'
p977
F1.0
s(lp978
tp979
a(S'gas'
p980
(dp981
S'NOUN'
p982
F1.0
s(lp983
(g106
I14
tp984
atp985
a(S'en'
p986
(dp987
g633
F1.8e-05
sS'CONJ'
p988
F1e-05
sS'ADP'
p989
F0.999972
s(lp990
(g114
I15
tp991
atp992
a(S'europa'
p993
(dp994
S'NOUN'
p995
F1.0
s(lp996
(g122
I16
tp997
atp998
a(g125
(dp999
g125
F1.0
s(lp1000
(g125
I17
tp1001
atp1002
as.