(dp0
S'fr'
p1
(lp2
(S'dans'
p3
(dp4
S'NOUN'
p5
F6.4e-05
sS'ADP'
p6
F0.999936
s(lp7
(S'in'
p8
I0
tp9
atp10
a(S'le'
p11
(dp12
S'PRON'
p13
F6.2e-05
sS'DET'
p14
F0.999938
s(lp15
(S'the'
p16
I1
tp17
atp18
a(S'contexte'
p19
(dp20
S'NOUN'
p21
F1.0
s(lp22
(S'context'
p23
I2
tp24
atp25
a(S'des'
p26
(dp27
S'DET'
p28
F2.1e-05
sS'ADP'
p29
F0.999979
s(lp30
(S'of'
p31
I3
tp32
atp33
a(S'discussions'
p34
(dp35
S'NOUN'
p36
F1.0
s(lp37
(S'discussions'
p38
I4
tp39
atp40
a(S'sur'
p41
(dp42
S'ADP'
p43
F1.0
s(lp44
(S'on'
p45
I5
tp46
atp47
a(S"l'"
p48
(dp49
S'ADJ'
p50
F0.160704
sS'VERB'
p51
F0.06480800000000002
sS'NOUN'
p52
F0.774488
s(lp53
(S'the'
p54
I6
tp55
atp56
a(S'utilisation'
p57
(dp58
S'NOUN'
p59
F1.0
s(lp60
(S'use'
p61
I8
tp62
atp63
a(S'efficace'
p64
(dp65
S'NOUN'
p66
F0.007084
sS'ADJ'
p67
F0.992916
s(lp68
(S'effective'
p69
I7
tp70
atp71
a(S'de'
p72
(dp73
S'ADP'
p74
F1.0
s(lp75
(S'of'
p76
I9
tp77
atp78
a(S'tous'
p79
(dp80
S'PRON'
p81
F0.999975
sS'NOUN'
p82
F2.5e-05
s(lp83
(S'all'
p84
I10
tp85
atp86
a(S'les'
p87
(dp88
S'PRON'
p89
F0.044961
sS'DET'
p90
F0.955037
sS'ADP'
p91
F2e-06
s(lp92
tp93
a(S'fonds'
p94
(dp95
S'VERB'
p96
F0.048617
sS'NOUN'
p97
F0.951383
s(lp98
(S'funds'
p99
I11
tp100
atp101
a(S'allou\xc3\xa9s'
p102
(dp103
S'NOUN'
p104
F0.009229
sS'VERB'
p105
F0.871825
sS'ADJ'
p106
F0.118946
s(lp107
(S'earmarked'
p108
I12
tp109
atp110
a(S'par'
p111
(dp112
S'NOUN'
p113
F7e-06
sS'ADP'
p114
F0.999993
s(lp115
(S'by'
p116
I13
tp117
atp118
a(S"l'"
p119
(dp120
S'ADJ'
p121
F0.160705
sS'VERB'
p122
F0.06481299999999997
sS'NOUN'
p123
F0.774483
s(lp124
(S'the'
p125
I14
tp126
atp127
a(S'union'
p128
(dp129
S'NOUN'
p130
F1.0
s(lp131
(S'union'
p132
I16
tp133
atp134
a(S'europ\xc3\xa9enne'
p135
(dp136
S'NOUN'
p137
F0.015256
sS'ADJ'
p138
F0.984744
s(lp139
(S'european'
p140
I15
tp141
atp142
a(S'pour'
p143
(dp144
S'CONJ'
p145
F0.257547
sS'ADP'
p146
F0.742453
s(lp147
(S'for'
p148
I17
tp149
atp150
a(S'la'
p151
(dp152
S'PRON'
p153
F0.000363
sS'DET'
p154
F0.999637
sS'NOUN'
p155
F0.0
s(lp156
tp157
a(S'recherche'
p158
(dp159
S'VERB'
p160
F0.000369
sS'NOUN'
p161
F0.99963
s(lp162
(S'research'
p163
I18
tp164
atp165
a(S'et'
p166
(dp167
S'CONJ'
p168
F1.0
s(lp169
(S'and'
p170
I19
tp171
atp172
a(S"l'"
p173
(dp174
S'NOUN'
p175
F0.050387
sS'VERB'
p176
F0.8915730000000001
sS'ADJ'
p177
F0.05804
s(lp178
tp179
a(S'innovation'
p180
(dp181
S'NOUN'
p182
F1.0
s(lp183
(S'innovation'
p184
I20
tp185
atp186
a(S','
p187
(dp188
S'.'
p189
F1.0
s(lp190
(g187
I21
tp191
atp192
a(S'nous'
p193
(dp194
S'PRON'
p195
F1.0
s(lp196
(S'we'
p197
I22
tp198
atp199
a(S'devons'
p200
(dp201
S'VERB'
p202
F0.999987
sS'NOUN'
p203
F1.3e-05
s(lp204
(S'have'
p205
I23
tp206
atp207
a(S'aborder'
p208
(dp209
S'VERB'
p210
F1.0
s(lp211
(S'raise'
p212
I25
tp213
atp214
a(S'le'
p215
(dp216
S'PRON'
p217
F3.4e-05
sS'DET'
p218
F0.999966
s(lp219
(S'the'
p220
I26
tp221
atp222
a(S'probl\xc3\xa8me'
p223
(dp224
S'NOUN'
p225
F1.0
s(lp226
(S'problem'
p227
I27
tp228
atp229
a(S'de'
p230
(dp231
S'ADP'
p232
F1.0
s(lp233
(S'of'
p234
I28
tp235
atp236
a(S'la'
p237
(dp238
S'PRON'
p239
F1.2e-05
sS'DET'
p240
F0.999988
sS'NOUN'
p241
F0.0
s(lp242
tp243
a(S'promotion'
p244
(dp245
S'NOUN'
p246
F1.0
s(lp247
(S'promotion'
p248
I30
tp249
atp250
a(S'appropri\xc3\xa9e'
p251
(dp252
S'VERB'
p253
F0.851312
sS'ADJ'
p254
F0.148688
s(lp255
(S'appropriate'
p256
I29
tp257
atp258
a(S'de'
p259
(dp260
S'ADP'
p261
F1.0
s(lp262
(S'for'
p263
I31
tp264
atp265
a(S'solutions'
p266
(dp267
S'NOUN'
p268
F1.0
s(lp269
(S'solutions'
p270
I33
tp271
atp272
a(S'innovantes'
p273
(dp274
S'NOUN'
p275
F0.018119
sS'VERB'
p276
F0.001691
sS'ADJ'
p277
F0.980188
s(lp278
(S'innovative'
p279
I32
tp280
atp281
a(S'qui'
p282
(dp283
S'PRON'
p284
F1.0
s(lp285
(S'which'
p286
I34
tp287
atp288
a(S'apparaissent'
p289
(dp290
S'VERB'
p291
F1.0
s(lp292
(S'arise'
p293
I35
tp294
atp295
a(S'dans'
p296
(dp297
S'NOUN'
p298
F3.3e-05
sS'ADP'
p299
F0.999967
s(lp300
(S'in'
p301
I36
tp302
atp303
a(S'chaque'
p304
(dp305
S'PRON'
p306
F1.0
s(lp307
(S'individual'
p308
I37
tp309
atp310
a(S'\xc3\x89tat'
p311
(dp312
S'NOUN'
p313
F1.0
s(lp314
(S'states'
p315
I39
tp316
atp317
a(S'membre'
p318
(dp319
S'VERB'
p320
F0.302484
sS'NOUN'
p321
F0.697516
s(lp322
(S'member'
p323
I38
tp324
atp325
a(g189
(dp326
g189
F1.0
s(lp327
(g189
I40
tp328
atp329
asS'en'
p330
(lp331
(g8
(dp332
S'ADV'
p333
F0.001492
sS'PRT'
p334
F0.0
sS'ADP'
p335
F0.998508
s(lp336
(g8
I0
tp337
atp338
a(g16
(dp339
S'NOUN'
p340
F1e-06
sS'DET'
p341
F0.999999
s(lp342
(g16
I1
tp343
atp344
a(g23
(dp345
S'NOUN'
p346
F1.0
s(lp347
(g23
I2
tp348
atp349
a(g31
(dp350
S'ADP'
p351
F1.0
s(lp352
(g31
I3
tp353
atp354
a(g38
(dp355
S'NOUN'
p356
F1.0
s(lp357
(g38
I4
tp358
atp359
a(g45
(dp360
S'ADV'
p361
F0.000757
sS'PRT'
p362
F0.000439
sS'ADJ'
p363
F0.0
sS'ADP'
p364
F0.998804
sS'NOUN'
p365
F0.0
s(lp366
(g45
I5
tp367
atp368
a(g54
(dp369
S'NOUN'
p370
F1e-06
sS'DET'
p371
F0.999999
s(lp372
(g54
I6
tp373
atp374
a(g69
(dp375
S'NOUN'
p376
F0.006745
sS'ADJ'
p377
F0.993255
s(lp378
(g69
I7
tp379
atp380
a(g61
(dp381
S'VERB'
p382
F0.0029599999999999995
sS'NOUN'
p383
F0.99704
s(lp384
(g61
I8
tp385
atp386
a(g76
(dp387
S'ADP'
p388
F1.0
s(lp389
(g76
I9
tp390
atp391
a(g84
(dp392
S'ADV'
p393
F0.000678
sS'DET'
p394
F0.999322
s(lp395
(g84
I10
tp396
atp397
a(g99
(dp398
S'VERB'
p399
F9.7e-05
sS'NOUN'
p400
F0.999903
s(lp401
(g99
I11
tp402
atp403
a(g108
(dp404
S'VERB'
p405
F1.0
s(lp406
(g108
I12
tp407
atp408
a(g116
(dp409
S'ADV'
p410
F0.000181
sS'NOUN'
p411
F0.0
sS'ADP'
p412
F0.999819
s(lp413
(g116
I13
tp414
atp415
a(g125
(dp416
S'NOUN'
p417
F1e-06
sS'DET'
p418
F0.999999
s(lp419
(g125
I14
tp420
atp421
a(g140
(dp422
S'NOUN'
p423
F0.10881199999999999
sS'VERB'
p424
F1.1e-05
sS'ADJ'
p425
F0.891178
s(lp426
(g140
I15
tp427
atp428
a(g132
(dp429
S'NOUN'
p430
F1.0
s(lp431
(g132
I16
tp432
atp433
a(g148
(dp434
S'ADP'
p435
F1.0
s(lp436
(g148
I17
tp437
atp438
a(g163
(dp439
S'VERB'
p440
F1.4e-05
sS'NOUN'
p441
F0.999986
s(lp442
(g163
I18
tp443
atp444
a(g170
(dp445
S'CONJ'
p446
F0.999998
sS'NOUN'
p447
F2e-06
s(lp448
(g170
I19
tp449
atp450
a(g184
(dp451
S'NOUN'
p452
F1.0
s(lp453
(g184
I20
tp454
atp455
a(g187
(dp456
g189
F1.0
s(lp457
(g187
I21
tp458
atp459
a(g197
(dp460
S'PRON'
p461
F1.0
s(lp462
(g197
I22
tp463
atp464
a(g205
(dp465
S'VERB'
p466
F1.0
s(lp467
(g205
I23
tp468
atp469
a(S'to'
p470
(dp471
S'ADV'
p472
F1e-06
sS'PRT'
p473
F0.999999
sS'ADP'
p474
F0.0
s(lp475
(g470
I24
tp476
atp477
a(g212
(dp478
S'VERB'
p479
F0.999971
sS'NOUN'
p480
F2.9e-05
s(lp481
(g212
I25
tp482
atp483
a(g220
(dp484
S'NOUN'
p485
F1e-06
sS'DET'
p486
F0.999999
s(lp487
(g220
I26
tp488
atp489
a(g227
(dp490
S'NOUN'
p491
F1.0
s(lp492
(g227
I27
tp493
atp494
a(g234
(dp495
S'ADP'
p496
F1.0
s(lp497
(g234
I28
tp498
atp499
a(g256
(dp500
S'VERB'
p501
F8e-06
sS'ADJ'
p502
F0.999992
s(lp503
(g256
I29
tp504
atp505
a(g248
(dp506
S'NOUN'
p507
F1.0
s(lp508
(g248
I30
tp509
atp510
a(g263
(dp511
S'ADP'
p512
F1.0
s(lp513
(g263
I31
tp514
atp515
a(g279
(dp516
S'ADJ'
p517
F1.0
s(lp518
(g279
I32
tp519
atp520
a(g270
(dp521
S'NOUN'
p522
F1.0
s(lp523
(g270
I33
tp524
atp525
a(g286
(dp526
S'DET'
p527
F1.0
s(lp528
(g286
I34
tp529
atp530
a(g293
(dp531
S'VERB'
p532
F1.0
s(lp533
(g293
I35
tp534
atp535
a(g301
(dp536
S'ADV'
p537
F0.011687
sS'PRT'
p538
F0.009432
sS'ADP'
p539
F0.978881
s(lp540
(g301
I36
tp541
atp542
a(g308
(dp543
S'NOUN'
p544
F0.040116
sS'ADJ'
p545
F0.959884
s(lp546
(g308
I37
tp547
atp548
a(g323
(dp549
S'NOUN'
p550
F1.0
s(lp551
(g323
I38
tp552
atp553
a(g315
(dp554
S'VERB'
p555
F0.009364
sS'NOUN'
p556
F0.990636
s(lp557
(g315
I39
tp558
atp559
a(g189
(dp560
g189
F1.0
s(lp561
(g189
I40
tp562
atp563
asS'nl'
p564
(lp565
(S'schriftelijk'
p566
(dp567
S'ADJ'
p568
F1.0
s(lp569
(g8
I0
tp570
atp571
a(g189
(dp572
g189
F1.0
s(lp573
tp574
a(S'-'
p575
(dp576
g189
F1.0
s(lp577
(g16
I1
tp578
atp579
a(S'('
p580
(dp581
g189
F1.0
s(lp582
tp583
a(S'pl'
p584
(dp585
S'ADJ'
p586
F0.022827
sS'NOUN'
p587
F0.977173
s(lp588
(g23
I2
tp589
atp590
a(S')'
p591
(dp592
g189
F1.0
s(lp593
tp594
a(S'in'
p595
(dp596
S'ADV'
p597
F0.014076
sS'VERB'
p598
F8e-06
sS'ADP'
p599
F0.985916
s(lp600
(g31
I3
tp601
atp602
a(S'de'
p603
(dp604
S'DET'
p605
F1.0
s(lp606
(g54
I6
tp607
atp608
a(S'discussie'
p609
(dp610
S'NOUN'
p611
F1.0
s(lp612
(g38
I4
tp613
atp614
a(S'over'
p615
(dp616
S'ADV'
p617
F0.180062
sS'ADP'
p618
F0.819938
s(lp619
(g45
I5
tp620
atp621
a(S'doeltreffende'
p622
(dp623
S'NOUN'
p624
F0.000776
sS'ADJ'
p625
F0.999224
s(lp626
(g69
I7
tp627
atp628
a(S'aanwending'
p629
(dp630
S'NOUN'
p631
F1.0
s(lp632
(g61
I8
tp633
atp634
a(S'van'
p635
(dp636
S'ADP'
p637
F1.0
s(lp638
(g76
I9
tp639
atp640
a(S'de'
p641
(dp642
S'DET'
p643
F1.0
s(lp644
(g84
I10
tp645
atp646
a(S'middelen'
p647
(dp648
S'NOUN'
p649
F1.0
s(lp650
(g99
I11
tp651
atp652
a(S'van'
p653
(dp654
S'ADP'
p655
F1.0
s(lp656
(g116
I13
tp657
atp658
a(S'de'
p659
(dp660
S'DET'
p661
F1.0
s(lp662
(g125
I14
tp663
atp664
a(S'europese'
p665
(dp666
S'NOUN'
p667
F1.0
s(lp668
(g140
I15
tp669
atp670
a(S'unie'
p671
(dp672
S'NOUN'
p673
F1.0
s(lp674
(g132
I16
tp675
atp676
a(S'die'
p677
(dp678
S'PRON'
p679
F1.0
s(lp680
(g108
I12
tp681
atp682
a(S'zijn'
p683
(dp684
S'PRON'
p685
F0.02837
sS'VERB'
p686
F0.971599
sS'NOUN'
p687
F3.1e-05
s(lp688
tp689
a(S'bestemd'
p690
(dp691
S'VERB'
p692
F1.0
s(lp693
(g108
I12
tp694
atp695
a(S'voor'
p696
(dp697
S'ADV'
p698
F3.7e-05
sS'CONJ'
p699
F2e-06
sS'NOUN'
p700
F0.0
sS'ADP'
p701
F0.999961
s(lp702
(g148
I17
tp703
atp704
a(S'onderzoek'
p705
(dp706
S'VERB'
p707
F0.0
sS'NOUN'
p708
F1.0
s(lp709
(g163
I18
tp710
atp711
a(S'en'
p712
(dp713
S'CONJ'
p714
F1.0
s(lp715
(g170
I19
tp716
atp717
a(S'innovatie'
p718
(dp719
S'NOUN'
p720
F1.0
s(lp721
(g184
I20
tp722
atp723
a(g187
(dp724
g189
F1.0
s(lp725
(g187
I21
tp726
atp727
a(S'zullen'
p728
(dp729
S'VERB'
p730
F0.999999
sS'NOUN'
p731
F1e-06
s(lp732
tp733
a(S'we'
p734
(dp735
S'PRON'
p736
F1.0
s(lp737
(g197
I22
tp738
atp739
a(S'het'
p740
(dp741
S'PRON'
p742
F0.6651980000000001
sS'DET'
p743
F0.334802
s(lp744
(g220
I26
tp745
atp746
a(S'ook'
p747
(dp748
S'ADV'
p749
F1.0
s(lp750
(g205
I23
tp751
atp752
a(S'moeten'
p753
(dp754
S'VERB'
p755
F0.999895
sS'NOUN'
p756
F0.000105
s(lp757
tp758
a(S'hebben'
p759
(dp760
S'VERB'
p761
F0.999971
sS'NOUN'
p762
F3e-05
s(lp763
(g205
I23
tp764
atp765
a(S'over'
p766
(dp767
S'ADV'
p768
F0.042474
sS'ADP'
p769
F0.957526
s(lp770
(g234
I28
tp771
atp772
a(S'goede'
p773
(dp774
S'NOUN'
p775
F0.085453
sS'ADJ'
p776
F0.914547
s(lp777
(g256
I29
tp778
atp779
a(S'promotie'
p780
(dp781
S'NOUN'
p782
F1.0
s(lp783
(g248
I30
tp784
atp785
a(S'van'
p786
(dp787
S'ADP'
p788
F1.0
s(lp789
(g263
I31
tp790
atp791
a(S'de'
p792
(dp793
S'DET'
p794
F1.0
s(lp795
tp796
a(S'innovatieve'
p797
(dp798
S'NOUN'
p799
F0.527784
sS'ADJ'
p800
F0.472216
s(lp801
(g279
I32
tp802
atp803
a(S'oplossingen'
p804
(dp805
S'NOUN'
p806
F1.0
s(lp807
(g270
I33
tp808
atp809
a(S'die'
p810
(dp811
S'PRON'
p812
F1.0
s(lp813
(g286
I34
tp814
atp815
a(S'in'
p816
(dp817
S'ADV'
p818
F0.009289
sS'VERB'
p819
F1e-06
sS'ADP'
p820
F0.99071
s(lp821
(g301
I36
tp822
atp823
a(S'de'
p824
(dp825
S'DET'
p826
F1.0
s(lp827
tp828
a(S'verschillende'
p829
(dp830
S'PRON'
p831
F3e-06
sS'VERB'
p832
F8e-05
sS'ADJ'
p833
F0.999917
sS'NOUN'
p834
F0.0
s(lp835
(g308
I37
tp836
atp837
a(S'lidstaten'
p838
(dp839
S'NOUN'
p840
F1.0
s(lp841
(g323
I38
tp842
atp843
a(S'zijn'
p844
(dp845
S'PRON'
p846
F0.0012
sS'VERB'
p847
F0.998791
sS'NOUN'
p848
F8e-06
s(lp849
(g293
I35
tp850
atp851
a(S'ontwikkeld'
p852
(dp853
S'VERB'
p854
F0.998308
sS'ADJ'
p855
F0.001692
s(lp856
(g315
I39
tp857
atp858
a(g189
(dp859
g189
F1.0
s(lp860
(g189
I40
tp861
atp862
asS'de'
p863
(lp864
(S'im'
p865
(dp866
S'ADP'
p867
F1.0
s(lp868
(g8
I0
tp869
atp870
a(S'rahmen'
p871
(dp872
S'VERB'
p873
F1.0
s(lp874
(g23
I2
tp875
atp876
a(S'der'
p877
(dp878
S'PRON'
p879
F0.000192
sS'DET'
p880
F0.999807
s(lp881
(g31
I3
tp882
atp883
a(S'diskussionen'
p884
(dp885
S'ADJ'
p886
F0.000133
sS'NOUN'
p887
F0.99975
s(lp888
(g38
I4
tp889
atp890
a(S'\xc3\xbcber'
p891
(dp892
S'PRT'
p893
F9.1e-05
sS'ADP'
p894
F0.999909
s(lp895
(g45
I5
tp896
atp897
a(S'die'
p898
(dp899
S'PRON'
p900
F0.000218
sS'DET'
p901
F0.999766
s(lp902
(g54
I6
tp903
atp904
a(S'zielgerichtete'
p905
(dp906
S'ADJ'
p907
F1.0
s(lp908
(g69
I7
tp909
atp910
a(S'nutzung'
p911
(dp912
S'ADJ'
p913
F0.023269
sS'NOUN'
p914
F0.976731
s(lp915
(g61
I8
tp916
atp917
a(S'aller'
p918
(dp919
S'PRON'
p920
F1.0
s(lp921
(g84
I10
tp922
atp923
a(S'durch'
p924
(dp925
S'PRT'
p926
F0.000943
sS'ADP'
p927
F0.998859
s(lp928
(g116
I13
tp929
atp930
a(S'die'
p931
(dp932
S'PRON'
p933
F0.002499
sS'DET'
p934
F0.997262
s(lp935
(g125
I14
tp936
atp937
a(S'eu'
p938
(dp939
S'ADJ'
p940
F0.344096
sS'NOUN'
p941
F0.527222
s(lp942
(g132
I16
tp943
atp944
a(S'f\xc3\xbcr'
p945
(dp946
S'ADP'
p947
F1.0
s(lp948
(g148
I17
tp949
atp950
a(S'forschung'
p951
(dp952
S'X'
p953
F0.35357
sS'NOUN'
p954
F0.470109
s(lp955
(g163
I18
tp956
atp957
a(S'und'
p958
(dp959
S'CONJ'
p960
F1.0
s(lp961
(g170
I19
tp962
atp963
a(S'innovation'
p964
(dp965
S'ADJ'
p966
F0.836595
s(lp967
(g184
I20
tp968
atp969
a(S'bestimmten'
p970
(dp971
S'VERB'
p972
F0.004444
sS'ADJ'
p973
F0.995556
s(lp974
(g108
I12
tp975
atp976
a(S'mittel'
p977
(dp978
S'VERB'
p979
F1.0
s(lp980
(g99
I11
tp981
atp982
a(S'm\xc3\xbcssen'
p983
(dp984
S'VERB'
p985
F0.999256
s(lp986
(g205
I23
tp987
atp988
a(S'wir'
p989
(dp990
S'PRON'
p991
F1.0
s(lp992
(g197
I22
tp993
atp994
a(S'die'
p995
(dp996
S'PRON'
p997
F0.002585
sS'DET'
p998
F0.995854
s(lp999
(g220
I26
tp1000
atp1001
a(S'problematik'
p1002
(dp1003
S'ADJ'
p1004
F0.012441
sS'NOUN'
p1005
F0.973701
s(lp1006
(g227
I27
tp1007
atp1008
a(S'der'
p1009
(dp1010
S'PRON'
p1011
F9e-05
sS'DET'
p1012
F0.999884
s(lp1013
(g234
I28
tp1014
atp1015
a(S'angemessenen'
p1016
(dp1017
S'ADJ'
p1018
F1.0
s(lp1019
(g256
I29
tp1020
atp1021
a(S'f\xc3\xb6rderung'
p1022
(dp1023
S'VERB'
p1024
F1.8e-05
sS'NOUN'
p1025
F0.999955
s(lp1026
(g248
I30
tp1027
atp1028
a(S'von'
p1029
(dp1030
S'NOUN'
p1031
F0.000694
sS'ADP'
p1032
F0.999306
s(lp1033
(g263
I31
tp1034
atp1035
a(S'innovativen'
p1036
(dp1037
S'ADJ'
p1038
F1.0
s(lp1039
(g279
I32
tp1040
atp1041
a(S'l\xc3\xb6sungen'
p1042
(dp1043
S'ADJ'
p1044
F0.002317
sS'NOUN'
p1045
F0.995517
s(lp1046
(g270
I33
tp1047
atp1048
a(S'in'
p1049
(dp1050
S'ADP'
p1051
F1.0
s(lp1052
(g301
I36
tp1053
atp1054
a(S'den'
p1055
(dp1056
S'PRON'
p1057
F0.000112
sS'DET'
p1058
F0.999888
s(lp1059
(g286
I34
tp1060
atp1061
a(S'einzelnen'
p1062
(dp1063
S'ADJ'
p1064
F1.0
s(lp1065
(g308
I37
tp1066
atp1067
a(S'mitgliedstaaten'
p1068
(dp1069
S'ADJ'
p1070
F0.004026
sS'NOUN'
p1071
F0.994259
s(lp1072
(g323
I38
tp1073
atp1074
a(S'thematisieren'
p1075
(dp1076
S'VERB'
p1077
F1.0
s(lp1078
(g212
I25
tp1079
atp1080
a(g189
(dp1081
g189
F1.0
s(lp1082
(g189
I40
tp1083
atp1084
asS'it'
p1085
(lp1086
(S'nelle'
p1087
(dp1088
S'ADP'
p1089
F1.0
s(lp1090
(g8
I0
tp1091
atp1092
a(S'discussioni'
p1093
(dp1094
S'NOUN'
p1095
F1.0
s(lp1096
(g38
I4
tp1097
atp1098
a(S'sullo'
p1099
(dp1100
S'ADP'
p1101
F1.0
s(lp1102
(g45
I5
tp1103
atp1104
a(S'sfruttamento'
p1105
(dp1106
S'NOUN'
p1107
F1.0
s(lp1108
(g61
I8
tp1109
atp1110
a(S'efficace'
p1111
(dp1112
S'ADJ'
p1113
F1.0
s(lp1114
(g69
I7
tp1115
atp1116
a(S'di'
p1117
(dp1118
S'CONJ'
p1119
F3.2e-05
sS'ADP'
p1120
F0.999968
s(lp1121
(g76
I9
tp1122
atp1123
a(S'tutti'
p1124
(dp1125
S'PRON'
p1126
F0.710432
sS'ADJ'
p1127
F0.289568
s(lp1128
(g84
I10
tp1129
atp1130
a(S'i'
p1131
(dp1132
S'DET'
p1133
F1.0
s(lp1134
tp1135
a(S'fondi'
p1136
(dp1137
S'VERB'
p1138
F0.0017510000000000002
sS'NOUN'
p1139
F0.998249
s(lp1140
(g99
I11
tp1141
atp1142
a(S'stanziati'
p1143
(dp1144
S'VERB'
p1145
F1.0
s(lp1146
(g108
I12
tp1147
atp1148
a(S"dall'"
p1149
(dp1150
S'ADJ'
p1151
F0.00253
sS'NOUN'
p1152
F0.99747
s(lp1153
(g116
I13
tp1154
atp1155
a(S'unione'
p1156
(dp1157
S'NOUN'
p1158
F1.0
s(lp1159
(g132
I16
tp1160
atp1161
a(S'europea'
p1162
(dp1163
S'NOUN'
p1164
F0.004341
sS'ADJ'
p1165
F0.995659
s(lp1166
(g140
I15
tp1167
atp1168
a(S'per'
p1169
(dp1170
S'CONJ'
p1171
F0.004129
sS'ADP'
p1172
F0.995871
s(lp1173
(g148
I17
tp1174
atp1175
a(S'ricerca'
p1176
(dp1177
S'VERB'
p1178
F0.000656
sS'NOUN'
p1179
F0.999344
s(lp1180
(g163
I18
tp1181
atp1182
a(S'e'
p1183
(dp1184
S'CONJ'
p1185
F1.0
s(lp1186
(g170
I19
tp1187
atp1188
a(S'innovazione'
p1189
(dp1190
S'NOUN'
p1191
F1.0
s(lp1192
(g184
I20
tp1193
atp1194
a(g187
(dp1195
g189
F1.0
s(lp1196
(g187
I21
tp1197
atp1198
a(S'bisogna'
p1199
(dp1200
S'VERB'
p1201
F0.998823
sS'NOUN'
p1202
F0.001177
s(lp1203
(g197
I22
tp1204
atp1205
a(S'parlare'
p1206
(dp1207
S'VERB'
p1208
F1.0
s(lp1209
(g212
I25
tp1210
atp1211
a(S"dell'"
p1212
(dp1213
S'ADJ'
p1214
F0.005631
sS'VERB'
p1215
F0.01458
sS'NOUN'
p1216
F0.979789
s(lp1217
(g234
I28
tp1218
atp1219
a(S'adeguata'
p1220
(dp1221
S'VERB'
p1222
F0.764063
sS'ADJ'
p1223
F0.235937
s(lp1224
(g256
I29
tp1225
atp1226
a(S'promozione'
p1227
(dp1228
S'NOUN'
p1229
F1.0
s(lp1230
(g248
I30
tp1231
atp1232
a(S'di'
p1233
(dp1234
S'CONJ'
p1235
F4e-06
sS'ADP'
p1236
F0.999996
s(lp1237
(g263
I31
tp1238
atp1239
a(S'soluzioni'
p1240
(dp1241
S'NOUN'
p1242
F1.0
s(lp1243
(g270
I33
tp1244
atp1245
a(S'innovative'
p1246
(dp1247
S'NOUN'
p1248
F0.000553
sS'ADJ'
p1249
F0.999447
s(lp1250
(g279
I32
tp1251
atp1252
a(S"all'"
p1253
(dp1254
S'ADJ'
p1255
F0.000797
sS'VERB'
p1256
F0.000113
sS'NOUN'
p1257
F0.99909
s(lp1258
(g16
I1
tp1259
atp1260
a(S'interno'
p1261
(dp1262
S'ADJ'
p1263
F0.382929
sS'VERB'
p1264
F0.001276
sS'NOUN'
p1265
F0.615794
s(lp1266
(g23
I2
tp1267
atp1268
a(S'dei'
p1269
(dp1270
S'NOUN'
p1271
F0.000288
sS'DEF'
p1272
F0.002672
sS'ADP'
p1273
F0.99704
s(lp1274
(g31
I3
tp1275
atp1276
a(S'singoli'
p1277
(dp1278
S'NOUN'
p1279
F0.384914
sS'ADJ'
p1280
F0.615086
s(lp1281
(g308
I37
tp1282
atp1283
a(S'stati'
p1284
(dp1285
S'VERB'
p1286
F0.887275
sS'NOUN'
p1287
F0.112725
s(lp1288
(g315
I39
tp1289
atp1290
a(S'membri'
p1291
(dp1292
S'NOUN'
p1293
F1.0
s(lp1294
(g323
I38
tp1295
atp1296
a(g189
(dp1297
g189
F1.0
s(lp1298
(g189
I40
tp1299
atp1300
asS'sk'
p1301
(lp1302
(S'v'
p1303
(dp1304
g953
F0.000593
sS'ADP'
p1305
F0.999407
s(lp1306
(g8
I0
tp1307
atp1308
a(S's\xc3\xbavislosti'
p1309
(dp1310
S'NOUN'
p1311
F1.0
s(lp1312
(g23
I2
tp1313
atp1314
a(S's'
p1315
(dp1316
g953
F0.002597
sS'CONJ'
p1317
F8.5e-05
sS'NOUN'
p1318
F2.3e-05
sS'ADP'
p1319
F0.99724
sS'PRT'
p1320
F5.6e-05
s(lp1321
(g31
I3
tp1322
atp1323
a(S'diskusiami'
p1324
(dp1325
S'NOUN'
p1326
F1.0
s(lp1327
(g38
I4
tp1328
atp1329
a(S'o'
p1330
(dp1331
g953
F8.4e-05
sS'CONJ'
p1332
F7.7e-05
sS'NOUN'
p1333
F1e-05
sS'ADP'
p1334
F0.999829
s(lp1335
(g45
I5
tp1336
atp1337
a(S'\xc3\xba\xc4\x8dinnom'
p1338
(dp1339
S'ADJ'
p1340
F1.0
s(lp1341
(g69
I7
tp1342
atp1343
a(S'vyu\xc5\xbe\xc3\xadvan\xc3\xad'
p1344
(dp1345
S'VERB'
p1346
F4.9e-05
sS'NOUN'
p1347
F0.9999509999999999
s(lp1348
(g61
I8
tp1349
atp1350
a(S'v\xc5\xa1etk\xc3\xbdch'
p1351
(dp1352
S'PRON'
p1353
F1.0
s(lp1354
(g84
I10
tp1355
atp1356
a(S'finan\xc4\x8dn\xc3\xbdch'
p1357
(dp1358
S'ADJ'
p1359
F1.0
s(lp1360
tp1361
a(S'prostriedkov'
p1362
(dp1363
S'NOUN'
p1364
F1.0
s(lp1365
(g99
I11
tp1366
atp1367
a(S'vy\xc4\x8dlenen\xc3\xbdch'
p1368
(dp1369
S'VERB'
p1370
F1.0
s(lp1371
(g108
I12
tp1372
atp1373
a(S'eur\xc3\xb3pskou'
p1374
(dp1375
S'ADJ'
p1376
F1.0
s(lp1377
(g140
I15
tp1378
atp1379
a(S'\xc3\xbaniou'
p1380
(dp1381
S'NOUN'
p1382
F1.0
s(lp1383
(g132
I16
tp1384
atp1385
a(S'na'
p1386
(dp1387
g953
F0.000156
sS'CONJ'
p1388
F1.5e-05
sS'ADP'
p1389
F0.999826
sS'PRT'
p1390
F3e-06
s(lp1391
(g148
I17
tp1392
atp1393
a(S'v\xc3\xbdskum'
p1394
(dp1395
S'NOUN'
p1396
F1.0
s(lp1397
(g163
I18
tp1398
atp1399
a(S'a'
p1400
(dp1401
g953
F0.002137
sS'CONJ'
p1402
F0.997021
sS'NOUN'
p1403
F0.000181
sS'ADP'
p1404
F0.000609
sS'PRT'
p1405
F5.1e-05
s(lp1406
(g170
I19
tp1407
atp1408
a(S'inov\xc3\xa1cie'
p1409
(dp1410
S'NOUN'
p1411
F1.0
s(lp1412
(g184
I20
tp1413
atp1414
a(S'mus\xc3\xadme'
p1415
(dp1416
S'VERB'
p1417
F1.0
s(lp1418
(g197
I22
tp1419
atp1420
a(S'upozorni\xc5\xa5'
p1421
(dp1422
S'VERB'
p1423
F1.0
s(lp1424
(g212
I25
tp1425
atp1426
a(S'na'
p1427
(dp1428
g953
F6.3e-05
sS'CONJ'
p1429
F6e-06
sS'ADP'
p1430
F0.999928
sS'PRT'
p1431
F3e-06
s(lp1432
(g220
I26
tp1433
atp1434
a(S'probl\xc3\xa9m'
p1435
(dp1436
S'NOUN'
p1437
F1.0
s(lp1438
(g227
I27
tp1439
atp1440
a(S'primeranej'
p1441
(dp1442
S'VERB'
p1443
F0.812704
sS'ADJ'
p1444
F0.187296
s(lp1445
(g256
I29
tp1446
atp1447
a(S'podpory'
p1448
(dp1449
S'NOUN'
p1450
F1.0
s(lp1451
(g248
I30
tp1452
atp1453
a(S'inova\xc4\x8dn\xc3\xbdch'
p1454
(dp1455
S'ADJ'
p1456
F1.0
s(lp1457
(g279
I32
tp1458
atp1459
a(S'rie\xc5\xa1en\xc3\xad'
p1460
(dp1461
S'VERB'
p1462
F0.000845
sS'NOUN'
p1463
F0.999155
s(lp1464
(g270
I33
tp1465
atp1466
a(g187
(dp1467
g189
F1.0
s(lp1468
tp1469
a(S'ktor\xc3\xa9'
p1470
(dp1471
S'PRON'
p1472
F1.0
s(lp1473
(g286
I34
tp1474
atp1475
a(S'vznikaj\xc3\xba'
p1476
(dp1477
S'VERB'
p1478
F1.0
s(lp1479
(g293
I35
tp1480
atp1481
a(g1303
(dp1482
g953
F0.00016
sS'ADP'
p1483
F0.999841
s(lp1484
(g301
I36
tp1485
atp1486
a(S'jednotliv\xc3\xbdch'
p1487
(dp1488
S'ADJ'
p1489
F1.0
s(lp1490
(g308
I37
tp1491
atp1492
a(S'\xc4\x8dlensk\xc3\xbdch'
p1493
(dp1494
S'ADJ'
p1495
F1.0
s(lp1496
(g323
I38
tp1497
atp1498
a(S'\xc5\xa1t\xc3\xa1toch'
p1499
(dp1500
S'NOUN'
p1501
F1.0
s(lp1502
(g315
I39
tp1503
atp1504
a(g189
(dp1505
g189
F1.0
s(lp1506
(g189
I40
tp1507
atp1508
asS'pl'
p1509
(lp1510
(S'na'
p1511
(dp1512
g953
F1e-06
sS'VERB'
p1513
F0.0
sS'NOUN'
p1514
F0.0
sS'ADP'
p1515
F0.999997
sS'PRT'
p1516
F1e-06
s(lp1517
(g8
I0
tp1518
atp1519
a(S'pi\xc5\x9bmie'
p1520
(dp1521
S'NOUN'
p1522
F1.0
s(lp1523
(g16
I1
tp1524
atp1525
a(g189
(dp1526
g189
F1.0
s(lp1527
tp1528
a(g575
(dp1529
g953
F0.000201
sS'NUM'
p1530
F0.0
sS'NOUN'
p1531
F0.000299
sg189
F0.9995
s(lp1532
tp1533
a(S'w'
p1534
(dp1535
S'ADJ'
p1536
F0.0
sg953
F1e-06
sS'NOUN'
p1537
F0.0
sS'ADP'
p1538
F0.999999
s(lp1539
(g16
I1
tp1540
atp1541
a(S'kontek\xc5\x9bcie'
p1542
(dp1543
S'NOUN'
p1544
F1.0
s(lp1545
(g23
I2
tp1546
atp1547
a(S'dyskusji'
p1548
(dp1549
S'NOUN'
p1550
F1.0
s(lp1551
(g38
I4
tp1552
atp1553
a(S'nad'
p1554
(dp1555
S'ADP'
p1556
F1.0
s(lp1557
(g45
I5
tp1558
atp1559
a(S'efektywnym'
p1560
(dp1561
S'ADJ'
p1562
F1.0
s(lp1563
(g69
I7
tp1564
atp1565
a(S'wykorzystaniem'
p1566
(dp1567
S'VERB'
p1568
F1.0
s(lp1569
(g61
I8
tp1570
atp1571
a(S'wszystkich'
p1572
(dp1573
S'NOUN'
p1574
F0.011533
sS'ADJ'
p1575
F0.988465
s(lp1576
(g84
I10
tp1577
atp1578
a(S'przeznaczanych'
p1579
(dp1580
S'VERB'
p1581
F1.0
s(lp1582
(g108
I12
tp1583
atp1584
a(S'przez'
p1585
(dp1586
S'ADP'
p1587
F1.0
s(lp1588
(g116
I13
tp1589
atp1590
a(S'uni\xc4\x99'
p1591
(dp1592
S'ADJ'
p1593
F0.0
sS'VERB'
p1594
F2.3e-05
sS'NOUN'
p1595
F0.999977
s(lp1596
(g132
I16
tp1597
atp1598
a(S'europejsk\xc4\x85'
p1599
(dp1600
S'ADJ'
p1601
F1.0
s(lp1602
(g140
I15
tp1603
atp1604
a(S'\xc5\x9brodk\xc3\xb3w'
p1605
(dp1606
S'NOUN'
p1607
F1.0
s(lp1608
(g99
I11
tp1609
atp1610
a(S'na'
p1611
(dp1612
g953
F3e-06
sS'VERB'
p1613
F1.7e-05
sS'NOUN'
p1614
F1e-06
sS'ADP'
p1615
F0.999976
sS'PRT'
p1616
F3e-06
s(lp1617
(g148
I17
tp1618
atp1619
a(S'badania'
p1620
(dp1621
S'VERB'
p1622
F0.000122
sS'NOUN'
p1623
F0.9998779999999999
s(lp1624
(g163
I18
tp1625
atp1626
a(g1131
(dp1627
S'PRT'
p1628
F0.000971
sS'CONJ'
p1629
F0.999017
sS'NOUN'
p1630
F4.9999999999999996e-06
sg953
F2e-06
sS'PRON'
p1631
F4e-06
s(lp1632
(g170
I19
tp1633
atp1634
a(S'innowacje'
p1635
(dp1636
S'ADV'
p1637
F0.102425
sS'ADJ'
p1638
F0.07046400000000001
sS'VERB'
p1639
F0.011986
sS'NOUN'
p1640
F0.8120470000000002
sg953
F0.003079
s(lp1641
(g184
I20
tp1642
atp1643
a(S'nale\xc5\xbcy'
p1644
(dp1645
S'VERB'
p1646
F0.97494
sS'ADJ'
p1647
F0.02506
s(lp1648
(g470
I24
tp1649
atp1650
a(S'poruszy\xc4\x87'
p1651
(dp1652
S'VERB'
p1653
F1.0
s(lp1654
(g212
I25
tp1655
atp1656
a(S'problem'
p1657
(dp1658
g953
F1.2e-05
sS'NOUN'
p1659
F0.999988
s(lp1660
(g227
I27
tp1661
atp1662
a(S'odpowiedniej'
p1663
(dp1664
S'ADJ'
p1665
F1.0
s(lp1666
(g256
I29
tp1667
atp1668
a(S'promocji'
p1669
(dp1670
S'NOUN'
p1671
F1.0
s(lp1672
(g248
I30
tp1673
atp1674
a(S'innowacyjnych'
p1675
(dp1676
S'ADV'
p1677
F9e-06
sS'NOUN'
p1678
F0.00327
sS'ADJ'
p1679
F0.9967220000000001
s(lp1680
(g279
I32
tp1681
atp1682
a(S'rozwi\xc4\x85za\xc5\x84'
p1683
(dp1684
S'NOUN'
p1685
F1.0
s(lp1686
(g270
I33
tp1687
atp1688
a(S'powstaj\xc4\x85cych'
p1689
(dp1690
S'VERB'
p1691
F1.0
s(lp1692
(g293
I35
tp1693
atp1694
a(g1534
(dp1695
S'ADJ'
p1696
F0.0
sg953
F0.0
sS'NOUN'
p1697
F0.0
sS'ADP'
p1698
F0.999999
s(lp1699
(g301
I36
tp1700
atp1701
a(S'poszczeg\xc3\xb3lnych'
p1702
(dp1703
S'ADJ'
p1704
F0.999998
s(lp1705
(g308
I37
tp1706
atp1707
a(S'krajach'
p1708
(dp1709
S'NOUN'
p1710
F1.0
s(lp1711
(g315
I39
tp1712
atp1713
a(S'cz\xc5\x82onkowskich'
p1714
(dp1715
S'ADJ'
p1716
F0.9999999999999999
s(lp1717
(g323
I38
tp1718
atp1719
a(g189
(dp1720
g189
F1.0
s(lp1721
(g189
I40
tp1722
atp1723
asS'sl'
p1724
(lp1725
(g1303
(dp1726
S'ADP'
p1727
F1.0
s(lp1728
(g8
I0
tp1729
atp1730
a(S'okviru'
p1731
(dp1732
S'NOUN'
p1733
F1.0
s(lp1734
(g23
I2
tp1735
atp1736
a(S'razprav'
p1737
(dp1738
S'NOUN'
p1739
F1.0
s(lp1740
(g38
I4
tp1741
atp1742
a(g1330
(dp1743
S'NOUN'
p1744
F0.008517
sS'ADP'
p1745
F0.991483
s(lp1746
(g45
I5
tp1747
atp1748
a(S'u\xc4\x8dinkoviti'
p1749
(dp1750
S'ADJ'
p1751
F1.0
s(lp1752
(g69
I7
tp1753
atp1754
a(S'uporabi'
p1755
(dp1756
S'VERB'
p1757
F0.006191
sS'NOUN'
p1758
F0.9938089999999999
s(lp1759
(g61
I8
tp1760
atp1761
a(S'vseh'
p1762
(dp1763
S'PRON'
p1764
F0.999999
s(lp1765
(g84
I10
tp1766
atp1767
a(S'sredstev'
p1768
(dp1769
S'NOUN'
p1770
F1.0
s(lp1771
(g99
I11
tp1772
atp1773
a(g187
(dp1774
g189
F1.0
s(lp1775
tp1776
a(S'ki'
p1777
(dp1778
S'CONJ'
p1779
F1.0
s(lp1780
tp1781
a(S'jih'
p1782
(dp1783
S'PRON'
p1784
F0.9999990000000001
s(lp1785
(g116
I13
tp1786
atp1787
a(S'evropska'
p1788
(dp1789
S'ADJ'
p1790
F1.0
s(lp1791
(g140
I15
tp1792
atp1793
a(S'unija'
p1794
(dp1795
S'NOUN'
p1796
F1.0
s(lp1797
(g132
I16
tp1798
atp1799
a(S'namenja'
p1800
(dp1801
S'VERB'
p1802
F1.0
s(lp1803
(g108
I12
tp1804
atp1805
a(S'za'
p1806
(dp1807
S'ADV'
p1808
F0.000187
sg953
F8e-06
sS'ADP'
p1809
F0.999806
s(lp1810
(g148
I17
tp1811
atp1812
a(S'raziskave'
p1813
(dp1814
S'NOUN'
p1815
F1.0
s(lp1816
(g163
I18
tp1817
atp1818
a(S'in'
p1819
(dp1820
S'ADV'
p1821
F7.2e-05
sg953
F2.9e-05
sS'CONJ'
p1822
F0.99987
sS'NOUN'
p1823
F2.9e-05
s(lp1824
(g170
I19
tp1825
atp1826
a(S'inovacije'
p1827
(dp1828
S'NOUN'
p1829
F1.0
s(lp1830
(g184
I20
tp1831
atp1832
a(g187
(dp1833
g189
F1.0
s(lp1834
(g187
I21
tp1835
atp1836
a(S'moramo'
p1837
(dp1838
S'VERB'
p1839
F1.0
s(lp1840
(g197
I22
tp1841
atp1842
a(S'poudariti'
p1843
(dp1844
S'VERB'
p1845
F1.0
s(lp1846
(g212
I25
tp1847
atp1848
a(S'problem'
p1849
(dp1850
S'NOUN'
p1851
F1.0
s(lp1852
(g227
I27
tp1853
atp1854
a(S'ustreznega'
p1855
(dp1856
S'ADJ'
p1857
F1.0
s(lp1858
(g256
I29
tp1859
atp1860
a(S'spodbujanja'
p1861
(dp1862
S'NOUN'
p1863
F1.0
s(lp1864
(g248
I30
tp1865
atp1866
a(S'inovativnih'
p1867
(dp1868
S'ADJ'
p1869
F1.0
s(lp1870
(g279
I32
tp1871
atp1872
a(S're\xc5\xa1itev'
p1873
(dp1874
S'NOUN'
p1875
F1.0
s(lp1876
(g270
I33
tp1877
atp1878
a(S'iz'
p1879
(dp1880
g953
F6e-06
sS'ADP'
p1881
F0.999994
s(lp1882
(g301
I36
tp1883
atp1884
a(S'posameznih'
p1885
(dp1886
S'ADJ'
p1887
F1.000001
s(lp1888
(g308
I37
tp1889
atp1890
a(S'dr\xc5\xbeav'
p1891
(dp1892
S'NOUN'
p1893
F1.0
s(lp1894
(g323
I38
tp1895
atp1896
a(S'\xc4\x8dlanic'
p1897
(dp1898
S'NOUN'
p1899
F1.0
s(lp1900
(g315
I39
tp1901
atp1902
a(g189
(dp1903
g189
F1.0
s(lp1904
(g189
I40
tp1905
atp1906
asS'es'
p1907
(lp1908
(S'en'
p1909
(dp1910
g953
F4e-06
sS'CONJ'
p1911
F2e-06
sS'ADP'
p1912
F0.999994
s(lp1913
(g8
I0
tp1914
atp1915
a(S'el'
p1916
(dp1917
S'PRON'
p1918
F5e-06
sS'DET'
p1919
F0.999995
s(lp1920
(g16
I1
tp1921
atp1922
a(S'contexto'
p1923
(dp1924
S'NOUN'
p1925
F1.0
s(lp1926
(g23
I2
tp1927
atp1928
a(S'de'
p1929
(dp1930
g953
F0.0
sS'CONJ'
p1931
F0.000136
sS'ADP'
p1932
F0.999864
s(lp1933
(g31
I3
tp1934
atp1935
a(S'los'
p1936
(dp1937
S'PRON'
p1938
F0.000121
sS'DET'
p1939
F0.999879
s(lp1940
tp1941
a(S'debates'
p1942
(dp1943
S'VERB'
p1944
F1.0
s(lp1945
(g38
I4
tp1946
atp1947
a(S'sobre'
p1948
(dp1949
S'NOUN'
p1950
F0.0
sS'ADP'
p1951
F1.0
s(lp1952
(g45
I5
tp1953
atp1954
a(S'el'
p1955
(dp1956
S'PRON'
p1957
F5e-06
sS'DET'
p1958
F0.999995
s(lp1959
(g54
I6
tp1960
atp1961
a(S'uso'
p1962
(dp1963
S'NOUN'
p1964
F1.0
s(lp1965
(g61
I8
tp1966
atp1967
a(S'efectivo'
p1968
(dp1969
S'NOUN'
p1970
F0.000326
sS'ADJ'
p1971
F0.999674
s(lp1972
(g69
I7
tp1973
atp1974
a(S'de'
p1975
(dp1976
g953
F0.0
sS'CONJ'
p1977
F0.000561
sS'ADP'
p1978
F0.999439
s(lp1979
(g76
I9
tp1980
atp1981
a(S'todos'
p1982
(dp1983
S'ADJ'
p1984
F1.0
s(lp1985
(g84
I10
tp1986
atp1987
a(S'los'
p1988
(dp1989
S'PRON'
p1990
F0.0
sS'DET'
p1991
F1.0
s(lp1992
tp1993
a(S'fondos'
p1994
(dp1995
S'NOUN'
p1996
F1.0
s(lp1997
(g99
I11
tp1998
atp1999
a(S'destinados'
p2000
(dp2001
S'VERB'
p2002
F1.0
s(lp2003
(g108
I12
tp2004
atp2005
a(S'por'
p2006
(dp2007
S'ADP'
p2008
F1.0
s(lp2009
(g116
I13
tp2010
atp2011
a(S'la'
p2012
(dp2013
S'NOUN'
p2014
F0.0
sS'PRON'
p2015
F0.0
sS'DET'
p2016
F0.999999
sg953
F0.0
s(lp2017
(g125
I14
tp2018
atp2019
a(S'uni\xc3\xb3n'
p2020
(dp2021
S'NOUN'
p2022
F1.0
s(lp2023
(g132
I16
tp2024
atp2025
a(S'europea'
p2026
(dp2027
S'ADJ'
p2028
F1.0
s(lp2029
(g140
I15
tp2030
atp2031
a(g1400
(dp2032
g953
F0.000622
sS'CONJ'
p2033
F9e-06
sS'ADP'
p2034
F0.999368
s(lp2035
(g148
I17
tp2036
atp2037
a(S'la'
p2038
(dp2039
g953
F0.0
sS'PRON'
p2040
F0.0
sS'DET'
p2041
F0.999999
sS'NOUN'
p2042
F0.0
s(lp2043
tp2044
a(S'investigaci\xc3\xb3n'
p2045
(dp2046
S'NOUN'
p2047
F1.0
s(lp2048
(g163
I18
tp2049
atp2050
a(S'y'
p2051
(dp2052
g953
F0.000396
sS'CONJ'
p2053
F0.999604
s(lp2054
(g170
I19
tp2055
atp2056
a(S'la'
p2057
(dp2058
S'PRON'
p2059
F0.000591
sS'DET'
p2060
F0.999408
sS'NOUN'
p2061
F0.0
sg953
F0.0
s(lp2062
tp2063
a(S'innovaci\xc3\xb3n'
p2064
(dp2065
S'NOUN'
p2066
F1.0
s(lp2067
(g184
I20
tp2068
atp2069
a(g187
(dp2070
g189
F1.0
s(lp2071
(g187
I21
tp2072
atp2073
a(S'debemos'
p2074
(dp2075
S'VERB'
p2076
F1.0
s(lp2077
(g197
I22
tp2078
atp2079
a(S'plantear'
p2080
(dp2081
S'VERB'
p2082
F1.0
s(lp2083
(g212
I25
tp2084
atp2085
a(S'el'
p2086
(dp2087
S'PRON'
p2088
F0.0
sS'DET'
p2089
F1.0
s(lp2090
(g220
I26
tp2091
atp2092
a(S'problema'
p2093
(dp2094
S'NOUN'
p2095
F1.0
s(lp2096
(g227
I27
tp2097
atp2098
a(S'de'
p2099
(dp2100
g953
F0.0
sS'CONJ'
p2101
F1.7e-05
sS'ADP'
p2102
F0.999983
s(lp2103
(g234
I28
tp2104
atp2105
a(S'la'
p2106
(dp2107
g953
F0.0
sS'PRON'
p2108
F0.0
sS'DET'
p2109
F0.999999
sS'NOUN'
p2110
F0.0
s(lp2111
tp2112
a(S'promoci\xc3\xb3n'
p2113
(dp2114
S'NOUN'
p2115
F1.0
s(lp2116
(g248
I30
tp2117
atp2118
a(S'apropiada'
p2119
(dp2120
S'ADJ'
p2121
F1.0
s(lp2122
(g256
I29
tp2123
atp2124
a(S'de'
p2125
(dp2126
g953
F0.0
sS'CONJ'
p2127
F5.7e-05
sS'ADP'
p2128
F0.999943
s(lp2129
(g263
I31
tp2130
atp2131
a(S'las'
p2132
(dp2133
S'PRON'
p2134
F0.0
sS'DET'
p2135
F1.0
s(lp2136
tp2137
a(S'soluciones'
p2138
(dp2139
S'NOUN'
p2140
F1.0
s(lp2141
(g270
I33
tp2142
atp2143
a(S'innovadoras'
p2144
(dp2145
S'ADJ'
p2146
F1.0
s(lp2147
(g279
I32
tp2148
atp2149
a(S'que'
p2150
(dp2151
g953
F1e-06
sS'CONJ'
p2152
F0.999999
s(lp2153
(g286
I34
tp2154
atp2155
a(S'surgen'
p2156
(dp2157
S'VERB'
p2158
F1.0
s(lp2159
(g293
I35
tp2160
atp2161
a(S'en'
p2162
(dp2163
g953
F8e-06
sS'CONJ'
p2164
F1.4e-05
sS'ADP'
p2165
F0.999977
s(lp2166
(g301
I36
tp2167
atp2168
a(S'estados'
p2169
(dp2170
S'NOUN'
p2171
F1.0
s(lp2172
(g315
I39
tp2173
atp2174
a(S'miembros'
p2175
(dp2176
S'NOUN'
p2177
F1.0
s(lp2178
(g323
I38
tp2179
atp2180
a(S'individuales'
p2181
(dp2182
S'ADJ'
p2183
F1.0
s(lp2184
(g308
I37
tp2185
atp2186
a(g189
(dp2187
g189
F1.0
s(lp2188
(g189
I40
tp2189
atp2190
as.