(dp0
S'fr'
p1
(lp2
(S'il'
p3
(dp4
S'PRON'
p5
F1.0
s(lp6
(S'we'
p7
I3
tp8
atp9
a(S'faut'
p10
(dp11
S'VERB'
p12
F1.0
s(lp13
(S'need'
p14
I4
tp15
atp16
a(S'pour'
p17
(dp18
S'CONJ'
p19
F0.105951
sS'ADP'
p20
F0.894049
s(lp21
(S'to'
p22
I0
tp23
atp24
a(S'cela'
p25
(dp26
S'PRON'
p27
F0.998671
sS'VERB'
p28
F0.001329
s(lp29
(S'so'
p30
I2
tp31
atp32
a(S'un'
p33
(dp34
S'DET'
p35
F0.368152
sS'NUM'
p36
F0.06858
sS'NOUN'
p37
F0.563268
s(lp38
tp39
a(S'grand'
p40
(dp41
S'ADJ'
p42
F1.0
s(lp43
(S'great'
p44
I5
tp45
atp46
a(S'leadership'
p47
(dp48
S'NOUN'
p49
F1.0
s(lp50
(S'leadership'
p51
I6
tp52
atp53
a(S'et'
p54
(dp55
S'CONJ'
p56
F1.0
s(lp57
(S'and'
p58
I7
tp59
atp60
a(S'nous'
p61
(dp62
S'PRON'
p63
F1.0
s(lp64
(S'we'
p65
I13
tp66
atp67
a(S'sommes'
p68
(dp69
S'VERB'
p70
F0.999954
sS'NOUN'
p71
F4.6e-05
s(lp72
(S'are'
p73
I14
tp74
atp75
a(S'un'
p76
(dp77
S'NOUN'
p78
F0.008161
sS'NUM'
p79
F0.000118
sS'DET'
p80
F0.991721
s(lp81
tp82
a(S'peu'
p83
(dp84
S'ADV'
p85
F1.0
s(lp86
(S'somewhat'
p87
I15
tp88
atp89
a(S','
p90
(dp91
S'.'
p92
F1.0
s(lp93
tp94
a(S'de'
p95
(dp96
S'ADP'
p97
F1.0
s(lp98
(S'from'
p99
I8
tp100
atp101
a(S'ce'
p102
(dp103
S'PRON'
p104
F1.0
s(lp105
(S'that'
p106
I9
tp107
atp108
a(S'point'
p109
(dp110
S'ADV'
p111
F0.16984
sS'VERB'
p112
F0.046223
sS'NOUN'
p113
F0.783938
s(lp114
(S'point'
p115
I10
tp116
atp117
a(S'de'
p118
(dp119
S'ADP'
p120
F1.0
s(lp121
(S'of'
p122
I11
tp123
atp124
a(S'vue'
p125
(dp126
S'VERB'
p127
F9e-06
sS'NOUN'
p128
F0.999991
s(lp129
(S'view'
p130
I12
tp131
atp132
a(g90
(dp133
g92
F1.0
s(lp134
tp135
a(S'des'
p136
(dp137
S'DET'
p138
F0.00031
sS'ADP'
p139
F0.99969
s(lp140
(S'on'
p141
I16
tp142
atp143
a(S'orphelins'
p144
(dp145
S'ADJ'
p146
F0.130697
sS'NOUN'
p147
F0.869303
s(lp148
(S'own'
p149
I18
tp150
atp151
a(g92
(dp152
g92
F1.0
s(lp153
(g92
I19
tp154
atp155
asS'en'
p156
(lp157
(g22
(dp158
S'ADV'
p159
F8e-06
sS'PRT'
p160
F0.999992
sS'ADP'
p161
F0.0
s(lp162
(g22
I0
tp163
atp164
a(S'do'
p165
(dp166
S'VERB'
p167
F1.0
sS'NOUN'
p168
F0.0
s(lp169
(g165
I1
tp170
atp171
a(g30
(dp172
S'ADV'
p173
F0.817634
sS'ADJ'
p174
F6e-06
sS'CONJ'
p175
F0.000435
sS'NOUN'
p176
F9e-06
sS'ADP'
p177
F0.181916
s(lp178
(g30
I2
tp179
atp180
a(g7
(dp181
S'PRON'
p182
F1.0
s(lp183
(g7
I3
tp184
atp185
a(g14
(dp186
S'VERB'
p187
F0.9999979999999999
sS'NOUN'
p188
F2e-06
s(lp189
(g14
I4
tp190
atp191
a(g44
(dp192
S'ADV'
p193
F0.002958
sS'NOUN'
p194
F0.000221
sS'ADJ'
p195
F0.996821
s(lp196
(g44
I5
tp197
atp198
a(g51
(dp199
S'NOUN'
p200
F1.0
s(lp201
(g51
I6
tp202
atp203
a(g58
(dp204
S'CONJ'
p205
F0.999998
sS'NOUN'
p206
F2e-06
s(lp207
(g58
I7
tp208
atp209
a(g99
(dp210
S'ADP'
p211
F1.0
s(lp212
(g99
I8
tp213
atp214
a(g106
(dp215
S'ADV'
p216
F9.6e-05
sS'DET'
p217
F0.986624
sS'ADP'
p218
F0.01328
s(lp219
(g106
I9
tp220
atp221
a(g115
(dp222
S'VERB'
p223
F0.005845
sS'NOUN'
p224
F0.994155
s(lp225
(g115
I10
tp226
atp227
a(g122
(dp228
S'ADP'
p229
F1.0
s(lp230
(g122
I11
tp231
atp232
a(g130
(dp233
S'VERB'
p234
F0.041394
sS'NOUN'
p235
F0.958606
s(lp236
(g130
I12
tp237
atp238
a(g65
(dp239
S'PRON'
p240
F1.0
s(lp241
(g65
I13
tp242
atp243
a(g73
(dp244
S'VERB'
p245
F1.0
sS'NOUN'
p246
F0.0
s(lp247
(g73
I14
tp248
atp249
a(g87
(dp250
S'ADV'
p251
F1.0
s(lp252
(g87
I15
tp253
atp254
a(g141
(dp255
S'ADV'
p256
F0.00223
sS'PRT'
p257
F1.9e-05
sS'ADJ'
p258
F0.0
sS'ADP'
p259
F0.997751
sS'NOUN'
p260
F0.0
s(lp261
(g141
I16
tp262
atp263
a(S'our'
p264
(dp265
S'PRON'
p266
F1.0
s(lp267
(g264
I17
tp268
atp269
a(g149
(dp270
S'VERB'
p271
F0.000137
sS'ADJ'
p272
F0.999863
s(lp273
(g149
I18
tp274
atp275
a(g92
(dp276
g92
F1.0
s(lp277
(g92
I19
tp278
atp279
asS'nl'
p280
(lp281
(S'hier'
p282
(dp283
S'ADV'
p284
F1.0
s(lp285
tp286
a(S'is'
p287
(dp288
S'VERB'
p289
F1.0
s(lp290
(g165
I1
tp291
atp292
a(S'echte'
p293
(dp294
S'NOUN'
p295
F0.000145
sS'ADJ'
p296
F0.999855
s(lp297
(g44
I5
tp298
atp299
a(S'leiding'
p300
(dp301
S'NOUN'
p302
F1.0
s(lp303
(g51
I6
tp304
atp305
a(S'voor'
p306
(dp307
S'ADV'
p308
F0.026683
sS'CONJ'
p309
F3e-06
sS'NOUN'
p310
F0.0
sS'ADP'
p311
F0.973314
s(lp312
(g30
I2
tp313
atp314
a(S'nodig'
p315
(dp316
S'VERB'
p317
F2.5e-05
sS'ADJ'
p318
F0.999975
s(lp319
(g14
I4
tp320
atp321
a(S'en'
p322
(dp323
S'CONJ'
p324
F1.0
s(lp325
(g58
I7
tp326
atp327
a(S'vanuit'
p328
(dp329
S'ADP'
p330
F1.0
s(lp331
(g99
I8
tp332
atp333
a(S'dat'
p334
(dp335
S'PRON'
p336
F0.980584
sS'CONJ'
p337
F0.019416
s(lp338
(g106
I9
tp339
atp340
a(S'oogpunt'
p341
(dp342
S'NOUN'
p343
F1.0
s(lp344
(g115
I10
tp345
atp346
a(S'bezien'
p347
(dp348
S'VERB'
p349
F0.981805
sS'NOUN'
p350
F0.018195
s(lp351
(g130
I12
tp352
atp353
a(S'zijn'
p354
(dp355
S'PRON'
p356
F3.2e-05
sS'VERB'
p357
F0.9999490000000001
sS'NOUN'
p358
F1.9e-05
s(lp359
(g73
I14
tp360
atp361
a(S'we'
p362
(dp363
S'PRON'
p364
F1.0
s(lp365
(g65
I13
tp366
atp367
a(S'een'
p368
(dp369
S'ADJ'
p370
F6e-06
sS'PRON'
p371
F1.4e-05
sS'NUM'
p372
F1e-06
sS'DET'
p373
F0.999979
s(lp374
(g87
I15
tp375
atp376
a(S'beetje'
p377
(dp378
S'NOUN'
p379
F1.0
s(lp380
tp381
a(S'verweesd'
p382
(dp383
S'NOUN'
p384
F0.001966
sS'ADJ'
p385
F0.998034
s(lp386
(g87
I15
tp387
atp388
a(g92
(dp389
g92
F1.0
s(lp390
(g92
I19
tp391
atp392
asS'de'
p393
(lp394
(S'daf\xc3\xbcr'
p395
(dp396
S'ADV'
p397
F1.0
s(lp398
(g30
I2
tp399
atp400
a(S'brauchen'
p401
(dp402
S'VERB'
p403
F1.0
s(lp404
(g14
I4
tp405
atp406
a(S'wir'
p407
(dp408
S'PRON'
p409
F1.0
s(lp410
(g7
I3
tp411
atp412
a(S'ein'
p413
(dp414
S'PRT'
p415
F0.005514
sS'DET'
p416
F0.994191
s(lp417
tp418
a(S'gro\xc3\x9fes'
p419
(dp420
S'ADJ'
p421
F1.0
s(lp422
(g44
I5
tp423
atp424
a(S'ma\xc3\x9f'
p425
(dp426
S'PRT'
p427
F0.114709
sS'VERB'
p428
F0.78983
s(lp429
tp430
a(S'an'
p431
(dp432
S'ADP'
p433
F0.985675
s(lp434
(g122
I11
tp435
atp436
a(S'f\xc3\xbchrungsst\xc3\xa4rke'
p437
(dp438
S'VERB'
p439
F0.018698
sS'NOUN'
p440
F0.978879
s(lp441
(g51
I6
tp442
atp443
a(g90
(dp444
g92
F1.0
s(lp445
tp446
a(S'und'
p447
(dp448
S'CONJ'
p449
F1.0
s(lp450
(g58
I7
tp451
atp452
a(S'was'
p453
(dp454
S'PRON'
p455
F0.994878
s(lp456
(g99
I8
tp457
atp458
a(S'das'
p459
(dp460
S'PRON'
p461
F0.997206
s(lp462
tp463
a(S'anbelangt'
p464
(dp465
S'VERB'
p466
F1.0
s(lp467
(g115
I10
tp468
atp469
a(g90
(dp470
g92
F1.0
s(lp471
(g106
I9
tp472
atp473
a(S'stehen'
p474
(dp475
S'VERB'
p476
F1.0
s(lp477
(g73
I14
tp478
atp479
a(S'wir'
p480
(dp481
S'PRON'
p482
F1.0
s(lp483
(g65
I13
tp484
atp485
a(S'ziemlich'
p486
(dp487
S'ADV'
p488
F0.991857
sS'ADJ'
p489
F0.008143
s(lp490
(g87
I15
tp491
atp492
a(S'allein'
p493
(dp494
S'ADV'
p495
F0.999858
sS'PRT'
p496
F0.000142
s(lp497
(g149
I18
tp498
atp499
a(S'da'
p500
(dp501
S'ADV'
p502
F0.388003
sS'PRT'
p503
F0.610554
s(lp504
(g130
I12
tp505
atp506
a(g92
(dp507
g92
F1.0
s(lp508
(g92
I19
tp509
atp510
asS'it'
p511
(lp512
(S'per'
p513
(dp514
S'CONJ'
p515
F0.00889
sS'ADP'
p516
F0.99111
s(lp517
(g22
I0
tp518
atp519
a(S'farlo'
p520
(dp521
S'VERB'
p522
F1.0
s(lp523
(g165
I1
tp524
atp525
a(g90
(dp526
g92
F1.0
s(lp527
(g30
I2
tp528
atp529
a(S'ci'
p530
(dp531
S'ADV'
p532
F0.001362
sS'PRON'
p533
F0.998539
sS'NOUN'
p534
F9.9e-05
s(lp535
(g7
I3
tp536
atp537
a(S'occorre'
p538
(dp539
S'VERB'
p540
F1.0
s(lp541
(g14
I4
tp542
atp543
a(S'grande'
p544
(dp545
S'NOUN'
p546
F0.000238
sS'ADJ'
p547
F0.999762
s(lp548
(g44
I5
tp549
atp550
a(S'leadership'
p551
(dp552
S'NOUN'
p553
F1.0
s(lp554
(g51
I6
tp555
atp556
a(S'e'
p557
(dp558
S'CONJ'
p559
F1.0
s(lp560
(g58
I7
tp561
atp562
a(g90
(dp563
g92
F1.0
s(lp564
tp565
a(S'sotto'
p566
(dp567
S'ADV'
p568
F0.474633
sS'NOUN'
p569
F0.00014
sS'ADJ'
p570
F0.048405
sS'ADP'
p571
F0.476822
s(lp572
(g99
I8
tp573
atp574
a(S'questo'
p575
(dp576
S'PRON'
p577
F1.0
s(lp578
(g106
I9
tp579
atp580
a(S'punto'
p581
(dp582
S'ADV'
p583
F0.001374
sS'ADJ'
p584
F0.001022
sS'VERB'
p585
F0.007744000000000001
sS'NOUN'
p586
F0.98986
s(lp587
(g115
I10
tp588
atp589
a(S'di'
p590
(dp591
S'CONJ'
p592
F6e-06
sS'ADP'
p593
F0.999994
s(lp594
(g122
I11
tp595
atp596
a(S'vista'
p597
(dp598
S'VERB'
p599
F0.002218
sS'NOUN'
p600
F0.997782
s(lp601
(g130
I12
tp602
atp603
a(g90
(dp604
g92
F1.0
s(lp605
tp606
a(S'siamo'
p607
(dp608
S'VERB'
p609
F1.0
s(lp610
(g65
I13
tp611
atp612
a(S'un'
p613
(dp614
S'PRON'
p615
F0.137463
sS'DEF'
p616
F0.862537
s(lp617
(g87
I15
tp618
atp619
a(S'po'
p620
(dp621
S'NOUN'
p622
F0.292787
sS'VERB'
p623
F0.14463599999999996
sS'ADJ'
p624
F0.562577
s(lp625
(g87
I15
tp626
atp627
a(S"'"
p628
(dp629
g92
F1.0
s(lp630
(g87
I15
tp631
atp632
a(S'come'
p633
(dp634
S'PRON'
p635
F0.012995
sS'CONJ'
p636
F0.899606
sS'NOUN'
p637
F0.001229
sS'ADP'
p638
F0.08617
s(lp639
tp640
a(S'degli'
p641
(dp642
S'DEF'
p643
F0.094093
sS'ADP'
p644
F0.905907
s(lp645
(g141
I16
tp646
atp647
a(S'orfani'
p648
(dp649
S'NOUN'
p650
F0.499411
sS'ADJ'
p651
F0.500589
s(lp652
(g87
I15
tp653
atp654
a(g92
(dp655
g92
F1.0
s(lp656
(g92
I19
tp657
atp658
asS'sk'
p659
(lp660
(S'na'
p661
(dp662
S'X'
p663
F5.099999999999999e-05
sS'CONJ'
p664
F3.3e-05
sS'ADP'
p665
F0.999916
sS'PRT'
p666
F0.0
s(lp667
(g22
I0
tp668
atp669
a(S'to'
p670
(dp671
S'PRON'
p672
F0.999734
sS'CONJ'
p673
F2.1e-05
sg663
F0.000245
s(lp674
(g30
I2
tp675
atp676
a(S'potrebujeme'
p677
(dp678
S'VERB'
p679
F1.0
s(lp680
(g14
I4
tp681
atp682
a(S'schopn\xc3\xbdch'
p683
(dp684
S'ADJ'
p685
F1.0
s(lp686
tp687
a(S'vodcov'
p688
(dp689
S'NOUN'
p690
F1.0
s(lp691
(g51
I6
tp692
atp693
a(S'a'
p694
(dp695
g663
F0.001599
sS'CONJ'
p696
F0.998147
sS'NOUN'
p697
F7.099999999999999e-05
sS'ADP'
p698
F0.0
sS'PRT'
p699
F0.000183
s(lp700
(g58
I7
tp701
atp702
a(S'z'
p703
(dp704
g663
F8.099999999999999e-05
sS'NOUN'
p705
F2.2e-05
sS'ADP'
p706
F0.999897
s(lp707
(g99
I8
tp708
atp709
a(S'tohto'
p710
(dp711
S'PRON'
p712
F0.999974
sg663
F2.6e-05
s(lp713
(g106
I9
tp714
atp715
a(S'h\xc4\xbeadiska'
p716
(dp717
S'NOUN'
p718
F1.0
s(lp719
(g115
I10
tp720
atp721
a(S'je'
p722
(dp723
g663
F5.4999999999999995e-05
sS'VERB'
p724
F0.999918
sS'PRON'
p725
F2.7e-05
s(lp726
(g73
I14
tp727
atp728
a(S'to'
p729
(dp730
S'PRON'
p731
F0.870406
sS'CONJ'
p732
F0.017414
sg663
F0.112181
s(lp733
tp734
a(S'akosi'
p735
(dp736
S'PRON'
p737
F0.983615
sg663
F0.016385
s(lp738
(g87
I15
tp739
atp740
a(S'na'
p741
(dp742
S'PRT'
p743
F0.000165
sS'CONJ'
p744
F3e-05
sS'ADP'
p745
F0.999737
sg663
F6.8e-05
s(lp746
(g141
I16
tp747
atp748
a(S'n\xc3\xa1s'
p749
(dp750
S'PRON'
p751
F0.998056
sg663
F0.001945
s(lp752
(g264
I17
tp753
atp754
a(g92
(dp755
g92
F1.0
s(lp756
(g92
I19
tp757
atp758
asS'pl'
p759
(lp760
(S'aby'
p761
(dp762
S'PRT'
p763
F0.011239
sS'CONJ'
p764
F0.988761
s(lp765
(g22
I0
tp766
atp767
a(S'to'
p768
(dp769
S'NOUN'
p770
F0.018584
sS'ADP'
p771
F0.0
sS'PRT'
p772
F0.013354
sg663
F0.0
sS'CONJ'
p773
F0.000729
sS'ADJ'
p774
F0.967333
s(lp775
tp776
a(S'uczyni\xc4\x87'
p777
(dp778
S'VERB'
p779
F1.0
s(lp780
(g165
I1
tp781
atp782
a(S'potrzebujemy'
p783
(dp784
S'VERB'
p785
F1.0
s(lp786
(g14
I4
tp787
atp788
a(S'silnego'
p789
(dp790
S'ADJ'
p791
F1.0
s(lp792
tp793
a(S'przyw\xc3\xb3dztwa'
p794
(dp795
S'NOUN'
p796
F1.0
s(lp797
(g51
I6
tp798
atp799
a(S'i'
p800
(dp801
S'PRT'
p802
F0.008289
sS'CONJ'
p803
F0.991659
sS'NOUN'
p804
F3.5999999999999994e-05
sg663
F2e-06
sS'PRON'
p805
F1.4e-05
s(lp806
(g58
I7
tp807
atp808
a(S'pod'
p809
(dp810
S'ADV'
p811
F0.000173
sS'ADP'
p812
F0.999827
s(lp813
(g99
I8
tp814
atp815
a(S'tym'
p816
(dp817
S'ADV'
p818
F1.5e-05
sS'NOUN'
p819
F0.003182
sS'CONJ'
p820
F2e-06
sS'ADJ'
p821
F0.996799
sS'PRT'
p822
F0.0
s(lp823
(g106
I9
tp824
atp825
a(S'wzgl\xc4\x99dem'
p826
(dp827
S'NOUN'
p828
F0.998856
sS'ADP'
p829
F0.001144
s(lp830
(g115
I10
tp831
atp832
a(S'nie'
p833
(dp834
S'ADV'
p835
F1.7e-05
sS'PRT'
p836
F0.982283
sS'CONJ'
p837
F0.017657
sS'NOUN'
p838
F1.8e-05
sS'PRON'
p839
F2.5e-05
s(lp840
(g73
I14
tp841
atp842
a(S'potrzebujemy'
p843
(dp844
S'VERB'
p845
F1.0
s(lp846
(g87
I15
tp847
atp848
a(S'pomocy'
p849
(dp850
S'NOUN'
p851
F1.0
s(lp852
(g149
I18
tp853
atp854
a(g92
(dp855
g92
F1.0
s(lp856
(g92
I19
tp857
atp858
asS'sl'
p859
(lp860
(S'za'
p861
(dp862
S'ADV'
p863
F0.000207
sg663
F1.1e-05
sS'ADP'
p864
F0.999782
s(lp865
(g22
I0
tp866
atp867
a(S'to'
p868
(dp869
S'PRON'
p870
F0.999985
sg663
F1.5e-05
s(lp871
(g30
I2
tp872
atp873
a(S'potrebujemo'
p874
(dp875
S'VERB'
p876
F1.0
s(lp877
(g14
I4
tp878
atp879
a(S'dobro'
p880
(dp881
S'ADV'
p882
F0.015753
sS'NOUN'
p883
F0.00066
sS'ADJ'
p884
F0.983568
sg663
F2e-05
s(lp885
(g44
I5
tp886
atp887
a(S'vodstvo'
p888
(dp889
S'NOUN'
p890
F1.0
s(lp891
(g51
I6
tp892
atp893
a(S'in'
p894
(dp895
S'ADV'
p896
F0.000166
sg663
F8e-06
sS'CONJ'
p897
F0.99978
sS'NOUN'
p898
F4.5e-05
s(lp899
(g58
I7
tp900
atp901
a(S's'
p902
(dp903
S'VERB'
p904
F0.000317
sS'NOUN'
p905
F0.010334
sS'ADP'
p906
F0.989349
s(lp907
(g99
I8
tp908
atp909
a(S'tega'
p910
(dp911
S'PRON'
p912
F0.9999999999999999
s(lp913
(g106
I9
tp914
atp915
a(S'vidika'
p916
(dp917
S'NOUN'
p918
F1.0
s(lp919
(g115
I10
tp920
atp921
a(S'smo'
p922
(dp923
g663
F4.5e-05
sS'VERB'
p924
F0.999955
s(lp925
(g65
I13
tp926
atp927
a(S'nekoliko'
p928
(dp929
S'ADV'
p930
F1.0
s(lp931
tp932
a(S'odvisni'
p933
(dp934
S'ADJ'
p935
F1.0
s(lp936
(g87
I15
tp937
atp938
a(S'sami'
p939
(dp940
S'ADJ'
p941
F0.9999999999999999
s(lp942
(g130
I12
tp943
atp944
a(S'od'
p945
(dp946
S'ADP'
p947
F1.0
s(lp948
(g141
I16
tp949
atp950
a(S'sebe'
p951
(dp952
S'PRON'
p953
F1.0
s(lp954
(g149
I18
tp955
atp956
a(g92
(dp957
g92
F1.0
s(lp958
(g92
I19
tp959
atp960
asS'es'
p961
(lp962
(S'para'
p963
(dp964
S'CONJ'
p965
F0.977319
sS'ADP'
p966
F0.022681
s(lp967
(g22
I0
tp968
atp969
a(S'hacerlo'
p970
(dp971
S'VERB'
p972
F1.0
s(lp973
(g165
I1
tp974
atp975
a(S'necesitamos'
p976
(dp977
S'VERB'
p978
F1.0
s(lp979
(g14
I4
tp980
atp981
a(S'liderazgo'
p982
(dp983
S'NOUN'
p984
F1.0
s(lp985
(g51
I6
tp986
atp987
a(g90
(dp988
g92
F1.0
s(lp989
tp990
a(S'y'
p991
(dp992
g663
F0.000442
sS'CONJ'
p993
F0.999558
s(lp994
(g58
I7
tp995
atp996
a(S'en'
p997
(dp998
g663
F0.0
sS'CONJ'
p999
F0.0
sS'ADP'
p1000
F1.0
s(lp1001
(g99
I8
tp1002
atp1003
a(S'ese'
p1004
(dp1005
S'PRON'
p1006
F0.999929
sS'NOUN'
p1007
F7.1e-05
s(lp1008
(g106
I9
tp1009
atp1010
a(S'sentido'
p1011
(dp1012
S'NOUN'
p1013
F1.0
s(lp1014
(g115
I10
tp1015
atp1016
a(S'dependemos'
p1017
(dp1018
S'VERB'
p1019
F1.0
s(lp1020
(g87
I15
tp1021
atp1022
a(S'de'
p1023
(dp1024
g663
F0.0
sS'CONJ'
p1025
F2.4e-05
sS'ADP'
p1026
F0.999976
s(lp1027
(g141
I16
tp1028
atp1029
a(S'nosotros'
p1030
(dp1031
S'PRON'
p1032
F1.0
s(lp1033
(g264
I17
tp1034
atp1035
a(S'mismos'
p1036
(dp1037
S'ADJ'
p1038
F1.0
s(lp1039
(g149
I18
tp1040
atp1041
a(g92
(dp1042
g92
F1.0
s(lp1043
(g92
I19
tp1044
atp1045
as.