(dp0
S'fr'
p1
(lp2
(S'nous'
p3
(dp4
S'PRON'
p5
F1.0
s(lp6
(S'we'
p7
I3
tp8
atp9
a(S'pouvons'
p10
(dp11
S'VERB'
p12
F1.0
s(lp13
(S'can'
p14
I4
tp15
atp16
a(S'en'
p17
(dp18
S'PRON'
p19
F0.148054
sS'ADP'
p20
F0.851946
s(lp21
(S'in'
p22
I0
tp23
atp24
a(S'outre'
p25
(dp26
S'ADV'
p27
F0.837898
sS'VERB'
p28
F0.037759
sS'NOUN'
p29
F0.000624
sS'ADP'
p30
F0.12372
s(lp31
(S'addition'
p32
I1
tp33
atp34
a(S'\xc3\xa9tudier'
p35
(dp36
S'VERB'
p37
F1.0
s(lp38
(S'examine'
p39
I5
tp40
atp41
a(S'les'
p42
(dp43
S'PRON'
p44
F3.1e-05
sS'DET'
p45
F0.999948
sS'ADP'
p46
F2.1e-05
s(lp47
(S'the'
p48
I6
tp49
atp50
a(S'possibilit\xc3\xa9s'
p51
(dp52
S'NOUN'
p53
F1.0
s(lp54
(S'possibilities'
p55
I7
tp56
atp57
a(S'de'
p58
(dp59
S'ADP'
p60
F1.0
s(lp61
(S'for'
p62
I8
tp63
atp64
a(S'continuer'
p65
(dp66
S'VERB'
p67
F1.0
s(lp68
(S'continuing'
p69
I9
tp70
atp71
a(S'\xc3\xa0'
p72
(dp73
S'ADP'
p74
F1.0
s(lp75
(S'to'
p76
I11
tp77
atp78
a(S'aider'
p79
(dp80
S'VERB'
p81
F1.0
s(lp82
(S'support'
p83
I10
tp84
atp85
a(S'certaines'
p86
(dp87
S'PRON'
p88
F0.999443
sS'ADJ'
p89
F0.000557
s(lp90
(S'selected'
p91
I12
tp92
atp93
a(S'petites'
p94
(dp95
S'NOUN'
p96
F0.022086
sS'ADJ'
p97
F0.977914
s(lp98
(S'small'
p99
I13
tp100
atp101
a(S'r\xc3\xa9gions'
p102
(dp103
S'NOUN'
p104
F1.0
s(lp105
(S'areas'
p106
I14
tp107
atp108
a(S'qui'
p109
(dp110
S'PRON'
p111
F1.0
s(lp112
(S'where'
p113
I15
tp114
atp115
a(S'ont'
p116
(dp117
S'VERB'
p118
F1.0
s(lp119
(S'are'
p120
I17
tp121
atp122
a(S'de'
p123
(dp124
S'ADP'
p125
F1.0
s(lp126
tp127
a(S'bons'
p128
(dp129
S'NOUN'
p130
F0.037443
sS'ADJ'
p131
F0.962557
s(lp132
(S'good'
p133
I18
tp134
atp135
a(S'arguments'
p136
(dp137
S'NOUN'
p138
F1.0
s(lp139
tp140
a(S'en'
p141
(dp142
S'PRON'
p143
F0.000406
sS'ADP'
p144
F0.999594
s(lp145
tp146
a(S'faveur'
p147
(dp148
S'NOUN'
p149
F1.0
s(lp150
(S'arguments'
p151
I19
tp152
atp153
a(S'de'
p154
(dp155
S'ADP'
p156
F1.0
s(lp157
(S'for'
p158
I20
tp159
atp160
a(S'la'
p161
(dp162
S'PRON'
p163
F1.2e-05
sS'DET'
p164
F0.999988
sS'NOUN'
p165
F0.0
s(lp166
tp167
a(S'production'
p168
(dp169
S'NOUN'
p170
F1.0
s(lp171
(S'production'
p172
I22
tp173
atp174
a(S'laiti\xc3\xa8re'
p175
(dp176
S'NOUN'
p177
F0.017216
sS'ADJ'
p178
F0.982784
s(lp179
(S'milk'
p180
I21
tp181
atp182
a(S'malgr\xc3\xa9'
p183
(dp184
S'ADP'
p185
F1.0
s(lp186
(S'despite'
p187
I23
tp188
atp189
a(S'leurs'
p190
(dp191
S'PRON'
p192
F1.0
s(lp193
(S'the'
p194
I24
tp195
atp196
a(S'conditions'
p197
(dp198
S'NOUN'
p199
F1.0
s(lp200
(S'conditions'
p201
I26
tp202
atp203
a(S'\xc3\xa9conomiques'
p204
(dp205
S'NOUN'
p206
F0.005274
sS'ADJ'
p207
F0.994726
s(lp208
(S'economic'
p209
I25
tp210
atp211
a(S'.'
p212
(dp213
g212
F1.0
s(lp214
(g212
I27
tp215
atp216
asS'en'
p217
(lp218
(g22
(dp219
S'ADV'
p220
F0.000791
sS'PRT'
p221
F0.0
sS'ADP'
p222
F0.999209
s(lp223
(g22
I0
tp224
atp225
a(g32
(dp226
S'NOUN'
p227
F1.0
s(lp228
(g32
I1
tp229
atp230
a(S','
p231
(dp232
g212
F1.0
s(lp233
(g231
I2
tp234
atp235
a(g7
(dp236
S'PRON'
p237
F1.0
s(lp238
(g7
I3
tp239
atp240
a(g14
(dp241
S'VERB'
p242
F1.0
sS'NOUN'
p243
F0.0
s(lp244
(g14
I4
tp245
atp246
a(g39
(dp247
S'VERB'
p248
F1.0
s(lp249
(g39
I5
tp250
atp251
a(g48
(dp252
S'NOUN'
p253
F5e-06
sS'DET'
p254
F0.999995
s(lp255
(g48
I6
tp256
atp257
a(g55
(dp258
S'NOUN'
p259
F1.0
s(lp260
(g55
I7
tp261
atp262
a(g62
(dp263
S'ADP'
p264
F1.0
s(lp265
(g62
I8
tp266
atp267
a(g69
(dp268
S'VERB'
p269
F0.75544
sS'ADJ'
p270
F0.24456
s(lp271
(g69
I9
tp272
atp273
a(g83
(dp274
S'VERB'
p275
F0.043981
sS'NOUN'
p276
F0.956019
s(lp277
(g83
I10
tp278
atp279
a(g76
(dp280
S'ADV'
p281
F5e-06
sS'PRT'
p282
F0.999987
sS'ADP'
p283
F9e-06
s(lp284
(g76
I11
tp285
atp286
a(g91
(dp287
S'VERB'
p288
F0.28361000000000003
sS'ADJ'
p289
F0.71639
s(lp290
(g91
I12
tp291
atp292
a(g99
(dp293
S'ADV'
p294
F6e-06
sS'NOUN'
p295
F0.000274
sS'ADJ'
p296
F0.99972
s(lp297
(g99
I13
tp298
atp299
a(g106
(dp300
S'NOUN'
p301
F1.0
s(lp302
(g106
I14
tp303
atp304
a(g113
(dp305
S'ADV'
p306
F0.99995
sS'ADP'
p307
F5e-05
s(lp308
(g113
I15
tp309
atp310
a(S'there'
p311
(dp312
S'ADV'
p313
F0.000485
sS'ADJ'
p314
F0.0
sS'DET'
p315
F0.999515
sS'ADP'
p316
F0.0
s(lp317
(g311
I16
tp318
atp319
a(g120
(dp320
S'VERB'
p321
F1.0
sS'NOUN'
p322
F0.0
s(lp323
(g120
I17
tp324
atp325
a(g133
(dp326
S'ADV'
p327
F0.00032
sS'NOUN'
p328
F0.000592
sS'ADJ'
p329
F0.999088
s(lp330
(g133
I18
tp331
atp332
a(g151
(dp333
S'NOUN'
p334
F1.0
s(lp335
(g151
I19
tp336
atp337
a(g158
(dp338
S'ADP'
p339
F1.0
s(lp340
(g158
I20
tp341
atp342
a(g180
(dp343
S'VERB'
p344
F0.000928
sS'NOUN'
p345
F0.999072
s(lp346
(g180
I21
tp347
atp348
a(g172
(dp349
S'NOUN'
p350
F1.0
s(lp351
(g172
I22
tp352
atp353
a(g187
(dp354
S'VERB'
p355
F1.6e-05
sS'NOUN'
p356
F1.1e-05
sS'ADP'
p357
F0.999972
s(lp358
(g187
I23
tp359
atp360
a(g194
(dp361
S'NOUN'
p362
F1e-06
sS'DET'
p363
F0.999999
s(lp364
(g194
I24
tp365
atp366
a(g209
(dp367
S'ADJ'
p368
F1.0
s(lp369
(g209
I25
tp370
atp371
a(g201
(dp372
S'VERB'
p373
F3e-06
sS'NOUN'
p374
F0.999997
s(lp375
(g201
I26
tp376
atp377
a(g212
(dp378
g212
F1.0
s(lp379
(g212
I27
tp380
atp381
asS'nl'
p382
(lp383
(S'daarnaast'
p384
(dp385
S'ADV'
p386
F1.0
s(lp387
(g32
I1
tp388
atp389
a(S'kunnen'
p390
(dp391
S'VERB'
p392
F0.9999979999999999
sS'NOUN'
p393
F2e-06
s(lp394
(g14
I4
tp395
atp396
a(S'we'
p397
(dp398
S'PRON'
p399
F1.0
s(lp400
(g7
I3
tp401
atp402
a(S'de'
p403
(dp404
S'DET'
p405
F1.0
s(lp406
(g48
I6
tp407
atp408
a(S'mogelijkheden'
p409
(dp410
S'NOUN'
p411
F1.0
s(lp412
(g55
I7
tp413
atp414
a(S'onderzoeken'
p415
(dp416
S'VERB'
p417
F0.9853609999999999
sS'NOUN'
p418
F0.014639
s(lp419
(g39
I5
tp420
atp421
a(S'om'
p422
(dp423
S'ADV'
p424
F0.001504
sS'CONJ'
p425
F0.844449
sS'ADP'
p426
F0.154048
s(lp427
(g62
I8
tp428
atp429
a(S'de'
p430
(dp431
S'DET'
p432
F1.0
s(lp433
tp434
a(S'steun'
p435
(dp436
S'VERB'
p437
F1.4e-05
sS'NOUN'
p438
F0.999986
s(lp439
(g83
I10
tp440
atp441
a(S'aan'
p442
(dp443
S'ADV'
p444
F0.360036
sS'ADP'
p445
F0.639964
s(lp446
tp447
a(S'geselecteerde'
p448
(dp449
S'VERB'
p450
F0.464512
sS'NOUN'
p451
F0.535488
s(lp452
(g91
I12
tp453
atp454
a(S'kleine'
p455
(dp456
S'NOUN'
p457
F0.005167
sS'ADJ'
p458
F0.994833
s(lp459
(g99
I13
tp460
atp461
a(S'gebieden'
p462
(dp463
S'VERB'
p464
F0.316035
sS'NOUN'
p465
F0.683966
s(lp466
(g106
I14
tp467
atp468
a(S'voort'
p469
(dp470
S'ADV'
p471
F1.0
s(lp472
tp473
a(S'te'
p474
(dp475
S'PRT'
p476
F1.0
s(lp477
(g76
I11
tp478
atp479
a(S'zetten'
p480
(dp481
S'VERB'
p482
F0.999991
sS'NOUN'
p483
F9e-06
s(lp484
(g69
I9
tp485
atp486
a(S'als'
p487
(dp488
S'CONJ'
p489
F1.0
s(lp490
(g113
I15
tp491
atp492
a(S'er'
p493
(dp494
S'ADV'
p495
F1.0
s(lp496
(g311
I16
tp497
atp498
a(S'goede'
p499
(dp500
S'NOUN'
p501
F0.001418
sS'ADJ'
p502
F0.998582
s(lp503
(g133
I18
tp504
atp505
a(S'argumenten'
p506
(dp507
S'NOUN'
p508
F1.0
s(lp509
(g151
I19
tp510
atp511
a(S'aanwezig'
p512
(dp513
S'ADJ'
p514
F1.0
s(lp515
tp516
a(S'zijn'
p517
(dp518
S'PRON'
p519
F3e-06
sS'VERB'
p520
F0.997981
sS'NOUN'
p521
F0.002016
s(lp522
(g120
I17
tp523
atp524
a(S'om'
p525
(dp526
S'ADV'
p527
F0.079668
sS'CONJ'
p528
F0.855663
sS'ADP'
p529
F0.064669
s(lp530
(g158
I20
tp531
atp532
a(S'daar'
p533
(dp534
S'ADV'
p535
F0.762617
sS'CONJ'
p536
F0.237383
s(lp537
(g311
I16
tp538
atp539
a(S'ondanks'
p540
(dp541
S'ADP'
p542
F1.0
s(lp543
(g187
I23
tp544
atp545
a(S'de'
p546
(dp547
S'DET'
p548
F1.0
s(lp549
(g194
I24
tp550
atp551
a(S'economische'
p552
(dp553
S'NOUN'
p554
F1e-06
sS'ADJ'
p555
F0.999999
s(lp556
(g209
I25
tp557
atp558
a(S'omstandigheden'
p559
(dp560
S'NOUN'
p561
F1.0
s(lp562
(g201
I26
tp563
atp564
a(S'melk'
p565
(dp566
S'VERB'
p567
F0.451169
sS'NOUN'
p568
F0.548831
s(lp569
(g180
I21
tp570
atp571
a(S'te'
p572
(dp573
S'PRT'
p574
F1.0
s(lp575
tp576
a(S'produceren'
p577
(dp578
S'VERB'
p579
F0.9999990000000001
sS'NOUN'
p580
F1e-06
s(lp581
(g172
I22
tp582
atp583
a(g212
(dp584
g212
F1.0
s(lp585
(g212
I27
tp586
atp587
asS'de'
p588
(lp589
(S'dar\xc3\xbcber'
p590
(dp591
S'ADV'
p592
F1.0
sS'PRT'
p593
F0.0
s(lp594
tp595
a(S'hinaus'
p596
(dp597
S'ADV'
p598
F0.720892
sS'PRT'
p599
F0.279108
s(lp600
(g32
I1
tp601
atp602
a(S'k\xc3\xb6nnen'
p603
(dp604
S'VERB'
p605
F0.999066
s(lp606
(g14
I4
tp607
atp608
a(S'wir'
p609
(dp610
S'PRON'
p611
F1.0
s(lp612
(g7
I3
tp613
atp614
a(S'die'
p615
(dp616
S'PRON'
p617
F0.004016
sS'DET'
p618
F0.994019
s(lp619
(g48
I6
tp620
atp621
a(S'm\xc3\xb6glichkeiten'
p622
(dp623
S'ADJ'
p624
F0.334499
sS'NOUN'
p625
F0.647416
s(lp626
(g55
I7
tp627
atp628
a(S'einer'
p629
(dp630
S'PRON'
p631
F0.006214
sS'DET'
p632
F0.992868
s(lp633
(g62
I8
tp634
atp635
a(S'weiteren'
p636
(dp637
S'ADJ'
p638
F1.0
s(lp639
(g69
I9
tp640
atp641
a(S'unterst\xc3\xbctzung'
p642
(dp643
S'VERB'
p644
F1.8e-05
sS'NOUN'
p645
F0.999955
s(lp646
(g83
I10
tp647
atp648
a(S'f\xc3\xbcr'
p649
(dp650
S'ADP'
p651
F1.0
s(lp652
(g76
I11
tp653
atp654
a(S'ausgew\xc3\xa4hlte'
p655
(dp656
S'ADJ'
p657
F1.0
s(lp658
(g91
I12
tp659
atp660
a(S'kleine'
p661
(dp662
S'ADJ'
p663
F1.0
s(lp664
(g99
I13
tp665
atp666
a(S'fl\xc3\xa4chen'
p667
(dp668
S'ADJ'
p669
F0.002907
sS'NOUN'
p670
F0.993032
s(lp671
(g106
I14
tp672
atp673
a(S'pr\xc3\xbcfen'
p674
(dp675
S'VERB'
p676
F1.0
s(lp677
(g39
I5
tp678
atp679
a(g231
(dp680
g212
F1.0
s(lp681
tp682
a(S'wo'
p683
(dp684
S'PRON'
p685
F1.0
s(lp686
(g113
I15
tp687
atp688
a(S'es'
p689
(dp690
S'PRON'
p691
F1.0
s(lp692
tp693
a(S'gute'
p694
(dp695
S'ADJ'
p696
F1.0
s(lp697
(g133
I18
tp698
atp699
a(S'argumente'
p700
(dp701
S'VERB'
p702
F1.8e-05
sS'NOUN'
p703
F0.999955
s(lp704
(g151
I19
tp705
atp706
a(S'f\xc3\xbcr'
p707
(dp708
S'ADP'
p709
F1.0
s(lp710
(g158
I20
tp711
atp712
a(S'milchproduktion'
p713
(dp714
S'ADJ'
p715
F0.047528
sS'NOUN'
p716
F0.930139
s(lp717
(g180
I21
tp718
atp719
a(S'trotz'
p720
(dp721
S'VERB'
p722
F4e-06
sS'ADP'
p723
F0.999996
s(lp724
(g187
I23
tp725
atp726
a(S'der'
p727
(dp728
S'PRON'
p729
F6.7e-05
sS'DET'
p730
F0.999928
s(lp731
(g194
I24
tp732
atp733
a(S'wirtschaftlichen'
p734
(dp735
S'ADJ'
p736
F1.0
s(lp737
(g209
I25
tp738
atp739
a(S'bedingungen'
p740
(dp741
S'X'
p742
F0.004818
sS'NOUN'
p743
F0.992206
s(lp744
(g201
I26
tp745
atp746
a(S'gibt'
p747
(dp748
S'VERB'
p749
F1.0
s(lp750
(g311
I16
tp751
atp752
a(g212
(dp753
g212
F1.0
s(lp754
(g212
I27
tp755
atp756
asS'it'
p757
(lp758
(S'inoltre'
p759
(dp760
S'ADV'
p761
F1.0
s(lp762
(g32
I1
tp763
atp764
a(g231
(dp765
g212
F1.0
s(lp766
(g231
I2
tp767
atp768
a(S'possiamo'
p769
(dp770
S'VERB'
p771
F1.0
s(lp772
(g14
I4
tp773
atp774
a(S'valutare'
p775
(dp776
S'VERB'
p777
F1.0
s(lp778
(g39
I5
tp779
atp780
a(S'le'
p781
(dp782
S'PRON'
p783
F0.0
sS'DET'
p784
F1.0
s(lp785
(g48
I6
tp786
atp787
a(S'possibilit\xc3\xa0'
p788
(dp789
S'NOUN'
p790
F1.0
s(lp791
(g55
I7
tp792
atp793
a(S'di'
p794
(dp795
S'CONJ'
p796
F6e-06
sS'ADP'
p797
F0.999994
s(lp798
(g62
I8
tp799
atp800
a(S'proseguire'
p801
(dp802
S'VERB'
p803
F1.0
s(lp804
(g69
I9
tp805
atp806
a(S'con'
p807
(dp808
S'ADP'
p809
F1.0
s(lp810
tp811
a(S'il'
p812
(dp813
S'DET'
p814
F1.0
s(lp815
tp816
a(S'sostegno'
p817
(dp818
S'NOUN'
p819
F1.0
s(lp820
(g83
I10
tp821
atp822
a(S'a'
p823
(dp824
S'CONJ'
p825
F0.000911
sS'ADP'
p826
F0.999089
s(lp827
(g76
I11
tp828
atp829
a(S'piccole'
p830
(dp831
S'NOUN'
p832
F0.012874
sS'ADJ'
p833
F0.987126
s(lp834
(g99
I13
tp835
atp836
a(S'aree'
p837
(dp838
S'NOUN'
p839
F1.0
s(lp840
(g106
I14
tp841
atp842
a(S'ristrette'
p843
(dp844
S'VERB'
p845
F0.803407
sS'ADJ'
p846
F0.196593
s(lp847
(g91
I12
tp848
atp849
a(S'in'
p850
(dp851
S'ADP'
p852
F1.0
s(lp853
tp854
a(S'cui'
p855
(dp856
S'PRON'
p857
F1.0
s(lp858
(g113
I15
tp859
atp860
a(S'vi'
p861
(dp862
S'ADV'
p863
F0.01042
sS'PRON'
p864
F0.9895799999999999
s(lp865
(g311
I16
tp866
atp867
a(S'sono'
p868
(dp869
S'VERB'
p870
F0.99965
sS'NOUN'
p871
F0.00035
s(lp872
(g120
I17
tp873
atp874
a(S'buoni'
p875
(dp876
S'NOUN'
p877
F0.007991
sS'ADJ'
p878
F0.992009
s(lp879
(g133
I18
tp880
atp881
a(S'motivi'
p882
(dp883
S'VERB'
p884
F0.00888
sS'NOUN'
p885
F0.99112
s(lp886
(g151
I19
tp887
atp888
a(S'per'
p889
(dp890
S'CONJ'
p891
F0.052573
sS'ADP'
p892
F0.947427
s(lp893
(g158
I20
tp894
atp895
a(S'la'
p896
(dp897
S'PRON'
p898
F0.00021
sS'DET'
p899
F0.99979
s(lp900
tp901
a(S'produzione'
p902
(dp903
S'NOUN'
p904
F1.0
s(lp905
(g172
I22
tp906
atp907
a(S'di'
p908
(dp909
S'CONJ'
p910
F4e-06
sS'ADP'
p911
F0.999996
s(lp912
tp913
a(S'latte'
p914
(dp915
S'NOUN'
p916
F1.0
s(lp917
(g180
I21
tp918
atp919
a(S'nonostante'
p920
(dp921
S'CONJ'
p922
F0.085704
sS'ADP'
p923
F0.914296
s(lp924
(g187
I23
tp925
atp926
a(S'le'
p927
(dp928
S'PRON'
p929
F0.000121
sS'DET'
p930
F0.999879
s(lp931
(g194
I24
tp932
atp933
a(S'condizioni'
p934
(dp935
S'VERB'
p936
F0.000126
sS'NOUN'
p937
F0.999873
s(lp938
(g201
I26
tp939
atp940
a(S'economiche'
p941
(dp942
S'ADJ'
p943
F1.0
s(lp944
(g209
I25
tp945
atp946
a(g212
(dp947
g212
F1.0
s(lp948
(g212
I27
tp949
atp950
asS'sk'
p951
(lp952
(S'okrem'
p953
(dp954
S'ADP'
p955
F1.0
s(lp956
tp957
a(S'toho'
p958
(dp959
S'PRON'
p960
F0.999994
sg742
F6e-06
s(lp961
(g32
I1
tp962
atp963
a(S'm\xc3\xb4\xc5\xbeeme'
p964
(dp965
S'VERB'
p966
F1.0
s(lp967
(g14
I4
tp968
atp969
a(S'presk\xc3\xbama\xc5\xa5'
p970
(dp971
S'VERB'
p972
F1.0
s(lp973
(g39
I5
tp974
atp975
a(S'mo\xc5\xbenosti'
p976
(dp977
S'NOUN'
p978
F1.0
s(lp979
(g55
I7
tp980
atp981
a(S'pokra\xc4\x8duj\xc3\xbacej'
p982
(dp983
S'VERB'
p984
F1.0
s(lp985
(g69
I9
tp986
atp987
a(S'podpory'
p988
(dp989
S'NOUN'
p990
F1.0
s(lp991
(g83
I10
tp992
atp993
a(S'vybran\xc3\xbdm'
p994
(dp995
S'VERB'
p996
F1.0
s(lp997
(g91
I12
tp998
atp999
a(S'mal\xc3\xbdm'
p1000
(dp1001
S'NOUN'
p1002
F0.009203
sS'ADJ'
p1003
F0.990797
s(lp1004
(g99
I13
tp1005
atp1006
a(S'oblastiam'
p1007
(dp1008
S'NOUN'
p1009
F1.0
s(lp1010
(g106
I14
tp1011
atp1012
a(g231
(dp1013
g212
F1.0
s(lp1014
tp1015
a(S'kde'
p1016
(dp1017
S'PRON'
p1018
F0.999944
sg742
F5.6e-05
s(lp1019
(g113
I15
tp1020
atp1021
a(S's\xc3\xba'
p1022
(dp1023
S'VERB'
p1024
F1.0
s(lp1025
(g120
I17
tp1026
atp1027
a(S'dobr\xc3\xa9'
p1028
(dp1029
S'NOUN'
p1030
F6.6e-05
sS'ADJ'
p1031
F0.999925
sg742
F9e-06
s(lp1032
(g133
I18
tp1033
atp1034
a(S'd\xc3\xb4vody'
p1035
(dp1036
S'NOUN'
p1037
F1.0
s(lp1038
(g151
I19
tp1039
atp1040
a(S'na'
p1041
(dp1042
g742
F2.2e-05
sS'CONJ'
p1043
F1.8e-05
sS'ADP'
p1044
F0.999956
sS'PRT'
p1045
F4e-06
s(lp1046
(g158
I20
tp1047
atp1048
a(S'v\xc3\xbdrobu'
p1049
(dp1050
S'NOUN'
p1051
F1.0
s(lp1052
(g172
I22
tp1053
atp1054
a(S'mlieka'
p1055
(dp1056
S'NOUN'
p1057
F1.0
s(lp1058
(g180
I21
tp1059
atp1060
a(S'napriek'
p1061
(dp1062
S'ADV'
p1063
F0.000105
sS'CONJ'
p1064
F7.9e-05
sS'ADP'
p1065
F0.999816
s(lp1066
(g187
I23
tp1067
atp1068
a(S'hospod\xc3\xa1rskym'
p1069
(dp1070
S'ADJ'
p1071
F1.0
s(lp1072
(g209
I25
tp1073
atp1074
a(S'podmienkam'
p1075
(dp1076
S'NOUN'
p1077
F1.0
s(lp1078
(g201
I26
tp1079
atp1080
a(g212
(dp1081
g212
F1.0
s(lp1082
(g212
I27
tp1083
atp1084
asS'pl'
p1085
(lp1086
(S'ponadto'
p1087
(dp1088
S'PRT'
p1089
F0.98943
sS'CONJ'
p1090
F0.01057
s(lp1091
(g32
I1
tp1092
atp1093
a(S'mo\xc5\xbcemy'
p1094
(dp1095
S'VERB'
p1096
F1.0
s(lp1097
(g14
I4
tp1098
atp1099
a(S'zbada\xc4\x87'
p1100
(dp1101
S'VERB'
p1102
F1.0
s(lp1103
(g39
I5
tp1104
atp1105
a(S'mo\xc5\xbcliwo\xc5\x9bci'
p1106
(dp1107
S'NOUN'
p1108
F0.999999
s(lp1109
(g55
I7
tp1110
atp1111
a(S'kontynuowania'
p1112
(dp1113
S'VERB'
p1114
F1.0
s(lp1115
(g69
I9
tp1116
atp1117
a(S'wspierania'
p1118
(dp1119
S'VERB'
p1120
F1.0
s(lp1121
(g83
I10
tp1122
atp1123
a(S'wybranych'
p1124
(dp1125
S'NOUN'
p1126
F0.009582
sS'VERB'
p1127
F0.28791999999999995
sS'ADJ'
p1128
F0.7024980000000001
s(lp1129
(g91
I12
tp1130
atp1131
a(S'niewielkich'
p1132
(dp1133
S'ADJ'
p1134
F0.999999
s(lp1135
(g99
I13
tp1136
atp1137
a(S'obszar\xc3\xb3w'
p1138
(dp1139
S'NOUN'
p1140
F1.0
s(lp1141
(g106
I14
tp1142
atp1143
a(g231
(dp1144
g742
F0.0
sg212
F1.0
s(lp1145
tp1146
a(S'w'
p1147
(dp1148
S'ADJ'
p1149
F0.0
sg742
F1e-06
sS'NOUN'
p1150
F0.0
sS'ADP'
p1151
F1.0
s(lp1152
(g22
I0
tp1153
atp1154
a(S'przypadku'
p1155
(dp1156
S'NOUN'
p1157
F1.0
s(lp1158
tp1159
a(S'kt\xc3\xb3rych'
p1160
(dp1161
S'ADJ'
p1162
F0.999999
s(lp1163
(g113
I15
tp1164
atp1165
a(S'istniej\xc4\x85'
p1166
(dp1167
S'VERB'
p1168
F1.0
s(lp1169
(g311
I16
tp1170
atp1171
a(S'dobre'
p1172
(dp1173
S'NOUN'
p1174
F2.8e-05
sS'ADJ'
p1175
F0.9999720000000001
s(lp1176
(g133
I18
tp1177
atp1178
a(S'przes\xc5\x82anki'
p1179
(dp1180
S'NOUN'
p1181
F1.0
s(lp1182
(g151
I19
tp1183
atp1184
a(S'dla'
p1185
(dp1186
S'ADP'
p1187
F1.0
s(lp1188
(g158
I20
tp1189
atp1190
a(S'produkcji'
p1191
(dp1192
S'NOUN'
p1193
F1.0
s(lp1194
(g172
I22
tp1195
atp1196
a(S'mleka'
p1197
(dp1198
S'NOUN'
p1199
F1.0
s(lp1200
(g180
I21
tp1201
atp1202
a(S'pomimo'
p1203
(dp1204
S'ADP'
p1205
F1.0
s(lp1206
(g187
I23
tp1207
atp1208
a(S'warunk\xc3\xb3w'
p1209
(dp1210
S'NOUN'
p1211
F1.0
s(lp1212
(g201
I26
tp1213
atp1214
a(S'gospodarczych'
p1215
(dp1216
S'ADJ'
p1217
F0.999999
s(lp1218
(g209
I25
tp1219
atp1220
a(g212
(dp1221
g212
F1.0
s(lp1222
(g212
I27
tp1223
atp1224
asS'sl'
p1225
(lp1226
(S'poleg'
p1227
(dp1228
S'ADV'
p1229
F0.000992
sS'ADP'
p1230
F0.999008
s(lp1231
tp1232
a(S'tega'
p1233
(dp1234
S'PRON'
p1235
F1.0
s(lp1236
(g32
I1
tp1237
atp1238
a(S'lahko'
p1239
(dp1240
S'ADV'
p1241
F0.999954
sS'ADJ'
p1242
F4.599999999999999e-05
s(lp1243
(g14
I4
tp1244
atp1245
a(S'preu\xc4\x8dimo'
p1246
(dp1247
S'VERB'
p1248
F1.0
s(lp1249
(g39
I5
tp1250
atp1251
a(S'mo\xc5\xbenosti'
p1252
(dp1253
S'NOUN'
p1254
F1.000001
s(lp1255
(g55
I7
tp1256
atp1257
a(S'za'
p1258
(dp1259
S'ADV'
p1260
F3.2e-05
sg742
F5e-06
sS'ADP'
p1261
F0.999963
s(lp1262
(g62
I8
tp1263
atp1264
a(S'namenjanje'
p1265
(dp1266
S'ADV'
p1267
F0.000547
sS'ADJ'
p1268
F0.000756
sS'VERB'
p1269
F0.0
sS'NOUN'
p1270
F0.9986940000000001
s(lp1271
tp1272
a(S'nadaljnje'
p1273
(dp1274
S'ADJ'
p1275
F1.0
s(lp1276
(g69
I9
tp1277
atp1278
a(S'podpore'
p1279
(dp1280
S'NOUN'
p1281
F1.0
s(lp1282
(g83
I10
tp1283
atp1284
a(S'majhnim'
p1285
(dp1286
S'ADJ'
p1287
F1.000001
s(lp1288
(g99
I13
tp1289
atp1290
a(S'obmo\xc4\x8djem'
p1291
(dp1292
S'NOUN'
p1293
F1.0
s(lp1294
(g106
I14
tp1295
atp1296
a(g231
(dp1297
g212
F1.0
s(lp1298
tp1299
a(S'ki'
p1300
(dp1301
S'CONJ'
p1302
F1.0
s(lp1303
(g113
I15
tp1304
atp1305
a(S'imajo'
p1306
(dp1307
S'VERB'
p1308
F1.0
s(lp1309
(g120
I17
tp1310
atp1311
a(S'kljub'
p1312
(dp1313
S'ADP'
p1314
F1.0
s(lp1315
(g187
I23
tp1316
atp1317
a(S'gospodarskim'
p1318
(dp1319
S'ADJ'
p1320
F1.0
s(lp1321
(g209
I25
tp1322
atp1323
a(S'pogojem'
p1324
(dp1325
S'NOUN'
p1326
F1.0
s(lp1327
(g201
I26
tp1328
atp1329
a(S'dobre'
p1330
(dp1331
S'ADJ'
p1332
F1.0
s(lp1333
(g133
I18
tp1334
atp1335
a(S'razloge'
p1336
(dp1337
S'NOUN'
p1338
F1.0
s(lp1339
(g151
I19
tp1340
atp1341
a(S'za'
p1342
(dp1343
S'ADV'
p1344
F4e-06
sg742
F0.0
sS'ADP'
p1345
F0.999996
s(lp1346
(g158
I20
tp1347
atp1348
a(S'proizvajanje'
p1349
(dp1350
S'NOUN'
p1351
F1.0
s(lp1352
(g172
I22
tp1353
atp1354
a(S'mleka'
p1355
(dp1356
S'NOUN'
p1357
F1.0
s(lp1358
(g180
I21
tp1359
atp1360
a(g212
(dp1361
g212
F1.0
s(lp1362
(g212
I27
tp1363
atp1364
asS'es'
p1365
(lp1366
(S'por'
p1367
(dp1368
S'ADP'
p1369
F1.0
s(lp1370
(g22
I0
tp1371
atp1372
a(S'otra'
p1373
(dp1374
S'ADJ'
p1375
F1.0
s(lp1376
tp1377
a(S'parte'
p1378
(dp1379
S'VERB'
p1380
F0.000243
sS'NOUN'
p1381
F0.999757
s(lp1382
(g32
I1
tp1383
atp1384
a(g231
(dp1385
g212
F1.0
s(lp1386
(g231
I2
tp1387
atp1388
a(S'podemos'
p1389
(dp1390
S'VERB'
p1391
F1.0
s(lp1392
(g14
I4
tp1393
atp1394
a(S'estudiar'
p1395
(dp1396
S'VERB'
p1397
F1.0
s(lp1398
(g39
I5
tp1399
atp1400
a(S'la'
p1401
(dp1402
S'PRON'
p1403
F4e-06
sS'DET'
p1404
F0.999995
sS'NOUN'
p1405
F0.0
sg742
F1e-06
s(lp1406
(g48
I6
tp1407
atp1408
a(S'posibilidad'
p1409
(dp1410
S'NOUN'
p1411
F1.0
s(lp1412
(g55
I7
tp1413
atp1414
a(S'de'
p1415
(dp1416
g742
F0.0
sS'CONJ'
p1417
F0.345844
sS'ADP'
p1418
F0.654156
s(lp1419
(g62
I8
tp1420
atp1421
a(S'seguir'
p1422
(dp1423
S'VERB'
p1424
F1.0
s(lp1425
(g69
I9
tp1426
atp1427
a(S'apoyando'
p1428
(dp1429
S'VERB'
p1430
F1.0
s(lp1431
(g83
I10
tp1432
atp1433
a(S'peque\xc3\xb1as'
p1434
(dp1435
S'ADJ'
p1436
F1.0
s(lp1437
(g99
I13
tp1438
atp1439
a(S'\xc3\xa1reas'
p1440
(dp1441
S'NOUN'
p1442
F1.0
s(lp1443
(g106
I14
tp1444
atp1445
a(S'seleccionadas'
p1446
(dp1447
S'VERB'
p1448
F1.0
s(lp1449
(g91
I12
tp1450
atp1451
a(S'donde'
p1452
(dp1453
S'ADV'
p1454
F1.0
s(lp1455
(g113
I15
tp1456
atp1457
a(S'hay'
p1458
(dp1459
S'VERB'
p1460
F1.0
s(lp1461
(g311
I16
tp1462
atp1463
a(S'buenos'
p1464
(dp1465
S'ADJ'
p1466
F1.0
s(lp1467
(g133
I18
tp1468
atp1469
a(S'argumentos'
p1470
(dp1471
S'NOUN'
p1472
F1.0
s(lp1473
(g151
I19
tp1474
atp1475
a(S'para'
p1476
(dp1477
S'CONJ'
p1478
F0.000662
sS'ADP'
p1479
F0.999338
s(lp1480
(g158
I20
tp1481
atp1482
a(S'la'
p1483
(dp1484
g742
F0.0
sS'PRON'
p1485
F0.0
sS'DET'
p1486
F0.999999
sS'NOUN'
p1487
F0.0
s(lp1488
tp1489
a(S'producci\xc3\xb3n'
p1490
(dp1491
S'NOUN'
p1492
F1.0
s(lp1493
(g172
I22
tp1494
atp1495
a(S'de'
p1496
(dp1497
g742
F7.7e-05
sS'CONJ'
p1498
F0.000466
sS'ADP'
p1499
F0.999457
s(lp1500
tp1501
a(S'leche'
p1502
(dp1503
S'VERB'
p1504
F0.002665
sS'NOUN'
p1505
F0.997335
s(lp1506
(g180
I21
tp1507
atp1508
a(g231
(dp1509
g212
F1.0
s(lp1510
tp1511
a(g823
(dp1512
S'CONJ'
p1513
F1.0
s(lp1514
tp1515
a(S'pesar'
p1516
(dp1517
S'CONJ'
p1518
F1.0
s(lp1519
(g187
I23
tp1520
atp1521
a(S'de'
p1522
(dp1523
S'CONJ'
p1524
F1.0
s(lp1525
tp1526
a(S'las'
p1527
(dp1528
S'PRON'
p1529
F1.8e-05
sS'DET'
p1530
F0.999982
s(lp1531
(g194
I24
tp1532
atp1533
a(S'condiciones'
p1534
(dp1535
S'NOUN'
p1536
F1.0
s(lp1537
(g201
I26
tp1538
atp1539
a(S'econ\xc3\xb3micas'
p1540
(dp1541
S'ADJ'
p1542
F1.0
s(lp1543
(g209
I25
tp1544
atp1545
a(g212
(dp1546
g212
F1.0
s(lp1547
(g212
I27
tp1548
atp1549
as.