(dp0
S'fr'
p1
(lp2
(S'puisque'
p3
(dp4
S'CONJ'
p5
F1.0
s(lp6
(S'since'
p7
I0
tp8
atp9
a(S'nous'
p10
(dp11
S'PRON'
p12
F1.0
s(lp13
(S'we'
p14
I1
tp15
atp16
a(S'd\xc3\xa9battons'
p17
(dp18
S'VERB'
p19
F1.0
s(lp20
(S'debating'
p21
I3
tp22
atp23
a(S'en'
p24
(dp25
S'PRON'
p26
F0.354043
sS'ADP'
p27
F0.645957
s(lp28
(S'as'
p29
I9
tp30
atp31
a(S"l'"
p32
(dp33
S'ADJ'
p34
F0.104029
sS'VERB'
p35
F0.39495
sS'NOUN'
p36
F0.501021
s(lp37
tp38
a(S'occurrence'
p39
(dp40
S'NOUN'
p41
F1.0
s(lp42
(S'such'
p43
I10
tp44
atp45
a(S"d'"
p46
(dp47
S'NOUN'
p48
F0.032441
sS'VERB'
p49
F0.694014
sS'ADJ'
p50
F0.273544
s(lp51
tp52
a(S'un'
p53
(dp54
S'NOUN'
p55
F6e-05
sS'NUM'
p56
F0.025531
sS'DET'
p57
F0.974409
s(lp58
(S'a'
p59
I4
tp60
atp61
a(S'document'
p62
(dp63
S'NOUN'
p64
F1.0
s(lp65
(S'document'
p66
I8
tp67
atp68
a(S'"'
p69
(dp70
S'.'
p71
F1.0
s(lp72
(S"'"
p73
I5
tp74
atp75
a(S'strat\xc3\xa9gique'
p76
(dp77
S'ADJ'
p78
F1.0
s(lp79
(S'strategic'
p80
I6
tp81
atp82
a(g69
(dp83
g71
F1.0
s(lp84
(g73
I7
tp85
atp86
a(S','
p87
(dp88
g71
F1.0
s(lp89
(g87
I11
tp90
atp91
a(S"l'"
p92
(dp93
S'ADJ'
p94
F0.13429
sS'VERB'
p95
F0.638201
sS'NOUN'
p96
F0.227509
s(lp97
tp98
a(S'exp\xc3\xa9rience'
p99
(dp100
S'NOUN'
p101
F1.0
s(lp102
(S'experience'
p103
I12
tp104
atp105
a(S'd\xc3\xa9montre'
p106
(dp107
S'VERB'
p108
F1.0
s(lp109
(S'shows'
p110
I13
tp111
atp112
a(S"qu'"
p113
(dp114
S'NOUN'
p115
F0.043787
sS'VERB'
p116
F0.7697689999999999
sS'ADJ'
p117
F0.186444
s(lp118
(S'that'
p119
I14
tp120
atp121
a(S'il'
p122
(dp123
S'PRON'
p124
F1.0
s(lp125
(S'it'
p126
I15
tp127
atp128
a(S'est'
p129
(dp130
S'VERB'
p131
F0.999997
sS'NOUN'
p132
F3e-06
s(lp133
(S'is'
p134
I16
tp135
atp136
a(S'plus'
p137
(dp138
S'ADV'
p139
F0.999916
sS'VERB'
p140
F8.4e-05
s(lp141
(S'as'
p142
I18
tp143
atp144
a(S'facile'
p145
(dp146
S'ADJ'
p147
F1.0
s(lp148
(S'difficult'
p149
I19
tp150
atp151
a(S'de'
p152
(dp153
S'ADP'
p154
F1.0
s(lp155
(S'to'
p156
I20
tp157
atp158
a(S'produire'
p159
(dp160
S'VERB'
p161
F1.0
s(lp162
(S'produce'
p163
I21
tp164
atp165
a(S'de'
p166
(dp167
S'ADP'
p168
F1.0
s(lp169
tp170
a(S'tels'
p171
(dp172
S'PRON'
p173
F0.999707
sS'NOUN'
p174
F0.000293
s(lp175
(S'such'
p176
I22
tp177
atp178
a(S'documents'
p179
(dp180
S'NOUN'
p181
F1.0
s(lp182
(S'documents'
p183
I23
tp184
atp185
a(S'que'
p186
(dp187
S'ADV'
p188
F0.022543
sS'PRON'
p189
F0.085066
sS'CONJ'
p190
F0.892391
s(lp191
(S'as'
p192
I24
tp193
atp194
a(S'de'
p195
(dp196
S'ADP'
p197
F1.0
s(lp198
(S'to'
p199
I27
tp200
atp201
a(S'les'
p202
(dp203
S'PRON'
p204
F0.557712
sS'DET'
p205
F0.441708
sS'ADP'
p206
F0.00058
s(lp207
(S'them'
p208
I29
tp209
atp210
a(S'mettre'
p211
(dp212
S'VERB'
p213
F1.0
s(lp214
(S'develop'
p215
I28
tp216
atp217
a(S'en'
p218
(dp219
S'PRON'
p220
F0.000572
sS'ADP'
p221
F0.999428
s(lp222
(S'subsequently'
p223
I30
tp224
atp225
a(S'application'
p226
(dp227
S'NOUN'
p228
F1.0
s(lp229
tp230
a(S'ensuite'
p231
(dp232
S'ADV'
p233
F1.0
s(lp234
(g223
I30
tp235
atp236
a(S'dans'
p237
(dp238
S'NOUN'
p239
F0.00039
sS'ADP'
p240
F0.99961
s(lp241
(S'in'
p242
I31
tp243
atp244
a(S'des'
p245
(dp246
S'DET'
p247
F0.00067
sS'ADP'
p248
F0.99933
s(lp249
(S'the'
p250
I32
tp251
atp252
a(S'domaines'
p253
(dp254
S'NOUN'
p255
F1.0
s(lp256
(S'areas'
p257
I34
tp258
atp259
a(S'particuliers'
p260
(dp261
S'NOUN'
p262
F0.012186
sS'ADJ'
p263
F0.987814
s(lp264
(S'individual'
p265
I33
tp266
atp267
a(g87
(dp268
g71
F1.0
s(lp269
(g87
I35
tp270
atp271
a(S'et'
p272
(dp273
S'CONJ'
p274
F1.0
s(lp275
(S'and'
p276
I36
tp277
atp278
a(S'de'
p279
(dp280
S'ADP'
p281
F1.0
s(lp282
(S'to'
p283
I37
tp284
atp285
a(S'contr\xc3\xb4ler'
p286
(dp287
S'VERB'
p288
F1.0
s(lp289
(S'monitor'
p290
I38
tp291
atp292
a(S'et'
p293
(dp294
S'CONJ'
p295
F1.0
s(lp296
(S'and'
p297
I39
tp298
atp299
a(S"d'"
p300
(dp301
S'NOUN'
p302
F0.050387
sS'VERB'
p303
F0.8915730000000001
sS'ADJ'
p304
F0.05804
s(lp305
tp306
a(S'\xc3\xa9valuer'
p307
(dp308
S'VERB'
p309
F1.0
s(lp310
(S'evaluate'
p311
I40
tp312
atp313
a(S'les'
p314
(dp315
S'PRON'
p316
F3.1e-05
sS'DET'
p317
F0.999948
sS'ADP'
p318
F2.1e-05
s(lp319
(S'the'
p320
I41
tp321
atp322
a(S'effets'
p323
(dp324
S'NOUN'
p325
F1.0
s(lp326
(S'effects'
p327
I42
tp328
atp329
a(S'des'
p330
(dp331
S'DET'
p332
F2.1e-05
sS'ADP'
p333
F0.999979
s(lp334
(S'of'
p335
I43
tp336
atp337
a(S'mesures'
p338
(dp339
S'VERB'
p340
F1e-06
sS'NOUN'
p341
F0.999999
s(lp342
(S'measures'
p343
I46
tp344
atp345
a(S'propos\xc3\xa9es'
p346
(dp347
S'VERB'
p348
F1.0
s(lp349
(S'proposed'
p350
I45
tp351
atp352
a(S'en'
p353
(dp354
S'PRON'
p355
F2e-06
sS'ADP'
p356
F0.999998
s(lp357
tp358
a(S'toute'
p359
(dp360
S'ADV'
p361
F2.2e-05
sS'PRON'
p362
F0.999978
s(lp363
tp364
a(S'flexibilit\xc3\xa9'
p365
(dp366
S'NOUN'
p367
F1.0
s(lp368
(S'flexibly'
p369
I47
tp370
atp371
a(g71
(dp372
g71
F1.0
s(lp373
(g71
I48
tp374
atp375
asS'en'
p376
(lp377
(g7
(dp378
S'ADV'
p379
F0.022685
sS'ADP'
p380
F0.977315
s(lp381
(g7
I0
tp382
atp383
a(g14
(dp384
S'PRON'
p385
F1.0
s(lp386
(g14
I1
tp387
atp388
a(S'are'
p389
(dp390
S'VERB'
p391
F1.0
sS'NOUN'
p392
F0.0
s(lp393
(g389
I2
tp394
atp395
a(g21
(dp396
S'VERB'
p397
F1.0
s(lp398
(g21
I3
tp399
atp400
a(g59
(dp401
S'NOUN'
p402
F0.006683
sS'DET'
p403
F0.993317
s(lp404
(g59
I4
tp405
atp406
a(g73
(dp407
S'PRT'
p408
F0.013139
sg71
F0.986861
s(lp409
(g73
I5
tp410
atp411
a(g80
(dp412
S'ADJ'
p413
F1.0
s(lp414
(g80
I6
tp415
atp416
a(g73
(dp417
S'PRT'
p418
F0.010376
sg71
F0.989624
s(lp419
(g73
I7
tp420
atp421
a(g66
(dp422
S'VERB'
p423
F0.014884000000000001
sS'NOUN'
p424
F0.985116
s(lp425
(g66
I8
tp426
atp427
a(g29
(dp428
S'ADV'
p429
F0.042144
sS'ADP'
p430
F0.957856
s(lp431
(g29
I9
tp432
atp433
a(g43
(dp434
S'ADV'
p435
F0.000244
sS'DET'
p436
F0.012286
sS'ADJ'
p437
F0.98746
sS'ADP'
p438
F9e-06
s(lp439
(g43
I10
tp440
atp441
a(g87
(dp442
g71
F1.0
s(lp443
(g87
I11
tp444
atp445
a(g103
(dp446
S'VERB'
p447
F0.095876
sS'NOUN'
p448
F0.904124
s(lp449
(g103
I12
tp450
atp451
a(g110
(dp452
S'VERB'
p453
F0.624749
sS'NOUN'
p454
F0.375251
s(lp455
(g110
I13
tp456
atp457
a(g119
(dp458
S'ADV'
p459
F0.000202
sS'DET'
p460
F0.102132
sS'ADP'
p461
F0.897666
s(lp462
(g119
I14
tp463
atp464
a(g126
(dp465
S'PRON'
p466
F1.0
s(lp467
(g126
I15
tp468
atp469
a(g134
(dp470
S'VERB'
p471
F1.0
s(lp472
(g134
I16
tp473
atp474
a(S'not'
p475
(dp476
S'ADV'
p477
F1.0
s(lp478
(g475
I17
tp479
atp480
a(g142
(dp481
S'ADV'
p482
F0.251854
sS'ADP'
p483
F0.748146
s(lp484
(g142
I18
tp485
atp486
a(g149
(dp487
S'ADJ'
p488
F1.0
s(lp489
(g149
I19
tp490
atp491
a(g156
(dp492
S'ADV'
p493
F0.0
sS'PRT'
p494
F1.0
sS'ADP'
p495
F0.0
s(lp496
(g156
I20
tp497
atp498
a(g163
(dp499
S'VERB'
p500
F0.999921
sS'NOUN'
p501
F7.9e-05
s(lp502
(g163
I21
tp503
atp504
a(g176
(dp505
S'ADV'
p506
F4e-06
sS'DET'
p507
F0.000734
sS'ADJ'
p508
F0.999236
sS'ADP'
p509
F2.5e-05
s(lp510
(g176
I22
tp511
atp512
a(g183
(dp513
S'VERB'
p514
F5.8e-05
sS'NOUN'
p515
F0.999942
s(lp516
(g183
I23
tp517
atp518
a(g192
(dp519
S'ADV'
p520
F0.044127
sS'ADP'
p521
F0.955873
s(lp522
(g192
I24
tp523
atp524
a(S'it'
p525
(dp526
S'PRON'
p527
F1.0
s(lp528
(g525
I25
tp529
atp530
a(S'is'
p531
(dp532
S'VERB'
p533
F1.0
s(lp534
(g531
I26
tp535
atp536
a(g199
(dp537
S'ADV'
p538
F0.0
sS'PRT'
p539
F1.0
sS'ADP'
p540
F0.0
s(lp541
(g199
I27
tp542
atp543
a(g215
(dp544
S'VERB'
p545
F1.0
s(lp546
(g215
I28
tp547
atp548
a(g208
(dp549
S'PRON'
p550
F1.0
s(lp551
(g208
I29
tp552
atp553
a(g223
(dp554
S'ADV'
p555
F1.0
s(lp556
(g223
I30
tp557
atp558
a(g242
(dp559
S'ADV'
p560
F0.001591
sS'PRT'
p561
F7e-06
sS'ADP'
p562
F0.998402
s(lp563
(g242
I31
tp564
atp565
a(g250
(dp566
S'NOUN'
p567
F1e-06
sS'DET'
p568
F0.999999
s(lp569
(g250
I32
tp570
atp571
a(g265
(dp572
S'NOUN'
p573
F0.084015
sS'ADJ'
p574
F0.915985
s(lp575
(g265
I33
tp576
atp577
a(g257
(dp578
S'NOUN'
p579
F1.0
s(lp580
(g257
I34
tp581
atp582
a(g87
(dp583
g71
F1.0
s(lp584
(g87
I35
tp585
atp586
a(g276
(dp587
S'CONJ'
p588
F0.999888
sS'NOUN'
p589
F0.000112
s(lp590
(g276
I36
tp591
atp592
a(g283
(dp593
S'ADV'
p594
F3e-06
sS'PRT'
p595
F0.999995
sS'ADP'
p596
F2e-06
s(lp597
(g283
I37
tp598
atp599
a(g290
(dp600
S'VERB'
p601
F0.983873
sS'NOUN'
p602
F0.016128
s(lp603
(g290
I38
tp604
atp605
a(g297
(dp606
S'CONJ'
p607
F0.999996
sS'NOUN'
p608
F4e-06
s(lp609
(g297
I39
tp610
atp611
a(g311
(dp612
S'VERB'
p613
F1.0
s(lp614
(g311
I40
tp615
atp616
a(g320
(dp617
S'NOUN'
p618
F5e-06
sS'DET'
p619
F0.999995
s(lp620
(g320
I41
tp621
atp622
a(g327
(dp623
S'VERB'
p624
F0.000516
sS'NOUN'
p625
F0.9994839999999999
s(lp626
(g327
I42
tp627
atp628
a(g335
(dp629
S'ADP'
p630
F1.0
s(lp631
(g335
I43
tp632
atp633
a(S'the'
p634
(dp635
S'NOUN'
p636
F5e-06
sS'DET'
p637
F0.999995
s(lp638
(g634
I44
tp639
atp640
a(g350
(dp641
S'VERB'
p642
F0.92466
sS'ADJ'
p643
F0.07534
s(lp644
(g350
I45
tp645
atp646
a(g343
(dp647
S'VERB'
p648
F0.000714
sS'NOUN'
p649
F0.9992859999999999
s(lp650
(g343
I46
tp651
atp652
a(g369
(dp653
S'ADV'
p654
F1.0
s(lp655
(g369
I47
tp656
atp657
a(g71
(dp658
g71
F1.0
s(lp659
(g71
I48
tp660
atp661
asS'nl'
p662
(lp663
(S'en'
p664
(dp665
S'CONJ'
p666
F1.0
s(lp667
(g7
I0
tp668
atp669
a(S'als'
p670
(dp671
S'CONJ'
p672
F1.0
s(lp673
(g192
I24
tp674
atp675
a(S'we'
p676
(dp677
S'PRON'
p678
F1.0
s(lp679
(g14
I1
tp680
atp681
a(S'het'
p682
(dp683
S'PRON'
p684
F0.6641659999999999
sS'DET'
p685
F0.335834
s(lp686
tp687
a(S'dan'
p688
(dp689
S'ADV'
p690
F0.961046
sS'CONJ'
p691
F0.038954
s(lp692
(g14
I1
tp693
atp694
a(S'al'
p695
(dp696
S'ADV'
p697
F0.921731
sS'PRON'
p698
F0.020298
sS'CONJ'
p699
F0.057971
s(lp700
(g389
I2
tp701
atp702
a(S'over'
p703
(dp704
S'ADV'
p705
F0.8517
sS'ADP'
p706
F0.1483
s(lp707
(g21
I3
tp708
atp709
a(g69
(dp710
g71
F1.0
s(lp711
(g73
I5
tp712
atp713
a(S'strategische'
p714
(dp715
S'NOUN'
p716
F0.280923
sS'ADJ'
p717
F0.719077
s(lp718
(g80
I6
tp719
atp720
a(g69
(dp721
g71
F1.0
s(lp722
(g73
I7
tp723
atp724
a(S'documenten'
p725
(dp726
S'NOUN'
p727
F1.0
s(lp728
(g66
I8
tp729
atp730
a(S'als'
p731
(dp732
S'CONJ'
p733
F1.0
s(lp734
(g29
I9
tp735
atp736
a(S'zodanig'
p737
(dp738
S'ADV'
p739
F0.998455
sS'ADJ'
p740
F0.001545
s(lp741
(g43
I10
tp742
atp743
a(S'hebben'
p744
(dp745
S'VERB'
p746
F0.999995
sS'NOUN'
p747
F5e-06
s(lp748
tp749
a(g87
(dp750
g71
F1.0
s(lp751
(g87
I11
tp752
atp753
a(S'wil'
p754
(dp755
S'VERB'
p756
F0.999469
sS'NOUN'
p757
F0.000531
s(lp758
(g156
I20
tp759
atp760
a(S'ik'
p761
(dp762
S'PRON'
p763
F0.999999
sS'NOUN'
p764
F1e-06
s(lp765
(g103
I12
tp766
atp767
a(S'nog'
p768
(dp769
S'ADV'
p770
F1.0
s(lp771
tp772
a(S'kwijt'
p773
(dp774
S'VERB'
p775
F0.477961
sS'ADJ'
p776
F0.522039
s(lp777
tp778
a(S'dat'
p779
(dp780
S'PRON'
p781
F0.010479
sS'CONJ'
p782
F0.989521
s(lp783
(g119
I14
tp784
atp785
a(S'het'
p786
(dp787
S'PRON'
p788
F0.536835
sS'DET'
p789
F0.463165
s(lp790
(g126
I15
tp791
atp792
a(g87
(dp793
g71
F1.0
s(lp794
tp795
a(S'zoals'
p796
(dp797
S'CONJ'
p798
F1.0
s(lp799
(g43
I10
tp800
atp801
a(S'de'
p802
(dp803
S'DET'
p804
F1.0
s(lp805
tp806
a(S'praktijk'
p807
(dp808
S'NOUN'
p809
F1.0
s(lp810
(g103
I12
tp811
atp812
a(S'uitwijst'
p813
(dp814
S'VERB'
p815
F1.0
s(lp816
(g110
I13
tp817
atp818
a(g87
(dp819
g71
F1.0
s(lp820
tp821
a(S'geen'
p822
(dp823
S'PRON'
p824
F0.999977
sS'DET'
p825
F2.3e-05
s(lp826
(g475
I17
tp827
atp828
a(S'enkel'
p829
(dp830
S'ADV'
p831
F0.030104
sS'PRON'
p832
F0.003262
sS'ADJ'
p833
F0.966573
sS'NOUN'
p834
F6.2e-05
s(lp835
(g183
I23
tp836
atp837
a(S'probleem'
p838
(dp839
S'NOUN'
p840
F1.0
s(lp841
(g149
I19
tp842
atp843
a(S'is'
p844
(dp845
S'VERB'
p846
F1.0
s(lp847
(g134
I16
tp848
atp849
a(S'om'
p850
(dp851
S'ADV'
p852
F0.003977
sS'CONJ'
p853
F0.822518
sS'ADP'
p854
F0.173506
s(lp855
(g156
I20
tp856
atp857
a(S'een'
p858
(dp859
S'ADJ'
p860
F1e-06
sS'PRON'
p861
F0.0006
sS'NUM'
p862
F1e-06
sS'DET'
p863
F0.999398
s(lp864
tp865
a(S'dergelijk'
p866
(dp867
S'ADJ'
p868
F1.0
s(lp869
(g176
I22
tp870
atp871
a(S'stuk'
p872
(dp873
S'ADJ'
p874
F0.006132
sS'NOUN'
p875
F0.993868
s(lp876
(g149
I19
tp877
atp878
a(S'te'
p879
(dp880
S'PRT'
p881
F1.0
s(lp882
(g156
I20
tp883
atp884
a(S'schrijven'
p885
(dp886
S'VERB'
p887
F0.9999950000000001
sS'NOUN'
p888
F5e-06
s(lp889
(g163
I21
tp890
atp891
a(g87
(dp892
g71
F1.0
s(lp893
tp894
a(S'maar'
p895
(dp896
S'ADV'
p897
F0.046298
sS'CONJ'
p898
F0.953699
sS'NOUN'
p899
F3e-06
s(lp900
(g525
I25
tp901
atp902
a(S'des'
p903
(dp904
S'NOUN'
p905
F0.259252
sS'DET'
p906
F0.740748
s(lp907
tp908
a(S'te'
p909
(dp910
S'PRT'
p911
F1.0
s(lp912
tp913
a(S'moeilijker'
p914
(dp915
S'ADJ'
p916
F1.0
s(lp917
(g149
I19
tp918
atp919
a(S'om'
p920
(dp921
S'ADV'
p922
F0.000135
sS'CONJ'
p923
F0.907233
sS'ADP'
p924
F0.092633
s(lp925
(g156
I20
tp926
atp927
a(S'deze'
p928
(dp929
S'PRON'
p930
F1.0
s(lp931
(g208
I29
tp932
atp933
a(S'verder'
p934
(dp935
S'ADV'
p936
F0.022126
sS'ADJ'
p937
F0.977874
s(lp938
(g223
I30
tp939
atp940
a(S'uit'
p941
(dp942
S'ADV'
p943
F0.999325
sS'VERB'
p944
F0.000357
sS'ADP'
p945
F0.000318
s(lp946
tp947
a(S'te'
p948
(dp949
S'PRT'
p950
F1.0
s(lp951
(g199
I27
tp952
atp953
a(S'werken'
p954
(dp955
S'VERB'
p956
F0.998362
sS'NOUN'
p957
F0.001638
s(lp958
(g215
I28
tp959
atp960
a(S'in'
p961
(dp962
S'ADV'
p963
F0.000478
sS'VERB'
p964
F0.0
sS'ADP'
p965
F0.999522
s(lp966
(g242
I31
tp967
atp968
a(S'de'
p969
(dp970
S'DET'
p971
F1.0
s(lp972
(g250
I32
tp973
atp974
a(S'verschillende'
p975
(dp976
S'PRON'
p977
F4e-06
sS'VERB'
p978
F7.9e-05
sS'ADJ'
p979
F0.999917
sS'NOUN'
p980
F0.0
s(lp981
(g265
I33
tp982
atp983
a(S'deelonderwerpen'
p984
(dp985
S'NOUN'
p986
F1.0
s(lp987
(g257
I34
tp988
atp989
a(S'en'
p990
(dp991
S'CONJ'
p992
F1.0
s(lp993
(g276
I36
tp994
atp995
a(S'de'
p996
(dp997
S'DET'
p998
F1.0
s(lp999
(g320
I41
tp1000
atp1001
a(S'effecten'
p1002
(dp1003
S'NOUN'
p1004
F1.0
s(lp1005
(g327
I42
tp1006
atp1007
a(S'van'
p1008
(dp1009
S'ADP'
p1010
F1.0
s(lp1011
(g335
I43
tp1012
atp1013
a(S'de'
p1014
(dp1015
S'DET'
p1016
F1.0
s(lp1017
(g634
I44
tp1018
atp1019
a(S'voorgestelde'
p1020
(dp1021
S'VERB'
p1022
F0.999678
sS'NOUN'
p1023
F0.000322
s(lp1024
(g350
I45
tp1025
atp1026
a(S'maatregelen'
p1027
(dp1028
S'NOUN'
p1029
F1.0
s(lp1030
(g343
I46
tp1031
atp1032
a(S'flexibel'
p1033
(dp1034
S'ADJ'
p1035
F1.0
s(lp1036
(g369
I47
tp1037
atp1038
a(S'te'
p1039
(dp1040
S'PRT'
p1041
F1.0
s(lp1042
tp1043
a(S'monitoren'
p1044
(dp1045
S'NOUN'
p1046
F1.0
s(lp1047
(g290
I38
tp1048
atp1049
a(S'en'
p1050
(dp1051
S'CONJ'
p1052
F1.0
s(lp1053
(g297
I39
tp1054
atp1055
a(S'te'
p1056
(dp1057
S'PRT'
p1058
F1.0
s(lp1059
(g283
I37
tp1060
atp1061
a(S'beoordelen'
p1062
(dp1063
S'VERB'
p1064
F0.999999
sS'NOUN'
p1065
F1e-06
s(lp1066
(g311
I40
tp1067
atp1068
a(g71
(dp1069
g71
F1.0
s(lp1070
(g71
I48
tp1071
atp1072
asS'de'
p1073
(lp1074
(S'seit'
p1075
(dp1076
S'CONJ'
p1077
F0.670127
sS'ADP'
p1078
F0.329873
s(lp1079
(g7
I0
tp1080
atp1081
a(S'wir'
p1082
(dp1083
S'PRON'
p1084
F1.0
s(lp1085
(g14
I1
tp1086
atp1087
a(g69
(dp1088
g71
F1.0
s(lp1089
(g73
I5
tp1090
atp1091
a(S'strategische'
p1092
(dp1093
S'ADJ'
p1094
F1.0
s(lp1095
(g80
I6
tp1096
atp1097
a(g69
(dp1098
g71
F1.0
s(lp1099
(g73
I7
tp1100
atp1101
a(S'dokumente'
p1102
(dp1103
S'NOUN'
p1104
F0.222252
sS'ADJ'
p1105
F0.693324
s(lp1106
(g66
I8
tp1107
atp1108
a(S'wie'
p1109
(dp1110
S'CONJ'
p1111
F0.999999
s(lp1112
(g192
I24
tp1113
atp1114
a(S'das'
p1115
(dp1116
S'PRON'
p1117
F0.079313
sS'DET'
p1118
F0.920666
s(lp1119
(g525
I25
tp1120
atp1121
a(S'vorliegende'
p1122
(dp1123
S'ADJ'
p1124
F1.0
s(lp1125
tp1126
a(S'diskutieren'
p1127
(dp1128
S'VERB'
p1129
F1.0
s(lp1130
(g21
I3
tp1131
atp1132
a(g87
(dp1133
g71
F1.0
s(lp1134
(g87
I11
tp1135
atp1136
a(S'zeigt'
p1137
(dp1138
S'VERB'
p1139
F1.0
s(lp1140
(g110
I13
tp1141
atp1142
a(S'die'
p1143
(dp1144
S'PRON'
p1145
F0.000674
sS'DET'
p1146
F0.999325
s(lp1147
tp1148
a(S'erfahrung'
p1149
(dp1150
S'ADJ'
p1151
F0.001275
sS'NOUN'
p1152
F0.998443
s(lp1153
(g103
I12
tp1154
atp1155
a(g87
(dp1156
g71
F1.0
s(lp1157
tp1158
a(S'dass'
p1159
(dp1160
S'CONJ'
p1161
F1.0
s(lp1162
(g119
I14
tp1163
atp1164
a(S'es'
p1165
(dp1166
S'PRON'
p1167
F1.0
s(lp1168
(g126
I15
tp1169
atp1170
a(S'nicht'
p1171
(dp1172
S'PRT'
p1173
F1.0
s(lp1174
(g475
I17
tp1175
atp1176
a(S'so'
p1177
(dp1178
S'ADV'
p1179
F0.999995
sS'PRON'
p1180
F5e-06
s(lp1181
(g142
I18
tp1182
atp1183
a(S'schwer'
p1184
(dp1185
S'PRT'
p1186
F0.001402
sS'ADJ'
p1187
F0.998598
s(lp1188
tp1189
a(S'ist'
p1190
(dp1191
S'VERB'
p1192
F1.0
s(lp1193
(g134
I16
tp1194
atp1195
a(g87
(dp1196
g71
F1.0
s(lp1197
(g156
I20
tp1198
atp1199
a(S'solche'
p1200
(dp1201
S'PRON'
p1202
F1.0
s(lp1203
(g176
I22
tp1204
atp1205
a(S'dokumente'
p1206
(dp1207
S'ADJ'
p1208
F0.053097
sS'NOUN'
p1209
F0.942011
s(lp1210
(g183
I23
tp1211
atp1212
a(S'zu'
p1213
(dp1214
S'PRT'
p1215
F0.9999750000000001
s(lp1216
tp1217
a(S'erstellen'
p1218
(dp1219
S'VERB'
p1220
F1.0
s(lp1221
(g163
I21
tp1222
atp1223
a(g87
(dp1224
g71
F1.0
s(lp1225
(g156
I20
tp1226
atp1227
a(S'sondern'
p1228
(dp1229
S'CONJ'
p1230
F0.997751
sS'VERB'
p1231
F0.002249
s(lp1232
(g531
I26
tp1233
atp1234
a(S'schwerer'
p1235
(dp1236
S'ADJ'
p1237
F1.0
s(lp1238
(g149
I19
tp1239
atp1240
a(g87
(dp1241
g71
F1.0
s(lp1242
(g199
I27
tp1243
atp1244
a(S'sie'
p1245
(dp1246
S'PRON'
p1247
F1.0
s(lp1248
(g208
I29
tp1249
atp1250
a(S'in'
p1251
(dp1252
S'ADP'
p1253
F1.0
s(lp1254
(g242
I31
tp1255
atp1256
a(S'der'
p1257
(dp1258
S'PRON'
p1259
F0.239488
sS'DET'
p1260
F0.757323
s(lp1261
(g250
I32
tp1262
atp1263
a(S'folge'
p1264
(dp1265
S'VERB'
p1266
F1.0
s(lp1267
(g223
I30
tp1268
atp1269
a(S'in'
p1270
(dp1271
S'ADP'
p1272
F1.0
s(lp1273
(g257
I34
tp1274
atp1275
a(S'einzelbereichen'
p1276
(dp1277
S'ADJ'
p1278
F0.027322
sS'NOUN'
p1279
F0.972678
s(lp1280
(g265
I33
tp1281
atp1282
a(S'weiterzuentwickeln'
p1283
(dp1284
S'VERB'
p1285
F1.0
s(lp1286
(g215
I28
tp1287
atp1288
a(S'und'
p1289
(dp1290
S'CONJ'
p1291
F1.0
s(lp1292
(g276
I36
tp1293
atp1294
a(S'die'
p1295
(dp1296
S'PRON'
p1297
F0.04733
sS'DET'
p1298
F0.948087
s(lp1299
(g320
I41
tp1300
atp1301
a(S'auswirkungen'
p1302
(dp1303
S'VERB'
p1304
F0.047144
sS'NOUN'
p1305
F0.952855
s(lp1306
(g327
I42
tp1307
atp1308
a(S'der'
p1309
(dp1310
S'PRON'
p1311
F0.000121
sS'DET'
p1312
F0.999871
s(lp1313
(g634
I44
tp1314
atp1315
a(S'vorgeschlagenen'
p1316
(dp1317
S'ADJ'
p1318
F1.0
s(lp1319
(g350
I45
tp1320
atp1321
a(S'ma\xc3\x9fnahmen'
p1322
(dp1323
S'VERB'
p1324
F1.0
s(lp1325
(g343
I46
tp1326
atp1327
a(S'mit'
p1328
(dp1329
S'PRT'
p1330
F0.001627
sS'ADP'
p1331
F0.998373
s(lp1332
tp1333
a(S'flexibilit\xc3\xa4t'
p1334
(dp1335
S'ADJ'
p1336
F0.071753
sS'NOUN'
p1337
F0.925672
s(lp1338
(g369
I47
tp1339
atp1340
a(S'zu'
p1341
(dp1342
S'PRT'
p1343
F0.999973
s(lp1344
tp1345
a(S'\xc3\xbcberwachen'
p1346
(dp1347
S'VERB'
p1348
F1.0
s(lp1349
(g290
I38
tp1350
atp1351
a(S'und'
p1352
(dp1353
S'CONJ'
p1354
F1.0
s(lp1355
(g297
I39
tp1356
atp1357
a(S'zu'
p1358
(dp1359
S'ADV'
p1360
F0.000636
sS'PRT'
p1361
F0.999271
s(lp1362
(g283
I37
tp1363
atp1364
a(S'bewerten'
p1365
(dp1366
S'VERB'
p1367
F1.0
s(lp1368
(g311
I40
tp1369
atp1370
a(g71
(dp1371
g71
F1.0
s(lp1372
(g71
I48
tp1373
atp1374
asS'it'
p1375
(lp1376
(S'dato'
p1377
(dp1378
S'ADJ'
p1379
F0.005201
sS'CONJ'
p1380
F0.130266
sS'VERB'
p1381
F0.7297220000000001
sS'NOUN'
p1382
F0.134811
s(lp1383
(g7
I0
tp1384
atp1385
a(S'che'
p1386
(dp1387
S'PRON'
p1388
F0.970895
sS'CONJ'
p1389
F0.028774
sS'ADJ'
p1390
F0.000331
s(lp1391
(g14
I1
tp1392
atp1393
a(S'stiamo'
p1394
(dp1395
S'VERB'
p1396
F1.0
s(lp1397
(g389
I2
tp1398
atp1399
a(S'discutendo'
p1400
(dp1401
S'VERB'
p1402
F1.0
s(lp1403
(g21
I3
tp1404
atp1405
a(S'un'
p1406
(dp1407
S'PRON'
p1408
F0.000815
sS'DEF'
p1409
F0.999185
s(lp1410
(g59
I4
tp1411
atp1412
a(S'documento'
p1413
(dp1414
S'VERB'
p1415
F3e-06
sS'NOUN'
p1416
F0.999997
s(lp1417
(g66
I8
tp1418
atp1419
a(g69
(dp1420
g71
F1.0
s(lp1421
(g73
I7
tp1422
atp1423
a(S'strategico'
p1424
(dp1425
S'ADJ'
p1426
F1.0
s(lp1427
(g80
I6
tp1428
atp1429
a(S'\xe2\x80\x9d'
p1430
(dp1431
S'ADJ'
p1432
F0.000316
sS'NOUN'
p1433
F0.999684
s(lp1434
(g73
I5
tp1435
atp1436
a(S'di'
p1437
(dp1438
S'CONJ'
p1439
F2.3e-05
sS'ADP'
p1440
F0.999977
s(lp1441
tp1442
a(S'questo'
p1443
(dp1444
S'PRON'
p1445
F1.0
s(lp1446
tp1447
a(S'genere'
p1448
(dp1449
S'NOUN'
p1450
F1.0
s(lp1451
(g43
I10
tp1452
atp1453
a(g87
(dp1454
g71
F1.0
s(lp1455
(g87
I11
tp1456
atp1457
a(S"l'"
p1458
(dp1459
S'NOUN'
p1460
F0.003774
sS'VERB'
p1461
F0.984512
sS'ADJ'
p1462
F0.011715
s(lp1463
tp1464
a(S'esperienza'
p1465
(dp1466
S'NOUN'
p1467
F1.0
s(lp1468
(g103
I12
tp1469
atp1470
a(S'dimostra'
p1471
(dp1472
S'VERB'
p1473
F1.0
s(lp1474
(g110
I13
tp1475
atp1476
a(S'che'
p1477
(dp1478
S'PRON'
p1479
F0.969623
sS'CONJ'
p1480
F0.030234
sS'ADJ'
p1481
F0.000142
s(lp1482
(g119
I14
tp1483
atp1484
a(S'produrli'
p1485
(dp1486
S'VERB'
p1487
F1.0
s(lp1488
(g163
I21
tp1489
atp1490
a(S'non'
p1491
(dp1492
S'ADV'
p1493
F1.0
s(lp1494
(g475
I17
tp1495
atp1496
a(S'\xc3\xa8'
p1497
(dp1498
S'VERB'
p1499
F1.0
s(lp1500
(g134
I16
tp1501
atp1502
a(S'difficile'
p1503
(dp1504
S'ADJ'
p1505
F1.0
s(lp1506
(g149
I19
tp1507
atp1508
a(S'quanto'
p1509
(dp1510
S'ADV'
p1511
F0.948617
sS'PRON'
p1512
F0.050462
sS'ADJ'
p1513
F0.000624
sS'NOUN'
p1514
F0.000298
s(lp1515
(g192
I24
tp1516
atp1517
a(S'articolarli'
p1518
(dp1519
S'VERB'
p1520
F1.0
s(lp1521
(g215
I28
tp1522
atp1523
a(S'successivamente'
p1524
(dp1525
S'ADV'
p1526
F1.0
s(lp1527
(g223
I30
tp1528
atp1529
a(S'nei'
p1530
(dp1531
S'NOUN'
p1532
F0.002438
sS'ADP'
p1533
F0.997562
s(lp1534
(g242
I31
tp1535
atp1536
a(S'singoli'
p1537
(dp1538
S'NOUN'
p1539
F0.355329
sS'ADJ'
p1540
F0.644671
s(lp1541
(g265
I33
tp1542
atp1543
a(S'ambiti'
p1544
(dp1545
S'NOUN'
p1546
F0.370145
sS'VERB'
p1547
F0.158621
sS'ADJ'
p1548
F0.471233
s(lp1549
(g257
I34
tp1550
atp1551
a(g87
(dp1552
g71
F1.0
s(lp1553
(g87
I35
tp1554
atp1555
a(S'oltre'
p1556
(dp1557
S'ADV'
p1558
F0.707027
sS'CONJ'
p1559
F0.290772
sS'ADP'
p1560
F0.002201
s(lp1561
(g276
I36
tp1562
atp1563
a(g59
(dp1564
S'CONJ'
p1565
F0.000227
sS'ADP'
p1566
F0.999773
s(lp1567
(g283
I37
tp1568
atp1569
a(S'seguire'
p1570
(dp1571
S'VERB'
p1572
F1.0
s(lp1573
(g290
I38
tp1574
atp1575
a(S'e'
p1576
(dp1577
S'CONJ'
p1578
F1.0
s(lp1579
(g297
I39
tp1580
atp1581
a(S'valutare'
p1582
(dp1583
S'VERB'
p1584
F1.0
s(lp1585
(g311
I40
tp1586
atp1587
a(S'in'
p1588
(dp1589
S'ADP'
p1590
F1.0
s(lp1591
(g369
I47
tp1592
atp1593
a(S'modo'
p1594
(dp1595
S'NOUN'
p1596
F1.0
s(lp1597
tp1598
a(S'flessibile'
p1599
(dp1600
S'ADJ'
p1601
F1.0
s(lp1602
(g369
I47
tp1603
atp1604
a(S'gli'
p1605
(dp1606
S'PRON'
p1607
F4.1e-05
sS'DET'
p1608
F0.999959
s(lp1609
tp1610
a(S'effetti'
p1611
(dp1612
S'NOUN'
p1613
F1.0
s(lp1614
(g327
I42
tp1615
atp1616
a(S'delle'
p1617
(dp1618
S'DEF'
p1619
F0.001048
sS'ADP'
p1620
F0.998952
s(lp1621
(g335
I43
tp1622
atp1623
a(S'misure'
p1624
(dp1625
S'NOUN'
p1626
F1.0
s(lp1627
(g343
I46
tp1628
atp1629
a(S'proposte'
p1630
(dp1631
S'VERB'
p1632
F0.514556
sS'NOUN'
p1633
F0.485444
s(lp1634
(g350
I45
tp1635
atp1636
a(g71
(dp1637
g71
F1.0
s(lp1638
(g71
I48
tp1639
atp1640
asS'sk'
p1641
(lp1642
(S'ke\xc4\x8f\xc5\xbee'
p1643
(dp1644
S'CONJ'
p1645
F1.0
s(lp1646
(g7
I0
tp1647
atp1648
a(S'diskutujeme'
p1649
(dp1650
S'VERB'
p1651
F1.0
s(lp1652
tp1653
a(S'o'
p1654
(dp1655
S'X'
p1656
F0.0036230000000000004
sS'CONJ'
p1657
F1.8e-05
sS'NOUN'
p1658
F3.1e-05
sS'ADP'
p1659
F0.996329
s(lp1660
(g21
I3
tp1661
atp1662
a(g69
(dp1663
g71
F1.0
s(lp1664
(g73
I5
tp1665
atp1666
a(S'strategickom'
p1667
(dp1668
S'ADJ'
p1669
F1.0
s(lp1670
(g80
I6
tp1671
atp1672
a(g69
(dp1673
g71
F1.0
s(lp1674
(g73
I7
tp1675
atp1676
a(S'dokumente'
p1677
(dp1678
S'NOUN'
p1679
F1.0
s(lp1680
(g66
I8
tp1681
atp1682
a(S'ako'
p1683
(dp1684
S'PRON'
p1685
F0.007654
sS'CONJ'
p1686
F0.992169
sg1656
F0.000177
s(lp1687
(g29
I9
tp1688
atp1689
a(S'takom'
p1690
(dp1691
S'PRON'
p1692
F1.0
s(lp1693
(g43
I10
tp1694
atp1695
a(g87
(dp1696
g71
F1.0
s(lp1697
(g87
I11
tp1698
atp1699
a(S'sk\xc3\xbasenosti'
p1700
(dp1701
S'NOUN'
p1702
F1.0
s(lp1703
(g103
I12
tp1704
atp1705
a(S'ukazuj\xc3\xba'
p1706
(dp1707
S'VERB'
p1708
F1.0
s(lp1709
(g110
I13
tp1710
atp1711
a(g87
(dp1712
g71
F1.0
s(lp1713
tp1714
a(S'\xc5\xbee'
p1715
(dp1716
g1656
F0.001222
sS'CONJ'
p1717
F0.998778
s(lp1718
(g119
I14
tp1719
atp1720
a(S'\xc5\xa5a\xc5\xbe\xc5\xa1ie'
p1721
(dp1722
S'ADV'
p1723
F0.831108
sS'ADJ'
p1724
F0.168892
s(lp1725
(g149
I19
tp1726
atp1727
a(S'ako'
p1728
(dp1729
S'PRON'
p1730
F0.024005
sS'CONJ'
p1731
F0.975884
sg1656
F0.00011
s(lp1732
(g142
I18
tp1733
atp1734
a(S'vypracova\xc5\xa5'
p1735
(dp1736
S'VERB'
p1737
F1.0
s(lp1738
(g163
I21
tp1739
atp1740
a(S'tak\xc3\xa9to'
p1741
(dp1742
S'PRON'
p1743
F1.0
s(lp1744
(g176
I22
tp1745
atp1746
a(S'dokumenty'
p1747
(dp1748
S'NOUN'
p1749
F1.0
s(lp1750
(g183
I23
tp1751
atp1752
a(S'je'
p1753
(dp1754
g1656
F8.9e-05
sS'VERB'
p1755
F0.999864
sS'PRON'
p1756
F4.8e-05
s(lp1757
(g531
I26
tp1758
atp1759
a(S'n\xc3\xa1sledne'
p1760
(dp1761
S'ADV'
p1762
F1.0
s(lp1763
(g223
I30
tp1764
atp1765
a(S'ich'
p1766
(dp1767
S'PRON'
p1768
F1.0
s(lp1769
(g208
I29
tp1770
atp1771
a(S'vytvori\xc5\xa5'
p1772
(dp1773
S'VERB'
p1774
F1.0
s(lp1775
(g215
I28
tp1776
atp1777
a(S'pre'
p1778
(dp1779
g1656
F4.6e-05
sS'ADP'
p1780
F0.999954
s(lp1781
(g250
I32
tp1782
atp1783
a(S'jednotliv\xc3\xa9'
p1784
(dp1785
S'ADJ'
p1786
F1.0
s(lp1787
(g265
I33
tp1788
atp1789
a(S'oblasti'
p1790
(dp1791
S'NOUN'
p1792
F1.0
s(lp1793
(g257
I34
tp1794
atp1795
a(g59
(dp1796
g1656
F0.0006270000000000001
sS'CONJ'
p1797
F0.999234
sS'NOUN'
p1798
F1.3e-05
sS'ADP'
p1799
F1.5e-05
sS'PRT'
p1800
F0.000111
s(lp1801
(g276
I36
tp1802
atp1803
a(S'pru\xc5\xbene'
p1804
(dp1805
S'ADV'
p1806
F1.0
s(lp1807
(g369
I47
tp1808
atp1809
a(S'monitorova\xc5\xa5'
p1810
(dp1811
S'VERB'
p1812
F1.0
s(lp1813
(g290
I38
tp1814
atp1815
a(g59
(dp1816
g1656
F0.005982
sS'CONJ'
p1817
F0.993146
sS'NOUN'
p1818
F0.000238
sS'ADP'
p1819
F0.0
sS'PRT'
p1820
F0.000633
s(lp1821
(g297
I39
tp1822
atp1823
a(S'hodnoti\xc5\xa5'
p1824
(dp1825
S'VERB'
p1826
F1.0
s(lp1827
(g311
I40
tp1828
atp1829
a(S'\xc3\xba\xc4\x8dinky'
p1830
(dp1831
S'NOUN'
p1832
F1.0
s(lp1833
(g327
I42
tp1834
atp1835
a(S'navrhovan\xc3\xbdch'
p1836
(dp1837
S'VERB'
p1838
F1.0
s(lp1839
(g350
I45
tp1840
atp1841
a(S'opatren\xc3\xad'
p1842
(dp1843
S'NOUN'
p1844
F1.0
s(lp1845
(g343
I46
tp1846
atp1847
a(g71
(dp1848
g71
F1.0
s(lp1849
(g71
I48
tp1850
atp1851
asS'pl'
p1852
(lp1853
(S'poniewa\xc5\xbc'
p1854
(dp1855
S'CONJ'
p1856
F1.0
s(lp1857
(g7
I0
tp1858
atp1859
a(S'debatujemy'
p1860
(dp1861
S'ADV'
p1862
F0.003026
sS'ADJ'
p1863
F0.006152999999999999
sS'VERB'
p1864
F0.9458359999999999
sS'NOUN'
p1865
F0.04498099999999999
s(lp1866
tp1867
a(S'nad'
p1868
(dp1869
S'ADP'
p1870
F1.0
s(lp1871
(g21
I3
tp1872
atp1873
a(S'dokumentem'
p1874
(dp1875
S'NOUN'
p1876
F1.0
s(lp1877
(g66
I8
tp1878
atp1879
a(g69
(dp1880
g71
F1.0
s(lp1881
(g73
I5
tp1882
atp1883
a(S'strategicznym'
p1884
(dp1885
S'ADJ'
p1886
F0.9999990000000001
s(lp1887
(g80
I6
tp1888
atp1889
a(S'\xe2\x80\x9d'
p1890
(dp1891
g71
F1.0
s(lp1892
(g73
I7
tp1893
atp1894
a(S'jako'
p1895
(dp1896
S'ADV'
p1897
F0.008494999999999999
sS'CONJ'
p1898
F0.918393
sS'ADP'
p1899
F0.073111
s(lp1900
(g29
I9
tp1901
atp1902
a(S'takim'
p1903
(dp1904
S'ADJ'
p1905
F1.000001
s(lp1906
(g43
I10
tp1907
atp1908
a(g87
(dp1909
g1656
F0.0
sg71
F1.0
s(lp1910
(g87
I11
tp1911
atp1912
a(S'jak'
p1913
(dp1914
S'ADV'
p1915
F0.8514079999999999
sS'PRT'
p1916
F0.008004
sS'CONJ'
p1917
F0.121611
sS'ADP'
p1918
F0.018957
sS'PRON'
p1919
F2e-05
s(lp1920
(g142
I18
tp1921
atp1922
a(S'pokazuje'
p1923
(dp1924
S'VERB'
p1925
F1.0
s(lp1926
(g110
I13
tp1927
atp1928
a(S'do\xc5\x9bwiadczenie'
p1929
(dp1930
S'VERB'
p1931
F0.0411
sS'NOUN'
p1932
F0.9589000000000001
s(lp1933
(g103
I12
tp1934
atp1935
a(g87
(dp1936
g1656
F0.0
sg71
F1.0
s(lp1937
(g119
I14
tp1938
atp1939
a(S'sporz\xc4\x85dzanie'
p1940
(dp1941
S'ADV'
p1942
F0.206422
sS'ADJ'
p1943
F0.006083999999999999
sS'VERB'
p1944
F0.21915699999999996
sS'NOUN'
p1945
F0.5683349999999999
s(lp1946
(g369
I47
tp1947
atp1948
a(S'i'
p1949
(dp1950
S'PRT'
p1951
F0.003518
sS'CONJ'
p1952
F0.996438
sS'NOUN'
p1953
F4.9999999999999996e-06
sg1656
F1e-05
sS'PRON'
p1954
F2.8e-05
s(lp1955
(g126
I15
tp1956
atp1957
a(S'przedstawianie'
p1958
(dp1959
S'VERB'
p1960
F1.0
s(lp1961
(g369
I47
tp1962
atp1963
a(S'takich'
p1964
(dp1965
S'ADJ'
p1966
F1.000001
s(lp1967
tp1968
a(S'dokument\xc3\xb3w'
p1969
(dp1970
S'NOUN'
p1971
F1.0
s(lp1972
(g183
I23
tp1973
atp1974
a(S'nie'
p1975
(dp1976
S'ADV'
p1977
F1.1e-05
sS'PRT'
p1978
F0.965028
sS'CONJ'
p1979
F0.034932
sS'NOUN'
p1980
F1e-06
sS'PRON'
p1981
F2.8e-05
s(lp1982
(g475
I17
tp1983
atp1984
a(S'sprawia'
p1985
(dp1986
S'VERB'
p1987
F1.0
s(lp1988
(g163
I21
tp1989
atp1990
a(S'takich'
p1991
(dp1992
S'ADJ'
p1993
F1.0
s(lp1994
(g176
I22
tp1995
atp1996
a(S'trudno\xc5\x9bci'
p1997
(dp1998
S'NOUN'
p1999
F1.0000010000000001
s(lp2000
(g149
I19
tp2001
atp2002
a(S'jak'
p2003
(dp2004
S'ADV'
p2005
F0.032105
sS'PRT'
p2006
F0.000155
sS'CONJ'
p2007
F0.222031
sS'ADP'
p2008
F0.745708
sS'PRON'
p2009
F1e-06
s(lp2010
(g192
I24
tp2011
atp2012
a(S'wprowadzanie'
p2013
(dp2014
S'VERB'
p2015
F1.0
s(lp2016
(g369
I47
tp2017
atp2018
a(S'ich'
p2019
(dp2020
S'PRON'
p2021
F0.999997
sg1656
F2e-06
s(lp2022
(g208
I29
tp2023
atp2024
a(S'nast\xc4\x99pnie'
p2025
(dp2026
S'ADV'
p2027
F1.0
s(lp2028
tp2029
a(S'w'
p2030
(dp2031
S'ADJ'
p2032
F0.0
sg1656
F1e-06
sS'NOUN'
p2033
F3e-06
sS'ADP'
p2034
F0.999995
s(lp2035
tp2036
a(S'\xc5\xbcycie'
p2037
(dp2038
S'VERB'
p2039
F0.0071990000000000005
sS'NOUN'
p2040
F0.9928
s(lp2041
(g223
I30
tp2042
atp2043
a(g2030
(dp2044
S'ADJ'
p2045
F0.0
sg1656
F0.0
sS'NOUN'
p2046
F0.0
sS'ADP'
p2047
F1.000001
s(lp2048
(g242
I31
tp2049
atp2050
a(S'poszczeg\xc3\xb3lnych'
p2051
(dp2052
S'ADJ'
p2053
F0.999999
s(lp2054
(g265
I33
tp2055
atp2056
a(S'obszarach'
p2057
(dp2058
S'NOUN'
p2059
F1.0
s(lp2060
(g257
I34
tp2061
atp2062
a(S'oraz'
p2063
(dp2064
S'CONJ'
p2065
F1.0
s(lp2066
(g276
I36
tp2067
atp2068
a(S'monitorowanie'
p2069
(dp2070
S'ADV'
p2071
F0.146829
sS'ADJ'
p2072
F0.006516
sS'VERB'
p2073
F0.399916
sS'NOUN'
p2074
F0.4467409999999999
s(lp2075
(g290
I38
tp2076
atp2077
a(g1949
(dp2078
S'PRT'
p2079
F0.013802
sS'CONJ'
p2080
F0.985933
sS'NOUN'
p2081
F0.000118
sg1656
F7e-05
sS'PRON'
p2082
F7.699999999999999e-05
s(lp2083
(g297
I39
tp2084
atp2085
a(S'ocena'
p2086
(dp2087
S'NOUN'
p2088
F1.0
s(lp2089
(g311
I40
tp2090
atp2091
a(S'skutk\xc3\xb3w'
p2092
(dp2093
S'NOUN'
p2094
F1.0
s(lp2095
(g327
I42
tp2096
atp2097
a(S'proponowanych'
p2098
(dp2099
S'VERB'
p2100
F0.9999999999999999
s(lp2101
(g350
I45
tp2102
atp2103
a(S'\xc5\x9brodk\xc3\xb3w'
p2104
(dp2105
S'NOUN'
p2106
F1.0
s(lp2107
(g343
I46
tp2108
atp2109
a(S'z'
p2110
(dp2111
S'PRT'
p2112
F1e-06
sS'VERB'
p2113
F0.0
sS'NOUN'
p2114
F0.0
sS'ADP'
p2115
F0.999999
sg1656
F0.0
s(lp2116
tp2117
a(S'zachowaniem'
p2118
(dp2119
S'VERB'
p2120
F0.888938
sS'NOUN'
p2121
F0.111062
s(lp2122
(g369
I47
tp2123
atp2124
a(S'dozy'
p2125
(dp2126
S'ADJ'
p2127
F0.000671
sS'VERB'
p2128
F0.07057800000000003
sS'NOUN'
p2129
F0.92875
s(lp2130
tp2131
a(S'elastyczno\xc5\x9bci'
p2132
(dp2133
S'NOUN'
p2134
F1.0
s(lp2135
(g369
I47
tp2136
atp2137
a(g71
(dp2138
g71
F1.0
s(lp2139
(g71
I48
tp2140
atp2141
asS'sl'
p2142
(lp2143
(S'in'
p2144
(dp2145
S'ADV'
p2146
F0.000319
sg1656
F9e-05
sS'CONJ'
p2147
F0.999511
sS'NOUN'
p2148
F8e-05
s(lp2149
(g276
I36
tp2150
atp2151
a(S'ko'
p2152
(dp2153
S'CONJ'
p2154
F1.0
s(lp2155
(g7
I0
tp2156
atp2157
a(S'razpravljamo'
p2158
(dp2159
S'ADV'
p2160
F0.000591
sS'ADJ'
p2161
F0.00261
sS'VERB'
p2162
F0.945041
sS'NOUN'
p2163
F0.051758
s(lp2164
tp2165
a(g1654
(dp2166
S'NOUN'
p2167
F3e-06
sS'ADP'
p2168
F0.999997
s(lp2169
(g21
I3
tp2170
atp2171
a(S'strate\xc5\xa1kem'
p2172
(dp2173
S'ADJ'
p2174
F1.0
s(lp2175
(g80
I6
tp2176
atp2177
a(S'dokumentu'
p2178
(dp2179
S'NOUN'
p2180
F1.0
s(lp2181
(g66
I8
tp2182
atp2183
a(S'kot'
p2184
(dp2185
S'CONJ'
p2186
F0.993737
sS'NOUN'
p2187
F0.006262
s(lp2188
(g29
I9
tp2189
atp2190
a(S'takem'
p2191
(dp2192
S'PRON'
p2193
F1.0
s(lp2194
(g43
I10
tp2195
atp2196
a(g87
(dp2197
g71
F1.0
s(lp2198
(g87
I11
tp2199
atp2200
a(S'izku\xc5\xa1nje'
p2201
(dp2202
S'NOUN'
p2203
F1.000001
s(lp2204
(g103
I12
tp2205
atp2206
a(S'ka\xc5\xbeejo'
p2207
(dp2208
S'VERB'
p2209
F1.0
s(lp2210
(g110
I13
tp2211
atp2212
a(g87
(dp2213
g71
F1.0
s(lp2214
tp2215
a(S'da'
p2216
(dp2217
S'PRT'
p2218
F4e-06
sS'CONJ'
p2219
F0.999979
sS'VERB'
p2220
F1.7e-05
sg1656
F1e-06
s(lp2221
(g119
I14
tp2222
atp2223
a(S'je'
p2224
(dp2225
S'PRON'
p2226
F0.001904
sS'VERB'
p2227
F0.998096
sg1656
F0.0
s(lp2228
(g134
I16
tp2229
atp2230
a(S'la\xc5\xbeje'
p2231
(dp2232
S'ADV'
p2233
F0.947449
sS'ADJ'
p2234
F0.052552
s(lp2235
(g149
I19
tp2236
atp2237
a(S'pripraviti'
p2238
(dp2239
S'VERB'
p2240
F1.0
s(lp2241
(g163
I21
tp2242
atp2243
a(S'tak\xc5\xa1ne'
p2244
(dp2245
S'PRON'
p2246
F1.000001
s(lp2247
(g176
I22
tp2248
atp2249
a(S'dokumente'
p2250
(dp2251
S'NOUN'
p2252
F1.0
s(lp2253
(g183
I23
tp2254
atp2255
a(S'kot'
p2256
(dp2257
S'CONJ'
p2258
F0.999971
sS'NOUN'
p2259
F2.9e-05
s(lp2260
(g192
I24
tp2261
atp2262
a(S'jih'
p2263
(dp2264
S'PRON'
p2265
F1.000001
s(lp2266
(g208
I29
tp2267
atp2268
a(S'nato'
p2269
(dp2270
S'ADV'
p2271
F1.0
s(lp2272
(g223
I30
tp2273
atp2274
a(S'razviti'
p2275
(dp2276
S'VERB'
p2277
F0.959725
sS'ADJ'
p2278
F0.040275
s(lp2279
(g215
I28
tp2280
atp2281
a(S'na'
p2282
(dp2283
S'ADP'
p2284
F1.0
s(lp2285
(g242
I31
tp2286
atp2287
a(S'posameznih'
p2288
(dp2289
S'ADJ'
p2290
F0.999999
s(lp2291
(g265
I33
tp2292
atp2293
a(S'podro\xc4\x8djih'
p2294
(dp2295
S'NOUN'
p2296
F1.0
s(lp2297
(g257
I34
tp2298
atp2299
a(S'ter'
p2300
(dp2301
S'CONJ'
p2302
F1.0
s(lp2303
(g87
I35
tp2304
atp2305
a(S'pro\xc5\xbeno'
p2306
(dp2307
S'ADJ'
p2308
F1.0
s(lp2309
(g369
I47
tp2310
atp2311
a(S'spremljati'
p2312
(dp2313
S'VERB'
p2314
F1.0
s(lp2315
(g290
I38
tp2316
atp2317
a(S'in'
p2318
(dp2319
S'ADV'
p2320
F0.001752
sg1656
F5.5e-05
sS'CONJ'
p2321
F0.998149
sS'NOUN'
p2322
F4.4e-05
s(lp2323
(g297
I39
tp2324
atp2325
a(S'ocenjevati'
p2326
(dp2327
S'ADJ'
p2328
F0.0013909999999999999
sS'VERB'
p2329
F0.9735550000000001
sS'NOUN'
p2330
F0.024889
sg1656
F0.000165
s(lp2331
(g311
I40
tp2332
atp2333
a(S'u\xc4\x8dinke'
p2334
(dp2335
S'NOUN'
p2336
F1.0
s(lp2337
(g327
I42
tp2338
atp2339
a(S'predlaganih'
p2340
(dp2341
S'ADJ'
p2342
F1.0
s(lp2343
(g350
I45
tp2344
atp2345
a(S'ukrepov'
p2346
(dp2347
S'NOUN'
p2348
F1.0
s(lp2349
(g343
I46
tp2350
atp2351
a(g71
(dp2352
g71
F1.0
s(lp2353
(g71
I48
tp2354
atp2355
asS'es'
p2356
(lp2357
(S'ya'
p2358
(dp2359
S'CONJ'
p2360
F1.0
s(lp2361
(g7
I0
tp2362
atp2363
a(S'que'
p2364
(dp2365
S'CONJ'
p2366
F1.0
s(lp2367
(g14
I1
tp2368
atp2369
a(S'estamos'
p2370
(dp2371
S'VERB'
p2372
F1.0
s(lp2373
(g389
I2
tp2374
atp2375
a(S'debatiendo'
p2376
(dp2377
S'VERB'
p2378
F1.0
s(lp2379
(g21
I3
tp2380
atp2381
a(S'un'
p2382
(dp2383
g1656
F0.0
sS'DET'
p2384
F1.0
s(lp2385
(g59
I4
tp2386
atp2387
a(S'documento'
p2388
(dp2389
S'NOUN'
p2390
F1.0
s(lp2391
(g66
I8
tp2392
atp2393
a(g69
(dp2394
g71
F1.0
s(lp2395
(g73
I5
tp2396
atp2397
a(S'estrat\xc3\xa9gico'
p2398
(dp2399
S'ADJ'
p2400
F1.0
s(lp2401
(g80
I6
tp2402
atp2403
a(g69
(dp2404
g71
F1.0
s(lp2405
(g73
I7
tp2406
atp2407
a(S'como'
p2408
(dp2409
S'ADV'
p2410
F0.166956
sS'CONJ'
p2411
F0.833045
s(lp2412
(g29
I9
tp2413
atp2414
a(S'tal'
p2415
(dp2416
S'ADJ'
p2417
F1.0
s(lp2418
(g43
I10
tp2419
atp2420
a(g87
(dp2421
g71
F1.0
s(lp2422
(g87
I11
tp2423
atp2424
a(S'la'
p2425
(dp2426
S'PRON'
p2427
F3.5e-05
sS'DET'
p2428
F0.999959
sS'NOUN'
p2429
F0.0
sg1656
F5e-06
s(lp2430
tp2431
a(S'experiencia'
p2432
(dp2433
S'NOUN'
p2434
F1.0
s(lp2435
(g103
I12
tp2436
atp2437
a(S'nos'
p2438
(dp2439
S'PRON'
p2440
F1.0
s(lp2441
tp2442
a(S'demuestra'
p2443
(dp2444
S'VERB'
p2445
F1.0
s(lp2446
(g110
I13
tp2447
atp2448
a(S'que'
p2449
(dp2450
g1656
F0.0
sS'CONJ'
p2451
F1.0
s(lp2452
(g119
I14
tp2453
atp2454
a(S'no'
p2455
(dp2456
S'ADV'
p2457
F1.0
sg1656
F0.0
s(lp2458
(g475
I17
tp2459
atp2460
a(S'resulta'
p2461
(dp2462
S'VERB'
p2463
F1.0
s(lp2464
(g134
I16
tp2465
atp2466
a(S'tan'
p2467
(dp2468
S'ADV'
p2469
F1.0
s(lp2470
(g142
I18
tp2471
atp2472
a(S'dif\xc3\xadcil'
p2473
(dp2474
S'ADJ'
p2475
F1.0
s(lp2476
(g149
I19
tp2477
atp2478
a(S'producir'
p2479
(dp2480
S'VERB'
p2481
F1.0
s(lp2482
(g163
I21
tp2483
atp2484
a(S'tales'
p2485
(dp2486
S'ADJ'
p2487
F1.0
s(lp2488
(g176
I22
tp2489
atp2490
a(S'documentos'
p2491
(dp2492
S'NOUN'
p2493
F1.0
s(lp2494
(g183
I23
tp2495
atp2496
a(g87
(dp2497
g71
F1.0
s(lp2498
tp2499
a(S'como'
p2500
(dp2501
S'ADV'
p2502
F0.21038
sS'CONJ'
p2503
F0.78962
s(lp2504
(g192
I24
tp2505
atp2506
a(S'lo'
p2507
(dp2508
S'PRON'
p2509
F0.993238
sS'DET'
p2510
F0.006762
s(lp2511
(g525
I25
tp2512
atp2513
a(S'es'
p2514
(dp2515
S'VERB'
p2516
F1.0
s(lp2517
(g531
I26
tp2518
atp2519
a(S'desarrollarlos'
p2520
(dp2521
S'VERB'
p2522
F1.0
s(lp2523
(g215
I28
tp2524
atp2525
a(S'posteriormente'
p2526
(dp2527
S'ADV'
p2528
F1.0
s(lp2529
(g223
I30
tp2530
atp2531
a(S'en'
p2532
(dp2533
g1656
F0.0
sS'CONJ'
p2534
F3e-06
sS'ADP'
p2535
F0.999997
s(lp2536
(g242
I31
tp2537
atp2538
a(S'los'
p2539
(dp2540
S'PRON'
p2541
F0.0
sS'DET'
p2542
F1.0
s(lp2543
(g250
I32
tp2544
atp2545
a(S'distintos'
p2546
(dp2547
S'ADJ'
p2548
F1.0
s(lp2549
tp2550
a(S'\xc3\xa1mbitos'
p2551
(dp2552
S'NOUN'
p2553
F1.0
s(lp2554
(g257
I34
tp2555
atp2556
a(S'individuales'
p2557
(dp2558
S'ADJ'
p2559
F1.0
s(lp2560
(g265
I33
tp2561
atp2562
a(g87
(dp2563
g71
F1.0
s(lp2564
(g87
I35
tp2565
atp2566
a(S'y'
p2567
(dp2568
g1656
F1.9e-05
sS'CONJ'
p2569
F0.999981
s(lp2570
(g276
I36
tp2571
atp2572
a(S'vigilar'
p2573
(dp2574
S'VERB'
p2575
F1.0
s(lp2576
(g290
I38
tp2577
atp2578
a(g2567
(dp2579
g1656
F1.2e-05
sS'CONJ'
p2580
F0.999988
s(lp2581
(g297
I39
tp2582
atp2583
a(S'evaluar'
p2584
(dp2585
S'VERB'
p2586
F1.0
s(lp2587
(g311
I40
tp2588
atp2589
a(S'de'
p2590
(dp2591
g1656
F5.9e-05
sS'CONJ'
p2592
F0.000865
sS'ADP'
p2593
F0.999075
s(lp2594
tp2595
a(S'forma'
p2596
(dp2597
S'VERB'
p2598
F0.000145
sS'NOUN'
p2599
F0.999855
s(lp2600
tp2601
a(S'flexible'
p2602
(dp2603
S'ADJ'
p2604
F1.0
s(lp2605
(g369
I47
tp2606
atp2607
a(S'los'
p2608
(dp2609
S'PRON'
p2610
F7.7e-05
sS'DET'
p2611
F0.999923
s(lp2612
(g320
I41
tp2613
atp2614
a(S'efectos'
p2615
(dp2616
S'NOUN'
p2617
F1.0
s(lp2618
(g327
I42
tp2619
atp2620
a(S'de'
p2621
(dp2622
g1656
F0.0
sS'CONJ'
p2623
F1.7e-05
sS'ADP'
p2624
F0.999983
s(lp2625
(g335
I43
tp2626
atp2627
a(S'las'
p2628
(dp2629
S'PRON'
p2630
F0.0
sS'DET'
p2631
F1.0
s(lp2632
(g634
I44
tp2633
atp2634
a(S'medidas'
p2635
(dp2636
S'VERB'
p2637
F0.001388
sS'NOUN'
p2638
F0.998612
s(lp2639
(g343
I46
tp2640
atp2641
a(S'propuestas'
p2642
(dp2643
S'VERB'
p2644
F0.308493
sS'NOUN'
p2645
F0.691507
s(lp2646
(g350
I45
tp2647
atp2648
a(g71
(dp2649
g71
F1.0
s(lp2650
(g71
I48
tp2651
atp2652
as.