(dp0
S'fr'
p1
(lp2
(S'la'
p3
(dp4
S'PRON'
p5
F8.2e-05
sS'DET'
p6
F0.999918
sS'NOUN'
p7
F0.0
s(lp8
tp9
a(S'libert\xc3\xa9'
p10
(dp11
S'NOUN'
p12
F1.0
s(lp13
(S'freedom'
p14
I0
tp15
atp16
a(S','
p17
(dp18
S'.'
p19
F1.0
s(lp20
(g17
I1
tp21
atp22
a(S'la'
p23
(dp24
S'PRON'
p25
F6.9e-05
sS'DET'
p26
F0.999931
sS'NOUN'
p27
F0.0
s(lp28
tp29
a(S'd\xc3\xa9mocratie'
p30
(dp31
S'NOUN'
p32
F1.0
s(lp33
(S'democracy'
p34
I2
tp35
atp36
a(S'et'
p37
(dp38
S'CONJ'
p39
F1.0
s(lp40
(S'and'
p41
I3
tp42
atp43
a(S'les'
p44
(dp45
S'PRON'
p46
F0.000513
sS'DET'
p47
F0.999473
sS'ADP'
p48
F1.3e-05
s(lp49
(S'human'
p50
I4
tp51
atp52
a(S'droits'
p53
(dp54
S'ADJ'
p55
F0.017613
sS'NOUN'
p56
F0.982387
s(lp57
(S'rights'
p58
I5
tp59
atp60
a(S'de'
p61
(dp62
S'ADP'
p63
F1.0
s(lp64
tp65
a(S"l'"
p66
(dp67
S'ADJ'
p68
F0.160704
sS'VERB'
p69
F0.06480800000000002
sS'NOUN'
p70
F0.774488
s(lp71
tp72
a(S'homme'
p73
(dp74
S'NOUN'
p75
F1.0
s(lp76
(g50
I4
tp77
atp78
a(S"n'"
p79
(dp80
S'NOUN'
p81
F0.032441
sS'VERB'
p82
F0.694014
sS'ADJ'
p83
F0.273544
s(lp84
tp85
a(S'y'
p86
(dp87
S'PRON'
p88
F1.0
s(lp89
(S'there'
p90
I9
tp91
atp92
a(S'ont'
p93
(dp94
S'VERB'
p95
F1.0
s(lp96
(S'have'
p97
I6
tp98
atp99
a(S'aucun'
p100
(dp101
S'PRON'
p102
F1.0
s(lp103
(S'no'
p104
I7
tp105
atp106
a(S'sens'
p107
(dp108
S'VERB'
p109
F0.002007
sS'NOUN'
p110
F0.997994
s(lp111
(S'meaning'
p112
I8
tp113
atp114
a(g19
(dp115
g19
F1.0
s(lp116
(g19
I10
tp117
atp118
asS'en'
p119
(lp120
(g14
(dp121
S'NOUN'
p122
F1.0
s(lp123
(g14
I0
tp124
atp125
a(g17
(dp126
g19
F1.0
s(lp127
(g17
I1
tp128
atp129
a(g34
(dp130
S'NOUN'
p131
F1.0
s(lp132
(g34
I2
tp133
atp134
a(g41
(dp135
S'CONJ'
p136
F1.0
sS'NOUN'
p137
F0.0
s(lp138
(g41
I3
tp139
atp140
a(g50
(dp141
S'NOUN'
p142
F0.005432
sS'ADJ'
p143
F0.994568
s(lp144
(g50
I4
tp145
atp146
a(g58
(dp147
S'VERB'
p148
F1e-06
sS'NOUN'
p149
F0.999999
s(lp150
(g58
I5
tp151
atp152
a(g97
(dp153
S'VERB'
p154
F1.0
s(lp155
(g97
I6
tp156
atp157
a(g104
(dp158
S'ADV'
p159
F0.488195
sS'NOUN'
p160
F5e-06
sS'DET'
p161
F0.511798
sS'X'
p162
F1e-06
s(lp163
(g104
I7
tp164
atp165
a(g112
(dp166
S'ADJ'
p167
F0.003427
sS'VERB'
p168
F0.694034
sS'NOUN'
p169
F0.302539
s(lp170
(g112
I8
tp171
atp172
a(g90
(dp173
S'ADV'
p174
F0.998195
sS'DET'
p175
F0.000508
sS'ADJ'
p176
F0.000679
sS'ADP'
p177
F0.000618
s(lp178
(g90
I9
tp179
atp180
a(g19
(dp181
g19
F1.0
s(lp182
(g19
I10
tp183
atp184
asS'nl'
p185
(lp186
(S'vrijheid'
p187
(dp188
S'NOUN'
p189
F1.0
s(lp190
(g14
I0
tp191
atp192
a(g17
(dp193
g19
F1.0
s(lp194
(g17
I1
tp195
atp196
a(S'democratie'
p197
(dp198
S'NOUN'
p199
F1.0
s(lp200
(g34
I2
tp201
atp202
a(S'en'
p203
(dp204
S'CONJ'
p205
F1.0
s(lp206
(g41
I3
tp207
atp208
a(S'mensenrechten'
p209
(dp210
S'NOUN'
p211
F1.0
s(lp212
(g50
I4
tp213
atp214
a(S'zijn'
p215
(dp216
S'PRON'
p217
F0.000556
sS'VERB'
p218
F0.999262
sS'NOUN'
p219
F0.000181
s(lp220
(g97
I6
tp221
atp222
a(S'in'
p223
(dp224
S'ADV'
p225
F0.063417
sS'VERB'
p226
F0.0
sS'ADP'
p227
F0.936583
s(lp228
(g90
I9
tp229
atp230
a(S'dat'
p231
(dp232
S'PRON'
p233
F0.925398
sS'CONJ'
p234
F0.074602
s(lp235
tp236
a(S'land'
p237
(dp238
S'VERB'
p239
F0.000658
sS'NOUN'
p240
F0.999342
s(lp241
(g90
I9
tp242
atp243
a(S'niet'
p244
(dp245
S'ADV'
p246
F0.999984
sS'PRON'
p247
F0.0
sS'VERB'
p248
F1.6e-05
sg162
F0.0
s(lp249
(g104
I7
tp250
atp251
a(S'van'
p252
(dp253
S'ADP'
p254
F1.0
s(lp255
tp256
a(S'toepassing'
p257
(dp258
S'NOUN'
p259
F1.0
s(lp260
(g112
I8
tp261
atp262
a(g19
(dp263
g19
F1.0
s(lp264
(g19
I10
tp265
atp266
asS'de'
p267
(lp268
(S'freiheit'
p269
(dp270
S'ADJ'
p271
F0.428258
sS'NOUN'
p272
F0.430616
s(lp273
(g14
I0
tp274
atp275
a(g17
(dp276
g19
F1.0
s(lp277
(g17
I1
tp278
atp279
a(S'demokratie'
p280
(dp281
S'NOUN'
p282
F0.250588
sS'ADJ'
p283
F0.444199
s(lp284
(g34
I2
tp285
atp286
a(S'und'
p287
(dp288
S'CONJ'
p289
F1.0
s(lp290
(g41
I3
tp291
atp292
a(S'menschenrechte'
p293
(dp294
S'ADJ'
p295
F1.0
s(lp296
(g50
I4
tp297
atp298
a(S'haben'
p299
(dp300
S'VERB'
p301
F0.9997640000000001
s(lp302
(g97
I6
tp303
atp304
a(S'dort'
p305
(dp306
S'ADV'
p307
F1.0
sS'PRT'
p308
F0.0
s(lp309
(g90
I9
tp310
atp311
a(S'keine'
p312
(dp313
S'PRON'
p314
F1.0
s(lp315
(g104
I7
tp316
atp317
a(S'geltung'
p318
(dp319
S'ADJ'
p320
F0.030973
sS'NOUN'
p321
F0.96549
s(lp322
(g112
I8
tp323
atp324
a(g19
(dp325
g19
F1.0
s(lp326
(g19
I10
tp327
atp328
asS'it'
p329
(lp330
(S'in'
p331
(dp332
S'ADP'
p333
F1.0
s(lp334
(g90
I9
tp335
atp336
a(S'questo'
p337
(dp338
S'PRON'
p339
F1.0
s(lp340
tp341
a(S'paese'
p342
(dp343
S'NOUN'
p344
F1.0
s(lp345
(g90
I9
tp346
atp347
a(g17
(dp348
g19
F1.0
s(lp349
tp350
a(S'la'
p351
(dp352
S'PRON'
p353
F0.000686
sS'DET'
p354
F0.999314
s(lp355
tp356
a(S'libert\xc3\xa0'
p357
(dp358
S'NOUN'
p359
F1.0
s(lp360
(g14
I0
tp361
atp362
a(g17
(dp363
g19
F1.0
s(lp364
(g17
I1
tp365
atp366
a(S'la'
p367
(dp368
S'PRON'
p369
F0.000686
sS'DET'
p370
F0.999314
s(lp371
tp372
a(S'democrazia'
p373
(dp374
S'NOUN'
p375
F1.0
s(lp376
(g34
I2
tp377
atp378
a(S'e'
p379
(dp380
S'CONJ'
p381
F1.0
s(lp382
(g41
I3
tp383
atp384
a(S'i'
p385
(dp386
S'DET'
p387
F1.0
s(lp388
tp389
a(S'diritti'
p390
(dp391
S'ADJ'
p392
F0.028159
sS'NOUN'
p393
F0.971841
s(lp394
(g58
I5
tp395
atp396
a(S'umani'
p397
(dp398
S'NOUN'
p399
F0.066494
sS'ADJ'
p400
F0.933506
s(lp401
(g50
I4
tp402
atp403
a(S'non'
p404
(dp405
S'ADV'
p406
F1.0
s(lp407
tp408
a(S'hanno'
p409
(dp410
S'VERB'
p411
F1.0
s(lp412
(g97
I6
tp413
atp414
a(S'alcun'
p415
(dp416
S'PRON'
p417
F0.939695
sS'ADJ'
p418
F0.060305
s(lp419
(g104
I7
tp420
atp421
a(S'significato'
p422
(dp423
S'VERB'
p424
F0.095724
sS'NOUN'
p425
F0.904276
s(lp426
(g112
I8
tp427
atp428
a(g19
(dp429
g19
F1.0
s(lp430
(g19
I10
tp431
atp432
asS'sk'
p433
(lp434
(S'sloboda'
p435
(dp436
S'NOUN'
p437
F1.0
s(lp438
(g14
I0
tp439
atp440
a(g17
(dp441
g19
F1.0
s(lp442
(g17
I1
tp443
atp444
a(S'demokracia'
p445
(dp446
S'NOUN'
p447
F1.0
s(lp448
(g34
I2
tp449
atp450
a(S'a'
p451
(dp452
g162
F0.0015489999999999998
sS'CONJ'
p453
F0.997376
sS'NOUN'
p454
F0.000236
sS'ADP'
p455
F0.00077
sS'PRT'
p456
F7e-05
s(lp457
(g41
I3
tp458
atp459
a(S'\xc4\xbeudsk\xc3\xa9'
p460
(dp461
S'ADJ'
p462
F1.0
s(lp463
(g50
I4
tp464
atp465
a(S'pr\xc3\xa1va'
p466
(dp467
S'VERB'
p468
F0.0
sS'NOUN'
p469
F1.0
s(lp470
(g58
I5
tp471
atp472
a(S'nemaj\xc3\xba'
p473
(dp474
S'VERB'
p475
F1.0
s(lp476
(g104
I7
tp477
atp478
a(S'v'
p479
(dp480
g162
F9.299999999999998e-05
sS'ADP'
p481
F0.999907
s(lp482
tp483
a(S'tejto'
p484
(dp485
S'PRON'
p486
F1.0
s(lp487
(g90
I9
tp488
atp489
a(S'krajine'
p490
(dp491
S'NOUN'
p492
F1.0
s(lp493
tp494
a(S'v\xc3\xbdznam'
p495
(dp496
S'NOUN'
p497
F1.0
s(lp498
(g112
I8
tp499
atp500
a(g19
(dp501
g19
F1.0
s(lp502
(g19
I10
tp503
atp504
asS'pl'
p505
(lp506
(S'wolno\xc5\x9b\xc4\x87'
p507
(dp508
S'NOUN'
p509
F1.0
s(lp510
(g14
I0
tp511
atp512
a(g17
(dp513
g162
F0.0
sg19
F1.0
s(lp514
(g17
I1
tp515
atp516
a(S'demokracja'
p517
(dp518
S'NOUN'
p519
F1.0
s(lp520
(g34
I2
tp521
atp522
a(g385
(dp523
S'PRT'
p524
F0.004473
sS'CONJ'
p525
F0.995218
sS'PRON'
p526
F8e-06
sS'NOUN'
p527
F0.000279
sg162
F2.2e-05
s(lp528
(g41
I3
tp529
atp530
a(S'prawa'
p531
(dp532
S'ADJ'
p533
F0.0007650000000000001
sS'NOUN'
p534
F0.999235
s(lp535
(g58
I5
tp536
atp537
a(S'cz\xc5\x82owieka'
p538
(dp539
S'NOUN'
p540
F1.0
s(lp541
(g50
I4
tp542
atp543
a(S'nie'
p544
(dp545
S'ADV'
p546
F2.8e-05
sS'PRT'
p547
F0.946341
sS'CONJ'
p548
F0.053569
sS'NOUN'
p549
F2e-06
sS'PRON'
p550
F6.099999999999999e-05
s(lp551
tp552
a(S'maj\xc4\x85'
p553
(dp554
S'VERB'
p555
F1.0
s(lp556
(g97
I6
tp557
atp558
a(S'tam'
p559
(dp560
S'ADV'
p561
F0.721823
sS'PRT'
p562
F0.278178
s(lp563
(g90
I9
tp564
atp565
a(S'\xc5\xbcadnego'
p566
(dp567
S'ADJ'
p568
F1.0
s(lp569
(g104
I7
tp570
atp571
a(S'znaczenia'
p572
(dp573
S'VERB'
p574
F0.003929
sS'NOUN'
p575
F0.996071
s(lp576
(g112
I8
tp577
atp578
a(g19
(dp579
g19
F1.0
s(lp580
(g19
I10
tp581
atp582
asS'sl'
p583
(lp584
(S'svoboda'
p585
(dp586
S'NOUN'
p587
F1.0
s(lp588
(g14
I0
tp589
atp590
a(g17
(dp591
g19
F1.0
s(lp592
(g17
I1
tp593
atp594
a(S'demokracija'
p595
(dp596
S'NOUN'
p597
F1.0
s(lp598
(g34
I2
tp599
atp600
a(S'in'
p601
(dp602
S'ADV'
p603
F3e-05
sg162
F0.022396
sS'CONJ'
p604
F0.977317
sS'NOUN'
p605
F0.000256
s(lp606
(g41
I3
tp607
atp608
a(S'\xc4\x8dlovekove'
p609
(dp610
S'ADJ'
p611
F1.0000010000000001
s(lp612
(g50
I4
tp613
atp614
a(S'pravice'
p615
(dp616
S'NOUN'
p617
F0.999999
s(lp618
(g58
I5
tp619
atp620
a(S'tam'
p621
(dp622
S'ADV'
p623
F0.999893
sS'NOUN'
p624
F0.000107
s(lp625
(g90
I9
tp626
atp627
a(S'nimajo'
p628
(dp629
S'VERB'
p630
F1.0
s(lp631
(g104
I7
tp632
atp633
a(S'pomena'
p634
(dp635
S'NOUN'
p636
F1.0
s(lp637
(g112
I8
tp638
atp639
a(g19
(dp640
g19
F1.0
s(lp641
(g19
I10
tp642
atp643
asS'es'
p644
(lp645
(S'all\xc3\xad'
p646
(dp647
S'ADV'
p648
F1.0
s(lp649
(g90
I9
tp650
atp651
a(S'la'
p652
(dp653
S'PRON'
p654
F0.000348
sS'DET'
p655
F0.999652
sg162
F0.0
sS'NOUN'
p656
F0.0
s(lp657
tp658
a(S'libertad'
p659
(dp660
S'NOUN'
p661
F1.0
s(lp662
(g14
I0
tp663
atp664
a(g17
(dp665
g19
F1.0
s(lp666
(g17
I1
tp667
atp668
a(S'la'
p669
(dp670
S'PRON'
p671
F3.5e-05
sS'DET'
p672
F0.999959
sS'NOUN'
p673
F0.0
sg162
F5e-06
s(lp674
tp675
a(S'democracia'
p676
(dp677
S'NOUN'
p678
F1.0
s(lp679
(g34
I2
tp680
atp681
a(g86
(dp682
g162
F0.000396
sS'CONJ'
p683
F0.999604
s(lp684
(g41
I3
tp685
atp686
a(S'los'
p687
(dp688
S'PRON'
p689
F0.000425
sS'DET'
p690
F0.999575
s(lp691
tp692
a(S'derechos'
p693
(dp694
S'NOUN'
p695
F1.0
s(lp696
(g58
I5
tp697
atp698
a(S'humanos'
p699
(dp700
S'NOUN'
p701
F0.184646
sS'ADJ'
p702
F0.815354
s(lp703
(g50
I4
tp704
atp705
a(S'carecen'
p706
(dp707
S'VERB'
p708
F1.0
s(lp709
(g104
I7
tp710
atp711
a(S'de'
p712
(dp713
g162
F1.5e-05
sS'CONJ'
p714
F0.000751
sS'ADP'
p715
F0.999233
s(lp716
tp717
a(S'significado'
p718
(dp719
S'ADJ'
p720
F0.015793
sS'VERB'
p721
F0.005132
sS'NOUN'
p722
F0.979075
s(lp723
(g112
I8
tp724
atp725
a(g19
(dp726
g19
F1.0
s(lp727
(g19
I10
tp728
atp729
as.