(dp0
S'fr'
p1
(lp2
(S"j'"
p3
(dp4
S'ADJ'
p5
F0.10952
sS'X'
p6
F0.13611
sS'VERB'
p7
F0.004198999999999999
sS'NOUN'
p8
F0.750172
s(lp9
(S'i'
p10
I0
tp11
atp12
a(S'ai'
p13
(dp14
S'VERB'
p15
F1.0
s(lp16
tp17
a(S'vot\xc3\xa9'
p18
(dp19
S'VERB'
p20
F1.0
s(lp21
(S'voted'
p22
I1
tp23
atp24
a(S'en'
p25
(dp26
S'PRON'
p27
F0.000403
sS'ADP'
p28
F0.999597
s(lp29
(S'in'
p30
I2
tp31
atp32
a(S'faveur'
p33
(dp34
S'NOUN'
p35
F1.0
s(lp36
(S'favour'
p37
I3
tp38
atp39
a(S'de'
p40
(dp41
S'ADP'
p42
F1.0
s(lp43
(S'of'
p44
I4
tp45
atp46
a(S'cette'
p47
(dp48
S'PRON'
p49
F1.0
s(lp50
(S'this'
p51
I5
tp52
atp53
a(S'r\xc3\xa9solution'
p54
(dp55
S'NOUN'
p56
F1.0
s(lp57
(S'resolution'
p58
I6
tp59
atp60
a(S'parce'
p61
(dp62
S'CONJ'
p63
F1.0
s(lp64
tp65
a(S"qu'"
p66
(dp67
S'NOUN'
p68
F0.109289
sS'VERB'
p69
F0.472141
sS'ADJ'
p70
F0.418571
s(lp71
(S'because'
p72
I7
tp73
atp74
a(S'elle'
p75
(dp76
S'PRON'
p77
F1.0
s(lp78
(S'it'
p79
I8
tp80
atp81
a(S'demande'
p82
(dp83
S'VERB'
p84
F0.9942470000000001
sS'NOUN'
p85
F0.005753
s(lp86
(S'calls'
p87
I9
tp88
atp89
a(S'que'
p90
(dp91
S'ADV'
p92
F0.240284
sS'PRON'
p93
F0.10437
sS'CONJ'
p94
F0.655346
s(lp95
(S'for'
p96
I10
tp97
atp98
a(S"l'"
p99
(dp100
S'NOUN'
p101
F0.044129
sS'VERB'
p102
F0.8675890000000002
sS'ADJ'
p103
F0.088283
s(lp104
(S'the'
p105
I11
tp106
atp107
a(S'utilisation'
p108
(dp109
S'NOUN'
p110
F1.0
s(lp111
(S'use'
p112
I12
tp113
atp114
a(S'du'
p115
(dp116
S'ADP'
p117
F1.0
s(lp118
(S'of'
p119
I13
tp120
atp121
a(S'septi\xc3\xa8me'
p122
(dp123
S'NOUN'
p124
F0.213752
sS'ADJ'
p125
F0.786248
s(lp126
(S'seventh'
p127
I15
tp128
atp129
a(S'programme-cadre'
p130
(dp131
S'ADJ'
p132
F0.155104
sS'VERB'
p133
F0.045898
sS'NOUN'
p134
F0.798998
s(lp135
(S'framework'
p136
I16
tp137
atp138
a(S'('
p139
(dp140
S'.'
p141
F1.0
s(lp142
(g139
I18
tp143
atp144
a(S'pc7'
p145
(dp146
g6
F0.005125
sS'NOUN'
p147
F0.994875
s(lp148
(S'fp7'
p149
I19
tp150
atp151
a(S')'
p152
(dp153
g141
F1.0
s(lp154
(g152
I20
tp155
atp156
a(S'tienne'
p157
(dp158
S'PRON'
p159
F0.000319
sS'VERB'
p160
F0.999681
s(lp161
tp162
a(S'compte'
p163
(dp164
S'VERB'
p165
F0.056064
sS'NOUN'
p166
F0.943936
s(lp167
(S'account'
p168
I23
tp169
atp170
a(S'des'
p171
(dp172
S'DET'
p173
F3.4e-05
sS'ADP'
p174
F0.999966
s(lp175
tp176
a(S'cons\xc3\xa9quences'
p177
(dp178
S'NOUN'
p179
F1.0
s(lp180
(S'consequences'
p181
I27
tp182
atp183
a(S'de'
p184
(dp185
S'ADP'
p186
F1.0
s(lp187
(S'of'
p188
I32
tp189
atp190
a(S'la'
p191
(dp192
S'PRON'
p193
F1.2e-05
sS'DET'
p194
F0.999988
sS'NOUN'
p195
F0.0
s(lp196
(S'the'
p197
I33
tp198
atp199
a(S'crise'
p200
(dp201
S'NOUN'
p202
F1.0
s(lp203
(S'crisis'
p204
I35
tp205
atp206
a(S'\xc3\xa9conomique'
p207
(dp208
S'NOUN'
p209
F0.003145
sS'ADJ'
p210
F0.996855
s(lp211
(S'economic'
p212
I34
tp213
atp214
a(S','
p215
(dp216
g141
F1.0
s(lp217
tp218
a(S'qui'
p219
(dp220
S'PRON'
p221
F1.0
s(lp222
tp223
a(S'sont'
p224
(dp225
S'VERB'
p226
F1.0
s(lp227
tp228
a(S'diff\xc3\xa9rentes'
p229
(dp230
S'ADJ'
p231
F1.0
s(lp232
(S'different'
p233
I26
tp234
atp235
a(S'dans'
p236
(dp237
S'NOUN'
p238
F9e-05
sS'ADP'
p239
F0.99991
s(lp240
(S'in'
p241
I28
tp242
atp243
a(S'chacun'
p244
(dp245
S'PRON'
p246
F1.0
s(lp247
(S'each'
p248
I29
tp249
atp250
a(S'des'
p251
(dp252
S'DET'
p253
F0.000592
sS'ADP'
p254
F0.999408
s(lp255
(S'the'
p256
I25
tp257
atp258
a(S'\xc3\x89tats'
p259
(dp260
S'NOUN'
p261
F1.0
s(lp262
(S'state'
p263
I31
tp264
atp265
a(S'membres'
p266
(dp267
S'VERB'
p268
F0.031169
sS'NOUN'
p269
F0.968831
s(lp270
(S'member'
p271
I30
tp272
atp273
a(g215
(dp274
g141
F1.0
s(lp275
tp276
a(S'pour'
p277
(dp278
S'CONJ'
p279
F0.25317
sS'ADP'
p280
F0.74683
s(lp281
(S'for'
p282
I36
tp283
atp284
a(S'les'
p285
(dp286
S'PRON'
p287
F0.000167
sS'DET'
p288
F0.999828
sS'ADP'
p289
F4e-06
s(lp290
(S'the'
p291
I37
tp292
atp293
a(S'ann\xc3\xa9es'
p294
(dp295
S'NOUN'
p296
F1.0
s(lp297
(S'years'
p298
I39
tp299
atp300
a(S'de'
p301
(dp302
S'ADP'
p303
F1.0
s(lp304
(S'of'
p305
I24
tp306
atp307
a(S'fin'
p308
(dp309
S'ADJ'
p310
F0.075386
sS'NOUN'
p311
F0.924614
s(lp312
(S'final'
p313
I38
tp314
atp315
a(S'de'
p316
(dp317
S'ADP'
p318
F1.0
s(lp319
(S'of'
p320
I40
tp321
atp322
a(S'programme'
p323
(dp324
S'VERB'
p325
F0.000144
sS'NOUN'
p326
F0.999856
s(lp327
(S'programme'
p328
I42
tp329
atp330
a(g139
(dp331
g141
F1.0
s(lp332
(g139
I43
tp333
atp334
a(S'2011'
p335
(dp336
g6
F0.013923
sS'NUM'
p337
F0.986077
s(lp338
tp339
a(S'\xc3\xa0'
p340
(dp341
S'ADP'
p342
F1.0
s(lp343
tp344
a(S'2013'
p345
(dp346
g6
F0.000409
sS'NUM'
p347
F0.999591
s(lp348
(S'2011-2013'
p349
I44
tp350
atp351
a(g152
(dp352
g141
F1.0
s(lp353
(g152
I45
tp354
atp355
a(g215
(dp356
g141
F1.0
s(lp357
(g215
I46
tp358
atp359
a(S'eu'
p360
(dp361
S'VERB'
p362
F1.0
s(lp363
tp364
a(S'\xc3\xa9gard'
p365
(dp366
S'NOUN'
p367
F1.0
s(lp368
(S'given'
p369
I47
tp370
atp371
a(S'aux'
p372
(dp373
S'ADP'
p374
F1.0
s(lp375
(S'the'
p376
I48
tp377
atp378
a(S'sommes'
p379
(dp380
S'VERB'
p381
F3.9e-05
sS'NOUN'
p382
F0.999961
s(lp383
(S'sums'
p384
I50
tp385
atp386
a(S'consid\xc3\xa9rables'
p387
(dp388
S'ADJ'
p389
F1.0
s(lp390
(S'considerable'
p391
I49
tp392
atp393
a(g139
(dp394
g141
F1.0
s(lp395
(g139
I51
tp396
atp397
a(S'28,8'
p398
(dp399
g6
F0.000175
sS'NUM'
p400
F0.999825
s(lp401
(S'28.8'
p402
I53
tp403
atp404
a(S'milliards'
p405
(dp406
S'NOUN'
p407
F1.0
s(lp408
(S'billion'
p409
I54
tp410
atp411
a(S"d'"
p412
(dp413
S'NOUN'
p414
F0.032441
sS'VERB'
p415
F0.694014
sS'ADJ'
p416
F0.273544
s(lp417
tp418
a(S'euros'
p419
(dp420
S'NOUN'
p421
F1.0
s(lp422
(S'eur'
p423
I52
tp424
atp425
a(S'sur'
p426
(dp427
S'ADP'
p428
F1.0
s(lp429
(S'over'
p430
I55
tp431
atp432
a(S'3'
p433
(dp434
g6
F1.5e-05
sS'NUM'
p435
F0.999985
s(lp436
(S'three'
p437
I56
tp438
atp439
a(S'ans'
p440
(dp441
S'NOUN'
p442
F1.0
s(lp443
(S'years'
p444
I57
tp445
atp446
a(g152
(dp447
g141
F1.0
s(lp448
(g152
I58
tp449
atp450
a(S'qui'
p451
(dp452
S'PRON'
p453
F1.0
s(lp454
tp455
a(S'restent'
p456
(dp457
S'VERB'
p458
F1.0
s(lp459
(S'still'
p460
I59
tp461
atp462
a(S'\xc3\xa0'
p463
(dp464
S'ADP'
p465
F1.0
s(lp466
(S'to'
p467
I60
tp468
atp469
a(S'programmer'
p470
(dp471
S'VERB'
p472
F1.0
s(lp473
(S'programmed'
p474
I62
tp475
atp476
a(g215
(dp477
g141
F1.0
s(lp478
(g215
I63
tp479
atp480
a(S'des'
p481
(dp482
S'DET'
p483
F0.000338
sS'ADP'
p484
F0.999662
s(lp485
(S'the'
p486
I64
tp487
atp488
a(S'objectifs'
p489
(dp490
S'ADJ'
p491
F0.319222
sS'NOUN'
p492
F0.680778
s(lp493
(S'objectives'
p494
I65
tp495
atp496
a(S'\xc3\xa0'
p497
(dp498
S'ADP'
p499
F1.0
s(lp500
(S'to'
p501
I66
tp502
atp503
a(S'atteindre'
p504
(dp505
S'VERB'
p506
F1.0
s(lp507
(S'achieved'
p508
I68
tp509
atp510
a(S'pour'
p511
(dp512
S'CONJ'
p513
F0.020563
sS'ADP'
p514
F0.979437
s(lp515
(S'for'
p516
I69
tp517
atp518
a(S'ue'
p519
(dp520
S'VERB'
p521
F0.001006
sS'NOUN'
p522
F0.998994
s(lp523
(S'eu'
p524
I70
tp525
atp526
a(S'2020'
p527
(dp528
g6
F0.000424
sS'NUM'
p529
F0.999576
s(lp530
(S'2020'
p531
I71
tp532
atp533
a(S'et'
p534
(dp535
S'CONJ'
p536
F1.0
s(lp537
(S'and'
p538
I72
tp539
atp540
a(S'de'
p541
(dp542
S'ADP'
p543
F1.0
s(lp544
tp545
a(S'la'
p546
(dp547
S'PRON'
p548
F1.2e-05
sS'DET'
p549
F0.999988
sS'NOUN'
p550
F0.0
s(lp551
tp552
a(S'pr\xc3\xa9paration'
p553
(dp554
S'NOUN'
p555
F1.0
s(lp556
(S'preparation'
p557
I73
tp558
atp559
a(S"d'"
p560
(dp561
S'NOUN'
p562
F0.032441
sS'VERB'
p563
F0.694014
sS'ADJ'
p564
F0.273544
s(lp565
(S'for'
p566
I74
tp567
atp568
a(S'un'
p569
(dp570
S'NOUN'
p571
F6.9e-05
sS'NUM'
p572
F0.025547
sS'DET'
p573
F0.974383
s(lp574
(S'a'
p575
I75
tp576
atp577
a(S'espace'
p578
(dp579
S'VERB'
p580
F5.7e-05
sS'NOUN'
p581
F0.999942
s(lp582
(S'area'
p583
I78
tp584
atp585
a(S'europ\xc3\xa9en'
p586
(dp587
S'NOUN'
p588
F0.007086
sS'ADJ'
p589
F0.992914
s(lp590
(S'european'
p591
I76
tp592
atp593
a(S'de'
p594
(dp595
S'ADP'
p596
F1.0
s(lp597
(S'research'
p598
I77
tp599
atp600
a(S'la'
p601
(dp602
S'PRON'
p603
F0.000119
sS'DET'
p604
F0.99988
sS'NOUN'
p605
F0.0
s(lp606
(g598
I77
tp607
atp608
a(S'recherche'
p609
(dp610
S'VERB'
p611
F0.00015000000000000001
sS'NOUN'
p612
F0.99985
s(lp613
tp614
a(S'et'
p615
(dp616
S'CONJ'
p617
F1.0
s(lp618
(S'and'
p619
I79
tp620
atp621
a(S'de'
p622
(dp623
S'ADP'
p624
F1.0
s(lp625
(g598
I77
tp626
atp627
a(S"l'"
p628
(dp629
S'ADJ'
p630
F0.160704
sS'VERB'
p631
F0.06480800000000002
sS'NOUN'
p632
F0.774488
s(lp633
(S'the'
p634
I80
tp635
atp636
a(S'union'
p637
(dp638
S'NOUN'
p639
F1.0
s(lp640
(S'union'
p641
I82
tp642
atp643
a(S'pour'
p644
(dp645
S'CONJ'
p646
F0.312104
sS'ADP'
p647
F0.687896
s(lp648
tp649
a(S"l'"
p650
(dp651
S'ADJ'
p652
F0.128662
sS'VERB'
p653
F0.32284500000000005
sS'NOUN'
p654
F0.548493
s(lp655
tp656
a(S'innovation'
p657
(dp658
S'NOUN'
p659
F1.0
s(lp660
(S'innovation'
p661
I81
tp662
atp663
a(g141
(dp664
g141
F1.0
s(lp665
(g141
I83
tp666
atp667
asS'en'
p668
(lp669
(g10
(dp670
g6
F0.006032
sS'NOUN'
p671
F0.9939680000000001
s(lp672
(g10
I0
tp673
atp674
a(g22
(dp675
S'VERB'
p676
F1.0
s(lp677
(g22
I1
tp678
atp679
a(g30
(dp680
S'ADV'
p681
F0.001642
sS'PRT'
p682
F0.007631
sS'ADP'
p683
F0.990727
s(lp684
(g30
I2
tp685
atp686
a(g37
(dp687
S'VERB'
p688
F0.002253
sS'NOUN'
p689
F0.997747
s(lp690
(g37
I3
tp691
atp692
a(g44
(dp693
S'ADP'
p694
F1.0
s(lp695
(g44
I4
tp696
atp697
a(g51
(dp698
S'ADV'
p699
F3e-06
sS'NOUN'
p700
F1.9e-05
sS'DET'
p701
F0.999978
s(lp702
(g51
I5
tp703
atp704
a(g58
(dp705
S'NOUN'
p706
F1.0
s(lp707
(g58
I6
tp708
atp709
a(g72
(dp710
S'ADV'
p711
F0.001662
sS'ADP'
p712
F0.998338
s(lp713
(g72
I7
tp714
atp715
a(g79
(dp716
S'PRON'
p717
F1.0
s(lp718
(g79
I8
tp719
atp720
a(g87
(dp721
S'VERB'
p722
F0.995902
sS'NOUN'
p723
F0.004098
s(lp724
(g87
I9
tp725
atp726
a(g96
(dp727
S'ADP'
p728
F1.0
s(lp729
(g96
I10
tp730
atp731
a(g105
(dp732
S'NOUN'
p733
F2e-06
sS'DET'
p734
F0.999998
s(lp735
(g105
I11
tp736
atp737
a(g112
(dp738
S'VERB'
p739
F0.0040809999999999996
sS'NOUN'
p740
F0.995919
s(lp741
(g112
I12
tp742
atp743
a(g119
(dp744
S'ADP'
p745
F1.0
s(lp746
(g119
I13
tp747
atp748
a(S'the'
p749
(dp750
S'NOUN'
p751
F1e-06
sS'DET'
p752
F0.999999
s(lp753
(g749
I14
tp754
atp755
a(g127
(dp756
S'ADV'
p757
F9.1e-05
sS'NOUN'
p758
F0.0041
sS'ADJ'
p759
F0.995809
s(lp760
(g127
I15
tp761
atp762
a(g136
(dp763
S'NOUN'
p764
F1.0
s(lp765
(g136
I16
tp766
atp767
a(S'programme'
p768
(dp769
S'VERB'
p770
F0.04703
sS'NOUN'
p771
F0.95297
s(lp772
(g768
I17
tp773
atp774
a(g139
(dp775
g141
F1.0
s(lp776
(g139
I18
tp777
atp778
a(g149
(dp779
S'NOUN'
p780
F0.00824
sS'ADJ'
p781
F0.99176
s(lp782
(g149
I19
tp783
atp784
a(g152
(dp785
g141
F1.0
s(lp786
(g152
I20
tp787
atp788
a(S'to'
p789
(dp790
S'ADV'
p791
F0.0
sS'PRT'
p792
F1.0
sS'ADP'
p793
F0.0
s(lp794
(g789
I21
tp795
atp796
a(S'take'
p797
(dp798
S'VERB'
p799
F0.99988
sS'NOUN'
p800
F0.00012
s(lp801
(g797
I22
tp802
atp803
a(g168
(dp804
S'VERB'
p805
F0.011321
sS'NOUN'
p806
F0.988679
s(lp807
(g168
I23
tp808
atp809
a(g305
(dp810
S'ADP'
p811
F1.0
s(lp812
(g305
I24
tp813
atp814
a(g256
(dp815
S'NOUN'
p816
F1e-06
sS'DET'
p817
F0.999999
s(lp818
(g256
I25
tp819
atp820
a(g233
(dp821
S'ADJ'
p822
F1.0
s(lp823
(g233
I26
tp824
atp825
a(g181
(dp826
S'NOUN'
p827
F1.0
s(lp828
(g181
I27
tp829
atp830
a(g241
(dp831
S'ADV'
p832
F0.000295
sS'PRT'
p833
F0.000234
sS'ADP'
p834
F0.999471
s(lp835
(g241
I28
tp836
atp837
a(g248
(dp838
S'ADV'
p839
F0.0
sS'DET'
p840
F1.0
s(lp841
(g248
I29
tp842
atp843
a(g271
(dp844
S'NOUN'
p845
F1.0
s(lp846
(g271
I30
tp847
atp848
a(g263
(dp849
S'VERB'
p850
F0.000876
sS'NOUN'
p851
F0.999124
s(lp852
(g263
I31
tp853
atp854
a(g188
(dp855
S'ADP'
p856
F1.0
s(lp857
(g188
I32
tp858
atp859
a(g197
(dp860
S'NOUN'
p861
F1e-06
sS'DET'
p862
F0.999999
s(lp863
(g197
I33
tp864
atp865
a(g212
(dp866
S'ADJ'
p867
F1.0
s(lp868
(g212
I34
tp869
atp870
a(g204
(dp871
S'NOUN'
p872
F1.0
s(lp873
(g204
I35
tp874
atp875
a(g282
(dp876
S'ADP'
p877
F1.0
s(lp878
(g282
I36
tp879
atp880
a(g291
(dp881
S'NOUN'
p882
F1e-06
sS'DET'
p883
F0.999999
s(lp884
(g291
I37
tp885
atp886
a(g313
(dp887
S'NOUN'
p888
F0.001081
sS'ADJ'
p889
F0.998919
s(lp890
(g313
I38
tp891
atp892
a(g298
(dp893
S'NOUN'
p894
F1.0
s(lp895
(g298
I39
tp896
atp897
a(g320
(dp898
S'ADP'
p899
F1.0
s(lp900
(g320
I40
tp901
atp902
a(S'the'
p903
(dp904
S'NOUN'
p905
F2e-06
sS'DET'
p906
F0.999998
s(lp907
(g903
I41
tp908
atp909
a(g328
(dp910
S'VERB'
p911
F0.003569
sS'NOUN'
p912
F0.996431
s(lp913
(g328
I42
tp914
atp915
a(g139
(dp916
g141
F1.0
s(lp917
(g139
I43
tp918
atp919
a(g349
(dp920
S'ADJ'
p921
F1e-06
sg6
F0.995335
sS'ADV'
p922
F0.0
sS'NUM'
p923
F0.00466
sS'NOUN'
p924
F4e-06
s(lp925
(g349
I44
tp926
atp927
a(g152
(dp928
g141
F1.0
s(lp929
(g152
I45
tp930
atp931
a(g215
(dp932
g141
F1.0
s(lp933
(g215
I46
tp934
atp935
a(g369
(dp936
S'VERB'
p937
F0.998092
sS'ADJ'
p938
F0.001908
s(lp939
(g369
I47
tp940
atp941
a(g376
(dp942
S'NOUN'
p943
F2e-06
sS'DET'
p944
F0.999998
s(lp945
(g376
I48
tp946
atp947
a(g391
(dp948
S'ADJ'
p949
F1.0
s(lp950
(g391
I49
tp951
atp952
a(g384
(dp953
S'VERB'
p954
F5.9e-05
sS'NOUN'
p955
F0.999941
s(lp956
(g384
I50
tp957
atp958
a(g139
(dp959
g141
F1.0
s(lp960
(g139
I51
tp961
atp962
a(g423
(dp963
S'ADJ'
p964
F0.015897
sS'VERB'
p965
F0.003913
sS'NOUN'
p966
F0.9801899999999999
s(lp967
(g423
I52
tp968
atp969
a(g402
(dp970
S'ADV'
p971
F0.000308
sS'ADJ'
p972
F5.1e-05
sS'NUM'
p973
F0.996792
sS'NOUN'
p974
F0.002848
sg6
F0.0
s(lp975
(g402
I53
tp976
atp977
a(g409
(dp978
S'NUM'
p979
F0.999414
sS'NOUN'
p980
F0.0005859999999999999
s(lp981
(g409
I54
tp982
atp983
a(g430
(dp984
S'ADV'
p985
F0.023935
sS'PRT'
p986
F0.025324
sS'NOUN'
p987
F2.5e-05
sS'ADP'
p988
F0.950716
s(lp989
(g430
I55
tp990
atp991
a(g437
(dp992
S'NUM'
p993
F0.99995
sS'NOUN'
p994
F5e-05
s(lp995
(g437
I56
tp996
atp997
a(g444
(dp998
S'NOUN'
p999
F1.0
s(lp1000
(g444
I57
tp1001
atp1002
a(g152
(dp1003
g141
F1.0
s(lp1004
(g152
I58
tp1005
atp1006
a(g460
(dp1007
S'ADV'
p1008
F0.998091
sS'NOUN'
p1009
F0.000399
sS'VERB'
p1010
F0.00076
sS'ADJ'
p1011
F0.000749
s(lp1012
(g460
I59
tp1013
atp1014
a(g467
(dp1015
S'ADV'
p1016
F0.0
sS'PRT'
p1017
F1.0
sS'ADP'
p1018
F0.0
s(lp1019
(g467
I60
tp1020
atp1021
a(S'be'
p1022
(dp1023
S'VERB'
p1024
F1.0
s(lp1025
(g1022
I61
tp1026
atp1027
a(g474
(dp1028
S'VERB'
p1029
F0.983769
sS'ADJ'
p1030
F0.016231
s(lp1031
(g474
I62
tp1032
atp1033
a(g215
(dp1034
g141
F1.0
s(lp1035
(g215
I63
tp1036
atp1037
a(g486
(dp1038
S'NOUN'
p1039
F3e-05
sS'DET'
p1040
F0.99997
s(lp1041
(g486
I64
tp1042
atp1043
a(g494
(dp1044
S'NOUN'
p1045
F1.0
s(lp1046
(g494
I65
tp1047
atp1048
a(g501
(dp1049
S'ADV'
p1050
F0.0
sS'PRT'
p1051
F1.0
sS'ADP'
p1052
F0.0
s(lp1053
(g501
I66
tp1054
atp1055
a(S'be'
p1056
(dp1057
S'VERB'
p1058
F1.0
s(lp1059
(g1056
I67
tp1060
atp1061
a(g508
(dp1062
S'VERB'
p1063
F1.0
s(lp1064
(g508
I68
tp1065
atp1066
a(g516
(dp1067
S'ADP'
p1068
F1.0
s(lp1069
(g516
I69
tp1070
atp1071
a(g524
(dp1072
S'ADV'
p1073
F0.00673
sS'ADJ'
p1074
F0.001798
sS'VERB'
p1075
F0.006647
sS'NOUN'
p1076
F0.984826
s(lp1077
(g524
I70
tp1078
atp1079
a(g531
(dp1080
S'ADV'
p1081
F7.3e-05
sS'ADJ'
p1082
F0.00074
sS'NUM'
p1083
F0.984043
sS'NOUN'
p1084
F0.015144
sg6
F0.0
s(lp1085
(g531
I71
tp1086
atp1087
a(g538
(dp1088
S'CONJ'
p1089
F0.999921
sS'NOUN'
p1090
F7.9e-05
s(lp1091
(g538
I72
tp1092
atp1093
a(g557
(dp1094
S'NOUN'
p1095
F1.0
s(lp1096
(g557
I73
tp1097
atp1098
a(g566
(dp1099
S'ADP'
p1100
F1.0
s(lp1101
(g566
I74
tp1102
atp1103
a(g575
(dp1104
S'NOUN'
p1105
F0.0
sS'DET'
p1106
F1.0
s(lp1107
(g575
I75
tp1108
atp1109
a(g591
(dp1110
S'NOUN'
p1111
F0.10885399999999999
sS'VERB'
p1112
F1.1e-05
sS'ADJ'
p1113
F0.891134
s(lp1114
(g591
I76
tp1115
atp1116
a(g598
(dp1117
S'VERB'
p1118
F5.6e-05
sS'NOUN'
p1119
F0.999944
s(lp1120
(g598
I77
tp1121
atp1122
a(g583
(dp1123
S'NOUN'
p1124
F1.0
s(lp1125
(g583
I78
tp1126
atp1127
a(g619
(dp1128
S'CONJ'
p1129
F1.0
sS'NOUN'
p1130
F0.0
s(lp1131
(g619
I79
tp1132
atp1133
a(g634
(dp1134
S'NOUN'
p1135
F2e-06
sS'DET'
p1136
F0.999998
s(lp1137
(g634
I80
tp1138
atp1139
a(g661
(dp1140
S'NOUN'
p1141
F1.0
s(lp1142
(g661
I81
tp1143
atp1144
a(g641
(dp1145
S'NOUN'
p1146
F1.0
s(lp1147
(g641
I82
tp1148
atp1149
a(g141
(dp1150
g141
F1.0
s(lp1151
(g141
I83
tp1152
atp1153
asS'nl'
p1154
(lp1155
(S'ik'
p1156
(dp1157
S'PRON'
p1158
F0.999981
sS'NOUN'
p1159
F1.9e-05
s(lp1160
(g10
I0
tp1161
atp1162
a(S'heb'
p1163
(dp1164
S'VERB'
p1165
F1.0
s(lp1166
tp1167
a(S'voor'
p1168
(dp1169
S'ADV'
p1170
F0.005537
sS'CONJ'
p1171
F2.2e-05
sS'NOUN'
p1172
F0.0
sS'ADP'
p1173
F0.99444
s(lp1174
(g37
I3
tp1175
atp1176
a(S'deze'
p1177
(dp1178
S'PRON'
p1179
F1.0
s(lp1180
(g51
I5
tp1181
atp1182
a(S'resolutie'
p1183
(dp1184
S'NOUN'
p1185
F1.0
s(lp1186
(g58
I6
tp1187
atp1188
a(S'gestemd'
p1189
(dp1190
S'VERB'
p1191
F0.970571
sS'ADJ'
p1192
F0.029429
s(lp1193
(g22
I1
tp1194
atp1195
a(S'omdat'
p1196
(dp1197
S'CONJ'
p1198
F1.0
s(lp1199
(g72
I7
tp1200
atp1201
a(S'het'
p1202
(dp1203
S'PRON'
p1204
F0.086905
sS'DET'
p1205
F0.913095
s(lp1206
(g79
I8
tp1207
atp1208
a(S'europees'
p1209
(dp1210
S'NOUN'
p1211
F0.044821
sS'ADJ'
p1212
F0.955179
s(lp1213
(g524
I70
tp1214
atp1215
a(S'parlement'
p1216
(dp1217
S'NOUN'
p1218
F1.0
s(lp1219
(g402
I53
tp1220
atp1221
a(S'er'
p1222
(dp1223
S'ADV'
p1224
F1.0
s(lp1225
(g87
I9
tp1226
atp1227
a(S'in'
p1228
(dp1229
S'ADV'
p1230
F0.009731
sS'VERB'
p1231
F3e-06
sS'ADP'
p1232
F0.990266
s(lp1233
(g96
I10
tp1234
atp1235
a(S'de'
p1236
(dp1237
S'DET'
p1238
F1.0
s(lp1239
(g105
I11
tp1240
atp1241
a(S'tekst'
p1242
(dp1243
S'NOUN'
p1244
F1.0
s(lp1245
(g402
I53
tp1246
atp1247
a(S'op'
p1248
(dp1249
S'ADV'
p1250
F0.996415
sS'ADJ'
p1251
F3.8e-05
sS'ADP'
p1252
F0.003547
s(lp1253
tp1254
a(S'aandringt'
p1255
(dp1256
S'VERB'
p1257
F1.0
s(lp1258
(g402
I53
tp1259
atp1260
a(S'het'
p1261
(dp1262
S'PRON'
p1263
F0.002494
sS'DET'
p1264
F0.997506
s(lp1265
(g749
I14
tp1266
atp1267
a(S'zevende'
p1268
(dp1269
S'NUM'
p1270
F0.991496
sS'NOUN'
p1271
F0.000713
sS'VERB'
p1272
F0.007791
s(lp1273
(g127
I15
tp1274
atp1275
a(S'kaderprogramma'
p1276
(dp1277
S'NOUN'
p1278
F1.0
s(lp1279
(g136
I16
tp1280
atp1281
a(S'zo'
p1282
(dp1283
S'ADV'
p1284
F0.999907
sg6
F0.0
sS'CONJ'
p1285
F9.3e-05
s(lp1286
(g797
I22
tp1287
atp1288
a(S'in'
p1289
(dp1290
S'ADV'
p1291
F0.998759
sS'VERB'
p1292
F3e-05
sS'ADP'
p1293
F0.001211
s(lp1294
tp1295
a(S'te'
p1296
(dp1297
S'PRT'
p1298
F1.0
s(lp1299
(g789
I21
tp1300
atp1301
a(S'richten'
p1302
(dp1303
S'VERB'
p1304
F1.0
sS'NOUN'
p1305
F0.0
s(lp1306
(g402
I53
tp1307
atp1308
a(S'dat'
p1309
(dp1310
S'PRON'
p1311
F0.102157
sS'CONJ'
p1312
F0.897843
s(lp1313
tp1314
a(S'in'
p1315
(dp1316
S'ADV'
p1317
F0.009942
sS'VERB'
p1318
F1e-06
sS'ADP'
p1319
F0.990058
s(lp1320
(g30
I2
tp1321
atp1322
a(S'de'
p1323
(dp1324
S'DET'
p1325
F1.0
s(lp1326
(g291
I37
tp1327
atp1328
a(S'laatste'
p1329
(dp1330
S'NOUN'
p1331
F0.000504
sS'ADJ'
p1332
F0.999496
s(lp1333
(g313
I38
tp1334
atp1335
a(S'jaren'
p1336
(dp1337
S'NOUN'
p1338
F1.0
s(lp1339
(g298
I39
tp1340
atp1341
a(S'van'
p1342
(dp1343
S'ADP'
p1344
F1.0
s(lp1345
(g320
I40
tp1346
atp1347
a(S'het'
p1348
(dp1349
S'PRON'
p1350
F0.000927
sS'DET'
p1351
F0.999073
s(lp1352
(g903
I41
tp1353
atp1354
a(S'programma'
p1355
(dp1356
S'NOUN'
p1357
F1.0
s(lp1358
(g328
I42
tp1359
atp1360
a(g139
(dp1361
g141
F1.0
s(lp1362
(g139
I43
tp1363
atp1364
a(S'2011-2013'
p1365
(dp1366
S'NUM'
p1367
F1.0
s(lp1368
(g349
I44
tp1369
atp1370
a(g152
(dp1371
g141
F1.0
s(lp1372
(g152
I45
tp1373
atp1374
a(S'recht'
p1375
(dp1376
S'ADJ'
p1377
F7.2e-05
sS'VERB'
p1378
F2e-06
sS'NOUN'
p1379
F0.999926
s(lp1380
(g402
I53
tp1381
atp1382
a(S'wordt'
p1383
(dp1384
S'VERB'
p1385
F1.0
s(lp1386
(g168
I23
tp1387
atp1388
a(S'gedaan'
p1389
(dp1390
S'VERB'
p1391
F0.999975
sS'ADJ'
p1392
F2.5e-05
s(lp1393
(g402
I53
tp1394
atp1395
a(S'aan'
p1396
(dp1397
S'ADV'
p1398
F0.000278
sS'ADP'
p1399
F0.999722
s(lp1400
(g305
I24
tp1401
atp1402
a(S'de'
p1403
(dp1404
S'DET'
p1405
F1.0
s(lp1406
(g256
I25
tp1407
atp1408
a(S'uiteenlopende'
p1409
(dp1410
S'NOUN'
p1411
F1.6e-05
sS'VERB'
p1412
F0.115196
sS'ADJ'
p1413
F0.884788
s(lp1414
(g233
I26
tp1415
atp1416
a(S'gevolgen'
p1417
(dp1418
S'NOUN'
p1419
F1.0
s(lp1420
(g181
I27
tp1421
atp1422
a(S'van'
p1423
(dp1424
S'ADP'
p1425
F1.0
s(lp1426
(g188
I32
tp1427
atp1428
a(S'de'
p1429
(dp1430
S'DET'
p1431
F1.0
s(lp1432
(g197
I33
tp1433
atp1434
a(S'economische'
p1435
(dp1436
S'NOUN'
p1437
F3.9e-05
sS'ADJ'
p1438
F0.999961
s(lp1439
(g212
I34
tp1440
atp1441
a(S'crisis'
p1442
(dp1443
S'NOUN'
p1444
F1.0
s(lp1445
(g204
I35
tp1446
atp1447
a(S'voor'
p1448
(dp1449
S'ADV'
p1450
F0.001935
sS'CONJ'
p1451
F3e-06
sS'NOUN'
p1452
F0.0
sS'ADP'
p1453
F0.998062
s(lp1454
(g282
I36
tp1455
atp1456
a(S'de'
p1457
(dp1458
S'DET'
p1459
F1.0
s(lp1460
tp1461
a(S'respectieve'
p1462
(dp1463
S'NOUN'
p1464
F0.000209
sS'ADJ'
p1465
F0.999791
s(lp1466
(g248
I29
tp1467
atp1468
a(S'lidstaten'
p1469
(dp1470
S'NOUN'
p1471
F1.0
s(lp1472
(g271
I30
tp1473
atp1474
a(g215
(dp1475
g141
F1.0
s(lp1476
(g215
I46
tp1477
atp1478
a(S'gezien'
p1479
(dp1480
S'VERB'
p1481
F0.008349
sS'ADJ'
p1482
F4.2e-05
sS'ADP'
p1483
F0.991609
s(lp1484
(g369
I47
tp1485
atp1486
a(S'de'
p1487
(dp1488
S'DET'
p1489
F1.0
s(lp1490
(g376
I48
tp1491
atp1492
a(S'omvangrijke'
p1493
(dp1494
S'NOUN'
p1495
F0.001584
sS'ADJ'
p1496
F0.998416
s(lp1497
(g391
I49
tp1498
atp1499
a(S'bedragen'
p1500
(dp1501
S'VERB'
p1502
F0.0269
sS'NOUN'
p1503
F0.9731
s(lp1504
(g384
I50
tp1505
atp1506
a(g139
(dp1507
g141
F1.0
s(lp1508
(g139
I51
tp1509
atp1510
a(S'28,8'
p1511
(dp1512
S'NUM'
p1513
F1.0
s(lp1514
tp1515
a(S'miljard'
p1516
(dp1517
S'NUM'
p1518
F0.992456
sS'NOUN'
p1519
F0.007544
s(lp1520
(g409
I54
tp1521
atp1522
a(S'euro'
p1523
(dp1524
S'NOUN'
p1525
F1.0
s(lp1526
(g423
I52
tp1527
atp1528
a(S'voor'
p1529
(dp1530
S'ADV'
p1531
F0.005464
sS'CONJ'
p1532
F5e-06
sS'NOUN'
p1533
F0.0
sS'ADP'
p1534
F0.994531
s(lp1535
(g430
I55
tp1536
atp1537
a(S'drie'
p1538
(dp1539
S'NUM'
p1540
F1.0
s(lp1541
(g437
I56
tp1542
atp1543
a(S'jaar'
p1544
(dp1545
S'NOUN'
p1546
F1.0
s(lp1547
(g444
I57
tp1548
atp1549
a(g152
(dp1550
g141
F1.0
s(lp1551
(g152
I58
tp1552
atp1553
a(S'die'
p1554
(dp1555
S'PRON'
p1556
F1.000001
s(lp1557
tp1558
a(S'nog'
p1559
(dp1560
S'ADV'
p1561
F1.0
s(lp1562
(g460
I59
tp1563
atp1564
a(S'moeten'
p1565
(dp1566
S'VERB'
p1567
F0.999948
sS'NOUN'
p1568
F5.2e-05
s(lp1569
(g467
I60
tp1570
atp1571
a(S'worden'
p1572
(dp1573
S'VERB'
p1574
F1.0
sS'NOUN'
p1575
F0.0
s(lp1576
(g1022
I61
tp1577
atp1578
a(S'geprogrammeerd'
p1579
(dp1580
S'VERB'
p1581
F0.999695
sS'ADJ'
p1582
F0.000305
s(lp1583
(g474
I62
tp1584
atp1585
a(g215
(dp1586
g141
F1.0
s(lp1587
(g215
I63
tp1588
atp1589
a(S'de'
p1590
(dp1591
S'DET'
p1592
F1.0
s(lp1593
(g486
I64
tp1594
atp1595
a(S'doelstellingen'
p1596
(dp1597
S'NOUN'
p1598
F1.0
s(lp1599
(g494
I65
tp1600
atp1601
a(S'die'
p1602
(dp1603
S'PRON'
p1604
F1.0
s(lp1605
tp1606
a(S'in'
p1607
(dp1608
S'ADV'
p1609
F0.009297
sS'VERB'
p1610
F1e-06
sS'ADP'
p1611
F0.990702
s(lp1612
(g241
I28
tp1613
atp1614
a(S'het'
p1615
(dp1616
S'PRON'
p1617
F0.0009350000000000001
sS'DET'
p1618
F0.999065
s(lp1619
(g149
I19
tp1620
atp1621
a(S'kader'
p1622
(dp1623
S'NOUN'
p1624
F1.0
s(lp1625
(g768
I17
tp1626
atp1627
a(S'van'
p1628
(dp1629
S'ADP'
p1630
F1.0
s(lp1631
(g516
I69
tp1632
atp1633
a(S'eu-2020'
p1634
(dp1635
S'ADJ'
p1636
F0.052745
sS'NOUN'
p1637
F0.9472550000000001
s(lp1638
(g402
I53
tp1639
atp1640
a(S'moeten'
p1641
(dp1642
S'VERB'
p1643
F0.999895
sS'NOUN'
p1644
F0.000105
s(lp1645
(g501
I66
tp1646
atp1647
a(S'worden'
p1648
(dp1649
S'VERB'
p1650
F1.0
sS'NOUN'
p1651
F0.0
s(lp1652
(g1056
I67
tp1653
atp1654
a(S'gerealiseerd'
p1655
(dp1656
S'VERB'
p1657
F1.0
s(lp1658
(g508
I68
tp1659
atp1660
a(S'en'
p1661
(dp1662
S'CONJ'
p1663
F1.0
s(lp1664
(g538
I72
tp1665
atp1666
a(S'de'
p1667
(dp1668
S'DET'
p1669
F1.0
s(lp1670
tp1671
a(S'voorbereidingen'
p1672
(dp1673
S'NOUN'
p1674
F1.0
s(lp1675
(g557
I73
tp1676
atp1677
a(S'voor'
p1678
(dp1679
S'ADV'
p1680
F0.002234
sS'CONJ'
p1681
F7e-06
sS'NOUN'
p1682
F0.0
sS'ADP'
p1683
F0.997759
s(lp1684
(g566
I74
tp1685
atp1686
a(S'de'
p1687
(dp1688
S'DET'
p1689
F1.0
s(lp1690
(g575
I75
tp1691
atp1692
a(S'europese'
p1693
(dp1694
S'NOUN'
p1695
F1.0
s(lp1696
(g591
I76
tp1697
atp1698
a(S'onderzoeksruimte'
p1699
(dp1700
S'NOUN'
p1701
F1.0
s(lp1702
(g598
I77
tp1703
atp1704
a(S'en'
p1705
(dp1706
S'CONJ'
p1707
F1.0
s(lp1708
(g619
I79
tp1709
atp1710
a(S'de'
p1711
(dp1712
S'DET'
p1713
F1.0
s(lp1714
(g634
I80
tp1715
atp1716
a(S'innovatie-unie'
p1717
(dp1718
S'NOUN'
p1719
F1.0
s(lp1720
(g661
I81
tp1721
atp1722
a(g141
(dp1723
g141
F1.0
s(lp1724
(g141
I83
tp1725
atp1726
asS'de'
p1727
(lp1728
(S'ich'
p1729
(dp1730
S'PRON'
p1731
F1.0
s(lp1732
(g10
I0
tp1733
atp1734
a(S'habe'
p1735
(dp1736
S'VERB'
p1737
F1.0
s(lp1738
tp1739
a(S'f\xc3\xbcr'
p1740
(dp1741
S'ADP'
p1742
F1.0
s(lp1743
(g37
I3
tp1744
atp1745
a(S'diese'
p1746
(dp1747
S'PRON'
p1748
F1.0
s(lp1749
(g51
I5
tp1750
atp1751
a(S'entschlie\xc3\x9fung'
p1752
(dp1753
S'ADJ'
p1754
F0.000274
sS'NOUN'
p1755
F0.999685
s(lp1756
(g58
I6
tp1757
atp1758
a(S'gestimmt'
p1759
(dp1760
S'VERB'
p1761
F1.0
s(lp1762
(g22
I1
tp1763
atp1764
a(g215
(dp1765
g141
F1.0
s(lp1766
tp1767
a(S'weil'
p1768
(dp1769
S'CONJ'
p1770
F0.999999
sS'VERB'
p1771
F1e-06
s(lp1772
(g72
I7
tp1773
atp1774
a(S'sie'
p1775
(dp1776
S'PRON'
p1777
F1.0
s(lp1778
(g79
I8
tp1779
atp1780
a(S'fordert'
p1781
(dp1782
S'VERB'
p1783
F1.0
s(lp1784
(g87
I9
tp1785
atp1786
a(g215
(dp1787
g141
F1.0
s(lp1788
tp1789
a(S'dass'
p1790
(dp1791
S'CONJ'
p1792
F1.0
s(lp1793
(g96
I10
tp1794
atp1795
a(S'das'
p1796
(dp1797
S'PRON'
p1798
F0.327011
sS'DET'
p1799
F0.671153
s(lp1800
(g749
I14
tp1801
atp1802
a(S'7.'
p1803
(dp1804
S'NUM'
p1805
F1.0
s(lp1806
(g127
I15
tp1807
atp1808
a(S'rahmenprogramm'
p1809
(dp1810
S'ADJ'
p1811
F0.004677
sS'NOUN'
p1812
F0.992798
s(lp1813
(g136
I16
tp1814
atp1815
a(g139
(dp1816
g141
F1.0
s(lp1817
(g139
I18
tp1818
atp1819
a(S'rp7'
p1820
(dp1821
S'ADJ'
p1822
F0.697471
s(lp1823
(g149
I19
tp1824
atp1825
a(g152
(dp1826
g141
F1.0
s(lp1827
(g152
I20
tp1828
atp1829
a(S'genutzt'
p1830
(dp1831
S'VERB'
p1832
F0.962571
sS'ADJ'
p1833
F0.037429
s(lp1834
(g112
I12
tp1835
atp1836
a(S'wird'
p1837
(dp1838
S'VERB'
p1839
F1.0
s(lp1840
tp1841
a(g215
(dp1842
g141
F1.0
s(lp1843
tp1844
a(S'um'
p1845
(dp1846
S'CONJ'
p1847
F0.638654
sS'ADP'
p1848
F0.361212
s(lp1849
(g789
I21
tp1850
atp1851
a(S'den'
p1852
(dp1853
S'PRON'
p1854
F0.000752
sS'DET'
p1855
F0.999199
s(lp1856
(g256
I25
tp1857
atp1858
a(S'unterschiedlichen'
p1859
(dp1860
S'ADJ'
p1861
F1.0
s(lp1862
(g233
I26
tp1863
atp1864
a(S'auswirkungen'
p1865
(dp1866
S'VERB'
p1867
F0.01201
sS'NOUN'
p1868
F0.98799
s(lp1869
(g181
I27
tp1870
atp1871
a(S'der'
p1872
(dp1873
S'PRON'
p1874
F2.2e-05
sS'DET'
p1875
F0.99997
s(lp1876
(g197
I33
tp1877
atp1878
a(S'wirtschaftskrise'
p1879
(dp1880
S'NOUN'
p1881
F0.9997539999999999
s(lp1882
(g204
I35
tp1883
atp1884
a(S'in'
p1885
(dp1886
S'ADP'
p1887
F1.0
s(lp1888
(g241
I28
tp1889
atp1890
a(S'den'
p1891
(dp1892
S'PRON'
p1893
F0.000112
sS'DET'
p1894
F0.999888
s(lp1895
(g105
I11
tp1896
atp1897
a(S'einzelnen'
p1898
(dp1899
S'ADJ'
p1900
F1.0
s(lp1901
(g248
I29
tp1902
atp1903
a(S'mitgliedstaaten'
p1904
(dp1905
S'ADJ'
p1906
F0.002124
sS'NOUN'
p1907
F0.99561
s(lp1908
(g271
I30
tp1909
atp1910
a(S'in'
p1911
(dp1912
S'ADP'
p1913
F1.0
s(lp1914
(g282
I36
tp1915
atp1916
a(S'den'
p1917
(dp1918
S'PRON'
p1919
F0.000112
sS'DET'
p1920
F0.999888
s(lp1921
(g291
I37
tp1922
atp1923
a(S'verbleibenden'
p1924
(dp1925
S'ADJ'
p1926
F1.0
s(lp1927
(g313
I38
tp1928
atp1929
a(S'jahren'
p1930
(dp1931
S'VERB'
p1932
F0.001361
sS'NOUN'
p1933
F0.998466
s(lp1934
(g298
I39
tp1935
atp1936
a(S'des'
p1937
(dp1938
S'DET'
p1939
F1.0
s(lp1940
(g320
I40
tp1941
atp1942
a(S'programms'
p1943
(dp1944
S'ADJ'
p1945
F0.002486
sS'NOUN'
p1946
F0.997395
s(lp1947
(g328
I42
tp1948
atp1949
a(g139
(dp1950
g141
F1.0
s(lp1951
(g139
I43
tp1952
atp1953
a(S'2011-2013'
p1954
(dp1955
S'NUM'
p1956
F0.739674
sS'ADJ'
p1957
F0.250443
s(lp1958
(g349
I44
tp1959
atp1960
a(g152
(dp1961
g141
F1.0
s(lp1962
(g152
I45
tp1963
atp1964
a(S'rechnung'
p1965
(dp1966
S'NOUN'
p1967
F0.337224
sS'ADJ'
p1968
F0.654976
s(lp1969
tp1970
a(S'zu'
p1971
(dp1972
S'PRT'
p1973
F0.9999750000000001
s(lp1974
tp1975
a(S'tragen'
p1976
(dp1977
S'VERB'
p1978
F1.0
s(lp1979
(g168
I23
tp1980
atp1981
a(g215
(dp1982
g141
F1.0
s(lp1983
(g215
I46
tp1984
atp1985
a(S'angesichts'
p1986
(dp1987
S'ADP'
p1988
F1.0
s(lp1989
tp1990
a(S'der'
p1991
(dp1992
S'PRON'
p1993
F1.7e-05
sS'DET'
p1994
F0.999978
s(lp1995
(g376
I48
tp1996
atp1997
a(S'tatsache'
p1998
(dp1999
S'ADJ'
p2000
F0.001273
sS'NOUN'
p2001
F0.998513
s(lp2002
(g369
I47
tp2003
atp2004
a(g215
(dp2005
g141
F1.0
s(lp2006
tp2007
a(S'dass'
p2008
(dp2009
S'CONJ'
p2010
F1.0
s(lp2011
tp2012
a(S'betr\xc3\xa4chtliche'
p2013
(dp2014
S'ADJ'
p2015
F1.0
s(lp2016
(g391
I49
tp2017
atp2018
a(S'summen'
p2019
(dp2020
S'VERB'
p2021
F1.0
s(lp2022
(g384
I50
tp2023
atp2024
a(g139
(dp2025
g141
F1.0
s(lp2026
(g139
I51
tp2027
atp2028
a(S'28,8'
p2029
(dp2030
S'NUM'
p2031
F1.0
s(lp2032
tp2033
a(S'mrd.'
p2034
(dp2035
S'VERB'
p2036
F0.3952
sS'NOUN'
p2037
F0.348816
s(lp2038
(g409
I54
tp2039
atp2040
a(S'eur'
p2041
(dp2042
S'ADJ'
p2043
F0.004265
sS'NOUN'
p2044
F0.995055
s(lp2045
(g423
I52
tp2046
atp2047
a(S'\xc3\xbcber'
p2048
(dp2049
S'PRT'
p2050
F5.2e-05
sS'ADP'
p2051
F0.999948
s(lp2052
(g430
I55
tp2053
atp2054
a(S'drei'
p2055
(dp2056
S'NUM'
p2057
F1.0
s(lp2058
(g437
I56
tp2059
atp2060
a(S'jahre'
p2061
(dp2062
S'ADJ'
p2063
F0.000373
sS'NOUN'
p2064
F0.999423
s(lp2065
(g444
I57
tp2066
atp2067
a(g152
(dp2068
g141
F1.0
s(lp2069
(g152
I58
tp2070
atp2071
a(S'noch'
p2072
(dp2073
S'ADV'
p2074
F0.977112
sS'CONJ'
p2075
F0.022888
s(lp2076
(g460
I59
tp2077
atp2078
a(S'vergeben'
p2079
(dp2080
S'VERB'
p2081
F1.0
s(lp2082
(g402
I53
tp2083
atp2084
a(S'werden'
p2085
(dp2086
S'VERB'
p2087
F0.99989
s(lp2088
(g1022
I61
tp2089
atp2090
a(S'm\xc3\xbcssen'
p2091
(dp2092
S'VERB'
p2093
F0.999729
s(lp2094
(g501
I66
tp2095
atp2096
a(g215
(dp2097
g141
F1.0
s(lp2098
(g215
I63
tp2099
atp2100
a(S'die'
p2101
(dp2102
S'PRON'
p2103
F0.992275
s(lp2104
(g486
I64
tp2105
atp2106
a(S'ziele'
p2107
(dp2108
S'VERB'
p2109
F1.0
s(lp2110
(g494
I65
tp2111
atp2112
a(S'der'
p2113
(dp2114
S'PRON'
p2115
F0.000695
sS'DET'
p2116
F0.999304
s(lp2117
(g516
I69
tp2118
atp2119
a(S'strategie'
p2120
(dp2121
S'ADJ'
p2122
F0.429882
sS'NOUN'
p2123
F0.559464
s(lp2124
(g531
I71
tp2125
atp2126
a(S'europa'
p2127
(dp2128
S'ADJ'
p2129
F0.248042
sS'NOUN'
p2130
F0.436806
s(lp2131
tp2132
a(S'2020'
p2133
(dp2134
S'NUM'
p2135
F1.0
s(lp2136
(g531
I71
tp2137
atp2138
a(S'noch'
p2139
(dp2140
S'ADV'
p2141
F0.858413
sS'CONJ'
p2142
F0.141587
s(lp2143
tp2144
a(S'zu'
p2145
(dp2146
S'PRT'
p2147
F0.999637
s(lp2148
(g467
I60
tp2149
atp2150
a(S'erzielen'
p2151
(dp2152
S'VERB'
p2153
F1.0
s(lp2154
(g508
I68
tp2155
atp2156
a(S'sind'
p2157
(dp2158
S'VERB'
p2159
F1.0
s(lp2160
(g1056
I67
tp2161
atp2162
a(S'und'
p2163
(dp2164
S'CONJ'
p2165
F1.0
s(lp2166
(g538
I72
tp2167
atp2168
a(S'der'
p2169
(dp2170
S'PRON'
p2171
F0.003843
sS'DET'
p2172
F0.995095
s(lp2173
(g566
I74
tp2174
atp2175
a(S'europ\xc3\xa4ische'
p2176
(dp2177
S'ADJ'
p2178
F1.0
s(lp2179
(g591
I76
tp2180
atp2181
a(S'forschungsraum'
p2182
(dp2183
g6
F0.225128
sS'NOUN'
p2184
F0.728236
s(lp2185
(g598
I77
tp2186
atp2187
a(S'sowie'
p2188
(dp2189
S'CONJ'
p2190
F1.0
s(lp2191
(g619
I79
tp2192
atp2193
a(S'die'
p2194
(dp2195
S'PRON'
p2196
F0.012335
sS'DET'
p2197
F0.976953
s(lp2198
(g634
I80
tp2199
atp2200
a(S'innovationsunion'
p2201
(dp2202
S'ADJ'
p2203
F0.040934
sS'NOUN'
p2204
F0.887646
s(lp2205
(g661
I81
tp2206
atp2207
a(S'noch'
p2208
(dp2209
S'ADV'
p2210
F0.930239
sS'CONJ'
p2211
F0.069761
s(lp2212
(g460
I59
tp2213
atp2214
a(S'vorbereitet'
p2215
(dp2216
S'VERB'
p2217
F0.985437
sS'ADJ'
p2218
F0.014561
s(lp2219
(g557
I73
tp2220
atp2221
a(S'werden'
p2222
(dp2223
S'VERB'
p2224
F0.9999020000000001
s(lp2225
tp2226
a(S'm\xc3\xbcssen'
p2227
(dp2228
S'VERB'
p2229
F0.999636
s(lp2230
(g797
I22
tp2231
atp2232
a(g141
(dp2233
g141
F1.0
s(lp2234
(g141
I83
tp2235
atp2236
asS'it'
p2237
(lp2238
(S'ho'
p2239
(dp2240
S'VERB'
p2241
F1.0
s(lp2242
(g10
I0
tp2243
atp2244
a(S'votato'
p2245
(dp2246
S'VERB'
p2247
F0.990109
sS'ADJ'
p2248
F0.009891
s(lp2249
(g22
I1
tp2250
atp2251
a(g575
(dp2252
S'CONJ'
p2253
F7.6e-05
sS'ADP'
p2254
F0.999924
s(lp2255
(g30
I2
tp2256
atp2257
a(S'favore'
p2258
(dp2259
S'NOUN'
p2260
F1.0
s(lp2261
(g37
I3
tp2262
atp2263
a(S'della'
p2264
(dp2265
S'DEF'
p2266
F0.001587
sS'ADP'
p2267
F0.998413
s(lp2268
(g44
I4
tp2269
atp2270
a(S'risoluzione'
p2271
(dp2272
S'NOUN'
p2273
F1.0
s(lp2274
(g58
I6
tp2275
atp2276
a(S'perch\xc3\xa9'
p2277
(dp2278
S'ADV'
p2279
F0.139673
sS'CONJ'
p2280
F0.82254
sS'NOUN'
p2281
F0.037787
s(lp2282
(g72
I7
tp2283
atp2284
a(S'in'
p2285
(dp2286
S'ADP'
p2287
F1.0
s(lp2288
tp2289
a(S'essa'
p2290
(dp2291
S'PRON'
p2292
F1.0
s(lp2293
tp2294
a(S'si'
p2295
(dp2296
S'PRON'
p2297
F0.999996
sS'NOUN'
p2298
F4e-06
s(lp2299
(g79
I8
tp2300
atp2301
a(S'chiede'
p2302
(dp2303
S'VERB'
p2304
F1.0
s(lp2305
(g87
I9
tp2306
atp2307
a(S'che'
p2308
(dp2309
S'PRON'
p2310
F0.86208
sS'CONJ'
p2311
F0.137494
sS'ADJ'
p2312
F0.000427
s(lp2313
(g96
I10
tp2314
atp2315
a(S"l'"
p2316
(dp2317
S'NOUN'
p2318
F0.00217
sS'VERB'
p2319
F0.9889040000000001
sS'ADJ'
p2320
F0.008924
s(lp2321
(g105
I11
tp2322
atp2323
a(S'attuazione'
p2324
(dp2325
S'NOUN'
p2326
F1.0
s(lp2327
(g112
I12
tp2328
atp2329
a(S'del'
p2330
(dp2331
S'DEF'
p2332
F0.002536
sS'ADP'
p2333
F0.997464
s(lp2334
(g119
I13
tp2335
atp2336
a(S'settimo'
p2337
(dp2338
S'NOUN'
p2339
F0.137283
sS'ADJ'
p2340
F0.862717
s(lp2341
(g127
I15
tp2342
atp2343
a(S'programma'
p2344
(dp2345
S'VERB'
p2346
F0.018582
sS'NOUN'
p2347
F0.981418
s(lp2348
(g768
I17
tp2349
atp2350
a(S'quadro'
p2351
(dp2352
S'NOUN'
p2353
F0.302674
sS'VERB'
p2354
F0.00214
sS'ADJ'
p2355
F0.695186
s(lp2356
(g136
I16
tp2357
atp2358
a(S'nei'
p2359
(dp2360
S'NOUN'
p2361
F0.000607
sS'ADP'
p2362
F0.999393
s(lp2363
(g402
I53
tp2364
atp2365
a(S'suoi'
p2366
(dp2367
S'PRON'
p2368
F0.99996
sS'VERB'
p2369
F4e-05
s(lp2370
(g402
I53
tp2371
atp2372
a(S'ultimi'
p2373
(dp2374
S'NOUN'
p2375
F0.037541
sS'VERB'
p2376
F0.0006370000000000001
sS'ADJ'
p2377
F0.961821
s(lp2378
(g313
I38
tp2379
atp2380
a(S'anni'
p2381
(dp2382
S'NOUN'
p2383
F1.0
s(lp2384
(g298
I39
tp2385
atp2386
a(S'di'
p2387
(dp2388
S'CONJ'
p2389
F4e-06
sS'ADP'
p2390
F0.999996
s(lp2391
(g320
I40
tp2392
atp2393
a(S'validit\xc3\xa0'
p2394
(dp2395
S'NOUN'
p2396
F1.0
s(lp2397
tp2398
a(g139
(dp2399
g141
F1.0
s(lp2400
(g139
I43
tp2401
atp2402
a(S'2011-2013'
p2403
(dp2404
S'NUM'
p2405
F0.998762
sg141
F0.001238
s(lp2406
(g349
I44
tp2407
atp2408
a(g152
(dp2409
g141
F1.0
s(lp2410
(g152
I45
tp2411
atp2412
a(S'tenga'
p2413
(dp2414
S'VERB'
p2415
F1.0
s(lp2416
tp2417
a(S'conto'
p2418
(dp2419
S'VERB'
p2420
F0.000363
sS'NOUN'
p2421
F0.999637
s(lp2422
(g168
I23
tp2423
atp2424
a(S'delle'
p2425
(dp2426
S'DEF'
p2427
F0.002334
sS'ADP'
p2428
F0.997666
s(lp2429
(g305
I24
tp2430
atp2431
a(S'differenti'
p2432
(dp2433
S'VERB'
p2434
F0.00085
sS'ADJ'
p2435
F0.99915
s(lp2436
(g233
I26
tp2437
atp2438
a(S'ripercussioni'
p2439
(dp2440
S'NOUN'
p2441
F1.0
s(lp2442
(g181
I27
tp2443
atp2444
a(S'della'
p2445
(dp2446
S'DEF'
p2447
F0.001587
sS'ADP'
p2448
F0.998413
s(lp2449
(g188
I32
tp2450
atp2451
a(S'crisi'
p2452
(dp2453
S'NOUN'
p2454
F1.0
s(lp2455
(g204
I35
tp2456
atp2457
a(S'economica'
p2458
(dp2459
S'ADJ'
p2460
F1.0
s(lp2461
(g212
I34
tp2462
atp2463
a(S'nei'
p2464
(dp2465
S'NOUN'
p2466
F0.019496
sS'ADP'
p2467
F0.980504
s(lp2468
(g241
I28
tp2469
atp2470
a(S'singoli'
p2471
(dp2472
S'NOUN'
p2473
F0.378123
sS'ADJ'
p2474
F0.621877
s(lp2475
(g248
I29
tp2476
atp2477
a(S'stati'
p2478
(dp2479
S'VERB'
p2480
F0.886113
sS'NOUN'
p2481
F0.113887
s(lp2482
(g263
I31
tp2483
atp2484
a(S'membri'
p2485
(dp2486
S'NOUN'
p2487
F1.0
s(lp2488
(g271
I30
tp2489
atp2490
a(g215
(dp2491
g141
F1.0
s(lp2492
(g215
I46
tp2493
atp2494
a(S'alla'
p2495
(dp2496
S'ADP'
p2497
F1.0
s(lp2498
tp2499
a(S'luce'
p2500
(dp2501
S'ADJ'
p2502
F0.033501
sS'VERB'
p2503
F2e-05
sS'NOUN'
p2504
F0.966479
s(lp2505
(g369
I47
tp2506
atp2507
a(S'delle'
p2508
(dp2509
S'DEF'
p2510
F0.002361
sS'ADP'
p2511
F0.997639
s(lp2512
(g376
I48
tp2513
atp2514
a(S'notevoli'
p2515
(dp2516
S'ADJ'
p2517
F1.0
s(lp2518
(g391
I49
tp2519
atp2520
a(S'somme'
p2521
(dp2522
S'ADJ'
p2523
F0.216095
sS'NOUN'
p2524
F0.783905
s(lp2525
(g384
I50
tp2526
atp2527
a(g139
(dp2528
g141
F1.0
s(lp2529
(g139
I51
tp2530
atp2531
a(S'28,8'
p2532
(dp2533
S'NUM'
p2534
F0.999043
sg141
F0.000957
s(lp2535
(g402
I53
tp2536
atp2537
a(S'miliardi'
p2538
(dp2539
S'NOUN'
p2540
F1.0
s(lp2541
tp2542
a(S'di'
p2543
(dp2544
S'CONJ'
p2545
F9e-06
sS'ADP'
p2546
F0.999991
s(lp2547
(g423
I52
tp2548
atp2549
a(S'euro'
p2550
(dp2551
S'ADJ'
p2552
F0.479826
sS'NOUN'
p2553
F0.520174
s(lp2554
(g409
I54
tp2555
atp2556
a(S'in'
p2557
(dp2558
S'ADP'
p2559
F1.0
s(lp2560
(g430
I55
tp2561
atp2562
a(S'tre'
p2563
(dp2564
S'NOUN'
p2565
F0.000715
sS'NUM'
p2566
F0.00046
sS'ADJ'
p2567
F0.998826
s(lp2568
(g437
I56
tp2569
atp2570
a(S'anni'
p2571
(dp2572
S'NOUN'
p2573
F1.0
s(lp2574
(g444
I57
tp2575
atp2576
a(g152
(dp2577
g141
F1.0
s(lp2578
(g152
I58
tp2579
atp2580
a(S'che'
p2581
(dp2582
S'PRON'
p2583
F0.972388
sS'CONJ'
p2584
F0.027515
sS'ADJ'
p2585
F9.7e-05
s(lp2586
tp2587
a(S'restano'
p2588
(dp2589
S'VERB'
p2590
F1.0
s(lp2591
tp2592
a(S'ancora'
p2593
(dp2594
S'ADV'
p2595
F0.993715
sS'VERB'
p2596
F0.005948999999999999
sS'NOUN'
p2597
F0.000336
s(lp2598
(g460
I59
tp2599
atp2600
a(S'da'
p2601
(dp2602
S'ADP'
p2603
F1.0
s(lp2604
(g467
I60
tp2605
atp2606
a(S'programmare'
p2607
(dp2608
S'VERB'
p2609
F1.0
s(lp2610
(g474
I62
tp2611
atp2612
a(g215
(dp2613
g141
F1.0
s(lp2614
(g215
I63
tp2615
atp2616
a(S'degli'
p2617
(dp2618
S'DEF'
p2619
F0.013272
sS'ADP'
p2620
F0.986728
s(lp2621
tp2622
a(S'obiettivi'
p2623
(dp2624
S'ADJ'
p2625
F0.015057
sS'VERB'
p2626
F1.6000000000000003e-05
sS'NOUN'
p2627
F0.984927
s(lp2628
(g494
I65
tp2629
atp2630
a(S'da'
p2631
(dp2632
S'ADP'
p2633
F1.0
s(lp2634
(g501
I66
tp2635
atp2636
a(S'conseguire'
p2637
(dp2638
S'VERB'
p2639
F1.0
s(lp2640
(g508
I68
tp2641
atp2642
a(S'nel'
p2643
(dp2644
S'ADP'
p2645
F1.0
s(lp2646
(g789
I21
tp2647
atp2648
a(S'quadro'
p2649
(dp2650
S'ADJ'
p2651
F0.033485
sS'VERB'
p2652
F2e-05
sS'NOUN'
p2653
F0.966496
s(lp2654
(g149
I19
tp2655
atp2656
a(S'della'
p2657
(dp2658
S'DEF'
p2659
F0.001626
sS'ADP'
p2660
F0.998374
s(lp2661
(g516
I69
tp2662
atp2663
a(S'strategia'
p2664
(dp2665
S'NOUN'
p2666
F1.0
s(lp2667
(g531
I71
tp2668
atp2669
a(S'europa'
p2670
(dp2671
S'NOUN'
p2672
F0.108032
sS'VERB'
p2673
F0.001371
sS'ADJ'
p2674
F0.890597
s(lp2675
tp2676
a(S'2020'
p2677
(dp2678
S'NUM'
p2679
F0.227597
sg141
F0.772403
s(lp2680
(g531
I71
tp2681
atp2682
a(S'e'
p2683
(dp2684
S'CONJ'
p2685
F1.0
s(lp2686
(g538
I72
tp2687
atp2688
a(S'della'
p2689
(dp2690
S'DEF'
p2691
F0.026624
sS'ADP'
p2692
F0.973376
s(lp2693
tp2694
a(S'preparazione'
p2695
(dp2696
S'NOUN'
p2697
F1.0
s(lp2698
(g557
I73
tp2699
atp2700
a(S'dello'
p2701
(dp2702
S'DEF'
p2703
F0.000111
sS'ADP'
p2704
F0.999889
s(lp2705
(g566
I74
tp2706
atp2707
a(S'spazio'
p2708
(dp2709
S'VERB'
p2710
F7e-05
sS'NOUN'
p2711
F0.99993
s(lp2712
(g583
I78
tp2713
atp2714
a(S'europeo'
p2715
(dp2716
S'NOUN'
p2717
F0.002641
sS'ADJ'
p2718
F0.997359
s(lp2719
(g591
I76
tp2720
atp2721
a(S'della'
p2722
(dp2723
S'DEF'
p2724
F0.002717
sS'ADP'
p2725
F0.997283
s(lp2726
tp2727
a(S'ricerca'
p2728
(dp2729
S'VERB'
p2730
F3.8e-05
sS'NOUN'
p2731
F0.999962
s(lp2732
(g598
I77
tp2733
atp2734
a(g2683
(dp2735
S'CONJ'
p2736
F1.0
s(lp2737
(g619
I79
tp2738
atp2739
a(S"dell'"
p2740
(dp2741
S'ADJ'
p2742
F0.006467
sS'VERB'
p2743
F0.11863800000000001
sS'NOUN'
p2744
F0.874895
s(lp2745
(g634
I80
tp2746
atp2747
a(S'unione'
p2748
(dp2749
S'NOUN'
p2750
F1.0
s(lp2751
(g641
I82
tp2752
atp2753
a(S"dell'"
p2754
(dp2755
S'ADJ'
p2756
F0.040682
sS'VERB'
p2757
F0.006560999999999999
sS'NOUN'
p2758
F0.952757
s(lp2759
tp2760
a(S'innovazione'
p2761
(dp2762
S'NOUN'
p2763
F1.0
s(lp2764
(g661
I81
tp2765
atp2766
a(g141
(dp2767
g141
F1.0
s(lp2768
(g141
I83
tp2769
atp2770
asS'sk'
p2771
(lp2772
(S'hlasoval'
p2773
(dp2774
S'VERB'
p2775
F0.9999999999999999
s(lp2776
tp2777
a(S'som'
p2778
(dp2779
S'VERB'
p2780
F1.0
s(lp2781
(g22
I1
tp2782
atp2783
a(S'za'
p2784
(dp2785
S'PRT'
p2786
F0.001906
sS'ADP'
p2787
F0.998063
sg6
F3.1e-05
s(lp2788
(g37
I3
tp2789
atp2790
a(S'toto'
p2791
(dp2792
S'PRON'
p2793
F1.0
sg6
F0.0
s(lp2794
(g51
I5
tp2795
atp2796
a(S'uznesenie'
p2797
(dp2798
S'NOUN'
p2799
F1.0
s(lp2800
(g58
I6
tp2801
atp2802
a(g215
(dp2803
g141
F1.0
s(lp2804
tp2805
a(S'preto\xc5\xbee'
p2806
(dp2807
S'CONJ'
p2808
F1.0
s(lp2809
(g72
I7
tp2810
atp2811
a(S'po\xc5\xbeaduje'
p2812
(dp2813
S'VERB'
p2814
F1.0
s(lp2815
(g87
I9
tp2816
atp2817
a(g215
(dp2818
g141
F1.0
s(lp2819
tp2820
a(S'aby'
p2821
(dp2822
g6
F0.00025
sS'CONJ'
p2823
F0.99975
s(lp2824
(g96
I10
tp2825
atp2826
a(S'vyu\xc5\xbe\xc3\xadvanie'
p2827
(dp2828
S'NOUN'
p2829
F1.0
s(lp2830
(g112
I12
tp2831
atp2832
a(S'siedmeho'
p2833
(dp2834
S'NUM'
p2835
F1.0
s(lp2836
(g127
I15
tp2837
atp2838
a(S'r\xc3\xa1mcov\xc3\xa9ho'
p2839
(dp2840
S'ADJ'
p2841
F1.0
s(lp2842
(g136
I16
tp2843
atp2844
a(S'programu'
p2845
(dp2846
S'NOUN'
p2847
F1.0
s(lp2848
(g768
I17
tp2849
atp2850
a(g139
(dp2851
g141
F1.0
s(lp2852
(g139
I18
tp2853
atp2854
a(S'rp7'
p2855
(dp2856
S'ADJ'
p2857
F0.0004
sg6
F0.358276
sS'VERB'
p2858
F0.0026590000000000003
sS'NOUN'
p2859
F0.6386660000000001
s(lp2860
(g149
I19
tp2861
atp2862
a(g152
(dp2863
g141
F1.0
s(lp2864
(g152
I20
tp2865
atp2866
a(S'zoh\xc4\xbead\xc5\x88ovalo'
p2867
(dp2868
S'VERB'
p2869
F1.0
s(lp2870
(g168
I23
tp2871
atp2872
a(S'r\xc3\xb4zne'
p2873
(dp2874
S'ADV'
p2875
F0.000914
sS'ADJ'
p2876
F0.999086
s(lp2877
(g233
I26
tp2878
atp2879
a(S'd\xc3\xb4sledky'
p2880
(dp2881
S'NOUN'
p2882
F1.0
s(lp2883
(g181
I27
tp2884
atp2885
a(S'hospod\xc3\xa1rskej'
p2886
(dp2887
S'ADJ'
p2888
F1.0
s(lp2889
(g212
I34
tp2890
atp2891
a(S'kr\xc3\xadzy'
p2892
(dp2893
S'NOUN'
p2894
F1.0
s(lp2895
(g204
I35
tp2896
atp2897
a(S'v'
p2898
(dp2899
g6
F9.8e-05
sS'ADP'
p2900
F0.999901
s(lp2901
(g241
I28
tp2902
atp2903
a(S'ka\xc5\xbedom'
p2904
(dp2905
S'PRON'
p2906
F1.0
s(lp2907
(g248
I29
tp2908
atp2909
a(S'\xc4\x8dlenskom'
p2910
(dp2911
S'NOUN'
p2912
F0.031259
sS'ADJ'
p2913
F0.968741
s(lp2914
(g271
I30
tp2915
atp2916
a(S'\xc5\xa1t\xc3\xa1te'
p2917
(dp2918
S'NOUN'
p2919
F1.0
s(lp2920
(g263
I31
tp2921
atp2922
a(S'na'
p2923
(dp2924
g6
F0.00013299999999999998
sS'CONJ'
p2925
F2e-05
sS'ADP'
p2926
F0.999841
sS'PRT'
p2927
F7e-06
s(lp2928
(g282
I36
tp2929
atp2930
a(S'roky'
p2931
(dp2932
S'NOUN'
p2933
F1.0
s(lp2934
(g298
I39
tp2935
atp2936
a(S'kone\xc4\x8dnej'
p2937
(dp2938
S'NOUN'
p2939
F0.004872
sS'ADJ'
p2940
F0.995128
s(lp2941
(g402
I53
tp2942
atp2943
a(S'f\xc3\xa1zy'
p2944
(dp2945
S'NOUN'
p2946
F1.0
s(lp2947
(g402
I53
tp2948
atp2949
a(S'programu'
p2950
(dp2951
S'NOUN'
p2952
F1.0
s(lp2953
(g328
I42
tp2954
atp2955
a(g139
(dp2956
g141
F1.0
s(lp2957
(g139
I43
tp2958
atp2959
a(S'2011'
p2960
(dp2961
S'NUM'
p2962
F1.0
s(lp2963
(g349
I44
tp2964
atp2965
a(S'-'
p2966
(dp2967
g141
F1.0
s(lp2968
tp2969
a(S'2013'
p2970
(dp2971
S'NUM'
p2972
F1.0
s(lp2973
(g349
I44
tp2974
atp2975
a(g152
(dp2976
g141
F1.0
s(lp2977
(g152
I45
tp2978
atp2979
a(S'vzh\xc4\xbeadom'
p2980
(dp2981
S'NOUN'
p2982
F1.0
s(lp2983
tp2984
a(S'na'
p2985
(dp2986
g6
F6.7e-05
sS'CONJ'
p2987
F1.5e-05
sS'ADP'
p2988
F0.999911
sS'PRT'
p2989
F7e-06
s(lp2990
(g369
I47
tp2991
atp2992
a(S'zna\xc4\x8dn\xc3\xa9'
p2993
(dp2994
S'ADJ'
p2995
F1.0
s(lp2996
(g391
I49
tp2997
atp2998
a(S'sumy'
p2999
(dp3000
S'NOUN'
p3001
F1.0
s(lp3002
(g384
I50
tp3003
atp3004
a(g139
(dp3005
g141
F1.0
s(lp3006
(g139
I51
tp3007
atp3008
a(S'28,8'
p3009
(dp3010
S'NUM'
p3011
F1.0
s(lp3012
(g402
I53
tp3013
atp3014
a(S'miliardy'
p3015
(dp3016
S'NUM'
p3017
F0.991391
sS'NOUN'
p3018
F0.008609
s(lp3019
(g409
I54
tp3020
atp3021
a(S'eur'
p3022
(dp3023
S'NOUN'
p3024
F1.0
s(lp3025
(g423
I52
tp3026
atp3027
a(S'na'
p3028
(dp3029
g6
F2.2e-05
sS'CONJ'
p3030
F1.8e-05
sS'ADP'
p3031
F0.999956
sS'PRT'
p3032
F4e-06
s(lp3033
(g430
I55
tp3034
atp3035
a(S'obdobie'
p3036
(dp3037
S'NOUN'
p3038
F1.0
s(lp3039
(g402
I53
tp3040
atp3041
a(S'troch'
p3042
(dp3043
S'NUM'
p3044
F1.0
s(lp3045
(g437
I56
tp3046
atp3047
a(S'rokov'
p3048
(dp3049
S'NOUN'
p3050
F1.0
s(lp3051
(g444
I57
tp3052
atp3053
a(g152
(dp3054
g141
F1.0
s(lp3055
(g152
I58
tp3056
atp3057
a(g215
(dp3058
g141
F1.0
s(lp3059
tp3060
a(S'ktor\xc3\xa9'
p3061
(dp3062
S'PRON'
p3063
F1.0
s(lp3064
(g474
I62
tp3065
atp3066
a(S'je'
p3067
(dp3068
S'PRON'
p3069
F2e-05
sS'VERB'
p3070
F0.999962
sg6
F1.8e-05
s(lp3071
tp3072
a(S'e\xc5\xa1te'
p3073
(dp3074
S'ADV'
p3075
F0.15155
sg6
F0.84845
s(lp3076
(g460
I59
tp3077
atp3078
a(S'potrebn\xc3\xa9'
p3079
(dp3080
S'ADJ'
p3081
F1.0
s(lp3082
(g1022
I61
tp3083
atp3084
a(S'vy\xc4\x8dleni\xc5\xa5'
p3085
(dp3086
S'VERB'
p3087
F1.0
s(lp3088
(g402
I53
tp3089
atp3090
a(S'na'
p3091
(dp3092
g6
F4.9e-05
sS'CONJ'
p3093
F8e-06
sS'ADP'
p3094
F0.999936
sS'PRT'
p3095
F7e-06
s(lp3096
(g467
I60
tp3097
atp3098
a(S'programy'
p3099
(dp3100
S'NOUN'
p3101
F1.0
s(lp3102
(g402
I53
tp3103
atp3104
a(g215
(dp3105
g141
F1.0
s(lp3106
(g215
I63
tp3107
atp3108
a(S'ciele'
p3109
(dp3110
S'NOUN'
p3111
F1.0
s(lp3112
(g494
I65
tp3113
atp3114
a(g215
(dp3115
g141
F1.0
s(lp3116
tp3117
a(S'ktor\xc3\xa9'
p3118
(dp3119
S'PRON'
p3120
F1.0
s(lp3121
(g501
I66
tp3122
atp3123
a(S'sa'
p3124
(dp3125
S'PRT'
p3126
F0.999959
sS'ADP'
p3127
F0.0
sg6
F4.1e-05
s(lp3128
tp3129
a(S'maj\xc3\xba'
p3130
(dp3131
S'VERB'
p3132
F1.0
s(lp3133
(g1056
I67
tp3134
atp3135
a(S'dosiahnu\xc5\xa5'
p3136
(dp3137
S'VERB'
p3138
F1.0
s(lp3139
(g508
I68
tp3140
atp3141
a(g2898
(dp3142
g6
F0.000134
sS'ADP'
p3143
F0.999867
s(lp3144
(g516
I69
tp3145
atp3146
a(S's\xc3\xbavislosti'
p3147
(dp3148
S'NOUN'
p3149
F1.0
s(lp3150
(g402
I53
tp3151
atp3152
a(S'so'
p3153
(dp3154
g6
F0.00015000000000000001
sS'ADP'
p3155
F0.99985
s(lp3156
tp3157
a(S'strat\xc3\xa9giou'
p3158
(dp3159
S'NOUN'
p3160
F1.0
s(lp3161
(g402
I53
tp3162
atp3163
a(S'e\xc3\x9a'
p3164
(dp3165
S'ADV'
p3166
F0.0033929999999999997
sS'ADJ'
p3167
F0.09046200000000001
sS'VERB'
p3168
F0.25152
sS'NOUN'
p3169
F0.6267159999999999
sg6
F0.027911000000000002
s(lp3170
(g524
I70
tp3171
atp3172
a(S'2020'
p3173
(dp3174
S'NUM'
p3175
F1.0
s(lp3176
(g531
I71
tp3177
atp3178
a(g215
(dp3179
g141
F1.0
s(lp3180
tp3181
a(g575
(dp3182
g6
F0.000375
sS'CONJ'
p3183
F0.999575
sS'NOUN'
p3184
F9e-06
sS'ADP'
p3185
F4e-05
sS'PRT'
p3186
F2e-06
s(lp3187
(g538
I72
tp3188
atp3189
a(S'pr\xc3\xadpravu'
p3190
(dp3191
S'NOUN'
p3192
F1.0
s(lp3193
(g557
I73
tp3194
atp3195
a(S'eur\xc3\xb3pskeho'
p3196
(dp3197
S'ADJ'
p3198
F1.0
s(lp3199
(g591
I76
tp3200
atp3201
a(S'v\xc3\xbdskumn\xc3\xa9ho'
p3202
(dp3203
S'ADJ'
p3204
F1.0
s(lp3205
(g598
I77
tp3206
atp3207
a(S'priestoru'
p3208
(dp3209
S'NOUN'
p3210
F1.0
s(lp3211
(g583
I78
tp3212
atp3213
a(g575
(dp3214
g6
F0.0025380000000000003
sS'CONJ'
p3215
F0.996478
sS'NOUN'
p3216
F0.00018700000000000002
sS'ADP'
p3217
F0.00077
sS'PRT'
p3218
F2.7e-05
s(lp3219
(g619
I79
tp3220
atp3221
a(S'\xc3\x9anie'
p3222
(dp3223
S'NOUN'
p3224
F1.0
s(lp3225
(g641
I82
tp3226
atp3227
a(S'inov\xc3\xa1ci\xc3\xad'
p3228
(dp3229
S'NOUN'
p3230
F1.0
s(lp3231
(g661
I81
tp3232
atp3233
a(g141
(dp3234
g141
F1.0
s(lp3235
(g141
I83
tp3236
atp3237
asS'pl'
p3238
(lp3239
(S'g\xc5\x82osowa\xc5\x82em'
p3240
(dp3241
S'ADV'
p3242
F0.004589
sS'ADJ'
p3243
F0.010162
sS'VERB'
p3244
F0.098348
sS'NOUN'
p3245
F0.886903
s(lp3246
(g22
I1
tp3247
atp3248
a(S'za'
p3249
(dp3250
S'PRT'
p3251
F0.000911
sS'VERB'
p3252
F0.000154
sS'NOUN'
p3253
F3e-06
sS'ADP'
p3254
F0.998931
sg6
F0.0
s(lp3255
tp3256
a(S'przyj\xc4\x99ciem'
p3257
(dp3258
S'VERB'
p3259
F0.991901
sS'NOUN'
p3260
F0.008099
s(lp3261
(g37
I3
tp3262
atp3263
a(S'tej'
p3264
(dp3265
S'PRON'
p3266
F3e-05
sS'ADJ'
p3267
F0.99997
sg6
F1e-06
s(lp3268
(g51
I5
tp3269
atp3270
a(S'rezolucji'
p3271
(dp3272
S'NOUN'
p3273
F1.0
s(lp3274
(g58
I6
tp3275
atp3276
a(g215
(dp3277
g6
F0.0
sg141
F1.0
s(lp3278
tp3279
a(S'poniewa\xc5\xbc'
p3280
(dp3281
S'CONJ'
p3282
F1.0
s(lp3283
(g72
I7
tp3284
atp3285
a(S'wzywa'
p3286
(dp3287
S'VERB'
p3288
F1.0
s(lp3289
(g87
I9
tp3290
atp3291
a(S'si\xc4\x99'
p3292
(dp3293
S'PRT'
p3294
F1.0
s(lp3295
tp3296
a(S'w'
p3297
(dp3298
S'ADJ'
p3299
F0.0
sg6
F0.0
sS'NOUN'
p3300
F0.0
sS'ADP'
p3301
F1.0
s(lp3302
tp3303
a(S'niej'
p3304
(dp3305
S'PRON'
p3306
F1.0
s(lp3307
(g87
I9
tp3308
atp3309
a(S'do'
p3310
(dp3311
g6
F0.0
sS'NOUN'
p3312
F1e-06
sS'ADP'
p3313
F0.9999979999999999
s(lp3314
(g789
I21
tp3315
atp3316
a(S'uwzgl\xc4\x99dnienia'
p3317
(dp3318
S'VERB'
p3319
F1.0
s(lp3320
(g168
I23
tp3321
atp3322
a(g3297
(dp3323
g6
F0.0
sS'ADJ'
p3324
F0.0
sS'ADP'
p3325
F0.9999999999999999
sS'NOUN'
p3326
F0.0
s(lp3327
(g256
I25
tp3328
atp3329
a(S'ramach'
p3330
(dp3331
S'NOUN'
p3332
F1.0
s(lp3333
(g105
I11
tp3334
atp3335
a(S'korzystania'
p3336
(dp3337
S'VERB'
p3338
F1.0
s(lp3339
(g112
I12
tp3340
atp3341
a(S'z'
p3342
(dp3343
S'PRT'
p3344
F2.1e-05
sS'VERB'
p3345
F6e-06
sS'NOUN'
p3346
F2e-06
sS'ADP'
p3347
F0.99997
sg6
F1e-06
s(lp3348
(g119
I13
tp3349
atp3350
a(S'si\xc3\xb3dmego'
p3351
(dp3352
S'ADJ'
p3353
F0.9999990000000001
s(lp3354
(g127
I15
tp3355
atp3356
a(S'programu'
p3357
(dp3358
S'NOUN'
p3359
F1.0
s(lp3360
(g768
I17
tp3361
atp3362
a(S'ramowego'
p3363
(dp3364
S'NOUN'
p3365
F0.14532200000000006
sS'ADJ'
p3366
F0.8544710000000002
sg6
F0.000207
s(lp3367
(g136
I16
tp3368
atp3369
a(g139
(dp3370
S'NOUN'
p3371
F2.4e-05
sg141
F0.999976
s(lp3372
(g139
I18
tp3373
atp3374
a(S'7pr'
p3375
(dp3376
S'ADV'
p3377
F0.045645
sS'ADJ'
p3378
F0.10737899999999999
sS'NUM'
p3379
F0.163846
sS'NOUN'
p3380
F0.6459550000000002
sg6
F0.037174
s(lp3381
(g149
I19
tp3382
atp3383
a(g152
(dp3384
g141
F1.0
s(lp3385
(g152
I20
tp3386
atp3387
a(S'r\xc3\xb3\xc5\xbcnych'
p3388
(dp3389
S'ADJ'
p3390
F1.0
s(lp3391
(g233
I26
tp3392
atp3393
a(S'skutk\xc3\xb3w'
p3394
(dp3395
S'NOUN'
p3396
F1.0
s(lp3397
(g181
I27
tp3398
atp3399
a(S'kryzysu'
p3400
(dp3401
S'NOUN'
p3402
F1.0
s(lp3403
(g204
I35
tp3404
atp3405
a(S'gospodarczego'
p3406
(dp3407
S'ADJ'
p3408
F1.0
s(lp3409
(g212
I34
tp3410
atp3411
a(g3297
(dp3412
S'ADJ'
p3413
F0.0
sg6
F1e-06
sS'NOUN'
p3414
F0.0
sS'ADP'
p3415
F0.999999
s(lp3416
(g241
I28
tp3417
atp3418
a(S'poszczeg\xc3\xb3lnych'
p3419
(dp3420
S'ADJ'
p3421
F1.0
s(lp3422
(g248
I29
tp3423
atp3424
a(S'pa\xc5\x84stwach'
p3425
(dp3426
S'NOUN'
p3427
F1.0
s(lp3428
(g263
I31
tp3429
atp3430
a(S'cz\xc5\x82onkowskich'
p3431
(dp3432
S'ADJ'
p3433
F0.9999999999999999
s(lp3434
(g271
I30
tp3435
atp3436
a(g3297
(dp3437
S'ADJ'
p3438
F0.0
sg6
F0.0
sS'NOUN'
p3439
F0.0
sS'ADP'
p3440
F0.999999
s(lp3441
(g282
I36
tp3442
atp3443
a(S'ostatnich'
p3444
(dp3445
S'ADJ'
p3446
F0.9999990000000001
s(lp3447
(g313
I38
tp3448
atp3449
a(S'latach'
p3450
(dp3451
S'NOUN'
p3452
F1.0
s(lp3453
(g298
I39
tp3454
atp3455
a(S'programu'
p3456
(dp3457
S'NOUN'
p3458
F1.0
s(lp3459
(g328
I42
tp3460
atp3461
a(g139
(dp3462
S'NOUN'
p3463
F0.000274
sg141
F0.999726
s(lp3464
(g139
I43
tp3465
atp3466
a(S'2011-2013'
p3467
(dp3468
S'ADV'
p3469
F0.000128
sS'NOUN'
p3470
F0.000639
sS'NUM'
p3471
F0.7840969999999998
sS'ADJ'
p3472
F0.21478200000000006
sg6
F0.000355
s(lp3473
(g349
I44
tp3474
atp3475
a(g152
(dp3476
g141
F1.0
s(lp3477
(g152
I45
tp3478
atp3479
a(g215
(dp3480
g6
F0.0
sg141
F1.0
s(lp3481
(g215
I46
tp3482
atp3483
a(S'poniewa\xc5\xbc'
p3484
(dp3485
S'CONJ'
p3486
F1.0
s(lp3487
(g369
I47
tp3488
atp3489
a(S'do'
p3490
(dp3491
g6
F0.0
sS'NOUN'
p3492
F1.2e-05
sS'ADP'
p3493
F0.999988
s(lp3494
(g376
I48
tp3495
atp3496
a(S'wykorzystania'
p3497
(dp3498
S'VERB'
p3499
F0.722914
sS'NOUN'
p3500
F0.277086
s(lp3501
(g402
I53
tp3502
atp3503
a(S'jest'
p3504
(dp3505
S'VERB'
p3506
F1.0
s(lp3507
tp3508
a(S'jeszcze'
p3509
(dp3510
S'PRT'
p3511
F0.998433
sS'CONJ'
p3512
F0.001567
s(lp3513
(g402
I53
tp3514
atp3515
a(S'znaczna'
p3516
(dp3517
S'ADJ'
p3518
F1.0
s(lp3519
(g402
I53
tp3520
atp3521
a(S'kwota'
p3522
(dp3523
S'NOUN'
p3524
F1.0
s(lp3525
(g402
I53
tp3526
atp3527
a(g139
(dp3528
S'NOUN'
p3529
F8e-05
sg141
F0.99992
s(lp3530
(g139
I51
tp3531
atp3532
a(S'28,8'
p3533
(dp3534
S'ADV'
p3535
F3e-06
sS'NOUN'
p3536
F0.000156
sS'NUM'
p3537
F0.13394499999999998
sS'ADJ'
p3538
F0.8658769999999999
sg6
F2.1e-05
s(lp3539
(g402
I53
tp3540
atp3541
a(S'miliarda'
p3542
(dp3543
S'NOUN'
p3544
F1.0
s(lp3545
(g409
I54
tp3546
atp3547
a(S'euro'
p3548
(dp3549
S'NOUN'
p3550
F0.9999990000000001
s(lp3551
(g423
I52
tp3552
atp3553
a(S'na'
p3554
(dp3555
S'PRT'
p3556
F3.9e-05
sS'VERB'
p3557
F3.8e-05
sS'NOUN'
p3558
F2e-06
sS'ADP'
p3559
F0.9999180000000001
sg6
F3e-06
s(lp3560
(g430
I55
tp3561
atp3562
a(g433
(dp3563
S'ADV'
p3564
F2.1e-05
sS'NOUN'
p3565
F9.4e-05
sS'NUM'
p3566
F0.9784169999999998
sS'ADJ'
p3567
F0.021465999999999996
s(lp3568
(g437
I56
tp3569
atp3570
a(S'lata'
p3571
(dp3572
S'VERB'
p3573
F3.8e-05
sS'NOUN'
p3574
F0.9999619999999999
s(lp3575
(g444
I57
tp3576
atp3577
a(g152
(dp3578
g141
F1.0
s(lp3579
(g152
I58
tp3580
atp3581
a(g215
(dp3582
g6
F9e-06
sg141
F0.999991
s(lp3583
(g215
I63
tp3584
atp3585
a(S'realizacji'
p3586
(dp3587
S'NOUN'
p3588
F1.0
s(lp3589
tp3590
a(S'cel\xc3\xb3w'
p3591
(dp3592
S'NOUN'
p3593
F1.0
s(lp3594
(g494
I65
tp3595
atp3596
a(S'strategii'
p3597
(dp3598
S'NOUN'
p3599
F1.0
s(lp3600
(g524
I70
tp3601
atp3602
a(S'europa'
p3603
(dp3604
S'ADJ'
p3605
F0.005041
sS'VERB'
p3606
F0.092272
sS'NOUN'
p3607
F0.902687
s(lp3608
tp3609
a(S'2020'
p3610
(dp3611
S'ADV'
p3612
F6.2e-05
sS'NOUN'
p3613
F0.0006850000000000001
sS'NUM'
p3614
F0.363932
sS'ADJ'
p3615
F0.635213
sg6
F0.000105
s(lp3616
(g531
I71
tp3617
atp3618
a(S'oraz'
p3619
(dp3620
S'CONJ'
p3621
F1.0
s(lp3622
(g538
I72
tp3623
atp3624
a(S'przygotowywania'
p3625
(dp3626
S'VERB'
p3627
F1.0
s(lp3628
(g557
I73
tp3629
atp3630
a(S'europejskiej'
p3631
(dp3632
S'ADJ'
p3633
F0.999999
s(lp3634
(g591
I76
tp3635
atp3636
a(S'przestrzeni'
p3637
(dp3638
S'NOUN'
p3639
F1.0
s(lp3640
(g583
I78
tp3641
atp3642
a(S'badawczej'
p3643
(dp3644
S'ADJ'
p3645
F1.0
s(lp3646
(g598
I77
tp3647
atp3648
a(g10
(dp3649
S'PRT'
p3650
F0.003136
sS'CONJ'
p3651
F0.996783
sS'PRON'
p3652
F6e-06
sS'NOUN'
p3653
F2.8999999999999997e-05
sg6
F4.6e-05
s(lp3654
(g619
I79
tp3655
atp3656
a(S'inicjatywy'
p3657
(dp3658
S'NOUN'
p3659
F1.0
s(lp3660
tp3661
a(S'"'
p3662
(dp3663
g141
F1.0
s(lp3664
(g402
I53
tp3665
atp3666
a(S'unia'
p3667
(dp3668
S'ADV'
p3669
F0.000196
sS'ADJ'
p3670
F0.012575
sS'VERB'
p3671
F0.638733
sS'NOUN'
p3672
F0.34849699999999995
s(lp3673
(g641
I82
tp3674
atp3675
a(S'innowacji'
p3676
(dp3677
S'NOUN'
p3678
F1.0
s(lp3679
tp3680
a(S'\xe2\x80\x9d'
p3681
(dp3682
g141
F1.0
s(lp3683
(g661
I81
tp3684
atp3685
a(g141
(dp3686
g141
F1.0
s(lp3687
(g141
I83
tp3688
atp3689
asS'sl'
p3690
(lp3691
(S'za'
p3692
(dp3693
S'ADV'
p3694
F4.8e-05
sg6
F1.1e-05
sS'ADP'
p3695
F0.9999399999999999
s(lp3696
(g37
I3
tp3697
atp3698
a(S'to'
p3699
(dp3700
S'PRON'
p3701
F0.9999849999999999
sg6
F1.5e-05
s(lp3702
(g51
I5
tp3703
atp3704
a(S'resolucijo'
p3705
(dp3706
S'NOUN'
p3707
F1.0
s(lp3708
(g58
I6
tp3709
atp3710
a(S'sem'
p3711
(dp3712
S'ADV'
p3713
F0.007951
sS'PRT'
p3714
F0.000203
sS'VERB'
p3715
F0.991845
s(lp3716
tp3717
a(S'glasoval'
p3718
(dp3719
S'VERB'
p3720
F1.0
s(lp3721
(g22
I1
tp3722
atp3723
a(g215
(dp3724
g141
F1.0
s(lp3725
tp3726
a(S'ker'
p3727
(dp3728
S'CONJ'
p3729
F1.0
s(lp3730
(g72
I7
tp3731
atp3732
a(S'poziva'
p3733
(dp3734
S'VERB'
p3735
F1.0
s(lp3736
tp3737
a(g215
(dp3738
g141
F1.0
s(lp3739
tp3740
a(S'naj'
p3741
(dp3742
S'PRT'
p3743
F0.018008
sS'CONJ'
p3744
F0.981989
sS'ADJ'
p3745
F2e-06
s(lp3746
(g87
I9
tp3747
atp3748
a(S'se'
p3749
(dp3750
S'PRON'
p3751
F0.999993
sg6
F7e-06
s(lp3752
tp3753
a(S'pri'
p3754
(dp3755
S'ADP'
p3756
F1.0
s(lp3757
(g96
I10
tp3758
atp3759
a(S'izvajanju'
p3760
(dp3761
S'NOUN'
p3762
F1.0
s(lp3763
(g112
I12
tp3764
atp3765
a(S'sedmega'
p3766
(dp3767
S'ADV'
p3768
F0.000172
sS'NOUN'
p3769
F0.002502
sS'VERB'
p3770
F0.00037700000000000006
sS'ADJ'
p3771
F0.9969509999999999
s(lp3772
(g127
I15
tp3773
atp3774
a(S'okvirnega'
p3775
(dp3776
S'ADV'
p3777
F1e-06
sS'NOUN'
p3778
F0.010315999999999999
sS'NUM'
p3779
F0.007326999999999999
sS'ADJ'
p3780
F0.98235
sS'VERB'
p3781
F5e-06
s(lp3782
(g136
I16
tp3783
atp3784
a(S'programa'
p3785
(dp3786
S'NOUN'
p3787
F1.0
s(lp3788
(g768
I17
tp3789
atp3790
a(S'upo\xc5\xa1tevajo'
p3791
(dp3792
S'VERB'
p3793
F1.0
s(lp3794
(g168
I23
tp3795
atp3796
a(S'razli\xc4\x8dne'
p3797
(dp3798
S'ADJ'
p3799
F1.0
s(lp3800
(g233
I26
tp3801
atp3802
a(S'posledice'
p3803
(dp3804
S'NOUN'
p3805
F1.0
s(lp3806
(g181
I27
tp3807
atp3808
a(S'gospodarske'
p3809
(dp3810
S'ADJ'
p3811
F0.999999
s(lp3812
(g212
I34
tp3813
atp3814
a(S'krize'
p3815
(dp3816
S'NOUN'
p3817
F1.0
s(lp3818
(g204
I35
tp3819
atp3820
a(g2898
(dp3821
S'ADP'
p3822
F1.0
s(lp3823
(g241
I28
tp3824
atp3825
a(S'posameznih'
p3826
(dp3827
S'ADJ'
p3828
F1.0
s(lp3829
(g248
I29
tp3830
atp3831
a(S'dr\xc5\xbeavah'
p3832
(dp3833
S'NOUN'
p3834
F1.0
s(lp3835
(g271
I30
tp3836
atp3837
a(S'\xc4\x8dlanicah'
p3838
(dp3839
S'NOUN'
p3840
F1.0
s(lp3841
(g263
I31
tp3842
atp3843
a(g2898
(dp3844
S'ADP'
p3845
F1.0
s(lp3846
(g282
I36
tp3847
atp3848
a(S'zadnjih'
p3849
(dp3850
S'ADJ'
p3851
F1.000001
s(lp3852
(g313
I38
tp3853
atp3854
a(S'letih'
p3855
(dp3856
S'NOUN'
p3857
F1.0
s(lp3858
(g298
I39
tp3859
atp3860
a(S'programa'
p3861
(dp3862
S'NOUN'
p3863
F1.0
s(lp3864
(g328
I42
tp3865
atp3866
a(g139
(dp3867
g141
F1.0
s(lp3868
(g139
I43
tp3869
atp3870
a(S'2011-2013'
p3871
(dp3872
S'NUM'
p3873
F1.0
s(lp3874
(g349
I44
tp3875
atp3876
a(g152
(dp3877
g141
F1.0
s(lp3878
(g152
I45
tp3879
atp3880
a(S'glede'
p3881
(dp3882
S'ADV'
p3883
F0.94566
sS'ADP'
p3884
F0.05434
s(lp3885
tp3886
a(S'na'
p3887
(dp3888
S'ADP'
p3889
F1.0
s(lp3890
(g369
I47
tp3891
atp3892
a(S'obse\xc5\xbena'
p3893
(dp3894
S'ADJ'
p3895
F1.0
s(lp3896
(g391
I49
tp3897
atp3898
a(S'sredstva'
p3899
(dp3900
S'NOUN'
p3901
F1.0
s(lp3902
(g384
I50
tp3903
atp3904
a(g139
(dp3905
g141
F1.0
s(lp3906
(g139
I51
tp3907
atp3908
a(S'28,8'
p3909
(dp3910
S'NUM'
p3911
F1.0
s(lp3912
(g402
I53
tp3913
atp3914
a(S'milijarde'
p3915
(dp3916
S'NOUN'
p3917
F1.0
s(lp3918
(g409
I54
tp3919
atp3920
a(S'eur'
p3921
(dp3922
S'ADV'
p3923
F0.041233
sS'ADJ'
p3924
F0.0025520000000000004
sS'NOUN'
p3925
F0.955975
sg6
F0.000241
s(lp3926
(g423
I52
tp3927
atp3928
a(S'za'
p3929
(dp3930
S'ADV'
p3931
F0.000231
sg6
F3.4e-05
sS'ADP'
p3932
F0.9997349999999999
s(lp3933
(g430
I55
tp3934
atp3935
a(S'tri'
p3936
(dp3937
S'NUM'
p3938
F1.0
s(lp3939
(g437
I56
tp3940
atp3941
a(S'leta'
p3942
(dp3943
S'NOUN'
p3944
F1.0
s(lp3945
(g444
I57
tp3946
atp3947
a(g152
(dp3948
g141
F1.0
s(lp3949
(g152
I58
tp3950
atp3951
a(g215
(dp3952
g141
F1.0
s(lp3953
tp3954
a(S'katerih'
p3955
(dp3956
S'PRON'
p3957
F1.0
s(lp3958
tp3959
a(S'porabo'
p3960
(dp3961
S'NOUN'
p3962
F1.0
s(lp3963
(g402
I53
tp3964
atp3965
a(S'je'
p3966
(dp3967
S'PRON'
p3968
F0.004115
sS'VERB'
p3969
F0.99588
sg6
F5e-06
s(lp3970
tp3971
a(S'\xc5\xa1e'
p3972
(dp3973
S'PRT'
p3974
F1.0
s(lp3975
(g460
I59
tp3976
atp3977
a(S'treba'
p3978
(dp3979
S'ADV'
p3980
F1.0
s(lp3981
(g1022
I61
tp3982
atp3983
a(S'na\xc4\x8drtovati'
p3984
(dp3985
S'VERB'
p3986
F1.0
s(lp3987
(g474
I62
tp3988
atp3989
a(g215
(dp3990
g141
F1.0
s(lp3991
(g215
I63
tp3992
atp3993
a(S'cilje'
p3994
(dp3995
S'NOUN'
p3996
F1.0
s(lp3997
(g494
I65
tp3998
atp3999
a(g215
(dp4000
g141
F1.0
s(lp4001
tp4002
a(S'ki'
p4003
(dp4004
S'CONJ'
p4005
F1.0
s(lp4006
(g501
I66
tp4007
atp4008
a(S'jih'
p4009
(dp4010
S'PRON'
p4011
F0.999999
s(lp4012
(g1056
I67
tp4013
atp4014
a(S'je'
p4015
(dp4016
S'PRON'
p4017
F6.2e-05
sS'VERB'
p4018
F0.999937
sg6
F1e-06
s(lp4019
tp4020
a(S'treba'
p4021
(dp4022
S'ADV'
p4023
F1.0
s(lp4024
(g1056
I67
tp4025
atp4026
a(S'dose\xc4\x8di'
p4027
(dp4028
S'VERB'
p4029
F1.0
s(lp4030
(g508
I68
tp4031
atp4032
a(S'za'
p4033
(dp4034
S'ADV'
p4035
F0.00045
sg6
F4.6e-05
sS'ADP'
p4036
F0.999504
s(lp4037
(g516
I69
tp4038
atp4039
a(S'eu'
p4040
(dp4041
S'ADV'
p4042
F0.0322
sS'ADJ'
p4043
F0.17888699999999993
sS'VERB'
p4044
F0.000161
sS'NOUN'
p4045
F0.7887500000000002
s(lp4046
(g524
I70
tp4047
atp4048
a(S'2020'
p4049
(dp4050
S'NUM'
p4051
F1.0
s(lp4052
(g531
I71
tp4053
atp4054
a(g215
(dp4055
g141
F1.0
s(lp4056
tp4057
a(S'ter'
p4058
(dp4059
S'CONJ'
p4060
F1.0
s(lp4061
(g538
I72
tp4062
atp4063
a(S'pripravo'
p4064
(dp4065
S'NOUN'
p4066
F1.0
s(lp4067
(g557
I73
tp4068
atp4069
a(S'za'
p4070
(dp4071
S'ADV'
p4072
F2.5e-05
sg6
F1e-06
sS'ADP'
p4073
F0.999975
s(lp4074
(g566
I74
tp4075
atp4076
a(S'evropski'
p4077
(dp4078
S'ADJ'
p4079
F1.0
s(lp4080
(g591
I76
tp4081
atp4082
a(S'raziskovalni'
p4083
(dp4084
S'ADJ'
p4085
F1.0
s(lp4086
(g598
I77
tp4087
atp4088
a(S'prostor'
p4089
(dp4090
S'NOUN'
p4091
F1.0
s(lp4092
(g583
I78
tp4093
atp4094
a(S'in'
p4095
(dp4096
S'ADV'
p4097
F2.5e-05
sg6
F1.1e-05
sS'CONJ'
p4098
F0.99995
sS'NOUN'
p4099
F1.4e-05
s(lp4100
(g619
I79
tp4101
atp4102
a(S'unijo'
p4103
(dp4104
S'NOUN'
p4105
F1.0
s(lp4106
(g641
I82
tp4107
atp4108
a(S'inovacij'
p4109
(dp4110
S'NOUN'
p4111
F1.0
s(lp4112
(g661
I81
tp4113
atp4114
a(g141
(dp4115
g141
F1.0
s(lp4116
(g141
I83
tp4117
atp4118
asS'es'
p4119
(lp4120
(S'he'
p4121
(dp4122
S'VERB'
p4123
F1.0
s(lp4124
(g10
I0
tp4125
atp4126
a(S'votado'
p4127
(dp4128
S'VERB'
p4129
F1.0
s(lp4130
(g22
I1
tp4131
atp4132
a(g575
(dp4133
g6
F3.9e-05
sS'CONJ'
p4134
F9.6e-05
sS'ADP'
p4135
F0.999865
s(lp4136
(g30
I2
tp4137
atp4138
a(S'favor'
p4139
(dp4140
S'NOUN'
p4141
F1.0
s(lp4142
(g37
I3
tp4143
atp4144
a(S'de'
p4145
(dp4146
g6
F0.0
sS'CONJ'
p4147
F2.5e-05
sS'ADP'
p4148
F0.999975
s(lp4149
(g44
I4
tp4150
atp4151
a(S'esta'
p4152
(dp4153
S'PRON'
p4154
F1.0
sS'VERB'
p4155
F0.0
s(lp4156
(g51
I5
tp4157
atp4158
a(S'resoluci\xc3\xb3n'
p4159
(dp4160
S'NOUN'
p4161
F1.0
s(lp4162
(g58
I6
tp4163
atp4164
a(S'porque'
p4165
(dp4166
S'CONJ'
p4167
F1.0
s(lp4168
(g72
I7
tp4169
atp4170
a(S'exige'
p4171
(dp4172
S'VERB'
p4173
F1.0
s(lp4174
(g87
I9
tp4175
atp4176
a(S'el'
p4177
(dp4178
S'PRON'
p4179
F1e-06
sS'DET'
p4180
F0.999999
s(lp4181
(g105
I11
tp4182
atp4183
a(S'uso'
p4184
(dp4185
S'NOUN'
p4186
F1.0
s(lp4187
(g112
I12
tp4188
atp4189
a(S'del'
p4190
(dp4191
S'ADP'
p4192
F1.0
s(lp4193
(g119
I13
tp4194
atp4195
a(S's\xc3\xa9ptimo'
p4196
(dp4197
S'ADJ'
p4198
F0.21311
sS'NOUN'
p4199
F0.78689
s(lp4200
(g127
I15
tp4201
atp4202
a(S'programa'
p4203
(dp4204
S'NOUN'
p4205
F1.0
s(lp4206
(g768
I17
tp4207
atp4208
a(S'marco'
p4209
(dp4210
S'NOUN'
p4211
F1.0
s(lp4212
(g136
I16
tp4213
atp4214
a(S'para'
p4215
(dp4216
S'CONJ'
p4217
F0.952807
sS'ADP'
p4218
F0.047193
s(lp4219
(g789
I21
tp4220
atp4221
a(S'tener'
p4222
(dp4223
S'VERB'
p4224
F1.0
s(lp4225
(g797
I22
tp4226
atp4227
a(S'en'
p4228
(dp4229
g6
F0.000367
sS'CONJ'
p4230
F2.2e-05
sS'ADP'
p4231
F0.999611
s(lp4232
tp4233
a(S'cuenta'
p4234
(dp4235
S'VERB'
p4236
F0.0151
sS'NOUN'
p4237
F0.9849
s(lp4238
(g168
I23
tp4239
atp4240
a(S'las'
p4241
(dp4242
S'PRON'
p4243
F3.3e-05
sS'DET'
p4244
F0.999967
s(lp4245
(g256
I25
tp4246
atp4247
a(S'diferentes'
p4248
(dp4249
S'ADJ'
p4250
F1.0
s(lp4251
(g233
I26
tp4252
atp4253
a(S'consecuencias'
p4254
(dp4255
S'NOUN'
p4256
F1.0
s(lp4257
tp4258
a(S'que'
p4259
(dp4260
g6
F0.0
sS'CONJ'
p4261
F1.0
s(lp4262
tp4263
a(S'la'
p4264
(dp4265
S'PRON'
p4266
F0.00027
sS'DET'
p4267
F0.99973
sg6
F0.0
sS'NOUN'
p4268
F0.0
s(lp4269
(g197
I33
tp4270
atp4271
a(S'crisis'
p4272
(dp4273
S'NOUN'
p4274
F1.0
s(lp4275
(g204
I35
tp4276
atp4277
a(S'econ\xc3\xb3mica'
p4278
(dp4279
S'ADJ'
p4280
F1.0
s(lp4281
(g212
I34
tp4282
atp4283
a(S'ha'
p4284
(dp4285
S'VERB'
p4286
F1.0
s(lp4287
tp4288
a(S'tenido'
p4289
(dp4290
S'VERB'
p4291
F1.0
s(lp4292
(g181
I27
tp4293
atp4294
a(S'en'
p4295
(dp4296
g6
F0.0
sS'CONJ'
p4297
F5e-06
sS'ADP'
p4298
F0.999995
s(lp4299
(g241
I28
tp4300
atp4301
a(S'cada'
p4302
(dp4303
S'ADJ'
p4304
F1.0
s(lp4305
(g248
I29
tp4306
atp4307
a(S'estado'
p4308
(dp4309
S'VERB'
p4310
F1e-06
sS'NOUN'
p4311
F0.999999
s(lp4312
(g263
I31
tp4313
atp4314
a(S'miembro'
p4315
(dp4316
S'NOUN'
p4317
F1.0
s(lp4318
(g271
I30
tp4319
atp4320
a(S'para'
p4321
(dp4322
S'CONJ'
p4323
F0.000662
sS'ADP'
p4324
F0.999338
s(lp4325
(g282
I36
tp4326
atp4327
a(S'los'
p4328
(dp4329
S'PRON'
p4330
F0.0
sS'DET'
p4331
F1.0
s(lp4332
(g291
I37
tp4333
atp4334
a(S'\xc3\xbaltimos'
p4335
(dp4336
S'ADJ'
p4337
F1.0
s(lp4338
(g313
I38
tp4339
atp4340
a(S'a\xc3\xb1os'
p4341
(dp4342
S'NOUN'
p4343
F1.0
s(lp4344
(g298
I39
tp4345
atp4346
a(S'del'
p4347
(dp4348
S'ADP'
p4349
F1.0
s(lp4350
(g320
I40
tp4351
atp4352
a(S'programa'
p4353
(dp4354
S'NOUN'
p4355
F1.0
s(lp4356
(g328
I42
tp4357
atp4358
a(g139
(dp4359
g141
F1.0
s(lp4360
(g139
I43
tp4361
atp4362
a(S'2011-2013'
p4363
(dp4364
g6
F0.467339
sS'NUM'
p4365
F0.532661
s(lp4366
(g349
I44
tp4367
atp4368
a(g152
(dp4369
g141
F1.0
s(lp4370
(g152
I45
tp4371
atp4372
a(g215
(dp4373
g141
F1.0
s(lp4374
(g215
I46
tp4375
atp4376
a(S'habida'
p4377
(dp4378
S'VERB'
p4379
F1.0
s(lp4380
tp4381
a(S'cuenta'
p4382
(dp4383
S'VERB'
p4384
F0.000536
sS'NOUN'
p4385
F0.999464
s(lp4386
(g369
I47
tp4387
atp4388
a(S'de'
p4389
(dp4390
g6
F0.0
sS'CONJ'
p4391
F1.7e-05
sS'ADP'
p4392
F0.999983
s(lp4393
tp4394
a(S'las'
p4395
(dp4396
S'PRON'
p4397
F0.0
sS'DET'
p4398
F1.0
s(lp4399
(g376
I48
tp4400
atp4401
a(S'sumas'
p4402
(dp4403
S'ADJ'
p4404
F0.025741
sS'VERB'
p4405
F0.000267
sS'NOUN'
p4406
F0.973992
s(lp4407
(g384
I50
tp4408
atp4409
a(S'considerables'
p4410
(dp4411
S'ADJ'
p4412
F1.0
s(lp4413
(g391
I49
tp4414
atp4415
a(g139
(dp4416
g141
F1.0
s(lp4417
(g139
I51
tp4418
atp4419
a(S'28'
p4420
(dp4421
g6
F0.859412
sS'NUM'
p4422
F0.140588
s(lp4423
tp4424
a(S'800'
p4425
(dp4426
g6
F0.499779
sS'NUM'
p4427
F0.500221
s(lp4428
(g402
I53
tp4429
atp4430
a(S'millones'
p4431
(dp4432
S'NUM'
p4433
F1.0
s(lp4434
tp4435
a(S'de'
p4436
(dp4437
g6
F6.2e-05
sS'CONJ'
p4438
F1.6e-05
sS'ADP'
p4439
F0.999921
s(lp4440
tp4441
a(S'euros'
p4442
(dp4443
S'NOUN'
p4444
F1.0
s(lp4445
(g409
I54
tp4446
atp4447
a(S'durante'
p4448
(dp4449
S'ADP'
p4450
F1.0
s(lp4451
(g430
I55
tp4452
atp4453
a(S'tres'
p4454
(dp4455
S'NUM'
p4456
F1.0
s(lp4457
(g437
I56
tp4458
atp4459
a(S'a\xc3\xb1os'
p4460
(dp4461
S'NOUN'
p4462
F1.0
s(lp4463
(g444
I57
tp4464
atp4465
a(g152
(dp4466
g141
F1.0
s(lp4467
(g152
I58
tp4468
atp4469
a(S'que'
p4470
(dp4471
g6
F0.0
sS'CONJ'
p4472
F1.0
s(lp4473
(g467
I60
tp4474
atp4475
a(S'a\xc3\xban'
p4476
(dp4477
S'ADV'
p4478
F1.0
s(lp4479
(g460
I59
tp4480
atp4481
a(S'se'
p4482
(dp4483
S'PRON'
p4484
F1.0
sS'VERB'
p4485
F0.0
s(lp4486
tp4487
a(S'deben'
p4488
(dp4489
S'VERB'
p4490
F1.0
s(lp4491
(g1022
I61
tp4492
atp4493
a(S'programar'
p4494
(dp4495
S'VERB'
p4496
F1.0
s(lp4497
(g474
I62
tp4498
atp4499
a(g215
(dp4500
g141
F1.0
s(lp4501
(g215
I63
tp4502
atp4503
a(S'los'
p4504
(dp4505
S'PRON'
p4506
F2.5e-05
sS'DET'
p4507
F0.999975
s(lp4508
(g486
I64
tp4509
atp4510
a(S'objetivos'
p4511
(dp4512
S'ADJ'
p4513
F0.031182
sS'NOUN'
p4514
F0.968818
s(lp4515
(g494
I65
tp4516
atp4517
a(S'que'
p4518
(dp4519
g6
F0.0
sS'CONJ'
p4520
F1.0
s(lp4521
(g501
I66
tp4522
atp4523
a(S'deben'
p4524
(dp4525
S'VERB'
p4526
F1.0
s(lp4527
(g1056
I67
tp4528
atp4529
a(S'conseguirse'
p4530
(dp4531
S'VERB'
p4532
F1.0
s(lp4533
(g508
I68
tp4534
atp4535
a(S'para'
p4536
(dp4537
S'CONJ'
p4538
F0.001009
sS'ADP'
p4539
F0.998991
s(lp4540
(g516
I69
tp4541
atp4542
a(S'la'
p4543
(dp4544
g6
F0.0
sS'PRON'
p4545
F0.0
sS'DET'
p4546
F0.999999
sS'NOUN'
p4547
F0.0
s(lp4548
tp4549
a(S'estrategia'
p4550
(dp4551
S'NOUN'
p4552
F1.0
s(lp4553
(g531
I71
tp4554
atp4555
a(S'europa'
p4556
(dp4557
S'NOUN'
p4558
F1.0
s(lp4559
tp4560
a(S'2020'
p4561
(dp4562
g6
F0.221112
sS'NUM'
p4563
F0.778888
s(lp4564
(g531
I71
tp4565
atp4566
a(S'y'
p4567
(dp4568
g6
F2.1e-05
sS'CONJ'
p4569
F0.999979
s(lp4570
(g538
I72
tp4571
atp4572
a(S'la'
p4573
(dp4574
S'PRON'
p4575
F0.000591
sS'DET'
p4576
F0.999408
sg6
F0.0
sS'NOUN'
p4577
F0.0
s(lp4578
(g524
I70
tp4579
atp4580
a(S'preparaci\xc3\xb3n'
p4581
(dp4582
S'NOUN'
p4583
F1.0
s(lp4584
(g557
I73
tp4585
atp4586
a(S'del'
p4587
(dp4588
S'ADP'
p4589
F1.0
s(lp4590
(g566
I74
tp4591
atp4592
a(S'espacio'
p4593
(dp4594
S'NOUN'
p4595
F1.0
s(lp4596
(g583
I78
tp4597
atp4598
a(S'europeo'
p4599
(dp4600
S'NOUN'
p4601
F0.005454
sS'ADJ'
p4602
F0.994546
s(lp4603
(g591
I76
tp4604
atp4605
a(S'de'
p4606
(dp4607
g6
F3.1e-05
sS'CONJ'
p4608
F0.001479
sS'ADP'
p4609
F0.99849
s(lp4610
tp4611
a(S'investigaci\xc3\xb3n'
p4612
(dp4613
S'NOUN'
p4614
F1.0
s(lp4615
(g598
I77
tp4616
atp4617
a(g4567
(dp4618
g6
F0.000396
sS'CONJ'
p4619
F0.999604
s(lp4620
(g619
I79
tp4621
atp4622
a(S'el'
p4623
(dp4624
S'PRON'
p4625
F2.8e-05
sS'DET'
p4626
F0.999972
s(lp4627
(g634
I80
tp4628
atp4629
a(S'programa'
p4630
(dp4631
S'NOUN'
p4632
F1.0
s(lp4633
(g149
I19
tp4634
atp4635
a(g3662
(dp4636
g141
F1.0
s(lp4637
(g661
I81
tp4638
atp4639
a(S'uni\xc3\xb3n'
p4640
(dp4641
S'NOUN'
p4642
F1.0
s(lp4643
(g641
I82
tp4644
atp4645
a(S'por'
p4646
(dp4647
S'ADP'
p4648
F1.0
s(lp4649
(g96
I10
tp4650
atp4651
a(S'la'
p4652
(dp4653
S'NOUN'
p4654
F0.0
sS'PRON'
p4655
F0.0
sS'DET'
p4656
F0.999999
sg6
F0.0
s(lp4657
(g661
I81
tp4658
atp4659
a(S'innovaci\xc3\xb3n'
p4660
(dp4661
S'NOUN'
p4662
F1.0
s(lp4663
tp4664
a(g3662
(dp4665
g141
F1.0
s(lp4666
(g661
I81
tp4667
atp4668
a(g141
(dp4669
g141
F1.0
s(lp4670
(g141
I83
tp4671
atp4672
as.