(dp0
S'fr'
p1
(lp2
(S'pour'
p3
(dp4
S'CONJ'
p5
F0.147666
sS'ADP'
p6
F0.852334
s(lp7
(S'order'
p8
I1
tp9
atp10
a(S'garantir'
p11
(dp12
S'VERB'
p13
F1.0
s(lp14
(S'guarantee'
p15
I7
tp16
atp17
a(S'r\xc3\xa9ellement'
p18
(dp19
S'ADV'
p20
F1.0
s(lp21
(S'truly'
p22
I5
tp23
atp24
a(S'la'
p25
(dp26
S'PRON'
p27
F2.3e-05
sS'DET'
p28
F0.999977
sS'NOUN'
p29
F0.0
s(lp30
tp31
a(S's\xc3\xa9curit\xc3\xa9'
p32
(dp33
S'NOUN'
p34
F1.0
s(lp35
(S'security'
p36
I8
tp37
atp38
a(S'de'
p39
(dp40
S'ADP'
p41
F1.0
s(lp42
(S'of'
p43
I9
tp44
atp45
a(S"l'"
p46
(dp47
S'ADJ'
p48
F0.160704
sS'VERB'
p49
F0.06480800000000002
sS'NOUN'
p50
F0.774488
s(lp51
tp52
a(S'approvisionnement'
p53
(dp54
S'NOUN'
p55
F1.0
s(lp56
(S'supply'
p57
I10
tp58
atp59
a(S','
p60
(dp61
S'.'
p62
F1.0
s(lp63
(g60
I11
tp64
atp65
a(S'nous'
p66
(dp67
S'PRON'
p68
F1.0
s(lp69
(S'we'
p70
I12
tp71
atp72
a(S'devons'
p73
(dp74
S'VERB'
p75
F0.999987
sS'NOUN'
p76
F1.3e-05
s(lp77
(S'need'
p78
I13
tp79
atp80
a(S'tirer'
p81
(dp82
S'VERB'
p83
F0.998978
sS'NOUN'
p84
F0.001022
s(lp85
(S'learn'
p86
I15
tp87
atp88
a(S'les'
p89
(dp90
S'PRON'
p91
F3.1e-05
sS'DET'
p92
F0.999948
sS'ADP'
p93
F2.1e-05
s(lp94
(S'the'
p95
I16
tp96
atp97
a(S'enseignements'
p98
(dp99
S'NOUN'
p100
F1.0
s(lp101
(S'lessons'
p102
I17
tp103
atp104
a(S'du'
p105
(dp106
S'ADP'
p107
F1.0
s(lp108
(S'of'
p109
I18
tp110
atp111
a(S'conflit'
p112
(dp113
S'NOUN'
p114
F1.0
s(lp115
(S'dispute'
p116
I21
tp117
atp118
a(S'gazier'
p119
(dp120
S'NOUN'
p121
F0.012852
sS'ADJ'
p122
F0.987148
s(lp123
(S'gas'
p124
I20
tp125
atp126
a(g62
(dp127
g62
F1.0
s(lp128
(g62
I22
tp129
atp130
asS'en'
p131
(lp132
(S'in'
p133
(dp134
S'ADV'
p135
F0.001045
sS'PRT'
p136
F0.0
sS'ADP'
p137
F0.998955
s(lp138
(g133
I0
tp139
atp140
a(g8
(dp141
S'VERB'
p142
F0.0008770000000000001
sS'NOUN'
p143
F0.999122
s(lp144
(g8
I1
tp145
atp146
a(S'to'
p147
(dp148
S'ADV'
p149
F0.0
sS'PRT'
p150
F1.0
sS'ADP'
p151
F0.0
s(lp152
(g147
I2
tp153
atp154
a(S'be'
p155
(dp156
S'VERB'
p157
F1.0
s(lp158
(g155
I3
tp159
atp160
a(S'able'
p161
(dp162
S'ADJ'
p163
F1.0
s(lp164
(g161
I4
tp165
atp166
a(g22
(dp167
S'ADV'
p168
F1.0
s(lp169
(g22
I5
tp170
atp171
a(S'to'
p172
(dp173
S'ADV'
p174
F0.0
sS'PRT'
p175
F0.999999
sS'ADP'
p176
F1e-06
s(lp177
(g172
I6
tp178
atp179
a(g15
(dp180
S'VERB'
p181
F0.957624
sS'NOUN'
p182
F0.042376
s(lp183
(g15
I7
tp184
atp185
a(g36
(dp186
S'NOUN'
p187
F1.0
s(lp188
(g36
I8
tp189
atp190
a(g43
(dp191
S'ADP'
p192
F1.0
s(lp193
(g43
I9
tp194
atp195
a(g57
(dp196
S'ADV'
p197
F0.001443
sS'VERB'
p198
F0.000828
sS'NOUN'
p199
F0.997729
s(lp200
(g57
I10
tp201
atp202
a(g60
(dp203
g62
F1.0
s(lp204
(g60
I11
tp205
atp206
a(g70
(dp207
S'PRON'
p208
F1.0
s(lp209
(g70
I12
tp210
atp211
a(g78
(dp212
S'VERB'
p213
F0.999992
sS'NOUN'
p214
F7e-06
s(lp215
(g78
I13
tp216
atp217
a(S'to'
p218
(dp219
S'ADV'
p220
F0.0
sS'PRT'
p221
F1.0
sS'ADP'
p222
F0.0
s(lp223
(g218
I14
tp224
atp225
a(g86
(dp226
S'VERB'
p227
F1.0
s(lp228
(g86
I15
tp229
atp230
a(g95
(dp231
S'NOUN'
p232
F5e-06
sS'DET'
p233
F0.999995
s(lp234
(g95
I16
tp235
atp236
a(g102
(dp237
S'VERB'
p238
F0.000917
sS'NOUN'
p239
F0.999083
s(lp240
(g102
I17
tp241
atp242
a(g109
(dp243
S'ADP'
p244
F1.0
s(lp245
(g109
I18
tp246
atp247
a(S'the'
p248
(dp249
S'NOUN'
p250
F1e-06
sS'DET'
p251
F0.999999
s(lp252
(g248
I19
tp253
atp254
a(g124
(dp255
S'VERB'
p256
F9e-06
sS'NOUN'
p257
F0.999991
s(lp258
(g124
I20
tp259
atp260
a(g116
(dp261
S'VERB'
p262
F0.002489
sS'NOUN'
p263
F0.997511
s(lp264
(g116
I21
tp265
atp266
a(g62
(dp267
g62
F1.0
s(lp268
(g62
I22
tp269
atp270
asS'nl'
p271
(lp272
(S'om'
p273
(dp274
S'ADV'
p275
F0.014179
sS'CONJ'
p276
F0.886503
sS'ADP'
p277
F0.099319
s(lp278
(g8
I1
tp279
atp280
a(S'daadwerkelijk'
p281
(dp282
S'ADJ'
p283
F1.0
s(lp284
(g22
I5
tp285
atp286
a(S'de'
p287
(dp288
S'DET'
p289
F1.0
s(lp290
(g95
I16
tp291
atp292
a(S'energievoorziening'
p293
(dp294
S'NOUN'
p295
F1.0
s(lp296
(g57
I10
tp297
atp298
a(S'te'
p299
(dp300
S'PRT'
p301
F1.0
s(lp302
(g147
I2
tp303
atp304
a(S'kunnen'
p305
(dp306
S'VERB'
p307
F1.0
sS'NOUN'
p308
F0.0
s(lp309
(g161
I4
tp310
atp311
a(S'garanderen'
p312
(dp313
S'VERB'
p314
F0.998746
sS'NOUN'
p315
F0.001254
s(lp316
(g15
I7
tp317
atp318
a(g60
(dp319
g62
F1.0
s(lp320
(g60
I11
tp321
atp322
a(S'moeten'
p323
(dp324
S'VERB'
p325
F0.999999
sS'NOUN'
p326
F1e-06
s(lp327
(g78
I13
tp328
atp329
a(S'we'
p330
(dp331
S'PRON'
p332
F1.0
s(lp333
(g70
I12
tp334
atp335
a(S'lering'
p336
(dp337
S'NOUN'
p338
F1.0
s(lp339
(g86
I15
tp340
atp341
a(S'trekken'
p342
(dp343
S'VERB'
p344
F0.9999170000000001
sS'NOUN'
p345
F8.2e-05
s(lp346
(g102
I17
tp347
atp348
a(S'uit'
p349
(dp350
S'ADV'
p351
F0.010762
sS'VERB'
p352
F2e-06
sS'ADP'
p353
F0.989236
s(lp354
(g109
I18
tp355
atp356
a(S'het'
p357
(dp358
S'PRON'
p359
F0.000937
sS'DET'
p360
F0.999063
s(lp361
(g248
I19
tp362
atp363
a(S'gasconflict'
p364
(dp365
S'NOUN'
p366
F1.0
s(lp367
(g124
I20
tp368
atp369
a(g62
(dp370
g62
F1.0
s(lp371
(g62
I22
tp372
atp373
asS'de'
p374
(lp375
(S'wir'
p376
(dp377
S'PRON'
p378
F1.0
s(lp379
(g70
I12
tp380
atp381
a(S'm\xc3\xbcssen'
p382
(dp383
S'VERB'
p384
F0.999086
s(lp385
(g78
I13
tp386
atp387
a(S'aus'
p388
(dp389
S'ADV'
p390
F0.000221
sS'ADP'
p391
F0.999669
s(lp392
(g109
I18
tp393
atp394
a(S'dem'
p395
(dp396
S'PRON'
p397
F9.2e-05
sS'DET'
p398
F0.99989
s(lp399
(g248
I19
tp400
atp401
a(S'gaskonflikt'
p402
(dp403
S'ADJ'
p404
F0.033792
sS'NOUN'
p405
F0.948795
s(lp406
(g124
I20
tp407
atp408
a(S'unsere'
p409
(dp410
S'PRON'
p411
F1.0
s(lp412
(g102
I17
tp413
atp414
a(S'lehren'
p415
(dp416
S'VERB'
p417
F1.0
s(lp418
tp419
a(S'ziehen'
p420
(dp421
S'VERB'
p422
F1.0
s(lp423
(g102
I17
tp424
atp425
a(g60
(dp426
g62
F1.0
s(lp427
(g147
I2
tp428
atp429
a(S'um'
p430
(dp431
S'CONJ'
p432
F0.638795
sS'ADP'
p433
F0.361072
s(lp434
(g8
I1
tp435
atp436
a(S'die'
p437
(dp438
S'PRON'
p439
F0.000801
sS'DET'
p440
F0.998858
s(lp441
(g95
I16
tp442
atp443
a(S'versorgungssicherheit'
p444
(dp445
S'ADJ'
p446
F0.000133
sS'NOUN'
p447
F0.999735
s(lp448
(g57
I10
tp449
atp450
a(S'in'
p451
(dp452
S'ADP'
p453
F1.0
s(lp454
(g133
I0
tp455
atp456
a(S'zukunft'
p457
(dp458
S'NOUN'
p459
F0.297265
sS'ADJ'
p460
F0.697581
s(lp461
(g86
I15
tp462
atp463
a(S'garantieren'
p464
(dp465
S'VERB'
p466
F1.0
s(lp467
(g15
I7
tp468
atp469
a(S'zu'
p470
(dp471
S'PRT'
p472
F0.9999950000000001
s(lp473
(g172
I6
tp474
atp475
a(S'k\xc3\xb6nnen'
p476
(dp477
S'VERB'
p478
F0.9999939999999999
s(lp479
(g161
I4
tp480
atp481
a(g62
(dp482
g62
F1.0
s(lp483
(g62
I22
tp484
atp485
asS'it'
p486
(lp487
(S'per'
p488
(dp489
S'CONJ'
p490
F0.008889
sS'ADP'
p491
F0.991111
s(lp492
(g8
I1
tp493
atp494
a(S'essere'
p495
(dp496
S'VERB'
p497
F0.999697
sS'NOUN'
p498
F0.000303
s(lp499
(g155
I3
tp500
atp501
a(S'effettivamente'
p502
(dp503
S'ADV'
p504
F1.0
s(lp505
(g22
I5
tp506
atp507
a(S'in'
p508
(dp509
S'ADP'
p510
F1.0
s(lp511
tp512
a(S'grado'
p513
(dp514
S'NOUN'
p515
F1.0
s(lp516
(g161
I4
tp517
atp518
a(S'di'
p519
(dp520
S'CONJ'
p521
F6e-06
sS'ADP'
p522
F0.999994
s(lp523
(g172
I6
tp524
atp525
a(S'garantire'
p526
(dp527
S'VERB'
p528
F1.0
s(lp529
(g15
I7
tp530
atp531
a(S'la'
p532
(dp533
S'PRON'
p534
F0.0
sS'DET'
p535
F1.0
s(lp536
tp537
a(S'sicurezza'
p538
(dp539
S'NOUN'
p540
F1.0
s(lp541
(g36
I8
tp542
atp543
a(S'degli'
p544
(dp545
S'DEF'
p546
F0.001796
sS'ADP'
p547
F0.998204
s(lp548
(g43
I9
tp549
atp550
a(S'approvvigionamenti'
p551
(dp552
S'NOUN'
p553
F1.0
s(lp554
(g57
I10
tp555
atp556
a(g60
(dp557
g62
F1.0
s(lp558
(g60
I11
tp559
atp560
a(S'dobbiamo'
p561
(dp562
S'VERB'
p563
F1.0
s(lp564
(g78
I13
tp565
atp566
a(S'fare'
p567
(dp568
S'VERB'
p569
F1.0
s(lp570
(g218
I14
tp571
atp572
a(S'tesoro'
p573
(dp574
S'NOUN'
p575
F1.0
s(lp576
(g86
I15
tp577
atp578
a(S'delle'
p579
(dp580
S'DEF'
p581
F0.001048
sS'ADP'
p582
F0.998952
s(lp583
(g95
I16
tp584
atp585
a(S'esperienze'
p586
(dp587
S'NOUN'
p588
F1.0
s(lp589
tp590
a(S'tratte'
p591
(dp592
S'VERB'
p593
F0.894323
sS'NOUN'
p594
F0.105677
s(lp595
(g102
I17
tp596
atp597
a(S'dalla'
p598
(dp599
S'NOUN'
p600
F7e-06
sS'ADP'
p601
F0.999993
s(lp602
(g248
I19
tp603
atp604
a(S'disputa'
p605
(dp606
S'VERB'
p607
F0.0015149999999999999
sS'NOUN'
p608
F0.998485
s(lp609
(g116
I21
tp610
atp611
a(S'del'
p612
(dp613
S'DEF'
p614
F0.001306
sS'ADP'
p615
F0.998694
s(lp616
tp617
a(S'gas'
p618
(dp619
S'NOUN'
p620
F1.0
s(lp621
(g124
I20
tp622
atp623
a(g62
(dp624
g62
F1.0
s(lp625
(g62
I22
tp626
atp627
asS'sk'
p628
(lp629
(S'aby'
p630
(dp631
S'X'
p632
F0.007674
sS'CONJ'
p633
F0.992325
s(lp634
tp635
a(S'sme'
p636
(dp637
g632
F1e-06
sS'VERB'
p638
F0.999999
s(lp639
(g8
I1
tp640
atp641
a(S'skuto\xc4\x8dne'
p642
(dp643
S'ADV'
p644
F0.838518
sg632
F0.161482
s(lp645
(g22
I5
tp646
atp647
a(S'mohli'
p648
(dp649
g632
F0.0
sS'VERB'
p650
F1.0
s(lp651
(g161
I4
tp652
atp653
a(S'zaru\xc4\x8di\xc5\xa5'
p654
(dp655
S'VERB'
p656
F1.0
s(lp657
(g15
I7
tp658
atp659
a(S'bezpe\xc4\x8dnos\xc5\xa5'
p660
(dp661
S'NOUN'
p662
F1.0
s(lp663
(g36
I8
tp664
atp665
a(S'dod\xc3\xa1vok'
p666
(dp667
S'NOUN'
p668
F1.0
s(lp669
(g57
I10
tp670
atp671
a(g60
(dp672
g62
F1.0
s(lp673
(g60
I11
tp674
atp675
a(S'mus\xc3\xadme'
p676
(dp677
S'VERB'
p678
F1.0
s(lp679
(g78
I13
tp680
atp681
a(S'sa'
p682
(dp683
S'PRT'
p684
F0.999957
sS'ADP'
p685
F0.0
sg632
F4.2999999999999995e-05
s(lp686
tp687
a(S'z'
p688
(dp689
g632
F3e-05
sS'NOUN'
p690
F4e-06
sS'ADP'
p691
F0.999966
s(lp692
(g102
I17
tp693
atp694
a(S'tohto'
p695
(dp696
S'PRON'
p697
F0.999975
sg632
F2.5e-05
s(lp698
(g109
I18
tp699
atp700
a(S'sporu'
p701
(dp702
S'NOUN'
p703
F1.0
s(lp704
(g116
I21
tp705
atp706
a(S's'
p707
(dp708
g632
F0.002774
sS'CONJ'
p709
F6.5e-05
sS'NOUN'
p710
F1.4e-05
sS'ADP'
p711
F0.997126
sS'PRT'
p712
F2.2e-05
s(lp713
(g248
I19
tp714
atp715
a(S'plynom'
p716
(dp717
S'NOUN'
p718
F1.0
s(lp719
(g124
I20
tp720
atp721
a(S'pou\xc4\x8di\xc5\xa5'
p722
(dp723
S'VERB'
p724
F1.0
s(lp725
(g86
I15
tp726
atp727
a(g62
(dp728
g62
F1.0
s(lp729
(g62
I22
tp730
atp731
asS'pl'
p732
(lp733
(S'aby\xc5\x9bmy'
p734
(dp735
S'ADV'
p736
F0.014171
sS'ADJ'
p737
F0.0035599999999999994
sS'VERB'
p738
F0.25650199999999995
sS'NOUN'
p739
F0.7257659999999996
s(lp740
(g8
I1
tp741
atp742
a(S'byli'
p743
(dp744
S'VERB'
p745
F0.957094
sS'ADJ'
p746
F0.042906
s(lp747
(g155
I3
tp748
atp749
a(S'w'
p750
(dp751
S'ADJ'
p752
F0.0
sg632
F0.0
sS'NOUN'
p753
F2e-06
sS'ADP'
p754
F0.9999969999999999
s(lp755
(g133
I0
tp756
atp757
a(S'stanie'
p758
(dp759
S'VERB'
p760
F9.6e-05
sS'NOUN'
p761
F0.999904
s(lp762
(g161
I4
tp763
atp764
a(S'zagwarantowa\xc4\x87'
p765
(dp766
S'VERB'
p767
F1.0
s(lp768
(g15
I7
tp769
atp770
a(S'pe\xc5\x82ne'
p771
(dp772
S'ADJ'
p773
F0.999999
s(lp774
(g22
I5
tp775
atp776
a(S'bezpiecze\xc5\x84stwo'
p777
(dp778
S'NOUN'
p779
F1.0
s(lp780
(g36
I8
tp781
atp782
a(S'dostaw'
p783
(dp784
S'NOUN'
p785
F1.0
s(lp786
(g57
I10
tp787
atp788
a(g60
(dp789
g632
F0.0
sg62
F1.0
s(lp790
(g60
I11
tp791
atp792
a(S'musimy'
p793
(dp794
S'VERB'
p795
F1.0
s(lp796
(g78
I13
tp797
atp798
a(g688
(dp799
S'PRT'
p800
F1.7e-05
sS'VERB'
p801
F0.0
sS'NOUN'
p802
F3e-06
sS'ADP'
p803
F0.999979
sg632
F1e-06
s(lp804
(g109
I18
tp805
atp806
a(S'konfliktu'
p807
(dp808
S'NOUN'
p809
F1.0
s(lp810
(g116
I21
tp811
atp812
a(S'gazowego'
p813
(dp814
S'ADJ'
p815
F1.0
s(lp816
(g124
I20
tp817
atp818
a(S'wyci\xc4\x85gn\xc4\x85\xc4\x87'
p819
(dp820
S'VERB'
p821
F1.0
s(lp822
tp823
a(S'odpowiednie'
p824
(dp825
S'ADJ'
p826
F0.999999
s(lp827
(g86
I15
tp828
atp829
a(S'wnioski'
p830
(dp831
S'NOUN'
p832
F1.0
s(lp833
(g102
I17
tp834
atp835
a(g62
(dp836
g62
F1.0
s(lp837
(g62
I22
tp838
atp839
asS'sl'
p840
(lp841
(S'da'
p842
(dp843
S'PRT'
p844
F0.002816
sS'CONJ'
p845
F0.997024
sS'VERB'
p846
F0.000134
sg632
F2.6e-05
s(lp847
(g147
I2
tp848
atp849
a(S'bomo'
p850
(dp851
S'VERB'
p852
F1.0
s(lp853
(g155
I3
tp854
atp855
a(S'lahko'
p856
(dp857
S'ADV'
p858
F0.999948
sS'ADJ'
p859
F5.2000000000000004e-05
s(lp860
(g161
I4
tp861
atp862
a(S'zares'
p863
(dp864
S'ADV'
p865
F1.0
s(lp866
(g22
I5
tp867
atp868
a(S'zagotovili'
p869
(dp870
S'VERB'
p871
F1.0
s(lp872
(g15
I7
tp873
atp874
a(S'zanesljivo'
p875
(dp876
S'ADV'
p877
F0.004802
sS'ADJ'
p878
F0.995197
s(lp879
(g36
I8
tp880
atp881
a(S'oskrbo'
p882
(dp883
S'NOUN'
p884
F1.0
s(lp885
(g57
I10
tp886
atp887
a(g60
(dp888
g62
F1.0
s(lp889
(g60
I11
tp890
atp891
a(S'moramo'
p892
(dp893
S'VERB'
p894
F1.0
s(lp895
(g78
I13
tp896
atp897
a(S'iz'
p898
(dp899
g632
F5e-06
sS'ADP'
p900
F0.999995
s(lp901
(g102
I17
tp902
atp903
a(S'plinskega'
p904
(dp905
S'ADJ'
p906
F1.0
s(lp907
(g124
I20
tp908
atp909
a(S'spora'
p910
(dp911
S'NOUN'
p912
F1.0
s(lp913
(g116
I21
tp914
atp915
a(S'potegniti'
p916
(dp917
S'VERB'
p918
F1.0
s(lp919
tp920
a(S'nauk'
p921
(dp922
S'NOUN'
p923
F1.0
s(lp924
(g102
I17
tp925
atp926
a(g62
(dp927
g62
F1.0
s(lp928
(g62
I22
tp929
atp930
asS'es'
p931
(lp932
(S'con'
p933
(dp934
S'ADP'
p935
F1.0
s(lp936
(g133
I0
tp937
atp938
a(S'el'
p939
(dp940
S'PRON'
p941
F5e-06
sS'DET'
p942
F0.999995
s(lp943
(g248
I19
tp944
atp945
a(S'fin'
p946
(dp947
g632
F7e-06
sS'NOUN'
p948
F0.999993
s(lp949
(g8
I1
tp950
atp951
a(S'de'
p952
(dp953
g632
F0.0
sS'CONJ'
p954
F0.345841
sS'ADP'
p955
F0.654158
s(lp956
(g147
I2
tp957
atp958
a(S'garantizar'
p959
(dp960
S'VERB'
p961
F1.0
s(lp962
(g15
I7
tp963
atp964
a(S'realmente'
p965
(dp966
S'ADV'
p967
F1.0
s(lp968
(g22
I5
tp969
atp970
a(S'la'
p971
(dp972
S'PRON'
p973
F0.000348
sS'DET'
p974
F0.999652
sg632
F0.0
sS'NOUN'
p975
F0.0
s(lp976
tp977
a(S'seguridad'
p978
(dp979
S'NOUN'
p980
F1.0
s(lp981
(g36
I8
tp982
atp983
a(S'del'
p984
(dp985
S'ADP'
p986
F1.0
s(lp987
(g43
I9
tp988
atp989
a(S'abastecimiento'
p990
(dp991
S'NOUN'
p992
F1.0
s(lp993
(g57
I10
tp994
atp995
a(g60
(dp996
g62
F1.0
s(lp997
(g60
I11
tp998
atp999
a(S'tenemos'
p1000
(dp1001
S'VERB'
p1002
F1.0
s(lp1003
(g78
I13
tp1004
atp1005
a(S'que'
p1006
(dp1007
g632
F0.0
sS'CONJ'
p1008
F1.0
s(lp1009
(g218
I14
tp1010
atp1011
a(S'aprender'
p1012
(dp1013
S'VERB'
p1014
F1.0
s(lp1015
(g86
I15
tp1016
atp1017
a(S'las'
p1018
(dp1019
S'PRON'
p1020
F2e-06
sS'DET'
p1021
F0.999998
s(lp1022
(g95
I16
tp1023
atp1024
a(S'lecciones'
p1025
(dp1026
S'NOUN'
p1027
F1.0
s(lp1028
(g102
I17
tp1029
atp1030
a(S'del'
p1031
(dp1032
S'ADP'
p1033
F1.0
s(lp1034
(g109
I18
tp1035
atp1036
a(S'conflicto'
p1037
(dp1038
S'NOUN'
p1039
F1.0
s(lp1040
(g116
I21
tp1041
atp1042
a(S'del'
p1043
(dp1044
S'ADP'
p1045
F1.0
s(lp1046
tp1047
a(S'gas'
p1048
(dp1049
S'NOUN'
p1050
F1.0
s(lp1051
(g124
I20
tp1052
atp1053
a(g62
(dp1054
g62
F1.0
s(lp1055
(g62
I22
tp1056
atp1057
as.