(dp0
S'fr'
p1
(lp2
(S'je'
p3
(dp4
S'PRON'
p5
F1.0
s(lp6
(S'i'
p7
I0
tp8
atp9
a(S'pense'
p10
(dp11
S'VERB'
p12
F1.0
s(lp13
(S'believe'
p14
I1
tp15
atp16
a(S'que'
p17
(dp18
S'ADV'
p19
F0.112792
sS'PRON'
p20
F0.035686999999999997
sS'CONJ'
p21
F0.85152
s(lp22
(S'that'
p23
I2
tp24
atp25
a(S'le'
p26
(dp27
S'PRON'
p28
F0.000546
sS'DET'
p29
F0.999454
s(lp30
(S'the'
p31
I3
tp32
atp33
a(S'r\xc3\xa8glement'
p34
(dp35
S'NOUN'
p36
F1.0
s(lp37
(S'regulation'
p38
I5
tp39
atp40
a(S'amend\xc3\xa9'
p41
(dp42
S'VERB'
p43
F1.0
s(lp44
(S'amended'
p45
I4
tp46
atp47
a(S'renforcera'
p48
(dp49
S'VERB'
p50
F1.0
s(lp51
(S'will'
p52
I6
tp53
atp54
a(S'la'
p55
(dp56
S'PRON'
p57
F2.6e-05
sS'DET'
p58
F0.999974
sS'NOUN'
p59
F0.0
s(lp60
tp61
a(S's\xc3\xa9curit\xc3\xa9'
p62
(dp63
S'NOUN'
p64
F1.0
s(lp65
(S'safety'
p66
I10
tp67
atp68
a(S'dans'
p69
(dp70
S'NOUN'
p71
F0.000115
sS'ADP'
p72
F0.999885
s(lp73
(S'in'
p74
I11
tp75
atp76
a(S"l'"
p77
(dp78
S'ADJ'
p79
F0.160717
sS'VERB'
p80
F0.06488100000000001
sS'NOUN'
p81
F0.774403
s(lp82
(S'the'
p83
I12
tp84
atp85
a(S'exploitation'
p86
(dp87
S'NOUN'
p88
F1.0
s(lp89
(S'operation'
p90
I13
tp91
atp92
a(S'des'
p93
(dp94
S'DET'
p95
F2.1e-05
sS'ADP'
p96
F0.999979
s(lp97
(S'of'
p98
I14
tp99
atp100
a(S'services'
p101
(dp102
S'NOUN'
p103
F1.0
s(lp104
(S'services'
p105
I16
tp106
atp107
a(S'a\xc3\xa9riens'
p108
(dp109
S'ADJ'
p110
F1.0
s(lp111
(S'air'
p112
I15
tp113
atp114
a(S','
p115
(dp116
S'.'
p117
F1.0
s(lp118
(g115
I17
tp119
atp120
a(S'particuli\xc3\xa8rement'
p121
(dp122
S'ADV'
p123
F1.0
s(lp124
(S'particular'
p125
I19
tp126
atp127
a(S'en'
p128
(dp129
S'PRON'
p130
F0.165866
sS'ADP'
p131
F0.834134
s(lp132
(S'by'
p133
I20
tp134
atp135
a(S'uniformisant'
p136
(dp137
S'VERB'
p138
F1.0
s(lp139
(S'unifying'
p140
I21
tp141
atp142
a(S'les'
p143
(dp144
S'PRON'
p145
F3e-06
sS'DET'
p146
F0.999976
sS'ADP'
p147
F2.1e-05
s(lp148
(S'the'
p149
I22
tp150
atp151
a(S'conditions'
p152
(dp153
S'NOUN'
p154
F1.0
s(lp155
(S'conditions'
p156
I23
tp157
atp158
a(S'de'
p159
(dp160
S'ADP'
p161
F1.0
s(lp162
(S'governing'
p163
I24
tp164
atp165
a(S'cr\xc3\xa9dit-bail'
p166
(dp167
S'NOUN'
p168
F1.0
s(lp169
(S'leasing'
p170
I26
tp171
atp172
a(S"d'"
p173
(dp174
S'NOUN'
p175
F0.032441
sS'VERB'
p176
F0.694014
sS'ADJ'
p177
F0.273544
s(lp178
(S'of'
p179
I27
tp180
atp181
a(S'a\xc3\xa9ronefs'
p182
(dp183
S'NOUN'
p184
F1.0
s(lp185
(S'aircraft'
p186
I28
tp187
atp188
a(S'avec'
p189
(dp190
S'ADV'
p191
F0.001196
sS'ADP'
p192
F0.998804
s(lp193
(S'with'
p194
I29
tp195
atp196
a(S'\xc3\xa9quipage'
p197
(dp198
S'NOUN'
p199
F1.0
s(lp200
(S'crew'
p201
I30
tp202
atp203
a(S'dans'
p204
(dp205
S'NOUN'
p206
F0.000115
sS'ADP'
p207
F0.999885
s(lp208
(S'in'
p209
I31
tp210
atp211
a(S"l'"
p212
(dp213
S'ADJ'
p214
F0.160717
sS'VERB'
p215
F0.06488100000000001
sS'NOUN'
p216
F0.774403
s(lp217
(S'the'
p218
I32
tp219
atp220
a(S'ue'
p221
(dp222
S'VERB'
p223
F0.031588
sS'NOUN'
p224
F0.968412
s(lp225
(S'eu'
p226
I33
tp227
atp228
a(S'ainsi'
p229
(dp230
S'ADV'
p231
F0.810507
sS'CONJ'
p232
F0.189493
s(lp233
(S'well'
p234
I36
tp235
atp236
a(S"qu'"
p237
(dp238
S'NOUN'
p239
F0.040383
sS'VERB'
p240
F0.517254
sS'ADJ'
p241
F0.442363
s(lp242
tp243
a(S'en'
p244
(dp245
S'PRON'
p246
F0.005807
sS'ADP'
p247
F0.994193
s(lp248
(S'as'
p249
I37
tp250
atp251
a(S'provenance'
p252
(dp253
S'NOUN'
p254
F1.0
s(lp255
(S'from'
p256
I38
tp257
atp258
a(S'de'
p259
(dp260
S'ADP'
p261
F1.0
s(lp262
tp263
a(S'pays'
p264
(dp265
S'NOUN'
p266
F1.0
s(lp267
(S'countries'
p268
I40
tp269
atp270
a(S'tiers'
p271
(dp272
S'NOUN'
p273
F1.0
s(lp274
(S'third'
p275
I39
tp276
atp277
a(g117
(dp278
g117
F1.0
s(lp279
(g117
I41
tp280
atp281
asS'en'
p282
(lp283
(g7
(dp284
S'X'
p285
F0.00531
sS'NOUN'
p286
F0.99469
s(lp287
(g7
I0
tp288
atp289
a(g14
(dp290
S'VERB'
p291
F1.0
s(lp292
(g14
I1
tp293
atp294
a(g23
(dp295
S'ADV'
p296
F0.000448
sS'DET'
p297
F0.003119
sS'ADP'
p298
F0.996434
s(lp299
(g23
I2
tp300
atp301
a(g31
(dp302
S'NOUN'
p303
F1.4e-05
sS'DET'
p304
F0.999986
s(lp305
(g31
I3
tp306
atp307
a(g45
(dp308
S'VERB'
p309
F1.0
s(lp310
(g45
I4
tp311
atp312
a(g38
(dp313
S'NOUN'
p314
F1.0
s(lp315
(g38
I5
tp316
atp317
a(g52
(dp318
S'VERB'
p319
F0.999893
sS'NOUN'
p320
F0.000107
s(lp321
(g52
I6
tp322
atp323
a(S'lead'
p324
(dp325
S'ADJ'
p326
F2.2e-05
sS'VERB'
p327
F0.999845
sS'NOUN'
p328
F0.000132
s(lp329
(g324
I7
tp330
atp331
a(S'to'
p332
(dp333
S'ADV'
p334
F2e-05
sS'PRT'
p335
F0.999977
sS'ADP'
p336
F2e-06
s(lp337
(g332
I8
tp338
atp339
a(S'improved'
p340
(dp341
S'VERB'
p342
F0.865491
sS'ADJ'
p343
F0.13451
s(lp344
(g340
I9
tp345
atp346
a(g66
(dp347
S'VERB'
p348
F0.000165
sS'NOUN'
p349
F0.999836
s(lp350
(g66
I10
tp351
atp352
a(g74
(dp353
S'ADV'
p354
F0.000191
sS'PRT'
p355
F0.00028
sS'ADP'
p356
F0.999528
s(lp357
(g74
I11
tp358
atp359
a(g83
(dp360
S'NOUN'
p361
F1e-06
sS'DET'
p362
F0.999999
s(lp363
(g83
I12
tp364
atp365
a(g90
(dp366
S'NOUN'
p367
F1.0
s(lp368
(g90
I13
tp369
atp370
a(g98
(dp371
S'ADP'
p372
F1.0
s(lp373
(g98
I14
tp374
atp375
a(g112
(dp376
S'VERB'
p377
F0.000207
sS'NOUN'
p378
F0.999792
s(lp379
(g112
I15
tp380
atp381
a(g105
(dp382
S'VERB'
p383
F0.000755
sS'NOUN'
p384
F0.999246
s(lp385
(g105
I16
tp386
atp387
a(g115
(dp388
g117
F1.0
s(lp389
(g115
I17
tp390
atp391
a(S'in'
p392
(dp393
S'ADV'
p394
F0.006111
sS'PRT'
p395
F1e-06
sS'ADP'
p396
F0.993888
s(lp397
(g392
I18
tp398
atp399
a(g125
(dp400
S'ADV'
p401
F0.023892
sS'NOUN'
p402
F0.097348
sS'ADJ'
p403
F0.878759
s(lp404
(g125
I19
tp405
atp406
a(g133
(dp407
S'ADV'
p408
F0.000228
sS'NOUN'
p409
F1e-05
sS'ADP'
p410
F0.999762
s(lp411
(g133
I20
tp412
atp413
a(g140
(dp414
S'VERB'
p415
F0.992179
sS'ADJ'
p416
F0.007821
s(lp417
(g140
I21
tp418
atp419
a(g149
(dp420
S'NOUN'
p421
F1.2e-05
sS'DET'
p422
F0.999988
s(lp423
(g149
I22
tp424
atp425
a(g156
(dp426
S'VERB'
p427
F5.6e-05
sS'NOUN'
p428
F0.999944
s(lp429
(g156
I23
tp430
atp431
a(g163
(dp432
S'VERB'
p433
F0.999712
sS'NOUN'
p434
F0.000288
s(lp435
(g163
I24
tp436
atp437
a(S'the'
p438
(dp439
S'NOUN'
p440
F1e-06
sS'DET'
p441
F0.999999
s(lp442
(g438
I25
tp443
atp444
a(g170
(dp445
S'VERB'
p446
F0.033168
sS'NOUN'
p447
F0.966832
s(lp448
(g170
I26
tp449
atp450
a(g179
(dp451
S'ADP'
p452
F1.0
s(lp453
(g179
I27
tp454
atp455
a(g186
(dp456
S'NOUN'
p457
F1.0
s(lp458
(g186
I28
tp459
atp460
a(g194
(dp461
S'ADP'
p462
F1.0
s(lp463
(g194
I29
tp464
atp465
a(g201
(dp466
S'VERB'
p467
F0.000126
sS'NOUN'
p468
F0.999874
s(lp469
(g201
I30
tp470
atp471
a(g209
(dp472
S'ADV'
p473
F0.000191
sS'PRT'
p474
F0.00028
sS'ADP'
p475
F0.999529
s(lp476
(g209
I31
tp477
atp478
a(g218
(dp479
S'NOUN'
p480
F7e-06
sS'DET'
p481
F0.999993
s(lp482
(g218
I32
tp483
atp484
a(g226
(dp485
S'ADV'
p486
F0.00011
sS'ADJ'
p487
F0.001103
sS'VERB'
p488
F0.00019400000000000003
sS'NOUN'
p489
F0.998592
s(lp490
(g226
I33
tp491
atp492
a(g115
(dp493
g117
F1.0
s(lp494
(g115
I34
tp495
atp496
a(S'as'
p497
(dp498
S'ADV'
p499
F0.626017
sS'ADP'
p500
F0.373983
s(lp501
(g497
I35
tp502
atp503
a(g234
(dp504
S'ADV'
p505
F0.994415
sg285
F0.0
sS'VERB'
p506
F0.000124
sS'NOUN'
p507
F0.005461
s(lp508
(g234
I36
tp509
atp510
a(g249
(dp511
S'ADV'
p512
F0.660811
sS'ADP'
p513
F0.339189
s(lp514
(g249
I37
tp515
atp516
a(g256
(dp517
S'ADP'
p518
F1.0
s(lp519
(g256
I38
tp520
atp521
a(g275
(dp522
S'NOUN'
p523
F0.005395
sS'ADJ'
p524
F0.994605
s(lp525
(g275
I39
tp526
atp527
a(g268
(dp528
S'NOUN'
p529
F1.0
s(lp530
(g268
I40
tp531
atp532
a(g117
(dp533
g117
F1.0
s(lp534
(g117
I41
tp535
atp536
asS'nl'
p537
(lp538
(S'ik'
p539
(dp540
S'PRON'
p541
F0.999994
sS'NOUN'
p542
F6e-06
s(lp543
(g7
I0
tp544
atp545
a(S'geloof'
p546
(dp547
S'VERB'
p548
F0.19289
sS'NOUN'
p549
F0.80711
s(lp550
(g14
I1
tp551
atp552
a(S'dat'
p553
(dp554
S'PRON'
p555
F0.042067
sS'CONJ'
p556
F0.957933
s(lp557
(g23
I2
tp558
atp559
a(S'de'
p560
(dp561
S'DET'
p562
F1.0
s(lp563
(g31
I3
tp564
atp565
a(S'gewijzigde'
p566
(dp567
S'NOUN'
p568
F6.6e-05
sS'VERB'
p569
F0.000263
sS'ADJ'
p570
F0.999671
s(lp571
(g45
I4
tp572
atp573
a(S'verordening'
p574
(dp575
S'NOUN'
p576
F1.0
s(lp577
(g38
I5
tp578
atp579
a(S'tot'
p580
(dp581
S'CONJ'
p582
F1.8e-05
sS'ADP'
p583
F0.999982
s(lp584
tp585
a(S'een'
p586
(dp587
S'ADJ'
p588
F1e-06
sS'PRON'
p589
F0.00052
sS'NUM'
p590
F1e-06
sS'DET'
p591
F0.999479
s(lp592
tp593
a(S'betere'
p594
(dp595
S'NOUN'
p596
F0.006174
sS'ADJ'
p597
F0.993826
s(lp598
(g340
I9
tp599
atp600
a(S'veiligheid'
p601
(dp602
S'NOUN'
p603
F1.0
s(lp604
(g66
I10
tp605
atp606
a(S'zal'
p607
(dp608
S'VERB'
p609
F1.0
s(lp610
(g52
I6
tp611
atp612
a(S'leiden'
p613
(dp614
S'VERB'
p615
F0.999657
sS'NOUN'
p616
F0.000343
s(lp617
(g324
I7
tp618
atp619
a(S'bij'
p620
(dp621
S'ADV'
p622
F0.00067
sS'ADJ'
p623
F0.0
sS'NOUN'
p624
F0.0
sS'ADP'
p625
F0.99933
s(lp626
(g74
I11
tp627
atp628
a(S'de'
p629
(dp630
S'DET'
p631
F1.0
s(lp632
(g83
I12
tp633
atp634
a(S'exploitatie'
p635
(dp636
S'NOUN'
p637
F1.0
s(lp638
(g90
I13
tp639
atp640
a(S'van'
p641
(dp642
S'ADP'
p643
F1.0
s(lp644
(g98
I14
tp645
atp646
a(S'luchtvaartdiensten'
p647
(dp648
S'NOUN'
p649
F1.0
s(lp650
(g112
I15
tp651
atp652
a(g115
(dp653
g117
F1.0
s(lp654
(g115
I17
tp655
atp656
a(S'in'
p657
(dp658
S'ADV'
p659
F0.014144
sS'VERB'
p660
F9e-06
sS'ADP'
p661
F0.985846
s(lp662
(g392
I18
tp663
atp664
a(S'het'
p665
(dp666
S'PRON'
p667
F0.0061860000000000005
sS'DET'
p668
F0.993814
s(lp669
tp670
a(S'bijzonder'
p671
(dp672
S'ADV'
p673
F0.001472
sS'ADJ'
p674
F0.998528
s(lp675
(g125
I19
tp676
atp677
a(S'door'
p678
(dp679
S'ADV'
p680
F1e-06
sS'CONJ'
p681
F7.5e-05
sS'ADP'
p682
F0.999924
s(lp683
(g133
I20
tp684
atp685
a(S'de'
p686
(dp687
S'DET'
p688
F1.0
s(lp689
(g149
I22
tp690
atp691
a(S'voorwaarden'
p692
(dp693
S'NOUN'
p694
F1.0
s(lp695
(g156
I23
tp696
atp697
a(S'te'
p698
(dp699
S'PRT'
p700
F1.0
s(lp701
tp702
a(S'uniformeren'
p703
(dp704
S'ADJ'
p705
F0.000109
sS'NOUN'
p706
F0.99989
s(lp707
(g170
I26
tp708
atp709
a(S'waaronder'
p710
(dp711
S'ADV'
p712
F1.0
s(lp713
tp714
a(S'vliegtuigen'
p715
(dp716
S'NOUN'
p717
F1.0
s(lp718
(g186
I28
tp719
atp720
a(S'met'
p721
(dp722
S'ADP'
p723
F1.0
s(lp724
(g194
I29
tp725
atp726
a(S'personeel'
p727
(dp728
S'ADJ'
p729
F0.000192
sS'NOUN'
p730
F0.999808
s(lp731
(g201
I30
tp732
atp733
a(S'uit'
p734
(dp735
S'ADV'
p736
F0.056413
sS'VERB'
p737
F2.6e-05
sS'ADP'
p738
F0.943561
s(lp739
(g209
I31
tp740
atp741
a(S'de'
p742
(dp743
S'DET'
p744
F1.0
s(lp745
(g218
I32
tp746
atp747
a(S'eu'
p748
(dp749
S'NOUN'
p750
F1.0
s(lp751
(g226
I33
tp752
atp753
a(S'en'
p754
(dp755
S'CONJ'
p756
F1.0
s(lp757
(g115
I34
tp758
atp759
a(S'ook'
p760
(dp761
S'ADV'
p762
F1.0
s(lp763
(g234
I36
tp764
atp765
a(S'uit'
p766
(dp767
S'ADV'
p768
F0.125423
sS'VERB'
p769
F8e-06
sS'ADP'
p770
F0.87457
s(lp771
(g256
I38
tp772
atp773
a(S'derde'
p774
(dp775
S'ADJ'
p776
F0.013337
sS'NUM'
p777
F0.005395
sS'NOUN'
p778
F0.981268
s(lp779
(g275
I39
tp780
atp781
a(S'landen'
p782
(dp783
S'VERB'
p784
F0.960994
sS'NOUN'
p785
F0.039006
s(lp786
(g268
I40
tp787
atp788
a(S'worden'
p789
(dp790
S'VERB'
p791
F1.0
sS'NOUN'
p792
F0.0
s(lp793
tp794
a(S'geleast'
p795
(dp796
S'VERB'
p797
F1.0
s(lp798
(g170
I26
tp799
atp800
a(g117
(dp801
g117
F1.0
s(lp802
(g117
I41
tp803
atp804
asS'de'
p805
(lp806
(S'meines'
p807
(dp808
S'PRON'
p809
F1.0
s(lp810
(g7
I0
tp811
atp812
a(S'erachtens'
p813
(dp814
S'ADJ'
p815
F0.00014
sS'NOUN'
p816
F0.999666
s(lp817
(g14
I1
tp818
atp819
a(S'wird'
p820
(dp821
S'VERB'
p822
F1.0
s(lp823
(g52
I6
tp824
atp825
a(S'die'
p826
(dp827
S'PRON'
p828
F0.002849
sS'DET'
p829
F0.99715
s(lp830
(g31
I3
tp831
atp832
a(S'ge\xc3\xa4nderte'
p833
(dp834
S'ADJ'
p835
F1.0
s(lp836
(g45
I4
tp837
atp838
a(S'verordnung'
p839
(dp840
S'VERB'
p841
F1.8e-05
sS'NOUN'
p842
F0.999955
s(lp843
(g38
I5
tp844
atp845
a(S'f\xc3\xbcr'
p846
(dp847
S'ADP'
p848
F1.0
s(lp849
(g332
I8
tp850
atp851
a(S'mehr'
p852
(dp853
S'ADV'
p854
F0.032048
sS'PRON'
p855
F0.966616
s(lp856
(g340
I9
tp857
atp858
a(S'sicherheit'
p859
(dp860
S'ADJ'
p861
F0.000912
sS'NOUN'
p862
F0.998612
s(lp863
(g66
I10
tp864
atp865
a(S'bei'
p866
(dp867
S'PRT'
p868
F0.000184
sS'ADP'
p869
F0.999816
s(lp870
(g74
I11
tp871
atp872
a(S'der'
p873
(dp874
S'PRON'
p875
F1.6e-05
sS'DET'
p876
F0.999979
s(lp877
(g83
I12
tp878
atp879
a(S'durchf\xc3\xbchrung'
p880
(dp881
S'ADJ'
p882
F0.000136
sS'NOUN'
p883
F0.999754
s(lp884
(g90
I13
tp885
atp886
a(S'von'
p887
(dp888
S'NOUN'
p889
F0.000696
sS'ADP'
p890
F0.999304
s(lp891
(g98
I14
tp892
atp893
a(S'luftverkehrsdiensten'
p894
(dp895
S'ADJ'
p896
F1.0
s(lp897
(g112
I15
tp898
atp899
a(S'sorgen'
p900
(dp901
S'VERB'
p902
F1.0
s(lp903
(g105
I16
tp904
atp905
a(g115
(dp906
g117
F1.0
s(lp907
(g115
I17
tp908
atp909
a(S'und'
p910
(dp911
S'CONJ'
p912
F1.0
s(lp913
tp914
a(S'zwar'
p915
(dp916
S'ADV'
p917
F1.0
s(lp918
tp919
a(S'insbesondere'
p920
(dp921
S'ADV'
p922
F1.0
s(lp923
(g125
I19
tp924
atp925
a(S'durch'
p926
(dp927
S'PRT'
p928
F0.000258
sS'ADP'
p929
F0.999577
s(lp930
(g133
I20
tp931
atp932
a(S'die'
p933
(dp934
S'PRON'
p935
F0.000284
sS'DET'
p936
F0.999687
s(lp937
tp938
a(S'vereinheitlichung'
p939
(dp940
S'ADJ'
p941
F0.009604
sS'NOUN'
p942
F0.98475
s(lp943
(g140
I21
tp944
atp945
a(S'der'
p946
(dp947
S'PRON'
p948
F0.000201
sS'DET'
p949
F0.999748
s(lp950
(g149
I22
tp951
atp952
a(S'bedingungen'
p953
(dp954
S'ADJ'
p955
F0.123475
sS'NOUN'
p956
F0.805954
s(lp957
(g156
I23
tp958
atp959
a(g115
(dp960
g117
F1.0
s(lp961
tp962
a(S'die'
p963
(dp964
S'PRON'
p965
F0.969205
sS'DET'
p966
F0.026136
s(lp967
tp968
a(S'f\xc3\xbcr'
p969
(dp970
S'ADP'
p971
F1.0
s(lp972
(g163
I24
tp973
atp974
a(S'das'
p975
(dp976
S'PRON'
p977
F0.001478
sS'DET'
p978
F0.998506
s(lp979
(g438
I25
tp980
atp981
a(S'leasing'
p982
(dp983
S'NOUN'
p984
F0.999677
s(lp985
(g170
I26
tp986
atp987
a(S'von'
p988
(dp989
S'NOUN'
p990
F0.000624
sS'ADP'
p991
F0.999376
s(lp992
(g179
I27
tp993
atp994
a(S'luftfahrzeugen'
p995
(dp996
S'ADJ'
p997
F0.002342
sS'NOUN'
p998
F0.996818
s(lp999
(g186
I28
tp1000
atp1001
a(S'mit'
p1002
(dp1003
S'PRT'
p1004
F0.001058
sS'ADP'
p1005
F0.998942
s(lp1006
(g194
I29
tp1007
atp1008
a(S'besatzung'
p1009
(dp1010
S'ADJ'
p1011
F0.049423
sS'NOUN'
p1012
F0.928505
s(lp1013
(g201
I30
tp1014
atp1015
a(S'in'
p1016
(dp1017
S'ADP'
p1018
F1.0
s(lp1019
(g209
I31
tp1020
atp1021
a(S'der'
p1022
(dp1023
S'PRON'
p1024
F0.000159
sS'DET'
p1025
F0.999827
s(lp1026
(g218
I32
tp1027
atp1028
a(S'eu'
p1029
(dp1030
g285
F0.13743
sS'ADJ'
p1031
F0.772953
s(lp1032
(g226
I33
tp1033
atp1034
a(S'sowie'
p1035
(dp1036
S'CONJ'
p1037
F1.0
s(lp1038
(g234
I36
tp1039
atp1040
a(S'aus'
p1041
(dp1042
S'ADV'
p1043
F0.000515
sS'ADP'
p1044
F0.999478
s(lp1045
(g256
I38
tp1046
atp1047
a(S'drittl\xc3\xa4ndern'
p1048
(dp1049
S'ADJ'
p1050
F0.035702
sS'NOUN'
p1051
F0.962516
s(lp1052
(g275
I39
tp1053
atp1054
a(S'gelten'
p1055
(dp1056
S'VERB'
p1057
F1.0
s(lp1058
(g268
I40
tp1059
atp1060
a(g117
(dp1061
g117
F1.0
s(lp1062
(g117
I41
tp1063
atp1064
asS'it'
p1065
(lp1066
(S'credo'
p1067
(dp1068
S'VERB'
p1069
F0.950311
sS'NOUN'
p1070
F0.049689
s(lp1071
(g14
I1
tp1072
atp1073
a(S'che'
p1074
(dp1075
S'PRON'
p1076
F0.979878
sS'CONJ'
p1077
F0.019406
sS'ADJ'
p1078
F0.000716
s(lp1079
(g23
I2
tp1080
atp1081
a(S'il'
p1082
(dp1083
S'DET'
p1084
F1.0
s(lp1085
(g31
I3
tp1086
atp1087
a(S'regolamento'
p1088
(dp1089
S'VERB'
p1090
F0.013139
sS'NOUN'
p1091
F0.986861
s(lp1092
(g38
I5
tp1093
atp1094
a(S'modificato'
p1095
(dp1096
S'VERB'
p1097
F1.0
s(lp1098
(g45
I4
tp1099
atp1100
a(S'porter\xc3\xa0'
p1101
(dp1102
S'VERB'
p1103
F1.0
s(lp1104
(g324
I7
tp1105
atp1106
a(S'ad'
p1107
(dp1108
S'ADP'
p1109
F1.0
s(lp1110
(g332
I8
tp1111
atp1112
a(S'una'
p1113
(dp1114
S'PRON'
p1115
F6.9e-05
sS'DEF'
p1116
F0.999931
s(lp1117
tp1118
a(S'maggiore'
p1119
(dp1120
S'NOUN'
p1121
F0.005002
sS'ADJ'
p1122
F0.994998
s(lp1123
(g340
I9
tp1124
atp1125
a(S'sicurezza'
p1126
(dp1127
S'NOUN'
p1128
F1.0
s(lp1129
(g66
I10
tp1130
atp1131
a(S"nell'"
p1132
(dp1133
S'ADJ'
p1134
F0.040682
sS'VERB'
p1135
F0.006560999999999999
sS'NOUN'
p1136
F0.952757
s(lp1137
(g74
I11
tp1138
atp1139
a(S'elaborazione'
p1140
(dp1141
S'NOUN'
p1142
F1.0
s(lp1143
(g90
I13
tp1144
atp1145
a(S'dei'
p1146
(dp1147
S'NOUN'
p1148
F1e-06
sS'DEF'
p1149
F0.001164
sS'ADP'
p1150
F0.998835
s(lp1151
(g98
I14
tp1152
atp1153
a(S'servizi'
p1154
(dp1155
S'NOUN'
p1156
F1.0
s(lp1157
(g105
I16
tp1158
atp1159
a(S'aerei'
p1160
(dp1161
S'NOUN'
p1162
F0.016345
sS'ADJ'
p1163
F0.983655
s(lp1164
(g112
I15
tp1165
atp1166
a(g115
(dp1167
g117
F1.0
s(lp1168
(g115
I17
tp1169
atp1170
a(S'in'
p1171
(dp1172
S'ADP'
p1173
F1.0
s(lp1174
(g392
I18
tp1175
atp1176
a(S'particolare'
p1177
(dp1178
S'ADJ'
p1179
F0.385288
sS'NOUN'
p1180
F0.614712
s(lp1181
(g125
I19
tp1182
atp1183
a(S'unificando'
p1184
(dp1185
S'VERB'
p1186
F1.0
s(lp1187
(g140
I21
tp1188
atp1189
a(S'le'
p1190
(dp1191
S'PRON'
p1192
F3e-06
sS'DET'
p1193
F0.999997
s(lp1194
(g149
I22
tp1195
atp1196
a(S'condizioni'
p1197
(dp1198
S'VERB'
p1199
F5.8e-05
sS'NOUN'
p1200
F0.999942
s(lp1201
(g156
I23
tp1202
atp1203
a(S'che'
p1204
(dp1205
S'PRON'
p1206
F0.960051
sS'CONJ'
p1207
F0.039098
sS'ADJ'
p1208
F0.000851
s(lp1209
tp1210
a(S'governano'
p1211
(dp1212
S'VERB'
p1213
F1.0
s(lp1214
(g163
I24
tp1215
atp1216
a(S'la'
p1217
(dp1218
S'PRON'
p1219
F0.0
sS'DET'
p1220
F1.0
s(lp1221
(g438
I25
tp1222
atp1223
a(S'locazione'
p1224
(dp1225
S'NOUN'
p1226
F1.0
s(lp1227
(g170
I26
tp1228
atp1229
a(S'di'
p1230
(dp1231
S'CONJ'
p1232
F4e-06
sS'ADP'
p1233
F0.999996
s(lp1234
(g179
I27
tp1235
atp1236
a(S'aeromobili'
p1237
(dp1238
S'NOUN'
p1239
F1.0
s(lp1240
(g186
I28
tp1241
atp1242
a(S'con'
p1243
(dp1244
S'ADP'
p1245
F1.0
s(lp1246
(g194
I29
tp1247
atp1248
a(S'equipaggio'
p1249
(dp1250
S'VERB'
p1251
F9.2e-05
sS'NOUN'
p1252
F0.999908
s(lp1253
tp1254
a(S'proveniente'
p1255
(dp1256
S'VERB'
p1257
F0.148111
sS'ADJ'
p1258
F0.851889
s(lp1259
(g201
I30
tp1260
atp1261
a(S"dall'"
p1262
(dp1263
S'ADJ'
p1264
F0.000905
sS'NOUN'
p1265
F0.999095
s(lp1266
(g218
I32
tp1267
atp1268
a(S'ue'
p1269
(dp1270
S'ADJ'
p1271
F0.002161
sS'VERB'
p1272
F0.026514
sS'NOUN'
p1273
F0.971324
s(lp1274
(g226
I33
tp1275
atp1276
a(g115
(dp1277
g117
F1.0
s(lp1278
(g115
I34
tp1279
atp1280
a(S'cos\xc3\xac'
p1281
(dp1282
S'ADV'
p1283
F0.818246
sS'CONJ'
p1284
F0.181754
s(lp1285
(g497
I35
tp1286
atp1287
a(S'come'
p1288
(dp1289
S'PRON'
p1290
F0.036887
sS'CONJ'
p1291
F0.905158
sS'NOUN'
p1292
F0.000716
sS'ADP'
p1293
F0.057239
s(lp1294
(g249
I37
tp1295
atp1296
a(S'da'
p1297
(dp1298
S'ADP'
p1299
F1.0
s(lp1300
(g256
I38
tp1301
atp1302
a(S'paesi'
p1303
(dp1304
S'NOUN'
p1305
F1.0
s(lp1306
(g268
I40
tp1307
atp1308
a(S'terzi'
p1309
(dp1310
S'NOUN'
p1311
F0.021764
sS'ADJ'
p1312
F0.978236
s(lp1313
(g275
I39
tp1314
atp1315
a(g117
(dp1316
g117
F1.0
s(lp1317
(g117
I41
tp1318
atp1319
asS'sk'
p1320
(lp1321
(S'ver\xc3\xadm'
p1322
(dp1323
S'VERB'
p1324
F1.0
s(lp1325
tp1326
a(g115
(dp1327
g117
F1.0
s(lp1328
(g14
I1
tp1329
atp1330
a(S'\xc5\xbee'
p1331
(dp1332
g285
F0.0009
sS'CONJ'
p1333
F0.9991
s(lp1334
(g23
I2
tp1335
atp1336
a(S'v'
p1337
(dp1338
g285
F0.000669
sS'ADP'
p1339
F0.999331
s(lp1340
(g31
I3
tp1341
atp1342
a(S'pozmenenej'
p1343
(dp1344
S'NOUN'
p1345
F0.000826
sS'VERB'
p1346
F0.395595
sS'ADJ'
p1347
F0.603577
s(lp1348
tp1349
a(S'podobe'
p1350
(dp1351
S'NOUN'
p1352
F1.0
s(lp1353
(g45
I4
tp1354
atp1355
a(S'nariadenie'
p1356
(dp1357
S'NOUN'
p1358
F1.0
s(lp1359
(g38
I5
tp1360
atp1361
a(S'lep\xc5\xa1ie'
p1362
(dp1363
S'ADV'
p1364
F0.207771
sS'ADJ'
p1365
F0.792229
s(lp1366
(g340
I9
tp1367
atp1368
a(S'ochr\xc3\xa1ni'
p1369
(dp1370
S'VERB'
p1371
F1.0
s(lp1372
tp1373
a(S'aj'
p1374
(dp1375
g285
F0.917017
sS'CONJ'
p1376
F0.082983
s(lp1377
(g438
I25
tp1378
atp1379
a(S'bezpe\xc4\x8dnos\xc5\xa5'
p1380
(dp1381
S'NOUN'
p1382
F1.0
s(lp1383
(g66
I10
tp1384
atp1385
a(S'prev\xc3\xa1dzky'
p1386
(dp1387
S'NOUN'
p1388
F1.0
s(lp1389
(g90
I13
tp1390
atp1391
a(S'najm\xc3\xa4'
p1392
(dp1393
g285
F1.0
s(lp1394
(g125
I19
tp1395
atp1396
a(S'zjednoten\xc3\xadm'
p1397
(dp1398
S'NOUN'
p1399
F1.0
s(lp1400
(g140
I21
tp1401
atp1402
a(S'podmienok'
p1403
(dp1404
S'NOUN'
p1405
F1.0
s(lp1406
(g156
I23
tp1407
atp1408
a(S'pren\xc3\xa1jmu'
p1409
(dp1410
S'NOUN'
p1411
F1.0
s(lp1412
(g170
I26
tp1413
atp1414
a(S'lietadiel'
p1415
(dp1416
S'NOUN'
p1417
F1.0
s(lp1418
(g186
I28
tp1419
atp1420
a(S's'
p1421
(dp1422
g285
F0.00085
sS'CONJ'
p1423
F7.9e-05
sS'NOUN'
p1424
F7e-06
sS'ADP'
p1425
F0.999034
sS'PRT'
p1426
F3e-05
s(lp1427
(g194
I29
tp1428
atp1429
a(S'pos\xc3\xa1dkou'
p1430
(dp1431
S'NOUN'
p1432
F1.0
s(lp1433
(g201
I30
tp1434
atp1435
a(g1337
(dp1436
g285
F0.0015049999999999998
sS'ADP'
p1437
F0.998495
s(lp1438
(g209
I31
tp1439
atp1440
a(S'e\xc3\x9a'
p1441
(dp1442
S'ADV'
p1443
F0.002918
sS'NOUN'
p1444
F0.45227799999999996
sS'VERB'
p1445
F0.000422
sS'ADJ'
p1446
F0.5417379999999999
sg285
F0.002643
s(lp1447
(g226
I33
tp1448
atp1449
a(g115
(dp1450
g117
F1.0
s(lp1451
(g115
I34
tp1452
atp1453
a(S'ale'
p1454
(dp1455
g285
F0.008684
sS'CONJ'
p1456
F0.991316
s(lp1457
(g497
I35
tp1458
atp1459
a(S'aj'
p1460
(dp1461
g285
F0.7927390000000001
sS'CONJ'
p1462
F0.207261
s(lp1463
(g234
I36
tp1464
atp1465
a(S'z'
p1466
(dp1467
g285
F1.2e-05
sS'NOUN'
p1468
F8e-06
sS'ADP'
p1469
F0.999981
s(lp1470
(g256
I38
tp1471
atp1472
a(S'tret\xc3\xadch'
p1473
(dp1474
S'NUM'
p1475
F1.0
s(lp1476
(g275
I39
tp1477
atp1478
a(S'kraj\xc3\xadn'
p1479
(dp1480
S'NOUN'
p1481
F1.0
s(lp1482
(g268
I40
tp1483
atp1484
a(g117
(dp1485
g117
F1.0
s(lp1486
(g117
I41
tp1487
atp1488
asS'pl'
p1489
(lp1490
(S'uwa\xc5\xbcam'
p1491
(dp1492
S'VERB'
p1493
F1.0
s(lp1494
(g14
I1
tp1495
atp1496
a(g115
(dp1497
g285
F0.0
sg117
F1.0
s(lp1498
tp1499
a(S'\xc5\xbce'
p1500
(dp1501
S'PRT'
p1502
F0.001952
sS'CONJ'
p1503
F0.998048
s(lp1504
(g23
I2
tp1505
atp1506
a(S'przekszta\xc5\x82cone'
p1507
(dp1508
S'VERB'
p1509
F1.0
s(lp1510
(g45
I4
tp1511
atp1512
a(S'rozporz\xc4\x85dzenie'
p1513
(dp1514
S'NOUN'
p1515
F1.0
s(lp1516
(g38
I5
tp1517
atp1518
a(S'pozwoli'
p1519
(dp1520
S'VERB'
p1521
F1.0
s(lp1522
(g52
I6
tp1523
atp1524
a(S'na'
p1525
(dp1526
S'PRT'
p1527
F1.1e-05
sS'VERB'
p1528
F0.0
sS'NOUN'
p1529
F1e-06
sS'ADP'
p1530
F0.999987
sg285
F0.0
s(lp1531
(g332
I8
tp1532
atp1533
a(S'popraw\xc4\x99'
p1534
(dp1535
S'NOUN'
p1536
F1.0
s(lp1537
(g340
I9
tp1538
atp1539
a(S'bezpiecze\xc5\x84stwa'
p1540
(dp1541
S'NOUN'
p1542
F1.0
s(lp1543
(g66
I10
tp1544
atp1545
a(S'w'
p1546
(dp1547
S'NOUN'
p1548
F2.8e-05
sS'ADJ'
p1549
F0.000403
sS'ADP'
p1550
F0.999567
sg285
F2e-06
s(lp1551
(g74
I11
tp1552
atp1553
a(S'realizacji'
p1554
(dp1555
S'NOUN'
p1556
F0.9999990000000001
s(lp1557
(g90
I13
tp1558
atp1559
a(S'us\xc5\x82ug'
p1560
(dp1561
S'NOUN'
p1562
F1.0
s(lp1563
(g105
I16
tp1564
atp1565
a(S'lotniczych'
p1566
(dp1567
S'ADJ'
p1568
F1.000001
s(lp1569
(g112
I15
tp1570
atp1571
a(g115
(dp1572
g285
F0.0
sg117
F1.0
s(lp1573
(g115
I17
tp1574
atp1575
a(S'zw\xc5\x82aszcza'
p1576
(dp1577
S'PRT'
p1578
F1.0
s(lp1579
(g125
I19
tp1580
atp1581
a(S'poprzez'
p1582
(dp1583
S'ADP'
p1584
F1.0
s(lp1585
(g133
I20
tp1586
atp1587
a(S'ujednolicenie'
p1588
(dp1589
S'VERB'
p1590
F1.0
s(lp1591
(g140
I21
tp1592
atp1593
a(S'warunk\xc3\xb3w'
p1594
(dp1595
S'NOUN'
p1596
F1.0
s(lp1597
(g156
I23
tp1598
atp1599
a(S'okre\xc5\x9blaj\xc4\x85cych'
p1600
(dp1601
S'VERB'
p1602
F1.0
s(lp1603
tp1604
a(S'leasing'
p1605
(dp1606
S'ADV'
p1607
F0.000456
sS'ADJ'
p1608
F0.00042199999999999996
sS'VERB'
p1609
F0.0025590000000000005
sS'NOUN'
p1610
F0.9965099999999999
sg285
F4.9e-05
s(lp1611
(g170
I26
tp1612
atp1613
a(S'statk\xc3\xb3w'
p1614
(dp1615
S'NOUN'
p1616
F1.0
s(lp1617
tp1618
a(S'powietrznych'
p1619
(dp1620
S'ADJ'
p1621
F1.0
s(lp1622
(g186
I28
tp1623
atp1624
a(g1466
(dp1625
S'PRT'
p1626
F4e-06
sS'VERB'
p1627
F1e-06
sS'NOUN'
p1628
F0.0
sS'ADP'
p1629
F0.999995
sg285
F0.0
s(lp1630
(g194
I29
tp1631
atp1632
a(S'za\xc5\x82og\xc4\x85'
p1633
(dp1634
S'NOUN'
p1635
F1.0
s(lp1636
(g201
I30
tp1637
atp1638
a(g1546
(dp1639
S'NOUN'
p1640
F6e-05
sS'ADJ'
p1641
F0.000951
sS'ADP'
p1642
F0.998971
sg285
F1.8e-05
s(lp1643
(g209
I31
tp1644
atp1645
a(S'ue'
p1646
(dp1647
S'ADJ'
p1648
F3e-06
sS'VERB'
p1649
F5.999999999999999e-06
sS'NOUN'
p1650
F0.999991
s(lp1651
(g226
I33
tp1652
atp1653
a(g115
(dp1654
g285
F0.0
sg117
F1.0
s(lp1655
(g115
I34
tp1656
atp1657
a(S'jak'
p1658
(dp1659
S'ADV'
p1660
F0.847763
sS'PRT'
p1661
F0.000968
sS'CONJ'
p1662
F0.12946100000000002
sS'ADP'
p1663
F0.021724
sS'PRON'
p1664
F8.4e-05
s(lp1665
(g497
I35
tp1666
atp1667
a(g7
(dp1668
S'PRT'
p1669
F0.015966
sS'CONJ'
p1670
F0.983797
sS'NOUN'
p1671
F0.000197
sg285
F7e-06
sS'PRON'
p1672
F3.2999999999999996e-05
s(lp1673
(g234
I36
tp1674
atp1675
a(g1466
(dp1676
S'PRT'
p1677
F0.000344
sS'VERB'
p1678
F1.6e-05
sS'NOUN'
p1679
F2.7e-05
sS'ADP'
p1680
F0.999613
sg285
F1e-06
s(lp1681
(g256
I38
tp1682
atp1683
a(S'pa\xc5\x84stw'
p1684
(dp1685
S'NOUN'
p1686
F1.0
s(lp1687
(g268
I40
tp1688
atp1689
a(S'trzecich'
p1690
(dp1691
S'ADJ'
p1692
F1.0
s(lp1693
(g275
I39
tp1694
atp1695
a(g117
(dp1696
g117
F1.0
s(lp1697
(g117
I41
tp1698
atp1699
asS'sl'
p1700
(lp1701
(S'menim'
p1702
(dp1703
S'VERB'
p1704
F1.0
s(lp1705
(g14
I1
tp1706
atp1707
a(g115
(dp1708
g117
F1.0
s(lp1709
tp1710
a(S'da'
p1711
(dp1712
S'PRT'
p1713
F0.000131
sS'CONJ'
p1714
F0.999856
sS'VERB'
p1715
F1.2e-05
sg285
F0.0
s(lp1716
(g23
I2
tp1717
atp1718
a(S'bo'
p1719
(dp1720
S'VERB'
p1721
F1.0
s(lp1722
(g52
I6
tp1723
atp1724
a(S'spremenjena'
p1725
(dp1726
S'ADJ'
p1727
F1.0
s(lp1728
(g45
I4
tp1729
atp1730
a(S'uredba'
p1731
(dp1732
S'NOUN'
p1733
F1.0
s(lp1734
(g38
I5
tp1735
atp1736
a(S'izbolj\xc5\xa1ala'
p1737
(dp1738
S'VERB'
p1739
F1.0
s(lp1740
(g340
I9
tp1741
atp1742
a(S'varnost'
p1743
(dp1744
S'NOUN'
p1745
F1.0
s(lp1746
(g66
I10
tp1747
atp1748
a(S'delovanja'
p1749
(dp1750
S'NOUN'
p1751
F1.0
s(lp1752
(g90
I13
tp1753
atp1754
a(S'letalskih'
p1755
(dp1756
S'ADJ'
p1757
F1.0
s(lp1758
(g112
I15
tp1759
atp1760
a(S'storitev'
p1761
(dp1762
S'NOUN'
p1763
F0.999999
s(lp1764
(g105
I16
tp1765
atp1766
a(g115
(dp1767
g117
F1.0
s(lp1768
(g115
I17
tp1769
atp1770
a(S'zlasti'
p1771
(dp1772
S'ADV'
p1773
F0.025424
sS'PRT'
p1774
F0.974576
s(lp1775
(g125
I19
tp1776
atp1777
a(g1421
(dp1778
S'VERB'
p1779
F2e-06
sS'NOUN'
p1780
F4.5e-05
sS'ADP'
p1781
F0.999953
s(lp1782
(g133
I20
tp1783
atp1784
a(S'poenotenjem'
p1785
(dp1786
S'ADV'
p1787
F0.000445
sS'ADJ'
p1788
F9.999999999999999e-05
sS'VERB'
p1789
F2.0000000000000005e-05
sS'NOUN'
p1790
F0.9994350000000001
s(lp1791
(g140
I21
tp1792
atp1793
a(S'pogojev'
p1794
(dp1795
S'NOUN'
p1796
F1.0
s(lp1797
(g156
I23
tp1798
atp1799
a(S'za'
p1800
(dp1801
S'ADV'
p1802
F7e-06
sg285
F1e-06
sS'ADP'
p1803
F0.999992
s(lp1804
(g163
I24
tp1805
atp1806
a(S'zakup'
p1807
(dp1808
S'NOUN'
p1809
F1.0
s(lp1810
(g170
I26
tp1811
atp1812
a(S'zrakoplova'
p1813
(dp1814
S'ADV'
p1815
F0.002492
sS'ADJ'
p1816
F0.02198199999999999
sS'VERB'
p1817
F0.10099799999999999
sS'NOUN'
p1818
F0.8744370000000004
sS'PRON'
p1819
F9.099999999999999e-05
s(lp1820
(g186
I28
tp1821
atp1822
a(g1421
(dp1823
S'VERB'
p1824
F0.003042
sS'NOUN'
p1825
F0.018472
sS'ADP'
p1826
F0.978486
s(lp1827
(g194
I29
tp1828
atp1829
a(S'posadko'
p1830
(dp1831
S'NOUN'
p1832
F1.0
s(lp1833
(g201
I30
tp1834
atp1835
a(g1337
(dp1836
S'ADP'
p1837
F1.0
s(lp1838
(g209
I31
tp1839
atp1840
a(S'eu'
p1841
(dp1842
S'ADV'
p1843
F0.000101
sS'ADJ'
p1844
F0.0018800000000000002
sS'VERB'
p1845
F1e-06
sS'NOUN'
p1846
F0.99802
s(lp1847
(g226
I33
tp1848
atp1849
a(g115
(dp1850
g117
F1.0
s(lp1851
(g115
I34
tp1852
atp1853
a(S'pa'
p1854
(dp1855
g285
F6.9e-05
sS'CONJ'
p1856
F0.999931
s(lp1857
tp1858
a(S'tudi'
p1859
(dp1860
S'PRT'
p1861
F1.0
s(lp1862
(g234
I36
tp1863
atp1864
a(S'iz'
p1865
(dp1866
g285
F3e-06
sS'ADP'
p1867
F0.999997
s(lp1868
(g256
I38
tp1869
atp1870
a(S'tretjih'
p1871
(dp1872
S'NUM'
p1873
F1.0
s(lp1874
(g275
I39
tp1875
atp1876
a(S'dr\xc5\xbeav'
p1877
(dp1878
S'NOUN'
p1879
F1.0
s(lp1880
(g268
I40
tp1881
atp1882
a(g117
(dp1883
g117
F1.0
s(lp1884
(g117
I41
tp1885
atp1886
asS'es'
p1887
(lp1888
(S'creo'
p1889
(dp1890
S'VERB'
p1891
F1.0
s(lp1892
(g14
I1
tp1893
atp1894
a(S'que'
p1895
(dp1896
g285
F0.0
sS'CONJ'
p1897
F1.0
s(lp1898
(g23
I2
tp1899
atp1900
a(S'el'
p1901
(dp1902
S'PRON'
p1903
F0.002498
sS'DET'
p1904
F0.997502
s(lp1905
(g31
I3
tp1906
atp1907
a(S'reglamento'
p1908
(dp1909
S'VERB'
p1910
F0.002916
sS'NOUN'
p1911
F0.997084
s(lp1912
(g38
I5
tp1913
atp1914
a(S'modificado'
p1915
(dp1916
S'VERB'
p1917
F1.0
s(lp1918
(g45
I4
tp1919
atp1920
a(S'conducir\xc3\xa1'
p1921
(dp1922
S'VERB'
p1923
F1.0
s(lp1924
(g324
I7
tp1925
atp1926
a(S'a'
p1927
(dp1928
g285
F1.3000000000000001e-05
sS'CONJ'
p1929
F0.113064
sS'ADP'
p1930
F0.886923
s(lp1931
(g332
I8
tp1932
atp1933
a(S'mejorar'
p1934
(dp1935
S'VERB'
p1936
F1.0
s(lp1937
(g340
I9
tp1938
atp1939
a(S'la'
p1940
(dp1941
S'PRON'
p1942
F4e-06
sS'DET'
p1943
F0.999995
sS'NOUN'
p1944
F0.0
sg285
F1e-06
s(lp1945
tp1946
a(S'seguridad'
p1947
(dp1948
S'NOUN'
p1949
F1.0
s(lp1950
(g66
I10
tp1951
atp1952
a(S'en'
p1953
(dp1954
g285
F0.0
sS'CONJ'
p1955
F0.0
sS'ADP'
p1956
F1.0
s(lp1957
(g74
I11
tp1958
atp1959
a(S'la'
p1960
(dp1961
S'NOUN'
p1962
F0.0
sS'PRON'
p1963
F0.0
sS'DET'
p1964
F0.999999
sg285
F0.0
s(lp1965
(g83
I12
tp1966
atp1967
a(S'explotaci\xc3\xb3n'
p1968
(dp1969
S'NOUN'
p1970
F1.0
s(lp1971
(g90
I13
tp1972
atp1973
a(S'de'
p1974
(dp1975
g285
F2.9e-05
sS'CONJ'
p1976
F0.000449
sS'ADP'
p1977
F0.999522
s(lp1978
(g98
I14
tp1979
atp1980
a(S'servicios'
p1981
(dp1982
S'NOUN'
p1983
F1.0
s(lp1984
(g105
I16
tp1985
atp1986
a(S'a\xc3\xa9reos'
p1987
(dp1988
S'ADJ'
p1989
F1.0
s(lp1990
(g112
I15
tp1991
atp1992
a(g115
(dp1993
g117
F1.0
s(lp1994
(g115
I17
tp1995
atp1996
a(S'en'
p1997
(dp1998
S'ADV'
p1999
F1.0
s(lp2000
(g392
I18
tp2001
atp2002
a(S'particular'
p2003
(dp2004
S'ADV'
p2005
F1.0
s(lp2006
(g125
I19
tp2007
atp2008
a(S'unificando'
p2009
(dp2010
S'VERB'
p2011
F1.0
s(lp2012
(g140
I21
tp2013
atp2014
a(S'las'
p2015
(dp2016
S'PRON'
p2017
F0.0
sS'DET'
p2018
F1.0
s(lp2019
(g149
I22
tp2020
atp2021
a(S'condiciones'
p2022
(dp2023
S'NOUN'
p2024
F1.0
s(lp2025
(g156
I23
tp2026
atp2027
a(S'que'
p2028
(dp2029
g285
F3e-06
sS'CONJ'
p2030
F0.999997
s(lp2031
tp2032
a(S'rigen'
p2033
(dp2034
S'VERB'
p2035
F1.0
s(lp2036
(g163
I24
tp2037
atp2038
a(S'el'
p2039
(dp2040
S'PRON'
p2041
F1e-06
sS'DET'
p2042
F0.999999
s(lp2043
(g438
I25
tp2044
atp2045
a(S'arrendamiento'
p2046
(dp2047
S'NOUN'
p2048
F1.0
s(lp2049
(g170
I26
tp2050
atp2051
a(S'de'
p2052
(dp2053
g285
F2.9e-05
sS'CONJ'
p2054
F0.000449
sS'ADP'
p2055
F0.999522
s(lp2056
(g179
I27
tp2057
atp2058
a(S'aeronaves'
p2059
(dp2060
S'NOUN'
p2061
F1.0
s(lp2062
(g186
I28
tp2063
atp2064
a(S'con'
p2065
(dp2066
S'ADP'
p2067
F1.0
s(lp2068
(g194
I29
tp2069
atp2070
a(S'tripulaci\xc3\xb3n'
p2071
(dp2072
S'NOUN'
p2073
F1.0
s(lp2074
(g201
I30
tp2075
atp2076
a(S'en'
p2077
(dp2078
g285
F0.0
sS'CONJ'
p2079
F0.0
sS'ADP'
p2080
F1.0
s(lp2081
(g209
I31
tp2082
atp2083
a(S'la'
p2084
(dp2085
S'NOUN'
p2086
F0.0
sS'PRON'
p2087
F0.0
sS'DET'
p2088
F0.999999
sg285
F0.0
s(lp2089
(g218
I32
tp2090
atp2091
a(S'ue'
p2092
(dp2093
S'VERB'
p2094
F1e-05
sS'NOUN'
p2095
F0.9999910000000001
s(lp2096
(g226
I33
tp2097
atp2098
a(g115
(dp2099
g117
F1.0
s(lp2100
(g115
I34
tp2101
atp2102
a(S'as\xc3\xad'
p2103
(dp2104
S'CONJ'
p2105
F1.0
s(lp2106
(g234
I36
tp2107
atp2108
a(S'como'
p2109
(dp2110
S'CONJ'
p2111
F1.0
s(lp2112
(g249
I37
tp2113
atp2114
a(S'de'
p2115
(dp2116
g285
F0.000165
sS'CONJ'
p2117
F0.00753
sS'ADP'
p2118
F0.992306
s(lp2119
(g256
I38
tp2120
atp2121
a(S'terceros'
p2122
(dp2123
S'ADJ'
p2124
F1.0
s(lp2125
(g275
I39
tp2126
atp2127
a(S'pa\xc3\xadses'
p2128
(dp2129
S'NOUN'
p2130
F1.0
s(lp2131
(g268
I40
tp2132
atp2133
a(g117
(dp2134
g117
F1.0
s(lp2135
(g117
I41
tp2136
atp2137
as.