(dp0
S'fr'
p1
(lp2
(S'les'
p3
(dp4
S'PRON'
p5
F0.000397
sS'DET'
p6
F0.99958
sS'ADP'
p7
F2.3e-05
s(lp8
tp9
a(S'gouvernements'
p10
(dp11
S'NOUN'
p12
F1.0
s(lp13
(S'governments'
p14
I0
tp15
atp16
a(S'des'
p17
(dp18
S'DET'
p19
F2.1e-05
sS'ADP'
p20
F0.999979
s(lp21
(S'of'
p22
I1
tp23
atp24
a(S'pays'
p25
(dp26
S'NOUN'
p27
F1.0
s(lp28
(S'countries'
p29
I2
tp30
atp31
a(S'du'
p32
(dp33
S'ADP'
p34
F1.0
s(lp35
(S'of'
p36
I3
tp37
atp38
a(S'sud'
p39
(dp40
S'ADJ'
p41
F0.201521
sS'NOUN'
p42
F0.798479
s(lp43
(S'southern'
p44
I5
tp45
atp46
a(S'et'
p47
(dp48
S'CONJ'
p49
F1.0
s(lp50
(S'and'
p51
I6
tp52
atp53
a(S'de'
p54
(dp55
S'ADP'
p56
F1.0
s(lp57
tp58
a(S"l'"
p59
(dp60
S'ADJ'
p61
F0.160704
sS'VERB'
p62
F0.06480800000000002
sS'NOUN'
p63
F0.774488
s(lp64
tp65
a(S'est'
p66
(dp67
S'VERB'
p68
F0.995686
sS'NOUN'
p69
F0.004314
s(lp70
(S'eastern'
p71
I7
tp72
atp73
a(S'de'
p74
(dp75
S'ADP'
p76
F1.0
s(lp77
tp78
a(S'la'
p79
(dp80
S'PRON'
p81
F1.6e-05
sS'DET'
p82
F0.99998
sS'NOUN'
p83
F4e-06
s(lp84
tp85
a(S'baltique'
p86
(dp87
S'ADJ'
p88
F0.211309
sS'NOUN'
p89
F0.788691
s(lp90
(S'baltic'
p91
I8
tp92
atp93
a(S'ont'
p94
(dp95
S'VERB'
p96
F1.0
s(lp97
(S'have'
p98
I9
tp99
atp100
a(S'bien'
p101
(dp102
S'ADV'
p103
F0.997785
sS'NOUN'
p104
F0.00054
sS'ADJ'
p105
F0.001675
s(lp106
tp107
a(S'r\xc3\xa9pondu'
p108
(dp109
S'VERB'
p110
F1.0
s(lp111
(S'responded'
p112
I10
tp113
atp114
a(S'\xc3\xa0'
p115
(dp116
S'ADP'
p117
F1.0
s(lp118
(S'to'
p119
I12
tp120
atp121
a(S'cette'
p122
(dp123
S'PRON'
p124
F1.0
s(lp125
(S'this'
p126
I13
tp127
atp128
a(S'importante'
p129
(dp130
S'ADJ'
p131
F1.0
s(lp132
(S'important'
p133
I14
tp134
atp135
a(S'initiative'
p136
(dp137
S'NOUN'
p138
F1.0
s(lp139
(S'initiative'
p140
I16
tp141
atp142
a(S'juridique'
p143
(dp144
S'ADJ'
p145
F1.0
s(lp146
(S'legal'
p147
I15
tp148
atp149
a(S'.'
p150
(dp151
g150
F1.0
s(lp152
(g150
I17
tp153
atp154
asS'en'
p155
(lp156
(g14
(dp157
S'NOUN'
p158
F1.0
s(lp159
(g14
I0
tp160
atp161
a(g22
(dp162
S'ADP'
p163
F1.0
s(lp164
(g22
I1
tp165
atp166
a(g29
(dp167
S'NOUN'
p168
F1.0
s(lp169
(g29
I2
tp170
atp171
a(g36
(dp172
S'ADP'
p173
F1.0
s(lp174
(g36
I3
tp175
atp176
a(S'the'
p177
(dp178
S'NOUN'
p179
F1e-06
sS'DET'
p180
F0.999999
s(lp181
(g177
I4
tp182
atp183
a(g44
(dp184
S'ADJ'
p185
F1.0
s(lp186
(g44
I5
tp187
atp188
a(g51
(dp189
S'CONJ'
p190
F0.999998
sS'NOUN'
p191
F2e-06
s(lp192
(g51
I6
tp193
atp194
a(g71
(dp195
S'ADJ'
p196
F1.0
s(lp197
(g71
I7
tp198
atp199
a(g91
(dp200
S'ADJ'
p201
F0.004212
sS'NOUN'
p202
F0.9957879999999999
s(lp203
(g91
I8
tp204
atp205
a(g98
(dp206
S'VERB'
p207
F1.0
s(lp208
(g98
I9
tp209
atp210
a(g112
(dp211
S'VERB'
p212
F1.0
s(lp213
(g112
I10
tp214
atp215
a(S'extensively'
p216
(dp217
S'ADV'
p218
F1.0
s(lp219
(g216
I11
tp220
atp221
a(g119
(dp222
S'ADV'
p223
F6e-06
sS'PRT'
p224
F0.999981
sS'ADP'
p225
F1.3e-05
s(lp226
(g119
I12
tp227
atp228
a(g126
(dp229
S'ADV'
p230
F5.2e-05
sS'NOUN'
p231
F3e-06
sS'DET'
p232
F0.999945
s(lp233
(g126
I13
tp234
atp235
a(g133
(dp236
S'ADJ'
p237
F1.0
s(lp238
(g133
I14
tp239
atp240
a(g147
(dp241
S'ADJ'
p242
F1.0
s(lp243
(g147
I15
tp244
atp245
a(g140
(dp246
S'ADJ'
p247
F0.001511
sS'NOUN'
p248
F0.998489
s(lp249
(g140
I16
tp250
atp251
a(g150
(dp252
g150
F1.0
s(lp253
(g150
I17
tp254
atp255
asS'nl'
p256
(lp257
(S'regeringen'
p258
(dp259
S'NOUN'
p260
F1.0
s(lp261
(g14
I0
tp262
atp263
a(S'en'
p264
(dp265
S'CONJ'
p266
F1.0
s(lp267
(g22
I1
tp268
atp269
a(S'landen'
p270
(dp271
S'VERB'
p272
F0.051479
sS'NOUN'
p273
F0.948521
s(lp274
(g29
I2
tp275
atp276
a(S'in'
p277
(dp278
S'ADV'
p279
F0.00368
sS'VERB'
p280
F2e-06
sS'ADP'
p281
F0.996317
s(lp282
(g36
I3
tp283
atp284
a(S'het'
p285
(dp286
S'PRON'
p287
F0.005837
sS'DET'
p288
F0.994163
s(lp289
(g177
I4
tp290
atp291
a(S'zuidelijk'
p292
(dp293
S'ADJ'
p294
F1.0
s(lp295
(g44
I5
tp296
atp297
a(S'en'
p298
(dp299
S'CONJ'
p300
F1.0
s(lp301
(g51
I6
tp302
atp303
a(S'oostelijk'
p304
(dp305
S'ADJ'
p306
F1.0
s(lp307
tp308
a(S'deel'
p309
(dp310
S'VERB'
p311
F0.002288
sS'NOUN'
p312
F0.997712
s(lp313
(g71
I7
tp314
atp315
a(S'van'
p316
(dp317
S'ADP'
p318
F1.0
s(lp319
tp320
a(S'de'
p321
(dp322
S'DET'
p323
F1.0
s(lp324
tp325
a(S'baltische'
p326
(dp327
S'NOUN'
p328
F0.097305
sS'ADJ'
p329
F0.902695
s(lp330
tp331
a(S'regio'
p332
(dp333
S'NOUN'
p334
F1.0
s(lp335
(g91
I8
tp336
atp337
a(S'hebben'
p338
(dp339
S'VERB'
p340
F1.0
sS'NOUN'
p341
F0.0
s(lp342
(g98
I9
tp343
atp344
a(S'uitgebreid'
p345
(dp346
S'VERB'
p347
F0.951887
sS'ADJ'
p348
F0.048113
s(lp349
(g216
I11
tp350
atp351
a(S'gereageerd'
p352
(dp353
S'VERB'
p354
F1.0
s(lp355
tp356
a(S'op'
p357
(dp358
S'ADV'
p359
F9.4e-05
sS'ADJ'
p360
F0.0
sS'ADP'
p361
F0.999906
s(lp362
(g112
I10
tp363
atp364
a(S'dit'
p365
(dp366
S'PRON'
p367
F1.0
s(lp368
(g126
I13
tp369
atp370
a(S'belangrijke'
p371
(dp372
S'NOUN'
p373
F0.003681
sS'ADJ'
p374
F0.996319
s(lp375
(g133
I14
tp376
atp377
a(S'juridische'
p378
(dp379
S'NOUN'
p380
F0.000171
sS'ADJ'
p381
F0.999829
s(lp382
(g147
I15
tp383
atp384
a(S'initiatief'
p385
(dp386
S'NOUN'
p387
F1.0
s(lp388
(g140
I16
tp389
atp390
a(g150
(dp391
g150
F1.0
s(lp392
(g150
I17
tp393
atp394
asS'de'
p395
(lp396
(S'die'
p397
(dp398
S'PRON'
p399
F0.001164
sS'DET'
p400
F0.998507
s(lp401
tp402
a(S'regierungen'
p403
(dp404
S'ADJ'
p405
F9.3e-05
sS'NOUN'
p406
F0.99978
s(lp407
(g14
I0
tp408
atp409
a(S'der'
p410
(dp411
S'PRON'
p412
F5.1e-05
sS'DET'
p413
F0.999929
s(lp414
(g22
I1
tp415
atp416
a(S'l\xc3\xa4nder'
p417
(dp418
S'ADJ'
p419
F0.019805
sS'NOUN'
p420
F0.964855
s(lp421
(g29
I2
tp422
atp423
a(S'im'
p424
(dp425
S'ADP'
p426
F1.0
s(lp427
(g177
I4
tp428
atp429
a(S's\xc3\xbcdlichen'
p430
(dp431
S'ADJ'
p432
F1.0
s(lp433
(g44
I5
tp434
atp435
a(S'und'
p436
(dp437
S'CONJ'
p438
F1.0
s(lp439
(g51
I6
tp440
atp441
a(S'\xc3\xb6stlichen'
p442
(dp443
S'ADJ'
p444
F1.0
s(lp445
(g71
I7
tp446
atp447
a(S'ostseeraum'
p448
(dp449
S'ADJ'
p450
F0.022835
sS'NOUN'
p451
F0.971647
s(lp452
(g91
I8
tp453
atp454
a(S'haben'
p455
(dp456
S'VERB'
p457
F0.999776
s(lp458
(g98
I9
tp459
atp460
a(S'umfassend'
p461
(dp462
S'ADJ'
p463
F1.0
s(lp464
(g216
I11
tp465
atp466
a(S'auf'
p467
(dp468
S'PRT'
p469
F0.000814
sS'ADP'
p470
F0.999182
s(lp471
(g119
I12
tp472
atp473
a(S'diese'
p474
(dp475
S'PRON'
p476
F1.0
s(lp477
(g126
I13
tp478
atp479
a(S'bedeutsame'
p480
(dp481
S'ADJ'
p482
F1.0
s(lp483
(g133
I14
tp484
atp485
a(S'rechtsetzungsinitiative'
p486
(dp487
S'ADJ'
p488
F0.412919
sS'NOUN'
p489
F0.584351
s(lp490
(g140
I16
tp491
atp492
a(S'reagiert'
p493
(dp494
S'VERB'
p495
F0.9911179999999999
s(lp496
(g112
I10
tp497
atp498
a(g150
(dp499
g150
F1.0
s(lp500
(g150
I17
tp501
atp502
asS'it'
p503
(lp504
(S'i'
p505
(dp506
S'DET'
p507
F1.0
s(lp508
tp509
a(S'governi'
p510
(dp511
S'VERB'
p512
F0.000532
sS'NOUN'
p513
F0.999467
s(lp514
(g14
I0
tp515
atp516
a(S'dei'
p517
(dp518
S'NOUN'
p519
F1e-06
sS'DEF'
p520
F0.001187
sS'ADP'
p521
F0.998813
s(lp522
(g22
I1
tp523
atp524
a(S'paesi'
p525
(dp526
S'NOUN'
p527
F1.0
s(lp528
(g29
I2
tp529
atp530
a(S'del'
p531
(dp532
S'DEF'
p533
F0.001654
sS'ADP'
p534
F0.998346
s(lp535
(g36
I3
tp536
atp537
a(S'baltico'
p538
(dp539
S'ADJ'
p540
F0.271746
sS'NOUN'
p541
F0.728254
s(lp542
(g91
I8
tp543
atp544
a(S'meridionale'
p545
(dp546
S'NOUN'
p547
F0.209893
sS'ADJ'
p548
F0.790107
s(lp549
(g44
I5
tp550
atp551
a(S'e'
p552
(dp553
S'CONJ'
p554
F1.0
s(lp555
(g51
I6
tp556
atp557
a(S'orientale'
p558
(dp559
S'VERB'
p560
F0.00592
sS'ADJ'
p561
F0.99408
s(lp562
(g71
I7
tp563
atp564
a(S'hanno'
p565
(dp566
S'VERB'
p567
F1.0
s(lp568
(g98
I9
tp569
atp570
a(S'ampiamente'
p571
(dp572
S'ADV'
p573
F1.0
s(lp574
(g216
I11
tp575
atp576
a(S'risposto'
p577
(dp578
S'VERB'
p579
F1.0
s(lp580
(g112
I10
tp581
atp582
a(S'a'
p583
(dp584
S'CONJ'
p585
F9.3e-05
sS'ADP'
p586
F0.999907
s(lp587
(g119
I12
tp588
atp589
a(S"quest'"
p590
(dp591
S'ADJ'
p592
F0.018257
sS'VERB'
p593
F0.018801000000000002
sS'NOUN'
p594
F0.962942
s(lp595
(g126
I13
tp596
atp597
a(S'importante'
p598
(dp599
S'NOUN'
p600
F0.005466
sS'VERB'
p601
F0.010243
sS'ADJ'
p602
F0.984291
s(lp603
(g133
I14
tp604
atp605
a(S'iniziativa'
p606
(dp607
S'NOUN'
p608
F1.0
s(lp609
(g140
I16
tp610
atp611
a(S'legale'
p612
(dp613
S'NOUN'
p614
F0.003534
sS'VERB'
p615
F0.0
sS'ADJ'
p616
F0.996466
s(lp617
(g147
I15
tp618
atp619
a(g150
(dp620
g150
F1.0
s(lp621
(g150
I17
tp622
atp623
asS'sk'
p624
(lp625
(S'vl\xc3\xa1dy'
p626
(dp627
S'NOUN'
p628
F1.0
s(lp629
(g14
I0
tp630
atp631
a(S'ju\xc5\xben\xc3\xbdch'
p632
(dp633
S'ADJ'
p634
F1.0
s(lp635
(g44
I5
tp636
atp637
a(g583
(dp638
S'X'
p639
F0.00047799999999999996
sS'CONJ'
p640
F0.998379
sS'NOUN'
p641
F0.001055
sS'ADP'
p642
F7.2e-05
sS'PRT'
p643
F1.6e-05
s(lp644
(g51
I6
tp645
atp646
a(S'v\xc3\xbdchodn\xc3\xbdch'
p647
(dp648
S'ADJ'
p649
F1.0
s(lp650
(g71
I7
tp651
atp652
a(S'pobaltsk\xc3\xbdch'
p653
(dp654
S'ADJ'
p655
F1.0
s(lp656
tp657
a(S'\xc5\xa1t\xc3\xa1tov'
p658
(dp659
S'NOUN'
p660
F1.0
s(lp661
(g91
I8
tp662
atp663
a(S'reagovali'
p664
(dp665
S'VERB'
p666
F1.000001
s(lp667
(g112
I10
tp668
atp669
a(S'do'
p670
(dp671
S'PRON'
p672
F5.7e-05
sS'ADP'
p673
F0.999852
sg639
F9.1e-05
s(lp674
(g216
I11
tp675
atp676
a(S've\xc4\xbekej'
p677
(dp678
S'ADJ'
p679
F1.0
s(lp680
tp681
a(S'miery'
p682
(dp683
S'NOUN'
p684
F1.0
s(lp685
(g216
I11
tp686
atp687
a(S'na'
p688
(dp689
g639
F3.7e-05
sS'CONJ'
p690
F3.2e-05
sS'ADP'
p691
F0.999917
sS'PRT'
p692
F1.4e-05
s(lp693
(g119
I12
tp694
atp695
a(S'tento'
p696
(dp697
S'PRON'
p698
F0.999988
sg639
F1.2e-05
s(lp699
(g126
I13
tp700
atp701
a(S'd\xc3\xb4le\xc5\xbeit\xc3\xbd'
p702
(dp703
S'ADJ'
p704
F1.0
s(lp705
(g133
I14
tp706
atp707
a(S'pr\xc3\xa1vny'
p708
(dp709
S'ADJ'
p710
F1.0
s(lp711
(g147
I15
tp712
atp713
a(S'podnet'
p714
(dp715
S'NOUN'
p716
F1.0
s(lp717
(g140
I16
tp718
atp719
a(g150
(dp720
g150
F1.0
s(lp721
(g150
I17
tp722
atp723
asS'pl'
p724
(lp725
(S'rz\xc4\x85dy'
p726
(dp727
S'NOUN'
p728
F1.0
s(lp729
(g14
I0
tp730
atp731
a(S'kraj\xc3\xb3w'
p732
(dp733
S'NOUN'
p734
F1.0
s(lp735
(g29
I2
tp736
atp737
a(S'po\xc5\x82udniowego'
p738
(dp739
S'ADJ'
p740
F1.0
s(lp741
(g44
I5
tp742
atp743
a(g505
(dp744
S'PRT'
p745
F0.006643
sS'CONJ'
p746
F0.993201
sS'PRON'
p747
F1.2e-05
sS'NOUN'
p748
F9.400000000000001e-05
sg639
F5.1e-05
s(lp749
(g51
I6
tp750
atp751
a(S'wschodniego'
p752
(dp753
S'ADJ'
p754
F1.0
s(lp755
(g71
I7
tp756
atp757
a(S'ba\xc5\x82tyku'
p758
(dp759
S'ADV'
p760
F0.000289
sS'ADJ'
p761
F0.00029900000000000006
sS'VERB'
p762
F0.008964
sS'NOUN'
p763
F0.9904499999999999
s(lp764
(g91
I8
tp765
atp766
a(S'obszernie'
p767
(dp768
S'ADV'
p769
F1.0
s(lp770
(g216
I11
tp771
atp772
a(S'odnios\xc5\x82y'
p773
(dp774
S'VERB'
p775
F1.0
s(lp776
(g112
I10
tp777
atp778
a(S'si\xc4\x99'
p779
(dp780
S'PRT'
p781
F1.0
s(lp782
tp783
a(S'do'
p784
(dp785
g639
F0.0
sS'NOUN'
p786
F3e-06
sS'ADP'
p787
F0.999997
s(lp788
(g119
I12
tp789
atp790
a(S'tej'
p791
(dp792
S'PRON'
p793
F9.4e-05
sS'ADJ'
p794
F0.999901
sg639
F4e-06
s(lp795
(g126
I13
tp796
atp797
a(S'wa\xc5\xbcnej'
p798
(dp799
S'ADJ'
p800
F1.0
s(lp801
(g133
I14
tp802
atp803
a(S'inicjatywy'
p804
(dp805
S'NOUN'
p806
F1.0
s(lp807
(g140
I16
tp808
atp809
a(S'prawnej'
p810
(dp811
S'ADJ'
p812
F1.000001
s(lp813
(g147
I15
tp814
atp815
a(g150
(dp816
g150
F1.0
s(lp817
(g150
I17
tp818
atp819
asS'sl'
p820
(lp821
(S'vlade'
p822
(dp823
S'NOUN'
p824
F1.0
s(lp825
(g14
I0
tp826
atp827
a(S'dr\xc5\xbeav'
p828
(dp829
S'NOUN'
p830
F1.0
s(lp831
(g29
I2
tp832
atp833
a(S'v'
p834
(dp835
S'ADP'
p836
F1.0
s(lp837
(g177
I4
tp838
atp839
a(S'ju\xc5\xbeni'
p840
(dp841
S'ADJ'
p842
F1.0
s(lp843
(g44
I5
tp844
atp845
a(S'in'
p846
(dp847
S'ADV'
p848
F6e-06
sg639
F4e-06
sS'CONJ'
p849
F0.99999
sS'NOUN'
p850
F1e-06
s(lp851
(g51
I6
tp852
atp853
a(S'vzhodni'
p854
(dp855
S'ADJ'
p856
F1.0
s(lp857
(g71
I7
tp858
atp859
a(S'baltski'
p860
(dp861
S'ADJ'
p862
F1.0
s(lp863
tp864
a(S'regiji'
p865
(dp866
S'NOUN'
p867
F1.0
s(lp868
(g91
I8
tp869
atp870
a(S'so'
p871
(dp872
g639
F4.9999999999999996e-06
sS'VERB'
p873
F0.999995
s(lp874
(g98
I9
tp875
atp876
a(S'pripravile'
p877
(dp878
S'VERB'
p879
F1.0
s(lp880
(g216
I11
tp881
atp882
a(S'ob\xc5\xa1iren'
p883
(dp884
S'ADV'
p885
F0.033462000000000006
sS'NOUN'
p886
F0.011351
sS'VERB'
p887
F0.056083999999999995
sS'ADJ'
p888
F0.8989449999999999
sg639
F0.00016
s(lp889
tp890
a(S'odgovor'
p891
(dp892
S'NOUN'
p893
F1.0
s(lp894
(g216
I11
tp895
atp896
a(S'na'
p897
(dp898
S'ADP'
p899
F1.0
s(lp900
(g119
I12
tp901
atp902
a(S'to'
p903
(dp904
S'PRON'
p905
F0.9999930000000001
sg639
F7e-06
s(lp906
(g126
I13
tp907
atp908
a(S'pomembno'
p909
(dp910
S'ADV'
p911
F0.007343
sS'ADJ'
p912
F0.992657
s(lp913
(g133
I14
tp914
atp915
a(S'zakonodajno'
p916
(dp917
S'ADJ'
p918
F1.0
s(lp919
(g147
I15
tp920
atp921
a(S'pobudo'
p922
(dp923
S'NOUN'
p924
F1.0
s(lp925
(g140
I16
tp926
atp927
a(g150
(dp928
g150
F1.0
s(lp929
(g150
I17
tp930
atp931
asS'es'
p932
(lp933
(S'los'
p934
(dp935
S'PRON'
p936
F2.7e-05
sS'DET'
p937
F0.999973
s(lp938
tp939
a(S'gobiernos'
p940
(dp941
S'NOUN'
p942
F1.0
s(lp943
(g14
I0
tp944
atp945
a(S'de'
p946
(dp947
g639
F0.0
sS'CONJ'
p948
F1.7e-05
sS'ADP'
p949
F0.999983
s(lp950
(g22
I1
tp951
atp952
a(S'los'
p953
(dp954
S'PRON'
p955
F0.0
sS'DET'
p956
F1.0
s(lp957
(g177
I4
tp958
atp959
a(S'pa\xc3\xadses'
p960
(dp961
S'NOUN'
p962
F1.0
s(lp963
(g29
I2
tp964
atp965
a(S'del'
p966
(dp967
S'ADP'
p968
F1.0
s(lp969
tp970
a(S'b\xc3\xa1ltico'
p971
(dp972
S'ADJ'
p973
F0.014654
sS'NOUN'
p974
F0.985346
s(lp975
(g91
I8
tp976
atp977
a(S'meridional'
p978
(dp979
S'NOUN'
p980
F0.019881
sS'ADJ'
p981
F0.980119
s(lp982
(g44
I5
tp983
atp984
a(S'y'
p985
(dp986
g639
F0.000682
sS'CONJ'
p987
F0.999318
s(lp988
(g51
I6
tp989
atp990
a(S'oriental'
p991
(dp992
S'NOUN'
p993
F0.012952
sS'ADJ'
p994
F0.987048
s(lp995
(g71
I7
tp996
atp997
a(S'han'
p998
(dp999
S'VERB'
p1000
F1.0
s(lp1001
(g98
I9
tp1002
atp1003
a(S'respondido'
p1004
(dp1005
S'VERB'
p1006
F1.0
s(lp1007
(g112
I10
tp1008
atp1009
a(S'ampliamente'
p1010
(dp1011
S'ADV'
p1012
F1.0
s(lp1013
(g216
I11
tp1014
atp1015
a(g583
(dp1016
g639
F0.000267
sS'CONJ'
p1017
F2.7e-05
sS'ADP'
p1018
F0.999706
s(lp1019
(g119
I12
tp1020
atp1021
a(S'esta'
p1022
(dp1023
S'PRON'
p1024
F0.999948
sS'VERB'
p1025
F5.2e-05
s(lp1026
(g126
I13
tp1027
atp1028
a(S'importante'
p1029
(dp1030
S'VERB'
p1031
F0.002287
sS'ADJ'
p1032
F0.997713
s(lp1033
(g133
I14
tp1034
atp1035
a(S'iniciativa'
p1036
(dp1037
S'NOUN'
p1038
F1.0
s(lp1039
(g140
I16
tp1040
atp1041
a(S'legal'
p1042
(dp1043
S'ADJ'
p1044
F1.0
s(lp1045
(g147
I15
tp1046
atp1047
a(g150
(dp1048
g150
F1.0
s(lp1049
(g150
I17
tp1050
atp1051
as.