(dp0
S'fr'
p1
(lp2
(S'nous'
p3
(dp4
S'PRON'
p5
F1.0
s(lp6
(S'we'
p7
I0
tp8
atp9
a(S'exhortons'
p10
(dp11
S'VERB'
p12
F1.0
s(lp13
(S'calling'
p14
I2
tp15
atp16
a(S'le'
p17
(dp18
S'PRON'
p19
F0.000137
sS'DET'
p20
F0.999863
s(lp21
(S'the'
p22
I4
tp23
atp24
a(S'gouvernement'
p25
(dp26
S'NOUN'
p27
F1.0
s(lp28
(S'government'
p29
I6
tp30
atp31
a(S'japonais'
p32
(dp33
S'NOUN'
p34
F0.017216
sS'ADJ'
p35
F0.982784
s(lp36
(S'japanese'
p37
I5
tp38
atp39
a(S'\xc3\xa0'
p40
(dp41
S'ADP'
p42
F1.0
s(lp43
(S'to'
p44
I7
tp45
atp46
a(S'mettre'
p47
(dp48
S'VERB'
p49
F1.0
s(lp50
(S'implement'
p51
I8
tp52
atp53
a(S'en'
p54
(dp55
S'PRON'
p56
F0.042378
sS'ADP'
p57
F0.957622
s(lp58
tp59
a(S'\xc5\x93uvre'
p60
(dp61
S'VERB'
p62
F0.044277
sS'NOUN'
p63
F0.955723
s(lp64
(g51
I8
tp65
atp66
a(S'des'
p67
(dp68
S'DET'
p69
F3.1e-05
sS'ADP'
p70
F0.999969
s(lp71
tp72
a(S'm\xc3\xa9canismes'
p73
(dp74
S'NOUN'
p75
F1.0
s(lp76
tp77
a(S'permettant'
p78
(dp79
S'VERB'
p80
F1.0
s(lp81
(S'mechanisms'
p82
I9
tp83
atp84
a(S"d'"
p85
(dp86
S'NOUN'
p87
F0.247317
sS'VERB'
p88
F0.46702399999999994
sS'ADJ'
p89
F0.285659
s(lp90
(S'to'
p91
I10
tp92
atp93
a(S'accorder'
p94
(dp95
S'VERB'
p96
F1.0
s(lp97
tp98
a(S'au'
p99
(dp100
S'ADP'
p101
F1.0
s(lp102
(S'as'
p103
I20
tp104
atp105
a(S'plus'
p106
(dp107
S'ADV'
p108
F0.99994
sS'VERB'
p109
F6e-05
s(lp110
tp111
a(S'vite'
p112
(dp113
S'ADV'
p114
F0.959999
sS'ADJ'
p115
F0.040001
s(lp116
(S'quickly'
p117
I21
tp118
atp119
a(S'des'
p120
(dp121
S'DET'
p122
F0.000115
sS'ADP'
p123
F0.999885
s(lp124
(S'provide'
p125
I11
tp126
atp127
a(S'r\xc3\xa9parations'
p128
(dp129
S'NOUN'
p130
F1.0
s(lp131
(S'reparations'
p132
I12
tp133
atp134
a(S'\xc3\xa0'
p135
(dp136
S'ADP'
p137
F1.0
s(lp138
(S'to'
p139
I13
tp140
atp141
a(S'toutes'
p142
(dp143
S'PRON'
p144
F1.0
s(lp145
(S'all'
p146
I14
tp147
atp148
a(S'les'
p149
(dp150
S'PRON'
p151
F0.000313
sS'DET'
p152
F0.999685
sS'ADP'
p153
F2e-06
s(lp154
(S'possible'
p155
I23
tp156
atp157
a(S'victimes'
p158
(dp159
S'VERB'
p160
F0.000277
sS'NOUN'
p161
F0.999723
s(lp162
(S'victims'
p163
I16
tp164
atp165
a(S'survivantes'
p166
(dp167
S'NOUN'
p168
F0.009623
sS'ADJ'
p169
F0.990377
s(lp170
(S'surviving'
p171
I15
tp172
atp173
a(S'et'
p174
(dp175
S'CONJ'
p176
F1.0
s(lp177
(S'and'
p178
I17
tp179
atp180
a(S'leur'
p181
(dp182
S'PRON'
p183
F1.0
s(lp184
(S'their'
p185
I18
tp186
atp187
a(S'famille'
p188
(dp189
S'NOUN'
p190
F1.0
s(lp191
(S'families'
p192
I19
tp193
atp194
a(S'.'
p195
(dp196
g195
F1.0
s(lp197
(g195
I24
tp198
atp199
asS'en'
p200
(lp201
(g7
(dp202
S'PRON'
p203
F1.0
s(lp204
(g7
I0
tp205
atp206
a(S'are'
p207
(dp208
S'VERB'
p209
F1.0
sS'NOUN'
p210
F0.0
s(lp211
(g207
I1
tp212
atp213
a(g14
(dp214
S'VERB'
p215
F0.998021
sS'NOUN'
p216
F0.001979
s(lp217
(g14
I2
tp218
atp219
a(S'on'
p220
(dp221
S'ADV'
p222
F0.002523
sS'PRT'
p223
F0.026031
sS'ADJ'
p224
F0.0
sS'NOUN'
p225
F0.0
sS'ADP'
p226
F0.971446
s(lp227
(g220
I3
tp228
atp229
a(g22
(dp230
S'NOUN'
p231
F1e-06
sS'DET'
p232
F0.999999
s(lp233
(g22
I4
tp234
atp235
a(g37
(dp236
S'NOUN'
p237
F0.241435
sS'ADJ'
p238
F0.758565
s(lp239
(g37
I5
tp240
atp241
a(g29
(dp242
S'NOUN'
p243
F1.0
s(lp244
(g29
I6
tp245
atp246
a(g44
(dp247
S'ADV'
p248
F0.0
sS'PRT'
p249
F1.0
sS'ADP'
p250
F0.0
s(lp251
(g44
I7
tp252
atp253
a(g51
(dp254
S'VERB'
p255
F0.997725
sS'NOUN'
p256
F0.002275
s(lp257
(g51
I8
tp258
atp259
a(g82
(dp260
S'NOUN'
p261
F1.0
s(lp262
(g82
I9
tp263
atp264
a(g91
(dp265
S'ADV'
p266
F0.0
sS'PRT'
p267
F1.0
sS'ADP'
p268
F0.0
s(lp269
(g91
I10
tp270
atp271
a(g125
(dp272
S'VERB'
p273
F1.0
s(lp274
(g125
I11
tp275
atp276
a(g132
(dp277
S'NOUN'
p278
F1.0
s(lp279
(g132
I12
tp280
atp281
a(g139
(dp282
S'ADV'
p283
F1e-06
sS'PRT'
p284
F0.999988
sS'ADP'
p285
F1.1e-05
s(lp286
(g139
I13
tp287
atp288
a(g146
(dp289
S'ADV'
p290
F0.043621
sS'DET'
p291
F0.9563790000000001
s(lp292
(g146
I14
tp293
atp294
a(g171
(dp295
S'VERB'
p296
F1.0
s(lp297
(g171
I15
tp298
atp299
a(g163
(dp300
S'NOUN'
p301
F1.0
s(lp302
(g163
I16
tp303
atp304
a(g178
(dp305
S'CONJ'
p306
F1.0
sS'NOUN'
p307
F0.0
s(lp308
(g178
I17
tp309
atp310
a(g185
(dp311
S'PRON'
p312
F1.0
s(lp313
(g185
I18
tp314
atp315
a(g192
(dp316
S'NOUN'
p317
F1.0
s(lp318
(g192
I19
tp319
atp320
a(g103
(dp321
S'ADV'
p322
F0.215231
sS'ADP'
p323
F0.784769
s(lp324
(g103
I20
tp325
atp326
a(g117
(dp327
S'ADV'
p328
F1.0
s(lp329
(g117
I21
tp330
atp331
a(S'as'
p332
(dp333
S'ADV'
p334
F0.253886
sS'ADP'
p335
F0.746114
s(lp336
(g332
I22
tp337
atp338
a(g155
(dp339
S'ADV'
p340
F0.00711
sS'NOUN'
p341
F0.002091
sS'ADJ'
p342
F0.990799
s(lp343
(g155
I23
tp344
atp345
a(g195
(dp346
g195
F1.0
s(lp347
(g195
I24
tp348
atp349
asS'nl'
p350
(lp351
(S'we'
p352
(dp353
S'PRON'
p354
F1.0
s(lp355
(g7
I0
tp356
atp357
a(S'roepen'
p358
(dp359
S'VERB'
p360
F0.971702
sS'NOUN'
p361
F0.028298
s(lp362
(g14
I2
tp363
atp364
a(S'de'
p365
(dp366
S'DET'
p367
F1.0
s(lp368
(g22
I4
tp369
atp370
a(S'japanse'
p371
(dp372
S'ADJ'
p373
F0.437132
sS'NOUN'
p374
F0.562868
s(lp375
(g37
I5
tp376
atp377
a(S'regering'
p378
(dp379
S'NOUN'
p380
F1.0
s(lp381
(g29
I6
tp382
atp383
a(S'op'
p384
(dp385
S'ADV'
p386
F0.005571
sS'ADJ'
p387
F1.1e-05
sS'ADP'
p388
F0.994417
s(lp389
(g44
I7
tp390
atp391
a(S'mechanismen'
p392
(dp393
S'NOUN'
p394
F1.0
s(lp395
(g82
I9
tp396
atp397
a(S'ten'
p398
(dp399
S'ADP'
p400
F1.0
s(lp401
tp402
a(S'uitvoer'
p403
(dp404
S'VERB'
p405
F1e-06
sS'NOUN'
p406
F0.999999
s(lp407
(g51
I8
tp408
atp409
a(S'te'
p410
(dp411
S'PRT'
p412
F1.0
s(lp413
(g91
I10
tp414
atp415
a(S'leggenom'
p416
(dp417
S'ADV'
p418
F0.594939
sS'NOUN'
p419
F0.182293
sS'ADJ'
p420
F0.222768
s(lp421
(g132
I12
tp422
atp423
a(S'zo'
p424
(dp425
S'ADV'
p426
F0.999885
sS'X'
p427
F0.0
sS'CONJ'
p428
F0.000115
s(lp429
(g103
I20
tp430
atp431
a(S'snel'
p432
(dp433
S'VERB'
p434
F0.116365
sS'ADJ'
p435
F0.883635
s(lp436
(g117
I21
tp437
atp438
a(S'mogelijk'
p439
(dp440
S'ADJ'
p441
F1.0
s(lp442
(g155
I23
tp443
atp444
a(S'schadevergoedingen'
p445
(dp446
S'NOUN'
p447
F1.0
s(lp448
tp449
a(S'te'
p450
(dp451
S'PRT'
p452
F1.0
s(lp453
tp454
a(S'betalen'
p455
(dp456
S'VERB'
p457
F0.999998
sS'NOUN'
p458
F2e-06
s(lp459
(g132
I12
tp460
atp461
a(S'aan'
p462
(dp463
S'ADV'
p464
F0.009204
sS'ADP'
p465
F0.990796
s(lp466
(g139
I13
tp467
atp468
a(S'alle'
p469
(dp470
S'PRON'
p471
F1.0
s(lp472
(g146
I14
tp473
atp474
a(S'overlevende'
p475
(dp476
S'VERB'
p477
F0.370877
sS'NOUN'
p478
F0.629123
s(lp479
tp480
a(S'slachtoffersen'
p481
(dp482
S'NOUN'
p483
F1.0
s(lp484
(g171
I15
tp485
atp486
a(S'hun'
p487
(dp488
S'PRON'
p489
F1.0
s(lp490
(g185
I18
tp491
atp492
a(S'families'
p493
(dp494
S'NOUN'
p495
F1.0
s(lp496
(g192
I19
tp497
atp498
a(g195
(dp499
g195
F1.0
s(lp500
(g195
I24
tp501
atp502
asS'de'
p503
(lp504
(S'wir'
p505
(dp506
S'PRON'
p507
F1.0
s(lp508
(g7
I0
tp509
atp510
a(S'fordern'
p511
(dp512
S'VERB'
p513
F1.0
s(lp514
(g14
I2
tp515
atp516
a(S'die'
p517
(dp518
S'PRON'
p519
F0.002689
sS'DET'
p520
F0.997308
s(lp521
(g22
I4
tp522
atp523
a(S'japanische'
p524
(dp525
S'ADJ'
p526
F1.0
s(lp527
(g37
I5
tp528
atp529
a(S'regierung'
p530
(dp531
S'ADJ'
p532
F1.9e-05
sS'NOUN'
p533
F0.999965
s(lp534
(g29
I6
tp535
atp536
a(S'auf'
p537
(dp538
S'ADV'
p539
F4.1e-05
sS'PRT'
p540
F0.999925
s(lp541
tp542
a(S','
p543
(dp544
g195
F1.0
s(lp545
tp546
a(S'schnellstens'
p547
(dp548
S'ADV'
p549
F1.0
s(lp550
(g132
I12
tp551
atp552
a(S'mechanismen'
p553
(dp554
S'NOUN'
p555
F0.265541
sS'ADJ'
p556
F0.630545
s(lp557
(g82
I9
tp558
atp559
a(S'in'
p560
(dp561
S'ADP'
p562
F1.0
s(lp563
(g91
I10
tp564
atp565
a(S'die'
p566
(dp567
S'PRON'
p568
F0.002155
sS'DET'
p569
F0.997452
s(lp570
(g125
I11
tp571
atp572
a(S'wege'
p573
(dp574
S'ADJ'
p575
F0.233969
sS'NOUN'
p576
F0.687893
s(lp577
(g132
I12
tp578
atp579
a(S'zu'
p580
(dp581
S'PRT'
p582
F0.999957
s(lp583
(g44
I7
tp584
atp585
a(S'leiten'
p586
(dp587
S'VERB'
p588
F1.0
s(lp589
(g132
I12
tp590
atp591
a(g543
(dp592
g195
F1.0
s(lp593
tp594
a(S'um'
p595
(dp596
S'CONJ'
p597
F0.991574
sS'ADP'
p598
F0.008213
s(lp599
tp600
a(S'f\xc3\xbcr'
p601
(dp602
S'ADP'
p603
F1.0
s(lp604
(g139
I13
tp605
atp606
a(S'alle'
p607
(dp608
S'PRON'
p609
F1.0
s(lp610
(g146
I14
tp611
atp612
a(S'\xc3\xbcberlebenden'
p613
(dp614
S'ADJ'
p615
F1.0
s(lp616
(g171
I15
tp617
atp618
a(S'opfer'
p619
(dp620
S'VERB'
p621
F1.0
s(lp622
(g163
I16
tp623
atp624
a(S'und'
p625
(dp626
S'CONJ'
p627
F1.0
s(lp628
(g178
I17
tp629
atp630
a(S'deren'
p631
(dp632
S'PRON'
p633
F0.907859
s(lp634
(g185
I18
tp635
atp636
a(S'familien'
p637
(dp638
S'NOUN'
p639
F0.219602
sS'ADJ'
p640
F0.776488
s(lp641
(g192
I19
tp642
atp643
a(S'entsch\xc3\xa4digungen'
p644
(dp645
S'ADJ'
p646
F0.002334
sS'NOUN'
p647
F0.996852
s(lp648
tp649
a(S'bereitzustellen'
p650
(dp651
S'VERB'
p652
F1.0
s(lp653
(g132
I12
tp654
atp655
a(g195
(dp656
g195
F1.0
s(lp657
(g195
I24
tp658
atp659
asS'it'
p660
(lp661
(S'chiediamo'
p662
(dp663
S'VERB'
p664
F1.0
s(lp665
(g14
I2
tp666
atp667
a(S'al'
p668
(dp669
S'ADP'
p670
F1.0
s(lp671
(g22
I4
tp672
atp673
a(S'governo'
p674
(dp675
S'VERB'
p676
F0.000131
sS'NOUN'
p677
F0.999869
s(lp678
(g29
I6
tp679
atp680
a(S'giapponese'
p681
(dp682
S'NOUN'
p683
F0.017185
sS'ADJ'
p684
F0.982815
s(lp685
(g37
I5
tp686
atp687
a(S'di'
p688
(dp689
S'CONJ'
p690
F7e-06
sS'ADP'
p691
F0.999993
s(lp692
(g44
I7
tp693
atp694
a(S'attuare'
p695
(dp696
S'VERB'
p697
F1.0
s(lp698
(g51
I8
tp699
atp700
a(S'i'
p701
(dp702
S'DET'
p703
F1.0
s(lp704
(g82
I9
tp705
atp706
a(S'meccanismi'
p707
(dp708
S'NOUN'
p709
F1.0
s(lp710
tp711
a(S'necessari'
p712
(dp713
S'ADJ'
p714
F1.0
s(lp715
(g82
I9
tp716
atp717
a(S'per'
p718
(dp719
S'CONJ'
p720
F0.006188
sS'ADP'
p721
F0.993812
s(lp722
(g91
I10
tp723
atp724
a(S'offrire'
p725
(dp726
S'VERB'
p727
F1.0
s(lp728
(g125
I11
tp729
atp730
a(S'quanto'
p731
(dp732
S'ADV'
p733
F0.902749
sS'PRON'
p734
F0.087546
sS'ADJ'
p735
F0.009405
sS'NOUN'
p736
F0.0003
s(lp737
(g103
I20
tp738
atp739
a(S'prima'
p740
(dp741
S'ADV'
p742
F0.584082
sS'NOUN'
p743
F0.000776
sS'CONJ'
p744
F0.14888
sS'ADJ'
p745
F0.150666
sS'ADP'
p746
F0.115596
s(lp747
(g117
I21
tp748
atp749
a(S'un'
p750
(dp751
S'PRON'
p752
F0.004618
sS'DEF'
p753
F0.995382
s(lp754
tp755
a(S'risarcimento'
p756
(dp757
S'NOUN'
p758
F1.0
s(lp759
(g132
I12
tp760
atp761
a(S'a'
p762
(dp763
S'CONJ'
p764
F0.000979
sS'ADP'
p765
F0.999021
s(lp766
(g139
I13
tp767
atp768
a(S'tutte'
p769
(dp770
S'PRON'
p771
F0.058317
sS'ADJ'
p772
F0.941683
s(lp773
(g146
I14
tp774
atp775
a(S'le'
p776
(dp777
S'PRON'
p778
F7e-06
sS'DET'
p779
F0.999993
s(lp780
tp781
a(S'vittime'
p782
(dp783
S'NOUN'
p784
F1.0
s(lp785
(g163
I16
tp786
atp787
a(S'ancora'
p788
(dp789
S'ADV'
p790
F0.982035
sS'VERB'
p791
F0.017508
sS'NOUN'
p792
F0.000456
s(lp793
tp794
a(S'viventi'
p795
(dp796
S'NOUN'
p797
F0.067676
sS'VERB'
p798
F0.01039
sS'ADJ'
p799
F0.921934
s(lp800
(g171
I15
tp801
atp802
a(S'e'
p803
(dp804
S'CONJ'
p805
F1.0
s(lp806
(g178
I17
tp807
atp808
a(S'alle'
p809
(dp810
S'ADP'
p811
F1.0
s(lp812
tp813
a(S'loro'
p814
(dp815
S'PRON'
p816
F1.0
s(lp817
(g185
I18
tp818
atp819
a(S'famiglie'
p820
(dp821
S'NOUN'
p822
F1.0
s(lp823
(g192
I19
tp824
atp825
a(g195
(dp826
g195
F1.0
s(lp827
(g195
I24
tp828
atp829
asS'sk'
p830
(lp831
(S'vyz\xc3\xbdvame'
p832
(dp833
S'VERB'
p834
F1.0
s(lp835
(g14
I2
tp836
atp837
a(S'japonsk\xc3\xba'
p838
(dp839
S'ADJ'
p840
F1.0
s(lp841
(g37
I5
tp842
atp843
a(S'vl\xc3\xa1du'
p844
(dp845
S'NOUN'
p846
F1.0
s(lp847
(g29
I6
tp848
atp849
a(g543
(dp850
g195
F1.0
s(lp851
tp852
a(S'aby'
p853
(dp854
g427
F6e-05
sS'CONJ'
p855
F0.99994
s(lp856
(g44
I7
tp857
atp858
a(S'\xc4\x8do'
p859
(dp860
S'PRON'
p861
F0.939135
sS'CONJ'
p862
F0.00563
sg427
F0.055235
s(lp863
(g155
I23
tp864
atp865
a(S'najr\xc3\xbdchlej\xc5\xa1ie'
p866
(dp867
S'ADV'
p868
F0.995611
sS'ADJ'
p869
F0.0043890000000000005
s(lp870
(g117
I21
tp871
atp872
a(S'zaviedla'
p873
(dp874
S'VERB'
p875
F0.999999
s(lp876
(g51
I8
tp877
atp878
a(S'mechanizmy'
p879
(dp880
S'NOUN'
p881
F1.0
s(lp882
(g82
I9
tp883
atp884
a(g543
(dp885
g195
F1.0
s(lp886
tp887
a(S'ktor\xc3\xa9'
p888
(dp889
S'PRON'
p890
F1.0
s(lp891
(g91
I10
tp892
atp893
a(S'zaistia'
p894
(dp895
S'VERB'
p896
F1.0
s(lp897
tp898
a(S'od\xc5\xa1kodnenie'
p899
(dp900
S'NOUN'
p901
F1.0
s(lp902
(g132
I12
tp903
atp904
a(S'v\xc5\xa1etk\xc3\xbdm'
p905
(dp906
S'PRON'
p907
F0.999644
sg427
F0.000356
s(lp908
(g146
I14
tp909
atp910
a(S'\xc5\xbeij\xc3\xbacim'
p911
(dp912
S'VERB'
p913
F1.0
s(lp914
(g171
I15
tp915
atp916
a(S'obetiam'
p917
(dp918
S'NOUN'
p919
F1.0
s(lp920
(g163
I16
tp921
atp922
a(g762
(dp923
g427
F0.00023
sS'CONJ'
p924
F0.999462
sS'NOUN'
p925
F1.1e-05
sS'ADP'
p926
F0.000233
sS'PRT'
p927
F6.3e-05
s(lp928
(g178
I17
tp929
atp930
a(S'ich'
p931
(dp932
S'PRON'
p933
F1.0
s(lp934
(g185
I18
tp935
atp936
a(S'rodin\xc3\xa1m'
p937
(dp938
S'NOUN'
p939
F1.0
s(lp940
(g192
I19
tp941
atp942
a(g195
(dp943
g195
F1.0
s(lp944
(g195
I24
tp945
atp946
asS'pl'
p947
(lp948
(S'wzywamy'
p949
(dp950
S'VERB'
p951
F0.9992829999999999
sS'NOUN'
p952
F0.0007149999999999999
s(lp953
(g14
I2
tp954
atp955
a(S'japo\xc5\x84ski'
p956
(dp957
S'ADJ'
p958
F1.0
s(lp959
(g37
I5
tp960
atp961
a(S'rz\xc4\x85d'
p962
(dp963
S'NOUN'
p964
F1.0
s(lp965
(g29
I6
tp966
atp967
a(S'do'
p968
(dp969
g427
F1e-06
sS'NOUN'
p970
F4.2e-05
sS'ADP'
p971
F0.999957
s(lp972
(g44
I7
tp973
atp974
a(S'jak'
p975
(dp976
S'ADV'
p977
F0.991653
sS'PRT'
p978
F0.004182
sS'CONJ'
p979
F0.003938
sS'ADP'
p980
F0.000226
sS'PRON'
p981
F1e-06
s(lp982
(g103
I20
tp983
atp984
a(S'najszybszego'
p985
(dp986
S'ADJ'
p987
F1.0
s(lp988
(g117
I21
tp989
atp990
a(S'wdro\xc5\xbcenia'
p991
(dp992
S'ADJ'
p993
F4.9999999999999996e-05
sS'VERB'
p994
F0.8557299999999999
sS'NOUN'
p995
F0.14422000000000001
s(lp996
(g51
I8
tp997
atp998
a(S'mechanizm\xc3\xb3w'
p999
(dp1000
S'NOUN'
p1001
F1.0
s(lp1002
(g82
I9
tp1003
atp1004
a(S'w'
p1005
(dp1006
S'ADJ'
p1007
F0.0
sg427
F0.0
sS'NOUN'
p1008
F0.0
sS'ADP'
p1009
F1.0
s(lp1010
(g332
I22
tp1011
atp1012
a(S'celu'
p1013
(dp1014
S'NOUN'
p1015
F1.0
s(lp1016
(g91
I10
tp1017
atp1018
a(S'zapewnienia'
p1019
(dp1020
S'VERB'
p1021
F0.985623
sS'NOUN'
p1022
F0.014377000000000001
s(lp1023
(g125
I11
tp1024
atp1025
a(S'odszkodowa\xc5\x84'
p1026
(dp1027
S'NOUN'
p1028
F1.0
s(lp1029
(g132
I12
tp1030
atp1031
a(S'wszystkim'
p1032
(dp1033
S'NOUN'
p1034
F0.1131
sS'ADJ'
p1035
F0.8869009999999997
s(lp1036
(g146
I14
tp1037
atp1038
a(S'ocala\xc5\x82ym'
p1039
(dp1040
S'NOUN'
p1041
F0.0009480000000000001
sS'VERB'
p1042
F0.13689300000000001
sS'ADJ'
p1043
F0.862159
s(lp1044
(g171
I15
tp1045
atp1046
a(S'ofiarom'
p1047
(dp1048
S'NOUN'
p1049
F1.0
s(lp1050
(g163
I16
tp1051
atp1052
a(g701
(dp1053
S'PRT'
p1054
F0.00102
sS'CONJ'
p1055
F0.998934
sS'NOUN'
p1056
F2.1000000000000002e-05
sg427
F1e-06
sS'PRON'
p1057
F2.3000000000000003e-05
s(lp1058
(g178
I17
tp1059
atp1060
a(S'ich'
p1061
(dp1062
S'PRON'
p1063
F0.9999959999999999
sg427
F3e-06
s(lp1064
(g185
I18
tp1065
atp1066
a(S'rodzinom'
p1067
(dp1068
S'NOUN'
p1069
F1.0
s(lp1070
(g192
I19
tp1071
atp1072
a(g195
(dp1073
g195
F1.0
s(lp1074
(g195
I24
tp1075
atp1076
asS'sl'
p1077
(lp1078
(S'japonsko'
p1079
(dp1080
S'ADJ'
p1081
F1.0
s(lp1082
(g37
I5
tp1083
atp1084
a(S'vlado'
p1085
(dp1086
S'NOUN'
p1087
F1.0
s(lp1088
(g29
I6
tp1089
atp1090
a(S'pozivamo'
p1091
(dp1092
S'VERB'
p1093
F1.0
s(lp1094
(g14
I2
tp1095
atp1096
a(g543
(dp1097
g195
F1.0
s(lp1098
tp1099
a(S'da'
p1100
(dp1101
S'PRT'
p1102
F0.000272
sS'CONJ'
p1103
F0.999224
sS'VERB'
p1104
F0.000502
sg427
F2e-06
s(lp1105
(g44
I7
tp1106
atp1107
a(S'\xc4\x8dim'
p1108
(dp1109
S'ADV'
p1110
F0.997857
sS'PRON'
p1111
F0.002143
s(lp1112
(g155
I23
tp1113
atp1114
a(S'prej'
p1115
(dp1116
S'ADV'
p1117
F1.0
s(lp1118
(g117
I21
tp1119
atp1120
a(S'uvede'
p1121
(dp1122
S'VERB'
p1123
F1.0
s(lp1124
(g51
I8
tp1125
atp1126
a(S'mehanizme'
p1127
(dp1128
S'NOUN'
p1129
F1.0
s(lp1130
(g82
I9
tp1131
atp1132
a(S'za'
p1133
(dp1134
S'ADV'
p1135
F8e-06
sg427
F1e-06
sS'ADP'
p1136
F0.999992
s(lp1137
(g91
I10
tp1138
atp1139
a(S'pla\xc4\x8dilo'
p1140
(dp1141
S'NOUN'
p1142
F1.0
s(lp1143
tp1144
a(S'reparacij'
p1145
(dp1146
S'ADV'
p1147
F0.000548
sS'ADJ'
p1148
F7.5e-05
sS'VERB'
p1149
F0.000563
sS'NOUN'
p1150
F0.9988189999999999
s(lp1151
(g132
I12
tp1152
atp1153
a(S'vsem'
p1154
(dp1155
S'PRON'
p1156
F1.0
s(lp1157
(g146
I14
tp1158
atp1159
a(S'\xc5\xa1e'
p1160
(dp1161
S'PRT'
p1162
F1.0
s(lp1163
tp1164
a(S'\xc5\xbeivim'
p1165
(dp1166
S'VERB'
p1167
F0.973831
sS'ADJ'
p1168
F0.026169
s(lp1169
(g171
I15
tp1170
atp1171
a(S'\xc5\xbertvam'
p1172
(dp1173
S'NOUN'
p1174
F1.0
s(lp1175
(g163
I16
tp1176
atp1177
a(S'in'
p1178
(dp1179
S'ADV'
p1180
F6e-06
sg427
F3e-06
sS'CONJ'
p1181
F0.999991
sS'NOUN'
p1182
F0.0
s(lp1183
(g178
I17
tp1184
atp1185
a(S'njihovim'
p1186
(dp1187
S'PRON'
p1188
F1.0
s(lp1189
(g185
I18
tp1190
atp1191
a(S'dru\xc5\xbeinam'
p1192
(dp1193
S'NOUN'
p1194
F1.0
s(lp1195
(g192
I19
tp1196
atp1197
a(g195
(dp1198
g195
F1.0
s(lp1199
(g195
I24
tp1200
atp1201
asS'es'
p1202
(lp1203
(S'instamos'
p1204
(dp1205
S'VERB'
p1206
F1.0
s(lp1207
(g14
I2
tp1208
atp1209
a(S'al'
p1210
(dp1211
S'CONJ'
p1212
F0.000161
sS'ADP'
p1213
F0.9998389999999999
s(lp1214
(g22
I4
tp1215
atp1216
a(S'gobierno'
p1217
(dp1218
S'VERB'
p1219
F4e-06
sS'NOUN'
p1220
F0.999996
s(lp1221
(g29
I6
tp1222
atp1223
a(S'japon\xc3\xa9s'
p1224
(dp1225
S'NOUN'
p1226
F0.073442
sS'ADJ'
p1227
F0.926558
s(lp1228
(g37
I5
tp1229
atp1230
a(g762
(dp1231
g427
F0.019488000000000002
sS'CONJ'
p1232
F0.002748
sS'ADP'
p1233
F0.977764
s(lp1234
tp1235
a(S'que'
p1236
(dp1237
g427
F2e-06
sS'CONJ'
p1238
F0.999998
s(lp1239
(g44
I7
tp1240
atp1241
a(S'establezca'
p1242
(dp1243
S'VERB'
p1244
F1.0
s(lp1245
(g51
I8
tp1246
atp1247
a(S'mecanismos'
p1248
(dp1249
S'NOUN'
p1250
F1.0
s(lp1251
(g82
I9
tp1252
atp1253
a(S'para'
p1254
(dp1255
S'CONJ'
p1256
F0.952807
sS'ADP'
p1257
F0.047193
s(lp1258
(g91
I10
tp1259
atp1260
a(S'compensar'
p1261
(dp1262
S'VERB'
p1263
F1.0
s(lp1264
(g132
I12
tp1265
atp1266
a(g762
(dp1267
g427
F1.5e-05
sS'CONJ'
p1268
F5.2e-05
sS'ADP'
p1269
F0.999933
s(lp1270
(g139
I13
tp1271
atp1272
a(S'todas'
p1273
(dp1274
S'ADJ'
p1275
F1.0
s(lp1276
(g146
I14
tp1277
atp1278
a(S'las'
p1279
(dp1280
S'PRON'
p1281
F0.0
sS'DET'
p1282
F1.0
s(lp1283
tp1284
a(S'v\xc3\xadctimas'
p1285
(dp1286
S'NOUN'
p1287
F1.0
s(lp1288
(g163
I16
tp1289
atp1290
a(S'supervivientes'
p1291
(dp1292
S'NOUN'
p1293
F1.0
s(lp1294
(g171
I15
tp1295
atp1296
a(S'y'
p1297
(dp1298
g427
F0.001029
sS'CONJ'
p1299
F0.998971
s(lp1300
(g178
I17
tp1301
atp1302
a(g762
(dp1303
g427
F5e-06
sS'CONJ'
p1304
F4e-06
sS'ADP'
p1305
F0.999991
s(lp1306
tp1307
a(S'sus'
p1308
(dp1309
S'PRON'
p1310
F1.0
s(lp1311
(g185
I18
tp1312
atp1313
a(S'familias'
p1314
(dp1315
S'NOUN'
p1316
F1.0
s(lp1317
(g192
I19
tp1318
atp1319
a(S'lo'
p1320
(dp1321
S'PRON'
p1322
F0.027371
sS'DET'
p1323
F0.972629
s(lp1324
(g103
I20
tp1325
atp1326
a(S'antes'
p1327
(dp1328
S'ADV'
p1329
F0.587065
sS'NOUN'
p1330
F0.412935
s(lp1331
(g117
I21
tp1332
atp1333
a(S'posible'
p1334
(dp1335
S'ADJ'
p1336
F1.0
s(lp1337
(g155
I23
tp1338
atp1339
a(g195
(dp1340
g195
F1.0
s(lp1341
(g195
I24
tp1342
atp1343
as.