(dp0
S'fr'
p1
(lp2
(S'nous'
p3
(dp4
S'PRON'
p5
F1.0
s(lp6
(S'we'
p7
I0
tp8
atp9
a(S'croyons'
p10
(dp11
S'VERB'
p12
F1.0
s(lp13
(S'believe'
p14
I2
tp15
atp16
a(S'fermement'
p17
(dp18
S'ADV'
p19
F1.0
s(lp20
(S'firmly'
p21
I1
tp22
atp23
a(S'que'
p24
(dp25
S'ADV'
p26
F0.022586
sS'PRON'
p27
F0.010615999999999999
sS'CONJ'
p28
F0.966798
s(lp29
(S'that'
p30
I3
tp31
atp32
a(S'ceux'
p33
(dp34
S'PRON'
p35
F1.0
s(lp36
(S'those'
p37
I4
tp38
atp39
a(S'qui'
p40
(dp41
S'PRON'
p42
F1.0
s(lp43
(S'who'
p44
I5
tp45
atp46
a(S'ont'
p47
(dp48
S'VERB'
p49
F1.0
s(lp50
(S'triggered'
p51
I6
tp52
atp53
a(S'd\xc3\xa9clench\xc3\xa9'
p54
(dp55
S'VERB'
p56
F1.0
s(lp57
(g51
I6
tp58
atp59
a(S'la'
p60
(dp61
S'PRON'
p62
F4.2e-05
sS'DET'
p63
F0.999958
sS'NOUN'
p64
F0.0
s(lp65
(S'the'
p66
I10
tp67
atp68
a(S'crise'
p69
(dp70
S'NOUN'
p71
F1.0
s(lp72
(S'crisis'
p73
I8
tp74
atp75
a(S','
p76
(dp77
S'.'
p78
F1.0
s(lp79
(g76
I9
tp80
atp81
a(S'qui'
p82
(dp83
S'PRON'
p84
F1.0
s(lp85
(S'which'
p86
I13
tp87
atp88
a(S'rev\xc3\xaat'
p89
(dp90
S'VERB'
p91
F1.0
s(lp92
(g51
I6
tp93
atp94
a(S'une'
p95
(dp96
S'NOUN'
p97
F6.8e-05
sS'NUM'
p98
F0.003984
sS'DET'
p99
F0.995948
s(lp100
(S'a'
p101
I7
tp102
atp103
a(S'forme'
p104
(dp105
S'VERB'
p106
F0.001103
sS'NOUN'
p107
F0.998897
s(lp108
tp109
a(S'in\xc3\xa9dite'
p110
(dp111
S'ADJ'
p112
F1.0
s(lp113
(g51
I6
tp114
atp115
a(g76
(dp116
g78
F1.0
s(lp117
(g76
I19
tp118
atp119
a(S'et'
p120
(dp121
S'CONJ'
p122
F1.0
s(lp123
(S'and'
p124
I20
tp125
atp126
a(S'les'
p127
(dp128
S'PRON'
p129
F0.000497
sS'DET'
p130
F0.99949
sS'ADP'
p131
F1.3e-05
s(lp132
(S'the'
p133
I21
tp134
atp135
a(S'co\xc3\xbbts'
p136
(dp137
S'NOUN'
p138
F1.0
s(lp139
(S'costs'
p140
I22
tp141
atp142
a(S'que'
p143
(dp144
S'ADV'
p145
F0.000965
sS'PRON'
p146
F0.44677300000000003
sS'CONJ'
p147
F0.552262
s(lp148
(S'which'
p149
I24
tp150
atp151
a(S'nous'
p152
(dp153
S'PRON'
p154
F1.0
s(lp155
tp156
a(S'avons'
p157
(dp158
S'VERB'
p159
F1.0
s(lp160
(S'we'
p161
I25
tp162
atp163
a(S'd\xc3\xbb'
p164
(dp165
S'VERB'
p166
F1.0
s(lp167
(S'have'
p168
I27
tp169
atp170
a(S'subir'
p171
(dp172
S'VERB'
p173
F1.0
s(lp174
(S'pay'
p175
I29
tp176
atp177
a(S'dans'
p178
(dp179
S'NOUN'
p180
F2e-05
sS'ADP'
p181
F0.99998
s(lp182
(S'of'
p183
I31
tp184
atp185
a(S'les'
p186
(dp187
S'PRON'
p188
F5.6e-05
sS'DET'
p189
F0.999943
sS'ADP'
p190
F2e-06
s(lp191
(S'the'
p192
I32
tp193
atp194
a(S'budgets'
p195
(dp196
S'NOUN'
p197
F1.0
s(lp198
(S'budgets'
p199
I34
tp200
atp201
a(S'publics'
p202
(dp203
S'NOUN'
p204
F0.004459
sS'ADJ'
p205
F0.995541
s(lp206
(S'public'
p207
I33
tp208
atp209
a(S'de'
p210
(dp211
S'ADP'
p212
F1.0
s(lp213
(S'of'
p214
I35
tp215
atp216
a(S'nos'
p217
(dp218
S'PRON'
p219
F1.0
s(lp220
(S'our'
p221
I36
tp222
atp223
a(S'\xc3\x89tats'
p224
(dp225
S'NOUN'
p226
F1.0
s(lp227
(S'states'
p228
I39
tp229
atp230
a(S'membres'
p231
(dp232
S'VERB'
p233
F0.031169
sS'NOUN'
p234
F0.968831
s(lp235
(S'member'
p236
I38
tp237
atp238
a(g76
(dp239
g78
F1.0
s(lp240
(g76
I40
tp241
atp242
a(S'devraient'
p243
(dp244
S'VERB'
p245
F1.0
s(lp246
(S'should'
p247
I41
tp248
atp249
a(S'\xc3\xaatre'
p250
(dp251
S'VERB'
p252
F0.997122
sS'NOUN'
p253
F0.002878
s(lp254
(S'be'
p255
I42
tp256
atp257
a(S'appel\xc3\xa9s'
p258
(dp259
S'ADJ'
p260
F0.001768
sS'VERB'
p261
F0.994972
sS'NOUN'
p262
F0.00326
s(lp263
(S'called'
p264
I43
tp265
atp266
a(S'\xc3\xa0'
p267
(dp268
S'ADP'
p269
F1.0
s(lp270
(S'on'
p271
I44
tp272
atp273
a(S'rembourser'
p274
(dp275
S'VERB'
p276
F1.0
s(lp277
(S'compensate'
p278
I46
tp279
atp280
a(S'ces'
p281
(dp282
S'PRON'
p283
F1.0
s(lp284
(S'these'
p285
I48
tp286
atp287
a(S'pertes'
p288
(dp289
S'NOUN'
p290
F1.0
s(lp291
(S'losses'
p292
I49
tp293
atp294
a(g78
(dp295
g78
F1.0
s(lp296
(g78
I50
tp297
atp298
asS'en'
p299
(lp300
(g7
(dp301
S'PRON'
p302
F1.0
s(lp303
(g7
I0
tp304
atp305
a(g21
(dp306
S'ADV'
p307
F1.0
s(lp308
(g21
I1
tp309
atp310
a(g14
(dp311
S'VERB'
p312
F1.0
s(lp313
(g14
I2
tp314
atp315
a(g30
(dp316
S'ADV'
p317
F0.00044
sS'DET'
p318
F0.002188
sS'ADP'
p319
F0.997372
s(lp320
(g30
I3
tp321
atp322
a(g37
(dp323
S'NOUN'
p324
F0.000214
sS'DET'
p325
F0.999786
s(lp326
(g37
I4
tp327
atp328
a(g44
(dp329
S'PRON'
p330
F1.0
s(lp331
(g44
I5
tp332
atp333
a(g51
(dp334
S'VERB'
p335
F0.999932
sS'ADJ'
p336
F6.7e-05
s(lp337
(g51
I6
tp338
atp339
a(g101
(dp340
S'NOUN'
p341
F0.0
sS'DET'
p342
F1.0
s(lp343
(g101
I7
tp344
atp345
a(g73
(dp346
S'NOUN'
p347
F1.0
s(lp348
(g73
I8
tp349
atp350
a(g76
(dp351
g78
F1.0
s(lp352
(g76
I9
tp353
atp354
a(g66
(dp355
S'NOUN'
p356
F6.8e-05
sS'DET'
p357
F0.999932
s(lp358
(g66
I10
tp359
atp360
a(S'like'
p361
(dp362
S'VERB'
p363
F0.054746
sS'ADJ'
p364
F0.682617
sS'ADP'
p365
F0.262637
s(lp366
(g361
I11
tp367
atp368
a(S'of'
p369
(dp370
S'ADP'
p371
F1.0
s(lp372
(g369
I12
tp373
atp374
a(g86
(dp375
S'DET'
p376
F1.0
s(lp377
(g86
I13
tp378
atp379
a(S'we'
p380
(dp381
S'PRON'
p382
F1.0
s(lp383
(g380
I14
tp384
atp385
a(S'have'
p386
(dp387
S'VERB'
p388
F1.0
s(lp389
(g386
I15
tp390
atp391
a(S'never'
p392
(dp393
S'ADV'
p394
F1.0
s(lp395
(g392
I16
tp396
atp397
a(S'seen'
p398
(dp399
S'VERB'
p400
F0.998539
sS'ADJ'
p401
F0.001461
s(lp402
(g398
I17
tp403
atp404
a(S'before'
p405
(dp406
S'ADV'
p407
F0.289102
sS'ADP'
p408
F0.710898
s(lp409
(g405
I18
tp410
atp411
a(g76
(dp412
g78
F1.0
s(lp413
(g76
I19
tp414
atp415
a(g124
(dp416
S'CONJ'
p417
F1.0
sS'NOUN'
p418
F0.0
s(lp419
(g124
I20
tp420
atp421
a(g133
(dp422
S'NOUN'
p423
F1.3e-05
sS'DET'
p424
F0.999987
s(lp425
(g133
I21
tp426
atp427
a(g140
(dp428
S'VERB'
p429
F0.002661
sS'NOUN'
p430
F0.997339
s(lp431
(g140
I22
tp432
atp433
a(S'of'
p434
(dp435
S'ADP'
p436
F1.0
s(lp437
(g434
I23
tp438
atp439
a(g149
(dp440
S'DET'
p441
F1.0
s(lp442
(g149
I24
tp443
atp444
a(g161
(dp445
S'PRON'
p446
F1.0
s(lp447
(g161
I25
tp448
atp449
a(S'all'
p450
(dp451
S'ADV'
p452
F0.981968
sS'DET'
p453
F0.018032
s(lp454
(g450
I26
tp455
atp456
a(g168
(dp457
S'VERB'
p458
F1.0
s(lp459
(g168
I27
tp460
atp461
a(S'to'
p462
(dp463
S'ADV'
p464
F0.0
sS'PRT'
p465
F1.0
sS'ADP'
p466
F0.0
s(lp467
(g462
I28
tp468
atp469
a(g175
(dp470
S'VERB'
p471
F0.999863
sS'NOUN'
p472
F0.000137
s(lp473
(g175
I29
tp474
atp475
a(S'out'
p476
(dp477
S'ADV'
p478
F0.02807
sS'NOUN'
p479
F0.000186
sS'ADP'
p480
F0.012601
sS'PRT'
p481
F0.958981
sS'VERB'
p482
F1e-06
sS'ADJ'
p483
F0.00016
s(lp484
(g476
I30
tp485
atp486
a(g183
(dp487
S'ADP'
p488
F1.0
s(lp489
(g183
I31
tp490
atp491
a(g192
(dp492
S'NOUN'
p493
F1e-06
sS'DET'
p494
F0.999999
s(lp495
(g192
I32
tp496
atp497
a(g207
(dp498
S'NOUN'
p499
F0.126868
sS'ADJ'
p500
F0.873132
s(lp501
(g207
I33
tp502
atp503
a(g199
(dp504
S'VERB'
p505
F0.00026
sS'NOUN'
p506
F0.99974
s(lp507
(g199
I34
tp508
atp509
a(g214
(dp510
S'ADP'
p511
F1.0
s(lp512
(g214
I35
tp513
atp514
a(g221
(dp515
S'PRON'
p516
F1.0
s(lp517
(g221
I36
tp518
atp519
a(S'own'
p520
(dp521
S'VERB'
p522
F1.7e-05
sS'ADJ'
p523
F0.999982
s(lp524
(g520
I37
tp525
atp526
a(g236
(dp527
S'NOUN'
p528
F1.0
s(lp529
(g236
I38
tp530
atp531
a(g228
(dp532
S'VERB'
p533
F0.00932
sS'NOUN'
p534
F0.99068
s(lp535
(g228
I39
tp536
atp537
a(g76
(dp538
g78
F1.0
s(lp539
(g76
I40
tp540
atp541
a(g247
(dp542
S'VERB'
p543
F1.0
s(lp544
(g247
I41
tp545
atp546
a(g255
(dp547
S'VERB'
p548
F1.0
s(lp549
(g255
I42
tp550
atp551
a(g264
(dp552
S'VERB'
p553
F1.0
s(lp554
(g264
I43
tp555
atp556
a(g271
(dp557
S'ADV'
p558
F0.009261
sS'PRT'
p559
F0.166519
sS'ADJ'
p560
F6e-06
sS'NOUN'
p561
F1.5e-05
sS'ADP'
p562
F0.824199
s(lp563
(g271
I44
tp564
atp565
a(S'to'
p566
(dp567
S'ADV'
p568
F0.0
sS'PRT'
p569
F1.0
sS'ADP'
p570
F0.0
s(lp571
(g566
I45
tp572
atp573
a(g278
(dp574
S'VERB'
p575
F1.0
s(lp576
(g278
I46
tp577
atp578
a(S'for'
p579
(dp580
S'ADP'
p581
F1.0
s(lp582
(g579
I47
tp583
atp584
a(g285
(dp585
S'NOUN'
p586
F2e-06
sS'DET'
p587
F0.999998
s(lp588
(g285
I48
tp589
atp590
a(g292
(dp591
S'NOUN'
p592
F1.0
s(lp593
(g292
I49
tp594
atp595
a(g78
(dp596
g78
F1.0
s(lp597
(g78
I50
tp598
atp599
asS'nl'
p600
(lp601
(S'wij'
p602
(dp603
S'PRON'
p604
F1.0
s(lp605
(g7
I0
tp606
atp607
a(S'zijn'
p608
(dp609
S'PRON'
p610
F0.000107
sS'VERB'
p611
F0.999529
sS'NOUN'
p612
F0.000364
s(lp613
tp614
a(S'ervan'
p615
(dp616
S'ADV'
p617
F1.0
s(lp618
(g21
I1
tp619
atp620
a(S'overtuigd'
p621
(dp622
S'VERB'
p623
F0.96556
sS'ADJ'
p624
F0.03444
s(lp625
(g14
I2
tp626
atp627
a(S'dat'
p628
(dp629
S'PRON'
p630
F0.057922
sS'CONJ'
p631
F0.942078
s(lp632
(g30
I3
tp633
atp634
a(S'degenen'
p635
(dp636
S'PRON'
p637
F1.0
s(lp638
(g37
I4
tp639
atp640
a(S'die'
p641
(dp642
S'PRON'
p643
F1.0
s(lp644
(g44
I5
tp645
atp646
a(S'een'
p647
(dp648
S'ADJ'
p649
F7e-06
sS'NUM'
p650
F0.0
sS'DET'
p651
F0.999993
sS'PRON'
p652
F1e-06
s(lp653
(g101
I7
tp654
atp655
a(S'crisis'
p656
(dp657
S'NOUN'
p658
F1.0
s(lp659
(g73
I8
tp660
atp661
a(S'hebben'
p662
(dp663
S'VERB'
p664
F1.0
sS'NOUN'
p665
F0.0
s(lp666
(g386
I15
tp667
atp668
a(S'veroorzaakt'
p669
(dp670
S'VERB'
p671
F1.0
s(lp672
(g51
I6
tp673
atp674
a(S'die'
p675
(dp676
S'PRON'
p677
F1.000001
s(lp678
tp679
a(S'zijn'
p680
(dp681
S'PRON'
p682
F0.956963
sS'VERB'
p683
F0.043023
sS'NOUN'
p684
F1.4e-05
s(lp685
tp686
a(S'weerga'
p687
(dp688
S'NOUN'
p689
F1.0
s(lp690
(g51
I6
tp691
atp692
a(S'niet'
p693
(dp694
S'ADV'
p695
F1.0
sS'PRON'
p696
F0.0
sS'VERB'
p697
F0.0
sS'X'
p698
F0.0
s(lp699
(g392
I16
tp700
atp701
a(S'kent'
p702
(dp703
S'VERB'
p704
F1.0
s(lp705
(g398
I17
tp706
atp707
a(g76
(dp708
g78
F1.0
s(lp709
(g76
I19
tp710
atp711
a(S'en'
p712
(dp713
S'CONJ'
p714
F1.0
s(lp715
(g124
I20
tp716
atp717
a(S'waarvan'
p718
(dp719
S'ADV'
p720
F1.0
s(lp721
(g149
I24
tp722
atp723
a(S'wij'
p724
(dp725
S'PRON'
p726
F1.0
s(lp727
(g161
I25
tp728
atp729
a(S'de'
p730
(dp731
S'DET'
p732
F1.0
s(lp733
(g133
I21
tp734
atp735
a(S'kosten'
p736
(dp737
S'VERB'
p738
F0.0
sS'NOUN'
p739
F1.0
s(lp740
(g140
I22
tp741
atp742
a(S'allemaal'
p743
(dp744
S'PRON'
p745
F1.0
s(lp746
(g450
I26
tp747
atp748
a(S'hebben'
p749
(dp750
S'VERB'
p751
F0.996596
sS'NOUN'
p752
F0.003404
s(lp753
(g168
I27
tp754
atp755
a(S'moeten'
p756
(dp757
S'VERB'
p758
F0.999963
sS'NOUN'
p759
F3.7e-05
s(lp760
(g462
I28
tp761
atp762
a(S'betalen'
p763
(dp764
S'VERB'
p765
F0.996651
sS'NOUN'
p766
F0.003349
s(lp767
(g175
I29
tp768
atp769
a(S'uit'
p770
(dp771
S'ADV'
p772
F0.01019
sS'VERB'
p773
F2e-06
sS'ADP'
p774
F0.989808
s(lp775
(g476
I30
tp776
atp777
a(S'de'
p778
(dp779
S'DET'
p780
F1.0
s(lp781
(g192
I32
tp782
atp783
a(S'overheidsbegrotingen'
p784
(dp785
S'NOUN'
p786
F1.0
s(lp787
(g199
I34
tp788
atp789
a(S'van'
p790
(dp791
S'ADP'
p792
F1.0
s(lp793
(g214
I35
tp794
atp795
a(S'onze'
p796
(dp797
S'PRON'
p798
F1.0
s(lp799
(g221
I36
tp800
atp801
a(S'lidstaten'
p802
(dp803
S'NOUN'
p804
F1.0
s(lp805
(g236
I38
tp806
atp807
a(g76
(dp808
g78
F1.0
s(lp809
(g76
I40
tp810
atp811
a(S'op'
p812
(dp813
S'ADV'
p814
F0.015978
sS'ADJ'
p815
F0.0
sS'ADP'
p816
F0.984022
s(lp817
(g271
I44
tp818
atp819
a(S'het'
p820
(dp821
S'PRON'
p822
F0.000941
sS'DET'
p823
F0.999059
s(lp824
tp825
a(S'matje'
p826
(dp827
S'NOUN'
p828
F1.0
s(lp829
tp830
a(S'moeten'
p831
(dp832
S'VERB'
p833
F0.9999790000000001
sS'NOUN'
p834
F2.2e-05
s(lp835
(g247
I41
tp836
atp837
a(S'worden'
p838
(dp839
S'VERB'
p840
F1.0
sS'NOUN'
p841
F0.0
s(lp842
(g255
I42
tp843
atp844
a(S'geroepen'
p845
(dp846
S'VERB'
p847
F0.99998
sS'ADJ'
p848
F2e-05
s(lp849
(g264
I43
tp850
atp851
a(S'om'
p852
(dp853
S'ADV'
p854
F1.9e-05
sS'CONJ'
p855
F0.586193
sS'ADP'
p856
F0.413788
s(lp857
(g579
I47
tp858
atp859
a(S'deze'
p860
(dp861
S'PRON'
p862
F1.0
s(lp863
(g285
I48
tp864
atp865
a(S'schade'
p866
(dp867
S'NOUN'
p868
F1.0
s(lp869
(g292
I49
tp870
atp871
a(S'te'
p872
(dp873
S'PRT'
p874
F1.0
s(lp875
(g566
I45
tp876
atp877
a(S'compenseren'
p878
(dp879
S'VERB'
p880
F1.0
sS'NOUN'
p881
F0.0
s(lp882
(g278
I46
tp883
atp884
a(g78
(dp885
g78
F1.0
s(lp886
(g78
I50
tp887
atp888
asS'de'
p889
(lp890
(S'wir'
p891
(dp892
S'PRON'
p893
F1.0
s(lp894
(g7
I0
tp895
atp896
a(S'sind'
p897
(dp898
S'VERB'
p899
F1.0
s(lp900
(g76
I9
tp901
atp902
a(S'der'
p903
(dp904
S'PRON'
p905
F0.000874
sS'DET'
p906
F0.999126
s(lp907
(g66
I10
tp908
atp909
a(S'festen'
p910
(dp911
S'ADJ'
p912
F1.0
s(lp913
(g21
I1
tp914
atp915
a(S'\xc3\x9cberzeugung'
p916
(dp917
S'NOUN'
p918
F1.0
s(lp919
(g14
I2
tp920
atp921
a(g76
(dp922
g78
F1.0
s(lp923
tp924
a(S'dass'
p925
(dp926
S'CONJ'
p927
F1.0
s(lp928
(g30
I3
tp929
atp930
a(S'diejenigen'
p931
(dp932
S'PRON'
p933
F1.0
s(lp934
(g37
I4
tp935
atp936
a(g76
(dp937
g78
F1.0
s(lp938
(g44
I5
tp939
atp940
a(S'die'
p941
(dp942
S'PRON'
p943
F0.997104
s(lp944
(g86
I13
tp945
atp946
a(S'eine'
p947
(dp948
S'PRON'
p949
F0.005608
sS'DET'
p950
F0.994359
s(lp951
(g101
I7
tp952
atp953
a(S'unvergleichliche'
p954
(dp955
S'ADJ'
p956
F1.0
s(lp957
tp958
a(S'krise'
p959
(dp960
S'NOUN'
p961
F0.9999629999999999
s(lp962
(g73
I8
tp963
atp964
a(S'ausgel\xc3\xb6st'
p965
(dp966
S'VERB'
p967
F0.998114
sS'ADJ'
p968
F0.001886
s(lp969
(g51
I6
tp970
atp971
a(S'haben'
p972
(dp973
S'VERB'
p974
F0.99998
s(lp975
(g386
I15
tp976
atp977
a(g76
(dp978
g78
F1.0
s(lp979
(g76
I19
tp980
atp981
a(S'deren'
p982
(dp983
S'PRON'
p984
F0.995587
s(lp985
(g133
I21
tp986
atp987
a(S'kosten'
p988
(dp989
S'VERB'
p990
F1.0
s(lp991
(g140
I22
tp992
atp993
a(S'wir'
p994
(dp995
S'PRON'
p996
F1.0
s(lp997
(g161
I25
tp998
atp999
a(S'alle'
p1000
(dp1001
S'PRON'
p1002
F1.0
s(lp1003
(g450
I26
tp1004
atp1005
a(S'aus'
p1006
(dp1007
S'PRT'
p1008
F0.011064
sS'ADP'
p1009
F0.988215
s(lp1010
(g476
I30
tp1011
atp1012
a(S'den'
p1013
(dp1014
S'PRON'
p1015
F0.000117
sS'DET'
p1016
F0.999878
s(lp1017
(g192
I32
tp1018
atp1019
a(S'\xc3\xb6ffentlichen'
p1020
(dp1021
S'ADJ'
p1022
F1.0
s(lp1023
(g207
I33
tp1024
atp1025
a(S'haushalten'
p1026
(dp1027
S'VERB'
p1028
F1.0
s(lp1029
(g199
I34
tp1030
atp1031
a(S'unserer'
p1032
(dp1033
S'PRON'
p1034
F1.0
s(lp1035
(g221
I36
tp1036
atp1037
a(S'heimatstaaten'
p1038
(dp1039
S'ADJ'
p1040
F0.012931
sS'NOUN'
p1041
F0.978558
s(lp1042
(g520
I37
tp1043
atp1044
a(S'bezahlen'
p1045
(dp1046
S'VERB'
p1047
F1.0
s(lp1048
(g175
I29
tp1049
atp1050
a(S'mussten'
p1051
(dp1052
S'VERB'
p1053
F1.0
s(lp1054
(g168
I27
tp1055
atp1056
a(g76
(dp1057
g78
F1.0
s(lp1058
(g76
I40
tp1059
atp1060
a(S'zum'
p1061
(dp1062
S'ADP'
p1063
F1.0
s(lp1064
(g271
I44
tp1065
atp1066
a(S'ausgleich'
p1067
(dp1068
S'NOUN'
p1069
F0.995644
s(lp1070
(g278
I46
tp1071
atp1072
a(S'dieser'
p1073
(dp1074
S'PRON'
p1075
F1.0
s(lp1076
(g285
I48
tp1077
atp1078
a(S'sch\xc3\xa4den'
p1079
(dp1080
S'ADJ'
p1081
F0.015207
sS'NOUN'
p1082
F0.982962
s(lp1083
tp1084
a(S'heranzuziehen'
p1085
(dp1086
S'VERB'
p1087
F1.0
s(lp1088
(g292
I49
tp1089
atp1090
a(S'sind'
p1091
(dp1092
S'VERB'
p1093
F1.0
s(lp1094
tp1095
a(g78
(dp1096
g78
F1.0
s(lp1097
(g78
I50
tp1098
atp1099
asS'it'
p1100
(lp1101
(S'siamo'
p1102
(dp1103
S'VERB'
p1104
F1.0
s(lp1105
(g7
I0
tp1106
atp1107
a(S'convinti'
p1108
(dp1109
S'VERB'
p1110
F0.9801
sS'ADJ'
p1111
F0.0199
s(lp1112
(g14
I2
tp1113
atp1114
a(S'che'
p1115
(dp1116
S'PRON'
p1117
F0.8706
sS'CONJ'
p1118
F0.12902
sS'ADJ'
p1119
F0.00038
s(lp1120
(g30
I3
tp1121
atp1122
a(S'queste'
p1123
(dp1124
S'PRON'
p1125
F1.0
s(lp1126
(g285
I48
tp1127
atp1128
a(S'perdite'
p1129
(dp1130
S'NOUN'
p1131
F1.0
s(lp1132
(g292
I49
tp1133
atp1134
a(S'debbano'
p1135
(dp1136
S'VERB'
p1137
F1.0
s(lp1138
(g247
I41
tp1139
atp1140
a(S'essere'
p1141
(dp1142
S'VERB'
p1143
F0.999975
sS'NOUN'
p1144
F2.5e-05
s(lp1145
(g255
I42
tp1146
atp1147
a(S'appianate'
p1148
(dp1149
S'VERB'
p1150
F1.0
s(lp1151
(g278
I46
tp1152
atp1153
a(S'da'
p1154
(dp1155
S'ADP'
p1156
F1.0
s(lp1157
(g579
I47
tp1158
atp1159
a(S'coloro'
p1160
(dp1161
S'PRON'
p1162
F0.013222
sS'VERB'
p1163
F0.986778
s(lp1164
(g37
I4
tp1165
atp1166
a(S'che'
p1167
(dp1168
S'PRON'
p1169
F0.994341
sS'CONJ'
p1170
F0.005394
sS'ADJ'
p1171
F0.000265
s(lp1172
(g44
I5
tp1173
atp1174
a(S'hanno'
p1175
(dp1176
S'VERB'
p1177
F1.0
s(lp1178
(g51
I6
tp1179
atp1180
a(S'scatenato'
p1181
(dp1182
S'NOUN'
p1183
F0.002353
sS'VERB'
p1184
F0.974285
sS'ADJ'
p1185
F0.023362
s(lp1186
(g51
I6
tp1187
atp1188
a(S'la'
p1189
(dp1190
S'PRON'
p1191
F3e-06
sS'DET'
p1192
F0.999997
s(lp1193
(g133
I21
tp1194
atp1195
a(S'crisi'
p1196
(dp1197
S'NOUN'
p1198
F1.0
s(lp1199
(g73
I8
tp1200
atp1201
a(g76
(dp1202
g78
F1.0
s(lp1203
(g76
I9
tp1204
atp1205
a(S'una'
p1206
(dp1207
S'PRON'
p1208
F0.000307
sS'DEF'
p1209
F0.999693
s(lp1210
(g101
I7
tp1211
atp1212
a(S'crisi'
p1213
(dp1214
S'NOUN'
p1215
F1.0
s(lp1216
tp1217
a(S'di'
p1218
(dp1219
S'CONJ'
p1220
F1.1e-05
sS'ADP'
p1221
F0.999989
s(lp1222
(g369
I12
tp1223
atp1224
a(S'proporzioni'
p1225
(dp1226
S'VERB'
p1227
F0.020482999999999998
sS'NOUN'
p1228
F0.979517
s(lp1229
(g51
I6
tp1230
atp1231
a(S'mai'
p1232
(dp1233
S'ADV'
p1234
F0.999719
sS'NOUN'
p1235
F0.000281
s(lp1236
(g392
I16
tp1237
atp1238
a(S'viste'
p1239
(dp1240
S'VERB'
p1241
F0.890821
sS'NOUN'
p1242
F0.109179
s(lp1243
(g398
I17
tp1244
atp1245
a(S'prima'
p1246
(dp1247
S'ADV'
p1248
F0.554675
sS'NOUN'
p1249
F0.004638
sS'CONJ'
p1250
F0.145123
sS'ADJ'
p1251
F0.290174
sS'ADP'
p1252
F0.00539
s(lp1253
(g405
I18
tp1254
atp1255
a(S'e'
p1256
(dp1257
S'CONJ'
p1258
F1.0
s(lp1259
(g124
I20
tp1260
atp1261
a(S'di'
p1262
(dp1263
S'CONJ'
p1264
F5.5e-05
sS'ADP'
p1265
F0.999945
s(lp1266
(g434
I23
tp1267
atp1268
a(S'cui'
p1269
(dp1270
S'PRON'
p1271
F1.0
s(lp1272
(g149
I24
tp1273
atp1274
a(S'tutti'
p1275
(dp1276
S'PRON'
p1277
F0.927108
sS'ADJ'
p1278
F0.072892
s(lp1279
(g450
I26
tp1280
atp1281
a(S'noi'
p1282
(dp1283
S'PRON'
p1284
F1.0
s(lp1285
(g161
I25
tp1286
atp1287
a(g76
(dp1288
g78
F1.0
s(lp1289
tp1290
a(S'con'
p1291
(dp1292
S'ADP'
p1293
F1.0
s(lp1294
(g476
I30
tp1295
atp1296
a(S'i'
p1297
(dp1298
S'DET'
p1299
F1.0
s(lp1300
tp1301
a(S'bilanci'
p1302
(dp1303
S'VERB'
p1304
F0.000892
sS'NOUN'
p1305
F0.999107
s(lp1306
(g199
I34
tp1307
atp1308
a(S'pubblici'
p1309
(dp1310
S'NOUN'
p1311
F0.001933
sS'ADJ'
p1312
F0.998067
s(lp1313
(g207
I33
tp1314
atp1315
a(S'dei'
p1316
(dp1317
S'NOUN'
p1318
F3e-05
sS'DEF'
p1319
F0.000481
sS'ADP'
p1320
F0.999489
s(lp1321
(g214
I35
tp1322
atp1323
a(S'nostri'
p1324
(dp1325
S'PRON'
p1326
F1.0
s(lp1327
(g221
I36
tp1328
atp1329
a(S'stati'
p1330
(dp1331
S'VERB'
p1332
F0.04018
sS'NOUN'
p1333
F0.95982
s(lp1334
(g228
I39
tp1335
atp1336
a(S'membri'
p1337
(dp1338
S'NOUN'
p1339
F1.0
s(lp1340
(g236
I38
tp1341
atp1342
a(g76
(dp1343
g78
F1.0
s(lp1344
(g76
I40
tp1345
atp1346
a(S'paghiamo'
p1347
(dp1348
S'VERB'
p1349
F1.0
s(lp1350
(g175
I29
tp1351
atp1352
a(g1297
(dp1353
S'DET'
p1354
F1.0
s(lp1355
tp1356
a(S'costi'
p1357
(dp1358
S'VERB'
p1359
F0.003256
sS'NOUN'
p1360
F0.996744
s(lp1361
(g140
I22
tp1362
atp1363
a(g78
(dp1364
g78
F1.0
s(lp1365
(g78
I50
tp1366
atp1367
asS'sk'
p1368
(lp1369
(S'sme'
p1370
(dp1371
g698
F0.001807
sS'VERB'
p1372
F0.998193
s(lp1373
(g7
I0
tp1374
atp1375
a(S'pevne'
p1376
(dp1377
S'ADV'
p1378
F1.0
s(lp1379
(g21
I1
tp1380
atp1381
a(S'presved\xc4\x8den\xc3\xad'
p1382
(dp1383
S'VERB'
p1384
F0.923951
sS'NOUN'
p1385
F0.07604899999999999
s(lp1386
tp1387
a(g76
(dp1388
g78
F1.0
s(lp1389
(g14
I2
tp1390
atp1391
a(S'\xc5\xbee'
p1392
(dp1393
g698
F0.00033
sS'CONJ'
p1394
F0.99967
s(lp1395
(g30
I3
tp1396
atp1397
a(S't\xc3\xad'
p1398
(dp1399
S'PRON'
p1400
F1.0
s(lp1401
(g37
I4
tp1402
atp1403
a(g76
(dp1404
g78
F1.0
s(lp1405
tp1406
a(S'\xc4\x8do'
p1407
(dp1408
S'PRON'
p1409
F0.604159
sS'CONJ'
p1410
F0.345633
sg698
F0.050208
s(lp1411
(g44
I5
tp1412
atp1413
a(S'zapr\xc3\xad\xc4\x8dinili'
p1414
(dp1415
S'VERB'
p1416
F1.0
s(lp1417
(g51
I6
tp1418
atp1419
a(S'kr\xc3\xadzu'
p1420
(dp1421
S'NOUN'
p1422
F1.0
s(lp1423
(g73
I8
tp1424
atp1425
a(g76
(dp1426
g78
F1.0
s(lp1427
(g76
I9
tp1428
atp1429
a(S'ktor\xc3\xa1'
p1430
(dp1431
S'PRON'
p1432
F1.0
s(lp1433
(g86
I13
tp1434
atp1435
a(S'nem\xc3\xa1'
p1436
(dp1437
S'NOUN'
p1438
F0.000343
sS'VERB'
p1439
F0.985302
sS'ADJ'
p1440
F0.014197
sg698
F0.000157
s(lp1441
tp1442
a(S'obdobu'
p1443
(dp1444
S'NOUN'
p1445
F1.0
s(lp1446
(g51
I6
tp1447
atp1448
a(g101
(dp1449
g698
F0.004686
sS'CONJ'
p1450
F0.994933
sS'NOUN'
p1451
F0.00022600000000000002
sS'ADP'
p1452
F1e-06
sS'PRT'
p1453
F0.000154
s(lp1454
(g124
I20
tp1455
atp1456
a(S'za'
p1457
(dp1458
S'PRT'
p1459
F0.000985
sS'ADP'
p1460
F0.998902
sg698
F0.00011399999999999999
s(lp1461
(g140
I22
tp1462
atp1463
a(S'ktor\xc3\xba'
p1464
(dp1465
S'PRON'
p1466
F1.0
s(lp1467
(g149
I24
tp1468
atp1469
a(S'mus\xc3\xadme'
p1470
(dp1471
S'VERB'
p1472
F1.0
s(lp1473
(g168
I27
tp1474
atp1475
a(S'plati\xc5\xa5'
p1476
(dp1477
S'VERB'
p1478
F1.0
s(lp1479
(g175
I29
tp1480
atp1481
a(S'my'
p1482
(dp1483
S'PRON'
p1484
F1.0
s(lp1485
(g161
I25
tp1486
atp1487
a(S'v\xc5\xa1etci'
p1488
(dp1489
S'PRON'
p1490
F1.0
s(lp1491
(g450
I26
tp1492
atp1493
a(S'z'
p1494
(dp1495
g698
F3.2e-05
sS'NOUN'
p1496
F0.000223
sS'ADP'
p1497
F0.999744
s(lp1498
(g476
I30
tp1499
atp1500
a(S'verejn\xc3\xbdch'
p1501
(dp1502
S'ADJ'
p1503
F1.0
s(lp1504
(g207
I33
tp1505
atp1506
a(S'rozpo\xc4\x8dtov'
p1507
(dp1508
S'NOUN'
p1509
F1.0
s(lp1510
(g199
I34
tp1511
atp1512
a(S'na\xc5\xa1ich'
p1513
(dp1514
S'PRON'
p1515
F0.999745
sS'NOUN'
p1516
F0.000222
sg698
F3.3e-05
s(lp1517
(g221
I36
tp1518
atp1519
a(S'vlastn\xc3\xbdch'
p1520
(dp1521
S'ADJ'
p1522
F1.0
s(lp1523
(g520
I37
tp1524
atp1525
a(S'\xc4\x8dlensk\xc3\xbdch'
p1526
(dp1527
S'ADJ'
p1528
F1.0
s(lp1529
(g236
I38
tp1530
atp1531
a(S'\xc5\xa1t\xc3\xa1tov'
p1532
(dp1533
S'NOUN'
p1534
F1.0
s(lp1535
(g228
I39
tp1536
atp1537
a(g76
(dp1538
g78
F1.0
s(lp1539
(g76
I40
tp1540
atp1541
a(S'by'
p1542
(dp1543
S'PRT'
p1544
F0.999201
sg698
F0.000799
s(lp1545
tp1546
a(S'mali'
p1547
(dp1548
S'VERB'
p1549
F1.0
s(lp1550
(g247
I41
tp1551
atp1552
a(S'by\xc5\xa5'
p1553
(dp1554
S'VERB'
p1555
F1.0
s(lp1556
(g255
I42
tp1557
atp1558
a(S'vyzvan\xc3\xad'
p1559
(dp1560
S'VERB'
p1561
F1.0
s(lp1562
(g264
I43
tp1563
atp1564
a(S'na'
p1565
(dp1566
g698
F0.00031
sS'CONJ'
p1567
F1.6e-05
sS'ADP'
p1568
F0.999668
sS'PRT'
p1569
F5e-06
s(lp1570
(g271
I44
tp1571
atp1572
a(S'n\xc3\xa1hradu'
p1573
(dp1574
S'NOUN'
p1575
F1.0
s(lp1576
(g278
I46
tp1577
atp1578
a(S't\xc3\xbdchto'
p1579
(dp1580
S'PRON'
p1581
F1.0
s(lp1582
(g285
I48
tp1583
atp1584
a(S'str\xc3\xa1t'
p1585
(dp1586
S'NOUN'
p1587
F1.0
s(lp1588
(g292
I49
tp1589
atp1590
a(g78
(dp1591
g78
F1.0
s(lp1592
(g78
I50
tp1593
atp1594
asS'pl'
p1595
(lp1596
(S'zdecydowanie'
p1597
(dp1598
S'ADV'
p1599
F0.918366
sS'PRT'
p1600
F0.074025
sS'NOUN'
p1601
F0.007609
s(lp1602
(g21
I1
tp1603
atp1604
a(S'uwa\xc5\xbcamy'
p1605
(dp1606
S'VERB'
p1607
F1.0
s(lp1608
(g14
I2
tp1609
atp1610
a(g76
(dp1611
g698
F0.0
sg78
F1.0
s(lp1612
tp1613
a(S'\xc5\xbce'
p1614
(dp1615
S'PRT'
p1616
F0.000847
sS'CONJ'
p1617
F0.999153
s(lp1618
(g30
I3
tp1619
atp1620
a(S'od'
p1621
(dp1622
S'VERB'
p1623
F0.000216
sS'NOUN'
p1624
F6e-06
sS'ADP'
p1625
F0.9997780000000001
s(lp1626
(g579
I47
tp1627
atp1628
a(S'tych'
p1629
(dp1630
S'ADJ'
p1631
F0.9999989999999999
s(lp1632
(g37
I4
tp1633
atp1634
a(g76
(dp1635
g698
F0.0
sg78
F1.0
s(lp1636
tp1637
a(S'kt\xc3\xb3rzy'
p1638
(dp1639
S'ADJ'
p1640
F1.0
s(lp1641
(g44
I5
tp1642
atp1643
a(S'wywo\xc5\x82ali'
p1644
(dp1645
S'VERB'
p1646
F1.0
s(lp1647
tp1648
a(S'ten'
p1649
(dp1650
S'PRT'
p1651
F0.000389
sS'ADJ'
p1652
F0.9993550000000001
sg698
F0.000254
s(lp1653
(g101
I7
tp1654
atp1655
a(S'bezprecedensowy'
p1656
(dp1657
S'ADJ'
p1658
F1.0
s(lp1659
(g51
I6
tp1660
atp1661
a(S'kryzys'
p1662
(dp1663
S'NOUN'
p1664
F1.0
s(lp1665
(g73
I8
tp1666
atp1667
a(g76
(dp1668
g698
F0.0
sg78
F1.0
s(lp1669
(g76
I9
tp1670
atp1671
a(S'kt\xc3\xb3rego'
p1672
(dp1673
S'ADJ'
p1674
F0.9999999999999999
s(lp1675
(g86
I13
tp1676
atp1677
a(S'koszty'
p1678
(dp1679
S'NOUN'
p1680
F1.0
s(lp1681
(g140
I22
tp1682
atp1683
a(S'wszyscy'
p1684
(dp1685
S'ADJ'
p1686
F0.220098
sS'NOUN'
p1687
F0.779902
s(lp1688
(g450
I26
tp1689
atp1690
a(S'musimy'
p1691
(dp1692
S'VERB'
p1693
F1.0
s(lp1694
(g161
I25
tp1695
atp1696
a(S'ponosi\xc4\x87'
p1697
(dp1698
S'VERB'
p1699
F1.0
s(lp1700
(g175
I29
tp1701
atp1702
a(g1494
(dp1703
S'PRT'
p1704
F1.4e-05
sS'VERB'
p1705
F1e-06
sS'NOUN'
p1706
F0.0
sS'ADP'
p1707
F0.999982
sg698
F1e-06
s(lp1708
(g183
I31
tp1709
atp1710
a(S'bud\xc5\xbcet\xc3\xb3w'
p1711
(dp1712
S'NOUN'
p1713
F1.0
s(lp1714
(g199
I34
tp1715
atp1716
a(S'publicznych'
p1717
(dp1718
S'ADJ'
p1719
F1.0
s(lp1720
(g207
I33
tp1721
atp1722
a(S'naszych'
p1723
(dp1724
S'NOUN'
p1725
F9.999999999999999e-06
sS'ADJ'
p1726
F0.999991
s(lp1727
(g221
I36
tp1728
atp1729
a(S'pa\xc5\x84stw'
p1730
(dp1731
S'NOUN'
p1732
F1.0
s(lp1733
(g228
I39
tp1734
atp1735
a(S'cz\xc5\x82onkowskich'
p1736
(dp1737
S'ADJ'
p1738
F1.000001
s(lp1739
(g236
I38
tp1740
atp1741
a(g76
(dp1742
g698
F3e-06
sg78
F0.999997
s(lp1743
(g76
I40
tp1744
atp1745
a(S'nale\xc5\xbcy'
p1746
(dp1747
S'VERB'
p1748
F0.979547
sS'ADJ'
p1749
F0.020452
s(lp1750
(g247
I41
tp1751
atp1752
a(S'za\xc5\xbc\xc4\x85da\xc4\x87'
p1753
(dp1754
S'VERB'
p1755
F1.0
s(lp1756
tp1757
a(S'wyr\xc3\xb3wnania'
p1758
(dp1759
S'ADV'
p1760
F0.002153
sS'ADJ'
p1761
F0.000246
sS'VERB'
p1762
F0.798551
sS'NOUN'
p1763
F0.199051
s(lp1764
(g278
I46
tp1765
atp1766
a(S'tych'
p1767
(dp1768
S'ADJ'
p1769
F1.000001
s(lp1770
(g285
I48
tp1771
atp1772
a(S'strat'
p1773
(dp1774
S'NOUN'
p1775
F1.0
s(lp1776
(g292
I49
tp1777
atp1778
a(g78
(dp1779
g78
F1.0
s(lp1780
(g78
I50
tp1781
atp1782
asS'sl'
p1783
(lp1784
(S'trdno'
p1785
(dp1786
S'ADV'
p1787
F0.98958
sS'ADJ'
p1788
F0.010421
s(lp1789
(g21
I1
tp1790
atp1791
a(S'smo'
p1792
(dp1793
g698
F2e-06
sS'VERB'
p1794
F0.999998
s(lp1795
(g7
I0
tp1796
atp1797
a(S'prepri\xc4\x8dani'
p1798
(dp1799
S'ADJ'
p1800
F1.0
s(lp1801
(g14
I2
tp1802
atp1803
a(g76
(dp1804
g78
F1.0
s(lp1805
tp1806
a(S'da'
p1807
(dp1808
S'PRT'
p1809
F0.000255
sS'CONJ'
p1810
F0.999719
sS'VERB'
p1811
F2.5e-05
sg698
F1e-06
s(lp1812
(g30
I3
tp1813
atp1814
a(S'morajo'
p1815
(dp1816
S'VERB'
p1817
F1.0
s(lp1818
(g247
I41
tp1819
atp1820
a(S'tisti'
p1821
(dp1822
S'PRON'
p1823
F1.000001
s(lp1824
(g37
I4
tp1825
atp1826
a(g76
(dp1827
g78
F1.0
s(lp1828
tp1829
a(S'ki'
p1830
(dp1831
S'CONJ'
p1832
F1.0
s(lp1833
(g44
I5
tp1834
atp1835
a(S'so'
p1836
(dp1837
g698
F0.0
sS'VERB'
p1838
F1.0
s(lp1839
tp1840
a(S'spro\xc5\xbeili'
p1841
(dp1842
S'VERB'
p1843
F1.0
s(lp1844
(g51
I6
tp1845
atp1846
a(S'krizo'
p1847
(dp1848
S'NOUN'
p1849
F1.0
s(lp1850
(g73
I8
tp1851
atp1852
a(g76
(dp1853
g78
F1.0
s(lp1854
(g76
I9
tp1855
atp1856
a(S'kot'
p1857
(dp1858
S'CONJ'
p1859
F0.999972
sS'NOUN'
p1860
F2.8e-05
s(lp1861
(g361
I11
tp1862
atp1863
a(S'je'
p1864
(dp1865
S'PRON'
p1866
F0.025862
sS'VERB'
p1867
F0.9741369999999999
sg698
F0.0
s(lp1868
(g386
I15
tp1869
atp1870
a(S'\xc5\xa1e'
p1871
(dp1872
S'PRT'
p1873
F1.0
s(lp1874
tp1875
a(S'ni'
p1876
(dp1877
S'VERB'
p1878
F1.0
s(lp1879
(g392
I16
tp1880
atp1881
a(S'bilo'
p1882
(dp1883
S'VERB'
p1884
F1.0
s(lp1885
(g398
I17
tp1886
atp1887
a(S'in'
p1888
(dp1889
S'ADV'
p1890
F0.005002
sg698
F9.6e-05
sS'CONJ'
p1891
F0.993936
sS'NOUN'
p1892
F0.000966
s(lp1893
(g124
I20
tp1894
atp1895
a(S'za'
p1896
(dp1897
S'ADV'
p1898
F0.000157
sg698
F1.9e-05
sS'ADP'
p1899
F0.9998229999999999
s(lp1900
(g434
I23
tp1901
atp1902
a(S'katero'
p1903
(dp1904
S'PRON'
p1905
F0.9999990000000001
s(lp1906
(g149
I24
tp1907
atp1908
a(S'moramo'
p1909
(dp1910
S'VERB'
p1911
F1.0
s(lp1912
(g161
I25
tp1913
atp1914
a(S'vsi'
p1915
(dp1916
S'PRON'
p1917
F1.0
s(lp1918
(g450
I26
tp1919
atp1920
a(S'pla\xc4\x8devati'
p1921
(dp1922
S'VERB'
p1923
F1.0
s(lp1924
(g175
I29
tp1925
atp1926
a(S'iz'
p1927
(dp1928
g698
F7e-06
sS'ADP'
p1929
F0.999993
s(lp1930
(g476
I30
tp1931
atp1932
a(S'nacionalnih'
p1933
(dp1934
S'ADJ'
p1935
F1.0
s(lp1936
(g207
I33
tp1937
atp1938
a(S'prora\xc4\x8dunov'
p1939
(dp1940
S'ADJ'
p1941
F0.0
sS'NOUN'
p1942
F0.9999999999999999
s(lp1943
(g199
I34
tp1944
atp1945
a(S'dr\xc5\xbeav'
p1946
(dp1947
S'NOUN'
p1948
F1.0
s(lp1949
(g236
I38
tp1950
atp1951
a(S'\xc4\x8dlanic'
p1952
(dp1953
S'NOUN'
p1954
F1.0
s(lp1955
(g228
I39
tp1956
atp1957
a(g76
(dp1958
g78
F1.0
s(lp1959
(g76
I40
tp1960
atp1961
a(S'odgovarjati'
p1962
(dp1963
S'VERB'
p1964
F1.0
s(lp1965
(g264
I43
tp1966
atp1967
a(S'za'
p1968
(dp1969
S'ADV'
p1970
F0.034806
sg698
F0.000566
sS'ADP'
p1971
F0.964628
s(lp1972
(g271
I44
tp1973
atp1974
a(S'in'
p1975
(dp1976
S'ADV'
p1977
F0.048201
sg698
F0.001021
sS'CONJ'
p1978
F0.950233
sS'NOUN'
p1979
F0.000545
s(lp1980
(g566
I45
tp1981
atp1982
a(S'povrniti'
p1983
(dp1984
S'ADV'
p1985
F0.002469
sS'ADJ'
p1986
F0.00025100000000000003
sS'VERB'
p1987
F0.995625
sS'NOUN'
p1988
F0.0016569999999999998
s(lp1989
tp1990
a(S'nastalo'
p1991
(dp1992
S'VERB'
p1993
F0.004886
sS'ADJ'
p1994
F0.995114
s(lp1995
(g278
I46
tp1996
atp1997
a(S'\xc5\xa1kodo'
p1998
(dp1999
S'NOUN'
p2000
F1.0
s(lp2001
(g292
I49
tp2002
atp2003
a(g78
(dp2004
g78
F1.0
s(lp2005
(g78
I50
tp2006
atp2007
asS'es'
p2008
(lp2009
(S'creemos'
p2010
(dp2011
S'VERB'
p2012
F1.0
s(lp2013
(g14
I2
tp2014
atp2015
a(S'firmemente'
p2016
(dp2017
S'ADV'
p2018
F1.0
s(lp2019
(g21
I1
tp2020
atp2021
a(S'que'
p2022
(dp2023
g698
F2e-06
sS'CONJ'
p2024
F0.999998
s(lp2025
(g30
I3
tp2026
atp2027
a(S'quienes'
p2028
(dp2029
S'CONJ'
p2030
F1.0
s(lp2031
(g44
I5
tp2032
atp2033
a(S'desencadenaron'
p2034
(dp2035
S'VERB'
p2036
F1.0
s(lp2037
(g51
I6
tp2038
atp2039
a(S'una'
p2040
(dp2041
S'DET'
p2042
F1.0
s(lp2043
(g101
I7
tp2044
atp2045
a(S'crisis'
p2046
(dp2047
S'NOUN'
p2048
F1.0
s(lp2049
(g73
I8
tp2050
atp2051
a(S'como'
p2052
(dp2053
S'ADV'
p2054
F0.193293
sS'CONJ'
p2055
F0.8067070000000001
s(lp2056
(g361
I11
tp2057
atp2058
a(S'la'
p2059
(dp2060
S'PRON'
p2061
F0.008235
sS'DET'
p2062
F0.99175
sg698
F0.0
sS'NOUN'
p2063
F1.5e-05
s(lp2064
(g66
I10
tp2065
atp2066
a(S'que'
p2067
(dp2068
g698
F0.0
sS'CONJ'
p2069
F1.0
s(lp2070
(g86
I13
tp2071
atp2072
a(S'nunca'
p2073
(dp2074
S'ADV'
p2075
F1.0
s(lp2076
tp2077
a(S'antes'
p2078
(dp2079
S'ADV'
p2080
F0.999988
sS'NOUN'
p2081
F1.2e-05
s(lp2082
(g405
I18
tp2083
atp2084
a(S'hab\xc3\xadamos'
p2085
(dp2086
S'VERB'
p2087
F1.0
s(lp2088
(g392
I16
tp2089
atp2090
a(S'visto'
p2091
(dp2092
S'VERB'
p2093
F1.0
s(lp2094
(g398
I17
tp2095
atp2096
a(S'y'
p2097
(dp2098
g698
F2.6e-05
sS'CONJ'
p2099
F0.999974
s(lp2100
(g124
I20
tp2101
atp2102
a(S'cuyo'
p2103
(dp2104
S'CONJ'
p2105
F1.0
s(lp2106
(g133
I21
tp2107
atp2108
a(S'coste'
p2109
(dp2110
S'NOUN'
p2111
F1.0
s(lp2112
(g140
I22
tp2113
atp2114
a(S'tenemos'
p2115
(dp2116
S'VERB'
p2117
F1.0
s(lp2118
(g161
I25
tp2119
atp2120
a(S'que'
p2121
(dp2122
g698
F0.0
sS'CONJ'
p2123
F1.0
s(lp2124
(g149
I24
tp2125
atp2126
a(S'pagar'
p2127
(dp2128
S'VERB'
p2129
F1.0
s(lp2130
(g175
I29
tp2131
atp2132
a(S'todos'
p2133
(dp2134
S'ADJ'
p2135
F1.0
s(lp2136
(g450
I26
tp2137
atp2138
a(g101
(dp2139
S'ADP'
p2140
F1.0
s(lp2141
(g462
I28
tp2142
atp2143
a(S'trav\xc3\xa9s'
p2144
(dp2145
S'ADP'
p2146
F1.0
s(lp2147
(g476
I30
tp2148
atp2149
a(S'del'
p2150
(dp2151
S'ADP'
p2152
F1.0
s(lp2153
(g183
I31
tp2154
atp2155
a(S'presupuesto'
p2156
(dp2157
S'VERB'
p2158
F0.0016330000000000001
sS'NOUN'
p2159
F0.998367
s(lp2160
(g199
I34
tp2161
atp2162
a(S'p\xc3\xbablico'
p2163
(dp2164
S'NOUN'
p2165
F0.012772
sS'ADJ'
p2166
F0.987228
s(lp2167
(g207
I33
tp2168
atp2169
a(S'de'
p2170
(dp2171
g698
F0.0
sS'CONJ'
p2172
F0.000947
sS'ADP'
p2173
F0.999053
s(lp2174
(g214
I35
tp2175
atp2176
a(S'nuestros'
p2177
(dp2178
S'PRON'
p2179
F1.0
s(lp2180
(g221
I36
tp2181
atp2182
a(S'estados'
p2183
(dp2184
S'NOUN'
p2185
F1.0
s(lp2186
(g228
I39
tp2187
atp2188
a(S'miembros'
p2189
(dp2190
S'NOUN'
p2191
F1.0
s(lp2192
(g236
I38
tp2193
atp2194
a(g76
(dp2195
g78
F1.0
s(lp2196
(g76
I40
tp2197
atp2198
a(S'deber\xc3\xadan'
p2199
(dp2200
S'VERB'
p2201
F1.0
s(lp2202
(g247
I41
tp2203
atp2204
a(S'compensar'
p2205
(dp2206
S'VERB'
p2207
F1.0
s(lp2208
(g278
I46
tp2209
atp2210
a(S'estas'
p2211
(dp2212
S'PRON'
p2213
F1.0
s(lp2214
(g285
I48
tp2215
atp2216
a(S'p\xc3\xa9rdidas'
p2217
(dp2218
S'NOUN'
p2219
F1.0
s(lp2220
(g292
I49
tp2221
atp2222
a(g78
(dp2223
g78
F1.0
s(lp2224
(g78
I50
tp2225
atp2226
as.