(dp0
S'fr'
p1
(lp2
(S'en'
p3
(dp4
S'PRON'
p5
F0.415611
sS'ADP'
p6
F0.584389
s(lp7
(S'in'
p8
I0
tp9
atp10
a(S'fait'
p11
(dp12
S'ADJ'
p13
F0.025582
sS'VERB'
p14
F0.413504
sS'NOUN'
p15
F0.560913
s(lp16
(S'fact'
p17
I1
tp18
atp19
a(S','
p20
(dp21
S'.'
p22
F1.0
s(lp23
(g20
I2
tp24
atp25
a(S'en'
p26
(dp27
S'PRON'
p28
F0.466692
sS'ADP'
p29
F0.533308
s(lp30
(S'by'
p31
I3
tp32
atp33
a(S'r\xc3\xa9pondant'
p34
(dp35
S'VERB'
p36
F0.879066
sS'NOUN'
p37
F0.120934
s(lp38
tp39
a(S'\xc3\xa0'
p40
(dp41
S'ADP'
p42
F1.0
s(lp43
(S'answering'
p44
I4
tp45
atp46
a(S'votre'
p47
(dp48
S'PRON'
p49
F1.0
s(lp50
(S'your'
p51
I5
tp52
atp53
a(S'question'
p54
(dp55
S'NOUN'
p56
F1.0
s(lp57
(S'question'
p58
I6
tp59
atp60
a(S'comme'
p61
(dp62
S'ADV'
p63
F0.068177
sS'CONJ'
p64
F0.931823
s(lp65
(S'which'
p66
I7
tp67
atp68
a(S'je'
p69
(dp70
S'PRON'
p71
F1.0
s(lp72
(S'i'
p73
I8
tp74
atp75
a(S'viens'
p76
(dp77
S'VERB'
p78
F1.0
s(lp79
(S'just'
p80
I9
tp81
atp82
a(S'de'
p83
(dp84
S'ADP'
p85
F1.0
s(lp86
tp87
a(S'le'
p88
(dp89
S'PRON'
p90
F0.582489
sS'DET'
p91
F0.417511
s(lp92
tp93
a(S'faire'
p94
(dp95
S'VERB'
p96
F1.0
s(lp97
(S'did'
p98
I10
tp99
atp100
a(g20
(dp101
g22
F1.0
s(lp102
(g20
I11
tp103
atp104
a(S'je'
p105
(dp106
S'PRON'
p107
F1.0
s(lp108
(g73
I12
tp109
atp110
a(S'suis'
p111
(dp112
S'VERB'
p113
F1.0
s(lp114
(S'am'
p115
I13
tp116
atp117
a(S's\xc3\xbbr'
p118
(dp119
S'ADJ'
p120
F1.0
s(lp121
(S'sure'
p122
I14
tp123
atp124
a(S'que'
p125
(dp126
S'ADV'
p127
F0.000542
sS'PRON'
p128
F0.220574
sS'CONJ'
p129
F0.778884
s(lp130
(S'that'
p131
I15
tp132
atp133
a(S'nous'
p134
(dp135
S'PRON'
p136
F1.0
s(lp137
(S'we'
p138
I16
tp139
atp140
a(S'pourrons'
p141
(dp142
S'VERB'
p143
F1.0
s(lp144
(S'can'
p145
I17
tp146
atp147
a(S'maintenant'
p148
(dp149
S'ADV'
p150
F0.999861
sS'VERB'
p151
F0.000139
s(lp152
(S'now'
p153
I18
tp154
atp155
a(S'donner'
p156
(dp157
S'VERB'
p158
F1.0
s(lp159
(S'provide'
p160
I19
tp161
atp162
a(S'les'
p163
(dp164
S'PRON'
p165
F3.5e-05
sS'DET'
p166
F0.999943
sS'ADP'
p167
F2.1e-05
s(lp168
tp169
a(S'faits'
p170
(dp171
S'ADJ'
p172
F0.012975
sS'VERB'
p173
F2.2e-05
sS'NOUN'
p174
F0.987002
s(lp175
(S'facts'
p176
I20
tp177
atp178
a(S'qui'
p179
(dp180
S'PRON'
p181
F1.0
s(lp182
(S'which'
p183
I21
tp184
atp185
a(S'permettront'
p186
(dp187
S'VERB'
p188
F1.0
s(lp189
(S'will'
p190
I22
tp191
atp192
a(S'de'
p193
(dp194
S'ADP'
p195
F1.0
s(lp196
tp197
a(S'corriger'
p198
(dp199
S'VERB'
p200
F1.0
s(lp201
(S'correct'
p202
I23
tp203
atp204
a(S'ces'
p205
(dp206
S'PRON'
p207
F1.0
s(lp208
(S'these'
p209
I24
tp210
atp211
a(S'malentendus'
p212
(dp213
S'NOUN'
p214
F1.0
s(lp215
(S'misunderstandings'
p216
I25
tp217
atp218
a(S'dans'
p219
(dp220
S'NOUN'
p221
F6e-06
sS'ADP'
p222
F0.999994
s(lp223
(S'in'
p224
I26
tp225
atp226
a(S'la'
p227
(dp228
S'PRON'
p229
F9.8e-05
sS'DET'
p230
F0.999901
sS'NOUN'
p231
F0.0
s(lp232
(S'the'
p233
I27
tp234
atp235
a(S'presse'
p236
(dp237
S'VERB'
p238
F0.000121
sS'NOUN'
p239
F0.999879
s(lp240
(S'media'
p241
I28
tp242
atp243
a(S'auxquels'
p244
(dp245
S'PRON'
p246
F1.0
s(lp247
(S'which'
p248
I29
tp249
atp250
a(S'm.'
p251
(dp252
S'X'
p253
F0.006972
sS'VERB'
p254
F0.9880009999999999
sS'ADJ'
p255
F0.004391
sS'NOUN'
p256
F0.000636
s(lp257
(S'mr'
p258
I34
tp259
atp260
a(S'claeys'
p261
(dp262
S'VERB'
p263
F0.000215
sS'NOUN'
p264
F0.999785
s(lp265
(S'claeys'
p266
I35
tp267
atp268
a(S'a'
p269
(dp270
S'VERB'
p271
F1.0
s(lp272
(S'were'
p273
I30
tp274
atp275
a(S'fait'
p276
(dp277
S'NOUN'
p278
F0.015843
sS'VERB'
p279
F0.9373900000000001
sS'ADJ'
p280
F0.046767
s(lp281
tp282
a(S'allusion'
p283
(dp284
S'NOUN'
p285
F1.0
s(lp286
(S'referred'
p287
I31
tp288
atp289
a(g22
(dp290
g22
F1.0
s(lp291
(g22
I36
tp292
atp293
asS'en'
p294
(lp295
(g8
(dp296
S'ADV'
p297
F0.000791
sS'PRT'
p298
F0.0
sS'ADP'
p299
F0.999209
s(lp300
(g8
I0
tp301
atp302
a(g17
(dp303
S'NOUN'
p304
F1.0
s(lp305
(g17
I1
tp306
atp307
a(g20
(dp308
g22
F1.0
s(lp309
(g20
I2
tp310
atp311
a(g31
(dp312
S'ADV'
p313
F0.001629
sS'NOUN'
p314
F0.0
sS'ADP'
p315
F0.99837
s(lp316
(g31
I3
tp317
atp318
a(g44
(dp319
S'VERB'
p320
F0.99748
sS'NOUN'
p321
F0.00252
s(lp322
(g44
I4
tp323
atp324
a(g51
(dp325
S'PRON'
p326
F1.0
s(lp327
(g51
I5
tp328
atp329
a(g58
(dp330
S'VERB'
p331
F2.4e-05
sS'NOUN'
p332
F0.999976
s(lp333
(g58
I6
tp334
atp335
a(g66
(dp336
S'DET'
p337
F1.0
s(lp338
(g66
I7
tp339
atp340
a(g73
(dp341
g253
F2e-06
sS'NOUN'
p342
F0.999998
s(lp343
(g73
I8
tp344
atp345
a(g80
(dp346
S'ADV'
p347
F0.999343
sS'ADJ'
p348
F3e-06
sS'NOUN'
p349
F0.000654
s(lp350
(g80
I9
tp351
atp352
a(g98
(dp353
S'VERB'
p354
F1.0
s(lp355
(g98
I10
tp356
atp357
a(g20
(dp358
g22
F1.0
s(lp359
(g20
I11
tp360
atp361
a(g73
(dp362
g253
F0.004767
sS'NOUN'
p363
F0.995233
s(lp364
(g73
I12
tp365
atp366
a(g115
(dp367
S'ADV'
p368
F0.009288
sS'VERB'
p369
F0.990712
s(lp370
(g115
I13
tp371
atp372
a(g122
(dp373
S'ADV'
p374
F0.034737
sS'ADJ'
p375
F0.965263
s(lp376
(g122
I14
tp377
atp378
a(g131
(dp379
S'ADV'
p380
F0.001298
sS'DET'
p381
F0.000995
sS'ADP'
p382
F0.997707
s(lp383
(g131
I15
tp384
atp385
a(g138
(dp386
S'PRON'
p387
F1.0
s(lp388
(g138
I16
tp389
atp390
a(g145
(dp391
S'VERB'
p392
F1.0
sS'NOUN'
p393
F0.0
s(lp394
(g145
I17
tp395
atp396
a(g153
(dp397
S'ADV'
p398
F1.0
sS'NOUN'
p399
F0.0
sS'ADP'
p400
F0.0
s(lp401
(g153
I18
tp402
atp403
a(g160
(dp404
S'VERB'
p405
F1.0
s(lp406
(g160
I19
tp407
atp408
a(g176
(dp409
S'NOUN'
p410
F1.0
s(lp411
(g176
I20
tp412
atp413
a(g183
(dp414
S'DET'
p415
F1.0
s(lp416
(g183
I21
tp417
atp418
a(g190
(dp419
S'VERB'
p420
F0.999996
sS'NOUN'
p421
F4e-06
s(lp422
(g190
I22
tp423
atp424
a(g202
(dp425
S'VERB'
p426
F0.999996
sS'ADJ'
p427
F4e-06
s(lp428
(g202
I23
tp429
atp430
a(g209
(dp431
S'NOUN'
p432
F3e-06
sS'DET'
p433
F0.999997
s(lp434
(g209
I24
tp435
atp436
a(g216
(dp437
S'NOUN'
p438
F1.0
s(lp439
(g216
I25
tp440
atp441
a(g224
(dp442
S'ADV'
p443
F0.000295
sS'PRT'
p444
F0.000234
sS'ADP'
p445
F0.999471
s(lp446
(g224
I26
tp447
atp448
a(g233
(dp449
S'NOUN'
p450
F1e-05
sS'DET'
p451
F0.99999
s(lp452
(g233
I27
tp453
atp454
a(g241
(dp455
S'NOUN'
p456
F1.0
s(lp457
(g241
I28
tp458
atp459
a(g248
(dp460
S'DET'
p461
F1.0
s(lp462
(g248
I29
tp463
atp464
a(g273
(dp465
S'VERB'
p466
F1.0
s(lp467
(g273
I30
tp468
atp469
a(g287
(dp470
S'VERB'
p471
F1.0
s(lp472
(g287
I31
tp473
atp474
a(S'to'
p475
(dp476
S'ADV'
p477
F6.7e-05
sS'PRT'
p478
F0.999901
sS'ADP'
p479
F3.2e-05
s(lp480
(g475
I32
tp481
atp482
a(S'by'
p483
(dp484
S'ADV'
p485
F0.003488
sS'NOUN'
p486
F6.7e-05
sS'ADP'
p487
F0.996445
s(lp488
(g483
I33
tp489
atp490
a(g258
(dp491
S'ADJ'
p492
F0.008955
sS'NOUN'
p493
F0.991046
s(lp494
(g258
I34
tp495
atp496
a(g266
(dp497
S'VERB'
p498
F0.003768
sS'NOUN'
p499
F0.995761
sS'NPS'
p500
F0.000471
s(lp501
(g266
I35
tp502
atp503
a(g22
(dp504
g22
F1.0
s(lp505
(g22
I36
tp506
atp507
asS'nl'
p508
(lp509
(S'ik'
p510
(dp511
S'PRON'
p512
F0.999981
sS'NOUN'
p513
F1.9e-05
s(lp514
(g73
I12
tp515
atp516
a(S'ben'
p517
(dp518
S'VERB'
p519
F1.0
s(lp520
(g115
I13
tp521
atp522
a(S'er'
p523
(dp524
S'ADV'
p525
F1.0
s(lp526
tp527
a(S'zeker'
p528
(dp529
S'ADV'
p530
F0.019712
sS'PRON'
p531
F0.001495
sS'VERB'
p532
F0.011228
sS'ADJ'
p533
F0.967565
s(lp534
(g122
I14
tp535
atp536
a(S'van'
p537
(dp538
S'ADP'
p539
F1.0
s(lp540
tp541
a(S'dat'
p542
(dp543
S'PRON'
p544
F0.8701899999999999
sS'CONJ'
p545
F0.12981
s(lp546
(g131
I15
tp547
atp548
a(S'met'
p549
(dp550
S'ADP'
p551
F1.0
s(lp552
(g31
I3
tp553
atp554
a(S'het'
p555
(dp556
S'PRON'
p557
F0.40481500000000004
sS'DET'
p558
F0.595184
s(lp559
tp560
a(S'beantwoorden'
p561
(dp562
S'VERB'
p563
F0.404383
sS'NOUN'
p564
F0.595617
s(lp565
(g44
I4
tp566
atp567
a(S'van'
p568
(dp569
S'ADP'
p570
F1.0
s(lp571
(g8
I0
tp572
atp573
a(S'uw'
p574
(dp575
S'PRON'
p576
F1.0
s(lp577
(g51
I5
tp578
atp579
a(S'vraag'
p580
(dp581
S'VERB'
p582
F0.0
sS'NOUN'
p583
F1.0
s(lp584
(g58
I6
tp585
atp586
a(S'-'
p587
(dp588
g22
F1.0
s(lp589
(g20
I2
tp590
atp591
a(S'wat'
p592
(dp593
S'ADV'
p594
F0.001015
sS'PRON'
p595
F0.998985
s(lp596
(g66
I7
tp597
atp598
a(S'ik'
p599
(dp600
S'PRON'
p601
F0.999995
sS'NOUN'
p602
F5e-06
s(lp603
(g73
I8
tp604
atp605
a(S'zojuist'
p606
(dp607
S'ADV'
p608
F1.0
s(lp609
(g80
I9
tp610
atp611
a(S'heb'
p612
(dp613
S'VERB'
p614
F1.0
s(lp615
tp616
a(S'gedaan'
p617
(dp618
S'VERB'
p619
F0.999276
sS'ADJ'
p620
F0.000724
s(lp621
(g98
I10
tp622
atp623
a(S'-de'
p624
(dp625
S'NOUN'
p626
F0.031005
sS'ADJ'
p627
F0.968995
s(lp628
(g266
I35
tp629
atp630
a(S'misvattingen'
p631
(dp632
S'NOUN'
p633
F1.0
s(lp634
(g216
I25
tp635
atp636
a(S'in'
p637
(dp638
S'ADV'
p639
F0.003438
sS'VERB'
p640
F2e-06
sS'ADP'
p641
F0.99656
s(lp642
(g224
I26
tp643
atp644
a(S'de'
p645
(dp646
S'DET'
p647
F1.0
s(lp648
(g233
I27
tp649
atp650
a(S'media'
p651
(dp652
S'NOUN'
p653
F1.0
s(lp654
(g241
I28
tp655
atp656
a(S'waarop'
p657
(dp658
S'ADV'
p659
F1.0
s(lp660
(g248
I29
tp661
atp662
a(S'de'
p663
(dp664
S'DET'
p665
F1.0
s(lp666
tp667
a(S'heer'
p668
(dp669
S'NOUN'
p670
F1.0
s(lp671
(g258
I34
tp672
atp673
a(S'claeys'
p674
(dp675
S'NOUN'
p676
F0.389136
sS'ADJ'
p677
F0.610863
s(lp678
(g266
I35
tp679
atp680
a(S'doelt'
p681
(dp682
S'VERB'
p683
F1.0
s(lp684
tp685
a(g20
(dp686
g22
F1.0
s(lp687
(g20
I11
tp688
atp689
a(S'worden'
p690
(dp691
S'VERB'
p692
F0.999999
sS'NOUN'
p693
F1e-06
s(lp694
(g160
I19
tp695
atp696
a(S'gecorrigeerd'
p697
(dp698
S'VERB'
p699
F1.0
s(lp700
(g266
I35
tp701
atp702
a(g22
(dp703
g22
F1.0
s(lp704
(g22
I36
tp705
atp706
asS'de'
p707
(lp708
(S'im'
p709
(dp710
S'ADP'
p711
F1.0
s(lp712
(g8
I0
tp713
atp714
a(S'\xc3\x9cbrigen'
p715
(dp716
S'NOUN'
p717
F1.0
s(lp718
(g17
I1
tp719
atp720
a(S'bin'
p721
(dp722
S'VERB'
p723
F1.0
s(lp724
(g115
I13
tp725
atp726
a(S'ich'
p727
(dp728
S'PRON'
p729
F1.0
s(lp730
(g73
I12
tp731
atp732
a(S'sicher'
p733
(dp734
S'PRT'
p735
F0.022216
sS'ADJ'
p736
F0.9771
s(lp737
(g122
I14
tp738
atp739
a(g20
(dp740
g22
F1.0
s(lp741
(g20
I2
tp742
atp743
a(S'dass'
p744
(dp745
S'CONJ'
p746
F1.0
s(lp747
(g131
I15
tp748
atp749
a(S'wir'
p750
(dp751
S'PRON'
p752
F1.0
s(lp753
(g138
I16
tp754
atp755
a(S'durch'
p756
(dp757
S'PRT'
p758
F0.001718
sS'ADP'
p759
F0.998121
s(lp760
(g31
I3
tp761
atp762
a(S'die'
p763
(dp764
S'PRON'
p765
F5.1e-05
sS'DET'
p766
F0.999923
s(lp767
(g44
I4
tp768
atp769
a(S'antwort'
p770
(dp771
S'ADJ'
p772
F0.000133
sS'NOUN'
p773
F0.999755
s(lp774
tp775
a(S'auf'
p776
(dp777
S'PRT'
p778
F0.000502
sS'ADP'
p779
F0.99949
s(lp780
(g44
I4
tp781
atp782
a(S'ihre'
p783
(dp784
S'PRON'
p785
F1.0
s(lp786
(g51
I5
tp787
atp788
a(S'frage'
p789
(dp790
S'VERB'
p791
F1.0
s(lp792
(g58
I6
tp793
atp794
a(g20
(dp795
g22
F1.0
s(lp796
tp797
a(S'die'
p798
(dp799
S'PRON'
p800
F0.999622
sS'DET'
p801
F0.000205
s(lp802
(g66
I7
tp803
atp804
a(S'ich'
p805
(dp806
S'PRON'
p807
F1.0
s(lp808
(g73
I8
tp809
atp810
a(S'ihnen'
p811
(dp812
S'PRON'
p813
F1.0
s(lp814
tp815
a(S'gerade'
p816
(dp817
S'ADV'
p818
F0.979801
sS'ADJ'
p819
F0.011182
s(lp820
(g80
I9
tp821
atp822
a(S'gegeben'
p823
(dp824
S'VERB'
p825
F0.995246
sS'ADJ'
p826
F0.004754
s(lp827
tp828
a(S'habe'
p829
(dp830
S'VERB'
p831
F1.0
s(lp832
(g98
I10
tp833
atp834
a(g20
(dp835
g22
F1.0
s(lp836
(g20
I11
tp837
atp838
a(S'nun'
p839
(dp840
S'ADV'
p841
F0.872371
sS'CONJ'
p842
F0.127629
s(lp843
(g153
I18
tp844
atp845
a(S'den'
p846
(dp847
S'PRON'
p848
F0.000693
sS'DET'
p849
F0.999301
s(lp850
(g160
I19
tp851
atp852
a(S'sachverhalt'
p853
(dp854
S'ADJ'
p855
F0.035818
sS'NOUN'
p856
F0.947205
s(lp857
(g176
I20
tp858
atp859
a(S'aufkl\xc3\xa4ren'
p860
(dp861
S'VERB'
p862
F1.0
s(lp863
(g216
I25
tp864
atp865
a(S'und'
p866
(dp867
S'CONJ'
p868
F1.0
s(lp869
(g183
I21
tp870
atp871
a(S'so'
p872
(dp873
S'ADV'
p874
F0.999907
sS'PRON'
p875
F9.3e-05
s(lp876
(g202
I23
tp877
atp878
a(S'dieses'
p879
(dp880
S'PRON'
p881
F1.0
s(lp882
(g209
I24
tp883
atp884
a(S'missverst\xc3\xa4ndnis'
p885
(dp886
S'ADJ'
p887
F0.000121
sS'NOUN'
p888
F0.999809
s(lp889
tp890
a(S'in'
p891
(dp892
S'ADP'
p893
F1.0
s(lp894
(g224
I26
tp895
atp896
a(S'den'
p897
(dp898
S'PRON'
p899
F0.000152
sS'DET'
p900
F0.999843
s(lp901
(g233
I27
tp902
atp903
a(S'medien'
p904
(dp905
S'ADJ'
p906
F0.041075
sS'NOUN'
p907
F0.933723
s(lp908
(g241
I28
tp909
atp910
a(S'ausr\xc3\xa4umen'
p911
(dp912
S'VERB'
p913
F1.0
s(lp914
(g216
I25
tp915
atp916
a(S'k\xc3\xb6nnen'
p917
(dp918
S'VERB'
p919
F0.999989
s(lp920
(g145
I17
tp921
atp922
a(g20
(dp923
g22
F1.0
s(lp924
tp925
a(S'auf'
p926
(dp927
S'PRT'
p928
F0.000927
sS'ADP'
p929
F0.999029
s(lp930
(g475
I32
tp931
atp932
a(S'die'
p933
(dp934
S'PRON'
p935
F0.027597
sS'DET'
p936
F0.94746
s(lp937
(g248
I29
tp938
atp939
a(S'sich'
p940
(dp941
S'PRON'
p942
F1.0
s(lp943
(g287
I31
tp944
atp945
a(S'herr'
p946
(dp947
S'NOUN'
p948
F0.970728
s(lp949
(g258
I34
tp950
atp951
a(S'claeys'
p952
(dp953
S'ADJ'
p954
F0.002285
sS'NOUN'
p955
F0.997094
s(lp956
tp957
a(S'bezog'
p958
(dp959
S'VERB'
p960
F1.0
s(lp961
(g266
I35
tp962
atp963
a(g22
(dp964
g22
F1.0
s(lp965
(g22
I36
tp966
atp967
asS'it'
p968
(lp969
(S'in'
p970
(dp971
S'ADP'
p972
F1.0
s(lp973
(g8
I0
tp974
atp975
a(S'realt\xc3\xa0'
p976
(dp977
S'NOUN'
p978
F1.0
s(lp979
(g17
I1
tp980
atp981
a(g20
(dp982
g22
F1.0
s(lp983
(g20
I2
tp984
atp985
a(S'rispondendole'
p986
(dp987
S'VERB'
p988
F1.0
s(lp989
(g44
I4
tp990
atp991
a(S'come'
p992
(dp993
S'PRON'
p994
F0.004486
sS'CONJ'
p995
F0.970755
sS'NOUN'
p996
F0.001035
sS'ADP'
p997
F0.023724
s(lp998
(g66
I7
tp999
atp1000
a(S'ho'
p1001
(dp1002
S'VERB'
p1003
F1.0
s(lp1004
(g73
I8
tp1005
atp1006
a(S'appena'
p1007
(dp1008
S'ADV'
p1009
F1.0
s(lp1010
(g80
I9
tp1011
atp1012
a(S'fatto'
p1013
(dp1014
S'VERB'
p1015
F0.841159
sS'NOUN'
p1016
F0.158841
s(lp1017
(g98
I10
tp1018
atp1019
a(g20
(dp1020
g22
F1.0
s(lp1021
(g20
I11
tp1022
atp1023
a(S'sono'
p1024
(dp1025
S'VERB'
p1026
F0.996814
sS'NOUN'
p1027
F0.003186
s(lp1028
(g115
I13
tp1029
atp1030
a(S'sicuro'
p1031
(dp1032
S'ADV'
p1033
F0.270965
sS'NOUN'
p1034
F0.015384
sS'ADJ'
p1035
F0.713651
s(lp1036
(g122
I14
tp1037
atp1038
a(S'che'
p1039
(dp1040
S'PRON'
p1041
F0.797875
sS'CONJ'
p1042
F0.200017
sS'ADJ'
p1043
F0.002108
s(lp1044
(g131
I15
tp1045
atp1046
a(S'ora'
p1047
(dp1048
S'ADV'
p1049
F0.996585
sS'CONJ'
p1050
F0.000347
sS'VERB'
p1051
F0.001466
sS'NOUN'
p1052
F0.001602
s(lp1053
(g153
I18
tp1054
atp1055
a(S'possiamo'
p1056
(dp1057
S'VERB'
p1058
F0.9999990000000001
s(lp1059
(g145
I17
tp1060
atp1061
a(S'fornire'
p1062
(dp1063
S'VERB'
p1064
F1.0
s(lp1065
(g160
I19
tp1066
atp1067
a(S'fatti'
p1068
(dp1069
S'VERB'
p1070
F0.893286
sS'NOUN'
p1071
F0.106715
s(lp1072
(g176
I20
tp1073
atp1074
a(S'che'
p1075
(dp1076
S'PRON'
p1077
F0.972418
sS'CONJ'
p1078
F0.027253
sS'ADJ'
p1079
F0.00033
s(lp1080
(g183
I21
tp1081
atp1082
a(S'correggeranno'
p1083
(dp1084
S'VERB'
p1085
F1.0
s(lp1086
(g202
I23
tp1087
atp1088
a(g73
(dp1089
S'DET'
p1090
F1.0
s(lp1091
(g209
I24
tp1092
atp1093
a(S'malintesi'
p1094
(dp1095
S'ADJ'
p1096
F0.132954
sS'NOUN'
p1097
F0.867046
s(lp1098
(g216
I25
tp1099
atp1100
a(S'relativi'
p1101
(dp1102
S'ADJ'
p1103
F1.0
s(lp1104
(g224
I26
tp1105
atp1106
a(S'ai'
p1107
(dp1108
S'NOUN'
p1109
F0.000103
sS'ADP'
p1110
F0.999897
s(lp1111
(g233
I27
tp1112
atp1113
a(S'mezzi'
p1114
(dp1115
S'ADJ'
p1116
F0.025409
sS'NOUN'
p1117
F0.974591
s(lp1118
tp1119
a(S'di'
p1120
(dp1121
S'CONJ'
p1122
F4e-06
sS'ADP'
p1123
F0.999996
s(lp1124
tp1125
a(S'comunicazione'
p1126
(dp1127
S'NOUN'
p1128
F1.0
s(lp1129
(g241
I28
tp1130
atp1131
a(S'cui'
p1132
(dp1133
S'PRON'
p1134
F1.0
s(lp1135
(g248
I29
tp1136
atp1137
a(S'si'
p1138
(dp1139
S'PRON'
p1140
F1.0
sS'NOUN'
p1141
F0.0
s(lp1142
(g273
I30
tp1143
atp1144
a(S'riferiva'
p1145
(dp1146
S'VERB'
p1147
F1.0
s(lp1148
(g287
I31
tp1149
atp1150
a(S"l'"
p1151
(dp1152
S'NOUN'
p1153
F0.00427
sS'VERB'
p1154
F0.958229
sS'ADJ'
p1155
F0.0375
s(lp1156
tp1157
a(S'onorevole'
p1158
(dp1159
S'NOUN'
p1160
F0.039101
sS'ADJ'
p1161
F0.960899
s(lp1162
(g258
I34
tp1163
atp1164
a(S'claeys'
p1165
(dp1166
S'NOUN'
p1167
F1.0
s(lp1168
(g266
I35
tp1169
atp1170
a(g22
(dp1171
g22
F1.0
s(lp1172
(g22
I36
tp1173
atp1174
asS'sk'
p1175
(lp1176
(S'potom'
p1177
(dp1178
S'ADV'
p1179
F0.970395
sg253
F0.024764
sS'NOUN'
p1180
F0.004841000000000001
s(lp1181
(g17
I1
tp1182
atp1183
a(g20
(dp1184
g22
F1.0
s(lp1185
(g20
I2
tp1186
atp1187
a(S'\xc4\x8do'
p1188
(dp1189
S'PRON'
p1190
F0.442318
sS'CONJ'
p1191
F0.527899
sg253
F0.029784
s(lp1192
(g66
I7
tp1193
atp1194
a(S'som'
p1195
(dp1196
S'VERB'
p1197
F1.0
s(lp1198
(g73
I8
tp1199
atp1200
a(S'pr\xc3\xa1ve'
p1201
(dp1202
S'ADV'
p1203
F0.466603
sg253
F0.530197
sS'NOUN'
p1204
F0.0032
s(lp1205
(g80
I9
tp1206
atp1207
a(S'odpovedal'
p1208
(dp1209
S'VERB'
p1210
F1.0
s(lp1211
tp1212
a(S'na'
p1213
(dp1214
g253
F1.3000000000000001e-05
sS'CONJ'
p1215
F1.4e-05
sS'ADP'
p1216
F0.99997
sS'PRT'
p1217
F3e-06
s(lp1218
(g44
I4
tp1219
atp1220
a(S'va\xc5\xa1u'
p1221
(dp1222
S'PRON'
p1223
F1.0
s(lp1224
(g51
I5
tp1225
atp1226
a(S'ot\xc3\xa1zku'
p1227
(dp1228
S'NOUN'
p1229
F1.0
s(lp1230
(g58
I6
tp1231
atp1232
a(g20
(dp1233
g22
F1.0
s(lp1234
(g20
I11
tp1235
atp1236
a(S'som'
p1237
(dp1238
S'VERB'
p1239
F1.0
s(lp1240
(g73
I12
tp1241
atp1242
a(S'presved\xc4\x8den\xc3\xbd'
p1243
(dp1244
S'VERB'
p1245
F1.0
s(lp1246
tp1247
a(g20
(dp1248
g22
F1.0
s(lp1249
(g122
I14
tp1250
atp1251
a(S'\xc5\xbee'
p1252
(dp1253
g253
F0.000621
sS'CONJ'
p1254
F0.999378
s(lp1255
(g131
I15
tp1256
atp1257
a(S'teraz'
p1258
(dp1259
S'ADV'
p1260
F1.0
s(lp1261
(g153
I18
tp1262
atp1263
a(S'm\xc3\xb4\xc5\xbeeme'
p1264
(dp1265
S'VERB'
p1266
F1.0
s(lp1267
(g145
I17
tp1268
atp1269
a(S'poskytn\xc3\xba\xc5\xa5'
p1270
(dp1271
S'VERB'
p1272
F1.0
s(lp1273
(g160
I19
tp1274
atp1275
a(S'fakty'
p1276
(dp1277
S'NOUN'
p1278
F1.0
s(lp1279
(g176
I20
tp1280
atp1281
a(g20
(dp1282
g22
F1.0
s(lp1283
tp1284
a(S'ktor\xc3\xa9'
p1285
(dp1286
S'PRON'
p1287
F1.0
s(lp1288
(g183
I21
tp1289
atp1290
a(S'napravia'
p1291
(dp1292
S'VERB'
p1293
F1.0
s(lp1294
(g202
I23
tp1295
atp1296
a(S'tieto'
p1297
(dp1298
S'PRON'
p1299
F1.0
s(lp1300
(g209
I24
tp1301
atp1302
a(S'nedorozumenia'
p1303
(dp1304
S'NOUN'
p1305
F1.0
s(lp1306
(g216
I25
tp1307
atp1308
a(S'v'
p1309
(dp1310
g253
F0.000116
sS'ADP'
p1311
F0.999885
s(lp1312
(g224
I26
tp1313
atp1314
a(S'm\xc3\xa9di\xc3\xa1ch'
p1315
(dp1316
S'NOUN'
p1317
F1.0
s(lp1318
(g241
I28
tp1319
atp1320
a(g20
(dp1321
g22
F1.0
s(lp1322
tp1323
a(S'na'
p1324
(dp1325
g253
F5.5e-05
sS'CONJ'
p1326
F0.000706
sS'ADP'
p1327
F0.999218
sS'PRT'
p1328
F2.1e-05
s(lp1329
(g475
I32
tp1330
atp1331
a(S'ktor\xc3\xa9'
p1332
(dp1333
S'PRON'
p1334
F1.0
s(lp1335
(g248
I29
tp1336
atp1337
a(S'pouk\xc3\xa1zal'
p1338
(dp1339
S'VERB'
p1340
F1.0
s(lp1341
(g287
I31
tp1342
atp1343
a(S'p\xc3\xa1n'
p1344
(dp1345
S'NOUN'
p1346
F1.0
s(lp1347
(g258
I34
tp1348
atp1349
a(S'claeys'
p1350
(dp1351
g253
F0.753763
sS'NOUN'
p1352
F0.24623799999999998
s(lp1353
(g266
I35
tp1354
atp1355
a(g22
(dp1356
g22
F1.0
s(lp1357
(g22
I36
tp1358
atp1359
asS'pl'
p1360
(lp1361
(S'w'
p1362
(dp1363
S'ADJ'
p1364
F4e-06
sS'NOUN'
p1365
F1.1e-05
sS'ADP'
p1366
F0.999984
sg253
F1e-06
s(lp1367
(g8
I0
tp1368
atp1369
a(S'rzeczywisto\xc5\x9bci'
p1370
(dp1371
S'NOUN'
p1372
F1.0
s(lp1373
(g17
I1
tp1374
atp1375
a(g20
(dp1376
g253
F0.0
sg22
F1.0
s(lp1377
(g20
I2
tp1378
atp1379
a(S'udzielaj\xc4\x85c'
p1380
(dp1381
S'VERB'
p1382
F1.0
s(lp1383
(g44
I4
tp1384
atp1385
a(S'odpowiedzi'
p1386
(dp1387
S'NOUN'
p1388
F1.0
s(lp1389
tp1390
a(S'na'
p1391
(dp1392
S'PRT'
p1393
F1e-05
sS'VERB'
p1394
F0.00021
sS'NOUN'
p1395
F3.4e-05
sS'ADP'
p1396
F0.999742
sg253
F4e-06
s(lp1397
(g44
I4
tp1398
atp1399
a(S'zadane'
p1400
(dp1401
S'VERB'
p1402
F0.999504
sS'ADJ'
p1403
F0.000496
s(lp1404
tp1405
a(S'przed'
p1406
(dp1407
S'ADP'
p1408
F1.0
s(lp1409
tp1410
a(S'chwil\xc4\x85'
p1411
(dp1412
S'NOUN'
p1413
F1.0
s(lp1414
(g80
I9
tp1415
atp1416
a(S'pytanie'
p1417
(dp1418
S'VERB'
p1419
F0.000587
sS'NOUN'
p1420
F0.9994130000000001
s(lp1421
(g58
I6
tp1422
atp1423
a(g20
(dp1424
g253
F0.0
sg22
F1.0
s(lp1425
(g20
I11
tp1426
atp1427
a(S'jestem'
p1428
(dp1429
S'VERB'
p1430
F1.0
s(lp1431
(g115
I13
tp1432
atp1433
a(S'pewien'
p1434
(dp1435
S'ADJ'
p1436
F1.0
s(lp1437
tp1438
a(g20
(dp1439
g253
F0.0
sg22
F1.0
s(lp1440
(g122
I14
tp1441
atp1442
a(S'\xc5\xbce'
p1443
(dp1444
S'PRT'
p1445
F0.000477
sS'CONJ'
p1446
F0.999523
s(lp1447
(g131
I15
tp1448
atp1449
a(S'jeste\xc5\x9bmy'
p1450
(dp1451
S'VERB'
p1452
F1.0
s(lp1453
(g138
I16
tp1454
atp1455
a(g1362
(dp1456
S'ADJ'
p1457
F0.0
sg253
F0.0
sS'NOUN'
p1458
F1e-06
sS'ADP'
p1459
F0.9999990000000001
s(lp1460
(g224
I26
tp1461
atp1462
a(S'stanie'
p1463
(dp1464
S'VERB'
p1465
F7.7e-05
sS'NOUN'
p1466
F0.999923
s(lp1467
(g145
I17
tp1468
atp1469
a(S'przedstawi\xc4\x87'
p1470
(dp1471
S'VERB'
p1472
F1.0
s(lp1473
(g160
I19
tp1474
atp1475
a(S'fakty'
p1476
(dp1477
S'NOUN'
p1478
F1.0
s(lp1479
(g176
I20
tp1480
atp1481
a(g20
(dp1482
g253
F0.0
sg22
F1.0
s(lp1483
tp1484
a(S'kt\xc3\xb3re'
p1485
(dp1486
S'ADJ'
p1487
F1.0000009999999997
s(lp1488
(g183
I21
tp1489
atp1490
a(S'skoryguj\xc4\x85'
p1491
(dp1492
S'ADJ'
p1493
F2e-06
sS'VERB'
p1494
F0.9985559999999998
sS'NOUN'
p1495
F0.0014409999999999998
s(lp1496
(g266
I35
tp1497
atp1498
a(S'b\xc5\x82\xc4\x99dne'
p1499
(dp1500
S'ADJ'
p1501
F1.0000010000000001
s(lp1502
(g266
I35
tp1503
atp1504
a(S'informacje'
p1505
(dp1506
S'NOUN'
p1507
F1.000001
s(lp1508
(g266
I35
tp1509
atp1510
a(S'podane'
p1511
(dp1512
S'VERB'
p1513
F1.0
s(lp1514
(g266
I35
tp1515
atp1516
a(S'przez'
p1517
(dp1518
S'ADP'
p1519
F1.0
s(lp1520
(g233
I27
tp1521
atp1522
a(S'media'
p1523
(dp1524
S'NOUN'
p1525
F1.0
s(lp1526
(g241
I28
tp1527
atp1528
a(g20
(dp1529
g253
F0.0
sg22
F1.0
s(lp1530
tp1531
a(S'do'
p1532
(dp1533
g253
F1e-05
sS'NOUN'
p1534
F2.2e-05
sS'ADP'
p1535
F0.999968
s(lp1536
(g216
I25
tp1537
atp1538
a(S'kt\xc3\xb3rych'
p1539
(dp1540
S'ADJ'
p1541
F1.0
s(lp1542
(g248
I29
tp1543
atp1544
a(S'odwo\xc5\x82ywa\xc5\x82'
p1545
(dp1546
S'VERB'
p1547
F1.0
s(lp1548
tp1549
a(S'si\xc4\x99'
p1550
(dp1551
S'PRT'
p1552
F1.0
s(lp1553
(g287
I31
tp1554
atp1555
a(S'przed'
p1556
(dp1557
S'ADP'
p1558
F1.0
s(lp1559
(g266
I35
tp1560
atp1561
a(S'chwil\xc4\x85'
p1562
(dp1563
S'NOUN'
p1564
F1.0
s(lp1565
(g266
I35
tp1566
atp1567
a(S'pan'
p1568
(dp1569
g253
F4e-06
sS'NOUN'
p1570
F0.999996
s(lp1571
(g258
I34
tp1572
atp1573
a(S'pose\xc5\x82'
p1574
(dp1575
S'NOUN'
p1576
F1.0000000000000002
s(lp1577
tp1578
a(S'claeys'
p1579
(dp1580
S'ADV'
p1581
F0.001634
sS'ADJ'
p1582
F0.00011799999999999998
sS'VERB'
p1583
F0.003473
sS'NOUN'
p1584
F0.9947699999999999
sg253
F6e-06
s(lp1585
(g266
I35
tp1586
atp1587
a(g22
(dp1588
g22
F1.0
s(lp1589
(g22
I36
tp1590
atp1591
asS'sl'
p1592
(lp1593
(S's'
p1594
(dp1595
S'VERB'
p1596
F1.7e-05
sS'NOUN'
p1597
F2.9e-05
sS'ADP'
p1598
F0.999954
s(lp1599
(g8
I0
tp1600
atp1601
a(S'tem'
p1602
(dp1603
S'ADV'
p1604
F0.000117
sS'PRON'
p1605
F0.999618
sS'NOUN'
p1606
F0.000263
s(lp1607
tp1608
a(S'ko'
p1609
(dp1610
S'CONJ'
p1611
F1.0
s(lp1612
(g66
I7
tp1613
atp1614
a(S'sem'
p1615
(dp1616
S'ADV'
p1617
F0.005534
sS'PRT'
p1618
F0.00106
sS'VERB'
p1619
F0.993406
s(lp1620
(g73
I8
tp1621
atp1622
a(S'pravkar'
p1623
(dp1624
S'ADV'
p1625
F1.0
s(lp1626
(g80
I9
tp1627
atp1628
a(S'odgovoril'
p1629
(dp1630
S'VERB'
p1631
F1.0
s(lp1632
tp1633
a(S'na'
p1634
(dp1635
S'ADP'
p1636
F1.0
s(lp1637
(g44
I4
tp1638
atp1639
a(S'va\xc5\xa1e'
p1640
(dp1641
S'PRON'
p1642
F0.9999999999999999
s(lp1643
(g51
I5
tp1644
atp1645
a(S'vpra\xc5\xa1anje'
p1646
(dp1647
S'NOUN'
p1648
F1.0
s(lp1649
(g58
I6
tp1650
atp1651
a(g20
(dp1652
g22
F1.0
s(lp1653
(g20
I11
tp1654
atp1655
a(S'sem'
p1656
(dp1657
S'ADV'
p1658
F0.016022
sS'PRT'
p1659
F0.000309
sS'VERB'
p1660
F0.983669
s(lp1661
(g115
I13
tp1662
atp1663
a(S'prepri\xc4\x8dan'
p1664
(dp1665
S'ADJ'
p1666
F1.0
s(lp1667
(g122
I14
tp1668
atp1669
a(g20
(dp1670
g22
F1.0
s(lp1671
tp1672
a(S'da'
p1673
(dp1674
S'PRT'
p1675
F0.000272
sS'CONJ'
p1676
F0.999225
sS'VERB'
p1677
F0.000501
sg253
F2e-06
s(lp1678
(g131
I15
tp1679
atp1680
a(S'lahko'
p1681
(dp1682
S'ADV'
p1683
F0.999153
sS'ADJ'
p1684
F0.000847
s(lp1685
(g145
I17
tp1686
atp1687
a(S'zdaj'
p1688
(dp1689
S'ADV'
p1690
F1.0
s(lp1691
(g153
I18
tp1692
atp1693
a(S'dejansko'
p1694
(dp1695
S'ADV'
p1696
F0.99806
sS'ADJ'
p1697
F0.001939
s(lp1698
(g17
I1
tp1699
atp1700
a(S'zagotovimo'
p1701
(dp1702
S'VERB'
p1703
F1.0
s(lp1704
(g160
I19
tp1705
atp1706
a(S'dejstva'
p1707
(dp1708
S'NOUN'
p1709
F1.0
s(lp1710
(g176
I20
tp1711
atp1712
a(g20
(dp1713
g22
F1.0
s(lp1714
(g20
I2
tp1715
atp1716
a(S'ki'
p1717
(dp1718
S'CONJ'
p1719
F1.0
s(lp1720
(g183
I21
tp1721
atp1722
a(S'bodo'
p1723
(dp1724
S'VERB'
p1725
F1.0
s(lp1726
(g190
I22
tp1727
atp1728
a(S'odpravila'
p1729
(dp1730
S'VERB'
p1731
F1.0
s(lp1732
(g202
I23
tp1733
atp1734
a(S'te'
p1735
(dp1736
S'PRON'
p1737
F1.000001
s(lp1738
(g209
I24
tp1739
atp1740
a(S'nesporazume'
p1741
(dp1742
S'ADV'
p1743
F0.000161
sS'ADJ'
p1744
F0.0004020000000000002
sS'VERB'
p1745
F0.000438
sS'NOUN'
p1746
F0.9989750000000001
sg253
F2.2e-05
s(lp1747
(g216
I25
tp1748
atp1749
a(g1309
(dp1750
S'ADP'
p1751
F1.0
s(lp1752
(g224
I26
tp1753
atp1754
a(S'medijih'
p1755
(dp1756
S'NOUN'
p1757
F1.0
s(lp1758
(g241
I28
tp1759
atp1760
a(g20
(dp1761
g22
F1.0
s(lp1762
tp1763
a(S'ki'
p1764
(dp1765
S'CONJ'
p1766
F1.0
s(lp1767
(g248
I29
tp1768
atp1769
a(S'jih'
p1770
(dp1771
S'PRON'
p1772
F1.0
s(lp1773
tp1774
a(S'je'
p1775
(dp1776
S'PRON'
p1777
F1.5e-05
sS'VERB'
p1778
F0.999985
sg253
F0.0
s(lp1779
(g273
I30
tp1780
atp1781
a(S'omenil'
p1782
(dp1783
S'VERB'
p1784
F1.0
s(lp1785
(g287
I31
tp1786
atp1787
a(S'gospod'
p1788
(dp1789
S'NOUN'
p1790
F1.0
s(lp1791
(g258
I34
tp1792
atp1793
a(S'claeys'
p1794
(dp1795
S'ADV'
p1796
F0.001949
sg253
F0.14924
sS'ADJ'
p1797
F0.0006310000000000002
sS'NOUN'
p1798
F0.8481819999999998
s(lp1799
(g266
I35
tp1800
atp1801
a(g22
(dp1802
g22
F1.0
s(lp1803
(g22
I36
tp1804
atp1805
asS'es'
p1806
(lp1807
(S'de'
p1808
(dp1809
S'ADV'
p1810
F1.0
s(lp1811
(g8
I0
tp1812
atp1813
a(S'hecho'
p1814
(dp1815
S'ADV'
p1816
F1.0
s(lp1817
(g17
I1
tp1818
atp1819
a(g20
(dp1820
g22
F1.0
s(lp1821
(g20
I2
tp1822
atp1823
a(S'al'
p1824
(dp1825
S'CONJ'
p1826
F0.999531
sS'ADP'
p1827
F0.000469
s(lp1828
(g31
I3
tp1829
atp1830
a(S'haber'
p1831
(dp1832
S'VERB'
p1833
F1.0
s(lp1834
(g44
I4
tp1835
atp1836
a(S'respondido'
p1837
(dp1838
S'VERB'
p1839
F1.0
s(lp1840
(g44
I4
tp1841
atp1842
a(S'antes'
p1843
(dp1844
S'ADV'
p1845
F0.999844
sS'NOUN'
p1846
F0.000156
s(lp1847
tp1848
a(g269
(dp1849
g253
F1e-05
sS'CONJ'
p1850
F0.000315
sS'ADP'
p1851
F0.999675
s(lp1852
(g44
I4
tp1853
atp1854
a(S'su'
p1855
(dp1856
S'PRON'
p1857
F1.0
s(lp1858
(g51
I5
tp1859
atp1860
a(S'pregunta'
p1861
(dp1862
S'NOUN'
p1863
F1.0
s(lp1864
(g58
I6
tp1865
atp1866
a(g20
(dp1867
g22
F1.0
s(lp1868
(g20
I11
tp1869
atp1870
a(S'estoy'
p1871
(dp1872
S'VERB'
p1873
F1.0
s(lp1874
(g115
I13
tp1875
atp1876
a(S'seguro'
p1877
(dp1878
S'ADV'
p1879
F0.027459
sS'ADJ'
p1880
F0.972541
s(lp1881
tp1882
a(S'de'
p1883
(dp1884
g253
F0.0
sS'CONJ'
p1885
F0.018838
sS'ADP'
p1886
F0.981162
s(lp1887
(g122
I14
tp1888
atp1889
a(S'que'
p1890
(dp1891
g253
F2e-06
sS'CONJ'
p1892
F0.999998
s(lp1893
(g131
I15
tp1894
atp1895
a(S'podemos'
p1896
(dp1897
S'VERB'
p1898
F1.0
s(lp1899
(g145
I17
tp1900
atp1901
a(S'aportar'
p1902
(dp1903
S'VERB'
p1904
F1.0
s(lp1905
(g160
I19
tp1906
atp1907
a(S'hechos'
p1908
(dp1909
S'VERB'
p1910
F0.011914
sS'NOUN'
p1911
F0.988086
s(lp1912
(g176
I20
tp1913
atp1914
a(S'que'
p1915
(dp1916
g253
F3e-06
sS'CONJ'
p1917
F0.999997
s(lp1918
(g183
I21
tp1919
atp1920
a(S'corregir\xc3\xa1n'
p1921
(dp1922
S'VERB'
p1923
F1.0
s(lp1924
(g202
I23
tp1925
atp1926
a(S'estos'
p1927
(dp1928
S'PRON'
p1929
F1.0
s(lp1930
(g209
I24
tp1931
atp1932
a(S'malos'
p1933
(dp1934
S'ADJ'
p1935
F1.0
s(lp1936
tp1937
a(S'entendidos'
p1938
(dp1939
S'VERB'
p1940
F1.0
s(lp1941
(g216
I25
tp1942
atp1943
a(S'en'
p1944
(dp1945
g253
F0.0
sS'CONJ'
p1946
F0.0
sS'ADP'
p1947
F1.0
s(lp1948
(g224
I26
tp1949
atp1950
a(S'los'
p1951
(dp1952
S'PRON'
p1953
F0.0
sS'DET'
p1954
F1.0
s(lp1955
(g233
I27
tp1956
atp1957
a(S'medios'
p1958
(dp1959
S'ADJ'
p1960
F0.002258
sS'NOUN'
p1961
F0.997742
s(lp1962
tp1963
a(S'de'
p1964
(dp1965
g253
F2.9e-05
sS'CONJ'
p1966
F0.000451
sS'ADP'
p1967
F0.99952
s(lp1968
tp1969
a(S'comunicaci\xc3\xb3n'
p1970
(dp1971
S'NOUN'
p1972
F1.0
s(lp1973
(g241
I28
tp1974
atp1975
a(S'que'
p1976
(dp1977
g253
F1.4e-05
sS'CONJ'
p1978
F0.999986
s(lp1979
(g248
I29
tp1980
atp1981
a(S'han'
p1982
(dp1983
S'VERB'
p1984
F1.0
s(lp1985
tp1986
a(S'sido'
p1987
(dp1988
S'VERB'
p1989
F1.0
s(lp1990
(g273
I30
tp1991
atp1992
a(S'mencionados'
p1993
(dp1994
S'VERB'
p1995
F0.999406
sS'ADJ'
p1996
F0.000594
s(lp1997
(g287
I31
tp1998
atp1999
a(S'por'
p2000
(dp2001
S'ADP'
p2002
F1.0
s(lp2003
(g483
I33
tp2004
atp2005
a(S'el'
p2006
(dp2007
S'PRON'
p2008
F5e-06
sS'DET'
p2009
F0.999995
s(lp2010
tp2011
a(S'se\xc3\xb1or'
p2012
(dp2013
S'NOUN'
p2014
F1.0
s(lp2015
(g258
I34
tp2016
atp2017
a(S'claeys'
p2018
(dp2019
S'ADJ'
p2020
F0.25752
sS'VERB'
p2021
F0.05529
sS'NOUN'
p2022
F0.687191
s(lp2023
(g266
I35
tp2024
atp2025
a(g22
(dp2026
g22
F1.0
s(lp2027
(g22
I36
tp2028
atp2029
as.