(dp0
S'fr'
p1
(lp2
(S'si'
p3
(dp4
S'ADV'
p5
F0.075137
sS'CONJ'
p6
F0.924768
sS'NOUN'
p7
F9.5e-05
s(lp8
(S'if'
p9
I0
tp10
atp11
a(S'vous'
p12
(dp13
S'PRON'
p14
F1.0
s(lp15
(S'you'
p16
I1
tp17
atp18
a(S'parlez'
p19
(dp20
S'VERB'
p21
F1.0
s(lp22
(S'talk'
p23
I3
tp24
atp25
a(S'tous'
p26
(dp27
S'PRON'
p28
F0.999338
sS'NOUN'
p29
F0.000662
s(lp30
(S'all'
p31
I2
tp32
atp33
a(S'aussi'
p34
(dp35
S'ADV'
p36
F0.999826
sS'CONJ'
p37
F0.000174
s(lp38
(S'such'
p39
I5
tp40
atp41
a(S'longtemps'
p42
(dp43
S'ADV'
p44
F0.997236
sS'NOUN'
p45
F0.002764
s(lp46
(S'long'
p47
I7
tp48
atp49
a(S','
p50
(dp51
S'.'
p52
F1.0
s(lp53
(S'then'
p54
I9
tp55
atp56
a(S'je'
p57
(dp58
S'PRON'
p59
F1.0
s(lp60
(S'i'
p61
I10
tp62
atp63
a(S'ne'
p64
(dp65
S'ADV'
p66
F1.0
s(lp67
(S'cannot'
p68
I11
tp69
atp70
a(S'pourrai'
p71
(dp72
S'VERB'
p73
F1.0
s(lp74
tp75
a(S'pas'
p76
(dp77
S'ADV'
p78
F0.999903
sS'NOUN'
p79
F9.7e-05
s(lp80
(g68
I11
tp81
atp82
a(S'donner'
p83
(dp84
S'VERB'
p85
F1.0
s(lp86
(S'give'
p87
I12
tp88
atp89
a(S'la'
p90
(dp91
S'PRON'
p92
F6e-06
sS'DET'
p93
F0.999994
sS'NOUN'
p94
F0.0
s(lp95
(S'the'
p96
I13
tp97
atp98
a(S'parole'
p99
(dp100
S'NOUN'
p101
F1.0
s(lp102
(S'floor'
p103
I14
tp104
atp105
a(S'aux'
p106
(dp107
S'ADP'
p108
F1.0
s(lp109
(S'the'
p110
I16
tp111
atp112
a(S'autres'
p113
(dp114
S'ADJ'
p115
F1.0
s(lp116
(S'others'
p117
I17
tp118
atp119
a(g52
(dp120
g52
F1.0
s(lp121
(g52
I18
tp122
atp123
asS'en'
p124
(lp125
(g9
(dp126
S'ADP'
p127
F1.0
s(lp128
(g9
I0
tp129
atp130
a(g16
(dp131
S'PRON'
p132
F1.0
s(lp133
(g16
I1
tp134
atp135
a(g31
(dp136
S'ADV'
p137
F0.152739
sS'DET'
p138
F0.847261
s(lp139
(g31
I2
tp140
atp141
a(g23
(dp142
S'VERB'
p143
F0.098307
sS'NOUN'
p144
F0.901693
s(lp145
(g23
I3
tp146
atp147
a(S'for'
p148
(dp149
S'ADP'
p150
F1.0
s(lp151
(g148
I4
tp152
atp153
a(g39
(dp154
S'ADV'
p155
F1e-05
sS'ADJ'
p156
F0.003111
sS'DET'
p157
F0.996863
sS'ADP'
p158
F1.6e-05
s(lp159
(g39
I5
tp160
atp161
a(S'a'
p162
(dp163
S'NOUN'
p164
F0.0
sS'DET'
p165
F1.0
s(lp166
(g162
I6
tp167
atp168
a(g47
(dp169
S'ADV'
p170
F0.004322
sS'NOUN'
p171
F0.000831
sS'VERB'
p172
F2.7e-05
sS'ADJ'
p173
F0.99482
s(lp174
(g47
I7
tp175
atp176
a(S'time'
p177
(dp178
S'VERB'
p179
F0.000225
sS'NOUN'
p180
F0.999775
s(lp181
(g177
I8
tp182
atp183
a(g54
(dp184
S'ADV'
p185
F0.995276
sS'ADJ'
p186
F0.004724
s(lp187
(g54
I9
tp188
atp189
a(g61
(dp190
S'X'
p191
F0.00382
sS'NOUN'
p192
F0.99618
s(lp193
(g61
I10
tp194
atp195
a(g68
(dp196
S'VERB'
p197
F1.0
s(lp198
(g68
I11
tp199
atp200
a(g87
(dp201
S'VERB'
p202
F1.0
s(lp203
(g87
I12
tp204
atp205
a(g96
(dp206
S'NOUN'
p207
F1e-06
sS'DET'
p208
F0.999999
s(lp209
(g96
I13
tp210
atp211
a(g103
(dp212
S'VERB'
p213
F3.8e-05
sS'NOUN'
p214
F0.999963
s(lp215
(g103
I14
tp216
atp217
a(S'to'
p218
(dp219
S'ADV'
p220
F1e-06
sS'PRT'
p221
F0.999989
sS'ADP'
p222
F1.1e-05
s(lp223
(g218
I15
tp224
atp225
a(g110
(dp226
S'NOUN'
p227
F1.3e-05
sS'DET'
p228
F0.999987
s(lp229
(g110
I16
tp230
atp231
a(g117
(dp232
S'NOUN'
p233
F1.0
s(lp234
(g117
I17
tp235
atp236
a(g52
(dp237
g52
F1.0
s(lp238
(g52
I18
tp239
atp240
asS'nl'
p241
(lp242
(S'als'
p243
(dp244
S'CONJ'
p245
F1.0
s(lp246
(g9
I0
tp247
atp248
a(S'u'
p249
(dp250
S'PRON'
p251
F0.999999
sS'NOUN'
p252
F1e-06
s(lp253
(g16
I1
tp254
atp255
a(S'allen'
p256
(dp257
S'PRON'
p258
F1.0
s(lp259
(g31
I2
tp260
atp261
a(S'zo'
p262
(dp263
S'ADV'
p264
F0.998925
sg191
F0.0
sS'CONJ'
p265
F0.001074
s(lp266
(g39
I5
tp267
atp268
a(S'veel'
p269
(dp270
S'ADV'
p271
F0.586554
sS'NUM'
p272
F0.411545
sS'VERB'
p273
F0.001901
s(lp274
(g47
I7
tp275
atp276
a(S'tijd'
p277
(dp278
S'NOUN'
p279
F1.0
s(lp280
tp281
a(S'neemt'
p282
(dp283
S'VERB'
p284
F1.0
s(lp285
(g177
I8
tp286
atp287
a(g50
(dp288
g52
F1.0
s(lp289
(g54
I9
tp290
atp291
a(S'kan'
p292
(dp293
S'VERB'
p294
F1.0
sS'NOUN'
p295
F0.0
s(lp296
tp297
a(S'ik'
p298
(dp299
S'PRON'
p300
F1.0
sS'NOUN'
p301
F0.0
s(lp302
(g61
I10
tp303
atp304
a(S'anderen'
p305
(dp306
S'NOUN'
p307
F1.0
s(lp308
tp309
a(S'het'
p310
(dp311
S'PRON'
p312
F0.001871
sS'DET'
p313
F0.998129
s(lp314
(g96
I13
tp315
atp316
a(S'woord'
p317
(dp318
S'NOUN'
p319
F1.0
s(lp320
(g103
I14
tp321
atp322
a(S'niet'
p323
(dp324
S'ADV'
p325
F0.999971
sS'PRON'
p326
F0.0
sS'VERB'
p327
F2.9e-05
sg191
F0.0
s(lp328
(g68
I11
tp329
atp330
a(S'meer'
p331
(dp332
S'ADV'
p333
F0.999788
sS'NUM'
p334
F0.000139
sS'NOUN'
p335
F9e-06
sS'VERB'
p336
F6.4e-05
s(lp337
(g117
I17
tp338
atp339
a(S'geven'
p340
(dp341
S'VERB'
p342
F0.999946
sS'NOUN'
p343
F5.4e-05
s(lp344
(g87
I12
tp345
atp346
a(g52
(dp347
g52
F1.0
s(lp348
(g52
I18
tp349
atp350
asS'de'
p351
(lp352
(S'wenn'
p353
(dp354
S'CONJ'
p355
F1.0
s(lp356
(g9
I0
tp357
atp358
a(S'sie'
p359
(dp360
S'PRON'
p361
F1.0
s(lp362
(g16
I1
tp363
atp364
a(S'alle'
p365
(dp366
S'PRON'
p367
F1.0
s(lp368
(g31
I2
tp369
atp370
a(S'so'
p371
(dp372
S'ADV'
p373
F0.999999
sS'PRON'
p374
F1e-06
s(lp375
(g39
I5
tp376
atp377
a(S'lange'
p378
(dp379
S'ADV'
p380
F0.997965
sS'ADJ'
p381
F0.002029
s(lp382
(g47
I7
tp383
atp384
a(S'sprechen'
p385
(dp386
S'VERB'
p387
F1.0
s(lp388
(g23
I3
tp389
atp390
a(g50
(dp391
g52
F1.0
s(lp392
(g218
I15
tp393
atp394
a(S'kann'
p395
(dp396
S'VERB'
p397
F1.0
s(lp398
tp399
a(S'ich'
p400
(dp401
S'PRON'
p402
F1.0
s(lp403
(g61
I10
tp404
atp405
a(S'den'
p406
(dp407
S'PRON'
p408
F0.007737
sS'DET'
p409
F0.991215
s(lp410
(g110
I16
tp411
atp412
a(S'anderen'
p413
(dp414
S'PRON'
p415
F1.0
s(lp416
(g117
I17
tp417
atp418
a(S'nicht'
p419
(dp420
S'PRT'
p421
F1.0
s(lp422
(g68
I11
tp423
atp424
a(S'das'
p425
(dp426
S'PRON'
p427
F0.010047
sS'DET'
p428
F0.982712
s(lp429
(g96
I13
tp430
atp431
a(S'wort'
p432
(dp433
S'ADJ'
p434
F0.048671
sS'NOUN'
p435
F0.936074
s(lp436
tp437
a(S'erteilen'
p438
(dp439
S'VERB'
p440
F1.0
s(lp441
(g103
I14
tp442
atp443
a(g52
(dp444
g52
F1.0
s(lp445
(g52
I18
tp446
atp447
asS'it'
p448
(lp449
(S'se'
p450
(dp451
S'PRON'
p452
F0.376775
sS'CONJ'
p453
F0.623019
sS'NOUN'
p454
F0.000206
s(lp455
(g9
I0
tp456
atp457
a(S'parlate'
p458
(dp459
S'NOUN'
p460
F0.05807
sS'VERB'
p461
F0.834764
sS'ADJ'
p462
F0.107167
s(lp463
(g23
I3
tp464
atp465
a(S'tutti'
p466
(dp467
S'PRON'
p468
F0.202436
sS'ADJ'
p469
F0.797564
s(lp470
(g31
I2
tp471
atp472
a(S'cos\xc3\xac'
p473
(dp474
S'ADV'
p475
F0.71442
sS'CONJ'
p476
F0.28558
s(lp477
(g39
I5
tp478
atp479
a(g162
(dp480
S'CONJ'
p481
F0.00066
sS'ADP'
p482
F0.99934
s(lp483
(g148
I4
tp484
atp485
a(S'lungo'
p486
(dp487
S'ADJ'
p488
F0.999064
sS'ADP'
p489
F0.000936
s(lp490
(g47
I7
tp491
atp492
a(g50
(dp493
g52
F1.0
s(lp494
(g54
I9
tp495
atp496
a(S'non'
p497
(dp498
S'ADV'
p499
F1.0
s(lp500
tp501
a(S'potr\xc3\xb2'
p502
(dp503
S'VERB'
p504
F1.0
s(lp505
(g68
I11
tp506
atp507
a(S'dare'
p508
(dp509
S'VERB'
p510
F1.0
s(lp511
(g87
I12
tp512
atp513
a(S'la'
p514
(dp515
S'PRON'
p516
F0.0
sS'DET'
p517
F1.0
s(lp518
(g96
I13
tp519
atp520
a(S'parola'
p521
(dp522
S'NOUN'
p523
F1.0
s(lp524
(g103
I14
tp525
atp526
a(S'agli'
p527
(dp528
S'NOUN'
p529
F0.000212
sS'ADP'
p530
F0.999788
s(lp531
(g218
I15
tp532
atp533
a(S'altri'
p534
(dp535
S'PRON'
p536
F0.369917
sS'ADJ'
p537
F0.565069
sS'NOUN'
p538
F0.065014
s(lp539
(g117
I17
tp540
atp541
a(g52
(dp542
g52
F1.0
s(lp543
(g52
I18
tp544
atp545
asS'sk'
p546
(lp547
(S'ak'
p548
(dp549
g191
F4.1e-05
sS'CONJ'
p550
F0.999959
s(lp551
(g9
I0
tp552
atp553
a(S'budete'
p554
(dp555
S'VERB'
p556
F1.0
s(lp557
(g16
I1
tp558
atp559
a(S'v\xc5\xa1etci'
p560
(dp561
S'PRON'
p562
F1.0
s(lp563
(g31
I2
tp564
atp565
a(S'hovori\xc5\xa5'
p566
(dp567
S'VERB'
p568
F1.0
s(lp569
(g23
I3
tp570
atp571
a(S'tak'
p572
(dp573
S'PRON'
p574
F0.47149
sS'CONJ'
p575
F0.140501
sg191
F0.388009
s(lp576
(g39
I5
tp577
atp578
a(S'dlho'
p579
(dp580
S'ADV'
p581
F1.0
s(lp582
(g47
I7
tp583
atp584
a(g50
(dp585
g52
F1.0
s(lp586
tp587
a(S'nem\xc3\xb4\xc5\xbeem'
p588
(dp589
S'VERB'
p590
F1.0
s(lp591
(g68
I11
tp592
atp593
a(S'da\xc5\xa5'
p594
(dp595
S'VERB'
p596
F1.0
s(lp597
(g87
I12
tp598
atp599
a(S'priestor'
p600
(dp601
S'NOUN'
p602
F1.0
s(lp603
(g103
I14
tp604
atp605
a(S'ostatn\xc3\xbdm'
p606
(dp607
S'NUM'
p608
F0.20994600000000002
sS'ADJ'
p609
F0.790054
s(lp610
(g117
I17
tp611
atp612
a(g52
(dp613
g52
F1.0
s(lp614
(g52
I18
tp615
atp616
asS'pl'
p617
(lp618
(S'je\xc5\xbceli'
p619
(dp620
S'CONJ'
p621
F1.0
s(lp622
(g9
I0
tp623
atp624
a(S'wszyscy'
p625
(dp626
S'ADJ'
p627
F0.012233
sS'NOUN'
p628
F0.987767
s(lp629
(g31
I2
tp630
atp631
a(S'b\xc4\x99dziecie'
p632
(dp633
S'VERB'
p634
F1.0
s(lp635
(g16
I1
tp636
atp637
a(S'm\xc3\xb3wi\xc4\x87'
p638
(dp639
S'VERB'
p640
F1.0
s(lp641
(g23
I3
tp642
atp643
a(S'tak'
p644
(dp645
S'ADV'
p646
F0.871172
sS'NOUN'
p647
F0.000184
sS'PRT'
p648
F0.127504
sg191
F0.0
sS'CONJ'
p649
F0.001133
sS'ADJ'
p650
F7e-06
s(lp651
(g39
I5
tp652
atp653
a(S'd\xc5\x82ugo'
p654
(dp655
S'ADV'
p656
F1.0
s(lp657
(g47
I7
tp658
atp659
a(g50
(dp660
g191
F0.0
sg52
F1.0
s(lp661
tp662
a(S'nie'
p663
(dp664
S'ADV'
p665
F1.5e-05
sS'PRT'
p666
F0.988881
sS'CONJ'
p667
F0.011101
sS'NOUN'
p668
F2e-06
sS'PRON'
p669
F0.0
s(lp670
tp671
a(S'b\xc4\x99d\xc4\x99'
p672
(dp673
S'VERB'
p674
F0.9999999999999999
s(lp675
(g61
I10
tp676
atp677
a(S'm\xc3\xb3g\xc5\x82'
p678
(dp679
S'VERB'
p680
F1.000001
s(lp681
(g68
I11
tp682
atp683
a(S'udzieli\xc4\x87'
p684
(dp685
S'VERB'
p686
F1.0
s(lp687
(g87
I12
tp688
atp689
a(S'g\xc5\x82osu'
p690
(dp691
S'NOUN'
p692
F1.0
s(lp693
(g103
I14
tp694
atp695
a(S'innym'
p696
(dp697
S'ADJ'
p698
F0.19268199999999996
sS'NOUN'
p699
F0.807318
s(lp700
(g117
I17
tp701
atp702
a(g52
(dp703
g52
F1.0
s(lp704
(g52
I18
tp705
atp706
asS'sl'
p707
(lp708
(S'\xc4\x8ce'
p709
(dp710
S'CONJ'
p711
F1.0
s(lp712
(g9
I0
tp713
atp714
a(S'boste'
p715
(dp716
S'VERB'
p717
F1.0
s(lp718
(g16
I1
tp719
atp720
a(S'vsi'
p721
(dp722
S'PRON'
p723
F1.0
s(lp724
(g31
I2
tp725
atp726
a(S'govorili'
p727
(dp728
S'VERB'
p729
F1.0
s(lp730
(g23
I3
tp731
atp732
a(S'tako'
p733
(dp734
S'ADV'
p735
F0.904392
sS'PRON'
p736
F0.029181
sS'CONJ'
p737
F0.066427
s(lp738
(g39
I5
tp739
atp740
a(S'dolgo'
p741
(dp742
S'ADV'
p743
F0.908293
sS'ADJ'
p744
F0.091707
s(lp745
(g47
I7
tp746
atp747
a(g50
(dp748
g52
F1.0
s(lp749
tp750
a(S'ne'
p751
(dp752
S'PRT'
p753
F0.992697
sS'CONJ'
p754
F0.007192
sg191
F0.00011
s(lp755
tp756
a(S'bom'
p757
(dp758
S'VERB'
p759
F1.0
s(lp760
(g61
I10
tp761
atp762
a(S'mogel'
p763
(dp764
S'VERB'
p765
F1.0
s(lp766
(g68
I11
tp767
atp768
a(S'dati'
p769
(dp770
S'VERB'
p771
F1.0
s(lp772
(g87
I12
tp773
atp774
a(S'besede'
p775
(dp776
S'NOUN'
p777
F0.9999999999999999
s(lp778
(g103
I14
tp779
atp780
a(S'drugim'
p781
(dp782
S'NUM'
p783
F0.9999990000000001
s(lp784
(g117
I17
tp785
atp786
a(g52
(dp787
g52
F1.0
s(lp788
(g52
I18
tp789
atp790
asS'es'
p791
(lp792
(S'si'
p793
(dp794
S'CONJ'
p795
F0.999552
sS'NOUN'
p796
F0.000448
s(lp797
(g9
I0
tp798
atp799
a(S'todos'
p800
(dp801
S'ADJ'
p802
F1.0
s(lp803
(g31
I2
tp804
atp805
a(S'hablan'
p806
(dp807
S'VERB'
p808
F1.0
s(lp809
(g23
I3
tp810
atp811
a(S'durante'
p812
(dp813
S'ADP'
p814
F1.0
s(lp815
(g148
I4
tp816
atp817
a(S'tanto'
p818
(dp819
S'ADV'
p820
F0.047699
sS'NOUN'
p821
F1.6e-05
sS'ADJ'
p822
F0.952285
s(lp823
(g47
I7
tp824
atp825
a(S'tiempo'
p826
(dp827
S'NOUN'
p828
F1.0
s(lp829
(g177
I8
tp830
atp831
a(S'no'
p832
(dp833
S'ADV'
p834
F0.999983
sg191
F1.7e-05
s(lp835
tp836
a(S'puedo'
p837
(dp838
S'VERB'
p839
F1.0
s(lp840
(g68
I11
tp841
atp842
a(S'dar'
p843
(dp844
S'VERB'
p845
F1.0
s(lp846
(g87
I12
tp847
atp848
a(S'la'
p849
(dp850
S'PRON'
p851
F4e-06
sS'DET'
p852
F0.999995
sS'NOUN'
p853
F0.0
sg191
F1e-06
s(lp854
(g96
I13
tp855
atp856
a(S'palabra'
p857
(dp858
S'NOUN'
p859
F1.0
s(lp860
(g103
I14
tp861
atp862
a(g162
(dp863
g191
F0.000427
sS'CONJ'
p864
F3e-06
sS'ADP'
p865
F0.99957
s(lp866
(g218
I15
tp867
atp868
a(S'los'
p869
(dp870
S'PRON'
p871
F0.0
sS'DET'
p872
F1.0
s(lp873
(g110
I16
tp874
atp875
a(S'dem\xc3\xa1s'
p876
(dp877
S'ADJ'
p878
F1.0
s(lp879
(g117
I17
tp880
atp881
a(g52
(dp882
g52
F1.0
s(lp883
(g52
I18
tp884
atp885
as.