(dp0
S'fr'
p1
(lp2
(S'la'
p3
(dp4
S'PRON'
p5
F8.2e-05
sS'DET'
p6
F0.999918
sS'NOUN'
p7
F0.0
s(lp8
(S'the'
p9
I0
tp10
atp11
a(S'question'
p12
(dp13
S'NOUN'
p14
F1.0
s(lp15
(S'matter'
p16
I1
tp17
atp18
a(S'des'
p19
(dp20
S'DET'
p21
F2.1e-05
sS'ADP'
p22
F0.999979
s(lp23
(S'of'
p24
I2
tp25
atp26
a(S'partenariats'
p27
(dp28
S'NOUN'
p29
F1.0
s(lp30
(S'partnership'
p31
I3
tp32
atp33
a(S'-'
p34
(dp35
S'.'
p36
F1.0
s(lp37
(g34
I4
tp38
atp39
a(S'de'
p40
(dp41
S'ADP'
p42
F1.0
s(lp43
(S'of'
p44
I5
tp45
atp46
a(S'la'
p47
(dp48
S'PRON'
p49
F1.2e-05
sS'DET'
p50
F0.999988
sS'NOUN'
p51
F0.0
s(lp52
tp53
a(S'coop\xc3\xa9ration'
p54
(dp55
S'NOUN'
p56
F1.0
s(lp57
(S'cooperation'
p58
I6
tp59
atp60
a(g34
(dp61
g36
F1.0
s(lp62
(g34
I7
tp63
atp64
a(S'est'
p65
(dp66
S'VERB'
p67
F0.994855
sS'NOUN'
p68
F0.005145
s(lp69
(S'is'
p70
I8
tp71
atp72
a(S'cruciale'
p73
(dp74
S'ADJ'
p75
F1.0
s(lp76
(S'important'
p77
I10
tp78
atp79
a(S','
p80
(dp81
g36
F1.0
s(lp82
(g80
I11
tp83
atp84
a(S'ainsi'
p85
(dp86
S'ADV'
p87
F0.49766
sS'CONJ'
p88
F0.50234
s(lp89
tp90
a(S'que'
p91
(dp92
S'ADV'
p93
F0.247803
sS'PRON'
p94
F0.027883
sS'CONJ'
p95
F0.724314
s(lp96
(S'as'
p97
I12
tp98
atp99
a(S'mentionn\xc3\xa9'
p100
(dp101
S'VERB'
p102
F1.0
s(lp103
(S'mentioned'
p104
I14
tp105
atp106
a(S'en'
p107
(dp108
S'PRON'
p109
F0.000514
sS'ADP'
p110
F0.999486
s(lp111
(S'in'
p112
I15
tp113
atp114
a(S'particulier'
p115
(dp116
S'NOUN'
p117
F0.388631
sS'ADJ'
p118
F0.611369
s(lp119
(S'particular'
p120
I16
tp121
atp122
a(S'dans'
p123
(dp124
S'NOUN'
p125
F5.5e-05
sS'ADP'
p126
F0.999945
s(lp127
(S'in'
p128
I17
tp129
atp130
a(S'le'
p131
(dp132
S'PRON'
p133
F6.2e-05
sS'DET'
p134
F0.999938
s(lp135
tp136
a(S'rapport'
p137
(dp138
S'NOUN'
p139
F1.0
s(lp140
(S'report'
p141
I21
tp142
atp143
a(S'de'
p144
(dp145
S'ADP'
p146
F1.0
s(lp147
(S"'s"
p148
I20
tp149
atp150
a(S'mme'
p151
(dp152
S'ADJ'
p153
F0.061266
sS'VERB'
p154
F0.20176
sS'NOUN'
p155
F0.736976
s(lp156
(S'mrs'
p157
I18
tp158
atp159
a(S'm\xc4\x83nescu'
p160
(dp161
S'NOUN'
p162
F0.07964
sS'VERB'
p163
F0.36195499999999997
sS'ADJ'
p164
F0.558407
s(lp165
(S'm\xc4\x83nescu'
p166
I19
tp167
atp168
a(g36
(dp169
g36
F1.0
s(lp170
(g36
I22
tp171
atp172
asS'en'
p173
(lp174
(g9
(dp175
S'NOUN'
p176
F5e-06
sS'DET'
p177
F0.999995
s(lp178
(g9
I0
tp179
atp180
a(g16
(dp181
S'ADJ'
p182
F0.001845
sS'VERB'
p183
F0.000332
sS'NOUN'
p184
F0.997823
s(lp185
(g16
I1
tp186
atp187
a(g24
(dp188
S'ADP'
p189
F1.0
s(lp190
(g24
I2
tp191
atp192
a(g31
(dp193
S'NOUN'
p194
F1.0
s(lp195
(g31
I3
tp196
atp197
a(g34
(dp198
g36
F1.0
s(lp199
(g34
I4
tp200
atp201
a(g44
(dp202
S'ADP'
p203
F1.0
s(lp204
(g44
I5
tp205
atp206
a(g58
(dp207
S'NOUN'
p208
F1.0
s(lp209
(g58
I6
tp210
atp211
a(g34
(dp212
g36
F1.0
s(lp213
(g34
I7
tp214
atp215
a(g70
(dp216
S'VERB'
p217
F1.0
s(lp218
(g70
I8
tp219
atp220
a(S'very'
p221
(dp222
S'ADV'
p223
F0.984052
sS'ADJ'
p224
F0.015948
s(lp225
(g221
I9
tp226
atp227
a(g77
(dp228
S'ADJ'
p229
F1.0
s(lp230
(g77
I10
tp231
atp232
a(g80
(dp233
g36
F1.0
s(lp234
(g80
I11
tp235
atp236
a(g97
(dp237
S'ADV'
p238
F0.934694
sS'ADP'
p239
F0.065306
s(lp240
(g97
I12
tp241
atp242
a(S'was'
p243
(dp244
S'VERB'
p245
F1.0
s(lp246
(g243
I13
tp247
atp248
a(g104
(dp249
S'VERB'
p250
F1.0
s(lp251
(g104
I14
tp252
atp253
a(g112
(dp254
S'ADV'
p255
F0.001232
sS'PRT'
p256
F0.003931
sS'ADP'
p257
F0.994836
s(lp258
(g112
I15
tp259
atp260
a(g120
(dp261
S'ADV'
p262
F0.024044
sS'NOUN'
p263
F0.09762
sS'ADJ'
p264
F0.878336
s(lp265
(g120
I16
tp266
atp267
a(g128
(dp268
S'ADV'
p269
F0.000594
sS'PRT'
p270
F0.00019
sS'ADP'
p271
F0.999216
s(lp272
(g128
I17
tp273
atp274
a(g157
(dp275
S'ADV'
p276
F0.007212
sS'NOUN'
p277
F0.390793
sS'VERB'
p278
F0.10936
sS'ADJ'
p279
F0.492635
s(lp280
(g157
I18
tp281
atp282
a(g166
(dp283
S'ADV'
p284
F2e-06
sS'ADJ'
p285
F8e-06
sS'VERB'
p286
F2.8e-05
sS'NOUN'
p287
F0.9999610000000001
s(lp288
(g166
I19
tp289
atp290
a(g148
(dp291
S'PRT'
p292
F0.988849
sg36
F0.011151
s(lp293
(g148
I20
tp294
atp295
a(g141
(dp296
S'VERB'
p297
F0.023402
sS'NOUN'
p298
F0.976598
s(lp299
(g141
I21
tp300
atp301
a(g36
(dp302
g36
F1.0
s(lp303
(g36
I22
tp304
atp305
asS'nl'
p306
(lp307
(S'met'
p308
(dp309
S'ADP'
p310
F1.0
s(lp311
tp312
a(S'name'
p313
(dp314
S'NOUN'
p315
F1.0
s(lp316
(g120
I16
tp317
atp318
a(S'in'
p319
(dp320
S'ADV'
p321
F0.002982
sS'VERB'
p322
F3e-06
sS'ADP'
p323
F0.997016
s(lp324
(g128
I17
tp325
atp326
a(S'het'
p327
(dp328
S'PRON'
p329
F0.00093
sS'DET'
p330
F0.99907
s(lp331
tp332
a(S'verslag'
p333
(dp334
S'NOUN'
p335
F1.0
s(lp336
(g141
I21
tp337
atp338
a(S'van'
p339
(dp340
S'ADP'
p341
F1.0
s(lp342
(g148
I20
tp343
atp344
a(S'mevrouw'
p345
(dp346
S'NOUN'
p347
F1.0
s(lp348
(g157
I18
tp349
atp350
a(S'm\xc4\x83nescu'
p351
(dp352
S'NOUN'
p353
F0.437749
sS'ADJ'
p354
F0.56225
s(lp355
(g166
I19
tp356
atp357
a(S'staat'
p358
(dp359
S'VERB'
p360
F0.373334
sS'NOUN'
p361
F0.626666
s(lp362
(g70
I8
tp363
atp364
a(S'hoe'
p365
(dp366
S'ADV'
p367
F0.999508
sS'CONJ'
p368
F0.000492
s(lp369
(g221
I9
tp370
atp371
a(S'belangrijk'
p372
(dp373
S'ADJ'
p374
F1.0
s(lp375
(g77
I10
tp376
atp377
a(S'het'
p378
(dp379
S'PRON'
p380
F0.000112
sS'DET'
p381
F0.999888
s(lp382
(g9
I0
tp383
atp384
a(S'partnerschap'
p385
(dp386
S'NOUN'
p387
F1.0
s(lp388
(g31
I3
tp389
atp390
a(S'is'
p391
(dp392
S'VERB'
p393
F1.0
s(lp394
(g243
I13
tp395
atp396
a(g80
(dp397
g36
F1.0
s(lp398
(g34
I4
tp399
atp400
a(S'de'
p401
(dp402
S'DET'
p403
F1.0
s(lp404
tp405
a(S'samenwerking'
p406
(dp407
S'NOUN'
p408
F1.0
s(lp409
(g58
I6
tp410
atp411
a(g36
(dp412
g36
F1.0
s(lp413
(g36
I22
tp414
atp415
asS'de'
p416
(lp417
(S'ganz'
p418
(dp419
S'ADV'
p420
F0.958672
sS'ADJ'
p421
F0.041328
s(lp422
(g221
I9
tp423
atp424
a(S'wichtig'
p425
(dp426
S'ADJ'
p427
F1.0
s(lp428
(g77
I10
tp429
atp430
a(S'ist'
p431
(dp432
S'VERB'
p433
F1.0
s(lp434
(g70
I8
tp435
atp436
a(g34
(dp437
g36
F1.0
s(lp438
(g80
I11
tp439
atp440
a(S'das'
p441
(dp442
S'PRON'
p443
F0.999108
s(lp444
(g97
I12
tp445
atp446
a(S'wurde'
p447
(dp448
S'VERB'
p449
F1.0
s(lp450
(g243
I13
tp451
atp452
a(S'insbesondere'
p453
(dp454
S'ADV'
p455
F1.0
s(lp456
(g120
I16
tp457
atp458
a(S'im'
p459
(dp460
S'ADP'
p461
F1.0
s(lp462
(g128
I17
tp463
atp464
a(S'bericht'
p465
(dp466
S'VERB'
p467
F0.000184
sS'NOUN'
p468
F0.999681
s(lp469
(g141
I21
tp470
atp471
a(S'von'
p472
(dp473
S'NOUN'
p474
F0.000688
sS'ADP'
p475
F0.999312
s(lp476
(g148
I20
tp477
atp478
a(S'frau'
p479
(dp480
S'NOUN'
p481
F0.19643
sS'ADJ'
p482
F0.799165
s(lp483
(g157
I18
tp484
atp485
a(S'm\xc4\x83nescu'
p486
(dp487
S'NOUN'
p488
F0.997409
s(lp489
(g166
I19
tp490
atp491
a(S'angesprochen'
p492
(dp493
S'VERB'
p494
F1.0
s(lp495
(g104
I14
tp496
atp497
a(g34
(dp498
g36
F1.0
s(lp499
(g34
I7
tp500
atp501
a(S'die'
p502
(dp503
S'PRON'
p504
F0.977376
s(lp505
(g9
I0
tp506
atp507
a(S'frage'
p508
(dp509
S'VERB'
p510
F1.0
s(lp511
(g16
I1
tp512
atp513
a(S'der'
p514
(dp515
S'PRON'
p516
F0.000207
sS'DET'
p517
F0.999793
s(lp518
(g24
I2
tp519
atp520
a(S'partnerschaft'
p521
(dp522
S'ADJ'
p523
F0.001274
sS'NOUN'
p524
F0.998493
s(lp525
(g31
I3
tp526
atp527
a(g80
(dp528
g36
F1.0
s(lp529
(g34
I4
tp530
atp531
a(S'der'
p532
(dp533
S'PRON'
p534
F0.046088
sS'DET'
p535
F0.953516
s(lp536
(g44
I5
tp537
atp538
a(S'kooperation'
p539
(dp540
S'ADJ'
p541
F0.001186
sS'NOUN'
p542
F0.998593
s(lp543
(g58
I6
tp544
atp545
a(g36
(dp546
g36
F1.0
s(lp547
(g36
I22
tp548
atp549
asS'it'
p550
(lp551
(S'la'
p552
(dp553
S'PRON'
p554
F0.000408
sS'DET'
p555
F0.999592
s(lp556
(g9
I0
tp557
atp558
a(S'questione'
p559
(dp560
S'NOUN'
p561
F1.0
s(lp562
(g16
I1
tp563
atp564
a(S'del'
p565
(dp566
S'DEF'
p567
F0.001248
sS'ADP'
p568
F0.998752
s(lp569
(g24
I2
tp570
atp571
a(S'partenariato'
p572
(dp573
S'NOUN'
p574
F1.0
s(lp575
(g31
I3
tp576
atp577
a(g34
(dp578
S'X'
p579
F0.0
sg36
F1.0
s(lp580
(g34
I4
tp581
atp582
a(S'della'
p583
(dp584
S'DEF'
p585
F0.011542
sS'ADP'
p586
F0.988458
s(lp587
(g44
I5
tp588
atp589
a(S'cooperazione'
p590
(dp591
S'NOUN'
p592
F1.0
s(lp593
(g58
I6
tp594
atp595
a(g34
(dp596
g579
F0.0
sg36
F1.0
s(lp597
(g34
I7
tp598
atp599
a(S'\xc3\xa8'
p600
(dp601
S'VERB'
p602
F1.0
s(lp603
(g70
I8
tp604
atp605
a(S'molto'
p606
(dp607
S'ADV'
p608
F0.992073
sS'PRON'
p609
F0.000847
sS'VERB'
p610
F0.002213
sS'ADJ'
p611
F0.004867
s(lp612
(g221
I9
tp613
atp614
a(S'importante'
p615
(dp616
S'NOUN'
p617
F0.002907
sS'VERB'
p618
F0.001366
sS'ADJ'
p619
F0.995727
s(lp620
(g77
I10
tp621
atp622
a(g80
(dp623
g36
F1.0
s(lp624
(g80
I11
tp625
atp626
a(S'come'
p627
(dp628
S'PRON'
p629
F0.014186
sS'CONJ'
p630
F0.917025
sS'NOUN'
p631
F0.000474
sS'ADP'
p632
F0.068314
s(lp633
(g97
I12
tp634
atp635
a(S'ricordato'
p636
(dp637
S'VERB'
p638
F1.0
s(lp639
(g104
I14
tp640
atp641
a(S'in'
p642
(dp643
S'ADP'
p644
F1.0
s(lp645
(g112
I15
tp646
atp647
a(S'particolare'
p648
(dp649
S'NOUN'
p650
F0.278991
sS'ADJ'
p651
F0.721009
s(lp652
(g120
I16
tp653
atp654
a(S'dalla'
p655
(dp656
S'NOUN'
p657
F4e-05
sS'ADP'
p658
F0.99996
s(lp659
(g148
I20
tp660
atp661
a(S'relazione'
p662
(dp663
S'NOUN'
p664
F1.0
s(lp665
(g141
I21
tp666
atp667
a(S'm\xc4\x83nescu'
p668
(dp669
S'NOUN'
p670
F0.028681
sS'VERB'
p671
F0.000363
sS'ADJ'
p672
F0.970955
s(lp673
(g166
I19
tp674
atp675
a(g36
(dp676
g36
F1.0
s(lp677
(g36
I22
tp678
atp679
asS'sk'
p680
(lp681
(S'ot\xc3\xa1zka'
p682
(dp683
S'NOUN'
p684
F1.0
s(lp685
(g16
I1
tp686
atp687
a(S'partnerstva'
p688
(dp689
S'NOUN'
p690
F1.0
s(lp691
(g31
I3
tp692
atp693
a(g34
(dp694
g36
F1.0
s(lp695
(g34
I4
tp696
atp697
a(S'spolupr\xc3\xa1ce'
p698
(dp699
S'NOUN'
p700
F1.0
s(lp701
(g58
I6
tp702
atp703
a(g34
(dp704
g36
F1.0
s(lp705
(g34
I7
tp706
atp707
a(S'je'
p708
(dp709
g579
F0.001072
sS'VERB'
p710
F0.998847
sS'PRON'
p711
F8e-05
s(lp712
(g70
I8
tp713
atp714
a(S've\xc4\xbemi'
p715
(dp716
S'ADV'
p717
F1.0
s(lp718
(g221
I9
tp719
atp720
a(S'd\xc3\xb4le\xc5\xbeit\xc3\xa1'
p721
(dp722
S'ADJ'
p723
F1.0
s(lp724
(g77
I10
tp725
atp726
a(g80
(dp727
g36
F1.0
s(lp728
(g80
I11
tp729
atp730
a(S'ako'
p731
(dp732
S'PRON'
p733
F0.062626
sS'CONJ'
p734
F0.93721
sg579
F0.000164
s(lp735
(g97
I12
tp736
atp737
a(S'bolo'
p738
(dp739
S'VERB'
p740
F1.0
s(lp741
(g243
I13
tp742
atp743
a(S'uveden\xc3\xa9'
p744
(dp745
S'VERB'
p746
F1.0
s(lp747
(g104
I14
tp748
atp749
a(S'predov\xc5\xa1etk\xc3\xbdm'
p750
(dp751
g579
F1.0
s(lp752
(g120
I16
tp753
atp754
a(S'v'
p755
(dp756
g579
F0.000217
sS'ADP'
p757
F0.999784
s(lp758
(g128
I17
tp759
atp760
a(S'spr\xc3\xa1ve'
p761
(dp762
S'NOUN'
p763
F1.0
s(lp764
(g141
I21
tp765
atp766
a(S'pani'
p767
(dp768
S'NOUN'
p769
F1.0
s(lp770
(g157
I18
tp771
atp772
a(S'm\xc4\x83nescovej'
p773
(dp774
S'NOUN'
p775
F0.076404
sS'VERB'
p776
F0.036125
sS'ADJ'
p777
F0.88747
s(lp778
(g166
I19
tp779
atp780
a(g36
(dp781
g36
F1.0
s(lp782
(g36
I22
tp783
atp784
asS'pl'
p785
(lp786
(S'kwestia'
p787
(dp788
S'NOUN'
p789
F1.0
s(lp790
(g16
I1
tp791
atp792
a(S'partnerstwa'
p793
(dp794
S'NOUN'
p795
F1.0
s(lp796
(g31
I3
tp797
atp798
a(g34
(dp799
g579
F1.1e-05
sS'NUM'
p800
F0.0
sS'NOUN'
p801
F0.00017999999999999998
sg36
F0.999809
s(lp802
(g34
I4
tp803
atp804
a(S'wsp\xc3\xb3\xc5\x82pracy'
p805
(dp806
S'NOUN'
p807
F1.0
s(lp808
(g58
I6
tp809
atp810
a(g34
(dp811
g579
F3.3e-05
sS'NUM'
p812
F2e-06
sS'NOUN'
p813
F0.000259
sg36
F0.999705
s(lp814
(g34
I7
tp815
atp816
a(S'jest'
p817
(dp818
S'VERB'
p819
F1.0
s(lp820
(g70
I8
tp821
atp822
a(S'bardzo'
p823
(dp824
S'ADV'
p825
F1.0
s(lp826
(g221
I9
tp827
atp828
a(S'wa\xc5\xbcna'
p829
(dp830
S'ADJ'
p831
F1.0
s(lp832
(g77
I10
tp833
atp834
a(g80
(dp835
g579
F0.0
sg36
F1.0
s(lp836
(g80
I11
tp837
atp838
a(S'o'
p839
(dp840
g579
F0.0008010000000000001
sS'VERB'
p841
F8e-06
sS'NOUN'
p842
F0.0
sS'ADP'
p843
F0.9991909999999999
sS'PRT'
p844
F1e-06
s(lp845
(g104
I14
tp846
atp847
a(S'czym'
p848
(dp849
S'CONJ'
p850
F1.6e-05
sS'NOUN'
p851
F0.999984
s(lp852
tp853
a(S'wspomniano'
p854
(dp855
S'VERB'
p856
F1.0
s(lp857
(g104
I14
tp858
atp859
a(S'w'
p860
(dp861
S'ADJ'
p862
F0.0
sg579
F0.0
sS'NOUN'
p863
F0.0
sS'ADP'
p864
F1.0
s(lp865
(g112
I15
tp866
atp867
a(S'sprawozdaniu'
p868
(dp869
S'NOUN'
p870
F1.0
s(lp871
(g141
I21
tp872
atp873
a(S'pani'
p874
(dp875
S'NOUN'
p876
F1.0
s(lp877
tp878
a(S'pose\xc5\x82'
p879
(dp880
S'NOUN'
p881
F1.0
s(lp882
(g157
I18
tp883
atp884
a(S'm\xc4\x83nescu'
p885
(dp886
S'ADV'
p887
F0.002693
sS'ADJ'
p888
F0.014207
sS'VERB'
p889
F0.037322999999999995
sS'NOUN'
p890
F0.9457749999999998
s(lp891
(g166
I19
tp892
atp893
a(g36
(dp894
g36
F1.0
s(lp895
(g36
I22
tp896
atp897
asS'sl'
p898
(lp899
(S'partnerstvo'
p900
(dp901
S'NOUN'
p902
F1.0
s(lp903
(g31
I3
tp904
atp905
a(g34
(dp906
g36
F1.0
s(lp907
(g34
I4
tp908
atp909
a(S'sodelovanje'
p910
(dp911
S'NOUN'
p912
F1.0
s(lp913
(g58
I6
tp914
atp915
a(g34
(dp916
g36
F1.0
s(lp917
(g34
I7
tp918
atp919
a(S'je'
p920
(dp921
S'PRON'
p922
F0.000604
sS'VERB'
p923
F0.999313
sg579
F8.3e-05
s(lp924
(g70
I8
tp925
atp926
a(S'zelo'
p927
(dp928
S'ADV'
p929
F1.0
s(lp930
(g221
I9
tp931
atp932
a(S'pomembno'
p933
(dp934
S'ADV'
p935
F0.186945
sS'ADJ'
p936
F0.8130550000000001
s(lp937
(g77
I10
tp938
atp939
a(g80
(dp940
g36
F1.0
s(lp941
(g80
I11
tp942
atp943
a(S'kot'
p944
(dp945
S'CONJ'
p946
F0.999971
sS'NOUN'
p947
F2.9e-05
s(lp948
(g97
I12
tp949
atp950
a(S'je'
p951
(dp952
S'PRON'
p953
F0.00154
sS'VERB'
p954
F0.99846
sg579
F0.0
s(lp955
(g243
I13
tp956
atp957
a(S'posebej'
p958
(dp959
S'ADV'
p960
F1.0
s(lp961
(g120
I16
tp962
atp963
a(S'omenjeno'
p964
(dp965
S'ADJ'
p966
F1.0
s(lp967
(g104
I14
tp968
atp969
a(g755
(dp970
S'ADP'
p971
F1.0
s(lp972
(g128
I17
tp973
atp974
a(S'poro\xc4\x8dilu'
p975
(dp976
S'NOUN'
p977
F1.0
s(lp978
(g141
I21
tp979
atp980
a(S'gospe'
p981
(dp982
S'NOUN'
p983
F1.0
s(lp984
(g157
I18
tp985
atp986
a(S'm\xc4\x83nescu'
p987
(dp988
S'ADV'
p989
F0.004059
sS'ADJ'
p990
F0.009112999999999998
sS'VERB'
p991
F0.16744599999999998
sS'NOUN'
p992
F0.819382
s(lp993
(g166
I19
tp994
atp995
a(g36
(dp996
g36
F1.0
s(lp997
(g36
I22
tp998
atp999
asS'es'
p1000
(lp1001
(S'el'
p1002
(dp1003
S'PRON'
p1004
F1e-05
sS'DET'
p1005
F0.99999
s(lp1006
(g9
I0
tp1007
atp1008
a(S'tema'
p1009
(dp1010
S'NOUN'
p1011
F1.0
s(lp1012
(g16
I1
tp1013
atp1014
a(S'de'
p1015
(dp1016
g579
F0.0
sS'CONJ'
p1017
F1.7e-05
sS'ADP'
p1018
F0.999983
s(lp1019
(g24
I2
tp1020
atp1021
a(S'la'
p1022
(dp1023
g579
F0.0
sS'PRON'
p1024
F0.0
sS'DET'
p1025
F0.999999
sS'NOUN'
p1026
F0.0
s(lp1027
tp1028
a(S'colaboraci\xc3\xb3n'
p1029
(dp1030
S'NOUN'
p1031
F1.0
s(lp1032
(g31
I3
tp1033
atp1034
a(S'-de'
p1035
(dp1036
S'ADV'
p1037
F0.004437
sS'NOUN'
p1038
F0.003453
sS'VERB'
p1039
F0.841332
sS'ADJ'
p1040
F0.150777
s(lp1041
(g34
I4
tp1042
atp1043
a(S'la'
p1044
(dp1045
S'PRON'
p1046
F0.001389
sS'DET'
p1047
F0.998607
sS'NOUN'
p1048
F1e-06
sg579
F3e-06
s(lp1049
(g44
I5
tp1050
atp1051
a(S'cooperaci\xc3\xb3n-'
p1052
(dp1053
S'ADJ'
p1054
F0.005321
sS'VERB'
p1055
F0.002051
sS'NOUN'
p1056
F0.992628
s(lp1057
(g58
I6
tp1058
atp1059
a(S'es'
p1060
(dp1061
S'VERB'
p1062
F1.0
s(lp1063
(g70
I8
tp1064
atp1065
a(S'muy'
p1066
(dp1067
S'ADV'
p1068
F1.0
s(lp1069
(g221
I9
tp1070
atp1071
a(S'importante'
p1072
(dp1073
S'VERB'
p1074
F0.292104
sS'ADJ'
p1075
F0.707896
s(lp1076
(g77
I10
tp1077
atp1078
a(S'como'
p1079
(dp1080
S'ADV'
p1081
F0.039833
sS'CONJ'
p1082
F0.9601660000000001
s(lp1083
(g97
I12
tp1084
atp1085
a(S'se'
p1086
(dp1087
S'PRON'
p1088
F0.999999
sS'VERB'
p1089
F0.0
s(lp1090
(g243
I13
tp1091
atp1092
a(S'menciona'
p1093
(dp1094
S'VERB'
p1095
F1.0
s(lp1096
(g104
I14
tp1097
atp1098
a(S'en'
p1099
(dp1100
g579
F0.0
sS'CONJ'
p1101
F1e-06
sS'ADP'
p1102
F0.999999
s(lp1103
(g112
I15
tp1104
atp1105
a(S'el'
p1106
(dp1107
S'PRON'
p1108
F5.2e-05
sS'DET'
p1109
F0.999948
s(lp1110
(g148
I20
tp1111
atp1112
a(S'informe'
p1113
(dp1114
S'VERB'
p1115
F0.000111
sS'NOUN'
p1116
F0.999889
s(lp1117
(g141
I21
tp1118
atp1119
a(S'de'
p1120
(dp1121
g579
F0.0
sS'CONJ'
p1122
F1.7e-05
sS'ADP'
p1123
F0.999983
s(lp1124
(g128
I17
tp1125
atp1126
a(S'la'
p1127
(dp1128
g579
F0.0
sS'PRON'
p1129
F0.0
sS'DET'
p1130
F0.999999
sS'NOUN'
p1131
F0.0
s(lp1132
tp1133
a(S'se\xc3\xb1ora'
p1134
(dp1135
S'NOUN'
p1136
F1.0
s(lp1137
(g157
I18
tp1138
atp1139
a(S'm\xc4\x83nescu'
p1140
(dp1141
S'ADJ'
p1142
F0.340216
sS'NOUN'
p1143
F0.659783
s(lp1144
(g166
I19
tp1145
atp1146
a(g36
(dp1147
g36
F1.0
s(lp1148
(g36
I22
tp1149
atp1150
as.