(dp0
S'fr'
p1
(lp2
(S'par'
p3
(dp4
S'NOUN'
p5
F9.8e-05
sS'ADP'
p6
F0.999902
s(lp7
tp8
a(S'contre'
p9
(dp10
S'VERB'
p11
F0.001761
sS'NOUN'
p12
F0.601343
sS'ADP'
p13
F0.396895
s(lp14
(S'however'
p15
I0
tp16
atp17
a(S','
p18
(dp19
S'.'
p20
F1.0
s(lp21
(g18
I1
tp22
atp23
a(S'je'
p24
(dp25
S'PRON'
p26
F1.0
s(lp27
(S'i'
p28
I2
tp29
atp30
a(S'suis'
p31
(dp32
S'VERB'
p33
F1.0
s(lp34
(S'am'
p35
I3
tp36
atp37
a(S'aussi'
p38
(dp39
S'ADV'
p40
F0.999394
sS'CONJ'
p41
F0.000606
s(lp42
(S'also'
p43
I4
tp44
atp45
a(S'tr\xc3\xa8s'
p46
(dp47
S'ADV'
p48
F1.0
s(lp49
(S'very'
p50
I5
tp51
atp52
a(S'pr\xc3\xa9occup\xc3\xa9'
p53
(dp54
S'VERB'
p55
F0.745627
sS'ADJ'
p56
F0.254373
s(lp57
(S'concerned'
p58
I6
tp59
atp60
a(g18
(dp61
g20
F1.0
s(lp62
(g18
I7
tp63
atp64
a(S'madame'
p65
(dp66
S'NOUN'
p67
F1.0
s(lp68
(S'commissioner'
p69
I8
tp70
atp71
a(S'le'
p72
(dp73
S'PRON'
p74
F0.000277
sS'DET'
p75
F0.999723
s(lp76
tp77
a(S'commissaire'
p78
(dp79
S'NOUN'
p80
F1.0
s(lp81
(g69
I8
tp82
atp83
a(g18
(dp84
g20
F1.0
s(lp85
(g18
I9
tp86
atp87
a(S'par'
p88
(dp89
S'NOUN'
p90
F1e-06
sS'ADP'
p91
F0.999999
s(lp92
(S'about'
p93
I10
tp94
atp95
a(S'les'
p96
(dp97
S'PRON'
p98
F0.000698
sS'DET'
p99
F0.999301
sS'ADP'
p100
F2e-06
s(lp101
(S'the'
p102
I11
tp103
atp104
a(S'relations'
p105
(dp106
S'VERB'
p107
F0.000642
sS'NOUN'
p108
F0.999358
s(lp109
(S'relations'
p110
I13
tp111
atp112
a(S'commerciales'
p113
(dp114
S'NOUN'
p115
F0.031059
sS'ADJ'
p116
F0.968941
s(lp117
(S'commercial'
p118
I12
tp119
atp120
a(S"qu'"
p121
(dp122
S'ADJ'
p123
F0.130573
sS'VERB'
p124
F0.209344
sS'NOUN'
p125
F0.660082
s(lp126
(S'that'
p127
I14
tp128
atp129
a(S'entretient'
p130
(dp131
S'VERB'
p132
F1.0
s(lp133
(S'maintains'
p134
I18
tp135
atp136
a(S"l'"
p137
(dp138
S'NOUN'
p139
F0.087886
sS'VERB'
p140
F0.7995690000000001
sS'ADJ'
p141
F0.112546
s(lp142
(S'the'
p143
I15
tp144
atp145
a(S'union'
p146
(dp147
S'NOUN'
p148
F1.0
s(lp149
(S'union'
p150
I17
tp151
atp152
a(S'europ\xc3\xa9enne'
p153
(dp154
S'NOUN'
p155
F0.017229
sS'ADJ'
p156
F0.982771
s(lp157
(S'european'
p158
I16
tp159
atp160
a(S'avec'
p161
(dp162
S'ADV'
p163
F0.002109
sS'ADP'
p164
F0.997891
s(lp165
(S'with'
p166
I19
tp167
atp168
a(S'ce'
p169
(dp170
S'PRON'
p171
F1.0
s(lp172
(S'this'
p173
I20
tp174
atp175
a(S'pays'
p176
(dp177
S'NOUN'
p178
F1.0
s(lp179
(S'country'
p180
I21
tp181
atp182
a(g20
(dp183
g20
F1.0
s(lp184
(g20
I22
tp185
atp186
asS'en'
p187
(lp188
(g15
(dp189
S'ADV'
p190
F1.0
s(lp191
(g15
I0
tp192
atp193
a(g18
(dp194
g20
F1.0
s(lp195
(g18
I1
tp196
atp197
a(g28
(dp198
S'X'
p199
F0.004763
sS'NOUN'
p200
F0.995238
s(lp201
(g28
I2
tp202
atp203
a(g35
(dp204
S'ADV'
p205
F0.007057
sS'VERB'
p206
F0.992943
s(lp207
(g35
I3
tp208
atp209
a(g43
(dp210
S'ADV'
p211
F1.0
s(lp212
(g43
I4
tp213
atp214
a(g50
(dp215
S'ADV'
p216
F0.994261
sS'ADJ'
p217
F0.005739
s(lp218
(g50
I5
tp219
atp220
a(g58
(dp221
S'VERB'
p222
F0.7996500000000001
sS'ADJ'
p223
F0.20035
s(lp224
(g58
I6
tp225
atp226
a(g18
(dp227
g20
F1.0
s(lp228
(g18
I7
tp229
atp230
a(g69
(dp231
S'NOUN'
p232
F1.0
s(lp233
(g69
I8
tp234
atp235
a(g18
(dp236
g20
F1.0
s(lp237
(g18
I9
tp238
atp239
a(g93
(dp240
S'ADV'
p241
F0.376646
sS'ADP'
p242
F0.623354
s(lp243
(g93
I10
tp244
atp245
a(g102
(dp246
S'NOUN'
p247
F1e-06
sS'DET'
p248
F0.999999
s(lp249
(g102
I11
tp250
atp251
a(g118
(dp252
S'NOUN'
p253
F0.039744
sS'ADJ'
p254
F0.960256
s(lp255
(g118
I12
tp256
atp257
a(g110
(dp258
S'NOUN'
p259
F1.0
s(lp260
(g110
I13
tp261
atp262
a(g127
(dp263
S'ADV'
p264
F0.00055
sS'DET'
p265
F0.19597299999999998
sS'ADP'
p266
F0.803477
s(lp267
(g127
I14
tp268
atp269
a(g143
(dp270
S'NOUN'
p271
F1e-06
sS'DET'
p272
F0.999999
s(lp273
(g143
I15
tp274
atp275
a(g158
(dp276
S'NOUN'
p277
F0.10881199999999999
sS'VERB'
p278
F1.1e-05
sS'ADJ'
p279
F0.891178
s(lp280
(g158
I16
tp281
atp282
a(g150
(dp283
S'NOUN'
p284
F1.0
s(lp285
(g150
I17
tp286
atp287
a(g134
(dp288
S'VERB'
p289
F1.0
s(lp290
(g134
I18
tp291
atp292
a(g166
(dp293
S'ADP'
p294
F1.0
s(lp295
(g166
I19
tp296
atp297
a(g173
(dp298
S'ADV'
p299
F3e-06
sS'NOUN'
p300
F1.9e-05
sS'DET'
p301
F0.999978
s(lp302
(g173
I20
tp303
atp304
a(g180
(dp305
S'NOUN'
p306
F1.0
s(lp307
(g180
I21
tp308
atp309
a(g20
(dp310
g20
F1.0
s(lp311
(g20
I22
tp312
atp313
asS'nl'
p314
(lp315
(S'ik'
p316
(dp317
S'PRON'
p318
F0.999981
sS'NOUN'
p319
F1.9e-05
s(lp320
(g28
I2
tp321
atp322
a(S'ben'
p323
(dp324
S'VERB'
p325
F1.0
s(lp326
(g35
I3
tp327
atp328
a(S'echter'
p329
(dp330
S'ADV'
p331
F0.999993
sS'ADJ'
p332
F7e-06
s(lp333
(g15
I0
tp334
atp335
a(S'ook'
p336
(dp337
S'ADV'
p338
F1.0
s(lp339
(g43
I4
tp340
atp341
a(S'zeer'
p342
(dp343
S'NOUN'
p344
F0.00011
sS'ADJ'
p345
F0.99989
s(lp346
(g50
I5
tp347
atp348
a(S'bezorgd'
p349
(dp350
S'VERB'
p351
F0.997645
sS'ADJ'
p352
F0.002355
s(lp353
(g58
I6
tp354
atp355
a(g18
(dp356
g20
F1.0
s(lp357
(g18
I7
tp358
atp359
a(S'commissaris'
p360
(dp361
S'NOUN'
p362
F1.0
s(lp363
(g69
I8
tp364
atp365
a(g18
(dp366
g20
F1.0
s(lp367
(g18
I9
tp368
atp369
a(S'over'
p370
(dp371
S'ADV'
p372
F0.069212
sS'ADP'
p373
F0.930788
s(lp374
(g93
I10
tp375
atp376
a(S'de'
p377
(dp378
S'DET'
p379
F1.0
s(lp380
(g102
I11
tp381
atp382
a(S'handelsbetrekkingen'
p383
(dp384
S'NOUN'
p385
F1.0
s(lp386
(g110
I13
tp387
atp388
a(S'die'
p389
(dp390
S'PRON'
p391
F1.000001
s(lp392
(g127
I14
tp393
atp394
a(S'de'
p395
(dp396
S'DET'
p397
F1.0
s(lp398
(g143
I15
tp399
atp400
a(S'europese'
p401
(dp402
S'NOUN'
p403
F1.0
s(lp404
(g158
I16
tp405
atp406
a(S'unie'
p407
(dp408
S'NOUN'
p409
F1.0
s(lp410
(g150
I17
tp411
atp412
a(S'met'
p413
(dp414
S'ADP'
p415
F1.0
s(lp416
(g166
I19
tp417
atp418
a(S'het'
p419
(dp420
S'PRON'
p421
F0.000927
sS'DET'
p422
F0.999073
s(lp423
(g173
I20
tp424
atp425
a(S'land'
p426
(dp427
S'VERB'
p428
F0.0
sS'NOUN'
p429
F1.0
s(lp430
(g180
I21
tp431
atp432
a(S'onderhoudt'
p433
(dp434
S'VERB'
p435
F1.0
s(lp436
(g134
I18
tp437
atp438
a(g20
(dp439
g20
F1.0
s(lp440
(g20
I22
tp441
atp442
asS'de'
p443
(lp444
(S'ich'
p445
(dp446
S'PRON'
p447
F1.0
s(lp448
(g28
I2
tp449
atp450
a(S'bin'
p451
(dp452
S'VERB'
p453
F1.0
s(lp454
(g35
I3
tp455
atp456
a(g18
(dp457
g20
F1.0
s(lp458
(g18
I7
tp459
atp460
a(S'frau'
p461
(dp462
S'ADJ'
p463
F0.9090860000000001
s(lp464
tp465
a(S'kommissarin'
p466
(dp467
S'ADJ'
p468
F0.351539
sS'NOUN'
p469
F0.609054
s(lp470
(g69
I8
tp471
atp472
a(g18
(dp473
g20
F1.0
s(lp474
(g18
I9
tp475
atp476
a(S'jedoch'
p477
(dp478
S'ADV'
p479
F0.885728
sS'CONJ'
p480
F0.114272
s(lp481
(g15
I0
tp482
atp483
a(S'auch'
p484
(dp485
S'ADV'
p486
F1.0
s(lp487
(g43
I4
tp488
atp489
a(S'\xc3\xbcber'
p490
(dp491
S'PRT'
p492
F6e-05
sS'ADP'
p493
F0.99994
s(lp494
(g93
I10
tp495
atp496
a(S'die'
p497
(dp498
S'PRON'
p499
F5.5e-05
sS'DET'
p500
F0.999929
s(lp501
(g102
I11
tp502
atp503
a(S'handelsbeziehungen'
p504
(dp505
S'ADJ'
p506
F0.001273
sS'NOUN'
p507
F0.998509
s(lp508
(g118
I12
tp509
atp510
a(g18
(dp511
g20
F1.0
s(lp512
tp513
a(S'welche'
p514
(dp515
S'PRON'
p516
F0.966391
s(lp517
(g127
I14
tp518
atp519
a(S'die'
p520
(dp521
S'PRON'
p522
F0.002195
sS'DET'
p523
F0.997475
s(lp524
(g143
I15
tp525
atp526
a(S'europ\xc3\xa4ische'
p527
(dp528
S'ADJ'
p529
F1.0
s(lp530
(g158
I16
tp531
atp532
a(S'union'
p533
(dp534
S'ADJ'
p535
F0.003134
sS'NOUN'
p536
F0.993687
s(lp537
(g150
I17
tp538
atp539
a(S'mit'
p540
(dp541
S'PRT'
p542
F0.000145
sS'ADP'
p543
F0.999855
s(lp544
(g166
I19
tp545
atp546
a(S'diesem'
p547
(dp548
S'PRON'
p549
F1.0
s(lp550
(g173
I20
tp551
atp552
a(S'land'
p553
(dp554
S'ADJ'
p555
F0.188609
sS'NOUN'
p556
F0.69101
s(lp557
(g180
I21
tp558
atp559
a(S'unterh\xc3\xa4lt'
p560
(dp561
S'VERB'
p562
F1.0
s(lp563
(g134
I18
tp564
atp565
a(g18
(dp566
g20
F1.0
s(lp567
(g18
I1
tp568
atp569
a(S'\xc3\xa4u\xc3\x9ferst'
p570
(dp571
S'ADV'
p572
F0.998782
sS'VERB'
p573
F0.001218
s(lp574
(g50
I5
tp575
atp576
a(S'besorgt'
p577
(dp578
S'VERB'
p579
F0.263317
sS'ADJ'
p580
F0.711166
s(lp581
(g58
I6
tp582
atp583
a(g20
(dp584
g20
F1.0
s(lp585
(g20
I22
tp586
atp587
asS'it'
p588
(lp589
(S'tuttavia'
p590
(dp591
S'ADV'
p592
F1.0
s(lp593
(g15
I0
tp594
atp595
a(g18
(dp596
g20
F1.0
s(lp597
(g18
I1
tp598
atp599
a(S'nutro'
p600
(dp601
S'VERB'
p602
F1.0
s(lp603
(g35
I3
tp604
atp605
a(S'anche'
p606
(dp607
S'ADV'
p608
F0.999973
sS'NOUN'
p609
F2.7e-05
s(lp610
(g43
I4
tp611
atp612
a(S'grandi'
p613
(dp614
S'NOUN'
p615
F0.00014
sS'ADJ'
p616
F0.99986
s(lp617
(g50
I5
tp618
atp619
a(S'preoccupazioni'
p620
(dp621
S'NOUN'
p622
F1.0
s(lp623
(g58
I6
tp624
atp625
a(g18
(dp626
g20
F1.0
s(lp627
(g18
I7
tp628
atp629
a(S'signora'
p630
(dp631
S'NOUN'
p632
F1.0
s(lp633
tp634
a(S'commissario'
p635
(dp636
S'VERB'
p637
F0.118816
sS'NOUN'
p638
F0.881184
s(lp639
(g69
I8
tp640
atp641
a(g18
(dp642
g20
F1.0
s(lp643
(g18
I9
tp644
atp645
a(S'per'
p646
(dp647
S'CONJ'
p648
F0.216822
sS'ADP'
p649
F0.783178
s(lp650
(g93
I10
tp651
atp652
a(S'quanto'
p653
(dp654
S'ADV'
p655
F0.459484
sS'PRON'
p656
F0.530029
sS'ADJ'
p657
F0.009648
sS'NOUN'
p658
F0.000839
s(lp659
(g102
I11
tp660
atp661
a(S'concerne'
p662
(dp663
S'VERB'
p664
F1.0
s(lp665
tp666
a(S'le'
p667
(dp668
S'PRON'
p669
F0.0
sS'DET'
p670
F1.0
s(lp671
tp672
a(S'relazioni'
p673
(dp674
S'VERB'
p675
F0.000285
sS'NOUN'
p676
F0.999714
s(lp677
(g110
I13
tp678
atp679
a(S'commerciali'
p680
(dp681
S'VERB'
p682
F0.0
sS'ADJ'
p683
F1.0
s(lp684
(g118
I12
tp685
atp686
a(S'che'
p687
(dp688
S'PRON'
p689
F0.563362
sS'CONJ'
p690
F0.436448
sS'ADJ'
p691
F0.00019
s(lp692
(g127
I14
tp693
atp694
a(S"l'"
p695
(dp696
S'NOUN'
p697
F0.001597
sS'VERB'
p698
F0.990493
sS'ADJ'
p699
F0.00791
s(lp700
(g143
I15
tp701
atp702
a(S'unione'
p703
(dp704
S'NOUN'
p705
F1.0
s(lp706
(g150
I17
tp707
atp708
a(S'europea'
p709
(dp710
S'NOUN'
p711
F0.003863
sS'ADJ'
p712
F0.996137
s(lp713
(g158
I16
tp714
atp715
a(S'intrattiene'
p716
(dp717
S'VERB'
p718
F1.0
s(lp719
(g134
I18
tp720
atp721
a(S'con'
p722
(dp723
S'ADP'
p724
F1.0
s(lp725
(g166
I19
tp726
atp727
a(S'questo'
p728
(dp729
S'PRON'
p730
F1.0
s(lp731
(g173
I20
tp732
atp733
a(S'paese'
p734
(dp735
S'NOUN'
p736
F1.0
s(lp737
(g180
I21
tp738
atp739
a(g20
(dp740
g20
F1.0
s(lp741
(g20
I22
tp742
atp743
asS'sk'
p744
(lp745
(S'pani'
p746
(dp747
S'NOUN'
p748
F1.0
s(lp749
tp750
a(S'komis\xc3\xa1rka'
p751
(dp752
S'NOUN'
p753
F1.0
s(lp754
(g69
I8
tp755
atp756
a(g18
(dp757
g20
F1.0
s(lp758
(g18
I9
tp759
atp760
a(S'z\xc3\xa1rove\xc5\x88'
p761
(dp762
S'ADV'
p763
F1.0
s(lp764
(g43
I4
tp765
atp766
a(S'som'
p767
(dp768
S'VERB'
p769
F1.0
s(lp770
(g28
I2
tp771
atp772
a(S'v\xc5\xa1ak'
p773
(dp774
g199
F0.954181
sS'CONJ'
p775
F0.045819
s(lp776
(g15
I0
tp777
atp778
a(S've\xc4\xbemi'
p779
(dp780
S'ADV'
p781
F1.0
s(lp782
(g50
I5
tp783
atp784
a(S'znepokojen\xc3\xbd'
p785
(dp786
S'VERB'
p787
F1.0
s(lp788
(g58
I6
tp789
atp790
a(S'obchodn\xc3\xbdmi'
p791
(dp792
S'ADJ'
p793
F1.0
s(lp794
(g118
I12
tp795
atp796
a(S'vz\xc5\xa5ahmi'
p797
(dp798
S'NOUN'
p799
F1.0
s(lp800
(g110
I13
tp801
atp802
a(g18
(dp803
g20
F1.0
s(lp804
(g18
I7
tp805
atp806
a(S'ktor\xc3\xa9'
p807
(dp808
S'PRON'
p809
F1.0
s(lp810
(g127
I14
tp811
atp812
a(S'eur\xc3\xb3pska'
p813
(dp814
S'ADJ'
p815
F1.0
s(lp816
(g158
I16
tp817
atp818
a(S'\xc3\xbania'
p819
(dp820
S'NOUN'
p821
F1.0
s(lp822
(g150
I17
tp823
atp824
a(S'udr\xc5\xbeiava'
p825
(dp826
S'VERB'
p827
F1.0
s(lp828
(g134
I18
tp829
atp830
a(S's'
p831
(dp832
g199
F0.00047799999999999996
sS'CONJ'
p833
F3.9e-05
sS'NOUN'
p834
F6e-06
sS'ADP'
p835
F0.999409
sS'PRT'
p836
F6.8e-05
s(lp837
(g166
I19
tp838
atp839
a(S'touto'
p840
(dp841
S'PRON'
p842
F1.0
s(lp843
(g173
I20
tp844
atp845
a(S'krajinou'
p846
(dp847
S'NOUN'
p848
F1.0
s(lp849
(g180
I21
tp850
atp851
a(g20
(dp852
g20
F1.0
s(lp853
(g20
I22
tp854
atp855
asS'pl'
p856
(lp857
(S'jestem'
p858
(dp859
S'VERB'
p860
F1.0
s(lp861
(g35
I3
tp862
atp863
a(S'jednak'
p864
(dp865
S'PRT'
p866
F0.249888
sS'CONJ'
p867
F0.750112
s(lp868
(g15
I0
tp869
atp870
a(S'bardzo'
p871
(dp872
S'ADV'
p873
F1.0
s(lp874
(g50
I5
tp875
atp876
a(S'zaniepokojony'
p877
(dp878
S'VERB'
p879
F1.0
s(lp880
(g58
I6
tp881
atp882
a(g18
(dp883
g199
F0.0
sg20
F1.0
s(lp884
(g18
I7
tp885
atp886
a(S'panie'
p887
(dp888
S'NOUN'
p889
F1.0
s(lp890
tp891
a(S'komisarzu'
p892
(dp893
S'NOUN'
p894
F1.0
s(lp895
(g69
I8
tp896
atp897
a(g18
(dp898
g199
F0.0
sg20
F1.0
s(lp899
(g18
I9
tp900
atp901
a(S'stosunkami'
p902
(dp903
S'NOUN'
p904
F1.0
s(lp905
(g110
I13
tp906
atp907
a(S'handlowymi'
p908
(dp909
S'ADJ'
p910
F1.0
s(lp911
(g118
I12
tp912
atp913
a(g18
(dp914
g199
F0.0
sg20
F1.0
s(lp915
tp916
a(S'kt\xc3\xb3re'
p917
(dp918
S'ADJ'
p919
F0.9999999999999998
s(lp920
(g127
I14
tp921
atp922
a(S'unia'
p923
(dp924
S'ADV'
p925
F0.001943
sS'ADJ'
p926
F0.012754
sS'VERB'
p927
F0.31348099999999995
sS'NOUN'
p928
F0.6718209999999999
s(lp929
(g150
I17
tp930
atp931
a(S'europejska'
p932
(dp933
S'ADJ'
p934
F1.0
s(lp935
(g158
I16
tp936
atp937
a(S'utrzymuje'
p938
(dp939
S'VERB'
p940
F1.0
s(lp941
(g134
I18
tp942
atp943
a(S'z'
p944
(dp945
S'PRT'
p946
F1e-06
sS'VERB'
p947
F0.0
sS'NOUN'
p948
F1e-06
sS'ADP'
p949
F0.9999979999999999
sg199
F0.0
s(lp950
(g166
I19
tp951
atp952
a(S'tym'
p953
(dp954
S'ADV'
p955
F1.9e-05
sS'NOUN'
p956
F0.002098
sS'CONJ'
p957
F2e-06
sS'ADJ'
p958
F0.9978809999999999
sS'PRT'
p959
F0.0
s(lp960
(g173
I20
tp961
atp962
a(S'krajem'
p963
(dp964
S'NOUN'
p965
F1.0
s(lp966
(g180
I21
tp967
atp968
a(g20
(dp969
g20
F1.0
s(lp970
(g20
I22
tp971
atp972
asS'sl'
p973
(lp974
(S'vseeno'
p975
(dp976
S'ADV'
p977
F1.0
s(lp978
tp979
a(S'pa'
p980
(dp981
g199
F5.1e-05
sS'CONJ'
p982
F0.999949
s(lp983
(g15
I0
tp984
atp985
a(S'sem'
p986
(dp987
S'ADV'
p988
F0.038968
sS'PRT'
p989
F0.001282
sS'VERB'
p990
F0.959751
s(lp991
(g35
I3
tp992
atp993
a(g18
(dp994
g20
F1.0
s(lp995
(g18
I7
tp996
atp997
a(S'komisarka'
p998
(dp999
S'ADV'
p1000
F0.01657
sS'ADJ'
p1001
F0.107712
sS'VERB'
p1002
F0.037901
sS'NOUN'
p1003
F0.8378180000000001
s(lp1004
(g69
I8
tp1005
atp1006
a(g18
(dp1007
g20
F1.0
s(lp1008
(g18
I9
tp1009
atp1010
a(S'zelo'
p1011
(dp1012
S'ADV'
p1013
F1.0
s(lp1014
(g50
I5
tp1015
atp1016
a(S'zaskrbljen'
p1017
(dp1018
S'ADJ'
p1019
F1.0
s(lp1020
(g58
I6
tp1021
atp1022
a(S'zaradi'
p1023
(dp1024
S'ADP'
p1025
F1.0
s(lp1026
(g93
I10
tp1027
atp1028
a(S'trgovskih'
p1029
(dp1030
S'ADJ'
p1031
F1.0
s(lp1032
(g118
I12
tp1033
atp1034
a(S'odnosov'
p1035
(dp1036
S'NOUN'
p1037
F1.0
s(lp1038
(g110
I13
tp1039
atp1040
a(S'evropske'
p1041
(dp1042
S'ADJ'
p1043
F1.0
s(lp1044
(g158
I16
tp1045
atp1046
a(S'unije'
p1047
(dp1048
S'NOUN'
p1049
F1.0
s(lp1050
(g150
I17
tp1051
atp1052
a(g831
(dp1053
S'VERB'
p1054
F0.000483
sS'NOUN'
p1055
F0.000185
sS'ADP'
p1056
F0.999332
s(lp1057
(g166
I19
tp1058
atp1059
a(S'to'
p1060
(dp1061
S'PRON'
p1062
F0.99986
sg199
F0.000142
s(lp1063
(g173
I20
tp1064
atp1065
a(S'dr\xc5\xbeavo'
p1066
(dp1067
S'NOUN'
p1068
F1.0
s(lp1069
(g180
I21
tp1070
atp1071
a(g20
(dp1072
g20
F1.0
s(lp1073
(g20
I22
tp1074
atp1075
asS'es'
p1076
(lp1077
(S'pero'
p1078
(dp1079
S'CONJ'
p1080
F0.999469
sS'NOUN'
p1081
F0.000531
s(lp1082
(g15
I0
tp1083
atp1084
a(S'tambi\xc3\xa9n'
p1085
(dp1086
S'ADV'
p1087
F1.0
s(lp1088
(g43
I4
tp1089
atp1090
a(S'estoy'
p1091
(dp1092
S'VERB'
p1093
F1.0
s(lp1094
(g35
I3
tp1095
atp1096
a(S'preocupado'
p1097
(dp1098
S'VERB'
p1099
F0.16097
sS'ADJ'
p1100
F0.83903
s(lp1101
(g58
I6
tp1102
atp1103
a(g18
(dp1104
g20
F1.0
s(lp1105
(g18
I7
tp1106
atp1107
a(S'comisaria'
p1108
(dp1109
S'ADJ'
p1110
F0.025335
sS'VERB'
p1111
F0.105739
sS'NOUN'
p1112
F0.868926
s(lp1113
(g69
I8
tp1114
atp1115
a(g18
(dp1116
g20
F1.0
s(lp1117
(g18
I9
tp1118
atp1119
a(S'por'
p1120
(dp1121
S'ADP'
p1122
F1.0
s(lp1123
(g93
I10
tp1124
atp1125
a(S'las'
p1126
(dp1127
S'PRON'
p1128
F0.0
sS'DET'
p1129
F1.0
s(lp1130
(g102
I11
tp1131
atp1132
a(S'relaciones'
p1133
(dp1134
S'NOUN'
p1135
F1.0
s(lp1136
(g110
I13
tp1137
atp1138
a(S'comerciales'
p1139
(dp1140
S'ADJ'
p1141
F1.0
s(lp1142
(g118
I12
tp1143
atp1144
a(S'que'
p1145
(dp1146
g199
F0.0
sS'CONJ'
p1147
F1.0
s(lp1148
(g127
I14
tp1149
atp1150
a(S'la'
p1151
(dp1152
S'PRON'
p1153
F0.000362
sS'DET'
p1154
F0.999637
sg199
F0.0
sS'NOUN'
p1155
F0.0
s(lp1156
(g143
I15
tp1157
atp1158
a(S'ue'
p1159
(dp1160
S'VERB'
p1161
F3.8e-05
sS'NOUN'
p1162
F0.999961
s(lp1163
(g150
I17
tp1164
atp1165
a(S'mantiene'
p1166
(dp1167
S'VERB'
p1168
F1.0
s(lp1169
(g134
I18
tp1170
atp1171
a(S'con'
p1172
(dp1173
S'ADP'
p1174
F1.0
s(lp1175
(g166
I19
tp1176
atp1177
a(S'este'
p1178
(dp1179
S'PRON'
p1180
F0.999828
sS'NOUN'
p1181
F0.000172
s(lp1182
(g173
I20
tp1183
atp1184
a(S'pa\xc3\xads'
p1185
(dp1186
S'NOUN'
p1187
F1.0
s(lp1188
(g180
I21
tp1189
atp1190
a(g20
(dp1191
g20
F1.0
s(lp1192
(g20
I22
tp1193
atp1194
as.