(dp0
S'fr'
p1
(lp2
(S'je'
p3
(dp4
S'PRON'
p5
F1.0
s(lp6
(S'i'
p7
I0
tp8
atp9
a(S'crois'
p10
(dp11
S'VERB'
p12
F1.0
s(lp13
(S'think'
p14
I1
tp15
atp16
a(S'que'
p17
(dp18
S'ADV'
p19
F0.106549
sS'PRON'
p20
F0.000951
sS'CONJ'
p21
F0.8925
s(lp22
(S'that'
p23
I2
tp24
atp25
a(S'votre'
p26
(dp27
S'PRON'
p28
F1.0
s(lp29
(S'your'
p30
I3
tp31
atp32
a(S'rapport'
p33
(dp34
S'NOUN'
p35
F1.0
s(lp36
(S'report'
p37
I4
tp38
atp39
a(S'est'
p40
(dp41
S'VERB'
p42
F0.999889
sS'NOUN'
p43
F0.000111
s(lp44
(S'is'
p45
I5
tp46
atp47
a(S'un'
p48
(dp49
S'NOUN'
p50
F0.003891
sS'NUM'
p51
F0.000941
sS'DET'
p52
F0.995167
s(lp53
(S'an'
p54
I6
tp55
atp56
a(S'excellent'
p57
(dp58
S'VERB'
p59
F0.000106
sS'ADJ'
p60
F0.999894
s(lp61
(S'excellent'
p62
I7
tp63
atp64
a(S'point'
p65
(dp66
S'ADV'
p67
F0.190511
sS'VERB'
p68
F0.029677999999999996
sS'NOUN'
p69
F0.779811
s(lp70
(S'point'
p71
I9
tp72
atp73
a(S'de'
p74
(dp75
S'ADP'
p76
F1.0
s(lp77
(S'for'
p78
I10
tp79
atp80
a(S'd\xc3\xa9part'
p81
(dp82
S'VERB'
p83
F0.00082
sS'NOUN'
p84
F0.99918
s(lp85
(S'starting'
p86
I8
tp87
atp88
a(S'pour'
p89
(dp90
S'CONJ'
p91
F0.162061
sS'ADP'
p92
F0.837939
s(lp93
(g78
I10
tp94
atp95
a(S'les'
p96
(dp97
S'PRON'
p98
F0.000127
sS'DET'
p99
F0.999869
sS'ADP'
p100
F3e-06
s(lp101
tp102
a(S'discussions'
p103
(dp104
S'NOUN'
p105
F1.0
s(lp106
tp107
a(S'\xc3\xa0'
p108
(dp109
S'ADP'
p110
F1.0
s(lp111
(g78
I10
tp112
atp113
a(S'tenir'
p114
(dp115
S'VERB'
p116
F1.0
s(lp117
(S'discussions'
p118
I11
tp119
atp120
a(S'au'
p121
(dp122
S'ADP'
p123
F1.0
s(lp124
tp125
a(S'sein'
p126
(dp127
S'NOUN'
p128
F1.0
s(lp129
(S'in'
p130
I12
tp131
atp132
a(S'du'
p133
(dp134
S'ADP'
p135
F1.0
s(lp136
(S'the'
p137
I13
tp138
atp139
a(S'futur'
p140
(dp141
S'NOUN'
p142
F0.061916
sS'ADJ'
p143
F0.938084
s(lp144
(S'future'
p145
I14
tp146
atp147
a(S'groupe'
p148
(dp149
S'VERB'
p150
F0.017947
sS'NOUN'
p151
F0.982052
s(lp152
(S'group'
p153
I17
tp154
atp155
a(S'de'
p156
(dp157
S'ADP'
p158
F1.0
s(lp159
tp160
a(S'travail'
p161
(dp162
S'NOUN'
p163
F1.0
s(lp164
(S'working'
p165
I16
tp166
atp167
a(S'interinstitutionnel'
p168
(dp169
S'ADJ'
p170
F1.0
s(lp171
(S'interinstitutional'
p172
I15
tp173
atp174
a(S'que'
p175
(dp176
S'ADV'
p177
F0.000542
sS'PRON'
p178
F0.220574
sS'CONJ'
p179
F0.778884
s(lp180
(S'that'
p181
I18
tp182
atp183
a(S'vous'
p184
(dp185
S'PRON'
p186
F1.0
s(lp187
(S'you'
p188
I19
tp189
atp190
a(S'sugg\xc3\xa9rez'
p191
(dp192
S'VERB'
p193
F1.0
s(lp194
tp195
a(S'de'
p196
(dp197
S'ADP'
p198
F1.0
s(lp199
tp200
a(S'cr\xc3\xa9er'
p201
(dp202
S'VERB'
p203
F1.0
s(lp204
(S'suggest'
p205
I20
tp206
atp207
a(S'.'
p208
(dp209
g208
F1.0
s(lp210
(g208
I21
tp211
atp212
asS'en'
p213
(lp214
(g7
(dp215
S'X'
p216
F0.005196
sS'NOUN'
p217
F0.994804
s(lp218
(g7
I0
tp219
atp220
a(g14
(dp221
S'VERB'
p222
F0.997406
sS'NOUN'
p223
F0.002595
s(lp224
(g14
I1
tp225
atp226
a(g23
(dp227
S'ADV'
p228
F0.000322
sS'DET'
p229
F0.009285
sS'ADP'
p230
F0.990392
s(lp231
(g23
I2
tp232
atp233
a(g30
(dp234
S'PRON'
p235
F1.0
s(lp236
(g30
I3
tp237
atp238
a(g37
(dp239
S'VERB'
p240
F1.7e-05
sS'NOUN'
p241
F0.999983
s(lp242
(g37
I4
tp243
atp244
a(g45
(dp245
S'VERB'
p246
F1.0
s(lp247
(g45
I5
tp248
atp249
a(g54
(dp250
S'DET'
p251
F1.0
s(lp252
(g54
I6
tp253
atp254
a(g62
(dp255
S'ADJ'
p256
F1.0
s(lp257
(g62
I7
tp258
atp259
a(g86
(dp260
S'NOUN'
p261
F0.218969
sS'VERB'
p262
F0.45752
sS'ADJ'
p263
F0.323512
s(lp264
(g86
I8
tp265
atp266
a(g71
(dp267
S'VERB'
p268
F0.002554
sS'NOUN'
p269
F0.997447
s(lp270
(g71
I9
tp271
atp272
a(g78
(dp273
S'ADP'
p274
F1.0
s(lp275
(g78
I10
tp276
atp277
a(g118
(dp278
S'NOUN'
p279
F1.0
s(lp280
(g118
I11
tp281
atp282
a(g130
(dp283
S'ADV'
p284
F0.000295
sS'PRT'
p285
F0.000234
sS'ADP'
p286
F0.999471
s(lp287
(g130
I12
tp288
atp289
a(g137
(dp290
S'NOUN'
p291
F1e-06
sS'DET'
p292
F0.999999
s(lp293
(g137
I13
tp294
atp295
a(g145
(dp296
S'NOUN'
p297
F0.112404
sS'ADJ'
p298
F0.887596
s(lp299
(g145
I14
tp300
atp301
a(g172
(dp302
S'NOUN'
p303
F0.24740900000000002
sS'ADJ'
p304
F0.752591
s(lp305
(g172
I15
tp306
atp307
a(g165
(dp308
S'NOUN'
p309
F0.266756
sS'VERB'
p310
F0.434291
sS'ADJ'
p311
F0.298954
s(lp312
(g165
I16
tp313
atp314
a(g153
(dp315
S'VERB'
p316
F0.000419
sS'NOUN'
p317
F0.999582
s(lp318
(g153
I17
tp319
atp320
a(g181
(dp321
S'ADV'
p322
F0.000224
sS'DET'
p323
F0.162214
sS'ADP'
p324
F0.837562
s(lp325
(g181
I18
tp326
atp327
a(g188
(dp328
S'PRON'
p329
F1.0
s(lp330
(g188
I19
tp331
atp332
a(g205
(dp333
S'VERB'
p334
F1.0
s(lp335
(g205
I20
tp336
atp337
a(g208
(dp338
g208
F1.0
s(lp339
(g208
I21
tp340
atp341
asS'nl'
p342
(lp343
(S'ik'
p344
(dp345
S'PRON'
p346
F0.999981
sS'NOUN'
p347
F1.9e-05
s(lp348
(g7
I0
tp349
atp350
a(S'vind'
p351
(dp352
S'VERB'
p353
F1.0
s(lp354
(g14
I1
tp355
atp356
a(S'uw'
p357
(dp358
S'PRON'
p359
F1.0
s(lp360
(g30
I3
tp361
atp362
a(S'verslag'
p363
(dp364
S'NOUN'
p365
F1.0
s(lp366
(g37
I4
tp367
atp368
a(S'een'
p369
(dp370
S'ADJ'
p371
F1e-05
sS'PRON'
p372
F7.2e-05
sS'NUM'
p373
F2.3e-05
sS'DET'
p374
F0.999895
s(lp375
(g54
I6
tp376
atp377
a(S'uitstekend'
p378
(dp379
S'VERB'
p380
F0.136608
sS'ADJ'
p381
F0.863392
s(lp382
(g62
I7
tp383
atp384
a(S'vertrekpunt'
p385
(dp386
S'NOUN'
p387
F1.0
s(lp388
(g86
I8
tp389
atp390
a(S'voor'
p391
(dp392
S'ADV'
p393
F0.003189
sS'CONJ'
p394
F3e-06
sS'NOUN'
p395
F0.0
sS'ADP'
p396
F0.996808
s(lp397
(g78
I10
tp398
atp399
a(S'gesprekken'
p400
(dp401
S'NOUN'
p402
F1.0
s(lp403
(g118
I11
tp404
atp405
a(S'in'
p406
(dp407
S'ADV'
p408
F0.003438
sS'VERB'
p409
F2e-06
sS'ADP'
p410
F0.99656
s(lp411
(g130
I12
tp412
atp413
a(S'de'
p414
(dp415
S'DET'
p416
F1.0
s(lp417
(g137
I13
tp418
atp419
a(S'toekomstige'
p420
(dp421
S'NOUN'
p422
F0.002591
sS'ADJ'
p423
F0.997409
s(lp424
(g145
I14
tp425
atp426
a(S'interinstitutionele'
p427
(dp428
S'NOUN'
p429
F0.09520200000000001
sS'ADJ'
p430
F0.904798
s(lp431
(g172
I15
tp432
atp433
a(S'werkgroep'
p434
(dp435
S'NOUN'
p436
F1.0
s(lp437
(g165
I16
tp438
atp439
a(S'die'
p440
(dp441
S'PRON'
p442
F1.0
s(lp443
(g181
I18
tp444
atp445
a(S'u'
p446
(dp447
S'PRON'
p448
F0.999756
sS'NOUN'
p449
F0.00024400000000000002
s(lp450
(g188
I19
tp451
atp452
a(S'voorstelt'
p453
(dp454
S'VERB'
p455
F1.0
s(lp456
(g205
I20
tp457
atp458
a(g208
(dp459
g208
F1.0
s(lp460
(g208
I21
tp461
atp462
asS'de'
p463
(lp464
(S'ich'
p465
(dp466
S'PRON'
p467
F1.0
s(lp468
(g7
I0
tp469
atp470
a(S'glaube'
p471
(dp472
S'VERB'
p473
F1.0
s(lp474
(g14
I1
tp475
atp476
a(S','
p477
(dp478
g208
F1.0
s(lp479
(g23
I2
tp480
atp481
a(S'ihr'
p482
(dp483
S'PRON'
p484
F1.0
s(lp485
(g30
I3
tp486
atp487
a(S'bericht'
p488
(dp489
S'ADJ'
p490
F0.000218
sS'NOUN'
p491
F0.999536
s(lp492
(g37
I4
tp493
atp494
a(S'stellt'
p495
(dp496
S'VERB'
p497
F1.0
s(lp498
(g45
I5
tp499
atp500
a(S'einen'
p501
(dp502
S'PRON'
p503
F0.001795
sS'DET'
p504
F0.997813
s(lp505
(g54
I6
tp506
atp507
a(S'hervorragenden'
p508
(dp509
S'ADJ'
p510
F1.0
s(lp511
(g62
I7
tp512
atp513
a(S'ausgangspunkt'
p514
(dp515
S'VERB'
p516
F1.8e-05
sS'NOUN'
p517
F0.999955
s(lp518
(g86
I8
tp519
atp520
a(S'f\xc3\xbcr'
p521
(dp522
S'ADP'
p523
F1.0
s(lp524
(g78
I10
tp525
atp526
a(S'diskussionen'
p527
(dp528
S'ADJ'
p529
F0.000407
sS'NOUN'
p530
F0.999448
s(lp531
(g118
I11
tp532
atp533
a(S'in'
p534
(dp535
S'ADP'
p536
F1.0
s(lp537
(g130
I12
tp538
atp539
a(S'der'
p540
(dp541
S'PRON'
p542
F6.7e-05
sS'DET'
p543
F0.999928
s(lp544
(g137
I13
tp545
atp546
a(S'k\xc3\xbcnftigen'
p547
(dp548
S'ADJ'
p549
F1.0
s(lp550
(g145
I14
tp551
atp552
a(S'interinstitutionellen'
p553
(dp554
S'NOUN'
p555
F0.443227
sS'ADJ'
p556
F0.556367
s(lp557
(g172
I15
tp558
atp559
a(S'arbeitsgruppe'
p560
(dp561
S'ADJ'
p562
F0.327256
sS'NOUN'
p563
F0.653139
s(lp564
(g165
I16
tp565
atp566
a(S'dar'
p567
(dp568
S'PRT'
p569
F1.0
s(lp570
tp571
a(g477
(dp572
g208
F1.0
s(lp573
tp574
a(S'die'
p575
(dp576
S'PRON'
p577
F0.999622
sS'DET'
p578
F0.000205
s(lp579
(g181
I18
tp580
atp581
a(S'sie'
p582
(dp583
S'PRON'
p584
F1.0
s(lp585
(g188
I19
tp586
atp587
a(S'vorschlagen'
p588
(dp589
S'VERB'
p590
F1.0
s(lp591
(g205
I20
tp592
atp593
a(g208
(dp594
g208
F1.0
s(lp595
(g208
I21
tp596
atp597
asS'it'
p598
(lp599
(S'ritengo'
p600
(dp601
S'VERB'
p602
F1.0
s(lp603
(g14
I1
tp604
atp605
a(S'che'
p606
(dp607
S'PRON'
p608
F0.984425
sS'CONJ'
p609
F0.014926
sS'ADJ'
p610
F0.00065
s(lp611
(g23
I2
tp612
atp613
a(S'la'
p614
(dp615
S'PRON'
p616
F0.00016
sS'DET'
p617
F0.99984
s(lp618
tp619
a(S'vostra'
p620
(dp621
S'PRON'
p622
F1.0
s(lp623
(g30
I3
tp624
atp625
a(S'relazione'
p626
(dp627
S'NOUN'
p628
F1.0
s(lp629
(g37
I4
tp630
atp631
a(S'sia'
p632
(dp633
S'CONJ'
p634
F0.605316
sS'VERB'
p635
F0.394683
s(lp636
(g45
I5
tp637
atp638
a(S'un'
p639
(dp640
S'PRON'
p641
F0.002203
sS'DEF'
p642
F0.997797
s(lp643
(g54
I6
tp644
atp645
a(S'eccellente'
p646
(dp647
S'NOUN'
p648
F0.124046
sS'VERB'
p649
F7.3e-05
sS'ADJ'
p650
F0.875881
s(lp651
(g62
I7
tp652
atp653
a(S'punto'
p654
(dp655
S'ADV'
p656
F0.002849
sS'ADJ'
p657
F0.004759
sS'VERB'
p658
F0.007928
sS'NOUN'
p659
F0.984464
s(lp660
(g71
I9
tp661
atp662
a(S'di'
p663
(dp664
S'CONJ'
p665
F4e-06
sS'ADP'
p666
F0.999996
s(lp667
tp668
a(S'partenza'
p669
(dp670
S'NOUN'
p671
F1.0
s(lp672
(g86
I8
tp673
atp674
a(S'per'
p675
(dp676
S'CONJ'
p677
F0.052955
sS'ADP'
p678
F0.947045
s(lp679
(g78
I10
tp680
atp681
a(S'le'
p682
(dp683
S'PRON'
p684
F7.6e-05
sS'DET'
p685
F0.999924
s(lp686
tp687
a(S'discussioni'
p688
(dp689
S'NOUN'
p690
F1.0
s(lp691
(g118
I11
tp692
atp693
a(S'nel'
p694
(dp695
S'ADP'
p696
F1.0
s(lp697
(g130
I12
tp698
atp699
a(S'futuro'
p700
(dp701
S'NOUN'
p702
F0.409488
sS'ADJ'
p703
F0.590512
s(lp704
(g145
I14
tp705
atp706
a(S'gruppo'
p707
(dp708
S'NOUN'
p709
F1.0
s(lp710
(g153
I17
tp711
atp712
a(S'di'
p713
(dp714
S'CONJ'
p715
F4e-06
sS'ADP'
p716
F0.999996
s(lp717
tp718
a(S'lavoro'
p719
(dp720
S'VERB'
p721
F4.3e-05
sS'NOUN'
p722
F0.999957
s(lp723
(g165
I16
tp724
atp725
a(S'interistituzionale'
p726
(dp727
S'NOUN'
p728
F1.0
s(lp729
(g172
I15
tp730
atp731
a(S'che'
p732
(dp733
S'PRON'
p734
F0.954039
sS'CONJ'
p735
F0.045424
sS'ADJ'
p736
F0.000537
s(lp737
(g181
I18
tp738
atp739
a(S'voi'
p740
(dp741
S'PRON'
p742
F0.996344
sS'NOUN'
p743
F0.003656
s(lp744
(g188
I19
tp745
atp746
a(S'stessi'
p747
(dp748
S'NOUN'
p749
F0.00045
sS'VERB'
p750
F0.944994
sS'ADJ'
p751
F0.054556
s(lp752
tp753
a(S'suggerite'
p754
(dp755
S'VERB'
p756
F1.0
s(lp757
(g205
I20
tp758
atp759
a(g208
(dp760
g208
F1.0
s(lp761
(g208
I21
tp762
atp763
asS'sk'
p764
(lp765
(S'domnievam'
p766
(dp767
S'VERB'
p768
F1.0
s(lp769
(g14
I1
tp770
atp771
a(S'sa'
p772
(dp773
S'PRT'
p774
F0.999842
sS'ADP'
p775
F0.0
sg216
F0.00015800000000000002
s(lp776
tp777
a(g477
(dp778
g208
F1.0
s(lp779
(g14
I1
tp780
atp781
a(S'\xc5\xbee'
p782
(dp783
g216
F0.000352
sS'CONJ'
p784
F0.999647
s(lp785
(g23
I2
tp786
atp787
a(S'va\xc5\xa1a'
p788
(dp789
S'PRON'
p790
F1.0
s(lp791
(g30
I3
tp792
atp793
a(S'spr\xc3\xa1va'
p794
(dp795
S'VERB'
p796
F0.000376
sS'NOUN'
p797
F0.999624
s(lp798
(g37
I4
tp799
atp800
a(S'je'
p801
(dp802
g216
F6.6e-05
sS'VERB'
p803
F0.999917
sS'PRON'
p804
F1.6e-05
s(lp805
(g45
I5
tp806
atp807
a(S'vynikaj\xc3\xbacim'
p808
(dp809
S'VERB'
p810
F1.0
s(lp811
(g62
I7
tp812
atp813
a(S'v\xc3\xbdchodiskov\xc3\xbdm'
p814
(dp815
S'ADJ'
p816
F1.0
s(lp817
(g86
I8
tp818
atp819
a(S'bodom'
p820
(dp821
S'NOUN'
p822
F1.0
s(lp823
(g71
I9
tp824
atp825
a(S'pre'
p826
(dp827
g216
F0.000158
sS'ADP'
p828
F0.999842
s(lp829
(g78
I10
tp830
atp831
a(S'diskusiu'
p832
(dp833
S'NOUN'
p834
F1.0
s(lp835
(g118
I11
tp836
atp837
a(S'v'
p838
(dp839
g216
F0.00022600000000000002
sS'ADP'
p840
F0.999773
s(lp841
(g130
I12
tp842
atp843
a(S'bud\xc3\xbacej'
p844
(dp845
S'NOUN'
p846
F0.014156
sS'ADJ'
p847
F0.985844
s(lp848
(g145
I14
tp849
atp850
a(S'medziin\xc5\xa1titucion\xc3\xa1lnej'
p851
(dp852
S'ADJ'
p853
F1.0
s(lp854
(g172
I15
tp855
atp856
a(S'pracovnej'
p857
(dp858
S'ADJ'
p859
F1.0
s(lp860
(g165
I16
tp861
atp862
a(S'skupine'
p863
(dp864
S'NOUN'
p865
F1.0
s(lp866
(g153
I17
tp867
atp868
a(g477
(dp869
g208
F1.0
s(lp870
tp871
a(S'ktorej'
p872
(dp873
S'PRON'
p874
F1.0
s(lp875
(g181
I18
tp876
atp877
a(S'zriadenie'
p878
(dp879
S'NOUN'
p880
F1.0
s(lp881
tp882
a(S'ste'
p883
(dp884
S'NUM'
p885
F0.000227
sS'VERB'
p886
F0.999773
s(lp887
(g188
I19
tp888
atp889
a(S'navrhli'
p890
(dp891
S'VERB'
p892
F1.0
s(lp893
(g205
I20
tp894
atp895
a(g208
(dp896
g208
F1.0
s(lp897
(g208
I21
tp898
atp899
asS'pl'
p900
(lp901
(S'my\xc5\x9bl\xc4\x99'
p902
(dp903
S'VERB'
p904
F1.0
s(lp905
tp906
a(g477
(dp907
g216
F0.0
sg208
F1.0
s(lp908
(g14
I1
tp909
atp910
a(S'\xc5\xbce'
p911
(dp912
S'PRT'
p913
F0.000275
sS'CONJ'
p914
F0.999725
s(lp915
(g23
I2
tp916
atp917
a(S'wasze'
p918
(dp919
S'ADJ'
p920
F0.9999990000000001
s(lp921
(g30
I3
tp922
atp923
a(S'sprawozdanie'
p924
(dp925
S'NOUN'
p926
F1.0
s(lp927
(g37
I4
tp928
atp929
a(S'stanowi'
p930
(dp931
S'VERB'
p932
F1.0
s(lp933
(g45
I5
tp934
atp935
a(S'doskona\xc5\x82y'
p936
(dp937
S'ADJ'
p938
F1.0
s(lp939
(g62
I7
tp940
atp941
a(S'punkt'
p942
(dp943
S'NOUN'
p944
F1.0
s(lp945
tp946
a(S'wyj\xc5\x9bcia'
p947
(dp948
S'VERB'
p949
F0.144632
sS'NOUN'
p950
F0.855369
s(lp951
(g86
I8
tp952
atp953
a(S'dla'
p954
(dp955
S'ADP'
p956
F1.0
s(lp957
(g78
I10
tp958
atp959
a(S'rozm\xc3\xb3w'
p960
(dp961
S'NOUN'
p962
F1.0
s(lp963
(g118
I11
tp964
atp965
a(S'w'
p966
(dp967
g216
F0.0
sS'ADJ'
p968
F0.0
sS'ADP'
p969
F1.0
sS'NOUN'
p970
F0.0
s(lp971
(g130
I12
tp972
atp973
a(S'ramach'
p974
(dp975
S'NOUN'
p976
F1.0
s(lp977
(g137
I13
tp978
atp979
a(S'przysz\xc5\x82ej'
p980
(dp981
S'ADJ'
p982
F1.0
s(lp983
(g145
I14
tp984
atp985
a(S'mi\xc4\x99dzyinstytucjonalnej'
p986
(dp987
S'ADV'
p988
F0.0
sS'NOUN'
p989
F0.007808000000000001
sS'VERB'
p990
F0.027940999999999997
sS'ADJ'
p991
F0.964249
s(lp992
(g172
I15
tp993
atp994
a(S'grupy'
p995
(dp996
S'NOUN'
p997
F1.0
s(lp998
(g153
I17
tp999
atp1000
a(S'roboczej'
p1001
(dp1002
S'ADJ'
p1003
F1.0
s(lp1004
(g165
I16
tp1005
atp1006
a(g477
(dp1007
g216
F0.0
sg208
F1.0
s(lp1008
tp1009
a(S'kt\xc3\xb3rej'
p1010
(dp1011
S'ADJ'
p1012
F1.0
s(lp1013
(g181
I18
tp1014
atp1015
a(S'utworzenie'
p1016
(dp1017
S'VERB'
p1018
F1.0
s(lp1019
tp1020
a(S'sugerujecie'
p1021
(dp1022
S'ADV'
p1023
F0.042655000000000005
sS'NOUN'
p1024
F0.902807
sS'PRT'
p1025
F0.002832
sS'VERB'
p1026
F0.035454
sS'NUM'
p1027
F0.001238
sS'ADJ'
p1028
F0.015013000000000002
s(lp1029
(g205
I20
tp1030
atp1031
a(g208
(dp1032
g208
F1.0
s(lp1033
(g208
I21
tp1034
atp1035
asS'sl'
p1036
(lp1037
(S'menim'
p1038
(dp1039
S'VERB'
p1040
F1.0
s(lp1041
(g14
I1
tp1042
atp1043
a(g477
(dp1044
g208
F1.0
s(lp1045
tp1046
a(S'da'
p1047
(dp1048
S'PRT'
p1049
F4e-06
sS'CONJ'
p1050
F0.999979
sS'VERB'
p1051
F1.7e-05
sg216
F1e-06
s(lp1052
(g23
I2
tp1053
atp1054
a(S'je'
p1055
(dp1056
S'PRON'
p1057
F0.002699
sS'VERB'
p1058
F0.9973
sg216
F1e-06
s(lp1059
(g45
I5
tp1060
atp1061
a(S'va\xc5\xa1e'
p1062
(dp1063
S'PRON'
p1064
F1.0000010000000001
s(lp1065
(g30
I3
tp1066
atp1067
a(S'poro\xc4\x8dilo'
p1068
(dp1069
S'NOUN'
p1070
F1.0
s(lp1071
(g37
I4
tp1072
atp1073
a(S'izvrstno'
p1074
(dp1075
S'ADV'
p1076
F1.0
s(lp1077
(g62
I7
tp1078
atp1079
a(S'izhodi\xc5\xa1\xc4\x8de'
p1080
(dp1081
S'NOUN'
p1082
F1.0
s(lp1083
(g86
I8
tp1084
atp1085
a(S'za'
p1086
(dp1087
S'ADV'
p1088
F8.1e-05
sg216
F4e-06
sS'ADP'
p1089
F0.999915
s(lp1090
(g78
I10
tp1091
atp1092
a(S'razprave'
p1093
(dp1094
S'NOUN'
p1095
F1.000001
s(lp1096
(g118
I11
tp1097
atp1098
a(g838
(dp1099
S'ADP'
p1100
F1.0
s(lp1101
(g130
I12
tp1102
atp1103
a(S'prihodnji'
p1104
(dp1105
S'ADJ'
p1106
F0.9999990000000001
s(lp1107
(g145
I14
tp1108
atp1109
a(S'medinstitucionalni'
p1110
(dp1111
S'ADV'
p1112
F2e-06
sS'NOUN'
p1113
F0.005961
sS'VERB'
p1114
F5.9999999999999995e-05
sS'ADJ'
p1115
F0.99398
s(lp1116
(g172
I15
tp1117
atp1118
a(S'delovni'
p1119
(dp1120
S'ADJ'
p1121
F1.0
s(lp1122
(g165
I16
tp1123
atp1124
a(S'skupini'
p1125
(dp1126
S'NOUN'
p1127
F0.999999
s(lp1128
(g153
I17
tp1129
atp1130
a(g477
(dp1131
g208
F1.0
s(lp1132
tp1133
a(S'ki'
p1134
(dp1135
S'CONJ'
p1136
F1.0
s(lp1137
(g181
I18
tp1138
atp1139
a(S'jo'
p1140
(dp1141
S'PRON'
p1142
F0.999906
sg216
F9.4e-05
s(lp1143
(g188
I19
tp1144
atp1145
a(S'predlagate'
p1146
(dp1147
S'ADV'
p1148
F0.001769
sS'ADJ'
p1149
F0.010665000000000001
sS'VERB'
p1150
F0.6602419999999998
sS'NOUN'
p1151
F0.326618
sg216
F0.000707
s(lp1152
(g205
I20
tp1153
atp1154
a(g208
(dp1155
g208
F1.0
s(lp1156
(g208
I21
tp1157
atp1158
asS'es'
p1159
(lp1160
(S'creo'
p1161
(dp1162
S'VERB'
p1163
F1.0
s(lp1164
(g14
I1
tp1165
atp1166
a(S'que'
p1167
(dp1168
g216
F0.0
sS'CONJ'
p1169
F1.0
s(lp1170
(g23
I2
tp1171
atp1172
a(S'su'
p1173
(dp1174
S'PRON'
p1175
F1.0
s(lp1176
(g30
I3
tp1177
atp1178
a(S'informe'
p1179
(dp1180
S'VERB'
p1181
F0.000104
sS'NOUN'
p1182
F0.999896
s(lp1183
(g37
I4
tp1184
atp1185
a(S'es'
p1186
(dp1187
S'VERB'
p1188
F1.0
s(lp1189
(g45
I5
tp1190
atp1191
a(S'un'
p1192
(dp1193
g216
F4e-06
sS'DET'
p1194
F0.999996
s(lp1195
(g54
I6
tp1196
atp1197
a(S'punto'
p1198
(dp1199
S'NOUN'
p1200
F1.0
s(lp1201
(g71
I9
tp1202
atp1203
a(S'de'
p1204
(dp1205
g216
F2.9e-05
sS'CONJ'
p1206
F0.000449
sS'ADP'
p1207
F0.999522
s(lp1208
tp1209
a(S'partida'
p1210
(dp1211
S'NOUN'
p1212
F1.0
s(lp1213
(g86
I8
tp1214
atp1215
a(S'excelente'
p1216
(dp1217
S'ADJ'
p1218
F1.0
s(lp1219
(g62
I7
tp1220
atp1221
a(S'para'
p1222
(dp1223
S'CONJ'
p1224
F0.002186
sS'ADP'
p1225
F0.997814
s(lp1226
(g78
I10
tp1227
atp1228
a(S'las'
p1229
(dp1230
S'PRON'
p1231
F0.0
sS'DET'
p1232
F1.0
s(lp1233
tp1234
a(S'negociaciones'
p1235
(dp1236
S'NOUN'
p1237
F1.0
s(lp1238
(g118
I11
tp1239
atp1240
a(S'en'
p1241
(dp1242
g216
F0.0
sS'CONJ'
p1243
F0.0
sS'ADP'
p1244
F1.0
s(lp1245
(g130
I12
tp1246
atp1247
a(S'el'
p1248
(dp1249
S'PRON'
p1250
F2.2e-05
sS'DET'
p1251
F0.999978
s(lp1252
(g137
I13
tp1253
atp1254
a(S'futuro'
p1255
(dp1256
S'ADJ'
p1257
F0.110585
sS'NOUN'
p1258
F0.889415
s(lp1259
(g145
I14
tp1260
atp1261
a(S'grupo'
p1262
(dp1263
S'NOUN'
p1264
F1.0
s(lp1265
(g153
I17
tp1266
atp1267
a(S'de'
p1268
(dp1269
g216
F2.9e-05
sS'CONJ'
p1270
F0.000449
sS'ADP'
p1271
F0.999522
s(lp1272
tp1273
a(S'trabajo'
p1274
(dp1275
S'NOUN'
p1276
F1.0
s(lp1277
(g165
I16
tp1278
atp1279
a(S'interinstitucional'
p1280
(dp1281
S'NOUN'
p1282
F2.6e-05
sS'VERB'
p1283
F9.1e-05
sS'ADJ'
p1284
F0.999883
s(lp1285
tp1286
a(S'cuya'
p1287
(dp1288
S'CONJ'
p1289
F1.0
s(lp1290
(g181
I18
tp1291
atp1292
a(S'creaci\xc3\xb3n'
p1293
(dp1294
S'NOUN'
p1295
F1.0
s(lp1296
(g172
I15
tp1297
atp1298
a(S'han'
p1299
(dp1300
S'VERB'
p1301
F1.0
s(lp1302
(g188
I19
tp1303
atp1304
a(S'sugerido'
p1305
(dp1306
S'VERB'
p1307
F1.0
s(lp1308
(g205
I20
tp1309
atp1310
a(g208
(dp1311
g208
F1.0
s(lp1312
(g208
I21
tp1313
atp1314
as.