(dp0
S'fr'
p1
(lp2
(S"c'"
p3
(dp4
S'ADJ'
p5
F0.079749
sS'VERB'
p6
F0.5393100000000001
sS'NOUN'
p7
F0.380941
s(lp8
(S'that'
p9
I0
tp10
atp11
a(S'est'
p12
(dp13
S'VERB'
p14
F0.999122
sS'NOUN'
p15
F0.000878
s(lp16
(S'is'
p17
I1
tp18
atp19
a(S'quelque'
p20
(dp21
S'PRON'
p22
F1.0
s(lp23
(S'something'
p24
I2
tp25
atp26
a(S'chose'
p27
(dp28
S'VERB'
p29
F0.002926
sS'NOUN'
p30
F0.997073
s(lp31
tp32
a(S'que'
p33
(dp34
S'ADV'
p35
F0.001037
sS'PRON'
p36
F0.44581299999999996
sS'CONJ'
p37
F0.553151
s(lp38
(g24
I2
tp39
atp40
a(S'je'
p41
(dp42
S'PRON'
p43
F1.0
s(lp44
(S'i'
p45
I3
tp46
atp47
a(S'salue'
p48
(dp49
S'VERB'
p50
F1.0
s(lp51
(S'welcome'
p52
I5
tp53
atp54
a(S'sinc\xc3\xa8rement'
p55
(dp56
S'ADV'
p57
F1.0
s(lp58
(S'sincerely'
p59
I4
tp60
atp61
a(S'.'
p62
(dp63
g62
F1.0
s(lp64
(g62
I6
tp65
atp66
asS'en'
p67
(lp68
(g9
(dp69
S'ADV'
p70
F0.008261
sS'DET'
p71
F0.991729
sS'ADP'
p72
F9e-06
s(lp73
(g9
I0
tp74
atp75
a(g17
(dp76
S'VERB'
p77
F1.0
s(lp78
(g17
I1
tp79
atp80
a(g24
(dp81
S'ADV'
p82
F0.042139
sS'NOUN'
p83
F0.957861
s(lp84
(g24
I2
tp85
atp86
a(g45
(dp87
S'X'
p88
F0.007853
sS'NOUN'
p89
F0.9921470000000001
s(lp90
(g45
I3
tp91
atp92
a(g59
(dp93
S'ADV'
p94
F1.0
s(lp95
(g59
I4
tp96
atp97
a(g52
(dp98
S'NOUN'
p99
F0.072384
sS'VERB'
p100
F0.33887500000000004
sS'ADJ'
p101
F0.58874
s(lp102
(g52
I5
tp103
atp104
a(g62
(dp105
g62
F1.0
s(lp106
(g62
I6
tp107
atp108
asS'nl'
p109
(lp110
(S'daar'
p111
(dp112
S'ADV'
p113
F0.639149
sS'CONJ'
p114
F0.360851
s(lp115
(g9
I0
tp116
atp117
a(S'kan'
p118
(dp119
S'VERB'
p120
F1.0
sS'NOUN'
p121
F0.0
s(lp122
(g17
I1
tp123
atp124
a(S'ik'
p125
(dp126
S'PRON'
p127
F0.999999
sS'NOUN'
p128
F1e-06
s(lp129
(g45
I3
tp130
atp131
a(S'alleen'
p132
(dp133
S'ADV'
p134
F0.997674
sS'ADJ'
p135
F0.002326
s(lp136
(g59
I4
tp137
atp138
a(S'maar'
p139
(dp140
S'ADV'
p141
F0.90565
sS'CONJ'
p142
F0.094331
sS'NOUN'
p143
F1.9e-05
s(lp144
(g24
I2
tp145
atp146
a(S'verheugd'
p147
(dp148
S'VERB'
p149
F0.976096
sS'ADJ'
p150
F0.023904
s(lp151
(g52
I5
tp152
atp153
a(S'over'
p154
(dp155
S'ADV'
p156
F0.042178
sS'ADP'
p157
F0.957822
s(lp158
tp159
a(S'zijn'
p160
(dp161
S'PRON'
p162
F0.857275
sS'VERB'
p163
F0.129269
sS'NOUN'
p164
F0.013455
s(lp165
(g52
I5
tp166
atp167
a(g62
(dp168
g62
F1.0
s(lp169
(g62
I6
tp170
atp171
asS'de'
p172
(lp173
(S'das'
p174
(dp175
S'PRON'
p176
F0.99851
sS'DET'
p177
F0.001372
s(lp178
tp179
a(S'ist'
p180
(dp181
S'VERB'
p182
F1.0
s(lp183
(g17
I1
tp184
atp185
a(S'etwas'
p186
(dp187
S'ADV'
p188
F0.389911
sS'PRON'
p189
F0.596811
s(lp190
tp191
a(S','
p192
(dp193
g62
F1.0
s(lp194
(g9
I0
tp195
atp196
a(S'das'
p197
(dp198
S'PRON'
p199
F0.999793
s(lp200
(g24
I2
tp201
atp202
a(S'ich'
p203
(dp204
S'PRON'
p205
F1.0
s(lp206
(g45
I3
tp207
atp208
a(S'aufrichtig'
p209
(dp210
S'ADJ'
p211
F1.0
s(lp212
(g59
I4
tp213
atp214
a(S'begr\xc3\xbc\xc3\x9fe'
p215
(dp216
S'VERB'
p217
F1.0
s(lp218
(g52
I5
tp219
atp220
a(g62
(dp221
g62
F1.0
s(lp222
(g62
I6
tp223
atp224
asS'it'
p225
(lp226
(S'questo'
p227
(dp228
S'PRON'
p229
F1.0
s(lp230
(g9
I0
tp231
atp232
a(S'\xc3\xa8'
p233
(dp234
S'VERB'
p235
F1.0
s(lp236
(g17
I1
tp237
atp238
a(S'senza'
p239
(dp240
S'CONJ'
p241
F0.019608
sS'ADP'
p242
F0.980392
s(lp243
(g59
I4
tp244
atp245
a(S'dubbio'
p246
(dp247
S'ADJ'
p248
F0.301249
sS'NOUN'
p249
F0.698751
s(lp250
tp251
a(S'un'
p252
(dp253
S'PRON'
p254
F0.00837
sS'DEF'
p255
F0.99163
s(lp256
tp257
a(S'aspetto'
p258
(dp259
S'VERB'
p260
F0.000348
sS'NOUN'
p261
F0.999652
s(lp262
(g24
I2
tp263
atp264
a(S'che'
p265
(dp266
S'PRON'
p267
F0.960062
sS'CONJ'
p268
F0.039088
sS'ADJ'
p269
F0.000851
s(lp270
(g45
I3
tp271
atp272
a(S'accolgo'
p273
(dp274
S'VERB'
p275
F1.0
s(lp276
(g52
I5
tp277
atp278
a(S'con'
p279
(dp280
S'ADP'
p281
F1.0
s(lp282
tp283
a(S'il'
p284
(dp285
S'DET'
p286
F1.0
s(lp287
tp288
a(S'massimo'
p289
(dp290
S'NOUN'
p291
F0.284406
sS'ADJ'
p292
F0.715594
s(lp293
(g59
I4
tp294
atp295
a(S'favore'
p296
(dp297
S'NOUN'
p298
F1.0
s(lp299
(g52
I5
tp300
atp301
a(g62
(dp302
g62
F1.0
s(lp303
(g62
I6
tp304
atp305
asS'sk'
p306
(lp307
(S'tak\xc3\xa9to'
p308
(dp309
S'PRON'
p310
F1.0
s(lp311
(g9
I0
tp312
atp313
a(S'nie\xc4\x8do'
p314
(dp315
S'PRON'
p316
F1.0
s(lp317
(g24
I2
tp318
atp319
a(S'\xc3\xbaprimne'
p320
(dp321
S'ADV'
p322
F1.0
s(lp323
(g59
I4
tp324
atp325
a(S'v\xc3\xadtam'
p326
(dp327
S'VERB'
p328
F1.0
s(lp329
(g52
I5
tp330
atp331
a(g62
(dp332
g62
F1.0
s(lp333
(g62
I6
tp334
atp335
asS'pl'
p336
(lp337
(S'szczerze'
p338
(dp339
S'ADV'
p340
F1.0
s(lp341
(g59
I4
tp342
atp343
a(S'popieram'
p344
(dp345
S'VERB'
p346
F1.0
s(lp347
tp348
a(S'takie'
p349
(dp350
S'ADJ'
p351
F0.9999999999999999
s(lp352
(g9
I0
tp353
atp354
a(S'inicjatywy'
p355
(dp356
S'NOUN'
p357
F0.999999
s(lp358
(g52
I5
tp359
atp360
a(g62
(dp361
g62
F1.0
s(lp362
(g62
I6
tp363
atp364
asS'sl'
p365
(lp366
(S'to'
p367
(dp368
S'PRON'
p369
F0.999937
sg88
F6.4e-05
s(lp370
(g9
I0
tp371
atp372
a(S'je'
p373
(dp374
S'PRON'
p375
F0.000156
sS'VERB'
p376
F0.999841
sg88
F2e-06
s(lp377
(g17
I1
tp378
atp379
a(S'nekaj'
p380
(dp381
S'ADV'
p382
F0.766808
sS'PRON'
p383
F0.233192
s(lp384
tp385
a(g192
(dp386
g62
F1.0
s(lp387
tp388
a(S'kar'
p389
(dp390
S'ADV'
p391
F0.22833
sS'PRON'
p392
F0.77167
s(lp393
(g24
I2
tp394
atp395
a(S'iskreno'
p396
(dp397
S'ADV'
p398
F0.9983
sS'ADJ'
p399
F0.0017
s(lp400
(g59
I4
tp401
atp402
a(S'pozdravljam'
p403
(dp404
S'VERB'
p405
F1.0
s(lp406
(g52
I5
tp407
atp408
a(g62
(dp409
g62
F1.0
s(lp410
(g62
I6
tp411
atp412
asS'es'
p413
(lp414
(S'eso'
p415
(dp416
S'PRON'
p417
F1.0
s(lp418
(g9
I0
tp419
atp420
a(S'es'
p421
(dp422
S'VERB'
p423
F1.0
s(lp424
(g17
I1
tp425
atp426
a(S'algo'
p427
(dp428
S'ADJ'
p429
F1.0
s(lp430
(g24
I2
tp431
atp432
a(S'que'
p433
(dp434
g88
F0.0
sS'CONJ'
p435
F1.0
s(lp436
(g45
I3
tp437
atp438
a(S'recibo'
p439
(dp440
S'VERB'
p441
F0.157986
sS'NOUN'
p442
F0.842014
s(lp443
(g52
I5
tp444
atp445
a(S'muy'
p446
(dp447
S'ADV'
p448
F1.0
s(lp449
tp450
a(S'positivamente'
p451
(dp452
S'ADV'
p453
F1.0
s(lp454
tp455
a(g192
(dp456
g62
F1.0
s(lp457
tp458
a(S'con'
p459
(dp460
S'ADP'
p461
F1.0
s(lp462
(g52
I5
tp463
atp464
a(S'sinceridad'
p465
(dp466
S'NOUN'
p467
F1.0
s(lp468
(g59
I4
tp469
atp470
a(g62
(dp471
g62
F1.0
s(lp472
(g62
I6
tp473
atp474
as.