(dp0
S'fr'
p1
(lp2
(S'je'
p3
(dp4
S'PRON'
p5
F1.0
s(lp6
tp7
a(S'vous'
p8
(dp9
S'PRON'
p10
F1.0
s(lp11
(S'you'
p12
I1
tp13
atp14
a(S'remercie'
p15
(dp16
S'VERB'
p17
F1.0
s(lp18
(S'thank'
p19
I0
tp20
atp21
a(S'pour'
p22
(dp23
S'CONJ'
p24
F0.067207
sS'ADP'
p25
F0.932793
s(lp26
(S'for'
p27
I2
tp28
atp29
a(S'le'
p30
(dp31
S'PRON'
p32
F9.4e-05
sS'DET'
p33
F0.999906
s(lp34
(S'your'
p35
I3
tp36
atp37
a(S'soutien'
p38
(dp39
S'NOUN'
p40
F1.0
s(lp41
tp42
a(S'que'
p43
(dp44
S'ADV'
p45
F0.000965
sS'PRON'
p46
F0.44677300000000003
sS'CONJ'
p47
F0.552262
s(lp48
(g12
I1
tp49
atp50
a(S'vous'
p51
(dp52
S'PRON'
p53
F1.0
s(lp54
(g12
I1
tp55
atp56
a(S"m'"
p57
(dp58
S'ADJ'
p59
F0.000625
sS'VERB'
p60
F0.9973000000000002
sS'NOUN'
p61
F0.002077
s(lp62
tp63
a(S'avez'
p64
(dp65
S'VERB'
p66
F1.0
s(lp67
(g12
I1
tp68
atp69
a(S'apport\xc3\xa9'
p70
(dp71
S'VERB'
p72
F1.0
s(lp73
(S'support'
p74
I4
tp75
atp76
a(S'pendant'
p77
(dp78
S'NOUN'
p79
F1.3e-05
sS'VERB'
p80
F0.000467
sS'ADJ'
p81
F1.6e-05
sS'ADP'
p82
F0.999504
s(lp83
(S'during'
p84
I5
tp85
atp86
a(S'les'
p87
(dp88
S'PRON'
p89
F0.000161
sS'DET'
p90
F0.999836
sS'ADP'
p91
F3e-06
s(lp92
tp93
a(S'nombreux'
p94
(dp95
S'ADJ'
p96
F1.0
s(lp97
(S'all'
p98
I6
tp99
atp100
a(S'mois'
p101
(dp102
S'NOUN'
p103
F1.0
s(lp104
tp105
a(S"qu'"
p106
(dp107
S'NOUN'
p108
F0.024969
sS'VERB'
p109
F0.27500100000000005
sS'ADJ'
p110
F0.700029
s(lp111
tp112
a(S'a'
p113
(dp114
S'VERB'
p115
F1.0
s(lp116
tp117
a(S'dur\xc3\xa9'
p118
(dp119
S'VERB'
p120
F1.0
s(lp121
(S'months'
p122
I8
tp123
atp124
a(S'la'
p125
(dp126
S'PRON'
p127
F4.2e-05
sS'DET'
p128
F0.999958
sS'NOUN'
p129
F0.0
s(lp130
tp131
a(S'pr\xc3\xa9paration'
p132
(dp133
S'NOUN'
p134
F1.0
s(lp135
(S'up'
p136
I10
tp137
atp138
a(S'de'
p139
(dp140
S'ADP'
p141
F1.0
s(lp142
(S'to'
p143
I11
tp144
atp145
a(S'ce'
p146
(dp147
S'PRON'
p148
F1.0
s(lp149
(S'this'
p150
I12
tp151
atp152
a(S'rapport'
p153
(dp154
S'NOUN'
p155
F1.0
s(lp156
(S'report'
p157
I13
tp158
atp159
a(S'.'
p160
(dp161
g160
F1.0
s(lp162
(g160
I14
tp163
atp164
asS'en'
p165
(lp166
(g19
(dp167
S'VERB'
p168
F1.0
s(lp169
(g19
I0
tp170
atp171
a(g12
(dp172
S'PRON'
p173
F1.0
s(lp174
(g12
I1
tp175
atp176
a(g27
(dp177
S'ADP'
p178
F1.0
s(lp179
(g27
I2
tp180
atp181
a(g35
(dp182
S'PRON'
p183
F1.0
s(lp184
(g35
I3
tp185
atp186
a(g74
(dp187
S'VERB'
p188
F0.00014900000000000002
sS'NOUN'
p189
F0.999851
s(lp190
(g74
I4
tp191
atp192
a(g84
(dp193
S'ADP'
p194
F1.0
s(lp195
(g84
I5
tp196
atp197
a(g98
(dp198
S'ADV'
p199
F0.0029
sS'DET'
p200
F0.9971
s(lp201
(g98
I6
tp202
atp203
a(S'these'
p204
(dp205
S'NOUN'
p206
F3e-06
sS'DET'
p207
F0.999997
s(lp208
(g204
I7
tp209
atp210
a(g122
(dp211
S'NOUN'
p212
F1.0
s(lp213
(g122
I8
tp214
atp215
a(S'leading'
p216
(dp217
S'ADJ'
p218
F2e-06
sS'VERB'
p219
F0.999992
sS'NOUN'
p220
F6e-06
s(lp221
(g216
I9
tp222
atp223
a(g136
(dp224
S'ADV'
p225
F0.049636
sS'PRT'
p226
F0.94588
sS'NOUN'
p227
F5e-06
sS'ADP'
p228
F0.00448
s(lp229
(g136
I10
tp230
atp231
a(g143
(dp232
S'ADV'
p233
F1e-06
sS'PRT'
p234
F0.99999
sS'ADP'
p235
F9e-06
s(lp236
(g143
I11
tp237
atp238
a(g150
(dp239
S'ADV'
p240
F9e-06
sS'NOUN'
p241
F1.7e-05
sS'DET'
p242
F0.999974
s(lp243
(g150
I12
tp244
atp245
a(g157
(dp246
S'VERB'
p247
F0.001075
sS'NOUN'
p248
F0.998925
s(lp249
(g157
I13
tp250
atp251
a(g160
(dp252
g160
F1.0
s(lp253
(g160
I14
tp254
atp255
asS'nl'
p256
(lp257
(S'dank'
p258
(dp259
S'VERB'
p260
F0.740453
sS'NOUN'
p261
F0.259547
s(lp262
(g19
I0
tp263
atp264
a(S'u'
p265
(dp266
S'PRON'
p267
F0.995267
sS'NOUN'
p268
F0.004733
s(lp269
(g12
I1
tp270
atp271
a(S'voor'
p272
(dp273
S'ADV'
p274
F0.008415
sS'CONJ'
p275
F2e-06
sS'NOUN'
p276
F0.0
sS'ADP'
p277
F0.991583
s(lp278
(g27
I2
tp279
atp280
a(S'de'
p281
(dp282
S'DET'
p283
F1.0
s(lp284
(g35
I3
tp285
atp286
a(S'steun'
p287
(dp288
S'VERB'
p289
F1e-06
sS'NOUN'
p290
F0.999999
s(lp291
tp292
a(S'die'
p293
(dp294
S'PRON'
p295
F1.0
s(lp296
tp297
a(g265
(dp298
S'PRON'
p299
F0.999988
sS'NOUN'
p300
F1.2e-05
s(lp301
(g12
I1
tp302
atp303
a(S'mij'
p304
(dp305
S'PRON'
p306
F1.0
s(lp307
tp308
a(S'al'
p309
(dp310
S'ADV'
p311
F0.783396
sS'PRON'
p312
F0.015526
sS'CONJ'
p313
F0.201078
s(lp314
(g98
I6
tp315
atp316
a(S'deze'
p317
(dp318
S'PRON'
p319
F1.0
s(lp320
(g204
I7
tp321
atp322
a(S'maanden'
p323
(dp324
S'VERB'
p325
F0.000128
sS'NOUN'
p326
F0.999872
s(lp327
(g122
I8
tp328
atp329
a(S'gegeven'
p330
(dp331
S'NOUN'
p332
F3.7e-05
sS'VERB'
p333
F0.973984
sS'ADJ'
p334
F0.025979
s(lp335
(g74
I4
tp336
atp337
a(S'hebt'
p338
(dp339
S'VERB'
p340
F1.0
s(lp341
(g12
I1
tp342
atp343
a(S'in'
p344
(dp345
S'ADV'
p346
F0.020912
sS'VERB'
p347
F0.0
sS'ADP'
p348
F0.979088
s(lp349
(g84
I5
tp350
atp351
a(S'de'
p352
(dp353
S'DET'
p354
F1.0
s(lp355
tp356
a(S'voorbereiding'
p357
(dp358
S'NOUN'
p359
F1.0
s(lp360
(g216
I9
tp361
atp362
a(S'van'
p363
(dp364
S'ADP'
p365
F1.0
s(lp366
(g136
I10
tp367
atp368
a(S'dit'
p369
(dp370
S'PRON'
p371
F1.0
s(lp372
(g150
I12
tp373
atp374
a(S'verslag'
p375
(dp376
S'NOUN'
p377
F1.0
s(lp378
(g157
I13
tp379
atp380
a(g160
(dp381
g160
F1.0
s(lp382
(g160
I14
tp383
atp384
asS'de'
p385
(lp386
(S'vielen'
p387
(dp388
S'PRON'
p389
F1.0
s(lp390
(g19
I0
tp391
atp392
a(S'dank'
p393
(dp394
S'PRT'
p395
F0.095456
sS'ADP'
p396
F0.874142
s(lp397
(g12
I1
tp398
atp399
a(S'f\xc3\xbcr'
p400
(dp401
S'ADP'
p402
F1.0
s(lp403
(g27
I2
tp404
atp405
a(S'ihre'
p406
(dp407
S'PRON'
p408
F1.0
s(lp409
(g35
I3
tp410
atp411
a(S'unterst\xc3\xbctzung'
p412
(dp413
S'ADJ'
p414
F7.5e-05
sS'NOUN'
p415
F0.999873
s(lp416
(g74
I4
tp417
atp418
a(S'in'
p419
(dp420
S'ADP'
p421
F1.0
s(lp422
(g84
I5
tp423
atp424
a(S'all'
p425
(dp426
S'PRON'
p427
F0.999389
sS'X'
p428
F0.000611
s(lp429
(g98
I6
tp430
atp431
a(S'den'
p432
(dp433
S'PRON'
p434
F0.004569
sS'DET'
p435
F0.995269
s(lp436
(g204
I7
tp437
atp438
a(S'vergangenen'
p439
(dp440
S'ADJ'
p441
F1.0
s(lp442
tp443
a(S'monaten'
p444
(dp445
g428
F0.035236
sS'NOUN'
p446
F0.939109
s(lp447
(g122
I8
tp448
atp449
a(S','
p450
(dp451
g160
F1.0
s(lp452
(g143
I11
tp453
atp454
a(S'wodurch'
p455
(dp456
S'PRON'
p457
F1.0
s(lp458
(g216
I9
tp459
atp460
a(S'dieser'
p461
(dp462
S'PRON'
p463
F1.0
s(lp464
(g150
I12
tp465
atp466
a(S'bericht'
p467
(dp468
S'VERB'
p469
F0.003804
sS'NOUN'
p470
F0.995682
s(lp471
(g157
I13
tp472
atp473
a(S'm\xc3\xb6glich'
p474
(dp475
S'ADJ'
p476
F1.0
s(lp477
tp478
a(S'wurde'
p479
(dp480
S'VERB'
p481
F1.0
s(lp482
(g136
I10
tp483
atp484
a(g160
(dp485
g160
F1.0
s(lp486
(g160
I14
tp487
atp488
asS'it'
p489
(lp490
(S'grazie'
p491
(dp492
S'ADV'
p493
F0.591848
sg428
F0.000228
sS'NOUN'
p494
F0.407924
s(lp495
(g19
I0
tp496
atp497
a(S'per'
p498
(dp499
S'CONJ'
p500
F0.045376
sS'ADP'
p501
F0.954624
s(lp502
(g27
I2
tp503
atp504
a(S'il'
p505
(dp506
S'DET'
p507
F1.0
s(lp508
tp509
a(S'vostro'
p510
(dp511
S'PRON'
p512
F1.0
s(lp513
(g35
I3
tp514
atp515
a(S'sostegno'
p516
(dp517
S'NOUN'
p518
F1.0
s(lp519
(g74
I4
tp520
atp521
a(S'durante'
p522
(dp523
S'VERB'
p524
F0.032538
sS'ADP'
p525
F0.967462
s(lp526
(g84
I5
tp527
atp528
a(S'tutti'
p529
(dp530
S'PRON'
p531
F0.483363
sS'ADJ'
p532
F0.516637
s(lp533
(g98
I6
tp534
atp535
a(S'questi'
p536
(dp537
S'PRON'
p538
F1.0
s(lp539
(g204
I7
tp540
atp541
a(S'mesi'
p542
(dp543
S'NOUN'
p544
F1.0
s(lp545
(g122
I8
tp546
atp547
a(S'che'
p548
(dp549
S'PRON'
p550
F0.960049
sS'CONJ'
p551
F0.0391
sS'ADJ'
p552
F0.000851
s(lp553
(g216
I9
tp554
atp555
a(S'hanno'
p556
(dp557
S'VERB'
p558
F1.0
s(lp559
tp560
a(S'preceduto'
p561
(dp562
S'VERB'
p563
F1.0
s(lp564
(g216
I9
tp565
atp566
a(S'la'
p567
(dp568
S'PRON'
p569
F1e-06
sS'DET'
p570
F0.999999
s(lp571
tp572
a(S'presentazione'
p573
(dp574
S'NOUN'
p575
F1.0
s(lp576
(g136
I10
tp577
atp578
a(S'di'
p579
(dp580
S'CONJ'
p581
F2.3e-05
sS'ADP'
p582
F0.999977
s(lp583
(g143
I11
tp584
atp585
a(S'questa'
p586
(dp587
S'PRON'
p588
F1.0
s(lp589
(g150
I12
tp590
atp591
a(S'relazione'
p592
(dp593
S'NOUN'
p594
F1.0
s(lp595
(g157
I13
tp596
atp597
a(g160
(dp598
g160
F1.0
s(lp599
(g160
I14
tp600
atp601
asS'sk'
p602
(lp603
(S'\xc4\x8eakujem'
p604
(dp605
S'VERB'
p606
F0.996387
sS'NOUN'
p607
F0.0036130000000000003
s(lp608
(g19
I0
tp609
atp610
a(S'v\xc3\xa1m'
p611
(dp612
S'PRON'
p613
F0.999991
sg428
F9e-06
s(lp614
(g12
I1
tp615
atp616
a(S'za'
p617
(dp618
g428
F5e-05
sS'ADP'
p619
F0.999905
sS'PRT'
p620
F4.4e-05
s(lp621
(g27
I2
tp622
atp623
a(S'podporu'
p624
(dp625
S'NOUN'
p626
F1.0
s(lp627
(g74
I4
tp628
atp629
a(S'po\xc4\x8das'
p630
(dp631
S'ADP'
p632
F1.0
s(lp633
(g84
I5
tp634
atp635
a(S'v\xc5\xa1etk\xc3\xbdch'
p636
(dp637
S'PRON'
p638
F1.0
s(lp639
(g98
I6
tp640
atp641
a(S't\xc3\xbdch'
p642
(dp643
S'PRON'
p644
F1.0
s(lp645
(g204
I7
tp646
atp647
a(S'mesiacov'
p648
(dp649
S'NOUN'
p650
F1.0
s(lp651
(g122
I8
tp652
atp653
a(g450
(dp654
g160
F1.0
s(lp655
tp656
a(S'ktor\xc3\xa9'
p657
(dp658
S'PRON'
p659
F1.0
s(lp660
tp661
a(S'predch\xc3\xa1dzali'
p662
(dp663
S'VERB'
p664
F0.999999
s(lp665
(g216
I9
tp666
atp667
a(S'predlo\xc5\xbeeniu'
p668
(dp669
S'NOUN'
p670
F1.0
s(lp671
(g136
I10
tp672
atp673
a(S'tejto'
p674
(dp675
S'PRON'
p676
F1.0
s(lp677
(g150
I12
tp678
atp679
a(S'spr\xc3\xa1vy'
p680
(dp681
S'NOUN'
p682
F1.0
s(lp683
(g157
I13
tp684
atp685
a(g160
(dp686
g160
F1.0
s(lp687
(g160
I14
tp688
atp689
asS'pl'
p690
(lp691
(S'dzi\xc4\x99kuj\xc4\x99'
p692
(dp693
S'VERB'
p694
F1.0
s(lp695
(g19
I0
tp696
atp697
a(S'za'
p698
(dp699
S'PRT'
p700
F0.004156
sS'VERB'
p701
F9e-06
sS'NOUN'
p702
F3e-06
sS'ADP'
p703
F0.9958310000000001
sg428
F0.0
s(lp704
(g27
I2
tp705
atp706
a(S'wasze'
p707
(dp708
S'ADJ'
p709
F1.0
s(lp710
(g35
I3
tp711
atp712
a(S'wsparcie'
p713
(dp714
S'VERB'
p715
F0.20726
sS'NOUN'
p716
F0.79274
s(lp717
(g74
I4
tp718
atp719
a(S'przez'
p720
(dp721
S'ADP'
p722
F1.0
s(lp723
(g84
I5
tp724
atp725
a(S'wszystkie'
p726
(dp727
S'ADJ'
p728
F1.0
s(lp729
(g98
I6
tp730
atp731
a(S'te'
p732
(dp733
g428
F6e-06
sS'ADJ'
p734
F0.9999929999999999
sS'NOUN'
p735
F0.0
s(lp736
(g204
I7
tp737
atp738
a(S'miesi\xc4\x85ce'
p739
(dp740
S'NOUN'
p741
F1.0
s(lp742
(g122
I8
tp743
atp744
a(S'przed'
p745
(dp746
S'ADP'
p747
F1.0
s(lp748
(g136
I10
tp749
atp750
a(S'powstaniem'
p751
(dp752
S'VERB'
p753
F0.917653
sS'NOUN'
p754
F0.082347
s(lp755
(g216
I9
tp756
atp757
a(S'sprawozdania'
p758
(dp759
S'NOUN'
p760
F1.0
s(lp761
(g157
I13
tp762
atp763
a(g160
(dp764
g160
F1.0
s(lp765
(g160
I14
tp766
atp767
asS'sl'
p768
(lp769
(S'hvala'
p770
(dp771
S'NOUN'
p772
F1.0
s(lp773
(g19
I0
tp774
atp775
a(S'vam'
p776
(dp777
S'PRON'
p778
F1.0
s(lp779
(g12
I1
tp780
atp781
a(S'za'
p782
(dp783
S'ADV'
p784
F6.1e-05
sg428
F1e-05
sS'ADP'
p785
F0.999928
s(lp786
(g27
I2
tp787
atp788
a(S'podporo'
p789
(dp790
S'NOUN'
p791
F1.0
s(lp792
(g74
I4
tp793
atp794
a(S'vse'
p795
(dp796
S'ADV'
p797
F0.007313
sS'PRON'
p798
F0.992688
s(lp799
(g98
I6
tp800
atp801
a(S'te'
p802
(dp803
S'PRON'
p804
F1.0
s(lp805
(g204
I7
tp806
atp807
a(S'mesece'
p808
(dp809
S'NOUN'
p810
F1.0
s(lp811
(g122
I8
tp812
atp813
a(g450
(dp814
g160
F1.0
s(lp815
tp816
a(S'ko'
p817
(dp818
S'CONJ'
p819
F1.0
s(lp820
(g84
I5
tp821
atp822
a(S'smo'
p823
(dp824
g428
F0.0
sS'VERB'
p825
F1.0
s(lp826
(g136
I10
tp827
atp828
a(S'pripravljali'
p829
(dp830
S'VERB'
p831
F1.0
s(lp832
(g216
I9
tp833
atp834
a(S'poro\xc4\x8dilo'
p835
(dp836
S'NOUN'
p837
F1.0
s(lp838
(g157
I13
tp839
atp840
a(g160
(dp841
g160
F1.0
s(lp842
(g160
I14
tp843
atp844
asS'es'
p845
(lp846
(S'les'
p847
(dp848
S'PRON'
p849
F0.986542
sg428
F0.013458
s(lp850
tp851
a(S'agradezco'
p852
(dp853
S'VERB'
p854
F1.0
s(lp855
(g19
I0
tp856
atp857
a(S'el'
p858
(dp859
S'PRON'
p860
F1e-06
sS'DET'
p861
F0.999999
s(lp862
(g35
I3
tp863
atp864
a(S'apoyo'
p865
(dp866
S'NOUN'
p867
F1.0
s(lp868
(g74
I4
tp869
atp870
a(S'que'
p871
(dp872
g428
F0.0
sS'CONJ'
p873
F1.0
s(lp874
(g12
I1
tp875
atp876
a(S'me'
p877
(dp878
S'PRON'
p879
F1.0
sS'NOUN'
p880
F0.0
s(lp881
tp882
a(S'han'
p883
(dp884
S'VERB'
p885
F1.0
s(lp886
(g35
I3
tp887
atp888
a(S'prestado'
p889
(dp890
S'VERB'
p891
F0.998381
sS'ADJ'
p892
F0.001619
s(lp893
(g84
I5
tp894
atp895
a(S'todos'
p896
(dp897
S'ADJ'
p898
F1.0
s(lp899
(g98
I6
tp900
atp901
a(S'estos'
p902
(dp903
S'PRON'
p904
F1.0
s(lp905
(g204
I7
tp906
atp907
a(S'meses'
p908
(dp909
S'NOUN'
p910
F1.0
s(lp911
(g122
I8
tp912
atp913
a(S'que'
p914
(dp915
g428
F1.4e-05
sS'CONJ'
p916
F0.999986
s(lp917
(g216
I9
tp918
atp919
a(S'han'
p920
(dp921
S'VERB'
p922
F1.0
s(lp923
tp924
a(S'precedido'
p925
(dp926
S'VERB'
p927
F1.0
s(lp928
(g216
I9
tp929
atp930
a(g113
(dp931
g428
F1.5e-05
sS'CONJ'
p932
F4e-06
sS'ADP'
p933
F0.999981
s(lp934
tp935
a(S'la'
p936
(dp937
S'NOUN'
p938
F0.0
sS'PRON'
p939
F0.0
sS'DET'
p940
F0.999999
sg428
F0.0
s(lp941
tp942
a(S'presentaci\xc3\xb3n'
p943
(dp944
S'NOUN'
p945
F1.0
s(lp946
(g136
I10
tp947
atp948
a(S'de'
p949
(dp950
g428
F0.0
sS'CONJ'
p951
F2.5e-05
sS'ADP'
p952
F0.999975
s(lp953
(g143
I11
tp954
atp955
a(S'este'
p956
(dp957
S'PRON'
p958
F0.999823
sS'NOUN'
p959
F0.000177
s(lp960
(g150
I12
tp961
atp962
a(S'informe'
p963
(dp964
S'VERB'
p965
F0.00232
sS'NOUN'
p966
F0.99768
s(lp967
(g157
I13
tp968
atp969
a(g160
(dp970
g160
F1.0
s(lp971
(g160
I14
tp972
atp973
as.