(dp0
S'fr'
p1
(lp2
(S"d'"
p3
(dp4
S'ADJ'
p5
F0.079749
sS'VERB'
p6
F0.5393100000000001
sS'NOUN'
p7
F0.380941
s(lp8
tp9
a(S'apr\xc3\xa8s'
p10
(dp11
S'ADV'
p12
F0.216016
sS'CONJ'
p13
F0.116387
sS'ADP'
p14
F0.667596
s(lp15
(S'according'
p16
I0
tp17
atp18
a(S'louise'
p19
(dp20
S'NOUN'
p21
F0.013817
sS'ADJ'
p22
F0.986183
s(lp23
(S'louise'
p24
I2
tp25
atp26
a(S'arbour'
p27
(dp28
S'NOUN'
p29
F1.0
s(lp30
(S'arbour'
p31
I3
tp32
atp33
a(S','
p34
(dp35
S'.'
p36
F1.0
s(lp37
(g34
I4
tp38
atp39
a(S'haut'
p40
(dp41
S'ADV'
p42
F0.161955
sS'NOUN'
p43
F0.004705
sS'ADJ'
p44
F0.83334
s(lp45
(S'high'
p46
I7
tp47
atp48
a(S'commissaire'
p49
(dp50
S'NOUN'
p51
F1.0
s(lp52
(S'commissioner'
p53
I8
tp54
atp55
a(S'des'
p56
(dp57
S'DET'
p58
F2.1e-05
sS'ADP'
p59
F0.999979
s(lp60
tp61
a(S'nations'
p62
(dp63
S'NOUN'
p64
F1.0
s(lp65
(S'nations'
p66
I6
tp67
atp68
a(S'unies'
p69
(dp70
S'VERB'
p71
F0.819311
sS'ADJ'
p72
F0.180689
s(lp73
(S'united'
p74
I5
tp75
atp76
a(S'aux'
p77
(dp78
S'ADP'
p79
F1.0
s(lp80
(S'human'
p81
I10
tp82
atp83
a(S'droits'
p84
(dp85
S'ADJ'
p86
F0.011772
sS'NOUN'
p87
F0.988228
s(lp88
(S'rights'
p89
I11
tp90
atp91
a(S'de'
p92
(dp93
S'ADP'
p94
F1.0
s(lp95
(S'for'
p96
I9
tp97
atp98
a(S"l'"
p99
(dp100
S'ADJ'
p101
F0.160704
sS'VERB'
p102
F0.06480800000000002
sS'NOUN'
p103
F0.774488
s(lp104
tp105
a(S'homme'
p106
(dp107
S'NOUN'
p108
F1.0
s(lp109
(g81
I10
tp110
atp111
a(g34
(dp112
g36
F1.0
s(lp113
(g34
I12
tp114
atp115
a(S'les'
p116
(dp117
S'PRON'
p118
F0.001181
sS'DET'
p119
F0.998796
sS'ADP'
p120
F2.2e-05
s(lp121
(S'the'
p122
I13
tp123
atp124
a(S'forces'
p125
(dp126
S'VERB'
p127
F0.00086
sS'NOUN'
p128
F0.99914
s(lp129
(S'forces'
p130
I15
tp131
atp132
a(S'de'
p133
(dp134
S'ADP'
p135
F1.0
s(lp136
tp137
a(S's\xc3\xa9curit\xc3\xa9'
p138
(dp139
S'NOUN'
p140
F1.0
s(lp141
(S'security'
p142
I14
tp143
atp144
a(S'ont'
p145
(dp146
S'VERB'
p147
F1.0
s(lp148
tp149
a(S'r\xc3\xa9pondu'
p150
(dp151
S'VERB'
p152
F1.0
s(lp153
(S'responded'
p154
I16
tp155
atp156
a(S'"'
p157
(dp158
g36
F1.0
s(lp159
(g157
I17
tp160
atp161
a(S'avec'
p162
(dp163
S'ADV'
p164
F0.008277
sS'ADP'
p165
F0.991723
s(lp166
(S'with'
p167
I18
tp168
atp169
a(S'une'
p170
(dp171
S'NOUN'
p172
F1.8e-05
sS'NUM'
p173
F0.024571
sS'DET'
p174
F0.97541
s(lp175
tp176
a(S'violence'
p177
(dp178
S'NOUN'
p179
F1.0
s(lp180
(S'violence'
p181
I20
tp182
atp183
a(S'excessive'
p184
(dp185
S'ADJ'
p186
F1.0
s(lp187
(S'excessive'
p188
I19
tp189
atp190
a(g157
(dp191
g36
F1.0
s(lp192
(S'\xe2\x80\x9d'
p193
I21
tp194
atp195
a(g36
(dp196
g36
F1.0
s(lp197
(g36
I22
tp198
atp199
asS'en'
p200
(lp201
(g16
(dp202
S'VERB'
p203
F0.999821
sS'ADJ'
p204
F0.000179
s(lp205
(g16
I0
tp206
atp207
a(S'to'
p208
(dp209
S'ADV'
p210
F1e-06
sS'PRT'
p211
F0.999997
sS'ADP'
p212
F3e-06
s(lp213
(g208
I1
tp214
atp215
a(g24
(dp216
S'ADV'
p217
F0.001704
sS'ADJ'
p218
F0.13875
sS'VERB'
p219
F0.178056
sS'NOUN'
p220
F0.68149
s(lp221
(g24
I2
tp222
atp223
a(g31
(dp224
S'NOUN'
p225
F1.0
s(lp226
(g31
I3
tp227
atp228
a(g34
(dp229
g36
F1.0
s(lp230
(g34
I4
tp231
atp232
a(g74
(dp233
S'VERB'
p234
F0.7377199999999999
sS'ADJ'
p235
F0.26228
s(lp236
(g74
I5
tp237
atp238
a(g66
(dp239
S'NOUN'
p240
F1.0
s(lp241
(g66
I6
tp242
atp243
a(g46
(dp244
S'ADV'
p245
F0.011223
sS'NOUN'
p246
F0.007865
sS'ADJ'
p247
F0.980912
s(lp248
(g46
I7
tp249
atp250
a(g53
(dp251
S'NOUN'
p252
F1.0
s(lp253
(g53
I8
tp254
atp255
a(g96
(dp256
S'ADP'
p257
F1.0
s(lp258
(g96
I9
tp259
atp260
a(g81
(dp261
S'NOUN'
p262
F0.018069
sS'ADJ'
p263
F0.981931
s(lp264
(g81
I10
tp265
atp266
a(g89
(dp267
S'VERB'
p268
F5e-06
sS'NOUN'
p269
F0.999995
s(lp270
(g89
I11
tp271
atp272
a(g34
(dp273
g36
F1.0
s(lp274
(g34
I12
tp275
atp276
a(g122
(dp277
S'NOUN'
p278
F4e-06
sS'DET'
p279
F0.999996
s(lp280
(g122
I13
tp281
atp282
a(g142
(dp283
S'NOUN'
p284
F1.0
s(lp285
(g142
I14
tp286
atp287
a(g130
(dp288
S'VERB'
p289
F0.009204
sS'NOUN'
p290
F0.990796
s(lp291
(g130
I15
tp292
atp293
a(g154
(dp294
S'VERB'
p295
F1.0
s(lp296
(g154
I16
tp297
atp298
a(g157
(dp299
g36
F1.0
s(lp300
(g157
I17
tp301
atp302
a(g167
(dp303
S'ADP'
p304
F1.0
s(lp305
(g167
I18
tp306
atp307
a(g188
(dp308
S'ADJ'
p309
F1.0
s(lp310
(g188
I19
tp311
atp312
a(g181
(dp313
S'NOUN'
p314
F1.0
s(lp315
(g181
I20
tp316
atp317
a(g193
(dp318
S'ADJ'
p319
F0.019635
sS'NOUN'
p320
F0.9803660000000001
s(lp321
(g193
I21
tp322
atp323
a(g36
(dp324
g36
F1.0
s(lp325
(g36
I22
tp326
atp327
asS'nl'
p328
(lp329
(S'volgens'
p330
(dp331
S'ADP'
p332
F1.0
s(lp333
(g16
I0
tp334
atp335
a(S'louise'
p336
(dp337
S'ADJ'
p338
F0.491156
sS'NOUN'
p339
F0.508844
s(lp340
(g24
I2
tp341
atp342
a(S'arbour'
p343
(dp344
S'ADJ'
p345
F0.006599
sS'NOUN'
p346
F0.993401
s(lp347
(g31
I3
tp348
atp349
a(g34
(dp350
g36
F1.0
s(lp351
(g34
I4
tp352
atp353
a(S'hoge'
p354
(dp355
S'NOUN'
p356
F0.000133
sS'ADJ'
p357
F0.999867
s(lp358
(g46
I7
tp359
atp360
a(S'commissaris'
p361
(dp362
S'NOUN'
p363
F1.0
s(lp364
(g53
I8
tp365
atp366
a(S'voor'
p367
(dp368
S'ADV'
p369
F0.003189
sS'CONJ'
p370
F3e-06
sS'NOUN'
p371
F0.0
sS'ADP'
p372
F0.996808
s(lp373
(g96
I9
tp374
atp375
a(S'mensenrechten'
p376
(dp377
S'NOUN'
p378
F1.0
s(lp379
(g81
I10
tp380
atp381
a(S'van'
p382
(dp383
S'ADP'
p384
F1.0
s(lp385
(g89
I11
tp386
atp387
a(S'de'
p388
(dp389
S'DET'
p390
F1.0
s(lp391
tp392
a(S'verenigde'
p393
(dp394
S'VERB'
p395
F0.993282
sS'NOUN'
p396
F0.006718
s(lp397
(g74
I5
tp398
atp399
a(S'naties'
p400
(dp401
S'NOUN'
p402
F1.0
s(lp403
(g66
I6
tp404
atp405
a(g34
(dp406
g36
F1.0
s(lp407
(g34
I12
tp408
atp409
a(S'hebben'
p410
(dp411
S'VERB'
p412
F0.999995
sS'NOUN'
p413
F6e-06
s(lp414
tp415
a(S'de'
p416
(dp417
S'DET'
p418
F1.0
s(lp419
(g122
I13
tp420
atp421
a(S'veiligheidsdiensten'
p422
(dp423
S'NOUN'
p424
F1.0
s(lp425
(g142
I14
tp426
atp427
a(S'-'
p428
(dp429
g36
F1.0
s(lp430
(g31
I3
tp431
atp432
a(S'ik'
p433
(dp434
S'PRON'
p435
F0.999917
sS'NOUN'
p436
F8.3e-05
s(lp437
(g31
I3
tp438
atp439
a(S'citeer'
p440
(dp441
S'VERB'
p442
F1.0
s(lp443
(g31
I3
tp444
atp445
a(g428
(dp446
g36
F1.0
s(lp447
(g31
I3
tp448
atp449
a(g157
(dp450
g36
F1.0
s(lp451
(g157
I17
tp452
atp453
a(S'overdreven'
p454
(dp455
S'VERB'
p456
F0.860327
sS'ADJ'
p457
F0.139673
s(lp458
(g188
I19
tp459
atp460
a(S'gewelddadig'
p461
(dp462
S'ADJ'
p463
F1.0
s(lp464
(g181
I20
tp465
atp466
a(S'\xe2\x80\x9d'
p467
(dp468
S'ADJ'
p469
F0.007236
sS'NOUN'
p470
F0.9927630000000001
s(lp471
(g193
I21
tp472
atp473
a(g428
(dp474
g36
F1.0
s(lp475
(g31
I3
tp476
atp477
a(S'einde'
p478
(dp479
S'NOUN'
p480
F1.0
s(lp481
(g31
I3
tp482
atp483
a(S'citaat'
p484
(dp485
S'NOUN'
p486
F1.0
s(lp487
tp488
a(g428
(dp489
g36
F1.0
s(lp490
(g31
I3
tp491
atp492
a(S'gereageerd'
p493
(dp494
S'VERB'
p495
F1.0
s(lp496
(g154
I16
tp497
atp498
a(g36
(dp499
g36
F1.0
s(lp500
(g36
I22
tp501
atp502
asS'de'
p503
(lp504
(S'nach'
p505
(dp506
S'ADV'
p507
F0.990775
sS'ADP'
p508
F0.006156
s(lp509
(g16
I0
tp510
atp511
a(S'aussagen'
p512
(dp513
S'VERB'
p514
F1.0
s(lp515
(g31
I3
tp516
atp517
a(S'von'
p518
(dp519
S'NOUN'
p520
F0.006323
sS'ADP'
p521
F0.993677
s(lp522
tp523
a(S'louis'
p524
(dp525
S'ADJ'
p526
F0.001751
sS'NOUN'
p527
F0.998028
s(lp528
tp529
a(S'arbour'
p530
(dp531
S'ADJ'
p532
F0.094352
sS'NOUN'
p533
F0.845159
s(lp534
(g31
I3
tp535
atp536
a(g34
(dp537
g36
F1.0
s(lp538
(g34
I4
tp539
atp540
a(S'dem'
p541
(dp542
S'PRON'
p543
F0.070788
sS'DET'
p544
F0.925217
s(lp545
(g24
I2
tp546
atp547
a(S'hohen'
p548
(dp549
S'ADJ'
p550
F1.0
s(lp551
(g46
I7
tp552
atp553
a(S'kommissar'
p554
(dp555
S'ADJ'
p556
F0.002383
sS'NOUN'
p557
F0.993764
s(lp558
(g53
I8
tp559
atp560
a(S'f\xc3\xbcr'
p561
(dp562
S'ADP'
p563
F1.0
s(lp564
(g96
I9
tp565
atp566
a(S'menschenrechte'
p567
(dp568
S'ADJ'
p569
F1.0
s(lp570
(g81
I10
tp571
atp572
a(g34
(dp573
g36
F1.0
s(lp574
(g34
I12
tp575
atp576
a(S'reagierten'
p577
(dp578
S'VERB'
p579
F0.999532
sS'ADJ'
p580
F0.000468
s(lp581
(g154
I16
tp582
atp583
a(S'die'
p584
(dp585
S'PRON'
p586
F0.000629
sS'DET'
p587
F0.999369
s(lp588
(g122
I13
tp589
atp590
a(S'sicherheitskr\xc3\xa4fte'
p591
(dp592
S'ADJ'
p593
F0.002491
sS'NOUN'
p594
F0.997369
s(lp595
(g130
I15
tp596
atp597
a(g157
(dp598
g36
F1.0
s(lp599
(g157
I17
tp600
atp601
a(S'mit'
p602
(dp603
S'PRT'
p604
F5.8e-05
sS'ADP'
p605
F0.999942
s(lp606
(g167
I18
tp607
atp608
a(S'\xc3\xbcberm\xc3\xa4\xc3\x9figer'
p609
(dp610
S'ADJ'
p611
F1.0
s(lp612
(g188
I19
tp613
atp614
a(S'gewalt'
p615
(dp616
S'ADJ'
p617
F0.048592
sS'NOUN'
p618
F0.941004
s(lp619
(g181
I20
tp620
atp621
a(g157
(dp622
g36
F1.0
s(lp623
(g193
I21
tp624
atp625
a(g36
(dp626
g36
F1.0
s(lp627
(g36
I22
tp628
atp629
asS'it'
p630
(lp631
(S'secondo'
p632
(dp633
S'ADV'
p634
F0.145049
sS'NOUN'
p635
F0.000743
sS'VERB'
p636
F0.003407
sS'ADJ'
p637
F0.071941
sS'ADP'
p638
F0.77886
s(lp639
(g16
I0
tp640
atp641
a(S'louise'
p642
(dp643
S'NOUN'
p644
F0.070333
sS'VERB'
p645
F0.124905
sS'ADJ'
p646
F0.804762
s(lp647
(g24
I2
tp648
atp649
a(S'arbour'
p650
(dp651
S'ADJ'
p652
F0.009805
sS'NOUN'
p653
F0.990195
s(lp654
(g31
I3
tp655
atp656
a(g34
(dp657
g36
F1.0
s(lp658
(g34
I4
tp659
atp660
a(S"l'"
p661
(dp662
S'NOUN'
p663
F0.003774
sS'VERB'
p664
F0.984512
sS'ADJ'
p665
F0.011715
s(lp666
tp667
a(S'alto'
p668
(dp669
S'NOUN'
p670
F0.00363
sS'ADJ'
p671
F0.99637
s(lp672
(g46
I7
tp673
atp674
a(S'commissario'
p675
(dp676
S'VERB'
p677
F0.010315
sS'NOUN'
p678
F0.989685
s(lp679
(g53
I8
tp680
atp681
a(S'delle'
p682
(dp683
S'DEF'
p684
F0.001478
sS'ADP'
p685
F0.998522
s(lp686
tp687
a(S'nazioni'
p688
(dp689
S'NOUN'
p690
F1.0
s(lp691
(g66
I6
tp692
atp693
a(S'unite'
p694
(dp695
S'VERB'
p696
F0.499548
sS'ADJ'
p697
F0.500451
s(lp698
(g74
I5
tp699
atp700
a(S'per'
p701
(dp702
S'CONJ'
p703
F0.03994
sS'ADP'
p704
F0.96006
s(lp705
(g96
I9
tp706
atp707
a(S'i'
p708
(dp709
S'DET'
p710
F1.0
s(lp711
tp712
a(S'diritti'
p713
(dp714
S'ADJ'
p715
F0.015131
sS'NOUN'
p716
F0.984869
s(lp717
(g89
I11
tp718
atp719
a(S'umani'
p720
(dp721
S'NOUN'
p722
F0.023326
sS'ADJ'
p723
F0.976674
s(lp724
(g81
I10
tp725
atp726
a(g34
(dp727
g36
F1.0
s(lp728
(g34
I12
tp729
atp730
a(S'le'
p731
(dp732
S'PRON'
p733
F0.000249
sS'DET'
p734
F0.999751
s(lp735
(g122
I13
tp736
atp737
a(S'forze'
p738
(dp739
S'NOUN'
p740
F1.0
s(lp741
(g130
I15
tp742
atp743
a(S'di'
p744
(dp745
S'CONJ'
p746
F4e-06
sS'ADP'
p747
F0.999996
s(lp748
tp749
a(S'sicurezza'
p750
(dp751
S'NOUN'
p752
F1.0
s(lp753
(g142
I14
tp754
atp755
a(S'hanno'
p756
(dp757
S'VERB'
p758
F1.0
s(lp759
tp760
a(S'reagito'
p761
(dp762
S'VERB'
p763
F1.0
s(lp764
(g154
I16
tp765
atp766
a(g157
(dp767
g36
F1.0
s(lp768
(g157
I17
tp769
atp770
a(S'con'
p771
(dp772
S'ADP'
p773
F1.0
s(lp774
(g167
I18
tp775
atp776
a(S'eccessiva'
p777
(dp778
S'ADJ'
p779
F1.0
s(lp780
(g188
I19
tp781
atp782
a(S'violenza'
p783
(dp784
S'NOUN'
p785
F1.0
s(lp786
(g181
I20
tp787
atp788
a(S'\xe2\x80\x9d'
p789
(dp790
S'ADJ'
p791
F0.046288
sS'NOUN'
p792
F0.953712
s(lp793
(g193
I21
tp794
atp795
a(g36
(dp796
g36
F1.0
s(lp797
(g36
I22
tp798
atp799
asS'sk'
p800
(lp801
(S'pod\xc4\xbea'
p802
(dp803
S'ADP'
p804
F1.0
s(lp805
(g16
I0
tp806
atp807
a(S'louise'
p808
(dp809
S'X'
p810
F0.063014
sS'VERB'
p811
F0.00010400000000000001
sS'NOUN'
p812
F0.936882
s(lp813
(g24
I2
tp814
atp815
a(S'arbourovej'
p816
(dp817
S'NOUN'
p818
F0.024244
sS'ADJ'
p819
F0.975756
s(lp820
(g31
I3
tp821
atp822
a(g34
(dp823
g36
F1.0
s(lp824
(g34
I4
tp825
atp826
a(S'vysokej'
p827
(dp828
S'NOUN'
p829
F0.000856
sS'ADJ'
p830
F0.999144
s(lp831
tp832
a(S'komis\xc3\xa1rky'
p833
(dp834
S'NOUN'
p835
F1.0
s(lp836
(g31
I3
tp837
atp838
a(S'osn'
p839
(dp840
S'ADJ'
p841
F0.000142
sg810
F0.001176
sS'VERB'
p842
F0.018005
sS'NOUN'
p843
F0.9806790000000001
s(lp844
(g66
I6
tp845
atp846
a(S'pre'
p847
(dp848
g810
F6.9e-05
sS'ADP'
p849
F0.999931
s(lp850
(g96
I9
tp851
atp852
a(S'\xc4\xbeudsk\xc3\xa9'
p853
(dp854
S'ADJ'
p855
F1.0
s(lp856
(g81
I10
tp857
atp858
a(S'pr\xc3\xa1va'
p859
(dp860
S'VERB'
p861
F4.1e-05
sS'NOUN'
p862
F0.99996
s(lp863
(g89
I11
tp864
atp865
a(g34
(dp866
g36
F1.0
s(lp867
(g34
I12
tp868
atp869
a(S'bezpe\xc4\x8dnostn\xc3\xa9'
p870
(dp871
S'ADJ'
p872
F1.0
s(lp873
(g142
I14
tp874
atp875
a(S'sily'
p876
(dp877
S'NOUN'
p878
F1.0
s(lp879
(g130
I15
tp880
atp881
a(S'reagovali'
p882
(dp883
S'VERB'
p884
F1.0
s(lp885
(g154
I16
tp886
atp887
a(S's'
p888
(dp889
g810
F0.000907
sS'CONJ'
p890
F5e-05
sS'NOUN'
p891
F1.7e-05
sS'ADP'
p892
F0.999015
sS'PRT'
p893
F1.1e-05
s(lp894
(g167
I18
tp895
atp896
a(S'neprimeran\xc3\xbdm'
p897
(dp898
S'VERB'
p899
F0.693568
sS'ADJ'
p900
F0.306433
s(lp901
(g188
I19
tp902
atp903
a(S'n\xc3\xa1sil\xc3\xadm'
p904
(dp905
S'NOUN'
p906
F1.0
s(lp907
(g181
I20
tp908
atp909
a(g36
(dp910
g36
F1.0
s(lp911
(g36
I22
tp912
atp913
asS'pl'
p914
(lp915
(S'wed\xc5\x82ug'
p916
(dp917
S'ADP'
p918
F1.0
s(lp919
(g16
I0
tp920
atp921
a(S'louise'
p922
(dp923
S'ADJ'
p924
F0.011623000000000003
sg810
F0.036451
sS'ADV'
p925
F0.000438
sS'VERB'
p926
F0.00017700000000000002
sS'NOUN'
p927
F0.9513099999999999
s(lp928
(g24
I2
tp929
atp930
a(S'arbor'
p931
(dp932
S'ADV'
p933
F0.018962
sS'NOUN'
p934
F0.7057450000000001
sS'ADJ'
p935
F0.238661
sg810
F0.036633
s(lp936
(g31
I3
tp937
atp938
a(g34
(dp939
g810
F5.8e-05
sg36
F0.999942
s(lp940
(g34
I4
tp941
atp942
a(S'wysokiego'
p943
(dp944
S'ADJ'
p945
F1.0
s(lp946
(g31
I3
tp947
atp948
a(S'komisarza'
p949
(dp950
S'NOUN'
p951
F1.0
s(lp952
tp953
a(S'narod\xc3\xb3w'
p954
(dp955
S'NOUN'
p956
F1.0
s(lp957
(g66
I6
tp958
atp959
a(S'zjednoczonych'
p960
(dp961
S'VERB'
p962
F1.0
s(lp963
(g74
I5
tp964
atp965
a(S'ds'
p966
(dp967
S'ADV'
p968
F0.016567
sg810
F0.001789
sS'ADJ'
p969
F0.0014489999999999998
sS'VERB'
p970
F0.0071979999999999995
sS'NOUN'
p971
F0.9729970000000003
s(lp972
(g31
I3
tp973
atp974
a(g36
(dp975
g36
F1.0
s(lp976
tp977
a(S'praw'
p978
(dp979
S'NOUN'
p980
F1.0
s(lp981
(g89
I11
tp982
atp983
a(S'cz\xc5\x82owieka'
p984
(dp985
S'NOUN'
p986
F1.0
s(lp987
(g81
I10
tp988
atp989
a(g34
(dp990
g810
F0.0
sg36
F1.0
s(lp991
(g34
I12
tp992
atp993
a(S'si\xc5\x82y'
p994
(dp995
S'NOUN'
p996
F1.0
s(lp997
(g130
I15
tp998
atp999
a(S'bezpiecze\xc5\x84stwa'
p1000
(dp1001
S'NOUN'
p1002
F1.0
s(lp1003
(g142
I14
tp1004
atp1005
a(S'zareagowa\xc5\x82y'
p1006
(dp1007
S'VERB'
p1008
F1.0
s(lp1009
(g154
I16
tp1010
atp1011
a(g157
(dp1012
g36
F1.0
s(lp1013
(g157
I17
tp1014
atp1015
a(S'nadmiern\xc4\x85'
p1016
(dp1017
S'ADJ'
p1018
F1.0
s(lp1019
(g188
I19
tp1020
atp1021
a(S'przemoc\xc4\x85'
p1022
(dp1023
S'NOUN'
p1024
F1.0
s(lp1025
(g181
I20
tp1026
atp1027
a(S'\xe2\x80\x9d'
p1028
(dp1029
g36
F1.0
s(lp1030
(g193
I21
tp1031
atp1032
a(g36
(dp1033
g36
F1.0
s(lp1034
(g36
I22
tp1035
atp1036
asS'sl'
p1037
(lp1038
(S'po'
p1039
(dp1040
g810
F4e-06
sS'ADP'
p1041
F0.999996
s(lp1042
(g16
I0
tp1043
atp1044
a(S'besedah'
p1045
(dp1046
S'NOUN'
p1047
F1.0
s(lp1048
(g31
I3
tp1049
atp1050
a(S'louise'
p1051
(dp1052
S'ADV'
p1053
F0.021308
sS'ADJ'
p1054
F0.009854
sS'VERB'
p1055
F0.675946
sS'NOUN'
p1056
F0.291293
sg810
F0.001604
s(lp1057
tp1058
a(S'arbour'
p1059
(dp1060
S'ADV'
p1061
F0.011808
sg810
F0.001465
sS'ADJ'
p1062
F0.001295
sS'NOUN'
p1063
F0.9854319999999999
s(lp1064
(g31
I3
tp1065
atp1066
a(g34
(dp1067
g36
F1.0
s(lp1068
(g34
I4
tp1069
atp1070
a(S'visoke'
p1071
(dp1072
S'ADJ'
p1073
F0.999999
s(lp1074
(g46
I7
tp1075
atp1076
a(S'komisarke'
p1077
(dp1078
S'ADV'
p1079
F3.8e-05
sS'ADJ'
p1080
F0.008584999999999999
sS'VERB'
p1081
F2e-06
sS'NOUN'
p1082
F0.9913739999999999
s(lp1083
(g53
I8
tp1084
atp1085
a(S'zdru\xc5\xbeenih'
p1086
(dp1087
S'ADJ'
p1088
F1.0
s(lp1089
(g74
I5
tp1090
atp1091
a(S'narodov'
p1092
(dp1093
S'NOUN'
p1094
F1.0
s(lp1095
(g66
I6
tp1096
atp1097
a(S'za'
p1098
(dp1099
S'ADV'
p1100
F2e-06
sg810
F5.5e-05
sS'ADP'
p1101
F0.9999419999999999
s(lp1102
(g96
I9
tp1103
atp1104
a(S'\xc4\x8dlovekove'
p1105
(dp1106
S'ADJ'
p1107
F1.0
s(lp1108
(g81
I10
tp1109
atp1110
a(S'pravice'
p1111
(dp1112
S'NOUN'
p1113
F1.0
s(lp1114
(g89
I11
tp1115
atp1116
a(g34
(dp1117
g36
F1.0
s(lp1118
(g34
I12
tp1119
atp1120
a(S'so'
p1121
(dp1122
g810
F5.5e-05
sS'VERB'
p1123
F0.999945
s(lp1124
(g122
I13
tp1125
atp1126
a(S'se'
p1127
(dp1128
S'PRON'
p1129
F0.999989
sg810
F1.1e-05
s(lp1130
tp1131
a(S'varnostne'
p1132
(dp1133
S'ADJ'
p1134
F1.000001
s(lp1135
(g142
I14
tp1136
atp1137
a(S'sile'
p1138
(dp1139
S'NOUN'
p1140
F1.0
s(lp1141
(g130
I15
tp1142
atp1143
a(S'odzvale'
p1144
(dp1145
S'VERB'
p1146
F1.0
s(lp1147
(g154
I16
tp1148
atp1149
a(g34
(dp1150
g36
F1.0
s(lp1151
tp1152
a(S'citiram'
p1153
(dp1154
S'VERB'
p1155
F1.0
s(lp1156
tp1157
a(g157
(dp1158
g36
F1.0
s(lp1159
(g157
I17
tp1160
atp1161
a(S'pretirano'
p1162
(dp1163
S'ADV'
p1164
F0.623406
sS'ADJ'
p1165
F0.376595
s(lp1166
(g188
I19
tp1167
atp1168
a(S'nasilno'
p1169
(dp1170
S'ADV'
p1171
F0.384303
sS'ADJ'
p1172
F0.615697
s(lp1173
(g181
I20
tp1174
atp1175
a(g157
(dp1176
g36
F1.0
s(lp1177
(g193
I21
tp1178
atp1179
a(g34
(dp1180
g36
F1.0
s(lp1181
tp1182
a(S'konec'
p1183
(dp1184
S'NOUN'
p1185
F0.12081999999999998
sS'ADP'
p1186
F0.87918
s(lp1187
(g24
I2
tp1188
atp1189
a(S'citata'
p1190
(dp1191
S'ADJ'
p1192
F0.0024470000000000004
sS'VERB'
p1193
F0.001811
sS'NOUN'
p1194
F0.9946559999999999
sg810
F0.001087
s(lp1195
(g31
I3
tp1196
atp1197
a(g36
(dp1198
g36
F1.0
s(lp1199
(g36
I22
tp1200
atp1201
asS'es'
p1202
(lp1203
(S'seg\xc3\xban'
p1204
(dp1205
S'CONJ'
p1206
F0.999748
sS'ADP'
p1207
F0.000252
s(lp1208
(g16
I0
tp1209
atp1210
a(S'louise'
p1211
(dp1212
S'VERB'
p1213
F1.0
s(lp1214
(g24
I2
tp1215
atp1216
a(S'arbour'
p1217
(dp1218
S'VERB'
p1219
F0.007421
sS'NOUN'
p1220
F0.992579
s(lp1221
(g31
I3
tp1222
atp1223
a(g34
(dp1224
g36
F1.0
s(lp1225
(g34
I4
tp1226
atp1227
a(S'alta'
p1228
(dp1229
S'ADJ'
p1230
F1.0
s(lp1231
tp1232
a(S'comisionada'
p1233
(dp1234
S'VERB'
p1235
F1.0
s(lp1236
(g31
I3
tp1237
atp1238
a(S'de'
p1239
(dp1240
g810
F0.0
sS'CONJ'
p1241
F2.3e-05
sS'ADP'
p1242
F0.999977
s(lp1243
tp1244
a(S'las'
p1245
(dp1246
S'PRON'
p1247
F0.0
sS'DET'
p1248
F1.0
s(lp1249
tp1250
a(S'naciones'
p1251
(dp1252
S'ADJ'
p1253
F0.08341
sS'VERB'
p1254
F0.297678
sS'NOUN'
p1255
F0.618911
s(lp1256
(g66
I6
tp1257
atp1258
a(S'unidas'
p1259
(dp1260
S'ADJ'
p1261
F0.08341
sS'VERB'
p1262
F0.297678
sS'NOUN'
p1263
F0.618911
s(lp1264
(g74
I5
tp1265
atp1266
a(S'para'
p1267
(dp1268
S'CONJ'
p1269
F0.000856
sS'ADP'
p1270
F0.999144
s(lp1271
(g96
I9
tp1272
atp1273
a(S'los'
p1274
(dp1275
S'PRON'
p1276
F0.0
sS'DET'
p1277
F1.0
s(lp1278
tp1279
a(S'derechos'
p1280
(dp1281
S'NOUN'
p1282
F1.0
s(lp1283
(g89
I11
tp1284
atp1285
a(S'humanos'
p1286
(dp1287
S'NOUN'
p1288
F0.114657
sS'ADJ'
p1289
F0.885343
s(lp1290
(g81
I10
tp1291
atp1292
a(g34
(dp1293
g36
F1.0
s(lp1294
(g34
I12
tp1295
atp1296
a(S'las'
p1297
(dp1298
S'PRON'
p1299
F0.001006
sS'DET'
p1300
F0.998994
s(lp1301
(g122
I13
tp1302
atp1303
a(S'fuerzas'
p1304
(dp1305
S'VERB'
p1306
F0.001324
sS'NOUN'
p1307
F0.998676
s(lp1308
(g130
I15
tp1309
atp1310
a(S'de'
p1311
(dp1312
g810
F2.9e-05
sS'CONJ'
p1313
F0.00045
sS'ADP'
p1314
F0.999521
s(lp1315
tp1316
a(S'seguridad'
p1317
(dp1318
S'NOUN'
p1319
F1.0
s(lp1320
(g142
I14
tp1321
atp1322
a(S'reaccionaron'
p1323
(dp1324
S'VERB'
p1325
F1.0
s(lp1326
(g154
I16
tp1327
atp1328
a(g157
(dp1329
g36
F1.0
s(lp1330
(g157
I17
tp1331
atp1332
a(S'con'
p1333
(dp1334
S'ADP'
p1335
F1.0
s(lp1336
(g167
I18
tp1337
atp1338
a(S'violencia'
p1339
(dp1340
S'NOUN'
p1341
F1.0
s(lp1342
(g181
I20
tp1343
atp1344
a(S'excesiva'
p1345
(dp1346
S'ADJ'
p1347
F1.0
s(lp1348
(g188
I19
tp1349
atp1350
a(g157
(dp1351
g36
F1.0
s(lp1352
(g193
I21
tp1353
atp1354
a(g36
(dp1355
g36
F1.0
s(lp1356
(g36
I22
tp1357
atp1358
as.