(dp0
S'fr'
p1
(lp2
(S'le'
p3
(dp4
S'PRON'
p5
F0.01424
sS'DET'
p6
F0.98576
s(lp7
(S'the'
p8
I0
tp9
atp10
a(S'trait\xc3\xa9'
p11
(dp12
S'VERB'
p13
F0.018592
sS'NOUN'
p14
F0.981408
s(lp15
(S'treaty'
p16
I1
tp17
atp18
a(S'de'
p19
(dp20
S'ADP'
p21
F1.0
s(lp22
(S'of'
p23
I2
tp24
atp25
a(S'lisbonne'
p26
(dp27
S'ADJ'
p28
F0.140963
sS'VERB'
p29
F0.00148
sS'NOUN'
p30
F0.857557
s(lp31
(S'lisbon'
p32
I3
tp33
atp34
a(S','
p35
(dp36
S'.'
p37
F1.0
s(lp38
(S'is'
p39
I4
tp40
atp41
a(S'ce'
p42
(dp43
S'PRON'
p44
F1.0
s(lp45
(g39
I4
tp46
atp47
a(S"n'"
p48
(dp49
S'ADJ'
p50
F0.022127
sS'VERB'
p51
F0.564007
sS'NOUN'
p52
F0.413866
s(lp53
tp54
a(S'est'
p55
(dp56
S'VERB'
p57
F0.998625
sS'NOUN'
p58
F0.001375
s(lp59
(g39
I4
tp60
atp61
a(S"qu'"
p62
(dp63
S'NOUN'
p64
F0.043762
sS'VERB'
p65
F0.769087
sS'ADJ'
p66
F0.18715
s(lp67
(S'just'
p68
I5
tp69
atp70
a(S'un'
p71
(dp72
S'NOUN'
p73
F6e-05
sS'NUM'
p74
F0.025531
sS'DET'
p75
F0.974409
s(lp76
(S'one'
p77
I6
tp78
atp79
a(S'moment'
p80
(dp81
S'NOUN'
p82
F1.0
s(lp83
(S'moment'
p84
I7
tp85
atp86
a(S'dans'
p87
(dp88
S'NOUN'
p89
F3e-06
sS'ADP'
p90
F0.999997
s(lp91
(S'in'
p92
I8
tp93
atp94
a(S'cette'
p95
(dp96
S'PRON'
p97
F1.0
s(lp98
(S'this'
p99
I9
tp100
atp101
a(S'histoire'
p102
(dp103
S'NOUN'
p104
F1.0
s(lp105
(S'history'
p106
I10
tp107
atp108
a(g35
(dp109
g37
F1.0
s(lp110
(S';'
p111
I11
tp112
atp113
a(S'ce'
p114
(dp115
S'PRON'
p116
F1.0
s(lp117
(S'it'
p118
I12
tp119
atp120
a(S"n'"
p121
(dp122
S'ADJ'
p123
F0.022127
sS'VERB'
p124
F0.564007
sS'NOUN'
p125
F0.413866
s(lp126
tp127
a(S'est'
p128
(dp129
S'VERB'
p130
F0.998625
sS'NOUN'
p131
F0.001375
s(lp132
(S'is'
p133
I13
tp134
atp135
a(S"qu'"
p136
(dp137
S'NOUN'
p138
F0.043762
sS'VERB'
p139
F0.769087
sS'ADJ'
p140
F0.18715
s(lp141
(S'just'
p142
I14
tp143
atp144
a(S'une'
p145
(dp146
S'NOUN'
p147
F1.5e-05
sS'NUM'
p148
F0.021976
sS'DET'
p149
F0.978009
s(lp150
(S'one'
p151
I15
tp152
atp153
a(S'\xc3\xa9tape'
p154
(dp155
S'NOUN'
p156
F1.0
s(lp157
(S'stage'
p158
I16
tp159
atp160
a(S'dans'
p161
(dp162
S'NOUN'
p163
F3e-06
sS'ADP'
p164
F0.999997
s(lp165
(S'in'
p166
I17
tp167
atp168
a(S'cette'
p169
(dp170
S'PRON'
p171
F1.0
s(lp172
(S'this'
p173
I18
tp174
atp175
a(S'histoire'
p176
(dp177
S'NOUN'
p178
F1.0
s(lp179
(S'history'
p180
I19
tp181
atp182
a(g37
(dp183
g37
F1.0
s(lp184
(g37
I20
tp185
atp186
asS'en'
p187
(lp188
(g8
(dp189
S'NOUN'
p190
F5e-06
sS'DET'
p191
F0.999995
s(lp192
(g8
I0
tp193
atp194
a(g16
(dp195
S'NOUN'
p196
F1.0
s(lp197
(g16
I1
tp198
atp199
a(g23
(dp200
S'ADP'
p201
F1.0
s(lp202
(g23
I2
tp203
atp204
a(g32
(dp205
S'ADJ'
p206
F0.002834
sS'VERB'
p207
F2e-06
sS'NOUN'
p208
F0.9971639999999999
s(lp209
(g32
I3
tp210
atp211
a(g39
(dp212
S'VERB'
p213
F1.0
s(lp214
(g39
I4
tp215
atp216
a(g68
(dp217
S'ADV'
p218
F0.999834
sS'NOUN'
p219
F0.0
sS'ADJ'
p220
F0.000165
s(lp221
(g68
I5
tp222
atp223
a(g77
(dp224
S'PRON'
p225
F3e-06
sS'NUM'
p226
F0.999996
sS'NOUN'
p227
F1e-06
s(lp228
(g77
I6
tp229
atp230
a(g84
(dp231
S'NOUN'
p232
F1.0
s(lp233
(g84
I7
tp234
atp235
a(g92
(dp236
S'ADV'
p237
F0.000191
sS'PRT'
p238
F0.000279
sS'ADP'
p239
F0.999531
s(lp240
(g92
I8
tp241
atp242
a(g99
(dp243
S'ADV'
p244
F3e-06
sS'NOUN'
p245
F1.9e-05
sS'DET'
p246
F0.999978
s(lp247
(g99
I9
tp248
atp249
a(g106
(dp250
S'NOUN'
p251
F1.0
s(lp252
(g106
I10
tp253
atp254
a(g111
(dp255
g37
F1.0
s(lp256
(g111
I11
tp257
atp258
a(g118
(dp259
S'PRON'
p260
F1.0
s(lp261
(g118
I12
tp262
atp263
a(g133
(dp264
S'VERB'
p265
F1.0
s(lp266
(g133
I13
tp267
atp268
a(g142
(dp269
S'ADV'
p270
F0.999834
sS'NOUN'
p271
F0.0
sS'ADJ'
p272
F0.000165
s(lp273
(g142
I14
tp274
atp275
a(g151
(dp276
S'PRON'
p277
F0.001278
sS'NUM'
p278
F0.998721
sS'NOUN'
p279
F1e-06
s(lp280
(g151
I15
tp281
atp282
a(g158
(dp283
S'VERB'
p284
F0.001279
sS'NOUN'
p285
F0.998721
s(lp286
(g158
I16
tp287
atp288
a(g166
(dp289
S'ADV'
p290
F0.000195
sS'PRT'
p291
F0.000291
sS'ADP'
p292
F0.999514
s(lp293
(g166
I17
tp294
atp295
a(g173
(dp296
S'ADV'
p297
F3e-06
sS'NOUN'
p298
F1.9e-05
sS'DET'
p299
F0.999978
s(lp300
(g173
I18
tp301
atp302
a(g180
(dp303
S'NOUN'
p304
F1.0
s(lp305
(g180
I19
tp306
atp307
a(g37
(dp308
g37
F1.0
s(lp309
(g37
I20
tp310
atp311
asS'nl'
p312
(lp313
(S'het'
p314
(dp315
S'PRON'
p316
F0.01289
sS'DET'
p317
F0.98711
s(lp318
(g8
I0
tp319
atp320
a(S'verdrag'
p321
(dp322
S'NOUN'
p323
F1.0
s(lp324
(g16
I1
tp325
atp326
a(S'van'
p327
(dp328
S'ADP'
p329
F1.0
s(lp330
(g23
I2
tp331
atp332
a(S'lissabon'
p333
(dp334
S'NOUN'
p335
F1.0
s(lp336
(g32
I3
tp337
atp338
a(S'is'
p339
(dp340
S'VERB'
p341
F1.0
s(lp342
(g39
I4
tp343
atp344
a(S'slechts'
p345
(dp346
S'ADV'
p347
F1.0
s(lp348
(g68
I5
tp349
atp350
a(S'een'
p351
(dp352
S'ADJ'
p353
F1.1e-05
sS'PRON'
p354
F2e-05
sS'NUM'
p355
F1e-06
sS'DET'
p356
F0.999968
s(lp357
(g77
I6
tp358
atp359
a(S'moment'
p360
(dp361
S'NOUN'
p362
F1.0
s(lp363
(g84
I7
tp364
atp365
a(S'in'
p366
(dp367
S'ADV'
p368
F0.001199
sS'VERB'
p369
F1e-06
sS'ADP'
p370
F0.9988
s(lp371
(g92
I8
tp372
atp373
a(S'deze'
p374
(dp375
S'PRON'
p376
F1.0
s(lp377
(g99
I9
tp378
atp379
a(S'geschiedenis'
p380
(dp381
S'NOUN'
p382
F1.0
s(lp383
(g106
I10
tp384
atp385
a(g35
(dp386
g37
F1.0
s(lp387
(g111
I11
tp388
atp389
a(S'het'
p390
(dp391
S'PRON'
p392
F0.946457
sS'DET'
p393
F0.053543
s(lp394
(g118
I12
tp395
atp396
a(S'is'
p397
(dp398
S'VERB'
p399
F1.0
s(lp400
(g133
I13
tp401
atp402
a(S'slechts'
p403
(dp404
S'ADV'
p405
F1.0
s(lp406
(g142
I14
tp407
atp408
a(S'een'
p409
(dp410
S'ADJ'
p411
F1.1e-05
sS'PRON'
p412
F2e-05
sS'NUM'
p413
F1e-06
sS'DET'
p414
F0.999968
s(lp415
(g151
I15
tp416
atp417
a(S'fase'
p418
(dp419
S'NOUN'
p420
F1.0
s(lp421
(g158
I16
tp422
atp423
a(S'in'
p424
(dp425
S'ADV'
p426
F0.001199
sS'VERB'
p427
F1e-06
sS'ADP'
p428
F0.9988
s(lp429
(g166
I17
tp430
atp431
a(S'deze'
p432
(dp433
S'PRON'
p434
F1.0
s(lp435
(g173
I18
tp436
atp437
a(S'geschiedenis'
p438
(dp439
S'NOUN'
p440
F1.0
s(lp441
(g180
I19
tp442
atp443
a(g37
(dp444
g37
F1.0
s(lp445
(g37
I20
tp446
atp447
asS'de'
p448
(lp449
(S'der'
p450
(dp451
S'PRON'
p452
F0.183578
sS'DET'
p453
F0.791726
s(lp454
(g8
I0
tp455
atp456
a(S'vertrag'
p457
(dp458
S'VERB'
p459
F1.0
s(lp460
(g16
I1
tp461
atp462
a(S'von'
p463
(dp464
S'NOUN'
p465
F0.000612
sS'ADP'
p466
F0.999388
s(lp467
(g23
I2
tp468
atp469
a(S'lissabon'
p470
(dp471
S'NOUN'
p472
F0.999198
s(lp473
(g32
I3
tp474
atp475
a(S'ist'
p476
(dp477
S'VERB'
p478
F1.0
s(lp479
(g39
I4
tp480
atp481
a(S'nur'
p482
(dp483
S'ADV'
p484
F1.0
s(lp485
(g68
I5
tp486
atp487
a(S'ein'
p488
(dp489
S'NUM'
p490
F0.004426
sS'DET'
p491
F0.994326
s(lp492
(g77
I6
tp493
atp494
a(S'moment'
p495
(dp496
S'ADJ'
p497
F0.151236
sS'NOUN'
p498
F0.816759
s(lp499
(g84
I7
tp500
atp501
a(g35
(dp502
g37
F1.0
s(lp503
(g111
I11
tp504
atp505
a(S'eine'
p506
(dp507
S'PRON'
p508
F0.004094
sS'DET'
p509
F0.995581
s(lp510
(g151
I15
tp511
atp512
a(S'phase'
p513
(dp514
S'ADJ'
p515
F0.018508
sS'NOUN'
p516
F0.961967
s(lp517
(g158
I16
tp518
atp519
a(S'in'
p520
(dp521
S'ADP'
p522
F1.0
s(lp523
(g166
I17
tp524
atp525
a(S'dieser'
p526
(dp527
S'PRON'
p528
F1.0
s(lp529
(g173
I18
tp530
atp531
a(S'geschichte'
p532
(dp533
S'VERB'
p534
F0.0023
sS'NOUN'
p535
F0.996165
s(lp536
(g180
I19
tp537
atp538
a(g37
(dp539
g37
F1.0
s(lp540
(g37
I20
tp541
atp542
asS'it'
p543
(lp544
(S'il'
p545
(dp546
S'DET'
p547
F1.0
s(lp548
(g8
I0
tp549
atp550
a(S'trattato'
p551
(dp552
S'VERB'
p553
F0.114483
sS'NOUN'
p554
F0.885517
s(lp555
(g16
I1
tp556
atp557
a(S'di'
p558
(dp559
S'CONJ'
p560
F8.1e-05
sS'ADP'
p561
F0.999919
s(lp562
(g23
I2
tp563
atp564
a(S'lisbona'
p565
(dp566
S'ADJ'
p567
F0.005037
sS'VERB'
p568
F0.72813
sS'NOUN'
p569
F0.266833
s(lp570
(g32
I3
tp571
atp572
a(S'\xc3\xa8'
p573
(dp574
S'VERB'
p575
F1.0
s(lp576
(g39
I4
tp577
atp578
a(S'solo'
p579
(dp580
S'ADV'
p581
F0.991543
sS'NOUN'
p582
F7.3e-05
sS'VERB'
p583
F3.7e-05
sS'ADJ'
p584
F0.008347
s(lp585
(g68
I5
tp586
atp587
a(S'un'
p588
(dp589
S'PRON'
p590
F0.001209
sS'DEF'
p591
F0.998791
s(lp592
(g77
I6
tp593
atp594
a(S'momento'
p595
(dp596
S'NOUN'
p597
F1.0
s(lp598
(g84
I7
tp599
atp600
a(g35
(dp601
g37
F1.0
s(lp602
(g111
I11
tp603
atp604
a(S'una'
p605
(dp606
S'PRON'
p607
F0.000307
sS'DEF'
p608
F0.999693
s(lp609
(g151
I15
tp610
atp611
a(S'fase'
p612
(dp613
S'NOUN'
p614
F1.0
s(lp615
(g158
I16
tp616
atp617
a(S'di'
p618
(dp619
S'CONJ'
p620
F5e-06
sS'ADP'
p621
F0.999995
s(lp622
(g166
I17
tp623
atp624
a(S"quest'"
p625
(dp626
S'ADJ'
p627
F0.018253
sS'VERB'
p628
F0.018786
sS'NOUN'
p629
F0.96296
s(lp630
(g173
I18
tp631
atp632
a(S'epoca'
p633
(dp634
S'NOUN'
p635
F1.0
s(lp636
tp637
a(S'storica'
p638
(dp639
S'NOUN'
p640
F0.015475
sS'ADJ'
p641
F0.984525
s(lp642
(g180
I19
tp643
atp644
a(g37
(dp645
g37
F1.0
s(lp646
(g37
I20
tp647
atp648
asS'sk'
p649
(lp650
(S'lisabonsk\xc3\xa1'
p651
(dp652
S'NOUN'
p653
F0.00428
sS'VERB'
p654
F0.21000400000000002
sS'ADJ'
p655
F0.785716
s(lp656
(g32
I3
tp657
atp658
a(S'zmluva'
p659
(dp660
S'NOUN'
p661
F1.0
s(lp662
(g16
I1
tp663
atp664
a(S'je'
p665
(dp666
S'X'
p667
F3.6e-05
sS'VERB'
p668
F0.999937
sS'PRON'
p669
F2.8e-05
s(lp670
(g39
I4
tp671
atp672
a(S'len'
p673
(dp674
g667
F0.996134
sS'CONJ'
p675
F0.003866
s(lp676
(g68
I5
tp677
atp678
a(S'jedn\xc3\xbdm'
p679
(dp680
S'NUM'
p681
F1.0
s(lp682
(g77
I6
tp683
atp684
a(S'okamihom'
p685
(dp686
S'NOUN'
p687
F1.0
s(lp688
(g84
I7
tp689
atp690
a(S'v'
p691
(dp692
g667
F6.1e-05
sS'ADP'
p693
F0.999939
s(lp694
(g92
I8
tp695
atp696
a(S't\xc3\xbdchto'
p697
(dp698
S'PRON'
p699
F1.0
s(lp700
(g99
I9
tp701
atp702
a(S'dejin\xc3\xa1ch'
p703
(dp704
S'NOUN'
p705
F1.0
s(lp706
(g106
I10
tp707
atp708
a(g35
(dp709
g37
F1.0
s(lp710
(g111
I11
tp711
atp712
a(S'je'
p713
(dp714
S'PRON'
p715
F8.9e-05
sS'VERB'
p716
F0.999857
sg667
F5.4e-05
s(lp717
(g133
I13
tp718
atp719
a(S'len'
p720
(dp721
g667
F0.996131
sS'CONJ'
p722
F0.003869
s(lp723
(g142
I14
tp724
atp725
a(S'jednou'
p726
(dp727
g667
F3.8e-05
sS'NUM'
p728
F0.999962
s(lp729
(g151
I15
tp730
atp731
a(S'historickou'
p732
(dp733
S'ADJ'
p734
F1.0
s(lp735
(g180
I19
tp736
atp737
a(S'etapou'
p738
(dp739
S'NOUN'
p740
F1.0
s(lp741
(g158
I16
tp742
atp743
a(g37
(dp744
g37
F1.0
s(lp745
(g37
I20
tp746
atp747
asS'pl'
p748
(lp749
(S'traktat'
p750
(dp751
S'NOUN'
p752
F1.0
s(lp753
(g16
I1
tp754
atp755
a(S'lizbo\xc5\x84ski'
p756
(dp757
S'NOUN'
p758
F0.14171
sS'VERB'
p759
F0.02323
sS'ADJ'
p760
F0.8350589999999999
s(lp761
(g32
I3
tp762
atp763
a(S'to'
p764
(dp765
S'NOUN'
p766
F0.18682300000000002
sS'ADP'
p767
F9e-06
sS'PRT'
p768
F0.138363
sg667
F0.000323
sS'CONJ'
p769
F0.249275
sS'ADJ'
p770
F0.425207
s(lp771
(g39
I4
tp772
atp773
a(S'tylko'
p774
(dp775
S'PRT'
p776
F0.768025
sS'CONJ'
p777
F0.231975
s(lp778
(g68
I5
tp779
atp780
a(S'jeden'
p781
(dp782
S'NUM'
p783
F0.023708999999999994
sS'ADJ'
p784
F0.976292
s(lp785
(g77
I6
tp786
atp787
a(S'moment'
p788
(dp789
S'NOUN'
p790
F1.0
s(lp791
(g84
I7
tp792
atp793
a(g35
(dp794
g667
F0.0
sg37
F1.0
s(lp795
(g111
I11
tp796
atp797
a(S'jeden'
p798
(dp799
S'NUM'
p800
F0.001985
sS'ADJ'
p801
F0.998016
s(lp802
(g151
I15
tp803
atp804
a(S'etap'
p805
(dp806
S'NOUN'
p807
F1.0
s(lp808
(g158
I16
tp809
atp810
a(S'tej'
p811
(dp812
S'PRON'
p813
F4.2e-05
sS'ADJ'
p814
F0.999955
sg667
F3e-06
s(lp815
(g173
I18
tp816
atp817
a(S'historii'
p818
(dp819
S'NOUN'
p820
F1.0000000000000002
s(lp821
(g180
I19
tp822
atp823
a(g37
(dp824
g37
F1.0
s(lp825
(g37
I20
tp826
atp827
asS'sl'
p828
(lp829
(S'lizbonska'
p830
(dp831
S'NOUN'
p832
F0.000673
sS'ADJ'
p833
F0.999326
s(lp834
(g32
I3
tp835
atp836
a(S'pogodba'
p837
(dp838
S'NOUN'
p839
F1.0
s(lp840
(g16
I1
tp841
atp842
a(S'je'
p843
(dp844
S'PRON'
p845
F0.000584
sS'VERB'
p846
F0.9994029999999999
sg667
F1.3e-05
s(lp847
(g39
I4
tp848
atp849
a(S'samo'
p850
(dp851
S'PRT'
p852
F0.999312
sS'ADJ'
p853
F0.000688
s(lp854
(g68
I5
tp855
atp856
a(S'en'
p857
(dp858
g667
F1e-05
sS'NUM'
p859
F0.99999
s(lp860
(g77
I6
tp861
atp862
a(S'trenutek'
p863
(dp864
S'NOUN'
p865
F1.0
s(lp866
(g84
I7
tp867
atp868
a(g691
(dp869
S'ADP'
p870
F1.0
s(lp871
(g92
I8
tp872
atp873
a(S'tej'
p874
(dp875
S'PRON'
p876
F1.0
s(lp877
(g99
I9
tp878
atp879
a(S'zgodovini'
p880
(dp881
S'NOUN'
p882
F1.0
s(lp883
(g106
I10
tp884
atp885
a(g111
(dp886
g37
F1.0
s(lp887
(g111
I11
tp888
atp889
a(S'gre'
p890
(dp891
S'VERB'
p892
F1.0
s(lp893
(g133
I13
tp894
atp895
a(S'samo'
p896
(dp897
S'PRT'
p898
F0.995567
sS'ADJ'
p899
F0.004431999999999999
s(lp900
(g142
I14
tp901
atp902
a(S'za'
p903
(dp904
S'ADV'
p905
F2.4e-05
sg667
F1e-06
sS'ADP'
p906
F0.999976
s(lp907
tp908
a(S'eno'
p909
(dp910
S'NUM'
p911
F1.0
s(lp912
(g151
I15
tp913
atp914
a(S'fazo'
p915
(dp916
S'NOUN'
p917
F1.0
s(lp918
(g158
I16
tp919
atp920
a(g691
(dp921
S'ADP'
p922
F1.0
s(lp923
(g166
I17
tp924
atp925
a(S'tej'
p926
(dp927
S'PRON'
p928
F1.0
s(lp929
(g173
I18
tp930
atp931
a(S'zgodovini'
p932
(dp933
S'NOUN'
p934
F1.0
s(lp935
(g180
I19
tp936
atp937
a(g37
(dp938
g37
F1.0
s(lp939
(g37
I20
tp940
atp941
asS'es'
p942
(lp943
(S'el'
p944
(dp945
S'PRON'
p946
F9e-05
sS'DET'
p947
F0.99991
s(lp948
(g8
I0
tp949
atp950
a(S'tratado'
p951
(dp952
S'VERB'
p953
F0.75073
sS'NOUN'
p954
F0.24927
s(lp955
(g16
I1
tp956
atp957
a(S'de'
p958
(dp959
g667
F1.1e-05
sS'CONJ'
p960
F0.011201
sS'ADP'
p961
F0.988788
s(lp962
(g23
I2
tp963
atp964
a(S'lisboa'
p965
(dp966
S'ADV'
p967
F0.07728
sS'ADJ'
p968
F0.053663
sS'VERB'
p969
F0.038918999999999995
sS'NOUN'
p970
F0.830138
s(lp971
(g32
I3
tp972
atp973
a(S'es'
p974
(dp975
S'VERB'
p976
F1.0
s(lp977
(g39
I4
tp978
atp979
a(S'solo'
p980
(dp981
S'ADV'
p982
F0.088658
sS'NOUN'
p983
F0.000571
sS'ADJ'
p984
F0.910772
s(lp985
(g68
I5
tp986
atp987
a(S'un'
p988
(dp989
g667
F4e-05
sS'DET'
p990
F0.99996
s(lp991
(g77
I6
tp992
atp993
a(S'momento'
p994
(dp995
S'NOUN'
p996
F1.0
s(lp997
(g84
I7
tp998
atp999
a(S'en'
p1000
(dp1001
g667
F0.0
sS'CONJ'
p1002
F1e-06
sS'ADP'
p1003
F0.999999
s(lp1004
(g92
I8
tp1005
atp1006
a(S'esa'
p1007
(dp1008
S'PRON'
p1009
F1.0
s(lp1010
(g99
I9
tp1011
atp1012
a(S'historia'
p1013
(dp1014
S'VERB'
p1015
F0.000289
sS'NOUN'
p1016
F0.999711
s(lp1017
(g106
I10
tp1018
atp1019
a(g111
(dp1020
g37
F1.0
s(lp1021
(g111
I11
tp1022
atp1023
a(S'es'
p1024
(dp1025
S'VERB'
p1026
F1.0
s(lp1027
(g133
I13
tp1028
atp1029
a(S'solo'
p1030
(dp1031
S'ADV'
p1032
F0.088661
sS'NOUN'
p1033
F0.000571
sS'ADJ'
p1034
F0.910768
s(lp1035
(g142
I14
tp1036
atp1037
a(S'una'
p1038
(dp1039
S'DET'
p1040
F1.0
s(lp1041
(g151
I15
tp1042
atp1043
a(S'fase'
p1044
(dp1045
S'NOUN'
p1046
F1.0
s(lp1047
(g158
I16
tp1048
atp1049
a(S'de'
p1050
(dp1051
g667
F0.0
sS'CONJ'
p1052
F2.5e-05
sS'ADP'
p1053
F0.999975
s(lp1054
(g166
I17
tp1055
atp1056
a(S'esa'
p1057
(dp1058
S'PRON'
p1059
F1.0
s(lp1060
(g173
I18
tp1061
atp1062
a(S'historia'
p1063
(dp1064
S'VERB'
p1065
F0.000485
sS'NOUN'
p1066
F0.999515
s(lp1067
(g180
I19
tp1068
atp1069
a(g37
(dp1070
g37
F1.0
s(lp1071
(g37
I20
tp1072
atp1073
as.