(dp0
S'fr'
p1
(lp2
(S'nous'
p3
(dp4
S'PRON'
p5
F1.0
s(lp6
(S'we'
p7
I0
tp8
atp9
a(S'organiserons'
p10
(dp11
S'VERB'
p12
F1.0
s(lp13
(S'will'
p14
I1
tp15
atp16
a(S','
p17
(dp18
S'.'
p19
F1.0
s(lp20
(g17
I3
tp21
atp22
a(S'par'
p23
(dp24
S'NOUN'
p25
F1e-06
sS'ADP'
p26
F0.999999
s(lp27
tp28
a(S'exemple'
p29
(dp30
S'NOUN'
p31
F1.0
s(lp32
(S'example'
p33
I5
tp34
atp35
a(g17
(dp36
g19
F1.0
s(lp37
(g17
I6
tp38
atp39
a(S'une'
p40
(dp41
S'NOUN'
p42
F1.5e-05
sS'NUM'
p43
F0.021976
sS'DET'
p44
F0.978009
s(lp45
(S'a'
p46
I7
tp47
atp48
a(S'semaine'
p49
(dp50
S'NOUN'
p51
F1.0
s(lp52
(S'week'
p53
I10
tp54
atp55
a(S'europ\xc3\xa9enne'
p56
(dp57
S'NOUN'
p58
F0.017216
sS'ADJ'
p59
F0.982784
s(lp60
(S'european'
p61
I8
tp62
atp63
a(S'de'
p64
(dp65
S'ADP'
p66
F1.0
s(lp67
(S'youth'
p68
I9
tp69
atp70
a(S'la'
p71
(dp72
S'PRON'
p73
F1.2e-05
sS'DET'
p74
F0.999988
sS'NOUN'
p75
F0.0
s(lp76
tp77
a(S'jeunesse'
p78
(dp79
S'NOUN'
p80
F1.0
s(lp81
(g68
I9
tp82
atp83
a(S'en'
p84
(dp85
S'PRON'
p86
F0.000406
sS'ADP'
p87
F0.999594
s(lp88
(S'in'
p89
I11
tp90
atp91
a(S'novembre'
p92
(dp93
S'NOUN'
p94
F1.0
s(lp95
(S'november'
p96
I12
tp97
atp98
a(S'et'
p99
(dp100
S'CONJ'
p101
F1.0
s(lp102
(S'and'
p103
I14
tp104
atp105
a(S'je'
p106
(dp107
S'PRON'
p108
F1.0
s(lp109
(S'i'
p110
I15
tp111
atp112
a(S'pense'
p113
(dp114
S'VERB'
p115
F1.0
s(lp116
tp117
a(S"qu'"
p118
(dp119
S'NOUN'
p120
F0.043787
sS'VERB'
p121
F0.7697689999999999
sS'ADJ'
p122
F0.186444
s(lp123
(S'think'
p124
I16
tp125
atp126
a(S'elle'
p127
(dp128
S'PRON'
p129
F1.0
s(lp130
(S'they'
p131
I17
tp132
atp133
a(S'devrait'
p134
(dp135
S'VERB'
p136
F1.0
s(lp137
(S'should'
p138
I18
tp139
atp140
a(S'y'
p141
(dp142
S'PRON'
p143
F1.0
s(lp144
tp145
a(S'assister'
p146
(dp147
S'VERB'
p148
F1.0
s(lp149
(S'come'
p150
I19
tp151
atp152
a(g19
(dp153
g19
F1.0
s(lp154
(g19
I20
tp155
atp156
asS'en'
p157
(lp158
(g7
(dp159
S'PRON'
p160
F1.0
s(lp161
(g7
I0
tp162
atp163
a(g14
(dp164
S'VERB'
p165
F1.0
sS'NOUN'
p166
F0.0
s(lp167
(g14
I1
tp168
atp169
a(S'have'
p170
(dp171
S'VERB'
p172
F1.0
s(lp173
(g170
I2
tp174
atp175
a(g17
(dp176
g19
F1.0
s(lp177
(g17
I3
tp178
atp179
a(S'for'
p180
(dp181
S'ADP'
p182
F1.0
s(lp183
(g180
I4
tp184
atp185
a(g33
(dp186
S'NOUN'
p187
F1.0
s(lp188
(g33
I5
tp189
atp190
a(g17
(dp191
g19
F1.0
s(lp192
(g17
I6
tp193
atp194
a(g46
(dp195
S'NOUN'
p196
F0.0
sS'DET'
p197
F1.0
s(lp198
(g46
I7
tp199
atp200
a(g61
(dp201
S'NOUN'
p202
F0.10881199999999999
sS'VERB'
p203
F1.1e-05
sS'ADJ'
p204
F0.891178
s(lp205
(g61
I8
tp206
atp207
a(g68
(dp208
S'NOUN'
p209
F1.0
s(lp210
(g68
I9
tp211
atp212
a(g53
(dp213
S'ADV'
p214
F0.00013
sS'NOUN'
p215
F0.99987
s(lp216
(g53
I10
tp217
atp218
a(g89
(dp219
S'ADV'
p220
F0.000116
sS'PRT'
p221
F0.000195
sS'ADP'
p222
F0.99969
s(lp223
(g89
I11
tp224
atp225
a(g96
(dp226
S'ADJ'
p227
F0.021948
sS'VERB'
p228
F2.9e-05
sS'NOUN'
p229
F0.9780230000000001
s(lp230
(g96
I12
tp231
atp232
a(g17
(dp233
g19
F1.0
s(lp234
(g17
I13
tp235
atp236
a(g103
(dp237
S'CONJ'
p238
F0.99992
sS'NOUN'
p239
F8e-05
s(lp240
(g103
I14
tp241
atp242
a(g110
(dp243
S'X'
p244
F0.001139
sS'NOUN'
p245
F0.998861
s(lp246
(g110
I15
tp247
atp248
a(g124
(dp249
S'VERB'
p250
F0.999014
sS'NOUN'
p251
F0.000986
s(lp252
(g124
I16
tp253
atp254
a(g131
(dp255
S'PRON'
p256
F1.0
s(lp257
(g131
I17
tp258
atp259
a(g138
(dp260
S'VERB'
p261
F1.0
s(lp262
(g138
I18
tp263
atp264
a(g150
(dp265
S'VERB'
p266
F1.0
s(lp267
(g150
I19
tp268
atp269
a(g19
(dp270
g19
F1.0
s(lp271
(g19
I20
tp272
atp273
asS'nl'
p274
(lp275
(S'in'
p276
(dp277
S'ADV'
p278
F7e-06
sS'VERB'
p279
F0.0
sS'ADP'
p280
F0.999993
s(lp281
(g89
I11
tp282
atp283
a(S'november'
p284
(dp285
S'NOUN'
p286
F1.0
s(lp287
(g96
I12
tp288
atp289
a(S'hebben'
p290
(dp291
S'VERB'
p292
F1.0
sS'NOUN'
p293
F0.0
s(lp294
(g170
I2
tp295
atp296
a(S'we'
p297
(dp298
S'PRON'
p299
F1.0
s(lp300
(g7
I0
tp301
atp302
a(S'bijvoorbeeld'
p303
(dp304
S'ADV'
p305
F1.0
s(lp306
(g33
I5
tp307
atp308
a(S'een'
p309
(dp310
S'ADJ'
p311
F1.1e-05
sS'PRON'
p312
F2e-05
sS'NUM'
p313
F1e-06
sS'DET'
p314
F0.999968
s(lp315
(g46
I7
tp316
atp317
a(S'europese'
p318
(dp319
S'NOUN'
p320
F1.0
s(lp321
(g61
I8
tp322
atp323
a(S'jeugdweek'
p324
(dp325
S'ADJ'
p326
F0.00491
sS'NOUN'
p327
F0.99509
s(lp328
(g68
I9
tp329
atp330
a(g17
(dp331
g19
F1.0
s(lp332
(g17
I3
tp333
atp334
a(S'iets'
p335
(dp336
S'ADV'
p337
F0.932446
sS'PRON'
p338
F0.067554
s(lp339
tp340
a(S'waar'
p341
(dp342
S'ADV'
p343
F0.999999
sS'ADJ'
p344
F0.0
sS'NOUN'
p345
F0.0
s(lp346
(g150
I19
tp347
atp348
a(S'ze'
p349
(dp350
S'PRON'
p351
F1.0
s(lp352
(g131
I17
tp353
atp354
a(S'naar'
p355
(dp356
S'CONJ'
p357
F0.001045
sS'ADJ'
p358
F0.0
sS'ADP'
p359
F0.998955
s(lp360
tp361
a(S'mijn'
p362
(dp363
S'PRON'
p364
F0.999996
sS'NOUN'
p365
F4e-06
s(lp366
(g110
I15
tp367
atp368
a(S'idee'
p369
(dp370
S'NOUN'
p371
F1.0
s(lp372
(g124
I16
tp373
atp374
a(S'bij'
p375
(dp376
S'ADV'
p377
F0.69583
sS'NOUN'
p378
F5.7e-05
sS'ADJ'
p379
F9.2e-05
sS'ADP'
p380
F0.304021
s(lp381
(g180
I4
tp382
atp383
a(S'moeten'
p384
(dp385
S'VERB'
p386
F0.9782179999999999
sS'NOUN'
p387
F0.021781
s(lp388
(g138
I18
tp389
atp390
a(S'zijn'
p391
(dp392
S'PRON'
p393
F0.013625
sS'VERB'
p394
F0.986145
sS'NOUN'
p395
F0.00023
s(lp396
tp397
a(g19
(dp398
g19
F1.0
s(lp399
(g19
I20
tp400
atp401
asS'de'
p402
(lp403
(S'so'
p404
(dp405
S'ADV'
p406
F0.999995
sS'PRON'
p407
F5e-06
s(lp408
(g7
I0
tp409
atp410
a(S'wird'
p411
(dp412
S'VERB'
p413
F1.0
s(lp414
(g14
I1
tp415
atp416
a(S'z.'
p417
(dp418
S'ADP'
p419
F1.0
s(lp420
tp421
a(S'b.'
p422
(dp423
S'ADP'
p424
F1.0
s(lp425
(g33
I5
tp426
atp427
a(S'im'
p428
(dp429
S'ADP'
p430
F1.0
s(lp431
(g89
I11
tp432
atp433
a(S'november'
p434
(dp435
S'ADJ'
p436
F0.9997320000000001
s(lp437
tp438
a(S'eine'
p439
(dp440
S'PRON'
p441
F0.005567
sS'DET'
p442
F0.993164
s(lp443
(g46
I7
tp444
atp445
a(S'europ\xc3\xa4ische'
p446
(dp447
S'ADJ'
p448
F1.0
s(lp449
(g61
I8
tp450
atp451
a(S'woche'
p452
(dp453
g244
F0.007763
sS'NOUN'
p454
F0.98946
s(lp455
(g53
I10
tp456
atp457
a(S'der'
p458
(dp459
S'PRON'
p460
F0.001268
sS'DET'
p461
F0.997518
s(lp462
tp463
a(S'jugend'
p464
(dp465
S'NOUN'
p466
F0.466117
sS'ADJ'
p467
F0.52159
s(lp468
(g68
I9
tp469
atp470
a(S'stattfinden'
p471
(dp472
S'VERB'
p473
F1.0
s(lp474
(g96
I12
tp475
atp476
a(g17
(dp477
g19
F1.0
s(lp478
(g17
I13
tp479
atp480
a(S'an'
p481
(dp482
S'PRT'
p483
F0.018642
sS'ADP'
p484
F0.979551
s(lp485
(g124
I16
tp486
atp487
a(S'der'
p488
(dp489
S'PRON'
p490
F0.180488
sS'DET'
p491
F0.811113
s(lp492
tp493
a(S'sie'
p494
(dp495
S'PRON'
p496
F1.0
s(lp497
(g131
I17
tp498
atp499
a(S'teilnehmen'
p500
(dp501
S'VERB'
p502
F1.0
s(lp503
(g150
I19
tp504
atp505
a(S'sollten'
p506
(dp507
S'VERB'
p508
F1.0
s(lp509
(g138
I18
tp510
atp511
a(g19
(dp512
g19
F1.0
s(lp513
(g19
I20
tp514
atp515
asS'it'
p516
(lp517
(g46
(dp518
S'CONJ'
p519
F0.00036
sS'ADP'
p520
F0.99964
s(lp521
(g89
I11
tp522
atp523
a(S'novembre'
p524
(dp525
S'NOUN'
p526
F1.0
s(lp527
(g96
I12
tp528
atp529
a(g17
(dp530
g19
F1.0
s(lp531
(g17
I3
tp532
atp533
a(S'per'
p534
(dp535
S'CONJ'
p536
F0.00717
sS'ADP'
p537
F0.99283
s(lp538
(g180
I4
tp539
atp540
a(S'esempio'
p541
(dp542
S'NOUN'
p543
F1.0
s(lp544
(g33
I5
tp545
atp546
a(g17
(dp547
g19
F1.0
s(lp548
(g17
I6
tp549
atp550
a(S'ci'
p551
(dp552
S'ADV'
p553
F0.001759
sS'PRON'
p554
F0.9980910000000001
sS'NOUN'
p555
F0.000151
s(lp556
(g7
I0
tp557
atp558
a(S'sar\xc3\xa0'
p559
(dp560
S'VERB'
p561
F1.0
s(lp562
(g14
I1
tp563
atp564
a(S'la'
p565
(dp566
S'PRON'
p567
F9e-06
sS'DET'
p568
F0.999991
s(lp569
(g68
I9
tp570
atp571
a(S'settimana'
p572
(dp573
S'NOUN'
p574
F1.0
s(lp575
(g53
I10
tp576
atp577
a(S'europea'
p578
(dp579
S'NOUN'
p580
F0.00422
sS'ADJ'
p581
F0.99578
s(lp582
(g61
I8
tp583
atp584
a(S'della'
p585
(dp586
S'DEF'
p587
F0.002853
sS'ADP'
p588
F0.997147
s(lp589
tp590
a(S'giovent\xc3\xb9'
p591
(dp592
S'ADV'
p593
F0.220412
sS'NOUN'
p594
F0.779588
s(lp595
(g68
I9
tp596
atp597
a(g17
(dp598
g19
F1.0
s(lp599
(g17
I13
tp600
atp601
a(g46
(dp602
S'CONJ'
p603
F0.013246
sS'ADP'
p604
F0.986754
s(lp605
tp606
a(S'cui'
p607
(dp608
S'PRON'
p609
F1.0
s(lp610
(g110
I15
tp611
atp612
a(S'ritengo'
p613
(dp614
S'VERB'
p615
F1.0
s(lp616
(g124
I16
tp617
atp618
a(S'debbano'
p619
(dp620
S'VERB'
p621
F1.0
s(lp622
(g138
I18
tp623
atp624
a(S'partecipare'
p625
(dp626
S'VERB'
p627
F1.0
s(lp628
(g150
I19
tp629
atp630
a(g19
(dp631
g19
F1.0
s(lp632
(g19
I20
tp633
atp634
asS'sk'
p635
(lp636
(S'v'
p637
(dp638
g244
F0.000596
sS'ADP'
p639
F0.999404
s(lp640
(g89
I11
tp641
atp642
a(S'novembri'
p643
(dp644
S'NOUN'
p645
F1.0
s(lp646
(g96
I12
tp647
atp648
a(S'budeme'
p649
(dp650
S'VERB'
p651
F1.0
s(lp652
(g14
I1
tp653
atp654
a(S'ma\xc5\xa5'
p655
(dp656
S'VERB'
p657
F0.99997
sS'NOUN'
p658
F3e-05
s(lp659
(g170
I2
tp660
atp661
a(S'napr\xc3\xadklad'
p662
(dp663
g244
F1.0
s(lp664
(g33
I5
tp665
atp666
a(S't\xc3\xbd\xc5\xbede\xc5\x88'
p667
(dp668
S'NOUN'
p669
F1.0
s(lp670
(g53
I10
tp671
atp672
a(S'eur\xc3\xb3pskej'
p673
(dp674
S'ADJ'
p675
F1.0
s(lp676
(g61
I8
tp677
atp678
a(S'ml\xc3\xa1de\xc5\xbee'
p679
(dp680
S'NOUN'
p681
F1.0
s(lp682
(g68
I9
tp683
atp684
a(g46
(dp685
g244
F0.000376
sS'CONJ'
p686
F0.999601
sS'NOUN'
p687
F4.9999999999999996e-06
sS'ADP'
p688
F0.0
sS'PRT'
p689
F1.8e-05
s(lp690
(g103
I14
tp691
atp692
a(S'mysl\xc3\xadm'
p693
(dp694
S'VERB'
p695
F1.0
s(lp696
(g124
I16
tp697
atp698
a(S'si'
p699
(dp700
S'PRT'
p701
F0.999092
sS'VERB'
p702
F0.000907
sg244
F1e-06
s(lp703
tp704
a(g17
(dp705
g19
F1.0
s(lp706
(g17
I13
tp707
atp708
a(S'\xc5\xbee'
p709
(dp710
g244
F0.00013099999999999999
sS'CONJ'
p711
F0.999869
s(lp712
(g124
I16
tp713
atp714
a(S'by'
p715
(dp716
S'PRT'
p717
F0.999993
sg244
F7e-06
s(lp718
tp719
a(S'mali'
p720
(dp721
S'VERB'
p722
F0.9999999999999999
s(lp723
(g138
I18
tp724
atp725
a(S'pr\xc3\xads\xc5\xa5'
p726
(dp727
S'VERB'
p728
F1.0
s(lp729
(g150
I19
tp730
atp731
a(g19
(dp732
g19
F1.0
s(lp733
(g19
I20
tp734
atp735
asS'pl'
p736
(lp737
(S'na'
p738
(dp739
g244
F1.8e-05
sS'VERB'
p740
F2.5e-05
sS'NOUN'
p741
F1e-06
sS'ADP'
p742
F0.999946
sS'PRT'
p743
F1e-05
s(lp744
(g180
I4
tp745
atp746
a(S'przyk\xc5\x82ad'
p747
(dp748
S'NOUN'
p749
F1.0
s(lp750
(g33
I5
tp751
atp752
a(S'w'
p753
(dp754
g244
F0.0
sS'ADJ'
p755
F0.0
sS'ADP'
p756
F0.999999
sS'NOUN'
p757
F0.0
s(lp758
(g89
I11
tp759
atp760
a(S'listopadzie'
p761
(dp762
S'NOUN'
p763
F1.0
s(lp764
(g96
I12
tp765
atp766
a(S'b\xc4\x99dziemy'
p767
(dp768
S'VERB'
p769
F1.0
s(lp770
(g14
I1
tp771
atp772
a(S'prze\xc5\xbcywa\xc4\x87'
p773
(dp774
S'VERB'
p775
F1.0
s(lp776
tp777
a(S'europejski'
p778
(dp779
S'ADJ'
p780
F1.0
s(lp781
(g61
I8
tp782
atp783
a(S'tydzie\xc5\x84'
p784
(dp785
S'NOUN'
p786
F1.0
s(lp787
(g53
I10
tp788
atp789
a(S'm\xc5\x82odzie\xc5\xbcy'
p790
(dp791
S'NOUN'
p792
F1.0
s(lp793
(g68
I9
tp794
atp795
a(g110
(dp796
S'PRT'
p797
F0.008656
sS'CONJ'
p798
F0.991317
sS'PRON'
p799
F1.1e-05
sS'NOUN'
p800
F3e-06
sg244
F1.2e-05
s(lp801
(g103
I14
tp802
atp803
a(S'my\xc5\x9bl\xc4\x99'
p804
(dp805
S'VERB'
p806
F1.0
s(lp807
tp808
a(g17
(dp809
g244
F0.0
sg19
F1.0
s(lp810
(g17
I13
tp811
atp812
a(S'\xc5\xbce'
p813
(dp814
S'PRT'
p815
F0.000139
sS'CONJ'
p816
F0.999861
s(lp817
(g124
I16
tp818
atp819
a(S'pos\xc5\x82owie'
p820
(dp821
S'NOUN'
p822
F1.0
s(lp823
(g131
I17
tp824
atp825
a(S'powinni'
p826
(dp827
S'VERB'
p828
F1.0
s(lp829
(g138
I18
tp830
atp831
a(S'by\xc4\x87'
p832
(dp833
S'VERB'
p834
F1.0
s(lp835
tp836
a(S'na'
p837
(dp838
S'PRT'
p839
F8e-06
sS'VERB'
p840
F3e-06
sS'NOUN'
p841
F0.0
sS'ADP'
p842
F0.9999859999999999
sg244
F2e-06
s(lp843
(g46
I7
tp844
atp845
a(S'nim'
p846
(dp847
S'PRON'
p848
F0.999948
sS'CONJ'
p849
F5.3e-05
s(lp850
tp851
a(S'obecni'
p852
(dp853
S'ADJ'
p854
F1.0
s(lp855
(g150
I19
tp856
atp857
a(g19
(dp858
g19
F1.0
s(lp859
(g19
I20
tp860
atp861
asS'sl'
p862
(lp863
(S'novembra'
p864
(dp865
S'NOUN'
p866
F1.0
s(lp867
(g96
I12
tp868
atp869
a(S'bo'
p870
(dp871
S'VERB'
p872
F1.0
s(lp873
(g14
I1
tp874
atp875
a(S'potekal'
p876
(dp877
S'VERB'
p878
F1.0
s(lp879
(g33
I5
tp880
atp881
a(S'evropski'
p882
(dp883
S'ADJ'
p884
F0.9999999999999999
s(lp885
(g61
I8
tp886
atp887
a(S'teden'
p888
(dp889
S'NOUN'
p890
F1.0
s(lp891
(g53
I10
tp892
atp893
a(S'mladih'
p894
(dp895
S'ADJ'
p896
F1.000001
s(lp897
(g68
I9
tp898
atp899
a(S'in'
p900
(dp901
S'ADV'
p902
F4.3e-05
sg244
F1e-06
sS'CONJ'
p903
F0.999956
sS'NOUN'
p904
F1e-06
s(lp905
(g103
I14
tp906
atp907
a(S'menim'
p908
(dp909
S'VERB'
p910
F1.0
s(lp911
tp912
a(g17
(dp913
g19
F1.0
s(lp914
(g17
I13
tp915
atp916
a(S'da'
p917
(dp918
S'PRT'
p919
F0.000137
sS'CONJ'
p920
F0.999855
sS'VERB'
p921
F8e-06
sg244
F0.0
s(lp922
(g124
I16
tp923
atp924
a(S'bi'
p925
(dp926
g244
F1e-06
sS'VERB'
p927
F0.999999
s(lp928
(g131
I17
tp929
atp930
a(S'se'
p931
(dp932
S'PRON'
p933
F0.999998
sg244
F2e-06
s(lp934
tp935
a(S'ga'
p936
(dp937
S'PRON'
p938
F1.000001
s(lp939
(g131
I17
tp940
atp941
a(S'morali'
p942
(dp943
S'VERB'
p944
F1.0
s(lp945
(g138
I18
tp946
atp947
a(S'udele\xc5\xbeiti'
p948
(dp949
S'VERB'
p950
F1.0
s(lp951
(g150
I19
tp952
atp953
a(g19
(dp954
g19
F1.0
s(lp955
(g19
I20
tp956
atp957
asS'es'
p958
(lp959
(S'tendremos'
p960
(dp961
S'VERB'
p962
F1.0
s(lp963
(g14
I1
tp964
atp965
a(g17
(dp966
g19
F1.0
s(lp967
(g17
I3
tp968
atp969
a(S'por'
p970
(dp971
S'ADV'
p972
F1.0
s(lp973
(g180
I4
tp974
atp975
a(S'ejemplo'
p976
(dp977
S'ADV'
p978
F1.0
s(lp979
(g33
I5
tp980
atp981
a(g17
(dp982
g19
F1.0
s(lp983
(g17
I6
tp984
atp985
a(S'una'
p986
(dp987
S'DET'
p988
F1.0
s(lp989
(g46
I7
tp990
atp991
a(S'semana'
p992
(dp993
S'NOUN'
p994
F1.0
s(lp995
tp996
a(S'europea'
p997
(dp998
S'ADJ'
p999
F1.0
s(lp1000
(g61
I8
tp1001
atp1002
a(S'de'
p1003
(dp1004
g244
F0.0
sS'CONJ'
p1005
F5.7e-05
sS'ADP'
p1006
F0.999943
s(lp1007
tp1008
a(S'la'
p1009
(dp1010
g244
F0.0
sS'PRON'
p1011
F0.0
sS'DET'
p1012
F0.999999
sS'NOUN'
p1013
F0.0
s(lp1014
(g53
I10
tp1015
atp1016
a(S'juventud'
p1017
(dp1018
S'NOUN'
p1019
F1.0
s(lp1020
(g68
I9
tp1021
atp1022
a(S'en'
p1023
(dp1024
g244
F1.1e-05
sS'CONJ'
p1025
F0.000176
sS'ADP'
p1026
F0.999813
s(lp1027
(g89
I11
tp1028
atp1029
a(S'noviembre'
p1030
(dp1031
S'NOUN'
p1032
F1.0
s(lp1033
(g96
I12
tp1034
atp1035
a(g17
(dp1036
g19
F1.0
s(lp1037
(g17
I13
tp1038
atp1039
a(g46
(dp1040
S'CONJ'
p1041
F1.0
s(lp1042
(g103
I14
tp1043
atp1044
a(S'la'
p1045
(dp1046
S'CONJ'
p1047
F1.0
s(lp1048
tp1049
a(S'que'
p1050
(dp1051
S'CONJ'
p1052
F1.0
s(lp1053
(g110
I15
tp1054
atp1055
a(S'creo'
p1056
(dp1057
S'VERB'
p1058
F1.0
s(lp1059
(g124
I16
tp1060
atp1061
a(S'que'
p1062
(dp1063
g244
F0.0
sS'CONJ'
p1064
F1.0
s(lp1065
(g131
I17
tp1066
atp1067
a(S'deber\xc3\xadan'
p1068
(dp1069
S'VERB'
p1070
F1.0
s(lp1071
(g138
I18
tp1072
atp1073
a(S'acudir'
p1074
(dp1075
S'VERB'
p1076
F1.0
s(lp1077
tp1078
a(S'ustedes'
p1079
(dp1080
S'PRON'
p1081
F1.0
s(lp1082
(g150
I19
tp1083
atp1084
a(g19
(dp1085
g19
F1.0
s(lp1086
(g19
I20
tp1087
atp1088
as.