(dp0
S'fr'
p1
(lp2
(S"j'"
p3
(dp4
S'ADJ'
p5
F0.10952
sS'X'
p6
F0.13611
sS'VERB'
p7
F0.004198999999999999
sS'NOUN'
p8
F0.750172
s(lp9
(S'i'
p10
I0
tp11
atp12
a(S'ai'
p13
(dp14
S'VERB'
p15
F1.0
s(lp16
(S'look'
p17
I1
tp18
atp19
a(S'h\xc3\xa2te'
p20
(dp21
S'VERB'
p22
F0.079943
sS'NOUN'
p23
F0.920057
s(lp24
(S'forward'
p25
I2
tp26
atp27
a(S"d'"
p28
(dp29
S'NOUN'
p30
F0.036874
sS'VERB'
p31
F0.7024530000000001
sS'ADJ'
p32
F0.260673
s(lp33
(S'to'
p34
I3
tp35
atp36
a(S'entendre'
p37
(dp38
S'VERB'
p39
F1.0
s(lp40
(S'hearing'
p41
I4
tp42
atp43
a(S'vos'
p44
(dp45
S'PRON'
p46
F1.0
s(lp47
(S'your'
p48
I5
tp49
atp50
a(S'points'
p51
(dp52
S'VERB'
p53
F6e-06
sS'NOUN'
p54
F0.999994
s(lp55
tp56
a(S'de'
p57
(dp58
S'ADP'
p59
F1.0
s(lp60
tp61
a(S'vue'
p62
(dp63
S'VERB'
p64
F3.8e-05
sS'NOUN'
p65
F0.999962
s(lp66
(S'opinions'
p67
I6
tp68
atp69
a(S'sur'
p70
(dp71
S'ADP'
p72
F1.0
s(lp73
(S'on'
p74
I7
tp75
atp76
a(S'ces'
p77
(dp78
S'PRON'
p79
F1.0
s(lp80
(S'these'
p81
I8
tp82
atp83
a(S'questions'
p84
(dp85
S'NOUN'
p86
F1.0
s(lp87
(S'issues'
p88
I10
tp89
atp90
a(S'd\xc3\xa9licates'
p91
(dp92
S'ADJ'
p93
F1.0
s(lp94
(S'sensitive'
p95
I9
tp96
atp97
a(S'et'
p98
(dp99
S'CONJ'
p100
F1.0
s(lp101
(S'and'
p102
I11
tp103
atp104
a(S'je'
p105
(dp106
S'PRON'
p107
F1.0
s(lp108
(S'would'
p109
I12
tp110
atp111
a(S'tiens'
p112
(dp113
S'PRON'
p114
F4.8e-05
sS'VERB'
p115
F0.999943
sg6
F9e-06
s(lp116
(S'like'
p117
I13
tp118
atp119
a(S'\xc3\xa0'
p120
(dp121
S'ADP'
p122
F1.0
s(lp123
(S'to'
p124
I14
tp125
atp126
a(S'remercier'
p127
(dp128
S'VERB'
p129
F1.0
s(lp130
(S'thank'
p131
I15
tp132
atp133
a(S'la'
p134
(dp135
S'PRON'
p136
F0.0004
sS'DET'
p137
F0.999599
sS'NOUN'
p138
F0.0
s(lp139
(S'the'
p140
I16
tp141
atp142
a(S'rapporteure'
p143
(dp144
S'ADJ'
p145
F0.083437
sS'VERB'
p146
F0.0005280000000000001
sS'NOUN'
p147
F0.916034
s(lp148
(S'rapporteur'
p149
I17
tp150
atp151
a(S','
p152
(dp153
S'.'
p154
F1.0
s(lp155
(g152
I18
tp156
atp157
a(S'mme'
p158
(dp159
S'NOUN'
p160
F0.014708
sS'VERB'
p161
F0.8939659999999999
sS'ADJ'
p162
F0.091326
s(lp163
(S'ms'
p164
I19
tp165
atp166
a(S'liotard'
p167
(dp168
S'NOUN'
p169
F1.0
s(lp170
(S'liotard'
p171
I20
tp172
atp173
a(g152
(dp174
g154
F1.0
s(lp175
(g152
I21
tp176
atp177
a(S'ainsi'
p178
(dp179
S'ADV'
p180
F0.405628
sS'CONJ'
p181
F0.594372
s(lp182
(S'and'
p183
I22
tp184
atp185
a(S'que'
p186
(dp187
S'ADV'
p188
F0.027305
sS'PRON'
p189
F0.140436
sS'CONJ'
p190
F0.832259
s(lp191
tp192
a(S'les'
p193
(dp194
S'PRON'
p195
F0.000716
sS'DET'
p196
F0.99927
sS'ADP'
p197
F1.4e-05
s(lp198
(S'the'
p199
I23
tp200
atp201
a(S'rapporteurs'
p202
(dp203
S'ADJ'
p204
F0.058448
sS'NOUN'
p205
F0.941552
s(lp206
(S'rapporteurs'
p207
I25
tp208
atp209
a(S'fictifs'
p210
(dp211
S'ADJ'
p212
F1.0
s(lp213
(S'shadow'
p214
I24
tp215
atp216
a(S'pour'
p217
(dp218
S'CONJ'
p219
F0.173476
sS'ADP'
p220
F0.826524
s(lp221
(S'for'
p222
I26
tp223
atp224
a(S'leur'
p225
(dp226
S'PRON'
p227
F1.0
s(lp228
(S'their'
p229
I27
tp230
atp231
a(S'travail'
p232
(dp233
S'NOUN'
p234
F1.0
s(lp235
(S'work'
p236
I29
tp237
atp238
a(S'de'
p239
(dp240
S'ADP'
p241
F1.0
s(lp242
tp243
a(S'qualit\xc3\xa9'
p244
(dp245
S'NOUN'
p246
F1.0
s(lp247
(S'valuable'
p248
I28
tp249
atp250
a(S'sur'
p251
(dp252
S'ADP'
p253
F1.0
s(lp254
(S'on'
p255
I30
tp256
atp257
a(S'cet'
p258
(dp259
S'PRON'
p260
F1.0
s(lp261
(S'this'
p262
I31
tp263
atp264
a(S'important'
p265
(dp266
S'VERB'
p267
F0.000555
sS'ADJ'
p268
F0.999445
s(lp269
(S'important'
p270
I32
tp271
atp272
a(S'rapport'
p273
(dp274
S'NOUN'
p275
F1.0
s(lp276
(S'report'
p277
I33
tp278
atp279
a(g154
(dp280
g154
F1.0
s(lp281
(g154
I34
tp282
atp283
asS'en'
p284
(lp285
(g10
(dp286
g6
F0.003631
sS'NOUN'
p287
F0.996369
s(lp288
(g10
I0
tp289
atp290
a(g17
(dp291
S'VERB'
p292
F0.8540760000000001
sS'NOUN'
p293
F0.145924
s(lp294
(g17
I1
tp295
atp296
a(g25
(dp297
S'ADV'
p298
F0.955755
sS'NOUN'
p299
F0.010495
sS'VERB'
p300
F0.006307
sS'ADJ'
p301
F0.027443
s(lp302
(g25
I2
tp303
atp304
a(g34
(dp305
S'ADV'
p306
F1.5e-05
sS'PRT'
p307
F0.999971
sS'ADP'
p308
F1.4e-05
s(lp309
(g34
I3
tp310
atp311
a(g41
(dp312
S'VERB'
p313
F0.989811
sS'NOUN'
p314
F0.010189
s(lp315
(g41
I4
tp316
atp317
a(g48
(dp318
S'PRON'
p319
F1.0
s(lp320
(g48
I5
tp321
atp322
a(g67
(dp323
S'NOUN'
p324
F1.0
s(lp325
(g67
I6
tp326
atp327
a(g74
(dp328
S'ADV'
p329
F0.000757
sS'PRT'
p330
F0.000439
sS'ADJ'
p331
F0.0
sS'ADP'
p332
F0.998804
sS'NOUN'
p333
F0.0
s(lp334
(g74
I7
tp335
atp336
a(g81
(dp337
S'NOUN'
p338
F1e-06
sS'DET'
p339
F0.999999
s(lp340
(g81
I8
tp341
atp342
a(g95
(dp343
S'ADJ'
p344
F1.0
s(lp345
(g95
I9
tp346
atp347
a(g88
(dp348
S'VERB'
p349
F3e-06
sS'NOUN'
p350
F0.999997
s(lp351
(g88
I10
tp352
atp353
a(g102
(dp354
S'CONJ'
p355
F1.0
sS'NOUN'
p356
F0.0
s(lp357
(g102
I11
tp358
atp359
a(g109
(dp360
S'VERB'
p361
F1.0
s(lp362
(g109
I12
tp363
atp364
a(g117
(dp365
S'VERB'
p366
F0.9997360000000001
sS'ADJ'
p367
F3.1e-05
sS'ADP'
p368
F0.000233
s(lp369
(g117
I13
tp370
atp371
a(g124
(dp372
S'ADV'
p373
F0.0
sS'PRT'
p374
F1.0
sS'ADP'
p375
F0.0
s(lp376
(g124
I14
tp377
atp378
a(g131
(dp379
S'VERB'
p380
F1.0
s(lp381
(g131
I15
tp382
atp383
a(g140
(dp384
S'NOUN'
p385
F1e-06
sS'DET'
p386
F0.999999
s(lp387
(g140
I16
tp388
atp389
a(g149
(dp390
S'NOUN'
p391
F1.0
s(lp392
(g149
I17
tp393
atp394
a(g152
(dp395
g154
F1.0
s(lp396
(g152
I18
tp397
atp398
a(g164
(dp399
S'ADV'
p400
F0.015253
sS'NOUN'
p401
F0.236626
sS'VERB'
p402
F0.19420500000000002
sS'ADJ'
p403
F0.553915
s(lp404
(g164
I19
tp405
atp406
a(g171
(dp407
S'ADJ'
p408
F0.015913
sS'VERB'
p409
F0.00303
sS'NOUN'
p410
F0.981058
s(lp411
(g171
I20
tp412
atp413
a(g152
(dp414
g154
F1.0
s(lp415
(g152
I21
tp416
atp417
a(g183
(dp418
S'CONJ'
p419
F1.0
sS'NOUN'
p420
F0.0
s(lp421
(g183
I22
tp422
atp423
a(g199
(dp424
S'NOUN'
p425
F2e-06
sS'DET'
p426
F0.999998
s(lp427
(g199
I23
tp428
atp429
a(g214
(dp430
S'VERB'
p431
F0.00035499999999999996
sS'NOUN'
p432
F0.999645
s(lp433
(g214
I24
tp434
atp435
a(g207
(dp436
S'NOUN'
p437
F1.0
s(lp438
(g207
I25
tp439
atp440
a(g222
(dp441
S'ADP'
p442
F1.0
s(lp443
(g222
I26
tp444
atp445
a(g229
(dp446
S'PRON'
p447
F1.0
s(lp448
(g229
I27
tp449
atp450
a(g248
(dp451
S'NOUN'
p452
F0.003158
sS'ADJ'
p453
F0.996842
s(lp454
(g248
I28
tp455
atp456
a(g236
(dp457
S'VERB'
p458
F0.001011
sS'NOUN'
p459
F0.998989
s(lp460
(g236
I29
tp461
atp462
a(g255
(dp463
S'ADV'
p464
F0.000497
sS'PRT'
p465
F0.000543
sS'ADJ'
p466
F0.0
sS'NOUN'
p467
F0.0
sS'ADP'
p468
F0.998959
s(lp469
(g255
I30
tp470
atp471
a(g262
(dp472
S'ADV'
p473
F3e-05
sS'NOUN'
p474
F4e-06
sS'DET'
p475
F0.999966
s(lp476
(g262
I31
tp477
atp478
a(g270
(dp479
S'ADJ'
p480
F1.0
s(lp481
(g270
I32
tp482
atp483
a(g277
(dp484
S'VERB'
p485
F0.000224
sS'NOUN'
p486
F0.999775
s(lp487
(g277
I33
tp488
atp489
a(g154
(dp490
g154
F1.0
s(lp491
(g154
I34
tp492
atp493
asS'nl'
p494
(lp495
(S'ik'
p496
(dp497
S'PRON'
p498
F0.999986
sS'NOUN'
p499
F1.4e-05
s(lp500
(g10
I0
tp501
atp502
a(S'kijk'
p503
(dp504
S'VERB'
p505
F0.663353
sS'NOUN'
p506
F0.336647
s(lp507
(g17
I1
tp508
atp509
a(S'uit'
p510
(dp511
S'ADV'
p512
F0.955107
sS'VERB'
p513
F5.9e-05
sS'ADP'
p514
F0.044833
s(lp515
(g25
I2
tp516
atp517
a(S'naar'
p518
(dp519
S'CONJ'
p520
F0.011126
sS'ADJ'
p521
F0.0
sS'ADP'
p522
F0.988874
s(lp523
(g41
I4
tp524
atp525
a(S'uw'
p526
(dp527
S'PRON'
p528
F1.0
s(lp529
(g48
I5
tp530
atp531
a(S'standpunten'
p532
(dp533
S'NOUN'
p534
F1.0
s(lp535
(g67
I6
tp536
atp537
a(S'met'
p538
(dp539
S'ADP'
p540
F1.0
s(lp541
tp542
a(S'betrekking'
p543
(dp544
S'NOUN'
p545
F1.0
s(lp546
tp547
a(S'tot'
p548
(dp549
S'CONJ'
p550
F3.2e-05
sS'ADP'
p551
F0.999968
s(lp552
(g74
I7
tp553
atp554
a(S'deze'
p555
(dp556
S'PRON'
p557
F1.0
s(lp558
(g81
I8
tp559
atp560
a(S'gevoelige'
p561
(dp562
S'NOUN'
p563
F0.083189
sS'ADJ'
p564
F0.916811
s(lp565
(g95
I9
tp566
atp567
a(S'onderwerpen'
p568
(dp569
S'VERB'
p570
F0.410586
sS'NOUN'
p571
F0.589414
s(lp572
(g88
I10
tp573
atp574
a(S'en'
p575
(dp576
S'CONJ'
p577
F1.0
s(lp578
(g102
I11
tp579
atp580
a(S'zou'
p581
(dp582
S'VERB'
p583
F1.0
s(lp584
(g109
I12
tp585
atp586
a(S'graag'
p587
(dp588
S'ADV'
p589
F0.99826
sS'ADJ'
p590
F0.00174
s(lp591
(g117
I13
tp592
atp593
a(S'de'
p594
(dp595
S'DET'
p596
F1.0
s(lp597
(g140
I16
tp598
atp599
a(S'rapporteur'
p600
(dp601
S'NOUN'
p602
F1.0
s(lp603
(g149
I17
tp604
atp605
a(g152
(dp606
g154
F1.0
s(lp607
(g152
I18
tp608
atp609
a(S'mevrouw'
p610
(dp611
S'NOUN'
p612
F1.0
s(lp613
(g164
I19
tp614
atp615
a(S'liotard'
p616
(dp617
S'ADJ'
p618
F0.079439
sS'NOUN'
p619
F0.920561
s(lp620
(g171
I20
tp621
atp622
a(g152
(dp623
g154
F1.0
s(lp624
(g152
I21
tp625
atp626
a(S'en'
p627
(dp628
S'CONJ'
p629
F1.0
s(lp630
(g183
I22
tp631
atp632
a(S'de'
p633
(dp634
S'DET'
p635
F1.0
s(lp636
(g199
I23
tp637
atp638
a(S'schaduwrapporteurs'
p639
(dp640
S'NOUN'
p641
F1.0
s(lp642
(g214
I24
tp643
atp644
a(S'voor'
p645
(dp646
S'ADV'
p647
F0.001931
sS'CONJ'
p648
F7e-06
sS'NOUN'
p649
F0.0
sS'ADP'
p650
F0.998062
s(lp651
(g222
I26
tp652
atp653
a(S'hun'
p654
(dp655
S'PRON'
p656
F1.0
s(lp657
(g229
I27
tp658
atp659
a(S'waardevolle'
p660
(dp661
S'NOUN'
p662
F0.015644
sS'ADJ'
p663
F0.984356
s(lp664
(g248
I28
tp665
atp666
a(S'werk'
p667
(dp668
S'VERB'
p669
F0.014289
sS'NOUN'
p670
F0.985711
s(lp671
(g236
I29
tp672
atp673
a(S'aan'
p674
(dp675
S'ADV'
p676
F0.006648
sS'ADP'
p677
F0.993352
s(lp678
(g255
I30
tp679
atp680
a(S'dit'
p681
(dp682
S'PRON'
p683
F1.0
s(lp684
(g262
I31
tp685
atp686
a(S'belangrijke'
p687
(dp688
S'NOUN'
p689
F0.000504
sS'ADJ'
p690
F0.999496
s(lp691
(g270
I32
tp692
atp693
a(S'verslag'
p694
(dp695
S'NOUN'
p696
F1.0
s(lp697
(g277
I33
tp698
atp699
a(S'willen'
p700
(dp701
S'VERB'
p702
F0.999912
sS'NOUN'
p703
F8.8e-05
s(lp704
(g124
I14
tp705
atp706
a(S'danken'
p707
(dp708
S'VERB'
p709
F0.998405
sS'NOUN'
p710
F0.001595
s(lp711
(g131
I15
tp712
atp713
a(g154
(dp714
g154
F1.0
s(lp715
(g154
I34
tp716
atp717
asS'de'
p718
(lp719
(S'ich'
p720
(dp721
S'PRON'
p722
F1.0
s(lp723
(g10
I0
tp724
atp725
a(S'freue'
p726
(dp727
S'VERB'
p728
F1.0
s(lp729
(g17
I1
tp730
atp731
a(S'mich'
p732
(dp733
S'PRON'
p734
F1.0
s(lp735
(g25
I2
tp736
atp737
a(S'auf'
p738
(dp739
S'PRT'
p740
F0.000227
sS'ADP'
p741
F0.999749
s(lp742
(g34
I3
tp743
atp744
a(S'ihre'
p745
(dp746
S'PRON'
p747
F1.0
s(lp748
(g48
I5
tp749
atp750
a(S'meinung'
p751
(dp752
S'ADJ'
p753
F0.010056
sS'NOUN'
p754
F0.980361
s(lp755
(g67
I6
tp756
atp757
a(S'zu'
p758
(dp759
S'PRT'
p760
F0.000917
sS'ADP'
p761
F0.99879
s(lp762
(g74
I7
tp763
atp764
a(S'diesen'
p765
(dp766
S'PRON'
p767
F1.0
s(lp768
(g81
I8
tp769
atp770
a(S'sensiblen'
p771
(dp772
S'ADJ'
p773
F1.0
s(lp774
(g95
I9
tp775
atp776
a(S'themen'
p777
(dp778
g6
F0.05494
sS'NOUN'
p779
F0.921954
s(lp780
(g88
I10
tp781
atp782
a(g152
(dp783
g154
F1.0
s(lp784
tp785
a(S'und'
p786
(dp787
S'CONJ'
p788
F1.0
s(lp789
(g102
I11
tp790
atp791
a(S'ich'
p792
(dp793
S'PRON'
p794
F1.0
s(lp795
tp796
a(S'm\xc3\xb6chte'
p797
(dp798
S'VERB'
p799
F1.0
s(lp800
(g117
I13
tp801
atp802
a(S'der'
p803
(dp804
S'PRON'
p805
F0.000105
sS'DET'
p806
F0.999892
s(lp807
(g140
I16
tp808
atp809
a(S'berichterstatterin'
p810
(dp811
S'ADJ'
p812
F0.001273
sS'NOUN'
p813
F0.998504
s(lp814
(g149
I17
tp815
atp816
a(g152
(dp817
g154
F1.0
s(lp818
(g152
I18
tp819
atp820
a(S'frau'
p821
(dp822
S'NOUN'
p823
F0.088179
sS'ADJ'
p824
F0.860443
s(lp825
(g164
I19
tp826
atp827
a(S'liotard'
p828
(dp829
S'NOUN'
p830
F0.9877659999999999
s(lp831
(g171
I20
tp832
atp833
a(g152
(dp834
g154
F1.0
s(lp835
(g152
I21
tp836
atp837
a(S'und'
p838
(dp839
S'CONJ'
p840
F1.0
s(lp841
(g183
I22
tp842
atp843
a(S'den'
p844
(dp845
S'PRON'
p846
F0.113655
sS'DET'
p847
F0.877906
s(lp848
(g199
I23
tp849
atp850
a(S'schattenberichterstattern'
p851
(dp852
S'NOUN'
p853
F0.436616
sS'ADJ'
p854
F0.515528
s(lp855
(g214
I24
tp856
atp857
a(S'f\xc3\xbcr'
p858
(dp859
S'ADP'
p860
F1.0
s(lp861
(g222
I26
tp862
atp863
a(S'ihre'
p864
(dp865
S'PRON'
p866
F1.0
s(lp867
(g229
I27
tp868
atp869
a(S'wertvolle'
p870
(dp871
S'ADJ'
p872
F1.0
s(lp873
(g248
I28
tp874
atp875
a(S'arbeit'
p876
(dp877
S'ADJ'
p878
F0.002318
sS'NOUN'
p879
F0.995042
s(lp880
(g236
I29
tp881
atp882
a(S'an'
p883
(dp884
S'ADP'
p885
F0.998483
s(lp886
(g255
I30
tp887
atp888
a(S'diesem'
p889
(dp890
S'PRON'
p891
F1.0
s(lp892
(g262
I31
tp893
atp894
a(S'wichtigen'
p895
(dp896
S'ADJ'
p897
F1.0
s(lp898
(g270
I32
tp899
atp900
a(S'bericht'
p901
(dp902
S'ADJ'
p903
F1.9e-05
sS'NOUN'
p904
F0.999967
s(lp905
(g277
I33
tp906
atp907
a(S'danken'
p908
(dp909
S'VERB'
p910
F1.0
s(lp911
(g131
I15
tp912
atp913
a(g154
(dp914
g154
F1.0
s(lp915
(g154
I34
tp916
atp917
asS'it'
p918
(lp919
(S'ascolter\xc3\xb2'
p920
(dp921
S'VERB'
p922
F1.0
s(lp923
tp924
a(S'con'
p925
(dp926
S'ADP'
p927
F1.0
s(lp928
(g17
I1
tp929
atp930
a(S'grande'
p931
(dp932
S'NOUN'
p933
F0.001602
sS'ADJ'
p934
F0.998398
s(lp935
(g25
I2
tp936
atp937
a(S'interesse'
p938
(dp939
S'NOUN'
p940
F1.0
s(lp941
(g41
I4
tp942
atp943
a(g10
(dp944
S'DET'
p945
F1.0
s(lp946
tp947
a(S'vostri'
p948
(dp949
S'PRON'
p950
F1.0
s(lp951
(g48
I5
tp952
atp953
a(S'pareri'
p954
(dp955
S'NOUN'
p956
F1.0
s(lp957
(g67
I6
tp958
atp959
a(S'su'
p960
(dp961
S'ADV'
p962
F0.002032
sS'ADP'
p963
F0.997968
s(lp964
(g74
I7
tp965
atp966
a(S'questioni'
p967
(dp968
S'VERB'
p969
F0.009316000000000001
sS'NOUN'
p970
F0.990684
s(lp971
(g88
I10
tp972
atp973
a(S'tanto'
p974
(dp975
S'ADV'
p976
F0.806135
sS'PRON'
p977
F0.016675
sS'CONJ'
p978
F0.165402
sS'VERB'
p979
F0.002875
sS'ADJ'
p980
F0.008911
s(lp981
tp982
a(S'delicate'
p983
(dp984
S'ADJ'
p985
F1.0
s(lp986
(g95
I9
tp987
atp988
a(S'e'
p989
(dp990
S'CONJ'
p991
F1.0
s(lp992
(g102
I11
tp993
atp994
a(S'ringrazio'
p995
(dp996
S'VERB'
p997
F1.0
s(lp998
(g131
I15
tp999
atp1000
a(S'la'
p1001
(dp1002
S'PRON'
p1003
F0.0
sS'DET'
p1004
F1.0
s(lp1005
(g140
I16
tp1006
atp1007
a(S'relatrice'
p1008
(dp1009
S'NOUN'
p1010
F1.0
s(lp1011
(g149
I17
tp1012
atp1013
a(g152
(dp1014
g154
F1.0
s(lp1015
(g152
I18
tp1016
atp1017
a(S'onorevole'
p1018
(dp1019
S'NOUN'
p1020
F0.251671
sS'ADJ'
p1021
F0.748329
s(lp1022
(g164
I19
tp1023
atp1024
a(S'liotard'
p1025
(dp1026
S'ADJ'
p1027
F0.325589
sS'VERB'
p1028
F0.000303
sS'NOUN'
p1029
F0.674108
s(lp1030
(g171
I20
tp1031
atp1032
a(g152
(dp1033
g154
F1.0
s(lp1034
(g152
I21
tp1035
atp1036
a(g989
(dp1037
S'CONJ'
p1038
F1.0
s(lp1039
(g183
I22
tp1040
atp1041
a(g10
(dp1042
S'DET'
p1043
F1.0
s(lp1044
tp1045
a(S'relatori'
p1046
(dp1047
S'NOUN'
p1048
F1.0
s(lp1049
(g207
I25
tp1050
atp1051
a(S'ombra'
p1052
(dp1053
S'VERB'
p1054
F0.400023
sS'NOUN'
p1055
F0.599977
s(lp1056
(g214
I24
tp1057
atp1058
a(S'per'
p1059
(dp1060
S'CONJ'
p1061
F0.040313
sS'ADP'
p1062
F0.959687
s(lp1063
(g222
I26
tp1064
atp1065
a(S'il'
p1066
(dp1067
S'DET'
p1068
F1.0
s(lp1069
(g229
I27
tp1070
atp1071
a(S'prezioso'
p1072
(dp1073
S'NOUN'
p1074
F0.122549
sS'ADJ'
p1075
F0.877451
s(lp1076
(g248
I28
tp1077
atp1078
a(S'lavoro'
p1079
(dp1080
S'VERB'
p1081
F0.028691
sS'NOUN'
p1082
F0.971309
s(lp1083
tp1084
a(S'svolto'
p1085
(dp1086
S'VERB'
p1087
F0.886721
sS'ADJ'
p1088
F0.113279
s(lp1089
(g236
I29
tp1090
atp1091
a(S'per'
p1092
(dp1093
S'CONJ'
p1094
F0.009178
sS'ADP'
p1095
F0.990822
s(lp1096
(g255
I30
tp1097
atp1098
a(S'questa'
p1099
(dp1100
S'PRON'
p1101
F1.0
s(lp1102
(g262
I31
tp1103
atp1104
a(S'fondamentale'
p1105
(dp1106
S'ADJ'
p1107
F1.0
s(lp1108
(g270
I32
tp1109
atp1110
a(S'relazione'
p1111
(dp1112
S'NOUN'
p1113
F1.0
s(lp1114
(g277
I33
tp1115
atp1116
a(g154
(dp1117
g154
F1.0
s(lp1118
(g154
I34
tp1119
atp1120
asS'sk'
p1121
(lp1122
(S'te\xc5\xa1\xc3\xadm'
p1123
(dp1124
S'VERB'
p1125
F1.0
s(lp1126
(g25
I2
tp1127
atp1128
a(S'sa'
p1129
(dp1130
S'PRT'
p1131
F0.999983
sS'ADP'
p1132
F0.0
sg6
F1.7e-05
s(lp1133
(g17
I1
tp1134
atp1135
a(S'na'
p1136
(dp1137
g6
F1.2e-05
sS'CONJ'
p1138
F5e-06
sS'ADP'
p1139
F0.999983
sS'PRT'
p1140
F0.0
s(lp1141
(g34
I3
tp1142
atp1143
a(S'va\xc5\xa1e'
p1144
(dp1145
S'PRON'
p1146
F1.0
s(lp1147
(g48
I5
tp1148
atp1149
a(S'n\xc3\xa1zory'
p1150
(dp1151
S'NOUN'
p1152
F1.0
s(lp1153
(g67
I6
tp1154
atp1155
a(S'na'
p1156
(dp1157
S'PRT'
p1158
F2.1e-05
sS'CONJ'
p1159
F5e-05
sS'ADP'
p1160
F0.999926
sg6
F3e-06
s(lp1161
(g74
I7
tp1162
atp1163
a(S'tieto'
p1164
(dp1165
S'PRON'
p1166
F1.0
s(lp1167
(g81
I8
tp1168
atp1169
a(S'citliv\xc3\xa9'
p1170
(dp1171
S'ADJ'
p1172
F1.0
s(lp1173
(g95
I9
tp1174
atp1175
a(S'ot\xc3\xa1zky'
p1176
(dp1177
S'NOUN'
p1178
F1.0
s(lp1179
(g88
I10
tp1180
atp1181
a(S'a'
p1182
(dp1183
g6
F0.00037299999999999996
sS'CONJ'
p1184
F0.999503
sS'NOUN'
p1185
F1.1000000000000001e-05
sS'ADP'
p1186
F0.0
sS'PRT'
p1187
F0.000113
s(lp1188
(g102
I11
tp1189
atp1190
a(S'chcela'
p1191
(dp1192
S'VERB'
p1193
F1.0
s(lp1194
tp1195
a(S'by'
p1196
(dp1197
S'PRT'
p1198
F0.999998
sg6
F1e-06
s(lp1199
(g109
I12
tp1200
atp1201
a(S'som'
p1202
(dp1203
S'VERB'
p1204
F1.0
s(lp1205
(g117
I13
tp1206
atp1207
a(S'po\xc4\x8fakova\xc5\xa5'
p1208
(dp1209
S'VERB'
p1210
F1.0
s(lp1211
(g131
I15
tp1212
atp1213
a(S'spravodajkyni'
p1214
(dp1215
S'NOUN'
p1216
F1.0
s(lp1217
(g149
I17
tp1218
atp1219
a(S'pani'
p1220
(dp1221
S'NOUN'
p1222
F1.0
s(lp1223
(g164
I19
tp1224
atp1225
a(S'liotardovej'
p1226
(dp1227
S'NOUN'
p1228
F0.042874999999999996
sS'VERB'
p1229
F0.016753
sS'ADJ'
p1230
F0.94037
s(lp1231
(g171
I20
tp1232
atp1233
a(g1182
(dp1234
g6
F0.000777
sS'CONJ'
p1235
F0.997483
sS'NOUN'
p1236
F0.001565
sS'ADP'
p1237
F0.000163
sS'PRT'
p1238
F1.2e-05
s(lp1239
(g183
I22
tp1240
atp1241
a(S'tie\xc5\x88ov\xc3\xbdm'
p1242
(dp1243
S'ADJ'
p1244
F1.0
s(lp1245
(g214
I24
tp1246
atp1247
a(S'spravodajcom'
p1248
(dp1249
S'NOUN'
p1250
F1.0
s(lp1251
(g207
I25
tp1252
atp1253
a(S'za'
p1254
(dp1255
S'PRT'
p1256
F0.000134
sS'ADP'
p1257
F0.999805
sg6
F6.1e-05
s(lp1258
(g222
I26
tp1259
atp1260
a(S'ich'
p1261
(dp1262
S'PRON'
p1263
F1.0
s(lp1264
(g229
I27
tp1265
atp1266
a(S'hodnotn\xc3\xba'
p1267
(dp1268
S'ADJ'
p1269
F1.0
s(lp1270
(g248
I28
tp1271
atp1272
a(S'pr\xc3\xa1cu'
p1273
(dp1274
S'NOUN'
p1275
F1.0
s(lp1276
(g236
I29
tp1277
atp1278
a(S'na'
p1279
(dp1280
g6
F3.5e-05
sS'CONJ'
p1281
F3.2e-05
sS'ADP'
p1282
F0.999919
sS'PRT'
p1283
F1.4e-05
s(lp1284
(g255
I30
tp1285
atp1286
a(S'tejto'
p1287
(dp1288
S'PRON'
p1289
F1.0
s(lp1290
(g262
I31
tp1291
atp1292
a(S'd\xc3\xb4le\xc5\xbeitej'
p1293
(dp1294
S'ADJ'
p1295
F1.0
s(lp1296
(g270
I32
tp1297
atp1298
a(S'spr\xc3\xa1ve'
p1299
(dp1300
S'NOUN'
p1301
F1.0
s(lp1302
(g277
I33
tp1303
atp1304
a(g154
(dp1305
g154
F1.0
s(lp1306
(g154
I34
tp1307
atp1308
asS'pl'
p1309
(lp1310
(S'czekam'
p1311
(dp1312
S'VERB'
p1313
F1.0
s(lp1314
(g25
I2
tp1315
atp1316
a(S'na'
p1317
(dp1318
S'PRT'
p1319
F8.4e-05
sS'VERB'
p1320
F3e-06
sS'NOUN'
p1321
F2.4e-05
sS'ADP'
p1322
F0.999825
sg6
F6.3e-05
s(lp1323
(g34
I3
tp1324
atp1325
a(S'pa\xc5\x84stwa'
p1326
(dp1327
S'NOUN'
p1328
F1.000001
s(lp1329
(g48
I5
tp1330
atp1331
a(S'opinie'
p1332
(dp1333
S'NOUN'
p1334
F1.0
s(lp1335
(g67
I6
tp1336
atp1337
a(S'na'
p1338
(dp1339
S'PRT'
p1340
F2e-06
sS'VERB'
p1341
F2e-06
sS'NOUN'
p1342
F0.0
sS'ADP'
p1343
F0.9999960000000001
sg6
F1e-06
s(lp1344
tp1345
a(S'temat'
p1346
(dp1347
S'NOUN'
p1348
F1.0
s(lp1349
(g74
I7
tp1350
atp1351
a(S'tych'
p1352
(dp1353
S'ADJ'
p1354
F0.9999999999999999
s(lp1355
(g81
I8
tp1356
atp1357
a(S'wra\xc5\xbcliwych'
p1358
(dp1359
S'ADV'
p1360
F0.0
sS'NOUN'
p1361
F0.005807000000000002
sS'VERB'
p1362
F1e-05
sS'ADJ'
p1363
F0.9941800000000001
s(lp1364
(g95
I9
tp1365
atp1366
a(S'kwestii'
p1367
(dp1368
S'NOUN'
p1369
F0.9999990000000001
s(lp1370
(g88
I10
tp1371
atp1372
a(g10
(dp1373
S'PRT'
p1374
F0.004836
sS'CONJ'
p1375
F0.99515
sS'PRON'
p1376
F0.0
sS'NOUN'
p1377
F5.999999999999999e-06
sg6
F7e-06
s(lp1378
(g102
I11
tp1379
atp1380
a(S'chcia\xc5\x82abym'
p1381
(dp1382
S'ADV'
p1383
F0.041243
sS'ADJ'
p1384
F0.014741999999999998
sS'VERB'
p1385
F0.8929660000000001
sS'NOUN'
p1386
F0.051044
s(lp1387
(g109
I12
tp1388
atp1389
a(S'podzi\xc4\x99kowa\xc4\x87'
p1390
(dp1391
S'VERB'
p1392
F1.0
s(lp1393
(g131
I15
tp1394
atp1395
a(S'sprawozdawczyni'
p1396
(dp1397
S'ADV'
p1398
F0.003185
sS'ADJ'
p1399
F0.17134299999999997
sS'VERB'
p1400
F0.13929
sS'NOUN'
p1401
F0.6861819999999998
s(lp1402
(g149
I17
tp1403
atp1404
a(g152
(dp1405
g6
F0.0
sg154
F1.0
s(lp1406
(g152
I18
tp1407
atp1408
a(S'pani'
p1409
(dp1410
S'NOUN'
p1411
F1.0
s(lp1412
tp1413
a(S'pose\xc5\x82'
p1414
(dp1415
S'NOUN'
p1416
F1.0
s(lp1417
(g164
I19
tp1418
atp1419
a(S'liotard'
p1420
(dp1421
S'ADV'
p1422
F0.001315
sS'ADJ'
p1423
F0.003207
sS'NOUN'
p1424
F0.9954540000000002
sS'ADP'
p1425
F2.3e-05
s(lp1426
tp1427
a(g152
(dp1428
g6
F0.0
sg154
F1.0
s(lp1429
(g152
I21
tp1430
atp1431
a(S'oraz'
p1432
(dp1433
S'CONJ'
p1434
F1.0
s(lp1435
(g183
I22
tp1436
atp1437
a(S'sprawozdawcom'
p1438
(dp1439
S'NOUN'
p1440
F1.0
s(lp1441
(g207
I25
tp1442
atp1443
a(S'pomocniczym'
p1444
(dp1445
S'ADJ'
p1446
F1.0
s(lp1447
(g214
I24
tp1448
atp1449
a(S'za'
p1450
(dp1451
S'PRT'
p1452
F0.031914
sS'VERB'
p1453
F0.00013900000000000002
sS'NOUN'
p1454
F2.7e-05
sS'ADP'
p1455
F0.967915
sg6
F7e-06
s(lp1456
(g222
I26
tp1457
atp1458
a(S'ich'
p1459
(dp1460
S'PRON'
p1461
F0.99999
sg6
F1e-05
s(lp1462
(g229
I27
tp1463
atp1464
a(S'cenny'
p1465
(dp1466
S'ADJ'
p1467
F1.0
s(lp1468
(g248
I28
tp1469
atp1470
a(S'wk\xc5\x82ad'
p1471
(dp1472
S'NOUN'
p1473
F1.0
s(lp1474
tp1475
a(S'pracy'
p1476
(dp1477
S'NOUN'
p1478
F1.0000010000000001
s(lp1479
(g236
I29
tp1480
atp1481
a(S'w'
p1482
(dp1483
g6
F7.2e-05
sS'ADJ'
p1484
F8.1e-05
sS'ADP'
p1485
F0.9998220000000001
sS'NOUN'
p1486
F2.5e-05
s(lp1487
(g255
I30
tp1488
atp1489
a(S'powstanie'
p1490
(dp1491
S'VERB'
p1492
F0.611054
sS'NOUN'
p1493
F0.388946
s(lp1494
(g171
I20
tp1495
atp1496
a(S'tego'
p1497
(dp1498
S'ADJ'
p1499
F0.24833700000000003
sS'NOUN'
p1500
F0.751652
sS'PRT'
p1501
F2e-06
sg6
F8e-06
s(lp1502
(g262
I31
tp1503
atp1504
a(S'wa\xc5\xbcnego'
p1505
(dp1506
S'ADJ'
p1507
F1.0
s(lp1508
(g270
I32
tp1509
atp1510
a(S'sprawozdania'
p1511
(dp1512
S'NOUN'
p1513
F1.0
s(lp1514
(g277
I33
tp1515
atp1516
a(g154
(dp1517
g154
F1.0
s(lp1518
(g154
I34
tp1519
atp1520
asS'sl'
p1521
(lp1522
(S'veselim'
p1523
(dp1524
S'ADV'
p1525
F0.017645
sS'ADJ'
p1526
F0.14214700000000002
sS'VERB'
p1527
F0.5554290000000001
sS'NOUN'
p1528
F0.2847779999999999
s(lp1529
(g25
I2
tp1530
atp1531
a(S'se'
p1532
(dp1533
S'PRON'
p1534
F0.998611
sg6
F0.001389
s(lp1535
(g17
I1
tp1536
atp1537
a(S'va\xc5\xa1ih'
p1538
(dp1539
S'PRON'
p1540
F1.0000010000000001
s(lp1541
(g48
I5
tp1542
atp1543
a(S'mnenj'
p1544
(dp1545
S'NOUN'
p1546
F1.0
s(lp1547
(g67
I6
tp1548
atp1549
a(S'o'
p1550
(dp1551
S'NOUN'
p1552
F2.3e-05
sS'ADP'
p1553
F0.999977
s(lp1554
(g74
I7
tp1555
atp1556
a(S'teh'
p1557
(dp1558
S'PRON'
p1559
F1.000001
s(lp1560
(g81
I8
tp1561
atp1562
a(S'ob\xc4\x8dutljivih'
p1563
(dp1564
S'ADJ'
p1565
F1.000001
s(lp1566
(g95
I9
tp1567
atp1568
a(S'vpra\xc5\xa1anjih'
p1569
(dp1570
S'NOUN'
p1571
F1.0
s(lp1572
(g88
I10
tp1573
atp1574
a(S'in'
p1575
(dp1576
S'ADV'
p1577
F6.4e-05
sg6
F1.2e-05
sS'CONJ'
p1578
F0.999915
sS'NOUN'
p1579
F9e-06
s(lp1580
(g102
I11
tp1581
atp1582
a(S'bi'
p1583
(dp1584
g6
F2.5e-05
sS'VERB'
p1585
F0.999975
s(lp1586
(g109
I12
tp1587
atp1588
a(S'se'
p1589
(dp1590
S'PRON'
p1591
F0.999999
sg6
F1e-06
s(lp1592
tp1593
a(S'rada'
p1594
(dp1595
S'ADV'
p1596
F1.0
s(lp1597
(g117
I13
tp1598
atp1599
a(S'zahvalila'
p1600
(dp1601
S'VERB'
p1602
F1.0
s(lp1603
(g131
I15
tp1604
atp1605
a(S'poro\xc4\x8devalki'
p1606
(dp1607
S'ADV'
p1608
F0.003021
sS'ADJ'
p1609
F0.324004
sS'VERB'
p1610
F0.021877999999999998
sS'NOUN'
p1611
F0.6510949999999998
s(lp1612
(g149
I17
tp1613
atp1614
a(g152
(dp1615
g154
F1.0
s(lp1616
(g152
I18
tp1617
atp1618
a(S'gospe'
p1619
(dp1620
S'NOUN'
p1621
F1.0
s(lp1622
(g164
I19
tp1623
atp1624
a(S'liotard'
p1625
(dp1626
S'ADV'
p1627
F0.04239
sS'ADJ'
p1628
F0.007799
sS'VERB'
p1629
F0.011760999999999999
sS'NOUN'
p1630
F0.9365209999999999
sg6
F0.001527
s(lp1631
(g171
I20
tp1632
atp1633
a(g152
(dp1634
g154
F1.0
s(lp1635
(g152
I21
tp1636
atp1637
a(S'in'
p1638
(dp1639
S'ADV'
p1640
F6e-05
sg6
F1.1e-05
sS'CONJ'
p1641
F0.999916
sS'NOUN'
p1642
F1.3e-05
s(lp1643
(g183
I22
tp1644
atp1645
a(S'poro\xc4\x8devalcem'
p1646
(dp1647
S'ADV'
p1648
F0.001738
sS'ADJ'
p1649
F0.0007989999999999998
sS'VERB'
p1650
F0.021681000000000006
sS'NOUN'
p1651
F0.9757800000000003
s(lp1652
(g207
I25
tp1653
atp1654
a(S'v'
p1655
(dp1656
S'ADP'
p1657
F1.0
s(lp1658
tp1659
a(S'senci'
p1660
(dp1661
S'NOUN'
p1662
F1.0
s(lp1663
(g214
I24
tp1664
atp1665
a(S'za'
p1666
(dp1667
S'ADV'
p1668
F5e-06
sg6
F2.9e-05
sS'ADP'
p1669
F0.9999649999999999
s(lp1670
(g222
I26
tp1671
atp1672
a(S'njihovo'
p1673
(dp1674
S'PRON'
p1675
F1.0
s(lp1676
(g229
I27
tp1677
atp1678
a(S'dragoceno'
p1679
(dp1680
S'ADJ'
p1681
F1.0
s(lp1682
(g248
I28
tp1683
atp1684
a(S'delo'
p1685
(dp1686
S'NOUN'
p1687
F1.0
s(lp1688
(g236
I29
tp1689
atp1690
a(S'na'
p1691
(dp1692
S'ADP'
p1693
F1.0
s(lp1694
(g255
I30
tp1695
atp1696
a(S'tem'
p1697
(dp1698
S'ADV'
p1699
F0.000202
sS'PRON'
p1700
F0.999796
sS'NOUN'
p1701
F2e-06
s(lp1702
(g262
I31
tp1703
atp1704
a(S'pomembnem'
p1705
(dp1706
S'ADJ'
p1707
F1.0
s(lp1708
(g270
I32
tp1709
atp1710
a(S'poro\xc4\x8dilu'
p1711
(dp1712
S'NOUN'
p1713
F1.0
s(lp1714
(g277
I33
tp1715
atp1716
a(g154
(dp1717
g154
F1.0
s(lp1718
(g154
I34
tp1719
atp1720
asS'es'
p1721
(lp1722
(S'espero'
p1723
(dp1724
S'VERB'
p1725
F1.0
s(lp1726
(g17
I1
tp1727
atp1728
a(S'escuchar'
p1729
(dp1730
S'VERB'
p1731
F1.0
s(lp1732
(g41
I4
tp1733
atp1734
a(S'sus'
p1735
(dp1736
S'PRON'
p1737
F1.0
s(lp1738
(g48
I5
tp1739
atp1740
a(S'opiniones'
p1741
(dp1742
S'NOUN'
p1743
F1.0
s(lp1744
(g67
I6
tp1745
atp1746
a(S'sobre'
p1747
(dp1748
S'NOUN'
p1749
F0.0
sS'ADP'
p1750
F1.0
s(lp1751
(g74
I7
tp1752
atp1753
a(S'estas'
p1754
(dp1755
S'PRON'
p1756
F1.0
s(lp1757
(g81
I8
tp1758
atp1759
a(S'cuestiones'
p1760
(dp1761
S'NOUN'
p1762
F1.0
s(lp1763
(g88
I10
tp1764
atp1765
a(S'sensibles'
p1766
(dp1767
S'ADJ'
p1768
F1.0
s(lp1769
(g95
I9
tp1770
atp1771
a(S'y'
p1772
(dp1773
g6
F0.000435
sS'CONJ'
p1774
F0.999565
s(lp1775
(g102
I11
tp1776
atp1777
a(S'quiero'
p1778
(dp1779
S'VERB'
p1780
F1.0
s(lp1781
(g117
I13
tp1782
atp1783
a(S'dar'
p1784
(dp1785
S'VERB'
p1786
F1.0
s(lp1787
(g131
I15
tp1788
atp1789
a(S'las'
p1790
(dp1791
S'PRON'
p1792
F1e-05
sS'DET'
p1793
F0.99999
s(lp1794
tp1795
a(S'gracias'
p1796
(dp1797
S'ADP'
p1798
F1.0
s(lp1799
(g131
I15
tp1800
atp1801
a(g1182
(dp1802
S'ADP'
p1803
F1.0
s(lp1804
(g124
I14
tp1805
atp1806
a(S'la'
p1807
(dp1808
S'NOUN'
p1809
F0.0
sS'PRON'
p1810
F0.0
sS'DET'
p1811
F0.999999
sg6
F0.0
s(lp1812
(g140
I16
tp1813
atp1814
a(S'ponente'
p1815
(dp1816
S'NOUN'
p1817
F1.0
s(lp1818
(g149
I17
tp1819
atp1820
a(g152
(dp1821
g154
F1.0
s(lp1822
(g152
I18
tp1823
atp1824
a(S'la'
p1825
(dp1826
S'PRON'
p1827
F3.5e-05
sS'DET'
p1828
F0.999959
sS'NOUN'
p1829
F0.0
sg6
F5e-06
s(lp1830
tp1831
a(S'se\xc3\xb1ora'
p1832
(dp1833
S'NOUN'
p1834
F1.0
s(lp1835
(g164
I19
tp1836
atp1837
a(S'liotard'
p1838
(dp1839
S'NOUN'
p1840
F0.15984500000000001
sS'VERB'
p1841
F0.010158
sS'ADJ'
p1842
F0.829998
s(lp1843
(g171
I20
tp1844
atp1845
a(g152
(dp1846
g154
F1.0
s(lp1847
(g152
I21
tp1848
atp1849
a(g1772
(dp1850
g6
F0.000444
sS'CONJ'
p1851
F0.999556
s(lp1852
(g183
I22
tp1853
atp1854
a(g1182
(dp1855
g6
F0.001109
sS'CONJ'
p1856
F0.0
sS'ADP'
p1857
F0.998891
s(lp1858
tp1859
a(S'los'
p1860
(dp1861
S'PRON'
p1862
F0.0
sS'DET'
p1863
F1.0
s(lp1864
(g199
I23
tp1865
atp1866
a(S'ponentes'
p1867
(dp1868
S'ADJ'
p1869
F2.9e-05
sS'NOUN'
p1870
F0.999971
s(lp1871
(g207
I25
tp1872
atp1873
a(S'alternativos'
p1874
(dp1875
S'ADJ'
p1876
F1.0
s(lp1877
(g214
I24
tp1878
atp1879
a(S'por'
p1880
(dp1881
S'ADP'
p1882
F1.0
s(lp1883
(g222
I26
tp1884
atp1885
a(S'su'
p1886
(dp1887
S'PRON'
p1888
F1.0
s(lp1889
(g229
I27
tp1890
atp1891
a(S'valioso'
p1892
(dp1893
S'ADJ'
p1894
F1.0
s(lp1895
(g248
I28
tp1896
atp1897
a(S'trabajo'
p1898
(dp1899
S'NOUN'
p1900
F1.0
s(lp1901
(g236
I29
tp1902
atp1903
a(S'en'
p1904
(dp1905
g6
F1e-06
sS'CONJ'
p1906
F1e-06
sS'ADP'
p1907
F0.999998
s(lp1908
(g255
I30
tp1909
atp1910
a(S'este'
p1911
(dp1912
S'PRON'
p1913
F0.937025
sS'NOUN'
p1914
F0.062975
s(lp1915
(g262
I31
tp1916
atp1917
a(S'importante'
p1918
(dp1919
S'VERB'
p1920
F0.002908
sS'ADJ'
p1921
F0.997092
s(lp1922
(g270
I32
tp1923
atp1924
a(S'informe'
p1925
(dp1926
S'VERB'
p1927
F0.029582
sS'NOUN'
p1928
F0.970418
s(lp1929
(g277
I33
tp1930
atp1931
a(g154
(dp1932
g154
F1.0
s(lp1933
(g154
I34
tp1934
atp1935
as.