(dp0
S'fr'
p1
(lp2
(S'dans'
p3
(dp4
S'NOUN'
p5
F6.4e-05
sS'ADP'
p6
F0.999936
s(lp7
(S'at'
p8
I0
tp9
atp10
a(S'les'
p11
(dp12
S'PRON'
p13
F5.6e-05
sS'DET'
p14
F0.999943
sS'ADP'
p15
F2e-06
s(lp16
(S'such'
p17
I7
tp18
atp19
a(S'p\xc3\xa9riodes'
p20
(dp21
S'NOUN'
p22
F1.0
s(lp23
(S'time'
p24
I2
tp25
atp26
a(S'de'
p27
(dp28
S'ADP'
p29
F1.0
s(lp30
(S'of'
p31
I3
tp32
atp33
a(S'crise'
p34
(dp35
S'NOUN'
p36
F1.0
s(lp37
(S'crisis'
p38
I6
tp39
atp40
a(S'\xc3\xa9conomique'
p41
(dp42
S'NOUN'
p43
F0.010729
sS'ADJ'
p44
F0.989271
s(lp45
(S'economic'
p46
I5
tp47
atp48
a(S'g\xc3\xa9n\xc3\xa9ralis\xc3\xa9e'
p49
(dp50
S'VERB'
p51
F1.0
s(lp52
(S'widespread'
p53
I4
tp54
atp55
a(S'comme'
p56
(dp57
S'ADV'
p58
F0.441183
sS'CONJ'
p59
F0.558817
s(lp60
(S'as'
p61
I8
tp62
atp63
a(S'celle'
p64
(dp65
S'PRON'
p66
F1.0
s(lp67
tp68
a(S'que'
p69
(dp70
S'ADV'
p71
F0.000798
sS'PRON'
p72
F0.96932
sS'CONJ'
p73
F0.029883
s(lp74
(g61
I8
tp75
atp76
a(S'nous'
p77
(dp78
S'PRON'
p79
F1.0
s(lp80
(S'we'
p81
I9
tp82
atp83
a(S'traversons'
p84
(dp85
S'VERB'
p86
F1.0
s(lp87
(S'experiencing'
p88
I11
tp89
atp90
a(S'actuellement'
p91
(dp92
S'ADV'
p93
F1.0
s(lp94
(S'now'
p95
I12
tp96
atp97
a(S','
p98
(dp99
S'.'
p100
F1.0
s(lp101
(g98
I13
tp102
atp103
a(S'la'
p104
(dp105
S'PRON'
p106
F0.000218
sS'DET'
p107
F0.999781
sS'NOUN'
p108
F1e-06
s(lp109
(S'the'
p110
I14
tp111
atp112
a(S'n\xc3\xa9cessit\xc3\xa9'
p113
(dp114
S'VERB'
p115
F0.00048
sS'NOUN'
p116
F0.99952
s(lp117
(S'need'
p118
I15
tp119
atp120
a(S"d'"
p121
(dp122
S'NOUN'
p123
F0.032647
sS'VERB'
p124
F0.6938510000000001
sS'ADJ'
p125
F0.273502
s(lp126
(S'for'
p127
I16
tp128
atp129
a(S'une'
p130
(dp131
S'NOUN'
p132
F1.5e-05
sS'NUM'
p133
F0.021976
sS'DET'
p134
F0.978009
s(lp135
tp136
a(S'application'
p137
(dp138
S'NOUN'
p139
F1.0
s(lp140
(S'enforcement'
p141
I18
tp142
atp143
a(S'efficace'
p144
(dp145
S'NOUN'
p146
F0.007084
sS'ADJ'
p147
F0.992916
s(lp148
(S'effective'
p149
I17
tp150
atp151
a(S'de'
p152
(dp153
S'ADP'
p154
F1.0
s(lp155
(S'of'
p156
I19
tp157
atp158
a(S'la'
p159
(dp160
S'PRON'
p161
F1.2e-05
sS'DET'
p162
F0.999988
sS'NOUN'
p163
F0.0
s(lp164
tp165
a(S'surveillance'
p166
(dp167
S'NOUN'
p168
F1.0
s(lp169
(S'surveillance'
p170
I21
tp171
atp172
a(S'budg\xc3\xa9taire'
p173
(dp174
S'ADJ'
p175
F1.0
s(lp176
(S'budgetary'
p177
I20
tp178
atp179
a(S'dans'
p180
(dp181
S'NOUN'
p182
F8.7e-05
sS'ADP'
p183
F0.999913
s(lp184
(S'in'
p185
I22
tp186
atp187
a(S'la'
p188
(dp189
S'PRON'
p190
F0.000562
sS'DET'
p191
F0.999437
sS'NOUN'
p192
F0.0
s(lp193
(S'the'
p194
I23
tp195
atp196
a(S'zone'
p197
(dp198
S'VERB'
p199
F0.0007650000000000001
sS'NOUN'
p200
F0.999235
s(lp201
(S'area'
p202
I25
tp203
atp204
a(S'euro'
p205
(dp206
S'NOUN'
p207
F1.0
s(lp208
(S'euro'
p209
I24
tp210
atp211
a(S'est'
p212
(dp213
S'VERB'
p214
F0.999763
sS'NOUN'
p215
F0.000237
s(lp216
(S'is'
p217
I26
tp218
atp219
a(S'prioritaire'
p220
(dp221
S'ADJ'
p222
F1.0
s(lp223
(S'priority'
p224
I28
tp225
atp226
a(g100
(dp227
g100
F1.0
s(lp228
(g100
I29
tp229
atp230
asS'en'
p231
(lp232
(g8
(dp233
S'NOUN'
p234
F1e-06
sS'ADP'
p235
F0.999999
s(lp236
(g8
I0
tp237
atp238
a(S'a'
p239
(dp240
S'NOUN'
p241
F0.0
sS'DET'
p242
F1.0
s(lp243
(g239
I1
tp244
atp245
a(g24
(dp246
S'VERB'
p247
F7e-06
sS'NOUN'
p248
F0.999993
s(lp249
(g24
I2
tp250
atp251
a(g31
(dp252
S'ADP'
p253
F1.0
s(lp254
(g31
I3
tp255
atp256
a(g53
(dp257
S'ADJ'
p258
F1.0
s(lp259
(g53
I4
tp260
atp261
a(g46
(dp262
S'ADJ'
p263
F1.0
s(lp264
(g46
I5
tp265
atp266
a(g38
(dp267
S'NOUN'
p268
F1.0
s(lp269
(g38
I6
tp270
atp271
a(g17
(dp272
S'ADV'
p273
F0.001979
sS'DET'
p274
F0.003558
sS'ADJ'
p275
F0.992513
sS'ADP'
p276
F0.00195
s(lp277
(g17
I7
tp278
atp279
a(g61
(dp280
S'ADV'
p281
F0.035099
sS'ADP'
p282
F0.964901
s(lp283
(g61
I8
tp284
atp285
a(g81
(dp286
S'PRON'
p287
F1.0
s(lp288
(g81
I9
tp289
atp290
a(S'are'
p291
(dp292
S'VERB'
p293
F1.0
sS'NOUN'
p294
F0.0
s(lp295
(g291
I10
tp296
atp297
a(g88
(dp298
S'VERB'
p299
F1.0
s(lp300
(g88
I11
tp301
atp302
a(g95
(dp303
S'ADV'
p304
F0.999942
sS'NOUN'
p305
F1.5e-05
sS'ADP'
p306
F4.2e-05
s(lp307
(g95
I12
tp308
atp309
a(g98
(dp310
g100
F1.0
s(lp311
(g98
I13
tp312
atp313
a(g110
(dp314
S'NOUN'
p315
F5e-06
sS'DET'
p316
F0.999995
s(lp317
(g110
I14
tp318
atp319
a(g118
(dp320
S'VERB'
p321
F0.017571999999999997
sS'NOUN'
p322
F0.982428
s(lp323
(g118
I15
tp324
atp325
a(g127
(dp326
S'ADP'
p327
F1.0
s(lp328
(g127
I16
tp329
atp330
a(g149
(dp331
S'NOUN'
p332
F0.003972
sS'ADJ'
p333
F0.996028
s(lp334
(g149
I17
tp335
atp336
a(g141
(dp337
S'NOUN'
p338
F1.0
s(lp339
(g141
I18
tp340
atp341
a(g156
(dp342
S'ADP'
p343
F1.0
s(lp344
(g156
I19
tp345
atp346
a(g177
(dp347
S'ADJ'
p348
F1.0
s(lp349
(g177
I20
tp350
atp351
a(g170
(dp352
S'NOUN'
p353
F1.0
s(lp354
(g170
I21
tp355
atp356
a(g185
(dp357
S'ADV'
p358
F0.000191
sS'PRT'
p359
F0.000279
sS'ADP'
p360
F0.999531
s(lp361
(g185
I22
tp362
atp363
a(g194
(dp364
S'NOUN'
p365
F4e-06
sS'DET'
p366
F0.999996
s(lp367
(g194
I23
tp368
atp369
a(g209
(dp370
S'ADV'
p371
F3.2e-05
sS'ADJ'
p372
F0.018732
sS'VERB'
p373
F0.0005799999999999999
sS'NOUN'
p374
F0.980656
s(lp375
(g209
I24
tp376
atp377
a(g202
(dp378
S'NOUN'
p379
F1.0
s(lp380
(g202
I25
tp381
atp382
a(g217
(dp383
S'VERB'
p384
F1.0
s(lp385
(g217
I26
tp386
atp387
a(g239
(dp388
S'NOUN'
p389
F0.0
sS'DET'
p390
F1.0
s(lp391
(g239
I27
tp392
atp393
a(g224
(dp394
S'ADJ'
p395
F0.015622
sS'NOUN'
p396
F0.984378
s(lp397
(g224
I28
tp398
atp399
a(g100
(dp400
g100
F1.0
s(lp401
(g100
I29
tp402
atp403
asS'nl'
p404
(lp405
(S'schriftelijk'
p406
(dp407
S'ADJ'
p408
F1.0
s(lp409
(g38
I6
tp410
atp411
a(g100
(dp412
g100
F1.0
s(lp413
tp414
a(S'-'
p415
(dp416
g100
F1.0
s(lp417
(g38
I6
tp418
atp419
a(S'('
p420
(dp421
g100
F1.0
s(lp422
(g38
I6
tp423
atp424
a(S'it'
p425
(dp426
S'ADJ'
p427
F0.06221
sS'NOUN'
p428
F0.93779
s(lp429
(g38
I6
tp430
atp431
a(S')'
p432
(dp433
g100
F1.0
s(lp434
tp435
a(S'in'
p436
(dp437
S'ADV'
p438
F0.014077
sS'VERB'
p439
F8e-06
sS'ADP'
p440
F0.985916
s(lp441
(g8
I0
tp442
atp443
a(S'een'
p444
(dp445
S'ADJ'
p446
F1e-06
sS'PRON'
p447
F1.4e-05
sS'NUM'
p448
F0.0
sS'DET'
p449
F0.999984
s(lp450
(g239
I1
tp451
atp452
a(S'periode'
p453
(dp454
S'NOUN'
p455
F1.0
s(lp456
(g24
I2
tp457
atp458
a(S'van'
p459
(dp460
S'ADP'
p461
F1.0
s(lp462
(g31
I3
tp463
atp464
a(S'algemene'
p465
(dp466
S'NOUN'
p467
F0.000242
sS'ADJ'
p468
F0.999758
s(lp469
(g53
I4
tp470
atp471
a(S'economische'
p472
(dp473
S'NOUN'
p474
F5e-05
sS'ADJ'
p475
F0.99995
s(lp476
(g46
I5
tp477
atp478
a(S'crisis'
p479
(dp480
S'NOUN'
p481
F1.0
s(lp482
(g38
I6
tp483
atp484
a(g98
(dp485
g100
F1.0
s(lp486
tp487
a(S'die'
p488
(dp489
S'PRON'
p490
F1.0
s(lp491
(g17
I7
tp492
atp493
a(S'we'
p494
(dp495
S'PRON'
p496
F1.0
s(lp497
(g81
I9
tp498
atp499
a(S'nu'
p500
(dp501
S'ADV'
p502
F0.998917
sS'CONJ'
p503
F0.000725
sS'NOUN'
p504
F0.000357
s(lp505
(g95
I12
tp506
atp507
a(S'doormaken'
p508
(dp509
S'VERB'
p510
F0.994019
sS'NOUN'
p511
F0.005982
s(lp512
(g88
I11
tp513
atp514
a(g98
(dp515
g100
F1.0
s(lp516
(g98
I13
tp517
atp518
a(S'is'
p519
(dp520
S'VERB'
p521
F1.0
s(lp522
(g118
I15
tp523
atp524
a(S'het'
p525
(dp526
S'PRON'
p527
F0.192971
sS'DET'
p528
F0.807028
s(lp529
(g110
I14
tp530
atp531
a(S'effectief'
p532
(dp533
S'ADJ'
p534
F1.0
s(lp535
(g149
I17
tp536
atp537
a(S'handhaven'
p538
(dp539
S'VERB'
p540
F0.66543
sS'NOUN'
p541
F0.33457
s(lp542
(g141
I18
tp543
atp544
a(S'van'
p545
(dp546
S'ADP'
p547
F1.0
s(lp548
(g156
I19
tp549
atp550
a(S'het'
p551
(dp552
S'PRON'
p553
F0.000927
sS'DET'
p554
F0.999073
s(lp555
(g177
I20
tp556
atp557
a(S'begrotingstoezicht'
p558
(dp559
S'NOUN'
p560
F1.0
s(lp561
(g170
I21
tp562
atp563
a(S'in'
p564
(dp565
S'ADV'
p566
F0.002982
sS'VERB'
p567
F3e-06
sS'ADP'
p568
F0.997016
s(lp569
(g185
I22
tp570
atp571
a(S'het'
p572
(dp573
S'PRON'
p574
F0.00093
sS'DET'
p575
F0.99907
s(lp576
(g194
I23
tp577
atp578
a(S'eurogebied'
p579
(dp580
S'NOUN'
p581
F1.0
s(lp582
(g209
I24
tp583
atp584
a(S'een'
p585
(dp586
S'ADJ'
p587
F1.4e-05
sS'NUM'
p588
F1.5e-05
sS'DET'
p589
F0.999968
sS'PRON'
p590
F2e-06
s(lp591
(g239
I27
tp592
atp593
a(S'prioriteit'
p594
(dp595
S'NOUN'
p596
F1.0
s(lp597
(g224
I28
tp598
atp599
a(g100
(dp600
g100
F1.0
s(lp601
(g100
I29
tp602
atp603
asS'de'
p604
(lp605
(S'in'
p606
(dp607
S'ADP'
p608
F1.0
s(lp609
(g8
I0
tp610
atp611
a(S'einer'
p612
(dp613
S'PRON'
p614
F0.252251
sS'DET'
p615
F0.746765
s(lp616
(g239
I1
tp617
atp618
a(S'zeit'
p619
(dp620
S'ADP'
p621
F1.0
s(lp622
(g24
I2
tp623
atp624
a(S'der'
p625
(dp626
S'PRON'
p627
F0.00184
sS'DET'
p628
F0.997601
s(lp629
(g31
I3
tp630
atp631
a(S'weit'
p632
(dp633
S'PRT'
p634
F2e-06
sS'ADJ'
p635
F0.999998
s(lp636
tp637
a(S'verbreiteten'
p638
(dp639
S'VERB'
p640
F0.015427
sS'ADJ'
p641
F0.984573
s(lp642
(g53
I4
tp643
atp644
a(S'wirtschaftskrise'
p645
(dp646
S'NOUN'
p647
F0.9994710000000001
s(lp648
(g38
I6
tp649
atp650
a(g98
(dp651
g100
F1.0
s(lp652
tp653
a(S'wie'
p654
(dp655
S'CONJ'
p656
F0.999988
s(lp657
(g61
I8
tp658
atp659
a(S'wir'
p660
(dp661
S'PRON'
p662
F1.0
s(lp663
(g81
I9
tp664
atp665
a(S'sie'
p666
(dp667
S'PRON'
p668
F1.0
s(lp669
(g17
I7
tp670
atp671
a(S'jetzt'
p672
(dp673
S'ADV'
p674
F1.0
s(lp675
(g95
I12
tp676
atp677
a(S'durchleben'
p678
(dp679
S'VERB'
p680
F1.0
s(lp681
(g88
I11
tp682
atp683
a(g98
(dp684
g100
F1.0
s(lp685
(g98
I13
tp686
atp687
a(S'ist'
p688
(dp689
S'VERB'
p690
F1.0
s(lp691
(g291
I10
tp692
atp693
a(S'die'
p694
(dp695
S'PRON'
p696
F0.001994
sS'DET'
p697
F0.998003
s(lp698
(g110
I14
tp699
atp700
a(S'notwendigkeit'
p701
(dp702
S'ADJ'
p703
F0.012455
sS'NOUN'
p704
F0.969884
s(lp705
(g118
I15
tp706
atp707
a(S'einer'
p708
(dp709
S'PRON'
p710
F0.001599
sS'DET'
p711
F0.998224
s(lp712
(g127
I16
tp713
atp714
a(S'wirksamen'
p715
(dp716
S'ADJ'
p717
F1.0
s(lp718
(g149
I17
tp719
atp720
a(S'durchsetzung'
p721
(dp722
S'VERB'
p723
F3.9e-05
sS'NOUN'
p724
F0.999944
s(lp725
(g141
I18
tp726
atp727
a(S'der'
p728
(dp729
S'PRON'
p730
F8.6e-05
sS'DET'
p731
F0.999906
s(lp732
(g156
I19
tp733
atp734
a(S'haushaltspolitischen'
p735
(dp736
S'ADJ'
p737
F1.0
s(lp738
(g177
I20
tp739
atp740
a(S'\xc3\x9cberwachung'
p741
(dp742
S'NOUN'
p743
F1.0
s(lp744
(g170
I21
tp745
atp746
a(S'im'
p747
(dp748
S'ADP'
p749
F1.0
s(lp750
(g185
I22
tp751
atp752
a(S'euroraum'
p753
(dp754
S'ADJ'
p755
F0.042884
sS'NOUN'
p756
F0.945521
s(lp757
(g209
I24
tp758
atp759
a(S'eine'
p760
(dp761
S'NUM'
p762
F0.000409
sS'DET'
p763
F0.999421
s(lp764
(g239
I27
tp765
atp766
a(S'priorit\xc3\xa4t'
p767
(dp768
S'ADJ'
p769
F0.000221
sS'NOUN'
p770
F0.999684
s(lp771
(g224
I28
tp772
atp773
a(g100
(dp774
g100
F1.0
s(lp775
(g100
I29
tp776
atp777
asS'it'
p778
(lp779
(S'per'
p780
(dp781
S'CONJ'
p782
F0.030106
sS'ADP'
p783
F0.969894
s(lp784
(g8
I0
tp785
atp786
a(S'iscritto'
p787
(dp788
S'NOUN'
p789
F0.123774
sS'VERB'
p790
F0.030022
sS'ADJ'
p791
F0.846204
s(lp792
tp793
a(g100
(dp794
g100
F1.0
s(lp795
tp796
a(g415
(dp797
S'X'
p798
F7e-06
sg100
F0.999993
s(lp799
tp800
a(S'in'
p801
(dp802
S'ADP'
p803
F1.0
s(lp804
tp805
a(S'un'
p806
(dp807
S'PRON'
p808
F0.002676
sS'DEF'
p809
F0.997324
s(lp810
(g239
I1
tp811
atp812
a(S'periodo'
p813
(dp814
S'VERB'
p815
F7e-06
sS'NOUN'
p816
F0.999993
s(lp817
(g24
I2
tp818
atp819
a(S'di'
p820
(dp821
S'CONJ'
p822
F4.3e-05
sS'ADP'
p823
F0.999957
s(lp824
(g31
I3
tp825
atp826
a(S'generalizzata'
p827
(dp828
S'VERB'
p829
F0.108159
sS'ADJ'
p830
F0.891841
s(lp831
(g53
I4
tp832
atp833
a(S'crisi'
p834
(dp835
S'NOUN'
p836
F1.0
s(lp837
(g38
I6
tp838
atp839
a(S'economica'
p840
(dp841
S'ADJ'
p842
F1.0
s(lp843
(g46
I5
tp844
atp845
a(g98
(dp846
g100
F1.0
s(lp847
(g17
I7
tp848
atp849
a(S'come'
p850
(dp851
S'PRON'
p852
F0.0018
sS'CONJ'
p853
F0.526076
sS'NOUN'
p854
F1.2e-05
sS'ADP'
p855
F0.472112
s(lp856
tp857
a(S'quello'
p858
(dp859
S'PRON'
p860
F1.0
s(lp861
(g61
I8
tp862
atp863
a(S'che'
p864
(dp865
S'PRON'
p866
F0.998591
sS'CONJ'
p867
F0.00117
sS'ADJ'
p868
F0.00024
s(lp869
(g81
I9
tp870
atp871
a(S'stiamo'
p872
(dp873
S'VERB'
p874
F0.999999
s(lp875
(g291
I10
tp876
atp877
a(S'attraversando'
p878
(dp879
S'VERB'
p880
F1.0
s(lp881
(g88
I11
tp882
atp883
a(g98
(dp884
g100
F1.0
s(lp885
(g98
I13
tp886
atp887
a(S'la'
p888
(dp889
S'PRON'
p890
F0.000686
sS'DET'
p891
F0.999314
s(lp892
(g110
I14
tp893
atp894
a(S'necessit\xc3\xa0'
p895
(dp896
S'NOUN'
p897
F1.0
s(lp898
(g118
I15
tp899
atp900
a(S'di'
p901
(dp902
S'CONJ'
p903
F6e-06
sS'ADP'
p904
F0.999994
s(lp905
(g127
I16
tp906
atp907
a(S'applicare'
p908
(dp909
S'VERB'
p910
F1.0
s(lp911
(g141
I18
tp912
atp913
a(S'effettivamente'
p914
(dp915
S'ADV'
p916
F1.0
s(lp917
(g149
I17
tp918
atp919
a(S'la'
p920
(dp921
S'PRON'
p922
F0.000175
sS'DET'
p923
F0.999825
s(lp924
tp925
a(S'sorveglianza'
p926
(dp927
S'NOUN'
p928
F1.0
s(lp929
(g170
I21
tp930
atp931
a(S'di'
p932
(dp933
S'CONJ'
p934
F4e-06
sS'ADP'
p935
F0.999996
s(lp936
(g156
I19
tp937
atp938
a(S'bilancio'
p939
(dp940
S'VERB'
p941
F0.000115
sS'NOUN'
p942
F0.999885
s(lp943
(g177
I20
tp944
atp945
a(S"nell'"
p946
(dp947
S'ADJ'
p948
F0.040678
sS'VERB'
p949
F0.006572999999999999
sS'NOUN'
p950
F0.952749
s(lp951
(g185
I22
tp952
atp953
a(S'area'
p954
(dp955
S'NOUN'
p956
F1.0
s(lp957
(g202
I25
tp958
atp959
a(S"dell'"
p960
(dp961
S'ADJ'
p962
F0.040682
sS'VERB'
p963
F0.006560999999999999
sS'NOUN'
p964
F0.952757
s(lp965
tp966
a(S'euro'
p967
(dp968
S'NOUN'
p969
F0.427913
sS'ADJ'
p970
F0.572087
s(lp971
(g209
I24
tp972
atp973
a(S'\xc3\xa8'
p974
(dp975
S'VERB'
p976
F1.0
s(lp977
(g217
I26
tp978
atp979
a(S'prioritaria'
p980
(dp981
S'ADJ'
p982
F1.0
s(lp983
(g224
I28
tp984
atp985
a(g100
(dp986
g100
F1.0
s(lp987
(g100
I29
tp988
atp989
asS'sk'
p990
(lp991
(S'v'
p992
(dp993
g798
F0.000596
sS'ADP'
p994
F0.999404
s(lp995
(g8
I0
tp996
atp997
a(S'\xc4\x8dase'
p998
(dp999
S'NOUN'
p1000
F1.0
s(lp1001
(g24
I2
tp1002
atp1003
a(S'rozsiahlej'
p1004
(dp1005
S'ADJ'
p1006
F1.0
s(lp1007
(g53
I4
tp1008
atp1009
a(S'hospod\xc3\xa1rskej'
p1010
(dp1011
S'ADJ'
p1012
F1.0
s(lp1013
(g46
I5
tp1014
atp1015
a(S'kr\xc3\xadzy'
p1016
(dp1017
S'NOUN'
p1018
F1.0
s(lp1019
(g38
I6
tp1020
atp1021
a(g98
(dp1022
g100
F1.0
s(lp1023
tp1024
a(S'ak\xc3\xba'
p1025
(dp1026
S'PRON'
p1027
F1.0
s(lp1028
tp1029
a(S'za\xc5\xbe\xc3\xadvame'
p1030
(dp1031
S'VERB'
p1032
F1.0
s(lp1033
(g88
I11
tp1034
atp1035
a(S'teraz'
p1036
(dp1037
S'ADV'
p1038
F1.0
s(lp1039
(g95
I12
tp1040
atp1041
a(g98
(dp1042
g100
F1.0
s(lp1043
(g98
I13
tp1044
atp1045
a(S'je'
p1046
(dp1047
S'PRON'
p1048
F0.000275
sS'VERB'
p1049
F0.999454
sg798
F0.000271
s(lp1050
(g217
I26
tp1051
atp1052
a(S'prioritou'
p1053
(dp1054
S'NOUN'
p1055
F1.0
s(lp1056
(g224
I28
tp1057
atp1058
a(S'potreba'
p1059
(dp1060
S'NOUN'
p1061
F1.0
s(lp1062
(g118
I15
tp1063
atp1064
a(S'presadzovania'
p1065
(dp1066
S'NOUN'
p1067
F1.0
s(lp1068
(g141
I18
tp1069
atp1070
a(S'rozpo\xc4\x8dtov\xc3\xa9ho'
p1071
(dp1072
S'ADJ'
p1073
F1.0
s(lp1074
(g177
I20
tp1075
atp1076
a(S'doh\xc4\xbeadu'
p1077
(dp1078
S'NOUN'
p1079
F1.0
s(lp1080
(g170
I21
tp1081
atp1082
a(g992
(dp1083
g798
F0.000506
sS'ADP'
p1084
F0.999495
s(lp1085
(g185
I22
tp1086
atp1087
a(S'euroz\xc3\xb3ne'
p1088
(dp1089
S'NOUN'
p1090
F1.0
s(lp1091
(g209
I24
tp1092
atp1093
a(g100
(dp1094
g100
F1.0
s(lp1095
(g100
I29
tp1096
atp1097
asS'pl'
p1098
(lp1099
(S'w'
p1100
(dp1101
S'ADJ'
p1102
F0.0
sg798
F0.0
sS'NOUN'
p1103
F0.0
sS'ADP'
p1104
F0.999999
s(lp1105
(g8
I0
tp1106
atp1107
a(S'czasach'
p1108
(dp1109
S'NOUN'
p1110
F1.0
s(lp1111
(g24
I2
tp1112
atp1113
a(S'powszechnego'
p1114
(dp1115
S'ADJ'
p1116
F1.0
s(lp1117
(g53
I4
tp1118
atp1119
a(S'kryzysu'
p1120
(dp1121
S'NOUN'
p1122
F1.0
s(lp1123
(g38
I6
tp1124
atp1125
a(S'gospodarczego'
p1126
(dp1127
S'ADJ'
p1128
F1.0
s(lp1129
(g46
I5
tp1130
atp1131
a(g98
(dp1132
g798
F0.0
sg100
F1.0
s(lp1133
tp1134
a(S'jakiego'
p1135
(dp1136
S'ADJ'
p1137
F0.999999
s(lp1138
tp1139
a(S'obecnie'
p1140
(dp1141
S'ADV'
p1142
F1.0
s(lp1143
(g95
I12
tp1144
atp1145
a(S'do\xc5\x9bwiadczamy'
p1146
(dp1147
S'ADV'
p1148
F0.007384
sS'ADJ'
p1149
F0.010699
sS'VERB'
p1150
F0.9506680000000002
sS'NOUN'
p1151
F0.03124800000000001
s(lp1152
(g88
I11
tp1153
atp1154
a(g98
(dp1155
g798
F0.0
sg100
F1.0
s(lp1156
(g98
I13
tp1157
atp1158
a(S'skuteczne'
p1159
(dp1160
S'ADJ'
p1161
F1.0
s(lp1162
(g149
I17
tp1163
atp1164
a(S'egzekwowanie'
p1165
(dp1166
S'VERB'
p1167
F1.0
s(lp1168
(g141
I18
tp1169
atp1170
a(S'nadzoru'
p1171
(dp1172
S'NOUN'
p1173
F1.0
s(lp1174
(g170
I21
tp1175
atp1176
a(S'bud\xc5\xbcetowego'
p1177
(dp1178
S'ADJ'
p1179
F1.0
s(lp1180
(g177
I20
tp1181
atp1182
a(g1100
(dp1183
S'ADJ'
p1184
F0.0
sg798
F1e-06
sS'NOUN'
p1185
F0.0
sS'ADP'
p1186
F0.9999990000000001
s(lp1187
(g185
I22
tp1188
atp1189
a(S'strefie'
p1190
(dp1191
S'NOUN'
p1192
F1.0
s(lp1193
tp1194
a(S'euro'
p1195
(dp1196
S'NOUN'
p1197
F1.0
s(lp1198
(g209
I24
tp1199
atp1200
a(S'jest'
p1201
(dp1202
S'VERB'
p1203
F1.0
s(lp1204
(g217
I26
tp1205
atp1206
a(S'priorytetem'
p1207
(dp1208
S'NOUN'
p1209
F1.0
s(lp1210
(g224
I28
tp1211
atp1212
a(g100
(dp1213
g100
F1.0
s(lp1214
(g100
I29
tp1215
atp1216
asS'sl'
p1217
(lp1218
(g992
(dp1219
S'ADP'
p1220
F1.0
s(lp1221
(g8
I0
tp1222
atp1223
a(S'\xc4\x8dasu'
p1224
(dp1225
S'NOUN'
p1226
F1.0
s(lp1227
(g24
I2
tp1228
atp1229
a(S'raz\xc5\xa1irjene'
p1230
(dp1231
S'ADJ'
p1232
F1.0
s(lp1233
(g53
I4
tp1234
atp1235
a(S'gospodarske'
p1236
(dp1237
S'ADJ'
p1238
F1.0
s(lp1239
(g46
I5
tp1240
atp1241
a(S'krize'
p1242
(dp1243
S'NOUN'
p1244
F1.0
s(lp1245
(g38
I6
tp1246
atp1247
a(g98
(dp1248
g100
F1.0
s(lp1249
(g17
I7
tp1250
atp1251
a(S's'
p1252
(dp1253
S'VERB'
p1254
F0.035544
sS'NOUN'
p1255
F0.009343
sS'ADP'
p1256
F0.9551130000000001
s(lp1257
(g88
I11
tp1258
atp1259
a(S'kakr\xc5\xa1no'
p1260
(dp1261
S'PRON'
p1262
F1.0
s(lp1263
tp1264
a(S'se'
p1265
(dp1266
S'PRON'
p1267
F0.999999
sg798
F1e-06
s(lp1268
tp1269
a(S'sre\xc4\x8dujemo'
p1270
(dp1271
S'VERB'
p1272
F1.0
s(lp1273
(g88
I11
tp1274
atp1275
a(S'zdaj'
p1276
(dp1277
S'ADV'
p1278
F1.0
s(lp1279
(g95
I12
tp1280
atp1281
a(g98
(dp1282
g100
F1.0
s(lp1283
(g98
I13
tp1284
atp1285
a(S'je'
p1286
(dp1287
S'PRON'
p1288
F0.001451
sS'VERB'
p1289
F0.9985470000000001
sg798
F3e-06
s(lp1290
(g110
I14
tp1291
atp1292
a(S'potreba'
p1293
(dp1294
S'NOUN'
p1295
F1.0
s(lp1296
tp1297
a(S'po'
p1298
(dp1299
g798
F7e-06
sS'ADP'
p1300
F0.999993
s(lp1301
(g118
I15
tp1302
atp1303
a(S'u\xc4\x8dinkovitem'
p1304
(dp1305
S'ADJ'
p1306
F1.0
s(lp1307
(g149
I17
tp1308
atp1309
a(S'uveljavljanju'
p1310
(dp1311
S'NOUN'
p1312
F1.0
s(lp1313
(g141
I18
tp1314
atp1315
a(S'prora\xc4\x8dunskega'
p1316
(dp1317
S'ADJ'
p1318
F1.0
s(lp1319
(g177
I20
tp1320
atp1321
a(S'nadzora'
p1322
(dp1323
S'NOUN'
p1324
F1.0
s(lp1325
(g170
I21
tp1326
atp1327
a(g992
(dp1328
S'ADP'
p1329
F1.0
s(lp1330
(g185
I22
tp1331
atp1332
a(S'obmo\xc4\x8dju'
p1333
(dp1334
S'NOUN'
p1335
F1.0
s(lp1336
(g202
I25
tp1337
atp1338
a(S'evra'
p1339
(dp1340
S'NOUN'
p1341
F1.0
s(lp1342
(g209
I24
tp1343
atp1344
a(S'prednostna'
p1345
(dp1346
S'ADJ'
p1347
F1.0
s(lp1348
tp1349
a(S'naloga'
p1350
(dp1351
S'NOUN'
p1352
F1.0
s(lp1353
(g224
I28
tp1354
atp1355
a(g100
(dp1356
g100
F1.0
s(lp1357
(g100
I29
tp1358
atp1359
asS'es'
p1360
(lp1361
(S'en'
p1362
(dp1363
g798
F1.7e-05
sS'CONJ'
p1364
F2e-06
sS'ADP'
p1365
F0.999981
s(lp1366
(g8
I0
tp1367
atp1368
a(S'un'
p1369
(dp1370
g798
F1.4e-05
sS'DET'
p1371
F0.999986
s(lp1372
(g239
I1
tp1373
atp1374
a(S'per\xc3\xadodo'
p1375
(dp1376
S'NOUN'
p1377
F1.0
s(lp1378
(g24
I2
tp1379
atp1380
a(S'de'
p1381
(dp1382
g798
F2.9e-05
sS'CONJ'
p1383
F0.000449
sS'ADP'
p1384
F0.999522
s(lp1385
(g31
I3
tp1386
atp1387
a(S'crisis'
p1388
(dp1389
S'NOUN'
p1390
F1.0
s(lp1391
(g38
I6
tp1392
atp1393
a(S'econ\xc3\xb3mica'
p1394
(dp1395
S'ADJ'
p1396
F1.0
s(lp1397
(g46
I5
tp1398
atp1399
a(S'extendida'
p1400
(dp1401
S'VERB'
p1402
F1.0
s(lp1403
(g53
I4
tp1404
atp1405
a(S'como'
p1406
(dp1407
S'ADV'
p1408
F0.11002
sS'CONJ'
p1409
F0.889979
s(lp1410
(g61
I8
tp1411
atp1412
a(S'el'
p1413
(dp1414
S'PRON'
p1415
F0.001142
sS'DET'
p1416
F0.998858
s(lp1417
tp1418
a(S'que'
p1419
(dp1420
g798
F0.0
sS'CONJ'
p1421
F1.0
s(lp1422
(g81
I9
tp1423
atp1424
a(S'estamos'
p1425
(dp1426
S'VERB'
p1427
F1.0
s(lp1428
(g291
I10
tp1429
atp1430
a(S'experimentando'
p1431
(dp1432
S'VERB'
p1433
F1.0
s(lp1434
(g88
I11
tp1435
atp1436
a(S'actualmente'
p1437
(dp1438
S'ADV'
p1439
F1.0
s(lp1440
(g95
I12
tp1441
atp1442
a(g98
(dp1443
g100
F1.0
s(lp1444
(g98
I13
tp1445
atp1446
a(S'la'
p1447
(dp1448
S'PRON'
p1449
F3.5e-05
sS'DET'
p1450
F0.999959
sS'NOUN'
p1451
F0.0
sg798
F5e-06
s(lp1452
(g110
I14
tp1453
atp1454
a(S'necesidad'
p1455
(dp1456
S'NOUN'
p1457
F1.0
s(lp1458
(g118
I15
tp1459
atp1460
a(S'de'
p1461
(dp1462
g798
F0.0
sS'CONJ'
p1463
F1.7e-05
sS'ADP'
p1464
F0.999983
s(lp1465
(g127
I16
tp1466
atp1467
a(S'una'
p1468
(dp1469
S'DET'
p1470
F1.0
s(lp1471
tp1472
a(S'ejecuci\xc3\xb3n'
p1473
(dp1474
S'NOUN'
p1475
F1.0
s(lp1476
(g141
I18
tp1477
atp1478
a(S'eficaz'
p1479
(dp1480
S'ADJ'
p1481
F1.0
s(lp1482
(g149
I17
tp1483
atp1484
a(S'de'
p1485
(dp1486
g798
F0.0
sS'CONJ'
p1487
F5.7e-05
sS'ADP'
p1488
F0.999943
s(lp1489
(g156
I19
tp1490
atp1491
a(S'la'
p1492
(dp1493
g798
F0.0
sS'PRON'
p1494
F0.0
sS'DET'
p1495
F0.999999
sS'NOUN'
p1496
F0.0
s(lp1497
tp1498
a(S'supervisi\xc3\xb3n'
p1499
(dp1500
S'NOUN'
p1501
F1.0
s(lp1502
(g170
I21
tp1503
atp1504
a(S'presupuestaria'
p1505
(dp1506
S'ADJ'
p1507
F1.0
s(lp1508
(g177
I20
tp1509
atp1510
a(S'en'
p1511
(dp1512
g798
F0.0
sS'CONJ'
p1513
F1e-06
sS'ADP'
p1514
F0.999999
s(lp1515
(g185
I22
tp1516
atp1517
a(S'la'
p1518
(dp1519
S'NOUN'
p1520
F0.0
sS'PRON'
p1521
F0.0
sS'DET'
p1522
F0.999999
sg798
F0.0
s(lp1523
(g194
I23
tp1524
atp1525
a(S'zona'
p1526
(dp1527
S'NOUN'
p1528
F1.0
s(lp1529
(g202
I25
tp1530
atp1531
a(S'del'
p1532
(dp1533
S'ADP'
p1534
F1.0
s(lp1535
tp1536
a(S'euro'
p1537
(dp1538
S'NOUN'
p1539
F1.0
s(lp1540
(g209
I24
tp1541
atp1542
a(S'constituye'
p1543
(dp1544
S'VERB'
p1545
F1.0
s(lp1546
(g217
I26
tp1547
atp1548
a(S'una'
p1549
(dp1550
S'DET'
p1551
F1.0
s(lp1552
(g239
I27
tp1553
atp1554
a(S'cuesti\xc3\xb3n'
p1555
(dp1556
S'NOUN'
p1557
F1.0
s(lp1558
tp1559
a(S'prioritaria'
p1560
(dp1561
S'ADJ'
p1562
F1.0
s(lp1563
(g224
I28
tp1564
atp1565
a(g100
(dp1566
g100
F1.0
s(lp1567
(g100
I29
tp1568
atp1569
as.