(dp0
S'fr'
p1
(lp2
(S'('
p3
(dp4
S'.'
p5
F1.0
s(lp6
(g3
I0
tp7
atp8
a(S'de'
p9
(dp10
S'ADP'
p11
F1.0
s(lp12
(S'de'
p13
I1
tp14
atp15
a(S')'
p16
(dp17
g5
F1.0
s(lp18
(g16
I2
tp19
atp20
a(S'monsieur'
p21
(dp22
S'NOUN'
p23
F1.0
s(lp24
(S'mr'
p25
I3
tp26
atp27
a(S'le'
p28
(dp29
S'PRON'
p30
F0.001679
sS'DET'
p31
F0.998321
s(lp32
tp33
a(S'pr\xc3\xa9sident'
p34
(dp35
S'VERB'
p36
F0.001425
sS'NOUN'
p37
F0.998575
s(lp38
(S'president'
p39
I4
tp40
atp41
a(S'onesta'
p42
(dp43
S'VERB'
p44
F0.006533
sS'NOUN'
p45
F0.993467
s(lp46
tp47
a(S','
p48
(dp49
g5
F1.0
s(lp50
(g48
I5
tp51
atp52
a(S'vous'
p53
(dp54
S'PRON'
p55
F1.0
s(lp56
(S'me'
p57
I9
tp58
atp59
a(S"m'"
p60
(dp61
S'ADJ'
p62
F0.000625
sS'VERB'
p63
F0.9973000000000002
sS'NOUN'
p64
F0.002077
s(lp65
(g57
I9
tp66
atp67
a(S'avez'
p68
(dp69
S'VERB'
p70
F1.0
s(lp71
(S'onesta'
p72
I7
tp73
atp74
a(S'demand\xc3\xa9'
p75
(dp76
S'VERB'
p77
F1.0
s(lp78
(S'asked'
p79
I8
tp80
atp81
a(S'de'
p82
(dp83
S'ADP'
p84
F1.0
s(lp85
(g57
I9
tp86
atp87
a(S'vous'
p88
(dp89
S'PRON'
p90
F1.0
s(lp91
tp92
a(S'dire'
p93
(dp94
S'VERB'
p95
F0.999926
sS'NOUN'
p96
F7.4e-05
s(lp97
(g57
I9
tp98
atp99
a(S'comment'
p100
(dp101
S'ADV'
p102
F0.998526
sS'NOUN'
p103
F0.001474
s(lp104
(S'how'
p105
I10
tp106
atp107
a(S"j'"
p108
(dp109
S'NOUN'
p110
F0.201738
sS'VERB'
p111
F0.016988000000000003
sS'ADJ'
p112
F0.781248
sS'X'
p113
F2.6e-05
s(lp114
(S'i'
p115
I11
tp116
atp117
a(S'interpr\xc3\xa8te'
p118
(dp119
S'VERB'
p120
F0.502248
sS'NOUN'
p121
F0.497752
s(lp122
(S'read'
p123
I12
tp124
atp125
a(S"l'"
p126
(dp127
S'NOUN'
p128
F0.060288
sS'VERB'
p129
F0.7470300000000003
sS'ADJ'
p130
F0.192683
s(lp131
tp132
a(S'article'
p133
(dp134
S'VERB'
p135
F0.255543
sS'NOUN'
p136
F0.744457
s(lp137
(S'rule'
p138
I13
tp139
atp140
a(S'149'
p141
(dp142
g113
F0.003618
sS'NUM'
p143
F0.996382
s(lp144
(S'149'
p145
I14
tp146
atp147
a(g48
(dp148
g5
F1.0
s(lp149
tp150
a(S'paragraphe'
p151
(dp152
S'NOUN'
p153
F1.0
s(lp154
(g3
I15
tp155
atp156
a(S'4'
p157
(dp158
g113
F0.011802
sS'NUM'
p159
F0.988198
s(lp160
(g157
I16
tp161
atp162
a(g5
(dp163
g5
F1.0
s(lp164
(g5
I18
tp165
atp166
asS'en'
p167
(lp168
(g3
(dp169
g5
F1.0
s(lp170
(g3
I0
tp171
atp172
a(g13
(dp173
g113
F0.959
sS'NOUN'
p174
F0.041
s(lp175
(g13
I1
tp176
atp177
a(g16
(dp178
g5
F1.0
s(lp179
(g16
I2
tp180
atp181
a(g25
(dp182
S'ADJ'
p183
F0.004952
sS'NOUN'
p184
F0.995048
s(lp185
(g25
I3
tp186
atp187
a(g39
(dp188
S'NOUN'
p189
F1.0
s(lp190
(g39
I4
tp191
atp192
a(g48
(dp193
g5
F1.0
s(lp194
(g48
I5
tp195
atp196
a(S'mr'
p197
(dp198
S'ADJ'
p199
F0.01405
sS'NOUN'
p200
F0.98595
s(lp201
(g197
I6
tp202
atp203
a(g72
(dp204
S'ADJ'
p205
F7e-06
sS'NOUN'
p206
F0.9999920000000001
s(lp207
(g72
I7
tp208
atp209
a(g79
(dp210
S'VERB'
p211
F0.999741
sS'ADJ'
p212
F0.000258
s(lp213
(g79
I8
tp214
atp215
a(g57
(dp216
S'PRON'
p217
F0.997943
sg113
F0.002057
s(lp218
(g57
I9
tp219
atp220
a(g105
(dp221
S'ADV'
p222
F0.999957
sS'NOUN'
p223
F2e-06
sS'ADJ'
p224
F4.1e-05
s(lp225
(g105
I10
tp226
atp227
a(g115
(dp228
g113
F6e-06
sS'NOUN'
p229
F0.9999939999999999
s(lp230
(g115
I11
tp231
atp232
a(g123
(dp233
S'VERB'
p234
F0.9071140000000001
sS'NOUN'
p235
F0.092887
s(lp236
(g123
I12
tp237
atp238
a(g138
(dp239
S'VERB'
p240
F0.308224
sS'NOUN'
p241
F0.691775
s(lp242
(g138
I13
tp243
atp244
a(g145
(dp245
S'ADV'
p246
F0.000699
sS'ADJ'
p247
F0.019709
sS'NUM'
p248
F0.945042
sS'NOUN'
p249
F0.034546
sg113
F5e-06
s(lp250
(g145
I14
tp251
atp252
a(g3
(dp253
g5
F1.0
s(lp254
(g3
I15
tp255
atp256
a(g157
(dp257
g113
F0.999756
sS'NUM'
p258
F0.000244
s(lp259
(g157
I16
tp260
atp261
a(g16
(dp262
g5
F1.0
s(lp263
(g16
I17
tp264
atp265
a(g5
(dp266
g5
F1.0
s(lp267
(g5
I18
tp268
atp269
asS'nl'
p270
(lp271
(g3
(dp272
g5
F1.0
s(lp273
(g3
I0
tp274
atp275
a(S'de'
p276
(dp277
S'DET'
p278
F1.0
s(lp279
(g13
I1
tp280
atp281
a(g16
(dp282
g5
F1.0
s(lp283
(g16
I2
tp284
atp285
a(S'mijnheer'
p286
(dp287
S'NOUN'
p288
F1.0
s(lp289
(g25
I3
tp290
atp291
a(S'de'
p292
(dp293
S'DET'
p294
F1.0
s(lp295
tp296
a(S'voorzitter'
p297
(dp298
S'NOUN'
p299
F1.0
s(lp300
(g39
I4
tp301
atp302
a(g48
(dp303
g5
F1.0
s(lp304
(g48
I5
tp305
atp306
a(S'de'
p307
(dp308
S'DET'
p309
F1.0
s(lp310
tp311
a(S'heer'
p312
(dp313
S'NOUN'
p314
F1.0
s(lp315
(g197
I6
tp316
atp317
a(S'onesta'
p318
(dp319
S'ADJ'
p320
F0.004146
sS'NOUN'
p321
F0.995854
s(lp322
(g72
I7
tp323
atp324
a(S'vroeg'
p325
(dp326
S'VERB'
p327
F0.999999
sS'ADJ'
p328
F1e-06
s(lp329
(g79
I8
tp330
atp331
a(S'me'
p332
(dp333
S'PRON'
p334
F1.0
s(lp335
(g57
I9
tp336
atp337
a(S'hoe'
p338
(dp339
S'ADV'
p340
F0.999998
sS'CONJ'
p341
F2e-06
s(lp342
(g105
I10
tp343
atp344
a(S'ik'
p345
(dp346
S'PRON'
p347
F0.999999
sS'NOUN'
p348
F1e-06
s(lp349
(g115
I11
tp350
atp351
a(S'artikel'
p352
(dp353
S'NOUN'
p354
F1.0
s(lp355
(g138
I13
tp356
atp357
a(S'149'
p358
(dp359
S'NUM'
p360
F1.0
s(lp361
(g145
I14
tp362
atp363
a(g48
(dp364
g5
F1.0
s(lp365
(g16
I17
tp366
atp367
a(S'lid'
p368
(dp369
S'NOUN'
p370
F1.0
s(lp371
(g3
I15
tp372
atp373
a(g157
(dp374
S'NUM'
p375
F1.0
s(lp376
(g157
I16
tp377
atp378
a(S'lees'
p379
(dp380
S'VERB'
p381
F1.0
s(lp382
(g123
I12
tp383
atp384
a(g5
(dp385
g5
F1.0
s(lp386
(g5
I18
tp387
atp388
asS'de'
p389
(lp390
(S'herr'
p391
(dp392
S'ADJ'
p393
F0.129581
sS'NOUN'
p394
F0.788996
s(lp395
(g25
I3
tp396
atp397
a(S'pr\xc3\xa4sident'
p398
(dp399
S'VERB'
p400
F0.06215
sS'NOUN'
p401
F0.924499
s(lp402
tp403
a(S'!'
p404
(dp405
g5
F1.0
s(lp406
(g39
I4
tp407
atp408
a(S'herr'
p409
(dp410
S'NOUN'
p411
F0.993072
s(lp412
(g197
I6
tp413
atp414
a(S'onesta'
p415
(dp416
S'NOUN'
p417
F0.995431
s(lp418
tp419
a(S'hat'
p420
(dp421
S'VERB'
p422
F1.0
s(lp423
(g72
I7
tp424
atp425
a(S'mich'
p426
(dp427
S'PRON'
p428
F1.0
s(lp429
(g57
I9
tp430
atp431
a(S'gefragt'
p432
(dp433
S'VERB'
p434
F1.0
s(lp435
(g79
I8
tp436
atp437
a(g48
(dp438
g5
F1.0
s(lp439
tp440
a(S'wie'
p441
(dp442
S'CONJ'
p443
F0.999988
s(lp444
(g105
I10
tp445
atp446
a(S'ich'
p447
(dp448
S'PRON'
p449
F1.0
s(lp450
(g115
I11
tp451
atp452
a(S'den'
p453
(dp454
S'PRON'
p455
F0.000271
sS'DET'
p456
F0.99965
s(lp457
tp458
a(S'artikel'
p459
(dp460
S'ADJ'
p461
F0.004634
sS'NOUN'
p462
F0.993725
s(lp463
(g138
I13
tp464
atp465
a(S'149'
p466
(dp467
S'NUM'
p468
F0.946167
sS'ADJ'
p469
F0.0536
s(lp470
(g145
I14
tp471
atp472
a(S'absatz'
p473
(dp474
S'ADJ'
p475
F0.000587
sS'NOUN'
p476
F0.999007
s(lp477
(g3
I15
tp478
atp479
a(g157
(dp480
S'NUM'
p481
F1.0
s(lp482
(g157
I16
tp483
atp484
a(S'lese'
p485
(dp486
S'VERB'
p487
F1.0
s(lp488
(g123
I12
tp489
atp490
a(g5
(dp491
g5
F1.0
s(lp492
(g5
I18
tp493
atp494
asS'it'
p495
(lp496
(g3
(dp497
g5
F1.0
s(lp498
(g3
I0
tp499
atp500
a(S'de'
p501
(dp502
S'NOUN'
p503
F1.0
s(lp504
(g13
I1
tp505
atp506
a(g16
(dp507
g5
F1.0
s(lp508
(g16
I2
tp509
atp510
a(S'signor'
p511
(dp512
S'NOUN'
p513
F1.0
s(lp514
(g25
I3
tp515
atp516
a(S'presidente'
p517
(dp518
S'NOUN'
p519
F1.0
s(lp520
(g39
I4
tp521
atp522
a(g48
(dp523
g5
F1.0
s(lp524
(g48
I5
tp525
atp526
a(S'lei'
p527
(dp528
S'PRON'
p529
F1.0
s(lp530
(g72
I7
tp531
atp532
a(S'mi'
p533
(dp534
S'PRON'
p535
F1.0
s(lp536
(g57
I9
tp537
atp538
a(S'ha'
p539
(dp540
S'VERB'
p541
F1.0
s(lp542
tp543
a(S'chiesto'
p544
(dp545
S'VERB'
p546
F0.999181
sS'ADJ'
p547
F0.000819
s(lp548
(g79
I8
tp549
atp550
a(S'il'
p551
(dp552
S'DET'
p553
F1.0
s(lp554
(g105
I10
tp555
atp556
a(S'modo'
p557
(dp558
S'NOUN'
p559
F1.0
s(lp560
tp561
a(S'in'
p562
(dp563
S'ADP'
p564
F1.0
s(lp565
(g105
I10
tp566
atp567
a(S'cui'
p568
(dp569
S'PRON'
p570
F1.0
s(lp571
(g115
I11
tp572
atp573
a(S'interpreto'
p574
(dp575
S'VERB'
p576
F1.0
s(lp577
(g123
I12
tp578
atp579
a(S"l'"
p580
(dp581
S'NOUN'
p582
F0.000971
sS'VERB'
p583
F0.9832770000000001
sS'ADJ'
p584
F0.015752
s(lp585
tp586
a(S'articolo'
p587
(dp588
S'VERB'
p589
F0.000199
sS'NOUN'
p590
F0.999801
s(lp591
(g138
I13
tp592
atp593
a(S'149'
p594
(dp595
S'NUM'
p596
F0.988173
sg5
F0.011827
s(lp597
(g145
I14
tp598
atp599
a(g48
(dp600
g5
F1.0
s(lp601
tp602
a(S'paragrafo'
p603
(dp604
S'VERB'
p605
F0.002015
sS'NOUN'
p606
F0.997985
s(lp607
(g3
I15
tp608
atp609
a(g157
(dp610
S'NUM'
p611
F0.979954
sg5
F0.020046
s(lp612
(g157
I16
tp613
atp614
a(g5
(dp615
g5
F1.0
s(lp616
(g5
I18
tp617
atp618
asS'sk'
p619
(lp620
(g3
(dp621
g5
F1.0
s(lp622
(g3
I0
tp623
atp624
a(S'de'
p625
(dp626
g113
F1.0
s(lp627
(g13
I1
tp628
atp629
a(g16
(dp630
g5
F1.0
s(lp631
(g16
I2
tp632
atp633
a(S'p\xc3\xa1n'
p634
(dp635
S'NOUN'
p636
F1.0
s(lp637
(g25
I3
tp638
atp639
a(S'predsedaj\xc3\xbaci'
p640
(dp641
S'VERB'
p642
F1.0
s(lp643
(g39
I4
tp644
atp645
a(g48
(dp646
g5
F1.0
s(lp647
(g48
I5
tp648
atp649
a(S'p\xc3\xa1n'
p650
(dp651
S'NOUN'
p652
F1.0
s(lp653
(g197
I6
tp654
atp655
a(S'onesta'
p656
(dp657
S'ADV'
p658
F0.000925
sS'VERB'
p659
F0.08216
sS'NOUN'
p660
F0.916913
s(lp661
(g72
I7
tp662
atp663
a(S'ma'
p664
(dp665
S'PRON'
p666
F0.999868
sS'VERB'
p667
F8e-06
sS'ADP'
p668
F9e-06
sg113
F0.000115
s(lp669
(g57
I9
tp670
atp671
a(S'po\xc5\xbeiadal'
p672
(dp673
S'VERB'
p674
F1.0
s(lp675
tp676
a(S'o'
p677
(dp678
g113
F7.3e-05
sS'CONJ'
p679
F4.4e-05
sS'NOUN'
p680
F6e-06
sS'ADP'
p681
F0.999876
s(lp682
(g79
I8
tp683
atp684
a(S'm\xc3\xb4j'
p685
(dp686
S'PRON'
p687
F1.0
s(lp688
tp689
a(S'v\xc3\xbdklad'
p690
(dp691
S'NOUN'
p692
F1.0
s(lp693
(g72
I7
tp694
atp695
a(S'\xc4\x8dl\xc3\xa1nku'
p696
(dp697
S'NOUN'
p698
F1.0
s(lp699
(g138
I13
tp700
atp701
a(S'149'
p702
(dp703
S'NUM'
p704
F1.0
s(lp705
(g145
I14
tp706
atp707
a(S'ods'
p708
(dp709
g113
F1.0
s(lp710
(g3
I15
tp711
atp712
a(g5
(dp713
g5
F1.0
s(lp714
(g5
I18
tp715
atp716
asS'pl'
p717
(lp718
(g3
(dp719
S'NOUN'
p720
F0.000436
sg5
F0.999564
s(lp721
(g3
I0
tp722
atp723
a(S'de'
p724
(dp725
g113
F0.041959
sS'NOUN'
p726
F0.922881
sS'PRT'
p727
F0.03516
s(lp728
(g13
I1
tp729
atp730
a(g16
(dp731
g5
F1.0
s(lp732
(g16
I2
tp733
atp734
a(S'panie'
p735
(dp736
S'NOUN'
p737
F1.0
s(lp738
(g25
I3
tp739
atp740
a(S'przewodnicz\xc4\x85cy'
p741
(dp742
S'VERB'
p743
F0.000602
sS'NOUN'
p744
F0.999398
s(lp745
tp746
a(g404
(dp747
g5
F1.0
s(lp748
(g39
I4
tp749
atp750
a(S'pan'
p751
(dp752
g113
F2e-06
sS'NOUN'
p753
F0.999998
s(lp754
(g197
I6
tp755
atp756
a(S'pose\xc5\x82'
p757
(dp758
S'NOUN'
p759
F1.0
s(lp760
tp761
a(S'onesta'
p762
(dp763
S'ADV'
p764
F0.000112
sS'ADJ'
p765
F0.00035
sS'VERB'
p766
F2.8e-05
sS'NOUN'
p767
F0.999509
s(lp768
(g72
I7
tp769
atp770
a(S'zapyta\xc5\x82'
p771
(dp772
S'VERB'
p773
F1.0
s(lp774
(g79
I8
tp775
atp776
a(S'mnie'
p777
(dp778
S'PRON'
p779
F0.999999
s(lp780
(g57
I9
tp781
atp782
a(g48
(dp783
g113
F1e-06
sg5
F0.999999
s(lp784
tp785
a(S'w'
p786
(dp787
S'ADJ'
p788
F0.0
sg113
F4.8e-05
sS'NOUN'
p789
F8.2e-05
sS'ADP'
p790
F0.99987
s(lp791
(g105
I10
tp792
atp793
a(S'jaki'
p794
(dp795
S'ADJ'
p796
F0.999999
s(lp797
tp798
a(S'spos\xc3\xb3b'
p799
(dp800
S'ADJ'
p801
F9.5e-05
sS'NOUN'
p802
F0.999905
s(lp803
(g105
I10
tp804
atp805
a(S'odczytuj\xc4\x99'
p806
(dp807
S'ADV'
p808
F0.000324
sS'ADJ'
p809
F0.299086
sS'VERB'
p810
F0.11272
sS'NOUN'
p811
F0.5878699999999999
s(lp812
(g123
I12
tp813
atp814
a(S'art'
p815
(dp816
S'NOUN'
p817
F1.0
s(lp818
(g138
I13
tp819
atp820
a(g5
(dp821
g5
F1.0
s(lp822
(g5
I18
tp823
atp824
asS'sl'
p825
(lp826
(g3
(dp827
g5
F1.0
s(lp828
(g3
I0
tp829
atp830
a(S'de'
p831
(dp832
g113
F0.999975
sS'VERB'
p833
F2.5e-05
s(lp834
(g13
I1
tp835
atp836
a(g16
(dp837
g5
F1.0
s(lp838
(g16
I2
tp839
atp840
a(S'gospod'
p841
(dp842
S'NOUN'
p843
F1.0
s(lp844
(g25
I3
tp845
atp846
a(S'predsednik'
p847
(dp848
S'NOUN'
p849
F1.0
s(lp850
(g39
I4
tp851
atp852
a(g48
(dp853
g5
F1.0
s(lp854
(g48
I5
tp855
atp856
a(S'gospod'
p857
(dp858
S'NOUN'
p859
F1.0
s(lp860
(g197
I6
tp861
atp862
a(S'onesta'
p863
(dp864
S'NOUN'
p865
F0.11431699999999997
sS'ADP'
p866
F0.000758
sS'PRON'
p867
F0.000316
sS'VERB'
p868
F0.8772260000000001
sS'NUM'
p869
F0.00017
sS'ADJ'
p870
F0.007213999999999999
s(lp871
(g72
I7
tp872
atp873
a(S'me'
p874
(dp875
S'PRON'
p876
F0.999905
sg113
F9.6e-05
s(lp877
(g57
I9
tp878
atp879
a(S'je'
p880
(dp881
S'PRON'
p882
F7e-06
sS'VERB'
p883
F0.999993
sg113
F0.0
s(lp884
tp885
a(S'vpra\xc5\xa1al'
p886
(dp887
S'VERB'
p888
F1.0
s(lp889
(g79
I8
tp890
atp891
a(g48
(dp892
g5
F1.0
s(lp893
tp894
a(S'kako'
p895
(dp896
S'ADV'
p897
F0.883703
sS'PRON'
p898
F0.116296
s(lp899
(g105
I10
tp900
atp901
a(S'si'
p902
(dp903
S'PRON'
p904
F0.991236
sS'VERB'
p905
F0.008764
s(lp906
tp907
a(S'razlagam'
p908
(dp909
S'VERB'
p910
F1.0
s(lp911
(g123
I12
tp912
atp913
a(S'\xc4\x8dlen'
p914
(dp915
S'NOUN'
p916
F1.0
s(lp917
(g138
I13
tp918
atp919
a(S'149'
p920
(dp921
S'NUM'
p922
F1.0
s(lp923
(g145
I14
tp924
atp925
a(g3
(dp926
g5
F1.0
s(lp927
(g3
I15
tp928
atp929
a(g157
(dp930
S'NUM'
p931
F1.0
s(lp932
(g157
I16
tp933
atp934
a(g16
(dp935
g5
F1.0
s(lp936
(g16
I17
tp937
atp938
a(g5
(dp939
g5
F1.0
s(lp940
(g5
I18
tp941
atp942
asS'es'
p943
(lp944
(g3
(dp945
g5
F1.0
s(lp946
(g3
I0
tp947
atp948
a(S'de'
p949
(dp950
g113
F0.393369
sS'CONJ'
p951
F0.00278
sS'ADP'
p952
F0.603851
s(lp953
(g13
I1
tp954
atp955
a(g16
(dp956
g5
F1.0
s(lp957
(g16
I2
tp958
atp959
a(S'se\xc3\xb1or'
p960
(dp961
S'NOUN'
p962
F1.0
s(lp963
(g25
I3
tp964
atp965
a(S'presidente'
p966
(dp967
S'NOUN'
p968
F1.0
s(lp969
(g39
I4
tp970
atp971
a(g48
(dp972
g5
F1.0
s(lp973
(g48
I5
tp974
atp975
a(S'el'
p976
(dp977
S'PRON'
p978
F1e-05
sS'DET'
p979
F0.99999
s(lp980
tp981
a(S'se\xc3\xb1or'
p982
(dp983
S'NOUN'
p984
F1.0
s(lp985
(g197
I6
tp986
atp987
a(S'onesta'
p988
(dp989
S'ADJ'
p990
F1.0
s(lp991
(g72
I7
tp992
atp993
a(S'me'
p994
(dp995
S'PRON'
p996
F0.999607
sS'NOUN'
p997
F0.000393
s(lp998
(g57
I9
tp999
atp1000
a(S'ha'
p1001
(dp1002
S'VERB'
p1003
F1.0
s(lp1004
tp1005
a(S'preguntado'
p1006
(dp1007
S'VERB'
p1008
F1.0
s(lp1009
(g79
I8
tp1010
atp1011
a(S'c\xc3\xb3mo'
p1012
(dp1013
S'ADV'
p1014
F0.999969
sS'PRON'
p1015
F3.1e-05
s(lp1016
(g105
I10
tp1017
atp1018
a(S'interpreto'
p1019
(dp1020
S'VERB'
p1021
F1.0
s(lp1022
(g123
I12
tp1023
atp1024
a(S'el'
p1025
(dp1026
S'PRON'
p1027
F1e-06
sS'DET'
p1028
F0.999999
s(lp1029
tp1030
a(S'art\xc3\xadculo'
p1031
(dp1032
S'NOUN'
p1033
F1.0
s(lp1034
(g138
I13
tp1035
atp1036
a(S'149'
p1037
(dp1038
g113
F0.57531
sS'NUM'
p1039
F0.42469
s(lp1040
(g145
I14
tp1041
atp1042
a(g48
(dp1043
g5
F1.0
s(lp1044
tp1045
a(S'apartado'
p1046
(dp1047
S'ADJ'
p1048
F0.013383
sS'NOUN'
p1049
F0.986617
s(lp1050
(g3
I15
tp1051
atp1052
a(g157
(dp1053
S'NUM'
p1054
F1.0
s(lp1055
(g157
I16
tp1056
atp1057
a(g5
(dp1058
g5
F1.0
s(lp1059
(g5
I18
tp1060
atp1061
as.