(dp0
S'fr'
p1
(lp2
(S'la'
p3
(dp4
S'PRON'
p5
F8.2e-05
sS'DET'
p6
F0.999918
sS'NOUN'
p7
F0.0
s(lp8
(S'the'
p9
I5
tp10
atp11
a(S'propagande'
p12
(dp13
S'NOUN'
p14
F1.0
s(lp15
(S'propaganda'
p16
I6
tp17
atp18
a(S'vantant'
p19
(dp20
S'VERB'
p21
F1.0
s(lp22
tp23
a(S'les'
p24
(dp25
S'PRON'
p26
F3.2e-05
sS'DET'
p27
F0.999947
sS'ADP'
p28
F2.1e-05
s(lp29
(S'the'
p30
I1
tp31
atp32
a(S'm\xc3\xa9rites'
p33
(dp34
S'VERB'
p35
F7.599999999999999e-05
sS'NOUN'
p36
F0.999924
s(lp37
(g16
I6
tp38
atp39
a(S"d'"
p40
(dp41
S'NOUN'
p42
F0.032446
sS'VERB'
p43
F0.694021
sS'ADJ'
p44
F0.273532
s(lp45
(S'about'
p46
I7
tp47
atp48
a(S'un'
p49
(dp50
S'NOUN'
p51
F0.000101
sS'NUM'
p52
F0.025361
sS'DET'
p53
F0.974538
s(lp54
(S'a'
p55
I8
tp56
atp57
a(S'otan'
p58
(dp59
S'ADJ'
p60
F0.008414
sS'NOUN'
p61
F0.991586
s(lp62
tp63
a(S'adouci'
p64
(dp65
S'VERB'
p66
F1.0
s(lp67
(S'soft'
p68
I9
tp69
atp70
a(g55
(dp71
S'VERB'
p72
F1.0
s(lp73
(S'has'
p74
I11
tp75
atp76
a(S'par'
p77
(dp78
S'NOUN'
p79
F0.00011
sS'ADP'
p80
F0.99989
s(lp81
(S'other'
p82
I2
tp83
atp84
a(S'contre'
p85
(dp86
S'VERB'
p87
F0.078862
sS'NOUN'
p88
F0.534554
sS'ADP'
p89
F0.386584
s(lp90
(S'hand'
p91
I3
tp92
atp93
a(S'connu'
p94
(dp95
S'VERB'
p96
F0.60485
sS'ADJ'
p97
F0.39515
s(lp98
(S'been'
p99
I12
tp100
atp101
a(S'un'
p102
(dp103
S'NOUN'
p104
F0.000413
sS'NUM'
p105
F0.040048
sS'DET'
p106
F0.959539
s(lp107
(g55
I13
tp108
atp109
a(S'succ\xc3\xa8s'
p110
(dp111
S'NOUN'
p112
F1.0
s(lp113
(S'success'
p114
I14
tp115
atp116
a(S'consid\xc3\xa9rable'
p117
(dp118
S'ADJ'
p119
F1.0
s(lp120
(S'nato'
p121
I10
tp122
atp123
a(S'.'
p124
(dp125
g124
F1.0
s(lp126
(g124
I15
tp127
atp128
asS'en'
p129
(lp130
(S'on'
p131
(dp132
S'ADV'
p133
F0.003818
sS'NOUN'
p134
F0.0
sS'ADJ'
p135
F0.0
sS'ADP'
p136
F0.996182
sS'PRT'
p137
F0.0
s(lp138
(g131
I0
tp139
atp140
a(g30
(dp141
S'NOUN'
p142
F1e-06
sS'DET'
p143
F0.999999
s(lp144
(g30
I1
tp145
atp146
a(g82
(dp147
S'ADV'
p148
F1e-06
sS'NOUN'
p149
F2.4e-05
sS'ADJ'
p150
F0.999976
s(lp151
(g82
I2
tp152
atp153
a(g91
(dp154
S'ADV'
p155
F0.000366
sS'VERB'
p156
F1.3e-05
sS'NOUN'
p157
F0.999621
s(lp158
(g91
I3
tp159
atp160
a(S','
p161
(dp162
g124
F1.0
s(lp163
(g161
I4
tp164
atp165
a(g9
(dp166
S'NOUN'
p167
F4e-06
sS'DET'
p168
F0.999996
s(lp169
(g9
I5
tp170
atp171
a(g16
(dp172
S'NOUN'
p173
F1.0
s(lp174
(g16
I6
tp175
atp176
a(g46
(dp177
S'ADV'
p178
F0.059355
sS'ADP'
p179
F0.940645
s(lp180
(g46
I7
tp181
atp182
a(g55
(dp183
S'NOUN'
p184
F0.0
sS'DET'
p185
F1.0
s(lp186
(g55
I8
tp187
atp188
a(g68
(dp189
S'ADV'
p190
F0.000219
sS'NOUN'
p191
F0.001585
sS'ADJ'
p192
F0.998196
s(lp193
(g68
I9
tp194
atp195
a(g121
(dp196
S'ADV'
p197
F0.00157
sS'ADJ'
p198
F6e-06
sS'VERB'
p199
F0.0
sS'NOUN'
p200
F0.998423
s(lp201
(g121
I10
tp202
atp203
a(g74
(dp204
S'VERB'
p205
F1.0
s(lp206
(g74
I11
tp207
atp208
a(g99
(dp209
S'VERB'
p210
F1.0
s(lp211
(g99
I12
tp212
atp213
a(g55
(dp214
S'NOUN'
p215
F0.0
sS'DET'
p216
F1.0
s(lp217
(g55
I13
tp218
atp219
a(g114
(dp220
S'NOUN'
p221
F1.0
s(lp222
(g114
I14
tp223
atp224
a(g124
(dp225
g124
F1.0
s(lp226
(g124
I15
tp227
atp228
asS'nl'
p229
(lp230
(S'de'
p231
(dp232
S'DET'
p233
F1.0
s(lp234
(g9
I5
tp235
atp236
a(S'propaganda'
p237
(dp238
S'NOUN'
p239
F1.0
s(lp240
(g16
I6
tp241
atp242
a(S'over'
p243
(dp244
S'ADV'
p245
F0.015327
sS'ADP'
p246
F0.984673
s(lp247
(g46
I7
tp248
atp249
a(S'een'
p250
(dp251
S'ADJ'
p252
F1e-06
sS'PRON'
p253
F0.000524
sS'NUM'
p254
F1e-06
sS'DET'
p255
F0.999474
s(lp256
(g55
I8
tp257
atp258
a(S'softe'
p259
(dp260
S'NOUN'
p261
F0.004754
sS'ADJ'
p262
F0.995246
s(lp263
(g68
I9
tp264
atp265
a(S'navo'
p266
(dp267
S'ADJ'
p268
F0.034927
sS'NOUN'
p269
F0.9650719999999999
s(lp270
(g121
I10
tp271
atp272
a(S'is'
p273
(dp274
S'VERB'
p275
F1.0
s(lp276
(g74
I11
tp277
atp278
a(S'daarentegen'
p279
(dp280
S'ADV'
p281
F1.0
s(lp282
(g91
I3
tp283
atp284
a(S'een'
p285
(dp286
S'ADJ'
p287
F1e-06
sS'PRON'
p288
F5e-06
sS'NUM'
p289
F0.0
sS'DET'
p290
F0.999995
s(lp291
(g55
I13
tp292
atp293
a(S'succes'
p294
(dp295
S'NOUN'
p296
F1.0
s(lp297
(g114
I14
tp298
atp299
a(g124
(dp300
g124
F1.0
s(lp301
(g124
I15
tp302
atp303
asS'de'
p304
(lp305
(S'andererseits'
p306
(dp307
S'ADV'
p308
F1.0
s(lp309
(g91
I3
tp310
atp311
a(S'war'
p312
(dp313
S'VERB'
p314
F1.0
s(lp315
(g161
I4
tp316
atp317
a(S'die'
p318
(dp319
S'PRON'
p320
F0.000666
sS'DET'
p321
F0.999333
s(lp322
(g9
I5
tp323
atp324
a(S'propaganda'
p325
(dp326
S'NOUN'
p327
F0.999724
s(lp328
(g16
I6
tp329
atp330
a(S'\xc3\xbcber'
p331
(dp332
S'PRT'
p333
F9e-05
sS'ADP'
p334
F0.99991
s(lp335
(g46
I7
tp336
atp337
a(S'eine'
p338
(dp339
S'PRON'
p340
F0.001197
sS'DET'
p341
F0.998738
s(lp342
(g55
I8
tp343
atp344
a(S'sanfte'
p345
(dp346
S'ADJ'
p347
F1.0
s(lp348
(g68
I9
tp349
atp350
a(S'nato'
p351
(dp352
S'ADJ'
p353
F0.044683
sS'NOUN'
p354
F0.906309
s(lp355
(g121
I10
tp356
atp357
a(S'erfolgreich'
p358
(dp359
S'ADJ'
p360
F1.0
s(lp361
(g114
I14
tp362
atp363
a(g124
(dp364
g124
F1.0
s(lp365
(g124
I15
tp366
atp367
asS'it'
p368
(lp369
(S"d'"
p370
(dp371
S'X'
p372
F1.0
s(lp373
tp374
a(S'altra'
p375
(dp376
S'PRON'
p377
F0.551475
sS'ADJ'
p378
F0.448525
s(lp379
(g82
I2
tp380
atp381
a(S'parte'
p382
(dp383
S'VERB'
p384
F0.000174
sS'NOUN'
p385
F0.999826
s(lp386
(g91
I3
tp387
atp388
a(g161
(dp389
g124
F1.0
s(lp390
(g161
I4
tp391
atp392
a(S'la'
p393
(dp394
S'PRON'
p395
F0.025388
sS'DET'
p396
F0.974612
s(lp397
(g9
I5
tp398
atp399
a(S'propaganda'
p400
(dp401
S'VERB'
p402
F0.029025
sS'NOUN'
p403
F0.970975
s(lp404
tp405
a(S'che'
p406
(dp407
S'PRON'
p408
F0.976187
sS'CONJ'
p409
F0.022586
sS'ADJ'
p410
F0.001227
s(lp411
tp412
a(S'dipingeva'
p413
(dp414
S'VERB'
p415
F1.0
s(lp416
(g16
I6
tp417
atp418
a(S'una'
p419
(dp420
S'PRON'
p421
F0.000189
sS'DEF'
p422
F0.999811
s(lp423
(g55
I8
tp424
atp425
a(S'nato'
p426
(dp427
S'ADJ'
p428
F0.118771
sS'VERB'
p429
F0.006006
sS'NOUN'
p430
F0.875223
s(lp431
(g121
I10
tp432
atp433
a(S'soft'
p434
(dp435
S'ADJ'
p436
F1.0
s(lp437
(g68
I9
tp438
atp439
a(S'\xc3\xa8'
p440
(dp441
S'VERB'
p442
F1.0
s(lp443
(g74
I11
tp444
atp445
a(S'stata'
p446
(dp447
S'VERB'
p448
F1.0
s(lp449
(g99
I12
tp450
atp451
a(S'un'
p452
(dp453
S'PRON'
p454
F8.4e-05
sS'DEF'
p455
F0.999916
s(lp456
(g55
I13
tp457
atp458
a(S'grande'
p459
(dp460
S'NOUN'
p461
F0.005114
sS'ADJ'
p462
F0.994886
s(lp463
tp464
a(S'successo'
p465
(dp466
S'VERB'
p467
F0.058603
sS'NOUN'
p468
F0.941397
s(lp469
(g114
I14
tp470
atp471
a(g124
(dp472
g124
F1.0
s(lp473
(g124
I15
tp474
atp475
asS'sk'
p476
(lp477
(S'na'
p478
(dp479
g372
F4.3e-05
sS'CONJ'
p480
F3.1e-05
sS'ADP'
p481
F0.999925
sS'PRT'
p482
F0.0
s(lp483
(g131
I0
tp484
atp485
a(S'druhej'
p486
(dp487
S'NUM'
p488
F1.0
s(lp489
(g82
I2
tp490
atp491
a(S'strane'
p492
(dp493
S'NOUN'
p494
F1.0
s(lp495
(g91
I3
tp496
atp497
a(g161
(dp498
g124
F1.0
s(lp499
(g161
I4
tp500
atp501
a(S'propaganda'
p502
(dp503
S'NOUN'
p504
F1.0
s(lp505
(g16
I6
tp506
atp507
a(S'o'
p508
(dp509
g372
F0.00042
sS'CONJ'
p510
F6.2e-05
sS'NOUN'
p511
F2.1000000000000002e-05
sS'ADP'
p512
F0.999498
s(lp513
(g46
I7
tp514
atp515
a(S'miernej'
p516
(dp517
S'ADJ'
p518
F1.0
s(lp519
(g68
I9
tp520
atp521
a(S'nato'
p522
(dp523
S'ADV'
p524
F0.865643
sS'PRON'
p525
F0.108662
sg372
F0.025696
s(lp526
(g121
I10
tp527
atp528
a(S'bola'
p529
(dp530
S'VERB'
p531
F1.0
s(lp532
(g99
I12
tp533
atp534
a(S've\xc4\xbemi'
p535
(dp536
S'ADV'
p537
F1.0
s(lp538
(g55
I13
tp539
atp540
a(S'\xc3\xbaspe\xc5\xa1n\xc3\xa1'
p541
(dp542
S'ADJ'
p543
F1.0
s(lp544
(g114
I14
tp545
atp546
a(g124
(dp547
g124
F1.0
s(lp548
(g124
I15
tp549
atp550
asS'pl'
p551
(lp552
(S'z'
p553
(dp554
g372
F4e-06
sS'VERB'
p555
F9e-06
sS'NOUN'
p556
F7.3e-05
sS'ADP'
p557
F0.999914
sS'PRT'
p558
F0.0
s(lp559
(g131
I0
tp560
atp561
a(S'drugiej'
p562
(dp563
S'NOUN'
p564
F0.000607
sS'ADJ'
p565
F0.999393
s(lp566
(g82
I2
tp567
atp568
a(S'strony'
p569
(dp570
S'NOUN'
p571
F0.999999
s(lp572
(g91
I3
tp573
atp574
a(S'propaganda'
p575
(dp576
S'NOUN'
p577
F1.0
s(lp578
(g16
I6
tp579
atp580
a(S'dotycz\xc4\x85ca'
p581
(dp582
S'VERB'
p583
F1.0
s(lp584
(g46
I7
tp585
atp586
a(S'\xc5\x82agodnego'
p587
(dp588
S'ADJ'
p589
F1.0
s(lp590
(g68
I9
tp591
atp592
a(S'nato'
p593
(dp594
S'NOUN'
p595
F1.0
s(lp596
(g121
I10
tp597
atp598
a(S'okaza\xc5\x82a'
p599
(dp600
S'VERB'
p601
F0.998539
sS'ADJ'
p602
F0.001461
s(lp603
(g74
I11
tp604
atp605
a(S'si\xc4\x99'
p606
(dp607
S'PRT'
p608
F1.0
s(lp609
(g55
I13
tp610
atp611
a(S'sukcesem'
p612
(dp613
S'NOUN'
p614
F1.0
s(lp615
(g114
I14
tp616
atp617
a(g124
(dp618
g124
F1.0
s(lp619
(g124
I15
tp620
atp621
asS'sl'
p622
(lp623
(S'po'
p624
(dp625
g372
F2e-06
sS'ADP'
p626
F0.999997
s(lp627
(g131
I0
tp628
atp629
a(S'drugi'
p630
(dp631
S'NUM'
p632
F1.000001
s(lp633
(g82
I2
tp634
atp635
a(S'strani'
p636
(dp637
S'NOUN'
p638
F1.0000010000000001
s(lp639
tp640
a(S'pa'
p641
(dp642
g372
F1.4e-05
sS'CONJ'
p643
F0.999986
s(lp644
(g91
I3
tp645
atp646
a(S'\xc5\xbeanje'
p647
(dp648
S'ADV'
p649
F0.006176
sS'NOUN'
p650
F0.162436
sS'VERB'
p651
F0.00941
sS'ADJ'
p652
F0.8219769999999998
s(lp653
(g16
I6
tp654
atp655
a(S'uspehe'
p656
(dp657
S'NOUN'
p658
F1.0
s(lp659
tp660
a(S'propaganda'
p661
(dp662
S'ADV'
p663
F0.012493
sS'ADJ'
p664
F0.00039
sS'VERB'
p665
F0.06366
sS'NOUN'
p666
F0.9234140000000001
sg372
F4.1e-05
s(lp667
(g16
I6
tp668
atp669
a(g508
(dp670
S'NOUN'
p671
F3e-06
sS'ADP'
p672
F0.999997
s(lp673
(g46
I7
tp674
atp675
a(S'mehkem'
p676
(dp677
S'ADV'
p678
F0.0
sS'NOUN'
p679
F0.00014700000000000005
sS'VERB'
p680
F0.0
sS'ADJ'
p681
F0.999852
s(lp682
(g68
I9
tp683
atp684
a(S'natu'
p685
(dp686
S'ADV'
p687
F1e-06
sS'ADJ'
p688
F9e-06
sS'VERB'
p689
F2.8000000000000006e-05
sS'NOUN'
p690
F0.9999649999999998
s(lp691
(g121
I10
tp692
atp693
a(g124
(dp694
g124
F1.0
s(lp695
(g124
I15
tp696
atp697
asS'es'
p698
(lp699
(S'por'
p700
(dp701
S'ADP'
p702
F1.0
s(lp703
(g131
I0
tp704
atp705
a(S'otra'
p706
(dp707
S'ADJ'
p708
F1.0
s(lp709
(g82
I2
tp710
atp711
a(S'parte'
p712
(dp713
S'VERB'
p714
F0.000243
sS'NOUN'
p715
F0.999757
s(lp716
(g91
I3
tp717
atp718
a(g161
(dp719
g124
F1.0
s(lp720
(g161
I4
tp721
atp722
a(S'la'
p723
(dp724
S'PRON'
p725
F3.5e-05
sS'DET'
p726
F0.999959
sS'NOUN'
p727
F0.0
sg372
F5e-06
s(lp728
(g9
I5
tp729
atp730
a(S'propaganda'
p731
(dp732
S'NOUN'
p733
F1.0
s(lp734
(g16
I6
tp735
atp736
a(S'de'
p737
(dp738
g372
F0.0
sS'CONJ'
p739
F1.7e-05
sS'ADP'
p740
F0.999983
s(lp741
(g46
I7
tp742
atp743
a(S'una'
p744
(dp745
S'DET'
p746
F1.0
s(lp747
(g55
I8
tp748
atp749
a(S'otan'
p750
(dp751
S'VERB'
p752
F1.0
s(lp753
(g121
I10
tp754
atp755
a(S'flexible'
p756
(dp757
S'ADJ'
p758
F1.0
s(lp759
(g68
I9
tp760
atp761
a(S'ha'
p762
(dp763
S'VERB'
p764
F1.0
s(lp765
(g74
I11
tp766
atp767
a(S'sido'
p768
(dp769
S'VERB'
p770
F1.0
s(lp771
(g99
I12
tp772
atp773
a(S'un'
p774
(dp775
g372
F5.6e-05
sS'DET'
p776
F0.999944
s(lp777
(g55
I13
tp778
atp779
a(S'\xc3\xa9xito'
p780
(dp781
S'NOUN'
p782
F1.0
s(lp783
(g114
I14
tp784
atp785
a(g124
(dp786
g124
F1.0
s(lp787
(g124
I15
tp788
atp789
as.