(dp0
S'fr'
p1
(lp2
(S'nous'
p3
(dp4
S'PRON'
p5
F1.0
s(lp6
(S'our'
p7
I4
tp8
atp9
a(S'disposons'
p10
(dp11
S'VERB'
p12
F1.0
s(lp13
(S'disposal'
p14
I5
tp15
atp16
a(S"d'"
p17
(dp18
S'NOUN'
p19
F0.087886
sS'VERB'
p20
F0.7995690000000001
sS'ADJ'
p21
F0.112546
s(lp22
(S'at'
p23
I3
tp24
atp25
a(S'un'
p26
(dp27
S'NOUN'
p28
F0.004922
sS'NUM'
p29
F0.005318
sS'DET'
p30
F0.989761
s(lp31
tp32
a(S'autre'
p33
(dp34
S'ADJ'
p35
F1.0
s(lp36
(S'another'
p37
I0
tp38
atp39
a(S'moyen'
p40
(dp41
S'ADJ'
p42
F0.01604
sS'NOUN'
p43
F0.98396
s(lp44
(S'means'
p45
I2
tp46
atp47
a(S'important'
p48
(dp49
S'VERB'
p50
F0.060631
sS'ADJ'
p51
F0.939369
s(lp52
(S'important'
p53
I1
tp54
atp55
a(S':'
p56
(dp57
S'.'
p58
F1.0
s(lp59
(S'is'
p60
I6
tp61
atp62
a(S"l'"
p63
(dp64
S'ADJ'
p65
F0.13429
sS'VERB'
p66
F0.638201
sS'NOUN'
p67
F0.227509
s(lp68
(S'the'
p69
I7
tp70
atp71
a(S'\xc3\xa9tiquetage'
p72
(dp73
S'NOUN'
p74
F1.0
s(lp75
tp76
a(S'\xc3\xa9nerg\xc3\xa9tique'
p77
(dp78
S'NOUN'
p79
F0.017216
sS'ADJ'
p80
F0.982784
s(lp81
(S'energy'
p82
I8
tp83
atp84
a(S'de'
p85
(dp86
S'ADP'
p87
F1.0
s(lp88
(S'of'
p89
I10
tp90
atp91
a(S"l'"
p92
(dp93
S'ADJ'
p94
F0.160704
sS'VERB'
p95
F0.06480800000000002
sS'NOUN'
p96
F0.774488
s(lp97
(S'labelling'
p98
I9
tp99
atp100
a(S'\xc3\xa9quipement'
p101
(dp102
S'NOUN'
p103
F1.0
s(lp104
(S'equipment'
p105
I11
tp106
atp107
a(g58
(dp108
g58
F1.0
s(lp109
(g58
I12
tp110
atp111
asS'en'
p112
(lp113
(g37
(dp114
S'DET'
p115
F1.0
s(lp116
(g37
I0
tp117
atp118
a(g53
(dp119
S'ADJ'
p120
F1.0
s(lp121
(g53
I1
tp122
atp123
a(g45
(dp124
S'VERB'
p125
F0.005849
sS'NOUN'
p126
F0.994151
s(lp127
(g45
I2
tp128
atp129
a(g23
(dp130
S'NOUN'
p131
F0.0
sS'ADP'
p132
F1.0
s(lp133
(g23
I3
tp134
atp135
a(g7
(dp136
S'PRON'
p137
F1.0
s(lp138
(g7
I4
tp139
atp140
a(g14
(dp141
S'NOUN'
p142
F1.0
s(lp143
(g14
I5
tp144
atp145
a(g60
(dp146
S'VERB'
p147
F1.0
s(lp148
(g60
I6
tp149
atp150
a(g69
(dp151
S'NOUN'
p152
F1e-06
sS'DET'
p153
F0.999999
s(lp154
(g69
I7
tp155
atp156
a(g82
(dp157
S'NOUN'
p158
F1.0
s(lp159
(g82
I8
tp160
atp161
a(g98
(dp162
S'VERB'
p163
F1.0
s(lp164
(g98
I9
tp165
atp166
a(g89
(dp167
S'ADP'
p168
F1.0
s(lp169
(g89
I10
tp170
atp171
a(g105
(dp172
S'NOUN'
p173
F1.0
s(lp174
(g105
I11
tp175
atp176
a(g58
(dp177
g58
F1.0
s(lp178
(g58
I12
tp179
atp180
asS'nl'
p181
(lp182
(S'er'
p183
(dp184
S'ADV'
p185
F1.0
s(lp186
(g23
I3
tp187
atp188
a(S'staat'
p189
(dp190
S'VERB'
p191
F0.978739
sS'NOUN'
p192
F0.021261
s(lp193
(g14
I5
tp194
atp195
a(S'ons'
p196
(dp197
S'PRON'
p198
F0.999919
sS'NOUN'
p199
F8e-05
s(lp200
(g7
I4
tp201
atp202
a(S'ook'
p203
(dp204
S'ADV'
p205
F1.0
s(lp206
(g37
I0
tp207
atp208
a(S'nog'
p209
(dp210
S'ADV'
p211
F1.0
s(lp212
(g37
I0
tp213
atp214
a(S'een'
p215
(dp216
S'ADJ'
p217
F8e-06
sS'PRON'
p218
F0.000754
sS'NUM'
p219
F2e-06
sS'DET'
p220
F0.999236
s(lp221
tp222
a(S'ander'
p223
(dp224
S'PRON'
p225
F0.0
sS'ADJ'
p226
F1.0
s(lp227
(g37
I0
tp228
atp229
a(S'middel'
p230
(dp231
S'NOUN'
p232
F1.0
s(lp233
(g45
I2
tp234
atp235
a(S'ter'
p236
(dp237
S'ADV'
p238
F1.8e-05
sS'ADP'
p239
F0.999982
s(lp240
tp241
a(S'beschikking'
p242
(dp243
S'NOUN'
p244
F1.0
s(lp245
(g14
I5
tp246
atp247
a(S'en'
p248
(dp249
S'CONJ'
p250
F1.0
s(lp251
tp252
a(S'wel'
p253
(dp254
S'ADV'
p255
F0.999938
sS'X'
p256
F0.0
sS'VERB'
p257
F5.7e-05
sS'NOUN'
p258
F6e-06
s(lp259
(g60
I6
tp260
atp261
a(S'energie-etikettering'
p262
(dp263
S'NOUN'
p264
F1.0
s(lp265
(g98
I9
tp266
atp267
a(g58
(dp268
g58
F1.0
s(lp269
(g58
I12
tp270
atp271
asS'de'
p272
(lp273
(S'ein'
p274
(dp275
S'NUM'
p276
F0.000157
sS'DET'
p277
F0.999782
s(lp278
tp279
a(S'weiteres'
p280
(dp281
S'ADJ'
p282
F1.0
s(lp283
(g37
I0
tp284
atp285
a(S'wichtiges'
p286
(dp287
S'ADJ'
p288
F1.0
s(lp289
(g53
I1
tp290
atp291
a(S','
p292
(dp293
g58
F1.0
s(lp294
tp295
a(S'verf\xc3\xbcgbares'
p296
(dp297
S'ADJ'
p298
F1.0
s(lp299
(g14
I5
tp300
atp301
a(S'mittel'
p302
(dp303
S'VERB'
p304
F1.0
s(lp305
(g45
I2
tp306
atp307
a(S'ist'
p308
(dp309
S'VERB'
p310
F1.0
s(lp311
(g60
I6
tp312
atp313
a(S'die'
p314
(dp315
S'PRON'
p316
F0.002167
sS'DET'
p317
F0.997831
s(lp318
(g69
I7
tp319
atp320
a(S'energiekennzeichnung'
p321
(dp322
S'ADJ'
p323
F0.023011
sS'NOUN'
p324
F0.957012
s(lp325
(g98
I9
tp326
atp327
a(S'von'
p328
(dp329
S'NOUN'
p330
F0.01189
sS'ADP'
p331
F0.98811
s(lp332
(g89
I10
tp333
atp334
a(S'ger\xc3\xa4ten'
p335
(dp336
S'ADJ'
p337
F0.081638
sS'NOUN'
p338
F0.84452
s(lp339
(g105
I11
tp340
atp341
a(g58
(dp342
g58
F1.0
s(lp343
(g58
I12
tp344
atp345
asS'it'
p346
(lp347
(S'un'
p348
(dp349
S'PRON'
p350
F0.013739
sS'DEF'
p351
F0.986261
s(lp352
tp353
a(S'altro'
p354
(dp355
S'ADV'
p356
F0.132159
sS'NOUN'
p357
F0.307413
sS'ADJ'
p358
F0.54878
sS'PRON'
p359
F0.011649
s(lp360
(g37
I0
tp361
atp362
a(S'importante'
p363
(dp364
S'NOUN'
p365
F0.010082
sS'VERB'
p366
F0.004802
sS'ADJ'
p367
F0.985116
s(lp368
(g53
I1
tp369
atp370
a(S'strumento'
p371
(dp372
S'VERB'
p373
F0.008434
sS'NOUN'
p374
F0.991566
s(lp375
(g45
I2
tp376
atp377
a(S'a'
p378
(dp379
S'CONJ'
p380
F9.5e-05
sS'ADP'
p381
F0.999905
s(lp382
(g23
I3
tp383
atp384
a(S'nostra'
p385
(dp386
S'PRON'
p387
F1.0
s(lp388
(g7
I4
tp389
atp390
a(S'disposizione'
p391
(dp392
S'NOUN'
p393
F1.0
s(lp394
(g14
I5
tp395
atp396
a(S'\xc3\xa8'
p397
(dp398
S'VERB'
p399
F1.0
s(lp400
(g60
I6
tp401
atp402
a(S"l'"
p403
(dp404
S'NOUN'
p405
F0.000971
sS'VERB'
p406
F0.9832770000000001
sS'ADJ'
p407
F0.015752
s(lp408
(g69
I7
tp409
atp410
a(S'etichettatura'
p411
(dp412
S'NOUN'
p413
F1.0
s(lp414
(g98
I9
tp415
atp416
a(S'del'
p417
(dp418
S'DEF'
p419
F0.001248
sS'ADP'
p420
F0.998752
s(lp421
tp422
a(S'consumo'
p423
(dp424
S'VERB'
p425
F0.000104
sS'NOUN'
p426
F0.999896
s(lp427
tp428
a(S'energetico'
p429
(dp430
S'ADJ'
p431
F1.0
s(lp432
(g82
I8
tp433
atp434
a(S'delle'
p435
(dp436
S'DEF'
p437
F0.001797
sS'ADP'
p438
F0.998203
s(lp439
(g89
I10
tp440
atp441
a(S'apparecchiature'
p442
(dp443
S'NOUN'
p444
F1.0
s(lp445
(g105
I11
tp446
atp447
a(g58
(dp448
g58
F1.0
s(lp449
(g58
I12
tp450
atp451
asS'sk'
p452
(lp453
(S'\xc4\x8eal\xc5\xa1\xc3\xad'
p454
(dp455
S'ADJ'
p456
F1.0
s(lp457
(g37
I0
tp458
atp459
a(S'd\xc3\xb4le\xc5\xbeit\xc3\xbd'
p460
(dp461
S'ADJ'
p462
F1.0
s(lp463
(g53
I1
tp464
atp465
a(S'prostriedok'
p466
(dp467
S'NOUN'
p468
F1.0
s(lp469
(g45
I2
tp470
atp471
a(g292
(dp472
g58
F1.0
s(lp473
tp474
a(S'ktor\xc3\xbd'
p475
(dp476
S'PRON'
p477
F1.0
s(lp478
(g14
I5
tp479
atp480
a(S'm\xc3\xa1me'
p481
(dp482
S'ADV'
p483
F0.001162
sg256
F0.000158
sS'VERB'
p484
F0.998679
s(lp485
(g14
I5
tp486
atp487
a(S'k'
p488
(dp489
g256
F0.000126
sS'NOUN'
p490
F4e-06
sS'ADP'
p491
F0.999871
s(lp492
tp493
a(S'dispoz\xc3\xadcii'
p494
(dp495
S'NOUN'
p496
F1.0
s(lp497
(g14
I5
tp498
atp499
a(g292
(dp500
g58
F1.0
s(lp501
tp502
a(S'je'
p503
(dp504
S'PRON'
p505
F0.000275
sS'VERB'
p506
F0.999454
sg256
F0.000271
s(lp507
(g60
I6
tp508
atp509
a(S'ozna\xc4\x8dovanie'
p510
(dp511
S'NOUN'
p512
F1.0
s(lp513
tp514
a(S'spotreby'
p515
(dp516
S'NOUN'
p517
F1.0
s(lp518
(g98
I9
tp519
atp520
a(S'energie'
p521
(dp522
S'NOUN'
p523
F1.0
s(lp524
(g82
I8
tp525
atp526
a(S'v\xc3\xbdrobkov'
p527
(dp528
S'NOUN'
p529
F1.0
s(lp530
(g105
I11
tp531
atp532
a(g58
(dp533
g58
F1.0
s(lp534
(g58
I12
tp535
atp536
asS'pl'
p537
(lp538
(S'innym'
p539
(dp540
S'NOUN'
p541
F0.002557
sS'ADJ'
p542
F0.9974439999999998
s(lp543
(g37
I0
tp544
atp545
a(S'wa\xc5\xbcnym'
p546
(dp547
S'ADJ'
p548
F1.0
s(lp549
(g53
I1
tp550
atp551
a(S'\xc5\x9brodkiem'
p552
(dp553
S'NOUN'
p554
F1.0
s(lp555
(g45
I2
tp556
atp557
a(g292
(dp558
g256
F0.0
sg58
F1.0
s(lp559
tp560
a(S'jakim'
p561
(dp562
S'ADJ'
p563
F0.9999999999999998
s(lp564
tp565
a(S'dysponujemy'
p566
(dp567
S'VERB'
p568
F1.0
s(lp569
(g14
I5
tp570
atp571
a(g292
(dp572
g256
F3e-06
sg58
F0.999997
s(lp573
tp574
a(S'jest'
p575
(dp576
S'VERB'
p577
F1.0
s(lp578
(g60
I6
tp579
atp580
a(S'znakowanie'
p581
(dp582
S'ADV'
p583
F0.829237
sS'NOUN'
p584
F0.05437699999999999
sS'VERB'
p585
F0.058473
sS'ADJ'
p586
F0.057914000000000014
s(lp587
(g98
I9
tp588
atp589
a(S'energetyczne'
p590
(dp591
S'ADJ'
p592
F1.0
s(lp593
(g82
I8
tp594
atp595
a(S'urz\xc4\x85dze\xc5\x84'
p596
(dp597
S'NOUN'
p598
F1.0
s(lp599
(g105
I11
tp600
atp601
a(g58
(dp602
g58
F1.0
s(lp603
(g58
I12
tp604
atp605
asS'sl'
p606
(lp607
(S'\xc5\xa0e'
p608
(dp609
S'PRT'
p610
F1.0
s(lp611
tp612
a(S'eno'
p613
(dp614
S'NUM'
p615
F1.0
s(lp616
(g37
I0
tp617
atp618
a(S'pomembno'
p619
(dp620
S'ADV'
p621
F0.000289
sS'ADJ'
p622
F0.9997109999999999
s(lp623
(g53
I1
tp624
atp625
a(S'sredstvo'
p626
(dp627
S'NOUN'
p628
F1.0
s(lp629
(g45
I2
tp630
atp631
a(g292
(dp632
g58
F1.0
s(lp633
tp634
a(S'ki'
p635
(dp636
S'CONJ'
p637
F1.0
s(lp638
(g14
I5
tp639
atp640
a(S'ga'
p641
(dp642
S'PRON'
p643
F1.0
s(lp644
(g14
I5
tp645
atp646
a(S'imamo'
p647
(dp648
S'VERB'
p649
F1.0
s(lp650
tp651
a(S'pri'
p652
(dp653
S'ADP'
p654
F1.0
s(lp655
(g23
I3
tp656
atp657
a(S'roki'
p658
(dp659
S'NOUN'
p660
F1.0
s(lp661
(g14
I5
tp662
atp663
a(g292
(dp664
g58
F1.0
s(lp665
tp666
a(S'je'
p667
(dp668
S'PRON'
p669
F0.019122
sS'VERB'
p670
F0.980849
sg256
F3e-05
s(lp671
(g60
I6
tp672
atp673
a(S'energetsko'
p674
(dp675
S'ADJ'
p676
F1.0
s(lp677
(g82
I8
tp678
atp679
a(S'ozna\xc4\x8devanje'
p680
(dp681
S'NOUN'
p682
F1.0
s(lp683
(g98
I9
tp684
atp685
a(S'opreme'
p686
(dp687
S'NOUN'
p688
F1.0
s(lp689
(g105
I11
tp690
atp691
a(g58
(dp692
g58
F1.0
s(lp693
(g58
I12
tp694
atp695
asS'es'
p696
(lp697
(S'otro'
p698
(dp699
S'ADJ'
p700
F1.0
s(lp701
(g37
I0
tp702
atp703
a(S'importante'
p704
(dp705
S'VERB'
p706
F0.0195
sS'ADJ'
p707
F0.9805
s(lp708
(g53
I1
tp709
atp710
a(S'medio'
p711
(dp712
S'ADV'
p713
F0.029988
sS'ADJ'
p714
F0.37746399999999997
sS'NOUN'
p715
F0.592549
s(lp716
(g45
I2
tp717
atp718
a(g378
(dp719
g256
F0.007918999999999999
sS'CONJ'
p720
F0.000145
sS'ADP'
p721
F0.991936
s(lp722
(g23
I3
tp723
atp724
a(S'nuestra'
p725
(dp726
S'PRON'
p727
F0.657478
sS'ADJ'
p728
F0.342522
s(lp729
(g7
I4
tp730
atp731
a(S'disposici\xc3\xb3n'
p732
(dp733
S'NOUN'
p734
F1.0
s(lp735
(g14
I5
tp736
atp737
a(S'es'
p738
(dp739
S'VERB'
p740
F1.0
s(lp741
(g60
I6
tp742
atp743
a(S'el'
p744
(dp745
S'PRON'
p746
F2.8e-05
sS'DET'
p747
F0.999972
s(lp748
(g69
I7
tp749
atp750
a(S'etiquetado'
p751
(dp752
S'VERB'
p753
F1.0
s(lp754
(g98
I9
tp755
atp756
a(S'energ\xc3\xa9tico'
p757
(dp758
S'ADJ'
p759
F1.0
s(lp760
(g82
I8
tp761
atp762
a(S'de'
p763
(dp764
g256
F0.0
sS'CONJ'
p765
F5.7e-05
sS'ADP'
p766
F0.999943
s(lp767
(g89
I10
tp768
atp769
a(S'los'
p770
(dp771
S'PRON'
p772
F0.0
sS'DET'
p773
F1.0
s(lp774
tp775
a(S'aparatos'
p776
(dp777
S'NOUN'
p778
F1.0
s(lp779
(g105
I11
tp780
atp781
a(g58
(dp782
g58
F1.0
s(lp783
(g58
I12
tp784
atp785
as.