(dp0
S'fr'
p1
(lp2
(S'21'
p3
(dp4
S'X'
p5
F0.001507
sS'NUM'
p6
F0.998493
s(lp7
(S'twenty-one'
p8
I0
tp9
atp10
a(S'chapitres'
p11
(dp12
S'VERB'
p13
F4.4e-05
sS'NOUN'
p14
F0.999956
s(lp15
(S'chapters'
p16
I1
tp17
atp18
a(S'ont'
p19
(dp20
S'VERB'
p21
F1.0
s(lp22
tp23
a(S'\xc3\xa9t\xc3\xa9'
p24
(dp25
S'VERB'
p26
F0.980718
sS'NOUN'
p27
F0.019282
s(lp28
(S'were'
p29
I2
tp30
atp31
a(S'ouverts'
p32
(dp33
S'VERB'
p34
F0.689674
sS'ADJ'
p35
F0.310326
s(lp36
(S'opened'
p37
I3
tp38
atp39
a(S','
p40
(dp41
S'.'
p42
F1.0
s(lp43
(g40
I4
tp44
atp45
a(S'dont'
p46
(dp47
S'PRON'
p48
F1.0
s(lp49
(S'which'
p50
I6
tp51
atp52
a(S'trois'
p53
(dp54
S'NUM'
p55
F0.966618
sS'NOUN'
p56
F0.033382
s(lp57
(S'three'
p58
I7
tp59
atp60
a(S'sont'
p61
(dp62
S'VERB'
p63
F1.0
s(lp64
(S'are'
p65
I8
tp66
atp67
a(S'provisoirement'
p68
(dp69
S'ADV'
p70
F1.0
s(lp71
(S'provisionally'
p72
I9
tp73
atp74
a(S'clos'
p75
(dp76
S'VERB'
p77
F0.9917619999999999
sS'NOUN'
p78
F0.008238
s(lp79
(S'closed'
p80
I10
tp81
atp82
a(g42
(dp83
g42
F1.0
s(lp84
(g42
I11
tp85
atp86
asS'en'
p87
(lp88
(g8
(dp89
S'NOUN'
p90
F1.0
s(lp91
(g8
I0
tp92
atp93
a(g16
(dp94
S'VERB'
p95
F6e-06
sS'NOUN'
p96
F0.999994
s(lp97
(g16
I1
tp98
atp99
a(g29
(dp100
S'VERB'
p101
F1.0
s(lp102
(g29
I2
tp103
atp104
a(g37
(dp105
S'VERB'
p106
F1.0
s(lp107
(g37
I3
tp108
atp109
a(g40
(dp110
g42
F1.0
s(lp111
(g40
I4
tp112
atp113
a(S'of'
p114
(dp115
S'ADP'
p116
F1.0
s(lp117
(g114
I5
tp118
atp119
a(g50
(dp120
S'DET'
p121
F1.0
s(lp122
(g50
I6
tp123
atp124
a(g58
(dp125
S'NUM'
p126
F0.937827
sS'NOUN'
p127
F0.062173
s(lp128
(g58
I7
tp129
atp130
a(g65
(dp131
S'VERB'
p132
F0.977246
sS'NOUN'
p133
F0.022754
s(lp134
(g65
I8
tp135
atp136
a(g72
(dp137
S'ADV'
p138
F1.0
s(lp139
(g72
I9
tp140
atp141
a(g80
(dp142
S'VERB'
p143
F0.946346
sS'ADJ'
p144
F0.053654
s(lp145
(g80
I10
tp146
atp147
a(g42
(dp148
g42
F1.0
s(lp149
(g42
I11
tp150
atp151
asS'nl'
p152
(lp153
(S'er'
p154
(dp155
S'ADV'
p156
F1.0
s(lp157
(g29
I2
tp158
atp159
a(S'werden'
p160
(dp161
S'VERB'
p162
F1.0
s(lp163
tp164
a(S'21'
p165
(dp166
S'NUM'
p167
F1.0
s(lp168
(g8
I0
tp169
atp170
a(S'hoofdstukken'
p171
(dp172
S'NOUN'
p173
F1.0
s(lp174
(g16
I1
tp175
atp176
a(S'geopend'
p177
(dp178
S'VERB'
p179
F0.99974
sS'ADJ'
p180
F0.00026
s(lp181
(g37
I3
tp182
atp183
a(g40
(dp184
g42
F1.0
s(lp185
(g40
I4
tp186
atp187
a(S'waarvan'
p188
(dp189
S'ADV'
p190
F1.0
s(lp191
(g50
I6
tp192
atp193
a(S'er'
p194
(dp195
S'ADV'
p196
F1.0
s(lp197
(g29
I2
tp198
atp199
a(S'drie'
p200
(dp201
S'NUM'
p202
F1.0
s(lp203
(g58
I7
tp204
atp205
a(S'voorlopig'
p206
(dp207
S'ADJ'
p208
F1.0
s(lp209
(g72
I9
tp210
atp211
a(S'zijn'
p212
(dp213
S'PRON'
p214
F9.2e-05
sS'VERB'
p215
F0.999548
sS'NOUN'
p216
F0.00036
s(lp217
(g65
I8
tp218
atp219
a(S'gesloten'
p220
(dp221
S'VERB'
p222
F0.999263
sS'ADJ'
p223
F0.000737
s(lp224
(g80
I10
tp225
atp226
a(g42
(dp227
g42
F1.0
s(lp228
(g42
I11
tp229
atp230
asS'de'
p231
(lp232
(S'21'
p233
(dp234
S'NUM'
p235
F1.0
s(lp236
(g8
I0
tp237
atp238
a(S'kapitel'
p239
(dp240
S'ADJ'
p241
F0.019521
sS'NOUN'
p242
F0.965732
s(lp243
(g16
I1
tp244
atp245
a(S'sind'
p246
(dp247
S'VERB'
p248
F1.0
s(lp249
tp250
a(S'ge\xc3\xb6ffnet'
p251
(dp252
S'VERB'
p253
F0.530886
sS'ADJ'
p254
F0.469114
s(lp255
tp256
a(S'worden'
p257
(dp258
S'VERB'
p259
F0.999968
s(lp260
(g37
I3
tp261
atp262
a(g40
(dp263
g42
F1.0
s(lp264
(g40
I4
tp265
atp266
a(S'von'
p267
(dp268
S'NOUN'
p269
F1e-06
sS'ADP'
p270
F0.999999
s(lp271
(g114
I5
tp272
atp273
a(S'denen'
p274
(dp275
S'PRON'
p276
F1.0
s(lp277
(g50
I6
tp278
atp279
a(S'drei'
p280
(dp281
S'NUM'
p282
F1.0
s(lp283
(g58
I7
tp284
atp285
a(S'wieder'
p286
(dp287
S'ADV'
p288
F0.999976
sS'PRT'
p289
F2.4e-05
s(lp290
tp291
a(S'vorl\xc3\xa4ufig'
p292
(dp293
S'ADJ'
p294
F1.0
s(lp295
(g72
I9
tp296
atp297
a(S'geschlossen'
p298
(dp299
S'VERB'
p300
F0.977142
sS'ADJ'
p301
F0.022858
s(lp302
(g80
I10
tp303
atp304
a(S'wurden'
p305
(dp306
S'VERB'
p307
F1.0
s(lp308
(g29
I2
tp309
atp310
a(g42
(dp311
g42
F1.0
s(lp312
(g42
I11
tp313
atp314
asS'it'
p315
(lp316
(S'sono'
p317
(dp318
S'VERB'
p319
F0.999853
sS'NOUN'
p320
F0.000147
s(lp321
tp322
a(S'state'
p323
(dp324
S'VERB'
p325
F0.9999990000000001
s(lp326
(g29
I2
tp327
atp328
a(S'avviate'
p329
(dp330
S'VERB'
p331
F0.73387
sS'ADJ'
p332
F0.266131
s(lp333
(g37
I3
tp334
atp335
a(S'ventuno'
p336
(dp337
S'NOUN'
p338
F0.01598
sS'NUM'
p339
F0.000384
sS'ADJ'
p340
F0.983636
s(lp341
(g8
I0
tp342
atp343
a(S'fasi'
p344
(dp345
S'NOUN'
p346
F1.0
s(lp347
(g16
I1
tp348
atp349
a(g40
(dp350
g42
F1.0
s(lp351
(g40
I4
tp352
atp353
a(S'di'
p354
(dp355
S'CONJ'
p356
F0.000227
sS'ADP'
p357
F0.999773
s(lp358
(g114
I5
tp359
atp360
a(S'cui'
p361
(dp362
S'PRON'
p363
F1.0
s(lp364
(g50
I6
tp365
atp366
a(S'tre'
p367
(dp368
S'NOUN'
p369
F0.009861
sS'NUM'
p370
F2e-06
sS'ADJ'
p371
F0.990137
s(lp372
(g58
I7
tp373
atp374
a(S'provvisoriamente'
p375
(dp376
S'ADV'
p377
F1.0
s(lp378
(g72
I9
tp379
atp380
a(S'chiuse'
p381
(dp382
S'NOUN'
p383
F0.037208
sS'VERB'
p384
F0.380632
sS'ADJ'
p385
F0.58216
s(lp386
(g80
I10
tp387
atp388
a(g42
(dp389
g42
F1.0
s(lp390
(g42
I11
tp391
atp392
asS'sk'
p393
(lp394
(S'bolo'
p395
(dp396
S'VERB'
p397
F1.000001
s(lp398
(g29
I2
tp399
atp400
a(S'otvoren\xc3\xbdch'
p401
(dp402
S'VERB'
p403
F1.0
s(lp404
(g37
I3
tp405
atp406
a(S'21'
p407
(dp408
S'NUM'
p409
F1.0
s(lp410
(g8
I0
tp411
atp412
a(S'kapitol'
p413
(dp414
S'NOUN'
p415
F1.0
s(lp416
(g16
I1
tp417
atp418
a(g40
(dp419
g42
F1.0
s(lp420
(g40
I4
tp421
atp422
a(S'tri'
p423
(dp424
S'NUM'
p425
F0.991742
sS'VERB'
p426
F0.008258
s(lp427
(g58
I7
tp428
atp429
a(S'z'
p430
(dp431
g5
F0.000153
sS'NOUN'
p432
F0.00020999999999999998
sS'ADP'
p433
F0.999637
s(lp434
(g114
I5
tp435
atp436
a(S'nich'
p437
(dp438
S'PRON'
p439
F1.0
s(lp440
(g50
I6
tp441
atp442
a(S's\xc3\xba'
p443
(dp444
S'VERB'
p445
F1.0
s(lp446
(g65
I8
tp447
atp448
a(S'prechodne'
p449
(dp450
S'ADV'
p451
F1.0
s(lp452
(g72
I9
tp453
atp454
a(S'uzavret\xc3\xa9'
p455
(dp456
S'VERB'
p457
F1.0
s(lp458
(g80
I10
tp459
atp460
a(g42
(dp461
g42
F1.0
s(lp462
(g42
I11
tp463
atp464
asS'pl'
p465
(lp466
(S'otwarto'
p467
(dp468
S'VERB'
p469
F1.0
s(lp470
(g37
I3
tp471
atp472
a(S'21'
p473
(dp474
S'NUM'
p475
F0.9997790000000001
sS'ADJ'
p476
F0.000222
s(lp477
(g8
I0
tp478
atp479
a(S'rozdzia\xc5\x82\xc3\xb3w'
p480
(dp481
S'NOUN'
p482
F1.0
s(lp483
(g16
I1
tp484
atp485
a(g40
(dp486
g5
F0.0
sg42
F1.0
s(lp487
(g40
I4
tp488
atp489
a(g430
(dp490
g5
F2.7e-05
sS'VERB'
p491
F3.4e-05
sS'NOUN'
p492
F1.5e-05
sS'ADP'
p493
F0.999914
sS'PRT'
p494
F1e-05
s(lp495
(g114
I5
tp496
atp497
a(S'kt\xc3\xb3rych'
p498
(dp499
S'ADJ'
p500
F0.9999999999999999
s(lp501
(g50
I6
tp502
atp503
a(S'trzy'
p504
(dp505
S'NUM'
p506
F0.996714
sS'NOUN'
p507
F0.003286
s(lp508
(g58
I7
tp509
atp510
a(S'ju\xc5\xbc'
p511
(dp512
S'PRT'
p513
F1.0
s(lp514
tp515
a(S'wst\xc4\x99pnie'
p516
(dp517
S'ADV'
p518
F1.0
s(lp519
(g72
I9
tp520
atp521
a(S'zamkni\xc4\x99to'
p522
(dp523
S'VERB'
p524
F1.0
s(lp525
(g80
I10
tp526
atp527
a(g42
(dp528
g42
F1.0
s(lp529
(g42
I11
tp530
atp531
asS'sl'
p532
(lp533
(S'odprtih'
p534
(dp535
S'ADJ'
p536
F1.0
s(lp537
tp538
a(S'je'
p539
(dp540
S'PRON'
p541
F6.1e-05
sS'VERB'
p542
F0.999939
sg5
F1e-06
s(lp543
tp544
a(S'bilo'
p545
(dp546
S'VERB'
p547
F1.0
s(lp548
(g29
I2
tp549
atp550
a(S'enaindvajset'
p551
(dp552
S'ADV'
p553
F0.63668
sS'NOUN'
p554
F0.191955
sS'NUM'
p555
F0.168743
sg5
F6.7e-05
sS'ADJ'
p556
F0.0010329999999999998
sS'VERB'
p557
F0.00152
s(lp558
(g8
I0
tp559
atp560
a(S'poglavij'
p561
(dp562
S'NOUN'
p563
F1.0
s(lp564
(g16
I1
tp565
atp566
a(g40
(dp567
g42
F1.0
s(lp568
(g40
I4
tp569
atp570
a(S'od'
p571
(dp572
S'ADP'
p573
F1.0
s(lp574
(g114
I5
tp575
atp576
a(S'teh'
p577
(dp578
S'PRON'
p579
F0.9999990000000001
s(lp580
(g50
I6
tp581
atp582
a(S'so'
p583
(dp584
g5
F4.9999999999999996e-05
sS'VERB'
p585
F0.99995
s(lp586
(g65
I8
tp587
atp588
a(S'tri'
p589
(dp590
S'NUM'
p591
F1.000001
s(lp592
(g58
I7
tp593
atp594
a(S'\xc5\xbee'
p595
(dp596
S'PRT'
p597
F1.0
s(lp598
tp599
a(S'za\xc4\x8dasno'
p600
(dp601
S'ADV'
p602
F0.998327
sS'ADJ'
p603
F0.001672
s(lp604
(g72
I9
tp605
atp606
a(S'zaklju\xc4\x8dena'
p607
(dp608
S'ADJ'
p609
F1.0
s(lp610
(g80
I10
tp611
atp612
a(g42
(dp613
g42
F1.0
s(lp614
(g42
I11
tp615
atp616
asS'es'
p617
(lp618
(S'se'
p619
(dp620
S'PRON'
p621
F1.0
sS'VERB'
p622
F0.0
s(lp623
tp624
a(S'han'
p625
(dp626
S'VERB'
p627
F1.0
s(lp628
(g29
I2
tp629
atp630
a(S'abierto'
p631
(dp632
S'ADJ'
p633
F1.0
s(lp634
(g37
I3
tp635
atp636
a(S'21'
p637
(dp638
g5
F0.167116
sS'NUM'
p639
F0.832884
s(lp640
(g8
I0
tp641
atp642
a(S'cap\xc3\xadtulos'
p643
(dp644
S'NOUN'
p645
F1.0
s(lp646
(g16
I1
tp647
atp648
a(g40
(dp649
g42
F1.0
s(lp650
tp651
a(S'y'
p652
(dp653
g5
F0.000442
sS'CONJ'
p654
F0.999558
s(lp655
(g40
I4
tp656
atp657
a(S'de'
p658
(dp659
g5
F0.0
sS'CONJ'
p660
F1e-06
sS'ADP'
p661
F0.999999
s(lp662
(g114
I5
tp663
atp664
a(S'ellos'
p665
(dp666
S'PRON'
p667
F1.0
s(lp668
(g50
I6
tp669
atp670
a(S'tres'
p671
(dp672
S'NUM'
p673
F1.0
s(lp674
(g58
I7
tp675
atp676
a(S'se'
p677
(dp678
S'PRON'
p679
F0.999999
sS'VERB'
p680
F0.0
s(lp681
tp682
a(S'encuentran'
p683
(dp684
S'VERB'
p685
F1.0
s(lp686
(g65
I8
tp687
atp688
a(S'temporalmente'
p689
(dp690
S'ADV'
p691
F1.0
s(lp692
(g72
I9
tp693
atp694
a(S'cerrados'
p695
(dp696
S'ADJ'
p697
F1.0
s(lp698
(g80
I10
tp699
atp700
a(g42
(dp701
g42
F1.0
s(lp702
(g42
I11
tp703
atp704
as.