(dp0
S'fr'
p1
(lp2
(S'nous'
p3
(dp4
S'PRON'
p5
F1.0
s(lp6
(S'this'
p7
I0
tp8
atp9
a(S'atteindrons'
p10
(dp11
S'VERB'
p12
F1.0
s(lp13
(S'will'
p14
I1
tp15
atp16
a(S'cet'
p17
(dp18
S'PRON'
p19
F1.0
s(lp20
(S'be'
p21
I2
tp22
atp23
a(S'objectif'
p24
(dp25
S'NOUN'
p26
F0.156079
sS'ADJ'
p27
F0.843921
s(lp28
(S'achieved'
p29
I3
tp30
atp31
a(S'gr\xc3\xa2ce'
p32
(dp33
S'NOUN'
p34
F1.0
s(lp35
tp36
a(S'aux'
p37
(dp38
S'ADP'
p39
F1.0
s(lp40
(S'the'
p41
I5
tp42
atp43
a(S'accords'
p44
(dp45
S'NOUN'
p46
F1.0
s(lp47
(S'agreements'
p48
I8
tp49
atp50
a(S'de'
p51
(dp52
S'ADP'
p53
F1.0
s(lp54
(S'trade'
p55
I7
tp56
atp57
a(S'libre-\xc3\xa9change'
p58
(dp59
S'NOUN'
p60
F1.0
s(lp61
(S'free'
p62
I6
tp63
atp64
a(S'que'
p65
(dp66
S'ADV'
p67
F0.000965
sS'PRON'
p68
F0.44677300000000003
sS'CONJ'
p69
F0.552262
s(lp70
(S'that'
p71
I9
tp72
atp73
a(S'nous'
p74
(dp75
S'PRON'
p76
F1.0
s(lp77
(S'we'
p78
I10
tp79
atp80
a(S'n\xc3\xa9gocions'
p81
(dp82
S'VERB'
p83
F1.0
s(lp84
(S'negotiating'
p85
I13
tp86
atp87
a(S'actuellement'
p88
(dp89
S'ADV'
p90
F1.0
s(lp91
(S'currently'
p92
I12
tp93
atp94
a(S'ainsi'
p95
(dp96
S'ADV'
p97
F0.683604
sS'CONJ'
p98
F0.316396
s(lp99
(S'and'
p100
I14
tp101
atp102
a(S'que'
p103
(dp104
S'ADV'
p105
F0.068889
sS'PRON'
p106
F0.122459
sS'CONJ'
p107
F0.808652
s(lp108
tp109
a(S'gr\xc3\xa2ce'
p110
(dp111
S'NOUN'
p112
F1.0
s(lp113
(S'through'
p114
I4
tp115
atp116
a(S'\xc3\xa0'
p117
(dp118
S'ADP'
p119
F1.0
s(lp120
(S'by'
p121
I15
tp122
atp123
a(S"l'"
p124
(dp125
S'ADJ'
p126
F0.160704
sS'VERB'
p127
F0.06480800000000002
sS'NOUN'
p128
F0.774488
s(lp129
tp130
a(S'approfondissement'
p131
(dp132
S'NOUN'
p133
F1.0
s(lp134
(S'deepening'
p135
I16
tp136
atp137
a(S'des'
p138
(dp139
S'DET'
p140
F2.1e-05
sS'ADP'
p141
F0.999979
s(lp142
tp143
a(S'partenariats'
p144
(dp145
S'NOUN'
p146
F1.0
s(lp147
(S'partnerships'
p148
I20
tp149
atp150
a(S'commerciaux'
p151
(dp152
S'NOUN'
p153
F0.002475
sS'ADJ'
p154
F0.997525
s(lp155
(S'trade'
p156
I17
tp157
atp158
a(S'et'
p159
(dp160
S'CONJ'
p161
F1.0
s(lp162
(S'and'
p163
I18
tp164
atp165
a(S'\xc3\xa9conomiques'
p166
(dp167
S'NOUN'
p168
F0.049704
sS'ADJ'
p169
F0.950296
s(lp170
(S'economic'
p171
I19
tp172
atp173
a(S'avec'
p174
(dp175
S'ADV'
p176
F0.003909
sS'ADP'
p177
F0.996091
s(lp178
(S'with'
p179
I21
tp180
atp181
a(S'certains'
p182
(dp183
S'PRON'
p184
F0.990752
sS'ADJ'
p185
F0.009248
s(lp186
(S'such'
p187
I25
tp188
atp189
a(S'partenaires'
p190
(dp191
S'NOUN'
p192
F1.0
s(lp193
(S'partners'
p194
I24
tp195
atp196
a(S'commerciaux'
p197
(dp198
S'NOUN'
p199
F0.014891
sS'ADJ'
p200
F0.985109
s(lp201
(S'trading'
p202
I23
tp203
atp204
a(S'essentiels'
p205
(dp206
S'ADJ'
p207
F0.302956
sS'NOUN'
p208
F0.697044
s(lp209
(S'key'
p210
I22
tp211
atp212
a(S'comme'
p213
(dp214
S'ADV'
p215
F0.462464
sS'CONJ'
p216
F0.537536
s(lp217
(S'as'
p218
I26
tp219
atp220
a(S','
p221
(dp222
S'.'
p223
F1.0
s(lp224
(g221
I27
tp225
atp226
a(S'par'
p227
(dp228
S'NOUN'
p229
F1e-06
sS'ADP'
p230
F0.999999
s(lp231
tp232
a(S'exemple'
p233
(dp234
S'NOUN'
p235
F1.0
s(lp236
(S'example'
p237
I29
tp238
atp239
a(g221
(dp240
g223
F1.0
s(lp241
(g221
I30
tp242
atp243
a(S'les'
p244
(dp245
S'PRON'
p246
F0.000744
sS'DET'
p247
F0.999187
sS'ADP'
p248
F7e-05
s(lp249
(S'the'
p250
I31
tp251
atp252
a(S'\xc3\x89tats-unis'
p253
(dp254
S'VERB'
p255
F0.0005420000000000001
sS'NOUN'
p256
F0.999458
s(lp257
(S'us'
p258
I32
tp259
atp260
a(S'et'
p261
(dp262
S'CONJ'
p263
F1.0
s(lp264
(S'and'
p265
I33
tp266
atp267
a(S'la'
p268
(dp269
S'PRON'
p270
F0.002194
sS'DET'
p271
F0.997806
sS'NOUN'
p272
F0.0
s(lp273
tp274
a(S'chine'
p275
(dp276
S'VERB'
p277
F0.0021829999999999996
sS'NOUN'
p278
F0.997817
s(lp279
(S'china'
p280
I34
tp281
atp282
a(g221
(dp283
g223
F1.0
s(lp284
(g221
I35
tp285
atp286
a(S'o\xc3\xb9'
p287
(dp288
S'ADV'
p289
F0.01802
sS'PRON'
p290
F0.98198
s(lp291
(S'where'
p292
I36
tp293
atp294
a(S'le'
p295
(dp296
S'PRON'
p297
F0.026037
sS'DET'
p298
F0.973963
s(lp299
(S'the'
p300
I37
tp301
atp302
a(S'cet'
p303
(dp304
S'PRON'
p305
F1.0
s(lp306
(S'tec'
p307
I38
tp308
atp309
a(S'et'
p310
(dp311
S'CONJ'
p312
F1.0
s(lp313
(S'and'
p314
I39
tp315
atp316
a(S'le'
p317
(dp318
S'PRON'
p319
F0.018926
sS'DET'
p320
F0.981074
s(lp321
(S'the'
p322
I40
tp323
atp324
a(S'dialogue'
p325
(dp326
S'VERB'
p327
F0.018536999999999998
sS'NOUN'
p328
F0.981463
s(lp329
(S'dialogue'
p330
I42
tp331
atp332
a(S'de'
p333
(dp334
S'ADP'
p335
F1.0
s(lp336
(S'high-level'
p337
I41
tp338
atp339
a(S'haut'
p340
(dp341
S'ADV'
p342
F0.102859
sS'NOUN'
p343
F0.014181
sS'ADJ'
p344
F0.88296
s(lp345
tp346
a(S'niveau'
p347
(dp348
S'NOUN'
p349
F1.0
s(lp350
(g337
I41
tp351
atp352
a(S'ont'
p353
(dp354
S'VERB'
p355
F1.0
s(lp356
(S'have'
p357
I43
tp358
atp359
a(S'd\xc3\xa9j\xc3\xa0'
p360
(dp361
S'ADV'
p362
F1.0
s(lp363
(S'already'
p364
I44
tp365
atp366
a(S'pos\xc3\xa9'
p367
(dp368
S'VERB'
p369
F0.931736
sS'ADJ'
p370
F0.068264
s(lp371
(S'laid'
p372
I45
tp373
atp374
a(S'des'
p375
(dp376
S'DET'
p377
F3.4e-05
sS'ADP'
p378
F0.999966
s(lp379
tp380
a(S'fondations'
p381
(dp382
S'NOUN'
p383
F1.0
s(lp384
(S'foundations'
p385
I47
tp386
atp387
a(S'solides'
p388
(dp389
S'NOUN'
p390
F0.003318
sS'ADJ'
p391
F0.996682
s(lp392
(S'solid'
p393
I46
tp394
atp395
a(g223
(dp396
g223
F1.0
s(lp397
(g223
I48
tp398
atp399
asS'en'
p400
(lp401
(g7
(dp402
S'ADV'
p403
F0.001346
sS'NOUN'
p404
F0.000488
sS'DET'
p405
F0.998165
s(lp406
(g7
I0
tp407
atp408
a(g14
(dp409
S'VERB'
p410
F0.999646
sS'NOUN'
p411
F0.000354
s(lp412
(g14
I1
tp413
atp414
a(g21
(dp415
S'VERB'
p416
F1.0
s(lp417
(g21
I2
tp418
atp419
a(g29
(dp420
S'VERB'
p421
F1.0
s(lp422
(g29
I3
tp423
atp424
a(g114
(dp425
S'ADV'
p426
F0.002907
sS'PRT'
p427
F0.018085
sS'ADJ'
p428
F1e-06
sS'ADP'
p429
F0.979007
s(lp430
(g114
I4
tp431
atp432
a(g41
(dp433
S'NOUN'
p434
F1e-06
sS'DET'
p435
F0.999999
s(lp436
(g41
I5
tp437
atp438
a(g62
(dp439
S'ADV'
p440
F0.000212
sS'NOUN'
p441
F0.001546
sS'VERB'
p442
F7.3e-05
sS'ADJ'
p443
F0.998169
s(lp444
(g62
I6
tp445
atp446
a(g55
(dp447
S'VERB'
p448
F0.00036700000000000003
sS'NOUN'
p449
F0.999633
s(lp450
(g55
I7
tp451
atp452
a(g48
(dp453
S'NOUN'
p454
F1.0
s(lp455
(g48
I8
tp456
atp457
a(g71
(dp458
S'ADV'
p459
F0.000211
sS'DET'
p460
F0.26867399999999997
sS'ADP'
p461
F0.731115
s(lp462
(g71
I9
tp463
atp464
a(g78
(dp465
S'PRON'
p466
F1.0
s(lp467
(g78
I10
tp468
atp469
a(S'are'
p470
(dp471
S'VERB'
p472
F1.0
sS'NOUN'
p473
F0.0
s(lp474
(g470
I11
tp475
atp476
a(g92
(dp477
S'ADV'
p478
F1.0
s(lp479
(g92
I12
tp480
atp481
a(g85
(dp482
S'VERB'
p483
F0.960131
sS'NOUN'
p484
F0.039869
s(lp485
(g85
I13
tp486
atp487
a(g100
(dp488
S'CONJ'
p489
F0.999946
sS'NOUN'
p490
F5.4e-05
s(lp491
(g100
I14
tp492
atp493
a(g121
(dp494
S'ADV'
p495
F0.001797
sS'NOUN'
p496
F1e-06
sS'ADP'
p497
F0.998202
s(lp498
(g121
I15
tp499
atp500
a(g135
(dp501
S'VERB'
p502
F1.0
s(lp503
(g135
I16
tp504
atp505
a(g156
(dp506
S'VERB'
p507
F0.002847
sS'NOUN'
p508
F0.997153
s(lp509
(g156
I17
tp510
atp511
a(g163
(dp512
S'CONJ'
p513
F1.0
sS'NOUN'
p514
F0.0
s(lp515
(g163
I18
tp516
atp517
a(g171
(dp518
S'ADJ'
p519
F1.0
s(lp520
(g171
I19
tp521
atp522
a(g148
(dp523
S'NOUN'
p524
F1.0
s(lp525
(g148
I20
tp526
atp527
a(g179
(dp528
S'ADP'
p529
F1.0
s(lp530
(g179
I21
tp531
atp532
a(g210
(dp533
S'NOUN'
p534
F0.054807
sS'VERB'
p535
F1e-05
sS'ADJ'
p536
F0.945184
s(lp537
(g210
I22
tp538
atp539
a(g202
(dp540
S'VERB'
p541
F0.006955
sS'NOUN'
p542
F0.993045
s(lp543
(g202
I23
tp544
atp545
a(g194
(dp546
S'VERB'
p547
F0.005698
sS'NOUN'
p548
F0.994302
s(lp549
(g194
I24
tp550
atp551
a(g187
(dp552
S'ADV'
p553
F0.006362
sS'DET'
p554
F7.7e-05
sS'ADJ'
p555
F0.988753
sS'ADP'
p556
F0.004808
s(lp557
(g187
I25
tp558
atp559
a(g218
(dp560
S'ADV'
p561
F0.393377
sS'ADP'
p562
F0.606623
s(lp563
(g218
I26
tp564
atp565
a(g221
(dp566
g223
F1.0
s(lp567
(g221
I27
tp568
atp569
a(S'for'
p570
(dp571
S'ADP'
p572
F1.0
s(lp573
(g570
I28
tp574
atp575
a(g237
(dp576
S'NOUN'
p577
F1.0
s(lp578
(g237
I29
tp579
atp580
a(g221
(dp581
g223
F1.0
s(lp582
(g221
I30
tp583
atp584
a(g250
(dp585
S'NOUN'
p586
F0.000132
sS'DET'
p587
F0.999868
s(lp588
(g250
I31
tp589
atp590
a(g258
(dp591
S'PRON'
p592
F1.0
s(lp593
(g258
I32
tp594
atp595
a(g265
(dp596
S'CONJ'
p597
F0.999996
sS'NOUN'
p598
F4e-06
s(lp599
(g265
I33
tp600
atp601
a(g280
(dp602
S'NOUN'
p603
F1.0
s(lp604
(g280
I34
tp605
atp606
a(g221
(dp607
g223
F1.0
s(lp608
(g221
I35
tp609
atp610
a(g292
(dp611
S'ADV'
p612
F0.999859
sS'ADP'
p613
F0.000141
s(lp614
(g292
I36
tp615
atp616
a(g300
(dp617
S'NOUN'
p618
F2e-06
sS'DET'
p619
F0.999998
s(lp620
(g300
I37
tp621
atp622
a(g307
(dp623
S'NOUN'
p624
F1.0
s(lp625
(g307
I38
tp626
atp627
a(g314
(dp628
S'CONJ'
p629
F1.0
sS'NOUN'
p630
F0.0
s(lp631
(g314
I39
tp632
atp633
a(g322
(dp634
S'NOUN'
p635
F1e-06
sS'DET'
p636
F0.999999
s(lp637
(g322
I40
tp638
atp639
a(g337
(dp640
S'ADJ'
p641
F1.0
s(lp642
(g337
I41
tp643
atp644
a(g330
(dp645
S'VERB'
p646
F1.9e-05
sS'NOUN'
p647
F0.999981
s(lp648
(g330
I42
tp649
atp650
a(g357
(dp651
S'VERB'
p652
F1.0
s(lp653
(g357
I43
tp654
atp655
a(g364
(dp656
S'ADV'
p657
F1.0
s(lp658
(g364
I44
tp659
atp660
a(g372
(dp661
S'VERB'
p662
F1.0
s(lp663
(g372
I45
tp664
atp665
a(g393
(dp666
S'ADV'
p667
F0.001867
sS'NOUN'
p668
F0.004282
sS'ADJ'
p669
F0.993851
s(lp670
(g393
I46
tp671
atp672
a(g385
(dp673
S'NOUN'
p674
F1.0
s(lp675
(g385
I47
tp676
atp677
a(g223
(dp678
g223
F1.0
s(lp679
(g223
I48
tp680
atp681
asS'nl'
p682
(lp683
(S'dit'
p684
(dp685
S'PRON'
p686
F1.0
s(lp687
(g7
I0
tp688
atp689
a(S'is'
p690
(dp691
S'VERB'
p692
F1.0
s(lp693
(g14
I1
tp694
atp695
a(S'te'
p696
(dp697
S'PRT'
p698
F1.0
s(lp699
(g21
I2
tp700
atp701
a(S'bereiken'
p702
(dp703
S'VERB'
p704
F0.9999929999999999
sS'NOUN'
p705
F7e-06
s(lp706
(g29
I3
tp707
atp708
a(S'via'
p709
(dp710
S'ADP'
p711
F1.0
s(lp712
(g114
I4
tp713
atp714
a(S'vrijhandelsovereenkomsten'
p715
(dp716
S'NOUN'
p717
F1.0
s(lp718
(g62
I6
tp719
atp720
a(S'waarover'
p721
(dp722
S'ADV'
p723
F1.0
s(lp724
(g71
I9
tp725
atp726
a(S'we'
p727
(dp728
S'PRON'
p729
F1.0
s(lp730
(g78
I10
tp731
atp732
a(S'momenteel'
p733
(dp734
S'NOUN'
p735
F0.064475
sS'ADJ'
p736
F0.935525
s(lp737
(g92
I12
tp738
atp739
a(S'onderhandelen'
p740
(dp741
S'VERB'
p742
F0.117985
sS'NOUN'
p743
F0.882016
s(lp744
(g85
I13
tp745
atp746
a(S'en'
p747
(dp748
S'CONJ'
p749
F1.0
s(lp750
(g100
I14
tp751
atp752
a(S'door'
p753
(dp754
S'ADV'
p755
F2e-06
sS'CONJ'
p756
F1.5e-05
sS'ADP'
p757
F0.999983
s(lp758
(g121
I15
tp759
atp760
a(S'uitbreiding'
p761
(dp762
S'NOUN'
p763
F1.0
s(lp764
(g135
I16
tp765
atp766
a(S'van'
p767
(dp768
S'ADP'
p769
F1.0
s(lp770
tp771
a(S'handels-'
p772
(dp773
S'NOUN'
p774
F1.0
s(lp775
(g156
I17
tp776
atp777
a(S'en'
p778
(dp779
S'CONJ'
p780
F1.0
s(lp781
(g163
I18
tp782
atp783
a(S'economische'
p784
(dp785
S'NOUN'
p786
F0.0
sS'ADJ'
p787
F1.0
s(lp788
(g171
I19
tp789
atp790
a(S'partnerschappen'
p791
(dp792
S'NOUN'
p793
F1.0
s(lp794
(g148
I20
tp795
atp796
a(S'met'
p797
(dp798
S'ADP'
p799
F1.0
s(lp800
(g179
I21
tp801
atp802
a(S'belangrijke'
p803
(dp804
S'NOUN'
p805
F1.1e-05
sS'ADJ'
p806
F0.999989
s(lp807
(g210
I22
tp808
atp809
a(S'handelspartners'
p810
(dp811
S'NOUN'
p812
F1.0
s(lp813
(g202
I23
tp814
atp815
a(S'zoals'
p816
(dp817
S'CONJ'
p818
F1.0
s(lp819
(g187
I25
tp820
atp821
a(S'de'
p822
(dp823
S'DET'
p824
F1.0
s(lp825
(g250
I31
tp826
atp827
a(S'vs'
p828
(dp829
S'ADJ'
p830
F0.089655
sS'NOUN'
p831
F0.9103450000000001
s(lp832
(g258
I32
tp833
atp834
a(S'en'
p835
(dp836
S'CONJ'
p837
F1.0
s(lp838
(g265
I33
tp839
atp840
a(S'china'
p841
(dp842
S'ADJ'
p843
F0.000594
sS'NOUN'
p844
F0.9994069999999999
s(lp845
(g280
I34
tp846
atp847
a(g221
(dp848
g223
F1.0
s(lp849
(g221
I35
tp850
atp851
a(S'waar'
p852
(dp853
S'ADV'
p854
F0.999999
sS'ADJ'
p855
F1e-06
sS'NOUN'
p856
F1e-06
s(lp857
(g292
I36
tp858
atp859
a(S'het'
p860
(dp861
S'PRON'
p862
F0.023969999999999998
sS'DET'
p863
F0.97603
s(lp864
(g300
I37
tp865
atp866
a(S'eg-verdrag'
p867
(dp868
S'NOUN'
p869
F1.0
s(lp870
(g307
I38
tp871
atp872
a(S'en'
p873
(dp874
S'CONJ'
p875
F1.0
s(lp876
(g314
I39
tp877
atp878
a(S'de'
p879
(dp880
S'DET'
p881
F1.0
s(lp882
(g322
I40
tp883
atp884
a(S'dialoog'
p885
(dp886
S'NOUN'
p887
F1.0
s(lp888
(g330
I42
tp889
atp890
a(S'op'
p891
(dp892
S'ADV'
p893
F0.045854
sS'ADJ'
p894
F1e-06
sS'ADP'
p895
F0.954144
s(lp896
(g337
I41
tp897
atp898
a(S'hoog'
p899
(dp900
S'VERB'
p901
F9.8e-05
sS'ADJ'
p902
F0.999902
s(lp903
tp904
a(S'niveau'
p905
(dp906
S'NOUN'
p907
F1.0
s(lp908
(g337
I41
tp909
atp910
a(S'al'
p911
(dp912
S'ADV'
p913
F0.633181
sS'PRON'
p914
F0.000811
sS'CONJ'
p915
F0.366008
s(lp916
(g364
I44
tp917
atp918
a(S'een'
p919
(dp920
S'ADJ'
p921
F6e-06
sS'PRON'
p922
F0.000703
sS'NUM'
p923
F2e-06
sS'DET'
p924
F0.99929
s(lp925
tp926
a(S'solide'
p927
(dp928
S'ADJ'
p929
F1.0
s(lp930
(g393
I46
tp931
atp932
a(S'basis'
p933
(dp934
S'NOUN'
p935
F1.0
s(lp936
(g385
I47
tp937
atp938
a(S'hebben'
p939
(dp940
S'VERB'
p941
F1.0
sS'NOUN'
p942
F0.0
s(lp943
(g357
I43
tp944
atp945
a(S'gelegd'
p946
(dp947
S'VERB'
p948
F1.0
s(lp949
(g372
I45
tp950
atp951
a(g223
(dp952
g223
F1.0
s(lp953
(g223
I48
tp954
atp955
asS'de'
p956
(lp957
(S'das'
p958
(dp959
S'PRON'
p960
F0.99851
sS'DET'
p961
F0.001372
s(lp962
(g7
I0
tp963
atp964
a(S'wird'
p965
(dp966
S'VERB'
p967
F1.0
s(lp968
(g14
I1
tp969
atp970
a(S'durch'
p971
(dp972
S'ADV'
p973
F0.000241
sS'ADP'
p974
F0.999759
s(lp975
(g114
I4
tp976
atp977
a(S'die'
p978
(dp979
S'PRON'
p980
F0.002557
sS'DET'
p981
F0.996812
s(lp982
(g41
I5
tp983
atp984
a(S'freihandelsabkommen'
p985
(dp986
S'ADJ'
p987
F0.9982340000000001
s(lp988
(g62
I6
tp989
atp990
a(S'erzielt'
p991
(dp992
S'VERB'
p993
F0.995232
sS'ADJ'
p994
F0.004754
s(lp995
(g29
I3
tp996
atp997
a(S'werden'
p998
(dp999
S'VERB'
p1000
F0.9999950000000001
s(lp1001
(g21
I2
tp1002
atp1003
a(g221
(dp1004
g223
F1.0
s(lp1005
tp1006
a(S'die'
p1007
(dp1008
S'PRON'
p1009
F0.999622
sS'DET'
p1010
F0.000205
s(lp1011
(g71
I9
tp1012
atp1013
a(S'wir'
p1014
(dp1015
S'PRON'
p1016
F1.0
s(lp1017
(g78
I10
tp1018
atp1019
a(S'zur'
p1020
(dp1021
S'ADP'
p1022
F1.0
s(lp1023
tp1024
a(S'zeit'
p1025
(dp1026
S'ADP'
p1027
F1.0
s(lp1028
(g92
I12
tp1029
atp1030
a(S'verhandeln'
p1031
(dp1032
S'VERB'
p1033
F1.0
s(lp1034
(g85
I13
tp1035
atp1036
a(S'und'
p1037
(dp1038
S'CONJ'
p1039
F1.0
s(lp1040
(g100
I14
tp1041
atp1042
a(S'durch'
p1043
(dp1044
S'ADV'
p1045
F0.00023
sS'ADP'
p1046
F0.99977
s(lp1047
(g121
I15
tp1048
atp1049
a(S'eine'
p1050
(dp1051
S'NUM'
p1052
F0.000437
sS'DET'
p1053
F0.999361
s(lp1054
tp1055
a(S'vertiefung'
p1056
(dp1057
S'ADJ'
p1058
F9.3e-05
sS'NOUN'
p1059
F0.999804
s(lp1060
(g135
I16
tp1061
atp1062
a(S'der'
p1063
(dp1064
S'PRON'
p1065
F0.000206
sS'DET'
p1066
F0.999792
s(lp1067
tp1068
a(S'handels-'
p1069
(dp1070
S'X'
p1071
F1.0
s(lp1072
(g156
I17
tp1073
atp1074
a(S'und'
p1075
(dp1076
S'CONJ'
p1077
F1.0
s(lp1078
(g163
I18
tp1079
atp1080
a(S'wirtschaftspartnerschaften'
p1081
(dp1082
S'VERB'
p1083
F0.018257
sS'NOUN'
p1084
F0.960393
s(lp1085
(g148
I20
tp1086
atp1087
a(S'mit'
p1088
(dp1089
S'PRT'
p1090
F0.000329
sS'ADP'
p1091
F0.999671
s(lp1092
(g179
I21
tp1093
atp1094
a(S'den'
p1095
(dp1096
S'PRON'
p1097
F0.000113
sS'DET'
p1098
F0.999886
s(lp1099
tp1100
a(S'wichtigsten'
p1101
(dp1102
S'ADJ'
p1103
F1.0
s(lp1104
(g210
I22
tp1105
atp1106
a(S'handelspartnern'
p1107
(dp1108
S'VERB'
p1109
F0.001824
sS'NOUN'
p1110
F0.997469
s(lp1111
(g202
I23
tp1112
atp1113
a(g221
(dp1114
g223
F1.0
s(lp1115
(g221
I27
tp1116
atp1117
a(S'wie'
p1118
(dp1119
S'CONJ'
p1120
F0.997471
s(lp1121
(g218
I26
tp1122
atp1123
a(S'etwa'
p1124
(dp1125
S'ADV'
p1126
F1.0
s(lp1127
(g237
I29
tp1128
atp1129
a(S'den'
p1130
(dp1131
S'PRON'
p1132
F0.000128
sS'DET'
p1133
F0.999871
s(lp1134
(g250
I31
tp1135
atp1136
a(S'usa'
p1137
(dp1138
S'NOUN'
p1139
F0.99366
s(lp1140
(g258
I32
tp1141
atp1142
a(S'und'
p1143
(dp1144
S'CONJ'
p1145
F1.0
s(lp1146
(g265
I33
tp1147
atp1148
a(S'china'
p1149
(dp1150
S'ADJ'
p1151
F0.090672
sS'NOUN'
p1152
F0.840891
s(lp1153
(g280
I34
tp1154
atp1155
a(g221
(dp1156
g223
F1.0
s(lp1157
(g221
I35
tp1158
atp1159
a(S'f\xc3\xbcr'
p1160
(dp1161
S'ADP'
p1162
F1.0
s(lp1163
(g292
I36
tp1164
atp1165
a(S'die'
p1166
(dp1167
S'PRON'
p1168
F0.000417
sS'DET'
p1169
F0.999535
s(lp1170
(g300
I37
tp1171
atp1172
a(S'tec'
p1173
(dp1174
g1071
F0.530189
sS'ADJ'
p1175
F0.268786
s(lp1176
(g307
I38
tp1177
atp1178
a(S'und'
p1179
(dp1180
S'CONJ'
p1181
F1.0
s(lp1182
(g314
I39
tp1183
atp1184
a(S'hochrangige'
p1185
(dp1186
S'ADJ'
p1187
F1.0
s(lp1188
(g337
I41
tp1189
atp1190
a(S'gespr\xc3\xa4che'
p1191
(dp1192
S'VERB'
p1193
F0.001406
sS'NOUN'
p1194
F0.998556
s(lp1195
(g330
I42
tp1196
atp1197
a(S'bereits'
p1198
(dp1199
S'ADV'
p1200
F1.0
s(lp1201
(g364
I44
tp1202
atp1203
a(S'ein'
p1204
(dp1205
S'NUM'
p1206
F0.000768
sS'DET'
p1207
F0.998478
s(lp1208
tp1209
a(S'gutes'
p1210
(dp1211
S'ADJ'
p1212
F1.0
s(lp1213
(g393
I46
tp1214
atp1215
a(S'fundament'
p1216
(dp1217
S'ADJ'
p1218
F0.002361
sS'NOUN'
p1219
F0.99538
s(lp1220
(g385
I47
tp1221
atp1222
a(S'gebildet'
p1223
(dp1224
S'VERB'
p1225
F0.995362
sS'ADJ'
p1226
F0.004638
s(lp1227
(g372
I45
tp1228
atp1229
a(S'haben'
p1230
(dp1231
S'VERB'
p1232
F0.9999720000000001
s(lp1233
(g357
I43
tp1234
atp1235
a(g223
(dp1236
g223
F1.0
s(lp1237
(g223
I48
tp1238
atp1239
asS'it'
p1240
(lp1241
(S'strumentali'
p1242
(dp1243
S'ADJ'
p1244
F0.423774
sS'VERB'
p1245
F0.018709
sS'NOUN'
p1246
F0.557517
s(lp1247
(g114
I4
tp1248
atp1249
a(S'a'
p1250
(dp1251
S'CONJ'
p1252
F0.001407
sS'ADP'
p1253
F0.998593
s(lp1254
tp1255
a(S'questo'
p1256
(dp1257
S'PRON'
p1258
F1.0
s(lp1259
(g7
I0
tp1260
atp1261
a(S'scopo'
p1262
(dp1263
S'VERB'
p1264
F0.003589
sS'NOUN'
p1265
F0.996411
s(lp1266
(g29
I3
tp1267
atp1268
a(S'sono'
p1269
(dp1270
S'VERB'
p1271
F0.999832
sS'NOUN'
p1272
F0.000168
s(lp1273
(g21
I2
tp1274
atp1275
a(S'gli'
p1276
(dp1277
S'PRON'
p1278
F2e-06
sS'DET'
p1279
F0.999998
s(lp1280
tp1281
a(S'accordi'
p1282
(dp1283
S'VERB'
p1284
F0.00028199999999999997
sS'NOUN'
p1285
F0.999718
s(lp1286
(g48
I8
tp1287
atp1288
a(S'di'
p1289
(dp1290
S'CONJ'
p1291
F1.6e-05
sS'ADP'
p1292
F0.999984
s(lp1293
tp1294
a(S'libero'
p1295
(dp1296
S'VERB'
p1297
F4e-06
sS'ADJ'
p1298
F0.999996
s(lp1299
(g62
I6
tp1300
atp1301
a(S'scambio'
p1302
(dp1303
S'VERB'
p1304
F0.021118
sS'NOUN'
p1305
F0.978882
s(lp1306
(g55
I7
tp1307
atp1308
a(S'che'
p1309
(dp1310
S'PRON'
p1311
F0.961371
sS'CONJ'
p1312
F0.037776
sS'ADJ'
p1313
F0.000853
s(lp1314
(g71
I9
tp1315
atp1316
a(S'stiamo'
p1317
(dp1318
S'VERB'
p1319
F1.0
s(lp1320
(g470
I11
tp1321
atp1322
a(S'negoziando'
p1323
(dp1324
S'VERB'
p1325
F1.0
s(lp1326
(g85
I13
tp1327
atp1328
a(S'e'
p1329
(dp1330
S'CONJ'
p1331
F1.0
s(lp1332
(g100
I14
tp1333
atp1334
a(S"l'"
p1335
(dp1336
S'NOUN'
p1337
F0.000589
sS'VERB'
p1338
F0.9933339999999999
sS'ADJ'
p1339
F0.006076
s(lp1340
tp1341
a(S'approfondimento'
p1342
(dp1343
S'NOUN'
p1344
F1.0
s(lp1345
(g135
I16
tp1346
atp1347
a(S'delle'
p1348
(dp1349
S'DEF'
p1350
F0.001048
sS'ADP'
p1351
F0.998952
s(lp1352
(g148
I20
tp1353
atp1354
a(S'alleanze'
p1355
(dp1356
S'NOUN'
p1357
F1.0
s(lp1358
tp1359
a(S'economiche'
p1360
(dp1361
S'ADJ'
p1362
F1.0
s(lp1363
(g171
I19
tp1364
atp1365
a(g1329
(dp1366
S'CONJ'
p1367
F1.0
s(lp1368
(g163
I18
tp1369
atp1370
a(S'commerciali'
p1371
(dp1372
S'VERB'
p1373
F0.020997
sS'ADJ'
p1374
F0.979003
s(lp1375
(g156
I17
tp1376
atp1377
a(S'con'
p1378
(dp1379
S'ADP'
p1380
F1.0
s(lp1381
(g179
I21
tp1382
atp1383
a(S'i'
p1384
(dp1385
S'DET'
p1386
F1.0
s(lp1387
(g148
I20
tp1388
atp1389
a(S'principali'
p1390
(dp1391
S'NOUN'
p1392
F0.008984
sS'ADJ'
p1393
F0.991016
s(lp1394
(g210
I22
tp1395
atp1396
a(S'partner'
p1397
(dp1398
S'NOUN'
p1399
F1.0
s(lp1400
(g194
I24
tp1401
atp1402
a(S'di'
p1403
(dp1404
S'CONJ'
p1405
F4e-06
sS'ADP'
p1406
F0.999996
s(lp1407
tp1408
a(S'scambio'
p1409
(dp1410
S'VERB'
p1411
F8.8e-05
sS'NOUN'
p1412
F0.999912
s(lp1413
(g202
I23
tp1414
atp1415
a(g221
(dp1416
g223
F1.0
s(lp1417
(g221
I27
tp1418
atp1419
a(S'quali'
p1420
(dp1421
S'PRON'
p1422
F0.9840019999999999
sS'ADJ'
p1423
F0.015999
s(lp1424
(g187
I25
tp1425
atp1426
a(S'per'
p1427
(dp1428
S'CONJ'
p1429
F0.000337
sS'ADP'
p1430
F0.999663
s(lp1431
(g570
I28
tp1432
atp1433
a(S'esempio'
p1434
(dp1435
S'NOUN'
p1436
F1.0
s(lp1437
(g237
I29
tp1438
atp1439
a(S'gli'
p1440
(dp1441
S'PRON'
p1442
F0.374404
sS'DET'
p1443
F0.625596
s(lp1444
(g250
I31
tp1445
atp1446
a(S'usa'
p1447
(dp1448
S'VERB'
p1449
F0.38976
sS'ADJ'
p1450
F0.61024
s(lp1451
(g258
I32
tp1452
atp1453
a(g1329
(dp1454
S'CONJ'
p1455
F1.0
s(lp1456
(g265
I33
tp1457
atp1458
a(S'la'
p1459
(dp1460
S'PRON'
p1461
F0.000602
sS'DET'
p1462
F0.999398
s(lp1463
tp1464
a(S'cina'
p1465
(dp1466
S'ADJ'
p1467
F0.000765
sS'VERB'
p1468
F0.00022300000000000003
sS'NOUN'
p1469
F0.999013
s(lp1470
(g280
I34
tp1471
atp1472
a(g221
(dp1473
g223
F1.0
s(lp1474
(g221
I35
tp1475
atp1476
a(S'per'
p1477
(dp1478
S'CONJ'
p1479
F0.176742
sS'ADP'
p1480
F0.823258
s(lp1481
tp1482
a(S'cui'
p1483
(dp1484
S'PRON'
p1485
F1.0
s(lp1486
(g292
I36
tp1487
atp1488
a(S'il'
p1489
(dp1490
S'DET'
p1491
F1.0
s(lp1492
(g300
I37
tp1493
atp1494
a(S'tec'
p1495
(dp1496
S'ADJ'
p1497
F0.291487
sS'VERB'
p1498
F2.4e-05
sS'NOUN'
p1499
F0.708489
s(lp1500
(g307
I38
tp1501
atp1502
a(g1329
(dp1503
S'CONJ'
p1504
F1.0
s(lp1505
(g314
I39
tp1506
atp1507
a(S'il'
p1508
(dp1509
S'DET'
p1510
F1.0
s(lp1511
(g322
I40
tp1512
atp1513
a(S'dialogo'
p1514
(dp1515
S'VERB'
p1516
F8.3e-05
sS'NOUN'
p1517
F0.999917
s(lp1518
(g330
I42
tp1519
atp1520
a(S'di'
p1521
(dp1522
S'CONJ'
p1523
F1.6e-05
sS'ADP'
p1524
F0.999984
s(lp1525
(g337
I41
tp1526
atp1527
a(S'alto'
p1528
(dp1529
S'NOUN'
p1530
F0.004014
sS'ADJ'
p1531
F0.995986
s(lp1532
tp1533
a(S'livello'
p1534
(dp1535
S'VERB'
p1536
F0.00028
sS'NOUN'
p1537
F0.99972
s(lp1538
(g337
I41
tp1539
atp1540
a(S'hanno'
p1541
(dp1542
S'VERB'
p1543
F1.0
s(lp1544
(g357
I43
tp1545
atp1546
a(S'gi\xc3\xa0'
p1547
(dp1548
S'ADV'
p1549
F1.0
s(lp1550
(g364
I44
tp1551
atp1552
a(S'posto'
p1553
(dp1554
S'ADJ'
p1555
F0.002558
sS'VERB'
p1556
F0.979968
sS'NOUN'
p1557
F0.017474
s(lp1558
(g372
I45
tp1559
atp1560
a(S'solide'
p1561
(dp1562
S'ADJ'
p1563
F1.0
s(lp1564
(g393
I46
tp1565
atp1566
a(S'basi'
p1567
(dp1568
S'VERB'
p1569
F0.003076
sS'NOUN'
p1570
F0.996925
s(lp1571
(g385
I47
tp1572
atp1573
a(g223
(dp1574
g223
F1.0
s(lp1575
(g223
I48
tp1576
atp1577
asS'sk'
p1578
(lp1579
(S'dosiahne'
p1580
(dp1581
S'VERB'
p1582
F1.0
s(lp1583
(g29
I3
tp1584
atp1585
a(S'sa'
p1586
(dp1587
S'PRT'
p1588
F0.998386
sS'ADP'
p1589
F0.001046
sg1071
F0.000568
s(lp1590
(g21
I2
tp1591
atp1592
a(S'to'
p1593
(dp1594
S'PRON'
p1595
F0.9632040000000001
sS'CONJ'
p1596
F0.001882
sg1071
F0.034914
s(lp1597
(g7
I0
tp1598
atp1599
a(S'pomocou'
p1600
(dp1601
S'NOUN'
p1602
F0.405828
sS'ADP'
p1603
F0.594172
s(lp1604
(g114
I4
tp1605
atp1606
a(S'doh\xc3\xb4d'
p1607
(dp1608
S'NOUN'
p1609
F1.0
s(lp1610
tp1611
a(S'o'
p1612
(dp1613
g1071
F8.4e-05
sS'CONJ'
p1614
F7.7e-05
sS'NOUN'
p1615
F1e-05
sS'ADP'
p1616
F0.999829
s(lp1617
(g41
I5
tp1618
atp1619
a(S'vo\xc4\xbenom'
p1620
(dp1621
S'NOUN'
p1622
F0.00288
sS'ADJ'
p1623
F0.99712
s(lp1624
(g62
I6
tp1625
atp1626
a(S'obchode'
p1627
(dp1628
S'NOUN'
p1629
F1.0
s(lp1630
(g55
I7
tp1631
atp1632
a(g221
(dp1633
g223
F1.0
s(lp1634
tp1635
a(g1612
(dp1636
g1071
F0.00020999999999999998
sS'CONJ'
p1637
F0.00254
sS'NOUN'
p1638
F1.3000000000000001e-05
sS'ADP'
p1639
F0.997237
s(lp1640
(g48
I8
tp1641
atp1642
a(S'ktor\xc3\xbdch'
p1643
(dp1644
S'PRON'
p1645
F1.0
s(lp1646
(g71
I9
tp1647
atp1648
a(S'moment\xc3\xa1lne'
p1649
(dp1650
S'ADV'
p1651
F0.979629
sS'ADJ'
p1652
F0.020371
s(lp1653
(g92
I12
tp1654
atp1655
a(S'rokujeme'
p1656
(dp1657
S'VERB'
p1658
F1.0
s(lp1659
(g85
I13
tp1660
atp1661
a(g221
(dp1662
g223
F1.0
s(lp1663
tp1664
a(g1250
(dp1665
g1071
F0.000375
sS'CONJ'
p1666
F0.999575
sS'NOUN'
p1667
F9e-06
sS'ADP'
p1668
F4e-05
sS'PRT'
p1669
F2e-06
s(lp1670
(g100
I14
tp1671
atp1672
a(S'preh\xc4\xbaben\xc3\xadm'
p1673
(dp1674
S'NOUN'
p1675
F1.0
s(lp1676
(g135
I16
tp1677
atp1678
a(S'obchodn\xc3\xbdch'
p1679
(dp1680
S'ADJ'
p1681
F1.0
s(lp1682
(g156
I17
tp1683
atp1684
a(g1250
(dp1685
g1071
F0.00047799999999999996
sS'CONJ'
p1686
F0.998379
sS'NOUN'
p1687
F0.001055
sS'ADP'
p1688
F7.2e-05
sS'PRT'
p1689
F1.6e-05
s(lp1690
(g163
I18
tp1691
atp1692
a(S'hospod\xc3\xa1rskych'
p1693
(dp1694
S'ADJ'
p1695
F1.0
s(lp1696
(g171
I19
tp1697
atp1698
a(S'partnerstiev'
p1699
(dp1700
S'NOUN'
p1701
F1.0
s(lp1702
(g148
I20
tp1703
atp1704
a(S's'
p1705
(dp1706
g1071
F0.000279
sS'CONJ'
p1707
F7.8e-05
sS'NOUN'
p1708
F1.8e-05
sS'ADP'
p1709
F0.999543
sS'PRT'
p1710
F8.2e-05
s(lp1711
(g179
I21
tp1712
atp1713
a(S'k\xc4\xbe\xc3\xba\xc4\x8dov\xc3\xbdmi'
p1714
(dp1715
S'ADJ'
p1716
F1.0
s(lp1717
(g210
I22
tp1718
atp1719
a(S'obchodn\xc3\xbdmi'
p1720
(dp1721
S'ADJ'
p1722
F1.0
s(lp1723
(g202
I23
tp1724
atp1725
a(S'partnermi'
p1726
(dp1727
S'NOUN'
p1728
F1.0
s(lp1729
(g194
I24
tp1730
atp1731
a(g221
(dp1732
g223
F1.0
s(lp1733
(g221
I27
tp1734
atp1735
a(S'ako'
p1736
(dp1737
S'PRON'
p1738
F0.058767
sS'CONJ'
p1739
F0.941089
sg1071
F0.000144
s(lp1740
(g218
I26
tp1741
atp1742
a(S's\xc3\xba'
p1743
(dp1744
S'VERB'
p1745
F1.0
s(lp1746
(g187
I25
tp1747
atp1748
a(S'napr\xc3\xadklad'
p1749
(dp1750
g1071
F1.0
s(lp1751
(g237
I29
tp1752
atp1753
a(S'usa'
p1754
(dp1755
S'VERB'
p1756
F0.033781999999999986
sS'NOUN'
p1757
F0.9662189999999999
s(lp1758
(g258
I32
tp1759
atp1760
a(g1250
(dp1761
g1071
F0.002626
sS'CONJ'
p1762
F0.996332
sS'NOUN'
p1763
F0.000189
sS'ADP'
p1764
F0.000819
sS'PRT'
p1765
F3.4e-05
s(lp1766
(g265
I33
tp1767
atp1768
a(S'\xc4\x8c\xc3\xadna'
p1769
(dp1770
S'NOUN'
p1771
F1.0
s(lp1772
(g280
I34
tp1773
atp1774
a(g221
(dp1775
g223
F1.0
s(lp1776
(g221
I35
tp1777
atp1778
a(S'kde'
p1779
(dp1780
S'PRON'
p1781
F0.999865
sg1071
F0.000135
s(lp1782
(g292
I36
tp1783
atp1784
a(S'u\xc5\xbe'
p1785
(dp1786
S'ADV'
p1787
F0.437894
sg1071
F0.561878
sS'CONJ'
p1788
F0.000227
s(lp1789
(g364
I44
tp1790
atp1791
a(S'transatlantick\xc3\xa1'
p1792
(dp1793
S'VERB'
p1794
F0.005418
sS'ADJ'
p1795
F0.994582
s(lp1796
(g307
I38
tp1797
atp1798
a(S'hospod\xc3\xa1rska'
p1799
(dp1800
S'ADJ'
p1801
F1.0
s(lp1802
tp1803
a(S'rada'
p1804
(dp1805
S'ADJ'
p1806
F0.330101
sS'NOUN'
p1807
F0.669899
s(lp1808
(g307
I38
tp1809
atp1810
a(g1250
(dp1811
g1071
F0.001787
sS'CONJ'
p1812
F0.997112
sS'NOUN'
p1813
F0.000627
sS'ADP'
p1814
F0.000434
sS'PRT'
p1815
F3.9e-05
s(lp1816
(g314
I39
tp1817
atp1818
a(S'dial\xc3\xb3gy'
p1819
(dp1820
S'NOUN'
p1821
F1.0
s(lp1822
(g330
I42
tp1823
atp1824
a(S'na'
p1825
(dp1826
g1071
F8e-06
sS'CONJ'
p1827
F2.4e-05
sS'ADP'
p1828
F0.999964
sS'PRT'
p1829
F5e-06
s(lp1830
(g337
I41
tp1831
atp1832
a(S'vysokej'
p1833
(dp1834
S'NOUN'
p1835
F0.001145
sS'ADJ'
p1836
F0.998855
s(lp1837
tp1838
a(S'\xc3\xbarovni'
p1839
(dp1840
S'NOUN'
p1841
F1.0
s(lp1842
(g337
I41
tp1843
atp1844
a(S'polo\xc5\xbeili'
p1845
(dp1846
S'VERB'
p1847
F1.0
s(lp1848
(g372
I45
tp1849
atp1850
a(S'pevn\xc3\xa9'
p1851
(dp1852
S'ADJ'
p1853
F1.0
s(lp1854
(g393
I46
tp1855
atp1856
a(S'z\xc3\xa1klady'
p1857
(dp1858
S'NOUN'
p1859
F1.0
s(lp1860
(g385
I47
tp1861
atp1862
a(g223
(dp1863
g223
F1.0
s(lp1864
(g223
I48
tp1865
atp1866
asS'pl'
p1867
(lp1868
(S'zadanie'
p1869
(dp1870
S'VERB'
p1871
F0.005346999999999999
sS'NOUN'
p1872
F0.994654
s(lp1873
(g7
I0
tp1874
atp1875
a(S'to'
p1876
(dp1877
S'NOUN'
p1878
F0.891626
sS'ADP'
p1879
F0.0
sS'PRT'
p1880
F0.00843
sg1071
F0.0
sS'CONJ'
p1881
F0.078418
sS'ADJ'
p1882
F0.021527
s(lp1883
(g21
I2
tp1884
atp1885
a(S'zrealizowane'
p1886
(dp1887
S'VERB'
p1888
F1.0
s(lp1889
(g29
I3
tp1890
atp1891
a(S'zostanie'
p1892
(dp1893
S'VERB'
p1894
F1.0
s(lp1895
(g14
I1
tp1896
atp1897
a(S'poprzez'
p1898
(dp1899
S'ADP'
p1900
F1.0
s(lp1901
tp1902
a(S'negocjowane'
p1903
(dp1904
S'ADV'
p1905
F0.00229
sS'ADJ'
p1906
F0.040907000000000006
sS'VERB'
p1907
F0.7191869999999998
sS'NOUN'
p1908
F0.2376190000000001
s(lp1909
(g85
I13
tp1910
atp1911
a(S'przez'
p1912
(dp1913
S'ADP'
p1914
F1.0
s(lp1915
(g71
I9
tp1916
atp1917
a(S'nas'
p1918
(dp1919
S'PRON'
p1920
F1.000001
s(lp1921
(g78
I10
tp1922
atp1923
a(S'obecnie'
p1924
(dp1925
S'ADV'
p1926
F1.0
s(lp1927
(g92
I12
tp1928
atp1929
a(S'umowy'
p1930
(dp1931
S'NOUN'
p1932
F1.0
s(lp1933
tp1934
a(g1612
(dp1935
g1071
F5.6e-05
sS'VERB'
p1936
F0.0
sS'NOUN'
p1937
F4e-06
sS'ADP'
p1938
F0.9999399999999999
sS'PRT'
p1939
F0.0
s(lp1940
(g48
I8
tp1941
atp1942
a(S'wolnym'
p1943
(dp1944
S'ADJ'
p1945
F0.9999999999999999
s(lp1946
(g62
I6
tp1947
atp1948
a(S'handlu'
p1949
(dp1950
S'NOUN'
p1951
F1.0
s(lp1952
(g55
I7
tp1953
atp1954
a(S'oraz'
p1955
(dp1956
S'CONJ'
p1957
F1.0
s(lp1958
(g100
I14
tp1959
atp1960
a(S'poprzez'
p1961
(dp1962
S'ADP'
p1963
F1.0
s(lp1964
(g121
I15
tp1965
atp1966
a(S'pog\xc5\x82\xc4\x99bienie'
p1967
(dp1968
S'VERB'
p1969
F1.0
s(lp1970
(g135
I16
tp1971
atp1972
a(S'partnerstw'
p1973
(dp1974
S'ADV'
p1975
F2.8e-05
sS'ADJ'
p1976
F2.9e-05
sS'VERB'
p1977
F0.00031200000000000005
sS'NOUN'
p1978
F0.9996299999999998
s(lp1979
(g148
I20
tp1980
atp1981
a(S'handlowych'
p1982
(dp1983
S'ADJ'
p1984
F0.999999
s(lp1985
(g156
I17
tp1986
atp1987
a(g1384
(dp1988
S'PRT'
p1989
F0.002923
sS'CONJ'
p1990
F0.996883
sS'NOUN'
p1991
F3.3e-05
sg1071
F7e-06
sS'PRON'
p1992
F0.000154
s(lp1993
(g163
I18
tp1994
atp1995
a(S'gospodarczych'
p1996
(dp1997
S'ADJ'
p1998
F1.0000010000000001
s(lp1999
(g171
I19
tp2000
atp2001
a(S'z'
p2002
(dp2003
S'PRT'
p2004
F1.1e-05
sS'VERB'
p2005
F0.0
sS'NOUN'
p2006
F0.0
sS'ADP'
p2007
F0.9999880000000001
sg1071
F0.0
s(lp2008
(g179
I21
tp2009
atp2010
a(S'naszymi'
p2011
(dp2012
S'ADJ'
p2013
F1.0000010000000001
s(lp2014
tp2015
a(S'kluczowymi'
p2016
(dp2017
S'ADJ'
p2018
F1.0
s(lp2019
(g210
I22
tp2020
atp2021
a(S'partnerami'
p2022
(dp2023
S'NOUN'
p2024
F1.0
s(lp2025
(g194
I24
tp2026
atp2027
a(S'handlowymi'
p2028
(dp2029
S'ADJ'
p2030
F0.9999999999999999
s(lp2031
(g202
I23
tp2032
atp2033
a(g221
(dp2034
g1071
F0.0
sg223
F1.0
s(lp2035
(g221
I27
tp2036
atp2037
a(S'jak'
p2038
(dp2039
S'ADV'
p2040
F0.807195
sS'PRT'
p2041
F0.001182
sS'CONJ'
p2042
F0.09113500000000001
sS'ADP'
p2043
F0.100462
sS'PRON'
p2044
F2.5e-05
s(lp2045
(g218
I26
tp2046
atp2047
a(S'na'
p2048
(dp2049
S'PRT'
p2050
F6e-06
sS'VERB'
p2051
F1.8e-05
sS'NOUN'
p2052
F1e-06
sS'ADP'
p2053
F0.999972
sg1071
F3e-06
s(lp2054
(g570
I28
tp2055
atp2056
a(S'przyk\xc5\x82ad'
p2057
(dp2058
S'NOUN'
p2059
F1.0
s(lp2060
(g237
I29
tp2061
atp2062
a(S'stany'
p2063
(dp2064
S'NOUN'
p2065
F1.0
s(lp2066
tp2067
a(S'zjednoczone'
p2068
(dp2069
S'ADV'
p2070
F0.000715
sS'NOUN'
p2071
F0.08382999999999999
sS'VERB'
p2072
F0.3207269999999999
sS'ADJ'
p2073
F0.5947260000000001
s(lp2074
(g258
I32
tp2075
atp2076
a(S'czy'
p2077
(dp2078
S'PRT'
p2079
F0.14901
sS'CONJ'
p2080
F0.849359
sS'NUM'
p2081
F0.001273
sS'NOUN'
p2082
F0.000358
s(lp2083
(g265
I33
tp2084
atp2085
a(S'chiny'
p2086
(dp2087
S'ADJ'
p2088
F0.0016849999999999999
sS'VERB'
p2089
F0.014059
sS'NOUN'
p2090
F0.984256
s(lp2091
(g280
I34
tp2092
atp2093
a(g221
(dp2094
g1071
F0.0
sg223
F1.0
s(lp2095
(g221
I35
tp2096
atp2097
a(S'w'
p2098
(dp2099
S'ADJ'
p2100
F0.0
sg1071
F1e-06
sS'NOUN'
p2101
F0.0
sS'ADP'
p2102
F1.0
s(lp2103
tp2104
a(S'przypadku'
p2105
(dp2106
S'NOUN'
p2107
F1.0
s(lp2108
tp2109
a(S'kt\xc3\xb3rych'
p2110
(dp2111
S'ADJ'
p2112
F1.000001
s(lp2113
(g292
I36
tp2114
atp2115
a(S'stworzyli\xc5\x9bmy'
p2116
(dp2117
S'ADV'
p2118
F0.00121
sS'ADJ'
p2119
F0.005735
sS'VERB'
p2120
F0.8171800000000002
sS'NOUN'
p2121
F0.17587599999999995
s(lp2122
(g307
I38
tp2123
atp2124
a(S'ju\xc5\xbc'
p2125
(dp2126
S'PRT'
p2127
F1.0
s(lp2128
(g364
I44
tp2129
atp2130
a(S'solidne'
p2131
(dp2132
S'ADJ'
p2133
F1.0
s(lp2134
(g393
I46
tp2135
atp2136
a(S'podstawy'
p2137
(dp2138
S'NOUN'
p2139
F1.0
s(lp2140
(g385
I47
tp2141
atp2142
a(S'poprzez'
p2143
(dp2144
S'ADP'
p2145
F1.0
s(lp2146
(g114
I4
tp2147
atp2148
a(S'ustanowienie'
p2149
(dp2150
S'VERB'
p2151
F1.0
s(lp2152
(g307
I38
tp2153
atp2154
a(S'transatlantyckiej'
p2155
(dp2156
S'ADV'
p2157
F2e-06
sS'NOUN'
p2158
F0.011014
sS'VERB'
p2159
F0.001468
sS'ADJ'
p2160
F0.987515
sS'PRT'
p2161
F1e-06
s(lp2162
(g307
I38
tp2163
atp2164
a(S'rady'
p2165
(dp2166
S'NOUN'
p2167
F1.0
s(lp2168
tp2169
a(S'gospodarczej'
p2170
(dp2171
S'ADJ'
p2172
F0.9999990000000001
s(lp2173
(g307
I38
tp2174
atp2175
a(S'oraz'
p2176
(dp2177
S'CONJ'
p2178
F1.0
s(lp2179
(g314
I39
tp2180
atp2181
a(S'dialogu'
p2182
(dp2183
S'NOUN'
p2184
F1.0
s(lp2185
(g330
I42
tp2186
atp2187
a(S'wysokiego'
p2188
(dp2189
S'ADJ'
p2190
F0.9999999999999999
s(lp2191
tp2192
a(S'szczebla'
p2193
(dp2194
S'NOUN'
p2195
F1.0
s(lp2196
(g337
I41
tp2197
atp2198
a(g223
(dp2199
g223
F1.0
s(lp2200
(g223
I48
tp2201
atp2202
asS'sl'
p2203
(lp2204
(S'to'
p2205
(dp2206
S'PRON'
p2207
F0.999935
sg1071
F6.6e-05
s(lp2208
(g7
I0
tp2209
atp2210
a(S'bomo'
p2211
(dp2212
S'VERB'
p2213
F1.0
s(lp2214
(g14
I1
tp2215
atp2216
a(S'dosegli'
p2217
(dp2218
S'VERB'
p2219
F1.000001
s(lp2220
(g29
I3
tp2221
atp2222
a(g1705
(dp2223
S'VERB'
p2224
F2e-06
sS'NOUN'
p2225
F6e-06
sS'ADP'
p2226
F0.9999920000000001
s(lp2227
(g114
I4
tp2228
atp2229
a(S'sporazumi'
p2230
(dp2231
S'NOUN'
p2232
F1.0
s(lp2233
tp2234
a(g1612
(dp2235
S'NOUN'
p2236
F2e-06
sS'ADP'
p2237
F0.999998
s(lp2238
(g41
I5
tp2239
atp2240
a(S'prosti'
p2241
(dp2242
S'ADJ'
p2243
F1.0
s(lp2244
(g62
I6
tp2245
atp2246
a(S'trgovini'
p2247
(dp2248
S'NOUN'
p2249
F1.0
s(lp2250
(g55
I7
tp2251
atp2252
a(g221
(dp2253
g223
F1.0
s(lp2254
tp2255
a(g1612
(dp2256
S'NOUN'
p2257
F7.1e-05
sS'ADP'
p2258
F0.999929
s(lp2259
(g48
I8
tp2260
atp2261
a(S'katerih'
p2262
(dp2263
S'PRON'
p2264
F1.0
s(lp2265
(g71
I9
tp2266
atp2267
a(S'se'
p2268
(dp2269
S'PRON'
p2270
F0.999978
sg1071
F2.2e-05
s(lp2271
(g470
I11
tp2272
atp2273
a(S'trenutno'
p2274
(dp2275
S'ADV'
p2276
F0.999533
sS'ADJ'
p2277
F0.000467
s(lp2278
(g92
I12
tp2279
atp2280
a(S'pogajamo'
p2281
(dp2282
S'ADV'
p2283
F0.000433
sS'ADJ'
p2284
F0.0016999999999999997
sS'VERB'
p2285
F0.9930410000000002
sS'NOUN'
p2286
F0.004823999999999998
s(lp2287
(g85
I13
tp2288
atp2289
a(g221
(dp2290
g223
F1.0
s(lp2291
tp2292
a(S'in'
p2293
(dp2294
S'ADV'
p2295
F0.000326
sg1071
F6e-06
sS'CONJ'
p2296
F0.999623
sS'NOUN'
p2297
F4.5e-05
s(lp2298
(g100
I14
tp2299
atp2300
a(g1705
(dp2301
S'VERB'
p2302
F8e-06
sS'NOUN'
p2303
F1.7e-05
sS'ADP'
p2304
F0.999976
s(lp2305
(g121
I15
tp2306
atp2307
a(S'poglobitvijo'
p2308
(dp2309
S'ADV'
p2310
F1.6e-05
sS'ADJ'
p2311
F0.0
sS'VERB'
p2312
F0.0
sS'NOUN'
p2313
F0.9999819999999997
s(lp2314
(g135
I16
tp2315
atp2316
a(S'trgovinskih'
p2317
(dp2318
S'ADJ'
p2319
F1.0
s(lp2320
(g156
I17
tp2321
atp2322
a(S'in'
p2323
(dp2324
S'ADV'
p2325
F5e-05
sg1071
F2e-06
sS'CONJ'
p2326
F0.999945
sS'NOUN'
p2327
F3e-06
s(lp2328
(g163
I18
tp2329
atp2330
a(S'gospodarskih'
p2331
(dp2332
S'ADJ'
p2333
F1.0
s(lp2334
(g171
I19
tp2335
atp2336
a(S'partnerstev'
p2337
(dp2338
S'NOUN'
p2339
F1.0
s(lp2340
(g148
I20
tp2341
atp2342
a(g1705
(dp2343
S'VERB'
p2344
F1e-06
sS'NOUN'
p2345
F2e-06
sS'ADP'
p2346
F0.9999969999999999
s(lp2347
(g179
I21
tp2348
atp2349
a(S'klju\xc4\x8dnimi'
p2350
(dp2351
S'ADV'
p2352
F0.0
sS'NOUN'
p2353
F0.00014000000000000001
sS'PRON'
p2354
F3.2e-05
sS'NUM'
p2355
F4.7e-05
sS'ADJ'
p2356
F0.999784
sS'VERB'
p2357
F0.0
s(lp2358
(g210
I22
tp2359
atp2360
a(S'trgovinskimi'
p2361
(dp2362
S'ADV'
p2363
F0.0
sS'NOUN'
p2364
F4e-05
sS'VERB'
p2365
F0.0
sS'ADJ'
p2366
F0.999958
s(lp2367
(g202
I23
tp2368
atp2369
a(S'partnerji'
p2370
(dp2371
S'NOUN'
p2372
F1.0
s(lp2373
(g194
I24
tp2374
atp2375
a(g221
(dp2376
g223
F1.0
s(lp2377
(g221
I27
tp2378
atp2379
a(S'kot'
p2380
(dp2381
S'CONJ'
p2382
F0.999993
sS'NOUN'
p2383
F8.000000000000001e-06
s(lp2384
(g218
I26
tp2385
atp2386
a(S'so'
p2387
(dp2388
g1071
F9e-06
sS'VERB'
p2389
F0.999991
s(lp2390
(g187
I25
tp2391
atp2392
a(S'na'
p2393
(dp2394
S'ADP'
p2395
F1.0
s(lp2396
tp2397
a(S'primer'
p2398
(dp2399
S'NOUN'
p2400
F1.0
s(lp2401
(g237
I29
tp2402
atp2403
a(S'zda'
p2404
(dp2405
S'ADV'
p2406
F0.641133
sS'ADJ'
p2407
F0.049034
sS'VERB'
p2408
F0.001505
sS'NOUN'
p2409
F0.30787600000000004
sS'PRT'
p2410
F0.00045
s(lp2411
(g258
I32
tp2412
atp2413
a(S'in'
p2414
(dp2415
S'ADV'
p2416
F0.001169
sg1071
F3.7e-05
sS'CONJ'
p2417
F0.998779
sS'NOUN'
p2418
F1.5e-05
s(lp2419
(g265
I33
tp2420
atp2421
a(S'kitajska'
p2422
(dp2423
S'ADJ'
p2424
F1.0
s(lp2425
(g280
I34
tp2426
atp2427
a(g221
(dp2428
g223
F1.0
s(lp2429
(g221
I35
tp2430
atp2431
a(S'kjer'
p2432
(dp2433
S'CONJ'
p2434
F1.0
s(lp2435
(g292
I36
tp2436
atp2437
a(S'sta'
p2438
(dp2439
g1071
F0.024287
sS'VERB'
p2440
F0.9757129999999999
s(lp2441
(g300
I37
tp2442
atp2443
a(S'\xc4\x8dezatlantski'
p2444
(dp2445
S'ADJ'
p2446
F1.0
s(lp2447
(g307
I38
tp2448
atp2449
a(S'ekonomski'
p2450
(dp2451
S'ADJ'
p2452
F1.0
s(lp2453
tp2454
a(S'svet'
p2455
(dp2456
S'NOUN'
p2457
F1.0
s(lp2458
(g307
I38
tp2459
atp2460
a(S'in'
p2461
(dp2462
S'ADV'
p2463
F2.7e-05
sg1071
F5.6e-05
sS'CONJ'
p2464
F0.999827
sS'NOUN'
p2465
F9e-05
s(lp2466
(g314
I39
tp2467
atp2468
a(S'dialog'
p2469
(dp2470
S'NOUN'
p2471
F1.0
s(lp2472
(g330
I42
tp2473
atp2474
a(S'na'
p2475
(dp2476
S'ADP'
p2477
F1.0
s(lp2478
(g337
I41
tp2479
atp2480
a(S'visoki'
p2481
(dp2482
S'ADJ'
p2483
F0.9999999999999999
s(lp2484
tp2485
a(S'ravni'
p2486
(dp2487
S'ADJ'
p2488
F7e-06
sS'NOUN'
p2489
F0.999992
s(lp2490
(g337
I41
tp2491
atp2492
a(S'\xc5\xbee'
p2493
(dp2494
S'PRT'
p2495
F1.0
s(lp2496
(g364
I44
tp2497
atp2498
a(S'postavila'
p2499
(dp2500
S'VERB'
p2501
F1.0
s(lp2502
(g372
I45
tp2503
atp2504
a(S'trdne'
p2505
(dp2506
S'ADJ'
p2507
F1.0
s(lp2508
(g393
I46
tp2509
atp2510
a(S'temelje'
p2511
(dp2512
S'NOUN'
p2513
F1.0
s(lp2514
(g385
I47
tp2515
atp2516
a(g223
(dp2517
g223
F1.0
s(lp2518
(g223
I48
tp2519
atp2520
asS'es'
p2521
(lp2522
(S'esto'
p2523
(dp2524
S'PRON'
p2525
F1.0
s(lp2526
(g7
I0
tp2527
atp2528
a(S'se'
p2529
(dp2530
S'PRON'
p2531
F1.0
sS'VERB'
p2532
F0.0
s(lp2533
(g21
I2
tp2534
atp2535
a(S'conseguir\xc3\xa1'
p2536
(dp2537
S'VERB'
p2538
F1.0
s(lp2539
(g29
I3
tp2540
atp2541
a(S'mediante'
p2542
(dp2543
S'ADP'
p2544
F1.0
s(lp2545
(g114
I4
tp2546
atp2547
a(S'acuerdos'
p2548
(dp2549
S'NOUN'
p2550
F1.0
s(lp2551
(g48
I8
tp2552
atp2553
a(S'de'
p2554
(dp2555
g1071
F0.000767
sS'CONJ'
p2556
F0.000821
sS'ADP'
p2557
F0.998412
s(lp2558
(g41
I5
tp2559
atp2560
a(S'libre'
p2561
(dp2562
g1071
F0.005079
sS'ADJ'
p2563
F0.994921
s(lp2564
(g62
I6
tp2565
atp2566
a(S'comercio'
p2567
(dp2568
S'VERB'
p2569
F0.514727
sS'NOUN'
p2570
F0.485273
s(lp2571
(g55
I7
tp2572
atp2573
a(S'que'
p2574
(dp2575
g1071
F0.0
sS'CONJ'
p2576
F1.0
s(lp2577
(g71
I9
tp2578
atp2579
a(S'estamos'
p2580
(dp2581
S'VERB'
p2582
F1.0
s(lp2583
(g470
I11
tp2584
atp2585
a(S'negociando'
p2586
(dp2587
S'VERB'
p2588
F1.0
s(lp2589
(g85
I13
tp2590
atp2591
a(S'actualmente'
p2592
(dp2593
S'ADV'
p2594
F1.0
s(lp2595
(g92
I12
tp2596
atp2597
a(S'y'
p2598
(dp2599
g1071
F0.000399
sS'CONJ'
p2600
F0.999601
s(lp2601
(g100
I14
tp2602
atp2603
a(S'ahondando'
p2604
(dp2605
S'VERB'
p2606
F1.0
s(lp2607
(g135
I16
tp2608
atp2609
a(S'en'
p2610
(dp2611
g1071
F0.0
sS'CONJ'
p2612
F0.0
sS'ADP'
p2613
F1.0
s(lp2614
(g121
I15
tp2615
atp2616
a(S'las'
p2617
(dp2618
S'PRON'
p2619
F0.0
sS'DET'
p2620
F1.0
s(lp2621
tp2622
a(S'relaciones'
p2623
(dp2624
S'NOUN'
p2625
F1.0
s(lp2626
(g148
I20
tp2627
atp2628
a(S'econ\xc3\xb3micas'
p2629
(dp2630
S'ADJ'
p2631
F1.0
s(lp2632
(g171
I19
tp2633
atp2634
a(g2598
(dp2635
g1071
F0.000656
sS'CONJ'
p2636
F0.999344
s(lp2637
(g163
I18
tp2638
atp2639
a(S'comerciales'
p2640
(dp2641
S'ADJ'
p2642
F1.0
s(lp2643
(g156
I17
tp2644
atp2645
a(S'con'
p2646
(dp2647
S'ADP'
p2648
F1.0
s(lp2649
(g179
I21
tp2650
atp2651
a(S'agentes'
p2652
(dp2653
S'NOUN'
p2654
F1.0
s(lp2655
(g194
I24
tp2656
atp2657
a(S'comerciales'
p2658
(dp2659
S'ADJ'
p2660
F1.0
s(lp2661
(g202
I23
tp2662
atp2663
a(S'clave'
p2664
(dp2665
S'NOUN'
p2666
F0.058844
sS'VERB'
p2667
F0.766199
sS'ADJ'
p2668
F0.174957
s(lp2669
(g210
I22
tp2670
atp2671
a(S'como'
p2672
(dp2673
S'ADV'
p2674
F0.787547
sS'CONJ'
p2675
F0.212453
s(lp2676
(g218
I26
tp2677
atp2678
a(g221
(dp2679
g223
F1.0
s(lp2680
(g221
I27
tp2681
atp2682
a(S'por'
p2683
(dp2684
S'ADV'
p2685
F1.0
s(lp2686
(g570
I28
tp2687
atp2688
a(S'ejemplo'
p2689
(dp2690
S'ADV'
p2691
F1.0
s(lp2692
(g237
I29
tp2693
atp2694
a(g221
(dp2695
g223
F1.0
s(lp2696
(g221
I30
tp2697
atp2698
a(S'los'
p2699
(dp2700
S'PRON'
p2701
F2.4e-05
sS'DET'
p2702
F0.999976
s(lp2703
(g250
I31
tp2704
atp2705
a(S'estados'
p2706
(dp2707
S'ADJ'
p2708
F0.114686
sS'VERB'
p2709
F0.000171
sS'NOUN'
p2710
F0.885144
s(lp2711
tp2712
a(S'unidos'
p2713
(dp2714
S'ADJ'
p2715
F0.114686
sS'VERB'
p2716
F0.000171
sS'NOUN'
p2717
F0.885144
s(lp2718
(g258
I32
tp2719
atp2720
a(g2598
(dp2721
g1071
F0.001751
sS'CONJ'
p2722
F0.998249
s(lp2723
(g265
I33
tp2724
atp2725
a(S'china'
p2726
(dp2727
S'NOUN'
p2728
F0.068584
sS'VERB'
p2729
F0.31519
sS'ADJ'
p2730
F0.616226
s(lp2731
(g280
I34
tp2732
atp2733
a(g221
(dp2734
g223
F1.0
s(lp2735
(g221
I35
tp2736
atp2737
a(S'donde'
p2738
(dp2739
S'ADV'
p2740
F1.0
s(lp2741
(g292
I36
tp2742
atp2743
a(S'el'
p2744
(dp2745
S'PRON'
p2746
F9e-06
sS'DET'
p2747
F0.999991
s(lp2748
(g300
I37
tp2749
atp2750
a(S'consejo'
p2751
(dp2752
S'NOUN'
p2753
F1.0
s(lp2754
(g307
I38
tp2755
atp2756
a(S'econ\xc3\xb3mico'
p2757
(dp2758
S'ADJ'
p2759
F1.0
s(lp2760
(g307
I38
tp2761
atp2762
a(S'transatl\xc3\xa1ntico'
p2763
(dp2764
S'NOUN'
p2765
F0.249429
sS'ADJ'
p2766
F0.750571
s(lp2767
(g307
I38
tp2768
atp2769
a(S'('
p2770
(dp2771
g223
F1.0
s(lp2772
(g307
I38
tp2773
atp2774
a(S'tec'
p2775
(dp2776
S'ADJ'
p2777
F0.007147
sS'VERB'
p2778
F0.003792
sS'NOUN'
p2779
F0.989061
s(lp2780
tp2781
a(S')'
p2782
(dp2783
g223
F1.0
s(lp2784
(g307
I38
tp2785
atp2786
a(g2598
(dp2787
g1071
F0.000129
sS'CONJ'
p2788
F0.999871
s(lp2789
(g314
I39
tp2790
atp2791
a(S'el'
p2792
(dp2793
S'PRON'
p2794
F0.000638
sS'DET'
p2795
F0.999362
s(lp2796
(g322
I40
tp2797
atp2798
a(S'alto'
p2799
(dp2800
S'NOUN'
p2801
F0.228483
sS'ADJ'
p2802
F0.771517
s(lp2803
tp2804
a(S'nivel'
p2805
(dp2806
S'NOUN'
p2807
F1.0
s(lp2808
(g337
I41
tp2809
atp2810
a(S'de'
p2811
(dp2812
g1071
F2.9e-05
sS'CONJ'
p2813
F0.000449
sS'ADP'
p2814
F0.999522
s(lp2815
tp2816
a(S'di\xc3\xa1logo'
p2817
(dp2818
S'NOUN'
p2819
F1.0
s(lp2820
(g330
I42
tp2821
atp2822
a(S'ya'
p2823
(dp2824
S'ADV'
p2825
F1.0
s(lp2826
(g364
I44
tp2827
atp2828
a(S'han'
p2829
(dp2830
S'VERB'
p2831
F1.0
s(lp2832
(g357
I43
tp2833
atp2834
a(S'forjado'
p2835
(dp2836
S'VERB'
p2837
F0.946653
sS'ADJ'
p2838
F0.053347
s(lp2839
(g372
I45
tp2840
atp2841
a(S'bases'
p2842
(dp2843
S'NOUN'
p2844
F1.0
s(lp2845
(g385
I47
tp2846
atp2847
a(S's\xc3\xb3lidas'
p2848
(dp2849
S'ADJ'
p2850
F1.0
s(lp2851
(g393
I46
tp2852
atp2853
a(g223
(dp2854
g223
F1.0
s(lp2855
(g223
I48
tp2856
atp2857
as.