(dp0
S'fr'
p1
(lp2
(S'le'
p3
(dp4
S'PRON'
p5
F2.1e-05
sS'DET'
p6
F0.999979
s(lp7
(S'the'
p8
I0
tp9
atp10
a(S'deuxi\xc3\xa8me'
p11
(dp12
S'NUM'
p13
F0.999211
sS'NOUN'
p14
F0.000789
s(lp15
(S'second'
p16
I1
tp17
atp18
a(S'volet'
p19
(dp20
S'NOUN'
p21
F1.0
s(lp22
(S'volet'
p23
I2
tp24
atp25
a(S','
p26
(dp27
S'.'
p28
F1.0
s(lp29
(g26
I3
tp30
atp31
a(S'naturellement'
p32
(dp33
S'ADV'
p34
F1.0
s(lp35
(S'course'
p36
I5
tp37
atp38
a(g26
(dp39
g28
F1.0
s(lp40
(g26
I6
tp41
atp42
a(S'concerne'
p43
(dp44
S'VERB'
p45
F1.0
s(lp46
(S'is'
p47
I7
tp48
atp49
a(S"l'"
p50
(dp51
S'NOUN'
p52
F0.087886
sS'VERB'
p53
F0.7995690000000001
sS'ADJ'
p54
F0.112546
s(lp55
tp56
a(S'emploi'
p57
(dp58
S'NOUN'
p59
F1.0
s(lp60
(S'employment'
p61
I8
tp62
atp63
a(g28
(dp64
g28
F1.0
s(lp65
(g28
I9
tp66
atp67
asS'en'
p68
(lp69
(g8
(dp70
S'NOUN'
p71
F2e-06
sS'DET'
p72
F0.999998
s(lp73
(g8
I0
tp74
atp75
a(g16
(dp76
S'ADV'
p77
F7.3e-05
sS'NOUN'
p78
F0.016631
sS'VERB'
p79
F1e-06
sS'ADJ'
p80
F0.983295
s(lp81
(g16
I1
tp82
atp83
a(g23
(dp84
S'ADJ'
p85
F0.000619
sS'VERB'
p86
F1e-06
sS'NOUN'
p87
F0.999381
s(lp88
(g23
I2
tp89
atp90
a(g26
(dp91
g28
F1.0
s(lp92
(g26
I3
tp93
atp94
a(S'of'
p95
(dp96
S'ADP'
p97
F1.0
s(lp98
(g95
I4
tp99
atp100
a(g36
(dp101
S'ADV'
p102
F0.000317
sS'VERB'
p103
F2e-06
sS'NOUN'
p104
F0.99968
s(lp105
(g36
I5
tp106
atp107
a(g26
(dp108
g28
F1.0
s(lp109
(g26
I6
tp110
atp111
a(g47
(dp112
S'VERB'
p113
F1.0
s(lp114
(g47
I7
tp115
atp116
a(g61
(dp117
S'NOUN'
p118
F1.0
s(lp119
(g61
I8
tp120
atp121
a(g28
(dp122
g28
F1.0
s(lp123
(g28
I9
tp124
atp125
asS'nl'
p126
(lp127
(S'het'
p128
(dp129
S'PRON'
p130
F0.000437
sS'DET'
p131
F0.999562
s(lp132
(g8
I0
tp133
atp134
a(S'tweede'
p135
(dp136
S'NUM'
p137
F1.0
s(lp138
(g16
I1
tp139
atp140
a(S'hoofdthema'
p141
(dp142
S'NOUN'
p143
F1.0
s(lp144
(g23
I2
tp145
atp146
a(S'is'
p147
(dp148
S'VERB'
p149
F1.0
s(lp150
(g47
I7
tp151
atp152
a(g26
(dp153
g28
F1.0
s(lp154
(g26
I3
tp155
atp156
a(S'vanzelfsprekend'
p157
(dp158
S'ADJ'
p159
F1.0
s(lp160
(g36
I5
tp161
atp162
a(g26
(dp163
g28
F1.0
s(lp164
(g26
I6
tp165
atp166
a(S'de'
p167
(dp168
S'DET'
p169
F1.0
s(lp170
tp171
a(S'werkgelegenheid'
p172
(dp173
S'NOUN'
p174
F1.0
s(lp175
(g61
I8
tp176
atp177
a(g28
(dp178
g28
F1.0
s(lp179
(g28
I9
tp180
atp181
asS'de'
p182
(lp183
(S'der'
p184
(dp185
S'PRON'
p186
F0.001502
sS'DET'
p187
F0.998382
s(lp188
(g8
I0
tp189
atp190
a(S'zweite'
p191
(dp192
S'ADJ'
p193
F1.0
s(lp194
(g16
I1
tp195
atp196
a(S'teil'
p197
(dp198
S'PRT'
p199
F0.80956
sS'VERB'
p200
F0.19044
s(lp201
tp202
a(S'ist'
p203
(dp204
S'VERB'
p205
F1.0
s(lp206
(g47
I7
tp207
atp208
a(S'nat\xc3\xbcrlich'
p209
(dp210
S'ADV'
p211
F0.994348
sS'ADJ'
p212
F0.005652
s(lp213
(g36
I5
tp214
atp215
a(S'die'
p216
(dp217
S'PRON'
p218
F0.000188
sS'DET'
p219
F0.999809
s(lp220
(g23
I2
tp221
atp222
a(S'besch\xc3\xa4ftigung'
p223
(dp224
S'ADJ'
p225
F0.000215
sS'NOUN'
p226
F0.999713
s(lp227
(g61
I8
tp228
atp229
a(g28
(dp230
g28
F1.0
s(lp231
(g28
I9
tp232
atp233
asS'it'
p234
(lp235
(S'la'
p236
(dp237
S'PRON'
p238
F0.002625
sS'DET'
p239
F0.997375
s(lp240
(g8
I0
tp241
atp242
a(S'seconda'
p243
(dp244
S'NOUN'
p245
F0.015884
sS'VERB'
p246
F0.00026000000000000003
sS'ADJ'
p247
F0.983855
s(lp248
(g16
I1
tp249
atp250
a(S'questione'
p251
(dp252
S'NOUN'
p253
F1.0
s(lp254
(g23
I2
tp255
atp256
a(g26
(dp257
g28
F1.0
s(lp258
(g26
I3
tp259
atp260
a(S'ovviamente'
p261
(dp262
S'ADV'
p263
F1.0
s(lp264
(g36
I5
tp265
atp266
a(g26
(dp267
g28
F1.0
s(lp268
(g26
I6
tp269
atp270
a(S'\xc3\xa8'
p271
(dp272
S'VERB'
p273
F1.0
s(lp274
(g47
I7
tp275
atp276
a(S"l'"
p277
(dp278
S'NOUN'
p279
F0.000971
sS'VERB'
p280
F0.9832770000000001
sS'ADJ'
p281
F0.015752
s(lp282
tp283
a(S'occupazione'
p284
(dp285
S'NOUN'
p286
F1.0
s(lp287
(g61
I8
tp288
atp289
a(g28
(dp290
g28
F1.0
s(lp291
(g28
I9
tp292
atp293
asS'sk'
p294
(lp295
(S'druh\xc3\xbd'
p296
(dp297
S'X'
p298
F0.001729
sS'NUM'
p299
F0.998271
s(lp300
(g16
I1
tp301
atp302
a(S'volet'
p303
(dp304
S'VERB'
p305
F0.000145
sS'NOUN'
p306
F0.999855
s(lp307
tp308
a(S'je'
p309
(dp310
g298
F0.000714
sS'VERB'
p311
F0.999253
sS'PRON'
p312
F3.3e-05
s(lp313
(g23
I2
tp314
atp315
a(g26
(dp316
g28
F1.0
s(lp317
(g26
I3
tp318
atp319
a(S'samozrejme'
p320
(dp321
S'ADV'
p322
F0.001025
sg298
F0.994447
sS'ADJ'
p323
F0.004528
s(lp324
(g36
I5
tp325
atp326
a(g26
(dp327
g28
F1.0
s(lp328
(g26
I6
tp329
atp330
a(S'zamestnanos\xc5\xa5'
p331
(dp332
S'NOUN'
p333
F1.0
s(lp334
(g61
I8
tp335
atp336
a(g28
(dp337
g28
F1.0
s(lp338
(g28
I9
tp339
atp340
asS'pl'
p341
(lp342
(S'drugim'
p343
(dp344
S'ADJ'
p345
F1.000001
s(lp346
(g16
I1
tp347
atp348
a(S'obszarem'
p349
(dp350
S'NOUN'
p351
F1.0
s(lp352
tp353
a(S'jest'
p354
(dp355
S'VERB'
p356
F1.0
s(lp357
(g23
I2
tp358
atp359
a(S'oczywi\xc5\x9bcie'
p360
(dp361
S'PRT'
p362
F1.0
s(lp363
(g36
I5
tp364
atp365
a(S'zatrudnienie'
p366
(dp367
S'VERB'
p368
F0.031196
sS'NOUN'
p369
F0.968804
s(lp370
(g61
I8
tp371
atp372
a(g28
(dp373
g28
F1.0
s(lp374
(g28
I9
tp375
atp376
asS'sl'
p377
(lp378
(S'drugo'
p379
(dp380
S'NUM'
p381
F1.000001
s(lp382
(g16
I1
tp383
atp384
a(S'podro\xc4\x8dje'
p385
(dp386
S'NOUN'
p387
F1.0
s(lp388
(g23
I2
tp389
atp390
a(S'je'
p391
(dp392
S'PRON'
p393
F0.003386
sS'VERB'
p394
F0.9966119999999999
sg298
F2e-06
s(lp395
(g47
I7
tp396
atp397
a(S'seveda'
p398
(dp399
S'PRT'
p400
F1.0
s(lp401
(g36
I5
tp402
atp403
a(S'zaposlovanje'
p404
(dp405
S'NOUN'
p406
F1.0
s(lp407
(g61
I8
tp408
atp409
a(g28
(dp410
g28
F1.0
s(lp411
(g28
I9
tp412
atp413
asS'es'
p414
(lp415
(S'el'
p416
(dp417
S'PRON'
p418
F0.0
sS'DET'
p419
F1.0
s(lp420
(g8
I0
tp421
atp422
a(S'segundo'
p423
(dp424
S'NOUN'
p425
F0.0018379999999999998
sS'ADJ'
p426
F0.998162
s(lp427
(g16
I1
tp428
atp429
a(S'cap\xc3\xadtulo'
p430
(dp431
S'NOUN'
p432
F1.0
s(lp433
(g23
I2
tp434
atp435
a(g26
(dp436
g28
F1.0
s(lp437
(g26
I3
tp438
atp439
a(S'por'
p440
(dp441
S'ADV'
p442
F1.0
s(lp443
tp444
a(S'supuesto'
p445
(dp446
S'ADV'
p447
F1.0
s(lp448
(g36
I5
tp449
atp450
a(g26
(dp451
g28
F1.0
s(lp452
(g26
I6
tp453
atp454
a(S'es'
p455
(dp456
S'VERB'
p457
F1.0
s(lp458
(g47
I7
tp459
atp460
a(S'el'
p461
(dp462
S'PRON'
p463
F2e-06
sS'DET'
p464
F0.999998
s(lp465
tp466
a(S'empleo'
p467
(dp468
S'NOUN'
p469
F1.0
s(lp470
(g61
I8
tp471
atp472
a(g28
(dp473
g28
F1.0
s(lp474
(g28
I9
tp475
atp476
as.