(dp0
S'fr'
p1
(lp2
(S'oui'
p3
(dp4
S'X'
p5
F1.0
s(lp6
(S'yes'
p7
I0
tp8
atp9
a(S','
p10
(dp11
S'.'
p12
F1.0
s(lp13
(g10
I1
tp14
atp15
a(S'il'
p16
(dp17
S'PRON'
p18
F1.0
s(lp19
(S'we'
p20
I2
tp21
atp22
a(S'reste'
p23
(dp24
S'VERB'
p25
F0.999796
sS'NOUN'
p26
F0.000204
s(lp27
(S'have'
p28
I3
tp29
atp30
a(S'beaucoup'
p31
(dp32
S'ADV'
p33
F1.0
s(lp34
(S'plenty'
p35
I4
tp36
atp37
a(S'\xc3\xa0'
p38
(dp39
S'ADP'
p40
F1.0
s(lp41
(S'for'
p42
I7
tp43
atp44
a(S'faire'
p45
(dp46
S'VERB'
p47
F1.0
s(lp48
(S'improvement'
p49
I8
tp50
atp51
a(S'et'
p52
(dp53
S'CONJ'
p54
F1.0
s(lp55
(S'and'
p56
I9
tp57
atp58
a(S'nous'
p59
(dp60
S'PRON'
p61
F1.0
s(lp62
(S'we'
p63
I10
tp64
atp65
a(S'devons'
p66
(dp67
S'VERB'
p68
F0.999987
sS'NOUN'
p69
F1.3e-05
s(lp70
tp71
a(S'avoir'
p72
(dp73
S'VERB'
p74
F0.99974
sS'NOUN'
p75
F0.00026
s(lp76
(S'have'
p77
I11
tp78
atp79
a(S'une'
p80
(dp81
S'NOUN'
p82
F0.00038
sS'NUM'
p83
F0.001411
sS'DET'
p84
F0.998209
s(lp85
tp86
a(S'grande'
p87
(dp88
S'ADJ'
p89
F1.0
s(lp90
(S'room'
p91
I6
tp92
atp93
a(S'discussion'
p94
(dp95
S'NOUN'
p96
F1.0
s(lp97
(S'discuss'
p98
I13
tp99
atp100
a(S'\xc3\xa0'
p101
(dp102
S'ADP'
p103
F1.0
s(lp104
(S'to'
p105
I12
tp106
atp107
a(S'ce'
p108
(dp109
S'PRON'
p110
F1.0
s(lp111
(S'this'
p112
I14
tp113
atp114
a(S'sujet'
p115
(dp116
S'ADJ'
p117
F0.327523
sS'NOUN'
p118
F0.672477
s(lp119
(S'thoroughly'
p120
I15
tp121
atp122
a(g12
(dp123
g12
F1.0
s(lp124
(g12
I16
tp125
atp126
asS'en'
p127
(lp128
(g7
(dp129
S'ADV'
p130
F0.000403
sg5
F0.99951
sS'NOUN'
p131
F8.7e-05
s(lp132
(g7
I0
tp133
atp134
a(g10
(dp135
g12
F1.0
s(lp136
(g10
I1
tp137
atp138
a(g20
(dp139
S'PRON'
p140
F1.0
s(lp141
(g20
I2
tp142
atp143
a(g28
(dp144
S'VERB'
p145
F1.0
s(lp146
(g28
I3
tp147
atp148
a(g35
(dp149
S'ADV'
p150
F0.757256
sS'ADJ'
p151
F0.011717
sS'NOUN'
p152
F0.231027
s(lp153
(g35
I4
tp154
atp155
a(S'of'
p156
(dp157
S'ADP'
p158
F1.0
s(lp159
(g156
I5
tp160
atp161
a(g91
(dp162
S'NOUN'
p163
F1.0
s(lp164
(g91
I6
tp165
atp166
a(g42
(dp167
S'ADP'
p168
F1.0
s(lp169
(g42
I7
tp170
atp171
a(g49
(dp172
S'NOUN'
p173
F1.0
s(lp174
(g49
I8
tp175
atp176
a(g56
(dp177
S'CONJ'
p178
F1.0
sS'NOUN'
p179
F0.0
s(lp180
(g56
I9
tp181
atp182
a(g63
(dp183
S'PRON'
p184
F1.0
s(lp185
(g63
I10
tp186
atp187
a(g77
(dp188
S'VERB'
p189
F1.0
s(lp190
(g77
I11
tp191
atp192
a(g105
(dp193
S'ADV'
p194
F0.0
sS'PRT'
p195
F1.0
sS'ADP'
p196
F0.0
s(lp197
(g105
I12
tp198
atp199
a(g98
(dp200
S'VERB'
p201
F1.0
s(lp202
(g98
I13
tp203
atp204
a(g112
(dp205
S'ADV'
p206
F0.002291
sS'NOUN'
p207
F9.8e-05
sS'DET'
p208
F0.997611
s(lp209
(g112
I14
tp210
atp211
a(g120
(dp212
S'ADV'
p213
F1.0
s(lp214
(g120
I15
tp215
atp216
a(g12
(dp217
g12
F1.0
s(lp218
(g12
I16
tp219
atp220
asS'nl'
p221
(lp222
(S'ja'
p223
(dp224
g5
F1.0
s(lp225
(g7
I0
tp226
atp227
a(g10
(dp228
g12
F1.0
s(lp229
(g10
I1
tp230
atp231
a(S'er'
p232
(dp233
S'ADV'
p234
F1.0
s(lp235
(g20
I2
tp236
atp237
a(S'is'
p238
(dp239
S'VERB'
p240
F1.0
s(lp241
(g28
I3
tp242
atp243
a(S'nog'
p244
(dp245
S'ADV'
p246
F1.0
s(lp247
(g35
I4
tp248
atp249
a(S'meer'
p250
(dp251
S'ADV'
p252
F0.999815
sS'NUM'
p253
F0.000143
sS'NOUN'
p254
F1e-06
sS'VERB'
p255
F4.1e-05
s(lp256
(g35
I4
tp257
atp258
a(S'dan'
p259
(dp260
S'ADV'
p261
F0.676557
sS'CONJ'
p262
F0.323443
s(lp263
tp264
a(S'genoeg'
p265
(dp266
S'ADV'
p267
F1.0
s(lp268
(g35
I4
tp269
atp270
a(S'ruimte'
p271
(dp272
S'NOUN'
p273
F1.0
s(lp274
(g91
I6
tp275
atp276
a(S'voor'
p277
(dp278
S'ADV'
p279
F0.001032
sS'CONJ'
p280
F1e-06
sS'NOUN'
p281
F0.0
sS'ADP'
p282
F0.998967
s(lp283
(g42
I7
tp284
atp285
a(S'verbetering'
p286
(dp287
S'NOUN'
p288
F1.0
s(lp289
(g49
I8
tp290
atp291
a(g10
(dp292
g12
F1.0
s(lp293
tp294
a(S'en'
p295
(dp296
S'CONJ'
p297
F1.0
s(lp298
(g56
I9
tp299
atp300
a(S'daarover'
p301
(dp302
S'ADV'
p303
F1.0
s(lp304
(g112
I14
tp305
atp306
a(S'moeten'
p307
(dp308
S'VERB'
p309
F0.999997
sS'NOUN'
p310
F3e-06
s(lp311
(g77
I11
tp312
atp313
a(S'we'
p314
(dp315
S'PRON'
p316
F1.0
s(lp317
(g63
I10
tp318
atp319
a(S'grondig'
p320
(dp321
S'ADJ'
p322
F1.0
s(lp323
(g120
I15
tp324
atp325
a(S'met'
p326
(dp327
S'ADP'
p328
F1.0
s(lp329
(g105
I12
tp330
atp331
a(S'elkaar'
p332
(dp333
S'PRON'
p334
F1.0
s(lp335
(g98
I13
tp336
atp337
a(S'van'
p338
(dp339
S'ADP'
p340
F1.0
s(lp341
(g156
I5
tp342
atp343
a(S'gedachten'
p344
(dp345
S'VERB'
p346
F1.1e-05
sS'NOUN'
p347
F0.999989
s(lp348
tp349
a(S'wisselen'
p350
(dp351
S'VERB'
p352
F0.992974
sS'NOUN'
p353
F0.007026
s(lp354
(g98
I13
tp355
atp356
a(g12
(dp357
g12
F1.0
s(lp358
(g12
I16
tp359
atp360
asS'de'
p361
(lp362
(S'ja'
p363
(dp364
S'ADV'
p365
F0.460298
sS'PRT'
p366
F0.539702
s(lp367
(g7
I0
tp368
atp369
a(g10
(dp370
g12
F1.0
s(lp371
(g10
I1
tp372
atp373
a(S'es'
p374
(dp375
S'PRON'
p376
F1.0
s(lp377
(g20
I2
tp378
atp379
a(S'gibt'
p380
(dp381
S'VERB'
p382
F1.0
s(lp383
(g28
I3
tp384
atp385
a(S'noch'
p386
(dp387
S'ADV'
p388
F0.97442
sS'CONJ'
p389
F0.02558
s(lp390
tp391
a(S'viel'
p392
(dp393
S'ADV'
p394
F0.841421
sS'PRON'
p395
F0.104121
s(lp396
(g35
I4
tp397
atp398
a(S'raum'
p399
(dp400
S'ADJ'
p401
F1.0
s(lp402
(g91
I6
tp403
atp404
a(S'f\xc3\xbcr'
p405
(dp406
S'ADP'
p407
F1.0
s(lp408
(g42
I7
tp409
atp410
a(S'verbesserungen'
p411
(dp412
S'ADJ'
p413
F0.002553
sS'NOUN'
p414
F0.996961
s(lp415
(g49
I8
tp416
atp417
a(S'und'
p418
(dp419
S'CONJ'
p420
F1.0
s(lp421
(g56
I9
tp422
atp423
a(S'wir'
p424
(dp425
S'PRON'
p426
F1.0
s(lp427
(g63
I10
tp428
atp429
a(S'm\xc3\xbcssen'
p430
(dp431
S'VERB'
p432
F0.9987349999999999
s(lp433
(g77
I11
tp434
atp435
a(S'dies'
p436
(dp437
S'PRON'
p438
F1.0
s(lp439
(g112
I14
tp440
atp441
a(S'gr\xc3\xbcndlich'
p442
(dp443
S'ADJ'
p444
F1.0
s(lp445
(g120
I15
tp446
atp447
a(S'er\xc3\xb6rtern'
p448
(dp449
S'VERB'
p450
F1.0
s(lp451
(g98
I13
tp452
atp453
a(g12
(dp454
g12
F1.0
s(lp455
(g12
I16
tp456
atp457
asS'it'
p458
(lp459
(S'certo'
p460
(dp461
S'ADV'
p462
F0.892968
sS'ADJ'
p463
F0.107032
s(lp464
(g7
I0
tp465
atp466
a(g10
(dp467
g12
F1.0
s(lp468
(g10
I1
tp469
atp470
a(S"c'"
p471
(dp472
S'NOUN'
p473
F1.0
s(lp474
(g20
I2
tp475
atp476
a(S'\xc3\xa8'
p477
(dp478
S'VERB'
p479
F1.0
s(lp480
(g28
I3
tp481
atp482
a(S'un'
p483
(dp484
S'PRON'
p485
F0.0005
sS'DEF'
p486
F0.9995
s(lp487
tp488
a(S'ampio'
p489
(dp490
S'ADJ'
p491
F1.0
s(lp492
(g35
I4
tp493
atp494
a(S'margine'
p495
(dp496
S'NOUN'
p497
F1.0
s(lp498
(g91
I6
tp499
atp500
a(S'di'
p501
(dp502
S'CONJ'
p503
F5e-06
sS'ADP'
p504
F0.999995
s(lp505
(g42
I7
tp506
atp507
a(S'manovra'
p508
(dp509
S'VERB'
p510
F0.004850999999999999
sS'NOUN'
p511
F0.99515
s(lp512
(g49
I8
tp513
atp514
a(S'e'
p515
(dp516
S'CONJ'
p517
F1.0
s(lp518
(g56
I9
tp519
atp520
a(S'dobbiamo'
p521
(dp522
S'VERB'
p523
F1.0
s(lp524
(g63
I10
tp525
atp526
a(S'discuterne'
p527
(dp528
S'VERB'
p529
F1.0
s(lp530
(g98
I13
tp531
atp532
a(S'in'
p533
(dp534
S'ADP'
p535
F1.0
s(lp536
(g112
I14
tp537
atp538
a(S'maniera'
p539
(dp540
S'NOUN'
p541
F1.0
s(lp542
tp543
a(S'approfondita'
p544
(dp545
S'VERB'
p546
F0.49937
sS'ADJ'
p547
F0.50063
s(lp548
(g120
I15
tp549
atp550
a(g12
(dp551
g12
F1.0
s(lp552
(g12
I16
tp553
atp554
asS'sk'
p555
(lp556
(S'\xc3\x81no'
p557
(dp558
g5
F1.0
s(lp559
(g7
I0
tp560
atp561
a(g10
(dp562
g12
F1.0
s(lp563
(g10
I1
tp564
atp565
a(S'm\xc3\xa1me'
p566
(dp567
S'ADV'
p568
F0.030151
sg5
F0.003507
sS'VERB'
p569
F0.966342
s(lp570
(g28
I3
tp571
atp572
a(S've\xc4\xbek\xc3\xbd'
p573
(dp574
S'ADJ'
p575
F1.0
s(lp576
(g35
I4
tp577
atp578
a(S'priestor'
p579
(dp580
S'NOUN'
p581
F1.0
s(lp582
(g91
I6
tp583
atp584
a(S'na'
p585
(dp586
g5
F0.000156
sS'CONJ'
p587
F1.5e-05
sS'ADP'
p588
F0.999826
sS'PRT'
p589
F3e-06
s(lp590
(g42
I7
tp591
atp592
a(S'zlep\xc5\xa1enie'
p593
(dp594
S'NOUN'
p595
F1.0
s(lp596
(g49
I8
tp597
atp598
a(S'a'
p599
(dp600
g5
F0.0007669999999999999
sS'CONJ'
p601
F0.999165
sS'NOUN'
p602
F4e-06
sS'ADP'
p603
F0.0
sS'PRT'
p604
F6.6e-05
s(lp605
(g56
I9
tp606
atp607
a(S'mus\xc3\xadme'
p608
(dp609
S'VERB'
p610
F1.0
s(lp611
(g63
I10
tp612
atp613
a(S'o'
p614
(dp615
g5
F8.8e-05
sS'CONJ'
p616
F3.4e-05
sS'NOUN'
p617
F3e-06
sS'ADP'
p618
F0.999875
s(lp619
tp620
a(S'tom'
p621
(dp622
S'PRON'
p623
F0.997465
sg5
F0.002535
s(lp624
(g112
I14
tp625
atp626
a(S'd\xc3\xb4kladne'
p627
(dp628
S'ADV'
p629
F1.0
s(lp630
(g120
I15
tp631
atp632
a(S'diskutova\xc5\xa5'
p633
(dp634
S'VERB'
p635
F1.0
s(lp636
(g98
I13
tp637
atp638
a(g12
(dp639
g12
F1.0
s(lp640
(g12
I16
tp641
atp642
asS'pl'
p643
(lp644
(S'owszem'
p645
(dp646
S'PRT'
p647
F1.0
s(lp648
(g7
I0
tp649
atp650
a(g10
(dp651
g5
F5e-06
sg12
F0.999995
s(lp652
(g10
I1
tp653
atp654
a(S'jest'
p655
(dp656
S'VERB'
p657
F1.0
s(lp658
(g35
I4
tp659
atp660
a(S'jeszcze'
p661
(dp662
S'PRT'
p663
F0.998661
sS'CONJ'
p664
F0.001339
s(lp665
tp666
a(S'wiele'
p667
(dp668
S'ADV'
p669
F0.301397
sS'NUM'
p670
F0.6986020000000001
s(lp671
(g91
I6
tp672
atp673
a(S'do'
p674
(dp675
g5
F1e-06
sS'NOUN'
p676
F1e-05
sS'ADP'
p677
F0.999988
s(lp678
(g42
I7
tp679
atp680
a(S'ulepszenia'
p681
(dp682
S'ADV'
p683
F2.6e-05
sS'ADJ'
p684
F0.00043000000000000004
sS'VERB'
p685
F0.626287
sS'NOUN'
p686
F0.3732579999999999
s(lp687
(g49
I8
tp688
atp689
a(S'i'
p690
(dp691
S'PRT'
p692
F0.068534
sS'CONJ'
p693
F0.931435
sS'NOUN'
p694
F8e-06
sg5
F8e-06
sS'PRON'
p695
F1.4e-05
s(lp696
(g56
I9
tp697
atp698
a(S'musimy'
p699
(dp700
S'VERB'
p701
F1.0
s(lp702
(g63
I10
tp703
atp704
a(g614
(dp705
g5
F0.000398
sS'VERB'
p706
F2e-06
sS'NOUN'
p707
F1.6e-05
sS'ADP'
p708
F0.999577
sS'PRT'
p709
F6e-06
s(lp710
tp711
a(S'tym'
p712
(dp713
S'ADV'
p714
F0.003809
sS'ADJ'
p715
F0.13237900000000002
sS'CONJ'
p716
F0.00018
sS'NOUN'
p717
F0.8635919999999999
sS'PRT'
p718
F4e-05
s(lp719
(g112
I14
tp720
atp721
a(S'szczeg\xc3\xb3\xc5\x82owo'
p722
(dp723
S'ADV'
p724
F1.0
s(lp725
(g120
I15
tp726
atp727
a(S'rozmawia\xc4\x87'
p728
(dp729
S'VERB'
p730
F1.0
s(lp731
(g98
I13
tp732
atp733
a(g12
(dp734
g12
F1.0
s(lp735
(g12
I16
tp736
atp737
asS'sl'
p738
(lp739
(S'da'
p740
(dp741
S'PRT'
p742
F0.003412
sS'CONJ'
p743
F0.955565
sS'VERB'
p744
F0.038002
sg5
F0.003021
s(lp745
(g7
I0
tp746
atp747
a(g10
(dp748
g12
F1.0
s(lp749
(g10
I1
tp750
atp751
a(S'pred'
p752
(dp753
S'ADP'
p754
F1.0
s(lp755
(g20
I2
tp756
atp757
a(S'nami'
p758
(dp759
S'PRON'
p760
F1.0
s(lp761
tp762
a(S'je'
p763
(dp764
S'PRON'
p765
F0.002445
sS'VERB'
p766
F0.9975499999999999
sg5
F5e-06
s(lp767
(g28
I3
tp768
atp769
a(S'dovolj'
p770
(dp771
S'ADV'
p772
F1.0
s(lp773
(g35
I4
tp774
atp775
a(S'prostora'
p776
(dp777
S'NOUN'
p778
F1.0
s(lp779
(g91
I6
tp780
atp781
a(S'za'
p782
(dp783
S'ADV'
p784
F5.5e-05
sg5
F5e-06
sS'ADP'
p785
F0.99994
s(lp786
(g42
I7
tp787
atp788
a(S'izbolj\xc5\xa1ave'
p789
(dp790
S'NOUN'
p791
F1.0000010000000001
s(lp792
(g49
I8
tp793
atp794
a(S'in'
p795
(dp796
S'ADV'
p797
F9.5e-05
sg5
F4.5e-05
sS'CONJ'
p798
F0.999848
sS'NOUN'
p799
F1.2e-05
s(lp800
(g56
I9
tp801
atp802
a(g614
(dp803
S'NOUN'
p804
F1.2e-05
sS'ADP'
p805
F0.999988
s(lp806
tp807
a(S'tem'
p808
(dp809
S'ADV'
p810
F5.4e-05
sS'PRON'
p811
F0.999944
sS'NOUN'
p812
F3e-06
s(lp813
(g112
I14
tp814
atp815
a(S'se'
p816
(dp817
S'PRON'
p818
F0.999994
sg5
F6e-06
s(lp819
(g77
I11
tp820
atp821
a(S'moramo'
p822
(dp823
S'VERB'
p824
F1.0
s(lp825
(g63
I10
tp826
atp827
a(S'temeljito'
p828
(dp829
S'ADV'
p830
F0.898306
sS'ADJ'
p831
F0.101694
s(lp832
(g120
I15
tp833
atp834
a(S'pogovoriti'
p835
(dp836
S'VERB'
p837
F1.0
s(lp838
(g98
I13
tp839
atp840
a(g12
(dp841
g12
F1.0
s(lp842
(g12
I16
tp843
atp844
asS'es'
p845
(lp846
(S's\xc3\xad'
p847
(dp848
S'ADV'
p849
F0.615801
sS'PRON'
p850
F0.384199
s(lp851
(g7
I0
tp852
atp853
a(g10
(dp854
g12
F1.0
s(lp855
(g10
I1
tp856
atp857
a(S'tenemos'
p858
(dp859
S'VERB'
p860
F1.0
s(lp861
(g20
I2
tp862
atp863
a(S'mucho'
p864
(dp865
S'ADV'
p866
F0.111939
sS'ADJ'
p867
F0.888061
s(lp868
(g35
I4
tp869
atp870
a(S'margen'
p871
(dp872
S'NOUN'
p873
F1.0
s(lp874
(g91
I6
tp875
atp876
a(S'para'
p877
(dp878
S'CONJ'
p879
F0.952807
sS'ADP'
p880
F0.047193
s(lp881
(g42
I7
tp882
atp883
a(S'mejorar'
p884
(dp885
S'VERB'
p886
F1.0
s(lp887
(g49
I8
tp888
atp889
a(S'y'
p890
(dp891
g5
F0.000399
sS'CONJ'
p892
F0.999601
s(lp893
(g56
I9
tp894
atp895
a(S'tenemos'
p896
(dp897
S'VERB'
p898
F1.0
s(lp899
(g63
I10
tp900
atp901
a(S'que'
p902
(dp903
g5
F0.0
sS'CONJ'
p904
F1.0
s(lp905
(g105
I12
tp906
atp907
a(S'debatir'
p908
(dp909
S'VERB'
p910
F1.0
s(lp911
(g98
I13
tp912
atp913
a(S'esto'
p914
(dp915
S'PRON'
p916
F1.0
s(lp917
(g112
I14
tp918
atp919
a(g599
(dp920
S'ADV'
p921
F1.0
s(lp922
tp923
a(S'fondo'
p924
(dp925
S'ADV'
p926
F1.0
s(lp927
(g120
I15
tp928
atp929
a(g12
(dp930
g12
F1.0
s(lp931
(g12
I16
tp932
atp933
as.