(dp0
S'fr'
p1
(lp2
(S'au'
p3
(dp4
S'ADP'
p5
F1.0
s(lp6
(S'on'
p7
I0
tp8
atp9
a(S'nom'
p10
(dp11
S'NOUN'
p12
F1.0
s(lp13
(S'behalf'
p14
I1
tp15
atp16
a(S'du'
p17
(dp18
S'ADP'
p19
F1.0
s(lp20
(S'of'
p21
I2
tp22
atp23
a(S'groupe'
p24
(dp25
S'VERB'
p26
F0.0
sS'NOUN'
p27
F1.0
s(lp28
tp29
a(S'gue'
p30
(dp31
S'NOUN'
p32
F0.032441
sS'VERB'
p33
F0.6940129999999999
sS'ADJ'
p34
F0.273544
s(lp35
(S'gue'
p36
I4
tp37
atp38
a(S'/'
p39
(dp40
S'.'
p41
F1.0
s(lp42
(g39
I5
tp43
atp44
a(S'ngl'
p45
(dp46
S'NOUN'
p47
F1.0
s(lp48
(S'ngl'
p49
I6
tp50
atp51
a(g41
(dp52
g41
F1.0
s(lp53
(g41
I8
tp54
atp55
a(S'-'
p56
(dp57
g41
F1.0
s(lp58
(g56
I9
tp59
atp60
a(S'('
p61
(dp62
g41
F1.0
s(lp63
(g61
I10
tp64
atp65
a(S'el'
p66
(dp67
S'ADJ'
p68
F0.13429
sS'VERB'
p69
F0.638201
sS'NOUN'
p70
F0.227509
s(lp71
(S'el'
p72
I11
tp73
atp74
a(S')'
p75
(dp76
g41
F1.0
s(lp77
(g75
I12
tp78
atp79
a(S'madame'
p80
(dp81
S'NOUN'
p82
F1.0
s(lp83
tp84
a(S'la'
p85
(dp86
S'PRON'
p87
F5.2e-05
sS'DET'
p88
F0.999948
sS'NOUN'
p89
F0.0
s(lp90
(S'madam'
p91
I13
tp92
atp93
a(S'pr\xc3\xa9sidente'
p94
(dp95
S'NOUN'
p96
F1.0
s(lp97
(S'president'
p98
I14
tp99
atp100
a(S','
p101
(dp102
g41
F1.0
s(lp103
(g101
I15
tp104
atp105
a(S'je'
p106
(dp107
S'PRON'
p108
F1.0
s(lp109
(S'i'
p110
I16
tp111
atp112
a(S'voudrais'
p113
(dp114
S'VERB'
p115
F1.0
s(lp116
(S'like'
p117
I18
tp118
atp119
a(S'exprimer'
p120
(dp121
S'VERB'
p122
F1.0
s(lp123
(S'express'
p124
I20
tp125
atp126
a(S'notre'
p127
(dp128
S'PRON'
p129
F1.0
s(lp130
(S'our'
p131
I21
tp132
atp133
a(S'profond'
p134
(dp135
S'ADJ'
p136
F0.094531
sS'NOUN'
p137
F0.905469
s(lp138
(S'great'
p139
I22
tp140
atp141
a(S'malaise'
p142
(dp143
S'NOUN'
p144
F0.047473
sS'ADJ'
p145
F0.952527
s(lp146
tp147
a(S'face'
p148
(dp149
S'NOUN'
p150
F1.0
s(lp151
(S'unease'
p152
I23
tp153
atp154
a(S'\xc3\xa0'
p155
(dp156
S'ADP'
p157
F1.0
s(lp158
(S'about'
p159
I24
tp160
atp161
a(S'la'
p162
(dp163
S'PRON'
p164
F1.2e-05
sS'DET'
p165
F0.999988
sS'NOUN'
p166
F0.0
s(lp167
(S'the'
p168
I25
tp169
atp170
a(S'tournure'
p171
(dp172
S'NOUN'
p173
F1.0
s(lp174
tp175
a(S'des'
p176
(dp177
S'DET'
p178
F2.1e-05
sS'ADP'
p179
F0.999979
s(lp180
(S'emerging'
p181
I27
tp182
atp183
a(S'\xc3\xa9v\xc3\xa9nements'
p184
(dp185
S'NOUN'
p186
F1.0
s(lp187
(S'developments'
p188
I26
tp189
atp190
a(S'dans'
p191
(dp192
S'NOUN'
p193
F3e-06
sS'ADP'
p194
F0.999997
s(lp195
(S'in'
p196
I28
tp197
atp198
a(S'cette'
p199
(dp200
S'PRON'
p201
F1.0
s(lp202
(S'this'
p203
I29
tp204
atp205
a(S'r\xc3\xa9gion'
p206
(dp207
S'NOUN'
p208
F1.0
s(lp209
(S'region'
p210
I30
tp211
atp212
a(S'habit\xc3\xa9e'
p213
(dp214
S'VERB'
p215
F0.851304
sS'ADJ'
p216
F0.148696
s(lp217
(S'inhabited'
p218
I31
tp219
atp220
a(S'par'
p221
(dp222
S'NOUN'
p223
F1.3e-05
sS'ADP'
p224
F0.999987
s(lp225
(S'by'
p226
I32
tp227
atp228
a(S'des'
p229
(dp230
S'DET'
p231
F0.00067
sS'ADP'
p232
F0.99933
s(lp233
tp234
a(S'millions'
p235
(dp236
S'NOUN'
p237
F1.0
s(lp238
(S'millions'
p239
I33
tp240
atp241
a(S'de'
p242
(dp243
S'ADP'
p244
F1.0
s(lp245
(S'of'
p246
I34
tp247
atp248
a(S'travailleurs'
p249
(dp250
S'ADJ'
p251
F0.117126
sS'NOUN'
p252
F0.882874
s(lp253
(S'workers'
p254
I35
tp255
atp256
a(S'de'
p257
(dp258
S'ADP'
p259
F1.0
s(lp260
(S'of'
p261
I36
tp262
atp263
a(S'douzaines'
p264
(dp265
S'NOUN'
p266
F1.0
s(lp267
(S'dozens'
p268
I37
tp269
atp270
a(S'de'
p271
(dp272
S'ADP'
p273
F1.0
s(lp274
(S'of'
p275
I38
tp276
atp277
a(S'nationalit\xc3\xa9s'
p278
(dp279
S'NOUN'
p280
F1.0
s(lp281
(S'nationalities'
p282
I40
tp283
atp284
a(S'diff\xc3\xa9rentes'
p285
(dp286
S'ADJ'
p287
F1.0
s(lp288
(S'different'
p289
I39
tp290
atp291
a(g41
(dp292
g41
F1.0
s(lp293
(g41
I41
tp294
atp295
asS'en'
p296
(lp297
(g7
(dp298
S'ADV'
p299
F0.002027
sS'NOUN'
p300
F3e-06
sS'ADJ'
p301
F4e-05
sS'ADP'
p302
F0.99793
sS'PRT'
p303
F0.0
s(lp304
(g7
I0
tp305
atp306
a(g14
(dp307
S'NOUN'
p308
F1.0
s(lp309
(g14
I1
tp310
atp311
a(g21
(dp312
S'ADP'
p313
F1.0
s(lp314
(g21
I2
tp315
atp316
a(S'the'
p317
(dp318
S'NOUN'
p319
F2e-06
sS'DET'
p320
F0.999998
s(lp321
(g317
I3
tp322
atp323
a(g36
(dp324
S'ADJ'
p325
F8.6e-05
sS'VERB'
p326
F3e-06
sS'NOUN'
p327
F0.999912
s(lp328
(g36
I4
tp329
atp330
a(g39
(dp331
S'X'
p332
F1.0
s(lp333
(g39
I5
tp334
atp335
a(g49
(dp336
S'ADJ'
p337
F0.445755
sS'VERB'
p338
F0.000562
sS'NOUN'
p339
F0.553683
s(lp340
(g49
I6
tp341
atp342
a(S'group'
p343
(dp344
S'VERB'
p345
F9.7e-05
sS'NOUN'
p346
F0.999903
s(lp347
(g343
I7
tp348
atp349
a(g41
(dp350
g41
F1.0
s(lp351
(g41
I8
tp352
atp353
a(g56
(dp354
g41
F1.0
s(lp355
(g56
I9
tp356
atp357
a(g61
(dp358
g41
F1.0
s(lp359
(g61
I10
tp360
atp361
a(g72
(dp362
S'NOUN'
p363
F1.0
s(lp364
(g72
I11
tp365
atp366
a(g75
(dp367
g41
F1.0
s(lp368
(g75
I12
tp369
atp370
a(g91
(dp371
S'NOUN'
p372
F1.0
s(lp373
(g91
I13
tp374
atp375
a(g98
(dp376
S'NOUN'
p377
F1.0
s(lp378
(g98
I14
tp379
atp380
a(g101
(dp381
g41
F1.0
s(lp382
(g101
I15
tp383
atp384
a(g110
(dp385
g332
F0.177708
sS'NOUN'
p386
F0.822292
s(lp387
(g110
I16
tp388
atp389
a(S'would'
p390
(dp391
S'VERB'
p392
F1.0
s(lp393
(g390
I17
tp394
atp395
a(g117
(dp396
S'VERB'
p397
F0.9997360000000001
sS'ADJ'
p398
F3.1e-05
sS'ADP'
p399
F0.000233
s(lp400
(g117
I18
tp401
atp402
a(S'to'
p403
(dp404
S'ADV'
p405
F0.0
sS'PRT'
p406
F1.0
sS'ADP'
p407
F0.0
s(lp408
(g403
I19
tp409
atp410
a(g124
(dp411
S'ADV'
p412
F6.9e-05
sS'VERB'
p413
F0.999753
sS'ADJ'
p414
F0.000178
s(lp415
(g124
I20
tp416
atp417
a(g131
(dp418
S'PRON'
p419
F1.0
s(lp420
(g131
I21
tp421
atp422
a(g139
(dp423
S'ADV'
p424
F3.9e-05
sS'NOUN'
p425
F0.000477
sS'ADJ'
p426
F0.999485
s(lp427
(g139
I22
tp428
atp429
a(g152
(dp430
S'NOUN'
p431
F1.0
s(lp432
(g152
I23
tp433
atp434
a(g159
(dp435
S'ADV'
p436
F0.059355
sS'ADP'
p437
F0.940645
s(lp438
(g159
I24
tp439
atp440
a(g168
(dp441
S'NOUN'
p442
F1.1e-05
sS'DET'
p443
F0.999989
s(lp444
(g168
I25
tp445
atp446
a(g188
(dp447
S'NOUN'
p448
F1.0
s(lp449
(g188
I26
tp450
atp451
a(g181
(dp452
S'VERB'
p453
F1.0
s(lp454
(g181
I27
tp455
atp456
a(g196
(dp457
S'ADV'
p458
F0.000999
sS'PRT'
p459
F0.014068
sS'ADP'
p460
F0.984933
s(lp461
(g196
I28
tp462
atp463
a(g203
(dp464
S'ADV'
p465
F3e-06
sS'NOUN'
p466
F1.9e-05
sS'DET'
p467
F0.999978
s(lp468
(g203
I29
tp469
atp470
a(g210
(dp471
S'NOUN'
p472
F1.0
s(lp473
(g210
I30
tp474
atp475
a(g218
(dp476
S'VERB'
p477
F1.0
s(lp478
(g218
I31
tp479
atp480
a(g226
(dp481
S'ADV'
p482
F6.4e-05
sS'NOUN'
p483
F3e-06
sS'ADP'
p484
F0.999932
s(lp485
(g226
I32
tp486
atp487
a(g239
(dp488
S'NOUN'
p489
F1.0
s(lp490
(g239
I33
tp491
atp492
a(g246
(dp493
S'ADP'
p494
F1.0
s(lp495
(g246
I34
tp496
atp497
a(g254
(dp498
S'NOUN'
p499
F1.0
s(lp500
(g254
I35
tp501
atp502
a(g261
(dp503
S'ADP'
p504
F1.0
s(lp505
(g261
I36
tp506
atp507
a(g268
(dp508
S'NOUN'
p509
F1.0
s(lp510
(g268
I37
tp511
atp512
a(g275
(dp513
S'ADP'
p514
F1.0
s(lp515
(g275
I38
tp516
atp517
a(g289
(dp518
S'ADJ'
p519
F1.0
s(lp520
(g289
I39
tp521
atp522
a(g282
(dp523
S'NOUN'
p524
F1.0
s(lp525
(g282
I40
tp526
atp527
a(g41
(dp528
g41
F1.0
s(lp529
(g41
I41
tp530
atp531
asS'nl'
p532
(lp533
(S'namens'
p534
(dp535
S'ADP'
p536
F1.0
s(lp537
(g14
I1
tp538
atp539
a(S'de'
p540
(dp541
S'DET'
p542
F1.0
s(lp543
(g317
I3
tp544
atp545
a(S'gue'
p546
(dp547
S'NOUN'
p548
F1.0
s(lp549
(g36
I4
tp550
atp551
a(g39
(dp552
g41
F1.0
s(lp553
(g39
I5
tp554
atp555
a(S'ngl-fractie'
p556
(dp557
S'NOUN'
p558
F1.0
s(lp559
(g49
I6
tp560
atp561
a(g41
(dp562
g41
F1.0
s(lp563
(g41
I8
tp564
atp565
a(g56
(dp566
g41
F1.0
s(lp567
(g56
I9
tp568
atp569
a(g61
(dp570
g41
F1.0
s(lp571
(g61
I10
tp572
atp573
a(S'el'
p574
(dp575
S'NOUN'
p576
F1.0
s(lp577
(g72
I11
tp578
atp579
a(g75
(dp580
g41
F1.0
s(lp581
(g75
I12
tp582
atp583
a(S'mevrouw'
p584
(dp585
S'NOUN'
p586
F1.0
s(lp587
(g91
I13
tp588
atp589
a(S'de'
p590
(dp591
S'DET'
p592
F1.0
s(lp593
tp594
a(S'voorzitter'
p595
(dp596
S'NOUN'
p597
F1.0
s(lp598
(g98
I14
tp599
atp600
a(g101
(dp601
g41
F1.0
s(lp602
(g101
I15
tp603
atp604
a(S'ik'
p605
(dp606
S'PRON'
p607
F0.999872
sS'NOUN'
p608
F0.000128
s(lp609
(g110
I16
tp610
atp611
a(S'zou'
p612
(dp613
S'VERB'
p614
F1.0
s(lp615
(g390
I17
tp616
atp617
a(S'graag'
p618
(dp619
S'ADV'
p620
F0.999868
sS'ADJ'
p621
F0.000132
s(lp622
tp623
a(S'ons'
p624
(dp625
S'PRON'
p626
F0.999902
sS'NOUN'
p627
F9.8e-05
s(lp628
(g131
I21
tp629
atp630
a(S'grote'
p631
(dp632
S'NOUN'
p633
F0.000128
sS'ADJ'
p634
F0.999872
s(lp635
(g139
I22
tp636
atp637
a(S'ongenoegen'
p638
(dp639
S'NOUN'
p640
F1.0
s(lp641
(g152
I23
tp642
atp643
a(S'willen'
p644
(dp645
S'VERB'
p646
F0.999907
sS'NOUN'
p647
F9.4e-05
s(lp648
(g117
I18
tp649
atp650
a(S'uiten'
p651
(dp652
S'VERB'
p653
F0.9950049999999999
sS'NOUN'
p654
F0.004995
s(lp655
(g124
I20
tp656
atp657
a(S'over'
p658
(dp659
S'ADV'
p660
F0.003716
sS'ADP'
p661
F0.996284
s(lp662
(g159
I24
tp663
atp664
a(S'de'
p665
(dp666
S'DET'
p667
F1.0
s(lp668
(g168
I25
tp669
atp670
a(S'ontwikkelingen'
p671
(dp672
S'NOUN'
p673
F1.0
s(lp674
(g188
I26
tp675
atp676
a(S'die'
p677
(dp678
S'PRON'
p679
F1.0
s(lp680
(g181
I27
tp681
atp682
a(S'zich'
p683
(dp684
S'PRON'
p685
F1.0
s(lp686
tp687
a(S'voordoen'
p688
(dp689
S'VERB'
p690
F0.999897
sS'NOUN'
p691
F0.000102
s(lp692
(g181
I27
tp693
atp694
a(S'in'
p695
(dp696
S'ADV'
p697
F0.007489
sS'VERB'
p698
F0.0
sS'ADP'
p699
F0.992511
s(lp700
(g196
I28
tp701
atp702
a(S'deze'
p703
(dp704
S'PRON'
p705
F1.0
s(lp706
(g203
I29
tp707
atp708
a(S'regio'
p709
(dp710
S'NOUN'
p711
F1.0
s(lp712
(g210
I30
tp713
atp714
a(S'die'
p715
(dp716
S'PRON'
p717
F1.0
s(lp718
(g218
I31
tp719
atp720
a(S'wordt'
p721
(dp722
S'VERB'
p723
F1.0
s(lp724
tp725
a(S'bewoond'
p726
(dp727
S'VERB'
p728
F1.0
s(lp729
(g218
I31
tp730
atp731
a(S'door'
p732
(dp733
S'ADV'
p734
F0.0
sS'CONJ'
p735
F2.9e-05
sS'ADP'
p736
F0.999971
s(lp737
(g226
I32
tp738
atp739
a(S'miljoen'
p740
(dp741
S'NUM'
p742
F0.999998
sS'NOUN'
p743
F2e-06
s(lp744
(g239
I33
tp745
atp746
a(S'arbeiders'
p747
(dp748
S'NOUN'
p749
F1.0
s(lp750
(g254
I35
tp751
atp752
a(S'van'
p753
(dp754
S'ADP'
p755
F1.0
s(lp756
(g261
I36
tp757
atp758
a(S'tientallen'
p759
(dp760
S'NOUN'
p761
F1.0
s(lp762
(g268
I37
tp763
atp764
a(S'verschillende'
p765
(dp766
S'PRON'
p767
F5.1e-05
sS'VERB'
p768
F0.00014
sS'ADJ'
p769
F0.999809
sS'NOUN'
p770
F0.0
s(lp771
(g289
I39
tp772
atp773
a(S'nationaliteiten'
p774
(dp775
S'NOUN'
p776
F1.0
s(lp777
(g282
I40
tp778
atp779
a(g41
(dp780
g41
F1.0
s(lp781
(g41
I41
tp782
atp783
asS'de'
p784
(lp785
(S'im'
p786
(dp787
S'ADP'
p788
F1.0
s(lp789
(g7
I0
tp790
atp791
a(S'namen'
p792
(dp793
S'ADJ'
p794
F0.000237
sS'NOUN'
p795
F0.99972
s(lp796
(g14
I1
tp797
atp798
a(S'der'
p799
(dp800
S'PRON'
p801
F0.000403
sS'DET'
p802
F0.999426
s(lp803
(g317
I3
tp804
atp805
a(S'gue'
p806
(dp807
S'NOUN'
p808
F0.839433
s(lp809
(g36
I4
tp810
atp811
a(g39
(dp812
g41
F1.0
s(lp813
(g39
I5
tp814
atp815
a(S'ngl-fraktion'
p816
(dp817
S'VERB'
p818
F0.011857
sS'NOUN'
p819
F0.977003
s(lp820
(g49
I6
tp821
atp822
a(g41
(dp823
g41
F1.0
s(lp824
(g41
I8
tp825
atp826
a(g56
(dp827
g41
F1.0
s(lp828
(g56
I9
tp829
atp830
a(g61
(dp831
g41
F1.0
s(lp832
(g61
I10
tp833
atp834
a(S'el'
p835
(dp836
S'NOUN'
p837
F1.0
s(lp838
(g72
I11
tp839
atp840
a(g75
(dp841
g41
F1.0
s(lp842
(g75
I12
tp843
atp844
a(S'frau'
p845
(dp846
S'NOUN'
p847
F0.02829
sS'ADJ'
p848
F0.947479
s(lp849
(g91
I13
tp850
atp851
a(S'pr\xc3\xa4sidentin'
p852
(dp853
S'NOUN'
p854
F0.9949129999999999
s(lp855
tp856
a(S'!'
p857
(dp858
g41
F1.0
s(lp859
(g98
I14
tp860
atp861
a(S'ich'
p862
(dp863
S'PRON'
p864
F1.0
s(lp865
(g110
I16
tp866
atp867
a(S'm\xc3\xb6chte'
p868
(dp869
S'VERB'
p870
F1.0
s(lp871
(g117
I18
tp872
atp873
a(S'unserer'
p874
(dp875
S'PRON'
p876
F1.0
s(lp877
(g131
I21
tp878
atp879
a(S'gro\xc3\x9fen'
p880
(dp881
S'ADJ'
p882
F1.0
s(lp883
(g139
I22
tp884
atp885
a(S'besorgnis'
p886
(dp887
S'VERB'
p888
F1.8e-05
sS'NOUN'
p889
F0.999955
s(lp890
(g152
I23
tp891
atp892
a(S'\xc3\xbcber'
p893
(dp894
S'PRT'
p895
F9.1e-05
sS'ADP'
p896
F0.999909
s(lp897
(g159
I24
tp898
atp899
a(S'die'
p900
(dp901
S'PRON'
p902
F0.00022
sS'DET'
p903
F0.999763
s(lp904
(g168
I25
tp905
atp906
a(S'entwicklungen'
p907
(dp908
S'NOUN'
p909
F0.043489
sS'ADJ'
p910
F0.955213
s(lp911
(g188
I26
tp912
atp913
a(S'ausdruck'
p914
(dp915
S'NOUN'
p916
F0.99924
s(lp917
tp918
a(S'verleihen'
p919
(dp920
S'VERB'
p921
F1.0
s(lp922
(g124
I20
tp923
atp924
a(g101
(dp925
g41
F1.0
s(lp926
(g403
I19
tp927
atp928
a(S'die'
p929
(dp930
S'PRON'
p931
F0.993273
sS'DET'
p932
F0.00405
s(lp933
(g181
I27
tp934
atp935
a(S'sich'
p936
(dp937
S'PRON'
p938
F1.0
s(lp939
tp940
a(S'aktuell'
p941
(dp942
S'ADJ'
p943
F1.0
s(lp944
(g181
I27
tp945
atp946
a(S'in'
p947
(dp948
S'ADP'
p949
F1.0
s(lp950
(g196
I28
tp951
atp952
a(S'dieser'
p953
(dp954
S'PRON'
p955
F1.0
s(lp956
(g203
I29
tp957
atp958
a(S'region'
p959
(dp960
S'ADJ'
p961
F0.000201
sS'NOUN'
p962
F0.999758
s(lp963
(g210
I30
tp964
atp965
a(S'abzeichnen'
p966
(dp967
S'VERB'
p968
F1.0
s(lp969
tp970
a(g101
(dp971
g41
F1.0
s(lp972
tp973
a(S'die'
p974
(dp975
S'PRON'
p976
F0.968846
sS'DET'
p977
F0.026497
s(lp978
tp979
a(S'von'
p980
(dp981
S'NOUN'
p982
F0.000889
sS'ADP'
p983
F0.999111
s(lp984
(g226
I32
tp985
atp986
a(S'millionen'
p987
(dp988
S'NOUN'
p989
F0.182457
sS'ADJ'
p990
F0.767139
s(lp991
(g239
I33
tp992
atp993
a(S'arbeitnehmern'
p994
(dp995
S'ADJ'
p996
F0.182944
sS'NOUN'
p997
F0.663873
s(lp998
(g254
I35
tp999
atp1000
a(S'dutzender'
p1001
(dp1002
S'ADJ'
p1003
F0.9440200000000001
s(lp1004
(g268
I37
tp1005
atp1006
a(S'verschiedener'
p1007
(dp1008
S'ADJ'
p1009
F1.0
s(lp1010
(g289
I39
tp1011
atp1012
a(S'nationalit\xc3\xa4ten'
p1013
(dp1014
S'ADJ'
p1015
F0.029705
sS'NOUN'
p1016
F0.946651
s(lp1017
(g282
I40
tp1018
atp1019
a(S'bewohnt'
p1020
(dp1021
S'VERB'
p1022
F0.9999990000000001
s(lp1023
(g218
I31
tp1024
atp1025
a(S'wird'
p1026
(dp1027
S'VERB'
p1028
F1.0
s(lp1029
tp1030
a(g41
(dp1031
g41
F1.0
s(lp1032
(g41
I41
tp1033
atp1034
asS'it'
p1035
(lp1036
(S'signora'
p1037
(dp1038
S'NOUN'
p1039
F1.0
s(lp1040
(g91
I13
tp1041
atp1042
a(S'presidente'
p1043
(dp1044
S'NOUN'
p1045
F1.0
s(lp1046
(g98
I14
tp1047
atp1048
a(g101
(dp1049
g41
F1.0
s(lp1050
(g101
I15
tp1051
atp1052
a(S'desidero'
p1053
(dp1054
S'VERB'
p1055
F1.0
s(lp1056
(g117
I18
tp1057
atp1058
a(S'esprimere'
p1059
(dp1060
S'VERB'
p1061
F1.0
s(lp1062
(g124
I20
tp1063
atp1064
a(S'la'
p1065
(dp1066
S'PRON'
p1067
F0.0
sS'DET'
p1068
F1.0
s(lp1069
tp1070
a(S'nostra'
p1071
(dp1072
S'PRON'
p1073
F1.0
s(lp1074
(g131
I21
tp1075
atp1076
a(S'grande'
p1077
(dp1078
S'NOUN'
p1079
F0.003398
sS'ADJ'
p1080
F0.996602
s(lp1081
(g139
I22
tp1082
atp1083
a(S'preoccupazione'
p1084
(dp1085
S'NOUN'
p1086
F1.0
s(lp1087
(g152
I23
tp1088
atp1089
a(S'riguardo'
p1090
(dp1091
S'VERB'
p1092
F0.023284
sS'NOUN'
p1093
F0.976716
s(lp1094
(g159
I24
tp1095
atp1096
a(S'agli'
p1097
(dp1098
S'NOUN'
p1099
F6e-06
sS'ADP'
p1100
F0.999994
s(lp1101
tp1102
a(S'sviluppi'
p1103
(dp1104
S'VERB'
p1105
F2.2e-05
sS'NOUN'
p1106
F0.999977
s(lp1107
(g188
I26
tp1108
atp1109
a(S'che'
p1110
(dp1111
S'PRON'
p1112
F0.96005
sS'CONJ'
p1113
F0.039099
sS'ADJ'
p1114
F0.000851
s(lp1115
tp1116
a(S'emergono'
p1117
(dp1118
S'VERB'
p1119
F1.0
s(lp1120
(g181
I27
tp1121
atp1122
a(S'in'
p1123
(dp1124
S'ADP'
p1125
F1.0
s(lp1126
(g196
I28
tp1127
atp1128
a(S'questa'
p1129
(dp1130
S'PRON'
p1131
F1.0
s(lp1132
(g203
I29
tp1133
atp1134
a(S'regione'
p1135
(dp1136
S'NOUN'
p1137
F1.0
s(lp1138
(g210
I30
tp1139
atp1140
a(S'abitata'
p1141
(dp1142
S'VERB'
p1143
F0.901443
sS'ADJ'
p1144
F0.098557
s(lp1145
(g218
I31
tp1146
atp1147
a(S'da'
p1148
(dp1149
S'ADP'
p1150
F1.0
s(lp1151
(g226
I32
tp1152
atp1153
a(S'milioni'
p1154
(dp1155
S'NOUN'
p1156
F1.0
s(lp1157
(g239
I33
tp1158
atp1159
a(S'di'
p1160
(dp1161
S'CONJ'
p1162
F4e-06
sS'ADP'
p1163
F0.999996
s(lp1164
(g246
I34
tp1165
atp1166
a(S'lavoratori'
p1167
(dp1168
S'NOUN'
p1169
F1.0
s(lp1170
(g254
I35
tp1171
atp1172
a(S'di'
p1173
(dp1174
S'CONJ'
p1175
F4e-06
sS'ADP'
p1176
F0.999996
s(lp1177
(g261
I36
tp1178
atp1179
a(S'dozzine'
p1180
(dp1181
S'NOUN'
p1182
F1.0
s(lp1183
(g268
I37
tp1184
atp1185
a(S'di'
p1186
(dp1187
S'CONJ'
p1188
F4e-06
sS'ADP'
p1189
F0.999996
s(lp1190
(g275
I38
tp1191
atp1192
a(S'nazionalit\xc3\xa0'
p1193
(dp1194
S'NOUN'
p1195
F1.0
s(lp1196
(g282
I40
tp1197
atp1198
a(S'diverse'
p1199
(dp1200
S'VERB'
p1201
F0.016770999999999998
sS'ADJ'
p1202
F0.983229
s(lp1203
(g289
I39
tp1204
atp1205
a(g41
(dp1206
g41
F1.0
s(lp1207
(g41
I41
tp1208
atp1209
asS'sk'
p1210
(lp1211
(S'v\xc3\xa1\xc5\xbeen\xc3\xa1'
p1212
(dp1213
S'VERB'
p1214
F0.607185
sS'ADJ'
p1215
F0.392815
s(lp1216
tp1217
a(S'pani'
p1218
(dp1219
S'NOUN'
p1220
F1.0
s(lp1221
(g91
I13
tp1222
atp1223
a(S'predsedaj\xc3\xbaca'
p1224
(dp1225
S'NOUN'
p1226
F0.030061
sS'VERB'
p1227
F0.9221390000000002
sS'ADJ'
p1228
F0.0478
s(lp1229
(g98
I14
tp1230
atp1231
a(g101
(dp1232
g41
F1.0
s(lp1233
(g101
I15
tp1234
atp1235
a(S'chcel'
p1236
(dp1237
S'VERB'
p1238
F1.0
s(lp1239
tp1240
a(S'by'
p1241
(dp1242
S'PRT'
p1243
F0.999999
sg332
F1e-06
s(lp1244
(g390
I17
tp1245
atp1246
a(S'som'
p1247
(dp1248
S'VERB'
p1249
F1.0
s(lp1250
(g117
I18
tp1251
atp1252
a(S'vyjadri\xc5\xa5'
p1253
(dp1254
S'VERB'
p1255
F1.0
s(lp1256
(g124
I20
tp1257
atp1258
a(S'znepokojenie'
p1259
(dp1260
S'NOUN'
p1261
F1.0
s(lp1262
(g152
I23
tp1263
atp1264
a(S'nad'
p1265
(dp1266
g332
F0.00074
sS'ADP'
p1267
F0.999261
s(lp1268
(g159
I24
tp1269
atp1270
a(S'v\xc3\xbdvojom'
p1271
(dp1272
S'NOUN'
p1273
F1.0
s(lp1274
(g188
I26
tp1275
atp1276
a(S'v'
p1277
(dp1278
g332
F9.7e-05
sS'ADP'
p1279
F0.999902
s(lp1280
(g196
I28
tp1281
atp1282
a(S'tomto'
p1283
(dp1284
S'PRON'
p1285
F1.0
s(lp1286
(g203
I29
tp1287
atp1288
a(S'regi\xc3\xb3ne'
p1289
(dp1290
S'NOUN'
p1291
F1.0
s(lp1292
(g210
I30
tp1293
atp1294
a(S'ob\xc3\xbdvanom'
p1295
(dp1296
S'VERB'
p1297
F1.0
s(lp1298
(g218
I31
tp1299
atp1300
a(S'mili\xc3\xb3nmi'
p1301
(dp1302
S'NUM'
p1303
F0.998396
sS'NOUN'
p1304
F0.001604
s(lp1305
(g239
I33
tp1306
atp1307
a(S'pracovn\xc3\xadkov'
p1308
(dp1309
S'NOUN'
p1310
F1.0
s(lp1311
(g254
I35
tp1312
atp1313
a(S'mnoh\xc3\xbdch'
p1314
(dp1315
g332
F1.8e-05
sS'NUM'
p1316
F0.999982
s(lp1317
(g268
I37
tp1318
atp1319
a(S'r\xc3\xb4znych'
p1320
(dp1321
S'ADJ'
p1322
F1.0
s(lp1323
(g289
I39
tp1324
atp1325
a(S'n\xc3\xa1rodnost\xc3\xad'
p1326
(dp1327
S'NOUN'
p1328
F1.0
s(lp1329
(g282
I40
tp1330
atp1331
a(g41
(dp1332
g41
F1.0
s(lp1333
(g41
I41
tp1334
atp1335
asS'pl'
p1336
(lp1337
(S'w'
p1338
(dp1339
S'ADJ'
p1340
F0.0
sg332
F0.0
sS'NOUN'
p1341
F0.0
sS'ADP'
p1342
F1.0
s(lp1343
(g7
I0
tp1344
atp1345
a(S'imieniu'
p1346
(dp1347
S'NOUN'
p1348
F1.0
s(lp1349
(g14
I1
tp1350
atp1351
a(S'grupy'
p1352
(dp1353
S'NOUN'
p1354
F1.0
s(lp1355
(g343
I7
tp1356
atp1357
a(S'gue'
p1358
(dp1359
S'ADJ'
p1360
F0.0017159999999999999
sS'VERB'
p1361
F0.006025999999999999
sS'NOUN'
p1362
F0.9922599999999999
s(lp1363
(g36
I4
tp1364
atp1365
a(g39
(dp1366
g41
F1.0
s(lp1367
(g39
I5
tp1368
atp1369
a(S'ngl'
p1370
(dp1371
S'ADV'
p1372
F0.002
sS'ADJ'
p1373
F0.001255
sS'VERB'
p1374
F0.096917
sS'NOUN'
p1375
F0.8986740000000001
sg332
F0.001153
s(lp1376
(g49
I6
tp1377
atp1378
a(g56
(dp1379
g332
F0.000876
sS'NUM'
p1380
F3e-06
sS'NOUN'
p1381
F0.000767
sg41
F0.998354
s(lp1382
(g56
I9
tp1383
atp1384
a(g61
(dp1385
S'NOUN'
p1386
F0.002561
sg41
F0.997439
s(lp1387
(g61
I10
tp1388
atp1389
a(S'el'
p1390
(dp1391
S'ADJ'
p1392
F0.024165
sS'NOUN'
p1393
F0.975835
s(lp1394
(g72
I11
tp1395
atp1396
a(g75
(dp1397
g41
F1.0
s(lp1398
(g75
I12
tp1399
atp1400
a(S'pani'
p1401
(dp1402
S'NOUN'
p1403
F1.000001
s(lp1404
tp1405
a(S'przewodnicz\xc4\x85ca'
p1406
(dp1407
S'NOUN'
p1408
F1.0
s(lp1409
(g91
I13
tp1410
atp1411
a(g857
(dp1412
g41
F1.0
s(lp1413
(g98
I14
tp1414
atp1415
a(S'chcia\xc5\x82bym'
p1416
(dp1417
S'ADV'
p1418
F0.041723
sS'ADJ'
p1419
F0.008087999999999998
sS'VERB'
p1420
F0.903913
sS'NOUN'
p1421
F0.046274
s(lp1422
(g390
I17
tp1423
atp1424
a(S'wyrazi\xc4\x87'
p1425
(dp1426
S'VERB'
p1427
F1.0
s(lp1428
(g124
I20
tp1429
atp1430
a(S'nasz'
p1431
(dp1432
S'ADJ'
p1433
F0.9999999999999999
s(lp1434
(g131
I21
tp1435
atp1436
a(S'wielki'
p1437
(dp1438
S'NOUN'
p1439
F3e-06
sS'ADJ'
p1440
F0.9999970000000001
s(lp1441
(g139
I22
tp1442
atp1443
a(S'niepok\xc3\xb3j'
p1444
(dp1445
S'NOUN'
p1446
F1.0
s(lp1447
(g152
I23
tp1448
atp1449
a(g1338
(dp1450
S'ADJ'
p1451
F0.0
sg332
F0.0
sS'NOUN'
p1452
F0.0
sS'ADP'
p1453
F1.0
s(lp1454
tp1455
a(S'zwi\xc4\x85zku'
p1456
(dp1457
S'NOUN'
p1458
F1.0
s(lp1459
(g159
I24
tp1460
atp1461
a(S'z'
p1462
(dp1463
S'PRT'
p1464
F5e-06
sS'VERB'
p1465
F9e-06
sS'NOUN'
p1466
F0.0
sS'ADP'
p1467
F0.999985
sg332
F0.0
s(lp1468
(g168
I25
tp1469
atp1470
a(S'rozwojem'
p1471
(dp1472
S'NOUN'
p1473
F1.0
s(lp1474
tp1475
a(S'sytuacji'
p1476
(dp1477
S'NOUN'
p1478
F0.999999
s(lp1479
(g188
I26
tp1480
atp1481
a(g1338
(dp1482
g332
F0.0
sS'ADJ'
p1483
F0.0
sS'ADP'
p1484
F0.999999
sS'NOUN'
p1485
F0.0
s(lp1486
(g196
I28
tp1487
atp1488
a(S'tym'
p1489
(dp1490
S'ADV'
p1491
F1e-06
sS'NOUN'
p1492
F0.006241
sS'CONJ'
p1493
F0.0
sS'ADJ'
p1494
F0.993757
sS'PRT'
p1495
F0.0
s(lp1496
(g203
I29
tp1497
atp1498
a(S'regionie'
p1499
(dp1500
S'NOUN'
p1501
F1.0
s(lp1502
(g210
I30
tp1503
atp1504
a(g101
(dp1505
g332
F0.0
sg41
F1.0
s(lp1506
tp1507
a(S'zamieszka\xc5\x82ym'
p1508
(dp1509
S'ADV'
p1510
F0.022306
sS'NOUN'
p1511
F0.08059399999999997
sS'VERB'
p1512
F0.7396249999999996
sS'ADJ'
p1513
F0.15747299999999997
s(lp1514
(g218
I31
tp1515
atp1516
a(S'przez'
p1517
(dp1518
S'ADP'
p1519
F1.0
s(lp1520
(g226
I32
tp1521
atp1522
a(S'miliony'
p1523
(dp1524
S'NOUN'
p1525
F1.0
s(lp1526
(g239
I33
tp1527
atp1528
a(S'robotnik\xc3\xb3w'
p1529
(dp1530
S'NOUN'
p1531
F1.0
s(lp1532
(g254
I35
tp1533
atp1534
a(S'nale\xc5\xbc\xc4\x85cych'
p1535
(dp1536
S'VERB'
p1537
F1.0
s(lp1538
tp1539
a(S'do'
p1540
(dp1541
g332
F0.0
sS'NOUN'
p1542
F4e-06
sS'ADP'
p1543
F0.999996
s(lp1544
(g261
I36
tp1545
atp1546
a(S'dziesi\xc4\x85tk\xc3\xb3w'
p1547
(dp1548
S'NOUN'
p1549
F1.0
s(lp1550
(g268
I37
tp1551
atp1552
a(S'r\xc3\xb3\xc5\xbcnych'
p1553
(dp1554
S'ADJ'
p1555
F1.000002
s(lp1556
(g289
I39
tp1557
atp1558
a(S'narodowo\xc5\x9bci'
p1559
(dp1560
S'NOUN'
p1561
F1.0
s(lp1562
(g282
I40
tp1563
atp1564
a(g41
(dp1565
g41
F1.0
s(lp1566
(g41
I41
tp1567
atp1568
asS'sl'
p1569
(lp1570
(g1277
(dp1571
S'ADP'
p1572
F1.0
s(lp1573
(g14
I1
tp1574
atp1575
a(S'imenu'
p1576
(dp1577
S'NOUN'
p1578
F1.0
s(lp1579
tp1580
a(S'skupine'
p1581
(dp1582
S'NOUN'
p1583
F1.0
s(lp1584
(g14
I1
tp1585
atp1586
a(S'gue'
p1587
(dp1588
S'ADJ'
p1589
F0.000303
sg332
F0.371367
sS'VERB'
p1590
F0.000139
sS'NOUN'
p1591
F0.6281890000000003
s(lp1592
(g36
I4
tp1593
atp1594
a(g39
(dp1595
g41
F1.0
s(lp1596
(g39
I5
tp1597
atp1598
a(S'ngl'
p1599
(dp1600
S'ADJ'
p1601
F0.003026
sg332
F0.007161
sS'ADV'
p1602
F0.000768
sS'VERB'
p1603
F0.40704199999999996
sS'NOUN'
p1604
F0.5820029999999998
s(lp1605
(g49
I6
tp1606
atp1607
a(g41
(dp1608
g41
F1.0
s(lp1609
(g41
I8
tp1610
atp1611
a(g56
(dp1612
g41
F1.0
s(lp1613
(g56
I9
tp1614
atp1615
a(g61
(dp1616
g41
F1.0
s(lp1617
(g61
I10
tp1618
atp1619
a(S'el'
p1620
(dp1621
g332
F1.0
s(lp1622
(g72
I11
tp1623
atp1624
a(g75
(dp1625
g41
F1.0
s(lp1626
(g75
I12
tp1627
atp1628
a(S'gospa'
p1629
(dp1630
S'NOUN'
p1631
F1.0
s(lp1632
(g91
I13
tp1633
atp1634
a(S'predsednica'
p1635
(dp1636
S'NOUN'
p1637
F1.0
s(lp1638
(g98
I14
tp1639
atp1640
a(g101
(dp1641
g41
F1.0
s(lp1642
(g101
I15
tp1643
atp1644
a(S'zelo'
p1645
(dp1646
S'ADV'
p1647
F1.0
s(lp1648
(g139
I22
tp1649
atp1650
a(S'smo'
p1651
(dp1652
g332
F2e-06
sS'VERB'
p1653
F0.999998
s(lp1654
(g131
I21
tp1655
atp1656
a(S'zaskrbljeni'
p1657
(dp1658
S'ADJ'
p1659
F1.0
s(lp1660
(g152
I23
tp1661
atp1662
a(S'zaradi'
p1663
(dp1664
S'ADP'
p1665
F1.0
s(lp1666
(g159
I24
tp1667
atp1668
a(S'dogodkov'
p1669
(dp1670
S'NOUN'
p1671
F1.0
s(lp1672
(g188
I26
tp1673
atp1674
a(g1277
(dp1675
S'ADP'
p1676
F1.0
s(lp1677
(g196
I28
tp1678
atp1679
a(S'tej'
p1680
(dp1681
S'PRON'
p1682
F1.0
s(lp1683
(g203
I29
tp1684
atp1685
a(S'regiji'
p1686
(dp1687
S'NOUN'
p1688
F1.0
s(lp1689
(g210
I30
tp1690
atp1691
a(g101
(dp1692
g41
F1.0
s(lp1693
tp1694
a(S'kjer'
p1695
(dp1696
S'CONJ'
p1697
F1.0
s(lp1698
tp1699
a(S'\xc5\xbeivi'
p1700
(dp1701
S'VERB'
p1702
F0.994084
sS'ADJ'
p1703
F0.0059169999999999995
s(lp1704
(g218
I31
tp1705
atp1706
a(S've\xc4\x8d'
p1707
(dp1708
S'ADV'
p1709
F0.979748
sS'PRT'
p1710
F0.020252
s(lp1711
tp1712
a(S'milijonov'
p1713
(dp1714
S'NOUN'
p1715
F1.0
s(lp1716
(g239
I33
tp1717
atp1718
a(S'delavcev'
p1719
(dp1720
S'NOUN'
p1721
F1.0
s(lp1722
(g254
I35
tp1723
atp1724
a(g101
(dp1725
g41
F1.0
s(lp1726
tp1727
a(S'ki'
p1728
(dp1729
S'CONJ'
p1730
F1.0
s(lp1731
tp1732
a(S'izhajajo'
p1733
(dp1734
S'VERB'
p1735
F1.0
s(lp1736
(g181
I27
tp1737
atp1738
a(S'iz'
p1739
(dp1740
g332
F7.4e-05
sS'ADP'
p1741
F0.999926
s(lp1742
(g261
I36
tp1743
atp1744
a(S've\xc4\x8d'
p1745
(dp1746
S'ADV'
p1747
F0.976611
sS'PRT'
p1748
F0.023389
s(lp1749
tp1750
a(S'deset'
p1751
(dp1752
S'NUM'
p1753
F1.0
s(lp1754
(g268
I37
tp1755
atp1756
a(S'razli\xc4\x8dnih'
p1757
(dp1758
S'ADJ'
p1759
F1.0
s(lp1760
(g289
I39
tp1761
atp1762
a(S'narodnostnih'
p1763
(dp1764
S'ADJ'
p1765
F1.0
s(lp1766
tp1767
a(S'skupin'
p1768
(dp1769
S'NOUN'
p1770
F1.0
s(lp1771
(g282
I40
tp1772
atp1773
a(g41
(dp1774
g41
F1.0
s(lp1775
(g41
I41
tp1776
atp1777
asS'es'
p1778
(lp1779
(S'en'
p1780
(dp1781
g332
F0.002093
sS'CONJ'
p1782
F4.7e-05
sS'ADP'
p1783
F0.99786
s(lp1784
(g7
I0
tp1785
atp1786
a(S'nombre'
p1787
(dp1788
S'NOUN'
p1789
F1.0
s(lp1790
(g14
I1
tp1791
atp1792
a(S'del'
p1793
(dp1794
S'ADP'
p1795
F1.0
s(lp1796
(g21
I2
tp1797
atp1798
a(S'grupo'
p1799
(dp1800
S'NOUN'
p1801
F1.0
s(lp1802
(g343
I7
tp1803
atp1804
a(S'gue'
p1805
(dp1806
S'NOUN'
p1807
F0.249644
sS'VERB'
p1808
F1e-06
sS'ADJ'
p1809
F0.750355
s(lp1810
(g36
I4
tp1811
atp1812
a(g39
(dp1813
g41
F1.0
s(lp1814
(g39
I5
tp1815
atp1816
a(S'ngl'
p1817
(dp1818
S'ADJ'
p1819
F0.342013
sS'VERB'
p1820
F7.3e-05
sS'NOUN'
p1821
F0.6579140000000001
s(lp1822
(g49
I6
tp1823
atp1824
a(g41
(dp1825
g41
F1.0
s(lp1826
(g41
I8
tp1827
atp1828
a(g56
(dp1829
g41
F1.0
s(lp1830
(g56
I9
tp1831
atp1832
a(g61
(dp1833
g41
F1.0
s(lp1834
(g61
I10
tp1835
atp1836
a(S'el'
p1837
(dp1838
S'PRON'
p1839
F1e-06
sS'DET'
p1840
F0.999999
s(lp1841
(g72
I11
tp1842
atp1843
a(g75
(dp1844
g41
F1.0
s(lp1845
(g75
I12
tp1846
atp1847
a(S'se\xc3\xb1ora'
p1848
(dp1849
S'NOUN'
p1850
F1.0
s(lp1851
(g91
I13
tp1852
atp1853
a(S'presidenta'
p1854
(dp1855
S'NOUN'
p1856
F1.0
s(lp1857
(g98
I14
tp1858
atp1859
a(g101
(dp1860
g41
F1.0
s(lp1861
(g101
I15
tp1862
atp1863
a(S'quisiera'
p1864
(dp1865
S'VERB'
p1866
F1.0
s(lp1867
(g117
I18
tp1868
atp1869
a(S'expresar'
p1870
(dp1871
S'VERB'
p1872
F1.0
s(lp1873
(g124
I20
tp1874
atp1875
a(S'nuestro'
p1876
(dp1877
S'PRON'
p1878
F0.358547
sS'ADJ'
p1879
F0.641453
s(lp1880
(g131
I21
tp1881
atp1882
a(S'profundo'
p1883
(dp1884
S'VERB'
p1885
F0.205568
sS'ADJ'
p1886
F0.794432
s(lp1887
(g139
I22
tp1888
atp1889
a(S'malestar'
p1890
(dp1891
S'NOUN'
p1892
F1.0
s(lp1893
(g152
I23
tp1894
atp1895
a(S'en'
p1896
(dp1897
S'ADP'
p1898
F1.0
s(lp1899
(g159
I24
tp1900
atp1901
a(S'relaci\xc3\xb3n'
p1902
(dp1903
S'ADP'
p1904
F1.0
s(lp1905
tp1906
a(S'con'
p1907
(dp1908
S'ADP'
p1909
F1.0
s(lp1910
(g159
I24
tp1911
atp1912
a(S'los'
p1913
(dp1914
S'PRON'
p1915
F0.0
sS'DET'
p1916
F1.0
s(lp1917
(g168
I25
tp1918
atp1919
a(S'acontecimientos'
p1920
(dp1921
S'NOUN'
p1922
F1.0
s(lp1923
(g188
I26
tp1924
atp1925
a(S'que'
p1926
(dp1927
g332
F4e-06
sS'CONJ'
p1928
F0.999996
s(lp1929
tp1930
a(S'se'
p1931
(dp1932
S'PRON'
p1933
F1.0
sS'VERB'
p1934
F0.0
s(lp1935
tp1936
a(S'est\xc3\xa1n'
p1937
(dp1938
S'VERB'
p1939
F1.0
s(lp1940
tp1941
a(S'produciendo'
p1942
(dp1943
S'VERB'
p1944
F1.0
s(lp1945
(g181
I27
tp1946
atp1947
a(S'en'
p1948
(dp1949
g332
F0.0
sS'CONJ'
p1950
F0.0
sS'ADP'
p1951
F1.0
s(lp1952
(g196
I28
tp1953
atp1954
a(S'esta'
p1955
(dp1956
S'PRON'
p1957
F1.0
sS'VERB'
p1958
F0.0
s(lp1959
(g203
I29
tp1960
atp1961
a(S'regi\xc3\xb3n'
p1962
(dp1963
S'NOUN'
p1964
F1.0
s(lp1965
(g210
I30
tp1966
atp1967
a(g101
(dp1968
g41
F1.0
s(lp1969
tp1970
a(S'habitada'
p1971
(dp1972
S'VERB'
p1973
F1.0
s(lp1974
(g218
I31
tp1975
atp1976
a(S'por'
p1977
(dp1978
S'ADP'
p1979
F1.0
s(lp1980
(g226
I32
tp1981
atp1982
a(S'millones'
p1983
(dp1984
S'NUM'
p1985
F1.0
s(lp1986
(g239
I33
tp1987
atp1988
a(S'de'
p1989
(dp1990
g332
F0.000111
sS'CONJ'
p1991
F1.8e-05
sS'ADP'
p1992
F0.999872
s(lp1993
(g246
I34
tp1994
atp1995
a(S'trabajadores'
p1996
(dp1997
S'ADJ'
p1998
F0.082038
sS'NOUN'
p1999
F0.917962
s(lp2000
(g254
I35
tp2001
atp2002
a(S'de'
p2003
(dp2004
g332
F2.9e-05
sS'CONJ'
p2005
F0.000534
sS'ADP'
p2006
F0.999437
s(lp2007
(g261
I36
tp2008
atp2009
a(S'docenas'
p2010
(dp2011
S'NOUN'
p2012
F1.0
s(lp2013
(g268
I37
tp2014
atp2015
a(S'de'
p2016
(dp2017
g332
F2.9e-05
sS'CONJ'
p2018
F0.000449
sS'ADP'
p2019
F0.999522
s(lp2020
(g275
I38
tp2021
atp2022
a(S'nacionalidades'
p2023
(dp2024
S'NOUN'
p2025
F1.0
s(lp2026
(g282
I40
tp2027
atp2028
a(S'distintas'
p2029
(dp2030
S'ADJ'
p2031
F1.0
s(lp2032
(g289
I39
tp2033
atp2034
a(g41
(dp2035
g41
F1.0
s(lp2036
(g41
I41
tp2037
atp2038
as.