(dp0
S'fr'
p1
(lp2
(S'nous'
p3
(dp4
S'PRON'
p5
F1.0
s(lp6
(S'we'
p7
I0
tp8
atp9
a(S'partageons'
p10
(dp11
S'VERB'
p12
F1.0
s(lp13
(S'share'
p14
I1
tp15
atp16
a(S'votre'
p17
(dp18
S'PRON'
p19
F1.0
s(lp20
(S'your'
p21
I2
tp22
atp23
a(S'souhait'
p24
(dp25
S'NOUN'
p26
F1.0
s(lp27
(S'ambition'
p28
I3
tp29
atp30
a(S'de'
p31
(dp32
S'ADP'
p33
F1.0
s(lp34
(S'to'
p35
I4
tp36
atp37
a(S'veiller'
p38
(dp39
S'VERB'
p40
F1.0
s(lp41
tp42
a(S'\xc3\xa0'
p43
(dp44
S'ADP'
p45
F1.0
s(lp46
(S'by'
p47
I10
tp48
atp49
a(S'ce'
p50
(dp51
S'PRON'
p52
F1.0
s(lp53
(S'ensure'
p54
I5
tp55
atp56
a(S'que'
p57
(dp58
S'ADV'
p59
F0.010855
sS'PRON'
p60
F0.898252
sS'CONJ'
p61
F0.090892
s(lp62
(S'that'
p63
I6
tp64
atp65
a(S'les'
p66
(dp67
S'PRON'
p68
F0.001511
sS'DET'
p69
F0.998483
sS'ADP'
p70
F6e-06
s(lp71
tp72
a(S'promesses'
p73
(dp74
S'NOUN'
p75
F1.0
s(lp76
(S'promises'
p77
I7
tp78
atp79
a(S'ne'
p80
(dp81
S'ADV'
p82
F1.0
s(lp83
(S'are'
p84
I8
tp85
atp86
a(S'restent'
p87
(dp88
S'VERB'
p89
F1.0
s(lp90
(S'deeds'
p91
I11
tp92
atp93
a(S'pas'
p94
(dp95
S'ADV'
p96
F0.995938
sS'NOUN'
p97
F0.004062
s(lp98
(g91
I11
tp99
atp100
a(S'lettre'
p101
(dp102
S'VERB'
p103
F0.6609019999999999
sS'NOUN'
p104
F0.339098
s(lp105
tp106
a(S'morte'
p107
(dp108
S'NOUN'
p109
F0.02643
sS'VERB'
p110
F0.772112
sS'ADJ'
p111
F0.201458
s(lp112
(g91
I11
tp113
atp114
a(S'.'
p115
(dp116
g115
F1.0
s(lp117
(g115
I12
tp118
atp119
asS'en'
p120
(lp121
(g7
(dp122
S'PRON'
p123
F1.0
s(lp124
(g7
I0
tp125
atp126
a(g14
(dp127
S'VERB'
p128
F0.99995
sS'NOUN'
p129
F5e-05
s(lp130
(g14
I1
tp131
atp132
a(g21
(dp133
S'PRON'
p134
F1.0
s(lp135
(g21
I2
tp136
atp137
a(g28
(dp138
S'NOUN'
p139
F1.0
s(lp140
(g28
I3
tp141
atp142
a(g35
(dp143
S'ADV'
p144
F0.0
sS'PRT'
p145
F1.0
sS'ADP'
p146
F0.0
s(lp147
(g35
I4
tp148
atp149
a(g54
(dp150
S'VERB'
p151
F1.0
s(lp152
(g54
I5
tp153
atp154
a(g63
(dp155
S'ADV'
p156
F0.000102
sS'DET'
p157
F0.25731099999999996
sS'ADP'
p158
F0.742587
s(lp159
(g63
I6
tp160
atp161
a(g77
(dp162
S'VERB'
p163
F1.7e-05
sS'NOUN'
p164
F0.999983
s(lp165
(g77
I7
tp166
atp167
a(g84
(dp168
S'VERB'
p169
F0.999999
sS'NOUN'
p170
F1e-06
s(lp171
(g84
I8
tp172
atp173
a(S'followed'
p174
(dp175
S'VERB'
p176
F0.99857
sS'ADJ'
p177
F0.001429
s(lp178
(g174
I9
tp179
atp180
a(g47
(dp181
S'ADV'
p182
F4.7e-05
sS'NOUN'
p183
F3e-06
sS'ADP'
p184
F0.99995
s(lp185
(g47
I10
tp186
atp187
a(g91
(dp188
S'VERB'
p189
F0.000446
sS'NOUN'
p190
F0.999554
s(lp191
(g91
I11
tp192
atp193
a(g115
(dp194
g115
F1.0
s(lp195
(g115
I12
tp196
atp197
asS'nl'
p198
(lp199
(S'wij'
p200
(dp201
S'PRON'
p202
F1.0
s(lp203
(g7
I0
tp204
atp205
a(S'delen'
p206
(dp207
S'VERB'
p208
F0.972029
sS'NOUN'
p209
F0.027971000000000003
s(lp210
(g14
I1
tp211
atp212
a(S'uw'
p213
(dp214
S'PRON'
p215
F1.0
s(lp216
(g21
I2
tp217
atp218
a(S'streven'
p219
(dp220
S'VERB'
p221
F0.006371
sS'NOUN'
p222
F0.993629
s(lp223
(g28
I3
tp224
atp225
a(S'om'
p226
(dp227
S'ADV'
p228
F0.00326
sS'CONJ'
p229
F0.379871
sS'ADP'
p230
F0.616869
s(lp231
tp232
a(S'beloften'
p233
(dp234
S'NOUN'
p235
F1.0
s(lp236
(g77
I7
tp237
atp238
a(S'door'
p239
(dp240
S'ADV'
p241
F2e-06
sS'CONJ'
p242
F2.1e-05
sS'ADP'
p243
F0.999977
s(lp244
(g47
I10
tp245
atp246
a(S'daden'
p247
(dp248
S'NOUN'
p249
F1.0
s(lp250
tp251
a(S'te'
p252
(dp253
S'PRT'
p254
F1.0
s(lp255
(g35
I4
tp256
atp257
a(S'laten'
p258
(dp259
S'VERB'
p260
F0.999999
sS'NOUN'
p261
F0.0
s(lp262
(g91
I11
tp263
atp264
a(S'volgen'
p265
(dp266
S'VERB'
p267
F0.9989819999999999
sS'NOUN'
p268
F0.001018
s(lp269
(g174
I9
tp270
atp271
a(g115
(dp272
g115
F1.0
s(lp273
(g115
I12
tp274
atp275
asS'de'
p276
(lp277
(S'wir'
p278
(dp279
S'PRON'
p280
F1.0
s(lp281
(g7
I0
tp282
atp283
a(S'teilen'
p284
(dp285
S'VERB'
p286
F1.0
s(lp287
(g14
I1
tp288
atp289
a(S'ihr'
p290
(dp291
S'PRON'
p292
F1.0
s(lp293
(g21
I2
tp294
atp295
a(S'bestreben'
p296
(dp297
S'VERB'
p298
F1.0
s(lp299
(g28
I3
tp300
atp301
a(S','
p302
(dp303
g115
F1.0
s(lp304
tp305
a(S'sicherzustellen'
p306
(dp307
S'VERB'
p308
F1.0
s(lp309
(g54
I5
tp310
atp311
a(g302
(dp312
g115
F1.0
s(lp313
tp314
a(S'dass'
p315
(dp316
S'CONJ'
p317
F1.0
s(lp318
(g63
I6
tp319
atp320
a(S'auf'
p321
(dp322
S'ADV'
p323
F6e-05
sS'ADP'
p324
F0.999895
s(lp325
(g35
I4
tp326
atp327
a(S'die'
p328
(dp329
S'PRON'
p330
F0.000218
sS'DET'
p331
F0.999766
s(lp332
tp333
a(S'gegebenen'
p334
(dp335
S'ADJ'
p336
F1.0
s(lp337
tp338
a(S'versprechen'
p339
(dp340
S'VERB'
p341
F1.0
s(lp342
(g77
I7
tp343
atp344
a(S'taten'
p345
(dp346
S'VERB'
p347
F1.0
s(lp348
(g91
I11
tp349
atp350
a(S'folgen'
p351
(dp352
S'VERB'
p353
F1.0
s(lp354
(g174
I9
tp355
atp356
a(g115
(dp357
g115
F1.0
s(lp358
(g115
I12
tp359
atp360
asS'it'
p361
(lp362
(S'condividiamo'
p363
(dp364
S'VERB'
p365
F1.0
s(lp366
(g14
I1
tp367
atp368
a(S"l'"
p369
(dp370
S'NOUN'
p371
F0.000987
sS'VERB'
p372
F0.9830699999999999
sS'ADJ'
p373
F0.015942
s(lp374
(g21
I2
tp375
atp376
a(S'obiettivo'
p377
(dp378
S'ADJ'
p379
F0.046612
sS'VERB'
p380
F0.001358
sS'NOUN'
p381
F0.95203
s(lp382
tp383
a(S'ambizioso'
p384
(dp385
S'NOUN'
p386
F0.073137
sS'ADJ'
p387
F0.926863
s(lp388
(g28
I3
tp389
atp390
a(S'di'
p391
(dp392
S'CONJ'
p393
F7e-06
sS'ADP'
p394
F0.999993
s(lp395
(g35
I4
tp396
atp397
a(S'far'
p398
(dp399
S'VERB'
p400
F1.0
s(lp401
(g54
I5
tp402
atp403
a(S'seguire'
p404
(dp405
S'VERB'
p406
F1.0
s(lp407
(g174
I9
tp408
atp409
a(S'i'
p410
(dp411
S'DET'
p412
F1.0
s(lp413
(g91
I11
tp414
atp415
a(S'fatti'
p416
(dp417
S'VERB'
p418
F0.056643
sS'NOUN'
p419
F0.943357
s(lp420
(g91
I11
tp421
atp422
a(S'alle'
p423
(dp424
S'ADP'
p425
F1.0
s(lp426
tp427
a(S'parole'
p428
(dp429
S'NOUN'
p430
F1.0
s(lp431
(g91
I11
tp432
atp433
a(g115
(dp434
g115
F1.0
s(lp435
(g115
I12
tp436
atp437
asS'sk'
p438
(lp439
(S'podporujeme'
p440
(dp441
S'VERB'
p442
F1.0
s(lp443
(g14
I1
tp444
atp445
a(S'va\xc5\xa1u'
p446
(dp447
S'PRON'
p448
F1.0
s(lp449
(g21
I2
tp450
atp451
a(S'snahu'
p452
(dp453
S'NOUN'
p454
F1.0
s(lp455
(g28
I3
tp456
atp457
a(S'zabezpe\xc4\x8di\xc5\xa5'
p458
(dp459
S'VERB'
p460
F1.0
s(lp461
(g54
I5
tp462
atp463
a(g302
(dp464
g115
F1.0
s(lp465
tp466
a(S'aby'
p467
(dp468
S'X'
p469
F6.7e-05
sS'CONJ'
p470
F0.999933
s(lp471
(g63
I6
tp472
atp473
a(S'sa'
p474
(dp475
S'PRT'
p476
F0.999943
sS'ADP'
p477
F4.2e-05
sg469
F1.4e-05
s(lp478
(g84
I8
tp479
atp480
a(S's\xc4\xbeuby'
p481
(dp482
S'NOUN'
p483
F1.0
s(lp484
(g77
I7
tp485
atp486
a(S'premenili'
p487
(dp488
S'VERB'
p489
F1.0
s(lp490
tp491
a(S'na'
p492
(dp493
g469
F3.8e-05
sS'CONJ'
p494
F8e-06
sS'ADP'
p495
F0.999952
sS'PRT'
p496
F2e-06
s(lp497
(g47
I10
tp498
atp499
a(S'\xc4\x8diny'
p500
(dp501
S'NOUN'
p502
F1.0
s(lp503
(g91
I11
tp504
atp505
a(g115
(dp506
g115
F1.0
s(lp507
(g115
I12
tp508
atp509
asS'pl'
p510
(lp511
(S'podzielamy'
p512
(dp513
S'ADV'
p514
F0.0011
sS'NOUN'
p515
F0.040554
sS'VERB'
p516
F0.8359489999999999
sS'ADJ'
p517
F0.122398
s(lp518
(g14
I1
tp519
atp520
a(S'pani'
p521
(dp522
S'NOUN'
p523
F1.0000000000000002
s(lp524
(g21
I2
tp525
atp526
a(S'ambicj\xc4\x99'
p527
(dp528
S'NOUN'
p529
F1.0
s(lp530
(g28
I3
tp531
atp532
a(S'zapewnienia'
p533
(dp534
S'VERB'
p535
F0.963575
sS'NOUN'
p536
F0.036425000000000006
s(lp537
(g54
I5
tp538
atp539
a(g302
(dp540
g469
F1e-06
sg115
F0.999999
s(lp541
tp542
a(S'by'
p543
(dp544
S'NOUN'
p545
F0.000155
sS'ADP'
p546
F1e-06
sS'PRT'
p547
F0.331037
sS'VERB'
p548
F6e-06
sg469
F1e-05
sS'CONJ'
p549
F0.668791
s(lp550
(g63
I6
tp551
atp552
a(S'za'
p553
(dp554
S'PRT'
p555
F0.019507
sS'VERB'
p556
F7.000000000000001e-05
sS'NOUN'
p557
F1.1e-05
sS'ADP'
p558
F0.980412
sg469
F1e-06
s(lp559
tp560
a(S'obietnicami'
p561
(dp562
S'ADV'
p563
F0.000206
sS'ADJ'
p564
F0.00028700000000000004
sS'VERB'
p565
F0.00011100000000000001
sS'NOUN'
p566
F0.999397
s(lp567
(g77
I7
tp568
atp569
a(S'sz\xc5\x82y'
p570
(dp571
S'VERB'
p572
F1.000001
s(lp573
(g174
I9
tp574
atp575
a(S'konkretne'
p576
(dp577
S'ADJ'
p578
F1.000001
s(lp579
tp580
a(S'dzia\xc5\x82ania'
p581
(dp582
S'VERB'
p583
F0.000351
sS'NOUN'
p584
F0.999648
s(lp585
(g91
I11
tp586
atp587
a(g115
(dp588
g115
F1.0
s(lp589
(g115
I12
tp590
atp591
asS'sl'
p592
(lp593
(S'strinjamo'
p594
(dp595
S'VERB'
p596
F1.0
s(lp597
(g14
I1
tp598
atp599
a(S'se'
p600
(dp601
S'PRON'
p602
F0.999969
sg469
F3.1e-05
s(lp603
tp604
a(S'z'
p605
(dp606
S'ADP'
p607
F1.0
s(lp608
(g14
I1
tp609
atp610
a(S'va\xc5\xa1im'
p611
(dp612
S'PRON'
p613
F1.0
s(lp614
(g21
I2
tp615
atp616
a(S'prizadevanjem'
p617
(dp618
S'NOUN'
p619
F1.0
s(lp620
(g28
I3
tp621
atp622
a(g302
(dp623
g115
F1.0
s(lp624
tp625
a(S'da'
p626
(dp627
S'PRT'
p628
F5e-06
sS'CONJ'
p629
F0.99997
sS'VERB'
p630
F2.4e-05
sg469
F0.0
s(lp631
tp632
a(S'se'
p633
(dp634
S'PRON'
p635
F1.0
sg469
F0.0
s(lp636
(g35
I4
tp637
atp638
a(S'zagotovi'
p639
(dp640
S'VERB'
p641
F1.0
s(lp642
(g54
I5
tp643
atp644
a(g302
(dp645
g115
F1.0
s(lp646
tp647
a(S'da'
p648
(dp649
S'PRT'
p650
F4.6e-05
sS'CONJ'
p651
F0.999486
sS'VERB'
p652
F0.000468
sg469
F1e-06
s(lp653
(g63
I6
tp654
atp655
a(S'obljubam'
p656
(dp657
S'NOUN'
p658
F1.0
s(lp659
(g77
I7
tp660
atp661
a(S'sledijo'
p662
(dp663
S'VERB'
p664
F1.0
s(lp665
(g174
I9
tp666
atp667
a(S'dejanja'
p668
(dp669
S'NOUN'
p670
F1.0
s(lp671
(g91
I11
tp672
atp673
a(g115
(dp674
g115
F1.0
s(lp675
(g115
I12
tp676
atp677
asS'es'
p678
(lp679
(S'todos'
p680
(dp681
S'ADJ'
p682
F1.0
s(lp683
(g7
I0
tp684
atp685
a(S'compartimos'
p686
(dp687
S'VERB'
p688
F1.0
s(lp689
(g14
I1
tp690
atp691
a(S'la'
p692
(dp693
g469
F0.0
sS'PRON'
p694
F0.0
sS'DET'
p695
F1.0
sS'NOUN'
p696
F0.0
s(lp697
(g21
I2
tp698
atp699
a(S'ambici\xc3\xb3n'
p700
(dp701
S'NOUN'
p702
F1.0
s(lp703
(g28
I3
tp704
atp705
a(S'de'
p706
(dp707
g469
F0.0
sS'CONJ'
p708
F0.00561
sS'ADP'
p709
F0.99439
s(lp710
(g35
I4
tp711
atp712
a(S'que'
p713
(dp714
g469
F0.0
sS'CONJ'
p715
F1.0
s(lp716
(g63
I6
tp717
atp718
a(S'las'
p719
(dp720
S'PRON'
p721
F0.000108
sS'DET'
p722
F0.999892
s(lp723
tp724
a(S'promesas'
p725
(dp726
S'NOUN'
p727
F1.0
s(lp728
(g77
I7
tp729
atp730
a(S'vayan'
p731
(dp732
S'VERB'
p733
F1.0
s(lp734
(g84
I8
tp735
atp736
a(S'seguidas'
p737
(dp738
S'VERB'
p739
F1.0
s(lp740
(g174
I9
tp741
atp742
a(S'de'
p743
(dp744
g469
F0.0
sS'CONJ'
p745
F0.000753
sS'ADP'
p746
F0.999247
s(lp747
(g47
I10
tp748
atp749
a(S'hechos'
p750
(dp751
S'VERB'
p752
F0.014284
sS'NOUN'
p753
F0.985716
s(lp754
(g91
I11
tp755
atp756
a(g115
(dp757
g115
F1.0
s(lp758
(g115
I12
tp759
atp760
as.