(dp0
S'fr'
p1
(lp2
(S"l'"
p3
(dp4
S'ADJ'
p5
F0.079749
sS'VERB'
p6
F0.5393100000000001
sS'NOUN'
p7
F0.380941
s(lp8
tp9
a(S'innovation'
p10
(dp11
S'NOUN'
p12
F1.0
s(lp13
(S'innovation'
p14
I0
tp15
atp16
a(S','
p17
(dp18
S'.'
p19
F1.0
s(lp20
(g17
I1
tp21
atp22
a(S'nous'
p23
(dp24
S'PRON'
p25
F1.0
s(lp26
(S'we'
p27
I3
tp28
atp29
a(S'le'
p30
(dp31
S'PRON'
p32
F0.549361
sS'DET'
p33
F0.450639
s(lp34
tp35
a(S'savons'
p36
(dp37
S'VERB'
p38
F0.541876
sS'NOUN'
p39
F0.458124
s(lp40
(S'know'
p41
I4
tp42
atp43
a(g17
(dp44
g19
F1.0
s(lp45
(g17
I5
tp46
atp47
a(S'doit'
p48
(dp49
S'VERB'
p50
F0.996309
sS'NOUN'
p51
F0.003691
s(lp52
(S'must'
p53
I6
tp54
atp55
a(S'se'
p56
(dp57
S'PRON'
p58
F1.0
s(lp59
tp60
a(S'montrer'
p61
(dp62
S'VERB'
p63
F1.0
s(lp64
(S'be'
p65
I7
tp66
atp67
a(S'nettement'
p68
(dp69
S'ADV'
p70
F1.0
s(lp71
(S'far'
p72
I8
tp73
atp74
a(S'plus'
p75
(dp76
S'ADV'
p77
F0.99992
sS'VERB'
p78
F7.999999999999999e-05
s(lp79
(S'more'
p80
I9
tp81
atp82
a(S'efficace'
p83
(dp84
S'NOUN'
p85
F0.009738
sS'ADJ'
p86
F0.990262
s(lp87
(S'effective'
p88
I10
tp89
atp90
a(S'pour'
p91
(dp92
S'CONJ'
p93
F0.208367
sS'ADP'
p94
F0.791633
s(lp95
(S'in'
p96
I11
tp97
atp98
a(S'transformer'
p99
(dp100
S'VERB'
p101
F1.0
s(lp102
(S'turning'
p103
I12
tp104
atp105
a(S'les'
p106
(dp107
S'PRON'
p108
F3.1e-05
sS'DET'
p109
F0.999948
sS'ADP'
p110
F2.1e-05
s(lp111
tp112
a(S'connaissances'
p113
(dp114
S'NOUN'
p115
F1.0
s(lp116
(S'knowledge'
p117
I13
tp118
atp119
a(S'en'
p120
(dp121
S'PRON'
p122
F0.000406
sS'ADP'
p123
F0.999594
s(lp124
(S'into'
p125
I14
tp126
atp127
a(S'richesses'
p128
(dp129
S'NOUN'
p130
F1.0
s(lp131
(S'wealth'
p132
I15
tp133
atp134
a(g19
(dp135
g19
F1.0
s(lp136
(g19
I16
tp137
atp138
asS'en'
p139
(lp140
(g14
(dp141
S'NOUN'
p142
F1.0
s(lp143
(g14
I0
tp144
atp145
a(g17
(dp146
g19
F1.0
s(lp147
(g17
I1
tp148
atp149
a(S'as'
p150
(dp151
S'ADV'
p152
F0.222032
sS'ADP'
p153
F0.777968
s(lp154
(g150
I2
tp155
atp156
a(g27
(dp157
S'PRON'
p158
F1.0
s(lp159
(g27
I3
tp160
atp161
a(g41
(dp162
S'VERB'
p163
F1.0
s(lp164
(g41
I4
tp165
atp166
a(g17
(dp167
g19
F1.0
s(lp168
(g17
I5
tp169
atp170
a(g53
(dp171
S'VERB'
p172
F1.0
sS'NOUN'
p173
F0.0
s(lp174
(g53
I6
tp175
atp176
a(g65
(dp177
S'VERB'
p178
F1.0
s(lp179
(g65
I7
tp180
atp181
a(g72
(dp182
S'ADV'
p183
F0.9968
sS'ADJ'
p184
F0.0032
s(lp185
(g72
I8
tp186
atp187
a(g80
(dp188
S'ADV'
p189
F0.432947
sS'ADJ'
p190
F0.567053
s(lp191
(g80
I9
tp192
atp193
a(g88
(dp194
S'NOUN'
p195
F0.151047
sS'ADJ'
p196
F0.848953
s(lp197
(g88
I10
tp198
atp199
a(g96
(dp200
S'ADV'
p201
F0.00051
sS'PRT'
p202
F0.000153
sS'ADP'
p203
F0.999336
s(lp204
(g96
I11
tp205
atp206
a(g103
(dp207
S'VERB'
p208
F0.974238
sS'NOUN'
p209
F0.025762
s(lp210
(g103
I12
tp211
atp212
a(g117
(dp213
S'NOUN'
p214
F1.0
s(lp215
(g117
I13
tp216
atp217
a(g125
(dp218
S'ADP'
p219
F1.0
s(lp220
(g125
I14
tp221
atp222
a(g132
(dp223
S'NOUN'
p224
F1.0
s(lp225
(g132
I15
tp226
atp227
a(g19
(dp228
g19
F1.0
s(lp229
(g19
I16
tp230
atp231
asS'nl'
p232
(lp233
(S'zoals'
p234
(dp235
S'CONJ'
p236
F1.0
s(lp237
(g150
I2
tp238
atp239
a(S'we'
p240
(dp241
S'PRON'
p242
F1.0
s(lp243
(g27
I3
tp244
atp245
a(S'weten'
p246
(dp247
S'VERB'
p248
F0.714758
sS'NOUN'
p249
F0.285242
s(lp250
(g41
I4
tp251
atp252
a(g17
(dp253
g19
F1.0
s(lp254
(g17
I5
tp255
atp256
a(S'moet'
p257
(dp258
S'VERB'
p259
F1.0
s(lp260
(g53
I6
tp261
atp262
a(S'innovatie'
p263
(dp264
S'NOUN'
p265
F1.0
s(lp266
(g14
I0
tp267
atp268
a(S'veel'
p269
(dp270
S'ADV'
p271
F0.769722
sS'NUM'
p272
F0.226393
sS'VERB'
p273
F0.003885
s(lp274
(g72
I8
tp275
atp276
a(S'effectiever'
p277
(dp278
S'ADJ'
p279
F1.0
s(lp280
(g88
I10
tp281
atp282
a(S'zijn'
p283
(dp284
S'PRON'
p285
F1.7e-05
sS'VERB'
p286
F0.996013
sS'NOUN'
p287
F0.00397
s(lp288
(g65
I7
tp289
atp290
a(S'om'
p291
(dp292
S'ADV'
p293
F0.003418
sS'CONJ'
p294
F0.622793
sS'ADP'
p295
F0.373788
s(lp296
(g103
I12
tp297
atp298
a(S'kennis'
p299
(dp300
S'NOUN'
p301
F1.0
s(lp302
(g117
I13
tp303
atp304
a(S'om'
p305
(dp306
S'ADV'
p307
F0.127423
sS'CONJ'
p308
F0.871996
sS'ADP'
p309
F0.000581
s(lp310
tp311
a(S'te'
p312
(dp313
S'PRT'
p314
F1.0
s(lp315
tp316
a(S'zetten'
p317
(dp318
S'VERB'
p319
F0.999954
sS'NOUN'
p320
F4.6e-05
s(lp321
(g103
I12
tp322
atp323
a(S'in'
p324
(dp325
S'ADV'
p326
F0.000303
sS'VERB'
p327
F0.0
sS'ADP'
p328
F0.999697
s(lp329
(g125
I14
tp330
atp331
a(S'welvaart'
p332
(dp333
S'VERB'
p334
F5.3e-05
sS'NOUN'
p335
F0.999947
s(lp336
(g132
I15
tp337
atp338
a(g19
(dp339
g19
F1.0
s(lp340
(g19
I16
tp341
atp342
asS'de'
p343
(lp344
(S'innovation'
p345
(dp346
S'NOUN'
p347
F0.370142
sS'ADJ'
p348
F0.564748
s(lp349
(g14
I0
tp350
atp351
a(g17
(dp352
g19
F1.0
s(lp353
(g17
I1
tp354
atp355
a(S'das'
p356
(dp357
S'PRON'
p358
F0.998826
s(lp359
(g150
I2
tp360
atp361
a(S'wissen'
p362
(dp363
S'VERB'
p364
F1.0
s(lp365
(g41
I4
tp366
atp367
a(S'wir'
p368
(dp369
S'PRON'
p370
F1.0
s(lp371
(g27
I3
tp372
atp373
a(g17
(dp374
g19
F1.0
s(lp375
(g17
I5
tp376
atp377
a(S'muss'
p378
(dp379
S'VERB'
p380
F1.0
s(lp381
(g53
I6
tp382
atp383
a(S'viel'
p384
(dp385
S'ADV'
p386
F0.6666
sS'PRON'
p387
F0.29918
s(lp388
(g72
I8
tp389
atp390
a(S'st\xc3\xa4rker'
p391
(dp392
S'ADJ'
p393
F1.0
s(lp394
tp395
a(S'dazu'
p396
(dp397
S'ADV'
p398
F0.999947
sS'PRT'
p399
F5.3e-05
s(lp400
(g80
I9
tp401
atp402
a(S'f\xc3\xbchren'
p403
(dp404
S'VERB'
p405
F1.0
s(lp406
(g88
I10
tp407
atp408
a(g17
(dp409
g19
F1.0
s(lp410
tp411
a(S'dass'
p412
(dp413
S'CONJ'
p414
F1.0
s(lp415
(g103
I12
tp416
atp417
a(S'wir'
p418
(dp419
S'PRON'
p420
F1.0
s(lp421
(g103
I12
tp422
atp423
a(S'aus'
p424
(dp425
S'PRT'
p426
F0.292081
sS'ADP'
p427
F0.706502
s(lp428
tp429
a(S'wissen'
p430
(dp431
S'VERB'
p432
F1.0
s(lp433
(g117
I13
tp434
atp435
a(S'geld'
p436
(dp437
S'ADJ'
p438
F0.016722
sS'NOUN'
p439
F0.983158
s(lp440
(g132
I15
tp441
atp442
a(S'machen'
p443
(dp444
S'VERB'
p445
F1.0
s(lp446
(g103
I12
tp447
atp448
a(g19
(dp449
g19
F1.0
s(lp450
(g19
I16
tp451
atp452
asS'it'
p453
(lp454
(S"l'"
p455
(dp456
S'NOUN'
p457
F0.00259
sS'VERB'
p458
F0.9925710000000001
sS'ADJ'
p459
F0.00484
s(lp460
tp461
a(S'innovazione'
p462
(dp463
S'NOUN'
p464
F1.0
s(lp465
(g14
I0
tp466
atp467
a(g17
(dp468
g19
F1.0
s(lp469
(g17
I1
tp470
atp471
a(S'come'
p472
(dp473
S'PRON'
p474
F0.030044
sS'CONJ'
p475
F0.950587
sS'NOUN'
p476
F0.000202
sS'ADP'
p477
F0.019168
s(lp478
(g150
I2
tp479
atp480
a(S'sappiamo'
p481
(dp482
S'VERB'
p483
F1.0
s(lp484
(g41
I4
tp485
atp486
a(g17
(dp487
g19
F1.0
s(lp488
(g17
I5
tp489
atp490
a(S'deve'
p491
(dp492
S'VERB'
p493
F1.0
s(lp494
(g53
I6
tp495
atp496
a(S'essere'
p497
(dp498
S'VERB'
p499
F0.999947
sS'NOUN'
p500
F5.3e-05
s(lp501
(g65
I7
tp502
atp503
a(S'molto'
p504
(dp505
S'ADV'
p506
F0.973044
sS'PRON'
p507
F0.002433
sS'VERB'
p508
F0.016409
sS'ADJ'
p509
F0.008115
s(lp510
(g72
I8
tp511
atp512
a(S'pi\xc3\xb9'
p513
(dp514
S'ADV'
p515
F0.996535
sS'NOUN'
p516
F2.2e-05
sS'ADJ'
p517
F0.003183
sS'ADP'
p518
F0.00026
s(lp519
(g80
I9
tp520
atp521
a(S'efficace'
p522
(dp523
S'ADJ'
p524
F1.0
s(lp525
(g88
I10
tp526
atp527
a(S'nel'
p528
(dp529
S'ADP'
p530
F1.0
s(lp531
(g96
I11
tp532
atp533
a(S'trasformare'
p534
(dp535
S'VERB'
p536
F1.0
s(lp537
(g103
I12
tp538
atp539
a(S'la'
p540
(dp541
S'PRON'
p542
F0.0
sS'DET'
p543
F1.0
s(lp544
tp545
a(S'conoscenza'
p546
(dp547
S'NOUN'
p548
F1.0
s(lp549
(g117
I13
tp550
atp551
a(S'in'
p552
(dp553
S'ADP'
p554
F1.0
s(lp555
(g125
I14
tp556
atp557
a(S'benessere'
p558
(dp559
S'NOUN'
p560
F1.0
s(lp561
(g132
I15
tp562
atp563
a(g19
(dp564
g19
F1.0
s(lp565
(g19
I16
tp566
atp567
asS'sk'
p568
(lp569
(S'inov\xc3\xa1cia'
p570
(dp571
S'NOUN'
p572
F1.0
s(lp573
(g14
I0
tp574
atp575
a(g17
(dp576
g19
F1.0
s(lp577
(g17
I1
tp578
atp579
a(S'ako'
p580
(dp581
S'PRON'
p582
F0.04867
sS'CONJ'
p583
F0.951175
sS'X'
p584
F0.000155
s(lp585
(g150
I2
tp586
atp587
a(S've\xc4\xbemi'
p588
(dp589
S'ADV'
p590
F1.0
s(lp591
(g27
I3
tp592
atp593
a(S'dobre'
p594
(dp595
S'ADV'
p596
F0.983685
sg584
F0.016307
sS'NOUN'
p597
F8e-06
s(lp598
tp599
a(S'vieme'
p600
(dp601
S'VERB'
p602
F1.0
s(lp603
(g41
I4
tp604
atp605
a(g17
(dp606
g19
F1.0
s(lp607
(g17
I5
tp608
atp609
a(S'mus\xc3\xad'
p610
(dp611
S'VERB'
p612
F1.0
s(lp613
(g53
I6
tp614
atp615
a(S'by\xc5\xa5'
p616
(dp617
S'VERB'
p618
F1.0
s(lp619
(g65
I7
tp620
atp621
a(S'ove\xc4\xbea'
p622
(dp623
S'ADV'
p624
F1.0
s(lp625
(g72
I8
tp626
atp627
a(S'efekt\xc3\xadvnej\xc5\xa1ia'
p628
(dp629
S'ADJ'
p630
F1.0
s(lp631
(g88
I10
tp632
atp633
a(g17
(dp634
g19
F1.0
s(lp635
tp636
a(S'aby'
p637
(dp638
g584
F5.9999999999999995e-05
sS'CONJ'
p639
F0.99994
s(lp640
(g103
I12
tp641
atp642
a(S'dok\xc3\xa1zala'
p643
(dp644
S'VERB'
p645
F1.0
s(lp646
tp647
a(S'pretransformova\xc5\xa5'
p648
(dp649
S'VERB'
p650
F1.0
s(lp651
(g103
I12
tp652
atp653
a(S'vedomosti'
p654
(dp655
g584
F0.001193
sS'NOUN'
p656
F0.998808
s(lp657
(g117
I13
tp658
atp659
a(S'na'
p660
(dp661
g584
F7e-05
sS'CONJ'
p662
F1.8e-05
sS'ADP'
p663
F0.999908
sS'PRT'
p664
F4e-06
s(lp665
(g125
I14
tp666
atp667
a(S'bohatstvo'
p668
(dp669
S'NOUN'
p670
F1.0
s(lp671
(g132
I15
tp672
atp673
a(g19
(dp674
g19
F1.0
s(lp675
(g19
I16
tp676
atp677
asS'pl'
p678
(lp679
(S'jak'
p680
(dp681
S'ADV'
p682
F0.946523
sS'PRT'
p683
F0.005607
sS'CONJ'
p684
F0.045964000000000005
sS'ADP'
p685
F0.001887
sS'PRON'
p686
F1.9e-05
s(lp687
(g150
I2
tp688
atp689
a(S'wiemy'
p690
(dp691
S'VERB'
p692
F1.0
s(lp693
(g41
I4
tp694
atp695
a(S'innowacja'
p696
(dp697
S'ADV'
p698
F0.010237
sS'ADJ'
p699
F0.000558
sS'NOUN'
p700
F0.989205
s(lp701
(g14
I0
tp702
atp703
a(S'musi'
p704
(dp705
S'VERB'
p706
F1.0
s(lp707
(g53
I6
tp708
atp709
a(S'mie\xc4\x87'
p710
(dp711
S'VERB'
p712
F1.0
s(lp713
(g65
I7
tp714
atp715
a(S'znacznie'
p716
(dp717
S'ADV'
p718
F1.0
s(lp719
(g72
I8
tp720
atp721
a(S'bardziej'
p722
(dp723
S'ADV'
p724
F1.0
s(lp725
(g80
I9
tp726
atp727
a(S'skuteczny'
p728
(dp729
S'ADJ'
p730
F0.9999999999999999
s(lp731
(g88
I10
tp732
atp733
a(S'wp\xc5\x82yw'
p734
(dp735
S'NOUN'
p736
F1.0
s(lp737
tp738
a(S'na'
p739
(dp740
S'PRT'
p741
F0.0
sS'VERB'
p742
F3e-06
sS'NOUN'
p743
F0.0
sS'ADP'
p744
F0.999996
sg584
F0.0
s(lp745
(g96
I11
tp746
atp747
a(S'przekszta\xc5\x82canie'
p748
(dp749
S'VERB'
p750
F1.0
s(lp751
(g103
I12
tp752
atp753
a(S'wiedzy'
p754
(dp755
S'NOUN'
p756
F1.0
s(lp757
(g117
I13
tp758
atp759
a(S'w'
p760
(dp761
S'ADJ'
p762
F1.5e-05
sS'NOUN'
p763
F7.3e-05
sS'ADP'
p764
F0.9998980000000001
sg584
F1.2e-05
s(lp765
(g125
I14
tp766
atp767
a(S'dobrobyt'
p768
(dp769
S'NOUN'
p770
F1.0
s(lp771
(g132
I15
tp772
atp773
a(g19
(dp774
g19
F1.0
s(lp775
(g19
I16
tp776
atp777
asS'sl'
p778
(lp779
(S'inovativnost'
p780
(dp781
S'NOUN'
p782
F1.0
s(lp783
(g14
I0
tp784
atp785
a(g17
(dp786
g19
F1.0
s(lp787
(g17
I1
tp788
atp789
a(S'kot'
p790
(dp791
S'CONJ'
p792
F0.999939
sS'NOUN'
p793
F6.1e-05
s(lp794
(g150
I2
tp795
atp796
a(S'vemo'
p797
(dp798
S'VERB'
p799
F1.0
s(lp800
(g41
I4
tp801
atp802
a(g17
(dp803
g19
F1.0
s(lp804
(g17
I5
tp805
atp806
a(S'mora'
p807
(dp808
S'VERB'
p809
F0.999169
sS'NOUN'
p810
F0.000831
s(lp811
(g53
I6
tp812
atp813
a(S'biti'
p814
(dp815
S'VERB'
p816
F0.999952
sS'NOUN'
p817
F4.9000000000000005e-05
s(lp818
(g65
I7
tp819
atp820
a(S'veliko'
p821
(dp822
S'ADV'
p823
F0.999513
sS'ADJ'
p824
F0.00048800000000000004
s(lp825
(g72
I8
tp826
atp827
a(S'bolj'
p828
(dp829
S'ADV'
p830
F1.0
s(lp831
(g80
I9
tp832
atp833
a(S'u\xc4\x8dinkovita'
p834
(dp835
S'ADJ'
p836
F1.0
s(lp837
(g88
I10
tp838
atp839
a(S'pri'
p840
(dp841
S'ADP'
p842
F1.0
s(lp843
(g96
I11
tp844
atp845
a(S'spreminjanju'
p846
(dp847
S'NOUN'
p848
F1.0
s(lp849
(g103
I12
tp850
atp851
a(S'znanja'
p852
(dp853
S'NOUN'
p854
F1.000001
s(lp855
(g117
I13
tp856
atp857
a(S'v'
p858
(dp859
S'ADP'
p860
F1.0
s(lp861
(g125
I14
tp862
atp863
a(S'bogastvo'
p864
(dp865
S'NOUN'
p866
F1.0
s(lp867
(g132
I15
tp868
atp869
a(g19
(dp870
g19
F1.0
s(lp871
(g19
I16
tp872
atp873
asS'es'
p874
(lp875
(S'la'
p876
(dp877
g584
F4.5e-05
sS'DET'
p878
F0.999917
sS'NOUN'
p879
F0.0
sS'PRON'
p880
F3.8e-05
s(lp881
tp882
a(S'innovaci\xc3\xb3n'
p883
(dp884
S'NOUN'
p885
F1.0
s(lp886
(g14
I0
tp887
atp888
a(g17
(dp889
g19
F1.0
s(lp890
(g17
I1
tp891
atp892
a(S'como'
p893
(dp894
S'ADV'
p895
F0.196767
sS'CONJ'
p896
F0.803233
s(lp897
(g150
I2
tp898
atp899
a(S'sabemos'
p900
(dp901
S'VERB'
p902
F1.0
s(lp903
(g41
I4
tp904
atp905
a(g17
(dp906
g19
F1.0
s(lp907
(g17
I5
tp908
atp909
a(S'debe'
p910
(dp911
S'VERB'
p912
F1.0
s(lp913
(g53
I6
tp914
atp915
a(S'ser'
p916
(dp917
S'VERB'
p918
F1.0
sS'NOUN'
p919
F0.0
s(lp920
(g65
I7
tp921
atp922
a(S'mucho'
p923
(dp924
S'ADV'
p925
F0.999476
sS'ADJ'
p926
F0.000524
s(lp927
(g72
I8
tp928
atp929
a(S'm\xc3\xa1s'
p930
(dp931
S'ADV'
p932
F0.999999
sS'CONJ'
p933
F1e-06
s(lp934
(g80
I9
tp935
atp936
a(S'efectiva'
p937
(dp938
S'ADJ'
p939
F1.0
s(lp940
(g88
I10
tp941
atp942
a(S'para'
p943
(dp944
S'CONJ'
p945
F0.985245
sS'ADP'
p946
F0.014755
s(lp947
(g96
I11
tp948
atp949
a(S'transformar'
p950
(dp951
S'VERB'
p952
F1.0
s(lp953
(g103
I12
tp954
atp955
a(S'el'
p956
(dp957
S'PRON'
p958
F0.0
sS'DET'
p959
F1.0
s(lp960
tp961
a(S'conocimiento'
p962
(dp963
S'NOUN'
p964
F1.0
s(lp965
(g117
I13
tp966
atp967
a(S'en'
p968
(dp969
g584
F1.8e-05
sS'CONJ'
p970
F1e-05
sS'ADP'
p971
F0.999972
s(lp972
(g125
I14
tp973
atp974
a(S'riqueza'
p975
(dp976
S'NOUN'
p977
F1.0
s(lp978
(g132
I15
tp979
atp980
a(g19
(dp981
g19
F1.0
s(lp982
(g19
I16
tp983
atp984
as.