(dp0
S'fr'
p1
(lp2
(S'je'
p3
(dp4
S'PRON'
p5
F1.0
s(lp6
(S'i'
p7
I0
tp8
atp9
a(S'crois'
p10
(dp11
S'VERB'
p12
F1.0
s(lp13
tp14
a(S'sinc\xc3\xa8rement'
p15
(dp16
S'ADV'
p17
F1.0
s(lp18
(S'trust'
p19
I1
tp20
atp21
a(S'que'
p22
(dp23
S'ADV'
p24
F0.045971
sS'PRON'
p25
F0.030693
sS'CONJ'
p26
F0.923336
s(lp27
(S'that'
p28
I2
tp29
atp30
a(S'le'
p31
(dp32
S'PRON'
p33
F0.000568
sS'DET'
p34
F0.999432
s(lp35
(S'the'
p36
I3
tp37
atp38
a(S'gouvernement'
p39
(dp40
S'NOUN'
p41
F1.0
s(lp42
(S'government'
p43
I5
tp44
atp45
a(S'actuel'
p46
(dp47
S'ADJ'
p48
F1.0
s(lp49
(S'current'
p50
I4
tp51
atp52
a(S'prendra'
p53
(dp54
S'VERB'
p55
F1.0
s(lp56
(S'will'
p57
I6
tp58
atp59
a(S'\xc3\xa9galement'
p60
(dp61
S'ADV'
p62
F1.0
s(lp63
(S'also'
p64
I7
tp65
atp66
a(S'au'
p67
(dp68
S'ADP'
p69
F1.0
s(lp70
tp71
a(S's\xc3\xa9rieux'
p72
(dp73
S'ADJ'
p74
F0.313232
sS'NOUN'
p75
F0.686768
s(lp76
(S'seriously'
p77
I9
tp78
atp79
a(S'les'
p80
(dp81
S'PRON'
p82
F0.000227
sS'DET'
p83
F0.999529
sS'ADP'
p84
F0.000245
s(lp85
(S'the'
p86
I10
tp87
atp88
a(S'recommandations'
p89
(dp90
S'NOUN'
p91
F1.0
s(lp92
(S'recommendations'
p93
I11
tp94
atp95
a(S'de'
p96
(dp97
S'ADP'
p98
F1.0
s(lp99
(S'by'
p100
I13
tp101
atp102
a(S'la'
p103
(dp104
S'PRON'
p105
F1.2e-05
sS'DET'
p106
F0.999988
sS'NOUN'
p107
F0.0
s(lp108
(S'the'
p109
I14
tp110
atp111
a(S'commission'
p112
(dp113
S'NOUN'
p114
F1.0
s(lp115
(S'commission'
p116
I15
tp117
atp118
a(S'et'
p119
(dp120
S'CONJ'
p121
F1.0
s(lp122
(S'and'
p123
I16
tp124
atp125
a(S"qu'"
p126
(dp127
S'NOUN'
p128
F0.109289
sS'VERB'
p129
F0.472141
sS'ADJ'
p130
F0.418571
s(lp131
tp132
a(S'il'
p133
(dp134
S'PRON'
p135
F1.0
s(lp136
(S'will'
p137
I17
tp138
atp139
a(S'tirera'
p140
(dp141
S'VERB'
p142
F1.0
s(lp143
tp144
a(S'des'
p145
(dp146
S'DET'
p147
F0.000244
sS'ADP'
p148
F0.999756
s(lp149
(S'from'
p150
I19
tp151
atp152
a(S'le\xc3\xa7ons'
p153
(dp154
S'NOUN'
p155
F1.0
s(lp156
(S'learn'
p157
I18
tp158
atp159
a(S'de'
p160
(dp161
S'ADP'
p162
F1.0
s(lp163
tp164
a(S"l'"
p165
(dp166
S'ADJ'
p167
F0.160704
sS'VERB'
p168
F0.06480800000000002
sS'NOUN'
p169
F0.774488
s(lp170
tp171
a(S'exp\xc3\xa9rience'
p172
(dp173
S'NOUN'
p174
F1.0
s(lp175
(S'experience'
p176
I22
tp177
atp178
a(S'de'
p179
(dp180
S'ADP'
p181
F1.0
s(lp182
(g150
I19
tp183
atp184
a(S'la'
p185
(dp186
S'PRON'
p187
F1.2e-05
sS'DET'
p188
F0.999988
sS'NOUN'
p189
F0.0
s(lp190
(S'the'
p191
I20
tp192
atp193
a(S'slov\xc3\xa9nie'
p194
(dp195
S'NOUN'
p196
F1.0
s(lp197
(S'slovenian'
p198
I21
tp199
atp200
a(S'.'
p201
(dp202
g201
F1.0
s(lp203
(g201
I23
tp204
atp205
asS'en'
p206
(lp207
(g7
(dp208
S'X'
p209
F0.002484
sS'NOUN'
p210
F0.997516
s(lp211
(g7
I0
tp212
atp213
a(g19
(dp214
S'VERB'
p215
F0.144226
sS'NOUN'
p216
F0.855774
s(lp217
(g19
I1
tp218
atp219
a(g28
(dp220
S'ADV'
p221
F0.000554
sS'DET'
p222
F0.098994
sS'ADP'
p223
F0.900452
s(lp224
(g28
I2
tp225
atp226
a(g36
(dp227
S'NOUN'
p228
F1e-06
sS'DET'
p229
F0.999999
s(lp230
(g36
I3
tp231
atp232
a(g50
(dp233
S'NOUN'
p234
F0.007799
sS'ADJ'
p235
F0.992201
s(lp236
(g50
I4
tp237
atp238
a(g43
(dp239
S'NOUN'
p240
F1.0
s(lp241
(g43
I5
tp242
atp243
a(g57
(dp244
S'VERB'
p245
F0.999385
sS'NOUN'
p246
F0.000615
s(lp247
(g57
I6
tp248
atp249
a(g64
(dp250
S'ADV'
p251
F1.0
s(lp252
(g64
I7
tp253
atp254
a(S'take'
p255
(dp256
S'VERB'
p257
F0.999663
sS'NOUN'
p258
F0.000337
s(lp259
(g255
I8
tp260
atp261
a(g77
(dp262
S'ADV'
p263
F1.0
s(lp264
(g77
I9
tp265
atp266
a(g86
(dp267
S'NOUN'
p268
F9e-06
sS'DET'
p269
F0.999991
s(lp270
(g86
I10
tp271
atp272
a(g93
(dp273
S'NOUN'
p274
F1.0
s(lp275
(g93
I11
tp276
atp277
a(S'made'
p278
(dp279
S'VERB'
p280
F0.9999359999999999
sS'ADJ'
p281
F6.4e-05
s(lp282
(g278
I12
tp283
atp284
a(g100
(dp285
S'ADV'
p286
F0.000269
sS'NOUN'
p287
F0.0
sS'ADP'
p288
F0.999731
s(lp289
(g100
I13
tp290
atp291
a(g109
(dp292
S'NOUN'
p293
F1e-06
sS'DET'
p294
F0.999999
s(lp295
(g109
I14
tp296
atp297
a(g116
(dp298
S'VERB'
p299
F4.9999999999999996e-06
sS'NOUN'
p300
F0.999995
s(lp301
(g116
I15
tp302
atp303
a(g123
(dp304
S'CONJ'
p305
F1.0
sS'NOUN'
p306
F0.0
s(lp307
(g123
I16
tp308
atp309
a(g137
(dp310
S'VERB'
p311
F0.999994
sS'NOUN'
p312
F6e-06
s(lp313
(g137
I17
tp314
atp315
a(g157
(dp316
S'VERB'
p317
F1.0
s(lp318
(g157
I18
tp319
atp320
a(g150
(dp321
S'ADP'
p322
F1.0
s(lp323
(g150
I19
tp324
atp325
a(g191
(dp326
S'NOUN'
p327
F1e-06
sS'DET'
p328
F0.999999
s(lp329
(g191
I20
tp330
atp331
a(g198
(dp332
S'NOUN'
p333
F0.158505
sS'ADJ'
p334
F0.841495
s(lp335
(g198
I21
tp336
atp337
a(g176
(dp338
S'VERB'
p339
F0.000911
sS'NOUN'
p340
F0.999089
s(lp341
(g176
I22
tp342
atp343
a(g201
(dp344
g201
F1.0
s(lp345
(g201
I23
tp346
atp347
asS'nl'
p348
(lp349
(S'ik'
p350
(dp351
S'PRON'
p352
F0.999981
sS'NOUN'
p353
F1.9e-05
s(lp354
(g7
I0
tp355
atp356
a(S'vertrouw'
p357
(dp358
S'VERB'
p359
F1.0
s(lp360
tp361
a(S'erop'
p362
(dp363
S'ADV'
p364
F1.0
s(lp365
(g19
I1
tp366
atp367
a(S'dat'
p368
(dp369
S'PRON'
p370
F0.9276589999999999
sS'CONJ'
p371
F0.072341
s(lp372
(g28
I2
tp373
atp374
a(S'ook'
p375
(dp376
S'ADV'
p377
F1.0
s(lp378
(g64
I7
tp379
atp380
a(S'de'
p381
(dp382
S'DET'
p383
F1.0
s(lp384
(g36
I3
tp385
atp386
a(S'huidige'
p387
(dp388
S'NOUN'
p389
F5.1e-05
sS'ADJ'
p390
F0.999949
s(lp391
(g50
I4
tp392
atp393
a(S'regering'
p394
(dp395
S'NOUN'
p396
F1.0
s(lp397
(g43
I5
tp398
atp399
a(S'de'
p400
(dp401
S'DET'
p402
F1.0
s(lp403
(g86
I10
tp404
atp405
a(S'aanbevelingen'
p406
(dp407
S'NOUN'
p408
F1.0
s(lp409
(g93
I11
tp410
atp411
a(S'van'
p412
(dp413
S'ADP'
p414
F1.0
s(lp415
(g100
I13
tp416
atp417
a(S'de'
p418
(dp419
S'DET'
p420
F1.0
s(lp421
(g109
I14
tp422
atp423
a(S'commissie'
p424
(dp425
S'NOUN'
p426
F1.0
s(lp427
(g116
I15
tp428
atp429
a(S'serieus'
p430
(dp431
S'ADJ'
p432
F1.0
s(lp433
(g77
I9
tp434
atp435
a(S'zal'
p436
(dp437
S'VERB'
p438
F1.0
s(lp439
(g57
I6
tp440
atp441
a(S'nemen'
p442
(dp443
S'VERB'
p444
F0.994094
sS'NOUN'
p445
F0.005906
s(lp446
(g255
I8
tp447
atp448
a(S'en'
p449
(dp450
S'CONJ'
p451
F1.0
s(lp452
(g123
I16
tp453
atp454
a(S'lering'
p455
(dp456
S'NOUN'
p457
F1.0
s(lp458
tp459
a(S'zal'
p460
(dp461
S'VERB'
p462
F1.0
s(lp463
(g137
I17
tp464
atp465
a(S'trekken'
p466
(dp467
S'VERB'
p468
F0.999775
sS'NOUN'
p469
F0.000225
s(lp470
(g157
I18
tp471
atp472
a(S'uit'
p473
(dp474
S'ADV'
p475
F0.009582
sS'VERB'
p476
F2e-06
sS'ADP'
p477
F0.990417
s(lp478
(g150
I19
tp479
atp480
a(S'de'
p481
(dp482
S'DET'
p483
F1.0
s(lp484
(g191
I20
tp485
atp486
a(S'sloveense'
p487
(dp488
S'NOUN'
p489
F0.302594
sS'ADJ'
p490
F0.697406
s(lp491
(g198
I21
tp492
atp493
a(S'ervaring'
p494
(dp495
S'NOUN'
p496
F1.0
s(lp497
(g176
I22
tp498
atp499
a(g201
(dp500
g201
F1.0
s(lp501
(g201
I23
tp502
atp503
asS'de'
p504
(lp505
(S'ich'
p506
(dp507
S'PRON'
p508
F1.0
s(lp509
(g7
I0
tp510
atp511
a(S'vertraue'
p512
(dp513
S'VERB'
p514
F1.0
s(lp515
tp516
a(S'darauf'
p517
(dp518
S'ADV'
p519
F0.999475
sS'PRT'
p520
F0.000525
s(lp521
(g19
I1
tp522
atp523
a(S','
p524
(dp525
g201
F1.0
s(lp526
tp527
a(S'dass'
p528
(dp529
S'CONJ'
p530
F1.0
s(lp531
(g28
I2
tp532
atp533
a(S'die'
p534
(dp535
S'PRON'
p536
F0.003644
sS'DET'
p537
F0.996227
s(lp538
(g36
I3
tp539
atp540
a(S'derzeitige'
p541
(dp542
S'ADJ'
p543
F1.0
s(lp544
(g50
I4
tp545
atp546
a(S'regierung'
p547
(dp548
S'VERB'
p549
F3.9e-05
sS'NOUN'
p550
F0.999944
s(lp551
(g43
I5
tp552
atp553
a(S'die'
p554
(dp555
S'PRON'
p556
F6.7e-05
sS'DET'
p557
F0.99991
s(lp558
(g86
I10
tp559
atp560
a(S'empfehlung'
p561
(dp562
S'ADJ'
p563
F9.3e-05
sS'NOUN'
p564
F0.999846
s(lp565
(g93
I11
tp566
atp567
a(S'der'
p568
(dp569
S'PRON'
p570
F0.0001
sS'DET'
p571
F0.999863
s(lp572
(g109
I14
tp573
atp574
a(S'kommission'
p575
(dp576
S'ADJ'
p577
F0.033791
sS'NOUN'
p578
F0.942768
s(lp579
(g116
I15
tp580
atp581
a(S'ebenfalls'
p582
(dp583
S'ADV'
p584
F1.0
s(lp585
(g64
I7
tp586
atp587
a(S'ernst'
p588
(dp589
S'PRT'
p590
F0.011281
sS'ADJ'
p591
F0.988719
s(lp592
tp593
a(S'nehmen'
p594
(dp595
S'VERB'
p596
F1.0
s(lp597
(g77
I9
tp598
atp599
a(S'und'
p600
(dp601
S'CONJ'
p602
F1.0
s(lp603
(g123
I16
tp604
atp605
a(S'aus'
p606
(dp607
S'ADV'
p608
F0.000223
sS'ADP'
p609
F0.999775
s(lp610
(g150
I19
tp611
atp612
a(S'den'
p613
(dp614
S'PRON'
p615
F2.7e-05
sS'DET'
p616
F0.999972
s(lp617
(g191
I20
tp618
atp619
a(S'erfahrungen'
p620
(dp621
S'ADJ'
p622
F0.002412
sS'NOUN'
p623
F0.997409
s(lp624
(g176
I22
tp625
atp626
a(S'sloweniens'
p627
(dp628
S'NOUN'
p629
F0.480303
sS'ADJ'
p630
F0.513022
s(lp631
(g198
I21
tp632
atp633
a(S'lernen'
p634
(dp635
S'VERB'
p636
F1.0
s(lp637
(g157
I18
tp638
atp639
a(S'wird'
p640
(dp641
S'VERB'
p642
F1.0
s(lp643
(g137
I17
tp644
atp645
a(g201
(dp646
g201
F1.0
s(lp647
(g201
I23
tp648
atp649
asS'it'
p650
(lp651
(S'confido'
p652
(dp653
S'VERB'
p654
F1.0
s(lp655
(g19
I1
tp656
atp657
a(S'nel'
p658
(dp659
S'ADP'
p660
F1.0
s(lp661
tp662
a(S'fatto'
p663
(dp664
S'VERB'
p665
F0.012346
sS'NOUN'
p666
F0.987654
s(lp667
(g19
I1
tp668
atp669
a(S'che'
p670
(dp671
S'PRON'
p672
F0.751672
sS'CONJ'
p673
F0.246488
sS'ADJ'
p674
F0.00184
s(lp675
(g28
I2
tp676
atp677
a(S'anche'
p678
(dp679
S'ADV'
p680
F0.999994
sS'NOUN'
p681
F6e-06
s(lp682
(g64
I7
tp683
atp684
a(S"l'"
p685
(dp686
S'NOUN'
p687
F0.002844
sS'VERB'
p688
F0.8207110000000001
sS'ADJ'
p689
F0.176443
s(lp690
(g36
I3
tp691
atp692
a(S'attuale'
p693
(dp694
S'VERB'
p695
F0.001396
sS'ADJ'
p696
F0.998604
s(lp697
(g50
I4
tp698
atp699
a(S'governo'
p700
(dp701
S'VERB'
p702
F0.002724
sS'NOUN'
p703
F0.997276
s(lp704
(g43
I5
tp705
atp706
a(S'prenda'
p707
(dp708
S'VERB'
p709
F1.0
s(lp710
(g255
I8
tp711
atp712
a(S'seriamente'
p713
(dp714
S'ADV'
p715
F1.0
s(lp716
(g77
I9
tp717
atp718
a(S'le'
p719
(dp720
S'PRON'
p721
F6.4e-05
sS'DET'
p722
F0.999936
s(lp723
(g86
I10
tp724
atp725
a(S'raccomandazioni'
p726
(dp727
S'NOUN'
p728
F1.0
s(lp729
tp730
a(S'formulate'
p731
(dp732
S'VERB'
p733
F1.0
s(lp734
(g93
I11
tp735
atp736
a(S'dalla'
p737
(dp738
S'NOUN'
p739
F5e-06
sS'ADP'
p740
F0.999995
s(lp741
(g100
I13
tp742
atp743
a(S'commissione'
p744
(dp745
S'NOUN'
p746
F1.0
s(lp747
(g116
I15
tp748
atp749
a(S'e'
p750
(dp751
S'CONJ'
p752
F1.0
s(lp753
(g123
I16
tp754
atp755
a(S'faccia'
p756
(dp757
S'VERB'
p758
F0.9884069999999999
sS'NOUN'
p759
F0.011593
s(lp760
(g137
I17
tp761
atp762
a(S'tesoro'
p763
(dp764
S'NOUN'
p765
F1.0
s(lp766
(g157
I18
tp767
atp768
a(S"dell'"
p769
(dp770
S'ADJ'
p771
F0.040682
sS'VERB'
p772
F0.006560999999999999
sS'NOUN'
p773
F0.952757
s(lp774
(g150
I19
tp775
atp776
a(S'esperienza'
p777
(dp778
S'NOUN'
p779
F1.0
s(lp780
(g176
I22
tp781
atp782
a(S'slovena'
p783
(dp784
S'NOUN'
p785
F0.015475
sS'ADJ'
p786
F0.984525
s(lp787
(g198
I21
tp788
atp789
a(g201
(dp790
g201
F1.0
s(lp791
(g201
I23
tp792
atp793
asS'sk'
p794
(lp795
(S'ver\xc3\xadm'
p796
(dp797
S'VERB'
p798
F1.0
s(lp799
(g19
I1
tp800
atp801
a(g524
(dp802
g201
F1.0
s(lp803
tp804
a(S'\xc5\xbee'
p805
(dp806
g209
F0.000598
sS'CONJ'
p807
F0.999402
s(lp808
(g28
I2
tp809
atp810
a(S'aj'
p811
(dp812
g209
F0.676893
sS'CONJ'
p813
F0.323107
s(lp814
(g64
I7
tp815
atp816
a(S's\xc3\xba\xc4\x8dasn\xc3\xa1'
p817
(dp818
S'ADJ'
p819
F1.0
s(lp820
(g50
I4
tp821
atp822
a(S'slovensk\xc3\xa1'
p823
(dp824
S'ADJ'
p825
F1.0
s(lp826
(g77
I9
tp827
atp828
a(S'vl\xc3\xa1da'
p829
(dp830
S'NOUN'
p831
F1.0
s(lp832
(g43
I5
tp833
atp834
a(S'odporu\xc4\x8denia'
p835
(dp836
S'VERB'
p837
F0.09133499999999999
sS'NOUN'
p838
F0.9086650000000001
s(lp839
(g93
I11
tp840
atp841
a(S'eur\xc3\xb3pskej'
p842
(dp843
S'ADJ'
p844
F1.0
s(lp845
(g109
I14
tp846
atp847
a(S'komisie'
p848
(dp849
S'NOUN'
p850
F1.0
s(lp851
(g116
I15
tp852
atp853
a(S'zoberie'
p854
(dp855
S'VERB'
p856
F1.0
s(lp857
(g255
I8
tp858
atp859
a(S'v'
p860
(dp861
g209
F0.00019600000000000002
sS'ADP'
p862
F0.999804
s(lp863
(g191
I20
tp864
atp865
a(S'plnej'
p866
(dp867
S'ADJ'
p868
F1.0
s(lp869
tp870
a(S'v\xc3\xa1\xc5\xbenosti'
p871
(dp872
S'NOUN'
p873
F1.0
s(lp874
tp875
a(S'a'
p876
(dp877
g209
F0.004205
sS'CONJ'
p878
F0.995346
sS'NOUN'
p879
F0.00014199999999999998
sS'ADP'
p880
F0.0
sS'PRT'
p881
F0.000306
s(lp882
(g123
I16
tp883
atp884
a(S'pou\xc4\x8d\xc3\xad'
p885
(dp886
S'VERB'
p887
F1.0
s(lp888
tp889
a(S'sa'
p890
(dp891
S'PRT'
p892
F0.999344
sS'ADP'
p893
F1e-06
sg209
F0.000655
s(lp894
(g157
I18
tp895
atp896
a(S'zo'
p897
(dp898
g209
F0.027336
sS'ADP'
p899
F0.972665
s(lp900
(g150
I19
tp901
atp902
a(S'slovinsk\xc3\xbdch'
p903
(dp904
S'ADJ'
p905
F1.0
s(lp906
(g198
I21
tp907
atp908
a(S'sk\xc3\xbasenost\xc3\xad'
p909
(dp910
S'NOUN'
p911
F1.0
s(lp912
(g176
I22
tp913
atp914
a(g201
(dp915
g201
F1.0
s(lp916
(g201
I23
tp917
atp918
asS'pl'
p919
(lp920
(S'ufam'
p921
(dp922
S'VERB'
p923
F1.0
s(lp924
(g19
I1
tp925
atp926
a(g524
(dp927
g209
F0.0
sg201
F1.0
s(lp928
tp929
a(S'\xc5\xbce'
p930
(dp931
S'PRT'
p932
F0.000171
sS'CONJ'
p933
F0.9998290000000001
s(lp934
(g28
I2
tp935
atp936
a(S'obecny'
p937
(dp938
S'ADJ'
p939
F1.0
s(lp940
(g50
I4
tp941
atp942
a(S'rz\xc4\x85d'
p943
(dp944
S'NOUN'
p945
F1.0
s(lp946
(g43
I5
tp947
atp948
a(S'tak\xc5\xbce'
p949
(dp950
S'PRT'
p951
F0.541006
sS'CONJ'
p952
F0.458994
s(lp953
(g64
I7
tp954
atp955
a(S'z'
p956
(dp957
S'PRT'
p958
F0.000515
sS'VERB'
p959
F9e-06
sS'NOUN'
p960
F0.0
sS'ADP'
p961
F0.999474
sg209
F0.0
s(lp962
tp963
a(S'powag\xc4\x85'
p964
(dp965
S'NOUN'
p966
F1.0
s(lp967
(g77
I9
tp968
atp969
a(S'przyjmie'
p970
(dp971
S'VERB'
p972
F1.0
s(lp973
(g255
I8
tp974
atp975
a(S'zalecenia'
p976
(dp977
S'NOUN'
p978
F0.999999
s(lp979
(g93
I11
tp980
atp981
a(S'komisji'
p982
(dp983
S'NOUN'
p984
F0.999999
s(lp985
(g116
I15
tp986
atp987
a(g7
(dp988
S'PRT'
p989
F0.039498
sS'CONJ'
p990
F0.960338
sS'PRON'
p991
F1.9e-05
sS'NOUN'
p992
F0.000121
sg209
F2.5e-05
s(lp993
(g123
I16
tp994
atp995
a(S'b\xc4\x99dzie'
p996
(dp997
S'VERB'
p998
F1.0
s(lp999
(g137
I17
tp1000
atp1001
a(S'czerpa\xc4\x87'
p1002
(dp1003
S'VERB'
p1004
F1.0
s(lp1005
(g157
I18
tp1006
atp1007
a(g956
(dp1008
S'PRT'
p1009
F1.1e-05
sS'VERB'
p1010
F4e-06
sS'NOUN'
p1011
F5e-06
sS'ADP'
p1012
F0.99998
sg209
F1e-06
s(lp1013
(g150
I19
tp1014
atp1015
a(S'do\xc5\x9bwiadcze\xc5\x84'
p1016
(dp1017
S'NOUN'
p1018
F1.0
s(lp1019
(g176
I22
tp1020
atp1021
a(S's\xc5\x82owacji'
p1022
(dp1023
S'ADV'
p1024
F0.000309
sS'ADJ'
p1025
F0.0013619999999999997
sS'NOUN'
p1026
F0.9983280000000002
s(lp1027
(g198
I21
tp1028
atp1029
a(g201
(dp1030
g201
F1.0
s(lp1031
(g201
I23
tp1032
atp1033
asS'sl'
p1034
(lp1035
(S'menim'
p1036
(dp1037
S'VERB'
p1038
F1.0
s(lp1039
(g19
I1
tp1040
atp1041
a(g524
(dp1042
g201
F1.0
s(lp1043
tp1044
a(S'da'
p1045
(dp1046
S'PRT'
p1047
F0.000131
sS'CONJ'
p1048
F0.999856
sS'VERB'
p1049
F1.2e-05
sg209
F0.0
s(lp1050
(g28
I2
tp1051
atp1052
a(S'bo'
p1053
(dp1054
S'VERB'
p1055
F1.0
s(lp1056
(g57
I6
tp1057
atp1058
a(S'tudi'
p1059
(dp1060
S'PRT'
p1061
F1.0
s(lp1062
(g64
I7
tp1063
atp1064
a(S'sedanja'
p1065
(dp1066
S'ADJ'
p1067
F1.0
s(lp1068
(g50
I4
tp1069
atp1070
a(S'vlada'
p1071
(dp1072
S'VERB'
p1073
F0.003109
sS'NOUN'
p1074
F0.996891
s(lp1075
(g43
I5
tp1076
atp1077
a(S'resno'
p1078
(dp1079
S'ADV'
p1080
F0.998662
sS'ADJ'
p1081
F0.001338
s(lp1082
tp1083
a(S'obravnavala'
p1084
(dp1085
S'VERB'
p1086
F1.0
s(lp1087
(g77
I9
tp1088
atp1089
a(S'priporo\xc4\x8dila'
p1090
(dp1091
S'VERB'
p1092
F0.009916
sS'NOUN'
p1093
F0.9900849999999999
s(lp1094
(g93
I11
tp1095
atp1096
a(S'komisije'
p1097
(dp1098
S'NOUN'
p1099
F1.0
s(lp1100
(g116
I15
tp1101
atp1102
a(S'in'
p1103
(dp1104
S'ADV'
p1105
F1.8e-05
sg209
F5e-06
sS'CONJ'
p1106
F0.999972
sS'NOUN'
p1107
F6e-06
s(lp1108
(g123
I16
tp1109
atp1110
a(S'se'
p1111
(dp1112
S'PRON'
p1113
F0.999994
sg209
F6e-06
s(lp1114
tp1115
a(S'u\xc4\x8dila'
p1116
(dp1117
S'VERB'
p1118
F1.0
s(lp1119
(g157
I18
tp1120
atp1121
a(S'iz'
p1122
(dp1123
g209
F1.9e-05
sS'ADP'
p1124
F0.999981
s(lp1125
(g150
I19
tp1126
atp1127
a(S'slovenskih'
p1128
(dp1129
S'ADJ'
p1130
F0.9999999999999999
s(lp1131
(g198
I21
tp1132
atp1133
a(S'izku\xc5\xa1enj'
p1134
(dp1135
S'NOUN'
p1136
F1.0
s(lp1137
(g176
I22
tp1138
atp1139
a(g201
(dp1140
g201
F1.0
s(lp1141
(g201
I23
tp1142
atp1143
asS'es'
p1144
(lp1145
(S'conf\xc3\xado'
p1146
(dp1147
S'VERB'
p1148
F1.0
s(lp1149
tp1150
a(S'en'
p1151
(dp1152
g209
F0.0
sS'CONJ'
p1153
F0.000181
sS'ADP'
p1154
F0.999819
s(lp1155
(g19
I1
tp1156
atp1157
a(S'que'
p1158
(dp1159
g209
F0.0
sS'CONJ'
p1160
F1.0
s(lp1161
(g28
I2
tp1162
atp1163
a(S'el'
p1164
(dp1165
S'PRON'
p1166
F0.000506
sS'DET'
p1167
F0.999494
s(lp1168
(g36
I3
tp1169
atp1170
a(S'gobierno'
p1171
(dp1172
S'VERB'
p1173
F0.000553
sS'NOUN'
p1174
F0.999447
s(lp1175
(g43
I5
tp1176
atp1177
a(S'actual'
p1178
(dp1179
g209
F3e-06
sS'ADJ'
p1180
F0.999997
s(lp1181
(g50
I4
tp1182
atp1183
a(S'tambi\xc3\xa9n'
p1184
(dp1185
S'ADV'
p1186
F1.0
s(lp1187
(g64
I7
tp1188
atp1189
a(S'se'
p1190
(dp1191
S'PRON'
p1192
F1.0
sS'VERB'
p1193
F0.0
s(lp1194
(g57
I6
tp1195
atp1196
a(S'tome'
p1197
(dp1198
S'VERB'
p1199
F1.0
s(lp1200
(g255
I8
tp1201
atp1202
a(S'en'
p1203
(dp1204
g209
F0.000156
sS'CONJ'
p1205
F2.9e-05
sS'ADP'
p1206
F0.999816
s(lp1207
tp1208
a(S'serio'
p1209
(dp1210
S'VERB'
p1211
F0.012609
sS'ADJ'
p1212
F0.987391
s(lp1213
(g77
I9
tp1214
atp1215
a(S'las'
p1216
(dp1217
S'PRON'
p1218
F4.2e-05
sS'DET'
p1219
F0.999958
s(lp1220
(g86
I10
tp1221
atp1222
a(S'recomendaciones'
p1223
(dp1224
S'NOUN'
p1225
F1.0
s(lp1226
(g93
I11
tp1227
atp1228
a(S'de'
p1229
(dp1230
g209
F0.0
sS'CONJ'
p1231
F1.7e-05
sS'ADP'
p1232
F0.999983
s(lp1233
(g100
I13
tp1234
atp1235
a(S'la'
p1236
(dp1237
g209
F0.0
sS'PRON'
p1238
F0.0
sS'DET'
p1239
F0.999999
sS'NOUN'
p1240
F0.0
s(lp1241
(g109
I14
tp1242
atp1243
a(S'comisi\xc3\xb3n'
p1244
(dp1245
S'NOUN'
p1246
F1.0
s(lp1247
(g116
I15
tp1248
atp1249
a(S'y'
p1250
(dp1251
g209
F0.001029
sS'CONJ'
p1252
F0.998971
s(lp1253
(g123
I16
tp1254
atp1255
a(S'en'
p1256
(dp1257
g209
F0.0
sS'CONJ'
p1258
F1.1e-05
sS'ADP'
p1259
F0.999989
s(lp1260
tp1261
a(S'que'
p1262
(dp1263
g209
F2e-06
sS'CONJ'
p1264
F0.999998
s(lp1265
(g137
I17
tp1266
atp1267
a(S'aprenda'
p1268
(dp1269
S'VERB'
p1270
F1.0
s(lp1271
(g157
I18
tp1272
atp1273
a(S'de'
p1274
(dp1275
g209
F0.0
sS'CONJ'
p1276
F2.6e-05
sS'ADP'
p1277
F0.999974
s(lp1278
(g150
I19
tp1279
atp1280
a(S'la'
p1281
(dp1282
S'NOUN'
p1283
F0.0
sS'PRON'
p1284
F0.0
sS'DET'
p1285
F0.999999
sg209
F0.0
s(lp1286
(g191
I20
tp1287
atp1288
a(S'experiencia'
p1289
(dp1290
S'NOUN'
p1291
F1.0
s(lp1292
(g176
I22
tp1293
atp1294
a(S'eslovena'
p1295
(dp1296
S'NOUN'
p1297
F0.008827
sS'ADJ'
p1298
F0.991173
s(lp1299
(g198
I21
tp1300
atp1301
a(g201
(dp1302
g201
F1.0
s(lp1303
(g201
I23
tp1304
atp1305
as.