(dp0
S'fr'
p1
(lp2
(S'outre'
p3
(dp4
S'ADV'
p5
F0.629217
sS'VERB'
p6
F0.007244
sS'NOUN'
p7
F0.000655
sS'ADP'
p8
F0.362884
s(lp9
(S'addition'
p10
I1
tp11
atp12
a(S'les'
p13
(dp14
S'PRON'
p15
F9.1e-05
sS'DET'
p16
F0.999881
sS'ADP'
p17
F2.8e-05
s(lp18
(S'the'
p19
I3
tp20
atp21
a(S'interventions'
p22
(dp23
S'NOUN'
p24
F1.0
s(lp25
(S'measures'
p26
I5
tp27
atp28
a(S'de'
p29
(dp30
S'ADP'
p31
F1.0
s(lp32
tp33
a(S'ce'
p34
(dp35
S'PRON'
p36
F1.0
s(lp37
tp38
a(S'jour'
p39
(dp40
S'NOUN'
p41
F1.0
s(lp42
tp43
a(S'\xc3\xa0'
p44
(dp45
S'ADP'
p46
F1.0
s(lp47
tp48
a(S"l'"
p49
(dp50
S'ADJ'
p51
F0.160704
sS'VERB'
p52
F0.06480800000000002
sS'NOUN'
p53
F0.774488
s(lp54
(S'being'
p55
I6
tp56
atp57
a(S'initiative'
p58
(dp59
S'NOUN'
p60
F1.0
s(lp61
(S'initiated'
p62
I7
tp63
atp64
a(S'du'
p65
(dp66
S'ADP'
p67
F1.0
s(lp68
(S'the'
p69
I9
tp70
atp71
a(S'conseil'
p72
(dp73
S'NOUN'
p74
F1.0
s(lp75
(S'council'
p76
I10
tp77
atp78
a(S'et'
p79
(dp80
S'CONJ'
p81
F1.0
s(lp82
(S'and'
p83
I11
tp84
atp85
a(S'de'
p86
(dp87
S'ADP'
p88
F1.0
s(lp89
(S'by'
p90
I8
tp91
atp92
a(S'la'
p93
(dp94
S'PRON'
p95
F1.2e-05
sS'DET'
p96
F0.999988
sS'NOUN'
p97
F0.0
s(lp98
(S'the'
p99
I12
tp100
atp101
a(S'commission'
p102
(dp103
S'NOUN'
p104
F1.0
s(lp105
(S'commission'
p106
I13
tp107
atp108
a(S','
p109
(dp110
S'.'
p111
F1.0
s(lp112
(g109
I14
tp113
atp114
a(S"l'"
p115
(dp116
S'ADJ'
p117
F0.13429
sS'VERB'
p118
F0.638201
sS'NOUN'
p119
F0.227509
s(lp120
(S'the'
p121
I15
tp122
atp123
a(S'actualit\xc3\xa9'
p124
(dp125
S'NOUN'
p126
F1.0
s(lp127
(S'situation'
p128
I17
tp129
atp130
a(S'parlementaire'
p131
(dp132
S'NOUN'
p133
F0.025222
sS'ADJ'
p134
F0.974778
s(lp135
(S'parliamentary'
p136
I16
tp137
atp138
a(S'nous'
p139
(dp140
S'PRON'
p141
F1.0
s(lp142
(S'us'
p143
I20
tp144
atp145
a(S'permet'
p146
(dp147
S'VERB'
p148
F1.0
s(lp149
(S'allows'
p150
I19
tp151
atp152
a(S'de'
p153
(dp154
S'ADP'
p155
F1.0
s(lp156
(S'to'
p157
I21
tp158
atp159
a(S'r\xc3\xa9agir'
p160
(dp161
S'VERB'
p162
F1.0
s(lp163
(S'react'
p164
I22
tp165
atp166
a(S'\xc3\xa0'
p167
(dp168
S'ADP'
p169
F1.0
s(lp170
(S'to'
p171
I23
tp172
atp173
a(S'ces'
p174
(dp175
S'PRON'
p176
F1.0
s(lp177
(S'these'
p178
I24
tp179
atp180
a(S'exactions'
p181
(dp182
S'NOUN'
p183
F1.0
s(lp184
(S'violent'
p185
I25
tp186
atp187
a(S'et'
p188
(dp189
S'CONJ'
p190
F1.0
s(lp191
(S'and'
p192
I27
tp193
atp194
a(S"d'"
p195
(dp196
S'NOUN'
p197
F0.050387
sS'VERB'
p198
F0.8915730000000001
sS'ADJ'
p199
F0.05804
s(lp200
(S'to'
p201
I28
tp202
atp203
a(S'envoyer'
p204
(dp205
S'VERB'
p206
F1.0
s(lp207
(S'send'
p208
I29
tp209
atp210
a(S'un'
p211
(dp212
S'NOUN'
p213
F1.9e-05
sS'NUM'
p214
F0.007963
sS'DET'
p215
F0.992018
s(lp216
(S'a'
p217
I31
tp218
atp219
a(S'signal'
p220
(dp221
S'NOUN'
p222
F1.0
s(lp223
(S'message'
p224
I33
tp225
atp226
a(S'fort'
p227
(dp228
S'ADV'
p229
F0.207885
sS'NOUN'
p230
F0.001768
sS'ADJ'
p231
F0.790347
s(lp232
(S'strong'
p233
I32
tp234
atp235
a(S'au'
p236
(dp237
S'ADP'
p238
F1.0
s(lp239
(S'the'
p240
I35
tp241
atp242
a(S'gouvernement'
p243
(dp244
S'NOUN'
p245
F1.0
s(lp246
(S'government'
p247
I37
tp248
atp249
a(S'guin\xc3\xa9en'
p250
(dp251
S'ADJ'
p252
F0.084194
sS'NOUN'
p253
F0.915806
s(lp254
(S'guinean'
p255
I36
tp256
atp257
a(S'en'
p258
(dp259
S'PRON'
p260
F0.070813
sS'ADP'
p261
F0.929187
s(lp262
(S'by'
p263
I38
tp264
atp265
a(S'rejetant'
p266
(dp267
S'VERB'
p268
F1.0
s(lp269
(S'rejecting'
p270
I39
tp271
atp272
a(S'le'
p273
(dp274
S'PRON'
p275
F3e-06
sS'DET'
p276
F0.999997
s(lp277
(S'the'
p278
I40
tp279
atp280
a(S'rapport'
p281
(dp282
S'NOUN'
p283
F1.0
s(lp284
(S'report'
p285
I41
tp286
atp287
a(S'sur'
p288
(dp289
S'ADP'
p290
F1.0
s(lp291
(S'on'
p292
I42
tp293
atp294
a(S"l'"
p295
(dp296
S'ADJ'
p297
F0.160704
sS'VERB'
p298
F0.06480800000000002
sS'NOUN'
p299
F0.774488
s(lp300
(S'the'
p301
I43
tp302
atp303
a(S'accord'
p304
(dp305
S'NOUN'
p306
F1.0
s(lp307
(S'agreement'
p308
I46
tp309
atp310
a(S'de'
p311
(dp312
S'ADP'
p313
F1.0
s(lp314
(S'fisheries'
p315
I44
tp316
atp317
a(S'partenariat'
p318
(dp319
S'NOUN'
p320
F1.0
s(lp321
(S'partnership'
p322
I45
tp323
atp324
a(S'de'
p325
(dp326
S'ADP'
p327
F1.0
s(lp328
tp329
a(S'p\xc3\xaache'
p330
(dp331
S'VERB'
p332
F0.004044
sS'NOUN'
p333
F0.995955
s(lp334
(g315
I44
tp335
atp336
a(S'avec'
p337
(dp338
S'ADV'
p339
F0.003895
sS'ADP'
p340
F0.996105
s(lp341
(S'with'
p342
I47
tp343
atp344
a(S'la'
p345
(dp346
S'PRON'
p347
F1.2e-05
sS'DET'
p348
F0.999988
sS'NOUN'
p349
F0.0
s(lp350
tp351
a(S'guin\xc3\xa9e'
p352
(dp353
S'NOUN'
p354
F1.0
s(lp355
(S'guinea'
p356
I48
tp357
atp358
a(g109
(dp359
g111
F1.0
s(lp360
(g109
I49
tp361
atp362
a(S'qui'
p363
(dp364
S'PRON'
p365
F1.0
s(lp366
(S'which'
p367
I50
tp368
atp369
a(S'sera'
p370
(dp371
S'VERB'
p372
F1.0
s(lp373
(S'will'
p374
I52
tp375
atp376
a(S'soumis'
p377
(dp378
S'VERB'
p379
F1.0
s(lp380
tp381
a(S'\xc3\xa0'
p382
(dp383
S'ADP'
p384
F1.0
s(lp385
tp386
a(S'notre'
p387
(dp388
S'PRON'
p389
F1.0
s(lp390
(S'we'
p391
I51
tp392
atp393
a(S'vote'
p394
(dp395
S'VERB'
p396
F1.6e-05
sS'NOUN'
p397
F0.999984
s(lp398
(S'vote'
p399
I53
tp400
atp401
a(S'lors'
p402
(dp403
S'ADV'
p404
F1.0
s(lp405
(S'during'
p406
I55
tp407
atp408
a(S'de'
p409
(dp410
S'ADP'
p411
F1.0
s(lp412
(S'on'
p413
I54
tp414
atp415
a(S'la'
p416
(dp417
S'PRON'
p418
F3.2e-05
sS'DET'
p419
F0.999951
sS'NOUN'
p420
F1.6e-05
s(lp421
(S'the'
p422
I56
tp423
atp424
a(S'prochaine'
p425
(dp426
S'NOUN'
p427
F0.037235
sS'ADJ'
p428
F0.962765
s(lp429
(S'next'
p430
I57
tp431
atp432
a(S'session'
p433
(dp434
S'NOUN'
p435
F1.0
s(lp436
(S'session'
p437
I59
tp438
atp439
a(S'pl\xc3\xa9ni\xc3\xa8re'
p440
(dp441
S'ADJ'
p442
F1.0
s(lp443
(S'plenary'
p444
I58
tp445
atp446
a(g111
(dp447
g111
F1.0
s(lp448
(g111
I60
tp449
atp450
asS'en'
p451
(lp452
(S'in'
p453
(dp454
S'ADV'
p455
F0.000791
sS'PRT'
p456
F0.0
sS'ADP'
p457
F0.999209
s(lp458
(g453
I0
tp459
atp460
a(g10
(dp461
S'NOUN'
p462
F1.0
s(lp463
(g10
I1
tp464
atp465
a(S'to'
p466
(dp467
S'ADV'
p468
F1e-06
sS'PRT'
p469
F0.999989
sS'ADP'
p470
F1.1e-05
s(lp471
(g466
I2
tp472
atp473
a(g19
(dp474
S'NOUN'
p475
F1e-06
sS'DET'
p476
F0.999999
s(lp477
(g19
I3
tp478
atp479
a(S'current'
p480
(dp481
S'NOUN'
p482
F0.010522
sS'ADJ'
p483
F0.989478
s(lp484
(g480
I4
tp485
atp486
a(g26
(dp487
S'VERB'
p488
F0.000307
sS'NOUN'
p489
F0.9996929999999999
s(lp490
(g26
I5
tp491
atp492
a(g55
(dp493
S'NOUN'
p494
F1e-06
sS'VERB'
p495
F0.999997
sS'ADJ'
p496
F2e-06
s(lp497
(g55
I6
tp498
atp499
a(g62
(dp500
S'VERB'
p501
F1.0
s(lp502
(g62
I7
tp503
atp504
a(g90
(dp505
S'ADV'
p506
F0.000139
sS'NOUN'
p507
F0.0
sS'ADP'
p508
F0.999861
s(lp509
(g90
I8
tp510
atp511
a(g69
(dp512
S'NOUN'
p513
F1e-06
sS'DET'
p514
F0.999999
s(lp515
(g69
I9
tp516
atp517
a(g76
(dp518
S'NOUN'
p519
F1.0
s(lp520
(g76
I10
tp521
atp522
a(g83
(dp523
S'CONJ'
p524
F1.0
sS'NOUN'
p525
F0.0
s(lp526
(g83
I11
tp527
atp528
a(g99
(dp529
S'NOUN'
p530
F2e-06
sS'DET'
p531
F0.999998
s(lp532
(g99
I12
tp533
atp534
a(g106
(dp535
S'VERB'
p536
F8.000000000000001e-06
sS'NOUN'
p537
F0.999992
s(lp538
(g106
I13
tp539
atp540
a(g109
(dp541
g111
F1.0
s(lp542
(g109
I14
tp543
atp544
a(g121
(dp545
S'NOUN'
p546
F2e-06
sS'DET'
p547
F0.999998
s(lp548
(g121
I15
tp549
atp550
a(g136
(dp551
S'ADJ'
p552
F1.0
s(lp553
(g136
I16
tp554
atp555
a(g128
(dp556
S'NOUN'
p557
F1.0
s(lp558
(g128
I17
tp559
atp560
a(S'today'
p561
(dp562
S'ADV'
p563
F0.001061
sS'NOUN'
p564
F0.998939
s(lp565
(g561
I18
tp566
atp567
a(g150
(dp568
S'VERB'
p569
F1.0
s(lp570
(g150
I19
tp571
atp572
a(g143
(dp573
S'PRON'
p574
F1.0
s(lp575
(g143
I20
tp576
atp577
a(g157
(dp578
S'ADV'
p579
F2e-06
sS'PRT'
p580
F0.999998
sS'ADP'
p581
F0.0
s(lp582
(g157
I21
tp583
atp584
a(g164
(dp585
S'VERB'
p586
F1.0
s(lp587
(g164
I22
tp588
atp589
a(g171
(dp590
S'ADV'
p591
F1e-06
sS'PRT'
p592
F0.999996
sS'ADP'
p593
F3e-06
s(lp594
(g171
I23
tp595
atp596
a(g178
(dp597
S'NOUN'
p598
F1e-06
sS'DET'
p599
F0.999999
s(lp600
(g178
I24
tp601
atp602
a(g185
(dp603
S'ADJ'
p604
F1.0
s(lp605
(g185
I25
tp606
atp607
a(S'acts'
p608
(dp609
S'VERB'
p610
F0.000264
sS'NOUN'
p611
F0.999736
s(lp612
(g608
I26
tp613
atp614
a(g192
(dp615
S'CONJ'
p616
F0.999991
sS'NOUN'
p617
F9e-06
s(lp618
(g192
I27
tp619
atp620
a(g201
(dp621
S'ADV'
p622
F2e-06
sS'PRT'
p623
F0.999998
sS'ADP'
p624
F0.0
s(lp625
(g201
I28
tp626
atp627
a(g208
(dp628
S'VERB'
p629
F0.999669
sS'NOUN'
p630
F0.00033
s(lp631
(g208
I29
tp632
atp633
a(S'out'
p634
(dp635
S'ADV'
p636
F0.030798
sS'NOUN'
p637
F8e-06
sS'ADP'
p638
F0.27249
sS'PRT'
p639
F0.696686
sS'VERB'
p640
F4.9999999999999996e-06
sS'ADJ'
p641
F1.3e-05
s(lp642
(g634
I30
tp643
atp644
a(g217
(dp645
S'NOUN'
p646
F0.0
sS'DET'
p647
F1.0
s(lp648
(g217
I31
tp649
atp650
a(g233
(dp651
S'ADV'
p652
F6.2e-05
sS'ADJ'
p653
F0.999938
s(lp654
(g233
I32
tp655
atp656
a(g224
(dp657
S'NOUN'
p658
F1.0
s(lp659
(g224
I33
tp660
atp661
a(S'to'
p662
(dp663
S'ADV'
p664
F1e-06
sS'PRT'
p665
F0.999989
sS'ADP'
p666
F1.1e-05
s(lp667
(g662
I34
tp668
atp669
a(g240
(dp670
S'NOUN'
p671
F1e-06
sS'DET'
p672
F0.999999
s(lp673
(g240
I35
tp674
atp675
a(g255
(dp676
S'NOUN'
p677
F0.151236
sS'ADJ'
p678
F0.848765
s(lp679
(g255
I36
tp680
atp681
a(g247
(dp682
S'NOUN'
p683
F1.0
s(lp684
(g247
I37
tp685
atp686
a(g263
(dp687
S'ADV'
p688
F0.000171
sS'NOUN'
p689
F1e-06
sS'ADP'
p690
F0.999829
s(lp691
(g263
I38
tp692
atp693
a(g270
(dp694
S'VERB'
p695
F1.0
s(lp696
(g270
I39
tp697
atp698
a(g278
(dp699
S'NOUN'
p700
F1e-06
sS'DET'
p701
F0.999999
s(lp702
(g278
I40
tp703
atp704
a(g285
(dp705
S'VERB'
p706
F0.001311
sS'NOUN'
p707
F0.998688
s(lp708
(g285
I41
tp709
atp710
a(g292
(dp711
S'ADV'
p712
F0.000495
sS'PRT'
p713
F0.000565
sS'ADJ'
p714
F0.0
sS'NOUN'
p715
F0.0
sS'ADP'
p716
F0.99894
s(lp717
(g292
I42
tp718
atp719
a(g301
(dp720
S'NOUN'
p721
F1.1e-05
sS'DET'
p722
F0.999989
s(lp723
(g301
I43
tp724
atp725
a(g315
(dp726
S'NOUN'
p727
F1.0
s(lp728
(g315
I44
tp729
atp730
a(g322
(dp731
S'NOUN'
p732
F1.0
s(lp733
(g322
I45
tp734
atp735
a(g308
(dp736
S'NOUN'
p737
F1.0
s(lp738
(g308
I46
tp739
atp740
a(g342
(dp741
S'ADP'
p742
F1.0
s(lp743
(g342
I47
tp744
atp745
a(g356
(dp746
S'NOUN'
p747
F1.0
s(lp748
(g356
I48
tp749
atp750
a(g109
(dp751
g111
F1.0
s(lp752
(g109
I49
tp753
atp754
a(g367
(dp755
S'DET'
p756
F1.0
s(lp757
(g367
I50
tp758
atp759
a(g391
(dp760
S'PRON'
p761
F1.0
s(lp762
(g391
I51
tp763
atp764
a(g374
(dp765
S'VERB'
p766
F1.0
sS'NOUN'
p767
F0.0
s(lp768
(g374
I52
tp769
atp770
a(g399
(dp771
S'VERB'
p772
F0.999697
sS'NOUN'
p773
F0.000303
s(lp774
(g399
I53
tp775
atp776
a(g413
(dp777
S'ADV'
p778
F0.034442
sS'PRT'
p779
F0.529036
sS'ADJ'
p780
F1.9e-05
sS'NOUN'
p781
F2.4e-05
sS'ADP'
p782
F0.436478
s(lp783
(g413
I54
tp784
atp785
a(g406
(dp786
S'ADP'
p787
F1.0
s(lp788
(g406
I55
tp789
atp790
a(g422
(dp791
S'NOUN'
p792
F1e-06
sS'DET'
p793
F0.999999
s(lp794
(g422
I56
tp795
atp796
a(g430
(dp797
S'ADV'
p798
F0.001312
sS'ADJ'
p799
F0.998607
sS'ADP'
p800
F8.1e-05
s(lp801
(g430
I57
tp802
atp803
a(g444
(dp804
S'NOUN'
p805
F0.236644
sS'ADJ'
p806
F0.763356
s(lp807
(g444
I58
tp808
atp809
a(g437
(dp810
S'NOUN'
p811
F1.0
s(lp812
(g437
I59
tp813
atp814
a(g111
(dp815
g111
F1.0
s(lp816
(g111
I60
tp817
atp818
asS'nl'
p819
(lp820
(S'afgezien'
p821
(dp822
S'VERB'
p823
F1.0
s(lp824
(g10
I1
tp825
atp826
a(S'van'
p827
(dp828
S'ADP'
p829
F1.0
s(lp830
(g466
I2
tp831
atp832
a(S'het'
p833
(dp834
S'PRON'
p835
F0.002932
sS'DET'
p836
F0.997067
s(lp837
(g19
I3
tp838
atp839
a(S'optreden'
p840
(dp841
S'VERB'
p842
F0.0020080000000000002
sS'NOUN'
p843
F0.997992
s(lp844
(g26
I5
tp845
atp846
a(S'van'
p847
(dp848
S'ADP'
p849
F1.0
s(lp850
tp851
a(S'vandaag'
p852
(dp853
S'ADV'
p854
F1.0
s(lp855
(g561
I18
tp856
atp857
a(S'waartoe'
p858
(dp859
S'ADV'
p860
F1.0
s(lp861
(g62
I7
tp862
atp863
a(S'de'
p864
(dp865
S'DET'
p866
F1.0
s(lp867
(g69
I9
tp868
atp869
a(S'raad'
p870
(dp871
S'VERB'
p872
F1e-06
sS'NOUN'
p873
F0.999999
s(lp874
(g76
I10
tp875
atp876
a(S'en'
p877
(dp878
S'CONJ'
p879
F1.0
s(lp880
(g83
I11
tp881
atp882
a(S'de'
p883
(dp884
S'DET'
p885
F1.0
s(lp886
(g99
I12
tp887
atp888
a(S'commissie'
p889
(dp890
S'NOUN'
p891
F1.0
s(lp892
(g106
I13
tp893
atp894
a(S'het'
p895
(dp896
S'PRON'
p897
F0.001008
sS'DET'
p898
F0.998992
s(lp899
tp900
a(S'initiatief'
p901
(dp902
S'NOUN'
p903
F1.0
s(lp904
(g62
I7
tp905
atp906
a(S'hebben'
p907
(dp908
S'VERB'
p909
F0.9999990000000001
sS'NOUN'
p910
F0.0
s(lp911
tp912
a(S'genomen'
p913
(dp914
S'VERB'
p915
F0.999821
sS'ADJ'
p916
F0.000179
s(lp917
(g62
I7
tp918
atp919
a(g109
(dp920
g111
F1.0
s(lp921
(g109
I14
tp922
atp923
a(S'wordt'
p924
(dp925
S'VERB'
p926
F1.0
s(lp927
(g55
I6
tp928
atp929
a(S'ons'
p930
(dp931
S'PRON'
p932
F0.999952
sS'NOUN'
p933
F4.9e-05
s(lp934
(g143
I20
tp935
atp936
a(S'door'
p937
(dp938
S'ADV'
p939
F5e-06
sS'CONJ'
p940
F7e-06
sS'ADP'
p941
F0.999988
s(lp942
(g90
I8
tp943
atp944
a(S'de'
p945
(dp946
S'DET'
p947
F1.0
s(lp948
(g121
I15
tp949
atp950
a(S'parlementaire'
p951
(dp952
S'NOUN'
p953
F0.000161
sS'ADJ'
p954
F0.999839
s(lp955
(g136
I16
tp956
atp957
a(S'actualiteit'
p958
(dp959
S'NOUN'
p960
F1.0
s(lp961
(g128
I17
tp962
atp963
a(S'de'
p964
(dp965
S'DET'
p966
F1.0
s(lp967
tp968
a(S'gelegenheid'
p969
(dp970
S'NOUN'
p971
F1.0
s(lp972
tp973
a(S'geboden'
p974
(dp975
S'NOUN'
p976
F4.3e-05
sS'VERB'
p977
F0.996459
sS'ADJ'
p978
F0.003497
s(lp979
(g150
I19
tp980
atp981
a(S'om'
p982
(dp983
S'ADV'
p984
F0.001289
sS'CONJ'
p985
F0.925954
sS'ADP'
p986
F0.072757
s(lp987
tp988
a(S'op'
p989
(dp990
S'ADV'
p991
F0.00524
sS'ADJ'
p992
F1e-06
sS'ADP'
p993
F0.994759
s(lp994
(g171
I23
tp995
atp996
a(S'deze'
p997
(dp998
S'PRON'
p999
F1.0
s(lp1000
(g178
I24
tp1001
atp1002
a(S'gewelddadigheden'
p1003
(dp1004
S'NOUN'
p1005
F1.0
s(lp1006
(g185
I25
tp1007
atp1008
a(S'te'
p1009
(dp1010
S'PRT'
p1011
F1.0
s(lp1012
(g157
I21
tp1013
atp1014
a(S'reageren'
p1015
(dp1016
S'VERB'
p1017
F0.9999979999999999
sS'NOUN'
p1018
F2e-06
s(lp1019
(g164
I22
tp1020
atp1021
a(S'en'
p1022
(dp1023
S'CONJ'
p1024
F1.0
s(lp1025
(g192
I27
tp1026
atp1027
a(S'een'
p1028
(dp1029
S'ADJ'
p1030
F1e-06
sS'PRON'
p1031
F0.001084
sS'NUM'
p1032
F3e-06
sS'DET'
p1033
F0.998912
s(lp1034
(g217
I31
tp1035
atp1036
a(S'sterk'
p1037
(dp1038
S'ADV'
p1039
F6.4e-05
sS'VERB'
p1040
F1e-06
sS'ADJ'
p1041
F0.999934
s(lp1042
(g233
I32
tp1043
atp1044
a(S'signaal'
p1045
(dp1046
S'NOUN'
p1047
F1.0
s(lp1048
(g224
I33
tp1049
atp1050
a(S'aan'
p1051
(dp1052
S'ADV'
p1053
F0.007796
sS'ADP'
p1054
F0.992204
s(lp1055
(g662
I34
tp1056
atp1057
a(S'de'
p1058
(dp1059
S'DET'
p1060
F1.0
s(lp1061
(g240
I35
tp1062
atp1063
a(S'guinese'
p1064
(dp1065
S'NOUN'
p1066
F0.389023
sS'ADJ'
p1067
F0.610977
s(lp1068
(g255
I36
tp1069
atp1070
a(S'regering'
p1071
(dp1072
S'NOUN'
p1073
F1.0
s(lp1074
(g247
I37
tp1075
atp1076
a(S'af'
p1077
(dp1078
S'ADV'
p1079
F0.999985
sS'ADP'
p1080
F1.5e-05
s(lp1081
(g270
I39
tp1082
atp1083
a(S'te'
p1084
(dp1085
S'PRT'
p1086
F1.0
s(lp1087
(g201
I28
tp1088
atp1089
a(S'geven'
p1090
(dp1091
S'VERB'
p1092
F1.0
sS'NOUN'
p1093
F0.0
s(lp1094
(g208
I29
tp1095
atp1096
a(S'door'
p1097
(dp1098
S'ADV'
p1099
F0.0
sS'CONJ'
p1100
F0.00012
sS'ADP'
p1101
F0.99988
s(lp1102
(g263
I38
tp1103
atp1104
a(S'het'
p1105
(dp1106
S'PRON'
p1107
F0.000929
sS'DET'
p1108
F0.99907
s(lp1109
(g278
I40
tp1110
atp1111
a(S'verslag'
p1112
(dp1113
S'NOUN'
p1114
F1.0
s(lp1115
(g285
I41
tp1116
atp1117
a(S'over'
p1118
(dp1119
S'ADV'
p1120
F0.015324
sS'ADP'
p1121
F0.984676
s(lp1122
(g292
I42
tp1123
atp1124
a(S'de'
p1125
(dp1126
S'DET'
p1127
F1.0
s(lp1128
(g301
I43
tp1129
atp1130
a(S'partnerschapsovereenkomst'
p1131
(dp1132
S'NOUN'
p1133
F1.0
s(lp1134
(g322
I45
tp1135
atp1136
a(S'inzake'
p1137
(dp1138
S'ADP'
p1139
F1.0
s(lp1140
(g308
I46
tp1141
atp1142
a(S'visserij'
p1143
(dp1144
S'NOUN'
p1145
F1.0
s(lp1146
(g315
I44
tp1147
atp1148
a(S'met'
p1149
(dp1150
S'ADP'
p1151
F1.0
s(lp1152
(g342
I47
tp1153
atp1154
a(S'guinee'
p1155
(dp1156
S'ADJ'
p1157
F8.9e-05
sS'NOUN'
p1158
F0.9999110000000001
s(lp1159
(g356
I48
tp1160
atp1161
a(g109
(dp1162
g111
F1.0
s(lp1163
(g109
I49
tp1164
atp1165
a(S'waarover'
p1166
(dp1167
S'ADV'
p1168
F1.0
s(lp1169
(g367
I50
tp1170
atp1171
a(S'wij'
p1172
(dp1173
S'PRON'
p1174
F1.0
s(lp1175
(g391
I51
tp1176
atp1177
a(S'tijdens'
p1178
(dp1179
S'ADP'
p1180
F1.0
s(lp1181
(g406
I55
tp1182
atp1183
a(S'de'
p1184
(dp1185
S'DET'
p1186
F1.0
s(lp1187
(g422
I56
tp1188
atp1189
a(S'volgende'
p1190
(dp1191
S'NOUN'
p1192
F0.002993
sS'VERB'
p1193
F0.000294
sS'ADJ'
p1194
F0.996713
s(lp1195
(g430
I57
tp1196
atp1197
a(S'vergaderperiode'
p1198
(dp1199
S'NOUN'
p1200
F1.0
s(lp1201
(g437
I59
tp1202
atp1203
a(S'zullen'
p1204
(dp1205
S'VERB'
p1206
F0.999866
sS'NOUN'
p1207
F0.000133
s(lp1208
(g374
I52
tp1209
atp1210
a(S'stemmen'
p1211
(dp1212
S'VERB'
p1213
F0.691499
sS'NOUN'
p1214
F0.308501
s(lp1215
(g399
I53
tp1216
atp1217
a(g109
(dp1218
g111
F1.0
s(lp1219
tp1220
a(S'te'
p1221
(dp1222
S'PRT'
p1223
F1.0
s(lp1224
tp1225
a(S'verwerpen'
p1226
(dp1227
S'VERB'
p1228
F1.0
sS'NOUN'
p1229
F0.0
s(lp1230
(g270
I39
tp1231
atp1232
a(g111
(dp1233
g111
F1.0
s(lp1234
(g111
I60
tp1235
atp1236
asS'de'
p1237
(lp1238
(S'zus\xc3\xa4tzlich'
p1239
(dp1240
S'ADJ'
p1241
F1.0
s(lp1242
(g10
I1
tp1243
atp1244
a(S'zu'
p1245
(dp1246
S'PRT'
p1247
F0.004217
sS'ADP'
p1248
F0.99497
s(lp1249
(g466
I2
tp1250
atp1251
a(S'den'
p1252
(dp1253
S'PRON'
p1254
F0.000114
sS'DET'
p1255
F0.999884
s(lp1256
(g19
I3
tp1257
atp1258
a(S'derzeitigen'
p1259
(dp1260
S'ADJ'
p1261
F1.0
s(lp1262
(g480
I4
tp1263
atp1264
a(g109
(dp1265
g111
F1.0
s(lp1266
(g55
I6
tp1267
atp1268
a(S'durch'
p1269
(dp1270
S'ADV'
p1271
F0.000186
sS'ADP'
p1272
F0.99978
s(lp1273
(g90
I8
tp1274
atp1275
a(S'den'
p1276
(dp1277
S'PRON'
p1278
F0.000267
sS'DET'
p1279
F0.999731
s(lp1280
(g69
I9
tp1281
atp1282
a(S'rat'
p1283
(dp1284
S'X'
p1285
F0.13743
sS'ADJ'
p1286
F0.772911
s(lp1287
(g76
I10
tp1288
atp1289
a(S'und'
p1290
(dp1291
S'CONJ'
p1292
F1.0
s(lp1293
(g83
I11
tp1294
atp1295
a(S'die'
p1296
(dp1297
S'PRON'
p1298
F0.019631
sS'DET'
p1299
F0.967992
s(lp1300
(g99
I12
tp1301
atp1302
a(S'kommission'
p1303
(dp1304
S'NOUN'
p1305
F0.301894
sS'ADJ'
p1306
F0.646904
s(lp1307
(g106
I13
tp1308
atp1309
a(S'ergriffenen'
p1310
(dp1311
S'ADJ'
p1312
F1.0
s(lp1313
tp1314
a(S'ma\xc3\x9fnahmen'
p1315
(dp1316
S'VERB'
p1317
F1.0
s(lp1318
(g26
I5
tp1319
atp1320
a(S'gestattet'
p1321
(dp1322
S'VERB'
p1323
F0.635997
sS'ADJ'
p1324
F0.320415
s(lp1325
(g150
I19
tp1326
atp1327
a(S'uns'
p1328
(dp1329
S'PRON'
p1330
F1.0
s(lp1331
(g143
I20
tp1332
atp1333
a(S'die'
p1334
(dp1335
S'PRON'
p1336
F0.00081
sS'DET'
p1337
F0.998748
s(lp1338
(g121
I15
tp1339
atp1340
a(S'parlamentarische'
p1341
(dp1342
S'ADJ'
p1343
F1.0
s(lp1344
(g136
I16
tp1345
atp1346
a(S'lage'
p1347
(dp1348
S'VERB'
p1349
F0.000806
sS'NOUN'
p1350
F0.999156
s(lp1351
(g128
I17
tp1352
atp1353
a(S'heute'
p1354
(dp1355
S'ADV'
p1356
F0.999075
sS'VERB'
p1357
F0.000925
s(lp1358
(g561
I18
tp1359
atp1360
a(S'eine'
p1361
(dp1362
S'NUM'
p1363
F0.000728
sS'DET'
p1364
F0.998619
s(lp1365
(g157
I21
tp1366
atp1367
a(S'reaktion'
p1368
(dp1369
S'ADJ'
p1370
F0.000139
sS'NOUN'
p1371
F0.999658
s(lp1372
tp1373
a(S'auf'
p1374
(dp1375
S'PRT'
p1376
F0.0004
sS'ADP'
p1377
F0.999597
s(lp1378
(g164
I22
tp1379
atp1380
a(S'diese'
p1381
(dp1382
S'PRON'
p1383
F1.0
s(lp1384
(g178
I24
tp1385
atp1386
a(S'brutalen'
p1387
(dp1388
S'ADJ'
p1389
F1.0
s(lp1390
(g185
I25
tp1391
atp1392
a(S'handlungen'
p1393
(dp1394
S'ADJ'
p1395
F0.000163
sS'NOUN'
p1396
F0.999754
s(lp1397
(g608
I26
tp1398
atp1399
a(g109
(dp1400
g111
F1.0
s(lp1401
tp1402
a(S'und'
p1403
(dp1404
S'CONJ'
p1405
F1.0
s(lp1406
(g192
I27
tp1407
atp1408
a(S'zwar'
p1409
(dp1410
S'ADV'
p1411
F1.0
s(lp1412
tp1413
a(S'die'
p1414
(dp1415
S'PRON'
p1416
F0.000709
sS'DET'
p1417
F0.999282
s(lp1418
(g240
I35
tp1419
atp1420
a(S'aussendung'
p1421
(dp1422
S'ADJ'
p1423
F0.011094
sS'NOUN'
p1424
F0.973944
s(lp1425
tp1426
a(S'einer'
p1427
(dp1428
S'PRON'
p1429
F0.001584
sS'DET'
p1430
F0.998245
s(lp1431
(g217
I31
tp1432
atp1433
a(S'klaren'
p1434
(dp1435
S'VERB'
p1436
F3.7e-05
sS'ADJ'
p1437
F0.999953
s(lp1438
(g233
I32
tp1439
atp1440
a(S'botschaft'
p1441
(dp1442
S'ADJ'
p1443
F0.002129
sS'NOUN'
p1444
F0.995784
s(lp1445
(g224
I33
tp1446
atp1447
a(S'an'
p1448
(dp1449
S'ADP'
p1450
F0.996382
s(lp1451
(g201
I28
tp1452
atp1453
a(S'die'
p1454
(dp1455
S'PRON'
p1456
F5.9e-05
sS'DET'
p1457
F0.999887
s(lp1458
tp1459
a(S'regierung'
p1460
(dp1461
S'ADJ'
p1462
F0.000151
sS'NOUN'
p1463
F0.999738
s(lp1464
(g247
I37
tp1465
atp1466
a(S'von'
p1467
(dp1468
S'NOUN'
p1469
F0.004109
sS'ADP'
p1470
F0.995891
s(lp1471
(g263
I38
tp1472
atp1473
a(S'guinea'
p1474
(dp1475
S'ADJ'
p1476
F0.091601
sS'NOUN'
p1477
F0.903284
s(lp1478
(g255
I36
tp1479
atp1480
a(g109
(dp1481
g111
F1.0
s(lp1482
(g662
I34
tp1483
atp1484
a(S'indem'
p1485
(dp1486
S'CONJ'
p1487
F1.0
s(lp1488
tp1489
a(S'der'
p1490
(dp1491
S'PRON'
p1492
F0.000519
sS'DET'
p1493
F0.999432
s(lp1494
(g278
I40
tp1495
atp1496
a(S'bericht'
p1497
(dp1498
S'VERB'
p1499
F0.000318
sS'NOUN'
p1500
F0.999451
s(lp1501
(g285
I41
tp1502
atp1503
a(S'zum'
p1504
(dp1505
S'ADP'
p1506
F1.0
s(lp1507
(g292
I42
tp1508
atp1509
a(S'fischereipartnerschaftsabkommen'
p1510
(dp1511
S'ADJ'
p1512
F0.9690209999999999
s(lp1513
(g315
I44
tp1514
atp1515
a(S'mit'
p1516
(dp1517
S'PRT'
p1518
F6.9e-05
sS'ADP'
p1519
F0.999931
s(lp1520
(g342
I47
tp1521
atp1522
a(S'guinea'
p1523
(dp1524
S'ADJ'
p1525
F0.09192
sS'NOUN'
p1526
F0.902946
s(lp1527
(g356
I48
tp1528
atp1529
a(g109
(dp1530
g111
F1.0
s(lp1531
(g109
I49
tp1532
atp1533
a(S'\xc3\xbcber'
p1534
(dp1535
S'PRT'
p1536
F0.000112
sS'ADP'
p1537
F0.999888
s(lp1538
(g413
I54
tp1539
atp1540
a(S'den'
p1541
(dp1542
S'PRON'
p1543
F0.032813
sS'DET'
p1544
F0.950836
s(lp1545
(g367
I50
tp1546
atp1547
a(S'wir'
p1548
(dp1549
S'PRON'
p1550
F1.0
s(lp1551
(g391
I51
tp1552
atp1553
a(S'in'
p1554
(dp1555
S'ADP'
p1556
F1.0
s(lp1557
(g406
I55
tp1558
atp1559
a(S'der'
p1560
(dp1561
S'PRON'
p1562
F6.7e-05
sS'DET'
p1563
F0.999928
s(lp1564
(g422
I56
tp1565
atp1566
a(S'n\xc3\xa4chsten'
p1567
(dp1568
S'ADJ'
p1569
F1.0
s(lp1570
(g430
I57
tp1571
atp1572
a(S'plenarsitzung'
p1573
(dp1574
S'ADJ'
p1575
F2e-05
sS'NOUN'
p1576
F0.999967
s(lp1577
(g444
I58
tp1578
atp1579
a(S'abstimmen'
p1580
(dp1581
S'VERB'
p1582
F1.0
s(lp1583
(g399
I53
tp1584
atp1585
a(S'werden'
p1586
(dp1587
S'VERB'
p1588
F0.999091
s(lp1589
(g374
I52
tp1590
atp1591
a(g109
(dp1592
g111
F1.0
s(lp1593
tp1594
a(S'abgelehnt'
p1595
(dp1596
S'VERB'
p1597
F1.0
s(lp1598
(g270
I39
tp1599
atp1600
a(S'wird'
p1601
(dp1602
S'VERB'
p1603
F1.0
s(lp1604
tp1605
a(g111
(dp1606
g111
F1.0
s(lp1607
(g111
I60
tp1608
atp1609
asS'it'
p1610
(lp1611
(S'oltre'
p1612
(dp1613
S'ADV'
p1614
F0.836261
sS'CONJ'
p1615
F0.160842
sS'ADP'
p1616
F0.002897
s(lp1617
(g10
I1
tp1618
atp1619
a(S'alle'
p1620
(dp1621
S'ADP'
p1622
F1.0
s(lp1623
(g466
I2
tp1624
atp1625
a(S'attuali'
p1626
(dp1627
S'VERB'
p1628
F8e-06
sS'ADJ'
p1629
F0.999992
s(lp1630
(g480
I4
tp1631
atp1632
a(S'misure'
p1633
(dp1634
S'NOUN'
p1635
F1.0
s(lp1636
tp1637
a(S'adottate'
p1638
(dp1639
S'VERB'
p1640
F0.587715
sS'ADJ'
p1641
F0.412285
s(lp1642
(g26
I5
tp1643
atp1644
a(S'dal'
p1645
(dp1646
S'ADP'
p1647
F1.0
s(lp1648
(g90
I8
tp1649
atp1650
a(S'consiglio'
p1651
(dp1652
S'VERB'
p1653
F0.000138
sS'NOUN'
p1654
F0.999862
s(lp1655
(g76
I10
tp1656
atp1657
a(S'e'
p1658
(dp1659
S'CONJ'
p1660
F1.0
s(lp1661
(g83
I11
tp1662
atp1663
a(S'dalla'
p1664
(dp1665
S'NOUN'
p1666
F1e-05
sS'ADP'
p1667
F0.99999
s(lp1668
(g99
I12
tp1669
atp1670
a(S'commissione'
p1671
(dp1672
S'NOUN'
p1673
F1.0
s(lp1674
(g106
I13
tp1675
atp1676
a(g109
(dp1677
g111
F1.0
s(lp1678
(g109
I14
tp1679
atp1680
a(S"l'"
p1681
(dp1682
S'NOUN'
p1683
F0.003774
sS'VERB'
p1684
F0.984512
sS'ADJ'
p1685
F0.011715
s(lp1686
(g121
I15
tp1687
atp1688
a(S'odierna'
p1689
(dp1690
S'ADJ'
p1691
F1.0
s(lp1692
(g561
I18
tp1693
atp1694
a(S'situazione'
p1695
(dp1696
S'NOUN'
p1697
F1.0
s(lp1698
(g128
I17
tp1699
atp1700
a(S'parlamentare'
p1701
(dp1702
S'NOUN'
p1703
F0.089687
sS'VERB'
p1704
F0.002372
sS'ADJ'
p1705
F0.907941
s(lp1706
(g136
I16
tp1707
atp1708
a(S'ci'
p1709
(dp1710
S'ADV'
p1711
F0.006852
sS'PRON'
p1712
F0.9872719999999999
sS'NOUN'
p1713
F0.005876
s(lp1714
(g143
I20
tp1715
atp1716
a(S'consente'
p1717
(dp1718
S'VERB'
p1719
F1.0
s(lp1720
(g150
I19
tp1721
atp1722
a(S'di'
p1723
(dp1724
S'CONJ'
p1725
F2e-06
sS'ADP'
p1726
F0.999998
s(lp1727
(g157
I21
tp1728
atp1729
a(S'rispondere'
p1730
(dp1731
S'VERB'
p1732
F1.0
s(lp1733
(g164
I22
tp1734
atp1735
a(g217
(dp1736
S'CONJ'
p1737
F0.000332
sS'ADP'
p1738
F0.999668
s(lp1739
(g171
I23
tp1740
atp1741
a(S'questi'
p1742
(dp1743
S'PRON'
p1744
F1.0
s(lp1745
(g178
I24
tp1746
atp1747
a(S'atti'
p1748
(dp1749
S'ADJ'
p1750
F0.028186
sS'NOUN'
p1751
F0.971814
s(lp1752
(g608
I26
tp1753
atp1754
a(S'di'
p1755
(dp1756
S'CONJ'
p1757
F4e-06
sS'ADP'
p1758
F0.999996
s(lp1759
tp1760
a(S'violenza'
p1761
(dp1762
S'NOUN'
p1763
F1.0
s(lp1764
(g185
I25
tp1765
atp1766
a(g1658
(dp1767
S'CONJ'
p1768
F1.0
s(lp1769
(g192
I27
tp1770
atp1771
a(S'di'
p1772
(dp1773
S'CONJ'
p1774
F3e-06
sS'ADP'
p1775
F0.999997
s(lp1776
(g201
I28
tp1777
atp1778
a(S'mandare'
p1779
(dp1780
S'VERB'
p1781
F1.0
s(lp1782
(g208
I29
tp1783
atp1784
a(S'un'
p1785
(dp1786
S'PRON'
p1787
F0.001879
sS'DEF'
p1788
F0.998121
s(lp1789
(g217
I31
tp1790
atp1791
a(S'messaggio'
p1792
(dp1793
S'NOUN'
p1794
F1.0
s(lp1795
(g224
I33
tp1796
atp1797
a(S'forte'
p1798
(dp1799
S'ADV'
p1800
F0.020877
sS'NOUN'
p1801
F0.002164
sS'ADJ'
p1802
F0.976959
s(lp1803
(g233
I32
tp1804
atp1805
a(S'al'
p1806
(dp1807
S'ADP'
p1808
F1.0
s(lp1809
(g662
I34
tp1810
atp1811
a(S'governo'
p1812
(dp1813
S'VERB'
p1814
F0.000125
sS'NOUN'
p1815
F0.999875
s(lp1816
(g247
I37
tp1817
atp1818
a(S'guineano'
p1819
(dp1820
S'ADJ'
p1821
F1.0
s(lp1822
(g255
I36
tp1823
atp1824
a(S'respingendo'
p1825
(dp1826
S'VERB'
p1827
F1.0
s(lp1828
(g270
I39
tp1829
atp1830
a(S'la'
p1831
(dp1832
S'PRON'
p1833
F5e-06
sS'DET'
p1834
F0.999995
s(lp1835
(g278
I40
tp1836
atp1837
a(S'relazione'
p1838
(dp1839
S'NOUN'
p1840
F1.0
s(lp1841
(g285
I41
tp1842
atp1843
a(S"sull'"
p1844
(dp1845
S'ADJ'
p1846
F0.040682
sS'VERB'
p1847
F0.006560999999999999
sS'NOUN'
p1848
F0.952757
s(lp1849
(g292
I42
tp1850
atp1851
a(S'accordo'
p1852
(dp1853
S'VERB'
p1854
F0.006418
sS'NOUN'
p1855
F0.993582
s(lp1856
(g308
I46
tp1857
atp1858
a(S'di'
p1859
(dp1860
S'CONJ'
p1861
F4e-06
sS'ADP'
p1862
F0.999996
s(lp1863
tp1864
a(S'partenariato'
p1865
(dp1866
S'NOUN'
p1867
F1.0
s(lp1868
(g322
I45
tp1869
atp1870
a(S'nel'
p1871
(dp1872
S'ADP'
p1873
F1.0
s(lp1874
(g301
I43
tp1875
atp1876
a(S'settore'
p1877
(dp1878
S'ADJ'
p1879
F0.006292
sS'NOUN'
p1880
F0.993708
s(lp1881
(g315
I44
tp1882
atp1883
a(S'della'
p1884
(dp1885
S'DEF'
p1886
F0.001593
sS'ADP'
p1887
F0.998407
s(lp1888
tp1889
a(S'pesca'
p1890
(dp1891
S'VERB'
p1892
F0.0009289999999999999
sS'NOUN'
p1893
F0.999071
s(lp1894
(g315
I44
tp1895
atp1896
a(S'con'
p1897
(dp1898
S'ADP'
p1899
F1.0
s(lp1900
(g342
I47
tp1901
atp1902
a(S'la'
p1903
(dp1904
S'PRON'
p1905
F0.001199
sS'DET'
p1906
F0.998801
s(lp1907
tp1908
a(S'guinea'
p1909
(dp1910
S'ADJ'
p1911
F1.0
s(lp1912
(g356
I48
tp1913
atp1914
a(g109
(dp1915
g111
F1.0
s(lp1916
(g109
I49
tp1917
atp1918
a(S'al'
p1919
(dp1920
S'ADP'
p1921
F1.0
s(lp1922
(g391
I51
tp1923
atp1924
a(S'voto'
p1925
(dp1926
S'VERB'
p1927
F0.000221
sS'NOUN'
p1928
F0.999779
s(lp1929
(g399
I53
tp1930
atp1931
a(S'nel'
p1932
(dp1933
S'ADP'
p1934
F1.0
s(lp1935
tp1936
a(S'corso'
p1937
(dp1938
S'ADJ'
p1939
F0.003935
sS'VERB'
p1940
F0.004847
sS'NOUN'
p1941
F0.991217
s(lp1942
(g406
I55
tp1943
atp1944
a(S'della'
p1945
(dp1946
S'DEF'
p1947
F0.003526
sS'ADP'
p1948
F0.996474
s(lp1949
(g422
I56
tp1950
atp1951
a(S'prossima'
p1952
(dp1953
S'ADJ'
p1954
F1.0
s(lp1955
(g430
I57
tp1956
atp1957
a(S'seduta'
p1958
(dp1959
S'VERB'
p1960
F0.026468
sS'NOUN'
p1961
F0.973532
s(lp1962
tp1963
a(S'plenaria'
p1964
(dp1965
S'ADJ'
p1966
F1.0
s(lp1967
(g444
I58
tp1968
atp1969
a(g111
(dp1970
g111
F1.0
s(lp1971
(g111
I60
tp1972
atp1973
asS'sk'
p1974
(lp1975
(S'okrem'
p1976
(dp1977
S'ADP'
p1978
F1.0
s(lp1979
(g10
I1
tp1980
atp1981
a(S'aktu\xc3\xa1lnych'
p1982
(dp1983
S'ADJ'
p1984
F1.0
s(lp1985
(g480
I4
tp1986
atp1987
a(S'opatren\xc3\xad'
p1988
(dp1989
S'NOUN'
p1990
F1.0
s(lp1991
(g26
I5
tp1992
atp1993
a(g109
(dp1994
g111
F1.0
s(lp1995
tp1996
a(S'ktor\xc3\xa9'
p1997
(dp1998
S'PRON'
p1999
F1.0
s(lp2000
(g55
I6
tp2001
atp2002
a(S'iniciuj\xc3\xba'
p2003
(dp2004
S'VERB'
p2005
F1.0
s(lp2006
(g62
I7
tp2007
atp2008
a(S'rada'
p2009
(dp2010
S'NOUN'
p2011
F0.317343
sS'ADJ'
p2012
F0.682657
s(lp2013
(g76
I10
tp2014
atp2015
a(g217
(dp2016
g1285
F0.0018
sS'CONJ'
p2017
F0.996663
sS'NOUN'
p2018
F0.001185
sS'ADP'
p2019
F0.00034
sS'PRT'
p2020
F1.2e-05
s(lp2021
(g83
I11
tp2022
atp2023
a(S'komisia'
p2024
(dp2025
S'NOUN'
p2026
F1.0
s(lp2027
(g106
I13
tp2028
atp2029
a(g109
(dp2030
g111
F1.0
s(lp2031
(g109
I14
tp2032
atp2033
a(S'n\xc3\xa1m'
p2034
(dp2035
S'PRON'
p2036
F0.99442
sg1285
F0.00558
s(lp2037
(g143
I20
tp2038
atp2039
a(S's\xc3\xba\xc4\x8dasn\xc3\xa1'
p2040
(dp2041
S'ADJ'
p2042
F1.0
s(lp2043
(g561
I18
tp2044
atp2045
a(S'parlamentn\xc3\xa1'
p2046
(dp2047
S'ADJ'
p2048
F1.0
s(lp2049
(g136
I16
tp2050
atp2051
a(S'situ\xc3\xa1cia'
p2052
(dp2053
S'NOUN'
p2054
F1.0
s(lp2055
(g128
I17
tp2056
atp2057
a(S'umo\xc5\xbe\xc5\x88uje'
p2058
(dp2059
S'VERB'
p2060
F1.0
s(lp2061
(g150
I19
tp2062
atp2063
a(S'reagova\xc5\xa5'
p2064
(dp2065
S'VERB'
p2066
F1.0
s(lp2067
(g164
I22
tp2068
atp2069
a(S'na'
p2070
(dp2071
S'PRT'
p2072
F1.4e-05
sS'CONJ'
p2073
F1.8e-05
sS'ADP'
p2074
F0.999955
sg1285
F1.3e-05
s(lp2075
(g171
I23
tp2076
atp2077
a(S'tieto'
p2078
(dp2079
S'PRON'
p2080
F1.0
s(lp2081
(g178
I24
tp2082
atp2083
a(S'n\xc3\xa1siln\xc3\xa9'
p2084
(dp2085
S'ADJ'
p2086
F1.0
s(lp2087
(g185
I25
tp2088
atp2089
a(S'skutky'
p2090
(dp2091
S'NOUN'
p2092
F1.0
s(lp2093
(g608
I26
tp2094
atp2095
a(g217
(dp2096
g1285
F0.001101
sS'CONJ'
p2097
F0.998513
sS'NOUN'
p2098
F6.7e-05
sS'ADP'
p2099
F0.0
sS'PRT'
p2100
F0.000319
s(lp2101
(g192
I27
tp2102
atp2103
a(S'vysla\xc5\xa5'
p2104
(dp2105
S'VERB'
p2106
F1.0
s(lp2107
(g208
I29
tp2108
atp2109
a(S'siln\xc3\xbd'
p2110
(dp2111
S'ADJ'
p2112
F1.0
s(lp2113
(g233
I32
tp2114
atp2115
a(S'sign\xc3\xa1l'
p2116
(dp2117
S'NOUN'
p2118
F1.0
s(lp2119
(g224
I33
tp2120
atp2121
a(S'guinejskej'
p2122
(dp2123
S'ADJ'
p2124
F1.0
s(lp2125
(g255
I36
tp2126
atp2127
a(S'vl\xc3\xa1de'
p2128
(dp2129
S'NOUN'
p2130
F1.0
s(lp2131
(g247
I37
tp2132
atp2133
a(g109
(dp2134
g111
F1.0
s(lp2135
tp2136
a(g217
(dp2137
g1285
F0.00018999999999999998
sS'CONJ'
p2138
F0.999785
sS'NOUN'
p2139
F2e-06
sS'ADP'
p2140
F1.8e-05
sS'PRT'
p2141
F5e-06
s(lp2142
tp2143
a(S'to'
p2144
(dp2145
S'PRON'
p2146
F0.9922409999999999
sS'CONJ'
p2147
F0.005536
sg1285
F0.0022229999999999997
s(lp2148
(g263
I38
tp2149
atp2150
a(S'odmietnut\xc3\xadm'
p2151
(dp2152
S'NOUN'
p2153
F1.0
s(lp2154
(g270
I39
tp2155
atp2156
a(S'spr\xc3\xa1vy'
p2157
(dp2158
S'NOUN'
p2159
F1.0
s(lp2160
(g285
I41
tp2161
atp2162
a(S't\xc3\xbdkaj\xc3\xbacej'
p2163
(dp2164
S'VERB'
p2165
F1.0
s(lp2166
tp2167
a(S'sa'
p2168
(dp2169
S'PRT'
p2170
F0.995623
sS'ADP'
p2171
F0.003076
sg1285
F0.001302
s(lp2172
tp2173
a(S'dohody'
p2174
(dp2175
S'NOUN'
p2176
F1.0
s(lp2177
(g308
I46
tp2178
atp2179
a(S'o'
p2180
(dp2181
g1285
F0.00065
sS'CONJ'
p2182
F5.3e-05
sS'NOUN'
p2183
F1.3000000000000001e-05
sS'ADP'
p2184
F0.999285
s(lp2185
(g292
I42
tp2186
atp2187
a(S'partnerstve'
p2188
(dp2189
S'NOUN'
p2190
F1.0
s(lp2191
(g322
I45
tp2192
atp2193
a(S'v'
p2194
(dp2195
g1285
F0.000506
sS'ADP'
p2196
F0.999495
s(lp2197
(g301
I43
tp2198
atp2199
a(S'sektore'
p2200
(dp2201
S'NOUN'
p2202
F1.0
s(lp2203
tp2204
a(S'rybolovu'
p2205
(dp2206
S'NOUN'
p2207
F1.0
s(lp2208
(g315
I44
tp2209
atp2210
a(S's'
p2211
(dp2212
g1285
F0.0023699999999999997
sS'CONJ'
p2213
F6.8e-05
sS'NOUN'
p2214
F1.4999999999999999e-05
sS'ADP'
p2215
F0.997524
sS'PRT'
p2216
F2.3e-05
s(lp2217
(g342
I47
tp2218
atp2219
a(S'guineou'
p2220
(dp2221
S'ADJ'
p2222
F0.236673
sS'NOUN'
p2223
F0.763327
s(lp2224
(g356
I48
tp2225
atp2226
a(g109
(dp2227
g111
F1.0
s(lp2228
(g109
I49
tp2229
atp2230
a(g2180
(dp2231
g1285
F0.000236
sS'CONJ'
p2232
F0.002
sS'NOUN'
p2233
F8.000000000000001e-06
sS'ADP'
p2234
F0.997755
s(lp2235
(g413
I54
tp2236
atp2237
a(S'ktorej'
p2238
(dp2239
S'PRON'
p2240
F1.0
s(lp2241
(g367
I50
tp2242
atp2243
a(S'budeme'
p2244
(dp2245
S'VERB'
p2246
F1.0
s(lp2247
(g374
I52
tp2248
atp2249
a(S'hlasova\xc5\xa5'
p2250
(dp2251
S'VERB'
p2252
F1.0
s(lp2253
(g399
I53
tp2254
atp2255
a(S'po\xc4\x8das'
p2256
(dp2257
S'ADP'
p2258
F1.0
s(lp2259
(g406
I55
tp2260
atp2261
a(S'nasleduj\xc3\xbaceho'
p2262
(dp2263
S'VERB'
p2264
F1.0
s(lp2265
(g430
I57
tp2266
atp2267
a(S'plen\xc3\xa1rneho'
p2268
(dp2269
S'ADJ'
p2270
F1.0
s(lp2271
(g444
I58
tp2272
atp2273
a(S'zasadnutia'
p2274
(dp2275
S'NOUN'
p2276
F1.0
s(lp2277
(g437
I59
tp2278
atp2279
a(g111
(dp2280
g111
F1.0
s(lp2281
(g111
I60
tp2282
atp2283
asS'pl'
p2284
(lp2285
(S'opr\xc3\xb3cz'
p2286
(dp2287
S'ADP'
p2288
F1.0
s(lp2289
(g10
I1
tp2290
atp2291
a(S'bie\xc5\xbc\xc4\x85cych'
p2292
(dp2293
S'ADJ'
p2294
F1.000001
s(lp2295
(g480
I4
tp2296
atp2297
a(S'\xc5\x9brodk\xc3\xb3w'
p2298
(dp2299
S'NOUN'
p2300
F1.0
s(lp2301
(g26
I5
tp2302
atp2303
a(S'wdra\xc5\xbcanych'
p2304
(dp2305
S'NOUN'
p2306
F0.00114
sS'VERB'
p2307
F0.9950929999999999
sS'ADJ'
p2308
F0.003768
s(lp2309
(g62
I7
tp2310
atp2311
a(S'przez'
p2312
(dp2313
S'ADP'
p2314
F1.0
s(lp2315
(g90
I8
tp2316
atp2317
a(S'rad\xc4\x99'
p2318
(dp2319
S'NOUN'
p2320
F1.0
s(lp2321
(g76
I10
tp2322
atp2323
a(S'i'
p2324
(dp2325
S'PRT'
p2326
F0.000268
sS'CONJ'
p2327
F0.999692
sS'PRON'
p2328
F2e-06
sS'NOUN'
p2329
F3.5999999999999994e-05
sg1285
F1e-06
s(lp2330
(g83
I11
tp2331
atp2332
a(S'komisj\xc4\x99'
p2333
(dp2334
S'NOUN'
p2335
F1.0
s(lp2336
(g106
I13
tp2337
atp2338
a(g109
(dp2339
g1285
F0.0
sg111
F1.0
s(lp2340
(g109
I14
tp2341
atp2342
a(S'w'
p2343
(dp2344
S'NOUN'
p2345
F5e-06
sS'ADJ'
p2346
F6e-06
sS'ADP'
p2347
F0.999987
sg1285
F3e-06
s(lp2348
(g121
I15
tp2349
atp2350
a(S'dzisiejszej'
p2351
(dp2352
S'ADJ'
p2353
F1.0
s(lp2354
(g561
I18
tp2355
atp2356
a(S'sytuacji'
p2357
(dp2358
S'NOUN'
p2359
F1.0000010000000001
s(lp2360
(g128
I17
tp2361
atp2362
a(S'parlamentarnej'
p2363
(dp2364
S'ADJ'
p2365
F1.0
s(lp2366
(g136
I16
tp2367
atp2368
a(S'mo\xc5\xbcemy'
p2369
(dp2370
S'VERB'
p2371
F1.0
s(lp2372
(g150
I19
tp2373
atp2374
a(S'zareagowa\xc4\x87'
p2375
(dp2376
S'VERB'
p2377
F1.0
s(lp2378
(g164
I22
tp2379
atp2380
a(S'na'
p2381
(dp2382
S'PRT'
p2383
F7.8e-05
sS'VERB'
p2384
F1e-06
sS'NOUN'
p2385
F0.0
sS'ADP'
p2386
F0.999908
sg1285
F1.2e-05
s(lp2387
(g171
I23
tp2388
atp2389
a(S'wspomniane'
p2390
(dp2391
S'VERB'
p2392
F1.0
s(lp2393
(g178
I24
tp2394
atp2395
a(S'wy\xc5\xbcej'
p2396
(dp2397
S'ADV'
p2398
F1.0
s(lp2399
(g185
I25
tp2400
atp2401
a(S'akty'
p2402
(dp2403
S'NOUN'
p2404
F1.0
s(lp2405
tp2406
a(S'przemocy'
p2407
(dp2408
S'NOUN'
p2409
F1.0
s(lp2410
(g608
I26
tp2411
atp2412
a(S'oraz'
p2413
(dp2414
S'CONJ'
p2415
F1.0
s(lp2416
(g192
I27
tp2417
atp2418
a(S'wys\xc5\x82a\xc4\x87'
p2419
(dp2420
S'VERB'
p2421
F1.0
s(lp2422
(g208
I29
tp2423
atp2424
a(S'mocny'
p2425
(dp2426
S'ADJ'
p2427
F1.0
s(lp2428
(g233
I32
tp2429
atp2430
a(S'sygna\xc5\x82'
p2431
(dp2432
S'NOUN'
p2433
F1.0
s(lp2434
(g224
I33
tp2435
atp2436
a(S'rz\xc4\x85dowi'
p2437
(dp2438
S'ADJ'
p2439
F0.00147
sS'NOUN'
p2440
F0.99853
s(lp2441
(g247
I37
tp2442
atp2443
a(S'gwinejskiemu'
p2444
(dp2445
S'ADV'
p2446
F0.000648
sS'NOUN'
p2447
F0.05163200000000002
sS'VERB'
p2448
F0.075733
sS'ADJ'
p2449
F0.8719839999999999
s(lp2450
(g255
I36
tp2451
atp2452
a(S'odrzucaj\xc4\x85c'
p2453
(dp2454
S'VERB'
p2455
F1.0
s(lp2456
(g270
I39
tp2457
atp2458
a(S'sprawozdanie'
p2459
(dp2460
S'NOUN'
p2461
F1.0
s(lp2462
(g285
I41
tp2463
atp2464
a(S'na'
p2465
(dp2466
S'PRT'
p2467
F3e-06
sS'VERB'
p2468
F4.9999999999999996e-06
sS'NOUN'
p2469
F0.0
sS'ADP'
p2470
F0.999989
sg1285
F2e-06
s(lp2471
tp2472
a(S'temat'
p2473
(dp2474
S'NOUN'
p2475
F1.0
s(lp2476
(g292
I42
tp2477
atp2478
a(S'umowy'
p2479
(dp2480
S'NOUN'
p2481
F1.0
s(lp2482
(g308
I46
tp2483
atp2484
a(g2180
(dp2485
g1285
F2.8e-05
sS'VERB'
p2486
F0.0
sS'NOUN'
p2487
F0.0
sS'ADP'
p2488
F0.999972
sS'PRT'
p2489
F0.0
s(lp2490
tp2491
a(S'partnerstwie'
p2492
(dp2493
S'NOUN'
p2494
F1.0
s(lp2495
(g322
I45
tp2496
atp2497
a(g2343
(dp2498
S'ADJ'
p2499
F0.0
sg1285
F0.0
sS'NOUN'
p2500
F0.0
sS'ADP'
p2501
F0.9999990000000001
s(lp2502
(g301
I43
tp2503
atp2504
a(S'sprawie'
p2505
(dp2506
S'NOUN'
p2507
F1.0
s(lp2508
tp2509
a(S'po\xc5\x82ow\xc3\xb3w'
p2510
(dp2511
S'ADV'
p2512
F0.003193
sS'ADJ'
p2513
F0.00094
sS'VERB'
p2514
F0.013939
sS'NOUN'
p2515
F0.9819280000000001
s(lp2516
(g315
I44
tp2517
atp2518
a(S'z'
p2519
(dp2520
S'PRT'
p2521
F3e-06
sS'VERB'
p2522
F4e-06
sS'NOUN'
p2523
F0.0
sS'ADP'
p2524
F0.9999929999999999
sg1285
F0.0
s(lp2525
(g342
I47
tp2526
atp2527
a(S'gwine\xc4\x85'
p2528
(dp2529
S'ADV'
p2530
F1.6e-05
sS'ADJ'
p2531
F0.016844
sS'VERB'
p2532
F0.00047200000000000003
sS'NOUN'
p2533
F0.9826699999999999
s(lp2534
(g356
I48
tp2535
atp2536
a(g109
(dp2537
g1285
F0.0
sg111
F1.0
s(lp2538
(g109
I49
tp2539
atp2540
a(S'nad'
p2541
(dp2542
S'ADP'
p2543
F1.0
s(lp2544
(g413
I54
tp2545
atp2546
a(S'kt\xc3\xb3r\xc4\x85'
p2547
(dp2548
S'ADJ'
p2549
F1.0
s(lp2550
(g367
I50
tp2551
atp2552
a(S'b\xc4\x99dziemy'
p2553
(dp2554
S'VERB'
p2555
F1.0
s(lp2556
(g374
I52
tp2557
atp2558
a(S'g\xc5\x82osowa\xc4\x87'
p2559
(dp2560
S'VERB'
p2561
F1.0
s(lp2562
(g399
I53
tp2563
atp2564
a(S'podczas'
p2565
(dp2566
S'ADP'
p2567
F1.0
s(lp2568
(g406
I55
tp2569
atp2570
a(S'nast\xc4\x99pnej'
p2571
(dp2572
S'ADJ'
p2573
F1.0
s(lp2574
(g430
I57
tp2575
atp2576
a(S'sesji'
p2577
(dp2578
S'NOUN'
p2579
F1.0
s(lp2580
tp2581
a(S'plenarnej'
p2582
(dp2583
S'ADJ'
p2584
F1.0
s(lp2585
(g444
I58
tp2586
atp2587
a(g111
(dp2588
g111
F1.0
s(lp2589
(g111
I60
tp2590
atp2591
asS'sl'
p2592
(lp2593
(S'poleg'
p2594
(dp2595
S'ADV'
p2596
F0.010524
sS'ADP'
p2597
F0.989476
s(lp2598
(g10
I1
tp2599
atp2600
a(S'trenutnih'
p2601
(dp2602
S'ADJ'
p2603
F1.0
s(lp2604
(g480
I4
tp2605
atp2606
a(S'ukrepov'
p2607
(dp2608
S'NOUN'
p2609
F1.0
s(lp2610
(g26
I5
tp2611
atp2612
a(g109
(dp2613
g111
F1.0
s(lp2614
tp2615
a(S'ki'
p2616
(dp2617
S'CONJ'
p2618
F1.0
s(lp2619
(g55
I6
tp2620
atp2621
a(S'jih'
p2622
(dp2623
S'PRON'
p2624
F1.0
s(lp2625
(g90
I8
tp2626
atp2627
a(S'uvajata'
p2628
(dp2629
S'ADV'
p2630
F0.003901
sS'NOUN'
p2631
F0.052353999999999984
sS'VERB'
p2632
F0.7824909999999999
sS'ADJ'
p2633
F0.16125400000000006
s(lp2634
(g62
I7
tp2635
atp2636
a(S'svet'
p2637
(dp2638
S'NOUN'
p2639
F1.0
s(lp2640
(g76
I10
tp2641
atp2642
a(S'in'
p2643
(dp2644
S'ADV'
p2645
F2.7e-05
sg1285
F4.2e-05
sS'CONJ'
p2646
F0.999878
sS'NOUN'
p2647
F5.2e-05
s(lp2648
(g83
I11
tp2649
atp2650
a(S'komisija'
p2651
(dp2652
S'NOUN'
p2653
F1.0
s(lp2654
(g106
I13
tp2655
atp2656
a(g109
(dp2657
g111
F1.0
s(lp2658
(g109
I14
tp2659
atp2660
a(S'nam'
p2661
(dp2662
S'PRON'
p2663
F0.989024
sg1285
F0.010976
s(lp2664
(g143
I20
tp2665
atp2666
a(S'parlamentarne'
p2667
(dp2668
S'ADJ'
p2669
F1.0000010000000001
s(lp2670
(g136
I16
tp2671
atp2672
a(S'razmere'
p2673
(dp2674
S'NOUN'
p2675
F1.0
s(lp2676
(g128
I17
tp2677
atp2678
a(S'danes'
p2679
(dp2680
S'ADV'
p2681
F1.0
s(lp2682
(g561
I18
tp2683
atp2684
a(S'omogo\xc4\x8dajo'
p2685
(dp2686
S'VERB'
p2687
F1.0
s(lp2688
(g150
I19
tp2689
atp2690
a(g109
(dp2691
g111
F1.0
s(lp2692
tp2693
a(S'da'
p2694
(dp2695
S'PRT'
p2696
F5e-06
sS'CONJ'
p2697
F0.99997
sS'VERB'
p2698
F2.4e-05
sg1285
F1e-06
s(lp2699
(g157
I21
tp2700
atp2701
a(S'se'
p2702
(dp2703
S'PRON'
p2704
F0.999999
sg1285
F1e-06
s(lp2705
tp2706
a(S'odzovemo'
p2707
(dp2708
S'ADV'
p2709
F0.000339
sS'ADJ'
p2710
F0.00010299999999999998
sS'VERB'
p2711
F0.9976139999999998
sS'NOUN'
p2712
F0.0019439999999999998
s(lp2713
(g164
I22
tp2714
atp2715
a(S'na'
p2716
(dp2717
S'ADP'
p2718
F1.0
s(lp2719
(g171
I23
tp2720
atp2721
a(S'ta'
p2722
(dp2723
S'PRON'
p2724
F0.9999999999999999
s(lp2725
(g178
I24
tp2726
atp2727
a(S'nasilna'
p2728
(dp2729
S'NOUN'
p2730
F0.00019
sS'ADJ'
p2731
F0.99981
s(lp2732
(g185
I25
tp2733
atp2734
a(S'dejanja'
p2735
(dp2736
S'NOUN'
p2737
F1.0
s(lp2738
(g608
I26
tp2739
atp2740
a(S'in'
p2741
(dp2742
S'ADV'
p2743
F0.000376
sg1285
F3e-06
sS'CONJ'
p2744
F0.999618
sS'NOUN'
p2745
F3e-06
s(lp2746
(g192
I27
tp2747
atp2748
a(S'po\xc5\xa1ljemo'
p2749
(dp2750
S'ADV'
p2751
F0.001302
sS'ADJ'
p2752
F0.000598
sS'VERB'
p2753
F0.9939479999999998
sS'NOUN'
p2754
F0.004148
s(lp2755
(g208
I29
tp2756
atp2757
a(S'mo\xc4\x8dno'
p2758
(dp2759
S'ADV'
p2760
F0.111292
sS'ADJ'
p2761
F0.8887079999999999
s(lp2762
(g233
I32
tp2763
atp2764
a(S'sporo\xc4\x8dilo'
p2765
(dp2766
S'VERB'
p2767
F0.077682
sS'NOUN'
p2768
F0.922319
s(lp2769
(g224
I33
tp2770
atp2771
a(S'gvinejski'
p2772
(dp2773
S'ADV'
p2774
F4.3e-05
sS'NOUN'
p2775
F0.003362
sS'ADJ'
p2776
F0.9965919999999999
s(lp2777
(g255
I36
tp2778
atp2779
a(S'vladi'
p2780
(dp2781
S'NOUN'
p2782
F1.0
s(lp2783
(g247
I37
tp2784
atp2785
a(S'ter'
p2786
(dp2787
S'CONJ'
p2788
F1.0
s(lp2789
(g263
I38
tp2790
atp2791
a(S'zavrnemo'
p2792
(dp2793
S'VERB'
p2794
F1.0
s(lp2795
(g270
I39
tp2796
atp2797
a(S'poro\xc4\x8dilo'
p2798
(dp2799
S'NOUN'
p2800
F1.0
s(lp2801
(g285
I41
tp2802
atp2803
a(g2180
(dp2804
S'NOUN'
p2805
F5e-06
sS'ADP'
p2806
F0.999995
s(lp2807
(g292
I42
tp2808
atp2809
a(S'sporazumu'
p2810
(dp2811
S'NOUN'
p2812
F1.0
s(lp2813
(g308
I46
tp2814
atp2815
a(g2519
(dp2816
S'ADP'
p2817
F1.0
s(lp2818
(g342
I47
tp2819
atp2820
a(S'gvinejo'
p2821
(dp2822
S'ADV'
p2823
F0.000214
sS'ADJ'
p2824
F0.003692
sS'VERB'
p2825
F0.001944
sS'NOUN'
p2826
F0.9941469999999999
s(lp2827
(g356
I48
tp2828
atp2829
a(g2180
(dp2830
S'NOUN'
p2831
F4e-06
sS'ADP'
p2832
F0.999996
s(lp2833
(g322
I45
tp2834
atp2835
a(S'partnerstvu'
p2836
(dp2837
S'NOUN'
p2838
F1.0
s(lp2839
tp2840
a(g2194
(dp2841
S'ADP'
p2842
F1.0
s(lp2843
(g301
I43
tp2844
atp2845
a(S'ribi\xc5\xa1kem'
p2846
(dp2847
S'ADV'
p2848
F0.0
sS'NOUN'
p2849
F0.00016699999999999997
sS'VERB'
p2850
F0.0
sS'ADJ'
p2851
F0.999833
s(lp2852
(g315
I44
tp2853
atp2854
a(S'sektorju'
p2855
(dp2856
S'NOUN'
p2857
F1.0
s(lp2858
(g322
I45
tp2859
atp2860
a(g109
(dp2861
g111
F1.0
s(lp2862
(g109
I49
tp2863
atp2864
a(g2180
(dp2865
S'NOUN'
p2866
F2.5e-05
sS'ADP'
p2867
F0.999975
s(lp2868
(g413
I54
tp2869
atp2870
a(S'katerem'
p2871
(dp2872
S'PRON'
p2873
F1.0
s(lp2874
(g367
I50
tp2875
atp2876
a(S'bomo'
p2877
(dp2878
S'VERB'
p2879
F1.0
s(lp2880
(g374
I52
tp2881
atp2882
a(S'glasovali'
p2883
(dp2884
S'VERB'
p2885
F1.0
s(lp2886
(g399
I53
tp2887
atp2888
a(S'med'
p2889
(dp2890
S'NOUN'
p2891
F9e-06
sS'ADP'
p2892
F0.999992
s(lp2893
(g406
I55
tp2894
atp2895
a(S'naslednjim'
p2896
(dp2897
S'ADJ'
p2898
F1.0
s(lp2899
(g430
I57
tp2900
atp2901
a(S'plenarnim'
p2902
(dp2903
S'ADV'
p2904
F1e-06
sS'NOUN'
p2905
F0.006225000000000004
sS'VERB'
p2906
F0.0001929999999999999
sS'ADJ'
p2907
F0.9935780000000002
s(lp2908
(g444
I58
tp2909
atp2910
a(S'zasedanjem'
p2911
(dp2912
S'NOUN'
p2913
F1.0
s(lp2914
(g437
I59
tp2915
atp2916
a(g111
(dp2917
g111
F1.0
s(lp2918
(g111
I60
tp2919
atp2920
asS'es'
p2921
(lp2922
(S'adem\xc3\xa1s'
p2923
(dp2924
S'ADV'
p2925
F1.0
s(lp2926
(g10
I1
tp2927
atp2928
a(S'de'
p2929
(dp2930
g1285
F0.0
sS'CONJ'
p2931
F0.000119
sS'ADP'
p2932
F0.999881
s(lp2933
(g466
I2
tp2934
atp2935
a(S'las'
p2936
(dp2937
S'PRON'
p2938
F0.0
sS'DET'
p2939
F1.0
s(lp2940
(g19
I3
tp2941
atp2942
a(S'medidas'
p2943
(dp2944
S'VERB'
p2945
F0.001281
sS'NOUN'
p2946
F0.998719
s(lp2947
(g26
I5
tp2948
atp2949
a(S'que'
p2950
(dp2951
g1285
F1.4e-05
sS'CONJ'
p2952
F0.999986
s(lp2953
(g55
I6
tp2954
atp2955
a(S'han'
p2956
(dp2957
S'VERB'
p2958
F1.0
s(lp2959
tp2960
a(S'adoptado'
p2961
(dp2962
S'VERB'
p2963
F1.0
s(lp2964
(g62
I7
tp2965
atp2966
a(S'el'
p2967
(dp2968
S'PRON'
p2969
F0.0
sS'DET'
p2970
F1.0
s(lp2971
(g69
I9
tp2972
atp2973
a(S'consejo'
p2974
(dp2975
S'NOUN'
p2976
F1.0
s(lp2977
(g76
I10
tp2978
atp2979
a(S'y'
p2980
(dp2981
g1285
F0.000396
sS'CONJ'
p2982
F0.999604
s(lp2983
(g83
I11
tp2984
atp2985
a(S'la'
p2986
(dp2987
S'PRON'
p2988
F0.000591
sS'DET'
p2989
F0.999408
sS'NOUN'
p2990
F0.0
sg1285
F0.0
s(lp2991
(g99
I12
tp2992
atp2993
a(S'comisi\xc3\xb3n'
p2994
(dp2995
S'NOUN'
p2996
F1.0
s(lp2997
(g106
I13
tp2998
atp2999
a(g109
(dp3000
g111
F1.0
s(lp3001
(g109
I14
tp3002
atp3003
a(S'la'
p3004
(dp3005
S'PRON'
p3006
F3.5e-05
sS'DET'
p3007
F0.999959
sS'NOUN'
p3008
F0.0
sg1285
F5e-06
s(lp3009
(g121
I15
tp3010
atp3011
a(S'situaci\xc3\xb3n'
p3012
(dp3013
S'NOUN'
p3014
F1.0
s(lp3015
(g128
I17
tp3016
atp3017
a(S'parlamentaria'
p3018
(dp3019
S'NOUN'
p3020
F0.306135
sS'ADJ'
p3021
F0.693865
s(lp3022
(g136
I16
tp3023
atp3024
a(S'actual'
p3025
(dp3026
g1285
F0.00237
sS'ADJ'
p3027
F0.99763
s(lp3028
(g561
I18
tp3029
atp3030
a(S'nos'
p3031
(dp3032
S'PRON'
p3033
F1.0
s(lp3034
(g143
I20
tp3035
atp3036
a(S'permite'
p3037
(dp3038
S'VERB'
p3039
F1.0
s(lp3040
(g150
I19
tp3041
atp3042
a(S'responder'
p3043
(dp3044
S'VERB'
p3045
F1.0
s(lp3046
(g164
I22
tp3047
atp3048
a(g217
(dp3049
g1285
F2.6e-05
sS'CONJ'
p3050
F8e-06
sS'ADP'
p3051
F0.999966
s(lp3052
(g171
I23
tp3053
atp3054
a(S'estos'
p3055
(dp3056
S'PRON'
p3057
F1.0
s(lp3058
(g178
I24
tp3059
atp3060
a(S'actos'
p3061
(dp3062
S'NOUN'
p3063
F1.0
s(lp3064
(g608
I26
tp3065
atp3066
a(S'violentos'
p3067
(dp3068
S'ADJ'
p3069
F1.0
s(lp3070
(g185
I25
tp3071
atp3072
a(g2980
(dp3073
g1285
F1.3e-05
sS'CONJ'
p3074
F0.999987
s(lp3075
(g192
I27
tp3076
atp3077
a(S'enviar'
p3078
(dp3079
S'VERB'
p3080
F1.0
s(lp3081
(g208
I29
tp3082
atp3083
a(S'un'
p3084
(dp3085
g1285
F3.8e-05
sS'DET'
p3086
F0.999962
s(lp3087
(g217
I31
tp3088
atp3089
a(S'firme'
p3090
(dp3091
S'VERB'
p3092
F0.000573
sS'ADJ'
p3093
F0.999427
s(lp3094
(g233
I32
tp3095
atp3096
a(S'mensaje'
p3097
(dp3098
S'NOUN'
p3099
F1.0
s(lp3100
(g224
I33
tp3101
atp3102
a(S'al'
p3103
(dp3104
S'CONJ'
p3105
F0.000927
sS'ADP'
p3106
F0.9990730000000001
s(lp3107
(g240
I35
tp3108
atp3109
a(S'gobierno'
p3110
(dp3111
S'VERB'
p3112
F9.8e-05
sS'NOUN'
p3113
F0.999902
s(lp3114
(g247
I37
tp3115
atp3116
a(S'guineano'
p3117
(dp3118
S'ADJ'
p3119
F0.014342
sS'NOUN'
p3120
F0.985658
s(lp3121
(g255
I36
tp3122
atp3123
a(S'mediante'
p3124
(dp3125
S'ADP'
p3126
F1.0
s(lp3127
(g263
I38
tp3128
atp3129
a(S'el'
p3130
(dp3131
S'PRON'
p3132
F5e-06
sS'DET'
p3133
F0.999995
s(lp3134
tp3135
a(S'rechazo'
p3136
(dp3137
S'NOUN'
p3138
F1.0
s(lp3139
(g270
I39
tp3140
atp3141
a(S'del'
p3142
(dp3143
S'ADP'
p3144
F1.0
s(lp3145
(g278
I40
tp3146
atp3147
a(S'informe'
p3148
(dp3149
S'VERB'
p3150
F0.0
sS'NOUN'
p3151
F1.0
s(lp3152
(g285
I41
tp3153
atp3154
a(S'sobre'
p3155
(dp3156
S'NOUN'
p3157
F0.0
sS'ADP'
p3158
F1.0
s(lp3159
(g292
I42
tp3160
atp3161
a(S'el'
p3162
(dp3163
S'PRON'
p3164
F5.9e-05
sS'DET'
p3165
F0.999941
s(lp3166
tp3167
a(S'acuerdo'
p3168
(dp3169
S'VERB'
p3170
F0.000128
sS'NOUN'
p3171
F0.999872
s(lp3172
(g308
I46
tp3173
atp3174
a(S'de'
p3175
(dp3176
g1285
F2.9e-05
sS'CONJ'
p3177
F0.000449
sS'ADP'
p3178
F0.999522
s(lp3179
tp3180
a(S'colaboraci\xc3\xb3n'
p3181
(dp3182
S'NOUN'
p3183
F1.0
s(lp3184
(g322
I45
tp3185
atp3186
a(S'en'
p3187
(dp3188
g1285
F0.0
sS'CONJ'
p3189
F0.0
sS'ADP'
p3190
F1.0
s(lp3191
(g413
I54
tp3192
atp3193
a(S'el'
p3194
(dp3195
S'PRON'
p3196
F5e-06
sS'DET'
p3197
F0.999995
s(lp3198
(g301
I43
tp3199
atp3200
a(S'sector'
p3201
(dp3202
S'NOUN'
p3203
F1.0
s(lp3204
tp3205
a(S'pesquero'
p3206
(dp3207
S'NOUN'
p3208
F0.074008
sS'ADJ'
p3209
F0.925992
s(lp3210
(g315
I44
tp3211
atp3212
a(S'con'
p3213
(dp3214
S'ADP'
p3215
F1.0
s(lp3216
(g342
I47
tp3217
atp3218
a(S'guinea'
p3219
(dp3220
S'NOUN'
p3221
F1.0
s(lp3222
(g356
I48
tp3223
atp3224
a(g109
(dp3225
g111
F1.0
s(lp3226
(g109
I49
tp3227
atp3228
a(S'que'
p3229
(dp3230
g1285
F4e-06
sS'CONJ'
p3231
F0.999996
s(lp3232
(g367
I50
tp3233
atp3234
a(S'votaremos'
p3235
(dp3236
S'VERB'
p3237
F1.0
s(lp3238
(g399
I53
tp3239
atp3240
a(S'durante'
p3241
(dp3242
S'ADP'
p3243
F1.0
s(lp3244
(g406
I55
tp3245
atp3246
a(S'el'
p3247
(dp3248
S'PRON'
p3249
F0.000157
sS'DET'
p3250
F0.999843
s(lp3251
(g422
I56
tp3252
atp3253
a(S'siguiente'
p3254
(dp3255
S'ADJ'
p3256
F1.0
s(lp3257
(g430
I57
tp3258
atp3259
a(S'per\xc3\xadodo'
p3260
(dp3261
S'NOUN'
p3262
F1.0
s(lp3263
tp3264
a(S'parcial'
p3265
(dp3266
S'ADJ'
p3267
F1.0
s(lp3268
(g444
I58
tp3269
atp3270
a(S'de'
p3271
(dp3272
g1285
F3.1e-05
sS'CONJ'
p3273
F0.001485
sS'ADP'
p3274
F0.998485
s(lp3275
tp3276
a(S'sesiones'
p3277
(dp3278
S'NOUN'
p3279
F1.0
s(lp3280
(g437
I59
tp3281
atp3282
a(g111
(dp3283
g111
F1.0
s(lp3284
(g111
I60
tp3285
atp3286
as.