(dp0
S'fr'
p1
(lp2
(S'au'
p3
(dp4
S'ADP'
p5
F1.0
s(lp6
(S'on'
p7
I0
tp8
atp9
a(S'nom'
p10
(dp11
S'NOUN'
p12
F1.0
s(lp13
(S'behalf'
p14
I1
tp15
atp16
a(S'du'
p17
(dp18
S'ADP'
p19
F1.0
s(lp20
(S'of'
p21
I2
tp22
atp23
a(S'groupe'
p24
(dp25
S'VERB'
p26
F1e-06
sS'NOUN'
p27
F0.999999
s(lp28
(S'group'
p29
I5
tp30
atp31
a(S'ppe-de'
p32
(dp33
S'VERB'
p34
F0.035010999999999994
sS'NOUN'
p35
F0.9649890000000001
s(lp36
(S'ppe-de'
p37
I4
tp38
atp39
a(S'.'
p40
(dp41
g40
F1.0
s(lp42
(g40
I6
tp43
atp44
a(S'-'
p45
(dp46
g40
F1.0
s(lp47
(g45
I7
tp48
atp49
a(S'('
p50
(dp51
g40
F1.0
s(lp52
(g50
I8
tp53
atp54
a(S'de'
p55
(dp56
S'ADP'
p57
F1.0
s(lp58
(S'de'
p59
I9
tp60
atp61
a(S')'
p62
(dp63
g40
F1.0
s(lp64
(g62
I10
tp65
atp66
a(S'monsieur'
p67
(dp68
S'NOUN'
p69
F1.0
s(lp70
(S'mr'
p71
I11
tp72
atp73
a(S'le'
p74
(dp75
S'PRON'
p76
F0.000321
sS'DET'
p77
F0.999679
s(lp78
tp79
a(S'pr\xc3\xa9sident'
p80
(dp81
S'VERB'
p82
F4.5e-05
sS'NOUN'
p83
F0.999955
s(lp84
(S'president'
p85
I12
tp86
atp87
a(S','
p88
(dp89
g40
F1.0
s(lp90
(g88
I13
tp91
atp92
a(S"l'"
p93
(dp94
S'ADJ'
p95
F0.13429
sS'VERB'
p96
F0.638201
sS'NOUN'
p97
F0.227509
s(lp98
tp99
a(S'argumentation'
p100
(dp101
S'NOUN'
p102
F1.0
s(lp103
(S'argument'
p104
I19
tp105
atp106
a(S'de'
p107
(dp108
S'ADP'
p109
F1.0
s(lp110
(S"'s"
p111
I18
tp112
atp113
a(S'm.'
p114
(dp115
S'X'
p116
F0.298993
sS'VERB'
p117
F0.19383300000000006
sS'ADJ'
p118
F0.261261
sS'NOUN'
p119
F0.245914
s(lp120
(S'mr'
p121
I16
tp122
atp123
a(S'swoboda'
p124
(dp125
S'VERB'
p126
F0.29624300000000003
sS'NOUN'
p127
F0.703756
s(lp128
(S'swoboda'
p129
I17
tp130
atp131
a(S'\xc3\xa9tait'
p132
(dp133
S'VERB'
p134
F1.0
s(lp135
tp136
a(S'br\xc3\xa8ve'
p137
(dp138
S'NOUN'
p139
F1.0
s(lp140
(S'brief'
p141
I22
tp142
atp143
a(g45
(dp144
g40
F1.0
s(lp145
tp146
a(S"c'"
p147
(dp148
S'ADJ'
p149
F0.13429
sS'VERB'
p150
F0.638201
sS'NOUN'
p151
F0.227509
s(lp152
(S'it'
p153
I25
tp154
atp155
a(S'est'
p156
(dp157
S'VERB'
p158
F0.999325
sS'NOUN'
p159
F0.000675
s(lp160
(S'admittedly'
p161
I21
tp162
atp163
a(S'le'
p164
(dp165
S'PRON'
p166
F0.139493
sS'DET'
p167
F0.860507
s(lp168
(g153
I25
tp169
atp170
a(S'moins'
p171
(dp172
S'ADV'
p173
F1.0
s(lp174
(S'concise'
p175
I27
tp176
atp177
a(S"qu'"
p178
(dp179
S'NOUN'
p180
F0.024273
sS'VERB'
p181
F0.527803
sS'ADJ'
p182
F0.447925
s(lp183
(g153
I25
tp184
atp185
a(S'on'
p186
(dp187
S'PRON'
p188
F1.0
s(lp189
tp190
a(S'puisse'
p191
(dp192
S'VERB'
p193
F1.0
s(lp194
(g175
I27
tp195
atp196
a(S'dire'
p197
(dp198
S'VERB'
p199
F0.99137
sS'NOUN'
p200
F0.00863
s(lp201
tp202
a(g45
(dp203
g40
F1.0
s(lp204
(g45
I7
tp205
atp206
a(g88
(dp207
g40
F1.0
s(lp208
(g88
I23
tp209
atp210
a(S'mais'
p211
(dp212
S'CONJ'
p213
F1.0
s(lp214
(S'but'
p215
I24
tp216
atp217
a(S'elle'
p218
(dp219
S'PRON'
p220
F1.0
s(lp221
(g153
I25
tp222
atp223
a(S'\xc3\xa9tait'
p224
(dp225
S'VERB'
p226
F1.0
s(lp227
(S'was'
p228
I20
tp229
atp230
a(S'pr\xc3\xa9cise'
p231
(dp232
S'VERB'
p233
F0.00229
sS'ADJ'
p234
F0.997709
s(lp235
(g175
I27
tp236
atp237
a(g40
(dp238
g40
F1.0
s(lp239
(g40
I28
tp240
atp241
asS'en'
p242
(lp243
(g7
(dp244
S'ADV'
p245
F0.002027
sS'NOUN'
p246
F3e-06
sS'ADJ'
p247
F4e-05
sS'ADP'
p248
F0.99793
sS'PRT'
p249
F0.0
s(lp250
(g7
I0
tp251
atp252
a(g14
(dp253
S'NOUN'
p254
F1.0
s(lp255
(g14
I1
tp256
atp257
a(g21
(dp258
S'ADP'
p259
F1.0
s(lp260
(g21
I2
tp261
atp262
a(S'the'
p263
(dp264
S'NOUN'
p265
F1e-06
sS'DET'
p266
F0.999999
s(lp267
(g263
I3
tp268
atp269
a(g37
(dp270
S'ADV'
p271
F0.000236
sS'ADJ'
p272
F0.428045
sS'VERB'
p273
F0.005653
sS'NOUN'
p274
F0.566066
s(lp275
(g37
I4
tp276
atp277
a(g29
(dp278
S'VERB'
p279
F6.7e-05
sS'NOUN'
p280
F0.999934
s(lp281
(g29
I5
tp282
atp283
a(g40
(dp284
g40
F1.0
s(lp285
(g40
I6
tp286
atp287
a(g45
(dp288
g40
F1.0
s(lp289
(g45
I7
tp290
atp291
a(g50
(dp292
g40
F1.0
s(lp293
(g50
I8
tp294
atp295
a(g59
(dp296
g116
F0.959
sS'NOUN'
p297
F0.041
s(lp298
(g59
I9
tp299
atp300
a(g62
(dp301
g40
F1.0
s(lp302
(g62
I10
tp303
atp304
a(g71
(dp305
S'ADJ'
p306
F0.004952
sS'NOUN'
p307
F0.995048
s(lp308
(g71
I11
tp309
atp310
a(g85
(dp311
S'NOUN'
p312
F1.0
s(lp313
(g85
I12
tp314
atp315
a(g88
(dp316
g40
F1.0
s(lp317
(g88
I13
tp318
atp319
a(S'i'
p320
(dp321
g116
F0.038155
sS'NOUN'
p322
F0.9618450000000001
s(lp323
(g320
I14
tp324
atp325
a(S'believe'
p326
(dp327
S'VERB'
p328
F1.0
s(lp329
(g326
I15
tp330
atp331
a(g121
(dp332
S'ADJ'
p333
F0.006685
sS'NOUN'
p334
F0.993315
s(lp335
(g121
I16
tp336
atp337
a(g129
(dp338
S'ADV'
p339
F1e-06
sS'ADJ'
p340
F1e-06
sS'VERB'
p341
F1.1000000000000001e-05
sS'NOUN'
p342
F0.999986
s(lp343
(g129
I17
tp344
atp345
a(g111
(dp346
S'PRT'
p347
F0.995637
sg40
F0.004363
s(lp348
(g111
I18
tp349
atp350
a(g104
(dp351
S'NOUN'
p352
F1.0
s(lp353
(g104
I19
tp354
atp355
a(g228
(dp356
S'VERB'
p357
F1.0
s(lp358
(g228
I20
tp359
atp360
a(g161
(dp361
S'ADV'
p362
F1.0
s(lp363
(g161
I21
tp364
atp365
a(g141
(dp366
S'NOUN'
p367
F0.242156
sS'VERB'
p368
F0.023874
sS'ADJ'
p369
F0.73397
s(lp370
(g141
I22
tp371
atp372
a(g88
(dp373
g40
F1.0
s(lp374
(g88
I23
tp375
atp376
a(g215
(dp377
S'ADV'
p378
F0.017059
sS'CONJ'
p379
F0.98294
sS'NOUN'
p380
F1e-06
s(lp381
(g215
I24
tp382
atp383
a(g153
(dp384
S'PRON'
p385
F1.0
s(lp386
(g153
I25
tp387
atp388
a(S'was'
p389
(dp390
S'VERB'
p391
F1.0
s(lp392
(g389
I26
tp393
atp394
a(g175
(dp395
S'ADJ'
p396
F1.0
s(lp397
(g175
I27
tp398
atp399
a(g40
(dp400
g40
F1.0
s(lp401
(g40
I28
tp402
atp403
asS'nl'
p404
(lp405
(S'namens'
p406
(dp407
S'ADP'
p408
F1.0
s(lp409
(g14
I1
tp410
atp411
a(S'de'
p412
(dp413
S'DET'
p414
F1.0
s(lp415
(g263
I3
tp416
atp417
a(S'ppe-de-fractie'
p418
(dp419
S'NOUN'
p420
F1.0
s(lp421
(g37
I4
tp422
atp423
a(g40
(dp424
g40
F1.0
s(lp425
(g40
I6
tp426
atp427
a(g45
(dp428
g40
F1.0
s(lp429
(g45
I7
tp430
atp431
a(g50
(dp432
g40
F1.0
s(lp433
(g50
I8
tp434
atp435
a(S'de'
p436
(dp437
S'DET'
p438
F1.0
s(lp439
(g59
I9
tp440
atp441
a(g62
(dp442
g40
F1.0
s(lp443
(g62
I10
tp444
atp445
a(S'mijnheer'
p446
(dp447
S'NOUN'
p448
F1.0
s(lp449
(g71
I11
tp450
atp451
a(S'de'
p452
(dp453
S'DET'
p454
F1.0
s(lp455
tp456
a(S'voorzitter'
p457
(dp458
S'NOUN'
p459
F1.0
s(lp460
(g85
I12
tp461
atp462
a(g88
(dp463
g40
F1.0
s(lp464
(g88
I13
tp465
atp466
a(S'het'
p467
(dp468
S'PRON'
p469
F0.010584
sS'DET'
p470
F0.989416
s(lp471
tp472
a(S'betoog'
p473
(dp474
S'VERB'
p475
F0.002886
sS'NOUN'
p476
F0.997114
s(lp477
(g104
I19
tp478
atp479
a(S'van'
p480
(dp481
S'ADP'
p482
F1.0
s(lp483
(g111
I18
tp484
atp485
a(S'de'
p486
(dp487
S'DET'
p488
F1.0
s(lp489
tp490
a(S'heer'
p491
(dp492
S'NOUN'
p493
F1.0
s(lp494
(g121
I16
tp495
atp496
a(S'swoboda'
p497
(dp498
S'NOUN'
p499
F1.0
s(lp500
(g129
I17
tp501
atp502
a(S'was'
p503
(dp504
S'VERB'
p505
F0.999992
sS'NOUN'
p506
F8e-06
s(lp507
(g228
I20
tp508
atp509
a(S'weliswaar'
p510
(dp511
S'ADV'
p512
F1.0
s(lp513
(g161
I21
tp514
atp515
a(S'kort'
p516
(dp517
S'VERB'
p518
F0.048154
sS'ADJ'
p519
F0.951846
s(lp520
(g141
I22
tp521
atp522
a(g88
(dp523
g40
F1.0
s(lp524
(g88
I23
tp525
atp526
a(S'maar'
p527
(dp528
S'ADV'
p529
F0.261992
sS'CONJ'
p530
F0.737999
sS'NOUN'
p531
F9e-06
s(lp532
(g215
I24
tp533
atp534
a(S'krachtig'
p535
(dp536
S'ADJ'
p537
F1.0
s(lp538
(g175
I27
tp539
atp540
a(g40
(dp541
g40
F1.0
s(lp542
(g40
I28
tp543
atp544
asS'de'
p545
(lp546
(S'im'
p547
(dp548
S'ADP'
p549
F1.0
s(lp550
(g7
I0
tp551
atp552
a(S'namen'
p553
(dp554
S'ADJ'
p555
F0.000231
sS'NOUN'
p556
F0.999726
s(lp557
(g14
I1
tp558
atp559
a(S'der'
p560
(dp561
S'PRON'
p562
F1.9e-05
sS'DET'
p563
F0.999972
s(lp564
(g263
I3
tp565
atp566
a(S'ppe-de-fraktion'
p567
(dp568
S'NOUN'
p569
F1.0
s(lp570
(g37
I4
tp571
atp572
a(g40
(dp573
g40
F1.0
s(lp574
(g40
I6
tp575
atp576
a(g45
(dp577
g40
F1.0
s(lp578
(g45
I7
tp579
atp580
a(S'herr'
p581
(dp582
S'ADJ'
p583
F0.19898
sS'NOUN'
p584
F0.770496
s(lp585
(g71
I11
tp586
atp587
a(S'pr\xc3\xa4sident'
p588
(dp589
S'VERB'
p590
F0.05857
sS'NOUN'
p591
F0.928761
s(lp592
tp593
a(S'!'
p594
(dp595
g40
F1.0
s(lp596
(g85
I12
tp597
atp598
a(S'ich'
p599
(dp600
S'PRON'
p601
F1.0
s(lp602
(g320
I14
tp603
atp604
a(S'glaube'
p605
(dp606
S'VERB'
p607
F1.0
s(lp608
(g326
I15
tp609
atp610
a(g88
(dp611
g40
F1.0
s(lp612
(g88
I13
tp613
atp614
a(S'die'
p615
(dp616
S'PRON'
p617
F0.117862
sS'DET'
p618
F0.881016
s(lp619
tp620
a(S'argumentation'
p621
(dp622
S'ADJ'
p623
F0.001407
sS'NOUN'
p624
F0.99832
s(lp625
(g104
I19
tp626
atp627
a(S'von'
p628
(dp629
S'NOUN'
p630
F0.000565
sS'ADP'
p631
F0.999435
s(lp632
(g111
I18
tp633
atp634
a(S'herrn'
p635
(dp636
S'ADJ'
p637
F0.004848
sS'NOUN'
p638
F0.995067
s(lp639
(g121
I16
tp640
atp641
a(S'swoboda'
p642
(dp643
S'ADJ'
p644
F0.005608
sS'NOUN'
p645
F0.993621
s(lp646
(g129
I17
tp647
atp648
a(S'war'
p649
(dp650
S'VERB'
p651
F1.0
s(lp652
(g228
I20
tp653
atp654
a(S'zwar'
p655
(dp656
S'ADV'
p657
F1.0
s(lp658
(g161
I21
tp659
atp660
a(S'kurz'
p661
(dp662
S'PRT'
p663
F0.007337
sS'ADJ'
p664
F0.992663
s(lp665
(g141
I22
tp666
atp667
a(g88
(dp668
g40
F1.0
s(lp669
(g88
I23
tp670
atp671
a(S'aber'
p672
(dp673
S'ADV'
p674
F0.03871
sS'CONJ'
p675
F0.96129
s(lp676
(g215
I24
tp677
atp678
a(S'sie'
p679
(dp680
S'PRON'
p681
F1.0
s(lp682
(g153
I25
tp683
atp684
a(S'war'
p685
(dp686
S'VERB'
p687
F1.0
s(lp688
(g389
I26
tp689
atp690
a(S'pr\xc3\xa4zise'
p691
(dp692
S'ADJ'
p693
F1.0
s(lp694
(g175
I27
tp695
atp696
a(g40
(dp697
g40
F1.0
s(lp698
(g40
I28
tp699
atp700
asS'it'
p701
(lp702
(S'a'
p703
(dp704
S'CONJ'
p705
F0.00036
sS'ADP'
p706
F0.99964
s(lp707
tp708
a(S'nome'
p709
(dp710
S'NOUN'
p711
F1.0
s(lp712
(g14
I1
tp713
atp714
a(S'del'
p715
(dp716
S'DEF'
p717
F0.001248
sS'ADP'
p718
F0.998752
s(lp719
(g21
I2
tp720
atp721
a(S'gruppo'
p722
(dp723
S'NOUN'
p724
F1.0
s(lp725
(g29
I5
tp726
atp727
a(S'ppe-de'
p728
(dp729
S'ADJ'
p730
F0.042891
sS'VERB'
p731
F0.006874000000000001
sS'NOUN'
p732
F0.950234
s(lp733
(g37
I4
tp734
atp735
a(g40
(dp736
g40
F1.0
s(lp737
(g40
I6
tp738
atp739
a(g45
(dp740
g116
F1.8e-05
sg40
F0.999982
s(lp741
(g45
I7
tp742
atp743
a(g50
(dp744
g40
F1.0
s(lp745
(g50
I8
tp746
atp747
a(S'de'
p748
(dp749
S'NOUN'
p750
F1.0
s(lp751
(g59
I9
tp752
atp753
a(g62
(dp754
g40
F1.0
s(lp755
(g62
I10
tp756
atp757
a(S'signor'
p758
(dp759
S'NOUN'
p760
F1.0
s(lp761
(g71
I11
tp762
atp763
a(S'presidente'
p764
(dp765
S'NOUN'
p766
F1.0
s(lp767
(g85
I12
tp768
atp769
a(g88
(dp770
g40
F1.0
s(lp771
(g88
I13
tp772
atp773
a(S'credo'
p774
(dp775
S'VERB'
p776
F0.921444
sS'NOUN'
p777
F0.078556
s(lp778
(g326
I15
tp779
atp780
a(S'che'
p781
(dp782
S'PRON'
p783
F0.977251
sS'CONJ'
p784
F0.021995
sS'ADJ'
p785
F0.000754
s(lp786
tp787
a(S'la'
p788
(dp789
S'PRON'
p790
F0.001016
sS'DET'
p791
F0.998984
s(lp792
tp793
a(S'motivazione'
p794
(dp795
S'NOUN'
p796
F1.0
s(lp797
(g104
I19
tp798
atp799
a(S"dell'"
p800
(dp801
S'ADJ'
p802
F0.040682
sS'VERB'
p803
F0.006560999999999999
sS'NOUN'
p804
F0.952757
s(lp805
(g111
I18
tp806
atp807
a(S'onorevole'
p808
(dp809
S'NOUN'
p810
F0.378099
sS'ADJ'
p811
F0.621901
s(lp812
(g121
I16
tp813
atp814
a(S'swoboda'
p815
(dp816
S'NOUN'
p817
F0.416805
sS'VERB'
p818
F0.14744100000000002
sS'ADJ'
p819
F0.435753
s(lp820
(g129
I17
tp821
atp822
a(S'sia'
p823
(dp824
S'CONJ'
p825
F0.159419
sS'VERB'
p826
F0.840581
s(lp827
tp828
a(S'stata'
p829
(dp830
S'VERB'
p831
F1.0
s(lp832
(g228
I20
tp833
atp834
a(S'indubbiamente'
p835
(dp836
S'ADV'
p837
F1.0
s(lp838
(g161
I21
tp839
atp840
a(S'breve'
p841
(dp842
S'NOUN'
p843
F0.021836
sS'ADJ'
p844
F0.978164
s(lp845
(g141
I22
tp846
atp847
a(S'ma'
p848
(dp849
S'CONJ'
p850
F0.996944
sS'NOUN'
p851
F0.003056
s(lp852
(g215
I24
tp853
atp854
a(S'concisa'
p855
(dp856
S'ADJ'
p857
F1.0
s(lp858
(g175
I27
tp859
atp860
a(g40
(dp861
g40
F1.0
s(lp862
(g40
I28
tp863
atp864
asS'sk'
p865
(lp866
(S'v'
p867
(dp868
g116
F0.000596
sS'ADP'
p869
F0.999404
s(lp870
tp871
a(S'mene'
p872
(dp873
S'NOUN'
p874
F1.0
s(lp875
(g14
I1
tp876
atp877
a(S'skupiny'
p878
(dp879
S'NOUN'
p880
F1.0
s(lp881
(g29
I5
tp882
atp883
a(S'ppe-de'
p884
(dp885
S'ADV'
p886
F0.000837
sS'VERB'
p887
F0.009681999999999998
sS'NOUN'
p888
F0.9894809999999999
s(lp889
(g37
I4
tp890
atp891
a(g40
(dp892
g40
F1.0
s(lp893
(g40
I6
tp894
atp895
a(g45
(dp896
g40
F1.0
s(lp897
(g45
I7
tp898
atp899
a(g50
(dp900
g40
F1.0
s(lp901
(g50
I8
tp902
atp903
a(S'de'
p904
(dp905
g116
F1.0
s(lp906
(g59
I9
tp907
atp908
a(g62
(dp909
g40
F1.0
s(lp910
(g62
I10
tp911
atp912
a(S'v\xc3\xa1\xc5\xbeen\xc3\xbd'
p913
(dp914
S'VERB'
p915
F0.273237
sS'ADJ'
p916
F0.726763
s(lp917
tp918
a(S'p\xc3\xa1n'
p919
(dp920
S'NOUN'
p921
F1.0
s(lp922
(g71
I11
tp923
atp924
a(S'predseda'
p925
(dp926
S'NOUN'
p927
F1.0
s(lp928
(g85
I12
tp929
atp930
a(g88
(dp931
g40
F1.0
s(lp932
(g88
I13
tp933
atp934
a(S'pod\xc4\xbea'
p935
(dp936
S'ADP'
p937
F1.0
s(lp938
(g326
I15
tp939
atp940
a(S'm\xc3\xb4jho'
p941
(dp942
S'PRON'
p943
F1.0
s(lp944
tp945
a(S'n\xc3\xa1zoru'
p946
(dp947
S'NOUN'
p948
F1.0
s(lp949
(g326
I15
tp950
atp951
a(S'bol'
p952
(dp953
S'VERB'
p954
F1.0
s(lp955
(g228
I20
tp956
atp957
a(S'argument'
p958
(dp959
S'NOUN'
p960
F1.0
s(lp961
(g104
I19
tp962
atp963
a(S'p\xc3\xa1na'
p964
(dp965
g116
F0.000241
sS'NOUN'
p966
F0.99976
s(lp967
(g121
I16
tp968
atp969
a(S'swobodu'
p970
(dp971
S'ADJ'
p972
F0.0018520000000000001
sS'NOUN'
p973
F0.997929
sg116
F0.000218
s(lp974
(g129
I17
tp975
atp976
a(S'nepochybne'
p977
(dp978
S'ADV'
p979
F0.284914
sg116
F0.715086
s(lp980
(g161
I21
tp981
atp982
a(S'kr\xc3\xa1tky'
p983
(dp984
S'ADJ'
p985
F1.0
s(lp986
(g141
I22
tp987
atp988
a(g88
(dp989
g40
F1.0
s(lp990
(g88
I23
tp991
atp992
a(S'bol'
p993
(dp994
S'VERB'
p995
F1.0
s(lp996
(g389
I26
tp997
atp998
a(S'v\xc5\xa1ak'
p999
(dp1000
g116
F0.826676
sS'CONJ'
p1001
F0.173324
s(lp1002
(g215
I24
tp1003
atp1004
a(S'zhusten\xc3\xbd'
p1005
(dp1006
S'VERB'
p1007
F1.0
s(lp1008
(g175
I27
tp1009
atp1010
a(g40
(dp1011
g40
F1.0
s(lp1012
(g40
I28
tp1013
atp1014
asS'pl'
p1015
(lp1016
(S'w'
p1017
(dp1018
S'ADJ'
p1019
F0.0
sg116
F0.0
sS'NOUN'
p1020
F0.0
sS'ADP'
p1021
F1.0
s(lp1022
(g7
I0
tp1023
atp1024
a(S'imieniu'
p1025
(dp1026
S'NOUN'
p1027
F1.0
s(lp1028
(g14
I1
tp1029
atp1030
a(S'grupy'
p1031
(dp1032
S'NOUN'
p1033
F1.0
s(lp1034
(g29
I5
tp1035
atp1036
a(S'ppe-de'
p1037
(dp1038
S'ADV'
p1039
F0.00198
sS'NOUN'
p1040
F0.619741
sS'ADP'
p1041
F0.000379
sS'PRT'
p1042
F0.00098
sS'VERB'
p1043
F0.192506
sg116
F0.033186
sS'ADJ'
p1044
F0.15122600000000005
s(lp1045
(g37
I4
tp1046
atp1047
a(g40
(dp1048
g40
F1.0
s(lp1049
(g40
I6
tp1050
atp1051
a(g45
(dp1052
g116
F0.001074
sS'NUM'
p1053
F0.0
sS'NOUN'
p1054
F0.001804
sg40
F0.997122
s(lp1055
(g45
I7
tp1056
atp1057
a(g50
(dp1058
S'NOUN'
p1059
F0.001022
sg40
F0.998978
s(lp1060
(g50
I8
tp1061
atp1062
a(S'de'
p1063
(dp1064
g116
F0.041937
sS'NOUN'
p1065
F0.92289
sS'PRT'
p1066
F0.035174
s(lp1067
(g59
I9
tp1068
atp1069
a(g62
(dp1070
g40
F1.0
s(lp1071
(g62
I10
tp1072
atp1073
a(S'panie'
p1074
(dp1075
S'NOUN'
p1076
F1.0
s(lp1077
(g71
I11
tp1078
atp1079
a(S'przewodnicz\xc4\x85cy'
p1080
(dp1081
S'VERB'
p1082
F0.000602
sS'NOUN'
p1083
F0.999398
s(lp1084
tp1085
a(g594
(dp1086
g40
F1.0
s(lp1087
(g85
I12
tp1088
atp1089
a(S'uwa\xc5\xbcam'
p1090
(dp1091
S'VERB'
p1092
F1.0
s(lp1093
(g326
I15
tp1094
atp1095
a(g88
(dp1096
g116
F0.0
sg40
F1.0
s(lp1097
(g88
I13
tp1098
atp1099
a(S'\xc5\xbce'
p1100
(dp1101
S'PRT'
p1102
F0.000254
sS'CONJ'
p1103
F0.9997469999999999
s(lp1104
(g320
I14
tp1105
atp1106
a(S'cho\xc4\x87'
p1107
(dp1108
S'PRT'
p1109
F0.06158
sS'CONJ'
p1110
F0.933674
sS'VERB'
p1111
F0.004746
s(lp1112
(g161
I21
tp1113
atp1114
a(S'argumentacja'
p1115
(dp1116
S'NOUN'
p1117
F1.0
s(lp1118
(g104
I19
tp1119
atp1120
a(S'pana'
p1121
(dp1122
S'NOUN'
p1123
F1.0
s(lp1124
(g121
I16
tp1125
atp1126
a(S'swobody'
p1127
(dp1128
S'NOUN'
p1129
F1.0
s(lp1130
(g129
I17
tp1131
atp1132
a(S'by\xc5\x82a'
p1133
(dp1134
S'VERB'
p1135
F0.992268
sS'ADJ'
p1136
F0.007732
s(lp1137
(g228
I20
tp1138
atp1139
a(S'zwi\xc4\x99z\xc5\x82a'
p1140
(dp1141
S'NOUN'
p1142
F0.37419700000000006
sS'VERB'
p1143
F0.16592400000000002
sS'ADJ'
p1144
F0.459877
s(lp1145
(g141
I22
tp1146
atp1147
a(g88
(dp1148
g116
F0.0
sg40
F1.0
s(lp1149
(g88
I23
tp1150
atp1151
a(S'to'
p1152
(dp1153
S'NOUN'
p1154
F0.049821
sS'ADP'
p1155
F0.0
sS'PRT'
p1156
F0.38775
sg116
F1.5e-05
sS'CONJ'
p1157
F0.184284
sS'ADJ'
p1158
F0.37813099999999994
s(lp1159
(g153
I25
tp1160
atp1161
a(S'by\xc5\x82a'
p1162
(dp1163
S'VERB'
p1164
F0.999426
sS'ADJ'
p1165
F0.000574
s(lp1166
(g389
I26
tp1167
atp1168
a(S'r\xc3\xb3wnie\xc5\xbc'
p1169
(dp1170
S'PRT'
p1171
F0.987115
sS'CONJ'
p1172
F0.012885
s(lp1173
tp1174
a(S'tre\xc5\x9bciwa'
p1175
(dp1176
S'ADV'
p1177
F0.003811
sS'ADJ'
p1178
F0.028725999999999998
sS'VERB'
p1179
F0.5170589999999999
sS'NOUN'
p1180
F0.45040500000000006
s(lp1181
(g175
I27
tp1182
atp1183
a(g40
(dp1184
g40
F1.0
s(lp1185
(g40
I28
tp1186
atp1187
asS'sl'
p1188
(lp1189
(g867
(dp1190
S'ADP'
p1191
F1.0
s(lp1192
(g14
I1
tp1193
atp1194
a(S'imenu'
p1195
(dp1196
S'NOUN'
p1197
F1.0
s(lp1198
tp1199
a(S'skupine'
p1200
(dp1201
S'NOUN'
p1202
F0.999999
s(lp1203
(g14
I1
tp1204
atp1205
a(S'ppe-de'
p1206
(dp1207
S'ADV'
p1208
F0.003621
sS'ADJ'
p1209
F0.001724
sS'VERB'
p1210
F0.059891
sS'NOUN'
p1211
F0.934765
s(lp1212
(g37
I4
tp1213
atp1214
a(g40
(dp1215
g40
F1.0
s(lp1216
(g40
I6
tp1217
atp1218
a(g45
(dp1219
g40
F1.0
s(lp1220
(g45
I7
tp1221
atp1222
a(g50
(dp1223
g40
F1.0
s(lp1224
(g50
I8
tp1225
atp1226
a(S'de'
p1227
(dp1228
g116
F0.999975
sS'VERB'
p1229
F2.5e-05
s(lp1230
(g59
I9
tp1231
atp1232
a(g62
(dp1233
g40
F1.0
s(lp1234
(g62
I10
tp1235
atp1236
a(S'gospod'
p1237
(dp1238
S'NOUN'
p1239
F1.0
s(lp1240
(g71
I11
tp1241
atp1242
a(S'predsednik'
p1243
(dp1244
S'NOUN'
p1245
F1.0
s(lp1246
(g85
I12
tp1247
atp1248
a(g88
(dp1249
g40
F1.0
s(lp1250
(g88
I13
tp1251
atp1252
a(S'menim'
p1253
(dp1254
S'VERB'
p1255
F1.0
s(lp1256
(g326
I15
tp1257
atp1258
a(g88
(dp1259
g40
F1.0
s(lp1260
tp1261
a(S'da'
p1262
(dp1263
S'PRT'
p1264
F4e-06
sS'CONJ'
p1265
F0.999979
sS'VERB'
p1266
F1.7e-05
sg116
F1e-06
s(lp1267
(g153
I25
tp1268
atp1269
a(S'je'
p1270
(dp1271
S'PRON'
p1272
F0.000169
sS'VERB'
p1273
F0.999831
sg116
F0.0
s(lp1274
tp1275
a(S'bila'
p1276
(dp1277
S'VERB'
p1278
F1.0
s(lp1279
(g389
I26
tp1280
atp1281
a(S'obrazlo\xc5\xbeitev'
p1282
(dp1283
S'NOUN'
p1284
F1.0
s(lp1285
tp1286
a(S'gospoda'
p1287
(dp1288
S'NOUN'
p1289
F1.0
s(lp1290
(g121
I16
tp1291
atp1292
a(S'swobode'
p1293
(dp1294
S'ADV'
p1295
F0.037888
sS'ADJ'
p1296
F0.016218
sS'VERB'
p1297
F0.453361
sS'NOUN'
p1298
F0.49253399999999997
s(lp1299
(g129
I17
tp1300
atp1301
a(S'kratka'
p1302
(dp1303
S'ADJ'
p1304
F1.0
s(lp1305
(g141
I22
tp1306
atp1307
a(g88
(dp1308
g40
F1.0
s(lp1309
(g88
I23
tp1310
atp1311
a(S'ampak'
p1312
(dp1313
S'CONJ'
p1314
F1.0
s(lp1315
(g215
I24
tp1316
atp1317
a(S'natan\xc4\x8dna'
p1318
(dp1319
S'ADJ'
p1320
F1.0
s(lp1321
(g175
I27
tp1322
atp1323
a(g40
(dp1324
g40
F1.0
s(lp1325
(g40
I28
tp1326
atp1327
asS'es'
p1328
(lp1329
(S'en'
p1330
(dp1331
g116
F0.002093
sS'CONJ'
p1332
F4.7e-05
sS'ADP'
p1333
F0.99786
s(lp1334
(g7
I0
tp1335
atp1336
a(S'nombre'
p1337
(dp1338
S'NOUN'
p1339
F1.0
s(lp1340
(g14
I1
tp1341
atp1342
a(S'del'
p1343
(dp1344
S'ADP'
p1345
F1.0
s(lp1346
(g21
I2
tp1347
atp1348
a(S'grupo'
p1349
(dp1350
S'NOUN'
p1351
F1.0
s(lp1352
(g29
I5
tp1353
atp1354
a(S'del'
p1355
(dp1356
S'ADP'
p1357
F1.0
s(lp1358
tp1359
a(S'ppe-de'
p1360
(dp1361
S'ADV'
p1362
F0.0
sS'ADJ'
p1363
F0.22246
sS'VERB'
p1364
F0.033309000000000005
sS'NOUN'
p1365
F0.744231
s(lp1366
(g37
I4
tp1367
atp1368
a(g40
(dp1369
g40
F1.0
s(lp1370
(g40
I6
tp1371
atp1372
a(g45
(dp1373
g40
F1.0
s(lp1374
(g45
I7
tp1375
atp1376
a(g50
(dp1377
g40
F1.0
s(lp1378
(g50
I8
tp1379
atp1380
a(S'de'
p1381
(dp1382
g116
F0.393369
sS'CONJ'
p1383
F0.00278
sS'ADP'
p1384
F0.603851
s(lp1385
(g59
I9
tp1386
atp1387
a(g62
(dp1388
g40
F1.0
s(lp1389
(g62
I10
tp1390
atp1391
a(S'se\xc3\xb1or'
p1392
(dp1393
S'NOUN'
p1394
F1.0
s(lp1395
(g71
I11
tp1396
atp1397
a(S'presidente'
p1398
(dp1399
S'NOUN'
p1400
F1.0
s(lp1401
(g85
I12
tp1402
atp1403
a(g88
(dp1404
g40
F1.0
s(lp1405
(g88
I13
tp1406
atp1407
a(S'creo'
p1408
(dp1409
S'VERB'
p1410
F1.0
s(lp1411
(g326
I15
tp1412
atp1413
a(S'que'
p1414
(dp1415
g116
F0.0
sS'CONJ'
p1416
F1.0
s(lp1417
(g320
I14
tp1418
atp1419
a(S'la'
p1420
(dp1421
S'PRON'
p1422
F0.00027
sS'DET'
p1423
F0.99973
sg116
F0.0
sS'NOUN'
p1424
F0.0
s(lp1425
tp1426
a(S'exposici\xc3\xb3n'
p1427
(dp1428
S'NOUN'
p1429
F1.0
s(lp1430
(g104
I19
tp1431
atp1432
a(S'del'
p1433
(dp1434
S'ADP'
p1435
F1.0
s(lp1436
(g111
I18
tp1437
atp1438
a(S'se\xc3\xb1or'
p1439
(dp1440
S'NOUN'
p1441
F1.0
s(lp1442
(g121
I16
tp1443
atp1444
a(S'swoboda'
p1445
(dp1446
S'NOUN'
p1447
F1.0
s(lp1448
(g129
I17
tp1449
atp1450
a(S'ha'
p1451
(dp1452
S'VERB'
p1453
F1.0
s(lp1454
tp1455
a(S'sido'
p1456
(dp1457
S'VERB'
p1458
F1.0
s(lp1459
(g228
I20
tp1460
atp1461
a(S'breve'
p1462
(dp1463
S'ADJ'
p1464
F1.0
s(lp1465
(g141
I22
tp1466
atp1467
a(g88
(dp1468
g40
F1.0
s(lp1469
(g88
I23
tp1470
atp1471
a(S'pero'
p1472
(dp1473
S'CONJ'
p1474
F0.994755
sS'NOUN'
p1475
F0.005245
s(lp1476
(g215
I24
tp1477
atp1478
a(S'concisa'
p1479
(dp1480
S'ADJ'
p1481
F1.0
s(lp1482
(g175
I27
tp1483
atp1484
a(g40
(dp1485
g40
F1.0
s(lp1486
(g40
I28
tp1487
atp1488
as.