(dp0
S'fr'
p1
(lp2
(S'je'
p3
(dp4
S'PRON'
p5
F1.0
s(lp6
(S'i'
p7
I0
tp8
atp9
a(S'crois'
p10
(dp11
S'VERB'
p12
F1.0
s(lp13
(S'believe'
p14
I1
tp15
atp16
a(S"qu'"
p17
(dp18
S'NOUN'
p19
F0.043787
sS'VERB'
p20
F0.7697689999999999
sS'ADJ'
p21
F0.186444
s(lp22
(S'that'
p23
I2
tp24
atp25
a(S'il'
p26
(dp27
S'PRON'
p28
F1.0
s(lp29
(S'what'
p30
I3
tp31
atp32
a(S'est'
p33
(dp34
S'VERB'
p35
F0.999979
sS'NOUN'
p36
F2.1e-05
s(lp37
tp38
a(S'capital'
p39
(dp40
S'NOUN'
p41
F0.075123
sS'ADJ'
p42
F0.924877
s(lp43
(S'matters'
p44
I4
tp45
atp46
a(S','
p47
(dp48
S'.'
p49
F1.0
s(lp50
tp51
a(S'lorsque'
p52
(dp53
S'CONJ'
p54
F1.0
s(lp55
(S'when'
p56
I6
tp57
atp58
a(S"l'"
p59
(dp60
S'NOUN'
p61
F0.050387
sS'VERB'
p62
F0.8915730000000001
sS'ADJ'
p63
F0.05804
s(lp64
tp65
a(S'on'
p66
(dp67
S'PRON'
p68
F1.0
s(lp69
tp70
a(S'envisage'
p71
(dp72
S'VERB'
p73
F1.0
s(lp74
(S'considering'
p75
I7
tp76
atp77
a(S'la'
p78
(dp79
S'PRON'
p80
F0.001274
sS'DET'
p81
F0.998726
sS'NOUN'
p82
F0.0
s(lp83
(S'the'
p84
I8
tp85
atp86
a(S'forme'
p87
(dp88
S'VERB'
p89
F0.001475
sS'NOUN'
p90
F0.998525
s(lp91
tp92
a(S'que'
p93
(dp94
S'ADV'
p95
F0.002906
sS'PRON'
p96
F0.623376
sS'CONJ'
p97
F0.373718
s(lp98
tp99
a(S'prendront'
p100
(dp101
S'VERB'
p102
F1.0
s(lp103
(S'shape'
p104
I10
tp105
atp106
a(S'\xc3\xa0'
p107
(dp108
S'ADP'
p109
F1.0
s(lp110
tp111
a(S"l'"
p112
(dp113
S'ADJ'
p114
F0.160704
sS'VERB'
p115
F0.06480800000000002
sS'NOUN'
p116
F0.774488
s(lp117
tp118
a(S'avenir'
p119
(dp120
S'NOUN'
p121
F1.0
s(lp122
(S'future'
p123
I9
tp124
atp125
a(S'les'
p126
(dp127
S'PRON'
p128
F0.000251
sS'DET'
p129
F0.999507
sS'ADP'
p130
F0.000243
s(lp131
tp132
a(S'instruments'
p133
(dp134
S'NOUN'
p135
F1.0
s(lp136
(S'instruments'
p137
I13
tp138
atp139
a(S'de'
p140
(dp141
S'ADP'
p142
F1.0
s(lp143
(S'of'
p144
I11
tp145
atp146
a(S'financement'
p147
(dp148
S'NOUN'
p149
F1.0
s(lp150
(S'financing'
p151
I12
tp152
atp153
a(S'du'
p154
(dp155
S'ADP'
p156
F1.0
s(lp157
(S'for'
p158
I14
tp159
atp160
a(S'd\xc3\xa9veloppement'
p161
(dp162
S'NOUN'
p163
F1.0
s(lp164
(S'development'
p165
I15
tp166
atp167
a(g47
(dp168
g49
F1.0
s(lp169
(S'is'
p170
I16
tp171
atp172
a(S'de'
p173
(dp174
S'ADP'
p175
F1.0
s(lp176
(S'to'
p177
I17
tp178
atp179
a(S'se'
p180
(dp181
S'PRON'
p182
F1.0
s(lp183
tp184
a(S'rappeler'
p185
(dp186
S'VERB'
p187
F1.0
s(lp188
(S'remember'
p189
I18
tp190
atp191
a(S'que'
p192
(dp193
S'ADV'
p194
F0.061339
sS'PRON'
p195
F0.086401
sS'CONJ'
p196
F0.85226
s(lp197
(S'that'
p198
I19
tp199
atp200
a(S"l'"
p201
(dp202
S'NOUN'
p203
F0.047015
sS'VERB'
p204
F0.8903029999999998
sS'ADJ'
p205
F0.062682
s(lp206
(S'the'
p207
I20
tp208
atp209
a(S'objectif'
p210
(dp211
S'ADJ'
p212
F0.260063
sS'NOUN'
p213
F0.739937
s(lp214
(S'aim'
p215
I22
tp216
atp217
a(S'primordial'
p218
(dp219
S'ADJ'
p220
F1.0
s(lp221
(S'overriding'
p222
I21
tp223
atp224
a(S'de'
p225
(dp226
S'ADP'
p227
F1.0
s(lp228
(S'of'
p229
I23
tp230
atp231
a(S'la'
p232
(dp233
S'PRON'
p234
F0.000141
sS'DET'
p235
F0.999851
sS'NOUN'
p236
F8e-06
s(lp237
tp238
a(S'politique'
p239
(dp240
S'ADJ'
p241
F0.465647
sS'VERB'
p242
F0.000156
sS'NOUN'
p243
F0.534198
s(lp244
(S'policy'
p245
I25
tp246
atp247
a(S'de'
p248
(dp249
S'ADP'
p250
F1.0
s(lp251
(S'on'
p252
I31
tp253
atp254
a(S'd\xc3\xa9veloppement'
p255
(dp256
S'NOUN'
p257
F1.0
s(lp258
(S'development'
p259
I24
tp260
atp261
a(S'devrait'
p262
(dp263
S'VERB'
p264
F1.0
s(lp265
(S'should'
p266
I26
tp267
atp268
a(S'\xc3\xaatre'
p269
(dp270
S'VERB'
p271
F0.993046
sS'NOUN'
p272
F0.006954
s(lp273
(S'be'
p274
I27
tp275
atp276
a(S'de'
p277
(dp278
S'ADP'
p279
F1.0
s(lp280
(S'to'
p281
I28
tp282
atp283
a(S'r\xc3\xa9duire'
p284
(dp285
S'VERB'
p286
F1.0
s(lp287
(S'reduce'
p288
I29
tp289
atp290
a(S'graduellement'
p291
(dp292
S'ADV'
p293
F1.0
s(lp294
(S'gradually'
p295
I33
tp296
atp297
a(S'la'
p298
(dp299
S'PRON'
p300
F2.3e-05
sS'DET'
p301
F0.999977
sS'NOUN'
p302
F0.0
s(lp303
(S'dependence'
p304
I30
tp305
atp306
a(S'd\xc3\xa9pendance'
p307
(dp308
S'NOUN'
p309
F1.0
s(lp310
tp311
a(S'des'
p312
(dp313
S'DET'
p314
F2.5e-05
sS'ADP'
p315
F0.999975
s(lp316
tp317
a(S'b\xc3\xa9n\xc3\xa9ficiaires'
p318
(dp319
S'ADJ'
p320
F0.310014
sS'NOUN'
p321
F0.689986
s(lp322
(S'aid'
p323
I32
tp324
atp325
a(S'vis-\xc3\xa0-vis'
p326
(dp327
S'ADV'
p328
F0.907153
sS'NOUN'
p329
F0.092847
s(lp330
(g304
I30
tp331
atp332
a(S'de'
p333
(dp334
S'ADP'
p335
F1.0
s(lp336
(g252
I31
tp337
atp338
a(S"l'"
p339
(dp340
S'ADJ'
p341
F0.160704
sS'VERB'
p342
F0.06480800000000002
sS'NOUN'
p343
F0.774488
s(lp344
tp345
a(S'aide'
p346
(dp347
S'VERB'
p348
F0.059098
sS'NOUN'
p349
F0.940901
s(lp350
(g323
I32
tp351
atp352
a(g47
(dp353
g49
F1.0
s(lp354
(g47
I34
tp355
atp356
a(S'pour'
p357
(dp358
S'CONJ'
p359
F0.218722
sS'ADP'
p360
F0.781278
s(lp361
(S'and'
p362
I35
tp363
atp364
a(S"qu'"
p365
(dp366
S'ADJ'
p367
F0.41049
sS'VERB'
p368
F0.10332400000000001
sS'NOUN'
p369
F0.486186
s(lp370
(S'for'
p371
I36
tp372
atp373
a(S'ils'
p374
(dp375
S'PRON'
p376
F1.0
s(lp377
(S'the'
p378
I37
tp379
atp380
a(S'deviennent'
p381
(dp382
S'VERB'
p383
F1.0
s(lp384
(S'country'
p385
I38
tp386
atp387
a(S'\xc3\xa0'
p388
(dp389
S'ADP'
p390
F1.0
s(lp391
(S'in'
p392
I39
tp393
atp394
a(S'terme'
p395
(dp396
S'NOUN'
p397
F1.0
s(lp398
(S'ultimately'
p399
I41
tp400
atp401
a(S'totalement'
p402
(dp403
S'ADV'
p404
F1.0
s(lp405
(S'total'
p406
I44
tp407
atp408
a(S'ind\xc3\xa9pendants'
p409
(dp410
S'NOUN'
p411
F0.019395
sS'ADJ'
p412
F0.980605
s(lp413
(S'independence'
p414
I45
tp415
atp416
a(g49
(dp417
g49
F1.0
s(lp418
(g49
I46
tp419
atp420
asS'en'
p421
(lp422
(g7
(dp423
S'X'
p424
F0.005288
sS'NOUN'
p425
F0.9947130000000001
s(lp426
(g7
I0
tp427
atp428
a(g14
(dp429
S'VERB'
p430
F1.0
s(lp431
(g14
I1
tp432
atp433
a(g23
(dp434
S'ADV'
p435
F0.001218
sS'DET'
p436
F0.028777999999999998
sS'ADP'
p437
F0.970005
s(lp438
(g23
I2
tp439
atp440
a(g30
(dp441
S'PRON'
p442
F0.99682
sS'DET'
p443
F0.00318
s(lp444
(g30
I3
tp445
atp446
a(g44
(dp447
S'VERB'
p448
F0.998974
sS'NOUN'
p449
F0.001026
s(lp450
(g44
I4
tp451
atp452
a(S'most'
p453
(dp454
S'ADV'
p455
F0.057525
sS'ADJ'
p456
F0.942475
s(lp457
(g453
I5
tp458
atp459
a(g56
(dp460
S'ADV'
p461
F0.990706
sS'ADP'
p462
F0.009294
s(lp463
(g56
I6
tp464
atp465
a(g75
(dp466
S'ADV'
p467
F0.001488
sS'VERB'
p468
F0.998358
sS'ADP'
p469
F0.000154
s(lp470
(g75
I7
tp471
atp472
a(g84
(dp473
S'NOUN'
p474
F1e-06
sS'DET'
p475
F0.999999
s(lp476
(g84
I8
tp477
atp478
a(g123
(dp479
S'NOUN'
p480
F0.185894
sS'ADJ'
p481
F0.814106
s(lp482
(g123
I9
tp483
atp484
a(g104
(dp485
S'VERB'
p486
F0.003956
sS'NOUN'
p487
F0.996044
s(lp488
(g104
I10
tp489
atp490
a(g144
(dp491
S'ADP'
p492
F1.0
s(lp493
(g144
I11
tp494
atp495
a(g151
(dp496
S'VERB'
p497
F0.248105
sS'NOUN'
p498
F0.751895
s(lp499
(g151
I12
tp500
atp501
a(g137
(dp502
S'NOUN'
p503
F1.0
s(lp504
(g137
I13
tp505
atp506
a(g158
(dp507
S'ADP'
p508
F1.0
s(lp509
(g158
I14
tp510
atp511
a(g165
(dp512
S'NOUN'
p513
F1.0
s(lp514
(g165
I15
tp515
atp516
a(g170
(dp517
S'VERB'
p518
F1.0
s(lp519
(g170
I16
tp520
atp521
a(g177
(dp522
S'ADV'
p523
F1e-06
sS'PRT'
p524
F0.999999
sS'ADP'
p525
F0.0
s(lp526
(g177
I17
tp527
atp528
a(g189
(dp529
S'VERB'
p530
F1.0
s(lp531
(g189
I18
tp532
atp533
a(g198
(dp534
S'ADV'
p535
F0.000569
sS'DET'
p536
F0.017934000000000002
sS'ADP'
p537
F0.981497
s(lp538
(g198
I19
tp539
atp540
a(g207
(dp541
S'NOUN'
p542
F1e-06
sS'DET'
p543
F0.999999
s(lp544
(g207
I20
tp545
atp546
a(g222
(dp547
S'VERB'
p548
F0.065633
sS'ADJ'
p549
F0.934367
s(lp550
(g222
I21
tp551
atp552
a(g215
(dp553
S'VERB'
p554
F0.00232
sS'NOUN'
p555
F0.997679
s(lp556
(g215
I22
tp557
atp558
a(g229
(dp559
S'ADP'
p560
F1.0
s(lp561
(g229
I23
tp562
atp563
a(g259
(dp564
S'NOUN'
p565
F1.0
s(lp566
(g259
I24
tp567
atp568
a(g245
(dp569
S'NOUN'
p570
F1.0
s(lp571
(g245
I25
tp572
atp573
a(g266
(dp574
S'VERB'
p575
F1.0
s(lp576
(g266
I26
tp577
atp578
a(g274
(dp579
S'VERB'
p580
F1.0
s(lp581
(g274
I27
tp582
atp583
a(g281
(dp584
S'ADV'
p585
F0.0
sS'PRT'
p586
F1.0
sS'ADP'
p587
F0.0
s(lp588
(g281
I28
tp589
atp590
a(g288
(dp591
S'VERB'
p592
F1.0
s(lp593
(g288
I29
tp594
atp595
a(g304
(dp596
S'NOUN'
p597
F1.0
s(lp598
(g304
I30
tp599
atp600
a(g252
(dp601
S'ADV'
p602
F0.000556
sS'PRT'
p603
F0.000365
sS'ADJ'
p604
F4e-06
sS'ADP'
p605
F0.999071
sS'NOUN'
p606
F4e-06
s(lp607
(g252
I31
tp608
atp609
a(g323
(dp610
S'VERB'
p611
F0.002507
sS'NOUN'
p612
F0.997493
s(lp613
(g323
I32
tp614
atp615
a(g295
(dp616
S'ADV'
p617
F1.0
s(lp618
(g295
I33
tp619
atp620
a(g47
(dp621
g49
F1.0
s(lp622
(g47
I34
tp623
atp624
a(g362
(dp625
S'CONJ'
p626
F0.999991
sS'NOUN'
p627
F9e-06
s(lp628
(g362
I35
tp629
atp630
a(g371
(dp631
S'ADP'
p632
F1.0
s(lp633
(g371
I36
tp634
atp635
a(g378
(dp636
S'NOUN'
p637
F1e-06
sS'DET'
p638
F0.999999
s(lp639
(g378
I37
tp640
atp641
a(g385
(dp642
S'NOUN'
p643
F1.0
s(lp644
(g385
I38
tp645
atp646
a(g392
(dp647
S'ADV'
p648
F0.001
sS'PRT'
p649
F0.000396
sS'ADP'
p650
F0.998604
s(lp651
(g392
I39
tp652
atp653
a(S'question'
p654
(dp655
S'VERB'
p656
F0.012107
sS'NOUN'
p657
F0.987894
s(lp658
(g654
I40
tp659
atp660
a(g399
(dp661
S'ADV'
p662
F1.0
s(lp663
(g399
I41
tp664
atp665
a(S'to'
p666
(dp667
S'ADV'
p668
F0.0
sS'PRT'
p669
F1.0
sS'ADP'
p670
F0.0
s(lp671
(g666
I42
tp672
atp673
a(S'achieve'
p674
(dp675
S'VERB'
p676
F1.0
s(lp677
(g674
I43
tp678
atp679
a(g406
(dp680
S'NOUN'
p681
F0.059301
sS'VERB'
p682
F0.0018499999999999999
sS'ADJ'
p683
F0.938849
s(lp684
(g406
I44
tp685
atp686
a(g414
(dp687
S'NOUN'
p688
F1.0
s(lp689
(g414
I45
tp690
atp691
a(g49
(dp692
g49
F1.0
s(lp693
(g49
I46
tp694
atp695
asS'nl'
p696
(lp697
(S'ik'
p698
(dp699
S'PRON'
p700
F0.999981
sS'NOUN'
p701
F1.9e-05
s(lp702
(g7
I0
tp703
atp704
a(S'denk'
p705
(dp706
S'VERB'
p707
F1.0
s(lp708
(g14
I1
tp709
atp710
a(S'dat'
p711
(dp712
S'PRON'
p713
F0.0025970000000000003
sS'CONJ'
p714
F0.997403
s(lp715
(g23
I2
tp716
atp717
a(S'we'
p718
(dp719
S'PRON'
p720
F1.0
s(lp721
(g30
I3
tp722
atp723
a(S'bij'
p724
(dp725
S'ADV'
p726
F0.015468
sS'ADJ'
p727
F0.0
sS'NOUN'
p728
F0.0
sS'ADP'
p729
F0.984531
s(lp730
(g56
I6
tp731
atp732
a(S'onze'
p733
(dp734
S'PRON'
p735
F1.0
s(lp736
(g75
I7
tp737
atp738
a(S'overwegingen'
p739
(dp740
S'NOUN'
p741
F1.0
s(lp742
tp743
a(S'over'
p744
(dp745
S'ADV'
p746
F0.017648
sS'ADP'
p747
F0.982352
s(lp748
(g75
I7
tp749
atp750
a(S'de'
p751
(dp752
S'DET'
p753
F1.0
s(lp754
(g84
I8
tp755
atp756
a(S'toekomstige'
p757
(dp758
S'NOUN'
p759
F0.000392
sS'ADJ'
p760
F0.999608
s(lp761
(g123
I9
tp762
atp763
a(S'vorm'
p764
(dp765
S'VERB'
p766
F0.000126
sS'NOUN'
p767
F0.999874
s(lp768
(g104
I10
tp769
atp770
a(S'van'
p771
(dp772
S'ADP'
p773
F1.0
s(lp774
(g144
I11
tp775
atp776
a(S'financieringsinstrumenten'
p777
(dp778
S'NOUN'
p779
F1.0
s(lp780
(g137
I13
tp781
atp782
a(S'voor'
p783
(dp784
S'ADV'
p785
F0.001182
sS'CONJ'
p786
F3e-06
sS'NOUN'
p787
F0.0
sS'ADP'
p788
F0.998815
s(lp789
(g158
I14
tp790
atp791
a(S'ontwikkelingssamenwerking'
p792
(dp793
S'NOUN'
p794
F1.0
s(lp795
(g165
I15
tp796
atp797
a(S'vooral'
p798
(dp799
S'ADV'
p800
F1.0
s(lp801
(g170
I16
tp802
atp803
a(S'niet'
p804
(dp805
S'ADV'
p806
F0.999999
sS'PRON'
p807
F1e-06
sS'VERB'
p808
F1e-06
sg424
F0.0
s(lp809
(g189
I18
tp810
atp811
a(S'mogen'
p812
(dp813
S'VERB'
p814
F0.9999709999999999
sS'NOUN'
p815
F2.9e-05
s(lp816
tp817
a(S'vergeten'
p818
(dp819
S'VERB'
p820
F0.999375
sS'NOUN'
p821
F0.000625
s(lp822
(g189
I18
tp823
atp824
a(S'dat'
p825
(dp826
S'PRON'
p827
F0.059125
sS'CONJ'
p828
F0.940874
s(lp829
(g198
I19
tp830
atp831
a(S'het'
p832
(dp833
S'PRON'
p834
F0.021269
sS'DET'
p835
F0.978731
s(lp836
(g207
I20
tp837
atp838
a(S'hoofddoel'
p839
(dp840
S'NOUN'
p841
F1.0
s(lp842
(g222
I21
tp843
atp844
a(S'van'
p845
(dp846
S'ADP'
p847
F1.0
s(lp848
(g229
I23
tp849
atp850
a(S'het'
p851
(dp852
S'PRON'
p853
F0.000927
sS'DET'
p854
F0.999073
s(lp855
(g245
I25
tp856
atp857
a(S'ontwikkelingsbeleid'
p858
(dp859
S'NOUN'
p860
F1.0
s(lp861
(g259
I24
tp862
atp863
a(S'een'
p864
(dp865
S'ADJ'
p866
F1.1e-05
sS'PRON'
p867
F8.3e-05
sS'NUM'
p868
F2.5e-05
sS'DET'
p869
F0.999881
s(lp870
(g274
I27
tp871
atp872
a(S'geleidelijk'
p873
(dp874
S'ADJ'
p875
F1.0
s(lp876
(g295
I33
tp877
atp878
a(S'vermindering'
p879
(dp880
S'NOUN'
p881
F1.0
s(lp882
(g288
I29
tp883
atp884
a(S'van'
p885
(dp886
S'ADP'
p887
F1.0
s(lp888
tp889
a(S'de'
p890
(dp891
S'DET'
p892
F1.0
s(lp893
tp894
a(S'afhankelijkheid'
p895
(dp896
S'NOUN'
p897
F1.0
s(lp898
(g304
I30
tp899
atp900
a(S'van'
p901
(dp902
S'ADP'
p903
F1.0
s(lp904
(g252
I31
tp905
atp906
a(S'hulp'
p907
(dp908
S'NOUN'
p909
F1.0
s(lp910
(g323
I32
tp911
atp912
a(S'is'
p913
(dp914
S'VERB'
p915
F1.0
s(lp916
(g47
I34
tp917
atp918
a(S'en'
p919
(dp920
S'CONJ'
p921
F1.0
s(lp922
(g362
I35
tp923
atp924
a(S'uiteindelijk'
p925
(dp926
S'ADJ'
p927
F1.0
s(lp928
(g399
I41
tp929
atp930
a(S'volledige'
p931
(dp932
S'NOUN'
p933
F4e-05
sS'ADJ'
p934
F0.99996
s(lp935
(g406
I44
tp936
atp937
a(S'onafhankelijkheid'
p938
(dp939
S'NOUN'
p940
F1.0
s(lp941
(g414
I45
tp942
atp943
a(S'van'
p944
(dp945
S'ADP'
p946
F1.0
s(lp947
(g371
I36
tp948
atp949
a(S'het'
p950
(dp951
S'PRON'
p952
F0.00093
sS'DET'
p953
F0.99907
s(lp954
(g378
I37
tp955
atp956
a(S'land'
p957
(dp958
S'VERB'
p959
F4e-06
sS'NOUN'
p960
F0.999996
s(lp961
(g385
I38
tp962
atp963
a(S'in'
p964
(dp965
S'ADV'
p966
F0.001589
sS'VERB'
p967
F1e-06
sS'ADP'
p968
F0.99841
s(lp969
(g392
I39
tp970
atp971
a(S'kwestie'
p972
(dp973
S'NOUN'
p974
F1.0
s(lp975
(g654
I40
tp976
atp977
a(g49
(dp978
g49
F1.0
s(lp979
(g49
I46
tp980
atp981
asS'de'
p982
(lp983
(S'ich'
p984
(dp985
S'PRON'
p986
F1.0
s(lp987
(g7
I0
tp988
atp989
a(S'denke'
p990
(dp991
S'VERB'
p992
F1.0
s(lp993
(g14
I1
tp994
atp995
a(g47
(dp996
g49
F1.0
s(lp997
(g23
I2
tp998
atp999
a(S'es'
p1000
(dp1001
S'PRON'
p1002
F1.0
s(lp1003
(g30
I3
tp1004
atp1005
a(S'ist'
p1006
(dp1007
S'VERB'
p1008
F1.0
s(lp1009
(g44
I4
tp1010
atp1011
a(S'bei'
p1012
(dp1013
S'PRT'
p1014
F0.0
sS'ADP'
p1015
F1.0
s(lp1016
(g56
I6
tp1017
atp1018
a(S'der'
p1019
(dp1020
S'PRON'
p1021
F1.5e-05
sS'DET'
p1022
F0.99998
s(lp1023
tp1024
a(S'\xc3\x9cberlegung'
p1025
(dp1026
S'NOUN'
p1027
F1.0
s(lp1028
tp1029
a(S'\xc3\xbcber'
p1030
(dp1031
S'PRT'
p1032
F9.1e-05
sS'ADP'
p1033
F0.999909
s(lp1034
(g75
I7
tp1035
atp1036
a(S'die'
p1037
(dp1038
S'PRON'
p1039
F0.000218
sS'DET'
p1040
F0.999766
s(lp1041
(g84
I8
tp1042
atp1043
a(S'zuk\xc3\xbcnftige'
p1044
(dp1045
S'ADJ'
p1046
F1.0
s(lp1047
(g123
I9
tp1048
atp1049
a(S'form'
p1050
(dp1051
S'VERB'
p1052
F1.0
s(lp1053
(g104
I10
tp1054
atp1055
a(S'der'
p1056
(dp1057
S'PRON'
p1058
F0.001166
sS'DET'
p1059
F0.99834
s(lp1060
(g144
I11
tp1061
atp1062
a(S'finanzierungsinstrumente'
p1063
(dp1064
S'ADJ'
p1065
F0.017928
sS'NOUN'
p1066
F0.964142
s(lp1067
(g137
I13
tp1068
atp1069
a(S'f\xc3\xbcr'
p1070
(dp1071
S'ADP'
p1072
F1.0
s(lp1073
(g158
I14
tp1074
atp1075
a(S'die'
p1076
(dp1077
S'PRON'
p1078
F0.000214
sS'DET'
p1079
F0.999747
s(lp1080
(g151
I12
tp1081
atp1082
a(S'entwicklung'
p1083
(dp1084
S'ADJ'
p1085
F0.014465
sS'NOUN'
p1086
F0.970277
s(lp1087
(g165
I15
tp1088
atp1089
a(S'von'
p1090
(dp1091
S'NOUN'
p1092
F0.000996
sS'ADP'
p1093
F0.999004
s(lp1094
tp1095
a(S'gr\xc3\xb6\xc3\x9fter'
p1096
(dp1097
S'ADJ'
p1098
F1.0
s(lp1099
(g222
I21
tp1100
atp1101
a(S'bedeutung'
p1102
(dp1103
S'ADJ'
p1104
F0.02102
sS'NOUN'
p1105
F0.958121
s(lp1106
tp1107
a(g47
(dp1108
g49
F1.0
s(lp1109
tp1110
a(S'zu'
p1111
(dp1112
S'ADV'
p1113
F0.000667
sS'PRT'
p1114
F0.999042
s(lp1115
(g177
I17
tp1116
atp1117
a(S'bedenken'
p1118
(dp1119
S'VERB'
p1120
F1.0
s(lp1121
(g189
I18
tp1122
atp1123
a(g47
(dp1124
g49
F1.0
s(lp1125
tp1126
a(S'dass'
p1127
(dp1128
S'CONJ'
p1129
F1.0
s(lp1130
(g198
I19
tp1131
atp1132
a(S'das'
p1133
(dp1134
S'PRON'
p1135
F0.095586
sS'DET'
p1136
F0.904299
s(lp1137
(g207
I20
tp1138
atp1139
a(S'vorrangige'
p1140
(dp1141
S'ADJ'
p1142
F1.0
s(lp1143
(g222
I21
tp1144
atp1145
a(S'ziel'
p1146
(dp1147
S'VERB'
p1148
F1.0
s(lp1149
(g215
I22
tp1150
atp1151
a(S'der'
p1152
(dp1153
S'PRON'
p1154
F0.002525
sS'DET'
p1155
F0.995475
s(lp1156
(g229
I23
tp1157
atp1158
a(S'entwicklungspolitik'
p1159
(dp1160
S'ADJ'
p1161
F0.056674
sS'NOUN'
p1162
F0.89434
s(lp1163
(g259
I24
tp1164
atp1165
a(S'darin'
p1166
(dp1167
S'ADV'
p1168
F1.0
s(lp1169
tp1170
a(S'bestehen'
p1171
(dp1172
S'PRT'
p1173
F0.002561
sS'VERB'
p1174
F0.997411
s(lp1175
(g274
I27
tp1176
atp1177
a(S'sollte'
p1178
(dp1179
S'VERB'
p1180
F1.0
s(lp1181
(g266
I26
tp1182
atp1183
a(g47
(dp1184
g49
F1.0
s(lp1185
(g281
I28
tp1186
atp1187
a(S'die'
p1188
(dp1189
S'PRON'
p1190
F0.117862
sS'DET'
p1191
F0.881016
s(lp1192
tp1193
a(S'abh\xc3\xa4ngigkeit'
p1194
(dp1195
S'ADJ'
p1196
F0.001407
sS'NOUN'
p1197
F0.99832
s(lp1198
(g304
I30
tp1199
atp1200
a(S'von'
p1201
(dp1202
S'NOUN'
p1203
F0.000571
sS'ADP'
p1204
F0.999429
s(lp1205
(g252
I31
tp1206
atp1207
a(S'unterst\xc3\xbctzung'
p1208
(dp1209
S'ADJ'
p1210
F0.00122
sS'NOUN'
p1211
F0.998513
s(lp1212
(g323
I32
tp1213
atp1214
a(S'schrittweise'
p1215
(dp1216
S'ADJ'
p1217
F1.0
s(lp1218
(g295
I33
tp1219
atp1220
a(S'abzubauen'
p1221
(dp1222
S'VERB'
p1223
F1.0
s(lp1224
(g288
I29
tp1225
atp1226
a(S'und'
p1227
(dp1228
S'CONJ'
p1229
F1.0
s(lp1230
(g362
I35
tp1231
atp1232
a(S'dem'
p1233
(dp1234
S'PRON'
p1235
F0.009828
sS'DET'
p1236
F0.988455
s(lp1237
(g378
I37
tp1238
atp1239
a(S'betroffenen'
p1240
(dp1241
S'ADJ'
p1242
F1.0
s(lp1243
(g654
I40
tp1244
atp1245
a(S'land'
p1246
(dp1247
S'ADJ'
p1248
F0.107933
sS'NOUN'
p1249
F0.757905
s(lp1250
(g385
I38
tp1251
atp1252
a(S'schlussendlich'
p1253
(dp1254
S'ADJ'
p1255
F1.0
s(lp1256
(g399
I41
tp1257
atp1258
a(S'dabei'
p1259
(dp1260
S'ADV'
p1261
F0.991781
sS'PRT'
p1262
F0.008219
s(lp1263
(g215
I22
tp1264
atp1265
a(S'zu'
p1266
(dp1267
S'PRT'
p1268
F0.9999520000000001
s(lp1269
(g666
I42
tp1270
atp1271
a(S'helfen'
p1272
(dp1273
S'VERB'
p1274
F1.0
s(lp1275
tp1276
a(g47
(dp1277
g49
F1.0
s(lp1278
tp1279
a(S'vollst\xc3\xa4ndig'
p1280
(dp1281
S'ADJ'
p1282
F1.0
s(lp1283
(g406
I44
tp1284
atp1285
a(S'unabh\xc3\xa4ngig'
p1286
(dp1287
S'ADJ'
p1288
F1.0
s(lp1289
(g414
I45
tp1290
atp1291
a(S'zu'
p1292
(dp1293
S'PRT'
p1294
F0.9999870000000001
s(lp1295
(g666
I42
tp1296
atp1297
a(S'werden'
p1298
(dp1299
S'VERB'
p1300
F0.999977
s(lp1301
(g674
I43
tp1302
atp1303
a(g49
(dp1304
g49
F1.0
s(lp1305
(g49
I46
tp1306
atp1307
asS'it'
p1308
(lp1309
(S'credo'
p1310
(dp1311
S'VERB'
p1312
F0.948417
sS'NOUN'
p1313
F0.051583
s(lp1314
(g14
I1
tp1315
atp1316
a(S'che'
p1317
(dp1318
S'PRON'
p1319
F0.971567
sS'CONJ'
p1320
F0.02798
sS'ADJ'
p1321
F0.000453
s(lp1322
(g23
I2
tp1323
atp1324
a(S'ci\xc3\xb2'
p1325
(dp1326
S'PRON'
p1327
F1.0
s(lp1328
tp1329
a(S'che'
p1330
(dp1331
S'PRON'
p1332
F0.991492
sS'CONJ'
p1333
F0.002759
sS'ADJ'
p1334
F0.00575
s(lp1335
(g30
I3
tp1336
atp1337
a(S'conta'
p1338
(dp1339
S'VERB'
p1340
F0.893777
sS'NOUN'
p1341
F0.106223
s(lp1342
(g44
I4
tp1343
atp1344
a(S'di'
p1345
(dp1346
S'CONJ'
p1347
F0.000149
sS'ADP'
p1348
F0.999851
s(lp1349
tp1350
a(S'pi\xc3\xb9'
p1351
(dp1352
S'ADV'
p1353
F0.96752
sS'NOUN'
p1354
F0.001361
sS'ADJ'
p1355
F0.031116
sS'ADP'
p1356
F4e-06
s(lp1357
(g453
I5
tp1358
atp1359
a(S'al'
p1360
(dp1361
S'ADP'
p1362
F1.0
s(lp1363
tp1364
a(S'momento'
p1365
(dp1366
S'NOUN'
p1367
F1.0
s(lp1368
(g56
I6
tp1369
atp1370
a(S'di'
p1371
(dp1372
S'CONJ'
p1373
F6e-06
sS'ADP'
p1374
F0.999994
s(lp1375
tp1376
a(S'considerare'
p1377
(dp1378
S'VERB'
p1379
F1.0
s(lp1380
(g75
I7
tp1381
atp1382
a(S'la'
p1383
(dp1384
S'PRON'
p1385
F2e-06
sS'DET'
p1386
F0.999998
s(lp1387
(g84
I8
tp1388
atp1389
a(S'struttura'
p1390
(dp1391
S'VERB'
p1392
F0.000242
sS'NOUN'
p1393
F0.999758
s(lp1394
(g104
I10
tp1395
atp1396
a(S'futura'
p1397
(dp1398
S'ADJ'
p1399
F1.0
s(lp1400
(g123
I9
tp1401
atp1402
a(S'degli'
p1403
(dp1404
S'DEF'
p1405
F0.003077
sS'ADP'
p1406
F0.996923
s(lp1407
(g144
I11
tp1408
atp1409
a(S'strumenti'
p1410
(dp1411
S'VERB'
p1412
F3.2e-05
sS'NOUN'
p1413
F0.999968
s(lp1414
(g137
I13
tp1415
atp1416
a(S'di'
p1417
(dp1418
S'CONJ'
p1419
F4e-06
sS'ADP'
p1420
F0.999996
s(lp1421
(g158
I14
tp1422
atp1423
a(S'finanziamento'
p1424
(dp1425
S'NOUN'
p1426
F1.0
s(lp1427
(g151
I12
tp1428
atp1429
a(S'dello'
p1430
(dp1431
S'DEF'
p1432
F0.000111
sS'ADP'
p1433
F0.999889
s(lp1434
tp1435
a(S'sviluppo'
p1436
(dp1437
S'VERB'
p1438
F4.9e-05
sS'NOUN'
p1439
F0.999951
s(lp1440
(g165
I15
tp1441
atp1442
a(S'sia'
p1443
(dp1444
S'CONJ'
p1445
F0.257175
sS'VERB'
p1446
F0.742824
s(lp1447
(g170
I16
tp1448
atp1449
a(S'ricordare'
p1450
(dp1451
S'VERB'
p1452
F1.0
s(lp1453
(g189
I18
tp1454
atp1455
a(S'che'
p1456
(dp1457
S'PRON'
p1458
F0.939703
sS'CONJ'
p1459
F0.060156
sS'ADJ'
p1460
F0.000141
s(lp1461
(g198
I19
tp1462
atp1463
a(S"l'"
p1464
(dp1465
S'NOUN'
p1466
F0.00222
sS'VERB'
p1467
F0.988697
sS'ADJ'
p1468
F0.009083
s(lp1469
(g207
I20
tp1470
atp1471
a(S'obiettivo'
p1472
(dp1473
S'ADJ'
p1474
F0.027655
sS'VERB'
p1475
F0.001301
sS'NOUN'
p1476
F0.971044
s(lp1477
(g215
I22
tp1478
atp1479
a(S'principe'
p1480
(dp1481
S'NOUN'
p1482
F0.029647
sS'ADJ'
p1483
F0.970353
s(lp1484
(g222
I21
tp1485
atp1486
a(S'della'
p1487
(dp1488
S'DEF'
p1489
F0.002909
sS'ADP'
p1490
F0.997091
s(lp1491
(g229
I23
tp1492
atp1493
a(S'politica'
p1494
(dp1495
S'ADJ'
p1496
F0.069372
sS'NOUN'
p1497
F0.930628
s(lp1498
(g245
I25
tp1499
atp1500
a(S'di'
p1501
(dp1502
S'CONJ'
p1503
F4e-06
sS'ADP'
p1504
F0.999996
s(lp1505
tp1506
a(S'sviluppo'
p1507
(dp1508
S'VERB'
p1509
F0.0
sS'NOUN'
p1510
F1.0
s(lp1511
(g259
I24
tp1512
atp1513
a(S'dovrebbe'
p1514
(dp1515
S'VERB'
p1516
F1.0
s(lp1517
(g266
I26
tp1518
atp1519
a(S'essere'
p1520
(dp1521
S'VERB'
p1522
F0.999995
sS'NOUN'
p1523
F5e-06
s(lp1524
(g274
I27
tp1525
atp1526
a(S'quello'
p1527
(dp1528
S'PRON'
p1529
F1.0
s(lp1530
tp1531
a(S'di'
p1532
(dp1533
S'CONJ'
p1534
F1e-06
sS'ADP'
p1535
F0.999999
s(lp1536
(g281
I28
tp1537
atp1538
a(S'diminuire'
p1539
(dp1540
S'VERB'
p1541
F1.0
s(lp1542
(g288
I29
tp1543
atp1544
a(S'gradualmente'
p1545
(dp1546
S'ADV'
p1547
F1.0
s(lp1548
(g295
I33
tp1549
atp1550
a(S'la'
p1551
(dp1552
S'PRON'
p1553
F0.000175
sS'DET'
p1554
F0.999825
s(lp1555
(g304
I30
tp1556
atp1557
a(S'dipendenza'
p1558
(dp1559
S'NOUN'
p1560
F1.0
s(lp1561
(g304
I30
tp1562
atp1563
a(S'dagli'
p1564
(dp1565
S'ADP'
p1566
F1.0
s(lp1567
tp1568
a(S'aiuti'
p1569
(dp1570
S'VERB'
p1571
F3e-06
sS'NOUN'
p1572
F0.999996
s(lp1573
(g323
I32
tp1574
atp1575
a(g47
(dp1576
g49
F1.0
s(lp1577
(g47
I34
tp1578
atp1579
a(S'affinch\xc3\xa9'
p1580
(dp1581
S'CONJ'
p1582
F1.0
s(lp1583
(g371
I36
tp1584
atp1585
a(S'il'
p1586
(dp1587
S'DET'
p1588
F1.0
s(lp1589
(g378
I37
tp1590
atp1591
a(S'paese'
p1592
(dp1593
S'NOUN'
p1594
F1.0
s(lp1595
(g385
I38
tp1596
atp1597
a(S'in'
p1598
(dp1599
S'ADP'
p1600
F1.0
s(lp1601
(g392
I39
tp1602
atp1603
a(S'questione'
p1604
(dp1605
S'NOUN'
p1606
F1.0
s(lp1607
(g654
I40
tp1608
atp1609
a(S'possa'
p1610
(dp1611
S'VERB'
p1612
F0.99442
sS'NOUN'
p1613
F0.00558
s(lp1614
(g666
I42
tp1615
atp1616
a(g47
(dp1617
g49
F1.0
s(lp1618
tp1619
a(S'in'
p1620
(dp1621
S'ADP'
p1622
F1.0
s(lp1623
(g399
I41
tp1624
atp1625
a(S'ultima'
p1626
(dp1627
S'NOUN'
p1628
F0.041229
sS'VERB'
p1629
F0.0008889999999999999
sS'ADJ'
p1630
F0.957882
s(lp1631
tp1632
a(S'istanza'
p1633
(dp1634
S'NOUN'
p1635
F1.0
s(lp1636
(g399
I41
tp1637
atp1638
a(g47
(dp1639
g49
F1.0
s(lp1640
tp1641
a(S'raggiungere'
p1642
(dp1643
S'VERB'
p1644
F1.0
s(lp1645
(g674
I43
tp1646
atp1647
a(S'la'
p1648
(dp1649
S'PRON'
p1650
F2e-06
sS'DET'
p1651
F0.999998
s(lp1652
(g304
I30
tp1653
atp1654
a(S'totale'
p1655
(dp1656
S'NOUN'
p1657
F0.157762
sS'ADJ'
p1658
F0.842238
s(lp1659
(g406
I44
tp1660
atp1661
a(S'indipendenza'
p1662
(dp1663
S'NOUN'
p1664
F1.0
s(lp1665
(g414
I45
tp1666
atp1667
a(g49
(dp1668
g49
F1.0
s(lp1669
(g49
I46
tp1670
atp1671
asS'sk'
p1672
(lp1673
(S'som'
p1674
(dp1675
S'VERB'
p1676
F1.0
s(lp1677
(g7
I0
tp1678
atp1679
a(S'presved\xc4\x8den\xc3\xbd'
p1680
(dp1681
S'VERB'
p1682
F1.0
s(lp1683
(g14
I1
tp1684
atp1685
a(S'o'
p1686
(dp1687
g424
F0.000125
sS'CONJ'
p1688
F0.000101
sS'NOUN'
p1689
F1.8e-05
sS'ADP'
p1690
F0.999756
s(lp1691
(g44
I4
tp1692
atp1693
a(S'tom'
p1694
(dp1695
S'PRON'
p1696
F0.999875
sg424
F0.000125
s(lp1697
tp1698
a(g47
(dp1699
g49
F1.0
s(lp1700
(g14
I1
tp1701
atp1702
a(S'\xc5\xbee'
p1703
(dp1704
g424
F0.0009
sS'CONJ'
p1705
F0.9991
s(lp1706
(g23
I2
tp1707
atp1708
a(S'pri'
p1709
(dp1710
g424
F0.000132
sS'VERB'
p1711
F4e-06
sS'ADP'
p1712
F0.999864
s(lp1713
(g56
I6
tp1714
atp1715
a(S'uva\xc5\xbeovan\xc3\xad'
p1716
(dp1717
S'NOUN'
p1718
F1.0
s(lp1719
tp1720
a(g1686
(dp1721
g424
F0.00040199999999999996
sS'CONJ'
p1722
F6.3e-05
sS'NOUN'
p1723
F1.9999999999999998e-05
sS'ADP'
p1724
F0.999515
s(lp1725
(g75
I7
tp1726
atp1727
a(S'bud\xc3\xbacej'
p1728
(dp1729
S'NOUN'
p1730
F0.004744
sS'ADJ'
p1731
F0.995256
s(lp1732
(g123
I9
tp1733
atp1734
a(S'forme'
p1735
(dp1736
S'NOUN'
p1737
F1.0
s(lp1738
(g104
I10
tp1739
atp1740
a(S'n\xc3\xa1strojov'
p1741
(dp1742
S'NOUN'
p1743
F1.0
s(lp1744
(g137
I13
tp1745
atp1746
a(S'financovania'
p1747
(dp1748
S'NOUN'
p1749
F1.0
s(lp1750
(g151
I12
tp1751
atp1752
a(S'rozvoja'
p1753
(dp1754
S'NOUN'
p1755
F1.0
s(lp1756
(g165
I15
tp1757
atp1758
a(S'je'
p1759
(dp1760
g424
F0.000218
sS'VERB'
p1761
F0.999711
sS'PRON'
p1762
F7.1e-05
s(lp1763
(g170
I16
tp1764
atp1765
a(S'najd\xc3\xb4le\xc5\xbeitej\xc5\xa1ie'
p1766
(dp1767
S'ADV'
p1768
F0.070903
sS'ADJ'
p1769
F0.929097
s(lp1770
(g453
I5
tp1771
atp1772
a(S'ma\xc5\xa5'
p1773
(dp1774
S'VERB'
p1775
F0.75683
sS'NOUN'
p1776
F0.24317
s(lp1777
(g189
I18
tp1778
atp1779
a(S'na'
p1780
(dp1781
g424
F8.499999999999999e-05
sS'CONJ'
p1782
F9e-06
sS'ADP'
p1783
F0.999903
sS'PRT'
p1784
F3e-06
s(lp1785
tp1786
a(S'pam\xc3\xa4ti'
p1787
(dp1788
S'NOUN'
p1789
F1.0
s(lp1790
(g189
I18
tp1791
atp1792
a(g47
(dp1793
g49
F1.0
s(lp1794
tp1795
a(S'\xc5\xbee'
p1796
(dp1797
g424
F0.0004990000000000001
sS'CONJ'
p1798
F0.999501
s(lp1799
(g198
I19
tp1800
atp1801
a(S'prvorad\xc3\xbdm'
p1802
(dp1803
S'ADJ'
p1804
F1.0
s(lp1805
(g222
I21
tp1806
atp1807
a(S'cie\xc4\xbeom'
p1808
(dp1809
S'NOUN'
p1810
F1.0
s(lp1811
(g215
I22
tp1812
atp1813
a(S'rozvojovej'
p1814
(dp1815
S'ADJ'
p1816
F1.0
s(lp1817
(g259
I24
tp1818
atp1819
a(S'politiky'
p1820
(dp1821
S'NOUN'
p1822
F1.0
s(lp1823
(g245
I25
tp1824
atp1825
a(S'by'
p1826
(dp1827
S'PRT'
p1828
F0.99992
sg424
F7.9e-05
s(lp1829
tp1830
a(S'malo'
p1831
(dp1832
S'ADV'
p1833
F0.000135
sS'VERB'
p1834
F0.999864
s(lp1835
(g266
I26
tp1836
atp1837
a(S'by\xc5\xa5'
p1838
(dp1839
S'VERB'
p1840
F1.0
s(lp1841
(g274
I27
tp1842
atp1843
a(S'postupn\xc3\xa9'
p1844
(dp1845
S'ADJ'
p1846
F1.0
s(lp1847
(g295
I33
tp1848
atp1849
a(S'zni\xc5\xbeovanie'
p1850
(dp1851
S'NOUN'
p1852
F1.0
s(lp1853
(g288
I29
tp1854
atp1855
a(S'z\xc3\xa1vislosti'
p1856
(dp1857
S'NOUN'
p1858
F1.0
s(lp1859
tp1860
a(S'a'
p1861
(dp1862
g424
F0.001841
sS'CONJ'
p1863
F0.997999
sS'NOUN'
p1864
F3.9e-05
sS'ADP'
p1865
F1.4e-05
sS'PRT'
p1866
F0.000108
s(lp1867
(g362
I35
tp1868
atp1869
a(S'napokon'
p1870
(dp1871
S'ADV'
p1872
F0.597511
sg424
F0.402489
s(lp1873
(g399
I41
tp1874
atp1875
a(S'dosiahnutie'
p1876
(dp1877
S'NOUN'
p1878
F1.0
s(lp1879
(g674
I43
tp1880
atp1881
a(S'\xc3\xbaplnej'
p1882
(dp1883
S'ADJ'
p1884
F1.0
s(lp1885
(g406
I44
tp1886
atp1887
a(S'nez\xc3\xa1vislosti'
p1888
(dp1889
S'NOUN'
p1890
F1.0
s(lp1891
(g414
I45
tp1892
atp1893
a(S'pr\xc3\xadslu\xc5\xa1nej'
p1894
(dp1895
S'ADJ'
p1896
F1.0
s(lp1897
(g654
I40
tp1898
atp1899
a(S'krajiny'
p1900
(dp1901
S'NOUN'
p1902
F1.0
s(lp1903
(g385
I38
tp1904
atp1905
a(S'od'
p1906
(dp1907
g424
F0.000385
sS'ADP'
p1908
F0.999614
s(lp1909
(g304
I30
tp1910
atp1911
a(S'pomoci'
p1912
(dp1913
S'NOUN'
p1914
F1.0
s(lp1915
(g323
I32
tp1916
atp1917
a(g49
(dp1918
g49
F1.0
s(lp1919
(g49
I46
tp1920
atp1921
asS'pl'
p1922
(lp1923
(S's\xc4\x85dz\xc4\x99'
p1924
(dp1925
S'VERB'
p1926
F1.0
s(lp1927
(g14
I1
tp1928
atp1929
a(g47
(dp1930
g424
F0.0
sg49
F1.0
s(lp1931
tp1932
a(S'i\xc5\xbc'
p1933
(dp1934
S'CONJ'
p1935
F1.0
s(lp1936
(g23
I2
tp1937
atp1938
a(S'w'
p1939
(dp1940
S'ADJ'
p1941
F0.0
sg424
F0.0
sS'NOUN'
p1942
F0.0
sS'ADP'
p1943
F1.000001
s(lp1944
(g56
I6
tp1945
atp1946
a(S'rozwa\xc5\xbcaniach'
p1947
(dp1948
S'NOUN'
p1949
F1.0
s(lp1950
(g75
I7
tp1951
atp1952
a(S'na'
p1953
(dp1954
S'PRT'
p1955
F1.1e-05
sS'VERB'
p1956
F9.9e-05
sS'NOUN'
p1957
F0.0
sS'ADP'
p1958
F0.999884
sg424
F5e-06
s(lp1959
tp1960
a(S'temat'
p1961
(dp1962
S'NOUN'
p1963
F1.0
s(lp1964
(g84
I8
tp1965
atp1966
a(S'przysz\xc5\x82ego'
p1967
(dp1968
S'ADJ'
p1969
F1.0
s(lp1970
(g123
I9
tp1971
atp1972
a(S'kszta\xc5\x82tu'
p1973
(dp1974
S'NOUN'
p1975
F1.0
s(lp1976
(g104
I10
tp1977
atp1978
a(S'instrument\xc3\xb3w'
p1979
(dp1980
S'NOUN'
p1981
F1.0
s(lp1982
(g137
I13
tp1983
atp1984
a(S'finansowych'
p1985
(dp1986
S'ADJ'
p1987
F0.9999999999999999
s(lp1988
(g151
I12
tp1989
atp1990
a(S'na'
p1991
(dp1992
g424
F0.000371
sS'VERB'
p1993
F9.1e-05
sS'NOUN'
p1994
F3e-06
sS'ADP'
p1995
F0.999502
sS'PRT'
p1996
F3.4e-05
s(lp1997
(g158
I14
tp1998
atp1999
a(S'rzecz'
p2000
(dp2001
S'NOUN'
p2002
F1.0
s(lp2003
tp2004
a(S'rozwoju'
p2005
(dp2006
S'NOUN'
p2007
F1.0
s(lp2008
(g165
I15
tp2009
atp2010
a(S'przede'
p2011
(dp2012
S'ADP'
p2013
F1.0
s(lp2014
(g222
I21
tp2015
atp2016
a(S'wszystkim'
p2017
(dp2018
S'ADJ'
p2019
F0.004672
sS'NOUN'
p2020
F0.995327
s(lp2021
(g222
I21
tp2022
atp2023
a(S'musimy'
p2024
(dp2025
S'VERB'
p2026
F1.0
s(lp2027
tp2028
a(S'pami\xc4\x99ta\xc4\x87'
p2029
(dp2030
S'VERB'
p2031
F1.0
s(lp2032
(g189
I18
tp2033
atp2034
a(g47
(dp2035
g424
F0.0
sg49
F1.0
s(lp2036
tp2037
a(S'i\xc5\xbc'
p2038
(dp2039
S'CONJ'
p2040
F1.0
s(lp2041
(g198
I19
tp2042
atp2043
a(S'celem'
p2044
(dp2045
S'NOUN'
p2046
F0.68026
sS'ADP'
p2047
F0.31974
s(lp2048
(g215
I22
tp2049
atp2050
a(S'nadrz\xc4\x99dnym'
p2051
(dp2052
S'ADJ'
p2053
F0.05263199999999999
sS'VERB'
p2054
F0.7624270000000002
sS'NOUN'
p2055
F0.18494200000000002
s(lp2056
(g222
I21
tp2057
atp2058
a(S'polityki'
p2059
(dp2060
S'NOUN'
p2061
F1.0
s(lp2062
(g245
I25
tp2063
atp2064
a(S'rozwoju'
p2065
(dp2066
S'NOUN'
p2067
F1.0
s(lp2068
(g259
I24
tp2069
atp2070
a(S'powinno'
p2071
(dp2072
S'VERB'
p2073
F1.0
s(lp2074
(g266
I26
tp2075
atp2076
a(S'by\xc4\x87'
p2077
(dp2078
S'VERB'
p2079
F1.0
s(lp2080
(g274
I27
tp2081
atp2082
a(S'stopniowe'
p2083
(dp2084
S'ADJ'
p2085
F1.0
s(lp2086
(g295
I33
tp2087
atp2088
a(S'zmniejszanie'
p2089
(dp2090
S'VERB'
p2091
F1.0
s(lp2092
(g288
I29
tp2093
atp2094
a(S'uzale\xc5\xbcnienia'
p2095
(dp2096
S'NOUN'
p2097
F1.0
s(lp2098
tp2099
a(S'od'
p2100
(dp2101
S'VERB'
p2102
F1e-05
sS'NOUN'
p2103
F0.000121
sS'ADP'
p2104
F0.99987
s(lp2105
(g304
I30
tp2106
atp2107
a(S'pomocy'
p2108
(dp2109
S'NOUN'
p2110
F0.9999999999999999
s(lp2111
(g323
I32
tp2112
atp2113
a(g7
(dp2114
S'PRT'
p2115
F0.002747
sS'CONJ'
p2116
F0.99723
sS'NOUN'
p2117
F5.999999999999999e-06
sg424
F6e-06
sS'PRON'
p2118
F1.1e-05
s(lp2119
(g362
I35
tp2120
atp2121
a(S'ostatecznie'
p2122
(dp2123
S'ADV'
p2124
F1.0
s(lp2125
(g399
I41
tp2126
atp2127
a(S'ca\xc5\x82kowita'
p2128
(dp2129
S'ADJ'
p2130
F1.0
s(lp2131
(g406
I44
tp2132
atp2133
a(S'samodzielno\xc5\x9b\xc4\x87'
p2134
(dp2135
S'NOUN'
p2136
F1.0
s(lp2137
(g414
I45
tp2138
atp2139
a(S'danego'
p2140
(dp2141
S'VERB'
p2142
F0.003142
sS'ADJ'
p2143
F0.9968580000000001
s(lp2144
tp2145
a(S'kraju'
p2146
(dp2147
S'NOUN'
p2148
F1.0
s(lp2149
(g385
I38
tp2150
atp2151
a(g49
(dp2152
g49
F1.0
s(lp2153
(g49
I46
tp2154
atp2155
asS'sl'
p2156
(lp2157
(S'prepri\xc4\x8dan'
p2158
(dp2159
S'ADJ'
p2160
F1.0
s(lp2161
(g14
I1
tp2162
atp2163
a(S'sem'
p2164
(dp2165
S'ADV'
p2166
F0.016354
sS'PRT'
p2167
F0.000904
sS'VERB'
p2168
F0.982742
s(lp2169
(g7
I0
tp2170
atp2171
a(g47
(dp2172
g49
F1.0
s(lp2173
tp2174
a(S'da'
p2175
(dp2176
S'PRT'
p2177
F0.000628
sS'CONJ'
p2178
F0.999327
sS'VERB'
p2179
F4.4e-05
sg424
F2e-06
s(lp2180
(g23
I2
tp2181
atp2182
a(S'moramo'
p2183
(dp2184
S'VERB'
p2185
F1.0
s(lp2186
(g44
I4
tp2187
atp2188
a(S'pri'
p2189
(dp2190
S'ADP'
p2191
F1.0
s(lp2192
(g56
I6
tp2193
atp2194
a(S'razmi\xc5\xa1ljanju'
p2195
(dp2196
S'NOUN'
p2197
F1.0
s(lp2198
tp2199
a(g1686
(dp2200
S'NOUN'
p2201
F5e-06
sS'ADP'
p2202
F0.999995
s(lp2203
(g75
I7
tp2204
atp2205
a(S'prihodnji'
p2206
(dp2207
S'ADJ'
p2208
F1.0
s(lp2209
(g123
I9
tp2210
atp2211
a(S'obliki'
p2212
(dp2213
S'NOUN'
p2214
F1.0
s(lp2215
(g104
I10
tp2216
atp2217
a(S'instrumentov'
p2218
(dp2219
S'NOUN'
p2220
F1.0
s(lp2221
(g137
I13
tp2222
atp2223
a(S'za'
p2224
(dp2225
S'ADV'
p2226
F6e-06
sg424
F1e-06
sS'ADP'
p2227
F0.9999929999999999
s(lp2228
(g158
I14
tp2229
atp2230
a(S'financiranje'
p2231
(dp2232
S'NOUN'
p2233
F1.0
s(lp2234
(g151
I12
tp2235
atp2236
a(S'razvoja'
p2237
(dp2238
S'NOUN'
p2239
F1.0
s(lp2240
(g165
I15
tp2241
atp2242
a(S'imeti'
p2243
(dp2244
S'VERB'
p2245
F1.0
s(lp2246
(g222
I21
tp2247
atp2248
a(S'pred'
p2249
(dp2250
S'ADP'
p2251
F1.0
s(lp2252
(g222
I21
tp2253
atp2254
a(S'o\xc4\x8dmi'
p2255
(dp2256
S'NOUN'
p2257
F1.0
s(lp2258
(g222
I21
tp2259
atp2260
a(S'predvsem'
p2261
(dp2262
S'PRT'
p2263
F1.0
s(lp2264
(g222
I21
tp2265
atp2266
a(S'vodilo'
p2267
(dp2268
S'VERB'
p2269
F0.334937
sS'NOUN'
p2270
F0.665063
s(lp2271
tp2272
a(g47
(dp2273
g49
F1.0
s(lp2274
tp2275
a(S'da'
p2276
(dp2277
S'PRT'
p2278
F0.000319
sS'CONJ'
p2279
F0.999647
sS'VERB'
p2280
F3.2e-05
sg424
F2e-06
s(lp2281
(g281
I28
tp2282
atp2283
a(S'mora'
p2284
(dp2285
S'VERB'
p2286
F0.998076
sS'NOUN'
p2287
F0.001924
s(lp2288
(g266
I26
tp2289
atp2290
a(S'biti'
p2291
(dp2292
S'VERB'
p2293
F0.999899
sS'NOUN'
p2294
F0.00010099999999999999
s(lp2295
(g274
I27
tp2296
atp2297
a(S'osrednji'
p2298
(dp2299
S'ADJ'
p2300
F0.9999999999999999
s(lp2301
(g222
I21
tp2302
atp2303
a(S'namen'
p2304
(dp2305
S'NOUN'
p2306
F1.0
s(lp2307
(g215
I22
tp2308
atp2309
a(S'razvojne'
p2310
(dp2311
S'ADJ'
p2312
F1.0000010000000001
s(lp2313
(g259
I24
tp2314
atp2315
a(S'pomo\xc4\x8di'
p2316
(dp2317
S'NOUN'
p2318
F1.0
s(lp2319
(g245
I25
tp2320
atp2321
a(S'postopoma'
p2322
(dp2323
S'ADV'
p2324
F1.0
s(lp2325
(g295
I33
tp2326
atp2327
a(S'zmanj\xc5\xa1evati'
p2328
(dp2329
S'VERB'
p2330
F1.0
s(lp2331
(g288
I29
tp2332
atp2333
a(S'odvisnost'
p2334
(dp2335
S'NOUN'
p2336
F1.0
s(lp2337
tp2338
a(S'od'
p2339
(dp2340
S'ADP'
p2341
F1.0
s(lp2342
(g304
I30
tp2343
atp2344
a(S'pomo\xc4\x8di'
p2345
(dp2346
S'NOUN'
p2347
F1.0
s(lp2348
(g323
I32
tp2349
atp2350
a(S'in'
p2351
(dp2352
S'ADV'
p2353
F8.2e-05
sg424
F3.6e-05
sS'CONJ'
p2354
F0.999842
sS'NOUN'
p2355
F4e-05
s(lp2356
(g362
I35
tp2357
atp2358
a(S'na'
p2359
(dp2360
S'ADP'
p2361
F1.0
s(lp2362
(g392
I39
tp2363
atp2364
a(S'koncu'
p2365
(dp2366
S'NOUN'
p2367
F1.0
s(lp2368
(g399
I41
tp2369
atp2370
a(S'zagotoviti'
p2371
(dp2372
S'VERB'
p2373
F1.0
s(lp2374
(g674
I43
tp2375
atp2376
a(S'popolno'
p2377
(dp2378
S'ADV'
p2379
F0.000611
sS'ADJ'
p2380
F0.99939
s(lp2381
(g406
I44
tp2382
atp2383
a(S'neodvisnost'
p2384
(dp2385
S'NOUN'
p2386
F1.0
s(lp2387
tp2388
a(S'dr\xc5\xbeave'
p2389
(dp2390
S'NOUN'
p2391
F1.0
s(lp2392
(g385
I38
tp2393
atp2394
a(S'prejemnice'
p2395
(dp2396
S'NOUN'
p2397
F1.0
s(lp2398
(g414
I45
tp2399
atp2400
a(g49
(dp2401
g49
F1.0
s(lp2402
(g49
I46
tp2403
atp2404
asS'es'
p2405
(lp2406
(S'considero'
p2407
(dp2408
S'VERB'
p2409
F1.0
s(lp2410
(g14
I1
tp2411
atp2412
a(S'que'
p2413
(dp2414
g424
F0.0
sS'CONJ'
p2415
F1.0
s(lp2416
(g23
I2
tp2417
atp2418
a(S'lo'
p2419
(dp2420
S'PRON'
p2421
F0.027961
sS'DET'
p2422
F0.972039
s(lp2423
tp2424
a(S'm\xc3\xa1s'
p2425
(dp2426
S'ADV'
p2427
F0.999962
sS'CONJ'
p2428
F3.8e-05
s(lp2429
(g30
I3
tp2430
atp2431
a(S'importante'
p2432
(dp2433
S'VERB'
p2434
F0.415744
sS'ADJ'
p2435
F0.584256
s(lp2436
(g44
I4
tp2437
atp2438
a(g1861
(dp2439
g424
F0.00037
sS'CONJ'
p2440
F7e-06
sS'ADP'
p2441
F0.999623
s(lp2442
(g666
I42
tp2443
atp2444
a(S'la'
p2445
(dp2446
g424
F0.0
sS'PRON'
p2447
F0.0
sS'DET'
p2448
F0.999999
sS'NOUN'
p2449
F0.0
s(lp2450
(g453
I5
tp2451
atp2452
a(S'hora'
p2453
(dp2454
S'NOUN'
p2455
F1.0
s(lp2456
(g56
I6
tp2457
atp2458
a(S'de'
p2459
(dp2460
g424
F0.0
sS'CONJ'
p2461
F0.345844
sS'ADP'
p2462
F0.654156
s(lp2463
tp2464
a(S'analizar'
p2465
(dp2466
S'VERB'
p2467
F1.0
s(lp2468
(g75
I7
tp2469
atp2470
a(S'la'
p2471
(dp2472
S'PRON'
p2473
F4e-06
sS'DET'
p2474
F0.999995
sS'NOUN'
p2475
F0.0
sg424
F1e-06
s(lp2476
tp2477
a(S'estructura'
p2478
(dp2479
S'NOUN'
p2480
F1.0
s(lp2481
(g104
I10
tp2482
atp2483
a(S'de'
p2484
(dp2485
g424
F0.0
sS'CONJ'
p2486
F1.7e-05
sS'ADP'
p2487
F0.999983
s(lp2488
tp2489
a(S'los'
p2490
(dp2491
S'PRON'
p2492
F0.0
sS'DET'
p2493
F1.0
s(lp2494
(g84
I8
tp2495
atp2496
a(S'futuros'
p2497
(dp2498
S'NOUN'
p2499
F0.010654
sS'ADJ'
p2500
F0.989346
s(lp2501
(g123
I9
tp2502
atp2503
a(S'instrumentos'
p2504
(dp2505
S'NOUN'
p2506
F1.0
s(lp2507
(g137
I13
tp2508
atp2509
a(S'de'
p2510
(dp2511
g424
F2.9e-05
sS'CONJ'
p2512
F0.000449
sS'ADP'
p2513
F0.999522
s(lp2514
(g144
I11
tp2515
atp2516
a(S'financiaci\xc3\xb3n'
p2517
(dp2518
S'NOUN'
p2519
F1.0
s(lp2520
(g151
I12
tp2521
atp2522
a(S'del'
p2523
(dp2524
S'ADP'
p2525
F1.0
s(lp2526
(g158
I14
tp2527
atp2528
a(S'desarrollo'
p2529
(dp2530
S'NOUN'
p2531
F1.0
s(lp2532
(g165
I15
tp2533
atp2534
a(S'es'
p2535
(dp2536
S'VERB'
p2537
F1.0
s(lp2538
(g170
I16
tp2539
atp2540
a(S'recordar'
p2541
(dp2542
S'VERB'
p2543
F1.0
s(lp2544
(g189
I18
tp2545
atp2546
a(S'que'
p2547
(dp2548
g424
F0.0
sS'CONJ'
p2549
F1.0
s(lp2550
(g198
I19
tp2551
atp2552
a(S'el'
p2553
(dp2554
S'PRON'
p2555
F4.6e-05
sS'DET'
p2556
F0.999954
s(lp2557
(g207
I20
tp2558
atp2559
a(S'objetivo'
p2560
(dp2561
S'ADJ'
p2562
F0.005583
sS'NOUN'
p2563
F0.994417
s(lp2564
(g215
I22
tp2565
atp2566
a(S'primordial'
p2567
(dp2568
S'ADJ'
p2569
F1.0
s(lp2570
(g222
I21
tp2571
atp2572
a(S'de'
p2573
(dp2574
g424
F0.0
sS'CONJ'
p2575
F5.7e-05
sS'ADP'
p2576
F0.999943
s(lp2577
tp2578
a(S'la'
p2579
(dp2580
S'NOUN'
p2581
F5e-06
sS'PRON'
p2582
F0.0
sS'DET'
p2583
F0.999995
sg424
F1e-06
s(lp2584
tp2585
a(S'pol\xc3\xadtica'
p2586
(dp2587
S'ADJ'
p2588
F0.08563
sS'NOUN'
p2589
F0.91437
s(lp2590
(g245
I25
tp2591
atp2592
a(S'de'
p2593
(dp2594
g424
F2.9e-05
sS'CONJ'
p2595
F0.000538
sS'ADP'
p2596
F0.999433
s(lp2597
(g229
I23
tp2598
atp2599
a(S'desarrollo'
p2600
(dp2601
S'NOUN'
p2602
F1.0
s(lp2603
(g259
I24
tp2604
atp2605
a(S'deber\xc3\xada'
p2606
(dp2607
S'VERB'
p2608
F1.0
s(lp2609
(g266
I26
tp2610
atp2611
a(S'ser'
p2612
(dp2613
S'VERB'
p2614
F1.0
sS'NOUN'
p2615
F0.0
s(lp2616
(g274
I27
tp2617
atp2618
a(S'la'
p2619
(dp2620
S'NOUN'
p2621
F0.0
sS'PRON'
p2622
F0.0
sS'DET'
p2623
F0.999999
sg424
F0.0
s(lp2624
tp2625
a(S'reducci\xc3\xb3n'
p2626
(dp2627
S'NOUN'
p2628
F1.0
s(lp2629
(g288
I29
tp2630
atp2631
a(S'gradual'
p2632
(dp2633
S'ADJ'
p2634
F1.0
s(lp2635
(g295
I33
tp2636
atp2637
a(S'de'
p2638
(dp2639
g424
F0.0
sS'CONJ'
p2640
F5.7e-05
sS'ADP'
p2641
F0.999943
s(lp2642
tp2643
a(S'la'
p2644
(dp2645
g424
F0.0
sS'PRON'
p2646
F0.0
sS'DET'
p2647
F0.999999
sS'NOUN'
p2648
F0.0
s(lp2649
tp2650
a(S'dependencia'
p2651
(dp2652
S'NOUN'
p2653
F1.0
s(lp2654
(g304
I30
tp2655
atp2656
a(S'de'
p2657
(dp2658
g424
F0.0
sS'CONJ'
p2659
F1.7e-05
sS'ADP'
p2660
F0.999983
s(lp2661
(g252
I31
tp2662
atp2663
a(S'la'
p2664
(dp2665
g424
F0.0
sS'PRON'
p2666
F0.0
sS'DET'
p2667
F0.999999
sS'NOUN'
p2668
F0.0
s(lp2669
tp2670
a(S'ayuda'
p2671
(dp2672
S'NOUN'
p2673
F1.0
s(lp2674
(g323
I32
tp2675
atp2676
a(S'y'
p2677
(dp2678
g424
F0.001694
sS'CONJ'
p2679
F0.998306
s(lp2680
(g362
I35
tp2681
atp2682
a(S'que'
p2683
(dp2684
g424
F1e-06
sS'CONJ'
p2685
F0.999999
s(lp2686
(g371
I36
tp2687
atp2688
a(g47
(dp2689
g49
F1.0
s(lp2690
(g47
I34
tp2691
atp2692
a(S'en'
p2693
(dp2694
g424
F0.001287
sS'CONJ'
p2695
F6.5e-05
sS'ADP'
p2696
F0.998648
s(lp2697
(g399
I41
tp2698
atp2699
a(S'\xc3\xbaltima'
p2700
(dp2701
S'ADJ'
p2702
F1.0
s(lp2703
(g399
I41
tp2704
atp2705
a(S'instancia'
p2706
(dp2707
S'NOUN'
p2708
F1.0
s(lp2709
tp2710
a(g47
(dp2711
g49
F1.0
s(lp2712
(g399
I41
tp2713
atp2714
a(S'el'
p2715
(dp2716
S'PRON'
p2717
F1e-05
sS'DET'
p2718
F0.99999
s(lp2719
(g378
I37
tp2720
atp2721
a(S'pa\xc3\xads'
p2722
(dp2723
S'NOUN'
p2724
F1.0
s(lp2725
(g385
I38
tp2726
atp2727
a(S'en'
p2728
(dp2729
S'ADJ'
p2730
F1.0
s(lp2731
(g392
I39
tp2732
atp2733
a(S'cuesti\xc3\xb3n'
p2734
(dp2735
S'ADJ'
p2736
F1.0
s(lp2737
(g654
I40
tp2738
atp2739
a(S'alcance'
p2740
(dp2741
S'VERB'
p2742
F0.937629
sS'NOUN'
p2743
F0.062371
s(lp2744
(g674
I43
tp2745
atp2746
a(S'la'
p2747
(dp2748
S'PRON'
p2749
F2.1e-05
sS'DET'
p2750
F0.999976
sS'NOUN'
p2751
F0.0
sg424
F3e-06
s(lp2752
tp2753
a(S'independencia'
p2754
(dp2755
S'NOUN'
p2756
F1.0
s(lp2757
(g414
I45
tp2758
atp2759
a(S'total'
p2760
(dp2761
S'NOUN'
p2762
F0.00061
sS'ADJ'
p2763
F0.999346
sg424
F4.4e-05
s(lp2764
(g406
I44
tp2765
atp2766
a(g49
(dp2767
g49
F1.0
s(lp2768
(g49
I46
tp2769
atp2770
as.