(dp0
S'fr'
p1
(lp2
(S'il'
p3
(dp4
S'PRON'
p5
F1.0
s(lp6
(S'it'
p7
I0
tp8
atp9
a(S'est'
p10
(dp11
S'VERB'
p12
F0.999978
sS'NOUN'
p13
F2.2e-05
s(lp14
(S'is'
p15
I1
tp16
atp17
a(S'indispensable'
p18
(dp19
S'NOUN'
p20
F0.029095
sS'ADJ'
p21
F0.970905
s(lp22
(S'essential'
p23
I2
tp24
atp25
a(S'que'
p26
(dp27
S'ADV'
p28
F0.002953
sS'PRON'
p29
F0.082879
sS'CONJ'
p30
F0.914168
s(lp31
(S'for'
p32
I3
tp33
atp34
a(S'la'
p35
(dp36
S'PRON'
p37
F0.002415
sS'DET'
p38
F0.997583
sS'NOUN'
p39
F2e-06
s(lp40
tp41
a(S'moldavie'
p42
(dp43
S'NOUN'
p44
F0.494127
sS'VERB'
p45
F0.002396
sS'ADJ'
p46
F0.503475
s(lp47
(S'moldova'
p48
I4
tp49
atp50
a(S'applique'
p51
(dp52
S'VERB'
p53
F0.97003
sS'NOUN'
p54
F0.029969
s(lp55
(S'proceed'
p56
I6
tp57
atp58
a(S'le'
p59
(dp60
S'PRON'
p61
F0.000173
sS'DET'
p62
F0.999827
s(lp63
(S'the'
p64
I8
tp65
atp66
a(S'plan'
p67
(dp68
S'ADJ'
p69
F0.119937
sS'NOUN'
p70
F0.880063
s(lp71
tp72
a(S"d'"
p73
(dp74
S'NOUN'
p75
F0.100214
sS'VERB'
p76
F0.655493
sS'ADJ'
p77
F0.244294
s(lp78
(S'plan'
p79
I19
tp80
atp81
a(S'action'
p82
(dp83
S'NOUN'
p84
F1.0
s(lp85
(S'action'
p86
I18
tp87
atp88
a(S'de'
p89
(dp90
S'ADP'
p91
F1.0
s(lp92
(S'of'
p93
I10
tp94
atp95
a(S'la'
p96
(dp97
S'PRON'
p98
F0.000174
sS'DET'
p99
F0.999822
sS'NOUN'
p100
F4e-06
s(lp101
(S'the'
p102
I11
tp103
atp104
a(S'politique'
p105
(dp106
S'ADJ'
p107
F0.230427
sS'VERB'
p108
F0.000205
sS'NOUN'
p109
F0.769367
s(lp110
(S'policy'
p111
I14
tp112
atp113
a(S'europ\xc3\xa9enne'
p114
(dp115
S'NOUN'
p116
F0.185727
sS'ADJ'
p117
F0.814273
s(lp118
(S'european'
p119
I12
tp120
atp121
a(S'de'
p122
(dp123
S'ADP'
p124
F1.0
s(lp125
tp126
a(S'voisinage'
p127
(dp128
S'NOUN'
p129
F1.0
s(lp130
(S'neighbourhood'
p131
I13
tp132
atp133
a(S'ainsi'
p134
(dp135
S'ADV'
p136
F0.262924
sS'CONJ'
p137
F0.737076
s(lp138
(S'and'
p139
I20
tp140
atp141
a(S'que'
p142
(dp143
S'ADV'
p144
F0.022345
sS'PRON'
p145
F0.173002
sS'CONJ'
p146
F0.804653
s(lp147
(S'of'
p148
I21
tp149
atp150
a(S'les'
p151
(dp152
S'PRON'
p153
F0.028626
sS'DET'
p154
F0.971362
sS'ADP'
p155
F1.2e-05
s(lp156
(S'the'
p157
I22
tp158
atp159
a(S'r\xc3\xa9formes'
p160
(dp161
S'VERB'
p162
F0.028154
sS'NOUN'
p163
F0.971846
s(lp164
(S'reforms'
p165
I23
tp166
atp167
a(S'd\xc3\xa9finies'
p168
(dp169
S'VERB'
p170
F0.931805
sS'ADJ'
p171
F0.068195
s(lp172
(S'set'
p173
I26
tp174
atp175
a(S'dans'
p176
(dp177
S'NOUN'
p178
F1.1e-05
sS'ADP'
p179
F0.999989
s(lp180
(S'in'
p181
I28
tp182
atp183
a(S'le'
p184
(dp185
S'PRON'
p186
F6.2e-05
sS'DET'
p187
F0.999938
s(lp188
(S'the'
p189
I29
tp190
atp191
a(S'document'
p192
(dp193
S'NOUN'
p194
F1.0
s(lp195
(S'document'
p196
I30
tp197
atp198
a(S'"'
p199
(dp200
S'.'
p201
F1.0
s(lp202
(S"'"
p203
I31
tp204
atp205
a(S'repenser'
p206
(dp207
S'VERB'
p208
F1.0
s(lp209
(S'rethink'
p210
I32
tp211
atp212
a(S'la'
p213
(dp214
S'PRON'
p215
F0.000518
sS'DET'
p216
F0.99948
sS'NOUN'
p217
F3e-06
s(lp218
tp219
a(S'moldavie'
p220
(dp221
S'NOUN'
p222
F0.52988
sS'VERB'
p223
F0.001106
sS'ADJ'
p224
F0.469014
s(lp225
(S'moldova'
p226
I33
tp227
atp228
a(g199
(dp229
g201
F1.0
s(lp230
(g203
I34
tp231
atp232
a(g201
(dp233
g201
F1.0
s(lp234
(g201
I35
tp235
atp236
asS'en'
p237
(lp238
(g7
(dp239
S'PRON'
p240
F1.0
s(lp241
(g7
I0
tp242
atp243
a(g15
(dp244
S'VERB'
p245
F1.0
s(lp246
(g15
I1
tp247
atp248
a(g23
(dp249
S'NOUN'
p250
F0.004536
sS'ADJ'
p251
F0.995464
s(lp252
(g23
I2
tp253
atp254
a(g32
(dp255
S'ADP'
p256
F1.0
s(lp257
(g32
I3
tp258
atp259
a(g48
(dp260
S'ADV'
p261
F0.000568
sS'ADJ'
p262
F0.002411
sS'VERB'
p263
F0.009354
sS'NOUN'
p264
F0.987667
s(lp265
(g48
I4
tp266
atp267
a(S'to'
p268
(dp269
S'ADV'
p270
F0.0
sS'PRT'
p271
F1.0
sS'ADP'
p272
F0.0
s(lp273
(g268
I5
tp274
atp275
a(g56
(dp276
S'VERB'
p277
F1.0
s(lp278
(g56
I6
tp279
atp280
a(S'with'
p281
(dp282
S'ADP'
p283
F1.0
s(lp284
(g281
I7
tp285
atp286
a(g64
(dp287
S'NOUN'
p288
F1e-06
sS'DET'
p289
F0.999999
s(lp290
(g64
I8
tp291
atp292
a(S'implementation'
p293
(dp294
S'NOUN'
p295
F1.0
s(lp296
(g293
I9
tp297
atp298
a(g93
(dp299
S'ADP'
p300
F1.0
s(lp301
(g93
I10
tp302
atp303
a(g102
(dp304
S'NOUN'
p305
F1e-06
sS'DET'
p306
F0.999999
s(lp307
(g102
I11
tp308
atp309
a(g119
(dp310
S'NOUN'
p311
F0.10881199999999999
sS'VERB'
p312
F1.1e-05
sS'ADJ'
p313
F0.891178
s(lp314
(g119
I12
tp315
atp316
a(g131
(dp317
S'NOUN'
p318
F1.0
s(lp319
(g131
I13
tp320
atp321
a(g111
(dp322
S'NOUN'
p323
F1.0
s(lp324
(g111
I14
tp325
atp326
a(S'('
p327
(dp328
g201
F1.0
s(lp329
(g327
I15
tp330
atp331
a(S'enp'
p332
(dp333
S'ADJ'
p334
F0.036686
sS'VERB'
p335
F0.004182
sS'NOUN'
p336
F0.959131
s(lp337
(g332
I16
tp338
atp339
a(S')'
p340
(dp341
g201
F1.0
s(lp342
(g340
I17
tp343
atp344
a(g86
(dp345
S'NOUN'
p346
F1.0
s(lp347
(g86
I18
tp348
atp349
a(g79
(dp350
S'VERB'
p351
F0.003822
sS'NOUN'
p352
F0.996178
s(lp353
(g79
I19
tp354
atp355
a(g139
(dp356
S'CONJ'
p357
F0.999998
sS'NOUN'
p358
F2e-06
s(lp359
(g139
I20
tp360
atp361
a(g148
(dp362
S'ADP'
p363
F1.0
s(lp364
(g148
I21
tp365
atp366
a(g157
(dp367
S'NOUN'
p368
F1.1e-05
sS'DET'
p369
F0.999989
s(lp370
(g157
I22
tp371
atp372
a(g165
(dp373
S'VERB'
p374
F0.003197
sS'NOUN'
p375
F0.996803
s(lp376
(g165
I23
tp377
atp378
a(S'it'
p379
(dp380
S'PRON'
p381
F1.0
s(lp382
(g379
I24
tp383
atp384
a(S'has'
p385
(dp386
S'VERB'
p387
F1.0
s(lp388
(g385
I25
tp389
atp390
a(g173
(dp391
S'ADJ'
p392
F3e-06
sS'VERB'
p393
F0.999916
sS'NOUN'
p394
F8e-05
s(lp395
(g173
I26
tp396
atp397
a(S'out'
p398
(dp399
S'ADV'
p400
F0.035194
sS'NOUN'
p401
F0.000422
sS'ADP'
p402
F0.066615
sS'PRT'
p403
F0.897662
sS'VERB'
p404
F3e-06
sS'ADJ'
p405
F0.000104
s(lp406
(g398
I27
tp407
atp408
a(g181
(dp409
S'ADV'
p410
F0.000622
sS'PRT'
p411
F6e-06
sS'ADP'
p412
F0.999372
s(lp413
(g181
I28
tp414
atp415
a(g189
(dp416
S'NOUN'
p417
F1e-06
sS'DET'
p418
F0.999999
s(lp419
(g189
I29
tp420
atp421
a(g196
(dp422
S'VERB'
p423
F1.9e-05
sS'NOUN'
p424
F0.999981
s(lp425
(g196
I30
tp426
atp427
a(g203
(dp428
S'PRT'
p429
F0.973093
sg201
F0.026907
s(lp430
(g203
I31
tp431
atp432
a(g210
(dp433
S'VERB'
p434
F0.00793
sS'NOUN'
p435
F0.992071
s(lp436
(g210
I32
tp437
atp438
a(g226
(dp439
S'ADV'
p440
F7e-06
sS'ADJ'
p441
F5.7e-05
sS'VERB'
p442
F0.000297
sS'NOUN'
p443
F0.9996389999999999
s(lp444
(g226
I33
tp445
atp446
a(g203
(dp447
S'PRT'
p448
F0.757032
sg201
F0.242968
s(lp449
(g203
I34
tp450
atp451
a(g201
(dp452
g201
F1.0
s(lp453
(g201
I35
tp454
atp455
asS'nl'
p456
(lp457
(S'het'
p458
(dp459
S'PRON'
p460
F0.962086
sS'DET'
p461
F0.037914
s(lp462
(g7
I0
tp463
atp464
a(S'is'
p465
(dp466
S'VERB'
p467
F1.0
s(lp468
(g15
I1
tp469
atp470
a(S'van'
p471
(dp472
S'ADP'
p473
F1.0
s(lp474
tp475
a(S'groot'
p476
(dp477
S'ADJ'
p478
F1.0
s(lp479
tp480
a(S'belang'
p481
(dp482
S'NOUN'
p483
F1.0
s(lp484
(g23
I2
tp485
atp486
a(S'dat'
p487
(dp488
S'PRON'
p489
F0.09417000000000002
sS'CONJ'
p490
F0.90583
s(lp491
(g32
I3
tp492
atp493
a(S'moldavi\xc3\xab'
p494
(dp495
S'ADJ'
p496
F0.039592
sS'NOUN'
p497
F0.960407
s(lp498
(g48
I4
tp499
atp500
a(S'doorgaat'
p501
(dp502
S'VERB'
p503
F1.0
s(lp504
(g56
I6
tp505
atp506
a(S'met'
p507
(dp508
S'ADP'
p509
F1.0
s(lp510
(g281
I7
tp511
atp512
a(S'de'
p513
(dp514
S'DET'
p515
F1.0
s(lp516
(g64
I8
tp517
atp518
a(S'uitvoering'
p519
(dp520
S'NOUN'
p521
F1.0
s(lp522
(g293
I9
tp523
atp524
a(S'van'
p525
(dp526
S'ADP'
p527
F1.0
s(lp528
(g93
I10
tp529
atp530
a(S'het'
p531
(dp532
S'PRON'
p533
F0.000927
sS'DET'
p534
F0.999073
s(lp535
(g102
I11
tp536
atp537
a(S'enb-actieplan'
p538
(dp539
S'NOUN'
p540
F1.0
s(lp541
(g131
I13
tp542
atp543
a(g327
(dp544
g201
F1.0
s(lp545
(g327
I15
tp546
atp547
a(S'europees'
p548
(dp549
S'NOUN'
p550
F0.020567
sS'ADJ'
p551
F0.979433
s(lp552
tp553
a(S'nabuurschapsbeleid'
p554
(dp555
S'ADJ'
p556
F0.002162
sS'NOUN'
p557
F0.997838
s(lp558
(g332
I16
tp559
atp560
a(g340
(dp561
g201
F1.0
s(lp562
(g340
I17
tp563
atp564
a(S'en'
p565
(dp566
S'CONJ'
p567
F1.0
s(lp568
(g139
I20
tp569
atp570
a(S'de'
p571
(dp572
S'DET'
p573
F1.0
s(lp574
(g157
I22
tp575
atp576
a(S'hervormingen'
p577
(dp578
S'NOUN'
p579
F1.0
s(lp580
(g165
I23
tp581
atp582
a(S'die'
p583
(dp584
S'PRON'
p585
F1.0
s(lp586
(g173
I26
tp587
atp588
a(S'vermeld'
p589
(dp590
S'VERB'
p591
F1.0
s(lp592
tp593
a(S'staan'
p594
(dp595
S'VERB'
p596
F0.997349
sS'NOUN'
p597
F0.002651
s(lp598
(g398
I27
tp599
atp600
a(S'in'
p601
(dp602
S'ADV'
p603
F0.009543
sS'VERB'
p604
F0.0
sS'ADP'
p605
F0.990457
s(lp606
(g181
I28
tp607
atp608
a(S'het'
p609
(dp610
S'PRON'
p611
F0.0009350000000000001
sS'DET'
p612
F0.999065
s(lp613
(g189
I29
tp614
atp615
a(S'document'
p616
(dp617
S'NOUN'
p618
F1.0
s(lp619
(g196
I30
tp620
atp621
a(g199
(dp622
g201
F1.0
s(lp623
(g203
I31
tp624
atp625
a(S'rethink'
p626
(dp627
S'NOUN'
p628
F1.0
s(lp629
(g210
I32
tp630
atp631
a(S'moldova'
p632
(dp633
S'NOUN'
p634
F0.050585
sS'ADJ'
p635
F0.949416
s(lp636
(g226
I33
tp637
atp638
a(S'\xe2\x80\x9d'
p639
(dp640
S'ADJ'
p641
F0.022696
sS'NOUN'
p642
F0.977304
s(lp643
(g203
I34
tp644
atp645
a(g201
(dp646
g201
F1.0
s(lp647
(g201
I35
tp648
atp649
asS'de'
p650
(lp651
(S'f\xc3\xbcr'
p652
(dp653
S'ADP'
p654
F1.0
s(lp655
(g32
I3
tp656
atp657
a(S'die'
p658
(dp659
S'PRON'
p660
F0.000324
sS'DET'
p661
F0.999593
s(lp662
(g48
I4
tp663
atp664
a(S'republik'
p665
(dp666
S'ADJ'
p667
F0.102654
sS'NOUN'
p668
F0.851737
s(lp669
tp670
a(S'moldau'
p671
(dp672
S'ADJ'
p673
F1.0
s(lp674
(g48
I4
tp675
atp676
a(S'ist'
p677
(dp678
S'VERB'
p679
F1.0
s(lp680
(g15
I1
tp681
atp682
a(S'es'
p683
(dp684
S'PRON'
p685
F1.0
s(lp686
(g7
I0
tp687
atp688
a(S'wichtig'
p689
(dp690
S'ADJ'
p691
F1.0
s(lp692
(g23
I2
tp693
atp694
a(S','
p695
(dp696
g201
F1.0
s(lp697
tp698
a(S'dass'
p699
(dp700
S'CONJ'
p701
F1.0
s(lp702
(g268
I5
tp703
atp704
a(S'der'
p705
(dp706
S'PRON'
p707
F0.000266
sS'DET'
p708
F0.999688
s(lp709
(g93
I10
tp710
atp711
a(S'aktionsplan'
p712
(dp713
S'ADJ'
p714
F9.3e-05
sS'NOUN'
p715
F0.999834
s(lp716
(g79
I19
tp717
atp718
a(S'der'
p719
(dp720
S'PRON'
p721
F8.6e-05
sS'DET'
p722
F0.999906
s(lp723
(g102
I11
tp724
atp725
a(S'europ\xc3\xa4ischen'
p726
(dp727
S'ADJ'
p728
F1.0
s(lp729
(g119
I12
tp730
atp731
a(S'nachbarschaftspolitik'
p732
(dp733
S'ADJ'
p734
F0.015186
sS'NOUN'
p735
F0.980094
s(lp736
(g131
I13
tp737
atp738
a(g327
(dp739
g201
F1.0
s(lp740
(g327
I15
tp741
atp742
a(S'dep'
p743
(dp744
S'ADJ'
p745
F0.006334
sS'NOUN'
p746
F0.986417
s(lp747
(g332
I16
tp748
atp749
a(g340
(dp750
g201
F1.0
s(lp751
(g340
I17
tp752
atp753
a(S'und'
p754
(dp755
S'CONJ'
p756
F1.0
s(lp757
(g139
I20
tp758
atp759
a(S'die'
p760
(dp761
S'PRON'
p762
F0.338876
sS'DET'
p763
F0.442742
s(lp764
(g157
I22
tp765
atp766
a(S'im'
p767
(dp768
S'ADP'
p769
F1.0
s(lp770
(g181
I28
tp771
atp772
a(S'dokument'
p773
(dp774
S'ADJ'
p775
F0.179514
sS'NOUN'
p776
F0.816495
s(lp777
(g196
I30
tp778
atp779
a(g199
(dp780
g201
F1.0
s(lp781
(g203
I31
tp782
atp783
a(S'rethink'
p784
(dp785
S'VERB'
p786
F0.115084
sS'ADJ'
p787
F0.750825
s(lp788
(g210
I32
tp789
atp790
a(S'moldova'
p791
(dp792
S'NOUN'
p793
F0.775166
s(lp794
(g226
I33
tp795
atp796
a(g199
(dp797
g201
F1.0
s(lp798
(g203
I34
tp799
atp800
a(S'dargelegten'
p801
(dp802
S'ADJ'
p803
F1.0
s(lp804
(g173
I26
tp805
atp806
a(S'reformen'
p807
(dp808
S'ADJ'
p809
F0.112729
sS'NOUN'
p810
F0.883794
s(lp811
(g165
I23
tp812
atp813
a(S'weiter'
p814
(dp815
S'ADV'
p816
F0.714446
sS'ADJ'
p817
F0.252968
s(lp818
(g56
I6
tp819
atp820
a(S'umgesetzt'
p821
(dp822
S'VERB'
p823
F1.0
s(lp824
(g293
I9
tp825
atp826
a(S'werden'
p827
(dp828
S'VERB'
p829
F0.999996
s(lp830
tp831
a(g201
(dp832
g201
F1.0
s(lp833
(g201
I35
tp834
atp835
asS'it'
p836
(lp837
(S'\xc3\x88'
p838
(dp839
S'VERB'
p840
F1.0
s(lp841
(g7
I0
tp842
atp843
a(S'essenziale'
p844
(dp845
S'NOUN'
p846
F0.022015
sS'ADJ'
p847
F0.977985
s(lp848
(g23
I2
tp849
atp850
a(S'che'
p851
(dp852
S'PRON'
p853
F0.930219
sS'CONJ'
p854
F0.069329
sS'ADJ'
p855
F0.000452
s(lp856
(g32
I3
tp857
atp858
a(S'la'
p859
(dp860
S'PRON'
p861
F0.001193
sS'DET'
p862
F0.998807
s(lp863
tp864
a(S'moldavia'
p865
(dp866
S'ADJ'
p867
F0.041766
sS'NOUN'
p868
F0.958234
s(lp869
(g48
I4
tp870
atp871
a(S'proceda'
p872
(dp873
S'VERB'
p874
F1.0
s(lp875
(g56
I6
tp876
atp877
a(S'con'
p878
(dp879
S'ADP'
p880
F1.0
s(lp881
(g281
I7
tp882
atp883
a(S"l'"
p884
(dp885
S'NOUN'
p886
F0.010333
sS'VERB'
p887
F0.964772
sS'ADJ'
p888
F0.024895
s(lp889
(g64
I8
tp890
atp891
a(S'attuazione'
p892
(dp893
S'NOUN'
p894
F1.0
s(lp895
(g293
I9
tp896
atp897
a(S'del'
p898
(dp899
S'DEF'
p900
F0.001257
sS'ADP'
p901
F0.998743
s(lp902
(g93
I10
tp903
atp904
a(S'piano'
p905
(dp906
S'ADV'
p907
F1.5e-05
sS'ADJ'
p908
F0.006175
sS'VERB'
p909
F0.0
sS'NOUN'
p910
F0.99381
s(lp911
tp912
a(S"d'"
p913
(dp914
S'X'
p915
F1.0
s(lp916
(g79
I19
tp917
atp918
a(S'azione'
p919
(dp920
S'NOUN'
p921
F1.0
s(lp922
(g86
I18
tp923
atp924
a(S'della'
p925
(dp926
S'DEF'
p927
F0.00165
sS'ADP'
p928
F0.99835
s(lp929
(g332
I16
tp930
atp931
a(S'politica'
p932
(dp933
S'ADJ'
p934
F0.033379
sS'NOUN'
p935
F0.966621
s(lp936
(g111
I14
tp937
atp938
a(S'europea'
p939
(dp940
S'NOUN'
p941
F0.010661
sS'ADJ'
p942
F0.989339
s(lp943
(g119
I12
tp944
atp945
a(S'di'
p946
(dp947
S'CONJ'
p948
F4e-06
sS'ADP'
p949
F0.999996
s(lp950
tp951
a(S'vicinato'
p952
(dp953
S'NOUN'
p954
F1.0
s(lp955
(g131
I13
tp956
atp957
a(S'e'
p958
(dp959
S'CONJ'
p960
F1.0
s(lp961
(g139
I20
tp962
atp963
a(S'delle'
p964
(dp965
S'DEF'
p966
F0.017738
sS'ADP'
p967
F0.982262
s(lp968
(g148
I21
tp969
atp970
a(S'riforme'
p971
(dp972
S'NOUN'
p973
F1.0
s(lp974
(g165
I23
tp975
atp976
a(S'illustrate'
p977
(dp978
S'VERB'
p979
F0.587715
sS'ADJ'
p980
F0.412285
s(lp981
(g173
I26
tp982
atp983
a(S'nel'
p984
(dp985
S'ADP'
p986
F1.0
s(lp987
(g181
I28
tp988
atp989
a(S'documento'
p990
(dp991
S'VERB'
p992
F5.6e-05
sS'NOUN'
p993
F0.999944
s(lp994
(g196
I30
tp995
atp996
a(g199
(dp997
g201
F1.0
s(lp998
(g203
I31
tp999
atp1000
a(S'ripensare'
p1001
(dp1002
S'VERB'
p1003
F1.0
s(lp1004
(g210
I32
tp1005
atp1006
a(S'la'
p1007
(dp1008
S'PRON'
p1009
F1e-06
sS'DET'
p1010
F0.999999
s(lp1011
tp1012
a(S'moldavia'
p1013
(dp1014
S'ADJ'
p1015
F0.026662
sS'NOUN'
p1016
F0.973338
s(lp1017
(g226
I33
tp1018
atp1019
a(g199
(dp1020
g201
F1.0
s(lp1021
(g203
I34
tp1022
atp1023
a(g201
(dp1024
g201
F1.0
s(lp1025
(g201
I35
tp1026
atp1027
asS'sk'
p1028
(lp1029
(S'pre'
p1030
(dp1031
g915
F0.000245
sS'ADP'
p1032
F0.999755
s(lp1033
(g32
I3
tp1034
atp1035
a(S'moldavsko'
p1036
(dp1037
S'ADJ'
p1038
F0.000188
sg915
F0.001043
sS'VERB'
p1039
F2e-06
sS'NOUN'
p1040
F0.998768
s(lp1041
(g48
I4
tp1042
atp1043
a(S'je'
p1044
(dp1045
g915
F0.000539
sS'VERB'
p1046
F0.999431
sS'PRON'
p1047
F3.1e-05
s(lp1048
(g15
I1
tp1049
atp1050
a(S've\xc4\xbemi'
p1051
(dp1052
S'ADV'
p1053
F1.0
s(lp1054
tp1055
a(S'd\xc3\xb4le\xc5\xbeit\xc3\xa9'
p1056
(dp1057
S'ADJ'
p1058
F1.0
s(lp1059
(g23
I2
tp1060
atp1061
a(g695
(dp1062
g201
F1.0
s(lp1063
tp1064
a(S'aby'
p1065
(dp1066
g915
F4.9e-05
sS'CONJ'
p1067
F0.999951
s(lp1068
(g268
I5
tp1069
atp1070
a(S'pokra\xc4\x8dovalo'
p1071
(dp1072
S'VERB'
p1073
F1.0
s(lp1074
(g56
I6
tp1075
atp1076
a(S'vo'
p1077
(dp1078
S'ADP'
p1079
F1.0
s(lp1080
(g281
I7
tp1081
atp1082
a(S'vykon\xc3\xa1van\xc3\xad'
p1083
(dp1084
S'VERB'
p1085
F0.004783
sS'NOUN'
p1086
F0.995217
s(lp1087
(g293
I9
tp1088
atp1089
a(S'ak\xc4\x8dn\xc3\xa9ho'
p1090
(dp1091
S'ADJ'
p1092
F1.0
s(lp1093
(g86
I18
tp1094
atp1095
a(S'pl\xc3\xa1nu'
p1096
(dp1097
S'NOUN'
p1098
F1.0
s(lp1099
(g79
I19
tp1100
atp1101
a(S'eur\xc3\xb3pskej'
p1102
(dp1103
S'ADJ'
p1104
F1.0
s(lp1105
(g119
I12
tp1106
atp1107
a(S'susedskej'
p1108
(dp1109
S'ADJ'
p1110
F1.0
s(lp1111
(g131
I13
tp1112
atp1113
a(S'politiky'
p1114
(dp1115
S'NOUN'
p1116
F1.0
s(lp1117
(g111
I14
tp1118
atp1119
a(g327
(dp1120
g201
F1.0
s(lp1121
(g327
I15
tp1122
atp1123
a(S'esp'
p1124
(dp1125
S'VERB'
p1126
F0.36086100000000004
sS'NOUN'
p1127
F0.63914
s(lp1128
(g332
I16
tp1129
atp1130
a(g340
(dp1131
g201
F1.0
s(lp1132
(g340
I17
tp1133
atp1134
a(S'a'
p1135
(dp1136
g915
F0.001552
sS'CONJ'
p1137
F0.998283
sS'NOUN'
p1138
F3.7999999999999995e-05
sS'ADP'
p1139
F0.0
sS'PRT'
p1140
F0.000127
s(lp1141
(g139
I20
tp1142
atp1143
a(S'v'
p1144
(dp1145
g915
F0.00041600000000000003
sS'ADP'
p1146
F0.999584
s(lp1147
(g157
I22
tp1148
atp1149
a(S'uskuto\xc4\x8d\xc5\x88ovan\xc3\xad'
p1150
(dp1151
S'NOUN'
p1152
F0.31826
sS'VERB'
p1153
F0.38751699999999994
sS'ADJ'
p1154
F0.29422200000000004
s(lp1155
tp1156
a(S'reforiem'
p1157
(dp1158
S'NOUN'
p1159
F1.0
s(lp1160
(g165
I23
tp1161
atp1162
a(g695
(dp1163
g201
F1.0
s(lp1164
tp1165
a(S'ktor\xc3\xa9'
p1166
(dp1167
S'PRON'
p1168
F1.0
s(lp1169
(g379
I24
tp1170
atp1171
a(S'si'
p1172
(dp1173
S'PRT'
p1174
F0.968144
sS'VERB'
p1175
F0.031854
sg915
F2e-06
s(lp1176
(g385
I25
tp1177
atp1178
a(S'stanovilo'
p1179
(dp1180
S'VERB'
p1181
F1.0
s(lp1182
(g173
I26
tp1183
atp1184
a(g1144
(dp1185
g915
F0.00018899999999999999
sS'ADP'
p1186
F0.999811
s(lp1187
(g181
I28
tp1188
atp1189
a(S'dokumente'
p1190
(dp1191
S'NOUN'
p1192
F1.0
s(lp1193
(g196
I30
tp1194
atp1195
a(S'nazvanom'
p1196
(dp1197
S'VERB'
p1198
F1.0
s(lp1199
tp1200
a(S'rethink'
p1201
(dp1202
S'ADV'
p1203
F0.000111
sS'ADJ'
p1204
F0.004026
sS'VERB'
p1205
F0.000796
sS'NOUN'
p1206
F0.995059
sg915
F7e-06
s(lp1207
(g210
I32
tp1208
atp1209
a(S'moldova'
p1210
(dp1211
S'ADV'
p1212
F0.003076
sS'ADJ'
p1213
F0.453985
sS'VERB'
p1214
F0.022386999999999994
sS'NOUN'
p1215
F0.520552
s(lp1216
(g226
I33
tp1217
atp1218
a(g201
(dp1219
g201
F1.0
s(lp1220
(g201
I35
tp1221
atp1222
asS'pl'
p1223
(lp1224
(S'bardzo'
p1225
(dp1226
S'ADV'
p1227
F1.0
s(lp1228
tp1229
a(S'wa\xc5\xbcne'
p1230
(dp1231
S'ADJ'
p1232
F1.0
s(lp1233
(g23
I2
tp1234
atp1235
a(S'jest'
p1236
(dp1237
S'VERB'
p1238
F1.0
s(lp1239
(g15
I1
tp1240
atp1241
a(g695
(dp1242
g915
F0.0
sg201
F1.0
s(lp1243
tp1244
a(S'aby'
p1245
(dp1246
S'PRT'
p1247
F0.005436
sS'CONJ'
p1248
F0.994564
s(lp1249
(g32
I3
tp1250
atp1251
a(S'mo\xc5\x82dawia'
p1252
(dp1253
S'VERB'
p1254
F0.964202
sS'NOUN'
p1255
F0.0358
s(lp1256
(g48
I4
tp1257
atp1258
a(S'nadal'
p1259
(dp1260
S'ADV'
p1261
F0.999986
sS'VERB'
p1262
F1.4e-05
s(lp1263
(g56
I6
tp1264
atp1265
a(S'wdra\xc5\xbca\xc5\x82a'
p1266
(dp1267
S'ADJ'
p1268
F0.00016
sS'VERB'
p1269
F0.9988980000000002
sS'NOUN'
p1270
F0.000943
s(lp1271
(g293
I9
tp1272
atp1273
a(S'plan'
p1274
(dp1275
S'NOUN'
p1276
F1.0
s(lp1277
(g79
I19
tp1278
atp1279
a(S'dzia\xc5\x82ania'
p1280
(dp1281
S'VERB'
p1282
F0.871196
sS'NOUN'
p1283
F0.128804
s(lp1284
(g86
I18
tp1285
atp1286
a(S'europejskiej'
p1287
(dp1288
S'ADJ'
p1289
F1.000001
s(lp1290
(g119
I12
tp1291
atp1292
a(S'polityki'
p1293
(dp1294
S'NOUN'
p1295
F1.0
s(lp1296
(g111
I14
tp1297
atp1298
a(S's\xc4\x85siedztwa'
p1299
(dp1300
S'NOUN'
p1301
F1.0
s(lp1302
(g131
I13
tp1303
atp1304
a(g327
(dp1305
S'NOUN'
p1306
F6.4e-05
sg201
F0.999936
s(lp1307
(g327
I15
tp1308
atp1309
a(S'eps'
p1310
(dp1311
S'ADJ'
p1312
F0.0008480000000000001
sg915
F0.001054
sS'NOUN'
p1313
F0.9981000000000002
s(lp1314
(g332
I16
tp1315
atp1316
a(g340
(dp1317
g201
F1.0
s(lp1318
(g340
I17
tp1319
atp1320
a(S'oraz'
p1321
(dp1322
S'CONJ'
p1323
F1.0
s(lp1324
(g139
I20
tp1325
atp1326
a(S'reformy'
p1327
(dp1328
S'NOUN'
p1329
F1.0
s(lp1330
(g165
I23
tp1331
atp1332
a(S'okre\xc5\x9blone'
p1333
(dp1334
S'VERB'
p1335
F0.986772
sS'ADJ'
p1336
F0.013228
s(lp1337
(g173
I26
tp1338
atp1339
a(S'w'
p1340
(dp1341
S'ADJ'
p1342
F0.0
sg915
F0.0
sS'NOUN'
p1343
F0.0
sS'ADP'
p1344
F0.999999
s(lp1345
(g181
I28
tp1346
atp1347
a(S'dokumencie'
p1348
(dp1349
S'NOUN'
p1350
F1.0
s(lp1351
(g196
I30
tp1352
atp1353
a(g199
(dp1354
g201
F1.0
s(lp1355
(g203
I31
tp1356
atp1357
a(S'rethink'
p1358
(dp1359
S'ADV'
p1360
F0.001601
sS'ADJ'
p1361
F0.00382
sS'VERB'
p1362
F0.005628000000000001
sS'NOUN'
p1363
F0.988951
s(lp1364
tp1365
a(S'moldova'
p1366
(dp1367
S'ADJ'
p1368
F0.017456
sS'VERB'
p1369
F0.15838599999999997
sS'NOUN'
p1370
F0.822387
sS'NUM'
p1371
F2.4999999999999998e-05
sg915
F0.001747
s(lp1372
(g210
I32
tp1373
atp1374
a(S'\xe2\x80\x9d'
p1375
(dp1376
g201
F1.0
s(lp1377
(g203
I34
tp1378
atp1379
a(g201
(dp1380
g201
F1.0
s(lp1381
(g201
I35
tp1382
atp1383
asS'sl'
p1384
(lp1385
(S'za'
p1386
(dp1387
S'ADV'
p1388
F5.7e-05
sg915
F8e-06
sS'ADP'
p1389
F0.9999340000000001
s(lp1390
(g32
I3
tp1391
atp1392
a(S'republiko'
p1393
(dp1394
S'NOUN'
p1395
F1.0
s(lp1396
tp1397
a(S'moldavijo'
p1398
(dp1399
S'ADV'
p1400
F0.001337
sS'ADJ'
p1401
F0.0008270000000000002
sS'VERB'
p1402
F0.853453
sS'NOUN'
p1403
F0.14408900000000002
sg915
F0.000295
s(lp1404
(g48
I4
tp1405
atp1406
a(S'je'
p1407
(dp1408
S'PRON'
p1409
F0.001011
sS'VERB'
p1410
F0.998979
sg915
F1e-05
s(lp1411
(g15
I1
tp1412
atp1413
a(S'bistveno'
p1414
(dp1415
S'ADV'
p1416
F0.726998
sS'ADJ'
p1417
F0.273002
s(lp1418
(g23
I2
tp1419
atp1420
a(g695
(dp1421
g201
F1.0
s(lp1422
tp1423
a(S'da'
p1424
(dp1425
S'PRT'
p1426
F0.000319
sS'CONJ'
p1427
F0.999647
sS'VERB'
p1428
F3.2e-05
sg915
F2e-06
s(lp1429
(g268
I5
tp1430
atp1431
a(S'nadaljuje'
p1432
(dp1433
S'VERB'
p1434
F1.0
s(lp1435
(g56
I6
tp1436
atp1437
a(S'z'
p1438
(dp1439
S'ADP'
p1440
F1.0
s(lp1441
(g281
I7
tp1442
atp1443
a(S'izvajanjem'
p1444
(dp1445
S'NOUN'
p1446
F1.0
s(lp1447
(g293
I9
tp1448
atp1449
a(S'akcijskega'
p1450
(dp1451
S'ADJ'
p1452
F1.0
s(lp1453
(g86
I18
tp1454
atp1455
a(S'na\xc4\x8drta'
p1456
(dp1457
S'NOUN'
p1458
F1.0
s(lp1459
(g79
I19
tp1460
atp1461
a(S'evropske'
p1462
(dp1463
S'ADJ'
p1464
F1.0
s(lp1465
(g119
I12
tp1466
atp1467
a(S'sosedske'
p1468
(dp1469
S'ADV'
p1470
F0.0
sS'NOUN'
p1471
F0.002729
sS'VERB'
p1472
F0.0
sS'ADJ'
p1473
F0.997269
s(lp1474
(g131
I13
tp1475
atp1476
a(S'politike'
p1477
(dp1478
S'NOUN'
p1479
F1.000001
s(lp1480
(g111
I14
tp1481
atp1482
a(g327
(dp1483
g201
F1.0
s(lp1484
(g327
I15
tp1485
atp1486
a(S'esp'
p1487
(dp1488
S'ADJ'
p1489
F0.00036100000000000005
sg915
F0.012341
sS'ADV'
p1490
F7.6e-05
sS'NOUN'
p1491
F0.9872239999999999
s(lp1492
(g332
I16
tp1493
atp1494
a(g340
(dp1495
g201
F1.0
s(lp1496
(g340
I17
tp1497
atp1498
a(S'in'
p1499
(dp1500
S'ADV'
p1501
F0.000127
sg915
F1.1e-05
sS'CONJ'
p1502
F0.999831
sS'NOUN'
p1503
F3.1e-05
s(lp1504
(g139
I20
tp1505
atp1506
a(S'reform'
p1507
(dp1508
S'NOUN'
p1509
F1.0
s(lp1510
(g165
I23
tp1511
atp1512
a(g1144
(dp1513
S'ADP'
p1514
F1.0
s(lp1515
(g181
I28
tp1516
atp1517
a(S'dokumentu'
p1518
(dp1519
S'NOUN'
p1520
F1.0
s(lp1521
(g196
I30
tp1522
atp1523
a(g199
(dp1524
g201
F1.0
s(lp1525
tp1526
a(S'rethink'
p1527
(dp1528
S'ADJ'
p1529
F0.044552
sS'NOUN'
p1530
F0.955446
s(lp1531
(g210
I32
tp1532
atp1533
a(S'moldova'
p1534
(dp1535
S'ADV'
p1536
F0.003208
sS'ADJ'
p1537
F0.13233499999999995
sS'VERB'
p1538
F0.040444
sS'NOUN'
p1539
F0.8231339999999999
sS'PRON'
p1540
F0.000884
s(lp1541
(g210
I32
tp1542
atp1543
a(g199
(dp1544
g201
F1.0
s(lp1545
(g203
I31
tp1546
atp1547
a(g327
(dp1548
g201
F1.0
s(lp1549
(g210
I32
tp1550
atp1551
a(S'ponovni'
p1552
(dp1553
S'ADJ'
p1554
F0.9999999999999999
s(lp1555
(g210
I32
tp1556
atp1557
a(S'premislek'
p1558
(dp1559
S'NOUN'
p1560
F1.0
s(lp1561
tp1562
a(S'o'
p1563
(dp1564
S'NOUN'
p1565
F3.7e-05
sS'ADP'
p1566
F0.999963
s(lp1567
(g210
I32
tp1568
atp1569
a(S'moldaviji'
p1570
(dp1571
S'ADV'
p1572
F1.3e-05
sS'ADJ'
p1573
F0.0
sS'VERB'
p1574
F0.0
sS'NOUN'
p1575
F0.999984
s(lp1576
(g226
I33
tp1577
atp1578
a(g340
(dp1579
g201
F1.0
s(lp1580
(g203
I34
tp1581
atp1582
a(g201
(dp1583
g201
F1.0
s(lp1584
(g201
I35
tp1585
atp1586
asS'es'
p1587
(lp1588
(S'es'
p1589
(dp1590
S'VERB'
p1591
F1.0
s(lp1592
(g15
I1
tp1593
atp1594
a(S'esencial'
p1595
(dp1596
S'ADJ'
p1597
F1.0
s(lp1598
(g23
I2
tp1599
atp1600
a(S'que'
p1601
(dp1602
g915
F1e-06
sS'CONJ'
p1603
F0.999999
s(lp1604
(g32
I3
tp1605
atp1606
a(S'moldova'
p1607
(dp1608
S'ADJ'
p1609
F4e-05
sS'VERB'
p1610
F0.989192
sS'NOUN'
p1611
F0.010768
s(lp1612
(g48
I4
tp1613
atp1614
a(S'prosiga'
p1615
(dp1616
S'VERB'
p1617
F1.0
s(lp1618
(g56
I6
tp1619
atp1620
a(S'con'
p1621
(dp1622
S'ADP'
p1623
F1.0
s(lp1624
(g281
I7
tp1625
atp1626
a(S'la'
p1627
(dp1628
S'NOUN'
p1629
F0.0
sS'PRON'
p1630
F0.0
sS'DET'
p1631
F0.999999
sg915
F0.0
s(lp1632
(g64
I8
tp1633
atp1634
a(S'aplicaci\xc3\xb3n'
p1635
(dp1636
S'NOUN'
p1637
F1.0
s(lp1638
(g293
I9
tp1639
atp1640
a(S'del'
p1641
(dp1642
S'ADP'
p1643
F1.0
s(lp1644
(g93
I10
tp1645
atp1646
a(S'plan'
p1647
(dp1648
g915
F0.0
sS'NOUN'
p1649
F1.0
s(lp1650
(g79
I19
tp1651
atp1652
a(S'de'
p1653
(dp1654
g915
F2.9e-05
sS'CONJ'
p1655
F0.000449
sS'ADP'
p1656
F0.999522
s(lp1657
(g93
I10
tp1658
atp1659
a(S'acci\xc3\xb3n'
p1660
(dp1661
S'NOUN'
p1662
F1.0
s(lp1663
(g86
I18
tp1664
atp1665
a(S'de'
p1666
(dp1667
g915
F0.0
sS'CONJ'
p1668
F1.7e-05
sS'ADP'
p1669
F0.999983
s(lp1670
tp1671
a(S'la'
p1672
(dp1673
S'NOUN'
p1674
F1e-06
sS'PRON'
p1675
F0.0
sS'DET'
p1676
F0.999998
sg915
F0.0
s(lp1677
(g102
I11
tp1678
atp1679
a(S'pol\xc3\xadtica'
p1680
(dp1681
S'ADJ'
p1682
F0.016621
sS'NOUN'
p1683
F0.983379
s(lp1684
(g111
I14
tp1685
atp1686
a(S'europea'
p1687
(dp1688
S'ADJ'
p1689
F1.0
s(lp1690
(g119
I12
tp1691
atp1692
a(S'de'
p1693
(dp1694
g915
F3.1e-05
sS'CONJ'
p1695
F0.001485
sS'ADP'
p1696
F0.998485
s(lp1697
(g93
I10
tp1698
atp1699
a(S'vecindad'
p1700
(dp1701
S'NOUN'
p1702
F1.0
s(lp1703
(g131
I13
tp1704
atp1705
a(g327
(dp1706
g201
F1.0
s(lp1707
(g327
I15
tp1708
atp1709
a(S'pev'
p1710
(dp1711
S'ADJ'
p1712
F0.007485
sS'VERB'
p1713
F0.003975
sS'NOUN'
p1714
F0.98854
s(lp1715
(g332
I16
tp1716
atp1717
a(g340
(dp1718
g201
F1.0
s(lp1719
(g340
I17
tp1720
atp1721
a(S'y'
p1722
(dp1723
g915
F0.000335
sS'CONJ'
p1724
F0.999665
s(lp1725
(g139
I20
tp1726
atp1727
a(S'con'
p1728
(dp1729
S'ADP'
p1730
F1.0
s(lp1731
(g148
I21
tp1732
atp1733
a(S'las'
p1734
(dp1735
S'PRON'
p1736
F0.0
sS'DET'
p1737
F1.0
s(lp1738
(g157
I22
tp1739
atp1740
a(S'reformas'
p1741
(dp1742
S'VERB'
p1743
F0.002263
sS'NOUN'
p1744
F0.997737
s(lp1745
(g165
I23
tp1746
atp1747
a(S'que'
p1748
(dp1749
g915
F1.4e-05
sS'CONJ'
p1750
F0.999986
s(lp1751
(g379
I24
tp1752
atp1753
a(S'ha'
p1754
(dp1755
S'VERB'
p1756
F1.0
s(lp1757
(g385
I25
tp1758
atp1759
a(S'establecido'
p1760
(dp1761
S'VERB'
p1762
F0.99992
sS'ADJ'
p1763
F8e-05
s(lp1764
(g173
I26
tp1765
atp1766
a(S'en'
p1767
(dp1768
g915
F0.0
sS'CONJ'
p1769
F0.0
sS'ADP'
p1770
F1.0
s(lp1771
(g181
I28
tp1772
atp1773
a(S'el'
p1774
(dp1775
S'PRON'
p1776
F5e-06
sS'DET'
p1777
F0.999995
s(lp1778
(g189
I29
tp1779
atp1780
a(S'documento'
p1781
(dp1782
S'NOUN'
p1783
F1.0
s(lp1784
(g196
I30
tp1785
atp1786
a(g199
(dp1787
g201
F1.0
s(lp1788
(g203
I31
tp1789
atp1790
a(S'reflexi\xc3\xb3n'
p1791
(dp1792
S'NOUN'
p1793
F1.0
s(lp1794
tp1795
a(S'sobre'
p1796
(dp1797
S'NOUN'
p1798
F4e-06
sS'ADP'
p1799
F0.999996
s(lp1800
(g210
I32
tp1801
atp1802
a(S'moldova'
p1803
(dp1804
S'ADJ'
p1805
F0.028771
sS'VERB'
p1806
F0.113227
sS'NOUN'
p1807
F0.858002
s(lp1808
(g226
I33
tp1809
atp1810
a(g199
(dp1811
g201
F1.0
s(lp1812
(g203
I34
tp1813
atp1814
a(g201
(dp1815
g201
F1.0
s(lp1816
(g201
I35
tp1817
atp1818
as.