(dp0
S'fr'
p1
(lp2
(S'cependant'
p3
(dp4
S'ADV'
p5
F1.0
s(lp6
(S'however'
p7
I0
tp8
atp9
a(S','
p10
(dp11
S'.'
p12
F1.0
s(lp13
(g10
I1
tp14
atp15
a(S'nous'
p16
(dp17
S'PRON'
p18
F1.0
s(lp19
(S'we'
p20
I2
tp21
atp22
a(S'restons'
p23
(dp24
S'VERB'
p25
F1.0
s(lp26
(S'are'
p27
I3
tp28
atp29
a(S'vigilants'
p30
(dp31
S'ADJ'
p32
F1.0
s(lp33
(S'vigilant'
p34
I5
tp35
atp36
a(g10
(dp37
g12
F1.0
s(lp38
(g10
I23
tp39
atp40
a(S'car'
p41
(dp42
S'CONJ'
p43
F0.996098
sS'NOUN'
p44
F0.003902
s(lp45
(S'as'
p46
I24
tp47
atp48
a(S'nous'
p49
(dp50
S'PRON'
p51
F1.0
s(lp52
(S'there'
p53
I25
tp54
atp55
a(S'savons'
p56
(dp57
S'VERB'
p58
F0.999232
sS'NOUN'
p59
F0.000768
s(lp60
(S'memorandums'
p61
I20
tp62
atp63
a(S"qu'"
p64
(dp65
S'NOUN'
p66
F0.043773
sS'VERB'
p67
F0.769388
sS'ADJ'
p68
F0.186838
s(lp69
(g53
I25
tp70
atp71
a(S'il'
p72
(dp73
S'PRON'
p74
F1.0
s(lp75
tp76
a(S'y'
p77
(dp78
S'PRON'
p79
F1.0
s(lp80
(g53
I25
tp81
atp82
a(S'a'
p83
(dp84
S'VERB'
p85
F1.0
s(lp86
(S'is'
p87
I26
tp88
atp89
a(S'un'
p90
(dp91
S'NOUN'
p92
F0.000323
sS'NUM'
p93
F0.00466
sS'DET'
p94
F0.995018
s(lp95
(g83
I27
tp96
atp97
a(S'risque'
p98
(dp99
S'VERB'
p100
F0.0015489999999999998
sS'NOUN'
p101
F0.998451
s(lp102
(S'risk'
p103
I10
tp104
atp105
a(S'que'
p106
(dp107
S'ADV'
p108
F0.006399
sS'PRON'
p109
F0.196244
sS'CONJ'
p110
F0.797357
s(lp111
(S'that'
p112
I11
tp113
atp114
a(S'les'
p115
(dp116
S'PRON'
p117
F0.000717
sS'DET'
p118
F0.999272
sS'ADP'
p119
F1.2e-05
s(lp120
(S'the'
p121
I12
tp122
atp123
a(S'autorit\xc3\xa9s'
p124
(dp125
S'NOUN'
p126
F1.0
s(lp127
(S'authorities'
p128
I14
tp129
atp130
a(S'g\xc3\xa9orgiennes'
p131
(dp132
S'NOUN'
p133
F0.015475
sS'ADJ'
p134
F0.984525
s(lp135
(S'georgian'
p136
I13
tp137
atp138
a(S'cessent'
p139
(dp140
S'VERB'
p141
F1.0
s(lp142
(S'cease'
p143
I16
tp144
atp145
a(S"d'"
p146
(dp147
S'NOUN'
p148
F0.087886
sS'VERB'
p149
F0.7995690000000001
sS'ADJ'
p150
F0.112546
s(lp151
(S'to'
p152
I17
tp153
atp154
a(S'appliquer'
p155
(dp156
S'VERB'
p157
F1.0
s(lp158
(S'apply'
p159
I18
tp160
atp161
a(S'ces'
p162
(dp163
S'PRON'
p164
F1.0
s(lp165
(S'the'
p166
I19
tp167
atp168
a(S'protocoles'
p169
(dp170
S'NOUN'
p171
F1.0
s(lp172
(g61
I20
tp173
atp174
a(S"d'"
p175
(dp176
S'NOUN'
p177
F0.032441
sS'VERB'
p178
F0.694014
sS'ADJ'
p179
F0.273544
s(lp180
(S'of'
p181
I21
tp182
atp183
a(S'accord'
p184
(dp185
S'NOUN'
p186
F1.0
s(lp187
(S'understanding'
p188
I22
tp189
atp190
a(g10
(dp191
g12
F1.0
s(lp192
tp193
a(S'compte'
p194
(dp195
S'VERB'
p196
F0.902177
sS'NOUN'
p197
F0.097823
s(lp198
(g61
I20
tp199
atp200
a(S'tenu'
p201
(dp202
S'NOUN'
p203
F0.001487
sS'VERB'
p204
F0.993374
sS'ADJ'
p205
F0.005139
s(lp206
tp207
a(S'du'
p208
(dp209
S'ADP'
p210
F1.0
s(lp211
(S'the'
p212
I9
tp213
atp214
a(S'manque'
p215
(dp216
S'ADJ'
p217
F0.046894
sS'VERB'
p218
F4e-06
sS'NOUN'
p219
F0.953102
s(lp220
(S'lack'
p221
I28
tp222
atp223
a(S'de'
p224
(dp225
S'ADP'
p226
F1.0
s(lp227
(S'of'
p228
I29
tp229
atp230
a(S'confiance'
p231
(dp232
S'NOUN'
p233
F1.0
s(lp234
(S'trust'
p235
I31
tp236
atp237
a(S'mutuelle'
p238
(dp239
S'ADJ'
p240
F1.0
s(lp241
(S'mutual'
p242
I30
tp243
atp244
a(S'qui'
p245
(dp246
S'PRON'
p247
F1.0
s(lp248
(S'regard'
p249
I7
tp250
atp251
a(S'subsiste'
p252
(dp253
S'VERB'
p254
F0.9999990000000001
s(lp255
(g61
I20
tp256
atp257
a(S'entre'
p258
(dp259
S'VERB'
p260
F5.4e-05
sS'ADP'
p261
F0.999945
s(lp262
(S'between'
p263
I32
tp264
atp265
a(S'les'
p266
(dp267
S'PRON'
p268
F0.000569
sS'DET'
p269
F0.999429
sS'ADP'
p270
F2e-06
s(lp271
(S'the'
p272
I33
tp273
atp274
a(S'parties'
p275
(dp276
S'ADJ'
p277
F0.074865
sS'VERB'
p278
F0.001884
sS'NOUN'
p279
F0.923252
s(lp280
(S'parties'
p281
I34
tp282
atp283
a(g12
(dp284
g12
F1.0
s(lp285
(g12
I35
tp286
atp287
asS'en'
p288
(lp289
(g7
(dp290
S'ADV'
p291
F1.0
s(lp292
(g7
I0
tp293
atp294
a(g10
(dp295
g12
F1.0
s(lp296
(g10
I1
tp297
atp298
a(g20
(dp299
S'PRON'
p300
F1.0
s(lp301
(g20
I2
tp302
atp303
a(g27
(dp304
S'VERB'
p305
F1.0
sS'NOUN'
p306
F0.0
s(lp307
(g27
I3
tp308
atp309
a(S'being'
p310
(dp311
S'NOUN'
p312
F1e-06
sS'VERB'
p313
F0.999772
sS'ADJ'
p314
F0.000228
s(lp315
(g310
I4
tp316
atp317
a(g34
(dp318
S'ADJ'
p319
F1.0
s(lp320
(g34
I5
tp321
atp322
a(S'with'
p323
(dp324
S'ADP'
p325
F1.0
s(lp326
(g323
I6
tp327
atp328
a(g249
(dp329
S'VERB'
p330
F0.017924000000000002
sS'NOUN'
p331
F0.982076
s(lp332
(g249
I7
tp333
atp334
a(S'to'
p335
(dp336
S'ADV'
p337
F1e-06
sS'PRT'
p338
F0.999989
sS'ADP'
p339
F1e-05
s(lp340
(g335
I8
tp341
atp342
a(g212
(dp343
S'NOUN'
p344
F2e-06
sS'DET'
p345
F0.999998
s(lp346
(g212
I9
tp347
atp348
a(g103
(dp349
S'VERB'
p350
F0.006092
sS'NOUN'
p351
F0.993909
s(lp352
(g103
I10
tp353
atp354
a(g112
(dp355
S'ADV'
p356
F0.000562
sS'DET'
p357
F0.11328300000000001
sS'ADP'
p358
F0.886155
s(lp359
(g112
I11
tp360
atp361
a(g121
(dp362
S'NOUN'
p363
F1e-06
sS'DET'
p364
F0.999999
s(lp365
(g121
I12
tp366
atp367
a(g136
(dp368
S'NOUN'
p369
F0.187652
sS'ADJ'
p370
F0.812347
s(lp371
(g136
I13
tp372
atp373
a(g128
(dp374
S'NOUN'
p375
F1.0
s(lp376
(g128
I14
tp377
atp378
a(S'will'
p379
(dp380
S'VERB'
p381
F0.999999
sS'NOUN'
p382
F1e-06
s(lp383
(g379
I15
tp384
atp385
a(g143
(dp386
S'VERB'
p387
F1.0
s(lp388
(g143
I16
tp389
atp390
a(g152
(dp391
S'ADV'
p392
F0.0
sS'PRT'
p393
F1.0
sS'ADP'
p394
F0.0
s(lp395
(g152
I17
tp396
atp397
a(g159
(dp398
S'VERB'
p399
F1.0
s(lp400
(g159
I18
tp401
atp402
a(g166
(dp403
S'NOUN'
p404
F5e-06
sS'DET'
p405
F0.999995
s(lp406
(g166
I19
tp407
atp408
a(g61
(dp409
S'NOUN'
p410
F1.0
s(lp411
(g61
I20
tp412
atp413
a(g181
(dp414
S'ADP'
p415
F1.0
s(lp416
(g181
I21
tp417
atp418
a(g188
(dp419
S'ADJ'
p420
F0.007602
sS'VERB'
p421
F0.194467
sS'NOUN'
p422
F0.797931
s(lp423
(g188
I22
tp424
atp425
a(g10
(dp426
g12
F1.0
s(lp427
(g10
I23
tp428
atp429
a(g46
(dp430
S'ADV'
p431
F0.468409
sS'ADP'
p432
F0.531591
s(lp433
(g46
I24
tp434
atp435
a(g53
(dp436
S'ADV'
p437
F0.001706
sS'ADJ'
p438
F0.0
sS'DET'
p439
F0.998294
sS'ADP'
p440
F0.0
s(lp441
(g53
I25
tp442
atp443
a(g87
(dp444
S'VERB'
p445
F1.0
s(lp446
(g87
I26
tp447
atp448
a(g83
(dp449
S'NOUN'
p450
F0.0
sS'DET'
p451
F1.0
s(lp452
(g83
I27
tp453
atp454
a(g221
(dp455
S'VERB'
p456
F0.001741
sS'NOUN'
p457
F0.998259
s(lp458
(g221
I28
tp459
atp460
a(g228
(dp461
S'ADP'
p462
F1.0
s(lp463
(g228
I29
tp464
atp465
a(g242
(dp466
S'ADJ'
p467
F1.0
s(lp468
(g242
I30
tp469
atp470
a(g235
(dp471
S'VERB'
p472
F0.000198
sS'NOUN'
p473
F0.999802
s(lp474
(g235
I31
tp475
atp476
a(g263
(dp477
S'ADV'
p478
F0.000132
sS'ADP'
p479
F0.999868
s(lp480
(g263
I32
tp481
atp482
a(g272
(dp483
S'NOUN'
p484
F1.1e-05
sS'DET'
p485
F0.999989
s(lp486
(g272
I33
tp487
atp488
a(g281
(dp489
S'VERB'
p490
F0.00043
sS'NOUN'
p491
F0.99957
s(lp492
(g281
I34
tp493
atp494
a(g12
(dp495
g12
F1.0
s(lp496
(g12
I35
tp497
atp498
asS'nl'
p499
(lp500
(S'we'
p501
(dp502
S'PRON'
p503
F1.0
s(lp504
(g20
I2
tp505
atp506
a(S'blijven'
p507
(dp508
S'VERB'
p509
F0.9999370000000001
sS'NOUN'
p510
F6.3e-05
s(lp511
tp512
a(S'echter'
p513
(dp514
S'ADV'
p515
F0.999797
sS'ADJ'
p516
F0.000203
s(lp517
(g7
I0
tp518
atp519
a(S'waakzaam'
p520
(dp521
S'ADJ'
p522
F1.0
s(lp523
(g34
I5
tp524
atp525
a(S'met'
p526
(dp527
S'ADP'
p528
F1.0
s(lp529
(g323
I6
tp530
atp531
a(S'betrekking'
p532
(dp533
S'NOUN'
p534
F1.0
s(lp535
tp536
a(S'tot'
p537
(dp538
S'CONJ'
p539
F1.8e-05
sS'ADP'
p540
F0.999982
s(lp541
(g249
I7
tp542
atp543
a(S'het'
p544
(dp545
S'PRON'
p546
F0.000927
sS'DET'
p547
F0.999072
s(lp548
(g212
I9
tp549
atp550
a(S'risico'
p551
(dp552
S'NOUN'
p553
F1.0
s(lp554
(g103
I10
tp555
atp556
a(S'dat'
p557
(dp558
S'PRON'
p559
F0.041986
sS'CONJ'
p560
F0.958014
s(lp561
(g112
I11
tp562
atp563
a(S'de'
p564
(dp565
S'DET'
p566
F1.0
s(lp567
(g121
I12
tp568
atp569
a(S'georgische'
p570
(dp571
S'NOUN'
p572
F0.002172
sS'ADJ'
p573
F0.997828
s(lp574
(g136
I13
tp575
atp576
a(S'autoriteiten'
p577
(dp578
S'NOUN'
p579
F1.0
s(lp580
(g128
I14
tp581
atp582
a(S'de'
p583
(dp584
S'DET'
p585
F1.0
s(lp586
(g166
I19
tp587
atp588
a(S'intentieverklaringen'
p589
(dp590
S'NOUN'
p591
F1.0
s(lp592
tp593
a(S'niet'
p594
(dp595
S'ADV'
p596
F0.999991
sS'PRON'
p597
F4e-06
sS'VERB'
p598
F6e-06
sS'X'
p599
F0.0
s(lp600
tp601
a(S'langer'
p602
(dp603
S'ADJ'
p604
F1.0
s(lp605
(g143
I16
tp606
atp607
a(S'naleven'
p608
(dp609
S'VERB'
p610
F0.542967
sS'NOUN'
p611
F0.457033
s(lp612
(g61
I20
tp613
atp614
a(g10
(dp615
g12
F1.0
s(lp616
(g10
I23
tp617
atp618
a(S'daar'
p619
(dp620
S'ADV'
p621
F0.025279
sS'CONJ'
p622
F0.974721
s(lp623
(g53
I25
tp624
atp625
a(S'het'
p626
(dp627
S'PRON'
p628
F0.533973
sS'DET'
p629
F0.466026
s(lp630
(g83
I27
tp631
atp632
a(S'aan'
p633
(dp634
S'ADV'
p635
F0.208571
sS'ADP'
p636
F0.791429
s(lp637
tp638
a(S'wederzijds'
p639
(dp640
S'ADJ'
p641
F1.0
s(lp642
(g242
I30
tp643
atp644
a(S'vertrouwen'
p645
(dp646
S'VERB'
p647
F0.94557
sS'NOUN'
p648
F0.05443
s(lp649
(g235
I31
tp650
atp651
a(S'tussen'
p652
(dp653
S'ADP'
p654
F1.0
s(lp655
(g263
I32
tp656
atp657
a(S'de'
p658
(dp659
S'DET'
p660
F1.0
s(lp661
(g272
I33
tp662
atp663
a(S'partijen'
p664
(dp665
S'NOUN'
p666
F1.0
s(lp667
(g281
I34
tp668
atp669
a(S'ontbreekt'
p670
(dp671
S'VERB'
p672
F1.0
s(lp673
(g221
I28
tp674
atp675
a(g12
(dp676
g12
F1.0
s(lp677
(g12
I35
tp678
atp679
asS'de'
p680
(lp681
(S'trotzdem'
p682
(dp683
S'ADV'
p684
F0.997895
sS'CONJ'
p685
F0.002105
s(lp686
(g7
I0
tp687
atp688
a(S'beobachten'
p689
(dp690
S'VERB'
p691
F1.0
s(lp692
(g34
I5
tp693
atp694
a(S'wir'
p695
(dp696
S'PRON'
p697
F1.0
s(lp698
(g20
I2
tp699
atp700
a(S'das'
p701
(dp702
S'PRON'
p703
F0.070875
sS'DET'
p704
F0.924495
s(lp705
(g212
I9
tp706
atp707
a(S'risiko'
p708
(dp709
S'ADJ'
p710
F0.144765
sS'NOUN'
p711
F0.755699
s(lp712
(g103
I10
tp713
atp714
a(g10
(dp715
g12
F1.0
s(lp716
tp717
a(S'dass'
p718
(dp719
S'CONJ'
p720
F1.0
s(lp721
(g112
I11
tp722
atp723
a(S'die'
p724
(dp725
S'PRON'
p726
F0.003644
sS'DET'
p727
F0.996227
s(lp728
(g121
I12
tp729
atp730
a(S'georgischen'
p731
(dp732
S'ADJ'
p733
F1.0
s(lp734
(g136
I13
tp735
atp736
a(S'beh\xc3\xb6rden'
p737
(dp738
S'ADJ'
p739
F0.003806
sS'NOUN'
p740
F0.99423
s(lp741
(g128
I14
tp742
atp743
a(S'aufh\xc3\xb6ren'
p744
(dp745
S'VERB'
p746
F1.0
s(lp747
(g143
I16
tp748
atp749
a(S'k\xc3\xb6nnten'
p750
(dp751
S'VERB'
p752
F1.0
s(lp753
tp754
a(g10
(dp755
g12
F1.0
s(lp756
(g152
I17
tp757
atp758
a(S'die'
p759
(dp760
S'PRON'
p761
F0.227634
sS'DET'
p762
F0.76976
s(lp763
(g166
I19
tp764
atp765
a(S'vereinbarungen'
p766
(dp767
S'ADJ'
p768
F0.135834
sS'NOUN'
p769
F0.861069
s(lp770
(g61
I20
tp771
atp772
a(S'umzusetzen'
p773
(dp774
S'VERB'
p775
F1.0
s(lp776
(g159
I18
tp777
atp778
a(g10
(dp779
g12
F1.0
s(lp780
(g10
I23
tp781
atp782
a(S'da'
p783
(dp784
S'ADV'
p785
F0.170661
sS'CONJ'
p786
F0.829301
s(lp787
(g46
I24
tp788
atp789
a(S'ein'
p790
(dp791
S'PRT'
p792
F0.111069
sS'DET'
p793
F0.888766
s(lp794
(g83
I27
tp795
atp796
a(S'mangel'
p797
(dp798
S'VERB'
p799
F1.0
s(lp800
tp801
a(S'an'
p802
(dp803
S'ADP'
p804
F0.97617
s(lp805
(g221
I28
tp806
atp807
a(S'gegenseitigem'
p808
(dp809
S'ADJ'
p810
F1.0
s(lp811
(g242
I30
tp812
atp813
a(S'vertrauen'
p814
(dp815
S'VERB'
p816
F1.0
s(lp817
(g235
I31
tp818
atp819
a(S'zwischen'
p820
(dp821
S'PRT'
p822
F2e-06
sS'ADP'
p823
F0.999998
s(lp824
(g263
I32
tp825
atp826
a(S'den'
p827
(dp828
S'PRON'
p829
F7.2e-05
sS'DET'
p830
F0.999926
s(lp831
(g272
I33
tp832
atp833
a(S'parteien'
p834
(dp835
S'ADJ'
p836
F0.021663
sS'NOUN'
p837
F0.96235
s(lp838
(g281
I34
tp839
atp840
a(S'besteht'
p841
(dp842
S'VERB'
p843
F1.0
s(lp844
(g87
I26
tp845
atp846
a(g10
(dp847
g12
F1.0
s(lp848
tp849
a(S'sehr'
p850
(dp851
S'ADV'
p852
F1.0
s(lp853
tp854
a(S'aufmerksam'
p855
(dp856
S'ADJ'
p857
F1.0
s(lp858
(g34
I5
tp859
atp860
a(g12
(dp861
g12
F1.0
s(lp862
(g12
I35
tp863
atp864
asS'it'
p865
(lp866
(S'continueremo'
p867
(dp868
S'VERB'
p869
F1.0
s(lp870
(g20
I2
tp871
atp872
a(S'comunque'
p873
(dp874
S'ADV'
p875
F1.0
s(lp876
(g7
I0
tp877
atp878
a(g83
(dp879
S'CONJ'
p880
F0.000251
sS'ADP'
p881
F0.999749
s(lp882
(g323
I6
tp883
atp884
a(S'vigilare'
p885
(dp886
S'VERB'
p887
F1.0
s(lp888
(g34
I5
tp889
atp890
a(g10
(dp891
g12
F1.0
s(lp892
(g10
I23
tp893
atp894
a(S'giacch\xc3\xa9'
p895
(dp896
S'CONJ'
p897
F1.0
s(lp898
(g46
I24
tp899
atp900
a(S"c'"
p901
(dp902
S'NOUN'
p903
F1.0
s(lp904
(g53
I25
tp905
atp906
a(S'\xc3\xa8'
p907
(dp908
S'VERB'
p909
F1.0
s(lp910
(g87
I26
tp911
atp912
a(S'il'
p913
(dp914
S'DET'
p915
F1.0
s(lp916
(g212
I9
tp917
atp918
a(S'rischio'
p919
(dp920
S'VERB'
p921
F0.000144
sS'NOUN'
p922
F0.999856
s(lp923
(g103
I10
tp924
atp925
a(S'che'
p926
(dp927
S'PRON'
p928
F0.892983
sS'CONJ'
p929
F0.105035
sS'ADJ'
p930
F0.001982
s(lp931
(g112
I11
tp932
atp933
a(S'le'
p934
(dp935
S'PRON'
p936
F0.00035
sS'DET'
p937
F0.99965
s(lp938
tp939
a(S'autorit\xc3\xa0'
p940
(dp941
S'NOUN'
p942
F1.0
s(lp943
(g128
I14
tp944
atp945
a(S'georgiane'
p946
(dp947
S'ADJ'
p948
F1.0
s(lp949
(g136
I13
tp950
atp951
a(S'cessino'
p952
(dp953
S'VERB'
p954
F1.0
s(lp955
(g143
I16
tp956
atp957
a(S'di'
p958
(dp959
S'CONJ'
p960
F1e-06
sS'ADP'
p961
F0.999999
s(lp962
(g152
I17
tp963
atp964
a(S'applicare'
p965
(dp966
S'VERB'
p967
F1.0
s(lp968
(g159
I18
tp969
atp970
a(S'i'
p971
(dp972
S'DET'
p973
F1.0
s(lp974
(g166
I19
tp975
atp976
a(S'memorandum'
p977
(dp978
S'NOUN'
p979
F1.0
s(lp980
(g61
I20
tp981
atp982
a(S'di'
p983
(dp984
S'CONJ'
p985
F1.2e-05
sS'ADP'
p986
F0.999988
s(lp987
(g181
I21
tp988
atp989
a(S'intesa'
p990
(dp991
S'ADJ'
p992
F0.183778
sS'VERB'
p993
F0.021968
sS'NOUN'
p994
F0.794254
s(lp995
(g188
I22
tp996
atp997
a(g10
(dp998
g12
F1.0
s(lp999
tp1000
a(S'per'
p1001
(dp1002
S'CONJ'
p1003
F0.02998
sS'ADP'
p1004
F0.97002
s(lp1005
(g335
I8
tp1006
atp1007
a(S'scarsa'
p1008
(dp1009
S'ADJ'
p1010
F1.0
s(lp1011
(g221
I28
tp1012
atp1013
a(S'fiducia'
p1014
(dp1015
S'NOUN'
p1016
F1.0
s(lp1017
(g235
I31
tp1018
atp1019
a(S'reciproca'
p1020
(dp1021
S'VERB'
p1022
F0.182758
sS'ADJ'
p1023
F0.817242
s(lp1024
(g242
I30
tp1025
atp1026
a(S'tra'
p1027
(dp1028
S'CONJ'
p1029
F0.001601
sS'ADP'
p1030
F0.998399
s(lp1031
(g263
I32
tp1032
atp1033
a(S'le'
p1034
(dp1035
S'PRON'
p1036
F8.2e-05
sS'DET'
p1037
F0.999918
s(lp1038
tp1039
a(S'parti'
p1040
(dp1041
S'VERB'
p1042
F1.9e-05
sS'NOUN'
p1043
F0.999981
s(lp1044
(g281
I34
tp1045
atp1046
a(g12
(dp1047
g12
F1.0
s(lp1048
(g12
I35
tp1049
atp1050
asS'sk'
p1051
(lp1052
(S'sme'
p1053
(dp1054
g599
F0.0001
sS'VERB'
p1055
F0.9999
s(lp1056
(g20
I2
tp1057
atp1058
a(S'v\xc5\xa1ak'
p1059
(dp1060
g599
F0.936229
sS'CONJ'
p1061
F0.063772
s(lp1062
(g7
I0
tp1063
atp1064
a(S'ostra\xc5\xbeit\xc3\xad'
p1065
(dp1066
S'ADJ'
p1067
F1.0
s(lp1068
(g34
I5
tp1069
atp1070
a(S'v'
p1071
(dp1072
g599
F0.002673
sS'ADP'
p1073
F0.997327
s(lp1074
(g323
I6
tp1075
atp1076
a(S's\xc3\xbavislosti'
p1077
(dp1078
S'NOUN'
p1079
F1.0
s(lp1080
(g249
I7
tp1081
atp1082
a(S's'
p1083
(dp1084
g599
F0.002631
sS'CONJ'
p1085
F6.5e-05
sS'NOUN'
p1086
F1.3000000000000001e-05
sS'ADP'
p1087
F0.997269
sS'PRT'
p1088
F2.1e-05
s(lp1089
(g335
I8
tp1090
atp1091
a(S'rizikom'
p1092
(dp1093
S'NOUN'
p1094
F1.0
s(lp1095
(g103
I10
tp1096
atp1097
a(g10
(dp1098
g12
F1.0
s(lp1099
tp1100
a(S'\xc5\xbee'
p1101
(dp1102
g599
F0.0008629999999999999
sS'CONJ'
p1103
F0.999137
s(lp1104
(g112
I11
tp1105
atp1106
a(S'gruz\xc3\xadnske'
p1107
(dp1108
S'ADJ'
p1109
F1.0
s(lp1110
(g136
I13
tp1111
atp1112
a(S'org\xc3\xa1ny'
p1113
(dp1114
S'NOUN'
p1115
F1.0
s(lp1116
(g128
I14
tp1117
atp1118
a(S'pozastavia'
p1119
(dp1120
S'VERB'
p1121
F1.0
s(lp1122
(g61
I20
tp1123
atp1124
a(S'uplat\xc5\x88ovanie'
p1125
(dp1126
S'NOUN'
p1127
F1.0
s(lp1128
(g159
I18
tp1129
atp1130
a(S't\xc3\xbdchto'
p1131
(dp1132
S'PRON'
p1133
F1.0
s(lp1134
tp1135
a(S'memor\xc3\xa1nd'
p1136
(dp1137
S'NOUN'
p1138
F1.0
s(lp1139
(g61
I20
tp1140
atp1141
a(S'o'
p1142
(dp1143
g599
F0.000224
sS'CONJ'
p1144
F6.3e-05
sS'NOUN'
p1145
F1e-05
sS'ADP'
p1146
F0.999704
s(lp1147
(g181
I21
tp1148
atp1149
a(S'porozumen\xc3\xad'
p1150
(dp1151
S'NOUN'
p1152
F1.0
s(lp1153
(g188
I22
tp1154
atp1155
a(g10
(dp1156
g12
F1.0
s(lp1157
(g10
I23
tp1158
atp1159
a(S'ke\xc4\x8f\xc5\xbee'
p1160
(dp1161
S'CONJ'
p1162
F1.0
s(lp1163
(g46
I24
tp1164
atp1165
a(S'medzi'
p1166
(dp1167
S'NOUN'
p1168
F0.000884
sS'ADP'
p1169
F0.999116
s(lp1170
(g263
I32
tp1171
atp1172
a(S'jednotliv\xc3\xbdmi'
p1173
(dp1174
S'ADJ'
p1175
F1.0
s(lp1176
tp1177
a(S'stranami'
p1178
(dp1179
S'NOUN'
p1180
F1.0
s(lp1181
(g281
I34
tp1182
atp1183
a(S'panuje'
p1184
(dp1185
S'VERB'
p1186
F1.0
s(lp1187
(g53
I25
tp1188
atp1189
a(S'nedostatok'
p1190
(dp1191
S'NOUN'
p1192
F1.0
s(lp1193
(g221
I28
tp1194
atp1195
a(S'vz\xc3\xa1jomnej'
p1196
(dp1197
S'ADJ'
p1198
F1.0
s(lp1199
(g242
I30
tp1200
atp1201
a(S'd\xc3\xb4very'
p1202
(dp1203
S'NOUN'
p1204
F1.0
s(lp1205
(g235
I31
tp1206
atp1207
a(g12
(dp1208
g12
F1.0
s(lp1209
(g12
I35
tp1210
atp1211
asS'pl'
p1212
(lp1213
(S'pozostajemy'
p1214
(dp1215
S'VERB'
p1216
F1.0
s(lp1217
(g61
I20
tp1218
atp1219
a(S'jednak'
p1220
(dp1221
S'PRT'
p1222
F0.193189
sS'CONJ'
p1223
F0.806811
s(lp1224
(g7
I0
tp1225
atp1226
a(S'czujni'
p1227
(dp1228
S'ADV'
p1229
F0.006629
sS'NOUN'
p1230
F0.31461399999999984
sS'VERB'
p1231
F0.141872
sS'ADJ'
p1232
F0.5368839999999999
s(lp1233
(g34
I5
tp1234
atp1235
a(S'na'
p1236
(dp1237
S'PRT'
p1238
F1.5e-05
sS'VERB'
p1239
F1.2e-05
sS'NOUN'
p1240
F4e-06
sS'ADP'
p1241
F0.999964
sg599
F5e-06
s(lp1242
(g335
I8
tp1243
atp1244
a(S'ryzyko'
p1245
(dp1246
S'NOUN'
p1247
F1.0
s(lp1248
(g103
I10
tp1249
atp1250
a(g10
(dp1251
g599
F0.0
sg12
F1.0
s(lp1252
tp1253
a(S'\xc5\xbce'
p1254
(dp1255
S'PRT'
p1256
F0.000221
sS'CONJ'
p1257
F0.999778
s(lp1258
(g112
I11
tp1259
atp1260
a(S'w\xc5\x82adze'
p1261
(dp1262
S'NOUN'
p1263
F1.0
s(lp1264
(g128
I14
tp1265
atp1266
a(S'gruzi\xc5\x84skie'
p1267
(dp1268
S'ADV'
p1269
F3.7e-05
sS'NOUN'
p1270
F0.0016549999999999998
sS'VERB'
p1271
F6.2e-05
sS'ADJ'
p1272
F0.9982440000000001
s(lp1273
(g136
I13
tp1274
atp1275
a(S'zrezygnuj\xc4\x85'
p1276
(dp1277
S'VERB'
p1278
F1.0
s(lp1279
(g61
I20
tp1280
atp1281
a(S'z'
p1282
(dp1283
S'PRT'
p1284
F0.000118
sS'VERB'
p1285
F1e-06
sS'NOUN'
p1286
F1e-06
sS'ADP'
p1287
F0.999879
sg599
F2e-06
s(lp1288
(g181
I21
tp1289
atp1290
a(S'zastosowania'
p1291
(dp1292
S'VERB'
p1293
F0.888446
sS'NOUN'
p1294
F0.111554
s(lp1295
(g159
I18
tp1296
atp1297
a(S'tych'
p1298
(dp1299
S'ADJ'
p1300
F1.0000019999999998
s(lp1301
(g166
I19
tp1302
atp1303
a(S'protoko\xc5\x82\xc3\xb3w'
p1304
(dp1305
S'NOUN'
p1306
F1.0
s(lp1307
tp1308
a(S'ustale\xc5\x84'
p1309
(dp1310
S'NOUN'
p1311
F1.0
s(lp1312
(g61
I20
tp1313
atp1314
a(g10
(dp1315
g599
F0.0
sg12
F1.0
s(lp1316
(g10
I23
tp1317
atp1318
a(S'poniewa\xc5\xbc'
p1319
(dp1320
S'CONJ'
p1321
F1.0
s(lp1322
(g46
I24
tp1323
atp1324
a(S'brakuje'
p1325
(dp1326
S'VERB'
p1327
F1.0
s(lp1328
(g221
I28
tp1329
atp1330
a(S'wzajemnego'
p1331
(dp1332
S'ADJ'
p1333
F1.0
s(lp1334
(g242
I30
tp1335
atp1336
a(S'zaufania'
p1337
(dp1338
S'VERB'
p1339
F0.011306
sS'NOUN'
p1340
F0.988694
s(lp1341
(g235
I31
tp1342
atp1343
a(S'mi\xc4\x99dzy'
p1344
(dp1345
S'ADP'
p1346
F1.0
s(lp1347
(g263
I32
tp1348
atp1349
a(S'stronami'
p1350
(dp1351
S'NOUN'
p1352
F1.0
s(lp1353
(g281
I34
tp1354
atp1355
a(g12
(dp1356
g12
F1.0
s(lp1357
(g12
I35
tp1358
atp1359
asS'sl'
p1360
(lp1361
(S'vendar'
p1362
(dp1363
S'ADV'
p1364
F0.017943
sS'CONJ'
p1365
F0.982057
s(lp1366
(g7
I0
tp1367
atp1368
a(S'smo'
p1369
(dp1370
g599
F4e-06
sS'VERB'
p1371
F0.999996
s(lp1372
(g20
I2
tp1373
atp1374
a(S'pozorni'
p1375
(dp1376
S'ADJ'
p1377
F1.0
s(lp1378
(g34
I5
tp1379
atp1380
a(S'na'
p1381
(dp1382
S'ADP'
p1383
F1.0
s(lp1384
(g335
I8
tp1385
atp1386
a(S'tveganje'
p1387
(dp1388
S'NOUN'
p1389
F1.0
s(lp1390
(g103
I10
tp1391
atp1392
a(g10
(dp1393
g12
F1.0
s(lp1394
tp1395
a(S'da'
p1396
(dp1397
S'PRT'
p1398
F9.8e-05
sS'CONJ'
p1399
F0.999887
sS'VERB'
p1400
F1.4e-05
sg599
F0.0
s(lp1401
(g112
I11
tp1402
atp1403
a(S'bodo'
p1404
(dp1405
S'VERB'
p1406
F1.0
s(lp1407
(g379
I15
tp1408
atp1409
a(S'gruzijske'
p1410
(dp1411
S'ADJ'
p1412
F1.0
s(lp1413
(g136
I13
tp1414
atp1415
a(S'oblasti'
p1416
(dp1417
S'NOUN'
p1418
F1.000001
s(lp1419
(g128
I14
tp1420
atp1421
a(S'prenehale'
p1422
(dp1423
S'ADV'
p1424
F0.000979
sg599
F0.000753
sS'ADJ'
p1425
F0.00038500000000000014
sS'VERB'
p1426
F0.97939
sS'NOUN'
p1427
F0.018495999999999995
s(lp1428
(g143
I16
tp1429
atp1430
a(S'izvajati'
p1431
(dp1432
S'VERB'
p1433
F1.0
s(lp1434
(g159
I18
tp1435
atp1436
a(S'memoranduma'
p1437
(dp1438
S'NOUN'
p1439
F1.0000010000000001
s(lp1440
(g61
I20
tp1441
atp1442
a(g1142
(dp1443
S'NOUN'
p1444
F2.4e-05
sS'ADP'
p1445
F0.999976
s(lp1446
(g181
I21
tp1447
atp1448
a(S'sporazumu'
p1449
(dp1450
S'NOUN'
p1451
F1.0
s(lp1452
(g188
I22
tp1453
atp1454
a(g10
(dp1455
g12
F1.0
s(lp1456
(g10
I23
tp1457
atp1458
a(S'saj'
p1459
(dp1460
S'CONJ'
p1461
F1.0
s(lp1462
(g46
I24
tp1463
atp1464
a(S'med'
p1465
(dp1466
S'NOUN'
p1467
F2.1000000000000002e-05
sS'ADP'
p1468
F0.999979
s(lp1469
(g263
I32
tp1470
atp1471
a(S'stranema'
p1472
(dp1473
S'NOUN'
p1474
F1.0
s(lp1475
(g281
I34
tp1476
atp1477
a(S'ni'
p1478
(dp1479
S'VERB'
p1480
F1.0
s(lp1481
(g87
I26
tp1482
atp1483
a(S'dovolj'
p1484
(dp1485
S'ADV'
p1486
F1.0
s(lp1487
(g221
I28
tp1488
atp1489
a(S'zaupanja'
p1490
(dp1491
S'NOUN'
p1492
F1.0
s(lp1493
(g235
I31
tp1494
atp1495
a(g12
(dp1496
g12
F1.0
s(lp1497
(g12
I35
tp1498
atp1499
asS'es'
p1500
(lp1501
(S'sin'
p1502
(dp1503
S'ADV'
p1504
F1.0
s(lp1505
tp1506
a(S'embargo'
p1507
(dp1508
S'ADV'
p1509
F1.0
s(lp1510
(g7
I0
tp1511
atp1512
a(g10
(dp1513
g12
F1.0
s(lp1514
(g10
I1
tp1515
atp1516
a(S'nos'
p1517
(dp1518
S'PRON'
p1519
F1.0
s(lp1520
(g20
I2
tp1521
atp1522
a(S'mantenemos'
p1523
(dp1524
S'VERB'
p1525
F1.0
s(lp1526
tp1527
a(S'alerta'
p1528
(dp1529
S'VERB'
p1530
F1.0
s(lp1531
(g34
I5
tp1532
atp1533
a(S'ante'
p1534
(dp1535
S'ADP'
p1536
F1.0
s(lp1537
(g323
I6
tp1538
atp1539
a(S'el'
p1540
(dp1541
S'PRON'
p1542
F5e-06
sS'DET'
p1543
F0.999995
s(lp1544
(g212
I9
tp1545
atp1546
a(S'riesgo'
p1547
(dp1548
S'NOUN'
p1549
F1.0
s(lp1550
(g103
I10
tp1551
atp1552
a(S'de'
p1553
(dp1554
g599
F0.0
sS'CONJ'
p1555
F0.00561
sS'ADP'
p1556
F0.99439
s(lp1557
tp1558
a(S'que'
p1559
(dp1560
g599
F0.0
sS'CONJ'
p1561
F1.0
s(lp1562
(g112
I11
tp1563
atp1564
a(S'las'
p1565
(dp1566
S'PRON'
p1567
F0.000108
sS'DET'
p1568
F0.999892
s(lp1569
(g121
I12
tp1570
atp1571
a(S'autoridades'
p1572
(dp1573
S'NOUN'
p1574
F1.0
s(lp1575
(g128
I14
tp1576
atp1577
a(S'georgianas'
p1578
(dp1579
S'NOUN'
p1580
F0.015791
sS'ADJ'
p1581
F0.984209
s(lp1582
(g136
I13
tp1583
atp1584
a(S'dejen'
p1585
(dp1586
S'VERB'
p1587
F1.0
s(lp1588
(g143
I16
tp1589
atp1590
a(S'de'
p1591
(dp1592
g599
F0.0
sS'CONJ'
p1593
F0.445224
sS'ADP'
p1594
F0.554775
s(lp1595
(g152
I17
tp1596
atp1597
a(S'aplicar'
p1598
(dp1599
S'VERB'
p1600
F1.0
s(lp1601
(g159
I18
tp1602
atp1603
a(S'los'
p1604
(dp1605
S'PRON'
p1606
F4.9e-05
sS'DET'
p1607
F0.999951
s(lp1608
(g166
I19
tp1609
atp1610
a(S'memorandos'
p1611
(dp1612
S'VERB'
p1613
F1.0
s(lp1614
(g61
I20
tp1615
atp1616
a(S'de'
p1617
(dp1618
g599
F4e-06
sS'CONJ'
p1619
F0.000407
sS'ADP'
p1620
F0.99959
s(lp1621
(g181
I21
tp1622
atp1623
a(S'entendimiento'
p1624
(dp1625
S'NOUN'
p1626
F1.0
s(lp1627
(g188
I22
tp1628
atp1629
a(g10
(dp1630
g12
F1.0
s(lp1631
(g10
I23
tp1632
atp1633
a(S'debido'
p1634
(dp1635
S'ADP'
p1636
F1.0
s(lp1637
tp1638
a(g83
(dp1639
S'ADP'
p1640
F1.0
s(lp1641
(g46
I24
tp1642
atp1643
a(S'la'
p1644
(dp1645
S'PRON'
p1646
F2e-06
sS'DET'
p1647
F0.999997
sS'NOUN'
p1648
F0.0
sg599
F1e-06
s(lp1649
(g83
I27
tp1650
atp1651
a(S'falta'
p1652
(dp1653
S'VERB'
p1654
F0.00055
sS'NOUN'
p1655
F0.99945
s(lp1656
(g221
I28
tp1657
atp1658
a(S'de'
p1659
(dp1660
g599
F2.9e-05
sS'CONJ'
p1661
F0.000449
sS'ADP'
p1662
F0.999522
s(lp1663
(g228
I29
tp1664
atp1665
a(S'confianza'
p1666
(dp1667
S'NOUN'
p1668
F1.0
s(lp1669
(g235
I31
tp1670
atp1671
a(S'mutua'
p1672
(dp1673
S'ADJ'
p1674
F1.0
s(lp1675
(g242
I30
tp1676
atp1677
a(S'entre'
p1678
(dp1679
g599
F3e-06
sS'ADP'
p1680
F0.999997
s(lp1681
(g263
I32
tp1682
atp1683
a(S'las'
p1684
(dp1685
S'PRON'
p1686
F0.0
sS'DET'
p1687
F1.0
s(lp1688
(g272
I33
tp1689
atp1690
a(S'partes'
p1691
(dp1692
S'NOUN'
p1693
F1.0
s(lp1694
(g281
I34
tp1695
atp1696
a(g12
(dp1697
g12
F1.0
s(lp1698
(g12
I35
tp1699
atp1700
as.