(dp0
S'fr'
p1
(lp2
(S'la'
p3
(dp4
S'PRON'
p5
F1.5e-05
sS'DET'
p6
F0.999982
sS'NOUN'
p7
F3e-06
s(lp8
(S'the'
p9
I0
tp10
atp11
a(S'deuxi\xc3\xa8me'
p12
(dp13
S'NUM'
p14
F0.862486
sS'NOUN'
p15
F0.137514
s(lp16
(S'second'
p17
I1
tp18
atp19
a(S'est'
p20
(dp21
S'VERB'
p22
F0.891095
sS'NOUN'
p23
F0.108905
s(lp24
(S'is'
p25
I2
tp26
atp27
a(S'celle'
p28
(dp29
S'PRON'
p30
F1.0
s(lp31
(S'elephants'
p32
I3
tp33
atp34
a(S'qui'
p35
(dp36
S'PRON'
p37
F1.0
s(lp38
tp39
a(S'concerne'
p40
(dp41
S'VERB'
p42
F1.0
s(lp43
tp44
a(S"l'"
p45
(dp46
S'NOUN'
p47
F0.087886
sS'VERB'
p48
F0.7995690000000001
sS'ADJ'
p49
F0.112546
s(lp50
tp51
a(S'\xc3\xa9l\xc3\xa9phant'
p52
(dp53
S'NOUN'
p54
F1.0
s(lp55
(g32
I3
tp56
atp57
a(S'et'
p58
(dp59
S'CONJ'
p60
F1.0
s(lp61
(S'and'
p62
I4
tp63
atp64
a(S'le'
p65
(dp66
S'PRON'
p67
F0.018926
sS'DET'
p68
F0.981074
s(lp69
(S'the'
p70
I5
tp71
atp72
a(S'commerce'
p73
(dp74
S'VERB'
p75
F0.018536999999999998
sS'NOUN'
p76
F0.981463
s(lp77
tp78
a(S'de'
p79
(dp80
S'ADP'
p81
F1.0
s(lp82
(S'trade'
p83
I7
tp84
atp85
a(S"l'"
p86
(dp87
S'ADJ'
p88
F0.160704
sS'VERB'
p89
F0.06480800000000002
sS'NOUN'
p90
F0.774488
s(lp91
tp92
a(S'ivoire'
p93
(dp94
S'NOUN'
p95
F1.0
s(lp96
(S'ivory'
p97
I6
tp98
atp99
a(S'.'
p100
(dp101
g100
F1.0
s(lp102
(g100
I8
tp103
atp104
asS'en'
p105
(lp106
(g9
(dp107
S'NOUN'
p108
F4e-06
sS'DET'
p109
F0.999996
s(lp110
(g9
I0
tp111
atp112
a(g17
(dp113
S'ADV'
p114
F0.004478
sS'ADJ'
p115
F0.477397
sS'VERB'
p116
F2e-06
sS'NOUN'
p117
F0.518122
s(lp118
(g17
I1
tp119
atp120
a(g25
(dp121
S'VERB'
p122
F1.0
s(lp123
(g25
I2
tp124
atp125
a(g32
(dp126
S'NOUN'
p127
F1.0
s(lp128
(g32
I3
tp129
atp130
a(g62
(dp131
S'CONJ'
p132
F1.0
sS'NOUN'
p133
F0.0
s(lp134
(g62
I4
tp135
atp136
a(g70
(dp137
S'NOUN'
p138
F1e-06
sS'DET'
p139
F0.999999
s(lp140
(g70
I5
tp141
atp142
a(g97
(dp143
S'ADJ'
p144
F0.42966
sS'NOUN'
p145
F0.57034
s(lp146
(g97
I6
tp147
atp148
a(g83
(dp149
S'VERB'
p150
F0.003379
sS'NOUN'
p151
F0.99662
s(lp152
(g83
I7
tp153
atp154
a(g100
(dp155
g100
F1.0
s(lp156
(g100
I8
tp157
atp158
asS'nl'
p159
(lp160
(S'het'
p161
(dp162
S'PRON'
p163
F0.000437
sS'DET'
p164
F0.999562
s(lp165
(g9
I0
tp166
atp167
a(S'tweede'
p168
(dp169
S'NUM'
p170
F1.0
s(lp171
(g17
I1
tp172
atp173
a(S'voorstel'
p174
(dp175
S'VERB'
p176
F0.0
sS'NOUN'
p177
F1.0
s(lp178
(g32
I3
tp179
atp180
a(S'betreft'
p181
(dp182
S'VERB'
p183
F1.0
s(lp184
tp185
a(S'olifanten'
p186
(dp187
S'NOUN'
p188
F1.0
s(lp189
(g32
I3
tp190
atp191
a(S'en'
p192
(dp193
S'CONJ'
p194
F1.0
s(lp195
(g62
I4
tp196
atp197
a(S'de'
p198
(dp199
S'DET'
p200
F1.0
s(lp201
(g70
I5
tp202
atp203
a(S'ivoorhandel'
p204
(dp205
S'NOUN'
p206
F1.0
s(lp207
(g97
I6
tp208
atp209
a(g100
(dp210
g100
F1.0
s(lp211
(g100
I8
tp212
atp213
asS'de'
p214
(lp215
(S'der'
p216
(dp217
S'PRON'
p218
F0.001502
sS'DET'
p219
F0.998382
s(lp220
(g9
I0
tp221
atp222
a(S'zweite'
p223
(dp224
S'ADJ'
p225
F1.0
s(lp226
(g17
I1
tp227
atp228
a(S'punkt'
p229
(dp230
S'PRT'
p231
F1.0
s(lp232
tp233
a(S'sind'
p234
(dp235
S'VERB'
p236
F1.0
s(lp237
(g25
I2
tp238
atp239
a(S'elefanten'
p240
(dp241
S'NOUN'
p242
F0.014732
sS'ADJ'
p243
F0.985268
s(lp244
(g32
I3
tp245
atp246
a(S'und'
p247
(dp248
S'CONJ'
p249
F1.0
s(lp250
(g62
I4
tp251
atp252
a(S'der'
p253
(dp254
S'PRON'
p255
F0.002574
sS'DET'
p256
F0.99508
s(lp257
(g70
I5
tp258
atp259
a(S'elfenbeinhandel'
p260
(dp261
S'ADJ'
p262
F0.016741
sS'NOUN'
p263
F0.973403
s(lp264
(g97
I6
tp265
atp266
a(g100
(dp267
g100
F1.0
s(lp268
(g100
I8
tp269
atp270
asS'it'
p271
(lp272
(S'la'
p273
(dp274
S'PRON'
p275
F0.002191
sS'DET'
p276
F0.997809
s(lp277
(g9
I0
tp278
atp279
a(S'seconda'
p280
(dp281
S'NOUN'
p282
F0.228783
sS'VERB'
p283
F0.000258
sS'ADJ'
p284
F0.770959
s(lp285
(g17
I1
tp286
atp287
a(S'riguarda'
p288
(dp289
S'VERB'
p290
F1.0
s(lp291
(g25
I2
tp292
atp293
a(S'gli'
p294
(dp295
S'PRON'
p296
F1e-06
sS'DET'
p297
F0.999999
s(lp298
tp299
a(S'elefanti'
p300
(dp301
S'NOUN'
p302
F1.0
s(lp303
(g32
I3
tp304
atp305
a(S'e'
p306
(dp307
S'CONJ'
p308
F1.0
s(lp309
(g62
I4
tp310
atp311
a(S'il'
p312
(dp313
S'DET'
p314
F1.0
s(lp315
(g70
I5
tp316
atp317
a(S'commercio'
p318
(dp319
S'VERB'
p320
F3.8e-05
sS'NOUN'
p321
F0.999962
s(lp322
(g83
I7
tp323
atp324
a(S'di'
p325
(dp326
S'CONJ'
p327
F4e-06
sS'ADP'
p328
F0.999996
s(lp329
tp330
a(S'avorio'
p331
(dp332
S'NOUN'
p333
F1.0
s(lp334
(g97
I6
tp335
atp336
a(g100
(dp337
g100
F1.0
s(lp338
(g100
I8
tp339
atp340
asS'sk'
p341
(lp342
(S'druh\xc3\xbd'
p343
(dp344
S'X'
p345
F0.001962
sS'NUM'
p346
F0.998038
s(lp347
tp348
a(S'n\xc3\xa1vrh'
p349
(dp350
S'NOUN'
p351
F1.0
s(lp352
(g17
I1
tp353
atp354
a(S'sa'
p355
(dp356
S'PRT'
p357
F0.999903
sS'ADP'
p358
F1e-06
sg345
F9.5e-05
s(lp359
(g25
I2
tp360
atp361
a(S't\xc3\xbdka'
p362
(dp363
g345
F0.00282
sS'VERB'
p364
F0.99718
s(lp365
tp366
a(S'slonov'
p367
(dp368
S'NOUN'
p369
F1.0
s(lp370
(g32
I3
tp371
atp372
a(S'a'
p373
(dp374
g345
F0.0007580000000000001
sS'CONJ'
p375
F0.998528
sS'NOUN'
p376
F5.5e-05
sS'ADP'
p377
F0.000628
sS'PRT'
p378
F3.2e-05
s(lp379
(g62
I4
tp380
atp381
a(S'obchodu'
p382
(dp383
S'NOUN'
p384
F1.0
s(lp385
(g83
I7
tp386
atp387
a(S'so'
p388
(dp389
g345
F0.000161
sS'ADP'
p390
F0.999839
s(lp391
tp392
a(S'slonovinou'
p393
(dp394
S'NOUN'
p395
F1.0
s(lp396
(g97
I6
tp397
atp398
a(g100
(dp399
g100
F1.0
s(lp400
(g100
I8
tp401
atp402
asS'pl'
p403
(lp404
(S'druga'
p405
(dp406
S'ADJ'
p407
F1.0
s(lp408
(g17
I1
tp409
atp410
a(S'propozycja'
p411
(dp412
S'NOUN'
p413
F1.0
s(lp414
(g32
I3
tp415
atp416
a(S'dotyczy'
p417
(dp418
S'VERB'
p419
F1.0
s(lp420
tp421
a(S's\xc5\x82oni'
p422
(dp423
S'NOUN'
p424
F1.0
s(lp425
(g32
I3
tp426
atp427
a(S'i'
p428
(dp429
S'PRT'
p430
F0.001811
sS'CONJ'
p431
F0.997993
sS'PRON'
p432
F1.7e-05
sS'NOUN'
p433
F9.6e-05
sg345
F8.2e-05
s(lp434
(g62
I4
tp435
atp436
a(S'handlu'
p437
(dp438
S'NOUN'
p439
F1.0
s(lp440
(g83
I7
tp441
atp442
a(S'ko\xc5\x9bci\xc4\x85'
p443
(dp444
S'NOUN'
p445
F1.0
s(lp446
tp447
a(S's\xc5\x82oniow\xc4\x85'
p448
(dp449
S'ADV'
p450
F0.000318
sS'NOUN'
p451
F0.019176000000000002
sS'ADJ'
p452
F0.9805069999999999
s(lp453
(g97
I6
tp454
atp455
a(g100
(dp456
g100
F1.0
s(lp457
(g100
I8
tp458
atp459
asS'sl'
p460
(lp461
(S'drugo'
p462
(dp463
S'NUM'
p464
F1.000001
s(lp465
(g17
I1
tp466
atp467
a(S'vpra\xc5\xa1anje'
p468
(dp469
S'NOUN'
p470
F1.0
s(lp471
(g32
I3
tp472
atp473
a(S'zadeva'
p474
(dp475
S'VERB'
p476
F0.588816
sS'NOUN'
p477
F0.411184
s(lp478
tp479
a(S'slone'
p480
(dp481
S'ADV'
p482
F0.001277
sS'ADJ'
p483
F0.253767
sS'VERB'
p484
F0.026769000000000005
sS'NOUN'
p485
F0.718187
s(lp486
(g32
I3
tp487
atp488
a(S'in'
p489
(dp490
S'ADV'
p491
F2.9e-05
sg345
F2.4e-05
sS'CONJ'
p492
F0.999937
sS'NOUN'
p493
F9e-06
s(lp494
(g62
I4
tp495
atp496
a(S'trgovino'
p497
(dp498
S'NOUN'
p499
F1.0
s(lp500
(g83
I7
tp501
atp502
a(S's'
p503
(dp504
S'VERB'
p505
F2.9e-05
sS'NOUN'
p506
F6.3e-05
sS'ADP'
p507
F0.999908
s(lp508
tp509
a(S'slonovino'
p510
(dp511
S'ADJ'
p512
F1e-06
sS'NOUN'
p513
F0.999999
s(lp514
(g97
I6
tp515
atp516
a(g100
(dp517
g100
F1.0
s(lp518
(g100
I8
tp519
atp520
asS'es'
p521
(lp522
(S'el'
p523
(dp524
S'PRON'
p525
F1e-06
sS'DET'
p526
F0.999999
s(lp527
(g9
I0
tp528
atp529
a(S'segundo'
p530
(dp531
S'NOUN'
p532
F0.06519799999999999
sS'ADJ'
p533
F0.934803
s(lp534
(g17
I1
tp535
atp536
a(S'son'
p537
(dp538
S'VERB'
p539
F0.998417
sS'NOUN'
p540
F0.001583
s(lp541
(g25
I2
tp542
atp543
a(S'los'
p544
(dp545
S'PRON'
p546
F1e-06
sS'DET'
p547
F0.999999
s(lp548
tp549
a(S'elefantes'
p550
(dp551
S'NOUN'
p552
F1.0
s(lp553
(g32
I3
tp554
atp555
a(S'y'
p556
(dp557
g345
F0.000396
sS'CONJ'
p558
F0.999604
s(lp559
(g62
I4
tp560
atp561
a(S'el'
p562
(dp563
S'PRON'
p564
F0.001281
sS'DET'
p565
F0.998719
s(lp566
(g70
I5
tp567
atp568
a(S'comercio'
p569
(dp570
S'VERB'
p571
F0.001584
sS'NOUN'
p572
F0.998416
s(lp573
(g83
I7
tp574
atp575
a(S'de'
p576
(dp577
g345
F2.9e-05
sS'CONJ'
p578
F0.00045
sS'ADP'
p579
F0.999521
s(lp580
tp581
a(S'marfil'
p582
(dp583
S'NOUN'
p584
F1.0
s(lp585
(g97
I6
tp586
atp587
a(g100
(dp588
g100
F1.0
s(lp589
(g100
I8
tp590
atp591
as.