(dp0
S'fr'
p1
(lp2
(S'j'
p3
(dp4
S'ADJ'
p5
F0.079945
sS'X'
p6
F0.128049
sS'VERB'
p7
F0.009193000000000002
sS'NOUN'
p8
F0.782813
s(lp9
(S'i'
p10
I0
tp11
atp12
a(S'\xe2\x80\x99'
p13
(dp14
S'.'
p15
F1.0
s(lp16
tp17
a(S'ai'
p18
(dp19
S'VERB'
p20
F1.0
s(lp21
(S'have'
p22
I1
tp23
atp24
a(S'deux'
p25
(dp26
S'NUM'
p27
F0.999975
sS'NOUN'
p28
F2.5e-05
s(lp29
(S'two'
p30
I2
tp31
atp32
a(S'br\xc3\xa8ves'
p33
(dp34
S'NOUN'
p35
F1.0
s(lp36
(S'brief'
p37
I3
tp38
atp39
a(S'questions'
p40
(dp41
S'NOUN'
p42
F1.0
s(lp43
(S'questions'
p44
I5
tp45
atp46
a(S'compl\xc3\xa9mentaires'
p47
(dp48
S'NOUN'
p49
F0.003318
sS'ADJ'
p50
F0.996682
s(lp51
(S'supplementary'
p52
I4
tp53
atp54
a(g15
(dp55
g15
F1.0
s(lp56
(g15
I6
tp57
atp58
asS'en'
p59
(lp60
(g10
(dp61
g6
F0.000479
sS'NOUN'
p62
F0.999521
s(lp63
(g10
I0
tp64
atp65
a(g22
(dp66
S'VERB'
p67
F1.0
s(lp68
(g22
I1
tp69
atp70
a(g30
(dp71
S'NUM'
p72
F0.999999
sS'NOUN'
p73
F1e-06
s(lp74
(g30
I2
tp75
atp76
a(g37
(dp77
S'NOUN'
p78
F0.191456
sS'VERB'
p79
F3e-06
sS'ADJ'
p80
F0.808541
s(lp81
(g37
I3
tp82
atp83
a(g52
(dp84
S'ADJ'
p85
F1.0
s(lp86
(g52
I4
tp87
atp88
a(g44
(dp89
S'VERB'
p90
F1.6e-05
sS'NOUN'
p91
F0.999984
s(lp92
(g44
I5
tp93
atp94
a(g15
(dp95
g15
F1.0
s(lp96
(g15
I6
tp97
atp98
asS'nl'
p99
(lp100
(S'ik'
p101
(dp102
S'PRON'
p103
F0.999981
sS'NOUN'
p104
F1.9e-05
s(lp105
(g10
I0
tp106
atp107
a(S'heb'
p108
(dp109
S'VERB'
p110
F1.0
s(lp111
(g22
I1
tp112
atp113
a(S'twee'
p114
(dp115
S'NUM'
p116
F1.0
s(lp117
(g30
I2
tp118
atp119
a(S'korte'
p120
(dp121
S'NOUN'
p122
F0.001233
sS'ADJ'
p123
F0.998767
s(lp124
(g37
I3
tp125
atp126
a(S'aanvullende'
p127
(dp128
S'NOUN'
p129
F8.1e-05
sS'VERB'
p130
F3.8e-05
sS'ADJ'
p131
F0.999882
s(lp132
(g52
I4
tp133
atp134
a(S'vragen'
p135
(dp136
S'VERB'
p137
F0.157423
sS'NOUN'
p138
F0.842576
s(lp139
(g44
I5
tp140
atp141
a(g15
(dp142
g15
F1.0
s(lp143
(g15
I6
tp144
atp145
asS'de'
p146
(lp147
(S'ich'
p148
(dp149
S'PRON'
p150
F1.0
s(lp151
(g10
I0
tp152
atp153
a(S'habe'
p154
(dp155
S'VERB'
p156
F1.0
s(lp157
(g22
I1
tp158
atp159
a(S'zwei'
p160
(dp161
S'NUM'
p162
F1.0
s(lp163
(g30
I2
tp164
atp165
a(S'kurze'
p166
(dp167
S'ADJ'
p168
F1.0
s(lp169
(g37
I3
tp170
atp171
a(S'zusatzfragen'
p172
(dp173
S'VERB'
p174
F0.004055
sS'NOUN'
p175
F0.98936
s(lp176
(g52
I4
tp177
atp178
a(g15
(dp179
g15
F1.0
s(lp180
(g15
I6
tp181
atp182
asS'it'
p183
(lp184
(S'vorrei'
p185
(dp186
S'VERB'
p187
F1.0
s(lp188
(g10
I0
tp189
atp190
a(S'porre'
p191
(dp192
S'VERB'
p193
F1.0
s(lp194
(g22
I1
tp195
atp196
a(S'due'
p197
(dp198
S'NUM'
p199
F0.00011
sS'ADJ'
p200
F0.99989
s(lp201
(g30
I2
tp202
atp203
a(S'domande'
p204
(dp205
S'NOUN'
p206
F1.0
s(lp207
(g44
I5
tp208
atp209
a(S'complementari'
p210
(dp211
S'NOUN'
p212
F0.015475
sS'ADJ'
p213
F0.984525
s(lp214
(g52
I4
tp215
atp216
a(g15
(dp217
g15
F1.0
s(lp218
(g15
I6
tp219
atp220
asS'sk'
p221
(lp222
(S'm\xc3\xa1m'
p223
(dp224
S'VERB'
p225
F0.999083
sS'NOUN'
p226
F0.000918
s(lp227
(g10
I0
tp228
atp229
a(S'dve'
p230
(dp231
S'NUM'
p232
F1.0
s(lp233
(g30
I2
tp234
atp235
a(S'dopl\xc5\x88uj\xc3\xbace'
p236
(dp237
S'VERB'
p238
F0.746951
sS'ADJ'
p239
F0.253049
s(lp240
(g52
I4
tp241
atp242
a(S'a'
p243
(dp244
g6
F0.001961
sS'CONJ'
p245
F0.996694
sS'NOUN'
p246
F0.00069
sS'ADP'
p247
F0.000553
sS'PRT'
p248
F0.000103
s(lp249
tp250
a(S'kr\xc3\xa1tke'
p251
(dp252
S'ADJ'
p253
F1.0
s(lp254
(g37
I3
tp255
atp256
a(S'ot\xc3\xa1zky'
p257
(dp258
S'NOUN'
p259
F1.0
s(lp260
(g44
I5
tp261
atp262
a(g15
(dp263
g15
F1.0
s(lp264
(g15
I6
tp265
atp266
asS'pl'
p267
(lp268
(S'mam'
p269
(dp270
S'VERB'
p271
F0.999957
sS'NOUN'
p272
F4.3e-05
s(lp273
(g10
I0
tp274
atp275
a(S'w'
p276
(dp277
S'ADJ'
p278
F0.0
sg6
F0.0
sS'NOUN'
p279
F0.0
sS'ADP'
p280
F1.0
s(lp281
(g10
I0
tp282
atp283
a(S'zwi\xc4\x85zku'
p284
(dp285
S'NOUN'
p286
F1.0
s(lp287
tp288
a(S'z'
p289
(dp290
S'PRT'
p291
F0.000573
sS'VERB'
p292
F0.00026
sS'NOUN'
p293
F2.6e-05
sS'ADP'
p294
F0.9991180000000001
sg6
F2.3e-05
s(lp295
(g10
I0
tp296
atp297
a(S'tym'
p298
(dp299
S'ADV'
p300
F0.020553
sS'ADJ'
p301
F0.13001600000000002
sS'CONJ'
p302
F0.000616
sS'NOUN'
p303
F0.848447
sS'PRT'
p304
F0.000366
s(lp305
(g22
I1
tp306
atp307
a(S'dwa'
p308
(dp309
S'NUM'
p310
F0.999999
s(lp311
(g30
I2
tp312
atp313
a(S'kr\xc3\xb3tkie'
p314
(dp315
S'ADJ'
p316
F0.9999999999999999
s(lp317
(g37
I3
tp318
atp319
a(S'pytania'
p320
(dp321
S'VERB'
p322
F1e-06
sS'NOUN'
p323
F0.999999
s(lp324
(g44
I5
tp325
atp326
a(S'dodatkowe'
p327
(dp328
S'ADJ'
p329
F1.000001
s(lp330
(g52
I4
tp331
atp332
a(g15
(dp333
g15
F1.0
s(lp334
(g15
I6
tp335
atp336
asS'sl'
p337
(lp338
(S'postavil'
p339
(dp340
S'VERB'
p341
F1.0
s(lp342
tp343
a(S'bom'
p344
(dp345
S'VERB'
p346
F1.0
s(lp347
(g10
I0
tp348
atp349
a(S'dve'
p350
(dp351
S'NUM'
p352
F1.000001
s(lp353
(g30
I2
tp354
atp355
a(S'kratki'
p356
(dp357
S'ADJ'
p358
F0.9999990000000001
s(lp359
(g37
I3
tp360
atp361
a(S'dodatni'
p362
(dp363
S'ADJ'
p364
F0.9999999999999999
s(lp365
(g52
I4
tp366
atp367
a(S'vpra\xc5\xa1anji'
p368
(dp369
S'NOUN'
p370
F1.0
s(lp371
(g44
I5
tp372
atp373
a(g15
(dp374
g15
F1.0
s(lp375
(g15
I6
tp376
atp377
asS'es'
p378
(lp379
(S'tengo'
p380
(dp381
S'VERB'
p382
F1.0
s(lp383
(g10
I0
tp384
atp385
a(S'dos'
p386
(dp387
S'NUM'
p388
F0.677128
sS'NOUN'
p389
F0.322872
s(lp390
(g30
I2
tp391
atp392
a(S'breves'
p393
(dp394
S'ADJ'
p395
F1.0
s(lp396
(g37
I3
tp397
atp398
a(S'preguntas'
p399
(dp400
S'NOUN'
p401
F1.0
s(lp402
(g44
I5
tp403
atp404
a(S'complementarias'
p405
(dp406
S'ADJ'
p407
F1.0
s(lp408
(g52
I4
tp409
atp410
a(g15
(dp411
g15
F1.0
s(lp412
(g15
I6
tp413
atp414
as.