(dp0
S'fr'
p1
(lp2
(S'je'
p3
(dp4
S'PRON'
p5
F1.0
s(lp6
(S'i'
p7
I0
tp8
atp9
a(S'crois'
p10
(dp11
S'VERB'
p12
F1.0
s(lp13
(S'believe'
p14
I2
tp15
atp16
a(S'sinc\xc3\xa8rement'
p17
(dp18
S'ADV'
p19
F1.0
s(lp20
(S'strongly'
p21
I1
tp22
atp23
a(S'que'
p24
(dp25
S'ADV'
p26
F0.109671
sS'PRON'
p27
F0.09793
sS'CONJ'
p28
F0.792399
s(lp29
(S'that'
p30
I3
tp31
atp32
a(S"l'"
p33
(dp34
S'NOUN'
p35
F0.046033
sS'VERB'
p36
F0.884714
sS'ADJ'
p37
F0.069252
s(lp38
tp39
a(S'aide'
p40
(dp41
S'VERB'
p42
F0.69784
sS'NOUN'
p43
F0.30216
s(lp44
(S'aid'
p45
I4
tp46
atp47
a(S'ne'
p48
(dp49
S'ADV'
p50
F1.0
s(lp51
(S'no'
p52
I6
tp53
atp54
a(S'doit'
p55
(dp56
S'VERB'
p57
F0.998774
sS'NOUN'
p58
F0.001226
s(lp59
(S'should'
p60
I5
tp61
atp62
a(S'plus'
p63
(dp64
S'ADV'
p65
F0.999087
sS'VERB'
p66
F0.0009130000000000001
s(lp67
(S'longer'
p68
I7
tp69
atp70
a(S'se'
p71
(dp72
S'PRON'
p73
F1.0
s(lp74
(S'be'
p75
I8
tp76
atp77
a(S'limiter'
p78
(dp79
S'VERB'
p80
F1.0
s(lp81
(S'limited'
p82
I9
tp83
atp84
a(S'\xc3\xa0'
p85
(dp86
S'ADP'
p87
F1.0
s(lp88
(S'to'
p89
I10
tp90
atp91
a(S'apporter'
p92
(dp93
S'VERB'
p94
F1.0
s(lp95
tp96
a(S'un'
p97
(dp98
S'NOUN'
p99
F2.1e-05
sS'NUM'
p100
F0.007967
sS'DET'
p101
F0.992012
s(lp102
tp103
a(S'secours'
p104
(dp105
S'VERB'
p106
F3.1e-05
sS'NOUN'
p107
F0.999969
s(lp108
(S'help'
p109
I11
tp110
atp111
a(S','
p112
(dp113
S'.'
p114
F1.0
s(lp115
(g112
I12
tp116
atp117
a(S'un'
p118
(dp119
S'NOUN'
p120
F6e-05
sS'NUM'
p121
F0.025531
sS'DET'
p122
F0.974409
s(lp123
tp124
a(S'soutien'
p125
(dp126
S'NOUN'
p127
F1.0
s(lp128
(S'support'
p129
I13
tp130
atp131
a(g112
(dp132
g114
F1.0
s(lp133
(S'or'
p134
I14
tp135
atp136
a(S'une'
p137
(dp138
S'NOUN'
p139
F1.5e-05
sS'NUM'
p140
F0.021976
sS'DET'
p141
F0.978009
s(lp142
tp143
a(S'assistance'
p144
(dp145
S'NOUN'
p146
F1.0
s(lp147
(S'assistance'
p148
I15
tp149
atp150
a(g114
(dp151
g114
F1.0
s(lp152
(g114
I16
tp153
atp154
asS'en'
p155
(lp156
(g7
(dp157
S'X'
p158
F0.0008
sS'NOUN'
p159
F0.9992
s(lp160
(g7
I0
tp161
atp162
a(g21
(dp163
S'ADV'
p164
F1.0
s(lp165
(g21
I1
tp166
atp167
a(g14
(dp168
S'VERB'
p169
F1.0
s(lp170
(g14
I2
tp171
atp172
a(g30
(dp173
S'ADV'
p174
F0.00033
sS'DET'
p175
F0.40086099999999997
sS'ADP'
p176
F0.598809
s(lp177
(g30
I3
tp178
atp179
a(g45
(dp180
S'VERB'
p181
F2.7e-05
sS'NOUN'
p182
F0.999972
s(lp183
(g45
I4
tp184
atp185
a(g60
(dp186
S'VERB'
p187
F1.0
s(lp188
(g60
I5
tp189
atp190
a(g52
(dp191
S'ADV'
p192
F0.921882
sS'NOUN'
p193
F1e-06
sS'DET'
p194
F0.078117
sg158
F0.0
s(lp195
(g52
I6
tp196
atp197
a(g68
(dp198
S'ADV'
p199
F0.99563
sS'ADJ'
p200
F0.00437
s(lp201
(g68
I7
tp202
atp203
a(g75
(dp204
S'VERB'
p205
F1.0
s(lp206
(g75
I8
tp207
atp208
a(g82
(dp209
S'NOUN'
p210
F1.6e-05
sS'VERB'
p211
F0.976722
sS'ADJ'
p212
F0.023262
s(lp213
(g82
I9
tp214
atp215
a(g89
(dp216
S'ADV'
p217
F0.0
sS'PRT'
p218
F1.0
sS'ADP'
p219
F0.0
s(lp220
(g89
I10
tp221
atp222
a(g109
(dp223
S'VERB'
p224
F0.990637
sS'NOUN'
p225
F0.009363
s(lp226
(g109
I11
tp227
atp228
a(g112
(dp229
g114
F1.0
s(lp230
(g112
I12
tp231
atp232
a(g129
(dp233
S'VERB'
p234
F0.425315
sS'NOUN'
p235
F0.574686
s(lp236
(g129
I13
tp237
atp238
a(g134
(dp239
S'CONJ'
p240
F0.9998
sS'ADJ'
p241
F0.0002
s(lp242
(g134
I14
tp243
atp244
a(g148
(dp245
S'NOUN'
p246
F1.0
s(lp247
(g148
I15
tp248
atp249
a(g114
(dp250
g114
F1.0
s(lp251
(g114
I16
tp252
atp253
asS'nl'
p254
(lp255
(S'ik'
p256
(dp257
S'PRON'
p258
F0.999981
sS'NOUN'
p259
F1.9e-05
s(lp260
(g7
I0
tp261
atp262
a(S'ben'
p263
(dp264
S'VERB'
p265
F1.0
s(lp266
(g21
I1
tp267
atp268
a(S'er'
p269
(dp270
S'ADV'
p271
F1.0
s(lp272
tp273
a(S'stellig'
p274
(dp275
S'ADJ'
p276
F1.0
s(lp277
(g21
I1
tp278
atp279
a(S'van'
p280
(dp281
S'ADP'
p282
F1.0
s(lp283
tp284
a(S'overtuigd'
p285
(dp286
S'VERB'
p287
F0.320709
sS'ADJ'
p288
F0.679291
s(lp289
(g14
I2
tp290
atp291
a(S'dat'
p292
(dp293
S'PRON'
p294
F0.334588
sS'CONJ'
p295
F0.665412
s(lp296
(g30
I3
tp297
atp298
a(S'steun'
p299
(dp300
S'VERB'
p301
F0.005095
sS'NOUN'
p302
F0.994905
s(lp303
(g45
I4
tp304
atp305
a(S'niet'
p306
(dp307
S'ADV'
p308
F0.999972
sS'PRON'
p309
F0.0
sS'VERB'
p310
F2.8e-05
sg158
F0.0
s(lp311
(g52
I6
tp312
atp313
a(S'meer'
p314
(dp315
S'ADV'
p316
F0.995485
sS'NUM'
p317
F0.004494
sS'NOUN'
p318
F1e-06
sS'VERB'
p319
F2e-05
s(lp320
(g68
I7
tp321
atp322
a(S'beperkt'
p323
(dp324
S'VERB'
p325
F0.9634680000000001
sS'ADJ'
p326
F0.036532
s(lp327
tp328
a(S'mag'
p329
(dp330
S'VERB'
p331
F1.0
s(lp332
(g60
I5
tp333
atp334
a(S'blijven'
p335
(dp336
S'VERB'
p337
F0.999823
sS'NOUN'
p338
F0.000177
s(lp339
(g82
I9
tp340
atp341
a(S'tot'
p342
(dp343
S'CONJ'
p344
F9e-05
sS'ADP'
p345
F0.99991
s(lp346
(g89
I10
tp347
atp348
a(S'hulp'
p349
(dp350
S'NOUN'
p351
F1.0
s(lp352
(g109
I11
tp353
atp354
a(g112
(dp355
g114
F1.0
s(lp356
(g112
I12
tp357
atp358
a(S'ondersteuning'
p359
(dp360
S'NOUN'
p361
F1.0
s(lp362
(g129
I13
tp363
atp364
a(S'of'
p365
(dp366
S'CONJ'
p367
F1.0
s(lp368
(g134
I14
tp369
atp370
a(S'bijstand'
p371
(dp372
S'NOUN'
p373
F1.0
s(lp374
(g148
I15
tp375
atp376
a(g114
(dp377
g114
F1.0
s(lp378
(g114
I16
tp379
atp380
asS'de'
p381
(lp382
(S'ich'
p383
(dp384
S'PRON'
p385
F1.0
s(lp386
(g7
I0
tp387
atp388
a(S'bin'
p389
(dp390
S'VERB'
p391
F1.0
s(lp392
tp393
a(S'der'
p394
(dp395
S'PRON'
p396
F0.000874
sS'DET'
p397
F0.999126
s(lp398
tp399
a(S'festen'
p400
(dp401
S'ADJ'
p402
F1.0
s(lp403
(g21
I1
tp404
atp405
a(S'\xc3\x9cberzeugung'
p406
(dp407
S'NOUN'
p408
F1.0
s(lp409
(g14
I2
tp410
atp411
a(g112
(dp412
g114
F1.0
s(lp413
tp414
a(S'dass'
p415
(dp416
S'CONJ'
p417
F1.0
s(lp418
(g30
I3
tp419
atp420
a(S'entwicklungshilfe'
p421
(dp422
S'ADJ'
p423
F0.260097
sS'NOUN'
p424
F0.606643
s(lp425
(g45
I4
tp426
atp427
a(S'nicht'
p428
(dp429
S'PRT'
p430
F1.0
s(lp431
(g52
I6
tp432
atp433
a(S'l\xc3\xa4nger'
p434
(dp435
S'ADJ'
p436
F1.0
s(lp437
(g68
I7
tp438
atp439
a(S'auf'
p440
(dp441
S'PRT'
p442
F0.003665
sS'ADP'
p443
F0.996311
s(lp444
(g89
I10
tp445
atp446
a(S'einfache'
p447
(dp448
S'ADJ'
p449
F1.0
s(lp450
tp451
a(S'hilfe'
p452
(dp453
S'ADJ'
p454
F0.0003
sS'NOUN'
p455
F0.999677
s(lp456
(g109
I11
tp457
atp458
a(S'und'
p459
(dp460
S'CONJ'
p461
F1.0
s(lp462
(g134
I14
tp463
atp464
a(S'unterst\xc3\xbctzung'
p465
(dp466
S'VERB'
p467
F0.056243
sS'NOUN'
p468
F0.936211
s(lp469
tp470
a(g112
(dp471
g114
F1.0
s(lp472
tp473
a(S'auf'
p474
(dp475
S'ADV'
p476
F0.194637
sS'PRT'
p477
F0.783738
s(lp478
(g89
I10
tp479
atp480
a(S'beistand'
p481
(dp482
S'VERB'
p483
F1.0
s(lp484
(g148
I15
tp485
atp486
a(S'begrenzt'
p487
(dp488
S'VERB'
p489
F0.048944
sS'ADJ'
p490
F0.951056
s(lp491
(g82
I9
tp492
atp493
a(S'werden'
p494
(dp495
S'VERB'
p496
F0.999996
s(lp497
(g75
I8
tp498
atp499
a(S'kann'
p500
(dp501
S'VERB'
p502
F1.0
s(lp503
tp504
a(g114
(dp505
g114
F1.0
s(lp506
(g114
I16
tp507
atp508
asS'it'
p509
(lp510
(S'credo'
p511
(dp512
S'VERB'
p513
F0.981124
sS'NOUN'
p514
F0.018876
s(lp515
(g14
I2
tp516
atp517
a(S'fermamente'
p518
(dp519
S'ADV'
p520
F1.0
s(lp521
(g21
I1
tp522
atp523
a(S'che'
p524
(dp525
S'PRON'
p526
F0.875157
sS'CONJ'
p527
F0.118765
sS'ADJ'
p528
F0.006078
s(lp529
(g30
I3
tp530
atp531
a(S'gli'
p532
(dp533
S'PRON'
p534
F0.014591
sS'DET'
p535
F0.985409
s(lp536
tp537
a(S'aiuti'
p538
(dp539
S'VERB'
p540
F0.013512
sS'NOUN'
p541
F0.986488
s(lp542
(g45
I4
tp543
atp544
a(S'non'
p545
(dp546
S'ADV'
p547
F1.0
s(lp548
(g52
I6
tp549
atp550
a(S'dovrebbero'
p551
(dp552
S'VERB'
p553
F1.0
s(lp554
(g60
I5
tp555
atp556
a(S'pi\xc3\xb9'
p557
(dp558
S'ADV'
p559
F0.999405
sS'NOUN'
p560
F1e-06
sS'ADJ'
p561
F3.2e-05
sS'ADP'
p562
F0.000561
s(lp563
(g68
I7
tp564
atp565
a(S'limitarsi'
p566
(dp567
S'VERB'
p568
F1.0
s(lp569
(g82
I9
tp570
atp571
a(S'ad'
p572
(dp573
S'ADP'
p574
F1.0
s(lp575
(g89
I10
tp576
atp577
a(S'aiutare'
p578
(dp579
S'VERB'
p580
F1.0
s(lp581
(g109
I11
tp582
atp583
a(g112
(dp584
g114
F1.0
s(lp585
(g112
I12
tp586
atp587
a(S'sostenere'
p588
(dp589
S'VERB'
p590
F1.0
s(lp591
(g129
I13
tp592
atp593
a(S'o'
p594
(dp595
g158
F0.000274
sS'CONJ'
p596
F0.999726
s(lp597
(g134
I14
tp598
atp599
a(S'assistere'
p600
(dp601
S'VERB'
p602
F1.0
s(lp603
(g148
I15
tp604
atp605
a(g114
(dp606
g114
F1.0
s(lp607
(g114
I16
tp608
atp609
asS'sk'
p610
(lp611
(S'ver\xc3\xadm'
p612
(dp613
S'VERB'
p614
F1.0
s(lp615
tp616
a(g112
(dp617
g114
F1.0
s(lp618
(g14
I2
tp619
atp620
a(S'\xc5\xbee'
p621
(dp622
g158
F0.00032700000000000003
sS'CONJ'
p623
F0.999673
s(lp624
(g30
I3
tp625
atp626
a(S'pomoc'
p627
(dp628
S'VERB'
p629
F7.6e-05
sS'NOUN'
p630
F0.999924
s(lp631
(g45
I4
tp632
atp633
a(S'ani'
p634
(dp635
g158
F0.345618
sS'CONJ'
p636
F0.654382
s(lp637
(g134
I14
tp638
atp639
a(S'podpora'
p640
(dp641
S'NOUN'
p642
F1.0
s(lp643
(g148
I15
tp644
atp645
a(S'by'
p646
(dp647
S'PRT'
p648
F0.996267
sg158
F0.0037329999999999998
s(lp649
tp650
a(S'u\xc5\xbe'
p651
(dp652
S'ADV'
p653
F0.148448
sg158
F0.851464
sS'CONJ'
p654
F8.9e-05
s(lp655
tp656
a(S'nemali'
p657
(dp658
S'VERB'
p659
F1.0
s(lp660
(g60
I5
tp661
atp662
a(S'by\xc5\xa5'
p663
(dp664
S'VERB'
p665
F1.0
s(lp666
(g75
I8
tp667
atp668
a(S'viac'
p669
(dp670
S'ADV'
p671
F0.847336
sg158
F0.006658
sS'CONJ'
p672
F0.000542
sS'NUM'
p673
F0.145465
s(lp674
(g68
I7
tp675
atp676
a(S'obmedzovan\xc3\xa9'
p677
(dp678
S'VERB'
p679
F1.0
s(lp680
(g82
I9
tp681
atp682
a(g114
(dp683
g114
F1.0
s(lp684
(g114
I16
tp685
atp686
asS'pl'
p687
(lp688
(S'jestem'
p689
(dp690
S'VERB'
p691
F1.0
s(lp692
(g7
I0
tp693
atp694
a(S'g\xc5\x82\xc4\x99boko'
p695
(dp696
S'ADV'
p697
F1.0
s(lp698
(g21
I1
tp699
atp700
a(S'przekonana'
p701
(dp702
S'VERB'
p703
F0.136747
sS'ADJ'
p704
F0.863253
s(lp705
(g14
I2
tp706
atp707
a(g112
(dp708
g158
F0.0
sg114
F1.0
s(lp709
tp710
a(S'\xc5\xbce'
p711
(dp712
S'PRT'
p713
F0.000134
sS'CONJ'
p714
F0.999865
s(lp715
(g30
I3
tp716
atp717
a(S'pomoc'
p718
(dp719
S'NOUN'
p720
F1.0
s(lp721
(g45
I4
tp722
atp723
a(S'nie'
p724
(dp725
S'ADV'
p726
F8e-06
sS'PRT'
p727
F0.991625
sS'CONJ'
p728
F0.008354
sS'NOUN'
p729
F4e-06
sS'PRON'
p730
F9.999999999999999e-06
s(lp731
(g52
I6
tp732
atp733
a(S'powinna'
p734
(dp735
S'VERB'
p736
F1.0
s(lp737
(g60
I5
tp738
atp739
a(S'ju\xc5\xbc'
p740
(dp741
S'PRT'
p742
F1.0
s(lp743
tp744
a(S'd\xc5\x82u\xc5\xbcej'
p745
(dp746
S'ADV'
p747
F1.0
s(lp748
(g68
I7
tp749
atp750
a(S'ogranicza\xc4\x87'
p751
(dp752
S'VERB'
p753
F1.0
s(lp754
tp755
a(S'si\xc4\x99'
p756
(dp757
S'PRT'
p758
F1.0
s(lp759
(g82
I9
tp760
atp761
a(S'do'
p762
(dp763
g158
F0.0
sS'NOUN'
p764
F6e-06
sS'ADP'
p765
F0.999994
s(lp766
(g89
I10
tp767
atp768
a(S'poparcia'
p769
(dp770
S'VERB'
p771
F0.22981
sS'NOUN'
p772
F0.77019
s(lp773
(g129
I13
tp774
atp775
a(S'czy'
p776
(dp777
S'PRT'
p778
F0.239871
sS'CONJ'
p779
F0.759711
sS'NUM'
p780
F0.000371
sS'NOUN'
p781
F4.8e-05
s(lp782
(g134
I14
tp783
atp784
a(S'wsparcia'
p785
(dp786
S'VERB'
p787
F0.040881
sS'NOUN'
p788
F0.959119
s(lp789
(g148
I15
tp790
atp791
a(g114
(dp792
g114
F1.0
s(lp793
(g114
I16
tp794
atp795
asS'sl'
p796
(lp797
(S'trdno'
p798
(dp799
S'ADV'
p800
F0.989724
sS'ADJ'
p801
F0.010277000000000001
s(lp802
(g21
I1
tp803
atp804
a(S'sem'
p805
(dp806
S'ADV'
p807
F0.042143
sS'PRT'
p808
F0.001483
sS'VERB'
p809
F0.956374
s(lp810
(g7
I0
tp811
atp812
a(S'prepri\xc4\x8dana'
p813
(dp814
S'ADJ'
p815
F1.0
s(lp816
(g14
I2
tp817
atp818
a(g112
(dp819
g114
F1.0
s(lp820
tp821
a(S'da'
p822
(dp823
S'PRT'
p824
F3.5e-05
sS'CONJ'
p825
F0.99975
sS'VERB'
p826
F0.000214
sg158
F1e-06
s(lp827
(g30
I3
tp828
atp829
a(S'razvojna'
p830
(dp831
S'ADJ'
p832
F1.0
s(lp833
tp834
a(S'pomo\xc4\x8d'
p835
(dp836
S'NOUN'
p837
F1.0
s(lp838
(g45
I4
tp839
atp840
a(S'ne'
p841
(dp842
S'PRT'
p843
F0.995821
sS'CONJ'
p844
F0.004105
sg158
F7.3e-05
s(lp845
(g52
I6
tp846
atp847
a(S'bi'
p848
(dp849
g158
F0.0
sS'VERB'
p850
F1.0
s(lp851
tp852
a(S'smela'
p853
(dp854
S'VERB'
p855
F1.0
s(lp856
(g60
I5
tp857
atp858
a(S'biti'
p859
(dp860
S'VERB'
p861
F0.999854
sS'NOUN'
p862
F0.000146
s(lp863
(g75
I8
tp864
atp865
a(S'omejena'
p866
(dp867
S'ADJ'
p868
F1.0
s(lp869
tp870
a(S'le'
p871
(dp872
S'PRT'
p873
F0.999966
sg158
F3.4e-05
s(lp874
(g82
I9
tp875
atp876
a(S'na'
p877
(dp878
S'ADP'
p879
F1.0
s(lp880
(g89
I10
tp881
atp882
a(S'splo\xc5\xa1no'
p883
(dp884
S'ADV'
p885
F0.000452
sS'ADJ'
p886
F0.999549
s(lp887
tp888
a(S'pomo\xc4\x8d'
p889
(dp890
S'NOUN'
p891
F1.0
s(lp892
(g109
I11
tp893
atp894
a(g112
(dp895
g114
F1.0
s(lp896
(g112
I12
tp897
atp898
a(S'podporo'
p899
(dp900
S'NOUN'
p901
F1.0
s(lp902
(g129
I13
tp903
atp904
a(S'ali'
p905
(dp906
S'ADV'
p907
F0.005171
sS'CONJ'
p908
F0.994829
s(lp909
(g134
I14
tp910
atp911
a(S'prispevek'
p912
(dp913
S'NOUN'
p914
F1.0
s(lp915
(g148
I15
tp916
atp917
a(g114
(dp918
g114
F1.0
s(lp919
(g114
I16
tp920
atp921
asS'es'
p922
(lp923
(S'creo'
p924
(dp925
S'VERB'
p926
F1.0
s(lp927
(g14
I2
tp928
atp929
a(S'firmemente'
p930
(dp931
S'ADV'
p932
F1.0
s(lp933
(g21
I1
tp934
atp935
a(S'que'
p936
(dp937
g158
F0.0
sS'CONJ'
p938
F1.0
s(lp939
(g30
I3
tp940
atp941
a(S'la'
p942
(dp943
S'PRON'
p944
F0.00027
sS'DET'
p945
F0.99973
sg158
F0.0
sS'NOUN'
p946
F0.0
s(lp947
tp948
a(S'ayuda'
p949
(dp950
S'NOUN'
p951
F1.0
s(lp952
(g45
I4
tp953
atp954
a(S'debe'
p955
(dp956
S'VERB'
p957
F1.0
s(lp958
(g60
I5
tp959
atp960
a(S'dejar'
p961
(dp962
S'VERB'
p963
F1.0
s(lp964
(g68
I7
tp965
atp966
a(S'de'
p967
(dp968
g158
F0.0
sS'CONJ'
p969
F0.304276
sS'ADP'
p970
F0.695724
s(lp971
tp972
a(S'limitarse'
p973
(dp974
S'VERB'
p975
F1.0
s(lp976
(g82
I9
tp977
atp978
a(S'a'
p979
(dp980
g158
F4e-06
sS'CONJ'
p981
F4e-06
sS'ADP'
p982
F0.999992
s(lp983
(g89
I10
tp984
atp985
a(S'la'
p986
(dp987
S'NOUN'
p988
F0.0
sS'PRON'
p989
F0.0
sS'DET'
p990
F0.999999
sg158
F0.0
s(lp991
tp992
a(S'contribuci\xc3\xb3n'
p993
(dp994
S'NOUN'
p995
F1.0
s(lp996
(g109
I11
tp997
atp998
a(g112
(dp999
g114
F1.0
s(lp1000
(g112
I12
tp1001
atp1002
a(S'apoyo'
p1003
(dp1004
S'NOUN'
p1005
F1.0
s(lp1006
(g129
I13
tp1007
atp1008
a(g594
(dp1009
g158
F0.001472
sS'CONJ'
p1010
F0.998528
s(lp1011
(g134
I14
tp1012
atp1013
a(S'asistencia'
p1014
(dp1015
S'NOUN'
p1016
F1.0
s(lp1017
(g148
I15
tp1018
atp1019
a(g114
(dp1020
g114
F1.0
s(lp1021
(g114
I16
tp1022
atp1023
as.