(dp0
S'fr'
p1
(lp2
(S'de'
p3
(dp4
S'ADP'
p5
F1.0
s(lp6
tp7
a(S'plus'
p8
(dp9
S'ADV'
p10
F1.0
sS'VERB'
p11
F0.0
s(lp12
(S'furthermore'
p13
I0
tp14
atp15
a(S','
p16
(dp17
S'.'
p18
F1.0
s(lp19
(g16
I1
tp20
atp21
a(S"l'"
p22
(dp23
S'ADJ'
p24
F0.13429
sS'VERB'
p25
F0.638201
sS'NOUN'
p26
F0.227509
s(lp27
(S'it'
p28
I2
tp29
atp30
a(S'am\xc3\xa9nagement'
p31
(dp32
S'NOUN'
p33
F1.0
s(lp34
(S'arrangements'
p35
I13
tp36
atp37
a(S'aux'
p38
(dp39
S'ADP'
p40
F1.0
s(lp41
(S'the'
p42
I16
tp43
atp44
a(S'besoins'
p45
(dp46
S'NOUN'
p47
F1.0
s(lp48
(S'needs'
p49
I17
tp50
atp51
a(S'des'
p52
(dp53
S'DET'
p54
F2.2e-05
sS'ADP'
p55
F0.999978
s(lp56
(S'of'
p57
I18
tp58
atp59
a(S'travailleurs'
p60
(dp61
S'ADJ'
p62
F0.042392
sS'NOUN'
p63
F0.957608
s(lp64
(S'workers'
p65
I19
tp66
atp67
a(S'en'
p68
(dp69
S'PRON'
p70
F0.000414
sS'ADP'
p71
F0.999586
s(lp72
(S'the'
p73
I21
tp74
atp75
a(S'fin'
p76
(dp77
S'ADJ'
p78
F0.075398
sS'NOUN'
p79
F0.924602
s(lp80
(S'end'
p81
I22
tp82
atp83
a(S'de'
p84
(dp85
S'ADP'
p86
F1.0
s(lp87
(S'of'
p88
I23
tp89
atp90
a(S'carri\xc3\xa8re'
p91
(dp92
S'NOUN'
p93
F1.0
s(lp94
(S'career'
p95
I25
tp96
atp97
a(S'se'
p98
(dp99
S'PRON'
p100
F1.0
s(lp101
tp102
a(S'fait'
p103
(dp104
S'ADJ'
p105
F9e-06
sS'VERB'
p106
F0.999722
sS'NOUN'
p107
F0.000269
s(lp108
(S'is'
p109
I3
tp110
atp111
a(S'essentiellement'
p112
(dp113
S'ADV'
p114
F1.0
s(lp115
(S'mainly'
p116
I4
tp117
atp118
a(S'par'
p119
(dp120
S'NOUN'
p121
F0.0
sS'ADP'
p122
F1.0
s(lp123
(S'early'
p124
I5
tp125
atp126
a(S'les'
p127
(dp128
S'PRON'
p129
F5.6e-05
sS'DET'
p130
F0.999943
sS'ADP'
p131
F2e-06
s(lp132
tp133
a(S'syst\xc3\xa8mes'
p134
(dp135
S'NOUN'
p136
F1.0
s(lp137
(S'schemes'
p138
I7
tp139
atp140
a(S'de'
p141
(dp142
S'ADP'
p143
F1.0
s(lp144
tp145
a(S'pr\xc3\xa9retraite'
p146
(dp147
S'NOUN'
p148
F1.0
s(lp149
(S'retirement'
p150
I6
tp151
atp152
a(g16
(dp153
g18
F1.0
s(lp154
(g16
I28
tp155
atp156
a(S'que'
p157
(dp158
S'ADV'
p159
F0.013893
sS'PRON'
p160
F0.470512
sS'CONJ'
p161
F0.515596
s(lp162
(S'that'
p163
I8
tp164
atp165
a(S'm.'
p166
(dp167
S'X'
p168
F0.008606
sS'VERB'
p169
F0.962996
sS'ADJ'
p170
F0.026335
sS'NOUN'
p171
F0.002065
s(lp172
(S'mr'
p173
I32
tp174
atp175
a(S'mann'
p176
(dp177
S'ADJ'
p178
F0.099489
sS'VERB'
p179
F0.000773
sS'NOUN'
p180
F0.89974
s(lp181
(S'mann'
p182
I33
tp183
atp184
a(S'souhaitait'
p185
(dp186
S'VERB'
p187
F1.0
s(lp188
(S'wants'
p189
I34
tp190
atp191
a(S'purement'
p192
(dp193
S'ADV'
p194
F1.0
s(lp195
tp196
a(S'et'
p197
(dp198
S'CONJ'
p199
F1.0
s(lp200
(S'and'
p201
I26
tp202
atp203
a(S'simplement'
p204
(dp205
S'ADV'
p206
F1.0
s(lp207
(S'simply'
p208
I30
tp209
atp210
a(S'd\xc3\xa9manteler'
p211
(dp212
S'VERB'
p213
F1.0
s(lp214
(S'dismantle'
p215
I36
tp216
atp217
a(g18
(dp218
g18
F1.0
s(lp219
(g18
I38
tp220
atp221
asS'en'
p222
(lp223
(g13
(dp224
S'ADV'
p225
F1.0
s(lp226
(g13
I0
tp227
atp228
a(g16
(dp229
g18
F1.0
s(lp230
(g16
I1
tp231
atp232
a(g28
(dp233
S'PRON'
p234
F1.0
s(lp235
(g28
I2
tp236
atp237
a(g109
(dp238
S'VERB'
p239
F1.0
s(lp240
(g109
I3
tp241
atp242
a(g116
(dp243
S'ADV'
p244
F1.0
s(lp245
(g116
I4
tp246
atp247
a(g124
(dp248
S'ADV'
p249
F0.047682
sS'ADJ'
p250
F0.952318
s(lp251
(g124
I5
tp252
atp253
a(g150
(dp254
S'NOUN'
p255
F1.0
s(lp256
(g150
I6
tp257
atp258
a(g138
(dp259
S'VERB'
p260
F0.000439
sS'NOUN'
p261
F0.999561
s(lp262
(g138
I7
tp263
atp264
a(g163
(dp265
S'ADV'
p266
F0.000257
sS'DET'
p267
F0.9997360000000001
sS'ADP'
p268
F7e-06
s(lp269
(g163
I8
tp270
atp271
a(S'are'
p272
(dp273
S'VERB'
p274
F0.999997
sS'NOUN'
p275
F3e-06
s(lp276
(g272
I9
tp277
atp278
a(S'used'
p279
(dp280
S'VERB'
p281
F0.9982719999999999
sS'ADJ'
p282
F0.001728
s(lp283
(g279
I10
tp284
atp285
a(S'to'
p286
(dp287
S'ADV'
p288
F0.0
sS'PRT'
p289
F1.0
sS'ADP'
p290
F0.0
s(lp291
(g286
I11
tp292
atp293
a(S'make'
p294
(dp295
S'VERB'
p296
F0.99986
sS'NOUN'
p297
F0.00014
s(lp298
(g294
I12
tp299
atp300
a(g35
(dp301
S'NOUN'
p302
F1.0
s(lp303
(g35
I13
tp304
atp305
a(S'to'
p306
(dp307
S'ADV'
p308
F0.0
sS'PRT'
p309
F1.0
sS'ADP'
p310
F0.0
s(lp311
(g306
I14
tp312
atp313
a(S'meet'
p314
(dp315
S'ADJ'
p316
F1e-06
sS'VERB'
p317
F0.999997
sS'NOUN'
p318
F2e-06
s(lp319
(g314
I15
tp320
atp321
a(g42
(dp322
S'NOUN'
p323
F6e-06
sS'DET'
p324
F0.999994
s(lp325
(g42
I16
tp326
atp327
a(g49
(dp328
S'ADV'
p329
F0.002627
sS'VERB'
p330
F0.067645
sS'NOUN'
p331
F0.929728
s(lp332
(g49
I17
tp333
atp334
a(g57
(dp335
S'ADP'
p336
F1.0
s(lp337
(g57
I18
tp338
atp339
a(g65
(dp340
S'NOUN'
p341
F1.0
s(lp342
(g65
I19
tp343
atp344
a(S'nearing'
p345
(dp346
S'VERB'
p347
F1.0
s(lp348
(g345
I20
tp349
atp350
a(g73
(dp351
S'NOUN'
p352
F1e-06
sS'DET'
p353
F0.999999
s(lp354
(g73
I21
tp355
atp356
a(g81
(dp357
S'VERB'
p358
F0.000559
sS'NOUN'
p359
F0.999441
s(lp360
(g81
I22
tp361
atp362
a(g88
(dp363
S'ADP'
p364
F1.0
s(lp365
(g88
I23
tp366
atp367
a(S'their'
p368
(dp369
S'PRON'
p370
F1.0
s(lp371
(g368
I24
tp372
atp373
a(g95
(dp374
S'VERB'
p375
F1e-06
sS'NOUN'
p376
F0.999999
s(lp377
(g95
I25
tp378
atp379
a(g201
(dp380
S'CONJ'
p381
F1.0
sS'NOUN'
p382
F0.0
s(lp383
(g201
I26
tp384
atp385
a(S'yet'
p386
(dp387
S'ADV'
p388
F0.993961
sS'CONJ'
p389
F0.006013
sS'ADP'
p390
F2.5e-05
s(lp391
(g386
I27
tp392
atp393
a(g16
(dp394
g18
F1.0
s(lp395
(g16
I28
tp396
atp397
a(S'quite'
p398
(dp399
S'ADV'
p400
F0.999999
sS'DET'
p401
F1e-06
s(lp402
(g398
I29
tp403
atp404
a(g208
(dp405
S'ADV'
p406
F0.997703
sS'ADJ'
p407
F0.002297
s(lp408
(g208
I30
tp409
atp410
a(g16
(dp411
g18
F1.0
s(lp412
(g16
I31
tp413
atp414
a(g173
(dp415
S'ADJ'
p416
F0.003055
sS'NOUN'
p417
F0.9969439999999999
s(lp418
(g173
I32
tp419
atp420
a(g182
(dp421
S'ADV'
p422
F0.002842
sS'ADJ'
p423
F0.000272
sS'VERB'
p424
F0.00045999999999999996
sS'NOUN'
p425
F0.996426
s(lp426
(g182
I33
tp427
atp428
a(g189
(dp429
S'VERB'
p430
F0.991222
sS'NOUN'
p431
F0.008778
s(lp432
(g189
I34
tp433
atp434
a(S'to'
p435
(dp436
S'ADV'
p437
F0.0
sS'PRT'
p438
F1.0
sS'ADP'
p439
F0.0
s(lp440
(g435
I35
tp441
atp442
a(g215
(dp443
S'VERB'
p444
F1.0
s(lp445
(g215
I36
tp446
atp447
a(S'them'
p448
(dp449
S'PRON'
p450
F1.0
s(lp451
(g448
I37
tp452
atp453
a(g18
(dp454
g18
F1.0
s(lp455
(g18
I38
tp456
atp457
asS'nl'
p458
(lp459
(S'de'
p460
(dp461
S'DET'
p462
F1.0
s(lp463
tp464
a(S'aanpassing'
p465
(dp466
S'NOUN'
p467
F1.0
s(lp468
(g35
I13
tp469
atp470
a(S'aan'
p471
(dp472
S'ADV'
p473
F0.007796
sS'ADP'
p474
F0.992204
s(lp475
(g306
I14
tp476
atp477
a(S'de'
p478
(dp479
S'DET'
p480
F1.0
s(lp481
(g42
I16
tp482
atp483
a(S'behoeften'
p484
(dp485
S'NOUN'
p486
F1.0
s(lp487
(g49
I17
tp488
atp489
a(S'van'
p490
(dp491
S'ADP'
p492
F1.0
s(lp493
(g57
I18
tp494
atp495
a(S'de'
p496
(dp497
S'DET'
p498
F1.0
s(lp499
tp500
a(S'werkenden'
p501
(dp502
S'NOUN'
p503
F1.0
s(lp504
(g65
I19
tp505
atp506
a(S'aan'
p507
(dp508
S'ADV'
p509
F0.008997
sS'ADP'
p510
F0.991003
s(lp511
(g345
I20
tp512
atp513
a(S'het'
p514
(dp515
S'PRON'
p516
F0.000934
sS'DET'
p517
F0.999065
s(lp518
(g73
I21
tp519
atp520
a(S'einde'
p521
(dp522
S'NOUN'
p523
F1.0
s(lp524
(g81
I22
tp525
atp526
a(S'van'
p527
(dp528
S'ADP'
p529
F1.0
s(lp530
(g88
I23
tp531
atp532
a(S'hun'
p533
(dp534
S'PRON'
p535
F1.0
s(lp536
(g368
I24
tp537
atp538
a(S'loopbaan'
p539
(dp540
S'NOUN'
p541
F1.0
s(lp542
(g95
I25
tp543
atp544
a(S'wordt'
p545
(dp546
S'VERB'
p547
F1.0
s(lp548
(g109
I3
tp549
atp550
a(S'bovendien'
p551
(dp552
S'ADV'
p553
F1.0
s(lp554
(g13
I0
tp555
atp556
a(S'hoofdzakelijk'
p557
(dp558
S'ADV'
p559
F0.999375
sS'ADJ'
p560
F0.000625
s(lp561
(g116
I4
tp562
atp563
a(S'gerealiseerd'
p564
(dp565
S'VERB'
p566
F1.0
s(lp567
tp568
a(S'door'
p569
(dp570
S'ADV'
p571
F0.0
sS'CONJ'
p572
F8e-06
sS'ADP'
p573
F0.999992
s(lp574
(g28
I2
tp575
atp576
a(S'middel'
p577
(dp578
S'NOUN'
p579
F1.0
s(lp580
(g345
I20
tp581
atp582
a(S'van'
p583
(dp584
S'ADP'
p585
F1.0
s(lp586
tp587
a(S'vervroegd'
p588
(dp589
S'VERB'
p590
F1.0
s(lp591
(g124
I5
tp592
atp593
a(S'pensioenregelingen'
p594
(dp595
S'NOUN'
p596
F1.0
s(lp597
(g150
I6
tp598
atp599
a(g16
(dp600
g18
F1.0
s(lp601
(g16
I31
tp602
atp603
a(S'die'
p604
(dp605
S'PRON'
p606
F1.0
s(lp607
(g163
I8
tp608
atp609
a(S'de'
p610
(dp611
S'DET'
p612
F1.0
s(lp613
tp614
a(S'heer'
p615
(dp616
S'NOUN'
p617
F1.0
s(lp618
(g173
I32
tp619
atp620
a(S'mann'
p621
(dp622
S'ADJ'
p623
F0.117703
sS'NOUN'
p624
F0.882297
s(lp625
(g182
I33
tp626
atp627
a(S'desalniettemin'
p628
(dp629
S'ADV'
p630
F1.0
s(lp631
(g386
I27
tp632
atp633
a(S'simpelweg'
p634
(dp635
S'ADV'
p636
F1.0
s(lp637
(g208
I30
tp638
atp639
a(S'wil'
p640
(dp641
S'VERB'
p642
F0.578136
sS'NOUN'
p643
F0.421864
s(lp644
(g189
I34
tp645
atp646
a(S'ontmantelen'
p647
(dp648
S'VERB'
p649
F0.995875
sS'NOUN'
p650
F0.004125
s(lp651
(g215
I36
tp652
atp653
a(g18
(dp654
g18
F1.0
s(lp655
(g18
I38
tp656
atp657
asS'de'
p658
(lp659
(S'dar\xc3\xbcber'
p660
(dp661
S'ADV'
p662
F1.0
sS'PRT'
p663
F0.0
s(lp664
tp665
a(S'hinaus'
p666
(dp667
S'ADV'
p668
F0.528806
sS'PRT'
p669
F0.471194
s(lp670
(g13
I0
tp671
atp672
a(S'sind'
p673
(dp674
S'VERB'
p675
F1.0
s(lp676
(g109
I3
tp677
atp678
a(S'es'
p679
(dp680
S'PRON'
p681
F1.0
s(lp682
(g28
I2
tp683
atp684
a(S'in'
p685
(dp686
S'ADP'
p687
F1.0
s(lp688
tp689
a(S'erster'
p690
(dp691
S'ADJ'
p692
F1.0
s(lp693
tp694
a(S'linie'
p695
(dp696
S'VERB'
p697
F3.9e-05
sS'NOUN'
p698
F0.999944
s(lp699
(g116
I4
tp700
atp701
a(S'die'
p702
(dp703
S'PRON'
p704
F7e-05
sS'DET'
p705
F0.999906
s(lp706
(g124
I5
tp707
atp708
a(S'vorruhestandsregelungen'
p709
(dp710
S'ADJ'
p711
F0.001273
sS'NOUN'
p712
F0.998507
s(lp713
(g150
I6
tp714
atp715
a(g16
(dp716
g18
F1.0
s(lp717
(g163
I8
tp718
atp719
a(S'die'
p720
(dp721
S'PRON'
p722
F0.416115
sS'DET'
p723
F0.518558
s(lp724
(g272
I9
tp725
atp726
a(S'dazu'
p727
(dp728
S'ADV'
p729
F0.999866
sS'PRT'
p730
F0.000134
s(lp731
tp732
a(S'dienen'
p733
(dp734
S'VERB'
p735
F1.0
s(lp736
(g279
I10
tp737
atp738
a(g16
(dp739
g18
F1.0
s(lp740
(g286
I11
tp741
atp742
a(S'vereinbarungen'
p743
(dp744
S'VERB'
p745
F0.31773
sS'ADJ'
p746
F0.354297
s(lp747
(g35
I13
tp748
atp749
a(S'zu'
p750
(dp751
S'PRT'
p752
F0.9998790000000001
s(lp753
(g306
I14
tp754
atp755
a(S'treffen'
p756
(dp757
S'VERB'
p758
F1.0
s(lp759
(g314
I15
tp760
atp761
a(g16
(dp762
g18
F1.0
s(lp763
tp764
a(S'um'
p765
(dp766
S'CONJ'
p767
F0.643856
sS'ADP'
p768
F0.356012
s(lp769
tp770
a(S'den'
p771
(dp772
S'PRON'
p773
F0.017145
sS'DET'
p774
F0.982375
s(lp775
(g42
I16
tp776
atp777
a(S'bed\xc3\xbcrfnissen'
p778
(dp779
S'ADJ'
p780
F0.279396
sS'NOUN'
p781
F0.613686
s(lp782
(g49
I17
tp783
atp784
a(S'der'
p785
(dp786
S'PRON'
p787
F0.001356
sS'DET'
p788
F0.998497
s(lp789
(g57
I18
tp790
atp791
a(S'arbeitnehmer'
p792
(dp793
S'ADJ'
p794
F0.108635
sS'NOUN'
p795
F0.864381
s(lp796
(g65
I19
tp797
atp798
a(S'gegen'
p799
(dp800
S'PRT'
p801
F0.422662
sS'ADP'
p802
F0.577338
s(lp803
(g345
I20
tp804
atp805
a(S'ende'
p806
(dp807
S'VERB'
p808
F1.0
s(lp809
(g81
I22
tp810
atp811
a(S'ihres'
p812
(dp813
S'PRON'
p814
F1.0
s(lp815
(g368
I24
tp816
atp817
a(S'berufslebens'
p818
(dp819
S'ADJ'
p820
F0.010642
sS'NOUN'
p821
F0.988139
s(lp822
(g95
I25
tp823
atp824
a(S'zu'
p825
(dp826
S'PRT'
p827
F0.999972
s(lp828
(g435
I35
tp829
atp830
a(S'entsprechen'
p831
(dp832
S'VERB'
p833
F1.0
s(lp834
(g314
I15
tp835
atp836
a(g16
(dp837
g18
F1.0
s(lp838
(g16
I28
tp839
atp840
a(S'und'
p841
(dp842
S'CONJ'
p843
F1.0
s(lp844
(g201
I26
tp845
atp846
a(S'dennoch'
p847
(dp848
S'ADV'
p849
F1.0
s(lp850
(g386
I27
tp851
atp852
a(S'm\xc3\xb6chte'
p853
(dp854
S'VERB'
p855
F1.0
s(lp856
(g189
I34
tp857
atp858
a(S'herr'
p859
(dp860
S'ADJ'
p861
F0.030214
sS'NOUN'
p862
F0.939544
s(lp863
(g173
I32
tp864
atp865
a(S'mann'
p866
(dp867
S'ADJ'
p868
F1.0
s(lp869
(g182
I33
tp870
atp871
a(S'diese'
p872
(dp873
S'PRON'
p874
F1.0
s(lp875
(g448
I37
tp876
atp877
a(S'ganze'
p878
(dp879
S'ADJ'
p880
F1.0
s(lp881
(g398
I29
tp882
atp883
a(S'einfach'
p884
(dp885
S'ADV'
p886
F0.019775
sS'ADJ'
p887
F0.980225
s(lp888
(g208
I30
tp889
atp890
a(S'aufheben'
p891
(dp892
S'VERB'
p893
F1.0
s(lp894
(g215
I36
tp895
atp896
a(g18
(dp897
g18
F1.0
s(lp898
(g18
I38
tp899
atp900
asS'it'
p901
(lp902
(S'inoltre'
p903
(dp904
S'ADV'
p905
F1.0
s(lp906
(g13
I0
tp907
atp908
a(g16
(dp909
g18
F1.0
s(lp910
(g16
I1
tp911
atp912
a(S'sono'
p913
(dp914
S'VERB'
p915
F0.999486
sS'NOUN'
p916
F0.000514
s(lp917
(g109
I3
tp918
atp919
a(S'essenzialmente'
p920
(dp921
S'ADV'
p922
F1.0
s(lp923
(g116
I4
tp924
atp925
a(S'i'
p926
(dp927
S'DET'
p928
F1.0
s(lp929
(g138
I7
tp930
atp931
a(S'regimi'
p932
(dp933
S'NOUN'
p934
F1.0
s(lp935
(g138
I7
tp936
atp937
a(S'di'
p938
(dp939
S'CONJ'
p940
F4e-06
sS'ADP'
p941
F0.999996
s(lp942
tp943
a(S'prepensionamento'
p944
(dp945
S'NOUN'
p946
F1.0
s(lp947
(g150
I6
tp948
atp949
a(S'a'
p950
(dp951
S'CONJ'
p952
F0.000335
sS'ADP'
p953
F0.999665
s(lp954
(g286
I11
tp955
atp956
a(S'consentire'
p957
(dp958
S'VERB'
p959
F1.0
s(lp960
(g294
I12
tp961
atp962
a(S'di'
p963
(dp964
S'CONJ'
p965
F1e-06
sS'ADP'
p966
F0.999999
s(lp967
(g138
I7
tp968
atp969
a(S'trovare'
p970
(dp971
S'VERB'
p972
F1.0
s(lp973
tp974
a(S'soluzioni'
p975
(dp976
S'NOUN'
p977
F1.0
s(lp978
(g35
I13
tp979
atp980
a(S'per'
p981
(dp982
S'CONJ'
p983
F0.005329
sS'ADP'
p984
F0.994671
s(lp985
(g306
I14
tp986
atp987
a(S'rispondere'
p988
(dp989
S'VERB'
p990
F1.0
s(lp991
(g314
I15
tp992
atp993
a(S'alle'
p994
(dp995
S'ADP'
p996
F1.0
s(lp997
(g42
I16
tp998
atp999
a(S'esigenze'
p1000
(dp1001
S'NOUN'
p1002
F1.0
s(lp1003
(g49
I17
tp1004
atp1005
a(S'dei'
p1006
(dp1007
S'NOUN'
p1008
F1e-06
sS'DEF'
p1009
F0.001164
sS'ADP'
p1010
F0.998835
s(lp1011
(g57
I18
tp1012
atp1013
a(S'lavoratori'
p1014
(dp1015
S'NOUN'
p1016
F1.0
s(lp1017
(g65
I19
tp1018
atp1019
a(S'che'
p1020
(dp1021
S'PRON'
p1022
F0.947428
sS'CONJ'
p1023
F0.052511
sS'ADJ'
p1024
F6.1e-05
s(lp1025
tp1026
a(S'si'
p1027
(dp1028
S'PRON'
p1029
F1.0
sS'NOUN'
p1030
F0.0
s(lp1031
(g345
I20
tp1032
atp1033
a(S'avvicinano'
p1034
(dp1035
S'VERB'
p1036
F1.0
s(lp1037
(g345
I20
tp1038
atp1039
a(S'al'
p1040
(dp1041
S'ADP'
p1042
F1.0
s(lp1043
(g345
I20
tp1044
atp1045
a(S'termine'
p1046
(dp1047
S'NOUN'
p1048
F1.0
s(lp1049
(g81
I22
tp1050
atp1051
a(S'della'
p1052
(dp1053
S'DEF'
p1054
F0.000382
sS'ADP'
p1055
F0.999618
s(lp1056
(g88
I23
tp1057
atp1058
a(S'loro'
p1059
(dp1060
S'PRON'
p1061
F1.0
s(lp1062
(g368
I24
tp1063
atp1064
a(S'carriera'
p1065
(dp1066
S'NOUN'
p1067
F1.0
s(lp1068
tp1069
a(S'professionale'
p1070
(dp1071
S'ADJ'
p1072
F1.0
s(lp1073
(g95
I25
tp1074
atp1075
a(g16
(dp1076
g18
F1.0
s(lp1077
(g201
I26
tp1078
atp1079
a(S'eppure'
p1080
(dp1081
S'ADV'
p1082
F1.0
s(lp1083
(g386
I27
tp1084
atp1085
a(S"l'"
p1086
(dp1087
S'NOUN'
p1088
F0.002844
sS'VERB'
p1089
F0.820713
sS'ADJ'
p1090
F0.176441
s(lp1091
(g173
I32
tp1092
atp1093
a(S'onorevole'
p1094
(dp1095
S'NOUN'
p1096
F0.106795
sS'ADJ'
p1097
F0.893205
s(lp1098
tp1099
a(S'mann'
p1100
(dp1101
S'ADJ'
p1102
F0.102529
sS'VERB'
p1103
F0.001139
sS'NOUN'
p1104
F0.896332
s(lp1105
(g182
I33
tp1106
atp1107
a(S'propone'
p1108
(dp1109
S'VERB'
p1110
F1.0
s(lp1111
(g189
I34
tp1112
atp1113
a(S'tout'
p1114
(dp1115
S'NOUN'
p1116
F1.0
s(lp1117
tp1118
a(S'court'
p1119
(dp1120
S'NOUN'
p1121
F1.0
s(lp1122
(g345
I20
tp1123
atp1124
a(S'di'
p1125
(dp1126
S'CONJ'
p1127
F6e-06
sS'ADP'
p1128
F0.999994
s(lp1129
(g435
I35
tp1130
atp1131
a(S'smantellarli'
p1132
(dp1133
S'VERB'
p1134
F1.0
s(lp1135
(g215
I36
tp1136
atp1137
a(g18
(dp1138
g18
F1.0
s(lp1139
(g18
I38
tp1140
atp1141
asS'sk'
p1142
(lp1143
(S'na'
p1144
(dp1145
g168
F0.000193
sS'CONJ'
p1146
F1.5e-05
sS'ADP'
p1147
F0.999793
sS'PRT'
p1148
F0.0
s(lp1149
(g286
I11
tp1150
atp1151
a(S'zabezpe\xc4\x8denie'
p1152
(dp1153
S'NOUN'
p1154
F1.0
s(lp1155
(g294
I12
tp1156
atp1157
a(S'opatren\xc3\xad'
p1158
(dp1159
S'NOUN'
p1160
F1.0
s(lp1161
(g35
I13
tp1162
atp1163
a(S's'
p1164
(dp1165
g168
F0.000934
sS'CONJ'
p1166
F7.8e-05
sS'NOUN'
p1167
F7e-06
sS'ADP'
p1168
F0.99895
sS'PRT'
p1169
F3e-05
s(lp1170
tp1171
a(S'cie\xc4\xbeom'
p1172
(dp1173
S'NOUN'
p1174
F1.0
s(lp1175
(g306
I14
tp1176
atp1177
a(S'uspokoji\xc5\xa5'
p1178
(dp1179
S'VERB'
p1180
F1.0
s(lp1181
(g314
I15
tp1182
atp1183
a(S'potreby'
p1184
(dp1185
S'NOUN'
p1186
F1.0
s(lp1187
(g49
I17
tp1188
atp1189
a(S'pracovn\xc3\xadkov'
p1190
(dp1191
S'NOUN'
p1192
F1.0
s(lp1193
tp1194
a(g16
(dp1195
g18
F1.0
s(lp1196
tp1197
a(S'ktor\xc3\xad'
p1198
(dp1199
S'PRON'
p1200
F1.0
s(lp1201
(g65
I19
tp1202
atp1203
a(S'sa'
p1204
(dp1205
S'PRT'
p1206
F0.999958
sS'ADP'
p1207
F0.0
sg168
F4.2000000000000004e-05
s(lp1208
tp1209
a(S'bl\xc3\xad\xc5\xbeia'
p1210
(dp1211
S'VERB'
p1212
F1.0
s(lp1213
tp1214
a(S'ku'
p1215
(dp1216
g168
F0.001039
sS'ADP'
p1217
F0.998961
s(lp1218
(g345
I20
tp1219
atp1220
a(S'koncu'
p1221
(dp1222
S'NOUN'
p1223
F1.0
s(lp1224
(g81
I22
tp1225
atp1226
a(S'svojej'
p1227
(dp1228
S'PRON'
p1229
F1.0
s(lp1230
(g368
I24
tp1231
atp1232
a(S'kari\xc3\xa9ry'
p1233
(dp1234
S'NOUN'
p1235
F1.0
s(lp1236
(g95
I25
tp1237
atp1238
a(g16
(dp1239
g18
F1.0
s(lp1240
(g16
I28
tp1241
atp1242
a(S'sa'
p1243
(dp1244
S'PRT'
p1245
F0.999409
sS'ADP'
p1246
F7e-06
sg168
F0.000585
s(lp1247
(g272
I9
tp1248
atp1249
a(S'navy\xc5\xa1e'
p1250
(dp1251
S'ADV'
p1252
F0.143533
sg168
F0.855949
sS'ADP'
p1253
F0.000519
s(lp1254
(g13
I0
tp1255
atp1256
a(S'v\xc3\xa4\xc4\x8d\xc5\xa1inou'
p1257
(dp1258
S'ADV'
p1259
F0.996649
sS'NOUN'
p1260
F0.003351
s(lp1261
(g116
I4
tp1262
atp1263
a(S'vyu\xc5\xbe\xc3\xadvaj\xc3\xba'
p1264
(dp1265
S'VERB'
p1266
F1.0
s(lp1267
(g279
I10
tp1268
atp1269
a(S'programy'
p1270
(dp1271
S'NOUN'
p1272
F1.0
s(lp1273
(g138
I7
tp1274
atp1275
a(S'pred\xc4\x8dasn\xc3\xa9ho'
p1276
(dp1277
S'ADJ'
p1278
F1.0
s(lp1279
(g124
I5
tp1280
atp1281
a(S'odchodu'
p1282
(dp1283
S'NOUN'
p1284
F1.0
s(lp1285
(g150
I6
tp1286
atp1287
a(S'do'
p1288
(dp1289
g168
F0.000222
sS'ADP'
p1290
F0.999684
sS'PRON'
p1291
F9.4e-05
s(lp1292
tp1293
a(S'd\xc3\xb4chodku'
p1294
(dp1295
S'NOUN'
p1296
F1.0
s(lp1297
(g150
I6
tp1298
atp1299
a(g950
(dp1300
g168
F0.0025380000000000003
sS'CONJ'
p1301
F0.996478
sS'NOUN'
p1302
F0.00018700000000000002
sS'ADP'
p1303
F0.00077
sS'PRT'
p1304
F2.7e-05
s(lp1305
(g16
I31
tp1306
atp1307
a(S'p\xc3\xa1n'
p1308
(dp1309
S'NOUN'
p1310
F1.0
s(lp1311
(g173
I32
tp1312
atp1313
a(S'mann'
p1314
(dp1315
S'NOUN'
p1316
F1.0
s(lp1317
(g182
I33
tp1318
atp1319
a(S'ich'
p1320
(dp1321
S'PRON'
p1322
F1.0
s(lp1323
(g448
I37
tp1324
atp1325
a(S'chce'
p1326
(dp1327
S'VERB'
p1328
F1.0
s(lp1329
(g189
I34
tp1330
atp1331
a(S'jednoducho'
p1332
(dp1333
S'ADV'
p1334
F0.217292
sg168
F0.782708
s(lp1335
(g208
I30
tp1336
atp1337
a(S'zru\xc5\xa1i\xc5\xa5'
p1338
(dp1339
S'VERB'
p1340
F1.0
s(lp1341
(g215
I36
tp1342
atp1343
a(g18
(dp1344
g18
F1.0
s(lp1345
(g18
I38
tp1346
atp1347
asS'pl'
p1348
(lp1349
(S'ponadto'
p1350
(dp1351
S'PRT'
p1352
F0.974295
sS'CONJ'
p1353
F0.025705
s(lp1354
(g13
I0
tp1355
atp1356
a(S'to'
p1357
(dp1358
S'NOUN'
p1359
F0.076988
sS'ADP'
p1360
F5e-06
sS'PRT'
p1361
F0.088231
sg168
F2e-06
sS'CONJ'
p1362
F0.028211
sS'ADJ'
p1363
F0.806563
s(lp1364
(g28
I2
tp1365
atp1366
a(S'g\xc5\x82\xc3\xb3wnie'
p1367
(dp1368
S'ADV'
p1369
F0.034896
sS'PRT'
p1370
F0.965104
s(lp1371
(g116
I4
tp1372
atp1373
a(S'systemy'
p1374
(dp1375
S'NOUN'
p1376
F1.0
s(lp1377
(g138
I7
tp1378
atp1379
a(S'wcze\xc5\x9bniejszych'
p1380
(dp1381
S'ADJ'
p1382
F0.999999
s(lp1383
(g124
I5
tp1384
atp1385
a(S'emerytur'
p1386
(dp1387
S'NOUN'
p1388
F1.0
s(lp1389
(g150
I6
tp1390
atp1391
a(S's\xc4\x85'
p1392
(dp1393
S'VERB'
p1394
F1.0
s(lp1395
(g272
I9
tp1396
atp1397
a(S'wykorzystywane'
p1398
(dp1399
S'VERB'
p1400
F1.000001
s(lp1401
(g279
I10
tp1402
atp1403
a(S'do'
p1404
(dp1405
g168
F0.0
sS'NOUN'
p1406
F2e-06
sS'ADP'
p1407
F0.999998
s(lp1408
(g286
I11
tp1409
atp1410
a(S'tworzenia'
p1411
(dp1412
S'VERB'
p1413
F0.995575
sS'NOUN'
p1414
F0.004425
s(lp1415
tp1416
a(S'warunk\xc3\xb3w'
p1417
(dp1418
S'NOUN'
p1419
F1.0
s(lp1420
(g35
I13
tp1421
atp1422
a(S's\xc5\x82u\xc5\xbc\xc4\x85cych'
p1423
(dp1424
S'VERB'
p1425
F1.0
s(lp1426
(g306
I14
tp1427
atp1428
a(S'realizacji'
p1429
(dp1430
S'NOUN'
p1431
F1.0
s(lp1432
(g314
I15
tp1433
atp1434
a(S'potrzeb'
p1435
(dp1436
S'NOUN'
p1437
F1.0
s(lp1438
(g49
I17
tp1439
atp1440
a(S'pracownik\xc3\xb3w'
p1441
(dp1442
S'NOUN'
p1443
F1.0
s(lp1444
(g65
I19
tp1445
atp1446
a(g16
(dp1447
g168
F0.0
sg18
F1.0
s(lp1448
tp1449
a(S'kt\xc3\xb3rych'
p1450
(dp1451
S'ADJ'
p1452
F0.9999989999999999
s(lp1453
(g345
I20
tp1454
atp1455
a(S'kariera'
p1456
(dp1457
S'NOUN'
p1458
F1.0
s(lp1459
tp1460
a(S'dobiega'
p1461
(dp1462
S'VERB'
p1463
F1.0
s(lp1464
(g345
I20
tp1465
atp1466
a(S'ko\xc5\x84ca'
p1467
(dp1468
S'NOUN'
p1469
F1.0
s(lp1470
(g81
I22
tp1471
atp1472
a(g18
(dp1473
g18
F1.0
s(lp1474
(g201
I26
tp1475
atp1476
a(S'tymczasem'
p1477
(dp1478
S'ADV'
p1479
F0.634552
sS'CONJ'
p1480
F0.365448
s(lp1481
(g386
I27
tp1482
atp1483
a(S'pan'
p1484
(dp1485
g168
F1e-06
sS'NOUN'
p1486
F0.999999
s(lp1487
(g173
I32
tp1488
atp1489
a(S'pose\xc5\x82'
p1490
(dp1491
S'NOUN'
p1492
F0.999999
s(lp1493
(g182
I33
tp1494
atp1495
a(S'mann'
p1496
(dp1497
S'ADJ'
p1498
F1e-05
sS'VERB'
p1499
F0.003136
sS'NOUN'
p1500
F0.996854
sg168
F1e-06
s(lp1501
tp1502
a(S'tak'
p1503
(dp1504
S'ADV'
p1505
F0.57883
sS'NOUN'
p1506
F8.5e-05
sS'PRT'
p1507
F0.415915
sg168
F0.0
sS'CONJ'
p1508
F0.00517
sS'ADJ'
p1509
F0.0
s(lp1510
(g398
I29
tp1511
atp1512
a(S'pro'
p1513
(dp1514
S'ADV'
p1515
F1.0
s(lp1516
(g182
I33
tp1517
atp1518
a(S'prostu'
p1519
(dp1520
S'ADJ'
p1521
F1.0
s(lp1522
(g208
I30
tp1523
atp1524
a(S'chce'
p1525
(dp1526
S'VERB'
p1527
F1.0
s(lp1528
(g189
I34
tp1529
atp1530
a(S'je'
p1531
(dp1532
S'PRT'
p1533
F0.000985
sS'PRON'
p1534
F0.998325
sS'VERB'
p1535
F0.000544
sg168
F0.0
sS'CONJ'
p1536
F0.000129
sS'ADJ'
p1537
F1.7e-05
s(lp1538
(g448
I37
tp1539
atp1540
a(S'zdemontowa\xc4\x87'
p1541
(dp1542
S'VERB'
p1543
F1.0
s(lp1544
(g215
I36
tp1545
atp1546
a(g18
(dp1547
g18
F1.0
s(lp1548
(g18
I38
tp1549
atp1550
asS'sl'
p1551
(lp1552
(S'poleg'
p1553
(dp1554
S'ADV'
p1555
F0.001018
sS'ADP'
p1556
F0.998982
s(lp1557
tp1558
a(S'tega'
p1559
(dp1560
S'PRON'
p1561
F1.0
s(lp1562
(g13
I0
tp1563
atp1564
a(S'so'
p1565
(dp1566
g168
F4.9e-05
sS'VERB'
p1567
F0.99995
s(lp1568
(g109
I3
tp1569
atp1570
a(S'predvsem'
p1571
(dp1572
S'PRT'
p1573
F1.0
s(lp1574
(g116
I4
tp1575
atp1576
a(S'sheme'
p1577
(dp1578
S'NOUN'
p1579
F1.0
s(lp1580
(g138
I7
tp1581
atp1582
a(S'pred\xc4\x8dasnega'
p1583
(dp1584
S'ADV'
p1585
F0.001015
sS'NOUN'
p1586
F3e-05
sS'NUM'
p1587
F0.043732
sS'ADJ'
p1588
F0.955225
s(lp1589
(g124
I5
tp1590
atp1591
a(S'upokojevanja'
p1592
(dp1593
S'NOUN'
p1594
F1.0
s(lp1595
(g150
I6
tp1596
atp1597
a(S'namenjene'
p1598
(dp1599
S'ADJ'
p1600
F1.0
s(lp1601
tp1602
a(S'potrebam'
p1603
(dp1604
S'NOUN'
p1605
F1.0
s(lp1606
(g49
I17
tp1607
atp1608
a(S'delavcev'
p1609
(dp1610
S'NOUN'
p1611
F1.0
s(lp1612
(g65
I19
tp1613
atp1614
a(g16
(dp1615
g18
F1.0
s(lp1616
tp1617
a(S'ki'
p1618
(dp1619
S'CONJ'
p1620
F1.0
s(lp1621
(g163
I8
tp1622
atp1623
a(S'kon\xc4\x8dujejo'
p1624
(dp1625
S'VERB'
p1626
F1.0
s(lp1627
(g345
I20
tp1628
atp1629
a(g1164
(dp1630
S'VERB'
p1631
F0.003255
sS'NOUN'
p1632
F0.007974
sS'ADP'
p1633
F0.9887710000000001
s(lp1634
(g314
I15
tp1635
atp1636
a(S'poklicno'
p1637
(dp1638
S'ADV'
p1639
F0.159688
sS'ADJ'
p1640
F0.840312
s(lp1641
tp1642
a(S'kariero'
p1643
(dp1644
S'NOUN'
p1645
F1.0
s(lp1646
(g95
I25
tp1647
atp1648
a(g16
(dp1649
g18
F1.0
s(lp1650
(g16
I28
tp1651
atp1652
a(S'vendar'
p1653
(dp1654
S'ADV'
p1655
F0.002178
sS'CONJ'
p1656
F0.997822
s(lp1657
(g386
I27
tp1658
atp1659
a(S'jih'
p1660
(dp1661
S'PRON'
p1662
F1.000001
s(lp1663
(g448
I37
tp1664
atp1665
a(S'\xc5\xbeeli'
p1666
(dp1667
S'VERB'
p1668
F1.0
s(lp1669
(g189
I34
tp1670
atp1671
a(S'gospod'
p1672
(dp1673
S'NOUN'
p1674
F1.0
s(lp1675
(g173
I32
tp1676
atp1677
a(S'mann'
p1678
(dp1679
S'ADV'
p1680
F0.003615
sS'ADJ'
p1681
F0.15673499999999999
sS'VERB'
p1682
F0.030444999999999996
sS'NOUN'
p1683
F0.807798
sg168
F0.001404
s(lp1684
(g182
I33
tp1685
atp1686
a(S'preprosto'
p1687
(dp1688
S'ADV'
p1689
F0.86548
sS'ADJ'
p1690
F0.13452
s(lp1691
(g208
I30
tp1692
atp1693
a(S'odpraviti'
p1694
(dp1695
S'VERB'
p1696
F1.0
s(lp1697
(g215
I36
tp1698
atp1699
a(g18
(dp1700
g18
F1.0
s(lp1701
(g18
I38
tp1702
atp1703
asS'es'
p1704
(lp1705
(S'adem\xc3\xa1s'
p1706
(dp1707
S'ADV'
p1708
F1.0
s(lp1709
(g13
I0
tp1710
atp1711
a(g16
(dp1712
g18
F1.0
s(lp1713
(g16
I1
tp1714
atp1715
a(S'son'
p1716
(dp1717
S'VERB'
p1718
F0.999918
sS'NOUN'
p1719
F8.2e-05
s(lp1720
tp1721
a(S'los'
p1722
(dp1723
S'PRON'
p1724
F0.0
sS'DET'
p1725
F1.0
s(lp1726
(g138
I7
tp1727
atp1728
a(S'esquemas'
p1729
(dp1730
S'NOUN'
p1731
F1.0
s(lp1732
tp1733
a(S'de'
p1734
(dp1735
g168
F2.9e-05
sS'CONJ'
p1736
F0.000449
sS'ADP'
p1737
F0.999522
s(lp1738
tp1739
a(S'jubilaci\xc3\xb3n'
p1740
(dp1741
S'NOUN'
p1742
F1.0
s(lp1743
tp1744
a(S'anticipada'
p1745
(dp1746
S'VERB'
p1747
F0.97392
sS'NOUN'
p1748
F0.02608
s(lp1749
(g150
I6
tp1750
atp1751
a(S'los'
p1752
(dp1753
S'PRON'
p1754
F0.00036
sS'DET'
p1755
F0.99964
s(lp1756
(g124
I5
tp1757
atp1758
a(S'que'
p1759
(dp1760
g168
F2e-06
sS'CONJ'
p1761
F0.999998
s(lp1762
(g163
I8
tp1763
atp1764
a(S'se'
p1765
(dp1766
S'PRON'
p1767
F1.0
sS'VERB'
p1768
F0.0
s(lp1769
(g272
I9
tp1770
atp1771
a(S'utilizan'
p1772
(dp1773
S'VERB'
p1774
F1.0
s(lp1775
(g279
I10
tp1776
atp1777
a(S'fundamentalmente'
p1778
(dp1779
S'ADV'
p1780
F1.0
s(lp1781
(g116
I4
tp1782
atp1783
a(S'para'
p1784
(dp1785
S'CONJ'
p1786
F0.992832
sS'ADP'
p1787
F0.007168
s(lp1788
(g286
I11
tp1789
atp1790
a(S'dar'
p1791
(dp1792
S'VERB'
p1793
F1.0
s(lp1794
(g294
I12
tp1795
atp1796
a(S'soluci\xc3\xb3n'
p1797
(dp1798
S'NOUN'
p1799
F1.0
s(lp1800
(g314
I15
tp1801
atp1802
a(g950
(dp1803
g168
F0.000427
sS'CONJ'
p1804
F3e-06
sS'ADP'
p1805
F0.99957
s(lp1806
(g306
I14
tp1807
atp1808
a(S'las'
p1809
(dp1810
S'PRON'
p1811
F0.0
sS'DET'
p1812
F1.0
s(lp1813
(g42
I16
tp1814
atp1815
a(S'necesidades'
p1816
(dp1817
S'NOUN'
p1818
F1.0
s(lp1819
(g49
I17
tp1820
atp1821
a(S'de'
p1822
(dp1823
g168
F0.0
sS'CONJ'
p1824
F1.7e-05
sS'ADP'
p1825
F0.999983
s(lp1826
(g57
I18
tp1827
atp1828
a(S'los'
p1829
(dp1830
S'PRON'
p1831
F0.0
sS'DET'
p1832
F1.0
s(lp1833
tp1834
a(S'trabajadores'
p1835
(dp1836
S'ADJ'
p1837
F0.262989
sS'NOUN'
p1838
F0.737011
s(lp1839
(g65
I19
tp1840
atp1841
a(S'que'
p1842
(dp1843
g168
F0.0
sS'CONJ'
p1844
F1.0
s(lp1845
tp1846
a(S'est\xc3\xa1n'
p1847
(dp1848
S'VERB'
p1849
F1.0
s(lp1850
tp1851
a(S'cerca'
p1852
(dp1853
S'ADV'
p1854
F1.0
s(lp1855
(g345
I20
tp1856
atp1857
a(S'del'
p1858
(dp1859
S'ADP'
p1860
F1.0
s(lp1861
(g73
I21
tp1862
atp1863
a(S'final'
p1864
(dp1865
S'ADJ'
p1866
F0.035375
sS'NOUN'
p1867
F0.964625
s(lp1868
(g81
I22
tp1869
atp1870
a(S'de'
p1871
(dp1872
g168
F0.0
sS'CONJ'
p1873
F0.000313
sS'ADP'
p1874
F0.999687
s(lp1875
(g88
I23
tp1876
atp1877
a(S'sus'
p1878
(dp1879
S'PRON'
p1880
F1.0
s(lp1881
(g368
I24
tp1882
atp1883
a(S'carreras'
p1884
(dp1885
S'NOUN'
p1886
F1.0
s(lp1887
tp1888
a(S'profesionales'
p1889
(dp1890
S'NOUN'
p1891
F0.015504
sS'ADJ'
p1892
F0.984496
s(lp1893
(g95
I25
tp1894
atp1895
a(S'y'
p1896
(dp1897
g168
F0.002753
sS'CONJ'
p1898
F0.997247
s(lp1899
(g201
I26
tp1900
atp1901
a(g16
(dp1902
g18
F1.0
s(lp1903
(g386
I27
tp1904
atp1905
a(S'aun'
p1906
(dp1907
S'ADV'
p1908
F0.99997
sS'CONJ'
p1909
F3e-05
s(lp1910
(g386
I27
tp1911
atp1912
a(S'as\xc3\xad'
p1913
(dp1914
S'ADV'
p1915
F0.857409
sS'CONJ'
p1916
F0.142591
s(lp1917
tp1918
a(g16
(dp1919
g18
F1.0
s(lp1920
(g16
I31
tp1921
atp1922
a(S'el'
p1923
(dp1924
S'PRON'
p1925
F1e-05
sS'DET'
p1926
F0.99999
s(lp1927
tp1928
a(S'se\xc3\xb1or'
p1929
(dp1930
S'NOUN'
p1931
F1.0
s(lp1932
(g173
I32
tp1933
atp1934
a(S'mann'
p1935
(dp1936
S'ADV'
p1937
F0.099651
sS'NOUN'
p1938
F0.281248
sS'VERB'
p1939
F0.051245
sS'ADJ'
p1940
F0.567855
s(lp1941
(g182
I33
tp1942
atp1943
a(S'quiere'
p1944
(dp1945
S'VERB'
p1946
F1.0
s(lp1947
(g189
I34
tp1948
atp1949
a(g16
(dp1950
g18
F1.0
s(lp1951
(g16
I28
tp1952
atp1953
a(S'simple'
p1954
(dp1955
g168
F0.030787
sS'ADJ'
p1956
F0.969213
s(lp1957
tp1958
a(g1896
(dp1959
g168
F7e-06
sS'CONJ'
p1960
F0.999993
s(lp1961
(g386
I27
tp1962
atp1963
a(S'llanamente'
p1964
(dp1965
S'ADV'
p1966
F1.0
s(lp1967
(g208
I30
tp1968
atp1969
a(g16
(dp1970
g18
F1.0
s(lp1971
(g435
I35
tp1972
atp1973
a(S'desmantelar'
p1974
(dp1975
S'VERB'
p1976
F1.0
s(lp1977
(g215
I36
tp1978
atp1979
a(S'estos'
p1980
(dp1981
S'PRON'
p1982
F1.0
s(lp1983
(g448
I37
tp1984
atp1985
a(S'esquemas'
p1986
(dp1987
S'NOUN'
p1988
F1.0
s(lp1989
(g138
I7
tp1990
atp1991
a(g18
(dp1992
g18
F1.0
s(lp1993
(g18
I38
tp1994
atp1995
as.