(dp0
S'fr'
p1
(lp2
(S"l'"
p3
(dp4
S'ADJ'
p5
F0.079749
sS'VERB'
p6
F0.5393100000000001
sS'NOUN'
p7
F0.380941
s(lp8
(S'the'
p9
I0
tp10
atp11
a(S'examen'
p12
(dp13
S'NOUN'
p14
F1.0
s(lp15
(S'check'
p16
I2
tp17
atp18
a(S'de'
p19
(dp20
S'ADP'
p21
F1.0
s(lp22
tp23
a(S'sant\xc3\xa9'
p24
(dp25
S'NOUN'
p26
F1.0
s(lp27
(S'health'
p28
I1
tp29
atp30
a(S'est'
p31
(dp32
S'VERB'
p33
F0.999886
sS'NOUN'
p34
F0.000114
s(lp35
(S'is'
p36
I3
tp37
atp38
a(S'un'
p39
(dp40
S'NOUN'
p41
F4.8e-05
sS'NUM'
p42
F0.004558
sS'DET'
p43
F0.995394
s(lp44
(S'an'
p45
I4
tp46
atp47
a(S'processus'
p48
(dp49
S'NOUN'
p50
F1.0
s(lp51
(S'process'
p52
I6
tp53
atp54
a(S'important'
p55
(dp56
S'VERB'
p57
F0.280608
sS'ADJ'
p58
F0.719392
s(lp59
(S'important'
p60
I5
tp61
atp62
a(S'en'
p63
(dp64
S'PRON'
p65
F0.000834
sS'ADP'
p66
F0.999166
s(lp67
tp68
a(S'vue'
p69
(dp70
S'VERB'
p71
F0.00066
sS'NOUN'
p72
F0.99934
s(lp73
tp74
a(S'de'
p75
(dp76
S'ADP'
p77
F1.0
s(lp78
(S'for'
p79
I7
tp80
atp81
a(S'r\xc3\xa9former'
p82
(dp83
S'VERB'
p84
F1.0
s(lp85
tp86
a(S'la'
p87
(dp88
S'PRON'
p89
F0.000103
sS'DET'
p90
F0.999897
sS'NOUN'
p91
F0.0
s(lp92
(S'reforming'
p93
I8
tp94
atp95
a(S'politique'
p96
(dp97
S'ADJ'
p98
F0.071192
sS'VERB'
p99
F0.00014800000000000002
sS'NOUN'
p100
F0.92866
s(lp101
(S'policy'
p102
I10
tp103
atp104
a(S'agricole'
p105
(dp106
S'ADJ'
p107
F1.0
s(lp108
(S'agricultural'
p109
I9
tp110
atp111
a(S','
p112
(dp113
S'.'
p114
F1.0
s(lp115
(g112
I11
tp116
atp117
a(S'en'
p118
(dp119
S'PRON'
p120
F0.007375
sS'ADP'
p121
F0.992625
s(lp122
tp123
a(S'particulier'
p124
(dp125
S'NOUN'
p126
F0.394677
sS'ADJ'
p127
F0.605323
s(lp128
(S'particularly'
p129
I12
tp130
atp131
a(S'la'
p132
(dp133
S'PRON'
p134
F0.000685
sS'DET'
p135
F0.999304
sS'NOUN'
p136
F1.2e-05
s(lp137
tp138
a(S'politique'
p139
(dp140
S'ADJ'
p141
F0.071166
sS'VERB'
p142
F0.0006900000000000001
sS'NOUN'
p143
F0.928144
s(lp144
(S'policy'
p145
I14
tp146
atp147
a(S'agricole'
p148
(dp149
S'ADJ'
p150
F1.0
s(lp151
(S'agricultural'
p152
I13
tp153
atp154
a(S'dans'
p155
(dp156
S'NOUN'
p157
F8.7e-05
sS'ADP'
p158
F0.999913
s(lp159
(S'in'
p160
I15
tp161
atp162
a(S'les'
p163
(dp164
S'PRON'
p165
F5.6e-05
sS'DET'
p166
F0.999943
sS'ADP'
p167
F2e-06
s(lp168
tp169
a(S'r\xc3\xa9gions'
p170
(dp171
S'NOUN'
p172
F1.0
s(lp173
(S'regions'
p174
I17
tp175
atp176
a(S'montagneuses'
p177
(dp178
S'ADJ'
p179
F1.0
s(lp180
(S'mountainous'
p181
I16
tp182
atp183
a(g114
(dp184
g114
F1.0
s(lp185
(g114
I18
tp186
atp187
asS'en'
p188
(lp189
(g9
(dp190
S'NOUN'
p191
F5e-06
sS'DET'
p192
F0.999995
s(lp193
(g9
I0
tp194
atp195
a(g28
(dp196
S'NOUN'
p197
F1.0
s(lp198
(g28
I1
tp199
atp200
a(g16
(dp201
S'VERB'
p202
F0.004208
sS'NOUN'
p203
F0.995792
s(lp204
(g16
I2
tp205
atp206
a(g36
(dp207
S'VERB'
p208
F1.0
s(lp209
(g36
I3
tp210
atp211
a(g45
(dp212
S'DET'
p213
F1.0
s(lp214
(g45
I4
tp215
atp216
a(g60
(dp217
S'ADJ'
p218
F1.0
s(lp219
(g60
I5
tp220
atp221
a(g52
(dp222
S'VERB'
p223
F0.000143
sS'NOUN'
p224
F0.999857
s(lp225
(g52
I6
tp226
atp227
a(g79
(dp228
S'ADP'
p229
F1.0
s(lp230
(g79
I7
tp231
atp232
a(g93
(dp233
S'VERB'
p234
F1.0
s(lp235
(g93
I8
tp236
atp237
a(g109
(dp238
S'ADJ'
p239
F1.0
s(lp240
(g109
I9
tp241
atp242
a(g102
(dp243
S'NOUN'
p244
F1.0
s(lp245
(g102
I10
tp246
atp247
a(g112
(dp248
g114
F1.0
s(lp249
(g112
I11
tp250
atp251
a(g129
(dp252
S'ADV'
p253
F1.0
s(lp254
(g129
I12
tp255
atp256
a(g152
(dp257
S'ADJ'
p258
F1.0
s(lp259
(g152
I13
tp260
atp261
a(g145
(dp262
S'NOUN'
p263
F1.0
s(lp264
(g145
I14
tp265
atp266
a(g160
(dp267
S'ADV'
p268
F0.000643
sS'PRT'
p269
F0.000258
sS'ADP'
p270
F0.999099
s(lp271
(g160
I15
tp272
atp273
a(g181
(dp274
S'ADJ'
p275
F1.0
s(lp276
(g181
I16
tp277
atp278
a(g174
(dp279
S'NOUN'
p280
F1.0
s(lp281
(g174
I17
tp282
atp283
a(g114
(dp284
g114
F1.0
s(lp285
(g114
I18
tp286
atp287
asS'nl'
p288
(lp289
(S'de'
p290
(dp291
S'DET'
p292
F1.0
s(lp293
(g9
I0
tp294
atp295
a(S'gezondheidscontrole'
p296
(dp297
S'ADJ'
p298
F0.007481
sS'NOUN'
p299
F0.992519
s(lp300
(g16
I2
tp301
atp302
a(S'is'
p303
(dp304
S'VERB'
p305
F1.0
s(lp306
(g36
I3
tp307
atp308
a(S'een'
p309
(dp310
S'ADJ'
p311
F2e-06
sS'PRON'
p312
F3.6e-05
sS'NUM'
p313
F1e-06
sS'DET'
p314
F0.999962
s(lp315
(g45
I4
tp316
atp317
a(S'belangrijk'
p318
(dp319
S'ADJ'
p320
F1.0
s(lp321
(g60
I5
tp322
atp323
a(S'instrument'
p324
(dp325
S'NOUN'
p326
F1.0
s(lp327
(g52
I6
tp328
atp329
a(S'bij'
p330
(dp331
S'ADV'
p332
F0.004135
sS'NOUN'
p333
F0.0
sS'ADJ'
p334
F0.0
sS'ADP'
p335
F0.995865
s(lp336
(g79
I7
tp337
atp338
a(S'de'
p339
(dp340
S'DET'
p341
F1.0
s(lp342
(g93
I8
tp343
atp344
a(S'hervorming'
p345
(dp346
S'NOUN'
p347
F1.0
s(lp348
tp349
a(S'van'
p350
(dp351
S'ADP'
p352
F1.0
s(lp353
(g93
I8
tp354
atp355
a(S'het'
p356
(dp357
S'PRON'
p358
F0.000927
sS'DET'
p359
F0.999073
s(lp360
(g102
I10
tp361
atp362
a(S'landbouwbeleid'
p363
(dp364
S'NOUN'
p365
F1.0
s(lp366
(g109
I9
tp367
atp368
a(g112
(dp369
g114
F1.0
s(lp370
(g112
I11
tp371
atp372
a(S'inzonderheid'
p373
(dp374
S'ADV'
p375
F1.0
s(lp376
(g129
I12
tp377
atp378
a(S'landbouwbeleid'
p379
(dp380
S'NOUN'
p381
F1.0
s(lp382
(g152
I13
tp383
atp384
a(S'in'
p385
(dp386
S'ADV'
p387
F0.040485
sS'VERB'
p388
F7e-06
sS'ADP'
p389
F0.959509
s(lp390
(g160
I15
tp391
atp392
a(S'bergachtige'
p393
(dp394
S'NOUN'
p395
F0.000264
sS'ADJ'
p396
F0.999736
s(lp397
tp398
a(S'streken'
p399
(dp400
S'VERB'
p401
F0.000289
sS'NOUN'
p402
F0.999711
s(lp403
(g181
I16
tp404
atp405
a(g114
(dp406
g114
F1.0
s(lp407
(g114
I18
tp408
atp409
asS'de'
p410
(lp411
(S'schriftlich'
p412
(dp413
S'ADJ'
p414
F1.0
s(lp415
(g9
I0
tp416
atp417
a(g114
(dp418
g114
F1.0
s(lp419
tp420
a(S'-'
p421
(dp422
g114
F1.0
s(lp423
tp424
a(S'der'
p425
(dp426
S'PRON'
p427
F0.003488
sS'DET'
p428
F0.995983
s(lp429
(g28
I1
tp430
atp431
a(S'gesundheitscheck'
p432
(dp433
S'ADJ'
p434
F0.000294
sS'NOUN'
p435
F0.999467
s(lp436
(g16
I2
tp437
atp438
a(S'ist'
p439
(dp440
S'VERB'
p441
F1.0
s(lp442
(g36
I3
tp443
atp444
a(S'ein'
p445
(dp446
S'NUM'
p447
F0.000175
sS'DET'
p448
F0.999825
s(lp449
(g45
I4
tp450
atp451
a(S'wichtiger'
p452
(dp453
S'ADJ'
p454
F1.0
s(lp455
(g60
I5
tp456
atp457
a(S'prozess'
p458
(dp459
S'ADJ'
p460
F0.004184
sS'NOUN'
p461
F0.993088
s(lp462
(g52
I6
tp463
atp464
a(S'bei'
p465
(dp466
S'PRT'
p467
F0.000185
sS'ADP'
p468
F0.999815
s(lp469
(g79
I7
tp470
atp471
a(S'der'
p472
(dp473
S'PRON'
p474
F4.4e-05
sS'DET'
p475
F0.999945
s(lp476
tp477
a(S'reformierung'
p478
(dp479
S'ADJ'
p480
F0.012452
sS'NOUN'
p481
F0.976368
s(lp482
(g93
I8
tp483
atp484
a(S'der'
p485
(dp486
S'PRON'
p487
F7.4e-05
sS'DET'
p488
F0.999854
s(lp489
(g102
I10
tp490
atp491
a(S'agrarpolitik'
p492
(dp493
S'ADJ'
p494
F0.177267
sS'NOUN'
p495
F0.805642
s(lp496
(g109
I9
tp497
atp498
a(g112
(dp499
g114
F1.0
s(lp500
(g112
I11
tp501
atp502
a(S'besonders'
p503
(dp504
S'ADV'
p505
F1.0
s(lp506
(g129
I12
tp507
atp508
a(S'der'
p509
(dp510
S'PRON'
p511
F0.000123
sS'DET'
p512
F0.999875
s(lp513
(g145
I14
tp514
atp515
a(S'agrarpolitik'
p516
(dp517
S'ADJ'
p518
F0.022255
sS'NOUN'
p519
F0.967104
s(lp520
(g152
I13
tp521
atp522
a(S'in'
p523
(dp524
S'ADP'
p525
F1.0
s(lp526
(g160
I15
tp527
atp528
a(S'den'
p529
(dp530
S'PRON'
p531
F2.8e-05
sS'DET'
p532
F0.999971
s(lp533
(g174
I17
tp534
atp535
a(S'bergregionen'
p536
(dp537
S'ADJ'
p538
F0.000211
sS'NOUN'
p539
F0.999729
s(lp540
(g181
I16
tp541
atp542
a(g114
(dp543
g114
F1.0
s(lp544
(g114
I18
tp545
atp546
asS'it'
p547
(lp548
(S'la'
p549
(dp550
S'PRON'
p551
F0.000408
sS'DET'
p552
F0.999592
s(lp553
tp554
a(S'valutazione'
p555
(dp556
S'NOUN'
p557
F1.0
s(lp558
(g16
I2
tp559
atp560
a(S'dello'
p561
(dp562
S'DEF'
p563
F8.1e-05
sS'ADP'
p564
F0.999919
s(lp565
tp566
a(S'stato'
p567
(dp568
S'VERB'
p569
F0.425288
sS'NOUN'
p570
F0.574712
s(lp571
(g16
I2
tp572
atp573
a(S'di'
p574
(dp575
S'CONJ'
p576
F3e-06
sS'ADP'
p577
F0.999997
s(lp578
tp579
a(S'salute'
p580
(dp581
S'X'
p582
F3e-06
sS'NOUN'
p583
F0.999997
s(lp584
(g28
I1
tp585
atp586
a(S'\xc3\xa8'
p587
(dp588
S'VERB'
p589
F1.0
s(lp590
(g36
I3
tp591
atp592
a(S'un'
p593
(dp594
S'PRON'
p595
F0.001162
sS'DEF'
p596
F0.998838
s(lp597
(g45
I4
tp598
atp599
a(S'processo'
p600
(dp601
S'VERB'
p602
F4e-06
sS'NOUN'
p603
F0.999996
s(lp604
(g52
I6
tp605
atp606
a(S'importante'
p607
(dp608
S'NOUN'
p609
F0.005367
sS'VERB'
p610
F0.08993
sS'ADJ'
p611
F0.904702
s(lp612
(g60
I5
tp613
atp614
a(S'per'
p615
(dp616
S'CONJ'
p617
F0.056625
sS'ADP'
p618
F0.943375
s(lp619
(g79
I7
tp620
atp621
a(S'la'
p622
(dp623
S'PRON'
p624
F0.001509
sS'DET'
p625
F0.998491
s(lp626
(g93
I8
tp627
atp628
a(S'riforma'
p629
(dp630
S'VERB'
p631
F0.001765
sS'NOUN'
p632
F0.998235
s(lp633
tp634
a(S'della'
p635
(dp636
S'DEF'
p637
F0.001719
sS'ADP'
p638
F0.998281
s(lp639
(g93
I8
tp640
atp641
a(S'politica'
p642
(dp643
S'ADJ'
p644
F0.027208
sS'NOUN'
p645
F0.972792
s(lp646
(g102
I10
tp647
atp648
a(S'agricola'
p649
(dp650
S'ADJ'
p651
F1.0
s(lp652
(g109
I9
tp653
atp654
a(g112
(dp655
g114
F1.0
s(lp656
(g112
I11
tp657
atp658
a(S'in'
p659
(dp660
S'ADP'
p661
F1.0
s(lp662
(g129
I12
tp663
atp664
a(S'modo'
p665
(dp666
S'NOUN'
p667
F1.0
s(lp668
tp669
a(S'particolare'
p670
(dp671
S'NOUN'
p672
F0.01541
sS'ADJ'
p673
F0.98459
s(lp674
(g129
I12
tp675
atp676
a(S'nelle'
p677
(dp678
S'ADP'
p679
F1.0
s(lp680
(g160
I15
tp681
atp682
a(S'regioni'
p683
(dp684
S'NOUN'
p685
F1.0
s(lp686
(g174
I17
tp687
atp688
a(S'montane'
p689
(dp690
S'VERB'
p691
F0.0
sS'ADJ'
p692
F1.0
s(lp693
(g181
I16
tp694
atp695
a(g114
(dp696
g114
F1.0
s(lp697
(g114
I18
tp698
atp699
asS'sk'
p700
(lp701
(S'hodnotenie'
p702
(dp703
S'NOUN'
p704
F1.0
s(lp705
tp706
a(S'stavu'
p707
(dp708
S'NOUN'
p709
F1.0
s(lp710
(g16
I2
tp711
atp712
a(S'je'
p713
(dp714
S'PRON'
p715
F3.7e-05
sS'VERB'
p716
F0.999921
sg582
F4.2e-05
s(lp717
(g36
I3
tp718
atp719
a(S'd\xc3\xb4le\xc5\xbeit\xc3\xbdm'
p720
(dp721
S'ADJ'
p722
F1.0
s(lp723
(g60
I5
tp724
atp725
a(S'procesom'
p726
(dp727
S'NOUN'
p728
F1.0
s(lp729
(g52
I6
tp730
atp731
a(S'pre'
p732
(dp733
g582
F0.000182
sS'ADP'
p734
F0.999818
s(lp735
(g79
I7
tp736
atp737
a(S'reformovanie'
p738
(dp739
S'NOUN'
p740
F1.0
s(lp741
(g93
I8
tp742
atp743
a(S'po\xc4\xbenohospod\xc3\xa1rskej'
p744
(dp745
S'ADJ'
p746
F1.0
s(lp747
(g109
I9
tp748
atp749
a(S'politiky'
p750
(dp751
S'NOUN'
p752
F1.0
s(lp753
(g102
I10
tp754
atp755
a(g112
(dp756
g114
F1.0
s(lp757
(g112
I11
tp758
atp759
a(S'najm\xc3\xa4'
p760
(dp761
g582
F1.0
s(lp762
(g129
I12
tp763
atp764
a(S'po\xc4\xbenohospod\xc3\xa1rskej'
p765
(dp766
S'ADJ'
p767
F1.0
s(lp768
(g152
I13
tp769
atp770
a(S'politiky'
p771
(dp772
S'NOUN'
p773
F1.0
s(lp774
(g145
I14
tp775
atp776
a(S'v'
p777
(dp778
g582
F0.000187
sS'ADP'
p779
F0.999814
s(lp780
(g160
I15
tp781
atp782
a(S'horsk\xc3\xbdch'
p783
(dp784
S'ADJ'
p785
F1.0
s(lp786
(g181
I16
tp787
atp788
a(S'regi\xc3\xb3noch'
p789
(dp790
S'NOUN'
p791
F1.0
s(lp792
(g174
I17
tp793
atp794
a(g114
(dp795
g114
F1.0
s(lp796
(g114
I18
tp797
atp798
asS'pl'
p799
(lp800
(S'ocena'
p801
(dp802
S'NOUN'
p803
F1.0
s(lp804
tp805
a(S'funkcjonowania'
p806
(dp807
S'VERB'
p808
F0.709575
sS'NOUN'
p809
F0.290425
s(lp810
(g16
I2
tp811
atp812
a(S'jest'
p813
(dp814
S'VERB'
p815
F1.0
s(lp816
(g36
I3
tp817
atp818
a(S'wa\xc5\xbcnym'
p819
(dp820
S'ADJ'
p821
F0.999999
s(lp822
(g60
I5
tp823
atp824
a(S'procesem'
p825
(dp826
S'NOUN'
p827
F1.0
s(lp828
(g52
I6
tp829
atp830
a(S'z'
p831
(dp832
S'PRT'
p833
F9e-06
sS'VERB'
p834
F5e-06
sS'NOUN'
p835
F1e-05
sS'ADP'
p836
F0.9999739999999999
sg582
F1e-06
s(lp837
(g79
I7
tp838
atp839
a(S'punktu'
p840
(dp841
S'NOUN'
p842
F1.0
s(lp843
tp844
a(S'widzenia'
p845
(dp846
S'VERB'
p847
F0.136466
sS'NOUN'
p848
F0.863534
s(lp849
(g79
I7
tp850
atp851
a(S'reformowania'
p852
(dp853
S'ADV'
p854
F2.2e-05
sS'ADJ'
p855
F0.028389000000000005
sS'VERB'
p856
F0.8139279999999999
sS'NOUN'
p857
F0.157657
s(lp858
(g93
I8
tp859
atp860
a(S'polityki'
p861
(dp862
S'NOUN'
p863
F1.0
s(lp864
(g102
I10
tp865
atp866
a(S'rolnej'
p867
(dp868
S'ADJ'
p869
F1.0
s(lp870
(g109
I9
tp871
atp872
a(g112
(dp873
g582
F0.0
sg114
F1.0
s(lp874
(g112
I11
tp875
atp876
a(S'w'
p877
(dp878
S'ADJ'
p879
F0.0
sg582
F1e-06
sS'NOUN'
p880
F0.0
sS'ADP'
p881
F1.0
s(lp882
tp883
a(S'szczeg\xc3\xb3lno\xc5\x9bci'
p884
(dp885
S'NOUN'
p886
F1.0
s(lp887
(g129
I12
tp888
atp889
a(g877
(dp890
S'ADJ'
p891
F0.0
sg582
F0.0
sS'NOUN'
p892
F0.0
sS'ADP'
p893
F0.9999999999999999
s(lp894
(g160
I15
tp895
atp896
a(S'rejonach'
p897
(dp898
S'NOUN'
p899
F1.0
s(lp900
(g174
I17
tp901
atp902
a(S'g\xc3\xb3rskich'
p903
(dp904
S'ADJ'
p905
F0.9999999999999999
s(lp906
(g181
I16
tp907
atp908
a(g114
(dp909
g114
F1.0
s(lp910
(g114
I18
tp911
atp912
asS'sl'
p913
(lp914
(g777
(dp915
S'ADP'
p916
F1.0
s(lp917
(g9
I0
tp918
atp919
a(S'pisni'
p920
(dp921
S'ADJ'
p922
F1.0
s(lp923
(g9
I0
tp924
atp925
a(S'obliki'
p926
(dp927
S'NOUN'
p928
F1.0
s(lp929
(g9
I0
tp930
atp931
a(g114
(dp932
g114
F1.0
s(lp933
tp934
a(g421
(dp935
g114
F1.0
s(lp936
(g9
I0
tp937
atp938
a(S'('
p939
(dp940
g114
F1.0
s(lp941
(g9
I0
tp942
atp943
a(S'de'
p944
(dp945
g582
F0.999975
sS'VERB'
p946
F2.5e-05
s(lp947
tp948
a(S')'
p949
(dp950
g114
F1.0
s(lp951
(g9
I0
tp952
atp953
a(S'sistematski'
p954
(dp955
S'ADV'
p956
F4.1e-05
sS'NOUN'
p957
F0.006289
sS'VERB'
p958
F0.002499
sS'ADJ'
p959
F0.9911720000000002
s(lp960
tp961
a(S'pregled'
p962
(dp963
S'NOUN'
p964
F1.0
s(lp965
(g16
I2
tp966
atp967
a(S'je'
p968
(dp969
S'PRON'
p970
F0.000141
sS'VERB'
p971
F0.9998400000000001
sg582
F1.9e-05
s(lp972
(g36
I3
tp973
atp974
a(S'pomemben'
p975
(dp976
S'ADJ'
p977
F1.0
s(lp978
(g60
I5
tp979
atp980
a(S'proces'
p981
(dp982
S'NOUN'
p983
F1.0
s(lp984
(g52
I6
tp985
atp986
a(S'za'
p987
(dp988
S'ADV'
p989
F1e-05
sg582
F1e-05
sS'ADP'
p990
F0.999981
s(lp991
(g79
I7
tp992
atp993
a(S'reformo'
p994
(dp995
S'NOUN'
p996
F1.0
s(lp997
(g93
I8
tp998
atp999
a(S'kmetijske'
p1000
(dp1001
S'ADJ'
p1002
F1.0
s(lp1003
(g109
I9
tp1004
atp1005
a(S'politike'
p1006
(dp1007
S'NOUN'
p1008
F1.000001
s(lp1009
(g102
I10
tp1010
atp1011
a(g112
(dp1012
g114
F1.0
s(lp1013
(g112
I11
tp1014
atp1015
a(S'zlasti'
p1016
(dp1017
S'ADV'
p1018
F0.014128
sS'PRT'
p1019
F0.985872
s(lp1020
(g129
I12
tp1021
atp1022
a(g777
(dp1023
S'ADP'
p1024
F1.0
s(lp1025
(g160
I15
tp1026
atp1027
a(S'gorskih'
p1028
(dp1029
S'ADJ'
p1030
F0.999999
s(lp1031
(g181
I16
tp1032
atp1033
a(S'regijah'
p1034
(dp1035
S'NOUN'
p1036
F1.0
s(lp1037
(g174
I17
tp1038
atp1039
a(g114
(dp1040
g114
F1.0
s(lp1041
(g114
I18
tp1042
atp1043
asS'es'
p1044
(lp1045
(S'el'
p1046
(dp1047
S'PRON'
p1048
F0.580156
sS'DET'
p1049
F0.419844
s(lp1050
(g9
I0
tp1051
atp1052
a(S'chequeo'
p1053
(dp1054
S'VERB'
p1055
F1.0
s(lp1056
(g16
I2
tp1057
atp1058
a(S'm\xc3\xa9dico'
p1059
(dp1060
S'NOUN'
p1061
F0.083087
sS'ADJ'
p1062
F0.916913
s(lp1063
tp1064
a(S'es'
p1065
(dp1066
S'VERB'
p1067
F1.0
s(lp1068
(g36
I3
tp1069
atp1070
a(S'un'
p1071
(dp1072
g582
F4e-06
sS'DET'
p1073
F0.999996
s(lp1074
(g45
I4
tp1075
atp1076
a(S'proceso'
p1077
(dp1078
S'NOUN'
p1079
F1.0
s(lp1080
(g52
I6
tp1081
atp1082
a(S'importante'
p1083
(dp1084
S'VERB'
p1085
F0.068997
sS'ADJ'
p1086
F0.931003
s(lp1087
(g60
I5
tp1088
atp1089
a(S'para'
p1090
(dp1091
S'CONJ'
p1092
F0.983807
sS'ADP'
p1093
F0.016193
s(lp1094
(g79
I7
tp1095
atp1096
a(S'reformar'
p1097
(dp1098
S'VERB'
p1099
F1.0
s(lp1100
(g93
I8
tp1101
atp1102
a(S'la'
p1103
(dp1104
S'PRON'
p1105
F4e-06
sS'DET'
p1106
F0.999994
sg582
F1e-06
sS'NOUN'
p1107
F1e-06
s(lp1108
(g28
I1
tp1109
atp1110
a(S'pol\xc3\xadtica'
p1111
(dp1112
S'ADJ'
p1113
F0.016621
sS'NOUN'
p1114
F0.983379
s(lp1115
(g102
I10
tp1116
atp1117
a(S'agr\xc3\xadcola'
p1118
(dp1119
S'ADJ'
p1120
F1.0
s(lp1121
(g109
I9
tp1122
atp1123
a(g112
(dp1124
g114
F1.0
s(lp1125
(g112
I11
tp1126
atp1127
a(S'particularmente'
p1128
(dp1129
S'ADV'
p1130
F1.0
s(lp1131
(g129
I12
tp1132
atp1133
a(S'la'
p1134
(dp1135
S'PRON'
p1136
F0.000344
sS'DET'
p1137
F0.999655
sg582
F0.0
sS'NOUN'
p1138
F1e-06
s(lp1139
tp1140
a(S'pol\xc3\xadtica'
p1141
(dp1142
S'ADJ'
p1143
F0.016617
sS'NOUN'
p1144
F0.983383
s(lp1145
(g145
I14
tp1146
atp1147
a(S'agr\xc3\xadcola'
p1148
(dp1149
S'ADJ'
p1150
F1.0
s(lp1151
(g152
I13
tp1152
atp1153
a(S'de'
p1154
(dp1155
g582
F0.0
sS'CONJ'
p1156
F5.7e-05
sS'ADP'
p1157
F0.999943
s(lp1158
(g160
I15
tp1159
atp1160
a(S'las'
p1161
(dp1162
S'PRON'
p1163
F0.0
sS'DET'
p1164
F1.0
s(lp1165
tp1166
a(S'regiones'
p1167
(dp1168
S'NOUN'
p1169
F1.0
s(lp1170
(g174
I17
tp1171
atp1172
a(S'monta\xc3\xb1osas'
p1173
(dp1174
S'ADJ'
p1175
F1.0
s(lp1176
(g181
I16
tp1177
atp1178
a(g114
(dp1179
g114
F1.0
s(lp1180
(g114
I18
tp1181
atp1182
as.