(dp0
S'fr'
p1
(lp2
(S'cependant'
p3
(dp4
S'ADV'
p5
F1.0
s(lp6
(S'however'
p7
I0
tp8
atp9
a(S','
p10
(dp11
S'.'
p12
F1.0
s(lp13
(g10
I1
tp14
atp15
a(S'si'
p16
(dp17
S'ADV'
p18
F0.367027
sS'CONJ'
p19
F0.632275
sS'NOUN'
p20
F0.000698
s(lp21
tp22
a(S"d'"
p23
(dp24
S'NOUN'
p25
F0.045521
sS'VERB'
p26
F0.8418900000000001
sS'ADJ'
p27
F0.11259
s(lp28
tp29
a(S'un'
p30
(dp31
S'NOUN'
p32
F6e-05
sS'NUM'
p33
F0.025531
sS'DET'
p34
F0.974409
s(lp35
tp36
a(S'c\xc3\xb4t\xc3\xa9'
p37
(dp38
S'NOUN'
p39
F1.0
s(lp40
(S'although'
p41
I2
tp42
atp43
a(g10
(dp44
g12
F1.0
s(lp45
tp46
a(S'il'
p47
(dp48
S'PRON'
p49
F1.0
s(lp50
tp51
a(S'y'
p52
(dp53
S'PRON'
p54
F1.0
s(lp55
(S'we'
p56
I3
tp57
atp58
a(S'a'
p59
(dp60
S'VERB'
p61
F1.0
s(lp62
tp63
a(S'lieu'
p64
(dp65
S'NOUN'
p66
F1.0
s(lp67
(S'should'
p68
I4
tp69
atp70
a(S'de'
p71
(dp72
S'ADP'
p73
F1.0
s(lp74
tp75
a(S'saluer'
p76
(dp77
S'VERB'
p78
F1.0
s(lp79
(S'welcome'
p80
I5
tp81
atp82
a(S'le'
p83
(dp84
S'PRON'
p85
F0.006831
sS'DET'
p86
F0.993169
s(lp87
(S'the'
p88
I6
tp89
atp90
a(S'fait'
p91
(dp92
S'ADJ'
p93
F0.024369
sS'VERB'
p94
F0.008159
sS'NOUN'
p95
F0.967472
s(lp96
(S'fact'
p97
I7
tp98
atp99
a(S'que'
p100
(dp101
S'ADV'
p102
F0.006969
sS'PRON'
p103
F0.192861
sS'CONJ'
p104
F0.80017
s(lp105
(S'that'
p106
I8
tp107
atp108
a(S'le'
p109
(dp110
S'PRON'
p111
F0.002944
sS'DET'
p112
F0.997056
s(lp113
(S'we'
p114
I9
tp115
atp116
a(S'droit'
p117
(dp118
S'ADV'
p119
F0.004465
sS'ADJ'
p120
F0.005574
sS'NOUN'
p121
F0.989961
s(lp122
(S'law'
p123
I20
tp124
atp125
a(S'international'
p126
(dp127
S'ADJ'
p128
F1.0
s(lp129
(S'international'
p130
I19
tp131
atp132
a(S'permet'
p133
(dp134
S'VERB'
p135
F1.0
s(lp136
(S'can'
p137
I10
tp138
atp139
a(S'd\xc3\xa9sormais'
p140
(dp141
S'ADV'
p142
F1.0
s(lp143
(S'now'
p144
I11
tp145
atp146
a(S'de'
p147
(dp148
S'ADP'
p149
F1.0
s(lp150
tp151
a(S'briser'
p152
(dp153
S'VERB'
p154
F1.0
s(lp155
(S'break'
p156
I12
tp157
atp158
a(S'le'
p159
(dp160
S'PRON'
p161
F3.4e-05
sS'DET'
p162
F0.999966
s(lp163
(S'the'
p164
I14
tp165
atp166
a(S'mur'
p167
(dp168
S'NOUN'
p169
F1.0
s(lp170
(S'wall'
p171
I15
tp172
atp173
a(S'de'
p174
(dp175
S'ADP'
p176
F1.0
s(lp177
(S'of'
p178
I16
tp179
atp180
a(S"l'"
p181
(dp182
S'ADJ'
p183
F0.160704
sS'VERB'
p184
F0.06480800000000002
sS'NOUN'
p185
F0.774488
s(lp186
(S'indifference'
p187
I17
tp188
atp189
a(S'indiff\xc3\xa9rence'
p190
(dp191
S'NOUN'
p192
F1.0
s(lp193
tp194
a(g10
(dp195
g12
F1.0
s(lp196
(g10
I21
tp197
atp198
a(S'il'
p199
(dp200
S'PRON'
p201
F1.0
s(lp202
(S'we'
p203
I22
tp204
atp205
a(S'importe'
p206
(dp207
S'VERB'
p208
F1.0
s(lp209
(S'must'
p210
I23
tp211
atp212
a(S'de'
p213
(dp214
S'ADP'
p215
F1.0
s(lp216
tp217
a(S"l'"
p218
(dp219
S'ADJ'
p220
F0.160704
sS'VERB'
p221
F0.06480800000000002
sS'NOUN'
p222
F0.774488
s(lp223
(g187
I17
tp224
atp225
a(S'autre'
p226
(dp227
S'ADJ'
p228
F1.0
s(lp229
(S'also'
p230
I24
tp231
atp232
a(S'que'
p233
(dp234
S'ADV'
p235
F0.003774
sS'PRON'
p236
F0.027054
sS'CONJ'
p237
F0.969171
s(lp238
(S'that'
p239
I26
tp240
atp241
a(S'toutes'
p242
(dp243
S'PRON'
p244
F1.0
s(lp245
(S'all'
p246
I27
tp247
atp248
a(S'les'
p249
(dp250
S'PRON'
p251
F5.7e-05
sS'DET'
p252
F0.999941
sS'ADP'
p253
F2e-06
s(lp254
tp255
a(S'pr\xc3\xa9cautions'
p256
(dp257
S'NOUN'
p258
F1.0
s(lp259
(S'precautions'
p260
I29
tp261
atp262
a(S'soient'
p263
(dp264
S'VERB'
p265
F1.0
s(lp266
(S'are'
p267
I30
tp268
atp269
a(S'prises'
p270
(dp271
S'NOUN'
p272
F0.000499
sS'VERB'
p273
F0.9975310000000001
sS'ADJ'
p274
F0.00197
s(lp275
(S'taken'
p276
I31
tp277
atp278
a(S'en'
p279
(dp280
S'PRON'
p281
F0.001587
sS'ADP'
p282
F0.998413
s(lp283
tp284
a(S'vue'
p285
(dp286
S'VERB'
p287
F0.001222
sS'NOUN'
p288
F0.998778
s(lp289
tp290
a(S'de'
p291
(dp292
S'ADP'
p293
F1.0
s(lp294
(S'to'
p295
I32
tp296
atp297
a(S'garantir'
p298
(dp299
S'VERB'
p300
F1.0
s(lp301
(S'guarantee'
p302
I33
tp303
atp304
a(S'que'
p305
(dp306
S'ADV'
p307
F0.023478
sS'PRON'
p308
F0.02909
sS'CONJ'
p309
F0.947431
s(lp310
(S'that'
p311
I34
tp312
atp313
a(S'le'
p314
(dp315
S'PRON'
p316
F0.057852
sS'DET'
p317
F0.942148
s(lp318
tp319
a(S'recours'
p320
(dp321
S'VERB'
p322
F0.057784
sS'NOUN'
p323
F0.942216
s(lp324
tp325
a(S'\xc3\xa0'
p326
(dp327
S'ADP'
p328
F1.0
s(lp329
(S'under'
p330
I18
tp331
atp332
a(S'la'
p333
(dp334
S'PRON'
p335
F9e-05
sS'DET'
p336
F0.999909
sS'NOUN'
p337
F0.0
s(lp338
(g59
I38
tp339
atp340
a(S'force'
p341
(dp342
S'VERB'
p343
F0.000109
sS'NOUN'
p344
F0.999891
s(lp345
(S'force'
p346
I36
tp347
atp348
a(S'militaire'
p349
(dp350
S'NOUN'
p351
F0.001268
sS'ADJ'
p352
F0.998732
s(lp353
(S'military'
p354
I35
tp355
atp356
a(S'reste'
p357
(dp358
S'VERB'
p359
F0.907256
sS'NOUN'
p360
F0.092744
s(lp361
(S'remains'
p362
I37
tp363
atp364
a(S'le'
p365
(dp366
S'PRON'
p367
F0.01334
sS'DET'
p368
F0.98666
s(lp369
(S'last'
p370
I39
tp371
atp372
a(S'recours'
p373
(dp374
S'VERB'
p375
F0.013604
sS'NOUN'
p376
F0.986396
s(lp377
tp378
a(S'ultime'
p379
(dp380
S'ADJ'
p381
F1.0
s(lp382
(S'resort'
p383
I40
tp384
atp385
a(g12
(dp386
g12
F1.0
s(lp387
(g12
I41
tp388
atp389
asS'en'
p390
(lp391
(g7
(dp392
S'ADV'
p393
F1.0
s(lp394
(g7
I0
tp395
atp396
a(g10
(dp397
g12
F1.0
s(lp398
(g10
I1
tp399
atp400
a(g41
(dp401
S'ADP'
p402
F1.0
s(lp403
(g41
I2
tp404
atp405
a(g56
(dp406
S'PRON'
p407
F1.0
s(lp408
(g56
I3
tp409
atp410
a(g68
(dp411
S'VERB'
p412
F1.0
s(lp413
(g68
I4
tp414
atp415
a(g80
(dp416
S'NOUN'
p417
F1e-06
sS'VERB'
p418
F0.999995
sS'ADJ'
p419
F4e-06
s(lp420
(g80
I5
tp421
atp422
a(g88
(dp423
S'NOUN'
p424
F1e-06
sS'DET'
p425
F0.999999
s(lp426
(g88
I6
tp427
atp428
a(g97
(dp429
S'NOUN'
p430
F1.0
s(lp431
(g97
I7
tp432
atp433
a(g106
(dp434
S'ADV'
p435
F0.000224
sS'DET'
p436
F0.162274
sS'ADP'
p437
F0.837502
s(lp438
(g106
I8
tp439
atp440
a(g114
(dp441
S'PRON'
p442
F1.0
s(lp443
(g114
I9
tp444
atp445
a(g137
(dp446
S'VERB'
p447
F1.0
sS'NOUN'
p448
F0.0
s(lp449
(g137
I10
tp450
atp451
a(g144
(dp452
S'ADV'
p453
F0.999999
sS'NOUN'
p454
F0.0
sS'ADP'
p455
F1e-06
s(lp456
(g144
I11
tp457
atp458
a(g156
(dp459
S'VERB'
p460
F0.779002
sS'NOUN'
p461
F0.220998
s(lp462
(g156
I12
tp463
atp464
a(S'through'
p465
(dp466
S'ADV'
p467
F0.011929
sS'PRT'
p468
F0.065116
sS'ADJ'
p469
F8e-06
sS'ADP'
p470
F0.922947
s(lp471
(g465
I13
tp472
atp473
a(g164
(dp474
S'NOUN'
p475
F1e-06
sS'DET'
p476
F0.999999
s(lp477
(g164
I14
tp478
atp479
a(g171
(dp480
S'VERB'
p481
F0.000153
sS'NOUN'
p482
F0.999847
s(lp483
(g171
I15
tp484
atp485
a(g178
(dp486
S'ADP'
p487
F1.0
s(lp488
(g178
I16
tp489
atp490
a(g187
(dp491
S'NOUN'
p492
F1.0
s(lp493
(g187
I17
tp494
atp495
a(g330
(dp496
S'ADV'
p497
F0.0004
sS'ADP'
p498
F0.9996
s(lp499
(g330
I18
tp500
atp501
a(g130
(dp502
S'NOUN'
p503
F0.000286
sS'ADJ'
p504
F0.999714
s(lp505
(g130
I19
tp506
atp507
a(g123
(dp508
S'NOUN'
p509
F1.0
s(lp510
(g123
I20
tp511
atp512
a(g10
(dp513
g12
F1.0
s(lp514
(g10
I21
tp515
atp516
a(g203
(dp517
S'PRON'
p518
F1.0
s(lp519
(g203
I22
tp520
atp521
a(g210
(dp522
S'VERB'
p523
F1.0
sS'NOUN'
p524
F0.0
s(lp525
(g210
I23
tp526
atp527
a(g230
(dp528
S'ADV'
p529
F1.0
s(lp530
(g230
I24
tp531
atp532
a(S'ensure'
p533
(dp534
S'VERB'
p535
F1.0
s(lp536
(g533
I25
tp537
atp538
a(g239
(dp539
S'ADV'
p540
F0.000577
sS'DET'
p541
F0.015646
sS'ADP'
p542
F0.983777
s(lp543
(g239
I26
tp544
atp545
a(g246
(dp546
S'ADV'
p547
F0.004724
sS'DET'
p548
F0.995275
s(lp549
(g246
I27
tp550
atp551
a(S'due'
p552
(dp553
S'ADV'
p554
F0.000136
sS'NOUN'
p555
F0.002318
sS'ADJ'
p556
F0.997546
s(lp557
(g552
I28
tp558
atp559
a(g260
(dp560
S'NOUN'
p561
F1.0
s(lp562
(g260
I29
tp563
atp564
a(g267
(dp565
S'VERB'
p566
F1.0
sS'NOUN'
p567
F0.0
s(lp568
(g267
I30
tp569
atp570
a(g276
(dp571
S'VERB'
p572
F0.999888
sS'ADJ'
p573
F0.000112
s(lp574
(g276
I31
tp575
atp576
a(g295
(dp577
S'ADV'
p578
F0.0
sS'PRT'
p579
F1.0
sS'ADP'
p580
F0.0
s(lp581
(g295
I32
tp582
atp583
a(g302
(dp584
S'VERB'
p585
F0.994711
sS'NOUN'
p586
F0.005289
s(lp587
(g302
I33
tp588
atp589
a(g311
(dp590
S'ADV'
p591
F0.001315
sS'DET'
p592
F0.428332
sS'ADP'
p593
F0.570352
s(lp594
(g311
I34
tp595
atp596
a(g354
(dp597
S'NOUN'
p598
F0.024176999999999997
sS'ADJ'
p599
F0.975823
s(lp600
(g354
I35
tp601
atp602
a(g346
(dp603
S'VERB'
p604
F0.000116
sS'NOUN'
p605
F0.999885
s(lp606
(g346
I36
tp607
atp608
a(g362
(dp609
S'VERB'
p610
F0.998455
sS'NOUN'
p611
F0.0015450000000000001
s(lp612
(g362
I37
tp613
atp614
a(g59
(dp615
S'NOUN'
p616
F0.0
sS'DET'
p617
F1.0
s(lp618
(g59
I38
tp619
atp620
a(g370
(dp621
S'ADV'
p622
F8.1e-05
sS'NOUN'
p623
F0.00064
sS'VERB'
p624
F1.7e-05
sS'ADJ'
p625
F0.999261
s(lp626
(g370
I39
tp627
atp628
a(g383
(dp629
S'VERB'
p630
F0.000254
sS'NOUN'
p631
F0.999746
s(lp632
(g383
I40
tp633
atp634
a(g12
(dp635
g12
F1.0
s(lp636
(g12
I41
tp637
atp638
asS'nl'
p639
(lp640
(S'hoewel'
p641
(dp642
S'CONJ'
p643
F1.0
s(lp644
(g41
I2
tp645
atp646
a(S'we'
p647
(dp648
S'PRON'
p649
F1.0
s(lp650
(g56
I3
tp651
atp652
a(S'echter'
p653
(dp654
S'ADV'
p655
F0.99998
sS'ADJ'
p656
F2e-05
s(lp657
tp658
a(S'enerzijds'
p659
(dp660
S'ADV'
p661
F1.0
s(lp662
(g7
I0
tp663
atp664
a(S'het'
p665
(dp666
S'PRON'
p667
F0.001792
sS'DET'
p668
F0.998207
s(lp669
(g88
I6
tp670
atp671
a(S'feit'
p672
(dp673
S'NOUN'
p674
F1.0
s(lp675
(g97
I7
tp676
atp677
a(S'moeten'
p678
(dp679
S'VERB'
p680
F0.999985
sS'NOUN'
p681
F1.5e-05
s(lp682
(g68
I4
tp683
atp684
a(S'toejuichen'
p685
(dp686
S'VERB'
p687
F0.998974
sS'NOUN'
p688
F0.001026
s(lp689
(g80
I5
tp690
atp691
a(S'dat'
p692
(dp693
S'PRON'
p694
F0.010607
sS'CONJ'
p695
F0.989393
s(lp696
(g106
I8
tp697
atp698
a(S'het'
p699
(dp700
S'PRON'
p701
F0.090329
sS'DET'
p702
F0.909671
s(lp703
tp704
a(S'internationaal'
p705
(dp706
S'ADJ'
p707
F1.0
s(lp708
(g130
I19
tp709
atp710
a(S'recht'
p711
(dp712
S'ADJ'
p713
F1e-05
sS'VERB'
p714
F0.014658
sS'NOUN'
p715
F0.985332
s(lp716
(g123
I20
tp717
atp718
a(S'ons'
p719
(dp720
S'PRON'
p721
F0.996785
sS'NOUN'
p722
F0.003215
s(lp723
(g114
I9
tp724
atp725
a(S'voortaan'
p726
(dp727
S'ADV'
p728
F1.0
s(lp729
(g144
I11
tp730
atp731
a(S'in'
p732
(dp733
S'ADV'
p734
F0.006385
sS'VERB'
p735
F1e-06
sS'ADP'
p736
F0.993614
s(lp737
(g465
I13
tp738
atp739
a(S'staat'
p740
(dp741
S'VERB'
p742
F1e-05
sS'NOUN'
p743
F0.99999
s(lp744
tp745
a(S'stelt'
p746
(dp747
S'VERB'
p748
F0.999978
sS'NOUN'
p749
F2.2e-05
s(lp750
tp751
a(S'om'
p752
(dp753
S'ADV'
p754
F0.003976
sS'CONJ'
p755
F0.822496
sS'ADP'
p756
F0.173528
s(lp757
tp758
a(S'de'
p759
(dp760
S'DET'
p761
F1.0
s(lp762
(g164
I14
tp763
atp764
a(S'muur'
p765
(dp766
S'NOUN'
p767
F1.0
s(lp768
(g171
I15
tp769
atp770
a(S'van'
p771
(dp772
S'ADP'
p773
F1.0
s(lp774
(g178
I16
tp775
atp776
a(S'onverschilligheid'
p777
(dp778
S'NOUN'
p779
F1.0
s(lp780
(g187
I17
tp781
atp782
a(S'te'
p783
(dp784
S'PRT'
p785
F1.0
s(lp786
tp787
a(S'doorbreken'
p788
(dp789
S'VERB'
p790
F0.9999990000000001
sS'NOUN'
p791
F1e-06
s(lp792
(g156
I12
tp793
atp794
a(g10
(dp795
g12
F1.0
s(lp796
(g10
I21
tp797
atp798
a(S'is'
p799
(dp800
S'VERB'
p801
F1.0
s(lp802
(g210
I23
tp803
atp804
a(S'het'
p805
(dp806
S'PRON'
p807
F0.920288
sS'DET'
p808
F0.079712
s(lp809
(g203
I22
tp810
atp811
a(S'anderzijds'
p812
(dp813
S'ADV'
p814
F1.0
s(lp815
(g230
I24
tp816
atp817
a(S'van'
p818
(dp819
S'ADP'
p820
F1.0
s(lp821
tp822
a(S'belang'
p823
(dp824
S'NOUN'
p825
F1.0
s(lp826
(g533
I25
tp827
atp828
a(S'dat'
p829
(dp830
S'PRON'
p831
F0.28871100000000005
sS'CONJ'
p832
F0.711289
s(lp833
(g239
I26
tp834
atp835
a(S'alle'
p836
(dp837
S'PRON'
p838
F1.0
s(lp839
(g246
I27
tp840
atp841
a(S'voorzorgsmaatregelen'
p842
(dp843
S'NOUN'
p844
F1.0
s(lp845
tp846
a(S'in'
p847
(dp848
S'ADV'
p849
F0.011082
sS'VERB'
p850
F1e-06
sS'ADP'
p851
F0.988917
s(lp852
(g330
I18
tp853
atp854
a(S'acht'
p855
(dp856
S'NUM'
p857
F0.111296
sS'NOUN'
p858
F0.880284
sS'VERB'
p859
F0.00842
s(lp860
(g260
I29
tp861
atp862
a(S'worden'
p863
(dp864
S'VERB'
p865
F0.999991
sS'NOUN'
p866
F9e-06
s(lp867
(g267
I30
tp868
atp869
a(S'genomen'
p870
(dp871
S'VERB'
p872
F0.999702
sS'ADJ'
p873
F0.000298
s(lp874
(g276
I31
tp875
atp876
a(S'om'
p877
(dp878
S'ADV'
p879
F0.003028
sS'CONJ'
p880
F0.996582
sS'ADP'
p881
F0.00039
s(lp882
tp883
a(S'te'
p884
(dp885
S'PRT'
p886
F1.0
s(lp887
(g295
I32
tp888
atp889
a(S'waarborgen'
p890
(dp891
S'VERB'
p892
F0.999757
sS'NOUN'
p893
F0.000242
s(lp894
(g302
I33
tp895
atp896
a(S'dat'
p897
(dp898
S'PRON'
p899
F0.010457
sS'CONJ'
p900
F0.989543
s(lp901
(g311
I34
tp902
atp903
a(S'het'
p904
(dp905
S'PRON'
p906
F0.07798000000000001
sS'DET'
p907
F0.92202
s(lp908
tp909
a(S'inzetten'
p910
(dp911
S'VERB'
p912
F0.060749
sS'NOUN'
p913
F0.9392510000000001
s(lp914
tp915
a(S'van'
p916
(dp917
S'ADP'
p918
F1.0
s(lp919
(g346
I36
tp920
atp921
a(S'strijdkrachten'
p922
(dp923
S'NOUN'
p924
F1.0
s(lp925
(g354
I35
tp926
atp927
a(S'een'
p928
(dp929
S'ADJ'
p930
F1.2e-05
sS'PRON'
p931
F0.001528
sS'NUM'
p932
F4e-06
sS'DET'
p933
F0.998456
s(lp934
(g59
I38
tp935
atp936
a(S'laatste'
p937
(dp938
S'NOUN'
p939
F0.01473
sS'ADJ'
p940
F0.98527
s(lp941
(g370
I39
tp942
atp943
a(S'redmiddel'
p944
(dp945
S'NOUN'
p946
F1.0
s(lp947
(g383
I40
tp948
atp949
a(S'is'
p950
(dp951
S'VERB'
p952
F1.0
s(lp953
(g362
I37
tp954
atp955
a(g12
(dp956
g12
F1.0
s(lp957
(g12
I41
tp958
atp959
asS'de'
p960
(lp961
(S'allerdings'
p962
(dp963
S'ADV'
p964
F1.0
s(lp965
(g7
I0
tp966
atp967
a(S'm\xc3\xbcssen'
p968
(dp969
S'VERB'
p970
F0.999999
s(lp971
(g68
I4
tp972
atp973
a(S'wir'
p974
(dp975
S'PRON'
p976
F1.0
s(lp977
(g56
I3
tp978
atp979
a(g10
(dp980
g12
F1.0
s(lp981
(g10
I1
tp982
atp983
a(S'obwohl'
p984
(dp985
S'CONJ'
p986
F1.0
s(lp987
(g41
I2
tp988
atp989
a(S'es'
p990
(dp991
S'PRON'
p992
F1.0
s(lp993
(g97
I7
tp994
atp995
a(S'erfreulich'
p996
(dp997
S'ADJ'
p998
F1.0
s(lp999
(g80
I5
tp1000
atp1001
a(S'ist'
p1002
(dp1003
S'VERB'
p1004
F1.0
s(lp1005
tp1006
a(g10
(dp1007
g12
F1.0
s(lp1008
tp1009
a(S'dass'
p1010
(dp1011
S'CONJ'
p1012
F1.0
s(lp1013
(g106
I8
tp1014
atp1015
a(S'wir'
p1016
(dp1017
S'PRON'
p1018
F1.0
s(lp1019
(g114
I9
tp1020
atp1021
a(S'nun'
p1022
(dp1023
S'ADV'
p1024
F0.999946
sS'CONJ'
p1025
F5.4e-05
s(lp1026
(g144
I11
tp1027
atp1028
a(S'nach'
p1029
(dp1030
S'ADV'
p1031
F0.021251
sS'ADP'
p1032
F0.978082
s(lp1033
(g330
I18
tp1034
atp1035
a(S'internationalem'
p1036
(dp1037
S'ADJ'
p1038
F1.0
s(lp1039
(g130
I19
tp1040
atp1041
a(S'recht'
p1042
(dp1043
S'VERB'
p1044
F0.117617
sS'ADJ'
p1045
F0.881717
s(lp1046
(g123
I20
tp1047
atp1048
a(S'die'
p1049
(dp1050
S'PRON'
p1051
F0.133285
sS'DET'
p1052
F0.864966
s(lp1053
(g164
I14
tp1054
atp1055
a(S'mauer'
p1056
(dp1057
S'VERB'
p1058
F1.0
s(lp1059
(g171
I15
tp1060
atp1061
a(S'der'
p1062
(dp1063
S'PRON'
p1064
F0.000449
sS'DET'
p1065
F0.999398
s(lp1066
(g178
I16
tp1067
atp1068
a(S'gleichg\xc3\xbcltigkeit'
p1069
(dp1070
S'ADJ'
p1071
F0.000226
sS'NOUN'
p1072
F0.999672
s(lp1073
(g187
I17
tp1074
atp1075
a(S'durchbrechen'
p1076
(dp1077
S'VERB'
p1078
F1.0
s(lp1079
(g156
I12
tp1080
atp1081
a(S'k\xc3\xb6nnen'
p1082
(dp1083
S'VERB'
p1084
F0.999989
s(lp1085
(g137
I10
tp1086
atp1087
a(g10
(dp1088
g12
F1.0
s(lp1089
(g10
I21
tp1090
atp1091
a(S'auch'
p1092
(dp1093
S'ADV'
p1094
F1.0
s(lp1095
(g230
I24
tp1096
atp1097
a(S'sicherstellen'
p1098
(dp1099
S'VERB'
p1100
F1.0
s(lp1101
(g533
I25
tp1102
atp1103
a(g10
(dp1104
g12
F1.0
s(lp1105
tp1106
a(S'dass'
p1107
(dp1108
S'CONJ'
p1109
F1.0
s(lp1110
(g239
I26
tp1111
atp1112
a(S'alle'
p1113
(dp1114
S'PRON'
p1115
F1.0
s(lp1116
(g246
I27
tp1117
atp1118
a(S'notwendigen'
p1119
(dp1120
S'ADJ'
p1121
F1.0
s(lp1122
tp1123
a(S'vorsichtma\xc3\x9fnahmen'
p1124
(dp1125
S'ADJ'
p1126
F2.2e-05
sS'NOUN'
p1127
F0.999949
s(lp1128
(g260
I29
tp1129
atp1130
a(S'getroffen'
p1131
(dp1132
S'VERB'
p1133
F0.998787
sS'ADJ'
p1134
F0.001213
s(lp1135
(g276
I31
tp1136
atp1137
a(S'werden'
p1138
(dp1139
S'VERB'
p1140
F0.999996
s(lp1141
(g267
I30
tp1142
atp1143
a(g10
(dp1144
g12
F1.0
s(lp1145
(g295
I32
tp1146
atp1147
a(S'um'
p1148
(dp1149
S'PRT'
p1150
F4.7e-05
sS'CONJ'
p1151
F0.999923
s(lp1152
tp1153
a(S'zu'
p1154
(dp1155
S'PRT'
p1156
F0.9999560000000001
s(lp1157
(g295
I32
tp1158
atp1159
a(S'garantieren'
p1160
(dp1161
S'VERB'
p1162
F1.0
s(lp1163
(g302
I33
tp1164
atp1165
a(g10
(dp1166
g12
F1.0
s(lp1167
tp1168
a(S'dass'
p1169
(dp1170
S'CONJ'
p1171
F1.0
s(lp1172
(g311
I34
tp1173
atp1174
a(S'milit\xc3\xa4rische'
p1175
(dp1176
S'ADJ'
p1177
F1.0
s(lp1178
(g354
I35
tp1179
atp1180
a(S'gewalt'
p1181
(dp1182
S'ADJ'
p1183
F0.001816
sS'NOUN'
p1184
F0.996376
s(lp1185
(g346
I36
tp1186
atp1187
a(S'das'
p1188
(dp1189
S'PRON'
p1190
F0.008108
sS'DET'
p1191
F0.991859
s(lp1192
(g59
I38
tp1193
atp1194
a(S'letzte'
p1195
(dp1196
S'ADJ'
p1197
F1.0
s(lp1198
(g370
I39
tp1199
atp1200
a(S'mittel'
p1201
(dp1202
S'VERB'
p1203
F1.0
s(lp1204
(g383
I40
tp1205
atp1206
a(S'ist'
p1207
(dp1208
S'VERB'
p1209
F1.0
s(lp1210
(g362
I37
tp1211
atp1212
a(g12
(dp1213
g12
F1.0
s(lp1214
(g12
I41
tp1215
atp1216
asS'it'
p1217
(lp1218
(S'dobbiamo'
p1219
(dp1220
S'VERB'
p1221
F0.9999999999999999
s(lp1222
(g56
I3
tp1223
atp1224
a(S'comunque'
p1225
(dp1226
S'ADV'
p1227
F1.0
s(lp1228
(g7
I0
tp1229
atp1230
a(S'accogliere'
p1231
(dp1232
S'VERB'
p1233
F1.0
s(lp1234
(g80
I5
tp1235
atp1236
a(S'di'
p1237
(dp1238
S'CONJ'
p1239
F4e-06
sS'ADP'
p1240
F0.999996
s(lp1241
tp1242
a(S'buon'
p1243
(dp1244
S'ADJ'
p1245
F1.0
s(lp1246
tp1247
a(S'grado'
p1248
(dp1249
S'NOUN'
p1250
F1.0
s(lp1251
(g80
I5
tp1252
atp1253
a(S'la'
p1254
(dp1255
S'PRON'
p1256
F0.000887
sS'DET'
p1257
F0.999113
s(lp1258
(g88
I6
tp1259
atp1260
a(S'possibilit\xc3\xa0'
p1261
(dp1262
S'NOUN'
p1263
F1.0
s(lp1264
(g137
I10
tp1265
atp1266
a(S'di'
p1267
(dp1268
S'CONJ'
p1269
F6e-06
sS'ADP'
p1270
F0.999994
s(lp1271
tp1272
a(S'rompere'
p1273
(dp1274
S'VERB'
p1275
F1.0
s(lp1276
(g156
I12
tp1277
atp1278
a(S'il'
p1279
(dp1280
S'DET'
p1281
F1.0
s(lp1282
tp1283
a(S'muro'
p1284
(dp1285
S'VERB'
p1286
F0.001046
sS'NOUN'
p1287
F0.998954
s(lp1288
(g171
I15
tp1289
atp1290
a(S"dell'"
p1291
(dp1292
S'ADJ'
p1293
F0.04065
sS'VERB'
p1294
F0.006664
sS'NOUN'
p1295
F0.952687
s(lp1296
(g178
I16
tp1297
atp1298
a(S'indifferenza'
p1299
(dp1300
S'NOUN'
p1301
F1.0
s(lp1302
(g187
I17
tp1303
atp1304
a(S'attraverso'
p1305
(dp1306
S'ADV'
p1307
F0.373504
sS'VERB'
p1308
F0.012467
sS'ADP'
p1309
F0.614029
s(lp1310
(g465
I13
tp1311
atp1312
a(S'il'
p1313
(dp1314
S'DET'
p1315
F1.0
s(lp1316
(g164
I14
tp1317
atp1318
a(S'diritto'
p1319
(dp1320
S'ADJ'
p1321
F0.004173
sS'NOUN'
p1322
F0.995827
s(lp1323
(g123
I20
tp1324
atp1325
a(S'internazionale'
p1326
(dp1327
S'ADJ'
p1328
F1.0
s(lp1329
(g130
I19
tp1330
atp1331
a(g10
(dp1332
g12
F1.0
s(lp1333
(g10
I21
tp1334
atp1335
a(S'ma'
p1336
(dp1337
S'CONJ'
p1338
F0.999945
sS'NOUN'
p1339
F5.5e-05
s(lp1340
(g203
I22
tp1341
atp1342
a(S'dobbiamo'
p1343
(dp1344
S'VERB'
p1345
F1.0
s(lp1346
(g210
I23
tp1347
atp1348
a(S'anche'
p1349
(dp1350
S'ADV'
p1351
F0.999998
sS'NOUN'
p1352
F2e-06
s(lp1353
(g230
I24
tp1354
atp1355
a(S'garantire'
p1356
(dp1357
S'VERB'
p1358
F1.0
s(lp1359
(g533
I25
tp1360
atp1361
a(S'che'
p1362
(dp1363
S'PRON'
p1364
F0.998699
sS'CONJ'
p1365
F0.001186
sS'ADJ'
p1366
F0.000115
s(lp1367
(g239
I26
tp1368
atp1369
a(S'vengano'
p1370
(dp1371
S'VERB'
p1372
F1.0
s(lp1373
(g267
I30
tp1374
atp1375
a(S'prese'
p1376
(dp1377
S'ADJ'
p1378
F0.232515
sS'VERB'
p1379
F0.303313
sS'NOUN'
p1380
F0.464172
s(lp1381
tp1382
a(S'tutte'
p1383
(dp1384
S'PRON'
p1385
F0.020703
sS'ADJ'
p1386
F0.979297
s(lp1387
(g246
I27
tp1388
atp1389
a(S'le'
p1390
(dp1391
S'PRON'
p1392
F7e-06
sS'DET'
p1393
F0.999993
s(lp1394
(g260
I29
tp1395
atp1396
a(S'precauzioni'
p1397
(dp1398
S'NOUN'
p1399
F1.0
s(lp1400
tp1401
a(S'del'
p1402
(dp1403
S'DEF'
p1404
F0.001248
sS'ADP'
p1405
F0.998752
s(lp1406
(g164
I14
tp1407
atp1408
a(S'caso'
p1409
(dp1410
S'NOUN'
p1411
F1.0
s(lp1412
(g260
I29
tp1413
atp1414
a(S'per'
p1415
(dp1416
S'CONJ'
p1417
F0.005329
sS'ADP'
p1418
F0.994671
s(lp1419
(g295
I32
tp1420
atp1421
a(S'assicurare'
p1422
(dp1423
S'VERB'
p1424
F1.0
s(lp1425
(g302
I33
tp1426
atp1427
a(S'che'
p1428
(dp1429
S'PRON'
p1430
F0.993753
sS'CONJ'
p1431
F0.006048
sS'ADJ'
p1432
F0.000199
s(lp1433
(g311
I34
tp1434
atp1435
a(S'il'
p1436
(dp1437
S'DET'
p1438
F1.0
s(lp1439
tp1440
a(S'ricorso'
p1441
(dp1442
S'ADJ'
p1443
F0.004789
sS'VERB'
p1444
F0.004046
sS'NOUN'
p1445
F0.991164
s(lp1446
(g276
I31
tp1447
atp1448
a(S'alla'
p1449
(dp1450
S'ADP'
p1451
F1.0
s(lp1452
(g164
I14
tp1453
atp1454
a(S'forza'
p1455
(dp1456
S'VERB'
p1457
F0.000211
sS'NOUN'
p1458
F0.999789
s(lp1459
(g346
I36
tp1460
atp1461
a(S'militare'
p1462
(dp1463
S'NOUN'
p1464
F0.003791
sS'VERB'
p1465
F0.00077
sS'ADJ'
p1466
F0.995439
s(lp1467
(g354
I35
tp1468
atp1469
a(S'rappresenti'
p1470
(dp1471
S'VERB'
p1472
F1.0
s(lp1473
(g362
I37
tp1474
atp1475
a(S"l'"
p1476
(dp1477
S'NOUN'
p1478
F0.002471
sS'VERB'
p1479
F0.971892
sS'ADJ'
p1480
F0.025637
s(lp1481
tp1482
a(S'ultima'
p1483
(dp1484
S'NOUN'
p1485
F0.031948
sS'VERB'
p1486
F0.01175
sS'ADJ'
p1487
F0.956303
s(lp1488
(g370
I39
tp1489
atp1490
a(S'spiaggia'
p1491
(dp1492
S'NOUN'
p1493
F1.0
s(lp1494
(g383
I40
tp1495
atp1496
a(g12
(dp1497
g12
F1.0
s(lp1498
(g12
I41
tp1499
atp1500
asS'sk'
p1501
(lp1502
(S'hoci'
p1503
(dp1504
S'X'
p1505
F0.050268
sS'CONJ'
p1506
F0.949732
s(lp1507
tp1508
a(S'by'
p1509
(dp1510
S'PRT'
p1511
F1.0
sg1505
F0.0
s(lp1512
tp1513
a(S'sme'
p1514
(dp1515
g1505
F0.0
sS'VERB'
p1516
F1.0
s(lp1517
(g56
I3
tp1518
atp1519
a(S'mali'
p1520
(dp1521
S'VERB'
p1522
F1.0
s(lp1523
(g68
I4
tp1524
atp1525
a(S'priv\xc3\xadta\xc5\xa5'
p1526
(dp1527
S'VERB'
p1528
F1.0
s(lp1529
(g80
I5
tp1530
atp1531
a(S'skuto\xc4\x8dnos\xc5\xa5'
p1532
(dp1533
S'NOUN'
p1534
F1.0
s(lp1535
(g97
I7
tp1536
atp1537
a(g10
(dp1538
g12
F1.0
s(lp1539
(g114
I9
tp1540
atp1541
a(S'\xc5\xbee'
p1542
(dp1543
g1505
F0.000621
sS'CONJ'
p1544
F0.999378
s(lp1545
(g106
I8
tp1546
atp1547
a(S'teraz'
p1548
(dp1549
S'ADV'
p1550
F1.0
s(lp1551
(g144
I11
tp1552
atp1553
a(S'm\xc3\xb4\xc5\xbeeme'
p1554
(dp1555
S'VERB'
p1556
F1.0
s(lp1557
(g137
I10
tp1558
atp1559
a(S'pod'
p1560
(dp1561
g1505
F0.001542
sS'ADP'
p1562
F0.998457
s(lp1563
tp1564
a(S'z\xc3\xa1\xc5\xa1titou'
p1565
(dp1566
S'NOUN'
p1567
F1.0
s(lp1568
(g330
I18
tp1569
atp1570
a(S'medzin\xc3\xa1rodn\xc3\xa9ho'
p1571
(dp1572
S'ADJ'
p1573
F1.0
s(lp1574
(g130
I19
tp1575
atp1576
a(S'pr\xc3\xa1va'
p1577
(dp1578
S'VERB'
p1579
F0.000687
sS'NOUN'
p1580
F0.999313
s(lp1581
(g123
I20
tp1582
atp1583
a(S'prerazi\xc5\xa5'
p1584
(dp1585
S'VERB'
p1586
F1.0
s(lp1587
tp1588
a(S'stenu'
p1589
(dp1590
S'NOUN'
p1591
F1.0
s(lp1592
(g171
I15
tp1593
atp1594
a(S'nev\xc5\xa1\xc3\xadmavosti'
p1595
(dp1596
S'NOUN'
p1597
F1.0
s(lp1598
(g187
I17
tp1599
atp1600
a(g10
(dp1601
g12
F1.0
s(lp1602
(g10
I21
tp1603
atp1604
a(S'mus\xc3\xadme'
p1605
(dp1606
S'VERB'
p1607
F1.0
s(lp1608
(g210
I23
tp1609
atp1610
a(S'v\xc5\xa1ak'
p1611
(dp1612
g1505
F0.951239
sS'CONJ'
p1613
F0.048761
s(lp1614
(g230
I24
tp1615
atp1616
a(S'zabezpe\xc4\x8di\xc5\xa5'
p1617
(dp1618
S'VERB'
p1619
F1.0
s(lp1620
(g533
I25
tp1621
atp1622
a(g10
(dp1623
g12
F1.0
s(lp1624
tp1625
a(S'aby'
p1626
(dp1627
g1505
F6.7e-05
sS'CONJ'
p1628
F0.999933
s(lp1629
(g239
I26
tp1630
atp1631
a(S'sa'
p1632
(dp1633
S'PRT'
p1634
F0.999996
sS'ADP'
p1635
F0.0
sg1505
F4e-06
s(lp1636
(g267
I30
tp1637
atp1638
a(S'prijali'
p1639
(dp1640
S'VERB'
p1641
F0.999999
s(lp1642
(g276
I31
tp1643
atp1644
a(S'v\xc5\xa1etky'
p1645
(dp1646
S'PRON'
p1647
F1.0
s(lp1648
(g246
I27
tp1649
atp1650
a(S'potrebn\xc3\xa9'
p1651
(dp1652
S'ADJ'
p1653
F1.0
s(lp1654
(g260
I29
tp1655
atp1656
a(S'prevent\xc3\xadvne'
p1657
(dp1658
S'ADV'
p1659
F3.7e-05
sS'ADJ'
p1660
F0.9999629999999999
s(lp1661
tp1662
a(S'opatrenia'
p1663
(dp1664
S'NOUN'
p1665
F1.0
s(lp1666
(g260
I29
tp1667
atp1668
a(g10
(dp1669
g12
F1.0
s(lp1670
tp1671
a(g59
(dp1672
g1505
F0.00045000000000000004
sS'CONJ'
p1673
F0.999519
sS'NOUN'
p1674
F4.9999999999999996e-06
sS'ADP'
p1675
F0.0
sS'PRT'
p1676
F2.7e-05
s(lp1677
(g295
I32
tp1678
atp1679
a(S'zaistili'
p1680
(dp1681
S'VERB'
p1682
F0.9999999999999999
s(lp1683
(g302
I33
tp1684
atp1685
a(S'tak'
p1686
(dp1687
g1505
F0.460538
sS'CONJ'
p1688
F0.160458
sS'PRON'
p1689
F0.379003
s(lp1690
tp1691
a(S'aj'
p1692
(dp1693
g1505
F0.841398
sS'CONJ'
p1694
F0.158602
s(lp1695
(g41
I2
tp1696
atp1697
a(S'to'
p1698
(dp1699
S'PRON'
p1700
F0.975204
sS'CONJ'
p1701
F0.000348
sg1505
F0.024449
s(lp1702
tp1703
a(g10
(dp1704
g12
F1.0
s(lp1705
tp1706
a(S'\xc5\xbee'
p1707
(dp1708
g1505
F0.000496
sS'CONJ'
p1709
F0.999504
s(lp1710
(g311
I34
tp1711
atp1712
a(S'vojensk\xc3\xa1'
p1713
(dp1714
S'ADJ'
p1715
F1.0
s(lp1716
(g354
I35
tp1717
atp1718
a(S'sila'
p1719
(dp1720
S'NOUN'
p1721
F1.0
s(lp1722
(g346
I36
tp1723
atp1724
a(S'zostane'
p1725
(dp1726
S'VERB'
p1727
F1.0
s(lp1728
(g362
I37
tp1729
atp1730
a(S'poslednou'
p1731
(dp1732
S'NUM'
p1733
F0.647866
sS'ADJ'
p1734
F0.352134
s(lp1735
(g370
I39
tp1736
atp1737
a(S'mo\xc5\xbenos\xc5\xa5ou'
p1738
(dp1739
S'NOUN'
p1740
F1.0
s(lp1741
(g383
I40
tp1742
atp1743
a(g12
(dp1744
g12
F1.0
s(lp1745
(g12
I41
tp1746
atp1747
asS'pl'
p1748
(lp1749
(S'jednak\xc5\xbce'
p1750
(dp1751
S'PRT'
p1752
F0.641687
sS'CONJ'
p1753
F0.358313
s(lp1754
(g7
I0
tp1755
atp1756
a(S'cho\xc4\x87'
p1757
(dp1758
S'PRT'
p1759
F0.316605
sS'CONJ'
p1760
F0.670715
sS'VERB'
p1761
F0.01268
s(lp1762
(g41
I2
tp1763
atp1764
a(S'powinni\xc5\x9bmy'
p1765
(dp1766
S'ADJ'
p1767
F0.0008330000000000001
sS'VERB'
p1768
F0.9884269999999998
sS'NOUN'
p1769
F0.010740000000000003
s(lp1770
(g68
I4
tp1771
atp1772
a(S'si\xc4\x99'
p1773
(dp1774
S'PRT'
p1775
F1.0
s(lp1776
(g80
I5
tp1777
atp1778
a(S'cieszy\xc4\x87'
p1779
(dp1780
S'VERB'
p1781
F1.0
s(lp1782
tp1783
a(S'z'
p1784
(dp1785
S'PRT'
p1786
F6e-06
sS'VERB'
p1787
F1e-06
sS'NOUN'
p1788
F3e-06
sS'ADP'
p1789
F0.999989
sg1505
F0.0
s(lp1790
(g80
I5
tp1791
atp1792
a(S'faktu'
p1793
(dp1794
S'NOUN'
p1795
F1.0
s(lp1796
(g97
I7
tp1797
atp1798
a(g10
(dp1799
g1505
F0.0
sg12
F1.0
s(lp1800
tp1801
a(S'\xc5\xbce'
p1802
(dp1803
S'PRT'
p1804
F0.000624
sS'CONJ'
p1805
F0.999377
s(lp1806
(g106
I8
tp1807
atp1808
a(S'dzi\xc4\x99ki'
p1809
(dp1810
S'NOUN'
p1811
F4.9e-05
sS'ADP'
p1812
F0.999951
s(lp1813
(g330
I18
tp1814
atp1815
a(S'mi\xc4\x99dzynarodowemu'
p1816
(dp1817
S'ADV'
p1818
F0.0
sS'NOUN'
p1819
F0.001492
sS'VERB'
p1820
F0.0019359999999999998
sS'ADJ'
p1821
F0.996566
s(lp1822
(g130
I19
tp1823
atp1824
a(S'prawu'
p1825
(dp1826
S'NOUN'
p1827
F1.0
s(lp1828
(g123
I20
tp1829
atp1830
a(S'mo\xc5\xbcemy'
p1831
(dp1832
S'VERB'
p1833
F1.0
s(lp1834
(g137
I10
tp1835
atp1836
a(S'teraz'
p1837
(dp1838
S'ADV'
p1839
F1.0
s(lp1840
(g144
I11
tp1841
atp1842
a(S'przebi\xc4\x87'
p1843
(dp1844
S'VERB'
p1845
F1.0
s(lp1846
(g156
I12
tp1847
atp1848
a(S'si\xc4\x99'
p1849
(dp1850
S'PRT'
p1851
F1.0
s(lp1852
tp1853
a(S'przez'
p1854
(dp1855
S'ADP'
p1856
F1.0
s(lp1857
(g465
I13
tp1858
atp1859
a(S'\xc5\x9bcian\xc4\x99'
p1860
(dp1861
S'NOUN'
p1862
F1.0
s(lp1863
tp1864
a(S'oboj\xc4\x99tno\xc5\x9bci'
p1865
(dp1866
S'NOUN'
p1867
F1.0
s(lp1868
(g187
I17
tp1869
atp1870
a(g10
(dp1871
g1505
F0.0
sg12
F1.0
s(lp1872
(g10
I21
tp1873
atp1874
a(S'musimy'
p1875
(dp1876
S'VERB'
p1877
F1.0
s(lp1878
(g210
I23
tp1879
atp1880
a(S'r\xc3\xb3wnie\xc5\xbc'
p1881
(dp1882
S'PRT'
p1883
F0.97271
sS'CONJ'
p1884
F0.02729
s(lp1885
(g230
I24
tp1886
atp1887
a(S'zadba\xc4\x87'
p1888
(dp1889
S'VERB'
p1890
F1.0
s(lp1891
(g533
I25
tp1892
atp1893
a(S'o'
p1894
(dp1895
g1505
F0.000173
sS'VERB'
p1896
F4e-06
sS'NOUN'
p1897
F2e-06
sS'ADP'
p1898
F0.999819
sS'PRT'
p1899
F2e-06
s(lp1900
(g239
I26
tp1901
atp1902
a(S'podj\xc4\x99cie'
p1903
(dp1904
S'VERB'
p1905
F1.0
s(lp1906
(g276
I31
tp1907
atp1908
a(S'wszelkich'
p1909
(dp1910
S'ADJ'
p1911
F0.999999
s(lp1912
(g246
I27
tp1913
atp1914
a(S'koniecznych'
p1915
(dp1916
S'ADJ'
p1917
F1.0
s(lp1918
(g260
I29
tp1919
atp1920
a(S'\xc5\x9brodk\xc3\xb3w'
p1921
(dp1922
S'NOUN'
p1923
F1.0
s(lp1924
tp1925
a(S'ostro\xc5\xbcno\xc5\x9bci'
p1926
(dp1927
S'NOUN'
p1928
F1.0
s(lp1929
(g260
I29
tp1930
atp1931
a(S'celem'
p1932
(dp1933
S'NOUN'
p1934
F0.606407
sS'ADP'
p1935
F0.393593
s(lp1936
(g295
I32
tp1937
atp1938
a(S'zagwarantowania'
p1939
(dp1940
S'VERB'
p1941
F1.0
s(lp1942
(g302
I33
tp1943
atp1944
a(S'u\xc5\xbcywania'
p1945
(dp1946
S'VERB'
p1947
F1.0
s(lp1948
(g354
I35
tp1949
atp1950
a(S'si\xc5\x82y'
p1951
(dp1952
S'NOUN'
p1953
F1.0
s(lp1954
(g346
I36
tp1955
atp1956
a(S'tylko'
p1957
(dp1958
S'PRT'
p1959
F0.293734
sS'CONJ'
p1960
F0.706266
s(lp1961
(g362
I37
tp1962
atp1963
a(S'w'
p1964
(dp1965
S'NOUN'
p1966
F7e-06
sS'ADJ'
p1967
F3.1e-05
sS'ADP'
p1968
F0.999962
sg1505
F0.0
s(lp1969
(g370
I39
tp1970
atp1971
a(S'ostateczno\xc5\x9bci'
p1972
(dp1973
S'NOUN'
p1974
F1.0
s(lp1975
(g383
I40
tp1976
atp1977
a(g12
(dp1978
g12
F1.0
s(lp1979
(g12
I41
tp1980
atp1981
asS'sl'
p1982
(lp1983
(g59
(dp1984
S'ADV'
p1985
F0.007335
sg1505
F0.005777
sS'CONJ'
p1986
F0.972168
sS'NOUN'
p1987
F0.01472
s(lp1988
(g7
I0
tp1989
atp1990
a(S'\xc4\x8deprav'
p1991
(dp1992
S'CONJ'
p1993
F1.0
s(lp1994
(g41
I2
tp1995
atp1996
a(S'bi'
p1997
(dp1998
g1505
F1e-06
sS'VERB'
p1999
F0.999999
s(lp2000
tp2001
a(S'morali'
p2002
(dp2003
S'VERB'
p2004
F1.0
s(lp2005
(g68
I4
tp2006
atp2007
a(S'pozdraviti'
p2008
(dp2009
S'VERB'
p2010
F1.0
s(lp2011
(g80
I5
tp2012
atp2013
a(S'dejstvo'
p2014
(dp2015
S'NOUN'
p2016
F1.0
s(lp2017
(g97
I7
tp2018
atp2019
a(g10
(dp2020
g12
F1.0
s(lp2021
tp2022
a(S'da'
p2023
(dp2024
S'PRT'
p2025
F0.000272
sS'CONJ'
p2026
F0.999225
sS'VERB'
p2027
F0.000501
sg1505
F2e-06
s(lp2028
(g106
I8
tp2029
atp2030
a(S'lahko'
p2031
(dp2032
S'ADV'
p2033
F0.999153
sS'ADJ'
p2034
F0.000847
s(lp2035
(g137
I10
tp2036
atp2037
a(S'zdaj'
p2038
(dp2039
S'ADV'
p2040
F1.0
s(lp2041
(g144
I11
tp2042
atp2043
a(S'prebijemo'
p2044
(dp2045
S'VERB'
p2046
F1.0
s(lp2047
(g156
I12
tp2048
atp2049
a(S'zid'
p2050
(dp2051
S'NOUN'
p2052
F1.0
s(lp2053
(g171
I15
tp2054
atp2055
a(S'ravnodu\xc5\xa1nosti'
p2056
(dp2057
S'NOUN'
p2058
F1.0
s(lp2059
(g187
I17
tp2060
atp2061
a(S'v'
p2062
(dp2063
S'ADP'
p2064
F1.0
s(lp2065
tp2066
a(S'okviru'
p2067
(dp2068
S'NOUN'
p2069
F1.0
s(lp2070
(g330
I18
tp2071
atp2072
a(S'mednarodnega'
p2073
(dp2074
S'ADJ'
p2075
F1.0
s(lp2076
(g130
I19
tp2077
atp2078
a(S'prava'
p2079
(dp2080
S'ADJ'
p2081
F0.00047000000000000004
sS'NOUN'
p2082
F0.99953
s(lp2083
(g123
I20
tp2084
atp2085
a(g10
(dp2086
g12
F1.0
s(lp2087
(g10
I21
tp2088
atp2089
a(S'pa'
p2090
(dp2091
g1505
F9.1e-05
sS'CONJ'
p2092
F0.999909
s(lp2093
(g203
I22
tp2094
atp2095
a(S'moramo'
p2096
(dp2097
S'VERB'
p2098
F1.0
s(lp2099
(g210
I23
tp2100
atp2101
a(S'prav'
p2102
(dp2103
S'ADV'
p2104
F0.074957
sS'PRT'
p2105
F0.924793
sS'VERB'
p2106
F0.000251
s(lp2107
tp2108
a(S'tako'
p2109
(dp2110
S'ADV'
p2111
F0.983852
sS'PRON'
p2112
F0.012152999999999999
sS'CONJ'
p2113
F0.003995
s(lp2114
(g230
I24
tp2115
atp2116
a(S'zagotoviti'
p2117
(dp2118
S'VERB'
p2119
F1.0
s(lp2120
(g533
I25
tp2121
atp2122
a(g10
(dp2123
g12
F1.0
s(lp2124
tp2125
a(S'da'
p2126
(dp2127
S'PRT'
p2128
F0.000227
sS'CONJ'
p2129
F0.999749
sS'VERB'
p2130
F2.3e-05
sg1505
F1e-06
s(lp2131
(g239
I26
tp2132
atp2133
a(S'bomo'
p2134
(dp2135
S'VERB'
p2136
F1.0
s(lp2137
(g267
I30
tp2138
atp2139
a(S'sprejeli'
p2140
(dp2141
S'VERB'
p2142
F1.0
s(lp2143
(g276
I31
tp2144
atp2145
a(S'ustrezne'
p2146
(dp2147
S'ADJ'
p2148
F1.0
s(lp2149
(g552
I28
tp2150
atp2151
a(S'varnostne'
p2152
(dp2153
S'ADJ'
p2154
F1.0
s(lp2155
tp2156
a(S'ukrepe'
p2157
(dp2158
S'NOUN'
p2159
F1.0
s(lp2160
(g260
I29
tp2161
atp2162
a(g10
(dp2163
g12
F1.0
s(lp2164
(g295
I32
tp2165
atp2166
a(S's'
p2167
(dp2168
S'VERB'
p2169
F8.7e-05
sS'NOUN'
p2170
F2.3e-05
sS'ADP'
p2171
F0.999889
s(lp2172
(g295
I32
tp2173
atp2174
a(S'katerimi'
p2175
(dp2176
S'PRON'
p2177
F1.0
s(lp2178
tp2179
a(S'bomo'
p2180
(dp2181
S'VERB'
p2182
F1.0
s(lp2183
(g295
I32
tp2184
atp2185
a(S'jam\xc4\x8dili'
p2186
(dp2187
S'ADV'
p2188
F5e-05
sS'ADJ'
p2189
F4e-06
sS'VERB'
p2190
F0.999794
sS'NOUN'
p2191
F0.000151
s(lp2192
(g302
I33
tp2193
atp2194
a(g10
(dp2195
g12
F1.0
s(lp2196
tp2197
a(S'da'
p2198
(dp2199
S'PRT'
p2200
F0.000131
sS'CONJ'
p2201
F0.999856
sS'VERB'
p2202
F1.2e-05
sg1505
F0.0
s(lp2203
(g311
I34
tp2204
atp2205
a(S'bo'
p2206
(dp2207
S'VERB'
p2208
F1.0
s(lp2209
(g362
I37
tp2210
atp2211
a(S'voja\xc5\xa1ka'
p2212
(dp2213
S'ADJ'
p2214
F1.0
s(lp2215
(g354
I35
tp2216
atp2217
a(S'sila'
p2218
(dp2219
S'ADV'
p2220
F0.014014
sS'NOUN'
p2221
F0.985986
s(lp2222
(g346
I36
tp2223
atp2224
a(S'uporabljena'
p2225
(dp2226
S'ADJ'
p2227
F0.9999999999999999
s(lp2228
(g383
I40
tp2229
atp2230
a(S'le'
p2231
(dp2232
S'PRT'
p2233
F0.999919
sg1505
F8.1e-05
s(lp2234
(g383
I40
tp2235
atp2236
a(g2062
(dp2237
S'ADP'
p2238
F1.0
s(lp2239
(g59
I38
tp2240
atp2241
a(S'skrajni'
p2242
(dp2243
S'ADJ'
p2244
F1.000001
s(lp2245
tp2246
a(S'sili'
p2247
(dp2248
S'VERB'
p2249
F0.000234
sS'NOUN'
p2250
F0.999766
s(lp2251
(g383
I40
tp2252
atp2253
a(g12
(dp2254
g12
F1.0
s(lp2255
(g12
I41
tp2256
atp2257
asS'es'
p2258
(lp2259
(S'sin'
p2260
(dp2261
S'ADV'
p2262
F1.0
s(lp2263
tp2264
a(S'embargo'
p2265
(dp2266
S'ADV'
p2267
F1.0
s(lp2268
(g7
I0
tp2269
atp2270
a(g10
(dp2271
g12
F1.0
s(lp2272
(g10
I1
tp2273
atp2274
a(g59
(dp2275
S'CONJ'
p2276
F1.0
s(lp2277
tp2278
a(S'pesar'
p2279
(dp2280
S'CONJ'
p2281
F1.0
s(lp2282
(g41
I2
tp2283
atp2284
a(S'de'
p2285
(dp2286
S'CONJ'
p2287
F1.0
s(lp2288
tp2289
a(S'que'
p2290
(dp2291
g1505
F1e-06
sS'CONJ'
p2292
F0.999999
s(lp2293
(g56
I3
tp2294
atp2295
a(S'deber\xc3\xadamos'
p2296
(dp2297
S'VERB'
p2298
F1.0
s(lp2299
(g68
I4
tp2300
atp2301
a(S'recibir'
p2302
(dp2303
S'VERB'
p2304
F1.0
s(lp2305
(g80
I5
tp2306
atp2307
a(S'con'
p2308
(dp2309
S'ADP'
p2310
F1.0
s(lp2311
tp2312
a(S'satisfacci\xc3\xb3n'
p2313
(dp2314
S'NOUN'
p2315
F1.0
s(lp2316
(g80
I5
tp2317
atp2318
a(S'el'
p2319
(dp2320
S'PRON'
p2321
F1.7e-05
sS'DET'
p2322
F0.999983
s(lp2323
(g88
I6
tp2324
atp2325
a(S'hecho'
p2326
(dp2327
S'ADJ'
p2328
F0.007447
sS'VERB'
p2329
F0.024964
sS'NOUN'
p2330
F0.967589
s(lp2331
(g97
I7
tp2332
atp2333
a(S'de'
p2334
(dp2335
g1505
F0.0
sS'CONJ'
p2336
F0.005752
sS'ADP'
p2337
F0.994247
s(lp2338
tp2339
a(S'que'
p2340
(dp2341
g1505
F0.0
sS'CONJ'
p2342
F1.0
s(lp2343
(g106
I8
tp2344
atp2345
a(S'ahora'
p2346
(dp2347
S'ADV'
p2348
F1.0
s(lp2349
(g144
I11
tp2350
atp2351
a(S'podamos'
p2352
(dp2353
S'VERB'
p2354
F1.0
s(lp2355
(g137
I10
tp2356
atp2357
a(S'romper'
p2358
(dp2359
S'VERB'
p2360
F1.0
s(lp2361
(g156
I12
tp2362
atp2363
a(S'el'
p2364
(dp2365
S'PRON'
p2366
F1.4e-05
sS'DET'
p2367
F0.999986
s(lp2368
(g164
I14
tp2369
atp2370
a(S'muro'
p2371
(dp2372
S'VERB'
p2373
F0.000346
sS'NOUN'
p2374
F0.999654
s(lp2375
(g171
I15
tp2376
atp2377
a(S'de'
p2378
(dp2379
g1505
F2.9e-05
sS'CONJ'
p2380
F0.000449
sS'ADP'
p2381
F0.999522
s(lp2382
(g178
I16
tp2383
atp2384
a(S'indiferencia'
p2385
(dp2386
S'NOUN'
p2387
F1.0
s(lp2388
(g187
I17
tp2389
atp2390
a(S'con'
p2391
(dp2392
S'ADP'
p2393
F1.0
s(lp2394
(g330
I18
tp2395
atp2396
a(S'arreglo'
p2397
(dp2398
S'NOUN'
p2399
F1.0
s(lp2400
tp2401
a(S'al'
p2402
(dp2403
S'CONJ'
p2404
F0.000891
sS'ADP'
p2405
F0.9991089999999999
s(lp2406
(g330
I18
tp2407
atp2408
a(S'derecho'
p2409
(dp2410
S'ADV'
p2411
F0.003511
sS'ADJ'
p2412
F0.024303
sS'NOUN'
p2413
F0.972186
s(lp2414
(g123
I20
tp2415
atp2416
a(S'internacional'
p2417
(dp2418
S'ADJ'
p2419
F1.0
s(lp2420
(g130
I19
tp2421
atp2422
a(g10
(dp2423
g12
F1.0
s(lp2424
(g10
I21
tp2425
atp2426
a(S'tambi\xc3\xa9n'
p2427
(dp2428
S'ADV'
p2429
F1.0
s(lp2430
(g230
I24
tp2431
atp2432
a(S'debemos'
p2433
(dp2434
S'VERB'
p2435
F1.0
s(lp2436
(g210
I23
tp2437
atp2438
a(S'cerciorarnos'
p2439
(dp2440
S'VERB'
p2441
F1.0
s(lp2442
(g533
I25
tp2443
atp2444
a(S'de'
p2445
(dp2446
g1505
F1e-06
sS'CONJ'
p2447
F0.010729
sS'ADP'
p2448
F0.98927
s(lp2449
tp2450
a(S'que'
p2451
(dp2452
g1505
F2e-06
sS'CONJ'
p2453
F0.999998
s(lp2454
(g239
I26
tp2455
atp2456
a(S'se'
p2457
(dp2458
S'PRON'
p2459
F1.0
sS'VERB'
p2460
F0.0
s(lp2461
(g267
I30
tp2462
atp2463
a(S'toman'
p2464
(dp2465
S'VERB'
p2466
F1.0
s(lp2467
(g276
I31
tp2468
atp2469
a(S'todas'
p2470
(dp2471
S'ADJ'
p2472
F1.0
s(lp2473
(g246
I27
tp2474
atp2475
a(S'las'
p2476
(dp2477
S'PRON'
p2478
F0.0
sS'DET'
p2479
F1.0
s(lp2480
tp2481
a(S'precauciones'
p2482
(dp2483
S'NOUN'
p2484
F1.0
s(lp2485
(g260
I29
tp2486
atp2487
a(g59
(dp2488
S'CONJ'
p2489
F1.0
s(lp2490
(g295
I32
tp2491
atp2492
a(S'fin'
p2493
(dp2494
S'CONJ'
p2495
F1.0
s(lp2496
(g295
I32
tp2497
atp2498
a(S'de'
p2499
(dp2500
S'CONJ'
p2501
F1.0
s(lp2502
tp2503
a(S'garantizar'
p2504
(dp2505
S'VERB'
p2506
F1.0
s(lp2507
(g302
I33
tp2508
atp2509
a(S'que'
p2510
(dp2511
g1505
F0.0
sS'CONJ'
p2512
F1.0
s(lp2513
(g311
I34
tp2514
atp2515
a(S'la'
p2516
(dp2517
S'PRON'
p2518
F0.00027
sS'DET'
p2519
F0.99973
sg1505
F0.0
sS'NOUN'
p2520
F0.0
s(lp2521
(g295
I32
tp2522
atp2523
a(S'fuerza'
p2524
(dp2525
S'NOUN'
p2526
F1.0
s(lp2527
(g346
I36
tp2528
atp2529
a(S'militar'
p2530
(dp2531
S'NOUN'
p2532
F0.015281
sS'VERB'
p2533
F1.3e-05
sS'ADJ'
p2534
F0.984705
s(lp2535
(g354
I35
tp2536
atp2537
a(S'sigue'
p2538
(dp2539
S'VERB'
p2540
F1.0
s(lp2541
tp2542
a(S'siendo'
p2543
(dp2544
S'VERB'
p2545
F1.0
s(lp2546
(g362
I37
tp2547
atp2548
a(S'el'
p2549
(dp2550
S'PRON'
p2551
F1e-06
sS'DET'
p2552
F0.999999
s(lp2553
(g59
I38
tp2554
atp2555
a(S'\xc3\xbaltimo'
p2556
(dp2557
S'ADJ'
p2558
F1.0
s(lp2559
(g370
I39
tp2560
atp2561
a(S'recurso'
p2562
(dp2563
S'NOUN'
p2564
F1.0
s(lp2565
(g383
I40
tp2566
atp2567
a(g12
(dp2568
g12
F1.0
s(lp2569
(g12
I41
tp2570
atp2571
as.