(dp0
S'fr'
p1
(lp2
(S'par'
p3
(dp4
S'NOUN'
p5
F7.6e-05
sS'ADP'
p6
F0.999924
s(lp7
(S'in'
p8
I0
tp9
atp10
a(S'\xc3\xa9crit'
p11
(dp12
S'VERB'
p13
F0.035327000000000004
sS'NOUN'
p14
F0.964674
s(lp15
(S'writing'
p16
I1
tp17
atp18
a(S'.'
p19
(dp20
g19
F1.0
s(lp21
(g19
I2
tp22
atp23
a(S'-'
p24
(dp25
g19
F1.0
s(lp26
(g24
I3
tp27
atp28
a(S'('
p29
(dp30
g19
F1.0
s(lp31
(g29
I4
tp32
atp33
a(S'pt'
p34
(dp35
S'ADJ'
p36
F0.13429
sS'VERB'
p37
F0.638201
sS'NOUN'
p38
F0.227509
s(lp39
(S'pt'
p40
I5
tp41
atp42
a(S')'
p43
(dp44
g19
F1.0
s(lp45
(g43
I6
tp46
atp47
a(S'la'
p48
(dp49
S'PRON'
p50
F6.9e-05
sS'DET'
p51
F0.999931
sS'NOUN'
p52
F0.0
s(lp53
tp54
a(S'mondialisation'
p55
(dp56
S'NOUN'
p57
F1.0
s(lp58
(S'globalisation'
p59
I8
tp60
atp61
a(S'de'
p62
(dp63
S'ADP'
p64
F1.0
s(lp65
(S'of'
p66
I9
tp67
atp68
a(S"l'"
p69
(dp70
S'ADJ'
p71
F0.160704
sS'VERB'
p72
F0.06480800000000002
sS'NOUN'
p73
F0.774488
s(lp74
(S'the'
p75
I10
tp76
atp77
a(S'\xc3\xa9conomie'
p78
(dp79
S'NOUN'
p80
F1.0
s(lp81
(S'economy'
p82
I11
tp83
atp84
a(S'est'
p85
(dp86
S'VERB'
p87
F0.999886
sS'NOUN'
p88
F0.000114
s(lp89
(S'is'
p90
I12
tp91
atp92
a(S'une'
p93
(dp94
S'NOUN'
p95
F1.2e-05
sS'NUM'
p96
F0.003912
sS'DET'
p97
F0.996076
s(lp98
(S'a'
p99
I13
tp100
atp101
a(S'question'
p102
(dp103
S'NOUN'
p104
F1.0
s(lp105
(S'question'
p106
I14
tp107
atp108
a(S'\xc3\xa0'
p109
(dp110
S'ADP'
p111
F1.0
s(lp112
(S'for'
p113
I15
tp114
atp115
a(S'laquelle'
p116
(dp117
S'PRON'
p118
F1.0
s(lp119
(S'which'
p120
I16
tp121
atp122
a(S"l'"
p123
(dp124
S'ADJ'
p125
F0.006544
sS'VERB'
p126
F0.9727199999999999
sS'NOUN'
p127
F0.020737
s(lp128
tp129
a(S'europe'
p130
(dp131
S'VERB'
p132
F0.21299500000000002
sS'NOUN'
p133
F0.7870060000000001
s(lp134
(S'europe'
p135
I17
tp136
atp137
a(S"n'"
p138
(dp139
S'NOUN'
p140
F0.044224
sS'VERB'
p141
F0.717128
sS'ADJ'
p142
F0.238649
s(lp143
tp144
a(g99
(dp145
S'VERB'
p146
F1.0
s(lp147
(S'has'
p148
I18
tp149
atp150
a(S'pas'
p151
(dp152
S'ADV'
p153
F0.999264
sS'NOUN'
p154
F0.000736
s(lp155
(S'not'
p156
I19
tp157
atp158
a(S'encore'
p159
(dp160
S'ADV'
p161
F1.0
s(lp162
(S'yet'
p163
I20
tp164
atp165
a(S'trouv\xc3\xa9'
p166
(dp167
S'VERB'
p168
F1.0
s(lp169
(S'found'
p170
I21
tp171
atp172
a(S'de'
p173
(dp174
S'ADP'
p175
F1.0
s(lp176
(g99
I22
tp177
atp178
a(S'r\xc3\xa9ponse'
p179
(dp180
S'NOUN'
p181
F1.0
s(lp182
(S'answer'
p183
I26
tp184
atp185
a(S'claire'
p186
(dp187
S'NOUN'
p188
F0.009609
sS'ADJ'
p189
F0.990391
s(lp190
(S'clear'
p191
I23
tp192
atp193
a(S'et'
p194
(dp195
S'CONJ'
p196
F1.0
s(lp197
(S'and'
p198
I24
tp199
atp200
a(S'convaincante'
p201
(dp202
S'ADJ'
p203
F1.0
s(lp204
(S'convincing'
p205
I25
tp206
atp207
a(g19
(dp208
g19
F1.0
s(lp209
(g19
I27
tp210
atp211
asS'en'
p212
(lp213
(g8
(dp214
S'ADV'
p215
F0.002573
sS'PRT'
p216
F0.0
sS'ADP'
p217
F0.997427
s(lp218
(g8
I0
tp219
atp220
a(g16
(dp221
S'VERB'
p222
F0.650532
sS'NOUN'
p223
F0.349468
s(lp224
(g16
I1
tp225
atp226
a(g19
(dp227
g19
F1.0
s(lp228
(g19
I2
tp229
atp230
a(g24
(dp231
g19
F1.0
s(lp232
(g24
I3
tp233
atp234
a(g29
(dp235
g19
F1.0
s(lp236
(g29
I4
tp237
atp238
a(g40
(dp239
S'ADJ'
p240
F0.028724
sS'NOUN'
p241
F0.971276
s(lp242
(g40
I5
tp243
atp244
a(g43
(dp245
g19
F1.0
s(lp246
(g43
I6
tp247
atp248
a(S'the'
p249
(dp250
S'NOUN'
p251
F4e-06
sS'DET'
p252
F0.999996
s(lp253
(g249
I7
tp254
atp255
a(g59
(dp256
S'ADJ'
p257
F0.001856
sS'NOUN'
p258
F0.998144
s(lp259
(g59
I8
tp260
atp261
a(g66
(dp262
S'ADP'
p263
F1.0
s(lp264
(g66
I9
tp265
atp266
a(g75
(dp267
S'NOUN'
p268
F1e-06
sS'DET'
p269
F0.999999
s(lp270
(g75
I10
tp271
atp272
a(g82
(dp273
S'NOUN'
p274
F1.0
s(lp275
(g82
I11
tp276
atp277
a(g90
(dp278
S'VERB'
p279
F1.0
s(lp280
(g90
I12
tp281
atp282
a(g99
(dp283
S'NOUN'
p284
F0.0
sS'DET'
p285
F1.0
s(lp286
(g99
I13
tp287
atp288
a(g106
(dp289
S'VERB'
p290
F0.001416
sS'NOUN'
p291
F0.998585
s(lp292
(g106
I14
tp293
atp294
a(g113
(dp295
S'ADP'
p296
F1.0
s(lp297
(g113
I15
tp298
atp299
a(g120
(dp300
S'DET'
p301
F1.0
s(lp302
(g120
I16
tp303
atp304
a(g135
(dp305
S'ADV'
p306
F0.001013
sS'ADJ'
p307
F2e-06
sS'VERB'
p308
F0.0
sS'NOUN'
p309
F0.998985
s(lp310
(g135
I17
tp311
atp312
a(g148
(dp313
S'VERB'
p314
F1.0
s(lp315
(g148
I18
tp316
atp317
a(g156
(dp318
S'ADV'
p319
F1.0
s(lp320
(g156
I19
tp321
atp322
a(g163
(dp323
S'ADV'
p324
F0.996396
sS'CONJ'
p325
F0.003583
sS'ADP'
p326
F2.1e-05
s(lp327
(g163
I20
tp328
atp329
a(g170
(dp330
S'VERB'
p331
F0.999856
sS'ADJ'
p332
F0.000144
s(lp333
(g170
I21
tp334
atp335
a(g99
(dp336
S'NOUN'
p337
F0.0
sS'DET'
p338
F1.0
s(lp339
(g99
I22
tp340
atp341
a(g191
(dp342
S'VERB'
p343
F0.000337
sS'ADJ'
p344
F0.999663
s(lp345
(g191
I23
tp346
atp347
a(g198
(dp348
S'CONJ'
p349
F0.999998
sS'NOUN'
p350
F2e-06
s(lp351
(g198
I24
tp352
atp353
a(g205
(dp354
S'NOUN'
p355
F0.013539
sS'VERB'
p356
F0.221626
sS'ADJ'
p357
F0.764834
s(lp358
(g205
I25
tp359
atp360
a(g183
(dp361
S'VERB'
p362
F0.005704
sS'NOUN'
p363
F0.994296
s(lp364
(g183
I26
tp365
atp366
a(g19
(dp367
g19
F1.0
s(lp368
(g19
I27
tp369
atp370
asS'nl'
p371
(lp372
(S'schriftelijk'
p373
(dp374
S'ADJ'
p375
F1.0
s(lp376
(g16
I1
tp377
atp378
a(g19
(dp379
g19
F1.0
s(lp380
(g19
I2
tp381
atp382
a(g24
(dp383
g19
F1.0
s(lp384
(g24
I3
tp385
atp386
a(g29
(dp387
g19
F1.0
s(lp388
(g29
I4
tp389
atp390
a(S'pt'
p391
(dp392
S'ADJ'
p393
F0.06221
sS'NOUN'
p394
F0.93779
s(lp395
(g40
I5
tp396
atp397
a(g43
(dp398
g19
F1.0
s(lp399
(g43
I6
tp400
atp401
a(S'de'
p402
(dp403
S'DET'
p404
F1.0
s(lp405
(g249
I7
tp406
atp407
a(S'globalisering'
p408
(dp409
S'NOUN'
p410
F1.0
s(lp411
(g59
I8
tp412
atp413
a(S'van'
p414
(dp415
S'ADP'
p416
F1.0
s(lp417
(g66
I9
tp418
atp419
a(S'de'
p420
(dp421
S'DET'
p422
F1.0
s(lp423
(g75
I10
tp424
atp425
a(S'economie'
p426
(dp427
S'NOUN'
p428
F1.0
s(lp429
(g82
I11
tp430
atp431
a(S'is'
p432
(dp433
S'VERB'
p434
F1.0
s(lp435
(g90
I12
tp436
atp437
a(S'een'
p438
(dp439
S'ADJ'
p440
F2e-06
sS'NUM'
p441
F0.0
sS'DET'
p442
F0.999997
sS'PRON'
p443
F1e-06
s(lp444
(g99
I13
tp445
atp446
a(S'vraagstuk'
p447
(dp448
S'NOUN'
p449
F1.0
s(lp450
(g106
I14
tp451
atp452
a(S'waarop'
p453
(dp454
S'ADV'
p455
F1.0
s(lp456
(g120
I16
tp457
atp458
a(S'europa'
p459
(dp460
S'NOUN'
p461
F1.0
s(lp462
(g135
I17
tp463
atp464
a(S'tot'
p465
(dp466
S'CONJ'
p467
F0.000132
sS'ADP'
p468
F0.999868
s(lp469
(g148
I18
tp470
atp471
a(S'op'
p472
(dp473
S'ADV'
p474
F0.666521
sS'ADJ'
p475
F8e-06
sS'ADP'
p476
F0.333471
s(lp477
tp478
a(S'heden'
p479
(dp480
S'ADV'
p481
F0.998714
sS'NOUN'
p482
F0.001286
s(lp483
tp484
a(S'nog'
p485
(dp486
S'ADV'
p487
F1.0
s(lp488
(g163
I20
tp489
atp490
a(S'geen'
p491
(dp492
S'PRON'
p493
F0.999992
sS'DET'
p494
F8e-06
s(lp495
(g156
I19
tp496
atp497
a(S'duidelijk'
p498
(dp499
S'ADJ'
p500
F1.0
s(lp501
(g191
I23
tp502
atp503
a(S'en'
p504
(dp505
S'CONJ'
p506
F1.0
s(lp507
(g198
I24
tp508
atp509
a(S'overtuigend'
p510
(dp511
S'VERB'
p512
F0.416775
sS'ADJ'
p513
F0.583225
s(lp514
(g205
I25
tp515
atp516
a(S'antwoord'
p517
(dp518
S'VERB'
p519
F1e-06
sS'NOUN'
p520
F0.999999
s(lp521
(g183
I26
tp522
atp523
a(S'heeft'
p524
(dp525
S'VERB'
p526
F1.0
s(lp527
tp528
a(S'gevonden'
p529
(dp530
S'VERB'
p531
F1.0
s(lp532
(g170
I21
tp533
atp534
a(g19
(dp535
g19
F1.0
s(lp536
(g19
I27
tp537
atp538
asS'de'
p539
(lp540
(S'schriftlich'
p541
(dp542
S'ADJ'
p543
F1.0
s(lp544
(g16
I1
tp545
atp546
a(g19
(dp547
g19
F1.0
s(lp548
(g19
I2
tp549
atp550
a(g24
(dp551
g19
F1.0
s(lp552
(g24
I3
tp553
atp554
a(g29
(dp555
g19
F1.0
s(lp556
(g29
I4
tp557
atp558
a(S'pt'
p559
(dp560
S'ADJ'
p561
F0.006315
sS'NOUN'
p562
F0.987444
s(lp563
(g40
I5
tp564
atp565
a(g43
(dp566
g19
F1.0
s(lp567
(g43
I6
tp568
atp569
a(S'die'
p570
(dp571
S'PRON'
p572
F0.015928
sS'DET'
p573
F0.980943
s(lp574
(g249
I7
tp575
atp576
a(S'globalisierung'
p577
(dp578
S'ADJ'
p579
F0.014531
sS'NOUN'
p580
F0.971903
s(lp581
(g59
I8
tp582
atp583
a(S'der'
p584
(dp585
S'PRON'
p586
F2.6e-05
sS'DET'
p587
F0.999953
s(lp588
(g75
I10
tp589
atp590
a(S'wirtschaft'
p591
(dp592
S'ADJ'
p593
F0.000238
sS'NOUN'
p594
F0.999553
s(lp595
(g82
I11
tp596
atp597
a(S'ist'
p598
(dp599
S'VERB'
p600
F1.0
s(lp601
(g90
I12
tp602
atp603
a(S'ein'
p604
(dp605
S'NUM'
p606
F0.001008
sS'DET'
p607
F0.998992
s(lp608
(g99
I13
tp609
atp610
a(S'problem'
p611
(dp612
S'ADJ'
p613
F0.133419
sS'NOUN'
p614
F0.816942
s(lp615
(g106
I14
tp616
atp617
a(S','
p618
(dp619
g19
F1.0
s(lp620
tp621
a(S'f\xc3\xbcr'
p622
(dp623
S'ADP'
p624
F1.0
s(lp625
(g113
I15
tp626
atp627
a(S'das'
p628
(dp629
S'PRON'
p630
F0.01836
sS'DET'
p631
F0.981412
s(lp632
(g120
I16
tp633
atp634
a(S'europa'
p635
(dp636
S'ADJ'
p637
F0.086009
sS'NOUN'
p638
F0.760261
s(lp639
(g135
I17
tp640
atp641
a(S'bisher'
p642
(dp643
S'ADV'
p644
F1.0
s(lp645
(g148
I18
tp646
atp647
a(S'noch'
p648
(dp649
S'ADV'
p650
F0.998856
sS'CONJ'
p651
F0.001144
s(lp652
(g163
I20
tp653
atp654
a(S'keine'
p655
(dp656
S'PRON'
p657
F1.0
s(lp658
(g156
I19
tp659
atp660
a(S'eindeutige'
p661
(dp662
S'ADJ'
p663
F1.0
s(lp664
(g191
I23
tp665
atp666
a(S'und'
p667
(dp668
S'CONJ'
p669
F1.0
s(lp670
(g198
I24
tp671
atp672
a(S'\xc3\xbcberzeugende'
p673
(dp674
S'ADJ'
p675
F1.0
s(lp676
(g205
I25
tp677
atp678
a(S'antwort'
p679
(dp680
S'ADJ'
p681
F1.9e-05
sS'NOUN'
p682
F0.999968
s(lp683
(g183
I26
tp684
atp685
a(S'finden'
p686
(dp687
S'VERB'
p688
F1.0
s(lp689
tp690
a(S'konnte'
p691
(dp692
S'VERB'
p693
F1.0
s(lp694
(g170
I21
tp695
atp696
a(g19
(dp697
g19
F1.0
s(lp698
(g19
I27
tp699
atp700
asS'it'
p701
(lp702
(S'per'
p703
(dp704
S'CONJ'
p705
F0.030106
sS'ADP'
p706
F0.969894
s(lp707
(g8
I0
tp708
atp709
a(S'iscritto'
p710
(dp711
S'NOUN'
p712
F0.123774
sS'VERB'
p713
F0.030022
sS'ADJ'
p714
F0.846204
s(lp715
(g16
I1
tp716
atp717
a(g19
(dp718
g19
F1.0
s(lp719
(g19
I2
tp720
atp721
a(g24
(dp722
S'X'
p723
F1.8e-05
sg19
F0.999982
s(lp724
(g24
I3
tp725
atp726
a(g29
(dp727
g19
F1.0
s(lp728
(g29
I4
tp729
atp730
a(S'pt'
p731
(dp732
S'NOUN'
p733
F1.0
s(lp734
(g40
I5
tp735
atp736
a(g43
(dp737
g19
F1.0
s(lp738
(g43
I6
tp739
atp740
a(S'la'
p741
(dp742
S'PRON'
p743
F0.000686
sS'DET'
p744
F0.999314
s(lp745
(g249
I7
tp746
atp747
a(S'globalizzazione'
p748
(dp749
S'NOUN'
p750
F1.0
s(lp751
(g59
I8
tp752
atp753
a(S"dell'"
p754
(dp755
S'ADJ'
p756
F0.040682
sS'VERB'
p757
F0.006560999999999999
sS'NOUN'
p758
F0.952757
s(lp759
(g66
I9
tp760
atp761
a(S'economia'
p762
(dp763
S'NOUN'
p764
F1.0
s(lp765
(g82
I11
tp766
atp767
a(S'\xc3\xa8'
p768
(dp769
S'VERB'
p770
F1.0
s(lp771
(g90
I12
tp772
atp773
a(S'un'
p774
(dp775
S'PRON'
p776
F0.001159
sS'DEF'
p777
F0.998841
s(lp778
(g99
I13
tp779
atp780
a(S'problema'
p781
(dp782
S'NOUN'
p783
F1.0
s(lp784
(g106
I14
tp785
atp786
a(g99
(dp787
S'CONJ'
p788
F0.006358
sS'ADP'
p789
F0.993642
s(lp790
(g113
I15
tp791
atp792
a(S'cui'
p793
(dp794
S'PRON'
p795
F1.0
s(lp796
(g120
I16
tp797
atp798
a(S"l'"
p799
(dp800
S'NOUN'
p801
F0.002282
sS'VERB'
p802
F0.9884880000000001
sS'ADJ'
p803
F0.00923
s(lp804
tp805
a(S'europa'
p806
(dp807
S'NOUN'
p808
F0.315662
sS'VERB'
p809
F0.291839
sS'ADJ'
p810
F0.3925
s(lp811
(g135
I17
tp812
atp813
a(S'non'
p814
(dp815
S'ADV'
p816
F1.0
s(lp817
(g156
I19
tp818
atp819
a(S'ha'
p820
(dp821
S'VERB'
p822
F1.0
s(lp823
(g148
I18
tp824
atp825
a(S'ancora'
p826
(dp827
S'ADV'
p828
F0.997774
sS'VERB'
p829
F0.002178
sS'NOUN'
p830
F4.9e-05
s(lp831
(g163
I20
tp832
atp833
a(S'trovato'
p834
(dp835
S'VERB'
p836
F1.0
s(lp837
(g170
I21
tp838
atp839
a(S'una'
p840
(dp841
S'PRON'
p842
F1.2e-05
sS'DEF'
p843
F0.999988
s(lp844
(g99
I22
tp845
atp846
a(S'risposta'
p847
(dp848
S'VERB'
p849
F0.000289
sS'NOUN'
p850
F0.999711
s(lp851
(g183
I26
tp852
atp853
a(S'chiara'
p854
(dp855
S'NOUN'
p856
F0.036468
sS'ADJ'
p857
F0.963532
s(lp858
(g191
I23
tp859
atp860
a(S'e'
p861
(dp862
S'CONJ'
p863
F1.0
s(lp864
(g198
I24
tp865
atp866
a(S'convincente'
p867
(dp868
S'VERB'
p869
F0.033906
sS'ADJ'
p870
F0.966094
s(lp871
(g205
I25
tp872
atp873
a(g19
(dp874
g19
F1.0
s(lp875
(g19
I27
tp876
atp877
asS'sk'
p878
(lp879
(S'globaliz\xc3\xa1cia'
p880
(dp881
S'NOUN'
p882
F1.0
s(lp883
(g59
I8
tp884
atp885
a(S'hospod\xc3\xa1rstva'
p886
(dp887
S'NOUN'
p888
F1.0
s(lp889
(g82
I11
tp890
atp891
a(S'je'
p892
(dp893
g723
F0.00019899999999999999
sS'VERB'
p894
F0.999716
sS'PRON'
p895
F8.5e-05
s(lp896
(g90
I12
tp897
atp898
a(S'ot\xc3\xa1zkou'
p899
(dp900
S'NOUN'
p901
F1.0
s(lp902
(g106
I14
tp903
atp904
a(g618
(dp905
g19
F1.0
s(lp906
tp907
a(S'na'
p908
(dp909
g723
F6.1000000000000005e-05
sS'CONJ'
p910
F0.000625
sS'ADP'
p911
F0.999293
sS'PRT'
p912
F2.1e-05
s(lp913
(g113
I15
tp914
atp915
a(S'ktor\xc3\xba'
p916
(dp917
S'PRON'
p918
F1.0
s(lp919
(g120
I16
tp920
atp921
a(S'doposia\xc4\xbe'
p922
(dp923
S'ADV'
p924
F0.634644
sS'PRON'
p925
F0.365356
s(lp926
(g163
I20
tp927
atp928
a(S'eur\xc3\xb3pa'
p929
(dp930
S'ADJ'
p931
F0.037556
sS'VERB'
p932
F5e-05
sS'NOUN'
p933
F0.962395
s(lp934
(g135
I17
tp935
atp936
a(S'nena\xc5\xa1la'
p937
(dp938
S'VERB'
p939
F1.0
s(lp940
(g170
I21
tp941
atp942
a(S'jasn\xc3\xba'
p943
(dp944
S'ADJ'
p945
F1.0
s(lp946
(g191
I23
tp947
atp948
a(g99
(dp949
g723
F0.000636
sS'CONJ'
p950
F0.997733
sS'NOUN'
p951
F0.001516
sS'ADP'
p952
F0.000109
sS'PRT'
p953
F5e-06
s(lp954
(g198
I24
tp955
atp956
a(S'presved\xc4\x8div\xc3\xba'
p957
(dp958
S'ADJ'
p959
F1.0
s(lp960
(g205
I25
tp961
atp962
a(S'odpove\xc4\x8f'
p963
(dp964
S'NOUN'
p965
F1.0
s(lp966
(g183
I26
tp967
atp968
a(g19
(dp969
g19
F1.0
s(lp970
(g19
I27
tp971
atp972
asS'pl'
p973
(lp974
(S'globalizacja'
p975
(dp976
S'ADJ'
p977
F3.9e-05
sS'VERB'
p978
F4.3e-05
sS'NOUN'
p979
F0.999918
s(lp980
(g59
I8
tp981
atp982
a(S'gospodarki'
p983
(dp984
S'NOUN'
p985
F1.0
s(lp986
(g82
I11
tp987
atp988
a(S'to'
p989
(dp990
S'NOUN'
p991
F0.20708800000000002
sS'ADP'
p992
F2e-06
sS'PRT'
p993
F0.023199
sg723
F1e-06
sS'CONJ'
p994
F0.312032
sS'ADJ'
p995
F0.45767899999999995
s(lp996
(g90
I12
tp997
atp998
a(S'zagadnienie'
p999
(dp1000
S'NOUN'
p1001
F1.0
s(lp1002
(g106
I14
tp1003
atp1004
a(g618
(dp1005
g723
F0.0
sg19
F1.0
s(lp1006
tp1007
a(S'na'
p1008
(dp1009
g723
F0.000546
sS'VERB'
p1010
F0.00040899999999999997
sS'NOUN'
p1011
F0.001137
sS'ADP'
p1012
F0.997713
sS'PRT'
p1013
F0.000195
s(lp1014
(g113
I15
tp1015
atp1016
a(S'kt\xc3\xb3re'
p1017
(dp1018
S'ADJ'
p1019
F1.000001
s(lp1020
(g120
I16
tp1021
atp1022
a(S'europa'
p1023
(dp1024
S'ADJ'
p1025
F0.008395
sS'VERB'
p1026
F0.303326
sS'NOUN'
p1027
F0.6882799999999999
s(lp1028
(g135
I17
tp1029
atp1030
a(S'nie'
p1031
(dp1032
S'ADV'
p1033
F2.5e-05
sS'PRT'
p1034
F0.982001
sS'CONJ'
p1035
F0.017954
sS'NOUN'
p1036
F6e-06
sS'PRON'
p1037
F1.4e-05
s(lp1038
(g156
I19
tp1039
atp1040
a(S'odnalaz\xc5\x82a'
p1041
(dp1042
S'VERB'
p1043
F1.0
s(lp1044
(g170
I21
tp1045
atp1046
a(S'jeszcze'
p1047
(dp1048
S'PRT'
p1049
F0.997439
sS'CONJ'
p1050
F0.002561
s(lp1051
(g163
I20
tp1052
atp1053
a(S'jasnej'
p1054
(dp1055
S'ADJ'
p1056
F1.0
s(lp1057
(g191
I23
tp1058
atp1059
a(S'i'
p1060
(dp1061
S'PRT'
p1062
F0.006688
sS'CONJ'
p1063
F0.993153
sS'PRON'
p1064
F6e-06
sS'NOUN'
p1065
F3.7e-05
sg723
F0.000116
s(lp1066
(g198
I24
tp1067
atp1068
a(S'przekonuj\xc4\x85cej'
p1069
(dp1070
S'ADV'
p1071
F0.004339
sS'NOUN'
p1072
F0.021812999999999996
sS'VERB'
p1073
F0.006789000000000001
sS'ADJ'
p1074
F0.967019
sS'PRT'
p1075
F4.1e-05
s(lp1076
(g205
I25
tp1077
atp1078
a(S'odpowiedzi'
p1079
(dp1080
S'NOUN'
p1081
F1.000001
s(lp1082
(g183
I26
tp1083
atp1084
a(g19
(dp1085
g19
F1.0
s(lp1086
(g19
I27
tp1087
atp1088
asS'sl'
p1089
(lp1090
(S'v'
p1091
(dp1092
S'ADP'
p1093
F1.0
s(lp1094
(g8
I0
tp1095
atp1096
a(S'pisni'
p1097
(dp1098
S'ADJ'
p1099
F1.0
s(lp1100
tp1101
a(S'obliki'
p1102
(dp1103
S'NOUN'
p1104
F1.0
s(lp1105
(g16
I1
tp1106
atp1107
a(g19
(dp1108
g19
F1.0
s(lp1109
(g19
I2
tp1110
atp1111
a(g24
(dp1112
g19
F1.0
s(lp1113
(g24
I3
tp1114
atp1115
a(g29
(dp1116
g19
F1.0
s(lp1117
(g29
I4
tp1118
atp1119
a(S'pt'
p1120
(dp1121
S'NOUN'
p1122
F1.0
s(lp1123
(g40
I5
tp1124
atp1125
a(g43
(dp1126
g19
F1.0
s(lp1127
(g43
I6
tp1128
atp1129
a(S'gospodarska'
p1130
(dp1131
S'ADJ'
p1132
F1.0
s(lp1133
(g82
I11
tp1134
atp1135
a(S'globalizacija'
p1136
(dp1137
S'NOUN'
p1138
F1.0
s(lp1139
(g59
I8
tp1140
atp1141
a(S'je'
p1142
(dp1143
S'PRON'
p1144
F5.7e-05
sS'VERB'
p1145
F0.999916
sg723
F2.7e-05
s(lp1146
(g90
I12
tp1147
atp1148
a(S'vpra\xc5\xa1anje'
p1149
(dp1150
S'NOUN'
p1151
F1.0
s(lp1152
(g106
I14
tp1153
atp1154
a(g618
(dp1155
g19
F1.0
s(lp1156
tp1157
a(S'na'
p1158
(dp1159
S'ADP'
p1160
F1.0
s(lp1161
(g113
I15
tp1162
atp1163
a(S'katero'
p1164
(dp1165
S'PRON'
p1166
F1.0
s(lp1167
(g120
I16
tp1168
atp1169
a(S'evropa'
p1170
(dp1171
S'ADV'
p1172
F0.002531
sS'ADJ'
p1173
F0.0010580000000000001
sS'VERB'
p1174
F0.029488
sS'NOUN'
p1175
F0.9663520000000001
sg723
F0.000572
s(lp1176
(g135
I17
tp1177
atp1178
a(S'\xc5\xa1e'
p1179
(dp1180
S'PRT'
p1181
F1.0
s(lp1182
(g163
I20
tp1183
atp1184
a(S'ni'
p1185
(dp1186
S'VERB'
p1187
F1.0
s(lp1188
(g156
I19
tp1189
atp1190
a(S'jasno'
p1191
(dp1192
S'ADV'
p1193
F0.11129
sS'ADJ'
p1194
F0.888711
s(lp1195
(g191
I23
tp1196
atp1197
a(S'in'
p1198
(dp1199
S'ADV'
p1200
F0.000203
sg723
F2e-06
sS'CONJ'
p1201
F0.999791
sS'NOUN'
p1202
F4e-06
s(lp1203
(g198
I24
tp1204
atp1205
a(S'prepri\xc4\x8dljivo'
p1206
(dp1207
S'ADV'
p1208
F0.988953
sS'ADJ'
p1209
F0.011047
s(lp1210
(g205
I25
tp1211
atp1212
a(S'odgovorila'
p1213
(dp1214
S'VERB'
p1215
F1.0
s(lp1216
(g183
I26
tp1217
atp1218
a(g19
(dp1219
g19
F1.0
s(lp1220
(g19
I27
tp1221
atp1222
asS'es'
p1223
(lp1224
(S'por'
p1225
(dp1226
S'ADP'
p1227
F1.0
s(lp1228
tp1229
a(S'escrito'
p1230
(dp1231
S'VERB'
p1232
F0.31338
sS'ADJ'
p1233
F0.68662
s(lp1234
(g16
I1
tp1235
atp1236
a(g19
(dp1237
g19
F1.0
s(lp1238
(g19
I2
tp1239
atp1240
a(g24
(dp1241
g19
F1.0
s(lp1242
(g24
I3
tp1243
atp1244
a(g29
(dp1245
g19
F1.0
s(lp1246
(g29
I4
tp1247
atp1248
a(S'pt'
p1249
(dp1250
S'ADJ'
p1251
F0.007217
sS'VERB'
p1252
F0.003829
sS'NOUN'
p1253
F0.988953
s(lp1254
(g40
I5
tp1255
atp1256
a(g43
(dp1257
g19
F1.0
s(lp1258
(g43
I6
tp1259
atp1260
a(S'la'
p1261
(dp1262
g723
F3.7e-05
sS'PRON'
p1263
F0.0
sS'DET'
p1264
F0.999962
sS'NOUN'
p1265
F1e-06
s(lp1266
(g249
I7
tp1267
atp1268
a(S'globalizaci\xc3\xb3n'
p1269
(dp1270
S'NOUN'
p1271
F1.0
s(lp1272
(g59
I8
tp1273
atp1274
a(S'de'
p1275
(dp1276
g723
F0.0
sS'CONJ'
p1277
F1.7e-05
sS'ADP'
p1278
F0.999983
s(lp1279
(g66
I9
tp1280
atp1281
a(S'la'
p1282
(dp1283
g723
F0.0
sS'PRON'
p1284
F0.0
sS'DET'
p1285
F0.999999
sS'NOUN'
p1286
F0.0
s(lp1287
(g75
I10
tp1288
atp1289
a(S'econom\xc3\xada'
p1290
(dp1291
S'NOUN'
p1292
F1.0
s(lp1293
(g82
I11
tp1294
atp1295
a(S'es'
p1296
(dp1297
S'VERB'
p1298
F1.0
s(lp1299
(g90
I12
tp1300
atp1301
a(S'una'
p1302
(dp1303
S'DET'
p1304
F1.0
s(lp1305
(g99
I13
tp1306
atp1307
a(S'cuesti\xc3\xb3n'
p1308
(dp1309
S'NOUN'
p1310
F1.0
s(lp1311
(g106
I14
tp1312
atp1313
a(S'para'
p1314
(dp1315
S'CONJ'
p1316
F0.000664
sS'ADP'
p1317
F0.999336
s(lp1318
(g113
I15
tp1319
atp1320
a(S'la'
p1321
(dp1322
S'NOUN'
p1323
F2.7e-05
sS'DET'
p1324
F0.999968
sg723
F0.0
sS'PRON'
p1325
F4e-06
s(lp1326
tp1327
a(S'que'
p1328
(dp1329
g723
F4.2e-05
sS'CONJ'
p1330
F0.999958
s(lp1331
(g120
I16
tp1332
atp1333
a(S'europa'
p1334
(dp1335
S'NOUN'
p1336
F1.0
s(lp1337
(g135
I17
tp1338
atp1339
a(S'no'
p1340
(dp1341
S'ADV'
p1342
F0.999943
sg723
F5.7e-05
s(lp1343
(g156
I19
tp1344
atp1345
a(S'ha'
p1346
(dp1347
S'VERB'
p1348
F1.0
s(lp1349
(g148
I18
tp1350
atp1351
a(S'encontrado'
p1352
(dp1353
S'VERB'
p1354
F1.0
s(lp1355
(g170
I21
tp1356
atp1357
a(S'todav\xc3\xada'
p1358
(dp1359
S'ADV'
p1360
F1.0
s(lp1361
(g163
I20
tp1362
atp1363
a(S'una'
p1364
(dp1365
S'DET'
p1366
F1.0
s(lp1367
(g99
I22
tp1368
atp1369
a(S'respuesta'
p1370
(dp1371
S'NOUN'
p1372
F1.0
s(lp1373
(g183
I26
tp1374
atp1375
a(S'clara'
p1376
(dp1377
S'ADJ'
p1378
F1.0
s(lp1379
(g191
I23
tp1380
atp1381
a(S'y'
p1382
(dp1383
g723
F0.000656
sS'CONJ'
p1384
F0.999344
s(lp1385
(g198
I24
tp1386
atp1387
a(S'convincente'
p1388
(dp1389
S'ADJ'
p1390
F1.0
s(lp1391
(g205
I25
tp1392
atp1393
a(g19
(dp1394
g19
F1.0
s(lp1395
(g19
I27
tp1396
atp1397
as.