(dp0
S'fr'
p1
(lp2
(S'en'
p3
(dp4
S'PRON'
p5
F0.006872
sS'ADP'
p6
F0.993128
s(lp7
(S'in'
p8
I0
tp9
atp10
a(S'r\xc3\xa9alit\xc3\xa9'
p11
(dp12
S'NOUN'
p13
F1.0
s(lp14
(S'fact'
p15
I1
tp16
atp17
a(S','
p18
(dp19
S'.'
p20
F1.0
s(lp21
(g18
I2
tp22
atp23
a(S'il'
p24
(dp25
S'PRON'
p26
F1.0
s(lp27
tp28
a(S'est'
p29
(dp30
S'VERB'
p31
F0.999978
sS'NOUN'
p32
F2.2e-05
s(lp33
(S'is'
p34
I7
tp35
atp36
a(S'vital'
p37
(dp38
S'ADJ'
p39
F1.0
s(lp40
(S'vital'
p41
I8
tp42
atp43
a(S"d'"
p44
(dp45
S'ADJ'
p46
F0.029663
sS'VERB'
p47
F0.37283
sS'NOUN'
p48
F0.597507
s(lp49
tp50
a(S'acc\xc3\xa9l\xc3\xa9rer'
p51
(dp52
S'VERB'
p53
F1.0
s(lp54
(S'accelerating'
p55
I3
tp56
atp57
a(S'le'
p58
(dp59
S'PRON'
p60
F3.4e-05
sS'DET'
p61
F0.999966
s(lp62
(S'the'
p63
I4
tp64
atp65
a(S'projet'
p66
(dp67
S'NOUN'
p68
F1.0
s(lp69
(S'project'
p70
I6
tp71
atp72
a(S'nabucco'
p73
(dp74
S'NOUN'
p75
F1.0
s(lp76
(S'nabucco'
p77
I5
tp78
atp79
a(g20
(dp80
g20
F1.0
s(lp81
(g20
I9
tp82
atp83
asS'en'
p84
(lp85
(g8
(dp86
S'ADV'
p87
F0.000791
sS'PRT'
p88
F0.0
sS'ADP'
p89
F0.999209
s(lp90
(g8
I0
tp91
atp92
a(g15
(dp93
S'NOUN'
p94
F1.0
s(lp95
(g15
I1
tp96
atp97
a(g18
(dp98
g20
F1.0
s(lp99
(g18
I2
tp100
atp101
a(g55
(dp102
S'VERB'
p103
F0.999433
sS'ADJ'
p104
F0.000567
s(lp105
(g55
I3
tp106
atp107
a(g63
(dp108
S'NOUN'
p109
F3e-06
sS'DET'
p110
F0.999997
s(lp111
(g63
I4
tp112
atp113
a(g77
(dp114
S'ADV'
p115
F3.3e-05
sS'ADJ'
p116
F0.018719
sS'VERB'
p117
F0.0005799999999999999
sS'NOUN'
p118
F0.980668
s(lp119
(g77
I5
tp120
atp121
a(g70
(dp122
S'VERB'
p123
F0.000742
sS'NOUN'
p124
F0.999258
s(lp125
(g70
I6
tp126
atp127
a(g34
(dp128
S'VERB'
p129
F1.0
s(lp130
(g34
I7
tp131
atp132
a(g41
(dp133
S'ADJ'
p134
F1.0
s(lp135
(g41
I8
tp136
atp137
a(g20
(dp138
g20
F1.0
s(lp139
(g20
I9
tp140
atp141
asS'nl'
p142
(lp143
(S'meer'
p144
(dp145
S'ADV'
p146
F0.998743
sS'NUM'
p147
F0.001206
sS'NOUN'
p148
F8e-06
sS'VERB'
p149
F4.3e-05
s(lp150
tp151
a(S'haast'
p152
(dp153
S'ADV'
p154
F0.968823
sS'VERB'
p155
F0.026519
sS'NOUN'
p156
F0.004658
s(lp157
tp158
a(S'maken'
p159
(dp160
S'VERB'
p161
F0.9999480000000001
sS'NOUN'
p162
F5.2e-05
s(lp163
(g55
I3
tp164
atp165
a(S'met'
p166
(dp167
S'ADP'
p168
F1.0
s(lp169
(g8
I0
tp170
atp171
a(S'het'
p172
(dp173
S'PRON'
p174
F0.000991
sS'DET'
p175
F0.999009
s(lp176
(g63
I4
tp177
atp178
a(S'nabucco-project'
p179
(dp180
S'ADJ'
p181
F0.013002
sS'NOUN'
p182
F0.986998
s(lp183
(g77
I5
tp184
atp185
a(S'is'
p186
(dp187
S'VERB'
p188
F1.0
s(lp189
(g34
I7
tp190
atp191
a(S'werkelijk'
p192
(dp193
S'ADV'
p194
F0.031984
sS'ADJ'
p195
F0.968016
s(lp196
(g41
I8
tp197
atp198
a(S'van'
p199
(dp200
S'ADP'
p201
F1.0
s(lp202
(g41
I8
tp203
atp204
a(S'cruciaal'
p205
(dp206
S'ADJ'
p207
F1.0
s(lp208
tp209
a(S'belang'
p210
(dp211
S'NOUN'
p212
F1.0
s(lp213
(g41
I8
tp214
atp215
a(g20
(dp216
g20
F1.0
s(lp217
(g20
I9
tp218
atp219
asS'de'
p220
(lp221
(S'die'
p222
(dp223
S'PRON'
p224
F0.001164
sS'DET'
p225
F0.998507
s(lp226
tp227
a(S'beschleunigung'
p228
(dp229
S'ADJ'
p230
F9.3e-05
sS'NOUN'
p231
F0.999781
s(lp232
(g55
I3
tp233
atp234
a(S'des'
p235
(dp236
S'DET'
p237
F1.0
s(lp238
(g63
I4
tp239
atp240
a(S'nabucco-projektes'
p241
(dp242
S'NOUN'
p243
F0.363236
sS'ADJ'
p244
F0.636687
s(lp245
(g77
I5
tp246
atp247
a(S'ist'
p248
(dp249
S'VERB'
p250
F1.0
s(lp251
(g34
I7
tp252
atp253
a(S'in'
p254
(dp255
S'ADP'
p256
F1.0
s(lp257
(g8
I0
tp258
atp259
a(S'der'
p260
(dp261
S'PRON'
p262
F0.239488
sS'DET'
p263
F0.757323
s(lp264
tp265
a(S'tat'
p266
(dp267
S'VERB'
p268
F1.0
s(lp269
(g15
I1
tp270
atp271
a(S'grundlegend'
p272
(dp273
S'ADJ'
p274
F1.0
s(lp275
(g41
I8
tp276
atp277
a(g20
(dp278
g20
F1.0
s(lp279
(g20
I9
tp280
atp281
asS'it'
p282
(lp283
(S'accelerare'
p284
(dp285
S'VERB'
p286
F1.0
s(lp287
(g55
I3
tp288
atp289
a(S'il'
p290
(dp291
S'DET'
p292
F1.0
s(lp293
(g63
I4
tp294
atp295
a(S'processo'
p296
(dp297
S'VERB'
p298
F0.000212
sS'NOUN'
p299
F0.999788
s(lp300
(g70
I6
tp301
atp302
a(S'nabucco'
p303
(dp304
S'NOUN'
p305
F1.0
s(lp306
(g77
I5
tp307
atp308
a(S'\xc3\xa8'
p309
(dp310
S'VERB'
p311
F1.0
s(lp312
tp313
a(S'dunque'
p314
(dp315
S'ADV'
p316
F0.999644
sS'NOUN'
p317
F0.000356
s(lp318
(g34
I7
tp319
atp320
a(S'fondamentale'
p321
(dp322
S'ADJ'
p323
F1.0
s(lp324
(g41
I8
tp325
atp326
a(g20
(dp327
g20
F1.0
s(lp328
(g20
I9
tp329
atp330
asS'sk'
p331
(lp332
(S'je'
p333
(dp334
S'PRON'
p335
F7.8e-05
sS'VERB'
p336
F0.999861
sS'X'
p337
F6.2e-05
s(lp338
(g34
I7
tp339
atp340
a(S'naozaj'
p341
(dp342
g337
F1.0
s(lp343
(g15
I1
tp344
atp345
a(S'nevyhnutn\xc3\xa9'
p346
(dp347
S'ADJ'
p348
F1.0
s(lp349
(g41
I8
tp350
atp351
a(S'ur\xc3\xbdchli\xc5\xa5'
p352
(dp353
S'VERB'
p354
F1.0
s(lp355
(g55
I3
tp356
atp357
a(S'projekt'
p358
(dp359
S'NOUN'
p360
F1.0
s(lp361
(g70
I6
tp362
atp363
a(S'nabucco'
p364
(dp365
S'ADV'
p366
F0.958989
sg337
F0.013115
sS'NOUN'
p367
F0.027896
s(lp368
(g77
I5
tp369
atp370
a(g20
(dp371
g20
F1.0
s(lp372
(g20
I9
tp373
atp374
asS'pl'
p375
(lp376
(S'w'
p377
(dp378
S'ADJ'
p379
F0.0
sg337
F0.0
sS'NOUN'
p380
F0.0
sS'ADP'
p381
F0.999999
s(lp382
(g8
I0
tp383
atp384
a(S'istocie'
p385
(dp386
S'NOUN'
p387
F1.0
s(lp388
(g15
I1
tp389
atp390
a(S'kluczow\xc4\x85'
p391
(dp392
S'ADJ'
p393
F1.0
s(lp394
tp395
a(S'spraw\xc4\x85'
p396
(dp397
S'NOUN'
p398
F1.0
s(lp399
(g41
I8
tp400
atp401
a(S'jest'
p402
(dp403
S'VERB'
p404
F1.0
s(lp405
(g34
I7
tp406
atp407
a(S'przyspieszenie'
p408
(dp409
S'VERB'
p410
F0.968591
sS'NOUN'
p411
F0.031409
s(lp412
(g55
I3
tp413
atp414
a(S'projektu'
p415
(dp416
S'NOUN'
p417
F1.0
s(lp418
(g70
I6
tp419
atp420
a(S'nabuvcco'
p421
(dp422
S'ADV'
p423
F0.620782
sS'ADJ'
p424
F0.004961999999999999
sS'VERB'
p425
F0.009346
sS'NOUN'
p426
F0.36491
s(lp427
(g77
I5
tp428
atp429
a(g20
(dp430
g20
F1.0
s(lp431
(g20
I9
tp432
atp433
asS'sl'
p434
(lp435
(S'pospe\xc5\xa1itev'
p436
(dp437
S'NOUN'
p438
F1.0
s(lp439
(g55
I3
tp440
atp441
a(S'projekta'
p442
(dp443
S'NOUN'
p444
F1.0
s(lp445
(g70
I6
tp446
atp447
a(S'nabucco'
p448
(dp449
S'ADV'
p450
F0.010083
sS'ADJ'
p451
F0.04231899999999999
sS'VERB'
p452
F0.15349299999999996
sS'NOUN'
p453
F0.7941049999999998
s(lp454
(g77
I5
tp455
atp456
a(S'je'
p457
(dp458
S'PRON'
p459
F0.008432
sS'VERB'
p460
F0.991553
sg337
F1.5e-05
s(lp461
(g34
I7
tp462
atp463
a(S'pravzaprav'
p464
(dp465
S'PRT'
p466
F1.0
s(lp467
(g15
I1
tp468
atp469
a(S'bistvenega'
p470
(dp471
S'ADJ'
p472
F1.0
s(lp473
tp474
a(S'pomena'
p475
(dp476
S'NOUN'
p477
F1.0
s(lp478
(g41
I8
tp479
atp480
a(g20
(dp481
g20
F1.0
s(lp482
(g20
I9
tp483
atp484
asS'es'
p485
(lp486
(S'de'
p487
(dp488
S'ADV'
p489
F1.0
s(lp490
(g8
I0
tp491
atp492
a(S'hecho'
p493
(dp494
S'ADV'
p495
F1.0
s(lp496
(g15
I1
tp497
atp498
a(g18
(dp499
g20
F1.0
s(lp500
(g18
I2
tp501
atp502
a(S'acelerar'
p503
(dp504
S'VERB'
p505
F1.0
s(lp506
(g55
I3
tp507
atp508
a(S'el'
p509
(dp510
S'PRON'
p511
F1e-06
sS'DET'
p512
F0.999999
s(lp513
(g63
I4
tp514
atp515
a(S'proyecto'
p516
(dp517
S'VERB'
p518
F1.3e-05
sS'NOUN'
p519
F0.999987
s(lp520
(g70
I6
tp521
atp522
a(S'nabucco'
p523
(dp524
S'NOUN'
p525
F0.012952
sS'VERB'
p526
F0.002286
sS'ADJ'
p527
F0.984763
s(lp528
(g77
I5
tp529
atp530
a(S'es'
p531
(dp532
S'VERB'
p533
F1.0
s(lp534
(g34
I7
tp535
atp536
a(S'vital'
p537
(dp538
S'ADJ'
p539
F1.0
s(lp540
(g41
I8
tp541
atp542
a(g20
(dp543
g20
F1.0
s(lp544
(g20
I9
tp545
atp546
as.