(dp0
S'fr'
p1
(lp2
(S"l'"
p3
(dp4
S'ADJ'
p5
F0.079749
sS'VERB'
p6
F0.5393100000000001
sS'NOUN'
p7
F0.380941
s(lp8
tp9
a(S'\xc3\xa9nergie'
p10
(dp11
S'NOUN'
p12
F1.0
s(lp13
(S'energy'
p14
I1
tp15
atp16
a(S'nucl\xc3\xa9aire'
p17
(dp18
S'NOUN'
p19
F0.015266
sS'ADJ'
p20
F0.984734
s(lp21
(S'nuclear'
p22
I0
tp23
atp24
a(S'a'
p25
(dp26
S'VERB'
p27
F1.0
s(lp28
(S'has'
p29
I2
tp30
atp31
a(S'un'
p32
(dp33
S'NOUN'
p34
F4.8e-05
sS'NUM'
p35
F0.004554
sS'DET'
p36
F0.995399
s(lp37
(S'an'
p38
I3
tp39
atp40
a(S'r\xc3\xb4le'
p41
(dp42
S'NOUN'
p43
F1.0
s(lp44
(S'role'
p45
I5
tp46
atp47
a(S'important'
p48
(dp49
S'VERB'
p50
F0.280786
sS'ADJ'
p51
F0.719214
s(lp52
(S'important'
p53
I4
tp54
atp55
a(S'\xc3\xa0'
p56
(dp57
S'ADP'
p58
F1.0
s(lp59
(S'to'
p60
I6
tp61
atp62
a(S'jouer'
p63
(dp64
S'VERB'
p65
F1.0
s(lp66
(S'play'
p67
I7
tp68
atp69
a(S'dans'
p70
(dp71
S'NOUN'
p72
F2e-05
sS'ADP'
p73
F0.99998
s(lp74
(S'in'
p75
I8
tp76
atp77
a(S'les'
p78
(dp79
S'PRON'
p80
F0.000105
sS'DET'
p81
F0.999893
sS'ADP'
p82
F2e-06
s(lp83
(S'the'
p84
I10
tp85
atp86
a(S'objectifs'
p87
(dp88
S'ADJ'
p89
F0.466153
sS'NOUN'
p90
F0.533847
s(lp91
(S'targets'
p92
I14
tp93
atp94
a(S'que'
p95
(dp96
S'ADV'
p97
F0.009023
sS'PRON'
p98
F0.364909
sS'CONJ'
p99
F0.626068
s(lp100
tp101
a(S"l'"
p102
(dp103
S'NOUN'
p104
F0.039449
sS'VERB'
p105
F0.9199649999999999
sS'ADJ'
p106
F0.040586
s(lp107
tp108
a(S'union'
p109
(dp110
S'NOUN'
p111
F1.0
s(lp112
(S'union'
p113
I12
tp114
atp115
a(S'europ\xc3\xa9enne'
p116
(dp117
S'NOUN'
p118
F0.021142
sS'ADJ'
p119
F0.978858
s(lp120
(S'european'
p121
I11
tp122
atp123
a(S"s'"
p124
(dp125
S'ADJ'
p126
F0.034819
sS'VERB'
p127
F0.37962
sS'NOUN'
p128
F0.585561
s(lp129
tp130
a(S'est'
p131
(dp132
S'VERB'
p133
F0.999435
sS'NOUN'
p134
F0.000565
s(lp135
tp136
a(S'fix\xc3\xa9s'
p137
(dp138
S'NOUN'
p139
F0.00723
sS'VERB'
p140
F0.976898
sS'ADJ'
p141
F0.015872
s(lp142
(S'set'
p143
I15
tp144
atp145
a(S'pour'
p146
(dp147
S'CONJ'
p148
F0.019109
sS'ADP'
p149
F0.980891
s(lp150
(S'by'
p151
I16
tp152
atp153
a(S'sa'
p154
(dp155
S'PRON'
p156
F1.0
s(lp157
(S'the'
p158
I17
tp159
atp160
a(S'strat\xc3\xa9gie'
p161
(dp162
S'NOUN'
p163
F1.0
s(lp164
(S'strategy'
p165
I20
tp166
atp167
a(S'europe'
p168
(dp169
S'VERB'
p170
F0.38445399999999996
sS'NOUN'
p171
F0.6155470000000001
s(lp172
(S'europe'
p173
I18
tp174
atp175
a(S'2020'
p176
(dp177
S'X'
p178
F0.000302
sS'NUM'
p179
F0.999698
s(lp180
(S'2020'
p181
I19
tp182
atp183
a(S'et'
p184
(dp185
S'CONJ'
p186
F1.0
s(lp187
(S'and'
p188
I21
tp189
atp190
a(S'la'
p191
(dp192
S'PRON'
p193
F0.000103
sS'DET'
p194
F0.999897
sS'NOUN'
p195
F0.0
s(lp196
(S'the'
p197
I22
tp198
atp199
a(S'strat\xc3\xa9gie'
p200
(dp201
S'NOUN'
p202
F1.0
s(lp203
(S'strategy'
p204
I24
tp205
atp206
a(S'\xc3\xa9nerg\xc3\xa9tique'
p207
(dp208
S'NOUN'
p209
F0.017216
sS'ADJ'
p210
F0.982784
s(lp211
(S'energy'
p212
I23
tp213
atp214
a(S'de'
p215
(dp216
S'ADP'
p217
F1.0
s(lp218
(S'for'
p219
I25
tp220
atp221
a(S'la'
p222
(dp223
S'PRON'
p224
F1.2e-05
sS'DET'
p225
F0.999988
sS'NOUN'
p226
F0.0
s(lp227
(S'the'
p228
I26
tp229
atp230
a(S'd\xc3\xa9cennie'
p231
(dp232
S'NOUN'
p233
F1.0
s(lp234
tp235
a(S'en'
p236
(dp237
S'PRON'
p238
F0.000734
sS'ADP'
p239
F0.999266
s(lp240
(S'current'
p241
I27
tp242
atp243
a(S'cours'
p244
(dp245
S'VERB'
p246
F0.000357
sS'NOUN'
p247
F0.999643
s(lp248
(S'decade'
p249
I28
tp250
atp251
a(S'.'
p252
(dp253
g252
F1.0
s(lp254
(g252
I29
tp255
atp256
asS'en'
p257
(lp258
(g22
(dp259
S'ADJ'
p260
F1.0
s(lp261
(g22
I0
tp262
atp263
a(g14
(dp264
S'NOUN'
p265
F1.0
s(lp266
(g14
I1
tp267
atp268
a(g29
(dp269
S'VERB'
p270
F1.0
s(lp271
(g29
I2
tp272
atp273
a(g38
(dp274
S'DET'
p275
F1.0
s(lp276
(g38
I3
tp277
atp278
a(g53
(dp279
S'ADJ'
p280
F1.0
s(lp281
(g53
I4
tp282
atp283
a(g45
(dp284
S'NOUN'
p285
F1.0
s(lp286
(g45
I5
tp287
atp288
a(g60
(dp289
S'ADV'
p290
F0.0
sS'PRT'
p291
F1.0
sS'ADP'
p292
F0.0
s(lp293
(g60
I6
tp294
atp295
a(g67
(dp296
S'VERB'
p297
F0.985507
sS'NOUN'
p298
F0.014493
s(lp299
(g67
I7
tp300
atp301
a(g75
(dp302
S'ADV'
p303
F0.003578
sS'PRT'
p304
F0.014399
sS'ADP'
p305
F0.982023
s(lp306
(g75
I8
tp307
atp308
a(S'achieving'
p309
(dp310
S'VERB'
p311
F1.0
s(lp312
(g309
I9
tp313
atp314
a(g84
(dp315
S'NOUN'
p316
F1e-06
sS'DET'
p317
F0.999999
s(lp318
(g84
I10
tp319
atp320
a(g121
(dp321
S'NOUN'
p322
F0.10881199999999999
sS'VERB'
p323
F1.1e-05
sS'ADJ'
p324
F0.891178
s(lp325
(g121
I11
tp326
atp327
a(g113
(dp328
S'NOUN'
p329
F1.0
s(lp330
(g113
I12
tp331
atp332
a(S"'s"
p333
(dp334
S'PRT'
p335
F0.983967
sg252
F0.016033
s(lp336
(g333
I13
tp337
atp338
a(g92
(dp339
S'VERB'
p340
F0.029719
sS'NOUN'
p341
F0.970281
s(lp342
(g92
I14
tp343
atp344
a(g143
(dp345
S'ADJ'
p346
F0.000474
sS'VERB'
p347
F0.9671949999999999
sS'NOUN'
p348
F0.032331
s(lp349
(g143
I15
tp350
atp351
a(g151
(dp352
S'ADV'
p353
F0.000288
sS'NOUN'
p354
F0.0
sS'ADP'
p355
F0.999712
s(lp356
(g151
I16
tp357
atp358
a(g158
(dp359
S'NOUN'
p360
F9e-06
sS'DET'
p361
F0.999991
s(lp362
(g158
I17
tp363
atp364
a(g173
(dp365
S'ADV'
p366
F0.008443
sS'ADJ'
p367
F0.06348
sS'VERB'
p368
F2.2e-05
sS'NOUN'
p369
F0.928054
s(lp370
(g173
I18
tp371
atp372
a(g181
(dp373
S'ADV'
p374
F3.2e-05
sS'NOUN'
p375
F0.000122
sS'NUM'
p376
F0.997455
sS'ADJ'
p377
F0.002391
sg178
F0.0
s(lp378
(g181
I19
tp379
atp380
a(g165
(dp381
S'NOUN'
p382
F1.0
s(lp383
(g165
I20
tp384
atp385
a(g188
(dp386
S'CONJ'
p387
F1.0
sS'NOUN'
p388
F0.0
s(lp389
(g188
I21
tp390
atp391
a(g197
(dp392
S'NOUN'
p393
F2e-06
sS'DET'
p394
F0.999998
s(lp395
(g197
I22
tp396
atp397
a(g212
(dp398
S'NOUN'
p399
F1.0
s(lp400
(g212
I23
tp401
atp402
a(g204
(dp403
S'NOUN'
p404
F1.0
s(lp405
(g204
I24
tp406
atp407
a(g219
(dp408
S'ADP'
p409
F1.0
s(lp410
(g219
I25
tp411
atp412
a(g228
(dp413
S'NOUN'
p414
F1e-06
sS'DET'
p415
F0.999999
s(lp416
(g228
I26
tp417
atp418
a(g241
(dp419
S'NOUN'
p420
F0.007799
sS'ADJ'
p421
F0.992201
s(lp422
(g241
I27
tp423
atp424
a(g249
(dp425
S'NOUN'
p426
F1.0
s(lp427
(g249
I28
tp428
atp429
a(g252
(dp430
g252
F1.0
s(lp431
(g252
I29
tp432
atp433
asS'nl'
p434
(lp435
(S'kernenergie'
p436
(dp437
S'NOUN'
p438
F1.0
s(lp439
(g22
I0
tp440
atp441
a(S'behoudt'
p442
(dp443
S'VERB'
p444
F1.0
s(lp445
(g14
I1
tp446
atp447
a(S'een'
p448
(dp449
S'ADJ'
p450
F2e-06
sS'PRON'
p451
F3.6e-05
sS'NUM'
p452
F1e-06
sS'DET'
p453
F0.999962
s(lp454
(g38
I3
tp455
atp456
a(S'belangrijke'
p457
(dp458
S'NOUN'
p459
F0.000324
sS'ADJ'
p460
F0.999676
s(lp461
(g53
I4
tp462
atp463
a(S'rol'
p464
(dp465
S'VERB'
p466
F0.003134
sS'NOUN'
p467
F0.996866
s(lp468
(g45
I5
tp469
atp470
a(S'in'
p471
(dp472
S'ADV'
p473
F0.003035
sS'VERB'
p474
F2e-06
sS'ADP'
p475
F0.996962
s(lp476
(g75
I8
tp477
atp478
a(S'de'
p479
(dp480
S'DET'
p481
F1.0
s(lp482
(g84
I10
tp483
atp484
a(S'doelstellingen'
p485
(dp486
S'NOUN'
p487
F1.0
s(lp488
(g92
I14
tp489
atp490
a(S'van'
p491
(dp492
S'ADP'
p493
F1.0
s(lp494
(g151
I16
tp495
atp496
a(S'de'
p497
(dp498
S'DET'
p499
F1.0
s(lp500
(g158
I17
tp501
atp502
a(S'europa'
p503
(dp504
S'NOUN'
p505
F0.999999
s(lp506
(g173
I18
tp507
atp508
a(S'2020-strategie'
p509
(dp510
S'NOUN'
p511
F1.0
s(lp512
(g181
I19
tp513
atp514
a(S'en'
p515
(dp516
S'CONJ'
p517
F1.0
s(lp518
(g188
I21
tp519
atp520
a(S'de'
p521
(dp522
S'DET'
p523
F1.0
s(lp524
(g197
I22
tp525
atp526
a(S'energiestrategie'
p527
(dp528
S'NOUN'
p529
F1.0
s(lp530
(g212
I23
tp531
atp532
a(S'voor'
p533
(dp534
S'ADV'
p535
F0.001943
sS'CONJ'
p536
F3e-06
sS'NOUN'
p537
F0.0
sS'ADP'
p538
F0.998053
s(lp539
(g219
I25
tp540
atp541
a(S'het'
p542
(dp543
S'PRON'
p544
F0.004850999999999999
sS'DET'
p545
F0.995149
s(lp546
(g228
I26
tp547
atp548
a(S'komende'
p549
(dp550
S'NOUN'
p551
F3.2e-05
sS'VERB'
p552
F0.456331
sS'ADJ'
p553
F0.543637
s(lp554
(g241
I27
tp555
atp556
a(S'decennium'
p557
(dp558
S'NOUN'
p559
F1.0
s(lp560
(g249
I28
tp561
atp562
a(g252
(dp563
g252
F1.0
s(lp564
(g252
I29
tp565
atp566
asS'de'
p567
(lp568
(S'die'
p569
(dp570
S'PRON'
p571
F0.003324
sS'DET'
p572
F0.995835
s(lp573
(g14
I1
tp574
atp575
a(S'kernenergie'
p576
(dp577
S'ADJ'
p578
F0.020652
sS'NOUN'
p579
F0.961248
s(lp580
(g22
I0
tp581
atp582
a(S'spielt'
p583
(dp584
S'VERB'
p585
F1.0
s(lp586
(g67
I7
tp587
atp588
a(S'eine'
p589
(dp590
S'PRON'
p591
F0.002427
sS'DET'
p592
F0.997546
s(lp593
(g38
I3
tp594
atp595
a(S'wichtige'
p596
(dp597
S'ADJ'
p598
F1.0
s(lp599
(g53
I4
tp600
atp601
a(S'rolle'
p602
(dp603
S'VERB'
p604
F1.0
s(lp605
(g45
I5
tp606
atp607
a(S'beim'
p608
(dp609
S'ADP'
p610
F1.0
s(lp611
(g75
I8
tp612
atp613
a(S'erreichen'
p614
(dp615
S'VERB'
p616
F1.0
s(lp617
(g309
I9
tp618
atp619
a(S'der'
p620
(dp621
S'PRON'
p622
F0.796198
sS'DET'
p623
F0.203616
s(lp624
(g84
I10
tp625
atp626
a(S'ziele'
p627
(dp628
S'VERB'
p629
F1.0
s(lp630
(g92
I14
tp631
atp632
a(S'der'
p633
(dp634
S'PRON'
p635
F0.000825
sS'DET'
p636
F0.999175
s(lp637
(g333
I13
tp638
atp639
a(S'europ\xc3\xa4ischen'
p640
(dp641
S'ADJ'
p642
F1.0
s(lp643
(g121
I11
tp644
atp645
a(S'union'
p646
(dp647
S'ADJ'
p648
F0.029108
sS'NOUN'
p649
F0.965042
s(lp650
(g113
I12
tp651
atp652
a(S','
p653
(dp654
g252
F1.0
s(lp655
tp656
a(S'die'
p657
(dp658
S'PRON'
p659
F0.969205
sS'DET'
p660
F0.026136
s(lp661
tp662
a(S'in'
p663
(dp664
S'ADP'
p665
F1.0
s(lp666
(g151
I16
tp667
atp668
a(S'der'
p669
(dp670
S'PRON'
p671
F5.6e-05
sS'DET'
p672
F0.999933
s(lp673
(g158
I17
tp674
atp675
a(S'strategie'
p676
(dp677
S'ADJ'
p678
F0.429828
sS'NOUN'
p679
F0.559724
s(lp680
(g165
I20
tp681
atp682
a(S'europa'
p683
(dp684
S'ADJ'
p685
F0.248004
sS'NOUN'
p686
F0.436888
s(lp687
(g173
I18
tp688
atp689
a(S'2020'
p690
(dp691
S'NUM'
p692
F1.0
s(lp693
(g181
I19
tp694
atp695
a(S'und'
p696
(dp697
S'CONJ'
p698
F1.0
s(lp699
(g188
I21
tp700
atp701
a(S'der'
p702
(dp703
S'PRON'
p704
F0.210699
sS'DET'
p705
F0.701181
s(lp706
(g197
I22
tp707
atp708
a(S'f\xc3\xbcr'
p709
(dp710
S'ADP'
p711
F1.0
s(lp712
(g219
I25
tp713
atp714
a(S'dieses'
p715
(dp716
S'PRON'
p717
F1.0
s(lp718
(g228
I26
tp719
atp720
a(S'jahrzehnt'
p721
(dp722
S'ADJ'
p723
F0.865851
s(lp724
tp725
a(S'bestimmten'
p726
(dp727
S'VERB'
p728
F0.028457
sS'ADJ'
p729
F0.971543
s(lp730
(g249
I28
tp731
atp732
a(S'energiestrategie'
p733
(dp734
S'ADJ'
p735
F0.025779
sS'NOUN'
p736
F0.971935
s(lp737
(g212
I23
tp738
atp739
a(S'festgesetzt'
p740
(dp741
S'VERB'
p742
F1.0
s(lp743
tp744
a(S'wurden'
p745
(dp746
S'VERB'
p747
F1.0
s(lp748
(g143
I15
tp749
atp750
a(g252
(dp751
g252
F1.0
s(lp752
(g252
I29
tp753
atp754
asS'it'
p755
(lp756
(S'il'
p757
(dp758
S'DET'
p759
F1.0
s(lp760
tp761
a(S'nucleare'
p762
(dp763
S'NOUN'
p764
F0.282695
sS'ADJ'
p765
F0.717305
s(lp766
(g22
I0
tp767
atp768
a(S'ha'
p769
(dp770
S'VERB'
p771
F1.0
s(lp772
(g29
I2
tp773
atp774
a(S'un'
p775
(dp776
S'PRON'
p777
F0.001159
sS'DEF'
p778
F0.998841
s(lp779
(g38
I3
tp780
atp781
a(S'ruolo'
p782
(dp783
S'NOUN'
p784
F1.0
s(lp785
(g45
I5
tp786
atp787
a(S'importante'
p788
(dp789
S'NOUN'
p790
F0.005388
sS'VERB'
p791
F0.09421
sS'ADJ'
p792
F0.900402
s(lp793
(g53
I4
tp794
atp795
a(S'da'
p796
(dp797
S'ADP'
p798
F1.0
s(lp799
(g60
I6
tp800
atp801
a(S'svolgere'
p802
(dp803
S'VERB'
p804
F1.0
s(lp805
(g67
I7
tp806
atp807
a(S'per'
p808
(dp809
S'CONJ'
p810
F0.001332
sS'ADP'
p811
F0.998668
s(lp812
(g75
I8
tp813
atp814
a(S'conseguire'
p815
(dp816
S'VERB'
p817
F1.0
s(lp818
(g309
I9
tp819
atp820
a(S'gli'
p821
(dp822
S'PRON'
p823
F1.5e-05
sS'DET'
p824
F0.999985
s(lp825
tp826
a(S'obiettivi'
p827
(dp828
S'ADJ'
p829
F0.265308
sS'VERB'
p830
F0.002074
sS'NOUN'
p831
F0.732617
s(lp832
(g92
I14
tp833
atp834
a(S"dell'"
p835
(dp836
S'ADJ'
p837
F0.030022
sS'VERB'
p838
F0.0049250000000000006
sS'NOUN'
p839
F0.965053
s(lp840
(g333
I13
tp841
atp842
a(S'unione'
p843
(dp844
S'NOUN'
p845
F1.0
s(lp846
(g113
I12
tp847
atp848
a(S'fissati'
p849
(dp850
S'NOUN'
p851
F0.011745
sS'VERB'
p852
F0.820277
sS'ADJ'
p853
F0.167978
s(lp854
(g143
I15
tp855
atp856
a(S'nella'
p857
(dp858
S'ADP'
p859
F1.0
s(lp860
(g158
I17
tp861
atp862
a(S'strategia'
p863
(dp864
S'NOUN'
p865
F1.0
s(lp866
(g165
I20
tp867
atp868
a(S'europa'
p869
(dp870
S'NOUN'
p871
F0.108032
sS'VERB'
p872
F0.001371
sS'ADJ'
p873
F0.890597
s(lp874
(g173
I18
tp875
atp876
a(S'2020'
p877
(dp878
S'NUM'
p879
F0.227597
sg252
F0.772403
s(lp880
(g181
I19
tp881
atp882
a(S'e'
p883
(dp884
S'CONJ'
p885
F1.0
s(lp886
(g188
I21
tp887
atp888
a(S'nella'
p889
(dp890
S'ADP'
p891
F1.0
s(lp892
(g197
I22
tp893
atp894
a(S'strategia'
p895
(dp896
S'NOUN'
p897
F1.0
s(lp898
(g204
I24
tp899
atp900
a(S'energetica'
p901
(dp902
S'ADJ'
p903
F1.0
s(lp904
(g212
I23
tp905
atp906
a(S'per'
p907
(dp908
S'CONJ'
p909
F0.065566
sS'ADP'
p910
F0.934434
s(lp911
(g219
I25
tp912
atp913
a(S"l'"
p914
(dp915
S'NOUN'
p916
F0.009694
sS'VERB'
p917
F0.9666450000000001
sS'ADJ'
p918
F0.023661
s(lp919
(g228
I26
tp920
atp921
a(S'attuale'
p922
(dp923
S'VERB'
p924
F0.001393
sS'ADJ'
p925
F0.998607
s(lp926
(g241
I27
tp927
atp928
a(S'decennio'
p929
(dp930
S'NOUN'
p931
F1.0
s(lp932
(g249
I28
tp933
atp934
a(g252
(dp935
g252
F1.0
s(lp936
(g252
I29
tp937
atp938
asS'sk'
p939
(lp940
(S'jadrov\xc3\xa1'
p941
(dp942
S'ADJ'
p943
F1.0
s(lp944
(g22
I0
tp945
atp946
a(S'energetika'
p947
(dp948
S'NOUN'
p949
F1.0
s(lp950
(g14
I1
tp951
atp952
a(S'm\xc3\xa1'
p953
(dp954
g178
F0.0
sS'VERB'
p955
F1.0
s(lp956
(g29
I2
tp957
atp958
a(S'zohr\xc3\xa1va\xc5\xa5'
p959
(dp960
S'VERB'
p961
F1.0
s(lp962
(g67
I7
tp963
atp964
a(S'd\xc3\xb4le\xc5\xbeit\xc3\xba'
p965
(dp966
S'ADJ'
p967
F1.0
s(lp968
(g53
I4
tp969
atp970
a(S'\xc3\xbalohu'
p971
(dp972
S'NOUN'
p973
F1.0
s(lp974
(g45
I5
tp975
atp976
a(S'pri'
p977
(dp978
g178
F0.000101
sS'VERB'
p979
F2e-06
sS'ADP'
p980
F0.999898
s(lp981
(g75
I8
tp982
atp983
a(S'dosahovan\xc3\xad'
p984
(dp985
S'NOUN'
p986
F1.0
s(lp987
(g309
I9
tp988
atp989
a(S'cie\xc4\xbeov'
p990
(dp991
S'NOUN'
p992
F1.0
s(lp993
(g92
I14
tp994
atp995
a(S'eur\xc3\xb3pskej'
p996
(dp997
S'ADJ'
p998
F1.0
s(lp999
(g121
I11
tp1000
atp1001
a(S'\xc3\xbanie'
p1002
(dp1003
S'NOUN'
p1004
F1.0
s(lp1005
(g113
I12
tp1006
atp1007
a(S'stanoven\xc3\xbdch'
p1008
(dp1009
S'VERB'
p1010
F1.0
s(lp1011
(g143
I15
tp1012
atp1013
a(S'strat\xc3\xa9giou'
p1014
(dp1015
S'NOUN'
p1016
F1.0
s(lp1017
(g165
I20
tp1018
atp1019
a(S'eur\xc3\xb3pa'
p1020
(dp1021
S'ADJ'
p1022
F0.0027949999999999997
sS'VERB'
p1023
F0.00192
sS'NOUN'
p1024
F0.9952850000000001
s(lp1025
(g173
I18
tp1026
atp1027
a(S'2020'
p1028
(dp1029
S'NUM'
p1030
F1.0
s(lp1031
(g181
I19
tp1032
atp1033
a(g25
(dp1034
g178
F0.022923
sS'CONJ'
p1035
F0.976485
sS'NOUN'
p1036
F0.000372
sS'ADP'
p1037
F0.000202
sS'PRT'
p1038
F1.9e-05
s(lp1039
(g188
I21
tp1040
atp1041
a(S'energetickou'
p1042
(dp1043
S'ADJ'
p1044
F1.0
s(lp1045
(g212
I23
tp1046
atp1047
a(S'strat\xc3\xa9giou'
p1048
(dp1049
S'NOUN'
p1050
F1.0
s(lp1051
(g204
I24
tp1052
atp1053
a(S'na'
p1054
(dp1055
g178
F3.5e-05
sS'CONJ'
p1056
F3.2e-05
sS'ADP'
p1057
F0.999919
sS'PRT'
p1058
F1.4e-05
s(lp1059
(g219
I25
tp1060
atp1061
a(S'toto'
p1062
(dp1063
S'PRON'
p1064
F1.0
sg178
F0.0
s(lp1065
(g241
I27
tp1066
atp1067
a(S'desa\xc5\xa5ro\xc4\x8die'
p1068
(dp1069
S'NOUN'
p1070
F1.0
s(lp1071
(g249
I28
tp1072
atp1073
a(g252
(dp1074
g252
F1.0
s(lp1075
(g252
I29
tp1076
atp1077
asS'pl'
p1078
(lp1079
(S'energia'
p1080
(dp1081
S'NOUN'
p1082
F1.0
s(lp1083
(g14
I1
tp1084
atp1085
a(S'j\xc4\x85drowa'
p1086
(dp1087
S'ADJ'
p1088
F1.0
s(lp1089
(g22
I0
tp1090
atp1091
a(S'ma'
p1092
(dp1093
S'VERB'
p1094
F0.999113
sS'NOUN'
p1095
F1e-06
sS'ADP'
p1096
F0.000885
s(lp1097
(g29
I2
tp1098
atp1099
a(S'wa\xc5\xbcn\xc4\x85'
p1100
(dp1101
S'ADJ'
p1102
F1.0
s(lp1103
(g53
I4
tp1104
atp1105
a(S'rol\xc4\x99'
p1106
(dp1107
S'NOUN'
p1108
F1.0
s(lp1109
(g45
I5
tp1110
atp1111
a(S'do'
p1112
(dp1113
g178
F0.0
sS'NOUN'
p1114
F1e-06
sS'ADP'
p1115
F0.999999
s(lp1116
(g60
I6
tp1117
atp1118
a(S'odegrania'
p1119
(dp1120
S'VERB'
p1121
F1.0
s(lp1122
(g67
I7
tp1123
atp1124
a(S'w'
p1125
(dp1126
S'NOUN'
p1127
F1.2e-05
sS'ADJ'
p1128
F0.003441
sS'ADP'
p1129
F0.996545
sg178
F2e-06
s(lp1130
(g75
I8
tp1131
atp1132
a(S'realizacji'
p1133
(dp1134
S'NOUN'
p1135
F1.0
s(lp1136
(g309
I9
tp1137
atp1138
a(S'cel\xc3\xb3w'
p1139
(dp1140
S'NOUN'
p1141
F1.0
s(lp1142
(g92
I14
tp1143
atp1144
a(S'unii'
p1145
(dp1146
S'NOUN'
p1147
F1.0
s(lp1148
(g113
I12
tp1149
atp1150
a(S'europejskiej'
p1151
(dp1152
S'ADJ'
p1153
F0.999999
s(lp1154
(g121
I11
tp1155
atp1156
a(g653
(dp1157
g178
F0.0
sg252
F1.0
s(lp1158
tp1159
a(S'przyj\xc4\x99tych'
p1160
(dp1161
S'VERB'
p1162
F0.9876539999999999
sS'NOUN'
p1163
F0.012346
s(lp1164
(g143
I15
tp1165
atp1166
a(g1125
(dp1167
S'NOUN'
p1168
F2e-06
sS'ADJ'
p1169
F1.7e-05
sS'ADP'
p1170
F0.9999800000000001
sg178
F1e-06
s(lp1171
(g151
I16
tp1172
atp1173
a(S'strategii'
p1174
(dp1175
S'NOUN'
p1176
F1.0
s(lp1177
(g165
I20
tp1178
atp1179
a(S'europa'
p1180
(dp1181
S'ADJ'
p1182
F0.0064
sS'VERB'
p1183
F0.069948
sS'NOUN'
p1184
F0.923651
s(lp1185
(g173
I18
tp1186
atp1187
a(S'2020'
p1188
(dp1189
S'ADV'
p1190
F6.7e-05
sS'NOUN'
p1191
F0.000938
sS'NUM'
p1192
F0.4479689999999999
sS'ADJ'
p1193
F0.5509039999999997
sg178
F0.000124
s(lp1194
(g181
I19
tp1195
atp1196
a(S'i'
p1197
(dp1198
S'PRT'
p1199
F0.001303
sS'CONJ'
p1200
F0.997893
sS'NOUN'
p1201
F0.000794
sg178
F3e-06
sS'PRON'
p1202
F7e-06
s(lp1203
(g188
I21
tp1204
atp1205
a(S'strategii'
p1206
(dp1207
S'NOUN'
p1208
F1.0
s(lp1209
(g204
I24
tp1210
atp1211
a(S'energetycznej'
p1212
(dp1213
S'ADJ'
p1214
F1.0
s(lp1215
(g212
I23
tp1216
atp1217
a(S'na'
p1218
(dp1219
g178
F7.2e-05
sS'VERB'
p1220
F8.3e-05
sS'NOUN'
p1221
F7.5e-05
sS'ADP'
p1222
F0.99973
sS'PRT'
p1223
F4e-05
s(lp1224
(g219
I25
tp1225
atp1226
a(S'obecne'
p1227
(dp1228
S'ADJ'
p1229
F0.999999
s(lp1230
(g241
I27
tp1231
atp1232
a(S'dziesi\xc4\x99ciolecie'
p1233
(dp1234
S'NOUN'
p1235
F1.0
s(lp1236
(g249
I28
tp1237
atp1238
a(g252
(dp1239
g252
F1.0
s(lp1240
(g252
I29
tp1241
atp1242
asS'sl'
p1243
(lp1244
(S'jedrska'
p1245
(dp1246
S'ADV'
p1247
F5e-06
sS'NOUN'
p1248
F0.000239
sS'ADJ'
p1249
F0.999754
s(lp1250
(g22
I0
tp1251
atp1252
a(S'energija'
p1253
(dp1254
S'NOUN'
p1255
F1.0
s(lp1256
(g14
I1
tp1257
atp1258
a(S'ima'
p1259
(dp1260
S'VERB'
p1261
F1.0
s(lp1262
(g29
I2
tp1263
atp1264
a(S'pomembno'
p1265
(dp1266
S'ADV'
p1267
F0.000336
sS'ADJ'
p1268
F0.9996640000000001
s(lp1269
(g53
I4
tp1270
atp1271
a(S'vlogo'
p1272
(dp1273
S'NOUN'
p1274
F1.0
s(lp1275
(g45
I5
tp1276
atp1277
a(S'pri'
p1278
(dp1279
S'ADP'
p1280
F1.0
s(lp1281
(g75
I8
tp1282
atp1283
a(S'doseganju'
p1284
(dp1285
S'NOUN'
p1286
F1.0
s(lp1287
(g309
I9
tp1288
atp1289
a(S'ciljev'
p1290
(dp1291
S'NOUN'
p1292
F1.0
s(lp1293
(g92
I14
tp1294
atp1295
a(S'evropske'
p1296
(dp1297
S'ADJ'
p1298
F1.0
s(lp1299
(g121
I11
tp1300
atp1301
a(S'unije'
p1302
(dp1303
S'NOUN'
p1304
F1.0
s(lp1305
(g113
I12
tp1306
atp1307
a(g653
(dp1308
g252
F1.0
s(lp1309
tp1310
a(S'ki'
p1311
(dp1312
S'CONJ'
p1313
F1.0
s(lp1314
(g151
I16
tp1315
atp1316
a(S'so'
p1317
(dp1318
g178
F0.0
sS'VERB'
p1319
F0.999999
s(lp1320
tp1321
a(S'dolo\xc4\x8deni'
p1322
(dp1323
S'ADJ'
p1324
F1.000001
s(lp1325
(g143
I15
tp1326
atp1327
a(S'v'
p1328
(dp1329
S'ADP'
p1330
F1.0
s(lp1331
(g158
I17
tp1332
atp1333
a(S'strategiji'
p1334
(dp1335
S'NOUN'
p1336
F0.9999990000000001
s(lp1337
(g165
I20
tp1338
atp1339
a(S'evropa'
p1340
(dp1341
S'ADV'
p1342
F0.000765
sg178
F0.002653
sS'ADJ'
p1343
F0.001145
sS'VERB'
p1344
F0.011563
sS'NOUN'
p1345
F0.9838709999999998
s(lp1346
(g173
I18
tp1347
atp1348
a(S'2020'
p1349
(dp1350
S'NUM'
p1351
F1.0
s(lp1352
(g181
I19
tp1353
atp1354
a(S'in'
p1355
(dp1356
S'ADV'
p1357
F5e-05
sg178
F6.3e-05
sS'CONJ'
p1358
F0.999382
sS'NOUN'
p1359
F0.000506
s(lp1360
(g188
I21
tp1361
atp1362
a(S'energetski'
p1363
(dp1364
S'ADJ'
p1365
F1.0
s(lp1366
(g212
I23
tp1367
atp1368
a(S'strategiji'
p1369
(dp1370
S'NOUN'
p1371
F1.0
s(lp1372
(g204
I24
tp1373
atp1374
a(S'za'
p1375
(dp1376
S'ADV'
p1377
F0.000656
sg178
F2.3e-05
sS'ADP'
p1378
F0.999322
s(lp1379
(g219
I25
tp1380
atp1381
a(S'teko\xc4\x8de'
p1382
(dp1383
S'ADV'
p1384
F0.000165
sS'ADJ'
p1385
F0.999835
s(lp1386
(g241
I27
tp1387
atp1388
a(S'desetletje'
p1389
(dp1390
S'NOUN'
p1391
F1.0
s(lp1392
(g249
I28
tp1393
atp1394
a(g252
(dp1395
g252
F1.0
s(lp1396
(g252
I29
tp1397
atp1398
asS'es'
p1399
(lp1400
(S'la'
p1401
(dp1402
g178
F4.5e-05
sS'DET'
p1403
F0.999917
sS'NOUN'
p1404
F0.0
sS'PRON'
p1405
F3.8e-05
s(lp1406
tp1407
a(S'energ\xc3\xada'
p1408
(dp1409
S'NOUN'
p1410
F1.0
s(lp1411
(g14
I1
tp1412
atp1413
a(S'nuclear'
p1414
(dp1415
S'VERB'
p1416
F0.000452
sS'ADJ'
p1417
F0.999548
s(lp1418
(g22
I0
tp1419
atp1420
a(S'tiene'
p1421
(dp1422
S'VERB'
p1423
F1.0
s(lp1424
(g29
I2
tp1425
atp1426
a(S'una'
p1427
(dp1428
S'DET'
p1429
F1.0
s(lp1430
(g38
I3
tp1431
atp1432
a(S'funci\xc3\xb3n'
p1433
(dp1434
S'NOUN'
p1435
F1.0
s(lp1436
(g45
I5
tp1437
atp1438
a(S'importante'
p1439
(dp1440
S'VERB'
p1441
F0.007127
sS'ADJ'
p1442
F0.992873
s(lp1443
(g53
I4
tp1444
atp1445
a(S'que'
p1446
(dp1447
g178
F1e-06
sS'CONJ'
p1448
F0.999999
s(lp1449
(g60
I6
tp1450
atp1451
a(S'desempe\xc3\xb1ar'
p1452
(dp1453
S'VERB'
p1454
F1.0
s(lp1455
(g67
I7
tp1456
atp1457
a(S'en'
p1458
(dp1459
g178
F0.0
sS'CONJ'
p1460
F1e-06
sS'ADP'
p1461
F0.999999
s(lp1462
(g75
I8
tp1463
atp1464
a(S'la'
p1465
(dp1466
g178
F0.0
sS'PRON'
p1467
F0.0
sS'DET'
p1468
F0.999999
sS'NOUN'
p1469
F0.0
s(lp1470
tp1471
a(S'consecuci\xc3\xb3n'
p1472
(dp1473
S'NOUN'
p1474
F1.0
s(lp1475
(g309
I9
tp1476
atp1477
a(S'de'
p1478
(dp1479
g178
F0.0
sS'CONJ'
p1480
F1.7e-05
sS'ADP'
p1481
F0.999983
s(lp1482
tp1483
a(S'los'
p1484
(dp1485
S'PRON'
p1486
F0.0
sS'DET'
p1487
F1.0
s(lp1488
(g84
I10
tp1489
atp1490
a(S'objetivos'
p1491
(dp1492
S'ADJ'
p1493
F0.008368
sS'NOUN'
p1494
F0.991632
s(lp1495
(g92
I14
tp1496
atp1497
a(S'de'
p1498
(dp1499
g178
F0.0
sS'CONJ'
p1500
F1.8e-05
sS'ADP'
p1501
F0.999982
s(lp1502
tp1503
a(S'la'
p1504
(dp1505
g178
F0.0
sS'PRON'
p1506
F0.0
sS'DET'
p1507
F0.999999
sS'NOUN'
p1508
F0.0
s(lp1509
(g333
I13
tp1510
atp1511
a(S'uni\xc3\xb3n'
p1512
(dp1513
S'NOUN'
p1514
F1.0
s(lp1515
(g113
I12
tp1516
atp1517
a(S'europeo'
p1518
(dp1519
S'NOUN'
p1520
F0.00388
sS'ADJ'
p1521
F0.99612
s(lp1522
(g121
I11
tp1523
atp1524
a(S'establecidos'
p1525
(dp1526
S'VERB'
p1527
F1.0
s(lp1528
(g143
I15
tp1529
atp1530
a(S'por'
p1531
(dp1532
S'ADP'
p1533
F1.0
s(lp1534
tp1535
a(S'la'
p1536
(dp1537
S'NOUN'
p1538
F0.0
sS'PRON'
p1539
F0.0
sS'DET'
p1540
F0.999999
sg178
F0.0
s(lp1541
(g158
I17
tp1542
atp1543
a(S'estrategia'
p1544
(dp1545
S'NOUN'
p1546
F1.0
s(lp1547
(g165
I20
tp1548
atp1549
a(S'europa'
p1550
(dp1551
S'NOUN'
p1552
F1.0
s(lp1553
(g173
I18
tp1554
atp1555
a(S'2020'
p1556
(dp1557
g178
F0.221133
sS'NUM'
p1558
F0.778867
s(lp1559
(g181
I19
tp1560
atp1561
a(S'y'
p1562
(dp1563
g178
F5.6e-05
sS'CONJ'
p1564
F0.999944
s(lp1565
(g188
I21
tp1566
atp1567
a(S'por'
p1568
(dp1569
S'ADP'
p1570
F1.0
s(lp1571
(g151
I16
tp1572
atp1573
a(S'la'
p1574
(dp1575
S'NOUN'
p1576
F0.0
sS'PRON'
p1577
F0.0
sS'DET'
p1578
F0.999999
sg178
F0.0
s(lp1579
(g197
I22
tp1580
atp1581
a(S'estrategia'
p1582
(dp1583
S'NOUN'
p1584
F1.0
s(lp1585
(g204
I24
tp1586
atp1587
a(S'energ\xc3\xa9tica'
p1588
(dp1589
S'NOUN'
p1590
F0.073904
sS'ADJ'
p1591
F0.926096
s(lp1592
(g212
I23
tp1593
atp1594
a(S'para'
p1595
(dp1596
S'CONJ'
p1597
F0.002073
sS'ADP'
p1598
F0.997927
s(lp1599
(g219
I25
tp1600
atp1601
a(S'la'
p1602
(dp1603
g178
F0.0
sS'PRON'
p1604
F0.0
sS'DET'
p1605
F1.0
sS'NOUN'
p1606
F0.0
s(lp1607
(g228
I26
tp1608
atp1609
a(S'd\xc3\xa9cada'
p1610
(dp1611
S'NOUN'
p1612
F1.0
s(lp1613
(g249
I28
tp1614
atp1615
a(S'en'
p1616
(dp1617
g178
F1.2e-05
sS'CONJ'
p1618
F4e-06
sS'ADP'
p1619
F0.999984
s(lp1620
tp1621
a(S'curso'
p1622
(dp1623
S'NOUN'
p1624
F1.0
s(lp1625
(g241
I27
tp1626
atp1627
a(g252
(dp1628
g252
F1.0
s(lp1629
(g252
I29
tp1630
atp1631
as.