(dp0
S'fr'
p1
(lp2
(S'le'
p3
(dp4
S'PRON'
p5
F0.000439
sS'DET'
p6
F0.999561
s(lp7
(S'it'
p8
I0
tp9
atp10
a(S'message'
p11
(dp12
S'NOUN'
p13
F1.0
s(lp14
tp15
a(S'transmis'
p16
(dp17
S'VERB'
p18
F1.0
s(lp19
(S'message'
p20
I4
tp21
atp22
a(S'est'
p23
(dp24
S'VERB'
p25
F0.991863
sS'NOUN'
p26
F0.008137
s(lp27
(S'is'
p28
I1
tp29
atp30
a(S'sans'
p31
(dp32
S'CONJ'
p33
F0.004263
sS'ADP'
p34
F0.995737
s(lp35
(S'powerful'
p36
I3
tp37
atp38
a(S'\xc3\xa9quivoque'
p39
(dp40
S'NOUN'
p41
F0.497354
sS'VERB'
p42
F0.000863
sS'ADJ'
p43
F0.501783
s(lp44
tp45
a(S':'
p46
(dp47
S'.'
p48
F1.0
s(lp49
(g46
I5
tp50
atp51
a(S"l'"
p52
(dp53
S'ADJ'
p54
F0.13429
sS'VERB'
p55
F0.638201
sS'NOUN'
p56
F0.227509
s(lp57
(S'the'
p58
I6
tp59
atp60
a(S'ue'
p61
(dp62
S'VERB'
p63
F0.000559
sS'NOUN'
p64
F0.999441
s(lp65
(S'eu'
p66
I7
tp67
atp68
a(S'tient'
p69
(dp70
S'VERB'
p71
F1.0
s(lp72
(S'keeps'
p73
I8
tp74
atp75
a(S'sa'
p76
(dp77
S'PRON'
p78
F1.0
s(lp79
(S'its'
p80
I9
tp81
atp82
a(S'parole'
p83
(dp84
S'NOUN'
p85
F1.0
s(lp86
(S'word'
p87
I10
tp88
atp89
a(g48
(dp90
g48
F1.0
s(lp91
(g48
I11
tp92
atp93
asS'en'
p94
(lp95
(g8
(dp96
S'PRON'
p97
F1.0
s(lp98
(g8
I0
tp99
atp100
a(g28
(dp101
S'VERB'
p102
F1.0
s(lp103
(g28
I1
tp104
atp105
a(S'a'
p106
(dp107
S'NOUN'
p108
F0.0
sS'DET'
p109
F1.0
s(lp110
(g106
I2
tp111
atp112
a(g36
(dp113
S'ADV'
p114
F2.9e-05
sS'ADJ'
p115
F0.999971
s(lp116
(g36
I3
tp117
atp118
a(g20
(dp119
S'NOUN'
p120
F1.0
s(lp121
(g20
I4
tp122
atp123
a(g46
(dp124
g48
F1.0
s(lp125
(g46
I5
tp126
atp127
a(g58
(dp128
S'NOUN'
p129
F5e-06
sS'DET'
p130
F0.999995
s(lp131
(g58
I6
tp132
atp133
a(g66
(dp134
S'ADV'
p135
F5.9e-05
sS'ADJ'
p136
F9.9e-05
sS'VERB'
p137
F1e-06
sS'NOUN'
p138
F0.9998419999999999
s(lp139
(g66
I7
tp140
atp141
a(g73
(dp142
S'VERB'
p143
F0.999987
sS'NOUN'
p144
F1.3e-05
s(lp145
(g73
I8
tp146
atp147
a(g80
(dp148
S'PRON'
p149
F1.0
s(lp150
(g80
I9
tp151
atp152
a(g87
(dp153
S'VERB'
p154
F1e-06
sS'NOUN'
p155
F0.999999
s(lp156
(g87
I10
tp157
atp158
a(g48
(dp159
g48
F1.0
s(lp160
(g48
I11
tp161
atp162
asS'nl'
p163
(lp164
(S'dit'
p165
(dp166
S'PRON'
p167
F1.0
s(lp168
(g8
I0
tp169
atp170
a(S'is'
p171
(dp172
S'VERB'
p173
F1.0
s(lp174
(g28
I1
tp175
atp176
a(S'een'
p177
(dp178
S'ADJ'
p179
F2e-06
sS'PRON'
p180
F3.6e-05
sS'NUM'
p181
F1e-06
sS'DET'
p182
F0.999962
s(lp183
(g106
I2
tp184
atp185
a(S'duidelijke'
p186
(dp187
S'NOUN'
p188
F0.0002
sS'ADJ'
p189
F0.9998
s(lp190
(g36
I3
tp191
atp192
a(S'boodschap'
p193
(dp194
S'NOUN'
p195
F1.0
s(lp196
(g20
I4
tp197
atp198
a(g46
(dp199
g48
F1.0
s(lp200
(g46
I5
tp201
atp202
a(S'de'
p203
(dp204
S'DET'
p205
F1.0
s(lp206
(g58
I6
tp207
atp208
a(S'eu'
p209
(dp210
S'NOUN'
p211
F1.0
s(lp212
(g66
I7
tp213
atp214
a(S'houdt'
p215
(dp216
S'VERB'
p217
F1.0
s(lp218
(g73
I8
tp219
atp220
a(S'haar'
p221
(dp222
S'ADV'
p223
F2.9e-05
sS'PRON'
p224
F0.99997
sS'NOUN'
p225
F0.0
s(lp226
(g80
I9
tp227
atp228
a(S'woord'
p229
(dp230
S'NOUN'
p231
F1.0
s(lp232
(g87
I10
tp233
atp234
a(g48
(dp235
g48
F1.0
s(lp236
(g48
I11
tp237
atp238
asS'de'
p239
(lp240
(S'das'
p241
(dp242
S'PRON'
p243
F0.99851
sS'DET'
p244
F0.001372
s(lp245
(g8
I0
tp246
atp247
a(S'ist'
p248
(dp249
S'VERB'
p250
F1.0
s(lp251
(g28
I1
tp252
atp253
a(S'eine'
p254
(dp255
S'PRON'
p256
F0.003119
sS'DET'
p257
F0.996857
s(lp258
(g106
I2
tp259
atp260
a(S'eindringliche'
p261
(dp262
S'ADJ'
p263
F1.0
s(lp264
(g36
I3
tp265
atp266
a(S'botschaft'
p267
(dp268
S'ADJ'
p269
F0.003501
sS'NOUN'
p270
F0.993247
s(lp271
(g20
I4
tp272
atp273
a(g46
(dp274
g48
F1.0
s(lp275
(g46
I5
tp276
atp277
a(S'die'
p278
(dp279
S'PRON'
p280
F0.012898
sS'DET'
p281
F0.984388
s(lp282
(g58
I6
tp283
atp284
a(S'eu'
p285
(dp286
S'ADJ'
p287
F0.370971
sS'NOUN'
p288
F0.493773
s(lp289
(g66
I7
tp290
atp291
a(S'h\xc3\xa4lt'
p292
(dp293
S'VERB'
p294
F1.0
s(lp295
(g73
I8
tp296
atp297
a(S'ihr'
p298
(dp299
S'PRON'
p300
F1.0
s(lp301
(g80
I9
tp302
atp303
a(S'wort'
p304
(dp305
S'ADJ'
p306
F0.272405
sS'NOUN'
p307
F0.72347
s(lp308
(g87
I10
tp309
atp310
a(g48
(dp311
g48
F1.0
s(lp312
(g48
I11
tp313
atp314
asS'it'
p315
(lp316
(S'si'
p317
(dp318
S'PRON'
p319
F0.999997
sS'NOUN'
p320
F2e-06
s(lp321
(g8
I0
tp322
atp323
a(S'tratta'
p324
(dp325
S'VERB'
p326
F0.999277
sS'NOUN'
p327
F0.000724
s(lp328
(g28
I1
tp329
atp330
a(S'di'
p331
(dp332
S'CONJ'
p333
F6e-06
sS'ADP'
p334
F0.999994
s(lp335
tp336
a(S'un'
p337
(dp338
S'PRON'
p339
F0.00267
sS'DEF'
p340
F0.99733
s(lp341
(g106
I2
tp342
atp343
a(S'messaggio'
p344
(dp345
S'NOUN'
p346
F1.0
s(lp347
(g20
I4
tp348
atp349
a(S'forte'
p350
(dp351
S'ADV'
p352
F0.004924
sS'NOUN'
p353
F0.000858
sS'ADJ'
p354
F0.994217
s(lp355
(g36
I3
tp356
atp357
a(g46
(dp358
g48
F1.0
s(lp359
(g46
I5
tp360
atp361
a(S"l'"
p362
(dp363
S'NOUN'
p364
F0.003774
sS'VERB'
p365
F0.984512
sS'ADJ'
p366
F0.011715
s(lp367
(g58
I6
tp368
atp369
a(S'ue'
p370
(dp371
S'ADJ'
p372
F0.00089
sS'VERB'
p373
F0.061353000000000005
sS'NOUN'
p374
F0.937758
s(lp375
(g66
I7
tp376
atp377
a(S'mantiene'
p378
(dp379
S'VERB'
p380
F1.0
s(lp381
(g73
I8
tp382
atp383
a(S'la'
p384
(dp385
S'PRON'
p386
F0.0
sS'DET'
p387
F1.0
s(lp388
(g80
I9
tp389
atp390
a(S'parola'
p391
(dp392
S'NOUN'
p393
F1.0
s(lp394
tp395
a(S'data'
p396
(dp397
S'ADJ'
p398
F0.299764
sS'VERB'
p399
F0.385993
sS'NOUN'
p400
F0.314242
s(lp401
(g87
I10
tp402
atp403
a(g48
(dp404
g48
F1.0
s(lp405
(g48
I11
tp406
atp407
asS'sk'
p408
(lp409
(S'je'
p410
(dp411
S'PRON'
p412
F7.7e-05
sS'VERB'
p413
F0.999845
sS'X'
p414
F7.8e-05
s(lp415
(g28
I1
tp416
atp417
a(S'to'
p418
(dp419
S'PRON'
p420
F0.986124
sS'CONJ'
p421
F0.002322
sg414
F0.011554
s(lp422
(g8
I0
tp423
atp424
a(S'v\xc3\xbdznamn\xc3\xa9'
p425
(dp426
S'ADJ'
p427
F1.0
s(lp428
(g36
I3
tp429
atp430
a(S'posolstvo'
p431
(dp432
S'NOUN'
p433
F1.0
s(lp434
(g20
I4
tp435
atp436
a(g48
(dp437
g48
F1.0
s(lp438
(g46
I5
tp439
atp440
a(S'eur\xc3\xb3pska'
p441
(dp442
S'ADJ'
p443
F1.0
s(lp444
(g58
I6
tp445
atp446
a(S'\xc3\xbania'
p447
(dp448
S'NOUN'
p449
F1.0
s(lp450
(g66
I7
tp451
atp452
a(S'dr\xc5\xbe\xc3\xad'
p453
(dp454
S'VERB'
p455
F1.0
s(lp456
(g73
I8
tp457
atp458
a(S'svoje'
p459
(dp460
S'PRON'
p461
F1.0
s(lp462
(g80
I9
tp463
atp464
a(S'slovo'
p465
(dp466
S'NOUN'
p467
F1.0
s(lp468
(g87
I10
tp469
atp470
a(g48
(dp471
g48
F1.0
s(lp472
(g48
I11
tp473
atp474
asS'pl'
p475
(lp476
(S'jest'
p477
(dp478
S'VERB'
p479
F1.0
s(lp480
(g28
I1
tp481
atp482
a(S'to'
p483
(dp484
S'NOUN'
p485
F0.7760600000000001
sS'ADP'
p486
F0.0
sS'PRT'
p487
F0.039459
sg414
F0.0
sS'CONJ'
p488
F0.017753
sS'ADJ'
p489
F0.16672900000000002
s(lp490
(g8
I0
tp491
atp492
a(S'mocne'
p493
(dp494
S'ADJ'
p495
F1.0
s(lp496
(g36
I3
tp497
atp498
a(S'przes\xc5\x82anie'
p499
(dp500
S'VERB'
p501
F0.08318600000000001
sS'NOUN'
p502
F0.9168149999999999
s(lp503
(g20
I4
tp504
atp505
a(g46
(dp506
g48
F1.0
s(lp507
(g46
I5
tp508
atp509
a(S'ue'
p510
(dp511
S'ADJ'
p512
F0.001282
sS'VERB'
p513
F0.000387
sS'NOUN'
p514
F0.9983299999999999
s(lp515
(g66
I7
tp516
atp517
a(S'dotrzymuje'
p518
(dp519
S'VERB'
p520
F1.0
s(lp521
(g73
I8
tp522
atp523
a(S's\xc5\x82owa'
p524
(dp525
S'NOUN'
p526
F0.9999999999999999
s(lp527
(g87
I10
tp528
atp529
a(g48
(dp530
g48
F1.0
s(lp531
(g48
I11
tp532
atp533
asS'sl'
p534
(lp535
(S'to'
p536
(dp537
S'PRON'
p538
F0.999936
sg414
F6.3e-05
s(lp539
(g8
I0
tp540
atp541
a(S'je'
p542
(dp543
S'PRON'
p544
F7.6e-05
sS'VERB'
p545
F0.999923
sg414
F1e-06
s(lp546
(g28
I1
tp547
atp548
a(S'mo\xc4\x8dno'
p549
(dp550
S'ADV'
p551
F0.04645
sS'ADJ'
p552
F0.953549
s(lp553
(g36
I3
tp554
atp555
a(S'sporo\xc4\x8dilo'
p556
(dp557
S'VERB'
p558
F0.014561
sS'NOUN'
p559
F0.985439
s(lp560
(g20
I4
tp561
atp562
a(g46
(dp563
g48
F1.0
s(lp564
(g46
I5
tp565
atp566
a(S'eu'
p567
(dp568
S'ADV'
p569
F0.030863
sS'ADJ'
p570
F0.009182000000000001
sS'VERB'
p571
F0.000171
sS'NOUN'
p572
F0.9597830000000004
s(lp573
(g66
I7
tp574
atp575
a(S'dr\xc5\xbei'
p576
(dp577
S'VERB'
p578
F1.0
s(lp579
(g73
I8
tp580
atp581
a(S'svojo'
p582
(dp583
S'PRON'
p584
F1.0
s(lp585
(g80
I9
tp586
atp587
a(S'besedo'
p588
(dp589
S'NOUN'
p590
F1.0
s(lp591
(g87
I10
tp592
atp593
a(g48
(dp594
g48
F1.0
s(lp595
(g48
I11
tp596
atp597
asS'es'
p598
(lp599
(S'es'
p600
(dp601
S'VERB'
p602
F1.0
s(lp603
(g28
I1
tp604
atp605
a(S'un'
p606
(dp607
g414
F4e-06
sS'DET'
p608
F0.999996
s(lp609
(g106
I2
tp610
atp611
a(S'mensaje'
p612
(dp613
S'NOUN'
p614
F1.0
s(lp615
(g20
I4
tp616
atp617
a(S'potente'
p618
(dp619
S'ADJ'
p620
F1.0
s(lp621
(g36
I3
tp622
atp623
a(g46
(dp624
g48
F1.0
s(lp625
(g46
I5
tp626
atp627
a(S'la'
p628
(dp629
g414
F0.000102
sS'PRON'
p630
F0.0
sS'DET'
p631
F0.999896
sS'NOUN'
p632
F2e-06
s(lp633
(g58
I6
tp634
atp635
a(S'ue'
p636
(dp637
S'VERB'
p638
F1e-06
sS'NOUN'
p639
F0.999999
s(lp640
(g66
I7
tp641
atp642
a(S'cumple'
p643
(dp644
S'VERB'
p645
F1.0
s(lp646
(g73
I8
tp647
atp648
a(S'con'
p649
(dp650
S'ADP'
p651
F1.0
s(lp652
tp653
a(S'su'
p654
(dp655
S'PRON'
p656
F1.0
s(lp657
(g80
I9
tp658
atp659
a(S'palabra'
p660
(dp661
S'NOUN'
p662
F1.0
s(lp663
(g87
I10
tp664
atp665
a(g48
(dp666
g48
F1.0
s(lp667
(g48
I11
tp668
atp669
as.