(dp0
S'fr'
p1
(lp2
(S'd\xc3\xa8s'
p3
(dp4
S'ADP'
p5
F1.0
s(lp6
tp7
a(S'lors'
p8
(dp9
S'ADV'
p10
F1.0
s(lp11
(S'therefore'
p12
I0
tp13
atp14
a(S','
p15
(dp16
S'.'
p17
F1.0
s(lp18
(g15
I1
tp19
atp20
a(S'le'
p21
(dp22
S'PRON'
p23
F0.000368
sS'DET'
p24
F0.999632
s(lp25
(S'the'
p26
I3
tp27
atp28
a(S'conseil'
p29
(dp30
S'NOUN'
p31
F1.0
s(lp32
(S'council'
p33
I4
tp34
atp35
a(S'reconna\xc3\xaet-il'
p36
(dp37
S'VERB'
p38
F1.0
s(lp39
(S'agree'
p40
I5
tp41
atp42
asS'en'
p43
(lp44
(g12
(dp45
S'ADV'
p46
F1.0
s(lp47
(g12
I0
tp48
atp49
a(g15
(dp50
g17
F1.0
s(lp51
(g15
I1
tp52
atp53
a(S'does'
p54
(dp55
S'VERB'
p56
F0.999988
sS'NOUN'
p57
F1.2e-05
s(lp58
(g54
I2
tp59
atp60
a(g26
(dp61
S'NOUN'
p62
F1e-06
sS'DET'
p63
F0.999999
s(lp64
(g26
I3
tp65
atp66
a(g33
(dp67
S'NOUN'
p68
F1.0
s(lp69
(g33
I4
tp70
atp71
a(g40
(dp72
S'VERB'
p73
F1.0
s(lp74
(g40
I5
tp75
atp76
a(S'that'
p77
(dp78
S'ADV'
p79
F0.000446
sS'DET'
p80
F0.002904
sS'ADP'
p81
F0.99665
s(lp82
(g77
I6
tp83
atp84
a(S'this'
p85
(dp86
S'ADV'
p87
F0.00012
sS'NOUN'
p88
F0.000278
sS'DET'
p89
F0.999602
s(lp90
(g85
I7
tp91
atp92
a(S'is'
p93
(dp94
S'VERB'
p95
F1.0
s(lp96
(g93
I8
tp97
atp98
a(S'an'
p99
(dp100
S'DET'
p101
F1.0
s(lp102
(g99
I9
tp103
atp104
a(S'example'
p105
(dp106
S'NOUN'
p107
F1.0
s(lp108
(g105
I10
tp109
atp110
a(S'of'
p111
(dp112
S'ADP'
p113
F1.0
s(lp114
(g111
I11
tp115
atp116
a(S'best'
p117
(dp118
S'ADV'
p119
F0.000147
sS'VERB'
p120
F1e-06
sS'ADJ'
p121
F0.999852
s(lp122
(g117
I12
tp123
atp124
a(S'practice'
p125
(dp126
S'VERB'
p127
F0.004885
sS'NOUN'
p128
F0.995116
s(lp129
(g125
I13
tp130
atp131
a(g15
(dp132
g17
F1.0
s(lp133
(g15
I14
tp134
atp135
a(S'that'
p136
(dp137
S'ADV'
p138
F0.001052
sS'DET'
p139
F0.24665099999999998
sS'ADP'
p140
F0.752297
s(lp141
(g136
I15
tp142
atp143
a(S'it'
p144
(dp145
S'PRON'
p146
F1.0
s(lp147
(g144
I16
tp148
atp149
a(S'should'
p150
(dp151
S'VERB'
p152
F1.0
s(lp153
(g150
I17
tp154
atp155
a(S'be'
p156
(dp157
S'VERB'
p158
F1.0
s(lp159
(g156
I18
tp160
atp161
a(S'shared'
p162
(dp163
S'VERB'
p164
F0.99071
sS'ADJ'
p165
F0.009289
s(lp166
(g162
I19
tp167
atp168
a(S'and'
p169
(dp170
S'CONJ'
p171
F0.999998
sS'NOUN'
p172
F2e-06
s(lp173
(g169
I20
tp174
atp175
a(S'consequently'
p176
(dp177
S'ADV'
p178
F1.0
s(lp179
(g176
I21
tp180
atp181
a(S'that'
p182
(dp183
S'ADV'
p184
F0.033892
sS'DET'
p185
F0.026691
sS'ADP'
p186
F0.939416
s(lp187
(g182
I22
tp188
atp189
a(S'it'
p190
(dp191
S'PRON'
p192
F1.0
s(lp193
(g190
I23
tp194
atp195
a(S'is'
p196
(dp197
S'VERB'
p198
F1.0
s(lp199
(g196
I24
tp200
atp201
a(S'necessary'
p202
(dp203
S'ADJ'
p204
F1.0
s(lp205
(g202
I25
tp206
atp207
a(S'that'
p208
(dp209
S'ADV'
p210
F0.000297
sS'DET'
p211
F5.9e-05
sS'ADP'
p212
F0.999644
s(lp213
(g208
I26
tp214
atp215
a(S'a'
p216
(dp217
S'NOUN'
p218
F0.0
sS'DET'
p219
F1.0
s(lp220
(g216
I27
tp221
atp222
a(S'suitable'
p223
(dp224
S'ADJ'
p225
F1.0
s(lp226
(g223
I28
tp227
atp228
a(S'eu-level'
p229
(dp230
S'NOUN'
p231
F0.258656
sS'VERB'
p232
F0.0
sS'ADJ'
p233
F0.741344
s(lp234
(g229
I29
tp235
atp236
a(S'platform'
p237
(dp238
S'NOUN'
p239
F1.0
s(lp240
(g237
I30
tp241
atp242
a(S'is'
p243
(dp244
S'VERB'
p245
F1.0
s(lp246
(g243
I31
tp247
atp248
a(S'put'
p249
(dp250
S'ADJ'
p251
F0.001753
sS'VERB'
p252
F0.994999
sS'NOUN'
p253
F0.003248
s(lp254
(g249
I32
tp255
atp256
a(S'in'
p257
(dp258
S'ADV'
p259
F0.000456
sS'PRT'
p260
F0.002864
sS'ADP'
p261
F0.99668
s(lp262
(g257
I33
tp263
atp264
a(S'place'
p265
(dp266
S'VERB'
p267
F0.002593
sS'NOUN'
p268
F0.997407
s(lp269
(g265
I34
tp270
atp271
a(S'to'
p272
(dp273
S'ADV'
p274
F0.0
sS'PRT'
p275
F1.0
sS'ADP'
p276
F0.0
s(lp277
(g272
I35
tp278
atp279
a(S'do'
p280
(dp281
S'VERB'
p282
F1.0
sS'NOUN'
p283
F0.0
s(lp284
(g280
I36
tp285
atp286
a(S'this'
p287
(dp288
S'ADV'
p289
F0.002477
sS'NOUN'
p290
F0.003612
sS'DET'
p291
F0.99391
s(lp292
(g287
I37
tp293
atp294
a(S'?'
p295
(dp296
g17
F1.0
s(lp297
(g295
I38
tp298
atp299
asS'nl'
p300
(lp301
(S'is'
p302
(dp303
S'VERB'
p304
F1.0
s(lp305
(g54
I2
tp306
atp307
a(S'de'
p308
(dp309
S'DET'
p310
F1.0
s(lp311
(g26
I3
tp312
atp313
a(S'raad'
p314
(dp315
S'VERB'
p316
F4e-06
sS'NOUN'
p317
F0.999996
s(lp318
(g33
I4
tp319
atp320
a(S'daarom'
p321
(dp322
S'ADV'
p323
F1.0
s(lp324
tp325
a(S'ook'
p326
(dp327
S'ADV'
p328
F1.0
s(lp329
(g12
I0
tp330
atp331
a(S'niet'
p332
(dp333
S'ADV'
p334
F0.99999
sS'PRON'
p335
F7e-06
sS'VERB'
p336
F3e-06
sS'X'
p337
F1e-06
s(lp338
tp339
a(S'van'
p340
(dp341
S'ADP'
p342
F1.0
s(lp343
tp344
a(S'mening'
p345
(dp346
S'NOUN'
p347
F1.0
s(lp348
(g40
I5
tp349
atp350
a(S'dat'
p351
(dp352
S'PRON'
p353
F0.023346
sS'CONJ'
p354
F0.976654
s(lp355
(g77
I6
tp356
atp357
a(S'dit'
p358
(dp359
S'PRON'
p360
F1.0
s(lp361
(g85
I7
tp362
atp363
a(S'een'
p364
(dp365
S'ADJ'
p366
F9e-06
sS'NUM'
p367
F0.0
sS'DET'
p368
F0.999987
sS'PRON'
p369
F4e-06
s(lp370
(g99
I9
tp371
atp372
a(S'voorbeeld'
p373
(dp374
S'NOUN'
p375
F1.0
s(lp376
(g105
I10
tp377
atp378
a(S'van'
p379
(dp380
S'ADP'
p381
F1.0
s(lp382
(g111
I11
tp383
atp384
a(S"'"
p385
(dp386
g17
F1.0
s(lp387
tp388
a(S'best'
p389
(dp390
S'ADV'
p391
F0.170171
sS'NOUN'
p392
F0.014526
sS'ADJ'
p393
F0.815302
s(lp394
(g117
I12
tp395
atp396
a(S'practice'
p397
(dp398
S'NOUN'
p399
F1.0
s(lp400
(g125
I13
tp401
atp402
a(g385
(dp403
g17
F1.0
s(lp404
tp405
a(S'is'
p406
(dp407
S'VERB'
p408
F1.0
s(lp409
(g15
I14
tp410
atp411
a(S'dat'
p412
(dp413
S'PRON'
p414
F0.642876
sS'CONJ'
p415
F0.357124
s(lp416
(g136
I15
tp417
atp418
a(S'moet'
p419
(dp420
S'VERB'
p421
F1.0
s(lp422
(g150
I17
tp423
atp424
a(S'worden'
p425
(dp426
S'VERB'
p427
F1.0
sS'NOUN'
p428
F0.0
s(lp429
(g156
I18
tp430
atp431
a(S'gedeeld'
p432
(dp433
S'VERB'
p434
F1.0
s(lp435
(g162
I19
tp436
atp437
a(S'en'
p438
(dp439
S'CONJ'
p440
F1.0
s(lp441
(g169
I20
tp442
atp443
a(S'dat'
p444
(dp445
S'PRON'
p446
F0.193478
sS'CONJ'
p447
F0.806522
s(lp448
(g182
I22
tp449
atp450
a(S'het'
p451
(dp452
S'PRON'
p453
F0.822556
sS'DET'
p454
F0.177444
s(lp455
(g190
I23
tp456
atp457
a(S'dus'
p458
(dp459
S'ADV'
p460
F0.99938
sS'CONJ'
p461
F0.00062
s(lp462
(g176
I21
tp463
atp464
a(S'noodzakelijk'
p465
(dp466
S'ADJ'
p467
F1.0
s(lp468
(g202
I25
tp469
atp470
a(S'is'
p471
(dp472
S'VERB'
p473
F1.0
s(lp474
(g196
I24
tp475
atp476
a(S'dat'
p477
(dp478
S'PRON'
p479
F0.135186
sS'CONJ'
p480
F0.864815
s(lp481
(g208
I26
tp482
atp483
a(S'hiervoor'
p484
(dp485
S'ADV'
p486
F1.0
s(lp487
(g280
I36
tp488
atp489
a(S'een'
p490
(dp491
S'ADJ'
p492
F2e-06
sS'PRON'
p493
F0.001135
sS'NUM'
p494
F0.0
sS'DET'
p495
F0.998863
s(lp496
(g216
I27
tp497
atp498
a(S'geschikt'
p499
(dp500
S'VERB'
p501
F0.942976
sS'ADJ'
p502
F0.057024
s(lp503
(g223
I28
tp504
atp505
a(S'platform'
p506
(dp507
S'NOUN'
p508
F1.0
s(lp509
(g237
I30
tp510
atp511
a(S'op'
p512
(dp513
S'ADV'
p514
F0.001801
sS'ADJ'
p515
F2e-06
sS'ADP'
p516
F0.998197
s(lp517
tp518
a(S'eu-niveau'
p519
(dp520
S'NOUN'
p521
F1.0
s(lp522
(g229
I29
tp523
atp524
a(S'in'
p525
(dp526
S'ADV'
p527
F0.003005
sS'VERB'
p528
F3e-06
sS'ADP'
p529
F0.996993
s(lp530
(g257
I33
tp531
atp532
a(S'het'
p533
(dp534
S'PRON'
p535
F0.000975
sS'DET'
p536
F0.999025
s(lp537
(g287
I37
tp538
atp539
a(S'leven'
p540
(dp541
S'VERB'
p542
F4.4999999999999996e-05
sS'NOUN'
p543
F0.999955
s(lp544
(g265
I34
tp545
atp546
a(S'wordt'
p547
(dp548
S'VERB'
p549
F1.0
s(lp550
(g243
I31
tp551
atp552
a(S'geroepen'
p553
(dp554
S'VERB'
p555
F0.999569
sS'ADJ'
p556
F0.000431
s(lp557
(g249
I32
tp558
atp559
a(g295
(dp560
g17
F1.0
s(lp561
(g295
I38
tp562
atp563
asS'de'
p564
(lp565
(S'stimmt'
p566
(dp567
S'VERB'
p568
F1.0
s(lp569
(g54
I2
tp570
atp571
a(S'mir'
p572
(dp573
S'PRON'
p574
F1.0
s(lp575
tp576
a(S'der'
p577
(dp578
S'PRON'
p579
F0.006637
sS'DET'
p580
F0.987696
s(lp581
(g26
I3
tp582
atp583
a(S'rat'
p584
(dp585
S'ADJ'
p586
F0.22974
sS'NOUN'
p587
F0.657278
s(lp588
(g33
I4
tp589
atp590
a(S'zu'
p591
(dp592
S'ADV'
p593
F0.001508
sS'PRT'
p594
F0.997777
s(lp595
(g40
I5
tp596
atp597
a(g15
(dp598
g17
F1.0
s(lp599
(g77
I6
tp600
atp601
a(S'dass'
p602
(dp603
S'CONJ'
p604
F1.0
s(lp605
(g182
I22
tp606
atp607
a(S'es'
p608
(dp609
S'PRON'
p610
F1.0
s(lp611
(g190
I23
tp612
atp613
a(S'sich'
p614
(dp615
S'PRON'
p616
F1.0
s(lp617
(g196
I24
tp618
atp619
a(S'hier'
p620
(dp621
S'ADV'
p622
F0.999989
sS'PRT'
p623
F1.1e-05
s(lp624
(g85
I7
tp625
atp626
a(S'um'
p627
(dp628
S'PRT'
p629
F0.000372
sS'ADP'
p630
F0.999342
s(lp631
(g93
I8
tp632
atp633
a(S'ein'
p634
(dp635
S'NUM'
p636
F0.000461
sS'DET'
p637
F0.999535
s(lp638
(g99
I9
tp639
atp640
a(S'nachahmenswertes'
p641
(dp642
S'ADJ'
p643
F1.0
s(lp644
tp645
a(S'beispiel'
p646
(dp647
S'NOUN'
p648
F0.996281
s(lp649
(g105
I10
tp650
atp651
a(S'handelt'
p652
(dp653
S'VERB'
p654
F1.0
s(lp655
(g125
I13
tp656
atp657
a(S'und'
p658
(dp659
S'CONJ'
p660
F1.0
s(lp661
(g169
I20
tp662
atp663
a(S'es'
p664
(dp665
S'PRON'
p666
F1.0
s(lp667
(g144
I16
tp668
atp669
a(S'daher'
p670
(dp671
S'ADV'
p672
F0.999034
s(lp673
(g176
I21
tp674
atp675
a(S'notwendig'
p676
(dp677
S'ADJ'
p678
F1.0
s(lp679
(g202
I25
tp680
atp681
a(S'ist'
p682
(dp683
S'VERB'
p684
F1.0
s(lp685
(g243
I31
tp686
atp687
a(g15
(dp688
g17
F1.0
s(lp689
tp690
a(S'daf\xc3\xbcr'
p691
(dp692
S'ADV'
p693
F1.0
s(lp694
(g208
I26
tp695
atp696
a(S'eine'
p697
(dp698
S'PRON'
p699
F0.000279
sS'DET'
p700
F0.999624
s(lp701
(g216
I27
tp702
atp703
a(S'geeignete'
p704
(dp705
S'ADJ'
p706
F1.0
s(lp707
(g223
I28
tp708
atp709
a(S'plattform'
p710
(dp711
S'ADJ'
p712
F0.002567
sS'NOUN'
p713
F0.995409
s(lp714
(g237
I30
tp715
atp716
a(S'auf'
p717
(dp718
S'PRT'
p719
F0.00191
sS'ADP'
p720
F0.99807
s(lp721
(g229
I29
tp722
atp723
a(S'eu-ebene'
p724
(dp725
S'NOUN'
p726
F0.074212
sS'ADJ'
p727
F0.917069
s(lp728
(g229
I29
tp729
atp730
a(S'ins'
p731
(dp732
S'ADP'
p733
F1.0
s(lp734
(g229
I29
tp735
atp736
a(S'leben'
p737
(dp738
S'VERB'
p739
F1.0
s(lp740
tp741
a(S'zu'
p742
(dp743
S'PRT'
p744
F0.999945
s(lp745
(g272
I35
tp746
atp747
a(S'rufen'
p748
(dp749
S'VERB'
p750
F1.0
s(lp751
(g229
I29
tp752
atp753
a(g295
(dp754
g17
F1.0
s(lp755
(g295
I38
tp756
atp757
asS'it'
p758
(lp759
(S'pertanto'
p760
(dp761
S'ADV'
p762
F1.0
s(lp763
(g12
I0
tp764
atp765
a(S'il'
p766
(dp767
S'DET'
p768
F1.0
s(lp769
(g26
I3
tp770
atp771
a(S'consiglio'
p772
(dp773
S'VERB'
p774
F0.008015
sS'NOUN'
p775
F0.991985
s(lp776
(g33
I4
tp777
atp778
a(S'concorda'
p779
(dp780
S'VERB'
p781
F1.0
s(lp782
(g40
I5
tp783
atp784
a(S'sul'
p785
(dp786
S'ADP'
p787
F1.0
s(lp788
tp789
a(S'fatto'
p790
(dp791
S'VERB'
p792
F0.012675
sS'NOUN'
p793
F0.987325
s(lp794
(g40
I5
tp795
atp796
a(S'che'
p797
(dp798
S'PRON'
p799
F0.946725
sS'CONJ'
p800
F0.053212
sS'ADJ'
p801
F6.3e-05
s(lp802
(g77
I6
tp803
atp804
a(S'si'
p805
(dp806
S'PRON'
p807
F1.0
sS'NOUN'
p808
F0.0
s(lp809
(g85
I7
tp810
atp811
a(S'tratti'
p812
(dp813
S'VERB'
p814
F0.9997240000000001
sS'NOUN'
p815
F0.000276
s(lp816
(g93
I8
tp817
atp818
a(S'di'
p819
(dp820
S'CONJ'
p821
F3e-06
sS'ADP'
p822
F0.999997
s(lp823
tp824
a(S'un'
p825
(dp826
S'PRON'
p827
F0.00267
sS'DEF'
p828
F0.99733
s(lp829
(g99
I9
tp830
atp831
a(S'esempio'
p832
(dp833
S'NOUN'
p834
F1.0
s(lp835
(g105
I10
tp836
atp837
a(S'di'
p838
(dp839
S'CONJ'
p840
F1.5e-05
sS'ADP'
p841
F0.999985
s(lp842
(g111
I11
tp843
atp844
a(S'buona'
p845
(dp846
S'NOUN'
p847
F0.012882
sS'ADJ'
p848
F0.987118
s(lp849
(g117
I12
tp850
atp851
a(S'prassi'
p852
(dp853
S'NOUN'
p854
F1.0
s(lp855
(g125
I13
tp856
atp857
a(g15
(dp858
g17
F1.0
s(lp859
(g15
I14
tp860
atp861
a(S'che'
p862
(dp863
S'PRON'
p864
F0.984116
sS'CONJ'
p865
F0.015871
sS'ADJ'
p866
F1.3e-05
s(lp867
(g136
I15
tp868
atp869
a(S'dovrebbe'
p870
(dp871
S'VERB'
p872
F1.0
s(lp873
(g150
I17
tp874
atp875
a(S'essere'
p876
(dp877
S'VERB'
p878
F0.999993
sS'NOUN'
p879
F7e-06
s(lp880
(g156
I18
tp881
atp882
a(S'condivisa'
p883
(dp884
S'VERB'
p885
F1.0
s(lp886
(g162
I19
tp887
atp888
a(S'e'
p889
(dp890
S'CONJ'
p891
F1.0
s(lp892
(g169
I20
tp893
atp894
a(S'che'
p895
(dp896
S'PRON'
p897
F0.946482
sS'CONJ'
p898
F0.050872
sS'ADJ'
p899
F0.002645
s(lp900
(g182
I22
tp901
atp902
a(S'di'
p903
(dp904
S'CONJ'
p905
F0.0
sS'ADP'
p906
F1.0
s(lp907
tp908
a(S'conseguenza'
p909
(dp910
S'NOUN'
p911
F1.0
s(lp912
(g176
I21
tp913
atp914
a(S'sia'
p915
(dp916
S'CONJ'
p917
F0.554913
sS'VERB'
p918
F0.44508699999999995
s(lp919
(g196
I24
tp920
atp921
a(S'necessario'
p922
(dp923
S'NOUN'
p924
F0.03851
sS'ADJ'
p925
F0.96149
s(lp926
(g202
I25
tp927
atp928
a(S'istituire'
p929
(dp930
S'VERB'
p931
F1.0
s(lp932
(g249
I32
tp933
atp934
a(S'una'
p935
(dp936
S'PRON'
p937
F0.000112
sS'DEF'
p938
F0.999888
s(lp939
(g216
I27
tp940
atp941
a(S'piattaforma'
p942
(dp943
S'NOUN'
p944
F1.0
s(lp945
(g237
I30
tp946
atp947
a(S'opportuna'
p948
(dp949
S'ADJ'
p950
F1.0
s(lp951
(g223
I28
tp952
atp953
a(g216
(dp954
S'CONJ'
p955
F0.001546
sS'ADP'
p956
F0.998454
s(lp957
(g229
I29
tp958
atp959
a(S'tal'
p960
(dp961
S'PRON'
p962
F1.0
s(lp963
(g287
I37
tp964
atp965
a(S'proposito'
p966
(dp967
S'NOUN'
p968
F1.0
s(lp969
(g280
I36
tp970
atp971
a(g216
(dp972
S'CONJ'
p973
F0.000263
sS'ADP'
p974
F0.999737
s(lp975
(g229
I29
tp976
atp977
a(S'livello'
p978
(dp979
S'VERB'
p980
F0.000228
sS'NOUN'
p981
F0.999772
s(lp982
(g229
I29
tp983
atp984
a(S"dell'"
p985
(dp986
S'ADJ'
p987
F0.040675
sS'VERB'
p988
F0.0065840000000000004
sS'NOUN'
p989
F0.952742
s(lp990
tp991
a(S'ue'
p992
(dp993
S'ADJ'
p994
F0.002293
sS'VERB'
p995
F0.022277
sS'NOUN'
p996
F0.97543
s(lp997
(g229
I29
tp998
atp999
a(g295
(dp1000
g17
F1.0
s(lp1001
(g295
I38
tp1002
atp1003
asS'sk'
p1004
(lp1005
(S's\xc3\xbahlas\xc3\xad'
p1006
(dp1007
S'VERB'
p1008
F1.0
s(lp1009
(g54
I2
tp1010
atp1011
a(S'preto'
p1012
(dp1013
S'PRON'
p1014
F0.528376
sS'CONJ'
p1015
F0.347119
sg337
F0.124505
s(lp1016
(g12
I0
tp1017
atp1018
a(S'rada'
p1019
(dp1020
S'ADJ'
p1021
F0.273154
sS'NOUN'
p1022
F0.726846
s(lp1023
(g33
I4
tp1024
atp1025
a(S's'
p1026
(dp1027
g337
F0.000837
sS'CONJ'
p1028
F0.000312
sS'NOUN'
p1029
F7.3e-05
sS'ADP'
p1030
F0.998664
sS'PRT'
p1031
F0.000114
s(lp1032
tp1033
a(S't\xc3\xbdm'
p1034
(dp1035
S'PRON'
p1036
F0.9999260000000001
sS'CONJ'
p1037
F7.4e-05
s(lp1038
(g40
I5
tp1039
atp1040
a(g15
(dp1041
g17
F1.0
s(lp1042
(g15
I1
tp1043
atp1044
a(S'\xc5\xbee'
p1045
(dp1046
g337
F0.001181
sS'CONJ'
p1047
F0.998819
s(lp1048
(g77
I6
tp1049
atp1050
a(S'ide'
p1051
(dp1052
S'VERB'
p1053
F1.0
s(lp1054
(g93
I8
tp1055
atp1056
a(S'o'
p1057
(dp1058
g337
F0.000917
sS'CONJ'
p1059
F1.4e-05
sS'NOUN'
p1060
F1.4e-05
sS'ADP'
p1061
F0.999055
s(lp1062
(g99
I9
tp1063
atp1064
a(S'pr\xc3\xadklad'
p1065
(dp1066
S'NOUN'
p1067
F1.0
s(lp1068
(g105
I10
tp1069
atp1070
a(S'najlep\xc5\xa1ieho'
p1071
(dp1072
S'ADJ'
p1073
F1.0
s(lp1074
(g117
I12
tp1075
atp1076
a(S'postupu'
p1077
(dp1078
S'NOUN'
p1079
F1.0
s(lp1080
(g125
I13
tp1081
atp1082
a(g15
(dp1083
g17
F1.0
s(lp1084
(g15
I14
tp1085
atp1086
a(S'ktor\xc3\xbd'
p1087
(dp1088
S'PRON'
p1089
F1.0
s(lp1090
(g136
I15
tp1091
atp1092
a(S'by'
p1093
(dp1094
S'PRT'
p1095
F0.999996
sg337
F4e-06
s(lp1096
tp1097
a(S'mal'
p1098
(dp1099
g337
F0.0
sS'VERB'
p1100
F0.9999990000000001
s(lp1101
(g150
I17
tp1102
atp1103
a(S'by\xc5\xa5'
p1104
(dp1105
S'VERB'
p1106
F1.0
s(lp1107
(g156
I18
tp1108
atp1109
a(S'zdie\xc4\xbean\xc3\xbd'
p1110
(dp1111
S'VERB'
p1112
F1.0
s(lp1113
(g162
I19
tp1114
atp1115
a(g15
(dp1116
g17
F1.0
s(lp1117
tp1118
a(g216
(dp1119
g337
F0.000222
sS'CONJ'
p1120
F0.999773
sS'NOUN'
p1121
F4.9999999999999996e-06
sS'ADP'
p1122
F0.0
sS'PRT'
p1123
F1e-06
s(lp1124
(g169
I20
tp1125
atp1126
a(S'\xc5\xbee'
p1127
(dp1128
g337
F0.005004000000000001
sS'CONJ'
p1129
F0.994997
s(lp1130
(g182
I22
tp1131
atp1132
a(S'je'
p1133
(dp1134
S'PRON'
p1135
F4.9e-05
sS'VERB'
p1136
F0.999914
sg337
F3.7000000000000005e-05
s(lp1137
(g196
I24
tp1138
atp1139
a(S'v'
p1140
(dp1141
g337
F0.00019600000000000002
sS'ADP'
p1142
F0.999804
s(lp1143
(g176
I21
tp1144
atp1145
a(S'kone\xc4\x8dnom'
p1146
(dp1147
S'ADJ'
p1148
F1.0
s(lp1149
tp1150
a(S'd\xc3\xb4sledku'
p1151
(dp1152
S'NOUN'
p1153
F1.0
s(lp1154
(g176
I21
tp1155
atp1156
a(S'potrebn\xc3\xa9'
p1157
(dp1158
S'ADJ'
p1159
F1.0
s(lp1160
(g202
I25
tp1161
atp1162
a(S'zavies\xc5\xa5'
p1163
(dp1164
S'VERB'
p1165
F1.0
s(lp1166
(g249
I32
tp1167
atp1168
a(S'vhodn\xc3\xba'
p1169
(dp1170
S'ADJ'
p1171
F1.0
s(lp1172
(g223
I28
tp1173
atp1174
a(S'platformu'
p1175
(dp1176
S'NOUN'
p1177
F1.0
s(lp1178
(g237
I30
tp1179
atp1180
a(S'na'
p1181
(dp1182
g337
F0.000156
sS'CONJ'
p1183
F1.5e-05
sS'ADP'
p1184
F0.999826
sS'PRT'
p1185
F3e-06
s(lp1186
(g229
I29
tp1187
atp1188
a(S'\xc3\xbarovni'
p1189
(dp1190
S'NOUN'
p1191
F1.0
s(lp1192
(g229
I29
tp1193
atp1194
a(S'e\xc3\x9a'
p1195
(dp1196
S'ADV'
p1197
F0.007268
sS'ADJ'
p1198
F0.37807599999999997
sS'VERB'
p1199
F0.231318
sS'NOUN'
p1200
F0.36549
sg337
F0.017849
s(lp1201
tp1202
a(g15
(dp1203
g17
F1.0
s(lp1204
tp1205
a(S'ktor\xc3\xa1'
p1206
(dp1207
S'PRON'
p1208
F1.0
s(lp1209
(g208
I26
tp1210
atp1211
a(S'by'
p1212
(dp1213
S'PRT'
p1214
F0.999996
sg337
F3e-06
s(lp1215
(g216
I27
tp1216
atp1217
a(S'rie\xc5\xa1ila'
p1218
(dp1219
S'VERB'
p1220
F1.0
s(lp1221
(g229
I29
tp1222
atp1223
a(S't\xc3\xbato'
p1224
(dp1225
S'PRON'
p1226
F1.0
s(lp1227
(g287
I37
tp1228
atp1229
a(S'oblas\xc5\xa5'
p1230
(dp1231
S'NOUN'
p1232
F1.0
s(lp1233
(g257
I33
tp1234
atp1235
a(S'probl\xc3\xa9mov'
p1236
(dp1237
S'NOUN'
p1238
F1.0
s(lp1239
(g280
I36
tp1240
atp1241
a(g295
(dp1242
g17
F1.0
s(lp1243
(g295
I38
tp1244
atp1245
asS'pl'
p1246
(lp1247
(S'czy'
p1248
(dp1249
S'PRT'
p1250
F0.39869
sS'CONJ'
p1251
F0.6011890000000001
sS'NUM'
p1252
F0.000118
sS'NOUN'
p1253
F3e-06
s(lp1254
(g54
I2
tp1255
atp1256
a(S'rada'
p1257
(dp1258
S'ADJ'
p1259
F0.00284
sS'NOUN'
p1260
F0.99716
s(lp1261
(g33
I4
tp1262
atp1263
a(S'zgodzi'
p1264
(dp1265
S'VERB'
p1266
F1.0
s(lp1267
(g40
I5
tp1268
atp1269
a(S'si\xc4\x99'
p1270
(dp1271
S'PRT'
p1272
F1.0
s(lp1273
(g40
I5
tp1274
atp1275
a(S'ze'
p1276
(dp1277
S'PRT'
p1278
F3e-05
sS'CONJ'
p1279
F7e-06
sS'ADP'
p1280
F0.999964
s(lp1281
tp1282
a(S'mn\xc4\x85'
p1283
(dp1284
S'PRON'
p1285
F1.0
s(lp1286
(g40
I5
tp1287
atp1288
a(g15
(dp1289
g337
F0.0
sg17
F1.0
s(lp1290
tp1291
a(S'\xc5\xbce'
p1292
(dp1293
S'PRT'
p1294
F0.001163
sS'CONJ'
p1295
F0.998837
s(lp1296
(g77
I6
tp1297
atp1298
a(S'jest'
p1299
(dp1300
S'VERB'
p1301
F1.0
s(lp1302
(g93
I8
tp1303
atp1304
a(S'to'
p1305
(dp1306
S'NOUN'
p1307
F0.204841
sS'ADP'
p1308
F1.1e-05
sS'PRT'
p1309
F0.281581
sg337
F1e-06
sS'CONJ'
p1310
F0.126842
sS'ADJ'
p1311
F0.386725
s(lp1312
(g85
I7
tp1313
atp1314
a(S'przyk\xc5\x82ad'
p1315
(dp1316
S'NOUN'
p1317
F1.0
s(lp1318
(g105
I10
tp1319
atp1320
a(S'najlepszych'
p1321
(dp1322
S'ADJ'
p1323
F1.0
s(lp1324
(g117
I12
tp1325
atp1326
a(S'praktyk'
p1327
(dp1328
S'NOUN'
p1329
F1.0
s(lp1330
(g125
I13
tp1331
atp1332
a(g15
(dp1333
g337
F0.0
sg17
F1.0
s(lp1334
(g15
I14
tp1335
atp1336
a(S'kt\xc3\xb3re'
p1337
(dp1338
S'ADJ'
p1339
F0.9999999999999999
s(lp1340
(g136
I15
tp1341
atp1342
a(S'powinny'
p1343
(dp1344
S'VERB'
p1345
F0.999999
s(lp1346
(g150
I17
tp1347
atp1348
a(S'by\xc4\x87'
p1349
(dp1350
S'VERB'
p1351
F1.0
s(lp1352
(g156
I18
tp1353
atp1354
a(S'upowszechniane'
p1355
(dp1356
S'ADV'
p1357
F0.00851
sS'ADJ'
p1358
F0.19130700000000003
sS'VERB'
p1359
F0.602407
sS'NOUN'
p1360
F0.19777899999999998
s(lp1361
(g162
I19
tp1362
atp1363
a(g295
(dp1364
g17
F1.0
s(lp1365
tp1366
a(S'czy'
p1367
(dp1368
S'PRT'
p1369
F0.555493
sS'CONJ'
p1370
F0.444422
sS'NUM'
p1371
F8e-05
sS'NOUN'
p1372
F5e-06
s(lp1373
(g169
I20
tp1374
atp1375
a(S'w'
p1376
(dp1377
S'ADJ'
p1378
F0.0
sg337
F0.0
sS'NOUN'
p1379
F1e-06
sS'ADP'
p1380
F0.999998
s(lp1381
(g176
I21
tp1382
atp1383
a(S'zwi\xc4\x85zku'
p1384
(dp1385
S'NOUN'
p1386
F1.0
s(lp1387
(g176
I21
tp1388
atp1389
a(S'z'
p1390
(dp1391
S'PRT'
p1392
F2.4e-05
sS'VERB'
p1393
F1.1e-05
sS'NOUN'
p1394
F1e-06
sS'ADP'
p1395
F0.9999619999999999
sg337
F2e-06
s(lp1396
tp1397
a(S'tym'
p1398
(dp1399
S'ADV'
p1400
F0.000577
sS'ADJ'
p1401
F0.139651
sS'CONJ'
p1402
F0.000188
sS'NOUN'
p1403
F0.859542
sS'PRT'
p1404
F4.1e-05
s(lp1405
(g176
I21
tp1406
atp1407
a(S'nie'
p1408
(dp1409
S'ADV'
p1410
F1e-05
sS'PRT'
p1411
F0.993988
sS'CONJ'
p1412
F0.005941
sS'NOUN'
p1413
F1e-05
sS'PRON'
p1414
F5.099999999999999e-05
s(lp1415
(g190
I23
tp1416
atp1417
a(S'powinna'
p1418
(dp1419
S'VERB'
p1420
F1.0
s(lp1421
(g196
I24
tp1422
atp1423
a(S'zosta\xc4\x87'
p1424
(dp1425
S'VERB'
p1426
F1.0
s(lp1427
(g216
I27
tp1428
atp1429
a(S'utworzona'
p1430
(dp1431
S'VERB'
p1432
F1.0
s(lp1433
(g229
I29
tp1434
atp1435
a(S'odpowiednia'
p1436
(dp1437
S'ADJ'
p1438
F1.0
s(lp1439
(g223
I28
tp1440
atp1441
a(S'platforma'
p1442
(dp1443
S'NOUN'
p1444
F1.0
s(lp1445
(g237
I30
tp1446
atp1447
a(S'na'
p1448
(dp1449
g337
F2e-06
sS'VERB'
p1450
F1e-06
sS'NOUN'
p1451
F0.0
sS'ADP'
p1452
F0.999997
sS'PRT'
p1453
F0.0
s(lp1454
(g229
I29
tp1455
atp1456
a(S'szczeblu'
p1457
(dp1458
S'NOUN'
p1459
F1.0
s(lp1460
tp1461
a(S'europejskim'
p1462
(dp1463
S'ADJ'
p1464
F1.0
s(lp1465
(g229
I29
tp1466
atp1467
a(g15
(dp1468
g337
F0.0
sg17
F1.0
s(lp1469
tp1470
a(S'aby'
p1471
(dp1472
S'PRT'
p1473
F0.00155
sS'CONJ'
p1474
F0.99845
s(lp1475
(g272
I35
tp1476
atp1477
a(S'to'
p1478
(dp1479
S'NOUN'
p1480
F0.018682999999999998
sS'ADP'
p1481
F0.0
sS'PRT'
p1482
F0.013369
sg337
F0.0
sS'CONJ'
p1483
F0.000699
sS'ADJ'
p1484
F0.9672489999999999
s(lp1485
(g287
I37
tp1486
atp1487
a(S'zrealizowa\xc4\x87'
p1488
(dp1489
S'VERB'
p1490
F1.0
s(lp1491
(g280
I36
tp1492
atp1493
a(g295
(dp1494
g17
F1.0
s(lp1495
(g295
I38
tp1496
atp1497
asS'sl'
p1498
(lp1499
(S'ali'
p1500
(dp1501
S'ADV'
p1502
F0.038045
sS'CONJ'
p1503
F0.961955
s(lp1504
tp1505
a(S'se'
p1506
(dp1507
S'PRON'
p1508
F0.999981
sg337
F1.9e-05
s(lp1509
(g54
I2
tp1510
atp1511
a(S'zato'
p1512
(dp1513
S'ADV'
p1514
F0.562083
sS'CONJ'
p1515
F0.437917
s(lp1516
(g12
I0
tp1517
atp1518
a(S'svet'
p1519
(dp1520
S'NOUN'
p1521
F1.0
s(lp1522
(g33
I4
tp1523
atp1524
a(S'strinja'
p1525
(dp1526
S'VERB'
p1527
F1.0
s(lp1528
(g40
I5
tp1529
atp1530
a(g15
(dp1531
g17
F1.0
s(lp1532
(g15
I1
tp1533
atp1534
a(S'da'
p1535
(dp1536
S'PRT'
p1537
F4e-06
sS'CONJ'
p1538
F0.999979
sS'VERB'
p1539
F1.7e-05
sg337
F1e-06
s(lp1540
(g77
I6
tp1541
atp1542
a(S'je'
p1543
(dp1544
S'PRON'
p1545
F0.00117
sS'VERB'
p1546
F0.998829
sg337
F2e-06
s(lp1547
(g93
I8
tp1548
atp1549
a(S'to'
p1550
(dp1551
S'PRON'
p1552
F0.999974
sg337
F2.5e-05
s(lp1553
(g85
I7
tp1554
atp1555
a(S'primer'
p1556
(dp1557
S'NOUN'
p1558
F1.0
s(lp1559
(g105
I10
tp1560
atp1561
a(S'najbolj\xc5\xa1e'
p1562
(dp1563
S'ADJ'
p1564
F1.0000010000000001
s(lp1565
(g117
I12
tp1566
atp1567
a(S'prakse'
p1568
(dp1569
S'NOUN'
p1570
F1.0
s(lp1571
(g125
I13
tp1572
atp1573
a(g15
(dp1574
g17
F1.0
s(lp1575
(g15
I14
tp1576
atp1577
a(S'da'
p1578
(dp1579
S'PRT'
p1580
F5e-06
sS'CONJ'
p1581
F0.99997
sS'VERB'
p1582
F2.4e-05
sg337
F0.0
s(lp1583
(g136
I15
tp1584
atp1585
a(S'se'
p1586
(dp1587
S'PRON'
p1588
F1.0
sg337
F0.0
s(lp1589
(g144
I16
tp1590
atp1591
a(S'mora'
p1592
(dp1593
S'VERB'
p1594
F0.999847
sS'NOUN'
p1595
F0.000153
s(lp1596
(g150
I17
tp1597
atp1598
a(S'raz\xc5\xa1iriti'
p1599
(dp1600
S'VERB'
p1601
F1.0
s(lp1602
(g162
I19
tp1603
atp1604
a(S'in'
p1605
(dp1606
S'ADV'
p1607
F0.000553
sg337
F7e-06
sS'CONJ'
p1608
F0.999415
sS'NOUN'
p1609
F2.5e-05
s(lp1610
(g169
I20
tp1611
atp1612
a(S'posledi\xc4\x8dno'
p1613
(dp1614
S'ADV'
p1615
F1.0
s(lp1616
(g176
I21
tp1617
atp1618
a(S'da'
p1619
(dp1620
S'PRT'
p1621
F0.000342
sS'CONJ'
p1622
F0.988234
sS'VERB'
p1623
F0.011419
sg337
F5e-06
s(lp1624
(g182
I22
tp1625
atp1626
a(S'se'
p1627
(dp1628
S'PRON'
p1629
F1.0
sg337
F0.0
s(lp1630
(g196
I24
tp1631
atp1632
a(S'uvede'
p1633
(dp1634
S'VERB'
p1635
F1.0
s(lp1636
(g229
I29
tp1637
atp1638
a(S'ustrezna'
p1639
(dp1640
S'ADJ'
p1641
F1.0
s(lp1642
(g202
I25
tp1643
atp1644
a(S'platforma'
p1645
(dp1646
S'ADJ'
p1647
F0.028438
sS'VERB'
p1648
F0.0069359999999999995
sS'NOUN'
p1649
F0.9646240000000001
s(lp1650
(g237
I30
tp1651
atp1652
a(S'na'
p1653
(dp1654
S'ADP'
p1655
F1.0
s(lp1656
tp1657
a(S'evropski'
p1658
(dp1659
S'ADJ'
p1660
F0.9999999999999999
s(lp1661
(g223
I28
tp1662
atp1663
a(S'ravni'
p1664
(dp1665
S'ADJ'
p1666
F1.7e-05
sS'NOUN'
p1667
F0.999983
s(lp1668
(g229
I29
tp1669
atp1670
a(g15
(dp1671
g17
F1.0
s(lp1672
tp1673
a(S'da'
p1674
(dp1675
S'PRT'
p1676
F0.000137
sS'CONJ'
p1677
F0.999855
sS'VERB'
p1678
F8e-06
sg337
F0.0
s(lp1679
(g208
I26
tp1680
atp1681
a(S'bi'
p1682
(dp1683
g337
F3e-06
sS'VERB'
p1684
F0.999997
s(lp1685
(g216
I27
tp1686
atp1687
a(S'lahko'
p1688
(dp1689
S'ADV'
p1690
F0.999942
sS'ADJ'
p1691
F5.8e-05
s(lp1692
(g272
I35
tp1693
atp1694
a(S'to'
p1695
(dp1696
S'PRON'
p1697
F0.9999230000000001
sg337
F7.6e-05
s(lp1698
(g287
I37
tp1699
atp1700
a(S'dosegli'
p1701
(dp1702
S'VERB'
p1703
F1.0
s(lp1704
(g280
I36
tp1705
atp1706
a(g295
(dp1707
g17
F1.0
s(lp1708
(g295
I38
tp1709
atp1710
asS'es'
p1711
(lp1712
(S'por'
p1713
(dp1714
S'CONJ'
p1715
F1.0
s(lp1716
(g12
I0
tp1717
atp1718
a(S'lo'
p1719
(dp1720
S'CONJ'
p1721
F1.0
s(lp1722
tp1723
a(S'tanto'
p1724
(dp1725
S'CONJ'
p1726
F1.0
s(lp1727
(g12
I0
tp1728
atp1729
a(g15
(dp1730
g17
F1.0
s(lp1731
(g15
I1
tp1732
atp1733
a(S'\xc2\xbf'
p1734
(dp1735
S'PRON'
p1736
F0.135557
sg17
F0.864443
s(lp1737
tp1738
a(S'est\xc3\xa1'
p1739
(dp1740
S'VERB'
p1741
F1.0
s(lp1742
(g54
I2
tp1743
atp1744
a(S'de'
p1745
(dp1746
g337
F1.2e-05
sS'CONJ'
p1747
F1e-06
sS'ADP'
p1748
F0.999988
s(lp1749
tp1750
a(S'acuerdo'
p1751
(dp1752
S'VERB'
p1753
F0.024379
sS'NOUN'
p1754
F0.975621
s(lp1755
tp1756
a(S'el'
p1757
(dp1758
S'PRON'
p1759
F1.1e-05
sS'DET'
p1760
F0.999989
s(lp1761
(g26
I3
tp1762
atp1763
a(S'consejo'
p1764
(dp1765
S'NOUN'
p1766
F1.0
s(lp1767
(g33
I4
tp1768
atp1769
a(S'en'
p1770
(dp1771
g337
F0.0
sS'CONJ'
p1772
F0.00012
sS'ADP'
p1773
F0.99988
s(lp1774
(g40
I5
tp1775
atp1776
a(S'que'
p1777
(dp1778
g337
F0.0
sS'CONJ'
p1779
F1.0
s(lp1780
(g77
I6
tp1781
atp1782
a(S'\xc3\xa9ste'
p1783
(dp1784
S'PRON'
p1785
F1.0
s(lp1786
(g85
I7
tp1787
atp1788
a(S'es'
p1789
(dp1790
S'VERB'
p1791
F1.0
s(lp1792
(g93
I8
tp1793
atp1794
a(S'un'
p1795
(dp1796
g337
F4e-06
sS'DET'
p1797
F0.999996
s(lp1798
(g99
I9
tp1799
atp1800
a(S'ejemplo'
p1801
(dp1802
S'NOUN'
p1803
F1.0
s(lp1804
(g105
I10
tp1805
atp1806
a(S'de'
p1807
(dp1808
g337
F0.000301
sS'CONJ'
p1809
F0.000813
sS'ADP'
p1810
F0.998886
s(lp1811
(g111
I11
tp1812
atp1813
a(S'mejor'
p1814
(dp1815
S'ADJ'
p1816
F1.0
s(lp1817
(g117
I12
tp1818
atp1819
a(S'pr\xc3\xa1ctica'
p1820
(dp1821
S'NOUN'
p1822
F0.467459
sS'ADJ'
p1823
F0.532541
s(lp1824
(g125
I13
tp1825
atp1826
a(S'que'
p1827
(dp1828
g337
F0.0
sS'CONJ'
p1829
F1.0
s(lp1830
(g136
I15
tp1831
atp1832
a(S'deber\xc3\xada'
p1833
(dp1834
S'VERB'
p1835
F1.0
s(lp1836
(g150
I17
tp1837
atp1838
a(S'ser'
p1839
(dp1840
S'VERB'
p1841
F1.0
sS'NOUN'
p1842
F0.0
s(lp1843
(g156
I18
tp1844
atp1845
a(S'compartido'
p1846
(dp1847
S'VERB'
p1848
F1.0
s(lp1849
(g162
I19
tp1850
atp1851
a(S'y'
p1852
(dp1853
g337
F0.000356
sS'CONJ'
p1854
F0.999644
s(lp1855
(g169
I20
tp1856
atp1857
a(g15
(dp1858
g17
F1.0
s(lp1859
(g176
I21
tp1860
atp1861
a(S'en'
p1862
(dp1863
S'ADV'
p1864
F1.0
s(lp1865
tp1866
a(S'consecuencia'
p1867
(dp1868
S'ADV'
p1869
F1.0
s(lp1870
(g176
I21
tp1871
atp1872
a(g15
(dp1873
g17
F1.0
s(lp1874
tp1875
a(S'que'
p1876
(dp1877
g337
F0.0
sS'CONJ'
p1878
F1.0
s(lp1879
(g182
I22
tp1880
atp1881
a(S'es'
p1882
(dp1883
S'VERB'
p1884
F1.0
s(lp1885
(g196
I24
tp1886
atp1887
a(S'necesario'
p1888
(dp1889
S'ADJ'
p1890
F1.0
s(lp1891
(g202
I25
tp1892
atp1893
a(S'que'
p1894
(dp1895
g337
F1e-06
sS'CONJ'
p1896
F0.999999
s(lp1897
(g208
I26
tp1898
atp1899
a(S'se'
p1900
(dp1901
S'PRON'
p1902
F0.999999
sS'VERB'
p1903
F0.0
s(lp1904
(g243
I31
tp1905
atp1906
a(S'implante'
p1907
(dp1908
S'VERB'
p1909
F0.999893
sS'NOUN'
p1910
F0.000107
s(lp1911
(g229
I29
tp1912
atp1913
a(S'una'
p1914
(dp1915
S'DET'
p1916
F1.0
s(lp1917
(g216
I27
tp1918
atp1919
a(S'plataforma'
p1920
(dp1921
S'NOUN'
p1922
F1.0
s(lp1923
(g237
I30
tp1924
atp1925
a(g216
(dp1926
g337
F0.001199
sS'CONJ'
p1927
F7.1e-05
sS'ADP'
p1928
F0.99873
s(lp1929
(g257
I33
tp1930
atp1931
a(S'escala'
p1932
(dp1933
S'VERB'
p1934
F1.2e-05
sS'NOUN'
p1935
F0.999988
s(lp1936
(g229
I29
tp1937
atp1938
a(S'de'
p1939
(dp1940
g337
F0.0
sS'CONJ'
p1941
F1.7e-05
sS'ADP'
p1942
F0.999983
s(lp1943
tp1944
a(S'la'
p1945
(dp1946
g337
F0.0
sS'PRON'
p1947
F0.0
sS'DET'
p1948
F0.999999
sS'NOUN'
p1949
F0.0
s(lp1950
tp1951
a(S'ue'
p1952
(dp1953
S'VERB'
p1954
F5e-06
sS'NOUN'
p1955
F0.999994
s(lp1956
(g229
I29
tp1957
atp1958
a(S'para'
p1959
(dp1960
S'CONJ'
p1961
F0.896895
sS'ADP'
p1962
F0.103105
s(lp1963
(g272
I35
tp1964
atp1965
a(S'hacerlo'
p1966
(dp1967
S'VERB'
p1968
F1.0
s(lp1969
(g280
I36
tp1970
atp1971
a(S'as\xc3\xad'
p1972
(dp1973
S'ADV'
p1974
F0.993941
sS'CONJ'
p1975
F0.006059
s(lp1976
(g287
I37
tp1977
atp1978
a(g295
(dp1979
g17
F1.0
s(lp1980
(g295
I38
tp1981
atp1982
as.