(dp0
S'fr'
p1
(lp2
(S'avant'
p3
(dp4
S'ADV'
p5
F0.008726
sS'NOUN'
p6
F0.000221
sS'ADP'
p7
F0.991053
s(lp8
(S'before'
p9
I0
tp10
atp11
a(S'les'
p12
(dp13
S'PRON'
p14
F5.6e-05
sS'DET'
p15
F0.999942
sS'ADP'
p16
F2e-06
s(lp17
(S'the'
p18
I1
tp19
atp20
a(S'r\xc3\xa9f\xc3\xa9rendums'
p21
(dp22
S'NOUN'
p23
F1.0
s(lp24
(S'referendums'
p25
I5
tp26
atp27
a(S'fran\xc3\xa7ais'
p28
(dp29
S'NOUN'
p30
F0.000767
sS'ADJ'
p31
F0.999233
s(lp32
(S'french'
p33
I2
tp34
atp35
a(S'et'
p36
(dp37
S'CONJ'
p38
F1.0
s(lp39
(S'and'
p40
I3
tp41
atp42
a(S'hollandais'
p43
(dp44
S'NOUN'
p45
F0.082824
sS'ADJ'
p46
F0.917176
s(lp47
(S'dutch'
p48
I4
tp49
atp50
a(S','
p51
(dp52
S'.'
p53
F1.0
s(lp54
(g51
I6
tp55
atp56
a(S'nous'
p57
(dp58
S'PRON'
p59
F1.0
s(lp60
(S'we'
p61
I7
tp62
atp63
a(S'avons'
p64
(dp65
S'VERB'
p66
F1.0
s(lp67
tp68
a(S'entendu'
p69
(dp70
S'VERB'
p71
F1.0
s(lp72
(S'heard'
p73
I8
tp74
atp75
a(S'beaucoup'
p76
(dp77
S'ADV'
p78
F1.0
s(lp79
(S'much'
p80
I9
tp81
atp82
a(S'de'
p83
(dp84
S'ADP'
p85
F1.0
s(lp86
tp87
a(S'discussions'
p88
(dp89
S'NOUN'
p90
F1.0
s(lp91
(S'talk'
p92
I11
tp93
atp94
a(S'vides'
p95
(dp96
S'NOUN'
p97
F0.029687
sS'VERB'
p98
F0.00815
sS'ADJ'
p99
F0.962162
s(lp100
(S'empty'
p101
I10
tp102
atp103
a(S'dans'
p104
(dp105
S'NOUN'
p106
F4.9e-05
sS'ADP'
p107
F0.999951
s(lp108
(S'in'
p109
I12
tp110
atp111
a(S'ce'
p112
(dp113
S'PRON'
p114
F1.0
s(lp115
(S'this'
p116
I13
tp117
atp118
a(S'parlement'
p119
(dp120
S'NOUN'
p121
F1.0
s(lp122
(S'house'
p123
I14
tp124
atp125
a(S'sur'
p126
(dp127
S'ADP'
p128
F1.0
s(lp129
(S'about'
p130
I15
tp131
atp132
a(S'la'
p133
(dp134
S'PRON'
p135
F1.2e-05
sS'DET'
p136
F0.999988
sS'NOUN'
p137
F0.0
s(lp138
(S'the'
p139
I16
tp140
atp141
a(S'volont\xc3\xa9'
p142
(dp143
S'NOUN'
p144
F1.0
s(lp145
(S'will'
p146
I17
tp147
atp148
a(S'des'
p149
(dp150
S'DET'
p151
F2.1e-05
sS'ADP'
p152
F0.999979
s(lp153
(S'of'
p154
I18
tp155
atp156
a(S'peuples'
p157
(dp158
S'VERB'
p159
F0.0
sS'NOUN'
p160
F1.0
s(lp161
(S'people'
p162
I20
tp163
atp164
a(g53
(dp165
g53
F1.0
s(lp166
(g53
I21
tp167
atp168
asS'en'
p169
(lp170
(g9
(dp171
S'ADV'
p172
F0.035311
sS'ADP'
p173
F0.964689
s(lp174
(g9
I0
tp175
atp176
a(g18
(dp177
S'NOUN'
p178
F4e-06
sS'DET'
p179
F0.999996
s(lp180
(g18
I1
tp181
atp182
a(g33
(dp183
S'ADV'
p184
F0.00024
sS'ADJ'
p185
F0.063137
sS'VERB'
p186
F0.0024460000000000003
sS'NOUN'
p187
F0.9341759999999999
s(lp188
(g33
I2
tp189
atp190
a(g40
(dp191
S'CONJ'
p192
F0.999996
sS'NOUN'
p193
F4e-06
s(lp194
(g40
I3
tp195
atp196
a(g48
(dp197
S'NOUN'
p198
F1.0
s(lp199
(g48
I4
tp200
atp201
a(g25
(dp202
S'NOUN'
p203
F1.0
s(lp204
(g25
I5
tp205
atp206
a(g51
(dp207
g53
F1.0
s(lp208
(g51
I6
tp209
atp210
a(g61
(dp211
S'PRON'
p212
F1.0
s(lp213
(g61
I7
tp214
atp215
a(g73
(dp216
S'VERB'
p217
F1.0
s(lp218
(g73
I8
tp219
atp220
a(g80
(dp221
S'ADV'
p222
F0.715816
sS'ADJ'
p223
F0.284184
s(lp224
(g80
I9
tp225
atp226
a(g101
(dp227
S'VERB'
p228
F0.020081
sS'ADJ'
p229
F0.979919
s(lp230
(g101
I10
tp231
atp232
a(g92
(dp233
S'VERB'
p234
F0.0040809999999999996
sS'NOUN'
p235
F0.995919
s(lp236
(g92
I11
tp237
atp238
a(g109
(dp239
S'ADV'
p240
F0.000199
sS'PRT'
p241
F0.000347
sS'ADP'
p242
F0.999454
s(lp243
(g109
I12
tp244
atp245
a(g116
(dp246
S'ADV'
p247
F3e-06
sS'NOUN'
p248
F1.9e-05
sS'DET'
p249
F0.999978
s(lp250
(g116
I13
tp251
atp252
a(g123
(dp253
S'VERB'
p254
F0.00030900000000000003
sS'NOUN'
p255
F0.999691
s(lp256
(g123
I14
tp257
atp258
a(g130
(dp259
S'ADV'
p260
F0.059484
sS'ADP'
p261
F0.940516
s(lp262
(g130
I15
tp263
atp264
a(g139
(dp265
S'NOUN'
p266
F2e-06
sS'DET'
p267
F0.999998
s(lp268
(g139
I16
tp269
atp270
a(g146
(dp271
S'VERB'
p272
F0.010439
sS'NOUN'
p273
F0.989561
s(lp274
(g146
I17
tp275
atp276
a(g154
(dp277
S'ADP'
p278
F1.0
s(lp279
(g154
I18
tp280
atp281
a(S'the'
p282
(dp283
S'NOUN'
p284
F1.1e-05
sS'DET'
p285
F0.999989
s(lp286
(g282
I19
tp287
atp288
a(g162
(dp289
S'VERB'
p290
F1e-06
sS'NOUN'
p291
F0.999998
s(lp292
(g162
I20
tp293
atp294
a(g53
(dp295
g53
F1.0
s(lp296
(g53
I21
tp297
atp298
asS'nl'
p299
(lp300
(S'voor'
p301
(dp302
S'ADV'
p303
F0.006076
sS'CONJ'
p304
F4.2e-05
sS'NOUN'
p305
F0.0
sS'ADP'
p306
F0.993882
s(lp307
(g9
I0
tp308
atp309
a(S'de'
p310
(dp311
S'DET'
p312
F1.0
s(lp313
(g18
I1
tp314
atp315
a(S'franse'
p316
(dp317
S'NOUN'
p318
F1.0
s(lp319
(g33
I2
tp320
atp321
a(S'en'
p322
(dp323
S'CONJ'
p324
F1.0
s(lp325
(g40
I3
tp326
atp327
a(S'nederlandse'
p328
(dp329
S'NOUN'
p330
F0.001565
sS'ADJ'
p331
F0.998435
s(lp332
(g48
I4
tp333
atp334
a(S'referenda'
p335
(dp336
S'NOUN'
p337
F1.0
s(lp338
(g25
I5
tp339
atp340
a(S'hoorden'
p341
(dp342
S'VERB'
p343
F1.0
s(lp344
(g73
I8
tp345
atp346
a(S'we'
p347
(dp348
S'PRON'
p349
F1.0
s(lp350
(g61
I7
tp351
atp352
a(S'in'
p353
(dp354
S'ADV'
p355
F0.005351
sS'VERB'
p356
F2e-06
sS'ADP'
p357
F0.994647
s(lp358
(g109
I12
tp359
atp360
a(S'dit'
p361
(dp362
S'PRON'
p363
F1.0
s(lp364
(g116
I13
tp365
atp366
a(S'huis'
p367
(dp368
S'VERB'
p369
F0.000693
sS'NOUN'
p370
F0.999307
s(lp371
(g123
I14
tp372
atp373
a(S'tal'
p374
(dp375
S'NOUN'
p376
F1.0
s(lp377
tp378
a(S'van'
p379
(dp380
S'ADP'
p381
F1.0
s(lp382
tp383
a(S'holle'
p384
(dp385
S'NOUN'
p386
F0.000269
sS'ADJ'
p387
F0.999731
s(lp388
(g101
I10
tp389
atp390
a(S'frasen'
p391
(dp392
S'NOUN'
p393
F1.0
s(lp394
(g92
I11
tp395
atp396
a(S'over'
p397
(dp398
S'ADV'
p399
F0.017648
sS'ADP'
p400
F0.982352
s(lp401
(g130
I15
tp402
atp403
a(S'de'
p404
(dp405
S'DET'
p406
F1.0
s(lp407
(g139
I16
tp408
atp409
a(S'wil'
p410
(dp411
S'VERB'
p412
F0.000391
sS'NOUN'
p413
F0.999609
s(lp414
(g146
I17
tp415
atp416
a(S'van'
p417
(dp418
S'ADP'
p419
F1.0
s(lp420
(g154
I18
tp421
atp422
a(S'de'
p423
(dp424
S'DET'
p425
F1.0
s(lp426
(g282
I19
tp427
atp428
a(S'bevolking'
p429
(dp430
S'NOUN'
p431
F1.0
s(lp432
(g162
I20
tp433
atp434
a(g53
(dp435
g53
F1.0
s(lp436
(g53
I21
tp437
atp438
asS'de'
p439
(lp440
(S'vor'
p441
(dp442
S'ADV'
p443
F0.014568
sS'ADP'
p444
F0.985349
s(lp445
(g9
I0
tp446
atp447
a(S'den'
p448
(dp449
S'PRON'
p450
F5.9e-05
sS'DET'
p451
F0.99994
s(lp452
(g18
I1
tp453
atp454
a(S'referenden'
p455
(dp456
S'ADJ'
p457
F0.368074
sS'NOUN'
p458
F0.631926
s(lp459
(g25
I5
tp460
atp461
a(S'in'
p462
(dp463
S'ADP'
p464
F1.0
s(lp465
tp466
a(S'frankreich'
p467
(dp468
S'ADJ'
p469
F1.0
s(lp470
(g33
I2
tp471
atp472
a(S'und'
p473
(dp474
S'CONJ'
p475
F1.0
s(lp476
(g40
I3
tp477
atp478
a(S'in'
p479
(dp480
S'ADP'
p481
F1.0
s(lp482
tp483
a(S'den'
p484
(dp485
S'PRON'
p486
F0.000983
sS'DET'
p487
F0.999003
s(lp488
tp489
a(S'niederlanden'
p490
(dp491
S'NOUN'
p492
F0.384974
sS'ADJ'
p493
F0.449011
s(lp494
(g48
I4
tp495
atp496
a(S'haben'
p497
(dp498
S'VERB'
p499
F0.9997010000000001
s(lp500
tp501
a(S'wir'
p502
(dp503
S'PRON'
p504
F1.0
s(lp505
(g61
I7
tp506
atp507
a(S'in'
p508
(dp509
S'ADP'
p510
F1.0
s(lp511
(g109
I12
tp512
atp513
a(S'diesem'
p514
(dp515
S'PRON'
p516
F1.0
s(lp517
(g116
I13
tp518
atp519
a(S'haus'
p520
(dp521
S'PRT'
p522
F0.495467
sS'VERB'
p523
F0.504533
s(lp524
(g123
I14
tp525
atp526
a(S'viel'
p527
(dp528
S'ADV'
p529
F0.428604
sS'PRON'
p530
F0.543753
s(lp531
(g80
I9
tp532
atp533
a(S'leeres'
p534
(dp535
S'ADJ'
p536
F1.0
s(lp537
(g101
I10
tp538
atp539
a(S'gerede'
p540
(dp541
S'ADJ'
p542
F0.002366
sS'NOUN'
p543
F0.995133
s(lp544
(g92
I11
tp545
atp546
a(S'\xc3\xbcber'
p547
(dp548
S'PRT'
p549
F0.001513
sS'ADP'
p550
F0.998487
s(lp551
(g130
I15
tp552
atp553
a(S'den'
p554
(dp555
S'PRON'
p556
F0.040519
sS'DET'
p557
F0.943254
s(lp558
(g139
I16
tp559
atp560
a(S'willen'
p561
(dp562
S'ADP'
p563
F1.0
s(lp564
(g146
I17
tp565
atp566
a(S'des'
p567
(dp568
S'DET'
p569
F1.0
s(lp570
(g154
I18
tp571
atp572
a(S'volkes'
p573
(dp574
S'ADJ'
p575
F0.022471
sS'NOUN'
p576
F0.956741
s(lp577
(g162
I20
tp578
atp579
a(S'geh\xc3\xb6rt'
p580
(dp581
S'VERB'
p582
F0.994901
s(lp583
(g73
I8
tp584
atp585
a(g53
(dp586
g53
F1.0
s(lp587
(g53
I21
tp588
atp589
asS'it'
p590
(lp591
(S'prima'
p592
(dp593
S'ADV'
p594
F0.626165
sS'NOUN'
p595
F0.002943
sS'CONJ'
p596
F0.289405
sS'ADJ'
p597
F0.076885
sS'ADP'
p598
F0.004603
s(lp599
(g9
I0
tp600
atp601
a(S'dei'
p602
(dp603
S'NOUN'
p604
F5e-06
sS'DEF'
p605
F0.021021
sS'ADP'
p606
F0.978974
s(lp607
tp608
a(S'referendum'
p609
(dp610
S'NOUN'
p611
F1.0
s(lp612
(g25
I5
tp613
atp614
a(S'francese'
p615
(dp616
S'NOUN'
p617
F0.001827
sS'ADJ'
p618
F0.998173
s(lp619
(g33
I2
tp620
atp621
a(S'e'
p622
(dp623
S'CONJ'
p624
F1.0
s(lp625
(g40
I3
tp626
atp627
a(S'olandese'
p628
(dp629
S'NOUN'
p630
F0.036854
sS'ADJ'
p631
F0.963146
s(lp632
(g48
I4
tp633
atp634
a(g51
(dp635
g53
F1.0
s(lp636
(g51
I6
tp637
atp638
a(S'abbiamo'
p639
(dp640
S'VERB'
p641
F1.0
s(lp642
(g61
I7
tp643
atp644
a(S'ascoltato'
p645
(dp646
S'VERB'
p647
F1.0
s(lp648
(g73
I8
tp649
atp650
a(S'molte'
p651
(dp652
S'PRON'
p653
F0.191225
sS'VERB'
p654
F0.000648
sS'ADJ'
p655
F0.808127
s(lp656
(g80
I9
tp657
atp658
a(S'parole'
p659
(dp660
S'NOUN'
p661
F1.0
s(lp662
(g92
I11
tp663
atp664
a(S'vuote'
p665
(dp666
S'ADJ'
p667
F1.0
s(lp668
(g101
I10
tp669
atp670
a(S'in'
p671
(dp672
S'ADP'
p673
F1.0
s(lp674
(g109
I12
tp675
atp676
a(S"quest'"
p677
(dp678
S'ADJ'
p679
F0.018253
sS'VERB'
p680
F0.018786
sS'NOUN'
p681
F0.962961
s(lp682
(g116
I13
tp683
atp684
a(S'aula'
p685
(dp686
S'NOUN'
p687
F1.0
s(lp688
(g123
I14
tp689
atp690
a(S'sulla'
p691
(dp692
S'NOUN'
p693
F5e-06
sS'ADP'
p694
F0.999995
s(lp695
(g130
I15
tp696
atp697
a(S'volont\xc3\xa0'
p698
(dp699
S'NOUN'
p700
F1.0
s(lp701
(g146
I17
tp702
atp703
a(S'popolare'
p704
(dp705
S'NOUN'
p706
F0.002296
sS'VERB'
p707
F0.000364
sS'ADJ'
p708
F0.99734
s(lp709
(g162
I20
tp710
atp711
a(g53
(dp712
g53
F1.0
s(lp713
(g53
I21
tp714
atp715
asS'sk'
p716
(lp717
(S'pred'
p718
(dp719
S'X'
p720
F0.0001
sS'ADP'
p721
F0.9999
s(lp722
(g9
I0
tp723
atp724
a(S'referendami'
p725
(dp726
S'NOUN'
p727
F1.0
s(lp728
(g25
I5
tp729
atp730
a(S'vo'
p731
(dp732
S'ADP'
p733
F1.0
s(lp734
(g18
I1
tp735
atp736
a(S'franc\xc3\xbazsku'
p737
(dp738
S'ADJ'
p739
F1.0
s(lp740
(g33
I2
tp741
atp742
a(S'a'
p743
(dp744
g720
F0.0007700000000000001
sS'CONJ'
p745
F0.997572
sS'NOUN'
p746
F0.001537
sS'ADP'
p747
F0.000114
sS'PRT'
p748
F5e-06
s(lp749
(g40
I3
tp750
atp751
a(S'holandsku'
p752
(dp753
S'NOUN'
p754
F0.164045
sS'ADJ'
p755
F0.835955
s(lp756
(g48
I4
tp757
atp758
a(S'sme'
p759
(dp760
g720
F0.001837
sS'VERB'
p761
F0.998164
s(lp762
(g61
I7
tp763
atp764
a(S'v'
p765
(dp766
g720
F3.9e-05
sS'ADP'
p767
F0.999961
s(lp768
(g109
I12
tp769
atp770
a(S'tomto'
p771
(dp772
S'PRON'
p773
F1.0
s(lp774
(g116
I13
tp775
atp776
a(S'parlamente'
p777
(dp778
S'NOUN'
p779
F1.0
s(lp780
(g123
I14
tp781
atp782
a(S'po\xc4\x8duli'
p783
(dp784
S'VERB'
p785
F1.0
s(lp786
(g73
I8
tp787
atp788
a(S've\xc4\xbea'
p789
(dp790
S'ADV'
p791
F0.032171
sS'NUM'
p792
F0.967828
s(lp793
(g80
I9
tp794
atp795
a(S'pr\xc3\xa1zdnych'
p796
(dp797
S'ADJ'
p798
F1.0
s(lp799
(g101
I10
tp800
atp801
a(S're\xc4\x8d\xc3\xad'
p802
(dp803
S'NOUN'
p804
F1.0
s(lp805
(g92
I11
tp806
atp807
a(S'o'
p808
(dp809
g720
F0.000223
sS'CONJ'
p810
F5.9e-05
sS'NOUN'
p811
F7e-06
sS'ADP'
p812
F0.99971
s(lp813
(g130
I15
tp814
atp815
a(S'v\xc3\xb4li'
p816
(dp817
S'NOUN'
p818
F1.0
s(lp819
(g146
I17
tp820
atp821
a(S'\xc4\xbeudu'
p822
(dp823
S'NOUN'
p824
F1.0
s(lp825
(g162
I20
tp826
atp827
a(g53
(dp828
g53
F1.0
s(lp829
(g53
I21
tp830
atp831
asS'pl'
p832
(lp833
(S'przed'
p834
(dp835
S'ADP'
p836
F1.0
s(lp837
(g9
I0
tp838
atp839
a(S'referendum'
p840
(dp841
S'NOUN'
p842
F1.0
s(lp843
tp844
a(S'we'
p845
(dp846
g720
F0.000183
sS'ADP'
p847
F0.9998159999999999
s(lp848
(g25
I5
tp849
atp850
a(S'francji'
p851
(dp852
S'NOUN'
p853
F1.0000010000000001
s(lp854
(g33
I2
tp855
atp856
a(S'i'
p857
(dp858
S'PRT'
p859
F0.000953
sS'CONJ'
p860
F0.998936
sS'NOUN'
p861
F9.3e-05
sg720
F6e-06
sS'PRON'
p862
F1.2e-05
s(lp863
(g40
I3
tp864
atp865
a(S'holandii'
p866
(dp867
S'ADJ'
p868
F0.000381
sS'NOUN'
p869
F0.9996200000000001
s(lp870
(g48
I4
tp871
atp872
a(S's\xc5\x82yszeli\xc5\x9bmy'
p873
(dp874
S'NOUN'
p875
F0.000387
sS'VERB'
p876
F0.9965749999999998
sS'ADJ'
p877
F0.0030410000000000007
s(lp878
(g73
I8
tp879
atp880
a(S'wiele'
p881
(dp882
S'ADV'
p883
F0.160266
sS'NUM'
p884
F0.8397349999999997
s(lp885
(g80
I9
tp886
atp887
a(S'pustej'
p888
(dp889
S'ADJ'
p890
F1.0
s(lp891
tp892
a(S'gadaniny'
p893
(dp894
S'NOUN'
p895
F1.0
s(lp896
(g101
I10
tp897
atp898
a(S'w'
p899
(dp900
g720
F0.0
sS'ADJ'
p901
F0.0
sS'ADP'
p902
F0.9999990000000001
sS'NOUN'
p903
F0.0
s(lp904
(g109
I12
tp905
atp906
a(S'tym'
p907
(dp908
S'ADV'
p909
F1e-06
sS'NOUN'
p910
F0.006241
sS'CONJ'
p911
F0.0
sS'ADJ'
p912
F0.993757
sS'PRT'
p913
F0.0
s(lp914
(g116
I13
tp915
atp916
a(S'parlamencie'
p917
(dp918
S'NOUN'
p919
F1.0
s(lp920
(g123
I14
tp921
atp922
a(S'na'
p923
(dp924
S'PRT'
p925
F1.1e-05
sS'VERB'
p926
F7.9e-05
sS'NOUN'
p927
F1e-06
sS'ADP'
p928
F0.999903
sg720
F5e-06
s(lp929
tp930
a(S'temat'
p931
(dp932
S'NOUN'
p933
F1.0
s(lp934
(g130
I15
tp935
atp936
a(S'woli'
p937
(dp938
S'VERB'
p939
F0.012679
sS'NOUN'
p940
F0.987321
s(lp941
(g146
I17
tp942
atp943
a(S'ludzi'
p944
(dp945
S'NOUN'
p946
F1.0
s(lp947
(g162
I20
tp948
atp949
a(g53
(dp950
g53
F1.0
s(lp951
(g53
I21
tp952
atp953
asS'sl'
p954
(lp955
(S'pred'
p956
(dp957
S'ADP'
p958
F1.0
s(lp959
(g9
I0
tp960
atp961
a(S'francoskim'
p962
(dp963
S'ADJ'
p964
F1.0
s(lp965
(g33
I2
tp966
atp967
a(S'in'
p968
(dp969
S'ADV'
p970
F1.4e-05
sg720
F4e-06
sS'CONJ'
p971
F0.999982
sS'NOUN'
p972
F1e-06
s(lp973
(g40
I3
tp974
atp975
a(S'nizozemskim'
p976
(dp977
S'NOUN'
p978
F0.00021
sS'ADJ'
p979
F0.9997910000000001
s(lp980
(g48
I4
tp981
atp982
a(S'referendumom'
p983
(dp984
S'NOUN'
p985
F1.0
s(lp986
(g25
I5
tp987
atp988
a(S'smo'
p989
(dp990
g720
F0.002323
sS'VERB'
p991
F0.997677
s(lp992
(g61
I7
tp993
atp994
a(g765
(dp995
S'ADP'
p996
F1.0
s(lp997
(g109
I12
tp998
atp999
a(S'tem'
p1000
(dp1001
S'ADV'
p1002
F1.2e-05
sS'PRON'
p1003
F0.999989
sS'NOUN'
p1004
F0.0
s(lp1005
(g116
I13
tp1006
atp1007
a(S'parlamentu'
p1008
(dp1009
S'NOUN'
p1010
F1.0
s(lp1011
(g123
I14
tp1012
atp1013
a(S'sli\xc5\xa1ali'
p1014
(dp1015
S'VERB'
p1016
F1.0
s(lp1017
(g73
I8
tp1018
atp1019
a(S'veliko'
p1020
(dp1021
S'ADV'
p1022
F0.992706
sS'ADJ'
p1023
F0.007294
s(lp1024
(g80
I9
tp1025
atp1026
a(S'praznega'
p1027
(dp1028
S'ADJ'
p1029
F1.0
s(lp1030
(g101
I10
tp1031
atp1032
a(S'govorjenja'
p1033
(dp1034
S'NOUN'
p1035
F1.0
s(lp1036
(g92
I11
tp1037
atp1038
a(g808
(dp1039
S'NOUN'
p1040
F1.3e-05
sS'ADP'
p1041
F0.999987
s(lp1042
(g130
I15
tp1043
atp1044
a(S'volji'
p1045
(dp1046
S'NOUN'
p1047
F1.000001
s(lp1048
(g146
I17
tp1049
atp1050
a(S'dr\xc5\xbeavljanov'
p1051
(dp1052
S'NOUN'
p1053
F1.0
s(lp1054
(g162
I20
tp1055
atp1056
a(g53
(dp1057
g53
F1.0
s(lp1058
(g53
I21
tp1059
atp1060
asS'es'
p1061
(lp1062
(S'antes'
p1063
(dp1064
S'ADV'
p1065
F0.99784
sS'NOUN'
p1066
F0.00216
s(lp1067
(g9
I0
tp1068
atp1069
a(S'de'
p1070
(dp1071
g720
F0.0
sS'CONJ'
p1072
F0.000119
sS'ADP'
p1073
F0.999881
s(lp1074
tp1075
a(S'los'
p1076
(dp1077
S'PRON'
p1078
F0.0
sS'DET'
p1079
F1.0
s(lp1080
(g18
I1
tp1081
atp1082
a(S'refer\xc3\xa9ndums'
p1083
(dp1084
S'ADJ'
p1085
F2.7e-05
sS'VERB'
p1086
F9e-06
sS'NOUN'
p1087
F0.999965
s(lp1088
(g25
I5
tp1089
atp1090
a(S'franc\xc3\xa9s'
p1091
(dp1092
S'NOUN'
p1093
F0.010524
sS'ADJ'
p1094
F0.989476
s(lp1095
(g33
I2
tp1096
atp1097
a(S'y'
p1098
(dp1099
g720
F0.000304
sS'CONJ'
p1100
F0.999696
s(lp1101
(g40
I3
tp1102
atp1103
a(S'neerland\xc3\xa9s'
p1104
(dp1105
S'NOUN'
p1106
F1.0
s(lp1107
(g48
I4
tp1108
atp1109
a(g51
(dp1110
g53
F1.0
s(lp1111
(g51
I6
tp1112
atp1113
a(S'en'
p1114
(dp1115
g720
F0.0
sS'CONJ'
p1116
F2e-06
sS'ADP'
p1117
F0.999998
s(lp1118
(g109
I12
tp1119
atp1120
a(S'esta'
p1121
(dp1122
S'PRON'
p1123
F1.0
sS'VERB'
p1124
F0.0
s(lp1125
(g116
I13
tp1126
atp1127
a(S'c\xc3\xa1mara'
p1128
(dp1129
S'NOUN'
p1130
F1.0
s(lp1131
(g123
I14
tp1132
atp1133
a(S'escuch\xc3\xa1bamos'
p1134
(dp1135
S'VERB'
p1136
F1.0
s(lp1137
(g73
I8
tp1138
atp1139
a(S'muchas'
p1140
(dp1141
S'ADJ'
p1142
F1.0
s(lp1143
(g80
I9
tp1144
atp1145
a(S'conversaciones'
p1146
(dp1147
S'NOUN'
p1148
F1.0
s(lp1149
(g92
I11
tp1150
atp1151
a(S'vac\xc3\xadas'
p1152
(dp1153
S'ADJ'
p1154
F1.0
s(lp1155
(g101
I10
tp1156
atp1157
a(S'sobre'
p1158
(dp1159
S'NOUN'
p1160
F0.0
sS'ADP'
p1161
F1.0
s(lp1162
(g130
I15
tp1163
atp1164
a(S'la'
p1165
(dp1166
S'NOUN'
p1167
F0.0
sS'PRON'
p1168
F0.0
sS'DET'
p1169
F0.999999
sg720
F0.0
s(lp1170
(g139
I16
tp1171
atp1172
a(S'voluntad'
p1173
(dp1174
S'NOUN'
p1175
F1.0
s(lp1176
(g146
I17
tp1177
atp1178
a(S'del'
p1179
(dp1180
S'ADP'
p1181
F1.0
s(lp1182
(g154
I18
tp1183
atp1184
a(S'pueblo'
p1185
(dp1186
S'VERB'
p1187
F0.0
sS'NOUN'
p1188
F1.0
s(lp1189
(g162
I20
tp1190
atp1191
a(g53
(dp1192
g53
F1.0
s(lp1193
(g53
I21
tp1194
atp1195
as.