(dp0
S'fr'
p1
(lp2
(S'\xc3\x8ates-vous'
p3
(dp4
S'VERB'
p5
F1.0
s(lp6
(S'you'
p7
I1
tp8
atp9
a(S'aussi'
p10
(dp11
S'ADV'
p12
F0.999999
sS'CONJ'
p13
F1e-06
s(lp14
(S'in'
p15
I2
tp16
atp17
a(S'de'
p18
(dp19
S'ADP'
p20
F1.0
s(lp21
(S'with'
p22
I4
tp23
atp24
a(S'cet'
p25
(dp26
S'PRON'
p27
F1.0
s(lp28
(S'this'
p29
I5
tp30
atp31
a(S'avis'
p32
(dp33
S'NOUN'
p34
F1.0
s(lp35
(S'agreement'
p36
I3
tp37
atp38
a(S','
p39
(dp40
S'.'
p41
F1.0
s(lp42
(g39
I6
tp43
atp44
a(S'monsieur'
p45
(dp46
S'NOUN'
p47
F1.0
s(lp48
(S'mr'
p49
I7
tp50
atp51
a(S'rehn'
p52
(dp53
S'NOUN'
p54
F0.272742
sS'VERB'
p55
F0.012185999999999999
sS'ADJ'
p56
F0.715071
s(lp57
(S'rehn'
p58
I8
tp59
atp60
a(S'?'
p61
(dp62
g41
F1.0
s(lp63
(g61
I9
tp64
atp65
asS'en'
p66
(lp67
(S'are'
p68
(dp69
S'VERB'
p70
F0.999354
sS'NOUN'
p71
F0.000646
s(lp72
(g68
I0
tp73
atp74
a(g7
(dp75
S'PRON'
p76
F1.0
s(lp77
(g7
I1
tp78
atp79
a(g15
(dp80
S'ADV'
p81
F0.018478
sS'PRT'
p82
F0.001246
sS'ADP'
p83
F0.980276
s(lp84
(g15
I2
tp85
atp86
a(g36
(dp87
S'NOUN'
p88
F1.0
s(lp89
(g36
I3
tp90
atp91
a(g22
(dp92
S'ADP'
p93
F1.0
s(lp94
(g22
I4
tp95
atp96
a(g29
(dp97
S'ADV'
p98
F0.003065
sS'NOUN'
p99
F0.005352
sS'DET'
p100
F0.991583
s(lp101
(g29
I5
tp102
atp103
a(g39
(dp104
g41
F1.0
s(lp105
(g39
I6
tp106
atp107
a(g49
(dp108
S'ADJ'
p109
F0.011139
sS'NOUN'
p110
F0.988861
s(lp111
(g49
I7
tp112
atp113
a(g58
(dp114
S'ADV'
p115
F0.000248
sS'ADJ'
p116
F0.000423
sS'VERB'
p117
F0.003483
sS'NOUN'
p118
F0.995845
s(lp119
(g58
I8
tp120
atp121
a(g61
(dp122
g41
F1.0
s(lp123
(g61
I9
tp124
atp125
asS'nl'
p126
(lp127
(S'ziet'
p128
(dp129
S'VERB'
p130
F1.0
s(lp131
(g68
I0
tp132
atp133
a(S'u'
p134
(dp135
S'PRON'
p136
F0.999979
sS'NOUN'
p137
F2e-05
s(lp138
tp139
a(S'dat'
p140
(dp141
S'PRON'
p142
F0.741405
sS'CONJ'
p143
F0.258595
s(lp144
(g7
I1
tp145
atp146
a(S'ook'
p147
(dp148
S'ADV'
p149
F1.0
s(lp150
(g22
I4
tp151
atp152
a(S'zo'
p153
(dp154
S'ADV'
p155
F0.99987
sS'X'
p156
F0.00011
sS'CONJ'
p157
F2e-05
s(lp158
(g29
I5
tp159
atp160
a(g39
(dp161
g41
F1.0
s(lp162
(g39
I6
tp163
atp164
a(S'mijnheer'
p165
(dp166
S'NOUN'
p167
F1.0
s(lp168
(g49
I7
tp169
atp170
a(S'rehn'
p171
(dp172
S'ADJ'
p173
F0.104858
sS'NOUN'
p174
F0.8951420000000001
s(lp175
(g58
I8
tp176
atp177
a(g61
(dp178
g41
F1.0
s(lp179
(g61
I9
tp180
atp181
asS'de'
p182
(lp183
(S'sind'
p184
(dp185
S'VERB'
p186
F1.0
s(lp187
(g68
I0
tp188
atp189
a(S'sie'
p190
(dp191
S'PRON'
p192
F1.0
s(lp193
(g7
I1
tp194
atp195
a(S'auch'
p196
(dp197
S'ADV'
p198
F1.0
s(lp199
(g22
I4
tp200
atp201
a(S'dieser'
p202
(dp203
S'PRON'
p204
F1.0
s(lp205
(g29
I5
tp206
atp207
a(S'meinung'
p208
(dp209
S'ADJ'
p210
F0.057303
sS'NOUN'
p211
F0.892234
s(lp212
(g36
I3
tp213
atp214
a(g39
(dp215
g41
F1.0
s(lp216
(g39
I6
tp217
atp218
a(S'herr'
p219
(dp220
S'NOUN'
p221
F0.9806819999999999
s(lp222
(g49
I7
tp223
atp224
a(S'rehn'
p225
(dp226
S'VERB'
p227
F0.807017
s(lp228
(g58
I8
tp229
atp230
a(g61
(dp231
g41
F1.0
s(lp232
(g61
I9
tp233
atp234
asS'it'
p235
(lp236
(S'condivide'
p237
(dp238
S'VERB'
p239
F1.0
s(lp240
(g68
I0
tp241
atp242
a(S'anche'
p243
(dp244
S'ADV'
p245
F0.999971
sS'NOUN'
p246
F2.9e-05
s(lp247
tp248
a(S'lei'
p249
(dp250
S'PRON'
p251
F1.0
s(lp252
(g7
I1
tp253
atp254
a(S'questa'
p255
(dp256
S'PRON'
p257
F1.0
s(lp258
(g29
I5
tp259
atp260
a(S'opinione'
p261
(dp262
S'NOUN'
p263
F1.0
s(lp264
(g36
I3
tp265
atp266
a(g39
(dp267
g41
F1.0
s(lp268
(g39
I6
tp269
atp270
a(S'commissario'
p271
(dp272
S'VERB'
p273
F0.255473
sS'NOUN'
p274
F0.744527
s(lp275
tp276
a(S'rehn'
p277
(dp278
S'ADJ'
p279
F0.03484
sS'VERB'
p280
F0.020118
sS'NOUN'
p281
F0.945041
s(lp282
(g58
I8
tp283
atp284
a(g61
(dp285
g41
F1.0
s(lp286
(g61
I9
tp287
atp288
asS'sk'
p289
(lp290
(S's\xc3\xbahlas\xc3\xadte'
p291
(dp292
S'VERB'
p293
F1.0
s(lp294
(g7
I1
tp295
atp296
a(S's'
p297
(dp298
S'PRT'
p299
F0.000334
sS'CONJ'
p300
F1.7e-05
sS'NOUN'
p301
F3e-06
sS'ADP'
p302
F0.999639
sg156
F8e-06
s(lp303
(g22
I4
tp304
atp305
a(S't\xc3\xbdm'
p306
(dp307
S'PRON'
p308
F0.999994
sS'CONJ'
p309
F6e-06
s(lp310
(g29
I5
tp311
atp312
a(g39
(dp313
g41
F1.0
s(lp314
(g39
I6
tp315
atp316
a(S'p\xc3\xa1n'
p317
(dp318
S'NOUN'
p319
F1.0
s(lp320
(g49
I7
tp321
atp322
a(S'rehn'
p323
(dp324
S'ADJ'
p325
F0.000444
sg156
F0.003885
sS'VERB'
p326
F0.04375900000000002
sS'NOUN'
p327
F0.9519110000000001
s(lp328
(g58
I8
tp329
atp330
a(g61
(dp331
g41
F1.0
s(lp332
(g61
I9
tp333
atp334
asS'pl'
p335
(lp336
(S'zgadza'
p337
(dp338
S'VERB'
p339
F1.0
s(lp340
(g36
I3
tp341
atp342
a(S'si\xc4\x99'
p343
(dp344
S'PRT'
p345
F1.0
s(lp346
(g68
I0
tp347
atp348
a(S'pan'
p349
(dp350
g156
F1e-06
sS'NOUN'
p351
F0.999999
s(lp352
(g7
I1
tp353
atp354
a(S'ze'
p355
(dp356
S'PRT'
p357
F0.0
sS'CONJ'
p358
F0.0
sS'ADP'
p359
F0.999999
s(lp360
(g22
I4
tp361
atp362
a(S'mn\xc4\x85'
p363
(dp364
S'PRON'
p365
F0.999999
s(lp366
(g29
I5
tp367
atp368
a(g39
(dp369
g156
F0.0
sg41
F1.0
s(lp370
(g39
I6
tp371
atp372
a(S'panie'
p373
(dp374
S'NOUN'
p375
F1.0
s(lp376
(g49
I7
tp377
atp378
a(S'komisarzu'
p379
(dp380
S'NOUN'
p381
F1.0
s(lp382
(g58
I8
tp383
atp384
a(S'olli'
p385
(dp386
S'ADV'
p387
F0.012162
sS'NOUN'
p388
F0.387974
sS'VERB'
p389
F0.103822
sS'ADJ'
p390
F0.494208
sg156
F0.001836
s(lp391
tp392
a(S'rehn'
p393
(dp394
S'ADJ'
p395
F0.021427
sS'VERB'
p396
F0.012445
sS'NOUN'
p397
F0.9660810000000001
sg156
F4.6e-05
s(lp398
(g58
I8
tp399
atp400
a(g61
(dp401
g41
F1.0
s(lp402
(g61
I9
tp403
atp404
asS'sl'
p405
(lp406
(S'ali'
p407
(dp408
S'ADV'
p409
F0.038045
sS'CONJ'
p410
F0.961955
s(lp411
(g7
I1
tp412
atp413
a(S'se'
p414
(dp415
S'PRON'
p416
F0.999999
sg156
F1e-06
s(lp417
(g68
I0
tp418
atp419
a(S'strinjate'
p420
(dp421
S'VERB'
p422
F1.0
s(lp423
(g36
I3
tp424
atp425
a(g297
(dp426
S'VERB'
p427
F6.7e-05
sS'NOUN'
p428
F1e-05
sS'ADP'
p429
F0.9999239999999999
s(lp430
(g22
I4
tp431
atp432
a(S'tem'
p433
(dp434
S'ADV'
p435
F0.000122
sS'PRON'
p436
F0.9990910000000001
sS'NOUN'
p437
F0.000785
s(lp438
(g29
I5
tp439
atp440
a(g39
(dp441
g41
F1.0
s(lp442
(g39
I6
tp443
atp444
a(S'gospod'
p445
(dp446
S'NOUN'
p447
F1.0
s(lp448
(g49
I7
tp449
atp450
a(S'rehn'
p451
(dp452
S'ADV'
p453
F0.00032
sS'ADJ'
p454
F0.15419000000000002
sS'VERB'
p455
F0.007833000000000001
sS'NOUN'
p456
F0.8360780000000002
sg156
F0.001579
s(lp457
(g58
I8
tp458
atp459
a(g61
(dp460
g41
F1.0
s(lp461
(g61
I9
tp462
atp463
asS'es'
p464
(lp465
(S'\xc2\xbf'
p466
(dp467
S'PRON'
p468
F0.363513
sg41
F0.636487
s(lp469
(g68
I0
tp470
atp471
a(S'est\xc3\xa1'
p472
(dp473
S'VERB'
p474
F1.0
s(lp475
tp476
a(S'usted'
p477
(dp478
S'PRON'
p479
F1.0
s(lp480
(g7
I1
tp481
atp482
a(S'de'
p483
(dp484
S'ADP'
p485
F1.0
s(lp486
(g15
I2
tp487
atp488
a(S'acuerdo'
p489
(dp490
S'ADP'
p491
F1.0
s(lp492
(g36
I3
tp493
atp494
a(S'con'
p495
(dp496
S'ADP'
p497
F1.0
s(lp498
(g22
I4
tp499
atp500
a(S'ello'
p501
(dp502
S'PRON'
p503
F1.0
s(lp504
(g29
I5
tp505
atp506
a(g39
(dp507
g41
F1.0
s(lp508
(g39
I6
tp509
atp510
a(S'se\xc3\xb1or'
p511
(dp512
S'NOUN'
p513
F1.0
s(lp514
(g49
I7
tp515
atp516
a(S'rehn'
p517
(dp518
S'ADV'
p519
F0.005018
sS'NOUN'
p520
F0.06790600000000001
sS'VERB'
p521
F0.0031509999999999997
sS'ADJ'
p522
F0.923925
s(lp523
(g58
I8
tp524
atp525
a(g61
(dp526
g41
F1.0
s(lp527
(g61
I9
tp528
atp529
as.