(dp0
S'fr'
p1
(lp2
(S'pour'
p3
(dp4
S'CONJ'
p5
F0.195905
sS'ADP'
p6
F0.804095
s(lp7
(S'otherwise'
p8
I0
tp9
atp10
a(S'le'
p11
(dp12
S'PRON'
p13
F0.020061
sS'DET'
p14
F0.979939
s(lp15
tp16
a(S'reste'
p17
(dp18
S'VERB'
p19
F0.020522000000000002
sS'NOUN'
p20
F0.979479
s(lp21
(g8
I0
tp22
atp23
a(S','
p24
(dp25
S'.'
p26
F1.0
s(lp27
(g24
I1
tp28
atp29
a(S'il'
p30
(dp31
S'PRON'
p32
F1.0
s(lp33
(S'it'
p34
I2
tp35
atp36
a(S'se'
p37
(dp38
S'PRON'
p39
F1.0
s(lp40
(S'is'
p41
I3
tp42
atp43
a(S'limite'
p44
(dp45
S'VERB'
p46
F0.971539
sS'NOUN'
p47
F0.028461
s(lp48
(S'simply'
p49
I4
tp50
atp51
a(S'\xc3\xa0'
p52
(dp53
S'ADP'
p54
F1.0
s(lp55
tp56
a(S'une'
p57
(dp58
S'NOUN'
p59
F3.3e-05
sS'NUM'
p60
F0.024773
sS'DET'
p61
F0.975194
s(lp62
(S'a'
p63
I5
tp64
atp65
a(S's\xc3\xa9rie'
p66
(dp67
S'VERB'
p68
F0.000244
sS'NOUN'
p69
F0.999756
s(lp70
(S'series'
p71
I6
tp72
atp73
a(S'de'
p74
(dp75
S'ADP'
p76
F1.0
s(lp77
(S'of'
p78
I7
tp79
atp80
a(S'platitudes'
p81
(dp82
S'NOUN'
p83
F1.0
s(lp84
(S'platitudes'
p85
I8
tp86
atp87
a(g26
(dp88
g26
F1.0
s(lp89
(g26
I9
tp90
atp91
asS'en'
p92
(lp93
(g8
(dp94
S'ADV'
p95
F0.998074
sS'ADJ'
p96
F0.001926
s(lp97
(g8
I0
tp98
atp99
a(g24
(dp100
g26
F1.0
s(lp101
(g24
I1
tp102
atp103
a(g34
(dp104
S'PRON'
p105
F1.0
s(lp106
(g34
I2
tp107
atp108
a(g41
(dp109
S'VERB'
p110
F1.0
s(lp111
(g41
I3
tp112
atp113
a(g49
(dp114
S'ADV'
p115
F0.999888
sS'ADJ'
p116
F0.000112
s(lp117
(g49
I4
tp118
atp119
a(g63
(dp120
S'NOUN'
p121
F0.0
sS'DET'
p122
F1.0
s(lp123
(g63
I5
tp124
atp125
a(g71
(dp126
S'NOUN'
p127
F1.0
s(lp128
(g71
I6
tp129
atp130
a(g78
(dp131
S'ADP'
p132
F1.0
s(lp133
(g78
I7
tp134
atp135
a(g85
(dp136
S'NOUN'
p137
F1.0
s(lp138
(g85
I8
tp139
atp140
a(g26
(dp141
g26
F1.0
s(lp142
(g26
I9
tp143
atp144
asS'nl'
p145
(lp146
(S'voor'
p147
(dp148
S'ADV'
p149
F0.006104
sS'CONJ'
p150
F4.5e-05
sS'NOUN'
p151
F0.0
sS'ADP'
p152
F0.99385
s(lp153
(g8
I0
tp154
atp155
a(S'het'
p156
(dp157
S'PRON'
p158
F0.005757
sS'DET'
p159
F0.994244
s(lp160
(g8
I0
tp161
atp162
a(S'overige'
p163
(dp164
S'NOUN'
p165
F0.019296
sS'ADJ'
p166
F0.980704
s(lp167
tp168
a(S'is'
p169
(dp170
S'VERB'
p171
F1.0
s(lp172
(g41
I3
tp173
atp174
a(S'het'
p175
(dp176
S'PRON'
p177
F0.920288
sS'DET'
p178
F0.079712
s(lp179
(g34
I2
tp180
atp181
a(S'niet'
p182
(dp183
S'ADV'
p184
F0.99999
sS'PRON'
p185
F2e-06
sS'VERB'
p186
F8e-06
sS'X'
p187
F0.0
s(lp188
(g8
I0
tp189
atp190
a(S'meer'
p191
(dp192
S'ADV'
p193
F0.999707
sS'NUM'
p194
F0.000265
sS'NOUN'
p195
F1e-06
sS'VERB'
p196
F2.7e-05
s(lp197
tp198
a(S'dan'
p199
(dp200
S'ADV'
p201
F0.109795
sS'CONJ'
p202
F0.890205
s(lp203
(g49
I4
tp204
atp205
a(S'een'
p206
(dp207
S'ADJ'
p208
F2e-06
sS'PRON'
p209
F1.7e-05
sS'NUM'
p210
F1e-06
sS'DET'
p211
F0.99998
s(lp212
(g63
I5
tp213
atp214
a(S'aaneenschakeling'
p215
(dp216
S'NOUN'
p217
F1.0
s(lp218
(g71
I6
tp219
atp220
a(S'van'
p221
(dp222
S'ADP'
p223
F1.0
s(lp224
(g78
I7
tp225
atp226
a(S'gemeenplaatsen'
p227
(dp228
S'NOUN'
p229
F1.0
s(lp230
(g85
I8
tp231
atp232
a(g26
(dp233
g26
F1.0
s(lp234
(g26
I9
tp235
atp236
asS'de'
p237
(lp238
(S'ansonsten'
p239
(dp240
S'ADV'
p241
F1.0
s(lp242
(g8
I0
tp243
atp244
a(S'ist'
p245
(dp246
S'VERB'
p247
F1.0
s(lp248
(g41
I3
tp249
atp250
a(S'er'
p251
(dp252
S'PRON'
p253
F1.0
s(lp254
(g34
I2
tp255
atp256
a(S'eine'
p257
(dp258
S'NUM'
p259
F0.000274
sS'DET'
p260
F0.99963
s(lp261
(g63
I5
tp262
atp263
a(S'anh\xc3\xa4ufung'
p264
(dp265
S'ADJ'
p266
F0.000138
sS'NOUN'
p267
F0.999746
s(lp268
tp269
a(S'von'
p270
(dp271
S'NOUN'
p272
F0.000994
sS'ADP'
p273
F0.999006
s(lp274
(g78
I7
tp275
atp276
a(S'gemeinpl\xc3\xa4tzen'
p277
(dp278
S'ADJ'
p279
F0.000822
sS'NOUN'
p280
F0.998677
s(lp281
(g85
I8
tp282
atp283
a(g26
(dp284
g26
F1.0
s(lp285
(g26
I9
tp286
atp287
asS'it'
p288
(lp289
(S'per'
p290
(dp291
S'CONJ'
p292
F0.0856
sS'ADP'
p293
F0.9144
s(lp294
(g8
I0
tp295
atp296
a(S'il'
p297
(dp298
S'DET'
p299
F1.0
s(lp300
tp301
a(S'resto'
p302
(dp303
S'VERB'
p304
F9.4e-05
sS'NOUN'
p305
F0.999906
s(lp306
(g8
I0
tp307
atp308
a(g24
(dp309
g26
F1.0
s(lp310
(g24
I1
tp311
atp312
a(S'non'
p313
(dp314
S'ADV'
p315
F1.0
s(lp316
(g34
I2
tp317
atp318
a(S'\xc3\xa8'
p319
(dp320
S'VERB'
p321
F1.0
s(lp322
(g41
I3
tp323
atp324
a(S'che'
p325
(dp326
S'PRON'
p327
F0.939628
sS'CONJ'
p328
F0.058762
sS'ADJ'
p329
F0.00161
s(lp330
(g49
I4
tp331
atp332
a(S'una'
p333
(dp334
S'PRON'
p335
F0.000582
sS'DEF'
p336
F0.999418
s(lp337
(g63
I5
tp338
atp339
a(S'sequenza'
p340
(dp341
S'NOUN'
p342
F1.0
s(lp343
(g71
I6
tp344
atp345
a(S'di'
p346
(dp347
S'CONJ'
p348
F4e-06
sS'ADP'
p349
F0.999996
s(lp350
(g78
I7
tp351
atp352
a(S'banalit\xc3\xa0'
p353
(dp354
S'NOUN'
p355
F1.0
s(lp356
(g85
I8
tp357
atp358
a(g26
(dp359
g26
F1.0
s(lp360
(g26
I9
tp361
atp362
asS'sk'
p363
(lp364
(S'okrem'
p365
(dp366
S'ADP'
p367
F1.0
s(lp368
(g8
I0
tp369
atp370
a(S'toho'
p371
(dp372
S'PRON'
p373
F0.999984
sg187
F1.6e-05
s(lp374
(g24
I1
tp375
atp376
a(S'je'
p377
(dp378
S'PRON'
p379
F0.000153
sS'VERB'
p380
F0.999727
sg187
F0.00011999999999999999
s(lp381
(g41
I3
tp382
atp383
a(S'spr\xc3\xa1va'
p384
(dp385
S'VERB'
p386
F0.001719
sS'NOUN'
p387
F0.998281
s(lp388
(g34
I2
tp389
atp390
a(S'iba'
p391
(dp392
g187
F0.894133
sS'CONJ'
p393
F0.105867
s(lp394
(g49
I4
tp395
atp396
a(S's\xc3\xa9riou'
p397
(dp398
S'NOUN'
p399
F1.0
s(lp400
(g71
I6
tp401
atp402
a(S'fr\xc3\xa1z'
p403
(dp404
S'NOUN'
p405
F1.0
s(lp406
(g85
I8
tp407
atp408
a(g26
(dp409
g26
F1.0
s(lp410
(g26
I9
tp411
atp412
asS'pl'
p413
(lp414
(S'poza'
p415
(dp416
S'ADP'
p417
F1.0
s(lp418
(g8
I0
tp419
atp420
a(S'tym'
p421
(dp422
S'ADV'
p423
F0.000353
sS'ADJ'
p424
F0.057904
sS'CONJ'
p425
F0.000434
sS'NOUN'
p426
F0.941255
sS'PRT'
p427
F5.4e-05
s(lp428
(g34
I2
tp429
atp430
a(S'to'
p431
(dp432
S'NOUN'
p433
F0.08174000000000001
sS'ADP'
p434
F3e-06
sS'PRT'
p435
F0.081281
sg187
F3e-06
sS'CONJ'
p436
F0.356431
sS'ADJ'
p437
F0.480541
s(lp438
(g41
I3
tp439
atp440
a(S'zwyk\xc5\x82a'
p441
(dp442
S'ADJ'
p443
F1.0
s(lp444
(g49
I4
tp445
atp446
a(S'lista'
p447
(dp448
S'NOUN'
p449
F1.0
s(lp450
(g71
I6
tp451
atp452
a(S'komuna\xc5\x82\xc3\xb3w'
p453
(dp454
S'ADV'
p455
F0.000269
sS'ADJ'
p456
F0.0057139999999999995
sS'VERB'
p457
F0.0046559999999999995
sS'NOUN'
p458
F0.9893600000000001
s(lp459
(g85
I8
tp460
atp461
a(g26
(dp462
g26
F1.0
s(lp463
(g26
I9
tp464
atp465
asS'sl'
p466
(lp467
(S'sicer'
p468
(dp469
S'PRT'
p470
F0.665884
sS'CONJ'
p471
F0.334116
s(lp472
(g8
I0
tp473
atp474
a(S'pa'
p475
(dp476
g187
F0.000204
sS'CONJ'
p477
F0.999796
s(lp478
(g24
I1
tp479
atp480
a(S'je'
p481
(dp482
S'PRON'
p483
F0.002224
sS'VERB'
p484
F0.997774
sg187
F1e-06
s(lp485
(g41
I3
tp486
atp487
a(S'to'
p488
(dp489
S'PRON'
p490
F0.9999940000000002
sg187
F6e-06
s(lp491
(g34
I2
tp492
atp493
a(S'preprosto'
p494
(dp495
S'ADV'
p496
F0.89096
sS'ADJ'
p497
F0.109041
s(lp498
(g49
I4
tp499
atp500
a(S'serija'
p501
(dp502
S'NOUN'
p503
F1.0
s(lp504
(g71
I6
tp505
atp506
a(S'puhlic'
p507
(dp508
S'ADV'
p509
F0.000327
sS'ADJ'
p510
F0.0018089999999999998
sS'VERB'
p511
F0.000175
sS'NOUN'
p512
F0.9976900000000002
s(lp513
(g85
I8
tp514
atp515
a(g26
(dp516
g26
F1.0
s(lp517
(g26
I9
tp518
atp519
asS'es'
p520
(lp521
(S'por'
p522
(dp523
S'ADP'
p524
F1.0
s(lp525
(g8
I0
tp526
atp527
a(S'lo'
p528
(dp529
S'PRON'
p530
F0.0
sS'DET'
p531
F1.0
s(lp532
tp533
a(S'dem\xc3\xa1s'
p534
(dp535
S'ADJ'
p536
F1.0
s(lp537
(g8
I0
tp538
atp539
a(g24
(dp540
g26
F1.0
s(lp541
(g24
I1
tp542
atp543
a(S'es'
p544
(dp545
S'VERB'
p546
F1.0
s(lp547
(g41
I3
tp548
atp549
a(S'simplemente'
p550
(dp551
S'ADV'
p552
F1.0
s(lp553
(g49
I4
tp554
atp555
a(S'una'
p556
(dp557
S'DET'
p558
F1.0
s(lp559
(g63
I5
tp560
atp561
a(S'serie'
p562
(dp563
S'NOUN'
p564
F1.0
s(lp565
(g71
I6
tp566
atp567
a(S'de'
p568
(dp569
g187
F2.9e-05
sS'CONJ'
p570
F0.000449
sS'ADP'
p571
F0.999522
s(lp572
(g78
I7
tp573
atp574
a(S't\xc3\xb3picos'
p575
(dp576
S'NOUN'
p577
F1.0
s(lp578
(g85
I8
tp579
atp580
a(g26
(dp581
g26
F1.0
s(lp582
(g26
I9
tp583
atp584
as.