(dp0
S'fr'
p1
(lp2
(S'je'
p3
(dp4
S'PRON'
p5
F1.0
s(lp6
(S'i'
p7
I0
tp8
atp9
a(S'le'
p10
(dp11
S'PRON'
p12
F0.999725
sS'DET'
p13
F0.000275
s(lp14
(S'would'
p15
I1
tp16
atp17
a(S'rappelle'
p18
(dp19
S'VERB'
p20
F1.0
s(lp21
(S'remind'
p22
I2
tp23
atp24
a(S','
p25
(dp26
S'.'
p27
F1.0
s(lp28
(S'that'
p29
I4
tp30
atp31
a(S'le'
p32
(dp33
S'PRON'
p34
F0.000368
sS'DET'
p35
F0.999632
s(lp36
(S'the'
p37
I5
tp38
atp39
a(S'parlement'
p40
(dp41
S'NOUN'
p42
F1.0
s(lp43
(S'parliament'
p44
I7
tp45
atp46
a(S'europ\xc3\xa9en'
p47
(dp48
S'NOUN'
p49
F0.018747
sS'ADJ'
p50
F0.981253
s(lp51
(S'european'
p52
I6
tp53
atp54
a(S'avait'
p55
(dp56
S'VERB'
p57
F1.0
s(lp58
tp59
a(S'lui-m\xc3\xaame'
p60
(dp61
S'PRON'
p62
F1.0
s(lp63
(S'itself'
p64
I8
tp65
atp66
a(S'fix\xc3\xa9'
p67
(dp68
S'ADJ'
p69
F0.028994
sS'VERB'
p70
F0.895558
sS'NOUN'
p71
F0.075449
s(lp72
(S'fixed'
p73
I9
tp74
atp75
a(S"l'"
p76
(dp77
S'ADJ'
p78
F0.187491
sS'VERB'
p79
F0.37946899999999995
sS'NOUN'
p80
F0.43304
s(lp81
(S'the'
p82
I10
tp83
atp84
a(S'objectif'
p85
(dp86
S'NOUN'
p87
F0.200149
sS'ADJ'
p88
F0.799851
s(lp89
(S'target'
p90
I11
tp91
atp92
a(S'de'
p93
(dp94
S'ADP'
p95
F1.0
s(lp96
(S'of'
p97
I12
tp98
atp99
a(S'120'
p100
(dp101
S'X'
p102
F0.003009
sS'NUM'
p103
F0.996991
s(lp104
tp105
a(S'g'
p106
(dp107
S'ADJ'
p108
F0.012802
sS'VERB'
p109
F0.19150099999999992
sS'NOUN'
p110
F0.795697
s(lp111
(S'120g'
p112
I13
tp113
atp114
a(S'pour'
p115
(dp116
S'CONJ'
p117
F0.076646
sS'ADP'
p118
F0.923354
s(lp119
(S'by'
p120
I14
tp121
atp122
a(S'2005'
p123
(dp124
g102
F3.5e-05
sS'NUM'
p125
F0.999965
s(lp126
(S'2005'
p127
I15
tp128
atp129
a(S'et'
p130
(dp131
S'CONJ'
p132
F1.0
s(lp133
(S'or'
p134
I16
tp135
atp136
a(g25
(dp137
g27
F1.0
s(lp138
tp139
a(S'au'
p140
(dp141
S'ADP'
p142
F1.0
s(lp143
(S'the'
p144
I19
tp145
atp146
a(S'plus'
p147
(dp148
S'ADV'
p149
F0.999938
sS'VERB'
p150
F6.2e-05
s(lp151
tp152
a(S'tard'
p153
(dp154
S'ADV'
p155
F1.0
s(lp156
(S'latest'
p157
I20
tp158
atp159
a(g25
(dp160
g27
F1.0
s(lp161
tp162
a(S'pour'
p163
(dp164
S'CONJ'
p165
F0.142443
sS'ADP'
p166
F0.857557
s(lp167
(S'at'
p168
I18
tp169
atp170
a(S'2010'
p171
(dp172
g102
F0.000941
sS'NUM'
p173
F0.999059
s(lp174
(S'2010'
p175
I17
tp176
atp177
a(g27
(dp178
g27
F1.0
s(lp179
(g27
I21
tp180
atp181
asS'en'
p182
(lp183
(g7
(dp184
g102
F0.024389
sS'NOUN'
p185
F0.97561
s(lp186
(g7
I0
tp187
atp188
a(g15
(dp189
S'VERB'
p190
F1.0
s(lp191
(g15
I1
tp192
atp193
a(g22
(dp194
S'VERB'
p195
F1.0
s(lp196
(g22
I2
tp197
atp198
a(S'you'
p199
(dp200
S'PRON'
p201
F1.0
s(lp202
(g199
I3
tp203
atp204
a(g29
(dp205
S'ADV'
p206
F0.008566
sS'DET'
p207
F0.120321
sS'ADP'
p208
F0.871113
s(lp209
(g29
I4
tp210
atp211
a(g37
(dp212
S'NOUN'
p213
F1e-06
sS'DET'
p214
F0.999999
s(lp215
(g37
I5
tp216
atp217
a(g52
(dp218
S'NOUN'
p219
F0.10881199999999999
sS'VERB'
p220
F1.1e-05
sS'ADJ'
p221
F0.891178
s(lp222
(g52
I6
tp223
atp224
a(g44
(dp225
S'NOUN'
p226
F1.0
s(lp227
(g44
I7
tp228
atp229
a(g64
(dp230
S'PRON'
p231
F1.0
s(lp232
(g64
I8
tp233
atp234
a(g73
(dp235
S'VERB'
p236
F0.9999990000000001
sS'ADJ'
p237
F2e-06
s(lp238
(g73
I9
tp239
atp240
a(g82
(dp241
S'NOUN'
p242
F2e-06
sS'DET'
p243
F0.999998
s(lp244
(g82
I10
tp245
atp246
a(g90
(dp247
S'VERB'
p248
F0.000674
sS'NOUN'
p249
F0.999326
s(lp250
(g90
I11
tp251
atp252
a(g97
(dp253
S'ADP'
p254
F1.0
s(lp255
(g97
I12
tp256
atp257
a(g112
(dp258
S'NOUN'
p259
F0.569871
sS'ADJ'
p260
F0.430128
s(lp261
(g112
I13
tp262
atp263
a(g120
(dp264
S'ADV'
p265
F0.000476
sS'NOUN'
p266
F1e-06
sS'ADP'
p267
F0.999523
s(lp268
(g120
I14
tp269
atp270
a(g127
(dp271
S'ADV'
p272
F2.7e-05
sS'ADJ'
p273
F0.001622
sS'NUM'
p274
F0.995298
sS'NOUN'
p275
F0.003053
sg102
F0.0
s(lp276
(g127
I15
tp277
atp278
a(g134
(dp279
S'CONJ'
p280
F0.999991
sS'ADJ'
p281
F9e-06
s(lp282
(g134
I16
tp283
atp284
a(g175
(dp285
S'ADV'
p286
F0.000665
sS'NOUN'
p287
F0.001288
sS'NUM'
p288
F0.99549
sS'ADJ'
p289
F0.002551
sg102
F6e-06
s(lp290
(g175
I17
tp291
atp292
a(g168
(dp293
S'NOUN'
p294
F2e-05
sS'ADP'
p295
F0.99998
s(lp296
(g168
I18
tp297
atp298
a(g144
(dp299
S'NOUN'
p300
F0.0
sS'DET'
p301
F1.0
s(lp302
(g144
I19
tp303
atp304
a(g157
(dp305
S'ADV'
p306
F5.7e-05
sS'ADJ'
p307
F0.9999429999999999
s(lp308
(g157
I20
tp309
atp310
a(g27
(dp311
g27
F1.0
s(lp312
(g27
I21
tp313
atp314
asS'nl'
p315
(lp316
(S'ik'
p317
(dp318
S'PRON'
p319
F0.999981
sS'NOUN'
p320
F1.9e-05
s(lp321
(g7
I0
tp322
atp323
a(S'wil'
p324
(dp325
S'VERB'
p326
F0.99887
sS'NOUN'
p327
F0.00113
s(lp328
(g15
I1
tp329
atp330
a(S'u'
p331
(dp332
S'PRON'
p333
F0.999973
sS'NOUN'
p334
F2.7e-05
s(lp335
(g199
I3
tp336
atp337
a(S'eraan'
p338
(dp339
S'ADV'
p340
F1.0
s(lp341
tp342
a(S'herinneren'
p343
(dp344
S'VERB'
p345
F0.995914
sS'NOUN'
p346
F0.004086
s(lp347
(g22
I2
tp348
atp349
a(S'dat'
p350
(dp351
S'PRON'
p352
F0.039699
sS'CONJ'
p353
F0.960301
s(lp354
(g29
I4
tp355
atp356
a(S'het'
p357
(dp358
S'PRON'
p359
F0.087098
sS'DET'
p360
F0.912902
s(lp361
(g37
I5
tp362
atp363
a(S'europees'
p364
(dp365
S'NOUN'
p366
F0.044814
sS'ADJ'
p367
F0.955186
s(lp368
(g52
I6
tp369
atp370
a(S'parlement'
p371
(dp372
S'NOUN'
p373
F1.0
s(lp374
(g44
I7
tp375
atp376
a(S'zelf'
p377
(dp378
S'PRON'
p379
F1.0
s(lp380
(g64
I8
tp381
atp382
a(S'het'
p383
(dp384
S'PRON'
p385
F7.3e-05
sS'DET'
p386
F0.999927
s(lp387
(g82
I10
tp388
atp389
a(S'streefcijfer'
p390
(dp391
S'NOUN'
p392
F1.0
s(lp393
(g90
I11
tp394
atp395
a(S'heeft'
p396
(dp397
S'VERB'
p398
F1.0
s(lp399
tp400
a(S'vastgesteld'
p401
(dp402
S'VERB'
p403
F1.0
s(lp404
(g73
I9
tp405
atp406
a(S'op'
p407
(dp408
S'ADV'
p409
F0.00034
sS'ADJ'
p410
F0.0
sS'ADP'
p411
F0.99966
s(lp412
(g97
I12
tp413
atp414
a(S'120'
p415
(dp416
S'NUM'
p417
F1.0
s(lp418
tp419
a(g106
(dp420
S'NUM'
p421
F0.756108
sS'NOUN'
p422
F0.243892
s(lp423
(g112
I13
tp424
atp425
a(S'in'
p426
(dp427
S'ADV'
p428
F0.004822
sS'VERB'
p429
F1e-06
sS'ADP'
p430
F0.995176
s(lp431
(g120
I14
tp432
atp433
a(S'2005'
p434
(dp435
S'NUM'
p436
F1.0
s(lp437
(g127
I15
tp438
atp439
a(S'of'
p440
(dp441
S'CONJ'
p442
F1.0
s(lp443
(g134
I16
tp444
atp445
a(S'uiterlijk'
p446
(dp447
S'ADV'
p448
F0.505752
sS'NOUN'
p449
F0.078785
sS'ADJ'
p450
F0.415463
s(lp451
(g157
I20
tp452
atp453
a(S'2010'
p454
(dp455
S'NUM'
p456
F1.0
s(lp457
(g175
I17
tp458
atp459
a(g27
(dp460
g27
F1.0
s(lp461
(g27
I21
tp462
atp463
asS'de'
p464
(lp465
(S'ich'
p466
(dp467
S'PRON'
p468
F1.0
s(lp469
(g7
I0
tp470
atp471
a(S'erinnere'
p472
(dp473
S'VERB'
p474
F1.0
s(lp475
tp476
a(S'sie'
p477
(dp478
S'PRON'
p479
F1.0
s(lp480
(g199
I3
tp481
atp482
a(S'daran'
p483
(dp484
S'ADV'
p485
F0.977761
sS'PRT'
p486
F0.022239
s(lp487
(g22
I2
tp488
atp489
a(g25
(dp490
g27
F1.0
s(lp491
tp492
a(S'dass'
p493
(dp494
S'CONJ'
p495
F1.0
s(lp496
(g29
I4
tp497
atp498
a(S'das'
p499
(dp500
S'PRON'
p501
F0.095586
sS'DET'
p502
F0.904299
s(lp503
(g37
I5
tp504
atp505
a(S'europ\xc3\xa4ische'
p506
(dp507
S'ADJ'
p508
F1.0
s(lp509
(g52
I6
tp510
atp511
a(S'parlament'
p512
(dp513
S'ADJ'
p514
F0.003671
sS'NOUN'
p515
F0.994052
s(lp516
(g44
I7
tp517
atp518
a(S'selbst'
p519
(dp520
S'ADV'
p521
F0.998754
sS'PRT'
p522
F0.001246
s(lp523
(g64
I8
tp524
atp525
a(S'das'
p526
(dp527
S'PRON'
p528
F0.771112
sS'DET'
p529
F0.228425
s(lp530
(g82
I10
tp531
atp532
a(S'ziel'
p533
(dp534
S'VERB'
p535
F1.0
s(lp536
(g90
I11
tp537
atp538
a(S'auf'
p539
(dp540
S'PRT'
p541
F0.002249
sS'ADP'
p542
F0.99769
s(lp543
(g97
I12
tp544
atp545
a(S'120'
p546
(dp547
S'NUM'
p548
F1.0
s(lp549
tp550
a(g106
(dp551
S'NOUN'
p552
F1.0
s(lp553
(g112
I13
tp554
atp555
a(S'bis'
p556
(dp557
S'CONJ'
p558
F0.043625
sS'ADP'
p559
F0.956319
s(lp560
(g120
I14
tp561
atp562
a(S'2005'
p563
(dp564
S'NUM'
p565
F1.0
s(lp566
(g127
I15
tp567
atp568
a(S'bzw.'
p569
(dp570
S'CONJ'
p571
F1.0
s(lp572
(g134
I16
tp573
atp574
a(S'sp\xc3\xa4testens'
p575
(dp576
S'ADV'
p577
F1.0
s(lp578
(g157
I20
tp579
atp580
a(S'2010'
p581
(dp582
S'ADV'
p583
F0.01769
sS'NUM'
p584
F0.979664
s(lp585
(g175
I17
tp586
atp587
a(S'festgelegt'
p588
(dp589
S'VERB'
p590
F0.996218
sS'ADJ'
p591
F0.003782
s(lp592
tp593
a(S'hat'
p594
(dp595
S'VERB'
p596
F1.0
s(lp597
(g73
I9
tp598
atp599
a(g27
(dp600
g27
F1.0
s(lp601
(g27
I21
tp602
atp603
asS'it'
p604
(lp605
(S'vorrei'
p606
(dp607
S'VERB'
p608
F1.0
s(lp609
(g7
I0
tp610
atp611
a(S'ricordare'
p612
(dp613
S'VERB'
p614
F1.0
s(lp615
(g22
I2
tp616
atp617
a(S'che'
p618
(dp619
S'PRON'
p620
F0.99438
sS'CONJ'
p621
F0.005453
sS'ADJ'
p622
F0.000167
s(lp623
(g29
I4
tp624
atp625
a(S'lo'
p626
(dp627
S'PRON'
p628
F0.164089
sS'DET'
p629
F0.835911
s(lp630
(g37
I5
tp631
atp632
a(S'stesso'
p633
(dp634
S'NOUN'
p635
F0.003826
sS'ADJ'
p636
F0.996174
s(lp637
(g64
I8
tp638
atp639
a(S'parlamento'
p640
(dp641
S'VERB'
p642
F0.006994
sS'NOUN'
p643
F0.993006
s(lp644
tp645
a(S'europeo'
p646
(dp647
S'NOUN'
p648
F0.000353
sS'ADJ'
p649
F0.999647
s(lp650
(g52
I6
tp651
atp652
a(S'aveva'
p653
(dp654
S'VERB'
p655
F1.0
s(lp656
(g44
I7
tp657
atp658
a(S'fissato'
p659
(dp660
S'NOUN'
p661
F0.001052
sS'VERB'
p662
F0.997709
sS'ADJ'
p663
F0.001239
s(lp664
(g73
I9
tp665
atp666
a(S"l'"
p667
(dp668
S'NOUN'
p669
F0.016451
sS'VERB'
p670
F0.9349070000000002
sS'ADJ'
p671
F0.048643
s(lp672
(g82
I10
tp673
atp674
a(S'obiettivo'
p675
(dp676
S'ADJ'
p677
F0.038273
sS'VERB'
p678
F0.001368
sS'NOUN'
p679
F0.960359
s(lp680
(g90
I11
tp681
atp682
a(S'di'
p683
(dp684
S'CONJ'
p685
F1e-05
sS'ADP'
p686
F0.99999
s(lp687
(g97
I12
tp688
atp689
a(S'120'
p690
(dp691
S'NUM'
p692
F0.9507899999999999
sg27
F0.049209
s(lp693
tp694
a(g106
(dp695
S'ADJ'
p696
F0.041932
sS'VERB'
p697
F0.8013850000000002
sS'NOUN'
p698
F0.156682
s(lp699
(g112
I13
tp700
atp701
a(S'per'
p702
(dp703
S'CONJ'
p704
F0.021171
sS'ADP'
p705
F0.978829
s(lp706
(g120
I14
tp707
atp708
a(S'il'
p709
(dp710
S'DET'
p711
F1.0
s(lp712
(g175
I17
tp713
atp714
a(S'2005'
p715
(dp716
S'NUM'
p717
F0.993984
sg27
F0.006016
s(lp718
(g127
I15
tp719
atp720
a(S'e'
p721
(dp722
S'CONJ'
p723
F1.0
s(lp724
(g134
I16
tp725
atp726
a(g25
(dp727
g27
F1.0
s(lp728
tp729
a(S'al'
p730
(dp731
S'ADP'
p732
F1.0
s(lp733
(g144
I19
tp734
atp735
a(S'massimo'
p736
(dp737
S'ADJ'
p738
F0.208336
sS'NOUN'
p739
F0.791664
s(lp740
(g157
I20
tp741
atp742
a(g25
(dp743
g27
F1.0
s(lp744
tp745
a(S'per'
p746
(dp747
S'CONJ'
p748
F0.104976
sS'ADP'
p749
F0.895024
s(lp750
(g168
I18
tp751
atp752
a(S'il'
p753
(dp754
S'DET'
p755
F1.0
s(lp756
tp757
a(S'2010'
p758
(dp759
S'NUM'
p760
F0.998926
sg27
F0.001073
s(lp761
(g175
I17
tp762
atp763
a(g27
(dp764
g27
F1.0
s(lp765
(g27
I21
tp766
atp767
asS'sk'
p768
(lp769
(S'rada'
p770
(dp771
S'ADJ'
p772
F0.475753
sS'NOUN'
p773
F0.524247
s(lp774
tp775
a(S'by'
p776
(dp777
S'PRT'
p778
F0.999988
sg102
F1.2e-05
s(lp779
(g15
I1
tp780
atp781
a(S'som'
p782
(dp783
S'VERB'
p784
F1.0
s(lp785
(g7
I0
tp786
atp787
a(S'pripomenula'
p788
(dp789
S'VERB'
p790
F0.9999990000000001
s(lp791
(g22
I2
tp792
atp793
a(g25
(dp794
g27
F1.0
s(lp795
tp796
a(S'\xc5\xbee'
p797
(dp798
g102
F0.000496
sS'CONJ'
p799
F0.999504
s(lp800
(g29
I4
tp801
atp802
a(S'samotn\xc3\xba'
p803
(dp804
S'ADJ'
p805
F1.0
s(lp806
(g64
I8
tp807
atp808
a(S'eur\xc3\xb3psky'
p809
(dp810
S'ADJ'
p811
F1.0
s(lp812
(g52
I6
tp813
atp814
a(S'parlament'
p815
(dp816
S'NOUN'
p817
F1.0
s(lp818
(g44
I7
tp819
atp820
a(S'upravil'
p821
(dp822
S'VERB'
p823
F0.999999
s(lp824
(g112
I13
tp825
atp826
a(S'cie\xc4\xbe'
p827
(dp828
S'VERB'
p829
F0.0
sS'NOUN'
p830
F1.0
s(lp831
(g90
I11
tp832
atp833
a(S'na'
p834
(dp835
g102
F0.000433
sS'CONJ'
p836
F6e-06
sS'ADP'
p837
F0.999555
sS'PRT'
p838
F7e-06
s(lp839
(g168
I18
tp840
atp841
a(S'120'
p842
(dp843
S'NUM'
p844
F1.0
s(lp845
tp846
a(g106
(dp847
g102
F0.989169
sS'NOUN'
p848
F0.010832
s(lp849
(g112
I13
tp850
atp851
a(S'do'
p852
(dp853
g102
F0.00044799999999999994
sS'ADP'
p854
F0.999532
sS'PRON'
p855
F2.1e-05
s(lp856
(g120
I14
tp857
atp858
a(S'roku'
p859
(dp860
S'NOUN'
p861
F1.0
s(lp862
tp863
a(S'2005'
p864
(dp865
S'NUM'
p866
F1.0
s(lp867
(g127
I15
tp868
atp869
a(S'alebo'
p870
(dp871
g102
F1.3e-05
sS'CONJ'
p872
F0.999987
s(lp873
(g134
I16
tp874
atp875
a(S'najnesk\xc3\xb4r'
p876
(dp877
S'ADV'
p878
F1.0
s(lp879
(g157
I20
tp880
atp881
a(S'2010'
p882
(dp883
S'NUM'
p884
F1.0
s(lp885
(g175
I17
tp886
atp887
a(g27
(dp888
g27
F1.0
s(lp889
(g27
I21
tp890
atp891
asS'pl'
p892
(lp893
(S'chcia\xc5\x82abym'
p894
(dp895
S'ADV'
p896
F0.000817
sS'NOUN'
p897
F0.032629000000000005
sS'VERB'
p898
F0.34007499999999974
sS'ADJ'
p899
F0.6264779999999999
s(lp900
(g15
I1
tp901
atp902
a(S'pa\xc5\x84stwu'
p903
(dp904
S'NOUN'
p905
F1.0
s(lp906
tp907
a(S'przypomnie\xc4\x87'
p908
(dp909
S'VERB'
p910
F1.0
s(lp911
(g22
I2
tp912
atp913
a(g25
(dp914
g102
F0.0
sg27
F1.0
s(lp915
tp916
a(S'\xc5\xbce'
p917
(dp918
S'PRT'
p919
F0.00015
sS'CONJ'
p920
F0.999849
s(lp921
(g29
I4
tp922
atp923
a(S'sam'
p924
(dp925
S'ADV'
p926
F0.0042239999999999995
sS'ADJ'
p927
F0.995776
s(lp928
(g64
I8
tp929
atp930
a(S'parlament'
p931
(dp932
S'NOUN'
p933
F1.0
s(lp934
(g44
I7
tp935
atp936
a(S'europejski'
p937
(dp938
S'ADJ'
p939
F0.9999999999999999
s(lp940
(g52
I6
tp941
atp942
a(S'ustali\xc5\x82'
p943
(dp944
S'VERB'
p945
F1.0
s(lp946
(g112
I13
tp947
atp948
a(S'cel'
p949
(dp950
S'NOUN'
p951
F1.0
s(lp952
(g90
I11
tp953
atp954
a(S'w'
p955
(dp956
S'NOUN'
p957
F1.2e-05
sS'ADJ'
p958
F5.5e-05
sS'ADP'
p959
F0.9999339999999999
sg102
F0.0
s(lp960
(g97
I12
tp961
atp962
a(S'wysoko\xc5\x9bci'
p963
(dp964
S'NOUN'
p965
F0.999999
s(lp966
(g112
I13
tp967
atp968
a(S'120'
p969
(dp970
S'NUM'
p971
F1.0
s(lp972
tp973
a(g106
(dp974
g102
F0.999955
sS'NOUN'
p975
F4.5e-05
s(lp976
(g112
I13
tp977
atp978
a(S'do'
p979
(dp980
g102
F0.0
sS'NOUN'
p981
F9e-06
sS'ADP'
p982
F0.99999
s(lp983
(g120
I14
tp984
atp985
a(S'2005'
p986
(dp987
S'NUM'
p988
F0.356591
sS'ADJ'
p989
F0.6434089999999999
s(lp990
tp991
a(S'r'
p992
(dp993
g102
F0.949546
sS'NOUN'
p994
F0.050454
s(lp995
(g127
I15
tp996
atp997
a(g27
(dp998
g27
F1.0
s(lp999
tp1000
a(g25
(dp1001
g102
F0.0
sg27
F1.0
s(lp1002
tp1003
a(S'a'
p1004
(dp1005
S'ADV'
p1006
F5e-06
sS'NOUN'
p1007
F0.00020999999999999998
sS'ADP'
p1008
F0.000204
sS'PRT'
p1009
F0.000872
sS'VERB'
p1010
F4e-06
sg102
F6.5e-05
sS'CONJ'
p1011
F0.998621
sS'ADJ'
p1012
F1.9e-05
s(lp1013
(g134
I16
tp1014
atp1015
a(S'najp\xc3\xb3\xc5\xbaniej'
p1016
(dp1017
S'ADV'
p1018
F1.0
s(lp1019
(g157
I20
tp1020
atp1021
a(S'do'
p1022
(dp1023
g102
F1e-06
sS'NOUN'
p1024
F2.1e-05
sS'ADP'
p1025
F0.9999779999999999
s(lp1026
(g144
I19
tp1027
atp1028
a(S'2010'
p1029
(dp1030
S'NUM'
p1031
F0.000694
sS'ADJ'
p1032
F0.9993059999999999
s(lp1033
tp1034
a(g992
(dp1035
g102
F0.938714
sS'NOUN'
p1036
F0.061286
s(lp1037
(g175
I17
tp1038
atp1039
a(g27
(dp1040
g27
F1.0
s(lp1041
(g27
I21
tp1042
atp1043
asS'sl'
p1044
(lp1045
(S'naj'
p1046
(dp1047
S'PRT'
p1048
F0.516402
sS'CONJ'
p1049
F0.483585
sS'ADJ'
p1050
F1.4000000000000001e-05
s(lp1051
(g7
I0
tp1052
atp1053
a(S'vas'
p1054
(dp1055
S'PRON'
p1056
F0.961264
sS'NOUN'
p1057
F0.038736
s(lp1058
tp1059
a(S'opomnim'
p1060
(dp1061
S'ADV'
p1062
F0.005999
sS'NOUN'
p1063
F0.137004
sS'VERB'
p1064
F0.697498
sS'ADJ'
p1065
F0.15949699999999997
s(lp1066
(g22
I2
tp1067
atp1068
a(g25
(dp1069
g27
F1.0
s(lp1070
tp1071
a(S'da'
p1072
(dp1073
S'PRT'
p1074
F4e-06
sS'CONJ'
p1075
F0.999979
sS'VERB'
p1076
F1.7e-05
sg102
F1e-06
s(lp1077
(g29
I4
tp1078
atp1079
a(S'je'
p1080
(dp1081
S'PRON'
p1082
F0.001809
sS'VERB'
p1083
F0.99819
sg102
F1e-06
s(lp1084
(g37
I5
tp1085
atp1086
a(S'evropski'
p1087
(dp1088
S'ADJ'
p1089
F1.0000010000000001
s(lp1090
(g52
I6
tp1091
atp1092
a(S'parlament'
p1093
(dp1094
S'NOUN'
p1095
F1.0
s(lp1096
(g44
I7
tp1097
atp1098
a(S'popravil'
p1099
(dp1100
S'VERB'
p1101
F0.973831
sS'NOUN'
p1102
F0.026169
s(lp1103
(g73
I9
tp1104
atp1105
a(S'cilj'
p1106
(dp1107
S'NOUN'
p1108
F1.0
s(lp1109
(g90
I11
tp1110
atp1111
a(S'120'
p1112
(dp1113
S'NUM'
p1114
F1.0
s(lp1115
tp1116
a(g106
(dp1117
S'NOUN'
p1118
F1.0
s(lp1119
(g112
I13
tp1120
atp1121
a(S'leta'
p1122
(dp1123
S'NOUN'
p1124
F0.9999999999999999
s(lp1125
tp1126
a(S'2005'
p1127
(dp1128
S'NUM'
p1129
F1.0
s(lp1130
(g127
I15
tp1131
atp1132
a(S'oziroma'
p1133
(dp1134
S'CONJ'
p1135
F1.0
s(lp1136
(g134
I16
tp1137
atp1138
a(S'najpozneje'
p1139
(dp1140
S'ADV'
p1141
F1.0
s(lp1142
(g157
I20
tp1143
atp1144
a(S'leta'
p1145
(dp1146
S'NOUN'
p1147
F1.000001
s(lp1148
tp1149
a(S'2010'
p1150
(dp1151
S'NUM'
p1152
F1.0
s(lp1153
(g175
I17
tp1154
atp1155
a(g27
(dp1156
g27
F1.0
s(lp1157
(g27
I21
tp1158
atp1159
asS'es'
p1160
(lp1161
(S'les'
p1162
(dp1163
S'PRON'
p1164
F0.980243
sg102
F0.019757
s(lp1165
(g7
I0
tp1166
atp1167
a(S'recuerdo'
p1168
(dp1169
S'NOUN'
p1170
F0.001619
sS'VERB'
p1171
F0.992872
sS'ADJ'
p1172
F0.005508
s(lp1173
(g22
I2
tp1174
atp1175
a(S'que'
p1176
(dp1177
g102
F0.0
sS'CONJ'
p1178
F1.0
s(lp1179
(g29
I4
tp1180
atp1181
a(S'el'
p1182
(dp1183
S'PRON'
p1184
F0.001161
sS'DET'
p1185
F0.998839
s(lp1186
(g37
I5
tp1187
atp1188
a(S'propio'
p1189
(dp1190
S'ADJ'
p1191
F1.0
s(lp1192
(g64
I8
tp1193
atp1194
a(S'parlamento'
p1195
(dp1196
S'VERB'
p1197
F0.039745
sS'NOUN'
p1198
F0.960255
s(lp1199
(g44
I7
tp1200
atp1201
a(S'europeo'
p1202
(dp1203
S'NOUN'
p1204
F0.002043
sS'ADJ'
p1205
F0.997957
s(lp1206
(g52
I6
tp1207
atp1208
a(S'fij\xc3\xb3'
p1209
(dp1210
S'VERB'
p1211
F1.0
s(lp1212
(g73
I9
tp1213
atp1214
a(S'el'
p1215
(dp1216
S'PRON'
p1217
F2e-06
sS'DET'
p1218
F0.999998
s(lp1219
(g82
I10
tp1220
atp1221
a(S'objetivo'
p1222
(dp1223
S'ADJ'
p1224
F0.030135
sS'NOUN'
p1225
F0.969865
s(lp1226
(g90
I11
tp1227
atp1228
a(S'de'
p1229
(dp1230
g102
F0.003432
sS'CONJ'
p1231
F0.000315
sS'ADP'
p1232
F0.996254
s(lp1233
(g97
I12
tp1234
atp1235
a(S'120'
p1236
(dp1237
g102
F0.29474
sS'NUM'
p1238
F0.70526
s(lp1239
tp1240
a(g106
(dp1241
g102
F1.0
s(lp1242
(g112
I13
tp1243
atp1244
a(S'para'
p1245
(dp1246
S'CONJ'
p1247
F0.000729
sS'ADP'
p1248
F0.999271
s(lp1249
(g120
I14
tp1250
atp1251
a(S'2005'
p1252
(dp1253
g102
F0.02398
sS'NUM'
p1254
F0.97602
s(lp1255
(g127
I15
tp1256
atp1257
a(S'y'
p1258
(dp1259
g102
F0.000149
sS'CONJ'
p1260
F0.999851
s(lp1261
(g134
I16
tp1262
atp1263
a(g25
(dp1264
g27
F1.0
s(lp1265
tp1266
a(g1004
(dp1267
g102
F0.004869
sS'CONJ'
p1268
F0.000643
sS'ADP'
p1269
F0.994489
s(lp1270
(g168
I18
tp1271
atp1272
a(S'm\xc3\xa1s'
p1273
(dp1274
S'ADV'
p1275
F1.0
sS'CONJ'
p1276
F0.0
s(lp1277
tp1278
a(S'tardar'
p1279
(dp1280
S'VERB'
p1281
F1.0
s(lp1282
(g157
I20
tp1283
atp1284
a(g25
(dp1285
g27
F1.0
s(lp1286
tp1287
a(S'2010'
p1288
(dp1289
g102
F0.263792
sS'NUM'
p1290
F0.736208
s(lp1291
(g175
I17
tp1292
atp1293
a(g27
(dp1294
g27
F1.0
s(lp1295
(g27
I21
tp1296
atp1297
as.