(dp0
S'fr'
p1
(lp2
(S'cela'
p3
(dp4
S'PRON'
p5
F0.999998
sS'VERB'
p6
F2e-06
s(lp7
(S'this'
p8
I0
tp9
atp10
a(S'signifie'
p11
(dp12
S'VERB'
p13
F1.0
s(lp14
(S'means'
p15
I1
tp16
atp17
a(S'que'
p18
(dp19
S'ADV'
p20
F0.025348
sS'PRON'
p21
F0.118513
sS'CONJ'
p22
F0.856139
s(lp23
tp24
a(S'nous'
p25
(dp26
S'PRON'
p27
F1.0
s(lp28
(S'we'
p29
I2
tp30
atp31
a(S'devons'
p32
(dp33
S'VERB'
p34
F0.999987
sS'NOUN'
p35
F1.3e-05
s(lp36
(S'have'
p37
I3
tp38
atp39
a(S'fournir'
p40
(dp41
S'VERB'
p42
F1.0
s(lp43
(S'provide'
p44
I5
tp45
atp46
a(S"l'"
p47
(dp48
S'ADJ'
p49
F0.050629
sS'VERB'
p50
F0.794975
sS'NOUN'
p51
F0.154398
s(lp52
tp53
a(S'\xc3\xa9ducation'
p54
(dp55
S'NOUN'
p56
F1.0
s(lp57
(S'education'
p58
I9
tp59
atp60
a(S'\xc3\xa0'
p61
(dp62
S'ADP'
p63
F1.0
s(lp64
(S'with'
p65
I7
tp66
atp67
a(S'la'
p68
(dp69
S'PRON'
p70
F1.2e-05
sS'DET'
p71
F0.999988
sS'NOUN'
p72
F0.0
s(lp73
(S'an'
p74
I8
tp75
atp76
a(S'population'
p77
(dp78
S'NOUN'
p79
F1.0
s(lp80
(S'people'
p81
I6
tp82
atp83
a(S'et'
p84
(dp85
S'CONJ'
p86
F1.0
s(lp87
(S'and'
p88
I10
tp89
atp90
a(S'garantir'
p91
(dp92
S'VERB'
p93
F1.0
s(lp94
(S'ensure'
p95
I11
tp96
atp97
a(S'leur'
p98
(dp99
S'PRON'
p100
F1.0
s(lp101
(S'they'
p102
I13
tp103
atp104
a(S'bonne'
p105
(dp106
S'ADV'
p107
F0.000232
sS'NOUN'
p108
F0.020242
sS'ADJ'
p109
F0.979527
s(lp110
tp111
a(S'sant\xc3\xa9'
p112
(dp113
S'NOUN'
p114
F1.0
s(lp115
(S'healthy'
p116
I15
tp117
atp118
a(S'pour'
p119
(dp120
S'CONJ'
p121
F0.794856
sS'ADP'
p122
F0.205144
s(lp123
(S'so'
p124
I16
tp125
atp126
a(S'que'
p127
(dp128
S'ADV'
p129
F0.026014
sS'PRON'
p130
F0.20906799999999998
sS'CONJ'
p131
F0.764918
s(lp132
(S'that'
p133
I17
tp134
atp135
a(S'les'
p136
(dp137
S'PRON'
p138
F0.000735
sS'DET'
p139
F0.999252
sS'ADP'
p140
F1.2e-05
s(lp141
tp142
a(S'personnes'
p143
(dp144
S'NOUN'
p145
F1.0
s(lp146
(S'they'
p147
I18
tp148
atp149
a(S'puissent'
p150
(dp151
S'VERB'
p152
F1.0
s(lp153
(S'able'
p154
I20
tp155
atp156
a(S'se'
p157
(dp158
S'PRON'
p159
F1.0
s(lp160
tp161
a(S'd\xc3\xa9velopper'
p162
(dp163
S'VERB'
p164
F1.0
s(lp165
(S'develop'
p166
I22
tp167
atp168
a(S'au'
p169
(dp170
S'ADP'
p171
F1.0
s(lp172
tp173
a(S'sein'
p174
(dp175
S'NOUN'
p176
F1.0
s(lp177
(S'within'
p178
I23
tp179
atp180
a(S'de'
p181
(dp182
S'ADP'
p183
F1.0
s(lp184
tp185
a(S'leur'
p186
(dp187
S'PRON'
p188
F1.0
s(lp189
(S'their'
p190
I24
tp191
atp192
a(S'environnement'
p193
(dp194
S'NOUN'
p195
F1.0
s(lp196
(S'environment'
p197
I26
tp198
atp199
a(S','
p200
(dp201
S'.'
p202
F1.0
s(lp203
(g200
I27
tp204
atp205
a(S'de'
p206
(dp207
S'ADP'
p208
F1.0
s(lp209
tp210
a(S'leur'
p211
(dp212
S'PRON'
p213
F1.0
s(lp214
(S'their'
p215
I28
tp216
atp217
a(S'propre'
p218
(dp219
S'NOUN'
p220
F0.029636
sS'ADJ'
p221
F0.970364
s(lp222
(S'own'
p223
I29
tp224
atp225
a(S'pays'
p226
(dp227
S'NOUN'
p228
F1.0
s(lp229
(S'country'
p230
I30
tp231
atp232
a(g202
(dp233
g202
F1.0
s(lp234
(g202
I31
tp235
atp236
asS'en'
p237
(lp238
(g8
(dp239
S'ADV'
p240
F0.001017
sS'NOUN'
p241
F0.000447
sS'DET'
p242
F0.998536
s(lp243
(g8
I0
tp244
atp245
a(g15
(dp246
S'VERB'
p247
F0.637071
sS'NOUN'
p248
F0.362929
s(lp249
(g15
I1
tp250
atp251
a(g29
(dp252
S'PRON'
p253
F1.0
s(lp254
(g29
I2
tp255
atp256
a(g37
(dp257
S'VERB'
p258
F1.0
s(lp259
(g37
I3
tp260
atp261
a(S'to'
p262
(dp263
S'ADV'
p264
F1e-06
sS'PRT'
p265
F0.999999
sS'ADP'
p266
F0.0
s(lp267
(g262
I4
tp268
atp269
a(g44
(dp270
S'VERB'
p271
F1.0
s(lp272
(g44
I5
tp273
atp274
a(g81
(dp275
S'VERB'
p276
F4e-06
sS'NOUN'
p277
F0.999995
s(lp278
(g81
I6
tp279
atp280
a(g65
(dp281
S'ADP'
p282
F1.0
s(lp283
(g65
I7
tp284
atp285
a(g74
(dp286
S'DET'
p287
F1.0
s(lp288
(g74
I8
tp289
atp290
a(g58
(dp291
S'NOUN'
p292
F1.0
s(lp293
(g58
I9
tp294
atp295
a(g88
(dp296
S'CONJ'
p297
F1.0
sS'NOUN'
p298
F0.0
s(lp299
(g88
I10
tp300
atp301
a(g95
(dp302
S'VERB'
p303
F1.0
s(lp304
(g95
I11
tp305
atp306
a(S'that'
p307
(dp308
S'ADV'
p309
F0.000237
sS'DET'
p310
F0.026297
sS'ADP'
p311
F0.973465
s(lp312
(g307
I12
tp313
atp314
a(g102
(dp315
S'PRON'
p316
F1.0
s(lp317
(g102
I13
tp318
atp319
a(S'are'
p320
(dp321
S'VERB'
p322
F1.0
sS'NOUN'
p323
F0.0
s(lp324
(g320
I14
tp325
atp326
a(g116
(dp327
S'ADJ'
p328
F1.0
s(lp329
(g116
I15
tp330
atp331
a(g124
(dp332
S'ADV'
p333
F0.112482
sS'ADJ'
p334
F0.00271
sS'CONJ'
p335
F0.037678
sS'NOUN'
p336
F0.019591
sS'ADP'
p337
F0.827538
s(lp338
(g124
I16
tp339
atp340
a(g133
(dp341
S'ADV'
p342
F0.004917
sS'DET'
p343
F0.33995
sS'ADP'
p344
F0.655134
s(lp345
(g133
I17
tp346
atp347
a(g147
(dp348
S'PRON'
p349
F1.0
s(lp350
(g147
I18
tp351
atp352
a(S'are'
p353
(dp354
S'VERB'
p355
F1.0
sS'NOUN'
p356
F0.0
s(lp357
(g353
I19
tp358
atp359
a(g154
(dp360
S'ADJ'
p361
F1.0
s(lp362
(g154
I20
tp363
atp364
a(S'to'
p365
(dp366
S'ADV'
p367
F0.0
sS'PRT'
p368
F1.0
sS'ADP'
p369
F0.0
s(lp370
(g365
I21
tp371
atp372
a(g166
(dp373
S'VERB'
p374
F1.0
s(lp375
(g166
I22
tp376
atp377
a(g178
(dp378
S'ADV'
p379
F0.000295
sS'ADP'
p380
F0.999705
s(lp381
(g178
I23
tp382
atp383
a(g190
(dp384
S'PRON'
p385
F1.0
s(lp386
(g190
I24
tp387
atp388
a(S'own'
p389
(dp390
S'VERB'
p391
F1.7e-05
sS'ADJ'
p392
F0.999982
s(lp393
(g389
I25
tp394
atp395
a(g197
(dp396
S'NOUN'
p397
F1.0
s(lp398
(g197
I26
tp399
atp400
a(g200
(dp401
g202
F1.0
s(lp402
(g200
I27
tp403
atp404
a(g215
(dp405
S'PRON'
p406
F1.0
s(lp407
(g215
I28
tp408
atp409
a(g223
(dp410
S'VERB'
p411
F1.7e-05
sS'ADJ'
p412
F0.999982
s(lp413
(g223
I29
tp414
atp415
a(g230
(dp416
S'NOUN'
p417
F1.0
s(lp418
(g230
I30
tp419
atp420
a(g202
(dp421
g202
F1.0
s(lp422
(g202
I31
tp423
atp424
asS'nl'
p425
(lp426
(S'dit'
p427
(dp428
S'PRON'
p429
F1.0
s(lp430
(g8
I0
tp431
atp432
a(S'betekent'
p433
(dp434
S'VERB'
p435
F1.0
s(lp436
(g15
I1
tp437
atp438
a(S'dat'
p439
(dp440
S'PRON'
p441
F0.0025970000000000003
sS'CONJ'
p442
F0.997403
s(lp443
tp444
a(S'we'
p445
(dp446
S'PRON'
p447
F1.0
s(lp448
(g29
I2
tp449
atp450
a(S'mensen'
p451
(dp452
S'NOUN'
p453
F1.0
s(lp454
(g81
I6
tp455
atp456
a(S'onderwijs'
p457
(dp458
S'VERB'
p459
F0.000992
sS'NOUN'
p460
F0.999008
s(lp461
(g58
I9
tp462
atp463
a(S'moeten'
p464
(dp465
S'VERB'
p466
F0.999986
sS'NOUN'
p467
F1.4e-05
s(lp468
(g37
I3
tp469
atp470
a(S'bieden'
p471
(dp472
S'VERB'
p473
F0.9994000000000001
sS'NOUN'
p474
F0.0006
s(lp475
(g44
I5
tp476
atp477
a(S'en'
p478
(dp479
S'CONJ'
p480
F1.0
s(lp481
(g88
I10
tp482
atp483
a(S'ervoor'
p484
(dp485
S'ADV'
p486
F1.0
s(lp487
tp488
a(S'zorgen'
p489
(dp490
S'VERB'
p491
F0.47360800000000003
sS'NOUN'
p492
F0.5263920000000001
s(lp493
(g95
I11
tp494
atp495
a(S'dat'
p496
(dp497
S'PRON'
p498
F0.230565
sS'CONJ'
p499
F0.769436
s(lp500
(g307
I12
tp501
atp502
a(S'ze'
p503
(dp504
S'PRON'
p505
F1.0
s(lp506
(g102
I13
tp507
atp508
a(S'gezond'
p509
(dp510
S'VERB'
p511
F0.870537
sS'ADJ'
p512
F0.129463
s(lp513
(g116
I15
tp514
atp515
a(S'zijn'
p516
(dp517
S'PRON'
p518
F0.0
sS'VERB'
p519
F0.999372
sS'NOUN'
p520
F0.000627
s(lp521
(g320
I14
tp522
atp523
a(S'zodat'
p524
(dp525
S'CONJ'
p526
F1.0
s(lp527
(g124
I16
tp528
atp529
a(S'ze'
p530
(dp531
S'PRON'
p532
F1.0
s(lp533
(g147
I18
tp534
atp535
a(S'zich'
p536
(dp537
S'PRON'
p538
F1.0
s(lp539
(g353
I19
tp540
atp541
a(S'kunnen'
p542
(dp543
S'VERB'
p544
F0.999997
sS'NOUN'
p545
F3e-06
s(lp546
(g154
I20
tp547
atp548
a(S'ontwikkelen'
p549
(dp550
S'VERB'
p551
F0.9864780000000001
sS'NOUN'
p552
F0.013522
s(lp553
(g166
I22
tp554
atp555
a(S'in'
p556
(dp557
S'ADV'
p558
F0.000451
sS'VERB'
p559
F0.0
sS'ADP'
p560
F0.999549
s(lp561
(g178
I23
tp562
atp563
a(S'hun'
p564
(dp565
S'PRON'
p566
F1.0
s(lp567
(g190
I24
tp568
atp569
a(S'eigen'
p570
(dp571
S'ADJ'
p572
F1.0
s(lp573
(g389
I25
tp574
atp575
a(S'omgeving'
p576
(dp577
S'NOUN'
p578
F1.0
s(lp579
(g197
I26
tp580
atp581
a(g200
(dp582
g202
F1.0
s(lp583
(g200
I27
tp584
atp585
a(S'hun'
p586
(dp587
S'PRON'
p588
F1.0
s(lp589
(g215
I28
tp590
atp591
a(S'eigen'
p592
(dp593
S'ADJ'
p594
F1.0
s(lp595
(g223
I29
tp596
atp597
a(S'land'
p598
(dp599
S'VERB'
p600
F6.5e-05
sS'NOUN'
p601
F0.999935
s(lp602
(g230
I30
tp603
atp604
a(g202
(dp605
g202
F1.0
s(lp606
(g202
I31
tp607
atp608
asS'de'
p609
(lp610
(S'das'
p611
(dp612
S'PRON'
p613
F0.998146
sS'DET'
p614
F0.001484
s(lp615
(g8
I0
tp616
atp617
a(S'hei\xc3\x9ft'
p618
(dp619
S'VERB'
p620
F1.0
s(lp621
(g15
I1
tp622
atp623
a(g200
(dp624
g202
F1.0
s(lp625
tp626
a(S'wir'
p627
(dp628
S'PRON'
p629
F1.0
s(lp630
tp631
a(S'm\xc3\xbcssen'
p632
(dp633
S'VERB'
p634
F0.999345
s(lp635
(g37
I3
tp636
atp637
a(S'den'
p638
(dp639
S'PRON'
p640
F0.000706
sS'DET'
p641
F0.999285
s(lp642
(g65
I7
tp643
atp644
a(S'menschen'
p645
(dp646
S'ADJ'
p647
F1.0
s(lp648
(g81
I6
tp649
atp650
a(S'bildung'
p651
(dp652
S'X'
p653
F0.005227
sS'NOUN'
p654
F0.990967
s(lp655
(g58
I9
tp656
atp657
a(S'zur'
p658
(dp659
S'ADP'
p660
F1.0
s(lp661
(g262
I4
tp662
atp663
a(S'verf\xc3\xbcgung'
p664
(dp665
S'ADJ'
p666
F9.3e-05
sS'NOUN'
p667
F0.999865
s(lp668
tp669
a(S'stellen'
p670
(dp671
S'VERB'
p672
F1.0
s(lp673
(g44
I5
tp674
atp675
a(g200
(dp676
g202
F1.0
s(lp677
tp678
a(S'und'
p679
(dp680
S'CONJ'
p681
F1.0
s(lp682
(g88
I10
tp683
atp684
a(S'wir'
p685
(dp686
S'PRON'
p687
F1.0
s(lp688
(g29
I2
tp689
atp690
a(S'm\xc3\xbcssen'
p691
(dp692
S'VERB'
p693
F0.99925
s(lp694
(g95
I11
tp695
atp696
a(S'daf\xc3\xbcr'
p697
(dp698
S'ADV'
p699
F1.0
s(lp700
tp701
a(S'sorgen'
p702
(dp703
S'VERB'
p704
F1.0
s(lp705
(g95
I11
tp706
atp707
a(g200
(dp708
g202
F1.0
s(lp709
tp710
a(S'dass'
p711
(dp712
S'CONJ'
p713
F1.0
s(lp714
(g307
I12
tp715
atp716
a(S'sie'
p717
(dp718
S'PRON'
p719
F1.0
s(lp720
(g102
I13
tp721
atp722
a(S'gesund'
p723
(dp724
S'PRT'
p725
F0.008993
sS'ADJ'
p726
F0.991007
s(lp727
(g116
I15
tp728
atp729
a(S'sind'
p730
(dp731
S'VERB'
p732
F1.0
s(lp733
(g320
I14
tp734
atp735
a(g200
(dp736
g202
F1.0
s(lp737
(g133
I17
tp738
atp739
a(S'damit'
p740
(dp741
S'ADV'
p742
F0.001566
sS'CONJ'
p743
F0.998434
s(lp744
(g124
I16
tp745
atp746
a(S'sie'
p747
(dp748
S'PRON'
p749
F1.0
s(lp750
(g147
I18
tp751
atp752
a(S'sich'
p753
(dp754
S'PRON'
p755
F1.0
s(lp756
(g353
I19
tp757
atp758
a(S'in'
p759
(dp760
S'ADP'
p761
F1.0
s(lp762
(g178
I23
tp763
atp764
a(S'ihrer'
p765
(dp766
S'PRON'
p767
F1.0
s(lp768
(g190
I24
tp769
atp770
a(S'eigenen'
p771
(dp772
S'ADJ'
p773
F1.0
s(lp774
(g389
I25
tp775
atp776
a(S'umgebung'
p777
(dp778
S'ADJ'
p779
F0.000163
sS'NOUN'
p780
F0.999754
s(lp781
(g197
I26
tp782
atp783
a(g200
(dp784
g202
F1.0
s(lp785
(g200
I27
tp786
atp787
a(S'in'
p788
(dp789
S'ADP'
p790
F1.0
s(lp791
(g365
I21
tp792
atp793
a(S'ihrer'
p794
(dp795
S'PRON'
p796
F1.0
s(lp797
(g215
I28
tp798
atp799
a(S'heimat'
p800
(dp801
S'ADJ'
p802
F0.01294
sS'NOUN'
p803
F0.978549
s(lp804
(g230
I30
tp805
atp806
a(S'entwickeln'
p807
(dp808
S'VERB'
p809
F1.0
s(lp810
(g166
I22
tp811
atp812
a(S'k\xc3\xb6nnen'
p813
(dp814
S'VERB'
p815
F0.99992
s(lp816
(g154
I20
tp817
atp818
a(g202
(dp819
g202
F1.0
s(lp820
(g202
I31
tp821
atp822
asS'it'
p823
(lp824
(S'ci\xc3\xb2'
p825
(dp826
S'PRON'
p827
F1.0
s(lp828
(g8
I0
tp829
atp830
a(S'significa'
p831
(dp832
S'VERB'
p833
F1.0
s(lp834
(g15
I1
tp835
atp836
a(S'che'
p837
(dp838
S'PRON'
p839
F0.995479
sS'CONJ'
p840
F0.004209
sS'ADJ'
p841
F0.000312
s(lp842
tp843
a(S'dobbiamo'
p844
(dp845
S'VERB'
p846
F0.999999
s(lp847
(g29
I2
tp848
atp849
a(S'offrire'
p850
(dp851
S'VERB'
p852
F1.0
s(lp853
(g44
I5
tp854
atp855
a(S'alle'
p856
(dp857
S'ADP'
p858
F1.0
s(lp859
tp860
a(S'persone'
p861
(dp862
S'NOUN'
p863
F1.0
s(lp864
(g81
I6
tp865
atp866
a(S"un'"
p867
(dp868
S'PRON'
p869
F0.011669
sS'DEF'
p870
F0.988331
s(lp871
(g74
I8
tp872
atp873
a(S'educazione'
p874
(dp875
S'NOUN'
p876
F1.0
s(lp877
(g58
I9
tp878
atp879
a(S'e'
p880
(dp881
S'CONJ'
p882
F1.0
s(lp883
(g88
I10
tp884
atp885
a(S'garantire'
p886
(dp887
S'VERB'
p888
F1.0
s(lp889
(g95
I11
tp890
atp891
a(S'loro'
p892
(dp893
S'PRON'
p894
F1.0
s(lp895
(g102
I13
tp896
atp897
a(S'una'
p898
(dp899
S'PRON'
p900
F1.9e-05
sS'DEF'
p901
F0.999981
s(lp902
(g116
I15
tp903
atp904
a(S'buona'
p905
(dp906
S'NOUN'
p907
F0.01609
sS'ADJ'
p908
F0.98391
s(lp909
tp910
a(S'salute'
p911
(dp912
g653
F2.7e-05
sS'NOUN'
p913
F0.999973
s(lp914
(g116
I15
tp915
atp916
a(S'affinch\xc3\xa9'
p917
(dp918
S'CONJ'
p919
F1.0
s(lp920
(g124
I16
tp921
atp922
a(S'possano'
p923
(dp924
S'VERB'
p925
F1.0
s(lp926
(g154
I20
tp927
atp928
a(S'svilupparsi'
p929
(dp930
S'VERB'
p931
F1.0
s(lp932
(g166
I22
tp933
atp934
a(S'nel'
p935
(dp936
S'ADP'
p937
F1.0
s(lp938
tp939
a(S'loro'
p940
(dp941
S'PRON'
p942
F1.0
s(lp943
(g190
I24
tp944
atp945
a(S'ambiente'
p946
(dp947
S'NOUN'
p948
F1.0
s(lp949
(g197
I26
tp950
atp951
a(g200
(dp952
g202
F1.0
s(lp953
(g200
I27
tp954
atp955
a(S'nel'
p956
(dp957
S'ADP'
p958
F1.0
s(lp959
(g178
I23
tp960
atp961
a(S'loro'
p962
(dp963
S'PRON'
p964
F1.0
s(lp965
(g215
I28
tp966
atp967
a(S'paese'
p968
(dp969
S'NOUN'
p970
F1.0
s(lp971
(g230
I30
tp972
atp973
a(g202
(dp974
g202
F1.0
s(lp975
(g202
I31
tp976
atp977
asS'sk'
p978
(lp979
(S'znamen\xc3\xa1'
p980
(dp981
g653
F0.001461
sS'VERB'
p982
F0.998539
s(lp983
(g15
I1
tp984
atp985
a(S'to'
p986
(dp987
S'PRON'
p988
F0.970272
sS'CONJ'
p989
F0.000319
sg653
F0.029409
s(lp990
(g8
I0
tp991
atp992
a(g200
(dp993
g202
F1.0
s(lp994
tp995
a(S'\xc5\xbee'
p996
(dp997
g653
F7.5e-05
sS'CONJ'
p998
F0.999925
s(lp999
(g29
I2
tp1000
atp1001
a(S'ak'
p1002
(dp1003
g653
F0.004206
sS'CONJ'
p1004
F0.995794
s(lp1005
(g29
I2
tp1006
atp1007
a(S'chceme'
p1008
(dp1009
S'VERB'
p1010
F1.0
s(lp1011
tp1012
a(g200
(dp1013
g202
F1.0
s(lp1014
tp1015
a(S'aby'
p1016
(dp1017
g653
F8.2e-05
sS'CONJ'
p1018
F0.999918
s(lp1019
(g262
I4
tp1020
atp1021
a(S'boli'
p1022
(dp1023
S'VERB'
p1024
F0.999999
s(lp1025
(g37
I3
tp1026
atp1027
a(S'\xc4\xbeudia'
p1028
(dp1029
S'NOUN'
p1030
F1.0
s(lp1031
(g81
I6
tp1032
atp1033
a(S'schopn\xc3\xad'
p1034
(dp1035
S'ADJ'
p1036
F1.0
s(lp1037
(g154
I20
tp1038
atp1039
a(S'rozv\xc3\xadja\xc5\xa5'
p1040
(dp1041
S'VERB'
p1042
F1.0
s(lp1043
(g166
I22
tp1044
atp1045
a(S'prostredie'
p1046
(dp1047
S'NOUN'
p1048
F1.0
s(lp1049
(g197
I26
tp1050
atp1051
a(S'v'
p1052
(dp1053
g653
F9.900000000000001e-05
sS'ADP'
p1054
F0.999901
s(lp1055
(g178
I23
tp1056
atp1057
a(S'ktorom'
p1058
(dp1059
S'PRON'
p1060
F1.0
s(lp1061
(g133
I17
tp1062
atp1063
a(S'\xc5\xbeij\xc3\xba'
p1064
(dp1065
S'VERB'
p1066
F1.0
s(lp1067
(g353
I19
tp1068
atp1069
a(g200
(dp1070
g202
F1.0
s(lp1071
(g200
I27
tp1072
atp1073
a(S'svoju'
p1074
(dp1075
S'PRON'
p1076
F1.0
s(lp1077
(g215
I28
tp1078
atp1079
a(S'vlastn\xc3\xba'
p1080
(dp1081
S'ADJ'
p1082
F1.0
s(lp1083
(g223
I29
tp1084
atp1085
a(S'krajinu'
p1086
(dp1087
S'NOUN'
p1088
F1.0
s(lp1089
(g230
I30
tp1090
atp1091
a(g200
(dp1092
g202
F1.0
s(lp1093
tp1094
a(S'mus\xc3\xadme'
p1095
(dp1096
S'VERB'
p1097
F1.0
s(lp1098
(g29
I2
tp1099
atp1100
a(S'im'
p1101
(dp1102
S'PRON'
p1103
F1.0
sg653
F0.0
s(lp1104
(g190
I24
tp1105
atp1106
a(S'poskytn\xc3\xba\xc5\xa5'
p1107
(dp1108
S'VERB'
p1109
F1.0
s(lp1110
(g44
I5
tp1111
atp1112
a(S'vzdelanie'
p1113
(dp1114
S'NOUN'
p1115
F1.0
s(lp1116
(g58
I9
tp1117
atp1118
a(S'a'
p1119
(dp1120
g653
F0.0026279999999999997
sS'CONJ'
p1121
F0.996881
sS'NOUN'
p1122
F0.000221
sS'ADP'
p1123
F0.0
sS'PRT'
p1124
F0.000268
s(lp1125
(g88
I10
tp1126
atp1127
a(S'zaru\xc4\x8di\xc5\xa5'
p1128
(dp1129
S'VERB'
p1130
F1.0
s(lp1131
(g95
I11
tp1132
atp1133
a(S'dobr\xc3\xbd'
p1134
(dp1135
g653
F4.5e-05
sS'ADJ'
p1136
F0.999955
s(lp1137
(g116
I15
tp1138
atp1139
a(S'zdravotn\xc3\xbd'
p1140
(dp1141
S'ADJ'
p1142
F1.0
s(lp1143
tp1144
a(S'stav'
p1145
(dp1146
S'VERB'
p1147
F7e-06
sS'NOUN'
p1148
F0.999993
s(lp1149
(g116
I15
tp1150
atp1151
a(g202
(dp1152
g202
F1.0
s(lp1153
(g202
I31
tp1154
atp1155
asS'pl'
p1156
(lp1157
(S'oznacza'
p1158
(dp1159
S'VERB'
p1160
F1.0
s(lp1161
(g15
I1
tp1162
atp1163
a(S'to'
p1164
(dp1165
S'NOUN'
p1166
F0.7805820000000001
sS'ADP'
p1167
F1.4e-05
sS'PRT'
p1168
F0.071432
sg653
F2e-06
sS'CONJ'
p1169
F0.011364
sS'ADJ'
p1170
F0.136606
s(lp1171
(g8
I0
tp1172
atp1173
a(g200
(dp1174
g653
F0.0
sg202
F1.0
s(lp1175
tp1176
a(S'\xc5\xbce'
p1177
(dp1178
S'PRT'
p1179
F0.000477
sS'CONJ'
p1180
F0.999523
s(lp1181
tp1182
a(S'musimy'
p1183
(dp1184
S'VERB'
p1185
F1.0
s(lp1186
(g29
I2
tp1187
atp1188
a(S'zapewni\xc4\x87'
p1189
(dp1190
S'VERB'
p1191
F1.0
s(lp1192
(g44
I5
tp1193
atp1194
a(S'ludziom'
p1195
(dp1196
S'NOUN'
p1197
F1.0
s(lp1198
(g81
I6
tp1199
atp1200
a(S'dost\xc4\x99p'
p1201
(dp1202
S'NOUN'
p1203
F1.0
s(lp1204
(g65
I7
tp1205
atp1206
a(S'do'
p1207
(dp1208
g653
F0.0
sS'NOUN'
p1209
F2e-06
sS'ADP'
p1210
F0.9999979999999999
s(lp1211
(g74
I8
tp1212
atp1213
a(S'szkolnictwa'
p1214
(dp1215
S'NOUN'
p1216
F1.0
s(lp1217
(g58
I9
tp1218
atp1219
a(S'i'
p1220
(dp1221
S'PRT'
p1222
F0.007892
sS'CONJ'
p1223
F0.991998
sS'NOUN'
p1224
F7e-06
sg653
F2e-06
sS'PRON'
p1225
F0.000101
s(lp1226
(g88
I10
tp1227
atp1228
a(S'zadba\xc4\x87'
p1229
(dp1230
S'VERB'
p1231
F1.0
s(lp1232
(g95
I11
tp1233
atp1234
a(S'o'
p1235
(dp1236
g653
F0.004244
sS'VERB'
p1237
F1.7e-05
sS'NOUN'
p1238
F0.000165
sS'ADP'
p1239
F0.995534
sS'PRT'
p1240
F3.9e-05
s(lp1241
(g307
I12
tp1242
atp1243
a(S'to'
p1244
(dp1245
S'NOUN'
p1246
F0.96781
sS'ADP'
p1247
F0.0
sS'PRT'
p1248
F0.001323
sg653
F1.6e-05
sS'CONJ'
p1249
F0.000385
sS'ADJ'
p1250
F0.030466999999999998
s(lp1251
tp1252
a(g200
(dp1253
g653
F0.0
sg202
F1.0
s(lp1254
tp1255
a(S'\xc5\xbceby'
p1256
(dp1257
S'PRT'
p1258
F0.004015
sS'CONJ'
p1259
F0.995985
s(lp1260
(g307
I12
tp1261
atp1262
a(S'byli'
p1263
(dp1264
S'VERB'
p1265
F0.985413
sS'ADJ'
p1266
F0.014587
s(lp1267
(g320
I14
tp1268
atp1269
a(S'zdrowi'
p1270
(dp1271
S'ADJ'
p1272
F1.0
s(lp1273
(g116
I15
tp1274
atp1275
a(g200
(dp1276
g653
F0.0
sg202
F1.0
s(lp1277
tp1278
a(S'tak'
p1279
(dp1280
S'ADV'
p1281
F0.827428
sS'NOUN'
p1282
F8.5e-05
sS'PRT'
p1283
F0.163528
sg653
F3.6e-05
sS'CONJ'
p1284
F0.00885
sS'ADJ'
p1285
F7.4e-05
s(lp1286
(g124
I16
tp1287
atp1288
a(S'aby'
p1289
(dp1290
S'PRT'
p1291
F0.049181
sS'CONJ'
p1292
F0.950819
s(lp1293
(g133
I17
tp1294
atp1295
a(S'mogli'
p1296
(dp1297
S'VERB'
p1298
F1.0
s(lp1299
(g154
I20
tp1300
atp1301
a(S'rozwija\xc4\x87'
p1302
(dp1303
S'VERB'
p1304
F1.0
s(lp1305
(g166
I22
tp1306
atp1307
a(S'si\xc4\x99'
p1308
(dp1309
S'PRT'
p1310
F1.0
s(lp1311
tp1312
a(S'w'
p1313
(dp1314
S'ADJ'
p1315
F0.0
sg653
F0.0
sS'NOUN'
p1316
F0.0
sS'ADP'
p1317
F1.0
s(lp1318
tp1319
a(S'swoim'
p1320
(dp1321
S'NOUN'
p1322
F0.000189
sS'ADJ'
p1323
F0.999811
s(lp1324
(g190
I24
tp1325
atp1326
a(S'otoczeniu'
p1327
(dp1328
S'NOUN'
p1329
F1.0
s(lp1330
(g197
I26
tp1331
atp1332
a(g200
(dp1333
g653
F1e-06
sg202
F0.999999
s(lp1334
(g200
I27
tp1335
atp1336
a(g1313
(dp1337
S'ADJ'
p1338
F0.0
sg653
F1e-06
sS'NOUN'
p1339
F0.0
sS'ADP'
p1340
F0.999999
s(lp1341
(g178
I23
tp1342
atp1343
a(S'swoim'
p1344
(dp1345
S'NOUN'
p1346
F0.001809
sS'ADJ'
p1347
F0.9981890000000001
s(lp1348
(g215
I28
tp1349
atp1350
a(S'kraju'
p1351
(dp1352
S'NOUN'
p1353
F1.0
s(lp1354
(g230
I30
tp1355
atp1356
a(g202
(dp1357
g202
F1.0
s(lp1358
(g202
I31
tp1359
atp1360
asS'sl'
p1361
(lp1362
(S'to'
p1363
(dp1364
S'PRON'
p1365
F0.999988
sg653
F1.2e-05
s(lp1366
(g8
I0
tp1367
atp1368
a(S'pomeni'
p1369
(dp1370
S'VERB'
p1371
F0.999792
sS'NOUN'
p1372
F0.000209
s(lp1373
(g15
I1
tp1374
atp1375
a(g200
(dp1376
g202
F1.0
s(lp1377
tp1378
a(S'da'
p1379
(dp1380
S'PRT'
p1381
F0.000628
sS'CONJ'
p1382
F0.999327
sS'VERB'
p1383
F4.4e-05
sg653
F2e-06
s(lp1384
(g262
I4
tp1385
atp1386
a(S'moramo'
p1387
(dp1388
S'VERB'
p1389
F1.0
s(lp1390
(g29
I2
tp1391
atp1392
a(S'ljudem'
p1393
(dp1394
S'NOUN'
p1395
F1.0
s(lp1396
(g81
I6
tp1397
atp1398
a(S'zagotoviti'
p1399
(dp1400
S'VERB'
p1401
F1.0
s(lp1402
(g44
I5
tp1403
atp1404
a(S'izobrazbo'
p1405
(dp1406
S'NOUN'
p1407
F1.0
s(lp1408
(g58
I9
tp1409
atp1410
a(S'in'
p1411
(dp1412
S'ADV'
p1413
F0.000293
sg653
F5e-06
sS'CONJ'
p1414
F0.999682
sS'NOUN'
p1415
F2.1e-05
s(lp1416
(g88
I10
tp1417
atp1418
a(S'omogo\xc4\x8diti'
p1419
(dp1420
S'VERB'
p1421
F1.0
s(lp1422
(g95
I11
tp1423
atp1424
a(g200
(dp1425
g202
F1.0
s(lp1426
tp1427
a(S'da'
p1428
(dp1429
S'PRT'
p1430
F2e-06
sS'CONJ'
p1431
F0.999988
sS'VERB'
p1432
F1e-05
sg653
F0.0
s(lp1433
(g307
I12
tp1434
atp1435
a(S'so'
p1436
(dp1437
g653
F9e-06
sS'VERB'
p1438
F0.999991
s(lp1439
(g320
I14
tp1440
atp1441
a(S'zdravi'
p1442
(dp1443
S'VERB'
p1444
F0.004764
sS'ADJ'
p1445
F0.995236
s(lp1446
(g116
I15
tp1447
atp1448
a(g200
(dp1449
g202
F1.0
s(lp1450
tp1451
a(S'zato'
p1452
(dp1453
S'ADV'
p1454
F0.15213
sS'CONJ'
p1455
F0.84787
s(lp1456
(g124
I16
tp1457
atp1458
a(S'da'
p1459
(dp1460
S'PRT'
p1461
F0.000235
sS'CONJ'
p1462
F0.997376
sS'VERB'
p1463
F0.002379
sg653
F1e-05
s(lp1464
(g133
I17
tp1465
atp1466
a(S'se'
p1467
(dp1468
S'PRON'
p1469
F0.999998
sg653
F2e-06
s(lp1470
(g353
I19
tp1471
atp1472
a(S'lahko'
p1473
(dp1474
S'ADV'
p1475
F0.999992
sS'ADJ'
p1476
F8e-06
s(lp1477
(g154
I20
tp1478
atp1479
a(S'razvijajo'
p1480
(dp1481
S'VERB'
p1482
F1.0
s(lp1483
(g166
I22
tp1484
atp1485
a(g1052
(dp1486
S'ADP'
p1487
F1.0
s(lp1488
tp1489
a(S'okviru'
p1490
(dp1491
S'NOUN'
p1492
F1.0
s(lp1493
(g178
I23
tp1494
atp1495
a(S'svojega'
p1496
(dp1497
S'PRON'
p1498
F1.0
s(lp1499
(g190
I24
tp1500
atp1501
a(S'okolja'
p1502
(dp1503
S'NOUN'
p1504
F1.0
s(lp1505
(g197
I26
tp1506
atp1507
a(g200
(dp1508
g202
F1.0
s(lp1509
(g200
I27
tp1510
atp1511
a(S'svoje'
p1512
(dp1513
S'PRON'
p1514
F0.9999989999999999
s(lp1515
(g215
I28
tp1516
atp1517
a(S'dr\xc5\xbeave'
p1518
(dp1519
S'NOUN'
p1520
F0.9999990000000001
s(lp1521
(g230
I30
tp1522
atp1523
a(g202
(dp1524
g202
F1.0
s(lp1525
(g202
I31
tp1526
atp1527
asS'es'
p1528
(lp1529
(S'esto'
p1530
(dp1531
S'PRON'
p1532
F1.0
s(lp1533
(g8
I0
tp1534
atp1535
a(S'significa'
p1536
(dp1537
S'VERB'
p1538
F1.0
s(lp1539
(g15
I1
tp1540
atp1541
a(S'que'
p1542
(dp1543
g653
F0.0
sS'CONJ'
p1544
F1.0
s(lp1545
(g29
I2
tp1546
atp1547
a(S'hemos'
p1548
(dp1549
S'VERB'
p1550
F1.0
s(lp1551
(g37
I3
tp1552
atp1553
a(S'de'
p1554
(dp1555
g653
F0.0
sS'CONJ'
p1556
F0.285689
sS'ADP'
p1557
F0.714311
s(lp1558
(g262
I4
tp1559
atp1560
a(S'dar'
p1561
(dp1562
S'VERB'
p1563
F1.0
s(lp1564
(g44
I5
tp1565
atp1566
a(g1119
(dp1567
g653
F0.000259
sS'CONJ'
p1568
F5e-06
sS'ADP'
p1569
F0.999736
s(lp1570
(g65
I7
tp1571
atp1572
a(S'las'
p1573
(dp1574
S'PRON'
p1575
F0.0
sS'DET'
p1576
F1.0
s(lp1577
tp1578
a(S'personas'
p1579
(dp1580
S'NOUN'
p1581
F1.0
s(lp1582
(g81
I6
tp1583
atp1584
a(S'educaci\xc3\xb3n'
p1585
(dp1586
S'NOUN'
p1587
F1.0
s(lp1588
(g58
I9
tp1589
atp1590
a(S'y'
p1591
(dp1592
g653
F4.5e-05
sS'CONJ'
p1593
F0.999955
s(lp1594
(g88
I10
tp1595
atp1596
a(S'garantizar'
p1597
(dp1598
S'VERB'
p1599
F1.0
s(lp1600
(g95
I11
tp1601
atp1602
a(S'su'
p1603
(dp1604
S'PRON'
p1605
F1.0
s(lp1606
(g102
I13
tp1607
atp1608
a(S'salud'
p1609
(dp1610
S'NOUN'
p1611
F1.0
s(lp1612
(g116
I15
tp1613
atp1614
a(S'para'
p1615
(dp1616
S'CONJ'
p1617
F0.177263
sS'ADP'
p1618
F0.822737
s(lp1619
(g124
I16
tp1620
atp1621
a(S'que'
p1622
(dp1623
g653
F0.0
sS'CONJ'
p1624
F1.0
s(lp1625
(g133
I17
tp1626
atp1627
a(S'puedan'
p1628
(dp1629
S'VERB'
p1630
F1.0
s(lp1631
(g154
I20
tp1632
atp1633
a(S'desarrollarse'
p1634
(dp1635
S'VERB'
p1636
F1.0
s(lp1637
(g166
I22
tp1638
atp1639
a(S'en'
p1640
(dp1641
g653
F0.0
sS'CONJ'
p1642
F9e-06
sS'ADP'
p1643
F0.999991
s(lp1644
(g178
I23
tp1645
atp1646
a(S'su'
p1647
(dp1648
S'PRON'
p1649
F1.0
s(lp1650
(g190
I24
tp1651
atp1652
a(S'propio'
p1653
(dp1654
S'ADJ'
p1655
F1.0
s(lp1656
(g389
I25
tp1657
atp1658
a(S'entorno'
p1659
(dp1660
S'NOUN'
p1661
F1.0
s(lp1662
(g197
I26
tp1663
atp1664
a(g200
(dp1665
g202
F1.0
s(lp1666
(g200
I27
tp1667
atp1668
a(S'en'
p1669
(dp1670
g653
F0.0
sS'CONJ'
p1671
F2.3e-05
sS'ADP'
p1672
F0.999977
s(lp1673
tp1674
a(S'su'
p1675
(dp1676
S'PRON'
p1677
F1.0
s(lp1678
(g215
I28
tp1679
atp1680
a(S'propio'
p1681
(dp1682
S'ADJ'
p1683
F1.0
s(lp1684
(g223
I29
tp1685
atp1686
a(S'pa\xc3\xads'
p1687
(dp1688
S'NOUN'
p1689
F1.0
s(lp1690
(g230
I30
tp1691
atp1692
a(g202
(dp1693
g202
F1.0
s(lp1694
(g202
I31
tp1695
atp1696
as.