(dp0
S'fr'
p1
(lp2
(S'mon'
p3
(dp4
S'PRON'
p5
F1.0
s(lp6
(S'my'
p7
I0
tp8
atp9
a(S'coll\xc3\xa8gue'
p10
(dp11
S'NOUN'
p12
F1.0
s(lp13
(S'colleague'
p14
I1
tp15
atp16
a(S'm.'
p17
(dp18
S'X'
p19
F0.241979
sS'VERB'
p20
F0.588247
sS'ADJ'
p21
F0.167477
sS'NOUN'
p22
F0.002298
s(lp23
(S'mr'
p24
I3
tp25
atp26
a(S'h\xc3\xb6kmark'
p27
(dp28
S'ADJ'
p29
F0.092997
sS'VERB'
p30
F0.123894
sS'NOUN'
p31
F0.7831089999999999
s(lp32
tp33
a(S'nous'
p34
(dp35
S'PRON'
p36
F1.0
s(lp37
(S'h\xc3\xb6kmark'
p38
I4
tp39
atp40
a(S'a'
p41
(dp42
S'VERB'
p43
F1.0
s(lp44
tp45
a(S'parl\xc3\xa9'
p46
(dp47
S'VERB'
p48
F0.99293
sS'ADJ'
p49
F0.00707
s(lp50
(S'talked'
p51
I6
tp52
atp53
a(S'de'
p54
(dp55
S'ADP'
p56
F1.0
s(lp57
(S'about'
p58
I8
tp59
atp60
a(S'la'
p61
(dp62
S'PRON'
p63
F1.2e-05
sS'DET'
p64
F0.999988
sS'NOUN'
p65
F0.0
s(lp66
(S'the'
p67
I9
tp68
atp69
a(S'transposition'
p70
(dp71
S'NOUN'
p72
F1.0
s(lp73
(S'transposition'
p74
I10
tp75
atp76
a(S'de'
p77
(dp78
S'ADP'
p79
F1.0
s(lp80
(S'of'
p81
I11
tp82
atp83
a(S'la'
p84
(dp85
S'PRON'
p86
F2.1e-05
sS'DET'
p87
F0.999972
sS'NOUN'
p88
F7e-06
s(lp89
(S'the'
p90
I12
tp91
atp92
a(S'directive'
p93
(dp94
S'ADJ'
p95
F0.413486
sS'NOUN'
p96
F0.586514
s(lp97
tp98
a(S'sur'
p99
(dp100
S'ADP'
p101
F1.0
s(lp102
(S'directive'
p103
I14
tp104
atp105
a(S'les'
p106
(dp107
S'PRON'
p108
F5.6e-05
sS'DET'
p109
F0.999943
sS'ADP'
p110
F2e-06
s(lp111
tp112
a(S'services'
p113
(dp114
S'NOUN'
p115
F1.0
s(lp116
(S'services'
p117
I13
tp118
atp119
a(S'.'
p120
(dp121
g120
F1.0
s(lp122
(g120
I15
tp123
atp124
asS'en'
p125
(lp126
(g7
(dp127
S'PRON'
p128
F1.0
s(lp129
(g7
I0
tp130
atp131
a(g14
(dp132
S'NOUN'
p133
F1.0
s(lp134
(g14
I1
tp135
atp136
a(S','
p137
(dp138
g120
F1.0
s(lp139
(g137
I2
tp140
atp141
a(g24
(dp142
S'ADJ'
p143
F0.021642
sS'NOUN'
p144
F0.978358
s(lp145
(g24
I3
tp146
atp147
a(g38
(dp148
S'ADJ'
p149
F0.000616
sS'VERB'
p150
F0.000508
sS'NOUN'
p151
F0.998875
s(lp152
(g38
I4
tp153
atp154
a(g137
(dp155
g120
F1.0
s(lp156
(g137
I5
tp157
atp158
a(g51
(dp159
S'VERB'
p160
F1.0
s(lp161
(g51
I6
tp162
atp163
a(S'earlier'
p164
(dp165
S'ADV'
p166
F0.896685
sS'ADJ'
p167
F0.103315
s(lp168
(g164
I7
tp169
atp170
a(g58
(dp171
S'ADV'
p172
F0.267758
sS'ADP'
p173
F0.732242
s(lp174
(g58
I8
tp175
atp176
a(g67
(dp177
S'NOUN'
p178
F1e-06
sS'DET'
p179
F0.999999
s(lp180
(g67
I9
tp181
atp182
a(g74
(dp183
S'NOUN'
p184
F1.0
s(lp185
(g74
I10
tp186
atp187
a(g81
(dp188
S'ADP'
p189
F1.0
s(lp190
(g81
I11
tp191
atp192
a(g90
(dp193
S'NOUN'
p194
F1.1e-05
sS'DET'
p195
F0.999989
s(lp196
(g90
I12
tp197
atp198
a(g117
(dp199
S'VERB'
p200
F0.001383
sS'NOUN'
p201
F0.998617
s(lp202
(g117
I13
tp203
atp204
a(g103
(dp205
S'ADJ'
p206
F0.083544
sS'NOUN'
p207
F0.916456
s(lp208
(g103
I14
tp209
atp210
a(g120
(dp211
g120
F1.0
s(lp212
(g120
I15
tp213
atp214
asS'nl'
p215
(lp216
(S'mijn'
p217
(dp218
S'PRON'
p219
F0.999924
sS'NOUN'
p220
F7.6e-05
s(lp221
(g7
I0
tp222
atp223
a(S'collega'
p224
(dp225
S'NOUN'
p226
F1.0
s(lp227
(g14
I1
tp228
atp229
a(g137
(dp230
g120
F1.0
s(lp231
(g137
I2
tp232
atp233
a(S'de'
p234
(dp235
S'DET'
p236
F1.0
s(lp237
tp238
a(S'heer'
p239
(dp240
S'NOUN'
p241
F1.0
s(lp242
(g24
I3
tp243
atp244
a(S'h\xc3\xb6kmark'
p245
(dp246
S'ADJ'
p247
F0.008976
sS'NOUN'
p248
F0.991024
s(lp249
(g38
I4
tp250
atp251
a(g137
(dp252
g120
F1.0
s(lp253
(g137
I5
tp254
atp255
a(S'had'
p256
(dp257
S'VERB'
p258
F1.0
s(lp259
tp260
a(S'het'
p261
(dp262
S'PRON'
p263
F0.053529
sS'DET'
p264
F0.946471
s(lp265
(g51
I6
tp266
atp267
a(S'eerder'
p268
(dp269
S'ADV'
p270
F0.007333
sS'ADJ'
p271
F0.992667
s(lp272
(g164
I7
tp273
atp274
a(S'over'
p275
(dp276
S'ADV'
p277
F0.011952
sS'ADP'
p278
F0.988048
s(lp279
(g58
I8
tp280
atp281
a(S'de'
p282
(dp283
S'DET'
p284
F1.0
s(lp285
(g67
I9
tp286
atp287
a(S'omzetting'
p288
(dp289
S'NOUN'
p290
F1.0
s(lp291
(g74
I10
tp292
atp293
a(S'van'
p294
(dp295
S'ADP'
p296
F1.0
s(lp297
(g81
I11
tp298
atp299
a(S'de'
p300
(dp301
S'DET'
p302
F1.0
s(lp303
(g90
I12
tp304
atp305
a(S'dienstenrichtlijn'
p306
(dp307
S'NOUN'
p308
F1.0
s(lp309
(g117
I13
tp310
atp311
a(g120
(dp312
g120
F1.0
s(lp313
(g120
I15
tp314
atp315
asS'de'
p316
(lp317
(S'mein'
p318
(dp319
S'PRON'
p320
F0.998883
sS'VERB'
p321
F0.001117
s(lp322
(g7
I0
tp323
atp324
a(S'kollege'
p325
(dp326
S'ADJ'
p327
F0.07666
sS'NOUN'
p328
F0.923254
s(lp329
(g14
I1
tp330
atp331
a(S'herr'
p332
(dp333
S'NOUN'
p334
F0.898532
s(lp335
(g24
I3
tp336
atp337
a(S'h\xc3\xb6kmark'
p338
(dp339
S'NOUN'
p340
F0.996525
s(lp341
(g38
I4
tp342
atp343
a(S'erw\xc3\xa4hnte'
p344
(dp345
S'VERB'
p346
F0.991868
sS'ADJ'
p347
F0.008132
s(lp348
(g51
I6
tp349
atp350
a(S'vorhin'
p351
(dp352
S'ADV'
p353
F1.0
s(lp354
(g164
I7
tp355
atp356
a(S'die'
p357
(dp358
S'PRON'
p359
F0.00125
sS'DET'
p360
F0.998745
s(lp361
(g67
I9
tp362
atp363
a(S'umsetzung'
p364
(dp365
S'ADJ'
p366
F0.009373
sS'NOUN'
p367
F0.985211
s(lp368
(g74
I10
tp369
atp370
a(S'der'
p371
(dp372
S'PRON'
p373
F0.000134
sS'DET'
p374
F0.999773
s(lp375
(g90
I12
tp376
atp377
a(S'dienstleistungsrichtlinie'
p378
(dp379
S'ADJ'
p380
F0.034469
sS'NOUN'
p381
F0.957154
s(lp382
(g117
I13
tp383
atp384
a(g120
(dp385
g120
F1.0
s(lp386
(g120
I15
tp387
atp388
asS'it'
p389
(lp390
(S'il'
p391
(dp392
S'DET'
p393
F1.0
s(lp394
tp395
a(S'mio'
p396
(dp397
S'PRON'
p398
F1.0
s(lp399
(g7
I0
tp400
atp401
a(S'collega'
p402
(dp403
S'VERB'
p404
F4.6e-05
sS'NOUN'
p405
F0.999954
s(lp406
(g14
I1
tp407
atp408
a(g137
(dp409
g120
F1.0
s(lp410
(g137
I2
tp411
atp412
a(S"l'"
p413
(dp414
S'NOUN'
p415
F0.003774
sS'VERB'
p416
F0.984512
sS'ADJ'
p417
F0.011715
s(lp418
(g24
I3
tp419
atp420
a(S'onorevole'
p421
(dp422
S'NOUN'
p423
F0.395958
sS'ADJ'
p424
F0.604042
s(lp425
tp426
a(S'h\xc3\xb6kmark'
p427
(dp428
S'NOUN'
p429
F0.45289
sS'VERB'
p430
F0.000254
sS'ADJ'
p431
F0.546856
s(lp432
(g38
I4
tp433
atp434
a(g137
(dp435
g120
F1.0
s(lp436
(g137
I5
tp437
atp438
a(S'in'
p439
(dp440
S'ADP'
p441
F1.0
s(lp442
tp443
a(S'precedenza'
p444
(dp445
S'NOUN'
p446
F1.0
s(lp447
(g164
I7
tp448
atp449
a(S'ha'
p450
(dp451
S'VERB'
p452
F1.0
s(lp453
(g51
I6
tp454
atp455
a(S'affrontato'
p456
(dp457
S'VERB'
p458
F0.987161
sS'ADJ'
p459
F0.012839
s(lp460
(g58
I8
tp461
atp462
a(S'il'
p463
(dp464
S'DET'
p465
F1.0
s(lp466
(g67
I9
tp467
atp468
a(S'recepimento'
p469
(dp470
S'NOUN'
p471
F1.0
s(lp472
(g74
I10
tp473
atp474
a(S'della'
p475
(dp476
S'DEF'
p477
F0.001677
sS'ADP'
p478
F0.998323
s(lp479
(g81
I11
tp480
atp481
a(S'direttiva'
p482
(dp483
S'ADJ'
p484
F0.047362
sS'NOUN'
p485
F0.952638
s(lp486
(g103
I14
tp487
atp488
a(S'sui'
p489
(dp490
S'ADP'
p491
F1.0
s(lp492
tp493
a(S'servizi'
p494
(dp495
S'NOUN'
p496
F1.0
s(lp497
(g117
I13
tp498
atp499
a(g120
(dp500
g120
F1.0
s(lp501
(g120
I15
tp502
atp503
asS'sk'
p504
(lp505
(S'm\xc3\xb4j'
p506
(dp507
S'PRON'
p508
F1.0
s(lp509
(g7
I0
tp510
atp511
a(S'kolega'
p512
(dp513
S'NOUN'
p514
F1.0
s(lp515
(g14
I1
tp516
atp517
a(g137
(dp518
g120
F1.0
s(lp519
(g137
I2
tp520
atp521
a(S'p\xc3\xa1n'
p522
(dp523
S'NOUN'
p524
F1.0
s(lp525
(g24
I3
tp526
atp527
a(S'poslanec'
p528
(dp529
S'NOUN'
p530
F1.0
s(lp531
(g38
I4
tp532
atp533
a(S'h\xc3\xb6kmark'
p534
(dp535
S'ADJ'
p536
F0.000527
sg19
F0.002126
sS'VERB'
p537
F0.013125
sS'NOUN'
p538
F0.98422
s(lp539
tp540
a(g137
(dp541
g120
F1.0
s(lp542
(g137
I5
tp543
atp544
a(S'ned\xc3\xa1vno'
p545
(dp546
S'ADV'
p547
F1.0
s(lp548
(g38
I4
tp549
atp550
a(S'hovoril'
p551
(dp552
S'VERB'
p553
F1.0
s(lp554
(g51
I6
tp555
atp556
a(S'o'
p557
(dp558
g19
F0.00035400000000000004
sS'CONJ'
p559
F2.1e-05
sS'NOUN'
p560
F1.1000000000000001e-05
sS'ADP'
p561
F0.999613
s(lp562
(g58
I8
tp563
atp564
a(S'transpoz\xc3\xadcii'
p565
(dp566
S'NOUN'
p567
F1.0
s(lp568
(g74
I10
tp569
atp570
a(S'smernice'
p571
(dp572
S'NOUN'
p573
F1.0
s(lp574
(g103
I14
tp575
atp576
a(g557
(dp577
g19
F0.000629
sS'CONJ'
p578
F6.8e-05
sS'NOUN'
p579
F2.2e-05
sS'ADP'
p580
F0.999281
s(lp581
(g90
I12
tp582
atp583
a(S'slu\xc5\xbeb\xc3\xa1ch'
p584
(dp585
S'NOUN'
p586
F1.0
s(lp587
(g117
I13
tp588
atp589
a(g120
(dp590
g120
F1.0
s(lp591
(g120
I15
tp592
atp593
asS'pl'
p594
(lp595
(S'm\xc3\xb3j'
p596
(dp597
S'NOUN'
p598
F0.00064
sS'ADJ'
p599
F0.9993609999999999
s(lp600
(g7
I0
tp601
atp602
a(S'kolega'
p603
(dp604
S'NOUN'
p605
F1.0
s(lp606
(g14
I1
tp607
atp608
a(g137
(dp609
g19
F0.0
sg120
F1.0
s(lp610
(g137
I2
tp611
atp612
a(S'pose\xc5\x82'
p613
(dp614
S'NOUN'
p615
F1.0
s(lp616
tp617
a(S'h\xc3\xb6kmark'
p618
(dp619
S'ADJ'
p620
F0.000151
sS'NOUN'
p621
F0.9998509999999998
s(lp622
(g38
I4
tp623
atp624
a(g137
(dp625
g19
F0.0
sg120
F1.0
s(lp626
(g137
I5
tp627
atp628
a(S'm\xc3\xb3wi\xc5\x82'
p629
(dp630
S'VERB'
p631
F1.0
s(lp632
(g51
I6
tp633
atp634
a(S'wcze\xc5\x9bniej'
p635
(dp636
S'ADV'
p637
F1.0
s(lp638
(g164
I7
tp639
atp640
a(g557
(dp641
g19
F0.028161000000000002
sS'VERB'
p642
F0.000131
sS'NOUN'
p643
F0.00109
sS'ADP'
p644
F0.97057
sS'PRT'
p645
F4.7e-05
s(lp646
(g58
I8
tp647
atp648
a(S'transpozycji'
p649
(dp650
S'ADJ'
p651
F8e-06
sS'VERB'
p652
F9e-06
sS'NOUN'
p653
F0.9999829999999998
s(lp654
(g74
I10
tp655
atp656
a(S'dyrektywy'
p657
(dp658
S'NOUN'
p659
F1.0
s(lp660
(g103
I14
tp661
atp662
a(S'us\xc5\x82ugowej'
p663
(dp664
S'ADJ'
p665
F1.0
s(lp666
(g117
I13
tp667
atp668
a(g120
(dp669
g120
F1.0
s(lp670
(g120
I15
tp671
atp672
asS'sl'
p673
(lp674
(S'kolega'
p675
(dp676
S'NOUN'
p677
F1.0
s(lp678
(g14
I1
tp679
atp680
a(S'gospod'
p681
(dp682
S'NOUN'
p683
F1.0
s(lp684
(g24
I3
tp685
atp686
a(S'h\xc3\xb6kmark'
p687
(dp688
S'ADV'
p689
F0.000148
sS'ADJ'
p690
F0.002436
sS'VERB'
p691
F0.000128
sS'NOUN'
p692
F0.997286
s(lp693
(g38
I4
tp694
atp695
a(S'je'
p696
(dp697
S'PRON'
p698
F2.3e-05
sS'VERB'
p699
F0.999973
sg19
F5e-06
s(lp700
(g137
I5
tp701
atp702
a(S'govoril'
p703
(dp704
S'VERB'
p705
F1.0
s(lp706
(g51
I6
tp707
atp708
a(g557
(dp709
S'NOUN'
p710
F8.3e-05
sS'ADP'
p711
F0.999917
s(lp712
(g58
I8
tp713
atp714
a(S'prenosu'
p715
(dp716
S'NOUN'
p717
F1.0
s(lp718
(g74
I10
tp719
atp720
a(S'direktive'
p721
(dp722
S'NOUN'
p723
F1.0
s(lp724
(g103
I14
tp725
atp726
a(g557
(dp727
S'NOUN'
p728
F4e-06
sS'ADP'
p729
F0.999996
s(lp730
(g81
I11
tp731
atp732
a(S'storitvah'
p733
(dp734
S'NOUN'
p735
F1.0
s(lp736
(g117
I13
tp737
atp738
a(g120
(dp739
g120
F1.0
s(lp740
(g120
I15
tp741
atp742
asS'es'
p743
(lp744
(S'mi'
p745
(dp746
S'PRON'
p747
F1.0
s(lp748
(g7
I0
tp749
atp750
a(S'colega'
p751
(dp752
S'NOUN'
p753
F1.0
s(lp754
(g14
I1
tp755
atp756
a(S'el'
p757
(dp758
S'PRON'
p759
F1.2e-05
sS'DET'
p760
F0.999988
s(lp761
tp762
a(S'se\xc3\xb1or'
p763
(dp764
S'NOUN'
p765
F1.0
s(lp766
(g24
I3
tp767
atp768
a(S'h\xc3\xb6kmark'
p769
(dp770
S'ADJ'
p771
F0.258025
sS'VERB'
p772
F0.11543500000000001
sS'NOUN'
p773
F0.62654
s(lp774
(g38
I4
tp775
atp776
a(S'ha'
p777
(dp778
S'VERB'
p779
F1.0
s(lp780
tp781
a(S'hablado'
p782
(dp783
S'VERB'
p784
F1.0
s(lp785
(g51
I6
tp786
atp787
a(S'antes'
p788
(dp789
S'ADV'
p790
F0.999844
sS'NOUN'
p791
F0.000156
s(lp792
(g164
I7
tp793
atp794
a(S'de'
p795
(dp796
g19
F0.0
sS'CONJ'
p797
F0.000119
sS'ADP'
p798
F0.999881
s(lp799
(g58
I8
tp800
atp801
a(S'la'
p802
(dp803
S'NOUN'
p804
F0.0
sS'PRON'
p805
F0.0
sS'DET'
p806
F0.999999
sg19
F0.0
s(lp807
(g67
I9
tp808
atp809
a(S'transposici\xc3\xb3n'
p810
(dp811
S'NOUN'
p812
F1.0
s(lp813
(g74
I10
tp814
atp815
a(S'de'
p816
(dp817
g19
F0.0
sS'CONJ'
p818
F1.7e-05
sS'ADP'
p819
F0.999983
s(lp820
(g81
I11
tp821
atp822
a(S'la'
p823
(dp824
S'NOUN'
p825
F5e-06
sS'PRON'
p826
F0.0
sS'DET'
p827
F0.999995
sg19
F1e-06
s(lp828
(g90
I12
tp829
atp830
a(S'directiva'
p831
(dp832
S'ADJ'
p833
F0.08563
sS'NOUN'
p834
F0.91437
s(lp835
(g103
I14
tp836
atp837
a(S'de'
p838
(dp839
g19
F2.9e-05
sS'CONJ'
p840
F0.000538
sS'ADP'
p841
F0.999433
s(lp842
tp843
a(S'servicios'
p844
(dp845
S'NOUN'
p846
F1.0
s(lp847
(g117
I13
tp848
atp849
a(g120
(dp850
g120
F1.0
s(lp851
(g120
I15
tp852
atp853
as.