(dp0
S'fr'
p1
(lp2
(S'\xc3\x80'
p3
(dp4
S'ADP'
p5
F1.0
s(lp6
(S'to'
p7
I0
tp8
atp9
a(S'dire'
p10
(dp11
S'VERB'
p12
F0.999619
sS'NOUN'
p13
F0.000381
s(lp14
(S'be'
p15
I1
tp16
atp17
a(S'la'
p18
(dp19
S'PRON'
p20
F6e-06
sS'DET'
p21
F0.999994
sS'NOUN'
p22
F0.0
s(lp23
tp24
a(S'v\xc3\xa9rit\xc3\xa9'
p25
(dp26
S'NOUN'
p27
F1.0
s(lp28
(S'honest'
p29
I2
tp30
atp31
a(S','
p32
(dp33
S'.'
p34
F1.0
s(lp35
(g32
I3
tp36
atp37
a(S'elle'
p38
(dp39
S'PRON'
p40
F1.0
s(lp41
(S'it'
p42
I4
tp43
atp44
a(S'met'
p45
(dp46
S'VERB'
p47
F1.0
s(lp48
(S'clumsily'
p49
I17
tp50
atp51
a(S'maintenant'
p52
(dp53
S'ADV'
p54
F0.999842
sS'VERB'
p55
F0.000158
s(lp56
tp57
a(g32
(dp58
g34
F1.0
s(lp59
(g32
I15
tp60
atp61
a(S'parfois'
p62
(dp63
S'ADV'
p64
F1.0
s(lp65
(g49
I17
tp66
atp67
a(S'maladroitement'
p68
(dp69
S'ADV'
p70
F1.0
s(lp71
(g49
I17
tp72
atp73
a(g32
(dp74
g34
F1.0
s(lp75
tp76
a(S"d'"
p77
(dp78
S'ADJ'
p79
F0.13429
sS'VERB'
p80
F0.638201
sS'NOUN'
p81
F0.227509
s(lp82
(S'other'
p83
I14
tp84
atp85
a(S'ailleurs'
p86
(dp87
S'ADV'
p88
F0.991289
sS'NOUN'
p89
F0.008711
s(lp90
tp91
a(g32
(dp92
g34
F1.0
s(lp93
(g32
I19
tp94
atp95
a(S'mais'
p96
(dp97
S'CONJ'
p98
F1.0
s(lp99
(S'but'
p100
I20
tp101
atp102
a(S'elle'
p103
(dp104
S'PRON'
p105
F1.0
s(lp106
(g42
I4
tp107
atp108
a(S'a'
p109
(dp110
S'VERB'
p111
F1.0
s(lp112
(S'is'
p113
I5
tp114
atp115
a(S'raison'
p116
(dp117
S'NOUN'
p118
F1.0
s(lp119
(S'reason'
p120
I23
tp121
atp122
a(S'de'
p123
(dp124
S'ADP'
p125
F1.0
s(lp126
(S'with'
p127
I21
tp128
atp129
a(S'le'
p130
(dp131
S'PRON'
p132
F0.582489
sS'DET'
p133
F0.417511
s(lp134
tp135
a(S'faire'
p136
(dp137
S'VERB'
p138
F1.0
s(lp139
(S'forcing'
p140
I7
tp141
atp142
a(g32
(dp143
g34
F1.0
s(lp144
(g32
I15
tp145
atp146
a(S'elle'
p147
(dp148
S'PRON'
p149
F1.0
s(lp150
(g42
I4
tp151
atp152
a(S'met'
p153
(dp154
S'VERB'
p155
F1.0
s(lp156
(g49
I17
tp157
atp158
a(S'maintenant'
p159
(dp160
S'ADV'
p161
F0.999325
sS'VERB'
p162
F0.000675
s(lp163
(S'now'
p164
I6
tp165
atp166
a(S'les'
p167
(dp168
S'PRON'
p169
F0.000111
sS'DET'
p170
F0.999847
sS'ADP'
p171
F4.2e-05
s(lp172
(S'its'
p173
I8
tp174
atp175
a(S'partenaires'
p176
(dp177
S'NOUN'
p178
F1.0
s(lp179
(S'partners'
p180
I9
tp181
atp182
a(S'en'
p183
(dp184
S'PRON'
p185
F0.00337
sS'ADP'
p186
F0.99663
s(lp187
(S'to'
p188
I10
tp189
atp190
a(S'concurrence'
p191
(dp192
S'VERB'
p193
F0.003211
sS'NOUN'
p194
F0.99679
s(lp195
(S'compete'
p196
I11
tp197
atp198
a(g34
(dp199
g34
F1.0
s(lp200
(g34
I24
tp201
atp202
asS'en'
p203
(lp204
(g7
(dp205
S'ADV'
p206
F0.0
sS'PRT'
p207
F1.0
sS'ADP'
p208
F0.0
s(lp209
(g7
I0
tp210
atp211
a(g15
(dp212
S'VERB'
p213
F1.0
s(lp214
(g15
I1
tp215
atp216
a(g29
(dp217
S'ADJ'
p218
F1.0
s(lp219
(g29
I2
tp220
atp221
a(g32
(dp222
g34
F1.0
s(lp223
(g32
I3
tp224
atp225
a(g42
(dp226
S'PRON'
p227
F1.0
s(lp228
(g42
I4
tp229
atp230
a(g113
(dp231
S'VERB'
p232
F1.0
s(lp233
(g113
I5
tp234
atp235
a(g164
(dp236
S'ADV'
p237
F0.999937
sS'NOUN'
p238
F0.0
sS'ADP'
p239
F6.3e-05
s(lp240
(g164
I6
tp241
atp242
a(g140
(dp243
S'VERB'
p244
F0.999704
sS'ADJ'
p245
F0.000296
s(lp246
(g140
I7
tp247
atp248
a(g173
(dp249
S'PRON'
p250
F1.0
s(lp251
(g173
I8
tp252
atp253
a(g180
(dp254
S'VERB'
p255
F3e-06
sS'NOUN'
p256
F0.999997
s(lp257
(g180
I9
tp258
atp259
a(g188
(dp260
S'ADV'
p261
F0.0
sS'PRT'
p262
F1.0
sS'ADP'
p263
F0.0
s(lp264
(g188
I10
tp265
atp266
a(g196
(dp267
S'VERB'
p268
F1.0
s(lp269
(g196
I11
tp270
atp271
a(S'with'
p272
(dp273
S'ADP'
p274
F1.0
s(lp275
(g272
I12
tp276
atp277
a(S'each'
p278
(dp279
S'ADV'
p280
F4e-06
sS'DET'
p281
F0.999996
s(lp282
(g278
I13
tp283
atp284
a(g83
(dp285
S'ADV'
p286
F3e-05
sS'NOUN'
p287
F0.000351
sS'ADJ'
p288
F0.999619
s(lp289
(g83
I14
tp290
atp291
a(g32
(dp292
g34
F1.0
s(lp293
(g32
I15
tp294
atp295
a(S'rather'
p296
(dp297
S'ADV'
p298
F0.999979
sS'ADJ'
p299
F2.1e-05
s(lp300
(g296
I16
tp301
atp302
a(g49
(dp303
S'ADV'
p304
F1.0
s(lp305
(g49
I17
tp306
atp307
a(S'perhaps'
p308
(dp309
S'ADV'
p310
F1.0
s(lp311
(g308
I18
tp312
atp313
a(g32
(dp314
g34
F1.0
s(lp315
(g32
I19
tp316
atp317
a(g100
(dp318
S'ADV'
p319
F0.009284
sS'CONJ'
p320
F0.990709
sS'NOUN'
p321
F7e-06
s(lp322
(g100
I20
tp323
atp324
a(g127
(dp325
S'ADP'
p326
F1.0
s(lp327
(g127
I21
tp328
atp329
a(S'good'
p330
(dp331
S'ADV'
p332
F0.000205
sS'NOUN'
p333
F0.005119
sS'ADJ'
p334
F0.994677
s(lp335
(g330
I22
tp336
atp337
a(g120
(dp338
S'VERB'
p339
F5e-05
sS'NOUN'
p340
F0.999951
s(lp341
(g120
I23
tp342
atp343
a(g34
(dp344
g34
F1.0
s(lp345
(g34
I24
tp346
atp347
asS'nl'
p348
(lp349
(S'om'
p350
(dp351
S'ADV'
p352
F0.014179
sS'CONJ'
p353
F0.886503
sS'ADP'
p354
F0.099319
s(lp355
tp356
a(S'eerlijk'
p357
(dp358
S'ADJ'
p359
F1.0
s(lp360
(g29
I2
tp361
atp362
a(S'te'
p363
(dp364
S'PRT'
p365
F1.0
s(lp366
(g7
I0
tp367
atp368
a(S'zijn'
p369
(dp370
S'PRON'
p371
F7.1e-05
sS'VERB'
p372
F0.999926
sS'NOUN'
p373
F3e-06
s(lp374
(g15
I1
tp375
atp376
a(S'dwingt'
p377
(dp378
S'VERB'
p379
F1.0
s(lp380
(g140
I7
tp381
atp382
a(S'het'
p383
(dp384
S'PRON'
p385
F0.9999290000000001
sS'DET'
p386
F7.1e-05
s(lp387
(g42
I4
tp388
atp389
a(S'zijn'
p390
(dp391
S'PRON'
p392
F0.955639
sS'VERB'
p393
F0.04434
sS'NOUN'
p394
F2.1e-05
s(lp395
(g173
I8
tp396
atp397
a(S'partners'
p398
(dp399
S'NOUN'
p400
F1.0
s(lp401
(g180
I9
tp402
atp403
a(S'nu'
p404
(dp405
S'ADV'
p406
F0.952246
sS'CONJ'
p407
F0.047724
sS'NOUN'
p408
F3e-05
s(lp409
(g164
I6
tp410
atp411
a(S'om'
p412
(dp413
S'ADV'
p414
F0.033391
sS'CONJ'
p415
F0.94874
sS'ADP'
p416
F0.017868
s(lp417
tp418
a(S'met'
p419
(dp420
S'ADP'
p421
F1.0
s(lp422
(g272
I12
tp423
atp424
a(S'elkaar'
p425
(dp426
S'PRON'
p427
F1.0
s(lp428
(g278
I13
tp429
atp430
a(S'in'
p431
(dp432
S'ADV'
p433
F0.008979
sS'VERB'
p434
F1e-06
sS'ADP'
p435
F0.99102
s(lp436
(g296
I16
tp437
atp438
a(S'concurrentie'
p439
(dp440
S'NOUN'
p441
F1.0
s(lp442
(g196
I11
tp443
atp444
a(S'te'
p445
(dp446
S'PRT'
p447
F1.0
s(lp448
(g188
I10
tp449
atp450
a(S'treden'
p451
(dp452
S'VERB'
p453
F0.9999600000000001
sS'NOUN'
p454
F4e-05
s(lp455
tp456
a(g32
(dp457
g34
F1.0
s(lp458
(g32
I3
tp459
atp460
a(S'misschien'
p461
(dp462
S'ADV'
p463
F1.0
s(lp464
(g308
I18
tp465
atp466
a(S'onbeholpen'
p467
(dp468
S'ADJ'
p469
F1.0
s(lp470
(g49
I17
tp471
atp472
a(g32
(dp473
g34
F1.0
s(lp474
(g32
I19
tp475
atp476
a(S'maar'
p477
(dp478
S'ADV'
p479
F0.25952
sS'CONJ'
p480
F0.740471
sS'NOUN'
p481
F9e-06
s(lp482
(g100
I20
tp483
atp484
a(S'terecht'
p485
(dp486
S'ADV'
p487
F0.018275
sS'ADJ'
p488
F0.981725
s(lp489
(g120
I23
tp490
atp491
a(g34
(dp492
g34
F1.0
s(lp493
(g34
I24
tp494
atp495
asS'de'
p496
(lp497
(S'um'
p498
(dp499
S'CONJ'
p500
F0.787723
sS'ADP'
p501
F0.209742
s(lp502
tp503
a(S'ehrlich'
p504
(dp505
S'ADJ'
p506
F1.0
s(lp507
(g29
I2
tp508
atp509
a(S'zu'
p510
(dp511
S'PRT'
p512
F0.999928
s(lp513
(g7
I0
tp514
atp515
a(S'sein'
p516
(dp517
S'VERB'
p518
F0.99994
s(lp519
(g15
I1
tp520
atp521
a(g32
(dp522
g34
F1.0
s(lp523
(g32
I3
tp524
atp525
a(S'zwingt'
p526
(dp527
S'VERB'
p528
F1.0
s(lp529
(g140
I7
tp530
atp531
a(S'es'
p532
(dp533
S'PRON'
p534
F1.0
s(lp535
(g42
I4
tp536
atp537
a(S'heute'
p538
(dp539
S'ADV'
p540
F0.999371
sS'VERB'
p541
F0.000629
s(lp542
(g164
I6
tp543
atp544
a(S'seine'
p545
(dp546
S'PRON'
p547
F1.0
s(lp548
(g173
I8
tp549
atp550
a(S'partner'
p551
(dp552
S'NOUN'
p553
F0.99988
s(lp554
(g180
I9
tp555
atp556
a(S'zu'
p557
(dp558
S'PRT'
p559
F0.449052
sS'ADP'
p560
F0.525027
s(lp561
(g188
I10
tp562
atp563
a(S'gegenseitiger'
p564
(dp565
S'ADJ'
p566
F1.0
s(lp567
(g49
I17
tp568
atp569
a(S'konkurrenz'
p570
(dp571
S'VERB'
p572
F0.000241
sS'NOUN'
p573
F0.999436
s(lp574
(g196
I11
tp575
atp576
a(g32
(dp577
g34
F1.0
s(lp578
(g32
I15
tp579
atp580
a(S'wenn'
p581
(dp582
S'CONJ'
p583
F1.0
s(lp584
tp585
a(S'auch'
p586
(dp587
S'ADV'
p588
F1.0
s(lp589
tp590
a(S'vielleicht'
p591
(dp592
S'ADV'
p593
F1.0
s(lp594
(g308
I18
tp595
atp596
a(S'etwas'
p597
(dp598
S'ADV'
p599
F0.852409
sS'PRON'
p600
F0.123466
s(lp601
(g296
I16
tp602
atp603
a(S'unbeholfen'
p604
(dp605
S'ADJ'
p606
F1.0
s(lp607
(g49
I17
tp608
atp609
a(g32
(dp610
g34
F1.0
s(lp611
(g32
I19
tp612
atp613
a(S'so'
p614
(dp615
S'ADV'
p616
F0.999994
sS'PRON'
p617
F6e-06
s(lp618
tp619
a(S'doch'
p620
(dp621
S'ADV'
p622
F0.966733
sS'CONJ'
p623
F0.033267
s(lp624
(g100
I20
tp625
atp626
a(S'mit'
p627
(dp628
S'PRT'
p629
F0.000432
sS'ADP'
p630
F0.999568
s(lp631
(g127
I21
tp632
atp633
a(S'gutem'
p634
(dp635
S'ADJ'
p636
F1.0
s(lp637
(g330
I22
tp638
atp639
a(S'grund'
p640
(dp641
S'ADJ'
p642
F0.114774
sS'NOUN'
p643
F0.884028
s(lp644
(g120
I23
tp645
atp646
a(g34
(dp647
g34
F1.0
s(lp648
(g34
I24
tp649
atp650
asS'it'
p651
(lp652
(g109
(dp653
S'CONJ'
p654
F0.00056
sS'ADP'
p655
F0.99944
s(lp656
(g7
I0
tp657
atp658
a(S'essere'
p659
(dp660
S'VERB'
p661
F0.99807
sS'NOUN'
p662
F0.00193
s(lp663
(g15
I1
tp664
atp665
a(S'onesti'
p666
(dp667
S'NOUN'
p668
F0.109708
sS'ADJ'
p669
F0.890292
s(lp670
(g29
I2
tp671
atp672
a(g32
(dp673
g34
F1.0
s(lp674
(g32
I3
tp675
atp676
a(S'ora'
p677
(dp678
S'ADV'
p679
F0.981887
sS'CONJ'
p680
F0.008945
sS'VERB'
p681
F0.0008240000000000001
sS'NOUN'
p682
F0.008343
s(lp683
(g164
I6
tp684
atp685
a(S'sta'
p686
(dp687
S'VERB'
p688
F1.0
s(lp689
(g113
I5
tp690
atp691
a(S'costringendo'
p692
(dp693
S'VERB'
p694
F1.0
s(lp695
(g140
I7
tp696
atp697
a(S'i'
p698
(dp699
S'DET'
p700
F1.0
s(lp701
tp702
a(S'propri'
p703
(dp704
S'ADJ'
p705
F1.0
s(lp706
(g173
I8
tp707
atp708
a(S'partner'
p709
(dp710
S'NOUN'
p711
F1.0
s(lp712
(g180
I9
tp713
atp714
a(g109
(dp715
S'CONJ'
p716
F0.000335
sS'ADP'
p717
F0.999665
s(lp718
(g188
I10
tp719
atp720
a(S'competere'
p721
(dp722
S'VERB'
p723
F1.0
s(lp724
(g196
I11
tp725
atp726
a(S"l'"
p727
(dp728
S'NOUN'
p729
F0.012178
sS'VERB'
p730
F0.890187
sS'ADJ'
p731
F0.097635
s(lp732
(g278
I13
tp733
atp734
a(S'uno'
p735
(dp736
S'NOUN'
p737
F0.4497
sS'ADJ'
p738
F0.466067
sS'DEF'
p739
F0.063662
sS'PRON'
p740
F0.020571
s(lp741
tp742
a(S'con'
p743
(dp744
S'ADP'
p745
F1.0
s(lp746
(g272
I12
tp747
atp748
a(S"l'"
p749
(dp750
S'NOUN'
p751
F0.010333
sS'VERB'
p752
F0.964772
sS'ADJ'
p753
F0.024895
s(lp754
(g278
I13
tp755
atp756
a(S'altro'
p757
(dp758
S'ADV'
p759
F0.11475
sS'PRON'
p760
F0.329144
sS'ADJ'
p761
F0.529894
sS'NOUN'
p762
F0.026213
s(lp763
(g83
I14
tp764
atp765
a(g32
(dp766
g34
F1.0
s(lp767
(g32
I15
tp768
atp769
a(S'piuttosto'
p770
(dp771
S'ADV'
p772
F1.0
s(lp773
(g296
I16
tp774
atp775
a(S'grossolanamente'
p776
(dp777
S'ADV'
p778
F1.0
s(lp779
(g49
I17
tp780
atp781
a(S'forse'
p782
(dp783
S'ADV'
p784
F0.996867
sS'NOUN'
p785
F0.003133
s(lp786
(g308
I18
tp787
atp788
a(g32
(dp789
g34
F1.0
s(lp790
(g32
I19
tp791
atp792
a(S'ma'
p793
(dp794
S'CONJ'
p795
F0.999792
sS'NOUN'
p796
F0.000208
s(lp797
(g100
I20
tp798
atp799
a(g109
(dp800
S'CONJ'
p801
F0.000462
sS'ADP'
p802
F0.999538
s(lp803
(g127
I21
tp804
atp805
a(S'buona'
p806
(dp807
S'NOUN'
p808
F0.012878
sS'ADJ'
p809
F0.987122
s(lp810
(g330
I22
tp811
atp812
a(S'ragione'
p813
(dp814
S'NOUN'
p815
F1.0
s(lp816
(g120
I23
tp817
atp818
a(g34
(dp819
g34
F1.0
s(lp820
(g34
I24
tp821
atp822
asS'sk'
p823
(lp824
(S'\xc3\x9aprimne'
p825
(dp826
S'ADV'
p827
F1.0
s(lp828
tp829
a(S'povedan\xc3\xa9'
p830
(dp831
S'VERB'
p832
F1.0
s(lp833
(g29
I2
tp834
atp835
a(g32
(dp836
g34
F1.0
s(lp837
(g32
I3
tp838
atp839
a(S'v'
p840
(dp841
S'X'
p842
F0.000753
sS'ADP'
p843
F0.999247
s(lp844
(g42
I4
tp845
atp846
a(S's\xc3\xba\xc4\x8dasnosti'
p847
(dp848
S'NOUN'
p849
F1.0
s(lp850
(g164
I6
tp851
atp852
a(S'svojich'
p853
(dp854
S'PRON'
p855
F1.0
s(lp856
(g173
I8
tp857
atp858
a(S'partnerov'
p859
(dp860
S'NOUN'
p861
F1.0
s(lp862
(g180
I9
tp863
atp864
a(g32
(dp865
g34
F1.0
s(lp866
tp867
a(S's\xc3\xadce'
p868
(dp869
S'CONJ'
p870
F1.0
s(lp871
(g49
I17
tp872
atp873
a(S'trochu'
p874
(dp875
S'ADV'
p876
F0.90511
sS'NUM'
p877
F0.093781
sS'NOUN'
p878
F0.001109
s(lp879
(g49
I17
tp880
atp881
a(S'ne\xc5\xa1ikovne'
p882
(dp883
S'ADV'
p884
F1.0
s(lp885
(g49
I17
tp886
atp887
a(g32
(dp888
g34
F1.0
s(lp889
(g32
I19
tp890
atp891
a(S'ale'
p892
(dp893
g842
F0.005908
sS'CONJ'
p894
F0.994092
s(lp895
(g100
I20
tp896
atp897
a(S'pr\xc3\xa1vom'
p898
(dp899
S'ADV'
p900
F0.480814
sS'NOUN'
p901
F0.519186
s(lp902
(g49
I17
tp903
atp904
a(g32
(dp905
g34
F1.0
s(lp906
(g32
I15
tp907
atp908
a(S'n\xc3\xbati'
p909
(dp910
S'VERB'
p911
F1.0
s(lp912
(g49
I17
tp913
atp914
a(S'sk\xc3\xb4r'
p915
(dp916
S'ADV'
p917
F0.245796
sg842
F0.748458
sS'CONJ'
p918
F0.005747
s(lp919
(g296
I16
tp920
atp921
a(S'k'
p922
(dp923
g842
F6.2e-05
sS'NOUN'
p924
F2e-06
sS'ADP'
p925
F0.999936
s(lp926
(g49
I17
tp927
atp928
a(S'tomu'
p929
(dp930
S'PRON'
p931
F0.999547
sg842
F0.000453
s(lp932
(g49
I17
tp933
atp934
a(g32
(dp935
g34
F1.0
s(lp936
tp937
a(S'aby'
p938
(dp939
g842
F5.4e-05
sS'CONJ'
p940
F0.999946
s(lp941
(g188
I10
tp942
atp943
a(S'si'
p944
(dp945
S'PRT'
p946
F0.812557
sS'VERB'
p947
F0.187443
sg842
F0.0
s(lp948
tp949
a(S'vz\xc3\xa1jomne'
p950
(dp951
S'ADV'
p952
F1.0
s(lp953
(g49
I17
tp954
atp955
a(S'konkurovali'
p956
(dp957
S'VERB'
p958
F1.0000010000000001
s(lp959
(g196
I11
tp960
atp961
a(g34
(dp962
g34
F1.0
s(lp963
(g34
I24
tp964
atp965
asS'pl'
p966
(lp967
(S'szczerze'
p968
(dp969
S'ADV'
p970
F1.0
s(lp971
tp972
a(S'm\xc3\xb3wi\xc4\x85c'
p973
(dp974
S'VERB'
p975
F1.0
s(lp976
(g29
I2
tp977
atp978
a(g32
(dp979
g842
F0.0
sg34
F1.0
s(lp980
(g32
I3
tp981
atp982
a(S'teraz'
p983
(dp984
S'ADV'
p985
F1.0
s(lp986
(g164
I6
tp987
atp988
a(S'to'
p989
(dp990
S'NOUN'
p991
F0.182262
sS'ADP'
p992
F3e-06
sS'PRT'
p993
F0.57183
sg842
F3e-06
sS'CONJ'
p994
F0.214481
sS'ADJ'
p995
F0.03142
s(lp996
(g113
I5
tp997
atp998
a(S'ona'
p999
(dp1000
S'PRON'
p1001
F1.0
s(lp1002
(g42
I4
tp1003
atp1004
a(S'zmusza'
p1005
(dp1006
S'VERB'
p1007
F1.0
s(lp1008
(g140
I7
tp1009
atp1010
a(S'swoich'
p1011
(dp1012
S'NOUN'
p1013
F3e-05
sS'ADJ'
p1014
F0.9999699999999998
s(lp1015
(g173
I8
tp1016
atp1017
a(S'partner\xc3\xb3w'
p1018
(dp1019
S'NOUN'
p1020
F1.0
s(lp1021
(g180
I9
tp1022
atp1023
a(S'do'
p1024
(dp1025
g842
F0.0
sS'NOUN'
p1026
F1e-06
sS'ADP'
p1027
F0.9999990000000001
s(lp1028
(g188
I10
tp1029
atp1030
a(S'konkurowania'
p1031
(dp1032
S'ADV'
p1033
F1.4e-05
sS'ADJ'
p1034
F0.000337
sS'VERB'
p1035
F0.9523659999999999
sS'NOUN'
p1036
F0.04728100000000001
s(lp1037
(g196
I11
tp1038
atp1039
a(S'mi\xc4\x99dzy'
p1040
(dp1041
S'ADP'
p1042
F1.0
s(lp1043
(g49
I17
tp1044
atp1045
a(S'sob\xc4\x85'
p1046
(dp1047
S'PRON'
p1048
F1.0
s(lp1049
(g49
I17
tp1050
atp1051
a(g32
(dp1052
g842
F0.0
sg34
F1.0
s(lp1053
tp1054
a(S'by\xc4\x87'
p1055
(dp1056
S'VERB'
p1057
F1.0
s(lp1058
tp1059
a(S'mo\xc5\xbce'
p1060
(dp1061
S'PRT'
p1062
F0.54788
sS'VERB'
p1063
F0.45212
s(lp1064
(g308
I18
tp1065
atp1066
a(S'nieco'
p1067
(dp1068
S'ADV'
p1069
F0.979484
sS'NUM'
p1070
F0.020516000000000003
s(lp1071
(g49
I17
tp1072
atp1073
a(S'niezdarnie'
p1074
(dp1075
S'ADV'
p1076
F1.0
s(lp1077
tp1078
a(g32
(dp1079
g842
F0.0
sg34
F1.0
s(lp1080
(g32
I19
tp1081
atp1082
a(S'ale'
p1083
(dp1084
S'PRT'
p1085
F0.00273
sS'CONJ'
p1086
F0.996612
sS'NOUN'
p1087
F0.000659
s(lp1088
(g100
I20
tp1089
atp1090
a(S'w'
p1091
(dp1092
S'ADJ'
p1093
F0.0
sg842
F0.0
sS'NOUN'
p1094
F0.0
sS'ADP'
p1095
F1.0
s(lp1096
(g127
I21
tp1097
atp1098
a(S'dobrej'
p1099
(dp1100
S'ADJ'
p1101
F1.0
s(lp1102
(g330
I22
tp1103
atp1104
a(S'wierze'
p1105
(dp1106
S'NOUN'
p1107
F1.0
s(lp1108
(g49
I17
tp1109
atp1110
a(g34
(dp1111
g34
F1.0
s(lp1112
(g34
I24
tp1113
atp1114
asS'sl'
p1115
(lp1116
(S'odkrito'
p1117
(dp1118
S'ADV'
p1119
F0.999886
sS'ADJ'
p1120
F0.000114
s(lp1121
tp1122
a(S're\xc4\x8deno'
p1123
(dp1124
S'ADV'
p1125
F0.026069
sS'ADJ'
p1126
F0.973931
s(lp1127
(g29
I2
tp1128
atp1129
a(g32
(dp1130
g34
F1.0
s(lp1131
(g32
I3
tp1132
atp1133
a(S'zdaj'
p1134
(dp1135
S'ADV'
p1136
F1.0
s(lp1137
(g164
I6
tp1138
atp1139
a(S'svoje'
p1140
(dp1141
S'PRON'
p1142
F0.9999999999999999
s(lp1143
(g173
I8
tp1144
atp1145
a(S'partnerje'
p1146
(dp1147
S'NOUN'
p1148
F1.0
s(lp1149
(g180
I9
tp1150
atp1151
a(S'spodbuja'
p1152
(dp1153
S'VERB'
p1154
F1.0
s(lp1155
(g140
I7
tp1156
atp1157
a(g32
(dp1158
g34
F1.0
s(lp1159
tp1160
a(S'da'
p1161
(dp1162
S'PRT'
p1163
F0.000255
sS'CONJ'
p1164
F0.999719
sS'VERB'
p1165
F2.5e-05
sg842
F1e-06
s(lp1166
(g188
I10
tp1167
atp1168
a(S'tekmujejo'
p1169
(dp1170
S'VERB'
p1171
F1.0
s(lp1172
(g196
I11
tp1173
atp1174
a(S'drug'
p1175
(dp1176
S'NUM'
p1177
F1.0
s(lp1178
(g278
I13
tp1179
atp1180
a(S'z'
p1181
(dp1182
S'ADP'
p1183
F1.0
s(lp1184
(g272
I12
tp1185
atp1186
a(S'drugim'
p1187
(dp1188
S'NUM'
p1189
F0.9999999999999999
s(lp1190
(g83
I14
tp1191
atp1192
a(g32
(dp1193
g34
F1.0
s(lp1194
(g32
I15
tp1195
atp1196
a(S'kar'
p1197
(dp1198
S'ADV'
p1199
F0.013124
sS'PRON'
p1200
F0.986877
s(lp1201
(g49
I17
tp1202
atp1203
a(S'je'
p1204
(dp1205
S'PRON'
p1206
F0.00024
sS'VERB'
p1207
F0.9997590000000001
sg842
F1e-06
s(lp1208
(g113
I5
tp1209
atp1210
a(S'nekoliko'
p1211
(dp1212
S'ADV'
p1213
F1.0
s(lp1214
tp1215
a(S'brezobzirno'
p1216
(dp1217
S'ADV'
p1218
F1.0
s(lp1219
(g49
I17
tp1220
atp1221
a(g32
(dp1222
g34
F1.0
s(lp1223
(g32
I19
tp1224
atp1225
a(S'vendar'
p1226
(dp1227
S'ADV'
p1228
F0.025804
sS'CONJ'
p1229
F0.974196
s(lp1230
(g100
I20
tp1231
atp1232
a(g1181
(dp1233
S'ADP'
p1234
F1.0
s(lp1235
(g127
I21
tp1236
atp1237
a(S'dobrim'
p1238
(dp1239
S'ADJ'
p1240
F0.9999999999999999
s(lp1241
(g330
I22
tp1242
atp1243
a(S'razlogom'
p1244
(dp1245
S'NOUN'
p1246
F1.0
s(lp1247
(g120
I23
tp1248
atp1249
a(g34
(dp1250
g34
F1.0
s(lp1251
(g34
I24
tp1252
atp1253
asS'es'
p1254
(lp1255
(S'para'
p1256
(dp1257
S'CONJ'
p1258
F0.930403
sS'ADP'
p1259
F0.069597
s(lp1260
(g7
I0
tp1261
atp1262
a(S'ser'
p1263
(dp1264
S'VERB'
p1265
F0.999304
sS'NOUN'
p1266
F0.000696
s(lp1267
(g15
I1
tp1268
atp1269
a(S'francos'
p1270
(dp1271
S'NOUN'
p1272
F0.019129
sS'ADJ'
p1273
F0.980871
s(lp1274
(g29
I2
tp1275
atp1276
a(g32
(dp1277
g34
F1.0
s(lp1278
(g32
I3
tp1279
atp1280
a(S'est\xc3\xa1'
p1281
(dp1282
S'VERB'
p1283
F1.0
s(lp1284
(g113
I5
tp1285
atp1286
a(S'obligando'
p1287
(dp1288
S'VERB'
p1289
F1.0
s(lp1290
tp1291
a(S'ahora'
p1292
(dp1293
S'ADV'
p1294
F1.0
s(lp1295
(g164
I6
tp1296
atp1297
a(g109
(dp1298
g842
F1e-05
sS'CONJ'
p1299
F0.000315
sS'ADP'
p1300
F0.999675
s(lp1301
(g140
I7
tp1302
atp1303
a(S'sus'
p1304
(dp1305
S'PRON'
p1306
F1.0
s(lp1307
(g173
I8
tp1308
atp1309
a(S'socios'
p1310
(dp1311
S'NOUN'
p1312
F1.0
s(lp1313
(g180
I9
tp1314
atp1315
a(g109
(dp1316
g842
F8.499999999999999e-05
sS'CONJ'
p1317
F0.077467
sS'ADP'
p1318
F0.922448
s(lp1319
(g188
I10
tp1320
atp1321
a(S'competir'
p1322
(dp1323
S'VERB'
p1324
F1.0
s(lp1325
(g196
I11
tp1326
atp1327
a(S'entre'
p1328
(dp1329
g842
F0.0
sS'ADP'
p1330
F1.0
s(lp1331
(g278
I13
tp1332
atp1333
a(S'ellos'
p1334
(dp1335
S'PRON'
p1336
F1.0
s(lp1337
(g83
I14
tp1338
atp1339
a(g32
(dp1340
g34
F1.0
s(lp1341
(g32
I15
tp1342
atp1343
a(S'de'
p1344
(dp1345
g842
F0.0
sS'CONJ'
p1346
F6.5e-05
sS'ADP'
p1347
F0.999934
s(lp1348
tp1349
a(S'una'
p1350
(dp1351
S'DET'
p1352
F1.0
s(lp1353
tp1354
a(S'manera'
p1355
(dp1356
S'NOUN'
p1357
F1.0
s(lp1358
tp1359
a(S'm\xc3\xa1s'
p1360
(dp1361
S'ADV'
p1362
F0.999946
sS'CONJ'
p1363
F5.4e-05
s(lp1364
tp1365
a(S'bien'
p1366
(dp1367
S'ADV'
p1368
F0.98191
sS'NOUN'
p1369
F0.01809
s(lp1370
(g296
I16
tp1371
atp1372
a(S'torpe'
p1373
(dp1374
S'ADJ'
p1375
F1.0
s(lp1376
(g49
I17
tp1377
atp1378
a(S'quiz\xc3\xa1s'
p1379
(dp1380
S'ADV'
p1381
F1.0
s(lp1382
(g308
I18
tp1383
atp1384
a(g32
(dp1385
g34
F1.0
s(lp1386
(g32
I19
tp1387
atp1388
a(S'pero'
p1389
(dp1390
S'CONJ'
p1391
F0.994755
sS'NOUN'
p1392
F0.005245
s(lp1393
(g100
I20
tp1394
atp1395
a(S'razonable'
p1396
(dp1397
S'ADJ'
p1398
F1.0
s(lp1399
(g120
I23
tp1400
atp1401
a(g34
(dp1402
g34
F1.0
s(lp1403
(g34
I24
tp1404
atp1405
as.