(dp0
S'fr'
p1
(lp2
(S'je'
p3
(dp4
S'PRON'
p5
F1.0
s(lp6
(S'i'
p7
I0
tp8
atp9
a(S'salue'
p10
(dp11
S'VERB'
p12
F1.0
s(lp13
(S'welcome'
p14
I2
tp15
atp16
a(S'd\xc3\xa8s'
p17
(dp18
S'ADP'
p19
F1.0
s(lp20
tp21
a(S'lors'
p22
(dp23
S'ADV'
p24
F1.0
s(lp25
(S'therefore'
p26
I1
tp27
atp28
a(S'la'
p29
(dp30
S'PRON'
p31
F2.3e-05
sS'DET'
p32
F0.999977
sS'NOUN'
p33
F0.0
s(lp34
(S'the'
p35
I3
tp36
atp37
a(S'signature'
p38
(dp39
S'NOUN'
p40
F1.0
s(lp41
(S'signing'
p42
I4
tp43
atp44
a(S'de'
p45
(dp46
S'ADP'
p47
F1.0
s(lp48
(S'of'
p49
I5
tp50
atp51
a(S"l'"
p52
(dp53
S'ADJ'
p54
F0.160704
sS'VERB'
p55
F0.06480800000000002
sS'NOUN'
p56
F0.774488
s(lp57
(S'the'
p58
I6
tp59
atp60
a(S'accord'
p61
(dp62
S'NOUN'
p63
F1.0
s(lp64
(S'agreement'
p65
I9
tp66
atp67
a(S'de'
p68
(dp69
S'ADP'
p70
F1.0
s(lp71
tp72
a(S'partenariat'
p73
(dp74
S'NOUN'
p75
F1.0
s(lp76
(S'partnership'
p77
I8
tp78
atp79
a(S'volontaire'
p80
(dp81
S'NOUN'
p82
F0.017234
sS'ADJ'
p83
F0.982766
s(lp84
(S'voluntary'
p85
I7
tp86
atp87
a(S'avec'
p88
(dp89
S'ADV'
p90
F0.002765
sS'ADP'
p91
F0.997235
s(lp92
(S'with'
p93
I10
tp94
atp95
a(S'la'
p96
(dp97
S'PRON'
p98
F1.2e-05
sS'DET'
p99
F0.999988
sS'NOUN'
p100
F0.0
s(lp101
(S'the'
p102
I11
tp103
atp104
a(S'r\xc3\xa9publique'
p105
(dp106
S'NOUN'
p107
F1.0
s(lp108
(S'republic'
p109
I12
tp110
atp111
a(S'du'
p112
(dp113
S'ADP'
p114
F1.0
s(lp115
(S'of'
p116
I13
tp117
atp118
a(S'congo'
p119
(dp120
S'ADJ'
p121
F0.399665
sS'NOUN'
p122
F0.600335
s(lp123
(S'congo'
p124
I14
tp125
atp126
a(S','
p127
(dp128
S'.'
p129
F1.0
s(lp130
tp131
a(S'qui'
p132
(dp133
S'PRON'
p134
F1.0
s(lp135
(S'with'
p136
I15
tp137
atp138
a(S'a'
p139
(dp140
S'VERB'
p141
F1.0
s(lp142
tp143
a(S'pour'
p144
(dp145
S'CONJ'
p146
F0.020687
sS'ADP'
p147
F0.979313
s(lp148
(S'the'
p149
I16
tp150
atp151
a(S'but'
p152
(dp153
S'VERB'
p154
F0.009932
sS'NOUN'
p155
F0.990068
s(lp156
(S'aim'
p157
I17
tp158
atp159
a(S"d'"
p160
(dp161
S'NOUN'
p162
F0.032992
sS'VERB'
p163
F0.6950619999999998
sS'ADJ'
p164
F0.271945
s(lp165
(S'of'
p166
I18
tp167
atp168
a(S'am\xc3\xa9liorer'
p169
(dp170
S'VERB'
p171
F1.0
s(lp172
(S'improving'
p173
I19
tp174
atp175
a(S'la'
p176
(dp177
S'PRON'
p178
F6e-06
sS'DET'
p179
F0.999994
sS'NOUN'
p180
F0.0
s(lp181
tp182
a(S'gestion'
p183
(dp184
S'NOUN'
p185
F1.0
s(lp186
(S'governance'
p187
I21
tp188
atp189
a(S'des'
p190
(dp191
S'DET'
p192
F2.1e-05
sS'ADP'
p193
F0.999979
s(lp194
(S'forest'
p195
I20
tp196
atp197
a(S'for\xc3\xaats'
p198
(dp199
S'NOUN'
p200
F1.0
s(lp201
tp202
a(S'et'
p203
(dp204
S'CONJ'
p205
F1.0
s(lp206
(S'and'
p207
I22
tp208
atp209
a(S'de'
p210
(dp211
S'ADP'
p212
F1.0
s(lp213
(g195
I20
tp214
atp215
a(S'r\xc3\xa9former'
p216
(dp217
S'VERB'
p218
F1.0
s(lp219
(S'reforming'
p220
I23
tp221
atp222
a(g127
(dp223
g129
F1.0
s(lp224
tp225
a(S'le'
p226
(dp227
S'PRON'
p228
F0.000368
sS'DET'
p229
F0.999632
s(lp230
(S'so'
p231
I28
tp232
atp233
a(S'cas'
p234
(dp235
S'NOUN'
p236
F1.0
s(lp237
(S'where'
p238
I26
tp239
atp240
a(S'\xc3\xa9ch\xc3\xa9ant'
p241
(dp242
S'VERB'
p243
F0.486192
sS'ADJ'
p244
F0.513808
s(lp245
(S'necessary'
p246
I27
tp247
atp248
a(g127
(dp249
g129
F1.0
s(lp250
(g231
I28
tp251
atp252
a(S'la'
p253
(dp254
S'PRON'
p255
F6.9e-05
sS'DET'
p256
F0.999931
sS'NOUN'
p257
F0.0
s(lp258
(S'legislation'
p259
I25
tp260
atp261
a(S'l\xc3\xa9gislation'
p262
(dp263
S'NOUN'
p264
F1.0
s(lp265
(g259
I25
tp266
atp267
a(S'en'
p268
(dp269
S'PRON'
p270
F0.000406
sS'ADP'
p271
F0.999594
s(lp272
tp273
a(S'vigueur'
p274
(dp275
S'NOUN'
p276
F1.0
s(lp277
(S'existing'
p278
I24
tp279
atp280
a(S'en'
p281
(dp282
S'PRON'
p283
F0.000381
sS'ADP'
p284
F0.999619
s(lp285
(S'as'
p286
I29
tp287
atp288
a(S'la'
p289
(dp290
S'PRON'
p291
F1.3e-05
sS'DET'
p292
F0.999987
sS'NOUN'
p293
F0.0
s(lp294
tp295
a(S'mati\xc3\xa8re'
p296
(dp297
S'NOUN'
p298
F1.0
s(lp299
(g259
I25
tp300
atp301
a(g127
(dp302
g129
F1.0
s(lp303
tp304
a(S'afin'
p305
(dp306
S'CONJ'
p307
F1.0
s(lp308
(g231
I28
tp309
atp310
a(S'de'
p311
(dp312
S'ADP'
p313
F1.0
s(lp314
(S'to'
p315
I30
tp316
atp317
a(S'veiller'
p318
(dp319
S'VERB'
p320
F1.0
s(lp321
tp322
a(S'\xc3\xa0'
p323
(dp324
S'ADP'
p325
F1.0
s(lp326
tp327
a(S'ce'
p328
(dp329
S'PRON'
p330
F1.0
s(lp331
(S'ensure'
p332
I31
tp333
atp334
a(S'que'
p335
(dp336
S'ADV'
p337
F0.010855
sS'PRON'
p338
F0.898252
sS'CONJ'
p339
F0.090892
s(lp340
(S'that'
p341
I32
tp342
atp343
a(S'les'
p344
(dp345
S'PRON'
p346
F0.001511
sS'DET'
p347
F0.998483
sS'ADP'
p348
F6e-06
s(lp349
tp350
a(S'activit\xc3\xa9s'
p351
(dp352
S'NOUN'
p353
F1.0
s(lp354
(S'activities'
p355
I33
tp356
atp357
a(S'du'
p358
(dp359
S'ADP'
p360
F1.0
s(lp361
(S'the'
p362
I35
tp363
atp364
a(S'secteur'
p365
(dp366
S'NOUN'
p367
F1.0
s(lp368
(S'sector'
p369
I37
tp370
atp371
a(S'forestier'
p372
(dp373
S'NOUN'
p374
F0.357148
sS'ADJ'
p375
F0.642852
s(lp376
(S'forestry'
p377
I36
tp378
atp379
a(S'soient'
p380
(dp381
S'VERB'
p382
F1.0
s(lp383
(S'are'
p384
I38
tp385
atp386
a(S'transparentes'
p387
(dp388
S'ADJ'
p389
F1.0
s(lp390
(S'transparent'
p391
I39
tp392
atp393
a(g127
(dp394
g129
F1.0
s(lp395
(g127
I40
tp396
atp397
a(S'respectent'
p398
(dp399
S'VERB'
p400
F1.0
s(lp401
(S'respect'
p402
I41
tp403
atp404
a(S'les'
p405
(dp406
S'PRON'
p407
F0.000128
sS'DET'
p408
F0.999838
sS'ADP'
p409
F3.4e-05
s(lp410
tp411
a(S'droits'
p412
(dp413
S'ADJ'
p414
F0.016682
sS'NOUN'
p415
F0.983318
s(lp416
(S'rights'
p417
I45
tp418
atp419
a(S'des'
p420
(dp421
S'DET'
p422
F2.1e-05
sS'ADP'
p423
F0.999979
s(lp424
(S"'"
p425
I44
tp426
atp427
a(S'peuples'
p428
(dp429
S'VERB'
p430
F0.0
sS'NOUN'
p431
F1.0
s(lp432
(S'peoples'
p433
I43
tp434
atp435
a(S'indig\xc3\xa8nes'
p436
(dp437
S'NOUN'
p438
F0.03912
sS'ADJ'
p439
F0.96088
s(lp440
(S'indigenous'
p441
I42
tp442
atp443
a(S'et'
p444
(dp445
S'CONJ'
p446
F1.0
s(lp447
(S'and'
p448
I47
tp449
atp450
a(S"n'"
p451
(dp452
S'NOUN'
p453
F0.050387
sS'VERB'
p454
F0.8915730000000001
sS'ADJ'
p455
F0.05804
s(lp456
tp457
a(S'entra\xc3\xaenent'
p458
(dp459
S'VERB'
p460
F1.0
s(lp461
(S'do'
p462
I48
tp463
atp464
a(S'pas'
p465
(dp466
S'ADV'
p467
F0.996431
sS'NOUN'
p468
F0.003569
s(lp469
(S'not'
p470
I49
tp471
atp472
a(S'de'
p473
(dp474
S'ADP'
p475
F1.0
s(lp476
(S'to'
p477
I51
tp478
atp479
a(S'r\xc3\xa9percussions'
p480
(dp481
S'NOUN'
p482
F1.0
s(lp483
(S'impacts'
p484
I54
tp485
atp486
a(S'n\xc3\xa9gatives'
p487
(dp488
S'NOUN'
p489
F0.013805
sS'ADJ'
p490
F0.986195
s(lp491
(S'adverse'
p492
I52
tp493
atp494
a(S'pour'
p495
(dp496
S'CONJ'
p497
F0.448397
sS'ADP'
p498
F0.551603
s(lp499
(S'environmental'
p500
I53
tp501
atp502
a(S"l'"
p503
(dp504
S'ADJ'
p505
F0.11467
sS'VERB'
p506
F0.43552800000000014
sS'NOUN'
p507
F0.449804
s(lp508
tp509
a(S'environnement'
p510
(dp511
S'NOUN'
p512
F1.0
s(lp513
(g500
I53
tp514
atp515
a(g129
(dp516
g129
F1.0
s(lp517
(g129
I55
tp518
atp519
asS'en'
p520
(lp521
(g7
(dp522
S'X'
p523
F0.0008
sS'NOUN'
p524
F0.9992
s(lp525
(g7
I0
tp526
atp527
a(g26
(dp528
S'ADV'
p529
F1.0
s(lp530
(g26
I1
tp531
atp532
a(g14
(dp533
S'NOUN'
p534
F0.001951
sS'VERB'
p535
F0.974616
sS'ADJ'
p536
F0.023433
s(lp537
(g14
I2
tp538
atp539
a(g35
(dp540
S'NOUN'
p541
F2e-06
sS'DET'
p542
F0.999998
s(lp543
(g35
I3
tp544
atp545
a(g42
(dp546
S'VERB'
p547
F0.105214
sS'NOUN'
p548
F0.894786
s(lp549
(g42
I4
tp550
atp551
a(g49
(dp552
S'ADP'
p553
F1.0
s(lp554
(g49
I5
tp555
atp556
a(g58
(dp557
S'NOUN'
p558
F1e-06
sS'DET'
p559
F0.999999
s(lp560
(g58
I6
tp561
atp562
a(g85
(dp563
S'NOUN'
p564
F0.005481
sS'ADJ'
p565
F0.994519
s(lp566
(g85
I7
tp567
atp568
a(g77
(dp569
S'NOUN'
p570
F1.0
s(lp571
(g77
I8
tp572
atp573
a(g65
(dp574
S'NOUN'
p575
F1.0
s(lp576
(g65
I9
tp577
atp578
a(g93
(dp579
S'ADP'
p580
F1.0
s(lp581
(g93
I10
tp582
atp583
a(g102
(dp584
S'NOUN'
p585
F1e-06
sS'DET'
p586
F0.999999
s(lp587
(g102
I11
tp588
atp589
a(g109
(dp590
S'NOUN'
p591
F1.0
s(lp592
(g109
I12
tp593
atp594
a(g116
(dp595
S'ADP'
p596
F1.0
s(lp597
(g116
I13
tp598
atp599
a(g124
(dp600
S'NOUN'
p601
F1.0
s(lp602
(g124
I14
tp603
atp604
a(g136
(dp605
S'ADP'
p606
F1.0
s(lp607
(g136
I15
tp608
atp609
a(g149
(dp610
S'NOUN'
p611
F2e-06
sS'DET'
p612
F0.999998
s(lp613
(g149
I16
tp614
atp615
a(g157
(dp616
S'VERB'
p617
F0.002196
sS'NOUN'
p618
F0.997804
s(lp619
(g157
I17
tp620
atp621
a(g166
(dp622
S'ADP'
p623
F1.0
s(lp624
(g166
I18
tp625
atp626
a(g173
(dp627
S'VERB'
p628
F0.970684
sS'NOUN'
p629
F0.029316
s(lp630
(g173
I19
tp631
atp632
a(g195
(dp633
S'ADJ'
p634
F0.001525
sS'VERB'
p635
F0.00030199999999999997
sS'NOUN'
p636
F0.998173
s(lp637
(g195
I20
tp638
atp639
a(g187
(dp640
S'NOUN'
p641
F1.0
s(lp642
(g187
I21
tp643
atp644
a(g207
(dp645
S'CONJ'
p646
F1.0
sS'NOUN'
p647
F0.0
s(lp648
(g207
I22
tp649
atp650
a(g220
(dp651
S'VERB'
p652
F1.0
s(lp653
(g220
I23
tp654
atp655
a(g278
(dp656
S'VERB'
p657
F0.21164
sS'ADJ'
p658
F0.78836
s(lp659
(g278
I24
tp660
atp661
a(g259
(dp662
S'NOUN'
p663
F1.0
s(lp664
(g259
I25
tp665
atp666
a(g238
(dp667
S'ADV'
p668
F0.999579
sS'ADP'
p669
F0.000421
s(lp670
(g238
I26
tp671
atp672
a(g246
(dp673
S'ADJ'
p674
F1.0
s(lp675
(g246
I27
tp676
atp677
a(g231
(dp678
S'ADV'
p679
F0.792678
sS'ADJ'
p680
F0.000267
sS'CONJ'
p681
F0.020942
sS'NOUN'
p682
F0.003987
sS'ADP'
p683
F0.182125
s(lp684
(g231
I28
tp685
atp686
a(g286
(dp687
S'ADV'
p688
F0.554822
sS'ADP'
p689
F0.445178
s(lp690
(g286
I29
tp691
atp692
a(g315
(dp693
S'ADV'
p694
F0.0
sS'PRT'
p695
F1.0
sS'ADP'
p696
F0.0
s(lp697
(g315
I30
tp698
atp699
a(g332
(dp700
S'VERB'
p701
F1.0
s(lp702
(g332
I31
tp703
atp704
a(g341
(dp705
S'ADV'
p706
F0.000102
sS'DET'
p707
F0.257298
sS'ADP'
p708
F0.7426
s(lp709
(g341
I32
tp710
atp711
a(g355
(dp712
S'NOUN'
p713
F1.0
s(lp714
(g355
I33
tp715
atp716
a(S'in'
p717
(dp718
S'ADV'
p719
F0.000295
sS'PRT'
p720
F0.000234
sS'ADP'
p721
F0.999471
s(lp722
(g717
I34
tp723
atp724
a(g362
(dp725
S'NOUN'
p726
F1e-06
sS'DET'
p727
F0.999999
s(lp728
(g362
I35
tp729
atp730
a(g377
(dp731
S'NOUN'
p732
F1.0
s(lp733
(g377
I36
tp734
atp735
a(g369
(dp736
S'NOUN'
p737
F1.0
s(lp738
(g369
I37
tp739
atp740
a(g384
(dp741
S'VERB'
p742
F0.999967
sS'NOUN'
p743
F3.3e-05
s(lp744
(g384
I38
tp745
atp746
a(g391
(dp747
S'ADJ'
p748
F1.0
s(lp749
(g391
I39
tp750
atp751
a(g127
(dp752
g129
F1.0
s(lp753
(g127
I40
tp754
atp755
a(g402
(dp756
S'VERB'
p757
F0.9025839999999999
sS'NOUN'
p758
F0.097416
s(lp759
(g402
I41
tp760
atp761
a(g441
(dp762
S'ADJ'
p763
F1.0
s(lp764
(g441
I42
tp765
atp766
a(g433
(dp767
S'VERB'
p768
F1e-06
sS'NOUN'
p769
F0.999999
s(lp770
(g433
I43
tp771
atp772
a(g425
(dp773
S'PRT'
p774
F0.966189
sg129
F0.033811
s(lp775
(g425
I44
tp776
atp777
a(g417
(dp778
S'VERB'
p779
F2e-05
sS'NOUN'
p780
F0.99998
s(lp781
(g417
I45
tp782
atp783
a(g127
(dp784
g129
F1.0
s(lp785
(g127
I46
tp786
atp787
a(g448
(dp788
S'CONJ'
p789
F0.999997
sS'NOUN'
p790
F3e-06
s(lp791
(g448
I47
tp792
atp793
a(g462
(dp794
S'VERB'
p795
F0.999997
sS'NOUN'
p796
F3e-06
s(lp797
(g462
I48
tp798
atp799
a(g470
(dp800
S'ADV'
p801
F1.0
s(lp802
(g470
I49
tp803
atp804
a(S'contribute'
p805
(dp806
S'VERB'
p807
F1.0
s(lp808
(g805
I50
tp809
atp810
a(g477
(dp811
S'ADV'
p812
F5e-06
sS'PRT'
p813
F0.999993
sS'ADP'
p814
F2e-06
s(lp815
(g477
I51
tp816
atp817
a(g492
(dp818
S'ADJ'
p819
F1.0
s(lp820
(g492
I52
tp821
atp822
a(g500
(dp823
S'ADJ'
p824
F1.0
s(lp825
(g500
I53
tp826
atp827
a(g484
(dp828
S'VERB'
p829
F0.000186
sS'NOUN'
p830
F0.999814
s(lp831
(g484
I54
tp832
atp833
a(g129
(dp834
g129
F1.0
s(lp835
(g129
I55
tp836
atp837
asS'nl'
p838
(lp839
(S'daarom'
p840
(dp841
S'ADV'
p842
F1.0
s(lp843
(g26
I1
tp844
atp845
a(S'ben'
p846
(dp847
S'VERB'
p848
F1.0
s(lp849
(g14
I2
tp850
atp851
a(S'ik'
p852
(dp853
S'PRON'
p854
F0.999997
sS'NOUN'
p855
F3e-06
s(lp856
(g7
I0
tp857
atp858
a(S'ingenomen'
p859
(dp860
S'VERB'
p861
F0.974165
sS'ADJ'
p862
F0.025835
s(lp863
tp864
a(S'met'
p865
(dp866
S'ADP'
p867
F1.0
s(lp868
(g14
I2
tp869
atp870
a(S'de'
p871
(dp872
S'DET'
p873
F1.0
s(lp874
(g35
I3
tp875
atp876
a(S'sluiting'
p877
(dp878
S'NOUN'
p879
F1.0
s(lp880
(g42
I4
tp881
atp882
a(S'van'
p883
(dp884
S'ADP'
p885
F1.0
s(lp886
(g49
I5
tp887
atp888
a(S'de'
p889
(dp890
S'DET'
p891
F1.0
s(lp892
(g58
I6
tp893
atp894
a(S'vrijwillige'
p895
(dp896
S'NOUN'
p897
F0.000388
sS'ADJ'
p898
F0.999612
s(lp899
(g85
I7
tp900
atp901
a(S'partnerschapsovereenkomst'
p902
(dp903
S'NOUN'
p904
F1.0
s(lp905
(g77
I8
tp906
atp907
a(S'met'
p908
(dp909
S'ADP'
p910
F1.0
s(lp911
(g93
I10
tp912
atp913
a(S'de'
p914
(dp915
S'DET'
p916
F1.0
s(lp917
(g102
I11
tp918
atp919
a(S'republiek'
p920
(dp921
S'NOUN'
p922
F1.0
s(lp923
(g109
I12
tp924
atp925
a(S'congo'
p926
(dp927
S'NOUN'
p928
F1.0
s(lp929
(g124
I14
tp930
atp931
a(g127
(dp932
g129
F1.0
s(lp933
tp934
a(S'die'
p935
(dp936
S'PRON'
p937
F1.0
s(lp938
(g136
I15
tp939
atp940
a(S'ten'
p941
(dp942
S'ADP'
p943
F1.0
s(lp944
(g149
I16
tp945
atp946
a(S'doel'
p947
(dp948
S'VERB'
p949
F0.0
sS'NOUN'
p950
F1.0
s(lp951
(g157
I17
tp952
atp953
a(S'heeft'
p954
(dp955
S'VERB'
p956
F1.0
s(lp957
tp958
a(S'de'
p959
(dp960
S'DET'
p961
F1.0
s(lp962
(g195
I20
tp963
atp964
a(S'governance'
p965
(dp966
S'ADJ'
p967
F0.000558
sS'NOUN'
p968
F0.999442
s(lp969
(g187
I21
tp970
atp971
a(S'in'
p972
(dp973
S'ADV'
p974
F0.002979
sS'VERB'
p975
F2e-06
sS'ADP'
p976
F0.997019
s(lp977
(g717
I34
tp978
atp979
a(S'de'
p980
(dp981
S'DET'
p982
F1.0
s(lp983
(g362
I35
tp984
atp985
a(S'bosbouwsector'
p986
(dp987
S'NOUN'
p988
F1.0
s(lp989
tp990
a(S'te'
p991
(dp992
S'PRT'
p993
F1.0
s(lp994
tp995
a(S'verbeteren'
p996
(dp997
S'VERB'
p998
F0.9999979999999999
sS'NOUN'
p999
F2e-06
s(lp1000
(g173
I19
tp1001
atp1002
a(S'en'
p1003
(dp1004
S'CONJ'
p1005
F1.0
s(lp1006
(g207
I22
tp1007
atp1008
a(S'waar'
p1009
(dp1010
S'ADV'
p1011
F0.999688
sS'NOUN'
p1012
F3e-05
sS'ADJ'
p1013
F0.000282
s(lp1014
(g238
I26
tp1015
atp1016
a(S'nodig'
p1017
(dp1018
S'VERB'
p1019
F0.001698
sS'ADJ'
p1020
F0.998302
s(lp1021
(g246
I27
tp1022
atp1023
a(S'bestaande'
p1024
(dp1025
S'NOUN'
p1026
F0.011496
sS'VERB'
p1027
F0.00756
sS'ADJ'
p1028
F0.980943
s(lp1029
(g278
I24
tp1030
atp1031
a(S'wetgeving'
p1032
(dp1033
S'NOUN'
p1034
F1.0
s(lp1035
(g259
I25
tp1036
atp1037
a(S'te'
p1038
(dp1039
S'PRT'
p1040
F1.0
s(lp1041
(g315
I30
tp1042
atp1043
a(S'hervormen'
p1044
(dp1045
S'VERB'
p1046
F0.999999
sS'NOUN'
p1047
F0.0
s(lp1048
(g220
I23
tp1049
atp1050
a(S'om'
p1051
(dp1052
S'ADV'
p1053
F1.2e-05
sS'CONJ'
p1054
F0.999946
sS'ADP'
p1055
F4.2e-05
s(lp1056
tp1057
a(S'ervoor'
p1058
(dp1059
S'ADV'
p1060
F1.0
s(lp1061
tp1062
a(S'te'
p1063
(dp1064
S'PRT'
p1065
F1.0
s(lp1066
(g315
I30
tp1067
atp1068
a(S'zorgen'
p1069
(dp1070
S'VERB'
p1071
F0.99771
sS'NOUN'
p1072
F0.002289
s(lp1073
(g332
I31
tp1074
atp1075
a(S'dat'
p1076
(dp1077
S'PRON'
p1078
F0.022868
sS'CONJ'
p1079
F0.977132
s(lp1080
(g341
I32
tp1081
atp1082
a(S'bosbouwactiviteiten'
p1083
(dp1084
S'NOUN'
p1085
F1.0
s(lp1086
(g377
I36
tp1087
atp1088
a(S'transparant'
p1089
(dp1090
S'NOUN'
p1091
F0.09566
sS'ADJ'
p1092
F0.90434
s(lp1093
(g391
I39
tp1094
atp1095
a(S'zijn'
p1096
(dp1097
S'PRON'
p1098
F3.1e-05
sS'VERB'
p1099
F0.99769
sS'NOUN'
p1100
F0.002279
s(lp1101
(g384
I38
tp1102
atp1103
a(g127
(dp1104
g129
F1.0
s(lp1105
(g127
I40
tp1106
atp1107
a(S'de'
p1108
(dp1109
S'DET'
p1110
F1.0
s(lp1111
(g425
I44
tp1112
atp1113
a(S'rechten'
p1114
(dp1115
S'ADJ'
p1116
F2.4e-05
sS'VERB'
p1117
F0.0
sS'NOUN'
p1118
F0.999976
s(lp1119
(g417
I45
tp1120
atp1121
a(S'van'
p1122
(dp1123
S'ADP'
p1124
F1.0
s(lp1125
tp1126
a(S'inheemse'
p1127
(dp1128
S'NOUN'
p1129
F0.000269
sS'ADJ'
p1130
F0.999731
s(lp1131
(g441
I42
tp1132
atp1133
a(S'volkeren'
p1134
(dp1135
S'NOUN'
p1136
F1.0
s(lp1137
(g433
I43
tp1138
atp1139
a(S'eerbiedigen'
p1140
(dp1141
S'VERB'
p1142
F0.9895539999999999
sS'NOUN'
p1143
F0.010446
s(lp1144
(g402
I41
tp1145
atp1146
a(S'en'
p1147
(dp1148
S'CONJ'
p1149
F1.0
s(lp1150
(g448
I47
tp1151
atp1152
a(S'geen'
p1153
(dp1154
S'PRON'
p1155
F0.99997
sS'DET'
p1156
F3e-05
s(lp1157
(g470
I49
tp1158
atp1159
a(S'schadelijke'
p1160
(dp1161
S'NOUN'
p1162
F0.000153
sS'ADJ'
p1163
F0.999847
s(lp1164
(g492
I52
tp1165
atp1166
a(S'milieueffecten'
p1167
(dp1168
S'NOUN'
p1169
F1.0
s(lp1170
(g500
I53
tp1171
atp1172
a(S'hebben'
p1173
(dp1174
S'VERB'
p1175
F0.999994
sS'NOUN'
p1176
F5e-06
s(lp1177
(g484
I54
tp1178
atp1179
a(g129
(dp1180
g129
F1.0
s(lp1181
(g129
I55
tp1182
atp1183
asS'de'
p1184
(lp1185
(S'ich'
p1186
(dp1187
S'PRON'
p1188
F1.0
s(lp1189
(g7
I0
tp1190
atp1191
a(S'begr\xc3\xbc\xc3\x9fe'
p1192
(dp1193
S'VERB'
p1194
F1.0
s(lp1195
(g14
I2
tp1196
atp1197
a(S'daher'
p1198
(dp1199
S'ADV'
p1200
F0.999804
s(lp1201
(g26
I1
tp1202
atp1203
a(S'die'
p1204
(dp1205
S'PRON'
p1206
F0.001231
sS'DET'
p1207
F0.998255
s(lp1208
(g35
I3
tp1209
atp1210
a(S'unterzeichnung'
p1211
(dp1212
S'ADJ'
p1213
F9.3e-05
sS'NOUN'
p1214
F0.999811
s(lp1215
(g42
I4
tp1216
atp1217
a(S'des'
p1218
(dp1219
S'DET'
p1220
F1.0
s(lp1221
(g49
I5
tp1222
atp1223
a(S'freiwilligen'
p1224
(dp1225
S'ADJ'
p1226
F1.0
s(lp1227
(g85
I7
tp1228
atp1229
a(S'partnerschaftsabkommens'
p1230
(dp1231
S'VERB'
p1232
F1.8e-05
sS'NOUN'
p1233
F0.999955
s(lp1234
(g77
I8
tp1235
atp1236
a(S'mit'
p1237
(dp1238
S'PRT'
p1239
F0.000336
sS'ADP'
p1240
F0.999664
s(lp1241
(g93
I10
tp1242
atp1243
a(S'der'
p1244
(dp1245
S'PRON'
p1246
F6.5e-05
sS'DET'
p1247
F0.999924
s(lp1248
(g102
I11
tp1249
atp1250
a(S'republik'
p1251
(dp1252
S'NOUN'
p1253
F0.361172
sS'ADJ'
p1254
F0.627675
s(lp1255
(g109
I12
tp1256
atp1257
a(S'kongo'
p1258
(dp1259
S'NOUN'
p1260
F0.782328
s(lp1261
tp1262
a(g127
(dp1263
g129
F1.0
s(lp1264
tp1265
a(S'welches'
p1266
(dp1267
S'PRON'
p1268
F0.891071
s(lp1269
(g124
I14
tp1270
atp1271
a(S'eine'
p1272
(dp1273
S'PRON'
p1274
F0.004381
sS'DET'
p1275
F0.995544
s(lp1276
(g173
I19
tp1277
atp1278
a(S'verbesserte'
p1279
(dp1280
S'VERB'
p1281
F0.002523
sS'ADJ'
p1282
F0.997477
s(lp1283
tp1284
a(S'politikgestaltung'
p1285
(dp1286
S'ADJ'
p1287
F0.002608
sS'NOUN'
p1288
F0.993023
s(lp1289
(g187
I21
tp1290
atp1291
a(S'im'
p1292
(dp1293
S'ADP'
p1294
F1.0
s(lp1295
(g136
I15
tp1296
atp1297
a(S'forstsektor'
p1298
(dp1299
g523
F0.192196
sS'NOUN'
p1300
F0.659668
s(lp1301
(g195
I20
tp1302
atp1303
a(S'und'
p1304
(dp1305
S'CONJ'
p1306
F1.0
s(lp1307
(g207
I22
tp1308
atp1309
a(S'wo'
p1310
(dp1311
S'PRON'
p1312
F1.0
s(lp1313
(g238
I26
tp1314
atp1315
a(S'n\xc3\xb6tig'
p1316
(dp1317
S'VERB'
p1318
F5.7e-05
sS'ADJ'
p1319
F0.999943
s(lp1320
(g246
I27
tp1321
atp1322
a(S'die'
p1323
(dp1324
S'PRON'
p1325
F0.000535
sS'DET'
p1326
F0.999449
s(lp1327
(g173
I19
tp1328
atp1329
a(S'reform'
p1330
(dp1331
S'ADJ'
p1332
F0.012428
sS'NOUN'
p1333
F0.976081
s(lp1334
(g220
I23
tp1335
atp1336
a(S'der'
p1337
(dp1338
S'PRON'
p1339
F8.9e-05
sS'DET'
p1340
F0.999884
s(lp1341
(g166
I18
tp1342
atp1343
a(S'bestehenden'
p1344
(dp1345
S'ADJ'
p1346
F1.0
s(lp1347
(g278
I24
tp1348
atp1349
a(S'gesetzgebung'
p1350
(dp1351
g523
F0.00539
sS'NOUN'
p1352
F0.990952
s(lp1353
(g259
I25
tp1354
atp1355
a(S'zum'
p1356
(dp1357
S'ADP'
p1358
F1.0
s(lp1359
(g149
I16
tp1360
atp1361
a(S'ziel'
p1362
(dp1363
S'VERB'
p1364
F1.0
s(lp1365
(g157
I17
tp1366
atp1367
a(S'hat'
p1368
(dp1369
S'VERB'
p1370
F1.0
s(lp1371
tp1372
a(g127
(dp1373
g129
F1.0
s(lp1374
(g315
I30
tp1375
atp1376
a(S'damit'
p1377
(dp1378
S'ADV'
p1379
F0.899355
sS'CONJ'
p1380
F0.100645
s(lp1381
(g231
I28
tp1382
atp1383
a(S'sichergestellt'
p1384
(dp1385
S'VERB'
p1386
F0.984197
sS'ADJ'
p1387
F0.015803
s(lp1388
(g332
I31
tp1389
atp1390
a(S'wird'
p1391
(dp1392
S'VERB'
p1393
F1.0
s(lp1394
tp1395
a(g127
(dp1396
g129
F1.0
s(lp1397
tp1398
a(S'dass'
p1399
(dp1400
S'CONJ'
p1401
F1.0
s(lp1402
(g341
I32
tp1403
atp1404
a(S'die'
p1405
(dp1406
S'PRON'
p1407
F0.001242
sS'DET'
p1408
F0.998624
s(lp1409
(g362
I35
tp1410
atp1411
a(S'aktivit\xc3\xa4ten'
p1412
(dp1413
S'ADJ'
p1414
F0.00168
sS'NOUN'
p1415
F0.997782
s(lp1416
(g355
I33
tp1417
atp1418
a(S'im'
p1419
(dp1420
S'ADP'
p1421
F1.0
s(lp1422
(g717
I34
tp1423
atp1424
a(S'forstsektor'
p1425
(dp1426
S'ADJ'
p1427
F0.020382
sS'NOUN'
p1428
F0.966042
s(lp1429
(g377
I36
tp1430
atp1431
a(S'transparent'
p1432
(dp1433
S'ADJ'
p1434
F1.0
s(lp1435
(g391
I39
tp1436
atp1437
a(S'sind'
p1438
(dp1439
S'VERB'
p1440
F1.0
s(lp1441
(g384
I38
tp1442
atp1443
a(g127
(dp1444
g129
F1.0
s(lp1445
(g127
I40
tp1446
atp1447
a(S'die'
p1448
(dp1449
S'PRON'
p1450
F0.865289
s(lp1451
tp1452
a(S'rechte'
p1453
(dp1454
S'VERB'
p1455
F0.854319
sS'ADJ'
p1456
F0.145681
s(lp1457
(g417
I45
tp1458
atp1459
a(S'der'
p1460
(dp1461
S'PRON'
p1462
F0.000734
sS'DET'
p1463
F0.999081
s(lp1464
(g425
I44
tp1465
atp1466
a(S'indigenen'
p1467
(dp1468
S'ADJ'
p1469
F1.0
s(lp1470
(g441
I42
tp1471
atp1472
a(S'v\xc3\xb6lker'
p1473
(dp1474
S'ADJ'
p1475
F0.002264
sS'NOUN'
p1476
F0.994316
s(lp1477
(g433
I43
tp1478
atp1479
a(S'respektieren'
p1480
(dp1481
S'VERB'
p1482
F1.0
s(lp1483
(g402
I41
tp1484
atp1485
a(S'und'
p1486
(dp1487
S'CONJ'
p1488
F1.0
s(lp1489
(g448
I47
tp1490
atp1491
a(S'die'
p1492
(dp1493
S'PRON'
p1494
F0.013253
sS'DET'
p1495
F0.975216
s(lp1496
(g477
I51
tp1497
atp1498
a(S'umwelt'
p1499
(dp1500
S'ADJ'
p1501
F0.085258
sS'NOUN'
p1502
F0.868262
s(lp1503
(g500
I53
tp1504
atp1505
a(S'nicht'
p1506
(dp1507
S'PRT'
p1508
F1.0
s(lp1509
(g470
I49
tp1510
atp1511
a(S'belasten'
p1512
(dp1513
S'VERB'
p1514
F1.0
s(lp1515
(g484
I54
tp1516
atp1517
a(g129
(dp1518
g129
F1.0
s(lp1519
(g129
I55
tp1520
atp1521
asS'it'
p1522
(lp1523
(S'accolgo'
p1524
(dp1525
S'VERB'
p1526
F1.0
s(lp1527
(g7
I0
tp1528
atp1529
a(S'quindi'
p1530
(dp1531
S'ADV'
p1532
F0.999865
sS'NOUN'
p1533
F0.000135
s(lp1534
(g26
I1
tp1535
atp1536
a(S'favorevolmente'
p1537
(dp1538
S'ADV'
p1539
F1.0
s(lp1540
(g14
I2
tp1541
atp1542
a(S'la'
p1543
(dp1544
S'PRON'
p1545
F0.004484
sS'DET'
p1546
F0.995516
s(lp1547
(g35
I3
tp1548
atp1549
a(S'firma'
p1550
(dp1551
S'VERB'
p1552
F0.006771
sS'NOUN'
p1553
F0.993229
s(lp1554
(g42
I4
tp1555
atp1556
a(S"dell'"
p1557
(dp1558
S'ADJ'
p1559
F0.040475
sS'VERB'
p1560
F0.007141
sS'NOUN'
p1561
F0.952383
s(lp1562
(g49
I5
tp1563
atp1564
a(S'accordo'
p1565
(dp1566
S'VERB'
p1567
F0.006428
sS'NOUN'
p1568
F0.993572
s(lp1569
(g65
I9
tp1570
atp1571
a(S'volontario'
p1572
(dp1573
S'NOUN'
p1574
F0.042629
sS'ADJ'
p1575
F0.957371
s(lp1576
(g85
I7
tp1577
atp1578
a(S'di'
p1579
(dp1580
S'CONJ'
p1581
F4e-06
sS'ADP'
p1582
F0.999996
s(lp1583
tp1584
a(S'partenariato'
p1585
(dp1586
S'NOUN'
p1587
F1.0
s(lp1588
(g77
I8
tp1589
atp1590
a(S'con'
p1591
(dp1592
S'ADP'
p1593
F1.0
s(lp1594
(g93
I10
tp1595
atp1596
a(S'la'
p1597
(dp1598
S'PRON'
p1599
F0.000199
sS'DET'
p1600
F0.999801
s(lp1601
(g102
I11
tp1602
atp1603
a(S'repubblica'
p1604
(dp1605
S'NOUN'
p1606
F1.0
s(lp1607
(g109
I12
tp1608
atp1609
a(S'del'
p1610
(dp1611
S'DEF'
p1612
F2.2e-05
sS'ADP'
p1613
F0.999978
s(lp1614
(g116
I13
tp1615
atp1616
a(S'congo'
p1617
(dp1618
S'VERB'
p1619
F1.0
s(lp1620
(g124
I14
tp1621
atp1622
a(S'volto'
p1623
(dp1624
S'ADJ'
p1625
F0.001585
sS'VERB'
p1626
F0.9828560000000001
sS'NOUN'
p1627
F0.015559
s(lp1628
(g157
I17
tp1629
atp1630
a(g139
(dp1631
S'CONJ'
p1632
F0.000119
sS'ADP'
p1633
F0.999881
s(lp1634
(g136
I15
tp1635
atp1636
a(S'migliorare'
p1637
(dp1638
S'VERB'
p1639
F1.0
s(lp1640
(g173
I19
tp1641
atp1642
a(S'la'
p1643
(dp1644
S'PRON'
p1645
F2e-06
sS'DET'
p1646
F0.999998
s(lp1647
tp1648
a(S'governance'
p1649
(dp1650
S'ADJ'
p1651
F0.000298
sS'VERB'
p1652
F6.5e-05
sS'NOUN'
p1653
F0.999637
s(lp1654
(g187
I21
tp1655
atp1656
a(S'delle'
p1657
(dp1658
S'DEF'
p1659
F0.00105
sS'ADP'
p1660
F0.99895
s(lp1661
tp1662
a(S'foreste'
p1663
(dp1664
S'NOUN'
p1665
F1.0
s(lp1666
(g195
I20
tp1667
atp1668
a(S'e'
p1669
(dp1670
S'CONJ'
p1671
F1.0
s(lp1672
(g207
I22
tp1673
atp1674
a(g139
(dp1675
S'CONJ'
p1676
F0.00017
sS'ADP'
p1677
F0.99983
s(lp1678
tp1679
a(S'rivedere'
p1680
(dp1681
S'VERB'
p1682
F1.0
s(lp1683
(g220
I23
tp1684
atp1685
a(g127
(dp1686
g129
F1.0
s(lp1687
(g127
I46
tp1688
atp1689
a(S'se'
p1690
(dp1691
S'PRON'
p1692
F0.003905
sS'CONJ'
p1693
F0.994407
sS'NOUN'
p1694
F0.001689
s(lp1695
(g238
I26
tp1696
atp1697
a(S'necessario'
p1698
(dp1699
S'NOUN'
p1700
F0.006549
sS'ADJ'
p1701
F0.993451
s(lp1702
(g246
I27
tp1703
atp1704
a(g127
(dp1705
g129
F1.0
s(lp1706
(g231
I28
tp1707
atp1708
a(S'le'
p1709
(dp1710
S'PRON'
p1711
F0.000363
sS'DET'
p1712
F0.999637
s(lp1713
tp1714
a(S'normative'
p1715
(dp1716
S'ADJ'
p1717
F0.090974
sS'NOUN'
p1718
F0.909026
s(lp1719
(g259
I25
tp1720
atp1721
a(S'esistenti'
p1722
(dp1723
S'VERB'
p1724
F0.328139
sS'ADJ'
p1725
F0.671861
s(lp1726
(g278
I24
tp1727
atp1728
a(S'per'
p1729
(dp1730
S'CONJ'
p1731
F0.00453
sS'ADP'
p1732
F0.99547
s(lp1733
(g315
I30
tp1734
atp1735
a(S'garantire'
p1736
(dp1737
S'VERB'
p1738
F1.0
s(lp1739
(g332
I31
tp1740
atp1741
a(S'che'
p1742
(dp1743
S'PRON'
p1744
F0.993754
sS'CONJ'
p1745
F0.006047
sS'ADJ'
p1746
F0.000199
s(lp1747
(g341
I32
tp1748
atp1749
a(S'le'
p1750
(dp1751
S'PRON'
p1752
F0.000373
sS'DET'
p1753
F0.999627
s(lp1754
tp1755
a(S'attivit\xc3\xa0'
p1756
(dp1757
S'NOUN'
p1758
F1.0
s(lp1759
(g355
I33
tp1760
atp1761
a(S'del'
p1762
(dp1763
S'DEF'
p1764
F0.001253
sS'ADP'
p1765
F0.998747
s(lp1766
(g362
I35
tp1767
atp1768
a(S'settore'
p1769
(dp1770
S'ADJ'
p1771
F0.0036
sS'NOUN'
p1772
F0.9964
s(lp1773
(g369
I37
tp1774
atp1775
a(S'forestale'
p1776
(dp1777
S'NOUN'
p1778
F0.011667
sS'ADJ'
p1779
F0.988333
s(lp1780
(g377
I36
tp1781
atp1782
a(S'siano'
p1783
(dp1784
S'VERB'
p1785
F1.0
s(lp1786
(g384
I38
tp1787
atp1788
a(S'trasparenti'
p1789
(dp1790
S'NOUN'
p1791
F0.133874
sS'VERB'
p1792
F0.002858
sS'ADJ'
p1793
F0.863268
s(lp1794
(g391
I39
tp1795
atp1796
a(g1669
(dp1797
S'CONJ'
p1798
F1.0
s(lp1799
(g127
I40
tp1800
atp1801
a(g7
(dp1802
S'DET'
p1803
F1.0
s(lp1804
tp1805
a(S'diritti'
p1806
(dp1807
S'ADJ'
p1808
F0.021866
sS'NOUN'
p1809
F0.978134
s(lp1810
(g417
I45
tp1811
atp1812
a(S'della'
p1813
(dp1814
S'DEF'
p1815
F0.001612
sS'ADP'
p1816
F0.998388
s(lp1817
tp1818
a(S'popolazione'
p1819
(dp1820
S'NOUN'
p1821
F1.0
s(lp1822
(g433
I43
tp1823
atp1824
a(S'locale'
p1825
(dp1826
S'NOUN'
p1827
F0.001723
sS'VERB'
p1828
F0.0
sS'ADJ'
p1829
F0.998277
s(lp1830
(g441
I42
tp1831
atp1832
a(S'vengano'
p1833
(dp1834
S'VERB'
p1835
F1.0
s(lp1836
(g484
I54
tp1837
atp1838
a(S'rispettati'
p1839
(dp1840
S'VERB'
p1841
F0.967202
sS'ADJ'
p1842
F0.032797
s(lp1843
tp1844
a(S'senza'
p1845
(dp1846
S'CONJ'
p1847
F0.009535
sS'ADP'
p1848
F0.990465
s(lp1849
(g470
I49
tp1850
atp1851
a(S'ripercussioni'
p1852
(dp1853
S'NOUN'
p1854
F1.0
s(lp1855
(g484
I54
tp1856
atp1857
a(S'negative'
p1858
(dp1859
S'NOUN'
p1860
F0.002219
sS'ADJ'
p1861
F0.997781
s(lp1862
(g492
I52
tp1863
atp1864
a(S"sull'"
p1865
(dp1866
S'ADJ'
p1867
F0.000864
sS'VERB'
p1868
F0.000124
sS'NOUN'
p1869
F0.999013
s(lp1870
tp1871
a(S'ambiente'
p1872
(dp1873
S'NOUN'
p1874
F1.0
s(lp1875
(g500
I53
tp1876
atp1877
a(g129
(dp1878
g129
F1.0
s(lp1879
(g129
I55
tp1880
atp1881
asS'sk'
p1882
(lp1883
(S'preto'
p1884
(dp1885
S'PRON'
p1886
F0.850196
sS'CONJ'
p1887
F0.14013
sg523
F0.009674
s(lp1888
(g26
I1
tp1889
atp1890
a(S'v\xc3\xadtam'
p1891
(dp1892
S'VERB'
p1893
F1.0
s(lp1894
(g14
I2
tp1895
atp1896
a(S'podp\xc3\xadsanie'
p1897
(dp1898
S'NOUN'
p1899
F1.0
s(lp1900
(g42
I4
tp1901
atp1902
a(S'dobrovo\xc4\xbenej'
p1903
(dp1904
S'ADJ'
p1905
F1.0
s(lp1906
(g85
I7
tp1907
atp1908
a(S'dohody'
p1909
(dp1910
S'NOUN'
p1911
F1.0
s(lp1912
(g65
I9
tp1913
atp1914
a(S'o'
p1915
(dp1916
g523
F0.000959
sS'CONJ'
p1917
F4.8e-05
sS'NOUN'
p1918
F1.6e-05
sS'ADP'
p1919
F0.998976
s(lp1920
tp1921
a(S'partnerstve'
p1922
(dp1923
S'NOUN'
p1924
F1.0
s(lp1925
(g77
I8
tp1926
atp1927
a(S's'
p1928
(dp1929
g523
F0.001103
sS'CONJ'
p1930
F8.3e-05
sS'NOUN'
p1931
F1.8e-05
sS'ADP'
p1932
F0.99877
sS'PRT'
p1933
F2.6e-05
s(lp1934
(g93
I10
tp1935
atp1936
a(S'kon\xc5\xbeskou'
p1937
(dp1938
S'NOUN'
p1939
F0.008718
sS'ADJ'
p1940
F0.991282
s(lp1941
(g124
I14
tp1942
atp1943
a(S'republikou'
p1944
(dp1945
S'NOUN'
p1946
F1.0
s(lp1947
(g109
I12
tp1948
atp1949
a(g1928
(dp1950
g523
F0.002775
sS'CONJ'
p1951
F6.4e-05
sS'NOUN'
p1952
F1.4e-05
sS'ADP'
p1953
F0.997126
sS'PRT'
p1954
F2.1e-05
s(lp1955
(g136
I15
tp1956
atp1957
a(S'cie\xc4\xbeom'
p1958
(dp1959
S'NOUN'
p1960
F1.0
s(lp1961
(g157
I17
tp1962
atp1963
a(S'zlep\xc5\xa1i\xc5\xa5'
p1964
(dp1965
S'VERB'
p1966
F1.0
s(lp1967
(g173
I19
tp1968
atp1969
a(S'spr\xc3\xa1vu'
p1970
(dp1971
S'NOUN'
p1972
F1.0
s(lp1973
(g187
I21
tp1974
atp1975
a(S'lesn\xc3\xa9ho'
p1976
(dp1977
S'ADJ'
p1978
F1.0
s(lp1979
tp1980
a(S'hospod\xc3\xa1rstva'
p1981
(dp1982
S'NOUN'
p1983
F1.0
s(lp1984
(g195
I20
tp1985
atp1986
a(g139
(dp1987
g523
F0.0026279999999999997
sS'CONJ'
p1988
F0.996881
sS'NOUN'
p1989
F0.000221
sS'ADP'
p1990
F0.0
sS'PRT'
p1991
F0.000268
s(lp1992
(g207
I22
tp1993
atp1994
a(S'reformova\xc5\xa5'
p1995
(dp1996
S'VERB'
p1997
F1.0
s(lp1998
(g220
I23
tp1999
atp2000
a(S'existuj\xc3\xbace'
p2001
(dp2002
S'VERB'
p2003
F1.0
s(lp2004
(g278
I24
tp2005
atp2006
a(S'pr\xc3\xa1vne'
p2007
(dp2008
S'ADV'
p2009
F5.2e-05
sS'ADJ'
p2010
F0.999948
s(lp2011
tp2012
a(S'predpisy'
p2013
(dp2014
S'NOUN'
p2015
F1.0
s(lp2016
(g259
I25
tp2017
atp2018
a(S'pod\xc4\xbea'
p2019
(dp2020
S'ADP'
p2021
F1.0
s(lp2022
(g238
I26
tp2023
atp2024
a(S'potreby'
p2025
(dp2026
S'NOUN'
p2027
F1.0
s(lp2028
(g246
I27
tp2029
atp2030
a(S'tak'
p2031
(dp2032
S'PRON'
p2033
F0.792284
sS'CONJ'
p2034
F0.031319
sg523
F0.176397
s(lp2035
(g231
I28
tp2036
atp2037
a(g127
(dp2038
g129
F1.0
s(lp2039
tp2040
a(S'aby'
p2041
(dp2042
g523
F6.7e-05
sS'CONJ'
p2043
F0.999933
s(lp2044
(g315
I30
tp2045
atp2046
a(S'sa'
p2047
(dp2048
S'PRT'
p2049
F0.999996
sS'ADP'
p2050
F0.0
sg523
F4e-06
s(lp2051
tp2052
a(S'zabezpe\xc4\x8dilo'
p2053
(dp2054
S'VERB'
p2055
F1.0
s(lp2056
(g332
I31
tp2057
atp2058
a(g127
(dp2059
g129
F1.0
s(lp2060
tp2061
a(S'\xc5\xbee'
p2062
(dp2063
g523
F0.000336
sS'CONJ'
p2064
F0.999664
s(lp2065
(g341
I32
tp2066
atp2067
a(S'\xc4\x8dinnosti'
p2068
(dp2069
S'NOUN'
p2070
F1.0
s(lp2071
(g355
I33
tp2072
atp2073
a(S'v'
p2074
(dp2075
g523
F0.00046899999999999996
sS'ADP'
p2076
F0.999531
s(lp2077
(g717
I34
tp2078
atp2079
a(S'oblasti'
p2080
(dp2081
S'NOUN'
p2082
F1.0
s(lp2083
(g369
I37
tp2084
atp2085
a(S'lesn\xc3\xa9ho'
p2086
(dp2087
S'ADJ'
p2088
F1.0
s(lp2089
tp2090
a(S'hospod\xc3\xa1rstva'
p2091
(dp2092
S'NOUN'
p2093
F1.0
s(lp2094
(g377
I36
tp2095
atp2096
a(S'bud\xc3\xba'
p2097
(dp2098
g523
F0.006872
sS'VERB'
p2099
F0.993128
s(lp2100
(g384
I38
tp2101
atp2102
a(S'transparentn\xc3\xa9'
p2103
(dp2104
S'ADJ'
p2105
F1.0
s(lp2106
(g391
I39
tp2107
atp2108
a(g127
(dp2109
g129
F1.0
s(lp2110
(g127
I40
tp2111
atp2112
a(S'bud\xc3\xba'
p2113
(dp2114
g523
F2e-06
sS'VERB'
p2115
F0.999998
s(lp2116
tp2117
a(S'dodr\xc5\xbeiava\xc5\xa5'
p2118
(dp2119
S'VERB'
p2120
F1.0
s(lp2121
(g402
I41
tp2122
atp2123
a(S'pr\xc3\xa1va'
p2124
(dp2125
S'VERB'
p2126
F0.001766
sS'NOUN'
p2127
F0.9982340000000001
s(lp2128
(g417
I45
tp2129
atp2130
a(S'domorod\xc3\xa9ho'
p2131
(dp2132
S'ADJ'
p2133
F1.0
s(lp2134
(g441
I42
tp2135
atp2136
a(S'obyvate\xc4\xbestva'
p2137
(dp2138
S'NOUN'
p2139
F1.0
s(lp2140
(g433
I43
tp2141
atp2142
a(g139
(dp2143
g523
F0.014051
sS'CONJ'
p2144
F0.985197
sS'NOUN'
p2145
F8.7e-05
sS'ADP'
p2146
F0.0
sS'PRT'
p2147
F0.000664
s(lp2148
(g448
I47
tp2149
atp2150
a(S'nebud\xc3\xba'
p2151
(dp2152
S'VERB'
p2153
F1.0
s(lp2154
(g470
I49
tp2155
atp2156
a(S'prispieva\xc5\xa5'
p2157
(dp2158
S'VERB'
p2159
F1.0
s(lp2160
tp2161
a(S'k'
p2162
(dp2163
g523
F5.6e-05
sS'NOUN'
p2164
F8e-06
sS'ADP'
p2165
F0.999936
s(lp2166
(g805
I50
tp2167
atp2168
a(S'nepriazniv\xc3\xbdm'
p2169
(dp2170
S'ADJ'
p2171
F1.0
s(lp2172
(g492
I52
tp2173
atp2174
a(S'vplyvom'
p2175
(dp2176
S'NOUN'
p2177
F0.999991
sS'ADP'
p2178
F9e-06
s(lp2179
(g484
I54
tp2180
atp2181
a(S'na'
p2182
(dp2183
g523
F6.5e-05
sS'CONJ'
p2184
F2e-05
sS'ADP'
p2185
F0.999912
sS'PRT'
p2186
F4e-06
s(lp2187
(g477
I51
tp2188
atp2189
a(S'\xc5\xbeivotn\xc3\xa9'
p2190
(dp2191
S'ADJ'
p2192
F1.0
s(lp2193
tp2194
a(S'prostredie'
p2195
(dp2196
S'NOUN'
p2197
F1.0
s(lp2198
(g500
I53
tp2199
atp2200
a(g129
(dp2201
g129
F1.0
s(lp2202
(g129
I55
tp2203
atp2204
asS'pl'
p2205
(lp2206
(S'dlatego'
p2207
(dp2208
S'ADV'
p2209
F1.0
s(lp2210
(g26
I1
tp2211
atp2212
a(S'z'
p2213
(dp2214
S'PRT'
p2215
F1e-06
sS'VERB'
p2216
F0.0
sS'NOUN'
p2217
F0.0
sS'ADP'
p2218
F0.999999
sg523
F0.0
s(lp2219
(g14
I2
tp2220
atp2221
a(S'zadowoleniem'
p2222
(dp2223
S'NOUN'
p2224
F1.0
s(lp2225
tp2226
a(S'przyjmuj\xc4\x99'
p2227
(dp2228
S'VERB'
p2229
F1.0
s(lp2230
(g14
I2
tp2231
atp2232
a(S'podpisanie'
p2233
(dp2234
S'VERB'
p2235
F1.0
s(lp2236
(g42
I4
tp2237
atp2238
a(S'dobrowolnej'
p2239
(dp2240
S'ADJ'
p2241
F1.0
s(lp2242
(g85
I7
tp2243
atp2244
a(S'umowy'
p2245
(dp2246
S'NOUN'
p2247
F1.0
s(lp2248
(g65
I9
tp2249
atp2250
a(g1915
(dp2251
g523
F2.8e-05
sS'VERB'
p2252
F0.0
sS'NOUN'
p2253
F0.0
sS'ADP'
p2254
F0.999971
sS'PRT'
p2255
F0.0
s(lp2256
tp2257
a(S'partnerstwie'
p2258
(dp2259
S'NOUN'
p2260
F1.0
s(lp2261
(g77
I8
tp2262
atp2263
a(g2213
(dp2264
S'PRT'
p2265
F6e-06
sS'VERB'
p2266
F2e-06
sS'NOUN'
p2267
F0.0
sS'ADP'
p2268
F0.999989
sg523
F3e-06
s(lp2269
(g93
I10
tp2270
atp2271
a(S'republik\xc4\x85'
p2272
(dp2273
S'NOUN'
p2274
F1.0
s(lp2275
(g109
I12
tp2276
atp2277
a(S'konga'
p2278
(dp2279
S'ADV'
p2280
F0.00041
sS'ADJ'
p2281
F0.017393999999999996
sS'VERB'
p2282
F0.001166
sS'NOUN'
p2283
F0.9810300000000001
s(lp2284
(g124
I14
tp2285
atp2286
a(g127
(dp2287
g523
F0.0
sg129
F1.0
s(lp2288
tp2289
a(S'kt\xc3\xb3ra'
p2290
(dp2291
S'ADJ'
p2292
F1.0
s(lp2293
(g136
I15
tp2294
atp2295
a(S'ma'
p2296
(dp2297
S'VERB'
p2298
F0.999981
sS'NOUN'
p2299
F1.1e-05
sS'ADP'
p2300
F8e-06
s(lp2301
tp2302
a(S'na'
p2303
(dp2304
g523
F3e-06
sS'VERB'
p2305
F0.0
sS'NOUN'
p2306
F3e-06
sS'ADP'
p2307
F0.999991
sS'PRT'
p2308
F2e-06
s(lp2309
(g149
I16
tp2310
atp2311
a(S'celu'
p2312
(dp2313
S'NOUN'
p2314
F1.0
s(lp2315
(g157
I17
tp2316
atp2317
a(S'popraw\xc4\x99'
p2318
(dp2319
S'NOUN'
p2320
F1.0
s(lp2321
(g173
I19
tp2322
atp2323
a(S'gospodarki'
p2324
(dp2325
S'NOUN'
p2326
F1.0
s(lp2327
tp2328
a(S'le\xc5\x9bnej'
p2329
(dp2330
S'ADJ'
p2331
F1.0
s(lp2332
(g195
I20
tp2333
atp2334
a(g127
(dp2335
g523
F0.0
sg129
F1.0
s(lp2336
tp2337
a(g139
(dp2338
S'ADV'
p2339
F0.000355
sS'NOUN'
p2340
F0.001977
sS'ADP'
p2341
F3.699999999999999e-05
sS'PRT'
p2342
F0.004544
sS'VERB'
p2343
F0.0006219999999999999
sg523
F0.003439
sS'CONJ'
p2344
F0.988809
sS'ADJ'
p2345
F0.00021799999999999999
s(lp2346
(g207
I22
tp2347
atp2348
a(S'w'
p2349
(dp2350
S'ADJ'
p2351
F0.0
sg523
F0.0
sS'NOUN'
p2352
F0.0
sS'ADP'
p2353
F1.0
s(lp2354
tp2355
a(S'razie'
p2356
(dp2357
S'NOUN'
p2358
F1.0
s(lp2359
(g238
I26
tp2360
atp2361
a(S'konieczno\xc5\x9bci'
p2362
(dp2363
S'NOUN'
p2364
F1.000001
s(lp2365
(g246
I27
tp2366
atp2367
a(S'-'
p2368
(dp2369
g523
F4e-06
sS'NUM'
p2370
F0.0
sS'NOUN'
p2371
F5.1e-05
sg129
F0.999944
s(lp2372
tp2373
a(S'zreformowanie'
p2374
(dp2375
S'ADV'
p2376
F0.035128
sS'PRT'
p2377
F0.000801
sS'ADJ'
p2378
F0.00014700000000000002
sS'VERB'
p2379
F0.9586029999999999
sS'NOUN'
p2380
F0.005321000000000001
s(lp2381
(g220
I23
tp2382
atp2383
a(S'istniej\xc4\x85cego'
p2384
(dp2385
S'VERB'
p2386
F1.0
s(lp2387
(g278
I24
tp2388
atp2389
a(S'ustawodawstwa'
p2390
(dp2391
S'NOUN'
p2392
F1.0
s(lp2393
(g259
I25
tp2394
atp2395
a(g127
(dp2396
g523
F0.0
sg129
F1.0
s(lp2397
tp2398
a(S'co'
p2399
(dp2400
S'PRT'
p2401
F0.110456
sS'CONJ'
p2402
F0.470051
sS'NOUN'
p2403
F0.41878099999999996
sS'ADP'
p2404
F0.000713
s(lp2405
(g286
I29
tp2406
atp2407
a(S'sprawi'
p2408
(dp2409
S'VERB'
p2410
F1.0
s(lp2411
(g332
I31
tp2412
atp2413
a(g127
(dp2414
g523
F0.0
sg129
F1.0
s(lp2415
tp2416
a(S'\xc5\xbce'
p2417
(dp2418
S'PRT'
p2419
F0.000186
sS'CONJ'
p2420
F0.9998130000000001
s(lp2421
(g341
I32
tp2422
atp2423
a(S'dzia\xc5\x82alno\xc5\x9b\xc4\x87'
p2424
(dp2425
S'NOUN'
p2426
F1.0
s(lp2427
(g355
I33
tp2428
atp2429
a(g2349
(dp2430
S'ADJ'
p2431
F0.0
sg523
F0.0
sS'NOUN'
p2432
F0.0
sS'ADP'
p2433
F0.9999999999999999
s(lp2434
(g717
I34
tp2435
atp2436
a(S'sektorze'
p2437
(dp2438
S'NOUN'
p2439
F1.0
s(lp2440
(g369
I37
tp2441
atp2442
a(S'le\xc5\x9bnictwa'
p2443
(dp2444
S'NOUN'
p2445
F1.0
s(lp2446
(g377
I36
tp2447
atp2448
a(S'stanie'
p2449
(dp2450
S'VERB'
p2451
F0.990013
sS'NOUN'
p2452
F0.009987
s(lp2453
tp2454
a(S'si\xc4\x99'
p2455
(dp2456
S'PRT'
p2457
F1.0
s(lp2458
(g384
I38
tp2459
atp2460
a(S'przejrzysta'
p2461
(dp2462
S'ADJ'
p2463
F1.0
s(lp2464
(g391
I39
tp2465
atp2466
a(g127
(dp2467
g523
F0.0
sg129
F1.0
s(lp2468
(g127
I40
tp2469
atp2470
a(S'b\xc4\x99dzie'
p2471
(dp2472
S'VERB'
p2473
F1.0
s(lp2474
tp2475
a(S'odbywa\xc5\x82a'
p2476
(dp2477
S'VERB'
p2478
F1.0
s(lp2479
(g377
I36
tp2480
atp2481
a(S'si\xc4\x99'
p2482
(dp2483
S'PRT'
p2484
F1.0
s(lp2485
tp2486
a(g2213
(dp2487
S'PRT'
p2488
F0.000624
sS'VERB'
p2489
F3e-06
sS'NOUN'
p2490
F0.0
sS'ADP'
p2491
F0.999374
sg523
F0.0
s(lp2492
tp2493
a(S'poszanowaniem'
p2494
(dp2495
S'VERB'
p2496
F0.937643
sS'NOUN'
p2497
F0.062357
s(lp2498
(g402
I41
tp2499
atp2500
a(S'praw'
p2501
(dp2502
S'NOUN'
p2503
F1.0
s(lp2504
(g417
I45
tp2505
atp2506
a(S'rdzennych'
p2507
(dp2508
S'ADJ'
p2509
F1.0
s(lp2510
tp2511
a(S'mieszka\xc5\x84c\xc3\xb3w'
p2512
(dp2513
S'NOUN'
p2514
F1.0
s(lp2515
(g433
I43
tp2516
atp2517
a(S'kraju'
p2518
(dp2519
S'NOUN'
p2520
F1.0
s(lp2521
(g441
I42
tp2522
atp2523
a(g7
(dp2524
S'PRT'
p2525
F0.005018
sS'CONJ'
p2526
F0.994966
sS'PRON'
p2527
F1e-06
sS'NOUN'
p2528
F8e-06
sg523
F7e-06
s(lp2529
(g448
I47
tp2530
atp2531
a(S'nie'
p2532
(dp2533
S'ADV'
p2534
F1e-05
sS'PRT'
p2535
F0.998739
sS'CONJ'
p2536
F0.001237
sS'NOUN'
p2537
F1e-06
sS'PRON'
p2538
F1.3000000000000001e-05
s(lp2539
(g470
I49
tp2540
atp2541
a(S'b\xc4\x99dzie'
p2542
(dp2543
S'VERB'
p2544
F1.0
s(lp2545
(g477
I51
tp2546
atp2547
a(S'pog\xc5\x82\xc4\x99bia\xc5\x82a'
p2548
(dp2549
S'VERB'
p2550
F1.0
s(lp2551
tp2552
a(S'negatywnego'
p2553
(dp2554
S'ADJ'
p2555
F1.0
s(lp2556
(g492
I52
tp2557
atp2558
a(S'oddzia\xc5\x82ywania'
p2559
(dp2560
S'VERB'
p2561
F0.12149
sS'NOUN'
p2562
F0.87851
s(lp2563
tp2564
a(S'na'
p2565
(dp2566
S'PRT'
p2567
F1.1e-05
sS'VERB'
p2568
F4.1e-05
sS'NOUN'
p2569
F9e-06
sS'ADP'
p2570
F0.999937
sg523
F1e-06
s(lp2571
(g484
I54
tp2572
atp2573
a(S'\xc5\x9brodowisko'
p2574
(dp2575
S'NOUN'
p2576
F1.0
s(lp2577
(g500
I53
tp2578
atp2579
a(g129
(dp2580
g129
F1.0
s(lp2581
(g129
I55
tp2582
atp2583
asS'sl'
p2584
(lp2585
(S'zato'
p2586
(dp2587
S'ADV'
p2588
F0.613414
sS'CONJ'
p2589
F0.386586
s(lp2590
(g26
I1
tp2591
atp2592
a(S'pozdravljam'
p2593
(dp2594
S'VERB'
p2595
F1.0
s(lp2596
(g14
I2
tp2597
atp2598
a(S'podpis'
p2599
(dp2600
S'NOUN'
p2601
F1.0
s(lp2602
(g42
I4
tp2603
atp2604
a(S'prostovoljnega'
p2605
(dp2606
S'ADJ'
p2607
F1.0
s(lp2608
(g85
I7
tp2609
atp2610
a(S'sporazuma'
p2611
(dp2612
S'NOUN'
p2613
F1.0
s(lp2614
(g65
I9
tp2615
atp2616
a(g1915
(dp2617
S'NOUN'
p2618
F3e-06
sS'ADP'
p2619
F0.999997
s(lp2620
tp2621
a(S'partnerstvu'
p2622
(dp2623
S'NOUN'
p2624
F1.0
s(lp2625
(g77
I8
tp2626
atp2627
a(g2213
(dp2628
S'ADP'
p2629
F1.0
s(lp2630
(g93
I10
tp2631
atp2632
a(S'republiko'
p2633
(dp2634
S'NOUN'
p2635
F1.0
s(lp2636
(g109
I12
tp2637
atp2638
a(S'kongo'
p2639
(dp2640
S'ADV'
p2641
F0.035823
sS'ADJ'
p2642
F0.031955000000000004
sS'NOUN'
p2643
F0.93118
sg523
F0.001043
s(lp2644
(g124
I14
tp2645
atp2646
a(g127
(dp2647
g129
F1.0
s(lp2648
tp2649
a(S'katerega'
p2650
(dp2651
S'PRON'
p2652
F1.0
s(lp2653
(g136
I15
tp2654
atp2655
a(S'cilj'
p2656
(dp2657
S'NOUN'
p2658
F1.0
s(lp2659
(g157
I17
tp2660
atp2661
a(S'je'
p2662
(dp2663
S'PRON'
p2664
F0.0202
sS'VERB'
p2665
F0.979096
sg523
F0.000704
s(lp2666
(g166
I18
tp2667
atp2668
a(S'bolj\xc5\xa1e'
p2669
(dp2670
S'ADV'
p2671
F0.083302
sS'ADJ'
p2672
F0.916698
s(lp2673
(g173
I19
tp2674
atp2675
a(S'gospodarjenje'
p2676
(dp2677
S'NOUN'
p2678
F1.0
s(lp2679
tp2680
a(g2213
(dp2681
S'ADP'
p2682
F1.0
s(lp2683
(g195
I20
tp2684
atp2685
a(S'gozdovi'
p2686
(dp2687
S'NOUN'
p2688
F1.0
s(lp2689
(g187
I21
tp2690
atp2691
a(S'in'
p2692
(dp2693
S'ADV'
p2694
F0.000718
sg523
F0.00018
sS'CONJ'
p2695
F0.998872
sS'NOUN'
p2696
F0.00023
s(lp2697
(g207
I22
tp2698
atp2699
a(g127
(dp2700
g129
F1.0
s(lp2701
tp2702
a(S'kjer'
p2703
(dp2704
S'CONJ'
p2705
F1.0
s(lp2706
(g238
I26
tp2707
atp2708
a(S'je'
p2709
(dp2710
S'PRON'
p2711
F0.00154
sS'VERB'
p2712
F0.99846
sg523
F0.0
s(lp2713
tp2714
a(S'treba'
p2715
(dp2716
S'ADV'
p2717
F1.0
s(lp2718
(g246
I27
tp2719
atp2720
a(g127
(dp2721
g129
F1.0
s(lp2722
tp2723
a(S'reforma'
p2724
(dp2725
S'NOUN'
p2726
F1.0
s(lp2727
(g220
I23
tp2728
atp2729
a(S'obstoje\xc4\x8de'
p2730
(dp2731
S'ADJ'
p2732
F1.0000010000000001
s(lp2733
(g278
I24
tp2734
atp2735
a(S'zakonodaje'
p2736
(dp2737
S'NOUN'
p2738
F1.0
s(lp2739
(g259
I25
tp2740
atp2741
a(g127
(dp2742
g129
F1.0
s(lp2743
tp2744
a(S'da'
p2745
(dp2746
S'PRT'
p2747
F5e-06
sS'CONJ'
p2748
F0.99997
sS'VERB'
p2749
F2.4e-05
sg523
F0.0
s(lp2750
tp2751
a(S'se'
p2752
(dp2753
S'PRON'
p2754
F1.0
sg523
F0.0
s(lp2755
(g315
I30
tp2756
atp2757
a(S'zagotovi'
p2758
(dp2759
S'VERB'
p2760
F1.0
s(lp2761
(g332
I31
tp2762
atp2763
a(g127
(dp2764
g129
F1.0
s(lp2765
tp2766
a(S'da'
p2767
(dp2768
S'PRT'
p2769
F9.8e-05
sS'CONJ'
p2770
F0.999887
sS'VERB'
p2771
F1.4e-05
sg523
F0.0
s(lp2772
(g341
I32
tp2773
atp2774
a(S'bodo'
p2775
(dp2776
S'VERB'
p2777
F1.0
s(lp2778
(g231
I28
tp2779
atp2780
a(S'dejavnosti'
p2781
(dp2782
S'NOUN'
p2783
F1.0
s(lp2784
(g355
I33
tp2785
atp2786
a(S'gozdarskega'
p2787
(dp2788
S'ADJ'
p2789
F1.0
s(lp2790
(g377
I36
tp2791
atp2792
a(S'sektorja'
p2793
(dp2794
S'NOUN'
p2795
F1.0
s(lp2796
(g369
I37
tp2797
atp2798
a(S'pregledne'
p2799
(dp2800
S'ADJ'
p2801
F1.0
s(lp2802
(g391
I39
tp2803
atp2804
a(g127
(dp2805
g129
F1.0
s(lp2806
(g127
I40
tp2807
atp2808
a(S'spo\xc5\xa1tljive'
p2809
(dp2810
S'ADJ'
p2811
F1.0
s(lp2812
tp2813
a(S'do'
p2814
(dp2815
g523
F0.000318
sS'ADP'
p2816
F0.999682
s(lp2817
(g402
I41
tp2818
atp2819
a(S'pravic'
p2820
(dp2821
S'NOUN'
p2822
F1.0
s(lp2823
(g417
I45
tp2824
atp2825
a(S'domorodnih'
p2826
(dp2827
S'ADV'
p2828
F0.000117
sS'NOUN'
p2829
F0.002102
sS'VERB'
p2830
F0.000346
sS'ADJ'
p2831
F0.997433
s(lp2832
(g441
I42
tp2833
atp2834
a(S'ljudstev'
p2835
(dp2836
S'NOUN'
p2837
F1.0
s(lp2838
(g433
I43
tp2839
atp2840
a(S'in'
p2841
(dp2842
S'ADV'
p2843
F4.6e-05
sg523
F7e-06
sS'CONJ'
p2844
F0.999941
sS'NOUN'
p2845
F5e-06
s(lp2846
(g448
I47
tp2847
atp2848
a(S'da'
p2849
(dp2850
S'PRT'
p2851
F0.003667
sS'CONJ'
p2852
F0.983551
sS'VERB'
p2853
F0.01275
sg523
F3.2e-05
s(lp2854
(g462
I48
tp2855
atp2856
a(S'ne'
p2857
(dp2858
S'PRT'
p2859
F0.996748
sS'CONJ'
p2860
F0.003236
sg523
F1.7e-05
s(lp2861
(g470
I49
tp2862
atp2863
a(S'bodo'
p2864
(dp2865
S'VERB'
p2866
F1.0
s(lp2867
(g805
I50
tp2868
atp2869
a(S'\xc5\xa1kodljivo'
p2870
(dp2871
S'ADJ'
p2872
F1.0
s(lp2873
(g492
I52
tp2874
atp2875
a(S'vplivale'
p2876
(dp2877
S'VERB'
p2878
F1.0
s(lp2879
(g484
I54
tp2880
atp2881
a(S'na'
p2882
(dp2883
S'ADP'
p2884
F1.0
s(lp2885
(g477
I51
tp2886
atp2887
a(S'okolje'
p2888
(dp2889
S'NOUN'
p2890
F1.0
s(lp2891
(g500
I53
tp2892
atp2893
a(g129
(dp2894
g129
F1.0
s(lp2895
(g129
I55
tp2896
atp2897
asS'es'
p2898
(lp2899
(S'por'
p2900
(dp2901
S'CONJ'
p2902
F1.0
s(lp2903
(g26
I1
tp2904
atp2905
a(S'tanto'
p2906
(dp2907
S'CONJ'
p2908
F1.0
s(lp2909
tp2910
a(g127
(dp2911
g129
F1.0
s(lp2912
(g26
I1
tp2913
atp2914
a(S'acojo'
p2915
(dp2916
S'VERB'
p2917
F1.0
s(lp2918
(g14
I2
tp2919
atp2920
a(S'con'
p2921
(dp2922
S'ADP'
p2923
F1.0
s(lp2924
tp2925
a(S'agrado'
p2926
(dp2927
S'VERB'
p2928
F0.100682
sS'NOUN'
p2929
F0.899318
s(lp2930
(g14
I2
tp2931
atp2932
a(S'la'
p2933
(dp2934
S'PRON'
p2935
F0.000296
sS'DET'
p2936
F0.999656
sS'NOUN'
p2937
F3e-06
sg523
F4.6e-05
s(lp2938
(g35
I3
tp2939
atp2940
a(S'firma'
p2941
(dp2942
S'NOUN'
p2943
F1.0
s(lp2944
(g42
I4
tp2945
atp2946
a(S'del'
p2947
(dp2948
S'ADP'
p2949
F1.0
s(lp2950
tp2951
a(S'acuerdo'
p2952
(dp2953
S'VERB'
p2954
F0.0
sS'NOUN'
p2955
F1.0
s(lp2956
(g65
I9
tp2957
atp2958
a(S'de'
p2959
(dp2960
g523
F2.9e-05
sS'CONJ'
p2961
F0.000449
sS'ADP'
p2962
F0.999522
s(lp2963
(g49
I5
tp2964
atp2965
a(S'asociaci\xc3\xb3n'
p2966
(dp2967
S'NOUN'
p2968
F1.0
s(lp2969
(g77
I8
tp2970
atp2971
a(S'voluntaria'
p2972
(dp2973
S'ADJ'
p2974
F1.0
s(lp2975
(g85
I7
tp2976
atp2977
a(S'con'
p2978
(dp2979
S'ADP'
p2980
F1.0
s(lp2981
(g93
I10
tp2982
atp2983
a(S'la'
p2984
(dp2985
S'NOUN'
p2986
F9e-06
sS'PRON'
p2987
F0.0
sS'DET'
p2988
F0.99999
sg523
F1e-06
s(lp2989
(g102
I11
tp2990
atp2991
a(S'rep\xc3\xbablica'
p2992
(dp2993
S'ADJ'
p2994
F0.182946
sS'NOUN'
p2995
F0.817054
s(lp2996
(g109
I12
tp2997
atp2998
a(S'del'
p2999
(dp3000
S'ADP'
p3001
F1.0
s(lp3002
(g116
I13
tp3003
atp3004
a(S'congo'
p3005
(dp3006
S'NOUN'
p3007
F1.0
s(lp3008
(g124
I14
tp3009
atp3010
a(S'cuyo'
p3011
(dp3012
S'CONJ'
p3013
F1.0
s(lp3014
(g149
I16
tp3015
atp3016
a(S'objetivo'
p3017
(dp3018
S'ADJ'
p3019
F0.115038
sS'NOUN'
p3020
F0.884962
s(lp3021
(g157
I17
tp3022
atp3023
a(S'esmejorar'
p3024
(dp3025
S'VERB'
p3026
F0.999937
sS'NOUN'
p3027
F6.3e-05
s(lp3028
(g195
I20
tp3029
atp3030
a(S'la'
p3031
(dp3032
S'PRON'
p3033
F6e-06
sS'DET'
p3034
F0.999993
sS'NOUN'
p3035
F0.0
sg523
F1e-06
s(lp3036
(g173
I19
tp3037
atp3038
a(S'gobernanza'
p3039
(dp3040
S'VERB'
p3041
F5e-06
sS'NOUN'
p3042
F0.999995
s(lp3043
(g187
I21
tp3044
atp3045
a(S'en'
p3046
(dp3047
g523
F1.8e-05
sS'CONJ'
p3048
F1e-05
sS'ADP'
p3049
F0.999972
s(lp3050
tp3051
a(S'materia'
p3052
(dp3053
S'NOUN'
p3054
F1.0
s(lp3055
tp3056
a(S'forestal'
p3057
(dp3058
S'ADJ'
p3059
F1.0
s(lp3060
(g195
I20
tp3061
atp3062
a(S'y'
p3063
(dp3064
g523
F1.3e-05
sS'CONJ'
p3065
F0.999987
s(lp3066
(g207
I22
tp3067
atp3068
a(S'reformar'
p3069
(dp3070
S'VERB'
p3071
F1.0
s(lp3072
(g220
I23
tp3073
atp3074
a(S'la'
p3075
(dp3076
S'PRON'
p3077
F4e-06
sS'DET'
p3078
F0.999995
sS'NOUN'
p3079
F0.0
sg523
F1e-06
s(lp3080
tp3081
a(S'legislaci\xc3\xb3n'
p3082
(dp3083
S'NOUN'
p3084
F1.0
s(lp3085
(g259
I25
tp3086
atp3087
a(S'vigente'
p3088
(dp3089
S'ADJ'
p3090
F1.0
s(lp3091
(g278
I24
tp3092
atp3093
a(g127
(dp3094
g129
F1.0
s(lp3095
(g127
I46
tp3096
atp3097
a(S'cuando'
p3098
(dp3099
S'CONJ'
p3100
F1.0
s(lp3101
(g238
I26
tp3102
atp3103
a(S'sea'
p3104
(dp3105
S'VERB'
p3106
F1.0
s(lp3107
tp3108
a(S'necesario'
p3109
(dp3110
S'ADJ'
p3111
F1.0
s(lp3112
(g246
I27
tp3113
atp3114
a(g127
(dp3115
g129
F1.0
s(lp3116
(g231
I28
tp3117
atp3118
a(S'de'
p3119
(dp3120
S'CONJ'
p3121
F1.0
s(lp3122
tp3123
a(S'manera'
p3124
(dp3125
S'CONJ'
p3126
F1.0
s(lp3127
(g286
I29
tp3128
atp3129
a(S'que'
p3130
(dp3131
S'CONJ'
p3132
F1.0
s(lp3133
(g315
I30
tp3134
atp3135
a(S'garantice'
p3136
(dp3137
S'VERB'
p3138
F1.0
s(lp3139
(g332
I31
tp3140
atp3141
a(S'que'
p3142
(dp3143
g523
F0.0
sS'CONJ'
p3144
F1.0
s(lp3145
(g341
I32
tp3146
atp3147
a(S'las'
p3148
(dp3149
S'PRON'
p3150
F0.000108
sS'DET'
p3151
F0.999892
s(lp3152
tp3153
a(S'actividades'
p3154
(dp3155
S'NOUN'
p3156
F1.0
s(lp3157
(g355
I33
tp3158
atp3159
a(S'del'
p3160
(dp3161
S'ADP'
p3162
F1.0
s(lp3163
(g362
I35
tp3164
atp3165
a(S'sector'
p3166
(dp3167
S'NOUN'
p3168
F1.0
s(lp3169
(g369
I37
tp3170
atp3171
a(S'forestal'
p3172
(dp3173
S'ADJ'
p3174
F1.0
s(lp3175
(g377
I36
tp3176
atp3177
a(S'son'
p3178
(dp3179
S'VERB'
p3180
F0.99893
sS'NOUN'
p3181
F0.00107
s(lp3182
(g384
I38
tp3183
atp3184
a(S'transparentes'
p3185
(dp3186
S'ADJ'
p3187
F1.0
s(lp3188
(g391
I39
tp3189
atp3190
a(g127
(dp3191
g129
F1.0
s(lp3192
(g127
I40
tp3193
atp3194
a(S'respetan'
p3195
(dp3196
S'VERB'
p3197
F1.0
s(lp3198
(g402
I41
tp3199
atp3200
a(S'los'
p3201
(dp3202
S'PRON'
p3203
F0.0
sS'DET'
p3204
F1.0
s(lp3205
(g441
I42
tp3206
atp3207
a(S'derechos'
p3208
(dp3209
S'NOUN'
p3210
F1.0
s(lp3211
(g417
I45
tp3212
atp3213
a(S'de'
p3214
(dp3215
g523
F0.0
sS'CONJ'
p3216
F1.7e-05
sS'ADP'
p3217
F0.999983
s(lp3218
(g425
I44
tp3219
atp3220
a(S'las'
p3221
(dp3222
S'PRON'
p3223
F0.0
sS'DET'
p3224
F1.0
s(lp3225
tp3226
a(S'poblaciones'
p3227
(dp3228
S'NOUN'
p3229
F1.0
s(lp3230
(g433
I43
tp3231
atp3232
a(S'aut\xc3\xb3ctonas'
p3233
(dp3234
S'ADJ'
p3235
F1.0
s(lp3236
(g441
I42
tp3237
atp3238
a(g3063
(dp3239
g523
F8e-06
sS'CONJ'
p3240
F0.999992
s(lp3241
(g448
I47
tp3242
atp3243
a(S'no'
p3244
(dp3245
S'ADV'
p3246
F0.999999
sg523
F1e-06
s(lp3247
(g470
I49
tp3248
atp3249
a(S'contribuyen'
p3250
(dp3251
S'VERB'
p3252
F1.0
s(lp3253
(g805
I50
tp3254
atp3255
a(g139
(dp3256
g523
F6.3e-05
sS'CONJ'
p3257
F4e-06
sS'ADP'
p3258
F0.999933
s(lp3259
(g477
I51
tp3260
atp3261
a(S'la'
p3262
(dp3263
g523
F0.0
sS'PRON'
p3264
F0.0
sS'DET'
p3265
F0.999999
sS'NOUN'
p3266
F0.0
s(lp3267
tp3268
a(S'degradaci\xc3\xb3n'
p3269
(dp3270
S'NOUN'
p3271
F1.0
s(lp3272
(g492
I52
tp3273
atp3274
a(S'del'
p3275
(dp3276
S'ADP'
p3277
F1.0
s(lp3278
(g500
I53
tp3279
atp3280
a(S'medio'
p3281
(dp3282
S'ADV'
p3283
F0.0
sS'ADJ'
p3284
F0.020219
sS'NOUN'
p3285
F0.97978
s(lp3286
tp3287
a(S'ambiente'
p3288
(dp3289
S'NOUN'
p3290
F0.005972
sS'VERB'
p3291
F0.000223
sS'ADJ'
p3292
F0.993805
s(lp3293
(g500
I53
tp3294
atp3295
a(g129
(dp3296
g129
F1.0
s(lp3297
(g129
I55
tp3298
atp3299
as.