(dp0
S'fr'
p1
(lp2
(S'nous'
p3
(dp4
S'PRON'
p5
F1.0
s(lp6
(S'we'
p7
I0
tp8
atp9
a(S'devons'
p10
(dp11
S'VERB'
p12
F0.999548
sS'NOUN'
p13
F0.000452
s(lp14
(S'should'
p15
I1
tp16
atp17
a(S'par'
p18
(dp19
S'NOUN'
p20
F2.5e-05
sS'ADP'
p21
F0.999975
s(lp22
tp23
a(S'cons\xc3\xa9quent'
p24
(dp25
S'ADJ'
p26
F1.0
s(lp27
(S'therefore'
p28
I2
tp29
atp30
a(S'proc\xc3\xa9der'
p31
(dp32
S'VERB'
p33
F1.0
s(lp34
(S'proceed'
p35
I3
tp36
atp37
a(S'avec'
p38
(dp39
S'ADV'
p40
F0.008466
sS'ADP'
p41
F0.991534
s(lp42
(S'with'
p43
I4
tp44
atp45
a(S'une'
p46
(dp47
S'NOUN'
p48
F0.00148
sS'NUM'
p49
F0.005475
sS'DET'
p50
F0.993045
s(lp51
(S'great'
p52
I5
tp53
atp54
a(S'extr\xc3\xaame'
p55
(dp56
S'NOUN'
p57
F0.017704
sS'ADJ'
p58
F0.982296
s(lp59
tp60
a(S'prudence'
p61
(dp62
S'NOUN'
p63
F1.0
s(lp64
(S'caution'
p65
I6
tp66
atp67
a(S'en'
p68
(dp69
S'PRON'
p70
F0.000406
sS'ADP'
p71
F0.999594
s(lp72
(S'when'
p73
I7
tp74
atp75
a(S'mati\xc3\xa8re'
p76
(dp77
S'NOUN'
p78
F1.0
s(lp79
(S'comes'
p80
I9
tp81
atp82
a(S'de'
p83
(dp84
S'ADP'
p85
F1.0
s(lp86
(S'to'
p87
I10
tp88
atp89
a(S'politique'
p90
(dp91
S'NOUN'
p92
F0.378063
sS'VERB'
p93
F0.000123
sS'ADJ'
p94
F0.621814
s(lp95
(S'policy'
p96
I12
tp97
atp98
a(S'des'
p99
(dp100
S'DET'
p101
F2.2e-05
sS'ADP'
p102
F0.999978
s(lp103
tp104
a(S'visas'
p105
(dp106
S'VERB'
p107
F1e-06
sS'NOUN'
p108
F0.999999
s(lp109
(S'visa'
p110
I11
tp111
atp112
a(S'.'
p113
(dp114
g113
F1.0
s(lp115
(g113
I13
tp116
atp117
asS'en'
p118
(lp119
(g7
(dp120
S'PRON'
p121
F1.0
s(lp122
(g7
I0
tp123
atp124
a(g15
(dp125
S'VERB'
p126
F1.0
s(lp127
(g15
I1
tp128
atp129
a(g28
(dp130
S'ADV'
p131
F1.0
s(lp132
(g28
I2
tp133
atp134
a(g35
(dp135
S'VERB'
p136
F1.0
s(lp137
(g35
I3
tp138
atp139
a(g43
(dp140
S'ADP'
p141
F1.0
s(lp142
(g43
I4
tp143
atp144
a(g52
(dp145
S'ADV'
p146
F0.006248
sS'NOUN'
p147
F0.000462
sS'ADJ'
p148
F0.99329
s(lp149
(g52
I5
tp150
atp151
a(g65
(dp152
S'VERB'
p153
F0.03903
sS'NOUN'
p154
F0.960969
s(lp155
(g65
I6
tp156
atp157
a(g73
(dp158
S'ADV'
p159
F0.999984
sS'ADP'
p160
F1.6e-05
s(lp161
(g73
I7
tp162
atp163
a(S'it'
p164
(dp165
S'PRON'
p166
F1.0
s(lp167
(g164
I8
tp168
atp169
a(g80
(dp170
S'VERB'
p171
F1.0
s(lp172
(g80
I9
tp173
atp174
a(g87
(dp175
S'ADV'
p176
F0.0
sS'PRT'
p177
F0.999999
sS'ADP'
p178
F1e-06
s(lp179
(g87
I10
tp180
atp181
a(g110
(dp182
S'VERB'
p183
F0.76626
sS'NOUN'
p184
F0.23374
s(lp185
(g110
I11
tp186
atp187
a(g96
(dp188
S'NOUN'
p189
F1.0
s(lp190
(g96
I12
tp191
atp192
a(g113
(dp193
g113
F1.0
s(lp194
(g113
I13
tp195
atp196
asS'nl'
p197
(lp198
(S'in'
p199
(dp200
S'ADV'
p201
F0.009341
sS'VERB'
p202
F1e-06
sS'ADP'
p203
F0.990658
s(lp204
(g73
I7
tp205
atp206
a(S'het'
p207
(dp208
S'PRON'
p209
F0.0009350000000000001
sS'DET'
p210
F0.999065
s(lp211
(g164
I8
tp212
atp213
a(S'geval'
p214
(dp215
S'NOUN'
p216
F1.0
s(lp217
(g80
I9
tp218
atp219
a(S'van'
p220
(dp221
S'ADP'
p222
F1.0
s(lp223
tp224
a(S'servi\xc3\xab'
p225
(dp226
S'ADJ'
p227
F0.048858
sS'NOUN'
p228
F0.9511419999999999
s(lp229
(g65
I6
tp230
atp231
a(S'hebben'
p232
(dp233
S'VERB'
p234
F1.0
sS'NOUN'
p235
F0.0
s(lp236
tp237
a(S'we'
p238
(dp239
S'PRON'
p240
F1.0
s(lp241
(g65
I6
tp242
atp243
a(S'namelijk'
p244
(dp245
S'ADV'
p246
F1.0
s(lp247
(g65
I6
tp248
atp249
a(S'gezien'
p250
(dp251
S'VERB'
p252
F0.91255
sS'ADJ'
p253
F0.001317
sS'ADP'
p254
F0.086134
s(lp255
(g43
I4
tp256
atp257
a(S'dat'
p258
(dp259
S'PRON'
p260
F0.17163299999999998
sS'CONJ'
p261
F0.828367
s(lp262
tp263
a(S'er'
p264
(dp265
S'ADV'
p266
F1.0
s(lp267
(g52
I5
tp268
atp269
a(S'ook'
p270
(dp271
S'ADV'
p272
F1.0
s(lp273
tp274
a(S'negatieve'
p275
(dp276
S'NOUN'
p277
F1e-06
sS'ADJ'
p278
F0.999999
s(lp279
tp280
a(S'ontwikkelingen'
p281
(dp282
S'NOUN'
p283
F1.0
s(lp284
(g35
I3
tp285
atp286
a(S'plaats'
p287
(dp288
S'VERB'
p289
F0.001548
sS'NOUN'
p290
F0.998452
s(lp291
tp292
a(S'kunnen'
p293
(dp294
S'VERB'
p295
F0.999993
sS'NOUN'
p296
F7e-06
s(lp297
(g87
I10
tp298
atp299
a(S'vinden'
p300
(dp301
S'VERB'
p302
F0.999809
sS'NOUN'
p303
F0.000192
s(lp304
(g35
I3
tp305
atp306
a(g113
(dp307
g113
F1.0
s(lp308
tp309
a(S'daarom'
p310
(dp311
S'ADV'
p312
F1.0
s(lp313
(g28
I2
tp314
atp315
a(S'moeten'
p316
(dp317
S'VERB'
p318
F0.999997
sS'NOUN'
p319
F3e-06
s(lp320
(g15
I1
tp321
atp322
a(S'we'
p323
(dp324
S'PRON'
p325
F1.0
s(lp326
(g7
I0
tp327
atp328
a(S'een'
p329
(dp330
S'ADJ'
p331
F5e-06
sS'PRON'
p332
F0.000528
sS'NUM'
p333
F1e-06
sS'DET'
p334
F0.999466
s(lp335
tp336
a(S'weloverwogen'
p337
(dp338
S'ADJ'
p339
F1.0
s(lp340
(g65
I6
tp341
atp342
a(S'visumbeleid'
p343
(dp344
S'ADJ'
p345
F0.000222
sS'NOUN'
p346
F0.999778
s(lp347
(g110
I11
tp348
atp349
a(S'voeren'
p350
(dp351
S'VERB'
p352
F0.999898
sS'NOUN'
p353
F0.000101
s(lp354
(g96
I12
tp355
atp356
a(g113
(dp357
g113
F1.0
s(lp358
(g113
I13
tp359
atp360
asS'de'
p361
(lp362
(S'deswegen'
p363
(dp364
S'ADV'
p365
F1.0
s(lp366
(g28
I2
tp367
atp368
a(S'sollten'
p369
(dp370
S'VERB'
p371
F1.0
s(lp372
(g15
I1
tp373
atp374
a(S'wir'
p375
(dp376
S'PRON'
p377
F1.0
s(lp378
(g7
I0
tp379
atp380
a(S'sehr'
p381
(dp382
S'ADV'
p383
F1.0
s(lp384
(g52
I5
tp385
atp386
a(S'sorgsam'
p387
(dp388
S'ADJ'
p389
F1.0
s(lp390
tp391
a(S'mit'
p392
(dp393
S'PRT'
p394
F0.000687
sS'ADP'
p395
F0.999313
s(lp396
(g43
I4
tp397
atp398
a(S'der'
p399
(dp400
S'PRON'
p401
F6.2e-05
sS'DET'
p402
F0.999913
s(lp403
(g96
I12
tp404
atp405
a(S'visapolitik'
p406
(dp407
S'ADJ'
p408
F0.02513
sS'NOUN'
p409
F0.956829
s(lp410
(g110
I11
tp411
atp412
a(S'umgehen'
p413
(dp414
S'VERB'
p415
F1.0
s(lp416
(g65
I6
tp417
atp418
a(g113
(dp419
g113
F1.0
s(lp420
(g113
I13
tp421
atp422
asS'it'
p423
(lp424
(S'dobbiamo'
p425
(dp426
S'VERB'
p427
F0.9999999999999999
s(lp428
(g7
I0
tp429
atp430
a(S'dunque'
p431
(dp432
S'ADV'
p433
F0.999982
sS'NOUN'
p434
F1.8e-05
s(lp435
(g28
I2
tp436
atp437
a(S'muoverci'
p438
(dp439
S'VERB'
p440
F1.0
s(lp441
(g35
I3
tp442
atp443
a(S'con'
p444
(dp445
S'ADP'
p446
F1.0
s(lp447
(g43
I4
tp448
atp449
a(S'grande'
p450
(dp451
S'NOUN'
p452
F0.002605
sS'ADJ'
p453
F0.997395
s(lp454
(g52
I5
tp455
atp456
a(S'cautela'
p457
(dp458
S'VERB'
p459
F0.037132
sS'NOUN'
p460
F0.962868
s(lp461
(g65
I6
tp462
atp463
a(S'in'
p464
(dp465
S'ADP'
p466
F1.0
s(lp467
(g73
I7
tp468
atp469
a(S'materia'
p470
(dp471
S'NOUN'
p472
F1.0
s(lp473
(g80
I9
tp474
atp475
a(S'di'
p476
(dp477
S'CONJ'
p478
F6e-06
sS'ADP'
p479
F0.999994
s(lp480
(g87
I10
tp481
atp482
a(S'politica'
p483
(dp484
S'ADJ'
p485
F0.174174
sS'NOUN'
p486
F0.825826
s(lp487
(g96
I12
tp488
atp489
a(S'dei'
p490
(dp491
S'NOUN'
p492
F8.4e-05
sS'DEF'
p493
F0.001188
sS'ADP'
p494
F0.998728
s(lp495
tp496
a(S'visti'
p497
(dp498
S'VERB'
p499
F0.143256
sS'NOUN'
p500
F0.856743
s(lp501
(g110
I11
tp502
atp503
a(g113
(dp504
g113
F1.0
s(lp505
(g113
I13
tp506
atp507
asS'sk'
p508
(lp509
(S'preto'
p510
(dp511
S'PRON'
p512
F0.851268
sS'CONJ'
p513
F0.143164
sS'X'
p514
F0.005569
s(lp515
(g28
I2
tp516
atp517
a(S'by'
p518
(dp519
S'PRT'
p520
F1.0
sg514
F0.0
s(lp521
tp522
a(S'sme'
p523
(dp524
g514
F0.0
sS'VERB'
p525
F1.0
s(lp526
(g7
I0
tp527
atp528
a(S'mali'
p529
(dp530
S'VERB'
p531
F1.0
s(lp532
(g15
I1
tp533
atp534
a(S'postupova\xc5\xa5'
p535
(dp536
S'VERB'
p537
F1.0
s(lp538
(g35
I3
tp539
atp540
a(S've\xc4\xbemi'
p541
(dp542
S'ADV'
p543
F1.0
s(lp544
(g52
I5
tp545
atp546
a(S'opatrne'
p547
(dp548
S'ADV'
p549
F1.0
s(lp550
(g65
I6
tp551
atp552
a(S','
p553
(dp554
g113
F1.0
s(lp555
(g164
I8
tp556
atp557
a(S'pokia\xc4\xbe'
p558
(dp559
S'PRON'
p560
F0.11046
sS'CONJ'
p561
F0.88954
s(lp562
(g80
I9
tp563
atp564
a(S'ide'
p565
(dp566
S'VERB'
p567
F1.0
s(lp568
tp569
a(S'o'
p570
(dp571
g514
F0.00038
sS'CONJ'
p572
F1.8e-05
sS'NOUN'
p573
F1.7e-05
sS'ADP'
p574
F0.999585
s(lp575
(g80
I9
tp576
atp577
a(S'v\xc3\xadzov\xc3\xba'
p578
(dp579
S'ADJ'
p580
F1.0
s(lp581
(g110
I11
tp582
atp583
a(S'politiku'
p584
(dp585
S'NOUN'
p586
F1.0
s(lp587
(g96
I12
tp588
atp589
a(g113
(dp590
g113
F1.0
s(lp591
(g113
I13
tp592
atp593
asS'pl'
p594
(lp595
(S'musimy'
p596
(dp597
S'VERB'
p598
F1.0
s(lp599
(g7
I0
tp600
atp601
a(S'wi\xc4\x99c'
p602
(dp603
S'PRT'
p604
F0.003669
sS'CONJ'
p605
F0.996331
s(lp606
(g28
I2
tp607
atp608
a(S'dzia\xc5\x82a\xc4\x87'
p609
(dp610
S'VERB'
p611
F1.0
s(lp612
(g35
I3
tp613
atp614
a(S'z'
p615
(dp616
S'PRT'
p617
F2e-06
sS'VERB'
p618
F0.0
sS'NOUN'
p619
F0.0
sS'ADP'
p620
F0.999997
sg514
F0.0
s(lp621
(g43
I4
tp622
atp623
a(S'ogromn\xc4\x85'
p624
(dp625
S'ADJ'
p626
F1.0
s(lp627
(g52
I5
tp628
atp629
a(S'rozwag\xc4\x85'
p630
(dp631
S'NOUN'
p632
F1.0
s(lp633
(g65
I6
tp634
atp635
a(g553
(dp636
g514
F0.0
sg113
F1.0
s(lp637
tp638
a(S'je\xc5\x9bli'
p639
(dp640
S'CONJ'
p641
F1.0
s(lp642
(g73
I7
tp643
atp644
a(S'chodzi'
p645
(dp646
S'VERB'
p647
F1.0
s(lp648
tp649
a(g570
(dp650
g514
F0.000872
sS'VERB'
p651
F1.9e-05
sS'NOUN'
p652
F6e-06
sS'ADP'
p653
F0.999085
sS'PRT'
p654
F1.8e-05
s(lp655
(g80
I9
tp656
atp657
a(S'polityk\xc4\x99'
p658
(dp659
S'NOUN'
p660
F1.0
s(lp661
(g96
I12
tp662
atp663
a(S'wizow\xc4\x85'
p664
(dp665
S'ADJ'
p666
F0.27410599999999996
sS'VERB'
p667
F0.000817
sS'NOUN'
p668
F0.7250329999999999
sS'ADP'
p669
F4.5e-05
s(lp670
(g110
I11
tp671
atp672
a(g113
(dp673
g113
F1.0
s(lp674
(g113
I13
tp675
atp676
asS'sl'
p677
(lp678
(S'zato'
p679
(dp680
S'ADV'
p681
F0.833304
sS'CONJ'
p682
F0.166696
s(lp683
(g28
I2
tp684
atp685
a(S'moramo'
p686
(dp687
S'VERB'
p688
F1.0
s(lp689
(g7
I0
tp690
atp691
a(S'biti'
p692
(dp693
S'VERB'
p694
F0.99934
sS'NOUN'
p695
F0.00066
s(lp696
(g15
I1
tp697
atp698
a(S'pri'
p699
(dp700
S'ADP'
p701
F1.0
s(lp702
(g73
I7
tp703
atp704
a(S'vizumski'
p705
(dp706
S'ADV'
p707
F3.4e-05
sS'NOUN'
p708
F0.04907800000000001
sS'ADJ'
p709
F0.9508869999999999
s(lp710
(g110
I11
tp711
atp712
a(S'politiki'
p713
(dp714
S'NOUN'
p715
F1.0
s(lp716
(g96
I12
tp717
atp718
a(S'zelo'
p719
(dp720
S'ADV'
p721
F1.0
s(lp722
(g52
I5
tp723
atp724
a(S'pazljivi'
p725
(dp726
S'ADJ'
p727
F1.0
s(lp728
(g65
I6
tp729
atp730
a(g113
(dp731
g113
F1.0
s(lp732
(g113
I13
tp733
atp734
asS'es'
p735
(lp736
(S'por'
p737
(dp738
S'CONJ'
p739
F1.0
s(lp740
tp741
a(S'tanto'
p742
(dp743
S'CONJ'
p744
F1.0
s(lp745
(g28
I2
tp746
atp747
a(g553
(dp748
g113
F1.0
s(lp749
(g7
I0
tp750
atp751
a(S'deber\xc3\xadamos'
p752
(dp753
S'VERB'
p754
F1.0
s(lp755
(g15
I1
tp756
atp757
a(S'proceder'
p758
(dp759
S'VERB'
p760
F0.914998
sS'NOUN'
p761
F0.085002
s(lp762
(g35
I3
tp763
atp764
a(S'con'
p765
(dp766
S'ADP'
p767
F1.0
s(lp768
(g43
I4
tp769
atp770
a(S'cautela'
p771
(dp772
S'NOUN'
p773
F1.0
s(lp774
(g65
I6
tp775
atp776
a(S'con'
p777
(dp778
S'ADP'
p779
F1.0
s(lp780
(g73
I7
tp781
atp782
a(S'respecto'
p783
(dp784
S'ADP'
p785
F1.0
s(lp786
(g80
I9
tp787
atp788
a(S'a'
p789
(dp790
S'ADP'
p791
F1.0
s(lp792
(g87
I10
tp793
atp794
a(S'la'
p795
(dp796
S'NOUN'
p797
F5e-06
sS'PRON'
p798
F0.0
sS'DET'
p799
F0.999995
sg514
F1e-06
s(lp800
(g110
I11
tp801
atp802
a(S'pol\xc3\xadtica'
p803
(dp804
S'ADJ'
p805
F0.087041
sS'NOUN'
p806
F0.912959
s(lp807
(g96
I12
tp808
atp809
a(S'de'
p810
(dp811
g514
F1e-06
sS'CONJ'
p812
F0.009904
sS'ADP'
p813
F0.990095
s(lp814
tp815
a(S'visados'
p816
(dp817
S'VERB'
p818
F1.0
s(lp819
(g110
I11
tp820
atp821
a(g113
(dp822
g113
F1.0
s(lp823
(g113
I13
tp824
atp825
as.