(dp0
S'fr'
p1
(lp2
(S'merci'
p3
(dp4
S'NOUN'
p5
F1.0
s(lp6
(S'thank'
p7
I1
tp8
atp9
a(S','
p10
(dp11
S'.'
p12
F1.0
s(lp13
(g10
I3
tp14
atp15
a(S'madame'
p16
(dp17
S'NOUN'
p18
F1.0
s(lp19
(S'mrs'
p20
I4
tp21
atp22
a(S'harms'
p23
(dp24
S'VERB'
p25
F0.008848
sS'NOUN'
p26
F0.991152
s(lp27
(S'harms'
p28
I5
tp29
atp30
a(g12
(dp31
g12
F1.0
s(lp32
(g12
I6
tp33
atp34
asS'en'
p35
(lp36
(S'-'
p37
(dp38
g12
F1.0
s(lp39
(g37
I0
tp40
atp41
a(g7
(dp42
S'VERB'
p43
F1.0
s(lp44
(g7
I1
tp45
atp46
a(S'you'
p47
(dp48
S'PRON'
p49
F1.0
s(lp50
(g47
I2
tp51
atp52
a(g10
(dp53
g12
F1.0
s(lp54
(g10
I3
tp55
atp56
a(g20
(dp57
S'ADV'
p58
F0.009728
sS'NOUN'
p59
F0.323013
sS'VERB'
p60
F0.15110799999999996
sS'ADJ'
p61
F0.516151
s(lp62
(g20
I4
tp63
atp64
a(g28
(dp65
S'VERB'
p66
F0.067968
sS'NOUN'
p67
F0.932032
s(lp68
(g28
I5
tp69
atp70
a(g12
(dp71
g12
F1.0
s(lp72
(g12
I6
tp73
atp74
asS'nl'
p75
(lp76
(g37
(dp77
g12
F1.0
s(lp78
(g37
I0
tp79
atp80
a(S'mevrouw'
p81
(dp82
S'NOUN'
p83
F1.0
s(lp84
(g20
I4
tp85
atp86
a(S'harms'
p87
(dp88
S'ADJ'
p89
F0.199477
sS'NOUN'
p90
F0.8005229999999999
s(lp91
(g28
I5
tp92
atp93
a(g10
(dp94
g12
F1.0
s(lp95
(g10
I3
tp96
atp97
a(S'dank'
p98
(dp99
S'VERB'
p100
F0.961064
sS'NOUN'
p101
F0.038936
s(lp102
(g7
I1
tp103
atp104
a(S'u'
p105
(dp106
S'PRON'
p107
F0.9998790000000001
sS'NOUN'
p108
F0.00011999999999999999
s(lp109
tp110
a(S'wel'
p111
(dp112
S'ADV'
p113
F0.99984
sS'X'
p114
F0.0
sS'VERB'
p115
F9.3e-05
sS'NOUN'
p116
F6.7e-05
s(lp117
(g47
I2
tp118
atp119
a(g12
(dp120
g12
F1.0
s(lp121
(g12
I6
tp122
atp123
asS'de'
p124
(lp125
(g37
(dp126
g12
F1.0
s(lp127
(g37
I0
tp128
atp129
a(S'vielen'
p130
(dp131
S'PRON'
p132
F1.0
s(lp133
tp134
a(S'dank'
p135
(dp136
S'PRT'
p137
F0.826271
sS'VERB'
p138
F0.173618
s(lp139
(g7
I1
tp140
atp141
a(g10
(dp142
g12
F1.0
s(lp143
(g10
I3
tp144
atp145
a(S'frau'
p146
(dp147
S'ADJ'
p148
F0.970057
s(lp149
(g20
I4
tp150
atp151
a(S'kollegin'
p152
(dp153
S'VERB'
p154
F0.004722
sS'NOUN'
p155
F0.992895
s(lp156
(g28
I5
tp157
atp158
a(S'!'
p159
(dp160
g12
F1.0
s(lp161
(g12
I6
tp162
atp163
asS'it'
p164
(lp165
(g12
(dp166
g12
F1.0
s(lp167
tp168
a(g37
(dp169
g114
F2.1e-05
sg12
F0.999979
s(lp170
(g37
I0
tp171
atp172
a(S'grazie'
p173
(dp174
S'ADV'
p175
F0.273063
sg114
F1.5e-05
sS'NOUN'
p176
F0.726922
s(lp177
(g7
I1
tp178
atp179
a(g10
(dp180
g12
F1.0
s(lp181
(g10
I3
tp182
atp183
a(S'onorevole'
p184
(dp185
S'NOUN'
p186
F0.053858
sS'ADJ'
p187
F0.946142
s(lp188
(g20
I4
tp189
atp190
a(S'harms'
p191
(dp192
S'ADJ'
p193
F0.022624
sS'NOUN'
p194
F0.977376
s(lp195
(g28
I5
tp196
atp197
a(g12
(dp198
g12
F1.0
s(lp199
(g12
I6
tp200
atp201
asS'sk'
p202
(lp203
(S'\xc4\x8eakujem'
p204
(dp205
S'VERB'
p206
F0.982145
sS'NOUN'
p207
F0.017855000000000003
s(lp208
(g7
I1
tp209
atp210
a(g10
(dp211
g12
F1.0
s(lp212
(g10
I3
tp213
atp214
a(S'pani'
p215
(dp216
S'NOUN'
p217
F1.0
s(lp218
(g20
I4
tp219
atp220
a(S'harmsov\xc3\xa1'
p221
(dp222
S'NOUN'
p223
F0.17423
sS'ADJ'
p224
F0.82577
s(lp225
(g28
I5
tp226
atp227
a(g12
(dp228
g12
F1.0
s(lp229
(g12
I6
tp230
atp231
asS'pl'
p232
(lp233
(g37
(dp234
g114
F0.000261
sS'NUM'
p235
F0.0
sS'NOUN'
p236
F0.00018600000000000002
sg12
F0.999554
s(lp237
(g37
I0
tp238
atp239
a(S'pani'
p240
(dp241
S'NOUN'
p242
F1.000001
s(lp243
(g20
I4
tp244
atp245
a(S'harms'
p246
(dp247
S'ADV'
p248
F0.002914
sS'ADJ'
p249
F0.009995
sS'VERB'
p250
F0.008975999999999998
sS'NOUN'
p251
F0.978027
sg114
F8.8e-05
s(lp252
tp253
a(g159
(dp254
g12
F1.0
s(lp255
(g28
I5
tp256
atp257
a(S'dzi\xc4\x99kuj\xc4\x99'
p258
(dp259
S'VERB'
p260
F1.0
s(lp261
(g7
I1
tp262
atp263
a(S'bardzo'
p264
(dp265
S'ADV'
p266
F1.0
s(lp267
(g47
I2
tp268
atp269
a(g12
(dp270
g12
F1.0
s(lp271
(g12
I6
tp272
atp273
asS'sl'
p274
(lp275
(g37
(dp276
g12
F1.0
s(lp277
(g37
I0
tp278
atp279
a(S'hvala'
p280
(dp281
S'NOUN'
p282
F1.0
s(lp283
(g7
I1
tp284
atp285
a(g10
(dp286
g12
F1.0
s(lp287
(g10
I3
tp288
atp289
a(S'gospa'
p290
(dp291
S'NOUN'
p292
F1.0
s(lp293
(g20
I4
tp294
atp295
a(S'harmsova'
p296
(dp297
S'ADV'
p298
F0.000171
sS'ADJ'
p299
F0.10590600000000003
sS'VERB'
p300
F0.001964
sS'NOUN'
p301
F0.8919440000000001
sS'PRON'
p302
F1.4e-05
s(lp303
(g28
I5
tp304
atp305
a(g12
(dp306
g12
F1.0
s(lp307
(g12
I6
tp308
atp309
asS'es'
p310
(lp311
(g37
(dp312
g12
F1.0
s(lp313
(g37
I0
tp314
atp315
a(S'gracias'
p316
(dp317
S'NOUN'
p318
F1.0
s(lp319
(g7
I1
tp320
atp321
a(g10
(dp322
g12
F1.0
s(lp323
(g10
I3
tp324
atp325
a(S'se\xc3\xb1ora'
p326
(dp327
S'NOUN'
p328
F1.0
s(lp329
(g20
I4
tp330
atp331
a(S'harms'
p332
(dp333
S'NOUN'
p334
F0.156883
sS'VERB'
p335
F0.075423
sS'ADJ'
p336
F0.767694
s(lp337
(g28
I5
tp338
atp339
a(g12
(dp340
g12
F1.0
s(lp341
(g12
I6
tp342
atp343
as.