(dp0
S'fr'
p1
(lp2
(S'les'
p3
(dp4
S'PRON'
p5
F0.000594
sS'DET'
p6
F0.999384
sS'ADP'
p7
F2.3e-05
s(lp8
(S'chemicals'
p9
I0
tp10
atp11
a(S'produits'
p12
(dp13
S'VERB'
p14
F0.000272
sS'NOUN'
p15
F0.999728
s(lp16
tp17
a(S'chimiques'
p18
(dp19
S'VERB'
p20
F0.000552
sS'ADJ'
p21
F0.999448
s(lp22
(g9
I0
tp23
atp24
a(S'sont'
p25
(dp26
S'VERB'
p27
F1.0
s(lp28
(S'are'
p29
I1
tp30
atp31
a(S'fabriqu\xc3\xa9s'
p32
(dp33
S'VERB'
p34
F1.0
s(lp35
(S'manufactured'
p36
I2
tp37
atp38
a(S'et'
p39
(dp40
S'CONJ'
p41
F1.0
s(lp42
(S'and'
p43
I3
tp44
atp45
a(S'commercialis\xc3\xa9s'
p46
(dp47
S'VERB'
p48
F1.0
s(lp49
(S'traded'
p50
I4
tp51
atp52
a(S'dans'
p53
(dp54
S'NOUN'
p55
F6e-06
sS'ADP'
p56
F0.999994
s(lp57
(S'on'
p58
I5
tp59
atp60
a(S'le'
p61
(dp62
S'PRON'
p63
F0.000235
sS'DET'
p64
F0.999765
s(lp65
(S'a'
p66
I6
tp67
atp68
a(S'monde'
p69
(dp70
S'ADJ'
p71
F0.000485
sS'VERB'
p72
F0.000183
sS'NOUN'
p73
F0.999332
s(lp74
tp75
a(S'entier'
p76
(dp77
S'ADJ'
p78
F1.0
s(lp79
(S'global'
p80
I7
tp81
atp82
a(S','
p83
(dp84
S'.'
p85
F1.0
s(lp86
tp87
a(S'et'
p88
(dp89
S'CONJ'
p90
F1.0
s(lp91
(S'and'
p92
I9
tp93
atp94
a(S'les'
p95
(dp96
S'PRON'
p97
F0.016432
sS'DET'
p98
F0.983555
sS'ADP'
p99
F1.3e-05
s(lp100
(S'their'
p101
I10
tp102
atp103
a(S'risques'
p104
(dp105
S'VERB'
p106
F0.016087
sS'NOUN'
p107
F0.983912
s(lp108
(S'hazards'
p109
I11
tp110
atp111
a(S"qu'"
p112
(dp113
S'NOUN'
p114
F0.025272
sS'VERB'
p115
F0.28296
sS'ADJ'
p116
F0.691767
s(lp117
(S'that'
p118
I24
tp119
atp120
a(S'ils'
p121
(dp122
S'PRON'
p123
F1.0
s(lp124
tp125
a(S'pr\xc3\xa9sentent'
p126
(dp127
S'VERB'
p128
F1.0
s(lp129
(g109
I11
tp130
atp131
a(S'restent'
p132
(dp133
S'VERB'
p134
F1.0
s(lp135
(S'remain'
p136
I12
tp137
atp138
a(S'les'
p139
(dp140
S'PRON'
p141
F0.000358
sS'DET'
p142
F0.999576
sS'ADP'
p143
F6.6e-05
s(lp144
(S'the'
p145
I13
tp146
atp147
a(S'm\xc3\xaames'
p148
(dp149
S'ADJ'
p150
F1.0
s(lp151
(S'same'
p152
I14
tp153
atp154
a(S'quel'
p155
(dp156
S'PRON'
p157
F1.0
s(lp158
(S'wherever'
p159
I15
tp160
atp161
a(S'que'
p162
(dp163
S'ADV'
p164
F0.097518
sS'PRON'
p165
F0.006334
sS'CONJ'
p166
F0.896147
s(lp167
(g159
I15
tp168
atp169
a(S'soit'
p170
(dp171
S'ADV'
p172
F0.057746
sS'CONJ'
p173
F0.426146
sS'VERB'
p174
F0.516109
s(lp175
(g159
I15
tp176
atp177
a(S"l'"
p178
(dp179
S'NOUN'
p180
F0.068977
sS'VERB'
p181
F0.8362929999999998
sS'ADJ'
p182
F0.09473
s(lp183
tp184
a(S'endroit'
p185
(dp186
S'NOUN'
p187
F1.0
s(lp188
tp189
a(S'o\xc3\xb9'
p190
(dp191
S'ADV'
p192
F0.000566
sS'PRON'
p193
F0.999434
s(lp194
(g159
I15
tp195
atp196
a(S'ils'
p197
(dp198
S'PRON'
p199
F1.0
s(lp200
(S'they'
p201
I16
tp202
atp203
a(S'sont'
p204
(dp205
S'VERB'
p206
F1.0
s(lp207
(S'are'
p208
I17
tp209
atp210
a(S'utilis\xc3\xa9s'
p211
(dp212
S'VERB'
p213
F1.0
s(lp214
(S'used'
p215
I18
tp216
atp217
a(g85
(dp218
g85
F1.0
s(lp219
(S';'
p220
I19
tp221
atp222
a(S'il'
p223
(dp224
S'PRON'
p225
F1.0
s(lp226
(S'it'
p227
I21
tp228
atp229
a(S'est'
p230
(dp231
S'VERB'
p232
F0.999997
sS'NOUN'
p233
F3e-06
s(lp234
(S'is'
p235
I22
tp236
atp237
a(S'donc'
p238
(dp239
S'ADV'
p240
F1.0
s(lp241
(S'be'
p242
I32
tp243
atp244
a(S'logique'
p245
(dp246
S'NOUN'
p247
F0.121033
sS'ADJ'
p248
F0.878967
s(lp249
tp250
a(S"d'"
p251
(dp252
S'ADJ'
p253
F0.059181
sS'VERB'
p254
F0.411704
sS'NOUN'
p255
F0.529116
s(lp256
(S'suitably'
p257
I33
tp258
atp259
a(S'harmoniser'
p260
(dp261
S'VERB'
p262
F1.0
s(lp263
(S'harmonised'
p264
I34
tp265
atp266
a(S'la'
p267
(dp268
S'PRON'
p269
F6e-06
sS'DET'
p270
F0.999994
sS'NOUN'
p271
F0.0
s(lp272
(S'the'
p273
I25
tp274
atp275
a(S'classification'
p276
(dp277
S'NOUN'
p278
F1.0
s(lp279
(S'classification'
p280
I26
tp281
atp282
a(S'et'
p283
(dp284
S'CONJ'
p285
F1.0
s(lp286
(S'and'
p287
I27
tp288
atp289
a(S"l'"
p290
(dp291
S'NOUN'
p292
F0.050387
sS'VERB'
p293
F0.8915730000000001
sS'ADJ'
p294
F0.05804
s(lp295
tp296
a(S'\xc3\xa9tiquetage'
p297
(dp298
S'NOUN'
p299
F1.0
s(lp300
(S'labelling'
p301
I28
tp302
atp303
a(S'des'
p304
(dp305
S'DET'
p306
F2.1e-05
sS'ADP'
p307
F0.999979
s(lp308
(S'of'
p309
I29
tp310
atp311
a(S'substances'
p312
(dp313
S'NOUN'
p314
F1.0
s(lp315
(S'substances'
p316
I31
tp317
atp318
a(S'dangereuses'
p319
(dp320
S'ADJ'
p321
F1.0
s(lp322
(S'hazardous'
p323
I30
tp324
atp325
a(g85
(dp326
g85
F1.0
s(lp327
(g85
I35
tp328
atp329
asS'en'
p330
(lp331
(g9
(dp332
S'NOUN'
p333
F1.0
s(lp334
(g9
I0
tp335
atp336
a(g29
(dp337
S'VERB'
p338
F1.0
sS'NOUN'
p339
F0.0
s(lp340
(g29
I1
tp341
atp342
a(g36
(dp343
S'VERB'
p344
F0.9905889999999999
sS'ADJ'
p345
F0.009411
s(lp346
(g36
I2
tp347
atp348
a(g43
(dp349
S'CONJ'
p350
F0.999996
sS'NOUN'
p351
F4e-06
s(lp352
(g43
I3
tp353
atp354
a(g50
(dp355
S'VERB'
p356
F0.98727
sS'ADJ'
p357
F0.012729
s(lp358
(g50
I4
tp359
atp360
a(g58
(dp361
S'ADV'
p362
F0.001051
sS'PRT'
p363
F0.007451
sS'ADJ'
p364
F0.0
sS'NOUN'
p365
F0.0
sS'ADP'
p366
F0.991499
s(lp367
(g58
I5
tp368
atp369
a(g66
(dp370
S'NOUN'
p371
F0.0
sS'DET'
p372
F1.0
s(lp373
(g66
I6
tp374
atp375
a(g80
(dp376
S'ADJ'
p377
F1.0
s(lp378
(g80
I7
tp379
atp380
a(S'basis'
p381
(dp382
S'NOUN'
p383
F1.0
s(lp384
(g381
I8
tp385
atp386
a(g92
(dp387
S'CONJ'
p388
F1.0
sS'NOUN'
p389
F0.0
s(lp390
(g92
I9
tp391
atp392
a(g101
(dp393
S'PRON'
p394
F1.0
s(lp395
(g101
I10
tp396
atp397
a(g109
(dp398
S'VERB'
p399
F5e-06
sS'NOUN'
p400
F0.999995
s(lp401
(g109
I11
tp402
atp403
a(g136
(dp404
S'VERB'
p405
F1.0
s(lp406
(g136
I12
tp407
atp408
a(g145
(dp409
S'NOUN'
p410
F0.0
sS'DET'
p411
F1.0
s(lp412
(g145
I13
tp413
atp414
a(g152
(dp415
S'ADV'
p416
F0.000988
sS'NOUN'
p417
F0.001212
sS'ADJ'
p418
F0.997799
s(lp419
(g152
I14
tp420
atp421
a(g159
(dp422
S'ADV'
p423
F0.997792
sS'ADP'
p424
F0.002207
s(lp425
(g159
I15
tp426
atp427
a(g201
(dp428
S'PRON'
p429
F1.0
s(lp430
(g201
I16
tp431
atp432
a(g208
(dp433
S'VERB'
p434
F1.0
sS'NOUN'
p435
F0.0
s(lp436
(g208
I17
tp437
atp438
a(g215
(dp439
S'VERB'
p440
F0.995509
sS'ADJ'
p441
F0.004491
s(lp442
(g215
I18
tp443
atp444
a(g220
(dp445
g85
F1.0
s(lp446
(g220
I19
tp447
atp448
a(S'accordingly'
p449
(dp450
S'ADV'
p451
F1.0
s(lp452
(g449
I20
tp453
atp454
a(g227
(dp455
S'PRON'
p456
F1.0
s(lp457
(g227
I21
tp458
atp459
a(g235
(dp460
S'VERB'
p461
F1.0
s(lp462
(g235
I22
tp463
atp464
a(S'appropriate'
p465
(dp466
S'VERB'
p467
F0.001394
sS'ADJ'
p468
F0.998606
s(lp469
(g465
I23
tp470
atp471
a(g118
(dp472
S'ADV'
p473
F0.000298
sS'DET'
p474
F8.4e-05
sS'ADP'
p475
F0.999618
s(lp476
(g118
I24
tp477
atp478
a(g273
(dp479
S'NOUN'
p480
F3e-06
sS'DET'
p481
F0.999997
s(lp482
(g273
I25
tp483
atp484
a(g280
(dp485
S'NOUN'
p486
F1.0
s(lp487
(g280
I26
tp488
atp489
a(g287
(dp490
S'CONJ'
p491
F1.0
sS'NOUN'
p492
F0.0
s(lp493
(g287
I27
tp494
atp495
a(g301
(dp496
S'VERB'
p497
F1.0
s(lp498
(g301
I28
tp499
atp500
a(g309
(dp501
S'ADP'
p502
F1.0
s(lp503
(g309
I29
tp504
atp505
a(g323
(dp506
S'ADJ'
p507
F1.0
s(lp508
(g323
I30
tp509
atp510
a(g316
(dp511
S'NOUN'
p512
F1.0
s(lp513
(g316
I31
tp514
atp515
a(g242
(dp516
S'VERB'
p517
F1.0
s(lp518
(g242
I32
tp519
atp520
a(g257
(dp521
S'ADV'
p522
F1.0
s(lp523
(g257
I33
tp524
atp525
a(g264
(dp526
S'VERB'
p527
F1.0
s(lp528
(g264
I34
tp529
atp530
a(g85
(dp531
g85
F1.0
s(lp532
(g85
I35
tp533
atp534
asS'nl'
p535
(lp536
(S'chemicali\xc3\xabn'
p537
(dp538
S'NOUN'
p539
F1.0
s(lp540
(g9
I0
tp541
atp542
a(S'worden'
p543
(dp544
S'VERB'
p545
F0.999996
sS'NOUN'
p546
F3e-06
s(lp547
(g29
I1
tp548
atp549
a(S'op'
p550
(dp551
S'ADV'
p552
F0.016026
sS'ADJ'
p553
F0.0
sS'ADP'
p554
F0.983974
s(lp555
(g58
I5
tp556
atp557
a(S'de'
p558
(dp559
S'DET'
p560
F1.0
s(lp561
(g66
I6
tp562
atp563
a(S'gehele'
p564
(dp565
S'NOUN'
p566
F5.5e-05
sS'ADJ'
p567
F0.999945
s(lp568
tp569
a(S'wereld'
p570
(dp571
S'NOUN'
p572
F1.0
s(lp573
(g80
I7
tp574
atp575
a(S'geproduceerd'
p576
(dp577
S'VERB'
p578
F1.0
s(lp579
(g36
I2
tp580
atp581
a(S'en'
p582
(dp583
S'CONJ'
p584
F1.0
s(lp585
(g43
I3
tp586
atp587
a(S'verhandeld'
p588
(dp589
S'VERB'
p590
F1.0
s(lp591
(g50
I4
tp592
atp593
a(g83
(dp594
g85
F1.0
s(lp595
tp596
a(S'en'
p597
(dp598
S'CONJ'
p599
F1.0
s(lp600
(g92
I9
tp601
atp602
a(S'hun'
p603
(dp604
S'PRON'
p605
F1.0
s(lp606
(g101
I10
tp607
atp608
a(S'gevaren'
p609
(dp610
S'VERB'
p611
F0.365807
sS'NOUN'
p612
F0.634193
s(lp613
(g109
I11
tp614
atp615
a(S'blijven'
p616
(dp617
S'VERB'
p618
F0.9996790000000001
sS'NOUN'
p619
F0.000321
s(lp620
(g136
I12
tp621
atp622
a(S'waar'
p623
(dp624
S'ADV'
p625
F1.0
sS'ADJ'
p626
F0.0
sS'NOUN'
p627
F0.0
s(lp628
(g159
I15
tp629
atp630
a(S'ze'
p631
(dp632
S'PRON'
p633
F1.0
s(lp634
(g201
I16
tp635
atp636
a(S'ook'
p637
(dp638
S'ADV'
p639
F1.0
s(lp640
tp641
a(S'worden'
p642
(dp643
S'VERB'
p644
F1.0
sS'NOUN'
p645
F0.0
s(lp646
(g208
I17
tp647
atp648
a(S'gebruikt'
p649
(dp650
S'VERB'
p651
F1.0
s(lp652
(g215
I18
tp653
atp654
a(S'dezelfde'
p655
(dp656
S'PRON'
p657
F1.0
s(lp658
(g152
I14
tp659
atp660
a(g220
(dp661
g85
F1.0
s(lp662
(g220
I19
tp663
atp664
a(S'dus'
p665
(dp666
S'ADV'
p667
F0.97168
sS'CONJ'
p668
F0.02832
s(lp669
tp670
a(S'is'
p671
(dp672
S'VERB'
p673
F1.0
s(lp674
(g235
I22
tp675
atp676
a(S'het'
p677
(dp678
S'PRON'
p679
F0.192971
sS'DET'
p680
F0.807028
s(lp681
(g227
I21
tp682
atp683
a(S'adequaat'
p684
(dp685
S'ADJ'
p686
F1.0
s(lp687
(g465
I23
tp688
atp689
a(S'dat'
p690
(dp691
S'PRON'
p692
F0.000525
sS'CONJ'
p693
F0.999475
s(lp694
(g118
I24
tp695
atp696
a(S'de'
p697
(dp698
S'DET'
p699
F1.0
s(lp700
(g273
I25
tp701
atp702
a(S'indeling'
p703
(dp704
S'NOUN'
p705
F1.0
s(lp706
(g280
I26
tp707
atp708
a(S'en'
p709
(dp710
S'CONJ'
p711
F1.0
s(lp712
(g287
I27
tp713
atp714
a(S'etikettering'
p715
(dp716
S'NOUN'
p717
F1.0
s(lp718
(g301
I28
tp719
atp720
a(S'van'
p721
(dp722
S'ADP'
p723
F1.0
s(lp724
(g309
I29
tp725
atp726
a(S'gevaarlijke'
p727
(dp728
S'NOUN'
p729
F0.003276
sS'ADJ'
p730
F0.996724
s(lp731
(g323
I30
tp732
atp733
a(S'stoffen'
p734
(dp735
S'ADJ'
p736
F7e-06
sS'VERB'
p737
F0.009141999999999999
sS'NOUN'
p738
F0.9908520000000001
s(lp739
(g316
I31
tp740
atp741
a(S'dienovereenkomstig'
p742
(dp743
S'ADV'
p744
F1.0
s(lp745
(g449
I20
tp746
atp747
a(S'wordt'
p748
(dp749
S'VERB'
p750
F1.0
s(lp751
(g242
I32
tp752
atp753
a(S'geharmoniseerd'
p754
(dp755
S'VERB'
p756
F1.0
s(lp757
(g264
I34
tp758
atp759
a(g85
(dp760
g85
F1.0
s(lp761
(g85
I35
tp762
atp763
asS'de'
p764
(lp765
(S'chemikalien'
p766
(dp767
S'NOUN'
p768
F0.35272
sS'ADJ'
p769
F0.395097
s(lp770
(g9
I0
tp771
atp772
a(S'werden'
p773
(dp774
S'VERB'
p775
F0.999791
s(lp776
(g29
I1
tp777
atp778
a(S'weltweit'
p779
(dp780
S'ADJ'
p781
F1.0
s(lp782
(g80
I7
tp783
atp784
a(S'hergestellt'
p785
(dp786
S'VERB'
p787
F0.981122
sS'ADJ'
p788
F0.018878
s(lp789
(g36
I2
tp790
atp791
a(S'und'
p792
(dp793
S'CONJ'
p794
F1.0
s(lp795
(g43
I3
tp796
atp797
a(S'gehandelt'
p798
(dp799
S'VERB'
p800
F1.0
s(lp801
(g50
I4
tp802
atp803
a(g83
(dp804
g85
F1.0
s(lp805
tp806
a(S'und'
p807
(dp808
S'CONJ'
p809
F1.0
s(lp810
(g92
I9
tp811
atp812
a(S'ihre'
p813
(dp814
S'PRON'
p815
F1.0
s(lp816
(g101
I10
tp817
atp818
a(S'gefahren'
p819
(dp820
S'VERB'
p821
F1.0
s(lp822
(g109
I11
tp823
atp824
a(S'bleiben'
p825
(dp826
S'VERB'
p827
F1.0
s(lp828
(g136
I12
tp829
atp830
a(S'dieselben'
p831
(dp832
S'PRON'
p833
F1.0
s(lp834
(g152
I14
tp835
atp836
a(g83
(dp837
g85
F1.0
s(lp838
tp839
a(S'wo'
p840
(dp841
S'PRON'
p842
F1.0
s(lp843
(g159
I15
tp844
atp845
a(S'auch'
p846
(dp847
S'ADV'
p848
F1.0
s(lp849
tp850
a(S'immer'
p851
(dp852
S'ADV'
p853
F1.0
s(lp854
(g159
I15
tp855
atp856
a(S'sie'
p857
(dp858
S'PRON'
p859
F1.0
s(lp860
(g201
I16
tp861
atp862
a(S'benutzt'
p863
(dp864
S'VERB'
p865
F0.990754
sS'ADJ'
p866
F0.009241
s(lp867
(g215
I18
tp868
atp869
a(S'werden'
p870
(dp871
S'VERB'
p872
F0.999993
s(lp873
(g208
I17
tp874
atp875
a(g220
(dp876
g85
F1.0
s(lp877
(g220
I19
tp878
atp879
a(S'folglich'
p880
(dp881
S'ADV'
p882
F1.0
s(lp883
(g449
I20
tp884
atp885
a(S'ist'
p886
(dp887
S'VERB'
p888
F1.0
s(lp889
(g235
I22
tp890
atp891
a(S'es'
p892
(dp893
S'PRON'
p894
F1.0
s(lp895
(g227
I21
tp896
atp897
a(S'angemessen'
p898
(dp899
S'VERB'
p900
F0.948501
sS'ADJ'
p901
F0.051499
s(lp902
(g465
I23
tp903
atp904
a(g83
(dp905
g85
F1.0
s(lp906
tp907
a(S'dass'
p908
(dp909
S'CONJ'
p910
F1.0
s(lp911
(g118
I24
tp912
atp913
a(S'die'
p914
(dp915
S'PRON'
p916
F0.00085
sS'DET'
p917
F0.999019
s(lp918
(g273
I25
tp919
atp920
a(S'einstufung'
p921
(dp922
S'ADJ'
p923
F0.002347
sS'NOUN'
p924
F0.997495
s(lp925
(g280
I26
tp926
atp927
a(S'und'
p928
(dp929
S'CONJ'
p930
F1.0
s(lp931
(g287
I27
tp932
atp933
a(S'kennzeichnung'
p934
(dp935
S'VERB'
p936
F0.764254
s(lp937
(g301
I28
tp938
atp939
a(S'gef\xc3\xa4hrlicher'
p940
(dp941
S'ADJ'
p942
F1.0
s(lp943
(g323
I30
tp944
atp945
a(S'stoffe'
p946
(dp947
S'ADJ'
p948
F0.104651
sS'NOUN'
p949
F0.888721
s(lp950
(g316
I31
tp951
atp952
a(S'entsprechend'
p953
(dp954
S'ADJ'
p955
F0.939194
sS'ADP'
p956
F0.060514
s(lp957
(g257
I33
tp958
atp959
a(S'harmonisiert'
p960
(dp961
S'VERB'
p962
F0.959197
sS'ADJ'
p963
F0.040355
s(lp964
(g264
I34
tp965
atp966
a(S'wird'
p967
(dp968
S'VERB'
p969
F1.0
s(lp970
(g242
I32
tp971
atp972
a(g85
(dp973
g85
F1.0
s(lp974
(g85
I35
tp975
atp976
asS'it'
p977
(lp978
(S'i'
p979
(dp980
S'DET'
p981
F1.0
s(lp982
(g9
I0
tp983
atp984
a(S'prodotti'
p985
(dp986
S'VERB'
p987
F0.002214
sS'NOUN'
p988
F0.997786
s(lp989
tp990
a(S'chimici'
p991
(dp992
S'NOUN'
p993
F0.079094
sS'ADJ'
p994
F0.920906
s(lp995
(g9
I0
tp996
atp997
a(S'sono'
p998
(dp999
S'VERB'
p1000
F0.997442
sS'NOUN'
p1001
F0.002558
s(lp1002
(g29
I1
tp1003
atp1004
a(S'prodotti'
p1005
(dp1006
S'VERB'
p1007
F0.756438
sS'NOUN'
p1008
F0.243562
s(lp1009
(g36
I2
tp1010
atp1011
a(S'e'
p1012
(dp1013
S'CONJ'
p1014
F1.0
s(lp1015
(g43
I3
tp1016
atp1017
a(S'commercializzati'
p1018
(dp1019
S'VERB'
p1020
F1.0
s(lp1021
(g50
I4
tp1022
atp1023
a(g66
(dp1024
S'CONJ'
p1025
F7.8e-05
sS'ADP'
p1026
F0.999922
s(lp1027
(g58
I5
tp1028
atp1029
a(S'livello'
p1030
(dp1031
S'VERB'
p1032
F5e-05
sS'NOUN'
p1033
F0.99995
s(lp1034
(g381
I8
tp1035
atp1036
a(S'globale'
p1037
(dp1038
S'ADJ'
p1039
F1.0
s(lp1040
(g80
I7
tp1041
atp1042
a(g1012
(dp1043
S'CONJ'
p1044
F1.0
s(lp1045
(g92
I9
tp1046
atp1047
a(g979
(dp1048
S'DET'
p1049
F1.0
s(lp1050
tp1051
a(S'loro'
p1052
(dp1053
S'PRON'
p1054
F1.0
s(lp1055
(g101
I10
tp1056
atp1057
a(S'rischi'
p1058
(dp1059
S'VERB'
p1060
F0.000288
sS'NOUN'
p1061
F0.999713
s(lp1062
(g109
I11
tp1063
atp1064
a(S'restano'
p1065
(dp1066
S'VERB'
p1067
F1.0
s(lp1068
(g136
I12
tp1069
atp1070
a(g979
(dp1071
S'DET'
p1072
F1.0
s(lp1073
(g145
I13
tp1074
atp1075
a(S'medesimi'
p1076
(dp1077
S'ADJ'
p1078
F1.0
s(lp1079
(g152
I14
tp1080
atp1081
a(g66
(dp1082
S'CONJ'
p1083
F0.000389
sS'ADP'
p1084
F0.999611
s(lp1085
tp1086
a(S'prescindere'
p1087
(dp1088
S'VERB'
p1089
F1.0
s(lp1090
(g159
I15
tp1091
atp1092
a(S'da'
p1093
(dp1094
S'ADP'
p1095
F1.0
s(lp1096
tp1097
a(S'dove'
p1098
(dp1099
S'ADV'
p1100
F0.268659
sS'PRON'
p1101
F0.725178
sS'NOUN'
p1102
F0.006163
s(lp1103
(g159
I15
tp1104
atp1105
a(S'vengono'
p1106
(dp1107
S'VERB'
p1108
F1.0
s(lp1109
(g208
I17
tp1110
atp1111
a(S'utilizzati'
p1112
(dp1113
S'VERB'
p1114
F1.0
s(lp1115
(g215
I18
tp1116
atp1117
a(g220
(dp1118
g85
F1.0
s(lp1119
(g220
I19
tp1120
atp1121
a(S'di'
p1122
(dp1123
S'CONJ'
p1124
F8e-06
sS'ADP'
p1125
F0.999992
s(lp1126
tp1127
a(S'conseguenza'
p1128
(dp1129
S'NOUN'
p1130
F1.0
s(lp1131
(g449
I20
tp1132
atp1133
a(g83
(dp1134
g85
F1.0
s(lp1135
(g227
I21
tp1136
atp1137
a(S'\xc3\xa8'
p1138
(dp1139
S'VERB'
p1140
F1.0
s(lp1141
(g235
I22
tp1142
atp1143
a(S'appropriato'
p1144
(dp1145
S'VERB'
p1146
F0.956142
sS'ADJ'
p1147
F0.043858
s(lp1148
(g465
I23
tp1149
atp1150
a(S'che'
p1151
(dp1152
S'PRON'
p1153
F0.907585
sS'CONJ'
p1154
F0.0918
sS'ADJ'
p1155
F0.000615
s(lp1156
(g118
I24
tp1157
atp1158
a(S'la'
p1159
(dp1160
S'PRON'
p1161
F0.000973
sS'DET'
p1162
F0.999027
s(lp1163
(g273
I25
tp1164
atp1165
a(S'classificazione'
p1166
(dp1167
S'NOUN'
p1168
F1.0
s(lp1169
(g280
I26
tp1170
atp1171
a(g1012
(dp1172
S'CONJ'
p1173
F1.0
s(lp1174
(g287
I27
tp1175
atp1176
a(S"l'"
p1177
(dp1178
S'NOUN'
p1179
F0.000589
sS'VERB'
p1180
F0.9933339999999999
sS'ADJ'
p1181
F0.006076
s(lp1182
tp1183
a(S'etichettatura'
p1184
(dp1185
S'NOUN'
p1186
F1.0
s(lp1187
(g301
I28
tp1188
atp1189
a(S'di'
p1190
(dp1191
S'CONJ'
p1192
F4e-06
sS'ADP'
p1193
F0.999996
s(lp1194
(g309
I29
tp1195
atp1196
a(S'sostanze'
p1197
(dp1198
S'NOUN'
p1199
F1.0
s(lp1200
(g316
I31
tp1201
atp1202
a(S'pericolose'
p1203
(dp1204
S'ADJ'
p1205
F1.0
s(lp1206
(g323
I30
tp1207
atp1208
a(S'siano'
p1209
(dp1210
S'VERB'
p1211
F1.0
s(lp1212
(g242
I32
tp1213
atp1214
a(S'armonizzate'
p1215
(dp1216
S'VERB'
p1217
F0.9999999999999999
s(lp1218
(g264
I34
tp1219
atp1220
a(S'in'
p1221
(dp1222
S'ADP'
p1223
F1.0
s(lp1224
(g257
I33
tp1225
atp1226
a(S'modo'
p1227
(dp1228
S'NOUN'
p1229
F1.0
s(lp1230
tp1231
a(S'adeguato'
p1232
(dp1233
S'VERB'
p1234
F0.49937
sS'ADJ'
p1235
F0.50063
s(lp1236
(g257
I33
tp1237
atp1238
a(g85
(dp1239
g85
F1.0
s(lp1240
(g85
I35
tp1241
atp1242
asS'sk'
p1243
(lp1244
(S'chemik\xc3\xa1lie'
p1245
(dp1246
S'NOUN'
p1247
F1.0
s(lp1248
(g9
I0
tp1249
atp1250
a(S'sa'
p1251
(dp1252
S'PRT'
p1253
F0.999946
sS'ADP'
p1254
F0.0
sS'X'
p1255
F5.4e-05
s(lp1256
(g29
I1
tp1257
atp1258
a(S'vyr\xc3\xa1baj\xc3\xba'
p1259
(dp1260
S'VERB'
p1261
F1.0
s(lp1262
(g36
I2
tp1263
atp1264
a(g66
(dp1265
g1255
F0.013182
sS'CONJ'
p1266
F0.985822
sS'NOUN'
p1267
F0.000122
sS'ADP'
p1268
F0.0
sS'PRT'
p1269
F0.000873
s(lp1270
(g43
I3
tp1271
atp1272
a(S'obchoduje'
p1273
(dp1274
S'VERB'
p1275
F1.0
s(lp1276
(g50
I4
tp1277
atp1278
a(S'sa'
p1279
(dp1280
S'PRT'
p1281
F0.999344
sS'ADP'
p1282
F1e-06
sg1255
F0.000656
s(lp1283
tp1284
a(S's'
p1285
(dp1286
g1255
F9.300000000000001e-05
sS'CONJ'
p1287
F1.9e-05
sS'NOUN'
p1288
F3e-06
sS'ADP'
p1289
F0.999884
sS'PRT'
p1290
F0.0
s(lp1291
(g50
I4
tp1292
atp1293
a(S'nimi'
p1294
(dp1295
S'PRON'
p1296
F1.0
s(lp1297
(g50
I4
tp1298
atp1299
a(S'na'
p1300
(dp1301
g1255
F1e-05
sS'CONJ'
p1302
F1.2e-05
sS'ADP'
p1303
F0.999971
sS'PRT'
p1304
F7e-06
s(lp1305
(g58
I5
tp1306
atp1307
a(S'celom'
p1308
(dp1309
S'ADJ'
p1310
F1.0
s(lp1311
(g80
I7
tp1312
atp1313
a(S'svete'
p1314
(dp1315
S'NOUN'
p1316
F1.0
s(lp1317
(g381
I8
tp1318
atp1319
a(g83
(dp1320
g85
F1.0
s(lp1321
tp1322
a(S'pri\xc4\x8dom'
p1323
(dp1324
S'CONJ'
p1325
F1.0
s(lp1326
(g92
I9
tp1327
atp1328
a(S'rizik\xc3\xa1'
p1329
(dp1330
S'NOUN'
p1331
F1.0
s(lp1332
(g109
I11
tp1333
atp1334
a(S'spojen\xc3\xa9'
p1335
(dp1336
S'VERB'
p1337
F1.0
s(lp1338
(g109
I11
tp1339
atp1340
a(g1285
(dp1341
g1255
F0.00041300000000000006
sS'CONJ'
p1342
F0.000151
sS'NOUN'
p1343
F5.4e-05
sS'ADP'
p1344
F0.999168
sS'PRT'
p1345
F0.000213
s(lp1346
tp1347
a(S'ich'
p1348
(dp1349
S'PRON'
p1350
F1.0
s(lp1351
(g101
I10
tp1352
atp1353
a(S'pou\xc5\xbe\xc3\xadvan\xc3\xadm'
p1354
(dp1355
S'NOUN'
p1356
F1.0
s(lp1357
(g109
I11
tp1358
atp1359
a(S's\xc3\xba'
p1360
(dp1361
S'VERB'
p1362
F1.0
s(lp1363
(g136
I12
tp1364
atp1365
a(S'rovnak\xc3\xa9'
p1366
(dp1367
S'ADJ'
p1368
F1.0
s(lp1369
(g152
I14
tp1370
atp1371
a(S'bez'
p1372
(dp1373
g1255
F0.003942
sS'ADP'
p1374
F0.996058
s(lp1375
tp1376
a(S'oh\xc4\xbeadu'
p1377
(dp1378
S'NOUN'
p1379
F1.0
s(lp1380
(g159
I15
tp1381
atp1382
a(S'na'
p1383
(dp1384
g1255
F7.500000000000001e-05
sS'CONJ'
p1385
F1.9e-05
sS'ADP'
p1386
F0.999902
sS'PRT'
p1387
F3e-06
s(lp1388
(g215
I18
tp1389
atp1390
a(S'konkr\xc3\xa9tnu'
p1391
(dp1392
S'ADJ'
p1393
F1.0
s(lp1394
tp1395
a(S'lokalitu'
p1396
(dp1397
S'NOUN'
p1398
F1.0
s(lp1399
(g50
I4
tp1400
atp1401
a(g85
(dp1402
g85
F1.0
s(lp1403
(g220
I19
tp1404
atp1405
a(S'z'
p1406
(dp1407
g1255
F8e-05
sS'NOUN'
p1408
F1.9e-05
sS'ADP'
p1409
F0.999901
s(lp1410
(g449
I20
tp1411
atp1412
a(S'toho'
p1413
(dp1414
S'PRON'
p1415
F0.999985
sg1255
F1.5e-05
s(lp1416
tp1417
a(S'd\xc3\xb4vodu'
p1418
(dp1419
S'NOUN'
p1420
F1.0
s(lp1421
(g449
I20
tp1422
atp1423
a(S'je'
p1424
(dp1425
g1255
F5.2e-05
sS'VERB'
p1426
F0.999913
sS'PRON'
p1427
F3.5e-05
s(lp1428
(g235
I22
tp1429
atp1430
a(S'\xc5\xbeiad\xc3\xbace'
p1431
(dp1432
S'ADJ'
p1433
F1.0
s(lp1434
(g465
I23
tp1435
atp1436
a(g83
(dp1437
g85
F1.0
s(lp1438
tp1439
a(S'aby'
p1440
(dp1441
g1255
F6.7e-05
sS'CONJ'
p1442
F0.999933
s(lp1443
(g118
I24
tp1444
atp1445
a(S'sa'
p1446
(dp1447
S'PRT'
p1448
F0.999868
sS'ADP'
p1449
F0.000109
sg1255
F2.3e-05
s(lp1450
(g273
I25
tp1451
atp1452
a(S'klasifik\xc3\xa1cia'
p1453
(dp1454
S'NOUN'
p1455
F1.0
s(lp1456
(g280
I26
tp1457
atp1458
a(g66
(dp1459
g1255
F0.0025380000000000003
sS'CONJ'
p1460
F0.996478
sS'NOUN'
p1461
F0.00018700000000000002
sS'ADP'
p1462
F0.00077
sS'PRT'
p1463
F2.7e-05
s(lp1464
(g287
I27
tp1465
atp1466
a(S'ozna\xc4\x8dovanie'
p1467
(dp1468
S'NOUN'
p1469
F1.0
s(lp1470
(g301
I28
tp1471
atp1472
a(S'nebezpe\xc4\x8dn\xc3\xbdch'
p1473
(dp1474
S'ADJ'
p1475
F1.0
s(lp1476
(g323
I30
tp1477
atp1478
a(S'chemik\xc3\xa1li\xc3\xad'
p1479
(dp1480
S'NOUN'
p1481
F1.0
s(lp1482
(g316
I31
tp1483
atp1484
a(S'vhodn\xc3\xbdm'
p1485
(dp1486
S'ADJ'
p1487
F1.0
s(lp1488
tp1489
a(S'sp\xc3\xb4sobom'
p1490
(dp1491
S'NOUN'
p1492
F1.0
s(lp1493
(g257
I33
tp1494
atp1495
a(S'harmonizovali'
p1496
(dp1497
S'VERB'
p1498
F1.000001
s(lp1499
(g264
I34
tp1500
atp1501
a(g85
(dp1502
g85
F1.0
s(lp1503
(g85
I35
tp1504
atp1505
asS'pl'
p1506
(lp1507
(S'chemikalia'
p1508
(dp1509
S'NOUN'
p1510
F1.0
s(lp1511
(g9
I0
tp1512
atp1513
a(S's\xc4\x85'
p1514
(dp1515
S'VERB'
p1516
F1.0
s(lp1517
(g29
I1
tp1518
atp1519
a(S'produkowane'
p1520
(dp1521
S'VERB'
p1522
F0.9999999999999999
s(lp1523
(g36
I2
tp1524
atp1525
a(g979
(dp1526
S'PRT'
p1527
F0.026827
sS'CONJ'
p1528
F0.973011
sS'NOUN'
p1529
F0.000136
sg1255
F2e-06
sS'PRON'
p1530
F2.4e-05
s(lp1531
(g43
I3
tp1532
atp1533
a(S'bior\xc4\x85'
p1534
(dp1535
S'VERB'
p1536
F1.0
s(lp1537
(g50
I4
tp1538
atp1539
a(S'udzia\xc5\x82'
p1540
(dp1541
S'NOUN'
p1542
F1.0
s(lp1543
(g50
I4
tp1544
atp1545
a(S'w'
p1546
(dp1547
S'ADJ'
p1548
F0.0
sg1255
F0.0
sS'NOUN'
p1549
F0.0
sS'ADP'
p1550
F1.0
s(lp1551
tp1552
a(S'wymianie'
p1553
(dp1554
S'NOUN'
p1555
F1.0
s(lp1556
tp1557
a(S'handlowej'
p1558
(dp1559
S'ADJ'
p1560
F1.0
s(lp1561
(g50
I4
tp1562
atp1563
a(g1546
(dp1564
g1255
F0.0
sS'ADJ'
p1565
F0.0
sS'ADP'
p1566
F1.0
sS'NOUN'
p1567
F0.0
s(lp1568
(g58
I5
tp1569
atp1570
a(S'wymiarze'
p1571
(dp1572
S'NOUN'
p1573
F1.0
s(lp1574
tp1575
a(S'globalnym'
p1576
(dp1577
S'ADJ'
p1578
F1.0
s(lp1579
(g80
I7
tp1580
atp1581
a(g83
(dp1582
g1255
F0.0
sg85
F1.0
s(lp1583
tp1584
a(g66
(dp1585
S'ADV'
p1586
F0.000204
sS'NOUN'
p1587
F0.0022219999999999996
sS'ADP'
p1588
F0.0013059999999999999
sS'PRT'
p1589
F0.002424
sS'VERB'
p1590
F0.000739
sg1255
F0.0026
sS'CONJ'
p1591
F0.990431
sS'ADJ'
p1592
F7.399999999999998e-05
s(lp1593
(g92
I9
tp1594
atp1595
a(S'zagro\xc5\xbcenie'
p1596
(dp1597
S'VERB'
p1598
F0.026963
sS'NOUN'
p1599
F0.9730369999999999
s(lp1600
(g109
I11
tp1601
atp1602
a(g83
(dp1603
g1255
F0.0
sg85
F1.0
s(lp1604
tp1605
a(S'jakie'
p1606
(dp1607
S'ADJ'
p1608
F1.0
s(lp1609
(g109
I11
tp1610
atp1611
a(S'ze'
p1612
(dp1613
S'PRT'
p1614
F5e-05
sS'CONJ'
p1615
F0.0
sS'ADP'
p1616
F0.99995
s(lp1617
(g109
I11
tp1618
atp1619
a(S'sob\xc4\x85'
p1620
(dp1621
S'PRON'
p1622
F1.0
s(lp1623
(g109
I11
tp1624
atp1625
a(S'nios\xc4\x85'
p1626
(dp1627
S'VERB'
p1628
F1.0
s(lp1629
tp1630
a(g83
(dp1631
g1255
F2e-06
sg85
F0.999998
s(lp1632
tp1633
a(S'jest'
p1634
(dp1635
S'VERB'
p1636
F1.0
s(lp1637
(g136
I12
tp1638
atp1639
a(S'takie'
p1640
(dp1641
S'ADJ'
p1642
F0.9999990000000001
s(lp1643
tp1644
a(S'same'
p1645
(dp1646
S'ADJ'
p1647
F1.0
s(lp1648
(g152
I14
tp1649
atp1650
a(g83
(dp1651
g1255
F0.0
sg85
F1.0
s(lp1652
tp1653
a(S'bez'
p1654
(dp1655
S'NOUN'
p1656
F0.000219
sS'ADP'
p1657
F0.999781
s(lp1658
(g159
I15
tp1659
atp1660
a(S'wzgl\xc4\x99du'
p1661
(dp1662
S'NOUN'
p1663
F1.0
s(lp1664
tp1665
a(S'na'
p1666
(dp1667
S'PRT'
p1668
F7e-06
sS'VERB'
p1669
F5.4999999999999995e-05
sS'NOUN'
p1670
F1.5e-05
sS'ADP'
p1671
F0.99992
sg1255
F3e-06
s(lp1672
tp1673
a(S'miejsce'
p1674
(dp1675
S'NOUN'
p1676
F1.0
s(lp1677
(g159
I15
tp1678
atp1679
a(S'ich'
p1680
(dp1681
S'PRON'
p1682
F0.999985
sg1255
F1.4e-05
s(lp1683
(g201
I16
tp1684
atp1685
a(S'u\xc5\xbcywania'
p1686
(dp1687
S'VERB'
p1688
F1.0
s(lp1689
(g109
I11
tp1690
atp1691
a(g220
(dp1692
g85
F1.0
s(lp1693
(g220
I19
tp1694
atp1695
a(S'tak'
p1696
(dp1697
S'ADV'
p1698
F0.90156
sS'NOUN'
p1699
F0.000193
sS'PRT'
p1700
F0.093582
sg1255
F5.2e-05
sS'CONJ'
p1701
F0.004523
sS'ADJ'
p1702
F9.1e-05
s(lp1703
tp1704
a(S'wi\xc4\x99c'
p1705
(dp1706
S'PRT'
p1707
F0.000802
sS'CONJ'
p1708
F0.999198
s(lp1709
(g449
I20
tp1710
atp1711
a(S'w\xc5\x82a\xc5\x9bciwe'
p1712
(dp1713
S'PRT'
p1714
F0.380829
sS'ADJ'
p1715
F0.6191699999999999
s(lp1716
(g465
I23
tp1717
atp1718
a(S'b\xc4\x99dzie'
p1719
(dp1720
S'VERB'
p1721
F1.0
s(lp1722
(g242
I32
tp1723
atp1724
a(S'dokonanie'
p1725
(dp1726
S'VERB'
p1727
F0.9554279999999999
sS'NOUN'
p1728
F0.044572
s(lp1729
tp1730
a(S'odpowiedniego'
p1731
(dp1732
S'ADJ'
p1733
F1.0
s(lp1734
(g257
I33
tp1735
atp1736
a(S'ujednolicenia'
p1737
(dp1738
S'VERB'
p1739
F1.0
s(lp1740
(g264
I34
tp1741
atp1742
a(S'klasyfikacji'
p1743
(dp1744
S'NOUN'
p1745
F1.0
s(lp1746
(g280
I26
tp1747
atp1748
a(g979
(dp1749
S'PRT'
p1750
F0.000141
sS'CONJ'
p1751
F0.999769
sS'NOUN'
p1752
F8e-05
sg1255
F1e-06
sS'PRON'
p1753
F9e-06
s(lp1754
(g287
I27
tp1755
atp1756
a(S'etykietowania'
p1757
(dp1758
S'VERB'
p1759
F1.0
s(lp1760
(g301
I28
tp1761
atp1762
a(S'substancji'
p1763
(dp1764
S'NOUN'
p1765
F1.0
s(lp1766
(g316
I31
tp1767
atp1768
a(S'niebezpiecznych'
p1769
(dp1770
S'ADJ'
p1771
F1.0000010000000001
s(lp1772
(g323
I30
tp1773
atp1774
a(g85
(dp1775
g85
F1.0
s(lp1776
(g85
I35
tp1777
atp1778
asS'sl'
p1779
(lp1780
(S'proizvodnja'
p1781
(dp1782
S'NOUN'
p1783
F1.0
s(lp1784
(g36
I2
tp1785
atp1786
a(S'in'
p1787
(dp1788
S'ADV'
p1789
F3.9e-05
sg1255
F0.000169
sS'CONJ'
p1790
F0.999785
sS'NOUN'
p1791
F7e-06
s(lp1792
(g43
I3
tp1793
atp1794
a(S'trgovanje'
p1795
(dp1796
S'NOUN'
p1797
F1.0
s(lp1798
(g50
I4
tp1799
atp1800
a(g1285
(dp1801
S'VERB'
p1802
F2e-06
sS'NOUN'
p1803
F1e-06
sS'ADP'
p1804
F0.999997
s(lp1805
tp1806
a(S'kemikalijami'
p1807
(dp1808
S'NOUN'
p1809
F1.0
s(lp1810
(g9
I0
tp1811
atp1812
a(S'poteka'
p1813
(dp1814
S'VERB'
p1815
F1.0
s(lp1816
(g50
I4
tp1817
atp1818
a(S'na'
p1819
(dp1820
S'ADP'
p1821
F1.0
s(lp1822
(g58
I5
tp1823
atp1824
a(S'globalni'
p1825
(dp1826
S'ADJ'
p1827
F1.0
s(lp1828
(g80
I7
tp1829
atp1830
a(S'ravni'
p1831
(dp1832
S'ADJ'
p1833
F1.1e-05
sS'NOUN'
p1834
F0.9999889999999999
s(lp1835
(g381
I8
tp1836
atp1837
a(g83
(dp1838
g85
F1.0
s(lp1839
(g92
I9
tp1840
atp1841
a(S'pri'
p1842
(dp1843
S'ADP'
p1844
F1.0
s(lp1845
(g101
I10
tp1846
atp1847
a(S'\xc4\x8demer'
p1848
(dp1849
S'PRON'
p1850
F1.0
s(lp1851
(g109
I11
tp1852
atp1853
a(S'so'
p1854
(dp1855
g1255
F0.000154
sS'VERB'
p1856
F0.999846
s(lp1857
(g136
I12
tp1858
atp1859
a(S'enako'
p1860
(dp1861
S'ADV'
p1862
F0.967913
sS'PRON'
p1863
F0.032087
s(lp1864
(g152
I14
tp1865
atp1866
a(S'nevarne'
p1867
(dp1868
S'ADJ'
p1869
F1.0
s(lp1870
(g159
I15
tp1871
atp1872
a(g83
(dp1873
g85
F1.0
s(lp1874
tp1875
a(S'kjer'
p1876
(dp1877
S'CONJ'
p1878
F1.0
s(lp1879
tp1880
a(S'koli'
p1881
(dp1882
S'PRT'
p1883
F1.0
s(lp1884
(g159
I15
tp1885
atp1886
a(S'se'
p1887
(dp1888
S'PRON'
p1889
F0.999993
sg1255
F7e-06
s(lp1890
(g208
I17
tp1891
atp1892
a(S'uporabljajo'
p1893
(dp1894
S'VERB'
p1895
F1.0
s(lp1896
(g215
I18
tp1897
atp1898
a(g220
(dp1899
g85
F1.0
s(lp1900
(g220
I19
tp1901
atp1902
a(S'v'
p1903
(dp1904
S'ADP'
p1905
F1.0
s(lp1906
(g449
I20
tp1907
atp1908
a(S'skladu'
p1909
(dp1910
S'NOUN'
p1911
F1.0
s(lp1912
(g449
I20
tp1913
atp1914
a(g1285
(dp1915
S'VERB'
p1916
F3e-06
sS'NOUN'
p1917
F1.3e-05
sS'ADP'
p1918
F0.999984
s(lp1919
tp1920
a(S'tem'
p1921
(dp1922
S'ADV'
p1923
F0.000164
sS'PRON'
p1924
F0.9991610000000001
sS'NOUN'
p1925
F0.000673
s(lp1926
(g449
I20
tp1927
atp1928
a(S'je'
p1929
(dp1930
S'PRON'
p1931
F0.001842
sS'VERB'
p1932
F0.9981530000000001
sg1255
F4e-06
s(lp1933
(g235
I22
tp1934
atp1935
a(S'primerno'
p1936
(dp1937
S'ADV'
p1938
F0.474768
sS'ADJ'
p1939
F0.525231
s(lp1940
(g465
I23
tp1941
atp1942
a(g83
(dp1943
g85
F1.0
s(lp1944
tp1945
a(S'da'
p1946
(dp1947
S'PRT'
p1948
F5e-06
sS'CONJ'
p1949
F0.99997
sS'VERB'
p1950
F2.4e-05
sg1255
F1e-06
s(lp1951
(g118
I24
tp1952
atp1953
a(S'se'
p1954
(dp1955
S'PRON'
p1956
F0.999998
sg1255
F2e-06
s(lp1957
(g242
I32
tp1958
atp1959
a(S'ustrezno'
p1960
(dp1961
S'ADV'
p1962
F0.99499
sS'ADJ'
p1963
F0.005011
s(lp1964
tp1965
a(S'uskladita'
p1966
(dp1967
S'ADV'
p1968
F0.004037
sS'NOUN'
p1969
F0.044586999999999995
sS'VERB'
p1970
F0.856772
sS'ADJ'
p1971
F0.09421900000000001
sS'NUM'
p1972
F0.000386
s(lp1973
(g257
I33
tp1974
atp1975
a(S'razvr\xc5\xa1\xc4\x8danje'
p1976
(dp1977
S'NOUN'
p1978
F1.0
s(lp1979
(g280
I26
tp1980
atp1981
a(S'in'
p1982
(dp1983
S'ADV'
p1984
F3.4e-05
sg1255
F9e-06
sS'CONJ'
p1985
F0.999952
sS'NOUN'
p1986
F4e-06
s(lp1987
(g287
I27
tp1988
atp1989
a(S'ozna\xc4\x8devanje'
p1990
(dp1991
S'NOUN'
p1992
F1.0
s(lp1993
(g301
I28
tp1994
atp1995
a(S'nevarnih'
p1996
(dp1997
S'ADJ'
p1998
F1.0
s(lp1999
(g323
I30
tp2000
atp2001
a(S'snovi'
p2002
(dp2003
S'NOUN'
p2004
F0.999999
s(lp2005
(g316
I31
tp2006
atp2007
a(g85
(dp2008
g85
F1.0
s(lp2009
(g85
I35
tp2010
atp2011
asS'es'
p2012
(lp2013
(S'los'
p2014
(dp2015
S'PRON'
p2016
F2.7e-05
sS'DET'
p2017
F0.999973
s(lp2018
(g9
I0
tp2019
atp2020
a(S'productos'
p2021
(dp2022
S'NOUN'
p2023
F1.0
s(lp2024
tp2025
a(S'qu\xc3\xadmicos'
p2026
(dp2027
S'ADJ'
p2028
F1.0
s(lp2029
(g9
I0
tp2030
atp2031
a(S'se'
p2032
(dp2033
S'PRON'
p2034
F1.0
sS'VERB'
p2035
F0.0
s(lp2036
(g29
I1
tp2037
atp2038
a(S'fabrican'
p2039
(dp2040
S'VERB'
p2041
F1.0
s(lp2042
(g36
I2
tp2043
atp2044
a(S'y'
p2045
(dp2046
g1255
F1.7e-05
sS'CONJ'
p2047
F0.999983
s(lp2048
(g43
I3
tp2049
atp2050
a(S'se'
p2051
(dp2052
S'PRON'
p2053
F1.0
sS'VERB'
p2054
F0.0
s(lp2055
tp2056
a(S'comercializan'
p2057
(dp2058
S'VERB'
p2059
F1.0
s(lp2060
(g50
I4
tp2061
atp2062
a(g66
(dp2063
g1255
F0.000201
sS'CONJ'
p2064
F0.000108
sS'ADP'
p2065
F0.999691
s(lp2066
(g58
I5
tp2067
atp2068
a(S'escala'
p2069
(dp2070
S'VERB'
p2071
F2e-06
sS'NOUN'
p2072
F0.999998
s(lp2073
(g381
I8
tp2074
atp2075
a(S'global'
p2076
(dp2077
g1255
F0.00021
sS'ADJ'
p2078
F0.99979
s(lp2079
(g80
I7
tp2080
atp2081
a(g2045
(dp2082
g1255
F0.0
sS'CONJ'
p2083
F1.0
s(lp2084
(g92
I9
tp2085
atp2086
a(S'sus'
p2087
(dp2088
S'PRON'
p2089
F1.0
s(lp2090
(g101
I10
tp2091
atp2092
a(S'peligros'
p2093
(dp2094
S'NOUN'
p2095
F1.0
s(lp2096
(g109
I11
tp2097
atp2098
a(S'siguen'
p2099
(dp2100
S'VERB'
p2101
F1.0
s(lp2102
tp2103
a(S'siendo'
p2104
(dp2105
S'VERB'
p2106
F1.0
s(lp2107
(g136
I12
tp2108
atp2109
a(S'los'
p2110
(dp2111
S'PRON'
p2112
F0.0
sS'DET'
p2113
F1.0
s(lp2114
(g145
I13
tp2115
atp2116
a(S'mismos'
p2117
(dp2118
S'ADJ'
p2119
F1.0
s(lp2120
(g152
I14
tp2121
atp2122
a(S'all\xc3\xa1'
p2123
(dp2124
S'ADV'
p2125
F1.0
s(lp2126
tp2127
a(S'donde'
p2128
(dp2129
S'ADV'
p2130
F1.0
s(lp2131
(g159
I15
tp2132
atp2133
a(S'se'
p2134
(dp2135
S'PRON'
p2136
F1.0
sS'VERB'
p2137
F0.0
s(lp2138
(g208
I17
tp2139
atp2140
a(S'utilicen'
p2141
(dp2142
S'VERB'
p2143
F1.0
s(lp2144
(g215
I18
tp2145
atp2146
a(g220
(dp2147
g85
F1.0
s(lp2148
(g220
I19
tp2149
atp2150
a(S'en'
p2151
(dp2152
S'ADV'
p2153
F1.0
s(lp2154
tp2155
a(S'consecuencia'
p2156
(dp2157
S'ADV'
p2158
F1.0
s(lp2159
(g449
I20
tp2160
atp2161
a(g83
(dp2162
g85
F1.0
s(lp2163
(g227
I21
tp2164
atp2165
a(S'es'
p2166
(dp2167
S'VERB'
p2168
F1.0
s(lp2169
(g235
I22
tp2170
atp2171
a(S'conveniente'
p2172
(dp2173
S'ADJ'
p2174
F1.0
s(lp2175
(g465
I23
tp2176
atp2177
a(S'que'
p2178
(dp2179
g1255
F0.0
sS'CONJ'
p2180
F1.0
s(lp2181
(g118
I24
tp2182
atp2183
a(S'la'
p2184
(dp2185
S'PRON'
p2186
F0.00027
sS'DET'
p2187
F0.99973
sg1255
F0.0
sS'NOUN'
p2188
F0.0
s(lp2189
(g273
I25
tp2190
atp2191
a(S'clasificaci\xc3\xb3n'
p2192
(dp2193
S'NOUN'
p2194
F1.0
s(lp2195
(g280
I26
tp2196
atp2197
a(g2045
(dp2198
g1255
F0.000396
sS'CONJ'
p2199
F0.999604
s(lp2200
(g287
I27
tp2201
atp2202
a(S'el'
p2203
(dp2204
S'PRON'
p2205
F0.00032
sS'DET'
p2206
F0.99968
s(lp2207
tp2208
a(S'etiquetado'
p2209
(dp2210
S'VERB'
p2211
F1.0
s(lp2212
(g301
I28
tp2213
atp2214
a(S'de'
p2215
(dp2216
g1255
F0.0
sS'CONJ'
p2217
F2.3e-05
sS'ADP'
p2218
F0.999977
s(lp2219
(g309
I29
tp2220
atp2221
a(S'las'
p2222
(dp2223
S'PRON'
p2224
F0.0
sS'DET'
p2225
F1.0
s(lp2226
tp2227
a(S'sustancias'
p2228
(dp2229
S'NOUN'
p2230
F1.0
s(lp2231
(g316
I31
tp2232
atp2233
a(S'qu\xc3\xadmicas'
p2234
(dp2235
S'NOUN'
p2236
F0.018537
sS'ADJ'
p2237
F0.981463
s(lp2238
(g323
I30
tp2239
atp2240
a(S'est\xc3\xa9n'
p2241
(dp2242
S'VERB'
p2243
F1.0
s(lp2244
tp2245
a(S'debidamente'
p2246
(dp2247
S'ADV'
p2248
F1.0
s(lp2249
(g257
I33
tp2250
atp2251
a(S'armonizados'
p2252
(dp2253
S'VERB'
p2254
F1.0
s(lp2255
(g264
I34
tp2256
atp2257
a(g85
(dp2258
g85
F1.0
s(lp2259
(g85
I35
tp2260
atp2261
as.