(dp0
S'fr'
p1
(lp2
(S'ce'
p3
(dp4
S'PRON'
p5
F1.0
s(lp6
(S'it'
p7
I2
tp8
atp9
a(S"n'"
p10
(dp11
S'ADJ'
p12
F0.022127
sS'VERB'
p13
F0.564007
sS'NOUN'
p14
F0.413866
s(lp15
tp16
a(S'est'
p17
(dp18
S'VERB'
p19
F0.999314
sS'NOUN'
p20
F0.000686
s(lp21
(S'is'
p22
I3
tp23
atp24
a(S'donc'
p25
(dp26
S'ADV'
p27
F1.0
s(lp28
(S'therefore'
p29
I0
tp30
atp31
a(S'pas'
p32
(dp33
S'ADV'
p34
F0.999671
sS'NOUN'
p35
F0.000329
s(lp36
(S'no'
p37
I4
tp38
atp39
a(S'un'
p40
(dp41
S'NOUN'
p42
F2.4e-05
sS'NUM'
p43
F0.010821
sS'DET'
p44
F0.989155
s(lp45
tp46
a(S'hasard'
p47
(dp48
S'NOUN'
p49
F1.0
s(lp50
(S'accident'
p51
I5
tp52
atp53
a(S'si'
p54
(dp55
S'ADV'
p56
F0.259741
sS'CONJ'
p57
F0.739964
sS'NOUN'
p58
F0.000295
s(lp59
(S'that'
p60
I6
tp61
atp62
a(S'en'
p63
(dp64
S'PRON'
p65
F0.011122
sS'ADP'
p66
F0.988878
s(lp67
(S'in'
p68
I7
tp69
atp70
a(S'lettonie'
p71
(dp72
S'ADJ'
p73
F0.001022
sS'NOUN'
p74
F0.998978
s(lp75
(S'latvia'
p76
I8
tp77
atp78
a(S','
p79
(dp80
S'.'
p81
F1.0
s(lp82
(g79
I9
tp83
atp84
a(S'par'
p85
(dp86
S'NOUN'
p87
F1e-06
sS'ADP'
p88
F0.999999
s(lp89
tp90
a(S'exemple'
p91
(dp92
S'NOUN'
p93
F1.0
s(lp94
(S'example'
p95
I11
tp96
atp97
a(g79
(dp98
g81
F1.0
s(lp99
(g79
I12
tp100
atp101
a(S'la'
p102
(dp103
S'PRON'
p104
F6.9e-05
sS'DET'
p105
F0.999931
sS'NOUN'
p106
F0.0
s(lp107
(S'the'
p108
I13
tp109
atp110
a(S'majorit\xc3\xa9'
p111
(dp112
S'NOUN'
p113
F1.0
s(lp114
(S'majority'
p115
I14
tp116
atp117
a(S'des'
p118
(dp119
S'DET'
p120
F2.1e-05
sS'ADP'
p121
F0.999979
s(lp122
(S'of'
p123
I15
tp124
atp125
a(S'habitants'
p126
(dp127
S'NOUN'
p128
F1.0
s(lp129
(S'inhabitants'
p130
I16
tp131
atp132
a(S'se'
p133
(dp134
S'PRON'
p135
F1.0
s(lp136
tp137
a(S'trouvent'
p138
(dp139
S'VERB'
p140
F1.0
s(lp141
(S'are'
p142
I17
tp143
atp144
a(S"aujourd'"
p145
(dp146
S'NOUN'
p147
F0.266129
sS'VERB'
p148
F0.020872000000000005
sS'ADJ'
p149
F0.713
s(lp150
tp151
a(S'hui'
p152
(dp153
S'ADJ'
p154
F0.026602
sS'VERB'
p155
F0.713091
sS'NOUN'
p156
F0.26030800000000004
s(lp157
(S'today'
p158
I18
tp159
atp160
a(S'dans'
p161
(dp162
S'NOUN'
p163
F8e-06
sS'ADP'
p164
F0.999992
s(lp165
(S'for'
p166
I10
tp167
atp168
a(S'une'
p169
(dp170
S'NOUN'
p171
F1.8e-05
sS'NUM'
p172
F0.024699
sS'DET'
p173
F0.975283
s(lp174
tp175
a(S'situation'
p176
(dp177
S'NOUN'
p178
F1.0
s(lp179
tp180
a(S'pire'
p181
(dp182
S'ADJ'
p183
F1.0
s(lp184
(S'worse'
p185
I19
tp186
atp187
a(S"qu'"
p188
(dp189
S'ADJ'
p190
F0.112319
sS'VERB'
p191
F0.207239
sS'NOUN'
p192
F0.680441
s(lp193
(S'than'
p194
I21
tp195
atp196
a(S'avant'
p197
(dp198
S'ADV'
p199
F0.046363
sS'NOUN'
p200
F0.003992
sS'ADP'
p201
F0.949645
s(lp202
(S'before'
p203
I22
tp204
atp205
a(S"l'"
p206
(dp207
S'ADJ'
p208
F0.163267
sS'VERB'
p209
F0.09939300000000001
sS'NOUN'
p210
F0.737341
s(lp211
tp212
a(S'adh\xc3\xa9sion'
p213
(dp214
S'NOUN'
p215
F1.0
s(lp216
(S'accession'
p217
I23
tp218
atp219
a(S'\xc3\xa0'
p220
(dp221
S'ADP'
p222
F1.0
s(lp223
(S'to'
p224
I24
tp225
atp226
a(S"l'"
p227
(dp228
S'ADJ'
p229
F0.160704
sS'VERB'
p230
F0.06480800000000002
sS'NOUN'
p231
F0.774488
s(lp232
(S'the'
p233
I25
tp234
atp235
a(S'union'
p236
(dp237
S'NOUN'
p238
F1.0
s(lp239
(S'union'
p240
I27
tp241
atp242
a(S'europ\xc3\xa9enne'
p243
(dp244
S'NOUN'
p245
F0.012852
sS'ADJ'
p246
F0.987148
s(lp247
(S'european'
p248
I26
tp249
atp250
a(g81
(dp251
g81
F1.0
s(lp252
(g81
I28
tp253
atp254
asS'en'
p255
(lp256
(g29
(dp257
S'ADV'
p258
F1.0
s(lp259
(g29
I0
tp260
atp261
a(g79
(dp262
g81
F1.0
s(lp263
(g79
I1
tp264
atp265
a(g7
(dp266
S'PRON'
p267
F1.0
s(lp268
(g7
I2
tp269
atp270
a(g22
(dp271
S'VERB'
p272
F1.0
s(lp273
(g22
I3
tp274
atp275
a(g37
(dp276
S'ADV'
p277
F0.023878
sS'X'
p278
F0.000382
sS'DET'
p279
F0.975735
sS'NOUN'
p280
F5e-06
s(lp281
(g37
I4
tp282
atp283
a(g51
(dp284
S'NOUN'
p285
F1.0
s(lp286
(g51
I5
tp287
atp288
a(g60
(dp289
S'ADV'
p290
F0.009062
sS'DET'
p291
F0.127537
sS'ADP'
p292
F0.863401
s(lp293
(g60
I6
tp294
atp295
a(g68
(dp296
S'ADV'
p297
F0.001224
sS'PRT'
p298
F4e-06
sS'ADP'
p299
F0.998773
s(lp300
(g68
I7
tp301
atp302
a(g76
(dp303
S'ADJ'
p304
F0.000409
sS'NOUN'
p305
F0.999592
s(lp306
(g76
I8
tp307
atp308
a(g79
(dp309
g81
F1.0
s(lp310
(g79
I9
tp311
atp312
a(g166
(dp313
S'ADP'
p314
F1.0
s(lp315
(g166
I10
tp316
atp317
a(g95
(dp318
S'NOUN'
p319
F1.0
s(lp320
(g95
I11
tp321
atp322
a(g79
(dp323
g81
F1.0
s(lp324
(g79
I12
tp325
atp326
a(g108
(dp327
S'NOUN'
p328
F4e-06
sS'DET'
p329
F0.999996
s(lp330
(g108
I13
tp331
atp332
a(g115
(dp333
S'ADJ'
p334
F0.003808
sS'NOUN'
p335
F0.996192
s(lp336
(g115
I14
tp337
atp338
a(g123
(dp339
S'ADP'
p340
F1.0
s(lp341
(g123
I15
tp342
atp343
a(g130
(dp344
S'NOUN'
p345
F1.0
s(lp346
(g130
I16
tp347
atp348
a(g142
(dp349
S'VERB'
p350
F0.999981
sS'NOUN'
p351
F1.9e-05
s(lp352
(g142
I17
tp353
atp354
a(g158
(dp355
S'ADV'
p356
F0.4528
sS'NOUN'
p357
F0.5472
s(lp358
(g158
I18
tp359
atp360
a(g185
(dp361
S'ADV'
p362
F0.554994
sS'NOUN'
p363
F0.000985
sS'ADJ'
p364
F0.444021
s(lp365
(g185
I19
tp366
atp367
a(S'off'
p368
(dp369
S'ADV'
p370
F0.279893
sS'PRT'
p371
F0.266074
sS'ADJ'
p372
F0.043818
sS'ADP'
p373
F0.408738
sS'NOUN'
p374
F0.001477
s(lp375
(g368
I20
tp376
atp377
a(g194
(dp378
S'ADP'
p379
F1.0
s(lp380
(g194
I21
tp381
atp382
a(g203
(dp383
S'ADV'
p384
F0.106976
sS'ADP'
p385
F0.893024
s(lp386
(g203
I22
tp387
atp388
a(g217
(dp389
S'VERB'
p390
F0.087218
sS'NOUN'
p391
F0.912782
s(lp392
(g217
I23
tp393
atp394
a(g224
(dp395
S'ADV'
p396
F1e-06
sS'PRT'
p397
F0.999989
sS'ADP'
p398
F1e-05
s(lp399
(g224
I24
tp400
atp401
a(g233
(dp402
S'NOUN'
p403
F1e-06
sS'DET'
p404
F0.999999
s(lp405
(g233
I25
tp406
atp407
a(g248
(dp408
S'NOUN'
p409
F0.10881199999999999
sS'VERB'
p410
F1.1e-05
sS'ADJ'
p411
F0.891178
s(lp412
(g248
I26
tp413
atp414
a(g240
(dp415
S'NOUN'
p416
F1.0
s(lp417
(g240
I27
tp418
atp419
a(g81
(dp420
g81
F1.0
s(lp421
(g81
I28
tp422
atp423
asS'nl'
p424
(lp425
(S'het'
p426
(dp427
S'PRON'
p428
F0.962086
sS'DET'
p429
F0.037914
s(lp430
(g7
I2
tp431
atp432
a(S'is'
p433
(dp434
S'VERB'
p435
F1.0
s(lp436
(g22
I3
tp437
atp438
a(S'daarom'
p439
(dp440
S'ADV'
p441
F1.0
s(lp442
(g29
I0
tp443
atp444
a(S'geen'
p445
(dp446
S'PRON'
p447
F0.999913
sS'DET'
p448
F8.7e-05
s(lp449
(g37
I4
tp450
atp451
a(S'toeval'
p452
(dp453
S'VERB'
p454
F0.001707
sS'NOUN'
p455
F0.998293
s(lp456
(g51
I5
tp457
atp458
a(S'dat'
p459
(dp460
S'PRON'
p461
F0.323945
sS'CONJ'
p462
F0.676056
s(lp463
(g60
I6
tp464
atp465
a(S'in'
p466
(dp467
S'ADV'
p468
F0.005156
sS'VERB'
p469
F0.0
sS'ADP'
p470
F0.994843
s(lp471
(g68
I7
tp472
atp473
a(S'letland'
p474
(dp475
S'ADJ'
p476
F0.000315
sS'NOUN'
p477
F0.999684
s(lp478
(g76
I8
tp479
atp480
a(S'de'
p481
(dp482
S'DET'
p483
F1.0
s(lp484
(g108
I13
tp485
atp486
a(S'meeste'
p487
(dp488
S'ADJ'
p489
F1.0
s(lp490
(g115
I14
tp491
atp492
a(S'inwoners'
p493
(dp494
S'NOUN'
p495
F1.0
s(lp496
(g130
I16
tp497
atp498
a(S'nu'
p499
(dp500
S'ADV'
p501
F0.928259
sS'CONJ'
p502
F0.071695
sS'NOUN'
p503
F4.7e-05
s(lp504
(g158
I18
tp505
atp506
a(S'bijvoorbeeld'
p507
(dp508
S'ADV'
p509
F1.0
s(lp510
(g95
I11
tp511
atp512
a(S'slechter'
p513
(dp514
S'ADJ'
p515
F1.0
s(lp516
(g185
I19
tp517
atp518
a(S'af'
p519
(dp520
S'ADV'
p521
F0.997397
sS'ADP'
p522
F0.002603
s(lp523
(g368
I20
tp524
atp525
a(S'zijn'
p526
(dp527
S'PRON'
p528
F4.8e-05
sS'VERB'
p529
F0.999773
sS'NOUN'
p530
F0.00018
s(lp531
(g142
I17
tp532
atp533
a(S'dan'
p534
(dp535
S'ADV'
p536
F0.793972
sS'CONJ'
p537
F0.206028
s(lp538
(g194
I21
tp539
atp540
a(S'voor'
p541
(dp542
S'ADV'
p543
F0.007504
sS'CONJ'
p544
F2e-05
sS'NOUN'
p545
F0.0
sS'ADP'
p546
F0.992476
s(lp547
(g203
I22
tp548
atp549
a(S'de'
p550
(dp551
S'DET'
p552
F1.0
s(lp553
tp554
a(S'toetreding'
p555
(dp556
S'NOUN'
p557
F1.0
s(lp558
(g217
I23
tp559
atp560
a(S'tot'
p561
(dp562
S'CONJ'
p563
F1.8e-05
sS'ADP'
p564
F0.999982
s(lp565
(g224
I24
tp566
atp567
a(S'de'
p568
(dp569
S'DET'
p570
F1.0
s(lp571
(g233
I25
tp572
atp573
a(S'europese'
p574
(dp575
S'NOUN'
p576
F1.0
s(lp577
(g248
I26
tp578
atp579
a(S'unie'
p580
(dp581
S'NOUN'
p582
F1.0
s(lp583
(g240
I27
tp584
atp585
a(g81
(dp586
g81
F1.0
s(lp587
(g81
I28
tp588
atp589
asS'de'
p590
(lp591
(S'daher'
p592
(dp593
S'ADV'
p594
F0.9999979999999999
s(lp595
(g29
I0
tp596
atp597
a(S'ist'
p598
(dp599
S'VERB'
p600
F1.0
s(lp601
(g22
I3
tp602
atp603
a(S'es'
p604
(dp605
S'PRON'
p606
F1.0
s(lp607
(g7
I2
tp608
atp609
a(S'kein'
p610
(dp611
S'PRON'
p612
F1.0
s(lp613
(g37
I4
tp614
atp615
a(S'zufall'
p616
(dp617
S'ADJ'
p618
F0.0006
sS'NOUN'
p619
F0.999199
s(lp620
(g51
I5
tp621
atp622
a(g79
(dp623
g81
F1.0
s(lp624
tp625
a(S'dass'
p626
(dp627
S'CONJ'
p628
F1.0
s(lp629
(g60
I6
tp630
atp631
a(S'zum'
p632
(dp633
S'ADP'
p634
F1.0
s(lp635
tp636
a(S'beispiel'
p637
(dp638
S'NOUN'
p639
F0.98214
s(lp640
(g95
I11
tp641
atp642
a(S'in'
p643
(dp644
S'ADP'
p645
F1.0
s(lp646
(g68
I7
tp647
atp648
a(S'lettland'
p649
(dp650
S'NOUN'
p651
F0.9145650000000001
s(lp652
(g76
I8
tp653
atp654
a(S'die'
p655
(dp656
S'PRON'
p657
F0.000117
sS'DET'
p658
F0.999794
s(lp659
(g108
I13
tp660
atp661
a(S'mehrheit'
p662
(dp663
S'ADJ'
p664
F0.01437
sS'NOUN'
p665
F0.977596
s(lp666
(g115
I14
tp667
atp668
a(S'der'
p669
(dp670
S'PRON'
p671
F0.000126
sS'DET'
p672
F0.999761
s(lp673
(g123
I15
tp674
atp675
a(S'einwohner'
p676
(dp677
S'ADJ'
p678
F0.037532
sS'NOUN'
p679
F0.940639
s(lp680
(g130
I16
tp681
atp682
a(S'heutzutage'
p683
(dp684
S'ADV'
p685
F1.0
s(lp686
(g158
I18
tp687
atp688
a(S'schlechter'
p689
(dp690
S'ADJ'
p691
F1.0
s(lp692
(g185
I19
tp693
atp694
a(S'dran'
p695
(dp696
S'ADV'
p697
F0.96166
sS'PRT'
p698
F0.031858
s(lp699
(g368
I20
tp700
atp701
a(S'ist'
p702
(dp703
S'VERB'
p704
F1.0
s(lp705
tp706
a(S'als'
p707
(dp708
S'CONJ'
p709
F0.99998
s(lp710
(g194
I21
tp711
atp712
a(S'vor'
p713
(dp714
S'ADV'
p715
F0.025524
sS'ADP'
p716
F0.974437
s(lp717
(g203
I22
tp718
atp719
a(S'dem'
p720
(dp721
S'PRON'
p722
F0.454535
sS'DET'
p723
F0.541772
s(lp724
(g233
I25
tp725
atp726
a(S'beitritt'
p727
(dp728
S'VERB'
p729
F1.0
s(lp730
(g217
I23
tp731
atp732
a(S'zur'
p733
(dp734
S'ADP'
p735
F1.0
s(lp736
(g224
I24
tp737
atp738
a(S'europ\xc3\xa4ischen'
p739
(dp740
S'ADJ'
p741
F1.0
s(lp742
(g248
I26
tp743
atp744
a(S'union'
p745
(dp746
S'NOUN'
p747
F0.997077
s(lp748
(g240
I27
tp749
atp750
a(g81
(dp751
g81
F1.0
s(lp752
(g81
I28
tp753
atp754
asS'it'
p755
(lp756
(S'non'
p757
(dp758
S'ADV'
p759
F1.0
s(lp760
tp761
a(S'\xc3\xa8'
p762
(dp763
S'VERB'
p764
F1.0
s(lp765
(g22
I3
tp766
atp767
a(S'quindi'
p768
(dp769
S'ADV'
p770
F0.999974
sS'NOUN'
p771
F2.6e-05
s(lp772
(g29
I0
tp773
atp774
a(S'un'
p775
(dp776
S'PRON'
p777
F0.001057
sS'DEF'
p778
F0.998943
s(lp779
(g37
I4
tp780
atp781
a(S'caso'
p782
(dp783
S'NOUN'
p784
F1.0
s(lp785
(g51
I5
tp786
atp787
a(S'che'
p788
(dp789
S'PRON'
p790
F0.765511
sS'CONJ'
p791
F0.219295
sS'ADJ'
p792
F0.015194
s(lp793
(g60
I6
tp794
atp795
a(S'in'
p796
(dp797
S'ADP'
p798
F1.0
s(lp799
(g68
I7
tp800
atp801
a(S'lettonia'
p802
(dp803
S'NOUN'
p804
F1.0
s(lp805
(g76
I8
tp806
atp807
a(g79
(dp808
g81
F1.0
s(lp809
(g79
I9
tp810
atp811
a(S'ad'
p812
(dp813
S'ADP'
p814
F1.0
s(lp815
tp816
a(S'esempio'
p817
(dp818
S'NOUN'
p819
F1.0
s(lp820
(g95
I11
tp821
atp822
a(g79
(dp823
g81
F1.0
s(lp824
(g79
I12
tp825
atp826
a(S'la'
p827
(dp828
S'PRON'
p829
F0.000686
sS'DET'
p830
F0.999314
s(lp831
(g108
I13
tp832
atp833
a(S'maggioranza'
p834
(dp835
S'NOUN'
p836
F1.0
s(lp837
(g115
I14
tp838
atp839
a(S'degli'
p840
(dp841
S'DEF'
p842
F0.001796
sS'ADP'
p843
F0.998204
s(lp844
(g123
I15
tp845
atp846
a(S'abitanti'
p847
(dp848
S'VERB'
p849
F1.6e-05
sS'NOUN'
p850
F0.999984
s(lp851
(g130
I16
tp852
atp853
a(S'oggi'
p854
(dp855
S'ADV'
p856
F0.995263
sS'NOUN'
p857
F0.004737
s(lp858
(g158
I18
tp859
atp860
a(S'si'
p861
(dp862
S'PRON'
p863
F0.999997
sS'NOUN'
p864
F3e-06
s(lp865
(g142
I17
tp866
atp867
a(S'trovi'
p868
(dp869
S'VERB'
p870
F0.9999999999999999
s(lp871
(g185
I19
tp872
atp873
a(S'in'
p874
(dp875
S'ADP'
p876
F1.0
s(lp877
tp878
a(S'condizioni'
p879
(dp880
S'VERB'
p881
F0.0009119999999999999
sS'NOUN'
p882
F0.999088
s(lp883
tp884
a(S'finanziarie'
p885
(dp886
S'NOUN'
p887
F0.075978
sS'ADJ'
p888
F0.924022
s(lp889
(g368
I20
tp890
atp891
a(S'peggiori'
p892
(dp893
S'NOUN'
p894
F0.145413
sS'VERB'
p895
F0.147474
sS'ADJ'
p896
F0.707113
s(lp897
(g185
I19
tp898
atp899
a(S'rispetto'
p900
(dp901
S'VERB'
p902
F0.102854
sS'NOUN'
p903
F0.897146
s(lp904
tp905
a(S'al'
p906
(dp907
S'ADP'
p908
F1.0
s(lp909
(g194
I21
tp910
atp911
a(S'periodo'
p912
(dp913
S'VERB'
p914
F5.5e-05
sS'NOUN'
p915
F0.999945
s(lp916
tp917
a(S'antecedente'
p918
(dp919
S'NOUN'
p920
F0.057875
sS'ADJ'
p921
F0.942125
s(lp922
(g203
I22
tp923
atp924
a(S"l'"
p925
(dp926
S'NOUN'
p927
F0.269937
sS'VERB'
p928
F0.40454700000000005
sS'ADJ'
p929
F0.325515
s(lp930
tp931
a(S'adesione'
p932
(dp933
S'NOUN'
p934
F1.0
s(lp935
(g217
I23
tp936
atp937
a(S"all'"
p938
(dp939
S'ADJ'
p940
F0.040682
sS'VERB'
p941
F0.006560999999999999
sS'NOUN'
p942
F0.952757
s(lp943
(g224
I24
tp944
atp945
a(S'unione'
p946
(dp947
S'NOUN'
p948
F1.0
s(lp949
(g240
I27
tp950
atp951
a(S'europea'
p952
(dp953
S'NOUN'
p954
F0.001561
sS'ADJ'
p955
F0.998439
s(lp956
(g248
I26
tp957
atp958
a(g81
(dp959
g81
F1.0
s(lp960
(g81
I28
tp961
atp962
asS'sk'
p963
(lp964
(S'nie'
p965
(dp966
g278
F1.0
s(lp967
(g37
I4
tp968
atp969
a(S'je'
p970
(dp971
S'PRON'
p972
F3.3e-05
sS'VERB'
p973
F0.999925
sg278
F4.2e-05
s(lp974
(g22
I3
tp975
atp976
a(S'preto'
p977
(dp978
S'PRON'
p979
F0.513857
sS'CONJ'
p980
F0.368546
sg278
F0.117597
s(lp981
(g29
I0
tp982
atp983
a(S'n\xc3\xa1hoda'
p984
(dp985
S'NOUN'
p986
F1.0
s(lp987
(g51
I5
tp988
atp989
a(g79
(dp990
g81
F1.0
s(lp991
(g79
I12
tp992
atp993
a(S'\xc5\xbee'
p994
(dp995
g278
F0.000849
sS'CONJ'
p996
F0.99915
s(lp997
(g60
I6
tp998
atp999
a(S'napr\xc3\xadklad'
p1000
(dp1001
g278
F1.0
s(lp1002
(g95
I11
tp1003
atp1004
a(S'v'
p1005
(dp1006
g278
F0.000177
sS'ADP'
p1007
F0.999822
s(lp1008
(g68
I7
tp1009
atp1010
a(S'loty\xc5\xa1sku'
p1011
(dp1012
S'ADJ'
p1013
F0.357391
sS'NOUN'
p1014
F0.642609
s(lp1015
(g76
I8
tp1016
atp1017
a(S'sa'
p1018
(dp1019
S'PRT'
p1020
F0.999881
sS'ADP'
p1021
F0.0
sg278
F0.000119
s(lp1022
tp1023
a(S'm\xc3\xa1'
p1024
(dp1025
g278
F1e-06
sS'VERB'
p1026
F0.999999
s(lp1027
(g142
I17
tp1028
atp1029
a(S'dnes'
p1030
(dp1031
S'ADV'
p1032
F0.997244
sg278
F0.002756
s(lp1033
(g158
I18
tp1034
atp1035
a(S'v\xc3\xa4\xc4\x8d\xc5\xa1ina'
p1036
(dp1037
S'NOUN'
p1038
F1.0
s(lp1039
(g115
I14
tp1040
atp1041
a(S'obyvate\xc4\xbeov'
p1042
(dp1043
S'NOUN'
p1044
F1.0
s(lp1045
(g130
I16
tp1046
atp1047
a(S'hor\xc5\xa1ie'
p1048
(dp1049
S'ADV'
p1050
F0.033047
sS'ADJ'
p1051
F0.9669530000000001
s(lp1052
(g185
I19
tp1053
atp1054
a(S'ne\xc5\xbe'
p1055
(dp1056
S'CONJ'
p1057
F1.0
s(lp1058
(g194
I21
tp1059
atp1060
a(S'pred'
p1061
(dp1062
g278
F0.000144
sS'ADP'
p1063
F0.999856
s(lp1064
(g203
I22
tp1065
atp1066
a(S'vstupom'
p1067
(dp1068
S'NOUN'
p1069
F1.0
s(lp1070
(g217
I23
tp1071
atp1072
a(S'do'
p1073
(dp1074
g278
F0.000127
sS'ADP'
p1075
F0.999789
sS'PRON'
p1076
F8.4e-05
s(lp1077
(g224
I24
tp1078
atp1079
a(S'eur\xc3\xb3pskej'
p1080
(dp1081
S'ADJ'
p1082
F1.0
s(lp1083
(g248
I26
tp1084
atp1085
a(S'\xc3\xbanie'
p1086
(dp1087
S'NOUN'
p1088
F1.0
s(lp1089
(g240
I27
tp1090
atp1091
a(g81
(dp1092
g81
F1.0
s(lp1093
(g81
I28
tp1094
atp1095
asS'pl'
p1096
(lp1097
(S'dlatego'
p1098
(dp1099
S'ADV'
p1100
F1.0
s(lp1101
(g29
I0
tp1102
atp1103
a(S'to'
p1104
(dp1105
S'NOUN'
p1106
F0.166485
sS'ADP'
p1107
F1.4e-05
sS'PRT'
p1108
F0.163431
sg278
F1.1e-05
sS'CONJ'
p1109
F0.069986
sS'ADJ'
p1110
F0.600074
s(lp1111
(g7
I2
tp1112
atp1113
a(S'nie'
p1114
(dp1115
S'ADV'
p1116
F8.8e-05
sS'PRT'
p1117
F0.971221
sS'CONJ'
p1118
F0.028249
sS'NOUN'
p1119
F0.00011
sS'PRON'
p1120
F0.000332
s(lp1121
(g37
I4
tp1122
atp1123
a(S'przypadek'
p1124
(dp1125
S'NOUN'
p1126
F1.0
s(lp1127
(g51
I5
tp1128
atp1129
a(g79
(dp1130
g278
F0.0
sg81
F1.0
s(lp1131
(g79
I1
tp1132
atp1133
a(S'\xc5\xbce'
p1134
(dp1135
S'PRT'
p1136
F0.000536
sS'CONJ'
p1137
F0.999463
s(lp1138
(g60
I6
tp1139
atp1140
a(S'na'
p1141
(dp1142
g278
F1.4e-05
sS'VERB'
p1143
F1e-06
sS'NOUN'
p1144
F1e-06
sS'ADP'
p1145
F0.999981
sS'PRT'
p1146
F2e-06
s(lp1147
(g68
I7
tp1148
atp1149
a(S'\xc5\x81otwie'
p1150
(dp1151
S'NOUN'
p1152
F1.0
s(lp1153
(g76
I8
tp1154
atp1155
a(S'na'
p1156
(dp1157
g278
F7e-06
sS'VERB'
p1158
F4.1e-05
sS'NOUN'
p1159
F1e-06
sS'ADP'
p1160
F0.999946
sS'PRT'
p1161
F5e-06
s(lp1162
(g166
I10
tp1163
atp1164
a(S'przyk\xc5\x82ad'
p1165
(dp1166
S'NOUN'
p1167
F1.0
s(lp1168
(g95
I11
tp1169
atp1170
a(S'wi\xc4\x99kszo\xc5\x9b\xc4\x87'
p1171
(dp1172
S'NOUN'
p1173
F1.0
s(lp1174
(g115
I14
tp1175
atp1176
a(S'mieszka\xc5\x84c\xc3\xb3w'
p1177
(dp1178
S'NOUN'
p1179
F1.0
s(lp1180
(g130
I16
tp1181
atp1182
a(S'znajduje'
p1183
(dp1184
S'VERB'
p1185
F1.0
s(lp1186
tp1187
a(S'si\xc4\x99'
p1188
(dp1189
S'PRT'
p1190
F1.0
s(lp1191
(g142
I17
tp1192
atp1193
a(S'dzi\xc5\x9b'
p1194
(dp1195
S'ADV'
p1196
F0.95337
sS'NOUN'
p1197
F0.04663
s(lp1198
(g158
I18
tp1199
atp1200
a(S'w'
p1201
(dp1202
S'ADJ'
p1203
F0.0
sg278
F0.0
sS'NOUN'
p1204
F1e-06
sS'ADP'
p1205
F0.999999
s(lp1206
tp1207
a(S'gorszej'
p1208
(dp1209
S'ADJ'
p1210
F1.0
s(lp1211
tp1212
a(S'sytuacji'
p1213
(dp1214
S'NOUN'
p1215
F1.0
s(lp1216
(g185
I19
tp1217
atp1218
a(S'ni\xc5\xbc'
p1219
(dp1220
S'CONJ'
p1221
F0.991625
sS'NOUN'
p1222
F0.000595
sS'ADP'
p1223
F0.007781
s(lp1224
(g194
I21
tp1225
atp1226
a(S'przed'
p1227
(dp1228
S'ADP'
p1229
F1.0
s(lp1230
(g203
I22
tp1231
atp1232
a(S'przyst\xc4\x85pieniem'
p1233
(dp1234
S'VERB'
p1235
F1.0
s(lp1236
(g217
I23
tp1237
atp1238
a(S'do'
p1239
(dp1240
g278
F0.0
sS'NOUN'
p1241
F2e-06
sS'ADP'
p1242
F0.999999
s(lp1243
(g224
I24
tp1244
atp1245
a(S'unii'
p1246
(dp1247
S'NOUN'
p1248
F1.0
s(lp1249
(g240
I27
tp1250
atp1251
a(S'europejskiej'
p1252
(dp1253
S'ADJ'
p1254
F1.000001
s(lp1255
(g248
I26
tp1256
atp1257
a(g81
(dp1258
g81
F1.0
s(lp1259
(g81
I28
tp1260
atp1261
asS'sl'
p1262
(lp1263
(S'zato'
p1264
(dp1265
S'ADV'
p1266
F0.721971
sS'CONJ'
p1267
F0.278029
s(lp1268
(g29
I0
tp1269
atp1270
a(S'ni'
p1271
(dp1272
S'VERB'
p1273
F1.0
s(lp1274
(g37
I4
tp1275
atp1276
a(S'naklju\xc4\x8dje'
p1277
(dp1278
S'NOUN'
p1279
F1.0
s(lp1280
(g51
I5
tp1281
atp1282
a(g79
(dp1283
g81
F1.0
s(lp1284
(g79
I1
tp1285
atp1286
a(S'da'
p1287
(dp1288
S'PRT'
p1289
F4e-06
sS'CONJ'
p1290
F0.999979
sS'VERB'
p1291
F1.7e-05
sg278
F1e-06
s(lp1292
(g60
I6
tp1293
atp1294
a(S'je'
p1295
(dp1296
S'PRON'
p1297
F0.004239
sS'VERB'
p1298
F0.99576
sg278
F1e-06
s(lp1299
(g22
I3
tp1300
atp1301
a(S'na'
p1302
(dp1303
S'ADP'
p1304
F1.0
s(lp1305
tp1306
a(S'primer'
p1307
(dp1308
S'NOUN'
p1309
F1.0
s(lp1310
(g95
I11
tp1311
atp1312
a(g1005
(dp1313
S'ADP'
p1314
F1.0
s(lp1315
(g68
I7
tp1316
atp1317
a(S'latviji'
p1318
(dp1319
S'ADJ'
p1320
F0.000301
sS'NOUN'
p1321
F0.999699
s(lp1322
(g76
I8
tp1323
atp1324
a(S've\xc4\x8dina'
p1325
(dp1326
S'NOUN'
p1327
F1.0
s(lp1328
(g115
I14
tp1329
atp1330
a(S'prebivalcev'
p1331
(dp1332
S'NOUN'
p1333
F1.0
s(lp1334
(g130
I16
tp1335
atp1336
a(S'danes'
p1337
(dp1338
S'ADV'
p1339
F1.0
s(lp1340
(g158
I18
tp1341
atp1342
a(g1005
(dp1343
S'ADP'
p1344
F1.0
s(lp1345
(g166
I10
tp1346
atp1347
a(S'slab\xc5\xa1em'
p1348
(dp1349
S'ADJ'
p1350
F1.0
s(lp1351
(g185
I19
tp1352
atp1353
a(S'polo\xc5\xbeaju'
p1354
(dp1355
S'NOUN'
p1356
F1.0
s(lp1357
(g368
I20
tp1358
atp1359
a(S'kot'
p1360
(dp1361
S'CONJ'
p1362
F0.978964
sS'NOUN'
p1363
F0.021036
s(lp1364
(g194
I21
tp1365
atp1366
a(S'pred'
p1367
(dp1368
S'ADP'
p1369
F1.0
s(lp1370
(g203
I22
tp1371
atp1372
a(S'vstopom'
p1373
(dp1374
S'NOUN'
p1375
F1.0
s(lp1376
(g217
I23
tp1377
atp1378
a(g1005
(dp1379
S'ADP'
p1380
F1.0
s(lp1381
(g224
I24
tp1382
atp1383
a(S'evropsko'
p1384
(dp1385
S'ADV'
p1386
F0.000229
sS'ADJ'
p1387
F0.9997720000000001
s(lp1388
(g248
I26
tp1389
atp1390
a(S'unijo'
p1391
(dp1392
S'NOUN'
p1393
F1.0
s(lp1394
(g240
I27
tp1395
atp1396
a(g81
(dp1397
g81
F1.0
s(lp1398
(g81
I28
tp1399
atp1400
asS'es'
p1401
(lp1402
(S'por'
p1403
(dp1404
S'CONJ'
p1405
F1.0
s(lp1406
tp1407
a(S'tanto'
p1408
(dp1409
S'CONJ'
p1410
F1.0
s(lp1411
(g29
I0
tp1412
atp1413
a(g79
(dp1414
g81
F1.0
s(lp1415
(g79
I1
tp1416
atp1417
a(S'no'
p1418
(dp1419
S'ADV'
p1420
F1.0
sg278
F0.0
s(lp1421
(g37
I4
tp1422
atp1423
a(S'es'
p1424
(dp1425
S'VERB'
p1426
F1.0
s(lp1427
(g22
I3
tp1428
atp1429
a(S'casualidad'
p1430
(dp1431
S'NOUN'
p1432
F1.0
s(lp1433
(g51
I5
tp1434
atp1435
a(S'que'
p1436
(dp1437
g278
F6e-05
sS'CONJ'
p1438
F0.99994
s(lp1439
(g60
I6
tp1440
atp1441
a(S'en'
p1442
(dp1443
g278
F4e-06
sS'CONJ'
p1444
F7.3e-05
sS'ADP'
p1445
F0.999923
s(lp1446
(g68
I7
tp1447
atp1448
a(S'letonia'
p1449
(dp1450
S'ADV'
p1451
F0.054318
sS'ADJ'
p1452
F0.065911
sS'NOUN'
p1453
F0.879771
s(lp1454
(g76
I8
tp1455
atp1456
a(g79
(dp1457
g81
F1.0
s(lp1458
(g79
I9
tp1459
atp1460
a(S'por'
p1461
(dp1462
S'ADV'
p1463
F1.0
s(lp1464
(g166
I10
tp1465
atp1466
a(S'ejemplo'
p1467
(dp1468
S'ADV'
p1469
F1.0
s(lp1470
(g95
I11
tp1471
atp1472
a(g79
(dp1473
g81
F1.0
s(lp1474
(g79
I12
tp1475
atp1476
a(S'la'
p1477
(dp1478
S'PRON'
p1479
F3.5e-05
sS'DET'
p1480
F0.999959
sS'NOUN'
p1481
F0.0
sg278
F5e-06
s(lp1482
(g108
I13
tp1483
atp1484
a(S'mayor\xc3\xada'
p1485
(dp1486
S'NOUN'
p1487
F1.0
s(lp1488
(g115
I14
tp1489
atp1490
a(S'de'
p1491
(dp1492
g278
F0.0
sS'CONJ'
p1493
F0.000289
sS'ADP'
p1494
F0.999711
s(lp1495
(g123
I15
tp1496
atp1497
a(S'sus'
p1498
(dp1499
S'PRON'
p1500
F1.0
s(lp1501
tp1502
a(S'habitantes'
p1503
(dp1504
S'NOUN'
p1505
F1.0
s(lp1506
(g130
I16
tp1507
atp1508
a(S'se'
p1509
(dp1510
S'PRON'
p1511
F1.0
sS'VERB'
p1512
F0.0
s(lp1513
tp1514
a(S'encuentren'
p1515
(dp1516
S'VERB'
p1517
F1.0
s(lp1518
(g142
I17
tp1519
atp1520
a(S'en'
p1521
(dp1522
g278
F0.0
sS'CONJ'
p1523
F1e-06
sS'ADP'
p1524
F0.999999
s(lp1525
(g158
I18
tp1526
atp1527
a(S'una'
p1528
(dp1529
S'DET'
p1530
F1.0
s(lp1531
tp1532
a(S'situaci\xc3\xb3n'
p1533
(dp1534
S'NOUN'
p1535
F1.0
s(lp1536
tp1537
a(S'peor'
p1538
(dp1539
S'NOUN'
p1540
F0.003785
sS'ADJ'
p1541
F0.996215
s(lp1542
(g185
I19
tp1543
atp1544
a(S'que'
p1545
(dp1546
g278
F0.0
sS'CONJ'
p1547
F1.0
s(lp1548
(g194
I21
tp1549
atp1550
a(S'antes'
p1551
(dp1552
S'ADV'
p1553
F0.999477
sS'NOUN'
p1554
F0.000523
s(lp1555
(g203
I22
tp1556
atp1557
a(S'de'
p1558
(dp1559
g278
F0.0
sS'CONJ'
p1560
F0.000119
sS'ADP'
p1561
F0.999881
s(lp1562
tp1563
a(S'la'
p1564
(dp1565
S'NOUN'
p1566
F0.0
sS'PRON'
p1567
F0.0
sS'DET'
p1568
F0.999999
sg278
F0.0
s(lp1569
tp1570
a(S'adhesi\xc3\xb3n'
p1571
(dp1572
S'NOUN'
p1573
F1.0
s(lp1574
(g217
I23
tp1575
atp1576
a(S'a'
p1577
(dp1578
g278
F0.000427
sS'CONJ'
p1579
F3e-06
sS'ADP'
p1580
F0.99957
s(lp1581
(g224
I24
tp1582
atp1583
a(S'la'
p1584
(dp1585
g278
F0.0
sS'PRON'
p1586
F0.0
sS'DET'
p1587
F0.999999
sS'NOUN'
p1588
F0.0
s(lp1589
(g233
I25
tp1590
atp1591
a(S'uni\xc3\xb3n'
p1592
(dp1593
S'NOUN'
p1594
F1.0
s(lp1595
(g240
I27
tp1596
atp1597
a(S'europea'
p1598
(dp1599
S'ADJ'
p1600
F1.0
s(lp1601
(g248
I26
tp1602
atp1603
a(g81
(dp1604
g81
F1.0
s(lp1605
(g81
I28
tp1606
atp1607
as.