(dp0
S'fr'
p1
(lp2
(S'deuxi\xc3\xa8mement'
p3
(dp4
S'ADV'
p5
F1.0
s(lp6
(S'secondly'
p7
I0
tp8
atp9
a(S','
p10
(dp11
S'.'
p12
F1.0
s(lp13
(g10
I1
tp14
atp15
a(S'la'
p16
(dp17
S'PRON'
p18
F6.9e-05
sS'DET'
p19
F0.999931
sS'NOUN'
p20
F0.0
s(lp21
(S'the'
p22
I2
tp23
atp24
a(S'commission'
p25
(dp26
S'NOUN'
p27
F1.0
s(lp28
(S'committee'
p29
I3
tp30
atp31
a(S'a'
p32
(dp33
S'VERB'
p34
F1.0
s(lp35
tp36
a(S'estim\xc3\xa9'
p37
(dp38
S'VERB'
p39
F1.0
s(lp40
(S'felt'
p41
I4
tp42
atp43
a(S'que'
p44
(dp45
S'ADV'
p46
F0.037859
sS'PRON'
p47
F0.0074010000000000005
sS'CONJ'
p48
F0.95474
s(lp49
(S'that'
p50
I5
tp51
atp52
a(S'le'
p53
(dp54
S'PRON'
p55
F0.017516
sS'DET'
p56
F0.982484
s(lp57
(S'the'
p58
I6
tp59
atp60
a(S'contenu'
p61
(dp62
S'VERB'
p63
F0.021753
sS'NOUN'
p64
F0.978247
s(lp65
(S'content'
p66
I7
tp67
atp68
a(S'de'
p69
(dp70
S'ADP'
p71
F1.0
s(lp72
(S'of'
p73
I8
tp74
atp75
a(S'ces'
p76
(dp77
S'PRON'
p78
F1.0
s(lp79
(S'these'
p80
I9
tp81
atp82
a(S'accords'
p83
(dp84
S'NOUN'
p85
F1.0
s(lp86
(S'agreements'
p87
I10
tp88
atp89
a(S'devait'
p90
(dp91
S'VERB'
p92
F1.0
s(lp93
(S'should'
p94
I11
tp95
atp96
a(S'\xc3\xaatre'
p97
(dp98
S'VERB'
p99
F0.997202
sS'NOUN'
p100
F0.002798
s(lp101
(S'been'
p102
I13
tp103
atp104
a(S'analys\xc3\xa9'
p105
(dp106
S'VERB'
p107
F1.0
s(lp108
(S'analysed'
p109
I14
tp110
atp111
a(S'davantage'
p112
(dp113
S'ADV'
p114
F1.0
s(lp115
(S'greater'
p116
I16
tp117
atp118
a(S'sur'
p119
(dp120
S'ADP'
p121
F1.0
s(lp122
(S'on'
p123
I41
tp124
atp125
a(S'le'
p126
(dp127
S'PRON'
p128
F0.000487
sS'DET'
p129
F0.999513
s(lp130
(S'the'
p131
I39
tp132
atp133
a(S'fond'
p134
(dp135
S'VERB'
p136
F0.000458
sS'NOUN'
p137
F0.999542
s(lp138
(S'detail'
p139
I17
tp140
atp141
a(g10
(dp142
g12
F1.0
s(lp143
(g10
I18
tp144
atp145
a(S'en'
p146
(dp147
S'PRON'
p148
F0.005807
sS'ADP'
p149
F0.994193
s(lp150
(S'in'
p151
I19
tp152
atp153
a(S'termes'
p154
(dp155
S'NOUN'
p156
F1.0
s(lp157
(S'terms'
p158
I20
tp159
atp160
a(S'de'
p161
(dp162
S'ADP'
p163
F1.0
s(lp164
(S'for'
p165
I24
tp166
atp167
a(S'surveillance'
p168
(dp169
S'NOUN'
p170
F1.0
s(lp171
(S'monitoring'
p172
I25
tp173
atp174
a(S'de'
p175
(dp176
S'ADP'
p177
F1.0
s(lp178
(S'of'
p179
I21
tp180
atp181
a(S'la'
p182
(dp183
S'PRON'
p184
F1.2e-05
sS'DET'
p185
F0.999988
sS'NOUN'
p186
F0.0
s(lp187
(S'the'
p188
I22
tp189
atp190
a(S'r\xc3\xa9alit\xc3\xa9'
p191
(dp192
S'NOUN'
p193
F1.0
s(lp194
(S'actual'
p195
I26
tp196
atp197
a(S'des'
p198
(dp199
S'DET'
p200
F2.1e-05
sS'ADP'
p201
F0.999979
s(lp202
(S'provisions'
p203
I23
tp204
atp205
a(S'prises'
p206
(dp207
S'ADJ'
p208
F0.072722
sS'VERB'
p209
F0.102423
sS'NOUN'
p210
F0.824855
s(lp211
tp212
a(S'effectu\xc3\xa9es'
p213
(dp214
S'VERB'
p215
F1.0
s(lp216
(S'catch'
p217
I27
tp218
atp219
a(S'et'
p220
(dp221
S'CONJ'
p222
F1.0
s(lp223
(S'and'
p224
I29
tp225
atp226
a(S'de'
p227
(dp228
S'ADP'
p229
F1.0
s(lp230
tp231
a(S'protection'
p232
(dp233
S'NOUN'
p234
F1.0
s(lp235
(S'protecting'
p236
I30
tp237
atp238
a(S'des'
p239
(dp240
S'DET'
p241
F2.1e-05
sS'ADP'
p242
F0.999979
s(lp243
tp244
a(S'ressources'
p245
(dp246
S'VERB'
p247
F0.0
sS'NOUN'
p248
F1.0
s(lp249
(S'stocks'
p250
I32
tp251
atp252
a(S'halieutiques'
p253
(dp254
S'ADJ'
p255
F1.0
s(lp256
(S'fish'
p257
I31
tp258
atp259
a(S'face'
p260
(dp261
S'NOUN'
p262
F1.0
s(lp263
(S'view'
p264
I34
tp265
atp266
a(S'\xc3\xa0'
p267
(dp268
S'ADP'
p269
F1.0
s(lp270
(S'of'
p271
I35
tp272
atp273
a(S'la'
p274
(dp275
S'PRON'
p276
F1.2e-05
sS'DET'
p277
F0.999988
sS'NOUN'
p278
F0.0
s(lp279
(S'the'
p280
I36
tp281
atp282
a(S'pression'
p283
(dp284
S'NOUN'
p285
F1.0
s(lp286
(S'pressure'
p287
I37
tp288
atp289
a(S'de'
p290
(dp291
S'ADP'
p292
F1.0
s(lp293
(S'from'
p294
I38
tp295
atp296
a(S'pech'
p297
(dp298
S'ADJ'
p299
F0.042282
sS'NOUN'
p300
F0.957718
s(lp301
(S'fisheries'
p302
I42
tp303
atp304
a(g10
(dp305
g12
F1.0
s(lp306
tp307
a(S'et'
p308
(dp309
S'CONJ'
p310
F1.0
s(lp311
(S'and'
p312
I43
tp313
atp314
a(S'aussi'
p315
(dp316
S'ADV'
p317
F0.994666
sS'CONJ'
p318
F0.005334
s(lp319
(S'also'
p320
I44
tp321
atp322
a(S'pour'
p323
(dp324
S'CONJ'
p325
F0.258701
sS'ADP'
p326
F0.741299
s(lp327
(S'to'
p328
I45
tp329
atp330
a(S"s'"
p331
(dp332
S'ADJ'
p333
F0.134145
sS'VERB'
p334
F0.27869299999999997
sS'NOUN'
p335
F0.587162
s(lp336
tp337
a(S'assurer'
p338
(dp339
S'VERB'
p340
F1.0
s(lp341
(S'ensure'
p342
I46
tp343
atp344
a(S'que'
p345
(dp346
S'ADV'
p347
F0.024584
sS'PRON'
p348
F0.025891
sS'CONJ'
p349
F0.949525
s(lp350
(S'that'
p351
I47
tp352
atp353
a(S'le'
p354
(dp355
S'PRON'
p356
F0.000571
sS'DET'
p357
F0.999429
s(lp358
(S'the'
p359
I48
tp360
atp361
a(S'volet'
p362
(dp363
S'NOUN'
p364
F1.0
s(lp365
(S'component'
p366
I51
tp367
atp368
a(S'd\xc3\xa9veloppement'
p369
(dp370
S'NOUN'
p371
F1.0
s(lp372
(S'development'
p373
I50
tp374
atp375
a(S'local'
p376
(dp377
S'NOUN'
p378
F0.017216
sS'ADJ'
p379
F0.982784
s(lp380
(S'local'
p381
I49
tp382
atp383
a(S'de'
p384
(dp385
S'ADP'
p386
F1.0
s(lp387
(S'of'
p388
I52
tp389
atp390
a(S'ces'
p391
(dp392
S'PRON'
p393
F1.0
s(lp394
(S'the'
p395
I53
tp396
atp397
a(S'accords'
p398
(dp399
S'NOUN'
p400
F1.0
s(lp401
(S'agreements'
p402
I54
tp403
atp404
a(S'est'
p405
(dp406
S'VERB'
p407
F0.999063
sS'NOUN'
p408
F0.000937
s(lp409
(S'is'
p410
I55
tp411
atp412
a(S'effectif'
p413
(dp414
S'NOUN'
p415
F0.025338
sS'ADJ'
p416
F0.974662
s(lp417
(S'practice'
p418
I59
tp419
atp420
a(S'et'
p421
(dp422
S'CONJ'
p423
F1.0
s(lp424
tp425
a(S'correctement'
p426
(dp427
S'ADV'
p428
F1.0
s(lp429
(S'properly'
p430
I56
tp431
atp432
a(S'appliqu\xc3\xa9'
p433
(dp434
S'VERB'
p435
F0.741685
sS'ADJ'
p436
F0.258315
s(lp437
(S'applied'
p438
I57
tp439
atp440
a(g12
(dp441
g12
F1.0
s(lp442
(g12
I60
tp443
atp444
asS'en'
p445
(lp446
(g7
(dp447
S'ADV'
p448
F1.0
s(lp449
(g7
I0
tp450
atp451
a(g10
(dp452
g12
F1.0
s(lp453
(g10
I1
tp454
atp455
a(g22
(dp456
S'NOUN'
p457
F4e-06
sS'DET'
p458
F0.999996
s(lp459
(g22
I2
tp460
atp461
a(g29
(dp462
S'NOUN'
p463
F1.0
s(lp464
(g29
I3
tp465
atp466
a(g41
(dp467
S'VERB'
p468
F0.998404
sS'NOUN'
p469
F0.001596
s(lp470
(g41
I4
tp471
atp472
a(g50
(dp473
S'ADV'
p474
F0.000395
sS'DET'
p475
F0.001971
sS'ADP'
p476
F0.997634
s(lp477
(g50
I5
tp478
atp479
a(g58
(dp480
S'NOUN'
p481
F2e-06
sS'DET'
p482
F0.999998
s(lp483
(g58
I6
tp484
atp485
a(g66
(dp486
S'ADJ'
p487
F0.117999
sS'VERB'
p488
F0.000257
sS'NOUN'
p489
F0.881743
s(lp490
(g66
I7
tp491
atp492
a(g73
(dp493
S'ADP'
p494
F1.0
s(lp495
(g73
I8
tp496
atp497
a(g80
(dp498
S'NOUN'
p499
F2e-06
sS'DET'
p500
F0.999998
s(lp501
(g80
I9
tp502
atp503
a(g87
(dp504
S'NOUN'
p505
F1.0
s(lp506
(g87
I10
tp507
atp508
a(g94
(dp509
S'VERB'
p510
F1.0
s(lp511
(g94
I11
tp512
atp513
a(S'have'
p514
(dp515
S'VERB'
p516
F1.0
s(lp517
(g514
I12
tp518
atp519
a(g102
(dp520
S'VERB'
p521
F1.0
s(lp522
(g102
I13
tp523
atp524
a(g109
(dp525
S'VERB'
p526
F1.0
s(lp527
(g109
I14
tp528
atp529
a(S'in'
p530
(dp531
S'ADV'
p532
F0.00256
sS'PRT'
p533
F0.013288
sS'ADP'
p534
F0.984153
s(lp535
(g530
I15
tp536
atp537
a(g116
(dp538
S'ADJ'
p539
F1.0
s(lp540
(g116
I16
tp541
atp542
a(g139
(dp543
S'VERB'
p544
F0.0
sS'NOUN'
p545
F0.999999
s(lp546
(g139
I17
tp547
atp548
a(g10
(dp549
g12
F1.0
s(lp550
(g10
I18
tp551
atp552
a(g151
(dp553
S'ADV'
p554
F0.000561
sS'PRT'
p555
F1e-06
sS'ADP'
p556
F0.999439
s(lp557
(g151
I19
tp558
atp559
a(g158
(dp560
S'VERB'
p561
F7e-06
sS'NOUN'
p562
F0.9999929999999999
s(lp563
(g158
I20
tp564
atp565
a(g179
(dp566
S'ADP'
p567
F1.0
s(lp568
(g179
I21
tp569
atp570
a(g188
(dp571
S'NOUN'
p572
F1.1e-05
sS'DET'
p573
F0.999989
s(lp574
(g188
I22
tp575
atp576
a(g203
(dp577
S'VERB'
p578
F6.9e-05
sS'NOUN'
p579
F0.999931
s(lp580
(g203
I23
tp581
atp582
a(g165
(dp583
S'ADP'
p584
F1.0
s(lp585
(g165
I24
tp586
atp587
a(g172
(dp588
S'VERB'
p589
F0.949053
sS'NOUN'
p590
F0.050947
s(lp591
(g172
I25
tp592
atp593
a(g195
(dp594
S'ADJ'
p595
F1.0
s(lp596
(g195
I26
tp597
atp598
a(g217
(dp599
S'VERB'
p600
F0.0020770000000000003
sS'NOUN'
p601
F0.997923
s(lp602
(g217
I27
tp603
atp604
a(S'quantities'
p605
(dp606
S'NOUN'
p607
F1.0
s(lp608
(g605
I28
tp609
atp610
a(g224
(dp611
S'CONJ'
p612
F1.0
sS'NOUN'
p613
F0.0
s(lp614
(g224
I29
tp615
atp616
a(g236
(dp617
S'VERB'
p618
F1.0
s(lp619
(g236
I30
tp620
atp621
a(g257
(dp622
S'VERB'
p623
F0.003347
sS'NOUN'
p624
F0.996654
s(lp625
(g257
I31
tp626
atp627
a(g250
(dp628
S'VERB'
p629
F0.000543
sS'NOUN'
p630
F0.999457
s(lp631
(g250
I32
tp632
atp633
a(S'in'
p634
(dp635
S'ADV'
p636
F0.000265
sS'PRT'
p637
F0.000177
sS'ADP'
p638
F0.999559
s(lp639
(g634
I33
tp640
atp641
a(g264
(dp642
S'VERB'
p643
F0.0010659999999999999
sS'NOUN'
p644
F0.998934
s(lp645
(g264
I34
tp646
atp647
a(g271
(dp648
S'ADP'
p649
F1.0
s(lp650
(g271
I35
tp651
atp652
a(g280
(dp653
S'NOUN'
p654
F1e-06
sS'DET'
p655
F0.999999
s(lp656
(g280
I36
tp657
atp658
a(g287
(dp659
S'VERB'
p660
F0.00017999999999999998
sS'NOUN'
p661
F0.999821
s(lp662
(g287
I37
tp663
atp664
a(g294
(dp665
S'ADP'
p666
F1.0
s(lp667
(g294
I38
tp668
atp669
a(g131
(dp670
S'NOUN'
p671
F1e-06
sS'DET'
p672
F0.999999
s(lp673
(g131
I39
tp674
atp675
a(S'committee'
p676
(dp677
S'NOUN'
p678
F1.0
s(lp679
(g676
I40
tp680
atp681
a(g123
(dp682
S'ADV'
p683
F0.00015
sS'PRT'
p684
F0.000621
sS'ADJ'
p685
F8e-06
sS'NOUN'
p686
F1e-05
sS'ADP'
p687
F0.99921
s(lp688
(g123
I41
tp689
atp690
a(g302
(dp691
S'NOUN'
p692
F1.0
s(lp693
(g302
I42
tp694
atp695
a(g312
(dp696
S'CONJ'
p697
F1.0
sS'NOUN'
p698
F0.0
s(lp699
(g312
I43
tp700
atp701
a(g320
(dp702
S'ADV'
p703
F1.0
s(lp704
(g320
I44
tp705
atp706
a(g328
(dp707
S'ADV'
p708
F0.0
sS'PRT'
p709
F1.0
sS'ADP'
p710
F0.0
s(lp711
(g328
I45
tp712
atp713
a(g342
(dp714
S'VERB'
p715
F1.0
s(lp716
(g342
I46
tp717
atp718
a(g351
(dp719
S'ADV'
p720
F0.000569
sS'DET'
p721
F0.017934000000000002
sS'ADP'
p722
F0.981497
s(lp723
(g351
I47
tp724
atp725
a(g359
(dp726
S'NOUN'
p727
F1e-06
sS'DET'
p728
F0.999999
s(lp729
(g359
I48
tp730
atp731
a(g381
(dp732
S'NOUN'
p733
F0.002078
sS'ADJ'
p734
F0.997922
s(lp735
(g381
I49
tp736
atp737
a(g373
(dp738
S'NOUN'
p739
F1.0
s(lp740
(g373
I50
tp741
atp742
a(g366
(dp743
S'ADJ'
p744
F0.002508
sS'NOUN'
p745
F0.997492
s(lp746
(g366
I51
tp747
atp748
a(g388
(dp749
S'ADP'
p750
F1.0
s(lp751
(g388
I52
tp752
atp753
a(g395
(dp754
S'NOUN'
p755
F1.1e-05
sS'DET'
p756
F0.999989
s(lp757
(g395
I53
tp758
atp759
a(g402
(dp760
S'NOUN'
p761
F1.0
s(lp762
(g402
I54
tp763
atp764
a(g410
(dp765
S'VERB'
p766
F1.0
s(lp767
(g410
I55
tp768
atp769
a(g430
(dp770
S'ADV'
p771
F1.0
s(lp772
(g430
I56
tp773
atp774
a(g438
(dp775
S'VERB'
p776
F0.989593
sS'ADJ'
p777
F0.010407
s(lp778
(g438
I57
tp779
atp780
a(S'in'
p781
(dp782
S'ADV'
p783
F0.000257
sS'PRT'
p784
F0.002843
sS'ADP'
p785
F0.9969
s(lp786
(g781
I58
tp787
atp788
a(g418
(dp789
S'VERB'
p790
F0.000245
sS'NOUN'
p791
F0.999755
s(lp792
(g418
I59
tp793
atp794
a(g12
(dp795
g12
F1.0
s(lp796
(g12
I60
tp797
atp798
asS'nl'
p799
(lp800
(S'ten'
p801
(dp802
S'ADP'
p803
F1.0
s(lp804
tp805
a(S'tweede'
p806
(dp807
S'NUM'
p808
F1.0
s(lp809
(g7
I0
tp810
atp811
a(S'vindt'
p812
(dp813
S'VERB'
p814
F1.0
s(lp815
(g41
I4
tp816
atp817
a(S'de'
p818
(dp819
S'DET'
p820
F1.0
s(lp821
(g22
I2
tp822
atp823
a(S'commissie'
p824
(dp825
S'NOUN'
p826
F1.0
s(lp827
(g29
I3
tp828
atp829
a(S'dat'
p830
(dp831
S'PRON'
p832
F0.041986
sS'CONJ'
p833
F0.958014
s(lp834
(g50
I5
tp835
atp836
a(S'de'
p837
(dp838
S'DET'
p839
F1.0
s(lp840
(g58
I6
tp841
atp842
a(S'inhoud'
p843
(dp844
S'VERB'
p845
F4e-06
sS'NOUN'
p846
F0.999996
s(lp847
(g66
I7
tp848
atp849
a(S'van'
p850
(dp851
S'ADP'
p852
F1.0
s(lp853
(g73
I8
tp854
atp855
a(S'deze'
p856
(dp857
S'PRON'
p858
F1.0
s(lp859
(g80
I9
tp860
atp861
a(S'overeenkomsten'
p862
(dp863
S'NOUN'
p864
F1.0
s(lp865
(g87
I10
tp866
atp867
a(S'diepgaander'
p868
(dp869
S'ADJ'
p870
F0.339168
sS'NOUN'
p871
F0.660832
s(lp872
tp873
a(S'geanalyseerd'
p874
(dp875
S'VERB'
p876
F1.0
s(lp877
(g109
I14
tp878
atp879
a(S'had'
p880
(dp881
S'VERB'
p882
F1.0
s(lp883
(g514
I12
tp884
atp885
a(S'moeten'
p886
(dp887
S'VERB'
p888
F0.999991
sS'NOUN'
p889
F9e-06
s(lp890
(g94
I11
tp891
atp892
a(S'worden'
p893
(dp894
S'VERB'
p895
F1.0
sS'NOUN'
p896
F0.0
s(lp897
(g116
I16
tp898
atp899
a(g10
(dp900
g12
F1.0
s(lp901
(g10
I18
tp902
atp903
a(S'wat'
p904
(dp905
S'ADV'
p906
F0.019323
sS'PRON'
p907
F0.9806769999999999
s(lp908
tp909
a(S'betreft'
p910
(dp911
S'VERB'
p912
F1.0
s(lp913
(g158
I20
tp914
atp915
a(S'het'
p916
(dp917
S'PRON'
p918
F0.049963
sS'DET'
p919
F0.950037
s(lp920
(g188
I22
tp921
atp922
a(S'toezicht'
p923
(dp924
S'NOUN'
p925
F1.0
s(lp926
tp927
a(S'op'
p928
(dp929
S'ADV'
p930
F0.003384
sS'ADJ'
p931
F0.0
sS'ADP'
p932
F0.996616
s(lp933
(g172
I25
tp934
atp935
a(S'de'
p936
(dp937
S'DET'
p938
F1.0
s(lp939
(g257
I31
tp940
atp941
a(S'werkelijke'
p942
(dp943
S'NOUN'
p944
F2e-06
sS'ADJ'
p945
F0.999998
s(lp946
(g195
I26
tp947
atp948
a(S'vangstniveaus'
p949
(dp950
S'NOUN'
p951
F1.0
s(lp952
(g217
I27
tp953
atp954
a(S'en'
p955
(dp956
S'CONJ'
p957
F1.0
s(lp958
(g224
I29
tp959
atp960
a(S'de'
p961
(dp962
S'DET'
p963
F1.0
s(lp964
(g236
I30
tp965
atp966
a(S'bescherming'
p967
(dp968
S'NOUN'
p969
F1.0
s(lp970
tp971
a(S'van'
p972
(dp973
S'ADP'
p974
F1.0
s(lp975
(g236
I30
tp976
atp977
a(S'visbestanden'
p978
(dp979
S'NOUN'
p980
F1.0
s(lp981
(g250
I32
tp982
atp983
a(S'met'
p984
(dp985
S'ADP'
p986
F1.0
s(lp987
(g634
I33
tp988
atp989
a(S'het'
p990
(dp991
S'PRON'
p992
F0.00093
sS'DET'
p993
F0.999071
s(lp994
tp995
a(S'oog'
p996
(dp997
S'VERB'
p998
F3e-06
sS'NOUN'
p999
F0.999997
s(lp1000
(g264
I34
tp1001
atp1002
a(S'op'
p1003
(dp1004
S'ADV'
p1005
F0.003384
sS'ADJ'
p1006
F0.0
sS'ADP'
p1007
F0.996616
s(lp1008
(g271
I35
tp1009
atp1010
a(S'de'
p1011
(dp1012
S'DET'
p1013
F1.0
s(lp1014
(g280
I36
tp1015
atp1016
a(S'druk'
p1017
(dp1018
S'ADJ'
p1019
F0.037851
sS'VERB'
p1020
F0.000218
sS'NOUN'
p1021
F0.961931
s(lp1022
(g287
I37
tp1023
atp1024
a(S'van'
p1025
(dp1026
S'ADP'
p1027
F1.0
s(lp1028
(g294
I38
tp1029
atp1030
a(S'de'
p1031
(dp1032
S'DET'
p1033
F1.0
s(lp1034
(g131
I39
tp1035
atp1036
a(S'commissie'
p1037
(dp1038
S'NOUN'
p1039
F1.0
s(lp1040
(g676
I40
tp1041
atp1042
a(S'visserij'
p1043
(dp1044
S'NOUN'
p1045
F1.0
s(lp1046
(g302
I42
tp1047
atp1048
a(g10
(dp1049
g12
F1.0
s(lp1050
tp1051
a(S'en'
p1052
(dp1053
S'CONJ'
p1054
F1.0
s(lp1055
(g312
I43
tp1056
atp1057
a(S'ook'
p1058
(dp1059
S'ADV'
p1060
F1.0
s(lp1061
(g320
I44
tp1062
atp1063
a(S'om'
p1064
(dp1065
S'ADV'
p1066
F0.000453
sS'CONJ'
p1067
F0.999483
sS'ADP'
p1068
F6.4e-05
s(lp1069
tp1070
a(S'ervoor'
p1071
(dp1072
S'ADV'
p1073
F1.0
s(lp1074
tp1075
a(S'te'
p1076
(dp1077
S'PRT'
p1078
F1.0
s(lp1079
(g328
I45
tp1080
atp1081
a(S'zorgen'
p1082
(dp1083
S'VERB'
p1084
F0.998457
sS'NOUN'
p1085
F0.001543
s(lp1086
(g342
I46
tp1087
atp1088
a(S'dat'
p1089
(dp1090
S'PRON'
p1091
F0.010839000000000001
sS'CONJ'
p1092
F0.989161
s(lp1093
(g351
I47
tp1094
atp1095
a(S'het'
p1096
(dp1097
S'PRON'
p1098
F0.020983
sS'DET'
p1099
F0.979016
s(lp1100
(g359
I48
tp1101
atp1102
a(S'aspect'
p1103
(dp1104
S'NOUN'
p1105
F1.0
s(lp1106
(g366
I51
tp1107
atp1108
a(S'van'
p1109
(dp1110
S'ADP'
p1111
F1.0
s(lp1112
(g388
I52
tp1113
atp1114
a(S'lokale'
p1115
(dp1116
S'NOUN'
p1117
F0.007927
sS'ADJ'
p1118
F0.992073
s(lp1119
(g381
I49
tp1120
atp1121
a(S'ontwikkeling'
p1122
(dp1123
S'NOUN'
p1124
F1.0
s(lp1125
(g373
I50
tp1126
atp1127
a(S'van'
p1128
(dp1129
S'ADP'
p1130
F1.0
s(lp1131
tp1132
a(S'deze'
p1133
(dp1134
S'PRON'
p1135
F1.0
s(lp1136
(g395
I53
tp1137
atp1138
a(S'overeenkomsten'
p1139
(dp1140
S'NOUN'
p1141
F1.0
s(lp1142
(g402
I54
tp1143
atp1144
a(S'op'
p1145
(dp1146
S'ADV'
p1147
F0.003904
sS'ADJ'
p1148
F0.0
sS'ADP'
p1149
F0.996096
s(lp1150
(g388
I52
tp1151
atp1152
a(S'de'
p1153
(dp1154
S'DET'
p1155
F1.0
s(lp1156
tp1157
a(S'juiste'
p1158
(dp1159
S'NOUN'
p1160
F0.013751
sS'ADJ'
p1161
F0.986249
s(lp1162
tp1163
a(S'wijze'
p1164
(dp1165
S'ADJ'
p1166
F0.001594
sS'NOUN'
p1167
F0.998406
s(lp1168
(g430
I56
tp1169
atp1170
a(S'in'
p1171
(dp1172
S'ADV'
p1173
F0.002978
sS'VERB'
p1174
F2e-06
sS'ADP'
p1175
F0.99702
s(lp1176
(g781
I58
tp1177
atp1178
a(S'de'
p1179
(dp1180
S'DET'
p1181
F1.0
s(lp1182
tp1183
a(S'praktijk'
p1184
(dp1185
S'NOUN'
p1186
F1.0
s(lp1187
tp1188
a(S'wordt'
p1189
(dp1190
S'VERB'
p1191
F1.0
s(lp1192
(g438
I57
tp1193
atp1194
a(S'gebracht'
p1195
(dp1196
S'VERB'
p1197
F1.0
s(lp1198
(g418
I59
tp1199
atp1200
a(g12
(dp1201
g12
F1.0
s(lp1202
(g12
I60
tp1203
atp1204
asS'de'
p1205
(lp1206
(S'zweitens'
p1207
(dp1208
S'ADV'
p1209
F1.0
s(lp1210
(g7
I0
tp1211
atp1212
a(S'ist'
p1213
(dp1214
S'VERB'
p1215
F1.0
s(lp1216
(g10
I1
tp1217
atp1218
a(S'der'
p1219
(dp1220
S'PRON'
p1221
F0.002215
sS'DET'
p1222
F0.997784
s(lp1223
(g22
I2
tp1224
atp1225
a(S'ausschuss'
p1226
(dp1227
S'ADJ'
p1228
F0.005151
sS'NOUN'
p1229
F0.988797
s(lp1230
(g29
I3
tp1231
atp1232
a(S'der'
p1233
(dp1234
S'PRON'
p1235
F2.2e-05
sS'DET'
p1236
F0.999963
s(lp1237
tp1238
a(S'auffassung'
p1239
(dp1240
S'ADJ'
p1241
F0.001273
sS'NOUN'
p1242
F0.998512
s(lp1243
(g41
I4
tp1244
atp1245
a(g10
(dp1246
g12
F1.0
s(lp1247
tp1248
a(S'dass'
p1249
(dp1250
S'CONJ'
p1251
F1.0
s(lp1252
(g50
I5
tp1253
atp1254
a(S'der'
p1255
(dp1256
S'PRON'
p1257
F0.000265
sS'DET'
p1258
F0.999688
s(lp1259
(g58
I6
tp1260
atp1261
a(S'inhalt'
p1262
(dp1263
S'NOUN'
p1264
F0.999779
s(lp1265
(g66
I7
tp1266
atp1267
a(S'dieses'
p1268
(dp1269
S'PRON'
p1270
F1.0
s(lp1271
(g80
I9
tp1272
atp1273
a(S'abkommens'
p1274
(dp1275
S'ADJ'
p1276
F0.000354
sS'NOUN'
p1277
F0.99952
s(lp1278
(g87
I10
tp1279
atp1280
a(S'genauer'
p1281
(dp1282
S'ADJ'
p1283
F1.0
s(lp1284
(g139
I17
tp1285
atp1286
a(S'h\xc3\xa4tte'
p1287
(dp1288
S'VERB'
p1289
F1.0
s(lp1290
(g514
I12
tp1291
atp1292
a(S'untersucht'
p1293
(dp1294
S'VERB'
p1295
F0.93147
sS'ADJ'
p1296
F0.06853
s(lp1297
(g109
I14
tp1298
atp1299
a(S'werden'
p1300
(dp1301
S'VERB'
p1302
F0.999952
s(lp1303
(g102
I13
tp1304
atp1305
a(S'sollen'
p1306
(dp1307
S'VERB'
p1308
F0.9997699999999999
s(lp1309
(g94
I11
tp1310
atp1311
a(g12
(dp1312
g12
F1.0
s(lp1313
(g10
I18
tp1314
atp1315
a(S'dies'
p1316
(dp1317
S'PRON'
p1318
F1.0
s(lp1319
(g151
I19
tp1320
atp1321
a(S'betrifft'
p1322
(dp1323
S'VERB'
p1324
F1.0
s(lp1325
(g158
I20
tp1326
atp1327
a(S'die'
p1328
(dp1329
S'PRON'
p1330
F0.000626
sS'DET'
p1331
F0.999373
s(lp1332
(g188
I22
tp1333
atp1334
a(S'bestimmungen'
p1335
(dp1336
S'ADJ'
p1337
F0.000134
sS'NOUN'
p1338
F0.999734
s(lp1339
(g203
I23
tp1340
atp1341
a(S'f\xc3\xbcr'
p1342
(dp1343
S'ADP'
p1344
F1.0
s(lp1345
(g165
I24
tp1346
atp1347
a(S'die'
p1348
(dp1349
S'PRON'
p1350
F4.9e-05
sS'DET'
p1351
F0.999936
s(lp1352
tp1353
a(S'\xc3\x9cberwachung'
p1354
(dp1355
S'NOUN'
p1356
F1.0
s(lp1357
(g172
I25
tp1358
atp1359
a(S'der'
p1360
(dp1361
S'PRON'
p1362
F8.6e-05
sS'DET'
p1363
F0.999906
s(lp1364
tp1365
a(S'tats\xc3\xa4chlichen'
p1366
(dp1367
S'ADJ'
p1368
F1.0
s(lp1369
(g195
I26
tp1370
atp1371
a(S'fangmengen'
p1372
(dp1373
S'X'
p1374
F0.399293
sS'ADJ'
p1375
F0.341724
s(lp1376
(g217
I27
tp1377
atp1378
a(S'und'
p1379
(dp1380
S'CONJ'
p1381
F1.0
s(lp1382
(g224
I29
tp1383
atp1384
a(S'den'
p1385
(dp1386
S'PRON'
p1387
F0.005212
sS'DET'
p1388
F0.994224
s(lp1389
tp1390
a(S'schutz'
p1391
(dp1392
S'ADJ'
p1393
F0.033547
sS'NOUN'
p1394
F0.940039
s(lp1395
(g236
I30
tp1396
atp1397
a(S'von'
p1398
(dp1399
S'NOUN'
p1400
F0.047199
sS'ADP'
p1401
F0.952801
s(lp1402
(g257
I31
tp1403
atp1404
a(S'fischbest\xc3\xa4nden'
p1405
(dp1406
S'VERB'
p1407
F0.046362
sS'NOUN'
p1408
F0.897441
s(lp1409
(g250
I32
tp1410
atp1411
a(S'im'
p1412
(dp1413
S'ADP'
p1414
F1.0
s(lp1415
(g634
I33
tp1416
atp1417
a(S'hinblick'
p1418
(dp1419
S'VERB'
p1420
F0.001253
sS'NOUN'
p1421
F0.99874
s(lp1422
(g264
I34
tp1423
atp1424
a(S'auf'
p1425
(dp1426
S'PRT'
p1427
F0.000999
sS'ADP'
p1428
F0.998992
s(lp1429
(g271
I35
tp1430
atp1431
a(S'den'
p1432
(dp1433
S'PRON'
p1434
F0.003636
sS'DET'
p1435
F0.99601
s(lp1436
(g280
I36
tp1437
atp1438
a(S'durch'
p1439
(dp1440
S'ADV'
p1441
F0.000175
sS'ADP'
p1442
F0.999814
s(lp1443
(g294
I38
tp1444
atp1445
a(S'den'
p1446
(dp1447
S'PRON'
p1448
F0.000123
sS'DET'
p1449
F0.999875
s(lp1450
(g131
I39
tp1451
atp1452
a(S'fischereiausschuss'
p1453
(dp1454
S'NOUN'
p1455
F0.33175
sS'ADJ'
p1456
F0.657156
s(lp1457
(g302
I42
tp1458
atp1459
a(S'ausge\xc3\xbcbten'
p1460
(dp1461
S'ADJ'
p1462
F1.0
s(lp1463
tp1464
a(S'druck'
p1465
(dp1466
S'VERB'
p1467
F1.0
s(lp1468
(g287
I37
tp1469
atp1470
a(g10
(dp1471
g12
F1.0
s(lp1472
tp1473
a(S'sowie'
p1474
(dp1475
S'CONJ'
p1476
F1.0
s(lp1477
(g312
I43
tp1478
atp1479
a(S'die'
p1480
(dp1481
S'PRON'
p1482
F0.003063
sS'DET'
p1483
F0.993978
s(lp1484
(g328
I45
tp1485
atp1486
a(S'gew\xc3\xa4hrleistung'
p1487
(dp1488
S'ADJ'
p1489
F0.001284
sS'NOUN'
p1490
F0.998119
s(lp1491
(g342
I46
tp1492
atp1493
a(g10
(dp1494
g12
F1.0
s(lp1495
tp1496
a(S'dass'
p1497
(dp1498
S'CONJ'
p1499
F1.0
s(lp1500
(g351
I47
tp1501
atp1502
a(S'der'
p1503
(dp1504
S'PRON'
p1505
F0.91647
sS'DET'
p1506
F0.076523
s(lp1507
(g359
I48
tp1508
atp1509
a(S'teil'
p1510
(dp1511
S'PRT'
p1512
F0.990049
sS'VERB'
p1513
F0.009951
s(lp1514
(g366
I51
tp1515
atp1516
a(S'der'
p1517
(dp1518
S'PRON'
p1519
F0.8009660000000001
s(lp1520
(g395
I53
tp1521
atp1522
a(S'abkommen'
p1523
(dp1524
S'VERB'
p1525
F1.0
s(lp1526
(g402
I54
tp1527
atp1528
a(g10
(dp1529
g12
F1.0
s(lp1530
tp1531
a(S'der'
p1532
(dp1533
S'PRON'
p1534
F0.988532
sS'DET'
p1535
F0.007203
s(lp1536
(g359
I48
tp1537
atp1538
a(S'die'
p1539
(dp1540
S'PRON'
p1541
F0.002186
sS'DET'
p1542
F0.997534
s(lp1543
tp1544
a(S'lokale'
p1545
(dp1546
S'ADJ'
p1547
F1.0
s(lp1548
(g381
I49
tp1549
atp1550
a(S'entwicklung'
p1551
(dp1552
S'ADJ'
p1553
F0.002097
sS'NOUN'
p1554
F0.995565
s(lp1555
(g373
I50
tp1556
atp1557
a(S'betrifft'
p1558
(dp1559
S'VERB'
p1560
F1.0
s(lp1561
(g410
I55
tp1562
atp1563
a(g10
(dp1564
g12
F1.0
s(lp1565
tp1566
a(S'in'
p1567
(dp1568
S'ADP'
p1569
F1.0
s(lp1570
(g781
I58
tp1571
atp1572
a(S'der'
p1573
(dp1574
S'PRON'
p1575
F0.000131
sS'DET'
p1576
F0.999829
s(lp1577
(g359
I48
tp1578
atp1579
a(S'praxis'
p1580
(dp1581
S'ADJ'
p1582
F0.062709
sS'NOUN'
p1583
F0.908791
s(lp1584
(g418
I59
tp1585
atp1586
a(S'ordnungsgem\xc3\xa4\xc3\x9f'
p1587
(dp1588
S'ADJ'
p1589
F1.0
s(lp1590
(g430
I56
tp1591
atp1592
a(S'umgesetzt'
p1593
(dp1594
S'VERB'
p1595
F1.0
s(lp1596
tp1597
a(S'wird'
p1598
(dp1599
S'VERB'
p1600
F1.0
s(lp1601
(g438
I57
tp1602
atp1603
a(g12
(dp1604
g12
F1.0
s(lp1605
(g12
I60
tp1606
atp1607
asS'it'
p1608
(lp1609
(S'in'
p1610
(dp1611
S'ADP'
p1612
F1.0
s(lp1613
(g7
I0
tp1614
atp1615
a(S'secondo'
p1616
(dp1617
S'ADV'
p1618
F0.001689
sS'NOUN'
p1619
F0.000329
sS'VERB'
p1620
F8e-06
sS'ADJ'
p1621
F0.936394
sS'ADP'
p1622
F0.061581
s(lp1623
tp1624
a(S'luogo'
p1625
(dp1626
S'NOUN'
p1627
F1.0
s(lp1628
(g7
I0
tp1629
atp1630
a(g10
(dp1631
g12
F1.0
s(lp1632
(g10
I1
tp1633
atp1634
a(S'la'
p1635
(dp1636
S'PRON'
p1637
F0.000686
sS'DET'
p1638
F0.999314
s(lp1639
(g22
I2
tp1640
atp1641
a(S'commissione'
p1642
(dp1643
S'NOUN'
p1644
F1.0
s(lp1645
(g29
I3
tp1646
atp1647
a(S'ha'
p1648
(dp1649
S'VERB'
p1650
F1.0
s(lp1651
tp1652
a(S'ritenuto'
p1653
(dp1654
S'VERB'
p1655
F1.0
s(lp1656
(g41
I4
tp1657
atp1658
a(S'che'
p1659
(dp1660
S'PRON'
p1661
F0.906456
sS'CONJ'
p1662
F0.09292
sS'ADJ'
p1663
F0.000624
s(lp1664
(g50
I5
tp1665
atp1666
a(S'il'
p1667
(dp1668
S'DET'
p1669
F1.0
s(lp1670
(g58
I6
tp1671
atp1672
a(S'contenuto'
p1673
(dp1674
S'ADJ'
p1675
F0.126453
sS'VERB'
p1676
F0.24227
sS'NOUN'
p1677
F0.631278
s(lp1678
(g66
I7
tp1679
atp1680
a(S'di'
p1681
(dp1682
S'CONJ'
p1683
F1.9e-05
sS'ADP'
p1684
F0.999981
s(lp1685
(g73
I8
tp1686
atp1687
a(S'tali'
p1688
(dp1689
S'PRON'
p1690
F0.999919
sS'NOUN'
p1691
F8.1e-05
s(lp1692
(g80
I9
tp1693
atp1694
a(S'accordi'
p1695
(dp1696
S'VERB'
p1697
F1.3000000000000001e-05
sS'NOUN'
p1698
F0.999987
s(lp1699
(g87
I10
tp1700
atp1701
a(S'avrebbe'
p1702
(dp1703
S'VERB'
p1704
F1.0
s(lp1705
(g94
I11
tp1706
atp1707
a(S'dovuto'
p1708
(dp1709
S'ADJ'
p1710
F0.005036
sS'VERB'
p1711
F0.987889
sS'NOUN'
p1712
F0.007075
s(lp1713
(g514
I12
tp1714
atp1715
a(S'essere'
p1716
(dp1717
S'VERB'
p1718
F0.975735
sS'NOUN'
p1719
F0.024265
s(lp1720
(g102
I13
tp1721
atp1722
a(S'soggetto'
p1723
(dp1724
S'ADJ'
p1725
F0.203502
sS'NOUN'
p1726
F0.796498
s(lp1727
tp1728
a(g32
(dp1729
S'CONJ'
p1730
F0.001008
sS'ADP'
p1731
F0.998992
s(lp1732
(g530
I15
tp1733
atp1734
a(S"un'"
p1735
(dp1736
S'PRON'
p1737
F0.009699
sS'DEF'
p1738
F0.990301
s(lp1739
tp1740
a(S'analisi'
p1741
(dp1742
S'NOUN'
p1743
F1.0
s(lp1744
(g109
I14
tp1745
atp1746
a(S'pi\xc3\xb9'
p1747
(dp1748
S'ADV'
p1749
F0.996182
sS'NOUN'
p1750
F1.3e-05
sS'ADJ'
p1751
F0.003475
sS'ADP'
p1752
F0.000329
s(lp1753
(g116
I16
tp1754
atp1755
a(S'dettagliata'
p1756
(dp1757
S'VERB'
p1758
F0.6034
sS'ADJ'
p1759
F0.3966
s(lp1760
(g139
I17
tp1761
atp1762
a(g10
(dp1763
g12
F1.0
s(lp1764
(g10
I18
tp1765
atp1766
a(S'in'
p1767
(dp1768
S'ADP'
p1769
F1.0
s(lp1770
(g151
I19
tp1771
atp1772
a(S'termini'
p1773
(dp1774
S'VERB'
p1775
F0.001273
sS'NOUN'
p1776
F0.998727
s(lp1777
(g158
I20
tp1778
atp1779
a(S'di'
p1780
(dp1781
S'CONJ'
p1782
F4e-06
sS'ADP'
p1783
F0.999996
s(lp1784
(g179
I21
tp1785
atp1786
a(S'disposizioni'
p1787
(dp1788
S'NOUN'
p1789
F1.0
s(lp1790
(g203
I23
tp1791
atp1792
a(S'per'
p1793
(dp1794
S'CONJ'
p1795
F0.005329
sS'ADP'
p1796
F0.994671
s(lp1797
(g165
I24
tp1798
atp1799
a(S'monitorare'
p1800
(dp1801
S'VERB'
p1802
F1.0
s(lp1803
(g172
I25
tp1804
atp1805
a(S'le'
p1806
(dp1807
S'PRON'
p1808
F0.0
sS'DET'
p1809
F1.0
s(lp1810
(g217
I27
tp1811
atp1812
a(S'quantit\xc3\xa0'
p1813
(dp1814
S'NOUN'
p1815
F1.0
s(lp1816
(g605
I28
tp1817
atp1818
a(S'effettive'
p1819
(dp1820
S'ADJ'
p1821
F1.0
s(lp1822
(g195
I26
tp1823
atp1824
a(S'delle'
p1825
(dp1826
S'DEF'
p1827
F0.001797
sS'ADP'
p1828
F0.998203
s(lp1829
tp1830
a(S'catture'
p1831
(dp1832
S'NOUN'
p1833
F1.0
s(lp1834
(g217
I27
tp1835
atp1836
a(S'e'
p1837
(dp1838
S'CONJ'
p1839
F1.0
s(lp1840
(g224
I29
tp1841
atp1842
a(S'la'
p1843
(dp1844
S'PRON'
p1845
F0.002035
sS'DET'
p1846
F0.997965
s(lp1847
tp1848
a(S'tutela'
p1849
(dp1850
S'VERB'
p1851
F0.001921
sS'NOUN'
p1852
F0.998079
s(lp1853
(g236
I30
tp1854
atp1855
a(S'delle'
p1856
(dp1857
S'DEF'
p1858
F0.001102
sS'ADP'
p1859
F0.998898
s(lp1860
tp1861
a(S'riserve'
p1862
(dp1863
S'NOUN'
p1864
F1.0
s(lp1865
(g250
I32
tp1866
atp1867
a(S'ittiche'
p1868
(dp1869
S'ADJ'
p1870
F1.0
s(lp1871
(g257
I31
tp1872
atp1873
a(S'alla'
p1874
(dp1875
S'ADP'
p1876
F1.0
s(lp1877
(g634
I33
tp1878
atp1879
a(S'luce'
p1880
(dp1881
S'ADJ'
p1882
F0.033472
sS'VERB'
p1883
F1.9e-05
sS'NOUN'
p1884
F0.966509
s(lp1885
(g264
I34
tp1886
atp1887
a(S'delle'
p1888
(dp1889
S'DEF'
p1890
F0.001074
sS'ADP'
p1891
F0.998926
s(lp1892
(g271
I35
tp1893
atp1894
a(S'pressioni'
p1895
(dp1896
S'NOUN'
p1897
F1.0
s(lp1898
(g287
I37
tp1899
atp1900
a(S'della'
p1901
(dp1902
S'DEF'
p1903
F0.001587
sS'ADP'
p1904
F0.998413
s(lp1905
(g131
I39
tp1906
atp1907
a(S'commissione'
p1908
(dp1909
S'NOUN'
p1910
F1.0
s(lp1911
(g676
I40
tp1912
atp1913
a(S'per'
p1914
(dp1915
S'CONJ'
p1916
F0.052995
sS'ADP'
p1917
F0.947005
s(lp1918
(g123
I41
tp1919
atp1920
a(S'la'
p1921
(dp1922
S'PRON'
p1923
F0.000867
sS'DET'
p1924
F0.999133
s(lp1925
tp1926
a(S'pesca'
p1927
(dp1928
S'VERB'
p1929
F0.000994
sS'NOUN'
p1930
F0.999006
s(lp1931
(g302
I42
tp1932
atp1933
a(g10
(dp1934
g12
F1.0
s(lp1935
tp1936
a(g1837
(dp1937
S'CONJ'
p1938
F1.0
s(lp1939
(g312
I43
tp1940
atp1941
a(S'anche'
p1942
(dp1943
S'ADV'
p1944
F0.999967
sS'NOUN'
p1945
F3.3e-05
s(lp1946
(g320
I44
tp1947
atp1948
a(S'per'
p1949
(dp1950
S'CONJ'
p1951
F0.003994
sS'ADP'
p1952
F0.996006
s(lp1953
(g328
I45
tp1954
atp1955
a(S'garantire'
p1956
(dp1957
S'VERB'
p1958
F1.0
s(lp1959
(g342
I46
tp1960
atp1961
a(S"un'"
p1962
(dp1963
S'PRON'
p1964
F0.006833
sS'DEF'
p1965
F0.993167
s(lp1966
(g359
I48
tp1967
atp1968
a(S'applicazione'
p1969
(dp1970
S'NOUN'
p1971
F1.0
s(lp1972
(g438
I57
tp1973
atp1974
a(S'adeguata'
p1975
(dp1976
S'VERB'
p1977
F0.839105
sS'ADJ'
p1978
F0.160895
s(lp1979
(g430
I56
tp1980
atp1981
a(S'nella'
p1982
(dp1983
S'ADP'
p1984
F1.0
s(lp1985
(g781
I58
tp1986
atp1987
a(S'prassi'
p1988
(dp1989
S'NOUN'
p1990
F1.0
s(lp1991
(g418
I59
tp1992
atp1993
a(S'della'
p1994
(dp1995
S'DEF'
p1996
F0.001685
sS'ADP'
p1997
F0.998315
s(lp1998
(g388
I52
tp1999
atp2000
a(S'componente'
p2001
(dp2002
S'ADJ'
p2003
F0.052036
sS'VERB'
p2004
F0.000145
sS'NOUN'
p2005
F0.94782
s(lp2006
tp2007
a(S'degli'
p2008
(dp2009
S'DEF'
p2010
F0.001864
sS'ADP'
p2011
F0.998136
s(lp2012
tp2013
a(S'accordi'
p2014
(dp2015
S'VERB'
p2016
F1.1e-05
sS'NOUN'
p2017
F0.99999
s(lp2018
(g402
I54
tp2019
atp2020
a(S'relativa'
p2021
(dp2022
S'NOUN'
p2023
F0.025682
sS'ADJ'
p2024
F0.974318
s(lp2025
(g366
I51
tp2026
atp2027
a(S'allo'
p2028
(dp2029
g1374
F3e-06
sS'ADP'
p2030
F0.999997
s(lp2031
tp2032
a(S'sviluppo'
p2033
(dp2034
S'VERB'
p2035
F5.7e-05
sS'NOUN'
p2036
F0.999943
s(lp2037
(g373
I50
tp2038
atp2039
a(S'locale'
p2040
(dp2041
S'NOUN'
p2042
F0.002579
sS'VERB'
p2043
F0.0
sS'ADJ'
p2044
F0.997421
s(lp2045
(g381
I49
tp2046
atp2047
a(g12
(dp2048
g12
F1.0
s(lp2049
(g12
I60
tp2050
atp2051
asS'sk'
p2052
(lp2053
(S'po'
p2054
(dp2055
g1374
F0.005217
sS'ADP'
p2056
F0.994782
s(lp2057
tp2058
a(S'druh\xc3\xa9'
p2059
(dp2060
S'NUM'
p2061
F1.0
s(lp2062
(g7
I0
tp2063
atp2064
a(g10
(dp2065
g12
F1.0
s(lp2066
(g10
I1
tp2067
atp2068
a(S'v\xc3\xbdbor'
p2069
(dp2070
S'NOUN'
p2071
F1.0
s(lp2072
(g29
I3
tp2073
atp2074
a(S'mal'
p2075
(dp2076
g1374
F0.000175
sS'VERB'
p2077
F0.999825
s(lp2078
tp2079
a(S'pocit'
p2080
(dp2081
S'NOUN'
p2082
F1.0
s(lp2083
(g41
I4
tp2084
atp2085
a(g10
(dp2086
g12
F1.0
s(lp2087
tp2088
a(S'\xc5\xbee'
p2089
(dp2090
g1374
F0.00032700000000000003
sS'CONJ'
p2091
F0.999673
s(lp2092
(g50
I5
tp2093
atp2094
a(S'obsah'
p2095
(dp2096
S'NOUN'
p2097
F1.0
s(lp2098
(g66
I7
tp2099
atp2100
a(S't\xc3\xbdchto'
p2101
(dp2102
S'PRON'
p2103
F1.0
s(lp2104
(g80
I9
tp2105
atp2106
a(S'doh\xc3\xb4d'
p2107
(dp2108
S'NOUN'
p2109
F1.0
s(lp2110
(g87
I10
tp2111
atp2112
a(S'sa'
p2113
(dp2114
S'PRT'
p2115
F0.999985
sS'ADP'
p2116
F0.0
sg1374
F1.5e-05
s(lp2117
(g102
I13
tp2118
atp2119
a(S'mal'
p2120
(dp2121
g1374
F6e-06
sS'VERB'
p2122
F0.9999939999999999
s(lp2123
(g94
I11
tp2124
atp2125
a(S'podrobnej\xc5\xa1ie'
p2126
(dp2127
S'ADV'
p2128
F0.960246
sS'ADJ'
p2129
F0.039753
s(lp2130
(g139
I17
tp2131
atp2132
a(S'analyzova\xc5\xa5'
p2133
(dp2134
S'VERB'
p2135
F1.0
s(lp2136
(g109
I14
tp2137
atp2138
a(S'z'
p2139
(dp2140
g1374
F0.00011899999999999999
sS'NOUN'
p2141
F1.9e-05
sS'ADP'
p2142
F0.999861
s(lp2143
tp2144
a(S'h\xc4\xbeadiska'
p2145
(dp2146
S'NOUN'
p2147
F1.0
s(lp2148
(g158
I20
tp2149
atp2150
a(S'ustanoven\xc3\xad'
p2151
(dp2152
S'VERB'
p2153
F0.006336
sS'NOUN'
p2154
F0.993664
s(lp2155
(g203
I23
tp2156
atp2157
a(S'o'
p2158
(dp2159
g1374
F0.0004
sS'CONJ'
p2160
F5.7e-05
sS'NOUN'
p2161
F9.999999999999999e-06
sS'ADP'
p2162
F0.999532
s(lp2163
(g165
I24
tp2164
atp2165
a(S'monitorovan\xc3\xad'
p2166
(dp2167
S'NOUN'
p2168
F1.0
s(lp2169
(g172
I25
tp2170
atp2171
a(S'skuto\xc4\x8dn\xc3\xa9ho'
p2172
(dp2173
S'ADJ'
p2174
F1.0
s(lp2175
(g195
I26
tp2176
atp2177
a(S'mno\xc5\xbestva'
p2178
(dp2179
S'NOUN'
p2180
F1.0
s(lp2181
(g605
I28
tp2182
atp2183
a(S'\xc3\xbalovkov'
p2184
(dp2185
S'NOUN'
p2186
F1.0
s(lp2187
(g217
I27
tp2188
atp2189
a(g32
(dp2190
g1374
F0.0007580000000000001
sS'CONJ'
p2191
F0.998528
sS'NOUN'
p2192
F5.5e-05
sS'ADP'
p2193
F0.000628
sS'PRT'
p2194
F3.2e-05
s(lp2195
(g224
I29
tp2196
atp2197
a(S'ochrany'
p2198
(dp2199
S'NOUN'
p2200
F1.0
s(lp2201
(g236
I30
tp2202
atp2203
a(S'popul\xc3\xa1ci\xc3\xad'
p2204
(dp2205
S'NOUN'
p2206
F1.0
s(lp2207
(g250
I32
tp2208
atp2209
a(S'r\xc3\xbdb'
p2210
(dp2211
S'NOUN'
p2212
F1.0
s(lp2213
(g257
I31
tp2214
atp2215
a(S'vzh\xc4\xbeadom'
p2216
(dp2217
S'NOUN'
p2218
F1.0
s(lp2219
(g264
I34
tp2220
atp2221
a(S'na'
p2222
(dp2223
g1374
F0.000155
sS'CONJ'
p2224
F1.5e-05
sS'ADP'
p2225
F0.999827
sS'PRT'
p2226
F3e-06
s(lp2227
(g280
I36
tp2228
atp2229
a(S'tlak'
p2230
(dp2231
S'NOUN'
p2232
F1.0
s(lp2233
(g287
I37
tp2234
atp2235
a(S'v\xc3\xbdboru'
p2236
(dp2237
S'NOUN'
p2238
F1.0
s(lp2239
(g676
I40
tp2240
atp2241
a(S'pre'
p2242
(dp2243
g1374
F0.000106
sS'ADP'
p2244
F0.999894
s(lp2245
(g123
I41
tp2246
atp2247
a(S'rybn\xc3\xa9'
p2248
(dp2249
S'ADJ'
p2250
F1.0
s(lp2251
tp2252
a(S'hospod\xc3\xa1rstvo'
p2253
(dp2254
S'NOUN'
p2255
F1.0
s(lp2256
(g302
I42
tp2257
atp2258
a(g32
(dp2259
g1374
F0.0014190000000000001
sS'CONJ'
p2260
F0.998422
sS'NOUN'
p2261
F5.2000000000000004e-05
sS'ADP'
p2262
F6e-06
sS'PRT'
p2263
F0.000102
s(lp2264
(g312
I43
tp2265
atp2266
a(S'aj'
p2267
(dp2268
g1374
F0.791056
sS'CONJ'
p2269
F0.208943
s(lp2270
(g320
I44
tp2271
atp2272
a(S'na'
p2273
(dp2274
g1374
F0.00010300000000000001
sS'CONJ'
p2275
F1e-05
sS'ADP'
p2276
F0.99988
sS'PRT'
p2277
F7e-06
s(lp2278
(g328
I45
tp2279
atp2280
a(S'zaistenie'
p2281
(dp2282
S'NOUN'
p2283
F1.0
s(lp2284
tp2285
a(S'toho'
p2286
(dp2287
S'PRON'
p2288
F0.997449
sg1374
F0.002551
s(lp2289
(g342
I46
tp2290
atp2291
a(g10
(dp2292
g12
F1.0
s(lp2293
tp2294
a(S'aby'
p2295
(dp2296
g1374
F6.7e-05
sS'CONJ'
p2297
F0.999933
s(lp2298
(g351
I47
tp2299
atp2300
a(S'sa'
p2301
(dp2302
S'PRT'
p2303
F0.999868
sS'ADP'
p2304
F0.000109
sg1374
F2.3e-05
s(lp2305
(g359
I48
tp2306
atp2307
a(S'prvok'
p2308
(dp2309
S'NOUN'
p2310
F1.0
s(lp2311
(g366
I51
tp2312
atp2313
a(S'miestneho'
p2314
(dp2315
S'ADJ'
p2316
F1.0
s(lp2317
(g381
I49
tp2318
atp2319
a(S'rozvoja'
p2320
(dp2321
S'NOUN'
p2322
F1.0
s(lp2323
(g373
I50
tp2324
atp2325
a(S'v'
p2326
(dp2327
g1374
F0.000465
sS'ADP'
p2328
F0.999535
s(lp2329
(g395
I53
tp2330
atp2331
a(S'dohod\xc3\xa1ch'
p2332
(dp2333
S'NOUN'
p2334
F1.0
s(lp2335
(g402
I54
tp2336
atp2337
a(S'riadne'
p2338
(dp2339
S'ADV'
p2340
F0.992575
sS'ADJ'
p2341
F0.007424
s(lp2342
(g430
I56
tp2343
atp2344
a(S'uplat\xc5\x88oval'
p2345
(dp2346
S'VERB'
p2347
F1.0
s(lp2348
(g438
I57
tp2349
atp2350
a(g2326
(dp2351
g1374
F0.000193
sS'ADP'
p2352
F0.999807
s(lp2353
(g781
I58
tp2354
atp2355
a(S'praxi'
p2356
(dp2357
S'NOUN'
p2358
F1.0
s(lp2359
(g418
I59
tp2360
atp2361
a(g12
(dp2362
g12
F1.0
s(lp2363
(g12
I60
tp2364
atp2365
asS'pl'
p2366
(lp2367
(S'po'
p2368
(dp2369
g1374
F6e-06
sS'VERB'
p2370
F0.001127
sS'NOUN'
p2371
F0.0006250000000000001
sS'ADP'
p2372
F0.998243
s(lp2373
tp2374
a(S'drugie'
p2375
(dp2376
S'NOUN'
p2377
F0.13248200000000002
sS'ADJ'
p2378
F0.867517
s(lp2379
(g7
I0
tp2380
atp2381
a(S'komisja'
p2382
(dp2383
S'NOUN'
p2384
F1.0
s(lp2385
(g29
I3
tp2386
atp2387
a(S'uwa\xc5\xbca'
p2388
(dp2389
S'VERB'
p2390
F1.0
s(lp2391
(g41
I4
tp2392
atp2393
a(g10
(dp2394
g1374
F0.0
sg12
F1.0
s(lp2395
tp2396
a(S'\xc5\xbce'
p2397
(dp2398
S'PRT'
p2399
F0.000434
sS'CONJ'
p2400
F0.9995660000000001
s(lp2401
(g50
I5
tp2402
atp2403
a(S'nale\xc5\xbca\xc5\x82oby'
p2404
(dp2405
S'ADV'
p2406
F0.020073
sS'NOUN'
p2407
F0.6222269999999999
sS'PRT'
p2408
F0.121824
sS'VERB'
p2409
F0.19288100000000008
sS'CONJ'
p2410
F0.03399
sS'ADJ'
p2411
F0.009009
s(lp2412
(g94
I11
tp2413
atp2414
a(S'dok\xc5\x82adniej'
p2415
(dp2416
S'ADV'
p2417
F1.0
s(lp2418
(g139
I17
tp2419
atp2420
a(S'analizowa\xc4\x87'
p2421
(dp2422
S'VERB'
p2423
F1.0
s(lp2424
(g109
I14
tp2425
atp2426
a(S'tre\xc5\x9b\xc4\x87'
p2427
(dp2428
S'NOUN'
p2429
F1.0
s(lp2430
(g66
I7
tp2431
atp2432
a(S'takich'
p2433
(dp2434
S'ADJ'
p2435
F1.0000010000000001
s(lp2436
(g80
I9
tp2437
atp2438
a(S'um\xc3\xb3w'
p2439
(dp2440
S'VERB'
p2441
F4.4e-05
sS'NOUN'
p2442
F0.999956
s(lp2443
(g87
I10
tp2444
atp2445
a(g10
(dp2446
g1374
F0.0
sg12
F1.0
s(lp2447
(g10
I18
tp2448
atp2449
a(S'je\xc5\x9bli'
p2450
(dp2451
S'CONJ'
p2452
F1.0
s(lp2453
(g158
I20
tp2454
atp2455
a(S'chodzi'
p2456
(dp2457
S'VERB'
p2458
F1.0
s(lp2459
tp2460
a(g2158
(dp2461
g1374
F0.001224
sS'VERB'
p2462
F3.5e-05
sS'NOUN'
p2463
F1.9999999999999998e-05
sS'ADP'
p2464
F0.998686
sS'PRT'
p2465
F3.5e-05
s(lp2466
(g158
I20
tp2467
atp2468
a(S'postanowienia'
p2469
(dp2470
S'NOUN'
p2471
F0.9999999999999999
s(lp2472
(g203
I23
tp2473
atp2474
a(S'dotycz\xc4\x85ce'
p2475
(dp2476
S'VERB'
p2477
F1.0
s(lp2478
(g165
I24
tp2479
atp2480
a(S'monitorowania'
p2481
(dp2482
S'VERB'
p2483
F1.0
s(lp2484
(g172
I25
tp2485
atp2486
a(S'faktycznie'
p2487
(dp2488
S'ADV'
p2489
F1.0
s(lp2490
(g195
I26
tp2491
atp2492
a(S'po\xc5\x82awianych'
p2493
(dp2494
S'ADV'
p2495
F0.001596
sS'NOUN'
p2496
F0.02554099999999999
sS'VERB'
p2497
F0.27608900000000014
sS'ADJ'
p2498
F0.6967769999999999
s(lp2499
(g217
I27
tp2500
atp2501
a(S'ilo\xc5\x9bci'
p2502
(dp2503
S'NOUN'
p2504
F1.0
s(lp2505
(g605
I28
tp2506
atp2507
a(S'oraz'
p2508
(dp2509
S'CONJ'
p2510
F1.0
s(lp2511
(g224
I29
tp2512
atp2513
a(S'ochrony'
p2514
(dp2515
S'NOUN'
p2516
F1.0
s(lp2517
(g236
I30
tp2518
atp2519
a(S'zasob\xc3\xb3w'
p2520
(dp2521
S'NOUN'
p2522
F1.0
s(lp2523
(g250
I32
tp2524
atp2525
a(S'rybnych'
p2526
(dp2527
S'ADJ'
p2528
F1.0
s(lp2529
(g257
I31
tp2530
atp2531
a(S'w'
p2532
(dp2533
S'ADJ'
p2534
F0.0
sg1374
F0.0
sS'NOUN'
p2535
F0.0
sS'ADP'
p2536
F0.999999
s(lp2537
(g634
I33
tp2538
atp2539
a(S'zwi\xc4\x85zku'
p2540
(dp2541
S'NOUN'
p2542
F1.0
s(lp2543
(g264
I34
tp2544
atp2545
a(g2139
(dp2546
S'PRT'
p2547
F5e-06
sS'VERB'
p2548
F3e-06
sS'NOUN'
p2549
F0.0
sS'ADP'
p2550
F0.999992
sg1374
F0.0
s(lp2551
(g271
I35
tp2552
atp2553
a(S'presj\xc4\x85'
p2554
(dp2555
S'NOUN'
p2556
F1.0
s(lp2557
(g287
I37
tp2558
atp2559
a(S'ze'
p2560
(dp2561
S'PRT'
p2562
F5.5e-05
sS'CONJ'
p2563
F1e-06
sS'ADP'
p2564
F0.9999439999999999
s(lp2565
tp2566
a(S'strony'
p2567
(dp2568
S'NOUN'
p2569
F1.0
s(lp2570
(g294
I38
tp2571
atp2572
a(S'komisji'
p2573
(dp2574
S'NOUN'
p2575
F1.0
s(lp2576
(g676
I40
tp2577
atp2578
a(S'rybo\xc5\x82\xc3\xb3wstwa'
p2579
(dp2580
S'NOUN'
p2581
F1.0
s(lp2582
(g302
I42
tp2583
atp2584
a(g10
(dp2585
g1374
F0.0
sg12
F1.0
s(lp2586
tp2587
a(S'jak'
p2588
(dp2589
S'ADV'
p2590
F0.769678
sS'PRT'
p2591
F0.002276
sS'CONJ'
p2592
F0.18951099999999999
sS'ADP'
p2593
F0.037897
sS'PRON'
p2594
F0.000638
s(lp2595
(g312
I43
tp2596
atp2597
a(S'r\xc3\xb3wnie\xc5\xbc'
p2598
(dp2599
S'PRT'
p2600
F0.771062
sS'CONJ'
p2601
F0.228938
s(lp2602
(g320
I44
tp2603
atp2604
a(S'postanowienia'
p2605
(dp2606
S'NOUN'
p2607
F1.0000010000000001
s(lp2608
tp2609
a(S'maj\xc4\x85ce'
p2610
(dp2611
S'VERB'
p2612
F1.000001
s(lp2613
(g203
I23
tp2614
atp2615
a(S'na'
p2616
(dp2617
S'PRT'
p2618
F1e-06
sS'VERB'
p2619
F0.0
sS'NOUN'
p2620
F0.0
sS'ADP'
p2621
F0.999999
sg1374
F0.0
s(lp2622
(g328
I45
tp2623
atp2624
a(S'celu'
p2625
(dp2626
S'NOUN'
p2627
F1.0
s(lp2628
(g342
I46
tp2629
atp2630
a(S'prawid\xc5\x82owe'
p2631
(dp2632
S'ADJ'
p2633
F1.0
s(lp2634
(g430
I56
tp2635
atp2636
a(S'stosowanie'
p2637
(dp2638
S'VERB'
p2639
F1.0
s(lp2640
(g438
I57
tp2641
atp2642
a(g2532
(dp2643
g1374
F0.0
sS'ADJ'
p2644
F0.0
sS'ADP'
p2645
F1.0
sS'NOUN'
p2646
F0.0
s(lp2647
(g781
I58
tp2648
atp2649
a(S'praktyce'
p2650
(dp2651
S'NOUN'
p2652
F1.0
s(lp2653
(g418
I59
tp2654
atp2655
a(S'komponentu'
p2656
(dp2657
S'ADJ'
p2658
F4e-06
sS'VERB'
p2659
F4.6e-05
sS'NOUN'
p2660
F0.9999490000000001
s(lp2661
(g366
I51
tp2662
atp2663
a(S'um\xc3\xb3w'
p2664
(dp2665
S'VERB'
p2666
F0.002065
sS'NOUN'
p2667
F0.997935
s(lp2668
(g402
I54
tp2669
atp2670
a(g2532
(dp2671
g1374
F0.0
sS'ADJ'
p2672
F0.0
sS'ADP'
p2673
F1.0
sS'NOUN'
p2674
F0.0
s(lp2675
tp2676
a(S'obszarze'
p2677
(dp2678
S'NOUN'
p2679
F1.0
s(lp2680
(g359
I48
tp2681
atp2682
a(S'rozwoju'
p2683
(dp2684
S'NOUN'
p2685
F1.0
s(lp2686
(g373
I50
tp2687
atp2688
a(S'lokalnego'
p2689
(dp2690
S'ADJ'
p2691
F1.0
s(lp2692
(g381
I49
tp2693
atp2694
a(g12
(dp2695
g12
F1.0
s(lp2696
(g12
I60
tp2697
atp2698
asS'sl'
p2699
(lp2700
(S'drugi\xc4\x8d'
p2701
(dp2702
S'ADV'
p2703
F1.0
s(lp2704
(g7
I0
tp2705
atp2706
a(g10
(dp2707
g12
F1.0
s(lp2708
(g10
I1
tp2709
atp2710
a(S'odbor'
p2711
(dp2712
S'NOUN'
p2713
F1.0
s(lp2714
(g29
I3
tp2715
atp2716
a(S'je'
p2717
(dp2718
S'PRON'
p2719
F1.3e-05
sS'VERB'
p2720
F0.999984
sg1374
F3e-06
s(lp2721
(g410
I55
tp2722
atp2723
a(S'menil'
p2724
(dp2725
S'VERB'
p2726
F1.0
s(lp2727
(g41
I4
tp2728
atp2729
a(g10
(dp2730
g12
F1.0
s(lp2731
tp2732
a(S'da'
p2733
(dp2734
S'PRT'
p2735
F0.000137
sS'CONJ'
p2736
F0.999855
sS'VERB'
p2737
F8e-06
sg1374
F0.0
s(lp2738
(g50
I5
tp2739
atp2740
a(S'bi'
p2741
(dp2742
g1374
F1.7e-05
sS'VERB'
p2743
F0.999983
s(lp2744
(g58
I6
tp2745
atp2746
a(S'vsebina'
p2747
(dp2748
S'NOUN'
p2749
F1.0
s(lp2750
(g66
I7
tp2751
atp2752
a(S'teh'
p2753
(dp2754
S'PRON'
p2755
F0.999999
s(lp2756
(g80
I9
tp2757
atp2758
a(S'sporazumov'
p2759
(dp2760
S'NOUN'
p2761
F1.0
s(lp2762
(g87
I10
tp2763
atp2764
a(S'morala'
p2765
(dp2766
S'VERB'
p2767
F0.9983290000000001
sS'NOUN'
p2768
F0.001671
s(lp2769
tp2770
a(S'biti'
p2771
(dp2772
S'VERB'
p2773
F0.9999410000000001
sS'NOUN'
p2774
F5.9e-05
s(lp2775
(g94
I11
tp2776
atp2777
a(S'podrobneje'
p2778
(dp2779
S'ADV'
p2780
F1.0
s(lp2781
(g139
I17
tp2782
atp2783
a(S'analizirana'
p2784
(dp2785
S'ADJ'
p2786
F0.299741
sS'NOUN'
p2787
F0.7002590000000002
s(lp2788
(g109
I14
tp2789
atp2790
a(g10
(dp2791
g12
F1.0
s(lp2792
(g10
I18
tp2793
atp2794
a(g2326
(dp2795
S'ADP'
p2796
F1.0
s(lp2797
(g151
I19
tp2798
atp2799
a(S'smislu'
p2800
(dp2801
S'NOUN'
p2802
F1.0
s(lp2803
(g158
I20
tp2804
atp2805
a(S'dolo\xc4\x8db'
p2806
(dp2807
S'NOUN'
p2808
F1.0
s(lp2809
(g203
I23
tp2810
atp2811
a(S'za'
p2812
(dp2813
S'ADV'
p2814
F1e-05
sg1374
F2e-06
sS'ADP'
p2815
F0.999988
s(lp2816
(g165
I24
tp2817
atp2818
a(S'nadzor'
p2819
(dp2820
S'NOUN'
p2821
F1.0
s(lp2822
(g172
I25
tp2823
atp2824
a(S'dejanskih'
p2825
(dp2826
S'ADJ'
p2827
F1.0
s(lp2828
(g195
I26
tp2829
atp2830
a(S'koli\xc4\x8din'
p2831
(dp2832
S'NOUN'
p2833
F1.0
s(lp2834
(g605
I28
tp2835
atp2836
a(S'ulova'
p2837
(dp2838
S'ADJ'
p2839
F0.13729600000000003
sS'VERB'
p2840
F0.022117
sS'NOUN'
p2841
F0.840493
sS'PRON'
p2842
F9.5e-05
s(lp2843
(g217
I27
tp2844
atp2845
a(S'in'
p2846
(dp2847
S'ADV'
p2848
F8.1e-05
sg1374
F2.8e-05
sS'CONJ'
p2849
F0.999606
sS'NOUN'
p2850
F0.000286
s(lp2851
(g224
I29
tp2852
atp2853
a(S'za\xc5\xa1\xc4\x8dite'
p2854
(dp2855
S'NOUN'
p2856
F1.0
s(lp2857
(g236
I30
tp2858
atp2859
a(S'ribjih'
p2860
(dp2861
S'ADV'
p2862
F0.000109
sS'NOUN'
p2863
F0.004700000000000001
sS'VERB'
p2864
F0.0022170000000000007
sS'ADJ'
p2865
F0.9928290000000001
sS'PRON'
p2866
F0.000142
s(lp2867
(g257
I31
tp2868
atp2869
a(S'stale\xc5\xbeev'
p2870
(dp2871
S'ADJ'
p2872
F3e-06
sS'NOUN'
p2873
F0.999997
s(lp2874
(g250
I32
tp2875
atp2876
a(S'glede'
p2877
(dp2878
S'ADV'
p2879
F0.890549
sS'ADP'
p2880
F0.109451
s(lp2881
(g264
I34
tp2882
atp2883
a(S'na'
p2884
(dp2885
S'ADP'
p2886
F1.0
s(lp2887
(g634
I33
tp2888
atp2889
a(S'pritisk'
p2890
(dp2891
S'NOUN'
p2892
F1.0
s(lp2893
(g287
I37
tp2894
atp2895
a(S'odbora'
p2896
(dp2897
S'NOUN'
p2898
F1.0
s(lp2899
(g676
I40
tp2900
atp2901
a(S'za'
p2902
(dp2903
S'ADV'
p2904
F4e-06
sg1374
F1e-06
sS'ADP'
p2905
F0.9999950000000001
s(lp2906
(g123
I41
tp2907
atp2908
a(S'ribi\xc5\xa1tvo'
p2909
(dp2910
S'NOUN'
p2911
F1.0
s(lp2912
(g302
I42
tp2913
atp2914
a(S'in'
p2915
(dp2916
S'ADV'
p2917
F6.4e-05
sg1374
F2e-06
sS'CONJ'
p2918
F0.999929
sS'NOUN'
p2919
F5e-06
s(lp2920
(g312
I43
tp2921
atp2922
a(S'tudi'
p2923
(dp2924
S'PRT'
p2925
F1.0
s(lp2926
(g320
I44
tp2927
atp2928
a(S'za'
p2929
(dp2930
S'ADV'
p2931
F0.082995
sg1374
F0.000602
sS'ADP'
p2932
F0.9164019999999999
s(lp2933
(g328
I45
tp2934
atp2935
a(S'zagotovitev'
p2936
(dp2937
S'NOUN'
p2938
F1.0
s(lp2939
(g342
I46
tp2940
atp2941
a(g10
(dp2942
g12
F1.0
s(lp2943
tp2944
a(S'da'
p2945
(dp2946
S'PRT'
p2947
F4e-06
sS'CONJ'
p2948
F0.999979
sS'VERB'
p2949
F1.7e-05
sg1374
F1e-06
s(lp2950
(g351
I47
tp2951
atp2952
a(S'je'
p2953
(dp2954
S'PRON'
p2955
F0.000963
sS'VERB'
p2956
F0.999037
sg1374
F0.0
s(lp2957
(g359
I48
tp2958
atp2959
a(S'lokalna'
p2960
(dp2961
S'ADJ'
p2962
F1.0
s(lp2963
(g381
I49
tp2964
atp2965
a(S'razvojna'
p2966
(dp2967
S'ADJ'
p2968
F1.0
s(lp2969
(g373
I50
tp2970
atp2971
a(S'komponenta'
p2972
(dp2973
S'ADV'
p2974
F2.6e-05
sS'ADJ'
p2975
F0.005868
sS'NUM'
p2976
F0.000146
sS'NOUN'
p2977
F0.993868
sS'VERB'
p2978
F9.199999999999997e-05
s(lp2979
(g366
I51
tp2980
atp2981
a(S'sporazumov'
p2982
(dp2983
S'NOUN'
p2984
F1.0
s(lp2985
(g402
I54
tp2986
atp2987
a(g2326
(dp2988
S'ADP'
p2989
F1.0
s(lp2990
(g781
I58
tp2991
atp2992
a(S'praksi'
p2993
(dp2994
S'NOUN'
p2995
F1.0
s(lp2996
(g418
I59
tp2997
atp2998
a(S'primerno'
p2999
(dp3000
S'ADV'
p3001
F0.874036
sS'ADJ'
p3002
F0.125964
s(lp3003
(g430
I56
tp3004
atp3005
a(S'izvajana'
p3006
(dp3007
S'ADV'
p3008
F0.000974
sS'NOUN'
p3009
F0.313886
sS'VERB'
p3010
F0.012911
sS'ADJ'
p3011
F0.672228
s(lp3012
(g438
I57
tp3013
atp3014
a(g12
(dp3015
g12
F1.0
s(lp3016
(g12
I60
tp3017
atp3018
asS'es'
p3019
(lp3020
(S'en'
p3021
(dp3022
g1374
F1.9e-05
sS'CONJ'
p3023
F0.000341
sS'ADP'
p3024
F0.99964
s(lp3025
(g7
I0
tp3026
atp3027
a(S'segundo'
p3028
(dp3029
S'NOUN'
p3030
F0.0022199999999999998
sS'ADJ'
p3031
F0.997781
s(lp3032
tp3033
a(S'lugar'
p3034
(dp3035
S'NOUN'
p3036
F1.0
s(lp3037
(g7
I0
tp3038
atp3039
a(g10
(dp3040
g12
F1.0
s(lp3041
(g10
I1
tp3042
atp3043
a(S'la'
p3044
(dp3045
S'PRON'
p3046
F3.5e-05
sS'DET'
p3047
F0.999959
sS'NOUN'
p3048
F0.0
sg1374
F5e-06
s(lp3049
(g22
I2
tp3050
atp3051
a(S'comisi\xc3\xb3n'
p3052
(dp3053
S'NOUN'
p3054
F1.0
s(lp3055
(g29
I3
tp3056
atp3057
a(S'consider\xc3\xb3'
p3058
(dp3059
S'VERB'
p3060
F1.0
s(lp3061
(g41
I4
tp3062
atp3063
a(S'que'
p3064
(dp3065
g1374
F0.0
sS'CONJ'
p3066
F1.0
s(lp3067
(g50
I5
tp3068
atp3069
a(S'deber\xc3\xada'
p3070
(dp3071
S'VERB'
p3072
F1.0
s(lp3073
(g94
I11
tp3074
atp3075
a(S'haberse'
p3076
(dp3077
S'VERB'
p3078
F1.0
s(lp3079
(g514
I12
tp3080
atp3081
a(S'analizado'
p3082
(dp3083
S'VERB'
p3084
F1.0
s(lp3085
(g109
I14
tp3086
atp3087
a(S'con'
p3088
(dp3089
S'ADP'
p3090
F1.0
s(lp3091
(g530
I15
tp3092
atp3093
a(S'mayor'
p3094
(dp3095
S'ADJ'
p3096
F1.0
s(lp3097
(g116
I16
tp3098
atp3099
a(S'detalle'
p3100
(dp3101
S'NOUN'
p3102
F1.0
s(lp3103
(g139
I17
tp3104
atp3105
a(S'el'
p3106
(dp3107
S'PRON'
p3108
F1.4e-05
sS'DET'
p3109
F0.999986
s(lp3110
(g58
I6
tp3111
atp3112
a(S'contenido'
p3113
(dp3114
S'ADJ'
p3115
F0.00321
sS'VERB'
p3116
F0.014183
sS'NOUN'
p3117
F0.982606
s(lp3118
(g66
I7
tp3119
atp3120
a(S'de'
p3121
(dp3122
g1374
F0.0
sS'CONJ'
p3123
F2.5e-05
sS'ADP'
p3124
F0.999975
s(lp3125
(g73
I8
tp3126
atp3127
a(S'estos'
p3128
(dp3129
S'PRON'
p3130
F1.0
s(lp3131
(g80
I9
tp3132
atp3133
a(S'acuerdos'
p3134
(dp3135
S'NOUN'
p3136
F1.0
s(lp3137
(g87
I10
tp3138
atp3139
a(g10
(dp3140
g12
F1.0
s(lp3141
(g10
I18
tp3142
atp3143
a(S'en'
p3144
(dp3145
S'ADP'
p3146
F1.0
s(lp3147
(g151
I19
tp3148
atp3149
a(S'relaci\xc3\xb3n'
p3150
(dp3151
S'ADP'
p3152
F1.0
s(lp3153
(g158
I20
tp3154
atp3155
a(S'con'
p3156
(dp3157
S'ADP'
p3158
F1.0
s(lp3159
(g179
I21
tp3160
atp3161
a(S'las'
p3162
(dp3163
S'PRON'
p3164
F0.0
sS'DET'
p3165
F1.0
s(lp3166
(g188
I22
tp3167
atp3168
a(S'disposiciones'
p3169
(dp3170
S'NOUN'
p3171
F1.0
s(lp3172
(g203
I23
tp3173
atp3174
a(S'para'
p3175
(dp3176
S'CONJ'
p3177
F0.952807
sS'ADP'
p3178
F0.047193
s(lp3179
(g165
I24
tp3180
atp3181
a(S'controlar'
p3182
(dp3183
S'VERB'
p3184
F1.0
s(lp3185
(g172
I25
tp3186
atp3187
a(S'las'
p3188
(dp3189
S'PRON'
p3190
F2e-06
sS'DET'
p3191
F0.999998
s(lp3192
tp3193
a(S'cantidades'
p3194
(dp3195
S'NOUN'
p3196
F1.0
s(lp3197
(g605
I28
tp3198
atp3199
a(S'de'
p3200
(dp3201
g1374
F2.9e-05
sS'CONJ'
p3202
F0.000449
sS'ADP'
p3203
F0.999522
s(lp3204
tp3205
a(S'captura'
p3206
(dp3207
S'NOUN'
p3208
F1.0
s(lp3209
(g217
I27
tp3210
atp3211
a(S'actuales'
p3212
(dp3213
S'ADJ'
p3214
F1.0
s(lp3215
(g195
I26
tp3216
atp3217
a(S'y'
p3218
(dp3219
g1374
F0.000678
sS'CONJ'
p3220
F0.999322
s(lp3221
(g224
I29
tp3222
atp3223
a(S'para'
p3224
(dp3225
S'CONJ'
p3226
F0.646024
sS'ADP'
p3227
F0.353976
s(lp3228
tp3229
a(S'proteger'
p3230
(dp3231
S'VERB'
p3232
F1.0
s(lp3233
(g236
I30
tp3234
atp3235
a(S'las'
p3236
(dp3237
S'PRON'
p3238
F2e-06
sS'DET'
p3239
F0.999998
s(lp3240
tp3241
a(S'poblaciones'
p3242
(dp3243
S'NOUN'
p3244
F1.0
s(lp3245
(g250
I32
tp3246
atp3247
a(S'de'
p3248
(dp3249
g1374
F2.9e-05
sS'CONJ'
p3250
F0.000449
sS'ADP'
p3251
F0.999522
s(lp3252
tp3253
a(S'peces'
p3254
(dp3255
S'NOUN'
p3256
F1.0
s(lp3257
(g257
I31
tp3258
atp3259
a(S'en'
p3260
(dp3261
S'ADP'
p3262
F1.0
s(lp3263
(g634
I33
tp3264
atp3265
a(S'vista'
p3266
(dp3267
S'ADP'
p3268
F1.0
s(lp3269
(g264
I34
tp3270
atp3271
a(S'de'
p3272
(dp3273
S'ADP'
p3274
F1.0
s(lp3275
(g271
I35
tp3276
atp3277
a(S'la'
p3278
(dp3279
S'NOUN'
p3280
F0.0
sS'PRON'
p3281
F0.0
sS'DET'
p3282
F0.999999
sg1374
F0.0
s(lp3283
(g280
I36
tp3284
atp3285
a(S'presi\xc3\xb3n'
p3286
(dp3287
S'NOUN'
p3288
F1.0
s(lp3289
(g287
I37
tp3290
atp3291
a(S'de'
p3292
(dp3293
g1374
F0.0
sS'CONJ'
p3294
F1.7e-05
sS'ADP'
p3295
F0.999983
s(lp3296
(g294
I38
tp3297
atp3298
a(S'la'
p3299
(dp3300
g1374
F0.0
sS'PRON'
p3301
F0.0
sS'DET'
p3302
F0.999999
sS'NOUN'
p3303
F0.0
s(lp3304
(g131
I39
tp3305
atp3306
a(S'comisi\xc3\xb3n'
p3307
(dp3308
S'NOUN'
p3309
F1.0
s(lp3310
(g676
I40
tp3311
atp3312
a(S'de'
p3313
(dp3314
g1374
F5e-05
sS'CONJ'
p3315
F0.000456
sS'ADP'
p3316
F0.999493
s(lp3317
(g123
I41
tp3318
atp3319
a(S'pesca'
p3320
(dp3321
S'VERB'
p3322
F0.001172
sS'NOUN'
p3323
F0.998828
s(lp3324
(g302
I42
tp3325
atp3326
a(g3218
(dp3327
g1374
F2e-05
sS'CONJ'
p3328
F0.99998
s(lp3329
(g312
I43
tp3330
atp3331
a(S'tambi\xc3\xa9n'
p3332
(dp3333
S'ADV'
p3334
F1.0
s(lp3335
(g320
I44
tp3336
atp3337
a(S'para'
p3338
(dp3339
S'CONJ'
p3340
F0.992832
sS'ADP'
p3341
F0.007168
s(lp3342
(g328
I45
tp3343
atp3344
a(S'garantizar'
p3345
(dp3346
S'VERB'
p3347
F1.0
s(lp3348
(g342
I46
tp3349
atp3350
a(S'que'
p3351
(dp3352
g1374
F2e-06
sS'CONJ'
p3353
F0.999998
s(lp3354
(g351
I47
tp3355
atp3356
a(S'se'
p3357
(dp3358
S'PRON'
p3359
F1.0
sS'VERB'
p3360
F0.0
s(lp3361
(g410
I55
tp3362
atp3363
a(S'aplica'
p3364
(dp3365
S'VERB'
p3366
F1.0
s(lp3367
(g438
I57
tp3368
atp3369
a(S'correctamente'
p3370
(dp3371
S'ADV'
p3372
F1.0
s(lp3373
(g430
I56
tp3374
atp3375
a(S'en'
p3376
(dp3377
g1374
F0.0
sS'CONJ'
p3378
F3e-06
sS'ADP'
p3379
F0.999997
s(lp3380
(g781
I58
tp3381
atp3382
a(S'la'
p3383
(dp3384
S'NOUN'
p3385
F1.3e-05
sS'PRON'
p3386
F0.0
sS'DET'
p3387
F0.999986
sg1374
F1e-06
s(lp3388
tp3389
a(S'pr\xc3\xa1ctica'
p3390
(dp3391
S'ADJ'
p3392
F0.262797
sS'NOUN'
p3393
F0.737203
s(lp3394
(g418
I59
tp3395
atp3396
a(S'el'
p3397
(dp3398
S'PRON'
p3399
F1.2e-05
sS'DET'
p3400
F0.999988
s(lp3401
(g359
I48
tp3402
atp3403
a(S'componente'
p3404
(dp3405
S'ADJ'
p3406
F0.014899
sS'NOUN'
p3407
F0.985101
s(lp3408
(g366
I51
tp3409
atp3410
a(S'de'
p3411
(dp3412
g1374
F2.9e-05
sS'CONJ'
p3413
F0.000465
sS'ADP'
p3414
F0.999506
s(lp3415
tp3416
a(S'desarrollo'
p3417
(dp3418
S'NOUN'
p3419
F1.0
s(lp3420
(g373
I50
tp3421
atp3422
a(S'local'
p3423
(dp3424
S'NOUN'
p3425
F0.001635
sS'ADJ'
p3426
F0.997342
sg1374
F0.001023
s(lp3427
(g381
I49
tp3428
atp3429
a(S'de'
p3430
(dp3431
g1374
F0.0
sS'CONJ'
p3432
F5.7e-05
sS'ADP'
p3433
F0.999943
s(lp3434
(g388
I52
tp3435
atp3436
a(S'los'
p3437
(dp3438
S'PRON'
p3439
F0.0
sS'DET'
p3440
F1.0
s(lp3441
(g395
I53
tp3442
atp3443
a(S'acuerdos'
p3444
(dp3445
S'NOUN'
p3446
F1.0
s(lp3447
(g402
I54
tp3448
atp3449
a(g12
(dp3450
g12
F1.0
s(lp3451
(g12
I60
tp3452
atp3453
as.