(dp0
S'fr'
p1
(lp2
(S'je'
p3
(dp4
S'PRON'
p5
F1.0
s(lp6
(S'i'
p7
I0
tp8
atp9
a(S'vous'
p10
(dp11
S'PRON'
p12
F1.0
s(lp13
(S'you'
p14
I3
tp15
atp16
a(S'rappellerais'
p17
(dp18
S'VERB'
p19
F1.0
s(lp20
(S'remind'
p21
I2
tp22
atp23
a(S'que'
p24
(dp25
S'ADV'
p26
F0.181042
sS'PRON'
p27
F0.014163
sS'CONJ'
p28
F0.804796
s(lp29
(S'that'
p30
I4
tp31
atp32
a(S'tout'
p33
(dp34
S'ADV'
p35
F0.379433
sS'PRON'
p36
F0.620312
sS'NOUN'
p37
F0.000254
s(lp38
(S'whole'
p39
I6
tp40
atp41
a(S'le'
p42
(dp43
S'PRON'
p44
F8.5e-05
sS'DET'
p45
F0.999915
s(lp46
(S'the'
p47
I5
tp48
atp49
a(S'syst\xc3\xa8me'
p50
(dp51
S'NOUN'
p52
F1.0
s(lp53
(S'system'
p54
I8
tp55
atp56
a(S'financier'
p57
(dp58
S'NOUN'
p59
F0.018747
sS'ADJ'
p60
F0.981253
s(lp61
(S'financial'
p62
I7
tp63
atp64
a(S'risquait'
p65
(dp66
S'VERB'
p67
F1.0
s(lp68
(S'danger'
p69
I11
tp70
atp71
a(S'de'
p72
(dp73
S'ADP'
p74
F1.0
s(lp75
(S'of'
p76
I12
tp77
atp78
a(S"s'"
p79
(dp80
S'ADJ'
p81
F0.160704
sS'VERB'
p82
F0.06480800000000002
sS'NOUN'
p83
F0.774488
s(lp84
(S'was'
p85
I9
tp86
atp87
a(S'effondrer'
p88
(dp89
S'VERB'
p90
F1.0
s(lp91
(S'meltdown'
p92
I13
tp93
atp94
a(S'\xc3\xa0'
p95
(dp96
S'ADP'
p97
F1.0
s(lp98
(S'at'
p99
I14
tp100
atp101
a(S'la'
p102
(dp103
S'PRON'
p104
F1.2e-05
sS'DET'
p105
F0.999987
sS'NOUN'
p106
F1e-06
s(lp107
(S'the'
p108
I15
tp109
atp110
a(S'fin'
p111
(dp112
S'ADJ'
p113
F0.039307
sS'NOUN'
p114
F0.960693
s(lp115
(S'end'
p116
I16
tp117
atp118
a(S'de'
p119
(dp120
S'ADP'
p121
F1.0
s(lp122
(S'of'
p123
I17
tp124
atp125
a(S'2008'
p126
(dp127
S'X'
p128
F0.001053
sS'NUM'
p129
F0.998947
s(lp130
(S'2008'
p131
I18
tp132
atp133
a(S'.'
p134
(dp135
g134
F1.0
s(lp136
(g134
I19
tp137
atp138
asS'en'
p139
(lp140
(g7
(dp141
g128
F0.024389
sS'NOUN'
p142
F0.97561
s(lp143
(g7
I0
tp144
atp145
a(S'would'
p146
(dp147
S'VERB'
p148
F1.0
s(lp149
(g146
I1
tp150
atp151
a(g21
(dp152
S'VERB'
p153
F1.0
s(lp154
(g21
I2
tp155
atp156
a(g14
(dp157
S'PRON'
p158
F1.0
s(lp159
(g14
I3
tp160
atp161
a(g30
(dp162
S'ADV'
p163
F0.008566
sS'DET'
p164
F0.120321
sS'ADP'
p165
F0.871113
s(lp166
(g30
I4
tp167
atp168
a(g47
(dp169
S'NOUN'
p170
F1e-06
sS'DET'
p171
F0.999999
s(lp172
(g47
I5
tp173
atp174
a(g39
(dp175
S'ADV'
p176
F0.000269
sS'NOUN'
p177
F0.041306
sS'ADJ'
p178
F0.958384
sS'PRT'
p179
F4e-05
s(lp180
(g39
I6
tp181
atp182
a(g62
(dp183
S'ADJ'
p184
F1.0
s(lp185
(g62
I7
tp186
atp187
a(g54
(dp188
S'NOUN'
p189
F1.0
s(lp190
(g54
I8
tp191
atp192
a(g85
(dp193
S'VERB'
p194
F1.0
s(lp195
(g85
I9
tp196
atp197
a(S'in'
p198
(dp199
S'ADV'
p200
F0.010025
sS'PRT'
p201
F0.000815
sS'ADP'
p202
F0.98916
s(lp203
(g198
I10
tp204
atp205
a(g69
(dp206
S'ADJ'
p207
F0.029371
sS'NOUN'
p208
F0.970629
s(lp209
(g69
I11
tp210
atp211
a(g76
(dp212
S'ADP'
p213
F1.0
s(lp214
(g76
I12
tp215
atp216
a(g92
(dp217
S'ADJ'
p218
F0.178872
sS'NOUN'
p219
F0.821128
s(lp220
(g92
I13
tp221
atp222
a(g99
(dp223
S'NOUN'
p224
F4e-06
sS'ADP'
p225
F0.999996
s(lp226
(g99
I14
tp227
atp228
a(g108
(dp229
S'NOUN'
p230
F2e-06
sS'DET'
p231
F0.999998
s(lp232
(g108
I15
tp233
atp234
a(g116
(dp235
S'VERB'
p236
F0.00056
sS'NOUN'
p237
F0.999441
s(lp238
(g116
I16
tp239
atp240
a(g123
(dp241
S'ADP'
p242
F1.0
s(lp243
(g123
I17
tp244
atp245
a(g131
(dp246
S'ADV'
p247
F6.1e-05
sS'ADJ'
p248
F0.002157
sS'NUM'
p249
F0.993374
sS'NOUN'
p250
F0.004407
sg128
F0.0
s(lp251
(g131
I18
tp252
atp253
a(g134
(dp254
g134
F1.0
s(lp255
(g134
I19
tp256
atp257
asS'nl'
p258
(lp259
(S'laten'
p260
(dp261
S'VERB'
p262
F0.999854
sS'NOUN'
p263
F0.000146
s(lp264
(g7
I0
tp265
atp266
a(S'we'
p267
(dp268
S'PRON'
p269
F1.0
s(lp270
(g14
I3
tp271
atp272
a(S'niet'
p273
(dp274
S'ADV'
p275
F0.999987
sS'PRON'
p276
F6e-06
sS'VERB'
p277
F8e-06
sg128
F0.0
s(lp278
tp279
a(S'vergeten'
p280
(dp281
S'VERB'
p282
F0.998634
sS'NOUN'
p283
F0.001366
s(lp284
(g21
I2
tp285
atp286
a(S'dat'
p287
(dp288
S'PRON'
p289
F0.226308
sS'CONJ'
p290
F0.773692
s(lp291
(g30
I4
tp292
atp293
a(S'eind'
p294
(dp295
S'NOUN'
p296
F1.0
s(lp297
(g116
I16
tp298
atp299
a(S'2008'
p300
(dp301
S'NUM'
p302
F1.0
s(lp303
(g131
I18
tp304
atp305
a(S'het'
p306
(dp307
S'PRON'
p308
F0.001242
sS'DET'
p309
F0.998758
s(lp310
(g47
I5
tp311
atp312
a(S'gehele'
p313
(dp314
S'NOUN'
p315
F0.000396
sS'ADJ'
p316
F0.999604
s(lp317
(g39
I6
tp318
atp319
a(S'financi\xc3\xable'
p320
(dp321
S'NOUN'
p322
F0.007834
sS'ADJ'
p323
F0.992166
s(lp324
(g62
I7
tp325
atp326
a(S'stelsel'
p327
(dp328
S'NOUN'
p329
F1.0
s(lp330
(g54
I8
tp331
atp332
a(S'dreigde'
p333
(dp334
S'VERB'
p335
F1.0
s(lp336
(g69
I11
tp337
atp338
a(S'in'
p339
(dp340
S'ADV'
p341
F0.997606
sS'VERB'
p342
F1e-06
sS'ADP'
p343
F0.002394
s(lp344
(g198
I10
tp345
atp346
a(S'te'
p347
(dp348
S'PRT'
p349
F1.0
s(lp350
(g99
I14
tp351
atp352
a(S'storten'
p353
(dp354
S'VERB'
p355
F0.999951
sS'NOUN'
p356
F4.9e-05
s(lp357
(g92
I13
tp358
atp359
a(g134
(dp360
g134
F1.0
s(lp361
(g134
I19
tp362
atp363
asS'de'
p364
(lp365
(S'ich'
p366
(dp367
S'PRON'
p368
F1.0
s(lp369
(g7
I0
tp370
atp371
a(S'm\xc3\xb6chte'
p372
(dp373
S'VERB'
p374
F1.0
s(lp375
(g146
I1
tp376
atp377
a(S'sie'
p378
(dp379
S'PRON'
p380
F1.0
s(lp381
(g14
I3
tp382
atp383
a(S'daran'
p384
(dp385
S'ADV'
p386
F0.999003
sS'PRT'
p387
F0.000997
s(lp388
tp389
a(S'erinnern'
p390
(dp391
S'VERB'
p392
F1.0
s(lp393
(g21
I2
tp394
atp395
a(S','
p396
(dp397
g134
F1.0
s(lp398
tp399
a(S'dass'
p400
(dp401
S'CONJ'
p402
F1.0
s(lp403
(g30
I4
tp404
atp405
a(S'das'
p406
(dp407
S'PRON'
p408
F0.095586
sS'DET'
p409
F0.904299
s(lp410
(g47
I5
tp411
atp412
a(S'gesamte'
p413
(dp414
S'ADJ'
p415
F1.0
s(lp416
(g39
I6
tp417
atp418
a(S'finanzsystem'
p419
(dp420
S'ADJ'
p421
F0.002159
sS'NOUN'
p422
F0.995802
s(lp423
(g62
I7
tp424
atp425
a(S'gegen'
p426
(dp427
S'PRT'
p428
F0.45986
sS'ADP'
p429
F0.54014
s(lp430
tp431
a(S'ende'
p432
(dp433
S'VERB'
p434
F1.0
s(lp435
(g116
I16
tp436
atp437
a(S'2008'
p438
(dp439
S'ADV'
p440
F0.079699
sS'NUM'
p441
F0.914943
s(lp442
(g131
I18
tp443
atp444
a(S'vom'
p445
(dp446
S'ADP'
p447
F1.0
s(lp448
(g108
I15
tp449
atp450
a(S'zusammenbruch'
p451
(dp452
S'ADJ'
p453
F8.4e-05
sS'NOUN'
p454
F0.99985
s(lp455
(g92
I13
tp456
atp457
a(S'gef\xc3\xa4hrdet'
p458
(dp459
S'VERB'
p460
F0.994862
sS'ADJ'
p461
F0.004955
s(lp462
(g69
I11
tp463
atp464
a(S'war'
p465
(dp466
S'VERB'
p467
F1.0
s(lp468
(g85
I9
tp469
atp470
a(g134
(dp471
g134
F1.0
s(lp472
(g134
I19
tp473
atp474
asS'it'
p475
(lp476
(S'ricordo'
p477
(dp478
S'VERB'
p479
F0.308298
sS'NOUN'
p480
F0.691702
s(lp481
(g21
I2
tp482
atp483
a(S'che'
p484
(dp485
S'PRON'
p486
F0.89804
sS'CONJ'
p487
F0.07
sS'ADJ'
p488
F0.03196
s(lp489
(g30
I4
tp490
atp491
a(g396
(dp492
g134
F1.0
s(lp493
(g99
I14
tp494
atp495
a(S'alla'
p496
(dp497
S'ADP'
p498
F1.0
s(lp499
(g108
I15
tp500
atp501
a(S'fine'
p502
(dp503
S'ADJ'
p504
F0.016898
sS'NOUN'
p505
F0.983102
s(lp506
(g116
I16
tp507
atp508
a(S'del'
p509
(dp510
S'DEF'
p511
F6.6e-05
sS'ADP'
p512
F0.999934
s(lp513
(g123
I17
tp514
atp515
a(S'2008'
p516
(dp517
S'NUM'
p518
F0.999739
sg134
F0.000261
s(lp519
(g131
I18
tp520
atp521
a(g396
(dp522
g134
F1.0
s(lp523
tp524
a(S"l'"
p525
(dp526
S'NOUN'
p527
F0.003774
sS'VERB'
p528
F0.984512
sS'ADJ'
p529
F0.011715
s(lp530
(g47
I5
tp531
atp532
a(S'intero'
p533
(dp534
S'NOUN'
p535
F0.004153
sS'ADJ'
p536
F0.995847
s(lp537
(g39
I6
tp538
atp539
a(S'sistema'
p540
(dp541
S'VERB'
p542
F0.001859
sS'NOUN'
p543
F0.99814
s(lp544
(g54
I8
tp545
atp546
a(S'finanziario'
p547
(dp548
S'ADJ'
p549
F1.0
s(lp550
(g62
I7
tp551
atp552
a(S'ha'
p553
(dp554
S'VERB'
p555
F1.0
s(lp556
(g85
I9
tp557
atp558
a(S'rischiato'
p559
(dp560
S'VERB'
p561
F1.0
s(lp562
tp563
a(S'il'
p564
(dp565
S'DET'
p566
F1.0
s(lp567
(g69
I11
tp568
atp569
a(S'tracollo'
p570
(dp571
S'VERB'
p572
F2.4e-05
sS'NOUN'
p573
F0.999976
s(lp574
(g92
I13
tp575
atp576
a(g134
(dp577
g134
F1.0
s(lp578
(g134
I19
tp579
atp580
asS'sk'
p581
(lp582
(S'r\xc3\xa1d'
p583
(dp584
S'ADV'
p585
F0.013323
sS'NOUN'
p586
F0.34364700000000004
sS'ADJ'
p587
F0.627022
sg128
F0.016008
s(lp588
tp589
a(S'by'
p590
(dp591
S'PRT'
p592
F0.999988
sg128
F1.2e-05
s(lp593
(g146
I1
tp594
atp595
a(S'som'
p596
(dp597
S'VERB'
p598
F1.0
s(lp599
(g7
I0
tp600
atp601
a(S'v\xc3\xa1m'
p602
(dp603
S'PRON'
p604
F0.999999
sg128
F1e-06
s(lp605
(g14
I3
tp606
atp607
a(S'pripomenul'
p608
(dp609
S'VERB'
p610
F0.9999999999999999
s(lp611
(g21
I2
tp612
atp613
a(g396
(dp614
g134
F1.0
s(lp615
tp616
a(S'\xc5\xbee'
p617
(dp618
g128
F0.0005059999999999999
sS'CONJ'
p619
F0.999493
s(lp620
(g30
I4
tp621
atp622
a(S'cel\xc3\xa9mu'
p623
(dp624
g128
F0.000644
sS'ADJ'
p625
F0.999356
s(lp626
(g39
I6
tp627
atp628
a(S'finan\xc4\x8dn\xc3\xa9mu'
p629
(dp630
S'ADJ'
p631
F1.0
s(lp632
(g62
I7
tp633
atp634
a(S'syst\xc3\xa9mu'
p635
(dp636
S'NOUN'
p637
F1.0
s(lp638
(g54
I8
tp639
atp640
a(S'hrozil'
p641
(dp642
S'VERB'
p643
F1.0
s(lp644
tp645
a(S'na'
p646
(dp647
g128
F6e-05
sS'CONJ'
p648
F6e-06
sS'ADP'
p649
F0.999933
sS'PRT'
p650
F1e-06
s(lp651
(g99
I14
tp652
atp653
a(S'konci'
p654
(dp655
S'NOUN'
p656
F1.0
s(lp657
(g116
I16
tp658
atp659
a(S'roku'
p660
(dp661
S'NOUN'
p662
F1.0
s(lp663
tp664
a(S'2008'
p665
(dp666
S'NUM'
p667
F1.0
s(lp668
(g131
I18
tp669
atp670
a(S'kolaps'
p671
(dp672
S'NOUN'
p673
F1.0
s(lp674
(g92
I13
tp675
atp676
a(g134
(dp677
g134
F1.0
s(lp678
(g134
I19
tp679
atp680
asS'pl'
p681
(lp682
(S'chcia\xc5\x82bym'
p683
(dp684
S'ADV'
p685
F0.041723
sS'ADJ'
p686
F0.008087999999999998
sS'VERB'
p687
F0.903913
sS'NOUN'
p688
F0.046274
s(lp689
(g146
I1
tp690
atp691
a(S'przypomnie\xc4\x87'
p692
(dp693
S'VERB'
p694
F1.0
s(lp695
(g21
I2
tp696
atp697
a(g396
(dp698
g128
F0.0
sg134
F1.0
s(lp699
tp700
a(S'\xc5\xbce'
p701
(dp702
S'PRT'
p703
F0.000939
sS'CONJ'
p704
F0.9990600000000001
s(lp705
(g30
I4
tp706
atp707
a(S'z'
p708
(dp709
S'PRT'
p710
F0.001356
sS'VERB'
p711
F2.1e-05
sS'NOUN'
p712
F1e-06
sS'ADP'
p713
F0.998621
sg128
F1e-06
s(lp714
(g108
I15
tp715
atp716
a(S'ko\xc5\x84cem'
p717
(dp718
S'NOUN'
p719
F1.0
s(lp720
(g116
I16
tp721
atp722
a(S'2008'
p723
(dp724
S'NUM'
p725
F0.004996
sS'ADJ'
p726
F0.9950049999999999
s(lp727
tp728
a(S'roku'
p729
(dp730
S'NOUN'
p731
F1.0
s(lp732
(g131
I18
tp733
atp734
a(S'ca\xc5\x82emu'
p735
(dp736
S'ADJ'
p737
F1.0
s(lp738
(g39
I6
tp739
atp740
a(S'systemowi'
p741
(dp742
S'NOUN'
p743
F1.0
s(lp744
(g54
I8
tp745
atp746
a(S'finansowego'
p747
(dp748
S'ADJ'
p749
F1.0
s(lp750
(g62
I7
tp751
atp752
a(S'grozi\xc5\x82o'
p753
(dp754
S'VERB'
p755
F1.0
s(lp756
tp757
a(S'za\xc5\x82amanie'
p758
(dp759
S'NOUN'
p760
F1.0
s(lp761
(g92
I13
tp762
atp763
a(g134
(dp764
g134
F1.0
s(lp765
(g134
I19
tp766
atp767
asS'sl'
p768
(lp769
(S'naj'
p770
(dp771
S'PRT'
p772
F0.522823
sS'CONJ'
p773
F0.477164
sS'ADJ'
p774
F1.3000000000000001e-05
s(lp775
(g7
I0
tp776
atp777
a(S'vas'
p778
(dp779
S'PRON'
p780
F0.9984410000000001
sS'NOUN'
p781
F0.001559
s(lp782
tp783
a(S'spomnim'
p784
(dp785
S'VERB'
p786
F1.0
s(lp787
(g21
I2
tp788
atp789
a(g396
(dp790
g134
F1.0
s(lp791
tp792
a(S'da'
p793
(dp794
S'PRT'
p795
F2e-06
sS'CONJ'
p796
F0.999989
sS'VERB'
p797
F9e-06
sg128
F0.0
s(lp798
(g30
I4
tp799
atp800
a(S'smo'
p801
(dp802
g128
F0.0
sS'VERB'
p803
F1.0
s(lp804
tp805
a(S'imeli'
p806
(dp807
S'VERB'
p808
F1.0
s(lp809
(g85
I9
tp810
atp811
a(S'ob'
p812
(dp813
g128
F5e-06
sS'ADP'
p814
F0.999996
s(lp815
(g99
I14
tp816
atp817
a(S'koncu'
p818
(dp819
S'NOUN'
p820
F1.0
s(lp821
(g116
I16
tp822
atp823
a(S'leta'
p824
(dp825
S'NOUN'
p826
F1.0
s(lp827
tp828
a(S'2008'
p829
(dp830
S'NUM'
p831
F1.0
s(lp832
(g131
I18
tp833
atp834
a(S'nevarnost'
p835
(dp836
S'NOUN'
p837
F1.0
s(lp838
(g69
I11
tp839
atp840
a(S'zloma'
p841
(dp842
S'ADV'
p843
F0.319395
sS'ADJ'
p844
F0.187161
sS'CONJ'
p845
F0.003438
sS'VERB'
p846
F0.005021
sS'NOUN'
p847
F0.4849839999999999
s(lp848
(g92
I13
tp849
atp850
a(S'celotnega'
p851
(dp852
S'ADJ'
p853
F1.0
s(lp854
(g39
I6
tp855
atp856
a(S'finan\xc4\x8dnega'
p857
(dp858
S'ADJ'
p859
F1.0
s(lp860
(g62
I7
tp861
atp862
a(S'sistema'
p863
(dp864
S'NOUN'
p865
F1.0
s(lp866
(g54
I8
tp867
atp868
a(g134
(dp869
g134
F1.0
s(lp870
(g134
I19
tp871
atp872
asS'es'
p873
(lp874
(S'recuerdo'
p875
(dp876
S'ADJ'
p877
F0.173535
sS'VERB'
p878
F0.383978
sS'NOUN'
p879
F0.442486
s(lp880
(g21
I2
tp881
atp882
a(g396
(dp883
g134
F1.0
s(lp884
tp885
a(S'incluso'
p886
(dp887
S'ADV'
p888
F1.0
s(lp889
(g92
I13
tp890
atp891
a(g396
(dp892
g134
F1.0
s(lp893
tp894
a(S'que'
p895
(dp896
g128
F1.2e-05
sS'CONJ'
p897
F0.999988
s(lp898
(g30
I4
tp899
atp900
a(g396
(dp901
g134
F1.0
s(lp902
(g14
I3
tp903
atp904
a(S'a'
p905
(dp906
g128
F0.030685999999999998
sS'CONJ'
p907
F0.000331
sS'ADP'
p908
F0.968983
s(lp909
(g99
I14
tp910
atp911
a(S'finales'
p912
(dp913
S'ADJ'
p914
F0.346962
sS'NOUN'
p915
F0.653038
s(lp916
(g116
I16
tp917
atp918
a(S'de'
p919
(dp920
g128
F0.001344
sS'CONJ'
p921
F0.00025
sS'ADP'
p922
F0.998407
s(lp923
(g123
I17
tp924
atp925
a(S'2008'
p926
(dp927
g128
F0.105216
sS'NUM'
p928
F0.894784
s(lp929
(g131
I18
tp930
atp931
a(g396
(dp932
g134
F1.0
s(lp933
(g85
I9
tp934
atp935
a(S'hubo'
p936
(dp937
S'VERB'
p938
F1.0
s(lp939
(g92
I13
tp940
atp941
a(S'un'
p942
(dp943
g128
F0.0
sS'DET'
p944
F1.0
s(lp945
(g92
I13
tp946
atp947
a(S'cierto'
p948
(dp949
S'ADV'
p950
F0.000303
sS'ADJ'
p951
F0.999697
s(lp952
tp953
a(S'peligro'
p954
(dp955
S'NOUN'
p956
F1.0
s(lp957
(g69
I11
tp958
atp959
a(S'de'
p960
(dp961
g128
F0.0
sS'CONJ'
p962
F0.345844
sS'ADP'
p963
F0.654156
s(lp964
(g76
I12
tp965
atp966
a(S'colapsar'
p967
(dp968
S'VERB'
p969
F1.0
s(lp970
(g92
I13
tp971
atp972
a(S'el'
p973
(dp974
S'PRON'
p975
F9e-06
sS'DET'
p976
F0.999991
s(lp977
(g47
I5
tp978
atp979
a(S'propio'
p980
(dp981
S'ADJ'
p982
F1.0
s(lp983
(g39
I6
tp984
atp985
a(S'sistema'
p986
(dp987
S'NOUN'
p988
F1.0
s(lp989
(g54
I8
tp990
atp991
a(S'financiero'
p992
(dp993
S'NOUN'
p994
F0.008827
sS'ADJ'
p995
F0.991173
s(lp996
(g62
I7
tp997
atp998
a(g134
(dp999
g134
F1.0
s(lp1000
(g134
I19
tp1001
atp1002
as.