(dp0
S'fr'
p1
(lp2
(S'nous'
p3
(dp4
S'PRON'
p5
F1.0
s(lp6
(S'we'
p7
I2
tp8
atp9
a(S'devons'
p10
(dp11
S'VERB'
p12
F0.999928
sS'NOUN'
p13
F7.2e-05
s(lp14
(S'need'
p15
I3
tp16
atp17
a(S'n\xc3\xa9anmoins'
p18
(dp19
S'ADV'
p20
F1.0
s(lp21
(S'nevertheless'
p22
I0
tp23
atp24
a(S'r\xc3\xa9gler'
p25
(dp26
S'VERB'
p27
F1.0
s(lp28
(S'resolve'
p29
I5
tp30
atp31
a(S'la'
p32
(dp33
S'PRON'
p34
F6e-06
sS'DET'
p35
F0.999994
sS'NOUN'
p36
F0.0
s(lp37
(S'the'
p38
I6
tp39
atp40
a(S'question'
p41
(dp42
S'NOUN'
p43
F1.0
s(lp44
(S'issue'
p45
I7
tp46
atp47
a(S'des'
p48
(dp49
S'DET'
p50
F2.1e-05
sS'ADP'
p51
F0.999979
s(lp52
tp53
a(S'quotas'
p54
(dp55
S'NOUN'
p56
F1.0
s(lp57
(S'quotas'
p58
I10
tp59
atp60
a(S'de'
p61
(dp62
S'ADP'
p63
F1.0
s(lp64
(S'of'
p65
I8
tp66
atp67
a(S'lait'
p68
(dp69
S'NOUN'
p70
F1.0
s(lp71
(S'milk'
p72
I9
tp73
atp74
a(S'sans'
p75
(dp76
S'CONJ'
p77
F0.416045
sS'ADP'
p78
F0.583955
s(lp79
(S'without'
p80
I11
tp81
atp82
a(S','
p83
(dp84
S'.'
p85
F1.0
s(lp86
(g83
I1
tp87
atp88
a(S'en'
p89
(dp90
S'PRON'
p91
F0.082395
sS'ADP'
p92
F0.917605
s(lp93
tp94
a(S'm\xc3\xaame'
p95
(dp96
S'ADV'
p97
F0.201561
sS'ADJ'
p98
F0.798439
s(lp99
(g22
I0
tp100
atp101
a(S'temps'
p102
(dp103
S'NOUN'
p104
F1.0
s(lp105
tp106
a(g83
(dp107
g85
F1.0
s(lp108
tp109
a(S'cr\xc3\xa9er'
p110
(dp111
S'VERB'
p112
F1.0
s(lp113
(S'creating'
p114
I12
tp115
atp116
a(S'un'
p117
(dp118
S'NOUN'
p119
F0.00154
sS'NUM'
p120
F0.001641
sS'DET'
p121
F0.996819
s(lp122
tp123
a(S'autre'
p124
(dp125
S'ADJ'
p126
F1.0
s(lp127
(S'another'
p128
I13
tp129
atp130
a(S'probl\xc3\xa8me'
p131
(dp132
S'NOUN'
p133
F1.0
s(lp134
(S'problem'
p135
I14
tp136
atp137
a(g85
(dp138
g85
F1.0
s(lp139
(g85
I18
tp140
atp141
asS'en'
p142
(lp143
(g22
(dp144
S'ADV'
p145
F1.0
s(lp146
(g22
I0
tp147
atp148
a(g83
(dp149
g85
F1.0
s(lp150
(g83
I1
tp151
atp152
a(g7
(dp153
S'PRON'
p154
F1.0
s(lp155
(g7
I2
tp156
atp157
a(g15
(dp158
S'VERB'
p159
F0.999992
sS'NOUN'
p160
F7e-06
s(lp161
(g15
I3
tp162
atp163
a(S'to'
p164
(dp165
S'ADV'
p166
F0.0
sS'PRT'
p167
F1.0
sS'ADP'
p168
F0.0
s(lp169
(g164
I4
tp170
atp171
a(g29
(dp172
S'VERB'
p173
F0.99993
sS'NOUN'
p174
F7e-05
s(lp175
(g29
I5
tp176
atp177
a(g38
(dp178
S'NOUN'
p179
F1e-06
sS'DET'
p180
F0.999999
s(lp181
(g38
I6
tp182
atp183
a(g45
(dp184
S'VERB'
p185
F0.000203
sS'NOUN'
p186
F0.999797
s(lp187
(g45
I7
tp188
atp189
a(g65
(dp190
S'ADP'
p191
F1.0
s(lp192
(g65
I8
tp193
atp194
a(g72
(dp195
S'VERB'
p196
F0.0005939999999999999
sS'NOUN'
p197
F0.999407
s(lp198
(g72
I9
tp199
atp200
a(g58
(dp201
S'NOUN'
p202
F1.0
s(lp203
(g58
I10
tp204
atp205
a(g80
(dp206
S'ADP'
p207
F1.0
s(lp208
(g80
I11
tp209
atp210
a(g114
(dp211
S'VERB'
p212
F1.0
s(lp213
(g114
I12
tp214
atp215
a(g128
(dp216
S'DET'
p217
F1.0
s(lp218
(g128
I13
tp219
atp220
a(g135
(dp221
S'NOUN'
p222
F1.0
s(lp223
(g135
I14
tp224
atp225
a(S'in'
p226
(dp227
S'ADV'
p228
F0.000191
sS'PRT'
p229
F0.000279
sS'ADP'
p230
F0.999531
s(lp231
(g226
I15
tp232
atp233
a(S'the'
p234
(dp235
S'NOUN'
p236
F1e-06
sS'DET'
p237
F0.999999
s(lp238
(g234
I16
tp239
atp240
a(S'process'
p241
(dp242
S'VERB'
p243
F0.000147
sS'NOUN'
p244
F0.999853
s(lp245
(g241
I17
tp246
atp247
a(g85
(dp248
g85
F1.0
s(lp249
(g85
I18
tp250
atp251
asS'nl'
p252
(lp253
(S'hoe'
p254
(dp255
S'ADV'
p256
F0.999978
sS'CONJ'
p257
F2.2e-05
s(lp258
(g22
I0
tp259
atp260
a(S'het'
p261
(dp262
S'PRON'
p263
F0.843947
sS'DET'
p264
F0.156054
s(lp265
tp266
a(S'ook'
p267
(dp268
S'ADV'
p269
F1.0
s(lp270
tp271
a(S'zij'
p272
(dp273
S'PRON'
p274
F0.999396
sS'VERB'
p275
F0.000551
sS'NOUN'
p276
F5.4e-05
s(lp277
(g164
I4
tp278
atp279
a(g83
(dp280
g85
F1.0
s(lp281
(g83
I1
tp282
atp283
a(S'we'
p284
(dp285
S'PRON'
p286
F1.0
s(lp287
(g7
I2
tp288
atp289
a(S'moeten'
p290
(dp291
S'VERB'
p292
F0.9999899999999999
sS'NOUN'
p293
F1e-05
s(lp294
(g15
I3
tp295
atp296
a(S'de'
p297
(dp298
S'DET'
p299
F1.0
s(lp300
(g38
I6
tp301
atp302
a(S'kwestie'
p303
(dp304
S'NOUN'
p305
F1.0
s(lp306
(g45
I7
tp307
atp308
a(S'van'
p309
(dp310
S'ADP'
p311
F1.0
s(lp312
(g65
I8
tp313
atp314
a(S'de'
p315
(dp316
S'DET'
p317
F1.0
s(lp318
(g234
I16
tp319
atp320
a(S'melkquota'
p321
(dp322
S'NOUN'
p323
F1.0
s(lp324
(g72
I9
tp325
atp326
a(S'oplossen'
p327
(dp328
S'VERB'
p329
F0.9998400000000001
sS'NOUN'
p330
F0.00016
s(lp331
(g29
I5
tp332
atp333
a(S'zonder'
p334
(dp335
S'CONJ'
p336
F0.809004
sS'ADP'
p337
F0.190996
s(lp338
(g80
I11
tp339
atp340
a(S'daarbij'
p341
(dp342
S'ADV'
p343
F1.0
s(lp344
(g114
I12
tp345
atp346
a(S'weer'
p347
(dp348
S'ADV'
p349
F0.999481
sS'VERB'
p350
F0.000422
sS'NOUN'
p351
F9.7e-05
s(lp352
tp353
a(S'nieuwe'
p354
(dp355
S'NOUN'
p356
F0.0
sS'ADJ'
p357
F1.0
s(lp358
(g128
I13
tp359
atp360
a(S'problemen'
p361
(dp362
S'NOUN'
p363
F1.0
s(lp364
(g135
I14
tp365
atp366
a(S'te'
p367
(dp368
S'PRT'
p369
F1.0
s(lp370
tp371
a(S'veroorzaken'
p372
(dp373
S'VERB'
p374
F1.0
sS'NOUN'
p375
F0.0
s(lp376
(g114
I12
tp377
atp378
a(g85
(dp379
g85
F1.0
s(lp380
(g85
I18
tp381
atp382
asS'de'
p383
(lp384
(S'dennoch'
p385
(dp386
S'ADV'
p387
F1.0
s(lp388
(g22
I0
tp389
atp390
a(S'm\xc3\xbcssen'
p391
(dp392
S'VERB'
p393
F0.999999
s(lp394
(g15
I3
tp395
atp396
a(S'wir'
p397
(dp398
S'PRON'
p399
F1.0
s(lp400
(g7
I2
tp401
atp402
a(S'die'
p403
(dp404
S'PRON'
p405
F0.840837
sS'DET'
p406
F0.081398
s(lp407
(g38
I6
tp408
atp409
a(S'frage'
p410
(dp411
S'VERB'
p412
F1.0
s(lp413
(g45
I7
tp414
atp415
a(S'der'
p416
(dp417
S'PRON'
p418
F0.000763
sS'DET'
p419
F0.999236
s(lp420
(g65
I8
tp421
atp422
a(S'milchquoten'
p423
(dp424
S'ADJ'
p425
F0.02568
sS'NOUN'
p426
F0.958021
s(lp427
(g72
I9
tp428
atp429
a(S'l\xc3\xb6sen'
p430
(dp431
S'VERB'
p432
F1.0
s(lp433
(g29
I5
tp434
atp435
a(g83
(dp436
g85
F1.0
s(lp437
(g164
I4
tp438
atp439
a(S'ohne'
p440
(dp441
S'CONJ'
p442
F0.954156
sS'ADP'
p443
F0.045844
s(lp444
(g80
I11
tp445
atp446
a(S'dabei'
p447
(dp448
S'ADV'
p449
F0.987906
sS'PRT'
p450
F0.012094
s(lp451
(g241
I17
tp452
atp453
a(S'weitere'
p454
(dp455
S'ADJ'
p456
F1.0
s(lp457
(g128
I13
tp458
atp459
a(S'probleme'
p460
(dp461
S'ADJ'
p462
F0.003802
sS'NOUN'
p463
F0.995666
s(lp464
(g135
I14
tp465
atp466
a(S'zu'
p467
(dp468
S'PRT'
p469
F0.9999750000000001
s(lp470
tp471
a(S'schaffen'
p472
(dp473
S'VERB'
p474
F1.0
s(lp475
(g114
I12
tp476
atp477
a(g85
(dp478
g85
F1.0
s(lp479
(g85
I18
tp480
atp481
asS'it'
p482
(lp483
(S'tuttavia'
p484
(dp485
S'ADV'
p486
F1.0
s(lp487
(g22
I0
tp488
atp489
a(g83
(dp490
g85
F1.0
s(lp491
(g83
I1
tp492
atp493
a(S'\xc3\xa8'
p494
(dp495
S'VERB'
p496
F1.0
s(lp497
(g7
I2
tp498
atp499
a(S'necessario'
p500
(dp501
S'NOUN'
p502
F0.023094
sS'ADJ'
p503
F0.976906
s(lp504
(g15
I3
tp505
atp506
a(S'risolvere'
p507
(dp508
S'VERB'
p509
F1.0
s(lp510
(g29
I5
tp511
atp512
a(S'la'
p513
(dp514
S'PRON'
p515
F0.0
sS'DET'
p516
F1.0
s(lp517
(g38
I6
tp518
atp519
a(S'questione'
p520
(dp521
S'NOUN'
p522
F1.0
s(lp523
(g45
I7
tp524
atp525
a(S'delle'
p526
(dp527
S'DEF'
p528
F0.001048
sS'ADP'
p529
F0.998952
s(lp530
(g65
I8
tp531
atp532
a(S'quote'
p533
(dp534
S'NOUN'
p535
F1.0
s(lp536
(g58
I10
tp537
atp538
a(S'latte'
p539
(dp540
S'NOUN'
p541
F1.0
s(lp542
(g72
I9
tp543
atp544
a(S'senza'
p545
(dp546
S'CONJ'
p547
F0.038983
sS'ADP'
p548
F0.961017
s(lp549
(g80
I11
tp550
atp551
a(S'creare'
p552
(dp553
S'VERB'
p554
F1.0
s(lp555
(g114
I12
tp556
atp557
a(S'un'
p558
(dp559
S'PRON'
p560
F0.015515
sS'DEF'
p561
F0.984485
s(lp562
tp563
a(S'altro'
p564
(dp565
S'ADV'
p566
F0.00414
sS'PRON'
p567
F0.015708
sS'ADJ'
p568
F0.970254
sS'NOUN'
p569
F0.009899
s(lp570
(g128
I13
tp571
atp572
a(S'problema'
p573
(dp574
S'NOUN'
p575
F1.0
s(lp576
(g135
I14
tp577
atp578
a(S'nel'
p579
(dp580
S'ADP'
p581
F1.0
s(lp582
(g226
I15
tp583
atp584
a(S'processo'
p585
(dp586
S'VERB'
p587
F3e-06
sS'NOUN'
p588
F0.999997
s(lp589
(g241
I17
tp590
atp591
a(g85
(dp592
g85
F1.0
s(lp593
(g85
I18
tp594
atp595
asS'sk'
p596
(lp597
(S'ot\xc3\xa1zku'
p598
(dp599
S'NOUN'
p600
F1.0
s(lp601
(g45
I7
tp602
atp603
a(S'kv\xc3\xb3t'
p604
(dp605
S'NOUN'
p606
F1.0
s(lp607
(g58
I10
tp608
atp609
a(S'na'
p610
(dp611
S'X'
p612
F2.2e-05
sS'CONJ'
p613
F1.8e-05
sS'ADP'
p614
F0.999956
sS'PRT'
p615
F4e-06
s(lp616
(g65
I8
tp617
atp618
a(S'mlieko'
p619
(dp620
S'NOUN'
p621
F1.0
s(lp622
(g72
I9
tp623
atp624
a(S'v\xc5\xa1ak'
p625
(dp626
g612
F0.369852
sS'CONJ'
p627
F0.630147
s(lp628
(g22
I0
tp629
atp630
a(S'mus\xc3\xadme'
p631
(dp632
S'VERB'
p633
F1.0
s(lp634
(g15
I3
tp635
atp636
a(S'vyrie\xc5\xa1i\xc5\xa5'
p637
(dp638
S'VERB'
p639
F1.0
s(lp640
(g29
I5
tp641
atp642
a(S'bez'
p643
(dp644
g612
F6.1e-05
sS'ADP'
p645
F0.999939
s(lp646
(g80
I11
tp647
atp648
a(S'toho'
p649
(dp650
S'PRON'
p651
F0.99983
sg612
F0.00017
s(lp652
tp653
a(g83
(dp654
g85
F1.0
s(lp655
(g83
I1
tp656
atp657
a(S'aby'
p658
(dp659
g612
F6.699999999999999e-05
sS'CONJ'
p660
F0.999934
s(lp661
(g80
I11
tp662
atp663
a(S'sme'
p664
(dp665
g612
F0.0
sS'VERB'
p666
F1.0
s(lp667
(g7
I2
tp668
atp669
a(S'vytvorili'
p670
(dp671
S'VERB'
p672
F1.0
s(lp673
(g114
I12
tp674
atp675
a(S'\xc4\x8fal\xc5\xa1\xc3\xad'
p676
(dp677
S'ADJ'
p678
F1.0
s(lp679
(g128
I13
tp680
atp681
a(S'probl\xc3\xa9m'
p682
(dp683
S'NOUN'
p684
F1.0
s(lp685
(g135
I14
tp686
atp687
a(S'v'
p688
(dp689
g612
F0.00022200000000000003
sS'ADP'
p690
F0.999777
s(lp691
(g226
I15
tp692
atp693
a(S'celom'
p694
(dp695
S'ADJ'
p696
F1.0
s(lp697
tp698
a(S'procese'
p699
(dp700
S'NOUN'
p701
F1.0
s(lp702
(g241
I17
tp703
atp704
a(g85
(dp705
g85
F1.0
s(lp706
(g85
I18
tp707
atp708
asS'pl'
p709
(lp710
(S'mimo'
p711
(dp712
S'ADV'
p713
F0.00085
sS'ADP'
p714
F0.99915
s(lp715
tp716
a(S'tego'
p717
(dp718
S'ADJ'
p719
F0.066823
sS'NOUN'
p720
F0.932161
sS'PRT'
p721
F7.9e-05
sg612
F0.000938
s(lp722
(g22
I0
tp723
atp724
a(S'musimy'
p725
(dp726
S'VERB'
p727
F1.0
s(lp728
(g15
I3
tp729
atp730
a(S'rozwi\xc4\x85za\xc4\x87'
p731
(dp732
S'VERB'
p733
F1.0
s(lp734
(g29
I5
tp735
atp736
a(S'kwesti\xc4\x99'
p737
(dp738
S'NOUN'
p739
F1.0
s(lp740
(g45
I7
tp741
atp742
a(S'kwot'
p743
(dp744
S'NOUN'
p745
F1.0
s(lp746
(g58
I10
tp747
atp748
a(S'mlecznych'
p749
(dp750
S'ADJ'
p751
F1.0
s(lp752
(g72
I9
tp753
atp754
a(g83
(dp755
g612
F0.0
sg85
F1.0
s(lp756
tp757
a(S'nie'
p758
(dp759
S'ADV'
p760
F7e-05
sS'PRT'
p761
F0.961939
sS'CONJ'
p762
F0.037973
sS'NOUN'
p763
F1.1e-05
sS'PRON'
p764
F5.999999999999999e-06
s(lp765
(g80
I11
tp766
atp767
a(S'tworz\xc4\x85c'
p768
(dp769
S'VERB'
p770
F1.0
s(lp771
tp772
a(S'jednocze\xc5\x9bnie'
p773
(dp774
S'ADV'
p775
F1.0
s(lp776
(g114
I12
tp777
atp778
a(S'innego'
p779
(dp780
S'ADJ'
p781
F1.000001
s(lp782
(g128
I13
tp783
atp784
a(S'problemu'
p785
(dp786
S'NOUN'
p787
F1.0
s(lp788
(g135
I14
tp789
atp790
a(g85
(dp791
g85
F1.0
s(lp792
(g85
I18
tp793
atp794
asS'sl'
p795
(lp796
(S'kljub'
p797
(dp798
S'ADP'
p799
F1.0
s(lp800
tp801
a(S'temu'
p802
(dp803
S'PRON'
p804
F1.0
s(lp805
(g22
I0
tp806
atp807
a(S'moramo'
p808
(dp809
S'VERB'
p810
F1.0
s(lp811
(g15
I3
tp812
atp813
a(S'vpra\xc5\xa1anje'
p814
(dp815
S'NOUN'
p816
F1.0
s(lp817
(g45
I7
tp818
atp819
a(S'mle\xc4\x8dnih'
p820
(dp821
S'ADJ'
p822
F0.9999999999999999
s(lp823
(g72
I9
tp824
atp825
a(S'kvot'
p826
(dp827
S'NOUN'
p828
F1.0
s(lp829
(g58
I10
tp830
atp831
a(S're\xc5\xa1iti'
p832
(dp833
S'VERB'
p834
F1.0
s(lp835
(g29
I5
tp836
atp837
a(g83
(dp838
g85
F1.0
s(lp839
tp840
a(S'ne'
p841
(dp842
S'PRT'
p843
F0.889734
sS'CONJ'
p844
F0.108262
sg612
F0.002004
s(lp845
(g80
I11
tp846
atp847
a(S'da'
p848
(dp849
S'PRT'
p850
F0.008925
sS'CONJ'
p851
F0.988197
sS'VERB'
p852
F0.002871
sg612
F6e-06
s(lp853
tp854
a(S'bi'
p855
(dp856
g612
F2.7e-05
sS'VERB'
p857
F0.999973
s(lp858
(g164
I4
tp859
atp860
a(S'pri'
p861
(dp862
S'ADP'
p863
F1.0
s(lp864
(g226
I15
tp865
atp866
a(S'tem'
p867
(dp868
S'ADV'
p869
F0.000579
sS'PRON'
p870
F0.9994179999999999
sS'NOUN'
p871
F3e-06
s(lp872
(g234
I16
tp873
atp874
a(S'povzro\xc4\x8dili'
p875
(dp876
S'VERB'
p877
F1.0
s(lp878
(g114
I12
tp879
atp880
a(S'druge'
p881
(dp882
S'NUM'
p883
F0.9999999999999999
s(lp884
(g128
I13
tp885
atp886
a(S'te\xc5\xbeave'
p887
(dp888
S'NOUN'
p889
F1.0
s(lp890
(g135
I14
tp891
atp892
a(g85
(dp893
g85
F1.0
s(lp894
(g85
I18
tp895
atp896
asS'es'
p897
(lp898
(S'no'
p899
(dp900
S'ADV'
p901
F1.0
s(lp902
tp903
a(S'obstante'
p904
(dp905
S'ADV'
p906
F1.0
s(lp907
(g22
I0
tp908
atp909
a(g83
(dp910
g85
F1.0
s(lp911
(g83
I1
tp912
atp913
a(S'necesitamos'
p914
(dp915
S'VERB'
p916
F1.0
s(lp917
(g15
I3
tp918
atp919
a(S'resolver'
p920
(dp921
S'VERB'
p922
F1.0
s(lp923
(g29
I5
tp924
atp925
a(S'el'
p926
(dp927
S'PRON'
p928
F0.0
sS'DET'
p929
F1.0
s(lp930
(g38
I6
tp931
atp932
a(S'problema'
p933
(dp934
S'NOUN'
p935
F1.0
s(lp936
(g45
I7
tp937
atp938
a(S'de'
p939
(dp940
g612
F0.0
sS'CONJ'
p941
F1.7e-05
sS'ADP'
p942
F0.999983
s(lp943
(g65
I8
tp944
atp945
a(S'las'
p946
(dp947
S'PRON'
p948
F0.0
sS'DET'
p949
F1.0
s(lp950
tp951
a(S'cuotas'
p952
(dp953
S'NOUN'
p954
F1.0
s(lp955
(g58
I10
tp956
atp957
a(S'l\xc3\xa1cteas'
p958
(dp959
S'ADJ'
p960
F1.0
s(lp961
(g72
I9
tp962
atp963
a(S'sin'
p964
(dp965
S'ADP'
p966
F1.0
s(lp967
(g80
I11
tp968
atp969
a(S'generar'
p970
(dp971
S'VERB'
p972
F1.0
s(lp973
(g114
I12
tp974
atp975
a(S'con'
p976
(dp977
S'ADP'
p978
F1.0
s(lp979
(g226
I15
tp980
atp981
a(S'ello'
p982
(dp983
S'PRON'
p984
F1.0
s(lp985
(g241
I17
tp986
atp987
a(S'un'
p988
(dp989
g612
F4.8e-05
sS'DET'
p990
F0.999952
s(lp991
tp992
a(S'nuevo'
p993
(dp994
S'ADJ'
p995
F1.0
s(lp996
(g128
I13
tp997
atp998
a(S'problema'
p999
(dp1000
S'NOUN'
p1001
F1.0
s(lp1002
(g135
I14
tp1003
atp1004
a(g85
(dp1005
g85
F1.0
s(lp1006
(g85
I18
tp1007
atp1008
as.