(dp0
S'fr'
p1
(lp2
(S'('
p3
(dp4
S'.'
p5
F1.0
s(lp6
(S'apropos'
p7
I0
tp8
atp9
a(S'en'
p10
(dp11
S'PRON'
p12
F0.551936
sS'ADP'
p13
F0.448064
s(lp14
tp15
a(S')'
p16
(dp17
g5
F1.0
s(lp18
(g7
I0
tp19
atp20
a(S'je'
p21
(dp22
S'PRON'
p23
F1.0
s(lp24
(g7
I0
tp25
atp26
a(S'voudrais'
p27
(dp28
S'VERB'
p29
F1.0
s(lp30
(g7
I0
tp31
atp32
a(S'rebondir'
p33
(dp34
S'VERB'
p35
F1.0
s(lp36
(g7
I0
tp37
atp38
a(S'sur'
p39
(dp40
S'ADP'
p41
F1.0
s(lp42
(S'directive'
p43
I14
tp44
atp45
a(S'ce'
p46
(dp47
S'PRON'
p48
F1.0
s(lp49
tp50
a(S'que'
p51
(dp52
S'ADV'
p53
F0.001117
sS'PRON'
p54
F0.991507
sS'CONJ'
p55
F0.007376
s(lp56
(S'what'
p57
I1
tp58
atp59
a(S'vient'
p60
(dp61
S'VERB'
p62
F1.0
s(lp63
(g7
I0
tp64
atp65
a(S'de'
p66
(dp67
S'ADP'
p68
F1.0
s(lp69
tp70
a(S'dire'
p71
(dp72
S'VERB'
p73
F0.984003
sS'NOUN'
p74
F0.015997
s(lp75
tp76
a(S'm.'
p77
(dp78
S'NOUN'
p79
F0.024357
sS'VERB'
p80
F0.8715209999999999
sS'ADJ'
p81
F0.099628
sS'X'
p82
F0.004495
s(lp83
(S'mr'
p84
I2
tp85
atp86
a(S'kelly'
p87
(dp88
S'ADJ'
p89
F0.080089
sS'NOUN'
p90
F0.919911
s(lp91
tp92
a(S'\xc3\xa0'
p93
(dp94
S'ADP'
p95
F1.0
s(lp96
tp97
a(S'propos'
p98
(dp99
S'NOUN'
p100
F1.0
s(lp101
(S'kelly'
p102
I3
tp103
atp104
a(S'de'
p105
(dp106
S'ADP'
p107
F1.0
s(lp108
(S'that'
p109
I7
tp110
atp111
a(S'la'
p112
(dp113
S'PRON'
p114
F0.00043
sS'DET'
p115
F0.999563
sS'NOUN'
p116
F7e-06
s(lp117
(S'the'
p118
I9
tp119
atp120
a(S'mise'
p121
(dp122
S'ADJ'
p123
F0.045718
sS'VERB'
p124
F0.003434
sS'NOUN'
p125
F0.950848
s(lp126
(S'implementation'
p127
I10
tp128
atp129
a(S'en'
p130
(dp131
S'PRON'
p132
F0.045633
sS'ADP'
p133
F0.954367
s(lp134
tp135
a(S'\xc5\x93uvre'
p136
(dp137
S'VERB'
p138
F0.049036
sS'NOUN'
p139
F0.950964
s(lp140
(g127
I10
tp141
atp142
a(S'de'
p143
(dp144
S'ADP'
p145
F1.0
s(lp146
(S'of'
p147
I11
tp148
atp149
a(S'la'
p150
(dp151
S'PRON'
p152
F2e-05
sS'DET'
p153
F0.999972
sS'NOUN'
p154
F7e-06
s(lp155
(S'the'
p156
I12
tp157
atp158
a(S'directive'
p159
(dp160
S'ADJ'
p161
F0.411856
sS'NOUN'
p162
F0.588144
s(lp163
(g43
I14
tp164
atp165
a(S'"'
p166
(dp167
g5
F1.0
s(lp168
(g43
I14
tp169
atp170
a(S'inondations'
p171
(dp172
S'NOUN'
p173
F1.0
s(lp174
(S'floods'
p175
I13
tp176
atp177
a(g166
(dp178
g5
F1.0
s(lp179
tp180
a(S':'
p181
(dp182
g5
F1.0
s(lp183
(g181
I15
tp184
atp185
a(S'comme'
p186
(dp187
S'ADV'
p188
F0.194486
sS'CONJ'
p189
F0.805514
s(lp190
(S'as'
p191
I16
tp192
atp193
a(S'vous'
p194
(dp195
S'PRON'
p196
F1.0
s(lp197
(S'you'
p198
I17
tp199
atp200
a(S'le'
p201
(dp202
S'PRON'
p203
F0.999724
sS'DET'
p204
F0.000276
s(lp205
tp206
a(S'savez'
p207
(dp208
S'VERB'
p209
F1.0
s(lp210
(S'know'
p211
I18
tp212
atp213
a(S','
p214
(dp215
g5
F1.0
s(lp216
(g214
I19
tp217
atp218
a(S'cette'
p219
(dp220
S'PRON'
p221
F1.0
s(lp222
(S'it'
p223
I20
tp224
atp225
a(S'directive'
p226
(dp227
S'ADJ'
p228
F0.290459
sS'NOUN'
p229
F0.709541
s(lp230
(g43
I14
tp231
atp232
a(S'doit'
p233
(dp234
S'VERB'
p235
F0.999683
sS'NOUN'
p236
F0.000317
s(lp237
(S'has'
p238
I21
tp239
atp240
a(S'\xc3\xaatre'
p241
(dp242
S'VERB'
p243
F0.997197
sS'NOUN'
p244
F0.002803
s(lp245
(S'be'
p246
I23
tp247
atp248
a(S'transpos\xc3\xa9e'
p249
(dp250
S'VERB'
p251
F1.0
s(lp252
(S'transposed'
p253
I24
tp254
atp255
a(S'dans'
p256
(dp257
S'NOUN'
p258
F6e-06
sS'ADP'
p259
F0.999994
s(lp260
(S'into'
p261
I25
tp262
atp263
a(S'le'
p264
(dp265
S'PRON'
p266
F0.000231
sS'DET'
p267
F0.999769
s(lp268
tp269
a(S'droit'
p270
(dp271
S'ADV'
p272
F0.002479
sS'ADJ'
p273
F0.012533
sS'NOUN'
p274
F0.984988
s(lp275
(S'law'
p276
I27
tp277
atp278
a(S'national'
p279
(dp280
S'NOUN'
p281
F0.014429
sS'ADJ'
p282
F0.985571
s(lp283
(S'national'
p284
I26
tp285
atp286
a(S'des'
p287
(dp288
S'DET'
p289
F6e-06
sS'ADP'
p290
F0.999994
s(lp291
(S'in'
p292
I33
tp293
atp294
a(S'27'
p295
(dp296
g82
F0.017016
sS'NUM'
p297
F0.982984
s(lp298
(S'27'
p299
I35
tp300
atp301
a(S'\xc3\x89tats'
p302
(dp303
S'NOUN'
p304
F1.0
s(lp305
(S'states'
p306
I37
tp307
atp308
a(S'membres'
p309
(dp310
S'VERB'
p311
F0.157929
sS'NOUN'
p312
F0.84207
s(lp313
(S'member'
p314
I36
tp315
atp316
a(S'd\xc3\xa8s'
p317
(dp318
S'ADP'
p319
F1.0
s(lp320
(g7
I0
tp321
atp322
a(S'cette'
p323
(dp324
S'PRON'
p325
F1.0
s(lp326
(S'this'
p327
I28
tp328
atp329
a(S'ann\xc3\xa9e'
p330
(dp331
S'NOUN'
p332
F1.0
s(lp333
(S'year'
p334
I29
tp335
atp336
a(g214
(dp337
g5
F1.0
s(lp338
(g214
I30
tp339
atp340
a(S'en'
p341
(dp342
S'PRON'
p343
F2.6e-05
sS'ADP'
p344
F0.999974
s(lp345
tp346
a(S'2010'
p347
(dp348
g82
F0.001054
sS'NUM'
p349
F0.998946
s(lp350
(S'2010'
p351
I31
tp352
atp353
a(g5
(dp354
g5
F1.0
s(lp355
(g5
I38
tp356
atp357
asS'en'
p358
(lp359
(g7
(dp360
S'ADV'
p361
F0.999683
sS'ADJ'
p362
F0.000317
s(lp363
(g7
I0
tp364
atp365
a(g57
(dp366
S'PRON'
p367
F0.998861
sS'DET'
p368
F0.001139
s(lp369
(g57
I1
tp370
atp371
a(g84
(dp372
S'ADJ'
p373
F0.004811
sS'NOUN'
p374
F0.995189
s(lp375
(g84
I2
tp376
atp377
a(g102
(dp378
S'ADV'
p379
F0.012155
sS'ADJ'
p380
F0.052052
sS'NOUN'
p381
F0.935794
s(lp382
(g102
I3
tp383
atp384
a(S'raised'
p385
(dp386
S'VERB'
p387
F1.0
s(lp388
(g385
I4
tp389
atp390
a(g214
(dp391
g5
F1.0
s(lp392
(g214
I5
tp393
atp394
a(S'and'
p395
(dp396
S'CONJ'
p397
F0.999987
sS'NOUN'
p398
F1.3e-05
s(lp399
(g395
I6
tp400
atp401
a(g109
(dp402
S'ADV'
p403
F0.010371
sS'DET'
p404
F0.989599
sS'ADP'
p405
F3e-05
s(lp406
(g109
I7
tp407
atp408
a(S'is'
p409
(dp410
S'VERB'
p411
F1.0
s(lp412
(g409
I8
tp413
atp414
a(g118
(dp415
S'NOUN'
p416
F1e-06
sS'DET'
p417
F0.999999
s(lp418
(g118
I9
tp419
atp420
a(g127
(dp421
S'NOUN'
p422
F1.0
s(lp423
(g127
I10
tp424
atp425
a(g147
(dp426
S'ADP'
p427
F1.0
s(lp428
(g147
I11
tp429
atp430
a(g156
(dp431
S'NOUN'
p432
F1.4e-05
sS'DET'
p433
F0.999986
s(lp434
(g156
I12
tp435
atp436
a(g175
(dp437
S'VERB'
p438
F0.094467
sS'NOUN'
p439
F0.905533
s(lp440
(g175
I13
tp441
atp442
a(g43
(dp443
S'ADJ'
p444
F0.058633
sS'NOUN'
p445
F0.941367
s(lp446
(g43
I14
tp447
atp448
a(g181
(dp449
g5
F1.0
s(lp450
(g181
I15
tp451
atp452
a(g191
(dp453
S'ADV'
p454
F0.189304
sS'ADP'
p455
F0.810696
s(lp456
(g191
I16
tp457
atp458
a(g198
(dp459
S'PRON'
p460
F1.0
s(lp461
(g198
I17
tp462
atp463
a(g211
(dp464
S'VERB'
p465
F1.0
s(lp466
(g211
I18
tp467
atp468
a(g214
(dp469
g5
F1.0
s(lp470
(g214
I19
tp471
atp472
a(g223
(dp473
S'PRON'
p474
F1.0
s(lp475
(g223
I20
tp476
atp477
a(g238
(dp478
S'VERB'
p479
F1.0
s(lp480
(g238
I21
tp481
atp482
a(S'to'
p483
(dp484
S'ADV'
p485
F0.0
sS'PRT'
p486
F1.0
s(lp487
(g483
I22
tp488
atp489
a(g246
(dp490
S'VERB'
p491
F1.0
s(lp492
(g246
I23
tp493
atp494
a(g253
(dp495
S'VERB'
p496
F1.0
s(lp497
(g253
I24
tp498
atp499
a(g261
(dp500
S'ADP'
p501
F1.0
s(lp502
(g261
I25
tp503
atp504
a(g284
(dp505
S'NOUN'
p506
F0.000225
sS'ADJ'
p507
F0.999775
s(lp508
(g284
I26
tp509
atp510
a(g276
(dp511
S'NOUN'
p512
F1.0
s(lp513
(g276
I27
tp514
atp515
a(g327
(dp516
S'ADV'
p517
F0.000125
sS'NOUN'
p518
F0.000917
sS'DET'
p519
F0.998958
s(lp520
(g327
I28
tp521
atp522
a(g334
(dp523
S'NOUN'
p524
F1.0
s(lp525
(g334
I29
tp526
atp527
a(g214
(dp528
g5
F1.0
s(lp529
(g214
I30
tp530
atp531
a(g351
(dp532
S'ADV'
p533
F0.007551
sS'ADJ'
p534
F0.006905
sS'NUM'
p535
F0.950969
sS'NOUN'
p536
F0.034525
sg82
F4.9e-05
s(lp537
(g351
I31
tp538
atp539
a(g214
(dp540
g5
F1.0
s(lp541
(g214
I32
tp542
atp543
a(g292
(dp544
S'ADV'
p545
F0.00295
sS'PRT'
p546
F1e-06
sS'ADP'
p547
F0.997049
s(lp548
(g292
I33
tp549
atp550
a(S'all'
p551
(dp552
S'ADV'
p553
F0.04559
sS'DET'
p554
F0.954409
s(lp555
(g551
I34
tp556
atp557
a(g299
(dp558
S'ADV'
p559
F3e-06
sS'NOUN'
p560
F0.000182
sS'NUM'
p561
F0.994794
sS'ADJ'
p562
F0.005022
sg82
F0.0
s(lp563
(g299
I35
tp564
atp565
a(g314
(dp566
S'NOUN'
p567
F1.0
s(lp568
(g314
I36
tp569
atp570
a(g306
(dp571
S'VERB'
p572
F0.009364
sS'NOUN'
p573
F0.990636
s(lp574
(g306
I37
tp575
atp576
a(g5
(dp577
g5
F1.0
s(lp578
(g5
I38
tp579
atp580
asS'nl'
p581
(lp582
(g3
(dp583
g5
F1.0
s(lp584
(g7
I0
tp585
atp586
a(S'en'
p587
(dp588
S'CONJ'
p589
F1.0
s(lp590
(g395
I6
tp591
atp592
a(g16
(dp593
g5
F1.0
s(lp594
(g7
I0
tp595
atp596
a(S'wat'
p597
(dp598
S'ADV'
p599
F0.019323
sS'PRON'
p600
F0.9806769999999999
s(lp601
(g57
I1
tp602
atp603
a(S'betreft'
p604
(dp605
S'VERB'
p606
F1.0
s(lp607
(g7
I0
tp608
atp609
a(S'de'
p610
(dp611
S'DET'
p612
F1.0
s(lp613
tp614
a(S'door'
p615
(dp616
S'ADV'
p617
F1e-06
sS'CONJ'
p618
F1e-06
sS'ADP'
p619
F0.999998
s(lp620
(g109
I7
tp621
atp622
a(S'de'
p623
(dp624
S'DET'
p625
F1.0
s(lp626
tp627
a(S'heer'
p628
(dp629
S'NOUN'
p630
F1.0
s(lp631
(g84
I2
tp632
atp633
a(S'kelly'
p634
(dp635
S'NOUN'
p636
F1.0
s(lp637
(g102
I3
tp638
atp639
a(S'aan'
p640
(dp641
S'ADV'
p642
F0.007797
sS'ADP'
p643
F0.992203
s(lp644
(g385
I4
tp645
atp646
a(S'de'
p647
(dp648
S'DET'
p649
F1.0
s(lp650
tp651
a(S'orde'
p652
(dp653
S'NOUN'
p654
F1.0
s(lp655
tp656
a(S'gestelde'
p657
(dp658
S'NOUN'
p659
F1e-06
sS'VERB'
p660
F0.000297
sS'ADJ'
p661
F0.999702
s(lp662
(g385
I4
tp663
atp664
a(S'zaak'
p665
(dp666
S'NOUN'
p667
F1.0
s(lp668
(g7
I0
tp669
atp670
a(g214
(dp671
g5
F1.0
s(lp672
(g214
I5
tp673
atp674
a(S'de'
p675
(dp676
S'DET'
p677
F1.0
s(lp678
(g118
I9
tp679
atp680
a(S'tenuitvoerlegging'
p681
(dp682
S'NOUN'
p683
F1.0
s(lp684
(g127
I10
tp685
atp686
a(S'van'
p687
(dp688
S'ADP'
p689
F1.0
s(lp690
(g147
I11
tp691
atp692
a(S'de'
p693
(dp694
S'DET'
p695
F1.0
s(lp696
(g156
I12
tp697
atp698
a(S'overstromingsrichtlijn'
p699
(dp700
S'NOUN'
p701
F1.0
s(lp702
(g175
I13
tp703
atp704
a(g214
(dp705
g5
F1.0
s(lp706
tp707
a(S'wil'
p708
(dp709
S'VERB'
p710
F0.999469
sS'NOUN'
p711
F0.000531
s(lp712
(g7
I0
tp713
atp714
a(S'ik'
p715
(dp716
S'PRON'
p717
F1.0
sS'NOUN'
p718
F0.0
s(lp719
(g7
I0
tp720
atp721
a(S'het'
p722
(dp723
S'PRON'
p724
F0.030955
sS'DET'
p725
F0.969045
s(lp726
tp727
a(S'volgende'
p728
(dp729
S'NOUN'
p730
F0.287176
sS'VERB'
p731
F3.9e-05
sS'ADJ'
p732
F0.712785
s(lp733
tp734
a(S'opmerken'
p735
(dp736
S'VERB'
p737
F0.993025
sS'NOUN'
p738
F0.006975
s(lp739
(g7
I0
tp740
atp741
a(g5
(dp742
g5
F1.0
s(lp743
(g181
I15
tp744
atp745
a(S'zoals'
p746
(dp747
S'CONJ'
p748
F1.0
s(lp749
(g191
I16
tp750
atp751
a(S'u'
p752
(dp753
S'PRON'
p754
F0.999973
sS'NOUN'
p755
F2.7e-05
s(lp756
(g198
I17
tp757
atp758
a(S'weet'
p759
(dp760
S'VERB'
p761
F0.249306
sS'NOUN'
p762
F0.750694
s(lp763
(g211
I18
tp764
atp765
a(S'moet'
p766
(dp767
S'VERB'
p768
F1.0
s(lp769
(g238
I21
tp770
atp771
a(S'deze'
p772
(dp773
S'PRON'
p774
F1.0
s(lp775
(g223
I20
tp776
atp777
a(S'richtlijn'
p778
(dp779
S'NOUN'
p780
F1.0
s(lp781
(g43
I14
tp782
atp783
a(S'dit'
p784
(dp785
S'PRON'
p786
F1.0
s(lp787
(g327
I28
tp788
atp789
a(S'jaar'
p790
(dp791
S'NOUN'
p792
F1.0
s(lp793
(g334
I29
tp794
atp795
a(g214
(dp796
g5
F1.0
s(lp797
(g214
I30
tp798
atp799
a(S'in'
p800
(dp801
S'ADV'
p802
F0.038897
sS'VERB'
p803
F6e-06
sS'ADP'
p804
F0.961097
s(lp805
(g483
I22
tp806
atp807
a(S'2010'
p808
(dp809
S'NUM'
p810
F1.0
s(lp811
(g351
I31
tp812
atp813
a(g214
(dp814
g5
F1.0
s(lp815
(g214
I32
tp816
atp817
a(S'in'
p818
(dp819
S'ADV'
p820
F0.096368
sS'VERB'
p821
F3e-05
sS'ADP'
p822
F0.903603
s(lp823
(g292
I33
tp824
atp825
a(S'alle'
p826
(dp827
S'PRON'
p828
F1.0
s(lp829
(g551
I34
tp830
atp831
a(S'27'
p832
(dp833
S'NUM'
p834
F1.0
s(lp835
(g299
I35
tp836
atp837
a(S'lidstaten'
p838
(dp839
S'NOUN'
p840
F1.0
s(lp841
(g314
I36
tp842
atp843
a(S'zijn'
p844
(dp845
S'PRON'
p846
F0.001104
sS'VERB'
p847
F0.998887
sS'NOUN'
p848
F8e-06
s(lp849
(g246
I23
tp850
atp851
a(S'omgezet'
p852
(dp853
S'VERB'
p854
F1.0
s(lp855
(g253
I24
tp856
atp857
a(S'in'
p858
(dp859
S'ADV'
p860
F0.001488
sS'VERB'
p861
F4e-06
sS'ADP'
p862
F0.998508
s(lp863
(g261
I25
tp864
atp865
a(S'nationale'
p866
(dp867
S'NOUN'
p868
F0.000937
sS'ADJ'
p869
F0.999063
s(lp870
(g284
I26
tp871
atp872
a(S'wetgeving'
p873
(dp874
S'NOUN'
p875
F1.0
s(lp876
(g276
I27
tp877
atp878
a(g5
(dp879
g5
F1.0
s(lp880
(g5
I38
tp881
atp882
asS'de'
p883
(lp884
(S'im'
p885
(dp886
S'ADP'
p887
F1.0
s(lp888
tp889
a(S'hinblick'
p890
(dp891
S'VERB'
p892
F0.001252
sS'NOUN'
p893
F0.998741
s(lp894
(g7
I0
tp895
atp896
a(S'auf'
p897
(dp898
S'PRT'
p899
F0.004291
sS'ADP'
p900
F0.995679
s(lp901
tp902
a(S'das'
p903
(dp904
S'PRON'
p905
F0.896939
sS'DET'
p906
F0.102565
s(lp907
tp908
a(g214
(dp909
g5
F1.0
s(lp910
tp911
a(S'was'
p912
(dp913
S'PRON'
p914
F0.942688
s(lp915
(g57
I1
tp916
atp917
a(S'herr'
p918
(dp919
S'NOUN'
p920
F0.977769
s(lp921
(g84
I2
tp922
atp923
a(S'kelly'
p924
(dp925
S'ADJ'
p926
F0.008183
sS'NOUN'
p927
F0.990792
s(lp928
(g102
I3
tp929
atp930
a(S'erw\xc3\xa4hnt'
p931
(dp932
S'VERB'
p933
F0.990159
sS'ADJ'
p934
F0.009511
s(lp935
tp936
a(S'hat'
p937
(dp938
S'VERB'
p939
F1.0
s(lp940
(g385
I4
tp941
atp942
a(g214
(dp943
g5
F1.0
s(lp944
(g214
I5
tp945
atp946
a(S'und'
p947
(dp948
S'CONJ'
p949
F1.0
s(lp950
(g395
I6
tp951
atp952
a(S'zwar'
p953
(dp954
S'ADV'
p955
F1.0
s(lp956
(g409
I8
tp957
atp958
a(S'die'
p959
(dp960
S'PRON'
p961
F0.001249
sS'DET'
p962
F0.998746
s(lp963
(g118
I9
tp964
atp965
a(S'umsetzung'
p966
(dp967
S'ADJ'
p968
F0.009329
sS'NOUN'
p969
F0.985257
s(lp970
(g127
I10
tp971
atp972
a(S'der'
p973
(dp974
S'PRON'
p975
F2e-05
sS'DET'
p976
F0.99996
s(lp977
(g156
I12
tp978
atp979
a(S'\xc3\x9cberschwemmungsrichtlinie'
p980
(dp981
S'NOUN'
p982
F1.0
s(lp983
(g175
I13
tp984
atp985
a(g181
(dp986
g5
F1.0
s(lp987
(g181
I15
tp988
atp989
a(S'wie'
p990
(dp991
S'CONJ'
p992
F0.999983
s(lp993
(g191
I16
tp994
atp995
a(S'sie'
p996
(dp997
S'PRON'
p998
F1.0
s(lp999
(g198
I17
tp1000
atp1001
a(S'wissen'
p1002
(dp1003
S'VERB'
p1004
F1.0
s(lp1005
(g211
I18
tp1006
atp1007
a(g214
(dp1008
g5
F1.0
s(lp1009
(g214
I19
tp1010
atp1011
a(S'muss'
p1012
(dp1013
S'VERB'
p1014
F1.0
s(lp1015
(g238
I21
tp1016
atp1017
a(S'sie'
p1018
(dp1019
S'PRON'
p1020
F1.0
s(lp1021
(g223
I20
tp1022
atp1023
a(S'in'
p1024
(dp1025
S'ADP'
p1026
F1.0
s(lp1027
tp1028
a(S'diesem'
p1029
(dp1030
S'PRON'
p1031
F1.0
s(lp1032
(g327
I28
tp1033
atp1034
a(S'jahr'
p1035
(dp1036
S'ADJ'
p1037
F0.000465
sS'NOUN'
p1038
F0.999252
s(lp1039
(g334
I29
tp1040
atp1041
a(g214
(dp1042
g5
F1.0
s(lp1043
(g214
I30
tp1044
atp1045
a(S'2010'
p1046
(dp1047
S'NUM'
p1048
F0.91335
sS'ADJ'
p1049
F0.055437
s(lp1050
(g351
I31
tp1051
atp1052
a(g214
(dp1053
g5
F1.0
s(lp1054
(g483
I22
tp1055
atp1056
a(S'in'
p1057
(dp1058
S'ADP'
p1059
F1.0
s(lp1060
(g261
I25
tp1061
atp1062
a(S'die'
p1063
(dp1064
S'PRON'
p1065
F0.000218
sS'DET'
p1066
F0.999767
s(lp1067
tp1068
a(S'nationale'
p1069
(dp1070
S'ADJ'
p1071
F1.0
s(lp1072
(g284
I26
tp1073
atp1074
a(S'gesetzgebung'
p1075
(dp1076
S'ADJ'
p1077
F0.003593
sS'NOUN'
p1078
F0.993866
s(lp1079
(g276
I27
tp1080
atp1081
a(S'umgesetzt'
p1082
(dp1083
S'VERB'
p1084
F1.0
s(lp1085
(g253
I24
tp1086
atp1087
a(S'werden'
p1088
(dp1089
S'VERB'
p1090
F0.999996
s(lp1091
(g246
I23
tp1092
atp1093
a(g214
(dp1094
g5
F1.0
s(lp1095
(g214
I32
tp1096
atp1097
a(S'in'
p1098
(dp1099
S'ADP'
p1100
F1.0
s(lp1101
(g292
I33
tp1102
atp1103
a(S'allen'
p1104
(dp1105
S'PRON'
p1106
F1.0
s(lp1107
(g551
I34
tp1108
atp1109
a(S'27'
p1110
(dp1111
S'NUM'
p1112
F1.0
s(lp1113
(g299
I35
tp1114
atp1115
a(S'mitgliedstaaten'
p1116
(dp1117
S'ADJ'
p1118
F0.038609
sS'NOUN'
p1119
F0.946017
s(lp1120
(g314
I36
tp1121
atp1122
a(g5
(dp1123
g5
F1.0
s(lp1124
(g5
I38
tp1125
atp1126
asS'it'
p1127
(lp1128
(g3
(dp1129
g5
F1.0
s(lp1130
(g7
I0
tp1131
atp1132
a(S'en'
p1133
(dp1134
S'ADJ'
p1135
F0.097599
sS'VERB'
p1136
F0.025145
sS'NOUN'
p1137
F0.877257
s(lp1138
(g7
I0
tp1139
atp1140
a(g16
(dp1141
g5
F1.0
s(lp1142
(g7
I0
tp1143
atp1144
a(S'riguardo'
p1145
(dp1146
S'VERB'
p1147
F0.013602
sS'NOUN'
p1148
F0.986398
s(lp1149
(g7
I0
tp1150
atp1151
a(S'a'
p1152
(dp1153
S'CONJ'
p1154
F0.012152
sS'ADP'
p1155
F0.987848
s(lp1156
tp1157
a(S'quanto'
p1158
(dp1159
S'ADV'
p1160
F0.58602
sS'PRON'
p1161
F0.404396
sS'ADJ'
p1162
F0.008312
sS'NOUN'
p1163
F0.001271
s(lp1164
(g57
I1
tp1165
atp1166
a(S'citato'
p1167
(dp1168
S'VERB'
p1169
F0.946184
sS'ADJ'
p1170
F0.053816
s(lp1171
tp1172
a(S"dall'"
p1173
(dp1174
S'ADJ'
p1175
F0.002444
sS'NOUN'
p1176
F0.997556
s(lp1177
(g7
I0
tp1178
atp1179
a(S'onorevole'
p1180
(dp1181
S'NOUN'
p1182
F0.039101
sS'ADJ'
p1183
F0.960899
s(lp1184
(g84
I2
tp1185
atp1186
a(S'kelly'
p1187
(dp1188
S'NOUN'
p1189
F1.0
s(lp1190
(g102
I3
tp1191
atp1192
a(g214
(dp1193
g5
F1.0
s(lp1194
(g214
I5
tp1195
atp1196
a(S'ovvero'
p1197
(dp1198
S'CONJ'
p1199
F1.0
s(lp1200
(g109
I7
tp1201
atp1202
a(S"l'"
p1203
(dp1204
S'NOUN'
p1205
F0.000589
sS'VERB'
p1206
F0.9933339999999999
sS'ADJ'
p1207
F0.006076
s(lp1208
(g118
I9
tp1209
atp1210
a(S'attuazione'
p1211
(dp1212
S'NOUN'
p1213
F1.0
s(lp1214
(g127
I10
tp1215
atp1216
a(S'della'
p1217
(dp1218
S'DEF'
p1219
F0.001677
sS'ADP'
p1220
F0.998323
s(lp1221
(g147
I11
tp1222
atp1223
a(S'direttiva'
p1224
(dp1225
S'ADJ'
p1226
F0.047368
sS'NOUN'
p1227
F0.952632
s(lp1228
(g43
I14
tp1229
atp1230
a(S'sulle'
p1231
(dp1232
S'NOUN'
p1233
F1.4e-05
sS'ADP'
p1234
F0.999986
s(lp1235
tp1236
a(S'inondazioni'
p1237
(dp1238
S'NOUN'
p1239
F1.0
s(lp1240
(g175
I13
tp1241
atp1242
a(g214
(dp1243
g5
F1.0
s(lp1244
(g181
I15
tp1245
atp1246
a(S'come'
p1247
(dp1248
S'PRON'
p1249
F0.044066
sS'CONJ'
p1250
F0.951385
sS'NOUN'
p1251
F0.000227
sS'ADP'
p1252
F0.004322
s(lp1253
(g191
I16
tp1254
atp1255
a(S'sapete'
p1256
(dp1257
S'VERB'
p1258
F1.0
s(lp1259
(g211
I18
tp1260
atp1261
a(S'deve'
p1262
(dp1263
S'VERB'
p1264
F1.0
s(lp1265
(g238
I21
tp1266
atp1267
a(S'essere'
p1268
(dp1269
S'VERB'
p1270
F0.99998
sS'NOUN'
p1271
F2e-05
s(lp1272
(g246
I23
tp1273
atp1274
a(S'recepita'
p1275
(dp1276
S'VERB'
p1277
F1.0
s(lp1278
(g253
I24
tp1279
atp1280
a(S'nelle'
p1281
(dp1282
S'ADP'
p1283
F1.0
s(lp1284
(g261
I25
tp1285
atp1286
a(S'normative'
p1287
(dp1288
S'ADJ'
p1289
F0.160885
sS'NOUN'
p1290
F0.839115
s(lp1291
(g276
I27
tp1292
atp1293
a(S'nazionali'
p1294
(dp1295
S'NOUN'
p1296
F0.064615
sS'ADJ'
p1297
F0.935385
s(lp1298
(g284
I26
tp1299
atp1300
a(S'questo'
p1301
(dp1302
S'PRON'
p1303
F1.0
s(lp1304
(g327
I28
tp1305
atp1306
a(S'anno'
p1307
(dp1308
S'NOUN'
p1309
F1.0
s(lp1310
(g334
I29
tp1311
atp1312
a(g214
(dp1313
g5
F1.0
s(lp1314
(g214
I30
tp1315
atp1316
a(S'il'
p1317
(dp1318
S'DET'
p1319
F1.0
s(lp1320
tp1321
a(S'2010'
p1322
(dp1323
S'NUM'
p1324
F0.999345
sg5
F0.000655
s(lp1325
(g351
I31
tp1326
atp1327
a(g214
(dp1328
g5
F1.0
s(lp1329
(g214
I32
tp1330
atp1331
a(S'in'
p1332
(dp1333
S'ADP'
p1334
F1.0
s(lp1335
(g292
I33
tp1336
atp1337
a(S'tutti'
p1338
(dp1339
S'PRON'
p1340
F0.710428
sS'ADJ'
p1341
F0.289572
s(lp1342
(g551
I34
tp1343
atp1344
a(S'i'
p1345
(dp1346
S'DET'
p1347
F1.0
s(lp1348
tp1349
a(S'27'
p1350
(dp1351
S'NUM'
p1352
F0.980675
sg5
F0.019324
s(lp1353
(g299
I35
tp1354
atp1355
a(S'stati'
p1356
(dp1357
S'VERB'
p1358
F0.192943
sS'NOUN'
p1359
F0.807057
s(lp1360
(g306
I37
tp1361
atp1362
a(S'membri'
p1363
(dp1364
S'NOUN'
p1365
F1.0
s(lp1366
(g314
I36
tp1367
atp1368
a(g5
(dp1369
g5
F1.0
s(lp1370
(g5
I38
tp1371
atp1372
asS'sk'
p1373
(lp1374
(S'p\xc3\xa1n'
p1375
(dp1376
S'NOUN'
p1377
F1.0
s(lp1378
(g84
I2
tp1379
atp1380
a(S'kelly'
p1381
(dp1382
S'ADJ'
p1383
F0.033711
sS'NOUN'
p1384
F0.9662900000000001
s(lp1385
(g102
I3
tp1386
atp1387
a(S'predlo\xc5\xbeil'
p1388
(dp1389
S'VERB'
p1390
F1.0
s(lp1391
(g7
I0
tp1392
atp1393
a(S'ot\xc3\xa1zku'
p1394
(dp1395
S'NOUN'
p1396
F1.0
s(lp1397
(g7
I0
tp1398
atp1399
a(S'uplat\xc5\x88ovania'
p1400
(dp1401
S'NOUN'
p1402
F1.0
s(lp1403
(g7
I0
tp1404
atp1405
a(S'smernice'
p1406
(dp1407
S'NOUN'
p1408
F1.0
s(lp1409
tp1410
a(S'o'
p1411
(dp1412
g82
F0.000623
sS'CONJ'
p1413
F6.8e-05
sS'NOUN'
p1414
F2.2e-05
sS'ADP'
p1415
F0.999285
s(lp1416
(g385
I4
tp1417
atp1418
a(S'povodniach'
p1419
(dp1420
S'NOUN'
p1421
F1.0
s(lp1422
(g175
I13
tp1423
atp1424
a(g5
(dp1425
g5
F1.0
s(lp1426
(g181
I15
tp1427
atp1428
a(S'ako'
p1429
(dp1430
S'PRON'
p1431
F0.281237
sS'CONJ'
p1432
F0.717416
sg82
F0.001347
s(lp1433
(g191
I16
tp1434
atp1435
a(S'viete'
p1436
(dp1437
S'VERB'
p1438
F1.0
s(lp1439
(g211
I18
tp1440
atp1441
a(g214
(dp1442
g5
F1.0
s(lp1443
(g214
I19
tp1444
atp1445
a(S'smernicu'
p1446
(dp1447
S'NOUN'
p1448
F1.0
s(lp1449
(g43
I14
tp1450
atp1451
a(S'mus\xc3\xad'
p1452
(dp1453
S'VERB'
p1454
F1.0
s(lp1455
(g7
I0
tp1456
atp1457
a(S'v'
p1458
(dp1459
g82
F0.000468
sS'ADP'
p1460
F0.999531
s(lp1461
(g292
I33
tp1462
atp1463
a(S'roku'
p1464
(dp1465
S'NOUN'
p1466
F1.0
s(lp1467
(g334
I29
tp1468
atp1469
a(S'2010'
p1470
(dp1471
S'NUM'
p1472
F1.0
s(lp1473
(g351
I31
tp1474
atp1475
a(S'transponova\xc5\xa5'
p1476
(dp1477
S'VERB'
p1478
F1.0
s(lp1479
(g253
I24
tp1480
atp1481
a(S'do'
p1482
(dp1483
S'PRON'
p1484
F0.000114
sS'ADP'
p1485
F0.999784
sg82
F0.000102
s(lp1486
(g261
I25
tp1487
atp1488
a(S'vn\xc3\xbatro\xc5\xa1t\xc3\xa1tneho'
p1489
(dp1490
S'ADJ'
p1491
F1.0
s(lp1492
(g284
I26
tp1493
atp1494
a(S'pr\xc3\xa1va'
p1495
(dp1496
S'VERB'
p1497
F0.000328
sS'NOUN'
p1498
F0.999672
s(lp1499
(g276
I27
tp1500
atp1501
a(S'v\xc5\xa1etk\xc3\xbdch'
p1502
(dp1503
S'PRON'
p1504
F1.0
s(lp1505
(g551
I34
tp1506
atp1507
a(S'27'
p1508
(dp1509
S'NUM'
p1510
F1.0
s(lp1511
(g299
I35
tp1512
atp1513
a(S'\xc4\x8dlensk\xc3\xbdch'
p1514
(dp1515
S'ADJ'
p1516
F1.0
s(lp1517
(g314
I36
tp1518
atp1519
a(S'\xc5\xa1t\xc3\xa1tov'
p1520
(dp1521
S'NOUN'
p1522
F1.0
s(lp1523
(g306
I37
tp1524
atp1525
a(g5
(dp1526
g5
F1.0
s(lp1527
(g5
I38
tp1528
atp1529
asS'pl'
p1530
(lp1531
(g1152
(dp1532
S'ADV'
p1533
F0.000791
sS'NOUN'
p1534
F0.006507000000000001
sS'ADP'
p1535
F3.9999999999999996e-05
sS'PRT'
p1536
F0.012335
sS'VERB'
p1537
F0.002177
sg82
F0.003843
sS'CONJ'
p1538
F0.973396
sS'ADJ'
p1539
F0.000912
s(lp1540
(g7
I0
tp1541
atp1542
a(S'propos'
p1543
(dp1544
S'PRT'
p1545
F0.117916
sS'ADP'
p1546
F0.882084
s(lp1547
(g7
I0
tp1548
atp1549
a(S'pytania'
p1550
(dp1551
S'VERB'
p1552
F0.083417
sS'NOUN'
p1553
F0.9165830000000001
s(lp1554
(g7
I0
tp1555
atp1556
a(S'pana'
p1557
(dp1558
S'NOUN'
p1559
F1.0
s(lp1560
(g84
I2
tp1561
atp1562
a(S'pos\xc5\x82a'
p1563
(dp1564
S'NOUN'
p1565
F1.0
s(lp1566
(g102
I3
tp1567
atp1568
a(S'kelly'
p1569
(dp1570
S'ADJ'
p1571
F0.0042439999999999995
sg82
F0.109432
sS'NOUN'
p1572
F0.8863259999999998
s(lp1573
(g102
I3
tp1574
atp1575
a(S"'"
p1576
(dp1577
g82
F0.106071
sg5
F0.893929
s(lp1578
tp1579
a(S'ego'
p1580
(dp1581
g82
F0.12165
sS'NOUN'
p1582
F0.87835
s(lp1583
(g102
I3
tp1584
atp1585
a(S'czyli'
p1586
(dp1587
S'PRT'
p1588
F0.001326
sS'CONJ'
p1589
F0.998674
s(lp1590
tp1591
a(S'wykonywania'
p1592
(dp1593
S'VERB'
p1594
F1.0
s(lp1595
(g7
I0
tp1596
atp1597
a(S'dyrektywy'
p1598
(dp1599
S'NOUN'
p1600
F1.0
s(lp1601
(g43
I14
tp1602
atp1603
a(S'w'
p1604
(dp1605
g82
F0.0
sS'ADJ'
p1606
F0.0
sS'ADP'
p1607
F1.0
sS'NOUN'
p1608
F0.0
s(lp1609
(g118
I9
tp1610
atp1611
a(S'sprawie'
p1612
(dp1613
S'NOUN'
p1614
F1.0
s(lp1615
(g43
I14
tp1616
atp1617
a(S'powodzi'
p1618
(dp1619
S'VERB'
p1620
F0.12850899999999998
sS'NOUN'
p1621
F0.8714909999999999
s(lp1622
(g175
I13
tp1623
atp1624
a(g181
(dp1625
g5
F1.0
s(lp1626
(g181
I15
tp1627
atp1628
a(S'jak'
p1629
(dp1630
S'ADV'
p1631
F0.892535
sS'PRT'
p1632
F0.006842
sS'CONJ'
p1633
F0.097998
sS'ADP'
p1634
F0.002587
sS'PRON'
p1635
F3.8e-05
s(lp1636
(g191
I16
tp1637
atp1638
a(S'wiadomo'
p1639
(dp1640
S'ADV'
p1641
F0.11391
sS'ADJ'
p1642
F0.88609
s(lp1643
(g211
I18
tp1644
atp1645
a(S'przepisy'
p1646
(dp1647
S'NOUN'
p1648
F1.0
s(lp1649
tp1650
a(S'tej'
p1651
(dp1652
S'PRON'
p1653
F9.1e-05
sS'ADJ'
p1654
F0.9999009999999999
sg82
F9e-06
s(lp1655
(g327
I28
tp1656
atp1657
a(S'dyrektywy'
p1658
(dp1659
S'NOUN'
p1660
F1.0
s(lp1661
(g43
I14
tp1662
atp1663
a(S'maj\xc4\x85'
p1664
(dp1665
S'VERB'
p1666
F1.0
s(lp1667
(g238
I21
tp1668
atp1669
a(S'zosta\xc4\x87'
p1670
(dp1671
S'VERB'
p1672
F1.0
s(lp1673
(g246
I23
tp1674
atp1675
a(S'przetransponowane'
p1676
(dp1677
S'ADV'
p1678
F0.007226
sS'ADJ'
p1679
F0.20171900000000006
sS'VERB'
p1680
F0.44327699999999987
sS'NOUN'
p1681
F0.34777300000000017
s(lp1682
(g253
I24
tp1683
atp1684
a(S'do'
p1685
(dp1686
g82
F0.0
sS'NOUN'
p1687
F5e-06
sS'ADP'
p1688
F0.999994
s(lp1689
(g261
I25
tp1690
atp1691
a(S'prawodawstwa'
p1692
(dp1693
S'ADV'
p1694
F7e-06
sS'ADJ'
p1695
F0.0009000000000000001
sS'VERB'
p1696
F0.0
sS'NOUN'
p1697
F0.9990929999999999
s(lp1698
(g276
I27
tp1699
atp1700
a(S'krajowego'
p1701
(dp1702
S'ADJ'
p1703
F1.0
s(lp1704
(g284
I26
tp1705
atp1706
a(S'wszystkich'
p1707
(dp1708
S'NOUN'
p1709
F0.145278
sS'ADJ'
p1710
F0.854722
s(lp1711
(g551
I34
tp1712
atp1713
a(S'27'
p1714
(dp1715
g82
F0.000512
sS'NUM'
p1716
F0.9856399999999998
sS'ADJ'
p1717
F0.013849000000000002
s(lp1718
(g299
I35
tp1719
atp1720
a(S'pa\xc5\x84stw'
p1721
(dp1722
S'NOUN'
p1723
F1.0
s(lp1724
(g306
I37
tp1725
atp1726
a(S'cz\xc5\x82onkowskich'
p1727
(dp1728
S'ADJ'
p1729
F1.0
s(lp1730
(g314
I36
tp1731
atp1732
a(g1604
(dp1733
S'ADJ'
p1734
F0.0
sg82
F0.0
sS'NOUN'
p1735
F0.0
sS'ADP'
p1736
F0.999999
s(lp1737
(g292
I33
tp1738
atp1739
a(S'bie\xc5\xbc\xc4\x85cym'
p1740
(dp1741
S'ADJ'
p1742
F1.0
s(lp1743
(g334
I29
tp1744
atp1745
a(S'2010'
p1746
(dp1747
S'NUM'
p1748
F0.001776
sS'ADJ'
p1749
F0.998224
s(lp1750
tp1751
a(S'roku'
p1752
(dp1753
S'NOUN'
p1754
F1.0
s(lp1755
(g351
I31
tp1756
atp1757
a(g5
(dp1758
g5
F1.0
s(lp1759
(g5
I38
tp1760
atp1761
asS'sl'
p1762
(lp1763
(g1458
(dp1764
S'ADP'
p1765
F1.0
s(lp1766
(g7
I0
tp1767
atp1768
a(S'zvezi'
p1769
(dp1770
S'NOUN'
p1771
F1.0
s(lp1772
(g7
I0
tp1773
atp1774
a(S's'
p1775
(dp1776
S'VERB'
p1777
F5e-06
sS'NOUN'
p1778
F9e-06
sS'ADP'
p1779
F0.999987
s(lp1780
(g7
I0
tp1781
atp1782
a(S'tem'
p1783
(dp1784
S'ADV'
p1785
F0.000123
sS'PRON'
p1786
F0.9990310000000001
sS'NOUN'
p1787
F0.000845
s(lp1788
(g327
I28
tp1789
atp1790
a(g214
(dp1791
g5
F1.0
s(lp1792
(g214
I5
tp1793
atp1794
a(g1411
(dp1795
S'NOUN'
p1796
F4.7e-05
sS'ADP'
p1797
F0.999953
s(lp1798
(g57
I1
tp1799
atp1800
a(S'\xc4\x8demer'
p1801
(dp1802
S'PRON'
p1803
F1.0
s(lp1804
(g395
I6
tp1805
atp1806
a(S'je'
p1807
(dp1808
S'PRON'
p1809
F0.000706
sS'VERB'
p1810
F0.999293
sg82
F2e-06
s(lp1811
(g385
I4
tp1812
atp1813
a(S'govoril'
p1814
(dp1815
S'VERB'
p1816
F1.0
s(lp1817
tp1818
a(S'gospod'
p1819
(dp1820
S'NOUN'
p1821
F1.0
s(lp1822
(g84
I2
tp1823
atp1824
a(S'kelly'
p1825
(dp1826
S'ADJ'
p1827
F0.0035439999999999994
sg82
F0.005219
sS'NOUN'
p1828
F0.9912359999999996
s(lp1829
(g102
I3
tp1830
atp1831
a(g214
(dp1832
g5
F1.0
s(lp1833
tp1834
a(S'to'
p1835
(dp1836
S'PRON'
p1837
F0.999743
sg82
F0.000257
s(lp1838
(g109
I7
tp1839
atp1840
a(S'pa'
p1841
(dp1842
g82
F6.9e-05
sS'CONJ'
p1843
F0.999931
s(lp1844
tp1845
a(S'je'
p1846
(dp1847
S'PRON'
p1848
F0.010748
sS'VERB'
p1849
F0.989248
sg82
F4e-06
s(lp1850
(g409
I8
tp1851
atp1852
a(S'izvajanje'
p1853
(dp1854
S'NOUN'
p1855
F1.0
s(lp1856
(g127
I10
tp1857
atp1858
a(S'direktive'
p1859
(dp1860
S'NOUN'
p1861
F1.0
s(lp1862
(g43
I14
tp1863
atp1864
a(g1411
(dp1865
S'NOUN'
p1866
F5e-06
sS'ADP'
p1867
F0.999995
s(lp1868
(g147
I11
tp1869
atp1870
a(S'poplavah'
p1871
(dp1872
S'NOUN'
p1873
F1.0
s(lp1874
(g175
I13
tp1875
atp1876
a(g181
(dp1877
g5
F1.0
s(lp1878
(g181
I15
tp1879
atp1880
a(S'kot'
p1881
(dp1882
S'CONJ'
p1883
F0.999878
sS'NOUN'
p1884
F0.00012200000000000001
s(lp1885
(g191
I16
tp1886
atp1887
a(S'veste'
p1888
(dp1889
S'VERB'
p1890
F1.0
s(lp1891
(g211
I18
tp1892
atp1893
a(g214
(dp1894
g5
F1.0
s(lp1895
(g214
I19
tp1896
atp1897
a(S'jo'
p1898
(dp1899
S'PRON'
p1900
F0.99609
sg82
F0.00391
s(lp1901
(g223
I20
tp1902
atp1903
a(S'mora'
p1904
(dp1905
S'VERB'
p1906
F0.969966
sS'NOUN'
p1907
F0.030034
s(lp1908
(g238
I21
tp1909
atp1910
a(S'vseh'
p1911
(dp1912
S'PRON'
p1913
F1.0
s(lp1914
(g551
I34
tp1915
atp1916
a(S'27'
p1917
(dp1918
S'NUM'
p1919
F1.0
s(lp1920
(g299
I35
tp1921
atp1922
a(S'dr\xc5\xbeav'
p1923
(dp1924
S'NOUN'
p1925
F1.0
s(lp1926
(g314
I36
tp1927
atp1928
a(S'\xc4\x8dlanic'
p1929
(dp1930
S'NOUN'
p1931
F1.0
s(lp1932
(g306
I37
tp1933
atp1934
a(S'\xc5\xa1e'
p1935
(dp1936
S'PRT'
p1937
F1.0
s(lp1938
(g246
I23
tp1939
atp1940
a(S'letos'
p1941
(dp1942
S'ADV'
p1943
F1.0
s(lp1944
(g334
I29
tp1945
atp1946
a(g214
(dp1947
g5
F1.0
s(lp1948
(g214
I30
tp1949
atp1950
a(S'torej'
p1951
(dp1952
S'ADV'
p1953
F0.552371
sS'CONJ'
p1954
F0.447629
s(lp1955
(g7
I0
tp1956
atp1957
a(S'leta'
p1958
(dp1959
S'NOUN'
p1960
F1.0
s(lp1961
tp1962
a(S'2010'
p1963
(dp1964
S'NUM'
p1965
F1.0
s(lp1966
(g351
I31
tp1967
atp1968
a(g214
(dp1969
g5
F1.0
s(lp1970
(g214
I32
tp1971
atp1972
a(S'prenesti'
p1973
(dp1974
S'VERB'
p1975
F1.0
s(lp1976
(g253
I24
tp1977
atp1978
a(g1458
(dp1979
S'ADP'
p1980
F1.0
s(lp1981
(g261
I25
tp1982
atp1983
a(S'nacionalno'
p1984
(dp1985
S'ADV'
p1986
F0.000392
sS'ADJ'
p1987
F0.9996079999999999
s(lp1988
(g284
I26
tp1989
atp1990
a(S'zakonodajo'
p1991
(dp1992
S'NOUN'
p1993
F1.0
s(lp1994
(g276
I27
tp1995
atp1996
a(g5
(dp1997
g5
F1.0
s(lp1998
(g5
I38
tp1999
atp2000
asS'es'
p2001
(lp2002
(S'en'
p2003
(dp2004
g82
F0.002093
sS'CONJ'
p2005
F4.7e-05
sS'ADP'
p2006
F0.99786
s(lp2007
tp2008
a(S'relaci\xc3\xb3n'
p2009
(dp2010
S'NOUN'
p2011
F1.0
s(lp2012
(g7
I0
tp2013
atp2014
a(g1152
(dp2015
g82
F0.000452
sS'CONJ'
p2016
F4e-06
sS'ADP'
p2017
F0.999544
s(lp2018
tp2019
a(S'lo'
p2020
(dp2021
S'PRON'
p2022
F2.7e-05
sS'DET'
p2023
F0.999973
s(lp2024
tp2025
a(S'planteado'
p2026
(dp2027
S'VERB'
p2028
F1.0
s(lp2029
(g385
I4
tp2030
atp2031
a(S'por'
p2032
(dp2033
S'ADP'
p2034
F1.0
s(lp2035
(g57
I1
tp2036
atp2037
a(S'el'
p2038
(dp2039
S'PRON'
p2040
F5e-06
sS'DET'
p2041
F0.999995
s(lp2042
tp2043
a(S'se\xc3\xb1or'
p2044
(dp2045
S'NOUN'
p2046
F1.0
s(lp2047
(g84
I2
tp2048
atp2049
a(S'kelly'
p2050
(dp2051
S'NOUN'
p2052
F0.071603
sS'ADJ'
p2053
F0.928397
s(lp2054
(g102
I3
tp2055
atp2056
a(g214
(dp2057
g5
F1.0
s(lp2058
(g214
I5
tp2059
atp2060
a(S'que'
p2061
(dp2062
g82
F0.0
sS'CONJ'
p2063
F1.0
s(lp2064
(g109
I7
tp2065
atp2066
a(S'es'
p2067
(dp2068
S'VERB'
p2069
F1.0
s(lp2070
(g409
I8
tp2071
atp2072
a(S'la'
p2073
(dp2074
g82
F1e-06
sS'DET'
p2075
F0.999999
sS'NOUN'
p2076
F0.0
sS'PRON'
p2077
F0.0
s(lp2078
(g118
I9
tp2079
atp2080
a(S'aplicaci\xc3\xb3n'
p2081
(dp2082
S'NOUN'
p2083
F1.0
s(lp2084
(g127
I10
tp2085
atp2086
a(S'de'
p2087
(dp2088
g82
F0.0
sS'CONJ'
p2089
F1.7e-05
sS'ADP'
p2090
F0.999983
s(lp2091
(g147
I11
tp2092
atp2093
a(S'la'
p2094
(dp2095
S'NOUN'
p2096
F4e-06
sS'PRON'
p2097
F0.0
sS'DET'
p2098
F0.999995
sg82
F1e-06
s(lp2099
(g156
I12
tp2100
atp2101
a(S'directiva'
p2102
(dp2103
S'ADJ'
p2104
F0.085548
sS'NOUN'
p2105
F0.914452
s(lp2106
tp2107
a(S'sobre'
p2108
(dp2109
S'NOUN'
p2110
F0.0
sS'ADP'
p2111
F1.0
s(lp2112
(g43
I14
tp2113
atp2114
a(S'inundaciones'
p2115
(dp2116
S'NOUN'
p2117
F1.0
s(lp2118
tp2119
a(g181
(dp2120
g5
F1.0
s(lp2121
(g181
I15
tp2122
atp2123
a(S'como'
p2124
(dp2125
S'ADV'
p2126
F0.042597
sS'CONJ'
p2127
F0.957403
s(lp2128
(g191
I16
tp2129
atp2130
a(S'usted'
p2131
(dp2132
S'PRON'
p2133
F1.0
s(lp2134
(g198
I17
tp2135
atp2136
a(S'sabe'
p2137
(dp2138
S'VERB'
p2139
F1.0
s(lp2140
(g211
I18
tp2141
atp2142
a(g214
(dp2143
g5
F1.0
s(lp2144
(g214
I19
tp2145
atp2146
a(S'tiene'
p2147
(dp2148
S'VERB'
p2149
F1.0
s(lp2150
(g238
I21
tp2151
atp2152
a(S'que'
p2153
(dp2154
S'VERB'
p2155
F1.0
s(lp2156
(g483
I22
tp2157
atp2158
a(S'ser'
p2159
(dp2160
S'VERB'
p2161
F1.0
sS'NOUN'
p2162
F0.0
s(lp2163
(g246
I23
tp2164
atp2165
a(S'transpuesta'
p2166
(dp2167
S'NOUN'
p2168
F0.024998
sS'VERB'
p2169
F0.871857
sS'ADJ'
p2170
F0.103145
s(lp2171
(g253
I24
tp2172
atp2173
a(g1152
(dp2174
g82
F8.8e-05
sS'CONJ'
p2175
F4e-06
sS'ADP'
p2176
F0.999908
s(lp2177
(g261
I25
tp2178
atp2179
a(S'las'
p2180
(dp2181
S'PRON'
p2182
F0.0
sS'DET'
p2183
F1.0
s(lp2184
(g175
I13
tp2185
atp2186
a(S'leyes'
p2187
(dp2188
S'NOUN'
p2189
F1.0
s(lp2190
(g276
I27
tp2191
atp2192
a(S'nacionales'
p2193
(dp2194
S'ADJ'
p2195
F1.0
s(lp2196
(g284
I26
tp2197
atp2198
a(S'durante'
p2199
(dp2200
S'ADP'
p2201
F1.0
s(lp2202
tp2203
a(S'este'
p2204
(dp2205
S'PRON'
p2206
F0.999828
sS'NOUN'
p2207
F0.000172
s(lp2208
(g327
I28
tp2209
atp2210
a(S'a\xc3\xb1o'
p2211
(dp2212
S'NOUN'
p2213
F1.0
s(lp2214
(g334
I29
tp2215
atp2216
a(g214
(dp2217
g5
F1.0
s(lp2218
(g214
I30
tp2219
atp2220
a(S'2010'
p2221
(dp2222
g82
F0.267763
sS'NUM'
p2223
F0.732237
s(lp2224
(g351
I31
tp2225
atp2226
a(g214
(dp2227
g5
F1.0
s(lp2228
(g214
I32
tp2229
atp2230
a(S'en'
p2231
(dp2232
g82
F0.0
sS'CONJ'
p2233
F1e-06
sS'ADP'
p2234
F0.999998
s(lp2235
(g292
I33
tp2236
atp2237
a(S'el'
p2238
(dp2239
S'PRON'
p2240
F6e-06
sS'DET'
p2241
F0.999994
s(lp2242
tp2243
a(S'conjunto'
p2244
(dp2245
S'ADJ'
p2246
F0.001203
sS'NOUN'
p2247
F0.998797
s(lp2248
(g551
I34
tp2249
atp2250
a(S'de'
p2251
(dp2252
g82
F0.0
sS'CONJ'
p2253
F1.7e-05
sS'ADP'
p2254
F0.999982
s(lp2255
tp2256
a(S'los'
p2257
(dp2258
S'PRON'
p2259
F0.0
sS'DET'
p2260
F1.0
s(lp2261
tp2262
a(S'27'
p2263
(dp2264
g82
F0.008138
sS'NUM'
p2265
F0.991862
s(lp2266
(g299
I35
tp2267
atp2268
a(S'estados'
p2269
(dp2270
S'NOUN'
p2271
F1.0
s(lp2272
(g306
I37
tp2273
atp2274
a(S'miembros'
p2275
(dp2276
S'NOUN'
p2277
F1.0
s(lp2278
(g314
I36
tp2279
atp2280
a(g5
(dp2281
g5
F1.0
s(lp2282
(g5
I38
tp2283
atp2284
as.