(dp0
S'fr'
p1
(lp2
(S'('
p3
(dp4
S'.'
p5
F1.0
s(lp6
(g3
I0
tp7
atp8
a(S'ro'
p9
(dp10
S'ADJ'
p11
F0.13429
sS'VERB'
p12
F0.638201
sS'NOUN'
p13
F0.227509
s(lp14
(S'ro'
p15
I1
tp16
atp17
a(S')'
p18
(dp19
g5
F1.0
s(lp20
(g18
I2
tp21
atp22
a(S'je'
p23
(dp24
S'PRON'
p25
F1.0
s(lp26
(S'i'
p27
I3
tp28
atp29
a(S'voudrais'
p30
(dp31
S'VERB'
p32
F1.0
s(lp33
(S'like'
p34
I5
tp35
atp36
a(S'commencer'
p37
(dp38
S'VERB'
p39
F1.0
s(lp40
(S'begin'
p41
I7
tp42
atp43
a(S'par'
p44
(dp45
S'NOUN'
p46
F0.0
sS'ADP'
p47
F1.0
s(lp48
(S'by'
p49
I8
tp50
atp51
a(S'f\xc3\xa9liciter'
p52
(dp53
S'VERB'
p54
F1.0
s(lp55
(S'congratulating'
p56
I9
tp57
atp58
a(S'les'
p59
(dp60
S'PRON'
p61
F5.6e-05
sS'DET'
p62
F0.999913
sS'ADP'
p63
F3e-05
s(lp64
(S'the'
p65
I10
tp66
atp67
a(S'rapporteurs'
p68
(dp69
S'ADJ'
p70
F0.443547
sS'NOUN'
p71
F0.556453
s(lp72
(S'rapporteurs'
p73
I11
tp74
atp75
a(S'pour'
p76
(dp77
S'CONJ'
p78
F0.20507
sS'ADP'
p79
F0.79493
s(lp80
(S'for'
p81
I12
tp82
atp83
a(S'les'
p84
(dp85
S'PRON'
p86
F0.000146
sS'DET'
p87
F0.99985
sS'ADP'
p88
F4e-06
s(lp89
(S'the'
p90
I13
tp91
atp92
a(S'r\xc3\xa9sultats'
p93
(dp94
S'NOUN'
p95
F1.0
s(lp96
(S'results'
p97
I14
tp98
atp99
a(S"qu'"
p100
(dp101
S'NOUN'
p102
F0.024969
sS'VERB'
p103
F0.27500100000000005
sS'ADJ'
p104
F0.700029
s(lp105
(S'they'
p106
I15
tp107
atp108
a(S'ils'
p109
(dp110
S'PRON'
p111
F1.0
s(lp112
tp113
a(S'ont'
p114
(dp115
S'VERB'
p116
F1.0
s(lp117
(g106
I15
tp118
atp119
a(S'obtenus'
p120
(dp121
S'VERB'
p122
F1.0
s(lp123
(S'achieved'
p124
I16
tp125
atp126
a(S'lors'
p127
(dp128
S'ADV'
p129
F1.0
s(lp130
(S'in'
p131
I17
tp132
atp133
a(S'des'
p134
(dp135
S'DET'
p136
F0.000119
sS'ADP'
p137
F0.999881
s(lp138
tp139
a(S'n\xc3\xa9gociations'
p140
(dp141
S'NOUN'
p142
F1.0
s(lp143
(S'negotiating'
p144
I18
tp145
atp146
a(S'sur'
p147
(dp148
S'ADP'
p149
F1.0
s(lp150
tp151
a(S'le'
p152
(dp153
S'PRON'
p154
F6.2e-05
sS'DET'
p155
F0.999938
s(lp156
(S'the'
p157
I19
tp158
atp159
a(S'budget'
p160
(dp161
S'NOUN'
p162
F1.0
s(lp163
(S'budget'
p164
I21
tp165
atp166
a(S'2010'
p167
(dp168
S'X'
p169
F0.011802
sS'NUM'
p170
F0.988198
s(lp171
(S'2010'
p172
I20
tp173
atp174
a(g5
(dp175
g5
F1.0
s(lp176
(g5
I22
tp177
atp178
asS'en'
p179
(lp180
(g3
(dp181
g5
F1.0
s(lp182
(g3
I0
tp183
atp184
a(g15
(dp185
S'ADV'
p186
F3.4e-05
sS'ADJ'
p187
F0.001403
sS'VERB'
p188
F0.000131
sS'NOUN'
p189
F0.9984329999999999
s(lp190
(g15
I1
tp191
atp192
a(g18
(dp193
g5
F1.0
s(lp194
(g18
I2
tp195
atp196
a(g27
(dp197
g169
F0.068265
sS'NOUN'
p198
F0.931735
s(lp199
(g27
I3
tp200
atp201
a(S'would'
p202
(dp203
S'VERB'
p204
F1.0
s(lp205
(g202
I4
tp206
atp207
a(g34
(dp208
S'VERB'
p209
F0.9997360000000001
sS'ADJ'
p210
F3.1e-05
sS'ADP'
p211
F0.000233
s(lp212
(g34
I5
tp213
atp214
a(S'to'
p215
(dp216
S'ADV'
p217
F0.0
sS'PRT'
p218
F1.0
sS'ADP'
p219
F0.0
s(lp220
(g215
I6
tp221
atp222
a(g41
(dp223
S'VERB'
p224
F1.0
s(lp225
(g41
I7
tp226
atp227
a(g49
(dp228
S'ADV'
p229
F0.001392
sS'NOUN'
p230
F1e-06
sS'ADP'
p231
F0.998607
s(lp232
(g49
I8
tp233
atp234
a(g56
(dp235
S'VERB'
p236
F1.0
s(lp237
(g56
I9
tp238
atp239
a(g65
(dp240
S'NOUN'
p241
F8e-06
sS'DET'
p242
F0.999992
s(lp243
(g65
I10
tp244
atp245
a(g73
(dp246
S'NOUN'
p247
F1.0
s(lp248
(g73
I11
tp249
atp250
a(g81
(dp251
S'ADP'
p252
F1.0
s(lp253
(g81
I12
tp254
atp255
a(g90
(dp256
S'NOUN'
p257
F1.1e-05
sS'DET'
p258
F0.999989
s(lp259
(g90
I13
tp260
atp261
a(g97
(dp262
S'VERB'
p263
F0.016782
sS'NOUN'
p264
F0.983218
s(lp265
(g97
I14
tp266
atp267
a(g106
(dp268
S'PRON'
p269
F1.0
s(lp270
(g106
I15
tp271
atp272
a(g124
(dp273
S'VERB'
p274
F1.0
s(lp275
(g124
I16
tp276
atp277
a(g131
(dp278
S'ADV'
p279
F0.004662
sS'PRT'
p280
F0.008024
sS'ADP'
p281
F0.987314
s(lp282
(g131
I17
tp283
atp284
a(g144
(dp285
S'VERB'
p286
F0.998339
sS'NOUN'
p287
F0.001661
s(lp288
(g144
I18
tp289
atp290
a(g157
(dp291
S'NOUN'
p292
F3.3e-05
sS'DET'
p293
F0.999967
s(lp294
(g157
I19
tp295
atp296
a(g172
(dp297
S'ADV'
p298
F3e-06
sS'NOUN'
p299
F0.000189
sS'NUM'
p300
F0.994559
sS'ADJ'
p301
F0.005249
sg169
F0.0
s(lp302
(g172
I20
tp303
atp304
a(g164
(dp305
S'VERB'
p306
F0.0
sS'NOUN'
p307
F1.0
s(lp308
(g164
I21
tp309
atp310
a(g5
(dp311
g5
F1.0
s(lp312
(g5
I22
tp313
atp314
asS'nl'
p315
(lp316
(g3
(dp317
g5
F1.0
s(lp318
(g3
I0
tp319
atp320
a(S'ro'
p321
(dp322
S'ADJ'
p323
F0.06221
sS'NOUN'
p324
F0.93779
s(lp325
(g15
I1
tp326
atp327
a(g18
(dp328
g5
F1.0
s(lp329
(g18
I2
tp330
atp331
a(S'allereerst'
p332
(dp333
S'ADJ'
p334
F1.0
s(lp335
(g41
I7
tp336
atp337
a(S'wil'
p338
(dp339
S'VERB'
p340
F0.986986
sS'NOUN'
p341
F0.013014
s(lp342
(g202
I4
tp343
atp344
a(S'ik'
p345
(dp346
S'PRON'
p347
F0.999994
sS'NOUN'
p348
F6e-06
s(lp349
(g27
I3
tp350
atp351
a(S'graag'
p352
(dp353
S'ADV'
p354
F0.946036
sS'ADJ'
p355
F0.053964
s(lp356
(g34
I5
tp357
atp358
a(S'de'
p359
(dp360
S'DET'
p361
F1.0
s(lp362
(g65
I10
tp363
atp364
a(S'rapporteurs'
p365
(dp366
S'NOUN'
p367
F1.0
s(lp368
(g73
I11
tp369
atp370
a(S'feliciteren'
p371
(dp372
S'VERB'
p373
F0.982224
sS'NOUN'
p374
F0.017776
s(lp375
tp376
a(S'met'
p377
(dp378
S'ADP'
p379
F1.0
s(lp380
(g56
I9
tp381
atp382
a(S'de'
p383
(dp384
S'DET'
p385
F1.0
s(lp386
(g90
I13
tp387
atp388
a(S'resultaten'
p389
(dp390
S'NOUN'
p391
F1.0
s(lp392
(g97
I14
tp393
atp394
a(S'die'
p395
(dp396
S'PRON'
p397
F1.0
s(lp398
tp399
a(S'ze'
p400
(dp401
S'PRON'
p402
F1.0
s(lp403
(g106
I15
tp404
atp405
a(S'hebben'
p406
(dp407
S'VERB'
p408
F0.999998
sS'NOUN'
p409
F2e-06
s(lp410
tp411
a(S'behaald'
p412
(dp413
S'VERB'
p414
F1.0
s(lp415
(g124
I16
tp416
atp417
a(S'bij'
p418
(dp419
S'ADV'
p420
F0.000147
sS'ADJ'
p421
F0.0
sS'NOUN'
p422
F0.0
sS'ADP'
p423
F0.999853
s(lp424
(g131
I17
tp425
atp426
a(S'de'
p427
(dp428
S'DET'
p429
F1.0
s(lp430
tp431
a(S'onderhandelingen'
p432
(dp433
S'NOUN'
p434
F1.0
s(lp435
tp436
a(S'over'
p437
(dp438
S'ADV'
p439
F0.017648
sS'ADP'
p440
F0.982352
s(lp441
(g144
I18
tp442
atp443
a(S'de'
p444
(dp445
S'DET'
p446
F1.0
s(lp447
(g157
I19
tp448
atp449
a(S'begroting'
p450
(dp451
S'NOUN'
p452
F1.0
s(lp453
(g164
I21
tp454
atp455
a(S'van'
p456
(dp457
S'ADP'
p458
F1.0
s(lp459
(g49
I8
tp460
atp461
a(S'2010'
p462
(dp463
S'NUM'
p464
F1.0
s(lp465
(g172
I20
tp466
atp467
a(g5
(dp468
g5
F1.0
s(lp469
(g5
I22
tp470
atp471
asS'de'
p472
(lp473
(g3
(dp474
g5
F1.0
s(lp475
(g3
I0
tp476
atp477
a(S'ro'
p478
(dp479
S'ADJ'
p480
F0.697471
s(lp481
(g15
I1
tp482
atp483
a(g18
(dp484
g5
F1.0
s(lp485
(g18
I2
tp486
atp487
a(S'zu'
p488
(dp489
S'ADV'
p490
F0.001371
sS'ADP'
p491
F0.99784
s(lp492
(g215
I6
tp493
atp494
a(S'anfang'
p495
(dp496
S'ADJ'
p497
F0.000178
sS'NOUN'
p498
F0.999795
s(lp499
(g41
I7
tp500
atp501
a(S'm\xc3\xb6chte'
p502
(dp503
S'VERB'
p504
F1.0
s(lp505
(g34
I5
tp506
atp507
a(S'ich'
p508
(dp509
S'PRON'
p510
F1.0
s(lp511
(g27
I3
tp512
atp513
a(S'den'
p514
(dp515
S'PRON'
p516
F0.000986
sS'DET'
p517
F0.998873
s(lp518
(g65
I10
tp519
atp520
a(S'berichterstattern'
p521
(dp522
S'ADJ'
p523
F0.007984
sS'NOUN'
p524
F0.991246
s(lp525
(g73
I11
tp526
atp527
a(S'zu'
p528
(dp529
S'PRT'
p530
F0.002134
sS'ADP'
p531
F0.997166
s(lp532
(g81
I12
tp533
atp534
a(S'den'
p535
(dp536
S'PRON'
p537
F0.001336
sS'DET'
p538
F0.998586
s(lp539
(g90
I13
tp540
atp541
a(S'ergebnissen'
p542
(dp543
S'ADJ'
p544
F0.999976
s(lp545
(g97
I14
tp546
atp547
a(S'gratulieren'
p548
(dp549
S'VERB'
p550
F1.0
s(lp551
(g56
I9
tp552
atp553
a(S','
p554
(dp555
g5
F1.0
s(lp556
tp557
a(S'die'
p558
(dp559
S'PRON'
p560
F0.999622
sS'DET'
p561
F0.000205
s(lp562
tp563
a(S'sie'
p564
(dp565
S'PRON'
p566
F1.0
s(lp567
(g106
I15
tp568
atp569
a(S'bei'
p570
(dp571
S'PRT'
p572
F0.000815
sS'ADP'
p573
F0.999185
s(lp574
(g131
I17
tp575
atp576
a(S'der'
p577
(dp578
S'PRON'
p579
F0.000235
sS'DET'
p580
F0.999754
s(lp581
tp582
a(S'aushandlung'
p583
(dp584
S'ADJ'
p585
F0.001984
sS'NOUN'
p586
F0.9971
s(lp587
(g144
I18
tp588
atp589
a(S'des'
p590
(dp591
S'DET'
p592
F1.0
s(lp593
(g157
I19
tp594
atp595
a(S'haushaltsplans'
p596
(dp597
S'ADJ'
p598
F0.000133
sS'NOUN'
p599
F0.999758
s(lp600
tp601
a(S'f\xc3\xbcr'
p602
(dp603
S'ADP'
p604
F1.0
s(lp605
(g164
I21
tp606
atp607
a(S'2010'
p608
(dp609
S'NUM'
p610
F0.996101
sS'ADJ'
p611
F0.002445
s(lp612
(g172
I20
tp613
atp614
a(S'erzielt'
p615
(dp616
S'VERB'
p617
F0.996012
sS'ADJ'
p618
F0.003965
s(lp619
tp620
a(S'haben'
p621
(dp622
S'VERB'
p623
F0.999973
s(lp624
(g124
I16
tp625
atp626
a(g5
(dp627
g5
F1.0
s(lp628
(g5
I22
tp629
atp630
asS'it'
p631
(lp632
(g3
(dp633
g5
F1.0
s(lp634
(g3
I0
tp635
atp636
a(S'ro'
p637
(dp638
S'NOUN'
p639
F0.003774
sS'VERB'
p640
F0.984512
sS'ADJ'
p641
F0.011715
s(lp642
(g15
I1
tp643
atp644
a(g18
(dp645
g5
F1.0
s(lp646
(g18
I2
tp647
atp648
a(S'innanzi'
p649
(dp650
S'ADV'
p651
F0.071798
sS'ADJ'
p652
F0.105073
sS'ADP'
p653
F0.823129
s(lp654
tp655
a(S'tutto'
p656
(dp657
S'ADV'
p658
F0.130045
sS'PRON'
p659
F0.6965
sS'ADJ'
p660
F0.152573
sS'NOUN'
p661
F0.020882
s(lp662
(g41
I7
tp663
atp664
a(S'porgo'
p665
(dp666
S'VERB'
p667
F1.0
s(lp668
tp669
a(S'le'
p670
(dp671
S'PRON'
p672
F0.0
sS'DET'
p673
F1.0
s(lp674
(g65
I10
tp675
atp676
a(S'congratulazioni'
p677
(dp678
S'NOUN'
p679
F1.0
s(lp680
(g56
I9
tp681
atp682
a(S'ai'
p683
(dp684
S'NOUN'
p685
F2e-06
sS'ADP'
p686
F0.999998
s(lp687
tp688
a(S'relatori'
p689
(dp690
S'NOUN'
p691
F1.0
s(lp692
(g73
I11
tp693
atp694
a(S'per'
p695
(dp696
S'CONJ'
p697
F0.003867
sS'ADP'
p698
F0.996133
s(lp699
(g81
I12
tp700
atp701
a(S'risultati'
p702
(dp703
S'VERB'
p704
F0.00256
sS'NOUN'
p705
F0.99744
s(lp706
(g97
I14
tp707
atp708
a(S'che'
p709
(dp710
S'PRON'
p711
F0.960049
sS'CONJ'
p712
F0.0391
sS'ADJ'
p713
F0.000851
s(lp714
tp715
a(S'hanno'
p716
(dp717
S'VERB'
p718
F1.0
s(lp719
(g106
I15
tp720
atp721
a(S'conseguito'
p722
(dp723
S'VERB'
p724
F1.0
s(lp725
(g124
I16
tp726
atp727
a(S'nei'
p728
(dp729
S'NOUN'
p730
F0.000165
sS'ADP'
p731
F0.999835
s(lp732
(g131
I17
tp733
atp734
a(S'negoziati'
p735
(dp736
S'ADJ'
p737
F0.017955
sS'VERB'
p738
F0.010150999999999999
sS'NOUN'
p739
F0.971894
s(lp740
(g144
I18
tp741
atp742
a(S'sul'
p743
(dp744
S'ADP'
p745
F1.0
s(lp746
(g157
I19
tp747
atp748
a(S'bilancio'
p749
(dp750
S'VERB'
p751
F1e-06
sS'NOUN'
p752
F0.999999
s(lp753
(g164
I21
tp754
atp755
a(S'2010'
p756
(dp757
S'NUM'
p758
F0.980855
sg5
F0.019145
s(lp759
(g172
I20
tp760
atp761
a(g5
(dp762
g5
F1.0
s(lp763
(g5
I22
tp764
atp765
asS'sk'
p766
(lp767
(g3
(dp768
g5
F1.0
s(lp769
(g3
I0
tp770
atp771
a(S'ro'
p772
(dp773
S'ADJ'
p774
F0.07313
sS'VERB'
p775
F0.48115499999999983
sS'NOUN'
p776
F0.445715
s(lp777
(g15
I1
tp778
atp779
a(g18
(dp780
g5
F1.0
s(lp781
(g18
I2
tp782
atp783
a(S'na'
p784
(dp785
g169
F0.000216
sS'CONJ'
p786
F5e-05
sS'ADP'
p787
F0.999728
sS'PRT'
p788
F7e-06
s(lp789
(g215
I6
tp790
atp791
a(S'\xc3\xbavod'
p792
(dp793
S'NOUN'
p794
F1.0
s(lp795
(g41
I7
tp796
atp797
a(S'by'
p798
(dp799
S'PRT'
p800
F0.99999
sg169
F9.999999999999999e-06
s(lp801
(g202
I4
tp802
atp803
a(S'som'
p804
(dp805
S'VERB'
p806
F1.0
s(lp807
tp808
a(S'r\xc3\xa1d'
p809
(dp810
S'ADV'
p811
F0.047373
sS'NOUN'
p812
F0.416928
sS'ADJ'
p813
F0.511401
sg169
F0.024299
s(lp814
(g34
I5
tp815
atp816
a(S'zablaho\xc5\xbeelal'
p817
(dp818
S'VERB'
p819
F1.0
s(lp820
(g56
I9
tp821
atp822
a(S'spravodajcom'
p823
(dp824
S'NOUN'
p825
F1.0
s(lp826
(g73
I11
tp827
atp828
a(S'k'
p829
(dp830
g169
F0.00040399999999999995
sS'NOUN'
p831
F1.1e-05
sS'ADP'
p832
F0.999585
s(lp833
(g81
I12
tp834
atp835
a(S'v\xc3\xbdsledkom'
p836
(dp837
S'NOUN'
p838
F1.0
s(lp839
(g97
I14
tp840
atp841
a(g554
(dp842
g5
F1.0
s(lp843
tp844
a(S'ktor\xc3\xa9'
p845
(dp846
S'PRON'
p847
F1.0
s(lp848
(g106
I15
tp849
atp850
a(S'dosiahli'
p851
(dp852
S'VERB'
p853
F1.0
s(lp854
(g124
I16
tp855
atp856
a(S'pri'
p857
(dp858
g169
F3e-05
sS'VERB'
p859
F0.0
sS'ADP'
p860
F0.99997
s(lp861
(g131
I17
tp862
atp863
a(S'rokovan\xc3\xad'
p864
(dp865
S'NOUN'
p866
F1.0
s(lp867
tp868
a(S'o'
p869
(dp870
g169
F0.0005380000000000001
sS'CONJ'
p871
F5.5e-05
sS'NOUN'
p872
F1.1e-05
sS'ADP'
p873
F0.999396
s(lp874
(g144
I18
tp875
atp876
a(S'rozpo\xc4\x8dte'
p877
(dp878
S'NOUN'
p879
F1.0
s(lp880
(g164
I21
tp881
atp882
a(S'na'
p883
(dp884
g169
F0.000156
sS'CONJ'
p885
F1.5e-05
sS'ADP'
p886
F0.999826
sS'PRT'
p887
F3e-06
s(lp888
(g157
I19
tp889
atp890
a(S'rok'
p891
(dp892
S'NOUN'
p893
F1.0
s(lp894
tp895
a(S'2010'
p896
(dp897
S'NUM'
p898
F1.0
s(lp899
(g172
I20
tp900
atp901
a(g5
(dp902
g5
F1.0
s(lp903
(g5
I22
tp904
atp905
asS'pl'
p906
(lp907
(g3
(dp908
S'NOUN'
p909
F0.000564
sg5
F0.999436
s(lp910
(g3
I0
tp911
atp912
a(S'ro'
p913
(dp914
S'VERB'
p915
F0.6514169999999999
sS'ADJ'
p916
F0.348583
s(lp917
(g15
I1
tp918
atp919
a(g18
(dp920
g5
F1.0
s(lp921
(g18
I2
tp922
atp923
a(S'chcia\xc5\x82bym'
p924
(dp925
S'ADV'
p926
F0.044879
sS'ADJ'
p927
F0.012896000000000001
sS'VERB'
p928
F0.9051379999999999
sS'NOUN'
p929
F0.037084
s(lp930
(g202
I4
tp931
atp932
a(S'zacz\xc4\x85\xc4\x87'
p933
(dp934
S'VERB'
p935
F1.0
s(lp936
tp937
a(S'od'
p938
(dp939
S'VERB'
p940
F0.0
sS'NOUN'
p941
F4e-05
sS'ADP'
p942
F0.9999600000000001
s(lp943
(g41
I7
tp944
atp945
a(S'pogratulowania'
p946
(dp947
S'ADV'
p948
F1e-06
sS'ADJ'
p949
F2.3e-05
sS'VERB'
p950
F0.9151100000000001
sS'NOUN'
p951
F0.08486700000000001
s(lp952
(g56
I9
tp953
atp954
a(S'sprawozdawcom'
p955
(dp956
S'NOUN'
p957
F1.0
s(lp958
(g73
I11
tp959
atp960
a(S'wynik\xc3\xb3w'
p961
(dp962
S'NOUN'
p963
F1.0
s(lp964
(g97
I14
tp965
atp966
a(g554
(dp967
g169
F0.0
sg5
F1.0
s(lp968
tp969
a(S'jakie'
p970
(dp971
S'ADJ'
p972
F1.0
s(lp973
(g106
I15
tp974
atp975
a(S'osi\xc4\x85gn\xc4\x99li'
p976
(dp977
S'VERB'
p978
F1.0
s(lp979
(g124
I16
tp980
atp981
a(S'w'
p982
(dp983
S'ADJ'
p984
F0.0
sg169
F0.0
sS'NOUN'
p985
F0.0
sS'ADP'
p986
F1.0
s(lp987
(g131
I17
tp988
atp989
a(S'negocjacjach'
p990
(dp991
S'NOUN'
p992
F1.0
s(lp993
tp994
a(S'dotycz\xc4\x85cych'
p995
(dp996
S'VERB'
p997
F1.000001
s(lp998
(g144
I18
tp999
atp1000
a(S'bud\xc5\xbcetu'
p1001
(dp1002
S'NOUN'
p1003
F1.0
s(lp1004
(g164
I21
tp1005
atp1006
a(S'na'
p1007
(dp1008
S'PRT'
p1009
F2.6e-05
sS'VERB'
p1010
F0.000156
sS'NOUN'
p1011
F4.1e-05
sS'ADP'
p1012
F0.9997699999999999
sg169
F7e-06
s(lp1013
(g157
I19
tp1014
atp1015
a(S'2010'
p1016
(dp1017
S'NUM'
p1018
F0.002357
sS'ADJ'
p1019
F0.9976430000000001
s(lp1020
tp1021
a(S'rok'
p1022
(dp1023
S'NOUN'
p1024
F1.0
s(lp1025
(g172
I20
tp1026
atp1027
a(g5
(dp1028
g5
F1.0
s(lp1029
(g5
I22
tp1030
atp1031
asS'sl'
p1032
(lp1033
(g3
(dp1034
g5
F1.0
s(lp1035
(g3
I0
tp1036
atp1037
a(S'ro'
p1038
(dp1039
S'ADV'
p1040
F0.011352
sS'ADJ'
p1041
F0.001443
sS'VERB'
p1042
F0.000136
sS'NOUN'
p1043
F0.9870689999999999
s(lp1044
(g15
I1
tp1045
atp1046
a(g18
(dp1047
g5
F1.0
s(lp1048
(g18
I2
tp1049
atp1050
a(S'najprej'
p1051
(dp1052
S'ADV'
p1053
F1.0
s(lp1054
(g41
I7
tp1055
atp1056
a(S'bi'
p1057
(dp1058
g169
F0.000101
sS'VERB'
p1059
F0.999899
s(lp1060
(g202
I4
tp1061
atp1062
a(S'rad'
p1063
(dp1064
S'ADV'
p1065
F1.0
s(lp1066
(g34
I5
tp1067
atp1068
a(S'\xc4\x8destital'
p1069
(dp1070
S'VERB'
p1071
F1.0
s(lp1072
(g56
I9
tp1073
atp1074
a(S'poro\xc4\x8devalcem'
p1075
(dp1076
S'ADV'
p1077
F0.001687
sS'ADJ'
p1078
F0.0007889999999999999
sS'VERB'
p1079
F0.03239
sS'NOUN'
p1080
F0.965131
s(lp1081
(g73
I11
tp1082
atp1083
a(S'za'
p1084
(dp1085
S'ADV'
p1086
F4.4e-05
sg169
F2.7e-05
sS'ADP'
p1087
F0.999928
s(lp1088
(g81
I12
tp1089
atp1090
a(S'rezultate'
p1091
(dp1092
S'NOUN'
p1093
F1.0
s(lp1094
(g97
I14
tp1095
atp1096
a(g554
(dp1097
g5
F1.0
s(lp1098
tp1099
a(S'ki'
p1100
(dp1101
S'CONJ'
p1102
F1.0
s(lp1103
(g106
I15
tp1104
atp1105
a(S'so'
p1106
(dp1107
g169
F1e-06
sS'VERB'
p1108
F0.999998
s(lp1109
tp1110
a(S'jih'
p1111
(dp1112
S'PRON'
p1113
F1.0
s(lp1114
(g106
I15
tp1115
atp1116
a(S'dosegli'
p1117
(dp1118
S'VERB'
p1119
F1.0
s(lp1120
(g124
I16
tp1121
atp1122
a(S'v'
p1123
(dp1124
S'ADP'
p1125
F1.0
s(lp1126
(g131
I17
tp1127
atp1128
a(S'pogajanjih'
p1129
(dp1130
S'NOUN'
p1131
F1.0
s(lp1132
(g144
I18
tp1133
atp1134
a(S'za'
p1135
(dp1136
S'ADV'
p1137
F3.6e-05
sg169
F7e-06
sS'ADP'
p1138
F0.9999579999999999
s(lp1139
tp1140
a(S'prora\xc4\x8dun'
p1141
(dp1142
S'NOUN'
p1143
F1.0
s(lp1144
(g164
I21
tp1145
atp1146
a(S'za'
p1147
(dp1148
S'ADV'
p1149
F4e-06
sg169
F1e-06
sS'ADP'
p1150
F0.999996
s(lp1151
(g157
I19
tp1152
atp1153
a(S'leto'
p1154
(dp1155
S'NOUN'
p1156
F1.0
s(lp1157
tp1158
a(S'2010'
p1159
(dp1160
S'NUM'
p1161
F1.0
s(lp1162
(g172
I20
tp1163
atp1164
a(g5
(dp1165
g5
F1.0
s(lp1166
(g5
I22
tp1167
atp1168
asS'es'
p1169
(lp1170
(g3
(dp1171
g5
F1.0
s(lp1172
(g3
I0
tp1173
atp1174
a(S'ro'
p1175
(dp1176
S'ADV'
p1177
F0.020822
sS'NOUN'
p1178
F0.118294
sS'VERB'
p1179
F0.30892000000000003
sS'ADJ'
p1180
F0.551965
s(lp1181
(g15
I1
tp1182
atp1183
a(g18
(dp1184
g5
F1.0
s(lp1185
(g18
I2
tp1186
atp1187
a(S'quisiera'
p1188
(dp1189
S'VERB'
p1190
F1.0
s(lp1191
(g34
I5
tp1192
atp1193
a(S'empezar'
p1194
(dp1195
S'VERB'
p1196
F1.0
s(lp1197
(g41
I7
tp1198
atp1199
a(S'por'
p1200
(dp1201
S'ADP'
p1202
F1.0
s(lp1203
(g49
I8
tp1204
atp1205
a(S'felicitar'
p1206
(dp1207
S'VERB'
p1208
F1.0
s(lp1209
tp1210
a(S'a'
p1211
(dp1212
g169
F0.000259
sS'CONJ'
p1213
F5e-06
sS'ADP'
p1214
F0.999736
s(lp1215
(g56
I9
tp1216
atp1217
a(S'los'
p1218
(dp1219
S'PRON'
p1220
F0.0
sS'DET'
p1221
F1.0
s(lp1222
(g65
I10
tp1223
atp1224
a(S'ponentes'
p1225
(dp1226
S'ADJ'
p1227
F0.000158
sS'NOUN'
p1228
F0.999842
s(lp1229
(g73
I11
tp1230
atp1231
a(S'por'
p1232
(dp1233
S'ADP'
p1234
F1.0
s(lp1235
(g81
I12
tp1236
atp1237
a(S'los'
p1238
(dp1239
S'PRON'
p1240
F0.0
sS'DET'
p1241
F1.0
s(lp1242
(g90
I13
tp1243
atp1244
a(S'resultados'
p1245
(dp1246
S'NOUN'
p1247
F1.0
s(lp1248
(g97
I14
tp1249
atp1250
a(S'que'
p1251
(dp1252
g169
F1.4e-05
sS'CONJ'
p1253
F0.999986
s(lp1254
tp1255
a(S'han'
p1256
(dp1257
S'VERB'
p1258
F1.0
s(lp1259
(g106
I15
tp1260
atp1261
a(S'conseguido'
p1262
(dp1263
S'VERB'
p1264
F1.0
s(lp1265
(g124
I16
tp1266
atp1267
a(g1211
(dp1268
g169
F1.5e-05
sS'CONJ'
p1269
F4e-06
sS'ADP'
p1270
F0.999981
s(lp1271
tp1272
a(S'la'
p1273
(dp1274
S'NOUN'
p1275
F0.0
sS'PRON'
p1276
F0.0
sS'DET'
p1277
F0.999999
sg169
F0.0
s(lp1278
tp1279
a(S'hora'
p1280
(dp1281
S'NOUN'
p1282
F1.0
s(lp1283
(g131
I17
tp1284
atp1285
a(S'de'
p1286
(dp1287
g169
F0.0
sS'CONJ'
p1288
F0.345844
sS'ADP'
p1289
F0.654156
s(lp1290
tp1291
a(S'negociar'
p1292
(dp1293
S'VERB'
p1294
F1.0
s(lp1295
(g144
I18
tp1296
atp1297
a(S'el'
p1298
(dp1299
S'PRON'
p1300
F7.2e-05
sS'DET'
p1301
F0.999928
s(lp1302
(g157
I19
tp1303
atp1304
a(S'presupuesto'
p1305
(dp1306
S'VERB'
p1307
F0.052041
sS'NOUN'
p1308
F0.947959
s(lp1309
(g164
I21
tp1310
atp1311
a(S'de'
p1312
(dp1313
g169
F0.001228
sS'CONJ'
p1314
F0.00014
sS'ADP'
p1315
F0.998633
s(lp1316
tp1317
a(S'2010'
p1318
(dp1319
g169
F0.10318
sS'NUM'
p1320
F0.89682
s(lp1321
(g172
I20
tp1322
atp1323
a(g5
(dp1324
g5
F1.0
s(lp1325
(g5
I22
tp1326
atp1327
as.