(dp0
S'fr'
p1
(lp2
(S'ceci'
p3
(dp4
S'PRON'
p5
F1.0
s(lp6
(S'this'
p7
I0
tp8
atp9
a(S'me'
p10
(dp11
S'PRON'
p12
F1.0
s(lp13
(S'i'
p14
I1
tp15
atp16
a(S'semble'
p17
(dp18
S'VERB'
p19
F1.0
s(lp20
(S'consider'
p21
I2
tp22
atp23
a(S'politiquement'
p24
(dp25
S'ADV'
p26
F1.0
s(lp27
(S'politically'
p28
I3
tp29
atp30
a(S'd\xc3\xa9raisonnable'
p31
(dp32
S'ADJ'
p33
F1.0
s(lp34
(S'unreasonable'
p35
I4
tp36
atp37
a(S'et'
p38
(dp39
S'CONJ'
p40
F1.0
s(lp41
(S','
p42
I5
tp43
atp44
a(S'm\xc3\xaame'
p45
(dp46
S'ADV'
p47
F0.988636
sS'ADJ'
p48
F0.011364
s(lp49
(S'even'
p50
I6
tp51
atp52
a(S'd\xc3\xa9sinvolte'
p53
(dp54
S'ADJ'
p55
F1.0
s(lp56
(S'negligent'
p57
I7
tp58
atp59
a(g42
(dp60
S'.'
p61
F1.0
s(lp62
(g42
I8
tp63
atp64
a(S'et'
p65
(dp66
S'CONJ'
p67
F1.0
s(lp68
(S'and'
p69
I9
tp70
atp71
a(S'je'
p72
(dp73
S'PRON'
p74
F1.0
s(lp75
(g14
I10
tp76
atp77
a(S'recommande'
p78
(dp79
S'VERB'
p80
F1.0
s(lp81
tp82
a(S'donc'
p83
(dp84
S'ADV'
p85
F1.0
s(lp86
(S'therefore'
p87
I11
tp88
atp89
a(S"d'"
p90
(dp91
S'NOUN'
p92
F0.037162
sS'VERB'
p93
F0.7565829999999999
sS'ADJ'
p94
F0.206256
s(lp95
tp96
a(S'adopter'
p97
(dp98
S'VERB'
p99
F1.0
s(lp100
(S'recommend'
p101
I12
tp102
atp103
a(S'le'
p104
(dp105
S'PRON'
p106
F0.000137
sS'DET'
p107
F0.999863
s(lp108
(S'the'
p109
I14
tp110
atp111
a(S'compromis'
p112
(dp113
S'VERB'
p114
F0.000188
sS'NOUN'
p115
F0.999812
s(lp116
(S'compromise'
p117
I15
tp118
atp119
a(S'qui'
p120
(dp121
S'PRON'
p122
F1.0
s(lp123
(S'that'
p124
I13
tp125
atp126
a(S"s'"
p127
(dp128
S'ADJ'
p129
F0.006544
sS'VERB'
p130
F0.9727179999999999
sS'NOUN'
p131
F0.020738
s(lp132
(S'be'
p133
I17
tp134
atp135
a(S'est'
p136
(dp137
S'VERB'
p138
F0.999511
sS'NOUN'
p139
F0.000489
s(lp140
(S'accepted'
p141
I18
tp142
atp143
a(S'd\xc3\xa9gag\xc3\xa9'
p144
(dp145
S'VERB'
p146
F1.0
s(lp147
(S'found'
p148
I16
tp149
atp150
a(g61
(dp151
g61
F1.0
s(lp152
(g61
I19
tp153
atp154
asS'en'
p155
(lp156
(g7
(dp157
S'ADV'
p158
F7.9e-05
sS'NOUN'
p159
F1.9e-05
sS'DET'
p160
F0.999902
s(lp161
(g7
I0
tp162
atp163
a(g14
(dp164
S'X'
p165
F0.008798
sS'NOUN'
p166
F0.991202
s(lp167
(g14
I1
tp168
atp169
a(g21
(dp170
S'VERB'
p171
F1.0
s(lp172
(g21
I2
tp173
atp174
a(g28
(dp175
S'ADV'
p176
F1.0
s(lp177
(g28
I3
tp178
atp179
a(g35
(dp180
S'ADJ'
p181
F1.0
s(lp182
(g35
I4
tp183
atp184
a(g42
(dp185
g61
F1.0
s(lp186
(g42
I5
tp187
atp188
a(g50
(dp189
S'ADV'
p190
F0.994148
sS'NOUN'
p191
F5e-06
sS'VERB'
p192
F0.001783
sS'ADJ'
p193
F0.004065
s(lp194
(g50
I6
tp195
atp196
a(g57
(dp197
S'ADJ'
p198
F1.0
s(lp199
(g57
I7
tp200
atp201
a(g42
(dp202
g61
F1.0
s(lp203
(g42
I8
tp204
atp205
a(g69
(dp206
S'CONJ'
p207
F0.999918
sS'NOUN'
p208
F8.2e-05
s(lp209
(g69
I9
tp210
atp211
a(g14
(dp212
g165
F0.000206
sS'NOUN'
p213
F0.9997940000000001
s(lp214
(g14
I10
tp215
atp216
a(g87
(dp217
S'ADV'
p218
F1.0
s(lp219
(g87
I11
tp220
atp221
a(g101
(dp222
S'VERB'
p223
F1.0
s(lp224
(g101
I12
tp225
atp226
a(g124
(dp227
S'ADV'
p228
F0.000474
sS'DET'
p229
F0.006346
sS'ADP'
p230
F0.99318
s(lp231
(g124
I13
tp232
atp233
a(g109
(dp234
S'NOUN'
p235
F3e-06
sS'DET'
p236
F0.999997
s(lp237
(g109
I14
tp238
atp239
a(g117
(dp240
S'ADJ'
p241
F0.008388
sS'VERB'
p242
F0.000383
sS'NOUN'
p243
F0.99123
s(lp244
(g117
I15
tp245
atp246
a(g148
(dp247
S'VERB'
p248
F0.999285
sS'ADJ'
p249
F0.000716
s(lp250
(g148
I16
tp251
atp252
a(g133
(dp253
S'VERB'
p254
F1.0
s(lp255
(g133
I17
tp256
atp257
a(g141
(dp258
S'VERB'
p259
F0.993702
sS'ADJ'
p260
F0.006299
s(lp261
(g141
I18
tp262
atp263
a(g61
(dp264
g61
F1.0
s(lp265
(g61
I19
tp266
atp267
asS'nl'
p268
(lp269
(S'dat'
p270
(dp271
S'PRON'
p272
F0.597317
sS'CONJ'
p273
F0.402683
s(lp274
(g7
I0
tp275
atp276
a(S'vind'
p277
(dp278
S'VERB'
p279
F1.0
s(lp280
(g21
I2
tp281
atp282
a(S'ik'
p283
(dp284
S'PRON'
p285
F0.999999
sS'NOUN'
p286
F1e-06
s(lp287
(g14
I1
tp288
atp289
a(S'politiek'
p290
(dp291
S'NOUN'
p292
F0.060811
sS'ADJ'
p293
F0.939189
s(lp294
(g28
I3
tp295
atp296
a(S'onredelijk'
p297
(dp298
S'ADJ'
p299
F1.0
s(lp300
(g35
I4
tp301
atp302
a(S'en'
p303
(dp304
S'CONJ'
p305
F1.0
s(lp306
(g42
I5
tp307
atp308
a(S'zelf'
p309
(dp310
S'PRON'
p311
F1.0
s(lp312
(g50
I6
tp313
atp314
a(S'nalatig'
p315
(dp316
S'ADJ'
p317
F1.0
s(lp318
(g57
I7
tp319
atp320
a(g42
(dp321
g61
F1.0
s(lp322
(g42
I8
tp323
atp324
a(S'en'
p325
(dp326
S'CONJ'
p327
F1.0
s(lp328
(g69
I9
tp329
atp330
a(S'daarom'
p331
(dp332
S'ADV'
p333
F1.0
s(lp334
(g87
I11
tp335
atp336
a(S'adviseer'
p337
(dp338
S'VERB'
p339
F1.0
s(lp340
(g101
I12
tp341
atp342
a(S'ik'
p343
(dp344
S'PRON'
p345
F1.0
sS'NOUN'
p346
F0.0
s(lp347
(g14
I10
tp348
atp349
a(S'het'
p350
(dp351
S'PRON'
p352
F0.1385
sS'DET'
p353
F0.8615
s(lp354
(g109
I14
tp355
atp356
a(S'gevonden'
p357
(dp358
S'VERB'
p359
F1.0
s(lp360
(g148
I16
tp361
atp362
a(S'compromis'
p363
(dp364
S'NOUN'
p365
F1.0
s(lp366
(g117
I15
tp367
atp368
a(S'te'
p369
(dp370
S'PRT'
p371
F1.0
s(lp372
(g133
I17
tp373
atp374
a(S'aanvaarden'
p375
(dp376
S'VERB'
p377
F1.0
sS'NOUN'
p378
F0.0
s(lp379
(g141
I18
tp380
atp381
a(g61
(dp382
g61
F1.0
s(lp383
(g61
I19
tp384
atp385
asS'de'
p386
(lp387
(S'das'
p388
(dp389
S'PRON'
p390
F0.998146
sS'DET'
p391
F0.001484
s(lp392
(g7
I0
tp393
atp394
a(S'halte'
p395
(dp396
S'VERB'
p397
F1.0
s(lp398
tp399
a(S'ich'
p400
(dp401
S'PRON'
p402
F1.0
s(lp403
(g14
I1
tp404
atp405
a(S'f\xc3\xbcr'
p406
(dp407
S'ADP'
p408
F1.0
s(lp409
(g21
I2
tp410
atp411
a(S'politisch'
p412
(dp413
S'ADJ'
p414
F1.0
s(lp415
(g28
I3
tp416
atp417
a(S'unangemessen'
p418
(dp419
S'ADJ'
p420
F1.0
s(lp421
(g35
I4
tp422
atp423
a(g42
(dp424
g61
F1.0
s(lp425
(g42
I5
tp426
atp427
a(S'ja'
p428
(dp429
S'ADV'
p430
F0.999997
sS'PRT'
p431
F3e-06
s(lp432
(g50
I6
tp433
atp434
a(S'fahrl\xc3\xa4ssig'
p435
(dp436
S'ADJ'
p437
F1.0
s(lp438
(g57
I7
tp439
atp440
a(g42
(dp441
g61
F1.0
s(lp442
(g42
I8
tp443
atp444
a(S'und'
p445
(dp446
S'CONJ'
p447
F1.0
s(lp448
(g69
I9
tp449
atp450
a(S'deshalb'
p451
(dp452
S'ADV'
p453
F1.0
s(lp454
(g87
I11
tp455
atp456
a(S'empfehle'
p457
(dp458
S'VERB'
p459
F1.0
s(lp460
(g101
I12
tp461
atp462
a(S'ich'
p463
(dp464
S'PRON'
p465
F1.0
s(lp466
(g14
I10
tp467
atp468
a(g42
(dp469
g61
F1.0
s(lp470
(g124
I13
tp471
atp472
a(S'den'
p473
(dp474
S'PRON'
p475
F0.007989
sS'DET'
p476
F0.989238
s(lp477
(g109
I14
tp478
atp479
a(S'gefundenen'
p480
(dp481
S'ADJ'
p482
F1.0
s(lp483
tp484
a(S'kompromiss'
p485
(dp486
S'ADJ'
p487
F1.1e-05
sS'NOUN'
p488
F0.999985
s(lp489
(g117
I15
tp490
atp491
a(S'anzunehmen'
p492
(dp493
S'VERB'
p494
F1.0
s(lp495
(g141
I18
tp496
atp497
a(g61
(dp498
g61
F1.0
s(lp499
(g61
I19
tp500
atp501
asS'it'
p502
(lp503
(S'ritengo'
p504
(dp505
S'VERB'
p506
F1.0
s(lp507
(g21
I2
tp508
atp509
a(S'che'
p510
(dp511
S'PRON'
p512
F0.978023
sS'CONJ'
p513
F0.021565
sS'ADJ'
p514
F0.000412
s(lp515
(g14
I1
tp516
atp517
a(S'ci\xc3\xb2'
p518
(dp519
S'PRON'
p520
F1.0
s(lp521
(g7
I0
tp522
atp523
a(S'sia'
p524
(dp525
S'CONJ'
p526
F0.872641
sS'VERB'
p527
F0.127359
s(lp528
(g133
I17
tp529
atp530
a(S'politicamente'
p531
(dp532
S'ADV'
p533
F1.0
s(lp534
(g28
I3
tp535
atp536
a(S'irragionevole'
p537
(dp538
S'ADJ'
p539
F1.0
s(lp540
(g35
I4
tp541
atp542
a(g42
(dp543
g61
F1.0
s(lp544
(g42
I5
tp545
atp546
a(S'persino'
p547
(dp548
S'ADV'
p549
F1.0
s(lp550
(g50
I6
tp551
atp552
a(S'negligente'
p553
(dp554
S'NOUN'
p555
F0.029528
sS'VERB'
p556
F0.018596
sS'ADJ'
p557
F0.951876
s(lp558
(g57
I7
tp559
atp560
a(g42
(dp561
g61
F1.0
s(lp562
(g42
I8
tp563
atp564
a(S'e'
p565
(dp566
S'CONJ'
p567
F1.0
s(lp568
(g69
I9
tp569
atp570
a(S'raccomando'
p571
(dp572
S'VERB'
p573
F1.0
s(lp574
(g101
I12
tp575
atp576
a(S'pertanto'
p577
(dp578
S'ADV'
p579
F1.0
s(lp580
(g87
I11
tp581
atp582
a(S'di'
p583
(dp584
S'CONJ'
p585
F4e-06
sS'ADP'
p586
F0.999996
s(lp587
tp588
a(S'accogliere'
p589
(dp590
S'VERB'
p591
F1.0
s(lp592
(g141
I18
tp593
atp594
a(S'il'
p595
(dp596
S'DET'
p597
F1.0
s(lp598
(g109
I14
tp599
atp600
a(S'compromesso'
p601
(dp602
S'VERB'
p603
F0.000708
sS'NOUN'
p604
F0.999292
s(lp605
(g117
I15
tp606
atp607
a(S'trovato'
p608
(dp609
S'VERB'
p610
F1.0
s(lp611
(g148
I16
tp612
atp613
a(g61
(dp614
g61
F1.0
s(lp615
(g61
I19
tp616
atp617
asS'sk'
p618
(lp619
(S'to'
p620
(dp621
S'PRON'
p622
F0.946117
sS'CONJ'
p623
F0.031789
sg165
F0.022094
s(lp624
(g7
I0
tp625
atp626
a(S'pova\xc5\xbeujem'
p627
(dp628
S'VERB'
p629
F1.0
s(lp630
tp631
a(S'za'
p632
(dp633
S'PRT'
p634
F0.047993
sS'ADP'
p635
F0.933426
sg165
F0.018581
s(lp636
(g21
I2
tp637
atp638
a(S'politicky'
p639
(dp640
S'ADV'
p641
F1.0
s(lp642
(g28
I3
tp643
atp644
a(S'nerozumn\xc3\xa9'
p645
(dp646
S'ADJ'
p647
F1.0
s(lp648
(g35
I4
tp649
atp650
a(S'a'
p651
(dp652
g165
F0.0006039999999999999
sS'CONJ'
p653
F0.999058
sS'NOUN'
p654
F0.000312
sS'ADP'
p655
F1e-06
sS'PRT'
p656
F2.6e-05
s(lp657
(g42
I5
tp658
atp659
a(S'dokonca'
p660
(dp661
g165
F1.0
s(lp662
(g50
I6
tp663
atp664
a(S'nedbanliv\xc3\xa9'
p665
(dp666
S'ADJ'
p667
F1.0
s(lp668
tp669
a(g42
(dp670
g61
F1.0
s(lp671
(g42
I8
tp672
atp673
a(g651
(dp674
g165
F0.00032300000000000004
sS'CONJ'
p675
F0.999671
sS'NOUN'
p676
F1e-06
sS'ADP'
p677
F0.0
sS'PRT'
p678
F4e-06
s(lp679
(g69
I9
tp680
atp681
a(S'preto'
p682
(dp683
S'PRON'
p684
F0.824825
sS'CONJ'
p685
F0.170364
sg165
F0.00481
s(lp686
(g87
I11
tp687
atp688
a(S'odpor\xc3\xba\xc4\x8dam'
p689
(dp690
S'VERB'
p691
F1.0
s(lp692
(g101
I12
tp693
atp694
a(S'prija\xc5\xa5'
p695
(dp696
S'VERB'
p697
F1.0
s(lp698
(g141
I18
tp699
atp700
a(S'n\xc3\xa1jden\xc3\xbd'
p701
(dp702
S'VERB'
p703
F1.0
s(lp704
(g57
I7
tp705
atp706
a(S'kompromis'
p707
(dp708
S'NOUN'
p709
F1.0
s(lp710
(g117
I15
tp711
atp712
a(g61
(dp713
g61
F1.0
s(lp714
(g61
I19
tp715
atp716
asS'pl'
p717
(lp718
(S'uwa\xc5\xbcam'
p719
(dp720
S'VERB'
p721
F1.0
s(lp722
tp723
a(S'to'
p724
(dp725
S'NOUN'
p726
F0.61848
sS'ADP'
p727
F4e-06
sS'PRT'
p728
F0.224706
sg165
F7e-06
sS'CONJ'
p729
F0.087853
sS'ADJ'
p730
F0.06895100000000001
s(lp731
(g7
I0
tp732
atp733
a(S'za'
p734
(dp735
S'PRT'
p736
F0.112658
sS'VERB'
p737
F0.000747
sS'NOUN'
p738
F4.2e-05
sS'ADP'
p739
F0.886551
sg165
F2e-06
s(lp740
(g21
I2
tp741
atp742
a(S'politycznie'
p743
(dp744
S'ADV'
p745
F1.0
s(lp746
(g28
I3
tp747
atp748
a(S'nierozs\xc4\x85dne'
p749
(dp750
S'ADJ'
p751
F1.0
s(lp752
(g35
I4
tp753
atp754
a(g42
(dp755
g165
F0.0
sg61
F1.0
s(lp756
(g42
I5
tp757
atp758
a(g651
(dp759
S'ADV'
p760
F0.000188
sS'NOUN'
p761
F0.0019839999999999997
sS'ADP'
p762
F5.2e-05
sS'PRT'
p763
F0.004852
sS'VERB'
p764
F0.001137
sg165
F0.005674
sS'CONJ'
p765
F0.98601
sS'ADJ'
p766
F0.00010199999999999999
s(lp767
tp768
a(S'nawet'
p769
(dp770
S'PRT'
p771
F0.998432
sS'CONJ'
p772
F0.001568
s(lp773
(g50
I6
tp774
atp775
a(S'niedba\xc5\x82e'
p776
(dp777
S'ADJ'
p778
F1.0
s(lp779
tp780
a(g14
(dp781
S'PRT'
p782
F0.004573
sS'CONJ'
p783
F0.995363
sS'PRON'
p784
F6e-06
sS'NOUN'
p785
F4e-06
sg165
F5.4e-05
s(lp786
(g69
I9
tp787
atp788
a(S'dlatego'
p789
(dp790
S'ADV'
p791
F1.0
s(lp792
(g87
I11
tp793
atp794
a(S'zalecam'
p795
(dp796
S'ADV'
p797
F0.000885
sS'ADJ'
p798
F0.000127
sS'VERB'
p799
F0.9950920000000001
sS'NOUN'
p800
F0.0038970000000000003
s(lp801
tp802
a(S'przyj\xc4\x99cie'
p803
(dp804
S'VERB'
p805
F0.9339660000000001
sS'NOUN'
p806
F0.06603400000000001
s(lp807
(g101
I12
tp808
atp809
a(S'obecnego'
p810
(dp811
S'ADJ'
p812
F0.999999
s(lp813
(g57
I7
tp814
atp815
a(S'kompromisu'
p816
(dp817
S'NOUN'
p818
F1.0
s(lp819
(g117
I15
tp820
atp821
a(g61
(dp822
g61
F1.0
s(lp823
(g61
I19
tp824
atp825
asS'sl'
p826
(lp827
(S'to'
p828
(dp829
S'PRON'
p830
F0.999901
sg165
F9.9e-05
s(lp831
(g7
I0
tp832
atp833
a(S'se'
p834
(dp835
S'PRON'
p836
F0.999997
sg165
F3e-06
s(lp837
(g14
I1
tp838
atp839
a(S'mi'
p840
(dp841
S'PRON'
p842
F0.999995
sg165
F5e-06
s(lp843
tp844
a(S'zdi'
p845
(dp846
S'VERB'
p847
F1.0
s(lp848
(g21
I2
tp849
atp850
a(S'politi\xc4\x8dno'
p851
(dp852
S'ADV'
p853
F0.883014
sS'ADJ'
p854
F0.116985
s(lp855
(g28
I3
tp856
atp857
a(S'nerazumno'
p858
(dp859
S'ADV'
p860
F1.0
s(lp861
(g35
I4
tp862
atp863
a(g42
(dp864
g61
F1.0
s(lp865
(g42
I5
tp866
atp867
a(S'celo'
p868
(dp869
S'PRT'
p870
F0.99952
sS'ADJ'
p871
F0.00048
s(lp872
(g50
I6
tp873
atp874
a(S'malomarno'
p875
(dp876
S'ADV'
p877
F1.0
s(lp878
(g57
I7
tp879
atp880
a(g42
(dp881
g61
F1.0
s(lp882
(g42
I8
tp883
atp884
a(S'pri'
p885
(dp886
S'ADP'
p887
F1.0
s(lp888
(g14
I10
tp889
atp890
a(S'\xc4\x8demer'
p891
(dp892
S'PRON'
p893
F1.0
s(lp894
(g69
I9
tp895
atp896
a(S'zato'
p897
(dp898
S'ADV'
p899
F0.418444
sS'CONJ'
p900
F0.581556
s(lp901
(g87
I11
tp902
atp903
a(S'priporo\xc4\x8dam'
p904
(dp905
S'VERB'
p906
F1.0
s(lp907
(g101
I12
tp908
atp909
a(g42
(dp910
g61
F1.0
s(lp911
tp912
a(S'da'
p913
(dp914
S'PRT'
p915
F5e-06
sS'CONJ'
p916
F0.99997
sS'VERB'
p917
F2.4e-05
sg165
F1e-06
s(lp918
(g124
I13
tp919
atp920
a(S'se'
p921
(dp922
S'PRON'
p923
F0.999993
sg165
F7e-06
s(lp924
(g133
I17
tp925
atp926
a(S'dose\xc5\xbeeni'
p927
(dp928
S'ADV'
p929
F0.001305
sS'NOUN'
p930
F0.013541000000000003
sS'VERB'
p931
F0.263007
sS'ADJ'
p932
F0.7221489999999997
s(lp933
tp934
a(S'kompromis'
p935
(dp936
S'NOUN'
p937
F1.0
s(lp938
(g117
I15
tp939
atp940
a(S'sprejme'
p941
(dp942
S'VERB'
p943
F1.0
s(lp944
(g141
I18
tp945
atp946
a(g61
(dp947
g61
F1.0
s(lp948
(g61
I19
tp949
atp950
asS'es'
p951
(lp952
(S'me'
p953
(dp954
S'PRON'
p955
F0.999999
sS'NOUN'
p956
F1e-06
s(lp957
(g14
I1
tp958
atp959
a(S'parece'
p960
(dp961
S'VERB'
p962
F1.0
s(lp963
tp964
a(S'que'
p965
(dp966
g165
F0.0
sS'CONJ'
p967
F1.0
s(lp968
(g21
I2
tp969
atp970
a(S'carece'
p971
(dp972
S'VERB'
p973
F1.0
s(lp974
tp975
a(S'de'
p976
(dp977
g165
F1.3e-05
sS'CONJ'
p978
F0.000682
sS'ADP'
p979
F0.999305
s(lp980
tp981
a(S'raz\xc3\xb3n'
p982
(dp983
S'NOUN'
p984
F1.0
s(lp985
(g35
I4
tp986
atp987
a(S'pol\xc3\xadtica'
p988
(dp989
S'NOUN'
p990
F0.015871
sS'ADJ'
p991
F0.984129
s(lp992
(g28
I3
tp993
atp994
a(S'y'
p995
(dp996
g165
F0.000518
sS'CONJ'
p997
F0.999482
s(lp998
(g69
I9
tp999
atp1000
a(S'que'
p1001
(dp1002
g165
F0.0
sS'CONJ'
p1003
F1.0
s(lp1004
tp1005
a(S'se'
p1006
(dp1007
S'PRON'
p1008
F1.0
sS'VERB'
p1009
F0.0
s(lp1010
(g50
I6
tp1011
atp1012
a(S'podr\xc3\xada'
p1013
(dp1014
S'VERB'
p1015
F1.0
s(lp1016
(g57
I7
tp1017
atp1018
a(S'calificar'
p1019
(dp1020
S'VERB'
p1021
F1.0
s(lp1022
tp1023
a(S'de'
p1024
(dp1025
g165
F5.5e-05
sS'CONJ'
p1026
F0.000863
sS'ADP'
p1027
F0.999082
s(lp1028
tp1029
a(S'negligencia'
p1030
(dp1031
S'NOUN'
p1032
F1.0
s(lp1033
(g57
I7
tp1034
atp1035
a(g42
(dp1036
g61
F1.0
s(lp1037
(g42
I8
tp1038
atp1039
a(S'por'
p1040
(dp1041
S'ADP'
p1042
F1.0
s(lp1043
tp1044
a(S'lo'
p1045
(dp1046
S'PRON'
p1047
F0.0
sS'DET'
p1048
F1.0
s(lp1049
(g87
I11
tp1050
atp1051
a(S'que'
p1052
(dp1053
g165
F4e-06
sS'CONJ'
p1054
F0.999996
s(lp1055
(g14
I10
tp1056
atp1057
a(S'recomiendo'
p1058
(dp1059
S'VERB'
p1060
F1.0
s(lp1061
(g101
I12
tp1062
atp1063
a(S'que'
p1064
(dp1065
g165
F0.0
sS'CONJ'
p1066
F1.0
s(lp1067
(g124
I13
tp1068
atp1069
a(S'se'
p1070
(dp1071
S'PRON'
p1072
F1.0
sS'VERB'
p1073
F0.0
s(lp1074
(g133
I17
tp1075
atp1076
a(S'acepte'
p1077
(dp1078
S'VERB'
p1079
F1.0
s(lp1080
(g141
I18
tp1081
atp1082
a(S'la'
p1083
(dp1084
g165
F0.0
sS'PRON'
p1085
F0.0
sS'DET'
p1086
F1.0
sS'NOUN'
p1087
F0.0
s(lp1088
(g109
I14
tp1089
atp1090
a(S'soluci\xc3\xb3n'
p1091
(dp1092
S'NOUN'
p1093
F1.0
s(lp1094
tp1095
a(S'de'
p1096
(dp1097
g165
F2.9e-05
sS'CONJ'
p1098
F0.000449
sS'ADP'
p1099
F0.999522
s(lp1100
tp1101
a(S'compromiso'
p1102
(dp1103
S'NOUN'
p1104
F1.0
s(lp1105
(g117
I15
tp1106
atp1107
a(S'alcanzada'
p1108
(dp1109
S'VERB'
p1110
F1.0
s(lp1111
(g148
I16
tp1112
atp1113
a(g61
(dp1114
g61
F1.0
s(lp1115
(g61
I19
tp1116
atp1117
as.