(dp0
S'fr'
p1
(lp2
(S'cela'
p3
(dp4
S'PRON'
p5
F0.999774
sS'VERB'
p6
F0.000226
s(lp7
(S'that'
p8
I0
tp9
atp10
a(S'dit'
p11
(dp12
S'ADJ'
p13
F0.001984
sS'VERB'
p14
F0.989542
sS'NOUN'
p15
F0.008473
s(lp16
(S'said'
p17
I1
tp18
atp19
a(S','
p20
(dp21
S'.'
p22
F1.0
s(lp23
(g20
I2
tp24
atp25
a(S"l'"
p26
(dp27
S'ADJ'
p28
F0.13429
sS'VERB'
p29
F0.638201
sS'NOUN'
p30
F0.227509
s(lp31
tp32
a(S'amendement'
p33
(dp34
S'NOUN'
p35
F1.0
s(lp36
(S'amendment'
p37
I3
tp38
atp39
a(S'15'
p40
(dp41
S'X'
p42
F0.004613
sS'NUM'
p43
F0.995387
s(lp44
(S'15'
p45
I4
tp46
atp47
a(g20
(dp48
g22
F1.0
s(lp49
tp50
a(S'du'
p51
(dp52
S'ADP'
p53
F1.0
s(lp54
tp55
a(S'point'
p56
(dp57
S'ADV'
p58
F0.018001
sS'VERB'
p59
F0.00077
sS'NOUN'
p60
F0.981228
s(lp61
(S'point'
p62
I11
tp63
atp64
a(S'de'
p65
(dp66
S'ADP'
p67
F1.0
s(lp68
(S'of'
p69
I12
tp70
atp71
a(S'vue'
p72
(dp73
S'VERB'
p74
F3.8e-05
sS'NOUN'
p75
F0.999962
s(lp76
(S'view'
p77
I13
tp78
atp79
a(S'de'
p80
(dp81
S'ADP'
p82
F1.0
s(lp83
(S'from'
p84
I8
tp85
atp86
a(S"l'"
p87
(dp88
S'ADJ'
p89
F0.160704
sS'VERB'
p90
F0.06480800000000002
sS'NOUN'
p91
F0.774488
s(lp92
(S'an'
p93
I9
tp94
atp95
a(S'\xc3\xa9thique'
p96
(dp97
S'NOUN'
p98
F0.425126
sS'ADJ'
p99
F0.574874
s(lp100
(S'ethical'
p101
I10
tp102
atp103
a(g20
(dp104
g22
F1.0
s(lp105
tp106
a(S'est'
p107
(dp108
S'VERB'
p109
F0.999314
sS'NOUN'
p110
F0.000686
s(lp111
(S'is'
p112
I5
tp113
atp114
a(S'totalement'
p115
(dp116
S'ADV'
p117
F1.0
s(lp118
(S'completely'
p119
I6
tp120
atp121
a(S'inacceptable'
p122
(dp123
S'ADJ'
p124
F1.0
s(lp125
(S'unacceptable'
p126
I7
tp127
atp128
a(g22
(dp129
g22
F1.0
s(lp130
(g22
I14
tp131
atp132
asS'en'
p133
(lp134
(g8
(dp135
S'ADV'
p136
F0.025842
sS'DET'
p137
F0.963859
sS'ADP'
p138
F0.010299
s(lp139
(g8
I0
tp140
atp141
a(g17
(dp142
S'ADJ'
p143
F0.000264
sS'VERB'
p144
F0.999161
sS'NOUN'
p145
F0.000575
s(lp146
(g17
I1
tp147
atp148
a(g20
(dp149
g22
F1.0
s(lp150
(g20
I2
tp151
atp152
a(g37
(dp153
S'NOUN'
p154
F1.0
s(lp155
(g37
I3
tp156
atp157
a(g45
(dp158
S'ADV'
p159
F0.003188
sS'NOUN'
p160
F0.001371
sS'NUM'
p161
F0.994043
sS'ADJ'
p162
F0.001398
sg42
F1e-06
s(lp163
(g45
I4
tp164
atp165
a(g112
(dp166
S'VERB'
p167
F1.0
s(lp168
(g112
I5
tp169
atp170
a(g119
(dp171
S'ADV'
p172
F1.0
s(lp173
(g119
I6
tp174
atp175
a(g126
(dp176
S'ADJ'
p177
F1.0
s(lp178
(g126
I7
tp179
atp180
a(g84
(dp181
S'ADP'
p182
F1.0
s(lp183
(g84
I8
tp184
atp185
a(g93
(dp186
S'DET'
p187
F1.0
s(lp188
(g93
I9
tp189
atp190
a(g101
(dp191
S'ADJ'
p192
F1.0
s(lp193
(g101
I10
tp194
atp195
a(g62
(dp196
S'VERB'
p197
F0.000592
sS'NOUN'
p198
F0.999408
s(lp199
(g62
I11
tp200
atp201
a(g69
(dp202
S'ADP'
p203
F1.0
s(lp204
(g69
I12
tp205
atp206
a(g77
(dp207
S'VERB'
p208
F0.000658
sS'NOUN'
p209
F0.999342
s(lp210
(g77
I13
tp211
atp212
a(g22
(dp213
g22
F1.0
s(lp214
(g22
I14
tp215
atp216
asS'nl'
p217
(lp218
(S'amendement'
p219
(dp220
S'NOUN'
p221
F1.0
s(lp222
(g37
I3
tp223
atp224
a(S'15'
p225
(dp226
S'NUM'
p227
F1.0
s(lp228
(g45
I4
tp229
atp230
a(S'is'
p231
(dp232
S'VERB'
p233
F1.0
s(lp234
(g112
I5
tp235
atp236
a(S'uit'
p237
(dp238
S'ADV'
p239
F0.85788
sS'VERB'
p240
F0.0
sS'ADP'
p241
F0.14212
s(lp242
(g84
I8
tp243
atp244
a(S'ethisch'
p245
(dp246
S'ADJ'
p247
F1.0
s(lp248
(g101
I10
tp249
atp250
a(S'oogpunt'
p251
(dp252
S'NOUN'
p253
F1.0
s(lp254
tp255
a(S'echter'
p256
(dp257
S'ADV'
p258
F0.999736
sS'ADJ'
p259
F0.000264
s(lp260
(g62
I11
tp261
atp262
a(S'volstrekt'
p263
(dp264
S'ADJ'
p265
F1.0
s(lp266
(g119
I6
tp267
atp268
a(S'onaanvaardbaar'
p269
(dp270
S'ADJ'
p271
F1.0
s(lp272
(g126
I7
tp273
atp274
a(g22
(dp275
g22
F1.0
s(lp276
(g22
I14
tp277
atp278
asS'de'
p279
(lp280
(S'doch'
p281
(dp282
S'ADV'
p283
F0.582609
sS'CONJ'
p284
F0.417391
s(lp285
(g8
I0
tp286
atp287
a(S'der'
p288
(dp289
S'PRON'
p290
F0.000447
sS'DET'
p291
F0.999163
s(lp292
(g69
I12
tp293
atp294
a(S'\xc3\x84nderungsantrag'
p295
(dp296
S'NOUN'
p297
F1.0
s(lp298
(g37
I3
tp299
atp300
a(S'15'
p301
(dp302
S'NUM'
p303
F1.0
s(lp304
(g45
I4
tp305
atp306
a(S'ist'
p307
(dp308
S'VERB'
p309
F1.0
s(lp310
(g112
I5
tp311
atp312
a(S'ethisch'
p313
(dp314
S'ADJ'
p315
F1.0
s(lp316
(g101
I10
tp317
atp318
a(S'v\xc3\xb6llig'
p319
(dp320
S'ADJ'
p321
F1.0
s(lp322
(g119
I6
tp323
atp324
a(S'inakzeptabel'
p325
(dp326
S'ADJ'
p327
F1.0
s(lp328
(g126
I7
tp329
atp330
a(g22
(dp331
g22
F1.0
s(lp332
(g22
I14
tp333
atp334
asS'it'
p335
(lp336
(S'ci\xc3\xb2'
p337
(dp338
S'PRON'
p339
F1.0
s(lp340
(g8
I0
tp341
atp342
a(S'premesso'
p343
(dp344
S'VERB'
p345
F0.50951
sS'ADJ'
p346
F0.49049
s(lp347
(g17
I1
tp348
atp349
a(g20
(dp350
g22
F1.0
s(lp351
(g20
I2
tp352
atp353
a(S"l'"
p354
(dp355
S'NOUN'
p356
F0.003774
sS'VERB'
p357
F0.984512
sS'ADJ'
p358
F0.011715
s(lp359
(g37
I3
tp360
atp361
a(S'emendamento'
p362
(dp363
S'NOUN'
p364
F1.0
s(lp365
(g37
I3
tp366
atp367
a(S'n'
p368
(dp369
g42
F1.0
s(lp370
tp371
a(g22
(dp372
g22
F1.0
s(lp373
(g37
I3
tp374
atp375
a(S'15'
p376
(dp377
S'NUM'
p378
F0.9847199999999999
sg22
F0.01528
s(lp379
(g45
I4
tp380
atp381
a(S'\xc3\xa8'
p382
(dp383
S'VERB'
p384
F1.0
s(lp385
(g112
I5
tp386
atp387
a(S'completamente'
p388
(dp389
S'ADV'
p390
F1.0
s(lp391
(g119
I6
tp392
atp393
a(S'inaccettabile'
p394
(dp395
S'ADJ'
p396
F1.0
s(lp397
(g126
I7
tp398
atp399
a(S'dal'
p400
(dp401
S'ADP'
p402
F1.0
s(lp403
(g84
I8
tp404
atp405
a(S'punto'
p406
(dp407
S'ADV'
p408
F0.000196
sS'ADJ'
p409
F0.000547
sS'VERB'
p410
F0.000276
sS'NOUN'
p411
F0.998981
s(lp412
(g62
I11
tp413
atp414
a(S'di'
p415
(dp416
S'CONJ'
p417
F8e-06
sS'ADP'
p418
F0.999992
s(lp419
(g69
I12
tp420
atp421
a(S'vista'
p422
(dp423
S'VERB'
p424
F0.003468
sS'NOUN'
p425
F0.996531
s(lp426
(g77
I13
tp427
atp428
a(S'etico'
p429
(dp430
S'NOUN'
p431
F0.015741
sS'ADJ'
p432
F0.984259
s(lp433
(g101
I10
tp434
atp435
a(g22
(dp436
g22
F1.0
s(lp437
(g22
I14
tp438
atp439
asS'sk'
p440
(lp441
(S'preto'
p442
(dp443
S'PRON'
p444
F0.90194
sS'CONJ'
p445
F0.072527
sg42
F0.025533
s(lp446
(g17
I1
tp447
atp448
a(S'je'
p449
(dp450
S'PRON'
p451
F1.3e-05
sS'VERB'
p452
F0.999976
sg42
F1.1000000000000001e-05
s(lp453
(g112
I5
tp454
atp455
a(S'pozme\xc5\x88uj\xc3\xbaci'
p456
(dp457
S'NOUN'
p458
F0.03662
sS'VERB'
p459
F0.9200700000000002
sS'ADJ'
p460
F0.043309
s(lp461
(g37
I3
tp462
atp463
a(S'a'
p464
(dp465
g42
F0.0010279999999999998
sS'CONJ'
p466
F0.997834
sS'NOUN'
p467
F0.00054
sS'ADP'
p468
F0.000575
sS'PRT'
p469
F2.4e-05
s(lp470
(g37
I3
tp471
atp472
a(S'dopl\xc5\x88uj\xc3\xbaci'
p473
(dp474
S'NOUN'
p475
F0.00046100000000000004
sS'VERB'
p476
F0.04275399999999999
sS'ADJ'
p477
F0.9567869999999999
s(lp478
(g37
I3
tp479
atp480
a(S'n\xc3\xa1vrh'
p481
(dp482
S'NOUN'
p483
F1.0
s(lp484
tp485
a(S'\xc4\x8d'
p486
(dp487
g42
F0.9913069999999999
sS'NOUN'
p488
F0.008690999999999999
s(lp489
(g37
I3
tp490
atp491
a(g22
(dp492
g22
F1.0
s(lp493
(g20
I2
tp494
atp495
a(S'15'
p496
(dp497
S'NUM'
p498
F1.0
s(lp499
(g45
I4
tp500
atp501
a(S'z'
p502
(dp503
g42
F0.006042
sS'NOUN'
p504
F0.000403
sS'ADP'
p505
F0.993556
s(lp506
(g84
I8
tp507
atp508
a(S'etick\xc3\xa9ho'
p509
(dp510
S'ADJ'
p511
F1.0
s(lp512
(g101
I10
tp513
atp514
a(S'h\xc4\xbeadiska'
p515
(dp516
S'NOUN'
p517
F1.0
s(lp518
(g62
I11
tp519
atp520
a(S'absol\xc3\xbatne'
p521
(dp522
S'ADV'
p523
F0.716762
sS'NOUN'
p524
F0.012698
sS'ADJ'
p525
F0.26570699999999997
sg42
F0.004833
s(lp526
(g119
I6
tp527
atp528
a(S'neprijate\xc4\xben\xc3\xbd'
p529
(dp530
S'ADJ'
p531
F1.0
s(lp532
(g126
I7
tp533
atp534
a(g22
(dp535
g22
F1.0
s(lp536
(g22
I14
tp537
atp538
asS'pl'
p539
(lp540
(S'jednak'
p541
(dp542
S'PRT'
p543
F0.076256
sS'CONJ'
p544
F0.923744
s(lp545
(g17
I1
tp546
atp547
a(S'poprawka'
p548
(dp549
S'NOUN'
p550
F1.0
s(lp551
(g37
I3
tp552
atp553
a(S'15'
p554
(dp555
S'NOUN'
p556
F0.023078
sS'NUM'
p557
F0.24973099999999998
sS'ADJ'
p558
F0.7271869999999999
s(lp559
(g45
I4
tp560
atp561
a(S'jest'
p562
(dp563
S'VERB'
p564
F1.0
s(lp565
(g112
I5
tp566
atp567
a(g502
(dp568
S'PRT'
p569
F2e-06
sS'VERB'
p570
F0.0
sS'NOUN'
p571
F2.6e-05
sS'ADP'
p572
F0.9999699999999999
sg42
F2e-06
s(lp573
(g84
I8
tp574
atp575
a(S'etycznego'
p576
(dp577
S'ADJ'
p578
F1.0
s(lp579
(g101
I10
tp580
atp581
a(S'punktu'
p582
(dp583
S'NOUN'
p584
F1.0
s(lp585
(g62
I11
tp586
atp587
a(S'widzenia'
p588
(dp589
S'VERB'
p590
F0.27197
sS'NOUN'
p591
F0.7280300000000001
s(lp592
(g77
I13
tp593
atp594
a(S'absolutnie'
p595
(dp596
S'ADV'
p597
F0.699584
sS'PRT'
p598
F0.300416
s(lp599
(g119
I6
tp600
atp601
a(S'nie'
p602
(dp603
S'ADV'
p604
F0.000292
sS'PRT'
p605
F0.972158
sS'CONJ'
p606
F0.026775
sS'NOUN'
p607
F0.000196
sS'PRON'
p608
F0.0005799999999999999
s(lp609
(g126
I7
tp610
atp611
a(S'do'
p612
(dp613
g42
F0.0
sS'NOUN'
p614
F4e-06
sS'ADP'
p615
F0.999996
s(lp616
tp617
a(S'przyj\xc4\x99cia'
p618
(dp619
S'VERB'
p620
F0.756369
sS'NOUN'
p621
F0.243631
s(lp622
(g126
I7
tp623
atp624
a(g22
(dp625
g22
F1.0
s(lp626
(g22
I14
tp627
atp628
asS'sl'
p629
(lp630
(S'pri'
p631
(dp632
S'ADP'
p633
F1.0
s(lp634
(g69
I12
tp635
atp636
a(S'tem'
p637
(dp638
S'ADV'
p639
F5.3e-05
sS'PRON'
p640
F0.99994
sS'NOUN'
p641
F7e-06
s(lp642
(g62
I11
tp643
atp644
a(S'pa'
p645
(dp646
g42
F3.8e-05
sS'CONJ'
p647
F0.999962
s(lp648
(g112
I5
tp649
atp650
a(S'moram'
p651
(dp652
S'VERB'
p653
F1.0
s(lp654
(g62
I11
tp655
atp656
a(S'povedati'
p657
(dp658
S'VERB'
p659
F1.0
s(lp660
tp661
a(g20
(dp662
g22
F1.0
s(lp663
tp664
a(S'da'
p665
(dp666
S'PRT'
p667
F4e-06
sS'CONJ'
p668
F0.999979
sS'VERB'
p669
F1.7e-05
sg42
F1e-06
s(lp670
(g8
I0
tp671
atp672
a(S'je'
p673
(dp674
S'PRON'
p675
F0.001262
sS'VERB'
p676
F0.998738
sg42
F0.0
s(lp677
(g17
I1
tp678
atp679
a(S'sprememba'
p680
(dp681
S'NOUN'
p682
F1.0
s(lp683
(g37
I3
tp684
atp685
a(S'15'
p686
(dp687
S'NUM'
p688
F1.0
s(lp689
(g45
I4
tp690
atp691
a(S'iz'
p692
(dp693
g42
F7.2e-05
sS'ADP'
p694
F0.999928
s(lp695
(g84
I8
tp696
atp697
a(S'eti\xc4\x8dnega'
p698
(dp699
S'ADV'
p700
F1e-06
sS'NOUN'
p701
F0.000198
sS'ADJ'
p702
F0.999799
s(lp703
(g101
I10
tp704
atp705
a(S'vidika'
p706
(dp707
S'NOUN'
p708
F1.0
s(lp709
(g62
I11
tp710
atp711
a(S'popolnoma'
p712
(dp713
S'ADV'
p714
F1.0
s(lp715
(g119
I6
tp716
atp717
a(S'nesprejemljiva'
p718
(dp719
S'ADV'
p720
F0.000849
sS'ADJ'
p721
F0.9991500000000001
s(lp722
(g126
I7
tp723
atp724
a(g22
(dp725
g22
F1.0
s(lp726
(g22
I14
tp727
atp728
asS'es'
p729
(lp730
(S'dicho'
p731
(dp732
S'VERB'
p733
F0.001076
sS'ADJ'
p734
F0.998924
s(lp735
(g17
I1
tp736
atp737
a(S'esto'
p738
(dp739
S'PRON'
p740
F1.0
s(lp741
(g8
I0
tp742
atp743
a(g20
(dp744
g22
F1.0
s(lp745
(g20
I2
tp746
atp747
a(S'la'
p748
(dp749
S'PRON'
p750
F0.881179
sS'DET'
p751
F0.11765
sS'NOUN'
p752
F2e-05
sg42
F0.001151
s(lp753
tp754
a(S'enmienda'
p755
(dp756
S'VERB'
p757
F1.0
s(lp758
(g37
I3
tp759
atp760
a(S'15'
p761
(dp762
g42
F0.019847
sS'NUM'
p763
F0.980153
s(lp764
(g45
I4
tp765
atp766
a(S'es'
p767
(dp768
S'VERB'
p769
F1.0
s(lp770
(g112
I5
tp771
atp772
a(S'completamente'
p773
(dp774
S'ADV'
p775
F1.0
s(lp776
(g119
I6
tp777
atp778
a(S'inaceptable'
p779
(dp780
S'ADJ'
p781
F1.0
s(lp782
(g126
I7
tp783
atp784
a(S'desde'
p785
(dp786
S'ADP'
p787
F1.0
s(lp788
(g84
I8
tp789
atp790
a(S'un'
p791
(dp792
g42
F2e-06
sS'DET'
p793
F0.999998
s(lp794
(g93
I9
tp795
atp796
a(S'punto'
p797
(dp798
S'NOUN'
p799
F1.0
s(lp800
(g62
I11
tp801
atp802
a(S'de'
p803
(dp804
g42
F2.9e-05
sS'CONJ'
p805
F0.000452
sS'ADP'
p806
F0.999519
s(lp807
(g69
I12
tp808
atp809
a(S'vista'
p810
(dp811
S'VERB'
p812
F0.000373
sS'NOUN'
p813
F0.999627
s(lp814
(g77
I13
tp815
atp816
a(S'\xc3\xa9tico'
p817
(dp818
S'NOUN'
p819
F0.008853
sS'ADJ'
p820
F0.991147
s(lp821
(g101
I10
tp822
atp823
a(g22
(dp824
g22
F1.0
s(lp825
(g22
I14
tp826
atp827
as.