(dp0
S'fr'
p1
(lp2
(S'il'
p3
(dp4
S'PRON'
p5
F1.0
s(lp6
(S'it'
p7
I0
tp8
atp9
a(S'est'
p10
(dp11
S'VERB'
p12
F0.999997
sS'NOUN'
p13
F3e-06
s(lp14
(S'is'
p15
I1
tp16
atp17
a(S'temps'
p18
(dp19
S'NOUN'
p20
F1.0
s(lp21
(S'time'
p22
I2
tp23
atp24
a(S'de'
p25
(dp26
S'ADP'
p27
F1.0
s(lp28
(S'to'
p29
I3
tp30
atp31
a(S'd\xc3\xa9passer'
p32
(dp33
S'VERB'
p34
F1.0
s(lp35
(S'move'
p36
I4
tp37
atp38
a(S'cette'
p39
(dp40
S'PRON'
p41
F1.0
s(lp42
(S'this'
p43
I7
tp44
atp45
a(S'vision'
p46
(dp47
S'NOUN'
p48
F1.0
s(lp49
(S'vision'
p50
I9
tp51
atp52
a(S'de'
p53
(dp54
S'ADP'
p55
F1.0
s(lp56
(S'of'
p57
I10
tp58
atp59
a(S"l'"
p60
(dp61
S'ADJ'
p62
F0.160704
sS'VERB'
p63
F0.06480800000000002
sS'NOUN'
p64
F0.774488
s(lp65
(S'the'
p66
I11
tp67
atp68
a(S'\xc3\xa9conomie'
p69
(dp70
S'NOUN'
p71
F1.0
s(lp72
(S'economy'
p73
I12
tp74
atp75
a(S'\xc3\xa0'
p76
(dp77
S'ADP'
p78
F1.0
s(lp79
(S'short-term'
p80
I8
tp81
atp82
a(S'court'
p83
(dp84
S'ADV'
p85
F0.135345
sS'NOUN'
p86
F0.081208
sS'VERB'
p87
F0.007589
sS'ADJ'
p88
F0.775859
s(lp89
tp90
a(S'terme'
p91
(dp92
S'NOUN'
p93
F1.0
s(lp94
(g80
I8
tp95
atp96
a(S','
p97
(dp98
S'.'
p99
F1.0
s(lp100
(g97
I13
tp101
atp102
a(S'dans'
p103
(dp104
S'NOUN'
p105
F0.009053
sS'ADP'
p106
F0.990947
s(lp107
tp108
a(S'laquelle'
p109
(dp110
S'PRON'
p111
F1.0
s(lp112
(S'where'
p113
I14
tp114
atp115
a(S"l'"
p116
(dp117
S'ADJ'
p118
F0.006544
sS'VERB'
p119
F0.9727199999999999
sS'NOUN'
p120
F0.020737
s(lp121
tp122
a(S'argent'
p123
(dp124
S'NOUN'
p125
F1.0
s(lp126
(S'money'
p127
I15
tp128
atp129
a(S'est'
p130
(dp131
S'VERB'
p132
F0.999855
sS'NOUN'
p133
F0.000145
s(lp134
(S'is'
p135
I16
tp136
atp137
a(S'roi'
p138
(dp139
S'NOUN'
p140
F1.0
s(lp141
(S'all-important'
p142
I17
tp143
atp144
a(S'et'
p145
(dp146
S'CONJ'
p147
F1.0
s(lp148
(S'and'
p149
I18
tp150
atp151
a(S"l'"
p152
(dp153
S'NOUN'
p154
F0.050387
sS'VERB'
p155
F0.8915730000000001
sS'ADJ'
p156
F0.05804
s(lp157
tp158
a(S'irresponsabilit\xc3\xa9'
p159
(dp160
S'NOUN'
p161
F1.0
s(lp162
(S'irresponsibility'
p163
I19
tp164
atp165
a(S'omnipr\xc3\xa9sente'
p166
(dp167
S'ADJ'
p168
F1.0
s(lp169
(S'everywhere'
p170
I21
tp171
atp172
a(g97
(dp173
g99
F1.0
s(lp174
(g97
I22
tp175
atp176
a(S'et'
p177
(dp178
S'CONJ'
p179
F1.0
s(lp180
(S'and'
p181
I23
tp182
atp183
a(S'qui'
p184
(dp185
S'PRON'
p186
F1.0
s(lp187
(S'which'
p188
I24
tp189
atp190
a(S'nous'
p191
(dp192
S'PRON'
p193
F1.0
s(lp194
(S'us'
p195
I26
tp196
atp197
a(S'a'
p198
(dp199
S'VERB'
p200
F1.0
s(lp201
tp202
a(S'conduits'
p203
(dp204
S'VERB'
p205
F0.982652
sS'NOUN'
p206
F0.017348
s(lp207
(S'led'
p208
I25
tp209
atp210
a(S'au'
p211
(dp212
S'ADP'
p213
F1.0
s(lp214
(S'the'
p215
I28
tp216
atp217
a(S'bord'
p218
(dp219
S'NOUN'
p220
F1.0
s(lp221
(S'edge'
p222
I29
tp223
atp224
a(S'du'
p225
(dp226
S'ADP'
p227
F1.0
s(lp228
(S'of'
p229
I30
tp230
atp231
a(S'pr\xc3\xa9cipice'
p232
(dp233
S'NOUN'
p234
F1.0
s(lp235
(S'abyss'
p236
I32
tp237
atp238
a(g97
(dp239
g99
F1.0
s(lp240
(g97
I33
tp241
atp242
a(S'afin'
p243
(dp244
S'CONJ'
p245
F1.0
s(lp246
(S'so'
p247
I34
tp248
atp249
a(S'de'
p250
(dp251
S'ADP'
p252
F1.0
s(lp253
tp254
a(S'remettre'
p255
(dp256
S'VERB'
p257
F1.0
s(lp258
(S'resume'
p259
I40
tp260
atp261
a(S'le'
p262
(dp263
S'PRON'
p264
F3.4e-05
sS'DET'
p265
F0.999966
s(lp266
(S'the'
p267
I36
tp268
atp269
a(S'syst\xc3\xa8me'
p270
(dp271
S'NOUN'
p272
F1.0
s(lp273
(S'system'
p274
I38
tp275
atp276
a(S'financier'
p277
(dp278
S'NOUN'
p279
F0.007478
sS'ADJ'
p280
F0.992522
s(lp281
(S'financial'
p282
I37
tp283
atp284
a(S'au'
p285
(dp286
S'ADP'
p287
F1.0
s(lp288
tp289
a(S'service'
p290
(dp291
S'NOUN'
p292
F1.0
s(lp293
(S'serving'
p294
I44
tp295
atp296
a(S'de'
p297
(dp298
S'ADP'
p299
F1.0
s(lp300
(S'of'
p301
I43
tp302
atp303
a(S"l'"
p304
(dp305
S'ADJ'
p306
F0.160704
sS'VERB'
p307
F0.06480800000000002
sS'NOUN'
p308
F0.774488
s(lp309
(S'the'
p310
I45
tp311
atp312
a(S'\xc3\xa9conomie'
p313
(dp314
S'NOUN'
p315
F1.0
s(lp316
(S'economy'
p317
I47
tp318
atp319
a(S'r\xc3\xa9elle'
p320
(dp321
S'ADJ'
p322
F1.0
s(lp323
(S'real'
p324
I46
tp325
atp326
a(S'et'
p327
(dp328
S'CONJ'
p329
F1.0
s(lp330
(S'and'
p331
I48
tp332
atp333
a(S'de'
p334
(dp335
S'ADP'
p336
F1.0
s(lp337
tp338
a(S"l'"
p339
(dp340
S'ADJ'
p341
F0.160704
sS'VERB'
p342
F0.06480800000000002
sS'NOUN'
p343
F0.774488
s(lp344
(S'the'
p345
I49
tp346
atp347
a(S'humain'
p348
(dp349
S'NOUN'
p350
F0.033498
sS'ADJ'
p351
F0.966502
s(lp352
(S'people'
p353
I50
tp354
atp355
a(g99
(dp356
g99
F1.0
s(lp357
(g99
I51
tp358
atp359
asS'en'
p360
(lp361
(g7
(dp362
S'PRON'
p363
F1.0
s(lp364
(g7
I0
tp365
atp366
a(g15
(dp367
S'VERB'
p368
F1.0
s(lp369
(g15
I1
tp370
atp371
a(g22
(dp372
S'VERB'
p373
F0.001377
sS'NOUN'
p374
F0.998623
s(lp375
(g22
I2
tp376
atp377
a(g29
(dp378
S'ADV'
p379
F0.0
sS'PRT'
p380
F1.0
sS'ADP'
p381
F0.0
s(lp382
(g29
I3
tp383
atp384
a(g36
(dp385
S'VERB'
p386
F0.970658
sS'NOUN'
p387
F0.029342
s(lp388
(g36
I4
tp389
atp390
a(S'on'
p391
(dp392
S'ADV'
p393
F0.033716
sS'PRT'
p394
F0.514112
sS'ADJ'
p395
F1.9e-05
sS'NOUN'
p396
F2.4e-05
sS'ADP'
p397
F0.452129
s(lp398
(g391
I5
tp399
atp400
a(S'from'
p401
(dp402
S'ADP'
p403
F1.0
s(lp404
(g401
I6
tp405
atp406
a(g43
(dp407
S'ADV'
p408
F2.9e-05
sS'NOUN'
p409
F4e-06
sS'DET'
p410
F0.999967
s(lp411
(g43
I7
tp412
atp413
a(g80
(dp414
S'NOUN'
p415
F0.005625
sS'ADJ'
p416
F0.994375
s(lp417
(g80
I8
tp418
atp419
a(g50
(dp420
S'VERB'
p421
F4.4e-05
sS'NOUN'
p422
F0.999956
s(lp423
(g50
I9
tp424
atp425
a(g57
(dp426
S'ADP'
p427
F1.0
s(lp428
(g57
I10
tp429
atp430
a(g66
(dp431
S'NOUN'
p432
F1e-06
sS'DET'
p433
F0.999999
s(lp434
(g66
I11
tp435
atp436
a(g73
(dp437
S'NOUN'
p438
F1.0
s(lp439
(g73
I12
tp440
atp441
a(g97
(dp442
g99
F1.0
s(lp443
(g97
I13
tp444
atp445
a(g113
(dp446
S'ADV'
p447
F0.999755
sS'ADP'
p448
F0.000245
s(lp449
(g113
I14
tp450
atp451
a(g127
(dp452
S'NOUN'
p453
F1.0
s(lp454
(g127
I15
tp455
atp456
a(g135
(dp457
S'VERB'
p458
F1.0
s(lp459
(g135
I16
tp460
atp461
a(g142
(dp462
S'ADJ'
p463
F1.0
s(lp464
(g142
I17
tp465
atp466
a(g149
(dp467
S'CONJ'
p468
F0.999969
sS'NOUN'
p469
F3.1e-05
s(lp470
(g149
I18
tp471
atp472
a(g163
(dp473
S'NOUN'
p474
F1.0
s(lp475
(g163
I19
tp476
atp477
a(S'is'
p478
(dp479
S'VERB'
p480
F1.0
s(lp481
(g478
I20
tp482
atp483
a(g170
(dp484
S'ADV'
p485
F1.0
s(lp486
(g170
I21
tp487
atp488
a(g97
(dp489
g99
F1.0
s(lp490
(g97
I22
tp491
atp492
a(g181
(dp493
S'CONJ'
p494
F0.999941
sS'NOUN'
p495
F5.9e-05
s(lp496
(g181
I23
tp497
atp498
a(g188
(dp499
S'DET'
p500
F1.0
s(lp501
(g188
I24
tp502
atp503
a(g208
(dp504
S'VERB'
p505
F1.0
s(lp506
(g208
I25
tp507
atp508
a(g195
(dp509
S'PRON'
p510
F1.0
s(lp511
(g195
I26
tp512
atp513
a(S'to'
p514
(dp515
S'ADV'
p516
F3.5e-05
sS'PRT'
p517
F0.999961
sS'ADP'
p518
F3e-06
s(lp519
(g514
I27
tp520
atp521
a(g215
(dp522
S'NOUN'
p523
F2e-06
sS'DET'
p524
F0.999998
s(lp525
(g215
I28
tp526
atp527
a(g222
(dp528
S'VERB'
p529
F0.00031499999999999996
sS'NOUN'
p530
F0.999685
s(lp531
(g222
I29
tp532
atp533
a(g229
(dp534
S'ADP'
p535
F1.0
s(lp536
(g229
I30
tp537
atp538
a(S'the'
p539
(dp540
S'NOUN'
p541
F1e-06
sS'DET'
p542
F0.999999
s(lp543
(g539
I31
tp544
atp545
a(g236
(dp546
S'NOUN'
p547
F1.0
s(lp548
(g236
I32
tp549
atp550
a(g97
(dp551
g99
F1.0
s(lp552
(g97
I33
tp553
atp554
a(g247
(dp555
S'ADV'
p556
F0.532385
sS'NOUN'
p557
F0.000291
sS'CONJ'
p558
F0.065123
sS'ADJ'
p559
F0.000349
sS'ADP'
p560
F0.401852
s(lp561
(g247
I34
tp562
atp563
a(S'that'
p564
(dp565
S'ADV'
p566
F0.042781
sS'DET'
p567
F0.138593
sS'ADP'
p568
F0.818627
s(lp569
(g564
I35
tp570
atp571
a(g267
(dp572
S'NOUN'
p573
F4e-06
sS'DET'
p574
F0.999996
s(lp575
(g267
I36
tp576
atp577
a(g282
(dp578
S'ADJ'
p579
F1.0
s(lp580
(g282
I37
tp581
atp582
a(g274
(dp583
S'NOUN'
p584
F1.0
s(lp585
(g274
I38
tp586
atp587
a(S'can'
p588
(dp589
S'VERB'
p590
F0.999993
sS'NOUN'
p591
F7e-06
s(lp592
(g588
I39
tp593
atp594
a(g259
(dp595
S'VERB'
p596
F1.0
sS'NOUN'
p597
F0.0
s(lp598
(g259
I40
tp599
atp600
a(S'its'
p601
(dp602
S'PRON'
p603
F1.0
s(lp604
(g601
I41
tp605
atp606
a(S'role'
p607
(dp608
S'NOUN'
p609
F1.0
s(lp610
(g607
I42
tp611
atp612
a(g301
(dp613
S'ADP'
p614
F1.0
s(lp615
(g301
I43
tp616
atp617
a(g294
(dp618
S'VERB'
p619
F0.99977
sS'NOUN'
p620
F0.00023
s(lp621
(g294
I44
tp622
atp623
a(g310
(dp624
S'NOUN'
p625
F0.0
sS'DET'
p626
F1.0
s(lp627
(g310
I45
tp628
atp629
a(g324
(dp630
S'ADV'
p631
F8.9e-05
sS'NOUN'
p632
F0.001765
sS'ADJ'
p633
F0.998146
s(lp634
(g324
I46
tp635
atp636
a(g317
(dp637
S'NOUN'
p638
F1.0
s(lp639
(g317
I47
tp640
atp641
a(g331
(dp642
S'CONJ'
p643
F1.0
sS'NOUN'
p644
F0.0
s(lp645
(g331
I48
tp646
atp647
a(g345
(dp648
S'NOUN'
p649
F1.3e-05
sS'DET'
p650
F0.999987
s(lp651
(g345
I49
tp652
atp653
a(g353
(dp654
S'VERB'
p655
F1e-06
sS'NOUN'
p656
F0.999998
s(lp657
(g353
I50
tp658
atp659
a(g99
(dp660
g99
F1.0
s(lp661
(g99
I51
tp662
atp663
asS'nl'
p664
(lp665
(S'het'
p666
(dp667
S'PRON'
p668
F0.962086
sS'DET'
p669
F0.037914
s(lp670
(g7
I0
tp671
atp672
a(S'is'
p673
(dp674
S'VERB'
p675
F1.0
s(lp676
(g15
I1
tp677
atp678
a(S'tijd'
p679
(dp680
S'NOUN'
p681
F1.0
s(lp682
(g22
I2
tp683
atp684
a(S'dat'
p685
(dp686
S'PRON'
p687
F0.052538
sS'CONJ'
p688
F0.947462
s(lp689
(g29
I3
tp690
atp691
a(S'wij'
p692
(dp693
S'PRON'
p694
F1.0
s(lp695
tp696
a(S'afstappen'
p697
(dp698
S'VERB'
p699
F0.881977
sS'NOUN'
p700
F0.118024
s(lp701
(g36
I4
tp702
atp703
a(S'van'
p704
(dp705
S'ADP'
p706
F1.0
s(lp707
(g401
I6
tp708
atp709
a(S'deze'
p710
(dp711
S'PRON'
p712
F1.0
s(lp713
(g43
I7
tp714
atp715
a(S'kortetermijneconomie'
p716
(dp717
S'NOUN'
p718
F1.0
s(lp719
(g80
I8
tp720
atp721
a(S'waarin'
p722
(dp723
S'ADV'
p724
F1.0
s(lp725
(g113
I14
tp726
atp727
a(S'geld'
p728
(dp729
S'VERB'
p730
F0.030315
sS'NOUN'
p731
F0.969685
s(lp732
(g127
I15
tp733
atp734
a(S'de'
p735
(dp736
S'DET'
p737
F1.0
s(lp738
(g66
I11
tp739
atp740
a(S'hoofdrol'
p741
(dp742
S'NOUN'
p743
F1.0
s(lp744
(g142
I17
tp745
atp746
a(S'speelt'
p747
(dp748
S'VERB'
p749
F1.0
s(lp750
(g142
I17
tp751
atp752
a(S'en'
p753
(dp754
S'CONJ'
p755
F1.0
s(lp756
(g149
I18
tp757
atp758
a(S'onverantwoordelijkheid'
p759
(dp760
S'NOUN'
p761
F0.160117
sS'ADJ'
p762
F0.839883
s(lp763
(g163
I19
tp764
atp765
a(S'hoogtij'
p766
(dp767
S'NOUN'
p768
F1.0
s(lp769
tp770
a(S'viert'
p771
(dp772
S'VERB'
p773
F1.0
s(lp774
(g142
I17
tp775
atp776
a(S'en'
p777
(dp778
S'CONJ'
p779
F1.0
s(lp780
(g181
I23
tp781
atp782
a(S'die'
p783
(dp784
S'PRON'
p785
F1.000001
s(lp786
(g188
I24
tp787
atp788
a(S'ons'
p789
(dp790
S'PRON'
p791
F0.999605
sS'NOUN'
p792
F0.000395
s(lp793
(g195
I26
tp794
atp795
a(S'naar'
p796
(dp797
S'CONJ'
p798
F0.001129
sS'ADJ'
p799
F2e-06
sS'ADP'
p800
F0.998869
s(lp801
(g514
I27
tp802
atp803
a(S'de'
p804
(dp805
S'DET'
p806
F1.0
s(lp807
(g215
I28
tp808
atp809
a(S'rand'
p810
(dp811
S'NOUN'
p812
F1.0
s(lp813
(g222
I29
tp814
atp815
a(S'van'
p816
(dp817
S'ADP'
p818
F1.0
s(lp819
(g229
I30
tp820
atp821
a(S'de'
p822
(dp823
S'DET'
p824
F1.0
s(lp825
(g539
I31
tp826
atp827
a(S'afgrond'
p828
(dp829
S'NOUN'
p830
F1.0
s(lp831
(g236
I32
tp832
atp833
a(S'heeft'
p834
(dp835
S'VERB'
p836
F1.0
s(lp837
tp838
a(S'geleid'
p839
(dp840
S'VERB'
p841
F0.9982899999999999
sS'ADJ'
p842
F0.001709
s(lp843
(g208
I25
tp844
atp845
a(g97
(dp846
g99
F1.0
s(lp847
(g97
I33
tp848
atp849
a(S'zodat'
p850
(dp851
S'CONJ'
p852
F1.0
s(lp853
(g247
I34
tp854
atp855
a(S'het'
p856
(dp857
S'PRON'
p858
F0.08971
sS'DET'
p859
F0.91029
s(lp860
(g267
I36
tp861
atp862
a(S'financi\xc3\xable'
p863
(dp864
S'NOUN'
p865
F0.005743
sS'ADJ'
p866
F0.994257
s(lp867
(g282
I37
tp868
atp869
a(S'stelsel'
p870
(dp871
S'NOUN'
p872
F1.0
s(lp873
(g274
I38
tp874
atp875
a(S'opnieuw'
p876
(dp877
S'ADV'
p878
F1.0
s(lp879
(g259
I40
tp880
atp881
a(S'in'
p882
(dp883
S'ADV'
p884
F0.006375
sS'VERB'
p885
F1e-06
sS'ADP'
p886
F0.993624
s(lp887
(g301
I43
tp888
atp889
a(S'dienst'
p890
(dp891
S'NOUN'
p892
F1.0
s(lp893
(g294
I44
tp894
atp895
a(S'wordt'
p896
(dp897
S'VERB'
p898
F1.0
s(lp899
tp900
a(S'gesteld'
p901
(dp902
S'VERB'
p903
F0.999977
sS'ADJ'
p904
F2.3e-05
s(lp905
tp906
a(S'van'
p907
(dp908
S'ADP'
p909
F1.0
s(lp910
(g294
I44
tp911
atp912
a(S'de'
p913
(dp914
S'DET'
p915
F1.0
s(lp916
(g310
I45
tp917
atp918
a(S're\xc3\xable'
p919
(dp920
S'NOUN'
p921
F0.006177
sS'ADJ'
p922
F0.993823
s(lp923
(g324
I46
tp924
atp925
a(S'economie'
p926
(dp927
S'NOUN'
p928
F1.0
s(lp929
(g317
I47
tp930
atp931
a(S'en'
p932
(dp933
S'CONJ'
p934
F1.0
s(lp935
(g331
I48
tp936
atp937
a(S'van'
p938
(dp939
S'ADP'
p940
F1.0
s(lp941
tp942
a(S'de'
p943
(dp944
S'DET'
p945
F1.0
s(lp946
(g345
I49
tp947
atp948
a(S'burgers'
p949
(dp950
S'NOUN'
p951
F1.0
s(lp952
(g353
I50
tp953
atp954
a(g99
(dp955
g99
F1.0
s(lp956
(g99
I51
tp957
atp958
asS'de'
p959
(lp960
(S'es'
p961
(dp962
S'PRON'
p963
F1.0
s(lp964
(g7
I0
tp965
atp966
a(S'ist'
p967
(dp968
S'VERB'
p969
F1.0
s(lp970
(g15
I1
tp971
atp972
a(S'an'
p973
(dp974
S'ADV'
p975
F0.002627
sS'ADP'
p976
F0.997371
s(lp977
tp978
a(S'der'
p979
(dp980
S'PRON'
p981
F0.002179
sS'DET'
p982
F0.996306
s(lp983
tp984
a(S'zeit'
p985
(dp986
S'ADP'
p987
F1.0
s(lp988
(g22
I2
tp989
atp990
a(g97
(dp991
g99
F1.0
s(lp992
tp993
a(S'diese'
p994
(dp995
S'PRON'
p996
F1.0
s(lp997
(g43
I7
tp998
atp999
a(S'kurzfristige'
p1000
(dp1001
S'ADJ'
p1002
F1.0
s(lp1003
(g80
I8
tp1004
atp1005
a(S'sicht'
p1006
(dp1007
S'VERB'
p1008
F3.9e-05
sS'NOUN'
p1009
F0.999944
s(lp1010
(g50
I9
tp1011
atp1012
a(S'der'
p1013
(dp1014
S'PRON'
p1015
F2e-05
sS'DET'
p1016
F0.999972
s(lp1017
(g66
I11
tp1018
atp1019
a(S'wirtschaft'
p1020
(dp1021
S'ADJ'
p1022
F0.000133
sS'NOUN'
p1023
F0.999757
s(lp1024
(g73
I12
tp1025
atp1026
a(S'hinter'
p1027
(dp1028
S'PRT'
p1029
F0.005679
sS'ADP'
p1030
F0.994029
s(lp1031
(g36
I4
tp1032
atp1033
a(S'sich'
p1034
(dp1035
S'PRON'
p1036
F1.0
s(lp1037
tp1038
a(S'zu'
p1039
(dp1040
S'ADV'
p1041
F0.043379
sS'PRT'
p1042
F0.938498
s(lp1043
(g29
I3
tp1044
atp1045
a(S'lassen'
p1046
(dp1047
S'VERB'
p1048
F0.977957
sS'ADJ'
p1049
F0.014672
s(lp1050
(g36
I4
tp1051
atp1052
a(g97
(dp1053
g99
F1.0
s(lp1054
(g97
I13
tp1055
atp1056
a(S'bei'
p1057
(dp1058
S'PRT'
p1059
F1.6e-05
sS'ADP'
p1060
F0.999984
s(lp1061
(g113
I14
tp1062
atp1063
a(S'der'
p1064
(dp1065
S'PRON'
p1066
F1.6e-05
sS'DET'
p1067
F0.999979
s(lp1068
tp1069
a(S'geld'
p1070
(dp1071
S'ADJ'
p1072
F9.4e-05
sS'NOUN'
p1073
F0.999847
s(lp1074
tp1075
a(S'das'
p1076
(dp1077
S'PRON'
p1078
F0.008062
sS'DET'
p1079
F0.991915
s(lp1080
(g127
I15
tp1081
atp1082
a(S'allerwichtigste'
p1083
(dp1084
S'ADJ'
p1085
F1.0
s(lp1086
(g142
I17
tp1087
atp1088
a(S'ist'
p1089
(dp1090
S'VERB'
p1091
F1.0
s(lp1092
(g135
I16
tp1093
atp1094
a(S'und'
p1095
(dp1096
S'CONJ'
p1097
F1.0
s(lp1098
(g149
I18
tp1099
atp1100
a(S'es'
p1101
(dp1102
S'PRON'
p1103
F1.0
s(lp1104
(g478
I20
tp1105
atp1106
a(S'\xc3\xbcberall'
p1107
(dp1108
S'ADV'
p1109
F1.0
s(lp1110
(g170
I21
tp1111
atp1112
a(S'verantwortungslosigkeit'
p1113
(dp1114
S'ADJ'
p1115
F0.019888
sS'NOUN'
p1116
F0.97964
s(lp1117
(g163
I19
tp1118
atp1119
a(S'gibt'
p1120
(dp1121
S'VERB'
p1122
F1.0
s(lp1123
(g97
I22
tp1124
atp1125
a(S'und'
p1126
(dp1127
S'CONJ'
p1128
F1.0
s(lp1129
(g181
I23
tp1130
atp1131
a(S'die'
p1132
(dp1133
S'PRON'
p1134
F0.904803
s(lp1135
(g188
I24
tp1136
atp1137
a(S'uns'
p1138
(dp1139
S'PRON'
p1140
F1.0
s(lp1141
(g195
I26
tp1142
atp1143
a(S'an'
p1144
(dp1145
S'ADP'
p1146
F0.995249
s(lp1147
(g514
I27
tp1148
atp1149
a(S'den'
p1150
(dp1151
S'PRON'
p1152
F0.002963
sS'DET'
p1153
F0.997004
s(lp1154
(g215
I28
tp1155
atp1156
a(S'rand'
p1157
(dp1158
S'ADJ'
p1159
F0.28244
sS'NOUN'
p1160
F0.623579
s(lp1161
(g222
I29
tp1162
atp1163
a(S'des'
p1164
(dp1165
S'DET'
p1166
F1.0
s(lp1167
(g229
I30
tp1168
atp1169
a(S'abgrunds'
p1170
(dp1171
S'ADJ'
p1172
F0.03766
sS'NOUN'
p1173
F0.946025
s(lp1174
(g236
I32
tp1175
atp1176
a(S'gef\xc3\xbchrt'
p1177
(dp1178
S'VERB'
p1179
F0.998565
sS'ADJ'
p1180
F0.001435
s(lp1181
tp1182
a(S'hat'
p1183
(dp1184
S'VERB'
p1185
F1.0
s(lp1186
(g208
I25
tp1187
atp1188
a(g97
(dp1189
g99
F1.0
s(lp1190
(g97
I33
tp1191
atp1192
a(S'damit'
p1193
(dp1194
S'ADV'
p1195
F0.065242
sS'CONJ'
p1196
F0.934758
s(lp1197
(g247
I34
tp1198
atp1199
a(S'das'
p1200
(dp1201
S'PRON'
p1202
F0.062372
sS'DET'
p1203
F0.937267
s(lp1204
(g267
I36
tp1205
atp1206
a(S'finanzsystem'
p1207
(dp1208
S'ADJ'
p1209
F0.037253
sS'NOUN'
p1210
F0.915133
s(lp1211
(g282
I37
tp1212
atp1213
a(S'seine'
p1214
(dp1215
S'PRON'
p1216
F1.0
s(lp1217
(g601
I41
tp1218
atp1219
a(S'rolle'
p1220
(dp1221
S'VERB'
p1222
F1.0
s(lp1223
(g607
I42
tp1224
atp1225
a(g97
(dp1226
g99
F1.0
s(lp1227
tp1228
a(S'n\xc3\xa4mlich'
p1229
(dp1230
S'ADV'
p1231
F1.0
s(lp1232
(g294
I44
tp1233
atp1234
a(S'der'
p1235
(dp1236
S'PRON'
p1237
F5.4e-05
sS'DET'
p1238
F0.999945
s(lp1239
(g310
I45
tp1240
atp1241
a(S'realwirtschaft'
p1242
(dp1243
S'ADJ'
p1244
F0.002341
sS'NOUN'
p1245
F0.997528
s(lp1246
(g324
I46
tp1247
atp1248
a(S'und'
p1249
(dp1250
S'CONJ'
p1251
F1.0
s(lp1252
(g331
I48
tp1253
atp1254
a(S'den'
p1255
(dp1256
S'PRON'
p1257
F0.006411
sS'DET'
p1258
F0.993407
s(lp1259
(g345
I49
tp1260
atp1261
a(S'menschen'
p1262
(dp1263
S'ADJ'
p1264
F1.0
s(lp1265
(g353
I50
tp1266
atp1267
a(S'zu'
p1268
(dp1269
S'ADV'
p1270
F0.000403
sS'PRT'
p1271
F0.99919
s(lp1272
tp1273
a(S'dienen'
p1274
(dp1275
S'VERB'
p1276
F1.0
s(lp1277
(g294
I44
tp1278
atp1279
a(g97
(dp1280
g99
F1.0
s(lp1281
tp1282
a(S'wieder'
p1283
(dp1284
S'ADV'
p1285
F0.999968
sS'PRT'
p1286
F3.2e-05
s(lp1287
tp1288
a(S'aufnehmen'
p1289
(dp1290
S'VERB'
p1291
F1.0
s(lp1292
(g259
I40
tp1293
atp1294
a(S'kann'
p1295
(dp1296
S'VERB'
p1297
F1.0
s(lp1298
(g588
I39
tp1299
atp1300
a(g99
(dp1301
g99
F1.0
s(lp1302
(g99
I51
tp1303
atp1304
asS'it'
p1305
(lp1306
(S'\xc3\x88'
p1307
(dp1308
S'VERB'
p1309
F1.0
s(lp1310
(g15
I1
tp1311
atp1312
a(S'giunto'
p1313
(dp1314
S'NOUN'
p1315
F0.000826
sS'VERB'
p1316
F0.990963
sS'ADJ'
p1317
F0.008211
s(lp1318
(g22
I2
tp1319
atp1320
a(S'il'
p1321
(dp1322
S'DET'
p1323
F1.0
s(lp1324
tp1325
a(S'momento'
p1326
(dp1327
S'NOUN'
p1328
F1.0
s(lp1329
(g22
I2
tp1330
atp1331
a(S'di'
p1332
(dp1333
S'CONJ'
p1334
F6e-06
sS'ADP'
p1335
F0.999994
s(lp1336
(g29
I3
tp1337
atp1338
a(S'abbandonare'
p1339
(dp1340
S'VERB'
p1341
F1.0
s(lp1342
(g36
I4
tp1343
atp1344
a(S'questa'
p1345
(dp1346
S'PRON'
p1347
F1.0
s(lp1348
(g43
I7
tp1349
atp1350
a(S'visione'
p1351
(dp1352
S'NOUN'
p1353
F1.0
s(lp1354
(g50
I9
tp1355
atp1356
a(g198
(dp1357
S'CONJ'
p1358
F0.000898
sS'ADP'
p1359
F0.999102
s(lp1360
(g80
I8
tp1361
atp1362
a(S'breve'
p1363
(dp1364
S'NOUN'
p1365
F0.031367
sS'ADJ'
p1366
F0.968633
s(lp1367
tp1368
a(S'termine'
p1369
(dp1370
S'NOUN'
p1371
F1.0
s(lp1372
(g80
I8
tp1373
atp1374
a(S"dell'"
p1375
(dp1376
S'ADJ'
p1377
F0.040682
sS'VERB'
p1378
F0.006560999999999999
sS'NOUN'
p1379
F0.952757
s(lp1380
(g57
I10
tp1381
atp1382
a(S'economia'
p1383
(dp1384
S'NOUN'
p1385
F1.0
s(lp1386
(g73
I12
tp1387
atp1388
a(g97
(dp1389
g99
F1.0
s(lp1390
(g97
I13
tp1391
atp1392
a(S'in'
p1393
(dp1394
S'ADP'
p1395
F1.0
s(lp1396
tp1397
a(S'cui'
p1398
(dp1399
S'PRON'
p1400
F1.0
s(lp1401
(g113
I14
tp1402
atp1403
a(S'il'
p1404
(dp1405
S'DET'
p1406
F1.0
s(lp1407
tp1408
a(S'denaro'
p1409
(dp1410
S'NOUN'
p1411
F1.0
s(lp1412
(g127
I15
tp1413
atp1414
a(S'conta'
p1415
(dp1416
S'VERB'
p1417
F0.83417
sS'NOUN'
p1418
F0.165829
s(lp1419
(g142
I17
tp1420
atp1421
a(S'pi\xc3\xb9'
p1422
(dp1423
S'ADV'
p1424
F0.993215
sS'NOUN'
p1425
F2.5e-05
sS'ADJ'
p1426
F0.006742
sS'ADP'
p1427
F1.8e-05
s(lp1428
tp1429
a(S'di'
p1430
(dp1431
S'CONJ'
p1432
F1.5e-05
sS'ADP'
p1433
F0.999985
s(lp1434
tp1435
a(S'qualsiasi'
p1436
(dp1437
S'PRON'
p1438
F0.26945
sS'ADJ'
p1439
F0.73055
s(lp1440
(g142
I17
tp1441
atp1442
a(S'altra'
p1443
(dp1444
S'PRON'
p1445
F0.675607
sS'ADJ'
p1446
F0.324393
s(lp1447
(g163
I19
tp1448
atp1449
a(S'cosa'
p1450
(dp1451
S'NOUN'
p1452
F1.0
s(lp1453
(g163
I19
tp1454
atp1455
a(S'e'
p1456
(dp1457
S'CONJ'
p1458
F1.0
s(lp1459
(g149
I18
tp1460
atp1461
a(S"l'"
p1462
(dp1463
S'NOUN'
p1464
F0.000589
sS'VERB'
p1465
F0.9933339999999999
sS'ADJ'
p1466
F0.006076
s(lp1467
tp1468
a(S'irresponsabilit\xc3\xa0'
p1469
(dp1470
S'NOUN'
p1471
F1.0
s(lp1472
(g163
I19
tp1473
atp1474
a(S'regna'
p1475
(dp1476
S'VERB'
p1477
F1.0
s(lp1478
tp1479
a(S'sovrana'
p1480
(dp1481
S'NOUN'
p1482
F0.121698
sS'ADJ'
p1483
F0.878302
s(lp1484
(g170
I21
tp1485
atp1486
a(g1456
(dp1487
S'CONJ'
p1488
F1.0
s(lp1489
(g181
I23
tp1490
atp1491
a(S'che'
p1492
(dp1493
S'PRON'
p1494
F0.987875
sS'CONJ'
p1495
F0.01211
sS'ADJ'
p1496
F1.5e-05
s(lp1497
(g188
I24
tp1498
atp1499
a(S'ci'
p1500
(dp1501
S'ADV'
p1502
F0.000334
sS'PRON'
p1503
F0.9996619999999999
sS'NOUN'
p1504
F4e-06
s(lp1505
(g195
I26
tp1506
atp1507
a(S'ha'
p1508
(dp1509
S'VERB'
p1510
F1.0
s(lp1511
tp1512
a(S'portato'
p1513
(dp1514
S'NOUN'
p1515
F0.000916
sS'VERB'
p1516
F0.996295
sS'ADJ'
p1517
F0.002788
s(lp1518
(g208
I25
tp1519
atp1520
a(S'fino'
p1521
(dp1522
S'CONJ'
p1523
F0.005851
sS'ADJ'
p1524
F0.000821
sS'ADP'
p1525
F0.993328
s(lp1526
(g514
I27
tp1527
atp1528
a(S"sull'"
p1529
(dp1530
S'ADJ'
p1531
F0.00173
sS'VERB'
p1532
F0.013174999999999997
sS'NOUN'
p1533
F0.985096
s(lp1534
tp1535
a(S'orlo'
p1536
(dp1537
S'VERB'
p1538
F0.062702
sS'NOUN'
p1539
F0.937298
s(lp1540
(g222
I29
tp1541
atp1542
a(S'del'
p1543
(dp1544
S'DEF'
p1545
F0.00433
sS'ADP'
p1546
F0.99567
s(lp1547
(g229
I30
tp1548
atp1549
a(S'baratro'
p1550
(dp1551
S'NOUN'
p1552
F1.0
s(lp1553
(g236
I32
tp1554
atp1555
a(S';'
p1556
(dp1557
g99
F1.0
s(lp1558
(g97
I33
tp1559
atp1560
a(S'affinch\xc3\xa9'
p1561
(dp1562
S'CONJ'
p1563
F1.0
s(lp1564
(g247
I34
tp1565
atp1566
a(S'il'
p1567
(dp1568
S'DET'
p1569
F1.0
s(lp1570
(g267
I36
tp1571
atp1572
a(S'sistema'
p1573
(dp1574
S'VERB'
p1575
F6.9e-05
sS'NOUN'
p1576
F0.99993
s(lp1577
(g274
I38
tp1578
atp1579
a(S'finanziario'
p1580
(dp1581
S'ADJ'
p1582
F1.0
s(lp1583
(g282
I37
tp1584
atp1585
a(S'possa'
p1586
(dp1587
S'VERB'
p1588
F0.999927
sS'NOUN'
p1589
F7.3e-05
s(lp1590
(g588
I39
tp1591
atp1592
a(S'ritrovare'
p1593
(dp1594
S'VERB'
p1595
F1.0
s(lp1596
(g259
I40
tp1597
atp1598
a(S'il'
p1599
(dp1600
S'DET'
p1601
F1.0
s(lp1602
tp1603
a(S'suo'
p1604
(dp1605
S'PRON'
p1606
F1.0
s(lp1607
(g601
I41
tp1608
atp1609
a(S'ruolo'
p1610
(dp1611
S'NOUN'
p1612
F1.0
s(lp1613
tp1614
a(S'che'
p1615
(dp1616
S'PRON'
p1617
F0.960049
sS'CONJ'
p1618
F0.0391
sS'ADJ'
p1619
F0.000851
s(lp1620
tp1621
a(S'\xc3\xa8'
p1622
(dp1623
S'VERB'
p1624
F1.0
s(lp1625
tp1626
a(S'quello'
p1627
(dp1628
S'PRON'
p1629
F1.0
s(lp1630
(g607
I42
tp1631
atp1632
a(S'di'
p1633
(dp1634
S'CONJ'
p1635
F1e-06
sS'ADP'
p1636
F0.999999
s(lp1637
(g301
I43
tp1638
atp1639
a(S'servire'
p1640
(dp1641
S'VERB'
p1642
F1.0
s(lp1643
(g294
I44
tp1644
atp1645
a(S"l'"
p1646
(dp1647
S'NOUN'
p1648
F0.012178
sS'VERB'
p1649
F0.890187
sS'ADJ'
p1650
F0.097635
s(lp1651
(g310
I45
tp1652
atp1653
a(S'economia'
p1654
(dp1655
S'NOUN'
p1656
F1.0
s(lp1657
(g317
I47
tp1658
atp1659
a(S'reale'
p1660
(dp1661
S'NOUN'
p1662
F0.014816
sS'ADJ'
p1663
F0.985184
s(lp1664
(g324
I46
tp1665
atp1666
a(g1456
(dp1667
S'CONJ'
p1668
F1.0
s(lp1669
(g331
I48
tp1670
atp1671
a(S'i'
p1672
(dp1673
S'DET'
p1674
F1.0
s(lp1675
(g345
I49
tp1676
atp1677
a(S'cittadini'
p1678
(dp1679
S'ADJ'
p1680
F0.141083
sS'NOUN'
p1681
F0.858917
s(lp1682
(g353
I50
tp1683
atp1684
a(g99
(dp1685
g99
F1.0
s(lp1686
(g99
I51
tp1687
atp1688
asS'sk'
p1689
(lp1690
(S'je'
p1691
(dp1692
S'X'
p1693
F0.000121
sS'VERB'
p1694
F0.999833
sS'PRON'
p1695
F4.7e-05
s(lp1696
(g15
I1
tp1697
atp1698
a(S'najvy\xc5\xa1\xc5\xa1\xc3\xad'
p1699
(dp1700
S'ADJ'
p1701
F1.0
s(lp1702
tp1703
a(S'\xc4\x8das'
p1704
(dp1705
S'VERB'
p1706
F0.0
sS'NOUN'
p1707
F1.0
s(lp1708
(g22
I2
tp1709
atp1710
a(S'odp\xc3\xbata\xc5\xa5'
p1711
(dp1712
S'VERB'
p1713
F1.0
s(lp1714
tp1715
a(S'sa'
p1716
(dp1717
S'PRT'
p1718
F0.9998
sS'ADP'
p1719
F0.0
sg1693
F0.0002
s(lp1720
(g36
I4
tp1721
atp1722
a(S'od'
p1723
(dp1724
g1693
F4.9e-05
sS'ADP'
p1725
F0.999951
s(lp1726
(g401
I6
tp1727
atp1728
a(S'tejto'
p1729
(dp1730
S'PRON'
p1731
F1.0
s(lp1732
(g43
I7
tp1733
atp1734
a(S'kr\xc3\xa1tkodobej'
p1735
(dp1736
S'ADJ'
p1737
F1.0
s(lp1738
(g80
I8
tp1739
atp1740
a(S'v\xc3\xadzie'
p1741
(dp1742
S'NOUN'
p1743
F1.0
s(lp1744
(g50
I9
tp1745
atp1746
a(S'hospod\xc3\xa1rstva'
p1747
(dp1748
S'NOUN'
p1749
F1.0
s(lp1750
(g73
I12
tp1751
atp1752
a(g97
(dp1753
g99
F1.0
s(lp1754
(g97
I13
tp1755
atp1756
a(S'kde'
p1757
(dp1758
S'PRON'
p1759
F0.999869
sg1693
F0.000132
s(lp1760
tp1761
a(S'z\xc3\xa1le\xc5\xbe\xc3\xad'
p1762
(dp1763
S'VERB'
p1764
F1.0
s(lp1765
tp1766
a(S'len'
p1767
(dp1768
g1693
F0.995359
sS'CONJ'
p1769
F0.004641
s(lp1770
(g142
I17
tp1771
atp1772
a(S'na'
p1773
(dp1774
g1693
F7.3e-05
sS'CONJ'
p1775
F4e-06
sS'ADP'
p1776
F0.999916
sS'PRT'
p1777
F7e-06
s(lp1778
(g113
I14
tp1779
atp1780
a(S'peniazoch'
p1781
(dp1782
S'NOUN'
p1783
F1.0
s(lp1784
(g127
I15
tp1785
atp1786
a(g198
(dp1787
g1693
F0.000505
sS'CONJ'
p1788
F0.999412
sS'NOUN'
p1789
F3e-06
sS'ADP'
p1790
F2e-06
sS'PRT'
p1791
F7.8e-05
s(lp1792
(g149
I18
tp1793
atp1794
a(S'v\xc5\xa1ade'
p1795
(dp1796
S'PRON'
p1797
F1.0
s(lp1798
(g170
I21
tp1799
atp1800
a(S'vl\xc3\xa1dne'
p1801
(dp1802
S'VERB'
p1803
F0.97536
sS'ADJ'
p1804
F0.024640000000000002
s(lp1805
tp1806
a(S'nezodpovednos\xc5\xa5'
p1807
(dp1808
S'NOUN'
p1809
F1.0
s(lp1810
(g163
I19
tp1811
atp1812
a(g97
(dp1813
g99
F1.0
s(lp1814
(g97
I22
tp1815
atp1816
a(S'ktor\xc3\xa1'
p1817
(dp1818
S'PRON'
p1819
F1.0
s(lp1820
(g188
I24
tp1821
atp1822
a(S'n\xc3\xa1s'
p1823
(dp1824
S'PRON'
p1825
F0.998214
sg1693
F0.001785
s(lp1826
(g195
I26
tp1827
atp1828
a(S'doviedla'
p1829
(dp1830
S'VERB'
p1831
F1.0
s(lp1832
(g236
I32
tp1833
atp1834
a(S'a\xc5\xbe'
p1835
(dp1836
S'ADV'
p1837
F0.002308
sg1693
F0.96187
sS'CONJ'
p1838
F0.035822
s(lp1839
tp1840
a(S'na'
p1841
(dp1842
g1693
F9.300000000000001e-05
sS'CONJ'
p1843
F4e-06
sS'ADP'
p1844
F0.999899
sS'PRT'
p1845
F3e-06
s(lp1846
(g514
I27
tp1847
atp1848
a(S'okraj'
p1849
(dp1850
S'NOUN'
p1851
F1.0
s(lp1852
(g222
I29
tp1853
atp1854
a(S'priepasti'
p1855
(dp1856
S'NOUN'
p1857
F1.0
s(lp1858
(g236
I32
tp1859
atp1860
a(g97
(dp1861
g99
F1.0
s(lp1862
(g97
I33
tp1863
atp1864
a(S'aby'
p1865
(dp1866
g1693
F6.7e-05
sS'CONJ'
p1867
F0.999933
s(lp1868
(g564
I35
tp1869
atp1870
a(S'sa'
p1871
(dp1872
S'PRT'
p1873
F0.999877
sS'ADP'
p1874
F8.8e-05
sg1693
F3.5e-05
s(lp1875
(g267
I36
tp1876
atp1877
a(S'finan\xc4\x8dn\xc3\xbd'
p1878
(dp1879
S'ADJ'
p1880
F1.0
s(lp1881
(g282
I37
tp1882
atp1883
a(S'syst\xc3\xa9m'
p1884
(dp1885
S'NOUN'
p1886
F1.0
s(lp1887
(g274
I38
tp1888
atp1889
a(S'mohol'
p1890
(dp1891
S'VERB'
p1892
F1.0
s(lp1893
(g588
I39
tp1894
atp1895
a(S'op\xc3\xa4\xc5\xa5'
p1896
(dp1897
S'ADV'
p1898
F1.0
s(lp1899
tp1900
a(S'uja\xc5\xa5'
p1901
(dp1902
S'VERB'
p1903
F1.0
s(lp1904
(g259
I40
tp1905
atp1906
a(S'svojej'
p1907
(dp1908
S'PRON'
p1909
F1.0
s(lp1910
(g601
I41
tp1911
atp1912
a(S'\xc3\xbalohy'
p1913
(dp1914
S'NOUN'
p1915
F1.0
s(lp1916
(g607
I42
tp1917
atp1918
a(g198
(dp1919
g1693
F0.002209
sS'CONJ'
p1920
F0.997331
sS'NOUN'
p1921
F0.00017800000000000002
sS'ADP'
p1922
F0.0
sS'PRT'
p1923
F0.000282
s(lp1924
(g181
I23
tp1925
atp1926
a(S'sl\xc3\xba\xc5\xbei\xc5\xa5'
p1927
(dp1928
S'VERB'
p1929
F1.0
s(lp1930
(g294
I44
tp1931
atp1932
a(S're\xc3\xa1lnemu'
p1933
(dp1934
S'ADJ'
p1935
F1.0
s(lp1936
(g324
I46
tp1937
atp1938
a(S'hospod\xc3\xa1rstvu'
p1939
(dp1940
S'NOUN'
p1941
F1.0
s(lp1942
(g317
I47
tp1943
atp1944
a(g198
(dp1945
g1693
F0.0021
sS'CONJ'
p1946
F0.997071
sS'NOUN'
p1947
F0.00018099999999999998
sS'ADP'
p1948
F0.000594
sS'PRT'
p1949
F5.3e-05
s(lp1950
(g331
I48
tp1951
atp1952
a(S'\xc4\xbeu\xc4\x8fom'
p1953
(dp1954
S'NOUN'
p1955
F1.0
s(lp1956
(g353
I50
tp1957
atp1958
a(g99
(dp1959
g99
F1.0
s(lp1960
(g99
I51
tp1961
atp1962
asS'pl'
p1963
(lp1964
(S'czas'
p1965
(dp1966
S'NOUN'
p1967
F0.23767999999999997
sS'ADJ'
p1968
F0.76232
s(lp1969
(g22
I2
tp1970
atp1971
a(S'odej\xc5\x9b\xc4\x87'
p1972
(dp1973
S'VERB'
p1974
F1.0
s(lp1975
(g36
I4
tp1976
atp1977
a(S'od'
p1978
(dp1979
S'VERB'
p1980
F0.0
sS'NOUN'
p1981
F0.000159
sS'ADP'
p1982
F0.99984
s(lp1983
(g401
I6
tp1984
atp1985
a(S'tej'
p1986
(dp1987
S'PRON'
p1988
F0.000117
sS'ADJ'
p1989
F0.999868
sg1693
F1.5e-05
s(lp1990
(g43
I7
tp1991
atp1992
a(S'kr\xc3\xb3tkowzrocznej'
p1993
(dp1994
S'NOUN'
p1995
F0.004713000000000001
sS'VERB'
p1996
F0.0
sS'ADJ'
p1997
F0.995287
s(lp1998
(g80
I8
tp1999
atp2000
a(S'wizji'
p2001
(dp2002
S'NOUN'
p2003
F1.0
s(lp2004
(g50
I9
tp2005
atp2006
a(S'gospodarki'
p2007
(dp2008
S'NOUN'
p2009
F1.0
s(lp2010
(g73
I12
tp2011
atp2012
a(g97
(dp2013
g1693
F0.0
sg99
F1.0
s(lp2014
(g97
I13
tp2015
atp2016
a(S'w'
p2017
(dp2018
S'ADJ'
p2019
F1e-06
sS'NOUN'
p2020
F1e-06
sS'ADP'
p2021
F0.999997
sg1693
F1e-06
s(lp2022
tp2023
a(S'kt\xc3\xb3rej'
p2024
(dp2025
S'ADJ'
p2026
F1.0
s(lp2027
(g113
I14
tp2028
atp2029
a(S'pieni\xc4\x85dz'
p2030
(dp2031
S'NOUN'
p2032
F1.0
s(lp2033
(g127
I15
tp2034
atp2035
a(S'jest'
p2036
(dp2037
S'VERB'
p2038
F1.0
s(lp2039
(g135
I16
tp2040
atp2041
a(S'najwa\xc5\xbcniejszy'
p2042
(dp2043
S'ADJ'
p2044
F1.0
s(lp2045
(g142
I17
tp2046
atp2047
a(g97
(dp2048
g1693
F0.0
sg99
F1.0
s(lp2049
tp2050
a(g198
(dp2051
S'ADV'
p2052
F0.000171
sS'NOUN'
p2053
F0.000983
sS'ADP'
p2054
F0.001687
sS'PRT'
p2055
F0.002104
sS'VERB'
p2056
F0.000429
sg1693
F0.002621
sS'CONJ'
p2057
F0.991974
sS'ADJ'
p2058
F3.2999999999999996e-05
s(lp2059
(g149
I18
tp2060
atp2061
a(S'brak'
p2062
(dp2063
S'ADJ'
p2064
F0.030998
sS'NOUN'
p2065
F0.9690019999999999
s(lp2066
(g163
I19
tp2067
atp2068
a(S'odpowiedzialno\xc5\x9bci'
p2069
(dp2070
S'NOUN'
p2071
F1.0
s(lp2072
tp2073
a(S'-'
p2074
(dp2075
g1693
F4.8e-05
sS'NUM'
p2076
F0.0
sS'NOUN'
p2077
F0.000211
sg99
F0.999741
s(lp2078
(g97
I33
tp2079
atp2080
a(S'wszechobecny'
p2081
(dp2082
S'ADJ'
p2083
F1.0
s(lp2084
(g163
I19
tp2085
atp2086
a(g97
(dp2087
g1693
F1e-06
sg99
F0.999999
s(lp2088
(g97
I22
tp2089
atp2090
a(g1672
(dp2091
S'PRT'
p2092
F0.004638
sS'CONJ'
p2093
F0.995112
sS'PRON'
p2094
F1.6e-05
sS'NOUN'
p2095
F0.00017800000000000002
sg1693
F5.6e-05
s(lp2096
(g181
I23
tp2097
atp2098
a(S'kt\xc3\xb3ra'
p2099
(dp2100
S'ADJ'
p2101
F1.0
s(lp2102
(g188
I24
tp2103
atp2104
a(S'doprowadzi\xc5\x82a'
p2105
(dp2106
S'VERB'
p2107
F1.0
s(lp2108
(g208
I25
tp2109
atp2110
a(S'nas'
p2111
(dp2112
S'PRON'
p2113
F0.999999
s(lp2114
(g195
I26
tp2115
atp2116
a(S'na'
p2117
(dp2118
S'PRT'
p2119
F7e-06
sS'VERB'
p2120
F3.1e-05
sS'NOUN'
p2121
F0.0
sS'ADP'
p2122
F0.999958
sg1693
F3e-06
s(lp2123
(g514
I27
tp2124
atp2125
a(S'skraj'
p2126
(dp2127
S'NOUN'
p2128
F1.0
s(lp2129
(g222
I29
tp2130
atp2131
a(S'przepa\xc5\x9bci'
p2132
(dp2133
S'NOUN'
p2134
F0.999999
s(lp2135
(g236
I32
tp2136
atp2137
a(g1556
(dp2138
g99
F1.0
s(lp2139
(g236
I32
tp2140
atp2141
a(S'czas'
p2142
(dp2143
S'ADJ'
p2144
F0.143238
sS'NOUN'
p2145
F0.856762
s(lp2146
tp2147
a(S'aby'
p2148
(dp2149
S'PRT'
p2150
F0.03265
sS'CONJ'
p2151
F0.96735
s(lp2152
(g247
I34
tp2153
atp2154
a(S'system'
p2155
(dp2156
S'NOUN'
p2157
F1.0
s(lp2158
(g274
I38
tp2159
atp2160
a(S'finansowy'
p2161
(dp2162
S'ADJ'
p2163
F1.0
s(lp2164
(g282
I37
tp2165
atp2166
a(S'podj\xc4\x85\xc5\x82'
p2167
(dp2168
S'VERB'
p2169
F1.0
s(lp2170
(g236
I32
tp2171
atp2172
a(S'na'
p2173
(dp2174
S'PRT'
p2175
F0.000648
sS'VERB'
p2176
F6e-06
sS'NOUN'
p2177
F2e-06
sS'ADP'
p2178
F0.999339
sg1693
F6e-06
s(lp2179
tp2180
a(S'nowo'
p2181
(dp2182
S'ADV'
p2183
F0.871969
sS'ADJ'
p2184
F0.128031
s(lp2185
(g259
I40
tp2186
atp2187
a(S'swe'
p2188
(dp2189
S'ADJ'
p2190
F1.0
s(lp2191
(g601
I41
tp2192
atp2193
a(S'zadania'
p2194
(dp2195
S'VERB'
p2196
F7.9e-05
sS'NOUN'
p2197
F0.9999210000000001
s(lp2198
(g607
I42
tp2199
atp2200
a(g2017
(dp2201
g1693
F0.0
sS'ADJ'
p2202
F0.0
sS'ADP'
p2203
F0.999999
sS'NOUN'
p2204
F0.0
s(lp2205
(g301
I43
tp2206
atp2207
a(S's\xc5\x82u\xc5\xbcbie'
p2208
(dp2209
S'NOUN'
p2210
F1.0
s(lp2211
(g294
I44
tp2212
atp2213
a(S'realnej'
p2214
(dp2215
S'ADJ'
p2216
F1.0
s(lp2217
(g324
I46
tp2218
atp2219
a(S'gospodarki'
p2220
(dp2221
S'NOUN'
p2222
F1.0
s(lp2223
(g317
I47
tp2224
atp2225
a(g1672
(dp2226
S'PRT'
p2227
F0.001457
sS'CONJ'
p2228
F0.998424
sS'NOUN'
p2229
F4.2999999999999995e-05
sg1693
F8e-06
sS'PRON'
p2230
F6.8e-05
s(lp2231
(g331
I48
tp2232
atp2233
a(S'spo\xc5\x82ecze\xc5\x84stwa'
p2234
(dp2235
S'NOUN'
p2236
F1.0
s(lp2237
(g353
I50
tp2238
atp2239
a(g99
(dp2240
g99
F1.0
s(lp2241
(g99
I51
tp2242
atp2243
asS'sl'
p2244
(lp2245
(S'\xc4\x8cas'
p2246
(dp2247
S'NOUN'
p2248
F1.0
s(lp2249
(g22
I2
tp2250
atp2251
a(S'je'
p2252
(dp2253
S'PRON'
p2254
F0.000315
sS'VERB'
p2255
F0.999404
sg1693
F0.000282
s(lp2256
(g15
I1
tp2257
atp2258
a(g97
(dp2259
g99
F1.0
s(lp2260
tp2261
a(S'da'
p2262
(dp2263
S'PRT'
p2264
F5e-06
sS'CONJ'
p2265
F0.99997
sS'VERB'
p2266
F2.4e-05
sg1693
F1e-06
s(lp2267
(g29
I3
tp2268
atp2269
a(S'se'
p2270
(dp2271
S'PRON'
p2272
F0.999999
sg1693
F1e-06
s(lp2273
tp2274
a(S'poslovimo'
p2275
(dp2276
S'ADV'
p2277
F0.000589
sS'ADJ'
p2278
F0.00022299999999999997
sS'VERB'
p2279
F0.9959300000000001
sS'NOUN'
p2280
F0.0032559999999999998
s(lp2281
(g36
I4
tp2282
atp2283
a(S'od'
p2284
(dp2285
S'ADP'
p2286
F1.0
s(lp2287
(g401
I6
tp2288
atp2289
a(S'te'
p2290
(dp2291
S'PRON'
p2292
F1.000001
s(lp2293
(g43
I7
tp2294
atp2295
a(S'kratkoro\xc4\x8dne'
p2296
(dp2297
S'ADJ'
p2298
F1.0
s(lp2299
(g80
I8
tp2300
atp2301
a(S'vizije'
p2302
(dp2303
S'NOUN'
p2304
F1.0
s(lp2305
(g50
I9
tp2306
atp2307
a(S'gospodarstva'
p2308
(dp2309
S'NOUN'
p2310
F1.0
s(lp2311
(g73
I12
tp2312
atp2313
a(g97
(dp2314
g99
F1.0
s(lp2315
(g97
I13
tp2316
atp2317
a(S'kjer'
p2318
(dp2319
S'CONJ'
p2320
F1.0
s(lp2321
(g113
I14
tp2322
atp2323
a(S'je'
p2324
(dp2325
S'PRON'
p2326
F0.003859
sS'VERB'
p2327
F0.996139
sg1693
F1e-06
s(lp2328
(g135
I16
tp2329
atp2330
a(S'denar'
p2331
(dp2332
S'NOUN'
p2333
F1.0
s(lp2334
(g127
I15
tp2335
atp2336
a(S'najpomembnej\xc5\xa1i'
p2337
(dp2338
S'ADJ'
p2339
F1.0
s(lp2340
(g142
I17
tp2341
atp2342
a(S'in'
p2343
(dp2344
S'ADV'
p2345
F5.2e-05
sg1693
F2.6e-05
sS'CONJ'
p2346
F0.993338
sS'NOUN'
p2347
F0.006584
s(lp2348
(g149
I18
tp2349
atp2350
a(S'je'
p2351
(dp2352
S'PRON'
p2353
F0.006034
sS'VERB'
p2354
F0.993963
sg1693
F2e-06
s(lp2355
(g478
I20
tp2356
atp2357
a(S'neodgovornost'
p2358
(dp2359
S'ADV'
p2360
F0.022353
sS'ADJ'
p2361
F0.07855599999999999
sS'NOUN'
p2362
F0.899091
s(lp2363
(g163
I19
tp2364
atp2365
a(S'vsepovsod'
p2366
(dp2367
S'ADV'
p2368
F1.0
s(lp2369
(g170
I21
tp2370
atp2371
a(S'in'
p2372
(dp2373
S'ADV'
p2374
F0.000353
sg1693
F6e-06
sS'CONJ'
p2375
F0.999631
sS'NOUN'
p2376
F1e-05
s(lp2377
(g181
I23
tp2378
atp2379
a(S'ki'
p2380
(dp2381
S'CONJ'
p2382
F1.0
s(lp2383
(g188
I24
tp2384
atp2385
a(S'nas'
p2386
(dp2387
S'PRON'
p2388
F1.0
s(lp2389
(g195
I26
tp2390
atp2391
a(S'je'
p2392
(dp2393
S'PRON'
p2394
F3.4e-05
sS'VERB'
p2395
F0.999966
sg1693
F0.0
s(lp2396
tp2397
a(S'privedla'
p2398
(dp2399
S'VERB'
p2400
F1.0
s(lp2401
(g208
I25
tp2402
atp2403
a(S'do'
p2404
(dp2405
g1693
F1.4e-05
sS'ADP'
p2406
F0.999986
s(lp2407
(g514
I27
tp2408
atp2409
a(S'roba'
p2410
(dp2411
S'NOUN'
p2412
F1.0
s(lp2413
(g222
I29
tp2414
atp2415
a(S'prepada'
p2416
(dp2417
S'ADJ'
p2418
F0.000171
sS'VERB'
p2419
F0.005464
sS'NOUN'
p2420
F0.9943670000000001
s(lp2421
(g236
I32
tp2422
atp2423
a(g97
(dp2424
g99
F1.0
s(lp2425
(g97
I33
tp2426
atp2427
a(S'da'
p2428
(dp2429
S'PRT'
p2430
F0.000131
sS'CONJ'
p2431
F0.999856
sS'VERB'
p2432
F1.2e-05
sg1693
F0.0
s(lp2433
(g564
I35
tp2434
atp2435
a(S'bo'
p2436
(dp2437
S'VERB'
p2438
F1.0
s(lp2439
(g267
I36
tp2440
atp2441
a(S'finan\xc4\x8dni'
p2442
(dp2443
S'ADJ'
p2444
F1.0000000000000002
s(lp2445
(g282
I37
tp2446
atp2447
a(S'sistem'
p2448
(dp2449
S'NOUN'
p2450
F1.0
s(lp2451
(g274
I38
tp2452
atp2453
a(S'lahko'
p2454
(dp2455
S'ADV'
p2456
F0.999684
sS'ADJ'
p2457
F0.00031499999999999996
s(lp2458
(g588
I39
tp2459
atp2460
a(S'spet'
p2461
(dp2462
S'ADV'
p2463
F1.0
s(lp2464
tp2465
a(S'prevzel'
p2466
(dp2467
S'VERB'
p2468
F1.0
s(lp2469
(g259
I40
tp2470
atp2471
a(S'svojo'
p2472
(dp2473
S'PRON'
p2474
F1.0
s(lp2475
(g601
I41
tp2476
atp2477
a(S'vlogo'
p2478
(dp2479
S'NOUN'
p2480
F1.0
s(lp2481
(g607
I42
tp2482
atp2483
a(S'in'
p2484
(dp2485
S'ADV'
p2486
F0.000222
sg1693
F4e-06
sS'CONJ'
p2487
F0.999757
sS'NOUN'
p2488
F1.6e-05
s(lp2489
(g301
I43
tp2490
atp2491
a(S'slu\xc5\xbeil'
p2492
(dp2493
S'VERB'
p2494
F1.0
s(lp2495
(g294
I44
tp2496
atp2497
a(S'realnemu'
p2498
(dp2499
S'ADV'
p2500
F5e-06
sS'NOUN'
p2501
F0.0006830000000000001
sS'PRON'
p2502
F7.999999999999999e-05
sS'VERB'
p2503
F0.0010310000000000002
sS'NUM'
p2504
F2.5e-05
sS'ADJ'
p2505
F0.9981740000000002
s(lp2506
(g324
I46
tp2507
atp2508
a(S'gospodarstvu'
p2509
(dp2510
S'NOUN'
p2511
F1.0
s(lp2512
(g317
I47
tp2513
atp2514
a(S'in'
p2515
(dp2516
S'ADV'
p2517
F1.6e-05
sg1693
F1.1e-05
sS'CONJ'
p2518
F0.999957
sS'NOUN'
p2519
F1.7e-05
s(lp2520
(g331
I48
tp2521
atp2522
a(S'ljudem'
p2523
(dp2524
S'NOUN'
p2525
F1.0
s(lp2526
(g353
I50
tp2527
atp2528
a(g99
(dp2529
g99
F1.0
s(lp2530
(g99
I51
tp2531
atp2532
asS'es'
p2533
(lp2534
(S'es'
p2535
(dp2536
S'VERB'
p2537
F1.0
s(lp2538
(g15
I1
tp2539
atp2540
a(S'hora'
p2541
(dp2542
S'NOUN'
p2543
F1.0
s(lp2544
(g22
I2
tp2545
atp2546
a(S'de'
p2547
(dp2548
g1693
F0.0
sS'CONJ'
p2549
F0.185344
sS'ADP'
p2550
F0.814656
s(lp2551
(g29
I3
tp2552
atp2553
a(S'apartarse'
p2554
(dp2555
S'VERB'
p2556
F1.0
s(lp2557
(g36
I4
tp2558
atp2559
a(S'de'
p2560
(dp2561
g1693
F0.0
sS'CONJ'
p2562
F3.8e-05
sS'ADP'
p2563
F0.999962
s(lp2564
(g401
I6
tp2565
atp2566
a(S'esta'
p2567
(dp2568
S'PRON'
p2569
F1.0
sS'VERB'
p2570
F0.0
s(lp2571
(g43
I7
tp2572
atp2573
a(S'visi\xc3\xb3n'
p2574
(dp2575
S'NOUN'
p2576
F1.0
s(lp2577
(g50
I9
tp2578
atp2579
a(S'cortoplacista'
p2580
(dp2581
S'NOUN'
p2582
F0.344548
sS'ADJ'
p2583
F0.655452
s(lp2584
(g80
I8
tp2585
atp2586
a(S'de'
p2587
(dp2588
g1693
F0.0
sS'CONJ'
p2589
F4.4e-05
sS'ADP'
p2590
F0.999956
s(lp2591
(g57
I10
tp2592
atp2593
a(S'la'
p2594
(dp2595
g1693
F0.0
sS'PRON'
p2596
F0.0
sS'DET'
p2597
F0.999999
sS'NOUN'
p2598
F0.0
s(lp2599
(g66
I11
tp2600
atp2601
a(S'econom\xc3\xada'
p2602
(dp2603
S'NOUN'
p2604
F1.0
s(lp2605
(g73
I12
tp2606
atp2607
a(g97
(dp2608
g99
F1.0
s(lp2609
(g97
I13
tp2610
atp2611
a(S'donde'
p2612
(dp2613
S'ADV'
p2614
F1.0
s(lp2615
(g113
I14
tp2616
atp2617
a(S'el'
p2618
(dp2619
S'PRON'
p2620
F9e-06
sS'DET'
p2621
F0.999991
s(lp2622
tp2623
a(S'dinero'
p2624
(dp2625
S'NOUN'
p2626
F1.0
s(lp2627
(g127
I15
tp2628
atp2629
a(S'es'
p2630
(dp2631
S'VERB'
p2632
F1.0
s(lp2633
tp2634
a(S'lo'
p2635
(dp2636
S'PRON'
p2637
F2.1e-05
sS'DET'
p2638
F0.999979
s(lp2639
(g135
I16
tp2640
atp2641
a(S'importante'
p2642
(dp2643
S'VERB'
p2644
F0.012323
sS'ADJ'
p2645
F0.987677
s(lp2646
(g142
I17
tp2647
atp2648
a(S'y'
p2649
(dp2650
g1693
F0.000115
sS'CONJ'
p2651
F0.999885
s(lp2652
(g149
I18
tp2653
atp2654
a(S'la'
p2655
(dp2656
S'PRON'
p2657
F0.000591
sS'DET'
p2658
F0.999408
sS'NOUN'
p2659
F0.0
sg1693
F0.0
s(lp2660
tp2661
a(S'irresponsabilidad'
p2662
(dp2663
S'NOUN'
p2664
F1.0
s(lp2665
(g163
I19
tp2666
atp2667
a(S'est\xc3\xa1'
p2668
(dp2669
S'VERB'
p2670
F1.0
s(lp2671
(g478
I20
tp2672
atp2673
a(S'en'
p2674
(dp2675
g1693
F0.0
sS'CONJ'
p2676
F0.0
sS'ADP'
p2677
F1.0
s(lp2678
(g170
I21
tp2679
atp2680
a(S'todos'
p2681
(dp2682
S'ADJ'
p2683
F1.0
s(lp2684
tp2685
a(S'lados'
p2686
(dp2687
S'NOUN'
p2688
F1.0
s(lp2689
(g170
I21
tp2690
atp2691
a(g97
(dp2692
g99
F1.0
s(lp2693
(g97
I22
tp2694
atp2695
a(S'que'
p2696
(dp2697
g1693
F0.0
sS'CONJ'
p2698
F1.0
s(lp2699
(g188
I24
tp2700
atp2701
a(S'nos'
p2702
(dp2703
S'PRON'
p2704
F1.0
s(lp2705
(g195
I26
tp2706
atp2707
a(S'ha'
p2708
(dp2709
S'VERB'
p2710
F1.0
s(lp2711
tp2712
a(S'llevado'
p2713
(dp2714
S'VERB'
p2715
F1.0
s(lp2716
(g208
I25
tp2717
atp2718
a(S'al'
p2719
(dp2720
S'CONJ'
p2721
F0.000863
sS'ADP'
p2722
F0.9991369999999999
s(lp2723
(g215
I28
tp2724
atp2725
a(S'borde'
p2726
(dp2727
S'NOUN'
p2728
F1.0
s(lp2729
(g222
I29
tp2730
atp2731
a(S'del'
p2732
(dp2733
S'ADP'
p2734
F1.0
s(lp2735
(g229
I30
tp2736
atp2737
a(S'abismo'
p2738
(dp2739
S'VERB'
p2740
F0.0
sS'NOUN'
p2741
F1.0
s(lp2742
(g236
I32
tp2743
atp2744
a(g97
(dp2745
g99
F1.0
s(lp2746
(g97
I33
tp2747
atp2748
a(S'para'
p2749
(dp2750
S'CONJ'
p2751
F0.448349
sS'ADP'
p2752
F0.551651
s(lp2753
(g247
I34
tp2754
atp2755
a(S'que'
p2756
(dp2757
g1693
F0.0
sS'CONJ'
p2758
F1.0
s(lp2759
(g564
I35
tp2760
atp2761
a(S'el'
p2762
(dp2763
S'PRON'
p2764
F4e-05
sS'DET'
p2765
F0.99996
s(lp2766
(g267
I36
tp2767
atp2768
a(S'sistema'
p2769
(dp2770
S'NOUN'
p2771
F1.0
s(lp2772
(g274
I38
tp2773
atp2774
a(S'financiero'
p2775
(dp2776
S'NOUN'
p2777
F0.011917
sS'ADJ'
p2778
F0.988083
s(lp2779
(g282
I37
tp2780
atp2781
a(S'pueda'
p2782
(dp2783
S'VERB'
p2784
F1.0
s(lp2785
(g588
I39
tp2786
atp2787
a(S'continuar'
p2788
(dp2789
S'VERB'
p2790
F1.0
s(lp2791
(g259
I40
tp2792
atp2793
a(S'con'
p2794
(dp2795
S'ADP'
p2796
F1.0
s(lp2797
tp2798
a(S'su'
p2799
(dp2800
S'PRON'
p2801
F1.0
s(lp2802
(g601
I41
tp2803
atp2804
a(S'papel'
p2805
(dp2806
S'NOUN'
p2807
F1.0
s(lp2808
(g607
I42
tp2809
atp2810
a(S'de'
p2811
(dp2812
g1693
F0.0
sS'CONJ'
p2813
F0.345844
sS'ADP'
p2814
F0.654156
s(lp2815
(g301
I43
tp2816
atp2817
a(S'servir'
p2818
(dp2819
S'VERB'
p2820
F1.0
s(lp2821
tp2822
a(g198
(dp2823
g1693
F0.000259
sS'CONJ'
p2824
F5e-06
sS'ADP'
p2825
F0.999736
s(lp2826
(g294
I44
tp2827
atp2828
a(S'la'
p2829
(dp2830
g1693
F1e-06
sS'PRON'
p2831
F0.0
sS'DET'
p2832
F0.999999
sS'NOUN'
p2833
F0.0
s(lp2834
(g310
I45
tp2835
atp2836
a(S'econom\xc3\xada'
p2837
(dp2838
S'NOUN'
p2839
F1.0
s(lp2840
(g317
I47
tp2841
atp2842
a(S'real'
p2843
(dp2844
S'NOUN'
p2845
F2e-06
sS'ADJ'
p2846
F0.999998
s(lp2847
(g324
I46
tp2848
atp2849
a(g2649
(dp2850
g1693
F0.000304
sS'CONJ'
p2851
F0.999696
s(lp2852
(g331
I48
tp2853
atp2854
a(g198
(dp2855
g1693
F0.001108
sS'CONJ'
p2856
F0.0
sS'ADP'
p2857
F0.998892
s(lp2858
tp2859
a(S'los'
p2860
(dp2861
S'PRON'
p2862
F0.0
sS'DET'
p2863
F1.0
s(lp2864
(g345
I49
tp2865
atp2866
a(S'ciudadanos'
p2867
(dp2868
S'NOUN'
p2869
F1.0
s(lp2870
(g353
I50
tp2871
atp2872
a(g99
(dp2873
g99
F1.0
s(lp2874
(g99
I51
tp2875
atp2876
as.