(dp0
S'fr'
p1
(lp2
(S"l'"
p3
(dp4
S'ADJ'
p5
F0.079749
sS'VERB'
p6
F0.5393100000000001
sS'NOUN'
p7
F0.380941
s(lp8
tp9
a(S'\xc3\x89gypte'
p10
(dp11
S'NOUN'
p12
F1.0
s(lp13
(S'egypt'
p14
I0
tp15
atp16
a(S','
p17
(dp18
S'.'
p19
F1.0
s(lp20
(g17
I1
tp21
atp22
a(S'qui'
p23
(dp24
S'PRON'
p25
F1.0
s(lp26
(S'which'
p27
I2
tp28
atp29
a(S'a'
p30
(dp31
S'VERB'
p32
F1.0
s(lp33
(S'has'
p34
I3
tp35
atp36
a(S'une'
p37
(dp38
S'NOUN'
p39
F1.2e-05
sS'NUM'
p40
F0.003908
sS'DET'
p41
F0.996081
s(lp42
(g30
I4
tp43
atp44
a(S'responsabilit\xc3\xa9'
p45
(dp46
S'NOUN'
p47
F1.0
s(lp48
(S'responsibility'
p49
I6
tp50
atp51
a(S'particuli\xc3\xa8re'
p52
(dp53
S'NOUN'
p54
F0.00446
sS'ADJ'
p55
F0.99554
s(lp56
(S'particular'
p57
I5
tp58
atp59
a(S'en'
p60
(dp61
S'PRON'
p62
F0.000275
sS'ADP'
p63
F0.999725
s(lp64
tp65
a(S'raison'
p66
(dp67
S'NOUN'
p68
F1.0
s(lp69
(S'due'
p70
I7
tp71
atp72
a(S'de'
p73
(dp74
S'ADP'
p75
F1.0
s(lp76
(S'to'
p77
I8
tp78
atp79
a(S'sa'
p80
(dp81
S'PRON'
p82
F1.0
s(lp83
(S'its'
p84
I9
tp85
atp86
a(S'situation'
p87
(dp88
S'NOUN'
p89
F1.0
s(lp90
(S'location'
p91
I10
tp92
atp93
a(S'frontali\xc3\xa8re'
p94
(dp95
S'NOUN'
p96
F0.009784
sS'ADJ'
p97
F0.990216
s(lp98
(S'border'
p99
I13
tp100
atp101
a(S'avec'
p102
(dp103
S'ADV'
p104
F0.986276
sS'ADP'
p105
F0.013724
s(lp106
(S'with'
p107
I14
tp108
atp109
a(S'gaza'
p110
(dp111
S'VERB'
p112
F1.0
s(lp113
(S'gaza'
p114
I15
tp115
atp116
a(g17
(dp117
g19
F1.0
s(lp118
(g17
I16
tp119
atp120
a(S'doit'
p121
(dp122
S'VERB'
p123
F0.999623
sS'NOUN'
p124
F0.000377
s(lp125
(S'must'
p126
I17
tp127
atp128
a(S'\xc3\xaatre'
p129
(dp130
S'VERB'
p131
F0.996877
sS'NOUN'
p132
F0.003123
s(lp133
(S'take'
p134
I18
tp135
atp136
a(S'activement'
p137
(dp138
S'ADV'
p139
F1.0
s(lp140
(S'active'
p141
I20
tp142
atp143
a(S'associ\xc3\xa9e'
p144
(dp145
S'VERB'
p146
F0.99646
sS'NOUN'
p147
F0.00354
s(lp148
(S'part'
p149
I21
tp150
atp151
a(S'\xc3\xa0'
p152
(dp153
S'ADP'
p154
F1.0
s(lp155
(S'in'
p156
I22
tp157
atp158
a(S'ce'
p159
(dp160
S'PRON'
p161
F1.0
s(lp162
(S'this'
p163
I23
tp164
atp165
a(S'processus'
p166
(dp167
S'NOUN'
p168
F1.0
s(lp169
(S'process'
p170
I25
tp171
atp172
a(S'de'
p173
(dp174
S'ADP'
p175
F1.0
s(lp176
tp177
a(S'n\xc3\xa9gociation'
p178
(dp179
S'NOUN'
p180
F1.0
s(lp181
(S'negotiation'
p182
I24
tp183
atp184
a(g19
(dp185
g19
F1.0
s(lp186
(g19
I26
tp187
atp188
asS'en'
p189
(lp190
(g14
(dp191
S'ADV'
p192
F0.027915
sS'ADJ'
p193
F0.031966
sS'VERB'
p194
F0.011808999999999998
sS'NOUN'
p195
F0.928309
s(lp196
(g14
I0
tp197
atp198
a(g17
(dp199
g19
F1.0
s(lp200
(g17
I1
tp201
atp202
a(g27
(dp203
S'DET'
p204
F1.0
s(lp205
(g27
I2
tp206
atp207
a(g34
(dp208
S'VERB'
p209
F1.0
s(lp210
(g34
I3
tp211
atp212
a(g30
(dp213
S'NOUN'
p214
F0.0
sS'DET'
p215
F1.0
s(lp216
(g30
I4
tp217
atp218
a(g57
(dp219
S'ADV'
p220
F9.2e-05
sS'NOUN'
p221
F0.010908
sS'ADJ'
p222
F0.989
s(lp223
(g57
I5
tp224
atp225
a(g49
(dp226
S'NOUN'
p227
F1.0
s(lp228
(g49
I6
tp229
atp230
a(g70
(dp231
S'ADV'
p232
F0.296852
sS'NOUN'
p233
F0.054779
sS'ADJ'
p234
F0.648369
s(lp235
(g70
I7
tp236
atp237
a(g77
(dp238
S'ADV'
p239
F1e-06
sS'PRT'
p240
F0.999991
sS'ADP'
p241
F8e-06
s(lp242
(g77
I8
tp243
atp244
a(g84
(dp245
S'PRON'
p246
F1.0
s(lp247
(g84
I9
tp248
atp249
a(g91
(dp250
S'NOUN'
p251
F1.0
s(lp252
(g91
I10
tp253
atp254
a(S'on'
p255
(dp256
S'ADV'
p257
F0.000489
sS'PRT'
p258
F0.000523
sS'ADJ'
p259
F0.0
sS'NOUN'
p260
F0.0
sS'ADP'
p261
F0.998988
s(lp262
(g255
I11
tp263
atp264
a(S'the'
p265
(dp266
S'NOUN'
p267
F1e-06
sS'DET'
p268
F0.999999
s(lp269
(g265
I12
tp270
atp271
a(g99
(dp272
S'VERB'
p273
F5.4e-05
sS'NOUN'
p274
F0.999946
s(lp275
(g99
I13
tp276
atp277
a(g107
(dp278
S'ADP'
p279
F1.0
s(lp280
(g107
I14
tp281
atp282
a(g114
(dp283
S'ADV'
p284
F0.000658
sS'ADJ'
p285
F0.001376
sS'VERB'
p286
F0.000898
sS'NOUN'
p287
F0.997068
s(lp288
(g114
I15
tp289
atp290
a(g17
(dp291
g19
F1.0
s(lp292
(g17
I16
tp293
atp294
a(g126
(dp295
S'VERB'
p296
F1.0
sS'NOUN'
p297
F0.0
s(lp298
(g126
I17
tp299
atp300
a(g134
(dp301
S'VERB'
p302
F1.0
sS'NOUN'
p303
F0.0
s(lp304
(g134
I18
tp305
atp306
a(S'an'
p307
(dp308
S'DET'
p309
F1.0
s(lp310
(g307
I19
tp311
atp312
a(g141
(dp313
S'NOUN'
p314
F0.000712
sS'ADJ'
p315
F0.999288
s(lp316
(g141
I20
tp317
atp318
a(g149
(dp319
S'ADV'
p320
F1.1e-05
sS'VERB'
p321
F3e-06
sS'NOUN'
p322
F0.999985
s(lp323
(g149
I21
tp324
atp325
a(g156
(dp326
S'ADV'
p327
F0.000191
sS'PRT'
p328
F0.000279
sS'ADP'
p329
F0.999531
s(lp330
(g156
I22
tp331
atp332
a(g163
(dp333
S'ADV'
p334
F3e-06
sS'NOUN'
p335
F1.9e-05
sS'DET'
p336
F0.999978
s(lp337
(g163
I23
tp338
atp339
a(g182
(dp340
S'NOUN'
p341
F1.0
s(lp342
(g182
I24
tp343
atp344
a(g170
(dp345
S'VERB'
p346
F0.0019190000000000001
sS'NOUN'
p347
F0.998081
s(lp348
(g170
I25
tp349
atp350
a(g19
(dp351
g19
F1.0
s(lp352
(g19
I26
tp353
atp354
asS'nl'
p355
(lp356
(S'egypte'
p357
(dp358
S'ADJ'
p359
F0.013092
sS'NOUN'
p360
F0.986908
s(lp361
(g14
I0
tp362
atp363
a(g17
(dp364
g19
F1.0
s(lp365
(g17
I1
tp366
atp367
a(S'dat'
p368
(dp369
S'PRON'
p370
F0.072955
sS'CONJ'
p371
F0.927044
s(lp372
(g27
I2
tp373
atp374
a(S'een'
p375
(dp376
S'ADJ'
p377
F1e-06
sS'PRON'
p378
F0.000574
sS'NUM'
p379
F1e-06
sS'DET'
p380
F0.999424
s(lp381
(g30
I4
tp382
atp383
a(S'bijzondere'
p384
(dp385
S'NOUN'
p386
F1e-05
sS'ADJ'
p387
F0.99999
s(lp388
(g57
I5
tp389
atp390
a(S'verantwoordelijkheid'
p391
(dp392
S'NOUN'
p393
F1.0
s(lp394
(g49
I6
tp395
atp396
a(S'heeft'
p397
(dp398
S'VERB'
p399
F1.0
s(lp400
(g34
I3
tp401
atp402
a(S'omdat'
p403
(dp404
S'CONJ'
p405
F1.0
s(lp406
(g70
I7
tp407
atp408
a(S'het'
p409
(dp410
S'PRON'
p411
F0.976735
sS'DET'
p412
F0.023265
s(lp413
(g265
I12
tp414
atp415
a(S'grenst'
p416
(dp417
S'VERB'
p418
F1.0
s(lp419
(g99
I13
tp420
atp421
a(S'aan'
p422
(dp423
S'ADV'
p424
F0.029195
sS'ADP'
p425
F0.970805
s(lp426
(g107
I14
tp427
atp428
a(S'gaza'
p429
(dp430
S'NOUN'
p431
F1.0
s(lp432
(g114
I15
tp433
atp434
a(g17
(dp435
g19
F1.0
s(lp436
(g17
I16
tp437
atp438
a(S'moet'
p439
(dp440
S'VERB'
p441
F1.0
s(lp442
(g126
I17
tp443
atp444
a(S'actief'
p445
(dp446
S'ADJ'
p447
F1.0
s(lp448
(g141
I20
tp449
atp450
a(S'deelnemen'
p451
(dp452
S'VERB'
p453
F0.9712540000000001
sS'NOUN'
p454
F0.028746
s(lp455
(g149
I21
tp456
atp457
a(S'aan'
p458
(dp459
S'ADV'
p460
F0.015155
sS'ADP'
p461
F0.984845
s(lp462
(g156
I22
tp463
atp464
a(S'dit'
p465
(dp466
S'PRON'
p467
F1.0
s(lp468
(g163
I23
tp469
atp470
a(S'onderhandelingsproces'
p471
(dp472
S'NOUN'
p473
F1.0
s(lp474
(g182
I24
tp475
atp476
a(g19
(dp477
g19
F1.0
s(lp478
(g19
I26
tp479
atp480
asS'de'
p481
(lp482
(S'\xc3\x84gypten'
p483
(dp484
S'NOUN'
p485
F1.0
s(lp486
(g14
I0
tp487
atp488
a(g17
(dp489
g19
F1.0
s(lp490
(g17
I1
tp491
atp492
a(S'dem'
p493
(dp494
S'PRON'
p495
F0.949593
sS'DET'
p496
F0.044071
s(lp497
(g27
I2
tp498
atp499
a(S'auf'
p500
(dp501
S'ADV'
p502
F0.000682
sS'ADP'
p503
F0.998706
s(lp504
(g255
I11
tp505
atp506
a(S'grund'
p507
(dp508
S'NOUN'
p509
F0.405855
sS'ADJ'
p510
F0.588463
s(lp511
(g70
I7
tp512
atp513
a(S'der'
p514
(dp515
S'PRON'
p516
F5.4e-05
sS'DET'
p517
F0.999933
s(lp518
(g84
I9
tp519
atp520
a(S'grenzlage'
p521
(dp522
S'ADJ'
p523
F0.000135
sS'NOUN'
p524
F0.999728
s(lp525
(g91
I10
tp526
atp527
a(S'zu'
p528
(dp529
S'PRT'
p530
F0.002535
sS'ADP'
p531
F0.996098
s(lp532
(g107
I14
tp533
atp534
a(S'gaza'
p535
(dp536
S'NOUN'
p537
F0.998631
s(lp538
(g114
I15
tp539
atp540
a(S'eine'
p541
(dp542
S'PRON'
p543
F0.002148
sS'DET'
p544
F0.997693
s(lp545
(g30
I4
tp546
atp547
a(S'besondere'
p548
(dp549
S'ADJ'
p550
F1.0
s(lp551
(g57
I5
tp552
atp553
a(S'verantwortung'
p554
(dp555
S'ADJ'
p556
F2e-05
sS'NOUN'
p557
F0.999973
s(lp558
tp559
a(S'zukommt'
p560
(dp561
S'VERB'
p562
F1.0
s(lp563
(g49
I6
tp564
atp565
a(g17
(dp566
g19
F1.0
s(lp567
(g17
I16
tp568
atp569
a(S'muss'
p570
(dp571
S'VERB'
p572
F1.0
s(lp573
(g126
I17
tp574
atp575
a(S'bei'
p576
(dp577
S'PRT'
p578
F0.0
sS'ADP'
p579
F1.0
s(lp580
(g156
I22
tp581
atp582
a(S'diesem'
p583
(dp584
S'PRON'
p585
F1.0
s(lp586
(g163
I23
tp587
atp588
a(S'verhandlungsprozess'
p589
(dp590
S'ADJ'
p591
F6e-05
sS'NOUN'
p592
F0.999872
s(lp593
(g182
I24
tp594
atp595
a(S'eine'
p596
(dp597
S'PRON'
p598
F0.000517
sS'DET'
p599
F0.999413
s(lp600
(g307
I19
tp601
atp602
a(S'aktive'
p603
(dp604
S'ADJ'
p605
F1.0
s(lp606
(g141
I20
tp607
atp608
a(S'rolle'
p609
(dp610
S'VERB'
p611
F1.0
s(lp612
(g149
I21
tp613
atp614
a(S'spielen'
p615
(dp616
S'VERB'
p617
F1.0
s(lp618
(g170
I25
tp619
atp620
a(g19
(dp621
g19
F1.0
s(lp622
(g19
I26
tp623
atp624
asS'it'
p625
(lp626
(S"l'"
p627
(dp628
S'NOUN'
p629
F0.00259
sS'VERB'
p630
F0.9925710000000001
sS'ADJ'
p631
F0.00484
s(lp632
tp633
a(S'egitto'
p634
(dp635
S'NOUN'
p636
F1.0
s(lp637
(g14
I0
tp638
atp639
a(S'ha'
p640
(dp641
S'VERB'
p642
F1.0
s(lp643
(g34
I3
tp644
atp645
a(S'una'
p646
(dp647
S'PRON'
p648
F6.9e-05
sS'DEF'
p649
F0.999931
s(lp650
(g30
I4
tp651
atp652
a(S'responsabilit\xc3\xa0'
p653
(dp654
S'NOUN'
p655
F1.0
s(lp656
(g49
I6
tp657
atp658
a(S'particolare'
p659
(dp660
S'NOUN'
p661
F0.006062
sS'ADJ'
p662
F0.993938
s(lp663
(g57
I5
tp664
atp665
a(g17
(dp666
g19
F1.0
s(lp667
tp668
a(S'data'
p669
(dp670
S'ADJ'
p671
F0.018965
sS'VERB'
p672
F0.654677
sS'NOUN'
p673
F0.326357
s(lp674
(g70
I7
tp675
atp676
a(S'la'
p677
(dp678
S'PRON'
p679
F4.6e-05
sS'DET'
p680
F0.999954
s(lp681
tp682
a(S'sua'
p683
(dp684
S'PRON'
p685
F1.0
s(lp686
(g84
I9
tp687
atp688
a(S'collocazione'
p689
(dp690
S'NOUN'
p691
F1.0
s(lp692
(g91
I10
tp693
atp694
a(S'al'
p695
(dp696
S'ADP'
p697
F1.0
s(lp698
(g265
I12
tp699
atp700
a(S'confine'
p701
(dp702
S'NOUN'
p703
F1.0
s(lp704
(g99
I13
tp705
atp706
a(S'con'
p707
(dp708
S'ADP'
p709
F1.0
s(lp710
(g107
I14
tp711
atp712
a(S'gaza'
p713
(dp714
S'NOUN'
p715
F1.0
s(lp716
(g114
I15
tp717
atp718
a(g17
(dp719
g19
F1.0
s(lp720
tp721
a(S'e'
p722
(dp723
S'CONJ'
p724
F1.0
s(lp725
(g17
I16
tp726
atp727
a(S'deve'
p728
(dp729
S'VERB'
p730
F1.0
s(lp731
(g126
I17
tp732
atp733
a(S'essere'
p734
(dp735
S'VERB'
p736
F0.999972
sS'NOUN'
p737
F2.8e-05
s(lp738
(g134
I18
tp739
atp740
a(S'integrato'
p741
(dp742
S'NOUN'
p743
F0.015525
sS'VERB'
p744
F0.961081
sS'ADJ'
p745
F0.023394
s(lp746
(g149
I21
tp747
atp748
a(S'in'
p749
(dp750
S'ADP'
p751
F1.0
s(lp752
(g156
I22
tp753
atp754
a(S'questo'
p755
(dp756
S'PRON'
p757
F1.0
s(lp758
(g163
I23
tp759
atp760
a(S'processo'
p761
(dp762
S'VERB'
p763
F0.009258
sS'NOUN'
p764
F0.990742
s(lp765
(g170
I25
tp766
atp767
a(S'di'
p768
(dp769
S'CONJ'
p770
F4e-06
sS'ADP'
p771
F0.999996
s(lp772
tp773
a(S'negoziazione'
p774
(dp775
S'NOUN'
p776
F1.0
s(lp777
(g182
I24
tp778
atp779
a(g19
(dp780
g19
F1.0
s(lp781
(g19
I26
tp782
atp783
asS'sk'
p784
(lp785
(S'egypt'
p786
(dp787
S'X'
p788
F1.0
s(lp789
(g14
I0
tp790
atp791
a(g17
(dp792
g19
F1.0
s(lp793
(g17
I1
tp794
atp795
a(S'ktor\xc3\xa9mu'
p796
(dp797
S'PRON'
p798
F1.0
s(lp799
(g27
I2
tp800
atp801
a(S'z'
p802
(dp803
g788
F0.0001
sS'NOUN'
p804
F0.000107
sS'ADP'
p805
F0.999793
s(lp806
(g70
I7
tp807
atp808
a(S'jeho'
p809
(dp810
S'PRON'
p811
F0.999984
sg788
F1.7e-05
s(lp812
(g84
I9
tp813
atp814
a(S'susedstva'
p815
(dp816
S'NOUN'
p817
F1.0
s(lp818
(g91
I10
tp819
atp820
a(S's'
p821
(dp822
g788
F0.012693
sS'CONJ'
p823
F6.6e-05
sS'NOUN'
p824
F1.6e-05
sS'ADP'
p825
F0.987202
sS'PRT'
p826
F2.4e-05
s(lp827
(g107
I14
tp828
atp829
a(S'gazou'
p830
(dp831
S'ADJ'
p832
F0.003058
sg788
F0.022507
sS'NOUN'
p833
F0.974435
s(lp834
(g114
I15
tp835
atp836
a(S'vypl\xc3\xbdva'
p837
(dp838
S'VERB'
p839
F1.0
s(lp840
tp841
a(S'osobit\xc3\xa1'
p842
(dp843
S'ADJ'
p844
F1.0
s(lp845
(g91
I10
tp846
atp847
a(S'zodpovednos\xc5\xa5'
p848
(dp849
S'NOUN'
p850
F1.0
s(lp851
(g49
I6
tp852
atp853
a(g17
(dp854
g19
F1.0
s(lp855
(g17
I16
tp856
atp857
a(S'sa'
p858
(dp859
S'PRT'
p860
F0.99969
sS'ADP'
p861
F0.0
sg788
F0.000311
s(lp862
(g134
I18
tp863
atp864
a(S'mus\xc3\xad'
p865
(dp866
S'VERB'
p867
F1.0
s(lp868
(g126
I17
tp869
atp870
a(S'do'
p871
(dp872
g788
F0.000187
sS'ADP'
p873
F0.999781
sS'PRON'
p874
F3.2e-05
s(lp875
(g156
I22
tp876
atp877
a(S't\xc3\xbdchto'
p878
(dp879
S'PRON'
p880
F1.0
s(lp881
(g163
I23
tp882
atp883
a(S'rokovan\xc3\xad'
p884
(dp885
S'NOUN'
p886
F1.0
s(lp887
(g182
I24
tp888
atp889
a(S'akt\xc3\xadvne'
p890
(dp891
S'ADV'
p892
F0.97382
sS'ADJ'
p893
F0.026180000000000002
s(lp894
(g141
I20
tp895
atp896
a(S'zapoji\xc5\xa5'
p897
(dp898
S'VERB'
p899
F1.0
s(lp900
(g149
I21
tp901
atp902
a(g19
(dp903
g19
F1.0
s(lp904
(g19
I26
tp905
atp906
asS'pl'
p907
(lp908
(S'egipt'
p909
(dp910
S'ADV'
p911
F0.000873
sS'ADJ'
p912
F0.001384
sS'NOUN'
p913
F0.9975550000000002
sg788
F0.000187
s(lp914
(g14
I0
tp915
atp916
a(g17
(dp917
g788
F0.0
sg19
F1.0
s(lp918
(g17
I1
tp919
atp920
a(S'na'
p921
(dp922
g788
F2e-05
sS'VERB'
p923
F4e-06
sS'NOUN'
p924
F1e-06
sS'ADP'
p925
F0.999969
sS'PRT'
p926
F7e-06
s(lp927
tp928
a(S'kt\xc3\xb3rym'
p929
(dp930
S'ADJ'
p931
F0.9999999999999999
s(lp932
(g27
I2
tp933
atp934
a(S'ci\xc4\x85\xc5\xbcy'
p935
(dp936
S'VERB'
p937
F0.839185
sS'NOUN'
p938
F0.16081499999999999
s(lp939
tp940
a(S'szczeg\xc3\xb3lna'
p941
(dp942
S'ADJ'
p943
F1.0
s(lp944
(g57
I5
tp945
atp946
a(S'odpowiedzialno\xc5\x9b\xc4\x87'
p947
(dp948
S'NOUN'
p949
F1.0
s(lp950
(g49
I6
tp951
atp952
a(S'ze'
p953
(dp954
S'PRT'
p955
F4e-05
sS'CONJ'
p956
F6e-06
sS'ADP'
p957
F0.999954
s(lp958
tp959
a(S'wzgl\xc4\x99du'
p960
(dp961
S'NOUN'
p962
F1.0
s(lp963
(g70
I7
tp964
atp965
a(S'na'
p966
(dp967
S'PRT'
p968
F2e-06
sS'VERB'
p969
F1.6e-05
sS'NOUN'
p970
F3e-06
sS'ADP'
p971
F0.999977
sg788
F1e-06
s(lp972
(g77
I8
tp973
atp974
a(S'po\xc5\x82o\xc5\xbcenie'
p975
(dp976
S'VERB'
p977
F0.131058
sS'NOUN'
p978
F0.868942
s(lp979
(g91
I10
tp980
atp981
a(S'na'
p982
(dp983
S'PRT'
p984
F9e-06
sS'VERB'
p985
F4e-06
sS'NOUN'
p986
F1e-05
sS'ADP'
p987
F0.9999730000000001
sg788
F5e-06
s(lp988
(g255
I11
tp989
atp990
a(S'granicy'
p991
(dp992
S'NOUN'
p993
F1.0
s(lp994
(g99
I13
tp995
atp996
a(S'ze'
p997
(dp998
S'PRT'
p999
F0.000229
sS'CONJ'
p1000
F2e-06
sS'ADP'
p1001
F0.999768
s(lp1002
(g107
I14
tp1003
atp1004
a(S'stref\xc4\x85'
p1005
(dp1006
S'NOUN'
p1007
F1.0
s(lp1008
tp1009
a(S'gazy'
p1010
(dp1011
S'NOUN'
p1012
F1.0
s(lp1013
(g114
I15
tp1014
atp1015
a(g17
(dp1016
g788
F1e-06
sg19
F0.999999
s(lp1017
(g17
I16
tp1018
atp1019
a(S'musi'
p1020
(dp1021
S'VERB'
p1022
F1.0
s(lp1023
(g126
I17
tp1024
atp1025
a(S'wzi\xc4\x85\xc4\x87'
p1026
(dp1027
S'VERB'
p1028
F1.0
s(lp1029
(g134
I18
tp1030
atp1031
a(S'aktywny'
p1032
(dp1033
S'ADJ'
p1034
F1.000001
s(lp1035
(g141
I20
tp1036
atp1037
a(S'udzia\xc5\x82'
p1038
(dp1039
S'NOUN'
p1040
F1.0
s(lp1041
(g149
I21
tp1042
atp1043
a(S'w'
p1044
(dp1045
g788
F0.0
sS'ADJ'
p1046
F0.0
sS'ADP'
p1047
F0.999999
sS'NOUN'
p1048
F0.0
s(lp1049
(g156
I22
tp1050
atp1051
a(S'procesie'
p1052
(dp1053
S'NOUN'
p1054
F1.0
s(lp1055
(g170
I25
tp1056
atp1057
a(S'negocjacji'
p1058
(dp1059
S'NOUN'
p1060
F1.0
s(lp1061
(g182
I24
tp1062
atp1063
a(g19
(dp1064
g19
F1.0
s(lp1065
(g19
I26
tp1066
atp1067
asS'sl'
p1068
(lp1069
(S'egipt'
p1070
(dp1071
S'ADV'
p1072
F0.090514
sS'NOUN'
p1073
F0.8884340000000002
sS'VERB'
p1074
F0.000593
sg788
F0.000544
sS'NUM'
p1075
F8.6e-05
sS'ADJ'
p1076
F0.019828999999999992
s(lp1077
(g14
I0
tp1078
atp1079
a(g17
(dp1080
g19
F1.0
s(lp1081
(g17
I1
tp1082
atp1083
a(S'ki'
p1084
(dp1085
S'CONJ'
p1086
F1.0
s(lp1087
(g27
I2
tp1088
atp1089
a(S'zaradi'
p1090
(dp1091
S'ADP'
p1092
F1.0
s(lp1093
(g70
I7
tp1094
atp1095
a(S'svoje'
p1096
(dp1097
S'PRON'
p1098
F1.000001
s(lp1099
(g84
I9
tp1100
atp1101
a(S'mejne'
p1102
(dp1103
S'ADJ'
p1104
F1.0
s(lp1105
(g99
I13
tp1106
atp1107
a(S'lege'
p1108
(dp1109
S'NOUN'
p1110
F1.0
s(lp1111
(g91
I10
tp1112
atp1113
a(g802
(dp1114
S'ADP'
p1115
F1.0
s(lp1116
(g107
I14
tp1117
atp1118
a(S'gazo'
p1119
(dp1120
S'ADJ'
p1121
F2e-06
sS'NOUN'
p1122
F0.999999
s(lp1123
(g114
I15
tp1124
atp1125
a(S'nosi'
p1126
(dp1127
S'VERB'
p1128
F1.0
s(lp1129
(g34
I3
tp1130
atp1131
a(S'posebno'
p1132
(dp1133
S'ADV'
p1134
F0.004296
sS'ADJ'
p1135
F0.995704
s(lp1136
(g57
I5
tp1137
atp1138
a(S'odgovornost'
p1139
(dp1140
S'NOUN'
p1141
F1.0
s(lp1142
(g49
I6
tp1143
atp1144
a(g17
(dp1145
g19
F1.0
s(lp1146
(g17
I16
tp1147
atp1148
a(S'mora'
p1149
(dp1150
S'VERB'
p1151
F0.996358
sS'NOUN'
p1152
F0.003642
s(lp1153
(g126
I17
tp1154
atp1155
a(S'igrati'
p1156
(dp1157
S'VERB'
p1158
F1.0
s(lp1159
(g134
I18
tp1160
atp1161
a(S'aktivno'
p1162
(dp1163
S'ADV'
p1164
F0.008462
sS'ADJ'
p1165
F0.9915379999999999
s(lp1166
(g141
I20
tp1167
atp1168
a(S'vlogo'
p1169
(dp1170
S'NOUN'
p1171
F1.0
s(lp1172
(g149
I21
tp1173
atp1174
a(S'v'
p1175
(dp1176
S'ADP'
p1177
F1.0
s(lp1178
(g156
I22
tp1179
atp1180
a(S'tem'
p1181
(dp1182
S'ADV'
p1183
F0.000137
sS'PRON'
p1184
F0.999862
sS'NOUN'
p1185
F1e-06
s(lp1186
(g163
I23
tp1187
atp1188
a(S'pogajalskem'
p1189
(dp1190
S'ADV'
p1191
F8e-06
sS'NOUN'
p1192
F0.00024700000000000004
sS'VERB'
p1193
F0.000199
sS'ADJ'
p1194
F0.9995459999999999
s(lp1195
(g182
I24
tp1196
atp1197
a(S'procesu'
p1198
(dp1199
S'NOUN'
p1200
F1.0
s(lp1201
(g170
I25
tp1202
atp1203
a(g19
(dp1204
g19
F1.0
s(lp1205
(g19
I26
tp1206
atp1207
asS'es'
p1208
(lp1209
(S'egipto'
p1210
(dp1211
S'ADJ'
p1212
F0.000296
sS'NOUN'
p1213
F0.999704
s(lp1214
(g14
I0
tp1215
atp1216
a(S'tiene'
p1217
(dp1218
S'VERB'
p1219
F1.0
s(lp1220
tp1221
a(S'que'
p1222
(dp1223
S'VERB'
p1224
F1.0
s(lp1225
(g126
I17
tp1226
atp1227
a(S'participar'
p1228
(dp1229
S'VERB'
p1230
F1.0
s(lp1231
(g149
I21
tp1232
atp1233
a(S'activamente'
p1234
(dp1235
S'ADV'
p1236
F1.0
s(lp1237
(g141
I20
tp1238
atp1239
a(S'en'
p1240
(dp1241
g788
F0.0
sS'CONJ'
p1242
F4e-06
sS'ADP'
p1243
F0.999996
s(lp1244
(g156
I22
tp1245
atp1246
a(S'este'
p1247
(dp1248
S'PRON'
p1249
F0.999828
sS'NOUN'
p1250
F0.000172
s(lp1251
(g163
I23
tp1252
atp1253
a(S'proceso'
p1254
(dp1255
S'NOUN'
p1256
F1.0
s(lp1257
(g170
I25
tp1258
atp1259
a(S'de'
p1260
(dp1261
g788
F2.9e-05
sS'CONJ'
p1262
F0.000449
sS'ADP'
p1263
F0.999522
s(lp1264
tp1265
a(S'negociaci\xc3\xb3n'
p1266
(dp1267
S'NOUN'
p1268
F1.0
s(lp1269
(g182
I24
tp1270
atp1271
a(g17
(dp1272
g19
F1.0
s(lp1273
(g17
I1
tp1274
atp1275
a(S'ya'
p1276
(dp1277
S'CONJ'
p1278
F1.0
s(lp1279
tp1280
a(S'que'
p1281
(dp1282
S'CONJ'
p1283
F1.0
s(lp1284
(g27
I2
tp1285
atp1286
a(S'tiene'
p1287
(dp1288
S'VERB'
p1289
F1.0
s(lp1290
(g34
I3
tp1291
atp1292
a(S'una'
p1293
(dp1294
S'DET'
p1295
F1.0
s(lp1296
(g30
I4
tp1297
atp1298
a(S'responsabilidad'
p1299
(dp1300
S'NOUN'
p1301
F1.0
s(lp1302
(g49
I6
tp1303
atp1304
a(S'particular'
p1305
(dp1306
g788
F0.000253
sS'ADJ'
p1307
F0.999747
s(lp1308
(g57
I5
tp1309
atp1310
a(S'por'
p1311
(dp1312
S'ADP'
p1313
F1.0
s(lp1314
(g70
I7
tp1315
atp1316
a(S'su'
p1317
(dp1318
S'PRON'
p1319
F1.0
s(lp1320
(g84
I9
tp1321
atp1322
a(S'situaci\xc3\xb3n'
p1323
(dp1324
S'NOUN'
p1325
F1.0
s(lp1326
(g91
I10
tp1327
atp1328
a(S'fronteriza'
p1329
(dp1330
S'ADJ'
p1331
F1.0
s(lp1332
(g99
I13
tp1333
atp1334
a(S'con'
p1335
(dp1336
S'ADP'
p1337
F1.0
s(lp1338
(g107
I14
tp1339
atp1340
a(S'gaza'
p1341
(dp1342
S'ADJ'
p1343
F0.078258
sS'VERB'
p1344
F6e-06
sS'NOUN'
p1345
F0.921737
s(lp1346
(g114
I15
tp1347
atp1348
a(g19
(dp1349
g19
F1.0
s(lp1350
(g19
I26
tp1351
atp1352
as.