(dp0
S'fr'
p1
(lp2
(S'je'
p3
(dp4
S'PRON'
p5
F1.0
s(lp6
(S'i'
p7
I0
tp8
atp9
a(S'voudrais'
p10
(dp11
S'VERB'
p12
F1.0
s(lp13
(S'like'
p14
I2
tp15
atp16
a(S','
p17
(dp18
S'.'
p19
F1.0
s(lp20
tp21
a(S'en'
p22
(dp23
S'PRON'
p24
F0.008452
sS'ADP'
p25
F0.991548
s(lp26
(S'to'
p27
I3
tp28
atp29
a(S'votre'
p30
(dp31
S'PRON'
p32
F1.0
s(lp33
(S'you'
p34
I11
tp35
atp36
a(S'nom'
p37
(dp38
S'NOUN'
p39
F1.0
s(lp40
(S'behalf'
p41
I9
tp42
atp43
a(S'\xc3\xa0'
p44
(dp45
S'ADP'
p46
F1.0
s(lp47
(S'to'
p48
I13
tp49
atp50
a(S'tous'
p51
(dp52
S'PRON'
p53
F0.994712
sS'NOUN'
p54
F0.005288
s(lp55
(S'all'
p56
I12
tp57
atp58
a(g17
(dp59
g19
F1.0
s(lp60
(S'my'
p61
I5
tp62
atp63
a(S'remercier'
p64
(dp65
S'VERB'
p66
F1.0
s(lp67
(S'thanks'
p68
I7
tp69
atp70
a(S'sinc\xc3\xa8rement'
p71
(dp72
S'ADV'
p73
F1.0
s(lp74
(S'sincere'
p75
I6
tp76
atp77
a(S'ces'
p78
(dp79
S'PRON'
p80
F1.0
s(lp81
(S'these'
p82
I14
tp83
atp84
a(S'quatre'
p85
(dp86
S'NUM'
p87
F0.999575
sS'NOUN'
p88
F0.000425
s(lp89
(S'four'
p90
I15
tp91
atp92
a(S'personnes'
p93
(dp94
S'NOUN'
p95
F1.0
s(lp96
(S'members'
p97
I22
tp98
atp99
a(g17
(dp100
g19
F1.0
s(lp101
tp102
a(S'ainsi'
p103
(dp104
S'ADV'
p105
F0.440732
sS'CONJ'
p106
F0.559268
s(lp107
(S'and'
p108
I16
tp109
atp110
a(S'que'
p111
(dp112
S'ADV'
p113
F0.037438
sS'PRON'
p114
F0.049825
sS'CONJ'
p115
F0.912738
s(lp116
(S'to'
p117
I17
tp118
atp119
a(S'tous'
p120
(dp121
S'PRON'
p122
F0.999996
sS'NOUN'
p123
F4e-06
s(lp124
(S'all'
p125
I18
tp126
atp127
a(S'les'
p128
(dp129
S'PRON'
p130
F0.000164
sS'DET'
p131
F0.999832
sS'ADP'
p132
F4e-06
s(lp133
tp134
a(S'autres'
p135
(dp136
S'ADJ'
p137
F1.0
s(lp138
(S'other'
p139
I19
tp140
atp141
a(S'coll\xc3\xa8gues'
p142
(dp143
S'NOUN'
p144
F1.0
s(lp145
(S'fellow'
p146
I21
tp147
atp148
a(S'qui'
p149
(dp150
S'PRON'
p151
F1.0
s(lp152
(S'departing'
p153
I20
tp154
atp155
a(S'vont'
p156
(dp157
S'VERB'
p158
F1.0
s(lp159
(g153
I20
tp160
atp161
a(S'nous'
p162
(dp163
S'PRON'
p164
F1.0
s(lp165
(g153
I20
tp166
atp167
a(S'quitter'
p168
(dp169
S'VERB'
p170
F1.0
s(lp171
tp172
a(g17
(dp173
g19
F1.0
s(lp174
tp175
a(S'pour'
p176
(dp177
S'CONJ'
p178
F0.253102
sS'ADP'
p179
F0.746898
s(lp180
(S'for'
p181
I23
tp182
atp183
a(S'la'
p184
(dp185
S'PRON'
p186
F3.5e-05
sS'DET'
p187
F0.999965
sS'NOUN'
p188
F0.0
s(lp189
tp190
a(S'profondeur'
p191
(dp192
S'NOUN'
p193
F1.0
s(lp194
(g153
I20
tp195
atp196
a(S'de'
p197
(dp198
S'ADP'
p199
F1.0
s(lp200
(S'of'
p201
I10
tp202
atp203
a(S'leur'
p204
(dp205
S'PRON'
p206
F1.0
s(lp207
(S'their'
p208
I24
tp209
atp210
a(S'engagement'
p211
(dp212
S'NOUN'
p213
F1.0
s(lp214
(S'commitment'
p215
I26
tp216
atp217
a(g19
(dp218
g19
F1.0
s(lp219
(g19
I27
tp220
atp221
asS'en'
p222
(lp223
(g7
(dp224
S'X'
p225
F0.024389
sS'NOUN'
p226
F0.97561
s(lp227
(g7
I0
tp228
atp229
a(S'should'
p230
(dp231
S'VERB'
p232
F1.0
s(lp233
(g230
I1
tp234
atp235
a(g14
(dp236
S'VERB'
p237
F0.9997360000000001
sS'ADJ'
p238
F3.1e-05
sS'ADP'
p239
F0.000233
s(lp240
(g14
I2
tp241
atp242
a(g27
(dp243
S'ADV'
p244
F0.0
sS'PRT'
p245
F1.0
sS'ADP'
p246
F0.0
s(lp247
(g27
I3
tp248
atp249
a(S'extend'
p250
(dp251
S'VERB'
p252
F1.0
s(lp253
(g250
I4
tp254
atp255
a(g61
(dp256
S'PRON'
p257
F1.0
s(lp258
(g61
I5
tp259
atp260
a(g75
(dp261
S'ADJ'
p262
F1.0
s(lp263
(g75
I6
tp264
atp265
a(g68
(dp266
S'VERB'
p267
F1.5e-05
sS'NOUN'
p268
F0.999985
s(lp269
(g68
I7
tp270
atp271
a(S'on'
p272
(dp273
S'ADV'
p274
F0.000401
sS'PRT'
p275
F0.000304
sS'ADJ'
p276
F5e-06
sS'ADP'
p277
F0.999289
sS'NOUN'
p278
F0.0
s(lp279
(g272
I8
tp280
atp281
a(g41
(dp282
S'NOUN'
p283
F1.0
s(lp284
(g41
I9
tp285
atp286
a(g201
(dp287
S'ADP'
p288
F1.0
s(lp289
(g201
I10
tp290
atp291
a(g34
(dp292
S'PRON'
p293
F1.0
s(lp294
(g34
I11
tp295
atp296
a(g56
(dp297
S'ADV'
p298
F0.994025
sS'DET'
p299
F0.005974
s(lp300
(g56
I12
tp301
atp302
a(g48
(dp303
S'ADV'
p304
F6e-06
sS'PRT'
p305
F0.99998
sS'ADP'
p306
F1.4e-05
s(lp307
(g48
I13
tp308
atp309
a(g82
(dp310
S'NOUN'
p311
F1e-06
sS'DET'
p312
F0.999999
s(lp313
(g82
I14
tp314
atp315
a(g90
(dp316
S'NUM'
p317
F0.993324
sS'NOUN'
p318
F0.006676
s(lp319
(g90
I15
tp320
atp321
a(g108
(dp322
S'CONJ'
p323
F0.999207
sS'NOUN'
p324
F0.000793
s(lp325
(g108
I16
tp326
atp327
a(g117
(dp328
S'ADV'
p329
F6.8e-05
sS'PRT'
p330
F0.99982
sS'ADP'
p331
F0.000111
s(lp332
(g117
I17
tp333
atp334
a(g125
(dp335
S'ADV'
p336
F0.00701
sS'DET'
p337
F0.99299
s(lp338
(g125
I18
tp339
atp340
a(g139
(dp341
S'ADV'
p342
F6.7e-05
sS'NOUN'
p343
F0.000226
sS'ADJ'
p344
F0.999707
s(lp345
(g139
I19
tp346
atp347
a(g153
(dp348
S'VERB'
p349
F1.0
s(lp350
(g153
I20
tp351
atp352
a(g146
(dp353
S'NOUN'
p354
F0.234151
sS'VERB'
p355
F8.599999999999999e-05
sS'ADJ'
p356
F0.765764
s(lp357
(g146
I21
tp358
atp359
a(g97
(dp360
S'NOUN'
p361
F1.0
s(lp362
(g97
I22
tp363
atp364
a(g181
(dp365
S'ADP'
p366
F1.0
s(lp367
(g181
I23
tp368
atp369
a(g208
(dp370
S'PRON'
p371
F1.0
s(lp372
(g208
I24
tp373
atp374
a(S'huge'
p375
(dp376
S'ADJ'
p377
F1.0
s(lp378
(g375
I25
tp379
atp380
a(g215
(dp381
S'NOUN'
p382
F1.0
s(lp383
(g215
I26
tp384
atp385
a(g19
(dp386
g19
F1.0
s(lp387
(g19
I27
tp388
atp389
asS'nl'
p390
(lp391
(S'deze'
p392
(dp393
S'PRON'
p394
F1.0
s(lp395
(g82
I14
tp396
atp397
a(S'vier'
p398
(dp399
S'NUM'
p400
F0.999198
sS'VERB'
p401
F0.000802
s(lp402
(g90
I15
tp403
atp404
a(S'collega'
p405
(dp406
S'NOUN'
p407
F1.0
s(lp408
(g146
I21
tp409
atp410
a(S"'"
p411
(dp412
g19
F1.0
s(lp413
(g146
I21
tp414
atp415
a(S's'
p416
(dp417
S'NOUN'
p418
F1.0
s(lp419
(g146
I21
tp420
atp421
a(S'en'
p422
(dp423
S'CONJ'
p424
F1.0
s(lp425
(g108
I16
tp426
atp427
a(S'alle'
p428
(dp429
S'PRON'
p430
F1.0
s(lp431
(g125
I18
tp432
atp433
a(S'andere'
p434
(dp435
S'NOUN'
p436
F0.003784
sS'ADJ'
p437
F0.996216
s(lp438
(g139
I19
tp439
atp440
a(S'collega'
p441
(dp442
S'NOUN'
p443
F1.0
s(lp444
(g146
I21
tp445
atp446
a(g411
(dp447
g19
F1.0
s(lp448
tp449
a(g416
(dp450
S'NOUN'
p451
F1.0
s(lp452
(g146
I21
tp453
atp454
a(S'die'
p455
(dp456
S'PRON'
p457
F1.0
s(lp458
tp459
a(S'ons'
p460
(dp461
S'PRON'
p462
F0.9991619999999999
sS'NOUN'
p463
F0.000838
s(lp464
(g153
I20
tp465
atp466
a(S'gaan'
p467
(dp468
S'VERB'
p469
F0.999373
sS'NOUN'
p470
F0.000627
s(lp471
tp472
a(S'verlaten'
p473
(dp474
S'VERB'
p475
F0.9986210000000001
sS'NOUN'
p476
F0.0013800000000000002
s(lp477
(g153
I20
tp478
atp479
a(g17
(dp480
g19
F1.0
s(lp481
tp482
a(S'wil'
p483
(dp484
S'VERB'
p485
F0.999469
sS'NOUN'
p486
F0.000531
s(lp487
(g14
I2
tp488
atp489
a(S'ik'
p490
(dp491
S'PRON'
p492
F0.999994
sS'NOUN'
p493
F6e-06
s(lp494
(g7
I0
tp495
atp496
a(S'namens'
p497
(dp498
S'ADP'
p499
F1.0
s(lp500
(g41
I9
tp501
atp502
a(S'u'
p503
(dp504
S'PRON'
p505
F0.999942
sS'NOUN'
p506
F5.6999999999999996e-05
s(lp507
(g34
I11
tp508
atp509
a(S'allen'
p510
(dp511
S'PRON'
p512
F1.0
s(lp513
(g56
I12
tp514
atp515
a(S'dankzeggen'
p516
(dp517
S'VERB'
p518
F0.9962249999999999
sS'NOUN'
p519
F0.003776
s(lp520
(g68
I7
tp521
atp522
a(S'voor'
p523
(dp524
S'ADV'
p525
F0.000289
sS'CONJ'
p526
F3.4e-05
sS'NOUN'
p527
F0.0
sS'ADP'
p528
F0.999677
s(lp529
(g181
I23
tp530
atp531
a(S'hun'
p532
(dp533
S'PRON'
p534
F1.0
s(lp535
(g208
I24
tp536
atp537
a(S'grote'
p538
(dp539
S'NOUN'
p540
F0.000267
sS'ADJ'
p541
F0.999733
s(lp542
(g375
I25
tp543
atp544
a(S'inzet'
p545
(dp546
S'VERB'
p547
F0.009033
sS'NOUN'
p548
F0.990967
s(lp549
(g215
I26
tp550
atp551
a(g19
(dp552
g19
F1.0
s(lp553
(g19
I27
tp554
atp555
asS'de'
p556
(lp557
(S'ich'
p558
(dp559
S'PRON'
p560
F1.0
s(lp561
(g7
I0
tp562
atp563
a(S'm\xc3\xb6chte'
p564
(dp565
S'VERB'
p566
F1.0
s(lp567
(g14
I2
tp568
atp569
a(S'diesen'
p570
(dp571
S'PRON'
p572
F1.0
s(lp573
(g82
I14
tp574
atp575
a(S'vier'
p576
(dp577
S'NUM'
p578
F1.0
s(lp579
(g90
I15
tp580
atp581
a(S'und'
p582
(dp583
S'CONJ'
p584
F1.0
s(lp585
(g108
I16
tp586
atp587
a(S'allen'
p588
(dp589
S'PRON'
p590
F1.0
s(lp591
(g125
I18
tp592
atp593
a(S'ausscheidenden'
p594
(dp595
S'ADJ'
p596
F1.0
s(lp597
(g153
I20
tp598
atp599
a(S'kolleginnen'
p600
(dp601
S'ADJ'
p602
F1.0
s(lp603
tp604
a(S'und'
p605
(dp606
S'CONJ'
p607
F1.0
s(lp608
(g146
I21
tp609
atp610
a(S'kollegen'
p611
(dp612
S'VERB'
p613
F0.56461
sS'NOUN'
p614
F0.396974
s(lp615
(g97
I22
tp616
atp617
a(S'in'
p618
(dp619
S'ADP'
p620
F1.0
s(lp621
(g48
I13
tp622
atp623
a(S'ihrer'
p624
(dp625
S'PRON'
p626
F1.0
s(lp627
(g34
I11
tp628
atp629
a(S'aller'
p630
(dp631
S'PRON'
p632
F1.0
s(lp633
(g56
I12
tp634
atp635
a(S'namen'
p636
(dp637
S'ADJ'
p638
F0.000159
sS'NOUN'
p639
F0.999692
s(lp640
(g41
I9
tp641
atp642
a(S'ein'
p643
(dp644
S'PRT'
p645
F0.001542
sS'DET'
p646
F0.998179
s(lp647
(g61
I5
tp648
atp649
a(S'herzliches'
p650
(dp651
S'ADJ'
p652
F1.0
s(lp653
tp654
a(S'wort'
p655
(dp656
S'ADJ'
p657
F0.001552
sS'NOUN'
p658
F0.997331
s(lp659
(g75
I6
tp660
atp661
a(S'des'
p662
(dp663
S'DET'
p664
F1.0
s(lp665
(g201
I10
tp666
atp667
a(S'dankes'
p668
(dp669
S'ADJ'
p670
F0.344958
sS'NOUN'
p671
F0.528633
s(lp672
tp673
a(S'f\xc3\xbcr'
p674
(dp675
S'ADP'
p676
F1.0
s(lp677
(g181
I23
tp678
atp679
a(S'ihr'
p680
(dp681
S'PRON'
p682
F1.0
s(lp683
(g208
I24
tp684
atp685
a(S'gro\xc3\x9fes'
p686
(dp687
S'ADJ'
p688
F1.0
s(lp689
(g375
I25
tp690
atp691
a(S'engagement'
p692
(dp693
S'ADJ'
p694
F1.9e-05
sS'NOUN'
p695
F0.999968
s(lp696
(g215
I26
tp697
atp698
a(S'sagen'
p699
(dp700
S'VERB'
p701
F1.0
s(lp702
(g68
I7
tp703
atp704
a(g19
(dp705
g19
F1.0
s(lp706
(g19
I27
tp707
atp708
asS'it'
p709
(lp710
(S'mi'
p711
(dp712
S'PRON'
p713
F1.0
s(lp714
(g7
I0
tp715
atp716
a(S'preme'
p717
(dp718
S'VERB'
p719
F1.0
s(lp720
(g14
I2
tp721
atp722
a(S'estendere'
p723
(dp724
S'VERB'
p725
F1.0
s(lp726
(g250
I4
tp727
atp728
a(g7
(dp729
S'DET'
p730
F1.0
s(lp731
tp732
a(S'miei'
p733
(dp734
S'PRON'
p735
F1.0
s(lp736
(g61
I5
tp737
atp738
a(S'pi\xc3\xb9'
p739
(dp740
S'ADV'
p741
F0.973531
sS'NOUN'
p742
F0.00424
sS'ADJ'
p743
F0.022213
sS'ADP'
p744
F1.6e-05
s(lp745
tp746
a(S'sinceri'
p747
(dp748
S'NOUN'
p749
F0.004247
sS'VERB'
p750
F0.015747
sS'ADJ'
p751
F0.980006
s(lp752
(g75
I6
tp753
atp754
a(S'ringraziamenti'
p755
(dp756
S'NOUN'
p757
F1.0
s(lp758
(g68
I7
tp759
atp760
a(S'a'
p761
(dp762
S'CONJ'
p763
F0.000215
sS'ADP'
p764
F0.999785
s(lp765
tp766
a(S'nome'
p767
(dp768
S'NOUN'
p769
F1.0
s(lp770
(g41
I9
tp771
atp772
a(S'di'
p773
(dp774
S'CONJ'
p775
F2.9e-05
sS'ADP'
p776
F0.999971
s(lp777
(g201
I10
tp778
atp779
a(S'tutti'
p780
(dp781
S'PRON'
p782
F0.781355
sS'ADJ'
p783
F0.218645
s(lp784
(g56
I12
tp785
atp786
a(S'voi'
p787
(dp788
S'PRON'
p789
F0.000271
sS'NOUN'
p790
F0.999729
s(lp791
(g34
I11
tp792
atp793
a(g761
(dp794
S'CONJ'
p795
F0.001331
sS'ADP'
p796
F0.998669
s(lp797
(g48
I13
tp798
atp799
a(S'questi'
p800
(dp801
S'PRON'
p802
F1.0
s(lp803
(g82
I14
tp804
atp805
a(S'quattro'
p806
(dp807
S'NOUN'
p808
F0.023413
sS'NUM'
p809
F0.00012
sS'ADJ'
p810
F0.976467
s(lp811
(g90
I15
tp812
atp813
a(S'europarlamentari'
p814
(dp815
S'NOUN'
p816
F1.0
s(lp817
(g153
I20
tp818
atp819
a(S'e'
p820
(dp821
S'CONJ'
p822
F1.0
s(lp823
(g108
I16
tp824
atp825
a(g761
(dp826
S'CONJ'
p827
F0.00083
sS'ADP'
p828
F0.99917
s(lp829
(g117
I17
tp830
atp831
a(S'tutti'
p832
(dp833
S'PRON'
p834
F0.710527
sS'ADJ'
p835
F0.289473
s(lp836
(g125
I18
tp837
atp838
a(S'gli'
p839
(dp840
S'PRON'
p841
F0.000114
sS'DET'
p842
F0.999886
s(lp843
tp844
a(S'altri'
p845
(dp846
S'PRON'
p847
F0.324763
sS'ADJ'
p848
F0.415814
sS'NOUN'
p849
F0.259423
s(lp850
(g139
I19
tp851
atp852
a(S'onorevoli'
p853
(dp854
S'NOUN'
p855
F0.092397
sS'ADJ'
p856
F0.907603
s(lp857
(g97
I22
tp858
atp859
a(S'colleghi'
p860
(dp861
S'VERB'
p862
F0.022588
sS'NOUN'
p863
F0.977412
s(lp864
(g146
I21
tp865
atp866
a(S'che'
p867
(dp868
S'PRON'
p869
F0.754357
sS'CONJ'
p870
F0.24376
sS'ADJ'
p871
F0.001883
s(lp872
(g181
I23
tp873
atp874
a(S'non'
p875
(dp876
S'ADV'
p877
F1.0
s(lp878
(g153
I20
tp879
atp880
a(S'saranno'
p881
(dp882
S'VERB'
p883
F1.0
s(lp884
(g153
I20
tp885
atp886
a(S'pi\xc3\xb9'
p887
(dp888
S'ADV'
p889
F0.995688
sS'NOUN'
p890
F5.2e-05
sS'ADJ'
p891
F0.004242
sS'ADP'
p892
F1.8e-05
s(lp893
tp894
a(S'con'
p895
(dp896
S'ADP'
p897
F1.0
s(lp898
tp899
a(S'noi'
p900
(dp901
S'PRON'
p902
F1.0
s(lp903
(g153
I20
tp904
atp905
a(S'per'
p906
(dp907
S'CONJ'
p908
F0.091851
sS'ADP'
p909
F0.908149
s(lp910
tp911
a(S"l'"
p912
(dp913
S'NOUN'
p914
F0.009438
sS'VERB'
p915
F0.9673970000000003
sS'ADJ'
p916
F0.023166
s(lp917
tp918
a(S'impegno'
p919
(dp920
S'VERB'
p921
F0.017261
sS'NOUN'
p922
F0.982739
s(lp923
tp924
a(S'enorme'
p925
(dp926
S'ADJ'
p927
F1.0
s(lp928
(g375
I25
tp929
atp930
a(S'da'
p931
(dp932
S'ADP'
p933
F1.0
s(lp934
(g181
I23
tp935
atp936
a(S'essi'
p937
(dp938
S'PRON'
p939
F1.0
s(lp940
(g208
I24
tp941
atp942
a(S'profuso'
p943
(dp944
S'VERB'
p945
F0.853192
sS'ADJ'
p946
F0.146808
s(lp947
(g215
I26
tp948
atp949
a(g19
(dp950
g19
F1.0
s(lp951
(g19
I27
tp952
atp953
asS'sk'
p954
(lp955
(S'moja'
p956
(dp957
S'PRON'
p958
F0.999711
sg225
F0.000289
s(lp959
(g61
I5
tp960
atp961
a(S'\xc3\xbaprimn\xc3\xa1'
p962
(dp963
S'ADJ'
p964
F1.0
s(lp965
(g75
I6
tp966
atp967
a(S'v\xc4\x8faka'
p968
(dp969
S'NOUN'
p970
F0.999998
sS'ADP'
p971
F2e-06
s(lp972
tp973
a(S'patr\xc3\xad'
p974
(dp975
S'VERB'
p976
F1.0
s(lp977
(g68
I7
tp978
atp979
a(S'v'
p980
(dp981
g225
F0.000468
sS'ADP'
p982
F0.999531
s(lp983
tp984
a(S'mene'
p985
(dp986
S'NOUN'
p987
F1.0
s(lp988
(g41
I9
tp989
atp990
a(S'v\xc3\xa1s'
p991
(dp992
S'PRON'
p993
F0.99992
sg225
F8e-05
s(lp994
(g34
I11
tp995
atp996
a(S'v\xc5\xa1etk\xc3\xbdch'
p997
(dp998
S'PRON'
p999
F1.0
s(lp1000
(g56
I12
tp1001
atp1002
a(S't\xc3\xbdmto'
p1003
(dp1004
S'PRON'
p1005
F1.0
s(lp1006
(g82
I14
tp1007
atp1008
a(S'\xc5\xa1tyrom'
p1009
(dp1010
S'NUM'
p1011
F1.0
s(lp1012
(g90
I15
tp1013
atp1014
a(S'poslancom'
p1015
(dp1016
S'NOUN'
p1017
F1.0
s(lp1018
tp1019
a(g17
(dp1020
g19
F1.0
s(lp1021
tp1022
a(S'ako'
p1023
(dp1024
S'PRON'
p1025
F0.025694
sS'CONJ'
p1026
F0.974172
sg225
F0.000134
s(lp1027
(g108
I16
tp1028
atp1029
a(S'aj'
p1030
(dp1031
g225
F0.589242
sS'CONJ'
p1032
F0.410758
s(lp1033
(g117
I17
tp1034
atp1035
a(S'v\xc5\xa1etk\xc3\xbdm'
p1036
(dp1037
S'PRON'
p1038
F0.9997229999999999
sg225
F0.000277
s(lp1039
(g125
I18
tp1040
atp1041
a(S'\xc4\x8fal\xc5\xa1\xc3\xadm'
p1042
(dp1043
S'ADJ'
p1044
F1.0
s(lp1045
(g139
I19
tp1046
atp1047
a(S'odch\xc3\xa1dzaj\xc3\xbacim'
p1048
(dp1049
S'NOUN'
p1050
F0.254747
sS'VERB'
p1051
F0.16204300000000005
sS'ADJ'
p1052
F0.583209
s(lp1053
(g153
I20
tp1054
atp1055
a(S'poslancom'
p1056
(dp1057
S'NOUN'
p1058
F1.0
s(lp1059
(g97
I22
tp1060
atp1061
a(S'za'
p1062
(dp1063
S'PRT'
p1064
F0.000161
sS'ADP'
p1065
F0.999819
sg225
F2e-05
s(lp1066
(g181
I23
tp1067
atp1068
a(S'ich'
p1069
(dp1070
S'PRON'
p1071
F1.0
s(lp1072
(g208
I24
tp1073
atp1074
a(S'obrovsk\xc3\xba'
p1075
(dp1076
S'ADJ'
p1077
F1.0
s(lp1078
(g375
I25
tp1079
atp1080
a(S'anga\xc5\xbeovanos\xc5\xa5'
p1081
(dp1082
S'NOUN'
p1083
F1.0
s(lp1084
(g215
I26
tp1085
atp1086
a(g19
(dp1087
g19
F1.0
s(lp1088
(g19
I27
tp1089
atp1090
asS'pl'
p1091
(lp1092
(S'w'
p1093
(dp1094
S'ADJ'
p1095
F0.0
sg225
F0.0
sS'NOUN'
p1096
F0.0
sS'ADP'
p1097
F1.0
s(lp1098
(g272
I8
tp1099
atp1100
a(S'imieniu'
p1101
(dp1102
S'NOUN'
p1103
F1.0
s(lp1104
(g41
I9
tp1105
atp1106
a(S'wszystkich'
p1107
(dp1108
S'NOUN'
p1109
F0.156791
sS'ADJ'
p1110
F0.8432099999999999
s(lp1111
(g56
I12
tp1112
atp1113
a(S'pa\xc5\x84stwa'
p1114
(dp1115
S'NOUN'
p1116
F1.0
s(lp1117
(g34
I11
tp1118
atp1119
a(S'chcia\xc5\x82bym'
p1120
(dp1121
S'ADV'
p1122
F0.016379
sS'ADJ'
p1123
F0.004466
sS'VERB'
p1124
F0.9196639999999997
sS'NOUN'
p1125
F0.05949
s(lp1126
(g14
I2
tp1127
atp1128
a(S'serdecznie'
p1129
(dp1130
S'ADV'
p1131
F1.0
s(lp1132
(g75
I6
tp1133
atp1134
a(S'podzi\xc4\x99kowa\xc4\x87'
p1135
(dp1136
S'VERB'
p1137
F1.0
s(lp1138
(g68
I7
tp1139
atp1140
a(S'tej'
p1141
(dp1142
S'PRON'
p1143
F0.000185
sS'ADJ'
p1144
F0.9997639999999999
sg225
F5.1e-05
s(lp1145
(g82
I14
tp1146
atp1147
a(S'czw\xc3\xb3rce'
p1148
(dp1149
S'ADV'
p1150
F6e-06
sS'ADJ'
p1151
F8.799999999999998e-05
sS'VERB'
p1152
F4.0999999999999994e-05
sS'NOUN'
p1153
F0.9998670000000001
s(lp1154
(g90
I15
tp1155
atp1156
a(S'oraz'
p1157
(dp1158
S'CONJ'
p1159
F1.0
s(lp1160
(g108
I16
tp1161
atp1162
a(S'wszystkim'
p1163
(dp1164
S'NOUN'
p1165
F0.171095
sS'ADJ'
p1166
F0.8289059999999999
s(lp1167
(g125
I18
tp1168
atp1169
a(S'odchodz\xc4\x85cym'
p1170
(dp1171
S'ADV'
p1172
F2e-06
sS'NOUN'
p1173
F0.3480259999999998
sS'VERB'
p1174
F0.025077000000000006
sS'ADJ'
p1175
F0.626892
s(lp1176
(g153
I20
tp1177
atp1178
a(S'pos\xc5\x82om'
p1179
(dp1180
S'NOUN'
p1181
F1.0
s(lp1182
(g97
I22
tp1183
atp1184
a(S'za'
p1185
(dp1186
S'PRT'
p1187
F0.003894
sS'VERB'
p1188
F0.00010099999999999999
sS'NOUN'
p1189
F5.7e-05
sS'ADP'
p1190
F0.995915
sg225
F3.3e-05
s(lp1191
(g181
I23
tp1192
atp1193
a(S'ich'
p1194
(dp1195
S'PRON'
p1196
F0.999972
sg225
F2.8e-05
s(lp1197
(g208
I24
tp1198
atp1199
a(S'ogromny'
p1200
(dp1201
S'ADJ'
p1202
F1.0000010000000001
s(lp1203
(g375
I25
tp1204
atp1205
a(S'wk\xc5\x82ad'
p1206
(dp1207
S'NOUN'
p1208
F1.0
s(lp1209
(g215
I26
tp1210
atp1211
a(g19
(dp1212
g19
F1.0
s(lp1213
(g19
I27
tp1214
atp1215
asS'sl'
p1216
(lp1217
(g980
(dp1218
S'ADP'
p1219
F1.0
s(lp1220
tp1221
a(S'imenu'
p1222
(dp1223
S'NOUN'
p1224
F1.0
s(lp1225
(g41
I9
tp1226
atp1227
a(S'vseh'
p1228
(dp1229
S'PRON'
p1230
F1.0000000000000002
s(lp1231
(g56
I12
tp1232
atp1233
a(S'se'
p1234
(dp1235
S'PRON'
p1236
F0.999991
sg225
F9e-06
s(lp1237
(g250
I4
tp1238
atp1239
a(S'jim'
p1240
(dp1241
S'PRON'
p1242
F1.0
s(lp1243
tp1244
a(S'iskreno'
p1245
(dp1246
S'ADV'
p1247
F0.998843
sS'ADJ'
p1248
F0.001157
s(lp1249
(g75
I6
tp1250
atp1251
a(S'zahvaljujem'
p1252
(dp1253
S'VERB'
p1254
F1.0
s(lp1255
(g68
I7
tp1256
atp1257
a(S'za'
p1258
(dp1259
S'ADV'
p1260
F4e-06
sg225
F1e-06
sS'ADP'
p1261
F0.999995
s(lp1262
(g181
I23
tp1263
atp1264
a(S'njihovo'
p1265
(dp1266
S'PRON'
p1267
F0.9999989999999999
s(lp1268
(g208
I24
tp1269
atp1270
a(S'veliko'
p1271
(dp1272
S'ADV'
p1273
F0.011888
sS'ADJ'
p1274
F0.988113
s(lp1275
(g375
I25
tp1276
atp1277
a(S'predanost'
p1278
(dp1279
S'NOUN'
p1280
F1.0
s(lp1281
(g215
I26
tp1282
atp1283
a(g17
(dp1284
g19
F1.0
s(lp1285
tp1286
a(S'prav'
p1287
(dp1288
S'ADV'
p1289
F0.123288
sS'PRT'
p1290
F0.874833
sS'VERB'
p1291
F0.001879
s(lp1292
(g7
I0
tp1293
atp1294
a(S'tako'
p1295
(dp1296
S'ADV'
p1297
F0.982497
sS'PRON'
p1298
F0.008695999999999999
sS'CONJ'
p1299
F0.008806
s(lp1300
(g14
I2
tp1301
atp1302
a(S'pa'
p1303
(dp1304
g225
F4.5e-05
sS'CONJ'
p1305
F0.999955
s(lp1306
(g108
I16
tp1307
atp1308
a(S'tudi'
p1309
(dp1310
S'PRT'
p1311
F1.0
s(lp1312
(g117
I17
tp1313
atp1314
a(S'vsem'
p1315
(dp1316
S'PRON'
p1317
F0.999999
s(lp1318
(g125
I18
tp1319
atp1320
a(S'ostalim'
p1321
(dp1322
S'ADJ'
p1323
F0.999999
s(lp1324
(g153
I20
tp1325
atp1326
a(S'poslancem'
p1327
(dp1328
S'NOUN'
p1329
F1.0
s(lp1330
(g97
I22
tp1331
atp1332
a(g17
(dp1333
g19
F1.0
s(lp1334
tp1335
a(S'ki'
p1336
(dp1337
S'CONJ'
p1338
F1.0
s(lp1339
tp1340
a(S'odhajajo'
p1341
(dp1342
S'VERB'
p1343
F1.0
s(lp1344
(g153
I20
tp1345
atp1346
a(g19
(dp1347
g19
F1.0
s(lp1348
(g19
I27
tp1349
atp1350
asS'es'
p1351
(lp1352
(S'quisiera'
p1353
(dp1354
S'VERB'
p1355
F1.0
s(lp1356
(g14
I2
tp1357
atp1358
a(S'ampliar'
p1359
(dp1360
S'VERB'
p1361
F1.0
s(lp1362
(g250
I4
tp1363
atp1364
a(S'mi'
p1365
(dp1366
S'PRON'
p1367
F1.0
s(lp1368
(g61
I5
tp1369
atp1370
a(S'sincero'
p1371
(dp1372
S'VERB'
p1373
F0.01591
sS'ADJ'
p1374
F0.98409
s(lp1375
(g75
I6
tp1376
atp1377
a(S'agradecimiento'
p1378
(dp1379
S'NOUN'
p1380
F1.0
s(lp1381
(g68
I7
tp1382
atp1383
a(S'en'
p1384
(dp1385
g225
F1.8e-05
sS'CONJ'
p1386
F1e-05
sS'ADP'
p1387
F0.999972
s(lp1388
(g272
I8
tp1389
atp1390
a(S'nombre'
p1391
(dp1392
S'NOUN'
p1393
F1.0
s(lp1394
(g41
I9
tp1395
atp1396
a(S'de'
p1397
(dp1398
g225
F0.0
sS'CONJ'
p1399
F0.00017
sS'ADP'
p1400
F0.99983
s(lp1401
(g201
I10
tp1402
atp1403
a(S'todos'
p1404
(dp1405
S'ADJ'
p1406
F1.0
s(lp1407
(g56
I12
tp1408
atp1409
a(S'vosotros'
p1410
(dp1411
S'PRON'
p1412
F1.0
s(lp1413
(g153
I20
tp1414
atp1415
a(g761
(dp1416
g225
F8e-06
sS'CONJ'
p1417
F2e-06
sS'ADP'
p1418
F0.999989
s(lp1419
(g48
I13
tp1420
atp1421
a(S'esas'
p1422
(dp1423
S'PRON'
p1424
F1.0
s(lp1425
(g82
I14
tp1426
atp1427
a(S'cuatro'
p1428
(dp1429
S'NUM'
p1430
F1.0
s(lp1431
(g90
I15
tp1432
atp1433
a(S'personas'
p1434
(dp1435
S'NOUN'
p1436
F1.0
s(lp1437
(g153
I20
tp1438
atp1439
a(S'y'
p1440
(dp1441
g225
F0.001029
sS'CONJ'
p1442
F0.998971
s(lp1443
(g108
I16
tp1444
atp1445
a(g761
(dp1446
g225
F6e-05
sS'CONJ'
p1447
F2e-06
sS'ADP'
p1448
F0.999937
s(lp1449
(g117
I17
tp1450
atp1451
a(S'todos'
p1452
(dp1453
S'ADJ'
p1454
F1.0
s(lp1455
(g125
I18
tp1456
atp1457
a(S'los'
p1458
(dp1459
S'PRON'
p1460
F0.0
sS'DET'
p1461
F1.0
s(lp1462
(g97
I22
tp1463
atp1464
a(S'dem\xc3\xa1s'
p1465
(dp1466
S'ADJ'
p1467
F1.0
s(lp1468
(g139
I19
tp1469
atp1470
a(S'europarlamentarios'
p1471
(dp1472
S'ADJ'
p1473
F0.128147
sS'NOUN'
p1474
F0.871853
s(lp1475
(g153
I20
tp1476
atp1477
a(S'que'
p1478
(dp1479
g225
F0.0
sS'CONJ'
p1480
F1.0
s(lp1481
tp1482
a(S'nos'
p1483
(dp1484
S'PRON'
p1485
F1.0
s(lp1486
tp1487
a(S'dejan'
p1488
(dp1489
S'VERB'
p1490
F1.0
s(lp1491
(g153
I20
tp1492
atp1493
a(S'por'
p1494
(dp1495
S'ADP'
p1496
F1.0
s(lp1497
(g181
I23
tp1498
atp1499
a(S'su'
p1500
(dp1501
S'PRON'
p1502
F1.0
s(lp1503
(g208
I24
tp1504
atp1505
a(S'gran'
p1506
(dp1507
S'ADJ'
p1508
F1.0
s(lp1509
(g375
I25
tp1510
atp1511
a(S'dedicaci\xc3\xb3n'
p1512
(dp1513
S'NOUN'
p1514
F1.0
s(lp1515
(g215
I26
tp1516
atp1517
a(g19
(dp1518
g19
F1.0
s(lp1519
(g19
I27
tp1520
atp1521
as.