(dp0
S'fr'
p1
(lp2
(S'votre'
p3
(dp4
S'PRON'
p5
F1.0
s(lp6
(S'your'
p7
I0
tp8
atp9
a(S'solution'
p10
(dp11
S'NOUN'
p12
F1.0
s(lp13
(S'solution'
p14
I1
tp15
atp16
a(S'est'
p17
(dp18
S'VERB'
p19
F0.999198
sS'NOUN'
p20
F0.000802
s(lp21
(S'is'
p22
I2
tp23
atp24
a(S'de'
p25
(dp26
S'ADP'
p27
F1.0
s(lp28
(S'to'
p29
I3
tp30
atp31
a(S'repousser'
p32
(dp33
S'VERB'
p34
F1.0
s(lp35
(S'push'
p36
I4
tp37
atp38
a(S"l'"
p39
(dp40
S'ADJ'
p41
F0.050629
sS'VERB'
p42
F0.794975
sS'NOUN'
p43
F0.154398
s(lp44
(S'the'
p45
I5
tp46
atp47
a(S'\xc3\xa2ge'
p48
(dp49
S'NOUN'
p50
F1.0
s(lp51
(S'age'
p52
I7
tp53
atp54
a(S'de'
p55
(dp56
S'ADP'
p57
F1.0
s(lp58
(S'retirement'
p59
I6
tp60
atp61
a(S'd\xc3\xa9part'
p62
(dp63
S'VERB'
p64
F0.000913
sS'NOUN'
p65
F0.999087
s(lp66
(g59
I6
tp67
atp68
a(S'\xc3\xa0'
p69
(dp70
S'ADP'
p71
F1.0
s(lp72
(S'up'
p73
I8
tp74
atp75
a(S'la'
p76
(dp77
S'PRON'
p78
F0.000175
sS'DET'
p79
F0.999823
sS'NOUN'
p80
F2e-06
s(lp81
tp82
a(S'retraite'
p83
(dp84
S'ADJ'
p85
F0.032407
sS'VERB'
p86
F0.0007620000000000001
sS'NOUN'
p87
F0.966831
s(lp88
(g59
I6
tp89
atp90
a(S'\xc3\xa0'
p91
(dp92
S'ADP'
p93
F1.0
s(lp94
(S'to'
p95
I9
tp96
atp97
a(S'67'
p98
(dp99
S'X'
p100
F1.5e-05
sS'NUM'
p101
F0.999985
s(lp102
tp103
a(S'ans'
p104
(dp105
S'NOUN'
p106
F1.0
s(lp107
(S'67'
p108
I10
tp109
atp110
a(S'et'
p111
(dp112
S'CONJ'
p113
F1.0
s(lp114
(S'and'
p115
I11
tp116
atp117
a(S'de'
p118
(dp119
S'ADP'
p120
F1.0
s(lp121
(S'to'
p122
I12
tp123
atp124
a(S'r\xc3\xa9former'
p125
(dp126
S'VERB'
p127
F1.0
s(lp128
(S'reforms'
p129
I16
tp130
atp131
a(S'en'
p132
(dp133
S'PRON'
p134
F0.000572
sS'ADP'
p135
F0.999428
s(lp136
(S'out'
p137
I14
tp138
atp139
a(S'profondeur'
p140
(dp141
S'NOUN'
p142
F1.0
s(lp143
(S'profound'
p144
I15
tp145
atp146
a(S'les'
p147
(dp148
S'PRON'
p149
F0.000251
sS'DET'
p150
F0.999507
sS'ADP'
p151
F0.000243
s(lp152
tp153
a(S'syst\xc3\xa8mes'
p154
(dp155
S'NOUN'
p156
F1.0
s(lp157
(S'systems'
p158
I20
tp159
atp160
a(S'de'
p161
(dp162
S'ADP'
p163
F1.0
s(lp164
(S'of'
p165
I17
tp166
atp167
a(S'retraite'
p168
(dp169
S'ADJ'
p170
F0.062599
sS'VERB'
p171
F0.000199
sS'NOUN'
p172
F0.937202
s(lp173
(S'pension'
p174
I19
tp175
atp176
a(S'par'
p177
(dp178
S'NOUN'
p179
F0.0
sS'ADP'
p180
F1.0
s(lp181
tp182
a(S'r\xc3\xa9partition'
p183
(dp184
S'NOUN'
p185
F1.0
s(lp186
(S'pay-as-you-go'
p187
I18
tp188
atp189
a(S'pour'
p190
(dp191
S'CONJ'
p192
F0.127166
sS'ADP'
p193
F0.872834
s(lp194
(S'to'
p195
I21
tp196
atp197
a(S'baisser'
p198
(dp199
S'VERB'
p200
F0.993948
sS'NOUN'
p201
F0.006052
s(lp202
(S'reduce'
p203
I22
tp204
atp205
a(S'les'
p206
(dp207
S'PRON'
p208
F3.2e-05
sS'DET'
p209
F0.999946
sS'ADP'
p210
F2.2e-05
s(lp211
(S'people'
p212
I26
tp213
atp214
a(S'prestations'
p215
(dp216
S'NOUN'
p217
F1.0
s(lp218
(S'benefits'
p219
I23
tp220
atp221
a(S'des'
p222
(dp223
S'DET'
p224
F2e-06
sS'ADP'
p225
F0.999998
s(lp226
(S'for'
p227
I24
tp228
atp229
a(S'assur\xc3\xa9s'
p230
(dp231
S'VERB'
p232
F1.0
s(lp233
(S'insured'
p234
I25
tp235
atp236
a(S'.'
p237
(dp238
g237
F1.0
s(lp239
(g237
I27
tp240
atp241
asS'en'
p242
(lp243
(g7
(dp244
S'PRON'
p245
F1.0
s(lp246
(g7
I0
tp247
atp248
a(g14
(dp249
S'NOUN'
p250
F1.0
s(lp251
(g14
I1
tp252
atp253
a(g22
(dp254
S'VERB'
p255
F1.0
s(lp256
(g22
I2
tp257
atp258
a(g29
(dp259
S'ADV'
p260
F0.0
sS'PRT'
p261
F1.0
sS'ADP'
p262
F0.0
s(lp263
(g29
I3
tp264
atp265
a(g36
(dp266
S'VERB'
p267
F0.999888
sS'NOUN'
p268
F0.000112
s(lp269
(g36
I4
tp270
atp271
a(g45
(dp272
S'NOUN'
p273
F1e-06
sS'DET'
p274
F0.999999
s(lp275
(g45
I5
tp276
atp277
a(g59
(dp278
S'NOUN'
p279
F1.0
s(lp280
(g59
I6
tp281
atp282
a(g52
(dp283
S'VERB'
p284
F0.032363
sS'NOUN'
p285
F0.967637
s(lp286
(g52
I7
tp287
atp288
a(g73
(dp289
S'ADV'
p290
F0.28559
sS'PRT'
p291
F0.579875
sS'NOUN'
p292
F9e-05
sS'ADP'
p293
F0.134445
s(lp294
(g73
I8
tp295
atp296
a(g95
(dp297
S'ADV'
p298
F1.4e-05
sS'PRT'
p299
F0.999978
sS'ADP'
p300
F8e-06
s(lp301
(g95
I9
tp302
atp303
a(g108
(dp304
S'ADV'
p305
F3.8e-05
sS'ADJ'
p306
F0.001551
sS'NUM'
p307
F0.995568
sS'NOUN'
p308
F0.002843
sg100
F0.0
s(lp309
(g108
I10
tp310
atp311
a(g115
(dp312
S'CONJ'
p313
F0.999197
sS'NOUN'
p314
F0.000803
s(lp315
(g115
I11
tp316
atp317
a(g122
(dp318
S'ADV'
p319
F3e-06
sS'PRT'
p320
F0.999997
sS'ADP'
p321
F0.0
s(lp322
(g122
I12
tp323
atp324
a(S'carry'
p325
(dp326
S'VERB'
p327
F0.999608
sS'NOUN'
p328
F0.000392
s(lp329
(g325
I13
tp330
atp331
a(g137
(dp332
S'ADV'
p333
F0.100995
sS'NOUN'
p334
F5.2e-05
sS'ADP'
p335
F0.267268
sS'PRT'
p336
F0.630042
sS'VERB'
p337
F6e-06
sS'ADJ'
p338
F0.001637
s(lp339
(g137
I14
tp340
atp341
a(g144
(dp342
S'NOUN'
p343
F0.008992
sS'ADJ'
p344
F0.991008
s(lp345
(g144
I15
tp346
atp347
a(g129
(dp348
S'VERB'
p349
F1.6e-05
sS'NOUN'
p350
F0.999984
s(lp351
(g129
I16
tp352
atp353
a(g165
(dp354
S'ADP'
p355
F1.0
s(lp356
(g165
I17
tp357
atp358
a(g187
(dp359
S'ADJ'
p360
F1.0
s(lp361
(g187
I18
tp362
atp363
a(g174
(dp364
S'VERB'
p365
F9e-06
sS'NOUN'
p366
F0.999991
s(lp367
(g174
I19
tp368
atp369
a(g158
(dp370
S'NOUN'
p371
F1.0
s(lp372
(g158
I20
tp373
atp374
a(g195
(dp375
S'ADV'
p376
F0.0
sS'PRT'
p377
F1.0
sS'ADP'
p378
F0.0
s(lp379
(g195
I21
tp380
atp381
a(g203
(dp382
S'VERB'
p383
F1.0
s(lp384
(g203
I22
tp385
atp386
a(g219
(dp387
S'VERB'
p388
F3e-06
sS'NOUN'
p389
F0.999997
s(lp390
(g219
I23
tp391
atp392
a(g227
(dp393
S'ADP'
p394
F1.0
s(lp395
(g227
I24
tp396
atp397
a(g234
(dp398
S'NOUN'
p399
F0.030846
sS'VERB'
p400
F0.086556
sS'ADJ'
p401
F0.882598
s(lp402
(g234
I25
tp403
atp404
a(g212
(dp405
S'VERB'
p406
F0.0
sS'NOUN'
p407
F1.0
s(lp408
(g212
I26
tp409
atp410
a(g237
(dp411
g237
F1.0
s(lp412
(g237
I27
tp413
atp414
asS'nl'
p415
(lp416
(S'uw'
p417
(dp418
S'PRON'
p419
F1.0
s(lp420
(g7
I0
tp421
atp422
a(S'oplossing'
p423
(dp424
S'NOUN'
p425
F1.0
s(lp426
(g14
I1
tp427
atp428
a(S'is'
p429
(dp430
S'VERB'
p431
F1.0
s(lp432
(g22
I2
tp433
atp434
a(S'om'
p435
(dp436
S'ADV'
p437
F0.003976
sS'CONJ'
p438
F0.822505
sS'ADP'
p439
F0.173519
s(lp440
tp441
a(S'de'
p442
(dp443
S'DET'
p444
F1.0
s(lp445
(g45
I5
tp446
atp447
a(S'pensioengerechtigde'
p448
(dp449
S'ADJ'
p450
F0.47219
sS'NOUN'
p451
F0.52781
s(lp452
(g59
I6
tp453
atp454
a(S'leeftijd'
p455
(dp456
S'NOUN'
p457
F1.0
s(lp458
tp459
a(S'op'
p460
(dp461
S'ADV'
p462
F0.995704
sS'ADJ'
p463
F1e-05
sS'ADP'
p464
F0.004286
s(lp465
tp466
a(S'te'
p467
(dp468
S'PRT'
p469
F1.0
s(lp470
(g29
I3
tp471
atp472
a(S'trekken'
p473
(dp474
S'VERB'
p475
F0.999978
sS'NOUN'
p476
F2.2e-05
s(lp477
(g36
I4
tp478
atp479
a(S'naar'
p480
(dp481
S'CONJ'
p482
F0.029843
sS'ADJ'
p483
F0.0
sS'ADP'
p484
F0.970157
s(lp485
(g95
I9
tp486
atp487
a(S'67'
p488
(dp489
S'NUM'
p490
F1.0
s(lp491
(g108
I10
tp492
atp493
a(S'jaar'
p494
(dp495
S'NOUN'
p496
F1.0
s(lp497
(g52
I7
tp498
atp499
a(S'en'
p500
(dp501
S'CONJ'
p502
F1.0
s(lp503
(g115
I11
tp504
atp505
a(S'om'
p506
(dp507
S'ADV'
p508
F0.002784
sS'CONJ'
p509
F0.696387
sS'ADP'
p510
F0.300829
s(lp511
tp512
a(S'de'
p513
(dp514
S'DET'
p515
F1.0
s(lp516
tp517
a(S'via'
p518
(dp519
S'ADP'
p520
F1.0
s(lp521
(g187
I18
tp522
atp523
a(S'een'
p524
(dp525
S'ADJ'
p526
F1e-06
sS'PRON'
p527
F1.4e-05
sS'NUM'
p528
F0.0
sS'DET'
p529
F0.999985
s(lp530
tp531
a(S'omslagregeling'
p532
(dp533
S'NOUN'
p534
F1.0
s(lp535
tp536
a(S'gefinancierde'
p537
(dp538
S'VERB'
p539
F0.999922
sS'NOUN'
p540
F7.8e-05
s(lp541
(g187
I18
tp542
atp543
a(S'pensioenstelsels'
p544
(dp545
S'ADJ'
p546
F0.0012
sS'NOUN'
p547
F0.998799
s(lp548
(g174
I19
tp549
atp550
a(S'ingrijpend'
p551
(dp552
S'VERB'
p553
F0.049843
sS'ADJ'
p554
F0.950157
s(lp555
(g144
I15
tp556
atp557
a(S'te'
p558
(dp559
S'PRT'
p560
F1.0
s(lp561
tp562
a(S'hervormen'
p563
(dp564
S'VERB'
p565
F0.999999
sS'NOUN'
p566
F0.0
s(lp567
(g129
I16
tp568
atp569
a(S'teneinde'
p570
(dp571
S'CONJ'
p572
F1.0
s(lp573
(g195
I21
tp574
atp575
a(S'de'
p576
(dp577
S'DET'
p578
F1.0
s(lp579
tp580
a(S'uitkeringen'
p581
(dp582
S'NOUN'
p583
F1.0
s(lp584
(g219
I23
tp585
atp586
a(S'van'
p587
(dp588
S'ADP'
p589
F1.0
s(lp590
(g227
I24
tp591
atp592
a(S'verzekerden'
p593
(dp594
S'VERB'
p595
F0.0
sS'NOUN'
p596
F1.0
s(lp597
(g234
I25
tp598
atp599
a(S'te'
p600
(dp601
S'PRT'
p602
F1.0
s(lp603
(g122
I12
tp604
atp605
a(S'verlagen'
p606
(dp607
S'VERB'
p608
F0.9999990000000001
sS'NOUN'
p609
F1e-06
s(lp610
(g203
I22
tp611
atp612
a(g237
(dp613
g237
F1.0
s(lp614
(g237
I27
tp615
atp616
asS'de'
p617
(lp618
(S'ihre'
p619
(dp620
S'PRON'
p621
F1.0
s(lp622
(g7
I0
tp623
atp624
a(S'l\xc3\xb6sung'
p625
(dp626
S'ADJ'
p627
F0.010822
sS'NOUN'
p628
F0.980343
s(lp629
(g14
I1
tp630
atp631
a(S'besteht'
p632
(dp633
S'VERB'
p634
F1.0
s(lp635
tp636
a(S'darin'
p637
(dp638
S'ADV'
p639
F1.0
s(lp640
(g22
I2
tp641
atp642
a(S','
p643
(dp644
g237
F1.0
s(lp645
(g29
I3
tp646
atp647
a(S'das'
p648
(dp649
S'PRON'
p650
F0.531539
sS'DET'
p651
F0.28513
s(lp652
(g45
I5
tp653
atp654
a(S'renteneintrittsalter'
p655
(dp656
S'NOUN'
p657
F0.166338
sS'ADJ'
p658
F0.695392
s(lp659
(g59
I6
tp660
atp661
a(S'auf'
p662
(dp663
S'PRT'
p664
F0.004928
sS'ADP'
p665
F0.994922
s(lp666
(g95
I9
tp667
atp668
a(S'67'
p669
(dp670
S'ADV'
p671
F0.561181
sS'NUM'
p672
F0.280438
s(lp673
(g108
I10
tp674
atp675
a(S'anzuheben'
p676
(dp677
S'VERB'
p678
F1.0
s(lp679
(g52
I7
tp680
atp681
a(S'und'
p682
(dp683
S'CONJ'
p684
F1.0
s(lp685
(g115
I11
tp686
atp687
a(S'tiefgreifende'
p688
(dp689
S'ADJ'
p690
F1.0
s(lp691
(g144
I15
tp692
atp693
a(S'reformen'
p694
(dp695
S'ADJ'
p696
F0.078219
sS'NOUN'
p697
F0.919905
s(lp698
(g129
I16
tp699
atp700
a(S'bei'
p701
(dp702
S'PRT'
p703
F0.000171
sS'ADP'
p704
F0.999829
s(lp705
(g165
I17
tp706
atp707
a(S'den'
p708
(dp709
S'PRON'
p710
F0.000112
sS'DET'
p711
F0.999887
s(lp712
tp713
a(S'umlagefinanzierten'
p714
(dp715
S'ADJ'
p716
F1.0
s(lp717
(g187
I18
tp718
atp719
a(S'rentensystemen'
p720
(dp721
S'ADJ'
p722
F0.002614
sS'NOUN'
p723
F0.995912
s(lp724
tp725
a(S'vorzunehmen'
p726
(dp727
S'VERB'
p728
F1.0
s(lp729
(g325
I13
tp730
atp731
a(g643
(dp732
g237
F1.0
s(lp733
(g137
I14
tp734
atp735
a(S'um'
p736
(dp737
S'CONJ'
p738
F0.639079
sS'ADP'
p739
F0.360787
s(lp740
tp741
a(S'die'
p742
(dp743
S'PRON'
p744
F0.001356
sS'DET'
p745
F0.998018
s(lp746
(g174
I19
tp747
atp748
a(S'bez\xc3\xbcge'
p749
(dp750
S'ADJ'
p751
F0.014818
sS'NOUN'
p752
F0.977349
s(lp753
(g219
I23
tp754
atp755
a(S'der'
p756
(dp757
S'PRON'
p758
F0.000146
sS'DET'
p759
F0.999824
s(lp760
(g227
I24
tp761
atp762
a(S'versicherten'
p763
(dp764
S'VERB'
p765
F0.000196
sS'ADJ'
p766
F0.999804
s(lp767
(g234
I25
tp768
atp769
a(S'menschen'
p770
(dp771
S'ADJ'
p772
F1.0
s(lp773
(g212
I26
tp774
atp775
a(S'zu'
p776
(dp777
S'ADV'
p778
F0.000409
sS'PRT'
p779
F0.99918
s(lp780
(g195
I21
tp781
atp782
a(S'k\xc3\xbcrzen'
p783
(dp784
S'VERB'
p785
F1.0
s(lp786
(g203
I22
tp787
atp788
a(g237
(dp789
g237
F1.0
s(lp790
(g237
I27
tp791
atp792
asS'it'
p793
(lp794
(S'la'
p795
(dp796
S'PRON'
p797
F6.4e-05
sS'DET'
p798
F0.999936
s(lp799
tp800
a(S'vostra'
p801
(dp802
S'PRON'
p803
F1.0
s(lp804
(g7
I0
tp805
atp806
a(S'soluzione'
p807
(dp808
S'NOUN'
p809
F1.0
s(lp810
(g14
I1
tp811
atp812
a(S'consiste'
p813
(dp814
S'VERB'
p815
F1.0
s(lp816
(g22
I2
tp817
atp818
a(S"nell'"
p819
(dp820
S'ADJ'
p821
F0.010298
sS'VERB'
p822
F0.103889
sS'NOUN'
p823
F0.885814
s(lp824
(g29
I3
tp825
atp826
a(S'innalzare'
p827
(dp828
S'VERB'
p829
F1.0
s(lp830
(g36
I4
tp831
atp832
a(S"l'"
p833
(dp834
S'NOUN'
p835
F0.012178
sS'VERB'
p836
F0.890187
sS'ADJ'
p837
F0.097635
s(lp838
(g45
I5
tp839
atp840
a(S'et\xc3\xa0'
p841
(dp842
S'NOUN'
p843
F1.0
s(lp844
(g52
I7
tp845
atp846
a(S'pensionabile'
p847
(dp848
S'ADJ'
p849
F1.0
s(lp850
(g59
I6
tp851
atp852
a(S'a'
p853
(dp854
S'CONJ'
p855
F8.6e-05
sS'ADP'
p856
F0.999914
s(lp857
(g95
I9
tp858
atp859
a(S'67'
p860
(dp861
S'NUM'
p862
F0.999735
sg237
F0.000265
s(lp863
tp864
a(S'anni'
p865
(dp866
S'NOUN'
p867
F1.0
s(lp868
(g108
I10
tp869
atp870
a(S'e'
p871
(dp872
S'CONJ'
p873
F1.0
s(lp874
(g115
I11
tp875
atp876
a(S"nell'"
p877
(dp878
S'ADJ'
p879
F0.006467
sS'VERB'
p880
F0.11863800000000001
sS'NOUN'
p881
F0.874895
s(lp882
(g122
I12
tp883
atp884
a(S'attuare'
p885
(dp886
S'VERB'
p887
F1.0
s(lp888
(g325
I13
tp889
atp890
a(S'delle'
p891
(dp892
S'DEF'
p893
F0.046198
sS'ADP'
p894
F0.953802
s(lp895
tp896
a(S'profonde'
p897
(dp898
S'VERB'
p899
F0.000126
sS'ADJ'
p900
F0.999874
s(lp901
(g144
I15
tp902
atp903
a(S'modifiche'
p904
(dp905
S'NOUN'
p906
F1.0
s(lp907
(g187
I18
tp908
atp909
a(S'dei'
p910
(dp911
S'NOUN'
p912
F1e-06
sS'DEF'
p913
F0.001163
sS'ADP'
p914
F0.998836
s(lp915
tp916
a(S'sistemi'
p917
(dp918
S'VERB'
p919
F0.0011149999999999999
sS'NOUN'
p920
F0.998885
s(lp921
(g158
I20
tp922
atp923
a(S'pensionistici'
p924
(dp925
S'ADJ'
p926
F1.0
s(lp927
(g174
I19
tp928
atp929
a(g853
(dp930
S'CONJ'
p931
F0.00025
sS'ADP'
p932
F0.99975
s(lp933
(g187
I18
tp934
atp935
a(S'ripartizione'
p936
(dp937
S'NOUN'
p938
F1.0
s(lp939
tp940
a(g643
(dp941
g237
F1.0
s(lp942
tp943
a(S'riducendo'
p944
(dp945
S'VERB'
p946
F1.0
s(lp947
(g203
I22
tp948
atp949
a(S'le'
p950
(dp951
S'PRON'
p952
F2e-06
sS'DET'
p953
F0.999998
s(lp954
(g129
I16
tp955
atp956
a(S'prestazioni'
p957
(dp958
S'NOUN'
p959
F1.0
s(lp960
(g219
I23
tp961
atp962
a(g853
(dp963
S'CONJ'
p964
F0.000215
sS'ADP'
p965
F0.999785
s(lp966
(g187
I18
tp967
atp968
a(S'favore'
p969
(dp970
S'NOUN'
p971
F1.0
s(lp972
(g227
I24
tp973
atp974
a(S'dei'
p975
(dp976
S'NOUN'
p977
F1e-06
sS'DEF'
p978
F0.001164
sS'ADP'
p979
F0.998835
s(lp980
tp981
a(S'lavoratori'
p982
(dp983
S'NOUN'
p984
F1.0
s(lp985
(g212
I26
tp986
atp987
a(g237
(dp988
g237
F1.0
s(lp989
(g237
I27
tp990
atp991
asS'sk'
p992
(lp993
(S'va\xc5\xa1\xc3\xadm'
p994
(dp995
S'PRON'
p996
F1.0
s(lp997
(g7
I0
tp998
atp999
a(S'rie\xc5\xa1en\xc3\xadm'
p1000
(dp1001
S'NOUN'
p1002
F1.0
s(lp1003
(g14
I1
tp1004
atp1005
a(S'je'
p1006
(dp1007
S'PRON'
p1008
F1e-05
sS'VERB'
p1009
F0.999982
sg100
F7e-06
s(lp1010
(g22
I2
tp1011
atp1012
a(S'zv\xc3\xbd\xc5\xa1i\xc5\xa5'
p1013
(dp1014
S'VERB'
p1015
F1.0
s(lp1016
(g36
I4
tp1017
atp1018
a(S'vek'
p1019
(dp1020
g100
F0.067117
sS'NOUN'
p1021
F0.932883
s(lp1022
(g52
I7
tp1023
atp1024
a(S'odchodu'
p1025
(dp1026
S'NOUN'
p1027
F1.0
s(lp1028
(g59
I6
tp1029
atp1030
a(S'do'
p1031
(dp1032
g100
F0.000222
sS'ADP'
p1033
F0.999684
sS'PRON'
p1034
F9.4e-05
s(lp1035
tp1036
a(S'd\xc3\xb4chodku'
p1037
(dp1038
S'NOUN'
p1039
F1.0
s(lp1040
(g59
I6
tp1041
atp1042
a(S'na'
p1043
(dp1044
g100
F0.000433
sS'CONJ'
p1045
F6e-06
sS'ADP'
p1046
F0.999555
sS'PRT'
p1047
F7e-06
s(lp1048
(g95
I9
tp1049
atp1050
a(S'67'
p1051
(dp1052
S'NUM'
p1053
F1.0
s(lp1054
tp1055
a(S'rokov'
p1056
(dp1057
S'NOUN'
p1058
F1.0
s(lp1059
(g108
I10
tp1060
atp1061
a(g853
(dp1062
g100
F0.001101
sS'CONJ'
p1063
F0.998513
sS'NOUN'
p1064
F6.7e-05
sS'ADP'
p1065
F0.0
sS'PRT'
p1066
F0.000319
s(lp1067
(g115
I11
tp1068
atp1069
a(S'uskuto\xc4\x8dni\xc5\xa5'
p1070
(dp1071
S'VERB'
p1072
F1.0
s(lp1073
(g325
I13
tp1074
atp1075
a(S'z\xc3\xa1sadn\xc3\xa9'
p1076
(dp1077
S'ADJ'
p1078
F1.0
s(lp1079
(g144
I15
tp1080
atp1081
a(S'reformy'
p1082
(dp1083
S'NOUN'
p1084
F1.0
s(lp1085
(g129
I16
tp1086
atp1087
a(S'syst\xc3\xa9mov'
p1088
(dp1089
S'NOUN'
p1090
F1.0
s(lp1091
(g158
I20
tp1092
atp1093
a(S'priebe\xc5\xben\xc3\xa9ho'
p1094
(dp1095
S'ADJ'
p1096
F1.0
s(lp1097
(g187
I18
tp1098
atp1099
a(S'financovania'
p1100
(dp1101
S'NOUN'
p1102
F1.0
s(lp1103
(g187
I18
tp1104
atp1105
a(S'('
p1106
(dp1107
g237
F1.0
s(lp1108
(g187
I18
tp1109
atp1110
a(S'pay-as-you-go'
p1111
(dp1112
S'ADJ'
p1113
F0.023841
sg100
F0.8229120000000001
sS'NOUN'
p1114
F0.153247
s(lp1115
tp1116
a(S')'
p1117
(dp1118
g237
F1.0
s(lp1119
(g187
I18
tp1120
atp1121
a(S's'
p1122
(dp1123
g100
F0.002417
sS'CONJ'
p1124
F0.000212
sS'NOUN'
p1125
F8e-06
sS'ADP'
p1126
F0.997307
sS'PRT'
p1127
F5.7e-05
s(lp1128
(g174
I19
tp1129
atp1130
a(S'cie\xc4\xbeom'
p1131
(dp1132
S'NOUN'
p1133
F1.0
s(lp1134
(g195
I21
tp1135
atp1136
a(S'zmen\xc5\xa1i\xc5\xa5'
p1137
(dp1138
S'VERB'
p1139
F1.0
s(lp1140
(g203
I22
tp1141
atp1142
a(S'v\xc3\xbdhody'
p1143
(dp1144
S'NOUN'
p1145
F1.0
s(lp1146
(g219
I23
tp1147
atp1148
a(S'pre'
p1149
(dp1150
g100
F4e-06
sS'ADP'
p1151
F0.999996
s(lp1152
(g227
I24
tp1153
atp1154
a(S'poisten\xc3\xbdch'
p1155
(dp1156
S'VERB'
p1157
F1.0
s(lp1158
(g234
I25
tp1159
atp1160
a(S'\xc4\xbeud\xc3\xad'
p1161
(dp1162
S'NOUN'
p1163
F1.0
s(lp1164
(g212
I26
tp1165
atp1166
a(g237
(dp1167
g237
F1.0
s(lp1168
(g237
I27
tp1169
atp1170
asS'pl'
p1171
(lp1172
(S'wasze'
p1173
(dp1174
S'ADJ'
p1175
F1.0
s(lp1176
(g7
I0
tp1177
atp1178
a(S'rozwi\xc4\x85zanie'
p1179
(dp1180
S'VERB'
p1181
F0.02237
sS'NOUN'
p1182
F0.97763
s(lp1183
(g14
I1
tp1184
atp1185
a(S'polega'
p1186
(dp1187
S'VERB'
p1188
F1.0
s(lp1189
(g22
I2
tp1190
atp1191
a(S'na'
p1192
(dp1193
S'PRT'
p1194
F1e-05
sS'VERB'
p1195
F0.0
sS'NOUN'
p1196
F9e-06
sS'ADP'
p1197
F0.9999739999999999
sg100
F7e-06
s(lp1198
(g29
I3
tp1199
atp1200
a(S'popchni\xc4\x99ciu'
p1201
(dp1202
S'ADV'
p1203
F2.9e-05
sS'ADJ'
p1204
F0.005932
sS'VERB'
p1205
F0.4370379999999999
sS'NOUN'
p1206
F0.5570010000000001
s(lp1207
(g36
I4
tp1208
atp1209
a(S'wieku'
p1210
(dp1211
S'NOUN'
p1212
F1.0
s(lp1213
(g52
I7
tp1214
atp1215
a(S'emerytalnego'
p1216
(dp1217
S'ADJ'
p1218
F1.0
s(lp1219
(g59
I6
tp1220
atp1221
a(S'a\xc5\xbc'
p1222
(dp1223
S'PRT'
p1224
F0.871987
sS'CONJ'
p1225
F0.128013
s(lp1226
(g73
I8
tp1227
atp1228
a(S'do'
p1229
(dp1230
g100
F1.5e-05
sS'NOUN'
p1231
F0.000872
sS'ADP'
p1232
F0.999112
s(lp1233
(g95
I9
tp1234
atp1235
a(S'67'
p1236
(dp1237
S'NUM'
p1238
F0.9993609999999999
sS'ADJ'
p1239
F0.000639
s(lp1240
tp1241
a(S'lat'
p1242
(dp1243
S'NOUN'
p1244
F1.0
s(lp1245
(g108
I10
tp1246
atp1247
a(S'i'
p1248
(dp1249
S'PRT'
p1250
F6.9e-05
sS'CONJ'
p1251
F0.999929
sS'PRON'
p1252
F0.0
sS'NOUN'
p1253
F0.0
sg100
F2e-06
s(lp1254
(g115
I11
tp1255
atp1256
a(S'przeprowadzeniu'
p1257
(dp1258
S'VERB'
p1259
F1.0
s(lp1260
(g325
I13
tp1261
atp1262
a(S'g\xc5\x82\xc4\x99bokich'
p1263
(dp1264
S'ADJ'
p1265
F0.9999989999999999
s(lp1266
(g144
I15
tp1267
atp1268
a(S'reform'
p1269
(dp1270
S'NOUN'
p1271
F1.0
s(lp1272
(g129
I16
tp1273
atp1274
a(S'repartycyjnych'
p1275
(dp1276
S'ADV'
p1277
F1.4e-05
sS'NOUN'
p1278
F0.002583
sS'VERB'
p1279
F0.0010669999999999998
sS'ADJ'
p1280
F0.996337
s(lp1281
(g187
I18
tp1282
atp1283
a(S'system\xc3\xb3w'
p1284
(dp1285
S'NOUN'
p1286
F1.0
s(lp1287
(g158
I20
tp1288
atp1289
a(S'emerytalnych'
p1290
(dp1291
S'ADJ'
p1292
F1.0
s(lp1293
(g174
I19
tp1294
atp1295
a(S'w'
p1296
(dp1297
S'ADJ'
p1298
F0.0
sg100
F0.0
sS'NOUN'
p1299
F0.0
sS'ADP'
p1300
F1.0
s(lp1301
tp1302
a(S'celu'
p1303
(dp1304
S'NOUN'
p1305
F1.0
s(lp1306
(g195
I21
tp1307
atp1308
a(S'ograniczenia'
p1309
(dp1310
S'VERB'
p1311
F0.929724
sS'NOUN'
p1312
F0.070275
s(lp1313
(g203
I22
tp1314
atp1315
a(S'\xc5\x9bwiadcze\xc5\x84'
p1316
(dp1317
S'NOUN'
p1318
F1.0
s(lp1319
(g219
I23
tp1320
atp1321
a(S'dla'
p1322
(dp1323
S'ADP'
p1324
F1.0
s(lp1325
(g227
I24
tp1326
atp1327
a(S'os\xc3\xb3b'
p1328
(dp1329
S'NOUN'
p1330
F1.0
s(lp1331
(g212
I26
tp1332
atp1333
a(S'ubezpieczonych'
p1334
(dp1335
S'VERB'
p1336
F0.882641
sS'NOUN'
p1337
F0.117359
s(lp1338
(g234
I25
tp1339
atp1340
a(g237
(dp1341
g237
F1.0
s(lp1342
(g237
I27
tp1343
atp1344
asS'sl'
p1345
(lp1346
(S'va\xc5\xa1a'
p1347
(dp1348
S'PRON'
p1349
F1.000001
s(lp1350
(g7
I0
tp1351
atp1352
a(S're\xc5\xa1itev'
p1353
(dp1354
S'NOUN'
p1355
F1.0
s(lp1356
(g14
I1
tp1357
atp1358
a(S'je'
p1359
(dp1360
S'PRON'
p1361
F0.000399
sS'VERB'
p1362
F0.999485
sg100
F0.000116
s(lp1363
(g22
I2
tp1364
atp1365
a(S'povi\xc5\xa1anje'
p1366
(dp1367
S'NOUN'
p1368
F1.0
s(lp1369
(g36
I4
tp1370
atp1371
a(S'upokojitvene'
p1372
(dp1373
S'ADJ'
p1374
F0.5035540000000001
sS'VERB'
p1375
F0.015277
sS'NOUN'
p1376
F0.48116899999999996
s(lp1377
(g59
I6
tp1378
atp1379
a(S'starosti'
p1380
(dp1381
S'NOUN'
p1382
F1.0
s(lp1383
(g52
I7
tp1384
atp1385
a(S'na'
p1386
(dp1387
S'ADP'
p1388
F1.0
s(lp1389
(g95
I9
tp1390
atp1391
a(S'67'
p1392
(dp1393
S'NUM'
p1394
F1.0
s(lp1395
tp1396
a(S'let'
p1397
(dp1398
S'NOUN'
p1399
F1.0
s(lp1400
(g108
I10
tp1401
atp1402
a(S'in'
p1403
(dp1404
S'ADV'
p1405
F2.2e-05
sg100
F5e-06
sS'CONJ'
p1406
F0.99997
sS'NOUN'
p1407
F3e-06
s(lp1408
(g115
I11
tp1409
atp1410
a(S'izvajanje'
p1411
(dp1412
S'NOUN'
p1413
F1.0
s(lp1414
(g325
I13
tp1415
atp1416
a(S'temeljitih'
p1417
(dp1418
S'ADJ'
p1419
F1.0
s(lp1420
(g144
I15
tp1421
atp1422
a(S'reform'
p1423
(dp1424
S'NOUN'
p1425
F1.0
s(lp1426
(g129
I16
tp1427
atp1428
a(S'dokladnih'
p1429
(dp1430
S'ADV'
p1431
F0.000188
sS'NOUN'
p1432
F0.0036999999999999993
sS'VERB'
p1433
F0.0003830000000000001
sS'ADJ'
p1434
F0.9957309999999998
s(lp1435
(g187
I18
tp1436
atp1437
a(S'pokojninskih'
p1438
(dp1439
S'ADV'
p1440
F1e-06
sS'NOUN'
p1441
F0.0011539999999999999
sS'VERB'
p1442
F1e-06
sS'ADJ'
p1443
F0.9988440000000001
s(lp1444
(g174
I19
tp1445
atp1446
a(S'sistemov'
p1447
(dp1448
S'NOUN'
p1449
F1.0
s(lp1450
(g158
I20
tp1451
atp1452
a(g643
(dp1453
g237
F1.0
s(lp1454
tp1455
a(S'da'
p1456
(dp1457
S'PRT'
p1458
F5e-06
sS'CONJ'
p1459
F0.99997
sS'VERB'
p1460
F2.4e-05
sg100
F0.0
s(lp1461
tp1462
a(S'se'
p1463
(dp1464
S'PRON'
p1465
F1.0
sg100
F0.0
s(lp1466
(g195
I21
tp1467
atp1468
a(S'zmanj\xc5\xa1ajo'
p1469
(dp1470
S'VERB'
p1471
F1.0
s(lp1472
(g203
I22
tp1473
atp1474
a(S'nadomestila'
p1475
(dp1476
S'NOUN'
p1477
F1.0
s(lp1478
(g219
I23
tp1479
atp1480
a(S'za'
p1481
(dp1482
S'ADV'
p1483
F0.000123
sg100
F2.4e-05
sS'ADP'
p1484
F0.999852
s(lp1485
(g227
I24
tp1486
atp1487
a(S'zavarovance'
p1488
(dp1489
S'ADV'
p1490
F0.000104
sg100
F5.7e-05
sS'ADJ'
p1491
F1.3e-05
sS'VERB'
p1492
F5e-06
sS'NOUN'
p1493
F0.999819
s(lp1494
(g234
I25
tp1495
atp1496
a(g237
(dp1497
g237
F1.0
s(lp1498
(g237
I27
tp1499
atp1500
asS'es'
p1501
(lp1502
(S'su'
p1503
(dp1504
S'PRON'
p1505
F1.0
s(lp1506
(g7
I0
tp1507
atp1508
a(S'soluci\xc3\xb3n'
p1509
(dp1510
S'NOUN'
p1511
F1.0
s(lp1512
(g14
I1
tp1513
atp1514
a(S'pasa'
p1515
(dp1516
S'VERB'
p1517
F0.753493
sS'NOUN'
p1518
F0.246507
s(lp1519
(g22
I2
tp1520
atp1521
a(S'por'
p1522
(dp1523
S'ADP'
p1524
F1.0
s(lp1525
(g29
I3
tp1526
atp1527
a(S'aumentar'
p1528
(dp1529
S'VERB'
p1530
F1.0
s(lp1531
(g36
I4
tp1532
atp1533
a(S'la'
p1534
(dp1535
S'PRON'
p1536
F4e-06
sS'DET'
p1537
F0.999995
sS'NOUN'
p1538
F0.0
sg100
F1e-06
s(lp1539
(g45
I5
tp1540
atp1541
a(S'edad'
p1542
(dp1543
S'NOUN'
p1544
F1.0
s(lp1545
(g52
I7
tp1546
atp1547
a(S'de'
p1548
(dp1549
g100
F2.9e-05
sS'CONJ'
p1550
F0.000449
sS'ADP'
p1551
F0.999522
s(lp1552
tp1553
a(S'jubilaci\xc3\xb3n'
p1554
(dp1555
S'NOUN'
p1556
F1.0
s(lp1557
(g59
I6
tp1558
atp1559
a(S'hasta'
p1560
(dp1561
S'ADP'
p1562
F1.0
s(lp1563
(g73
I8
tp1564
atp1565
a(S'los'
p1566
(dp1567
S'PRON'
p1568
F0.0
sS'DET'
p1569
F1.0
s(lp1570
tp1571
a(S'67'
p1572
(dp1573
g100
F0.008138
sS'NUM'
p1574
F0.991862
s(lp1575
tp1576
a(S'a\xc3\xb1os'
p1577
(dp1578
S'NOUN'
p1579
F1.0
s(lp1580
(g108
I10
tp1581
atp1582
a(S'y'
p1583
(dp1584
g100
F4.5e-05
sS'CONJ'
p1585
F0.999955
s(lp1586
(g115
I11
tp1587
atp1588
a(S'llevar'
p1589
(dp1590
S'VERB'
p1591
F1.0
s(lp1592
tp1593
a(g853
(dp1594
g100
F0.000829
sS'CONJ'
p1595
F0.000137
sS'ADP'
p1596
F0.999034
s(lp1597
(g122
I12
tp1598
atp1599
a(S'cabo'
p1600
(dp1601
S'NOUN'
p1602
F1.0
s(lp1603
(g325
I13
tp1604
atp1605
a(S'reformas'
p1606
(dp1607
S'VERB'
p1608
F0.035614
sS'NOUN'
p1609
F0.964386
s(lp1610
(g129
I16
tp1611
atp1612
a(S'profundas'
p1613
(dp1614
S'VERB'
p1615
F0.001347
sS'ADJ'
p1616
F0.998653
s(lp1617
(g144
I15
tp1618
atp1619
a(S'de'
p1620
(dp1621
g100
F0.0
sS'CONJ'
p1622
F5.7e-05
sS'ADP'
p1623
F0.999943
s(lp1624
(g165
I17
tp1625
atp1626
a(S'los'
p1627
(dp1628
S'PRON'
p1629
F0.0
sS'DET'
p1630
F1.0
s(lp1631
tp1632
a(S'sistemas'
p1633
(dp1634
S'NOUN'
p1635
F1.0
s(lp1636
(g158
I20
tp1637
atp1638
a(S'de'
p1639
(dp1640
g100
F4.7e-05
sS'CONJ'
p1641
F0.000455
sS'ADP'
p1642
F0.999497
s(lp1643
(g187
I18
tp1644
atp1645
a(S'pensiones'
p1646
(dp1647
S'VERB'
p1648
F0.001007
sS'NOUN'
p1649
F0.998993
s(lp1650
(g174
I19
tp1651
atp1652
a(S'de'
p1653
(dp1654
g100
F5.6e-05
sS'CONJ'
p1655
F0.000459
sS'ADP'
p1656
F0.999485
s(lp1657
tp1658
a(S'reparto'
p1659
(dp1660
S'VERB'
p1661
F0.001503
sS'NOUN'
p1662
F0.998497
s(lp1663
(g187
I18
tp1664
atp1665
a(S'para'
p1666
(dp1667
S'CONJ'
p1668
F0.952831
sS'ADP'
p1669
F0.047169
s(lp1670
(g195
I21
tp1671
atp1672
a(S'reducir'
p1673
(dp1674
S'VERB'
p1675
F1.0
s(lp1676
(g203
I22
tp1677
atp1678
a(S'las'
p1679
(dp1680
S'PRON'
p1681
F2e-06
sS'DET'
p1682
F0.999998
s(lp1683
tp1684
a(S'prestaciones'
p1685
(dp1686
S'NOUN'
p1687
F1.0
s(lp1688
(g219
I23
tp1689
atp1690
a(S'de'
p1691
(dp1692
g100
F0.0
sS'CONJ'
p1693
F1.7e-05
sS'ADP'
p1694
F0.999983
s(lp1695
(g227
I24
tp1696
atp1697
a(S'los'
p1698
(dp1699
S'PRON'
p1700
F0.0
sS'DET'
p1701
F1.0
s(lp1702
tp1703
a(S'asegurados'
p1704
(dp1705
S'VERB'
p1706
F1.0
s(lp1707
(g234
I25
tp1708
atp1709
a(g237
(dp1710
g237
F1.0
s(lp1711
(g237
I27
tp1712
atp1713
as.