(dp0
S'fr'
p1
(lp2
(S'les'
p3
(dp4
S'PRON'
p5
F0.000397
sS'DET'
p6
F0.99958
sS'ADP'
p7
F2.3e-05
s(lp8
(S'the'
p9
I1
tp10
atp11
a(S'accords'
p12
(dp13
S'NOUN'
p14
F1.0
s(lp15
(S'agreements'
p16
I2
tp17
atp18
a(S'conclus'
p19
(dp20
S'VERB'
p21
F1.0
s(lp22
(S'reached'
p23
I3
tp24
atp25
a(S'\xc3\xa0'
p26
(dp27
S'ADP'
p28
F1.0
s(lp29
(S'at'
p30
I4
tp31
atp32
a(S"l'"
p33
(dp34
S'ADJ'
p35
F0.160704
sS'VERB'
p36
F0.06480800000000002
sS'NOUN'
p37
F0.774488
s(lp38
(S'the'
p39
I5
tp40
atp41
a(S'issue'
p42
(dp43
S'NOUN'
p44
F0.200149
sS'ADJ'
p45
F0.799851
s(lp46
(S'end'
p47
I6
tp48
atp49
a(S'de'
p50
(dp51
S'ADP'
p52
F1.0
s(lp53
(S'of'
p54
I7
tp55
atp56
a(S'la'
p57
(dp58
S'PRON'
p59
F3.3e-05
sS'DET'
p60
F0.99995
sS'NOUN'
p61
F1.7e-05
s(lp62
(S'the'
p63
I8
tp64
atp65
a(S'sanglante'
p66
(dp67
S'ADJ'
p68
F1.0
s(lp69
(S'bloody'
p70
I9
tp71
atp72
a(S'guerre'
p73
(dp74
S'NOUN'
p75
F1.0
s(lp76
(S'war'
p77
I11
tp78
atp79
a(S'civile'
p80
(dp81
S'ADJ'
p82
F1.0
s(lp83
(S'civil'
p84
I10
tp85
atp86
a(S'ne'
p87
(dp88
S'ADV'
p89
F1.0
s(lp90
tp91
a(S'se'
p92
(dp93
S'PRON'
p94
F1.0
s(lp95
(S'become'
p96
I15
tp97
atp98
a(S'sont'
p99
(dp100
S'VERB'
p101
F1.0
s(lp102
(S'have'
p103
I12
tp104
atp105
a(S'pas'
p106
(dp107
S'ADV'
p108
F0.999264
sS'NOUN'
p109
F0.000736
s(lp110
(S'not'
p111
I13
tp112
atp113
a(S'encore'
p114
(dp115
S'ADV'
p116
F1.0
s(lp117
(S'yet'
p118
I14
tp119
atp120
a(S'tous'
p121
(dp122
S'PRON'
p123
F0.998099
sS'NOUN'
p124
F0.001901
s(lp125
(S'all'
p126
I0
tp127
atp128
a(S'concr\xc3\xa9tis\xc3\xa9s'
p129
(dp130
S'VERB'
p131
F1.0
s(lp132
(S'reality'
p133
I16
tp134
atp135
a(S'.'
p136
(dp137
g136
F1.0
s(lp138
(g136
I17
tp139
atp140
asS'en'
p141
(lp142
(g126
(dp143
S'ADV'
p144
F0.026085
sS'DET'
p145
F0.973915
s(lp146
(g126
I0
tp147
atp148
a(g9
(dp149
S'NOUN'
p150
F1.8e-05
sS'DET'
p151
F0.999982
s(lp152
(g9
I1
tp153
atp154
a(g16
(dp155
S'NOUN'
p156
F1.0
s(lp157
(g16
I2
tp158
atp159
a(g23
(dp160
S'VERB'
p161
F1.0
s(lp162
(g23
I3
tp163
atp164
a(g30
(dp165
S'NOUN'
p166
F1e-06
sS'ADP'
p167
F0.999999
s(lp168
(g30
I4
tp169
atp170
a(g39
(dp171
S'NOUN'
p172
F2e-06
sS'DET'
p173
F0.999998
s(lp174
(g39
I5
tp175
atp176
a(g47
(dp177
S'VERB'
p178
F0.00056
sS'NOUN'
p179
F0.999441
s(lp180
(g47
I6
tp181
atp182
a(g54
(dp183
S'ADP'
p184
F1.0
s(lp185
(g54
I7
tp186
atp187
a(g63
(dp188
S'NOUN'
p189
F1e-06
sS'DET'
p190
F0.999999
s(lp191
(g63
I8
tp192
atp193
a(g70
(dp194
S'VERB'
p195
F0.00032700000000000003
sS'ADJ'
p196
F0.999673
s(lp197
(g70
I9
tp198
atp199
a(g84
(dp200
S'ADJ'
p201
F1.0
s(lp202
(g84
I10
tp203
atp204
a(g77
(dp205
S'VERB'
p206
F7e-06
sS'NOUN'
p207
F0.999993
s(lp208
(g77
I11
tp209
atp210
a(g103
(dp211
S'VERB'
p212
F1.0
s(lp213
(g103
I12
tp214
atp215
a(g111
(dp216
S'ADV'
p217
F1.0
s(lp218
(g111
I13
tp219
atp220
a(g118
(dp221
S'ADV'
p222
F0.992418
sS'CONJ'
p223
F0.007531
sS'ADP'
p224
F5.1e-05
s(lp225
(g118
I14
tp226
atp227
a(g96
(dp228
S'VERB'
p229
F1.0
s(lp230
(g96
I15
tp231
atp232
a(g133
(dp233
S'NOUN'
p234
F1.0
s(lp235
(g133
I16
tp236
atp237
a(g136
(dp238
g136
F1.0
s(lp239
(g136
I17
tp240
atp241
asS'nl'
p242
(lp243
(S'nog'
p244
(dp245
S'ADV'
p246
F1.0
s(lp247
(g118
I14
tp248
atp249
a(S'niet'
p250
(dp251
S'ADV'
p252
F0.999996
sS'PRON'
p253
F0.0
sS'VERB'
p254
F3e-06
sS'X'
p255
F0.0
s(lp256
(g111
I13
tp257
atp258
a(S'alle'
p259
(dp260
S'PRON'
p261
F1.0
s(lp262
(g126
I0
tp263
atp264
a(S'overeenkomsten'
p265
(dp266
S'NOUN'
p267
F1.0
s(lp268
(g16
I2
tp269
atp270
a(S'die'
p271
(dp272
S'PRON'
p273
F1.0
s(lp274
tp275
a(S'op'
p276
(dp277
S'ADV'
p278
F0.010551
sS'ADJ'
p279
F0.0
sS'ADP'
p280
F0.989449
s(lp281
(g30
I4
tp282
atp283
a(S'het'
p284
(dp285
S'PRON'
p286
F0.000937
sS'DET'
p287
F0.999064
s(lp288
(g39
I5
tp289
atp290
a(S'eind'
p291
(dp292
S'NOUN'
p293
F1.0
s(lp294
(g47
I6
tp295
atp296
a(S'van'
p297
(dp298
S'ADP'
p299
F1.0
s(lp300
(g54
I7
tp301
atp302
a(S'de'
p303
(dp304
S'DET'
p305
F1.0
s(lp306
(g63
I8
tp307
atp308
a(S'bloedige'
p309
(dp310
S'NOUN'
p311
F0.006177
sS'ADJ'
p312
F0.993823
s(lp313
(g70
I9
tp314
atp315
a(S'burgeroorlog'
p316
(dp317
S'NOUN'
p318
F1.0
s(lp319
(g84
I10
tp320
atp321
a(S'zijn'
p322
(dp323
S'PRON'
p324
F0.000187
sS'VERB'
p325
F0.999789
sS'NOUN'
p326
F2.4e-05
s(lp327
(g103
I12
tp328
atp329
a(S'bereikt'
p330
(dp331
S'VERB'
p332
F1.0
s(lp333
(g23
I3
tp334
atp335
a(S','
p336
(dp337
g136
F1.0
s(lp338
tp339
a(S'zijn'
p340
(dp341
S'PRON'
p342
F0.005888
sS'VERB'
p343
F0.993086
sS'NOUN'
p344
F0.001026
s(lp345
(g96
I15
tp346
atp347
a(S'ten'
p348
(dp349
S'ADP'
p350
F1.0
s(lp351
tp352
a(S'uitvoer'
p353
(dp354
S'VERB'
p355
F2.2000000000000003e-05
sS'NOUN'
p356
F0.999978
s(lp357
tp358
a(S'gebracht'
p359
(dp360
S'VERB'
p361
F1.0
s(lp362
(g133
I16
tp363
atp364
a(g136
(dp365
g136
F1.0
s(lp366
(g136
I17
tp367
atp368
asS'de'
p369
(lp370
(S'alle'
p371
(dp372
S'PRON'
p373
F1.0
s(lp374
(g126
I0
tp375
atp376
a(S'am'
p377
(dp378
S'PRT'
p379
F0.004206
sS'ADP'
p380
F0.995794
s(lp381
tp382
a(S'ende'
p383
(dp384
S'VERB'
p385
F1.0
s(lp386
(g47
I6
tp387
atp388
a(S'des'
p389
(dp390
S'DET'
p391
F1.0
s(lp392
(g54
I7
tp393
atp394
a(S'blutigen'
p395
(dp396
S'ADJ'
p397
F1.0
s(lp398
(g70
I9
tp399
atp400
a(S'b\xc3\xbcrgerkriegs'
p401
(dp402
S'ADJ'
p403
F0.170453
sS'NOUN'
p404
F0.823794
s(lp405
(g84
I10
tp406
atp407
a(S'erzielten'
p408
(dp409
S'VERB'
p410
F0.246809
sS'ADJ'
p411
F0.753191
s(lp412
(g23
I3
tp413
atp414
a(S'vereinbarungen'
p415
(dp416
S'ADJ'
p417
F0.15129
sS'NOUN'
p418
F0.836477
s(lp419
(g16
I2
tp420
atp421
a(S'wurden'
p422
(dp423
S'VERB'
p424
F1.0
s(lp425
(g103
I12
tp426
atp427
a(S'bislang'
p428
(dp429
S'ADV'
p430
F1.0
s(lp431
tp432
a(S'noch'
p433
(dp434
S'ADV'
p435
F0.998605
sS'CONJ'
p436
F0.001395
s(lp437
(g118
I14
tp438
atp439
a(S'nicht'
p440
(dp441
S'PRT'
p442
F1.0
s(lp443
(g111
I13
tp444
atp445
a(S'in'
p446
(dp447
S'ADP'
p448
F1.0
s(lp449
(g30
I4
tp450
atp451
a(S'die'
p452
(dp453
S'PRON'
p454
F5e-05
sS'DET'
p455
F0.999934
s(lp456
(g39
I5
tp457
atp458
a(S'realit\xc3\xa4t'
p459
(dp460
S'ADJ'
p461
F0.000246
sS'NOUN'
p462
F0.999642
s(lp463
tp464
a(S'umgesetzt'
p465
(dp466
S'VERB'
p467
F1.0
s(lp468
(g133
I16
tp469
atp470
a(g136
(dp471
g136
F1.0
s(lp472
(g136
I17
tp473
atp474
asS'it'
p475
(lp476
(S'tutti'
p477
(dp478
S'PRON'
p479
F0.932338
sS'ADJ'
p480
F0.067662
s(lp481
(g126
I0
tp482
atp483
a(S'gli'
p484
(dp485
S'PRON'
p486
F0.000556
sS'DET'
p487
F0.999444
s(lp488
(g9
I1
tp489
atp490
a(S'accordi'
p491
(dp492
S'VERB'
p493
F0.003329
sS'NOUN'
p494
F0.996671
s(lp495
tp496
a(S'siglati'
p497
(dp498
S'VERB'
p499
F1.0
s(lp500
(g16
I2
tp501
atp502
a(S'alla'
p503
(dp504
S'ADP'
p505
F1.0
s(lp506
(g30
I4
tp507
atp508
a(S'fine'
p509
(dp510
S'ADJ'
p511
F0.016939
sS'NOUN'
p512
F0.983061
s(lp513
(g47
I6
tp514
atp515
a(S'della'
p516
(dp517
S'DEF'
p518
F0.003527
sS'ADP'
p519
F0.996473
s(lp520
(g54
I7
tp521
atp522
a(S'sanguinosa'
p523
(dp524
S'ADJ'
p525
F1.0
s(lp526
(g70
I9
tp527
atp528
a(S'guerra'
p529
(dp530
S'NOUN'
p531
F1.0
s(lp532
(g77
I11
tp533
atp534
a(S'civile'
p535
(dp536
S'NOUN'
p537
F0.003778
sS'ADJ'
p538
F0.996222
s(lp539
(g84
I10
tp540
atp541
a(S'non'
p542
(dp543
S'ADV'
p544
F1.0
s(lp545
(g111
I13
tp546
atp547
a(S'sono'
p548
(dp549
S'VERB'
p550
F0.999908
sS'NOUN'
p551
F9.2e-05
s(lp552
(g103
I12
tp553
atp554
a(S'ancora'
p555
(dp556
S'ADV'
p557
F0.997431
sS'VERB'
p558
F0.002514
sS'NOUN'
p559
F5.4e-05
s(lp560
(g118
I14
tp561
atp562
a(S'stati'
p563
(dp564
S'VERB'
p565
F0.956839
sS'NOUN'
p566
F0.043161
s(lp567
(g96
I15
tp568
atp569
a(S'realizzati'
p570
(dp571
S'VERB'
p572
F1.0
s(lp573
(g133
I16
tp574
atp575
a(g136
(dp576
g136
F1.0
s(lp577
(g136
I17
tp578
atp579
asS'sk'
p580
(lp581
(S'nie'
p582
(dp583
g255
F1.0
s(lp584
(g111
I13
tp585
atp586
a(S'v\xc5\xa1etky'
p587
(dp588
S'PRON'
p589
F1.0
s(lp590
(g126
I0
tp591
atp592
a(S'dohody'
p593
(dp594
S'NOUN'
p595
F1.0
s(lp596
(g16
I2
tp597
atp598
a(S'dosiahnut\xc3\xa9'
p599
(dp600
S'VERB'
p601
F1.0
s(lp602
(g23
I3
tp603
atp604
a(S'na'
p605
(dp606
g255
F0.000292
sS'CONJ'
p607
F1.6e-05
sS'ADP'
p608
F0.999687
sS'PRT'
p609
F5e-06
s(lp610
(g30
I4
tp611
atp612
a(S'konci'
p613
(dp614
S'NOUN'
p615
F1.0
s(lp616
(g47
I6
tp617
atp618
a(S'krvavej'
p619
(dp620
S'ADJ'
p621
F1.0
s(lp622
(g70
I9
tp623
atp624
a(S'ob\xc4\x8dianskej'
p625
(dp626
S'ADJ'
p627
F1.0
s(lp628
(g84
I10
tp629
atp630
a(S'vojny'
p631
(dp632
S'NOUN'
p633
F1.0
s(lp634
(g77
I11
tp635
atp636
a(S'sa'
p637
(dp638
S'PRT'
p639
F0.99926
sS'ADP'
p640
F1.5e-05
sg255
F0.0007259999999999999
s(lp641
(g103
I12
tp642
atp643
a(S'u\xc5\xbe'
p644
(dp645
S'ADV'
p646
F0.435264
sg255
F0.564708
sS'CONJ'
p647
F2.9e-05
s(lp648
(g118
I14
tp649
atp650
a(S'stali'
p651
(dp652
S'VERB'
p653
F0.9999999999999999
s(lp654
(g96
I15
tp655
atp656
a(S'skuto\xc4\x8dnos\xc5\xa5ou'
p657
(dp658
S'NOUN'
p659
F1.0
s(lp660
(g133
I16
tp661
atp662
a(g136
(dp663
g136
F1.0
s(lp664
(g136
I17
tp665
atp666
asS'pl'
p667
(lp668
(S'nie'
p669
(dp670
S'ADV'
p671
F0.00033
sS'PRT'
p672
F0.907581
sS'CONJ'
p673
F0.092058
sS'NOUN'
p674
F2e-06
sS'PRON'
p675
F2.8e-05
s(lp676
(g111
I13
tp677
atp678
a(S'wszystkie'
p679
(dp680
S'ADJ'
p681
F0.9999989999999999
s(lp682
(g126
I0
tp683
atp684
a(S'porozumienia'
p685
(dp686
S'VERB'
p687
F2e-05
sS'NOUN'
p688
F0.99998
s(lp689
(g16
I2
tp690
atp691
a(S'zawarte'
p692
(dp693
S'VERB'
p694
F0.999999
s(lp695
(g23
I3
tp696
atp697
a(S'po'
p698
(dp699
g255
F0.0
sS'VERB'
p700
F0.0
sS'NOUN'
p701
F0.0
sS'ADP'
p702
F0.999997
s(lp703
(g30
I4
tp704
atp705
a(S'zako\xc5\x84czeniu'
p706
(dp707
S'VERB'
p708
F0.899567
sS'NOUN'
p709
F0.100433
s(lp710
(g47
I6
tp711
atp712
a(S'krwawej'
p713
(dp714
S'ADJ'
p715
F1.0
s(lp716
tp717
a(S'wojny'
p718
(dp719
S'NOUN'
p720
F1.0
s(lp721
(g77
I11
tp722
atp723
a(S'domowej'
p724
(dp725
S'ADJ'
p726
F1.0
s(lp727
(g84
I10
tp728
atp729
a(S'wprowadzono'
p730
(dp731
S'VERB'
p732
F1.0
s(lp733
(g70
I9
tp734
atp735
a(S'ju\xc5\xbc'
p736
(dp737
S'PRT'
p738
F1.0
s(lp739
(g118
I14
tp740
atp741
a(S'w'
p742
(dp743
S'ADJ'
p744
F0.0
sg255
F0.0
sS'NOUN'
p745
F8e-06
sS'ADP'
p746
F0.999992
s(lp747
tp748
a(S'\xc5\xbcycie'
p749
(dp750
S'VERB'
p751
F0.003749
sS'NOUN'
p752
F0.9962500000000001
s(lp753
(g133
I16
tp754
atp755
a(g136
(dp756
g136
F1.0
s(lp757
(g136
I17
tp758
atp759
asS'sl'
p760
(lp761
(S'vsi'
p762
(dp763
S'PRON'
p764
F1.0
s(lp765
(g126
I0
tp766
atp767
a(S'dogovori'
p768
(dp769
S'VERB'
p770
F0.008986
sS'NOUN'
p771
F0.991014
s(lp772
(g16
I2
tp773
atp774
a(g336
(dp775
g136
F1.0
s(lp776
tp777
a(S'ki'
p778
(dp779
S'CONJ'
p780
F1.0
s(lp781
(g23
I3
tp782
atp783
a(S'so'
p784
(dp785
g255
F0.0
sS'VERB'
p786
F1.0
s(lp787
(g103
I12
tp788
atp789
a(S'bili'
p790
(dp791
S'VERB'
p792
F0.9999999999999999
s(lp793
tp794
a(S'sprejeti'
p795
(dp796
S'VERB'
p797
F0.013435
sS'ADJ'
p798
F0.986565
s(lp799
(g23
I3
tp800
atp801
a(S'ob'
p802
(dp803
g255
F7e-06
sS'ADP'
p804
F0.999993
s(lp805
(g30
I4
tp806
atp807
a(S'koncu'
p808
(dp809
S'NOUN'
p810
F1.0
s(lp811
(g47
I6
tp812
atp813
a(S'krvave'
p814
(dp815
S'ADJ'
p816
F0.999999
s(lp817
(g70
I9
tp818
atp819
a(S'dr\xc5\xbeavljanske'
p820
(dp821
S'ADJ'
p822
F1.0
s(lp823
(g84
I10
tp824
atp825
a(S'vojne'
p826
(dp827
S'ADJ'
p828
F0.000567
sS'NOUN'
p829
F0.9994329999999999
s(lp830
(g77
I11
tp831
atp832
a(g336
(dp833
g136
F1.0
s(lp834
tp835
a(S'\xc5\xa1e'
p836
(dp837
S'PRT'
p838
F1.0
s(lp839
(g118
I14
tp840
atp841
a(S'niso'
p842
(dp843
S'VERB'
p844
F1.0
s(lp845
(g111
I13
tp846
atp847
a(S'uresni\xc4\x8deni'
p848
(dp849
S'ADV'
p850
F0.001829
sS'NOUN'
p851
F0.049592
sS'VERB'
p852
F0.020337999999999995
sS'ADJ'
p853
F0.9282429999999998
s(lp854
(g133
I16
tp855
atp856
a(g136
(dp857
g136
F1.0
s(lp858
(g136
I17
tp859
atp860
asS'es'
p861
(lp862
(S'a\xc3\xban'
p863
(dp864
S'ADV'
p865
F1.0
s(lp866
(g118
I14
tp867
atp868
a(S'no'
p869
(dp870
S'ADV'
p871
F1.0
sg255
F0.0
s(lp872
(g111
I13
tp873
atp874
a(S'se'
p875
(dp876
S'PRON'
p877
F1.0
sS'VERB'
p878
F0.0
s(lp879
(g96
I15
tp880
atp881
a(S'han'
p882
(dp883
S'VERB'
p884
F1.0
s(lp885
(g103
I12
tp886
atp887
a(S'materializado'
p888
(dp889
S'VERB'
p890
F1.0
s(lp891
(g133
I16
tp892
atp893
a(S'los'
p894
(dp895
S'PRON'
p896
F1e-06
sS'DET'
p897
F0.999999
s(lp898
(g9
I1
tp899
atp900
a(S'acuerdos'
p901
(dp902
S'NOUN'
p903
F1.0
s(lp904
(g16
I2
tp905
atp906
a(S'alcanzados'
p907
(dp908
S'VERB'
p909
F1.0
s(lp910
(g23
I3
tp911
atp912
a(S'al'
p913
(dp914
S'CONJ'
p915
F0.000883
sS'ADP'
p916
F0.999117
s(lp917
(g30
I4
tp918
atp919
a(S'final'
p920
(dp921
S'ADJ'
p922
F0.069077
sS'NOUN'
p923
F0.930923
s(lp924
(g47
I6
tp925
atp926
a(S'de'
p927
(dp928
g255
F0.0
sS'CONJ'
p929
F2e-05
sS'ADP'
p930
F0.999979
s(lp931
(g54
I7
tp932
atp933
a(S'la'
p934
(dp935
S'NOUN'
p936
F4.9e-05
sS'PRON'
p937
F1e-06
sS'DET'
p938
F0.999947
sg255
F4e-06
s(lp939
(g63
I8
tp940
atp941
a(S'sangrienta'
p942
(dp943
S'ADJ'
p944
F1.0
s(lp945
(g70
I9
tp946
atp947
a(S'guerra'
p948
(dp949
S'NOUN'
p950
F1.0
s(lp951
(g77
I11
tp952
atp953
a(S'civil'
p954
(dp955
S'NOUN'
p956
F0.008827
sS'ADJ'
p957
F0.991173
s(lp958
(g84
I10
tp959
atp960
a(g136
(dp961
g136
F1.0
s(lp962
(g136
I17
tp963
atp964
as.