(dp0
S'fr'
p1
(lp2
(S'la'
p3
(dp4
S'PRON'
p5
F8.2e-05
sS'DET'
p6
F0.999918
sS'NOUN'
p7
F0.0
s(lp8
(S'the'
p9
I0
tp10
atp11
a(S'commission'
p12
(dp13
S'NOUN'
p14
F1.0
s(lp15
(S'commission'
p16
I1
tp17
atp18
a(S'devrait'
p19
(dp20
S'VERB'
p21
F1.0
s(lp22
(S'should'
p23
I2
tp24
atp25
a(S'r\xc3\xa9diger'
p26
(dp27
S'VERB'
p28
F1.0
s(lp29
(S'draft'
p30
I3
tp31
atp32
a(S'le'
p33
(dp34
S'PRON'
p35
F9.8e-05
sS'DET'
p36
F0.999902
s(lp37
(S'the'
p38
I4
tp39
atp40
a(S'nouveau'
p41
(dp42
S'NOUN'
p43
F0.004142
sS'ADJ'
p44
F0.995858
s(lp45
(S'new'
p46
I5
tp47
atp48
a(S'r\xc3\xa8glement'
p49
(dp50
S'NOUN'
p51
F1.0
s(lp52
(S'regulation'
p53
I6
tp54
atp55
a(S'sur'
p56
(dp57
S'ADP'
p58
F1.0
s(lp59
(S'on'
p60
I7
tp61
atp62
a(S'le'
p63
(dp64
S'PRON'
p65
F0.002088
sS'DET'
p66
F0.997912
s(lp67
tp68
a(S'spg'
p69
(dp70
S'ADJ'
p71
F0.002854
sS'VERB'
p72
F0.002128
sS'NOUN'
p73
F0.995018
s(lp74
(S'gsp'
p75
I8
tp76
atp77
a(S'aussi'
p78
(dp79
S'ADV'
p80
F0.989785
sS'CONJ'
p81
F0.010215
s(lp82
(S'as'
p83
I9
tp84
atp85
a(S'rapidement'
p86
(dp87
S'ADV'
p88
F1.0
s(lp89
(S'soon'
p90
I10
tp91
atp92
a(S'que'
p93
(dp94
S'ADV'
p95
F0.322276
sS'PRON'
p96
F0.009892
sS'CONJ'
p97
F0.667832
s(lp98
(S'as'
p99
I11
tp100
atp101
a(S'possible'
p102
(dp103
S'NOUN'
p104
F0.018318
sS'ADJ'
p105
F0.981682
s(lp106
(S'possible'
p107
I12
tp108
atp109
a(S'.'
p110
(dp111
g110
F1.0
s(lp112
(g110
I13
tp113
atp114
asS'en'
p115
(lp116
(g9
(dp117
S'NOUN'
p118
F5e-06
sS'DET'
p119
F0.999995
s(lp120
(g9
I0
tp121
atp122
a(g16
(dp123
S'VERB'
p124
F4e-06
sS'NOUN'
p125
F0.999997
s(lp126
(g16
I1
tp127
atp128
a(g23
(dp129
S'VERB'
p130
F1.0
s(lp131
(g23
I2
tp132
atp133
a(g30
(dp134
S'VERB'
p135
F0.999971
sS'NOUN'
p136
F2.9e-05
s(lp137
(g30
I3
tp138
atp139
a(g38
(dp140
S'NOUN'
p141
F0.0
sS'DET'
p142
F1.0
s(lp143
(g38
I4
tp144
atp145
a(g46
(dp146
S'NOUN'
p147
F5.2e-05
sS'ADJ'
p148
F0.999948
s(lp149
(g46
I5
tp150
atp151
a(g53
(dp152
S'NOUN'
p153
F1.0
s(lp154
(g53
I6
tp155
atp156
a(g60
(dp157
S'ADV'
p158
F0.000337
sS'PRT'
p159
F0.000371
sS'ADJ'
p160
F4e-06
sS'ADP'
p161
F0.999284
sS'NOUN'
p162
F4e-06
s(lp163
(g60
I7
tp164
atp165
a(g75
(dp166
S'ADJ'
p167
F0.038235
sS'VERB'
p168
F0.000156
sS'NOUN'
p169
F0.9616089999999999
s(lp170
(g75
I8
tp171
atp172
a(g83
(dp173
S'ADV'
p174
F0.151894
sS'ADP'
p175
F0.848106
s(lp176
(g83
I9
tp177
atp178
a(g90
(dp179
S'ADV'
p180
F1.0
s(lp181
(g90
I10
tp182
atp183
a(g99
(dp184
S'ADV'
p185
F0.253886
sS'ADP'
p186
F0.746114
s(lp187
(g99
I11
tp188
atp189
a(g107
(dp190
S'ADV'
p191
F0.00711
sS'NOUN'
p192
F0.002091
sS'ADJ'
p193
F0.990799
s(lp194
(g107
I12
tp195
atp196
a(g110
(dp197
g110
F1.0
s(lp198
(g110
I13
tp199
atp200
asS'nl'
p201
(lp202
(S'de'
p203
(dp204
S'DET'
p205
F1.0
s(lp206
(g9
I0
tp207
atp208
a(S'commissie'
p209
(dp210
S'NOUN'
p211
F1.0
s(lp212
(g16
I1
tp213
atp214
a(S'dient'
p215
(dp216
S'VERB'
p217
F1.0
s(lp218
(g23
I2
tp219
atp220
a(S'de'
p221
(dp222
S'DET'
p223
F1.0
s(lp224
(g38
I4
tp225
atp226
a(S'nieuwe'
p227
(dp228
S'NOUN'
p229
F1.7e-05
sS'ADJ'
p230
F0.999983
s(lp231
(g46
I5
tp232
atp233
a(S'sap-verordening'
p234
(dp235
S'NOUN'
p236
F1.0
s(lp237
(g75
I8
tp238
atp239
a(S'zo'
p240
(dp241
S'ADV'
p242
F0.999957
sS'X'
p243
F0.0
sS'CONJ'
p244
F4.3e-05
s(lp245
(g83
I9
tp246
atp247
a(S'snel'
p248
(dp249
S'VERB'
p250
F0.116357
sS'ADJ'
p251
F0.883643
s(lp252
(g90
I10
tp253
atp254
a(S'mogelijk'
p255
(dp256
S'ADJ'
p257
F1.0
s(lp258
(g107
I12
tp259
atp260
a(S'op'
p261
(dp262
S'ADV'
p263
F0.99397
sS'ADJ'
p264
F0.000359
sS'ADP'
p265
F0.005671
s(lp266
(g60
I7
tp267
atp268
a(S'te'
p269
(dp270
S'PRT'
p271
F1.0
s(lp272
tp273
a(S'stellen'
p274
(dp275
S'VERB'
p276
F0.999997
sS'NOUN'
p277
F3e-06
s(lp278
(g30
I3
tp279
atp280
a(g110
(dp281
g110
F1.0
s(lp282
(g110
I13
tp283
atp284
asS'de'
p285
(lp286
(S'die'
p287
(dp288
S'PRON'
p289
F0.002113
sS'DET'
p290
F0.997312
s(lp291
(g9
I0
tp292
atp293
a(S'kommission'
p294
(dp295
S'ADJ'
p296
F0.008744
sS'NOUN'
p297
F0.988335
s(lp298
(g16
I1
tp299
atp300
a(S'sollte'
p301
(dp302
S'VERB'
p303
F1.0
s(lp304
(g23
I2
tp305
atp306
a(S'den'
p307
(dp308
S'PRON'
p309
F0.000167
sS'DET'
p310
F0.999833
s(lp311
(g38
I4
tp312
atp313
a(S'entwurf'
p314
(dp315
S'ADJ'
p316
F9.4e-05
sS'NOUN'
p317
F0.999838
s(lp318
(g30
I3
tp319
atp320
a(S'einer'
p321
(dp322
S'PRON'
p323
F0.001276
sS'DET'
p324
F0.998585
s(lp325
tp326
a(S'neuen'
p327
(dp328
S'ADJ'
p329
F1.0
s(lp330
(g46
I5
tp331
atp332
a(S'verordnung'
p333
(dp334
S'VERB'
p335
F1.8e-05
sS'NOUN'
p336
F0.999955
s(lp337
(g53
I6
tp338
atp339
a(S'\xc3\xbcber'
p340
(dp341
S'PRT'
p342
F9.1e-05
sS'ADP'
p343
F0.999909
s(lp344
(g60
I7
tp345
atp346
a(S'das'
p347
(dp348
S'PRON'
p349
F0.001562
sS'DET'
p350
F0.998422
s(lp351
tp352
a(S'aps'
p353
(dp354
S'ADJ'
p355
F0.000196
sS'NOUN'
p356
F0.9995
s(lp357
(g75
I8
tp358
atp359
a(S'so'
p360
(dp361
S'ADV'
p362
F0.999992
sS'PRON'
p363
F8e-06
s(lp364
(g83
I9
tp365
atp366
a(S'schnell'
p367
(dp368
S'VERB'
p369
F0.0
sS'ADJ'
p370
F1.0
s(lp371
(g90
I10
tp372
atp373
a(S'wie'
p374
(dp375
S'CONJ'
p376
F1.0
s(lp377
(g99
I11
tp378
atp379
a(S'm\xc3\xb6glich'
p380
(dp381
S'ADJ'
p382
F1.0
s(lp383
(g107
I12
tp384
atp385
a(S'erarbeiten'
p386
(dp387
S'VERB'
p388
F1.0
s(lp389
(g30
I3
tp390
atp391
a(g110
(dp392
g110
F1.0
s(lp393
(g110
I13
tp394
atp395
asS'it'
p396
(lp397
(S'la'
p398
(dp399
S'PRON'
p400
F0.000408
sS'DET'
p401
F0.999592
s(lp402
(g9
I0
tp403
atp404
a(S'commissione'
p405
(dp406
S'NOUN'
p407
F1.0
s(lp408
(g16
I1
tp409
atp410
a(S'dovrebbe'
p411
(dp412
S'VERB'
p413
F1.0
s(lp414
(g23
I2
tp415
atp416
a(S'predisporre'
p417
(dp418
S'VERB'
p419
F1.0
s(lp420
(g30
I3
tp421
atp422
a(S'il'
p423
(dp424
S'DET'
p425
F1.0
s(lp426
(g38
I4
tp427
atp428
a(S'nuovo'
p429
(dp430
S'NOUN'
p431
F0.003149
sS'ADJ'
p432
F0.996851
s(lp433
(g46
I5
tp434
atp435
a(S'regolamento'
p436
(dp437
S'VERB'
p438
F0.014026
sS'NOUN'
p439
F0.985974
s(lp440
tp441
a(S'relativo'
p442
(dp443
S'ADJ'
p444
F1.0
s(lp445
(g53
I6
tp446
atp447
a(S'al'
p448
(dp449
S'ADP'
p450
F1.0
s(lp451
(g60
I7
tp452
atp453
a(S'gsp'
p454
(dp455
S'ADJ'
p456
F0.139882
sS'VERB'
p457
F0.00041799999999999997
sS'NOUN'
p458
F0.859701
s(lp459
(g75
I8
tp460
atp461
a(S'al'
p462
(dp463
S'ADP'
p464
F1.0
s(lp465
(g83
I9
tp466
atp467
a(S'pi\xc3\xb9'
p468
(dp469
S'ADV'
p470
F0.988144
sS'NOUN'
p471
F0.00158
sS'ADJ'
p472
F0.010276
sS'ADP'
p473
F1e-06
s(lp474
tp475
a(S'presto'
p476
(dp477
S'ADV'
p478
F0.859536
sS'VERB'
p479
F0.024818
sS'ADJ'
p480
F0.115646
s(lp481
(g90
I10
tp482
atp483
a(S'possibile'
p484
(dp485
S'NOUN'
p486
F0.005764
sS'ADJ'
p487
F0.994236
s(lp488
(g107
I12
tp489
atp490
a(g110
(dp491
g110
F1.0
s(lp492
(g110
I13
tp493
atp494
asS'sk'
p495
(lp496
(S'komisia'
p497
(dp498
S'NOUN'
p499
F1.0
s(lp500
(g16
I1
tp501
atp502
a(S'by'
p503
(dp504
S'PRT'
p505
F0.999911
sg243
F8.9e-05
s(lp506
tp507
a(S'mala'
p508
(dp509
S'ADV'
p510
F0.00018
sS'VERB'
p511
F0.99982
s(lp512
(g23
I2
tp513
atp514
a(S'navrhn\xc3\xba\xc5\xa5'
p515
(dp516
S'VERB'
p517
F1.0
s(lp518
(g30
I3
tp519
atp520
a(S'nov\xc3\xa9'
p521
(dp522
g243
F8.8e-05
sS'ADJ'
p523
F0.999911
s(lp524
(g46
I5
tp525
atp526
a(S'nariadenie'
p527
(dp528
S'NOUN'
p529
F1.0
s(lp530
(g53
I6
tp531
atp532
a(S'o'
p533
(dp534
g243
F0.0009609999999999999
sS'CONJ'
p535
F4.8e-05
sS'NOUN'
p536
F1.7e-05
sS'ADP'
p537
F0.998974
s(lp538
(g60
I7
tp539
atp540
a(S'syst\xc3\xa9me'
p541
(dp542
S'NOUN'
p543
F1.0
s(lp544
tp545
a(S'gsp'
p546
(dp547
S'VERB'
p548
F0.6186069999999997
sS'NOUN'
p549
F0.38139300000000004
s(lp550
(g75
I8
tp551
atp552
a(S'\xc4\x8do'
p553
(dp554
S'PRON'
p555
F0.735761
sS'CONJ'
p556
F0.173499
sg243
F0.09074
s(lp557
(g107
I12
tp558
atp559
a(S'najsk\xc3\xb4r'
p560
(dp561
S'ADV'
p562
F0.9826590000000001
sg243
F0.017341
s(lp563
(g90
I10
tp564
atp565
a(g110
(dp566
g110
F1.0
s(lp567
(g110
I13
tp568
atp569
asS'pl'
p570
(lp571
(S'komisja'
p572
(dp573
S'NOUN'
p574
F1.0
s(lp575
(g16
I1
tp576
atp577
a(S'powinna'
p578
(dp579
S'VERB'
p580
F1.0
s(lp581
(g23
I2
tp582
atp583
a(S'mo\xc5\xbcliwie'
p584
(dp585
S'ADV'
p586
F1.0
s(lp587
(g107
I12
tp588
atp589
a(S'jak'
p590
(dp591
S'ADV'
p592
F0.884294
sS'PRT'
p593
F0.000209
sS'CONJ'
p594
F0.045575000000000004
sS'ADP'
p595
F0.069919
sS'PRON'
p596
F3e-06
s(lp597
(g83
I9
tp598
atp599
a(S'najszybciej'
p600
(dp601
S'ADV'
p602
F1.0
s(lp603
(g90
I10
tp604
atp605
a(S'przygotowa\xc4\x87'
p606
(dp607
S'VERB'
p608
F1.0
s(lp609
(g75
I8
tp610
atp611
a(S'projekt'
p612
(dp613
S'NOUN'
p614
F1.0
s(lp615
(g30
I3
tp616
atp617
a(S'nowego'
p618
(dp619
S'ADJ'
p620
F1.000001
s(lp621
(g46
I5
tp622
atp623
a(S'rozporz\xc4\x85dzenia'
p624
(dp625
S'NOUN'
p626
F1.0
s(lp627
(g53
I6
tp628
atp629
a(g110
(dp630
g110
F1.0
s(lp631
(g110
I13
tp632
atp633
asS'sl'
p634
(lp635
(S'komisija'
p636
(dp637
S'NOUN'
p638
F1.0
s(lp639
(g16
I1
tp640
atp641
a(S'mora'
p642
(dp643
S'VERB'
p644
F0.997136
sS'NOUN'
p645
F0.002864
s(lp646
(g23
I2
tp647
atp648
a(S'\xc4\x8dim'
p649
(dp650
S'ADV'
p651
F0.998522
sS'PRON'
p652
F0.001478
s(lp653
(g107
I12
tp654
atp655
a(S'prej'
p656
(dp657
S'ADV'
p658
F1.0
s(lp659
(g90
I10
tp660
atp661
a(S'pripraviti'
p662
(dp663
S'VERB'
p664
F1.0
s(lp665
tp666
a(S'osnutek'
p667
(dp668
S'NOUN'
p669
F1.0
s(lp670
(g30
I3
tp671
atp672
a(S'nove'
p673
(dp674
g243
F1.1e-05
sS'ADJ'
p675
F0.99999
s(lp676
(g46
I5
tp677
atp678
a(S'uredbe'
p679
(dp680
S'NOUN'
p681
F1.0
s(lp682
(g53
I6
tp683
atp684
a(g533
(dp685
S'NOUN'
p686
F0.008652
sS'ADP'
p687
F0.991348
s(lp688
(g60
I7
tp689
atp690
a(S'ssp'
p691
(dp692
S'ADV'
p693
F0.001175
sg243
F0.000652
sS'ADJ'
p694
F0.0004760000000000001
sS'VERB'
p695
F9e-05
sS'NOUN'
p696
F0.9976050000000001
s(lp697
(g75
I8
tp698
atp699
a(g110
(dp700
g110
F1.0
s(lp701
(g110
I13
tp702
atp703
asS'es'
p704
(lp705
(S'la'
p706
(dp707
g243
F4.5e-05
sS'DET'
p708
F0.999917
sS'NOUN'
p709
F0.0
sS'PRON'
p710
F3.8e-05
s(lp711
(g9
I0
tp712
atp713
a(S'comisi\xc3\xb3n'
p714
(dp715
S'NOUN'
p716
F1.0
s(lp717
(g16
I1
tp718
atp719
a(S'deber\xc3\xada'
p720
(dp721
S'VERB'
p722
F1.0
s(lp723
(g23
I2
tp724
atp725
a(S'redactar'
p726
(dp727
S'VERB'
p728
F1.0
s(lp729
(g30
I3
tp730
atp731
a(S'el'
p732
(dp733
S'PRON'
p734
F9e-06
sS'DET'
p735
F0.999991
s(lp736
(g38
I4
tp737
atp738
a(S'nuevo'
p739
(dp740
S'ADJ'
p741
F1.0
s(lp742
(g46
I5
tp743
atp744
a(S'reglamento'
p745
(dp746
S'VERB'
p747
F0.133559
sS'NOUN'
p748
F0.866441
s(lp749
(g53
I6
tp750
atp751
a(S'sobre'
p752
(dp753
S'NOUN'
p754
F0.0
sS'ADP'
p755
F1.0
s(lp756
(g60
I7
tp757
atp758
a(S'el'
p759
(dp760
S'PRON'
p761
F5e-06
sS'DET'
p762
F0.999995
s(lp763
(g75
I8
tp764
atp765
a(S'sistema'
p766
(dp767
S'NOUN'
p768
F1.0
s(lp769
(g75
I8
tp770
atp771
a(S'de'
p772
(dp773
g243
F2.9e-05
sS'CONJ'
p774
F0.000449
sS'ADP'
p775
F0.999522
s(lp776
tp777
a(S'preferencias'
p778
(dp779
S'NOUN'
p780
F1.0
s(lp781
tp782
a(S'generalizadas'
p783
(dp784
S'VERB'
p785
F1.0
s(lp786
(g75
I8
tp787
atp788
a(S'lo'
p789
(dp790
S'PRON'
p791
F0.000108
sS'DET'
p792
F0.999892
s(lp793
(g83
I9
tp794
atp795
a(S'm\xc3\xa1s'
p796
(dp797
S'ADV'
p798
F0.999926
sS'CONJ'
p799
F7.4e-05
s(lp800
tp801
a(S'pronto'
p802
(dp803
S'ADV'
p804
F0.997972
sS'ADJ'
p805
F0.002028
s(lp806
(g90
I10
tp807
atp808
a(S'posible'
p809
(dp810
S'ADJ'
p811
F1.0
s(lp812
(g107
I12
tp813
atp814
a(g110
(dp815
g110
F1.0
s(lp816
(g110
I13
tp817
atp818
as.