(dp0
S'fr'
p1
(lp2
(S'nous'
p3
(dp4
S'PRON'
p5
F1.0
s(lp6
(S'we'
p7
I1
tp8
atp9
a(S'devons'
p10
(dp11
S'VERB'
p12
F0.999555
sS'NOUN'
p13
F0.000445
s(lp14
(S'have'
p15
I2
tp16
atp17
a(S"aujourd'"
p18
(dp19
S'NOUN'
p20
F0.266033
sS'VERB'
p21
F0.020901000000000006
sS'ADJ'
p22
F0.713067
s(lp23
tp24
a(S'hui'
p25
(dp26
S'ADJ'
p27
F0.000197
sS'VERB'
p28
F0.948947
sS'NOUN'
p29
F0.050856
s(lp30
(S'today'
p31
I0
tp32
atp33
a(S'conc\xc3\xa9der'
p34
(dp35
S'VERB'
p36
F1.0
s(lp37
(S'concede'
p38
I4
tp39
atp40
a(S'que'
p41
(dp42
S'ADV'
p43
F0.061339
sS'PRON'
p44
F0.086401
sS'CONJ'
p45
F0.85226
s(lp46
(S'that'
p47
I5
tp48
atp49
a(S"l'"
p50
(dp51
S'NOUN'
p52
F0.047015
sS'VERB'
p53
F0.8903029999999998
sS'ADJ'
p54
F0.062682
s(lp55
tp56
a(S'europe'
p57
(dp58
S'VERB'
p59
F0.012202
sS'NOUN'
p60
F0.987799
s(lp61
(S'europe'
p62
I6
tp63
atp64
a(S'est'
p65
(dp66
S'VERB'
p67
F0.998371
sS'NOUN'
p68
F0.001629
s(lp69
(S'is'
p70
I7
tp71
atp72
a(S'impuissante'
p73
(dp74
S'ADJ'
p75
F1.0
s(lp76
(S'powerless'
p77
I8
tp78
atp79
a(S'dans'
p80
(dp81
S'NOUN'
p82
F5.1e-05
sS'ADP'
p83
F0.999949
s(lp84
(S'in'
p85
I9
tp86
atp87
a(S'cette'
p88
(dp89
S'PRON'
p90
F1.0
s(lp91
(S'this'
p92
I10
tp93
atp94
a(S'situation'
p95
(dp96
S'NOUN'
p97
F1.0
s(lp98
(S'situation'
p99
I11
tp100
atp101
a(S'.'
p102
(dp103
g102
F1.0
s(lp104
(g102
I12
tp105
atp106
asS'en'
p107
(lp108
(g31
(dp109
S'ADV'
p110
F0.163382
sS'NOUN'
p111
F0.836618
s(lp112
(g31
I0
tp113
atp114
a(g7
(dp115
S'PRON'
p116
F1.0
s(lp117
(g7
I1
tp118
atp119
a(g15
(dp120
S'VERB'
p121
F1.0
s(lp122
(g15
I2
tp123
atp124
a(S'to'
p125
(dp126
S'ADV'
p127
F2e-06
sS'PRT'
p128
F0.999998
sS'ADP'
p129
F0.0
s(lp130
(g125
I3
tp131
atp132
a(g38
(dp133
S'VERB'
p134
F1.0
s(lp135
(g38
I4
tp136
atp137
a(g47
(dp138
S'ADV'
p139
F0.000211
sS'DET'
p140
F0.7067220000000001
sS'ADP'
p141
F0.293067
s(lp142
(g47
I5
tp143
atp144
a(g62
(dp145
S'ADV'
p146
F0.000539
sS'ADJ'
p147
F0.003546
sS'VERB'
p148
F0.0
sS'NOUN'
p149
F0.9959140000000001
s(lp150
(g62
I6
tp151
atp152
a(g70
(dp153
S'VERB'
p154
F1.0
s(lp155
(g70
I7
tp156
atp157
a(g77
(dp158
S'ADJ'
p159
F1.0
s(lp160
(g77
I8
tp161
atp162
a(g85
(dp163
S'ADV'
p164
F0.000225
sS'PRT'
p165
F0.000213
sS'ADP'
p166
F0.999562
s(lp167
(g85
I9
tp168
atp169
a(g92
(dp170
S'ADV'
p171
F3e-06
sS'NOUN'
p172
F1.9e-05
sS'DET'
p173
F0.999978
s(lp174
(g92
I10
tp175
atp176
a(g99
(dp177
S'NOUN'
p178
F1.0
s(lp179
(g99
I11
tp180
atp181
a(g102
(dp182
g102
F1.0
s(lp183
(g102
I12
tp184
atp185
asS'nl'
p186
(lp187
(S'vandaag'
p188
(dp189
S'ADV'
p190
F1.0
s(lp191
(g31
I0
tp192
atp193
a(S'moeten'
p194
(dp195
S'VERB'
p196
F0.999999
sS'NOUN'
p197
F0.0
s(lp198
(g15
I2
tp199
atp200
a(S'we'
p201
(dp202
S'PRON'
p203
F1.0
s(lp204
(g7
I1
tp205
atp206
a(S'toegeven'
p207
(dp208
S'VERB'
p209
F0.9842770000000001
sS'NOUN'
p210
F0.015723
s(lp211
(g38
I4
tp212
atp213
a(S'dat'
p214
(dp215
S'PRON'
p216
F0.6011289999999999
sS'CONJ'
p217
F0.398871
s(lp218
(g47
I5
tp219
atp220
a(S'europa'
p221
(dp222
S'NOUN'
p223
F1.0
s(lp224
(g62
I6
tp225
atp226
a(S'machteloos'
p227
(dp228
S'ADJ'
p229
F1.0
s(lp230
(g77
I8
tp231
atp232
a(S'hier'
p233
(dp234
S'ADV'
p235
F1.0
s(lp236
(g92
I10
tp237
atp238
a(S'tegenover'
p239
(dp240
S'ADP'
p241
F1.0
s(lp242
tp243
a(S'staat'
p244
(dp245
S'VERB'
p246
F1e-06
sS'NOUN'
p247
F0.999999
s(lp248
(g77
I8
tp249
atp250
a(g102
(dp251
g102
F1.0
s(lp252
(g102
I12
tp253
atp254
asS'de'
p255
(lp256
(S'wir'
p257
(dp258
S'PRON'
p259
F1.0
s(lp260
(g7
I1
tp261
atp262
a(S'm\xc3\xbcssen'
p263
(dp264
S'VERB'
p265
F0.999434
s(lp266
(g15
I2
tp267
atp268
a(S'heute'
p269
(dp270
S'ADV'
p271
F1.0
sS'VERB'
p272
F0.0
s(lp273
(g31
I0
tp274
atp275
a(S'gestehen'
p276
(dp277
S'VERB'
p278
F1.0
s(lp279
(g38
I4
tp280
atp281
a(S','
p282
(dp283
g102
F1.0
s(lp284
tp285
a(S'dass'
p286
(dp287
S'CONJ'
p288
F1.0
s(lp289
(g47
I5
tp290
atp291
a(S'europa'
p292
(dp293
S'ADJ'
p294
F0.145702
sS'NOUN'
p295
F0.830805
s(lp296
(g62
I6
tp297
atp298
a(S'dieser'
p299
(dp300
S'PRON'
p301
F1.0
s(lp302
(g92
I10
tp303
atp304
a(S'situation'
p305
(dp306
S'ADJ'
p307
F0.082636
sS'NOUN'
p308
F0.908006
s(lp309
(g99
I11
tp310
atp311
a(S'machtlos'
p312
(dp313
S'ADJ'
p314
F1.0
s(lp315
tp316
a(S'gegen\xc3\xbcbersteht'
p317
(dp318
S'VERB'
p319
F1.0
s(lp320
(g77
I8
tp321
atp322
a(g102
(dp323
g102
F1.0
s(lp324
(g102
I12
tp325
atp326
asS'it'
p327
(lp328
(S'oggi'
p329
(dp330
S'ADV'
p331
F0.986797
sS'NOUN'
p332
F0.013203
s(lp333
(g31
I0
tp334
atp335
a(g282
(dp336
g102
F1.0
s(lp337
tp338
a(S'dobbiamo'
p339
(dp340
S'VERB'
p341
F1.0
s(lp342
(g7
I1
tp343
atp344
a(S'riconoscere'
p345
(dp346
S'VERB'
p347
F1.0
s(lp348
(g38
I4
tp349
atp350
a(S'che'
p351
(dp352
S'PRON'
p353
F0.939703
sS'CONJ'
p354
F0.060156
sS'ADJ'
p355
F0.000141
s(lp356
(g47
I5
tp357
atp358
a(S"l'"
p359
(dp360
S'NOUN'
p361
F0.00222
sS'VERB'
p362
F0.988697
sS'ADJ'
p363
F0.009083
s(lp364
tp365
a(S'europa'
p366
(dp367
S'NOUN'
p368
F0.362927
sS'VERB'
p369
F0.063318
sS'ADJ'
p370
F0.573754
s(lp371
(g62
I6
tp372
atp373
a(S'\xc3\xa8'
p374
(dp375
S'VERB'
p376
F1.0
s(lp377
(g70
I7
tp378
atp379
a(S'impotente'
p380
(dp381
S'NOUN'
p382
F0.138712
sS'ADJ'
p383
F0.861288
s(lp384
(g77
I8
tp385
atp386
a(S'in'
p387
(dp388
S'ADP'
p389
F1.0
s(lp390
(g85
I9
tp391
atp392
a(S'questa'
p393
(dp394
S'PRON'
p395
F1.0
s(lp396
(g92
I10
tp397
atp398
a(S'situazione'
p399
(dp400
S'NOUN'
p401
F1.0
s(lp402
(g99
I11
tp403
atp404
a(g102
(dp405
g102
F1.0
s(lp406
(g102
I12
tp407
atp408
asS'sk'
p409
(lp410
(S'v'
p411
(dp412
S'X'
p413
F0.000596
sS'ADP'
p414
F0.999404
s(lp415
(g125
I3
tp416
atp417
a(S's\xc3\xba\xc4\x8dasnosti'
p418
(dp419
S'NOUN'
p420
F1.0
s(lp421
(g31
I0
tp422
atp423
a(S'si'
p424
(dp425
S'PRT'
p426
F0.999676
sS'VERB'
p427
F0.000309
sg413
F1.4e-05
s(lp428
(g7
I1
tp429
atp430
a(S'mus\xc3\xadme'
p431
(dp432
S'VERB'
p433
F1.0
s(lp434
(g15
I2
tp435
atp436
a(S'prizna\xc5\xa5'
p437
(dp438
S'VERB'
p439
F1.0
s(lp440
(g38
I4
tp441
atp442
a(g282
(dp443
g102
F1.0
s(lp444
tp445
a(S'\xc5\xbee'
p446
(dp447
g413
F0.00033
sS'CONJ'
p448
F0.999671
s(lp449
(g47
I5
tp450
atp451
a(S'eur\xc3\xb3pa'
p452
(dp453
S'ADJ'
p454
F0.011196
sS'VERB'
p455
F7e-06
sS'NOUN'
p456
F0.988797
s(lp457
(g62
I6
tp458
atp459
a(S'je'
p460
(dp461
g413
F0.000146
sS'VERB'
p462
F0.999841
sS'PRON'
p463
F1.4e-05
s(lp464
(g70
I7
tp465
atp466
a(g411
(dp467
g413
F8.599999999999999e-05
sS'ADP'
p468
F0.999914
s(lp469
(g85
I9
tp470
atp471
a(S'tejto'
p472
(dp473
S'PRON'
p474
F1.0
s(lp475
(g92
I10
tp476
atp477
a(S'situ\xc3\xa1cii'
p478
(dp479
S'NOUN'
p480
F1.0
s(lp481
(g99
I11
tp482
atp483
a(S'bezmocn\xc3\xa1'
p484
(dp485
S'ADJ'
p486
F1.0
s(lp487
(g77
I8
tp488
atp489
a(g102
(dp490
g102
F1.0
s(lp491
(g102
I12
tp492
atp493
asS'pl'
p494
(lp495
(S'musimy'
p496
(dp497
S'VERB'
p498
F1.0
s(lp499
(g7
I1
tp500
atp501
a(S'dzi\xc5\x9b'
p502
(dp503
S'ADV'
p504
F0.964861
sS'NOUN'
p505
F0.035139000000000004
s(lp506
(g31
I0
tp507
atp508
a(S'przyzna\xc4\x87'
p509
(dp510
S'VERB'
p511
F1.0
s(lp512
(g38
I4
tp513
atp514
a(g282
(dp515
g413
F0.0
sg102
F1.0
s(lp516
tp517
a(S'\xc5\xbce'
p518
(dp519
S'PRT'
p520
F0.000109
sS'CONJ'
p521
F0.99989
s(lp522
(g47
I5
tp523
atp524
a(S'europa'
p525
(dp526
S'ADJ'
p527
F0.025816
sS'VERB'
p528
F0.000806
sS'NOUN'
p529
F0.973379
s(lp530
(g62
I6
tp531
atp532
a(S'jest'
p533
(dp534
S'VERB'
p535
F1.0
s(lp536
(g70
I7
tp537
atp538
a(S'w'
p539
(dp540
S'ADJ'
p541
F0.0
sS'NOUN'
p542
F2e-06
sS'ADP'
p543
F0.9999979999999999
sg413
F0.0
s(lp544
(g85
I9
tp545
atp546
a(S'tej'
p547
(dp548
S'PRON'
p549
F5e-06
sS'ADJ'
p550
F0.9999950000000001
sg413
F0.0
s(lp551
(g92
I10
tp552
atp553
a(S'sytuacji'
p554
(dp555
S'NOUN'
p556
F0.999999
s(lp557
(g99
I11
tp558
atp559
a(S'bezsilna'
p560
(dp561
S'NOUN'
p562
F0.077649
sS'VERB'
p563
F0.001495
sS'ADJ'
p564
F0.920856
s(lp565
(g77
I8
tp566
atp567
a(g102
(dp568
g102
F1.0
s(lp569
(g102
I12
tp570
atp571
asS'sl'
p572
(lp573
(S'danes'
p574
(dp575
S'ADV'
p576
F1.0
s(lp577
(g31
I0
tp578
atp579
a(S'moramo'
p580
(dp581
S'VERB'
p582
F1.0
s(lp583
(g7
I1
tp584
atp585
a(S'priznati'
p586
(dp587
S'VERB'
p588
F1.0
s(lp589
(g38
I4
tp590
atp591
a(g282
(dp592
g102
F1.0
s(lp593
tp594
a(S'da'
p595
(dp596
S'PRT'
p597
F4e-06
sS'CONJ'
p598
F0.999979
sS'VERB'
p599
F1.7e-05
sg413
F1e-06
s(lp600
(g47
I5
tp601
atp602
a(S'je'
p603
(dp604
S'PRON'
p605
F0.004963
sS'VERB'
p606
F0.9950319999999999
sg413
F5e-06
s(lp607
(g70
I7
tp608
atp609
a(S'evropa'
p610
(dp611
S'ADV'
p612
F0.019994
sS'ADJ'
p613
F0.203915
sS'VERB'
p614
F0.001035
sS'NOUN'
p615
F0.774999
sg413
F5.9e-05
s(lp616
(g62
I6
tp617
atp618
a(S'nemo\xc4\x8dna'
p619
(dp620
S'ADJ'
p621
F1.0
s(lp622
(g77
I8
tp623
atp624
a(g411
(dp625
S'ADP'
p626
F1.0
s(lp627
(g85
I9
tp628
atp629
a(S'teh'
p630
(dp631
S'PRON'
p632
F0.9999999999999999
s(lp633
(g92
I10
tp634
atp635
a(S'razmerah'
p636
(dp637
S'NOUN'
p638
F1.0
s(lp639
(g99
I11
tp640
atp641
a(g102
(dp642
g102
F1.0
s(lp643
(g102
I12
tp644
atp645
asS'es'
p646
(lp647
(S'hoy'
p648
(dp649
S'ADV'
p650
F1.0
s(lp651
(g31
I0
tp652
atp653
a(S'hemos'
p654
(dp655
S'VERB'
p656
F1.0
s(lp657
(g15
I2
tp658
atp659
a(S'de'
p660
(dp661
g413
F0.0
sS'CONJ'
p662
F0.126649
sS'ADP'
p663
F0.873351
s(lp664
(g125
I3
tp665
atp666
a(S'admitir'
p667
(dp668
S'VERB'
p669
F1.0
s(lp670
(g38
I4
tp671
atp672
a(S'que'
p673
(dp674
g413
F4e-05
sS'CONJ'
p675
F0.99996
s(lp676
(g47
I5
tp677
atp678
a(S'europa'
p679
(dp680
S'NOUN'
p681
F1.0
s(lp682
(g62
I6
tp683
atp684
a(S'se'
p685
(dp686
S'PRON'
p687
F1.0
sS'VERB'
p688
F0.0
s(lp689
(g70
I7
tp690
atp691
a(S've'
p692
(dp693
S'VERB'
p694
F1.0
s(lp695
tp696
a(S'impotente'
p697
(dp698
S'ADJ'
p699
F1.0
s(lp700
(g77
I8
tp701
atp702
a(S'en'
p703
(dp704
g413
F0.0
sS'CONJ'
p705
F2e-06
sS'ADP'
p706
F0.999998
s(lp707
(g85
I9
tp708
atp709
a(S'esta'
p710
(dp711
S'PRON'
p712
F1.0
sS'VERB'
p713
F0.0
s(lp714
(g92
I10
tp715
atp716
a(S'situaci\xc3\xb3n'
p717
(dp718
S'NOUN'
p719
F1.0
s(lp720
(g99
I11
tp721
atp722
a(g102
(dp723
g102
F1.0
s(lp724
(g102
I12
tp725
atp726
as.