(dp0
S'fr'
p1
(lp2
(S'avec'
p3
(dp4
S'ADV'
p5
F0.035102
sS'ADP'
p6
F0.964898
s(lp7
tp8
a(S'tout'
p9
(dp10
S'ADV'
p11
F0.133683
sS'PRON'
p12
F0.864163
sS'NOUN'
p13
F0.002154
s(lp14
(S'with'
p15
I0
tp16
atp17
a(S'le'
p18
(dp19
S'PRON'
p20
F7.1e-05
sS'DET'
p21
F0.999929
s(lp22
tp23
a(S'respect'
p24
(dp25
S'NOUN'
p26
F1.0
s(lp27
(S'respect'
p28
I1
tp29
atp30
a(S'que'
p31
(dp32
S'ADV'
p33
F0.000965
sS'PRON'
p34
F0.44677300000000003
sS'CONJ'
p35
F0.552262
s(lp36
(S'you'
p37
I5
tp38
atp39
a(S'je'
p40
(dp41
S'PRON'
p42
F1.0
s(lp43
(g37
I5
tp44
atp45
a(S'vous'
p46
(dp47
S'PRON'
p48
F1.0
s(lp49
(g37
I5
tp50
atp51
a(S'dois'
p52
(dp53
S'VERB'
p54
F1.0
s(lp55
(S'need'
p56
I6
tp57
atp58
a(S','
p59
(dp60
S'.'
p61
F1.0
s(lp62
(g59
I2
tp63
atp64
a(S'madame'
p65
(dp66
S'NOUN'
p67
F1.0
s(lp68
(S'commissioner'
p69
I3
tp70
atp71
a(S'la'
p72
(dp73
S'PRON'
p74
F5.2e-05
sS'DET'
p75
F0.999948
sS'NOUN'
p76
F0.0
s(lp77
tp78
a(S'commissaire'
p79
(dp80
S'NOUN'
p81
F1.0
s(lp82
(g69
I3
tp83
atp84
a(g59
(dp85
g61
F1.0
s(lp86
(g59
I4
tp87
atp88
a(S'vous'
p89
(dp90
S'PRON'
p91
F1.0
s(lp92
tp93
a(S'devriez'
p94
(dp95
S'VERB'
p96
F1.0
s(lp97
(g37
I5
tp98
atp99
a(g59
(dp100
g61
F1.0
s(lp101
(g59
I7
tp102
atp103
a(S'pour'
p104
(dp105
S'CONJ'
p106
F0.204203
sS'ADP'
p107
F0.795797
s(lp108
(S'on'
p109
I8
tp110
atp111
a(S'repr\xc3\xa9senter'
p112
(dp113
S'VERB'
p114
F1.0
s(lp115
(S'behalf'
p116
I9
tp117
atp118
a(S"l'"
p119
(dp120
S'ADJ'
p121
F0.050629
sS'VERB'
p122
F0.794975
sS'NOUN'
p123
F0.154398
s(lp124
tp125
a(S'agriculture'
p126
(dp127
S'NOUN'
p128
F1.0
s(lp129
(S'agriculture'
p130
I11
tp131
atp132
a(g59
(dp133
g61
F1.0
s(lp134
(g59
I12
tp135
atp136
a(S'montrer'
p137
(dp138
S'VERB'
p139
F1.0
s(lp140
(S'vigour'
p141
I16
tp142
atp143
a(S'autant'
p144
(dp145
S'ADV'
p146
F1.0
s(lp147
tp148
a(S'de'
p149
(dp150
S'ADP'
p151
F1.0
s(lp152
(S'of'
p153
I17
tp154
atp155
a(S'r\xc3\xa9solution'
p156
(dp157
S'NOUN'
p158
F1.0
s(lp159
(g141
I16
tp160
atp161
a(S'que'
p162
(dp163
S'ADV'
p164
F0.006234
sS'PRON'
p165
F0.196493
sS'CONJ'
p166
F0.797273
s(lp167
tp168
a(S'les'
p169
(dp170
S'PRON'
p171
F0.000717
sS'DET'
p172
F0.999271
sS'ADP'
p173
F1.2e-05
s(lp174
tp175
a(S'commissaires'
p176
(dp177
S'NOUN'
p178
F1.0
s(lp179
(S'commissioners'
p180
I18
tp181
atp182
a(S'kyprianou'
p183
(dp184
S'NOUN'
p185
F0.253348
sS'ADJ'
p186
F0.746652
s(lp187
(S'kyprianou'
p188
I19
tp189
atp190
a(S'et'
p191
(dp192
S'CONJ'
p193
F1.0
s(lp194
(S'and'
p195
I20
tp196
atp197
a(S'dimas'
p198
(dp199
S'VERB'
p200
F1.0
s(lp201
(S'dimas'
p202
I21
tp203
atp204
a(S'en'
p205
(dp206
S'PRON'
p207
F0.976988
sS'ADP'
p208
F0.023012
s(lp209
(S'as'
p210
I22
tp211
atp212
a(S'montrent'
p213
(dp214
S'VERB'
p215
F1.0
s(lp216
tp217
a(S'pour'
p218
(dp219
S'CONJ'
p220
F0.144509
sS'ADP'
p221
F0.855491
s(lp222
(S'they'
p223
I23
tp224
atp225
a(S"s'"
p226
(dp227
S'ADJ'
p228
F0.145868
sS'VERB'
p229
F0.18428200000000006
sS'NOUN'
p230
F0.669849
s(lp231
tp232
a(S'opposer'
p233
(dp234
S'VERB'
p235
F1.0
s(lp236
(S'resist'
p237
I24
tp238
atp239
a(S'aux'
p240
(dp241
S'ADP'
p242
F1.0
s(lp243
(S'gm'
p244
I25
tp245
atp246
a(S'approbations'
p247
(dp248
S'NOUN'
p249
F1.0
s(lp250
(S'approvals'
p251
I26
tp252
atp253
a(S"d'"
p254
(dp255
S'NOUN'
p256
F0.032441
sS'VERB'
p257
F0.694014
sS'ADJ'
p258
F0.273544
s(lp259
tp260
a(S'ogm'
p261
(dp262
S'NOUN'
p263
F1.0
s(lp264
(g244
I25
tp265
atp266
a(g61
(dp267
g61
F1.0
s(lp268
(g61
I27
tp269
atp270
asS'en'
p271
(lp272
(g15
(dp273
S'ADP'
p274
F1.0
s(lp275
(g15
I0
tp276
atp277
a(g28
(dp278
S'VERB'
p279
F0.000405
sS'NOUN'
p280
F0.999595
s(lp281
(g28
I1
tp282
atp283
a(g59
(dp284
g61
F1.0
s(lp285
(g59
I2
tp286
atp287
a(g69
(dp288
S'NOUN'
p289
F1.0
s(lp290
(g69
I3
tp291
atp292
a(g59
(dp293
g61
F1.0
s(lp294
(g59
I4
tp295
atp296
a(g37
(dp297
S'PRON'
p298
F1.0
s(lp299
(g37
I5
tp300
atp301
a(g56
(dp302
S'VERB'
p303
F0.999943
sS'NOUN'
p304
F5.6e-05
s(lp305
(g56
I6
tp306
atp307
a(g59
(dp308
g61
F1.0
s(lp309
(g59
I7
tp310
atp311
a(g109
(dp312
S'ADV'
p313
F0.002477
sS'NOUN'
p314
F2e-06
sS'ADJ'
p315
F3.5e-05
sS'ADP'
p316
F0.997486
sS'PRT'
p317
F1e-06
s(lp318
(g109
I8
tp319
atp320
a(g116
(dp321
S'NOUN'
p322
F1.0
s(lp323
(g116
I9
tp324
atp325
a(S'of'
p326
(dp327
S'ADP'
p328
F1.0
s(lp329
(g326
I10
tp330
atp331
a(g130
(dp332
S'NOUN'
p333
F1.0
s(lp334
(g130
I11
tp335
atp336
a(g59
(dp337
g61
F1.0
s(lp338
(g59
I12
tp339
atp340
a(S'to'
p341
(dp342
S'ADV'
p343
F1e-06
sS'PRT'
p344
F0.999999
sS'ADP'
p345
F0.0
s(lp346
(g341
I13
tp347
atp348
a(S'match'
p349
(dp350
S'VERB'
p351
F0.999898
sS'NOUN'
p352
F0.000101
s(lp353
(g349
I14
tp354
atp355
a(S'the'
p356
(dp357
S'NOUN'
p358
F1e-06
sS'DET'
p359
F0.999999
s(lp360
(g356
I15
tp361
atp362
a(g141
(dp363
S'NOUN'
p364
F1.0
s(lp365
(g141
I16
tp366
atp367
a(g153
(dp368
S'ADP'
p369
F1.0
s(lp370
(g153
I17
tp371
atp372
a(g180
(dp373
S'NOUN'
p374
F1.0
s(lp375
(g180
I18
tp376
atp377
a(g188
(dp378
S'ADV'
p379
F0.002157
sS'ADJ'
p380
F0.004399
sS'VERB'
p381
F0.013542
sS'NOUN'
p382
F0.979903
s(lp383
(g188
I19
tp384
atp385
a(g195
(dp386
S'CONJ'
p387
F0.999963
sS'NOUN'
p388
F3.7e-05
s(lp389
(g195
I20
tp390
atp391
a(g202
(dp392
S'NOUN'
p393
F0.9999999999999999
s(lp394
(g202
I21
tp395
atp396
a(g210
(dp397
S'ADV'
p398
F0.04352
sS'ADP'
p399
F0.95648
s(lp400
(g210
I22
tp401
atp402
a(g223
(dp403
S'PRON'
p404
F1.0
s(lp405
(g223
I23
tp406
atp407
a(g237
(dp408
S'VERB'
p409
F0.999958
sS'NOUN'
p410
F4.3e-05
s(lp411
(g237
I24
tp412
atp413
a(g244
(dp414
S'NOUN'
p415
F0.999999
s(lp416
(g244
I25
tp417
atp418
a(g251
(dp419
S'NOUN'
p420
F1.0
s(lp421
(g251
I26
tp422
atp423
a(g61
(dp424
g61
F1.0
s(lp425
(g61
I27
tp426
atp427
asS'nl'
p428
(lp429
(S'met'
p430
(dp431
S'ADP'
p432
F1.0
s(lp433
(g15
I0
tp434
atp435
a(S'alle'
p436
(dp437
S'PRON'
p438
F1.0
s(lp439
tp440
a(S'respect'
p441
(dp442
S'NOUN'
p443
F1.0
s(lp444
(g28
I1
tp445
atp446
a(g59
(dp447
g61
F1.0
s(lp448
(g59
I2
tp449
atp450
a(S'commissaris'
p451
(dp452
S'NOUN'
p453
F1.0
s(lp454
(g69
I3
tp455
atp456
a(g59
(dp457
g61
F1.0
s(lp458
(g59
I4
tp459
atp460
a(S'u'
p461
(dp462
S'PRON'
p463
F0.995763
sS'NOUN'
p464
F0.004237
s(lp465
(g37
I5
tp466
atp467
a(S'dient'
p468
(dp469
S'VERB'
p470
F1.0
s(lp471
(g56
I6
tp472
atp473
a(S'ten'
p474
(dp475
S'ADP'
p476
F1.0
s(lp477
(g109
I8
tp478
atp479
a(S'behoeve'
p480
(dp481
S'NOUN'
p482
F1.0
s(lp483
(g116
I9
tp484
atp485
a(S'van'
p486
(dp487
S'ADP'
p488
F1.0
s(lp489
(g326
I10
tp490
atp491
a(S'de'
p492
(dp493
S'DET'
p494
F1.0
s(lp495
tp496
a(S'landbouw'
p497
(dp498
S'NOUN'
p499
F1.0
s(lp500
(g130
I11
tp501
atp502
a(S'de'
p503
(dp504
S'DET'
p505
F1.0
s(lp506
(g356
I15
tp507
atp508
a(S'inzet'
p509
(dp510
S'VERB'
p511
F0.000156
sS'NOUN'
p512
F0.999844
s(lp513
(g141
I16
tp514
atp515
a(S'van'
p516
(dp517
S'ADP'
p518
F1.0
s(lp519
(g153
I17
tp520
atp521
a(S'de'
p522
(dp523
S'DET'
p524
F1.0
s(lp525
tp526
a(S'commissarissen'
p527
(dp528
S'NOUN'
p529
F1.0
s(lp530
(g180
I18
tp531
atp532
a(S'kyprianou'
p533
(dp534
S'ADJ'
p535
F0.158906
sS'NOUN'
p536
F0.841094
s(lp537
(g188
I19
tp538
atp539
a(S'en'
p540
(dp541
S'CONJ'
p542
F1.0
s(lp543
(g195
I20
tp544
atp545
a(S'dimas'
p546
(dp547
S'NOUN'
p548
F1.0
s(lp549
(g202
I21
tp550
atp551
a(S'te'
p552
(dp553
S'PRT'
p554
F1.0
s(lp555
(g341
I13
tp556
atp557
a(S'evenaren'
p558
(dp559
S'VERB'
p560
F0.999999
sS'NOUN'
p561
F0.0
s(lp562
(g349
I14
tp563
atp564
a(S'wanneer'
p565
(dp566
S'ADV'
p567
F0.000168
sS'CONJ'
p568
F0.999832
s(lp569
(g210
I22
tp570
atp571
a(S'zij'
p572
(dp573
S'PRON'
p574
F1.0
sS'VERB'
p575
F0.0
sS'NOUN'
p576
F0.0
s(lp577
(g223
I23
tp578
atp579
a(S'zich'
p580
(dp581
S'PRON'
p582
F1.0
s(lp583
(g237
I24
tp584
atp585
a(S'verzetten'
p586
(dp587
S'VERB'
p588
F0.996985
sS'NOUN'
p589
F0.003015
s(lp590
tp591
a(S'tegen'
p592
(dp593
S'ADV'
p594
F0.000241
sS'ADP'
p595
F0.999759
s(lp596
(g237
I24
tp597
atp598
a(S'de'
p599
(dp600
S'DET'
p601
F1.0
s(lp602
tp603
a(S'goedkeuring'
p604
(dp605
S'NOUN'
p606
F1.0
s(lp607
tp608
a(S'van'
p609
(dp610
S'ADP'
p611
F1.0
s(lp612
tp613
a(S'genetisch'
p614
(dp615
S'ADJ'
p616
F1.0
s(lp617
tp618
a(S'gemodificeerd'
p619
(dp620
S'VERB'
p621
F1.0
s(lp622
(g244
I25
tp623
atp624
a(S'voedsel'
p625
(dp626
S'NOUN'
p627
F1.0
s(lp628
(g251
I26
tp629
atp630
a(g61
(dp631
g61
F1.0
s(lp632
(g61
I27
tp633
atp634
asS'de'
p635
(lp636
(S'mit'
p637
(dp638
S'PRT'
p639
F2.4e-05
sS'ADP'
p640
F0.999976
s(lp641
(g15
I0
tp642
atp643
a(S'verlaub'
p644
(dp645
S'NOUN'
p646
F0.997864
s(lp647
(g28
I1
tp648
atp649
a(g59
(dp650
g61
F1.0
s(lp651
(g59
I2
tp652
atp653
a(S'frau'
p654
(dp655
S'ADJ'
p656
F0.9090860000000001
s(lp657
tp658
a(S'kommissarin'
p659
(dp660
S'ADJ'
p661
F0.351539
sS'NOUN'
p662
F0.609054
s(lp663
(g69
I3
tp664
atp665
a(g59
(dp666
g61
F1.0
s(lp667
(g59
I4
tp668
atp669
a(S'im'
p670
(dp671
S'ADP'
p672
F1.0
s(lp673
(g109
I8
tp674
atp675
a(S'auftrag'
p676
(dp677
S'ADJ'
p678
F6.9e-05
sS'NOUN'
p679
F0.999908
s(lp680
(g116
I9
tp681
atp682
a(S'der'
p683
(dp684
S'PRON'
p685
F3.1e-05
sS'DET'
p686
F0.999956
s(lp687
(g326
I10
tp688
atp689
a(S'landwirtschaft'
p690
(dp691
S'ADJ'
p692
F0.003738
sS'NOUN'
p693
F0.99154
s(lp694
(g130
I11
tp695
atp696
a(S'm\xc3\xbcssen'
p697
(dp698
S'VERB'
p699
F0.999986
s(lp700
(g56
I6
tp701
atp702
a(S'sie'
p703
(dp704
S'PRON'
p705
F1.0
s(lp706
(g37
I5
tp707
atp708
a(S'eine'
p709
(dp710
S'PRON'
p711
F0.001086
sS'DET'
p712
F0.998127
s(lp713
(g356
I15
tp714
atp715
a(S'ebensolche'
p716
(dp717
S'NOUN'
p718
F0.300012
sS'ADJ'
p719
F0.634168
s(lp720
tp721
a(S'energie'
p722
(dp723
S'ADJ'
p724
F0.282975
sS'NOUN'
p725
F0.713435
s(lp726
(g141
I16
tp727
atp728
a(S'aufbringen'
p729
(dp730
S'VERB'
p731
F1.0
s(lp732
(g349
I14
tp733
atp734
a(g59
(dp735
g61
F1.0
s(lp736
(g59
I12
tp737
atp738
a(S'wie'
p739
(dp740
S'CONJ'
p741
F0.999988
s(lp742
(g210
I22
tp743
atp744
a(S'sie'
p745
(dp746
S'PRON'
p747
F1.0
s(lp748
tp749
a(S'die'
p750
(dp751
S'PRON'
p752
F0.003787
sS'DET'
p753
F0.994072
s(lp754
tp755
a(S'kommissare'
p756
(dp757
S'ADJ'
p758
F0.349868
sS'NOUN'
p759
F0.597031
s(lp760
(g180
I18
tp761
atp762
a(S'kyprianou'
p763
(dp764
S'ADJ'
p765
F0.151549
sS'NOUN'
p766
F0.697013
s(lp767
(g188
I19
tp768
atp769
a(S'und'
p770
(dp771
S'CONJ'
p772
F1.0
s(lp773
(g195
I20
tp774
atp775
a(S'dimas'
p776
(dp777
S'NOUN'
p778
F0.981785
s(lp779
(g202
I21
tp780
atp781
a(S'bei'
p782
(dp783
S'PRT'
p784
F0.000136
sS'ADP'
p785
F0.999864
s(lp786
(g153
I17
tp787
atp788
a(S'ihrem'
p789
(dp790
S'PRON'
p791
F1.0
s(lp792
(g223
I23
tp793
atp794
a(S'widerstand'
p795
(dp796
S'VERB'
p797
F1.0
s(lp798
tp799
a(S'gegen'
p800
(dp801
S'PRT'
p802
F1e-06
sS'ADP'
p803
F0.999999
s(lp804
(g237
I24
tp805
atp806
a(S'die'
p807
(dp808
S'PRON'
p809
F5e-05
sS'DET'
p810
F0.999935
s(lp811
(g244
I25
tp812
atp813
a(S'gvo-zulassungen'
p814
(dp815
S'ADJ'
p816
F0.000196
sS'NOUN'
p817
F0.999695
s(lp818
tp819
a(S'aufwenden'
p820
(dp821
S'VERB'
p822
F1.0
s(lp823
(g251
I26
tp824
atp825
a(g61
(dp826
g61
F1.0
s(lp827
(g61
I27
tp828
atp829
asS'it'
p830
(lp831
(S'con'
p832
(dp833
S'ADP'
p834
F1.0
s(lp835
(g15
I0
tp836
atp837
a(S'tutto'
p838
(dp839
S'ADV'
p840
F0.153752
sS'PRON'
p841
F0.544288
sS'ADJ'
p842
F0.287152
sS'NOUN'
p843
F0.014807
s(lp844
(g28
I1
tp845
atp846
a(S'il'
p847
(dp848
S'DET'
p849
F1.0
s(lp850
tp851
a(S'rispetto'
p852
(dp853
S'VERB'
p854
F0.001462
sS'NOUN'
p855
F0.998538
s(lp856
(g28
I1
tp857
atp858
a(g59
(dp859
g61
F1.0
s(lp860
(g59
I2
tp861
atp862
a(S'signora'
p863
(dp864
S'NOUN'
p865
F1.0
s(lp866
tp867
a(S'commissario'
p868
(dp869
S'VERB'
p870
F0.118816
sS'NOUN'
p871
F0.881184
s(lp872
(g69
I3
tp873
atp874
a(g59
(dp875
g61
F1.0
s(lp876
(g59
I4
tp877
atp878
a(S'lei'
p879
(dp880
S'PRON'
p881
F1.0
s(lp882
(g37
I5
tp883
atp884
a(S'deve'
p885
(dp886
S'VERB'
p887
F1.0
s(lp888
(g56
I6
tp889
atp890
a(g59
(dp891
g61
F1.0
s(lp892
(g59
I7
tp893
atp894
a(S'a'
p895
(dp896
S'CONJ'
p897
F0.000451
sS'ADP'
p898
F0.999549
s(lp899
tp900
a(S'nome'
p901
(dp902
S'NOUN'
p903
F1.0
s(lp904
(g116
I9
tp905
atp906
a(S'del'
p907
(dp908
S'DEF'
p909
F0.001251
sS'ADP'
p910
F0.998749
s(lp911
(g326
I10
tp912
atp913
a(S'settore'
p914
(dp915
S'ADJ'
p916
F0.002309
sS'NOUN'
p917
F0.997691
s(lp918
tp919
a(S'agricolo'
p920
(dp921
S'ADJ'
p922
F1.0
s(lp923
(g130
I11
tp924
atp925
a(g59
(dp926
g61
F1.0
s(lp927
(g59
I12
tp928
atp929
a(S'eguagliare'
p930
(dp931
S'VERB'
p932
F1.0
s(lp933
tp934
a(S"l'"
p935
(dp936
S'NOUN'
p937
F0.012178
sS'VERB'
p938
F0.890187
sS'ADJ'
p939
F0.097635
s(lp940
(g356
I15
tp941
atp942
a(S'energia'
p943
(dp944
S'NOUN'
p945
F1.0
s(lp946
(g141
I16
tp947
atp948
a(S'dei'
p949
(dp950
S'NOUN'
p951
F1e-06
sS'DEF'
p952
F0.001164
sS'ADP'
p953
F0.998835
s(lp954
(g153
I17
tp955
atp956
a(S'commissari'
p957
(dp958
S'VERB'
p959
F6.3e-05
sS'NOUN'
p960
F0.999937
s(lp961
(g180
I18
tp962
atp963
a(S'kyprianou'
p964
(dp965
S'NOUN'
p966
F0.090012
sS'ADJ'
p967
F0.909988
s(lp968
(g188
I19
tp969
atp970
a(S'e'
p971
(dp972
S'CONJ'
p973
F1.0
s(lp974
(g195
I20
tp975
atp976
a(S'dimas'
p977
(dp978
S'NOUN'
p979
F0.291538
sS'VERB'
p980
F0.33527399999999996
sS'ADJ'
p981
F0.373188
s(lp982
(g202
I21
tp983
atp984
a(S'nel'
p985
(dp986
S'ADP'
p987
F1.0
s(lp988
(g210
I22
tp989
atp990
a(S'modo'
p991
(dp992
S'NOUN'
p993
F1.0
s(lp994
tp995
a(S'in'
p996
(dp997
S'ADP'
p998
F1.0
s(lp999
tp1000
a(S'cui'
p1001
(dp1002
S'PRON'
p1003
F1.0
s(lp1004
(g223
I23
tp1005
atp1006
a(S'resistono'
p1007
(dp1008
S'VERB'
p1009
F1.0
s(lp1010
(g237
I24
tp1011
atp1012
a(S"all'"
p1013
(dp1014
S'ADJ'
p1015
F0.010298
sS'VERB'
p1016
F0.103889
sS'NOUN'
p1017
F0.885814
s(lp1018
(g349
I14
tp1019
atp1020
a(S'approvazione'
p1021
(dp1022
S'NOUN'
p1023
F1.0
s(lp1024
(g251
I26
tp1025
atp1026
a(S'degli'
p1027
(dp1028
S'DEF'
p1029
F0.00233
sS'ADP'
p1030
F0.99767
s(lp1031
tp1032
a(S'ogm'
p1033
(dp1034
S'ADJ'
p1035
F0.249114
sS'VERB'
p1036
F4.1e-05
sS'NOUN'
p1037
F0.750845
s(lp1038
(g244
I25
tp1039
atp1040
a(g61
(dp1041
g61
F1.0
s(lp1042
(g61
I27
tp1043
atp1044
asS'sk'
p1045
(lp1046
(S'pri'
p1047
(dp1048
S'X'
p1049
F3.2e-05
sS'VERB'
p1050
F6.5e-05
sS'ADP'
p1051
F0.999904
s(lp1052
(g15
I0
tp1053
atp1054
a(S'v\xc5\xa1etkej'
p1055
(dp1056
S'PRON'
p1057
F1.0
s(lp1058
tp1059
a(S'\xc3\xbacte'
p1060
(dp1061
S'NOUN'
p1062
F1.0
s(lp1063
(g28
I1
tp1064
atp1065
a(S'pani'
p1066
(dp1067
S'NOUN'
p1068
F1.0
s(lp1069
tp1070
a(S'komis\xc3\xa1rka'
p1071
(dp1072
S'NOUN'
p1073
F1.0
s(lp1074
(g69
I3
tp1075
atp1076
a(g59
(dp1077
g61
F1.0
s(lp1078
(g59
I4
tp1079
atp1080
a(S'v'
p1081
(dp1082
g1049
F0.000753
sS'ADP'
p1083
F0.999247
s(lp1084
tp1085
a(S'mene'
p1086
(dp1087
S'NOUN'
p1088
F1.0
s(lp1089
(g116
I9
tp1090
atp1091
a(S'po\xc4\xbenohospod\xc3\xa1rstva'
p1092
(dp1093
S'NOUN'
p1094
F1.0
s(lp1095
(g130
I11
tp1096
atp1097
a(S'sa'
p1098
(dp1099
S'PRT'
p1100
F0.999394
sS'ADP'
p1101
F0.0
sg1049
F0.000606
s(lp1102
(g341
I13
tp1103
atp1104
a(S'potrebujete'
p1105
(dp1106
S'VERB'
p1107
F1.0
s(lp1108
(g56
I6
tp1109
atp1110
a(S'vyrovna\xc5\xa5'
p1111
(dp1112
S'VERB'
p1113
F1.0
s(lp1114
(g349
I14
tp1115
atp1116
a(S'zanieteniu'
p1117
(dp1118
S'NOUN'
p1119
F1.0
s(lp1120
(g141
I16
tp1121
atp1122
a(S'komis\xc3\xa1rov'
p1123
(dp1124
S'NOUN'
p1125
F1.0
s(lp1126
(g180
I18
tp1127
atp1128
a(S'kyprianoua'
p1129
(dp1130
S'ADJ'
p1131
F0.015524
sS'VERB'
p1132
F0.009852000000000003
sS'NOUN'
p1133
F0.973999
sg1049
F0.000625
s(lp1134
(g188
I19
tp1135
atp1136
a(g895
(dp1137
g1049
F0.0024519999999999998
sS'CONJ'
p1138
F0.99664
sS'NOUN'
p1139
F0.000181
sS'ADP'
p1140
F0.000692
sS'PRT'
p1141
F3.4e-05
s(lp1142
(g195
I20
tp1143
atp1144
a(S'dimasa'
p1145
(dp1146
S'ADV'
p1147
F0.010888
sg1049
F0.000127
sS'ADJ'
p1148
F0.00012
sS'VERB'
p1149
F0.08708500000000002
sS'NOUN'
p1150
F0.901779
s(lp1151
(g202
I21
tp1152
atp1153
a(g1081
(dp1154
g1049
F9.099999999999999e-05
sS'ADP'
p1155
F0.999909
s(lp1156
(g210
I22
tp1157
atp1158
a(S'ich'
p1159
(dp1160
S'PRON'
p1161
F1.0
s(lp1162
(g223
I23
tp1163
atp1164
a(S'boji'
p1165
(dp1166
S'NOUN'
p1167
F1.0
s(lp1168
(g251
I26
tp1169
atp1170
a(S'proti'
p1171
(dp1172
S'ADV'
p1173
F9.7e-05
sS'ADP'
p1174
F0.999903
s(lp1175
(g237
I24
tp1176
atp1177
a(S'schva\xc4\xbeovaniu'
p1178
(dp1179
S'NOUN'
p1180
F1.0
s(lp1181
tp1182
a(S'geneticky'
p1183
(dp1184
S'ADV'
p1185
F1.0
s(lp1186
tp1187
a(S'modifikovan\xc3\xbdch'
p1188
(dp1189
S'VERB'
p1190
F1.0
s(lp1191
(g244
I25
tp1192
atp1193
a(S'organizmov'
p1194
(dp1195
S'NOUN'
p1196
F1.0
s(lp1197
(g251
I26
tp1198
atp1199
a(g61
(dp1200
g61
F1.0
s(lp1201
(g61
I27
tp1202
atp1203
asS'pl'
p1204
(lp1205
(S'z'
p1206
(dp1207
g1049
F2e-06
sS'VERB'
p1208
F3e-06
sS'NOUN'
p1209
F1e-06
sS'ADP'
p1210
F0.999995
sS'PRT'
p1211
F0.0
s(lp1212
(g15
I0
tp1213
atp1214
a(S'ca\xc5\x82ym'
p1215
(dp1216
S'ADJ'
p1217
F0.9999999999999999
s(lp1218
tp1219
a(S'szacunkiem'
p1220
(dp1221
S'NOUN'
p1222
F1.0
s(lp1223
(g28
I1
tp1224
atp1225
a(g59
(dp1226
g1049
F0.0
sg61
F1.0
s(lp1227
(g59
I2
tp1228
atp1229
a(S'pani'
p1230
(dp1231
S'NOUN'
p1232
F1.000001
s(lp1233
tp1234
a(S'komisarz'
p1235
(dp1236
S'NOUN'
p1237
F1.0
s(lp1238
(g69
I3
tp1239
atp1240
a(g59
(dp1241
g1049
F1e-06
sg61
F0.999999
s(lp1242
(g59
I4
tp1243
atp1244
a(S'musi'
p1245
(dp1246
S'VERB'
p1247
F1.0
s(lp1248
(g56
I6
tp1249
atp1250
a(S'pani'
p1251
(dp1252
S'NOUN'
p1253
F1.0
s(lp1254
(g37
I5
tp1255
atp1256
a(g59
(dp1257
g1049
F0.0
sg61
F1.0
s(lp1258
(g59
I7
tp1259
atp1260
a(S'w'
p1261
(dp1262
S'ADJ'
p1263
F0.0
sg1049
F1e-06
sS'NOUN'
p1264
F0.0
sS'ADP'
p1265
F0.9999990000000001
s(lp1266
(g109
I8
tp1267
atp1268
a(S'imieniu'
p1269
(dp1270
S'NOUN'
p1271
F1.0
s(lp1272
(g116
I9
tp1273
atp1274
a(S'ca\xc5\x82ej'
p1275
(dp1276
S'ADJ'
p1277
F0.999999
s(lp1278
(g251
I26
tp1279
atp1280
a(S'gospodarki'
p1281
(dp1282
S'NOUN'
p1283
F1.0
s(lp1284
(g251
I26
tp1285
atp1286
a(S'rolnej'
p1287
(dp1288
S'ADJ'
p1289
F1.0
s(lp1290
(g130
I11
tp1291
atp1292
a(g59
(dp1293
g1049
F0.0
sg61
F1.0
s(lp1294
(g59
I12
tp1295
atp1296
a(S'dzia\xc5\x82a\xc4\x87'
p1297
(dp1298
S'VERB'
p1299
F1.0
s(lp1300
(g141
I16
tp1301
atp1302
a(g1206
(dp1303
S'PRT'
p1304
F1e-06
sS'VERB'
p1305
F0.0
sS'NOUN'
p1306
F0.0
sS'ADP'
p1307
F0.9999979999999999
sg1049
F0.0
s(lp1308
(g326
I10
tp1309
atp1310
a(S'energi\xc4\x85'
p1311
(dp1312
S'NOUN'
p1313
F1.0
s(lp1314
(g141
I16
tp1315
atp1316
a(S'r\xc3\xb3wn\xc4\x85'
p1317
(dp1318
S'ADJ'
p1319
F1.0
s(lp1320
tp1321
a(S'panom'
p1322
(dp1323
S'NOUN'
p1324
F1.0
s(lp1325
(g141
I16
tp1326
atp1327
a(S'komisarzom'
p1328
(dp1329
S'ADV'
p1330
F6e-05
sS'ADJ'
p1331
F0.007401999999999998
sS'VERB'
p1332
F0.0021539999999999997
sS'NOUN'
p1333
F0.9903850000000003
s(lp1334
(g180
I18
tp1335
atp1336
a(S'kyprianou'
p1337
(dp1338
S'ADV'
p1339
F0.001624
sS'ADJ'
p1340
F0.002757
sS'VERB'
p1341
F0.031942000000000005
sS'NOUN'
p1342
F0.9636760000000001
s(lp1343
(g188
I19
tp1344
atp1345
a(S'i'
p1346
(dp1347
S'PRT'
p1348
F0.003272
sS'CONJ'
p1349
F0.996705
sS'PRON'
p1350
F2e-06
sS'NOUN'
p1351
F1.7e-05
sg1049
F4e-06
s(lp1352
(g195
I20
tp1353
atp1354
a(S'dimasowi'
p1355
(dp1356
S'ADV'
p1357
F0.002345
sS'ADJ'
p1358
F0.017459000000000002
sS'VERB'
p1359
F0.003473
sS'NOUN'
p1360
F0.976557
sg1049
F0.000166
s(lp1361
(g202
I21
tp1362
atp1363
a(g59
(dp1364
g1049
F0.0
sg61
F1.0
s(lp1365
tp1366
a(S'kt\xc3\xb3rzy'
p1367
(dp1368
S'ADJ'
p1369
F1.0
s(lp1370
(g223
I23
tp1371
atp1372
a(S'sprzeciwiaj\xc4\x85'
p1373
(dp1374
S'VERB'
p1375
F1.0
s(lp1376
tp1377
a(S'si\xc4\x99'
p1378
(dp1379
S'PRT'
p1380
F1.0
s(lp1381
(g237
I24
tp1382
atp1383
a(S'zatwierdzaniu'
p1384
(dp1385
S'ADV'
p1386
F0.042529
sS'ADJ'
p1387
F0.008178999999999999
sS'VERB'
p1388
F0.25452400000000003
sS'NOUN'
p1389
F0.6947619999999999
s(lp1390
(g251
I26
tp1391
atp1392
a(S'tych'
p1393
(dp1394
S'ADJ'
p1395
F1.0000000000000002
s(lp1396
tp1397
a(S'produkt\xc3\xb3w'
p1398
(dp1399
S'NOUN'
p1400
F1.0
s(lp1401
(g251
I26
tp1402
atp1403
a(g61
(dp1404
g61
F1.0
s(lp1405
(g61
I27
tp1406
atp1407
asS'sl'
p1408
(lp1409
(S's'
p1410
(dp1411
S'VERB'
p1412
F9e-06
sS'NOUN'
p1413
F4.2e-05
sS'ADP'
p1414
F0.999949
s(lp1415
(g15
I0
tp1416
atp1417
a(S'spo\xc5\xa1tovanjem'
p1418
(dp1419
S'NOUN'
p1420
F1.0
s(lp1421
(g28
I1
tp1422
atp1423
a(g59
(dp1424
g61
F1.0
s(lp1425
(g59
I2
tp1426
atp1427
a(S'gospa'
p1428
(dp1429
S'NOUN'
p1430
F1.0
s(lp1431
tp1432
a(S'komisarka'
p1433
(dp1434
S'ADV'
p1435
F0.000977
sS'ADJ'
p1436
F0.071837
sS'VERB'
p1437
F0.033846999999999995
sS'NOUN'
p1438
F0.893338
s(lp1439
(g69
I3
tp1440
atp1441
a(g59
(dp1442
g61
F1.0
s(lp1443
(g59
I4
tp1444
atp1445
a(S'na'
p1446
(dp1447
S'ADP'
p1448
F1.0
s(lp1449
(g109
I8
tp1450
atp1451
a(S'podro\xc4\x8dju'
p1452
(dp1453
S'NOUN'
p1454
F1.0
s(lp1455
(g326
I10
tp1456
atp1457
a(S'kmetijstva'
p1458
(dp1459
S'NOUN'
p1460
F1.0
s(lp1461
(g130
I11
tp1462
atp1463
a(S'morate'
p1464
(dp1465
S'VERB'
p1466
F1.0
s(lp1467
(g141
I16
tp1468
atp1469
a(S'prilagoditi'
p1470
(dp1471
S'VERB'
p1472
F1.0
s(lp1473
(g188
I19
tp1474
atp1475
a(S'mnenji'
p1476
(dp1477
S'ADV'
p1478
F0.002617
sS'NOUN'
p1479
F0.3696440000000001
sS'VERB'
p1480
F0.040934000000000005
sS'ADJ'
p1481
F0.586807
s(lp1482
tp1483
a(S'komisarjev'
p1484
(dp1485
S'ADJ'
p1486
F0.001004
sS'NOUN'
p1487
F0.998996
s(lp1488
(g180
I18
tp1489
atp1490
a(S'kyprianouja'
p1491
(dp1492
S'ADV'
p1493
F0.000231
sS'ADJ'
p1494
F0.00258
sS'VERB'
p1495
F0.028179000000000003
sS'NOUN'
p1496
F0.969013
s(lp1497
(g188
I19
tp1498
atp1499
a(S'in'
p1500
(dp1501
S'ADV'
p1502
F0.000112
sg1049
F9.5e-05
sS'CONJ'
p1503
F0.999679
sS'NOUN'
p1504
F0.000114
s(lp1505
(g195
I20
tp1506
atp1507
a(S'dimasa'
p1508
(dp1509
S'ADJ'
p1510
F0.012222
sS'NOUN'
p1511
F0.9873149999999998
sg1049
F0.000463
s(lp1512
(g202
I21
tp1513
atp1514
a(g59
(dp1515
g61
F1.0
s(lp1516
tp1517
a(S'ki'
p1518
(dp1519
S'CONJ'
p1520
F1.0
s(lp1521
(g223
I23
tp1522
atp1523
a(S'nasprotujeta'
p1524
(dp1525
S'ADV'
p1526
F0.001252
sS'ADJ'
p1527
F0.386632
sS'VERB'
p1528
F0.22685599999999997
sS'NOUN'
p1529
F0.38489099999999987
sS'NUM'
p1530
F0.000371
s(lp1531
tp1532
a(S'odobritvam'
p1533
(dp1534
S'ADJ'
p1535
F0.005239000000000001
sS'VERB'
p1536
F0.09942499999999999
sS'NOUN'
p1537
F0.8953359999999999
s(lp1538
(g251
I26
tp1539
atp1540
a(S'genskih'
p1541
(dp1542
S'ADJ'
p1543
F1.0
s(lp1544
tp1545
a(S'sprememb'
p1546
(dp1547
S'NOUN'
p1548
F1.0
s(lp1549
(g244
I25
tp1550
atp1551
a(g61
(dp1552
g61
F1.0
s(lp1553
(g61
I27
tp1554
atp1555
asS'es'
p1556
(lp1557
(S'con'
p1558
(dp1559
S'ADP'
p1560
F1.0
s(lp1561
tp1562
a(S'todos'
p1563
(dp1564
S'ADJ'
p1565
F1.0
s(lp1566
(g15
I0
tp1567
atp1568
a(S'mis'
p1569
(dp1570
S'PRON'
p1571
F1.0
s(lp1572
tp1573
a(S'respetos'
p1574
(dp1575
S'NOUN'
p1576
F1.0
s(lp1577
(g28
I1
tp1578
atp1579
a(g59
(dp1580
g61
F1.0
s(lp1581
(g59
I2
tp1582
atp1583
a(S'comisaria'
p1584
(dp1585
S'ADJ'
p1586
F0.025335
sS'VERB'
p1587
F0.105739
sS'NOUN'
p1588
F0.868926
s(lp1589
(g69
I3
tp1590
atp1591
a(g59
(dp1592
g61
F1.0
s(lp1593
(g59
I4
tp1594
atp1595
a(S'usted'
p1596
(dp1597
S'PRON'
p1598
F1.0
s(lp1599
(g37
I5
tp1600
atp1601
a(S'debe'
p1602
(dp1603
S'VERB'
p1604
F1.0
s(lp1605
(g56
I6
tp1606
atp1607
a(S'igualar'
p1608
(dp1609
S'VERB'
p1610
F1.0
s(lp1611
(g349
I14
tp1612
atp1613
a(g59
(dp1614
g61
F1.0
s(lp1615
(g59
I7
tp1616
atp1617
a(S'por'
p1618
(dp1619
S'ADP'
p1620
F1.0
s(lp1621
(g109
I8
tp1622
atp1623
a(S'el'
p1624
(dp1625
S'PRON'
p1626
F5e-06
sS'DET'
p1627
F0.999995
s(lp1628
(g356
I15
tp1629
atp1630
a(S'inter\xc3\xa9s'
p1631
(dp1632
S'NOUN'
p1633
F1.0
s(lp1634
tp1635
a(S'de'
p1636
(dp1637
g1049
F0.0
sS'CONJ'
p1638
F1.7e-05
sS'ADP'
p1639
F0.999983
s(lp1640
(g326
I10
tp1641
atp1642
a(S'la'
p1643
(dp1644
g1049
F0.0
sS'PRON'
p1645
F0.0
sS'DET'
p1646
F0.999999
sS'NOUN'
p1647
F0.0
s(lp1648
tp1649
a(S'agricultura'
p1650
(dp1651
S'NOUN'
p1652
F1.0
s(lp1653
(g130
I11
tp1654
atp1655
a(g59
(dp1656
g61
F1.0
s(lp1657
(g59
I12
tp1658
atp1659
a(g895
(dp1660
g1049
F0.0018599999999999999
sS'CONJ'
p1661
F1e-05
sS'ADP'
p1662
F0.998129
s(lp1663
(g341
I13
tp1664
atp1665
a(S'los'
p1666
(dp1667
S'PRON'
p1668
F0.0
sS'DET'
p1669
F1.0
s(lp1670
tp1671
a(S'comisarios'
p1672
(dp1673
S'NOUN'
p1674
F1.0
s(lp1675
(g180
I18
tp1676
atp1677
a(S'kyprianou'
p1678
(dp1679
S'ADJ'
p1680
F0.063047
sS'NOUN'
p1681
F0.936952
s(lp1682
(g188
I19
tp1683
atp1684
a(S'y'
p1685
(dp1686
g1049
F0.001176
sS'CONJ'
p1687
F0.998824
s(lp1688
(g195
I20
tp1689
atp1690
a(S'dimas'
p1691
(dp1692
S'ADJ'
p1693
F0.164029
sS'VERB'
p1694
F0.143261
sS'NOUN'
p1695
F0.69271
s(lp1696
(g202
I21
tp1697
atp1698
a(S'en'
p1699
(dp1700
g1049
F0.0
sS'CONJ'
p1701
F9e-06
sS'ADP'
p1702
F0.999991
s(lp1703
(g210
I22
tp1704
atp1705
a(S'su'
p1706
(dp1707
S'PRON'
p1708
F1.0
s(lp1709
tp1710
a(S'vigor'
p1711
(dp1712
S'NOUN'
p1713
F1.0
s(lp1714
(g141
I16
tp1715
atp1716
a(S'al'
p1717
(dp1718
S'CONJ'
p1719
F0.394826
sS'ADP'
p1720
F0.605174
s(lp1721
(g223
I23
tp1722
atp1723
a(S'oponerse'
p1724
(dp1725
S'VERB'
p1726
F1.0
s(lp1727
tp1728
a(g895
(dp1729
g1049
F4e-06
sS'CONJ'
p1730
F4e-06
sS'ADP'
p1731
F0.999992
s(lp1732
(g237
I24
tp1733
atp1734
a(S'las'
p1735
(dp1736
S'PRON'
p1737
F0.0
sS'DET'
p1738
F1.0
s(lp1739
tp1740
a(S'aprobaciones'
p1741
(dp1742
S'NOUN'
p1743
F1.0
s(lp1744
(g251
I26
tp1745
atp1746
a(S'de'
p1747
(dp1748
g1049
F2.9e-05
sS'CONJ'
p1749
F0.000458
sS'ADP'
p1750
F0.999513
s(lp1751
tp1752
a(S'omg'
p1753
(dp1754
S'ADJ'
p1755
F0.001097
sS'NOUN'
p1756
F0.998903
s(lp1757
(g244
I25
tp1758
atp1759
a(g61
(dp1760
g61
F1.0
s(lp1761
(g61
I27
tp1762
atp1763
as.