(dp0
S'fr'
p1
(lp2
(S'pour'
p3
(dp4
S'CONJ'
p5
F0.271004
sS'ADP'
p6
F0.728996
s(lp7
(S'for'
p8
I0
tp9
atp10
a(S'ceux'
p11
(dp12
S'PRON'
p13
F1.0
s(lp14
(S'those'
p15
I1
tp16
atp17
a(S'qui'
p18
(dp19
S'PRON'
p20
F1.0
s(lp21
(S'who'
p22
I5
tp23
atp24
a(S'ont'
p25
(dp26
S'VERB'
p27
F1.0
s(lp28
(S'have'
p29
I6
tp30
atp31
a(S'\xc3\xa9t\xc3\xa9'
p32
(dp33
S'VERB'
p34
F0.997931
sS'NOUN'
p35
F0.002069
s(lp36
(S'been'
p37
I7
tp38
atp39
a(S's\xc3\xa9v\xc3\xa8rement'
p40
(dp41
S'ADV'
p42
F1.0
s(lp43
(S'hard'
p44
I8
tp45
atp46
a(S'frapp\xc3\xa9s'
p47
(dp48
S'NOUN'
p49
F0.00518
sS'VERB'
p50
F0.949542
sS'ADJ'
p51
F0.045277
s(lp52
(S'hit'
p53
I9
tp54
atp55
a(S'par'
p56
(dp57
S'NOUN'
p58
F0.0
sS'ADP'
p59
F1.0
s(lp60
(S'by'
p61
I10
tp62
atp63
a(S'la'
p64
(dp65
S'PRON'
p66
F1.2e-05
sS'DET'
p67
F0.999988
sS'NOUN'
p68
F0.0
s(lp69
(S'the'
p70
I11
tp71
atp72
a(S'crise'
p73
(dp74
S'NOUN'
p75
F1.0
s(lp76
(S'crisis'
p77
I15
tp78
atp79
a(S'\xc3\xa9conomique'
p80
(dp81
S'NOUN'
p82
F0.002475
sS'ADJ'
p83
F0.997525
s(lp84
(S'economic'
p85
I14
tp86
atp87
a(S'et'
p88
(dp89
S'CONJ'
p90
F1.0
s(lp91
(S'and'
p92
I16
tp93
atp94
a(S'financi\xc3\xa8re'
p95
(dp96
S'NOUN'
p97
F0.06631
sS'ADJ'
p98
F0.93369
s(lp99
(S'financial'
p100
I12
tp101
atp102
a(S'et'
p103
(dp104
S'CONJ'
p105
F1.0
s(lp106
(S'and'
p107
I13
tp108
atp109
a(S'sont'
p110
(dp111
S'VERB'
p112
F1.0
s(lp113
(S'are'
p114
I18
tp115
atp116
a(S'maintenant'
p117
(dp118
S'ADV'
p119
F0.999921
sS'VERB'
p120
F7.9e-05
s(lp121
(S'now'
p122
I19
tp123
atp124
a(S'contraints'
p125
(dp126
S'VERB'
p127
F0.945156
sS'ADJ'
p128
F0.054844
s(lp129
(S'forced'
p130
I21
tp131
atp132
a(S'de'
p133
(dp134
S'ADP'
p135
F1.0
s(lp136
(S'to'
p137
I22
tp138
atp139
a(S'faire'
p140
(dp141
S'VERB'
p142
F1.0
s(lp143
(S'make'
p144
I23
tp145
atp146
a(S'des'
p147
(dp148
S'DET'
p149
F0.000198
sS'ADP'
p150
F0.999802
s(lp151
tp152
a(S'\xc3\xa9conomies'
p153
(dp154
S'NOUN'
p155
F1.0
s(lp156
(S'savings'
p157
I24
tp158
atp159
a(S','
p160
(dp161
S'.'
p162
F1.0
s(lp163
(g160
I25
tp164
atp165
a(S'cela'
p166
(dp167
S'PRON'
p168
F0.999981
sS'VERB'
p169
F1.9e-05
s(lp170
(S'this'
p171
I26
tp172
atp173
a(S'sonne'
p174
(dp175
S'VERB'
p176
F1.0
s(lp177
(S'sounds'
p178
I27
tp179
atp180
a(S'comme'
p181
(dp182
S'ADV'
p183
F0.846884
sS'CONJ'
p184
F0.153116
s(lp185
(S'like'
p186
I28
tp187
atp188
a(S'une'
p189
(dp190
S'NOUN'
p191
F5e-06
sS'NUM'
p192
F0.009742
sS'DET'
p193
F0.990253
s(lp194
(S'adding'
p195
I29
tp196
atp197
a(S'injure'
p198
(dp199
S'NOUN'
p200
F1.0
s(lp201
(S'insult'
p202
I30
tp203
atp204
a(S'qui'
p205
(dp206
S'PRON'
p207
F1.0
s(lp208
(S'who'
p209
I17
tp210
atp211
a(S'vient'
p212
(dp213
S'VERB'
p214
F1.0
s(lp215
(g195
I29
tp216
atp217
a(S"s'"
p218
(dp219
S'NOUN'
p220
F0.087886
sS'VERB'
p221
F0.7995690000000001
sS'ADJ'
p222
F0.112546
s(lp223
tp224
a(S'ajouter'
p225
(dp226
S'VERB'
p227
F1.0
s(lp228
(g195
I29
tp229
atp230
a(S'\xc3\xa0'
p231
(dp232
S'ADP'
p233
F1.0
s(lp234
(S'to'
p235
I31
tp236
atp237
a(S'la'
p238
(dp239
S'PRON'
p240
F1.2e-05
sS'DET'
p241
F0.999988
sS'NOUN'
p242
F0.0
s(lp243
tp244
a(S'blessure'
p245
(dp246
S'NOUN'
p247
F1.0
s(lp248
(S'injury'
p249
I32
tp250
atp251
a(g162
(dp252
g162
F1.0
s(lp253
(g162
I33
tp254
atp255
asS'en'
p256
(lp257
(g8
(dp258
S'ADP'
p259
F1.0
s(lp260
(g8
I0
tp261
atp262
a(g15
(dp263
S'NOUN'
p264
F2e-06
sS'DET'
p265
F0.999998
s(lp266
(g15
I1
tp267
atp268
a(S'people'
p269
(dp270
S'VERB'
p271
F2e-06
sS'NOUN'
p272
F0.999997
s(lp273
(g269
I2
tp274
atp275
a(S'in'
p276
(dp277
S'ADV'
p278
F0.000163
sS'PRT'
p279
F0.000175
sS'ADP'
p280
F0.999662
s(lp281
(g276
I3
tp282
atp283
a(S'europe'
p284
(dp285
S'ADV'
p286
F0.002101
sS'ADJ'
p287
F5.4e-05
sS'VERB'
p288
F5e-05
sS'NOUN'
p289
F0.9977959999999999
s(lp290
(g284
I4
tp291
atp292
a(g22
(dp293
S'PRON'
p294
F1.0
s(lp295
(g22
I5
tp296
atp297
a(g29
(dp298
S'VERB'
p299
F1.0
s(lp300
(g29
I6
tp301
atp302
a(g37
(dp303
S'VERB'
p304
F1.0
s(lp305
(g37
I7
tp306
atp307
a(g44
(dp308
S'ADV'
p309
F0.437658
sS'NOUN'
p310
F8.7e-05
sS'ADJ'
p311
F0.562255
s(lp312
(g44
I8
tp313
atp314
a(g53
(dp315
S'VERB'
p316
F0.47826300000000005
sS'NOUN'
p317
F0.521738
s(lp318
(g53
I9
tp319
atp320
a(g61
(dp321
S'ADV'
p322
F0.000145
sS'NOUN'
p323
F0.0
sS'ADP'
p324
F0.999855
s(lp325
(g61
I10
tp326
atp327
a(g70
(dp328
S'NOUN'
p329
F1e-06
sS'DET'
p330
F0.999999
s(lp331
(g70
I11
tp332
atp333
a(g100
(dp334
S'ADJ'
p335
F1.0
s(lp336
(g100
I12
tp337
atp338
a(g107
(dp339
S'CONJ'
p340
F0.999998
sS'NOUN'
p341
F2e-06
s(lp342
(g107
I13
tp343
atp344
a(g85
(dp345
S'ADJ'
p346
F1.0
s(lp347
(g85
I14
tp348
atp349
a(g77
(dp350
S'NOUN'
p351
F1.0
s(lp352
(g77
I15
tp353
atp354
a(g92
(dp355
S'CONJ'
p356
F1.0
sS'NOUN'
p357
F0.0
s(lp358
(g92
I16
tp359
atp360
a(g209
(dp361
S'PRON'
p362
F1.0
s(lp363
(g209
I17
tp364
atp365
a(g114
(dp366
S'VERB'
p367
F0.999998
sS'NOUN'
p368
F2e-06
s(lp369
(g114
I18
tp370
atp371
a(g122
(dp372
S'ADV'
p373
F0.999534
sS'NOUN'
p374
F1e-06
sS'ADP'
p375
F0.000465
s(lp376
(g122
I19
tp377
atp378
a(S'being'
p379
(dp380
S'NOUN'
p381
F2.8e-05
sS'VERB'
p382
F0.99981
sS'ADJ'
p383
F0.000162
s(lp384
(g379
I20
tp385
atp386
a(g130
(dp387
S'VERB'
p388
F0.9989939999999999
sS'ADJ'
p389
F0.001006
s(lp390
(g130
I21
tp391
atp392
a(g137
(dp393
S'ADV'
p394
F0.0
sS'PRT'
p395
F1.0
sS'ADP'
p396
F0.0
s(lp397
(g137
I22
tp398
atp399
a(g144
(dp400
S'VERB'
p401
F0.999862
sS'NOUN'
p402
F0.000137
s(lp403
(g144
I23
tp404
atp405
a(g157
(dp406
S'NOUN'
p407
F1.0
s(lp408
(g157
I24
tp409
atp410
a(g160
(dp411
g162
F1.0
s(lp412
(g160
I25
tp413
atp414
a(g171
(dp415
S'ADV'
p416
F0.000361
sS'NOUN'
p417
F0.000166
sS'DET'
p418
F0.999472
s(lp419
(g171
I26
tp420
atp421
a(g178
(dp422
S'VERB'
p423
F0.06205
sS'NOUN'
p424
F0.93795
s(lp425
(g178
I27
tp426
atp427
a(g186
(dp428
S'VERB'
p429
F0.014831
sS'ADJ'
p430
F0.000728
sS'ADP'
p431
F0.984442
s(lp432
(g186
I28
tp433
atp434
a(g195
(dp435
S'VERB'
p436
F1.0
s(lp437
(g195
I29
tp438
atp439
a(g202
(dp440
S'VERB'
p441
F0.027886
sS'NOUN'
p442
F0.972114
s(lp443
(g202
I30
tp444
atp445
a(g235
(dp446
S'ADV'
p447
F0.0
sS'PRT'
p448
F0.999988
sS'ADP'
p449
F1.2e-05
s(lp450
(g235
I31
tp451
atp452
a(g249
(dp453
S'NOUN'
p454
F1.0
s(lp455
(g249
I32
tp456
atp457
a(g162
(dp458
g162
F1.0
s(lp459
(g162
I33
tp460
atp461
asS'nl'
p462
(lp463
(S'voor'
p464
(dp465
S'ADV'
p466
F0.00254
sS'CONJ'
p467
F4.6e-05
sS'NOUN'
p468
F0.0
sS'ADP'
p469
F0.997413
s(lp470
(g8
I0
tp471
atp472
a(S'die'
p473
(dp474
S'PRON'
p475
F1.0
s(lp476
(g15
I1
tp477
atp478
a(S'mensen'
p479
(dp480
S'NOUN'
p481
F1.0
s(lp482
(g269
I2
tp483
atp484
a(S'in'
p485
(dp486
S'ADV'
p487
F0.004484
sS'VERB'
p488
F0.0
sS'ADP'
p489
F0.995516
s(lp490
(g276
I3
tp491
atp492
a(S'europa'
p493
(dp494
S'NOUN'
p495
F1.0
s(lp496
(g284
I4
tp497
atp498
a(S'die'
p499
(dp500
S'PRON'
p501
F0.9999999999999999
s(lp502
(g22
I5
tp503
atp504
a(S'hard'
p505
(dp506
S'ADV'
p507
F0.101613
sS'VERB'
p508
F0.004378
sS'ADJ'
p509
F0.894009
s(lp510
(g44
I8
tp511
atp512
a(S'door'
p513
(dp514
S'ADV'
p515
F1e-06
sS'CONJ'
p516
F7.5e-05
sS'ADP'
p517
F0.999923
s(lp518
(g61
I10
tp519
atp520
a(S'de'
p521
(dp522
S'DET'
p523
F1.0
s(lp524
(g70
I11
tp525
atp526
a(S'financi\xc3\xable'
p527
(dp528
S'NOUN'
p529
F0.130872
sS'ADJ'
p530
F0.869128
s(lp531
(g100
I12
tp532
atp533
a(S'en'
p534
(dp535
S'CONJ'
p536
F1.0
s(lp537
(g107
I13
tp538
atp539
a(S'economische'
p540
(dp541
S'NOUN'
p542
F1.2e-05
sS'ADJ'
p543
F0.999988
s(lp544
(g85
I14
tp545
atp546
a(S'crisis'
p547
(dp548
S'NOUN'
p549
F1.0
s(lp550
(g77
I15
tp551
atp552
a(S'zijn'
p553
(dp554
S'PRON'
p555
F0.000533
sS'VERB'
p556
F0.9994609999999999
sS'NOUN'
p557
F6e-06
s(lp558
tp559
a(S'getroffen'
p560
(dp561
S'VERB'
p562
F0.9737
sS'ADJ'
p563
F0.0263
s(lp564
(g53
I9
tp565
atp566
a(S'en'
p567
(dp568
S'CONJ'
p569
F1.0
s(lp570
(g92
I16
tp571
atp572
a(S'die'
p573
(dp574
S'PRON'
p575
F1.000001
s(lp576
(g209
I17
tp577
atp578
a(S'nu'
p579
(dp580
S'ADV'
p581
F0.991315
sS'CONJ'
p582
F0.008443
sS'NOUN'
p583
F0.000242
s(lp584
(g122
I19
tp585
atp586
a(S'tot'
p587
(dp588
S'CONJ'
p589
F0.00011
sS'ADP'
p590
F0.99989
s(lp591
(g137
I22
tp592
atp593
a(S'bezuinigingen'
p594
(dp595
S'NOUN'
p596
F1.0
s(lp597
(g157
I24
tp598
atp599
a(S'worden'
p600
(dp601
S'VERB'
p602
F1.0
sS'NOUN'
p603
F0.0
s(lp604
(g379
I20
tp605
atp606
a(S'gedwongen'
p607
(dp608
S'VERB'
p609
F0.955589
sS'ADJ'
p610
F0.044411
s(lp611
(g130
I21
tp612
atp613
a(g160
(dp614
g162
F1.0
s(lp615
(g160
I25
tp616
atp617
a(S'klinkt'
p618
(dp619
S'VERB'
p620
F1.0
s(lp621
(g178
I27
tp622
atp623
a(S'dat'
p624
(dp625
S'PRON'
p626
F0.192176
sS'CONJ'
p627
F0.807824
s(lp628
(g171
I26
tp629
atp630
a(S'als'
p631
(dp632
S'CONJ'
p633
F1.0
s(lp634
(g186
I28
tp635
atp636
a(S'een'
p637
(dp638
S'ADJ'
p639
F1e-06
sS'PRON'
p640
F1.7e-05
sS'NUM'
p641
F1e-06
sS'DET'
p642
F0.999982
s(lp643
tp644
a(S'aanfluiting'
p645
(dp646
S'NOUN'
p647
F1.0
s(lp648
(g202
I30
tp649
atp650
a(g162
(dp651
g162
F1.0
s(lp652
(g162
I33
tp653
atp654
asS'de'
p655
(lp656
(S'das'
p657
(dp658
S'PRON'
p659
F0.998145
sS'DET'
p660
F0.001485
s(lp661
(g171
I26
tp662
atp663
a(S'klingt'
p664
(dp665
S'VERB'
p666
F1.0
s(lp667
(g178
I27
tp668
atp669
a(S'f\xc3\xbcr'
p670
(dp671
S'ADP'
p672
F1.0
s(lp673
(g8
I0
tp674
atp675
a(S'jene'
p676
(dp677
S'PRON'
p678
F1.0
s(lp679
(g15
I1
tp680
atp681
a(S'menschen'
p682
(dp683
S'ADJ'
p684
F1.0
s(lp685
(g269
I2
tp686
atp687
a(S'in'
p688
(dp689
S'ADP'
p690
F1.0
s(lp691
(g276
I3
tp692
atp693
a(S'europa'
p694
(dp695
S'ADJ'
p696
F0.063065
sS'NOUN'
p697
F0.87278
s(lp698
(g284
I4
tp699
atp700
a(g160
(dp701
g162
F1.0
s(lp702
tp703
a(S'die'
p704
(dp705
S'PRON'
p706
F0.969134
sS'DET'
p707
F0.026207
s(lp708
(g22
I5
tp709
atp710
a(S'von'
p711
(dp712
S'NOUN'
p713
F0.000175
sS'ADP'
p714
F0.999825
s(lp715
(g61
I10
tp716
atp717
a(S'der'
p718
(dp719
S'PRON'
p720
F0.000159
sS'DET'
p721
F0.999839
s(lp722
(g70
I11
tp723
atp724
a(S'finanz-'
p725
(dp726
S'X'
p727
F1.0
s(lp728
(g100
I12
tp729
atp730
a(S'und'
p731
(dp732
S'CONJ'
p733
F1.0
s(lp734
(g107
I13
tp735
atp736
a(S'wirtschaftskrise'
p737
(dp738
S'VERB'
p739
F0.056746
sS'NOUN'
p740
F0.91107
s(lp741
(g77
I15
tp742
atp743
a(S'besonders'
p744
(dp745
S'ADV'
p746
F1.0
s(lp747
tp748
a(S'hart'
p749
(dp750
S'ADJ'
p751
F1.0
s(lp752
(g44
I8
tp753
atp754
a(S'getroffen'
p755
(dp756
S'VERB'
p757
F0.997088
sS'ADJ'
p758
F0.002912
s(lp759
(g53
I9
tp760
atp761
a(S'sind'
p762
(dp763
S'VERB'
p764
F1.0
s(lp765
(g29
I6
tp766
atp767
a(S'und'
p768
(dp769
S'CONJ'
p770
F1.0
s(lp771
(g92
I16
tp772
atp773
a(S'bei'
p774
(dp775
S'PRT'
p776
F2e-06
sS'ADP'
p777
F0.999998
s(lp778
(g137
I22
tp779
atp780
a(S'denen'
p781
(dp782
S'PRON'
p783
F1.0
s(lp784
(g209
I17
tp785
atp786
a(S'nun'
p787
(dp788
S'ADV'
p789
F0.999991
sS'CONJ'
p790
F9e-06
s(lp791
(g122
I19
tp792
atp793
a(S'gespart'
p794
(dp795
S'VERB'
p796
F1.0
s(lp797
(g157
I24
tp798
atp799
a(S'wird'
p800
(dp801
S'VERB'
p802
F1.0
s(lp803
(g379
I20
tp804
atp805
a(g160
(dp806
g162
F1.0
s(lp807
(g160
I25
tp808
atp809
a(S'wie'
p810
(dp811
S'CONJ'
p812
F0.993188
s(lp813
(g186
I28
tp814
atp815
a(S'blanker'
p816
(dp817
S'ADJ'
p818
F1.0
s(lp819
tp820
a(S'hohn'
p821
(dp822
S'PRT'
p823
F1.0
s(lp824
(g202
I30
tp825
atp826
a(g162
(dp827
g162
F1.0
s(lp828
(g162
I33
tp829
atp830
asS'it'
p831
(lp832
(S'per'
p833
(dp834
S'CONJ'
p835
F0.874388
sS'ADP'
p836
F0.125612
s(lp837
(g8
I0
tp838
atp839
a(S'coloro'
p840
(dp841
S'PRON'
p842
F0.00274
sS'VERB'
p843
F0.99726
s(lp844
(g15
I1
tp845
atp846
a(S'che'
p847
(dp848
S'PRON'
p849
F0.972653
sS'CONJ'
p850
F0.013871
sS'ADJ'
p851
F0.013476
s(lp852
(g269
I2
tp853
atp854
a(g160
(dp855
g162
F1.0
s(lp856
tp857
a(S'in'
p858
(dp859
S'ADP'
p860
F1.0
s(lp861
(g276
I3
tp862
atp863
a(S'europa'
p864
(dp865
S'NOUN'
p866
F0.255598
sS'VERB'
p867
F0.008687
sS'ADJ'
p868
F0.735715
s(lp869
(g284
I4
tp870
atp871
a(g160
(dp872
g162
F1.0
s(lp873
(g22
I5
tp874
atp875
a(S'sono'
p876
(dp877
S'VERB'
p878
F0.999824
sS'NOUN'
p879
F0.000176
s(lp880
(g29
I6
tp881
atp882
a(S'stati'
p883
(dp884
S'VERB'
p885
F0.99825
sS'NOUN'
p886
F0.00175
s(lp887
(g37
I7
tp888
atp889
a(S'duramente'
p890
(dp891
S'ADV'
p892
F1.0
s(lp893
(g44
I8
tp894
atp895
a(S'colpiti'
p896
(dp897
S'VERB'
p898
F1.0
s(lp899
(g53
I9
tp900
atp901
a(S'dalla'
p902
(dp903
S'NOUN'
p904
F5e-06
sS'ADP'
p905
F0.999995
s(lp906
(g61
I10
tp907
atp908
a(S'crisi'
p909
(dp910
S'NOUN'
p911
F1.0
s(lp912
(g77
I15
tp913
atp914
a(S'finanziaria'
p915
(dp916
S'NOUN'
p917
F0.011884
sS'ADJ'
p918
F0.988116
s(lp919
(g100
I12
tp920
atp921
a(S'ed'
p922
(dp923
S'CONJ'
p924
F1.0
s(lp925
(g107
I13
tp926
atp927
a(S'economica'
p928
(dp929
S'ADJ'
p930
F1.0
s(lp931
(g85
I14
tp932
atp933
a(S'e'
p934
(dp935
S'CONJ'
p936
F1.0
s(lp937
(g92
I16
tp938
atp939
a(S'sono'
p940
(dp941
S'VERB'
p942
F0.999882
sS'NOUN'
p943
F0.000118
s(lp944
(g114
I18
tp945
atp946
a(S'ora'
p947
(dp948
S'ADV'
p949
F0.997689
sS'CONJ'
p950
F0.00023
sS'VERB'
p951
F0.000812
sS'NOUN'
p952
F0.001268
s(lp953
(g122
I19
tp954
atp955
a(S'costretti'
p956
(dp957
S'VERB'
p958
F1.0
s(lp959
(g130
I21
tp960
atp961
a(S'a'
p962
(dp963
S'CONJ'
p964
F0.000115
sS'ADP'
p965
F0.999885
s(lp966
(g137
I22
tp967
atp968
a(S'risparmiare'
p969
(dp970
S'VERB'
p971
F1.0
s(lp972
(g157
I24
tp973
atp974
a(g160
(dp975
g162
F1.0
s(lp976
(g160
I25
tp977
atp978
a(S'queste'
p979
(dp980
S'PRON'
p981
F1.0
s(lp982
(g171
I26
tp983
atp984
a(S'parole'
p985
(dp986
S'NOUN'
p987
F1.0
s(lp988
tp989
a(S'sembrano'
p990
(dp991
S'VERB'
p992
F1.0
s(lp993
(g178
I27
tp994
atp995
a(S'aggiungere'
p996
(dp997
S'VERB'
p998
F1.0
s(lp999
(g195
I29
tp1000
atp1001
a(S'al'
p1002
(dp1003
S'ADP'
p1004
F1.0
s(lp1005
(g235
I31
tp1006
atp1007
a(S'danno'
p1008
(dp1009
S'VERB'
p1010
F0.08533
sS'NOUN'
p1011
F0.91467
s(lp1012
tp1013
a(S'la'
p1014
(dp1015
S'PRON'
p1016
F0.001549
sS'DET'
p1017
F0.998451
s(lp1018
tp1019
a(S'beffa'
p1020
(dp1021
S'VERB'
p1022
F0.000798
sS'NOUN'
p1023
F0.999202
s(lp1024
(g249
I32
tp1025
atp1026
a(g162
(dp1027
g162
F1.0
s(lp1028
(g162
I33
tp1029
atp1030
asS'sk'
p1031
(lp1032
(S'pre'
p1033
(dp1034
g727
F4.8e-05
sS'ADP'
p1035
F0.999952
s(lp1036
(g8
I0
tp1037
atp1038
a(S't\xc3\xbdchto'
p1039
(dp1040
S'PRON'
p1041
F1.0
s(lp1042
(g15
I1
tp1043
atp1044
a(S'\xc4\xbeud\xc3\xad'
p1045
(dp1046
S'NOUN'
p1047
F1.0
s(lp1048
(g269
I2
tp1049
atp1050
a(S'v'
p1051
(dp1052
g727
F0.000112
sS'ADP'
p1053
F0.999888
s(lp1054
(g276
I3
tp1055
atp1056
a(S'eur\xc3\xb3pe'
p1057
(dp1058
S'NOUN'
p1059
F1.0
s(lp1060
(g284
I4
tp1061
atp1062
a(g160
(dp1063
g162
F1.0
s(lp1064
tp1065
a(S'ktor\xc3\xbdch'
p1066
(dp1067
S'PRON'
p1068
F1.0
s(lp1069
(g22
I5
tp1070
atp1071
a(S'\xc5\xa5a\xc5\xbeko'
p1072
(dp1073
S'ADV'
p1074
F0.994432
sg727
F0.005568
s(lp1075
(g44
I8
tp1076
atp1077
a(S'postihla'
p1078
(dp1079
S'VERB'
p1080
F1.0
s(lp1081
(g53
I9
tp1082
atp1083
a(S'finan\xc4\x8dn\xc3\xa1'
p1084
(dp1085
S'ADJ'
p1086
F1.0
s(lp1087
(g100
I12
tp1088
atp1089
a(g962
(dp1090
g727
F0.000636
sS'CONJ'
p1091
F0.997733
sS'NOUN'
p1092
F0.001516
sS'ADP'
p1093
F0.000109
sS'PRT'
p1094
F5e-06
s(lp1095
(g107
I13
tp1096
atp1097
a(S'hospod\xc3\xa1rska'
p1098
(dp1099
S'ADJ'
p1100
F1.0
s(lp1101
(g85
I14
tp1102
atp1103
a(S'kr\xc3\xadza'
p1104
(dp1105
S'NOUN'
p1106
F1.0
s(lp1107
(g77
I15
tp1108
atp1109
a(g962
(dp1110
g727
F0.00469
sS'CONJ'
p1111
F0.994929
sS'NOUN'
p1112
F0.00022600000000000002
sS'ADP'
p1113
F1e-06
sS'PRT'
p1114
F0.000154
s(lp1115
(g92
I16
tp1116
atp1117
a(S'na'
p1118
(dp1119
S'PRT'
p1120
F0.000118
sS'CONJ'
p1121
F0.000102
sS'ADP'
p1122
F0.999748
sg727
F3.2e-05
s(lp1123
(g137
I22
tp1124
atp1125
a(S'ktor\xc3\xbdch'
p1126
(dp1127
S'PRON'
p1128
F1.0
s(lp1129
(g209
I17
tp1130
atp1131
a(S'sa'
p1132
(dp1133
S'PRT'
p1134
F0.999797
sS'ADP'
p1135
F1.2e-05
sg727
F0.00019
s(lp1136
(g114
I18
tp1137
atp1138
a(S'teraz'
p1139
(dp1140
S'ADV'
p1141
F1.0
s(lp1142
(g122
I19
tp1143
atp1144
a(S'\xc5\xa1etr\xc3\xad'
p1145
(dp1146
S'VERB'
p1147
F1.0
s(lp1148
(g157
I24
tp1149
atp1150
a(g160
(dp1151
g162
F1.0
s(lp1152
(g160
I25
tp1153
atp1154
a(S'to'
p1155
(dp1156
S'PRON'
p1157
F0.961511
sS'CONJ'
p1158
F0.028608
sg727
F0.009879999999999998
s(lp1159
(g171
I26
tp1160
atp1161
a(S'znie'
p1162
(dp1163
S'VERB'
p1164
F1.0
s(lp1165
(g178
I27
tp1166
atp1167
a(S'ako'
p1168
(dp1169
S'PRON'
p1170
F0.046162
sS'CONJ'
p1171
F0.951055
sg727
F0.002783
s(lp1172
(g186
I28
tp1173
atp1174
a(S'v\xc3\xbdsmech'
p1175
(dp1176
S'NOUN'
p1177
F1.0
s(lp1178
(g202
I30
tp1179
atp1180
a(g162
(dp1181
g162
F1.0
s(lp1182
(g162
I33
tp1183
atp1184
asS'pl'
p1185
(lp1186
(S'dla'
p1187
(dp1188
S'ADP'
p1189
F1.0
s(lp1190
(g8
I0
tp1191
atp1192
a(S'tych'
p1193
(dp1194
S'ADJ'
p1195
F1.0
s(lp1196
(g15
I1
tp1197
atp1198
a(S'ludzi'
p1199
(dp1200
S'NOUN'
p1201
F1.0
s(lp1202
(g269
I2
tp1203
atp1204
a(S'w'
p1205
(dp1206
S'NOUN'
p1207
F0.0
sS'ADJ'
p1208
F0.0
sS'ADP'
p1209
F0.9999999999999999
sg727
F0.0
s(lp1210
(g276
I3
tp1211
atp1212
a(S'europie'
p1213
(dp1214
S'ADV'
p1215
F1.6e-05
sS'ADJ'
p1216
F0.000147
sS'VERB'
p1217
F1e-06
sS'NOUN'
p1218
F0.9998329999999997
s(lp1219
(g284
I4
tp1220
atp1221
a(g160
(dp1222
g727
F0.0
sg162
F1.0
s(lp1223
tp1224
a(S'kt\xc3\xb3rzy'
p1225
(dp1226
S'ADJ'
p1227
F1.0
s(lp1228
(g22
I5
tp1229
atp1230
a(S'zostali'
p1231
(dp1232
S'VERB'
p1233
F1.0
s(lp1234
(g37
I7
tp1235
atp1236
a(S'najdotkliwiej'
p1237
(dp1238
S'ADV'
p1239
F1.0
s(lp1240
tp1241
a(S'do\xc5\x9bwiadczeni'
p1242
(dp1243
S'NOUN'
p1244
F0.079876
sS'VERB'
p1245
F0.503739
sS'ADJ'
p1246
F0.416386
s(lp1247
(g53
I9
tp1248
atp1249
a(S'przez'
p1250
(dp1251
S'ADP'
p1252
F1.0
s(lp1253
(g61
I10
tp1254
atp1255
a(S'kryzys'
p1256
(dp1257
S'NOUN'
p1258
F1.0
s(lp1259
(g77
I15
tp1260
atp1261
a(S'finansowy'
p1262
(dp1263
S'ADJ'
p1264
F1.000001
s(lp1265
(g100
I12
tp1266
atp1267
a(S'i'
p1268
(dp1269
S'PRT'
p1270
F0.00521
sS'CONJ'
p1271
F0.994763
sS'PRON'
p1272
F1.2e-05
sS'NOUN'
p1273
F0.0
sg727
F1.5e-05
s(lp1274
(g107
I13
tp1275
atp1276
a(S'gospodarczy'
p1277
(dp1278
S'ADJ'
p1279
F1.0
s(lp1280
(g85
I14
tp1281
atp1282
a(g1268
(dp1283
S'PRT'
p1284
F0.005317
sS'CONJ'
p1285
F0.994666
sS'PRON'
p1286
F3e-06
sS'NOUN'
p1287
F1e-06
sg727
F1.2e-05
s(lp1288
(g92
I16
tp1289
atp1290
a(S'kt\xc3\xb3rzy'
p1291
(dp1292
S'ADJ'
p1293
F1.0
s(lp1294
(g209
I17
tp1295
atp1296
a(S'teraz'
p1297
(dp1298
S'ADV'
p1299
F1.0
s(lp1300
(g122
I19
tp1301
atp1302
a(S'zmuszani'
p1303
(dp1304
S'VERB'
p1305
F1.0
s(lp1306
(g130
I21
tp1307
atp1308
a(S's\xc4\x85'
p1309
(dp1310
S'VERB'
p1311
F1.0
s(lp1312
(g114
I18
tp1313
atp1314
a(S'do'
p1315
(dp1316
g727
F0.0
sS'NOUN'
p1317
F1e-06
sS'ADP'
p1318
F1.0
s(lp1319
(g137
I22
tp1320
atp1321
a(S'oszcz\xc4\x99dzania'
p1322
(dp1323
S'VERB'
p1324
F0.442293
sS'NOUN'
p1325
F0.557707
s(lp1326
(g157
I24
tp1327
atp1328
a(g160
(dp1329
g727
F6e-06
sg162
F0.999994
s(lp1330
(g160
I25
tp1331
atp1332
a(S'brzmi'
p1333
(dp1334
S'VERB'
p1335
F1.0
s(lp1336
tp1337
a(S'to'
p1338
(dp1339
S'NOUN'
p1340
F0.288003
sS'ADP'
p1341
F2.4e-05
sS'PRT'
p1342
F0.355532
sg727
F0.0
sS'CONJ'
p1343
F0.052882
sS'ADJ'
p1344
F0.303559
s(lp1345
(g178
I27
tp1346
atp1347
a(S'jak'
p1348
(dp1349
S'ADV'
p1350
F0.7507269999999999
sS'PRT'
p1351
F0.001306
sS'CONJ'
p1352
F0.039672
sS'ADP'
p1353
F0.207839
sS'PRON'
p1354
F0.000455
s(lp1355
(g186
I28
tp1356
atp1357
a(S'dodatkowa'
p1358
(dp1359
S'ADJ'
p1360
F1.0
s(lp1361
(g249
I32
tp1362
atp1363
a(S'zniewaga'
p1364
(dp1365
S'ADV'
p1366
F3e-05
sS'NOUN'
p1367
F0.95189
sS'VERB'
p1368
F0.024694000000000008
sg727
F1.1e-05
sS'NUM'
p1369
F4e-06
sS'ADJ'
p1370
F0.023371
s(lp1371
(g202
I30
tp1372
atp1373
a(g162
(dp1374
g162
F1.0
s(lp1375
(g162
I33
tp1376
atp1377
asS'sl'
p1378
(lp1379
(S'ljudje'
p1380
(dp1381
S'NOUN'
p1382
F1.0
s(lp1383
(g269
I2
tp1384
atp1385
a(g1051
(dp1386
S'ADP'
p1387
F1.0
s(lp1388
(g276
I3
tp1389
atp1390
a(S'evropi'
p1391
(dp1392
S'ADV'
p1393
F0.003857
sS'ADJ'
p1394
F0.023618
sS'VERB'
p1395
F0.006144
sS'NOUN'
p1396
F0.9663849999999999
s(lp1397
(g284
I4
tp1398
atp1399
a(g160
(dp1400
g162
F1.0
s(lp1401
tp1402
a(S'ki'
p1403
(dp1404
S'CONJ'
p1405
F1.0
s(lp1406
(g22
I5
tp1407
atp1408
a(S'jih'
p1409
(dp1410
S'PRON'
p1411
F1.0
s(lp1412
(g29
I6
tp1413
atp1414
a(S'je'
p1415
(dp1416
S'PRON'
p1417
F3.9e-05
sS'VERB'
p1418
F0.9999610000000001
sg727
F1e-06
s(lp1419
(g70
I11
tp1420
atp1421
a(S'finan\xc4\x8dna'
p1422
(dp1423
S'ADJ'
p1424
F1.0
s(lp1425
(g100
I12
tp1426
atp1427
a(S'in'
p1428
(dp1429
S'ADV'
p1430
F7.9e-05
sg727
F3e-06
sS'CONJ'
p1431
F0.999908
sS'NOUN'
p1432
F1e-05
s(lp1433
(g107
I13
tp1434
atp1435
a(S'gospodarska'
p1436
(dp1437
S'ADJ'
p1438
F1.0
s(lp1439
(g85
I14
tp1440
atp1441
a(S'kriza'
p1442
(dp1443
S'NOUN'
p1444
F1.0
s(lp1445
(g77
I15
tp1446
atp1447
a(S'hudo'
p1448
(dp1449
S'ADV'
p1450
F0.998455
sS'ADJ'
p1451
F0.001546
s(lp1452
(g44
I8
tp1453
atp1454
a(S'prizadela'
p1455
(dp1456
S'VERB'
p1457
F1.0
s(lp1458
(g53
I9
tp1459
atp1460
a(S'in'
p1461
(dp1462
S'ADV'
p1463
F0.000181
sg727
F7e-05
sS'CONJ'
p1464
F0.999737
sS'NOUN'
p1465
F1.1e-05
s(lp1466
(g92
I16
tp1467
atp1468
a(S'ki'
p1469
(dp1470
S'CONJ'
p1471
F1.0
s(lp1472
(g209
I17
tp1473
atp1474
a(S'jih'
p1475
(dp1476
S'PRON'
p1477
F0.9999999999999999
s(lp1478
(g114
I18
tp1479
atp1480
a(S'zdaj'
p1481
(dp1482
S'ADV'
p1483
F1.0
s(lp1484
(g122
I19
tp1485
atp1486
a(S'silijo'
p1487
(dp1488
S'VERB'
p1489
F1.0
s(lp1490
(g130
I21
tp1491
atp1492
a(g160
(dp1493
g162
F1.0
s(lp1494
tp1495
a(S'naj'
p1496
(dp1497
S'PRT'
p1498
F0.474887
sS'CONJ'
p1499
F0.525112
sS'ADJ'
p1500
F1e-06
s(lp1501
(g137
I22
tp1502
atp1503
a(S'var\xc4\x8dujejo'
p1504
(dp1505
S'VERB'
p1506
F1.0
s(lp1507
(g157
I24
tp1508
atp1509
a(g160
(dp1510
g162
F1.0
s(lp1511
(g160
I25
tp1512
atp1513
a(S'to'
p1514
(dp1515
S'PRON'
p1516
F0.999815
sg727
F0.000186
s(lp1517
(g171
I26
tp1518
atp1519
a(S'razumejo'
p1520
(dp1521
S'VERB'
p1522
F1.0
s(lp1523
(g178
I27
tp1524
atp1525
a(S'kot'
p1526
(dp1527
S'CONJ'
p1528
F0.998421
sS'NOUN'
p1529
F0.001579
s(lp1530
(g186
I28
tp1531
atp1532
a(S'poslab\xc5\xa1anje'
p1533
(dp1534
S'NOUN'
p1535
F1.0
s(lp1536
(g202
I30
tp1537
atp1538
a(S'stanja'
p1539
(dp1540
S'NOUN'
p1541
F1.0
s(lp1542
(g249
I32
tp1543
atp1544
a(g162
(dp1545
g162
F1.0
s(lp1546
(g162
I33
tp1547
atp1548
asS'es'
p1549
(lp1550
(S'para'
p1551
(dp1552
S'CONJ'
p1553
F0.003274
sS'ADP'
p1554
F0.996726
s(lp1555
(g8
I0
tp1556
atp1557
a(S'los'
p1558
(dp1559
S'PRON'
p1560
F0.0
sS'DET'
p1561
F1.0
s(lp1562
(g15
I1
tp1563
atp1564
a(S'ciudadanos'
p1565
(dp1566
S'NOUN'
p1567
F1.0
s(lp1568
(g269
I2
tp1569
atp1570
a(S'europeos'
p1571
(dp1572
S'NOUN'
p1573
F0.020523
sS'ADJ'
p1574
F0.979477
s(lp1575
(g284
I4
tp1576
atp1577
a(S'que'
p1578
(dp1579
g727
F4e-06
sS'CONJ'
p1580
F0.999996
s(lp1581
(g22
I5
tp1582
atp1583
a(S'han'
p1584
(dp1585
S'VERB'
p1586
F1.0
s(lp1587
(g29
I6
tp1588
atp1589
a(S'sufrido'
p1590
(dp1591
S'VERB'
p1592
F1.0
s(lp1593
(g37
I7
tp1594
atp1595
a(S'los'
p1596
(dp1597
S'PRON'
p1598
F0.0
sS'DET'
p1599
F1.0
s(lp1600
(g53
I9
tp1601
atp1602
a(S'graves'
p1603
(dp1604
S'ADJ'
p1605
F1.0
s(lp1606
tp1607
a(S'efectos'
p1608
(dp1609
S'NOUN'
p1610
F1.0
s(lp1611
(g53
I9
tp1612
atp1613
a(S'de'
p1614
(dp1615
g727
F0.0
sS'CONJ'
p1616
F1.7e-05
sS'ADP'
p1617
F0.999983
s(lp1618
(g61
I10
tp1619
atp1620
a(S'la'
p1621
(dp1622
g727
F0.0
sS'PRON'
p1623
F0.0
sS'DET'
p1624
F0.999999
sS'NOUN'
p1625
F0.0
s(lp1626
(g70
I11
tp1627
atp1628
a(S'crisis'
p1629
(dp1630
S'NOUN'
p1631
F1.0
s(lp1632
(g77
I15
tp1633
atp1634
a(S'econ\xc3\xb3mica'
p1635
(dp1636
S'ADJ'
p1637
F1.0
s(lp1638
(g85
I14
tp1639
atp1640
a(S'y'
p1641
(dp1642
g727
F0.000571
sS'CONJ'
p1643
F0.999429
s(lp1644
(g107
I13
tp1645
atp1646
a(S'financiera'
p1647
(dp1648
S'NOUN'
p1649
F0.234386
sS'ADJ'
p1650
F0.765614
s(lp1651
(g100
I12
tp1652
atp1653
a(g1641
(dp1654
g727
F0.000779
sS'CONJ'
p1655
F0.999221
s(lp1656
(g92
I16
tp1657
atp1658
a(S'que'
p1659
(dp1660
g727
F0.0
sS'CONJ'
p1661
F1.0
s(lp1662
(g209
I17
tp1663
atp1664
a(S'ahora'
p1665
(dp1666
S'ADV'
p1667
F1.0
s(lp1668
(g122
I19
tp1669
atp1670
a(S'se'
p1671
(dp1672
S'PRON'
p1673
F1.0
sS'VERB'
p1674
F0.0
s(lp1675
(g379
I20
tp1676
atp1677
a(S'ven'
p1678
(dp1679
S'VERB'
p1680
F1.0
s(lp1681
tp1682
a(S'obligados'
p1683
(dp1684
S'VERB'
p1685
F1.0
s(lp1686
(g130
I21
tp1687
atp1688
a(g962
(dp1689
g727
F3e-06
sS'CONJ'
p1690
F0.10127
sS'ADP'
p1691
F0.898727
s(lp1692
(g137
I22
tp1693
atp1694
a(S'ahorrar'
p1695
(dp1696
S'VERB'
p1697
F1.0
s(lp1698
(g157
I24
tp1699
atp1700
a(g160
(dp1701
g162
F1.0
s(lp1702
(g160
I25
tp1703
atp1704
a(S'esto'
p1705
(dp1706
S'PRON'
p1707
F1.0
s(lp1708
(g171
I26
tp1709
atp1710
a(S'suena'
p1711
(dp1712
S'VERB'
p1713
F1.0
s(lp1714
(g178
I27
tp1715
atp1716
a(S'como'
p1717
(dp1718
S'ADV'
p1719
F0.185077
sS'CONJ'
p1720
F0.814923
s(lp1721
(g186
I28
tp1722
atp1723
a(S'un'
p1724
(dp1725
g727
F1e-06
sS'DET'
p1726
F0.999999
s(lp1727
tp1728
a(S'insulto'
p1729
(dp1730
S'VERB'
p1731
F5.2e-05
sS'NOUN'
p1732
F0.999948
s(lp1733
(g202
I30
tp1734
atp1735
a(S'a\xc3\xb1adido'
p1736
(dp1737
S'VERB'
p1738
F1.0
s(lp1739
(g195
I29
tp1740
atp1741
a(g962
(dp1742
g727
F0.0
sS'CONJ'
p1743
F6.2e-05
sS'ADP'
p1744
F0.999938
s(lp1745
(g235
I31
tp1746
atp1747
a(S'su'
p1748
(dp1749
S'PRON'
p1750
F1.0
s(lp1751
tp1752
a(S'sufrimiento'
p1753
(dp1754
S'NOUN'
p1755
F1.0
s(lp1756
(g249
I32
tp1757
atp1758
a(g162
(dp1759
g162
F1.0
s(lp1760
(g162
I33
tp1761
atp1762
as.