(dp0
S'fr'
p1
(lp2
(S'les'
p3
(dp4
S'PRON'
p5
F0.000397
sS'DET'
p6
F0.99958
sS'ADP'
p7
F2.3e-05
s(lp8
(S'trolls'
p9
I0
tp10
atp11
a(S'trolls'
p12
(dp13
S'NOUN'
p14
F1.0
s(lp15
(g9
I0
tp16
atp17
a(S'disparaissent'
p18
(dp19
S'VERB'
p20
F1.0
s(lp21
tp22
a(S'\xc3\xa0'
p23
(dp24
S'ADP'
p25
F1.0
s(lp26
(S'by'
p27
I3
tp28
atp29
a(S'la'
p30
(dp31
S'PRON'
p32
F1.2e-05
sS'DET'
p33
F0.999988
sS'NOUN'
p34
F0.0
s(lp35
(g9
I0
tp36
atp37
a(S'lumi\xc3\xa8re'
p38
(dp39
S'NOUN'
p40
F1.0
s(lp41
(S'daylight'
p42
I4
tp43
atp44
a(S'du'
p45
(dp46
S'ADP'
p47
F1.0
s(lp48
tp49
a(S'jour'
p50
(dp51
S'NOUN'
p52
F1.0
s(lp53
(g42
I4
tp54
atp55
a(S'.'
p56
(dp57
g56
F1.0
s(lp58
(g56
I5
tp59
atp60
asS'en'
p61
(lp62
(g9
(dp63
S'VERB'
p64
F2e-06
sS'NOUN'
p65
F0.999998
s(lp66
(g9
I0
tp67
atp68
a(S'are'
p69
(dp70
S'VERB'
p71
F1.0
sS'NOUN'
p72
F0.0
s(lp73
(g69
I1
tp74
atp75
a(S'destroyed'
p76
(dp77
S'VERB'
p78
F1.0
s(lp79
(g76
I2
tp80
atp81
a(g27
(dp82
S'ADV'
p83
F7.4e-05
sS'NOUN'
p84
F1e-06
sS'ADP'
p85
F0.999925
s(lp86
(g27
I3
tp87
atp88
a(g42
(dp89
S'NOUN'
p90
F1.0
s(lp91
(g42
I4
tp92
atp93
a(g56
(dp94
g56
F1.0
s(lp95
(g56
I5
tp96
atp97
asS'nl'
p98
(lp99
(S'wanneer'
p100
(dp101
S'ADV'
p102
F0.022831
sS'CONJ'
p103
F0.977169
s(lp104
(g9
I0
tp105
atp106
a(S'ze'
p107
(dp108
S'PRON'
p109
F1.0
s(lp110
(g9
I0
tp111
atp112
a(S'aan'
p113
(dp114
S'ADV'
p115
F0.033377
sS'ADP'
p116
F0.966623
s(lp117
(g9
I0
tp118
atp119
a(S'het'
p120
(dp121
S'PRON'
p122
F0.0014750000000000002
sS'DET'
p123
F0.998524
s(lp124
(g9
I0
tp125
atp126
a(S'licht'
p127
(dp128
S'ADV'
p129
F0.000157
sS'ADJ'
p130
F0.09543
sS'VERB'
p131
F1.1e-05
sS'NOUN'
p132
F0.904402
s(lp133
(g42
I4
tp134
atp135
a(S'komen'
p136
(dp137
S'VERB'
p138
F0.998305
sS'NOUN'
p139
F0.001695
s(lp140
tp141
a(S'worden'
p142
(dp143
S'VERB'
p144
F0.999996
sS'NOUN'
p145
F4e-06
s(lp146
(g69
I1
tp147
atp148
a(S'de'
p149
(dp150
S'DET'
p151
F1.0
s(lp152
tp153
a(S'trollen'
p154
(dp155
S'NOUN'
p156
F1.0
s(lp157
(g9
I0
tp158
atp159
a(S'vernietigd'
p160
(dp161
S'VERB'
p162
F1.0
s(lp163
(g76
I2
tp164
atp165
a(g56
(dp166
g56
F1.0
s(lp167
(g56
I5
tp168
atp169
asS'de'
p170
(lp171
(S'in'
p172
(dp173
S'ADP'
p174
F1.0
s(lp175
(g9
I0
tp176
atp177
a(S'der'
p178
(dp179
S'PRON'
p180
F0.239488
sS'DET'
p181
F0.757323
s(lp182
(g27
I3
tp183
atp184
a(S'sonne'
p185
(dp186
S'VERB'
p187
F1.0
s(lp188
(g9
I0
tp189
atp190
a(S'verschwinden'
p191
(dp192
S'VERB'
p193
F1.0
s(lp194
tp195
a(S'die'
p196
(dp197
S'PRON'
p198
F0.942301
sS'DET'
p199
F0.057632
s(lp200
(g69
I1
tp201
atp202
a(S'schatten'
p203
(dp204
S'VERB'
p205
F1.0
s(lp206
(g9
I0
tp207
atp208
a(g56
(dp209
g56
F1.0
s(lp210
(g56
I5
tp211
atp212
asS'it'
p213
(lp214
(S'i'
p215
(dp216
S'DET'
p217
F1.0
s(lp218
(g9
I0
tp219
atp220
a(S'demoni'
p221
(dp222
S'NOUN'
p223
F1.0
s(lp224
(g9
I0
tp225
atp226
a(S'vengono'
p227
(dp228
S'VERB'
p229
F1.0
s(lp230
tp231
a(S'sconfitti'
p232
(dp233
S'NOUN'
p234
F0.005899
sS'VERB'
p235
F0.976125
sS'ADJ'
p236
F0.017976
s(lp237
(g9
I0
tp238
atp239
a(S'con'
p240
(dp241
S'ADP'
p242
F1.0
s(lp243
(g27
I3
tp244
atp245
a(S'la'
p246
(dp247
S'PRON'
p248
F0.000266
sS'DET'
p249
F0.999734
s(lp250
(g42
I4
tp251
atp252
a(S'luce'
p253
(dp254
S'ADJ'
p255
F0.040586
sS'VERB'
p256
F4.2e-05
sS'NOUN'
p257
F0.959372
s(lp258
(g42
I4
tp259
atp260
a(S'del'
p261
(dp262
S'DEF'
p263
F0.001286
sS'ADP'
p264
F0.998714
s(lp265
tp266
a(S'giorno'
p267
(dp268
S'NOUN'
p269
F1.0
s(lp270
(g42
I4
tp271
atp272
a(g56
(dp273
g56
F1.0
s(lp274
(g56
I5
tp275
atp276
asS'sk'
p277
(lp278
(S'denn\xc3\xa9'
p279
(dp280
S'ADJ'
p281
F1.0
s(lp282
(g9
I0
tp283
atp284
a(S'svetlo'
p285
(dp286
S'ADV'
p287
F9.5e-05
sS'NOUN'
p288
F0.999905
s(lp289
(g9
I0
tp290
atp291
a(S'zab\xc3\xadja'
p292
(dp293
S'VERB'
p294
F1.0
s(lp295
tp296
a(S'up\xc3\xadrov'
p297
(dp298
S'NOUN'
p299
F1.0
s(lp300
(g9
I0
tp301
atp302
a(g56
(dp303
g56
F1.0
s(lp304
(g56
I5
tp305
atp306
asS'pl'
p307
(lp308
(S'trolle'
p309
(dp310
S'ADV'
p311
F0.022742
sS'ADJ'
p312
F0.00016600000000000002
sS'VERB'
p313
F0.00022899999999999998
sS'NOUN'
p314
F0.9768620000000001
sS'X'
p315
F4e-06
s(lp316
(g9
I0
tp317
atp318
a(S'gin\xc4\x85'
p319
(dp320
S'VERB'
p321
F1.0
s(lp322
tp323
a(S'od'
p324
(dp325
S'VERB'
p326
F0.0
sS'NOUN'
p327
F7e-06
sS'ADP'
p328
F0.999993
s(lp329
(g9
I0
tp330
atp331
a(S'\xc5\x9bwiat\xc5\x82a'
p332
(dp333
S'NOUN'
p334
F0.999999
s(lp335
tp336
a(S's\xc5\x82onecznego'
p337
(dp338
S'ADJ'
p339
F1.0
s(lp340
(g42
I4
tp341
atp342
a(g56
(dp343
g56
F1.0
s(lp344
(g56
I5
tp345
atp346
asS'sl'
p347
(lp348
(S'resnica'
p349
(dp350
S'NOUN'
p351
F1.0
s(lp352
(g9
I0
tp353
atp354
a(S'slej'
p355
(dp356
S'ADV'
p357
F1.0
s(lp358
(g9
I0
tp359
atp360
a(S'ko'
p361
(dp362
S'CONJ'
p363
F1.0
s(lp364
(g9
I0
tp365
atp366
a(S'prej'
p367
(dp368
S'ADV'
p369
F1.0
s(lp370
(g9
I0
tp371
atp372
a(S'pride'
p373
(dp374
S'VERB'
p375
F1.0
s(lp376
tp377
a(S'na'
p378
(dp379
S'ADP'
p380
F1.0
s(lp381
(g42
I4
tp382
atp383
a(S'dan'
p384
(dp385
S'NOUN'
p386
F1.0
s(lp387
(g9
I0
tp388
atp389
a(g56
(dp390
g56
F1.0
s(lp391
(g56
I5
tp392
atp393
asS'es'
p394
(lp395
(S'la'
p396
(dp397
g315
F4.5e-05
sS'DET'
p398
F0.999917
sS'NOUN'
p399
F0.0
sS'PRON'
p400
F3.8e-05
s(lp401
(g9
I0
tp402
atp403
a(S'luz'
p404
(dp405
S'NOUN'
p406
F1.0
s(lp407
(g42
I4
tp408
atp409
a(S'del'
p410
(dp411
S'ADP'
p412
F1.0
s(lp413
tp414
a(S'sol'
p415
(dp416
S'NOUN'
p417
F1.0
s(lp418
(g42
I4
tp419
atp420
a(S'acaba'
p421
(dp422
S'VERB'
p423
F1.0
s(lp424
(g9
I0
tp425
atp426
a(S'con'
p427
(dp428
S'ADP'
p429
F1.0
s(lp430
(g9
I0
tp431
atp432
a(S'los'
p433
(dp434
S'PRON'
p435
F0.0
sS'DET'
p436
F1.0
s(lp437
tp438
a(S'trolls'
p439
(dp440
S'ADJ'
p441
F0.002492
sS'VERB'
p442
F0.000203
sS'NOUN'
p443
F0.997306
s(lp444
(g9
I0
tp445
atp446
a(g56
(dp447
g56
F1.0
s(lp448
(g56
I5
tp449
atp450
as.