(dp0
S'fr'
p1
(lp2
(S'\xc3\x80'
p3
(dp4
S'ADP'
p5
F1.0
s(lp6
(S'on'
p7
I0
tp8
atp9
a(S'la'
p10
(dp11
S'PRON'
p12
F0.002986
sS'DET'
p13
F0.997013
sS'NOUN'
p14
F1e-06
s(lp15
(S'the'
p16
I1
tp17
atp18
a(S'veille'
p19
(dp20
S'VERB'
p21
F0.004168
sS'NOUN'
p22
F0.995832
s(lp23
(S'eve'
p24
I2
tp25
atp26
a(S'de'
p27
(dp28
S'ADP'
p29
F1.0
s(lp30
(S'of'
p31
I3
tp32
atp33
a(S'notre'
p34
(dp35
S'PRON'
p36
F1.0
s(lp37
(S'our'
p38
I4
tp39
atp40
a(S'd\xc3\xa9bat'
p41
(dp42
S'VERB'
p43
F7e-06
sS'NOUN'
p44
F0.999993
s(lp45
(S'debate'
p46
I5
tp47
atp48
a(S'sur'
p49
(dp50
S'ADP'
p51
F1.0
s(lp52
(S'on'
p53
I6
tp54
atp55
a(S'le'
p56
(dp57
S'PRON'
p58
F0.000338
sS'DET'
p59
F0.999662
s(lp60
(S'the'
p61
I7
tp62
atp63
a(S'trait\xc3\xa9'
p64
(dp65
S'VERB'
p66
F0.000957
sS'NOUN'
p67
F0.999043
s(lp68
(S'treaty'
p69
I8
tp70
atp71
a(S'et'
p72
(dp73
S'CONJ'
p74
F1.0
s(lp75
(S'and'
p76
I9
tp77
atp78
a(S'ses'
p79
(dp80
S'PRON'
p81
F1.0
s(lp82
(S'the'
p83
I10
tp84
atp85
a(S'avanc\xc3\xa9es'
p86
(dp87
S'VERB'
p88
F1e-06
sS'NOUN'
p89
F0.999999
s(lp90
(S'progress'
p91
I12
tp92
atp93
a(S'd\xc3\xa9mocratiques'
p94
(dp95
S'ADJ'
p96
F1.0
s(lp97
(S'democratic'
p98
I11
tp99
atp100
a(S'pour'
p101
(dp102
S'CONJ'
p103
F0.450305
sS'ADP'
p104
F0.549695
s(lp105
(S'for'
p106
I15
tp107
atp108
a(S"l'"
p109
(dp110
S'ADJ'
p111
F0.114474
sS'VERB'
p112
F0.4371050000000001
sS'NOUN'
p113
F0.448422
s(lp114
(S'the'
p115
I16
tp116
atp117
a(S'union'
p118
(dp119
S'NOUN'
p120
F1.0
s(lp121
(S'union'
p122
I17
tp123
atp124
a(S'-'
p125
(dp126
S'.'
p127
F1.0
s(lp128
(g125
I18
tp129
atp130
a(S'et'
p131
(dp132
S'CONJ'
p133
F1.0
s(lp134
(S'and'
p135
I19
tp136
atp137
a(S'je'
p138
(dp139
S'PRON'
p140
F1.0
s(lp141
(S'i'
p142
I20
tp143
atp144
a(S'parle'
p145
(dp146
S'VERB'
p147
F1.0
s(lp148
(S'speak'
p149
I21
tp150
atp151
a(S'ici'
p152
(dp153
S'ADV'
p154
F1.0
s(lp155
(S'here'
p156
I22
tp157
atp158
a(S'au'
p159
(dp160
S'ADP'
p161
F1.0
s(lp162
(S'on'
p163
I23
tp164
atp165
a(S'nom'
p166
(dp167
S'NOUN'
p168
F1.0
s(lp169
(S'behalf'
p170
I24
tp171
atp172
a(S'des'
p173
(dp174
S'DET'
p175
F2.1e-05
sS'ADP'
p176
F0.999979
s(lp177
(S'of'
p178
I25
tp179
atp180
a(S'membres'
p181
(dp182
S'VERB'
p183
F0.0
sS'NOUN'
p184
F1.0
s(lp185
(S'members'
p186
I30
tp187
atp188
a(S'ppe'
p189
(dp190
S'NOUN'
p191
F0.008189
sS'VERB'
p192
F0.943186
sS'ADJ'
p193
F0.048625
s(lp194
(S'ppe'
p195
I28
tp196
atp197
a(S'de'
p198
(dp199
S'ADP'
p200
F1.0
s(lp201
tp202
a(S'mon'
p203
(dp204
S'PRON'
p205
F1.0
s(lp206
tp207
a(S'groupe'
p208
(dp209
S'VERB'
p210
F0.0
sS'NOUN'
p211
F1.0
s(lp212
(S'group'
p213
I29
tp214
atp215
a(g125
(dp216
g127
F1.0
s(lp217
(g125
I31
tp218
atp219
a(S','
p220
(dp221
g127
F1.0
s(lp222
tp223
a(S'je'
p224
(dp225
S'PRON'
p226
F1.0
s(lp227
(g142
I32
tp228
atp229
a(S'tiens'
p230
(dp231
S'PRON'
p232
F4.8e-05
sS'VERB'
p233
F0.999943
sS'X'
p234
F9e-06
s(lp235
(S'must'
p236
I33
tp237
atp238
a(S'\xc3\xa0'
p239
(dp240
S'ADP'
p241
F1.0
s(lp242
(S'once'
p243
I35
tp244
atp245
a(S'renouveler'
p246
(dp247
S'VERB'
p248
F1.0
s(lp249
(S'again'
p250
I36
tp251
atp252
a(S'mon'
p253
(dp254
S'PRON'
p255
F1.0
s(lp256
(S'my'
p257
I26
tp258
atp259
a(S'appel'
p260
(dp261
S'NOUN'
p262
F1.0
s(lp263
tp264
a(S'pour'
p265
(dp266
S'CONJ'
p267
F0.794856
sS'ADP'
p268
F0.205144
s(lp269
(S'urge'
p270
I34
tp271
atp272
a(S'que'
p273
(dp274
S'ADV'
p275
F0.026011
sS'PRON'
p276
F0.20909
sS'CONJ'
p277
F0.764898
s(lp278
(S'that'
p279
I37
tp280
atp281
a(S'le'
p282
(dp283
S'PRON'
p284
F0.000812
sS'DET'
p285
F0.999188
s(lp286
(S'the'
p287
I38
tp288
atp289
a(S'processus'
p290
(dp291
S'NOUN'
p292
F1.0
s(lp293
(S'process'
p294
I40
tp295
atp296
a(S'de'
p297
(dp298
S'ADP'
p299
F1.0
s(lp300
tp301
a(S'ratification'
p302
(dp303
S'NOUN'
p304
F1.0
s(lp305
(S'ratification'
p306
I39
tp307
atp308
a(S'se'
p309
(dp310
S'PRON'
p311
F1.0
s(lp312
(S'be'
p313
I41
tp314
atp315
a(S'poursuive'
p316
(dp317
S'VERB'
p318
F1.0
s(lp319
(S'pursued'
p320
I42
tp321
atp322
a(S'\xc3\xa0'
p323
(dp324
S'ADP'
p325
F1.0
s(lp326
(S'at'
p327
I43
tp328
atp329
a(S'un'
p330
(dp331
S'NOUN'
p332
F0.000865
sS'NUM'
p333
F0.029842
sS'DET'
p334
F0.969293
s(lp335
(S'a'
p336
I44
tp337
atp338
a(S'rythme'
p339
(dp340
S'VERB'
p341
F0.004102
sS'NOUN'
p342
F0.995898
s(lp343
(S'pace'
p344
I46
tp345
atp346
a(S'soutenu'
p347
(dp348
S'VERB'
p349
F1.0
s(lp350
(S'steady'
p351
I45
tp352
atp353
a(g127
(dp354
g127
F1.0
s(lp355
(g127
I47
tp356
atp357
asS'en'
p358
(lp359
(g7
(dp360
S'ADV'
p361
F0.003818
sS'NOUN'
p362
F0.0
sS'ADJ'
p363
F0.0
sS'ADP'
p364
F0.996182
sS'PRT'
p365
F0.0
s(lp366
(g7
I0
tp367
atp368
a(g16
(dp369
S'NOUN'
p370
F1e-06
sS'DET'
p371
F0.999999
s(lp372
(g16
I1
tp373
atp374
a(g24
(dp375
S'NOUN'
p376
F1.0
s(lp377
(g24
I2
tp378
atp379
a(g31
(dp380
S'ADP'
p381
F1.0
s(lp382
(g31
I3
tp383
atp384
a(g38
(dp385
S'PRON'
p386
F1.0
s(lp387
(g38
I4
tp388
atp389
a(g46
(dp390
S'VERB'
p391
F1.8e-05
sS'NOUN'
p392
F0.999982
s(lp393
(g46
I5
tp394
atp395
a(g53
(dp396
S'ADV'
p397
F0.000489
sS'PRT'
p398
F0.000524
sS'ADJ'
p399
F0.0
sS'NOUN'
p400
F0.0
sS'ADP'
p401
F0.998987
s(lp402
(g53
I6
tp403
atp404
a(g61
(dp405
S'NOUN'
p406
F1e-06
sS'DET'
p407
F0.999999
s(lp408
(g61
I7
tp409
atp410
a(g69
(dp411
S'NOUN'
p412
F1.0
s(lp413
(g69
I8
tp414
atp415
a(g76
(dp416
S'CONJ'
p417
F1.0
sS'NOUN'
p418
F0.0
s(lp419
(g76
I9
tp420
atp421
a(g83
(dp422
S'NOUN'
p423
F1e-06
sS'DET'
p424
F0.999999
s(lp425
(g83
I10
tp426
atp427
a(g98
(dp428
S'ADJ'
p429
F1.0
s(lp430
(g98
I11
tp431
atp432
a(g91
(dp433
S'VERB'
p434
F0.001366
sS'NOUN'
p435
F0.998634
s(lp436
(g91
I12
tp437
atp438
a(S'it'
p439
(dp440
S'PRON'
p441
F1.0
s(lp442
(g439
I13
tp443
atp444
a(S'involves'
p445
(dp446
S'VERB'
p447
F1.0
s(lp448
(g445
I14
tp449
atp450
a(g106
(dp451
S'ADP'
p452
F1.0
s(lp453
(g106
I15
tp454
atp455
a(g115
(dp456
S'NOUN'
p457
F1e-06
sS'DET'
p458
F0.999999
s(lp459
(g115
I16
tp460
atp461
a(g122
(dp462
S'NOUN'
p463
F1.0
s(lp464
(g122
I17
tp465
atp466
a(g125
(dp467
g127
F1.0
s(lp468
(g125
I18
tp469
atp470
a(g135
(dp471
S'CONJ'
p472
F0.9999
sS'NOUN'
p473
F0.0001
s(lp474
(g135
I19
tp475
atp476
a(g142
(dp477
g234
F0.000943
sS'NOUN'
p478
F0.9990580000000001
s(lp479
(g142
I20
tp480
atp481
a(g149
(dp482
S'VERB'
p483
F1.0
s(lp484
(g149
I21
tp485
atp486
a(g156
(dp487
S'ADV'
p488
F0.999823
sS'ADP'
p489
F0.000177
s(lp490
(g156
I22
tp491
atp492
a(g163
(dp493
S'ADV'
p494
F0.002163
sS'PRT'
p495
F9e-06
sS'ADJ'
p496
F5.5e-05
sS'ADP'
p497
F0.997772
sS'NOUN'
p498
F1e-06
s(lp499
(g163
I23
tp500
atp501
a(g170
(dp502
S'NOUN'
p503
F1.0
s(lp504
(g170
I24
tp505
atp506
a(g178
(dp507
S'ADP'
p508
F1.0
s(lp509
(g178
I25
tp510
atp511
a(g257
(dp512
S'PRON'
p513
F1.0
s(lp514
(g257
I26
tp515
atp516
a(S'fellow'
p517
(dp518
S'NOUN'
p519
F0.226646
sS'VERB'
p520
F1e-06
sS'ADJ'
p521
F0.773352
s(lp522
(g517
I27
tp523
atp524
a(g195
(dp525
S'ADJ'
p526
F0.068418
sS'VERB'
p527
F9.400000000000001e-05
sS'NOUN'
p528
F0.931487
s(lp529
(g195
I28
tp530
atp531
a(g213
(dp532
S'VERB'
p533
F6.2e-05
sS'NOUN'
p534
F0.999939
s(lp535
(g213
I29
tp536
atp537
a(g186
(dp538
S'NOUN'
p539
F1.0
s(lp540
(g186
I30
tp541
atp542
a(g125
(dp543
g127
F1.0
s(lp544
(g125
I31
tp545
atp546
a(g142
(dp547
g234
F0.010604
sS'NOUN'
p548
F0.9893959999999999
s(lp549
(g142
I32
tp550
atp551
a(g236
(dp552
S'VERB'
p553
F0.999999
sS'NOUN'
p554
F1e-06
s(lp555
(g236
I33
tp556
atp557
a(g270
(dp558
S'VERB'
p559
F0.9999669999999999
sS'NOUN'
p560
F3.4e-05
s(lp561
(g270
I34
tp562
atp563
a(g243
(dp564
S'ADV'
p565
F0.966794
sS'NOUN'
p566
F1.2e-05
sS'ADP'
p567
F0.033194
s(lp568
(g243
I35
tp569
atp570
a(g250
(dp571
S'ADV'
p572
F1.0
s(lp573
(g250
I36
tp574
atp575
a(g279
(dp576
S'ADV'
p577
F0.077037
sS'DET'
p578
F0.023115
sS'ADP'
p579
F0.899848
s(lp580
(g279
I37
tp581
atp582
a(g287
(dp583
S'NOUN'
p584
F1.2e-05
sS'DET'
p585
F0.999988
s(lp586
(g287
I38
tp587
atp588
a(g306
(dp589
S'NOUN'
p590
F1.0
s(lp591
(g306
I39
tp592
atp593
a(g294
(dp594
S'VERB'
p595
F7e-06
sS'NOUN'
p596
F0.999993
s(lp597
(g294
I40
tp598
atp599
a(g313
(dp600
S'VERB'
p601
F1.0
s(lp602
(g313
I41
tp603
atp604
a(g320
(dp605
S'VERB'
p606
F0.99666
sS'ADJ'
p607
F0.003341
s(lp608
(g320
I42
tp609
atp610
a(g327
(dp611
S'NOUN'
p612
F1e-06
sS'ADP'
p613
F0.999999
s(lp614
(g327
I43
tp615
atp616
a(g336
(dp617
S'NOUN'
p618
F0.0
sS'DET'
p619
F1.0
s(lp620
(g336
I44
tp621
atp622
a(g351
(dp623
S'ADV'
p624
F0.000719
sS'NOUN'
p625
F0.002807
sS'VERB'
p626
F4.9999999999999996e-06
sS'ADJ'
p627
F0.996469
s(lp628
(g351
I45
tp629
atp630
a(g344
(dp631
S'VERB'
p632
F2.4999999999999998e-05
sS'NOUN'
p633
F0.999841
sS'ADP'
p634
F0.000134
s(lp635
(g344
I46
tp636
atp637
a(g127
(dp638
g127
F1.0
s(lp639
(g127
I47
tp640
atp641
asS'nl'
p642
(lp643
(S'zo'
p644
(dp645
S'ADV'
p646
F0.99952
sg234
F0.000426
sS'CONJ'
p647
F5.4e-05
s(lp648
(g16
I1
tp649
atp650
a(S'vlak'
p651
(dp652
S'ADJ'
p653
F0.023085
sS'NOUN'
p654
F0.976915
s(lp655
(g24
I2
tp656
atp657
a(S'voor'
p658
(dp659
S'ADV'
p660
F0.001926
sS'CONJ'
p661
F4e-06
sS'NOUN'
p662
F0.0
sS'ADP'
p663
F0.99807
s(lp664
(g31
I3
tp665
atp666
a(S'het'
p667
(dp668
S'PRON'
p669
F0.000929
sS'DET'
p670
F0.999071
s(lp671
(g38
I4
tp672
atp673
a(S'debat'
p674
(dp675
S'NOUN'
p676
F1.0
s(lp677
(g46
I5
tp678
atp679
a(S'over'
p680
(dp681
S'ADV'
p682
F0.015337
sS'ADP'
p683
F0.984663
s(lp684
(g53
I6
tp685
atp686
a(S'het'
p687
(dp688
S'PRON'
p689
F0.000941
sS'DET'
p690
F0.99906
s(lp691
(g61
I7
tp692
atp693
a(S'verdrag'
p694
(dp695
S'NOUN'
p696
F1.0
s(lp697
(g69
I8
tp698
atp699
a(S'en'
p700
(dp701
S'CONJ'
p702
F1.0
s(lp703
(g76
I9
tp704
atp705
a(S'de'
p706
(dp707
S'DET'
p708
F1.0
s(lp709
(g83
I10
tp710
atp711
a(S'democratische'
p712
(dp713
S'NOUN'
p714
F0.000209
sS'ADJ'
p715
F0.999791
s(lp716
(g98
I11
tp717
atp718
a(S'ontwikkelingen'
p719
(dp720
S'NOUN'
p721
F1.0
s(lp722
(g91
I12
tp723
atp724
a(S'die'
p725
(dp726
S'PRON'
p727
F1.000001
s(lp728
(g439
I13
tp729
atp730
a(S'de'
p731
(dp732
S'DET'
p733
F1.0
s(lp734
(g115
I16
tp735
atp736
a(S'eu'
p737
(dp738
S'NOUN'
p739
F1.0
s(lp740
(g122
I17
tp741
atp742
a(S'hierdoor'
p743
(dp744
S'ADV'
p745
F1.0
s(lp746
(g445
I14
tp747
atp748
a(S'zal'
p749
(dp750
S'VERB'
p751
F1.0
s(lp752
tp753
a(S'ondergaan'
p754
(dp755
S'VERB'
p756
F0.9997630000000001
sS'NOUN'
p757
F0.000236
s(lp758
(g445
I14
tp759
atp760
a(g125
(dp761
g127
F1.0
s(lp762
(g125
I18
tp763
atp764
a(S'en'
p765
(dp766
S'CONJ'
p767
F1.0
s(lp768
(g135
I19
tp769
atp770
a(S'ik'
p771
(dp772
S'PRON'
p773
F0.999972
sS'NOUN'
p774
F2.8e-05
s(lp775
(g142
I20
tp776
atp777
a(S'spreek'
p778
(dp779
S'VERB'
p780
F1.0
s(lp781
(g149
I21
tp782
atp783
a(S'hier'
p784
(dp785
S'ADV'
p786
F1.0
s(lp787
(g156
I22
tp788
atp789
a(S'namens'
p790
(dp791
S'ADP'
p792
F1.0
s(lp793
(g170
I24
tp794
atp795
a(S'mijn'
p796
(dp797
S'PRON'
p798
F0.999996
sS'NOUN'
p799
F4e-06
s(lp800
(g257
I26
tp801
atp802
a(S'collega'
p803
(dp804
S'NOUN'
p805
F1.0
s(lp806
tp807
a(S"'"
p808
(dp809
g127
F1.0
s(lp810
(g517
I27
tp811
atp812
a(S's'
p813
(dp814
S'NOUN'
p815
F1.0
s(lp816
(g186
I30
tp817
atp818
a(S'van'
p819
(dp820
S'ADP'
p821
F1.0
s(lp822
tp823
a(S'de'
p824
(dp825
S'DET'
p826
F1.0
s(lp827
tp828
a(S'fractie'
p829
(dp830
S'NOUN'
p831
F1.0
s(lp832
(g213
I29
tp833
atp834
a(S'ppe'
p835
(dp836
S'ADJ'
p837
F0.199477
sS'NOUN'
p838
F0.8005229999999999
s(lp839
(g195
I28
tp840
atp841
a(g125
(dp842
g127
F1.0
s(lp843
(g125
I31
tp844
atp845
a(S'moet'
p846
(dp847
S'VERB'
p848
F1.0
s(lp849
(g236
I33
tp850
atp851
a(S'ik'
p852
(dp853
S'PRON'
p854
F0.999997
sS'NOUN'
p855
F3e-06
s(lp856
(g142
I32
tp857
atp858
a(S'er'
p859
(dp860
S'ADV'
p861
F1.0
s(lp862
(g270
I34
tp863
atp864
a(S'nogmaals'
p865
(dp866
S'ADV'
p867
F1.0
s(lp868
(g250
I36
tp869
atp870
a(S'op'
p871
(dp872
S'ADV'
p873
F0.656376
sS'ADJ'
p874
F6.6e-05
sS'ADP'
p875
F0.343558
s(lp876
tp877
a(S'wijzen'
p878
(dp879
S'VERB'
p880
F0.680075
sS'NOUN'
p881
F0.319925
s(lp882
(g270
I34
tp883
atp884
a(S'dat'
p885
(dp886
S'PRON'
p887
F0.14294800000000002
sS'CONJ'
p888
F0.857052
s(lp889
(g279
I37
tp890
atp891
a(S'het'
p892
(dp893
S'PRON'
p894
F0.021638
sS'DET'
p895
F0.978362
s(lp896
(g287
I38
tp897
atp898
a(S'ratificatieproces'
p899
(dp900
S'NOUN'
p901
F1.0
s(lp902
(g306
I39
tp903
atp904
a(S'zich'
p905
(dp906
S'PRON'
p907
F1.0
s(lp908
tp909
a(S'aan'
p910
(dp911
S'ADV'
p912
F0.042837
sS'ADP'
p913
F0.957163
s(lp914
(g327
I43
tp915
atp916
a(S'een'
p917
(dp918
S'ADJ'
p919
F1e-06
sS'PRON'
p920
F0.000534
sS'NUM'
p921
F1e-06
sS'DET'
p922
F0.999464
s(lp923
(g336
I44
tp924
atp925
a(S'vast'
p926
(dp927
S'ADV'
p928
F6e-05
sS'VERB'
p929
F0.0
sS'ADJ'
p930
F0.99994
s(lp931
tp932
a(S'tijdsschema'
p933
(dp934
S'NOUN'
p935
F1.0
s(lp936
(g351
I45
tp937
atp938
a(S'dient'
p939
(dp940
S'VERB'
p941
F1.0
s(lp942
(g320
I42
tp943
atp944
a(S'te'
p945
(dp946
S'PRT'
p947
F1.0
s(lp948
(g313
I41
tp949
atp950
a(S'houden'
p951
(dp952
S'VERB'
p953
F1.0
sS'NOUN'
p954
F0.0
s(lp955
(g344
I46
tp956
atp957
a(g127
(dp958
g127
F1.0
s(lp959
(g127
I47
tp960
atp961
asS'de'
p962
(lp963
(S'am'
p964
(dp965
S'PRT'
p966
F0.134498
sS'ADP'
p967
F0.865502
s(lp968
(g7
I0
tp969
atp970
a(S'tage'
p971
(dp972
S'VERB'
p973
F1.0
s(lp974
tp975
a(S'vor'
p976
(dp977
S'ADV'
p978
F0.011625
sS'ADP'
p979
F0.986972
s(lp980
(g24
I2
tp981
atp982
a(S'unserer'
p983
(dp984
S'PRON'
p985
F1.0
s(lp986
(g38
I4
tp987
atp988
a(S'aussprache'
p989
(dp990
S'VERB'
p991
F0.00188
sS'NOUN'
p992
F0.995235
s(lp993
(g46
I5
tp994
atp995
a(S'\xc3\xbcber'
p996
(dp997
S'PRT'
p998
F0.000105
sS'ADP'
p999
F0.999895
s(lp1000
(g53
I6
tp1001
atp1002
a(S'den'
p1003
(dp1004
S'PRON'
p1005
F0.016908
sS'DET'
p1006
F0.982838
s(lp1007
(g61
I7
tp1008
atp1009
a(S'vertrag'
p1010
(dp1011
S'VERB'
p1012
F1.0
s(lp1013
(g69
I8
tp1014
atp1015
a(S'und'
p1016
(dp1017
S'CONJ'
p1018
F1.0
s(lp1019
(g76
I9
tp1020
atp1021
a(S'die'
p1022
(dp1023
S'PRON'
p1024
F0.373406
sS'DET'
p1025
F0.44344
s(lp1026
(g83
I10
tp1027
atp1028
a(S'mit'
p1029
(dp1030
S'PRT'
p1031
F0.00121
sS'ADP'
p1032
F0.99879
s(lp1033
tp1034
a(S'ihm'
p1035
(dp1036
S'PRON'
p1037
F1.0
s(lp1038
(g439
I13
tp1039
atp1040
a(S'verbundenen'
p1041
(dp1042
S'ADJ'
p1043
F1.0
s(lp1044
(g445
I14
tp1045
atp1046
a(S'demokratischen'
p1047
(dp1048
S'ADJ'
p1049
F1.0
s(lp1050
(g98
I11
tp1051
atp1052
a(S'fortschritte'
p1053
(dp1054
S'VERB'
p1055
F1.0
s(lp1056
(g91
I12
tp1057
atp1058
a(S'f\xc3\xbcr'
p1059
(dp1060
S'ADP'
p1061
F1.0
s(lp1062
(g106
I15
tp1063
atp1064
a(S'die'
p1065
(dp1066
S'PRON'
p1067
F6.6e-05
sS'DET'
p1068
F0.999913
s(lp1069
(g115
I16
tp1070
atp1071
a(S'union'
p1072
(dp1073
S'NOUN'
p1074
F0.993046
s(lp1075
(g122
I17
tp1076
atp1077
a(S'm\xc3\xb6chte'
p1078
(dp1079
S'VERB'
p1080
F1.0
s(lp1081
(g236
I33
tp1082
atp1083
a(S'ich'
p1084
(dp1085
S'PRON'
p1086
F1.0
s(lp1087
(g142
I32
tp1088
atp1089
a(g125
(dp1090
g127
F1.0
s(lp1091
(g125
I18
tp1092
atp1093
a(S'und'
p1094
(dp1095
S'CONJ'
p1096
F1.0
s(lp1097
(g135
I19
tp1098
atp1099
a(S'ich'
p1100
(dp1101
S'PRON'
p1102
F1.0
s(lp1103
(g142
I20
tp1104
atp1105
a(S'spreche'
p1106
(dp1107
S'VERB'
p1108
F1.0
s(lp1109
(g149
I21
tp1110
atp1111
a(S'hier'
p1112
(dp1113
S'ADV'
p1114
F0.999559
sS'PRT'
p1115
F0.000441
s(lp1116
(g156
I22
tp1117
atp1118
a(S'im'
p1119
(dp1120
S'ADP'
p1121
F1.0
s(lp1122
(g163
I23
tp1123
atp1124
a(S'namen'
p1125
(dp1126
S'ADJ'
p1127
F0.000231
sS'NOUN'
p1128
F0.999726
s(lp1129
(g170
I24
tp1130
atp1131
a(S'der'
p1132
(dp1133
S'PRON'
p1134
F2.1e-05
sS'DET'
p1135
F0.99997
s(lp1136
(g178
I25
tp1137
atp1138
a(S'evp-mitglieder'
p1139
(dp1140
S'NOUN'
p1141
F0.9996600000000001
s(lp1142
(g195
I28
tp1143
atp1144
a(S'meiner'
p1145
(dp1146
S'PRON'
p1147
F0.9999969999999999
s(lp1148
(g257
I26
tp1149
atp1150
a(S'fraktion'
p1151
(dp1152
S'ADJ'
p1153
F0.001408
sS'NOUN'
p1154
F0.998537
s(lp1155
(g213
I29
tp1156
atp1157
a(g125
(dp1158
g127
F1.0
s(lp1159
(g125
I31
tp1160
atp1161
a(S'nochmals'
p1162
(dp1163
S'ADV'
p1164
F1.0
s(lp1165
(g250
I36
tp1166
atp1167
a(S'dazu'
p1168
(dp1169
S'ADV'
p1170
F0.999952
sS'PRT'
p1171
F4.8e-05
s(lp1172
tp1173
a(S'aufrufen'
p1174
(dp1175
S'VERB'
p1176
F1.0
s(lp1177
(g270
I34
tp1178
atp1179
a(g220
(dp1180
g127
F1.0
s(lp1181
tp1182
a(S'dass'
p1183
(dp1184
S'CONJ'
p1185
F1.0
s(lp1186
(g279
I37
tp1187
atp1188
a(S'der'
p1189
(dp1190
S'PRON'
p1191
F0.000271
sS'DET'
p1192
F0.999681
s(lp1193
(g287
I38
tp1194
atp1195
a(S'ratifizierungsprozess'
p1196
(dp1197
S'ADJ'
p1198
F0.000333
sS'NOUN'
p1199
F0.999427
s(lp1200
(g306
I39
tp1201
atp1202
a(S'rasch'
p1203
(dp1204
S'ADJ'
p1205
F1.0
s(lp1206
(g344
I46
tp1207
atp1208
a(S'weitergef\xc3\xbchrt'
p1209
(dp1210
S'VERB'
p1211
F1.0
s(lp1212
(g320
I42
tp1213
atp1214
a(S'wird'
p1215
(dp1216
S'VERB'
p1217
F1.0
s(lp1218
(g313
I41
tp1219
atp1220
a(g127
(dp1221
g127
F1.0
s(lp1222
(g127
I47
tp1223
atp1224
asS'it'
p1225
(lp1226
(S'alla'
p1227
(dp1228
S'ADP'
p1229
F1.0
s(lp1230
tp1231
a(S'vigilia'
p1232
(dp1233
S'NOUN'
p1234
F1.0
s(lp1235
(g24
I2
tp1236
atp1237
a(S'della'
p1238
(dp1239
S'DEF'
p1240
F0.000382
sS'ADP'
p1241
F0.999618
s(lp1242
(g31
I3
tp1243
atp1244
a(S'nostra'
p1245
(dp1246
S'PRON'
p1247
F1.0
s(lp1248
(g38
I4
tp1249
atp1250
a(S'discussione'
p1251
(dp1252
S'NOUN'
p1253
F1.0
s(lp1254
(g46
I5
tp1255
atp1256
a(S'sul'
p1257
(dp1258
S'ADP'
p1259
F1.0
s(lp1260
(g53
I6
tp1261
atp1262
a(S'trattato'
p1263
(dp1264
S'VERB'
p1265
F0.050129
sS'NOUN'
p1266
F0.949871
s(lp1267
(g69
I8
tp1268
atp1269
a(S'e'
p1270
(dp1271
S'CONJ'
p1272
F1.0
s(lp1273
(g76
I9
tp1274
atp1275
a(S'il'
p1276
(dp1277
S'DET'
p1278
F1.0
s(lp1279
(g83
I10
tp1280
atp1281
a(S'progresso'
p1282
(dp1283
S'NOUN'
p1284
F1.0
s(lp1285
(g91
I12
tp1286
atp1287
a(S'democratico'
p1288
(dp1289
S'NOUN'
p1290
F0.009761
sS'ADJ'
p1291
F0.990239
s(lp1292
(g98
I11
tp1293
atp1294
a(S'che'
p1295
(dp1296
S'PRON'
p1297
F0.921805
sS'CONJ'
p1298
F0.077993
sS'ADJ'
p1299
F0.000202
s(lp1300
tp1301
a(S'ci'
p1302
(dp1303
S'ADV'
p1304
F0.00803
sS'PRON'
p1305
F0.9917029999999999
sS'NOUN'
p1306
F0.000266
s(lp1307
(g439
I13
tp1308
atp1309
a(S'si'
p1310
(dp1311
S'PRON'
p1312
F0.9999880000000001
sS'NOUN'
p1313
F1.2e-05
s(lp1314
tp1315
a(S'attende'
p1316
(dp1317
S'VERB'
p1318
F1.0
s(lp1319
(g445
I14
tp1320
atp1321
a(S'per'
p1322
(dp1323
S'CONJ'
p1324
F0.023021
sS'ADP'
p1325
F0.976979
s(lp1326
(g106
I15
tp1327
atp1328
a(S"l'"
p1329
(dp1330
S'NOUN'
p1331
F0.010109
sS'VERB'
p1332
F0.9654290000000001
sS'ADJ'
p1333
F0.024461
s(lp1334
(g115
I16
tp1335
atp1336
a(S'unione'
p1337
(dp1338
S'NOUN'
p1339
F1.0
s(lp1340
(g122
I17
tp1341
atp1342
a(S'('
p1343
(dp1344
g127
F1.0
s(lp1345
(g125
I18
tp1346
atp1347
a(g1270
(dp1348
S'CONJ'
p1349
F1.0
s(lp1350
(g135
I19
tp1351
atp1352
a(S'qui'
p1353
(dp1354
S'ADV'
p1355
F1.0
s(lp1356
(g142
I20
tp1357
atp1358
a(S'parlo'
p1359
(dp1360
S'VERB'
p1361
F1.0
s(lp1362
(g149
I21
tp1363
atp1364
a(g336
(dp1365
S'CONJ'
p1366
F8.4e-05
sS'ADP'
p1367
F0.999916
s(lp1368
tp1369
a(S'nome'
p1370
(dp1371
S'NOUN'
p1372
F1.0
s(lp1373
(g170
I24
tp1374
atp1375
a(S'dei'
p1376
(dp1377
S'NOUN'
p1378
F1e-06
sS'DEF'
p1379
F0.000281
sS'ADP'
p1380
F0.999718
s(lp1381
(g178
I25
tp1382
atp1383
a(S'miei'
p1384
(dp1385
S'PRON'
p1386
F1.0
s(lp1387
(g257
I26
tp1388
atp1389
a(S'colleghi'
p1390
(dp1391
S'VERB'
p1392
F0.000436
sS'NOUN'
p1393
F0.999565
s(lp1394
(g517
I27
tp1395
atp1396
a(S'del'
p1397
(dp1398
S'DEF'
p1399
F0.001266
sS'ADP'
p1400
F0.998734
s(lp1401
tp1402
a(S'gruppo'
p1403
(dp1404
S'NOUN'
p1405
F1.0
s(lp1406
(g213
I29
tp1407
atp1408
a(S'ppe'
p1409
(dp1410
S'ADJ'
p1411
F0.040682
sS'VERB'
p1412
F0.006560999999999999
sS'NOUN'
p1413
F0.952757
s(lp1414
(g195
I28
tp1415
atp1416
a(S')'
p1417
(dp1418
g127
F1.0
s(lp1419
(g125
I31
tp1420
atp1421
a(g220
(dp1422
g127
F1.0
s(lp1423
(g142
I32
tp1424
atp1425
a(S'devo'
p1426
(dp1427
S'VERB'
p1428
F1.0
s(lp1429
(g236
I33
tp1430
atp1431
a(S'insistere'
p1432
(dp1433
S'VERB'
p1434
F1.0
s(lp1435
(g270
I34
tp1436
atp1437
a(S'ancora'
p1438
(dp1439
S'ADV'
p1440
F0.993925
sS'VERB'
p1441
F0.006024
sS'NOUN'
p1442
F5.1e-05
s(lp1443
tp1444
a(S'una'
p1445
(dp1446
S'PRON'
p1447
F6.4e-05
sS'DEF'
p1448
F0.999936
s(lp1449
(g243
I35
tp1450
atp1451
a(S'volta'
p1452
(dp1453
S'ADJ'
p1454
F0.013846
sS'VERB'
p1455
F0.00032100000000000005
sS'NOUN'
p1456
F0.985833
s(lp1457
(g250
I36
tp1458
atp1459
a(S'che'
p1460
(dp1461
S'PRON'
p1462
F0.89348
sS'CONJ'
p1463
F0.104559
sS'ADJ'
p1464
F0.001961
s(lp1465
(g279
I37
tp1466
atp1467
a(S'il'
p1468
(dp1469
S'DET'
p1470
F1.0
s(lp1471
(g287
I38
tp1472
atp1473
a(S'processo'
p1474
(dp1475
S'VERB'
p1476
F6.4e-05
sS'NOUN'
p1477
F0.999936
s(lp1478
(g294
I40
tp1479
atp1480
a(S'di'
p1481
(dp1482
S'CONJ'
p1483
F8e-06
sS'ADP'
p1484
F0.999992
s(lp1485
tp1486
a(S'ratifica'
p1487
(dp1488
S'VERB'
p1489
F0.011966000000000001
sS'NOUN'
p1490
F0.988033
s(lp1491
(g306
I39
tp1492
atp1493
a(S'sia'
p1494
(dp1495
S'CONJ'
p1496
F0.253277
sS'VERB'
p1497
F0.746723
s(lp1498
(g313
I41
tp1499
atp1500
a(S'perseguito'
p1501
(dp1502
S'VERB'
p1503
F1.0
s(lp1504
(g320
I42
tp1505
atp1506
a(S'in'
p1507
(dp1508
S'ADP'
p1509
F1.0
s(lp1510
(g327
I43
tp1511
atp1512
a(S'maniera'
p1513
(dp1514
S'NOUN'
p1515
F1.0
s(lp1516
(g336
I44
tp1517
atp1518
a(S'regolare'
p1519
(dp1520
S'VERB'
p1521
F0.001568
sS'ADJ'
p1522
F0.998432
s(lp1523
(g351
I45
tp1524
atp1525
a(g127
(dp1526
g127
F1.0
s(lp1527
(g127
I47
tp1528
atp1529
asS'sk'
p1530
(lp1531
(S'v'
p1532
(dp1533
g234
F0.000596
sS'ADP'
p1534
F0.999404
s(lp1535
(g7
I0
tp1536
atp1537
a(S'predve\xc4\x8der'
p1538
(dp1539
S'NOUN'
p1540
F1.0
s(lp1541
(g24
I2
tp1542
atp1543
a(S'na\xc5\xa1ej'
p1544
(dp1545
S'PRON'
p1546
F0.999078
sg234
F0.000922
s(lp1547
(g38
I4
tp1548
atp1549
a(S'rozpravy'
p1550
(dp1551
S'NOUN'
p1552
F1.0
s(lp1553
(g46
I5
tp1554
atp1555
a(S'o'
p1556
(dp1557
g234
F0.000519
sS'CONJ'
p1558
F8.4e-05
sS'NOUN'
p1559
F2.2e-05
sS'ADP'
p1560
F0.999375
s(lp1561
(g53
I6
tp1562
atp1563
a(S'lisabonskej'
p1564
(dp1565
S'VERB'
p1566
F0.00038
sS'ADJ'
p1567
F0.999621
s(lp1568
tp1569
a(S'zmluve'
p1570
(dp1571
S'NOUN'
p1572
F1.0
s(lp1573
(g69
I8
tp1574
atp1575
a(g336
(dp1576
g234
F0.004695
sS'CONJ'
p1577
F0.994924
sS'NOUN'
p1578
F0.00022600000000000002
sS'ADP'
p1579
F1e-06
sS'PRT'
p1580
F0.000154
s(lp1581
(g76
I9
tp1582
atp1583
a(g1556
(dp1584
g234
F0.0005099999999999999
sS'CONJ'
p1585
F0.000155
sS'NOUN'
p1586
F2.4e-05
sS'ADP'
p1587
F0.99931
s(lp1588
(g83
I10
tp1589
atp1590
a(S'demokratickom'
p1591
(dp1592
S'ADJ'
p1593
F1.0
s(lp1594
(g98
I11
tp1595
atp1596
a(S'pokroku'
p1597
(dp1598
S'NOUN'
p1599
F1.0
s(lp1600
tp1601
a(g220
(dp1602
g127
F1.0
s(lp1603
tp1604
a(S'ktor\xc3\xbd'
p1605
(dp1606
S'PRON'
p1607
F1.0
s(lp1608
(g91
I12
tp1609
atp1610
a(S'pre'
p1611
(dp1612
g234
F0.000317
sS'ADP'
p1613
F0.999683
s(lp1614
(g106
I15
tp1615
atp1616
a(S'\xc3\x9aniu'
p1617
(dp1618
S'NOUN'
p1619
F1.0
s(lp1620
(g122
I17
tp1621
atp1622
a(S'prin\xc3\xa1\xc5\xa1a'
p1623
(dp1624
S'VERB'
p1625
F1.0
s(lp1626
(g445
I14
tp1627
atp1628
a(g220
(dp1629
g127
F1.0
s(lp1630
(g125
I18
tp1631
atp1632
a(g336
(dp1633
g234
F0.000386
sS'CONJ'
p1634
F0.999604
sS'NOUN'
p1635
F2e-06
sS'ADP'
p1636
F1e-06
sS'PRT'
p1637
F7e-06
s(lp1638
(g135
I19
tp1639
atp1640
a(S'teraz'
p1641
(dp1642
S'ADV'
p1643
F1.0
s(lp1644
tp1645
a(S'hovor\xc3\xadm'
p1646
(dp1647
S'VERB'
p1648
F1.0
s(lp1649
(g149
I21
tp1650
atp1651
a(S'aj'
p1652
(dp1653
g234
F0.971245
sS'CONJ'
p1654
F0.028755
s(lp1655
(g156
I22
tp1656
atp1657
a(g1532
(dp1658
g234
F0.000227
sS'ADP'
p1659
F0.999773
s(lp1660
tp1661
a(S'mene'
p1662
(dp1663
S'NOUN'
p1664
F1.0
s(lp1665
(g170
I24
tp1666
atp1667
a(S'kolegov'
p1668
(dp1669
S'NOUN'
p1670
F1.0
s(lp1671
(g517
I27
tp1672
atp1673
a(S'poslancov'
p1674
(dp1675
S'NOUN'
p1676
F1.0
s(lp1677
(g186
I30
tp1678
atp1679
a(S'zo'
p1680
(dp1681
g234
F0.002117
sS'ADP'
p1682
F0.997882
s(lp1683
(g163
I23
tp1684
atp1685
a(S'skupiny'
p1686
(dp1687
S'NOUN'
p1688
F1.0
s(lp1689
(g213
I29
tp1690
atp1691
a(S'ppe'
p1692
(dp1693
S'ADJ'
p1694
F0.002751
sS'VERB'
p1695
F0.7749599999999999
sS'NOUN'
p1696
F0.222291
s(lp1697
(g195
I28
tp1698
atp1699
a(g220
(dp1700
g127
F1.0
s(lp1701
(g125
I31
tp1702
atp1703
a(S'mus\xc3\xadm'
p1704
(dp1705
S'VERB'
p1706
F1.0
s(lp1707
(g236
I33
tp1708
atp1709
a(S'znova'
p1710
(dp1711
S'ADV'
p1712
F1.0
s(lp1713
(g250
I36
tp1714
atp1715
a(S'd\xc3\xb4razne'
p1716
(dp1717
S'ADV'
p1718
F1.0
s(lp1719
tp1720
a(S'\xc5\xbeiada\xc5\xa5'
p1721
(dp1722
S'VERB'
p1723
F1.0
s(lp1724
(g270
I34
tp1725
atp1726
a(g220
(dp1727
g127
F1.0
s(lp1728
tp1729
a(S'aby'
p1730
(dp1731
g234
F0.00014199999999999998
sS'CONJ'
p1732
F0.999858
s(lp1733
(g279
I37
tp1734
atp1735
a(S'ratifika\xc4\x8dn\xc3\xbd'
p1736
(dp1737
S'ADJ'
p1738
F1.0
s(lp1739
(g306
I39
tp1740
atp1741
a(S'proces'
p1742
(dp1743
S'NOUN'
p1744
F1.0
s(lp1745
(g294
I40
tp1746
atp1747
a(S'pokra\xc4\x8doval'
p1748
(dp1749
S'VERB'
p1750
F0.9999999999999999
s(lp1751
(g320
I42
tp1752
atp1753
a(S'stabiln\xc3\xbdm'
p1754
(dp1755
S'ADJ'
p1756
F1.0
s(lp1757
(g351
I45
tp1758
atp1759
a(S'tempom'
p1760
(dp1761
S'NOUN'
p1762
F1.0
s(lp1763
(g344
I46
tp1764
atp1765
a(g127
(dp1766
g127
F1.0
s(lp1767
(g127
I47
tp1768
atp1769
asS'pl'
p1770
(lp1771
(S'w'
p1772
(dp1773
S'ADJ'
p1774
F0.0
sg234
F7.000000000000001e-06
sS'NOUN'
p1775
F2e-06
sS'ADP'
p1776
F0.99999
s(lp1777
(g7
I0
tp1778
atp1779
a(S'przeddzie\xc5\x84'
p1780
(dp1781
S'NOUN'
p1782
F1.0
s(lp1783
(g24
I2
tp1784
atp1785
a(S'naszej'
p1786
(dp1787
S'ADJ'
p1788
F1.0
s(lp1789
(g38
I4
tp1790
atp1791
a(S'debaty'
p1792
(dp1793
S'NOUN'
p1794
F1.0
s(lp1795
(g46
I5
tp1796
atp1797
a(S'nad'
p1798
(dp1799
S'ADP'
p1800
F0.9999999999999999
s(lp1801
(g53
I6
tp1802
atp1803
a(S'traktatem'
p1804
(dp1805
S'ADV'
p1806
F1.1e-05
sS'ADJ'
p1807
F1.1000000000000001e-05
sS'VERB'
p1808
F0.036639
sS'NOUN'
p1809
F0.9633360000000002
s(lp1810
(g69
I8
tp1811
atp1812
a(g142
(dp1813
S'PRT'
p1814
F0.01834
sS'CONJ'
p1815
F0.98163
sS'PRON'
p1816
F4.9999999999999996e-06
sS'NOUN'
p1817
F1.6e-05
sg234
F1e-05
s(lp1818
(g76
I9
tp1819
atp1820
a(S'zwi\xc4\x85zanym'
p1821
(dp1822
S'VERB'
p1823
F0.11016
sS'ADJ'
p1824
F0.88984
s(lp1825
tp1826
a(S'z'
p1827
(dp1828
S'PRT'
p1829
F4.5e-05
sS'VERB'
p1830
F1e-06
sS'NOUN'
p1831
F0.0
sS'ADP'
p1832
F0.999953
sg234
F0.0
s(lp1833
(g445
I14
tp1834
atp1835
a(S'nim'
p1836
(dp1837
S'PRON'
p1838
F0.9999910000000002
sS'CONJ'
p1839
F1e-05
s(lp1840
(g439
I13
tp1841
atp1842
a(S'procesem'
p1843
(dp1844
S'NOUN'
p1845
F1.0
s(lp1846
(g351
I45
tp1847
atp1848
a(S'dalszej'
p1849
(dp1850
S'ADJ'
p1851
F1.0
s(lp1852
(g351
I45
tp1853
atp1854
a(S'demokratyzacji'
p1855
(dp1856
S'NOUN'
p1857
F1.0
s(lp1858
(g98
I11
tp1859
atp1860
a(S'unii'
p1861
(dp1862
S'NOUN'
p1863
F1.0
s(lp1864
(g122
I17
tp1865
atp1866
a(S'europejskiej'
p1867
(dp1868
S'ADJ'
p1869
F1.0
s(lp1870
(g115
I16
tp1871
atp1872
a(g125
(dp1873
g234
F4.7e-05
sS'NUM'
p1874
F0.0
sS'NOUN'
p1875
F2e-06
sg127
F0.999952
s(lp1876
(g125
I18
tp1877
atp1878
a(S'wyst\xc4\x99puj\xc4\x85c'
p1879
(dp1880
S'VERB'
p1881
F1.0
s(lp1882
(g149
I21
tp1883
atp1884
a(g1772
(dp1885
S'ADJ'
p1886
F0.0
sg234
F0.0
sS'NOUN'
p1887
F0.0
sS'ADP'
p1888
F0.9999999999999999
s(lp1889
(g163
I23
tp1890
atp1891
a(S'imieniu'
p1892
(dp1893
S'NOUN'
p1894
F1.0
s(lp1895
(g170
I24
tp1896
atp1897
a(S'moich'
p1898
(dp1899
S'ADJ'
p1900
F1.0000000000000002
s(lp1901
(g257
I26
tp1902
atp1903
a(S'koleg\xc3\xb3w'
p1904
(dp1905
S'NOUN'
p1906
F1.0
s(lp1907
tp1908
a(S'-cz\xc5\x82onk\xc3\xb3w'
p1909
(dp1910
S'ADJ'
p1911
F0.004912
sg234
F0.069633
sS'VERB'
p1912
F0.030945
sS'NOUN'
p1913
F0.8945110000000001
s(lp1914
(g517
I27
tp1915
atp1916
a(S'grupy'
p1917
(dp1918
S'NOUN'
p1919
F1.0
s(lp1920
(g213
I29
tp1921
atp1922
a(S'ppe'
p1923
(dp1924
S'ADV'
p1925
F0.001727
sS'NOUN'
p1926
F0.463404
sS'ADP'
p1927
F0.000253
sS'PRT'
p1928
F0.000495
sS'VERB'
p1929
F0.11168199999999999
sg234
F0.339129
sS'ADJ'
p1930
F0.08330900000000001
s(lp1931
(g195
I28
tp1932
atp1933
a(g125
(dp1934
g234
F0.00011
sS'NUM'
p1935
F1.5e-05
sS'NOUN'
p1936
F1.4000000000000001e-05
sg127
F0.999862
s(lp1937
(g125
I31
tp1938
atp1939
a(S'apeluj\xc4\x99'
p1940
(dp1941
S'VERB'
p1942
F1.0
s(lp1943
(g270
I34
tp1944
atp1945
a(S'jeszcze'
p1946
(dp1947
S'PRT'
p1948
F0.993856
sS'CONJ'
p1949
F0.006144
s(lp1950
(g250
I36
tp1951
atp1952
a(S'raz'
p1953
(dp1954
S'NOUN'
p1955
F0.9999999999999999
s(lp1956
(g243
I35
tp1957
atp1958
a(g220
(dp1959
g234
F0.0
sg127
F1.0
s(lp1960
tp1961
a(S'aby'
p1962
(dp1963
S'PRT'
p1964
F0.000836
sS'CONJ'
p1965
F0.999164
s(lp1966
(g279
I37
tp1967
atp1968
a(S'proces'
p1969
(dp1970
S'NOUN'
p1971
F1.0
s(lp1972
(g294
I40
tp1973
atp1974
a(S'ratyfikacji'
p1975
(dp1976
S'NOUN'
p1977
F1.0
s(lp1978
(g306
I39
tp1979
atp1980
a(S'realizowany'
p1981
(dp1982
S'VERB'
p1983
F1.0
s(lp1984
(g320
I42
tp1985
atp1986
a(S'by\xc5\x82'
p1987
(dp1988
S'VERB'
p1989
F1.0
s(lp1990
(g313
I41
tp1991
atp1992
a(S'bez'
p1993
(dp1994
S'NOUN'
p1995
F0.000958
sS'ADP'
p1996
F0.9990420000000001
s(lp1997
tp1998
a(S'zb\xc4\x99dnej'
p1999
(dp2000
S'ADJ'
p2001
F1.0
s(lp2002
(g351
I45
tp2003
atp2004
a(S'zw\xc5\x82oki'
p2005
(dp2006
S'NOUN'
p2007
F1.0000010000000001
s(lp2008
(g344
I46
tp2009
atp2010
a(g127
(dp2011
g127
F1.0
s(lp2012
(g127
I47
tp2013
atp2014
asS'sl'
p2015
(lp2016
(S'pred'
p2017
(dp2018
S'ADP'
p2019
F1.0
s(lp2020
(g24
I2
tp2021
atp2022
a(S'na\xc5\xa1o'
p2023
(dp2024
S'PRON'
p2025
F1.0
s(lp2026
(g38
I4
tp2027
atp2028
a(S'razpravo'
p2029
(dp2030
S'NOUN'
p2031
F1.0
s(lp2032
(g46
I5
tp2033
atp2034
a(g1556
(dp2035
S'NOUN'
p2036
F5e-06
sS'ADP'
p2037
F0.999995
s(lp2038
(g53
I6
tp2039
atp2040
a(S'pogodbi'
p2041
(dp2042
S'NOUN'
p2043
F1.0
s(lp2044
(g69
I8
tp2045
atp2046
a(S'in'
p2047
(dp2048
S'ADV'
p2049
F9.4e-05
sg234
F0.000199
sS'CONJ'
p2050
F0.999702
sS'NOUN'
p2051
F4e-06
s(lp2052
(g76
I9
tp2053
atp2054
a(S'demokrati\xc4\x8dnem'
p2055
(dp2056
S'ADV'
p2057
F1.7e-05
sS'NOUN'
p2058
F0.00019999999999999998
sS'VERB'
p2059
F0.0006689999999999999
sS'ADJ'
p2060
F0.999113
s(lp2061
(g98
I11
tp2062
atp2063
a(S'napredku'
p2064
(dp2065
S'NOUN'
p2066
F1.0
s(lp2067
(g91
I12
tp2068
atp2069
a(g220
(dp2070
g127
F1.0
s(lp2071
tp2072
a(S'ki'
p2073
(dp2074
S'CONJ'
p2075
F1.0
s(lp2076
tp2077
a(S'ga'
p2078
(dp2079
S'PRON'
p2080
F1.0
s(lp2081
(g439
I13
tp2082
atp2083
a(S'vklju\xc4\x8duje'
p2084
(dp2085
S'VERB'
p2086
F1.0
s(lp2087
(g445
I14
tp2088
atp2089
a(g1532
(dp2090
S'ADP'
p2091
F1.0
s(lp2092
(g106
I15
tp2093
atp2094
a(S'zvezi'
p2095
(dp2096
S'NOUN'
p2097
F1.0
s(lp2098
(g163
I23
tp2099
atp2100
a(g1827
(dp2101
S'ADP'
p2102
F1.0
s(lp2103
(g115
I16
tp2104
atp2105
a(S'unijo'
p2106
(dp2107
S'NOUN'
p2108
F1.0
s(lp2109
(g122
I17
tp2110
atp2111
a(S'naj'
p2112
(dp2113
S'PRT'
p2114
F0.855227
sS'CONJ'
p2115
F0.14449
sS'ADJ'
p2116
F0.000283
s(lp2117
(g142
I20
tp2118
atp2119
a(g1532
(dp2120
S'ADP'
p2121
F1.0
s(lp2122
tp2123
a(S'imenu'
p2124
(dp2125
S'NOUN'
p2126
F1.0
s(lp2127
(g170
I24
tp2128
atp2129
a(S'svojih'
p2130
(dp2131
S'PRON'
p2132
F1.0
s(lp2133
(g257
I26
tp2134
atp2135
a(S'kolegov'
p2136
(dp2137
S'NOUN'
p2138
F1.0
s(lp2139
(g517
I27
tp2140
atp2141
a(S'iz'
p2142
(dp2143
g234
F3.5e-05
sS'ADP'
p2144
F0.999965
s(lp2145
(g195
I28
tp2146
atp2147
a(S'skupine'
p2148
(dp2149
S'NOUN'
p2150
F0.9999999999999999
s(lp2151
tp2152
a(S'ppe'
p2153
(dp2154
S'ADV'
p2155
F0.011102
sg234
F0.008275
sS'ADJ'
p2156
F0.005345
sS'VERB'
p2157
F0.085981
sS'NOUN'
p2158
F0.8892960000000001
s(lp2159
(g195
I28
tp2160
atp2161
a(S'\xc5\xa1e'
p2162
(dp2163
S'PRT'
p2164
F1.0
s(lp2165
(g243
I35
tp2166
atp2167
a(S'enkrat'
p2168
(dp2169
S'ADV'
p2170
F1.0
s(lp2171
(g250
I36
tp2172
atp2173
a(S'zahtevam'
p2174
(dp2175
S'VERB'
p2176
F0.651293
sS'NOUN'
p2177
F0.348707
s(lp2178
(g270
I34
tp2179
atp2180
a(g220
(dp2181
g127
F1.0
s(lp2182
(g125
I31
tp2183
atp2184
a(S'da'
p2185
(dp2186
S'PRT'
p2187
F2.3e-05
sS'CONJ'
p2188
F0.999653
sS'VERB'
p2189
F0.000323
sg234
F1e-06
s(lp2190
(g279
I37
tp2191
atp2192
a(S'proces'
p2193
(dp2194
S'NOUN'
p2195
F1.0
s(lp2196
(g294
I40
tp2197
atp2198
a(S'ratifikacije'
p2199
(dp2200
S'NOUN'
p2201
F1.0
s(lp2202
(g306
I39
tp2203
atp2204
a(S'poteka'
p2205
(dp2206
S'VERB'
p2207
F1.0
s(lp2208
(g327
I43
tp2209
atp2210
a(g813
(dp2211
S'VERB'
p2212
F0.0
sS'NOUN'
p2213
F3e-06
sS'ADP'
p2214
F0.999997
s(lp2215
(g336
I44
tp2216
atp2217
a(S'stalnim'
p2218
(dp2219
S'ADJ'
p2220
F1.0
s(lp2221
(g351
I45
tp2222
atp2223
a(S'tempom'
p2224
(dp2225
S'NOUN'
p2226
F1.0
s(lp2227
(g344
I46
tp2228
atp2229
a(g127
(dp2230
g127
F1.0
s(lp2231
(g127
I47
tp2232
atp2233
asS'es'
p2234
(lp2235
(S'en'
p2236
(dp2237
g234
F0.002093
sS'CONJ'
p2238
F4.7e-05
sS'ADP'
p2239
F0.99786
s(lp2240
(g7
I0
tp2241
atp2242
a(S'v\xc3\xadsperas'
p2243
(dp2244
S'NOUN'
p2245
F1.0
s(lp2246
(g24
I2
tp2247
atp2248
a(S'de'
p2249
(dp2250
g234
F0.000289
sS'CONJ'
p2251
F0.000791
sS'ADP'
p2252
F0.99892
s(lp2253
(g31
I3
tp2254
atp2255
a(S'nuestro'
p2256
(dp2257
S'PRON'
p2258
F0.041392
sS'ADJ'
p2259
F0.958608
s(lp2260
(g38
I4
tp2261
atp2262
a(S'debate'
p2263
(dp2264
S'VERB'
p2265
F1.0
s(lp2266
(g46
I5
tp2267
atp2268
a(S'sobre'
p2269
(dp2270
S'NOUN'
p2271
F0.0
sS'ADP'
p2272
F1.0
s(lp2273
(g53
I6
tp2274
atp2275
a(S'el'
p2276
(dp2277
S'PRON'
p2278
F4.6e-05
sS'DET'
p2279
F0.999954
s(lp2280
(g61
I7
tp2281
atp2282
a(S'tratado'
p2283
(dp2284
S'VERB'
p2285
F0.729666
sS'NOUN'
p2286
F0.270334
s(lp2287
(g69
I8
tp2288
atp2289
a(S'y'
p2290
(dp2291
g234
F0.000308
sS'CONJ'
p2292
F0.999692
s(lp2293
(g76
I9
tp2294
atp2295
a(S'sobre'
p2296
(dp2297
S'NOUN'
p2298
F0.0
sS'ADP'
p2299
F1.0
s(lp2300
(g53
I6
tp2301
atp2302
a(S'el'
p2303
(dp2304
S'PRON'
p2305
F5e-06
sS'DET'
p2306
F0.999995
s(lp2307
(g83
I10
tp2308
atp2309
a(S'proceso'
p2310
(dp2311
S'NOUN'
p2312
F1.0
s(lp2313
(g91
I12
tp2314
atp2315
a(S'democr\xc3\xa1tico'
p2316
(dp2317
S'ADJ'
p2318
F1.0
s(lp2319
(g98
I11
tp2320
atp2321
a(S'que'
p2322
(dp2323
g234
F1e-06
sS'CONJ'
p2324
F0.999999
s(lp2325
(g439
I13
tp2326
atp2327
a(S'implica'
p2328
(dp2329
S'VERB'
p2330
F1.0
s(lp2331
(g445
I14
tp2332
atp2333
a(S'para'
p2334
(dp2335
S'CONJ'
p2336
F0.001004
sS'ADP'
p2337
F0.998996
s(lp2338
(g106
I15
tp2339
atp2340
a(S'la'
p2341
(dp2342
g234
F0.0
sS'PRON'
p2343
F0.0
sS'DET'
p2344
F0.999999
sS'NOUN'
p2345
F0.0
s(lp2346
(g115
I16
tp2347
atp2348
a(S'uni\xc3\xb3n'
p2349
(dp2350
S'NOUN'
p2351
F1.0
s(lp2352
(g122
I17
tp2353
atp2354
a(g125
(dp2355
g127
F1.0
s(lp2356
(g125
I18
tp2357
atp2358
a(g2290
(dp2359
g234
F0.190728
sS'CONJ'
p2360
F0.809272
s(lp2361
(g135
I19
tp2362
atp2363
a(S'hablo'
p2364
(dp2365
S'VERB'
p2366
F1.0
s(lp2367
(g149
I21
tp2368
atp2369
a(S'aqu\xc3\xad'
p2370
(dp2371
S'ADV'
p2372
F1.0
s(lp2373
(g156
I22
tp2374
atp2375
a(S'en'
p2376
(dp2377
g234
F1e-06
sS'CONJ'
p2378
F6.5e-05
sS'ADP'
p2379
F0.999934
s(lp2380
(g163
I23
tp2381
atp2382
a(S'nombre'
p2383
(dp2384
S'NOUN'
p2385
F1.0
s(lp2386
(g170
I24
tp2387
atp2388
a(S'de'
p2389
(dp2390
g234
F0.0
sS'CONJ'
p2391
F0.000289
sS'ADP'
p2392
F0.999711
s(lp2393
(g178
I25
tp2394
atp2395
a(S'mis'
p2396
(dp2397
S'PRON'
p2398
F1.0
s(lp2399
(g257
I26
tp2400
atp2401
a(S'compa\xc3\xb1eros'
p2402
(dp2403
S'NOUN'
p2404
F1.0
s(lp2405
(g517
I27
tp2406
atp2407
a(S'diputados'
p2408
(dp2409
S'VERB'
p2410
F0.925915
sS'NOUN'
p2411
F0.074085
s(lp2412
(g186
I30
tp2413
atp2414
a(S'en'
p2415
(dp2416
g234
F0.0
sS'CONJ'
p2417
F0.0
sS'ADP'
p2418
F1.0
s(lp2419
tp2420
a(S'el'
p2421
(dp2422
S'PRON'
p2423
F5e-06
sS'DET'
p2424
F0.999995
s(lp2425
(g53
I6
tp2426
atp2427
a(S'grupo'
p2428
(dp2429
S'NOUN'
p2430
F1.0
s(lp2431
(g213
I29
tp2432
atp2433
a(S'del'
p2434
(dp2435
S'ADP'
p2436
F1.0
s(lp2437
tp2438
a(S'ppe'
p2439
(dp2440
S'VERB'
p2441
F5e-06
sS'NOUN'
p2442
F0.999995
s(lp2443
(g195
I28
tp2444
atp2445
a(g125
(dp2446
g127
F1.0
s(lp2447
(g125
I31
tp2448
atp2449
a(S'debo'
p2450
(dp2451
S'VERB'
p2452
F1.0
s(lp2453
(g236
I33
tp2454
atp2455
a(S'insistir'
p2456
(dp2457
S'VERB'
p2458
F1.0
s(lp2459
(g270
I34
tp2460
atp2461
a(S'una'
p2462
(dp2463
S'DET'
p2464
F1.0
s(lp2465
tp2466
a(S'vez'
p2467
(dp2468
S'NOUN'
p2469
F1.0
s(lp2470
(g243
I35
tp2471
atp2472
a(S'm\xc3\xa1s'
p2473
(dp2474
S'ADV'
p2475
F0.999994
sS'CONJ'
p2476
F6e-06
s(lp2477
(g250
I36
tp2478
atp2479
a(S'en'
p2480
(dp2481
g234
F0.0
sS'CONJ'
p2482
F0.00082
sS'ADP'
p2483
F0.99918
s(lp2484
(g327
I43
tp2485
atp2486
a(S'que'
p2487
(dp2488
g234
F2e-06
sS'CONJ'
p2489
F0.999998
s(lp2490
(g279
I37
tp2491
atp2492
a(S'se'
p2493
(dp2494
S'PRON'
p2495
F1.0
sS'VERB'
p2496
F0.0
s(lp2497
(g313
I41
tp2498
atp2499
a(S'lleve'
p2500
(dp2501
S'VERB'
p2502
F1.0
s(lp2503
tp2504
a(g336
(dp2505
g234
F0.0002
sS'CONJ'
p2506
F0.000108
sS'ADP'
p2507
F0.999691
s(lp2508
tp2509
a(S'cabo'
p2510
(dp2511
S'NOUN'
p2512
F1.0
s(lp2513
(g320
I42
tp2514
atp2515
a(S'el'
p2516
(dp2517
S'PRON'
p2518
F1.2e-05
sS'DET'
p2519
F0.999988
s(lp2520
(g287
I38
tp2521
atp2522
a(S'proceso'
p2523
(dp2524
S'NOUN'
p2525
F1.0
s(lp2526
(g294
I40
tp2527
atp2528
a(S'de'
p2529
(dp2530
g234
F2.9e-05
sS'CONJ'
p2531
F0.000449
sS'ADP'
p2532
F0.999522
s(lp2533
tp2534
a(S'ratificaci\xc3\xb3n'
p2535
(dp2536
S'NOUN'
p2537
F1.0
s(lp2538
(g306
I39
tp2539
atp2540
a(S'de'
p2541
(dp2542
g234
F3.1e-05
sS'CONJ'
p2543
F0.00045
sS'ADP'
p2544
F0.999518
s(lp2545
tp2546
a(S'forma'
p2547
(dp2548
S'VERB'
p2549
F0.000142
sS'NOUN'
p2550
F0.999858
s(lp2551
(g336
I44
tp2552
atp2553
a(S'r\xc3\xa1pida'
p2554
(dp2555
S'ADJ'
p2556
F1.0
s(lp2557
(g351
I45
tp2558
atp2559
a(g127
(dp2560
g127
F1.0
s(lp2561
(g127
I47
tp2562
atp2563
as.