(dp0
S'fr'
p1
(lp2
(S'sans'
p3
(dp4
S'CONJ'
p5
F0.02385
sS'ADP'
p6
F0.97615
s(lp7
(S'without'
p8
I0
tp9
atp10
a(S'le'
p11
(dp12
S'PRON'
p13
F0.000215
sS'DET'
p14
F0.999785
s(lp15
(S'a'
p16
I1
tp17
atp18
a(S'droit'
p19
(dp20
S'ADV'
p21
F0.001679
sS'ADJ'
p22
F0.059996
sS'NOUN'
p23
F0.938325
s(lp24
(S'right'
p25
I2
tp26
atp27
a(S'\xc3\xa0'
p28
(dp29
S'ADP'
p30
F1.0
s(lp31
(S'to'
p32
I3
tp33
atp34
a(S"l'"
p35
(dp36
S'ADJ'
p37
F0.160704
sS'VERB'
p38
F0.06480800000000002
sS'NOUN'
p39
F0.774488
s(lp40
tp41
a(S'\xc3\xa9ducation'
p42
(dp43
S'NOUN'
p44
F1.0
s(lp45
(S'education'
p46
I4
tp47
atp48
a(S','
p49
(dp50
S'.'
p51
F1.0
s(lp52
(S'there'
p53
I5
tp54
atp55
a(S'il'
p56
(dp57
S'PRON'
p58
F1.0
s(lp59
tp60
a(S"n'"
p61
(dp62
S'ADJ'
p63
F0.000625
sS'VERB'
p64
F0.9973000000000002
sS'NOUN'
p65
F0.002077
s(lp66
tp67
a(S'existe'
p68
(dp69
S'VERB'
p70
F1.0
s(lp71
(g53
I5
tp72
atp73
a(S'aucune'
p74
(dp75
S'PRON'
p76
F1.0
s(lp77
(S'no'
p78
I7
tp79
atp80
a(S'garantie'
p81
(dp82
S'VERB'
p83
F0.001418
sS'NOUN'
p84
F0.998582
s(lp85
(S'guarantee'
p86
I8
tp87
atp88
a(S"d'"
p89
(dp90
S'NOUN'
p91
F0.03305
sS'VERB'
p92
F0.6935310000000001
sS'ADJ'
p93
F0.273419
s(lp94
(S'of'
p95
I9
tp96
atp97
a(S'\xc3\xa9galit\xc3\xa9'
p98
(dp99
S'NOUN'
p100
F1.0
s(lp101
(S'equal'
p102
I10
tp103
atp104
a(S'de'
p105
(dp106
S'ADP'
p107
F1.0
s(lp108
tp109
a(S'traitement'
p110
(dp111
S'NOUN'
p112
F1.0
s(lp113
(S'treatment'
p114
I11
tp115
atp116
a(S'et'
p117
(dp118
S'CONJ'
p119
F1.0
s(lp120
(S'and'
p121
I12
tp122
atp123
a(g49
(dp124
g51
F1.0
s(lp125
(g49
I13
tp126
atp127
a(S'surtout'
p128
(dp129
S'ADV'
p130
F0.950308
sS'NOUN'
p131
F0.049692
s(lp132
(S'above'
p133
I14
tp134
atp135
a(g49
(dp136
g51
F1.0
s(lp137
(g49
I16
tp138
atp139
a(S'aucun'
p140
(dp141
S'PRON'
p142
F1.0
s(lp143
(S'no'
p144
I17
tp145
atp146
a(S'droit'
p147
(dp148
S'ADV'
p149
F0.00133
sS'ADJ'
p150
F0.047659
sS'NOUN'
p151
F0.951011
s(lp152
(S'right'
p153
I18
tp154
atp155
a(S'\xc3\xa0'
p156
(dp157
S'ADP'
p158
F1.0
s(lp159
(S'to'
p160
I19
tp161
atp162
a(S'un'
p163
(dp164
S'NOUN'
p165
F7.4e-05
sS'NUM'
p166
F0.028682
sS'DET'
p167
F0.971244
s(lp168
(g16
I20
tp169
atp170
a(S'avenir'
p171
(dp172
S'NOUN'
p173
F1.0
s(lp174
(S'future'
p175
I21
tp176
atp177
a(g51
(dp178
g51
F1.0
s(lp179
(g51
I22
tp180
atp181
asS'en'
p182
(lp183
(g8
(dp184
S'ADP'
p185
F1.0
s(lp186
(g8
I0
tp187
atp188
a(g16
(dp189
S'NOUN'
p190
F0.0
sS'DET'
p191
F1.0
s(lp192
(g16
I1
tp193
atp194
a(g25
(dp195
S'ADV'
p196
F0.028373
sS'ADJ'
p197
F0.18808
sS'VERB'
p198
F1.6e-05
sS'NOUN'
p199
F0.783531
s(lp200
(g25
I2
tp201
atp202
a(g32
(dp203
S'ADV'
p204
F0.0
sS'PRT'
p205
F0.999988
sS'ADP'
p206
F1.1e-05
s(lp207
(g32
I3
tp208
atp209
a(g46
(dp210
S'NOUN'
p211
F1.0
s(lp212
(g46
I4
tp213
atp214
a(g53
(dp215
S'ADV'
p216
F0.005147
sS'ADJ'
p217
F0.0
sS'DET'
p218
F0.994851
sS'ADP'
p219
F2e-06
s(lp220
(g53
I5
tp221
atp222
a(S'is'
p223
(dp224
S'VERB'
p225
F1.0
s(lp226
(g223
I6
tp227
atp228
a(g78
(dp229
S'ADV'
p230
F0.046413
sS'X'
p231
F0.000604
sS'DET'
p232
F0.952977
sS'NOUN'
p233
F5e-06
s(lp234
(g78
I7
tp235
atp236
a(g86
(dp237
S'VERB'
p238
F0.025216000000000002
sS'NOUN'
p239
F0.974784
s(lp240
(g86
I8
tp241
atp242
a(g95
(dp243
S'ADP'
p244
F1.0
s(lp245
(g95
I9
tp246
atp247
a(g102
(dp248
S'VERB'
p249
F0.00012099999999999999
sS'ADJ'
p250
F0.999879
s(lp251
(g102
I10
tp252
atp253
a(g114
(dp254
S'NOUN'
p255
F1.0
s(lp256
(g114
I11
tp257
atp258
a(g121
(dp259
S'CONJ'
p260
F0.999994
sS'NOUN'
p261
F6e-06
s(lp262
(g121
I12
tp263
atp264
a(g49
(dp265
g51
F1.0
s(lp266
(g49
I13
tp267
atp268
a(g133
(dp269
S'ADV'
p270
F0.111012
sS'ADJ'
p271
F0.001609
sS'ADP'
p272
F0.887379
s(lp273
(g133
I14
tp274
atp275
a(S'all'
p276
(dp277
S'ADV'
p278
F0.344099
sS'DET'
p279
F0.6559010000000001
s(lp280
(g276
I15
tp281
atp282
a(g49
(dp283
g51
F1.0
s(lp284
(g49
I16
tp285
atp286
a(g144
(dp287
S'ADV'
p288
F0.108516
sg231
F0.006911
sS'DET'
p289
F0.884566
sS'NOUN'
p290
F7e-06
s(lp291
(g144
I17
tp292
atp293
a(g153
(dp294
S'ADV'
p295
F0.102677
sS'ADJ'
p296
F0.190495
sS'VERB'
p297
F0.000169
sS'NOUN'
p298
F0.706659
s(lp299
(g153
I18
tp300
atp301
a(g160
(dp302
S'ADV'
p303
F1e-06
sS'PRT'
p304
F0.999989
sS'ADP'
p305
F1e-05
s(lp306
(g160
I19
tp307
atp308
a(g16
(dp309
S'NOUN'
p310
F0.0
sS'DET'
p311
F1.0
s(lp312
(g16
I20
tp313
atp314
a(g175
(dp315
S'ADJ'
p316
F0.247625
sS'NOUN'
p317
F0.752375
s(lp318
(g175
I21
tp319
atp320
a(g51
(dp321
g51
F1.0
s(lp322
(g51
I22
tp323
atp324
asS'nl'
p325
(lp326
(S'zonder'
p327
(dp328
S'CONJ'
p329
F0.000842
sS'ADP'
p330
F0.999158
s(lp331
(g8
I0
tp332
atp333
a(S'recht'
p334
(dp335
S'ADJ'
p336
F1.1e-05
sS'VERB'
p337
F0.0
sS'NOUN'
p338
F0.999989
s(lp339
(g25
I2
tp340
atp341
a(S'op'
p342
(dp343
S'ADV'
p344
F0.001805
sS'ADJ'
p345
F2e-06
sS'ADP'
p346
F0.998194
s(lp347
(g32
I3
tp348
atp349
a(S'onderwijs'
p350
(dp351
S'VERB'
p352
F0.0
sS'NOUN'
p353
F1.0
s(lp354
(g46
I4
tp355
atp356
a(S'is'
p357
(dp358
S'VERB'
p359
F1.0
s(lp360
(g223
I6
tp361
atp362
a(S'er'
p363
(dp364
S'ADV'
p365
F1.0
s(lp366
(g53
I5
tp367
atp368
a(S'geen'
p369
(dp370
S'PRON'
p371
F0.9999129999999999
sS'DET'
p372
F8.7e-05
s(lp373
(g78
I7
tp374
atp375
a(S'garantie'
p376
(dp377
S'NOUN'
p378
F1.0
s(lp379
(g86
I8
tp380
atp381
a(S'voor'
p382
(dp383
S'ADV'
p384
F0.026654
sS'CONJ'
p385
F3e-06
sS'NOUN'
p386
F0.0
sS'ADP'
p387
F0.973344
s(lp388
(g95
I9
tp389
atp390
a(S'gelijke'
p391
(dp392
S'NOUN'
p393
F0.000202
sS'ADJ'
p394
F0.999798
s(lp395
(g102
I10
tp396
atp397
a(S'behandeling'
p398
(dp399
S'NOUN'
p400
F1.0
s(lp401
(g114
I11
tp402
atp403
a(S'en'
p404
(dp405
S'CONJ'
p406
F1.0
s(lp407
(g121
I12
tp408
atp409
a(S'zijn'
p410
(dp411
S'PRON'
p412
F0.000419
sS'VERB'
p413
F0.9980530000000001
sS'NOUN'
p414
F0.001528
s(lp415
tp416
a(S'er'
p417
(dp418
S'ADV'
p419
F1.0
s(lp420
(g49
I13
tp421
atp422
a(S'vooral'
p423
(dp424
S'ADV'
p425
F1.0
s(lp426
(g133
I14
tp427
atp428
a(S'geen'
p429
(dp430
S'PRON'
p431
F0.999993
sS'DET'
p432
F7e-06
s(lp433
(g144
I17
tp434
atp435
a(S'toekomstmogelijkheden'
p436
(dp437
S'NOUN'
p438
F1.0
s(lp439
(g175
I21
tp440
atp441
a(g51
(dp442
g51
F1.0
s(lp443
(g51
I22
tp444
atp445
asS'de'
p446
(lp447
(S'ohne'
p448
(dp449
S'CONJ'
p450
F0.066261
sS'ADP'
p451
F0.933739
s(lp452
(g8
I0
tp453
atp454
a(S'das'
p455
(dp456
S'PRON'
p457
F0.181658
sS'DET'
p458
F0.81426
s(lp459
(g16
I1
tp460
atp461
a(S'recht'
p462
(dp463
S'VERB'
p464
F0.004484
sS'ADJ'
p465
F0.995495
s(lp466
(g25
I2
tp467
atp468
a(S'auf'
p469
(dp470
S'PRT'
p471
F0.005836
sS'ADP'
p472
F0.994118
s(lp473
(g32
I3
tp474
atp475
a(S'bildung'
p476
(dp477
S'ADJ'
p478
F0.066594
sS'NOUN'
p479
F0.908121
s(lp480
(g46
I4
tp481
atp482
a(S'gibt'
p483
(dp484
S'VERB'
p485
F1.0
s(lp486
tp487
a(S'es'
p488
(dp489
S'PRON'
p490
F1.0
s(lp491
(g53
I5
tp492
atp493
a(S'keine'
p494
(dp495
S'PRON'
p496
F1.0
s(lp497
(g78
I7
tp498
atp499
a(S'garantie'
p500
(dp501
S'ADJ'
p502
F8.3e-05
sS'NOUN'
p503
F0.999841
s(lp504
(g86
I8
tp505
atp506
a(S'f\xc3\xbcr'
p507
(dp508
S'ADP'
p509
F1.0
s(lp510
(g95
I9
tp511
atp512
a(S'gleichbehandlung'
p513
(dp514
S'ADJ'
p515
F0.002553
sS'NOUN'
p516
F0.996961
s(lp517
(g114
I11
tp518
atp519
a(S'und'
p520
(dp521
S'CONJ'
p522
F1.0
s(lp523
(g121
I12
tp524
atp525
a(S'vor'
p526
(dp527
S'ADV'
p528
F0.073893
sS'ADP'
p529
F0.926106
s(lp530
tp531
a(S'allem'
p532
(dp533
S'PRON'
p534
F1.0
s(lp535
(g133
I14
tp536
atp537
a(S'kein'
p538
(dp539
S'PRON'
p540
F1.0
s(lp541
(g144
I17
tp542
atp543
a(S'recht'
p544
(dp545
S'VERB'
p546
F0.001794
sS'ADJ'
p547
F0.99806
s(lp548
(g153
I18
tp549
atp550
a(S'auf'
p551
(dp552
S'PRT'
p553
F0.011365
sS'ADP'
p554
F0.988243
s(lp555
(g160
I19
tp556
atp557
a(S'zukunft'
p558
(dp559
S'NOUN'
p560
F0.29841
sS'ADJ'
p561
F0.698585
s(lp562
(g175
I21
tp563
atp564
a(g51
(dp565
g51
F1.0
s(lp566
(g51
I22
tp567
atp568
asS'it'
p569
(lp570
(S'senza'
p571
(dp572
S'CONJ'
p573
F0.045127
sS'ADP'
p574
F0.954873
s(lp575
(g8
I0
tp576
atp577
a(S'diritto'
p578
(dp579
S'ADJ'
p580
F0.028631
sS'NOUN'
p581
F0.971369
s(lp582
(g25
I2
tp583
atp584
a(S'allo'
p585
(dp586
g231
F0.0
sS'ADP'
p587
F1.0
s(lp588
(g32
I3
tp589
atp590
a(S'studio'
p591
(dp592
S'VERB'
p593
F0.000369
sS'NOUN'
p594
F0.999631
s(lp595
(g46
I4
tp596
atp597
a(S'non'
p598
(dp599
S'ADV'
p600
F1.0
s(lp601
(g78
I7
tp602
atp603
a(S"c'"
p604
(dp605
S'NOUN'
p606
F1.0
s(lp607
(g53
I5
tp608
atp609
a(S'\xc3\xa8'
p610
(dp611
S'VERB'
p612
F1.0
s(lp613
(g223
I6
tp614
atp615
a(S'garanzia'
p616
(dp617
S'NOUN'
p618
F1.0
s(lp619
(g86
I8
tp620
atp621
a(S'di'
p622
(dp623
S'CONJ'
p624
F4e-06
sS'ADP'
p625
F0.999996
s(lp626
(g95
I9
tp627
atp628
a(S'parit\xc3\xa0'
p629
(dp630
S'NOUN'
p631
F1.0
s(lp632
(g102
I10
tp633
atp634
a(S'di'
p635
(dp636
S'CONJ'
p637
F4e-06
sS'ADP'
p638
F0.999996
s(lp639
tp640
a(S'trattamento'
p641
(dp642
S'NOUN'
p643
F1.0
s(lp644
(g114
I11
tp645
atp646
a(S'e'
p647
(dp648
S'CONJ'
p649
F1.0
s(lp650
(g121
I12
tp651
atp652
a(S'soprattutto'
p653
(dp654
S'ADV'
p655
F1.0
s(lp656
(g133
I14
tp657
atp658
a(S'non'
p659
(dp660
S'ADV'
p661
F1.0
s(lp662
tp663
a(S"c'"
p664
(dp665
S'NOUN'
p666
F1.0
s(lp667
(g144
I17
tp668
atp669
a(S'\xc3\xa8'
p670
(dp671
S'VERB'
p672
F1.0
s(lp673
tp674
a(S'diritto'
p675
(dp676
S'ADJ'
p677
F0.148555
sS'NOUN'
p678
F0.851445
s(lp679
(g153
I18
tp680
atp681
a(S'al'
p682
(dp683
S'ADP'
p684
F1.0
s(lp685
(g160
I19
tp686
atp687
a(S'futuro'
p688
(dp689
S'ADJ'
p690
F0.162861
sS'NOUN'
p691
F0.837139
s(lp692
(g175
I21
tp693
atp694
a(g51
(dp695
g51
F1.0
s(lp696
(g51
I22
tp697
atp698
asS'sk'
p699
(lp700
(S'bez'
p701
(dp702
g231
F0.000456
sS'ADP'
p703
F0.999544
s(lp704
(g8
I0
tp705
atp706
a(S'pr\xc3\xa1va'
p707
(dp708
S'VERB'
p709
F1e-06
sS'NOUN'
p710
F1.0
s(lp711
(g25
I2
tp712
atp713
a(S'na'
p714
(dp715
g231
F0.000126
sS'CONJ'
p716
F1.6e-05
sS'ADP'
p717
F0.999855
sS'PRT'
p718
F3e-06
s(lp719
(g32
I3
tp720
atp721
a(S'vzdelanie'
p722
(dp723
S'NOUN'
p724
F1.0
s(lp725
(g46
I4
tp726
atp727
a(S'neexistuje'
p728
(dp729
S'VERB'
p730
F1.0
s(lp731
(g78
I7
tp732
atp733
a(S'z\xc3\xa1ruka'
p734
(dp735
S'NOUN'
p736
F1.0
s(lp737
(g86
I8
tp738
atp739
a(S'rovnak\xc3\xa9ho'
p740
(dp741
S'ADJ'
p742
F1.0
s(lp743
(g102
I10
tp744
atp745
a(S'zaobch\xc3\xa1dzania'
p746
(dp747
S'NOUN'
p748
F1.0
s(lp749
(g114
I11
tp750
atp751
a(g16
(dp752
g231
F0.001291
sS'CONJ'
p753
F0.998535
sS'NOUN'
p754
F4e-05
sS'ADP'
p755
F7e-06
sS'PRT'
p756
F0.000127
s(lp757
(g121
I12
tp758
atp759
a(S'predov\xc5\xa1etk\xc3\xbdm'
p760
(dp761
g231
F1.0
s(lp762
(g133
I14
tp763
atp764
a(S'ani'
p765
(dp766
g231
F0.936929
sS'CONJ'
p767
F0.063071
s(lp768
(g144
I17
tp769
atp770
a(S'pr\xc3\xa1vo'
p771
(dp772
S'NOUN'
p773
F1.0
s(lp774
(g153
I18
tp775
atp776
a(S'na'
p777
(dp778
g231
F0.000156
sS'CONJ'
p779
F1.5e-05
sS'ADP'
p780
F0.999826
sS'PRT'
p781
F3e-06
s(lp782
(g160
I19
tp783
atp784
a(S'bud\xc3\xbacnos\xc5\xa5'
p785
(dp786
S'NOUN'
p787
F1.0
s(lp788
(g175
I21
tp789
atp790
a(g51
(dp791
g51
F1.0
s(lp792
(g51
I22
tp793
atp794
asS'pl'
p795
(lp796
(S'bez'
p797
(dp798
S'NOUN'
p799
F0.000665
sS'ADP'
p800
F0.999335
s(lp801
(g8
I0
tp802
atp803
a(S'prawa'
p804
(dp805
S'ADJ'
p806
F0.015452
sS'NOUN'
p807
F0.984548
s(lp808
(g25
I2
tp809
atp810
a(S'do'
p811
(dp812
g231
F0.0
sS'NOUN'
p813
F2e-06
sS'ADP'
p814
F0.999997
s(lp815
(g32
I3
tp816
atp817
a(S'edukacji'
p818
(dp819
S'NOUN'
p820
F1.0
s(lp821
(g46
I4
tp822
atp823
a(S'nie'
p824
(dp825
S'ADV'
p826
F2.7e-05
sS'PRT'
p827
F0.951038
sS'CONJ'
p828
F0.048908
sS'NOUN'
p829
F3e-06
sS'PRON'
p830
F2.4e-05
s(lp831
(g78
I7
tp832
atp833
a(S'maj\xc4\x85'
p834
(dp835
S'VERB'
p836
F1.0
s(lp837
(g223
I6
tp838
atp839
a(S'one'
p840
(dp841
S'PRON'
p842
F0.999679
sS'ADJ'
p843
F0.000263
sg231
F0.0
sS'NOUN'
p844
F5.9e-05
s(lp845
(g53
I5
tp846
atp847
a(S'gwarancji'
p848
(dp849
S'NOUN'
p850
F1.0
s(lp851
(g86
I8
tp852
atp853
a(S'r\xc3\xb3wnego'
p854
(dp855
S'ADJ'
p856
F1.0
s(lp857
(g102
I10
tp858
atp859
a(S'traktowania'
p860
(dp861
S'VERB'
p862
F0.554161
sS'NOUN'
p863
F0.445839
s(lp864
(g114
I11
tp865
atp866
a(g49
(dp867
g231
F0.0
sg51
F1.0
s(lp868
(g49
I13
tp869
atp870
a(g16
(dp871
S'ADV'
p872
F0.000217
sS'NOUN'
p873
F0.001596
sS'ADP'
p874
F8e-06
sS'PRT'
p875
F0.000717
sS'VERB'
p876
F0.000176
sg231
F0.0005380000000000001
sS'CONJ'
p877
F0.99672
sS'ADJ'
p878
F2.7000000000000002e-05
s(lp879
(g121
I12
tp880
atp881
a(S'przede'
p882
(dp883
S'ADP'
p884
F1.0
s(lp885
(g133
I14
tp886
atp887
a(S'wszystkim'
p888
(dp889
S'ADJ'
p890
F0.0006810000000000001
sS'NOUN'
p891
F0.9993190000000001
s(lp892
(g276
I15
tp893
atp894
a(S'nie'
p895
(dp896
S'ADV'
p897
F3.5e-05
sS'PRT'
p898
F0.982131
sS'CONJ'
p899
F0.017699
sS'NOUN'
p900
F1.1e-05
sS'PRON'
p901
F0.000125
s(lp902
tp903
a(S'maj\xc4\x85'
p904
(dp905
S'VERB'
p906
F1.0
s(lp907
tp908
a(S'prawa'
p909
(dp910
S'ADJ'
p911
F0.0005319999999999999
sS'NOUN'
p912
F0.999468
s(lp913
(g153
I18
tp914
atp915
a(S'do'
p916
(dp917
g231
F0.0
sS'NOUN'
p918
F1e-06
sS'ADP'
p919
F0.9999990000000001
s(lp920
(g160
I19
tp921
atp922
a(S'jakiejkolwiek'
p923
(dp924
S'ADJ'
p925
F1.0
s(lp926
(g144
I17
tp927
atp928
a(S'przysz\xc5\x82o\xc5\x9bci'
p929
(dp930
S'NOUN'
p931
F1.0
s(lp932
(g175
I21
tp933
atp934
a(g51
(dp935
g51
F1.0
s(lp936
(g51
I22
tp937
atp938
asS'sl'
p939
(lp940
(S'brez'
p941
(dp942
S'ADP'
p943
F1.0
s(lp944
(g8
I0
tp945
atp946
a(S'pravice'
p947
(dp948
S'NOUN'
p949
F0.9999999999999999
s(lp950
tp951
a(S'do'
p952
(dp953
g231
F1.1e-05
sS'ADP'
p954
F0.999989
s(lp955
(g25
I2
tp956
atp957
a(S'izobra\xc5\xbeevanja'
p958
(dp959
S'NOUN'
p960
F1.0
s(lp961
(g46
I4
tp962
atp963
a(S'ni'
p964
(dp965
S'VERB'
p966
F1.0
s(lp967
tp968
a(S'mogo\xc4\x8de'
p969
(dp970
S'ADV'
p971
F0.00573
sS'ADJ'
p972
F0.994271
s(lp973
(g78
I7
tp974
atp975
a(S'zagotoviti'
p976
(dp977
S'VERB'
p978
F1.0
s(lp979
(g86
I8
tp980
atp981
a(S'enakega'
p982
(dp983
S'PRON'
p984
F1.0
s(lp985
(g102
I10
tp986
atp987
a(S'obravnavanja'
p988
(dp989
S'NOUN'
p990
F1.0
s(lp991
(g114
I11
tp992
atp993
a(S'in'
p994
(dp995
S'ADV'
p996
F4.9e-05
sg231
F4e-06
sS'CONJ'
p997
F0.999944
sS'NOUN'
p998
F3e-06
s(lp999
(g121
I12
tp1000
atp1001
a(S'zlasti'
p1002
(dp1003
S'ADV'
p1004
F0.00639
sS'PRT'
p1005
F0.99361
s(lp1006
(g133
I14
tp1007
atp1008
a(S'pravice'
p1009
(dp1010
S'NOUN'
p1011
F1.0
s(lp1012
tp1013
a(S'do'
p1014
(dp1015
g231
F2.3e-05
sS'ADP'
p1016
F0.999977
s(lp1017
(g153
I18
tp1018
atp1019
a(S'prihodnosti'
p1020
(dp1021
S'NOUN'
p1022
F1.0
s(lp1023
(g175
I21
tp1024
atp1025
a(g51
(dp1026
g51
F1.0
s(lp1027
(g51
I22
tp1028
atp1029
asS'es'
p1030
(lp1031
(S'sin'
p1032
(dp1033
S'ADP'
p1034
F1.0
s(lp1035
(g8
I0
tp1036
atp1037
a(S'derecho'
p1038
(dp1039
S'ADV'
p1040
F0.018387
sS'ADJ'
p1041
F0.091312
sS'NOUN'
p1042
F0.890302
s(lp1043
(g25
I2
tp1044
atp1045
a(g16
(dp1046
g231
F0.000475
sS'CONJ'
p1047
F4e-06
sS'ADP'
p1048
F0.999521
s(lp1049
(g32
I3
tp1050
atp1051
a(S'la'
p1052
(dp1053
g231
F0.0
sS'PRON'
p1054
F0.0
sS'DET'
p1055
F0.999999
sS'NOUN'
p1056
F0.0
s(lp1057
tp1058
a(S'educaci\xc3\xb3n'
p1059
(dp1060
S'NOUN'
p1061
F1.0
s(lp1062
(g46
I4
tp1063
atp1064
a(S'no'
p1065
(dp1066
S'ADV'
p1067
F0.999922
sg231
F7.8e-05
s(lp1068
(g78
I7
tp1069
atp1070
a(S'existen'
p1071
(dp1072
S'VERB'
p1073
F1.0
s(lp1074
(g53
I5
tp1075
atp1076
a(S'garant\xc3\xadas'
p1077
(dp1078
S'VERB'
p1079
F0.004225
sS'NOUN'
p1080
F0.995775
s(lp1081
(g86
I8
tp1082
atp1083
a(S'de'
p1084
(dp1085
g231
F2.9e-05
sS'CONJ'
p1086
F0.00045
sS'ADP'
p1087
F0.999521
s(lp1088
(g95
I9
tp1089
atp1090
a(S'igualdad'
p1091
(dp1092
S'NOUN'
p1093
F1.0
s(lp1094
(g102
I10
tp1095
atp1096
a(S'de'
p1097
(dp1098
g231
F5e-05
sS'CONJ'
p1099
F0.000456
sS'ADP'
p1100
F0.999494
s(lp1101
tp1102
a(S'trato'
p1103
(dp1104
S'VERB'
p1105
F0.001162
sS'NOUN'
p1106
F0.998838
s(lp1107
(g114
I11
tp1108
atp1109
a(S'y'
p1110
(dp1111
g231
F0.008961
sS'CONJ'
p1112
F0.991039
s(lp1113
(g121
I12
tp1114
atp1115
a(g49
(dp1116
g51
F1.0
s(lp1117
(g49
I13
tp1118
atp1119
a(S'por'
p1120
(dp1121
S'ADP'
p1122
F1.0
s(lp1123
tp1124
a(S'encima'
p1125
(dp1126
S'ADP'
p1127
F1.0
s(lp1128
(g133
I14
tp1129
atp1130
a(S'de'
p1131
(dp1132
S'ADP'
p1133
F1.0
s(lp1134
tp1135
a(S'todo'
p1136
(dp1137
S'ADJ'
p1138
F1.0
s(lp1139
(g276
I15
tp1140
atp1141
a(g49
(dp1142
g51
F1.0
s(lp1143
(g49
I16
tp1144
atp1145
a(S'no'
p1146
(dp1147
S'ADV'
p1148
F0.999956
sg231
F4.4e-05
s(lp1149
tp1150
a(S'existe'
p1151
(dp1152
S'VERB'
p1153
F1.0
s(lp1154
(g144
I17
tp1155
atp1156
a(S'el'
p1157
(dp1158
S'PRON'
p1159
F8e-06
sS'DET'
p1160
F0.999992
s(lp1161
tp1162
a(S'derecho'
p1163
(dp1164
S'ADV'
p1165
F0.00131
sS'ADJ'
p1166
F0.112334
sS'NOUN'
p1167
F0.886356
s(lp1168
(g153
I18
tp1169
atp1170
a(g16
(dp1171
g231
F8.7e-05
sS'CONJ'
p1172
F0.093558
sS'ADP'
p1173
F0.906355
s(lp1174
tp1175
a(S'tener'
p1176
(dp1177
S'VERB'
p1178
F1.0
s(lp1179
(g160
I19
tp1180
atp1181
a(S'un'
p1182
(dp1183
g231
F1e-05
sS'DET'
p1184
F0.99999
s(lp1185
(g16
I20
tp1186
atp1187
a(S'futuro'
p1188
(dp1189
S'ADJ'
p1190
F0.196758
sS'NOUN'
p1191
F0.803242
s(lp1192
(g175
I21
tp1193
atp1194
a(g51
(dp1195
g51
F1.0
s(lp1196
(g51
I22
tp1197
atp1198
as.