(dp0
S'fr'
p1
(lp2
(S'le'
p3
(dp4
S'PRON'
p5
F0.003088
sS'DET'
p6
F0.996912
s(lp7
(S'the'
p8
I0
tp9
atp10
a(S'nombre'
p11
(dp12
S'VERB'
p13
F0.002677
sS'NOUN'
p14
F0.997323
s(lp15
(S'number'
p16
I1
tp17
atp18
a(S'de'
p19
(dp20
S'ADP'
p21
F1.0
s(lp22
(S'of'
p23
I2
tp24
atp25
a(S'travailleurs'
p26
(dp27
S'ADJ'
p28
F0.045301
sS'NOUN'
p29
F0.954699
s(lp30
(S'workers'
p31
I4
tp32
atp33
a(S'ind\xc3\xa9pendants'
p34
(dp35
S'NOUN'
p36
F0.051705
sS'ADJ'
p37
F0.948295
s(lp38
(S'self-employed'
p39
I3
tp40
atp41
a(S'au'
p42
(dp43
S'ADP'
p44
F1.0
s(lp45
(S'in'
p46
I5
tp47
atp48
a(S'royaume-uni'
p49
(dp50
S'ADJ'
p51
F0.107723
sS'VERB'
p52
F2.4e-05
sS'NOUN'
p53
F0.892253
s(lp54
(S'kingdom'
p55
I8
tp56
atp57
a(S'est'
p58
(dp59
S'VERB'
p60
F0.999789
sS'NOUN'
p61
F0.000211
s(lp62
(S'has'
p63
I9
tp64
atp65
a(S'pass\xc3\xa9'
p66
(dp67
S'VERB'
p68
F0.996463
sS'NOUN'
p69
F0.003402
sS'ADP'
p70
F0.000135
s(lp71
(S'risen'
p72
I10
tp73
atp74
a(S'\xc3\xa0'
p75
(dp76
S'ADP'
p77
F1.0
s(lp78
(S'to'
p79
I11
tp80
atp81
a(S'1,7'
p82
(dp83
S'X'
p84
F1.5e-05
sS'NUM'
p85
F0.999985
s(lp86
(S'1.7'
p87
I12
tp88
atp89
a(S'million'
p90
(dp91
S'NOUN'
p92
F1.0
s(lp93
tp94
a(S'de'
p95
(dp96
S'ADP'
p97
F1.0
s(lp98
tp99
a(S'personnes'
p100
(dp101
S'NOUN'
p102
F1.0
s(lp103
(S'million'
p104
I13
tp105
atp106
a(S'.'
p107
(dp108
g107
F1.0
s(lp109
(g107
I14
tp110
atp111
asS'en'
p112
(lp113
(g8
(dp114
S'NOUN'
p115
F5e-06
sS'DET'
p116
F0.999995
s(lp117
(g8
I0
tp118
atp119
a(g16
(dp120
S'ADJ'
p121
F0.000161
sS'VERB'
p122
F0.0
sS'NOUN'
p123
F0.999838
s(lp124
(g16
I1
tp125
atp126
a(g23
(dp127
S'ADP'
p128
F1.0
s(lp129
(g23
I2
tp130
atp131
a(g39
(dp132
S'ADJ'
p133
F1.0
s(lp134
(g39
I3
tp135
atp136
a(g31
(dp137
S'NOUN'
p138
F1.0
s(lp139
(g31
I4
tp140
atp141
a(g46
(dp142
S'ADV'
p143
F0.000295
sS'PRT'
p144
F0.000234
sS'ADP'
p145
F0.999471
s(lp146
(g46
I5
tp147
atp148
a(S'the'
p149
(dp150
S'NOUN'
p151
F2e-06
sS'DET'
p152
F0.999998
s(lp153
(g149
I6
tp154
atp155
a(S'united'
p156
(dp157
S'VERB'
p158
F0.32239599999999996
sS'ADJ'
p159
F0.677604
s(lp160
(g156
I7
tp161
atp162
a(g55
(dp163
S'NOUN'
p164
F1.0
s(lp165
(g55
I8
tp166
atp167
a(g63
(dp168
S'VERB'
p169
F1.0
s(lp170
(g63
I9
tp171
atp172
a(g72
(dp173
S'VERB'
p174
F1.0
s(lp175
(g72
I10
tp176
atp177
a(g79
(dp178
S'ADV'
p179
F4e-06
sS'PRT'
p180
F0.99999
sS'ADP'
p181
F6e-06
s(lp182
(g79
I11
tp183
atp184
a(g87
(dp185
S'ADV'
p186
F8.5e-05
sS'ADJ'
p187
F5.2e-05
sS'NUM'
p188
F0.999278
sS'NOUN'
p189
F0.000586
sg84
F0.0
s(lp190
(g87
I12
tp191
atp192
a(g104
(dp193
S'NUM'
p194
F0.999766
sS'NOUN'
p195
F0.000234
s(lp196
(g104
I13
tp197
atp198
a(g107
(dp199
g107
F1.0
s(lp200
(g107
I14
tp201
atp202
asS'nl'
p203
(lp204
(S'het'
p205
(dp206
S'PRON'
p207
F0.01289
sS'DET'
p208
F0.98711
s(lp209
(g8
I0
tp210
atp211
a(S'aantal'
p212
(dp213
S'NOUN'
p214
F1.0
s(lp215
(g16
I1
tp216
atp217
a(S'zelfstandigen'
p218
(dp219
S'NOUN'
p220
F1.0
s(lp221
(g39
I3
tp222
atp223
a(S'in'
p224
(dp225
S'ADV'
p226
F0.003505
sS'VERB'
p227
F4e-06
sS'ADP'
p228
F0.996492
s(lp229
(g46
I5
tp230
atp231
a(S'het'
p232
(dp233
S'PRON'
p234
F0.027333999999999997
sS'DET'
p235
F0.972665
s(lp236
(g149
I6
tp237
atp238
a(S'verenigd'
p239
(dp240
S'VERB'
p241
F1.0
s(lp242
(g156
I7
tp243
atp244
a(S'koninkrijk'
p245
(dp246
S'NOUN'
p247
F1.0
s(lp248
(g55
I8
tp249
atp250
a(S'is'
p251
(dp252
S'VERB'
p253
F1.0
s(lp254
(g63
I9
tp255
atp256
a(S'tot'
p257
(dp258
S'CONJ'
p259
F0.000191
sS'ADP'
p260
F0.999809
s(lp261
(g79
I11
tp262
atp263
a(S'1,7'
p264
(dp265
S'NUM'
p266
F1.0
s(lp267
(g87
I12
tp268
atp269
a(S'miljoen'
p270
(dp271
S'NUM'
p272
F0.998721
sS'NOUN'
p273
F0.001279
s(lp274
(g104
I13
tp275
atp276
a(S'gestegen'
p277
(dp278
S'VERB'
p279
F1.0
s(lp280
(g72
I10
tp281
atp282
a(g107
(dp283
g107
F1.0
s(lp284
(g107
I14
tp285
atp286
asS'de'
p287
(lp288
(S'die'
p289
(dp290
S'PRON'
p291
F0.410518
sS'DET'
p292
F0.542103
s(lp293
(g8
I0
tp294
atp295
a(S'zahl'
p296
(dp297
S'VERB'
p298
F1.0
s(lp299
(g16
I1
tp300
atp301
a(S'der'
p302
(dp303
S'PRON'
p304
F0.000667
sS'DET'
p305
F0.998895
s(lp306
(g23
I2
tp307
atp308
a(S'selbst\xc3\xa4ndigen'
p309
(dp310
S'ADJ'
p311
F1.0
s(lp312
(g39
I3
tp313
atp314
a(S'im'
p315
(dp316
S'ADP'
p317
F1.0
s(lp318
(g46
I5
tp319
atp320
a(S'vereinigten'
p321
(dp322
S'VERB'
p323
F0.004856
sS'ADJ'
p324
F0.995144
s(lp325
(g156
I7
tp326
atp327
a(S'k\xc3\xb6nigreich'
p328
(dp329
S'ADJ'
p330
F0.20763
sS'NOUN'
p331
F0.781267
s(lp332
(g55
I8
tp333
atp334
a(S'ist'
p335
(dp336
S'VERB'
p337
F1.0
s(lp338
(g63
I9
tp339
atp340
a(S'auf'
p341
(dp342
S'ADV'
p343
F9.1e-05
sS'ADP'
p344
F0.999909
s(lp345
(g79
I11
tp346
atp347
a(S'1,7'
p348
(dp349
S'NUM'
p350
F1.0
s(lp351
(g87
I12
tp352
atp353
a(S'millionen'
p354
(dp355
S'ADJ'
p356
F0.031604
sS'NOUN'
p357
F0.963525
s(lp358
(g104
I13
tp359
atp360
a(S'angestiegen'
p361
(dp362
S'VERB'
p363
F1.0
s(lp364
(g72
I10
tp365
atp366
a(g107
(dp367
g107
F1.0
s(lp368
(g107
I14
tp369
atp370
asS'it'
p371
(lp372
(S'il'
p373
(dp374
S'DET'
p375
F1.0
s(lp376
(g8
I0
tp377
atp378
a(S'numero'
p379
(dp380
S'VERB'
p381
F3.2e-05
sS'NOUN'
p382
F0.999968
s(lp383
(g16
I1
tp384
atp385
a(S'di'
p386
(dp387
S'CONJ'
p388
F4e-06
sS'ADP'
p389
F0.999996
s(lp390
(g23
I2
tp391
atp392
a(S'lavoratori'
p393
(dp394
S'NOUN'
p395
F1.0
s(lp396
(g31
I4
tp397
atp398
a(S'autonomi'
p399
(dp400
S'NOUN'
p401
F0.040899
sS'ADJ'
p402
F0.959101
s(lp403
(g39
I3
tp404
atp405
a(S'nel'
p406
(dp407
S'ADP'
p408
F1.0
s(lp409
(g46
I5
tp410
atp411
a(S'regno'
p412
(dp413
S'VERB'
p414
F0.000606
sS'NOUN'
p415
F0.999394
s(lp416
(g55
I8
tp417
atp418
a(S'unito'
p419
(dp420
S'VERB'
p421
F0.038816
sS'ADJ'
p422
F0.961184
s(lp423
(g156
I7
tp424
atp425
a(S'ha'
p426
(dp427
S'VERB'
p428
F1.0
s(lp429
(g63
I9
tp430
atp431
a(S'raggiunto'
p432
(dp433
S'VERB'
p434
F1.0
s(lp435
(g72
I10
tp436
atp437
a(S'1,7'
p438
(dp439
S'NUM'
p440
F0.879226
sg107
F0.120774
s(lp441
(g87
I12
tp442
atp443
a(S'milioni'
p444
(dp445
S'NOUN'
p446
F1.0
s(lp447
(g104
I13
tp448
atp449
a(g107
(dp450
g107
F1.0
s(lp451
(g107
I14
tp452
atp453
asS'sk'
p454
(lp455
(S'v'
p456
(dp457
g84
F0.001293
sS'ADP'
p458
F0.998707
s(lp459
(g46
I5
tp460
atp461
a(S'spojenom'
p462
(dp463
S'VERB'
p464
F1.0
s(lp465
(g156
I7
tp466
atp467
a(S'kr\xc3\xa1\xc4\xbeovstve'
p468
(dp469
S'NOUN'
p470
F1.0
s(lp471
(g55
I8
tp472
atp473
a(S'st\xc3\xbapol'
p474
(dp475
S'VERB'
p476
F1.0
s(lp477
(g72
I10
tp478
atp479
a(S'po\xc4\x8det'
p480
(dp481
S'NOUN'
p482
F1.0
s(lp483
(g16
I1
tp484
atp485
a(S'samostatne'
p486
(dp487
S'ADV'
p488
F1.0
s(lp489
(g39
I3
tp490
atp491
a(S'z\xc3\xa1robkovo'
p492
(dp493
S'ADV'
p494
F1.0
s(lp495
(g39
I3
tp496
atp497
a(S'\xc4\x8dinn\xc3\xbdch'
p498
(dp499
S'ADJ'
p500
F1.0
s(lp501
tp502
a(S'os\xc3\xb4b'
p503
(dp504
S'NOUN'
p505
F1.0
s(lp506
(g39
I3
tp507
atp508
a(S'na'
p509
(dp510
g84
F0.000143
sS'CONJ'
p511
F7e-06
sS'ADP'
p512
F0.99984
sS'PRT'
p513
F9e-06
s(lp514
(g79
I11
tp515
atp516
a(S'1,7'
p517
(dp518
S'NUM'
p519
F1.0
s(lp520
(g87
I12
tp521
atp522
a(S'mili\xc3\xb3na'
p523
(dp524
S'NUM'
p525
F0.996984
sS'NOUN'
p526
F0.003016
s(lp527
(g104
I13
tp528
atp529
a(g107
(dp530
g107
F1.0
s(lp531
(g107
I14
tp532
atp533
asS'pl'
p534
(lp535
(S'liczba'
p536
(dp537
S'NOUN'
p538
F1.0
s(lp539
(g16
I1
tp540
atp541
a(S'os\xc3\xb3b'
p542
(dp543
S'NOUN'
p544
F1.0
s(lp545
(g39
I3
tp546
atp547
a(S'pracuj\xc4\x85cych'
p548
(dp549
S'VERB'
p550
F0.991232
sS'NOUN'
p551
F0.008768
s(lp552
(g39
I3
tp553
atp554
a(S'na'
p555
(dp556
S'PRT'
p557
F1.6e-05
sS'VERB'
p558
F6e-06
sS'NOUN'
p559
F0.0
sS'ADP'
p560
F0.9999760000000001
sg84
F3e-06
s(lp561
(g39
I3
tp562
atp563
a(S'w\xc5\x82asny'
p564
(dp565
S'ADJ'
p566
F1.0
s(lp567
tp568
a(S'rachunek'
p569
(dp570
S'NOUN'
p571
F1.0
s(lp572
(g39
I3
tp573
atp574
a(S'w'
p575
(dp576
g84
F0.0
sS'ADJ'
p577
F0.0
sS'ADP'
p578
F0.999999
sS'NOUN'
p579
F0.0
s(lp580
(g46
I5
tp581
atp582
a(S'zjednoczonym'
p583
(dp584
S'ADV'
p585
F0.0
sS'NOUN'
p586
F0.0008410000000000001
sS'VERB'
p587
F0.015538999999999999
sS'ADJ'
p588
F0.983619
s(lp589
tp590
a(S'kr\xc3\xb3lestwie'
p591
(dp592
S'NOUN'
p593
F1.0
s(lp594
(g55
I8
tp595
atp596
a(S'wzros\xc5\x82a'
p597
(dp598
S'VERB'
p599
F1.0
s(lp600
(g72
I10
tp601
atp602
a(S'do'
p603
(dp604
g84
F0.0
sS'NOUN'
p605
F6.1e-05
sS'ADP'
p606
F0.9999389999999999
s(lp607
(g79
I11
tp608
atp609
a(S'1,7'
p610
(dp611
S'NUM'
p612
F0.9999999999999999
s(lp613
(g87
I12
tp614
atp615
a(S'miliona'
p616
(dp617
S'NOUN'
p618
F1.0
s(lp619
(g104
I13
tp620
atp621
a(g107
(dp622
g107
F1.0
s(lp623
(g107
I14
tp624
atp625
asS'sl'
p626
(lp627
(S'\xc5\xa0tevilo'
p628
(dp629
S'NOUN'
p630
F1.0
s(lp631
(g16
I1
tp632
atp633
a(S'samozaposlenih'
p634
(dp635
S'ADV'
p636
F1.2e-05
sS'NOUN'
p637
F0.0004470000000000002
sS'ADJ'
p638
F0.9995390000000001
s(lp639
(g39
I3
tp640
atp641
a(S'delavcev'
p642
(dp643
S'NOUN'
p644
F1.0
s(lp645
(g31
I4
tp646
atp647
a(g456
(dp648
S'ADP'
p649
F1.0
s(lp650
(g46
I5
tp651
atp652
a(S'zdru\xc5\xbeenem'
p653
(dp654
S'ADJ'
p655
F1.0
s(lp656
(g156
I7
tp657
atp658
a(S'kraljestvu'
p659
(dp660
S'ADV'
p661
F2.4e-05
sS'ADJ'
p662
F2e-05
sS'VERB'
p663
F0.00012699999999999997
sS'NOUN'
p664
F0.9998269999999997
s(lp665
(g55
I8
tp666
atp667
a(S'je'
p668
(dp669
S'PRON'
p670
F0.000191
sS'VERB'
p671
F0.999809
sg84
F1e-06
s(lp672
(g63
I9
tp673
atp674
a(S'naraslo'
p675
(dp676
S'VERB'
p677
F1.0
s(lp678
(g72
I10
tp679
atp680
a(S'na'
p681
(dp682
S'ADP'
p683
F1.0
s(lp684
(g79
I11
tp685
atp686
a(S'1,7'
p687
(dp688
S'NUM'
p689
F1.0
s(lp690
(g87
I12
tp691
atp692
a(S'milijona'
p693
(dp694
S'NOUN'
p695
F1.0
s(lp696
(g104
I13
tp697
atp698
a(g107
(dp699
g107
F1.0
s(lp700
(g107
I14
tp701
atp702
asS'es'
p703
(lp704
(S'el'
p705
(dp706
S'PRON'
p707
F1e-05
sS'DET'
p708
F0.99999
s(lp709
(g8
I0
tp710
atp711
a(S'n\xc3\xbamero'
p712
(dp713
S'NOUN'
p714
F1.0
s(lp715
(g16
I1
tp716
atp717
a(S'de'
p718
(dp719
g84
F3.3e-05
sS'CONJ'
p720
F0.000455
sS'ADP'
p721
F0.999512
s(lp722
(g23
I2
tp723
atp724
a(S'trabajadores'
p725
(dp726
S'ADJ'
p727
F0.015874
sS'NOUN'
p728
F0.984126
s(lp729
(g31
I4
tp730
atp731
a(S'aut\xc3\xb3nomos'
p732
(dp733
S'ADJ'
p734
F1.0
s(lp735
(g39
I3
tp736
atp737
a(S'en'
p738
(dp739
g84
F0.0
sS'CONJ'
p740
F1e-06
sS'ADP'
p741
F0.999999
s(lp742
(g46
I5
tp743
atp744
a(S'el'
p745
(dp746
S'PRON'
p747
F4.5e-05
sS'DET'
p748
F0.999955
s(lp749
(g149
I6
tp750
atp751
a(S'reino'
p752
(dp753
S'ADJ'
p754
F0.163798
sS'VERB'
p755
F0.25275
sS'NOUN'
p756
F0.583452
s(lp757
(g55
I8
tp758
atp759
a(S'unido'
p760
(dp761
S'ADJ'
p762
F0.163798
sS'VERB'
p763
F0.25275
sS'NOUN'
p764
F0.583452
s(lp765
(g156
I7
tp766
atp767
a(S'ha'
p768
(dp769
S'VERB'
p770
F1.0
s(lp771
(g63
I9
tp772
atp773
a(S'aumentado'
p774
(dp775
S'VERB'
p776
F1.0
s(lp777
(g72
I10
tp778
atp779
a(S'a'
p780
(dp781
g84
F0.001378
sS'CONJ'
p782
F4.7e-05
sS'ADP'
p783
F0.998576
s(lp784
(g79
I11
tp785
atp786
a(S'1,7'
p787
(dp788
g84
F0.199885
sS'NUM'
p789
F0.800115
s(lp790
(g87
I12
tp791
atp792
a(S'millones'
p793
(dp794
S'NUM'
p795
F1.0
s(lp796
(g104
I13
tp797
atp798
a(g107
(dp799
g107
F1.0
s(lp800
(g107
I14
tp801
atp802
as.