(dp0
S'fr'
p1
(lp2
(S'il'
p3
(dp4
S'PRON'
p5
F1.0
s(lp6
(S'we'
p7
I0
tp8
atp9
a(S'ne'
p10
(dp11
S'ADV'
p12
F1.0
s(lp13
tp14
a(S'faut'
p15
(dp16
S'VERB'
p17
F1.0
s(lp18
(S'must'
p19
I1
tp20
atp21
a(S'pas'
p22
(dp23
S'ADV'
p24
F0.999903
sS'NOUN'
p25
F9.7e-05
s(lp26
tp27
a(S'oublier'
p28
(dp29
S'VERB'
p30
F1.0
s(lp31
(S'remember'
p32
I2
tp33
atp34
a(S'que'
p35
(dp36
S'ADV'
p37
F0.024578
sS'PRON'
p38
F0.025911
sS'CONJ'
p39
F0.949511
s(lp40
(S'that'
p41
I3
tp42
atp43
a(S'les'
p44
(dp45
S'PRON'
p46
F0.000946
sS'DET'
p47
F0.999035
sS'ADP'
p48
F2e-05
s(lp49
tp50
a(S'patients'
p51
(dp52
S'ADJ'
p53
F0.440226
sS'NOUN'
p54
F0.559774
s(lp55
(S'patients'
p56
I4
tp57
atp58
a(S'jouent'
p59
(dp60
S'VERB'
p61
F1.0
s(lp62
(S'playing'
p63
I6
tp64
atp65
a(S'un'
p66
(dp67
S'NOUN'
p68
F4.8e-05
sS'NUM'
p69
F0.004554
sS'DET'
p70
F0.995399
s(lp71
(S'a'
p72
I7
tp73
atp74
a(S'r\xc3\xb4le'
p75
(dp76
S'NOUN'
p77
F1.0
s(lp78
(S'role'
p79
I12
tp80
atp81
a(S'de'
p82
(dp83
S'ADP'
p84
F1.0
s(lp85
tp86
a(S'plus'
p87
(dp88
S'ADV'
p89
F1.0
sS'VERB'
p90
F0.0
s(lp91
(S'more'
p92
I8
tp93
atp94
a(S'en'
p95
(dp96
S'PRON'
p97
F0.09594
sS'ADP'
p98
F0.90406
s(lp99
tp100
a(S'plus'
p101
(dp102
S'ADV'
p103
F0.999885
sS'VERB'
p104
F0.000115
s(lp105
(S'more'
p106
I10
tp107
atp108
a(S'actif'
p109
(dp110
S'NOUN'
p111
F0.02593
sS'ADJ'
p112
F0.97407
s(lp113
(S'active'
p114
I11
tp115
atp116
a(S'dans'
p117
(dp118
S'NOUN'
p119
F8.4e-05
sS'ADP'
p120
F0.999916
s(lp121
(S'in'
p122
I13
tp123
atp124
a(S'le'
p125
(dp126
S'PRON'
p127
F6.2e-05
sS'DET'
p128
F0.999938
s(lp129
(S'the'
p130
I14
tp131
atp132
a(S'secteur'
p133
(dp134
S'NOUN'
p135
F1.0
s(lp136
(S'sector'
p137
I16
tp138
atp139
a(S'de'
p140
(dp141
S'ADP'
p142
F1.0
s(lp143
(S'health'
p144
I15
tp145
atp146
a(S'la'
p147
(dp148
S'PRON'
p149
F1.2e-05
sS'DET'
p150
F0.999988
sS'NOUN'
p151
F0.0
s(lp152
tp153
a(S'sant\xc3\xa9'
p154
(dp155
S'NOUN'
p156
F1.0
s(lp157
(g144
I15
tp158
atp159
a(S','
p160
(dp161
S'.'
p162
F1.0
s(lp163
tp164
a(S'et'
p165
(dp166
S'CONJ'
p167
F1.0
s(lp168
(S'and'
p169
I9
tp170
atp171
a(S'ce'
p172
(dp173
S'PRON'
p174
F1.0
s(lp175
tp176
a(S'partout'
p177
(dp178
S'ADV'
p179
F1.0
s(lp180
tp181
a(S'dans'
p182
(dp183
S'NOUN'
p184
F0.000248
sS'ADP'
p185
F0.999752
s(lp186
(S'throughout'
p187
I17
tp188
atp189
a(S"l'"
p190
(dp191
S'ADJ'
p192
F0.160732
sS'VERB'
p193
F0.06496500000000001
sS'NOUN'
p194
F0.774304
s(lp195
(S'the'
p196
I18
tp197
atp198
a(S'union'
p199
(dp200
S'NOUN'
p201
F1.0
s(lp202
(S'union'
p203
I20
tp204
atp205
a(S'europ\xc3\xa9enne'
p206
(dp207
S'NOUN'
p208
F0.012852
sS'ADJ'
p209
F0.987148
s(lp210
(S'european'
p211
I19
tp212
atp213
a(g162
(dp214
g162
F1.0
s(lp215
(g162
I21
tp216
atp217
asS'en'
p218
(lp219
(g7
(dp220
S'PRON'
p221
F1.0
s(lp222
(g7
I0
tp223
atp224
a(g19
(dp225
S'VERB'
p226
F1.0
sS'NOUN'
p227
F0.0
s(lp228
(g19
I1
tp229
atp230
a(g32
(dp231
S'VERB'
p232
F1.0
s(lp233
(g32
I2
tp234
atp235
a(g41
(dp236
S'ADV'
p237
F0.000102
sS'DET'
p238
F0.25746
sS'ADP'
p239
F0.742439
s(lp240
(g41
I3
tp241
atp242
a(g56
(dp243
S'NOUN'
p244
F1.0
s(lp245
(g56
I4
tp246
atp247
a(S'are'
p248
(dp249
S'VERB'
p250
F1.0
sS'NOUN'
p251
F0.0
s(lp252
(g248
I5
tp253
atp254
a(g63
(dp255
S'ADJ'
p256
F0.000108
sS'VERB'
p257
F0.999767
sS'NOUN'
p258
F0.000125
s(lp259
(g63
I6
tp260
atp261
a(g72
(dp262
S'NOUN'
p263
F0.0
sS'DET'
p264
F1.0
s(lp265
(g72
I7
tp266
atp267
a(g92
(dp268
S'ADV'
p269
F0.448049
sS'ADJ'
p270
F0.551951
s(lp271
(g92
I8
tp272
atp273
a(g169
(dp274
S'CONJ'
p275
F0.999998
sS'NOUN'
p276
F2e-06
s(lp277
(g169
I9
tp278
atp279
a(g106
(dp280
S'ADV'
p281
F0.171796
sS'ADJ'
p282
F0.828204
s(lp283
(g106
I10
tp284
atp285
a(g114
(dp286
S'NOUN'
p287
F0.001987
sS'ADJ'
p288
F0.998013
s(lp289
(g114
I11
tp290
atp291
a(g79
(dp292
S'NOUN'
p293
F1.0
s(lp294
(g79
I12
tp295
atp296
a(g122
(dp297
S'ADV'
p298
F0.000191
sS'PRT'
p299
F0.000279
sS'ADP'
p300
F0.999531
s(lp301
(g122
I13
tp302
atp303
a(g130
(dp304
S'NOUN'
p305
F1e-06
sS'DET'
p306
F0.999999
s(lp307
(g130
I14
tp308
atp309
a(g144
(dp310
S'NOUN'
p311
F1.0
s(lp312
(g144
I15
tp313
atp314
a(g137
(dp315
S'NOUN'
p316
F1.0
s(lp317
(g137
I16
tp318
atp319
a(g187
(dp320
S'ADV'
p321
F0.000229
sS'ADP'
p322
F0.999771
s(lp323
(g187
I17
tp324
atp325
a(g196
(dp326
S'NOUN'
p327
F1e-06
sS'DET'
p328
F0.999999
s(lp329
(g196
I18
tp330
atp331
a(g211
(dp332
S'NOUN'
p333
F0.10881199999999999
sS'VERB'
p334
F1.1e-05
sS'ADJ'
p335
F0.891178
s(lp336
(g211
I19
tp337
atp338
a(g203
(dp339
S'NOUN'
p340
F1.0
s(lp341
(g203
I20
tp342
atp343
a(g162
(dp344
g162
F1.0
s(lp345
(g162
I21
tp346
atp347
asS'nl'
p348
(lp349
(S'we'
p350
(dp351
S'PRON'
p352
F1.0
s(lp353
(g7
I0
tp354
atp355
a(S'mogen'
p356
(dp357
S'VERB'
p358
F0.9999739999999999
sS'NOUN'
p359
F2.6e-05
s(lp360
(g19
I1
tp361
atp362
a(S'niet'
p363
(dp364
S'ADV'
p365
F0.999996
sS'PRON'
p366
F4e-06
sS'VERB'
p367
F0.0
sS'X'
p368
F0.0
s(lp369
tp370
a(S'vergeten'
p371
(dp372
S'VERB'
p373
F0.998686
sS'NOUN'
p374
F0.001314
s(lp375
(g32
I2
tp376
atp377
a(S'dat'
p378
(dp379
S'PRON'
p380
F0.271003
sS'CONJ'
p381
F0.728996
s(lp382
(g41
I3
tp383
atp384
a(S'pati\xc3\xabnten'
p385
(dp386
S'NOUN'
p387
F1.0
s(lp388
(g56
I4
tp389
atp390
a(S'in'
p391
(dp392
S'ADV'
p393
F0.003438
sS'VERB'
p394
F2e-06
sS'ADP'
p395
F0.99656
s(lp396
tp397
a(S'de'
p398
(dp399
S'DET'
p400
F1.0
s(lp401
(g196
I18
tp402
atp403
a(S'gehele'
p404
(dp405
S'NOUN'
p406
F5.4e-05
sS'ADJ'
p407
F0.999946
s(lp408
(g187
I17
tp409
atp410
a(S'europese'
p411
(dp412
S'NOUN'
p413
F1.0
s(lp414
(g211
I19
tp415
atp416
a(S'unie'
p417
(dp418
S'NOUN'
p419
F1.0
s(lp420
(g203
I20
tp421
atp422
a(S'een'
p423
(dp424
S'ADJ'
p425
F2.2e-05
sS'PRON'
p426
F0.003084
sS'NUM'
p427
F8e-06
sS'DET'
p428
F0.996885
s(lp429
(g72
I7
tp430
atp431
a(S'steeds'
p432
(dp433
S'ADV'
p434
F1.0
s(lp435
(g92
I8
tp436
atp437
a(S'actievere'
p438
(dp439
S'NOUN'
p440
F0.000364
sS'ADJ'
p441
F0.999636
s(lp442
(g114
I11
tp443
atp444
a(S'rol'
p445
(dp446
S'VERB'
p447
F0.002909
sS'NOUN'
p448
F0.997091
s(lp449
tp450
a(S'spelen'
p451
(dp452
S'VERB'
p453
F0.996945
sS'NOUN'
p454
F0.0030549999999999996
s(lp455
(g79
I12
tp456
atp457
a(S'in'
p458
(dp459
S'ADV'
p460
F0.003194
sS'VERB'
p461
F0.0
sS'ADP'
p462
F0.996806
s(lp463
(g122
I13
tp464
atp465
a(S'de'
p466
(dp467
S'DET'
p468
F1.0
s(lp469
(g130
I14
tp470
atp471
a(S'gezondheidszorg'
p472
(dp473
S'NOUN'
p474
F1.0
s(lp475
(g144
I15
tp476
atp477
a(g162
(dp478
g162
F1.0
s(lp479
(g162
I21
tp480
atp481
asS'de'
p482
(lp483
(S'wir'
p484
(dp485
S'PRON'
p486
F1.0
s(lp487
(g7
I0
tp488
atp489
a(S'm\xc3\xbcssen'
p490
(dp491
S'VERB'
p492
F0.999434
s(lp493
(g19
I1
tp494
atp495
a(S'immer'
p496
(dp497
S'ADV'
p498
F1.0
s(lp499
(g32
I2
tp500
atp501
a(S'daran'
p502
(dp503
S'ADV'
p504
F0.999876
sS'PRT'
p505
F0.000124
s(lp506
tp507
a(S'denken'
p508
(dp509
S'VERB'
p510
F1.0
s(lp511
(g32
I2
tp512
atp513
a(g160
(dp514
g162
F1.0
s(lp515
tp516
a(S'dass'
p517
(dp518
S'CONJ'
p519
F1.0
s(lp520
(g41
I3
tp521
atp522
a(S'patienten'
p523
(dp524
S'NOUN'
p525
F0.454592
sS'ADJ'
p526
F0.47962
s(lp527
(g56
I4
tp528
atp529
a(S'im'
p530
(dp531
S'ADP'
p532
F1.0
s(lp533
(g122
I13
tp534
atp535
a(S'gesundheitsbereich'
p536
(dp537
S'NOUN'
p538
F0.996752
s(lp539
(g144
I15
tp540
atp541
a(S'in'
p542
(dp543
S'ADP'
p544
F1.0
s(lp545
tp546
a(S'der'
p547
(dp548
S'PRON'
p549
F6.7e-05
sS'DET'
p550
F0.999928
s(lp551
(g196
I18
tp552
atp553
a(S'gesamten'
p554
(dp555
S'ADJ'
p556
F1.0
s(lp557
(g187
I17
tp558
atp559
a(S'europ\xc3\xa4ischen'
p560
(dp561
S'ADJ'
p562
F1.0
s(lp563
(g211
I19
tp564
atp565
a(S'union'
p566
(dp567
S'ADJ'
p568
F0.0028
sS'NOUN'
p569
F0.995076
s(lp570
(g203
I20
tp571
atp572
a(S'eine'
p573
(dp574
S'PRON'
p575
F0.02461
sS'DET'
p576
F0.970095
s(lp577
(g72
I7
tp578
atp579
a(S'immer'
p580
(dp581
S'ADV'
p582
F1.0
s(lp583
(g92
I8
tp584
atp585
a(S'aktivere'
p586
(dp587
S'ADJ'
p588
F1.0
s(lp589
(g114
I11
tp590
atp591
a(S'rolle'
p592
(dp593
S'VERB'
p594
F1.0
s(lp595
(g79
I12
tp596
atp597
a(S'zuteil'
p598
(dp599
S'ADV'
p600
F1.0
s(lp601
(g63
I6
tp602
atp603
a(S'wird'
p604
(dp605
S'VERB'
p606
F1.0
s(lp607
(g248
I5
tp608
atp609
a(g162
(dp610
g162
F1.0
s(lp611
(g162
I21
tp612
atp613
asS'it'
p614
(lp615
(S'dobbiamo'
p616
(dp617
S'VERB'
p618
F1.0
s(lp619
(g19
I1
tp620
atp621
a(S'ricordarci'
p622
(dp623
S'VERB'
p624
F1.0
s(lp625
(g32
I2
tp626
atp627
a(S'che'
p628
(dp629
S'PRON'
p630
F0.983662
sS'CONJ'
p631
F0.014575
sS'ADJ'
p632
F0.001763
s(lp633
(g41
I3
tp634
atp635
a(S'in'
p636
(dp637
S'ADP'
p638
F1.0
s(lp639
tp640
a(S'tutta'
p641
(dp642
S'PRON'
p643
F0.955171
sS'ADJ'
p644
F0.044829
s(lp645
(g187
I17
tp646
atp647
a(S"l'"
p648
(dp649
S'NOUN'
p650
F0.015291
sS'VERB'
p651
F0.968786
sS'ADJ'
p652
F0.015921
s(lp653
(g196
I18
tp654
atp655
a(S'unione'
p656
(dp657
S'NOUN'
p658
F1.0
s(lp659
(g203
I20
tp660
atp661
a(S'europea'
p662
(dp663
S'NOUN'
p664
F0.003863
sS'ADJ'
p665
F0.996137
s(lp666
(g211
I19
tp667
atp668
a(S'\xc3\xa8'
p669
(dp670
S'VERB'
p671
F1.0
s(lp672
(g248
I5
tp673
atp674
a(S'in'
p675
(dp676
S'ADP'
p677
F1.0
s(lp678
(g106
I10
tp679
atp680
a(S'costante'
p681
(dp682
S'NOUN'
p683
F0.018173
sS'VERB'
p684
F0.016277
sS'ADJ'
p685
F0.96555
s(lp686
tp687
a(S'crescita'
p688
(dp689
S'NOUN'
p690
F1.0
s(lp691
(g92
I8
tp692
atp693
a(S'il'
p694
(dp695
S'DET'
p696
F1.0
s(lp697
(g130
I14
tp698
atp699
a(S'ruolo'
p700
(dp701
S'NOUN'
p702
F1.0
s(lp703
(g79
I12
tp704
atp705
a(S'attivo'
p706
(dp707
S'NOUN'
p708
F0.143923
sS'VERB'
p709
F0.001401
sS'ADJ'
p710
F0.854676
s(lp711
(g114
I11
tp712
atp713
a(S'dei'
p714
(dp715
S'NOUN'
p716
F0.00025
sS'DEF'
p717
F0.002491
sS'ADP'
p718
F0.997258
s(lp719
tp720
a(S'pazienti'
p721
(dp722
S'ADJ'
p723
F0.238877
sS'VERB'
p724
F0.000243
sS'NOUN'
p725
F0.76088
s(lp726
(g56
I4
tp727
atp728
a(S'nel'
p729
(dp730
S'ADP'
p731
F1.0
s(lp732
(g122
I13
tp733
atp734
a(S'settore'
p735
(dp736
S'ADJ'
p737
F0.006292
sS'NOUN'
p738
F0.993708
s(lp739
(g137
I16
tp740
atp741
a(S'della'
p742
(dp743
S'DEF'
p744
F0.001594
sS'ADP'
p745
F0.998406
s(lp746
tp747
a(S'salute'
p748
(dp749
g368
F2e-06
sS'NOUN'
p750
F0.999998
s(lp751
(g144
I15
tp752
atp753
a(g162
(dp754
g162
F1.0
s(lp755
(g162
I21
tp756
atp757
asS'sk'
p758
(lp759
(S'mus\xc3\xadme'
p760
(dp761
S'VERB'
p762
F1.0
s(lp763
(g19
I1
tp764
atp765
a(S'si'
p766
(dp767
S'PRT'
p768
F0.999865
sS'VERB'
p769
F0.000135
sg368
F0.0
s(lp770
tp771
a(S'zapam\xc3\xa4ta\xc5\xa5'
p772
(dp773
S'VERB'
p774
F1.0
s(lp775
(g32
I2
tp776
atp777
a(g160
(dp778
g162
F1.0
s(lp779
tp780
a(S'\xc5\xbee'
p781
(dp782
g368
F0.000429
sS'CONJ'
p783
F0.99957
s(lp784
(g41
I3
tp785
atp786
a(S'pacienti'
p787
(dp788
S'NOUN'
p789
F1.0
s(lp790
(g56
I4
tp791
atp792
a(S'zohr\xc3\xa1vaj\xc3\xba'
p793
(dp794
S'VERB'
p795
F1.0
s(lp796
(g63
I6
tp797
atp798
a(S'v'
p799
(dp800
g368
F0.000392
sS'ADP'
p801
F0.999608
s(lp802
(g122
I13
tp803
atp804
a(S'odvetv\xc3\xad'
p805
(dp806
S'NOUN'
p807
F1.0
s(lp808
(g137
I16
tp809
atp810
a(S'zdravotn\xc3\xadctva'
p811
(dp812
S'NOUN'
p813
F1.0
s(lp814
(g144
I15
tp815
atp816
a(g799
(dp817
g368
F0.000221
sS'ADP'
p818
F0.99978
s(lp819
(g187
I17
tp820
atp821
a(S'eur\xc3\xb3pskej'
p822
(dp823
S'ADJ'
p824
F1.0
s(lp825
(g211
I19
tp826
atp827
a(S'\xc3\xbanii'
p828
(dp829
S'NOUN'
p830
F1.0
s(lp831
(g203
I20
tp832
atp833
a(S'st\xc3\xa1le'
p834
(dp835
S'ADV'
p836
F0.996832
sg368
F0.002144
sS'ADJ'
p837
F0.001024
s(lp838
(g106
I10
tp839
atp840
a(S'akt\xc3\xadvnej\xc5\xa1iu'
p841
(dp842
S'ADJ'
p843
F1.0
s(lp844
(g114
I11
tp845
atp846
a(S'\xc3\xbalohu'
p847
(dp848
S'NOUN'
p849
F1.0
s(lp850
(g79
I12
tp851
atp852
a(g162
(dp853
g162
F1.0
s(lp854
(g162
I21
tp855
atp856
asS'pl'
p857
(lp858
(S'musimy'
p859
(dp860
S'VERB'
p861
F1.0
s(lp862
(g19
I1
tp863
atp864
a(S'pami\xc4\x99ta\xc4\x87'
p865
(dp866
S'VERB'
p867
F1.0
s(lp868
(g32
I2
tp869
atp870
a(S'o'
p871
(dp872
g368
F0.000483
sS'VERB'
p873
F2.8e-05
sS'NOUN'
p874
F4.9999999999999996e-06
sS'ADP'
p875
F0.999482
sS'PRT'
p876
F2e-06
s(lp877
tp878
a(S'tym'
p879
(dp880
S'ADV'
p881
F0.000317
sS'ADJ'
p882
F0.3368999999999999
sS'CONJ'
p883
F9e-06
sS'NOUN'
p884
F0.662772
sS'PRT'
p885
F2e-06
s(lp886
(g32
I2
tp887
atp888
a(g160
(dp889
g368
F0.0
sg162
F1.0
s(lp890
tp891
a(S'\xc5\xbce'
p892
(dp893
S'PRT'
p894
F0.000139
sS'CONJ'
p895
F0.999861
s(lp896
(g41
I3
tp897
atp898
a(S'pacjenci'
p899
(dp900
S'NOUN'
p901
F1.0
s(lp902
(g56
I4
tp903
atp904
a(S'odgrywaj\xc4\x85'
p905
(dp906
S'VERB'
p907
F1.0
s(lp908
(g63
I6
tp909
atp910
a(S'coraz'
p911
(dp912
S'ADV'
p913
F1.0
s(lp914
(g106
I10
tp915
atp916
a(S'aktywniejsz\xc4\x85'
p917
(dp918
S'ADV'
p919
F9.1e-05
sS'NOUN'
p920
F0.0013199999999999998
sS'VERB'
p921
F0.05140400000000001
sS'ADJ'
p922
F0.947184
s(lp923
(g114
I11
tp924
atp925
a(S'rol\xc4\x99'
p926
(dp927
S'NOUN'
p928
F1.0
s(lp929
(g79
I12
tp930
atp931
a(S'w'
p932
(dp933
S'ADJ'
p934
F0.0
sS'NOUN'
p935
F0.0
sS'ADP'
p936
F1.0
sg368
F0.0
s(lp937
(g122
I13
tp938
atp939
a(S'sektorze'
p940
(dp941
S'NOUN'
p942
F1.0
s(lp943
(g137
I16
tp944
atp945
a(S'zdrowotnym'
p946
(dp947
S'ADJ'
p948
F1.0
s(lp949
(g144
I15
tp950
atp951
a(g932
(dp952
g368
F1.6e-05
sS'ADJ'
p953
F2.4e-05
sS'ADP'
p954
F0.9999520000000001
sS'NOUN'
p955
F7e-06
s(lp956
tp957
a(S'ca\xc5\x82ej'
p958
(dp959
S'ADJ'
p960
F1.0
s(lp961
(g187
I17
tp962
atp963
a(S'unii'
p964
(dp965
S'NOUN'
p966
F1.0
s(lp967
(g203
I20
tp968
atp969
a(S'europejskiej'
p970
(dp971
S'ADJ'
p972
F1.0
s(lp973
(g211
I19
tp974
atp975
a(g162
(dp976
g162
F1.0
s(lp977
(g162
I21
tp978
atp979
asS'sl'
p980
(lp981
(S'ne'
p982
(dp983
S'PRT'
p984
F0.997452
sS'CONJ'
p985
F0.002535
sg368
F1.3000000000000001e-05
s(lp986
tp987
a(S'smemo'
p988
(dp989
S'VERB'
p990
F1.0
s(lp991
(g19
I1
tp992
atp993
a(S'pozabiti'
p994
(dp995
S'VERB'
p996
F1.0
s(lp997
(g32
I2
tp998
atp999
a(g160
(dp1000
g162
F1.0
s(lp1001
tp1002
a(S'da'
p1003
(dp1004
S'PRT'
p1005
F2.3e-05
sS'CONJ'
p1006
F0.999963
sS'VERB'
p1007
F1.3e-05
sg368
F0.0
s(lp1008
(g41
I3
tp1009
atp1010
a(S'imajo'
p1011
(dp1012
S'VERB'
p1013
F1.0
s(lp1014
(g63
I6
tp1015
atp1016
a(S'bolniki'
p1017
(dp1018
S'NOUN'
p1019
F1.0
s(lp1020
(g56
I4
tp1021
atp1022
a(g799
(dp1023
S'ADP'
p1024
F1.0
s(lp1025
(g122
I13
tp1026
atp1027
a(S'zdravstvenem'
p1028
(dp1029
S'ADJ'
p1030
F1.0
s(lp1031
(g144
I15
tp1032
atp1033
a(S'sektorju'
p1034
(dp1035
S'NOUN'
p1036
F1.0
s(lp1037
(g137
I16
tp1038
atp1039
a(S'po'
p1040
(dp1041
g368
F1e-06
sS'ADP'
p1042
F0.999999
s(lp1043
tp1044
a(S'vsej'
p1045
(dp1046
S'PRON'
p1047
F0.99994
sS'PRT'
p1048
F6e-05
s(lp1049
(g187
I17
tp1050
atp1051
a(S'evropski'
p1052
(dp1053
S'ADJ'
p1054
F1.0
s(lp1055
(g211
I19
tp1056
atp1057
a(S'uniji'
p1058
(dp1059
S'NOUN'
p1060
F1.0
s(lp1061
(g203
I20
tp1062
atp1063
a(S'vse'
p1064
(dp1065
S'ADV'
p1066
F0.679647
sS'PRON'
p1067
F0.32035199999999997
s(lp1068
(g106
I10
tp1069
atp1070
a(S'aktivnej\xc5\xa1o'
p1071
(dp1072
S'ADV'
p1073
F7.9e-05
sS'NOUN'
p1074
F0.002776
sS'VERB'
p1075
F0.003358
sS'ADJ'
p1076
F0.993786
s(lp1077
(g114
I11
tp1078
atp1079
a(S'vlogo'
p1080
(dp1081
S'NOUN'
p1082
F1.0
s(lp1083
(g79
I12
tp1084
atp1085
a(g162
(dp1086
g162
F1.0
s(lp1087
(g162
I21
tp1088
atp1089
asS'es'
p1090
(lp1091
(S'debemos'
p1092
(dp1093
S'VERB'
p1094
F1.0
s(lp1095
(g19
I1
tp1096
atp1097
a(S'recordar'
p1098
(dp1099
S'VERB'
p1100
F1.0
s(lp1101
(g32
I2
tp1102
atp1103
a(S'que'
p1104
(dp1105
g368
F0.0
sS'CONJ'
p1106
F1.0
s(lp1107
(g41
I3
tp1108
atp1109
a(S'los'
p1110
(dp1111
S'PRON'
p1112
F0.000148
sS'DET'
p1113
F0.999852
s(lp1114
tp1115
a(S'pacientes'
p1116
(dp1117
S'ADJ'
p1118
F0.317843
sS'NOUN'
p1119
F0.682157
s(lp1120
(g56
I4
tp1121
atp1122
a(S'desempe\xc3\xb1an'
p1123
(dp1124
S'VERB'
p1125
F1.0
s(lp1126
(g63
I6
tp1127
atp1128
a(S'un'
p1129
(dp1130
g368
F1e-06
sS'DET'
p1131
F0.999999
s(lp1132
(g72
I7
tp1133
atp1134
a(S'papel'
p1135
(dp1136
S'NOUN'
p1137
F1.0
s(lp1138
(g79
I12
tp1139
atp1140
a(S'cada'
p1141
(dp1142
S'ADJ'
p1143
F1.0
s(lp1144
(g92
I8
tp1145
atp1146
a(S'vez'
p1147
(dp1148
S'NOUN'
p1149
F1.0
s(lp1150
(g169
I9
tp1151
atp1152
a(S'm\xc3\xa1s'
p1153
(dp1154
S'ADV'
p1155
F0.999993
sS'CONJ'
p1156
F7e-06
s(lp1157
(g106
I10
tp1158
atp1159
a(S'activo'
p1160
(dp1161
S'ADJ'
p1162
F1.0
s(lp1163
(g114
I11
tp1164
atp1165
a(S'en'
p1166
(dp1167
g368
F0.0
sS'CONJ'
p1168
F1e-06
sS'ADP'
p1169
F0.999999
s(lp1170
(g122
I13
tp1171
atp1172
a(S'el'
p1173
(dp1174
S'PRON'
p1175
F5e-06
sS'DET'
p1176
F0.999995
s(lp1177
(g130
I14
tp1178
atp1179
a(S'sector'
p1180
(dp1181
S'NOUN'
p1182
F1.0
s(lp1183
(g137
I16
tp1184
atp1185
a(S'de'
p1186
(dp1187
g368
F0.0
sS'CONJ'
p1188
F1.7e-05
sS'ADP'
p1189
F0.999983
s(lp1190
tp1191
a(S'la'
p1192
(dp1193
g368
F0.0
sS'PRON'
p1194
F0.0
sS'DET'
p1195
F0.999999
sS'NOUN'
p1196
F0.0
s(lp1197
tp1198
a(S'salud'
p1199
(dp1200
S'NOUN'
p1201
F1.0
s(lp1202
(g144
I15
tp1203
atp1204
a(S'en'
p1205
(dp1206
g368
F0.0
sS'CONJ'
p1207
F4e-06
sS'ADP'
p1208
F0.999996
s(lp1209
tp1210
a(S'toda'
p1211
(dp1212
S'ADJ'
p1213
F1.0
s(lp1214
(g187
I17
tp1215
atp1216
a(S'la'
p1217
(dp1218
S'NOUN'
p1219
F4e-06
sS'DET'
p1220
F0.999996
sg368
F0.0
sS'PRON'
p1221
F0.0
s(lp1222
(g196
I18
tp1223
atp1224
a(S'uni\xc3\xb3n'
p1225
(dp1226
S'NOUN'
p1227
F1.0
s(lp1228
(g203
I20
tp1229
atp1230
a(S'europea'
p1231
(dp1232
S'ADJ'
p1233
F1.0
s(lp1234
(g211
I19
tp1235
atp1236
a(g162
(dp1237
g162
F1.0
s(lp1238
(g162
I21
tp1239
atp1240
as.