(dp0
S'fr'
p1
(lp2
(S'ce'
p3
(dp4
S'PRON'
p5
F1.0
s(lp6
(S'this'
p7
I0
tp8
atp9
a(S'groupe'
p10
(dp11
S'VERB'
p12
F0.011316
sS'NOUN'
p13
F0.988684
s(lp14
(S'group'
p15
I1
tp16
atp17
a(S'rencontre'
p18
(dp19
S'VERB'
p20
F0.9569279999999999
sS'NOUN'
p21
F0.043073
s(lp22
(S'found'
p23
I4
tp24
atp25
a(S'\xc3\xa9galement'
p26
(dp27
S'ADV'
p28
F1.0
s(lp29
(S'also'
p30
I3
tp31
atp32
a(S'plus'
p33
(dp34
S'ADV'
p35
F0.99854
sS'VERB'
p36
F0.00146
s(lp37
(S'more'
p38
I6
tp39
atp40
a(S'de'
p41
(dp42
S'ADP'
p43
F1.0
s(lp44
tp45
a(S'difficult\xc3\xa9s'
p46
(dp47
S'NOUN'
p48
F1.0
s(lp49
(S'difficult'
p50
I7
tp51
atp52
a(S'que'
p53
(dp54
S'ADV'
p55
F0.006234
sS'PRON'
p56
F0.196493
sS'CONJ'
p57
F0.797273
s(lp58
(S'than'
p59
I8
tp60
atp61
a(S'les'
p62
(dp63
S'PRON'
p64
F0.000717
sS'DET'
p65
F0.999271
sS'ADP'
p66
F1.2e-05
s(lp67
tp68
a(S'personnes'
p69
(dp70
S'NOUN'
p71
F1.0
s(lp72
(S'those'
p73
I9
tp74
atp75
a(S'travaillant'
p76
(dp77
S'VERB'
p78
F0.929613
sS'ADJ'
p79
F0.070387
s(lp80
(S'workplaces'
p81
I11
tp82
atp83
a(S'dans'
p84
(dp85
S'NOUN'
p86
F0.000735
sS'ADP'
p87
F0.999265
s(lp88
(S'in'
p89
I10
tp90
atp91
a(S'des'
p92
(dp93
S'DET'
p94
F0.000669
sS'ADP'
p95
F0.999331
s(lp96
tp97
a(S'\xc3\xa9tablissements'
p98
(dp99
S'NOUN'
p100
F1.0
s(lp101
(g81
I11
tp102
atp103
a(S'comptant'
p104
(dp105
S'ADV'
p106
F0.100289
sS'NOUN'
p107
F0.00118
sS'VERB'
p108
F0.839118
sS'ADJ'
p109
F0.059413
s(lp110
(S'with'
p111
I12
tp112
atp113
a(S'plusieurs'
p114
(dp115
S'PRON'
p116
F0.999788
sS'NOUN'
p117
F0.000212
s(lp118
(S'several'
p119
I13
tp120
atp121
a(S'employ\xc3\xa9s'
p122
(dp123
S'VERB'
p124
F0.015263
sS'NOUN'
p125
F0.984737
s(lp126
(S'employees'
p127
I14
tp128
atp129
a(S','
p130
(dp131
S'.'
p132
F1.0
s(lp133
(g130
I15
tp134
atp135
a(S'mais'
p136
(dp137
S'CONJ'
p138
F1.0
s(lp139
(S'but'
p140
I16
tp141
atp142
a(S"j'"
p143
(dp144
S'ADJ'
p145
F0.430229
sS'VERB'
p146
F0.032665
sS'NOUN'
p147
F0.535587
sS'X'
p148
F0.001519
s(lp149
(S'i'
p150
I17
tp151
atp152
a(S'estime'
p153
(dp154
S'VERB'
p155
F0.906022
sS'NOUN'
p156
F0.093977
s(lp157
(S'see'
p158
I18
tp159
atp160
a(S"qu'"
p161
(dp162
S'NOUN'
p163
F0.042019
sS'VERB'
p164
F0.723272
sS'ADJ'
p165
F0.234709
s(lp166
(S'as'
p167
I20
tp168
atp169
a(S'il'
p170
(dp171
S'PRON'
p172
F1.0
s(lp173
(S'this'
p174
I19
tp175
atp176
a(S"s'"
p177
(dp178
S'ADJ'
p179
F0.000625
sS'VERB'
p180
F0.9973000000000002
sS'NOUN'
p181
F0.002077
s(lp182
tp183
a(S'agit'
p184
(dp185
S'VERB'
p186
F1.0
s(lp187
(g167
I20
tp188
atp189
a(S'l\xc3\xa0'
p190
(dp191
S'ADV'
p192
F1.0
s(lp193
(S'it'
p194
I5
tp195
atp196
a(S"d'"
p197
(dp198
S'NOUN'
p199
F0.037162
sS'VERB'
p200
F0.7565829999999999
sS'ADJ'
p201
F0.206256
s(lp202
tp203
a(S'un'
p204
(dp205
S'NOUN'
p206
F0.000952
sS'NUM'
p207
F0.027039
sS'DET'
p208
F0.972009
s(lp209
(S'a'
p210
I21
tp211
atp212
a(S'premier'
p213
(dp214
S'ADV'
p215
F0.004014
sS'NUM'
p216
F0.721203
sS'NOUN'
p217
F0.274783
s(lp218
(S'first'
p219
I22
tp220
atp221
a(S'pas'
p222
(dp223
S'ADV'
p224
F0.278072
sS'NOUN'
p225
F0.721928
s(lp226
(S'step'
p227
I23
tp228
atp229
a(g132
(dp230
g132
F1.0
s(lp231
(g132
I24
tp232
atp233
asS'en'
p234
(lp235
(g7
(dp236
S'ADV'
p237
F1.3e-05
sS'NOUN'
p238
F1.1e-05
sS'DET'
p239
F0.999976
s(lp240
(g7
I0
tp241
atp242
a(g15
(dp243
S'VERB'
p244
F0.0
sS'NOUN'
p245
F1.0
s(lp246
(g15
I1
tp247
atp248
a(S'has'
p249
(dp250
S'VERB'
p251
F1.0
s(lp252
(g249
I2
tp253
atp254
a(g30
(dp255
S'ADV'
p256
F1.0
s(lp257
(g30
I3
tp258
atp259
a(g23
(dp260
S'VERB'
p261
F0.9997079999999999
sS'ADJ'
p262
F0.000292
s(lp263
(g23
I4
tp264
atp265
a(g194
(dp266
S'PRON'
p267
F1.0
s(lp268
(g194
I5
tp269
atp270
a(g38
(dp271
S'ADV'
p272
F0.886134
sS'ADJ'
p273
F0.113866
s(lp274
(g38
I6
tp275
atp276
a(g50
(dp277
S'ADJ'
p278
F1.0
s(lp279
(g50
I7
tp280
atp281
a(g59
(dp282
S'ADP'
p283
F1.0
s(lp284
(g59
I8
tp285
atp286
a(g73
(dp287
S'NOUN'
p288
F0.000345
sS'DET'
p289
F0.999655
s(lp290
(g73
I9
tp291
atp292
a(g89
(dp293
S'ADV'
p294
F0.000858
sS'PRT'
p295
F0.000554
sS'ADP'
p296
F0.998588
s(lp297
(g89
I10
tp298
atp299
a(g81
(dp300
S'NOUN'
p301
F1.0
s(lp302
(g81
I11
tp303
atp304
a(g111
(dp305
S'ADP'
p306
F1.0
s(lp307
(g111
I12
tp308
atp309
a(g119
(dp310
S'ADJ'
p311
F1.0
s(lp312
(g119
I13
tp313
atp314
a(g127
(dp315
S'NOUN'
p316
F1.0
s(lp317
(g127
I14
tp318
atp319
a(g130
(dp320
g132
F1.0
s(lp321
(g130
I15
tp322
atp323
a(g140
(dp324
S'ADV'
p325
F0.001358
sS'CONJ'
p326
F0.998641
sS'NOUN'
p327
F1e-06
s(lp328
(g140
I16
tp329
atp330
a(g150
(dp331
g148
F0.00061
sS'NOUN'
p332
F0.99939
s(lp333
(g150
I17
tp334
atp335
a(g158
(dp336
S'VERB'
p337
F0.9996909999999999
sS'NOUN'
p338
F0.000309
s(lp339
(g158
I18
tp340
atp341
a(g174
(dp342
S'ADV'
p343
F0.00572
sS'NOUN'
p344
F0.001404
sS'DET'
p345
F0.992876
s(lp346
(g174
I19
tp347
atp348
a(g167
(dp349
S'ADV'
p350
F0.148536
sS'ADP'
p351
F0.851464
s(lp352
(g167
I20
tp353
atp354
a(g210
(dp355
S'NOUN'
p356
F0.0
sS'DET'
p357
F1.0
s(lp358
(g210
I21
tp359
atp360
a(g219
(dp361
S'ADV'
p362
F0.000891
sS'NOUN'
p363
F0.00041
sS'ADJ'
p364
F0.998699
s(lp365
(g219
I22
tp366
atp367
a(g227
(dp368
S'VERB'
p369
F0.00036700000000000003
sS'NOUN'
p370
F0.999633
s(lp371
(g227
I23
tp372
atp373
a(g132
(dp374
g132
F1.0
s(lp375
(g132
I24
tp376
atp377
asS'nl'
p378
(lp379
(S'het'
p380
(dp381
S'PRON'
p382
F0.962086
sS'DET'
p383
F0.037914
s(lp384
tp385
a(S'is'
p386
(dp387
S'VERB'
p388
F1.0
s(lp389
(g249
I2
tp390
atp391
a(S'ook'
p392
(dp393
S'ADV'
p394
F1.0
s(lp395
(g30
I3
tp396
atp397
a(S'een'
p398
(dp399
S'ADJ'
p400
F1.1e-05
sS'PRON'
p401
F2e-05
sS'NUM'
p402
F1e-06
sS'DET'
p403
F0.999968
s(lp404
tp405
a(S'groep'
p406
(dp407
S'NOUN'
p408
F1.0
s(lp409
(g15
I1
tp410
atp411
a(S'die'
p412
(dp413
S'PRON'
p414
F1.0
s(lp415
(g7
I0
tp416
atp417
a(S'het'
p418
(dp419
S'PRON'
p420
F0.11062799999999999
sS'DET'
p421
F0.889372
s(lp422
(g194
I5
tp423
atp424
a(S'moeilijker'
p425
(dp426
S'ADJ'
p427
F1.0
s(lp428
(g50
I7
tp429
atp430
a(S'heeft'
p431
(dp432
S'VERB'
p433
F1.0
s(lp434
(g23
I4
tp435
atp436
a(S'dan'
p437
(dp438
S'ADV'
p439
F0.198667
sS'CONJ'
p440
F0.801333
s(lp441
(g59
I8
tp442
atp443
a(S'de'
p444
(dp445
S'DET'
p446
F1.0
s(lp447
(g73
I9
tp448
atp449
a(S'mensen'
p450
(dp451
S'NOUN'
p452
F1.0
s(lp453
(g73
I9
tp454
atp455
a(S'die'
p456
(dp457
S'PRON'
p458
F1.0
s(lp459
tp460
a(S'op'
p461
(dp462
S'ADV'
p463
F0.010542
sS'ADJ'
p464
F0.0
sS'ADP'
p465
F0.989458
s(lp466
(g89
I10
tp467
atp468
a(S'de'
p469
(dp470
S'DET'
p471
F1.0
s(lp472
(g73
I9
tp473
atp474
a(S'werkplek'
p475
(dp476
S'NOUN'
p477
F1.0
s(lp478
(g81
I11
tp479
atp480
a(S'met'
p481
(dp482
S'ADP'
p483
F1.0
s(lp484
(g111
I12
tp485
atp486
a(S'meerdere'
p487
(dp488
S'PRON'
p489
F0.999999
sS'NOUN'
p490
F1e-06
s(lp491
(g119
I13
tp492
atp493
a(S'werknemers'
p494
(dp495
S'NOUN'
p496
F1.0
s(lp497
tp498
a(S'werken'
p499
(dp500
S'VERB'
p501
F0.953293
sS'NOUN'
p502
F0.046707
s(lp503
(g127
I14
tp504
atp505
a(g130
(dp506
g132
F1.0
s(lp507
(g130
I15
tp508
atp509
a(S'maar'
p510
(dp511
S'ADV'
p512
F0.094501
sS'CONJ'
p513
F0.905475
sS'NOUN'
p514
F2.4e-05
s(lp515
(g140
I16
tp516
atp517
a(S'voor'
p518
(dp519
S'ADV'
p520
F0.011275
sS'CONJ'
p521
F0.000261
sS'NOUN'
p522
F0.0
sS'ADP'
p523
F0.988464
s(lp524
(g167
I20
tp525
atp526
a(S'mij'
p527
(dp528
S'PRON'
p529
F1.0
s(lp530
(g150
I17
tp531
atp532
a(S'is'
p533
(dp534
S'VERB'
p535
F1.0
s(lp536
tp537
a(S'dit'
p538
(dp539
S'PRON'
p540
F1.0
s(lp541
(g174
I19
tp542
atp543
a(S'een'
p544
(dp545
S'ADJ'
p546
F5e-06
sS'PRON'
p547
F7.2e-05
sS'NUM'
p548
F0.0
sS'DET'
p549
F0.999923
s(lp550
(g210
I21
tp551
atp552
a(S'eerste'
p553
(dp554
S'NUM'
p555
F0.99999
sS'NOUN'
p556
F1e-05
s(lp557
(g219
I22
tp558
atp559
a(S'stap'
p560
(dp561
S'VERB'
p562
F0.000655
sS'NOUN'
p563
F0.999345
s(lp564
(g227
I23
tp565
atp566
a(g132
(dp567
g132
F1.0
s(lp568
(g132
I24
tp569
atp570
asS'de'
p571
(lp572
(S'f\xc3\xbcr'
p573
(dp574
S'ADP'
p575
F1.0
s(lp576
tp577
a(S'diese'
p578
(dp579
S'PRON'
p580
F1.0
s(lp581
(g7
I0
tp582
atp583
a(S'gruppe'
p584
(dp585
S'ADJ'
p586
F0.022794
sS'NOUN'
p587
F0.963062
s(lp588
(g15
I1
tp589
atp590
a(S'ist'
p591
(dp592
S'VERB'
p593
F1.0
s(lp594
(g249
I2
tp595
atp596
a(S'die'
p597
(dp598
S'PRON'
p599
F0.001345
sS'DET'
p600
F0.998654
s(lp601
(g194
I5
tp602
atp603
a(S'lage'
p604
(dp605
S'VERB'
p606
F0.000747
sS'NOUN'
p607
F0.998851
s(lp608
tp609
a(S'noch'
p610
(dp611
S'ADV'
p612
F0.979006
sS'CONJ'
p613
F0.020994
s(lp614
(g38
I6
tp615
atp616
a(S'schwieriger'
p617
(dp618
S'ADJ'
p619
F1.0
s(lp620
(g50
I7
tp621
atp622
a(S'als'
p623
(dp624
S'CONJ'
p625
F0.999984
s(lp626
(g59
I8
tp627
atp628
a(S'f\xc3\xbcr'
p629
(dp630
S'ADP'
p631
F1.0
s(lp632
(g23
I4
tp633
atp634
a(S'diejenigen'
p635
(dp636
S'PRON'
p637
F1.0
s(lp638
tp639
a(g130
(dp640
g132
F1.0
s(lp641
tp642
a(S'die'
p643
(dp644
S'PRON'
p645
F0.966722
sS'DET'
p646
F0.026122
s(lp647
(g73
I9
tp648
atp649
a(S'an'
p650
(dp651
S'ADV'
p652
F0.005449
sS'ADP'
p653
F0.989594
s(lp654
(g89
I10
tp655
atp656
a(S'arbeitspl\xc3\xa4tzen'
p657
(dp658
S'ADJ'
p659
F0.073891
sS'NOUN'
p660
F0.90256
s(lp661
(g81
I11
tp662
atp663
a(S'mit'
p664
(dp665
S'PRT'
p666
F0.000407
sS'ADP'
p667
F0.999593
s(lp668
(g111
I12
tp669
atp670
a(S'mehreren'
p671
(dp672
S'PRON'
p673
F1.0
s(lp674
(g119
I13
tp675
atp676
a(S'arbeitnehmern'
p677
(dp678
S'ADJ'
p679
F0.048729
sS'NOUN'
p680
F0.943802
s(lp681
tp682
a(S'besch\xc3\xa4ftigt'
p683
(dp684
S'VERB'
p685
F0.994847
sS'ADJ'
p686
F0.003965
s(lp687
(g127
I14
tp688
atp689
a(S'sind'
p690
(dp691
S'VERB'
p692
F1.0
s(lp693
tp694
a(g130
(dp695
g132
F1.0
s(lp696
(g130
I15
tp697
atp698
a(S'aber'
p699
(dp700
S'ADV'
p701
F0.03871
sS'CONJ'
p702
F0.96129
s(lp703
(g140
I16
tp704
atp705
a(S'ich'
p706
(dp707
S'PRON'
p708
F1.0
s(lp709
(g150
I17
tp710
atp711
a(S'betrachte'
p712
(dp713
S'VERB'
p714
F1.0
s(lp715
(g158
I18
tp716
atp717
a(S'das'
p718
(dp719
S'PRON'
p720
F0.890281
sS'DET'
p721
F0.109654
s(lp722
(g174
I19
tp723
atp724
a(S'als'
p725
(dp726
S'CONJ'
p727
F0.987633
s(lp728
(g167
I20
tp729
atp730
a(S'einen'
p731
(dp732
S'PRON'
p733
F0.004368
sS'DET'
p734
F0.992939
s(lp735
(g210
I21
tp736
atp737
a(S'ersten'
p738
(dp739
S'ADJ'
p740
F1.0
s(lp741
(g219
I22
tp742
atp743
a(S'schritt'
p744
(dp745
S'VERB'
p746
F1.0
s(lp747
(g227
I23
tp748
atp749
a(g132
(dp750
g132
F1.0
s(lp751
(g132
I24
tp752
atp753
asS'it'
p754
(lp755
(S'lo'
p756
(dp757
S'PRON'
p758
F0.990634
sS'DET'
p759
F0.009366
s(lp760
(g7
I0
tp761
atp762
a(S'considero'
p763
(dp764
S'VERB'
p765
F1.0
s(lp766
(g23
I4
tp767
atp768
a(S'tuttavia'
p769
(dp770
S'ADV'
p771
F1.0
s(lp772
(g140
I16
tp773
atp774
a(S'come'
p775
(dp776
S'PRON'
p777
F1.4e-05
sS'CONJ'
p778
F0.224254
sS'NOUN'
p779
F1.6e-05
sS'ADP'
p780
F0.775716
s(lp781
(g167
I20
tp782
atp783
a(S'un'
p784
(dp785
S'PRON'
p786
F0.001515
sS'DEF'
p787
F0.998485
s(lp788
(g210
I21
tp789
atp790
a(S'primo'
p791
(dp792
S'NOUN'
p793
F0.056547
sS'ADJ'
p794
F0.943453
s(lp795
(g219
I22
tp796
atp797
a(S'passo'
p798
(dp799
S'ADJ'
p800
F0.204837
sS'VERB'
p801
F3.7e-05
sS'NOUN'
p802
F0.795126
s(lp803
(g227
I23
tp804
atp805
a(g132
(dp806
g132
F1.0
s(lp807
(g132
I24
tp808
atp809
asS'sk'
p810
(lp811
(S'pre'
p812
(dp813
g148
F6e-05
sS'ADP'
p814
F0.99994
s(lp815
tp816
a(S't\xc3\xbato'
p817
(dp818
S'PRON'
p819
F1.0
s(lp820
(g7
I0
tp821
atp822
a(S'skupinu'
p823
(dp824
S'NOUN'
p825
F1.0
s(lp826
(g15
I1
tp827
atp828
a(S'je'
p829
(dp830
g148
F0.00019899999999999999
sS'VERB'
p831
F0.999716
sS'PRON'
p832
F8.5e-05
s(lp833
tp834
a(S'situ\xc3\xa1cia'
p835
(dp836
S'NOUN'
p837
F1.0
s(lp838
(g249
I2
tp839
atp840
a(S'tie\xc5\xbe'
p841
(dp842
g148
F1.0
s(lp843
(g30
I3
tp844
atp845
a(S'n\xc3\xa1ro\xc4\x8dnej\xc5\xa1ia'
p846
(dp847
S'ADJ'
p848
F1.0
s(lp849
(g50
I7
tp850
atp851
a(S'ako'
p852
(dp853
S'PRON'
p854
F0.000242
sS'CONJ'
p855
F0.999656
sg148
F0.000102
s(lp856
(g59
I8
tp857
atp858
a(S'pre'
p859
(dp860
g148
F0.000193
sS'ADP'
p861
F0.999807
s(lp862
tp863
a(S'\xc4\xbeud\xc3\xad'
p864
(dp865
S'NOUN'
p866
F1.0
s(lp867
(g73
I9
tp868
atp869
a(S'na'
p870
(dp871
g148
F2.1000000000000002e-05
sS'CONJ'
p872
F2.4e-05
sS'ADP'
p873
F0.999945
sS'PRT'
p874
F1e-05
s(lp875
(g89
I10
tp876
atp877
a(S'pracovisk\xc3\xa1ch'
p878
(dp879
S'NOUN'
p880
F1.0
s(lp881
tp882
a(S'zamestn\xc3\xa1vaj\xc3\xbacich'
p883
(dp884
S'NOUN'
p885
F0.073698
sS'VERB'
p886
F0.78835
sS'ADJ'
p887
F0.137952
s(lp888
(g81
I11
tp889
atp890
a(S'viacer\xc3\xbdch'
p891
(dp892
S'NUM'
p893
F1.0
s(lp894
(g119
I13
tp895
atp896
a(S'zamestnancov'
p897
(dp898
S'NOUN'
p899
F1.0
s(lp900
(g127
I14
tp901
atp902
a(g130
(dp903
g132
F1.0
s(lp904
(g130
I15
tp905
atp906
a(S'ale'
p907
(dp908
g148
F0.0029219999999999997
sS'CONJ'
p909
F0.997078
s(lp910
(g140
I16
tp911
atp912
a(S'pova\xc5\xbeujem'
p913
(dp914
S'VERB'
p915
F1.0
s(lp916
(g158
I18
tp917
atp918
a(S'to'
p919
(dp920
S'PRON'
p921
F0.97419
sS'CONJ'
p922
F0.002392
sg148
F0.023418
s(lp923
(g174
I19
tp924
atp925
a(S'za'
p926
(dp927
g148
F7.9e-05
sS'ADP'
p928
F0.999867
sS'PRT'
p929
F5.4e-05
s(lp930
(g167
I20
tp931
atp932
a(S'prv\xc3\xbd'
p933
(dp934
g148
F0.000822
sS'NUM'
p935
F0.999178
s(lp936
(g219
I22
tp937
atp938
a(S'krok'
p939
(dp940
S'NOUN'
p941
F1.0
s(lp942
(g227
I23
tp943
atp944
a(g132
(dp945
g132
F1.0
s(lp946
(g132
I24
tp947
atp948
asS'pl'
p949
(lp950
(S'tak\xc5\xbce'
p951
(dp952
S'PRT'
p953
F0.588086
sS'CONJ'
p954
F0.411914
s(lp955
(g30
I3
tp956
atp957
a(g150
(dp958
S'PRT'
p959
F0.030004
sS'CONJ'
p960
F0.969371
sS'PRON'
p961
F5.6e-05
sS'NOUN'
p962
F0.0005139999999999999
sg148
F5.6e-05
s(lp963
(g194
I5
tp964
atp965
a(S'ta'
p966
(dp967
S'ADV'
p968
F7.6e-05
sS'PRT'
p969
F0.000621
sS'ADJ'
p970
F0.9991049999999999
sg148
F0.000197
s(lp971
(g7
I0
tp972
atp973
a(S'grupa'
p974
(dp975
S'NOUN'
p976
F1.0
s(lp977
(g15
I1
tp978
atp979
a(S'ma'
p980
(dp981
S'VERB'
p982
F0.999292
sS'NOUN'
p983
F7.9e-05
sS'ADP'
p984
F0.000629
s(lp985
(g249
I2
tp986
atp987
a(S'wi\xc4\x99ksze'
p988
(dp989
S'ADJ'
p990
F1.0
s(lp991
(g38
I6
tp992
atp993
a(S'trudno\xc5\x9bci'
p994
(dp995
S'NOUN'
p996
F0.999999
s(lp997
(g50
I7
tp998
atp999
a(S'ni\xc5\xbc'
p1000
(dp1001
S'CONJ'
p1002
F0.823103
sS'NOUN'
p1003
F0.000108
sS'ADP'
p1004
F0.176789
s(lp1005
(g59
I8
tp1006
atp1007
a(S'osoby'
p1008
(dp1009
S'NOUN'
p1010
F1.0
s(lp1011
(g73
I9
tp1012
atp1013
a(S'w'
p1014
(dp1015
g148
F0.0
sS'ADJ'
p1016
F0.0
sS'ADP'
p1017
F1.0
sS'NOUN'
p1018
F0.0
s(lp1019
(g89
I10
tp1020
atp1021
a(S'miejscach'
p1022
(dp1023
S'NOUN'
p1024
F1.0
s(lp1025
tp1026
a(S'pracy'
p1027
(dp1028
S'NOUN'
p1029
F0.9999990000000001
s(lp1030
(g81
I11
tp1031
atp1032
a(g130
(dp1033
g148
F0.0
sg132
F1.0
s(lp1034
tp1035
a(g1014
(dp1036
S'ADJ'
p1037
F0.0
sg148
F3e-06
sS'NOUN'
p1038
F2e-06
sS'ADP'
p1039
F0.9999939999999999
s(lp1040
tp1041
a(S'kt\xc3\xb3rych'
p1042
(dp1043
S'ADJ'
p1044
F0.9999999999999999
s(lp1045
(g111
I12
tp1046
atp1047
a(S'jest'
p1048
(dp1049
S'VERB'
p1050
F1.0
s(lp1051
tp1052
a(S'kilku'
p1053
(dp1054
S'NUM'
p1055
F1.0
s(lp1056
(g119
I13
tp1057
atp1058
a(S'pracownik\xc3\xb3w'
p1059
(dp1060
S'NOUN'
p1061
F1.0
s(lp1062
(g127
I14
tp1063
atp1064
a(g130
(dp1065
g148
F0.0
sg132
F1.0
s(lp1066
(g130
I15
tp1067
atp1068
a(S'ale'
p1069
(dp1070
S'PRT'
p1071
F0.006404
sS'CONJ'
p1072
F0.993371
sS'NOUN'
p1073
F0.00022500000000000002
s(lp1074
(g140
I16
tp1075
atp1076
a(S'postrzegam'
p1077
(dp1078
S'ADV'
p1079
F0.001375
sS'ADJ'
p1080
F0.000776
sS'VERB'
p1081
F0.9664009999999998
sS'NOUN'
p1082
F0.031447
s(lp1083
(g158
I18
tp1084
atp1085
a(S'to'
p1086
(dp1087
S'NOUN'
p1088
F0.676839
sS'ADP'
p1089
F6e-06
sS'PRT'
p1090
F0.171497
sg148
F1.1e-05
sS'CONJ'
p1091
F0.101179
sS'ADJ'
p1092
F0.050467000000000005
s(lp1093
(g174
I19
tp1094
atp1095
a(S'jako'
p1096
(dp1097
S'ADV'
p1098
F0.018798
sS'CONJ'
p1099
F0.900314
sS'ADP'
p1100
F0.080888
s(lp1101
(g167
I20
tp1102
atp1103
a(S'pierwszy'
p1104
(dp1105
S'NOUN'
p1106
F8.7e-05
sS'ADJ'
p1107
F0.999914
s(lp1108
(g219
I22
tp1109
atp1110
a(S'krok'
p1111
(dp1112
S'NOUN'
p1113
F1.0
s(lp1114
(g227
I23
tp1115
atp1116
a(g132
(dp1117
g132
F1.0
s(lp1118
(g132
I24
tp1119
atp1120
asS'sl'
p1121
(lp1122
(S'za'
p1123
(dp1124
S'ADV'
p1125
F3.6e-05
sg148
F8e-06
sS'ADP'
p1126
F0.999956
s(lp1127
tp1128
a(S'to'
p1129
(dp1130
S'PRON'
p1131
F0.9999920000000001
sg148
F7e-06
s(lp1132
(g7
I0
tp1133
atp1134
a(S'skupino'
p1135
(dp1136
S'NOUN'
p1137
F1.0
s(lp1138
(g15
I1
tp1139
atp1140
a(S'je'
p1141
(dp1142
S'PRON'
p1143
F2e-05
sS'VERB'
p1144
F0.99998
sg148
F0.0
s(lp1145
(g249
I2
tp1146
atp1147
a(S'bilo'
p1148
(dp1149
S'VERB'
p1150
F1.0
s(lp1151
(g23
I4
tp1152
atp1153
a(S'tudi'
p1154
(dp1155
S'PRT'
p1156
F1.0
s(lp1157
(g30
I3
tp1158
atp1159
a(S'te\xc5\xbeje'
p1160
(dp1161
S'ADV'
p1162
F0.581993
sS'ADJ'
p1163
F0.418006
s(lp1164
(g50
I7
tp1165
atp1166
a(S'kot'
p1167
(dp1168
S'CONJ'
p1169
F0.997456
sS'NOUN'
p1170
F0.002545
s(lp1171
(g59
I8
tp1172
atp1173
a(S'za'
p1174
(dp1175
S'ADV'
p1176
F0.000226
sg148
F3e-06
sS'ADP'
p1177
F0.999772
s(lp1178
tp1179
a(S'tiste'
p1180
(dp1181
S'PRON'
p1182
F1.000001
s(lp1183
(g73
I9
tp1184
atp1185
a(S'na'
p1186
(dp1187
S'ADP'
p1188
F1.0
s(lp1189
(g89
I10
tp1190
atp1191
a(S'delovnih'
p1192
(dp1193
S'ADJ'
p1194
F0.999999
s(lp1195
tp1196
a(S'mestih'
p1197
(dp1198
S'NOUN'
p1199
F1.0
s(lp1200
(g81
I11
tp1201
atp1202
a(S'z'
p1203
(dp1204
S'ADP'
p1205
F1.0
s(lp1206
(g111
I12
tp1207
atp1208
a(S've\xc4\x8d'
p1209
(dp1210
S'ADV'
p1211
F0.986141
sS'PRT'
p1212
F0.013859
s(lp1213
(g119
I13
tp1214
atp1215
a(S'zaposlenimi'
p1216
(dp1217
S'ADJ'
p1218
F1.0
s(lp1219
(g127
I14
tp1220
atp1221
a(g130
(dp1222
g132
F1.0
s(lp1223
(g130
I15
tp1224
atp1225
a(S'toda'
p1226
(dp1227
S'CONJ'
p1228
F1.0
s(lp1229
(g140
I16
tp1230
atp1231
a(S'vidim'
p1232
(dp1233
S'VERB'
p1234
F1.0
s(lp1235
(g158
I18
tp1236
atp1237
a(g130
(dp1238
g132
F1.0
s(lp1239
tp1240
a(S'da'
p1241
(dp1242
S'PRT'
p1243
F4e-06
sS'CONJ'
p1244
F0.999979
sS'VERB'
p1245
F1.7e-05
sg148
F1e-06
s(lp1246
(g167
I20
tp1247
atp1248
a(S'je'
p1249
(dp1250
S'PRON'
p1251
F0.00121
sS'VERB'
p1252
F0.9987870000000001
sg148
F4e-06
s(lp1253
(g210
I21
tp1254
atp1255
a(S'to'
p1256
(dp1257
S'PRON'
p1258
F0.9999359999999999
sg148
F6.4e-05
s(lp1259
(g174
I19
tp1260
atp1261
a(S'prvi'
p1262
(dp1263
S'NUM'
p1264
F0.999999
s(lp1265
(g219
I22
tp1266
atp1267
a(S'korak'
p1268
(dp1269
S'NOUN'
p1270
F1.0
s(lp1271
(g227
I23
tp1272
atp1273
a(g132
(dp1274
g132
F1.0
s(lp1275
(g132
I24
tp1276
atp1277
asS'es'
p1278
(lp1279
(S'ese'
p1280
(dp1281
S'PRON'
p1282
F0.999957
sS'NOUN'
p1283
F4.3e-05
s(lp1284
(g7
I0
tp1285
atp1286
a(S'colectivo'
p1287
(dp1288
S'ADJ'
p1289
F0.004728
sS'NOUN'
p1290
F0.995272
s(lp1291
(g15
I1
tp1292
atp1293
a(S'lo'
p1294
(dp1295
S'PRON'
p1296
F0.99967
sS'DET'
p1297
F0.00033
s(lp1298
(g194
I5
tp1299
atp1300
a(S'ha'
p1301
(dp1302
S'VERB'
p1303
F1.0
s(lp1304
(g249
I2
tp1305
atp1306
a(S'tenido'
p1307
(dp1308
S'VERB'
p1309
F1.0
s(lp1310
(g23
I4
tp1311
atp1312
a(S'm\xc3\xa1s'
p1313
(dp1314
S'ADV'
p1315
F0.999598
sS'CONJ'
p1316
F0.000402
s(lp1317
(g38
I6
tp1318
atp1319
a(S'dif\xc3\xadcil'
p1320
(dp1321
S'ADJ'
p1322
F1.0
s(lp1323
(g50
I7
tp1324
atp1325
a(S'que'
p1326
(dp1327
g148
F0.0
sS'CONJ'
p1328
F1.0
s(lp1329
(g59
I8
tp1330
atp1331
a(S'las'
p1332
(dp1333
S'PRON'
p1334
F0.000108
sS'DET'
p1335
F0.999892
s(lp1336
(g73
I9
tp1337
atp1338
a(S'personas'
p1339
(dp1340
S'NOUN'
p1341
F1.0
s(lp1342
tp1343
a(S'que'
p1344
(dp1345
g148
F0.0
sS'CONJ'
p1346
F1.0
s(lp1347
tp1348
a(S'est\xc3\xa1n'
p1349
(dp1350
S'VERB'
p1351
F1.0
s(lp1352
(g73
I9
tp1353
atp1354
a(S'en'
p1355
(dp1356
g148
F0.0
sS'CONJ'
p1357
F3e-06
sS'ADP'
p1358
F0.999996
s(lp1359
(g89
I10
tp1360
atp1361
a(S'puestos'
p1362
(dp1363
S'VERB'
p1364
F0.618167
sS'NOUN'
p1365
F0.381833
s(lp1366
tp1367
a(S'de'
p1368
(dp1369
g148
F1.1e-05
sS'CONJ'
p1370
F0.000544
sS'ADP'
p1371
F0.999445
s(lp1372
tp1373
a(S'trabajo'
p1374
(dp1375
S'NOUN'
p1376
F1.0
s(lp1377
(g81
I11
tp1378
atp1379
a(S'con'
p1380
(dp1381
S'ADP'
p1382
F1.0
s(lp1383
(g111
I12
tp1384
atp1385
a(S'varios'
p1386
(dp1387
S'ADJ'
p1388
F1.0
s(lp1389
(g119
I13
tp1390
atp1391
a(S'empleados'
p1392
(dp1393
S'VERB'
p1394
F0.190093
sS'NOUN'
p1395
F0.809907
s(lp1396
(g127
I14
tp1397
atp1398
a(g130
(dp1399
g132
F1.0
s(lp1400
(g130
I15
tp1401
atp1402
a(S'pero'
p1403
(dp1404
S'CONJ'
p1405
F0.999611
sS'NOUN'
p1406
F0.000389
s(lp1407
(g140
I16
tp1408
atp1409
a(S'veo'
p1410
(dp1411
S'VERB'
p1412
F1.0
s(lp1413
(g158
I18
tp1414
atp1415
a(S'esto'
p1416
(dp1417
S'PRON'
p1418
F1.0
s(lp1419
(g174
I19
tp1420
atp1421
a(S'como'
p1422
(dp1423
S'ADV'
p1424
F0.964149
sS'CONJ'
p1425
F0.035852
s(lp1426
(g167
I20
tp1427
atp1428
a(S'un'
p1429
(dp1430
g148
F0.0
sS'DET'
p1431
F1.0
s(lp1432
(g210
I21
tp1433
atp1434
a(S'primer'
p1435
(dp1436
S'ADJ'
p1437
F1.0
s(lp1438
(g219
I22
tp1439
atp1440
a(S'paso'
p1441
(dp1442
S'NOUN'
p1443
F1.0
s(lp1444
(g227
I23
tp1445
atp1446
a(g132
(dp1447
g132
F1.0
s(lp1448
(g132
I24
tp1449
atp1450
as.