(dp0
S'fr'
p1
(lp2
(S'nous'
p3
(dp4
S'PRON'
p5
F1.0
s(lp6
tp7
a(S'souhaitons'
p8
(dp9
S'VERB'
p10
F1.0
s(lp11
(S'we'
p12
I0
tp13
atp14
a(S'\xc3\xa9galement'
p15
(dp16
S'ADV'
p17
F1.0
s(lp18
(S'also'
p19
I1
tp20
atp21
a(S'des'
p22
(dp23
S'DET'
p24
F0.000119
sS'ADP'
p25
F0.999881
s(lp26
tp27
a(S'proc\xc3\xa9dures'
p28
(dp29
S'NOUN'
p30
F1.0
s(lp31
(S'procedures'
p32
I7
tp33
atp34
a(S"d'"
p35
(dp36
S'NOUN'
p37
F0.032441
sS'VERB'
p38
F0.694014
sS'ADJ'
p39
F0.273544
s(lp40
tp41
a(S'enregistrement'
p42
(dp43
S'NOUN'
p44
F1.0
s(lp45
(S'registration'
p46
I6
tp47
atp48
a(S'et'
p49
(dp50
S'CONJ'
p51
F1.0
s(lp52
(S'and'
p53
I8
tp54
atp55
a(S'des'
p56
(dp57
S'DET'
p58
F0.000609
sS'ADP'
p59
F0.999391
s(lp60
tp61
a(S'conditions'
p62
(dp63
S'NOUN'
p64
F1.0
s(lp65
(S'conditions'
p66
I10
tp67
atp68
a(S'de'
p69
(dp70
S'ADP'
p71
F1.0
s(lp72
tp73
a(S'travail'
p74
(dp75
S'NOUN'
p76
F1.0
s(lp77
(S'working'
p78
I9
tp79
atp80
a(S'plus'
p81
(dp82
S'ADV'
p83
F0.999631
sS'VERB'
p84
F0.000369
s(lp85
tp86
a(S'faciles'
p87
(dp88
S'ADJ'
p89
F1.0
s(lp90
(S'easier'
p91
I5
tp92
atp93
a(S'pour'
p94
(dp95
S'CONJ'
p96
F0.259197
sS'ADP'
p97
F0.740803
s(lp98
(S'for'
p99
I11
tp100
atp101
a(S'les'
p102
(dp103
S'PRON'
p104
F0.000707
sS'DET'
p105
F0.999288
sS'ADP'
p106
F5e-06
s(lp107
tp108
a(S'ong'
p109
(dp110
S'ADJ'
p111
F0.021208
sS'VERB'
p112
F0.000547
sS'NOUN'
p113
F0.978246
s(lp114
(S'ngos'
p115
I12
tp116
atp117
a(S'ainsi'
p118
(dp119
S'ADV'
p120
F0.261482
sS'CONJ'
p121
F0.738518
s(lp122
(S'and'
p123
I13
tp124
atp125
a(S'que'
p126
(dp127
S'ADV'
p128
F0.022618
sS'PRON'
p129
F0.169138
sS'CONJ'
p130
F0.808244
s(lp131
(S'see'
p132
I4
tp133
atp134
a(S'la'
p135
(dp136
S'PRON'
p137
F0.010086
sS'DET'
p138
F0.989911
sS'NOUN'
p139
F4e-06
s(lp140
(S'the'
p141
I14
tp142
atp143
a(S'lev\xc3\xa9e'
p144
(dp145
S'VERB'
p146
F0.020754
sS'NOUN'
p147
F0.979246
s(lp148
(S'lifting'
p149
I15
tp150
atp151
a(S'des'
p152
(dp153
S'DET'
p154
F2.2e-05
sS'ADP'
p155
F0.999978
s(lp156
(S'of'
p157
I16
tp158
atp159
a(S'restrictions'
p160
(dp161
S'NOUN'
p162
F1.0
s(lp163
(S'restrictions'
p164
I18
tp165
atp166
a(S'de'
p167
(dp168
S'ADP'
p169
F1.0
s(lp170
(S'on'
p171
I19
tp172
atp173
a(S'la'
p174
(dp175
S'PRON'
p176
F1.2e-05
sS'DET'
p177
F0.999988
sS'NOUN'
p178
F0.0
s(lp179
(S'the'
p180
I20
tp181
atp182
a(S'libert\xc3\xa9'
p183
(dp184
S'NOUN'
p185
F1.0
s(lp186
(S'freedom'
p187
I21
tp188
atp189
a(S'de'
p190
(dp191
S'ADP'
p192
F1.0
s(lp193
(S'of'
p194
I22
tp195
atp196
a(S'militants'
p197
(dp198
S'ADJ'
p199
F1.0
s(lp200
(S'activists'
p201
I24
tp202
atp203
a(S"d'"
p204
(dp205
S'ADJ'
p206
F0.029663
sS'VERB'
p207
F0.37283
sS'NOUN'
p208
F0.597507
s(lp209
tp210
a(S'ong'
p211
(dp212
S'ADJ'
p213
F0.088595
sS'VERB'
p214
F0.021641
sS'NOUN'
p215
F0.889764
s(lp216
(S'ngo'
p217
I23
tp218
atp219
a(S'comme'
p220
(dp221
S'ADV'
p222
F0.518712
sS'CONJ'
p223
F0.481288
s(lp224
(S'like'
p225
I26
tp226
atp227
a(S','
p228
(dp229
S'.'
p230
F1.0
s(lp231
(g228
I27
tp232
atp233
a(S'par'
p234
(dp235
S'NOUN'
p236
F1e-06
sS'ADP'
p237
F0.999999
s(lp238
tp239
a(S'exemple'
p240
(dp241
S'NOUN'
p242
F1.0
s(lp243
(S'example'
p244
I29
tp245
atp246
a(g228
(dp247
g230
F1.0
s(lp248
(g228
I30
tp249
atp250
a(S'm.'
p251
(dp252
S'X'
p253
F0.451141
sS'VERB'
p254
F0.4584799999999999
sS'ADJ'
p255
F0.081167
sS'NOUN'
p256
F0.009211
s(lp257
(S'mr'
p258
I31
tp259
atp260
a(S'barazenka'
p261
(dp262
S'VERB'
p263
F0.034213
sS'NOUN'
p264
F0.965787
s(lp265
(S'barazenka'
p266
I32
tp267
atp268
a(g230
(dp269
g230
F1.0
s(lp270
(S'and'
p271
I34
tp272
atp273
a(S'nous'
p274
(dp275
S'PRON'
p276
F1.0
s(lp277
(S'we'
p278
I35
tp279
atp280
a(S'voulons'
p281
(dp282
S'VERB'
p283
F1.0
s(lp284
(g266
I32
tp285
atp286
a(S'\xc3\xa9galement'
p287
(dp288
S'ADV'
p289
F1.0
s(lp290
tp291
a(S'avoir'
p292
(dp293
S'VERB'
p294
F0.999901
sS'NOUN'
p295
F9.9e-05
s(lp296
(S'need'
p297
I36
tp298
atp299
a(S'la'
p300
(dp301
S'PRON'
p302
F6e-06
sS'DET'
p303
F0.999994
sS'NOUN'
p304
F0.0
s(lp305
(S'further'
p306
I39
tp307
atp308
a(S'preuve'
p309
(dp310
S'NOUN'
p311
F1.0
s(lp312
(S'evidence'
p313
I40
tp314
atp315
a(S'que'
p316
(dp317
S'ADV'
p318
F0.03508
sS'PRON'
p319
F0.08569500000000001
sS'CONJ'
p320
F0.879224
s(lp321
(S'that'
p322
I41
tp323
atp324
a(S'des'
p325
(dp326
S'DET'
p327
F0.000671
sS'ADP'
p328
F0.999329
s(lp329
tp330
a(S'manifestations'
p331
(dp332
S'NOUN'
p333
F1.0
s(lp334
(S'demonstrations'
p335
I43
tp336
atp337
a(S'pacifiques'
p338
(dp339
S'ADJ'
p340
F1.0
s(lp341
(S'peaceful'
p342
I42
tp343
atp344
a(S'peuvent'
p345
(dp346
S'VERB'
p347
F1.0
s(lp348
(S'can'
p349
I44
tp350
atp351
a(S'\xc3\xaatre'
p352
(dp353
S'VERB'
p354
F0.997202
sS'NOUN'
p355
F0.002798
s(lp356
(S'take'
p357
I45
tp358
atp359
a(S'organis\xc3\xa9es'
p360
(dp361
S'VERB'
p362
F1.0
s(lp363
(S'place'
p364
I46
tp365
atp366
a(S'librement'
p367
(dp368
S'ADV'
p369
F1.0
s(lp370
(S'freely'
p371
I47
tp372
atp373
a(g228
(dp374
g230
F1.0
s(lp375
(S'and'
p376
I48
tp377
atp378
a(S'sans'
p379
(dp380
S'CONJ'
p381
F0.012208
sS'ADP'
p382
F0.987792
s(lp383
(S'without'
p384
I49
tp385
atp386
a(S'craintes'
p387
(dp388
S'VERB'
p389
F0.006789
sS'NOUN'
p390
F0.993211
s(lp391
(S'fearing'
p392
I51
tp393
atp394
a(S"d'"
p395
(dp396
S'NOUN'
p397
F0.035354
sS'VERB'
p398
F0.6917000000000002
sS'ADJ'
p399
F0.272945
s(lp400
(S'need'
p401
I2
tp402
atp403
a(S'arrestation'
p404
(dp405
S'NOUN'
p406
F1.0
s(lp407
(S'arrest'
p408
I52
tp409
atp410
a(S'pour'
p411
(dp412
S'CONJ'
p413
F0.162139
sS'ADP'
p414
F0.837861
s(lp415
(S'to'
p416
I3
tp417
atp418
a(S'les'
p419
(dp420
S'PRON'
p421
F0.000127
sS'DET'
p422
F0.999869
sS'ADP'
p423
F3e-06
s(lp424
(S'participants'
p425
I50
tp426
atp427
a(S'manifestants'
p428
(dp429
S'NOUN'
p430
F1.0
s(lp431
(g266
I32
tp432
atp433
a(g230
(dp434
g230
F1.0
s(lp435
(g230
I53
tp436
atp437
asS'en'
p438
(lp439
(g12
(dp440
S'PRON'
p441
F1.0
s(lp442
(g12
I0
tp443
atp444
a(g19
(dp445
S'ADV'
p446
F1.0
s(lp447
(g19
I1
tp448
atp449
a(g401
(dp450
S'VERB'
p451
F0.971502
sS'NOUN'
p452
F0.028498
s(lp453
(g401
I2
tp454
atp455
a(g416
(dp456
S'ADV'
p457
F0.0
sS'PRT'
p458
F1.0
sS'ADP'
p459
F0.0
s(lp460
(g416
I3
tp461
atp462
a(g132
(dp463
S'VERB'
p464
F0.999993
sS'NOUN'
p465
F7e-06
s(lp466
(g132
I4
tp467
atp468
a(g91
(dp469
S'ADV'
p470
F0.002286
sS'ADJ'
p471
F0.997714
s(lp472
(g91
I5
tp473
atp474
a(g46
(dp475
S'NOUN'
p476
F1.0
s(lp477
(g46
I6
tp478
atp479
a(g32
(dp480
S'NOUN'
p481
F1.0
s(lp482
(g32
I7
tp483
atp484
a(g53
(dp485
S'CONJ'
p486
F1.0
sS'NOUN'
p487
F0.0
s(lp488
(g53
I8
tp489
atp490
a(g78
(dp491
S'NOUN'
p492
F0.020845
sS'VERB'
p493
F0.766172
sS'ADJ'
p494
F0.212984
s(lp495
(g78
I9
tp496
atp497
a(g66
(dp498
S'VERB'
p499
F9e-06
sS'NOUN'
p500
F0.999991
s(lp501
(g66
I10
tp502
atp503
a(g99
(dp504
S'ADP'
p505
F1.0
s(lp506
(g99
I11
tp507
atp508
a(g115
(dp509
S'NOUN'
p510
F1.0
s(lp511
(g115
I12
tp512
atp513
a(g123
(dp514
S'CONJ'
p515
F1.0
sS'NOUN'
p516
F0.0
s(lp517
(g123
I13
tp518
atp519
a(g141
(dp520
S'NOUN'
p521
F2e-06
sS'DET'
p522
F0.999998
s(lp523
(g141
I14
tp524
atp525
a(g149
(dp526
S'VERB'
p527
F0.08962
sS'NOUN'
p528
F0.91038
s(lp529
(g149
I15
tp530
atp531
a(g157
(dp532
S'ADP'
p533
F1.0
s(lp534
(g157
I16
tp535
atp536
a(S'the'
p537
(dp538
S'NOUN'
p539
F1.1e-05
sS'DET'
p540
F0.999989
s(lp541
(g537
I17
tp542
atp543
a(g164
(dp544
S'NOUN'
p545
F1.0
s(lp546
(g164
I18
tp547
atp548
a(g171
(dp549
S'ADV'
p550
F0.000757
sS'PRT'
p551
F0.000439
sS'ADJ'
p552
F0.0
sS'ADP'
p553
F0.998804
sS'NOUN'
p554
F0.0
s(lp555
(g171
I19
tp556
atp557
a(g180
(dp558
S'NOUN'
p559
F1e-06
sS'DET'
p560
F0.999999
s(lp561
(g180
I20
tp562
atp563
a(g187
(dp564
S'NOUN'
p565
F1.0
s(lp566
(g187
I21
tp567
atp568
a(g194
(dp569
S'ADP'
p570
F1.0
s(lp571
(g194
I22
tp572
atp573
a(g217
(dp574
S'NOUN'
p575
F1.0
s(lp576
(g217
I23
tp577
atp578
a(g201
(dp579
S'NOUN'
p580
F1.0
s(lp581
(g201
I24
tp582
atp583
a(S'-'
p584
(dp585
g230
F1.0
s(lp586
(g584
I25
tp587
atp588
a(g225
(dp589
S'VERB'
p590
F0.36361299999999996
sS'ADJ'
p591
F0.052738
sS'ADP'
p592
F0.583648
s(lp593
(g225
I26
tp594
atp595
a(g228
(dp596
g230
F1.0
s(lp597
(g228
I27
tp598
atp599
a(S'for'
p600
(dp601
S'ADP'
p602
F1.0
s(lp603
(g600
I28
tp604
atp605
a(g244
(dp606
S'NOUN'
p607
F1.0
s(lp608
(g244
I29
tp609
atp610
a(g228
(dp611
g230
F1.0
s(lp612
(g228
I30
tp613
atp614
a(g258
(dp615
S'ADJ'
p616
F0.017376
sS'NOUN'
p617
F0.982623
s(lp618
(g258
I31
tp619
atp620
a(g266
(dp621
S'ADV'
p622
F0.000499
sS'ADJ'
p623
F0.000243
sS'VERB'
p624
F0.0027
sS'NOUN'
p625
F0.9965579999999999
s(lp626
(g266
I32
tp627
atp628
a(g584
(dp629
g230
F1.0
s(lp630
(g584
I33
tp631
atp632
a(g271
(dp633
S'CONJ'
p634
F0.999998
sS'NOUN'
p635
F2e-06
s(lp636
(g271
I34
tp637
atp638
a(g278
(dp639
S'PRON'
p640
F1.0
s(lp641
(g278
I35
tp642
atp643
a(g297
(dp644
S'VERB'
p645
F0.999992
sS'NOUN'
p646
F7e-06
s(lp647
(g297
I36
tp648
atp649
a(S'to'
p650
(dp651
S'ADV'
p652
F0.0
sS'PRT'
p653
F1.0
sS'ADP'
p654
F0.0
s(lp655
(g650
I37
tp656
atp657
a(S'see'
p658
(dp659
S'VERB'
p660
F0.999993
sS'NOUN'
p661
F7e-06
s(lp662
(g658
I38
tp663
atp664
a(g306
(dp665
S'ADV'
p666
F0.039709
sS'VERB'
p667
F0.000213
sS'ADJ'
p668
F0.960078
s(lp669
(g306
I39
tp670
atp671
a(g313
(dp672
S'VERB'
p673
F0.000204
sS'NOUN'
p674
F0.999796
s(lp675
(g313
I40
tp676
atp677
a(g322
(dp678
S'ADV'
p679
F0.001983
sS'DET'
p680
F0.218877
sS'ADP'
p681
F0.77914
s(lp682
(g322
I41
tp683
atp684
a(g342
(dp685
S'ADJ'
p686
F1.0
s(lp687
(g342
I42
tp688
atp689
a(g335
(dp690
S'NOUN'
p691
F1.0
s(lp692
(g335
I43
tp693
atp694
a(g349
(dp695
S'VERB'
p696
F0.999999
sS'NOUN'
p697
F1e-06
s(lp698
(g349
I44
tp699
atp700
a(g357
(dp701
S'VERB'
p702
F0.999998
sS'NOUN'
p703
F1e-06
s(lp704
(g357
I45
tp705
atp706
a(g364
(dp707
S'VERB'
p708
F0.099252
sS'NOUN'
p709
F0.900748
s(lp710
(g364
I46
tp711
atp712
a(g371
(dp713
S'ADV'
p714
F1.0
s(lp715
(g371
I47
tp716
atp717
a(g376
(dp718
S'CONJ'
p719
F0.999939
sS'NOUN'
p720
F6.1e-05
s(lp721
(g376
I48
tp722
atp723
a(g384
(dp724
S'ADP'
p725
F1.0
s(lp726
(g384
I49
tp727
atp728
a(g425
(dp729
S'NOUN'
p730
F1.0
s(lp731
(g425
I50
tp732
atp733
a(g392
(dp734
S'VERB'
p735
F1.0
s(lp736
(g392
I51
tp737
atp738
a(g408
(dp739
S'VERB'
p740
F0.012372
sS'NOUN'
p741
F0.987628
s(lp742
(g408
I52
tp743
atp744
a(g230
(dp745
g230
F1.0
s(lp746
(g230
I53
tp747
atp748
asS'nl'
p749
(lp750
(S'daarnaast'
p751
(dp752
S'ADV'
p753
F1.0
s(lp754
(g19
I1
tp755
atp756
a(S'moeten'
p757
(dp758
S'VERB'
p759
F0.9999589999999999
sS'NOUN'
p760
F4.1e-05
s(lp761
(g401
I2
tp762
atp763
a(S'de'
p764
(dp765
S'DET'
p766
F1.0
s(lp767
tp768
a(S'registratieprocedures'
p769
(dp770
S'NOUN'
p771
F1.0
s(lp772
(g46
I6
tp773
atp774
a(S'en'
p775
(dp776
S'CONJ'
p777
F1.0
s(lp778
(g53
I8
tp779
atp780
a(S'werkomstandigheden'
p781
(dp782
S'NOUN'
p783
F1.0
s(lp784
(g78
I9
tp785
atp786
a(S'voor'
p787
(dp788
S'ADV'
p789
F0.000857
sS'CONJ'
p790
F2e-06
sS'NOUN'
p791
F0.0
sS'ADP'
p792
F0.999141
s(lp793
(g99
I11
tp794
atp795
a(S'ngo'
p796
(dp797
S'NOUN'
p798
F1.0
s(lp799
(g115
I12
tp800
atp801
a(S"'"
p802
(dp803
g230
F1.0
s(lp804
tp805
a(S's'
p806
(dp807
S'NOUN'
p808
F1.0
s(lp809
(g115
I12
tp810
atp811
a(S'gemakkelijker'
p812
(dp813
S'ADJ'
p814
F1.0
s(lp815
(g91
I5
tp816
atp817
a(S'worden'
p818
(dp819
S'VERB'
p820
F0.999933
sS'NOUN'
p821
F6.7e-05
s(lp822
(g266
I32
tp823
atp824
a(S'en'
p825
(dp826
S'CONJ'
p827
F1.0
s(lp828
(g123
I13
tp829
atp830
a(S'moeten'
p831
(dp832
S'VERB'
p833
F0.999958
sS'NOUN'
p834
F4.2e-05
s(lp835
(g149
I15
tp836
atp837
a(S'de'
p838
(dp839
S'DET'
p840
F1.0
s(lp841
(g537
I17
tp842
atp843
a(S'beperkingen'
p844
(dp845
S'NOUN'
p846
F1.0
s(lp847
tp848
a(S'die'
p849
(dp850
S'PRON'
p851
F1.0
s(lp852
tp853
a(S'worden'
p854
(dp855
S'VERB'
p856
F1.0
sS'NOUN'
p857
F1e-06
s(lp858
(g266
I32
tp859
atp860
a(S'opgelegd'
p861
(dp862
S'VERB'
p863
F1.0
s(lp864
(g164
I18
tp865
atp866
a(S'aan'
p867
(dp868
S'ADV'
p869
F0.000278
sS'ADP'
p870
F0.999722
s(lp871
(g171
I19
tp872
atp873
a(S'de'
p874
(dp875
S'DET'
p876
F1.0
s(lp877
(g180
I20
tp878
atp879
a(S'vrijheid'
p880
(dp881
S'NOUN'
p882
F1.0
s(lp883
(g187
I21
tp884
atp885
a(S'van'
p886
(dp887
S'ADP'
p888
F1.0
s(lp889
tp890
a(S'activisten'
p891
(dp892
S'NOUN'
p893
F1.0
s(lp894
(g201
I24
tp895
atp896
a(S'van'
p897
(dp898
S'ADP'
p899
F1.0
s(lp900
(g194
I22
tp901
atp902
a(S'ngo'
p903
(dp904
S'NOUN'
p905
F1.0
s(lp906
(g217
I23
tp907
atp908
a(g802
(dp909
g230
F1.0
s(lp910
tp911
a(g806
(dp912
S'NOUN'
p913
F1.0
s(lp914
(g217
I23
tp915
atp916
a(g584
(dp917
g230
F1.0
s(lp918
(g584
I25
tp919
atp920
a(S'zoals'
p921
(dp922
S'CONJ'
p923
F1.0
s(lp924
(g225
I26
tp925
atp926
a(S'bijvoorbeeld'
p927
(dp928
S'ADV'
p929
F1.0
s(lp930
(g244
I29
tp931
atp932
a(S'de'
p933
(dp934
S'DET'
p935
F1.0
s(lp936
tp937
a(S'heer'
p938
(dp939
S'NOUN'
p940
F1.0
s(lp941
(g258
I31
tp942
atp943
a(S'barazenka'
p944
(dp945
S'NOUN'
p946
F1.0
s(lp947
(g266
I32
tp948
atp949
a(g584
(dp950
g230
F1.0
s(lp951
(g584
I33
tp952
atp953
a(S'worden'
p954
(dp955
S'VERB'
p956
F0.999999
sS'NOUN'
p957
F1e-06
s(lp958
tp959
a(S'opgeheven'
p960
(dp961
S'VERB'
p962
F1.0
s(lp963
(g266
I32
tp964
atp965
a(g230
(dp966
g230
F1.0
s(lp967
(g271
I34
tp968
atp969
a(S'verder'
p970
(dp971
S'ADV'
p972
F0.005458
sS'ADJ'
p973
F0.994542
s(lp974
(g278
I35
tp975
atp976
a(S'is'
p977
(dp978
S'VERB'
p979
F1.0
s(lp980
tp981
a(S'er'
p982
(dp983
S'ADV'
p984
F1.0
s(lp985
(g658
I38
tp986
atp987
a(S'meer'
p988
(dp989
S'ADV'
p990
F0.879775
sS'NUM'
p991
F0.120085
sS'NOUN'
p992
F2.4e-05
sS'VERB'
p993
F0.000116
s(lp994
(g306
I39
tp995
atp996
a(S'bewijs'
p997
(dp998
S'VERB'
p999
F0.006302
sS'NOUN'
p1000
F0.993698
s(lp1001
(g313
I40
tp1002
atp1003
a(S'nodig'
p1004
(dp1005
S'VERB'
p1006
F0.079033
sS'ADJ'
p1007
F0.920967
s(lp1008
(g297
I36
tp1009
atp1010
a(S'dat'
p1011
(dp1012
S'PRON'
p1013
F0.132357
sS'CONJ'
p1014
F0.867643
s(lp1015
(g322
I41
tp1016
atp1017
a(S'vreedzame'
p1018
(dp1019
S'NOUN'
p1020
F0.000191
sS'ADJ'
p1021
F0.999809
s(lp1022
(g342
I42
tp1023
atp1024
a(S'demonstraties'
p1025
(dp1026
S'NOUN'
p1027
F1.0
s(lp1028
(g335
I43
tp1029
atp1030
a(S'vrij'
p1031
(dp1032
S'ADV'
p1033
F0.521141
sS'NOUN'
p1034
F0.004264
sS'VERB'
p1035
F0.003348
sS'ADJ'
p1036
F0.471248
s(lp1037
(g371
I47
tp1038
atp1039
a(S'kunnen'
p1040
(dp1041
S'VERB'
p1042
F0.999746
sS'NOUN'
p1043
F0.000255
s(lp1044
(g349
I44
tp1045
atp1046
a(S'plaatsvinden'
p1047
(dp1048
S'VERB'
p1049
F0.999886
sS'NOUN'
p1050
F0.000114
s(lp1051
(g364
I46
tp1052
atp1053
a(g228
(dp1054
g230
F1.0
s(lp1055
(g376
I48
tp1056
atp1057
a(S'zonder'
p1058
(dp1059
S'CONJ'
p1060
F0.003924
sS'ADP'
p1061
F0.996076
s(lp1062
(g384
I49
tp1063
atp1064
a(S'dat'
p1065
(dp1066
S'PRON'
p1067
F0.984485
sS'CONJ'
p1068
F0.015515
s(lp1069
tp1070
a(S'deelnemers'
p1071
(dp1072
S'NOUN'
p1073
F1.0
s(lp1074
(g425
I50
tp1075
atp1076
a(S'bang'
p1077
(dp1078
S'ADJ'
p1079
F1.0
s(lp1080
(g392
I51
tp1081
atp1082
a(S'hoeven'
p1083
(dp1084
S'VERB'
p1085
F0.020697
sS'NOUN'
p1086
F0.979303
s(lp1087
(g392
I51
tp1088
atp1089
a(S'te'
p1090
(dp1091
S'PRT'
p1092
F1.0
s(lp1093
(g650
I37
tp1094
atp1095
a(S'zijn'
p1096
(dp1097
S'PRON'
p1098
F0.000946
sS'VERB'
p1099
F0.999054
sS'NOUN'
p1100
F0.0
s(lp1101
tp1102
a(S'voor'
p1103
(dp1104
S'ADV'
p1105
F0.000163
sS'CONJ'
p1106
F1.6e-05
sS'NOUN'
p1107
F0.0
sS'ADP'
p1108
F0.99982
s(lp1109
(g392
I51
tp1110
atp1111
a(S'arrestatie'
p1112
(dp1113
S'NOUN'
p1114
F1.0
s(lp1115
(g408
I52
tp1116
atp1117
a(g230
(dp1118
g230
F1.0
s(lp1119
(g230
I53
tp1120
atp1121
asS'de'
p1122
(lp1123
(S'auch'
p1124
(dp1125
S'ADV'
p1126
F1.0
s(lp1127
(g19
I1
tp1128
atp1129
a(S'm\xc3\xbcssen'
p1130
(dp1131
S'VERB'
p1132
F0.999999
s(lp1133
tp1134
a(S'wir'
p1135
(dp1136
S'PRON'
p1137
F1.0
s(lp1138
(g12
I0
tp1139
atp1140
a(S'vereinfachte'
p1141
(dp1142
S'VERB'
p1143
F0.096889
sS'ADJ'
p1144
F0.903111
s(lp1145
(g266
I32
tp1146
atp1147
a(S'registrierungsverfahren'
p1148
(dp1149
S'ADJ'
p1150
F0.024627
sS'NOUN'
p1151
F0.971751
s(lp1152
(g46
I6
tp1153
atp1154
a(S'und'
p1155
(dp1156
S'CONJ'
p1157
F1.0
s(lp1158
(g53
I8
tp1159
atp1160
a(S'arbeitsbedingungen'
p1161
(dp1162
S'ADJ'
p1163
F0.338969
sS'NOUN'
p1164
F0.553593
s(lp1165
(g66
I10
tp1166
atp1167
a(S'f\xc3\xbcr'
p1168
(dp1169
S'ADP'
p1170
F1.0
s(lp1171
(g99
I11
tp1172
atp1173
a(S'nro'
p1174
(dp1175
S'NOUN'
p1176
F0.9992300000000001
s(lp1177
(g115
I12
tp1178
atp1179
a(S'sehen'
p1180
(dp1181
S'VERB'
p1182
F1.0
s(lp1183
(g132
I4
tp1184
atp1185
a(g228
(dp1186
g230
F1.0
s(lp1187
(g416
I3
tp1188
atp1189
a(S'die'
p1190
(dp1191
S'PRON'
p1192
F0.178948
sS'DET'
p1193
F0.809183
s(lp1194
(g537
I17
tp1195
atp1196
a(S'einschr\xc3\xa4nkungen'
p1197
(dp1198
S'VERB'
p1199
F0.052502
sS'NOUN'
p1200
F0.909799
s(lp1201
(g164
I18
tp1202
atp1203
a(S'der'
p1204
(dp1205
S'PRON'
p1206
F0.000117
sS'DET'
p1207
F0.999849
s(lp1208
(g180
I20
tp1209
atp1210
a(S'freiheit'
p1211
(dp1212
S'ADJ'
p1213
F0.016278
sS'NOUN'
p1214
F0.967719
s(lp1215
(g187
I21
tp1216
atp1217
a(S'von'
p1218
(dp1219
S'NOUN'
p1220
F0.00095
sS'ADP'
p1221
F0.99905
s(lp1222
(g194
I22
tp1223
atp1224
a(S'nro-aktivisten'
p1225
(dp1226
S'ADJ'
p1227
F0.052879
sS'NOUN'
p1228
F0.946569
s(lp1229
(g266
I32
tp1230
atp1231
a(g584
(dp1232
g230
F1.0
s(lp1233
(g584
I25
tp1234
atp1235
a(S'wie'
p1236
(dp1237
S'CONJ'
p1238
F0.999824
s(lp1239
(g225
I26
tp1240
atp1241
a(S'beispielsweise'
p1242
(dp1243
S'ADV'
p1244
F0.818411
sS'ADJ'
p1245
F0.181589
s(lp1246
(g244
I29
tp1247
atp1248
a(S'herrn'
p1249
(dp1250
S'ADJ'
p1251
F0.024979
sS'NOUN'
p1252
F0.956925
s(lp1253
(g258
I31
tp1254
atp1255
a(S'barazenka'
p1256
(dp1257
S'ADJ'
p1258
F0.3078
sS'NOUN'
p1259
F0.587779
s(lp1260
(g266
I32
tp1261
atp1262
a(g584
(dp1263
g230
F1.0
s(lp1264
(g228
I30
tp1265
atp1266
a(S'm\xc3\xbcssen'
p1267
(dp1268
S'VERB'
p1269
F0.999927
s(lp1270
(g401
I2
tp1271
atp1272
a(S'aufgehoben'
p1273
(dp1274
S'VERB'
p1275
F1.0
s(lp1276
(g149
I15
tp1277
atp1278
a(S'werden'
p1279
(dp1280
S'VERB'
p1281
F0.999996
s(lp1282
(g266
I32
tp1283
atp1284
a(g228
(dp1285
g230
F1.0
s(lp1286
(g584
I33
tp1287
atp1288
a(S'und'
p1289
(dp1290
S'CONJ'
p1291
F1.0
s(lp1292
(g271
I34
tp1293
atp1294
a(S'wir'
p1295
(dp1296
S'PRON'
p1297
F1.0
s(lp1298
(g278
I35
tp1299
atp1300
a(S'ben\xc3\xb6tigen'
p1301
(dp1302
S'VERB'
p1303
F1.0
s(lp1304
(g297
I36
tp1305
atp1306
a(S'weitere'
p1307
(dp1308
S'ADJ'
p1309
F1.0
s(lp1310
(g306
I39
tp1311
atp1312
a(S'beweise'
p1313
(dp1314
S'VERB'
p1315
F1.0
s(lp1316
(g313
I40
tp1317
atp1318
a(g228
(dp1319
g230
F1.0
s(lp1320
tp1321
a(S'dass'
p1322
(dp1323
S'CONJ'
p1324
F1.0
s(lp1325
(g322
I41
tp1326
atp1327
a(S'friedliche'
p1328
(dp1329
S'ADJ'
p1330
F1.0
s(lp1331
(g342
I42
tp1332
atp1333
a(S'demonstrationen'
p1334
(dp1335
S'VERB'
p1336
F2.9e-05
sS'NOUN'
p1337
F0.999913
s(lp1338
(g335
I43
tp1339
atp1340
a(S'frei'
p1341
(dp1342
S'PRT'
p1343
F0.00888
sS'ADJ'
p1344
F0.99112
s(lp1345
(g371
I47
tp1346
atp1347
a(S'abgehalten'
p1348
(dp1349
S'VERB'
p1350
F1.0
s(lp1351
(g266
I32
tp1352
atp1353
a(S'werden'
p1354
(dp1355
S'VERB'
p1356
F0.999918
s(lp1357
(g266
I32
tp1358
atp1359
a(S'k\xc3\xb6nnen'
p1360
(dp1361
S'VERB'
p1362
F0.99981
s(lp1363
(g349
I44
tp1364
atp1365
a(g228
(dp1366
g230
F1.0
s(lp1367
tp1368
a(S'ohne'
p1369
(dp1370
S'CONJ'
p1371
F0.893092
sS'ADP'
p1372
F0.106908
s(lp1373
(g384
I49
tp1374
atp1375
a(S'dass'
p1376
(dp1377
S'CONJ'
p1378
F1.0
s(lp1379
(g392
I51
tp1380
atp1381
a(S'die'
p1382
(dp1383
S'PRON'
p1384
F0.001002
sS'DET'
p1385
F0.998867
s(lp1386
(g141
I14
tp1387
atp1388
a(S'demonstranten'
p1389
(dp1390
S'ADJ'
p1391
F0.039786
sS'NOUN'
p1392
F0.96007
s(lp1393
tp1394
a(S'ihre'
p1395
(dp1396
S'PRON'
p1397
F1.0
s(lp1398
(g266
I32
tp1399
atp1400
a(S'verhaftung'
p1401
(dp1402
S'ADJ'
p1403
F8.9e-05
sS'NOUN'
p1404
F0.999854
s(lp1405
(g408
I52
tp1406
atp1407
a(S'f\xc3\xbcrchten'
p1408
(dp1409
S'VERB'
p1410
F1.0
s(lp1411
tp1412
a(S'm\xc3\xbcssen'
p1413
(dp1414
S'VERB'
p1415
F0.9998589999999999
s(lp1416
(g392
I51
tp1417
atp1418
a(g230
(dp1419
g230
F1.0
s(lp1420
(g230
I53
tp1421
atp1422
asS'it'
p1423
(lp1424
(S'vogliamo'
p1425
(dp1426
S'VERB'
p1427
F1.0
s(lp1428
(g12
I0
tp1429
atp1430
a(S'altres\xc3\xac'
p1431
(dp1432
S'ADV'
p1433
F1.0
s(lp1434
(g19
I1
tp1435
atp1436
a(S'che'
p1437
(dp1438
S'PRON'
p1439
F0.874103
sS'CONJ'
p1440
F0.119733
sS'ADJ'
p1441
F0.006164
s(lp1442
(g132
I4
tp1443
atp1444
a(S'le'
p1445
(dp1446
S'PRON'
p1447
F0.000345
sS'DET'
p1448
F0.999655
s(lp1449
tp1450
a(S'procedure'
p1451
(dp1452
S'NOUN'
p1453
F1.0
s(lp1454
(g32
I7
tp1455
atp1456
a(S'di'
p1457
(dp1458
S'CONJ'
p1459
F4e-06
sS'ADP'
p1460
F0.999996
s(lp1461
(g416
I3
tp1462
atp1463
a(S'registrazione'
p1464
(dp1465
S'NOUN'
p1466
F1.0
s(lp1467
(g46
I6
tp1468
atp1469
a(S'e'
p1470
(dp1471
S'CONJ'
p1472
F1.0
s(lp1473
(g53
I8
tp1474
atp1475
a(S'le'
p1476
(dp1477
S'PRON'
p1478
F0.000278
sS'DET'
p1479
F0.999722
s(lp1480
tp1481
a(S'condizioni'
p1482
(dp1483
S'VERB'
p1484
F0.000268
sS'NOUN'
p1485
F0.999732
s(lp1486
(g66
I10
tp1487
atp1488
a(S'di'
p1489
(dp1490
S'CONJ'
p1491
F4e-06
sS'ADP'
p1492
F0.999996
s(lp1493
tp1494
a(S'lavoro'
p1495
(dp1496
S'VERB'
p1497
F1.3e-05
sS'NOUN'
p1498
F0.999987
s(lp1499
(g78
I9
tp1500
atp1501
a(S'per'
p1502
(dp1503
S'CONJ'
p1504
F0.052955
sS'ADP'
p1505
F0.947045
s(lp1506
(g99
I11
tp1507
atp1508
a(S'le'
p1509
(dp1510
S'PRON'
p1511
F7.6e-05
sS'DET'
p1512
F0.999924
s(lp1513
(g115
I12
tp1514
atp1515
a(S'organizzazioni'
p1516
(dp1517
S'NOUN'
p1518
F1.0
s(lp1519
(g115
I12
tp1520
atp1521
a(S'non'
p1522
(dp1523
S'ADV'
p1524
F1.0
s(lp1525
tp1526
a(S'governative'
p1527
(dp1528
S'ADJ'
p1529
F1.0
s(lp1530
(g115
I12
tp1531
atp1532
a(S'siano'
p1533
(dp1534
S'VERB'
p1535
F1.0
s(lp1536
(g266
I32
tp1537
atp1538
a(S'pi\xc3\xb9'
p1539
(dp1540
S'ADV'
p1541
F0.997273
sS'NOUN'
p1542
F2.6e-05
sS'ADJ'
p1543
F0.00232
sS'ADP'
p1544
F0.000381
s(lp1545
(g91
I5
tp1546
atp1547
a(S'semplici'
p1548
(dp1549
S'NOUN'
p1550
F0.036612
sS'ADJ'
p1551
F0.963388
s(lp1552
(g266
I32
tp1553
atp1554
a(g1470
(dp1555
S'CONJ'
p1556
F1.0
s(lp1557
(g123
I13
tp1558
atp1559
a(S'che'
p1560
(dp1561
S'PRON'
p1562
F0.995661
sS'CONJ'
p1563
F0.00416
sS'ADJ'
p1564
F0.000179
s(lp1565
tp1566
a(S'siano'
p1567
(dp1568
S'VERB'
p1569
F1.0
s(lp1570
(g266
I32
tp1571
atp1572
a(S'revocate'
p1573
(dp1574
S'VERB'
p1575
F1.0
s(lp1576
(g266
I32
tp1577
atp1578
a(S'le'
p1579
(dp1580
S'PRON'
p1581
F0.0
sS'DET'
p1582
F1.0
s(lp1583
(g141
I14
tp1584
atp1585
a(S'restrizioni'
p1586
(dp1587
S'NOUN'
p1588
F1.0
s(lp1589
(g164
I18
tp1590
atp1591
a(S'sulla'
p1592
(dp1593
S'NOUN'
p1594
F5e-06
sS'ADP'
p1595
F0.999995
s(lp1596
(g171
I19
tp1597
atp1598
a(S'libert\xc3\xa0'
p1599
(dp1600
S'NOUN'
p1601
F1.0
s(lp1602
(g187
I21
tp1603
atp1604
a(S'degli'
p1605
(dp1606
S'DEF'
p1607
F0.001796
sS'ADP'
p1608
F0.998204
s(lp1609
(g194
I22
tp1610
atp1611
a(S'attivisti'
p1612
(dp1613
S'NOUN'
p1614
F1.0
s(lp1615
tp1616
a(S'delle'
p1617
(dp1618
S'DEF'
p1619
F0.001048
sS'ADP'
p1620
F0.998952
s(lp1621
(g217
I23
tp1622
atp1623
a(S'organizzazioni'
p1624
(dp1625
S'NOUN'
p1626
F1.0
s(lp1627
(g266
I32
tp1628
atp1629
a(S'non'
p1630
(dp1631
S'ADV'
p1632
F1.0
s(lp1633
(g266
I32
tp1634
atp1635
a(S'governative'
p1636
(dp1637
S'ADJ'
p1638
F1.0
s(lp1639
(g266
I32
tp1640
atp1641
a(g228
(dp1642
g230
F1.0
s(lp1643
(g228
I27
tp1644
atp1645
a(S'ad'
p1646
(dp1647
S'ADP'
p1648
F1.0
s(lp1649
tp1650
a(S'esempio'
p1651
(dp1652
S'NOUN'
p1653
F1.0
s(lp1654
(g244
I29
tp1655
atp1656
a(S'per'
p1657
(dp1658
S'CONJ'
p1659
F0.052952
sS'ADP'
p1660
F0.947048
s(lp1661
(g201
I24
tp1662
atp1663
a(S'il'
p1664
(dp1665
S'DET'
p1666
F1.0
s(lp1667
tp1668
a(S'signor'
p1669
(dp1670
S'NOUN'
p1671
F1.0
s(lp1672
(g258
I31
tp1673
atp1674
a(S'barazenka'
p1675
(dp1676
S'NOUN'
p1677
F0.064544
sS'VERB'
p1678
F0.016806
sS'ADJ'
p1679
F0.918651
s(lp1680
tp1681
a(g228
(dp1682
g230
F1.0
s(lp1683
(g584
I33
tp1684
atp1685
a(g1470
(dp1686
S'CONJ'
p1687
F1.0
s(lp1688
(g271
I34
tp1689
atp1690
a(S'vogliamo'
p1691
(dp1692
S'VERB'
p1693
F0.9999999999999999
s(lp1694
(g278
I35
tp1695
atp1696
a(S'ulteriori'
p1697
(dp1698
S'ADJ'
p1699
F1.0
s(lp1700
(g306
I39
tp1701
atp1702
a(S'prove'
p1703
(dp1704
S'NOUN'
p1705
F1.0
s(lp1706
(g313
I40
tp1707
atp1708
a(S'che'
p1709
(dp1710
S'PRON'
p1711
F0.89297
sS'CONJ'
p1712
F0.105048
sS'ADJ'
p1713
F0.001982
s(lp1714
tp1715
a(S'le'
p1716
(dp1717
S'PRON'
p1718
F0.00035
sS'DET'
p1719
F0.99965
s(lp1720
tp1721
a(S'manifestazioni'
p1722
(dp1723
S'NOUN'
p1724
F1.0
s(lp1725
(g335
I43
tp1726
atp1727
a(S'non'
p1728
(dp1729
S'ADV'
p1730
F1.0
s(lp1731
tp1732
a(S'violente'
p1733
(dp1734
S'NOUN'
p1735
F0.009976
sS'ADJ'
p1736
F0.990024
s(lp1737
(g266
I32
tp1738
atp1739
a(S'possano'
p1740
(dp1741
S'VERB'
p1742
F1.0
s(lp1743
(g349
I44
tp1744
atp1745
a(S'svolgersi'
p1746
(dp1747
S'VERB'
p1748
F1.0
s(lp1749
(g364
I46
tp1750
atp1751
a(S'pacificamente'
p1752
(dp1753
S'ADV'
p1754
F1.0
s(lp1755
(g342
I42
tp1756
atp1757
a(S'senza'
p1758
(dp1759
S'CONJ'
p1760
F0.370843
sS'ADP'
p1761
F0.629157
s(lp1762
(g384
I49
tp1763
atp1764
a(S'che'
p1765
(dp1766
S'PRON'
p1767
F0.988091
sS'CONJ'
p1768
F0.010437
sS'ADJ'
p1769
F0.001472
s(lp1770
(g322
I41
tp1771
atp1772
a(S'i'
p1773
(dp1774
S'DET'
p1775
F1.0
s(lp1776
tp1777
a(S'partecipanti'
p1778
(dp1779
S'ADJ'
p1780
F0.462168
sS'VERB'
p1781
F0.010943
sS'NOUN'
p1782
F0.526889
s(lp1783
(g425
I50
tp1784
atp1785
a(S'temano'
p1786
(dp1787
S'VERB'
p1788
F1.0
s(lp1789
(g392
I51
tp1790
atp1791
a(S'di'
p1792
(dp1793
S'CONJ'
p1794
F1e-06
sS'ADP'
p1795
F0.999999
s(lp1796
tp1797
a(S'essere'
p1798
(dp1799
S'VERB'
p1800
F0.99953
sS'NOUN'
p1801
F0.00047
s(lp1802
tp1803
a(S'arrestati'
p1804
(dp1805
S'NOUN'
p1806
F0.033068
sS'VERB'
p1807
F0.7939160000000001
sS'ADJ'
p1808
F0.173016
s(lp1809
(g408
I52
tp1810
atp1811
a(g230
(dp1812
g230
F1.0
s(lp1813
(g230
I53
tp1814
atp1815
asS'sk'
p1816
(lp1817
(S'chceme'
p1818
(dp1819
S'VERB'
p1820
F1.0
s(lp1821
(g12
I0
tp1822
atp1823
a(S'tie\xc5\xbe'
p1824
(dp1825
g253
F1.0
s(lp1826
(g19
I1
tp1827
atp1828
a(S'vidie\xc5\xa5'
p1829
(dp1830
S'VERB'
p1831
F1.0
s(lp1832
(g132
I4
tp1833
atp1834
a(S'zjednodu\xc5\xa1en\xc3\xa9'
p1835
(dp1836
S'VERB'
p1837
F1.0
s(lp1838
(g91
I5
tp1839
atp1840
a(S'registra\xc4\x8dn\xc3\xa9'
p1841
(dp1842
S'ADJ'
p1843
F1.0
s(lp1844
(g46
I6
tp1845
atp1846
a(S'procesy'
p1847
(dp1848
S'NOUN'
p1849
F1.0
s(lp1850
(g32
I7
tp1851
atp1852
a(S'a'
p1853
(dp1854
g253
F0.0007100000000000001
sS'CONJ'
p1855
F0.998492
sS'NOUN'
p1856
F7.8e-05
sS'ADP'
p1857
F0.000634
sS'PRT'
p1858
F8.5e-05
s(lp1859
(g53
I8
tp1860
atp1861
a(S'pracovn\xc3\xa9'
p1862
(dp1863
S'ADJ'
p1864
F1.0
s(lp1865
(g78
I9
tp1866
atp1867
a(S'podmienky'
p1868
(dp1869
S'NOUN'
p1870
F1.0
s(lp1871
(g66
I10
tp1872
atp1873
a(S'pre'
p1874
(dp1875
g253
F3e-06
sS'ADP'
p1876
F0.999997
s(lp1877
(g99
I11
tp1878
atp1879
a(S'mimovl\xc3\xa1dne'
p1880
(dp1881
S'ADJ'
p1882
F1.0
s(lp1883
tp1884
a(S'organiz\xc3\xa1cie'
p1885
(dp1886
S'NOUN'
p1887
F1.0
s(lp1888
(g115
I12
tp1889
atp1890
a(g1853
(dp1891
g253
F0.001061
sS'CONJ'
p1892
F0.998179
sS'NOUN'
p1893
F7.7e-05
sS'ADP'
p1894
F0.000652
sS'PRT'
p1895
F3.1e-05
s(lp1896
(g123
I13
tp1897
atp1898
a(S'zru\xc5\xa1enie'
p1899
(dp1900
S'NOUN'
p1901
F1.0
s(lp1902
(g149
I15
tp1903
atp1904
a(S'obmedzen\xc3\xad'
p1905
(dp1906
S'VERB'
p1907
F0.218226
sS'NOUN'
p1908
F0.781775
s(lp1909
(g164
I18
tp1910
atp1911
a(S'slobody'
p1912
(dp1913
S'NOUN'
p1914
F1.0
s(lp1915
(g187
I21
tp1916
atp1917
a(S'aktivistov'
p1918
(dp1919
S'NOUN'
p1920
F1.0
s(lp1921
(g201
I24
tp1922
atp1923
a(S'mimovl\xc3\xa1dnych'
p1924
(dp1925
S'ADJ'
p1926
F1.0
s(lp1927
tp1928
a(S'organiz\xc3\xa1ci\xc3\xad'
p1929
(dp1930
S'NOUN'
p1931
F1.0
s(lp1932
(g217
I23
tp1933
atp1934
a(g584
(dp1935
g230
F1.0
s(lp1936
(g584
I25
tp1937
atp1938
a(S'ako'
p1939
(dp1940
S'PRON'
p1941
F0.085075
sS'CONJ'
p1942
F0.913592
sg253
F0.001333
s(lp1943
(g225
I26
tp1944
atp1945
a(S'napr\xc3\xadklad'
p1946
(dp1947
g253
F1.0
s(lp1948
(g244
I29
tp1949
atp1950
a(S'p\xc3\xa1na'
p1951
(dp1952
g253
F0.0030499999999999998
sS'NOUN'
p1953
F0.99695
s(lp1954
(g258
I31
tp1955
atp1956
a(S'barazenka'
p1957
(dp1958
S'ADJ'
p1959
F0.000485
sS'NOUN'
p1960
F0.9995160000000001
s(lp1961
(g266
I32
tp1962
atp1963
a(g584
(dp1964
g230
F1.0
s(lp1965
(g584
I33
tp1966
atp1967
a(g1853
(dp1968
g253
F0.0015919999999999999
sS'CONJ'
p1969
F0.998385
sS'NOUN'
p1970
F1e-06
sS'ADP'
p1971
F0.0
sS'PRT'
p1972
F2.2e-05
s(lp1973
(g271
I34
tp1974
atp1975
a(S'mus\xc3\xadme'
p1976
(dp1977
S'VERB'
p1978
F1.0
s(lp1979
(g297
I36
tp1980
atp1981
a(S'vidie\xc5\xa5'
p1982
(dp1983
S'VERB'
p1984
F1.0
s(lp1985
(g658
I38
tp1986
atp1987
a(S'\xc4\x8fal\xc5\xa1\xc3\xad'
p1988
(dp1989
S'ADJ'
p1990
F1.0
s(lp1991
(g306
I39
tp1992
atp1993
a(S'd\xc3\xb4kaz'
p1994
(dp1995
S'NOUN'
p1996
F1.0
s(lp1997
tp1998
a(S'toho'
p1999
(dp2000
S'PRON'
p2001
F0.997449
sg253
F0.002551
s(lp2002
(g313
I40
tp2003
atp2004
a(g228
(dp2005
g230
F1.0
s(lp2006
tp2007
a(S'\xc5\xbee'
p2008
(dp2009
g253
F0.0008539999999999999
sS'CONJ'
p2010
F0.999146
s(lp2011
(g322
I41
tp2012
atp2013
a(S'pokojn\xc3\xa9'
p2014
(dp2015
S'ADJ'
p2016
F1.0
s(lp2017
(g342
I42
tp2018
atp2019
a(S'demon\xc5\xa1tr\xc3\xa1cie'
p2020
(dp2021
S'NOUN'
p2022
F1.0
s(lp2023
(g335
I43
tp2024
atp2025
a(S'sa'
p2026
(dp2027
S'PRT'
p2028
F0.999978
sS'ADP'
p2029
F0.0
sg253
F2.2e-05
s(lp2030
(g357
I45
tp2031
atp2032
a(S'm\xc3\xb4\xc5\xbeu'
p2033
(dp2034
S'VERB'
p2035
F1.0
s(lp2036
(g349
I44
tp2037
atp2038
a(S'uskuto\xc4\x8d\xc5\x88ova\xc5\xa5'
p2039
(dp2040
S'VERB'
p2041
F1.0
s(lp2042
(g364
I46
tp2043
atp2044
a(S'slobodne'
p2045
(dp2046
S'ADV'
p2047
F1.0
s(lp2048
(g371
I47
tp2049
atp2050
a(g1853
(dp2051
g253
F0.002604
sS'CONJ'
p2052
F0.996172
sS'NOUN'
p2053
F5.6999999999999996e-05
sS'ADP'
p2054
F1e-06
sS'PRT'
p2055
F0.001166
s(lp2056
(g376
I48
tp2057
atp2058
a(S'bez'
p2059
(dp2060
g253
F0.00014
sS'ADP'
p2061
F0.99986
s(lp2062
(g384
I49
tp2063
atp2064
a(S'toho'
p2065
(dp2066
S'PRON'
p2067
F0.99983
sg253
F0.00017
s(lp2068
tp2069
a(g228
(dp2070
g230
F1.0
s(lp2071
tp2072
a(S'aby'
p2073
(dp2074
g253
F6.7e-05
sS'CONJ'
p2075
F0.999933
s(lp2076
(g384
I49
tp2077
atp2078
a(S'sa'
p2079
(dp2080
S'PRT'
p2081
F0.999943
sS'ADP'
p2082
F4.2e-05
sg253
F1.4e-05
s(lp2083
tp2084
a(S'\xc3\xba\xc4\x8dastn\xc3\xadci'
p2085
(dp2086
S'NOUN'
p2087
F1.0
s(lp2088
(g425
I50
tp2089
atp2090
a(S'b\xc3\xa1li'
p2091
(dp2092
S'VERB'
p2093
F1.0
s(lp2094
(g392
I51
tp2095
atp2096
a(S'uv\xc3\xa4znenia'
p2097
(dp2098
S'ADV'
p2099
F0.001438
sS'VERB'
p2100
F0.0061259999999999995
sS'NOUN'
p2101
F0.992435
s(lp2102
(g408
I52
tp2103
atp2104
a(g230
(dp2105
g230
F1.0
s(lp2106
(g230
I53
tp2107
atp2108
asS'pl'
p2109
(lp2110
(S'oczekujemy'
p2111
(dp2112
S'VERB'
p2113
F1.0
s(lp2114
(g12
I0
tp2115
atp2116
a(S'r\xc3\xb3wnie\xc5\xbc'
p2117
(dp2118
S'PRT'
p2119
F0.973049
sS'CONJ'
p2120
F0.026951
s(lp2121
(g19
I1
tp2122
atp2123
a(g228
(dp2124
g253
F0.0
sg230
F1.0
s(lp2125
tp2126
a(S'\xc5\xbce'
p2127
(dp2128
S'PRT'
p2129
F0.00046100000000000004
sS'CONJ'
p2130
F0.999539
s(lp2131
(g132
I4
tp2132
atp2133
a(S'procedury'
p2134
(dp2135
S'NOUN'
p2136
F1.0000010000000001
s(lp2137
(g32
I7
tp2138
atp2139
a(S'rejestrowania'
p2140
(dp2141
S'VERB'
p2142
F1.0
s(lp2143
(g46
I6
tp2144
atp2145
a(g1773
(dp2146
S'PRT'
p2147
F0.004801
sS'CONJ'
p2148
F0.9951
sS'NOUN'
p2149
F4.9999999999999996e-06
sg253
F2e-06
sS'PRON'
p2150
F9.099999999999999e-05
s(lp2151
(g53
I8
tp2152
atp2153
a(S'warunki'
p2154
(dp2155
S'NOUN'
p2156
F1.0
s(lp2157
(g66
I10
tp2158
atp2159
a(S'pracy'
p2160
(dp2161
S'NOUN'
p2162
F1.0
s(lp2163
(g78
I9
tp2164
atp2165
a(S'organizacji'
p2166
(dp2167
S'NOUN'
p2168
F1.0
s(lp2169
tp2170
a(S'pozarz\xc4\x85dowych'
p2171
(dp2172
S'ADJ'
p2173
F1.0
s(lp2174
(g115
I12
tp2175
atp2176
a(S'b\xc4\x99d\xc4\x85'
p2177
(dp2178
S'VERB'
p2179
F1.0
s(lp2180
(g266
I32
tp2181
atp2182
a(S'\xc5\x82atwiejsze'
p2183
(dp2184
S'ADJ'
p2185
F1.0
s(lp2186
(g91
I5
tp2187
atp2188
a(S'oraz'
p2189
(dp2190
S'CONJ'
p2191
F1.0
s(lp2192
(g271
I34
tp2193
atp2194
a(S'\xc5\xbce'
p2195
(dp2196
S'PRT'
p2197
F0.009807999999999999
sS'CONJ'
p2198
F0.990191
s(lp2199
(g278
I35
tp2200
atp2201
a(S'zniesione'
p2202
(dp2203
S'ADV'
p2204
F0.013225
sS'NOUN'
p2205
F0.06109900000000001
sS'VERB'
p2206
F0.7230809999999998
sS'ADJ'
p2207
F0.20259099999999997
s(lp2208
(g266
I32
tp2209
atp2210
a(S'zostan\xc4\x85'
p2211
(dp2212
S'VERB'
p2213
F1.0
s(lp2214
(g266
I32
tp2215
atp2216
a(S'ograniczenia'
p2217
(dp2218
S'VERB'
p2219
F0.507728
sS'NOUN'
p2220
F0.492272
s(lp2221
(g164
I18
tp2222
atp2223
a(S'wolno\xc5\x9bci'
p2224
(dp2225
S'NOUN'
p2226
F0.999999
s(lp2227
(g187
I21
tp2228
atp2229
a(S'dzia\xc5\x82aczy'
p2230
(dp2231
S'NOUN'
p2232
F1.0
s(lp2233
(g201
I24
tp2234
atp2235
a(S'organizacji'
p2236
(dp2237
S'NOUN'
p2238
F1.0
s(lp2239
tp2240
a(S'pozarz\xc4\x85dowych'
p2241
(dp2242
S'ADJ'
p2243
F1.0
s(lp2244
(g217
I23
tp2245
atp2246
a(S'takich'
p2247
(dp2248
S'ADJ'
p2249
F0.9999999999999999
s(lp2250
tp2251
a(S'jak'
p2252
(dp2253
S'ADV'
p2254
F0.494023
sS'PRT'
p2255
F0.000471
sS'CONJ'
p2256
F0.047217
sS'ADP'
p2257
F0.45828
sS'PRON'
p2258
F1e-05
s(lp2259
(g225
I26
tp2260
atp2261
a(g228
(dp2262
g253
F0.0
sg230
F1.0
s(lp2263
(g228
I27
tp2264
atp2265
a(S'na'
p2266
(dp2267
g253
F5.5e-05
sS'VERB'
p2268
F2.9e-05
sS'NOUN'
p2269
F2e-06
sS'ADP'
p2270
F0.9999
sS'PRT'
p2271
F1.3e-05
s(lp2272
(g600
I28
tp2273
atp2274
a(S'przyk\xc5\x82ad'
p2275
(dp2276
S'NOUN'
p2277
F1.0
s(lp2278
(g244
I29
tp2279
atp2280
a(g228
(dp2281
g253
F0.0
sg230
F1.0
s(lp2282
(g228
I30
tp2283
atp2284
a(S'pan'
p2285
(dp2286
g253
F0.000255
sS'NOUN'
p2287
F0.999745
s(lp2288
(g258
I31
tp2289
atp2290
a(S'barazenka'
p2291
(dp2292
S'ADJ'
p2293
F0.00303
sS'VERB'
p2294
F0.059273
sS'NOUN'
p2295
F0.937697
s(lp2296
(g266
I32
tp2297
atp2298
a(g230
(dp2299
g230
F1.0
s(lp2300
(g584
I33
tp2301
atp2302
a(S'musimy'
p2303
(dp2304
S'VERB'
p2305
F1.0
s(lp2306
(g297
I36
tp2307
atp2308
a(S'zobaczy\xc4\x87'
p2309
(dp2310
S'VERB'
p2311
F1.0
s(lp2312
(g658
I38
tp2313
atp2314
a(S'dalsze'
p2315
(dp2316
S'ADJ'
p2317
F0.9999999999999998
s(lp2318
(g306
I39
tp2319
atp2320
a(S'dowody'
p2321
(dp2322
S'NOUN'
p2323
F1.0
s(lp2324
tp2325
a(S'na'
p2326
(dp2327
S'PRT'
p2328
F6e-06
sS'VERB'
p2329
F4e-06
sS'NOUN'
p2330
F1e-06
sS'ADP'
p2331
F0.999989
sg253
F0.0
s(lp2332
(g313
I40
tp2333
atp2334
a(S'to'
p2335
(dp2336
S'NOUN'
p2337
F0.969627
sS'ADP'
p2338
F0.0
sS'PRT'
p2339
F0.000825
sg253
F1.5e-05
sS'CONJ'
p2340
F6e-05
sS'ADJ'
p2341
F0.029473000000000003
s(lp2342
tp2343
a(g228
(dp2344
g253
F0.0
sg230
F1.0
s(lp2345
tp2346
a(S'\xc5\xbce'
p2347
(dp2348
S'PRT'
p2349
F0.000224
sS'CONJ'
p2350
F0.999776
s(lp2351
(g322
I41
tp2352
atp2353
a(S'demonstracje'
p2354
(dp2355
S'NOUN'
p2356
F1.0
s(lp2357
(g335
I43
tp2358
atp2359
a(S'pokojowe'
p2360
(dp2361
S'ADJ'
p2362
F0.9999999999999999
s(lp2363
(g342
I42
tp2364
atp2365
a(S'mog\xc4\x85'
p2366
(dp2367
S'VERB'
p2368
F1.0
s(lp2369
(g349
I44
tp2370
atp2371
a(S'odbywa\xc4\x87'
p2372
(dp2373
S'VERB'
p2374
F1.0
s(lp2375
(g357
I45
tp2376
atp2377
a(S'si\xc4\x99'
p2378
(dp2379
S'PRT'
p2380
F1.0
s(lp2381
(g364
I46
tp2382
atp2383
a(S'bez'
p2384
(dp2385
S'NOUN'
p2386
F0.000157
sS'ADP'
p2387
F0.9998429999999999
s(lp2388
tp2389
a(S'ogranicze\xc5\x84'
p2390
(dp2391
S'NOUN'
p2392
F1.0
s(lp2393
(g371
I47
tp2394
atp2395
a(g228
(dp2396
g253
F0.0
sg230
F1.0
s(lp2397
tp2398
a(g1853
(dp2399
S'ADV'
p2400
F2.2e-05
sS'NOUN'
p2401
F8.499999999999999e-05
sS'ADP'
p2402
F0.000175
sS'PRT'
p2403
F0.000212
sS'VERB'
p2404
F5.9000000000000004e-05
sg253
F0.00016
sS'CONJ'
p2405
F0.999274
sS'ADJ'
p2406
F9.999999999999999e-06
s(lp2407
(g376
I48
tp2408
atp2409
a(S'ich'
p2410
(dp2411
S'PRON'
p2412
F0.9999969999999999
sg253
F2e-06
s(lp2413
tp2414
a(S'uczestnicy'
p2415
(dp2416
S'NOUN'
p2417
F1.0
s(lp2418
(g425
I50
tp2419
atp2420
a(S'nie'
p2421
(dp2422
S'ADV'
p2423
F2.8e-05
sS'PRT'
p2424
F0.99243
sS'CONJ'
p2425
F0.00752
sS'NOUN'
p2426
F2e-06
sS'PRON'
p2427
F1.9e-05
s(lp2428
(g384
I49
tp2429
atp2430
a(S'musz\xc4\x85'
p2431
(dp2432
S'VERB'
p2433
F1.0
s(lp2434
tp2435
a(S'obawia\xc4\x87'
p2436
(dp2437
S'VERB'
p2438
F1.0
s(lp2439
(g266
I32
tp2440
atp2441
a(S'si\xc4\x99'
p2442
(dp2443
S'PRT'
p2444
F1.0
s(lp2445
(g392
I51
tp2446
atp2447
a(S'aresztowa\xc5\x84'
p2448
(dp2449
S'NOUN'
p2450
F1.0
s(lp2451
(g408
I52
tp2452
atp2453
a(g230
(dp2454
g230
F1.0
s(lp2455
(g230
I53
tp2456
atp2457
asS'sl'
p2458
(lp2459
(S'videti'
p2460
(dp2461
S'VERB'
p2462
F1.0
s(lp2463
(g132
I4
tp2464
atp2465
a(S'moramo'
p2466
(dp2467
S'VERB'
p2468
F1.0
s(lp2469
(g401
I2
tp2470
atp2471
a(S'tudi'
p2472
(dp2473
S'PRT'
p2474
F1.0
s(lp2475
(g19
I1
tp2476
atp2477
a(S'la\xc5\xbeje'
p2478
(dp2479
S'ADV'
p2480
F0.54666
sS'ADJ'
p2481
F0.45334100000000005
s(lp2482
(g91
I5
tp2483
atp2484
a(S'postopke'
p2485
(dp2486
S'NOUN'
p2487
F1.0
s(lp2488
(g32
I7
tp2489
atp2490
a(S'za'
p2491
(dp2492
S'ADV'
p2493
F1.3e-05
sg253
F7e-06
sS'ADP'
p2494
F0.99998
s(lp2495
(g416
I3
tp2496
atp2497
a(S'registracijo'
p2498
(dp2499
S'NOUN'
p2500
F1.0
s(lp2501
(g46
I6
tp2502
atp2503
a(S'in'
p2504
(dp2505
S'ADV'
p2506
F9.6e-05
sg253
F5e-06
sS'CONJ'
p2507
F0.999888
sS'NOUN'
p2508
F1.1e-05
s(lp2509
(g53
I8
tp2510
atp2511
a(S'delovne'
p2512
(dp2513
S'ADJ'
p2514
F1.0
s(lp2515
(g78
I9
tp2516
atp2517
a(S'pogoje'
p2518
(dp2519
S'NOUN'
p2520
F1.0
s(lp2521
(g66
I10
tp2522
atp2523
a(S'nevladnih'
p2524
(dp2525
S'ADJ'
p2526
F1.0
s(lp2527
tp2528
a(S'organizacij'
p2529
(dp2530
S'NOUN'
p2531
F1.0
s(lp2532
(g115
I12
tp2533
atp2534
a(S'ter'
p2535
(dp2536
S'CONJ'
p2537
F1.0
s(lp2538
(g123
I13
tp2539
atp2540
a(S'prenehanje'
p2541
(dp2542
S'NOUN'
p2543
F1.0
s(lp2544
(g266
I32
tp2545
atp2546
a(S'omejevanja'
p2547
(dp2548
S'NOUN'
p2549
F1.0
s(lp2550
(g164
I18
tp2551
atp2552
a(S'svobode'
p2553
(dp2554
S'NOUN'
p2555
F1.0
s(lp2556
(g187
I21
tp2557
atp2558
a(S'aktivistov'
p2559
(dp2560
S'NOUN'
p2561
F1.0
s(lp2562
(g201
I24
tp2563
atp2564
a(S'nevladnih'
p2565
(dp2566
S'ADJ'
p2567
F1.0
s(lp2568
tp2569
a(S'organizacij'
p2570
(dp2571
S'NOUN'
p2572
F1.0
s(lp2573
(g217
I23
tp2574
atp2575
a(g584
(dp2576
g230
F1.0
s(lp2577
(g584
I25
tp2578
atp2579
a(S'kot'
p2580
(dp2581
S'CONJ'
p2582
F0.998683
sS'NOUN'
p2583
F0.001317
s(lp2584
(g225
I26
tp2585
atp2586
a(S'je'
p2587
(dp2588
S'PRON'
p2589
F0.004216
sS'VERB'
p2590
F0.995783
sg253
F1e-06
s(lp2591
(g228
I27
tp2592
atp2593
a(S'na'
p2594
(dp2595
S'ADP'
p2596
F1.0
s(lp2597
tp2598
a(S'primer'
p2599
(dp2600
S'NOUN'
p2601
F1.0
s(lp2602
(g244
I29
tp2603
atp2604
a(S'gospod'
p2605
(dp2606
S'NOUN'
p2607
F1.0
s(lp2608
(g258
I31
tp2609
atp2610
a(S'barazenka'
p2611
(dp2612
S'ADV'
p2613
F0.000337
sS'ADJ'
p2614
F0.011659000000000001
sS'VERB'
p2615
F0.006025
sS'NOUN'
p2616
F0.981978
s(lp2617
tp2618
a(g584
(dp2619
g230
F1.0
s(lp2620
(g584
I33
tp2621
atp2622
a(S'in'
p2623
(dp2624
S'ADV'
p2625
F0.001498
sg253
F0.000242
sS'CONJ'
p2626
F0.998091
sS'NOUN'
p2627
F0.000169
s(lp2628
(g271
I34
tp2629
atp2630
a(S'dobiti'
p2631
(dp2632
S'VERB'
p2633
F1.0
s(lp2634
(g266
I32
tp2635
atp2636
a(S'moramo'
p2637
(dp2638
S'VERB'
p2639
F1.0
s(lp2640
(g297
I36
tp2641
atp2642
a(S'nadaljnje'
p2643
(dp2644
S'ADJ'
p2645
F1.000001
s(lp2646
(g306
I39
tp2647
atp2648
a(S'dokaze'
p2649
(dp2650
S'NOUN'
p2651
F1.0
s(lp2652
(g313
I40
tp2653
atp2654
a(g228
(dp2655
g230
F1.0
s(lp2656
tp2657
a(S'da'
p2658
(dp2659
S'PRT'
p2660
F0.000272
sS'CONJ'
p2661
F0.999225
sS'VERB'
p2662
F0.000501
sg253
F2e-06
s(lp2663
(g322
I41
tp2664
atp2665
a(S'lahko'
p2666
(dp2667
S'ADV'
p2668
F0.996829
sS'ADJ'
p2669
F0.003172
s(lp2670
(g349
I44
tp2671
atp2672
a(S'mirne'
p2673
(dp2674
S'ADJ'
p2675
F1.0
s(lp2676
(g342
I42
tp2677
atp2678
a(S'demonstracije'
p2679
(dp2680
S'ADJ'
p2681
F0.0
sS'VERB'
p2682
F0.0
sS'NOUN'
p2683
F1.0
s(lp2684
(g335
I43
tp2685
atp2686
a(S'potekajo'
p2687
(dp2688
S'VERB'
p2689
F1.0
s(lp2690
(g364
I46
tp2691
atp2692
a(S'svobodno'
p2693
(dp2694
S'ADV'
p2695
F0.423922
sS'ADJ'
p2696
F0.5760780000000001
s(lp2697
(g371
I47
tp2698
atp2699
a(S'in'
p2700
(dp2701
S'ADV'
p2702
F0.000253
sg253
F2e-06
sS'CONJ'
p2703
F0.999735
sS'NOUN'
p2704
F9e-06
s(lp2705
(g376
I48
tp2706
atp2707
a(S'ne'
p2708
(dp2709
S'PRT'
p2710
F0.988854
sS'CONJ'
p2711
F0.010508
sg253
F0.000638
s(lp2712
(g384
I49
tp2713
atp2714
a(S'da'
p2715
(dp2716
S'PRT'
p2717
F0.009291
sS'CONJ'
p2718
F0.987554
sS'VERB'
p2719
F0.00315
sg253
F5e-06
s(lp2720
(g416
I3
tp2721
atp2722
a(S'bi'
p2723
(dp2724
g253
F2e-06
sS'VERB'
p2725
F0.999998
s(lp2726
tp2727
a(S'se'
p2728
(dp2729
S'PRON'
p2730
F0.999998
sg253
F2e-06
s(lp2731
(g416
I3
tp2732
atp2733
a(S'udele\xc5\xbeenci'
p2734
(dp2735
S'NOUN'
p2736
F1.0
s(lp2737
(g425
I50
tp2738
atp2739
a(S'bali'
p2740
(dp2741
S'VERB'
p2742
F1.0
s(lp2743
(g392
I51
tp2744
atp2745
a(S'aretacije'
p2746
(dp2747
S'NOUN'
p2748
F1.0
s(lp2749
(g408
I52
tp2750
atp2751
a(g230
(dp2752
g230
F1.0
s(lp2753
(g230
I53
tp2754
atp2755
asS'es'
p2756
(lp2757
(S'hemos'
p2758
(dp2759
S'VERB'
p2760
F1.0
s(lp2761
(g12
I0
tp2762
atp2763
a(S'de'
p2764
(dp2765
g253
F0.0
sS'CONJ'
p2766
F0.304403
sS'ADP'
p2767
F0.695597
s(lp2768
(g416
I3
tp2769
atp2770
a(S'observar'
p2771
(dp2772
S'VERB'
p2773
F1.0
s(lp2774
(g266
I32
tp2775
atp2776
a(g228
(dp2777
g230
F1.0
s(lp2778
(g584
I33
tp2779
atp2780
a(S'asimismo'
p2781
(dp2782
S'ADV'
p2783
F1.0
s(lp2784
(g266
I32
tp2785
atp2786
a(g228
(dp2787
g230
F1.0
s(lp2788
tp2789
a(S'que'
p2790
(dp2791
g253
F4e-06
sS'CONJ'
p2792
F0.999996
s(lp2793
(g132
I4
tp2794
atp2795
a(S'existen'
p2796
(dp2797
S'VERB'
p2798
F1.0
s(lp2799
(g266
I32
tp2800
atp2801
a(S'condiciones'
p2802
(dp2803
S'NOUN'
p2804
F1.0
s(lp2805
(g66
I10
tp2806
atp2807
a(S'de'
p2808
(dp2809
g253
F2.9e-05
sS'CONJ'
p2810
F0.000449
sS'ADP'
p2811
F0.999522
s(lp2812
tp2813
a(S'trabajo'
p2814
(dp2815
S'NOUN'
p2816
F1.0
s(lp2817
(g78
I9
tp2818
atp2819
a(S'y'
p2820
(dp2821
g253
F0.001008
sS'CONJ'
p2822
F0.998992
s(lp2823
(g53
I8
tp2824
atp2825
a(S'procedimientos'
p2826
(dp2827
S'NOUN'
p2828
F1.0
s(lp2829
(g32
I7
tp2830
atp2831
a(S'de'
p2832
(dp2833
g253
F2.9e-05
sS'CONJ'
p2834
F0.000449
sS'ADP'
p2835
F0.999522
s(lp2836
tp2837
a(S'autorizaci\xc3\xb3n'
p2838
(dp2839
S'NOUN'
p2840
F1.0
s(lp2841
tp2842
a(S'de'
p2843
(dp2844
g253
F2.9e-05
sS'CONJ'
p2845
F0.000449
sS'ADP'
p2846
F0.999522
s(lp2847
tp2848
a(S'registro'
p2849
(dp2850
S'NOUN'
p2851
F1.0
s(lp2852
(g46
I6
tp2853
atp2854
a(S'm\xc3\xa1s'
p2855
(dp2856
S'ADV'
p2857
F0.999993
sS'CONJ'
p2858
F7e-06
s(lp2859
tp2860
a(S'sencillos'
p2861
(dp2862
S'ADJ'
p2863
F1.0
s(lp2864
(g91
I5
tp2865
atp2866
a(S'para'
p2867
(dp2868
S'CONJ'
p2869
F0.002186
sS'ADP'
p2870
F0.997814
s(lp2871
(g99
I11
tp2872
atp2873
a(S'las'
p2874
(dp2875
S'PRON'
p2876
F0.0
sS'DET'
p2877
F1.0
s(lp2878
tp2879
a(S'ong'
p2880
(dp2881
S'ADJ'
p2882
F0.008391
sS'NOUN'
p2883
F0.9916079999999999
s(lp2884
(g115
I12
tp2885
atp2886
a(S'as\xc3\xad'
p2887
(dp2888
S'CONJ'
p2889
F1.0
s(lp2890
tp2891
a(S'como'
p2892
(dp2893
S'CONJ'
p2894
F1.0
s(lp2895
(g123
I13
tp2896
atp2897
a(S'la'
p2898
(dp2899
g253
F0.0
sS'DET'
p2900
F1.0
sS'NOUN'
p2901
F0.0
sS'PRON'
p2902
F0.0
s(lp2903
(g141
I14
tp2904
atp2905
a(S'eliminaci\xc3\xb3n'
p2906
(dp2907
S'NOUN'
p2908
F1.0
s(lp2909
(g149
I15
tp2910
atp2911
a(S'de'
p2912
(dp2913
g253
F0.0
sS'CONJ'
p2914
F1.7e-05
sS'ADP'
p2915
F0.999983
s(lp2916
(g157
I16
tp2917
atp2918
a(S'las'
p2919
(dp2920
S'PRON'
p2921
F0.0
sS'DET'
p2922
F1.0
s(lp2923
(g537
I17
tp2924
atp2925
a(S'restricciones'
p2926
(dp2927
S'NOUN'
p2928
F1.0
s(lp2929
(g164
I18
tp2930
atp2931
a(g1853
(dp2932
g253
F0.000427
sS'CONJ'
p2933
F3e-06
sS'ADP'
p2934
F0.99957
s(lp2935
(g171
I19
tp2936
atp2937
a(S'la'
p2938
(dp2939
g253
F0.0
sS'PRON'
p2940
F0.0
sS'DET'
p2941
F0.999999
sS'NOUN'
p2942
F0.0
s(lp2943
(g180
I20
tp2944
atp2945
a(S'libertad'
p2946
(dp2947
S'NOUN'
p2948
F1.0
s(lp2949
(g187
I21
tp2950
atp2951
a(S'de'
p2952
(dp2953
g253
F0.0
sS'CONJ'
p2954
F1.7e-05
sS'ADP'
p2955
F0.999983
s(lp2956
(g194
I22
tp2957
atp2958
a(S'los'
p2959
(dp2960
S'PRON'
p2961
F0.0
sS'DET'
p2962
F1.0
s(lp2963
tp2964
a(S'activistas'
p2965
(dp2966
S'NOUN'
p2967
F1.0
s(lp2968
(g201
I24
tp2969
atp2970
a(S'miembros'
p2971
(dp2972
S'NOUN'
p2973
F1.0
s(lp2974
(g217
I23
tp2975
atp2976
a(S'de'
p2977
(dp2978
g253
F0.0
sS'CONJ'
p2979
F1.7e-05
sS'ADP'
p2980
F0.999983
s(lp2981
tp2982
a(S'las'
p2983
(dp2984
S'PRON'
p2985
F0.0
sS'DET'
p2986
F1.0
s(lp2987
tp2988
a(S'ong'
p2989
(dp2990
S'ADJ'
p2991
F0.000341
sS'NOUN'
p2992
F0.999659
s(lp2993
(g217
I23
tp2994
atp2995
a(S'-como'
p2996
(dp2997
S'ADV'
p2998
F0.026443
sS'NOUN'
p2999
F0.034031
sS'VERB'
p3000
F0.017637
sS'ADJ'
p3001
F0.92189
s(lp3002
(g584
I25
tp3003
atp3004
a(g228
(dp3005
g230
F1.0
s(lp3006
(g228
I27
tp3007
atp3008
a(S'por'
p3009
(dp3010
S'ADV'
p3011
F1.0
s(lp3012
(g600
I28
tp3013
atp3014
a(S'ejemplo'
p3015
(dp3016
S'ADV'
p3017
F1.0
s(lp3018
(g244
I29
tp3019
atp3020
a(g228
(dp3021
g230
F1.0
s(lp3022
(g228
I30
tp3023
atp3024
a(S'el'
p3025
(dp3026
S'PRON'
p3027
F1e-05
sS'DET'
p3028
F0.99999
s(lp3029
tp3030
a(S'se\xc3\xb1or'
p3031
(dp3032
S'NOUN'
p3033
F1.0
s(lp3034
(g258
I31
tp3035
atp3036
a(S'barazenka-'
p3037
(dp3038
S'ADJ'
p3039
F0.095107
sS'VERB'
p3040
F0.32672599999999996
sS'NOUN'
p3041
F0.578167
s(lp3042
(g266
I32
tp3043
atp3044
a(g2820
(dp3045
g253
F0.000882
sS'CONJ'
p3046
F0.999118
s(lp3047
(g271
I34
tp3048
atp3049
a(S'debemos'
p3050
(dp3051
S'VERB'
p3052
F1.0
s(lp3053
(g278
I35
tp3054
atp3055
a(S'ser'
p3056
(dp3057
S'VERB'
p3058
F0.999304
sS'NOUN'
p3059
F0.000696
s(lp3060
(g297
I36
tp3061
atp3062
a(S'testigos'
p3063
(dp3064
S'NOUN'
p3065
F1.0
s(lp3066
(g658
I38
tp3067
atp3068
a(S'de'
p3069
(dp3070
g253
F0.0
sS'CONJ'
p3071
F1.7e-05
sS'ADP'
p3072
F0.999983
s(lp3073
(g650
I37
tp3074
atp3075
a(S'una'
p3076
(dp3077
S'DET'
p3078
F1.0
s(lp3079
tp3080
a(S'mayor'
p3081
(dp3082
S'ADJ'
p3083
F1.0
s(lp3084
(g306
I39
tp3085
atp3086
a(S'evidencia'
p3087
(dp3088
S'VERB'
p3089
F1.0
s(lp3090
(g313
I40
tp3091
atp3092
a(S'de'
p3093
(dp3094
g253
F0.0
sS'CONJ'
p3095
F0.008492
sS'ADP'
p3096
F0.991508
s(lp3097
tp3098
a(S'que'
p3099
(dp3100
g253
F0.0
sS'CONJ'
p3101
F1.0
s(lp3102
(g322
I41
tp3103
atp3104
a(S'las'
p3105
(dp3106
S'PRON'
p3107
F0.000108
sS'DET'
p3108
F0.999892
s(lp3109
tp3110
a(S'demostraciones'
p3111
(dp3112
S'NOUN'
p3113
F1.0
s(lp3114
(g335
I43
tp3115
atp3116
a(S'pac\xc3\xadficas'
p3117
(dp3118
S'ADJ'
p3119
F1.0
s(lp3120
(g342
I42
tp3121
atp3122
a(S'pueden'
p3123
(dp3124
S'VERB'
p3125
F1.0
s(lp3126
(g349
I44
tp3127
atp3128
a(S'desarrollarse'
p3129
(dp3130
S'VERB'
p3131
F1.0
s(lp3132
(g364
I46
tp3133
atp3134
a(S'libremente'
p3135
(dp3136
S'ADV'
p3137
F1.0
s(lp3138
(g371
I47
tp3139
atp3140
a(g2820
(dp3141
g253
F0.005103
sS'CONJ'
p3142
F0.994897
s(lp3143
(g376
I48
tp3144
atp3145
a(S'sin'
p3146
(dp3147
S'ADP'
p3148
F1.0
s(lp3149
(g384
I49
tp3150
atp3151
a(S'que'
p3152
(dp3153
g253
F0.0
sS'CONJ'
p3154
F1.0
s(lp3155
(g392
I51
tp3156
atp3157
a(S'los'
p3158
(dp3159
S'PRON'
p3160
F0.000948
sS'DET'
p3161
F0.999052
s(lp3162
tp3163
a(S'participantes'
p3164
(dp3165
S'VERB'
p3166
F0.031155
sS'NOUN'
p3167
F0.968845
s(lp3168
(g425
I50
tp3169
atp3170
a(S'teman'
p3171
(dp3172
S'VERB'
p3173
F1.0
s(lp3174
(g266
I32
tp3175
atp3176
a(S'ser'
p3177
(dp3178
S'VERB'
p3179
F0.999695
sS'NOUN'
p3180
F0.000305
s(lp3181
tp3182
a(S'arrestados'
p3183
(dp3184
S'VERB'
p3185
F1.0
s(lp3186
(g266
I32
tp3187
atp3188
a(g230
(dp3189
g230
F1.0
s(lp3190
(g230
I53
tp3191
atp3192
as.