(dp0
S'fr'
p1
(lp2
(S"j'"
p3
(dp4
S'ADJ'
p5
F0.10952
sS'X'
p6
F0.13611
sS'VERB'
p7
F0.004198999999999999
sS'NOUN'
p8
F0.750172
s(lp9
(S'i'
p10
I3
tp11
atp12
a(S'ai'
p13
(dp14
S'VERB'
p15
F1.0
s(lp16
(S'said'
p17
I4
tp18
atp19
a(S'r\xc3\xa9p\xc3\xa9t\xc3\xa9'
p20
(dp21
S'VERB'
p22
F1.0
s(lp23
(S'repeatedly'
p24
I5
tp25
atp26
a(S'\xc3\xa0'
p27
(dp28
S'ADP'
p29
F1.0
s(lp30
(S'to'
p31
I6
tp32
atp33
a(S'ceci'
p34
(dp35
S'PRON'
p36
F1.0
s(lp37
(S'this'
p38
I0
tp39
atp40
a(S'm.'
p41
(dp42
S'ADJ'
p43
F0.007327
sS'VERB'
p44
F0.9708609999999999
sS'NOUN'
p45
F0.0215
sg6
F0.000311
s(lp46
(S'mr'
p47
I7
tp48
atp49
a(S'jalili'
p50
(dp51
S'ADJ'
p52
F0.071207
sS'VERB'
p53
F0.6089229999999999
sS'NOUN'
p54
F0.319869
s(lp55
(S'jalili'
p56
I8
tp57
atp58
a(S':'
p59
(dp60
S'.'
p61
F1.0
s(lp62
(g59
I9
tp63
atp64
a(S'"'
p65
(dp66
g61
F1.0
s(lp67
(S"'"
p68
I10
tp69
atp70
a(S'pourquoi'
p71
(dp72
S'ADV'
p73
F0.881423
sS'NOUN'
p74
F0.118577
s(lp75
(S'why'
p76
I11
tp77
atp78
a(S'faites-vous'
p79
(dp80
S'VERB'
p81
F0.9820450000000001
sS'ADJ'
p82
F0.017955
s(lp83
(g56
I8
tp84
atp85
a(S'la'
p86
(dp87
S'PRON'
p88
F0.008564
sS'DET'
p89
F0.99142
sS'NOUN'
p90
F1.6e-05
s(lp91
(S'this'
p92
I16
tp93
atp94
a(S'sourde'
p95
(dp96
S'NOUN'
p97
F0.086255
sS'ADJ'
p98
F0.913745
s(lp99
tp100
a(S'oreille'
p101
(dp102
S'NOUN'
p103
F1.0
s(lp104
(g56
I8
tp105
atp106
a(S'?'
p107
(dp108
g61
F1.0
s(lp109
(g107
I17
tp110
atp111
asS'en'
p112
(lp113
(g38
(dp114
S'ADV'
p115
F0.000523
sS'NOUN'
p116
F0.000215
sS'DET'
p117
F0.999263
s(lp118
(g38
I0
tp119
atp120
a(S'is'
p121
(dp122
S'VERB'
p123
F1.0
s(lp124
(g121
I1
tp125
atp126
a(S'what'
p127
(dp128
S'PRON'
p129
F0.999324
sS'DET'
p130
F0.000676
s(lp131
(g127
I2
tp132
atp133
a(g10
(dp134
g6
F1e-06
sS'NOUN'
p135
F0.999999
s(lp136
(g10
I3
tp137
atp138
a(g17
(dp139
S'ADJ'
p140
F0.0
sS'VERB'
p141
F0.9999819999999999
sS'NOUN'
p142
F1.8e-05
s(lp143
(g17
I4
tp144
atp145
a(g24
(dp146
S'ADV'
p147
F1.0
s(lp148
(g24
I5
tp149
atp150
a(g31
(dp151
S'ADV'
p152
F4e-06
sS'PRT'
p153
F0.999981
sS'ADP'
p154
F1.5e-05
s(lp155
(g31
I6
tp156
atp157
a(g47
(dp158
S'ADJ'
p159
F0.012378
sS'NOUN'
p160
F0.987622
s(lp161
(g47
I7
tp162
atp163
a(g56
(dp164
S'ADJ'
p165
F0.000391
sS'NOUN'
p166
F0.999609
s(lp167
(g56
I8
tp168
atp169
a(g59
(dp170
g61
F1.0
s(lp171
(g59
I9
tp172
atp173
a(g68
(dp174
S'PRT'
p175
F2e-06
sg61
F0.999998
s(lp176
(g68
I10
tp177
atp178
a(g76
(dp179
S'ADV'
p180
F0.999935
sS'NOUN'
p181
F6.5e-05
s(lp182
(g76
I11
tp183
atp184
a(S'do'
p185
(dp186
S'VERB'
p187
F0.999997
sS'NOUN'
p188
F3e-06
s(lp189
(g185
I12
tp190
atp191
a(S'you'
p192
(dp193
S'PRON'
p194
F1.0
s(lp195
(g192
I13
tp196
atp197
a(S'not'
p198
(dp199
S'ADV'
p200
F1.0
s(lp201
(g198
I14
tp202
atp203
a(S'take'
p204
(dp205
S'VERB'
p206
F0.999951
sS'NOUN'
p207
F4.8e-05
s(lp208
(g204
I15
tp209
atp210
a(g92
(dp211
S'ADV'
p212
F0.003336
sS'NOUN'
p213
F0.003907
sS'DET'
p214
F0.992758
s(lp215
(g92
I16
tp216
atp217
a(g107
(dp218
g61
F1.0
s(lp219
(g107
I17
tp220
atp221
asS'nl'
p222
(lp223
(S'dit'
p224
(dp225
S'PRON'
p226
F1.0
s(lp227
(g38
I0
tp228
atp229
a(S'heb'
p230
(dp231
S'VERB'
p232
F1.0
s(lp233
(g121
I1
tp234
atp235
a(S'ik'
p236
(dp237
S'PRON'
p238
F1.0
sS'NOUN'
p239
F0.0
s(lp240
(g10
I3
tp241
atp242
a(S'de'
p243
(dp244
S'DET'
p245
F1.0
s(lp246
tp247
a(S'heer'
p248
(dp249
S'NOUN'
p250
F1.0
s(lp251
(g47
I7
tp252
atp253
a(S'jalili'
p254
(dp255
S'NOUN'
p256
F0.999999
s(lp257
tp258
a(S'herhaaldelijk'
p259
(dp260
S'ADV'
p261
F1.0
s(lp262
(g24
I5
tp263
atp264
a(S'gezegd'
p265
(dp266
S'VERB'
p267
F0.987044
sS'ADJ'
p268
F0.012956
s(lp269
(g17
I4
tp270
atp271
a(g59
(dp272
g61
F1.0
s(lp273
(g59
I9
tp274
atp275
a(g65
(dp276
g61
F1.0
s(lp277
(g68
I10
tp278
atp279
a(S'waarom'
p280
(dp281
S'ADV'
p282
F0.996285
sS'NOUN'
p283
F0.003715
s(lp284
(g76
I11
tp285
atp286
a(S'pakt'
p287
(dp288
S'VERB'
p289
F0.991627
sS'NOUN'
p290
F0.008373
s(lp291
(g56
I8
tp292
atp293
a(S'u'
p294
(dp295
S'PRON'
p296
F0.999999
sS'NOUN'
p297
F1e-06
s(lp298
(g192
I13
tp299
atp300
a(S'dit'
p301
(dp302
S'PRON'
p303
F1.0
s(lp304
(g92
I16
tp305
atp306
a(S'niet'
p307
(dp308
S'ADV'
p309
F0.999989
sS'PRON'
p310
F2e-06
sS'VERB'
p311
F9e-06
sg6
F0.0
s(lp312
(g198
I14
tp313
atp314
a(S'op'
p315
(dp316
S'ADV'
p317
F0.223478
sS'ADJ'
p318
F2.6e-05
sS'ADP'
p319
F0.776496
s(lp320
(g204
I15
tp321
atp322
a(g107
(dp323
g61
F1.0
s(lp324
(g107
I17
tp325
atp326
asS'de'
p327
(lp328
(S'ich'
p329
(dp330
S'PRON'
p331
F1.0
s(lp332
(g10
I3
tp333
atp334
a(S'habe'
p335
(dp336
S'VERB'
p337
F1.0
s(lp338
(g17
I4
tp339
atp340
a(S'herrn'
p341
(dp342
S'ADJ'
p343
F0.003979
sS'NOUN'
p344
F0.992481
s(lp345
(g47
I7
tp346
atp347
a(S'jalili'
p348
(dp349
S'VERB'
p350
F0.013005
sS'NOUN'
p351
F0.977562
s(lp352
tp353
a(S'wiederholt'
p354
(dp355
S'VERB'
p356
F0.02055
sS'ADJ'
p357
F0.976783
s(lp358
(g24
I5
tp359
atp360
a(S'gefragt'
p361
(dp362
S'VERB'
p363
F1.0
s(lp364
(g56
I8
tp365
atp366
a(g59
(dp367
g61
F1.0
s(lp368
(g59
I9
tp369
atp370
a(g65
(dp371
g61
F1.0
s(lp372
(g68
I10
tp373
atp374
a(S'warum'
p375
(dp376
S'PRON'
p377
F1.0
s(lp378
(g76
I11
tp379
atp380
a(S'nehmen'
p381
(dp382
S'VERB'
p383
F1.0
s(lp384
(g185
I12
tp385
atp386
a(S'sie'
p387
(dp388
S'PRON'
p389
F1.0
s(lp390
(g192
I13
tp391
atp392
a(S'das'
p393
(dp394
S'PRON'
p395
F0.857645
sS'DET'
p396
F0.108728
s(lp397
(g92
I16
tp398
atp399
a(S'nicht'
p400
(dp401
S'PRT'
p402
F1.0
s(lp403
(g198
I14
tp404
atp405
a(S'an'
p406
(dp407
S'ADV'
p408
F0.000725
sS'PRT'
p409
F0.999057
s(lp410
(g204
I15
tp411
atp412
a(g107
(dp413
g61
F1.0
s(lp414
(g107
I17
tp415
atp416
asS'it'
p417
(lp418
(S'questo'
p419
(dp420
S'PRON'
p421
F1.0
s(lp422
(g38
I0
tp423
atp424
a(S'\xc3\xa8'
p425
(dp426
S'VERB'
p427
F1.0
s(lp428
(g121
I1
tp429
atp430
a(S'quanto'
p431
(dp432
S'ADV'
p433
F0.899751
sS'PRON'
p434
F0.096544
sS'ADJ'
p435
F0.003656
sS'NOUN'
p436
F4.8e-05
s(lp437
(g127
I2
tp438
atp439
a(S'ho'
p440
(dp441
S'VERB'
p442
F1.0
s(lp443
(g10
I3
tp444
atp445
a(S'detto'
p446
(dp447
S'ADJ'
p448
F2.2e-05
sS'VERB'
p449
F0.99973
sS'NOUN'
p450
F0.000248
s(lp451
(g17
I4
tp452
atp453
a(S'reiteratamente'
p454
(dp455
S'ADV'
p456
F1.0
s(lp457
(g24
I5
tp458
atp459
a(S'a'
p460
(dp461
S'CONJ'
p462
F0.000253
sS'ADP'
p463
F0.999747
s(lp464
(g31
I6
tp465
atp466
a(S'saeed'
p467
(dp468
S'ADJ'
p469
F0.013145
sS'VERB'
p470
F0.026864
sS'NOUN'
p471
F0.95999
s(lp472
(g56
I8
tp473
atp474
a(S'jalili'
p475
(dp476
S'NOUN'
p477
F0.031139
sS'VERB'
p478
F0.000876
sS'ADJ'
p479
F0.967985
s(lp480
tp481
a(g59
(dp482
g61
F1.0
s(lp483
(g59
I9
tp484
atp485
a(g65
(dp486
g61
F1.0
s(lp487
(g68
I10
tp488
atp489
a(S'perch\xc3\xa9'
p490
(dp491
S'ADV'
p492
F0.090529
sS'CONJ'
p493
F0.893845
sS'NOUN'
p494
F0.015625
s(lp495
(g76
I11
tp496
atp497
a(S'non'
p498
(dp499
S'ADV'
p500
F1.0
s(lp501
(g198
I14
tp502
atp503
a(S'accettate'
p504
(dp505
S'VERB'
p506
F1.0
s(lp507
(g56
I8
tp508
atp509
a(g107
(dp510
g61
F1.0
s(lp511
(g107
I17
tp512
atp513
asS'sk'
p514
(lp515
(S'toto'
p516
(dp517
S'PRON'
p518
F0.998629
sg6
F0.001371
s(lp519
(g38
I0
tp520
atp521
a(S'som'
p522
(dp523
S'VERB'
p524
F1.0
s(lp525
(g10
I3
tp526
atp527
a(S'opakovane'
p528
(dp529
S'ADV'
p530
F1.0
s(lp531
(g24
I5
tp532
atp533
a(S'povedala'
p534
(dp535
S'VERB'
p536
F0.999999
s(lp537
(g17
I4
tp538
atp539
a(S'p\xc3\xa1novi'
p540
(dp541
S'ADJ'
p542
F0.00056
sS'NOUN'
p543
F0.99944
s(lp544
(g47
I7
tp545
atp546
a(S'd\xc5\xbeal\xc3\xadl\xc3\xadmu'
p547
(dp548
S'ADJ'
p549
F0.001258
sS'VERB'
p550
F0.060387
sS'NOUN'
p551
F0.938354
s(lp552
tp553
a(g59
(dp554
g6
F4.9e-05
sg61
F0.999951
s(lp555
(g59
I9
tp556
atp557
a(g65
(dp558
g61
F1.0
s(lp559
(g68
I10
tp560
atp561
a(S'pre\xc4\x8do'
p562
(dp563
S'PRON'
p564
F0.999748
sS'NOUN'
p565
F0.000252
s(lp566
(g76
I11
tp567
atp568
a(S'to'
p569
(dp570
S'PRON'
p571
F0.7439779999999999
sS'CONJ'
p572
F0.076001
sg6
F0.18002
s(lp573
(g92
I16
tp574
atp575
a(S'neprijmete'
p576
(dp577
S'VERB'
p578
F1.0
s(lp579
(g56
I8
tp580
atp581
a(g107
(dp582
g61
F1.0
s(lp583
(g107
I17
tp584
atp585
asS'pl'
p586
(lp587
(S'w\xc5\x82a\xc5\x9bnie'
p588
(dp589
S'ADV'
p590
F0.256511
sS'PRT'
p591
F0.743489
s(lp592
tp593
a(S'to'
p594
(dp595
S'NOUN'
p596
F0.106623
sS'ADP'
p597
F4e-06
sS'PRT'
p598
F0.60192
sg6
F1e-06
sS'CONJ'
p599
F0.088544
sS'ADJ'
p600
F0.202909
s(lp601
(g127
I2
tp602
atp603
a(S'powtarza\xc5\x82am'
p604
(dp605
S'ADV'
p606
F0.001066
sS'ADJ'
p607
F9.699999999999999e-05
sS'VERB'
p608
F0.9881559999999998
sS'NOUN'
p609
F0.010682000000000002
s(lp610
(g24
I5
tp611
atp612
a(S'panu'
p613
(dp614
S'NOUN'
p615
F1.0
s(lp616
(g47
I7
tp617
atp618
a(S'd\xc5\xbcalilemu'
p619
(dp620
S'ADV'
p621
F0.000114
sS'ADJ'
p622
F0.22894200000000003
sS'VERB'
p623
F0.022839999999999992
sS'NOUN'
p624
F0.7481010000000001
s(lp625
(g56
I8
tp626
atp627
a(g59
(dp628
g61
F1.0
s(lp629
(g59
I9
tp630
atp631
a(g65
(dp632
g61
F1.0
s(lp633
(g68
I10
tp634
atp635
a(S'dlaczego'
p636
(dp637
S'ADV'
p638
F1.0
s(lp639
(g76
I11
tp640
atp641
a(S'pan'
p642
(dp643
g6
F7e-06
sS'NOUN'
p644
F0.999993
s(lp645
(g192
I13
tp646
atp647
a(S'tego'
p648
(dp649
S'ADJ'
p650
F0.118448
sS'NOUN'
p651
F0.839643
sS'PRT'
p652
F0.002671
sg6
F0.039238
s(lp653
(g92
I16
tp654
atp655
a(S'nie'
p656
(dp657
S'ADV'
p658
F1e-05
sS'PRT'
p659
F0.986003
sS'CONJ'
p660
F0.013971
sS'NOUN'
p661
F2e-06
sS'PRON'
p662
F1.4e-05
s(lp663
(g198
I14
tp664
atp665
a(S'przyjmuje'
p666
(dp667
S'VERB'
p668
F1.0
s(lp669
(g204
I15
tp670
atp671
a(g107
(dp672
g61
F1.0
s(lp673
(g107
I17
tp674
atp675
asS'sl'
p676
(lp677
(S'to'
p678
(dp679
S'PRON'
p680
F0.9999350000000001
sg6
F6.5e-05
s(lp681
(g38
I0
tp682
atp683
a(S'sem'
p684
(dp685
S'ADV'
p686
F0.067704
sS'PRT'
p687
F0.005867
sS'VERB'
p688
F0.926429
s(lp689
(g10
I3
tp690
atp691
a(S've\xc4\x8dkrat'
p692
(dp693
S'ADV'
p694
F1.0
s(lp695
(g24
I5
tp696
atp697
a(S'rekla'
p698
(dp699
S'VERB'
p700
F1.0
s(lp701
(g17
I4
tp702
atp703
a(S'gospodu'
p704
(dp705
S'NOUN'
p706
F1.0
s(lp707
(g47
I7
tp708
atp709
a(S'd\xc5\xbealiliju'
p710
(dp711
S'NOUN'
p712
F1.0
s(lp713
(g56
I8
tp714
atp715
a(g59
(dp716
g61
F1.0
s(lp717
(g59
I9
tp718
atp719
a(g65
(dp720
g61
F1.0
s(lp721
(g68
I10
tp722
atp723
a(S'zakaj'
p724
(dp725
S'ADV'
p726
F1.0
s(lp727
(g76
I11
tp728
atp729
a(S'ne'
p730
(dp731
S'PRT'
p732
F0.989757
sS'CONJ'
p733
F0.010114
sg6
F0.000128
s(lp734
(g198
I14
tp735
atp736
a(S'sprejmete'
p737
(dp738
S'ADV'
p739
F0.00349
sS'ADJ'
p740
F0.006217999999999999
sS'VERB'
p741
F0.6793850000000001
sS'NOUN'
p742
F0.31090599999999985
s(lp743
(g204
I15
tp744
atp745
a(S'tega'
p746
(dp747
S'PRON'
p748
F1.0
s(lp749
(g92
I16
tp750
atp751
a(g107
(dp752
g61
F1.0
s(lp753
(g107
I17
tp754
atp755
asS'es'
p756
(lp757
(S'ya'
p758
(dp759
S'ADV'
p760
F1.0
s(lp761
(g38
I0
tp762
atp763
a(S'le'
p764
(dp765
S'PRON'
p766
F0.999999
sg6
F1e-06
s(lp767
(g121
I1
tp768
atp769
a(S'he'
p770
(dp771
S'VERB'
p772
F1.0
s(lp773
(g10
I3
tp774
atp775
a(S'dicho'
p776
(dp777
S'VERB'
p778
F0.136454
sS'ADJ'
p779
F0.863546
s(lp780
(g17
I4
tp781
atp782
a(S'varias'
p783
(dp784
S'ADJ'
p785
F1.0
s(lp786
tp787
a(S'veces'
p788
(dp789
S'NOUN'
p790
F1.0
s(lp791
(g24
I5
tp792
atp793
a(S'al'
p794
(dp795
S'CONJ'
p796
F0.000852
sS'ADP'
p797
F0.999148
s(lp798
(g31
I6
tp799
atp800
a(S'se\xc3\xb1or'
p801
(dp802
S'NOUN'
p803
F1.0
s(lp804
(g47
I7
tp805
atp806
a(S'jalili'
p807
(dp808
S'ADV'
p809
F0.011581
sS'ADJ'
p810
F0.274104
sS'VERB'
p811
F0.090314
sS'NOUN'
p812
F0.623999
s(lp813
(g56
I8
tp814
atp815
a(g59
(dp816
g61
F1.0
s(lp817
(g59
I9
tp818
atp819
a(g65
(dp820
g61
F1.0
s(lp821
(g68
I10
tp822
atp823
a(S'\xc2\xbf'
p824
(dp825
S'PRON'
p826
F0.008643
sg61
F0.991357
s(lp827
(g76
I11
tp828
atp829
a(S'por'
p830
(dp831
S'ADV'
p832
F1.0
s(lp833
tp834
a(S'qu\xc3\xa9'
p835
(dp836
S'ADV'
p837
F1.0
s(lp838
(g76
I11
tp839
atp840
a(S'no'
p841
(dp842
S'ADV'
p843
F1.0
sg6
F0.0
s(lp844
(g198
I14
tp845
atp846
a(S'lo'
p847
(dp848
S'PRON'
p849
F0.999999
sS'DET'
p850
F1e-06
s(lp851
(g92
I16
tp852
atp853
a(S'aceptan'
p854
(dp855
S'VERB'
p856
F1.0
s(lp857
(g204
I15
tp858
atp859
a(g107
(dp860
g61
F1.0
s(lp861
(g107
I17
tp862
atp863
as.