(dp0
S'fr'
p1
(lp2
(S'certains'
p3
(dp4
S'PRON'
p5
F0.99926
sS'ADJ'
p6
F0.00074
s(lp7
(S'some'
p8
I0
tp9
atp10
a(S'voudraient'
p11
(dp12
S'VERB'
p13
F1.0
s(lp14
(S'would'
p15
I1
tp16
atp17
a(S'en'
p18
(dp19
S'PRON'
p20
F0.037283
sS'ADP'
p21
F0.962717
s(lp22
(S'to'
p23
I3
tp24
atp25
a(S'mettre'
p26
(dp27
S'VERB'
p28
F1.0
s(lp29
(S'put'
p30
I4
tp31
atp32
a(S'un'
p33
(dp34
S'NOUN'
p35
F0.003267
sS'NUM'
p36
F0.000208
sS'DET'
p37
F0.996525
s(lp38
(S'a'
p39
I5
tp40
atp41
a(S'peu'
p42
(dp43
S'ADV'
p44
F1.0
s(lp45
(S'bit'
p46
I6
tp47
atp48
a(S'trop'
p49
(dp50
S'ADV'
p51
F0.999465
sS'NOUN'
p52
F0.000535
s(lp53
(S'too'
p54
I7
tp55
atp56
a(S'dans'
p57
(dp58
S'NOUN'
p59
F7e-06
sS'ADP'
p60
F0.999993
s(lp61
(S'into'
p62
I9
tp63
atp64
a(S'cette'
p65
(dp66
S'PRON'
p67
F1.0
s(lp68
(S'the'
p69
I10
tp70
atp71
a(S'politique'
p72
(dp73
S'ADJ'
p74
F0.38366
sS'VERB'
p75
F0.012643000000000001
sS'NOUN'
p76
F0.603697
s(lp77
(S'policy'
p78
I11
tp79
atp80
a(S','
p81
(dp82
S'.'
p83
F1.0
s(lp84
(g81
I12
tp85
atp86
a(S'tandis'
p87
(dp88
S'CONJ'
p89
F1.0
s(lp90
tp91
a(S'que'
p92
(dp93
S'ADV'
p94
F0.02513
sS'PRON'
p95
F0.496893
sS'CONJ'
p96
F0.477976
s(lp97
(S'while'
p98
I13
tp99
atp100
a(S"d'"
p101
(dp102
S'NOUN'
p103
F0.035322
sS'VERB'
p104
F0.928502
sS'ADJ'
p105
F0.036177
s(lp106
tp107
a(S'autres'
p108
(dp109
S'ADJ'
p110
F1.0
s(lp111
(S'others'
p112
I14
tp113
atp114
a(S'veulent'
p115
(dp116
S'VERB'
p117
F1.0
s(lp118
(S'want'
p119
I15
tp120
atp121
a(S'trop'
p122
(dp123
S'ADV'
p124
F0.999737
sS'NOUN'
p125
F0.000263
s(lp126
(S'too'
p127
I19
tp128
atp129
a(S'la'
p130
(dp131
S'PRON'
p132
F0.341907
sS'DET'
p133
F0.658086
sS'NOUN'
p134
F7e-06
s(lp135
(S'to'
p136
I16
tp137
atp138
a(S'restreindre'
p139
(dp140
S'VERB'
p141
F1.0
s(lp142
(S'restrict'
p143
I17
tp144
atp145
a(g83
(dp146
g83
F1.0
s(lp147
(g83
I21
tp148
atp149
asS'en'
p150
(lp151
(g8
(dp152
S'ADV'
p153
F0.024213
sS'DET'
p154
F0.975787
s(lp155
(g8
I0
tp156
atp157
a(g15
(dp158
S'VERB'
p159
F1.0
s(lp160
(g15
I1
tp161
atp162
a(S'like'
p163
(dp164
S'VERB'
p165
F0.9997360000000001
sS'ADJ'
p166
F3.1e-05
sS'ADP'
p167
F0.000233
s(lp168
(g163
I2
tp169
atp170
a(g23
(dp171
S'ADV'
p172
F0.0
sS'PRT'
p173
F1.0
sS'ADP'
p174
F0.0
s(lp175
(g23
I3
tp176
atp177
a(g30
(dp178
S'ADJ'
p179
F6e-06
sS'VERB'
p180
F0.9999560000000001
sS'NOUN'
p181
F3.8e-05
s(lp182
(g30
I4
tp183
atp184
a(g39
(dp185
S'NOUN'
p186
F0.0
sS'DET'
p187
F1.0
s(lp188
(g39
I5
tp189
atp190
a(g46
(dp191
S'VERB'
p192
F0.001796
sS'NOUN'
p193
F0.998204
s(lp194
(g46
I6
tp195
atp196
a(g54
(dp197
S'ADV'
p198
F1.0
s(lp199
(g54
I7
tp200
atp201
a(S'much'
p202
(dp203
S'ADV'
p204
F0.828246
sS'ADJ'
p205
F0.171754
s(lp206
(g202
I8
tp207
atp208
a(g62
(dp209
S'ADP'
p210
F1.0
s(lp211
(g62
I9
tp212
atp213
a(g69
(dp214
S'NOUN'
p215
F1e-06
sS'DET'
p216
F0.999999
s(lp217
(g69
I10
tp218
atp219
a(g78
(dp220
S'NOUN'
p221
F1.0
s(lp222
(g78
I11
tp223
atp224
a(g81
(dp225
g83
F1.0
s(lp226
(g81
I12
tp227
atp228
a(g98
(dp229
S'NOUN'
p230
F0.019734
sS'ADP'
p231
F0.980266
s(lp232
(g98
I13
tp233
atp234
a(g112
(dp235
S'NOUN'
p236
F1.0
s(lp237
(g112
I14
tp238
atp239
a(g119
(dp240
S'VERB'
p241
F0.999755
sS'NOUN'
p242
F0.000246
s(lp243
(g119
I15
tp244
atp245
a(g136
(dp246
S'ADV'
p247
F0.0
sS'PRT'
p248
F1.0
sS'ADP'
p249
F0.0
s(lp250
(g136
I16
tp251
atp252
a(g143
(dp253
S'VERB'
p254
F1.0
s(lp255
(g143
I17
tp256
atp257
a(S'it'
p258
(dp259
S'PRON'
p260
F1.0
s(lp261
(g258
I18
tp262
atp263
a(g127
(dp264
S'ADV'
p265
F1.0
s(lp266
(g127
I19
tp267
atp268
a(S'much'
p269
(dp270
S'ADV'
p271
F0.492873
sS'ADJ'
p272
F0.507127
s(lp273
(g269
I20
tp274
atp275
a(g83
(dp276
g83
F1.0
s(lp277
(g83
I21
tp278
atp279
asS'nl'
p280
(lp281
(S'sommigen'
p282
(dp283
S'PRON'
p284
F1.0
s(lp285
(g8
I0
tp286
atp287
a(S'willen'
p288
(dp289
S'VERB'
p290
F0.999416
sS'NOUN'
p291
F0.000583
s(lp292
(g163
I2
tp293
atp294
a(S'iets'
p295
(dp296
S'ADV'
p297
F0.860473
sS'PRON'
p298
F0.139527
s(lp299
(g46
I6
tp300
atp301
a(S'te'
p302
(dp303
S'PRT'
p304
F1.0
s(lp305
(g54
I7
tp306
atp307
a(S'veel'
p308
(dp309
S'ADV'
p310
F0.848477
sS'NUM'
p311
F0.151516
sS'VERB'
p312
F7e-06
s(lp313
(g202
I8
tp314
atp315
a(S'in'
p316
(dp317
S'ADV'
p318
F0.010159
sS'VERB'
p319
F1e-06
sS'ADP'
p320
F0.98984
s(lp321
(g62
I9
tp322
atp323
a(S'het'
p324
(dp325
S'PRON'
p326
F0.000937
sS'DET'
p327
F0.999064
s(lp328
(g69
I10
tp329
atp330
a(S'beleid'
p331
(dp332
S'NOUN'
p333
F1.0
s(lp334
(g78
I11
tp335
atp336
a(S'opnemen'
p337
(dp338
S'VERB'
p339
F0.998772
sS'NOUN'
p340
F0.001228
s(lp341
(g30
I4
tp342
atp343
a(g81
(dp344
g83
F1.0
s(lp345
(g81
I12
tp346
atp347
a(S'terwijl'
p348
(dp349
S'CONJ'
p350
F1.0
s(lp351
(g98
I13
tp352
atp353
a(S'anderen'
p354
(dp355
S'NOUN'
p356
F1.0
s(lp357
(g112
I14
tp358
atp359
a(S'het'
p360
(dp361
S'PRON'
p362
F0.5851149999999999
sS'DET'
p363
F0.414885
s(lp364
(g258
I18
tp365
atp366
a(S'te'
p367
(dp368
S'PRT'
p369
F1.0
s(lp370
(g127
I19
tp371
atp372
a(S'veel'
p373
(dp374
S'ADV'
p375
F0.990418
sS'NUM'
p376
F0.00956
sS'VERB'
p377
F2.1e-05
s(lp378
(g269
I20
tp379
atp380
a(S'willen'
p381
(dp382
S'VERB'
p383
F0.996648
sS'NOUN'
p384
F0.003352
s(lp385
(g119
I15
tp386
atp387
a(S'beperken'
p388
(dp389
S'VERB'
p390
F0.9999530000000001
sS'NOUN'
p391
F4.7e-05
s(lp392
(g143
I17
tp393
atp394
a(g83
(dp395
g83
F1.0
s(lp396
(g83
I21
tp397
atp398
asS'de'
p399
(lp400
(S'einige'
p401
(dp402
S'PRON'
p403
F0.999997
s(lp404
(g8
I0
tp405
atp406
a(S'm\xc3\xb6chten'
p407
(dp408
S'VERB'
p409
F1.0
s(lp410
(g163
I2
tp411
atp412
a(S'ein'
p413
(dp414
S'NUM'
p415
F0.000704
sS'DET'
p416
F0.998967
s(lp417
(g39
I5
tp418
atp419
a(S'bisschen'
p420
(dp421
S'ADV'
p422
F0.770757
sS'PRON'
p423
F0.200025
s(lp424
(g46
I6
tp425
atp426
a(S'zu'
p427
(dp428
S'PRT'
p429
F0.281461
sS'ADP'
p430
F0.696769
s(lp431
(g54
I7
tp432
atp433
a(S'viel'
p434
(dp435
S'ADV'
p436
F0.581765
sS'PRON'
p437
F0.384155
s(lp438
(g202
I8
tp439
atp440
a(S'in'
p441
(dp442
S'ADP'
p443
F1.0
s(lp444
(g62
I9
tp445
atp446
a(S'diese'
p447
(dp448
S'PRON'
p449
F1.0
s(lp450
(g69
I10
tp451
atp452
a(S'politik'
p453
(dp454
S'ADJ'
p455
F0.025684
sS'NOUN'
p456
F0.968028
s(lp457
(g78
I11
tp458
atp459
a(S'einbringen'
p460
(dp461
S'VERB'
p462
F1.0
s(lp463
(g30
I4
tp464
atp465
a(g81
(dp466
g83
F1.0
s(lp467
(g81
I12
tp468
atp469
a(S'w\xc3\xa4hrend'
p470
(dp471
S'CONJ'
p472
F0.993788
sS'ADP'
p473
F0.006185
s(lp474
(g98
I13
tp475
atp476
a(S'andere'
p477
(dp478
S'PRON'
p479
F1.0
s(lp480
(g112
I14
tp481
atp482
a(S'sie'
p483
(dp484
S'PRON'
p485
F1.0
s(lp486
(g258
I18
tp487
atp488
a(S'zu'
p489
(dp490
S'PRT'
p491
F0.043123
sS'ADP'
p492
F0.881684
s(lp493
(g127
I19
tp494
atp495
a(S'sehr'
p496
(dp497
S'ADV'
p498
F1.0
s(lp499
(g269
I20
tp500
atp501
a(S'einschr\xc3\xa4nken'
p502
(dp503
S'VERB'
p504
F1.0
s(lp505
(g143
I17
tp506
atp507
a(S'm\xc3\xb6chten'
p508
(dp509
S'VERB'
p510
F1.0
s(lp511
(g119
I15
tp512
atp513
a(g83
(dp514
g83
F1.0
s(lp515
(g83
I21
tp516
atp517
asS'it'
p518
(lp519
(S'alcuni'
p520
(dp521
S'PRON'
p522
F1.0
s(lp523
(g8
I0
tp524
atp525
a(S'vorrebbero'
p526
(dp527
S'VERB'
p528
F1.0
s(lp529
(g15
I1
tp530
atp531
a(S'ampliare'
p532
(dp533
S'VERB'
p534
F1.0
s(lp535
(g46
I6
tp536
atp537
a(S'eccessivamente'
p538
(dp539
S'ADV'
p540
F1.0
s(lp541
(g54
I7
tp542
atp543
a(S'tale'
p544
(dp545
S'PRON'
p546
F0.990898
sS'CONJ'
p547
F0.008743
sS'NOUN'
p548
F0.000359
s(lp549
(g69
I10
tp550
atp551
a(S'politica'
p552
(dp553
S'ADJ'
p554
F0.27403
sS'NOUN'
p555
F0.72597
s(lp556
(g78
I11
tp557
atp558
a(g81
(dp559
g83
F1.0
s(lp560
(g81
I12
tp561
atp562
a(S'altri'
p563
(dp564
S'PRON'
p565
F0.99339
sS'ADJ'
p566
F0.004116
sS'NOUN'
p567
F0.002494
s(lp568
(g112
I14
tp569
atp570
a(S'vorrebbero'
p571
(dp572
S'VERB'
p573
F1.0
s(lp574
(g119
I15
tp575
atp576
a(S'limitarne'
p577
(dp578
S'VERB'
p579
F1.0
s(lp580
(g143
I17
tp581
atp582
a(S'troppo'
p583
(dp584
S'ADV'
p585
F0.955828
sS'PRON'
p586
F0.023622
sS'ADJ'
p587
F0.0204
sS'NOUN'
p588
F0.00015
s(lp589
(g127
I19
tp590
atp591
a(S'la'
p592
(dp593
S'PRON'
p594
F0.001526
sS'DET'
p595
F0.998474
s(lp596
tp597
a(S'portata'
p598
(dp599
S'ADJ'
p600
F0.338675
sS'VERB'
p601
F0.055752
sS'NOUN'
p602
F0.605573
s(lp603
(g269
I20
tp604
atp605
a(g83
(dp606
g83
F1.0
s(lp607
(g83
I21
tp608
atp609
asS'sk'
p610
(lp611
(S'niektor\xc3\xad'
p612
(dp613
S'PRON'
p614
F1.0
s(lp615
(g8
I0
tp616
atp617
a(S'by'
p618
(dp619
S'PRT'
p620
F0.999982
sS'X'
p621
F1.8e-05
s(lp622
(g15
I1
tp623
atp624
a(S'chceli'
p625
(dp626
S'VERB'
p627
F1.0
s(lp628
tp629
a(S't\xc3\xbato'
p630
(dp631
S'PRON'
p632
F1.0
s(lp633
(g69
I10
tp634
atp635
a(S'politiku'
p636
(dp637
S'NOUN'
p638
F1.0
s(lp639
(g78
I11
tp640
atp641
a(S'a\xc5\xbe'
p642
(dp643
S'ADV'
p644
F0.003819
sg621
F0.752109
sS'CONJ'
p645
F0.244072
s(lp646
(g202
I8
tp647
atp648
a(S'pr\xc3\xadli\xc5\xa1'
p649
(dp650
S'ADV'
p651
F1.0
s(lp652
(g54
I7
tp653
atp654
a(S'roz\xc5\xa1\xc3\xadri\xc5\xa5'
p655
(dp656
S'VERB'
p657
F1.0
s(lp658
(g46
I6
tp659
atp660
a(g81
(dp661
g83
F1.0
s(lp662
(g81
I12
tp663
atp664
a(S'k\xc3\xbdm'
p665
(dp666
S'PRON'
p667
F0.0025
sS'CONJ'
p668
F0.9975
s(lp669
(g98
I13
tp670
atp671
a(S'in\xc3\xad'
p672
(dp673
S'ADJ'
p674
F0.003587
sS'PRON'
p675
F0.984851
sS'NOUN'
p676
F0.011562
s(lp677
(g112
I14
tp678
atp679
a(S'by'
p680
(dp681
S'PRT'
p682
F0.99999
sg621
F1e-05
s(lp683
(g119
I15
tp684
atp685
a(S'ju'
p686
(dp687
S'PRON'
p688
F1.0
s(lp689
(g258
I18
tp690
atp691
a(S'chceli'
p692
(dp693
S'VERB'
p694
F1.0
s(lp695
(g163
I2
tp696
atp697
a(S'pr\xc3\xadli\xc5\xa1'
p698
(dp699
S'ADV'
p700
F1.0
s(lp701
(g127
I19
tp702
atp703
a(S'obmedzi\xc5\xa5'
p704
(dp705
S'VERB'
p706
F1.0
s(lp707
(g143
I17
tp708
atp709
a(g83
(dp710
g83
F1.0
s(lp711
(g83
I21
tp712
atp713
asS'pl'
p714
(lp715
(S'jedni'
p716
(dp717
S'NOUN'
p718
F0.267602
sS'ADJ'
p719
F0.732398
s(lp720
(g8
I0
tp721
atp722
a(S'chcieliby'
p723
(dp724
S'ADV'
p725
F0.010009
sS'NOUN'
p726
F0.036920999999999995
sS'PRT'
p727
F0.015085
sS'VERB'
p728
F0.9199050000000002
sS'CONJ'
p729
F0.018013
sS'ADJ'
p730
F6.599999999999999e-05
s(lp731
(g15
I1
tp732
atp733
a(S'w\xc5\x82o\xc5\xbcy\xc4\x87'
p734
(dp735
S'VERB'
p736
F1.0
s(lp737
(g30
I4
tp738
atp739
a(S'do'
p740
(dp741
g621
F0.0
sS'NOUN'
p742
F0.0
sS'ADP'
p743
F1.0
s(lp744
(g62
I9
tp745
atp746
a(S'tej'
p747
(dp748
S'PRON'
p749
F3.4e-05
sS'ADJ'
p750
F0.999966
sg621
F0.0
s(lp751
(g69
I10
tp752
atp753
a(S'polityki'
p754
(dp755
S'NOUN'
p756
F1.0
s(lp757
(g78
I11
tp758
atp759
a(S'zbyt'
p760
(dp761
S'ADV'
p762
F0.098504
sS'PRT'
p763
F0.901496
s(lp764
(g127
I19
tp765
atp766
a(S'wiele'
p767
(dp768
S'ADV'
p769
F0.110832
sS'NUM'
p770
F0.889166
s(lp771
(g269
I20
tp772
atp773
a(g81
(dp774
g621
F0.0
sg83
F1.0
s(lp775
(g81
I12
tp776
atp777
a(S'inni'
p778
(dp779
S'NOUN'
p780
F0.263521
sS'ADJ'
p781
F0.736479
s(lp782
(g112
I14
tp783
atp784
a(S'zbyt'
p785
(dp786
S'ADV'
p787
F0.224116
sS'PRT'
p788
F0.775884
s(lp789
(g54
I7
tp790
atp791
a(S'j\xc4\x85'
p792
(dp793
S'PRON'
p794
F1.0
s(lp795
(g258
I18
tp796
atp797
a(S'ograniczy\xc4\x87'
p798
(dp799
S'VERB'
p800
F1.0
s(lp801
(g143
I17
tp802
atp803
a(g83
(dp804
g83
F1.0
s(lp805
(g83
I21
tp806
atp807
asS'sl'
p808
(lp809
(S'nekateri'
p810
(dp811
S'PRON'
p812
F1.0
s(lp813
(g8
I0
tp814
atp815
a(S'bi'
p816
(dp817
g621
F0.000101
sS'VERB'
p818
F0.999899
s(lp819
(g15
I1
tp820
atp821
a(S'radi'
p822
(dp823
S'ADV'
p824
F1.0
s(lp825
(g163
I2
tp826
atp827
a(S'v'
p828
(dp829
S'ADP'
p830
F1.0
s(lp831
(g62
I9
tp832
atp833
a(S'politiko'
p834
(dp835
S'NOUN'
p836
F1.0
s(lp837
(g78
I11
tp838
atp839
a(S'vlo\xc5\xbeili'
p840
(dp841
S'VERB'
p842
F1.0
s(lp843
(g30
I4
tp844
atp845
a(S'malo'
p846
(dp847
S'ADV'
p848
F0.993384
sS'ADJ'
p849
F0.0066159999999999995
s(lp850
(g46
I6
tp851
atp852
a(S'preve\xc4\x8d'
p853
(dp854
S'ADV'
p855
F1.0
s(lp856
(g54
I7
tp857
atp858
a(g81
(dp859
g83
F1.0
s(lp860
(g81
I12
tp861
atp862
a(S'medtem'
p863
(dp864
S'ADV'
p865
F1.0
s(lp866
tp867
a(S'ko'
p868
(dp869
S'CONJ'
p870
F1.0
s(lp871
(g98
I13
tp872
atp873
a(S'jo'
p874
(dp875
S'PRON'
p876
F0.999944
sg621
F5.6e-05
s(lp877
(g258
I18
tp878
atp879
a(S'drugi'
p880
(dp881
S'NUM'
p882
F1.0
s(lp883
(g112
I14
tp884
atp885
a(S'\xc5\xbeelijo'
p886
(dp887
S'VERB'
p888
F1.0
s(lp889
(g119
I15
tp890
atp891
a(S'preve\xc4\x8d'
p892
(dp893
S'ADV'
p894
F1.0
s(lp895
(g127
I19
tp896
atp897
a(S'omejiti'
p898
(dp899
S'VERB'
p900
F1.0
s(lp901
(g143
I17
tp902
atp903
a(g83
(dp904
g83
F1.0
s(lp905
(g83
I21
tp906
atp907
asS'es'
p908
(lp909
(S'algunos'
p910
(dp911
S'ADJ'
p912
F1.0
s(lp913
(g8
I0
tp914
atp915
a(S'quieren'
p916
(dp917
S'VERB'
p918
F1.0
s(lp919
(g163
I2
tp920
atp921
a(S'poner'
p922
(dp923
S'VERB'
p924
F1.0
s(lp925
(g30
I4
tp926
atp927
a(S'demasiado'
p928
(dp929
S'ADV'
p930
F0.884191
sS'ADJ'
p931
F0.115809
s(lp932
(g54
I7
tp933
atp934
a(S'en'
p935
(dp936
g621
F0.0
sS'CONJ'
p937
F2e-06
sS'ADP'
p938
F0.999998
s(lp939
(g62
I9
tp940
atp941
a(S'la'
p942
(dp943
S'NOUN'
p944
F2.2e-05
sS'PRON'
p945
F0.0
sS'DET'
p946
F0.999976
sg621
F2e-06
s(lp947
(g69
I10
tp948
atp949
a(S'pol\xc3\xadtica'
p950
(dp951
S'ADJ'
p952
F0.449014
sS'NOUN'
p953
F0.550986
s(lp954
(g78
I11
tp955
atp956
a(g81
(dp957
g83
F1.0
s(lp958
(g81
I12
tp959
atp960
a(S'mientras'
p961
(dp962
S'CONJ'
p963
F1.0
s(lp964
tp965
a(S'que'
p966
(dp967
S'CONJ'
p968
F1.0
s(lp969
(g98
I13
tp970
atp971
a(S'otros'
p972
(dp973
S'ADJ'
p974
F1.0
s(lp975
(g112
I14
tp976
atp977
a(S'quieren'
p978
(dp979
S'VERB'
p980
F1.0
s(lp981
(g119
I15
tp982
atp983
a(S'restrigirla'
p984
(dp985
S'VERB'
p986
F0.984156
sS'NOUN'
p987
F0.015844
s(lp988
(g143
I17
tp989
atp990
a(S'en'
p991
(dp992
g621
F3.5e-05
sS'CONJ'
p993
F1.8e-05
sS'ADP'
p994
F0.999947
s(lp995
(g258
I18
tp996
atp997
a(S'exceso'
p998
(dp999
S'NOUN'
p1000
F1.0
s(lp1001
(g127
I19
tp1002
atp1003
a(g83
(dp1004
g83
F1.0
s(lp1005
(g83
I21
tp1006
atp1007
as.