(dp0
S'fr'
p1
(lp2
(S'il'
p3
(dp4
S'PRON'
p5
F1.0
s(lp6
tp7
a(S'nous'
p8
(dp9
S'PRON'
p10
F1.0
s(lp11
(S'we'
p12
I0
tp13
atp14
a(S'faut'
p15
(dp16
S'VERB'
p17
F1.0
s(lp18
(S'must'
p19
I1
tp20
atp21
a(S'\xc3\xa9viter'
p22
(dp23
S'VERB'
p24
F1.0
s(lp25
(S'not'
p26
I2
tp27
atp28
a(S'cette'
p29
(dp30
S'PRON'
p31
F1.0
s(lp32
(S'that'
p33
I4
tp34
atp35
a(S'erreur'
p36
(dp37
S'NOUN'
p38
F1.0
s(lp39
tp40
a(S'\xc3\xa0'
p41
(dp42
S'ADP'
p43
F1.0
s(lp44
tp45
a(S'tout'
p46
(dp47
S'ADV'
p48
F0.008641
sS'PRON'
p49
F0.990933
sS'NOUN'
p50
F0.000426
s(lp51
(S'make'
p52
I3
tp53
atp54
a(S'prix'
p55
(dp56
S'NOUN'
p57
F1.0
s(lp58
(S'mistake'
p59
I5
tp60
atp61
a(S'.'
p62
(dp63
g62
F1.0
s(lp64
(g62
I6
tp65
atp66
asS'en'
p67
(lp68
(g12
(dp69
S'PRON'
p70
F1.0
s(lp71
(g12
I0
tp72
atp73
a(g19
(dp74
S'VERB'
p75
F1.0
sS'NOUN'
p76
F0.0
s(lp77
(g19
I1
tp78
atp79
a(g26
(dp80
S'ADV'
p81
F1.0
s(lp82
(g26
I2
tp83
atp84
a(g52
(dp85
S'VERB'
p86
F0.999804
sS'NOUN'
p87
F0.000196
s(lp88
(g52
I3
tp89
atp90
a(g33
(dp91
S'ADV'
p92
F0.000295
sS'DET'
p93
F0.569934
sS'ADP'
p94
F0.429771
s(lp95
(g33
I4
tp96
atp97
a(g59
(dp98
S'VERB'
p99
F0.00035800000000000003
sS'NOUN'
p100
F0.999643
s(lp101
(g59
I5
tp102
atp103
a(g62
(dp104
g62
F1.0
s(lp105
(g62
I6
tp106
atp107
asS'nl'
p108
(lp109
(S'die'
p110
(dp111
S'PRON'
p112
F0.999999
s(lp113
(g33
I4
tp114
atp115
a(S'vergissing'
p116
(dp117
S'NOUN'
p118
F1.0
s(lp119
(g59
I5
tp120
atp121
a(S'moeten'
p122
(dp123
S'VERB'
p124
F1.0
sS'NOUN'
p125
F0.0
s(lp126
(g19
I1
tp127
atp128
a(S'we'
p129
(dp130
S'PRON'
p131
F1.0
s(lp132
(g12
I0
tp133
atp134
a(S'niet'
p135
(dp136
S'ADV'
p137
F0.999978
sS'PRON'
p138
F9e-06
sS'VERB'
p139
F1.3e-05
sS'X'
p140
F0.0
s(lp141
(g26
I2
tp142
atp143
a(S'maken'
p144
(dp145
S'VERB'
p146
F0.9999819999999999
sS'NOUN'
p147
F1.8e-05
s(lp148
(g52
I3
tp149
atp150
a(g62
(dp151
g62
F1.0
s(lp152
(g62
I6
tp153
atp154
asS'de'
p155
(lp156
(S'diesen'
p157
(dp158
S'PRON'
p159
F1.0
s(lp160
(g33
I4
tp161
atp162
a(S'fehler'
p163
(dp164
S'VERB'
p165
F0.035736
sS'NOUN'
p166
F0.956635
s(lp167
tp168
a(S'd\xc3\xbcrfen'
p169
(dp170
S'VERB'
p171
F0.999712
s(lp172
(g19
I1
tp173
atp174
a(S'wir'
p175
(dp176
S'PRON'
p177
F1.0
s(lp178
(g12
I0
tp179
atp180
a(S'nicht'
p181
(dp182
S'PRT'
p183
F1.0
s(lp184
(g26
I2
tp185
atp186
a(S'begehen'
p187
(dp188
S'VERB'
p189
F1.0
s(lp190
(g59
I5
tp191
atp192
a(g62
(dp193
g62
F1.0
s(lp194
(g62
I6
tp195
atp196
asS'it'
p197
(lp198
(S'non'
p199
(dp200
S'ADV'
p201
F1.0
s(lp202
(g26
I2
tp203
atp204
a(S'dobbiamo'
p205
(dp206
S'VERB'
p207
F1.0
s(lp208
(g19
I1
tp209
atp210
a(S'commettere'
p211
(dp212
S'VERB'
p213
F1.0
s(lp214
(g52
I3
tp215
atp216
a(S'questo'
p217
(dp218
S'PRON'
p219
F1.0
s(lp220
(g33
I4
tp221
atp222
a(S'errore'
p223
(dp224
S'NOUN'
p225
F1.0
s(lp226
(g59
I5
tp227
atp228
a(g62
(dp229
g62
F1.0
s(lp230
(g62
I6
tp231
atp232
asS'sk'
p233
(lp234
(S't\xc3\xbato'
p235
(dp236
S'PRON'
p237
F1.0
s(lp238
(g33
I4
tp239
atp240
a(S'chybu'
p241
(dp242
S'NOUN'
p243
F1.0
s(lp244
(g59
I5
tp245
atp246
a(S'nesmieme'
p247
(dp248
S'VERB'
p249
F1.0
s(lp250
(g19
I1
tp251
atp252
a(S'urobi\xc5\xa5'
p253
(dp254
S'VERB'
p255
F1.0
s(lp256
(g52
I3
tp257
atp258
a(g62
(dp259
g62
F1.0
s(lp260
(g62
I6
tp261
atp262
asS'pl'
p263
(lp264
(S'nie'
p265
(dp266
S'ADV'
p267
F3.3e-05
sS'PRT'
p268
F0.992645
sS'CONJ'
p269
F0.007309
sS'NOUN'
p270
F1.3e-05
sS'PRON'
p271
F0.0
s(lp272
(g26
I2
tp273
atp274
a(S'mo\xc5\xbcemy'
p275
(dp276
S'VERB'
p277
F1.0
s(lp278
(g19
I1
tp279
atp280
a(S'pope\xc5\x82ni\xc4\x87'
p281
(dp282
S'VERB'
p283
F1.0
s(lp284
tp285
a(S'tego'
p286
(dp287
S'NOUN'
p288
F0.078197
sS'ADJ'
p289
F0.9211289999999999
sS'PRT'
p290
F2.6e-05
sg140
F0.000648
s(lp291
(g33
I4
tp292
atp293
a(S'b\xc5\x82\xc4\x99du'
p294
(dp295
S'NOUN'
p296
F1.0
s(lp297
(g59
I5
tp298
atp299
a(g62
(dp300
g62
F1.0
s(lp301
(g62
I6
tp302
atp303
asS'sl'
p304
(lp305
(S'ne'
p306
(dp307
S'PRT'
p308
F0.997452
sS'CONJ'
p309
F0.002535
sg140
F1.3000000000000001e-05
s(lp310
(g26
I2
tp311
atp312
a(S'smemo'
p313
(dp314
S'VERB'
p315
F1.0
s(lp316
(g19
I1
tp317
atp318
a(S'storiti'
p319
(dp320
S'VERB'
p321
F1.0
s(lp322
(g52
I3
tp323
atp324
a(S'enake'
p325
(dp326
S'PRON'
p327
F1.000001
s(lp328
tp329
a(S'napake'
p330
(dp331
S'NOUN'
p332
F1.0
s(lp333
(g59
I5
tp334
atp335
a(g62
(dp336
g62
F1.0
s(lp337
(g62
I6
tp338
atp339
asS'es'
p340
(lp341
(S'no'
p342
(dp343
S'ADV'
p344
F0.999243
sg140
F0.000757
s(lp345
(g26
I2
tp346
atp347
a(S'debemos'
p348
(dp349
S'VERB'
p350
F1.0
s(lp351
(g19
I1
tp352
atp353
a(S'cometer'
p354
(dp355
S'VERB'
p356
F1.0
s(lp357
(g52
I3
tp358
atp359
a(S'ese'
p360
(dp361
S'PRON'
p362
F0.99995
sS'NOUN'
p363
F5e-05
s(lp364
(g33
I4
tp365
atp366
a(S'error'
p367
(dp368
g140
F1e-06
sS'NOUN'
p369
F0.999999
s(lp370
(g59
I5
tp371
atp372
a(g62
(dp373
g62
F1.0
s(lp374
(g62
I6
tp375
atp376
as.