(dp0
S'fr'
p1
(lp2
(S'madame'
p3
(dp4
S'NOUN'
p5
F1.0
s(lp6
tp7
a(S'la'
p8
(dp9
S'PRON'
p10
F5.2e-05
sS'DET'
p11
F0.999948
sS'NOUN'
p12
F0.0
s(lp13
(S'madam'
p14
I0
tp15
atp16
a(S'pr\xc3\xa9sidente'
p17
(dp18
S'NOUN'
p19
F1.0
s(lp20
(S'president'
p21
I1
tp22
atp23
a(S','
p24
(dp25
S'.'
p26
F1.0
s(lp27
(g24
I2
tp28
atp29
a(S'il'
p30
(dp31
S'PRON'
p32
F1.0
s(lp33
(S'there'
p34
I3
tp35
atp36
a(S'y'
p37
(dp38
S'PRON'
p39
F1.0
s(lp40
tp41
a(S'a'
p42
(dp43
S'VERB'
p44
F1.0
s(lp45
(g34
I3
tp46
atp47
a(S'beaucoup'
p48
(dp49
S'ADV'
p50
F1.0
s(lp51
(S'much'
p52
I5
tp53
atp54
a(S'de'
p55
(dp56
S'ADP'
p57
F1.0
s(lp58
(S'of'
p59
I6
tp60
atp61
a(S'bons'
p62
(dp63
S'NOUN'
p64
F0.037443
sS'ADJ'
p65
F0.962557
s(lp66
(S'pie'
p67
I8
tp68
atp69
a(S'sentiments'
p70
(dp71
S'NOUN'
p72
F1.0
s(lp73
(S'apple'
p74
I7
tp75
atp76
a(S'et'
p77
(dp78
S'CONJ'
p79
F1.0
s(lp80
(S'and'
p81
I9
tp82
atp83
a(S'de'
p84
(dp85
S'ADP'
p86
F1.0
s(lp87
tp88
a(S'candeur'
p89
(dp90
S'NOUN'
p91
F1.0
s(lp92
(S'motherhood'
p93
I10
tp94
atp95
a(S'dans'
p96
(dp97
S'NOUN'
p98
F3e-06
sS'ADP'
p99
F0.999997
s(lp100
(S'about'
p101
I11
tp102
atp103
a(S'ce'
p104
(dp105
S'PRON'
p106
F1.0
s(lp107
(S'this'
p108
I12
tp109
atp110
a(S'rapport'
p111
(dp112
S'NOUN'
p113
F1.0
s(lp114
(S'report'
p115
I13
tp116
atp117
a(g26
(dp118
g26
F1.0
s(lp119
(g26
I14
tp120
atp121
asS'en'
p122
(lp123
(g14
(dp124
S'NOUN'
p125
F1.0
s(lp126
(g14
I0
tp127
atp128
a(g21
(dp129
S'NOUN'
p130
F1.0
s(lp131
(g21
I1
tp132
atp133
a(g24
(dp134
g26
F1.0
s(lp135
(g24
I2
tp136
atp137
a(g34
(dp138
S'ADV'
p139
F0.000932
sS'ADJ'
p140
F0.0
sS'DET'
p141
F0.999068
sS'ADP'
p142
F0.0
s(lp143
(g34
I3
tp144
atp145
a(S'is'
p146
(dp147
S'VERB'
p148
F1.0
s(lp149
(g146
I4
tp150
atp151
a(g52
(dp152
S'ADV'
p153
F0.873572
sS'ADJ'
p154
F0.126428
s(lp155
(g52
I5
tp156
atp157
a(g59
(dp158
S'ADP'
p159
F1.0
s(lp160
(g59
I6
tp161
atp162
a(g74
(dp163
S'NOUN'
p164
F1.0
s(lp165
(g74
I7
tp166
atp167
a(g67
(dp168
S'NOUN'
p169
F1.0
s(lp170
(g67
I8
tp171
atp172
a(g81
(dp173
S'CONJ'
p174
F0.999998
sS'NOUN'
p175
F2e-06
s(lp176
(g81
I9
tp177
atp178
a(g93
(dp179
S'NOUN'
p180
F1.0
s(lp181
(g93
I10
tp182
atp183
a(g101
(dp184
S'ADV'
p185
F0.059358
sS'ADP'
p186
F0.940642
s(lp187
(g101
I11
tp188
atp189
a(g108
(dp190
S'ADV'
p191
F9e-06
sS'NOUN'
p192
F1.9e-05
sS'DET'
p193
F0.999972
s(lp194
(g108
I12
tp195
atp196
a(g115
(dp197
S'VERB'
p198
F0.001076
sS'NOUN'
p199
F0.998925
s(lp200
(g115
I13
tp201
atp202
a(g26
(dp203
g26
F1.0
s(lp204
(g26
I14
tp205
atp206
asS'nl'
p207
(lp208
(g26
(dp209
g26
F1.0
s(lp210
(g14
I0
tp211
atp212
a(S'-'
p213
(dp214
g26
F1.0
s(lp215
(g14
I0
tp216
atp217
a(S'('
p218
(dp219
g26
F1.0
s(lp220
tp221
a(S'en'
p222
(dp223
S'CONJ'
p224
F1.0
s(lp225
(g21
I1
tp226
atp227
a(S')'
p228
(dp229
g26
F1.0
s(lp230
(g21
I1
tp231
atp232
a(S'mevrouw'
p233
(dp234
S'NOUN'
p235
F1.0
s(lp236
(g14
I0
tp237
atp238
a(S'de'
p239
(dp240
S'DET'
p241
F1.0
s(lp242
tp243
a(S'voorzitter'
p244
(dp245
S'NOUN'
p246
F1.0
s(lp247
(g21
I1
tp248
atp249
a(g24
(dp250
g26
F1.0
s(lp251
(g24
I2
tp252
atp253
a(S'dit'
p254
(dp255
S'PRON'
p256
F1.0
s(lp257
(g108
I12
tp258
atp259
a(S'verslag'
p260
(dp261
S'NOUN'
p262
F1.0
s(lp263
(g115
I13
tp264
atp265
a(S'bevat'
p266
(dp267
S'VERB'
p268
F1.0
s(lp269
(g34
I3
tp270
atp271
a(S'veel'
p272
(dp273
S'ADV'
p274
F0.990646
sS'NUM'
p275
F0.008599
sS'VERB'
p276
F0.000755
s(lp277
(g52
I5
tp278
atp279
a(S'waarmee'
p280
(dp281
S'ADV'
p282
F1.0
s(lp283
(g67
I8
tp284
atp285
a(S'iedereen'
p286
(dp287
S'PRON'
p288
F1.0
s(lp289
(g67
I8
tp290
atp291
a(S'het'
p292
(dp293
S'PRON'
p294
F0.661914
sS'DET'
p295
F0.338086
s(lp296
(g93
I10
tp297
atp298
a(S'wel'
p299
(dp300
S'ADV'
p301
F0.999607
sS'X'
p302
F0.0
sS'VERB'
p303
F8e-05
sS'NOUN'
p304
F0.000313
s(lp305
(g74
I7
tp306
atp307
a(S'eens'
p308
(dp309
S'ADV'
p310
F0.997015
sS'ADJ'
p311
F0.002985
s(lp312
tp313
a(S'moet'
p314
(dp315
S'VERB'
p316
F1.0
s(lp317
(g67
I8
tp318
atp319
a(S'zijn'
p320
(dp321
S'PRON'
p322
F0.014696
sS'VERB'
p323
F0.985007
sS'NOUN'
p324
F0.000298
s(lp325
tp326
a(g26
(dp327
g26
F1.0
s(lp328
(g26
I14
tp329
atp330
asS'de'
p331
(lp332
(g218
(dp333
g26
F1.0
s(lp334
tp335
a(S'en'
p336
(dp337
g302
F1.0
s(lp338
(g21
I1
tp339
atp340
a(g228
(dp341
g26
F1.0
s(lp342
(g21
I1
tp343
atp344
a(S'frau'
p345
(dp346
S'NOUN'
p347
F0.02829
sS'ADJ'
p348
F0.947479
s(lp349
(g14
I0
tp350
atp351
a(S'pr\xc3\xa4sidentin'
p352
(dp353
S'NOUN'
p354
F0.9949129999999999
s(lp355
tp356
a(S'!'
p357
(dp358
g26
F1.0
s(lp359
(g21
I1
tp360
atp361
a(S'dieser'
p362
(dp363
S'PRON'
p364
F1.0
s(lp365
(g108
I12
tp366
atp367
a(S'bericht'
p368
(dp369
S'VERB'
p370
F0.001012
sS'NOUN'
p371
F0.998728
s(lp372
(g115
I13
tp373
atp374
a(S'beinhaltet'
p375
(dp376
S'VERB'
p377
F0.816616
sS'ADJ'
p378
F0.148127
s(lp379
(g74
I7
tp380
atp381
a(S'zahlreiche'
p382
(dp383
S'ADJ'
p384
F1.0
s(lp385
(g67
I8
tp386
atp387
a(S'allgemeinpl\xc3\xa4tze'
p388
(dp389
S'ADJ'
p390
F0.002302
sS'NOUN'
p391
F0.996114
s(lp392
(g93
I10
tp393
atp394
a(g26
(dp395
g26
F1.0
s(lp396
(g26
I14
tp397
atp398
asS'it'
p399
(lp400
(g218
(dp401
g26
F1.0
s(lp402
tp403
a(S'en'
p404
(dp405
S'ADJ'
p406
F0.097599
sS'VERB'
p407
F0.025145
sS'NOUN'
p408
F0.877257
s(lp409
(g21
I1
tp410
atp411
a(g228
(dp412
g26
F1.0
s(lp413
tp414
a(S'signora'
p415
(dp416
S'NOUN'
p417
F1.0
s(lp418
(g14
I0
tp419
atp420
a(S'presidente'
p421
(dp422
S'NOUN'
p423
F1.0
s(lp424
(g21
I1
tp425
atp426
a(g24
(dp427
g26
F1.0
s(lp428
(g24
I2
tp429
atp430
a(S'in'
p431
(dp432
S'ADP'
p433
F1.0
s(lp434
(g101
I11
tp435
atp436
a(S'questa'
p437
(dp438
S'PRON'
p439
F1.0
s(lp440
(g108
I12
tp441
atp442
a(S'relazione'
p443
(dp444
S'NOUN'
p445
F1.0
s(lp446
(g115
I13
tp447
atp448
a(S"c'"
p449
(dp450
S'NOUN'
p451
F1.0
s(lp452
(g34
I3
tp453
atp454
a(S'\xc3\xa8'
p455
(dp456
S'VERB'
p457
F1.0
s(lp458
(g146
I4
tp459
atp460
a(S'molto'
p461
(dp462
S'ADV'
p463
F0.942806
sS'PRON'
p464
F0.001118
sS'VERB'
p465
F0.033666
sS'ADJ'
p466
F0.022411
s(lp467
(g52
I5
tp468
atp469
a(S'di'
p470
(dp471
S'CONJ'
p472
F6e-06
sS'ADP'
p473
F0.999994
s(lp474
(g59
I6
tp475
atp476
a(S'ovvio'
p477
(dp478
S'ADJ'
p479
F0.350309
sS'VERB'
p480
F2e-05
sS'NOUN'
p481
F0.649671
s(lp482
(g74
I7
tp483
atp484
a(S'e'
p485
(dp486
S'CONJ'
p487
F1.0
s(lp488
(g81
I9
tp489
atp490
a(S'scontato'
p491
(dp492
S'VERB'
p493
F0.812761
sS'ADJ'
p494
F0.187239
s(lp495
(g93
I10
tp496
atp497
a(g26
(dp498
g26
F1.0
s(lp499
(g26
I14
tp500
atp501
asS'sk'
p502
(lp503
(S'pani'
p504
(dp505
S'NOUN'
p506
F1.0
s(lp507
(g14
I0
tp508
atp509
a(S'predsedaj\xc3\xbaca'
p510
(dp511
S'NOUN'
p512
F0.03007
sS'VERB'
p513
F0.922105
sS'ADJ'
p514
F0.047825
s(lp515
(g21
I1
tp516
atp517
a(g24
(dp518
g26
F1.0
s(lp519
(g24
I2
tp520
atp521
a(S'v'
p522
(dp523
g302
F0.000125
sS'ADP'
p524
F0.999875
s(lp525
(g34
I3
tp526
atp527
a(S'tejto'
p528
(dp529
S'PRON'
p530
F1.0
s(lp531
(g108
I12
tp532
atp533
a(S'spr\xc3\xa1ve'
p534
(dp535
S'NOUN'
p536
F1.0
s(lp537
(g115
I13
tp538
atp539
a(S'je'
p540
(dp541
g302
F6e-05
sS'VERB'
p542
F0.999918
sS'PRON'
p543
F2.2e-05
s(lp544
(g146
I4
tp545
atp546
a(S've\xc4\xbea'
p547
(dp548
S'ADV'
p549
F0.000535
sS'NUM'
p550
F0.9994649999999999
s(lp551
(g52
I5
tp552
atp553
a(S'bodov'
p554
(dp555
S'NOUN'
p556
F1.0
s(lp557
(g74
I7
tp558
atp559
a(g24
(dp560
g26
F1.0
s(lp561
tp562
a(S's'
p563
(dp564
g302
F0.000683
sS'CONJ'
p565
F0.003375
sS'NOUN'
p566
F1.1e-05
sS'ADP'
p567
F0.995766
sS'PRT'
p568
F0.000165
s(lp569
(g101
I11
tp570
atp571
a(S'ktor\xc3\xbdmi'
p572
(dp573
S'PRON'
p574
F1.0
s(lp575
(g67
I8
tp576
atp577
a(S'v\xc5\xa1etci'
p578
(dp579
S'PRON'
p580
F1.0
s(lp581
tp582
a(S's\xc3\xbahlas\xc3\xadme'
p583
(dp584
S'VERB'
p585
F1.0
s(lp586
(g67
I8
tp587
atp588
a(g26
(dp589
g26
F1.0
s(lp590
(g26
I14
tp591
atp592
asS'pl'
p593
(lp594
(S'pani'
p595
(dp596
S'NOUN'
p597
F0.999999
s(lp598
tp599
a(S'przewodnicz\xc4\x85ca'
p600
(dp601
S'NOUN'
p602
F1.0
s(lp603
(g14
I0
tp604
atp605
a(g357
(dp606
g26
F1.0
s(lp607
(g21
I1
tp608
atp609
a(S'to'
p610
(dp611
S'NOUN'
p612
F0.16492099999999998
sS'ADP'
p613
F0.0
sS'PRT'
p614
F0.015789
sg302
F5e-06
sS'CONJ'
p615
F0.03276
sS'ADJ'
p616
F0.786525
s(lp617
(g108
I12
tp618
atp619
a(S'sprawozdanie'
p620
(dp621
S'NOUN'
p622
F1.0
s(lp623
(g115
I13
tp624
atp625
a(S'zawiera'
p626
(dp627
S'VERB'
p628
F1.0
s(lp629
tp630
a(S'wiele'
p631
(dp632
S'ADV'
p633
F0.00585
sS'NUM'
p634
F0.9941489999999998
s(lp635
(g52
I5
tp636
atp637
a(S'pozytywnych'
p638
(dp639
S'ADJ'
p640
F1.0
s(lp641
(g74
I7
tp642
atp643
a(S'warto\xc5\x9bci'
p644
(dp645
S'NOUN'
p646
F1.0
s(lp647
(g67
I8
tp648
atp649
a(g26
(dp650
g26
F1.0
s(lp651
(g26
I14
tp652
atp653
asS'sl'
p654
(lp655
(S'gospa'
p656
(dp657
S'NOUN'
p658
F1.0
s(lp659
(g14
I0
tp660
atp661
a(S'predsednica'
p662
(dp663
S'NOUN'
p664
F1.0
s(lp665
(g21
I1
tp666
atp667
a(g24
(dp668
g26
F1.0
s(lp669
(g24
I2
tp670
atp671
a(S'to'
p672
(dp673
S'PRON'
p674
F0.9999610000000001
sg302
F3.8e-05
s(lp675
(g108
I12
tp676
atp677
a(S'poro\xc4\x8dilo'
p678
(dp679
S'NOUN'
p680
F1.0
s(lp681
(g115
I13
tp682
atp683
a(S'obravnava'
p684
(dp685
S'VERB'
p686
F0.944591
sS'NOUN'
p687
F0.055409
s(lp688
tp689
a(S'veliko'
p690
(dp691
S'ADV'
p692
F0.992649
sS'ADJ'
p693
F0.007351000000000001
s(lp694
(g52
I5
tp695
atp696
a(S'bistvenih'
p697
(dp698
S'ADJ'
p699
F0.999999
s(lp700
(g74
I7
tp701
atp702
a(S'vpra\xc5\xa1anj'
p703
(dp704
S'NOUN'
p705
F1.0
s(lp706
(g67
I8
tp707
atp708
a(g26
(dp709
g26
F1.0
s(lp710
(g26
I14
tp711
atp712
asS'es'
p713
(lp714
(S'se\xc3\xb1ora'
p715
(dp716
S'NOUN'
p717
F1.0
s(lp718
(g14
I0
tp719
atp720
a(S'presidenta'
p721
(dp722
S'NOUN'
p723
F1.0
s(lp724
(g21
I1
tp725
atp726
a(g24
(dp727
g26
F1.0
s(lp728
(g24
I2
tp729
atp730
a(S'hay'
p731
(dp732
S'VERB'
p733
F1.0
s(lp734
(g34
I3
tp735
atp736
a(S'mucho'
p737
(dp738
S'ADV'
p739
F0.325949
sS'ADJ'
p740
F0.674051
s(lp741
(g52
I5
tp742
atp743
a(S'de'
p744
(dp745
g302
F1e-06
sS'CONJ'
p746
F0.001308
sS'ADP'
p747
F0.998692
s(lp748
(g59
I6
tp749
atp750
a(S'valores'
p751
(dp752
S'NOUN'
p753
F1.0
s(lp754
(g74
I7
tp755
atp756
a(S'tradicionales'
p757
(dp758
S'ADJ'
p759
F1.0
s(lp760
(g67
I8
tp761
atp762
a(S'en'
p763
(dp764
g302
F0.0
sS'CONJ'
p765
F2e-06
sS'ADP'
p766
F0.999998
s(lp767
(g101
I11
tp768
atp769
a(S'este'
p770
(dp771
S'PRON'
p772
F0.999823
sS'NOUN'
p773
F0.000177
s(lp774
(g108
I12
tp775
atp776
a(S'informe'
p777
(dp778
S'VERB'
p779
F0.00232
sS'NOUN'
p780
F0.99768
s(lp781
(g115
I13
tp782
atp783
a(g26
(dp784
g26
F1.0
s(lp785
(g26
I14
tp786
atp787
as.