(dp0
S'fr'
p1
(lp2
(S'ce'
p3
(dp4
S'PRON'
p5
F1.0
s(lp6
tp7
a(S'sont'
p8
(dp9
S'VERB'
p10
F1.0
s(lp11
(S'are'
p12
I3
tp13
atp14
a(S'ces'
p15
(dp16
S'PRON'
p17
F1.0
s(lp18
(S'these'
p19
I0
tp20
atp21
a(S'm\xc3\xaames'
p22
(dp23
S'ADJ'
p24
F1.0
s(lp25
(S'same'
p26
I1
tp27
atp28
a(S'raisons'
p29
(dp30
S'NOUN'
p31
F1.0
s(lp32
tp33
a(S'qui'
p34
(dp35
S'PRON'
p36
F1.0
s(lp37
(S'behind'
p38
I5
tp39
atp40
a(S'justifient'
p41
(dp42
S'VERB'
p43
F1.0
s(lp44
(S'reasons'
p45
I2
tp46
atp47
a(S'notre'
p48
(dp49
S'PRON'
p50
F1.0
s(lp51
(S'our'
p52
I6
tp53
atp54
a(S'abstention'
p55
(dp56
S'NOUN'
p57
F1.0
s(lp58
(S'abstention'
p59
I7
tp60
atp61
a(S'sur'
p62
(dp63
S'ADP'
p64
F1.0
s(lp65
(S'on'
p66
I8
tp67
atp68
a(S'les'
p69
(dp70
S'PRON'
p71
F5.6e-05
sS'DET'
p72
F0.999943
sS'ADP'
p73
F2e-06
s(lp74
(S'the'
p75
I9
tp76
atp77
a(S'rapports'
p78
(dp79
S'NOUN'
p80
F1.0
s(lp81
(S'reports'
p82
I11
tp83
atp84
a(S'suivants'
p85
(dp86
S'NOUN'
p87
F0.005274
sS'ADJ'
p88
F0.994726
s(lp89
(S'remaining'
p90
I10
tp91
atp92
a(S'.'
p93
(dp94
g93
F1.0
s(lp95
(g93
I12
tp96
atp97
asS'en'
p98
(lp99
(g19
(dp100
S'NOUN'
p101
F1e-06
sS'DET'
p102
F0.999999
s(lp103
(g19
I0
tp104
atp105
a(g26
(dp106
S'ADV'
p107
F1e-06
sS'NOUN'
p108
F0.000138
sS'ADJ'
p109
F0.999861
s(lp110
(g26
I1
tp111
atp112
a(g45
(dp113
S'VERB'
p114
F0.0
sS'NOUN'
p115
F1.0
s(lp116
(g45
I2
tp117
atp118
a(g12
(dp119
S'VERB'
p120
F1.0
sS'NOUN'
p121
F0.0
s(lp122
(g12
I3
tp123
atp124
a(S'also'
p125
(dp126
S'ADV'
p127
F1.0
s(lp128
(g125
I4
tp129
atp130
a(g38
(dp131
S'ADV'
p132
F0.031381
sS'NOUN'
p133
F4e-06
sS'ADP'
p134
F0.968614
s(lp135
(g38
I5
tp136
atp137
a(g52
(dp138
S'PRON'
p139
F1.0
s(lp140
(g52
I6
tp141
atp142
a(g59
(dp143
S'NOUN'
p144
F1.0
s(lp145
(g59
I7
tp146
atp147
a(g66
(dp148
S'ADV'
p149
F0.000489
sS'PRT'
p150
F0.000523
sS'ADJ'
p151
F0.0
sS'NOUN'
p152
F0.0
sS'ADP'
p153
F0.998988
s(lp154
(g66
I8
tp155
atp156
a(g75
(dp157
S'NOUN'
p158
F2e-06
sS'DET'
p159
F0.999998
s(lp160
(g75
I9
tp161
atp162
a(g90
(dp163
S'VERB'
p164
F0.89197
sS'ADJ'
p165
F0.10803
s(lp166
(g90
I10
tp167
atp168
a(g82
(dp169
S'VERB'
p170
F3.7e-05
sS'NOUN'
p171
F0.999963
s(lp172
(g82
I11
tp173
atp174
a(g93
(dp175
g93
F1.0
s(lp176
(g93
I12
tp177
atp178
asS'nl'
p179
(lp180
(S'diezelfde'
p181
(dp182
S'PRON'
p183
F1.0
s(lp184
(g26
I1
tp185
atp186
a(S'redenen'
p187
(dp188
S'NOUN'
p189
F1.0
s(lp190
(g45
I2
tp191
atp192
a(S'vormen'
p193
(dp194
S'VERB'
p195
F0.9941679999999999
sS'NOUN'
p196
F0.0058319999999999995
s(lp197
(g12
I3
tp198
atp199
a(S'de'
p200
(dp201
S'DET'
p202
F1.0
s(lp203
(g19
I0
tp204
atp205
a(S'verklaring'
p206
(dp207
S'NOUN'
p208
F1.0
s(lp209
tp210
a(S'voor'
p211
(dp212
S'ADV'
p213
F0.001669
sS'CONJ'
p214
F3e-06
sS'NOUN'
p215
F0.0
sS'ADP'
p216
F0.998328
s(lp217
(g38
I5
tp218
atp219
a(S'onze'
p220
(dp221
S'PRON'
p222
F1.0
s(lp223
(g52
I6
tp224
atp225
a(S'onthouding'
p226
(dp227
S'NOUN'
p228
F1.0
s(lp229
(g59
I7
tp230
atp231
a(S'bij'
p232
(dp233
S'ADV'
p234
F0.004135
sS'NOUN'
p235
F0.0
sS'ADJ'
p236
F0.0
sS'ADP'
p237
F0.995865
s(lp238
(g66
I8
tp239
atp240
a(S'de'
p241
(dp242
S'DET'
p243
F1.0
s(lp244
(g75
I9
tp245
atp246
a(S'overige'
p247
(dp248
S'NOUN'
p249
F1.9e-05
sS'ADJ'
p250
F0.999981
s(lp251
(g90
I10
tp252
atp253
a(S'verslagen'
p254
(dp255
S'ADJ'
p256
F2.9e-05
sS'VERB'
p257
F0.001331
sS'NOUN'
p258
F0.99864
s(lp259
(g82
I11
tp260
atp261
a(g93
(dp262
g93
F1.0
s(lp263
(g93
I12
tp264
atp265
asS'de'
p266
(lp267
(S'diese'
p268
(dp269
S'PRON'
p270
F1.0
s(lp271
(g19
I0
tp272
atp273
a(S'gleichen'
p274
(dp275
S'VERB'
p276
F0.057889
sS'ADJ'
p277
F0.941789
s(lp278
(g26
I1
tp279
atp280
a(S'gr\xc3\xbcnde'
p281
(dp282
S'VERB'
p283
F1.0
s(lp284
(g45
I2
tp285
atp286
a(S'stehen'
p287
(dp288
S'VERB'
p289
F1.0
s(lp290
(g12
I3
tp291
atp292
a(S'auch'
p293
(dp294
S'ADV'
p295
F1.0
s(lp296
(g125
I4
tp297
atp298
a(S'hinter'
p299
(dp300
S'ADJ'
p301
F0.000592
sS'ADP'
p302
F0.999386
s(lp303
(g38
I5
tp304
atp305
a(S'unserer'
p306
(dp307
S'PRON'
p308
F1.0
s(lp309
(g52
I6
tp310
atp311
a(S'abstimmungsenthaltung'
p312
(dp313
S'ADJ'
p314
F7.4e-05
sS'NOUN'
p315
F0.999883
s(lp316
(g59
I7
tp317
atp318
a(S'im'
p319
(dp320
S'ADP'
p321
F1.0
s(lp322
(g66
I8
tp323
atp324
a(S'hinblick'
p325
(dp326
S'VERB'
p327
F0.001253
sS'NOUN'
p328
F0.99874
s(lp329
tp330
a(S'auf'
p331
(dp332
S'PRT'
p333
F0.000898
sS'ADP'
p334
F0.999092
s(lp335
(g66
I8
tp336
atp337
a(S'die'
p338
(dp339
S'PRON'
p340
F0.000219
sS'DET'
p341
F0.999761
s(lp342
(g75
I9
tp343
atp344
a(S'verbleibenden'
p345
(dp346
S'ADJ'
p347
F1.0
s(lp348
(g90
I10
tp349
atp350
a(S'berichte'
p351
(dp352
S'VERB'
p353
F1.0
s(lp354
(g82
I11
tp355
atp356
a(g93
(dp357
g93
F1.0
s(lp358
(g93
I12
tp359
atp360
asS'it'
p361
(lp362
(S'queste'
p363
(dp364
S'PRON'
p365
F1.0
s(lp366
(g19
I0
tp367
atp368
a(S'ragioni'
p369
(dp370
S'VERB'
p371
F0.00010200000000000001
sS'NOUN'
p372
F0.999898
s(lp373
(g45
I2
tp374
atp375
a(S'ci'
p376
(dp377
S'ADV'
p378
F0.001909
sS'PRON'
p379
F0.9980180000000001
sS'NOUN'
p380
F7.3e-05
s(lp381
(g52
I6
tp382
atp383
a(S'hanno'
p384
(dp385
S'VERB'
p386
F1.0
s(lp387
tp388
a(S'portato'
p389
(dp390
S'NOUN'
p391
F0.000572
sS'VERB'
p392
F0.997882
sS'ADJ'
p393
F0.001546
s(lp394
(g45
I2
tp395
atp396
a(S'anche'
p397
(dp398
S'ADV'
p399
F0.999806
sS'NOUN'
p400
F0.000194
s(lp401
(g125
I4
tp402
atp403
a(S'ad'
p404
(dp405
S'ADP'
p406
F1.0
s(lp407
(g38
I5
tp408
atp409
a(S'astenerci'
p410
(dp411
S'VERB'
p412
F1.0
s(lp413
(g59
I7
tp414
atp415
a(S'dal'
p416
(dp417
S'ADP'
p418
F1.0
s(lp419
tp420
a(S'voto'
p421
(dp422
S'VERB'
p423
F0.000222
sS'NOUN'
p424
F0.999778
s(lp425
(g59
I7
tp426
atp427
a(S'sulle'
p428
(dp429
S'NOUN'
p430
F0.000223
sS'ADP'
p431
F0.999777
s(lp432
(g66
I8
tp433
atp434
a(S'altre'
p435
(dp436
S'PRON'
p437
F0.604098
sS'ADJ'
p438
F0.395902
s(lp439
(g90
I10
tp440
atp441
a(S'relazioni'
p442
(dp443
S'VERB'
p444
F0.0021290000000000002
sS'NOUN'
p445
F0.997871
s(lp446
(g82
I11
tp447
atp448
a(g93
(dp449
g93
F1.0
s(lp450
(g93
I12
tp451
atp452
asS'sk'
p453
(lp454
(S'z'
p455
(dp456
S'X'
p457
F6.500000000000001e-05
sS'NOUN'
p458
F2.2000000000000003e-05
sS'ADP'
p459
F0.999913
s(lp460
(g52
I6
tp461
atp462
a(S't\xc3\xbdch'
p463
(dp464
S'PRON'
p465
F1.0
s(lp466
(g19
I0
tp467
atp468
a(S'ist\xc3\xbdch'
p469
(dp470
S'PRON'
p471
F0.177007
sS'ADJ'
p472
F0.822993
s(lp473
(g26
I1
tp474
atp475
a(S'd\xc3\xb4vodov'
p476
(dp477
S'NOUN'
p478
F1.0
s(lp479
(g45
I2
tp480
atp481
a(S'sme'
p482
(dp483
g457
F2.4e-05
sS'VERB'
p484
F0.999976
s(lp485
(g59
I7
tp486
atp487
a(S'sa'
p488
(dp489
S'PRT'
p490
F0.999985
sS'ADP'
p491
F0.0
sg457
F1.5e-05
s(lp492
(g59
I7
tp493
atp494
a(S'zdr\xc5\xbeali'
p495
(dp496
S'VERB'
p497
F1.0
s(lp498
tp499
a(S'aj'
p500
(dp501
g457
F0.800376
sS'CONJ'
p502
F0.199624
s(lp503
(g125
I4
tp504
atp505
a(S'hlasovania'
p506
(dp507
S'NOUN'
p508
F1.0
s(lp509
(g59
I7
tp510
atp511
a(S'o'
p512
(dp513
g457
F0.00072
sS'CONJ'
p514
F3.9e-05
sS'NOUN'
p515
F7.1e-05
sS'ADP'
p516
F0.99917
s(lp517
(g66
I8
tp518
atp519
a(S'zost\xc3\xa1vaj\xc3\xbacich'
p520
(dp521
S'VERB'
p522
F1.0
s(lp523
(g90
I10
tp524
atp525
a(S'spr\xc3\xa1vach'
p526
(dp527
S'NOUN'
p528
F1.0
s(lp529
(g82
I11
tp530
atp531
a(g93
(dp532
g93
F1.0
s(lp533
(g93
I12
tp534
atp535
asS'pl'
p536
(lp537
(S'w\xc5\x82a\xc5\x9bnie'
p538
(dp539
S'ADV'
p540
F0.366547
sS'PRT'
p541
F0.633453
s(lp542
(g19
I0
tp543
atp544
a(g455
(dp545
S'PRT'
p546
F0.003039
sS'VERB'
p547
F7.9e-05
sS'NOUN'
p548
F8e-06
sS'ADP'
p549
F0.996874
sg457
F0.0
s(lp550
tp551
a(S'tych'
p552
(dp553
S'ADJ'
p554
F1.0
s(lp555
(g26
I1
tp556
atp557
a(S'powod\xc3\xb3w'
p558
(dp559
S'NOUN'
p560
F1.0
s(lp561
(g45
I2
tp562
atp563
a(S'zdecydowali\xc5\x9bmy'
p564
(dp565
S'ADV'
p566
F0.000506
sS'ADJ'
p567
F0.005106
sS'VERB'
p568
F0.9683340000000004
sS'NOUN'
p569
F0.024321000000000002
sS'PRT'
p570
F0.001733
s(lp571
(g59
I7
tp572
atp573
a(S'si\xc4\x99'
p574
(dp575
S'PRT'
p576
F1.0
s(lp577
(g59
I7
tp578
atp579
a(S'wstrzyma\xc4\x87'
p580
(dp581
S'VERB'
p582
F1.0
s(lp583
(g59
I7
tp584
atp585
a(S'od'
p586
(dp587
S'VERB'
p588
F0.0
sS'NOUN'
p589
F1.4e-05
sS'ADP'
p590
F0.999985
s(lp591
tp592
a(S'g\xc5\x82osowania'
p593
(dp594
S'VERB'
p595
F0.074241
sS'NOUN'
p596
F0.92576
s(lp597
(g59
I7
tp598
atp599
a(S'w'
p600
(dp601
S'ADJ'
p602
F0.0
sg457
F0.0
sS'NOUN'
p603
F0.0
sS'ADP'
p604
F1.0
s(lp605
tp606
a(S'sprawie'
p607
(dp608
S'NOUN'
p609
F1.0
s(lp610
(g66
I8
tp611
atp612
a(S'pozosta\xc5\x82ych'
p613
(dp614
S'ADJ'
p615
F1.0
s(lp616
(g90
I10
tp617
atp618
a(S'sprawozda\xc5\x84'
p619
(dp620
S'NOUN'
p621
F1.0
s(lp622
(g82
I11
tp623
atp624
a(g93
(dp625
g93
F1.0
s(lp626
(g93
I12
tp627
atp628
asS'sl'
p629
(lp630
(S'enaki'
p631
(dp632
S'PRON'
p633
F1.0
s(lp634
(g26
I1
tp635
atp636
a(S'razlogi'
p637
(dp638
S'NOUN'
p639
F1.0
s(lp640
(g45
I2
tp641
atp642
a(S'veljajo'
p643
(dp644
S'VERB'
p645
F1.0
s(lp646
(g12
I3
tp647
atp648
a(S'tudi'
p649
(dp650
S'PRT'
p651
F1.0
s(lp652
(g125
I4
tp653
atp654
a(S'za'
p655
(dp656
S'ADV'
p657
F9e-06
sg457
F0.0
sS'ADP'
p658
F0.999991
s(lp659
(g38
I5
tp660
atp661
a(S'na\xc5\xa1o'
p662
(dp663
S'PRON'
p664
F1.0
s(lp665
(g52
I6
tp666
atp667
a(S'vzdr\xc5\xbenost'
p668
(dp669
S'ADJ'
p670
F0.000147
sS'NOUN'
p671
F0.999853
s(lp672
(g59
I7
tp673
atp674
a(S'glede'
p675
(dp676
S'ADV'
p677
F0.178558
sS'ADP'
p678
F0.821442
s(lp679
(g66
I8
tp680
atp681
a(S'preostalih'
p682
(dp683
S'ADJ'
p684
F1.0
s(lp685
(g90
I10
tp686
atp687
a(S'poro\xc4\x8dil'
p688
(dp689
S'VERB'
p690
F0.287694
sS'NOUN'
p691
F0.712306
s(lp692
(g82
I11
tp693
atp694
a(g93
(dp695
g93
F1.0
s(lp696
(g93
I12
tp697
atp698
asS'es'
p699
(lp700
(S'nuestra'
p701
(dp702
S'PRON'
p703
F0.553251
sS'ADJ'
p704
F0.446749
s(lp705
(g52
I6
tp706
atp707
a(S'abstenci\xc3\xb3n'
p708
(dp709
S'NOUN'
p710
F1.0
s(lp711
tp712
a(S'en'
p713
(dp714
g457
F0.0
sS'CONJ'
p715
F0.0
sS'ADP'
p716
F1.0
s(lp717
(g66
I8
tp718
atp719
a(S'la'
p720
(dp721
S'NOUN'
p722
F0.0
sS'PRON'
p723
F0.0
sS'DET'
p724
F0.999999
sg457
F0.0
s(lp725
(g75
I9
tp726
atp727
a(S'votaci\xc3\xb3n'
p728
(dp729
S'NOUN'
p730
F1.0
s(lp731
(g59
I7
tp732
atp733
a(S'de'
p734
(dp735
g457
F0.0
sS'CONJ'
p736
F1.7e-05
sS'ADP'
p737
F0.999983
s(lp738
tp739
a(S'los'
p740
(dp741
S'PRON'
p742
F0.0
sS'DET'
p743
F1.0
s(lp744
tp745
a(S'informes'
p746
(dp747
S'ADJ'
p748
F0.004805
sS'NOUN'
p749
F0.995195
s(lp750
(g82
I11
tp751
atp752
a(S'restantes'
p753
(dp754
S'NOUN'
p755
F0.000386
sS'VERB'
p756
F0.035025
sS'ADJ'
p757
F0.964589
s(lp758
(g90
I10
tp759
atp760
a(S'se'
p761
(dp762
S'PRON'
p763
F0.999999
sS'VERB'
p764
F1e-06
s(lp765
(g12
I3
tp766
atp767
a(S'basa'
p768
(dp769
S'VERB'
p770
F0.999172
sS'NOUN'
p771
F0.000828
s(lp772
tp773
a(S'en'
p774
(dp775
g457
F0.0
sS'CONJ'
p776
F1e-06
sS'ADP'
p777
F0.999999
s(lp778
(g38
I5
tp779
atp780
a(S'las'
p781
(dp782
S'PRON'
p783
F0.0
sS'DET'
p784
F1.0
s(lp785
(g19
I0
tp786
atp787
a(S'mismas'
p788
(dp789
S'ADJ'
p790
F1.0
s(lp791
(g26
I1
tp792
atp793
a(S'razones'
p794
(dp795
S'NOUN'
p796
F1.0
s(lp797
(g45
I2
tp798
atp799
a(g93
(dp800
g93
F1.0
s(lp801
(g93
I12
tp802
atp803
as.