(dp0
S'fr'
p1
(lp2
(S'il'
p3
(dp4
S'PRON'
p5
F1.0
s(lp6
(S'this'
p7
I0
tp8
atp9
a(S"s'"
p10
(dp11
S'ADJ'
p12
F0.000625
sS'VERB'
p13
F0.9973000000000002
sS'NOUN'
p14
F0.002077
s(lp15
tp16
a(S'agit'
p17
(dp18
S'VERB'
p19
F1.0
s(lp20
(S'is'
p21
I1
tp22
atp23
a(S'en'
p24
(dp25
S'PRON'
p26
F0.001468
sS'ADP'
p27
F0.998532
s(lp28
tp29
a(S'effet'
p30
(dp31
S'NOUN'
p32
F1.0
s(lp33
(S'indeed'
p34
I2
tp35
atp36
a(S"d'"
p37
(dp38
S'NOUN'
p39
F0.032441
sS'VERB'
p40
F0.694014
sS'ADJ'
p41
F0.273544
s(lp42
tp43
a(S'une'
p44
(dp45
S'NOUN'
p46
F1.5e-05
sS'NUM'
p47
F0.021976
sS'DET'
p48
F0.978009
s(lp49
(S'a'
p50
I3
tp51
atp52
a(S'trag\xc3\xa9die'
p53
(dp54
S'NOUN'
p55
F1.0
s(lp56
(S'tragedy'
p57
I5
tp58
atp59
a(S'humaine'
p60
(dp61
S'ADJ'
p62
F1.0
s(lp63
(S'human'
p64
I4
tp65
atp66
a(S','
p67
(dp68
S'.'
p69
F1.0
s(lp70
(g67
I6
tp71
atp72
a(S'qui'
p73
(dp74
S'PRON'
p75
F1.0
s(lp76
(S'which'
p77
I7
tp78
atp79
a(g50
(dp80
S'VERB'
p81
F1.0
s(lp82
(S'has'
p83
I8
tp84
atp85
a(S'des'
p86
(dp87
S'DET'
p88
F0.000244
sS'ADP'
p89
F0.999756
s(lp90
(S'devastating'
p91
I11
tp92
atp93
a(S'r\xc3\xa9percussions'
p94
(dp95
S'NOUN'
p96
F1.0
s(lp97
(S'impact'
p98
I12
tp99
atp100
a(S'd\xc3\xa9vastatrices'
p101
(dp102
S'NOUN'
p103
F0.017216
sS'ADJ'
p104
F0.982784
s(lp105
tp106
a(S'sur'
p107
(dp108
S'ADP'
p109
F1.0
s(lp110
(S'on'
p111
I13
tp112
atp113
a(S'les'
p114
(dp115
S'PRON'
p116
F5.6e-05
sS'DET'
p117
F0.999943
sS'ADP'
p118
F2e-06
s(lp119
(g91
I11
tp120
atp121
a(S'vies'
p122
(dp123
S'NOUN'
p124
F1.0
s(lp125
(S'lives'
p126
I16
tp127
atp128
a(g67
(dp129
g69
F1.0
s(lp130
(g67
I17
tp131
atp132
a(S'les'
p133
(dp134
S'PRON'
p135
F0.000333
sS'DET'
p136
F0.999645
sS'ADP'
p137
F2.2e-05
s(lp138
tp139
a(S'foyers'
p140
(dp141
S'NOUN'
p142
F1.0
s(lp143
(S'homes'
p144
I18
tp145
atp146
a(S'et'
p147
(dp148
S'CONJ'
p149
F1.0
s(lp150
(S'and'
p151
I19
tp152
atp153
a(S'les'
p154
(dp155
S'PRON'
p156
F0.005797
sS'DET'
p157
F0.99419
sS'ADP'
p158
F1.3e-05
s(lp159
tp160
a(S'entreprises'
p161
(dp162
S'VERB'
p163
F0.006926
sS'NOUN'
p164
F0.993074
s(lp165
(S'businesses'
p166
I20
tp167
atp168
a(S'de'
p169
(dp170
S'ADP'
p171
F1.0
s(lp172
tp173
a(S'ses'
p174
(dp175
S'PRON'
p176
F1.0
s(lp177
(S"'s"
p178
I15
tp179
atp180
a(S'victimes'
p181
(dp182
S'VERB'
p183
F0.0
sS'NOUN'
p184
F1.0
s(lp185
(S'people'
p186
I14
tp187
atp188
a(g69
(dp189
g69
F1.0
s(lp190
(g69
I21
tp191
atp192
asS'en'
p193
(lp194
(g7
(dp195
S'ADV'
p196
F0.000523
sS'NOUN'
p197
F0.000215
sS'DET'
p198
F0.999263
s(lp199
(g7
I0
tp200
atp201
a(g21
(dp202
S'VERB'
p203
F1.0
s(lp204
(g21
I1
tp205
atp206
a(g34
(dp207
S'ADV'
p208
F1.0
s(lp209
(g34
I2
tp210
atp211
a(g50
(dp212
S'NOUN'
p213
F0.0
sS'DET'
p214
F1.0
s(lp215
(g50
I3
tp216
atp217
a(g64
(dp218
S'NOUN'
p219
F0.022034
sS'ADJ'
p220
F0.977966
s(lp221
(g64
I4
tp222
atp223
a(g57
(dp224
S'NOUN'
p225
F1.0
s(lp226
(g57
I5
tp227
atp228
a(g67
(dp229
g69
F1.0
s(lp230
(g67
I6
tp231
atp232
a(g77
(dp233
S'DET'
p234
F1.0
s(lp235
(g77
I7
tp236
atp237
a(g83
(dp238
S'VERB'
p239
F1.0
s(lp240
(g83
I8
tp241
atp242
a(S'had'
p243
(dp244
S'VERB'
p245
F1.0
s(lp246
(g243
I9
tp247
atp248
a(g50
(dp249
S'NOUN'
p250
F0.0
sS'DET'
p251
F1.0
s(lp252
(g50
I10
tp253
atp254
a(g91
(dp255
S'VERB'
p256
F0.001519
sS'ADJ'
p257
F0.998481
s(lp258
(g91
I11
tp259
atp260
a(g98
(dp261
S'VERB'
p262
F1e-05
sS'NOUN'
p263
F0.99999
s(lp264
(g98
I12
tp265
atp266
a(g111
(dp267
S'ADV'
p268
F0.00015
sS'PRT'
p269
F0.000621
sS'ADJ'
p270
F8e-06
sS'NOUN'
p271
F1e-05
sS'ADP'
p272
F0.99921
s(lp273
(g111
I13
tp274
atp275
a(g186
(dp276
S'VERB'
p277
F0.0
sS'NOUN'
p278
F1.0
s(lp279
(g186
I14
tp280
atp281
a(g178
(dp282
S'PRT'
p283
F0.983156
sg69
F0.016844
s(lp284
(g178
I15
tp285
atp286
a(g126
(dp287
S'VERB'
p288
F0.046628
sS'NOUN'
p289
F0.953372
s(lp290
(g126
I16
tp291
atp292
a(g67
(dp293
g69
F1.0
s(lp294
(g67
I17
tp295
atp296
a(g144
(dp297
S'VERB'
p298
F0.001122
sS'NOUN'
p299
F0.998878
s(lp300
(g144
I18
tp301
atp302
a(g151
(dp303
S'CONJ'
p304
F0.999997
sS'NOUN'
p305
F3e-06
s(lp306
(g151
I19
tp307
atp308
a(g166
(dp309
S'NOUN'
p310
F1.0
s(lp311
(g166
I20
tp312
atp313
a(g69
(dp314
g69
F1.0
s(lp315
(g69
I21
tp316
atp317
asS'nl'
p318
(lp319
(S'dit'
p320
(dp321
S'PRON'
p322
F1.0
s(lp323
(g7
I0
tp324
atp325
a(S'is'
p326
(dp327
S'VERB'
p328
F1.0
s(lp329
(g21
I1
tp330
atp331
a(S'inderdaad'
p332
(dp333
S'ADV'
p334
F1.0
s(lp335
(g34
I2
tp336
atp337
a(S'een'
p338
(dp339
S'ADJ'
p340
F8e-06
sS'PRON'
p341
F0.000753
sS'NUM'
p342
F2e-06
sS'DET'
p343
F0.999236
s(lp344
(g50
I3
tp345
atp346
a(S'menselijke'
p347
(dp348
S'NOUN'
p349
F0.00073
sS'ADJ'
p350
F0.99927
s(lp351
(g64
I4
tp352
atp353
a(S'tragedie'
p354
(dp355
S'NOUN'
p356
F1.0
s(lp357
(g57
I5
tp358
atp359
a(g67
(dp360
g69
F1.0
s(lp361
(g67
I6
tp362
atp363
a(S'die'
p364
(dp365
S'PRON'
p366
F1.000001
s(lp367
(g77
I7
tp368
atp369
a(S'verwoestende'
p370
(dp371
S'NOUN'
p372
F5e-06
sS'VERB'
p373
F0.220505
sS'ADJ'
p374
F0.77949
s(lp375
(g91
I11
tp376
atp377
a(S'gevolgen'
p378
(dp379
S'NOUN'
p380
F1.0
s(lp381
(g98
I12
tp382
atp383
a(S'heeft'
p384
(dp385
S'VERB'
p386
F1.0
s(lp387
(g83
I8
tp388
atp389
a(S'voor'
p390
(dp391
S'ADV'
p392
F0.022359
sS'CONJ'
p393
F1.6e-05
sS'NOUN'
p394
F0.0
sS'ADP'
p395
F0.977625
s(lp396
(g111
I13
tp397
atp398
a(S'mensenlevens'
p399
(dp400
S'NOUN'
p401
F1.0
s(lp402
(g126
I16
tp403
atp404
a(g67
(dp405
g69
F1.0
s(lp406
(g67
I17
tp407
atp408
a(S'huizen'
p409
(dp410
S'VERB'
p411
F0.589901
sS'NOUN'
p412
F0.410099
s(lp413
(g144
I18
tp414
atp415
a(S'en'
p416
(dp417
S'CONJ'
p418
F1.0
s(lp419
(g151
I19
tp420
atp421
a(S'bedrijven'
p422
(dp423
S'VERB'
p424
F0.0214
sS'NOUN'
p425
F0.9786
s(lp426
(g166
I20
tp427
atp428
a(g69
(dp429
g69
F1.0
s(lp430
(g69
I21
tp431
atp432
asS'de'
p433
(lp434
(S'dies'
p435
(dp436
S'PRON'
p437
F1.0
s(lp438
(g7
I0
tp439
atp440
a(S'ist'
p441
(dp442
S'VERB'
p443
F1.0
s(lp444
(g21
I1
tp445
atp446
a(S'wahrhaft'
p447
(dp448
S'ADJ'
p449
F1.0
s(lp450
(g34
I2
tp451
atp452
a(S'eine'
p453
(dp454
S'PRON'
p455
F0.003692
sS'DET'
p456
F0.996072
s(lp457
(g50
I3
tp458
atp459
a(S'menschliche'
p460
(dp461
S'ADJ'
p462
F1.0
s(lp463
(g64
I4
tp464
atp465
a(S'trag\xc3\xb6die'
p466
(dp467
S'ADJ'
p468
F0.000163
sS'NOUN'
p469
F0.999754
s(lp470
(g57
I5
tp471
atp472
a(g67
(dp473
g69
F1.0
s(lp474
(g67
I6
tp475
atp476
a(S'die'
p477
(dp478
S'PRON'
p479
F0.115798
sS'DET'
p480
F0.879385
s(lp481
(g77
I7
tp482
atp483
a(S'schwere'
p484
(dp485
S'ADJ'
p486
F1.0
s(lp487
(g91
I11
tp488
atp489
a(S'folgen'
p490
(dp491
S'VERB'
p492
F1.0
s(lp493
(g98
I12
tp494
atp495
a(S'f\xc3\xbcr'
p496
(dp497
S'ADP'
p498
F1.0
s(lp499
(g111
I13
tp500
atp501
a(S'das'
p502
(dp503
S'PRON'
p504
F0.971626
sS'DET'
p505
F0.02801
s(lp506
(g77
I7
tp507
atp508
a(S'leben'
p509
(dp510
S'VERB'
p511
F1.0
s(lp512
(g126
I16
tp513
atp514
a(g67
(dp515
g69
F1.0
s(lp516
(g67
I17
tp517
atp518
a(S'die'
p519
(dp520
S'PRON'
p521
F0.252042
sS'DET'
p522
F0.744516
s(lp523
tp524
a(S'h\xc3\xa4user'
p525
(dp526
S'ADJ'
p527
F0.220471
sS'NOUN'
p528
F0.611219
s(lp529
tp530
a(S'und'
p531
(dp532
S'CONJ'
p533
F1.0
s(lp534
(g151
I19
tp535
atp536
a(S'die'
p537
(dp538
S'PRON'
p539
F0.984149
s(lp540
(g77
I7
tp541
atp542
a(S'unternehmen'
p543
(dp544
S'VERB'
p545
F1.0
s(lp546
(g166
I20
tp547
atp548
a(S'der'
p549
(dp550
S'PRON'
p551
F0.000825
sS'DET'
p552
F0.999169
s(lp553
(g178
I15
tp554
atp555
a(S'menschen'
p556
(dp557
S'ADJ'
p558
F1.0
s(lp559
(g186
I14
tp560
atp561
a(S'nach'
p562
(dp563
S'ADP'
p564
F0.993192
s(lp565
(g243
I9
tp566
atp567
a(S'sich'
p568
(dp569
S'PRON'
p570
F1.0
s(lp571
tp572
a(S'gezogen'
p573
(dp574
S'VERB'
p575
F0.982851
sS'ADJ'
p576
F0.017149
s(lp577
(g144
I18
tp578
atp579
a(S'hat'
p580
(dp581
S'VERB'
p582
F1.0
s(lp583
(g83
I8
tp584
atp585
a(g69
(dp586
g69
F1.0
s(lp587
(g69
I21
tp588
atp589
asS'it'
p590
(lp591
(S'si'
p592
(dp593
S'PRON'
p594
F0.999997
sS'NOUN'
p595
F2e-06
s(lp596
(g7
I0
tp597
atp598
a(S'tratta'
p599
(dp600
S'VERB'
p601
F0.999258
sS'NOUN'
p602
F0.000742
s(lp603
(g21
I1
tp604
atp605
a(S'senza'
p606
(dp607
S'CONJ'
p608
F0.016207
sS'ADP'
p609
F0.983793
s(lp610
tp611
a(S'dubbio'
p612
(dp613
S'ADJ'
p614
F0.193716
sS'NOUN'
p615
F0.806284
s(lp616
(g34
I2
tp617
atp618
a(S'di'
p619
(dp620
S'CONJ'
p621
F1.7e-05
sS'ADP'
p622
F0.999983
s(lp623
tp624
a(S'una'
p625
(dp626
S'PRON'
p627
F0.000159
sS'DEF'
p628
F0.999841
s(lp629
(g50
I3
tp630
atp631
a(S'tragedia'
p632
(dp633
S'NOUN'
p634
F1.0
s(lp635
(g57
I5
tp636
atp637
a(S'umana'
p638
(dp639
S'ADJ'
p640
F1.0
s(lp641
(g64
I4
tp642
atp643
a(S'che'
p644
(dp645
S'PRON'
p646
F0.974969
sS'CONJ'
p647
F0.024856
sS'ADJ'
p648
F0.000175
s(lp649
(g77
I7
tp650
atp651
a(S'ha'
p652
(dp653
S'VERB'
p654
F1.0
s(lp655
(g83
I8
tp656
atp657
a(S'avuto'
p658
(dp659
S'VERB'
p660
F1.0
s(lp661
(g243
I9
tp662
atp663
a(S'un'
p664
(dp665
S'PRON'
p666
F0.000195
sS'DEF'
p667
F0.999805
s(lp668
(g50
I10
tp669
atp670
a(S'impatto'
p671
(dp672
S'VERB'
p673
F3e-06
sS'NOUN'
p674
F0.999997
s(lp675
(g98
I12
tp676
atp677
a(S'devastante'
p678
(dp679
S'VERB'
p680
F0.316781
sS'ADJ'
p681
F0.683219
s(lp682
(g91
I11
tp683
atp684
a(S'sulla'
p685
(dp686
S'NOUN'
p687
F7.4e-05
sS'ADP'
p688
F0.999926
s(lp689
(g111
I13
tp690
atp691
a(S'vita'
p692
(dp693
S'NOUN'
p694
F1.0
s(lp695
(g126
I16
tp696
atp697
a(g67
(dp698
g69
F1.0
s(lp699
(g67
I17
tp700
atp701
a(S'sulle'
p702
(dp703
S'NOUN'
p704
F7.5e-05
sS'ADP'
p705
F0.999925
s(lp706
tp707
a(S'case'
p708
(dp709
S'NOUN'
p710
F1.0
s(lp711
(g144
I18
tp712
atp713
a(S'e'
p714
(dp715
S'CONJ'
p716
F1.0
s(lp717
(g151
I19
tp718
atp719
a(S'sulle'
p720
(dp721
S'NOUN'
p722
F2.6e-05
sS'ADP'
p723
F0.999974
s(lp724
tp725
a(S'attivit\xc3\xa0'
p726
(dp727
S'NOUN'
p728
F1.0
s(lp729
(g166
I20
tp730
atp731
a(S'delle'
p732
(dp733
S'DEF'
p734
F0.001048
sS'ADP'
p735
F0.998952
s(lp736
(g178
I15
tp737
atp738
a(S'persone'
p739
(dp740
S'NOUN'
p741
F1.0
s(lp742
(g186
I14
tp743
atp744
a(g69
(dp745
g69
F1.0
s(lp746
(g69
I21
tp747
atp748
asS'sk'
p749
(lp750
(S'je'
p751
(dp752
S'PRON'
p753
F7.7e-05
sS'VERB'
p754
F0.999845
sS'X'
p755
F7.8e-05
s(lp756
(g21
I1
tp757
atp758
a(S'to'
p759
(dp760
S'PRON'
p761
F0.986177
sS'CONJ'
p762
F0.002317
sg755
F0.011507
s(lp763
(g7
I0
tp764
atp765
a(S'skuto\xc4\x8dn\xc3\xa1'
p766
(dp767
S'ADJ'
p768
F1.0
s(lp769
(g34
I2
tp770
atp771
a(S'\xc4\xbeudsk\xc3\xa1'
p772
(dp773
S'ADJ'
p774
F1.0
s(lp775
(g64
I4
tp776
atp777
a(S'trag\xc3\xa9dia'
p778
(dp779
S'NOUN'
p780
F1.0
s(lp781
(g57
I5
tp782
atp783
a(g67
(dp784
g69
F1.0
s(lp785
(g67
I6
tp786
atp787
a(S'ktor\xc3\xa1'
p788
(dp789
S'PRON'
p790
F1.0
s(lp791
(g77
I7
tp792
atp793
a(S'mala'
p794
(dp795
S'ADV'
p796
F0.001319
sS'VERB'
p797
F0.998681
s(lp798
(g243
I9
tp799
atp800
a(S'ni\xc4\x8div\xc3\xbd'
p801
(dp802
S'ADJ'
p803
F1.0
s(lp804
(g91
I11
tp805
atp806
a(S'vplyv'
p807
(dp808
S'NOUN'
p809
F1.0
s(lp810
(g98
I12
tp811
atp812
a(S'na'
p813
(dp814
g755
F6.6e-05
sS'CONJ'
p815
F1.5e-05
sS'ADP'
p816
F0.999911
sS'PRT'
p817
F7e-06
s(lp818
(g111
I13
tp819
atp820
a(S'\xc4\xbeudsk\xc3\xa9'
p821
(dp822
S'ADJ'
p823
F1.0
s(lp824
(g186
I14
tp825
atp826
a(S'\xc5\xbeivoty'
p827
(dp828
S'NOUN'
p829
F1.0
s(lp830
(g126
I16
tp831
atp832
a(g67
(dp833
g69
F1.0
s(lp834
(g67
I17
tp835
atp836
a(S'domovy'
p837
(dp838
S'NOUN'
p839
F1.0
s(lp840
(g144
I18
tp841
atp842
a(g50
(dp843
g755
F0.000697
sS'CONJ'
p844
F0.998698
sS'NOUN'
p845
F5.7e-05
sS'ADP'
p846
F0.000484
sS'PRT'
p847
F6.4e-05
s(lp848
(g151
I19
tp849
atp850
a(S'podniky'
p851
(dp852
S'NOUN'
p853
F1.0
s(lp854
(g166
I20
tp855
atp856
a(g69
(dp857
g69
F1.0
s(lp858
(g69
I21
tp859
atp860
asS'pl'
p861
(lp862
(S'jest'
p863
(dp864
S'VERB'
p865
F1.0
s(lp866
(g21
I1
tp867
atp868
a(S'to'
p869
(dp870
S'NOUN'
p871
F0.182085
sS'ADP'
p872
F1e-06
sS'PRT'
p873
F0.260814
sg755
F0.0
sS'CONJ'
p874
F0.077601
sS'ADJ'
p875
F0.479499
s(lp876
(g7
I0
tp877
atp878
a(S'prawdziwa'
p879
(dp880
S'ADJ'
p881
F1.0
s(lp882
tp883
a(S'ludzka'
p884
(dp885
S'ADJ'
p886
F1.0
s(lp887
(g64
I4
tp888
atp889
a(S'tragedia'
p890
(dp891
S'NOUN'
p892
F1.0
s(lp893
(g57
I5
tp894
atp895
a(g67
(dp896
g755
F0.0
sg69
F1.0
s(lp897
(g67
I6
tp898
atp899
a(S'kt\xc3\xb3ra'
p900
(dp901
S'ADJ'
p902
F1.0
s(lp903
(g77
I7
tp904
atp905
a(S'wywar\xc5\x82a'
p906
(dp907
S'VERB'
p908
F1.0
s(lp909
(g243
I9
tp910
atp911
a(S'rujnuj\xc4\x85cy'
p912
(dp913
S'ADV'
p914
F0.000204
sS'NOUN'
p915
F0.0012399999999999998
sS'VERB'
p916
F0.009282999999999996
sS'ADJ'
p917
F0.9892719999999998
s(lp918
(g91
I11
tp919
atp920
a(S'wp\xc5\x82yw'
p921
(dp922
S'NOUN'
p923
F1.0
s(lp924
(g98
I12
tp925
atp926
a(S'na'
p927
(dp928
S'PRT'
p929
F1e-06
sS'VERB'
p930
F6e-06
sS'NOUN'
p931
F2e-06
sS'ADP'
p932
F0.9999899999999999
sg755
F1e-06
s(lp933
(g111
I13
tp934
atp935
a(S'ludzkie'
p936
(dp937
S'ADJ'
p938
F0.999999
s(lp939
tp940
a(S'\xc5\xbcycie'
p941
(dp942
S'VERB'
p943
F0.0023480000000000003
sS'NOUN'
p944
F0.997651
s(lp945
(g126
I16
tp946
atp947
a(g67
(dp948
g755
F0.0
sg69
F1.0
s(lp949
(g67
I17
tp950
atp951
a(S'domy'
p952
(dp953
S'NOUN'
p954
F1.0
s(lp955
tp956
a(S'i'
p957
(dp958
S'PRT'
p959
F0.002667
sS'CONJ'
p960
F0.99728
sS'PRON'
p961
F8.000000000000001e-06
sS'NOUN'
p962
F1.1000000000000001e-05
sg755
F3.4e-05
s(lp963
(g151
I19
tp964
atp965
a(S'miejsca'
p966
(dp967
S'NOUN'
p968
F1.0
s(lp969
(g144
I18
tp970
atp971
a(S'pracy'
p972
(dp973
S'NOUN'
p974
F1.0
s(lp975
(g166
I20
tp976
atp977
a(g69
(dp978
g69
F1.0
s(lp979
(g69
I21
tp980
atp981
asS'sl'
p982
(lp983
(S'to'
p984
(dp985
S'PRON'
p986
F0.999936
sg755
F6.3e-05
s(lp987
(g7
I0
tp988
atp989
a(S'je'
p990
(dp991
S'PRON'
p992
F0.000138
sS'VERB'
p993
F0.99986
sg755
F2e-06
s(lp994
(g21
I1
tp995
atp996
a(S'res'
p997
(dp998
S'ADV'
p999
F0.999939
sS'NOUN'
p1000
F6.1e-05
s(lp1001
(g34
I2
tp1002
atp1003
a(S'\xc4\x8dlove\xc5\xa1ka'
p1004
(dp1005
S'ADJ'
p1006
F1.0
s(lp1007
(g64
I4
tp1008
atp1009
a(S'tragedija'
p1010
(dp1011
S'NOUN'
p1012
F1.0
s(lp1013
(g57
I5
tp1014
atp1015
a(g67
(dp1016
g69
F1.0
s(lp1017
(g67
I6
tp1018
atp1019
a(S'ki'
p1020
(dp1021
S'CONJ'
p1022
F1.0
s(lp1023
(g77
I7
tp1024
atp1025
a(S'zelo'
p1026
(dp1027
S'ADV'
p1028
F1.0
s(lp1029
(g50
I10
tp1030
atp1031
a(S'uni\xc4\x8dujo\xc4\x8de'
p1032
(dp1033
S'ADJ'
p1034
F1.0
s(lp1035
(g91
I11
tp1036
atp1037
a(S'vpliva'
p1038
(dp1039
S'VERB'
p1040
F0.7711
sS'NOUN'
p1041
F0.2289
s(lp1042
(g98
I12
tp1043
atp1044
a(S'na'
p1045
(dp1046
S'ADP'
p1047
F1.0
s(lp1048
(g111
I13
tp1049
atp1050
a(S'\xc5\xbeivljenja'
p1051
(dp1052
S'NOUN'
p1053
F0.9999999999999999
s(lp1054
(g126
I16
tp1055
atp1056
a(g67
(dp1057
g69
F1.0
s(lp1058
(g67
I17
tp1059
atp1060
a(S'domove'
p1061
(dp1062
S'NOUN'
p1063
F1.0
s(lp1064
(g144
I18
tp1065
atp1066
a(S'in'
p1067
(dp1068
S'ADV'
p1069
F3.2e-05
sg755
F6e-06
sS'CONJ'
p1070
F0.999959
sS'NOUN'
p1071
F3e-06
s(lp1072
(g151
I19
tp1073
atp1074
a(S'delo'
p1075
(dp1076
S'NOUN'
p1077
F1.0
s(lp1078
(g166
I20
tp1079
atp1080
a(S'ljudi'
p1081
(dp1082
g755
F0.000101
sS'NOUN'
p1083
F0.9998990000000001
s(lp1084
(g186
I14
tp1085
atp1086
a(g69
(dp1087
g69
F1.0
s(lp1088
(g69
I21
tp1089
atp1090
asS'es'
p1091
(lp1092
(S'estamos'
p1093
(dp1094
S'VERB'
p1095
F1.0
s(lp1096
(g7
I0
tp1097
atp1098
a(S'hablando'
p1099
(dp1100
S'VERB'
p1101
F1.0
s(lp1102
(g21
I1
tp1103
atp1104
a(S'de'
p1105
(dp1106
g755
F0.0
sS'CONJ'
p1107
F1.6e-05
sS'ADP'
p1108
F0.999984
s(lp1109
(g34
I2
tp1110
atp1111
a(S'una'
p1112
(dp1113
S'DET'
p1114
F1.0
s(lp1115
(g50
I3
tp1116
atp1117
a(S'tragedia'
p1118
(dp1119
S'NOUN'
p1120
F1.0
s(lp1121
(g57
I5
tp1122
atp1123
a(S'humana'
p1124
(dp1125
S'ADJ'
p1126
F1.0
s(lp1127
(g64
I4
tp1128
atp1129
a(g67
(dp1130
g69
F1.0
s(lp1131
(g67
I6
tp1132
atp1133
a(S'que'
p1134
(dp1135
g755
F1.9e-05
sS'CONJ'
p1136
F0.999981
s(lp1137
(g77
I7
tp1138
atp1139
a(S'ha'
p1140
(dp1141
S'VERB'
p1142
F1.0
s(lp1143
(g83
I8
tp1144
atp1145
a(S'tenido'
p1146
(dp1147
S'VERB'
p1148
F1.0
s(lp1149
(g243
I9
tp1150
atp1151
a(S'un'
p1152
(dp1153
g755
F0.0
sS'DET'
p1154
F1.0
s(lp1155
(g50
I10
tp1156
atp1157
a(S'impacto'
p1158
(dp1159
S'NOUN'
p1160
F1.0
s(lp1161
(g98
I12
tp1162
atp1163
a(S'devastador'
p1164
(dp1165
S'ADJ'
p1166
F1.0
s(lp1167
(g91
I11
tp1168
atp1169
a(S'en'
p1170
(dp1171
g755
F0.0
sS'CONJ'
p1172
F1e-06
sS'ADP'
p1173
F0.999999
s(lp1174
(g111
I13
tp1175
atp1176
a(S'la'
p1177
(dp1178
S'NOUN'
p1179
F0.0
sS'PRON'
p1180
F0.0
sS'DET'
p1181
F0.999999
sg755
F0.0
s(lp1182
tp1183
a(S'vida'
p1184
(dp1185
S'NOUN'
p1186
F1.0
s(lp1187
(g126
I16
tp1188
atp1189
a(g67
(dp1190
g69
F1.0
s(lp1191
(g67
I17
tp1192
atp1193
a(S'los'
p1194
(dp1195
S'PRON'
p1196
F2.5e-05
sS'DET'
p1197
F0.999975
s(lp1198
(g178
I15
tp1199
atp1200
a(S'hogares'
p1201
(dp1202
S'NOUN'
p1203
F1.0
s(lp1204
(g144
I18
tp1205
atp1206
a(S'y'
p1207
(dp1208
g755
F0.000396
sS'CONJ'
p1209
F0.999604
s(lp1210
(g151
I19
tp1211
atp1212
a(S'los'
p1213
(dp1214
S'PRON'
p1215
F0.000425
sS'DET'
p1216
F0.999575
s(lp1217
tp1218
a(S'negocios'
p1219
(dp1220
S'NOUN'
p1221
F1.0
s(lp1222
(g166
I20
tp1223
atp1224
a(S'de'
p1225
(dp1226
g755
F0.0
sS'CONJ'
p1227
F0.00017
sS'ADP'
p1228
F0.99983
s(lp1229
tp1230
a(S'muchas'
p1231
(dp1232
S'ADJ'
p1233
F1.0
s(lp1234
tp1235
a(S'personas'
p1236
(dp1237
S'NOUN'
p1238
F1.0
s(lp1239
(g186
I14
tp1240
atp1241
a(g69
(dp1242
g69
F1.0
s(lp1243
(g69
I21
tp1244
atp1245
as.