(dp0
S'fr'
p1
(lp2
(S'voil\xc3\xa0'
p3
(dp4
S'ADV'
p5
F1.0
s(lp6
(S'that'
p7
I0
tp8
atp9
a(S'une'
p10
(dp11
S'NOUN'
p12
F6e-06
sS'NUM'
p13
F0.009284
sS'DET'
p14
F0.99071
s(lp15
(S'a'
p16
I2
tp17
atp18
a(S'\xc3\xa9volution'
p19
(dp20
S'NOUN'
p21
F1.0
s(lp22
(S'development'
p23
I5
tp24
atp25
a(S'qui'
p26
(dp27
S'PRON'
p28
F1.0
s(lp29
tp30
a(S'me'
p31
(dp32
S'PRON'
p33
F1.0
s(lp34
tp35
a(S'ravit'
p36
(dp37
S'VERB'
p38
F1.0
s(lp39
(S'welcome'
p40
I4
tp41
atp42
a(S'.'
p43
(dp44
g43
F1.0
s(lp45
(g43
I6
tp46
atp47
asS'en'
p48
(lp49
(g7
(dp50
S'ADV'
p51
F0.008261
sS'DET'
p52
F0.991729
sS'ADP'
p53
F9e-06
s(lp54
(g7
I0
tp55
atp56
a(S'is'
p57
(dp58
S'VERB'
p59
F1.0
s(lp60
(g57
I1
tp61
atp62
a(g16
(dp63
S'NOUN'
p64
F0.0
sS'DET'
p65
F1.0
s(lp66
(g16
I2
tp67
atp68
a(S'very'
p69
(dp70
S'ADV'
p71
F0.648801
sS'ADJ'
p72
F0.351199
s(lp73
(g69
I3
tp74
atp75
a(g40
(dp76
S'NOUN'
p77
F0.063586
sS'VERB'
p78
F0.046639
sS'ADJ'
p79
F0.889775
s(lp80
(g40
I4
tp81
atp82
a(g23
(dp83
S'NOUN'
p84
F1.0
s(lp85
(g23
I5
tp86
atp87
a(g43
(dp88
g43
F1.0
s(lp89
(g43
I6
tp90
atp91
asS'nl'
p92
(lp93
(S'dat'
p94
(dp95
S'PRON'
p96
F0.597317
sS'CONJ'
p97
F0.402683
s(lp98
(g7
I0
tp99
atp100
a(S'is'
p101
(dp102
S'VERB'
p103
F1.0
s(lp104
(g57
I1
tp105
atp106
a(S'een'
p107
(dp108
S'ADJ'
p109
F2e-06
sS'PRON'
p110
F3.6e-05
sS'NUM'
p111
F1e-06
sS'DET'
p112
F0.999962
s(lp113
(g16
I2
tp114
atp115
a(S'zeer'
p116
(dp117
S'NOUN'
p118
F0.000592
sS'ADJ'
p119
F0.999408
s(lp120
(g69
I3
tp121
atp122
a(S'welkome'
p123
(dp124
S'NOUN'
p125
F0.007833
sS'ADJ'
p126
F0.992167
s(lp127
(g40
I4
tp128
atp129
a(S'ontwikkeling'
p130
(dp131
S'NOUN'
p132
F1.0
s(lp133
(g23
I5
tp134
atp135
a(g43
(dp136
g43
F1.0
s(lp137
(g43
I6
tp138
atp139
asS'de'
p140
(lp141
(S'diese'
p142
(dp143
S'PRON'
p144
F1.0
s(lp145
(g7
I0
tp146
atp147
a(S'entwicklung'
p148
(dp149
S'ADJ'
p150
F0.050105
sS'NOUN'
p151
F0.915077
s(lp152
(g23
I5
tp153
atp154
a(S'ist'
p155
(dp156
S'VERB'
p157
F1.0
s(lp158
(g57
I1
tp159
atp160
a(S'sehr'
p161
(dp162
S'ADV'
p163
F1.0
s(lp164
(g69
I3
tp165
atp166
a(S'zu'
p167
(dp168
S'PRT'
p169
F0.999641
s(lp170
tp171
a(S'begr\xc3\xbc\xc3\x9fen'
p172
(dp173
S'VERB'
p174
F1.0
s(lp175
(g40
I4
tp176
atp177
a(g43
(dp178
g43
F1.0
s(lp179
(g43
I6
tp180
atp181
asS'it'
p182
(lp183
(S'si'
p184
(dp185
S'PRON'
p186
F0.999997
sS'NOUN'
p187
F2e-06
s(lp188
(g7
I0
tp189
atp190
a(S'tratta'
p191
(dp192
S'VERB'
p193
F0.999277
sS'NOUN'
p194
F0.000724
s(lp195
(g57
I1
tp196
atp197
a(S'di'
p198
(dp199
S'CONJ'
p200
F6e-06
sS'ADP'
p201
F0.999994
s(lp202
tp203
a(S'una'
p204
(dp205
S'PRON'
p206
F0.000159
sS'DEF'
p207
F0.999841
s(lp208
(g16
I2
tp209
atp210
a(S'novit\xc3\xa0'
p211
(dp212
S'NOUN'
p213
F1.0
s(lp214
(g23
I5
tp215
atp216
a(S'molto'
p217
(dp218
S'ADV'
p219
F0.935656
sS'PRON'
p220
F0.001128
sS'VERB'
p221
F0.000877
sS'ADJ'
p222
F0.062339
s(lp223
(g69
I3
tp224
atp225
a(S'positiva'
p226
(dp227
S'NOUN'
p228
F0.043637
sS'ADJ'
p229
F0.956363
s(lp230
(g40
I4
tp231
atp232
a(g43
(dp233
g43
F1.0
s(lp234
(g43
I6
tp235
atp236
asS'sk'
p237
(lp238
(S'je'
p239
(dp240
S'X'
p241
F0.000105
sS'VERB'
p242
F0.999818
sS'PRON'
p243
F7.7e-05
s(lp244
(g57
I1
tp245
atp246
a(S'to'
p247
(dp248
S'PRON'
p249
F0.936477
sS'CONJ'
p250
F0.008702
sg241
F0.054821999999999996
s(lp251
(g16
I2
tp252
atp253
a(S've\xc4\xbemi'
p254
(dp255
S'ADV'
p256
F1.0
s(lp257
(g69
I3
tp258
atp259
a(S'v\xc3\xadtan\xc3\xbd'
p260
(dp261
S'VERB'
p262
F1.0
s(lp263
(g40
I4
tp264
atp265
a(S'v\xc3\xbdvoj'
p266
(dp267
S'NOUN'
p268
F1.0
s(lp269
(g23
I5
tp270
atp271
a(g43
(dp272
g43
F1.0
s(lp273
(g43
I6
tp274
atp275
asS'pl'
p276
(lp277
(S'to'
p278
(dp279
S'NOUN'
p280
F0.199361
sS'ADP'
p281
F3.3e-05
sS'PRT'
p282
F0.096282
sg241
F4e-06
sS'CONJ'
p283
F0.11495
sS'ADJ'
p284
F0.58937
s(lp285
(g7
I0
tp286
atp287
a(S'bardzo'
p288
(dp289
S'ADV'
p290
F1.0
s(lp291
(g69
I3
tp292
atp293
a(S'po\xc5\xbc\xc4\x85dane'
p294
(dp295
S'VERB'
p296
F0.146139
sS'ADJ'
p297
F0.853861
s(lp298
(g40
I4
tp299
atp300
a(S'wydarzenie'
p301
(dp302
S'NOUN'
p303
F1.0
s(lp304
(g23
I5
tp305
atp306
a(g43
(dp307
g43
F1.0
s(lp308
(g43
I6
tp309
atp310
asS'sl'
p311
(lp312
(S'zelo'
p313
(dp314
S'ADV'
p315
F1.0
s(lp316
(g69
I3
tp317
atp318
a(S'pozdravljam'
p319
(dp320
S'VERB'
p321
F1.0
s(lp322
(g40
I4
tp323
atp324
a(S'to'
p325
(dp326
S'PRON'
p327
F0.999989
sg241
F1.1e-05
s(lp328
(g7
I0
tp329
atp330
a(S'odlo\xc4\x8ditev'
p331
(dp332
S'NOUN'
p333
F1.0
s(lp334
(g23
I5
tp335
atp336
a(g43
(dp337
g43
F1.0
s(lp338
(g43
I6
tp339
atp340
asS'es'
p341
(lp342
(S'es'
p343
(dp344
S'VERB'
p345
F1.0
s(lp346
(g57
I1
tp347
atp348
a(S'una'
p349
(dp350
S'DET'
p351
F1.0
s(lp352
(g16
I2
tp353
atp354
a(S'evoluci\xc3\xb3n'
p355
(dp356
S'NOUN'
p357
F1.0
s(lp358
(g23
I5
tp359
atp360
a(S'muy'
p361
(dp362
S'ADV'
p363
F1.0
s(lp364
(g69
I3
tp365
atp366
a(S'positiva'
p367
(dp368
S'ADJ'
p369
F1.0
s(lp370
(g40
I4
tp371
atp372
a(g43
(dp373
g43
F1.0
s(lp374
(g43
I6
tp375
atp376
as.