(dp0
S'fr'
p1
(lp2
(S'('
p3
(dp4
S'.'
p5
F1.0
s(lp6
(g3
I0
tp7
atp8
a(S'it'
p9
(dp10
S'ADJ'
p11
F0.13429
sS'VERB'
p12
F0.638201
sS'NOUN'
p13
F0.227509
s(lp14
(S'it'
p15
I1
tp16
atp17
a(S')'
p18
(dp19
g5
F1.0
s(lp20
(g18
I2
tp21
atp22
a(S'monsieur'
p23
(dp24
S'NOUN'
p25
F1.0
s(lp26
(S'mr'
p27
I3
tp28
atp29
a(S'le'
p30
(dp31
S'PRON'
p32
F0.000321
sS'DET'
p33
F0.999679
s(lp34
tp35
a(S'pr\xc3\xa9sident'
p36
(dp37
S'VERB'
p38
F4.5e-05
sS'NOUN'
p39
F0.999955
s(lp40
(S'president'
p41
I4
tp42
atp43
a(S','
p44
(dp45
g5
F1.0
s(lp46
(g44
I5
tp47
atp48
a(S'mesdames'
p49
(dp50
S'NOUN'
p51
F1.0
s(lp52
(S'ladies'
p53
I6
tp54
atp55
a(S'et'
p56
(dp57
S'CONJ'
p58
F1.0
s(lp59
(S'and'
p60
I7
tp61
atp62
a(S'messieurs'
p63
(dp64
S'NOUN'
p65
F1.0
s(lp66
(S'gentlemen'
p67
I8
tp68
atp69
a(g44
(dp70
g5
F1.0
s(lp71
(g44
I9
tp72
atp73
a(S"l'"
p74
(dp75
S'ADJ'
p76
F0.13429
sS'VERB'
p77
F0.638201
sS'NOUN'
p78
F0.227509
s(lp79
(S'the'
p80
I10
tp81
atp82
a(S'accord-cadre'
p83
(dp84
S'ADJ'
p85
F0.140114
sS'VERB'
p86
F0.167714
sS'NOUN'
p87
F0.692171
s(lp88
(S'framework'
p89
I11
tp90
atp91
a(S'que'
p92
(dp93
S'ADV'
p94
F0.003228
sS'PRON'
p95
F0.356719
sS'CONJ'
p96
F0.640053
s(lp97
(S'that'
p98
I13
tp99
atp100
a(S'nous'
p101
(dp102
S'PRON'
p103
F1.0
s(lp104
(S'we'
p105
I14
tp106
atp107
a(S'venons'
p108
(dp109
S'VERB'
p110
F1.0
s(lp111
(S'have'
p112
I15
tp113
atp114
a(S"d'"
p115
(dp116
S'NOUN'
p117
F0.087886
sS'VERB'
p118
F0.7995690000000001
sS'ADJ'
p119
F0.112546
s(lp120
(S'just'
p121
I16
tp122
atp123
a(S'adopter'
p124
(dp125
S'VERB'
p126
F1.0
s(lp127
(S'adopted'
p128
I17
tp129
atp130
a(S'am\xc3\xa9liore'
p131
(dp132
S'VERB'
p133
F1.000001
s(lp134
(S'improves'
p135
I19
tp136
atp137
a(S'consid\xc3\xa9rablement'
p138
(dp139
S'ADV'
p140
F1.0
s(lp141
(S'considerably'
p142
I18
tp143
atp144
a(S'le'
p145
(dp146
S'PRON'
p147
F0.000123
sS'DET'
p148
F0.999877
s(lp149
(S'the'
p150
I20
tp151
atp152
a(S'r\xc3\xb4le'
p153
(dp154
S'NOUN'
p155
F1.0
s(lp156
(S'role'
p157
I21
tp158
atp159
a(S'du'
p160
(dp161
S'ADP'
p162
F1.0
s(lp163
(S'of'
p164
I22
tp165
atp166
a(S'parlement'
p167
(dp168
S'NOUN'
p169
F1.0
s(lp170
(S'parliament'
p171
I25
tp172
atp173
a(S'europ\xc3\xa9en'
p174
(dp175
S'NOUN'
p176
F0.004999
sS'ADJ'
p177
F0.995001
s(lp178
(S'european'
p179
I24
tp180
atp181
a(g44
(dp182
g5
F1.0
s(lp183
(S'-'
p184
I26
tp185
atp186
a(S'un'
p187
(dp188
S'NOUN'
p189
F6e-05
sS'NUM'
p190
F0.025531
sS'DET'
p191
F0.974409
s(lp192
(S'a'
p193
I27
tp194
atp195
a(S'r\xc3\xb4le'
p196
(dp197
S'NOUN'
p198
F1.0
s(lp199
(S'role'
p200
I28
tp201
atp202
a(S'qui'
p203
(dp204
S'PRON'
p205
F1.0
s(lp206
(S'that'
p207
I29
tp208
atp209
a(g193
(dp210
S'VERB'
p211
F1.0
s(lp212
(S'has'
p213
I30
tp214
atp215
a(S'pris'
p216
(dp217
S'VERB'
p218
F0.999466
sS'ADJ'
p219
F0.000533
s(lp220
tp221
a(S'de'
p222
(dp223
S'ADP'
p224
F1.0
s(lp225
tp226
a(S"l'"
p227
(dp228
S'ADJ'
p229
F0.160704
sS'VERB'
p230
F0.06480800000000002
sS'NOUN'
p231
F0.774488
s(lp232
tp233
a(S'importance'
p234
(dp235
S'NOUN'
p236
F1.0
s(lp237
(S'grown'
p238
I31
tp239
atp240
a(S'gr\xc3\xa2ce'
p241
(dp242
S'NOUN'
p243
F1.0
s(lp244
(S'thanks'
p245
I32
tp246
atp247
a(S'\xc3\xa0'
p248
(dp249
S'ADP'
p250
F1.0
s(lp251
(S'to'
p252
I33
tp253
atp254
a(S"l'"
p255
(dp256
S'ADJ'
p257
F0.160704
sS'VERB'
p258
F0.06480800000000002
sS'NOUN'
p259
F0.774488
s(lp260
(S'the'
p261
I34
tp262
atp263
a(S'entr\xc3\xa9e'
p264
(dp265
S'VERB'
p266
F0.431233
sS'NOUN'
p267
F0.568767
s(lp268
(S'entry'
p269
I35
tp270
atp271
a(S'en'
p272
(dp273
S'PRON'
p274
F0.000405
sS'ADP'
p275
F0.999595
s(lp276
(S'into'
p277
I36
tp278
atp279
a(S'vigueur'
p280
(dp281
S'NOUN'
p282
F1.0
s(lp283
(S'force'
p284
I37
tp285
atp286
a(S'du'
p287
(dp288
S'ADP'
p289
F1.0
s(lp290
(S'of'
p291
I38
tp292
atp293
a(S'trait\xc3\xa9'
p294
(dp295
S'VERB'
p296
F0.04214
sS'NOUN'
p297
F0.95786
s(lp298
(S'treaty'
p299
I40
tp300
atp301
a(S'de'
p302
(dp303
S'ADP'
p304
F1.0
s(lp305
(S'of'
p306
I41
tp307
atp308
a(S'lisbonne'
p309
(dp310
S'ADJ'
p311
F0.134605
sS'VERB'
p312
F0.001203
sS'NOUN'
p313
F0.864192
s(lp314
(S'lisbon'
p315
I42
tp316
atp317
a(g5
(dp318
g5
F1.0
s(lp319
(g5
I43
tp320
atp321
asS'en'
p322
(lp323
(g3
(dp324
g5
F1.0
s(lp325
(g3
I0
tp326
atp327
a(g15
(dp328
S'PRON'
p329
F1.0
s(lp330
(g15
I1
tp331
atp332
a(g18
(dp333
g5
F1.0
s(lp334
(g18
I2
tp335
atp336
a(g27
(dp337
S'ADJ'
p338
F0.004952
sS'NOUN'
p339
F0.995048
s(lp340
(g27
I3
tp341
atp342
a(g41
(dp343
S'NOUN'
p344
F1.0
s(lp345
(g41
I4
tp346
atp347
a(g44
(dp348
g5
F1.0
s(lp349
(g44
I5
tp350
atp351
a(g53
(dp352
S'NOUN'
p353
F1.0
s(lp354
(g53
I6
tp355
atp356
a(g60
(dp357
S'CONJ'
p358
F0.999998
sS'NOUN'
p359
F2e-06
s(lp360
(g60
I7
tp361
atp362
a(g67
(dp363
S'NOUN'
p364
F1.0
s(lp365
(g67
I8
tp366
atp367
a(g44
(dp368
g5
F1.0
s(lp369
(g44
I9
tp370
atp371
a(g80
(dp372
S'NOUN'
p373
F4e-06
sS'DET'
p374
F0.999996
s(lp375
(g80
I10
tp376
atp377
a(g89
(dp378
S'NOUN'
p379
F1.0
s(lp380
(g89
I11
tp381
atp382
a(S'agreement'
p383
(dp384
S'NOUN'
p385
F1.0
s(lp386
(g383
I12
tp387
atp388
a(g98
(dp389
S'ADV'
p390
F0.000224
sS'DET'
p391
F0.162274
sS'ADP'
p392
F0.837502
s(lp393
(g98
I13
tp394
atp395
a(g105
(dp396
S'PRON'
p397
F1.0
s(lp398
(g105
I14
tp399
atp400
a(g112
(dp401
S'VERB'
p402
F1.0
s(lp403
(g112
I15
tp404
atp405
a(g121
(dp406
S'ADV'
p407
F0.99995
sS'NOUN'
p408
F2e-06
sS'ADJ'
p409
F4.7e-05
s(lp410
(g121
I16
tp411
atp412
a(g128
(dp413
S'VERB'
p414
F0.998784
sS'ADJ'
p415
F0.001216
s(lp416
(g128
I17
tp417
atp418
a(g142
(dp419
S'ADV'
p420
F1.0
s(lp421
(g142
I18
tp422
atp423
a(g135
(dp424
S'VERB'
p425
F1.0
s(lp426
(g135
I19
tp427
atp428
a(g150
(dp429
S'NOUN'
p430
F1e-06
sS'DET'
p431
F0.999999
s(lp432
(g150
I20
tp433
atp434
a(g157
(dp435
S'NOUN'
p436
F1.0
s(lp437
(g157
I21
tp438
atp439
a(g164
(dp440
S'ADP'
p441
F1.0
s(lp442
(g164
I22
tp443
atp444
a(S'the'
p445
(dp446
S'NOUN'
p447
F1e-06
sS'DET'
p448
F0.999999
s(lp449
(g445
I23
tp450
atp451
a(g179
(dp452
S'NOUN'
p453
F0.10881199999999999
sS'VERB'
p454
F1.1e-05
sS'ADJ'
p455
F0.891178
s(lp456
(g179
I24
tp457
atp458
a(g171
(dp459
S'NOUN'
p460
F1.0
s(lp461
(g171
I25
tp462
atp463
a(g184
(dp464
g5
F1.0
s(lp465
(g184
I26
tp466
atp467
a(g193
(dp468
S'NOUN'
p469
F0.0
sS'DET'
p470
F1.0
s(lp471
(g193
I27
tp472
atp473
a(g200
(dp474
S'NOUN'
p475
F1.0
s(lp476
(g200
I28
tp477
atp478
a(g207
(dp479
S'ADV'
p480
F0.000747
sS'DET'
p481
F0.999238
sS'ADP'
p482
F1.5e-05
s(lp483
(g207
I29
tp484
atp485
a(g213
(dp486
S'VERB'
p487
F1.0
s(lp488
(g213
I30
tp489
atp490
a(g238
(dp491
S'VERB'
p492
F0.996401
sS'ADJ'
p493
F0.003599
s(lp494
(g238
I31
tp495
atp496
a(g245
(dp497
S'VERB'
p498
F1.4e-05
sS'NOUN'
p499
F0.9999870000000001
s(lp500
(g245
I32
tp501
atp502
a(g252
(dp503
S'ADV'
p504
F1e-06
sS'PRT'
p505
F0.999988
sS'ADP'
p506
F1.1e-05
s(lp507
(g252
I33
tp508
atp509
a(g261
(dp510
S'NOUN'
p511
F2e-06
sS'DET'
p512
F0.999998
s(lp513
(g261
I34
tp514
atp515
a(g269
(dp516
S'NOUN'
p517
F1.0
s(lp518
(g269
I35
tp519
atp520
a(g277
(dp521
S'ADP'
p522
F1.0
s(lp523
(g277
I36
tp524
atp525
a(g284
(dp526
S'VERB'
p527
F0.001274
sS'NOUN'
p528
F0.998726
s(lp529
(g284
I37
tp530
atp531
a(g291
(dp532
S'ADP'
p533
F1.0
s(lp534
(g291
I38
tp535
atp536
a(S'the'
p537
(dp538
S'NOUN'
p539
F1e-06
sS'DET'
p540
F0.999999
s(lp541
(g537
I39
tp542
atp543
a(g299
(dp544
S'NOUN'
p545
F1.0
s(lp546
(g299
I40
tp547
atp548
a(g306
(dp549
S'ADP'
p550
F1.0
s(lp551
(g306
I41
tp552
atp553
a(g315
(dp554
S'ADJ'
p555
F0.012901
sS'VERB'
p556
F9.999999999999999e-06
sS'NOUN'
p557
F0.987089
s(lp558
(g315
I42
tp559
atp560
a(g5
(dp561
g5
F1.0
s(lp562
(g5
I43
tp563
atp564
asS'nl'
p565
(lp566
(g3
(dp567
g5
F1.0
s(lp568
(g3
I0
tp569
atp570
a(S'it'
p571
(dp572
S'ADJ'
p573
F0.06221
sS'NOUN'
p574
F0.93779
s(lp575
(g15
I1
tp576
atp577
a(g18
(dp578
g5
F1.0
s(lp579
(g18
I2
tp580
atp581
a(S'mijnheer'
p582
(dp583
S'NOUN'
p584
F1.0
s(lp585
(g27
I3
tp586
atp587
a(S'de'
p588
(dp589
S'DET'
p590
F1.0
s(lp591
tp592
a(S'voorzitter'
p593
(dp594
S'NOUN'
p595
F1.0
s(lp596
(g41
I4
tp597
atp598
a(g44
(dp599
g5
F1.0
s(lp600
(g44
I5
tp601
atp602
a(S'dames'
p603
(dp604
S'NOUN'
p605
F1.0
s(lp606
(g53
I6
tp607
atp608
a(S'en'
p609
(dp610
S'CONJ'
p611
F1.0
s(lp612
(g60
I7
tp613
atp614
a(S'heren'
p615
(dp616
S'NOUN'
p617
F1.0
s(lp618
(g67
I8
tp619
atp620
a(g44
(dp621
g5
F1.0
s(lp622
(g44
I9
tp623
atp624
a(S'het'
p625
(dp626
S'PRON'
p627
F0.007875
sS'DET'
p628
F0.992125
s(lp629
(g80
I10
tp630
atp631
a(S'kaderakkoord'
p632
(dp633
S'NOUN'
p634
F1.0
s(lp635
(g89
I11
tp636
atp637
a(S'dat'
p638
(dp639
S'PRON'
p640
F0.052538
sS'CONJ'
p641
F0.947462
s(lp642
(g98
I13
tp643
atp644
a(S'wij'
p645
(dp646
S'PRON'
p647
F1.0
s(lp648
(g105
I14
tp649
atp650
a(S'zojuist'
p651
(dp652
S'ADV'
p653
F1.0
s(lp654
(g121
I16
tp655
atp656
a(S'hebben'
p657
(dp658
S'VERB'
p659
F1.0
sS'NOUN'
p660
F1e-06
s(lp661
(g112
I15
tp662
atp663
a(S'aangenomen'
p664
(dp665
S'VERB'
p666
F0.987449
sS'ADJ'
p667
F0.012551
s(lp668
(g128
I17
tp669
atp670
a(S'houdt'
p671
(dp672
S'VERB'
p673
F1.0
s(lp674
(g135
I19
tp675
atp676
a(S'een'
p677
(dp678
S'ADJ'
p679
F2e-06
sS'PRON'
p680
F3.6e-05
sS'NUM'
p681
F1e-06
sS'DET'
p682
F0.999962
s(lp683
tp684
a(S'aanzienlijke'
p685
(dp686
S'NOUN'
p687
F0.00073
sS'ADJ'
p688
F0.99927
s(lp689
(g142
I18
tp690
atp691
a(S'verbetering'
p692
(dp693
S'NOUN'
p694
F1.0
s(lp695
(g135
I19
tp696
atp697
a(S'in'
p698
(dp699
S'ADV'
p700
F0.30453
sS'VERB'
p701
F0.000107
sS'ADP'
p702
F0.695363
s(lp703
tp704
a(S'van'
p705
(dp706
S'ADP'
p707
F1.0
s(lp708
tp709
a(S'de'
p710
(dp711
S'DET'
p712
F1.0
s(lp713
(g150
I20
tp714
atp715
a(S'rol'
p716
(dp717
S'VERB'
p718
F1.9e-05
sS'NOUN'
p719
F0.999981
s(lp720
(g157
I21
tp721
atp722
a(S'van'
p723
(dp724
S'ADP'
p725
F1.0
s(lp726
(g164
I22
tp727
atp728
a(S'het'
p729
(dp730
S'PRON'
p731
F0.00558
sS'DET'
p732
F0.99442
s(lp733
(g445
I23
tp734
atp735
a(S'europees'
p736
(dp737
S'NOUN'
p738
F0.047942
sS'ADJ'
p739
F0.952058
s(lp740
(g179
I24
tp741
atp742
a(S'parlement'
p743
(dp744
S'NOUN'
p745
F1.0
s(lp746
(g171
I25
tp747
atp748
a(g44
(dp749
g5
F1.0
s(lp750
(g184
I26
tp751
atp752
a(S'een'
p753
(dp754
S'ADJ'
p755
F3e-06
sS'PRON'
p756
F0.00011
sS'NUM'
p757
F1e-06
sS'DET'
p758
F0.999887
s(lp759
(g193
I27
tp760
atp761
a(S'rol'
p762
(dp763
S'VERB'
p764
F0.000112
sS'NOUN'
p765
F0.999888
s(lp766
(g200
I28
tp767
atp768
a(S'die'
p769
(dp770
S'PRON'
p771
F1.0
s(lp772
(g207
I29
tp773
atp774
a(S'groter'
p775
(dp776
S'ADJ'
p777
F1.0
s(lp778
tp779
a(S'is'
p780
(dp781
S'VERB'
p782
F1.0
s(lp783
(g213
I30
tp784
atp785
a(S'geworden'
p786
(dp787
S'VERB'
p788
F1.0
s(lp789
(g238
I31
tp790
atp791
a(S'dankzij'
p792
(dp793
S'ADP'
p794
F1.0
s(lp795
(g245
I32
tp796
atp797
a(S'de'
p798
(dp799
S'DET'
p800
F1.0
s(lp801
(g261
I34
tp802
atp803
a(S'inwerkingtreding'
p804
(dp805
S'NOUN'
p806
F1.0
s(lp807
(g269
I35
tp808
atp809
a(S'van'
p810
(dp811
S'ADP'
p812
F1.0
s(lp813
(g291
I38
tp814
atp815
a(S'het'
p816
(dp817
S'PRON'
p818
F0.000927
sS'DET'
p819
F0.999073
s(lp820
(g537
I39
tp821
atp822
a(S'verdrag'
p823
(dp824
S'NOUN'
p825
F1.0
s(lp826
(g299
I40
tp827
atp828
a(S'van'
p829
(dp830
S'ADP'
p831
F1.0
s(lp832
(g306
I41
tp833
atp834
a(S'lissabon'
p835
(dp836
S'NOUN'
p837
F1.0
s(lp838
(g315
I42
tp839
atp840
a(g5
(dp841
g5
F1.0
s(lp842
(g5
I43
tp843
atp844
asS'de'
p845
(lp846
(g3
(dp847
g5
F1.0
s(lp848
(g3
I0
tp849
atp850
a(S'it'
p851
(dp852
S'X'
p853
F1.0
s(lp854
(g15
I1
tp855
atp856
a(g18
(dp857
g5
F1.0
s(lp858
(g18
I2
tp859
atp860
a(S'herr'
p861
(dp862
S'ADJ'
p863
F0.197595
sS'NOUN'
p864
F0.771917
s(lp865
(g27
I3
tp866
atp867
a(S'pr\xc3\xa4sident'
p868
(dp869
S'VERB'
p870
F0.063894
sS'NOUN'
p871
F0.922144
s(lp872
(g41
I4
tp873
atp874
a(g44
(dp875
g5
F1.0
s(lp876
(g44
I5
tp877
atp878
a(S'meine'
p879
(dp880
S'PRON'
p881
F0.965272
sS'VERB'
p882
F0.034728
s(lp883
tp884
a(S'damen'
p885
(dp886
S'ADJ'
p887
F0.17601
sS'NOUN'
p888
F0.800996
s(lp889
(g53
I6
tp890
atp891
a(S'und'
p892
(dp893
S'CONJ'
p894
F1.0
s(lp895
(g60
I7
tp896
atp897
a(S'herren'
p898
(dp899
S'VERB'
p900
F0.734547
sS'NOUN'
p901
F0.210306
s(lp902
(g67
I8
tp903
atp904
a(g44
(dp905
g5
F1.0
s(lp906
(g44
I9
tp907
atp908
a(S'die'
p909
(dp910
S'PRON'
p911
F0.95207
sS'DET'
p912
F0.041162
s(lp913
(g80
I10
tp914
atp915
a(S'soeben'
p916
(dp917
S'ADV'
p918
F1.0
s(lp919
(g121
I16
tp920
atp921
a(S'angenommene'
p922
(dp923
S'ADJ'
p924
F1.0
s(lp925
(g128
I17
tp926
atp927
a(S'rahmenvereinbarung'
p928
(dp929
S'ADJ'
p930
F2e-05
sS'NOUN'
p931
F0.999973
s(lp932
(g89
I11
tp933
atp934
a(S'st\xc3\xa4rkt'
p935
(dp936
S'VERB'
p937
F1.0
s(lp938
(g135
I19
tp939
atp940
a(S'wesentlich'
p941
(dp942
S'ADJ'
p943
F1.0
s(lp944
(g142
I18
tp945
atp946
a(S'die'
p947
(dp948
S'PRON'
p949
F0.794027
sS'DET'
p950
F0.20476
s(lp951
(g150
I20
tp952
atp953
a(S'rolle'
p954
(dp955
S'VERB'
p956
F1.0
s(lp957
(g157
I21
tp958
atp959
a(S'des'
p960
(dp961
S'DET'
p962
F1.0
s(lp963
(g164
I22
tp964
atp965
a(S'europ\xc3\xa4ischen'
p966
(dp967
S'ADJ'
p968
F1.0
s(lp969
(g179
I24
tp970
atp971
a(S'parlaments'
p972
(dp973
S'ADJ'
p974
F0.04511
sS'NOUN'
p975
F0.953117
s(lp976
(g171
I25
tp977
atp978
a(g184
(dp979
g5
F1.0
s(lp980
(g184
I26
tp981
atp982
a(S'eine'
p983
(dp984
S'PRON'
p985
F0.819108
sS'DET'
p986
F0.179514
s(lp987
(g193
I27
tp988
atp989
a(S'rolle'
p990
(dp991
S'VERB'
p992
F1.0
s(lp993
(g200
I28
tp994
atp995
a(g44
(dp996
g5
F1.0
s(lp997
tp998
a(S'die'
p999
(dp1000
S'PRON'
p1001
F0.969199
sS'DET'
p1002
F0.026135
s(lp1003
(g207
I29
tp1004
atp1005
a(S'mit'
p1006
(dp1007
S'PRT'
p1008
F3.9e-05
sS'ADP'
p1009
F0.999961
s(lp1010
(g252
I33
tp1011
atp1012
a(S'dem'
p1013
(dp1014
S'PRON'
p1015
F0.003972
sS'DET'
p1016
F0.995938
s(lp1017
(g261
I34
tp1018
atp1019
a(S'inkrafttreten'
p1020
(dp1021
S'ADJ'
p1022
F0.282152
sS'NOUN'
p1023
F0.622922
s(lp1024
(g269
I35
tp1025
atp1026
a(S'des'
p1027
(dp1028
S'DET'
p1029
F1.0
s(lp1030
(g291
I38
tp1031
atp1032
a(S'vertrages'
p1033
(dp1034
S'ADJ'
p1035
F0.015639
sS'NOUN'
p1036
F0.969436
s(lp1037
(g299
I40
tp1038
atp1039
a(S'von'
p1040
(dp1041
S'NOUN'
p1042
F0.002974
sS'ADP'
p1043
F0.997026
s(lp1044
(g306
I41
tp1045
atp1046
a(S'lissabon'
p1047
(dp1048
S'NOUN'
p1049
F0.999474
s(lp1050
(g315
I42
tp1051
atp1052
a(S'an'
p1053
(dp1054
S'ADP'
p1055
F0.983159
s(lp1056
(g245
I32
tp1057
atp1058
a(S'bedeutung'
p1059
(dp1060
S'ADJ'
p1061
F0.16129
sS'NOUN'
p1062
F0.823834
s(lp1063
tp1064
a(S'gewonnen'
p1065
(dp1066
S'VERB'
p1067
F0.99792
sS'ADJ'
p1068
F0.00208
s(lp1069
(g238
I31
tp1070
atp1071
a(S'hat'
p1072
(dp1073
S'VERB'
p1074
F1.0
s(lp1075
(g213
I30
tp1076
atp1077
a(g5
(dp1078
g5
F1.0
s(lp1079
(g5
I43
tp1080
atp1081
asS'it'
p1082
(lp1083
(S'signor'
p1084
(dp1085
S'NOUN'
p1086
F1.0
s(lp1087
(g27
I3
tp1088
atp1089
a(S'presidente'
p1090
(dp1091
S'NOUN'
p1092
F1.0
s(lp1093
(g41
I4
tp1094
atp1095
a(g44
(dp1096
g5
F1.0
s(lp1097
(g44
I5
tp1098
atp1099
a(S'onorevoli'
p1100
(dp1101
S'NOUN'
p1102
F0.040819
sS'ADJ'
p1103
F0.959181
s(lp1104
(g53
I6
tp1105
atp1106
a(S'colleghi'
p1107
(dp1108
S'VERB'
p1109
F0.01303
sS'NOUN'
p1110
F0.986969
s(lp1111
(g67
I8
tp1112
atp1113
a(g44
(dp1114
g5
F1.0
s(lp1115
(g44
I9
tp1116
atp1117
a(S"l'"
p1118
(dp1119
S'NOUN'
p1120
F0.003774
sS'VERB'
p1121
F0.984512
sS'ADJ'
p1122
F0.011715
s(lp1123
(g80
I10
tp1124
atp1125
a(S'accordo'
p1126
(dp1127
S'VERB'
p1128
F0.00868
sS'NOUN'
p1129
F0.99132
s(lp1130
(g383
I12
tp1131
atp1132
a(S'quadro'
p1133
(dp1134
S'NOUN'
p1135
F0.193541
sS'VERB'
p1136
F0.006498
sS'ADJ'
p1137
F0.799961
s(lp1138
(g89
I11
tp1139
atp1140
a(S'che'
p1141
(dp1142
S'PRON'
p1143
F0.973316
sS'CONJ'
p1144
F0.026365
sS'ADJ'
p1145
F0.000319
s(lp1146
(g98
I13
tp1147
atp1148
a(S'abbiamo'
p1149
(dp1150
S'VERB'
p1151
F1.0
s(lp1152
(g105
I14
tp1153
atp1154
a(S'appena'
p1155
(dp1156
S'ADV'
p1157
F1.0
s(lp1158
(g121
I16
tp1159
atp1160
a(S'votato'
p1161
(dp1162
S'VERB'
p1163
F0.119133
sS'ADJ'
p1164
F0.880867
s(lp1165
(g128
I17
tp1166
atp1167
a(S'migliora'
p1168
(dp1169
S'VERB'
p1170
F1.0
s(lp1171
(g135
I19
tp1172
atp1173
a(S'considerevolmente'
p1174
(dp1175
S'ADV'
p1176
F1.0
s(lp1177
(g142
I18
tp1178
atp1179
a(S'il'
p1180
(dp1181
S'DET'
p1182
F1.0
s(lp1183
(g150
I20
tp1184
atp1185
a(S'ruolo'
p1186
(dp1187
S'NOUN'
p1188
F1.0
s(lp1189
(g157
I21
tp1190
atp1191
a(S'del'
p1192
(dp1193
S'DEF'
p1194
F0.001247
sS'ADP'
p1195
F0.998753
s(lp1196
(g164
I22
tp1197
atp1198
a(S'parlamento'
p1199
(dp1200
S'VERB'
p1201
F0.000319
sS'NOUN'
p1202
F0.999681
s(lp1203
(g171
I25
tp1204
atp1205
a(S'europeo'
p1206
(dp1207
S'NOUN'
p1208
F0.001033
sS'ADJ'
p1209
F0.998967
s(lp1210
(g179
I24
tp1211
atp1212
a(g44
(dp1213
g5
F1.0
s(lp1214
(g184
I26
tp1215
atp1216
a(S'un'
p1217
(dp1218
S'PRON'
p1219
F0.005135
sS'DEF'
p1220
F0.994865
s(lp1221
(g193
I27
tp1222
atp1223
a(S'ruolo'
p1224
(dp1225
S'NOUN'
p1226
F1.0
s(lp1227
(g200
I28
tp1228
atp1229
a(S'accresciuto'
p1230
(dp1231
S'VERB'
p1232
F1.0
s(lp1233
(g238
I31
tp1234
atp1235
a(S'grazie'
p1236
(dp1237
S'ADV'
p1238
F0.653176
sg853
F0.000919
sS'NOUN'
p1239
F0.345905
s(lp1240
(g245
I32
tp1241
atp1242
a(S"all'"
p1243
(dp1244
S'ADJ'
p1245
F0.040711
sS'VERB'
p1246
F0.029952999999999997
sS'NOUN'
p1247
F0.929336
s(lp1248
(g252
I33
tp1249
atp1250
a(S'entrata'
p1251
(dp1252
S'VERB'
p1253
F0.351127
sS'NOUN'
p1254
F0.648873
s(lp1255
(g269
I35
tp1256
atp1257
a(S'in'
p1258
(dp1259
S'ADP'
p1260
F1.0
s(lp1261
(g277
I36
tp1262
atp1263
a(S'vigore'
p1264
(dp1265
S'NOUN'
p1266
F1.0
s(lp1267
(g284
I37
tp1268
atp1269
a(S'del'
p1270
(dp1271
S'DEF'
p1272
F0.00114
sS'ADP'
p1273
F0.99886
s(lp1274
(g291
I38
tp1275
atp1276
a(S'trattato'
p1277
(dp1278
S'VERB'
p1279
F0.133257
sS'NOUN'
p1280
F0.866743
s(lp1281
(g299
I40
tp1282
atp1283
a(S'di'
p1284
(dp1285
S'CONJ'
p1286
F5.9e-05
sS'ADP'
p1287
F0.999941
s(lp1288
(g306
I41
tp1289
atp1290
a(S'lisbona'
p1291
(dp1292
S'ADJ'
p1293
F0.020934
sS'VERB'
p1294
F0.531872
sS'NOUN'
p1295
F0.447193
s(lp1296
(g315
I42
tp1297
atp1298
a(g5
(dp1299
g5
F1.0
s(lp1300
(g5
I43
tp1301
atp1302
asS'sk'
p1303
(lp1304
(g3
(dp1305
g5
F1.0
s(lp1306
(g3
I0
tp1307
atp1308
a(S'it'
p1309
(dp1310
g853
F1.0
s(lp1311
(g15
I1
tp1312
atp1313
a(g18
(dp1314
g5
F1.0
s(lp1315
(g18
I2
tp1316
atp1317
a(S'v\xc3\xa1\xc5\xbeen\xc3\xbd'
p1318
(dp1319
S'VERB'
p1320
F0.273237
sS'ADJ'
p1321
F0.726763
s(lp1322
tp1323
a(S'p\xc3\xa1n'
p1324
(dp1325
S'NOUN'
p1326
F1.0
s(lp1327
(g27
I3
tp1328
atp1329
a(S'predsedaj\xc3\xbaci'
p1330
(dp1331
S'VERB'
p1332
F1.0
s(lp1333
(g41
I4
tp1334
atp1335
a(g44
(dp1336
g5
F1.0
s(lp1337
(g44
I5
tp1338
atp1339
a(S'd\xc3\xa1my'
p1340
(dp1341
S'NOUN'
p1342
F1.0
s(lp1343
(g53
I6
tp1344
atp1345
a(g193
(dp1346
g853
F0.0013250000000000002
sS'CONJ'
p1347
F0.997971
sS'NOUN'
p1348
F0.000112
sS'ADP'
p1349
F0.000533
sS'PRT'
p1350
F5.9e-05
s(lp1351
(g60
I7
tp1352
atp1353
a(S'p\xc3\xa1ni'
p1354
(dp1355
S'NOUN'
p1356
F1.0
s(lp1357
(g67
I8
tp1358
atp1359
a(g44
(dp1360
g5
F1.0
s(lp1361
(g44
I9
tp1362
atp1363
a(S'r\xc3\xa1mcov\xc3\xa1'
p1364
(dp1365
S'ADJ'
p1366
F1.0
s(lp1367
(g89
I11
tp1368
atp1369
a(S'dohoda'
p1370
(dp1371
S'NOUN'
p1372
F1.0
s(lp1373
(g383
I12
tp1374
atp1375
a(g44
(dp1376
g5
F1.0
s(lp1377
tp1378
a(S'ktor\xc3\xba'
p1379
(dp1380
S'PRON'
p1381
F1.0
s(lp1382
(g98
I13
tp1383
atp1384
a(S'sme'
p1385
(dp1386
g853
F0.000297
sS'VERB'
p1387
F0.999703
s(lp1388
(g105
I14
tp1389
atp1390
a(S'pr\xc3\xa1ve'
p1391
(dp1392
S'ADV'
p1393
F0.519081
sg853
F0.479892
sS'NOUN'
p1394
F0.001027
s(lp1395
(g121
I16
tp1396
atp1397
a(S'prijali'
p1398
(dp1399
S'VERB'
p1400
F1.0000010000000001
s(lp1401
(g128
I17
tp1402
atp1403
a(g44
(dp1404
g5
F1.0
s(lp1405
tp1406
a(S'z\xc3\xa1sadne'
p1407
(dp1408
S'ADV'
p1409
F1.0
s(lp1410
(g142
I18
tp1411
atp1412
a(S'zlep\xc5\xa1uje'
p1413
(dp1414
S'VERB'
p1415
F1.0
s(lp1416
(g135
I19
tp1417
atp1418
a(S'\xc3\xbalohu'
p1419
(dp1420
S'NOUN'
p1421
F1.0
s(lp1422
(g157
I21
tp1423
atp1424
a(S'eur\xc3\xb3pskeho'
p1425
(dp1426
S'ADJ'
p1427
F1.0
s(lp1428
(g179
I24
tp1429
atp1430
a(S'parlamentu'
p1431
(dp1432
S'NOUN'
p1433
F1.0
s(lp1434
(g171
I25
tp1435
atp1436
a(g184
(dp1437
g5
F1.0
s(lp1438
(g184
I26
tp1439
atp1440
a(S'\xc3\xbalohu'
p1441
(dp1442
S'NOUN'
p1443
F1.0
s(lp1444
(g200
I28
tp1445
atp1446
a(g44
(dp1447
g5
F1.0
s(lp1448
tp1449
a(S'ktor\xc3\xa1'
p1450
(dp1451
S'PRON'
p1452
F1.0
s(lp1453
(g207
I29
tp1454
atp1455
a(S'sa'
p1456
(dp1457
S'PRT'
p1458
F0.999973
sS'ADP'
p1459
F0.0
sg853
F2.7000000000000002e-05
s(lp1460
(g213
I30
tp1461
atp1462
a(S'upevnila'
p1463
(dp1464
S'VERB'
p1465
F1.0
s(lp1466
(g238
I31
tp1467
atp1468
a(S'v\xc4\x8faka'
p1469
(dp1470
S'NOUN'
p1471
F0.010323
sS'ADP'
p1472
F0.989677
s(lp1473
(g245
I32
tp1474
atp1475
a(S'nadobudnutiu'
p1476
(dp1477
S'NOUN'
p1478
F1.0
s(lp1479
(g269
I35
tp1480
atp1481
a(S'platnosti'
p1482
(dp1483
S'NOUN'
p1484
F1.0
s(lp1485
(g284
I37
tp1486
atp1487
a(S'lisabonskej'
p1488
(dp1489
S'VERB'
p1490
F0.057845000000000014
sS'ADJ'
p1491
F0.942155
s(lp1492
(g315
I42
tp1493
atp1494
a(S'zmluvy'
p1495
(dp1496
S'NOUN'
p1497
F1.0
s(lp1498
(g299
I40
tp1499
atp1500
a(g5
(dp1501
g5
F1.0
s(lp1502
(g5
I43
tp1503
atp1504
asS'pl'
p1505
(lp1506
(g3
(dp1507
S'NOUN'
p1508
F4.3e-05
sg5
F0.999957
s(lp1509
(g3
I0
tp1510
atp1511
a(S'it'
p1512
(dp1513
g853
F1.0
s(lp1514
(g15
I1
tp1515
atp1516
a(g18
(dp1517
g5
F1.0
s(lp1518
(g18
I2
tp1519
atp1520
a(S'panie'
p1521
(dp1522
S'NOUN'
p1523
F0.999999
s(lp1524
(g27
I3
tp1525
atp1526
a(S'przewodnicz\xc4\x85cy'
p1527
(dp1528
S'VERB'
p1529
F0.000901
sS'NOUN'
p1530
F0.999099
s(lp1531
(g41
I4
tp1532
atp1533
a(g44
(dp1534
g853
F0.0
sg5
F1.0
s(lp1535
(g44
I5
tp1536
atp1537
a(S'panie'
p1538
(dp1539
S'NOUN'
p1540
F1.0000010000000001
s(lp1541
(g53
I6
tp1542
atp1543
a(S'i'
p1544
(dp1545
S'PRT'
p1546
F0.003492
sS'CONJ'
p1547
F0.99649
sS'PRON'
p1548
F6e-06
sS'NOUN'
p1549
F5.999999999999999e-06
sg853
F7e-06
s(lp1550
(g60
I7
tp1551
atp1552
a(S'panowie'
p1553
(dp1554
S'NOUN'
p1555
F1.0
s(lp1556
tp1557
a(S'!'
p1558
(dp1559
g5
F1.0
s(lp1560
(g67
I8
tp1561
atp1562
a(S'porozumienie'
p1563
(dp1564
S'VERB'
p1565
F0.076065
sS'NOUN'
p1566
F0.923936
s(lp1567
(g383
I12
tp1568
atp1569
a(S'ramowe'
p1570
(dp1571
S'NOUN'
p1572
F0.25002399999999997
sS'ADJ'
p1573
F0.74866
sg853
F0.001316
s(lp1574
(g89
I11
tp1575
atp1576
a(g44
(dp1577
g853
F1e-06
sg5
F0.999999
s(lp1578
(g44
I9
tp1579
atp1580
a(S'kt\xc3\xb3re'
p1581
(dp1582
S'ADJ'
p1583
F1.000001
s(lp1584
(g98
I13
tp1585
atp1586
a(S'w\xc5\x82a\xc5\x9bnie'
p1587
(dp1588
S'ADV'
p1589
F0.183945
sS'PRT'
p1590
F0.816056
s(lp1591
(g121
I16
tp1592
atp1593
a(S'przyj\xc4\x99li\xc5\x9bmy'
p1594
(dp1595
S'ADV'
p1596
F0.001762
sS'ADJ'
p1597
F0.0072109999999999995
sS'VERB'
p1598
F0.9494410000000001
sS'NOUN'
p1599
F0.041584
s(lp1600
(g128
I17
tp1601
atp1602
a(g44
(dp1603
g853
F0.0
sg5
F1.0
s(lp1604
tp1605
a(S'znacznie'
p1606
(dp1607
S'ADV'
p1608
F1.0
s(lp1609
(g142
I18
tp1610
atp1611
a(S'zwi\xc4\x99ksza'
p1612
(dp1613
S'VERB'
p1614
F1.0
s(lp1615
(g135
I19
tp1616
atp1617
a(S'rol\xc4\x99'
p1618
(dp1619
S'NOUN'
p1620
F1.0
s(lp1621
(g157
I21
tp1622
atp1623
a(S'parlamentu'
p1624
(dp1625
S'NOUN'
p1626
F1.0
s(lp1627
(g171
I25
tp1628
atp1629
a(S'europejskiego'
p1630
(dp1631
S'ADJ'
p1632
F1.0
s(lp1633
(g179
I24
tp1634
atp1635
a(S'dzi\xc4\x99ki'
p1636
(dp1637
S'NOUN'
p1638
F0.285787
sS'ADP'
p1639
F0.714213
s(lp1640
(g245
I32
tp1641
atp1642
a(S'wej\xc5\x9bciu'
p1643
(dp1644
S'VERB'
p1645
F0.929858
sS'NOUN'
p1646
F0.070142
s(lp1647
(g269
I35
tp1648
atp1649
a(S'w'
p1650
(dp1651
S'ADJ'
p1652
F0.0
sg853
F6e-06
sS'NOUN'
p1653
F1e-06
sS'ADP'
p1654
F0.999993
s(lp1655
(g277
I36
tp1656
atp1657
a(S'\xc5\xbcycie'
p1658
(dp1659
S'VERB'
p1660
F0.027313999999999998
sS'NOUN'
p1661
F0.972686
s(lp1662
(g284
I37
tp1663
atp1664
a(S'traktatu'
p1665
(dp1666
S'NOUN'
p1667
F1.0
s(lp1668
(g299
I40
tp1669
atp1670
a(S'lizbo\xc5\x84skiego'
p1671
(dp1672
S'ADJ'
p1673
F1.0
s(lp1674
(g315
I42
tp1675
atp1676
a(g5
(dp1677
g5
F1.0
s(lp1678
(g5
I43
tp1679
atp1680
asS'sl'
p1681
(lp1682
(g3
(dp1683
g5
F1.0
s(lp1684
(g3
I0
tp1685
atp1686
a(S'it'
p1687
(dp1688
S'ADV'
p1689
F0.008238
sS'NOUN'
p1690
F0.931016
sS'NUM'
p1691
F2e-05
sg853
F0.059577
sS'ADJ'
p1692
F0.001133
sS'VERB'
p1693
F1.5e-05
s(lp1694
(g15
I1
tp1695
atp1696
a(g18
(dp1697
g5
F1.0
s(lp1698
(g18
I2
tp1699
atp1700
a(S'gospod'
p1701
(dp1702
S'NOUN'
p1703
F1.0
s(lp1704
(g27
I3
tp1705
atp1706
a(S'predsednik'
p1707
(dp1708
S'NOUN'
p1709
F1.0
s(lp1710
(g41
I4
tp1711
atp1712
a(g44
(dp1713
g5
F1.0
s(lp1714
(g44
I5
tp1715
atp1716
a(S'gospe'
p1717
(dp1718
S'NOUN'
p1719
F1.0
s(lp1720
(g53
I6
tp1721
atp1722
a(S'in'
p1723
(dp1724
S'ADV'
p1725
F2.2e-05
sg853
F1.4e-05
sS'CONJ'
p1726
F0.999957
sS'NOUN'
p1727
F7e-06
s(lp1728
(g60
I7
tp1729
atp1730
a(S'gospodje'
p1731
(dp1732
S'NOUN'
p1733
F1.0
s(lp1734
(g67
I8
tp1735
atp1736
a(g44
(dp1737
g5
F1.0
s(lp1738
(g44
I9
tp1739
atp1740
a(S'okvirni'
p1741
(dp1742
S'ADJ'
p1743
F1.0
s(lp1744
(g89
I11
tp1745
atp1746
a(S'sporazum'
p1747
(dp1748
S'NOUN'
p1749
F1.0
s(lp1750
(g383
I12
tp1751
atp1752
a(g44
(dp1753
g5
F1.0
s(lp1754
tp1755
a(S'ki'
p1756
(dp1757
S'CONJ'
p1758
F1.0
s(lp1759
(g98
I13
tp1760
atp1761
a(S'smo'
p1762
(dp1763
g853
F4e-06
sS'VERB'
p1764
F0.999996
s(lp1765
(g105
I14
tp1766
atp1767
a(S'ga'
p1768
(dp1769
S'PRON'
p1770
F0.999999
s(lp1771
(g112
I15
tp1772
atp1773
a(S'pravkar'
p1774
(dp1775
S'ADV'
p1776
F1.0
s(lp1777
(g121
I16
tp1778
atp1779
a(S'sprejeli'
p1780
(dp1781
S'VERB'
p1782
F1.0
s(lp1783
(g128
I17
tp1784
atp1785
a(g44
(dp1786
g5
F1.0
s(lp1787
tp1788
a(S'znatno'
p1789
(dp1790
S'ADV'
p1791
F0.997815
sS'ADJ'
p1792
F0.002185
s(lp1793
(g142
I18
tp1794
atp1795
a(S'krepi'
p1796
(dp1797
S'VERB'
p1798
F1.0
s(lp1799
(g135
I19
tp1800
atp1801
a(S'vlogo'
p1802
(dp1803
S'NOUN'
p1804
F1.0
s(lp1805
(g157
I21
tp1806
atp1807
a(S'evropskega'
p1808
(dp1809
S'ADJ'
p1810
F1.0
s(lp1811
(g179
I24
tp1812
atp1813
a(S'parlamenta'
p1814
(dp1815
S'NOUN'
p1816
F1.0
s(lp1817
(g171
I25
tp1818
atp1819
a(g184
(dp1820
g5
F1.0
s(lp1821
(g184
I26
tp1822
atp1823
a(S'vlogo'
p1824
(dp1825
S'NOUN'
p1826
F1.0
s(lp1827
(g200
I28
tp1828
atp1829
a(g44
(dp1830
g5
F1.0
s(lp1831
tp1832
a(S'ki'
p1833
(dp1834
S'CONJ'
p1835
F1.0
s(lp1836
(g207
I29
tp1837
atp1838
a(S'se'
p1839
(dp1840
S'PRON'
p1841
F1.0
sg853
F0.0
s(lp1842
(g245
I32
tp1843
atp1844
a(S'je'
p1845
(dp1846
S'PRON'
p1847
F0.000209
sS'VERB'
p1848
F0.999791
sg853
F0.0
s(lp1849
(g213
I30
tp1850
atp1851
a(S'raz\xc5\xa1irila'
p1852
(dp1853
S'VERB'
p1854
F1.0
s(lp1855
(g238
I31
tp1856
atp1857
a(S'z'
p1858
(dp1859
S'ADP'
p1860
F1.0
s(lp1861
(g261
I34
tp1862
atp1863
a(S'uveljavitvijo'
p1864
(dp1865
S'NOUN'
p1866
F1.0
s(lp1867
(g269
I35
tp1868
atp1869
a(S'lizbonske'
p1870
(dp1871
S'ADV'
p1872
F1.2e-05
sS'NOUN'
p1873
F0.0020679999999999995
sS'VERB'
p1874
F0.00019099999999999998
sS'ADJ'
p1875
F0.9977280000000001
s(lp1876
(g315
I42
tp1877
atp1878
a(S'pogodbe'
p1879
(dp1880
S'NOUN'
p1881
F1.0
s(lp1882
(g299
I40
tp1883
atp1884
a(g5
(dp1885
g5
F1.0
s(lp1886
(g5
I43
tp1887
atp1888
asS'es'
p1889
(lp1890
(g3
(dp1891
g5
F1.0
s(lp1892
(g3
I0
tp1893
atp1894
a(S'it'
p1895
(dp1896
S'ADJ'
p1897
F0.011203
sS'NOUN'
p1898
F0.9887980000000001
s(lp1899
(g15
I1
tp1900
atp1901
a(g18
(dp1902
g5
F1.0
s(lp1903
(g18
I2
tp1904
atp1905
a(S'se\xc3\xb1or'
p1906
(dp1907
S'NOUN'
p1908
F1.0
s(lp1909
(g27
I3
tp1910
atp1911
a(S'presidente'
p1912
(dp1913
S'NOUN'
p1914
F1.0
s(lp1915
(g41
I4
tp1916
atp1917
a(g44
(dp1918
g5
F1.0
s(lp1919
(g44
I5
tp1920
atp1921
a(S'se\xc3\xb1or\xc3\xadas'
p1922
(dp1923
S'NOUN'
p1924
F1.0
s(lp1925
(g53
I6
tp1926
atp1927
a(g44
(dp1928
g5
F1.0
s(lp1929
(g44
I9
tp1930
atp1931
a(S'el'
p1932
(dp1933
S'PRON'
p1934
F0.000619
sS'DET'
p1935
F0.999381
s(lp1936
(g80
I10
tp1937
atp1938
a(S'acuerdo'
p1939
(dp1940
S'VERB'
p1941
F0.001056
sS'NOUN'
p1942
F0.998944
s(lp1943
(g383
I12
tp1944
atp1945
a(S'marco'
p1946
(dp1947
S'NOUN'
p1948
F1.0
s(lp1949
(g89
I11
tp1950
atp1951
a(S'que'
p1952
(dp1953
g853
F3e-06
sS'CONJ'
p1954
F0.999997
s(lp1955
(g98
I13
tp1956
atp1957
a(S'acabamos'
p1958
(dp1959
S'VERB'
p1960
F1.0
s(lp1961
(g121
I16
tp1962
atp1963
a(S'de'
p1964
(dp1965
g853
F0.0
sS'CONJ'
p1966
F0.445224
sS'ADP'
p1967
F0.554775
s(lp1968
tp1969
a(S'aprobar'
p1970
(dp1971
S'VERB'
p1972
F1.0
s(lp1973
(g128
I17
tp1974
atp1975
a(S'mejora'
p1976
(dp1977
S'VERB'
p1978
F5e-06
sS'NOUN'
p1979
F0.999995
s(lp1980
(g135
I19
tp1981
atp1982
a(S'considerablemente'
p1983
(dp1984
S'ADV'
p1985
F1.0
s(lp1986
(g142
I18
tp1987
atp1988
a(S'el'
p1989
(dp1990
S'PRON'
p1991
F9e-06
sS'DET'
p1992
F0.999991
s(lp1993
(g150
I20
tp1994
atp1995
a(S'papel'
p1996
(dp1997
S'NOUN'
p1998
F1.0
s(lp1999
(g157
I21
tp2000
atp2001
a(S'del'
p2002
(dp2003
S'ADP'
p2004
F1.0
s(lp2005
(g164
I22
tp2006
atp2007
a(S'parlamento'
p2008
(dp2009
S'VERB'
p2010
F0.0
sS'NOUN'
p2011
F1.0
s(lp2012
(g171
I25
tp2013
atp2014
a(S'europeo'
p2015
(dp2016
S'NOUN'
p2017
F0.00678
sS'ADJ'
p2018
F0.99322
s(lp2019
(g179
I24
tp2020
atp2021
a(S'-un'
p2022
(dp2023
S'ADV'
p2024
F0.116402
sS'ADJ'
p2025
F0.195403
sS'VERB'
p2026
F0.015081
sS'NOUN'
p2027
F0.673114
s(lp2028
(g184
I26
tp2029
atp2030
a(S'papel'
p2031
(dp2032
S'NOUN'
p2033
F1.0
s(lp2034
(g200
I28
tp2035
atp2036
a(S'que'
p2037
(dp2038
g853
F1.4e-05
sS'CONJ'
p2039
F0.999986
s(lp2040
(g207
I29
tp2041
atp2042
a(S'ha'
p2043
(dp2044
S'VERB'
p2045
F1.0
s(lp2046
(g213
I30
tp2047
atp2048
a(S'aumentado'
p2049
(dp2050
S'VERB'
p2051
F1.0
s(lp2052
(g238
I31
tp2053
atp2054
a(S'gracias'
p2055
(dp2056
S'ADP'
p2057
F1.0
s(lp2058
(g245
I32
tp2059
atp2060
a(g193
(dp2061
S'ADP'
p2062
F1.0
s(lp2063
(g252
I33
tp2064
atp2065
a(S'la'
p2066
(dp2067
S'NOUN'
p2068
F0.0
sS'PRON'
p2069
F0.0
sS'DET'
p2070
F0.999999
sg853
F0.0
s(lp2071
(g261
I34
tp2072
atp2073
a(S'entrada'
p2074
(dp2075
S'NOUN'
p2076
F1.0
s(lp2077
(g269
I35
tp2078
atp2079
a(S'en'
p2080
(dp2081
g853
F1.8e-05
sS'CONJ'
p2082
F1e-05
sS'ADP'
p2083
F0.999972
s(lp2084
(g277
I36
tp2085
atp2086
a(S'vigor'
p2087
(dp2088
S'NOUN'
p2089
F1.0
s(lp2090
(g284
I37
tp2091
atp2092
a(S'del'
p2093
(dp2094
S'ADP'
p2095
F1.0
s(lp2096
(g291
I38
tp2097
atp2098
a(S'tratado'
p2099
(dp2100
S'VERB'
p2101
F0.786675
sS'NOUN'
p2102
F0.213325
s(lp2103
(g299
I40
tp2104
atp2105
a(S'de'
p2106
(dp2107
g853
F1.5e-05
sS'CONJ'
p2108
F0.018645
sS'ADP'
p2109
F0.98134
s(lp2110
(g306
I41
tp2111
atp2112
a(S'lisboa'
p2113
(dp2114
S'ADV'
p2115
F0.004982
sS'ADJ'
p2116
F0.068078
sS'VERB'
p2117
F0.06371500000000001
sS'NOUN'
p2118
F0.863225
s(lp2119
(g315
I42
tp2120
atp2121
a(g5
(dp2122
g5
F1.0
s(lp2123
(g5
I43
tp2124
atp2125
as.