(dp0
S'fr'
p1
(lp2
(S'je'
p3
(dp4
S'PRON'
p5
F1.0
s(lp6
(S'i'
p7
I0
tp8
atp9
a(S'suis'
p10
(dp11
S'VERB'
p12
F1.0
s(lp13
(S'am'
p14
I1
tp15
atp16
a(S'heureux'
p17
(dp18
S'NOUN'
p19
F0.039566
sS'ADJ'
p20
F0.960434
s(lp21
(S'glad'
p22
I2
tp23
atp24
a(S'que'
p25
(dp26
S'ADV'
p27
F0.002994
sS'PRON'
p28
F0.083773
sS'CONJ'
p29
F0.913233
s(lp30
(S'that'
p31
I3
tp32
atp33
a(S'la'
p34
(dp35
S'PRON'
p36
F0.000122
sS'DET'
p37
F0.999878
sS'NOUN'
p38
F0.0
s(lp39
(S'the'
p40
I4
tp41
atp42
a(S'proclamation'
p43
(dp44
S'NOUN'
p45
F1.0
s(lp46
(S'proclamation'
p47
I5
tp48
atp49
a(S'de'
p50
(dp51
S'ADP'
p52
F1.0
s(lp53
(S'of'
p54
I6
tp55
atp56
a(S'la'
p57
(dp58
S'PRON'
p59
F1.2e-05
sS'DET'
p60
F0.999988
sS'NOUN'
p61
F0.0
s(lp62
(S'the'
p63
I7
tp64
atp65
a(S'charte'
p66
(dp67
S'NOUN'
p68
F1.0
s(lp69
(S'charter'
p70
I8
tp71
atp72
a(S'des'
p73
(dp74
S'DET'
p75
F2.1e-05
sS'ADP'
p76
F0.999979
s(lp77
(S'of'
p78
I9
tp79
atp80
a(S'droits'
p81
(dp82
S'ADJ'
p83
F0.001047
sS'NOUN'
p84
F0.998953
s(lp85
(S'rights'
p86
I11
tp87
atp88
a(S'fondamentaux'
p89
(dp90
S'ADJ'
p91
F1.0
s(lp92
(S'fundamental'
p93
I10
tp94
atp95
a(S'soit'
p96
(dp97
S'ADV'
p98
F0.005952
sS'CONJ'
p99
F0.990076
sS'VERB'
p100
F0.003972
s(lp101
(S'is'
p102
I12
tp103
atp104
a(S'un'
p105
(dp106
S'NOUN'
p107
F1.2e-05
sS'NUM'
p108
F0.014222
sS'DET'
p109
F0.985767
s(lp110
(S'the'
p111
I16
tp112
atp113
a(S'\xc3\xa9v\xc3\xa9nement'
p114
(dp115
S'NOUN'
p116
F1.0
s(lp117
tp118
a(S'post\xc3\xa9rieur'
p119
(dp120
S'NOUN'
p121
F0.017216
sS'ADJ'
p122
F0.982784
s(lp123
(g47
I5
tp124
atp125
a(S'\xc3\xa0'
p126
(dp127
S'ADP'
p128
F1.0
s(lp129
tp130
a(S"l'"
p131
(dp132
S'ADJ'
p133
F0.160704
sS'VERB'
p134
F0.06480800000000002
sS'NOUN'
p135
F0.774488
s(lp136
tp137
a(S'\xc3\xa9largissement'
p138
(dp139
S'NOUN'
p140
F1.0
s(lp141
(S'enlargement'
p142
I17
tp143
atp144
a(S'de'
p145
(dp146
S'ADP'
p147
F1.0
s(lp148
(S'of'
p149
I18
tp150
atp151
a(S"l'"
p152
(dp153
S'ADJ'
p154
F0.160704
sS'VERB'
p155
F0.06480800000000002
sS'NOUN'
p156
F0.774488
s(lp157
(S'the'
p158
I19
tp159
atp160
a(S'union'
p161
(dp162
S'NOUN'
p163
F1.0
s(lp164
(S'union'
p165
I21
tp166
atp167
a(S'europ\xc3\xa9enne'
p168
(dp169
S'NOUN'
p170
F0.017216
sS'ADJ'
p171
F0.982784
s(lp172
(S'european'
p173
I20
tp174
atp175
a(S'\xc3\xa0'
p176
(dp177
S'ADP'
p178
F1.0
s(lp179
tp180
a(S'de'
p181
(dp182
S'ADP'
p183
F1.0
s(lp184
(S'to'
p185
I22
tp186
atp187
a(S'nouveaux'
p188
(dp189
S'NOUN'
p190
F0.047493
sS'ADJ'
p191
F0.952507
s(lp192
(S'new'
p193
I25
tp194
atp195
a(S'\xc3\x89tats'
p196
(dp197
S'NOUN'
p198
F1.0
s(lp199
(S'states'
p200
I27
tp201
atp202
a(S'membres'
p203
(dp204
S'VERB'
p205
F0.025273
sS'NOUN'
p206
F0.974727
s(lp207
(S'member'
p208
I26
tp209
atp210
a(S'.'
p211
(dp212
g211
F1.0
s(lp213
(g211
I28
tp214
atp215
asS'en'
p216
(lp217
(g7
(dp218
S'X'
p219
F0.000587
sS'NOUN'
p220
F0.999412
s(lp221
(g7
I0
tp222
atp223
a(g14
(dp224
S'ADV'
p225
F0.01111
sS'VERB'
p226
F0.98889
s(lp227
(g14
I1
tp228
atp229
a(g22
(dp230
S'NOUN'
p231
F0.007921
sS'VERB'
p232
F0.0012330000000000002
sS'ADJ'
p233
F0.990847
s(lp234
(g22
I2
tp235
atp236
a(g31
(dp237
S'ADV'
p238
F0.0003
sS'DET'
p239
F0.000971
sS'ADP'
p240
F0.99873
s(lp241
(g31
I3
tp242
atp243
a(g40
(dp244
S'NOUN'
p245
F3e-06
sS'DET'
p246
F0.999997
s(lp247
(g40
I4
tp248
atp249
a(g47
(dp250
S'NOUN'
p251
F1.0
s(lp252
(g47
I5
tp253
atp254
a(g54
(dp255
S'ADP'
p256
F1.0
s(lp257
(g54
I6
tp258
atp259
a(g63
(dp260
S'NOUN'
p261
F1e-06
sS'DET'
p262
F0.999999
s(lp263
(g63
I7
tp264
atp265
a(g70
(dp266
S'ADJ'
p267
F0.017718
sS'VERB'
p268
F4.9e-05
sS'NOUN'
p269
F0.982233
s(lp270
(g70
I8
tp271
atp272
a(g78
(dp273
S'ADP'
p274
F1.0
s(lp275
(g78
I9
tp276
atp277
a(g93
(dp278
S'NOUN'
p279
F0.001818
sS'ADJ'
p280
F0.998182
s(lp281
(g93
I10
tp282
atp283
a(g86
(dp284
S'VERB'
p285
F3e-06
sS'NOUN'
p286
F0.999997
s(lp287
(g86
I11
tp288
atp289
a(g102
(dp290
S'VERB'
p291
F1.0
s(lp292
(g102
I12
tp293
atp294
a(S'taking'
p295
(dp296
S'NOUN'
p297
F0.000537
sS'VERB'
p298
F0.997577
sS'ADJ'
p299
F0.001887
s(lp300
(g295
I13
tp301
atp302
a(S'place'
p303
(dp304
S'VERB'
p305
F0.004893
sS'NOUN'
p306
F0.995107
s(lp307
(g303
I14
tp308
atp309
a(S'after'
p310
(dp311
S'ADV'
p312
F0.0007
sS'ADP'
p313
F0.9993
s(lp314
(g310
I15
tp315
atp316
a(g111
(dp317
S'NOUN'
p318
F1e-06
sS'DET'
p319
F0.999999
s(lp320
(g111
I16
tp321
atp322
a(g142
(dp323
S'NOUN'
p324
F1.0
s(lp325
(g142
I17
tp326
atp327
a(g149
(dp328
S'ADP'
p329
F1.0
s(lp330
(g149
I18
tp331
atp332
a(g158
(dp333
S'NOUN'
p334
F1e-06
sS'DET'
p335
F0.999999
s(lp336
(g158
I19
tp337
atp338
a(g173
(dp339
S'NOUN'
p340
F0.10881199999999999
sS'VERB'
p341
F1.1e-05
sS'ADJ'
p342
F0.891178
s(lp343
(g173
I20
tp344
atp345
a(g165
(dp346
S'NOUN'
p347
F1.0
s(lp348
(g165
I21
tp349
atp350
a(g185
(dp351
S'ADV'
p352
F0.0
sS'PRT'
p353
F1.0
sS'ADP'
p354
F0.0
s(lp355
(g185
I22
tp356
atp357
a(S'include'
p358
(dp359
S'VERB'
p360
F1.0
s(lp361
(g358
I23
tp362
atp363
a(S'the'
p364
(dp365
S'NOUN'
p366
F0.0
sS'DET'
p367
F1.0
s(lp368
(g364
I24
tp369
atp370
a(g193
(dp371
S'NOUN'
p372
F5.2e-05
sS'ADJ'
p373
F0.999948
s(lp374
(g193
I25
tp375
atp376
a(g208
(dp377
S'NOUN'
p378
F1.0
s(lp379
(g208
I26
tp380
atp381
a(g200
(dp382
S'VERB'
p383
F0.009364
sS'NOUN'
p384
F0.990636
s(lp385
(g200
I27
tp386
atp387
a(g211
(dp388
g211
F1.0
s(lp389
(g211
I28
tp390
atp391
asS'nl'
p392
(lp393
(S'het'
p394
(dp395
S'PRON'
p396
F0.962086
sS'DET'
p397
F0.037914
s(lp398
(g7
I0
tp399
atp400
a(S'doet'
p401
(dp402
S'VERB'
p403
F1.0
s(lp404
tp405
a(S'mij'
p406
(dp407
S'PRON'
p408
F1.0
s(lp409
(g14
I1
tp410
atp411
a(S'deugd'
p412
(dp413
S'NOUN'
p414
F1.0
s(lp415
(g22
I2
tp416
atp417
a(S'dat'
p418
(dp419
S'PRON'
p420
F0.014253
sS'CONJ'
p421
F0.985747
s(lp422
(g31
I3
tp423
atp424
a(S'dit'
p425
(dp426
S'PRON'
p427
F1.0
s(lp428
(g63
I7
tp429
atp430
a(S'handvest'
p431
(dp432
S'NOUN'
p433
F1.0
s(lp434
(g70
I8
tp435
atp436
a(S'van'
p437
(dp438
S'ADP'
p439
F1.0
s(lp440
(g78
I9
tp441
atp442
a(S'de'
p443
(dp444
S'DET'
p445
F1.0
s(lp446
(g40
I4
tp447
atp448
a(S'grondrechten'
p449
(dp450
S'NOUN'
p451
F1.0
s(lp452
(g93
I10
tp453
atp454
a(S'wordt'
p455
(dp456
S'VERB'
p457
F1.0
s(lp458
(g102
I12
tp459
atp460
a(S'afgekondigd'
p461
(dp462
S'VERB'
p463
F1.0
s(lp464
(g47
I5
tp465
atp466
a(S'na'
p467
(dp468
S'ADV'
p469
F0.000278
sS'CONJ'
p470
F0.000173
sS'ADP'
p471
F0.999548
s(lp472
(g310
I15
tp473
atp474
a(S'de'
p475
(dp476
S'DET'
p477
F1.0
s(lp478
(g111
I16
tp479
atp480
a(S'uitbreiding'
p481
(dp482
S'NOUN'
p483
F1.0
s(lp484
(g142
I17
tp485
atp486
a(S'van'
p487
(dp488
S'ADP'
p489
F1.0
s(lp490
(g149
I18
tp491
atp492
a(S'de'
p493
(dp494
S'DET'
p495
F1.0
s(lp496
(g158
I19
tp497
atp498
a(S'europese'
p499
(dp500
S'NOUN'
p501
F1.0
s(lp502
(g173
I20
tp503
atp504
a(S'unie'
p505
(dp506
S'NOUN'
p507
F1.0
s(lp508
(g165
I21
tp509
atp510
a(S'met'
p511
(dp512
S'ADP'
p513
F1.0
s(lp514
(g185
I22
tp515
atp516
a(S'de'
p517
(dp518
S'DET'
p519
F1.0
s(lp520
(g364
I24
tp521
atp522
a(S'nieuwe'
p523
(dp524
S'NOUN'
p525
F1e-06
sS'ADJ'
p526
F0.999999
s(lp527
(g193
I25
tp528
atp529
a(S'lidstaten'
p530
(dp531
S'NOUN'
p532
F1.0
s(lp533
(g208
I26
tp534
atp535
a(g211
(dp536
g211
F1.0
s(lp537
(g211
I28
tp538
atp539
asS'de'
p540
(lp541
(S'es'
p542
(dp543
S'PRON'
p544
F1.0
s(lp545
(g7
I0
tp546
atp547
a(S'freut'
p548
(dp549
S'VERB'
p550
F1.0
s(lp551
tp552
a(S'mich'
p553
(dp554
S'PRON'
p555
F1.0
s(lp556
(g22
I2
tp557
atp558
a(S','
p559
(dp560
g211
F1.0
s(lp561
tp562
a(S'dass'
p563
(dp564
S'CONJ'
p565
F1.0
s(lp566
(g31
I3
tp567
atp568
a(S'die'
p569
(dp570
S'PRON'
p571
F0.000867
sS'DET'
p572
F0.999002
s(lp573
(g40
I4
tp574
atp575
a(S'verk\xc3\xbcndung'
p576
(dp577
S'ADJ'
p578
F9.3e-05
sS'NOUN'
p579
F0.999799
s(lp580
(g47
I5
tp581
atp582
a(S'der'
p583
(dp584
S'PRON'
p585
F2.5e-05
sS'DET'
p586
F0.999957
s(lp587
(g63
I7
tp588
atp589
a(S'charta'
p590
(dp591
S'NOUN'
p592
F0.999536
s(lp593
(g70
I8
tp594
atp595
a(S'der'
p596
(dp597
S'PRON'
p598
F8.2e-05
sS'DET'
p599
F0.999907
s(lp600
(g78
I9
tp601
atp602
a(S'grundrechte'
p603
(dp604
S'NOUN'
p605
F0.119045
sS'ADJ'
p606
F0.877063
s(lp607
(g93
I10
tp608
atp609
a(S'nach'
p610
(dp611
S'ADV'
p612
F0.008599
sS'ADP'
p613
F0.987019
s(lp614
(g310
I15
tp615
atp616
a(S'dem'
p617
(dp618
S'PRON'
p619
F0.451177
sS'DET'
p620
F0.54472
s(lp621
(g111
I16
tp622
atp623
a(S'beitritt'
p624
(dp625
S'VERB'
p626
F1.0
s(lp627
(g142
I17
tp628
atp629
a(S'der'
p630
(dp631
S'PRON'
p632
F0.000825
sS'DET'
p633
F0.999175
s(lp634
(g149
I18
tp635
atp636
a(S'neuen'
p637
(dp638
S'ADJ'
p639
F1.0
s(lp640
(g193
I25
tp641
atp642
a(S'mitgliedstaaten'
p643
(dp644
S'ADJ'
p645
F0.002018
sS'NOUN'
p646
F0.996075
s(lp647
(g208
I26
tp648
atp649
a(S'zur'
p650
(dp651
S'ADP'
p652
F1.0
s(lp653
(g158
I19
tp654
atp655
a(S'europ\xc3\xa4ischen'
p656
(dp657
S'ADJ'
p658
F1.0
s(lp659
(g173
I20
tp660
atp661
a(S'union'
p662
(dp663
S'NOUN'
p664
F0.995718
s(lp665
(g165
I21
tp666
atp667
a(S'stattfindet'
p668
(dp669
S'VERB'
p670
F1.0
s(lp671
(g303
I14
tp672
atp673
a(g211
(dp674
g211
F1.0
s(lp675
(g211
I28
tp676
atp677
asS'it'
p678
(lp679
(S'sono'
p680
(dp681
S'VERB'
p682
F0.997393
sS'NOUN'
p683
F0.002607
s(lp684
(g14
I1
tp685
atp686
a(S'lieto'
p687
(dp688
S'ADJ'
p689
F1.0
s(lp690
(g22
I2
tp691
atp692
a(S'che'
p693
(dp694
S'PRON'
p695
F0.931048
sS'CONJ'
p696
F0.068534
sS'ADJ'
p697
F0.000418
s(lp698
(g31
I3
tp699
atp700
a(S'la'
p701
(dp702
S'PRON'
p703
F0.000988
sS'DET'
p704
F0.999012
s(lp705
(g40
I4
tp706
atp707
a(S'proclamazione'
p708
(dp709
S'NOUN'
p710
F1.0
s(lp711
(g47
I5
tp712
atp713
a(S'della'
p714
(dp715
S'DEF'
p716
F0.001587
sS'ADP'
p717
F0.998413
s(lp718
(g54
I6
tp719
atp720
a(S'carta'
p721
(dp722
S'NOUN'
p723
F1.0
s(lp724
(g70
I8
tp725
atp726
a(S'dei'
p727
(dp728
S'NOUN'
p729
F1e-06
sS'DEF'
p730
F0.001174
sS'ADP'
p731
F0.998825
s(lp732
tp733
a(S'diritti'
p734
(dp735
S'ADJ'
p736
F0.006651
sS'NOUN'
p737
F0.993349
s(lp738
(g86
I11
tp739
atp740
a(S'fondamentali'
p741
(dp742
S'ADJ'
p743
F1.0
s(lp744
(g93
I10
tp745
atp746
a(S'abbia'
p747
(dp748
S'VERB'
p749
F1.0
s(lp750
(g102
I12
tp751
atp752
a(S'luogo'
p753
(dp754
S'NOUN'
p755
F1.0
s(lp756
(g303
I14
tp757
atp758
a(S'dopo'
p759
(dp760
S'ADV'
p761
F0.04936
sS'CONJ'
p762
F0.250843
sS'ADJ'
p763
F0.000311
sS'ADP'
p764
F0.699486
s(lp765
(g310
I15
tp766
atp767
a(S"l'"
p768
(dp769
S'NOUN'
p770
F0.007605
sS'VERB'
p771
F0.9646519999999998
sS'ADJ'
p772
F0.027743
s(lp773
tp774
a(S'allargamento'
p775
(dp776
S'NOUN'
p777
F1.0
s(lp778
(g142
I17
tp779
atp780
a(S"dell'"
p781
(dp782
S'ADJ'
p783
F0.040682
sS'VERB'
p784
F0.006560999999999999
sS'NOUN'
p785
F0.952757
s(lp786
(g149
I18
tp787
atp788
a(S'unione'
p789
(dp790
S'NOUN'
p791
F1.0
s(lp792
(g165
I21
tp793
atp794
a(S'europea'
p795
(dp796
S'NOUN'
p797
F0.004216
sS'ADJ'
p798
F0.995784
s(lp799
(g173
I20
tp800
atp801
a(S'ai'
p802
(dp803
S'NOUN'
p804
F0.002129
sS'ADP'
p805
F0.997871
s(lp806
(g185
I22
tp807
atp808
a(S'nuovi'
p809
(dp810
S'NOUN'
p811
F0.176899
sS'ADJ'
p812
F0.823101
s(lp813
(g193
I25
tp814
atp815
a(S'stati'
p816
(dp817
S'VERB'
p818
F0.851672
sS'NOUN'
p819
F0.148328
s(lp820
(g200
I27
tp821
atp822
a(S'membri'
p823
(dp824
S'NOUN'
p825
F1.0
s(lp826
(g208
I26
tp827
atp828
a(g211
(dp829
g211
F1.0
s(lp830
(g211
I28
tp831
atp832
asS'sk'
p833
(lp834
(S'som'
p835
(dp836
S'VERB'
p837
F1.0
s(lp838
(g7
I0
tp839
atp840
a(S'r\xc3\xa1d'
p841
(dp842
S'ADV'
p843
F0.00463
sS'NOUN'
p844
F0.21924500000000002
sS'ADJ'
p845
F0.773705
sg219
F0.00242
s(lp846
(g22
I2
tp847
atp848
a(g559
(dp849
g211
F1.0
s(lp850
tp851
a(S'\xc5\xbee'
p852
(dp853
g219
F0.0009
sS'CONJ'
p854
F0.9991
s(lp855
(g31
I3
tp856
atp857
a(S'k'
p858
(dp859
g219
F0.000447
sS'NOUN'
p860
F1.2e-05
sS'ADP'
p861
F0.999541
s(lp862
(g40
I4
tp863
atp864
a(S'vyhl\xc3\xa1seniu'
p865
(dp866
S'NOUN'
p867
F1.0
s(lp868
(g47
I5
tp869
atp870
a(S'charty'
p871
(dp872
S'NOUN'
p873
F1.0
s(lp874
(g70
I8
tp875
atp876
a(S'z\xc3\xa1kladn\xc3\xbdch'
p877
(dp878
S'ADJ'
p879
F1.0
s(lp880
(g93
I10
tp881
atp882
a(S'pr\xc3\xa1v'
p883
(dp884
g219
F2.2e-05
sS'NOUN'
p885
F0.999978
s(lp886
(g86
I11
tp887
atp888
a(S'sa'
p889
(dp890
S'PRT'
p891
F0.999967
sS'ADP'
p892
F0.0
sg219
F3.2e-05
s(lp893
(g102
I12
tp894
atp895
a(S'dost\xc3\xa1vame'
p896
(dp897
S'VERB'
p898
F1.0
s(lp899
(g295
I13
tp900
atp901
a(S'po'
p902
(dp903
g219
F0.005035
sS'ADP'
p904
F0.994965
s(lp905
(g310
I15
tp906
atp907
a(S'roz\xc5\xa1\xc3\xadren\xc3\xad'
p908
(dp909
S'VERB'
p910
F0.003107
sS'NOUN'
p911
F0.996893
s(lp912
(g142
I17
tp913
atp914
a(S'eur\xc3\xb3pskej'
p915
(dp916
S'ADJ'
p917
F1.0
s(lp918
(g173
I20
tp919
atp920
a(S'\xc3\xbanie'
p921
(dp922
S'NOUN'
p923
F1.0
s(lp924
(g165
I21
tp925
atp926
a(S'o'
p927
(dp928
g219
F0.000357
sS'CONJ'
p929
F4.8e-05
sS'NOUN'
p930
F3.2e-05
sS'ADP'
p931
F0.999564
s(lp932
(g358
I23
tp933
atp934
a(S'nov\xc3\xa9'
p935
(dp936
g219
F3.9e-05
sS'ADJ'
p937
F0.999961
s(lp938
(g193
I25
tp939
atp940
a(S'\xc4\x8dlensk\xc3\xa9'
p941
(dp942
S'NOUN'
p943
F0.005645
sS'ADJ'
p944
F0.994356
s(lp945
(g208
I26
tp946
atp947
a(S'krajiny'
p948
(dp949
S'NOUN'
p950
F1.0
s(lp951
(g200
I27
tp952
atp953
a(g211
(dp954
g211
F1.0
s(lp955
(g211
I28
tp956
atp957
asS'pl'
p958
(lp959
(S'ciesz\xc4\x99'
p960
(dp961
S'VERB'
p962
F1.0
s(lp963
tp964
a(S'si\xc4\x99'
p965
(dp966
S'PRT'
p967
F1.0
s(lp968
(g22
I2
tp969
atp970
a(g559
(dp971
g219
F0.0
sg211
F1.0
s(lp972
tp973
a(S'\xc5\xbce'
p974
(dp975
S'PRT'
p976
F0.000101
sS'CONJ'
p977
F0.999899
s(lp978
(g31
I3
tp979
atp980
a(S'proklamacja'
p981
(dp982
S'ADJ'
p983
F9.7e-05
sS'VERB'
p984
F0.001079
sS'NOUN'
p985
F0.9988239999999998
s(lp986
(g47
I5
tp987
atp988
a(S'karty'
p989
(dp990
S'NOUN'
p991
F0.999999
s(lp992
(g70
I8
tp993
atp994
a(S'praw'
p995
(dp996
S'NOUN'
p997
F1.0
s(lp998
(g86
I11
tp999
atp1000
a(S'podstawowych'
p1001
(dp1002
S'ADJ'
p1003
F1.0000000000000002
s(lp1004
(g93
I10
tp1005
atp1006
a(S'odbywa'
p1007
(dp1008
S'VERB'
p1009
F1.0
s(lp1010
(g295
I13
tp1011
atp1012
a(S'si\xc4\x99'
p1013
(dp1014
S'PRT'
p1015
F1.0
s(lp1016
(g303
I14
tp1017
atp1018
a(S'po'
p1019
(dp1020
g219
F0.0
sS'VERB'
p1021
F0.0015230000000000003
sS'NOUN'
p1022
F3e-06
sS'ADP'
p1023
F0.9984750000000001
s(lp1024
(g310
I15
tp1025
atp1026
a(S'rozszerzeniu'
p1027
(dp1028
S'VERB'
p1029
F1.0
s(lp1030
(g142
I17
tp1031
atp1032
a(S'unii'
p1033
(dp1034
S'NOUN'
p1035
F1.0
s(lp1036
(g165
I21
tp1037
atp1038
a(S'europejskiej'
p1039
(dp1040
S'ADJ'
p1041
F1.0
s(lp1042
(g173
I20
tp1043
atp1044
a(g7
(dp1045
S'PRT'
p1046
F0.000384
sS'CONJ'
p1047
F0.999586
sS'PRON'
p1048
F3e-06
sS'NOUN'
p1049
F1e-06
sg219
F2.6e-05
s(lp1050
(g185
I22
tp1051
atp1052
a(S'przyj\xc4\x99ciu'
p1053
(dp1054
S'VERB'
p1055
F0.955667
sS'NOUN'
p1056
F0.044333
s(lp1057
(g358
I23
tp1058
atp1059
a(S'nowych'
p1060
(dp1061
S'NOUN'
p1062
F0.000355
sS'ADJ'
p1063
F0.999645
s(lp1064
(g193
I25
tp1065
atp1066
a(S'pa\xc5\x84stw'
p1067
(dp1068
S'NOUN'
p1069
F1.0
s(lp1070
(g200
I27
tp1071
atp1072
a(S'cz\xc5\x82onkowskich'
p1073
(dp1074
S'ADJ'
p1075
F1.000001
s(lp1076
(g208
I26
tp1077
atp1078
a(g211
(dp1079
g211
F1.0
s(lp1080
(g211
I28
tp1081
atp1082
asS'sl'
p1083
(lp1084
(S'veseli'
p1085
(dp1086
S'VERB'
p1087
F0.834412
sS'ADJ'
p1088
F0.165588
s(lp1089
tp1090
a(S'me'
p1091
(dp1092
S'PRON'
p1093
F0.9977800000000001
sg219
F0.002221
s(lp1094
(g14
I1
tp1095
atp1096
a(g559
(dp1097
g211
F1.0
s(lp1098
(g22
I2
tp1099
atp1100
a(S'da'
p1101
(dp1102
S'PRT'
p1103
F0.000131
sS'CONJ'
p1104
F0.999856
sS'VERB'
p1105
F1.2e-05
sg219
F0.0
s(lp1106
(g31
I3
tp1107
atp1108
a(S'bo'
p1109
(dp1110
S'VERB'
p1111
F1.0
s(lp1112
(g40
I4
tp1113
atp1114
a(S'razglasitev'
p1115
(dp1116
S'NOUN'
p1117
F1.0
s(lp1118
(g47
I5
tp1119
atp1120
a(S'listine'
p1121
(dp1122
S'NOUN'
p1123
F1.0
s(lp1124
tp1125
a(g927
(dp1126
S'NOUN'
p1127
F2e-06
sS'ADP'
p1128
F0.999998
s(lp1129
(g70
I8
tp1130
atp1131
a(S'temeljnih'
p1132
(dp1133
S'ADJ'
p1134
F1.0
s(lp1135
(g93
I10
tp1136
atp1137
a(S'pravicah'
p1138
(dp1139
S'NOUN'
p1140
F1.0
s(lp1141
(g86
I11
tp1142
atp1143
a(S'potekala'
p1144
(dp1145
S'VERB'
p1146
F1.0
s(lp1147
(g303
I14
tp1148
atp1149
a(S'po'
p1150
(dp1151
g219
F1e-06
sS'ADP'
p1152
F0.9999990000000001
s(lp1153
(g310
I15
tp1154
atp1155
a(S'\xc5\xa1iritvi'
p1156
(dp1157
S'NOUN'
p1158
F1.0
s(lp1159
(g142
I17
tp1160
atp1161
a(S'evropske'
p1162
(dp1163
S'ADJ'
p1164
F0.9999990000000001
s(lp1165
(g173
I20
tp1166
atp1167
a(S'unije'
p1168
(dp1169
S'NOUN'
p1170
F1.0
s(lp1171
(g165
I21
tp1172
atp1173
a(g559
(dp1174
g211
F1.0
s(lp1175
tp1176
a(S'da'
p1177
(dp1178
S'PRT'
p1179
F5e-06
sS'CONJ'
p1180
F0.99997
sS'VERB'
p1181
F2.4e-05
sg219
F0.0
s(lp1182
tp1183
a(S'se'
p1184
(dp1185
S'PRON'
p1186
F1.0
sg219
F0.0
s(lp1187
(g185
I22
tp1188
atp1189
a(S'vklju\xc4\x8dijo'
p1190
(dp1191
S'VERB'
p1192
F1.0
s(lp1193
(g358
I23
tp1194
atp1195
a(S'nove'
p1196
(dp1197
g219
F5e-06
sS'ADJ'
p1198
F0.9999949999999999
s(lp1199
(g193
I25
tp1200
atp1201
a(S'dr\xc5\xbeave'
p1202
(dp1203
S'NOUN'
p1204
F1.0
s(lp1205
(g208
I26
tp1206
atp1207
a(S'\xc4\x8dlanice'
p1208
(dp1209
S'NOUN'
p1210
F1.0
s(lp1211
(g200
I27
tp1212
atp1213
a(g211
(dp1214
g211
F1.0
s(lp1215
(g211
I28
tp1216
atp1217
asS'es'
p1218
(lp1219
(S'me'
p1220
(dp1221
S'PRON'
p1222
F0.999999
sS'NOUN'
p1223
F1e-06
s(lp1224
(g7
I0
tp1225
atp1226
a(S'alegro'
p1227
(dp1228
S'VERB'
p1229
F1.0
s(lp1230
(g22
I2
tp1231
atp1232
a(S'de'
p1233
(dp1234
g219
F0.0
sS'CONJ'
p1235
F0.008492
sS'ADP'
p1236
F0.991508
s(lp1237
tp1238
a(S'que'
p1239
(dp1240
g219
F0.0
sS'CONJ'
p1241
F1.0
s(lp1242
(g31
I3
tp1243
atp1244
a(S'la'
p1245
(dp1246
S'PRON'
p1247
F0.00027
sS'DET'
p1248
F0.99973
sg219
F0.0
sS'NOUN'
p1249
F0.0
s(lp1250
(g40
I4
tp1251
atp1252
a(S'proclamaci\xc3\xb3n'
p1253
(dp1254
S'NOUN'
p1255
F1.0
s(lp1256
(g47
I5
tp1257
atp1258
a(S'de'
p1259
(dp1260
g219
F0.0
sS'CONJ'
p1261
F1.7e-05
sS'ADP'
p1262
F0.999983
s(lp1263
(g54
I6
tp1264
atp1265
a(S'la'
p1266
(dp1267
g219
F0.0
sS'PRON'
p1268
F0.0
sS'DET'
p1269
F0.999999
sS'NOUN'
p1270
F0.0
s(lp1271
(g63
I7
tp1272
atp1273
a(S'carta'
p1274
(dp1275
S'NOUN'
p1276
F1.0
s(lp1277
(g70
I8
tp1278
atp1279
a(S'de'
p1280
(dp1281
g219
F0.0
sS'CONJ'
p1282
F1.7e-05
sS'ADP'
p1283
F0.999983
s(lp1284
(g78
I9
tp1285
atp1286
a(S'los'
p1287
(dp1288
S'PRON'
p1289
F0.0
sS'DET'
p1290
F1.0
s(lp1291
tp1292
a(S'derechos'
p1293
(dp1294
S'NOUN'
p1295
F1.0
s(lp1296
(g86
I11
tp1297
atp1298
a(S'fundamentales'
p1299
(dp1300
S'ADJ'
p1301
F1.0
s(lp1302
(g93
I10
tp1303
atp1304
a(S'est\xc3\xa9'
p1305
(dp1306
S'VERB'
p1307
F1.0
s(lp1308
(g102
I12
tp1309
atp1310
a(S'teniendo'
p1311
(dp1312
S'VERB'
p1313
F1.0
s(lp1314
(g295
I13
tp1315
atp1316
a(S'lugar'
p1317
(dp1318
S'NOUN'
p1319
F1.0
s(lp1320
(g303
I14
tp1321
atp1322
a(S'despu\xc3\xa9s'
p1323
(dp1324
S'CONJ'
p1325
F0.000277
sS'ADP'
p1326
F0.999723
s(lp1327
(g310
I15
tp1328
atp1329
a(S'de'
p1330
(dp1331
S'CONJ'
p1332
F0.000277
sS'ADP'
p1333
F0.999723
s(lp1334
tp1335
a(S'la'
p1336
(dp1337
S'NOUN'
p1338
F0.0
sS'PRON'
p1339
F0.0
sS'DET'
p1340
F0.999999
sg219
F0.0
s(lp1341
(g111
I16
tp1342
atp1343
a(S'ampliaci\xc3\xb3n'
p1344
(dp1345
S'NOUN'
p1346
F1.0
s(lp1347
(g142
I17
tp1348
atp1349
a(S'de'
p1350
(dp1351
g219
F0.0
sS'CONJ'
p1352
F1.7e-05
sS'ADP'
p1353
F0.999983
s(lp1354
(g149
I18
tp1355
atp1356
a(S'la'
p1357
(dp1358
g219
F0.0
sS'PRON'
p1359
F0.0
sS'DET'
p1360
F0.999999
sS'NOUN'
p1361
F0.0
s(lp1362
(g158
I19
tp1363
atp1364
a(S'uni\xc3\xb3n'
p1365
(dp1366
S'NOUN'
p1367
F1.0
s(lp1368
(g165
I21
tp1369
atp1370
a(S'europea'
p1371
(dp1372
S'ADJ'
p1373
F1.0
s(lp1374
(g173
I20
tp1375
atp1376
a(g559
(dp1377
g211
F1.0
s(lp1378
tp1379
a(S'para'
p1380
(dp1381
S'CONJ'
p1382
F0.98704
sS'ADP'
p1383
F0.01296
s(lp1384
(g185
I22
tp1385
atp1386
a(S'incluir'
p1387
(dp1388
S'VERB'
p1389
F1.0
s(lp1390
tp1391
a(S'a'
p1392
(dp1393
g219
F0.000259
sS'CONJ'
p1394
F5e-06
sS'ADP'
p1395
F0.999736
s(lp1396
(g358
I23
tp1397
atp1398
a(S'los'
p1399
(dp1400
S'PRON'
p1401
F0.0
sS'DET'
p1402
F1.0
s(lp1403
(g364
I24
tp1404
atp1405
a(S'nuevos'
p1406
(dp1407
S'ADJ'
p1408
F1.0
s(lp1409
(g193
I25
tp1410
atp1411
a(S'estados'
p1412
(dp1413
S'NOUN'
p1414
F1.0
s(lp1415
(g200
I27
tp1416
atp1417
a(S'miembros'
p1418
(dp1419
S'NOUN'
p1420
F1.0
s(lp1421
(g208
I26
tp1422
atp1423
a(g211
(dp1424
g211
F1.0
s(lp1425
(g211
I28
tp1426
atp1427
as.