(dp0
S'fr'
p1
(lp2
(S'apr\xc3\xa8s'
p3
(dp4
S'ADV'
p5
F0.04171
sS'CONJ'
p6
F0.092494
sS'ADP'
p7
F0.865796
s(lp8
(S'after'
p9
I0
tp10
atp11
a(S'avoir'
p12
(dp13
S'VERB'
p14
F0.998639
sS'NOUN'
p15
F0.001361
s(lp16
tp17
a(S'montr\xc3\xa9'
p18
(dp19
S'VERB'
p20
F1.0
s(lp21
(S'setting'
p22
I1
tp23
atp24
a(S'une'
p25
(dp26
S'NOUN'
p27
F1.2e-05
sS'NUM'
p28
F0.057193
sS'DET'
p29
F0.942795
s(lp30
(S'a'
p31
I2
tp32
atp33
a(S'direction'
p34
(dp35
S'NOUN'
p36
F1.0
s(lp37
(S'direction'
p38
I4
tp39
atp40
a(S'strat\xc3\xa9gique'
p41
(dp42
S'ADJ'
p43
F1.0
s(lp44
(S'strategic'
p45
I3
tp46
atp47
a(S','
p48
(dp49
S'.'
p50
F1.0
s(lp51
(g48
I5
tp52
atp53
a(S'le'
p54
(dp55
S'PRON'
p56
F0.000368
sS'DET'
p57
F0.999632
s(lp58
(S'the'
p59
I6
tp60
atp61
a(S'conseil'
p62
(dp63
S'NOUN'
p64
F1.0
s(lp65
(S'council'
p66
I7
tp67
atp68
a(S'et'
p69
(dp70
S'CONJ'
p71
F1.0
s(lp72
(S'and'
p73
I8
tp74
atp75
a(S'la'
p76
(dp77
S'PRON'
p78
F0.000103
sS'DET'
p79
F0.999897
sS'NOUN'
p80
F0.0
s(lp81
(S'the'
p82
I9
tp83
atp84
a(S'commission'
p85
(dp86
S'NOUN'
p87
F1.0
s(lp88
(S'commission'
p89
I10
tp90
atp91
a(S'doivent'
p92
(dp93
S'VERB'
p94
F1.0
s(lp95
(S'should'
p96
I11
tp97
atp98
a(S'consolider'
p99
(dp100
S'VERB'
p101
F1.0
s(lp102
(S'consolidate'
p103
I12
tp104
atp105
a(S'et'
p106
(dp107
S'CONJ'
p108
F1.0
s(lp109
(S'and'
p110
I13
tp111
atp112
a(S'coordonner'
p113
(dp114
S'VERB'
p115
F1.0
s(lp116
(S'coordinate'
p117
I14
tp118
atp119
a(S'les'
p120
(dp121
S'PRON'
p122
F3.1e-05
sS'DET'
p123
F0.999948
sS'ADP'
p124
F2.1e-05
s(lp125
tp126
a(S'solutions'
p127
(dp128
S'NOUN'
p129
F1.0
s(lp130
tp131
a(S'des'
p132
(dp133
S'DET'
p134
F1e-05
sS'ADP'
p135
F0.99999
s(lp136
(S'solutions'
p137
I17
tp138
atp139
a(S'\xc3\x89tats'
p140
(dp141
S'NOUN'
p142
F1.0
s(lp143
(S'state'
p144
I16
tp145
atp146
a(S'membres'
p147
(dp148
S'VERB'
p149
F0.025273
sS'NOUN'
p150
F0.974727
s(lp151
(S'member'
p152
I15
tp153
atp154
a(g50
(dp155
g50
F1.0
s(lp156
(g50
I18
tp157
atp158
asS'en'
p159
(lp160
(g9
(dp161
S'ADV'
p162
F0.012302
sS'ADP'
p163
F0.987698
s(lp164
(g9
I0
tp165
atp166
a(g22
(dp167
S'VERB'
p168
F0.997131
sS'NOUN'
p169
F0.002869
s(lp170
(g22
I1
tp171
atp172
a(g31
(dp173
S'NOUN'
p174
F0.0
sS'DET'
p175
F1.0
s(lp176
(g31
I2
tp177
atp178
a(g45
(dp179
S'ADJ'
p180
F1.0
s(lp181
(g45
I3
tp182
atp183
a(g38
(dp184
S'NOUN'
p185
F1.0
s(lp186
(g38
I4
tp187
atp188
a(g48
(dp189
g50
F1.0
s(lp190
(g48
I5
tp191
atp192
a(g59
(dp193
S'NOUN'
p194
F4e-06
sS'DET'
p195
F0.999996
s(lp196
(g59
I6
tp197
atp198
a(g66
(dp199
S'NOUN'
p200
F1.0
s(lp201
(g66
I7
tp202
atp203
a(g73
(dp204
S'CONJ'
p205
F1.0
sS'NOUN'
p206
F0.0
s(lp207
(g73
I8
tp208
atp209
a(g82
(dp210
S'NOUN'
p211
F2e-06
sS'DET'
p212
F0.999998
s(lp213
(g82
I9
tp214
atp215
a(g89
(dp216
S'VERB'
p217
F4e-06
sS'NOUN'
p218
F0.999997
s(lp219
(g89
I10
tp220
atp221
a(g96
(dp222
S'VERB'
p223
F1.0
s(lp224
(g96
I11
tp225
atp226
a(g103
(dp227
S'VERB'
p228
F1.0
s(lp229
(g103
I12
tp230
atp231
a(g110
(dp232
S'CONJ'
p233
F0.999995
sS'NOUN'
p234
F5e-06
s(lp235
(g110
I13
tp236
atp237
a(g117
(dp238
S'NOUN'
p239
F0.010128
sS'VERB'
p240
F0.822115
sS'ADJ'
p241
F0.167757
s(lp242
(g117
I14
tp243
atp244
a(g152
(dp245
S'NOUN'
p246
F1.0
s(lp247
(g152
I15
tp248
atp249
a(g144
(dp250
S'VERB'
p251
F0.000959
sS'NOUN'
p252
F0.999041
s(lp253
(g144
I16
tp254
atp255
a(g137
(dp256
S'NOUN'
p257
F1.0
s(lp258
(g137
I17
tp259
atp260
a(g50
(dp261
g50
F1.0
s(lp262
(g50
I18
tp263
atp264
asS'nl'
p265
(lp266
(S'na'
p267
(dp268
S'ADV'
p269
F0.024199
sS'CONJ'
p270
F0.001357
sS'ADP'
p271
F0.974444
s(lp272
(g9
I0
tp273
atp274
a(S'een'
p275
(dp276
S'ADJ'
p277
F1e-06
sS'PRON'
p278
F0.000518
sS'NUM'
p279
F1e-06
sS'DET'
p280
F0.99948
s(lp281
(g31
I2
tp282
atp283
a(S'strategische'
p284
(dp285
S'NOUN'
p286
F0.020894
sS'ADJ'
p287
F0.979106
s(lp288
(g45
I3
tp289
atp290
a(S'koers'
p291
(dp292
S'VERB'
p293
F0.047311
sS'NOUN'
p294
F0.952689
s(lp295
(g38
I4
tp296
atp297
a(S'te'
p298
(dp299
S'PRT'
p300
F1.0
s(lp301
tp302
a(S'hebben'
p303
(dp304
S'VERB'
p305
F1.0
sS'NOUN'
p306
F0.0
s(lp307
tp308
a(S'bepaald'
p309
(dp310
S'ADV'
p311
F1e-06
sS'VERB'
p312
F0.999876
sS'ADJ'
p313
F0.000122
s(lp314
(g22
I1
tp315
atp316
a(g48
(dp317
g50
F1.0
s(lp318
(g48
I5
tp319
atp320
a(S'moeten'
p321
(dp322
S'VERB'
p323
F0.9999870000000001
sS'NOUN'
p324
F1.2e-05
s(lp325
(g96
I11
tp326
atp327
a(S'de'
p328
(dp329
S'DET'
p330
F1.0
s(lp331
(g59
I6
tp332
atp333
a(S'raad'
p334
(dp335
S'VERB'
p336
F1e-06
sS'NOUN'
p337
F0.999999
s(lp338
(g66
I7
tp339
atp340
a(S'en'
p341
(dp342
S'CONJ'
p343
F1.0
s(lp344
(g73
I8
tp345
atp346
a(S'de'
p347
(dp348
S'DET'
p349
F1.0
s(lp350
(g82
I9
tp351
atp352
a(S'commissie'
p353
(dp354
S'NOUN'
p355
F1.0
s(lp356
(g89
I10
tp357
atp358
a(S'de'
p359
(dp360
S'DET'
p361
F1.0
s(lp362
(g144
I16
tp363
atp364
a(S'oplossingen'
p365
(dp366
S'NOUN'
p367
F1.0
s(lp368
(g137
I17
tp369
atp370
a(S'van'
p371
(dp372
S'ADP'
p373
F1.0
s(lp374
tp375
a(S'de'
p376
(dp377
S'DET'
p378
F1.0
s(lp379
tp380
a(S'lidstaten'
p381
(dp382
S'NOUN'
p383
F1.0
s(lp384
(g152
I15
tp385
atp386
a(S'consolideren'
p387
(dp388
S'VERB'
p389
F0.9895539999999999
sS'NOUN'
p390
F0.010446
s(lp391
(g103
I12
tp392
atp393
a(S'en'
p394
(dp395
S'CONJ'
p396
F1.0
s(lp397
(g110
I13
tp398
atp399
a(S'co\xc3\xb6rdineren'
p400
(dp401
S'VERB'
p402
F0.918496
sS'NOUN'
p403
F0.081505
s(lp404
(g117
I14
tp405
atp406
a(g50
(dp407
g50
F1.0
s(lp408
(g50
I18
tp409
atp410
asS'de'
p411
(lp412
(S'nach'
p413
(dp414
S'ADV'
p415
F0.011096
sS'ADP'
p416
F0.988877
s(lp417
(g9
I0
tp418
atp419
a(S'der'
p420
(dp421
S'PRON'
p422
F0.000135
sS'DET'
p423
F0.999856
s(lp424
tp425
a(S'festlegung'
p426
(dp427
S'ADJ'
p428
F0.007568
sS'NOUN'
p429
F0.987765
s(lp430
(g22
I1
tp431
atp432
a(S'der'
p433
(dp434
S'PRON'
p435
F8.8e-05
sS'DET'
p436
F0.999894
s(lp437
(g31
I2
tp438
atp439
a(S'strategischen'
p440
(dp441
S'ADJ'
p442
F1.0
s(lp443
(g45
I3
tp444
atp445
a(S'ausrichtung'
p446
(dp447
S'VERB'
p448
F0.003173
sS'NOUN'
p449
F0.996734
s(lp450
(g38
I4
tp451
atp452
a(S'sollten'
p453
(dp454
S'VERB'
p455
F1.0
s(lp456
(g96
I11
tp457
atp458
a(S'der'
p459
(dp460
S'PRON'
p461
F0.001003
sS'DET'
p462
F0.998989
s(lp463
(g59
I6
tp464
atp465
a(S'rat'
p466
(dp467
S'X'
p468
F0.137429
sS'ADJ'
p469
F0.772578
s(lp470
(g66
I7
tp471
atp472
a(S'und'
p473
(dp474
S'CONJ'
p475
F1.0
s(lp476
(g73
I8
tp477
atp478
a(S'die'
p479
(dp480
S'PRON'
p481
F0.007342
sS'DET'
p482
F0.985744
s(lp483
(g82
I9
tp484
atp485
a(S'kommission'
p486
(dp487
S'ADJ'
p488
F0.021364
sS'NOUN'
p489
F0.967003
s(lp490
(g89
I10
tp491
atp492
a(S'die'
p493
(dp494
S'PRON'
p495
F0.000175
sS'DET'
p496
F0.999676
s(lp497
tp498
a(S'l\xc3\xb6sungen'
p499
(dp500
S'ADJ'
p501
F0.013259
sS'NOUN'
p502
F0.975141
s(lp503
(g137
I17
tp504
atp505
a(S'der'
p506
(dp507
S'PRON'
p508
F0.000126
sS'DET'
p509
F0.999756
s(lp510
tp511
a(S'mitgliedstaaten'
p512
(dp513
S'ADJ'
p514
F0.04102
sS'NOUN'
p515
F0.946349
s(lp516
(g152
I15
tp517
atp518
a(S'zusammenfassen'
p519
(dp520
S'VERB'
p521
F1.0
s(lp522
(g103
I12
tp523
atp524
a(S'und'
p525
(dp526
S'CONJ'
p527
F1.0
s(lp528
(g110
I13
tp529
atp530
a(S'koordinieren'
p531
(dp532
S'VERB'
p533
F1.0
s(lp534
(g117
I14
tp535
atp536
a(g50
(dp537
g50
F1.0
s(lp538
(g50
I18
tp539
atp540
asS'it'
p541
(lp542
(S'dopo'
p543
(dp544
S'ADV'
p545
F0.2541
sS'CONJ'
p546
F0.037733
sS'ADJ'
p547
F6e-06
sS'ADP'
p548
F0.708162
s(lp549
(g9
I0
tp550
atp551
a(S'aver'
p552
(dp553
S'VERB'
p554
F1.0
s(lp555
tp556
a(S'definito'
p557
(dp558
S'VERB'
p559
F0.997191
sS'ADJ'
p560
F0.002809
s(lp561
(g22
I1
tp562
atp563
a(S'un'
p564
(dp565
S'PRON'
p566
F0.000248
sS'DEF'
p567
F0.999752
s(lp568
(g31
I2
tp569
atp570
a(S'orientamento'
p571
(dp572
S'NOUN'
p573
F1.0
s(lp574
(g38
I4
tp575
atp576
a(S'strategico'
p577
(dp578
S'ADJ'
p579
F1.0
s(lp580
(g45
I3
tp581
atp582
a(g48
(dp583
g50
F1.0
s(lp584
(g48
I5
tp585
atp586
a(S'il'
p587
(dp588
S'DET'
p589
F1.0
s(lp590
(g59
I6
tp591
atp592
a(S'consiglio'
p593
(dp594
S'VERB'
p595
F0.000115
sS'NOUN'
p596
F0.999885
s(lp597
(g66
I7
tp598
atp599
a(S'e'
p600
(dp601
S'CONJ'
p602
F1.0
s(lp603
(g73
I8
tp604
atp605
a(S'la'
p606
(dp607
S'PRON'
p608
F0.000411
sS'DET'
p609
F0.999589
s(lp610
(g82
I9
tp611
atp612
a(S'commissione'
p613
(dp614
S'NOUN'
p615
F1.0
s(lp616
(g89
I10
tp617
atp618
a(S'dovrebbero'
p619
(dp620
S'VERB'
p621
F1.0
s(lp622
(g96
I11
tp623
atp624
a(S'consolidare'
p625
(dp626
S'VERB'
p627
F1.0
s(lp628
(g103
I12
tp629
atp630
a(g600
(dp631
S'CONJ'
p632
F1.0
s(lp633
(g110
I13
tp634
atp635
a(S'coordinare'
p636
(dp637
S'VERB'
p638
F1.0
s(lp639
(g117
I14
tp640
atp641
a(S'le'
p642
(dp643
S'PRON'
p644
F0.0
sS'DET'
p645
F1.0
s(lp646
tp647
a(S'soluzioni'
p648
(dp649
S'NOUN'
p650
F1.0
s(lp651
(g137
I17
tp652
atp653
a(S'degli'
p654
(dp655
S'DEF'
p656
F0.001264
sS'ADP'
p657
F0.998736
s(lp658
tp659
a(S'stati'
p660
(dp661
S'VERB'
p662
F0.458507
sS'NOUN'
p663
F0.541493
s(lp664
(g144
I16
tp665
atp666
a(S'membri'
p667
(dp668
S'NOUN'
p669
F1.0
s(lp670
(g152
I15
tp671
atp672
a(g50
(dp673
g50
F1.0
s(lp674
(g50
I18
tp675
atp676
asS'sk'
p677
(lp678
(S'rada'
p679
(dp680
S'NOUN'
p681
F0.448082
sS'ADJ'
p682
F0.551918
s(lp683
(g66
I7
tp684
atp685
a(g31
(dp686
g468
F0.001941
sS'CONJ'
p687
F0.996628
sS'NOUN'
p688
F0.000993
sS'ADP'
p689
F0.000423
sS'PRT'
p690
F1.5e-05
s(lp691
(g73
I8
tp692
atp693
a(S'komisia'
p694
(dp695
S'NOUN'
p696
F1.0
s(lp697
(g89
I10
tp698
atp699
a(S'by'
p700
(dp701
S'PRT'
p702
F0.999859
sg468
F0.000141
s(lp703
tp704
a(S'mali'
p705
(dp706
S'VERB'
p707
F1.0
s(lp708
(g96
I11
tp709
atp710
a(S'po'
p711
(dp712
g468
F0.0035659999999999997
sS'ADP'
p713
F0.996434
s(lp714
(g9
I0
tp715
atp716
a(S'stanoven\xc3\xad'
p717
(dp718
S'VERB'
p719
F0.00311
sS'NOUN'
p720
F0.9968899999999999
s(lp721
(g22
I1
tp722
atp723
a(S'strategick\xc3\xa9ho'
p724
(dp725
S'ADJ'
p726
F1.0
s(lp727
(g45
I3
tp728
atp729
a(S'smeru'
p730
(dp731
S'NOUN'
p732
F1.0
s(lp733
(g38
I4
tp734
atp735
a(S'konsolidova\xc5\xa5'
p736
(dp737
S'VERB'
p738
F1.0
s(lp739
(g103
I12
tp740
atp741
a(g31
(dp742
g468
F0.005982
sS'CONJ'
p743
F0.993146
sS'NOUN'
p744
F0.000238
sS'ADP'
p745
F0.0
sS'PRT'
p746
F0.000633
s(lp747
(g110
I13
tp748
atp749
a(S'koordinova\xc5\xa5'
p750
(dp751
S'VERB'
p752
F1.0
s(lp753
(g117
I14
tp754
atp755
a(S'rie\xc5\xa1enia'
p756
(dp757
S'NOUN'
p758
F1.0
s(lp759
(g137
I17
tp760
atp761
a(S'\xc4\x8dlensk\xc3\xbdch'
p762
(dp763
S'ADJ'
p764
F1.0
s(lp765
(g152
I15
tp766
atp767
a(S'\xc5\xa1t\xc3\xa1tov'
p768
(dp769
S'NOUN'
p770
F1.0
s(lp771
(g144
I16
tp772
atp773
a(g50
(dp774
g50
F1.0
s(lp775
(g50
I18
tp776
atp777
asS'pl'
p778
(lp779
(S'po'
p780
(dp781
g468
F0.0
sS'VERB'
p782
F4.9999999999999996e-06
sS'NOUN'
p783
F0.0
sS'ADP'
p784
F0.999994
s(lp785
(g9
I0
tp786
atp787
a(S'ustanowieniu'
p788
(dp789
S'VERB'
p790
F1.0
s(lp791
(g22
I1
tp792
atp793
a(S'kierunku'
p794
(dp795
S'NOUN'
p796
F1.0
s(lp797
(g38
I4
tp798
atp799
a(S'strategicznego'
p800
(dp801
S'ADJ'
p802
F1.0
s(lp803
(g45
I3
tp804
atp805
a(S'rada'
p806
(dp807
S'ADJ'
p808
F0.004712
sS'NOUN'
p809
F0.995288
s(lp810
(g66
I7
tp811
atp812
a(S'i'
p813
(dp814
S'PRT'
p815
F0.005992
sS'CONJ'
p816
F0.993181
sS'PRON'
p817
F1e-06
sS'NOUN'
p818
F0.000782
sg468
F4.3e-05
s(lp819
(g73
I8
tp820
atp821
a(S'komisja'
p822
(dp823
S'NOUN'
p824
F1.0
s(lp825
(g89
I10
tp826
atp827
a(S'powinny'
p828
(dp829
S'VERB'
p830
F0.9999990000000001
s(lp831
(g96
I11
tp832
atp833
a(S'skonsolidowa\xc4\x87'
p834
(dp835
S'VERB'
p836
F1.0000010000000001
s(lp837
(g103
I12
tp838
atp839
a(S'oraz'
p840
(dp841
S'CONJ'
p842
F1.0
s(lp843
(g110
I13
tp844
atp845
a(S'skoordynowa\xc4\x87'
p846
(dp847
S'VERB'
p848
F1.0
s(lp849
(g117
I14
tp850
atp851
a(S'rozwi\xc4\x85zania'
p852
(dp853
S'VERB'
p854
F0.072062
sS'NOUN'
p855
F0.9279379999999999
s(lp856
(g137
I17
tp857
atp858
a(S'pa\xc5\x84stw'
p859
(dp860
S'NOUN'
p861
F1.0
s(lp862
(g144
I16
tp863
atp864
a(S'cz\xc5\x82onkowskich'
p865
(dp866
S'ADJ'
p867
F1.000001
s(lp868
(g152
I15
tp869
atp870
a(g50
(dp871
g50
F1.0
s(lp872
(g50
I18
tp873
atp874
asS'sl'
p875
(lp876
(S'po'
p877
(dp878
g468
F5e-06
sS'ADP'
p879
F0.999995
s(lp880
(g9
I0
tp881
atp882
a(S'dolo\xc4\x8ditvi'
p883
(dp884
S'NOUN'
p885
F1.0
s(lp886
(g22
I1
tp887
atp888
a(S'strate\xc5\xa1ke'
p889
(dp890
S'ADJ'
p891
F1.0
s(lp892
(g45
I3
tp893
atp894
a(S'usmeritve'
p895
(dp896
S'NOUN'
p897
F0.999999
s(lp898
(g38
I4
tp899
atp900
a(S'bi'
p901
(dp902
g468
F6e-05
sS'VERB'
p903
F0.99994
s(lp904
tp905
a(S'morala'
p906
(dp907
S'VERB'
p908
F0.9987630000000001
sS'NOUN'
p909
F0.001237
s(lp910
(g96
I11
tp911
atp912
a(S'svet'
p913
(dp914
S'NOUN'
p915
F1.0
s(lp916
(g66
I7
tp917
atp918
a(S'in'
p919
(dp920
S'ADV'
p921
F2.6e-05
sg468
F3.5e-05
sS'CONJ'
p922
F0.999893
sS'NOUN'
p923
F4.7e-05
s(lp924
(g73
I8
tp925
atp926
a(S'komisija'
p927
(dp928
S'NOUN'
p929
F1.0
s(lp930
(g89
I10
tp931
atp932
a(S'zdru\xc5\xbeiti'
p933
(dp934
S'VERB'
p935
F1.0
s(lp936
(g103
I12
tp937
atp938
a(S'in'
p939
(dp940
S'ADV'
p941
F0.001904
sg468
F0.000273
sS'CONJ'
p942
F0.997746
sS'NOUN'
p943
F7.7e-05
s(lp944
(g110
I13
tp945
atp946
a(S'usklajevati'
p947
(dp948
S'VERB'
p949
F1.0
s(lp950
(g117
I14
tp951
atp952
a(S're\xc5\xa1itve'
p953
(dp954
S'NOUN'
p955
F1.0
s(lp956
(g137
I17
tp957
atp958
a(S'dr\xc5\xbeav'
p959
(dp960
S'NOUN'
p961
F1.0
s(lp962
(g152
I15
tp963
atp964
a(S'\xc4\x8dlanic'
p965
(dp966
S'NOUN'
p967
F1.0
s(lp968
(g144
I16
tp969
atp970
a(g50
(dp971
g50
F1.0
s(lp972
(g50
I18
tp973
atp974
asS'es'
p975
(lp976
(S'despu\xc3\xa9s'
p977
(dp978
S'CONJ'
p979
F0.976666
sS'ADP'
p980
F0.023334
s(lp981
(g9
I0
tp982
atp983
a(S'de'
p984
(dp985
S'CONJ'
p986
F0.976666
sS'ADP'
p987
F0.023334
s(lp988
tp989
a(S'establecer'
p990
(dp991
S'VERB'
p992
F1.0
s(lp993
(g22
I1
tp994
atp995
a(S'una'
p996
(dp997
S'DET'
p998
F1.0
s(lp999
(g31
I2
tp1000
atp1001
a(S'direcci\xc3\xb3n'
p1002
(dp1003
S'NOUN'
p1004
F1.0
s(lp1005
(g38
I4
tp1006
atp1007
a(S'estrat\xc3\xa9gica'
p1008
(dp1009
S'ADJ'
p1010
F1.0
s(lp1011
(g45
I3
tp1012
atp1013
a(g48
(dp1014
g50
F1.0
s(lp1015
(g48
I5
tp1016
atp1017
a(S'el'
p1018
(dp1019
S'PRON'
p1020
F1e-05
sS'DET'
p1021
F0.99999
s(lp1022
(g59
I6
tp1023
atp1024
a(S'consejo'
p1025
(dp1026
S'NOUN'
p1027
F1.0
s(lp1028
(g66
I7
tp1029
atp1030
a(S'y'
p1031
(dp1032
g468
F0.000396
sS'CONJ'
p1033
F0.999604
s(lp1034
(g73
I8
tp1035
atp1036
a(S'la'
p1037
(dp1038
S'PRON'
p1039
F0.000591
sS'DET'
p1040
F0.999408
sS'NOUN'
p1041
F0.0
sg468
F0.0
s(lp1042
(g82
I9
tp1043
atp1044
a(S'comisi\xc3\xb3n'
p1045
(dp1046
S'NOUN'
p1047
F1.0
s(lp1048
(g89
I10
tp1049
atp1050
a(S'deben'
p1051
(dp1052
S'VERB'
p1053
F1.0
s(lp1054
(g96
I11
tp1055
atp1056
a(S'consolidar'
p1057
(dp1058
S'VERB'
p1059
F1.0
s(lp1060
(g103
I12
tp1061
atp1062
a(g1031
(dp1063
g468
F1.2e-05
sS'CONJ'
p1064
F0.999988
s(lp1065
(g110
I13
tp1066
atp1067
a(S'coordinar'
p1068
(dp1069
S'VERB'
p1070
F1.0
s(lp1071
(g117
I14
tp1072
atp1073
a(S'las'
p1074
(dp1075
S'PRON'
p1076
F2e-06
sS'DET'
p1077
F0.999998
s(lp1078
tp1079
a(S'soluciones'
p1080
(dp1081
S'NOUN'
p1082
F1.0
s(lp1083
(g137
I17
tp1084
atp1085
a(S'de'
p1086
(dp1087
g468
F0.0
sS'CONJ'
p1088
F1.7e-05
sS'ADP'
p1089
F0.999983
s(lp1090
tp1091
a(S'los'
p1092
(dp1093
S'PRON'
p1094
F0.0
sS'DET'
p1095
F1.0
s(lp1096
tp1097
a(S'estados'
p1098
(dp1099
S'NOUN'
p1100
F1.0
s(lp1101
(g144
I16
tp1102
atp1103
a(S'miembros'
p1104
(dp1105
S'NOUN'
p1106
F1.0
s(lp1107
(g152
I15
tp1108
atp1109
a(g50
(dp1110
g50
F1.0
s(lp1111
(g50
I18
tp1112
atp1113
as.