(dp0
S'fr'
p1
(lp2
(S'je'
p3
(dp4
S'PRON'
p5
F1.0
s(lp6
(S'i'
p7
I0
tp8
atp9
a(S'me'
p10
(dp11
S'PRON'
p12
F1.0
s(lp13
(S'am'
p14
I1
tp15
atp16
a(S'r\xc3\xa9jouis'
p17
(dp18
S'VERB'
p19
F1.0
s(lp20
(S'glad'
p21
I2
tp22
atp23
a(S'de'
p24
(dp25
S'ADP'
p26
F1.0
s(lp27
(S'to'
p28
I3
tp29
atp30
a(S'constater'
p31
(dp32
S'VERB'
p33
F1.0
s(lp34
(S'see'
p35
I4
tp36
atp37
a(S'que'
p38
(dp39
S'ADV'
p40
F0.024584
sS'PRON'
p41
F0.025891
sS'CONJ'
p42
F0.949525
s(lp43
(S'that'
p44
I5
tp45
atp46
a(S'le'
p47
(dp48
S'PRON'
p49
F0.000571
sS'DET'
p50
F0.999429
s(lp51
tp52
a(S'parlement'
p53
(dp54
S'NOUN'
p55
F1.0
s(lp56
(S'parliament'
p57
I12
tp58
atp59
a(S'et'
p60
(dp61
S'CONJ'
p62
F1.0
s(lp63
(S'and'
p64
I13
tp65
atp66
a(S'la'
p67
(dp68
S'PRON'
p69
F0.000103
sS'DET'
p70
F0.999897
sS'NOUN'
p71
F0.0
s(lp72
(S'the'
p73
I14
tp74
atp75
a(S'commission'
p76
(dp77
S'NOUN'
p78
F1.0
s(lp79
(S'commission'
p80
I15
tp81
atp82
a(S'sont'
p83
(dp84
S'VERB'
p85
F1.0
s(lp86
(S'expressed'
p87
I23
tp88
atp89
a(S'tous'
p90
(dp91
S'PRON'
p92
F0.999919
sS'NOUN'
p93
F8.1e-05
s(lp94
(S'thaler'
p95
I26
tp96
atp97
a(S'deux'
p98
(dp99
S'NUM'
p100
F0.961041
sS'NOUN'
p101
F0.038959
s(lp102
(g95
I26
tp103
atp104
a(S'convaincus'
p105
(dp106
S'VERB'
p107
F1.0
s(lp108
(g95
I26
tp109
atp110
a(S"qu'"
p111
(dp112
S'NOUN'
p113
F0.281811
sS'VERB'
p114
F0.341831
sS'ADJ'
p115
F0.376359
s(lp116
(S'that'
p117
I16
tp118
atp119
a(S'il'
p120
(dp121
S'PRON'
p122
F1.0
s(lp123
tp124
a(S'faut'
p125
(dp126
S'VERB'
p127
F1.0
s(lp128
(S'should'
p129
I19
tp130
atp131
a(S'entamer'
p132
(dp133
S'VERB'
p134
F1.0
s(lp135
(S'start'
p136
I20
tp137
atp138
a(S'les'
p139
(dp140
S'PRON'
p141
F3.1e-05
sS'DET'
p142
F0.999948
sS'ADP'
p143
F2.1e-05
s(lp144
tp145
a(S'n\xc3\xa9gociations'
p146
(dp147
S'NOUN'
p148
F1.0
s(lp149
(S'negotiations'
p150
I18
tp151
atp152
a(S"d'"
p153
(dp154
S'NOUN'
p155
F0.032441
sS'VERB'
p156
F0.694014
sS'ADJ'
p157
F0.273544
s(lp158
tp159
a(S'adh\xc3\xa9sion'
p160
(dp161
S'NOUN'
p162
F1.0
s(lp163
(S'accession'
p164
I17
tp165
atp166
a(S','
p167
(dp168
S'.'
p169
F1.0
s(lp170
(g167
I21
tp171
atp172
a(S'comme'
p173
(dp174
S'ADV'
p175
F0.633027
sS'CONJ'
p176
F0.366973
s(lp177
(S'as'
p178
I22
tp179
atp180
a(S"l'"
p181
(dp182
S'NOUN'
p183
F0.042016
sS'VERB'
p184
F0.806119
sS'ADJ'
p185
F0.151864
s(lp186
(S'forward-looking'
p187
I30
tp188
atp189
a(S'indique'
p190
(dp191
S'VERB'
p192
F0.806639
sS'ADJ'
p193
F0.193361
s(lp194
tp195
a(S'le'
p196
(dp197
S'PRON'
p198
F0.000148
sS'DET'
p199
F0.999852
s(lp200
(S"'s"
p201
I27
tp202
atp203
a(S'rapport'
p204
(dp205
S'NOUN'
p206
F1.0
s(lp207
(S'report'
p208
I31
tp209
atp210
a(S'constructif'
p211
(dp212
S'ADJ'
p213
F1.0
s(lp214
(S'constructive'
p215
I28
tp216
atp217
a(S'de'
p218
(dp219
S'ADP'
p220
F1.0
s(lp221
(S'in'
p222
I24
tp223
atp224
a(S'm.'
p225
(dp226
S'X'
p227
F0.365595
sS'VERB'
p228
F0.271075
sS'ADJ'
p229
F0.298062
sS'NOUN'
p230
F0.065269
s(lp231
(S'mr'
p232
I25
tp233
atp234
a(S'thaler'
p235
(dp236
S'NOUN'
p237
F1.0
s(lp238
(g95
I26
tp239
atp240
a(g169
(dp241
g169
F1.0
s(lp242
(g169
I32
tp243
atp244
asS'en'
p245
(lp246
(g7
(dp247
g227
F0.000587
sS'NOUN'
p248
F0.9994130000000001
s(lp249
(g7
I0
tp250
atp251
a(g14
(dp252
S'ADV'
p253
F0.010424
sS'VERB'
p254
F0.989576
s(lp255
(g14
I1
tp256
atp257
a(g21
(dp258
S'NOUN'
p259
F0.010479
sS'VERB'
p260
F0.000509
sS'ADJ'
p261
F0.989011
s(lp262
(g21
I2
tp263
atp264
a(g28
(dp265
S'ADV'
p266
F0.0
sS'PRT'
p267
F1.0
sS'ADP'
p268
F0.0
s(lp269
(g28
I3
tp270
atp271
a(g35
(dp272
S'VERB'
p273
F0.999984
sS'NOUN'
p274
F1.6e-05
s(lp275
(g35
I4
tp276
atp277
a(g44
(dp278
S'ADV'
p279
F0.000333
sS'DET'
p280
F0.000644
sS'ADP'
p281
F0.999024
s(lp282
(g44
I5
tp283
atp284
a(S'there'
p285
(dp286
S'ADV'
p287
F0.000109
sS'ADJ'
p288
F0.0
sS'DET'
p289
F0.999891
sS'ADP'
p290
F0.0
s(lp291
(g285
I6
tp292
atp293
a(S'is'
p294
(dp295
S'VERB'
p296
F1.0
s(lp297
(g294
I7
tp298
atp299
a(S'a'
p300
(dp301
S'NOUN'
p302
F0.0
sS'DET'
p303
F1.0
s(lp304
(g300
I8
tp305
atp306
a(S'strong'
p307
(dp308
S'ADV'
p309
F6.2e-05
sS'ADJ'
p310
F0.999938
s(lp311
(g307
I9
tp312
atp313
a(S'consensus'
p314
(dp315
S'NOUN'
p316
F1.0
s(lp317
(g314
I10
tp318
atp319
a(S'between'
p320
(dp321
S'ADV'
p322
F7e-05
sS'ADP'
p323
F0.99993
s(lp324
(g320
I11
tp325
atp326
a(g57
(dp327
S'NOUN'
p328
F1.0
s(lp329
(g57
I12
tp330
atp331
a(g64
(dp332
S'CONJ'
p333
F1.0
sS'NOUN'
p334
F0.0
s(lp335
(g64
I13
tp336
atp337
a(g73
(dp338
S'NOUN'
p339
F2e-06
sS'DET'
p340
F0.999998
s(lp341
(g73
I14
tp342
atp343
a(g80
(dp344
S'VERB'
p345
F0.000137
sS'NOUN'
p346
F0.999863
s(lp347
(g80
I15
tp348
atp349
a(g117
(dp350
S'ADV'
p351
F0.000423
sS'DET'
p352
F0.692166
sS'ADP'
p353
F0.307411
s(lp354
(g117
I16
tp355
atp356
a(g164
(dp357
S'VERB'
p358
F0.063209
sS'NOUN'
p359
F0.936791
s(lp360
(g164
I17
tp361
atp362
a(g150
(dp363
S'NOUN'
p364
F1.0
s(lp365
(g150
I18
tp366
atp367
a(g129
(dp368
S'VERB'
p369
F1.0
s(lp370
(g129
I19
tp371
atp372
a(g136
(dp373
S'VERB'
p374
F0.9996940000000001
sS'NOUN'
p375
F0.000307
s(lp376
(g136
I20
tp377
atp378
a(g167
(dp379
g169
F1.0
s(lp380
(g167
I21
tp381
atp382
a(g178
(dp383
S'ADV'
p384
F0.719354
sS'ADP'
p385
F0.280646
s(lp386
(g178
I22
tp387
atp388
a(g87
(dp389
S'VERB'
p390
F1.0
s(lp391
(g87
I23
tp392
atp393
a(g222
(dp394
S'ADV'
p395
F0.000285
sS'PRT'
p396
F0.003103
sS'ADP'
p397
F0.996612
s(lp398
(g222
I24
tp399
atp400
a(g232
(dp401
S'ADJ'
p402
F0.009221
sS'NOUN'
p403
F0.9907790000000001
s(lp404
(g232
I25
tp405
atp406
a(g95
(dp407
S'NOUN'
p408
F1.0
s(lp409
(g95
I26
tp410
atp411
a(g201
(dp412
S'PRT'
p413
F0.977722
sg169
F0.022278
s(lp414
(g201
I27
tp415
atp416
a(g215
(dp417
S'ADJ'
p418
F1.0
s(lp419
(g215
I28
tp420
atp421
a(S'and'
p422
(dp423
S'CONJ'
p424
F0.999998
sS'NOUN'
p425
F2e-06
s(lp426
(g422
I29
tp427
atp428
a(g187
(dp429
S'ADJ'
p430
F1.0
s(lp431
(g187
I30
tp432
atp433
a(g208
(dp434
S'VERB'
p435
F0.000224
sS'NOUN'
p436
F0.999775
s(lp437
(g208
I31
tp438
atp439
a(g169
(dp440
g169
F1.0
s(lp441
(g169
I32
tp442
atp443
asS'nl'
p444
(lp445
(S'het'
p446
(dp447
S'PRON'
p448
F0.962086
sS'DET'
p449
F0.037914
s(lp450
(g7
I0
tp451
atp452
a(S'verheugt'
p453
(dp454
S'VERB'
p455
F1.0
s(lp456
(g21
I2
tp457
atp458
a(S'mij'
p459
(dp460
S'PRON'
p461
F1.0
s(lp462
(g14
I1
tp463
atp464
a(S'dat'
p465
(dp466
S'PRON'
p467
F0.5203509999999999
sS'CONJ'
p468
F0.479649
s(lp469
(g44
I5
tp470
atp471
a(S'er'
p472
(dp473
S'ADV'
p474
F1.0
s(lp475
(g285
I6
tp476
atp477
a(S'een'
p478
(dp479
S'ADJ'
p480
F1e-06
sS'PRON'
p481
F0.000168
sS'NUM'
p482
F0.0
sS'DET'
p483
F0.999832
s(lp484
(g300
I8
tp485
atp486
a(S'sterke'
p487
(dp488
S'NOUN'
p489
F0.006176
sS'ADJ'
p490
F0.993824
s(lp491
(g307
I9
tp492
atp493
a(S'consensus'
p494
(dp495
S'NOUN'
p496
F1.0
s(lp497
(g314
I10
tp498
atp499
a(S'is'
p500
(dp501
S'VERB'
p502
F1.0
s(lp503
(g294
I7
tp504
atp505
a(S'tussen'
p506
(dp507
S'ADP'
p508
F1.0
s(lp509
(g320
I11
tp510
atp511
a(S'het'
p512
(dp513
S'PRON'
p514
F0.000927
sS'DET'
p515
F0.999073
s(lp516
tp517
a(S'parlement'
p518
(dp519
S'NOUN'
p520
F1.0
s(lp521
(g57
I12
tp522
atp523
a(S'en'
p524
(dp525
S'CONJ'
p526
F1.0
s(lp527
(g64
I13
tp528
atp529
a(S'de'
p530
(dp531
S'DET'
p532
F1.0
s(lp533
(g73
I14
tp534
atp535
a(S'commissie'
p536
(dp537
S'NOUN'
p538
F1.0
s(lp539
(g80
I15
tp540
atp541
a(S'over'
p542
(dp543
S'ADV'
p544
F0.015337
sS'ADP'
p545
F0.984663
s(lp546
tp547
a(S'het'
p548
(dp549
S'PRON'
p550
F0.000941
sS'DET'
p551
F0.99906
s(lp552
tp553
a(S'feit'
p554
(dp555
S'NOUN'
p556
F1.0
s(lp557
(g314
I10
tp558
atp559
a(S'dat'
p560
(dp561
S'PRON'
p562
F0.041986
sS'CONJ'
p563
F0.958014
s(lp564
(g117
I16
tp565
atp566
a(S'de'
p567
(dp568
S'DET'
p569
F1.0
s(lp570
(g150
I18
tp571
atp572
a(S'toetredingsonderhandelingen'
p573
(dp574
S'NOUN'
p575
F1.0
s(lp576
(g164
I17
tp577
atp578
a(S'moeten'
p579
(dp580
S'VERB'
p581
F0.999976
sS'NOUN'
p582
F2.4e-05
s(lp583
(g129
I19
tp584
atp585
a(S'beginnen'
p586
(dp587
S'VERB'
p588
F0.999816
sS'NOUN'
p589
F0.000184
s(lp590
(g136
I20
tp591
atp592
a(g169
(dp593
g169
F1.0
s(lp594
(g167
I21
tp595
atp596
a(S'dit'
p597
(dp598
S'PRON'
p599
F1.0
s(lp600
(g178
I22
tp601
atp602
a(S'komt'
p603
(dp604
S'VERB'
p605
F1.0
s(lp606
(g87
I23
tp607
atp608
a(S'tot'
p609
(dp610
S'CONJ'
p611
F5.5e-05
sS'ADP'
p612
F0.999945
s(lp613
tp614
a(S'uitdrukking'
p615
(dp616
S'NOUN'
p617
F1.0
s(lp618
(g87
I23
tp619
atp620
a(S'in'
p621
(dp622
S'ADV'
p623
F0.002991
sS'VERB'
p624
F3e-06
sS'ADP'
p625
F0.997006
s(lp626
(g222
I24
tp627
atp628
a(S'het'
p629
(dp630
S'PRON'
p631
F0.005195
sS'DET'
p632
F0.994805
s(lp633
tp634
a(S'constructieve'
p635
(dp636
S'NOUN'
p637
F0.130313
sS'ADJ'
p638
F0.869687
s(lp639
(g215
I28
tp640
atp641
a(S'en'
p642
(dp643
S'CONJ'
p644
F1.0
s(lp645
(g422
I29
tp646
atp647
a(S'vooruitziende'
p648
(dp649
S'NOUN'
p650
F0.000112
sS'VERB'
p651
F0.309062
sS'ADJ'
p652
F0.690826
s(lp653
(g187
I30
tp654
atp655
a(S'verslag'
p656
(dp657
S'NOUN'
p658
F1.0
s(lp659
(g208
I31
tp660
atp661
a(S'van'
p662
(dp663
S'ADP'
p664
F1.0
s(lp665
(g201
I27
tp666
atp667
a(S'de'
p668
(dp669
S'DET'
p670
F1.0
s(lp671
tp672
a(S'heer'
p673
(dp674
S'NOUN'
p675
F1.0
s(lp676
(g232
I25
tp677
atp678
a(S'thaler'
p679
(dp680
S'ADJ'
p681
F0.215557
sS'NOUN'
p682
F0.784444
s(lp683
(g95
I26
tp684
atp685
a(g169
(dp686
g169
F1.0
s(lp687
(g169
I32
tp688
atp689
asS'de'
p690
(lp691
(S'ich'
p692
(dp693
S'PRON'
p694
F1.0
s(lp695
(g7
I0
tp696
atp697
a(S'freue'
p698
(dp699
S'VERB'
p700
F1.0
s(lp701
(g14
I1
tp702
atp703
a(S'mich'
p704
(dp705
S'PRON'
p706
F1.0
s(lp707
tp708
a(S'ebenfalls'
p709
(dp710
S'ADV'
p711
F1.0
s(lp712
(g95
I26
tp713
atp714
a(S'\xc3\xbcber'
p715
(dp716
S'PRT'
p717
F6e-05
sS'ADP'
p718
F0.99994
s(lp719
(g21
I2
tp720
atp721
a(S'die'
p722
(dp723
S'PRON'
p724
F0.000218
sS'DET'
p725
F0.999766
s(lp726
(g285
I6
tp727
atp728
a(S'nachhaltige'
p729
(dp730
S'ADJ'
p731
F1.0
s(lp732
(g95
I26
tp733
atp734
a(S'\xc3\x9cbereinstimmung'
p735
(dp736
S'NOUN'
p737
F1.0
s(lp738
(g314
I10
tp739
atp740
a(S'zwischen'
p741
(dp742
S'PRT'
p743
F3e-06
sS'ADP'
p744
F0.999997
s(lp745
(g320
I11
tp746
atp747
a(S'dem'
p748
(dp749
S'PRON'
p750
F0.000151
sS'DET'
p751
F0.999825
s(lp752
tp753
a(S'parlament'
p754
(dp755
S'ADJ'
p756
F0.254172
sS'NOUN'
p757
F0.728968
s(lp758
(g57
I12
tp759
atp760
a(S'und'
p761
(dp762
S'CONJ'
p763
F1.0
s(lp764
(g64
I13
tp765
atp766
a(S'der'
p767
(dp768
S'PRON'
p769
F0.003817
sS'DET'
p770
F0.99262
s(lp771
(g73
I14
tp772
atp773
a(S'kommission'
p774
(dp775
S'ADJ'
p776
F0.030593
sS'NOUN'
p777
F0.953135
s(lp778
(g80
I15
tp779
atp780
a(S'in'
p781
(dp782
S'ADP'
p783
F1.0
s(lp784
tp785
a(S'bezug'
p786
(dp787
S'NOUN'
p788
F1.0
s(lp789
(g95
I26
tp790
atp791
a(S'auf'
p792
(dp793
S'PRT'
p794
F0.00091
sS'ADP'
p795
F0.99908
s(lp796
(g178
I22
tp797
atp798
a(S'die'
p799
(dp800
S'PRON'
p801
F0.000152
sS'DET'
p802
F0.999782
s(lp803
(g201
I27
tp804
atp805
a(S'notwendigkeit'
p806
(dp807
S'ADJ'
p808
F0.012289
sS'NOUN'
p809
F0.971351
s(lp810
(g95
I26
tp811
atp812
a(S'der'
p813
(dp814
S'PRON'
p815
F9e-05
sS'DET'
p816
F0.99984
s(lp817
(g201
I27
tp818
atp819
a(S'aufnahme'
p820
(dp821
S'ADJ'
p822
F0.019117
sS'NOUN'
p823
F0.963275
s(lp824
tp825
a(S'von'
p826
(dp827
S'NOUN'
p828
F0.005795
sS'ADP'
p829
F0.994205
s(lp830
tp831
a(S'beitrittsverhandlungen'
p832
(dp833
S'ADJ'
p834
F0.091673
sS'NOUN'
p835
F0.788236
s(lp836
(g164
I17
tp837
atp838
a(g167
(dp839
g169
F1.0
s(lp840
(g167
I21
tp841
atp842
a(S'die'
p843
(dp844
S'PRON'
p845
F0.969205
sS'DET'
p846
F0.026136
s(lp847
(g201
I27
tp848
atp849
a(S'in'
p850
(dp851
S'ADP'
p852
F1.0
s(lp853
(g222
I24
tp854
atp855
a(S'herrn'
p856
(dp857
S'ADJ'
p858
F0.175908
sS'NOUN'
p859
F0.823722
s(lp860
(g232
I25
tp861
atp862
a(S'thalers'
p863
(dp864
S'ADJ'
p865
F0.026216
sS'NOUN'
p866
F0.933178
s(lp867
(g95
I26
tp868
atp869
a(S'konstruktivem'
p870
(dp871
S'ADJ'
p872
F1.0
s(lp873
(g215
I28
tp874
atp875
a(S'und'
p876
(dp877
S'CONJ'
p878
F1.0
s(lp879
(g422
I29
tp880
atp881
a(S'zukunftsweisendem'
p882
(dp883
S'ADJ'
p884
F1.0
s(lp885
(g187
I30
tp886
atp887
a(S'bericht'
p888
(dp889
S'VERB'
p890
F0.000773
sS'NOUN'
p891
F0.999201
s(lp892
(g208
I31
tp893
atp894
a(S'zum'
p895
(dp896
S'ADP'
p897
F1.0
s(lp898
(g87
I23
tp899
atp900
a(S'ausdruck'
p901
(dp902
S'NOUN'
p903
F0.999849
s(lp904
tp905
a(S'gebracht'
p906
(dp907
S'VERB'
p908
F0.998821
sS'ADJ'
p909
F0.001179
s(lp910
(g87
I23
tp911
atp912
a(S'wird'
p913
(dp914
S'VERB'
p915
F1.0
s(lp916
tp917
a(g169
(dp918
g169
F1.0
s(lp919
(g169
I32
tp920
atp921
asS'it'
p922
(lp923
(S'noto'
p924
(dp925
S'NOUN'
p926
F0.198685
sS'VERB'
p927
F0.00692
sS'ADJ'
p928
F0.794395
s(lp929
(g7
I0
tp930
atp931
a(S'con'
p932
(dp933
S'ADP'
p934
F1.0
s(lp935
(g14
I1
tp936
atp937
a(S'piacere'
p938
(dp939
S'VERB'
p940
F0.979175
sS'NOUN'
p941
F0.020825
s(lp942
(g21
I2
tp943
atp944
a(S'che'
p945
(dp946
S'PRON'
p947
F0.991653
sS'CONJ'
p948
F0.00811
sS'ADJ'
p949
F0.000236
s(lp950
(g44
I5
tp951
atp952
a(S'il'
p953
(dp954
S'DET'
p955
F1.0
s(lp956
tp957
a(S'parlamento'
p958
(dp959
S'VERB'
p960
F0.000115
sS'NOUN'
p961
F0.999885
s(lp962
(g57
I12
tp963
atp964
a(S'e'
p965
(dp966
S'CONJ'
p967
F1.0
s(lp968
(g64
I13
tp969
atp970
a(S'la'
p971
(dp972
S'PRON'
p973
F0.000411
sS'DET'
p974
F0.999589
s(lp975
(g73
I14
tp976
atp977
a(S'commissione'
p978
(dp979
S'NOUN'
p980
F1.0
s(lp981
(g80
I15
tp982
atp983
a(S'concordando'
p984
(dp985
S'VERB'
p986
F1.0
s(lp987
(g95
I26
tp988
atp989
a(S"sull'"
p990
(dp991
S'ADJ'
p992
F0.002437
sS'VERB'
p993
F0.00051
sS'NOUN'
p994
F0.997053
s(lp995
(g95
I26
tp996
atp997
a(S'opportunit\xc3\xa0'
p998
(dp999
S'NOUN'
p1000
F1.0
s(lp1001
(g95
I26
tp1002
atp1003
a(S'di'
p1004
(dp1005
S'CONJ'
p1006
F6e-06
sS'ADP'
p1007
F0.999994
s(lp1008
tp1009
a(S'avviare'
p1010
(dp1011
S'VERB'
p1012
F1.0
s(lp1013
(g136
I20
tp1014
atp1015
a(g7
(dp1016
S'DET'
p1017
F1.0
s(lp1018
tp1019
a(S'negoziati'
p1020
(dp1021
S'ADJ'
p1022
F0.054433
sS'VERB'
p1023
F0.001831
sS'NOUN'
p1024
F0.943735
s(lp1025
(g150
I18
tp1026
atp1027
a(g167
(dp1028
g169
F1.0
s(lp1029
(g167
I21
tp1030
atp1031
a(S'come'
p1032
(dp1033
S'PRON'
p1034
F0.032398
sS'CONJ'
p1035
F0.923737
sS'NOUN'
p1036
F0.000164
sS'ADP'
p1037
F0.043701
s(lp1038
(g178
I22
tp1039
atp1040
a(S'dimostra'
p1041
(dp1042
S'VERB'
p1043
F1.0
s(lp1044
(g95
I26
tp1045
atp1046
a(S'la'
p1047
(dp1048
S'PRON'
p1049
F4e-06
sS'DET'
p1050
F0.999996
s(lp1051
(g201
I27
tp1052
atp1053
a(S'relazione'
p1054
(dp1055
S'NOUN'
p1056
F1.0
s(lp1057
(g208
I31
tp1058
atp1059
a(S'costruttiva'
p1060
(dp1061
S'ADJ'
p1062
F1.0
s(lp1063
(g215
I28
tp1064
atp1065
a(g965
(dp1066
S'CONJ'
p1067
F1.0
s(lp1068
(g422
I29
tp1069
atp1070
a(S'lungimirante'
p1071
(dp1072
S'NOUN'
p1073
F0.012683
sS'ADJ'
p1074
F0.987317
s(lp1075
(g187
I30
tp1076
atp1077
a(S"dell'"
p1078
(dp1079
S'ADJ'
p1080
F0.001281
sS'VERB'
p1081
F0.00019200000000000003
sS'NOUN'
p1082
F0.998528
s(lp1083
(g164
I17
tp1084
atp1085
a(S'onorevole'
p1086
(dp1087
S'ADJ'
p1088
F0.469124
sS'NOUN'
p1089
F0.530876
s(lp1090
tp1091
a(S'thaler'
p1092
(dp1093
S'NOUN'
p1094
F0.246045
sS'VERB'
p1095
F0.000205
sS'ADJ'
p1096
F0.753751
s(lp1097
(g95
I26
tp1098
atp1099
a(g169
(dp1100
g169
F1.0
s(lp1101
(g169
I32
tp1102
atp1103
asS'sk'
p1104
(lp1105
(S'som'
p1106
(dp1107
S'VERB'
p1108
F1.0
s(lp1109
(g7
I0
tp1110
atp1111
a(S'r\xc3\xa1d'
p1112
(dp1113
S'ADV'
p1114
F0.00463
sS'NOUN'
p1115
F0.21924500000000002
sS'ADJ'
p1116
F0.773705
sg227
F0.00242
s(lp1117
(g21
I2
tp1118
atp1119
a(g167
(dp1120
g169
F1.0
s(lp1121
tp1122
a(S'\xc5\xbee'
p1123
(dp1124
g227
F0.0009
sS'CONJ'
p1125
F0.9991
s(lp1126
(g44
I5
tp1127
atp1128
a(S'medzi'
p1129
(dp1130
S'NOUN'
p1131
F0.000752
sS'ADP'
p1132
F0.999248
s(lp1133
(g320
I11
tp1134
atp1135
a(S'parlamentom'
p1136
(dp1137
S'NOUN'
p1138
F1.0
s(lp1139
(g57
I12
tp1140
atp1141
a(g300
(dp1142
g227
F0.0025139999999999997
sS'CONJ'
p1143
F0.996508
sS'NOUN'
p1144
F0.00018500000000000002
sS'ADP'
p1145
F0.000768
sS'PRT'
p1146
F2.7e-05
s(lp1147
(g64
I13
tp1148
atp1149
a(S'komisiou'
p1150
(dp1151
S'NOUN'
p1152
F1.0
s(lp1153
(g80
I15
tp1154
atp1155
a(S'existuje'
p1156
(dp1157
S'VERB'
p1158
F1.0
s(lp1159
(g285
I6
tp1160
atp1161
a(S'vo'
p1162
(dp1163
S'ADP'
p1164
F1.0
s(lp1165
(g222
I24
tp1166
atp1167
a(S'vz\xc5\xa5ahu'
p1168
(dp1169
S'NOUN'
p1170
F1.0
s(lp1171
(g95
I26
tp1172
atp1173
a(S'k'
p1174
(dp1175
g227
F0.000426
sS'NOUN'
p1176
F9.999999999999999e-06
sS'ADP'
p1177
F0.999563
s(lp1178
(g300
I8
tp1179
atp1180
a(S'za\xc4\x8datiu'
p1181
(dp1182
S'NOUN'
p1183
F1.0
s(lp1184
(g95
I26
tp1185
atp1186
a(S'pr\xc3\xadstupov\xc3\xbdch'
p1187
(dp1188
S'ADJ'
p1189
F1.0
s(lp1190
(g164
I17
tp1191
atp1192
a(S'rokovan\xc3\xad'
p1193
(dp1194
S'NOUN'
p1195
F1.0
s(lp1196
(g150
I18
tp1197
atp1198
a(S'siln\xc3\xbd'
p1199
(dp1200
S'ADJ'
p1201
F1.0
s(lp1202
(g307
I9
tp1203
atp1204
a(S'politick\xc3\xbd'
p1205
(dp1206
S'ADJ'
p1207
F1.0
s(lp1208
(g136
I20
tp1209
atp1210
a(S'konsenzus'
p1211
(dp1212
S'NOUN'
p1213
F1.0
s(lp1214
(g314
I10
tp1215
atp1216
a(g167
(dp1217
g169
F1.0
s(lp1218
(g167
I21
tp1219
atp1220
a(S'\xc4\x8do'
p1221
(dp1222
S'PRON'
p1223
F0.742988
sS'CONJ'
p1224
F0.199595
sg227
F0.057417
s(lp1225
(g178
I22
tp1226
atp1227
a(S'vyjadruje'
p1228
(dp1229
S'VERB'
p1230
F1.0
s(lp1231
(g87
I23
tp1232
atp1233
a(S'aj'
p1234
(dp1235
g227
F0.944601
sS'CONJ'
p1236
F0.055399
s(lp1237
tp1238
a(S'kon\xc5\xa1trukt\xc3\xadvna'
p1239
(dp1240
S'ADJ'
p1241
F1.0
s(lp1242
(g215
I28
tp1243
atp1244
a(g300
(dp1245
g227
F0.000636
sS'CONJ'
p1246
F0.997733
sS'NOUN'
p1247
F0.001516
sS'ADP'
p1248
F0.000109
sS'PRT'
p1249
F5e-06
s(lp1250
(g422
I29
tp1251
atp1252
a(S'progres\xc3\xadvna'
p1253
(dp1254
S'ADJ'
p1255
F1.0
s(lp1256
(g187
I30
tp1257
atp1258
a(S'spr\xc3\xa1va'
p1259
(dp1260
S'VERB'
p1261
F0.007694
sS'NOUN'
p1262
F0.992306
s(lp1263
(g208
I31
tp1264
atp1265
a(S'p\xc3\xa1na'
p1266
(dp1267
g227
F0.000248
sS'NOUN'
p1268
F0.999752
s(lp1269
tp1270
a(S'thalera'
p1271
(dp1272
g227
F0.00049
sS'NOUN'
p1273
F0.99951
s(lp1274
(g95
I26
tp1275
atp1276
a(g169
(dp1277
g169
F1.0
s(lp1278
(g169
I32
tp1279
atp1280
asS'pl'
p1281
(lp1282
(S'ciesz\xc4\x99'
p1283
(dp1284
S'VERB'
p1285
F1.0
s(lp1286
tp1287
a(S'si\xc4\x99'
p1288
(dp1289
S'PRT'
p1290
F1.0
s(lp1291
(g21
I2
tp1292
atp1293
a(g167
(dp1294
g227
F0.0
sg169
F1.0
s(lp1295
tp1296
a(S'\xc5\xbce'
p1297
(dp1298
S'PRT'
p1299
F0.000545
sS'CONJ'
p1300
F0.9994550000000001
s(lp1301
(g44
I5
tp1302
atp1303
a(S'mi\xc4\x99dzy'
p1304
(dp1305
S'ADP'
p1306
F1.0
s(lp1307
(g320
I11
tp1308
atp1309
a(S'parlamentem'
p1310
(dp1311
S'NOUN'
p1312
F1.0
s(lp1313
(g57
I12
tp1314
atp1315
a(g300
(dp1316
S'ADV'
p1317
F3.4e-05
sS'NOUN'
p1318
F8.8e-05
sS'ADP'
p1319
F2e-05
sS'PRT'
p1320
F0.00187
sS'VERB'
p1321
F0.0008799999999999999
sg227
F0.000157
sS'CONJ'
p1322
F0.996942
sS'ADJ'
p1323
F1.1000000000000001e-05
s(lp1324
(g64
I13
tp1325
atp1326
a(S'komisj\xc4\x85'
p1327
(dp1328
S'NOUN'
p1329
F1.0
s(lp1330
(g80
I15
tp1331
atp1332
a(S'istnieje'
p1333
(dp1334
S'VERB'
p1335
F1.0
s(lp1336
(g285
I6
tp1337
atp1338
a(S'silna'
p1339
(dp1340
S'ADJ'
p1341
F1.0
s(lp1342
(g307
I9
tp1343
atp1344
a(S'zgodno\xc5\x9b\xc4\x87'
p1345
(dp1346
S'NOUN'
p1347
F1.0
s(lp1348
(g314
I10
tp1349
atp1350
a(S'stanowisk'
p1351
(dp1352
S'NOUN'
p1353
F1.0
s(lp1354
(g95
I26
tp1355
atp1356
a(g167
(dp1357
g227
F0.0
sg169
F1.0
s(lp1358
tp1359
a(S'\xc5\xbce'
p1360
(dp1361
S'PRT'
p1362
F0.001115
sS'CONJ'
p1363
F0.998886
s(lp1364
(g117
I16
tp1365
atp1366
a(S'nale\xc5\xbcy'
p1367
(dp1368
S'VERB'
p1369
F0.941863
sS'ADJ'
p1370
F0.058137
s(lp1371
(g129
I19
tp1372
atp1373
a(S'rozpocz\xc4\x85\xc4\x87'
p1374
(dp1375
S'VERB'
p1376
F1.0
s(lp1377
(g136
I20
tp1378
atp1379
a(S'negocjacje'
p1380
(dp1381
S'NOUN'
p1382
F1.0
s(lp1383
(g150
I18
tp1384
atp1385
a(S'akcesyjne'
p1386
(dp1387
S'ADV'
p1388
F0.000766
sS'NOUN'
p1389
F0.019812000000000003
sS'VERB'
p1390
F0.007252000000000001
sS'ADJ'
p1391
F0.9721710000000002
s(lp1392
(g164
I17
tp1393
atp1394
a(g167
(dp1395
g227
F0.0
sg169
F1.0
s(lp1396
(g167
I21
tp1397
atp1398
a(S'jak'
p1399
(dp1400
S'ADV'
p1401
F0.727061
sS'PRT'
p1402
F0.00403
sS'CONJ'
p1403
F0.253868
sS'ADP'
p1404
F0.015022
sS'PRON'
p1405
F1.8e-05
s(lp1406
(g178
I22
tp1407
atp1408
a(S'wyrazi\xc5\x82'
p1409
(dp1410
S'VERB'
p1411
F1.0
s(lp1412
(g87
I23
tp1413
atp1414
a(S'to'
p1415
(dp1416
S'NOUN'
p1417
F0.280059
sS'ADP'
p1418
F2e-05
sS'PRT'
p1419
F0.493272
sg227
F4e-06
sS'CONJ'
p1420
F0.208788
sS'ADJ'
p1421
F0.017857
s(lp1422
tp1423
a(S'pan'
p1424
(dp1425
g227
F3e-06
sS'NOUN'
p1426
F0.999997
s(lp1427
(g232
I25
tp1428
atp1429
a(S'pose\xc5\x82'
p1430
(dp1431
S'NOUN'
p1432
F0.999999
s(lp1433
(g95
I26
tp1434
atp1435
a(S'thaler'
p1436
(dp1437
S'ADV'
p1438
F0.000522
sS'ADJ'
p1439
F6.3e-05
sS'VERB'
p1440
F0.008523
sS'NOUN'
p1441
F0.9908929999999999
sg227
F0.0
s(lp1442
tp1443
a(S'w'
p1444
(dp1445
g227
F2e-06
sS'ADJ'
p1446
F1.2e-05
sS'ADP'
p1447
F0.999986
sS'NOUN'
p1448
F0.0
s(lp1449
(g201
I27
tp1450
atp1451
a(S'swoim'
p1452
(dp1453
S'NOUN'
p1454
F0.011624
sS'ADJ'
p1455
F0.988376
s(lp1456
(g95
I26
tp1457
atp1458
a(S'konstruktywnym'
p1459
(dp1460
S'ADV'
p1461
F0.000768
sS'NOUN'
p1462
F0.171339
sS'VERB'
p1463
F0.05503599999999999
sS'ADJ'
p1464
F0.7728529999999999
s(lp1465
(g215
I28
tp1466
atp1467
a(g7
(dp1468
S'PRT'
p1469
F0.000649
sS'CONJ'
p1470
F0.999318
sS'NOUN'
p1471
F1.8e-05
sg227
F3e-06
sS'PRON'
p1472
F1.1e-05
s(lp1473
(g422
I29
tp1474
atp1475
a(S'dalekowzrocznym'
p1476
(dp1477
S'ADV'
p1478
F8.7e-05
sS'NOUN'
p1479
F0.0012740000000000002
sS'VERB'
p1480
F0.0010329999999999998
sS'ADJ'
p1481
F0.9976090000000002
s(lp1482
(g187
I30
tp1483
atp1484
a(S'sprawozdaniu'
p1485
(dp1486
S'NOUN'
p1487
F1.0
s(lp1488
(g208
I31
tp1489
atp1490
a(g169
(dp1491
g169
F1.0
s(lp1492
(g169
I32
tp1493
atp1494
asS'sl'
p1495
(lp1496
(S'veseli'
p1497
(dp1498
S'VERB'
p1499
F0.834412
sS'ADJ'
p1500
F0.165588
s(lp1501
tp1502
a(S'me'
p1503
(dp1504
S'PRON'
p1505
F0.9977800000000001
sg227
F0.002221
s(lp1506
(g14
I1
tp1507
atp1508
a(g167
(dp1509
g169
F1.0
s(lp1510
(g21
I2
tp1511
atp1512
a(S'da'
p1513
(dp1514
S'PRT'
p1515
F2.2e-05
sS'CONJ'
p1516
F0.999687
sS'VERB'
p1517
F0.00029
sg227
F1e-06
s(lp1518
(g44
I5
tp1519
atp1520
a(S'parlament'
p1521
(dp1522
S'NOUN'
p1523
F1.0
s(lp1524
(g57
I12
tp1525
atp1526
a(S'in'
p1527
(dp1528
S'ADV'
p1529
F3.1e-05
sg227
F7.9e-05
sS'CONJ'
p1530
F0.999811
sS'NOUN'
p1531
F7.9e-05
s(lp1532
(g64
I13
tp1533
atp1534
a(S'komisija'
p1535
(dp1536
S'NOUN'
p1537
F1.0
s(lp1538
(g80
I15
tp1539
atp1540
a(S'sogla\xc5\xa1ata'
p1541
(dp1542
S'ADV'
p1543
F0.000233
sS'ADJ'
p1544
F0.061035
sS'VERB'
p1545
F0.126538
sS'NOUN'
p1546
F0.8116840000000002
sg227
F0.00051
s(lp1547
(g95
I26
tp1548
atp1549
a(g167
(dp1550
g169
F1.0
s(lp1551
tp1552
a(S'da'
p1553
(dp1554
S'PRT'
p1555
F5e-06
sS'CONJ'
p1556
F0.99997
sS'VERB'
p1557
F2.4e-05
sg227
F1e-06
s(lp1558
(g117
I16
tp1559
atp1560
a(S'se'
p1561
(dp1562
S'PRON'
p1563
F0.999999
sg227
F1e-06
s(lp1564
tp1565
a(S'morajo'
p1566
(dp1567
S'VERB'
p1568
F1.0
s(lp1569
(g129
I19
tp1570
atp1571
a(S'pristopna'
p1572
(dp1573
S'NOUN'
p1574
F3.5e-05
sS'ADJ'
p1575
F0.999965
s(lp1576
(g164
I17
tp1577
atp1578
a(S'pogajanja'
p1579
(dp1580
S'NOUN'
p1581
F1.0
s(lp1582
(g150
I18
tp1583
atp1584
a(S'za\xc4\x8deti'
p1585
(dp1586
S'VERB'
p1587
F0.969624
sS'ADJ'
p1588
F0.030376
s(lp1589
(g136
I20
tp1590
atp1591
a(g167
(dp1592
g169
F1.0
s(lp1593
(g167
I21
tp1594
atp1595
a(S'kot'
p1596
(dp1597
S'CONJ'
p1598
F0.999971
sS'NOUN'
p1599
F2.9e-05
s(lp1600
(g178
I22
tp1601
atp1602
a(S'je'
p1603
(dp1604
S'PRON'
p1605
F0.00014
sS'VERB'
p1606
F0.9998600000000001
sg227
F0.0
s(lp1607
tp1608
a(S'bilo'
p1609
(dp1610
S'VERB'
p1611
F1.0
s(lp1612
(g87
I23
tp1613
atp1614
a(S'odra\xc5\xbeeno'
p1615
(dp1616
S'ADV'
p1617
F0.665602
sS'NOUN'
p1618
F0.030241999999999995
sS'VERB'
p1619
F0.0026420000000000003
sS'ADJ'
p1620
F0.301513
s(lp1621
tp1622
a(S'v'
p1623
(dp1624
S'ADP'
p1625
F1.0
s(lp1626
(g222
I24
tp1627
atp1628
a(S'konstruktivnem'
p1629
(dp1630
S'ADV'
p1631
F0.000112
sS'NOUN'
p1632
F0.032337000000000005
sS'VERB'
p1633
F2.2000000000000003e-05
sS'ADJ'
p1634
F0.9675279999999998
s(lp1635
(g215
I28
tp1636
atp1637
a(S'in'
p1638
(dp1639
S'ADV'
p1640
F4e-06
sg227
F1.1e-05
sS'CONJ'
p1641
F0.999985
sS'NOUN'
p1642
F1e-06
s(lp1643
(g422
I29
tp1644
atp1645
a(S'naprednem'
p1646
(dp1647
S'ADV'
p1648
F4e-06
sS'NOUN'
p1649
F0.00022199999999999998
sS'VERB'
p1650
F0.000783
sS'ADJ'
p1651
F0.998986
s(lp1652
(g187
I30
tp1653
atp1654
a(S'poro\xc4\x8dilu'
p1655
(dp1656
S'NOUN'
p1657
F1.0
s(lp1658
(g208
I31
tp1659
atp1660
a(S'gospoda'
p1661
(dp1662
S'NOUN'
p1663
F0.9999999999999999
s(lp1664
(g232
I25
tp1665
atp1666
a(S'thalerja'
p1667
(dp1668
S'ADV'
p1669
F0.000208
sS'ADJ'
p1670
F0.002159
sS'VERB'
p1671
F0.052767999999999995
sS'NOUN'
p1672
F0.9448680000000002
s(lp1673
(g95
I26
tp1674
atp1675
a(g169
(dp1676
g169
F1.0
s(lp1677
(g169
I32
tp1678
atp1679
asS'es'
p1680
(lp1681
(S'me'
p1682
(dp1683
S'PRON'
p1684
F0.999999
sS'NOUN'
p1685
F1e-06
s(lp1686
(g7
I0
tp1687
atp1688
a(S'alegra'
p1689
(dp1690
S'VERB'
p1691
F1.0
s(lp1692
(g21
I2
tp1693
atp1694
a(S'ver'
p1695
(dp1696
S'VERB'
p1697
F1.0
s(lp1698
(g35
I4
tp1699
atp1700
a(S'que'
p1701
(dp1702
g227
F6e-06
sS'CONJ'
p1703
F0.999994
s(lp1704
(g44
I5
tp1705
atp1706
a(S'hay'
p1707
(dp1708
S'VERB'
p1709
F1.0
s(lp1710
(g285
I6
tp1711
atp1712
a(S'un'
p1713
(dp1714
g227
F3e-06
sS'DET'
p1715
F0.999997
s(lp1716
(g300
I8
tp1717
atp1718
a(S'gran'
p1719
(dp1720
S'ADJ'
p1721
F1.0
s(lp1722
(g307
I9
tp1723
atp1724
a(S'consenso'
p1725
(dp1726
S'NOUN'
p1727
F1.0
s(lp1728
(g314
I10
tp1729
atp1730
a(S'entre'
p1731
(dp1732
g227
F3e-06
sS'ADP'
p1733
F0.999997
s(lp1734
(g320
I11
tp1735
atp1736
a(S'el'
p1737
(dp1738
S'PRON'
p1739
F0.000285
sS'DET'
p1740
F0.999715
s(lp1741
tp1742
a(S'parlamento'
p1743
(dp1744
S'VERB'
p1745
F0.000665
sS'NOUN'
p1746
F0.999335
s(lp1747
(g57
I12
tp1748
atp1749
a(S'y'
p1750
(dp1751
g227
F0.000396
sS'CONJ'
p1752
F0.999604
s(lp1753
(g64
I13
tp1754
atp1755
a(S'la'
p1756
(dp1757
S'PRON'
p1758
F0.000591
sS'DET'
p1759
F0.999408
sS'NOUN'
p1760
F0.0
sg227
F0.0
s(lp1761
(g73
I14
tp1762
atp1763
a(S'comisi\xc3\xb3n'
p1764
(dp1765
S'NOUN'
p1766
F1.0
s(lp1767
(g80
I15
tp1768
atp1769
a(S'respecto'
p1770
(dp1771
S'NOUN'
p1772
F1.0
s(lp1773
tp1774
a(g300
(dp1775
g227
F0.01378
sS'CONJ'
p1776
F0.000883
sS'ADP'
p1777
F0.985337
s(lp1778
tp1779
a(S'que'
p1780
(dp1781
g227
F0.0
sS'CONJ'
p1782
F1.0
s(lp1783
(g117
I16
tp1784
atp1785
a(S'las'
p1786
(dp1787
S'PRON'
p1788
F0.000108
sS'DET'
p1789
F0.999892
s(lp1790
tp1791
a(S'negociaciones'
p1792
(dp1793
S'NOUN'
p1794
F1.0
s(lp1795
(g150
I18
tp1796
atp1797
a(S'de'
p1798
(dp1799
g227
F2.9e-05
sS'CONJ'
p1800
F0.000449
sS'ADP'
p1801
F0.999522
s(lp1802
tp1803
a(S'adhesi\xc3\xb3n'
p1804
(dp1805
S'NOUN'
p1806
F1.0
s(lp1807
(g164
I17
tp1808
atp1809
a(S'deber\xc3\xadan'
p1810
(dp1811
S'VERB'
p1812
F1.0
s(lp1813
(g129
I19
tp1814
atp1815
a(S'comenzar'
p1816
(dp1817
S'VERB'
p1818
F1.0
s(lp1819
(g136
I20
tp1820
atp1821
a(g167
(dp1822
g169
F1.0
s(lp1823
(g167
I21
tp1824
atp1825
a(S'como'
p1826
(dp1827
S'ADV'
p1828
F0.040164
sS'CONJ'
p1829
F0.9598359999999999
s(lp1830
(g178
I22
tp1831
atp1832
a(S'se'
p1833
(dp1834
S'PRON'
p1835
F1.0
sS'VERB'
p1836
F0.0
s(lp1837
tp1838
a(S'ha'
p1839
(dp1840
S'VERB'
p1841
F1.0
s(lp1842
tp1843
a(S'expresado'
p1844
(dp1845
S'VERB'
p1846
F1.0
s(lp1847
(g87
I23
tp1848
atp1849
a(S'en'
p1850
(dp1851
g227
F0.0
sS'CONJ'
p1852
F0.0
sS'ADP'
p1853
F1.0
s(lp1854
(g222
I24
tp1855
atp1856
a(S'el'
p1857
(dp1858
S'PRON'
p1859
F0.000157
sS'DET'
p1860
F0.999843
s(lp1861
tp1862
a(S'constructivo'
p1863
(dp1864
S'ADJ'
p1865
F1.0
s(lp1866
(g215
I28
tp1867
atp1868
a(g1750
(dp1869
g227
F0.000656
sS'CONJ'
p1870
F0.999344
s(lp1871
(g422
I29
tp1872
atp1873
a(S'previsor'
p1874
(dp1875
S'ADJ'
p1876
F1.0
s(lp1877
(g187
I30
tp1878
atp1879
a(S'informe'
p1880
(dp1881
S'VERB'
p1882
F0.020064
sS'NOUN'
p1883
F0.979936
s(lp1884
(g208
I31
tp1885
atp1886
a(S'del'
p1887
(dp1888
S'ADP'
p1889
F1.0
s(lp1890
(g201
I27
tp1891
atp1892
a(S'se\xc3\xb1or'
p1893
(dp1894
S'NOUN'
p1895
F1.0
s(lp1896
(g232
I25
tp1897
atp1898
a(S'thaler'
p1899
(dp1900
S'NOUN'
p1901
F1.0
s(lp1902
(g95
I26
tp1903
atp1904
a(g169
(dp1905
g169
F1.0
s(lp1906
(g169
I32
tp1907
atp1908
as.