(dp0
S'fr'
p1
(lp2
(S'par'
p3
(dp4
S'NOUN'
p5
F5.1e-05
sS'ADP'
p6
F0.999949
s(lp7
tp8
a(S'cons\xc3\xa9quent'
p9
(dp10
S'ADJ'
p11
F1.0
s(lp12
(S'therefore'
p13
I2
tp14
atp15
a(S','
p16
(dp17
S'.'
p18
F1.0
s(lp19
(g16
I3
tp20
atp21
a(S'nous'
p22
(dp23
S'PRON'
p24
F1.0
s(lp25
(S'we'
p26
I0
tp27
atp28
a(S'devons'
p29
(dp30
S'VERB'
p31
F0.999987
sS'NOUN'
p32
F1.3e-05
s(lp33
(S'must'
p34
I1
tp35
atp36
a(S'fixer'
p37
(dp38
S'VERB'
p39
F1.0
s(lp40
(S'set'
p41
I9
tp42
atp43
a(S'un'
p44
(dp45
S'NOUN'
p46
F1.9e-05
sS'NUM'
p47
F0.007963
sS'DET'
p48
F0.992018
s(lp49
(S'a'
p50
I10
tp51
atp52
a(S'calendrier'
p53
(dp54
S'NOUN'
p55
F1.0
s(lp56
(S'timetable'
p57
I11
tp58
atp59
a(S'd\xc3\xa8s'
p60
(dp61
S'ADP'
p62
F1.0
s(lp63
(S'soon'
p64
I5
tp65
atp66
a(S'que'
p67
(dp68
S'ADV'
p69
F0.448261
sS'PRON'
p70
F0.062712
sS'CONJ'
p71
F0.489027
s(lp72
(S'as'
p73
I6
tp74
atp75
a(S'possible'
p76
(dp77
S'NOUN'
p78
F0.018162
sS'ADJ'
p79
F0.981838
s(lp80
(S'possible'
p81
I7
tp82
atp83
a(g16
(dp84
g18
F1.0
s(lp85
(g16
I12
tp86
atp87
a(S'un'
p88
(dp89
S'NOUN'
p90
F6e-05
sS'NUM'
p91
F0.025531
sS'DET'
p92
F0.974409
s(lp93
(g50
I13
tp94
atp95
a(S'agenda'
p96
(dp97
S'NOUN'
p98
F1.0
s(lp99
(S'agenda'
p100
I15
tp101
atp102
a(S'des'
p103
(dp104
S'DET'
p105
F2.1e-05
sS'ADP'
p106
F0.999979
s(lp107
(S'of'
p108
I17
tp109
atp110
a(S'mesures'
p111
(dp112
S'VERB'
p113
F0.0
sS'NOUN'
p114
F1.0
s(lp115
(S'measures'
p116
I19
tp117
atp118
a(S'et'
p119
(dp120
S'CONJ'
p121
F1.0
s(lp122
(S'and'
p123
I20
tp124
atp125
a(S'des'
p126
(dp127
S'DET'
p128
F0.000609
sS'ADP'
p129
F0.999391
s(lp130
tp131
a(S'r\xc3\xa9formes'
p132
(dp133
S'VERB'
p134
F0.0
sS'NOUN'
p135
F1.0
s(lp136
(S'reforms'
p137
I21
tp138
atp139
a(S'qui'
p140
(dp141
S'PRON'
p142
F1.0
s(lp143
(S'that'
p144
I22
tp145
atp146
a(S'doivent'
p147
(dp148
S'VERB'
p149
F1.0
s(lp150
(S'should'
p151
I23
tp152
atp153
a(S'mener'
p154
(dp155
S'VERB'
p156
F1.0
s(lp157
(S'lead'
p158
I24
tp159
atp160
a(S'aux'
p161
(dp162
S'ADP'
p163
F1.0
s(lp164
(S'the'
p165
I26
tp166
atp167
a(S'premi\xc3\xa8res'
p168
(dp169
S'NUM'
p170
F0.999846
sS'NOUN'
p171
F0.000154
s(lp172
(S'first'
p173
I27
tp174
atp175
a(S'\xc3\xa9lections'
p176
(dp177
S'NOUN'
p178
F1.0
s(lp179
(S'elections'
p180
I31
tp181
atp182
a(S'libres'
p183
(dp184
S'ADJ'
p185
F1.0
s(lp186
(S'free'
p187
I28
tp188
atp189
a(S'et'
p190
(dp191
S'CONJ'
p192
F1.0
s(lp193
(S'and'
p194
I29
tp195
atp196
a(S'transparentes'
p197
(dp198
S'ADJ'
p199
F1.0
s(lp200
(S'transparent'
p201
I30
tp202
atp203
a(S'en'
p204
(dp205
S'PRON'
p206
F0.000275
sS'ADP'
p207
F0.999725
s(lp208
(S'in'
p209
I32
tp210
atp211
a(S'septembre'
p212
(dp213
S'NOUN'
p214
F1.0
s(lp215
(S'september'
p216
I33
tp217
atp218
a(S'de'
p219
(dp220
S'ADP'
p221
F1.0
s(lp222
(S'of'
p223
I34
tp224
atp225
a(S'cette'
p226
(dp227
S'PRON'
p228
F1.0
s(lp229
(S'this'
p230
I35
tp231
atp232
a(S'ann\xc3\xa9e'
p233
(dp234
S'NOUN'
p235
F1.0
s(lp236
(S'year'
p237
I36
tp238
atp239
a(g18
(dp240
g18
F1.0
s(lp241
(g18
I37
tp242
atp243
asS'en'
p244
(lp245
(g26
(dp246
S'PRON'
p247
F1.0
s(lp248
(g26
I0
tp249
atp250
a(g34
(dp251
S'VERB'
p252
F1.0
sS'NOUN'
p253
F0.0
s(lp254
(g34
I1
tp255
atp256
a(g13
(dp257
S'ADV'
p258
F1.0
s(lp259
(g13
I2
tp260
atp261
a(g16
(dp262
g18
F1.0
s(lp263
(g16
I3
tp264
atp265
a(S'as'
p266
(dp267
S'ADV'
p268
F0.629097
sS'ADP'
p269
F0.370903
s(lp270
(g266
I4
tp271
atp272
a(g64
(dp273
S'ADV'
p274
F1.0
s(lp275
(g64
I5
tp276
atp277
a(g73
(dp278
S'ADV'
p279
F0.262865
sS'ADP'
p280
F0.737135
s(lp281
(g73
I6
tp282
atp283
a(g81
(dp284
S'ADV'
p285
F0.033222
sS'NOUN'
p286
F0.002243
sS'ADJ'
p287
F0.964535
s(lp288
(g81
I7
tp289
atp290
a(g16
(dp291
g18
F1.0
s(lp292
(g16
I8
tp293
atp294
a(g41
(dp295
S'ADJ'
p296
F7.7e-05
sS'VERB'
p297
F0.9981160000000001
sS'NOUN'
p298
F0.001808
s(lp299
(g41
I9
tp300
atp301
a(g50
(dp302
S'NOUN'
p303
F0.0
sS'DET'
p304
F1.0
s(lp305
(g50
I10
tp306
atp307
a(g57
(dp308
S'NOUN'
p309
F1.0
s(lp310
(g57
I11
tp311
atp312
a(g16
(dp313
g18
F1.0
s(lp314
(g16
I12
tp315
atp316
a(g50
(dp317
S'NOUN'
p318
F0.0
sS'DET'
p319
F1.0
s(lp320
(g50
I13
tp321
atp322
a(S'clear'
p323
(dp324
S'VERB'
p325
F0.000116
sS'ADJ'
p326
F0.999884
s(lp327
(g323
I14
tp328
atp329
a(g100
(dp330
S'NOUN'
p331
F1.0
s(lp332
(g100
I15
tp333
atp334
a(g16
(dp335
g18
F1.0
s(lp336
(g16
I16
tp337
atp338
a(g108
(dp339
S'ADP'
p340
F1.0
s(lp341
(g108
I17
tp342
atp343
a(S'the'
p344
(dp345
S'NOUN'
p346
F1.1e-05
sS'DET'
p347
F0.999989
s(lp348
(g344
I18
tp349
atp350
a(g116
(dp351
S'VERB'
p352
F0.001423
sS'NOUN'
p353
F0.998577
s(lp354
(g116
I19
tp355
atp356
a(g123
(dp357
S'CONJ'
p358
F0.999997
sS'NOUN'
p359
F3e-06
s(lp360
(g123
I20
tp361
atp362
a(g137
(dp363
S'VERB'
p364
F0.000283
sS'NOUN'
p365
F0.999717
s(lp366
(g137
I21
tp367
atp368
a(g144
(dp369
S'ADV'
p370
F0.000154
sS'DET'
p371
F0.9872989999999999
sS'ADP'
p372
F0.012547
s(lp373
(g144
I22
tp374
atp375
a(g151
(dp376
S'VERB'
p377
F1.0
s(lp378
(g151
I23
tp379
atp380
a(g158
(dp381
S'ADJ'
p382
F2e-05
sS'VERB'
p383
F0.9999279999999999
sS'NOUN'
p384
F5.3e-05
s(lp385
(g158
I24
tp386
atp387
a(S'to'
p388
(dp389
S'ADV'
p390
F1e-06
sS'PRT'
p391
F0.999996
sS'ADP'
p392
F3e-06
s(lp393
(g388
I25
tp394
atp395
a(g165
(dp396
S'NOUN'
p397
F1e-06
sS'DET'
p398
F0.999999
s(lp399
(g165
I26
tp400
atp401
a(g173
(dp402
S'ADV'
p403
F0.013272
sS'NOUN'
p404
F0.000187
sS'ADJ'
p405
F0.98654
s(lp406
(g173
I27
tp407
atp408
a(g187
(dp409
S'ADV'
p410
F0.0015
sS'NOUN'
p411
F0.026419
sS'VERB'
p412
F0.00029
sS'ADJ'
p413
F0.971792
s(lp414
(g187
I28
tp415
atp416
a(g194
(dp417
S'CONJ'
p418
F0.999998
sS'NOUN'
p419
F2e-06
s(lp420
(g194
I29
tp421
atp422
a(g201
(dp423
S'ADJ'
p424
F1.0
s(lp425
(g201
I30
tp426
atp427
a(g180
(dp428
S'NOUN'
p429
F1.0
s(lp430
(g180
I31
tp431
atp432
a(g209
(dp433
S'ADV'
p434
F0.00018
sS'PRT'
p435
F0.000164
sS'ADP'
p436
F0.999656
s(lp437
(g209
I32
tp438
atp439
a(g216
(dp440
S'ADJ'
p441
F0.028487
sS'NOUN'
p442
F0.971513
s(lp443
(g216
I33
tp444
atp445
a(g223
(dp446
S'ADP'
p447
F1.0
s(lp448
(g223
I34
tp449
atp450
a(g230
(dp451
S'ADV'
p452
F3e-06
sS'NOUN'
p453
F1.9e-05
sS'DET'
p454
F0.999978
s(lp455
(g230
I35
tp456
atp457
a(g237
(dp458
S'NOUN'
p459
F1.0
s(lp460
(g237
I36
tp461
atp462
a(g18
(dp463
g18
F1.0
s(lp464
(g18
I37
tp465
atp466
asS'nl'
p467
(lp468
(S'er'
p469
(dp470
S'ADV'
p471
F1.0
s(lp472
(g26
I0
tp473
atp474
a(S'moet'
p475
(dp476
S'VERB'
p477
F1.0
s(lp478
(g34
I1
tp479
atp480
a(S'dus'
p481
(dp482
S'ADV'
p483
F0.998345
sS'CONJ'
p484
F0.001655
s(lp485
(g13
I2
tp486
atp487
a(S'zo'
p488
(dp489
S'ADV'
p490
F0.999993
sS'X'
p491
F0.0
sS'CONJ'
p492
F6e-06
s(lp493
(g266
I4
tp494
atp495
a(S'snel'
p496
(dp497
S'VERB'
p498
F0.116353
sS'ADJ'
p499
F0.883647
s(lp500
(g64
I5
tp501
atp502
a(S'mogelijk'
p503
(dp504
S'ADJ'
p505
F1.0
s(lp506
(g81
I7
tp507
atp508
a(S'een'
p509
(dp510
S'ADJ'
p511
F0.000122
sS'NUM'
p512
F0.0
sS'DET'
p513
F0.999878
sS'PRON'
p514
F0.0
s(lp515
(g50
I10
tp516
atp517
a(S'kalender'
p518
(dp519
S'NOUN'
p520
F1.0
s(lp521
(g57
I11
tp522
atp523
a(g16
(dp524
g18
F1.0
s(lp525
(g16
I12
tp526
atp527
a(S'een'
p528
(dp529
S'ADJ'
p530
F2e-06
sS'PRON'
p531
F0.002272
sS'NUM'
p532
F1e-06
sS'DET'
p533
F0.997725
s(lp534
(g50
I13
tp535
atp536
a(S'duidelijke'
p537
(dp538
S'NOUN'
p539
F0.0002
sS'ADJ'
p540
F0.9998
s(lp541
(g323
I14
tp542
atp543
a(S'agenda'
p544
(dp545
S'NOUN'
p546
F1.0
s(lp547
(g100
I15
tp548
atp549
a(S'worden'
p550
(dp551
S'VERB'
p552
F1.0
sS'NOUN'
p553
F0.0
s(lp554
tp555
a(S'opgesteld'
p556
(dp557
S'VERB'
p558
F1.0
s(lp559
(g41
I9
tp560
atp561
a(S'van'
p562
(dp563
S'ADP'
p564
F1.0
s(lp565
(g108
I17
tp566
atp567
a(S'maatregelen'
p568
(dp569
S'NOUN'
p570
F1.0
s(lp571
(g116
I19
tp572
atp573
a(S'en'
p574
(dp575
S'CONJ'
p576
F1.0
s(lp577
(g123
I20
tp578
atp579
a(S'hervormingen'
p580
(dp581
S'NOUN'
p582
F1.0
s(lp583
(g137
I21
tp584
atp585
a(S'die'
p586
(dp587
S'PRON'
p588
F1.0
s(lp589
(g144
I22
tp590
atp591
a(S'moeten'
p592
(dp593
S'VERB'
p594
F0.999917
sS'NOUN'
p595
F8.3e-05
s(lp596
(g151
I23
tp597
atp598
a(S'leiden'
p599
(dp600
S'VERB'
p601
F0.99975
sS'NOUN'
p602
F0.00025
s(lp603
tp604
a(S'tot'
p605
(dp606
S'CONJ'
p607
F0.000204
sS'ADP'
p608
F0.999796
s(lp609
(g158
I24
tp610
atp611
a(S'de'
p612
(dp613
S'DET'
p614
F1.0
s(lp615
(g165
I26
tp616
atp617
a(S'eerste'
p618
(dp619
S'NUM'
p620
F0.999724
sS'NOUN'
p621
F0.000276
s(lp622
tp623
a(S'vrije'
p624
(dp625
S'NOUN'
p626
F0.004024
sS'ADJ'
p627
F0.995976
s(lp628
(g187
I28
tp629
atp630
a(S'en'
p631
(dp632
S'CONJ'
p633
F1.0
s(lp634
(g194
I29
tp635
atp636
a(S'de'
p637
(dp638
S'DET'
p639
F1.0
s(lp640
tp641
a(S'eerste'
p642
(dp643
S'NUM'
p644
F0.999723
sS'NOUN'
p645
F0.000277
s(lp646
(g173
I27
tp647
atp648
a(S'transparante'
p649
(dp650
S'NOUN'
p651
F0.001142
sS'ADJ'
p652
F0.998858
s(lp653
(g201
I30
tp654
atp655
a(S'verkiezingen'
p656
(dp657
S'NOUN'
p658
F1.0
s(lp659
(g180
I31
tp660
atp661
a(S'in'
p662
(dp663
S'ADV'
p664
F3e-06
sS'VERB'
p665
F0.0
sS'ADP'
p666
F0.999997
s(lp667
(g209
I32
tp668
atp669
a(S'september'
p670
(dp671
S'NOUN'
p672
F1.0
s(lp673
(g216
I33
tp674
atp675
a(S'dit'
p676
(dp677
S'PRON'
p678
F1.0
s(lp679
(g230
I35
tp680
atp681
a(S'jaar'
p682
(dp683
S'NOUN'
p684
F1.0
s(lp685
(g237
I36
tp686
atp687
a(g18
(dp688
g18
F1.0
s(lp689
(g18
I37
tp690
atp691
asS'de'
p692
(lp693
(S'wir'
p694
(dp695
S'PRON'
p696
F1.0
s(lp697
(g26
I0
tp698
atp699
a(S'm\xc3\xbcssen'
p700
(dp701
S'VERB'
p702
F0.999252
s(lp703
(g34
I1
tp704
atp705
a(S'daher'
p706
(dp707
S'ADV'
p708
F0.9999990000000001
s(lp709
(g13
I2
tp710
atp711
a(S'baldm\xc3\xb6glichst'
p712
(dp713
S'ADV'
p714
F1.0
s(lp715
(g64
I5
tp716
atp717
a(S'einen'
p718
(dp719
S'PRON'
p720
F0.0083
sS'DET'
p721
F0.981598
s(lp722
(g50
I10
tp723
atp724
a(S'zeitplan'
p725
(dp726
S'ADJ'
p727
F0.142664
sS'NOUN'
p728
F0.81611
s(lp729
(g57
I11
tp730
atp731
a(g16
(dp732
g18
F1.0
s(lp733
(g16
I12
tp734
atp735
a(S'eine'
p736
(dp737
S'PRON'
p738
F0.003046
sS'DET'
p739
F0.996859
s(lp740
(g50
I13
tp741
atp742
a(S'klare'
p743
(dp744
S'VERB'
p745
F0.000214
sS'ADJ'
p746
F0.999786
s(lp747
(g323
I14
tp748
atp749
a(S'agenda'
p750
(dp751
S'VERB'
p752
F1.8e-05
sS'NOUN'
p753
F0.999953
s(lp754
(g100
I15
tp755
atp756
a(S'\xc3\xbcber'
p757
(dp758
S'PRT'
p759
F0.000487
sS'ADP'
p760
F0.999513
s(lp761
(g108
I17
tp762
atp763
a(S'die'
p764
(dp765
S'PRON'
p766
F0.505116
sS'DET'
p767
F0.488905
s(lp768
(g344
I18
tp769
atp770
a(S'ma\xc3\x9fnahmen'
p771
(dp772
S'VERB'
p773
F1.0
s(lp774
(g116
I19
tp775
atp776
a(S'und'
p777
(dp778
S'CONJ'
p779
F1.0
s(lp780
(g123
I20
tp781
atp782
a(S'reformen'
p783
(dp784
S'NOUN'
p785
F0.351381
sS'ADJ'
p786
F0.425838
s(lp787
(g137
I21
tp788
atp789
a(S'erstellen'
p790
(dp791
S'VERB'
p792
F1.0
s(lp793
(g151
I23
tp794
atp795
a(g16
(dp796
g18
F1.0
s(lp797
(g16
I3
tp798
atp799
a(S'als'
p800
(dp801
S'CONJ'
p802
F0.995231
s(lp803
(g266
I4
tp804
atp805
a(S'wegbereiter'
p806
(dp807
S'ADJ'
p808
F0.025538
sS'NOUN'
p809
F0.971752
s(lp810
(g158
I24
tp811
atp812
a(S'f\xc3\xbcr'
p813
(dp814
S'ADP'
p815
F1.0
s(lp816
(g388
I25
tp817
atp818
a(S'die'
p819
(dp820
S'PRON'
p821
F0.000218
sS'DET'
p822
F0.999767
s(lp823
(g165
I26
tp824
atp825
a(S'ersten'
p826
(dp827
S'ADJ'
p828
F1.0
s(lp829
(g173
I27
tp830
atp831
a(S'freien'
p832
(dp833
S'VERB'
p834
F0.003652
sS'ADJ'
p835
F0.995622
s(lp836
(g187
I28
tp837
atp838
a(S'und'
p839
(dp840
S'CONJ'
p841
F1.0
s(lp842
(g194
I29
tp843
atp844
a(S'transparenten'
p845
(dp846
S'ADJ'
p847
F1.0
s(lp848
(g201
I30
tp849
atp850
a(S'wahlen'
p851
(dp852
S'ADJ'
p853
F0.002556
sS'NOUN'
p854
F0.995444
s(lp855
(g180
I31
tp856
atp857
a(S'im'
p858
(dp859
S'ADP'
p860
F1.0
s(lp861
(g209
I32
tp862
atp863
a(S'september'
p864
(dp865
S'ADJ'
p866
F0.144053
sS'NOUN'
p867
F0.751321
s(lp868
(g216
I33
tp869
atp870
a(S'dieses'
p871
(dp872
S'PRON'
p873
F1.0
s(lp874
(g230
I35
tp875
atp876
a(S'jahres'
p877
(dp878
S'ADJ'
p879
F0.000422
sS'NOUN'
p880
F0.999282
s(lp881
(g237
I36
tp882
atp883
a(g18
(dp884
g18
F1.0
s(lp885
(g18
I37
tp886
atp887
asS'it'
p888
(lp889
(S'dobbiamo'
p890
(dp891
S'VERB'
p892
F0.9999999999999999
s(lp893
(g34
I1
tp894
atp895
a(S'pertanto'
p896
(dp897
S'ADV'
p898
F1.0
s(lp899
(g13
I2
tp900
atp901
a(S'stabilire'
p902
(dp903
S'VERB'
p904
F1.0
s(lp905
(g41
I9
tp906
atp907
a(S'il'
p908
(dp909
S'DET'
p910
F1.0
s(lp911
(g266
I4
tp912
atp913
a(S'prima'
p914
(dp915
S'ADV'
p916
F0.201546
sS'NOUN'
p917
F0.115953
sS'CONJ'
p918
F0.008113
sS'ADJ'
p919
F0.67434
sS'ADP'
p920
F4.7e-05
s(lp921
(g64
I5
tp922
atp923
a(S'possibile'
p924
(dp925
S'NOUN'
p926
F0.044841
sS'ADJ'
p927
F0.955159
s(lp928
(g81
I7
tp929
atp930
a(S'un'
p931
(dp932
S'PRON'
p933
F0.018518
sS'DEF'
p934
F0.981482
s(lp935
(g50
I10
tp936
atp937
a(S'calendario'
p938
(dp939
S'NOUN'
p940
F1.0
s(lp941
(g57
I11
tp942
atp943
a(g16
(dp944
g18
F1.0
s(lp945
(g16
I12
tp946
atp947
a(S"un'"
p948
(dp949
S'PRON'
p950
F0.018515
sS'DEF'
p951
F0.981485
s(lp952
(g50
I13
tp953
atp954
a(S'agenda'
p955
(dp956
S'NOUN'
p957
F1.0
s(lp958
(g100
I15
tp959
atp960
a(S'chiara'
p961
(dp962
S'NOUN'
p963
F0.04087
sS'ADJ'
p964
F0.95913
s(lp965
(g323
I14
tp966
atp967
a(S'delle'
p968
(dp969
S'DEF'
p970
F0.001767
sS'ADP'
p971
F0.998233
s(lp972
(g108
I17
tp973
atp974
a(S'misure'
p975
(dp976
S'NOUN'
p977
F1.0
s(lp978
(g116
I19
tp979
atp980
a(S'e'
p981
(dp982
S'CONJ'
p983
F1.0
s(lp984
(g123
I20
tp985
atp986
a(S'riforme'
p987
(dp988
S'NOUN'
p989
F1.0
s(lp990
(g137
I21
tp991
atp992
a(S'che'
p993
(dp994
S'PRON'
p995
F0.977201
sS'CONJ'
p996
F0.022682
sS'ADJ'
p997
F0.000117
s(lp998
(g144
I22
tp999
atp1000
a(S'dovrebbero'
p1001
(dp1002
S'VERB'
p1003
F1.0
s(lp1004
(g151
I23
tp1005
atp1006
a(S'condurre'
p1007
(dp1008
S'VERB'
p1009
F1.0
s(lp1010
(g158
I24
tp1011
atp1012
a(S'alle'
p1013
(dp1014
S'ADP'
p1015
F1.0
s(lp1016
(g388
I25
tp1017
atp1018
a(S'prime'
p1019
(dp1020
S'NOUN'
p1021
F0.020136
sS'ADJ'
p1022
F0.979864
s(lp1023
(g173
I27
tp1024
atp1025
a(S'elezioni'
p1026
(dp1027
S'NOUN'
p1028
F1.0
s(lp1029
(g180
I31
tp1030
atp1031
a(S'libere'
p1032
(dp1033
S'ADJ'
p1034
F1.0
s(lp1035
(g187
I28
tp1036
atp1037
a(g981
(dp1038
S'CONJ'
p1039
F1.0
s(lp1040
(g194
I29
tp1041
atp1042
a(S'trasparenti'
p1043
(dp1044
S'NOUN'
p1045
F0.127661
sS'VERB'
p1046
F0.017293
sS'ADJ'
p1047
F0.855045
s(lp1048
(g201
I30
tp1049
atp1050
a(S'nel'
p1051
(dp1052
S'ADP'
p1053
F1.0
s(lp1054
(g209
I32
tp1055
atp1056
a(S'settembre'
p1057
(dp1058
S'NOUN'
p1059
F1.0
s(lp1060
(g216
I33
tp1061
atp1062
a(S'di'
p1063
(dp1064
S'CONJ'
p1065
F5e-06
sS'ADP'
p1066
F0.999995
s(lp1067
(g223
I34
tp1068
atp1069
a(S"quest'"
p1070
(dp1071
S'ADJ'
p1072
F0.018253
sS'VERB'
p1073
F0.018786
sS'NOUN'
p1074
F0.96296
s(lp1075
(g230
I35
tp1076
atp1077
a(S'anno'
p1078
(dp1079
S'NOUN'
p1080
F1.0
s(lp1081
(g237
I36
tp1082
atp1083
a(g18
(dp1084
g18
F1.0
s(lp1085
(g18
I37
tp1086
atp1087
asS'sk'
p1088
(lp1089
(S'preto'
p1090
(dp1091
S'PRON'
p1092
F0.893955
sS'CONJ'
p1093
F0.096114
sg491
F0.009931
s(lp1094
(g13
I2
tp1095
atp1096
a(S'mus\xc3\xadme'
p1097
(dp1098
S'VERB'
p1099
F1.0
s(lp1100
(g34
I1
tp1101
atp1102
a(S'\xc4\x8do'
p1103
(dp1104
S'PRON'
p1105
F0.660108
sS'CONJ'
p1106
F0.077835
sg491
F0.26205700000000004
s(lp1107
(g266
I4
tp1108
atp1109
a(S'najsk\xc3\xb4r'
p1110
(dp1111
S'ADV'
p1112
F0.9667270000000001
sg491
F0.033273
s(lp1113
(g64
I5
tp1114
atp1115
a(S'vypracova\xc5\xa5'
p1116
(dp1117
S'VERB'
p1118
F1.0
s(lp1119
tp1120
a(S'harmonogram'
p1121
(dp1122
S'NOUN'
p1123
F1.0
s(lp1124
(g57
I11
tp1125
atp1126
a(g16
(dp1127
g18
F1.0
s(lp1128
(g16
I12
tp1129
atp1130
a(S'jasn\xc3\xbd'
p1131
(dp1132
S'ADJ'
p1133
F1.0
s(lp1134
(g323
I14
tp1135
atp1136
a(S'program'
p1137
(dp1138
S'NOUN'
p1139
F1.0
s(lp1140
(g100
I15
tp1141
atp1142
a(S'opatren\xc3\xad'
p1143
(dp1144
S'NOUN'
p1145
F1.0
s(lp1146
(g116
I19
tp1147
atp1148
a(g50
(dp1149
g491
F0.000749
sS'CONJ'
p1150
F0.998639
sS'NOUN'
p1151
F6.1e-05
sS'ADP'
p1152
F0.000488
sS'PRT'
p1153
F6.3e-05
s(lp1154
(g123
I20
tp1155
atp1156
a(S'reforiem'
p1157
(dp1158
S'NOUN'
p1159
F1.0
s(lp1160
(g137
I21
tp1161
atp1162
a(g16
(dp1163
g18
F1.0
s(lp1164
tp1165
a(S'ktor\xc3\xa9'
p1166
(dp1167
S'PRON'
p1168
F1.0
s(lp1169
(g144
I22
tp1170
atp1171
a(S'by'
p1172
(dp1173
S'PRT'
p1174
F0.999993
sg491
F7e-06
s(lp1175
tp1176
a(S'mali'
p1177
(dp1178
S'VERB'
p1179
F0.9999999999999999
s(lp1180
(g151
I23
tp1181
atp1182
a(S'vies\xc5\xa5'
p1183
(dp1184
S'VERB'
p1185
F1.0
s(lp1186
tp1187
a(S'k'
p1188
(dp1189
g491
F9.000000000000002e-06
sS'NOUN'
p1190
F1e-06
sS'ADP'
p1191
F0.99999
s(lp1192
(g158
I24
tp1193
atp1194
a(S'prv\xc3\xbdm'
p1195
(dp1196
S'NUM'
p1197
F1.0
s(lp1198
(g173
I27
tp1199
atp1200
a(S'slobodn\xc3\xbdm'
p1201
(dp1202
S'ADJ'
p1203
F1.0
s(lp1204
(g187
I28
tp1205
atp1206
a(g50
(dp1207
g491
F0.00076
sS'CONJ'
p1208
F0.99735
sS'NOUN'
p1209
F0.001749
sS'ADP'
p1210
F0.000126
sS'PRT'
p1211
F1.5e-05
s(lp1212
(g194
I29
tp1213
atp1214
a(S'transparentn\xc3\xbdm'
p1215
(dp1216
S'ADJ'
p1217
F1.0
s(lp1218
(g201
I30
tp1219
atp1220
a(S'vo\xc4\xbeb\xc3\xa1m'
p1221
(dp1222
S'NOUN'
p1223
F1.0
s(lp1224
(g180
I31
tp1225
atp1226
a(S'v'
p1227
(dp1228
g491
F0.000112
sS'ADP'
p1229
F0.999888
s(lp1230
(g209
I32
tp1231
atp1232
a(S'septembri'
p1233
(dp1234
S'NOUN'
p1235
F1.0
s(lp1236
(g216
I33
tp1237
atp1238
a(S'tohto'
p1239
(dp1240
S'PRON'
p1241
F0.999618
sg491
F0.000382
s(lp1242
(g230
I35
tp1243
atp1244
a(S'roku'
p1245
(dp1246
S'NOUN'
p1247
F1.0
s(lp1248
(g237
I36
tp1249
atp1250
a(g18
(dp1251
g18
F1.0
s(lp1252
(g18
I37
tp1253
atp1254
asS'pl'
p1255
(lp1256
(S'dlatego'
p1257
(dp1258
S'ADV'
p1259
F1.0
s(lp1260
(g13
I2
tp1261
atp1262
a(S'mo\xc5\xbcliwie'
p1263
(dp1264
S'ADV'
p1265
F1.0
s(lp1266
(g81
I7
tp1267
atp1268
a(S'jak'
p1269
(dp1270
S'ADV'
p1271
F0.884294
sS'PRT'
p1272
F0.000209
sS'CONJ'
p1273
F0.045575000000000004
sS'ADP'
p1274
F0.069919
sS'PRON'
p1275
F3e-06
s(lp1276
(g266
I4
tp1277
atp1278
a(S'najszybciej'
p1279
(dp1280
S'ADV'
p1281
F1.0
s(lp1282
(g64
I5
tp1283
atp1284
a(S'musimy'
p1285
(dp1286
S'VERB'
p1287
F1.0
s(lp1288
(g34
I1
tp1289
atp1290
a(S'okre\xc5\x9bli\xc4\x87'
p1291
(dp1292
S'VERB'
p1293
F1.0
s(lp1294
(g41
I9
tp1295
atp1296
a(S'harmonogram'
p1297
(dp1298
S'NOUN'
p1299
F1.0
s(lp1300
(g57
I11
tp1301
atp1302
a(g16
(dp1303
g491
F0.0
sg18
F1.0
s(lp1304
(g16
I12
tp1305
atp1306
a(S'jasny'
p1307
(dp1308
S'ADJ'
p1309
F1.0
s(lp1310
(g323
I14
tp1311
atp1312
a(S'program'
p1313
(dp1314
S'NOUN'
p1315
F1.0
s(lp1316
(g100
I15
tp1317
atp1318
a(S'\xc5\x9brodk\xc3\xb3w'
p1319
(dp1320
S'NOUN'
p1321
F1.0
s(lp1322
(g116
I19
tp1323
atp1324
a(S'i'
p1325
(dp1326
S'PRT'
p1327
F0.00055
sS'CONJ'
p1328
F0.999423
sS'PRON'
p1329
F2e-06
sS'NOUN'
p1330
F2e-05
sg491
F4e-06
s(lp1331
(g123
I20
tp1332
atp1333
a(S'reform'
p1334
(dp1335
S'NOUN'
p1336
F1.0
s(lp1337
(g137
I21
tp1338
atp1339
a(g16
(dp1340
g491
F0.0
sg18
F1.0
s(lp1341
tp1342
a(S'jakie'
p1343
(dp1344
S'ADJ'
p1345
F1.0000010000000001
s(lp1346
(g144
I22
tp1347
atp1348
a(S'powinny'
p1349
(dp1350
S'VERB'
p1351
F1.0
s(lp1352
(g151
I23
tp1353
atp1354
a(S'prowadzi\xc4\x87'
p1355
(dp1356
S'VERB'
p1357
F1.0
s(lp1358
(g158
I24
tp1359
atp1360
a(S'do'
p1361
(dp1362
g491
F0.0
sS'NOUN'
p1363
F1e-06
sS'ADP'
p1364
F0.9999990000000001
s(lp1365
(g388
I25
tp1366
atp1367
a(S'pierwszych'
p1368
(dp1369
S'ADJ'
p1370
F0.999999
s(lp1371
(g173
I27
tp1372
atp1373
a(S'wolnych'
p1374
(dp1375
S'ADJ'
p1376
F0.999999
s(lp1377
(g187
I28
tp1378
atp1379
a(g1325
(dp1380
S'PRT'
p1381
F0.000556
sS'CONJ'
p1382
F0.999386
sS'PRON'
p1383
F1.3e-05
sS'NOUN'
p1384
F1.3000000000000001e-05
sg491
F3.2e-05
s(lp1385
(g194
I29
tp1386
atp1387
a(S'przejrzystych'
p1388
(dp1389
S'ADJ'
p1390
F1.0
s(lp1391
(g201
I30
tp1392
atp1393
a(S'wybor\xc3\xb3w'
p1394
(dp1395
S'NOUN'
p1396
F1.0
s(lp1397
(g180
I31
tp1398
atp1399
a(S'we'
p1400
(dp1401
g491
F2e-06
sS'ADP'
p1402
F0.999998
s(lp1403
(g209
I32
tp1404
atp1405
a(S'wrze\xc5\x9bniu'
p1406
(dp1407
S'NOUN'
p1408
F1.0
s(lp1409
(g216
I33
tp1410
atp1411
a(S'bie\xc5\xbc\xc4\x85cego'
p1412
(dp1413
S'ADJ'
p1414
F1.0
s(lp1415
(g230
I35
tp1416
atp1417
a(S'roku'
p1418
(dp1419
S'NOUN'
p1420
F1.0
s(lp1421
(g237
I36
tp1422
atp1423
a(g18
(dp1424
g18
F1.0
s(lp1425
(g18
I37
tp1426
atp1427
asS'sl'
p1428
(lp1429
(S'zato'
p1430
(dp1431
S'ADV'
p1432
F0.833304
sS'CONJ'
p1433
F0.166696
s(lp1434
(g13
I2
tp1435
atp1436
a(S'moramo'
p1437
(dp1438
S'VERB'
p1439
F1.0
s(lp1440
(g34
I1
tp1441
atp1442
a(S'\xc4\x8dim'
p1443
(dp1444
S'ADV'
p1445
F0.996491
sS'PRON'
p1446
F0.003509
s(lp1447
tp1448
a(S'prej'
p1449
(dp1450
S'ADV'
p1451
F1.0
s(lp1452
(g64
I5
tp1453
atp1454
a(S'dolo\xc4\x8diti'
p1455
(dp1456
S'VERB'
p1457
F1.0
s(lp1458
(g41
I9
tp1459
atp1460
a(S'\xc4\x8dasovni'
p1461
(dp1462
S'ADJ'
p1463
F1.0
s(lp1464
tp1465
a(S'razpored'
p1466
(dp1467
S'NOUN'
p1468
F1.0
s(lp1469
(g57
I11
tp1470
atp1471
a(g16
(dp1472
g18
F1.0
s(lp1473
(g16
I12
tp1474
atp1475
a(S'jasno'
p1476
(dp1477
S'ADV'
p1478
F0.571581
sS'ADJ'
p1479
F0.428419
s(lp1480
(g323
I14
tp1481
atp1482
a(S'agendo'
p1483
(dp1484
S'NOUN'
p1485
F1.0
s(lp1486
(g100
I15
tp1487
atp1488
a(S'ukrepov'
p1489
(dp1490
S'NOUN'
p1491
F1.0
s(lp1492
(g116
I19
tp1493
atp1494
a(S'in'
p1495
(dp1496
S'ADV'
p1497
F0.00012
sg491
F1.3e-05
sS'CONJ'
p1498
F0.999847
sS'NOUN'
p1499
F2.1e-05
s(lp1500
(g123
I20
tp1501
atp1502
a(S'reform'
p1503
(dp1504
S'NOUN'
p1505
F1.0
s(lp1506
(g137
I21
tp1507
atp1508
a(g16
(dp1509
g18
F1.0
s(lp1510
tp1511
a(S'ki'
p1512
(dp1513
S'CONJ'
p1514
F1.0
s(lp1515
(g144
I22
tp1516
atp1517
a(S'naj'
p1518
(dp1519
S'PRT'
p1520
F0.976814
sS'CONJ'
p1521
F0.02318
sS'ADJ'
p1522
F4.9999999999999996e-06
s(lp1523
tp1524
a(S'bi'
p1525
(dp1526
g491
F9e-06
sS'VERB'
p1527
F0.999991
s(lp1528
(g151
I23
tp1529
atp1530
a(S'septembra'
p1531
(dp1532
S'NOUN'
p1533
F1.0
s(lp1534
(g216
I33
tp1535
atp1536
a(S'letos'
p1537
(dp1538
S'ADV'
p1539
F1.0
s(lp1540
(g237
I36
tp1541
atp1542
a(S'privedli'
p1543
(dp1544
S'VERB'
p1545
F1.0
s(lp1546
tp1547
a(S'do'
p1548
(dp1549
g491
F2e-06
sS'ADP'
p1550
F0.999998
s(lp1551
(g158
I24
tp1552
atp1553
a(S'prvih'
p1554
(dp1555
S'NUM'
p1556
F0.9999999999999999
s(lp1557
(g173
I27
tp1558
atp1559
a(S'svobodnih'
p1560
(dp1561
S'ADJ'
p1562
F1.0
s(lp1563
(g187
I28
tp1564
atp1565
a(S'in'
p1566
(dp1567
S'ADV'
p1568
F5.6e-05
sg491
F1e-06
sS'CONJ'
p1569
F0.999937
sS'NOUN'
p1570
F6e-06
s(lp1571
(g194
I29
tp1572
atp1573
a(S'preglednih'
p1574
(dp1575
S'ADV'
p1576
F7.9e-05
sS'NOUN'
p1577
F0.0016920000000000006
sS'VERB'
p1578
F0.000118
sS'ADJ'
p1579
F0.998112
s(lp1580
(g201
I30
tp1581
atp1582
a(S'volitev'
p1583
(dp1584
S'NOUN'
p1585
F1.0
s(lp1586
(g180
I31
tp1587
atp1588
a(g18
(dp1589
g18
F1.0
s(lp1590
(g18
I37
tp1591
atp1592
asS'es'
p1593
(lp1594
(S'por'
p1595
(dp1596
S'CONJ'
p1597
F1.0
s(lp1598
tp1599
a(S'tanto'
p1600
(dp1601
S'CONJ'
p1602
F1.0
s(lp1603
(g13
I2
tp1604
atp1605
a(g16
(dp1606
g18
F1.0
s(lp1607
(g16
I3
tp1608
atp1609
a(S'debemos'
p1610
(dp1611
S'VERB'
p1612
F1.0
s(lp1613
(g34
I1
tp1614
atp1615
a(S'establecer'
p1616
(dp1617
S'VERB'
p1618
F1.0
s(lp1619
(g41
I9
tp1620
atp1621
a(S'lo'
p1622
(dp1623
S'PRON'
p1624
F0.000373
sS'DET'
p1625
F0.999627
s(lp1626
(g266
I4
tp1627
atp1628
a(S'antes'
p1629
(dp1630
S'ADV'
p1631
F0.583228
sS'NOUN'
p1632
F0.416772
s(lp1633
(g64
I5
tp1634
atp1635
a(S'posible'
p1636
(dp1637
S'ADJ'
p1638
F1.0
s(lp1639
(g81
I7
tp1640
atp1641
a(S'un'
p1642
(dp1643
g491
F4.4e-05
sS'DET'
p1644
F0.999956
s(lp1645
(g50
I10
tp1646
atp1647
a(S'calendario'
p1648
(dp1649
S'NOUN'
p1650
F1.0
s(lp1651
(g57
I11
tp1652
atp1653
a(g16
(dp1654
g18
F1.0
s(lp1655
(g16
I12
tp1656
atp1657
a(S'una'
p1658
(dp1659
S'DET'
p1660
F1.0
s(lp1661
(g50
I13
tp1662
atp1663
a(S'agenda'
p1664
(dp1665
S'NOUN'
p1666
F1.0
s(lp1667
(g100
I15
tp1668
atp1669
a(S'clara'
p1670
(dp1671
S'ADJ'
p1672
F1.0
s(lp1673
(g323
I14
tp1674
atp1675
a(S'de'
p1676
(dp1677
g491
F0.0
sS'CONJ'
p1678
F5.7e-05
sS'ADP'
p1679
F0.999943
s(lp1680
(g108
I17
tp1681
atp1682
a(S'las'
p1683
(dp1684
S'PRON'
p1685
F0.0
sS'DET'
p1686
F1.0
s(lp1687
(g344
I18
tp1688
atp1689
a(S'medidas'
p1690
(dp1691
S'VERB'
p1692
F0.007477
sS'NOUN'
p1693
F0.992523
s(lp1694
(g116
I19
tp1695
atp1696
a(S'y'
p1697
(dp1698
g491
F0.000354
sS'CONJ'
p1699
F0.999646
s(lp1700
(g123
I20
tp1701
atp1702
a(S'las'
p1703
(dp1704
S'PRON'
p1705
F0.102589
sS'DET'
p1706
F0.897411
s(lp1707
tp1708
a(S'reformas'
p1709
(dp1710
S'VERB'
p1711
F0.104408
sS'NOUN'
p1712
F0.895592
s(lp1713
(g137
I21
tp1714
atp1715
a(S'que'
p1716
(dp1717
g491
F0.0
sS'CONJ'
p1718
F1.0
s(lp1719
(g144
I22
tp1720
atp1721
a(S'deber\xc3\xadan'
p1722
(dp1723
S'VERB'
p1724
F1.0
s(lp1725
(g151
I23
tp1726
atp1727
a(S'llevar'
p1728
(dp1729
S'VERB'
p1730
F1.0
s(lp1731
(g158
I24
tp1732
atp1733
a(g50
(dp1734
g491
F0.000259
sS'CONJ'
p1735
F5e-06
sS'ADP'
p1736
F0.999736
s(lp1737
(g388
I25
tp1738
atp1739
a(S'la'
p1740
(dp1741
g491
F1e-06
sS'PRON'
p1742
F0.0
sS'DET'
p1743
F0.999999
sS'NOUN'
p1744
F0.0
s(lp1745
(g165
I26
tp1746
atp1747
a(S'celebraci\xc3\xb3n'
p1748
(dp1749
S'NOUN'
p1750
F1.0
s(lp1751
(g180
I31
tp1752
atp1753
a(S'de'
p1754
(dp1755
g491
F0.0
sS'CONJ'
p1756
F1.7e-05
sS'ADP'
p1757
F0.999983
s(lp1758
tp1759
a(S'las'
p1760
(dp1761
S'PRON'
p1762
F0.0
sS'DET'
p1763
F1.0
s(lp1764
tp1765
a(S'primeras'
p1766
(dp1767
S'NOUN'
p1768
F0.001408
sS'ADJ'
p1769
F0.998592
s(lp1770
(g173
I27
tp1771
atp1772
a(S'elecciones'
p1773
(dp1774
S'NOUN'
p1775
F1.0
s(lp1776
(g180
I31
tp1777
atp1778
a(S'libres'
p1779
(dp1780
g491
F0.001212
sS'ADJ'
p1781
F0.998788
s(lp1782
(g187
I28
tp1783
atp1784
a(g1697
(dp1785
g491
F0.000659
sS'CONJ'
p1786
F0.999341
s(lp1787
(g194
I29
tp1788
atp1789
a(S'transparentes'
p1790
(dp1791
S'ADJ'
p1792
F1.0
s(lp1793
(g201
I30
tp1794
atp1795
a(S'en'
p1796
(dp1797
g491
F2e-05
sS'CONJ'
p1798
F3.2e-05
sS'ADP'
p1799
F0.999949
s(lp1800
(g209
I32
tp1801
atp1802
a(S'septiembre'
p1803
(dp1804
S'NOUN'
p1805
F1.0
s(lp1806
(g216
I33
tp1807
atp1808
a(S'de'
p1809
(dp1810
g491
F0.0
sS'CONJ'
p1811
F2.5e-05
sS'ADP'
p1812
F0.999975
s(lp1813
(g223
I34
tp1814
atp1815
a(S'este'
p1816
(dp1817
S'PRON'
p1818
F0.999828
sS'NOUN'
p1819
F0.000172
s(lp1820
(g230
I35
tp1821
atp1822
a(S'a\xc3\xb1o'
p1823
(dp1824
S'NOUN'
p1825
F1.0
s(lp1826
(g237
I36
tp1827
atp1828
a(g18
(dp1829
g18
F1.0
s(lp1830
(g18
I37
tp1831
atp1832
as.