(dp0
S'fr'
p1
(lp2
(S'la'
p3
(dp4
S'PRON'
p5
F8.2e-05
sS'DET'
p6
F0.999918
sS'NOUN'
p7
F0.0
s(lp8
(S'the'
p9
I0
tp10
atp11
a(S'majorit\xc3\xa9'
p12
(dp13
S'NOUN'
p14
F1.0
s(lp15
(S'majority'
p16
I2
tp17
atp18
a(S'pro-europ\xc3\xa9enne'
p19
(dp20
S'NOUN'
p21
F0.01768
sS'VERB'
p22
F0.011201
sS'ADJ'
p23
F0.971118
s(lp24
(S'pro-european'
p25
I1
tp26
atp27
a(S'dans'
p28
(dp29
S'NOUN'
p30
F5e-05
sS'ADP'
p31
F0.99995
s(lp32
(S'in'
p33
I3
tp34
atp35
a(S'cette'
p36
(dp37
S'PRON'
p38
F1.0
s(lp39
(S'this'
p40
I4
tp41
atp42
a(S'assembl\xc3\xa9e'
p43
(dp44
S'VERB'
p45
F0.026743
sS'NOUN'
p46
F0.973257
s(lp47
(S'house'
p48
I5
tp49
atp50
a(S'vous'
p51
(dp52
S'PRON'
p53
F1.0
s(lp54
(S'you'
p55
I9
tp56
atp57
a(S'soutient'
p58
(dp59
S'VERB'
p60
F1.0
s(lp61
(S'behind'
p62
I8
tp63
atp64
a(S'totalement'
p65
(dp66
S'ADV'
p67
F1.0
s(lp68
(S'fully'
p69
I7
tp70
atp71
a(S'et'
p72
(dp73
S'CONJ'
p74
F1.0
s(lp75
(S'and'
p76
I10
tp77
atp78
a(S'appuie'
p79
(dp80
S'VERB'
p81
F1.0
s(lp82
(S'behind'
p83
I11
tp84
atp85
a(S'cette'
p86
(dp87
S'PRON'
p88
F1.0
s(lp89
(S'that'
p90
I12
tp91
atp92
a(S'initiative'
p93
(dp94
S'NOUN'
p95
F1.0
s(lp96
(S'initiative'
p97
I13
tp98
atp99
a(S'.'
p100
(dp101
g100
F1.0
s(lp102
(g100
I14
tp103
atp104
asS'en'
p105
(lp106
(g9
(dp107
S'NOUN'
p108
F9e-06
sS'DET'
p109
F0.999991
s(lp110
(g9
I0
tp111
atp112
a(g25
(dp113
S'NOUN'
p114
F0.12176400000000001
sS'ADJ'
p115
F0.878236
s(lp116
(g25
I1
tp117
atp118
a(g16
(dp119
S'ADJ'
p120
F0.001698
sS'NOUN'
p121
F0.998302
s(lp122
(g16
I2
tp123
atp124
a(g33
(dp125
S'ADV'
p126
F0.000191
sS'PRT'
p127
F0.000278
sS'ADP'
p128
F0.999531
s(lp129
(g33
I3
tp130
atp131
a(g40
(dp132
S'ADV'
p133
F3e-06
sS'NOUN'
p134
F1.9e-05
sS'DET'
p135
F0.999978
s(lp136
(g40
I4
tp137
atp138
a(g48
(dp139
S'VERB'
p140
F2.4999999999999998e-05
sS'NOUN'
p141
F0.999974
s(lp142
(g48
I5
tp143
atp144
a(S'is'
p145
(dp146
S'VERB'
p147
F1.0
s(lp148
(g145
I6
tp149
atp150
a(g69
(dp151
S'ADV'
p152
F0.999556
sS'ADJ'
p153
F0.000444
s(lp154
(g69
I7
tp155
atp156
a(g62
(dp157
S'ADV'
p158
F0.129022
sS'NOUN'
p159
F6.2e-05
sS'ADP'
p160
F0.870916
s(lp161
(g62
I8
tp162
atp163
a(g55
(dp164
S'PRON'
p165
F1.0
s(lp166
(g55
I9
tp167
atp168
a(g76
(dp169
S'CONJ'
p170
F0.999997
sS'NOUN'
p171
F3e-06
s(lp172
(g76
I10
tp173
atp174
a(g83
(dp175
S'ADV'
p176
F0.06404
sS'NOUN'
p177
F0.000911
sS'ADP'
p178
F0.935049
s(lp179
(g83
I11
tp180
atp181
a(g90
(dp182
S'ADV'
p183
F0.000158
sS'DET'
p184
F0.98619
sS'ADP'
p185
F0.013653
s(lp186
(g90
I12
tp187
atp188
a(g97
(dp189
S'ADJ'
p190
F0.00312
sS'NOUN'
p191
F0.99688
s(lp192
(g97
I13
tp193
atp194
a(g100
(dp195
g100
F1.0
s(lp196
(g100
I14
tp197
atp198
asS'nl'
p199
(lp200
(S'de'
p201
(dp202
S'DET'
p203
F1.0
s(lp204
(g9
I0
tp205
atp206
a(S'pro-europese'
p207
(dp208
S'NOUN'
p209
F0.389023
sS'ADJ'
p210
F0.610977
s(lp211
(g25
I1
tp212
atp213
a(S'meerderheid'
p214
(dp215
S'NOUN'
p216
F1.0
s(lp217
(g16
I2
tp218
atp219
a(S'in'
p220
(dp221
S'ADV'
p222
F0.001222
sS'VERB'
p223
F1e-06
sS'ADP'
p224
F0.998776
s(lp225
(g33
I3
tp226
atp227
a(S'dit'
p228
(dp229
S'PRON'
p230
F1.0
s(lp231
(g40
I4
tp232
atp233
a(S'parlement'
p234
(dp235
S'NOUN'
p236
F1.0
s(lp237
(g48
I5
tp238
atp239
a(S'staat'
p240
(dp241
S'VERB'
p242
F0.832062
sS'NOUN'
p243
F0.167938
s(lp244
(g145
I6
tp245
atp246
a(S'vierkant'
p247
(dp248
S'ADV'
p249
F0.921595
sS'ADJ'
p250
F0.033342
sS'NOUN'
p251
F0.045063
s(lp252
(g69
I7
tp253
atp254
a(S'achter'
p255
(dp256
S'ADV'
p257
F0.169348
sS'ADP'
p258
F0.830652
s(lp259
(g62
I8
tp260
atp261
a(S'u'
p262
(dp263
S'PRON'
p264
F0.723797
sS'NOUN'
p265
F0.276204
s(lp266
(g55
I9
tp267
atp268
a(S'en'
p269
(dp270
S'CONJ'
p271
F1.0
s(lp272
(g76
I10
tp273
atp274
a(S'achter'
p275
(dp276
S'ADV'
p277
F0.292174
sS'ADP'
p278
F0.707826
s(lp279
(g83
I11
tp280
atp281
a(S'dat'
p282
(dp283
S'PRON'
p284
F0.726345
sS'CONJ'
p285
F0.273655
s(lp286
(g90
I12
tp287
atp288
a(S'initiatief'
p289
(dp290
S'NOUN'
p291
F1.0
s(lp292
(g97
I13
tp293
atp294
a(g100
(dp295
g100
F1.0
s(lp296
(g100
I14
tp297
atp298
asS'de'
p299
(lp300
(S'die'
p301
(dp302
S'PRON'
p303
F0.004888
sS'DET'
p304
F0.994789
s(lp305
(g9
I0
tp306
atp307
a(S'proeurop\xc3\xa4ische'
p308
(dp309
S'ADJ'
p310
F1.0
s(lp311
(g25
I1
tp312
atp313
a(S'mehrheit'
p314
(dp315
S'ADJ'
p316
F0.002679
sS'NOUN'
p317
F0.995916
s(lp318
(g16
I2
tp319
atp320
a(S'in'
p321
(dp322
S'ADP'
p323
F1.0
s(lp324
(g33
I3
tp325
atp326
a(S'diesem'
p327
(dp328
S'PRON'
p329
F1.0
s(lp330
(g40
I4
tp331
atp332
a(S'haus'
p333
(dp334
S'PRT'
p335
F0.429391
sS'VERB'
p336
F0.570609
s(lp337
(g48
I5
tp338
atp339
a(S'steht'
p340
(dp341
S'VERB'
p342
F1.0
s(lp343
(g145
I6
tp344
atp345
a(S'voll'
p346
(dp347
S'PRT'
p348
F0.012924
sS'ADJ'
p349
F0.987076
s(lp350
(g69
I7
tp351
atp352
a(S'und'
p353
(dp354
S'CONJ'
p355
F1.0
s(lp356
tp357
a(S'ganz'
p358
(dp359
S'ADV'
p360
F0.975822
sS'ADJ'
p361
F0.024178
s(lp362
(g69
I7
tp363
atp364
a(S'hinter'
p365
(dp366
S'ADJ'
p367
F0.000458
sS'ADP'
p368
F0.999369
s(lp369
(g62
I8
tp370
atp371
a(S'ihnen'
p372
(dp373
S'PRON'
p374
F1.0
s(lp375
(g55
I9
tp376
atp377
a(S'und'
p378
(dp379
S'CONJ'
p380
F1.0
s(lp381
(g76
I10
tp382
atp383
a(S'hinter'
p384
(dp385
S'ADJ'
p386
F0.00014
sS'ADP'
p387
F0.99986
s(lp388
(g83
I11
tp389
atp390
a(S'einer'
p391
(dp392
S'PRON'
p393
F0.000548
sS'DET'
p394
F0.999445
s(lp395
tp396
a(S'solchen'
p397
(dp398
S'PRON'
p399
F1.0
s(lp400
(g90
I12
tp401
atp402
a(S'initiative'
p403
(dp404
S'ADJ'
p405
F1.0
s(lp406
(g97
I13
tp407
atp408
a(g100
(dp409
g100
F1.0
s(lp410
(g100
I14
tp411
atp412
asS'it'
p413
(lp414
(S'la'
p415
(dp416
S'PRON'
p417
F0.000408
sS'DET'
p418
F0.999592
s(lp419
(g9
I0
tp420
atp421
a(S'maggioranza'
p422
(dp423
S'NOUN'
p424
F1.0
s(lp425
(g16
I2
tp426
atp427
a(S'europeista'
p428
(dp429
S'NOUN'
p430
F0.042007
sS'ADJ'
p431
F0.957993
s(lp432
(g25
I1
tp433
atp434
a(S'di'
p435
(dp436
S'CONJ'
p437
F5e-06
sS'ADP'
p438
F0.999995
s(lp439
(g33
I3
tp440
atp441
a(S"quest'"
p442
(dp443
S'ADJ'
p444
F0.018253
sS'VERB'
p445
F0.018786
sS'NOUN'
p446
F0.96296
s(lp447
(g40
I4
tp448
atp449
a(S'aula'
p450
(dp451
S'NOUN'
p452
F1.0
s(lp453
(g48
I5
tp454
atp455
a(S'appoggia'
p456
(dp457
S'VERB'
p458
F1.0
s(lp459
(g62
I8
tp460
atp461
a(S'appieno'
p462
(dp463
S'ADV'
p464
F1.0
s(lp465
(g69
I7
tp466
atp467
a(S'lei'
p468
(dp469
S'PRON'
p470
F1.0
s(lp471
(g55
I9
tp472
atp473
a(S'e'
p474
(dp475
S'CONJ'
p476
F1.0
s(lp477
(g76
I10
tp478
atp479
a(S'tale'
p480
(dp481
S'PRON'
p482
F0.999141
sS'CONJ'
p483
F0.000846
sS'NOUN'
p484
F1.3e-05
s(lp485
(g90
I12
tp486
atp487
a(S'iniziativa'
p488
(dp489
S'NOUN'
p490
F1.0
s(lp491
(g97
I13
tp492
atp493
a(g100
(dp494
g100
F1.0
s(lp495
(g100
I14
tp496
atp497
asS'sk'
p498
(lp499
(S'proeur\xc3\xb3pska'
p500
(dp501
S'ADJ'
p502
F1.0
s(lp503
(g25
I1
tp504
atp505
a(S'v\xc3\xa4\xc4\x8d\xc5\xa1ina'
p506
(dp507
S'NOUN'
p508
F1.0
s(lp509
(g16
I2
tp510
atp511
a(S'v'
p512
(dp513
S'X'
p514
F9.900000000000001e-05
sS'ADP'
p515
F0.999901
s(lp516
(g33
I3
tp517
atp518
a(S'tomto'
p519
(dp520
S'PRON'
p521
F1.0
s(lp522
(g40
I4
tp523
atp524
a(S'parlamente'
p525
(dp526
S'NOUN'
p527
F1.0
s(lp528
(g48
I5
tp529
atp530
a(S'v\xc3\xa1s'
p531
(dp532
S'PRON'
p533
F0.994794
sg514
F0.005206
s(lp534
(g55
I9
tp535
atp536
a(S'i'
p537
(dp538
g514
F0.23590899999999998
sS'CONJ'
p539
F0.762672
sS'NOUN'
p540
F0.001418
s(lp541
(g76
I10
tp542
atp543
a(S't\xc3\xbato'
p544
(dp545
S'PRON'
p546
F1.0
s(lp547
(g90
I12
tp548
atp549
a(S'iniciat\xc3\xadvu'
p550
(dp551
S'NOUN'
p552
F1.0
s(lp553
(g97
I13
tp554
atp555
a(g512
(dp556
g514
F0.00022200000000000003
sS'ADP'
p557
F0.999777
s(lp558
(g69
I7
tp559
atp560
a(S'plnej'
p561
(dp562
S'ADJ'
p563
F1.0
s(lp564
tp565
a(S'miere'
p566
(dp567
S'NOUN'
p568
F1.0
s(lp569
(g69
I7
tp570
atp571
a(S'podpor\xc3\xad'
p572
(dp573
S'VERB'
p574
F1.0
s(lp575
(g62
I8
tp576
atp577
a(g100
(dp578
g100
F1.0
s(lp579
(g100
I14
tp580
atp581
asS'pl'
p582
(lp583
(S'proeuropejska'
p584
(dp585
S'NOUN'
p586
F0.39037499999999997
sS'VERB'
p587
F0.0046110000000000005
sS'ADJ'
p588
F0.605014
s(lp589
(g25
I1
tp590
atp591
a(S'wi\xc4\x99kszo\xc5\x9b\xc4\x87'
p592
(dp593
S'NOUN'
p594
F1.0
s(lp595
(g16
I2
tp596
atp597
a(S'w'
p598
(dp599
S'NOUN'
p600
F2e-06
sS'ADJ'
p601
F5e-06
sS'ADP'
p602
F0.999992
sg514
F0.0
s(lp603
(g33
I3
tp604
atp605
a(S'tej'
p606
(dp607
S'PRON'
p608
F6e-06
sS'ADJ'
p609
F0.999994
sg514
F0.0
s(lp610
(g40
I4
tp611
atp612
a(S'sali'
p613
(dp614
S'NOUN'
p615
F1.0
s(lp616
(g48
I5
tp617
atp618
a(g598
(dp619
S'ADJ'
p620
F0.0
sg514
F0.0
sS'NOUN'
p621
F0.0
sS'ADP'
p622
F1.0
s(lp623
tp624
a(S'pe\xc5\x82ni'
p625
(dp626
S'ADJ'
p627
F0.0
sS'VERB'
p628
F1e-06
sS'NOUN'
p629
F0.999999
s(lp630
(g69
I7
tp631
atp632
a(S'popiera'
p633
(dp634
S'VERB'
p635
F1.0
s(lp636
tp637
a(S'zar\xc3\xb3wno'
p638
(dp639
S'ADV'
p640
F0.036617
sS'CONJ'
p641
F0.963383
s(lp642
(g62
I8
tp643
atp644
a(S'pana'
p645
(dp646
S'NOUN'
p647
F1.0
s(lp648
(g55
I9
tp649
atp650
a(S','
p651
(dp652
g514
F0.0
sg100
F1.0
s(lp653
tp654
a(S'jak'
p655
(dp656
S'ADV'
p657
F0.8475189999999999
sS'PRT'
p658
F0.000971
sS'CONJ'
p659
F0.12969999999999998
sS'ADP'
p660
F0.021726
sS'PRON'
p661
F8.5e-05
s(lp662
tp663
a(g537
(dp664
S'PRT'
p665
F0.017723
sS'CONJ'
p666
F0.979691
sS'NOUN'
p667
F0.002304
sg514
F3.1e-05
sS'PRON'
p668
F0.000252
s(lp669
(g76
I10
tp670
atp671
a(S't\xc4\x99'
p672
(dp673
S'ADJ'
p674
F1.0
s(lp675
(g90
I12
tp676
atp677
a(S'inicjatyw\xc4\x99'
p678
(dp679
S'NOUN'
p680
F1.0
s(lp681
(g97
I13
tp682
atp683
a(g100
(dp684
g100
F1.0
s(lp685
(g100
I14
tp686
atp687
asS'sl'
p688
(lp689
(S'proevropska'
p690
(dp691
S'NOUN'
p692
F0.000673
sS'ADJ'
p693
F0.999326
s(lp694
(g25
I1
tp695
atp696
a(S've\xc4\x8dina'
p697
(dp698
S'NOUN'
p699
F1.0
s(lp700
(g16
I2
tp701
atp702
a(g512
(dp703
S'ADP'
p704
F1.0
s(lp705
(g33
I3
tp706
atp707
a(S'tem'
p708
(dp709
S'ADV'
p710
F1.5e-05
sS'PRON'
p711
F0.9999849999999999
sS'NOUN'
p712
F0.0
s(lp713
(g40
I4
tp714
atp715
a(S'parlamentu'
p716
(dp717
S'NOUN'
p718
F1.0
s(lp719
(g48
I5
tp720
atp721
a(S'vas'
p722
(dp723
S'PRON'
p724
F0.5850989999999999
sS'NOUN'
p725
F0.414901
s(lp726
(g55
I9
tp727
atp728
a(S'in'
p729
(dp730
S'ADV'
p731
F5.7e-05
sg514
F4.2e-05
sS'CONJ'
p732
F0.999898
sS'NOUN'
p733
F3e-06
s(lp734
(g76
I10
tp735
atp736
a(S'to'
p737
(dp738
S'PRON'
p739
F0.99997
sg514
F2.9e-05
s(lp740
(g90
I12
tp741
atp742
a(S'pobudo'
p743
(dp744
S'NOUN'
p745
F1.0
s(lp746
(g97
I13
tp747
atp748
a(g512
(dp749
S'ADP'
p750
F1.0
s(lp751
tp752
a(S'celoti'
p753
(dp754
S'NOUN'
p755
F1.0
s(lp756
(g69
I7
tp757
atp758
a(S'podpira'
p759
(dp760
S'VERB'
p761
F1.0
s(lp762
(g62
I8
tp763
atp764
a(g100
(dp765
g100
F1.0
s(lp766
(g100
I14
tp767
atp768
asS'es'
p769
(lp770
(S'la'
p771
(dp772
g514
F4.5e-05
sS'DET'
p773
F0.999917
sS'NOUN'
p774
F0.0
sS'PRON'
p775
F3.8e-05
s(lp776
(g9
I0
tp777
atp778
a(S'mayor\xc3\xada'
p779
(dp780
S'NOUN'
p781
F1.0
s(lp782
(g16
I2
tp783
atp784
a(S'proeuropea'
p785
(dp786
S'NOUN'
p787
F0.127394
sS'VERB'
p788
F0.04861
sS'ADJ'
p789
F0.823996
s(lp790
(g25
I1
tp791
atp792
a(S'de'
p793
(dp794
g514
F0.0
sS'CONJ'
p795
F7.2e-05
sS'ADP'
p796
F0.999927
s(lp797
(g33
I3
tp798
atp799
a(S'esta'
p800
(dp801
S'PRON'
p802
F1.0
sS'VERB'
p803
F0.0
s(lp804
(g40
I4
tp805
atp806
a(S'c\xc3\xa1mara'
p807
(dp808
S'NOUN'
p809
F1.0
s(lp810
(g48
I5
tp811
atp812
a(S'le'
p813
(dp814
S'PRON'
p815
F0.998967
sg514
F0.001033
s(lp816
(g145
I6
tp817
atp818
a(S'respaldar\xc3\xa1'
p819
(dp820
S'VERB'
p821
F1.0
s(lp822
tp823
a(S'a'
p824
(dp825
g514
F0.0
sS'CONJ'
p826
F4e-06
sS'ADP'
p827
F0.999996
s(lp828
(g62
I8
tp829
atp830
a(S'usted'
p831
(dp832
S'PRON'
p833
F1.0
s(lp834
(g55
I9
tp835
atp836
a(S'y'
p837
(dp838
g514
F1.6e-05
sS'CONJ'
p839
F0.999984
s(lp840
(g76
I10
tp841
atp842
a(g824
(dp843
g514
F0.000113
sS'CONJ'
p844
F0.0
sS'ADP'
p845
F0.999886
s(lp846
(g83
I11
tp847
atp848
a(S'esa'
p849
(dp850
S'PRON'
p851
F1.0
s(lp852
(g90
I12
tp853
atp854
a(S'iniciativa'
p855
(dp856
S'NOUN'
p857
F1.0
s(lp858
(g97
I13
tp859
atp860
a(g100
(dp861
g100
F1.0
s(lp862
(g100
I14
tp863
atp864
as.