(dp0
S'fr'
p1
(lp2
(S'il'
p3
(dp4
S'PRON'
p5
F1.0
s(lp6
tp7
a(S'est'
p8
(dp9
S'VERB'
p10
F0.999991
sS'NOUN'
p11
F9e-06
s(lp12
tp13
a(S"d'"
p14
(dp15
S'NOUN'
p16
F0.087885
sS'VERB'
p17
F0.799567
sS'ADJ'
p18
F0.112547
s(lp19
tp20
a(S'usage'
p21
(dp22
S'NOUN'
p23
F1.0
s(lp24
(S'traditionally'
p25
I0
tp26
atp27
a(S'que'
p28
(dp29
S'ADV'
p30
F0.006222
sS'PRON'
p31
F0.19706
sS'CONJ'
p32
F0.796718
s(lp33
(S','
p34
I1
tp35
atp36
a(S'les'
p37
(dp38
S'PRON'
p39
F0.002982
sS'DET'
p40
F0.996996
sS'ADP'
p41
F2.2e-05
s(lp42
(S'eu'
p43
I2
tp44
atp45
a(S'politiques'
p46
(dp47
S'NOUN'
p48
F0.105913
sS'VERB'
p49
F0.001061
sS'ADJ'
p50
F0.893025
s(lp51
(S'policies'
p52
I3
tp53
atp54
a(S'de'
p55
(dp56
S'ADP'
p57
F1.0
s(lp58
tp59
a(S"l'"
p60
(dp61
S'ADJ'
p62
F0.160704
sS'VERB'
p63
F0.06480800000000002
sS'NOUN'
p64
F0.774488
s(lp65
tp66
a(S'ue'
p67
(dp68
S'VERB'
p69
F0.006295
sS'NOUN'
p70
F0.993705
s(lp71
(g43
I2
tp72
atp73
a(S'dans'
p74
(dp75
S'NOUN'
p76
F6e-06
sS'ADP'
p77
F0.999994
s(lp78
(S'in'
p79
I4
tp80
atp81
a(S'la'
p82
(dp83
S'PRON'
p84
F1.2e-05
sS'DET'
p85
F0.999988
sS'NOUN'
p86
F0.0
s(lp87
(S'the'
p88
I5
tp89
atp90
a(S'r\xc3\xa9gion'
p91
(dp92
S'NOUN'
p93
F1.0
s(lp94
(S'region'
p95
I8
tp96
atp97
a(S'du'
p98
(dp99
S'ADP'
p100
F1.0
s(lp101
(S'south'
p102
I6
tp103
atp104
a(S'caucase'
p105
(dp106
S'ADJ'
p107
F0.028064
sS'NOUN'
p108
F0.971936
s(lp109
(S'caucasus'
p110
I7
tp111
atp112
a(S'du'
p113
(dp114
S'ADP'
p115
F1.0
s(lp116
tp117
a(S'sud'
p118
(dp119
S'ADJ'
p120
F0.13316
sS'NOUN'
p121
F0.86684
s(lp122
(g102
I6
tp123
atp124
a(S'\xc3\xa9valuent'
p125
(dp126
S'VERB'
p127
F1.0
s(lp128
(S'evaluate'
p129
I10
tp130
atp131
a(S'les'
p132
(dp133
S'PRON'
p134
F0.000124
sS'DET'
p135
F0.999843
sS'ADP'
p136
F3.3e-05
s(lp137
(S'the'
p138
I11
tp139
atp140
a(S'aspects'
p141
(dp142
S'NOUN'
p143
F1.0
s(lp144
(S'aspects'
p145
I15
tp146
atp147
a(S'de'
p148
(dp149
S'ADP'
p150
F1.0
s(lp151
tp152
a(S"l'"
p153
(dp154
S'ADJ'
p155
F0.160704
sS'VERB'
p156
F0.06480800000000002
sS'NOUN'
p157
F0.774488
s(lp158
tp159
a(S'\xc3\xa9nergie'
p160
(dp161
S'NOUN'
p162
F1.0
s(lp163
(S'energy'
p164
I12
tp165
atp166
a(S'et'
p167
(dp168
S'CONJ'
p169
F1.0
s(lp170
(S'and'
p171
I13
tp172
atp173
a(S'du'
p174
(dp175
S'ADP'
p176
F1.0
s(lp177
tp178
a(S'transport'
p179
(dp180
S'NOUN'
p181
F1.0
s(lp182
(S'transport'
p183
I14
tp184
atp185
a(S'principalement'
p186
(dp187
S'ADV'
p188
F1.0
s(lp189
(S'mostly'
p190
I9
tp191
atp192
a(S'sous'
p193
(dp194
S'NOUN'
p195
F5.1e-05
sS'ADP'
p196
F0.999949
s(lp197
(S'in'
p198
I16
tp199
atp200
a(S"l'"
p201
(dp202
S'ADJ'
p203
F0.16071
sS'VERB'
p204
F0.064839
sS'NOUN'
p205
F0.77445
s(lp206
tp207
a(S'angle'
p208
(dp209
S'ADJ'
p210
F0.141406
sS'VERB'
p211
F0.34598499999999993
sS'NOUN'
p212
F0.512608
s(lp213
(S'terms'
p214
I18
tp215
atp216
a(S'\xc3\xa9conomique'
p217
(dp218
S'NOUN'
p219
F0.060199
sS'ADJ'
p220
F0.939801
s(lp221
(S'economic'
p222
I17
tp223
atp224
a(S'.'
p225
(dp226
g225
F1.0
s(lp227
(g225
I19
tp228
atp229
asS'en'
p230
(lp231
(g25
(dp232
S'ADV'
p233
F1.0
s(lp234
(g25
I0
tp235
atp236
a(g34
(dp237
g225
F1.0
s(lp238
(g34
I1
tp239
atp240
a(g43
(dp241
S'ADV'
p242
F0.000626
sS'ADJ'
p243
F0.034595
sS'VERB'
p244
F0.021249
sS'NOUN'
p245
F0.943529
s(lp246
(g43
I2
tp247
atp248
a(g52
(dp249
S'NOUN'
p250
F1.0
s(lp251
(g52
I3
tp252
atp253
a(g79
(dp254
S'ADV'
p255
F0.000295
sS'PRT'
p256
F0.000234
sS'ADP'
p257
F0.999471
s(lp258
(g79
I4
tp259
atp260
a(g88
(dp261
S'NOUN'
p262
F1e-06
sS'DET'
p263
F0.999999
s(lp264
(g88
I5
tp265
atp266
a(g102
(dp267
S'ADV'
p268
F0.019211
sS'NOUN'
p269
F0.254659
sS'ADJ'
p270
F0.725473
sS'ADP'
p271
F0.000656
s(lp272
(g102
I6
tp273
atp274
a(g110
(dp275
S'ADJ'
p276
F0.024022
sS'NOUN'
p277
F0.975978
s(lp278
(g110
I7
tp279
atp280
a(g95
(dp281
S'NOUN'
p282
F1.0
s(lp283
(g95
I8
tp284
atp285
a(g190
(dp286
S'ADV'
p287
F1.0
s(lp288
(g190
I9
tp289
atp290
a(g129
(dp291
S'VERB'
p292
F1.0
s(lp293
(g129
I10
tp294
atp295
a(g138
(dp296
S'NOUN'
p297
F1e-06
sS'DET'
p298
F0.999999
s(lp299
(g138
I11
tp300
atp301
a(g164
(dp302
S'NOUN'
p303
F1.0
s(lp304
(g164
I12
tp305
atp306
a(g171
(dp307
S'CONJ'
p308
F0.999999
sS'NOUN'
p309
F1e-06
s(lp310
(g171
I13
tp311
atp312
a(g183
(dp313
S'VERB'
p314
F0.430618
sS'NOUN'
p315
F0.569382
s(lp316
(g183
I14
tp317
atp318
a(g145
(dp319
S'NOUN'
p320
F1.0
s(lp321
(g145
I15
tp322
atp323
a(g198
(dp324
S'ADV'
p325
F0.000996
sS'PRT'
p326
F0.000216
sS'ADP'
p327
F0.998788
s(lp328
(g198
I16
tp329
atp330
a(g222
(dp331
S'ADJ'
p332
F1.0
s(lp333
(g222
I17
tp334
atp335
a(g214
(dp336
S'VERB'
p337
F1e-06
sS'NOUN'
p338
F0.999999
s(lp339
(g214
I18
tp340
atp341
a(g225
(dp342
g225
F1.0
s(lp343
(g225
I19
tp344
atp345
asS'nl'
p346
(lp347
(S'traditiegetrouw'
p348
(dp349
S'ADJ'
p350
F1.0
s(lp351
(g25
I0
tp352
atp353
a(S'worden'
p354
(dp355
S'VERB'
p356
F0.999886
sS'NOUN'
p357
F0.000114
s(lp358
tp359
a(S'in'
p360
(dp361
S'ADV'
p362
F0.010223
sS'VERB'
p363
F0.0
sS'ADP'
p364
F0.989777
s(lp365
tp366
a(S'het'
p367
(dp368
S'PRON'
p369
F0.0009429999999999999
sS'DET'
p370
F0.999056
s(lp371
tp372
a(S'eu-beleid'
p373
(dp374
S'ADJ'
p375
F0.00158
sS'NOUN'
p376
F0.99842
s(lp377
(g52
I3
tp378
atp379
a(S'in'
p380
(dp381
S'ADV'
p382
F0.002978
sS'VERB'
p383
F2e-06
sS'ADP'
p384
F0.99702
s(lp385
(g79
I4
tp386
atp387
a(S'de'
p388
(dp389
S'DET'
p390
F1.0
s(lp391
(g88
I5
tp392
atp393
a(S'zuidelijke'
p394
(dp395
S'NOUN'
p396
F0.002688
sS'ADJ'
p397
F0.997312
s(lp398
(g102
I6
tp399
atp400
a(S'kaukasus'
p401
(dp402
S'ADJ'
p403
F0.00257
sS'NOUN'
p404
F0.99743
s(lp405
(g110
I7
tp406
atp407
a(S'meestal'
p408
(dp409
S'ADV'
p410
F1.0
s(lp411
(g190
I9
tp412
atp413
a(S'de'
p414
(dp415
S'DET'
p416
F1.0
s(lp417
(g138
I11
tp418
atp419
a(S'energie-'
p420
(dp421
S'ADJ'
p422
F0.089655
sS'NOUN'
p423
F0.9103450000000001
s(lp424
(g164
I12
tp425
atp426
a(S'en'
p427
(dp428
S'CONJ'
p429
F1.0
s(lp430
(g171
I13
tp431
atp432
a(S'transportaspecten'
p433
(dp434
S'NOUN'
p435
F1.0
s(lp436
(g183
I14
tp437
atp438
a(S'in'
p439
(dp440
S'ADV'
p441
F0.04645
sS'VERB'
p442
F6e-06
sS'ADP'
p443
F0.953544
s(lp444
(g198
I16
tp445
atp446
a(S'economische'
p447
(dp448
S'NOUN'
p449
F2e-06
sS'ADJ'
p450
F0.999998
s(lp451
(g222
I17
tp452
atp453
a(S'termen'
p454
(dp455
S'NOUN'
p456
F1.0
s(lp457
(g214
I18
tp458
atp459
a(S'ge\xc3\xabvalueerd'
p460
(dp461
S'VERB'
p462
F1.0
s(lp463
(g129
I10
tp464
atp465
a(g225
(dp466
g225
F1.0
s(lp467
(g225
I19
tp468
atp469
asS'de'
p470
(lp471
(S'die'
p472
(dp473
S'PRON'
p474
F0.004176
sS'DET'
p475
F0.99475
s(lp476
(g138
I11
tp477
atp478
a(S'eu-politik'
p479
(dp480
S'ADJ'
p481
F0.026225
sS'NOUN'
p482
F0.956346
s(lp483
(g43
I2
tp484
atp485
a(S'in'
p486
(dp487
S'ADP'
p488
F1.0
s(lp489
(g79
I4
tp490
atp491
a(S'der'
p492
(dp493
S'PRON'
p494
F3e-05
sS'DET'
p495
F0.999961
s(lp496
(g88
I5
tp497
atp498
a(S's\xc3\xbcdkaukasusregion'
p499
(dp500
S'ADJ'
p501
F0.028766
sS'NOUN'
p502
F0.963817
s(lp503
(g110
I7
tp504
atp505
a(S'bewertet'
p506
(dp507
S'VERB'
p508
F0.834793
sS'ADJ'
p509
F0.133804
s(lp510
(g129
I10
tp511
atp512
a(S'traditionell'
p513
(dp514
S'ADJ'
p515
F1.0
s(lp516
(g25
I0
tp517
atp518
a(S'haupts\xc3\xa4chlich'
p519
(dp520
S'ADJ'
p521
F1.0
s(lp522
(g190
I9
tp523
atp524
a(S'energie-'
p525
(dp526
S'X'
p527
F1.0
s(lp528
(g164
I12
tp529
atp530
a(S'und'
p531
(dp532
S'CONJ'
p533
F1.0
s(lp534
(g171
I13
tp535
atp536
a(S'verkehrsaspekte'
p537
(dp538
S'NOUN'
p539
F0.247693
sS'ADJ'
p540
F0.520856
s(lp541
(g145
I15
tp542
atp543
a(S'aus'
p544
(dp545
S'ADP'
p546
F0.995591
s(lp547
(g198
I16
tp548
atp549
a(S'wirtschaftlicher'
p550
(dp551
S'ADJ'
p552
F1.0
s(lp553
(g222
I17
tp554
atp555
a(S'sicht'
p556
(dp557
S'VERB'
p558
F8.7e-05
sS'NOUN'
p559
F0.999867
s(lp560
(g214
I18
tp561
atp562
a(g225
(dp563
g225
F1.0
s(lp564
(g225
I19
tp565
atp566
asS'it'
p567
(lp568
(S'di'
p569
(dp570
S'CONJ'
p571
F6e-06
sS'ADP'
p572
F0.999994
s(lp573
tp574
a(S'norma'
p575
(dp576
S'NOUN'
p577
F1.0
s(lp578
(g25
I0
tp579
atp580
a(g34
(dp581
g225
F1.0
s(lp582
(g34
I1
tp583
atp584
a(S'le'
p585
(dp586
S'PRON'
p587
F0.000534
sS'DET'
p588
F0.999466
s(lp589
tp590
a(S'politiche'
p591
(dp592
S'ADJ'
p593
F0.227818
sS'NOUN'
p594
F0.772182
s(lp595
(g52
I3
tp596
atp597
a(S'comunitarie'
p598
(dp599
S'ADJ'
p600
F1.0
s(lp601
(g43
I2
tp602
atp603
a(S'nella'
p604
(dp605
S'ADP'
p606
F1.0
s(lp607
(g79
I4
tp608
atp609
a(S'regione'
p610
(dp611
S'NOUN'
p612
F1.0
s(lp613
(g95
I8
tp614
atp615
a(S'del'
p616
(dp617
S'DEF'
p618
F0.001256
sS'ADP'
p619
F0.998744
s(lp620
(g88
I5
tp621
atp622
a(S'caucaso'
p623
(dp624
S'ADJ'
p625
F0.005779
sS'VERB'
p626
F0.000223
sS'NOUN'
p627
F0.993998
s(lp628
(g110
I7
tp629
atp630
a(S'meridionale'
p631
(dp632
S'NOUN'
p633
F0.041261
sS'ADJ'
p634
F0.958739
s(lp635
(g102
I6
tp636
atp637
a(S'valutano'
p638
(dp639
S'VERB'
p640
F1.0
s(lp641
(g129
I10
tp642
atp643
a(S'per'
p644
(dp645
S'CONJ'
p646
F0.033138
sS'ADP'
p647
F0.966862
s(lp648
(g190
I9
tp649
atp650
a(S'lo'
p651
(dp652
S'PRON'
p653
F0.541094
sS'DET'
p654
F0.458906
s(lp655
tp656
a(S'pi\xc3\xb9'
p657
(dp658
S'ADV'
p659
F0.978427
sS'NOUN'
p660
F0.000641
sS'ADJ'
p661
F0.020919
sS'ADP'
p662
F1.3e-05
s(lp663
(g190
I9
tp664
atp665
a(S'gli'
p666
(dp667
S'PRON'
p668
F0.00306
sS'DET'
p669
F0.99694
s(lp670
tp671
a(S'aspetti'
p672
(dp673
S'VERB'
p674
F0.003823
sS'NOUN'
p675
F0.996177
s(lp676
(g145
I15
tp677
atp678
a(S"dell'"
p679
(dp680
S'ADJ'
p681
F0.04055
sS'VERB'
p682
F0.006692
sS'NOUN'
p683
F0.952758
s(lp684
tp685
a(S'energia'
p686
(dp687
S'NOUN'
p688
F1.0
s(lp689
(g164
I12
tp690
atp691
a(S'e'
p692
(dp693
S'CONJ'
p694
F1.0
s(lp695
(g171
I13
tp696
atp697
a(S'del'
p698
(dp699
S'DEF'
p700
F0.021043
sS'ADP'
p701
F0.978957
s(lp702
tp703
a(S'trasporto'
p704
(dp705
S'VERB'
p706
F8.5e-05
sS'NOUN'
p707
F0.999915
s(lp708
(g183
I14
tp709
atp710
a(S'in'
p711
(dp712
S'ADP'
p713
F1.0
s(lp714
(g198
I16
tp715
atp716
a(S'termini'
p717
(dp718
S'VERB'
p719
F0.000862
sS'NOUN'
p720
F0.999139
s(lp721
(g214
I18
tp722
atp723
a(S'economici'
p724
(dp725
S'ADJ'
p726
F1.0
s(lp727
(g222
I17
tp728
atp729
a(g225
(dp730
g225
F1.0
s(lp731
(g225
I19
tp732
atp733
asS'sk'
p734
(lp735
(S'tradi\xc4\x8dne'
p736
(dp737
S'ADV'
p738
F1.0
s(lp739
(g25
I0
tp740
atp741
a(g34
(dp742
g225
F1.0
s(lp743
(g34
I1
tp744
atp745
a(S'politika'
p746
(dp747
S'NOUN'
p748
F1.0
s(lp749
(g52
I3
tp750
atp751
a(S'e\xc3\x9a'
p752
(dp753
S'ADV'
p754
F0.00645
sS'ADJ'
p755
F0.101141
sS'VERB'
p756
F0.46567
sS'NOUN'
p757
F0.41928299999999996
sg527
F0.007457
s(lp758
(g43
I2
tp759
atp760
a(S'v'
p761
(dp762
g527
F0.0006039999999999999
sS'ADP'
p763
F0.999396
s(lp764
(g79
I4
tp765
atp766
a(S'regi\xc3\xb3ne'
p767
(dp768
S'NOUN'
p769
F1.0
s(lp770
(g95
I8
tp771
atp772
a(S'ju\xc5\xben\xc3\xa9ho'
p773
(dp774
S'ADJ'
p775
F1.0
s(lp776
(g102
I6
tp777
atp778
a(S'kaukazu'
p779
(dp780
S'ADJ'
p781
F0.000139
sS'NOUN'
p782
F0.999861
s(lp783
(g110
I7
tp784
atp785
a(S'oce\xc5\x88uje'
p786
(dp787
S'VERB'
p788
F1.0
s(lp789
(g129
I10
tp790
atp791
a(S'hlavne'
p792
(dp793
S'ADV'
p794
F0.151509
sg527
F0.843858
sS'NOUN'
p795
F0.004632
s(lp796
(g190
I9
tp797
atp798
a(S'energetick\xc3\xa9'
p799
(dp800
S'ADJ'
p801
F1.0
s(lp802
(g164
I12
tp803
atp804
a(S'a'
p805
(dp806
g527
F0.000616
sS'CONJ'
p807
F0.997887
sS'NOUN'
p808
F0.001384
sS'ADP'
p809
F9.8e-05
sS'PRT'
p810
F1.6e-05
s(lp811
(g171
I13
tp812
atp813
a(S'dopravn\xc3\xa9'
p814
(dp815
S'NOUN'
p816
F0.006073
sS'ADJ'
p817
F0.993927
s(lp818
(g183
I14
tp819
atp820
a(S'aspekty'
p821
(dp822
S'NOUN'
p823
F1.0
s(lp824
(g145
I15
tp825
atp826
a(S'z'
p827
(dp828
g527
F1.3e-05
sS'NOUN'
p829
F1.9e-05
sS'ADP'
p830
F0.999968
s(lp831
(g198
I16
tp832
atp833
a(S'hospod\xc3\xa1rskeho'
p834
(dp835
S'ADJ'
p836
F1.0
s(lp837
(g222
I17
tp838
atp839
a(S'h\xc4\xbeadiska'
p840
(dp841
S'NOUN'
p842
F1.0
s(lp843
(g214
I18
tp844
atp845
a(g225
(dp846
g225
F1.0
s(lp847
(g225
I19
tp848
atp849
asS'pl'
p850
(lp851
(S'dotychczas'
p852
(dp853
S'ADV'
p854
F1.0
s(lp855
(g25
I0
tp856
atp857
a(S'polityka'
p858
(dp859
S'NOUN'
p860
F0.999999
s(lp861
(g52
I3
tp862
atp863
a(S'ue'
p864
(dp865
S'ADJ'
p866
F0.003009
sS'VERB'
p867
F0.0027589999999999997
sS'NOUN'
p868
F0.994231
s(lp869
(g43
I2
tp870
atp871
a(S'w'
p872
(dp873
g527
F0.0
sS'ADJ'
p874
F0.0
sS'ADP'
p875
F0.9999990000000001
sS'NOUN'
p876
F0.0
s(lp877
(g79
I4
tp878
atp879
a(S'rejonie'
p880
(dp881
S'NOUN'
p882
F1.0
s(lp883
(g95
I8
tp884
atp885
a(S'po\xc5\x82udniowego'
p886
(dp887
S'ADJ'
p888
F1.0
s(lp889
(g102
I6
tp890
atp891
a(S'kaukazu'
p892
(dp893
S'ADJ'
p894
F0.000343
sS'VERB'
p895
F0.0034919999999999994
sS'NOUN'
p896
F0.996165
s(lp897
(g110
I7
tp898
atp899
a(g872
(dp900
S'ADJ'
p901
F0.0
sg527
F0.0
sS'NOUN'
p902
F0.0
sS'ADP'
p903
F0.9999990000000001
s(lp904
(g198
I16
tp905
atp906
a(S'przewa\xc5\xbcaj\xc4\x85cej'
p907
(dp908
S'VERB'
p909
F0.006908
sS'ADJ'
p910
F0.993092
s(lp911
tp912
a(S'cz\xc4\x99\xc5\x9bci'
p913
(dp914
S'NOUN'
p915
F1.0
s(lp916
(g190
I9
tp917
atp918
a(S'ocenia\xc5\x82a'
p919
(dp920
S'VERB'
p921
F1.0
s(lp922
tp923
a(S'aspekty'
p924
(dp925
S'NOUN'
p926
F1.0
s(lp927
(g145
I15
tp928
atp929
a(S'zwi\xc4\x85zane'
p930
(dp931
S'VERB'
p932
F0.00048800000000000004
sS'ADJ'
p933
F0.9995129999999998
s(lp934
(g129
I10
tp935
atp936
a(g827
(dp937
S'PRT'
p938
F1e-05
sS'VERB'
p939
F2e-06
sS'NOUN'
p940
F0.0
sS'ADP'
p941
F0.999987
sg527
F1e-06
s(lp942
(g138
I11
tp943
atp944
a(S'energetyk\xc4\x85'
p945
(dp946
S'ADJ'
p947
F0.040181
sS'NOUN'
p948
F0.95982
s(lp949
(g164
I12
tp950
atp951
a(S'i'
p952
(dp953
S'PRT'
p954
F0.002141
sS'CONJ'
p955
F0.997847
sS'NOUN'
p956
F6e-06
sg527
F2e-06
sS'PRON'
p957
F4e-06
s(lp958
(g171
I13
tp959
atp960
a(S'transportem'
p961
(dp962
S'NOUN'
p963
F1.0
s(lp964
(g183
I14
tp965
atp966
a(S'poprzez'
p967
(dp968
S'ADP'
p969
F1.0
s(lp970
(g25
I0
tp971
atp972
a(S'pryzmat'
p973
(dp974
S'NOUN'
p975
F1.0
s(lp976
(g25
I0
tp977
atp978
a(S'kryteri\xc3\xb3w'
p979
(dp980
S'NOUN'
p981
F1.0
s(lp982
tp983
a(S'czysto'
p984
(dp985
S'ADV'
p986
F1.0
s(lp987
(g25
I0
tp988
atp989
a(S'ekonomicznych'
p990
(dp991
S'ADJ'
p992
F1.0
s(lp993
(g222
I17
tp994
atp995
a(g225
(dp996
g225
F1.0
s(lp997
(g225
I19
tp998
atp999
asS'sl'
p1000
(lp1001
(S'politika'
p1002
(dp1003
S'NOUN'
p1004
F1.0
s(lp1005
(g52
I3
tp1006
atp1007
a(S'eu'
p1008
(dp1009
S'ADV'
p1010
F0.008573
sS'ADJ'
p1011
F0.029490999999999996
sS'VERB'
p1012
F0.001034
sS'NOUN'
p1013
F0.9609030000000002
s(lp1014
(g43
I2
tp1015
atp1016
a(g761
(dp1017
S'ADP'
p1018
F1.0
s(lp1019
(g79
I4
tp1020
atp1021
a(S'regiji'
p1022
(dp1023
S'NOUN'
p1024
F1.0
s(lp1025
(g95
I8
tp1026
atp1027
a(S'ju\xc5\xbenega'
p1028
(dp1029
S'ADJ'
p1030
F1.0
s(lp1031
(g102
I6
tp1032
atp1033
a(S'kavkaza'
p1034
(dp1035
S'ADV'
p1036
F0.000306
sS'ADJ'
p1037
F0.0
sS'VERB'
p1038
F1.6e-05
sS'NOUN'
p1039
F0.999677
s(lp1040
(g110
I7
tp1041
atp1042
a(S'energetske'
p1043
(dp1044
S'ADJ'
p1045
F1.0
s(lp1046
(g164
I12
tp1047
atp1048
a(S'in'
p1049
(dp1050
S'ADV'
p1051
F3.7e-05
sg527
F1e-06
sS'CONJ'
p1052
F0.999959
sS'NOUN'
p1053
F3e-06
s(lp1054
(g171
I13
tp1055
atp1056
a(S'prometne'
p1057
(dp1058
S'ADJ'
p1059
F1.0
s(lp1060
(g183
I14
tp1061
atp1062
a(S'vidike'
p1063
(dp1064
S'NOUN'
p1065
F1.0
s(lp1066
(g145
I15
tp1067
atp1068
a(S'obi\xc4\x8dajno'
p1069
(dp1070
S'ADV'
p1071
F0.999267
sS'ADJ'
p1072
F0.0007330000000000001
s(lp1073
(g25
I0
tp1074
atp1075
a(S'ocenjuje'
p1076
(dp1077
S'VERB'
p1078
F1.0
s(lp1079
(g129
I10
tp1080
atp1081
a(S'predvsem'
p1082
(dp1083
S'PRT'
p1084
F1.0
s(lp1085
(g190
I9
tp1086
atp1087
a(g761
(dp1088
S'ADP'
p1089
F1.0
s(lp1090
(g198
I16
tp1091
atp1092
a(S'ekonomskem'
p1093
(dp1094
S'ADJ'
p1095
F1.0
s(lp1096
(g222
I17
tp1097
atp1098
a(S'smislu'
p1099
(dp1100
S'NOUN'
p1101
F1.0
s(lp1102
(g214
I18
tp1103
atp1104
a(g225
(dp1105
g225
F1.0
s(lp1106
(g225
I19
tp1107
atp1108
asS'es'
p1109
(lp1110
(S'tradicionalmente'
p1111
(dp1112
S'ADV'
p1113
F1.0
s(lp1114
(g25
I0
tp1115
atp1116
a(g34
(dp1117
g225
F1.0
s(lp1118
(g34
I1
tp1119
atp1120
a(S'las'
p1121
(dp1122
S'PRON'
p1123
F1.3e-05
sS'DET'
p1124
F0.999987
s(lp1125
tp1126
a(S'pol\xc3\xadticas'
p1127
(dp1128
S'ADJ'
p1129
F0.085547
sS'NOUN'
p1130
F0.914453
s(lp1131
(g52
I3
tp1132
atp1133
a(S'de'
p1134
(dp1135
g527
F0.0
sS'CONJ'
p1136
F2.1e-05
sS'ADP'
p1137
F0.999979
s(lp1138
tp1139
a(S'la'
p1140
(dp1141
g527
F0.0
sS'PRON'
p1142
F0.0
sS'DET'
p1143
F0.999999
sS'NOUN'
p1144
F0.0
s(lp1145
(g43
I2
tp1146
atp1147
a(S'uni\xc3\xb3n'
p1148
(dp1149
S'NOUN'
p1150
F1.0
s(lp1151
tp1152
a(S'europea'
p1153
(dp1154
S'ADJ'
p1155
F1.0
s(lp1156
(g43
I2
tp1157
atp1158
a(S'en'
p1159
(dp1160
g527
F0.0
sS'CONJ'
p1161
F1e-06
sS'ADP'
p1162
F0.999999
s(lp1163
(g79
I4
tp1164
atp1165
a(S'la'
p1166
(dp1167
S'NOUN'
p1168
F0.0
sS'PRON'
p1169
F0.0
sS'DET'
p1170
F0.999999
sg527
F0.0
s(lp1171
(g88
I5
tp1172
atp1173
a(S'regi\xc3\xb3n'
p1174
(dp1175
S'NOUN'
p1176
F1.0
s(lp1177
(g95
I8
tp1178
atp1179
a(S'del'
p1180
(dp1181
S'ADP'
p1182
F1.0
s(lp1183
tp1184
a(S'c\xc3\xa1ucaso'
p1185
(dp1186
S'NOUN'
p1187
F0.083135
sS'ADJ'
p1188
F0.916865
s(lp1189
(g110
I7
tp1190
atp1191
a(S'meridional'
p1192
(dp1193
S'NOUN'
p1194
F0.18637
sS'ADJ'
p1195
F0.81363
s(lp1196
(g102
I6
tp1197
atp1198
a(S'han'
p1199
(dp1200
S'VERB'
p1201
F1.0
s(lp1202
(g190
I9
tp1203
atp1204
a(S'evaluado'
p1205
(dp1206
S'VERB'
p1207
F1.0
s(lp1208
(g129
I10
tp1209
atp1210
a(S'mayoritariamente'
p1211
(dp1212
S'ADV'
p1213
F1.0
s(lp1214
tp1215
a(S'los'
p1216
(dp1217
S'PRON'
p1218
F0.00025
sS'DET'
p1219
F0.99975
s(lp1220
(g138
I11
tp1221
atp1222
a(S'\xc3\xa1mbitos'
p1223
(dp1224
S'NOUN'
p1225
F1.0
s(lp1226
tp1227
a(S'de'
p1228
(dp1229
g527
F0.0
sS'CONJ'
p1230
F1.7e-05
sS'ADP'
p1231
F0.999983
s(lp1232
tp1233
a(S'la'
p1234
(dp1235
g527
F0.0
sS'PRON'
p1236
F0.0
sS'DET'
p1237
F0.999999
sS'NOUN'
p1238
F0.0
s(lp1239
(g190
I9
tp1240
atp1241
a(S'energ\xc3\xada'
p1242
(dp1243
S'NOUN'
p1244
F1.0
s(lp1245
(g164
I12
tp1246
atp1247
a(S'y'
p1248
(dp1249
g527
F0.009372
sS'CONJ'
p1250
F0.990628
s(lp1251
(g171
I13
tp1252
atp1253
a(S'del'
p1254
(dp1255
S'ADP'
p1256
F1.0
s(lp1257
tp1258
a(S'transporte'
p1259
(dp1260
S'VERB'
p1261
F0.0
sS'NOUN'
p1262
F1.0
s(lp1263
(g183
I14
tp1264
atp1265
a(S'en'
p1266
(dp1267
g527
F1.8e-05
sS'CONJ'
p1268
F1e-05
sS'ADP'
p1269
F0.999972
s(lp1270
(g198
I16
tp1271
atp1272
a(S't\xc3\xa9rminos'
p1273
(dp1274
S'NOUN'
p1275
F1.0
s(lp1276
(g214
I18
tp1277
atp1278
a(S'econ\xc3\xb3micos'
p1279
(dp1280
S'ADJ'
p1281
F1.0
s(lp1282
(g222
I17
tp1283
atp1284
a(g225
(dp1285
g225
F1.0
s(lp1286
(g225
I19
tp1287
atp1288
as.