(dp0
S'fr'
p1
(lp2
(S'dans'
p3
(dp4
S'NOUN'
p5
F0.001266
sS'ADP'
p6
F0.998734
s(lp7
(S'in'
p8
I0
tp9
atp10
a(S"l'"
p11
(dp12
S'ADJ'
p13
F0.160847
sS'VERB'
p14
F0.06560499999999998
sS'NOUN'
p15
F0.773549
s(lp16
(S'the'
p17
I1
tp18
atp19
a(S'\xc3\xa9tat'
p20
(dp21
S'NOUN'
p22
F1.0
s(lp23
tp24
a(S'actuel'
p25
(dp26
S'ADJ'
p27
F1.0
s(lp28
(S'current'
p29
I2
tp30
atp31
a(S'des'
p32
(dp33
S'DET'
p34
F2.2e-05
sS'ADP'
p35
F0.999978
s(lp36
tp37
a(S'choses'
p38
(dp39
S'VERB'
p40
F0.0
sS'NOUN'
p41
F1.0
s(lp42
(S'situation'
p43
I3
tp44
atp45
a(S','
p46
(dp47
S'.'
p48
F1.0
s(lp49
(g46
I4
tp50
atp51
a(S'il'
p52
(dp53
S'PRON'
p54
F1.0
s(lp55
(S'it'
p56
I5
tp57
atp58
a(S'est'
p59
(dp60
S'VERB'
p61
F0.999978
sS'NOUN'
p62
F2.2e-05
s(lp63
(S'is'
p64
I6
tp65
atp66
a(S'impensable'
p67
(dp68
S'ADJ'
p69
F1.0
s(lp70
(S'possible'
p71
I8
tp72
atp73
a(g46
(dp74
g48
F1.0
s(lp75
(g46
I9
tp76
atp77
a(S'avec'
p78
(dp79
S'ADV'
p80
F0.012557
sS'ADP'
p81
F0.987443
s(lp82
(S'with'
p83
I10
tp84
atp85
a(S'la'
p86
(dp87
S'PRON'
p88
F3.4e-05
sS'DET'
p89
F0.99995
sS'NOUN'
p90
F1.7e-05
s(lp91
(S'the'
p92
I11
tp93
atp94
a(S'meilleure'
p95
(dp96
S'ADJ'
p97
F1.0
s(lp98
(S'best'
p99
I12
tp100
atp101
a(S'volont\xc3\xa9'
p102
(dp103
S'NOUN'
p104
F1.0
s(lp105
(S'will'
p106
I13
tp107
atp108
a(S'du'
p109
(dp110
S'ADP'
p111
F1.0
s(lp112
(S'the'
p113
I15
tp114
atp115
a(S'monde'
p116
(dp117
S'ADJ'
p118
F0.005187
sS'VERB'
p119
F0.0
sS'NOUN'
p120
F0.994813
s(lp121
(S'world'
p122
I16
tp123
atp124
a(g46
(dp125
g48
F1.0
s(lp126
(g46
I17
tp127
atp128
a(S"d'"
p129
(dp130
S'ADJ'
p131
F0.13429
sS'VERB'
p132
F0.638201
sS'NOUN'
p133
F0.227509
s(lp134
(S'to'
p135
I18
tp136
atp137
a(S'imaginer'
p138
(dp139
S'VERB'
p140
F1.0
s(lp141
(S'imagine'
p142
I19
tp143
atp144
a(S'un'
p145
(dp146
S'NOUN'
p147
F0.000101
sS'NUM'
p148
F0.008029
sS'DET'
p149
F0.991871
s(lp150
(S'a'
p151
I20
tp152
atp153
a(S'march\xc3\xa9'
p154
(dp155
S'VERB'
p156
F0.000595
sS'NOUN'
p157
F0.999405
s(lp158
(S'market'
p159
I25
tp160
atp161
a(S'de'
p162
(dp163
S'ADP'
p164
F1.0
s(lp165
tp166
a(S"l'"
p167
(dp168
S'ADJ'
p169
F0.160704
sS'VERB'
p170
F0.06480800000000002
sS'NOUN'
p171
F0.774488
s(lp172
tp173
a(S'\xc3\xa9lectricit\xc3\xa9'
p174
(dp175
S'NOUN'
p176
F1.0
s(lp177
(S'electricity'
p178
I24
tp179
atp180
a(S'op\xc3\xa9rationnel'
p181
(dp182
S'ADJ'
p183
F1.0
s(lp184
(S'functioning'
p185
I21
tp186
atp187
a(S'et'
p188
(dp189
S'CONJ'
p190
F1.0
s(lp191
(g46
I22
tp192
atp193
a(S'comp\xc3\xa9titif'
p194
(dp195
S'ADJ'
p196
F1.0
s(lp197
(S'competitive'
p198
I23
tp199
atp200
a(S'sans'
p201
(dp202
S'CONJ'
p203
F0.080343
sS'ADP'
p204
F0.919657
s(lp205
(S'without'
p206
I26
tp207
atp208
a(S"l'"
p209
(dp210
S'ADJ'
p211
F0.152456
sS'VERB'
p212
F0.13123
sS'NOUN'
p213
F0.716312
s(lp214
(S'the'
p215
I27
tp216
atp217
a(S'apport'
p218
(dp219
S'NOUN'
p220
F1.0
s(lp221
(S'contribution'
p222
I28
tp223
atp224
a(S'de'
p225
(dp226
S'ADP'
p227
F1.0
s(lp228
(S'of'
p229
I29
tp230
atp231
a(S"l'"
p232
(dp233
S'ADJ'
p234
F0.160704
sS'VERB'
p235
F0.06480800000000002
sS'NOUN'
p236
F0.774488
s(lp237
tp238
a(S'\xc3\xa9nergie'
p239
(dp240
S'NOUN'
p241
F1.0
s(lp242
(S'energy'
p243
I31
tp244
atp245
a(S'nucl\xc3\xa9aire'
p246
(dp247
S'NOUN'
p248
F0.017214
sS'ADJ'
p249
F0.982786
s(lp250
(S'nuclear'
p251
I30
tp252
atp253
a(S'dans'
p254
(dp255
S'NOUN'
p256
F8.6e-05
sS'ADP'
p257
F0.999914
s(lp258
(S'in'
p259
I32
tp260
atp261
a(S'le'
p262
(dp263
S'PRON'
p264
F0.001285
sS'DET'
p265
F0.998715
s(lp266
tp267
a(S'cadre'
p268
(dp269
S'VERB'
p270
F0.0013130000000000001
sS'NOUN'
p271
F0.998687
s(lp272
tp273
a(S"d'"
p274
(dp275
S'NOUN'
p276
F0.032514
sS'VERB'
p277
F0.694153
sS'ADJ'
p278
F0.273333
s(lp279
tp280
a(S'un'
p281
(dp282
S'NOUN'
p283
F6e-05
sS'NUM'
p284
F0.025531
sS'DET'
p285
F0.974409
s(lp286
(g151
I33
tp287
atp288
a(S'bouquet'
p289
(dp290
S'NOUN'
p291
F1.0
s(lp292
(S'mix'
p293
I36
tp294
atp295
a(S'\xc3\xa9nerg\xc3\xa9tique'
p296
(dp297
S'NOUN'
p298
F0.012186
sS'ADJ'
p299
F0.987814
s(lp300
(S'energy'
p301
I35
tp302
atp303
a(g46
(dp304
g48
F1.0
s(lp305
(g46
I37
tp306
atp307
a(S'que'
p308
(dp309
S'ADV'
p310
F0.006438
sS'PRON'
p311
F0.06999899999999999
sS'CONJ'
p312
F0.923563
s(lp313
(S'whether'
p314
I38
tp315
atp316
a(S'cela'
p317
(dp318
S'PRON'
p319
F0.99472
sS'VERB'
p320
F0.00528
s(lp321
tp322
a(S'nous'
p323
(dp324
S'PRON'
p325
F1.0
s(lp326
(S'we'
p327
I39
tp328
atp329
a(S'plaise'
p330
(dp331
S'VERB'
p332
F1.0
s(lp333
(S'like'
p334
I40
tp335
atp336
a(S'ou'
p337
(dp338
S'CONJ'
p339
F1.0
s(lp340
(S'or'
p341
I42
tp342
atp343
a(S'non'
p344
(dp345
S'ADV'
p346
F0.609896
sS'X'
p347
F0.390104
s(lp348
(S'not'
p349
I43
tp350
atp351
a(g48
(dp352
g48
F1.0
s(lp353
(g48
I44
tp354
atp355
asS'en'
p356
(lp357
(g8
(dp358
S'ADV'
p359
F0.001492
sS'PRT'
p360
F0.0
sS'ADP'
p361
F0.998508
s(lp362
(g8
I0
tp363
atp364
a(g17
(dp365
S'NOUN'
p366
F1e-06
sS'DET'
p367
F0.999999
s(lp368
(g17
I1
tp369
atp370
a(g29
(dp371
S'NOUN'
p372
F0.007799
sS'ADJ'
p373
F0.992201
s(lp374
(g29
I2
tp375
atp376
a(g43
(dp377
S'NOUN'
p378
F1.0
s(lp379
(g43
I3
tp380
atp381
a(g46
(dp382
g48
F1.0
s(lp383
(g46
I4
tp384
atp385
a(g56
(dp386
S'PRON'
p387
F1.0
s(lp388
(g56
I5
tp389
atp390
a(g64
(dp391
S'VERB'
p392
F1.0
s(lp393
(g64
I6
tp394
atp395
a(S'not'
p396
(dp397
S'ADV'
p398
F1.0
s(lp399
(g396
I7
tp400
atp401
a(g71
(dp402
S'ADV'
p403
F0.075439
sS'NOUN'
p404
F0.000428
sS'ADJ'
p405
F0.924133
s(lp406
(g71
I8
tp407
atp408
a(g46
(dp409
g48
F1.0
s(lp410
(g46
I9
tp411
atp412
a(g83
(dp413
S'ADP'
p414
F1.0
s(lp415
(g83
I10
tp416
atp417
a(g92
(dp418
S'NOUN'
p419
F0.0
sS'DET'
p420
F1.0
s(lp421
(g92
I11
tp422
atp423
a(g99
(dp424
S'ADV'
p425
F0.097093
sS'VERB'
p426
F1e-05
sS'ADJ'
p427
F0.902897
s(lp428
(g99
I12
tp429
atp430
a(g106
(dp431
S'VERB'
p432
F0.118014
sS'NOUN'
p433
F0.881986
s(lp434
(g106
I13
tp435
atp436
a(S'in'
p437
(dp438
S'ADV'
p439
F0.038467
sS'PRT'
p440
F0.00052
sS'ADP'
p441
F0.961013
s(lp442
(g437
I14
tp443
atp444
a(g113
(dp445
S'NOUN'
p446
F1e-06
sS'DET'
p447
F0.999999
s(lp448
(g113
I15
tp449
atp450
a(g122
(dp451
S'NOUN'
p452
F1.0
s(lp453
(g122
I16
tp454
atp455
a(g46
(dp456
g48
F1.0
s(lp457
(g46
I17
tp458
atp459
a(g135
(dp460
S'ADV'
p461
F1e-06
sS'PRT'
p462
F0.999999
sS'ADP'
p463
F0.0
s(lp464
(g135
I18
tp465
atp466
a(g142
(dp467
S'VERB'
p468
F1.0
s(lp469
(g142
I19
tp470
atp471
a(g151
(dp472
S'NOUN'
p473
F0.0
sS'DET'
p474
F1.0
s(lp475
(g151
I20
tp476
atp477
a(g185
(dp478
S'VERB'
p479
F0.078539
sS'NOUN'
p480
F0.921461
s(lp481
(g185
I21
tp482
atp483
a(g46
(dp484
g48
F1.0
s(lp485
(g46
I22
tp486
atp487
a(g198
(dp488
S'ADJ'
p489
F1.0
s(lp490
(g198
I23
tp491
atp492
a(g178
(dp493
S'NOUN'
p494
F1.0
s(lp495
(g178
I24
tp496
atp497
a(g159
(dp498
S'VERB'
p499
F0.000421
sS'NOUN'
p500
F0.999579
s(lp501
(g159
I25
tp502
atp503
a(g206
(dp504
S'ADP'
p505
F1.0
s(lp506
(g206
I26
tp507
atp508
a(g215
(dp509
S'NOUN'
p510
F1e-06
sS'DET'
p511
F0.999999
s(lp512
(g215
I27
tp513
atp514
a(g222
(dp515
S'NOUN'
p516
F1.0
s(lp517
(g222
I28
tp518
atp519
a(g229
(dp520
S'ADP'
p521
F1.0
s(lp522
(g229
I29
tp523
atp524
a(g251
(dp525
S'ADJ'
p526
F1.0
s(lp527
(g251
I30
tp528
atp529
a(g243
(dp530
S'NOUN'
p531
F1.0
s(lp532
(g243
I31
tp533
atp534
a(g259
(dp535
S'ADV'
p536
F0.000191
sS'PRT'
p537
F0.000279
sS'ADP'
p538
F0.999531
s(lp539
(g259
I32
tp540
atp541
a(g151
(dp542
S'NOUN'
p543
F0.0
sS'DET'
p544
F1.0
s(lp545
(g151
I33
tp546
atp547
a(S'balanced'
p548
(dp549
S'VERB'
p550
F0.019073999999999997
sS'ADJ'
p551
F0.980925
s(lp552
(g548
I34
tp553
atp554
a(g301
(dp555
S'NOUN'
p556
F1.0
s(lp557
(g301
I35
tp558
atp559
a(g293
(dp560
S'VERB'
p561
F0.001554
sS'NOUN'
p562
F0.998445
s(lp563
(g293
I36
tp564
atp565
a(g46
(dp566
g48
F1.0
s(lp567
(g46
I37
tp568
atp569
a(g314
(dp570
S'CONJ'
p571
F0.017317
sS'ADP'
p572
F0.982683
s(lp573
(g314
I38
tp574
atp575
a(g327
(dp576
S'PRON'
p577
F1.0
s(lp578
(g327
I39
tp579
atp580
a(g334
(dp581
S'VERB'
p582
F0.9842040000000001
sS'ADJ'
p583
F2e-06
sS'ADP'
p584
F0.015794
s(lp585
(g334
I40
tp586
atp587
a(S'it'
p588
(dp589
S'PRON'
p590
F1.0
s(lp591
(g588
I41
tp592
atp593
a(g341
(dp594
S'CONJ'
p595
F1.0
sS'ADJ'
p596
F0.0
s(lp597
(g341
I42
tp598
atp599
a(g349
(dp600
S'ADV'
p601
F1.0
s(lp602
(g349
I43
tp603
atp604
a(g48
(dp605
g48
F1.0
s(lp606
(g48
I44
tp607
atp608
asS'nl'
p609
(lp610
(S'of'
p611
(dp612
S'CONJ'
p613
F1.0
s(lp614
(g314
I38
tp615
atp616
a(S'we'
p617
(dp618
S'PRON'
p619
F1.0
s(lp620
(g327
I39
tp621
atp622
a(S'dat'
p623
(dp624
S'PRON'
p625
F0.74141
sS'CONJ'
p626
F0.258591
s(lp627
tp628
a(S'nu'
p629
(dp630
S'ADV'
p631
F0.997031
sS'CONJ'
p632
F0.000999
sS'NOUN'
p633
F0.00197
s(lp634
(g588
I41
tp635
atp636
a(S'willen'
p637
(dp638
S'VERB'
p639
F0.999423
sS'NOUN'
p640
F0.000577
s(lp641
(g334
I40
tp642
atp643
a(S'of'
p644
(dp645
S'CONJ'
p646
F1.0
s(lp647
(g341
I42
tp648
atp649
a(S'niet'
p650
(dp651
S'ADV'
p652
F0.999991
sS'PRON'
p653
F4e-06
sS'VERB'
p654
F5e-06
sg347
F0.0
s(lp655
(g349
I43
tp656
atp657
a(g46
(dp658
g48
F1.0
s(lp659
(g46
I37
tp660
atp661
a(S'tegenwoordig'
p662
(dp663
S'ADJ'
p664
F1.0
s(lp665
(g29
I2
tp666
atp667
a(S'is'
p668
(dp669
S'VERB'
p670
F1.0
s(lp671
(g64
I6
tp672
atp673
a(S'er'
p674
(dp675
S'ADV'
p676
F1.0
s(lp677
(g56
I5
tp678
atp679
a(S'met'
p680
(dp681
S'ADP'
p682
F1.0
s(lp683
(g83
I10
tp684
atp685
a(S'de'
p686
(dp687
S'DET'
p688
F1.0
s(lp689
(g92
I11
tp690
atp691
a(S'beste'
p692
(dp693
S'NOUN'
p694
F0.032002
sS'ADJ'
p695
F0.967998
s(lp696
(g99
I12
tp697
atp698
a(S'wil'
p699
(dp700
S'VERB'
p701
F0.082973
sS'NOUN'
p702
F0.917027
s(lp703
(g106
I13
tp704
atp705
a(S'van'
p706
(dp707
S'ADP'
p708
F1.0
s(lp709
(g437
I14
tp710
atp711
a(S'de'
p712
(dp713
S'DET'
p714
F1.0
s(lp715
(g113
I15
tp716
atp717
a(S'wereld'
p718
(dp719
S'NOUN'
p720
F1.0
s(lp721
(g122
I16
tp722
atp723
a(S'geen'
p724
(dp725
S'PRON'
p726
F0.999897
sS'DET'
p727
F0.000103
s(lp728
(g151
I20
tp729
atp730
a(S'goed'
p731
(dp732
S'ADV'
p733
F7e-05
sS'ADJ'
p734
F0.003315
sS'NOUN'
p735
F0.996615
s(lp736
tp737
a(S'functionerende'
p738
(dp739
S'VERB'
p740
F0.996573
sS'NOUN'
p741
F0.003427
s(lp742
(g185
I21
tp743
atp744
a(S'en'
p745
(dp746
S'CONJ'
p747
F1.0
s(lp748
(g46
I22
tp749
atp750
a(S'concurrerende'
p751
(dp752
S'NOUN'
p753
F0.000112
sS'VERB'
p754
F0.309062
sS'ADJ'
p755
F0.690826
s(lp756
(g198
I23
tp757
atp758
a(S'energiemarkt'
p759
(dp760
S'NOUN'
p761
F1.0
s(lp762
(g178
I24
tp763
atp764
a(S'denkbaar'
p765
(dp766
S'ADJ'
p767
F1.0
s(lp768
(g142
I19
tp769
atp770
a(S'zonder'
p771
(dp772
S'CONJ'
p773
F0.000954
sS'ADP'
p774
F0.999046
s(lp775
(g206
I26
tp776
atp777
a(S'de'
p778
(dp779
S'DET'
p780
F1.0
s(lp781
(g215
I27
tp782
atp783
a(S'bijdrage'
p784
(dp785
S'NOUN'
p786
F1.0
s(lp787
(g222
I28
tp788
atp789
a(S'van'
p790
(dp791
S'ADP'
p792
F1.0
s(lp793
(g229
I29
tp794
atp795
a(S'kernenergie'
p796
(dp797
S'NOUN'
p798
F1.0
s(lp799
(g251
I30
tp800
atp801
a(S'aan'
p802
(dp803
S'ADV'
p804
F0.007798
sS'ADP'
p805
F0.992202
s(lp806
(g259
I32
tp807
atp808
a(S'een'
p809
(dp810
S'ADJ'
p811
F1e-06
sS'PRON'
p812
F0.000525
sS'NUM'
p813
F1e-06
sS'DET'
p814
F0.999474
s(lp815
(g151
I33
tp816
atp817
a(S'evenwichtige'
p818
(dp819
S'NOUN'
p820
F0.000388
sS'ADJ'
p821
F0.999612
s(lp822
(g548
I34
tp823
atp824
a(S'energiemix'
p825
(dp826
S'NOUN'
p827
F1.0
s(lp828
(g293
I36
tp829
atp830
a(g48
(dp831
g48
F1.0
s(lp832
(g48
I44
tp833
atp834
asS'de'
p835
(lp836
(S'in'
p837
(dp838
S'ADP'
p839
F1.0
s(lp840
(g8
I0
tp841
atp842
a(S'der'
p843
(dp844
S'PRON'
p845
F6.7e-05
sS'DET'
p846
F0.999928
s(lp847
(g17
I1
tp848
atp849
a(S'aktuellen'
p850
(dp851
S'ADJ'
p852
F1.0
s(lp853
(g29
I2
tp854
atp855
a(S'situation'
p856
(dp857
S'ADJ'
p858
F0.004664
sS'NOUN'
p859
F0.991592
s(lp860
(g43
I3
tp861
atp862
a(S'ist'
p863
(dp864
S'VERB'
p865
F1.0
s(lp866
(g64
I6
tp867
atp868
a(S'es'
p869
(dp870
S'PRON'
p871
F1.0
s(lp872
(g56
I5
tp873
atp874
a(S'bei'
p875
(dp876
S'PRT'
p877
F0.001639
sS'ADP'
p878
F0.998361
s(lp879
(g83
I10
tp880
atp881
a(S'bestem'
p882
(dp883
S'ADJ'
p884
F1.0
s(lp885
(g99
I12
tp886
atp887
a(S'willen'
p888
(dp889
S'ADP'
p890
F1.0
s(lp891
(g106
I13
tp892
atp893
a(S'nicht'
p894
(dp895
S'PRT'
p896
F1.0
s(lp897
(g396
I7
tp898
atp899
a(S'm\xc3\xb6glich'
p900
(dp901
S'ADJ'
p902
F1.0
s(lp903
(g71
I8
tp904
atp905
a(g46
(dp906
g48
F1.0
s(lp907
(g46
I17
tp908
atp909
a(S'sich'
p910
(dp911
S'PRON'
p912
F1.0
s(lp913
tp914
a(S'einen'
p915
(dp916
S'PRON'
p917
F0.001047
sS'DET'
p918
F0.998251
s(lp919
(g151
I20
tp920
atp921
a(S'funktionierenden'
p922
(dp923
S'ADJ'
p924
F1.0
s(lp925
(g185
I21
tp926
atp927
a(g46
(dp928
g48
F1.0
s(lp929
(g46
I22
tp930
atp931
a(S'auf'
p932
(dp933
S'ADV'
p934
F0.000239
sS'ADP'
p935
F0.999538
s(lp936
(g135
I18
tp937
atp938
a(S'wettbewerb'
p939
(dp940
S'NOUN'
p941
F0.272713
sS'ADJ'
p942
F0.62925
s(lp943
tp944
a(S'beruhenden'
p945
(dp946
S'ADJ'
p947
F1.0
s(lp948
(g198
I23
tp949
atp950
a(S'strommarkt'
p951
(dp952
S'ADJ'
p953
F0.002406
sS'NOUN'
p954
F0.994433
s(lp955
(g178
I24
tp956
atp957
a(S'ohne'
p958
(dp959
S'CONJ'
p960
F3.7e-05
sS'ADP'
p961
F0.999963
s(lp962
(g206
I26
tp963
atp964
a(S'den'
p965
(dp966
S'PRON'
p967
F0.000228
sS'DET'
p968
F0.999771
s(lp969
(g215
I27
tp970
atp971
a(S'beitrag'
p972
(dp973
S'ADJ'
p974
F0.007636
sS'NOUN'
p975
F0.983699
s(lp976
(g222
I28
tp977
atp978
a(S'der'
p979
(dp980
S'PRON'
p981
F7e-05
sS'DET'
p982
F0.999861
s(lp983
(g229
I29
tp984
atp985
a(S'kernenergie'
p986
(dp987
S'ADJ'
p988
F0.018939
sS'NOUN'
p989
F0.963078
s(lp990
(g251
I30
tp991
atp992
a(S'in'
p993
(dp994
S'ADP'
p995
F1.0
s(lp996
(g259
I32
tp997
atp998
a(S'einem'
p999
(dp1000
S'PRON'
p1001
F0.000606
sS'DET'
p1002
F0.999245
s(lp1003
(g151
I33
tp1004
atp1005
a(S'ausgewogenen'
p1006
(dp1007
S'ADJ'
p1008
F1.0
s(lp1009
(g548
I34
tp1010
atp1011
a(S'energiemix'
p1012
(dp1013
S'ADJ'
p1014
F0.990812
s(lp1015
(g293
I36
tp1016
atp1017
a(S'vorzustellen'
p1018
(dp1019
S'VERB'
p1020
F1.0
s(lp1021
(g142
I19
tp1022
atp1023
a(g46
(dp1024
g48
F1.0
s(lp1025
(g46
I37
tp1026
atp1027
a(S'ob'
p1028
(dp1029
S'ADV'
p1030
F2.3e-05
sS'CONJ'
p1031
F0.999961
s(lp1032
(g314
I38
tp1033
atp1034
a(S'es'
p1035
(dp1036
S'PRON'
p1037
F1.0
s(lp1038
(g588
I41
tp1039
atp1040
a(S'uns'
p1041
(dp1042
S'PRON'
p1043
F1.0
s(lp1044
(g327
I39
tp1045
atp1046
a(S'gef\xc3\xa4llt'
p1047
(dp1048
S'VERB'
p1049
F1.0
s(lp1050
(g334
I40
tp1051
atp1052
a(S'oder'
p1053
(dp1054
S'CONJ'
p1055
F1.0
s(lp1056
(g341
I42
tp1057
atp1058
a(S'nicht'
p1059
(dp1060
S'PRT'
p1061
F1.0
s(lp1062
(g349
I43
tp1063
atp1064
a(g48
(dp1065
g48
F1.0
s(lp1066
(g48
I44
tp1067
atp1068
asS'it'
p1069
(lp1070
(S"nell'"
p1071
(dp1072
S'ADJ'
p1073
F0.001299
sS'VERB'
p1074
F0.029079
sS'NOUN'
p1075
F0.969622
s(lp1076
(g8
I0
tp1077
atp1078
a(S'attuale'
p1079
(dp1080
S'VERB'
p1081
F0.001393
sS'ADJ'
p1082
F0.998607
s(lp1083
(g29
I2
tp1084
atp1085
a(S'situazione'
p1086
(dp1087
S'NOUN'
p1088
F1.0
s(lp1089
(g43
I3
tp1090
atp1091
a(g46
(dp1092
g48
F1.0
s(lp1093
(g46
I4
tp1094
atp1095
a(S'non'
p1096
(dp1097
S'ADV'
p1098
F1.0
s(lp1099
(g396
I7
tp1100
atp1101
a(S'\xc3\xa8'
p1102
(dp1103
S'VERB'
p1104
F1.0
s(lp1105
(g64
I6
tp1106
atp1107
a(S'possibile'
p1108
(dp1109
S'NOUN'
p1110
F0.003185
sS'ADJ'
p1111
F0.996815
s(lp1112
(g71
I8
tp1113
atp1114
a(g46
(dp1115
g48
F1.0
s(lp1116
(g46
I9
tp1117
atp1118
a(S'con'
p1119
(dp1120
S'ADP'
p1121
F1.0
s(lp1122
(g83
I10
tp1123
atp1124
a(S'la'
p1125
(dp1126
S'PRON'
p1127
F0.00117
sS'DET'
p1128
F0.99883
s(lp1129
(g92
I11
tp1130
atp1131
a(S'migliore'
p1132
(dp1133
S'NOUN'
p1134
F0.028619
sS'ADJ'
p1135
F0.971381
s(lp1136
(g99
I12
tp1137
atp1138
a(S'volont\xc3\xa0'
p1139
(dp1140
S'NOUN'
p1141
F1.0
s(lp1142
(g106
I13
tp1143
atp1144
a(S'del'
p1145
(dp1146
S'DEF'
p1147
F0.001269
sS'ADP'
p1148
F0.998731
s(lp1149
(g113
I15
tp1150
atp1151
a(S'mondo'
p1152
(dp1153
S'ADJ'
p1154
F0.014143
sS'VERB'
p1155
F2e-06
sS'NOUN'
p1156
F0.985854
s(lp1157
(g122
I16
tp1158
atp1159
a(g46
(dp1160
g48
F1.0
s(lp1161
(g46
I17
tp1162
atp1163
a(S'immaginare'
p1164
(dp1165
S'VERB'
p1166
F1.0
s(lp1167
(g142
I19
tp1168
atp1169
a(S'un'
p1170
(dp1171
S'PRON'
p1172
F0.001879
sS'DEF'
p1173
F0.998121
s(lp1174
(g151
I20
tp1175
atp1176
a(S'mercato'
p1177
(dp1178
S'NOUN'
p1179
F1.0
s(lp1180
(g159
I25
tp1181
atp1182
a(S"dell'"
p1183
(dp1184
S'ADJ'
p1185
F0.040682
sS'VERB'
p1186
F0.006560999999999999
sS'NOUN'
p1187
F0.952757
s(lp1188
tp1189
a(S'elettricit\xc3\xa0'
p1190
(dp1191
S'NOUN'
p1192
F1.0
s(lp1193
(g178
I24
tp1194
atp1195
a(S'funzionante'
p1196
(dp1197
S'VERB'
p1198
F0.183118
sS'ADJ'
p1199
F0.816882
s(lp1200
(g185
I21
tp1201
atp1202
a(S'e'
p1203
(dp1204
S'CONJ'
p1205
F1.0
s(lp1206
(g46
I22
tp1207
atp1208
a(S'competitivo'
p1209
(dp1210
S'ADJ'
p1211
F1.0
s(lp1212
(g198
I23
tp1213
atp1214
a(S'senza'
p1215
(dp1216
S'CONJ'
p1217
F0.329796
sS'ADP'
p1218
F0.670204
s(lp1219
(g206
I26
tp1220
atp1221
a(S'il'
p1222
(dp1223
S'DET'
p1224
F1.0
s(lp1225
(g215
I27
tp1226
atp1227
a(S'contributo'
p1228
(dp1229
S'NOUN'
p1230
F1.0
s(lp1231
(g222
I28
tp1232
atp1233
a(S"dell'"
p1234
(dp1235
S'ADJ'
p1236
F0.040682
sS'VERB'
p1237
F0.006560999999999999
sS'NOUN'
p1238
F0.952757
s(lp1239
(g229
I29
tp1240
atp1241
a(S'energia'
p1242
(dp1243
S'NOUN'
p1244
F1.0
s(lp1245
(g243
I31
tp1246
atp1247
a(S'nucleare'
p1248
(dp1249
S'NOUN'
p1250
F0.007873
sS'ADJ'
p1251
F0.992127
s(lp1252
(g251
I30
tp1253
atp1254
a(S'in'
p1255
(dp1256
S'ADP'
p1257
F1.0
s(lp1258
(g259
I32
tp1259
atp1260
a(S'un'
p1261
(dp1262
S'PRON'
p1263
F0.00267
sS'DEF'
p1264
F0.99733
s(lp1265
(g151
I33
tp1266
atp1267
a(S'mix'
p1268
(dp1269
S'NOUN'
p1270
F1.0
s(lp1271
(g293
I36
tp1272
atp1273
a(S'energetico'
p1274
(dp1275
S'ADJ'
p1276
F1.0
s(lp1277
(g301
I35
tp1278
atp1279
a(S'equilibrato'
p1280
(dp1281
S'VERB'
p1282
F0.462621
sS'ADJ'
p1283
F0.537379
s(lp1284
(g548
I34
tp1285
atp1286
a(g46
(dp1287
g48
F1.0
s(lp1288
(g46
I37
tp1289
atp1290
a(S'che'
p1291
(dp1292
S'PRON'
p1293
F0.957286
sS'CONJ'
p1294
F0.042704
sS'ADJ'
p1295
F1e-05
s(lp1296
(g314
I38
tp1297
atp1298
a(S'ci'
p1299
(dp1300
S'ADV'
p1301
F3.5e-05
sS'PRON'
p1302
F0.9999629999999999
sS'NOUN'
p1303
F1e-06
s(lp1304
(g327
I39
tp1305
atp1306
a(S'piaccia'
p1307
(dp1308
S'VERB'
p1309
F1.0
s(lp1310
(g334
I40
tp1311
atp1312
a(S'o'
p1313
(dp1314
g347
F0.00056
sS'CONJ'
p1315
F0.99944
s(lp1316
(g341
I42
tp1317
atp1318
a(S'meno'
p1319
(dp1320
S'ADV'
p1321
F0.991575
sS'NOUN'
p1322
F0.000233
sS'VERB'
p1323
F8.1e-05
sS'ADJ'
p1324
F0.008108
sS'ADP'
p1325
F3e-06
s(lp1326
(g349
I43
tp1327
atp1328
a(g48
(dp1329
g48
F1.0
s(lp1330
(g48
I44
tp1331
atp1332
asS'sk'
p1333
(lp1334
(S'\xc4\x8ci'
p1335
(dp1336
g347
F0.063442
sS'CONJ'
p1337
F0.936558
s(lp1338
tp1339
a(S'u\xc5\xbe'
p1340
(dp1341
S'ADV'
p1342
F0.396185
sg347
F0.602896
sS'CONJ'
p1343
F0.000919
s(lp1344
(g314
I38
tp1345
atp1346
a(S'chceme'
p1347
(dp1348
S'VERB'
p1349
F1.0
s(lp1350
(g327
I39
tp1351
atp1352
a(S'alebo'
p1353
(dp1354
g347
F2.2e-05
sS'CONJ'
p1355
F0.999978
s(lp1356
(g341
I42
tp1357
atp1358
a(S'nie'
p1359
(dp1360
g347
F1.0
s(lp1361
(g349
I43
tp1362
atp1363
a(g46
(dp1364
g48
F1.0
s(lp1365
tp1366
a(S'v'
p1367
(dp1368
g347
F0.000286
sS'ADP'
p1369
F0.999715
s(lp1370
(g8
I0
tp1371
atp1372
a(S'dne\xc5\xa1nej'
p1373
(dp1374
S'ADJ'
p1375
F1.0
s(lp1376
(g29
I2
tp1377
atp1378
a(S'dobe'
p1379
(dp1380
S'NOUN'
p1381
F1.0
s(lp1382
(g43
I3
tp1383
atp1384
a(S'nie'
p1385
(dp1386
g347
F1.0
s(lp1387
tp1388
a(S'je'
p1389
(dp1390
S'PRON'
p1391
F3.1e-05
sS'VERB'
p1392
F0.99996
sg347
F9e-06
s(lp1393
(g64
I6
tp1394
atp1395
a(S'ani'
p1396
(dp1397
g347
F0.963741
sS'CONJ'
p1398
F0.036259
s(lp1399
(g396
I7
tp1400
atp1401
a(S'pri'
p1402
(dp1403
g347
F1.4e-05
sS'VERB'
p1404
F1e-06
sS'ADP'
p1405
F0.999985
s(lp1406
(g83
I10
tp1407
atp1408
a(S'najlep\xc5\xa1ej'
p1409
(dp1410
S'ADJ'
p1411
F1.0
s(lp1412
(g99
I12
tp1413
atp1414
a(S'v\xc3\xb4li'
p1415
(dp1416
S'NOUN'
p1417
F1.0
s(lp1418
(g106
I13
tp1419
atp1420
a(S'mo\xc5\xben\xc3\xa9'
p1421
(dp1422
S'ADJ'
p1423
F1.0
s(lp1424
(g71
I8
tp1425
atp1426
a(S'predstavi\xc5\xa5'
p1427
(dp1428
S'VERB'
p1429
F1.0
s(lp1430
tp1431
a(S'si'
p1432
(dp1433
S'PRT'
p1434
F0.998868
sS'VERB'
p1435
F0.001126
sg347
F6e-06
s(lp1436
(g142
I19
tp1437
atp1438
a(S'funk\xc4\x8dn\xc3\xbd'
p1439
(dp1440
S'ADJ'
p1441
F1.0
s(lp1442
(g185
I21
tp1443
atp1444
a(S'konkuren\xc4\x8dn\xc3\xbd'
p1445
(dp1446
S'ADJ'
p1447
F1.0
s(lp1448
(g198
I23
tp1449
atp1450
a(S'trh'
p1451
(dp1452
S'NOUN'
p1453
F1.0
s(lp1454
(g159
I25
tp1455
atp1456
a(S's'
p1457
(dp1458
g347
F0.002775
sS'CONJ'
p1459
F6.4e-05
sS'NOUN'
p1460
F1.4e-05
sS'ADP'
p1461
F0.997126
sS'PRT'
p1462
F2.1e-05
s(lp1463
tp1464
a(S'energiou'
p1465
(dp1466
S'NOUN'
p1467
F1.0
s(lp1468
(g178
I24
tp1469
atp1470
a(S'bez'
p1471
(dp1472
g347
F0.000393
sS'ADP'
p1473
F0.999607
s(lp1474
(g206
I26
tp1475
atp1476
a(S'prispievania'
p1477
(dp1478
S'VERB'
p1479
F1.4000000000000001e-05
sS'NOUN'
p1480
F0.9999849999999999
s(lp1481
(g222
I28
tp1482
atp1483
a(S'jadrovej'
p1484
(dp1485
S'ADJ'
p1486
F1.0
s(lp1487
(g251
I30
tp1488
atp1489
a(S'energie'
p1490
(dp1491
S'NOUN'
p1492
F1.0
s(lp1493
(g243
I31
tp1494
atp1495
a(S'do'
p1496
(dp1497
g347
F0.00036
sS'ADP'
p1498
F0.999584
sS'PRON'
p1499
F5.4e-05
s(lp1500
(g259
I32
tp1501
atp1502
a(S'vyv\xc3\xa1\xc5\xbeen\xc3\xa9ho'
p1503
(dp1504
S'VERB'
p1505
F1.0
s(lp1506
(g548
I34
tp1507
atp1508
a(S'energetick\xc3\xa9ho'
p1509
(dp1510
S'ADJ'
p1511
F1.0
s(lp1512
(g301
I35
tp1513
atp1514
a(S'mixu'
p1515
(dp1516
S'NOUN'
p1517
F1.0
s(lp1518
(g293
I36
tp1519
atp1520
a(g48
(dp1521
g48
F1.0
s(lp1522
(g48
I44
tp1523
atp1524
asS'pl'
p1525
(lp1526
(S'w'
p1527
(dp1528
S'ADJ'
p1529
F0.0
sg347
F0.0
sS'NOUN'
p1530
F1e-06
sS'ADP'
p1531
F0.999997
s(lp1532
(g8
I0
tp1533
atp1534
a(S'obecnej'
p1535
(dp1536
S'ADJ'
p1537
F1.0
s(lp1538
(g29
I2
tp1539
atp1540
a(S'sytuacji'
p1541
(dp1542
S'NOUN'
p1543
F1.0
s(lp1544
(g43
I3
tp1545
atp1546
a(g46
(dp1547
g347
F0.0
sg48
F1.0
s(lp1548
(g46
I4
tp1549
atp1550
a(S'nawet'
p1551
(dp1552
S'PRT'
p1553
F0.997707
sS'CONJ'
p1554
F0.002293
s(lp1555
(g56
I5
tp1556
atp1557
a(S'przy'
p1558
(dp1559
S'VERB'
p1560
F0.113788
sS'ADP'
p1561
F0.886212
s(lp1562
(g83
I10
tp1563
atp1564
a(S'najlepszej'
p1565
(dp1566
S'ADJ'
p1567
F1.0
s(lp1568
(g99
I12
tp1569
atp1570
a(S'woli'
p1571
(dp1572
S'VERB'
p1573
F0.00103
sS'NOUN'
p1574
F0.99897
s(lp1575
(g106
I13
tp1576
atp1577
a(S'na'
p1578
(dp1579
g347
F1e-06
sS'VERB'
p1580
F0.0
sS'NOUN'
p1581
F0.0
sS'ADP'
p1582
F0.999999
sS'PRT'
p1583
F0.0
s(lp1584
(g437
I14
tp1585
atp1586
a(S'\xc5\x9bwiecie'
p1587
(dp1588
S'NOUN'
p1589
F1.0
s(lp1590
(g122
I16
tp1591
atp1592
a(g46
(dp1593
g347
F1e-06
sg48
F0.999999
s(lp1594
(g46
I17
tp1595
atp1596
a(S'nie'
p1597
(dp1598
S'ADV'
p1599
F2.9e-05
sS'PRT'
p1600
F0.968457
sS'CONJ'
p1601
F0.031504
sS'NOUN'
p1602
F6e-06
sS'PRON'
p1603
F4e-06
s(lp1604
(g396
I7
tp1605
atp1606
a(S'mo\xc5\xbcna'
p1607
(dp1608
S'ADJ'
p1609
F1.0
s(lp1610
(g71
I8
tp1611
atp1612
a(S'sobie'
p1613
(dp1614
S'PRON'
p1615
F1.0
s(lp1616
tp1617
a(S'wyobrazi\xc4\x87'
p1618
(dp1619
S'VERB'
p1620
F1.0
s(lp1621
(g142
I19
tp1622
atp1623
a(S'funkcjonowania'
p1624
(dp1625
S'VERB'
p1626
F0.482057
sS'NOUN'
p1627
F0.517943
s(lp1628
(g185
I21
tp1629
atp1630
a(S'konkurencyjnego'
p1631
(dp1632
S'ADJ'
p1633
F1.0
s(lp1634
(g198
I23
tp1635
atp1636
a(S'rynku'
p1637
(dp1638
S'NOUN'
p1639
F1.0
s(lp1640
(g159
I25
tp1641
atp1642
a(S'energii'
p1643
(dp1644
S'NOUN'
p1645
F1.0
s(lp1646
tp1647
a(S'elektrycznej'
p1648
(dp1649
S'ADJ'
p1650
F1.0
s(lp1651
(g178
I24
tp1652
atp1653
a(S'bez'
p1654
(dp1655
S'NOUN'
p1656
F3e-06
sS'ADP'
p1657
F0.999997
s(lp1658
(g206
I26
tp1659
atp1660
a(S'wk\xc5\x82adu'
p1661
(dp1662
S'NOUN'
p1663
F1.0
s(lp1664
(g222
I28
tp1665
atp1666
a(S'energii'
p1667
(dp1668
S'NOUN'
p1669
F1.0
s(lp1670
(g243
I31
tp1671
atp1672
a(S'j\xc4\x85drowej'
p1673
(dp1674
S'ADJ'
p1675
F1.0
s(lp1676
(g251
I30
tp1677
atp1678
a(g1527
(dp1679
S'NOUN'
p1680
F4.9e-05
sS'ADJ'
p1681
F0.000279
sS'ADP'
p1682
F0.999643
sg347
F2.9e-05
s(lp1683
(g259
I32
tp1684
atp1685
a(S'wywa\xc5\xbcony'
p1686
(dp1687
S'ADV'
p1688
F5e-05
sS'NOUN'
p1689
F0.003974000000000001
sS'VERB'
p1690
F0.01765300000000001
sS'ADJ'
p1691
F0.9783170000000001
s(lp1692
(g548
I34
tp1693
atp1694
a(S'koszyk'
p1695
(dp1696
S'NOUN'
p1697
F1.0
s(lp1698
(g293
I36
tp1699
atp1700
a(S'energetyczny'
p1701
(dp1702
S'ADJ'
p1703
F1.0
s(lp1704
(g301
I35
tp1705
atp1706
a(g46
(dp1707
g347
F0.0
sg48
F1.0
s(lp1708
(g46
I37
tp1709
atp1710
a(S'czy'
p1711
(dp1712
S'PRT'
p1713
F0.750762
sS'CONJ'
p1714
F0.249138
sS'NUM'
p1715
F9.7e-05
sS'NOUN'
p1716
F3e-06
s(lp1717
(g314
I38
tp1718
atp1719
a(S'nam'
p1720
(dp1721
S'PRON'
p1722
F1.0
s(lp1723
(g327
I39
tp1724
atp1725
a(S'si\xc4\x99'
p1726
(dp1727
S'PRT'
p1728
F1.0
s(lp1729
tp1730
a(S'to'
p1731
(dp1732
S'NOUN'
p1733
F0.145676
sS'ADP'
p1734
F0.0
sS'PRT'
p1735
F0.255084
sg347
F1.3e-05
sS'CONJ'
p1736
F0.015221
sS'ADJ'
p1737
F0.5840059999999999
s(lp1738
(g588
I41
tp1739
atp1740
a(S'podoba'
p1741
(dp1742
S'VERB'
p1743
F1.0
s(lp1744
(g334
I40
tp1745
atp1746
a(g46
(dp1747
g347
F0.0
sg48
F1.0
s(lp1748
tp1749
a(S'czy'
p1750
(dp1751
S'PRT'
p1752
F0.337421
sS'CONJ'
p1753
F0.662546
sS'NUM'
p1754
F2.8e-05
sS'NOUN'
p1755
F4e-06
s(lp1756
tp1757
a(S'te\xc5\xbc'
p1758
(dp1759
S'PRT'
p1760
F0.991036
sS'CONJ'
p1761
F0.008964
s(lp1762
(g341
I42
tp1763
atp1764
a(S'nie'
p1765
(dp1766
S'ADV'
p1767
F0.000259
sS'PRT'
p1768
F0.998558
sS'CONJ'
p1769
F0.001054
sS'NOUN'
p1770
F7.1e-05
sS'PRON'
p1771
F5.8e-05
s(lp1772
(g349
I43
tp1773
atp1774
a(g48
(dp1775
g48
F1.0
s(lp1776
(g48
I44
tp1777
atp1778
asS'sl'
p1779
(lp1780
(g1367
(dp1781
S'ADP'
p1782
F1.0
s(lp1783
(g8
I0
tp1784
atp1785
a(S'sedanjih'
p1786
(dp1787
S'ADJ'
p1788
F1.0
s(lp1789
(g29
I2
tp1790
atp1791
a(S'okoli\xc5\xa1\xc4\x8dinah'
p1792
(dp1793
S'NOUN'
p1794
F1.0
s(lp1795
(g43
I3
tp1796
atp1797
a(S'si'
p1798
(dp1799
S'PRON'
p1800
F0.975895
sS'VERB'
p1801
F0.024105
s(lp1802
(g142
I19
tp1803
atp1804
a(S'niti'
p1805
(dp1806
S'PRT'
p1807
F0.87985
sS'CONJ'
p1808
F0.06612
sS'NOUN'
p1809
F0.05403
s(lp1810
tp1811
a(S'z'
p1812
(dp1813
S'ADP'
p1814
F1.0
s(lp1815
(g83
I10
tp1816
atp1817
a(S'najbolj\xc5\xa1o'
p1818
(dp1819
S'ADJ'
p1820
F1.0
s(lp1821
(g99
I12
tp1822
atp1823
a(S'voljo'
p1824
(dp1825
S'NOUN'
p1826
F1.0
s(lp1827
(g106
I13
tp1828
atp1829
a(S'brez'
p1830
(dp1831
S'ADP'
p1832
F1.0
s(lp1833
(g206
I26
tp1834
atp1835
a(S'prispevka'
p1836
(dp1837
S'NOUN'
p1838
F1.0
s(lp1839
(g222
I28
tp1840
atp1841
a(S'jedrske'
p1842
(dp1843
S'ADJ'
p1844
F1.0
s(lp1845
(g251
I30
tp1846
atp1847
a(S'energije'
p1848
(dp1849
S'NOUN'
p1850
F1.0
s(lp1851
(g243
I31
tp1852
atp1853
a(g1367
(dp1854
S'ADP'
p1855
F1.0
s(lp1856
(g259
I32
tp1857
atp1858
a(S'uravnote\xc5\xbeeni'
p1859
(dp1860
S'ADJ'
p1861
F1.0
s(lp1862
(g548
I34
tp1863
atp1864
a(S'me\xc5\xa1anici'
p1865
(dp1866
S'NOUN'
p1867
F1.0
s(lp1868
tp1869
a(S'energetskih'
p1870
(dp1871
S'ADJ'
p1872
F1.0
s(lp1873
(g301
I35
tp1874
atp1875
a(S'virov'
p1876
(dp1877
S'NOUN'
p1878
F1.0
s(lp1879
(g293
I36
tp1880
atp1881
a(S'na'
p1882
(dp1883
S'ADP'
p1884
F1.0
s(lp1885
(g437
I14
tp1886
atp1887
a(S'svetu'
p1888
(dp1889
S'NOUN'
p1890
F1.0
s(lp1891
(g122
I16
tp1892
atp1893
a(S'ni'
p1894
(dp1895
S'VERB'
p1896
F1.0
s(lp1897
(g396
I7
tp1898
atp1899
a(S'mogo\xc4\x8de'
p1900
(dp1901
S'ADV'
p1902
F0.006206
sS'ADJ'
p1903
F0.993793
s(lp1904
(g71
I8
tp1905
atp1906
a(S'predstavljati'
p1907
(dp1908
S'VERB'
p1909
F1.0
s(lp1910
(g142
I19
tp1911
atp1912
a(S'delujo\xc4\x8dega'
p1913
(dp1914
S'NOUN'
p1915
F0.004653
sS'VERB'
p1916
F0.381689
sS'ADJ'
p1917
F0.6095809999999998
sS'NUM'
p1918
F0.004078
s(lp1919
(g185
I21
tp1920
atp1921
a(g46
(dp1922
g48
F1.0
s(lp1923
(g46
I22
tp1924
atp1925
a(S'konkuren\xc4\x8dnega'
p1926
(dp1927
S'ADJ'
p1928
F1.0
s(lp1929
(g198
I23
tp1930
atp1931
a(S'trga'
p1932
(dp1933
S'VERB'
p1934
F7.7e-05
sS'NOUN'
p1935
F0.9999239999999999
s(lp1936
(g159
I25
tp1937
atp1938
a(g1812
(dp1939
S'ADP'
p1940
F1.0
s(lp1941
(g178
I24
tp1942
atp1943
a(S'elektri\xc4\x8dno'
p1944
(dp1945
S'ADV'
p1946
F1.2e-05
sS'ADJ'
p1947
F0.999988
s(lp1948
tp1949
a(S'energijo'
p1950
(dp1951
S'NOUN'
p1952
F1.0
s(lp1953
(g178
I24
tp1954
atp1955
a(g46
(dp1956
g48
F1.0
s(lp1957
(g46
I4
tp1958
atp1959
a(S'pa'
p1960
(dp1961
g347
F0.000216
sS'CONJ'
p1962
F0.999784
s(lp1963
(g46
I37
tp1964
atp1965
a(S'\xc4\x8de'
p1966
(dp1967
S'CONJ'
p1968
F1.0
s(lp1969
(g314
I38
tp1970
atp1971
a(S'nam'
p1972
(dp1973
S'PRON'
p1974
F0.999903
sg347
F9.7e-05
s(lp1975
(g327
I39
tp1976
atp1977
a(S'je'
p1978
(dp1979
S'PRON'
p1980
F3.8e-05
sS'VERB'
p1981
F0.999961
sg347
F1e-06
s(lp1982
(g64
I6
tp1983
atp1984
a(S'to'
p1985
(dp1986
S'PRON'
p1987
F0.999995
sg347
F5e-06
s(lp1988
(g588
I41
tp1989
atp1990
a(S'v\xc5\xa1e\xc4\x8d'
p1991
(dp1992
S'ADV'
p1993
F1.0
s(lp1994
(g334
I40
tp1995
atp1996
a(S'ali'
p1997
(dp1998
S'ADV'
p1999
F0.124089
sS'CONJ'
p2000
F0.875911
s(lp2001
(g341
I42
tp2002
atp2003
a(S'ne'
p2004
(dp2005
S'PRT'
p2006
F0.994754
sS'CONJ'
p2007
F0.002068
sg347
F0.003179
s(lp2008
(g349
I43
tp2009
atp2010
a(g48
(dp2011
g48
F1.0
s(lp2012
(g48
I44
tp2013
atp2014
asS'es'
p2015
(lp2016
(S'en'
p2017
(dp2018
g347
F7e-06
sS'CONJ'
p2019
F2e-06
sS'ADP'
p2020
F0.999992
s(lp2021
(g8
I0
tp2022
atp2023
a(S'la'
p2024
(dp2025
g347
F3e-06
sS'PRON'
p2026
F0.0
sS'DET'
p2027
F0.999997
sS'NOUN'
p2028
F0.0
s(lp2029
(g17
I1
tp2030
atp2031
a(S'situaci\xc3\xb3n'
p2032
(dp2033
S'NOUN'
p2034
F1.0
s(lp2035
(g43
I3
tp2036
atp2037
a(S'actual'
p2038
(dp2039
g347
F0.001373
sS'ADJ'
p2040
F0.998627
s(lp2041
(g29
I2
tp2042
atp2043
a(S'y'
p2044
(dp2045
g347
F0.000305
sS'CONJ'
p2046
F0.999695
s(lp2047
(g46
I4
tp2048
atp2049
a(S'por'
p2050
(dp2051
S'ADP'
p2052
F1.0
s(lp2053
(g56
I5
tp2054
atp2055
a(S'mucho'
p2056
(dp2057
S'ADV'
p2058
F0.097389
sS'ADJ'
p2059
F0.902611
s(lp2060
(g99
I12
tp2061
atp2062
a(S'que'
p2063
(dp2064
g347
F0.0
sS'CONJ'
p2065
F1.0
s(lp2066
tp2067
a(S'nos'
p2068
(dp2069
S'PRON'
p2070
F1.0
s(lp2071
(g106
I13
tp2072
atp2073
a(S'esforcemos'
p2074
(dp2075
S'VERB'
p2076
F1.0
s(lp2077
(g122
I16
tp2078
atp2079
a(g46
(dp2080
g48
F1.0
s(lp2081
(g46
I17
tp2082
atp2083
a(S'no'
p2084
(dp2085
S'ADV'
p2086
F0.999956
sg347
F4.4e-05
s(lp2087
(g396
I7
tp2088
atp2089
a(S'resulta'
p2090
(dp2091
S'VERB'
p2092
F1.0
s(lp2093
(g64
I6
tp2094
atp2095
a(S'posible'
p2096
(dp2097
S'ADJ'
p2098
F1.0
s(lp2099
(g71
I8
tp2100
atp2101
a(S'imaginar'
p2102
(dp2103
S'VERB'
p2104
F1.0
s(lp2105
(g142
I19
tp2106
atp2107
a(S'un'
p2108
(dp2109
g347
F3e-06
sS'DET'
p2110
F0.999997
s(lp2111
(g151
I20
tp2112
atp2113
a(S'mercado'
p2114
(dp2115
S'VERB'
p2116
F0.034656
sS'NOUN'
p2117
F0.965344
s(lp2118
(g159
I25
tp2119
atp2120
a(S'de'
p2121
(dp2122
g347
F0.0
sS'CONJ'
p2123
F1.8e-05
sS'ADP'
p2124
F0.999982
s(lp2125
(g83
I10
tp2126
atp2127
a(S'la'
p2128
(dp2129
g347
F0.0
sS'PRON'
p2130
F0.0
sS'DET'
p2131
F0.999999
sS'NOUN'
p2132
F0.0
s(lp2133
(g92
I11
tp2134
atp2135
a(S'electricidad'
p2136
(dp2137
S'NOUN'
p2138
F1.0
s(lp2139
(g178
I24
tp2140
atp2141
a(S'competitivo'
p2142
(dp2143
S'ADJ'
p2144
F1.0
s(lp2145
(g198
I23
tp2146
atp2147
a(S'sin'
p2148
(dp2149
S'ADP'
p2150
F1.0
s(lp2151
(g206
I26
tp2152
atp2153
a(S'la'
p2154
(dp2155
S'NOUN'
p2156
F0.0
sS'PRON'
p2157
F0.0
sS'DET'
p2158
F0.999999
sg347
F0.0
s(lp2159
(g215
I27
tp2160
atp2161
a(S'contribuci\xc3\xb3n'
p2162
(dp2163
S'NOUN'
p2164
F1.0
s(lp2165
(g222
I28
tp2166
atp2167
a(S'de'
p2168
(dp2169
g347
F0.0
sS'CONJ'
p2170
F1.7e-05
sS'ADP'
p2171
F0.999983
s(lp2172
(g229
I29
tp2173
atp2174
a(S'la'
p2175
(dp2176
g347
F0.0
sS'PRON'
p2177
F0.0
sS'DET'
p2178
F0.999999
sS'NOUN'
p2179
F0.0
s(lp2180
tp2181
a(S'energ\xc3\xada'
p2182
(dp2183
S'NOUN'
p2184
F1.0
s(lp2185
(g243
I31
tp2186
atp2187
a(S'nuclear'
p2188
(dp2189
S'VERB'
p2190
F0.012209
sS'ADJ'
p2191
F0.987791
s(lp2192
(g251
I30
tp2193
atp2194
a(S'en'
p2195
(dp2196
g347
F0.0
sS'CONJ'
p2197
F1e-06
sS'ADP'
p2198
F0.999999
s(lp2199
(g259
I32
tp2200
atp2201
a(S'una'
p2202
(dp2203
S'DET'
p2204
F1.0
s(lp2205
(g151
I33
tp2206
atp2207
a(S'combinaci\xc3\xb3n'
p2208
(dp2209
S'NOUN'
p2210
F1.0
s(lp2211
(g293
I36
tp2212
atp2213
a(S'energ\xc3\xa9tica'
p2214
(dp2215
S'NOUN'
p2216
F0.187563
sS'ADJ'
p2217
F0.812437
s(lp2218
(g301
I35
tp2219
atp2220
a(S'equilibrada'
p2221
(dp2222
S'VERB'
p2223
F0.470822
sS'ADJ'
p2224
F0.529178
s(lp2225
(g548
I34
tp2226
atp2227
a(g46
(dp2228
g48
F1.0
s(lp2229
(g46
I37
tp2230
atp2231
a(S'tanto'
p2232
(dp2233
S'ADV'
p2234
F0.994978
sS'NOUN'
p2235
F2e-06
sS'ADJ'
p2236
F0.00502
s(lp2237
tp2238
a(S'si'
p2239
(dp2240
S'CONJ'
p2241
F0.999965
sS'NOUN'
p2242
F3.5e-05
s(lp2243
(g314
I38
tp2244
atp2245
a(S'nos'
p2246
(dp2247
S'PRON'
p2248
F1.0
s(lp2249
(g327
I39
tp2250
atp2251
a(S'gusta'
p2252
(dp2253
S'VERB'
p2254
F1.0
s(lp2255
tp2256
a(S'como'
p2257
(dp2258
S'ADV'
p2259
F0.668473
sS'CONJ'
p2260
F0.331527
s(lp2261
(g334
I40
tp2262
atp2263
a(S'si'
p2264
(dp2265
S'CONJ'
p2266
F0.999807
sS'NOUN'
p2267
F0.000193
s(lp2268
(g341
I42
tp2269
atp2270
a(S'no'
p2271
(dp2272
S'ADV'
p2273
F0.999997
sg347
F3e-06
s(lp2274
(g349
I43
tp2275
atp2276
a(g48
(dp2277
g48
F1.0
s(lp2278
(g48
I44
tp2279
atp2280
as.