(dp0
S'fr'
p1
(lp2
(S'permettez-moi'
p3
(dp4
S'VERB'
p5
F1.0
s(lp6
(S'let'
p7
I0
tp8
atp9
a(S'\xc3\xa9galement'
p10
(dp11
S'ADV'
p12
F1.0
s(lp13
(S'also'
p14
I2
tp15
atp16
a(S'de'
p17
(dp18
S'ADP'
p19
F1.0
s(lp20
tp21
a(S'souligner'
p22
(dp23
S'VERB'
p24
F1.0
s(lp25
(S'point'
p26
I3
tp27
atp28
a(S'que'
p29
(dp30
S'ADV'
p31
F0.078995
sS'PRON'
p32
F0.03209
sS'CONJ'
p33
F0.888915
s(lp34
(S'that'
p35
I5
tp36
atp37
a(S','
p38
(dp39
S'.'
p40
F1.0
s(lp41
(g38
I6
tp42
atp43
a(S'comme'
p44
(dp45
S'ADV'
p46
F0.633027
sS'CONJ'
p47
F0.366973
s(lp48
(S'as'
p49
I7
tp50
atp51
a(S"l'"
p52
(dp53
S'NOUN'
p54
F0.042016
sS'VERB'
p55
F0.806119
sS'ADJ'
p56
F0.151864
s(lp57
tp58
a(S'a'
p59
(dp60
S'VERB'
p61
F1.0
s(lp62
tp63
a(S'montr\xc3\xa9'
p64
(dp65
S'VERB'
p66
F1.0
s(lp67
(S'illustrated'
p68
I8
tp69
atp70
a(S'le'
p71
(dp72
S'PRON'
p73
F0.000224
sS'DET'
p74
F0.999776
s(lp75
(S'the'
p76
I10
tp77
atp78
a(S'conflit'
p79
(dp80
S'NOUN'
p81
F1.0
s(lp82
(S'dispute'
p83
I13
tp84
atp85
a(S'gazier'
p86
(dp87
S'NOUN'
p88
F0.017219
sS'ADJ'
p89
F0.982781
s(lp90
(S'gas'
p91
I12
tp92
atp93
a(S'entre'
p94
(dp95
S'VERB'
p96
F0.00031099999999999997
sS'ADP'
p97
F0.99969
s(lp98
(S'russia-ukraine'
p99
I11
tp100
atp101
a(S'la'
p102
(dp103
S'PRON'
p104
F8.3e-05
sS'DET'
p105
F0.999914
sS'NOUN'
p106
F3e-06
s(lp107
tp108
a(S'russie'
p109
(dp110
S'ADJ'
p111
F0.089849
sS'VERB'
p112
F0.000605
sS'NOUN'
p113
F0.909546
s(lp114
(g99
I11
tp115
atp116
a(S'et'
p117
(dp118
S'CONJ'
p119
F1.0
s(lp120
tp121
a(S"l'"
p122
(dp123
S'NOUN'
p124
F0.050387
sS'VERB'
p125
F0.8915730000000001
sS'ADJ'
p126
F0.05804
s(lp127
(g76
I10
tp128
atp129
a(S'ukraine'
p130
(dp131
S'ADJ'
p132
F0.372872
sS'NOUN'
p133
F0.627128
s(lp134
(g99
I11
tp135
atp136
a(g38
(dp137
g40
F1.0
s(lp138
(g38
I14
tp139
atp140
a(S'la'
p141
(dp142
S'PRON'
p143
F6.9e-05
sS'DET'
p144
F0.999931
sS'NOUN'
p145
F0.0
s(lp146
(S'the'
p147
I15
tp148
atp149
a(S'vuln\xc3\xa9rabilit\xc3\xa9'
p150
(dp151
S'NOUN'
p152
F1.0
s(lp153
(S'vulnerability'
p154
I19
tp155
atp156
a(S'actuelle'
p157
(dp158
S'ADJ'
p159
F1.0
s(lp160
(S'current'
p161
I18
tp162
atp163
a(S'de'
p164
(dp165
S'ADP'
p166
F1.0
s(lp167
(S"'s"
p168
I17
tp169
atp170
a(S"l'"
p171
(dp172
S'ADJ'
p173
F0.160704
sS'VERB'
p174
F0.06480800000000002
sS'NOUN'
p175
F0.774488
s(lp176
tp177
a(S'ue'
p178
(dp179
S'VERB'
p180
F0.002353
sS'NOUN'
p181
F0.997647
s(lp182
(S'eu'
p183
I16
tp184
atp185
a(S'et'
p186
(dp187
S'CONJ'
p188
F1.0
s(lp189
(S'and'
p190
I20
tp191
atp192
a(S'sa'
p193
(dp194
S'PRON'
p195
F1.0
s(lp196
tp197
a(S'd\xc3\xa9pendance'
p198
(dp199
S'NOUN'
p200
F1.0
s(lp201
(S'dependency'
p202
I23
tp203
atp204
a(S'\xc3\xa9nerg\xc3\xa9tique'
p205
(dp206
S'NOUN'
p207
F0.166093
sS'ADJ'
p208
F0.833907
s(lp209
(S'energy'
p210
I22
tp211
atp212
a(S'consid\xc3\xa9rable'
p213
(dp214
S'ADJ'
p215
F1.0
s(lp216
(S'considerable'
p217
I21
tp218
atp219
a(S'entravent'
p220
(dp221
S'VERB'
p222
F1.0
s(lp223
(S'undermines'
p224
I24
tp225
atp226
a(S'le'
p227
(dp228
S'PRON'
p229
F0.000137
sS'DET'
p230
F0.999863
s(lp231
(S'the'
p232
I25
tp233
atp234
a(S'd\xc3\xa9veloppement'
p235
(dp236
S'NOUN'
p237
F1.0
s(lp238
(S'development'
p239
I26
tp240
atp241
a(S"d'"
p242
(dp243
S'NOUN'
p244
F0.032441
sS'VERB'
p245
F0.694014
sS'ADJ'
p246
F0.273544
s(lp247
(S'of'
p248
I27
tp249
atp250
a(S'une'
p251
(dp252
S'NOUN'
p253
F0.000136
sS'NUM'
p254
F0.020318
sS'DET'
p255
F0.979546
s(lp256
(S'an'
p257
I28
tp258
atp259
a(S'politique'
p260
(dp261
S'ADJ'
p262
F0.096586
sS'VERB'
p263
F7.999999999999999e-05
sS'NOUN'
p264
F0.903334
s(lp265
(S'policy'
p266
I38
tp267
atp268
a(S'\xc3\xa9trang\xc3\xa8re'
p269
(dp270
S'NOUN'
p271
F0.03087
sS'ADJ'
p272
F0.96913
s(lp273
(S'foreign'
p274
I35
tp275
atp276
a(S'et'
p277
(dp278
S'CONJ'
p279
F1.0
s(lp280
(S'and'
p281
I36
tp282
atp283
a(S'de'
p284
(dp285
S'ADP'
p286
F1.0
s(lp287
tp288
a(S's\xc3\xa9curit\xc3\xa9'
p289
(dp290
S'NOUN'
p291
F1.0
s(lp292
(S'security'
p293
I37
tp294
atp295
a(S'commune'
p296
(dp297
S'ADJ'
p298
F0.217528
sS'NOUN'
p299
F0.782472
s(lp300
(S'joint'
p301
I34
tp302
atp303
a(S'authentique'
p304
(dp305
S'VERB'
p306
F0.032693
sS'ADJ'
p307
F0.967307
s(lp308
(S'authentic'
p309
I29
tp310
atp311
a(g38
(dp312
g40
F1.0
s(lp313
(g38
I30
tp314
atp315
a(S'efficace'
p316
(dp317
S'NOUN'
p318
F0.05343
sS'ADJ'
p319
F0.94657
s(lp320
(S'efficient'
p321
I31
tp322
atp323
a(S'et'
p324
(dp325
S'CONJ'
p326
F1.0
s(lp327
(S'and'
p328
I32
tp329
atp330
a(S'coh\xc3\xa9rente'
p331
(dp332
S'ADJ'
p333
F1.0
s(lp334
(S'consistent'
p335
I33
tp336
atp337
a(g40
(dp338
g40
F1.0
s(lp339
(g40
I39
tp340
atp341
asS'en'
p342
(lp343
(g7
(dp344
S'VERB'
p345
F0.9983980000000001
sS'NOUN'
p346
F0.001602
s(lp347
(g7
I0
tp348
atp349
a(S'me'
p350
(dp351
S'PRON'
p352
F0.999996
sS'X'
p353
F4e-06
s(lp354
(g350
I1
tp355
atp356
a(g14
(dp357
S'ADV'
p358
F1.0
s(lp359
(g14
I2
tp360
atp361
a(g26
(dp362
S'VERB'
p363
F0.492626
sS'NOUN'
p364
F0.507374
s(lp365
(g26
I3
tp366
atp367
a(S'out'
p368
(dp369
S'ADV'
p370
F0.024906
sS'NOUN'
p371
F0.001734
sS'ADP'
p372
F0.584412
sS'PRT'
p373
F0.387974
sS'VERB'
p374
F0.000192
sS'ADJ'
p375
F0.000781
s(lp376
(g368
I4
tp377
atp378
a(g35
(dp379
S'ADV'
p380
F0.048914
sS'DET'
p381
F0.48951199999999995
sS'ADP'
p382
F0.461574
s(lp383
(g35
I5
tp384
atp385
a(g38
(dp386
g40
F1.0
s(lp387
(g38
I6
tp388
atp389
a(g49
(dp390
S'ADV'
p391
F0.706916
sS'ADP'
p392
F0.293084
s(lp393
(g49
I7
tp394
atp395
a(g68
(dp396
S'VERB'
p397
F1.0
s(lp398
(g68
I8
tp399
atp400
a(S'by'
p401
(dp402
S'ADV'
p403
F0.000159
sS'NOUN'
p404
F0.0
sS'ADP'
p405
F0.999841
s(lp406
(g401
I9
tp407
atp408
a(g76
(dp409
S'NOUN'
p410
F2e-06
sS'DET'
p411
F0.999998
s(lp412
(g76
I10
tp413
atp414
a(g99
(dp415
S'ADJ'
p416
F0.104852
sS'NOUN'
p417
F0.895149
s(lp418
(g99
I11
tp419
atp420
a(g91
(dp421
S'VERB'
p422
F9.4e-05
sS'NOUN'
p423
F0.999907
s(lp424
(g91
I12
tp425
atp426
a(g83
(dp427
S'VERB'
p428
F0.002638
sS'NOUN'
p429
F0.997361
s(lp430
(g83
I13
tp431
atp432
a(g38
(dp433
g40
F1.0
s(lp434
(g38
I14
tp435
atp436
a(g147
(dp437
S'NOUN'
p438
F0.00014
sS'DET'
p439
F0.99986
s(lp440
(g147
I15
tp441
atp442
a(g183
(dp443
S'ADV'
p444
F0.0
sS'ADJ'
p445
F1.6e-05
sS'VERB'
p446
F4e-06
sS'NOUN'
p447
F0.99998
s(lp448
(g183
I16
tp449
atp450
a(g168
(dp451
S'PRT'
p452
F0.988836
sg40
F0.011164
s(lp453
(g168
I17
tp454
atp455
a(g161
(dp456
S'NOUN'
p457
F0.018816
sS'ADJ'
p458
F0.981184
s(lp459
(g161
I18
tp460
atp461
a(g154
(dp462
S'NOUN'
p463
F1.0
s(lp464
(g154
I19
tp465
atp466
a(g190
(dp467
S'CONJ'
p468
F1.0
sS'NOUN'
p469
F0.0
s(lp470
(g190
I20
tp471
atp472
a(g217
(dp473
S'ADJ'
p474
F1.0
s(lp475
(g217
I21
tp476
atp477
a(g210
(dp478
S'NOUN'
p479
F1.0
s(lp480
(g210
I22
tp481
atp482
a(g202
(dp483
S'NOUN'
p484
F1.0
s(lp485
(g202
I23
tp486
atp487
a(g224
(dp488
S'VERB'
p489
F1.0
s(lp490
(g224
I24
tp491
atp492
a(g232
(dp493
S'NOUN'
p494
F1e-06
sS'DET'
p495
F0.999999
s(lp496
(g232
I25
tp497
atp498
a(g239
(dp499
S'NOUN'
p500
F1.0
s(lp501
(g239
I26
tp502
atp503
a(g248
(dp504
S'ADP'
p505
F1.0
s(lp506
(g248
I27
tp507
atp508
a(g257
(dp509
S'DET'
p510
F1.0
s(lp511
(g257
I28
tp512
atp513
a(g309
(dp514
S'ADJ'
p515
F1.0
s(lp516
(g309
I29
tp517
atp518
a(g38
(dp519
g40
F1.0
s(lp520
(g38
I30
tp521
atp522
a(g321
(dp523
S'ADJ'
p524
F1.0
s(lp525
(g321
I31
tp526
atp527
a(g328
(dp528
S'CONJ'
p529
F0.999998
sS'NOUN'
p530
F2e-06
s(lp531
(g328
I32
tp532
atp533
a(g335
(dp534
S'ADJ'
p535
F1.0
s(lp536
(g335
I33
tp537
atp538
a(g301
(dp539
S'NOUN'
p540
F0.019912
sS'VERB'
p541
F1.8e-05
sS'ADJ'
p542
F0.98007
s(lp543
(g301
I34
tp544
atp545
a(g274
(dp546
S'NOUN'
p547
F0.004124
sS'ADJ'
p548
F0.995876
s(lp549
(g274
I35
tp550
atp551
a(g281
(dp552
S'CONJ'
p553
F0.999969
sS'NOUN'
p554
F3.1e-05
s(lp555
(g281
I36
tp556
atp557
a(g293
(dp558
S'NOUN'
p559
F1.0
s(lp560
(g293
I37
tp561
atp562
a(g266
(dp563
S'NOUN'
p564
F1.0
s(lp565
(g266
I38
tp566
atp567
a(g40
(dp568
g40
F1.0
s(lp569
(g40
I39
tp570
atp571
asS'nl'
p572
(lp573
(S'ik'
p574
(dp575
S'PRON'
p576
F0.999984
sS'NOUN'
p577
F1.6e-05
s(lp578
(g7
I0
tp579
atp580
a(S'wil'
p581
(dp582
S'VERB'
p583
F0.796658
sS'NOUN'
p584
F0.203342
s(lp585
(g350
I1
tp586
atp587
a(S'erop'
p588
(dp589
S'ADV'
p590
F1.0
s(lp591
(g368
I4
tp592
atp593
a(S'wijzen'
p594
(dp595
S'VERB'
p596
F0.881299
sS'NOUN'
p597
F0.118701
s(lp598
(g26
I3
tp599
atp600
a(S'dat'
p601
(dp602
S'PRON'
p603
F0.274274
sS'CONJ'
p604
F0.725727
s(lp605
(g35
I5
tp606
atp607
a(S'-'
p608
(dp609
g40
F1.0
s(lp610
(g38
I6
tp611
atp612
a(S'zoals'
p613
(dp614
S'CONJ'
p615
F1.0
s(lp616
(g49
I7
tp617
atp618
a(S'blijkt'
p619
(dp620
S'VERB'
p621
F1.0
s(lp622
(g68
I8
tp623
atp624
a(S'uit'
p625
(dp626
S'ADV'
p627
F0.299413
sS'VERB'
p628
F0.0
sS'ADP'
p629
F0.700587
s(lp630
(g401
I9
tp631
atp632
a(S'de'
p633
(dp634
S'DET'
p635
F1.0
s(lp636
(g76
I10
tp637
atp638
a(S'gasruzie'
p639
(dp640
S'NOUN'
p641
F1.0
s(lp642
(g99
I11
tp643
atp644
a(S'tussen'
p645
(dp646
S'ADP'
p647
F1.0
s(lp648
(g99
I11
tp649
atp650
a(S'rusland'
p651
(dp652
S'NOUN'
p653
F0.9999989999999999
s(lp654
tp655
a(S'en'
p656
(dp657
S'CONJ'
p658
F1.0
s(lp659
tp660
a(S'oekra\xc3\xafne'
p661
(dp662
S'ADJ'
p663
F0.097201
sS'NOUN'
p664
F0.902799
s(lp665
(g99
I11
tp666
atp667
a(g608
(dp668
g40
F1.0
s(lp669
(g38
I14
tp670
atp671
a(S'de'
p672
(dp673
S'DET'
p674
F1.0
s(lp675
(g147
I15
tp676
atp677
a(S'huidige'
p678
(dp679
S'NOUN'
p680
F5.1e-05
sS'ADJ'
p681
F0.999949
s(lp682
(g161
I18
tp683
atp684
a(S'kwetsbaarheid'
p685
(dp686
S'NOUN'
p687
F1.0
s(lp688
(g154
I19
tp689
atp690
a(S'en'
p691
(dp692
S'CONJ'
p693
F1.0
s(lp694
(g190
I20
tp695
atp696
a(S'de'
p697
(dp698
S'DET'
p699
F1.0
s(lp700
tp701
a(S'aanzienlijke'
p702
(dp703
S'NOUN'
p704
F0.000736
sS'ADJ'
p705
F0.999264
s(lp706
(g217
I21
tp707
atp708
a(S'energieafhankelijkheid'
p709
(dp710
S'ADJ'
p711
F0.001244
sS'NOUN'
p712
F0.998756
s(lp713
(g202
I23
tp714
atp715
a(S'van'
p716
(dp717
S'ADP'
p718
F1.0
s(lp719
(g168
I17
tp720
atp721
a(S'de'
p722
(dp723
S'DET'
p724
F1.0
s(lp725
tp726
a(S'eu'
p727
(dp728
S'NOUN'
p729
F1.0
s(lp730
(g183
I16
tp731
atp732
a(S'de'
p733
(dp734
S'DET'
p735
F1.0
s(lp736
(g232
I25
tp737
atp738
a(S'totstandkoming'
p739
(dp740
S'NOUN'
p741
F1.0
s(lp742
(g239
I26
tp743
atp744
a(S'van'
p745
(dp746
S'ADP'
p747
F1.0
s(lp748
(g248
I27
tp749
atp750
a(S'een'
p751
(dp752
S'ADJ'
p753
F1e-06
sS'PRON'
p754
F0.000523
sS'NUM'
p755
F1e-06
sS'DET'
p756
F0.999476
s(lp757
(g257
I28
tp758
atp759
a(S'geloofwaardig'
p760
(dp761
S'ADJ'
p762
F1.0
s(lp763
(g309
I29
tp764
atp765
a(g38
(dp766
g40
F1.0
s(lp767
(g38
I30
tp768
atp769
a(S'doeltreffend'
p770
(dp771
S'ADJ'
p772
F1.0
s(lp773
(g321
I31
tp774
atp775
a(S'en'
p776
(dp777
S'CONJ'
p778
F1.0
s(lp779
(g328
I32
tp780
atp781
a(S'consistent'
p782
(dp783
S'ADJ'
p784
F1.0
s(lp785
(g335
I33
tp786
atp787
a(S'gemeenschappelijk'
p788
(dp789
S'ADJ'
p790
F1.0
s(lp791
(g301
I34
tp792
atp793
a(S'buitenlands'
p794
(dp795
S'ADJ'
p796
F1.0
s(lp797
(g274
I35
tp798
atp799
a(S'en'
p800
(dp801
S'CONJ'
p802
F1.0
s(lp803
(g281
I36
tp804
atp805
a(S'veiligheidsbeleid'
p806
(dp807
S'ADJ'
p808
F0.002872
sS'NOUN'
p809
F0.997128
s(lp810
(g293
I37
tp811
atp812
a(S'ondermijnen'
p813
(dp814
S'VERB'
p815
F0.998098
sS'NOUN'
p816
F0.001902
s(lp817
(g224
I24
tp818
atp819
a(g40
(dp820
g40
F1.0
s(lp821
(g40
I39
tp822
atp823
asS'de'
p824
(lp825
(S'lassen'
p826
(dp827
S'VERB'
p828
F0.999679
sS'ADJ'
p829
F0.000292
s(lp830
tp831
a(S'sie'
p832
(dp833
S'PRON'
p834
F1.0
s(lp835
(g7
I0
tp836
atp837
a(S'mich'
p838
(dp839
S'PRON'
p840
F1.0
s(lp841
(g350
I1
tp842
atp843
a(S'darauf'
p844
(dp845
S'ADV'
p846
F0.999999
sS'PRT'
p847
F1e-06
s(lp848
(g26
I3
tp849
atp850
a(S'hinweisen'
p851
(dp852
S'VERB'
p853
F1.0
s(lp854
(g368
I4
tp855
atp856
a(g38
(dp857
g40
F1.0
s(lp858
tp859
a(S'dass'
p860
(dp861
S'CONJ'
p862
F1.0
s(lp863
(g35
I5
tp864
atp865
a(g608
(dp866
g40
F1.0
s(lp867
(g38
I6
tp868
atp869
a(S'wie'
p870
(dp871
S'CONJ'
p872
F0.999956
s(lp873
(g49
I7
tp874
atp875
a(S'der'
p876
(dp877
S'PRON'
p878
F0.000765
sS'DET'
p879
F0.999147
s(lp880
(g76
I10
tp881
atp882
a(S'gasstreit'
p883
(dp884
S'ADJ'
p885
F0.018344
sS'NOUN'
p886
F0.959045
s(lp887
(g99
I11
tp888
atp889
a(S'zwischen'
p890
(dp891
S'PRT'
p892
F7e-06
sS'ADP'
p893
F0.999993
s(lp894
(g99
I11
tp895
atp896
a(S'russland'
p897
(dp898
S'ADJ'
p899
F0.215322
sS'NOUN'
p900
F0.441655
s(lp901
tp902
a(S'und'
p903
(dp904
S'CONJ'
p905
F1.0
s(lp906
tp907
a(S'der'
p908
(dp909
S'PRON'
p910
F0.012962
sS'DET'
p911
F0.977823
s(lp912
(g401
I9
tp913
atp914
a(S'ukraine'
p915
(dp916
S'NOUN'
p917
F0.850794
s(lp918
(g99
I11
tp919
atp920
a(S'gezeigt'
p921
(dp922
S'VERB'
p923
F0.996126
sS'ADJ'
p924
F0.003874
s(lp925
tp926
a(S'hat'
p927
(dp928
S'VERB'
p929
F1.0
s(lp930
(g68
I8
tp931
atp932
a(g608
(dp933
g40
F1.0
s(lp934
(g38
I14
tp935
atp936
a(S'die'
p937
(dp938
S'PRON'
p939
F0.009409
sS'DET'
p940
F0.98317
s(lp941
(g147
I15
tp942
atp943
a(S'derzeitige'
p944
(dp945
S'ADJ'
p946
F1.0
s(lp947
(g161
I18
tp948
atp949
a(S'verwundbarkeit'
p950
(dp951
S'ADJ'
p952
F0.0003
sS'NOUN'
p953
F0.999677
s(lp954
(g154
I19
tp955
atp956
a(S'und'
p957
(dp958
S'CONJ'
p959
F1.0
s(lp960
(g190
I20
tp961
atp962
a(S'starke'
p963
(dp964
S'ADJ'
p965
F1.0
s(lp966
(g217
I21
tp967
atp968
a(S'energieabh\xc3\xa4ngigkeit'
p969
(dp970
S'ADJ'
p971
F0.001732
sS'NOUN'
p972
F0.99626
s(lp973
(g202
I23
tp974
atp975
a(S'der'
p976
(dp977
S'PRON'
p978
F0.002009
sS'DET'
p979
F0.997871
s(lp980
(g168
I17
tp981
atp982
a(S'eu'
p983
(dp984
S'ADJ'
p985
F0.284076
sS'NOUN'
p986
F0.622788
s(lp987
(g183
I16
tp988
atp989
a(S'die'
p990
(dp991
S'PRON'
p992
F0.00201
sS'DET'
p993
F0.997493
s(lp994
(g232
I25
tp995
atp996
a(S'entwicklung'
p997
(dp998
S'ADJ'
p999
F0.009936
sS'NOUN'
p1000
F0.979575
s(lp1001
(g239
I26
tp1002
atp1003
a(S'einer'
p1004
(dp1005
S'PRON'
p1006
F0.001486
sS'DET'
p1007
F0.998348
s(lp1008
(g257
I28
tp1009
atp1010
a(S'authentischen'
p1011
(dp1012
S'ADJ'
p1013
F1.0
s(lp1014
(g309
I29
tp1015
atp1016
a(g38
(dp1017
g40
F1.0
s(lp1018
(g38
I30
tp1019
atp1020
a(S'effizienten'
p1021
(dp1022
S'ADJ'
p1023
F1.0
s(lp1024
(g321
I31
tp1025
atp1026
a(S'und'
p1027
(dp1028
S'CONJ'
p1029
F1.0
s(lp1030
(g328
I32
tp1031
atp1032
a(S'koh\xc3\xa4renten'
p1033
(dp1034
S'ADJ'
p1035
F1.0
s(lp1036
(g335
I33
tp1037
atp1038
a(S'gemeinsamen'
p1039
(dp1040
S'ADJ'
p1041
F1.0
s(lp1042
(g301
I34
tp1043
atp1044
a(S'au\xc3\x9fen-'
p1045
(dp1046
g353
F1.0
s(lp1047
(g274
I35
tp1048
atp1049
a(S'und'
p1050
(dp1051
S'CONJ'
p1052
F1.0
s(lp1053
(g281
I36
tp1054
atp1055
a(S'sicherheitspolitik'
p1056
(dp1057
S'ADJ'
p1058
F0.007331
sS'NOUN'
p1059
F0.992174
s(lp1060
(g293
I37
tp1061
atp1062
a(S'untergraben'
p1063
(dp1064
S'VERB'
p1065
F0.989479
s(lp1066
(g224
I24
tp1067
atp1068
a(g40
(dp1069
g40
F1.0
s(lp1070
(g40
I39
tp1071
atp1072
asS'it'
p1073
(lp1074
(S'vorrei'
p1075
(dp1076
S'VERB'
p1077
F1.0
s(lp1078
(g7
I0
tp1079
atp1080
a(S'anche'
p1081
(dp1082
S'ADV'
p1083
F0.999997
sS'NOUN'
p1084
F3e-06
s(lp1085
(g14
I2
tp1086
atp1087
a(S'segnalare'
p1088
(dp1089
S'VERB'
p1090
F1.0
s(lp1091
(g26
I3
tp1092
atp1093
a(S'che'
p1094
(dp1095
S'PRON'
p1096
F0.990213
sS'CONJ'
p1097
F0.00563
sS'ADJ'
p1098
F0.004157
s(lp1099
(g35
I5
tp1100
atp1101
a(g38
(dp1102
g40
F1.0
s(lp1103
(g38
I6
tp1104
atp1105
a(S'come'
p1106
(dp1107
S'PRON'
p1108
F0.044066
sS'CONJ'
p1109
F0.951385
sS'NOUN'
p1110
F0.000227
sS'ADP'
p1111
F0.004322
s(lp1112
(g49
I7
tp1113
atp1114
a(S'ha'
p1115
(dp1116
S'VERB'
p1117
F1.0
s(lp1118
tp1119
a(S'dimostrato'
p1120
(dp1121
S'VERB'
p1122
F1.0
s(lp1123
(g68
I8
tp1124
atp1125
a(S'la'
p1126
(dp1127
S'PRON'
p1128
F1.1e-05
sS'DET'
p1129
F0.999989
s(lp1130
(g76
I10
tp1131
atp1132
a(S'disputa'
p1133
(dp1134
S'VERB'
p1135
F0.00095
sS'NOUN'
p1136
F0.99905
s(lp1137
(g83
I13
tp1138
atp1139
a(S'sul'
p1140
(dp1141
S'ADP'
p1142
F1.0
s(lp1143
tp1144
a(S'gas'
p1145
(dp1146
S'NOUN'
p1147
F1.0
s(lp1148
(g91
I12
tp1149
atp1150
a(S'tra'
p1151
(dp1152
S'CONJ'
p1153
F0.000905
sS'ADP'
p1154
F0.999095
s(lp1155
(g99
I11
tp1156
atp1157
a(S'russia'
p1158
(dp1159
S'ADJ'
p1160
F0.175472
sS'VERB'
p1161
F0.248171
sS'NOUN'
p1162
F0.576358
s(lp1163
(g99
I11
tp1164
atp1165
a(S'e'
p1166
(dp1167
S'CONJ'
p1168
F1.0
s(lp1169
tp1170
a(S'ucraina'
p1171
(dp1172
S'NOUN'
p1173
F0.087582
sS'ADJ'
p1174
F0.912418
s(lp1175
(g99
I11
tp1176
atp1177
a(g38
(dp1178
g40
F1.0
s(lp1179
(g38
I14
tp1180
atp1181
a(S"l'"
p1182
(dp1183
S'NOUN'
p1184
F0.003774
sS'VERB'
p1185
F0.984512
sS'ADJ'
p1186
F0.011715
s(lp1187
(g147
I15
tp1188
atp1189
a(S'attuale'
p1190
(dp1191
S'VERB'
p1192
F0.001393
sS'ADJ'
p1193
F0.998607
s(lp1194
(g161
I18
tp1195
atp1196
a(S'vulnerabilit\xc3\xa0'
p1197
(dp1198
S'NOUN'
p1199
F1.0
s(lp1200
tp1201
a(S"dell'"
p1202
(dp1203
S'ADJ'
p1204
F0.040682
sS'VERB'
p1205
F0.006560999999999999
sS'NOUN'
p1206
F0.952757
s(lp1207
(g168
I17
tp1208
atp1209
a(S'unione'
p1210
(dp1211
S'NOUN'
p1212
F1.0
s(lp1213
(g183
I16
tp1214
atp1215
a(g1166
(dp1216
S'CONJ'
p1217
F1.0
s(lp1218
(g190
I20
tp1219
atp1220
a(S'la'
p1221
(dp1222
S'PRON'
p1223
F6.4e-05
sS'DET'
p1224
F0.999936
s(lp1225
(g154
I19
tp1226
atp1227
a(S'sua'
p1228
(dp1229
S'PRON'
p1230
F1.0
s(lp1231
tp1232
a(S'notevole'
p1233
(dp1234
S'ADJ'
p1235
F1.0
s(lp1236
(g217
I21
tp1237
atp1238
a(S'dipendenza'
p1239
(dp1240
S'NOUN'
p1241
F1.0
s(lp1242
(g202
I23
tp1243
atp1244
a(S'energetica'
p1245
(dp1246
S'ADJ'
p1247
F1.0
s(lp1248
(g210
I22
tp1249
atp1250
a(S'compromettono'
p1251
(dp1252
S'VERB'
p1253
F1.0
s(lp1254
(g224
I24
tp1255
atp1256
a(S'lo'
p1257
(dp1258
S'PRON'
p1259
F1e-05
sS'DET'
p1260
F0.99999
s(lp1261
tp1262
a(S'sviluppo'
p1263
(dp1264
S'VERB'
p1265
F5.6e-05
sS'NOUN'
p1266
F0.999944
s(lp1267
(g239
I26
tp1268
atp1269
a(S'di'
p1270
(dp1271
S'CONJ'
p1272
F1.6e-05
sS'ADP'
p1273
F0.999984
s(lp1274
(g248
I27
tp1275
atp1276
a(S'una'
p1277
(dp1278
S'PRON'
p1279
F0.000154
sS'DEF'
p1280
F0.999846
s(lp1281
(g257
I28
tp1282
atp1283
a(S'politica'
p1284
(dp1285
S'ADJ'
p1286
F0.057866
sS'NOUN'
p1287
F0.942134
s(lp1288
(g266
I38
tp1289
atp1290
a(S'estera'
p1291
(dp1292
S'ADJ'
p1293
F1.0
s(lp1294
(g274
I35
tp1295
atp1296
a(g1166
(dp1297
S'CONJ'
p1298
F1.0
s(lp1299
(g281
I36
tp1300
atp1301
a(S'di'
p1302
(dp1303
S'CONJ'
p1304
F2e-06
sS'ADP'
p1305
F0.999998
s(lp1306
tp1307
a(S'sicurezza'
p1308
(dp1309
S'NOUN'
p1310
F1.0
s(lp1311
(g293
I37
tp1312
atp1313
a(S'comune'
p1314
(dp1315
S'NOUN'
p1316
F0.069747
sS'ADJ'
p1317
F0.930253
s(lp1318
(g301
I34
tp1319
atp1320
a(S'vera'
p1321
(dp1322
S'NOUN'
p1323
F0.077702
sS'ADJ'
p1324
F0.922298
s(lp1325
(g309
I29
tp1326
atp1327
a(g38
(dp1328
g40
F1.0
s(lp1329
(g38
I30
tp1330
atp1331
a(S'efficace'
p1332
(dp1333
S'ADJ'
p1334
F1.0
s(lp1335
(g321
I31
tp1336
atp1337
a(g1166
(dp1338
S'CONJ'
p1339
F1.0
s(lp1340
(g328
I32
tp1341
atp1342
a(S'coerente'
p1343
(dp1344
S'ADJ'
p1345
F1.0
s(lp1346
(g335
I33
tp1347
atp1348
a(g40
(dp1349
g40
F1.0
s(lp1350
(g40
I39
tp1351
atp1352
asS'sk'
p1353
(lp1354
(S'dovo\xc4\xbete'
p1355
(dp1356
S'VERB'
p1357
F1.0
s(lp1358
(g7
I0
tp1359
atp1360
a(S'mi'
p1361
(dp1362
S'PRON'
p1363
F0.999997
sg353
F3e-06
s(lp1364
(g350
I1
tp1365
atp1366
a(S'tie\xc5\xbe'
p1367
(dp1368
g353
F1.0
s(lp1369
(g14
I2
tp1370
atp1371
a(S'zd\xc3\xb4razni\xc5\xa5'
p1372
(dp1373
S'VERB'
p1374
F1.0
s(lp1375
(g26
I3
tp1376
atp1377
a(g38
(dp1378
g40
F1.0
s(lp1379
(g38
I6
tp1380
atp1381
a(S'\xc5\xbee'
p1382
(dp1383
g353
F0.000496
sS'CONJ'
p1384
F0.999504
s(lp1385
(g35
I5
tp1386
atp1387
a(S's\xc3\xba\xc4\x8dasn\xc3\xa1'
p1388
(dp1389
S'ADJ'
p1390
F1.0
s(lp1391
(g161
I18
tp1392
atp1393
a(S'zranite\xc4\xbenos\xc5\xa5'
p1394
(dp1395
S'NOUN'
p1396
F1.0
s(lp1397
(g154
I19
tp1398
atp1399
a(g59
(dp1400
g353
F0.001131
sS'CONJ'
p1401
F0.998072
sS'NOUN'
p1402
F0.000173
sS'ADP'
p1403
F0.000598
sS'PRT'
p1404
F2.6e-05
s(lp1405
(g190
I20
tp1406
atp1407
a(S'zna\xc4\x8dn\xc3\xa1'
p1408
(dp1409
S'ADJ'
p1410
F1.0
s(lp1411
(g217
I21
tp1412
atp1413
a(S'energetick\xc3\xa1'
p1414
(dp1415
S'ADJ'
p1416
F1.0
s(lp1417
(g210
I22
tp1418
atp1419
a(S'z\xc3\xa1vislos\xc5\xa5'
p1420
(dp1421
S'NOUN'
p1422
F1.0
s(lp1423
(g202
I23
tp1424
atp1425
a(S'e\xc3\x9a'
p1426
(dp1427
S'ADV'
p1428
F0.007268
sS'ADJ'
p1429
F0.37807599999999997
sS'VERB'
p1430
F0.231318
sS'NOUN'
p1431
F0.36549
sg353
F0.017849
s(lp1432
(g183
I16
tp1433
atp1434
a(g38
(dp1435
g40
F1.0
s(lp1436
tp1437
a(S'ktor\xc3\xbdch'
p1438
(dp1439
S'PRON'
p1440
F1.0
s(lp1441
(g99
I11
tp1442
atp1443
a(S'n\xc3\xa1zorn\xc3\xbdm'
p1444
(dp1445
S'ADJ'
p1446
F1.0
s(lp1447
tp1448
a(S'pr\xc3\xadkladom'
p1449
(dp1450
S'NOUN'
p1451
F1.0
s(lp1452
(g68
I8
tp1453
atp1454
a(S'je'
p1455
(dp1456
S'PRON'
p1457
F4.4e-05
sS'VERB'
p1458
F0.999921
sg353
F3.5000000000000004e-05
s(lp1459
(g76
I10
tp1460
atp1461
a(S'rusko-ukrajinsk\xc3\xbd'
p1462
(dp1463
S'ADJ'
p1464
F1.0000010000000001
s(lp1465
(g99
I11
tp1466
atp1467
a(S'spor'
p1468
(dp1469
S'VERB'
p1470
F3.7e-05
sS'NOUN'
p1471
F0.999963
s(lp1472
(g83
I13
tp1473
atp1474
a(S'o'
p1475
(dp1476
g353
F0.0009609999999999999
sS'CONJ'
p1477
F4.8e-05
sS'NOUN'
p1478
F1.7e-05
sS'ADP'
p1479
F0.998974
s(lp1480
(g147
I15
tp1481
atp1482
a(S'plyn'
p1483
(dp1484
S'NOUN'
p1485
F1.0
s(lp1486
(g91
I12
tp1487
atp1488
a(g38
(dp1489
g40
F1.0
s(lp1490
tp1491
a(S'oslabuj\xc3\xba'
p1492
(dp1493
S'VERB'
p1494
F1.0
s(lp1495
(g224
I24
tp1496
atp1497
a(S'v\xc3\xbdvoj'
p1498
(dp1499
S'NOUN'
p1500
F1.0
s(lp1501
(g239
I26
tp1502
atp1503
a(S'autentickej'
p1504
(dp1505
S'ADJ'
p1506
F1.0
s(lp1507
(g309
I29
tp1508
atp1509
a(g38
(dp1510
g40
F1.0
s(lp1511
(g38
I30
tp1512
atp1513
a(S'\xc3\xba\xc4\x8dinnej'
p1514
(dp1515
S'ADJ'
p1516
F1.0
s(lp1517
(g321
I31
tp1518
atp1519
a(g59
(dp1520
g353
F0.000636
sS'CONJ'
p1521
F0.997733
sS'NOUN'
p1522
F0.001516
sS'ADP'
p1523
F0.000109
sS'PRT'
p1524
F5e-06
s(lp1525
(g328
I32
tp1526
atp1527
a(S'konzistentnej'
p1528
(dp1529
S'ADJ'
p1530
F1.0
s(lp1531
(g335
I33
tp1532
atp1533
a(S'spolo\xc4\x8dnej'
p1534
(dp1535
S'ADJ'
p1536
F1.0
s(lp1537
(g301
I34
tp1538
atp1539
a(S'zahrani\xc4\x8dnej'
p1540
(dp1541
S'ADJ'
p1542
F1.0
s(lp1543
(g274
I35
tp1544
atp1545
a(g59
(dp1546
g353
F0.000636
sS'CONJ'
p1547
F0.997733
sS'NOUN'
p1548
F0.001516
sS'ADP'
p1549
F0.000109
sS'PRT'
p1550
F5e-06
s(lp1551
(g281
I36
tp1552
atp1553
a(S'bezpe\xc4\x8dnostnej'
p1554
(dp1555
S'ADJ'
p1556
F1.0
s(lp1557
(g293
I37
tp1558
atp1559
a(S'politiky'
p1560
(dp1561
S'NOUN'
p1562
F1.0
s(lp1563
(g266
I38
tp1564
atp1565
a(g40
(dp1566
g40
F1.0
s(lp1567
(g40
I39
tp1568
atp1569
asS'pl'
p1570
(lp1571
(S'chcia\xc5\x82abym'
p1572
(dp1573
S'ADV'
p1574
F0.013731
sS'ADJ'
p1575
F0.023214000000000005
sS'VERB'
p1576
F0.7931559999999996
sS'NOUN'
p1577
F0.169901
s(lp1578
(g7
I0
tp1579
atp1580
a(S'r\xc3\xb3wnie\xc5\xbc'
p1581
(dp1582
S'PRT'
p1583
F0.95173
sS'CONJ'
p1584
F0.04827
s(lp1585
(g14
I2
tp1586
atp1587
a(S'wskaza\xc4\x87'
p1588
(dp1589
S'VERB'
p1590
F1.0
s(lp1591
(g26
I3
tp1592
atp1593
a(g38
(dp1594
g353
F0.0
sg40
F1.0
s(lp1595
(g368
I4
tp1596
atp1597
a(S'\xc5\xbce'
p1598
(dp1599
S'PRT'
p1600
F0.000611
sS'CONJ'
p1601
F0.999389
s(lp1602
(g35
I5
tp1603
atp1604
a(g38
(dp1605
g353
F3e-06
sg40
F0.999997
s(lp1606
(g38
I6
tp1607
atp1608
a(S'co'
p1609
(dp1610
S'PRT'
p1611
F0.073535
sS'CONJ'
p1612
F0.400161
sS'NOUN'
p1613
F0.5255390000000001
sS'ADP'
p1614
F0.000765
s(lp1615
(g49
I7
tp1616
atp1617
a(S'ilustruje'
p1618
(dp1619
S'VERB'
p1620
F1.0
s(lp1621
(g68
I8
tp1622
atp1623
a(S'sp\xc3\xb3r'
p1624
(dp1625
S'NOUN'
p1626
F1.0
s(lp1627
(g83
I13
tp1628
atp1629
a(S'gazowy'
p1630
(dp1631
S'ADJ'
p1632
F1.0
s(lp1633
(g91
I12
tp1634
atp1635
a(S'mi\xc4\x99dzy'
p1636
(dp1637
S'ADP'
p1638
F1.0
s(lp1639
(g99
I11
tp1640
atp1641
a(S'rosj\xc4\x85'
p1642
(dp1643
S'ADJ'
p1644
F4e-06
sS'VERB'
p1645
F0.002006
sS'NOUN'
p1646
F0.9979909999999999
s(lp1647
(g99
I11
tp1648
atp1649
a(g59
(dp1650
S'ADV'
p1651
F2e-05
sS'NOUN'
p1652
F7.9e-05
sS'ADP'
p1653
F2.4e-05
sS'PRT'
p1654
F0.001106
sS'VERB'
p1655
F0.000296
sg353
F0.00013299999999999998
sS'CONJ'
p1656
F0.998332
sS'ADJ'
p1657
F9e-06
s(lp1658
(g99
I11
tp1659
atp1660
a(S'ukrain\xc4\x85'
p1661
(dp1662
S'ADJ'
p1663
F0.00073
sS'VERB'
p1664
F0.009611999999999999
sS'NOUN'
p1665
F0.989657
s(lp1666
tp1667
a(g38
(dp1668
g353
F0.0
sg40
F1.0
s(lp1669
(g38
I14
tp1670
atp1671
a(S'obecna'
p1672
(dp1673
S'ADJ'
p1674
F1.0
s(lp1675
(g161
I18
tp1676
atp1677
a(S'podatno\xc5\x9b\xc4\x87'
p1678
(dp1679
S'NOUN'
p1680
F1.0
s(lp1681
(g154
I19
tp1682
atp1683
a(S'na'
p1684
(dp1685
g353
F3.6e-05
sS'VERB'
p1686
F9.1e-05
sS'NOUN'
p1687
F0.0
sS'ADP'
p1688
F0.9998440000000001
sS'PRT'
p1689
F2.8e-05
s(lp1690
(g154
I19
tp1691
atp1692
a(S'takie'
p1693
(dp1694
S'ADJ'
p1695
F1.0
s(lp1696
tp1697
a(S'zagro\xc5\xbcenia'
p1698
(dp1699
S'NOUN'
p1700
F1.0
s(lp1701
(g154
I19
tp1702
atp1703
a(S'i'
p1704
(dp1705
S'PRT'
p1706
F0.001397
sS'CONJ'
p1707
F0.998574
sS'PRON'
p1708
F0.0
sS'NOUN'
p1709
F2.5e-05
sg353
F4e-06
s(lp1710
(g190
I20
tp1711
atp1712
a(S'znaczna'
p1713
(dp1714
S'ADJ'
p1715
F1.0
s(lp1716
(g217
I21
tp1717
atp1718
a(S'zale\xc5\xbcno\xc5\x9b\xc4\x87'
p1719
(dp1720
S'NOUN'
p1721
F1.0
s(lp1722
(g202
I23
tp1723
atp1724
a(S'energetyczna'
p1725
(dp1726
S'ADJ'
p1727
F1.0
s(lp1728
(g210
I22
tp1729
atp1730
a(S'ue'
p1731
(dp1732
S'ADJ'
p1733
F0.000809
sS'VERB'
p1734
F1e-05
sS'NOUN'
p1735
F0.9991790000000002
s(lp1736
(g183
I16
tp1737
atp1738
a(S'jest'
p1739
(dp1740
S'VERB'
p1741
F1.0
s(lp1742
(g224
I24
tp1743
atp1744
a(S'przeszkod\xc4\x85'
p1745
(dp1746
S'NOUN'
p1747
F1.0
s(lp1748
(g99
I11
tp1749
atp1750
a(S'dla'
p1751
(dp1752
S'ADP'
p1753
F1.0
s(lp1754
(g232
I25
tp1755
atp1756
a(S'opracowania'
p1757
(dp1758
S'VERB'
p1759
F0.986179
sS'NOUN'
p1760
F0.013821000000000002
s(lp1761
(g239
I26
tp1762
atp1763
a(S'autentycznej'
p1764
(dp1765
S'ADJ'
p1766
F1.0
s(lp1767
(g309
I29
tp1768
atp1769
a(g38
(dp1770
g353
F0.0
sg40
F1.0
s(lp1771
(g38
I30
tp1772
atp1773
a(S'efektywnej'
p1774
(dp1775
S'ADJ'
p1776
F1.0
s(lp1777
(g321
I31
tp1778
atp1779
a(S'oraz'
p1780
(dp1781
S'CONJ'
p1782
F1.0
s(lp1783
(g328
I32
tp1784
atp1785
a(S'sp\xc3\xb3jnej'
p1786
(dp1787
S'ADJ'
p1788
F1.0
s(lp1789
(g335
I33
tp1790
atp1791
a(S'wsp\xc3\xb3lnej'
p1792
(dp1793
S'ADJ'
p1794
F1.0
s(lp1795
(g301
I34
tp1796
atp1797
a(S'polityki'
p1798
(dp1799
S'NOUN'
p1800
F1.0
s(lp1801
(g266
I38
tp1802
atp1803
a(S'zagranicznej'
p1804
(dp1805
S'ADJ'
p1806
F1.0
s(lp1807
(g274
I35
tp1808
atp1809
a(g1704
(dp1810
S'PRT'
p1811
F0.00527
sS'CONJ'
p1812
F0.994597
sS'PRON'
p1813
F9e-06
sS'NOUN'
p1814
F4.8e-05
sg353
F7.6e-05
s(lp1815
(g281
I36
tp1816
atp1817
a(S'bezpiecze\xc5\x84stwa'
p1818
(dp1819
S'NOUN'
p1820
F1.0
s(lp1821
(g293
I37
tp1822
atp1823
a(g40
(dp1824
g40
F1.0
s(lp1825
(g40
I39
tp1826
atp1827
asS'sl'
p1828
(lp1829
(S'naj'
p1830
(dp1831
S'PRT'
p1832
F0.944911
sS'CONJ'
p1833
F0.055085
sS'ADJ'
p1834
F3e-06
s(lp1835
(g7
I0
tp1836
atp1837
a(S'opozorim'
p1838
(dp1839
S'VERB'
p1840
F1.0
s(lp1841
(g350
I1
tp1842
atp1843
a(S'tudi'
p1844
(dp1845
S'PRT'
p1846
F1.0
s(lp1847
(g14
I2
tp1848
atp1849
a(S'na'
p1850
(dp1851
S'ADP'
p1852
F1.0
s(lp1853
(g368
I4
tp1854
atp1855
a(S'to'
p1856
(dp1857
S'PRON'
p1858
F0.9999369999999999
sg353
F6.2e-05
s(lp1859
tp1860
a(g38
(dp1861
g40
F1.0
s(lp1862
tp1863
a(S'da'
p1864
(dp1865
S'PRT'
p1866
F0.000285
sS'CONJ'
p1867
F0.992836
sS'VERB'
p1868
F0.006781
sg353
F9.8e-05
s(lp1869
(g35
I5
tp1870
atp1871
a(g38
(dp1872
g40
F1.0
s(lp1873
(g38
I6
tp1874
atp1875
a(S'kot'
p1876
(dp1877
S'CONJ'
p1878
F0.999971
sS'NOUN'
p1879
F2.9e-05
s(lp1880
(g49
I7
tp1881
atp1882
a(S'je'
p1883
(dp1884
S'PRON'
p1885
F0.000375
sS'VERB'
p1886
F0.999625
sg353
F0.0
s(lp1887
(g76
I10
tp1888
atp1889
a(S'pokazal'
p1890
(dp1891
S'VERB'
p1892
F1.0
s(lp1893
(g68
I8
tp1894
atp1895
a(S'spor'
p1896
(dp1897
S'NOUN'
p1898
F1.0
s(lp1899
(g83
I13
tp1900
atp1901
a(S'med'
p1902
(dp1903
S'NOUN'
p1904
F0.00020600000000000002
sS'ADP'
p1905
F0.999794
s(lp1906
(g99
I11
tp1907
atp1908
a(S'rusijo'
p1909
(dp1910
S'ADV'
p1911
F0.000101
sS'ADJ'
p1912
F9e-06
sS'VERB'
p1913
F0.0013980000000000002
sS'NOUN'
p1914
F0.998493
s(lp1915
(g99
I11
tp1916
atp1917
a(S'in'
p1918
(dp1919
S'ADV'
p1920
F3.3e-05
sg353
F1.5e-05
sS'CONJ'
p1921
F0.999942
sS'NOUN'
p1922
F9e-06
s(lp1923
(g38
I14
tp1924
atp1925
a(S'ukrajino'
p1926
(dp1927
S'ADJ'
p1928
F6.2e-05
sS'NOUN'
p1929
F0.9999379999999998
s(lp1930
(g99
I11
tp1931
atp1932
a(S'glede'
p1933
(dp1934
S'ADV'
p1935
F0.016537
sS'ADP'
p1936
F0.983463
s(lp1937
(g99
I11
tp1938
atp1939
a(S'zemeljskega'
p1940
(dp1941
S'ADJ'
p1942
F1.0
s(lp1943
tp1944
a(S'plina'
p1945
(dp1946
S'NOUN'
p1947
F1.0
s(lp1948
(g91
I12
tp1949
atp1950
a(g38
(dp1951
g40
F1.0
s(lp1952
tp1953
a(S'trenutna'
p1954
(dp1955
S'ADJ'
p1956
F1.0
s(lp1957
(g161
I18
tp1958
atp1959
a(S'ranljivost'
p1960
(dp1961
S'NOUN'
p1962
F1.0
s(lp1963
(g154
I19
tp1964
atp1965
a(S'in'
p1966
(dp1967
S'ADV'
p1968
F0.000188
sg353
F0.000108
sS'CONJ'
p1969
F0.999699
sS'NOUN'
p1970
F5e-06
s(lp1971
(g190
I20
tp1972
atp1973
a(S'znatna'
p1974
(dp1975
S'ADJ'
p1976
F1.0
s(lp1977
(g217
I21
tp1978
atp1979
a(S'energetska'
p1980
(dp1981
S'ADJ'
p1982
F1.0
s(lp1983
(g210
I22
tp1984
atp1985
a(S'odvisnost'
p1986
(dp1987
S'NOUN'
p1988
F1.0
s(lp1989
(g202
I23
tp1990
atp1991
a(S'eu'
p1992
(dp1993
S'ADV'
p1994
F0.009938
sS'NOUN'
p1995
F0.28963399999999995
sS'VERB'
p1996
F7.1e-05
sS'ADJ'
p1997
F0.7003530000000002
s(lp1998
(g183
I16
tp1999
atp2000
a(S'ovirata'
p2001
(dp2002
S'ADV'
p2003
F0.000213
sS'ADJ'
p2004
F0.016555
sS'VERB'
p2005
F0.17189
sS'NOUN'
p2006
F0.8109379999999999
sg353
F0.000404
s(lp2007
(g99
I11
tp2008
atp2009
a(S'razvoj'
p2010
(dp2011
S'NOUN'
p2012
F1.0
s(lp2013
(g239
I26
tp2014
atp2015
a(S'avtenti\xc4\x8dne'
p2016
(dp2017
S'NOUN'
p2018
F0.063244
sS'ADJ'
p2019
F0.936756
s(lp2020
(g309
I29
tp2021
atp2022
a(S'in'
p2023
(dp2024
S'ADV'
p2025
F2.3e-05
sg353
F3.3e-05
sS'CONJ'
p2026
F0.99993
sS'NOUN'
p2027
F1.5e-05
s(lp2028
(g328
I32
tp2029
atp2030
a(S'dosledne'
p2031
(dp2032
S'ADJ'
p2033
F1.0
s(lp2034
(g335
I33
tp2035
atp2036
a(S'skupne'
p2037
(dp2038
S'ADJ'
p2039
F0.9999990000000001
s(lp2040
(g301
I34
tp2041
atp2042
a(S'zunanje'
p2043
(dp2044
S'ADV'
p2045
F0.000651
sS'ADJ'
p2046
F0.999348
s(lp2047
(g274
I35
tp2048
atp2049
a(S'in'
p2050
(dp2051
S'ADV'
p2052
F2e-05
sg353
F3.3e-05
sS'CONJ'
p2053
F0.999943
sS'NOUN'
p2054
F4e-06
s(lp2055
(g281
I36
tp2056
atp2057
a(S'varnostne'
p2058
(dp2059
S'ADJ'
p2060
F1.0
s(lp2061
(g293
I37
tp2062
atp2063
a(S'politike'
p2064
(dp2065
S'NOUN'
p2066
F1.0
s(lp2067
(g266
I38
tp2068
atp2069
a(g40
(dp2070
g40
F1.0
s(lp2071
(g40
I39
tp2072
atp2073
asS'es'
p2074
(lp2075
(S'ahora'
p2076
(dp2077
S'ADV'
p2078
F1.0
s(lp2079
tp2080
a(S'quisiera'
p2081
(dp2082
S'VERB'
p2083
F1.0
s(lp2084
(g7
I0
tp2085
atp2086
a(S'se\xc3\xb1alar'
p2087
(dp2088
S'VERB'
p2089
F1.0
s(lp2090
(g26
I3
tp2091
atp2092
a(S'que'
p2093
(dp2094
g353
F4e-06
sS'CONJ'
p2095
F0.999996
s(lp2096
(g35
I5
tp2097
atp2098
a(g38
(dp2099
g40
F1.0
s(lp2100
(g38
I6
tp2101
atp2102
a(S'como'
p2103
(dp2104
S'ADV'
p2105
F0.286909
sS'CONJ'
p2106
F0.7130909999999999
s(lp2107
(g49
I7
tp2108
atp2109
a(S'bien'
p2110
(dp2111
S'ADV'
p2112
F0.999024
sS'NOUN'
p2113
F0.000976
s(lp2114
tp2115
a(S'ilustra'
p2116
(dp2117
S'VERB'
p2118
F1.0
s(lp2119
(g68
I8
tp2120
atp2121
a(S'la'
p2122
(dp2123
S'PRON'
p2124
F1e-06
sS'DET'
p2125
F0.999999
sS'NOUN'
p2126
F0.0
sg353
F0.0
s(lp2127
tp2128
a(S'disputa'
p2129
(dp2130
S'VERB'
p2131
F0.000333
sS'NOUN'
p2132
F0.999667
s(lp2133
(g99
I11
tp2134
atp2135
a(S'entre'
p2136
(dp2137
g353
F1.9999999999999998e-05
sS'ADP'
p2138
F0.99998
s(lp2139
(g99
I11
tp2140
atp2141
a(S'rusia'
p2142
(dp2143
S'NOUN'
p2144
F1.0
s(lp2145
(g99
I11
tp2146
atp2147
a(S'y'
p2148
(dp2149
g353
F0.001052
sS'CONJ'
p2150
F0.998948
s(lp2151
(g99
I11
tp2152
atp2153
a(S'ucrania'
p2154
(dp2155
S'ADJ'
p2156
F0.004403
sS'NOUN'
p2157
F0.995597
s(lp2158
tp2159
a(S'por'
p2160
(dp2161
S'ADP'
p2162
F1.0
s(lp2163
(g401
I9
tp2164
atp2165
a(S'el'
p2166
(dp2167
S'PRON'
p2168
F5e-06
sS'DET'
p2169
F0.999995
s(lp2170
(g76
I10
tp2171
atp2172
a(S'tema'
p2173
(dp2174
S'NOUN'
p2175
F1.0
s(lp2176
(g99
I11
tp2177
atp2178
a(S'del'
p2179
(dp2180
S'ADP'
p2181
F1.0
s(lp2182
tp2183
a(S'gas'
p2184
(dp2185
S'NOUN'
p2186
F1.0
s(lp2187
(g91
I12
tp2188
atp2189
a(g38
(dp2190
g40
F1.0
s(lp2191
(g38
I14
tp2192
atp2193
a(S'la'
p2194
(dp2195
S'PRON'
p2196
F3.5e-05
sS'DET'
p2197
F0.999959
sS'NOUN'
p2198
F0.0
sg353
F5e-06
s(lp2199
(g147
I15
tp2200
atp2201
a(S'dependencia'
p2202
(dp2203
S'NOUN'
p2204
F1.0
s(lp2205
(g202
I23
tp2206
atp2207
a(S'energ\xc3\xa9tica'
p2208
(dp2209
S'NOUN'
p2210
F0.306697
sS'ADJ'
p2211
F0.693303
s(lp2212
(g210
I22
tp2213
atp2214
a(S'considerable'
p2215
(dp2216
S'ADJ'
p2217
F1.0
s(lp2218
(g217
I21
tp2219
atp2220
a(g2148
(dp2221
g353
F0.000117
sS'CONJ'
p2222
F0.999883
s(lp2223
(g190
I20
tp2224
atp2225
a(S'la'
p2226
(dp2227
S'PRON'
p2228
F0.000591
sS'DET'
p2229
F0.999408
sS'NOUN'
p2230
F0.0
sg353
F0.0
s(lp2231
tp2232
a(S'vulnerabilidad'
p2233
(dp2234
S'NOUN'
p2235
F1.0
s(lp2236
(g154
I19
tp2237
atp2238
a(S'actual'
p2239
(dp2240
g353
F0.000424
sS'ADJ'
p2241
F0.999576
s(lp2242
(g161
I18
tp2243
atp2244
a(S'de'
p2245
(dp2246
g353
F0.0
sS'CONJ'
p2247
F5.7e-05
sS'ADP'
p2248
F0.999943
s(lp2249
(g168
I17
tp2250
atp2251
a(S'la'
p2252
(dp2253
g353
F0.0
sS'PRON'
p2254
F0.0
sS'DET'
p2255
F0.999999
sS'NOUN'
p2256
F0.0
s(lp2257
(g183
I16
tp2258
atp2259
a(S'uni\xc3\xb3n'
p2260
(dp2261
S'NOUN'
p2262
F1.0
s(lp2263
tp2264
a(S'europea'
p2265
(dp2266
S'ADJ'
p2267
F1.0
s(lp2268
(g183
I16
tp2269
atp2270
a(S'socavan'
p2271
(dp2272
S'VERB'
p2273
F1.0
s(lp2274
(g224
I24
tp2275
atp2276
a(S'el'
p2277
(dp2278
S'PRON'
p2279
F1e-06
sS'DET'
p2280
F0.999999
s(lp2281
(g232
I25
tp2282
atp2283
a(S'desarrollo'
p2284
(dp2285
S'NOUN'
p2286
F1.0
s(lp2287
(g239
I26
tp2288
atp2289
a(S'de'
p2290
(dp2291
g353
F0.0
sS'CONJ'
p2292
F1.7e-05
sS'ADP'
p2293
F0.999983
s(lp2294
(g248
I27
tp2295
atp2296
a(S'una'
p2297
(dp2298
S'DET'
p2299
F1.0
s(lp2300
(g257
I28
tp2301
atp2302
a(S'pol\xc3\xadtica'
p2303
(dp2304
S'ADJ'
p2305
F0.018906
sS'NOUN'
p2306
F0.981094
s(lp2307
(g266
I38
tp2308
atp2309
a(S'exterior'
p2310
(dp2311
S'NOUN'
p2312
F0.008102
sS'ADJ'
p2313
F0.991898
s(lp2314
(g274
I35
tp2315
atp2316
a(g2148
(dp2317
g353
F0.000309
sS'CONJ'
p2318
F0.999691
s(lp2319
(g281
I36
tp2320
atp2321
a(S'de'
p2322
(dp2323
g353
F6e-06
sS'CONJ'
p2324
F4.1e-05
sS'ADP'
p2325
F0.999953
s(lp2326
tp2327
a(S'seguridad'
p2328
(dp2329
S'NOUN'
p2330
F1.0
s(lp2331
(g293
I37
tp2332
atp2333
a(S'com\xc3\xban'
p2334
(dp2335
S'ADJ'
p2336
F1.0
s(lp2337
(g301
I34
tp2338
atp2339
a(S'coherente'
p2340
(dp2341
S'ADJ'
p2342
F1.0
s(lp2343
(g335
I33
tp2344
atp2345
a(g38
(dp2346
g40
F1.0
s(lp2347
(g38
I30
tp2348
atp2349
a(S'eficiente'
p2350
(dp2351
S'ADJ'
p2352
F1.0
s(lp2353
(g321
I31
tp2354
atp2355
a(g2148
(dp2356
g353
F0.000656
sS'CONJ'
p2357
F0.999344
s(lp2358
(g328
I32
tp2359
atp2360
a(S'v\xc3\xa1lida'
p2361
(dp2362
S'ADJ'
p2363
F1.0
s(lp2364
(g309
I29
tp2365
atp2366
a(g40
(dp2367
g40
F1.0
s(lp2368
(g40
I39
tp2369
atp2370
as.