(dp0
S'fr'
p1
(lp2
(S'par'
p3
(dp4
S'NOUN'
p5
F7.6e-05
sS'ADP'
p6
F0.999924
s(lp7
(S'in'
p8
I0
tp9
atp10
a(S'\xc3\xa9crit'
p11
(dp12
S'VERB'
p13
F0.035327000000000004
sS'NOUN'
p14
F0.964674
s(lp15
(S'writing'
p16
I1
tp17
atp18
a(S'.'
p19
(dp20
g19
F1.0
s(lp21
(g19
I2
tp22
atp23
a(S'-'
p24
(dp25
g19
F1.0
s(lp26
(g24
I3
tp27
atp28
a(S'('
p29
(dp30
g19
F1.0
s(lp31
(g29
I4
tp32
atp33
a(S'pt'
p34
(dp35
S'ADJ'
p36
F0.13429
sS'VERB'
p37
F0.638201
sS'NOUN'
p38
F0.227509
s(lp39
(S'pt'
p40
I5
tp41
atp42
a(S')'
p43
(dp44
g19
F1.0
s(lp45
(g43
I6
tp46
atp47
a(S'comme'
p48
(dp49
S'ADV'
p50
F0.121807
sS'CONJ'
p51
F0.878193
s(lp52
(S'as'
p53
I7
tp54
atp55
a(S'nous'
p56
(dp57
S'PRON'
p58
F1.0
s(lp59
(S'we'
p60
I8
tp61
atp62
a(S"l'"
p63
(dp64
S'ADJ'
p65
F0.000625
sS'VERB'
p66
F0.9973000000000002
sS'NOUN'
p67
F0.002077
s(lp68
tp69
a(S'avons'
p70
(dp71
S'VERB'
p72
F1.0
s(lp73
(S'have'
p74
I9
tp75
atp76
a(S'soulign\xc3\xa9'
p77
(dp78
S'VERB'
p79
F1.0
s(lp80
(S'pointed'
p81
I10
tp82
atp83
a(S','
p84
(dp85
g19
F1.0
s(lp86
(g84
I12
tp87
atp88
a(S'les'
p89
(dp90
S'PRON'
p91
F0.000333
sS'DET'
p92
F0.999645
sS'ADP'
p93
F2.2e-05
s(lp94
(S'the'
p95
I13
tp96
atp97
a(S'autorit\xc3\xa9s'
p98
(dp99
S'NOUN'
p100
F1.0
s(lp101
(S'authorities'
p102
I15
tp103
atp104
a(S'nationales'
p105
(dp106
S'NOUN'
p107
F0.015689
sS'ADJ'
p108
F0.984311
s(lp109
(S'national'
p110
I14
tp111
atp112
a(S'respectent'
p113
(dp114
S'VERB'
p115
F1.0
s(lp116
(S'complied'
p117
I18
tp118
atp119
a(S'et'
p120
(dp121
S'CONJ'
p122
F1.0
s(lp123
(S'and'
p124
I19
tp125
atp126
a(S'font'
p127
(dp128
S'VERB'
p129
F1.0
s(lp130
(S'ensured'
p131
I20
tp132
atp133
a(S'respecter'
p134
(dp135
S'VERB'
p136
F1.0
s(lp137
(S'compliance'
p138
I21
tp139
atp140
a(S'depuis'
p141
(dp142
S'ADV'
p143
F0.003355
sS'ADP'
p144
F0.996645
s(lp145
tp146
a(S'longtemps'
p147
(dp148
S'ADV'
p149
F0.992369
sS'NOUN'
p150
F0.007631
s(lp151
(S'long'
p152
I17
tp153
atp154
a(S'les'
p155
(dp156
S'PRON'
p157
F0.000112
sS'DET'
p158
F0.999844
sS'ADP'
p159
F4.4e-05
s(lp160
(S'the'
p161
I23
tp162
atp163
a(S'dispositions'
p164
(dp165
S'NOUN'
p166
F1.0
s(lp167
(S'requirements'
p168
I24
tp169
atp170
a(S'en'
p171
(dp172
S'PRON'
p173
F0.000406
sS'ADP'
p174
F0.999594
s(lp175
(S'in'
p176
I25
tp177
atp178
a(S'vigueur'
p179
(dp180
S'NOUN'
p181
F1.0
s(lp182
(S'force'
p183
I26
tp184
atp185
a(S'conform\xc3\xa9ment'
p186
(dp187
S'ADV'
p188
F1.0
s(lp189
tp190
a(S'aux'
p191
(dp192
S'ADP'
p193
F1.0
s(lp194
(S'under'
p195
I27
tp196
atp197
a(S'accords'
p198
(dp199
S'NOUN'
p200
F1.0
s(lp201
(S'agreements'
p202
I29
tp203
atp204
a(S'internationaux'
p205
(dp206
S'ADJ'
p207
F1.0
s(lp208
(S'international'
p209
I28
tp210
atp211
a(S'dans'
p212
(dp213
S'NOUN'
p214
F8.7e-05
sS'ADP'
p215
F0.999913
s(lp216
(S'in'
p217
I30
tp218
atp219
a(S'le'
p220
(dp221
S'PRON'
p222
F6.2e-05
sS'DET'
p223
F0.999938
s(lp224
(S'the'
p225
I31
tp226
atp227
a(S'domaine'
p228
(dp229
S'NOUN'
p230
F1.0
s(lp231
(S'area'
p232
I32
tp233
atp234
a(S'de'
p235
(dp236
S'ADP'
p237
F1.0
s(lp238
(S'of'
p239
I33
tp240
atp241
a(S"l'"
p242
(dp243
S'ADJ'
p244
F0.160704
sS'VERB'
p245
F0.06480800000000002
sS'NOUN'
p246
F0.774488
s(lp247
tp248
a(S'aviation'
p249
(dp250
S'NOUN'
p251
F1.0
s(lp252
(S'aviation'
p253
I35
tp254
atp255
a(S'civile'
p256
(dp257
S'ADJ'
p258
F1.0
s(lp259
(S'civil'
p260
I34
tp261
atp262
a(g19
(dp263
g19
F1.0
s(lp264
(g19
I36
tp265
atp266
asS'en'
p267
(lp268
(g8
(dp269
S'ADV'
p270
F0.002573
sS'PRT'
p271
F0.0
sS'ADP'
p272
F0.997427
s(lp273
(g8
I0
tp274
atp275
a(g16
(dp276
S'VERB'
p277
F0.650532
sS'NOUN'
p278
F0.349468
s(lp279
(g16
I1
tp280
atp281
a(g19
(dp282
g19
F1.0
s(lp283
(g19
I2
tp284
atp285
a(g24
(dp286
g19
F1.0
s(lp287
(g24
I3
tp288
atp289
a(g29
(dp290
g19
F1.0
s(lp291
(g29
I4
tp292
atp293
a(g40
(dp294
S'ADJ'
p295
F0.028724
sS'NOUN'
p296
F0.971276
s(lp297
(g40
I5
tp298
atp299
a(g43
(dp300
g19
F1.0
s(lp301
(g43
I6
tp302
atp303
a(g53
(dp304
S'ADV'
p305
F0.2234
sS'ADP'
p306
F0.7766
s(lp307
(g53
I7
tp308
atp309
a(g60
(dp310
S'PRON'
p311
F1.0
s(lp312
(g60
I8
tp313
atp314
a(g74
(dp315
S'VERB'
p316
F1.0
s(lp317
(g74
I9
tp318
atp319
a(g81
(dp320
S'VERB'
p321
F0.999882
sS'ADJ'
p322
F0.000118
s(lp323
(g81
I10
tp324
atp325
a(S'out'
p326
(dp327
S'ADV'
p328
F0.046152
sS'NOUN'
p329
F0.000531
sS'ADP'
p330
F0.038211
sS'PRT'
p331
F0.914959
sS'VERB'
p332
F3e-06
sS'ADJ'
p333
F0.000144
s(lp334
(g326
I11
tp335
atp336
a(g84
(dp337
g19
F1.0
s(lp338
(g84
I12
tp339
atp340
a(g95
(dp341
S'NOUN'
p342
F2e-06
sS'DET'
p343
F0.999998
s(lp344
(g95
I13
tp345
atp346
a(g110
(dp347
S'NOUN'
p348
F0.000487
sS'ADJ'
p349
F0.999513
s(lp350
(g110
I14
tp351
atp352
a(g102
(dp353
S'NOUN'
p354
F1.0
s(lp355
(g102
I15
tp356
atp357
a(S'have'
p358
(dp359
S'VERB'
p360
F1.0
s(lp361
(g358
I16
tp362
atp363
a(g152
(dp364
S'ADV'
p365
F0.99405
sS'NOUN'
p366
F1.1e-05
sS'VERB'
p367
F3e-06
sS'ADJ'
p368
F0.005937
s(lp369
(g152
I17
tp370
atp371
a(g117
(dp372
S'VERB'
p373
F1.0
s(lp374
(g117
I18
tp375
atp376
a(g124
(dp377
S'CONJ'
p378
F0.999994
sS'NOUN'
p379
F6e-06
s(lp380
(g124
I19
tp381
atp382
a(g131
(dp383
S'VERB'
p384
F1.0
s(lp385
(g131
I20
tp386
atp387
a(g138
(dp388
S'NOUN'
p389
F1.0
s(lp390
(g138
I21
tp391
atp392
a(S'with'
p393
(dp394
S'ADP'
p395
F1.0
s(lp396
(g393
I22
tp397
atp398
a(g161
(dp399
S'NOUN'
p400
F1.1e-05
sS'DET'
p401
F0.999989
s(lp402
(g161
I23
tp403
atp404
a(g168
(dp405
S'NOUN'
p406
F1.0
s(lp407
(g168
I24
tp408
atp409
a(g176
(dp410
S'ADV'
p411
F0.000268
sS'PRT'
p412
F0.000165
sS'ADP'
p413
F0.999567
s(lp414
(g176
I25
tp415
atp416
a(g183
(dp417
S'VERB'
p418
F0.0013930000000000001
sS'NOUN'
p419
F0.998607
s(lp420
(g183
I26
tp421
atp422
a(g195
(dp423
S'ADV'
p424
F0.000405
sS'ADP'
p425
F0.999595
s(lp426
(g195
I27
tp427
atp428
a(g209
(dp429
S'NOUN'
p430
F0.000381
sS'ADJ'
p431
F0.999619
s(lp432
(g209
I28
tp433
atp434
a(g202
(dp435
S'NOUN'
p436
F1.0
s(lp437
(g202
I29
tp438
atp439
a(g217
(dp440
S'ADV'
p441
F0.000295
sS'PRT'
p442
F0.000234
sS'ADP'
p443
F0.999471
s(lp444
(g217
I30
tp445
atp446
a(g225
(dp447
S'NOUN'
p448
F1e-06
sS'DET'
p449
F0.999999
s(lp450
(g225
I31
tp451
atp452
a(g232
(dp453
S'NOUN'
p454
F1.0
s(lp455
(g232
I32
tp456
atp457
a(g239
(dp458
S'ADP'
p459
F1.0
s(lp460
(g239
I33
tp461
atp462
a(g260
(dp463
S'ADJ'
p464
F1.0
s(lp465
(g260
I34
tp466
atp467
a(g253
(dp468
S'NOUN'
p469
F1.0
s(lp470
(g253
I35
tp471
atp472
a(g19
(dp473
g19
F1.0
s(lp474
(g19
I36
tp475
atp476
asS'nl'
p477
(lp478
(S'schriftelijk.-'
p479
(dp480
S'ADJ'
p481
F0.039818
sS'NOUN'
p482
F0.9601820000000001
s(lp483
(g16
I1
tp484
atp485
a(g29
(dp486
g19
F1.0
s(lp487
(g29
I4
tp488
atp489
a(S'pt'
p490
(dp491
S'ADJ'
p492
F0.06221
sS'NOUN'
p493
F0.93779
s(lp494
(g40
I5
tp495
atp496
a(g43
(dp497
g19
F1.0
s(lp498
(g43
I6
tp499
atp500
a(S'zoals'
p501
(dp502
S'CONJ'
p503
F1.0
s(lp504
(g53
I7
tp505
atp506
a(S'wij'
p507
(dp508
S'PRON'
p509
F1.0
s(lp510
(g60
I8
tp511
atp512
a(S'reeds'
p513
(dp514
S'ADV'
p515
F1.0
s(lp516
tp517
a(S'hebben'
p518
(dp519
S'VERB'
p520
F0.999999
sS'NOUN'
p521
F1e-06
s(lp522
(g74
I9
tp523
atp524
a(S'opgemerkt'
p525
(dp526
S'VERB'
p527
F1.0
s(lp528
(g81
I10
tp529
atp530
a(S'worden'
p531
(dp532
S'VERB'
p533
F0.999993
sS'NOUN'
p534
F7e-06
s(lp535
tp536
a(S'de'
p537
(dp538
S'DET'
p539
F1.0
s(lp540
(g161
I23
tp541
atp542
a(S'geldende'
p543
(dp544
S'NOUN'
p545
F0.0
sS'VERB'
p546
F0.231989
sS'ADJ'
p547
F0.76801
s(lp548
(g183
I26
tp549
atp550
a(S'voorschriften'
p551
(dp552
S'NOUN'
p553
F1.0
s(lp554
(g168
I24
tp555
atp556
a(S'van'
p557
(dp558
S'ADP'
p559
F1.0
s(lp560
(g195
I27
tp561
atp562
a(S'de'
p563
(dp564
S'DET'
p565
F1.0
s(lp566
tp567
a(S'internationale'
p568
(dp569
S'NOUN'
p570
F2e-06
sS'ADJ'
p571
F0.999998
s(lp572
(g209
I28
tp573
atp574
a(S'overeenkomsten'
p575
(dp576
S'NOUN'
p577
F1.0
s(lp578
(g202
I29
tp579
atp580
a(S'op'
p581
(dp582
S'ADV'
p583
F0.003908
sS'ADJ'
p584
F0.0
sS'ADP'
p585
F0.996092
s(lp586
(g217
I30
tp587
atp588
a(S'het'
p589
(dp590
S'PRON'
p591
F0.000936
sS'DET'
p592
F0.999064
s(lp593
(g225
I31
tp594
atp595
a(S'gebied'
p596
(dp597
S'VERB'
p598
F8e-06
sS'NOUN'
p599
F0.999992
s(lp600
(g232
I32
tp601
atp602
a(S'van'
p603
(dp604
S'ADP'
p605
F1.0
s(lp606
(g239
I33
tp607
atp608
a(S'de'
p609
(dp610
S'DET'
p611
F1.0
s(lp612
(g260
I34
tp613
atp614
a(S'burgerluchtvaart'
p615
(dp616
S'NOUN'
p617
F1.0
s(lp618
(g253
I35
tp619
atp620
a(S'al'
p621
(dp622
S'ADV'
p623
F0.937359
sS'PRON'
p624
F0.028375
sS'CONJ'
p625
F0.034266
s(lp626
(g358
I16
tp627
atp628
a(S'geruime'
p629
(dp630
S'NOUN'
p631
F3.5e-05
sS'ADJ'
p632
F0.999965
s(lp633
tp634
a(S'tijd'
p635
(dp636
S'NOUN'
p637
F1.0
s(lp638
(g152
I17
tp639
atp640
a(S'door'
p641
(dp642
S'ADV'
p643
F1e-06
sS'CONJ'
p644
F1e-05
sS'ADP'
p645
F0.999988
s(lp646
(g326
I11
tp647
atp648
a(S'de'
p649
(dp650
S'DET'
p651
F1.0
s(lp652
(g95
I13
tp653
atp654
a(S'nationale'
p655
(dp656
S'NOUN'
p657
F2.5e-05
sS'ADJ'
p658
F0.999975
s(lp659
(g110
I14
tp660
atp661
a(S'autoriteiten'
p662
(dp663
S'NOUN'
p664
F1.0
s(lp665
(g102
I15
tp666
atp667
a(S'nageleefd'
p668
(dp669
S'VERB'
p670
F1.0
s(lp671
(g117
I18
tp672
atp673
a(S'en'
p674
(dp675
S'CONJ'
p676
F1.0
s(lp677
(g124
I19
tp678
atp679
a(S'gehandhaafd'
p680
(dp681
S'VERB'
p682
F1.0
s(lp683
(g138
I21
tp684
atp685
a(g19
(dp686
g19
F1.0
s(lp687
(g19
I36
tp688
atp689
asS'de'
p690
(lp691
(S'schriftlich'
p692
(dp693
S'ADJ'
p694
F1.0
s(lp695
(g16
I1
tp696
atp697
a(g19
(dp698
g19
F1.0
s(lp699
(g19
I2
tp700
atp701
a(g24
(dp702
g19
F1.0
s(lp703
(g24
I3
tp704
atp705
a(g29
(dp706
g19
F1.0
s(lp707
(g29
I4
tp708
atp709
a(S'pt'
p710
(dp711
S'ADJ'
p712
F0.006315
sS'NOUN'
p713
F0.987444
s(lp714
(g40
I5
tp715
atp716
a(g43
(dp717
g19
F1.0
s(lp718
(g43
I6
tp719
atp720
a(S'wie'
p721
(dp722
S'CONJ'
p723
F0.999797
s(lp724
(g53
I7
tp725
atp726
a(S'von'
p727
(dp728
S'NOUN'
p729
F0.000654
sS'ADP'
p730
F0.999346
s(lp731
tp732
a(S'uns'
p733
(dp734
S'PRON'
p735
F1.0
s(lp736
(g60
I8
tp737
atp738
a(S'dargestellt'
p739
(dp740
S'VERB'
p741
F0.99297
sS'ADJ'
p742
F0.00703
s(lp743
tp744
a(S'wurde'
p745
(dp746
S'VERB'
p747
F1.0
s(lp748
(g81
I10
tp749
atp750
a(g84
(dp751
g19
F1.0
s(lp752
(g84
I12
tp753
atp754
a(S'erf\xc3\xbcllen'
p755
(dp756
S'VERB'
p757
F1.0
s(lp758
(g117
I18
tp759
atp760
a(S'die'
p761
(dp762
S'PRON'
p763
F0.002689
sS'DET'
p764
F0.997309
s(lp765
(g95
I13
tp766
atp767
a(S'einzelstaatlichen'
p768
(dp769
S'ADJ'
p770
F1.0
s(lp771
(g110
I14
tp772
atp773
a(S'beh\xc3\xb6rden'
p774
(dp775
S'ADJ'
p776
F0.003155
sS'NOUN'
p777
F0.993018
s(lp778
(g102
I15
tp779
atp780
a(S'bereits'
p781
(dp782
S'ADV'
p783
F1.0
s(lp784
(g358
I16
tp785
atp786
a(S'seit'
p787
(dp788
S'CONJ'
p789
F0.001371
sS'ADP'
p790
F0.998629
s(lp791
tp792
a(S'langem'
p793
(dp794
S'ADJ'
p795
F1.0
s(lp796
(g152
I17
tp797
atp798
a(S'die'
p799
(dp800
S'PRON'
p801
F0.500691
sS'DET'
p802
F0.488962
s(lp803
(g161
I23
tp804
atp805
a(S'nach'
p806
(dp807
S'ADV'
p808
F0.018197
sS'ADP'
p809
F0.967233
s(lp810
(g195
I27
tp811
atp812
a(S'internationalen'
p813
(dp814
S'ADJ'
p815
F1.0
s(lp816
(g209
I28
tp817
atp818
a(S'abkommen'
p819
(dp820
S'VERB'
p821
F1.0
s(lp822
(g202
I29
tp823
atp824
a(S'geltenden'
p825
(dp826
S'ADJ'
p827
F1.0
s(lp828
(g183
I26
tp829
atp830
a(S'vorschriften'
p831
(dp832
S'ADJ'
p833
F0.001013
sS'NOUN'
p834
F0.998295
s(lp835
(g168
I24
tp836
atp837
a(S'im'
p838
(dp839
S'ADP'
p840
F1.0
s(lp841
(g217
I30
tp842
atp843
a(S'bereich'
p844
(dp845
S'NOUN'
p846
F0.9983179999999999
s(lp847
(g232
I32
tp848
atp849
a(S'der'
p850
(dp851
S'PRON'
p852
F8.7e-05
sS'DET'
p853
F0.9999
s(lp854
(g260
I34
tp855
atp856
a(S'zivilluftfahrt'
p857
(dp858
S'ADJ'
p859
F0.227506
sS'NOUN'
p860
F0.594177
s(lp861
(g253
I35
tp862
atp863
a(S'und'
p864
(dp865
S'CONJ'
p866
F1.0
s(lp867
(g124
I19
tp868
atp869
a(S'gew\xc3\xa4hrleisten'
p870
(dp871
S'VERB'
p872
F1.0
s(lp873
(g131
I20
tp874
atp875
a(S'deren'
p876
(dp877
S'PRON'
p878
F0.999493
s(lp879
tp880
a(S'einhaltung'
p881
(dp882
S'VERB'
p883
F0.183778
sS'NOUN'
p884
F0.680893
s(lp885
(g138
I21
tp886
atp887
a(g19
(dp888
g19
F1.0
s(lp889
(g19
I36
tp890
atp891
asS'it'
p892
(lp893
(S'per'
p894
(dp895
S'CONJ'
p896
F0.021108
sS'ADP'
p897
F0.978892
s(lp898
(g8
I0
tp899
atp900
a(S'iscritto.-'
p901
(dp902
S'NOUN'
p903
F0.22082
sS'VERB'
p904
F0.023192999999999995
sS'ADJ'
p905
F0.755986
s(lp906
(g16
I1
tp907
atp908
a(g29
(dp909
g19
F1.0
s(lp910
(g29
I4
tp911
atp912
a(S'pt'
p913
(dp914
S'NOUN'
p915
F1.0
s(lp916
(g40
I5
tp917
atp918
a(g43
(dp919
g19
F1.0
s(lp920
(g43
I6
tp921
atp922
a(S'come'
p923
(dp924
S'PRON'
p925
F0.042177
sS'CONJ'
p926
F0.951393
sS'NOUN'
p927
F0.000224
sS'ADP'
p928
F0.006206
s(lp929
(g53
I7
tp930
atp931
a(S'abbiamo'
p932
(dp933
S'VERB'
p934
F1.0
s(lp935
(g60
I8
tp936
atp937
a(S'sottolineato'
p938
(dp939
S'VERB'
p940
F1.0
s(lp941
(g81
I10
tp942
atp943
a(g84
(dp944
g19
F1.0
s(lp945
(g84
I12
tp946
atp947
a(S'le'
p948
(dp949
S'PRON'
p950
F0.000249
sS'DET'
p951
F0.999751
s(lp952
tp953
a(S'autorit\xc3\xa0'
p954
(dp955
S'NOUN'
p956
F1.0
s(lp957
(g102
I15
tp958
atp959
a(S'nazionalida'
p960
(dp961
S'NOUN'
p962
F0.020236
sS'VERB'
p963
F0.20758400000000002
sS'ADJ'
p964
F0.77218
s(lp965
(g110
I14
tp966
atp967
a(S'molto'
p968
(dp969
S'ADV'
p970
F0.480146
sS'PRON'
p971
F0.175154
sS'VERB'
p972
F0.010657
sS'ADJ'
p973
F0.334043
s(lp974
tp975
a(S'tempo'
p976
(dp977
S'NOUN'
p978
F1.0
s(lp979
(g152
I17
tp980
atp981
a(S'rispettano'
p982
(dp983
S'VERB'
p984
F1.0
s(lp985
(g117
I18
tp986
atp987
a(S'e'
p988
(dp989
S'CONJ'
p990
F1.0
s(lp991
(g124
I19
tp992
atp993
a(S'fanno'
p994
(dp995
S'VERB'
p996
F1.0
s(lp997
tp998
a(S'rispettaregli'
p999
(dp1000
S'VERB'
p1001
F1.0
s(lp1002
(g131
I20
tp1003
atp1004
a(S'obblighi'
p1005
(dp1006
S'VERB'
p1007
F0.037259999999999995
sS'NOUN'
p1008
F0.96274
s(lp1009
(g168
I24
tp1010
atp1011
a(S'in'
p1012
(dp1013
S'ADP'
p1014
F1.0
s(lp1015
(g176
I25
tp1016
atp1017
a(S'vigore'
p1018
(dp1019
S'NOUN'
p1020
F1.0
s(lp1021
(g183
I26
tp1022
atp1023
a(S'in'
p1024
(dp1025
S'ADP'
p1026
F1.0
s(lp1027
tp1028
a(S'materia'
p1029
(dp1030
S'NOUN'
p1031
F1.0
s(lp1032
tp1033
a(S'di'
p1034
(dp1035
S'CONJ'
p1036
F4e-06
sS'ADP'
p1037
F0.999996
s(lp1038
(g239
I33
tp1039
atp1040
a(S'aviazione'
p1041
(dp1042
S'NOUN'
p1043
F1.0
s(lp1044
(g253
I35
tp1045
atp1046
a(S'civile'
p1047
(dp1048
S'NOUN'
p1049
F0.00127
sS'ADJ'
p1050
F0.99873
s(lp1051
(g260
I34
tp1052
atp1053
a(g84
(dp1054
g19
F1.0
s(lp1055
tp1056
a(S'ai'
p1057
(dp1058
S'NOUN'
p1059
F3e-06
sS'ADP'
p1060
F0.999997
s(lp1061
(g195
I27
tp1062
atp1063
a(S'sensidegli'
p1064
(dp1065
S'VERB'
p1066
F1.0
s(lp1067
tp1068
a(S'accordi'
p1069
(dp1070
S'VERB'
p1071
F0.004637
sS'NOUN'
p1072
F0.995363
s(lp1073
(g202
I29
tp1074
atp1075
a(S'internazionali'
p1076
(dp1077
S'ADJ'
p1078
F1.0
s(lp1079
(g209
I28
tp1080
atp1081
a(S'nel'
p1082
(dp1083
S'ADP'
p1084
F1.0
s(lp1085
(g217
I30
tp1086
atp1087
a(S'settore'
p1088
(dp1089
S'ADJ'
p1090
F0.016868
sS'NOUN'
p1091
F0.983132
s(lp1092
(g232
I32
tp1093
atp1094
a(g19
(dp1095
g19
F1.0
s(lp1096
(g19
I36
tp1097
atp1098
asS'sk'
p1099
(lp1100
(S'p\xc3\xadsomne'
p1101
(dp1102
S'ADV'
p1103
F1.0
s(lp1104
(g16
I1
tp1105
atp1106
a(g19
(dp1107
g19
F1.0
s(lp1108
(g19
I2
tp1109
atp1110
a(g24
(dp1111
g19
F1.0
s(lp1112
(g24
I3
tp1113
atp1114
a(g29
(dp1115
g19
F1.0
s(lp1116
(g29
I4
tp1117
atp1118
a(S'pt'
p1119
(dp1120
S'X'
p1121
F1.0
s(lp1122
(g40
I5
tp1123
atp1124
a(g43
(dp1125
g19
F1.0
s(lp1126
(g43
I6
tp1127
atp1128
a(S'ako'
p1129
(dp1130
S'PRON'
p1131
F0.041606
sS'CONJ'
p1132
F0.958278
sg1121
F0.000116
s(lp1133
(g53
I7
tp1134
atp1135
a(S'sme'
p1136
(dp1137
g1121
F2e-06
sS'VERB'
p1138
F0.999998
s(lp1139
(g60
I8
tp1140
atp1141
a(S'zd\xc3\xb4raznili'
p1142
(dp1143
S'VERB'
p1144
F1.0
s(lp1145
(g81
I10
tp1146
atp1147
a(g84
(dp1148
g19
F1.0
s(lp1149
(g84
I12
tp1150
atp1151
a(S'vn\xc3\xbatro\xc5\xa1t\xc3\xa1tne'
p1152
(dp1153
S'ADV'
p1154
F0.006146
sS'ADJ'
p1155
F0.993854
s(lp1156
(g110
I14
tp1157
atp1158
a(S'org\xc3\xa1ny'
p1159
(dp1160
S'NOUN'
p1161
F1.0
s(lp1162
(g102
I15
tp1163
atp1164
a(S'u\xc5\xbe'
p1165
(dp1166
S'ADV'
p1167
F0.298198
sg1121
F0.699669
sS'CONJ'
p1168
F0.002133
s(lp1169
(g358
I16
tp1170
atp1171
a(S'dlho'
p1172
(dp1173
S'ADV'
p1174
F1.0
s(lp1175
(g152
I17
tp1176
atp1177
a(S'dodr\xc5\xbeiavaj\xc3\xba'
p1178
(dp1179
S'VERB'
p1180
F1.0
s(lp1181
(g117
I18
tp1182
atp1183
a(S'a'
p1184
(dp1185
g1121
F0.0062320000000000006
sS'CONJ'
p1186
F0.993127
sS'NOUN'
p1187
F0.000135
sS'ADP'
p1188
F0.0
sS'PRT'
p1189
F0.000507
s(lp1190
(g124
I19
tp1191
atp1192
a(S'zais\xc5\xa5uj\xc3\xba'
p1193
(dp1194
S'VERB'
p1195
F1.0
s(lp1196
(g131
I20
tp1197
atp1198
a(S'dodr\xc5\xbeiavanie'
p1199
(dp1200
S'NOUN'
p1201
F1.0
s(lp1202
(g138
I21
tp1203
atp1204
a(S'po\xc5\xbeiadaviek'
p1205
(dp1206
S'NOUN'
p1207
F1.0
s(lp1208
(g168
I24
tp1209
atp1210
a(S'platn\xc3\xbdch'
p1211
(dp1212
S'ADJ'
p1213
F1.0
s(lp1214
(g183
I26
tp1215
atp1216
a(S'pod\xc4\xbea'
p1217
(dp1218
S'ADP'
p1219
F1.0
s(lp1220
(g195
I27
tp1221
atp1222
a(S'medzin\xc3\xa1rodn\xc3\xbdch'
p1223
(dp1224
S'ADJ'
p1225
F1.0
s(lp1226
(g209
I28
tp1227
atp1228
a(S'doh\xc3\xb4d'
p1229
(dp1230
S'NOUN'
p1231
F1.0
s(lp1232
(g202
I29
tp1233
atp1234
a(S'z'
p1235
(dp1236
g1121
F3.5000000000000004e-05
sS'NOUN'
p1237
F1.5e-05
sS'ADP'
p1238
F0.999949
s(lp1239
(g217
I30
tp1240
atp1241
a(S'oblasti'
p1242
(dp1243
S'NOUN'
p1244
F1.0
s(lp1245
(g232
I32
tp1246
atp1247
a(S'civiln\xc3\xa9ho'
p1248
(dp1249
S'ADJ'
p1250
F1.0
s(lp1251
(g260
I34
tp1252
atp1253
a(S'letectva'
p1254
(dp1255
S'NOUN'
p1256
F1.0
s(lp1257
(g253
I35
tp1258
atp1259
a(g19
(dp1260
g19
F1.0
s(lp1261
(g19
I36
tp1262
atp1263
asS'pl'
p1264
(lp1265
(S'na'
p1266
(dp1267
g1121
F1e-06
sS'VERB'
p1268
F0.0
sS'NOUN'
p1269
F0.0
sS'ADP'
p1270
F0.999997
sS'PRT'
p1271
F1e-06
s(lp1272
tp1273
a(S'pi\xc5\x9bmie'
p1274
(dp1275
S'NOUN'
p1276
F1.0
s(lp1277
(g16
I1
tp1278
atp1279
a(g19
(dp1280
g19
F1.0
s(lp1281
(g19
I2
tp1282
atp1283
a(g24
(dp1284
g1121
F0.001074
sS'NUM'
p1285
F0.0
sS'NOUN'
p1286
F0.001806
sg19
F0.99712
s(lp1287
(g24
I3
tp1288
atp1289
a(g29
(dp1290
S'NOUN'
p1291
F0.000525
sg19
F0.999475
s(lp1292
(g29
I4
tp1293
atp1294
a(S'pt'
p1295
(dp1296
g1121
F1.0
s(lp1297
(g40
I5
tp1298
atp1299
a(g43
(dp1300
g19
F1.0
s(lp1301
(g43
I6
tp1302
atp1303
a(S'tak'
p1304
(dp1305
S'ADV'
p1306
F0.954054
sS'NOUN'
p1307
F0.000237
sS'PRT'
p1308
F0.044216
sg1121
F0.000158
sS'CONJ'
p1309
F0.001216
sS'ADJ'
p1310
F0.000118
s(lp1311
tp1312
a(g84
(dp1313
g1121
F0.0
sg19
F1.0
s(lp1314
tp1315
a(S'jak'
p1316
(dp1317
S'ADV'
p1318
F0.745989
sS'PRT'
p1319
F0.002673
sS'CONJ'
p1320
F0.20771799999999999
sS'ADP'
p1321
F0.042813
sS'PRON'
p1322
F0.000806
s(lp1323
(g53
I7
tp1324
atp1325
a(S'ju\xc5\xbc'
p1326
(dp1327
S'PRT'
p1328
F1.0
s(lp1329
(g74
I9
tp1330
atp1331
a(S'wcze\xc5\x9bniej'
p1332
(dp1333
S'ADV'
p1334
F1.0
s(lp1335
tp1336
a(S'wskazywali\xc5\x9bmy'
p1337
(dp1338
S'ADV'
p1339
F0.002457
sS'ADJ'
p1340
F0.020433999999999997
sS'VERB'
p1341
F0.9249259999999998
sS'NOUN'
p1342
F0.052181999999999985
s(lp1343
(g81
I10
tp1344
atp1345
a(g84
(dp1346
g1121
F0.0
sg19
F1.0
s(lp1347
(g84
I12
tp1348
atp1349
a(S'organy'
p1350
(dp1351
S'NOUN'
p1352
F1.0
s(lp1353
(g102
I15
tp1354
atp1355
a(S'krajowe'
p1356
(dp1357
S'ADJ'
p1358
F1.0000010000000001
s(lp1359
(g110
I14
tp1360
atp1361
a(S'od'
p1362
(dp1363
S'VERB'
p1364
F1e-06
sS'NOUN'
p1365
F0.0
sS'ADP'
p1366
F0.999999
s(lp1367
tp1368
a(S'dawna'
p1369
(dp1370
S'ADJ'
p1371
F1.0
s(lp1372
(g152
I17
tp1373
atp1374
a(S'wype\xc5\x82niaj\xc4\x85'
p1375
(dp1376
S'VERB'
p1377
F1.0
s(lp1378
tp1379
a(S'postanowienia'
p1380
(dp1381
S'NOUN'
p1382
F1.0
s(lp1383
(g117
I18
tp1384
atp1385
a(S'i'
p1386
(dp1387
S'PRT'
p1388
F0.032096
sS'CONJ'
p1389
F0.96789
sS'NOUN'
p1390
F9e-06
sg1121
F1e-06
sS'PRON'
p1391
F6e-06
s(lp1392
(g124
I19
tp1393
atp1394
a(S'zapewniaj\xc4\x85'
p1395
(dp1396
S'VERB'
p1397
F1.0
s(lp1398
(g131
I20
tp1399
atp1400
a(S'zgodno\xc5\x9b\xc4\x87'
p1401
(dp1402
S'NOUN'
p1403
F1.0
s(lp1404
tp1405
a(S'dzia\xc5\x82a\xc5\x84'
p1406
(dp1407
S'NOUN'
p1408
F1.0
s(lp1409
(g138
I21
tp1410
atp1411
a(g1235
(dp1412
S'PRT'
p1413
F2e-06
sS'VERB'
p1414
F0.0
sS'NOUN'
p1415
F0.0
sS'ADP'
p1416
F0.9999979999999999
sg1121
F0.0
s(lp1417
(g393
I22
tp1418
atp1419
a(S'obowi\xc4\x85zuj\xc4\x85cymi'
p1420
(dp1421
S'VERB'
p1422
F0.002757
sS'ADJ'
p1423
F0.997244
s(lp1424
(g183
I26
tp1425
atp1426
a(S'wymogami'
p1427
(dp1428
S'NOUN'
p1429
F1.0
s(lp1430
(g168
I24
tp1431
atp1432
a(S'na'
p1433
(dp1434
S'PRT'
p1435
F1.5e-05
sS'VERB'
p1436
F1.4e-05
sS'NOUN'
p1437
F4.6e-05
sS'ADP'
p1438
F0.9999189999999999
sg1121
F6e-06
s(lp1439
tp1440
a(S'mocy'
p1441
(dp1442
S'NOUN'
p1443
F1.0000010000000001
s(lp1444
(g195
I27
tp1445
atp1446
a(S'mi\xc4\x99dzynarodowych'
p1447
(dp1448
S'ADJ'
p1449
F1.0
s(lp1450
(g209
I28
tp1451
atp1452
a(S'um\xc3\xb3w'
p1453
(dp1454
S'VERB'
p1455
F1.1e-05
sS'NOUN'
p1456
F0.999989
s(lp1457
(g202
I29
tp1458
atp1459
a(S'w'
p1460
(dp1461
g1121
F0.0
sS'ADJ'
p1462
F0.0
sS'ADP'
p1463
F0.999999
sS'NOUN'
p1464
F0.0
s(lp1465
(g217
I30
tp1466
atp1467
a(S'obszarze'
p1468
(dp1469
S'NOUN'
p1470
F1.0
s(lp1471
(g232
I32
tp1472
atp1473
a(S'lotnictwa'
p1474
(dp1475
S'NOUN'
p1476
F1.0
s(lp1477
(g253
I35
tp1478
atp1479
a(S'cywilnego'
p1480
(dp1481
S'ADJ'
p1482
F1.000001
s(lp1483
(g260
I34
tp1484
atp1485
a(g19
(dp1486
g19
F1.0
s(lp1487
(g19
I36
tp1488
atp1489
asS'sl'
p1490
(lp1491
(S'v'
p1492
(dp1493
S'ADP'
p1494
F1.0
s(lp1495
(g8
I0
tp1496
atp1497
a(S'pisni'
p1498
(dp1499
S'ADJ'
p1500
F1.0
s(lp1501
tp1502
a(S'obliki'
p1503
(dp1504
S'NOUN'
p1505
F1.0
s(lp1506
(g16
I1
tp1507
atp1508
a(g19
(dp1509
g19
F1.0
s(lp1510
(g19
I2
tp1511
atp1512
a(g24
(dp1513
g19
F1.0
s(lp1514
(g24
I3
tp1515
atp1516
a(g29
(dp1517
g19
F1.0
s(lp1518
(g29
I4
tp1519
atp1520
a(S'pt'
p1521
(dp1522
S'NOUN'
p1523
F1.0
s(lp1524
(g40
I5
tp1525
atp1526
a(g43
(dp1527
g19
F1.0
s(lp1528
(g43
I6
tp1529
atp1530
a(S'kot'
p1531
(dp1532
S'CONJ'
p1533
F0.999666
sS'NOUN'
p1534
F0.000334
s(lp1535
(g53
I7
tp1536
atp1537
a(S'smo'
p1538
(dp1539
g1121
F0.0
sS'VERB'
p1540
F1.0
s(lp1541
(g60
I8
tp1542
atp1543
a(S'izpostavili'
p1544
(dp1545
S'VERB'
p1546
F1.0
s(lp1547
(g81
I10
tp1548
atp1549
a(g84
(dp1550
g19
F1.0
s(lp1551
(g84
I12
tp1552
atp1553
a(S'so'
p1554
(dp1555
g1121
F5.8e-05
sS'VERB'
p1556
F0.999942
s(lp1557
(g358
I16
tp1558
atp1559
a(S'se'
p1560
(dp1561
S'PRON'
p1562
F0.99995
sg1121
F5e-05
s(lp1563
(g95
I13
tp1564
atp1565
a(S'nacionalni'
p1566
(dp1567
S'ADJ'
p1568
F1.0
s(lp1569
(g110
I14
tp1570
atp1571
a(S'organi'
p1572
(dp1573
S'NOUN'
p1574
F1.0
s(lp1575
(g102
I15
tp1576
atp1577
a(S'dolgo'
p1578
(dp1579
S'ADV'
p1580
F0.99734
sS'ADJ'
p1581
F0.00266
s(lp1582
tp1583
a(S'\xc4\x8dasa'
p1584
(dp1585
S'NOUN'
p1586
F1.0
s(lp1587
(g152
I17
tp1588
atp1589
a(S'usklajevali'
p1590
(dp1591
S'VERB'
p1592
F1.0
s(lp1593
(g117
I18
tp1594
atp1595
a(S'in'
p1596
(dp1597
S'ADV'
p1598
F0.004521
sg1121
F0.000113
sS'CONJ'
p1599
F0.99536
sS'NOUN'
p1600
F6e-06
s(lp1601
(g124
I19
tp1602
atp1603
a(S'zagotavljali'
p1604
(dp1605
S'VERB'
p1606
F1.0
s(lp1607
(g131
I20
tp1608
atp1609
a(S'usklajenost'
p1610
(dp1611
S'NOUN'
p1612
F1.0
s(lp1613
(g138
I21
tp1614
atp1615
a(g1235
(dp1616
S'ADP'
p1617
F1.0
s(lp1618
(g393
I22
tp1619
atp1620
a(S'zahtevami'
p1621
(dp1622
S'NOUN'
p1623
F1.0
s(lp1624
(g168
I24
tp1625
atp1626
a(S'iz'
p1627
(dp1628
g1121
F1.4e-05
sS'ADP'
p1629
F0.999986
s(lp1630
(g195
I27
tp1631
atp1632
a(S'mednarodnih'
p1633
(dp1634
S'ADJ'
p1635
F0.9999990000000001
s(lp1636
(g209
I28
tp1637
atp1638
a(S'sporazumov'
p1639
(dp1640
S'NOUN'
p1641
F1.0
s(lp1642
(g202
I29
tp1643
atp1644
a(S'na'
p1645
(dp1646
S'ADP'
p1647
F1.0
s(lp1648
(g217
I30
tp1649
atp1650
a(S'podro\xc4\x8dju'
p1651
(dp1652
S'NOUN'
p1653
F1.0
s(lp1654
(g232
I32
tp1655
atp1656
a(S'civilnega'
p1657
(dp1658
S'ADJ'
p1659
F1.0
s(lp1660
(g260
I34
tp1661
atp1662
a(S'letalstva'
p1663
(dp1664
S'NOUN'
p1665
F1.0
s(lp1666
(g253
I35
tp1667
atp1668
a(g19
(dp1669
g19
F1.0
s(lp1670
(g19
I36
tp1671
atp1672
asS'es'
p1673
(lp1674
(S'por'
p1675
(dp1676
S'ADP'
p1677
F1.0
s(lp1678
tp1679
a(S'escrito'
p1680
(dp1681
S'VERB'
p1682
F0.31338
sS'ADJ'
p1683
F0.68662
s(lp1684
(g16
I1
tp1685
atp1686
a(g19
(dp1687
g19
F1.0
s(lp1688
(g19
I2
tp1689
atp1690
a(g24
(dp1691
g19
F1.0
s(lp1692
(g24
I3
tp1693
atp1694
a(g29
(dp1695
g19
F1.0
s(lp1696
(g29
I4
tp1697
atp1698
a(S'pt'
p1699
(dp1700
S'ADJ'
p1701
F0.007217
sS'VERB'
p1702
F0.003829
sS'NOUN'
p1703
F0.988953
s(lp1704
(g40
I5
tp1705
atp1706
a(g43
(dp1707
g19
F1.0
s(lp1708
(g43
I6
tp1709
atp1710
a(S'como'
p1711
(dp1712
S'ADV'
p1713
F0.061618
sS'CONJ'
p1714
F0.938382
s(lp1715
(g53
I7
tp1716
atp1717
a(S'hemos'
p1718
(dp1719
S'VERB'
p1720
F1.0
s(lp1721
(g74
I9
tp1722
atp1723
a(S'se\xc3\xb1alado'
p1724
(dp1725
S'VERB'
p1726
F1.0
s(lp1727
(g81
I10
tp1728
atp1729
a(g84
(dp1730
g19
F1.0
s(lp1731
(g84
I12
tp1732
atp1733
a(S'las'
p1734
(dp1735
S'PRON'
p1736
F1.4e-05
sS'DET'
p1737
F0.999986
s(lp1738
(g95
I13
tp1739
atp1740
a(S'autoridades'
p1741
(dp1742
S'NOUN'
p1743
F1.0
s(lp1744
(g102
I15
tp1745
atp1746
a(S'nacionales'
p1747
(dp1748
S'ADJ'
p1749
F1.0
s(lp1750
(g110
I14
tp1751
atp1752
a(S'han'
p1753
(dp1754
S'VERB'
p1755
F1.0
s(lp1756
(g358
I16
tp1757
atp1758
a(S'cumplido'
p1759
(dp1760
S'VERB'
p1761
F0.999285
sS'ADJ'
p1762
F0.000715
s(lp1763
(g117
I18
tp1764
atp1765
a(S'durante'
p1766
(dp1767
S'ADP'
p1768
F1.0
s(lp1769
(g152
I17
tp1770
atp1771
a(S'mucho'
p1772
(dp1773
S'ADV'
p1774
F0.006789
sS'ADJ'
p1775
F0.993211
s(lp1776
tp1777
a(S'tiempo'
p1778
(dp1779
S'NOUN'
p1780
F1.0
s(lp1781
(g152
I17
tp1782
atp1783
a(g84
(dp1784
g19
F1.0
s(lp1785
tp1786
a(S'y'
p1787
(dp1788
g1121
F0.000194
sS'CONJ'
p1789
F0.999806
s(lp1790
(g124
I19
tp1791
atp1792
a(S'han'
p1793
(dp1794
S'VERB'
p1795
F1.0
s(lp1796
tp1797
a(S'hecho'
p1798
(dp1799
S'ADJ'
p1800
F0.005384
sS'VERB'
p1801
F0.976608
sS'NOUN'
p1802
F0.018008
s(lp1803
(g131
I20
tp1804
atp1805
a(S'cumplir'
p1806
(dp1807
S'VERB'
p1808
F1.0
s(lp1809
(g138
I21
tp1810
atp1811
a(g84
(dp1812
g19
F1.0
s(lp1813
tp1814
a(S'los'
p1815
(dp1816
S'PRON'
p1817
F2.5e-05
sS'DET'
p1818
F0.999975
s(lp1819
(g161
I23
tp1820
atp1821
a(S'requisitos'
p1822
(dp1823
S'NOUN'
p1824
F1.0
s(lp1825
(g168
I24
tp1826
atp1827
a(S'en'
p1828
(dp1829
g1121
F1.8e-05
sS'CONJ'
p1830
F1e-05
sS'ADP'
p1831
F0.999972
s(lp1832
(g176
I25
tp1833
atp1834
a(S'vigor'
p1835
(dp1836
S'NOUN'
p1837
F1.0
s(lp1838
(g183
I26
tp1839
atp1840
a(S'conforme'
p1841
(dp1842
S'ADP'
p1843
F1.0
s(lp1844
tp1845
a(g1184
(dp1846
S'ADP'
p1847
F1.0
s(lp1848
(g195
I27
tp1849
atp1850
a(S'los'
p1851
(dp1852
S'PRON'
p1853
F0.0
sS'DET'
p1854
F1.0
s(lp1855
tp1856
a(S'acuerdos'
p1857
(dp1858
S'NOUN'
p1859
F1.0
s(lp1860
(g202
I29
tp1861
atp1862
a(S'internacionales'
p1863
(dp1864
S'ADJ'
p1865
F1.0
s(lp1866
(g209
I28
tp1867
atp1868
a(S'en'
p1869
(dp1870
g1121
F0.0
sS'CONJ'
p1871
F1e-06
sS'ADP'
p1872
F0.999999
s(lp1873
(g217
I30
tp1874
atp1875
a(S'el'
p1876
(dp1877
S'PRON'
p1878
F5e-06
sS'DET'
p1879
F0.999995
s(lp1880
(g225
I31
tp1881
atp1882
a(S'\xc3\xa1mbito'
p1883
(dp1884
S'NOUN'
p1885
F1.0
s(lp1886
(g232
I32
tp1887
atp1888
a(S'de'
p1889
(dp1890
g1121
F0.0
sS'CONJ'
p1891
F1.7e-05
sS'ADP'
p1892
F0.999983
s(lp1893
(g239
I33
tp1894
atp1895
a(S'la'
p1896
(dp1897
g1121
F0.0
sS'PRON'
p1898
F0.0
sS'DET'
p1899
F0.999999
sS'NOUN'
p1900
F0.0
s(lp1901
tp1902
a(S'aviaci\xc3\xb3n'
p1903
(dp1904
S'NOUN'
p1905
F1.0
s(lp1906
(g253
I35
tp1907
atp1908
a(S'civil'
p1909
(dp1910
S'NOUN'
p1911
F0.008827
sS'ADJ'
p1912
F0.991173
s(lp1913
(g260
I34
tp1914
atp1915
a(g19
(dp1916
g19
F1.0
s(lp1917
(g19
I36
tp1918
atp1919
as.