(dp0
S'fr'
p1
(lp2
(S'toutefois'
p3
(dp4
S'ADV'
p5
F1.0
s(lp6
(S'however'
p7
I0
tp8
atp9
a(S','
p10
(dp11
S'.'
p12
F1.0
s(lp13
(g10
I1
tp14
atp15
a(S'cela'
p16
(dp17
S'PRON'
p18
F0.998468
sS'VERB'
p19
F0.001532
s(lp20
(S'this'
p21
I2
tp22
atp23
a(S"n'"
p24
(dp25
S'ADJ'
p26
F0.022266
sS'VERB'
p27
F0.5643689999999999
sS'NOUN'
p28
F0.413367
s(lp29
tp30
a(S'exempte'
p31
(dp32
S'VERB'
p33
F0.8273569999999999
sS'ADJ'
p34
F0.172643
s(lp35
(S'relieve'
p36
I5
tp37
atp38
a(S'pas'
p39
(dp40
S'ADV'
p41
F0.996955
sS'NOUN'
p42
F0.003045
s(lp43
(S'not'
p44
I4
tp45
atp46
a(S'les'
p47
(dp48
S'PRON'
p49
F0.000198
sS'DET'
p50
F0.999741
sS'ADP'
p51
F6.1e-05
s(lp52
(S'healthcare'
p53
I6
tp54
atp55
a(S'professionnels'
p56
(dp57
S'ADJ'
p58
F0.413538
sS'NOUN'
p59
F0.586462
s(lp60
(S'professionals'
p61
I7
tp62
atp63
a(S'de'
p64
(dp65
S'ADP'
p66
F1.0
s(lp67
(g53
I6
tp68
atp69
a(S'la'
p70
(dp71
S'PRON'
p72
F1.2e-05
sS'DET'
p73
F0.999988
sS'NOUN'
p74
F0.0
s(lp75
tp76
a(S'sant\xc3\xa9'
p77
(dp78
S'NOUN'
p79
F1.0
s(lp80
(g53
I6
tp81
atp82
a(S'de'
p83
(dp84
S'ADP'
p85
F1.0
s(lp86
(S'of'
p87
I8
tp88
atp89
a(S'leur'
p90
(dp91
S'PRON'
p92
F1.0
s(lp93
(S'their'
p94
I9
tp95
atp96
a(S'r\xc3\xb4le'
p97
(dp98
S'NOUN'
p99
F1.0
s(lp100
(S'role'
p101
I11
tp102
atp103
a(S'fondamental'
p104
(dp105
S'ADJ'
p106
F1.0
s(lp107
(S'fundamental'
p108
I10
tp109
atp110
a(S'de'
p111
(dp112
S'ADP'
p113
F1.0
s(lp114
tp115
a(S'source'
p116
(dp117
S'NOUN'
p118
F1.0
s(lp119
(S'source'
p120
I17
tp121
atp122
a(S'primaire'
p123
(dp124
S'NOUN'
p125
F0.009609
sS'ADJ'
p126
F0.990391
s(lp127
(S'primary'
p128
I14
tp129
atp130
a(S'et'
p131
(dp132
S'CONJ'
p133
F1.0
s(lp134
(S'and'
p135
I15
tp136
atp137
a(S'irrempla\xc3\xa7able'
p138
(dp139
S'ADJ'
p140
F1.0
s(lp141
(S'irreplaceable'
p142
I16
tp143
atp144
a(S"d'"
p145
(dp146
S'ADJ'
p147
F0.029663
sS'VERB'
p148
F0.37283
sS'NOUN'
p149
F0.597507
s(lp150
(S'of'
p151
I18
tp152
atp153
a(S'informations'
p154
(dp155
S'NOUN'
p156
F1.0
s(lp157
(S'information'
p158
I19
tp159
atp160
a(S'pour'
p161
(dp162
S'CONJ'
p163
F0.162139
sS'ADP'
p164
F0.837861
s(lp165
(S'for'
p166
I20
tp167
atp168
a(S'les'
p169
(dp170
S'PRON'
p171
F0.000127
sS'DET'
p172
F0.999869
sS'ADP'
p173
F3e-06
s(lp174
tp175
a(S'citoyens'
p176
(dp177
S'NOUN'
p178
F1.0
s(lp179
(S'citizens'
p180
I21
tp181
atp182
a(S'en'
p183
(dp184
S'PRON'
p185
F0.000406
sS'ADP'
p186
F0.999594
s(lp187
(S'on'
p188
I22
tp189
atp190
a(S'mati\xc3\xa8re'
p191
(dp192
S'NOUN'
p193
F1.0
s(lp194
(S'health'
p195
I23
tp196
atp197
a(S'de'
p198
(dp199
S'ADP'
p200
F1.0
s(lp201
tp202
a(S'sant\xc3\xa9'
p203
(dp204
S'NOUN'
p205
F1.0
s(lp206
(g195
I23
tp207
atp208
a(S'et'
p209
(dp210
S'CONJ'
p211
F1.0
s(lp212
(S'and'
p213
I24
tp214
atp215
a(S'de'
p216
(dp217
S'ADP'
p218
F1.0
s(lp219
tp220
a(S'traitement'
p221
(dp222
S'NOUN'
p223
F1.0
s(lp224
(S'treatment'
p225
I25
tp226
atp227
a(g12
(dp228
g12
F1.0
s(lp229
(g12
I26
tp230
atp231
asS'en'
p232
(lp233
(g7
(dp234
S'ADV'
p235
F1.0
s(lp236
(g7
I0
tp237
atp238
a(g10
(dp239
g12
F1.0
s(lp240
(g10
I1
tp241
atp242
a(g21
(dp243
S'ADV'
p244
F0.004741
sS'NOUN'
p245
F0.000847
sS'DET'
p246
F0.994412
s(lp247
(g21
I2
tp248
atp249
a(S'does'
p250
(dp251
S'VERB'
p252
F0.995437
sS'NOUN'
p253
F0.004563
s(lp254
(g250
I3
tp255
atp256
a(g44
(dp257
S'ADV'
p258
F1.0
s(lp259
(g44
I4
tp260
atp261
a(g36
(dp262
S'VERB'
p263
F1.0
s(lp264
(g36
I5
tp265
atp266
a(g53
(dp267
S'NOUN'
p268
F1.0
s(lp269
(g53
I6
tp270
atp271
a(g61
(dp272
S'NOUN'
p273
F1.0
s(lp274
(g61
I7
tp275
atp276
a(g87
(dp277
S'ADP'
p278
F1.0
s(lp279
(g87
I8
tp280
atp281
a(g94
(dp282
S'PRON'
p283
F1.0
s(lp284
(g94
I9
tp285
atp286
a(g108
(dp287
S'NOUN'
p288
F0.001889
sS'ADJ'
p289
F0.998111
s(lp290
(g108
I10
tp291
atp292
a(g101
(dp293
S'NOUN'
p294
F1.0
s(lp295
(g101
I11
tp296
atp297
a(S'as'
p298
(dp299
S'ADV'
p300
F0.011782
sS'ADP'
p301
F0.988218
s(lp302
(g298
I12
tp303
atp304
a(S'the'
p305
(dp306
S'NOUN'
p307
F1e-06
sS'DET'
p308
F0.999999
s(lp309
(g305
I13
tp310
atp311
a(g128
(dp312
S'NOUN'
p313
F0.227991
sS'ADJ'
p314
F0.772009
s(lp315
(g128
I14
tp316
atp317
a(g135
(dp318
S'CONJ'
p319
F0.999998
sS'NOUN'
p320
F2e-06
s(lp321
(g135
I15
tp322
atp323
a(g142
(dp324
S'ADJ'
p325
F1.0
s(lp326
(g142
I16
tp327
atp328
a(g120
(dp329
S'NOUN'
p330
F1.0
s(lp331
(g120
I17
tp332
atp333
a(g151
(dp334
S'ADP'
p335
F1.0
s(lp336
(g151
I18
tp337
atp338
a(g158
(dp339
S'NOUN'
p340
F1.0
s(lp341
(g158
I19
tp342
atp343
a(g166
(dp344
S'ADP'
p345
F1.0
s(lp346
(g166
I20
tp347
atp348
a(g180
(dp349
S'NOUN'
p350
F1.0
s(lp351
(g180
I21
tp352
atp353
a(g188
(dp354
S'ADV'
p355
F0.000401
sS'PRT'
p356
F0.000304
sS'ADJ'
p357
F5e-06
sS'ADP'
p358
F0.999289
sS'NOUN'
p359
F0.0
s(lp360
(g188
I22
tp361
atp362
a(g195
(dp363
S'NOUN'
p364
F1.0
s(lp365
(g195
I23
tp366
atp367
a(g213
(dp368
S'CONJ'
p369
F0.999998
sS'NOUN'
p370
F2e-06
s(lp371
(g213
I24
tp372
atp373
a(g225
(dp374
S'NOUN'
p375
F1.0
s(lp376
(g225
I25
tp377
atp378
a(g12
(dp379
g12
F1.0
s(lp380
(g12
I26
tp381
atp382
asS'nl'
p383
(lp384
(S'dit'
p385
(dp386
S'PRON'
p387
F1.0
s(lp388
(g21
I2
tp389
atp390
a(S'verschoont'
p391
(dp392
S'VERB'
p393
F1.0
s(lp394
(g36
I5
tp395
atp396
a(S'de'
p397
(dp398
S'DET'
p399
F1.0
s(lp400
(g53
I6
tp401
atp402
a(S'zorgverleners'
p403
(dp404
S'ADJ'
p405
F0.001622
sS'NOUN'
p406
F0.998378
s(lp407
(g61
I7
tp408
atp409
a(S'niet'
p410
(dp411
S'ADV'
p412
F0.999979
sS'PRON'
p413
F9e-06
sS'VERB'
p414
F1.2e-05
sS'X'
p415
F0.0
s(lp416
(g44
I4
tp417
atp418
a(S'van'
p419
(dp420
S'ADP'
p421
F1.0
s(lp422
(g87
I8
tp423
atp424
a(S'hun'
p425
(dp426
S'PRON'
p427
F1.0
s(lp428
(g94
I9
tp429
atp430
a(S'essenti\xc3\xable'
p431
(dp432
S'NOUN'
p433
F0.009729
sS'ADJ'
p434
F0.990271
s(lp435
(g108
I10
tp436
atp437
a(S'taak'
p438
(dp439
S'NOUN'
p440
F1.0
s(lp441
(g101
I11
tp442
atp443
a(S'als'
p444
(dp445
S'CONJ'
p446
F1.0
s(lp447
(g298
I12
tp448
atp449
a(S'primaire'
p450
(dp451
S'NOUN'
p452
F0.001509
sS'ADJ'
p453
F0.998491
s(lp454
(g128
I14
tp455
atp456
a(g10
(dp457
g12
F1.0
s(lp458
(g135
I15
tp459
atp460
a(S'onvervangbare'
p461
(dp462
S'NOUN'
p463
F0.003111
sS'ADJ'
p464
F0.996889
s(lp465
tp466
a(S'bron'
p467
(dp468
S'NOUN'
p469
F1.0
s(lp470
(g120
I17
tp471
atp472
a(S'van'
p473
(dp474
S'ADP'
p475
F1.0
s(lp476
(g151
I18
tp477
atp478
a(S'publieksgerichte'
p479
(dp480
S'NOUN'
p481
F0.119814
sS'ADJ'
p482
F0.880186
s(lp483
(g142
I16
tp484
atp485
a(S'voorlichting'
p486
(dp487
S'NOUN'
p488
F1.0
s(lp489
(g158
I19
tp490
atp491
a(S'over'
p492
(dp493
S'ADV'
p494
F0.00822
sS'ADP'
p495
F0.99178
s(lp496
(g188
I22
tp497
atp498
a(S'gezondheid'
p499
(dp500
g415
F2e-06
sS'NOUN'
p501
F0.999998
s(lp502
(g195
I23
tp503
atp504
a(S'en'
p505
(dp506
S'CONJ'
p507
F1.0
s(lp508
(g213
I24
tp509
atp510
a(S'geneesmiddelen'
p511
(dp512
S'NOUN'
p513
F1.0
s(lp514
(g225
I25
tp515
atp516
a(g12
(dp517
g12
F1.0
s(lp518
(g12
I26
tp519
atp520
asS'de'
p521
(lp522
(S'jedoch'
p523
(dp524
S'ADV'
p525
F0.893756
sS'CONJ'
p526
F0.106244
s(lp527
(g7
I0
tp528
atp529
a(S'enthebt'
p530
(dp531
S'VERB'
p532
F1.0
s(lp533
(g36
I5
tp534
atp535
a(S'dies'
p536
(dp537
S'PRON'
p538
F1.0
s(lp539
(g21
I2
tp540
atp541
a(S'die'
p542
(dp543
S'PRON'
p544
F0.002174
sS'DET'
p545
F0.996598
s(lp546
tp547
a(S'medizinischen'
p548
(dp549
S'ADJ'
p550
F1.0
s(lp551
(g53
I6
tp552
atp553
a(S'fachkr\xc3\xa4fte'
p554
(dp555
S'ADJ'
p556
F0.010464
sS'NOUN'
p557
F0.985101
s(lp558
(g61
I7
tp559
atp560
a(S'nicht'
p561
(dp562
S'PRT'
p563
F1.0
s(lp564
(g44
I4
tp565
atp566
a(S'ihrer'
p567
(dp568
S'PRON'
p569
F0.999988
s(lp570
(g94
I9
tp571
atp572
a(S'grundlegenden'
p573
(dp574
S'ADJ'
p575
F1.0
s(lp576
(g108
I10
tp577
atp578
a(S'rolle'
p579
(dp580
S'VERB'
p581
F1.0
s(lp582
(g101
I11
tp583
atp584
a(S'als'
p585
(dp586
S'CONJ'
p587
F0.9879439999999999
s(lp588
(g298
I12
tp589
atp590
a(S'die'
p591
(dp592
S'PRON'
p593
F0.003174
sS'DET'
p594
F0.996742
s(lp595
(g305
I13
tp596
atp597
a(S'prim\xc3\xa4re'
p598
(dp599
S'ADJ'
p600
F1.0
s(lp601
(g128
I14
tp602
atp603
a(S'und'
p604
(dp605
S'CONJ'
p606
F1.0
s(lp607
(g135
I15
tp608
atp609
a(S'unersetzbare'
p610
(dp611
S'ADJ'
p612
F1.0
s(lp613
(g142
I16
tp614
atp615
a(S'informationsquelle'
p616
(dp617
S'NOUN'
p618
F0.271676
sS'ADJ'
p619
F0.725898
s(lp620
(g120
I17
tp621
atp622
a(S'f\xc3\xbcr'
p623
(dp624
S'ADP'
p625
F1.0
s(lp626
(g166
I20
tp627
atp628
a(S'b\xc3\xbcrgerinnen'
p629
(dp630
S'NOUN'
p631
F0.307635
sS'ADJ'
p632
F0.353697
s(lp633
(g180
I21
tp634
atp635
a(S'und'
p636
(dp637
S'CONJ'
p638
F1.0
s(lp639
tp640
a(S'b\xc3\xbcrger'
p641
(dp642
S'VERB'
p643
F1.0
s(lp644
(g180
I21
tp645
atp646
a(S'hinsichtlich'
p647
(dp648
S'ADP'
p649
F1.0
s(lp650
(g188
I22
tp651
atp652
a(S'gesundheit'
p653
(dp654
S'ADJ'
p655
F0.002553
sS'NOUN'
p656
F0.996961
s(lp657
(g195
I23
tp658
atp659
a(S'und'
p660
(dp661
S'CONJ'
p662
F1.0
s(lp663
(g213
I24
tp664
atp665
a(S'behandlung'
p666
(dp667
S'VERB'
p668
F0.051519
sS'NOUN'
p669
F0.942233
s(lp670
(g225
I25
tp671
atp672
a(g12
(dp673
g12
F1.0
s(lp674
(g12
I26
tp675
atp676
asS'it'
p677
(lp678
(S'questo'
p679
(dp680
S'PRON'
p681
F1.0
s(lp682
(g21
I2
tp683
atp684
a(g10
(dp685
g12
F1.0
s(lp686
tp687
a(S'per\xc3\xb2'
p688
(dp689
S'ADV'
p690
F1.0
s(lp691
(g7
I0
tp692
atp693
a(g10
(dp694
g12
F1.0
s(lp695
(g10
I1
tp696
atp697
a(S'non'
p698
(dp699
S'ADV'
p700
F1.0
s(lp701
(g44
I4
tp702
atp703
a(S'toglie'
p704
(dp705
S'VERB'
p706
F1.0
s(lp707
(g36
I5
tp708
atp709
a(S'agli'
p710
(dp711
S'NOUN'
p712
F6.6e-05
sS'ADP'
p713
F0.999934
s(lp714
tp715
a(S'operatori'
p716
(dp717
S'ADJ'
p718
F0.021372
sS'NOUN'
p719
F0.978628
s(lp720
(g61
I7
tp721
atp722
a(S'sanitari'
p723
(dp724
S'NOUN'
p725
F0.022072
sS'ADJ'
p726
F0.977928
s(lp727
(g53
I6
tp728
atp729
a(S'il'
p730
(dp731
S'DET'
p732
F1.0
s(lp733
tp734
a(S'loro'
p735
(dp736
S'PRON'
p737
F1.0
s(lp738
(g94
I9
tp739
atp740
a(S'ruolo'
p741
(dp742
S'NOUN'
p743
F1.0
s(lp744
(g101
I11
tp745
atp746
a(S'fondamentale'
p747
(dp748
S'ADJ'
p749
F1.0
s(lp750
(g108
I10
tp751
atp752
a(S'di'
p753
(dp754
S'CONJ'
p755
F7e-06
sS'ADP'
p756
F0.999993
s(lp757
(g87
I8
tp758
atp759
a(S'essere'
p760
(dp761
S'VERB'
p762
F0.999712
sS'NOUN'
p763
F0.000288
s(lp764
(g298
I12
tp765
atp766
a(S'fonte'
p767
(dp768
S'NOUN'
p769
F1.0
s(lp770
(g120
I17
tp771
atp772
a(S'primaria'
p773
(dp774
S'NOUN'
p775
F0.036354
sS'ADJ'
p776
F0.963646
s(lp777
(g128
I14
tp778
atp779
a(S'e'
p780
(dp781
S'CONJ'
p782
F1.0
s(lp783
(g135
I15
tp784
atp785
a(S'insostituibile'
p786
(dp787
S'ADJ'
p788
F1.0
s(lp789
(g142
I16
tp790
atp791
a(S'di'
p792
(dp793
S'CONJ'
p794
F4e-06
sS'ADP'
p795
F0.999996
s(lp796
(g151
I18
tp797
atp798
a(S'informazioni'
p799
(dp800
S'NOUN'
p801
F1.0
s(lp802
(g158
I19
tp803
atp804
a(S'per'
p805
(dp806
S'CONJ'
p807
F0.052952
sS'ADP'
p808
F0.947048
s(lp809
(g166
I20
tp810
atp811
a(S'i'
p812
(dp813
S'DET'
p814
F1.0
s(lp815
tp816
a(S'cittadini'
p817
(dp818
S'ADJ'
p819
F0.055607
sS'NOUN'
p820
F0.944393
s(lp821
(g180
I21
tp822
atp823
a(S'in'
p824
(dp825
S'ADP'
p826
F1.0
s(lp827
(g188
I22
tp828
atp829
a(S'materia'
p830
(dp831
S'NOUN'
p832
F1.0
s(lp833
tp834
a(S'di'
p835
(dp836
S'CONJ'
p837
F4e-06
sS'ADP'
p838
F0.999996
s(lp839
tp840
a(S'salute'
p841
(dp842
g415
F5e-06
sS'NOUN'
p843
F0.999995
s(lp844
(g195
I23
tp845
atp846
a(g780
(dp847
S'CONJ'
p848
F1.0
s(lp849
(g213
I24
tp850
atp851
a(S'di'
p852
(dp853
S'CONJ'
p854
F2e-06
sS'ADP'
p855
F0.999998
s(lp856
tp857
a(S'cure'
p858
(dp859
S'NOUN'
p860
F1.0
s(lp861
(g225
I25
tp862
atp863
a(g12
(dp864
g12
F1.0
s(lp865
(g12
I26
tp866
atp867
asS'sk'
p868
(lp869
(S'to'
p870
(dp871
S'PRON'
p872
F0.9391560000000001
sS'CONJ'
p873
F0.019453
sg415
F0.04139
s(lp874
(g21
I2
tp875
atp876
a(S'v\xc5\xa1ak'
p877
(dp878
g415
F0.968884
sS'CONJ'
p879
F0.031116
s(lp880
(g7
I0
tp881
atp882
a(S'nezbavuje'
p883
(dp884
S'VERB'
p885
F1.0
s(lp886
(g36
I5
tp887
atp888
a(S'zdravotn\xc3\xadckych'
p889
(dp890
S'ADJ'
p891
F1.0
s(lp892
(g53
I6
tp893
atp894
a(S'pracovn\xc3\xadkov'
p895
(dp896
S'NOUN'
p897
F1.0
s(lp898
(g61
I7
tp899
atp900
a(S'ich'
p901
(dp902
S'PRON'
p903
F1.0
s(lp904
(g94
I9
tp905
atp906
a(S'z\xc3\xa1kladnej'
p907
(dp908
S'ADJ'
p909
F1.0
s(lp910
(g108
I10
tp911
atp912
a(S'\xc3\xbalohy'
p913
(dp914
S'NOUN'
p915
F1.0
s(lp916
(g101
I11
tp917
atp918
a(S'prim\xc3\xa1rneho'
p919
(dp920
S'ADJ'
p921
F1.0
s(lp922
(g128
I14
tp923
atp924
a(S'a'
p925
(dp926
g415
F0.000636
sS'CONJ'
p927
F0.997733
sS'NOUN'
p928
F0.001516
sS'ADP'
p929
F0.000109
sS'PRT'
p930
F5e-06
s(lp931
(g135
I15
tp932
atp933
a(S'nenahradite\xc4\xben\xc3\xa9ho'
p934
(dp935
S'ADJ'
p936
F1.0
s(lp937
(g142
I16
tp938
atp939
a(S'zdroja'
p940
(dp941
S'NOUN'
p942
F1.0
s(lp943
(g120
I17
tp944
atp945
a(S'inform\xc3\xa1ci\xc3\xad'
p946
(dp947
S'NOUN'
p948
F1.0
s(lp949
(g158
I19
tp950
atp951
a(S'pre'
p952
(dp953
g415
F4e-06
sS'ADP'
p954
F0.999996
s(lp955
(g166
I20
tp956
atp957
a(S'ob\xc4\x8danov'
p958
(dp959
S'NOUN'
p960
F1.0
s(lp961
(g180
I21
tp962
atp963
a(S'o'
p964
(dp965
g415
F0.000212
sS'CONJ'
p966
F6e-05
sS'NOUN'
p967
F8e-06
sS'ADP'
p968
F0.999719
s(lp969
(g188
I22
tp970
atp971
a(S'zdrav\xc3\xad'
p972
(dp973
S'ADJ'
p974
F0.087635
sS'VERB'
p975
F2e-06
sS'NOUN'
p976
F0.912364
s(lp977
(g195
I23
tp978
atp979
a(g925
(dp980
g415
F0.002372
sS'CONJ'
p981
F0.996706
sS'NOUN'
p982
F0.00018899999999999999
sS'ADP'
p983
F0.000708
sS'PRT'
p984
F2.5e-05
s(lp985
(g213
I24
tp986
atp987
a(S'lie\xc4\x8dbe'
p988
(dp989
S'NOUN'
p990
F1.0
s(lp991
(g225
I25
tp992
atp993
a(g12
(dp994
g12
F1.0
s(lp995
(g12
I26
tp996
atp997
asS'pl'
p998
(lp999
(S'nie'
p1000
(dp1001
S'ADV'
p1002
F2.5e-05
sS'PRT'
p1003
F0.994819
sS'CONJ'
p1004
F0.005152
sS'NOUN'
p1005
F4e-06
sS'PRON'
p1006
F0.0
s(lp1007
(g44
I4
tp1008
atp1009
a(S'odbiera'
p1010
(dp1011
S'VERB'
p1012
F1.0
s(lp1013
(g36
I5
tp1014
atp1015
a(S'to'
p1016
(dp1017
S'NOUN'
p1018
F0.640514
sS'ADP'
p1019
F3e-06
sS'PRT'
p1020
F0.170282
sg415
F1e-06
sS'CONJ'
p1021
F0.042874
sS'ADJ'
p1022
F0.14632699999999998
s(lp1023
(g21
I2
tp1024
atp1025
a(S'jednak'
p1026
(dp1027
S'PRT'
p1028
F0.145462
sS'CONJ'
p1029
F0.854538
s(lp1030
(g7
I0
tp1031
atp1032
a(S'pracownikom'
p1033
(dp1034
S'NOUN'
p1035
F1.0
s(lp1036
(g61
I7
tp1037
atp1038
a(S's\xc5\x82u\xc5\xbcby'
p1039
(dp1040
S'NOUN'
p1041
F1.0
s(lp1042
tp1043
a(S'zdrowia'
p1044
(dp1045
S'NOUN'
p1046
F1.0
s(lp1047
(g53
I6
tp1048
atp1049
a(S'ich'
p1050
(dp1051
S'PRON'
p1052
F0.9999030000000002
sg415
F9.8e-05
s(lp1053
(g94
I9
tp1054
atp1055
a(S'fundamentalnej'
p1056
(dp1057
S'ADJ'
p1058
F1.0
s(lp1059
(g108
I10
tp1060
atp1061
a(S'roli'
p1062
(dp1063
S'NOUN'
p1064
F1.0
s(lp1065
(g101
I11
tp1066
atp1067
a(S'jako'
p1068
(dp1069
S'ADV'
p1070
F0.001081
sS'CONJ'
p1071
F0.988338
sS'ADP'
p1072
F0.010581
s(lp1073
(g298
I12
tp1074
atp1075
a(S'podstawowego'
p1076
(dp1077
S'ADJ'
p1078
F1.0
s(lp1079
(g128
I14
tp1080
atp1081
a(g812
(dp1082
S'PRT'
p1083
F0.00373
sS'CONJ'
p1084
F0.996217
sS'NOUN'
p1085
F4.6e-05
sg415
F1e-06
sS'PRON'
p1086
F6e-06
s(lp1087
(g135
I15
tp1088
atp1089
a(S'niezast\xc4\x85pionego'
p1090
(dp1091
S'ADV'
p1092
F0.000484
sS'NOUN'
p1093
F0.001691
sS'VERB'
p1094
F0.010588
sS'ADJ'
p1095
F0.987238
s(lp1096
tp1097
a(S'\xc5\xbar\xc3\xb3d\xc5\x82a'
p1098
(dp1099
S'NOUN'
p1100
F1.0
s(lp1101
(g120
I17
tp1102
atp1103
a(S'udzielanych'
p1104
(dp1105
S'VERB'
p1106
F1.0
s(lp1107
(g142
I16
tp1108
atp1109
a(S'obywatelom'
p1110
(dp1111
S'NOUN'
p1112
F1.0
s(lp1113
(g180
I21
tp1114
atp1115
a(S'informacji'
p1116
(dp1117
S'NOUN'
p1118
F1.0
s(lp1119
(g158
I19
tp1120
atp1121
a(S'na'
p1122
(dp1123
g415
F3e-06
sS'VERB'
p1124
F1.6e-05
sS'NOUN'
p1125
F0.0
sS'ADP'
p1126
F0.999979
sS'PRT'
p1127
F1e-06
s(lp1128
tp1129
a(S'temat'
p1130
(dp1131
S'NOUN'
p1132
F1.0
s(lp1133
(g188
I22
tp1134
atp1135
a(S'zdrowia'
p1136
(dp1137
S'NOUN'
p1138
F1.0
s(lp1139
(g195
I23
tp1140
atp1141
a(g812
(dp1142
S'PRT'
p1143
F0.002956
sS'CONJ'
p1144
F0.996916
sS'NOUN'
p1145
F4.5e-05
sg415
F2e-06
sS'PRON'
p1146
F8.2e-05
s(lp1147
(g213
I24
tp1148
atp1149
a(S'leczenia'
p1150
(dp1151
S'VERB'
p1152
F0.183671
sS'NOUN'
p1153
F0.816329
s(lp1154
(g225
I25
tp1155
atp1156
a(g12
(dp1157
g12
F1.0
s(lp1158
(g12
I26
tp1159
atp1160
asS'sl'
p1161
(lp1162
(S'vendar'
p1163
(dp1164
S'ADV'
p1165
F0.120765
sS'CONJ'
p1166
F0.879235
s(lp1167
tp1168
a(S'pa'
p1169
(dp1170
g415
F0.000302
sS'CONJ'
p1171
F0.999698
s(lp1172
(g7
I0
tp1173
atp1174
a(S'to'
p1175
(dp1176
S'PRON'
p1177
F0.999695
sg415
F0.000304
s(lp1178
(g21
I2
tp1179
atp1180
a(S'zdravstvenih'
p1181
(dp1182
S'ADJ'
p1183
F1.0000010000000001
s(lp1184
(g53
I6
tp1185
atp1186
a(S'delavcev'
p1187
(dp1188
S'NOUN'
p1189
F1.0
s(lp1190
(g61
I7
tp1191
atp1192
a(S'ne'
p1193
(dp1194
S'PRT'
p1195
F0.975301
sS'CONJ'
p1196
F0.02449
sg415
F0.000209
s(lp1197
(g44
I4
tp1198
atp1199
a(S'razre\xc5\xa1uje'
p1200
(dp1201
S'ADV'
p1202
F2.8e-05
sS'ADJ'
p1203
F1.4e-05
sS'VERB'
p1204
F0.9980749999999998
sS'NOUN'
p1205
F0.0018820000000000004
s(lp1206
(g36
I5
tp1207
atp1208
a(S'njihove'
p1209
(dp1210
S'PRON'
p1211
F1.000001
s(lp1212
(g94
I9
tp1213
atp1214
a(S'temeljne'
p1215
(dp1216
S'ADJ'
p1217
F1.0
s(lp1218
(g108
I10
tp1219
atp1220
a(S'vloge'
p1221
(dp1222
S'NOUN'
p1223
F1.000001
s(lp1224
(g101
I11
tp1225
atp1226
a(S'kot'
p1227
(dp1228
S'CONJ'
p1229
F0.997599
sS'NOUN'
p1230
F0.0024010000000000004
s(lp1231
(g298
I12
tp1232
atp1233
a(S'glavnega'
p1234
(dp1235
S'ADJ'
p1236
F1.0
s(lp1237
(g128
I14
tp1238
atp1239
a(S'in'
p1240
(dp1241
S'ADV'
p1242
F4.3e-05
sg415
F1.2e-05
sS'CONJ'
p1243
F0.999874
sS'NOUN'
p1244
F7e-05
s(lp1245
(g135
I15
tp1246
atp1247
a(S'nenadomestljivega'
p1248
(dp1249
S'ADV'
p1250
F0.000198
sS'NOUN'
p1251
F0.000344
sS'ADJ'
p1252
F0.999458
s(lp1253
(g142
I16
tp1254
atp1255
a(S'vira'
p1256
(dp1257
S'NOUN'
p1258
F1.0
s(lp1259
(g120
I17
tp1260
atp1261
a(S'informacij'
p1262
(dp1263
S'NOUN'
p1264
F1.0
s(lp1265
(g158
I19
tp1266
atp1267
a(S'za'
p1268
(dp1269
S'ADV'
p1270
F2.4e-05
sg415
F4e-06
sS'ADP'
p1271
F0.999972
s(lp1272
(g166
I20
tp1273
atp1274
a(S'dr\xc5\xbeavljane'
p1275
(dp1276
S'NOUN'
p1277
F1.0
s(lp1278
(g180
I21
tp1279
atp1280
a(S'glede'
p1281
(dp1282
S'ADV'
p1283
F0.018409
sS'ADP'
p1284
F0.981591
s(lp1285
(g188
I22
tp1286
atp1287
a(S'zdravja'
p1288
(dp1289
S'NOUN'
p1290
F1.0
s(lp1291
(g195
I23
tp1292
atp1293
a(S'in'
p1294
(dp1295
S'ADV'
p1296
F6.1e-05
sg415
F1.8e-05
sS'CONJ'
p1297
F0.999893
sS'NOUN'
p1298
F2.8e-05
s(lp1299
(g213
I24
tp1300
atp1301
a(S'zdravljenja'
p1302
(dp1303
S'NOUN'
p1304
F1.0
s(lp1305
(g225
I25
tp1306
atp1307
a(g12
(dp1308
g12
F1.0
s(lp1309
(g12
I26
tp1310
atp1311
asS'es'
p1312
(lp1313
(S'sin'
p1314
(dp1315
S'ADV'
p1316
F1.0
s(lp1317
tp1318
a(S'embargo'
p1319
(dp1320
S'ADV'
p1321
F1.0
s(lp1322
(g7
I0
tp1323
atp1324
a(g10
(dp1325
g12
F1.0
s(lp1326
(g10
I1
tp1327
atp1328
a(S'ello'
p1329
(dp1330
S'PRON'
p1331
F1.0
s(lp1332
(g21
I2
tp1333
atp1334
a(S'no'
p1335
(dp1336
S'ADV'
p1337
F1.0
sg415
F0.0
s(lp1338
(g44
I4
tp1339
atp1340
a(S'exime'
p1341
(dp1342
S'VERB'
p1343
F1.0
s(lp1344
(g36
I5
tp1345
atp1346
a(g925
(dp1347
g415
F6.3e-05
sS'CONJ'
p1348
F4e-06
sS'ADP'
p1349
F0.999933
s(lp1350
tp1351
a(S'los'
p1352
(dp1353
S'PRON'
p1354
F0.0
sS'DET'
p1355
F1.0
s(lp1356
tp1357
a(S'profesionales'
p1358
(dp1359
S'ADJ'
p1360
F0.087839
sS'NOUN'
p1361
F0.912161
s(lp1362
(g61
I7
tp1363
atp1364
a(S'de'
p1365
(dp1366
g415
F0.0
sS'CONJ'
p1367
F2.1e-05
sS'ADP'
p1368
F0.999979
s(lp1369
tp1370
a(S'la'
p1371
(dp1372
g415
F0.0
sS'PRON'
p1373
F0.0
sS'DET'
p1374
F0.999999
sS'NOUN'
p1375
F0.0
s(lp1376
tp1377
a(S'sanidad'
p1378
(dp1379
S'NOUN'
p1380
F1.0
s(lp1381
(g53
I6
tp1382
atp1383
a(S'de'
p1384
(dp1385
g415
F0.0
sS'CONJ'
p1386
F0.000289
sS'ADP'
p1387
F0.999711
s(lp1388
(g87
I8
tp1389
atp1390
a(S'su'
p1391
(dp1392
S'PRON'
p1393
F1.0
s(lp1394
(g94
I9
tp1395
atp1396
a(S'funci\xc3\xb3n'
p1397
(dp1398
S'NOUN'
p1399
F1.0
s(lp1400
(g101
I11
tp1401
atp1402
a(S'primordial'
p1403
(dp1404
S'ADJ'
p1405
F1.0
s(lp1406
(g108
I10
tp1407
atp1408
a(S'como'
p1409
(dp1410
S'ADV'
p1411
F0.113709
sS'CONJ'
p1412
F0.8862909999999999
s(lp1413
(g298
I12
tp1414
atp1415
a(S'fuente'
p1416
(dp1417
S'NOUN'
p1418
F1.0
s(lp1419
(g120
I17
tp1420
atp1421
a(S'principal'
p1422
(dp1423
g415
F0.000758
sS'ADJ'
p1424
F0.999242
s(lp1425
(g128
I14
tp1426
atp1427
a(g780
(dp1428
g415
F0.055108
sS'CONJ'
p1429
F0.943385
sS'ADP'
p1430
F0.001507
s(lp1431
(g135
I15
tp1432
atp1433
a(S'irremplazable'
p1434
(dp1435
S'NOUN'
p1436
F0.006321
sS'ADJ'
p1437
F0.993679
s(lp1438
(g142
I16
tp1439
atp1440
a(S'de'
p1441
(dp1442
g415
F3.1e-05
sS'CONJ'
p1443
F0.001478
sS'ADP'
p1444
F0.998491
s(lp1445
(g151
I18
tp1446
atp1447
a(S'informaci\xc3\xb3n'
p1448
(dp1449
S'NOUN'
p1450
F1.0
s(lp1451
(g158
I19
tp1452
atp1453
a(S'para'
p1454
(dp1455
S'CONJ'
p1456
F0.000662
sS'ADP'
p1457
F0.999338
s(lp1458
(g166
I20
tp1459
atp1460
a(S'los'
p1461
(dp1462
S'PRON'
p1463
F0.0
sS'DET'
p1464
F1.0
s(lp1465
tp1466
a(S'ciudadanos'
p1467
(dp1468
S'NOUN'
p1469
F1.0
s(lp1470
(g180
I21
tp1471
atp1472
a(S'en'
p1473
(dp1474
S'ADP'
p1475
F1.0
s(lp1476
(g188
I22
tp1477
atp1478
a(S'materia'
p1479
(dp1480
S'ADP'
p1481
F1.0
s(lp1482
tp1483
a(S'de'
p1484
(dp1485
S'ADP'
p1486
F1.0
s(lp1487
tp1488
a(S'salud'
p1489
(dp1490
S'NOUN'
p1491
F1.0
s(lp1492
(g195
I23
tp1493
atp1494
a(S'y'
p1495
(dp1496
g415
F0.001008
sS'CONJ'
p1497
F0.998992
s(lp1498
(g213
I24
tp1499
atp1500
a(S'tratamientos'
p1501
(dp1502
S'NOUN'
p1503
F1.0
s(lp1504
(g225
I25
tp1505
atp1506
a(g12
(dp1507
g12
F1.0
s(lp1508
(g12
I26
tp1509
atp1510
as.