(dp0
S'fr'
p1
(lp2
(S'la'
p3
(dp4
S'PRON'
p5
F8.2e-05
sS'DET'
p6
F0.999918
sS'NOUN'
p7
F0.0
s(lp8
tp9
a(S'finalisation'
p10
(dp11
S'ADJ'
p12
F0.000456
sS'NOUN'
p13
F0.999544
s(lp14
(S'finalising'
p15
I6
tp16
atp17
a(S'du'
p18
(dp19
S'ADP'
p20
F1.0
s(lp21
(S'the'
p22
I7
tp23
atp24
a(S'programme'
p25
(dp26
S'VERB'
p27
F0.0
sS'NOUN'
p28
F1.0
s(lp29
(S'programme'
p30
I10
tp31
atp32
a(S'national'
p33
(dp34
S'NOUN'
p35
F0.007085
sS'ADJ'
p36
F0.992915
s(lp37
(S'national'
p38
I8
tp39
atp40
a(S'en'
p41
(dp42
S'PRON'
p43
F0.000276
sS'ADP'
p44
F0.999724
s(lp45
(S'on'
p46
I5
tp47
atp48
a(S'fonction'
p49
(dp50
S'NOUN'
p51
F1.0
s(lp52
(S'ipa'
p53
I9
tp54
atp55
a(S'de'
p56
(dp57
S'ADP'
p58
F1.0
s(lp59
tp60
a(S"l'"
p61
(dp62
S'ADJ'
p63
F0.160704
sS'VERB'
p64
F0.06480800000000002
sS'NOUN'
p65
F0.774488
s(lp66
tp67
a(S'iap'
p68
(dp69
S'ADJ'
p70
F0.001951
sS'NOUN'
p71
F0.998049
s(lp72
(g53
I9
tp73
atp74
a(S"d'"
p75
(dp76
S'NOUN'
p77
F0.033544
sS'VERB'
p78
F0.6933880000000001
sS'ADJ'
p79
F0.273068
s(lp80
(S'for'
p81
I11
tp82
atp83
a(S'ici'
p84
(dp85
S'ADV'
p86
F1.0
s(lp87
tp88
a(S'2011'
p89
(dp90
S'X'
p91
F1e-06
sS'NUM'
p92
F0.999999
s(lp93
(S'2011'
p94
I12
tp95
atp96
a(S'est'
p97
(dp98
S'VERB'
p99
F0.843812
sS'NOUN'
p100
F0.156188
s(lp101
(S'is'
p102
I2
tp103
atp104
a(S'en'
p105
(dp106
S'PRON'
p107
F0.002866
sS'ADP'
p108
F0.997134
s(lp109
(S'being'
p110
I3
tp111
atp112
a(S'bonne'
p113
(dp114
S'ADV'
p115
F0.008435
sS'NOUN'
p116
F0.003898
sS'ADJ'
p117
F0.987667
s(lp118
(S'good'
p119
I0
tp120
atp121
a(S'voie'
p122
(dp123
S'VERB'
p124
F8.9e-05
sS'NOUN'
p125
F0.999911
s(lp126
(S'progress'
p127
I1
tp128
atp129
a(S'et'
p130
(dp131
S'CONJ'
p132
F1.0
s(lp133
(S'and'
p134
I13
tp135
atp136
a(S'un'
p137
(dp138
S'NOUN'
p139
F0.001885
sS'NUM'
p140
F0.000377
sS'DET'
p141
F0.997739
s(lp142
(S'a'
p143
I14
tp144
atp145
a(S'certain'
p146
(dp147
S'PRON'
p148
F0.950019
sS'ADJ'
p149
F0.049981
s(lp150
tp151
a(S'nombre'
p152
(dp153
S'VERB'
p154
F0.01545
sS'NOUN'
p155
F0.984549
s(lp156
(S'number'
p157
I15
tp158
atp159
a(S"d'"
p160
(dp161
S'NOUN'
p162
F0.033298
sS'VERB'
p163
F0.6956459999999999
sS'ADJ'
p164
F0.271057
s(lp165
(S'of'
p166
I16
tp167
atp168
a(S'activit\xc3\xa9s'
p169
(dp170
S'NOUN'
p171
F1.0
s(lp172
(S'activities'
p173
I18
tp174
atp175
a(S'sp\xc3\xa9cifiques'
p176
(dp177
S'ADJ'
p178
F1.0
s(lp179
(S'specific'
p180
I17
tp181
atp182
a(S'ont'
p183
(dp184
S'VERB'
p185
F1.0
s(lp186
(S'have'
p187
I19
tp188
atp189
a(S'\xc3\xa9t\xc3\xa9'
p190
(dp191
S'VERB'
p192
F0.988158
sS'NOUN'
p193
F0.011842
s(lp194
tp195
a(S'lanc\xc3\xa9es'
p196
(dp197
S'VERB'
p198
F0.840667
sS'NOUN'
p199
F0.159333
s(lp200
(S'started'
p201
I20
tp202
atp203
a(S'dans'
p204
(dp205
S'NOUN'
p206
F6e-06
sS'ADP'
p207
F0.999994
s(lp208
(S'in'
p209
I21
tp210
atp211
a(S'le'
p212
(dp213
S'PRON'
p214
F0.000448
sS'DET'
p215
F0.999552
s(lp216
(S'the'
p217
I22
tp218
atp219
a(S'cadre'
p220
(dp221
S'VERB'
p222
F0.000415
sS'NOUN'
p223
F0.999585
s(lp224
(S'framework'
p225
I23
tp226
atp227
a(S'du'
p228
(dp229
S'ADP'
p230
F1.0
s(lp231
tp232
a(S'programme'
p233
(dp234
S'VERB'
p235
F1e-06
sS'NOUN'
p236
F0.999999
s(lp237
(S'programme'
p238
I34
tp239
atp240
a(S"d'"
p241
(dp242
S'NOUN'
p243
F0.032441
sS'VERB'
p244
F0.6940129999999999
sS'ADJ'
p245
F0.273544
s(lp246
(S'of'
p247
I24
tp248
atp249
a(S'assistance'
p250
(dp251
S'NOUN'
p252
F1.0
s(lp253
(S'assistance'
p254
I27
tp255
atp256
a(S'technique'
p257
(dp258
S'NOUN'
p259
F0.009609
sS'ADJ'
p260
F0.990391
s(lp261
(S'technical'
p262
I26
tp263
atp264
a(S'et'
p265
(dp266
S'CONJ'
p267
F1.0
s(lp268
(S'and'
p269
I28
tp270
atp271
a(S"d'"
p272
(dp273
S'NOUN'
p274
F0.050387
sS'VERB'
p275
F0.8915730000000001
sS'ADJ'
p276
F0.05804
s(lp277
tp278
a(S'\xc3\xa9change'
p279
(dp280
S'VERB'
p281
F0.690912
sS'NOUN'
p282
F0.309088
s(lp283
(S'exchange'
p284
I30
tp285
atp286
a(S"d'"
p287
(dp288
S'NOUN'
p289
F0.070749
sS'VERB'
p290
F0.766942
sS'ADJ'
p291
F0.162308
s(lp292
tp293
a(S'informations'
p294
(dp295
S'NOUN'
p296
F1.0
s(lp297
(S'information'
p298
I29
tp299
atp300
a(S'('
p301
(dp302
S'.'
p303
F1.0
s(lp304
(g301
I31
tp305
atp306
a(S'taiex'
p307
(dp308
S'ADJ'
p309
F0.023555
sS'NOUN'
p310
F0.976445
s(lp311
(S'taiex'
p312
I32
tp313
atp314
a(S')'
p315
(dp316
g303
F1.0
s(lp317
(g315
I33
tp318
atp319
a(g303
(dp320
g303
F1.0
s(lp321
(g303
I35
tp322
atp323
asS'en'
p324
(lp325
(g119
(dp326
S'ADV'
p327
F0.00116
sS'NOUN'
p328
F0.003627
sS'ADJ'
p329
F0.995213
s(lp330
(g119
I0
tp331
atp332
a(g127
(dp333
S'VERB'
p334
F2.2e-05
sS'NOUN'
p335
F0.999978
s(lp336
(g127
I1
tp337
atp338
a(g102
(dp339
S'VERB'
p340
F1.0
s(lp341
(g102
I2
tp342
atp343
a(g110
(dp344
S'NOUN'
p345
F0.0
sS'VERB'
p346
F0.999998
sS'ADJ'
p347
F1e-06
s(lp348
(g110
I3
tp349
atp350
a(S'made'
p351
(dp352
S'VERB'
p353
F0.999981
sS'ADJ'
p354
F1.9e-05
s(lp355
(g351
I4
tp356
atp357
a(g46
(dp358
S'ADV'
p359
F0.002221
sS'PRT'
p360
F0.004901
sS'ADJ'
p361
F0.0
sS'NOUN'
p362
F1e-06
sS'ADP'
p363
F0.992877
s(lp364
(g46
I5
tp365
atp366
a(g15
(dp367
S'VERB'
p368
F1.0
s(lp369
(g15
I6
tp370
atp371
a(g22
(dp372
S'NOUN'
p373
F0.0
sS'DET'
p374
F1.0
s(lp375
(g22
I7
tp376
atp377
a(g38
(dp378
S'NOUN'
p379
F0.000372
sS'ADJ'
p380
F0.999628
s(lp381
(g38
I8
tp382
atp383
a(g53
(dp384
S'ADJ'
p385
F0.005388
sS'NOUN'
p386
F0.994611
s(lp387
(g53
I9
tp388
atp389
a(g30
(dp390
S'VERB'
p391
F0.046190999999999996
sS'NOUN'
p392
F0.953809
s(lp393
(g30
I10
tp394
atp395
a(g81
(dp396
S'ADP'
p397
F1.0
s(lp398
(g81
I11
tp399
atp400
a(g94
(dp401
S'ADV'
p402
F2.7e-05
sS'ADJ'
p403
F0.001623
sS'NUM'
p404
F0.995297
sS'NOUN'
p405
F0.003054
sg91
F0.0
s(lp406
(g94
I12
tp407
atp408
a(g134
(dp409
S'CONJ'
p410
F0.999997
sS'NOUN'
p411
F3e-06
s(lp412
(g134
I13
tp413
atp414
a(g143
(dp415
S'NOUN'
p416
F0.0
sS'DET'
p417
F1.0
s(lp418
(g143
I14
tp419
atp420
a(g157
(dp421
S'ADJ'
p422
F0.000161
sS'VERB'
p423
F0.0
sS'NOUN'
p424
F0.999838
s(lp425
(g157
I15
tp426
atp427
a(g166
(dp428
S'ADP'
p429
F1.0
s(lp430
(g166
I16
tp431
atp432
a(g180
(dp433
S'NOUN'
p434
F0.015667
sS'ADJ'
p435
F0.984333
s(lp436
(g180
I17
tp437
atp438
a(g173
(dp439
S'NOUN'
p440
F1.0
s(lp441
(g173
I18
tp442
atp443
a(g187
(dp444
S'VERB'
p445
F1.0
s(lp446
(g187
I19
tp447
atp448
a(g201
(dp449
S'VERB'
p450
F1.0
s(lp451
(g201
I20
tp452
atp453
a(g209
(dp454
S'ADV'
p455
F0.000366
sS'PRT'
p456
F0.003797
sS'ADP'
p457
F0.995837
s(lp458
(g209
I21
tp459
atp460
a(g217
(dp461
S'NOUN'
p462
F1e-06
sS'DET'
p463
F0.999999
s(lp464
(g217
I22
tp465
atp466
a(g225
(dp467
S'NOUN'
p468
F1.0
s(lp469
(g225
I23
tp470
atp471
a(g247
(dp472
S'ADP'
p473
F1.0
s(lp474
(g247
I24
tp475
atp476
a(S'the'
p477
(dp478
S'NOUN'
p479
F1e-06
sS'DET'
p480
F0.999999
s(lp481
(g477
I25
tp482
atp483
a(g262
(dp484
S'ADJ'
p485
F1.0
s(lp486
(g262
I26
tp487
atp488
a(g254
(dp489
S'NOUN'
p490
F1.0
s(lp491
(g254
I27
tp492
atp493
a(g269
(dp494
S'CONJ'
p495
F0.999998
sS'NOUN'
p496
F2e-06
s(lp497
(g269
I28
tp498
atp499
a(g298
(dp500
S'NOUN'
p501
F1.0
s(lp502
(g298
I29
tp503
atp504
a(g284
(dp505
S'VERB'
p506
F0.004738
sS'NOUN'
p507
F0.995261
s(lp508
(g284
I30
tp509
atp510
a(g301
(dp511
g303
F1.0
s(lp512
(g301
I31
tp513
atp514
a(g312
(dp515
S'ADJ'
p516
F0.063366
sS'VERB'
p517
F0.00245
sS'NOUN'
p518
F0.934183
s(lp519
(g312
I32
tp520
atp521
a(g315
(dp522
g303
F1.0
s(lp523
(g315
I33
tp524
atp525
a(g238
(dp526
S'VERB'
p527
F0.290329
sS'NOUN'
p528
F0.709671
s(lp529
(g238
I34
tp530
atp531
a(g303
(dp532
g303
F1.0
s(lp533
(g303
I35
tp534
atp535
asS'nl'
p536
(lp537
(S'er'
p538
(dp539
S'ADV'
p540
F1.0
s(lp541
(g110
I3
tp542
atp543
a(S'wordt'
p544
(dp545
S'VERB'
p546
F1.0
s(lp547
(g102
I2
tp548
atp549
a(S'goede'
p550
(dp551
S'NOUN'
p552
F0.0149
sS'ADJ'
p553
F0.9851
s(lp554
(g119
I0
tp555
atp556
a(S'vooruitgang'
p557
(dp558
S'NOUN'
p559
F1.0
s(lp560
(g127
I1
tp561
atp562
a(S'gemaakt'
p563
(dp564
S'VERB'
p565
F0.99826
sS'ADJ'
p566
F0.00174
s(lp567
(g351
I4
tp568
atp569
a(S'met'
p570
(dp571
S'ADP'
p572
F1.0
s(lp573
(g46
I5
tp574
atp575
a(S'het'
p576
(dp577
S'PRON'
p578
F0.00582
sS'DET'
p579
F0.994181
s(lp580
(g22
I7
tp581
atp582
a(S'nationaal'
p583
(dp584
S'ADJ'
p585
F1.0
s(lp586
(g38
I8
tp587
atp588
a(S'ipa-programma'
p589
(dp590
S'NOUN'
p591
F1.0
s(lp592
(g53
I9
tp593
atp594
a(S'2011'
p595
(dp596
S'NUM'
p597
F1.0
s(lp598
(g94
I12
tp599
atp600
a(S','
p601
(dp602
g303
F1.0
s(lp603
tp604
a(S'en'
p605
(dp606
S'CONJ'
p607
F1.0
s(lp608
(g134
I13
tp609
atp610
a(S'er'
p611
(dp612
S'ADV'
p613
F1.0
s(lp614
(g187
I19
tp615
atp616
a(S'zijn'
p617
(dp618
S'PRON'
p619
F0.000299
sS'VERB'
p620
F0.999409
sS'NOUN'
p621
F0.000292
s(lp622
tp623
a(S'een'
p624
(dp625
S'ADJ'
p626
F2.2e-05
sS'NUM'
p627
F1e-06
sS'DET'
p628
F0.999956
sS'PRON'
p629
F2.1e-05
s(lp630
(g143
I14
tp631
atp632
a(S'aantal'
p633
(dp634
S'NOUN'
p635
F1.0
s(lp636
(g157
I15
tp637
atp638
a(S'specifieke'
p639
(dp640
S'NOUN'
p641
F0.0
sS'ADJ'
p642
F1.0
s(lp643
(g180
I17
tp644
atp645
a(S'activiteiten'
p646
(dp647
S'NOUN'
p648
F1.0
s(lp649
(g173
I18
tp650
atp651
a(S'gestart'
p652
(dp653
S'VERB'
p654
F1.0
s(lp655
(g201
I20
tp656
atp657
a(S'in'
p658
(dp659
S'ADV'
p660
F0.000106
sS'VERB'
p661
F1e-06
sS'ADP'
p662
F0.999893
s(lp663
(g209
I21
tp664
atp665
a(S'het'
p666
(dp667
S'PRON'
p668
F0.000927
sS'DET'
p669
F0.999073
s(lp670
(g217
I22
tp671
atp672
a(S'kader'
p673
(dp674
S'NOUN'
p675
F1.0
s(lp676
(g225
I23
tp677
atp678
a(S'van'
p679
(dp680
S'ADP'
p681
F1.0
s(lp682
(g247
I24
tp683
atp684
a(S'het'
p685
(dp686
S'PRON'
p687
F0.000927
sS'DET'
p688
F0.999073
s(lp689
(g477
I25
tp690
atp691
a(S'programma'
p692
(dp693
S'NOUN'
p694
F1.0
s(lp695
(g30
I10
tp696
atp697
a(S'voor'
p698
(dp699
S'ADV'
p700
F0.026657
sS'CONJ'
p701
F3e-06
sS'NOUN'
p702
F0.0
sS'ADP'
p703
F0.97334
s(lp704
(g81
I11
tp705
atp706
a(S'technische'
p707
(dp708
S'NOUN'
p709
F6.1e-05
sS'ADJ'
p710
F0.999939
s(lp711
(g262
I26
tp712
atp713
a(S'bijstand'
p714
(dp715
S'NOUN'
p716
F1.0
s(lp717
(g254
I27
tp718
atp719
a(S'en'
p720
(dp721
S'CONJ'
p722
F1.0
s(lp723
(g269
I28
tp724
atp725
a(S'informatie-uitwisseling'
p726
(dp727
S'NOUN'
p728
F1.0
s(lp729
(g284
I30
tp730
atp731
a(g301
(dp732
g303
F1.0
s(lp733
(g301
I31
tp734
atp735
a(S'taiex'
p736
(dp737
S'ADJ'
p738
F0.00176
sS'NOUN'
p739
F0.99824
s(lp740
(g312
I32
tp741
atp742
a(g315
(dp743
g303
F1.0
s(lp744
(g315
I33
tp745
atp746
a(g303
(dp747
g303
F1.0
s(lp748
(g303
I35
tp749
atp750
asS'de'
p751
(lp752
(S'beim'
p753
(dp754
S'ADP'
p755
F1.0
s(lp756
tp757
a(S'abschluss'
p758
(dp759
S'ADJ'
p760
F6.8e-05
sS'NOUN'
p761
F0.999908
s(lp762
(g15
I6
tp763
atp764
a(S'des'
p765
(dp766
S'DET'
p767
F1.0
s(lp768
(g22
I7
tp769
atp770
a(S'nationalen'
p771
(dp772
S'ADJ'
p773
F1.0
s(lp774
(g38
I8
tp775
atp776
a(S'ipa-programms'
p777
(dp778
S'VERB'
p779
F1.8e-05
sS'NOUN'
p780
F0.999955
s(lp781
(g53
I9
tp782
atp783
a(S'f\xc3\xbcr'
p784
(dp785
S'ADP'
p786
F1.0
s(lp787
(g46
I5
tp788
atp789
a(S'2011'
p790
(dp791
S'NUM'
p792
F0.996242
sS'ADJ'
p793
F0.003297
s(lp794
(g94
I12
tp795
atp796
a(S'werden'
p797
(dp798
S'VERB'
p799
F0.999748
s(lp800
(g110
I3
tp801
atp802
a(S'gute'
p803
(dp804
S'ADJ'
p805
F1.0
s(lp806
(g119
I0
tp807
atp808
a(S'fortschritte'
p809
(dp810
S'VERB'
p811
F1.0
s(lp812
tp813
a(S'erzielt'
p814
(dp815
S'VERB'
p816
F0.604819
sS'ADJ'
p817
F0.370792
s(lp818
(g127
I1
tp819
atp820
a(g601
(dp821
g303
F1.0
s(lp822
tp823
a(S'und'
p824
(dp825
S'CONJ'
p826
F1.0
s(lp827
(g134
I13
tp828
atp829
a(S'eine'
p830
(dp831
S'PRON'
p832
F0.979015
sS'DET'
p833
F0.02062
s(lp834
(g143
I14
tp835
atp836
a(S'reihe'
p837
(dp838
S'VERB'
p839
F1.0
s(lp840
(g157
I15
tp841
atp842
a(S'spezifischer'
p843
(dp844
S'ADJ'
p845
F1.0
s(lp846
(g180
I17
tp847
atp848
a(S'aktivit\xc3\xa4ten'
p849
(dp850
S'ADJ'
p851
F0.000746
sS'NOUN'
p852
F0.998415
s(lp853
(g173
I18
tp854
atp855
a(S'wurde'
p856
(dp857
S'VERB'
p858
F1.0
s(lp859
tp860
a(S'im'
p861
(dp862
S'ADP'
p863
F1.0
s(lp864
(g209
I21
tp865
atp866
a(S'rahmen'
p867
(dp868
S'VERB'
p869
F1.0
s(lp870
(g225
I23
tp871
atp872
a(S'des'
p873
(dp874
S'DET'
p875
F1.0
s(lp876
(g247
I24
tp877
atp878
a(S'programms'
p879
(dp880
S'ADJ'
p881
F0.000133
sS'NOUN'
p882
F0.999758
s(lp883
(g30
I10
tp884
atp885
a(S'f\xc3\xbcr'
p886
(dp887
S'ADP'
p888
F1.0
s(lp889
(g81
I11
tp890
atp891
a(S'technische'
p892
(dp893
S'ADJ'
p894
F1.0
s(lp895
(g262
I26
tp896
atp897
a(S'hilfe'
p898
(dp899
S'ADJ'
p900
F0.0003
sS'NOUN'
p901
F0.999677
s(lp902
(g254
I27
tp903
atp904
a(S'und'
p905
(dp906
S'CONJ'
p907
F1.0
s(lp908
(g269
I28
tp909
atp910
a(S'informationsaustausch'
p911
(dp912
S'ADJ'
p913
F0.175972
sS'NOUN'
p914
F0.351705
s(lp915
(g284
I30
tp916
atp917
a(g301
(dp918
g303
F1.0
s(lp919
(g301
I31
tp920
atp921
a(S'taiex'
p922
(dp923
S'NOUN'
p924
F0.436092
sS'ADJ'
p925
F0.560062
s(lp926
(g312
I32
tp927
atp928
a(g315
(dp929
g303
F1.0
s(lp930
(g315
I33
tp931
atp932
a(S'begonnen'
p933
(dp934
S'VERB'
p935
F0.97928
sS'ADJ'
p936
F0.02072
s(lp937
(g201
I20
tp938
atp939
a(g303
(dp940
g303
F1.0
s(lp941
(g303
I35
tp942
atp943
asS'it'
p944
(lp945
(S'sono'
p946
(dp947
S'VERB'
p948
F0.99988
sS'NOUN'
p949
F0.00012
s(lp950
(g102
I2
tp951
atp952
a(S'stati'
p953
(dp954
S'VERB'
p955
F0.977374
sS'NOUN'
p956
F0.022626
s(lp957
(g110
I3
tp958
atp959
a(S'compiuti'
p960
(dp961
S'VERB'
p962
F0.5612
sS'ADJ'
p963
F0.4388
s(lp964
(g351
I4
tp965
atp966
a(S'notevoli'
p967
(dp968
S'ADJ'
p969
F1.0
s(lp970
tp971
a(S'progressi'
p972
(dp973
S'NOUN'
p974
F1.0
s(lp975
(g127
I1
tp976
atp977
a(S'nella'
p978
(dp979
S'ADP'
p980
F1.0
s(lp981
(g46
I5
tp982
atp983
a(S'messa'
p984
(dp985
S'ADJ'
p986
F0.10129
sS'VERB'
p987
F0.281754
sS'NOUN'
p988
F0.616956
s(lp989
(g15
I6
tp990
atp991
a(g143
(dp992
S'CONJ'
p993
F0.0002
sS'ADP'
p994
F0.9998
s(lp995
tp996
a(S'punto'
p997
(dp998
S'ADV'
p999
F0.000659
sS'ADJ'
p1000
F0.001549
sS'VERB'
p1001
F0.000506
sS'NOUN'
p1002
F0.997286
s(lp1003
(g15
I6
tp1004
atp1005
a(S'del'
p1006
(dp1007
S'DEF'
p1008
F0.001265
sS'ADP'
p1009
F0.998735
s(lp1010
(g22
I7
tp1011
atp1012
a(S'programma'
p1013
(dp1014
S'VERB'
p1015
F0.000173
sS'NOUN'
p1016
F0.999827
s(lp1017
(g30
I10
tp1018
atp1019
a(S'nazionale'
p1020
(dp1021
S'NOUN'
p1022
F6e-05
sS'ADJ'
p1023
F0.99994
s(lp1024
(g38
I8
tp1025
atp1026
a(S'ipa'
p1027
(dp1028
S'ADJ'
p1029
F0.000297
sS'VERB'
p1030
F0.000579
sS'NOUN'
p1031
F0.999124
s(lp1032
(g53
I9
tp1033
atp1034
a(S'per'
p1035
(dp1036
S'CONJ'
p1037
F0.052935
sS'ADP'
p1038
F0.947065
s(lp1039
(g81
I11
tp1040
atp1041
a(S'il'
p1042
(dp1043
S'DET'
p1044
F1.0
s(lp1045
tp1046
a(S'2011'
p1047
(dp1048
S'NUM'
p1049
F0.993984
sg303
F0.006016
s(lp1050
(g94
I12
tp1051
atp1052
a(S'ed'
p1053
(dp1054
S'CONJ'
p1055
F1.0
s(lp1056
(g134
I13
tp1057
atp1058
a(S'\xc3\xa8'
p1059
(dp1060
S'VERB'
p1061
F1.0
s(lp1062
(g187
I19
tp1063
atp1064
a(S'stata'
p1065
(dp1066
S'VERB'
p1067
F1.0
s(lp1068
tp1069
a(S'avviata'
p1070
(dp1071
S'VERB'
p1072
F0.949364
sS'ADJ'
p1073
F0.050636
s(lp1074
(g201
I20
tp1075
atp1076
a(S'una'
p1077
(dp1078
S'PRON'
p1079
F6.9e-05
sS'DEF'
p1080
F0.999931
s(lp1081
(g143
I14
tp1082
atp1083
a(S'serie'
p1084
(dp1085
S'ADJ'
p1086
F0.025892
sS'NOUN'
p1087
F0.974108
s(lp1088
(g157
I15
tp1089
atp1090
a(S'di'
p1091
(dp1092
S'CONJ'
p1093
F1.6e-05
sS'ADP'
p1094
F0.999984
s(lp1095
(g166
I16
tp1096
atp1097
a(S'specifiche'
p1098
(dp1099
S'NOUN'
p1100
F0.012882
sS'ADJ'
p1101
F0.987118
s(lp1102
(g180
I17
tp1103
atp1104
a(S'attivit\xc3\xa0'
p1105
(dp1106
S'NOUN'
p1107
F1.0
s(lp1108
(g173
I18
tp1109
atp1110
a(S'nel'
p1111
(dp1112
S'ADP'
p1113
F1.0
s(lp1114
(g209
I21
tp1115
atp1116
a(S'quadro'
p1117
(dp1118
S'ADJ'
p1119
F0.033477
sS'VERB'
p1120
F1.9e-05
sS'NOUN'
p1121
F0.966504
s(lp1122
(g225
I23
tp1123
atp1124
a(S'del'
p1125
(dp1126
S'DEF'
p1127
F0.001278
sS'ADP'
p1128
F0.998722
s(lp1129
(g247
I24
tp1130
atp1131
a(S'programma'
p1132
(dp1133
S'VERB'
p1134
F0.000196
sS'NOUN'
p1135
F0.999804
s(lp1136
(g238
I34
tp1137
atp1138
a(S'di'
p1139
(dp1140
S'CONJ'
p1141
F4e-06
sS'ADP'
p1142
F0.999996
s(lp1143
tp1144
a(S'assistenza'
p1145
(dp1146
S'NOUN'
p1147
F1.0
s(lp1148
(g254
I27
tp1149
atp1150
a(S'tecnica'
p1151
(dp1152
S'NOUN'
p1153
F0.130151
sS'ADJ'
p1154
F0.869849
s(lp1155
(g262
I26
tp1156
atp1157
a(S'e'
p1158
(dp1159
S'CONJ'
p1160
F1.0
s(lp1161
(g269
I28
tp1162
atp1163
a(S'scambio'
p1164
(dp1165
S'VERB'
p1166
F0.181115
sS'NOUN'
p1167
F0.818885
s(lp1168
tp1169
a(S'di'
p1170
(dp1171
S'CONJ'
p1172
F3e-06
sS'ADP'
p1173
F0.999997
s(lp1174
(g284
I30
tp1175
atp1176
a(S'informazioni'
p1177
(dp1178
S'NOUN'
p1179
F1.0
s(lp1180
(g298
I29
tp1181
atp1182
a(g301
(dp1183
g303
F1.0
s(lp1184
(g301
I31
tp1185
atp1186
a(S'taiex'
p1187
(dp1188
S'ADJ'
p1189
F0.097599
sS'VERB'
p1190
F0.025145
sS'NOUN'
p1191
F0.877257
s(lp1192
(g312
I32
tp1193
atp1194
a(g315
(dp1195
g303
F1.0
s(lp1196
(g315
I33
tp1197
atp1198
a(g303
(dp1199
g303
F1.0
s(lp1200
(g303
I35
tp1201
atp1202
asS'sk'
p1203
(lp1204
(S'v'
p1205
(dp1206
g91
F0.000593
sS'ADP'
p1207
F0.999407
s(lp1208
(g46
I5
tp1209
atp1210
a(S's\xc3\xbavislosti'
p1211
(dp1212
S'NOUN'
p1213
F1.0
s(lp1214
(g312
I32
tp1215
atp1216
a(S's'
p1217
(dp1218
g91
F0.002631
sS'CONJ'
p1219
F6.5e-05
sS'NOUN'
p1220
F1.3000000000000001e-05
sS'ADP'
p1221
F0.997269
sS'PRT'
p1222
F2.1e-05
s(lp1223
(g22
I7
tp1224
atp1225
a(S'ukon\xc4\x8den\xc3\xadm'
p1226
(dp1227
S'NOUN'
p1228
F1.0
s(lp1229
(g312
I32
tp1230
atp1231
a(S'n\xc3\xa1rodn\xc3\xa9ho'
p1232
(dp1233
S'ADJ'
p1234
F1.0
s(lp1235
(g38
I8
tp1236
atp1237
a(S'programu'
p1238
(dp1239
S'NOUN'
p1240
F1.0
s(lp1241
(g30
I10
tp1242
atp1243
a(S'ipa'
p1244
(dp1245
g91
F0.000582
sS'NOUN'
p1246
F0.999418
s(lp1247
(g53
I9
tp1248
atp1249
a(S'na'
p1250
(dp1251
g91
F0.000174
sS'CONJ'
p1252
F1.5e-05
sS'ADP'
p1253
F0.999808
sS'PRT'
p1254
F3e-06
s(lp1255
(g81
I11
tp1256
atp1257
a(S'rok'
p1258
(dp1259
S'NOUN'
p1260
F1.0
s(lp1261
tp1262
a(S'2011'
p1263
(dp1264
S'NUM'
p1265
F1.0
s(lp1266
(g94
I12
tp1267
atp1268
a(S'sa'
p1269
(dp1270
S'PRT'
p1271
F0.999407
sS'ADP'
p1272
F0.0
sg91
F0.0005920000000000001
s(lp1273
tp1274
a(S'dosahuje'
p1275
(dp1276
S'VERB'
p1277
F1.0
s(lp1278
(g312
I32
tp1279
atp1280
a(S'zna\xc4\x8dn\xc3\xbd'
p1281
(dp1282
S'ADJ'
p1283
F1.0
s(lp1284
(g312
I32
tp1285
atp1286
a(S'pokrok'
p1287
(dp1288
S'NOUN'
p1289
F1.0
s(lp1290
(g312
I32
tp1291
atp1292
a(g601
(dp1293
g303
F1.0
s(lp1294
tp1295
a(S'pri\xc4\x8dom'
p1296
(dp1297
S'CONJ'
p1298
F1.0
s(lp1299
tp1300
a(g1205
(dp1301
g91
F0.0005769999999999999
sS'ADP'
p1302
F0.999424
s(lp1303
(g209
I21
tp1304
atp1305
a(S'r\xc3\xa1mci'
p1306
(dp1307
S'NOUN'
p1308
F1.0
s(lp1309
(g225
I23
tp1310
atp1311
a(S'programu'
p1312
(dp1313
S'NOUN'
p1314
F1.0
s(lp1315
(g238
I34
tp1316
atp1317
a(S'technickej'
p1318
(dp1319
S'ADJ'
p1320
F1.0
s(lp1321
(g262
I26
tp1322
atp1323
a(S'pomoci'
p1324
(dp1325
S'NOUN'
p1326
F1.0
s(lp1327
(g254
I27
tp1328
atp1329
a(g143
(dp1330
g91
F0.002528
sS'CONJ'
p1331
F0.996492
sS'NOUN'
p1332
F0.00018700000000000002
sS'ADP'
p1333
F0.000766
sS'PRT'
p1334
F2.7e-05
s(lp1335
(g269
I28
tp1336
atp1337
a(S'v\xc3\xbdmeny'
p1338
(dp1339
S'NOUN'
p1340
F1.0
s(lp1341
(g284
I30
tp1342
atp1343
a(S'inform\xc3\xa1ci\xc3\xad'
p1344
(dp1345
S'NOUN'
p1346
F1.0
s(lp1347
(g298
I29
tp1348
atp1349
a(g301
(dp1350
g303
F1.0
s(lp1351
(g301
I31
tp1352
atp1353
a(S'taiex'
p1354
(dp1355
S'ADJ'
p1356
F0.065169
sg91
F0.720561
sS'NOUN'
p1357
F0.214271
s(lp1358
(g312
I32
tp1359
atp1360
a(g315
(dp1361
g303
F1.0
s(lp1362
(g315
I33
tp1363
atp1364
a(S'sa'
p1365
(dp1366
S'PRT'
p1367
F0.999971
sS'ADP'
p1368
F0.0
sg91
F2.8000000000000003e-05
s(lp1369
(g187
I19
tp1370
atp1371
a(S'za\xc4\x8dalo'
p1372
(dp1373
S'VERB'
p1374
F1.0
s(lp1375
(g201
I20
tp1376
atp1377
a(S'mno\xc5\xbestvo'
p1378
(dp1379
S'NOUN'
p1380
F1.0
s(lp1381
(g157
I15
tp1382
atp1383
a(S'konkr\xc3\xa9tnych'
p1384
(dp1385
S'ADJ'
p1386
F1.0
s(lp1387
(g180
I17
tp1388
atp1389
a(S'aktiv\xc3\xadt'
p1390
(dp1391
S'NOUN'
p1392
F1.0
s(lp1393
(g173
I18
tp1394
atp1395
a(g303
(dp1396
g303
F1.0
s(lp1397
(g303
I35
tp1398
atp1399
asS'pl'
p1400
(lp1401
(S'dobrze'
p1402
(dp1403
S'ADV'
p1404
F0.985081
sS'PRT'
p1405
F0.014919
s(lp1406
(g119
I0
tp1407
atp1408
a(S'post\xc4\x99puje'
p1409
(dp1410
S'VERB'
p1411
F1.0
s(lp1412
(g127
I1
tp1413
atp1414
a(S'finalizowanie'
p1415
(dp1416
S'ADV'
p1417
F0.020042
sS'ADJ'
p1418
F0.0016159999999999996
sS'VERB'
p1419
F0.8931339999999999
sS'NOUN'
p1420
F0.08521099999999998
s(lp1421
(g15
I6
tp1422
atp1423
a(S'krajowego'
p1424
(dp1425
S'ADJ'
p1426
F1.000001
s(lp1427
(g38
I8
tp1428
atp1429
a(S'programu'
p1430
(dp1431
S'NOUN'
p1432
F1.0
s(lp1433
(g30
I10
tp1434
atp1435
a(S'ipa'
p1436
(dp1437
S'ADJ'
p1438
F0.006901
sS'VERB'
p1439
F0.36806900000000004
sS'NOUN'
p1440
F0.6250270000000001
s(lp1441
(g53
I9
tp1442
atp1443
a(S'na'
p1444
(dp1445
S'PRT'
p1446
F3.1e-05
sS'VERB'
p1447
F5.7e-05
sS'NOUN'
p1448
F8e-06
sS'ADP'
p1449
F0.999889
sg91
F1.5e-05
s(lp1450
(g81
I11
tp1451
atp1452
a(S'rok'
p1453
(dp1454
S'NOUN'
p1455
F1.0
s(lp1456
tp1457
a(S'2011'
p1458
(dp1459
S'ADV'
p1460
F9.7e-05
sS'NOUN'
p1461
F0.001787
sS'NUM'
p1462
F0.565177
sS'ADJ'
p1463
F0.43285999999999997
sg91
F8.3e-05
s(lp1464
(g94
I12
tp1465
atp1466
a(S'oraz'
p1467
(dp1468
S'CONJ'
p1469
F1.0
s(lp1470
(g134
I13
tp1471
atp1472
a(S'rozpocz\xc4\x99to'
p1473
(dp1474
S'VERB'
p1475
F1.0
s(lp1476
(g201
I20
tp1477
atp1478
a(S'wiele'
p1479
(dp1480
S'ADV'
p1481
F0.003867
sS'NUM'
p1482
F0.9961339999999999
s(lp1483
(g157
I15
tp1484
atp1485
a(S'konkretnych'
p1486
(dp1487
S'ADJ'
p1488
F1.0
s(lp1489
(g180
I17
tp1490
atp1491
a(S'dzia\xc5\x82a\xc5\x84'
p1492
(dp1493
S'NOUN'
p1494
F1.0
s(lp1495
(g173
I18
tp1496
atp1497
a(S'w'
p1498
(dp1499
S'ADJ'
p1500
F0.0
sg91
F0.0
sS'NOUN'
p1501
F0.0
sS'ADP'
p1502
F1.0
s(lp1503
(g209
I21
tp1504
atp1505
a(S'ramach'
p1506
(dp1507
S'NOUN'
p1508
F1.0
s(lp1509
(g225
I23
tp1510
atp1511
a(S'programu'
p1512
(dp1513
S'NOUN'
p1514
F1.0
s(lp1515
(g238
I34
tp1516
atp1517
a(S'pomocy'
p1518
(dp1519
S'NOUN'
p1520
F1.0
s(lp1521
(g254
I27
tp1522
atp1523
a(S'technicznej'
p1524
(dp1525
S'ADJ'
p1526
F1.0
s(lp1527
(g262
I26
tp1528
atp1529
a(S'i'
p1530
(dp1531
S'PRT'
p1532
F0.002298
sS'CONJ'
p1533
F0.99762
sS'PRON'
p1534
F4.9999999999999996e-06
sS'NOUN'
p1535
F5.1e-05
sg91
F2.7e-05
s(lp1536
(g269
I28
tp1537
atp1538
a(S'wymiany'
p1539
(dp1540
S'NOUN'
p1541
F1.0
s(lp1542
(g284
I30
tp1543
atp1544
a(S'informacji'
p1545
(dp1546
S'NOUN'
p1547
F0.9999999999999999
s(lp1548
(g298
I29
tp1549
atp1550
a(g301
(dp1551
S'NOUN'
p1552
F4.3e-05
sg303
F0.999957
s(lp1553
(g301
I31
tp1554
atp1555
a(S'taiex'
p1556
(dp1557
S'ADV'
p1558
F0.001905
sS'ADJ'
p1559
F0.001373
sS'VERB'
p1560
F0.007051000000000001
sS'NOUN'
p1561
F0.9896719999999999
s(lp1562
(g312
I32
tp1563
atp1564
a(g315
(dp1565
g303
F1.0
s(lp1566
(g315
I33
tp1567
atp1568
a(g303
(dp1569
g303
F1.0
s(lp1570
(g303
I35
tp1571
atp1572
asS'sl'
p1573
(lp1574
(S'dokon\xc4\x8dno'
p1575
(dp1576
S'ADV'
p1577
F0.090303
sS'ADJ'
p1578
F0.909697
s(lp1579
tp1580
a(S'oblikovanje'
p1581
(dp1582
S'NOUN'
p1583
F1.0
s(lp1584
(g15
I6
tp1585
atp1586
a(S'nacionalnega'
p1587
(dp1588
S'ADJ'
p1589
F1.0
s(lp1590
(g38
I8
tp1591
atp1592
a(S'programa'
p1593
(dp1594
S'NOUN'
p1595
F1.0
s(lp1596
(g30
I10
tp1597
atp1598
a(S'ipa'
p1599
(dp1600
S'ADV'
p1601
F0.000244
sS'ADJ'
p1602
F0.000175
sS'VERB'
p1603
F0.007256
sS'NOUN'
p1604
F0.9922700000000001
sg91
F5.6e-05
s(lp1605
(g53
I9
tp1606
atp1607
a(S'za'
p1608
(dp1609
S'ADV'
p1610
F6e-06
sg91
F3e-06
sS'ADP'
p1611
F0.999991
s(lp1612
(g81
I11
tp1613
atp1614
a(S'leto'
p1615
(dp1616
S'NOUN'
p1617
F1.0
s(lp1618
tp1619
a(S'2011'
p1620
(dp1621
S'NUM'
p1622
F1.0
s(lp1623
(g94
I12
tp1624
atp1625
a(S'dobro'
p1626
(dp1627
S'ADV'
p1628
F0.98625
sS'ADJ'
p1629
F0.003654
sS'NOUN'
p1630
F0.008386
sg91
F0.00171
s(lp1631
(g119
I0
tp1632
atp1633
a(S'poteka'
p1634
(dp1635
S'VERB'
p1636
F1.0
s(lp1637
(g127
I1
tp1638
atp1639
a(g601
(dp1640
g303
F1.0
s(lp1641
tp1642
a(S'za\xc4\x8dele'
p1643
(dp1644
S'VERB'
p1645
F1.0
s(lp1646
(g312
I32
tp1647
atp1648
a(S'pa'
p1649
(dp1650
g91
F3e-05
sS'CONJ'
p1651
F0.99997
s(lp1652
(g134
I13
tp1653
atp1654
a(S'so'
p1655
(dp1656
g91
F9e-06
sS'VERB'
p1657
F0.999991
s(lp1658
(g187
I19
tp1659
atp1660
a(S'se'
p1661
(dp1662
S'PRON'
p1663
F0.999997
sg91
F3e-06
s(lp1664
(g201
I20
tp1665
atp1666
a(S'tudi'
p1667
(dp1668
S'PRT'
p1669
F1.0
s(lp1670
(g143
I14
tp1671
atp1672
a(S'\xc5\xbee'
p1673
(dp1674
S'PRT'
p1675
F1.0
s(lp1676
(g312
I32
tp1677
atp1678
a(S'razli\xc4\x8dne'
p1679
(dp1680
S'ADJ'
p1681
F0.999999
s(lp1682
tp1683
a(S'dejavnosti'
p1684
(dp1685
S'NOUN'
p1686
F1.0
s(lp1687
(g173
I18
tp1688
atp1689
a(g1205
(dp1690
S'ADP'
p1691
F1.0
s(lp1692
(g209
I21
tp1693
atp1694
a(S'okviru'
p1695
(dp1696
S'NOUN'
p1697
F1.0
s(lp1698
(g225
I23
tp1699
atp1700
a(S'programa'
p1701
(dp1702
S'NOUN'
p1703
F1.0
s(lp1704
(g238
I34
tp1705
atp1706
a(S'tehni\xc4\x8dne'
p1707
(dp1708
S'ADJ'
p1709
F0.9999999999999999
s(lp1710
(g262
I26
tp1711
atp1712
a(S'pomo\xc4\x8di'
p1713
(dp1714
S'NOUN'
p1715
F1.0
s(lp1716
(g254
I27
tp1717
atp1718
a(S'in'
p1719
(dp1720
S'ADV'
p1721
F4.6e-05
sg91
F1.8e-05
sS'CONJ'
p1722
F0.999881
sS'NOUN'
p1723
F5.5e-05
s(lp1724
(g269
I28
tp1725
atp1726
a(S'izmenjave'
p1727
(dp1728
S'NOUN'
p1729
F1.0
s(lp1730
(g284
I30
tp1731
atp1732
a(S'informacij'
p1733
(dp1734
S'NOUN'
p1735
F1.0
s(lp1736
(g298
I29
tp1737
atp1738
a(g301
(dp1739
g303
F1.0
s(lp1740
(g301
I31
tp1741
atp1742
a(S'taiex'
p1743
(dp1744
S'ADV'
p1745
F0.000183
sS'NOUN'
p1746
F0.8254729999999999
sS'NUM'
p1747
F0.039737
sg91
F0.13296
sS'ADJ'
p1748
F0.0013140000000000003
sS'VERB'
p1749
F0.000329
s(lp1750
(g312
I32
tp1751
atp1752
a(g315
(dp1753
g303
F1.0
s(lp1754
(g315
I33
tp1755
atp1756
a(g303
(dp1757
g303
F1.0
s(lp1758
(g303
I35
tp1759
atp1760
asS'es'
p1761
(lp1762
(S'se'
p1763
(dp1764
S'PRON'
p1765
F1.0
sS'VERB'
p1766
F0.0
s(lp1767
(g110
I3
tp1768
atp1769
a(S'est\xc3\xa1'
p1770
(dp1771
S'VERB'
p1772
F1.0
s(lp1773
(g102
I2
tp1774
atp1775
a(S'avanzando'
p1776
(dp1777
S'VERB'
p1778
F1.0
s(lp1779
(g127
I1
tp1780
atp1781
a(S'mucho'
p1782
(dp1783
S'ADV'
p1784
F0.869794
sS'ADJ'
p1785
F0.130206
s(lp1786
(g119
I0
tp1787
atp1788
a(S'en'
p1789
(dp1790
g91
F0.0
sS'CONJ'
p1791
F2e-06
sS'ADP'
p1792
F0.999998
s(lp1793
(g46
I5
tp1794
atp1795
a(S'la'
p1796
(dp1797
S'NOUN'
p1798
F0.0
sS'PRON'
p1799
F0.0
sS'DET'
p1800
F0.999999
sg91
F0.0
s(lp1801
tp1802
a(S'ultimaci\xc3\xb3n'
p1803
(dp1804
S'VERB'
p1805
F9.9e-05
sS'NOUN'
p1806
F0.999901
s(lp1807
(g15
I6
tp1808
atp1809
a(S'del'
p1810
(dp1811
S'ADP'
p1812
F1.0
s(lp1813
(g22
I7
tp1814
atp1815
a(S'programa'
p1816
(dp1817
S'NOUN'
p1818
F1.0
s(lp1819
(g30
I10
tp1820
atp1821
a(S'nacional'
p1822
(dp1823
S'ADJ'
p1824
F1.0
s(lp1825
(g38
I8
tp1826
atp1827
a(S'del'
p1828
(dp1829
S'ADP'
p1830
F1.0
s(lp1831
tp1832
a(S'iap'
p1833
(dp1834
S'NOUN'
p1835
F1.0
s(lp1836
(g53
I9
tp1837
atp1838
a(S'para'
p1839
(dp1840
S'CONJ'
p1841
F0.002756
sS'ADP'
p1842
F0.997244
s(lp1843
(g81
I11
tp1844
atp1845
a(S'2011'
p1846
(dp1847
g91
F0.024479
sS'NUM'
p1848
F0.975521
s(lp1849
(g94
I12
tp1850
atp1851
a(S'y'
p1852
(dp1853
g91
F2e-06
sS'CONJ'
p1854
F0.999998
s(lp1855
(g134
I13
tp1856
atp1857
a(S'se'
p1858
(dp1859
S'PRON'
p1860
F1.0
sS'VERB'
p1861
F0.0
s(lp1862
(g143
I14
tp1863
atp1864
a(S'han'
p1865
(dp1866
S'VERB'
p1867
F1.0
s(lp1868
(g187
I19
tp1869
atp1870
a(S'iniciado'
p1871
(dp1872
S'VERB'
p1873
F1.0
s(lp1874
(g201
I20
tp1875
atp1876
a(S'varias'
p1877
(dp1878
S'ADJ'
p1879
F1.0
s(lp1880
(g157
I15
tp1881
atp1882
a(S'actividades'
p1883
(dp1884
S'NOUN'
p1885
F1.0
s(lp1886
(g173
I18
tp1887
atp1888
a(S'espec\xc3\xadficas'
p1889
(dp1890
S'ADJ'
p1891
F1.0
s(lp1892
(g180
I17
tp1893
atp1894
a(S'en'
p1895
(dp1896
g91
F0.0
sS'CONJ'
p1897
F1e-06
sS'ADP'
p1898
F0.999999
s(lp1899
(g209
I21
tp1900
atp1901
a(S'el'
p1902
(dp1903
S'PRON'
p1904
F5e-06
sS'DET'
p1905
F0.999995
s(lp1906
(g217
I22
tp1907
atp1908
a(S'marco'
p1909
(dp1910
S'NOUN'
p1911
F1.0
s(lp1912
(g225
I23
tp1913
atp1914
a(S'del'
p1915
(dp1916
S'ADP'
p1917
F1.0
s(lp1918
tp1919
a(S'programa'
p1920
(dp1921
S'NOUN'
p1922
F1.0
s(lp1923
(g238
I34
tp1924
atp1925
a(S'de'
p1926
(dp1927
g91
F2.9e-05
sS'CONJ'
p1928
F0.000449
sS'ADP'
p1929
F0.999522
s(lp1930
(g247
I24
tp1931
atp1932
a(S'asistencia'
p1933
(dp1934
S'NOUN'
p1935
F1.0
s(lp1936
(g254
I27
tp1937
atp1938
a(S't\xc3\xa9cnica'
p1939
(dp1940
S'NOUN'
p1941
F0.042764
sS'ADJ'
p1942
F0.957236
s(lp1943
(g262
I26
tp1944
atp1945
a(g1158
(dp1946
g91
F0.027734
sS'CONJ'
p1947
F0.959712
sS'ADP'
p1948
F0.012554
s(lp1949
(g269
I28
tp1950
atp1951
a(S'intercambio'
p1952
(dp1953
S'NOUN'
p1954
F1.0
s(lp1955
(g284
I30
tp1956
atp1957
a(S'de'
p1958
(dp1959
g91
F2.9e-05
sS'CONJ'
p1960
F0.000449
sS'ADP'
p1961
F0.999522
s(lp1962
tp1963
a(S'informaci\xc3\xb3n'
p1964
(dp1965
S'NOUN'
p1966
F1.0
s(lp1967
(g298
I29
tp1968
atp1969
a(g301
(dp1970
g303
F1.0
s(lp1971
(g301
I31
tp1972
atp1973
a(S'taiex'
p1974
(dp1975
S'ADJ'
p1976
F0.023849
sS'VERB'
p1977
F0.024693
sS'NOUN'
p1978
F0.951458
s(lp1979
(g312
I32
tp1980
atp1981
a(g315
(dp1982
g303
F1.0
s(lp1983
(g315
I33
tp1984
atp1985
a(g303
(dp1986
g303
F1.0
s(lp1987
(g303
I35
tp1988
atp1989
as.