(dp0
S'fr'
p1
(lp2
(S'la'
p3
(dp4
S'PRON'
p5
F8.2e-05
sS'DET'
p6
F0.999918
sS'NOUN'
p7
F0.0
s(lp8
(S'last'
p9
I0
tp10
atp11
a(S'semaine'
p12
(dp13
S'NOUN'
p14
F1.0
s(lp15
tp16
a(S'derni\xc3\xa8re'
p17
(dp18
S'NOUN'
p19
F0.001102
sS'ADJ'
p20
F0.998898
s(lp21
(S'week'
p22
I1
tp23
atp24
a(S'-'
p25
(dp26
S'.'
p27
F1.0
s(lp28
(g25
I2
tp29
atp30
a(S'\xc3\xa0'
p31
(dp32
S'ADP'
p33
F1.0
s(lp34
tp35
a(S"l'"
p36
(dp37
S'ADJ'
p38
F0.160704
sS'VERB'
p39
F0.06480800000000002
sS'NOUN'
p40
F0.774488
s(lp41
tp42
a(S'issue'
p43
(dp44
S'NOUN'
p45
F0.200149
sS'ADJ'
p46
F0.799851
s(lp47
(S'after'
p48
I3
tp49
atp50
a(S'de'
p51
(dp52
S'ADP'
p53
F1.0
s(lp54
tp55
a(S'semaines'
p56
(dp57
S'NOUN'
p58
F1.0
s(lp59
(S'weeks'
p60
I4
tp61
atp62
a(S'de'
p63
(dp64
S'ADP'
p65
F1.0
s(lp66
(S'of'
p67
I5
tp68
atp69
a(S'consultations'
p70
(dp71
S'NOUN'
p72
F1.0
s(lp73
(S'consultations'
p74
I7
tp75
atp76
a(S'bilat\xc3\xa9rales'
p77
(dp78
S'ADJ'
p79
F1.0
s(lp80
(S'bilateral'
p81
I6
tp82
atp83
a(g25
(dp84
g27
F1.0
s(lp85
(g25
I8
tp86
atp87
a(S','
p88
(dp89
g27
F1.0
s(lp90
tp91
a(S'nous'
p92
(dp93
S'PRON'
p94
F1.0
s(lp95
(S'we'
p96
I9
tp97
atp98
a(S'avons'
p99
(dp100
S'VERB'
p101
F1.0
s(lp102
tp103
a(S'franchi'
p104
(dp105
S'VERB'
p106
F1.0
s(lp107
(S'took'
p108
I10
tp109
atp110
a(S'encore'
p111
(dp112
S'ADV'
p113
F1.0
s(lp114
(S'yet'
p115
I11
tp116
atp117
a(S'une'
p118
(dp119
S'NOUN'
p120
F0.000476
sS'NUM'
p121
F0.001917
sS'DET'
p122
F0.997607
s(lp123
tp124
a(S'autre'
p125
(dp126
S'ADJ'
p127
F1.0
s(lp128
(S'another'
p129
I12
tp130
atp131
a(S'\xc3\xa9tape'
p132
(dp133
S'NOUN'
p134
F1.0
s(lp135
(S'step'
p136
I13
tp137
atp138
a(S':'
p139
(dp140
g27
F1.0
s(lp141
(g139
I14
tp142
atp143
a(S'un'
p144
(dp145
S'NOUN'
p146
F6.4e-05
sS'NUM'
p147
F0.01295
sS'DET'
p148
F0.986985
s(lp149
(S'a'
p150
I15
tp151
atp152
a(S'paquet'
p153
(dp154
S'NOUN'
p155
F1.0
s(lp156
(S'package'
p157
I19
tp158
atp159
a(S'financier'
p160
(dp161
S'NOUN'
p162
F0.01698
sS'ADJ'
p163
F0.98302
s(lp164
(S'financial'
p165
I18
tp166
atp167
a(S'rassembl\xc3\xa9'
p168
(dp169
S'VERB'
p170
F1.0
s(lp171
(S'put-together'
p172
I17
tp173
atp174
a(S'au'
p175
(dp176
S'ADP'
p177
F1.0
s(lp178
(S'collectively'
p179
I16
tp180
atp181
a(S'prix'
p182
(dp183
S'NOUN'
p184
F1.0
s(lp185
(g172
I17
tp186
atp187
a(S"d'"
p188
(dp189
S'NOUN'
p190
F0.032441
sS'VERB'
p191
F0.694014
sS'ADJ'
p192
F0.273544
s(lp193
(S'eur'
p194
I35
tp195
atp196
a(S'un'
p197
(dp198
S'NOUN'
p199
F6e-05
sS'NUM'
p200
F0.025531
sS'DET'
p201
F0.974409
s(lp202
(S'offering'
p203
I34
tp204
atp205
a(S'effort'
p206
(dp207
S'NOUN'
p208
F1.0
s(lp209
tp210
a(S'collectif'
p211
(dp212
S'NOUN'
p213
F0.00873
sS'ADJ'
p214
F0.99127
s(lp215
(g172
I17
tp216
atp217
a(S'affect\xc3\xa9'
p218
(dp219
S'ADJ'
p220
F0.022398
sS'VERB'
p221
F0.704916
sS'NOUN'
p222
F0.272686
s(lp223
(S'earmarked'
p224
I20
tp225
atp226
a(S'\xc3\xa0'
p227
(dp228
S'ADP'
p229
F1.0
s(lp230
(S'for'
p231
I21
tp232
atp233
a(S'la'
p234
(dp235
S'NOUN'
p236
F1.3e-05
sS'DET'
p237
F0.999979
sS'PRON'
p238
F8e-06
s(lp239
(S'the'
p240
I22
tp241
atp242
a(S'"'
p243
(dp244
g27
F1.0
s(lp245
(S"'"
p246
I23
tp247
atp248
a(S'mise'
p249
(dp250
S'ADJ'
p251
F0.13887
sS'VERB'
p252
F0.30053900000000006
sS'NOUN'
p253
F0.560592
s(lp254
(S'start'
p255
I25
tp256
atp257
a(S'en'
p258
(dp259
S'PRON'
p260
F0.039375
sS'ADP'
p261
F0.960625
s(lp262
tp263
a(S'\xc5\x93uvre'
p264
(dp265
S'VERB'
p266
F0.042318
sS'NOUN'
p267
F0.957682
s(lp268
tp269
a(S'rapide'
p270
(dp271
S'NOUN'
p272
F0.008741
sS'ADJ'
p273
F0.991259
s(lp274
(S'fast'
p275
I24
tp276
atp277
a(g243
(dp278
g27
F1.0
s(lp279
(g246
I26
tp280
atp281
a(S'de'
p282
(dp283
S'ADP'
p284
F1.0
s(lp285
(S'of'
p286
I27
tp287
atp288
a(S"l'"
p289
(dp290
S'ADJ'
p291
F0.160704
sS'VERB'
p292
F0.06480800000000002
sS'NOUN'
p293
F0.774488
s(lp294
tp295
a(S'action'
p296
(dp297
S'NOUN'
p298
F1.0
s(lp299
(S'action'
p300
I29
tp301
atp302
a(S'climatique'
p303
(dp304
S'ADJ'
p305
F1.0
s(lp306
(S'climate'
p307
I28
tp308
atp309
a(S'dans'
p310
(dp311
S'NOUN'
p312
F8.7e-05
sS'ADP'
p313
F0.999913
s(lp314
(S'in'
p315
I30
tp316
atp317
a(S'les'
p318
(dp319
S'PRON'
p320
F5.6e-05
sS'DET'
p321
F0.999943
sS'ADP'
p322
F2e-06
s(lp323
(S'developing'
p324
I31
tp325
atp326
a(S'pays'
p327
(dp328
S'NOUN'
p329
F1.0
s(lp330
(S'countries'
p331
I32
tp332
atp333
a(S'en'
p334
(dp335
S'PRON'
p336
F0.000406
sS'ADP'
p337
F0.999594
s(lp338
tp339
a(S'd\xc3\xa9veloppement'
p340
(dp341
S'NOUN'
p342
F1.0
s(lp343
(g324
I31
tp344
atp345
a(g88
(dp346
g27
F1.0
s(lp347
(g88
I33
tp348
atp349
a(S'mettant'
p350
(dp351
S'VERB'
p352
F1.0
s(lp353
(S'7.2'
p354
I36
tp355
atp356
a(S'\xc3\xa0'
p357
(dp358
S'ADP'
p359
F1.0
s(lp360
(g194
I35
tp361
atp362
a(S'disposition'
p363
(dp364
S'NOUN'
p365
F1.0
s(lp366
(g354
I36
tp367
atp368
a(S'7,2'
p369
(dp370
S'X'
p371
F0.000173
sS'NUM'
p372
F0.999827
s(lp373
tp374
a(S'milliards'
p375
(dp376
S'NOUN'
p377
F1.0
s(lp378
(S'billion'
p379
I37
tp380
atp381
a(S"d'"
p382
(dp383
S'NOUN'
p384
F0.032441
sS'VERB'
p385
F0.694014
sS'ADJ'
p386
F0.273544
s(lp387
tp388
a(S'euros'
p389
(dp390
S'NOUN'
p391
F1.0
s(lp392
(g194
I35
tp393
atp394
a(S'durant'
p395
(dp396
S'VERB'
p397
F0.0238
sS'ADP'
p398
F0.9762
s(lp399
(g354
I36
tp400
atp401
a(S'les'
p402
(dp403
S'PRON'
p404
F5e-06
sS'DET'
p405
F0.999975
sS'ADP'
p406
F2e-05
s(lp407
(S'the'
p408
I39
tp409
atp410
a(S'trois'
p411
(dp412
S'NUM'
p413
F0.947441
sS'NOUN'
p414
F0.052559
s(lp415
(S'three'
p416
I41
tp417
atp418
a(S'prochaines'
p419
(dp420
S'NOUN'
p421
F0.299951
sS'ADJ'
p422
F0.700049
s(lp423
tp424
a(S'ann\xc3\xa9es'
p425
(dp426
S'NOUN'
p427
F1.0
s(lp428
(S'years'
p429
I42
tp430
atp431
a(g27
(dp432
g27
F1.0
s(lp433
(g27
I43
tp434
atp435
asS'en'
p436
(lp437
(g9
(dp438
S'ADV'
p439
F0.001843
sS'NOUN'
p440
F0.000276
sS'VERB'
p441
F0.000651
sS'ADJ'
p442
F0.99723
s(lp443
(g9
I0
tp444
atp445
a(g22
(dp446
S'ADV'
p447
F1e-05
sS'NOUN'
p448
F0.99999
s(lp449
(g22
I1
tp450
atp451
a(g25
(dp452
g27
F1.0
s(lp453
(g25
I2
tp454
atp455
a(g48
(dp456
S'ADV'
p457
F0.002265
sS'ADP'
p458
F0.997735
s(lp459
(g48
I3
tp460
atp461
a(g60
(dp462
S'NOUN'
p463
F1.0
s(lp464
(g60
I4
tp465
atp466
a(g67
(dp467
S'ADP'
p468
F1.0
s(lp469
(g67
I5
tp470
atp471
a(g81
(dp472
S'ADJ'
p473
F1.0
s(lp474
(g81
I6
tp475
atp476
a(g74
(dp477
S'NOUN'
p478
F1.0
s(lp479
(g74
I7
tp480
atp481
a(g25
(dp482
g27
F1.0
s(lp483
(g25
I8
tp484
atp485
a(g96
(dp486
S'PRON'
p487
F1.0
s(lp488
(g96
I9
tp489
atp490
a(g108
(dp491
S'VERB'
p492
F1.0
s(lp493
(g108
I10
tp494
atp495
a(g115
(dp496
S'ADV'
p497
F0.986236
sS'CONJ'
p498
F0.012695
sS'ADP'
p499
F0.001069
s(lp500
(g115
I11
tp501
atp502
a(g129
(dp503
S'DET'
p504
F1.0
s(lp505
(g129
I12
tp506
atp507
a(g136
(dp508
S'VERB'
p509
F0.000573
sS'NOUN'
p510
F0.999428
s(lp511
(g136
I13
tp512
atp513
a(g139
(dp514
g27
F1.0
s(lp515
(g139
I14
tp516
atp517
a(g150
(dp518
S'NOUN'
p519
F1e-06
sS'DET'
p520
F0.999999
s(lp521
(g150
I15
tp522
atp523
a(g179
(dp524
S'ADV'
p525
F1.0
s(lp526
(g179
I16
tp527
atp528
a(g172
(dp529
S'ADV'
p530
F0.353702
sS'NOUN'
p531
F0.06683399999999999
sS'VERB'
p532
F0.051748
sS'ADJ'
p533
F0.527716
s(lp534
(g172
I17
tp535
atp536
a(g165
(dp537
S'ADJ'
p538
F1.0
s(lp539
(g165
I18
tp540
atp541
a(g157
(dp542
S'VERB'
p543
F1.4e-05
sS'NOUN'
p544
F0.999985
s(lp545
(g157
I19
tp546
atp547
a(g224
(dp548
S'VERB'
p549
F1.0
s(lp550
(g224
I20
tp551
atp552
a(g231
(dp553
S'ADP'
p554
F1.0
s(lp555
(g231
I21
tp556
atp557
a(g240
(dp558
S'NOUN'
p559
F0.457866
sS'DET'
p560
F0.542134
s(lp561
(g240
I22
tp562
atp563
a(g246
(dp564
S'PRT'
p565
F0.459244
sg27
F0.540756
s(lp566
(g246
I23
tp567
atp568
a(g275
(dp569
S'ADV'
p570
F0.318073
sS'NOUN'
p571
F0.006794
sS'VERB'
p572
F0.000386
sS'ADJ'
p573
F0.674747
s(lp574
(g275
I24
tp575
atp576
a(g255
(dp577
S'VERB'
p578
F0.262541
sS'NOUN'
p579
F0.737459
s(lp580
(g255
I25
tp581
atp582
a(g246
(dp583
S'PRT'
p584
F0.019439
sg27
F0.980561
s(lp585
(g246
I26
tp586
atp587
a(g286
(dp588
S'ADP'
p589
F1.0
s(lp590
(g286
I27
tp591
atp592
a(g307
(dp593
S'NOUN'
p594
F1.0
s(lp595
(g307
I28
tp596
atp597
a(g300
(dp598
S'NOUN'
p599
F1.0
s(lp600
(g300
I29
tp601
atp602
a(g315
(dp603
S'ADV'
p604
F0.000464
sS'PRT'
p605
F0.000198
sS'ADP'
p606
F0.999338
s(lp607
(g315
I30
tp608
atp609
a(g324
(dp610
S'NOUN'
p611
F0.015447
sS'VERB'
p612
F0.892903
sS'ADJ'
p613
F0.09165
s(lp614
(g324
I31
tp615
atp616
a(g331
(dp617
S'NOUN'
p618
F1.0
s(lp619
(g331
I32
tp620
atp621
a(g88
(dp622
g27
F1.0
s(lp623
(g88
I33
tp624
atp625
a(g203
(dp626
S'VERB'
p627
F0.911501
sS'NOUN'
p628
F0.088499
s(lp629
(g203
I34
tp630
atp631
a(g194
(dp632
S'ADJ'
p633
F0.040635
sS'VERB'
p634
F0.000533
sS'NOUN'
p635
F0.958832
s(lp636
(g194
I35
tp637
atp638
a(g354
(dp639
S'ADV'
p640
F0.000828
sS'ADJ'
p641
F0.000129
sS'NUM'
p642
F0.997365
sS'NOUN'
p643
F0.001677
sg371
F0.0
s(lp644
(g354
I36
tp645
atp646
a(g379
(dp647
S'NUM'
p648
F0.999395
sS'NOUN'
p649
F0.0006050000000000001
s(lp650
(g379
I37
tp651
atp652
a(S'for'
p653
(dp654
S'ADP'
p655
F1.0
s(lp656
(g653
I38
tp657
atp658
a(g408
(dp659
S'NOUN'
p660
F2e-06
sS'DET'
p661
F0.999998
s(lp662
(g408
I39
tp663
atp664
a(S'coming'
p665
(dp666
S'VERB'
p667
F0.996848
sS'ADJ'
p668
F0.003152
s(lp669
(g665
I40
tp670
atp671
a(g416
(dp672
S'NUM'
p673
F0.999873
sS'NOUN'
p674
F0.000127
s(lp675
(g416
I41
tp676
atp677
a(g429
(dp678
S'NOUN'
p679
F1.0
s(lp680
(g429
I42
tp681
atp682
a(g27
(dp683
g27
F1.0
s(lp684
(g27
I43
tp685
atp686
asS'nl'
p687
(lp688
(S'na'
p689
(dp690
S'ADV'
p691
F0.041114
sS'CONJ'
p692
F0.001106
sS'ADP'
p693
F0.957779
s(lp694
(g48
I3
tp695
atp696
a(S'weken'
p697
(dp698
S'VERB'
p699
F0.0019990000000000003
sS'NOUN'
p700
F0.998
s(lp701
(g60
I4
tp702
atp703
a(S'van'
p704
(dp705
S'ADP'
p706
F1.0
s(lp707
(g67
I5
tp708
atp709
a(S'bilateraal'
p710
(dp711
S'ADJ'
p712
F1.0
s(lp713
(g81
I6
tp714
atp715
a(S'overleg'
p716
(dp717
S'VERB'
p718
F6.6e-05
sS'NOUN'
p719
F0.999934
s(lp720
(g74
I7
tp721
atp722
a(S'hebben'
p723
(dp724
S'VERB'
p725
F1.0
sS'NOUN'
p726
F0.0
s(lp727
(g108
I10
tp728
atp729
a(S'we'
p730
(dp731
S'PRON'
p732
F1.0
s(lp733
(g96
I9
tp734
atp735
a(S'vorige'
p736
(dp737
S'NOUN'
p738
F8e-06
sS'ADJ'
p739
F0.999992
s(lp740
(g9
I0
tp741
atp742
a(S'week'
p743
(dp744
S'ADJ'
p745
F1.9e-05
sS'VERB'
p746
F0.008981
sS'NOUN'
p747
F0.991001
s(lp748
(g22
I1
tp749
atp750
a(S'nog'
p751
(dp752
S'ADV'
p753
F1.0
s(lp754
(g115
I11
tp755
atp756
a(S'een'
p757
(dp758
S'ADJ'
p759
F1.1e-05
sS'PRON'
p760
F3.4e-05
sS'NUM'
p761
F1e-06
sS'DET'
p762
F0.999955
s(lp763
(g129
I12
tp764
atp765
a(S'stap'
p766
(dp767
S'VERB'
p768
F6.5e-05
sS'NOUN'
p769
F0.999935
s(lp770
tp771
a(S'gezet'
p772
(dp773
S'VERB'
p774
F0.992292
sS'ADJ'
p775
F0.007708
s(lp776
(g136
I13
tp777
atp778
a(g139
(dp779
g27
F1.0
s(lp780
(g139
I14
tp781
atp782
a(S'een'
p783
(dp784
S'ADJ'
p785
F1e-06
sS'PRON'
p786
F9.7e-05
sS'NUM'
p787
F1e-06
sS'DET'
p788
F0.999902
s(lp789
(g150
I15
tp790
atp791
a(S'collectief'
p792
(dp793
S'NOUN'
p794
F0.010671
sS'ADJ'
p795
F0.989329
s(lp796
(g179
I16
tp797
atp798
a(S'samengesteld'
p799
(dp800
S'VERB'
p801
F0.996003
sS'ADJ'
p802
F0.003997
s(lp803
(g172
I17
tp804
atp805
a(S'financieel'
p806
(dp807
S'ADJ'
p808
F1.0
s(lp809
(g165
I18
tp810
atp811
a(S'pakket'
p812
(dp813
S'NOUN'
p814
F1.0
s(lp815
(g157
I19
tp816
atp817
a(S'bestemd'
p818
(dp819
S'VERB'
p820
F1.0
s(lp821
(g224
I20
tp822
atp823
a(S'voor'
p824
(dp825
S'ADV'
p826
F6.9e-05
sS'CONJ'
p827
F5e-06
sS'NOUN'
p828
F0.0
sS'ADP'
p829
F0.999926
s(lp830
(g231
I21
tp831
atp832
a(S'de'
p833
(dp834
S'DET'
p835
F1.0
s(lp836
(g240
I22
tp837
atp838
a(g246
(dp839
g27
F1.0
s(lp840
(g246
I23
tp841
atp842
a(S'snelstart'
p843
(dp844
S'ADJ'
p845
F0.06221
sS'NOUN'
p846
F0.93779
s(lp847
(g172
I17
tp848
atp849
a(g246
(dp850
g27
F1.0
s(lp851
(g246
I26
tp852
atp853
a(S'van'
p854
(dp855
S'ADP'
p856
F1.0
s(lp857
(g286
I27
tp858
atp859
a(S'klimaatactie'
p860
(dp861
S'NOUN'
p862
F1.0
s(lp863
(g307
I28
tp864
atp865
a(S'in'
p866
(dp867
S'ADV'
p868
F0.004906
sS'VERB'
p869
F0.0
sS'ADP'
p870
F0.995094
s(lp871
(g315
I30
tp872
atp873
a(S'ontwikkelingslanden'
p874
(dp875
S'NOUN'
p876
F1.0
s(lp877
(g324
I31
tp878
atp879
a(g88
(dp880
g27
F1.0
s(lp881
(g88
I33
tp882
atp883
a(S'bestaande'
p884
(dp885
S'NOUN'
p886
F0.045083
sS'VERB'
p887
F0.90704
sS'ADJ'
p888
F0.047877
s(lp889
tp890
a(S'uit'
p891
(dp892
S'ADV'
p893
F0.015082
sS'VERB'
p894
F1.9e-05
sS'ADP'
p895
F0.984899
s(lp896
(g172
I17
tp897
atp898
a(S'7,2'
p899
(dp900
S'NUM'
p901
F1.0
s(lp902
(g354
I36
tp903
atp904
a(S'miljard'
p905
(dp906
S'NUM'
p907
F0.996705
sS'NOUN'
p908
F0.003295
s(lp909
(g379
I37
tp910
atp911
a(S'euro'
p912
(dp913
S'NOUN'
p914
F1.0
s(lp915
(g194
I35
tp916
atp917
a(S'voor'
p918
(dp919
S'ADV'
p920
F0.001935
sS'CONJ'
p921
F3e-06
sS'NOUN'
p922
F0.0
sS'ADP'
p923
F0.998062
s(lp924
(g653
I38
tp925
atp926
a(S'de'
p927
(dp928
S'DET'
p929
F1.0
s(lp930
(g408
I39
tp931
atp932
a(S'komende'
p933
(dp934
S'NOUN'
p935
F0.028206
sS'VERB'
p936
F0.902596
sS'ADJ'
p937
F0.069199
s(lp938
(g665
I40
tp939
atp940
a(S'drie'
p941
(dp942
S'NUM'
p943
F1.0
s(lp944
(g416
I41
tp945
atp946
a(S'jaar'
p947
(dp948
S'NOUN'
p949
F1.0
s(lp950
(g429
I42
tp951
atp952
a(g27
(dp953
g27
F1.0
s(lp954
(g27
I43
tp955
atp956
asS'de'
p957
(lp958
(S'in'
p959
(dp960
S'ADP'
p961
F1.0
s(lp962
tp963
a(S'der'
p964
(dp965
S'PRON'
p966
F6.7e-05
sS'DET'
p967
F0.999928
s(lp968
tp969
a(S'letzten'
p970
(dp971
S'ADJ'
p972
F1.0
s(lp973
(g9
I0
tp974
atp975
a(S'woche'
p976
(dp977
S'ADJ'
p978
F0.004032
sS'NOUN'
p979
F0.991348
s(lp980
(g22
I1
tp981
atp982
a(S'haben'
p983
(dp984
S'VERB'
p985
F0.999902
s(lp986
(g108
I10
tp987
atp988
a(S'wir'
p989
(dp990
S'PRON'
p991
F1.0
s(lp992
(g96
I9
tp993
atp994
a(S'nach'
p995
(dp996
S'ADV'
p997
F0.033092
sS'ADP'
p998
F0.961181
s(lp999
(g48
I3
tp1000
atp1001
a(S'wochen'
p1002
(dp1003
S'ADJ'
p1004
F0.9980910000000001
s(lp1005
(g60
I4
tp1006
atp1007
a(S'bilateraler'
p1008
(dp1009
S'ADJ'
p1010
F1.0
s(lp1011
(g81
I6
tp1012
atp1013
a(S'gespr\xc3\xa4che'
p1014
(dp1015
S'VERB'
p1016
F0.002435
sS'NOUN'
p1017
F0.997451
s(lp1018
(g74
I7
tp1019
atp1020
a(S'noch'
p1021
(dp1022
S'ADV'
p1023
F0.850046
sS'CONJ'
p1024
F0.149954
s(lp1025
(g115
I11
tp1026
atp1027
a(S'einen'
p1028
(dp1029
S'PRON'
p1030
F0.003008
sS'DET'
p1031
F0.995534
s(lp1032
tp1033
a(S'weiteren'
p1034
(dp1035
S'ADJ'
p1036
F1.0
s(lp1037
(g129
I12
tp1038
atp1039
a(S'schritt'
p1040
(dp1041
S'VERB'
p1042
F1.0
s(lp1043
(g136
I13
tp1044
atp1045
a(S'geschafft'
p1046
(dp1047
S'VERB'
p1048
F0.606045
sS'ADJ'
p1049
F0.393955
s(lp1050
(g172
I17
tp1051
atp1052
a(g139
(dp1053
g27
F1.0
s(lp1054
(g139
I14
tp1055
atp1056
a(S'ein'
p1057
(dp1058
S'VERB'
p1059
F0.001318
sS'DET'
p1060
F0.997597
s(lp1061
(g150
I15
tp1062
atp1063
a(S'gemeinsam'
p1064
(dp1065
S'ADJ'
p1066
F1.0
s(lp1067
(g179
I16
tp1068
atp1069
a(S'zusammengestelltes'
p1070
(dp1071
S'ADJ'
p1072
F1.0
s(lp1073
(g172
I17
tp1074
atp1075
a(S'finanzpaket'
p1076
(dp1077
S'ADJ'
p1078
F0.02183
sS'NOUN'
p1079
F0.961042
s(lp1080
tp1081
a(g88
(dp1082
g27
F1.0
s(lp1083
(g25
I2
tp1084
atp1085
a(S'das'
p1086
(dp1087
S'PRON'
p1088
F0.976552
s(lp1089
(g157
I19
tp1090
atp1091
a(S'f\xc3\xbcr'
p1092
(dp1093
S'ADP'
p1094
F1.0
s(lp1095
(g231
I21
tp1096
atp1097
a(S'die'
p1098
(dp1099
S'PRON'
p1100
F0.000198
sS'DET'
p1101
F0.999762
s(lp1102
(g240
I22
tp1103
atp1104
a(S'schnellstart-finanzierung'
p1105
(dp1106
S'ADJ'
p1107
F0.016621
sS'NOUN'
p1108
F0.96772
s(lp1109
(g172
I17
tp1110
atp1111
a(S'von'
p1112
(dp1113
S'NOUN'
p1114
F0.004345
sS'ADP'
p1115
F0.995655
s(lp1116
(g286
I27
tp1117
atp1118
a(S'klimama\xc3\x9fnahmen'
p1119
(dp1120
S'ADJ'
p1121
F0.049601
sS'NOUN'
p1122
F0.923768
s(lp1123
(g307
I28
tp1124
atp1125
a(S'in'
p1126
(dp1127
S'ADP'
p1128
F1.0
s(lp1129
(g315
I30
tp1130
atp1131
a(S'entwicklungsl\xc3\xa4ndern'
p1132
(dp1133
S'NOUN'
p1134
F0.422304
sS'ADJ'
p1135
F0.570722
s(lp1136
(g324
I31
tp1137
atp1138
a(S'vorgesehen'
p1139
(dp1140
S'VERB'
p1141
F0.943549
sS'ADJ'
p1142
F0.056451
s(lp1143
(g224
I20
tp1144
atp1145
a(S'ist'
p1146
(dp1147
S'VERB'
p1148
F1.0
s(lp1149
tp1150
a(S'und'
p1151
(dp1152
S'CONJ'
p1153
F1.0
s(lp1154
(g88
I33
tp1155
atp1156
a(S'\xc3\xbcber'
p1157
(dp1158
S'PRT'
p1159
F0.0
sS'ADP'
p1160
F1.0
s(lp1161
tp1162
a(S'das'
p1163
(dp1164
S'PRON'
p1165
F0.169581
sS'DET'
p1166
F0.826944
s(lp1167
(g203
I34
tp1168
atp1169
a(S'in'
p1170
(dp1171
S'ADP'
p1172
F1.0
s(lp1173
(g653
I38
tp1174
atp1175
a(S'den'
p1176
(dp1177
S'PRON'
p1178
F0.000117
sS'DET'
p1179
F0.999881
s(lp1180
(g408
I39
tp1181
atp1182
a(S'n\xc3\xa4chsten'
p1183
(dp1184
S'ADJ'
p1185
F1.0
s(lp1186
(g665
I40
tp1187
atp1188
a(S'drei'
p1189
(dp1190
S'NUM'
p1191
F1.0
s(lp1192
(g416
I41
tp1193
atp1194
a(S'jahren'
p1195
(dp1196
S'ADJ'
p1197
F0.007053
sS'NOUN'
p1198
F0.985833
s(lp1199
(g429
I42
tp1200
atp1201
a(S'7,2'
p1202
(dp1203
S'NUM'
p1204
F1.0
s(lp1205
(g354
I36
tp1206
atp1207
a(S'mrd.'
p1208
(dp1209
S'VERB'
p1210
F0.3952
sS'NOUN'
p1211
F0.348816
s(lp1212
(g379
I37
tp1213
atp1214
a(S'eur'
p1215
(dp1216
S'ADJ'
p1217
F0.009596
sS'NOUN'
p1218
F0.990294
s(lp1219
(g194
I35
tp1220
atp1221
a(S'bereitgestellt'
p1222
(dp1223
S'VERB'
p1224
F0.997867
sS'ADJ'
p1225
F0.002133
s(lp1226
tp1227
a(S'werden'
p1228
(dp1229
S'VERB'
p1230
F0.9999950000000001
s(lp1231
(g224
I20
tp1232
atp1233
a(g27
(dp1234
g27
F1.0
s(lp1235
(g27
I43
tp1236
atp1237
asS'it'
p1238
(lp1239
(S'la'
p1240
(dp1241
S'PRON'
p1242
F0.002758
sS'DET'
p1243
F0.997242
s(lp1244
(g9
I0
tp1245
atp1246
a(S'scorsa'
p1247
(dp1248
S'NOUN'
p1249
F0.02421
sS'VERB'
p1250
F0.008261
sS'ADJ'
p1251
F0.967528
s(lp1252
tp1253
a(S'settimana'
p1254
(dp1255
S'NOUN'
p1256
F1.0
s(lp1257
(g22
I1
tp1258
atp1259
a(g88
(dp1260
g27
F1.0
s(lp1261
(g25
I2
tp1262
atp1263
a(S'dopo'
p1264
(dp1265
S'ADV'
p1266
F0.059867
sS'CONJ'
p1267
F0.038517
sS'ADJ'
p1268
F0.003744
sS'ADP'
p1269
F0.897871
s(lp1270
(g48
I3
tp1271
atp1272
a(S'settimane'
p1273
(dp1274
S'NOUN'
p1275
F1.0
s(lp1276
(g60
I4
tp1277
atp1278
a(S'di'
p1279
(dp1280
S'CONJ'
p1281
F4e-06
sS'ADP'
p1282
F0.999996
s(lp1283
(g67
I5
tp1284
atp1285
a(S'consultazioni'
p1286
(dp1287
S'NOUN'
p1288
F1.0
s(lp1289
(g74
I7
tp1290
atp1291
a(S'bilaterali'
p1292
(dp1293
S'ADJ'
p1294
F1.0
s(lp1295
(g81
I6
tp1296
atp1297
a(g88
(dp1298
g27
F1.0
s(lp1299
(g25
I8
tp1300
atp1301
a(S'abbiamo'
p1302
(dp1303
S'VERB'
p1304
F1.0
s(lp1305
(g96
I9
tp1306
atp1307
a(S'compiuto'
p1308
(dp1309
S'VERB'
p1310
F0.997556
sS'ADJ'
p1311
F0.002444
s(lp1312
(g108
I10
tp1313
atp1314
a(S'un'
p1315
(dp1316
S'PRON'
p1317
F0.001862
sS'DEF'
p1318
F0.998138
s(lp1319
tp1320
a(S'altro'
p1321
(dp1322
S'ADV'
p1323
F0.018699
sS'NOUN'
p1324
F0.043135
sS'ADJ'
p1325
F0.935455
sS'PRON'
p1326
F0.002711
s(lp1327
(g129
I12
tp1328
atp1329
a(S'passo'
p1330
(dp1331
S'ADJ'
p1332
F0.109708
sS'VERB'
p1333
F0.001269
sS'NOUN'
p1334
F0.889023
s(lp1335
(g136
I13
tp1336
atp1337
a(S'in'
p1338
(dp1339
S'ADP'
p1340
F1.0
s(lp1341
(g150
I15
tp1342
atp1343
a(S'avanti'
p1344
(dp1345
S'ADV'
p1346
F0.655801
sS'NOUN'
p1347
F0.032542
sS'ADJ'
p1348
F0.311578
sS'ADP'
p1349
F7.9e-05
s(lp1350
(g179
I16
tp1351
atp1352
a(S'con'
p1353
(dp1354
S'ADP'
p1355
F1.0
s(lp1356
(g172
I17
tp1357
atp1358
a(S'la'
p1359
(dp1360
S'PRON'
p1361
F0.000199
sS'DET'
p1362
F0.999801
s(lp1363
tp1364
a(S'creazione'
p1365
(dp1366
S'NOUN'
p1367
F1.0
s(lp1368
(g172
I17
tp1369
atp1370
a(S'di'
p1371
(dp1372
S'CONJ'
p1373
F1.6e-05
sS'ADP'
p1374
F0.999984
s(lp1375
tp1376
a(S'un'
p1377
(dp1378
S'PRON'
p1379
F0.00267
sS'DEF'
p1380
F0.99733
s(lp1381
tp1382
a(S'pacchetto'
p1383
(dp1384
S'NOUN'
p1385
F1.0
s(lp1386
(g157
I19
tp1387
atp1388
a(S'finanziario'
p1389
(dp1390
S'ADJ'
p1391
F1.0
s(lp1392
(g165
I18
tp1393
atp1394
a(g88
(dp1395
g27
F1.0
s(lp1396
tp1397
a(S'redatto'
p1398
(dp1399
S'VERB'
p1400
F0.989557
sS'ADJ'
p1401
F0.010443
s(lp1402
(g172
I17
tp1403
atp1404
a(S'di'
p1405
(dp1406
S'CONJ'
p1407
F2e-06
sS'ADP'
p1408
F0.999998
s(lp1409
(g286
I27
tp1410
atp1411
a(S'concerto'
p1412
(dp1413
S'VERB'
p1414
F0.00037
sS'NOUN'
p1415
F0.99963
s(lp1416
(g172
I17
tp1417
atp1418
a(S'per'
p1419
(dp1420
S'CONJ'
p1421
F0.005327
sS'ADP'
p1422
F0.994673
s(lp1423
(g231
I21
tp1424
atp1425
a(S'avviare'
p1426
(dp1427
S'VERB'
p1428
F1.0
s(lp1429
(g172
I17
tp1430
atp1431
a(S'in'
p1432
(dp1433
S'ADP'
p1434
F1.0
s(lp1435
(g275
I24
tp1436
atp1437
a(S'tempi'
p1438
(dp1439
S'NOUN'
p1440
F1.0
s(lp1441
(g172
I17
tp1442
atp1443
a(S'brevi'
p1444
(dp1445
S'NOUN'
p1446
F0.013274
sS'ADJ'
p1447
F0.986726
s(lp1448
(g172
I17
tp1449
atp1450
a(S'le'
p1451
(dp1452
S'PRON'
p1453
F2.2e-05
sS'DET'
p1454
F0.999978
s(lp1455
(g300
I29
tp1456
atp1457
a(S'azioni'
p1458
(dp1459
S'VERB'
p1460
F0.000186
sS'NOUN'
p1461
F0.999815
s(lp1462
tp1463
a(S'contro'
p1464
(dp1465
S'ADV'
p1466
F0.279304
sS'ADP'
p1467
F0.720696
s(lp1468
(g172
I17
tp1469
atp1470
a(S'i'
p1471
(dp1472
S'DET'
p1473
F1.0
s(lp1474
(g307
I28
tp1475
atp1476
a(S'cambiamenti'
p1477
(dp1478
S'NOUN'
p1479
F1.0
s(lp1480
tp1481
a(S'climatici'
p1482
(dp1483
S'ADJ'
p1484
F1.0
s(lp1485
(g307
I28
tp1486
atp1487
a(S'nei'
p1488
(dp1489
S'NOUN'
p1490
F0.00047
sS'ADP'
p1491
F0.99953
s(lp1492
(g315
I30
tp1493
atp1494
a(S'paesi'
p1495
(dp1496
S'NOUN'
p1497
F1.0
s(lp1498
(g331
I32
tp1499
atp1500
a(S'in'
p1501
(dp1502
S'ADP'
p1503
F1.0
s(lp1504
(g324
I31
tp1505
atp1506
a(S'via'
p1507
(dp1508
S'ADV'
p1509
F0.101479
sg371
F5e-06
sS'NOUN'
p1510
F0.898517
s(lp1511
tp1512
a(S'di'
p1513
(dp1514
S'CONJ'
p1515
F4e-06
sS'ADP'
p1516
F0.999996
s(lp1517
tp1518
a(S'sviluppo'
p1519
(dp1520
S'VERB'
p1521
F1.6e-05
sS'NOUN'
p1522
F0.999984
s(lp1523
(g324
I31
tp1524
atp1525
a(g88
(dp1526
g27
F1.0
s(lp1527
(g88
I33
tp1528
atp1529
a(S'offrendo'
p1530
(dp1531
S'VERB'
p1532
F1.0
s(lp1533
(g203
I34
tp1534
atp1535
a(S'7,2'
p1536
(dp1537
S'NUM'
p1538
F0.989707
sg27
F0.010293
s(lp1539
(g354
I36
tp1540
atp1541
a(S'miliardi'
p1542
(dp1543
S'NOUN'
p1544
F1.0
s(lp1545
tp1546
a(S'di'
p1547
(dp1548
S'CONJ'
p1549
F9e-06
sS'ADP'
p1550
F0.999991
s(lp1551
(g379
I37
tp1552
atp1553
a(S'euro'
p1554
(dp1555
S'ADJ'
p1556
F0.481962
sS'NOUN'
p1557
F0.518038
s(lp1558
(g194
I35
tp1559
atp1560
a(S'per'
p1561
(dp1562
S'CONJ'
p1563
F0.056841
sS'ADP'
p1564
F0.943159
s(lp1565
(g653
I38
tp1566
atp1567
a(g1471
(dp1568
S'DET'
p1569
F1.0
s(lp1570
(g408
I39
tp1571
atp1572
a(S'prossimi'
p1573
(dp1574
S'NOUN'
p1575
F0.332567
sS'ADJ'
p1576
F0.667433
s(lp1577
(g665
I40
tp1578
atp1579
a(S'tre'
p1580
(dp1581
S'NOUN'
p1582
F0.001071
sS'NUM'
p1583
F5.3e-05
sS'ADJ'
p1584
F0.998876
s(lp1585
(g416
I41
tp1586
atp1587
a(S'anni'
p1588
(dp1589
S'NOUN'
p1590
F1.0
s(lp1591
(g429
I42
tp1592
atp1593
a(g27
(dp1594
g27
F1.0
s(lp1595
(g27
I43
tp1596
atp1597
asS'sk'
p1598
(lp1599
(S'minul\xc3\xbd'
p1600
(dp1601
S'ADJ'
p1602
F1.0
s(lp1603
(g9
I0
tp1604
atp1605
a(S't\xc3\xbd\xc5\xbede\xc5\x88'
p1606
(dp1607
S'NOUN'
p1608
F1.0
s(lp1609
(g22
I1
tp1610
atp1611
a(S'sme'
p1612
(dp1613
g371
F0.0031650000000000003
sS'VERB'
p1614
F0.996835
s(lp1615
(g96
I9
tp1616
atp1617
a(S'po'
p1618
(dp1619
g371
F0.005039999999999999
sS'ADP'
p1620
F0.99496
s(lp1621
(g48
I3
tp1622
atp1623
a(S't\xc3\xbd\xc5\xbed\xc5\x88och'
p1624
(dp1625
S'NOUN'
p1626
F1.0
s(lp1627
(g60
I4
tp1628
atp1629
a(S'dvojstrann\xc3\xbdch'
p1630
(dp1631
S'ADJ'
p1632
F1.0
s(lp1633
(g81
I6
tp1634
atp1635
a(S'rokovan\xc3\xad'
p1636
(dp1637
S'NOUN'
p1638
F1.0
s(lp1639
(g74
I7
tp1640
atp1641
a(S'podnikli'
p1642
(dp1643
S'VERB'
p1644
F0.999999
s(lp1645
(g108
I10
tp1646
atp1647
a(S'e\xc5\xa1te'
p1648
(dp1649
S'ADV'
p1650
F0.258105
sg371
F0.741895
s(lp1651
(g115
I11
tp1652
atp1653
a(S'\xc4\x8fal\xc5\xa1\xc3\xad'
p1654
(dp1655
S'ADJ'
p1656
F1.0
s(lp1657
(g129
I12
tp1658
atp1659
a(S'krok'
p1660
(dp1661
S'NOUN'
p1662
F1.0
s(lp1663
(g136
I13
tp1664
atp1665
a(g25
(dp1666
g27
F1.0
s(lp1667
(g139
I14
tp1668
atp1669
a(S'kolekt\xc3\xadvnu'
p1670
(dp1671
S'ADJ'
p1672
F1.0
s(lp1673
(g179
I16
tp1674
atp1675
a(S'pr\xc3\xadpravu'
p1676
(dp1677
S'NOUN'
p1678
F1.0
s(lp1679
(g172
I17
tp1680
atp1681
a(S'finan\xc4\x8dn\xc3\xa9ho'
p1682
(dp1683
S'ADJ'
p1684
F1.0
s(lp1685
(g165
I18
tp1686
atp1687
a(S'bal\xc3\xadka'
p1688
(dp1689
S'NOUN'
p1690
F1.0
s(lp1691
(g157
I19
tp1692
atp1693
a(S'vy\xc4\x8dlenen\xc3\xa9ho'
p1694
(dp1695
S'VERB'
p1696
F1.0
s(lp1697
(g224
I20
tp1698
atp1699
a(S'na'
p1700
(dp1701
g371
F0.002306
sS'CONJ'
p1702
F1.6e-05
sS'ADP'
p1703
F0.997677
sS'PRT'
p1704
F1e-06
s(lp1705
(g231
I21
tp1706
atp1707
a(g243
(dp1708
g27
F1.0
s(lp1709
(g246
I23
tp1710
atp1711
a(S'r\xc3\xbdchly'
p1712
(dp1713
S'ADJ'
p1714
F1.0
s(lp1715
(g275
I24
tp1716
atp1717
a(S'\xc5\xa1tart'
p1718
(dp1719
S'NOUN'
p1720
F1.0
s(lp1721
(g255
I25
tp1722
atp1723
a(g243
(dp1724
g27
F1.0
s(lp1725
(g246
I26
tp1726
atp1727
a(S'opatren\xc3\xad'
p1728
(dp1729
S'NOUN'
p1730
F1.0
s(lp1731
(g300
I29
tp1732
atp1733
a(S'v'
p1734
(dp1735
g371
F0.000124
sS'ADP'
p1736
F0.999875
s(lp1737
(g315
I30
tp1738
atp1739
a(S'oblasti'
p1740
(dp1741
S'NOUN'
p1742
F1.0
s(lp1743
(g307
I28
tp1744
atp1745
a(S'boja'
p1746
(dp1747
S'VERB'
p1748
F0.127386
sS'NOUN'
p1749
F0.872614
s(lp1750
(g307
I28
tp1751
atp1752
a(S'proti'
p1753
(dp1754
S'ADV'
p1755
F0.000123
sS'ADP'
p1756
F0.999877
s(lp1757
(g307
I28
tp1758
atp1759
a(S'zmene'
p1760
(dp1761
S'NOUN'
p1762
F1.0
s(lp1763
tp1764
a(S'kl\xc3\xadmy'
p1765
(dp1766
S'NOUN'
p1767
F1.0
s(lp1768
(g307
I28
tp1769
atp1770
a(g1734
(dp1771
g371
F0.00018099999999999998
sS'ADP'
p1772
F0.999819
s(lp1773
tp1774
a(S'rozvojov\xc3\xbdch'
p1775
(dp1776
S'ADJ'
p1777
F1.0
s(lp1778
(g324
I31
tp1779
atp1780
a(S'krajin\xc3\xa1ch'
p1781
(dp1782
S'NOUN'
p1783
F1.0
s(lp1784
(g331
I32
tp1785
atp1786
a(g88
(dp1787
g27
F1.0
s(lp1788
(g88
I33
tp1789
atp1790
a(g1734
(dp1791
g371
F0.000753
sS'ADP'
p1792
F0.999247
s(lp1793
(g315
I30
tp1794
atp1795
a(S'r\xc3\xa1mci'
p1796
(dp1797
S'NOUN'
p1798
F1.0
s(lp1799
(g172
I17
tp1800
atp1801
a(S'ktor\xc3\xa9ho'
p1802
(dp1803
S'PRON'
p1804
F1.0
s(lp1805
tp1806
a(S'poskytneme'
p1807
(dp1808
S'VERB'
p1809
F1.0
s(lp1810
(g172
I17
tp1811
atp1812
a(S'7,2'
p1813
(dp1814
S'NUM'
p1815
F1.0
s(lp1816
(g354
I36
tp1817
atp1818
a(S'miliardy'
p1819
(dp1820
S'NUM'
p1821
F0.991391
sS'NOUN'
p1822
F0.008609
s(lp1823
(g379
I37
tp1824
atp1825
a(S'eur'
p1826
(dp1827
S'NOUN'
p1828
F1.0
s(lp1829
(g194
I35
tp1830
atp1831
a(S'na'
p1832
(dp1833
S'PRT'
p1834
F2.1e-05
sS'CONJ'
p1835
F1.6e-05
sS'ADP'
p1836
F0.999948
sg371
F1.6e-05
s(lp1837
(g653
I38
tp1838
atp1839
a(S'nasleduj\xc3\xbace'
p1840
(dp1841
S'VERB'
p1842
F1.0
s(lp1843
(g665
I40
tp1844
atp1845
a(S'tri'
p1846
(dp1847
S'NUM'
p1848
F1.0
sS'VERB'
p1849
F0.0
s(lp1850
(g416
I41
tp1851
atp1852
a(S'roky'
p1853
(dp1854
S'NOUN'
p1855
F1.0
s(lp1856
(g429
I42
tp1857
atp1858
a(g27
(dp1859
g27
F1.0
s(lp1860
(g27
I43
tp1861
atp1862
asS'pl'
p1863
(lp1864
(S'w'
p1865
(dp1866
S'ADJ'
p1867
F0.0
sg371
F0.0
sS'NOUN'
p1868
F0.0
sS'ADP'
p1869
F1.0
s(lp1870
tp1871
a(S'ubieg\xc5\x82ym'
p1872
(dp1873
S'ADJ'
p1874
F1.0
s(lp1875
(g9
I0
tp1876
atp1877
a(S'tygodniu'
p1878
(dp1879
S'NOUN'
p1880
F1.0
s(lp1881
(g22
I1
tp1882
atp1883
a(g88
(dp1884
g371
F0.0
sg27
F1.0
s(lp1885
(g25
I2
tp1886
atp1887
a(S'po'
p1888
(dp1889
g371
F4e-06
sS'VERB'
p1890
F6.6e-05
sS'NOUN'
p1891
F0.0006680000000000001
sS'ADP'
p1892
F0.999262
s(lp1893
(g48
I3
tp1894
atp1895
a(S'trwaj\xc4\x85cych'
p1896
(dp1897
S'VERB'
p1898
F1.0
s(lp1899
(g172
I17
tp1900
atp1901
a(S'wiele'
p1902
(dp1903
S'ADV'
p1904
F0.001998
sS'NUM'
p1905
F0.998001
s(lp1906
(g172
I17
tp1907
atp1908
a(S'tygodni'
p1909
(dp1910
S'NOUN'
p1911
F1.0
s(lp1912
(g60
I4
tp1913
atp1914
a(S'dwustronnych'
p1915
(dp1916
S'ADJ'
p1917
F1.0
s(lp1918
(g81
I6
tp1919
atp1920
a(S'konsultacjach'
p1921
(dp1922
S'ADV'
p1923
F0.000431
sS'ADJ'
p1924
F3.7e-05
sS'VERB'
p1925
F1.4e-05
sS'NOUN'
p1926
F0.999517
s(lp1927
(g74
I7
tp1928
atp1929
a(S'podj\xc4\x99li\xc5\x9bmy'
p1930
(dp1931
S'ADJ'
p1932
F1.7e-05
sS'VERB'
p1933
F0.9993629999999998
sS'NOUN'
p1934
F0.000619
s(lp1935
(g108
I10
tp1936
atp1937
a(S'kolejny'
p1938
(dp1939
S'ADJ'
p1940
F0.9999990000000001
s(lp1941
(g129
I12
tp1942
atp1943
a(S'krok'
p1944
(dp1945
S'NOUN'
p1946
F1.0
s(lp1947
(g136
I13
tp1948
atp1949
a(g88
(dp1950
g371
F0.0
sg27
F1.0
s(lp1951
tp1952
a(g150
(dp1953
S'ADV'
p1954
F0.000142
sS'NOUN'
p1955
F0.0031860000000000005
sS'ADP'
p1956
F3.4e-05
sS'PRT'
p1957
F0.002688
sS'VERB'
p1958
F0.000254
sg371
F0.007479
sS'CONJ'
p1959
F0.985787
sS'ADJ'
p1960
F0.00042899999999999997
s(lp1961
(g150
I15
tp1962
atp1963
a(S'mianowicie'
p1964
(dp1965
S'CONJ'
p1966
F1.0
s(lp1967
(g172
I17
tp1968
atp1969
a(S'zgromadzili\xc5\x9bmy'
p1970
(dp1971
S'ADV'
p1972
F0.013743
sS'ADJ'
p1973
F0.014702999999999999
sS'VERB'
p1974
F0.8916810000000002
sS'NOUN'
p1975
F0.07987300000000001
s(lp1976
(g172
I17
tp1977
atp1978
a(S'wsp\xc3\xb3lnie'
p1979
(dp1980
S'ADV'
p1981
F1.0
s(lp1982
(g179
I16
tp1983
atp1984
a(S'pul\xc4\x99'
p1985
(dp1986
S'NOUN'
p1987
F1.0
s(lp1988
(g172
I17
tp1989
atp1990
a(S'\xc5\x9brodk\xc3\xb3w'
p1991
(dp1992
S'NOUN'
p1993
F1.0
s(lp1994
(g157
I19
tp1995
atp1996
a(S'przeznaczonych'
p1997
(dp1998
S'VERB'
p1999
F1.0
s(lp2000
tp2001
a(S'na'
p2002
(dp2003
S'PRT'
p2004
F1e-06
sS'VERB'
p2005
F6e-06
sS'NOUN'
p2006
F0.0
sS'ADP'
p2007
F0.9999929999999999
sg371
F0.0
s(lp2008
(g224
I20
tp2009
atp2010
a(S'podj\xc4\x99cie'
p2011
(dp2012
S'VERB'
p2013
F1.0
s(lp2014
tp2015
a(S'niezw\xc5\x82ocznych'
p2016
(dp2017
S'ADV'
p2018
F0.0
sS'NOUN'
p2019
F8.299999999999998e-05
sS'ADJ'
p2020
F0.999916
s(lp2021
(g172
I17
tp2022
atp2023
a(S'dzia\xc5\x82a\xc5\x84'
p2024
(dp2025
S'NOUN'
p2026
F1.0
s(lp2027
(g300
I29
tp2028
atp2029
a(g1865
(dp2030
S'ADJ'
p2031
F0.0
sg371
F0.0
sS'NOUN'
p2032
F0.0
sS'ADP'
p2033
F1.0
s(lp2034
(g231
I21
tp2035
atp2036
a(S'dziedzinie'
p2037
(dp2038
S'NOUN'
p2039
F1.0
s(lp2040
tp2041
a(S'klimatu'
p2042
(dp2043
S'NOUN'
p2044
F1.0
s(lp2045
(g307
I28
tp2046
atp2047
a(g1865
(dp2048
S'ADJ'
p2049
F0.0
sg371
F0.0
sS'NOUN'
p2050
F0.0
sS'ADP'
p2051
F1.0
s(lp2052
(g315
I30
tp2053
atp2054
a(S'krajach'
p2055
(dp2056
S'NOUN'
p2057
F1.0
s(lp2058
(g331
I32
tp2059
atp2060
a(S'rozwijaj\xc4\x85cych'
p2061
(dp2062
S'VERB'
p2063
F1.0
s(lp2064
tp2065
a(S'si\xc4\x99'
p2066
(dp2067
S'PRT'
p2068
F1.0
s(lp2069
(g324
I31
tp2070
atp2071
a(g88
(dp2072
g371
F0.0
sg27
F1.0
s(lp2073
(g88
I33
tp2074
atp2075
a(S'oferuj\xc4\x85c'
p2076
(dp2077
S'VERB'
p2078
F1.0
s(lp2079
(g203
I34
tp2080
atp2081
a(S'7,2'
p2082
(dp2083
S'NUM'
p2084
F1.0
s(lp2085
(g354
I36
tp2086
atp2087
a(S'miliarda'
p2088
(dp2089
S'NOUN'
p2090
F1.0
s(lp2091
(g379
I37
tp2092
atp2093
a(S'euro'
p2094
(dp2095
S'NOUN'
p2096
F1.0
s(lp2097
(g194
I35
tp2098
atp2099
a(S'na'
p2100
(dp2101
S'PRT'
p2102
F2e-06
sS'VERB'
p2103
F2e-06
sS'NOUN'
p2104
F0.0
sS'ADP'
p2105
F0.999995
sg371
F1e-06
s(lp2106
(g653
I38
tp2107
atp2108
a(S'najbli\xc5\xbcsze'
p2109
(dp2110
S'ADJ'
p2111
F1.0000019999999998
s(lp2112
(g665
I40
tp2113
atp2114
a(S'trzy'
p2115
(dp2116
S'NUM'
p2117
F0.9999830000000002
sS'NOUN'
p2118
F1.7e-05
s(lp2119
(g416
I41
tp2120
atp2121
a(S'lata'
p2122
(dp2123
S'VERB'
p2124
F2e-06
sS'NOUN'
p2125
F0.999998
s(lp2126
(g429
I42
tp2127
atp2128
a(g27
(dp2129
g27
F1.0
s(lp2130
(g27
I43
tp2131
atp2132
asS'sl'
p2133
(lp2134
(S'prej\xc5\xa1nji'
p2135
(dp2136
S'ADJ'
p2137
F1.0
s(lp2138
(g9
I0
tp2139
atp2140
a(S'teden'
p2141
(dp2142
S'NOUN'
p2143
F1.0
s(lp2144
(g22
I1
tp2145
atp2146
a(g25
(dp2147
g27
F1.0
s(lp2148
(g25
I2
tp2149
atp2150
a(S'po'
p2151
(dp2152
g371
F4.3e-05
sS'ADP'
p2153
F0.9999570000000001
s(lp2154
(g48
I3
tp2155
atp2156
a(S'tednih'
p2157
(dp2158
S'NOUN'
p2159
F1.0
s(lp2160
(g60
I4
tp2161
atp2162
a(S'dvostranskih'
p2163
(dp2164
S'ADV'
p2165
F0.000434
sS'NOUN'
p2166
F0.013359
sS'VERB'
p2167
F0.009453
sS'ADJ'
p2168
F0.9767549999999999
s(lp2169
(g81
I6
tp2170
atp2171
a(S'posvetovanj'
p2172
(dp2173
S'ADV'
p2174
F0.002219
sS'ADJ'
p2175
F2.2e-05
sS'VERB'
p2176
F6.6e-05
sS'NOUN'
p2177
F0.997694
s(lp2178
(g74
I7
tp2179
atp2180
a(g25
(dp2181
g27
F1.0
s(lp2182
(g25
I8
tp2183
atp2184
a(S'smo'
p2185
(dp2186
g371
F5.4e-05
sS'VERB'
p2187
F0.999946
s(lp2188
(g96
I9
tp2189
atp2190
a(S'storili'
p2191
(dp2192
S'VERB'
p2193
F1.0
s(lp2194
(g108
I10
tp2195
atp2196
a(S'\xc5\xa1e'
p2197
(dp2198
S'PRT'
p2199
F1.0
s(lp2200
(g115
I11
tp2201
atp2202
a(S'en'
p2203
(dp2204
g371
F2.6e-05
sS'NUM'
p2205
F0.999974
s(lp2206
(g129
I12
tp2207
atp2208
a(S'korak'
p2209
(dp2210
S'NOUN'
p2211
F1.0
s(lp2212
(g136
I13
tp2213
atp2214
a(g139
(dp2215
g27
F1.0
s(lp2216
(g139
I14
tp2217
atp2218
a(S'kolektivno'
p2219
(dp2220
S'ADJ'
p2221
F1.0
s(lp2222
(g179
I16
tp2223
atp2224
a(S'sestavljen'
p2225
(dp2226
S'ADJ'
p2227
F1.0
s(lp2228
(g172
I17
tp2229
atp2230
a(S'finan\xc4\x8dni'
p2231
(dp2232
S'ADJ'
p2233
F1.0000010000000001
s(lp2234
(g165
I18
tp2235
atp2236
a(S'sve\xc5\xbeenj'
p2237
(dp2238
S'NOUN'
p2239
F1.0
s(lp2240
(g157
I19
tp2241
atp2242
a(g88
(dp2243
g27
F1.0
s(lp2244
tp2245
a(S'namenjen'
p2246
(dp2247
S'ADJ'
p2248
F1.0
s(lp2249
(g224
I20
tp2250
atp2251
a(g243
(dp2252
g27
F1.0
s(lp2253
(g246
I23
tp2254
atp2255
a(S'hitremu'
p2256
(dp2257
S'ADJ'
p2258
F1.0
s(lp2259
(g275
I24
tp2260
atp2261
a(S'za\xc4\x8detku'
p2262
(dp2263
S'NOUN'
p2264
F1.0
s(lp2265
(g255
I25
tp2266
atp2267
a(g243
(dp2268
g27
F1.0
s(lp2269
(g246
I26
tp2270
atp2271
a(S'podnebnega'
p2272
(dp2273
S'ADV'
p2274
F0.001267
sS'NOUN'
p2275
F0.022848999999999998
sS'NUM'
p2276
F0.001961
sS'ADJ'
p2277
F0.9739220000000001
s(lp2278
(g307
I28
tp2279
atp2280
a(S'ukrepanja'
p2281
(dp2282
S'NOUN'
p2283
F1.0
s(lp2284
(g300
I29
tp2285
atp2286
a(g1734
(dp2287
S'ADP'
p2288
F1.0
s(lp2289
(g315
I30
tp2290
atp2291
a(S'dr\xc5\xbeavah'
p2292
(dp2293
S'NOUN'
p2294
F1.0
s(lp2295
(g331
I32
tp2296
atp2297
a(g1734
(dp2298
S'ADP'
p2299
F1.0
s(lp2300
tp2301
a(S'razvoju'
p2302
(dp2303
S'NOUN'
p2304
F1.0
s(lp2305
(g324
I31
tp2306
atp2307
a(g88
(dp2308
g27
F1.0
s(lp2309
(g88
I33
tp2310
atp2311
a(S'ki'
p2312
(dp2313
S'CONJ'
p2314
F1.0
s(lp2315
tp2316
a(S'zagotavlja'
p2317
(dp2318
S'VERB'
p2319
F1.0
s(lp2320
(g203
I34
tp2321
atp2322
a(S'7,2'
p2323
(dp2324
S'NUM'
p2325
F1.0
s(lp2326
(g354
I36
tp2327
atp2328
a(S'milijard'
p2329
(dp2330
S'NOUN'
p2331
F1.0
s(lp2332
(g379
I37
tp2333
atp2334
a(S'eur'
p2335
(dp2336
S'ADV'
p2337
F0.041834
sS'ADJ'
p2338
F0.001981
sS'NOUN'
p2339
F0.9555560000000001
sg371
F0.00063
s(lp2340
(g194
I35
tp2341
atp2342
a(g1734
(dp2343
S'ADP'
p2344
F1.0
s(lp2345
(g653
I38
tp2346
atp2347
a(S'naslednjih'
p2348
(dp2349
S'ADJ'
p2350
F0.999999
s(lp2351
(g665
I40
tp2352
atp2353
a(S'treh'
p2354
(dp2355
S'NUM'
p2356
F1.0
s(lp2357
(g416
I41
tp2358
atp2359
a(S'letih'
p2360
(dp2361
S'NOUN'
p2362
F1.0
s(lp2363
(g429
I42
tp2364
atp2365
a(g27
(dp2366
g27
F1.0
s(lp2367
(g27
I43
tp2368
atp2369
asS'es'
p2370
(lp2371
(S'la'
p2372
(dp2373
g371
F4.5e-05
sS'DET'
p2374
F0.999917
sS'NOUN'
p2375
F0.0
sS'PRON'
p2376
F3.8e-05
s(lp2377
(g9
I0
tp2378
atp2379
a(S'semana'
p2380
(dp2381
S'NOUN'
p2382
F1.0
s(lp2383
tp2384
a(S'pasada'
p2385
(dp2386
S'VERB'
p2387
F0.849155
sS'NOUN'
p2388
F0.150845
s(lp2389
(g22
I1
tp2390
atp2391
a(S'-despu\xc3\xa9s'
p2392
(dp2393
S'ADV'
p2394
F0.044814
sS'ADJ'
p2395
F0.190479
sS'VERB'
p2396
F0.559086
sS'NOUN'
p2397
F0.205621
s(lp2398
(g48
I3
tp2399
atp2400
a(S'de'
p2401
(dp2402
g371
F0.0
sS'CONJ'
p2403
F0.000338
sS'ADP'
p2404
F0.999662
s(lp2405
tp2406
a(S'varias'
p2407
(dp2408
S'ADJ'
p2409
F1.0
s(lp2410
tp2411
a(S'semanas'
p2412
(dp2413
S'NOUN'
p2414
F1.0
s(lp2415
(g60
I4
tp2416
atp2417
a(S'de'
p2418
(dp2419
g371
F2.9e-05
sS'CONJ'
p2420
F0.000449
sS'ADP'
p2421
F0.999522
s(lp2422
(g67
I5
tp2423
atp2424
a(S'consultas'
p2425
(dp2426
S'NOUN'
p2427
F1.0
s(lp2428
(g74
I7
tp2429
atp2430
a(S'bilaterales-'
p2431
(dp2432
S'ADJ'
p2433
F0.28649
sS'VERB'
p2434
F0.000118
sS'NOUN'
p2435
F0.713391
s(lp2436
(g172
I17
tp2437
atp2438
a(S'adoptamos'
p2439
(dp2440
S'VERB'
p2441
F1.0
s(lp2442
(g172
I17
tp2443
atp2444
a(S'una'
p2445
(dp2446
S'DET'
p2447
F1.0
s(lp2448
(g129
I12
tp2449
atp2450
a(S'medida'
p2451
(dp2452
S'VERB'
p2453
F0.03943
sS'NOUN'
p2454
F0.96057
s(lp2455
(g172
I17
tp2456
atp2457
a(S'm\xc3\xa1s'
p2458
(dp2459
S'ADV'
p2460
F1.0
sS'CONJ'
p2461
F0.0
s(lp2462
(g136
I13
tp2463
atp2464
a(g139
(dp2465
g27
F1.0
s(lp2466
(g139
I14
tp2467
atp2468
a(S'un'
p2469
(dp2470
g371
F0.000229
sS'DET'
p2471
F0.999771
s(lp2472
(g150
I15
tp2473
atp2474
a(S'paquete'
p2475
(dp2476
S'NOUN'
p2477
F1.0
s(lp2478
(g157
I19
tp2479
atp2480
a(S'financiero'
p2481
(dp2482
S'NOUN'
p2483
F0.053663
sS'ADJ'
p2484
F0.946337
s(lp2485
(g165
I18
tp2486
atp2487
a(S'reunido'
p2488
(dp2489
S'VERB'
p2490
F1.0
s(lp2491
(g172
I17
tp2492
atp2493
a(S'de'
p2494
(dp2495
g371
F0.0
sS'CONJ'
p2496
F0.000604
sS'ADP'
p2497
F0.999396
s(lp2498
tp2499
a(S'forma'
p2500
(dp2501
S'VERB'
p2502
F0.00014
sS'NOUN'
p2503
F0.99986
s(lp2504
tp2505
a(S'colectiva'
p2506
(dp2507
S'ADJ'
p2508
F1.0
s(lp2509
(g179
I16
tp2510
atp2511
a(S'destinado'
p2512
(dp2513
S'VERB'
p2514
F1.0
s(lp2515
(g172
I17
tp2516
atp2517
a(S'espec\xc3\xadficamente'
p2518
(dp2519
S'ADV'
p2520
F1.0
s(lp2521
tp2522
a(g150
(dp2523
g371
F0.002143
sS'CONJ'
p2524
F2.1e-05
sS'ADP'
p2525
F0.997836
s(lp2526
(g231
I21
tp2527
atp2528
a(S'la'
p2529
(dp2530
g371
F0.000674
sS'PRON'
p2531
F0.0
sS'DET'
p2532
F0.999307
sS'NOUN'
p2533
F1.9e-05
s(lp2534
(g240
I22
tp2535
atp2536
a(g243
(dp2537
g27
F1.0
s(lp2538
(g246
I23
tp2539
atp2540
a(S'inmediatez'
p2541
(dp2542
S'NOUN'
p2543
F1.0
s(lp2544
(g172
I17
tp2545
atp2546
a(g243
(dp2547
g27
F1.0
s(lp2548
(g246
I26
tp2549
atp2550
a(S'de'
p2551
(dp2552
g371
F1.7e-05
sS'CONJ'
p2553
F1e-05
sS'ADP'
p2554
F0.999973
s(lp2555
(g286
I27
tp2556
atp2557
a(S'la'
p2558
(dp2559
g371
F7e-06
sS'PRON'
p2560
F0.0
sS'DET'
p2561
F0.999993
sS'NOUN'
p2562
F0.0
s(lp2563
tp2564
a(S'acci\xc3\xb3n'
p2565
(dp2566
S'NOUN'
p2567
F1.0
s(lp2568
(g300
I29
tp2569
atp2570
a(S'contra'
p2571
(dp2572
S'ADP'
p2573
F1.0
s(lp2574
(g307
I28
tp2575
atp2576
a(S'el'
p2577
(dp2578
S'PRON'
p2579
F5e-06
sS'DET'
p2580
F0.999995
s(lp2581
(g307
I28
tp2582
atp2583
a(S'cambio'
p2584
(dp2585
S'NOUN'
p2586
F1.0
s(lp2587
tp2588
a(S'clim\xc3\xa1tico'
p2589
(dp2590
S'ADJ'
p2591
F1.0
s(lp2592
(g307
I28
tp2593
atp2594
a(S'en'
p2595
(dp2596
g371
F0.0
sS'CONJ'
p2597
F1e-06
sS'ADP'
p2598
F0.999999
s(lp2599
(g315
I30
tp2600
atp2601
a(S'los'
p2602
(dp2603
S'PRON'
p2604
F0.0
sS'DET'
p2605
F1.0
s(lp2606
(g324
I31
tp2607
atp2608
a(S'pa\xc3\xadses'
p2609
(dp2610
S'NOUN'
p2611
F1.0
s(lp2612
(g331
I32
tp2613
atp2614
a(S'en'
p2615
(dp2616
g371
F1.8e-05
sS'CONJ'
p2617
F1e-05
sS'ADP'
p2618
F0.999972
s(lp2619
tp2620
a(S'desarrollo'
p2621
(dp2622
S'NOUN'
p2623
F1.0
s(lp2624
(g324
I31
tp2625
atp2626
a(g88
(dp2627
g27
F1.0
s(lp2628
(g88
I33
tp2629
atp2630
a(S'que'
p2631
(dp2632
g371
F4e-06
sS'CONJ'
p2633
F0.999996
s(lp2634
tp2635
a(S'ofrece'
p2636
(dp2637
S'VERB'
p2638
F1.0
s(lp2639
(g203
I34
tp2640
atp2641
a(S'7'
p2642
(dp2643
S'NUM'
p2644
F1.0
s(lp2645
tp2646
a(S'200'
p2647
(dp2648
g371
F0.176482
sS'NUM'
p2649
F0.823518
s(lp2650
(g354
I36
tp2651
atp2652
a(S'millones'
p2653
(dp2654
S'NUM'
p2655
F1.0
s(lp2656
tp2657
a(S'de'
p2658
(dp2659
g371
F6.2e-05
sS'CONJ'
p2660
F1.6e-05
sS'ADP'
p2661
F0.999921
s(lp2662
(g194
I35
tp2663
atp2664
a(S'euros'
p2665
(dp2666
S'NOUN'
p2667
F1.0
s(lp2668
(g379
I37
tp2669
atp2670
a(S'para'
p2671
(dp2672
S'CONJ'
p2673
F0.000664
sS'ADP'
p2674
F0.999336
s(lp2675
(g653
I38
tp2676
atp2677
a(S'los'
p2678
(dp2679
S'PRON'
p2680
F2e-06
sS'DET'
p2681
F0.999998
s(lp2682
(g408
I39
tp2683
atp2684
a(S'tres'
p2685
(dp2686
S'NUM'
p2687
F1.0
s(lp2688
(g416
I41
tp2689
atp2690
a(S'pr\xc3\xb3ximos'
p2691
(dp2692
S'ADJ'
p2693
F1.0
s(lp2694
tp2695
a(S'a\xc3\xb1os'
p2696
(dp2697
S'NOUN'
p2698
F1.0
s(lp2699
(g429
I42
tp2700
atp2701
a(g27
(dp2702
g27
F1.0
s(lp2703
(g27
I43
tp2704
atp2705
as.