(dp0
S'fr'
p1
(lp2
(S'pour'
p3
(dp4
S'CONJ'
p5
F0.147666
sS'ADP'
p6
F0.852334
s(lp7
(S'by'
p8
I0
tp9
atp10
a(S'conclure'
p11
(dp12
S'VERB'
p13
F1.0
s(lp14
(S'conclusion'
p15
I3
tp16
atp17
a(S','
p18
(dp19
S'.'
p20
F1.0
s(lp21
(g18
I4
tp22
atp23
a(S'je'
p24
(dp25
S'PRON'
p26
F1.0
s(lp27
(S'i'
p28
I5
tp29
atp30
a(S'voudrais'
p31
(dp32
S'VERB'
p33
F1.0
s(lp34
(S'like'
p35
I7
tp36
atp37
a(S'remercier'
p38
(dp39
S'VERB'
p40
F1.0
s(lp41
(S'thank'
p42
I9
tp43
atp44
a(S'le'
p45
(dp46
S'PRON'
p47
F3.4e-05
sS'DET'
p48
F0.999966
s(lp49
tp50
a(S'parlement'
p51
(dp52
S'NOUN'
p53
F1.0
s(lp54
(S'parliament'
p55
I10
tp56
atp57
a(S'pour'
p58
(dp59
S'CONJ'
p60
F0.162143
sS'ADP'
p61
F0.837857
s(lp62
(S'for'
p63
I11
tp64
atp65
a(S'le'
p66
(dp67
S'PRON'
p68
F0.000141
sS'DET'
p69
F0.999859
s(lp70
(S'the'
p71
I12
tp72
atp73
a(S'travail'
p74
(dp75
S'NOUN'
p76
F1.0
s(lp77
(S'work'
p78
I16
tp79
atp80
a(S'rigoureux'
p81
(dp82
S'ADJ'
p83
F1.0
s(lp84
(S'extensive'
p85
I13
tp86
atp87
a(S'et'
p88
(dp89
S'CONJ'
p90
F1.0
s(lp91
(S'and'
p92
I14
tp93
atp94
a(S'minutieux'
p95
(dp96
S'ADJ'
p97
F1.0
s(lp98
(S'detailed'
p99
I15
tp100
atp101
a(S"qu'"
p102
(dp103
S'ADJ'
p104
F0.112319
sS'VERB'
p105
F0.207239
sS'NOUN'
p106
F0.680441
s(lp107
tp108
a(S'il'
p109
(dp110
S'PRON'
p111
F1.0
s(lp112
(S'which'
p113
I17
tp114
atp115
a(S'a'
p116
(dp117
S'VERB'
p118
F1.0
s(lp119
(S'has'
p120
I18
tp121
atp122
a(S'accompli'
p123
(dp124
S'NOUN'
p125
F0.006607
sS'VERB'
p126
F0.98038
sS'ADJ'
p127
F0.013013
s(lp128
tp129
a(S'en'
p130
(dp131
S'PRON'
p132
F0.072035
sS'ADP'
p133
F0.927965
s(lp134
(S'into'
p135
I20
tp136
atp137
a(S'\xc3\xa9laborant'
p138
(dp139
S'VERB'
p140
F1.0
s(lp141
(S'gone'
p142
I19
tp143
atp144
a(S'les'
p145
(dp146
S'PRON'
p147
F0.0
sS'DET'
p148
F0.999773
sS'ADP'
p149
F0.000227
s(lp150
(S'the'
p151
I21
tp152
atp153
a(S'trois'
p154
(dp155
S'NUM'
p156
F0.999795
sS'NOUN'
p157
F0.000205
s(lp158
(S'three'
p159
I22
tp160
atp161
a(S'rapports'
p162
(dp163
S'NOUN'
p164
F1.0
s(lp165
(S'reports'
p166
I23
tp167
atp168
a(S'que'
p169
(dp170
S'ADV'
p171
F0.000965
sS'PRON'
p172
F0.44677300000000003
sS'CONJ'
p173
F0.552262
s(lp174
tp175
a(S'nous'
p176
(dp177
S'PRON'
p178
F1.0
s(lp179
(S'us'
p180
I25
tp181
atp182
a(S'examinons'
p183
(dp184
S'VERB'
p185
F1.0
s(lp186
(S'before'
p187
I24
tp188
atp189
a(S'cette'
p190
(dp191
S'PRON'
p192
F1.0
s(lp193
(S'this'
p194
I26
tp195
atp196
a(S'apr\xc3\xa8s-midi'
p197
(dp198
S'NOUN'
p199
F1.0
s(lp200
(S'afternoon'
p201
I27
tp202
atp203
a(g20
(dp204
g20
F1.0
s(lp205
(g20
I28
tp206
atp207
asS'en'
p208
(lp209
(g8
(dp210
S'ADV'
p211
F0.000347
sS'NOUN'
p212
F2e-06
sS'ADP'
p213
F0.999652
s(lp214
(g8
I0
tp215
atp216
a(S'way'
p217
(dp218
S'ADV'
p219
F0.005962
sS'NOUN'
p220
F0.994038
s(lp221
(g217
I1
tp222
atp223
a(S'of'
p224
(dp225
S'ADP'
p226
F1.0
s(lp227
(g224
I2
tp228
atp229
a(g15
(dp230
S'NOUN'
p231
F1.0
s(lp232
(g15
I3
tp233
atp234
a(g18
(dp235
g20
F1.0
s(lp236
(g18
I4
tp237
atp238
a(g28
(dp239
S'X'
p240
F0.177708
sS'NOUN'
p241
F0.822292
s(lp242
(g28
I5
tp243
atp244
a(S'would'
p245
(dp246
S'VERB'
p247
F1.0
s(lp248
(g245
I6
tp249
atp250
a(g35
(dp251
S'VERB'
p252
F0.9997360000000001
sS'ADJ'
p253
F3.1e-05
sS'ADP'
p254
F0.000233
s(lp255
(g35
I7
tp256
atp257
a(S'to'
p258
(dp259
S'ADV'
p260
F0.0
sS'PRT'
p261
F1.0
sS'ADP'
p262
F0.0
s(lp263
(g258
I8
tp264
atp265
a(g42
(dp266
S'VERB'
p267
F1.0
s(lp268
(g42
I9
tp269
atp270
a(g55
(dp271
S'NOUN'
p272
F1.0
s(lp273
(g55
I10
tp274
atp275
a(g63
(dp276
S'ADP'
p277
F1.0
s(lp278
(g63
I11
tp279
atp280
a(g71
(dp281
S'NOUN'
p282
F1e-06
sS'DET'
p283
F0.999999
s(lp284
(g71
I12
tp285
atp286
a(g85
(dp287
S'ADJ'
p288
F1.0
s(lp289
(g85
I13
tp290
atp291
a(g92
(dp292
S'CONJ'
p293
F0.999998
sS'NOUN'
p294
F2e-06
s(lp295
(g92
I14
tp296
atp297
a(g99
(dp298
S'VERB'
p299
F0.018682
sS'ADJ'
p300
F0.981318
s(lp301
(g99
I15
tp302
atp303
a(g78
(dp304
S'VERB'
p305
F0.000322
sS'NOUN'
p306
F0.999679
s(lp307
(g78
I16
tp308
atp309
a(g113
(dp310
S'DET'
p311
F1.0
s(lp312
(g113
I17
tp313
atp314
a(g120
(dp315
S'VERB'
p316
F1.0
s(lp317
(g120
I18
tp318
atp319
a(g142
(dp320
S'VERB'
p321
F0.999986
sS'ADJ'
p322
F1.4e-05
s(lp323
(g142
I19
tp324
atp325
a(g135
(dp326
S'ADP'
p327
F1.0
s(lp328
(g135
I20
tp329
atp330
a(g151
(dp331
S'NOUN'
p332
F4.4e-05
sS'DET'
p333
F0.999956
s(lp334
(g151
I21
tp335
atp336
a(g159
(dp337
S'NUM'
p338
F0.999401
sS'NOUN'
p339
F0.000599
s(lp340
(g159
I22
tp341
atp342
a(g166
(dp343
S'VERB'
p344
F0.005813
sS'NOUN'
p345
F0.994187
s(lp346
(g166
I23
tp347
atp348
a(g187
(dp349
S'ADV'
p350
F0.018459
sS'ADP'
p351
F0.981541
s(lp352
(g187
I24
tp353
atp354
a(g180
(dp355
S'PRON'
p356
F1.0
s(lp357
(g180
I25
tp358
atp359
a(g194
(dp360
S'ADV'
p361
F0.000494
sS'NOUN'
p362
F1e-06
sS'DET'
p363
F0.999505
s(lp364
(g194
I26
tp365
atp366
a(g201
(dp367
S'NOUN'
p368
F1.0
s(lp369
(g201
I27
tp370
atp371
a(g20
(dp372
g20
F1.0
s(lp373
(g20
I28
tp374
atp375
asS'nl'
p376
(lp377
(S'ter'
p378
(dp379
S'ADV'
p380
F5.7e-05
sS'ADP'
p381
F0.999943
s(lp382
tp383
a(S'afsluiting'
p384
(dp385
S'NOUN'
p386
F1.0
s(lp387
(g15
I3
tp388
atp389
a(S'wil'
p390
(dp391
S'VERB'
p392
F0.999824
sS'NOUN'
p393
F0.000176
s(lp394
(g35
I7
tp395
atp396
a(S'ik'
p397
(dp398
S'PRON'
p399
F1.0
sS'NOUN'
p400
F0.0
s(lp401
(g28
I5
tp402
atp403
a(S'het'
p404
(dp405
S'PRON'
p406
F0.008709
sS'DET'
p407
F0.991291
s(lp408
tp409
a(S'parlement'
p410
(dp411
S'NOUN'
p412
F1.0
s(lp413
(g55
I10
tp414
atp415
a(S'bedanken'
p416
(dp417
S'VERB'
p418
F0.995685
sS'NOUN'
p419
F0.004315
s(lp420
(g42
I9
tp421
atp422
a(S'voor'
p423
(dp424
S'ADV'
p425
F0.00497
sS'CONJ'
p426
F2.9e-05
sS'NOUN'
p427
F0.0
sS'ADP'
p428
F0.995001
s(lp429
(g63
I11
tp430
atp431
a(S'zijn'
p432
(dp433
S'PRON'
p434
F0.994335
sS'VERB'
p435
F0.005555999999999999
sS'NOUN'
p436
F0.000109
s(lp437
tp438
a(S'uitgebreide'
p439
(dp440
S'NOUN'
p441
F0.037002
sS'VERB'
p442
F0.012464
sS'ADJ'
p443
F0.950534
s(lp444
(g85
I13
tp445
atp446
a(S'en'
p447
(dp448
S'CONJ'
p449
F1.0
s(lp450
(g92
I14
tp451
atp452
a(S'gedetailleerde'
p453
(dp454
S'NOUN'
p455
F0.002975
sS'ADJ'
p456
F0.997025
s(lp457
(g99
I15
tp458
atp459
a(S'werk'
p460
(dp461
S'VERB'
p462
F0.009581
sS'NOUN'
p463
F0.990419
s(lp464
(g78
I16
tp465
atp466
a(S'aan'
p467
(dp468
S'ADV'
p469
F0.008231
sS'ADP'
p470
F0.991769
s(lp471
(g135
I20
tp472
atp473
a(S'de'
p474
(dp475
S'DET'
p476
F1.0
s(lp477
(g151
I21
tp478
atp479
a(S'drie'
p480
(dp481
S'NUM'
p482
F1.0
s(lp483
(g159
I22
tp484
atp485
a(S'verslagen'
p486
(dp487
S'ADJ'
p488
F0.0
sS'VERB'
p489
F0.000347
sS'NOUN'
p490
F0.999652
s(lp491
(g166
I23
tp492
atp493
a(S'die'
p494
(dp495
S'PRON'
p496
F1.0
s(lp497
(g187
I24
tp498
atp499
a(S'we'
p500
(dp501
S'PRON'
p502
F1.0
s(lp503
(g180
I25
tp504
atp505
a(S'hier'
p506
(dp507
S'ADV'
p508
F1.0
s(lp509
(g194
I26
tp510
atp511
a(S'vanmiddag'
p512
(dp513
S'ADV'
p514
F1.0
s(lp515
tp516
a(S'behandelen'
p517
(dp518
S'VERB'
p519
F0.9994190000000001
sS'NOUN'
p520
F0.000581
s(lp521
(g201
I27
tp522
atp523
a(g20
(dp524
g20
F1.0
s(lp525
(g20
I28
tp526
atp527
asS'de'
p528
(lp529
(S'abschlie\xc3\x9fend'
p530
(dp531
S'ADJ'
p532
F1.0
s(lp533
(g15
I3
tp534
atp535
a(S'm\xc3\xb6chte'
p536
(dp537
S'VERB'
p538
F1.0
s(lp539
(g35
I7
tp540
atp541
a(S'ich'
p542
(dp543
S'PRON'
p544
F1.0
s(lp545
(g28
I5
tp546
atp547
a(S'dem'
p548
(dp549
S'PRON'
p550
F0.002063
sS'DET'
p551
F0.996661
s(lp552
tp553
a(S'parlament'
p554
(dp555
S'ADJ'
p556
F0.020669
sS'NOUN'
p557
F0.960286
s(lp558
(g55
I10
tp559
atp560
a(S'f\xc3\xbcr'
p561
(dp562
S'ADP'
p563
F1.0
s(lp564
(g63
I11
tp565
atp566
a(S'die'
p567
(dp568
S'PRON'
p569
F0.000218
sS'DET'
p570
F0.999767
s(lp571
(g71
I12
tp572
atp573
a(S'umfassende'
p574
(dp575
S'ADJ'
p576
F1.0
s(lp577
(g85
I13
tp578
atp579
a(S'und'
p580
(dp581
S'CONJ'
p582
F1.0
s(lp583
(g92
I14
tp584
atp585
a(S'detaillierte'
p586
(dp587
S'VERB'
p588
F0.202001
sS'ADJ'
p589
F0.797999
s(lp590
(g99
I15
tp591
atp592
a(S'arbeit'
p593
(dp594
S'ADJ'
p595
F0.153736
sS'NOUN'
p596
F0.843489
s(lp597
(g78
I16
tp598
atp599
a(S'danken'
p600
(dp601
S'VERB'
p602
F1.0
s(lp603
(g42
I9
tp604
atp605
a(g18
(dp606
g20
F1.0
s(lp607
(g258
I8
tp608
atp609
a(S'die'
p610
(dp611
S'PRON'
p612
F0.969205
sS'DET'
p613
F0.026136
s(lp614
(g113
I17
tp615
atp616
a(S'in'
p617
(dp618
S'ADP'
p619
F1.0
s(lp620
(g135
I20
tp621
atp622
a(S'die'
p623
(dp624
S'PRON'
p625
F0.001004
sS'DET'
p626
F0.99867
s(lp627
(g151
I21
tp628
atp629
a(S'drei'
p630
(dp631
S'NUM'
p632
F1.0
s(lp633
(g159
I22
tp634
atp635
a(S'berichte'
p636
(dp637
S'VERB'
p638
F1.0
s(lp639
(g166
I23
tp640
atp641
a(S'geflossen'
p642
(dp643
S'VERB'
p644
F1.0
s(lp645
(g142
I19
tp646
atp647
a(S'ist'
p648
(dp649
S'VERB'
p650
F1.0
s(lp651
(g120
I18
tp652
atp653
a(g18
(dp654
g20
F1.0
s(lp655
tp656
a(S'die'
p657
(dp658
S'PRON'
p659
F0.995589
sS'DET'
p660
F0.002647
s(lp661
(g194
I26
tp662
atp663
a(S'uns'
p664
(dp665
S'PRON'
p666
F1.0
s(lp667
(g180
I25
tp668
atp669
a(S'heute'
p670
(dp671
S'ADV'
p672
F0.999869
sS'VERB'
p673
F0.000131
s(lp674
tp675
a(S'nachmittag'
p676
(dp677
S'ADV'
p678
F1.0
s(lp679
(g201
I27
tp680
atp681
a(S'vorliegen'
p682
(dp683
S'VERB'
p684
F1.0
s(lp685
(g187
I24
tp686
atp687
a(g20
(dp688
g20
F1.0
s(lp689
(g20
I28
tp690
atp691
asS'it'
p692
(lp693
(S'per'
p694
(dp695
S'CONJ'
p696
F0.00889
sS'ADP'
p697
F0.99111
s(lp698
(g8
I0
tp699
atp700
a(S'concludere'
p701
(dp702
S'VERB'
p703
F1.0
s(lp704
(g15
I3
tp705
atp706
a(g18
(dp707
g20
F1.0
s(lp708
(g18
I4
tp709
atp710
a(S'ringrazio'
p711
(dp712
S'VERB'
p713
F1.0
s(lp714
(g42
I9
tp715
atp716
a(S'il'
p717
(dp718
S'DET'
p719
F1.0
s(lp720
tp721
a(S'parlamento'
p722
(dp723
S'VERB'
p724
F0.000284
sS'NOUN'
p725
F0.999716
s(lp726
(g55
I10
tp727
atp728
a(S'per'
p729
(dp730
S'CONJ'
p731
F0.056921
sS'ADP'
p732
F0.943079
s(lp733
(g63
I11
tp734
atp735
a(S"l'"
p736
(dp737
S'NOUN'
p738
F0.009778
sS'VERB'
p739
F0.9663980000000001
sS'ADJ'
p740
F0.023823
s(lp741
(g71
I12
tp742
atp743
a(S'esauriente'
p744
(dp745
S'VERB'
p746
F0.108416
sS'ADJ'
p747
F0.891584
s(lp748
(g85
I13
tp749
atp750
a(S'lavoro'
p751
(dp752
S'VERB'
p753
F0.011081
sS'NOUN'
p754
F0.988919
s(lp755
(g78
I16
tp756
atp757
a(S'dedicato'
p758
(dp759
S'VERB'
p760
F1.0
s(lp761
(g142
I19
tp762
atp763
a(S'alla'
p764
(dp765
S'ADP'
p766
F1.0
s(lp767
(g151
I21
tp768
atp769
a(S'stesura'
p770
(dp771
S'NOUN'
p772
F1.0
s(lp773
(g99
I15
tp774
atp775
a(S'delle'
p776
(dp777
S'DEF'
p778
F0.002298
sS'ADP'
p779
F0.997702
s(lp780
(g224
I2
tp781
atp782
a(S'tre'
p783
(dp784
S'NOUN'
p785
F0.001979
sS'NUM'
p786
F0.001536
sS'ADJ'
p787
F0.996485
s(lp788
(g159
I22
tp789
atp790
a(S'relazioni'
p791
(dp792
S'VERB'
p793
F0.002049
sS'NOUN'
p794
F0.997951
s(lp795
(g166
I23
tp796
atp797
a(g20
(dp798
g20
F1.0
s(lp799
(g20
I28
tp800
atp801
asS'sk'
p802
(lp803
(S'na'
p804
(dp805
g240
F0.000193
sS'CONJ'
p806
F1.5e-05
sS'ADP'
p807
F0.999793
sS'PRT'
p808
F0.0
s(lp809
(g224
I2
tp810
atp811
a(S'z\xc3\xa1ver'
p812
(dp813
S'NOUN'
p814
F1.0
s(lp815
(g15
I3
tp816
atp817
a(S'by'
p818
(dp819
S'PRT'
p820
F0.99999
sg240
F9.999999999999999e-06
s(lp821
(g245
I6
tp822
atp823
a(S'som'
p824
(dp825
S'VERB'
p826
F1.0
s(lp827
tp828
a(S'sa'
p829
(dp830
S'PRT'
p831
F0.999993
sS'ADP'
p832
F0.0
sg240
F6e-06
s(lp833
(g258
I8
tp834
atp835
a(S'chcel'
p836
(dp837
S'VERB'
p838
F1.0
s(lp839
(g35
I7
tp840
atp841
a(S'po\xc4\x8fakova\xc5\xa5'
p842
(dp843
S'VERB'
p844
F1.0
s(lp845
(g42
I9
tp846
atp847
a(S'parlamentu'
p848
(dp849
S'NOUN'
p850
F1.0
s(lp851
(g55
I10
tp852
atp853
a(S'za'
p854
(dp855
g240
F0.000187
sS'ADP'
p856
F0.999785
sS'PRT'
p857
F2.8e-05
s(lp858
(g63
I11
tp859
atp860
a(S'rozsiahlu'
p861
(dp862
S'ADJ'
p863
F1.0
s(lp864
(g85
I13
tp865
atp866
a(g116
(dp867
g240
F0.000636
sS'CONJ'
p868
F0.997733
sS'NOUN'
p869
F0.001516
sS'ADP'
p870
F0.000109
sS'PRT'
p871
F5e-06
s(lp872
(g92
I14
tp873
atp874
a(S'podrobn\xc3\xba'
p875
(dp876
S'ADJ'
p877
F1.0
s(lp878
(g99
I15
tp879
atp880
a(S'pr\xc3\xa1cu'
p881
(dp882
S'NOUN'
p883
F1.0
s(lp884
(g78
I16
tp885
atp886
a(g18
(dp887
g20
F1.0
s(lp888
tp889
a(S'ktor\xc3\xba'
p890
(dp891
S'PRON'
p892
F1.0
s(lp893
(g113
I17
tp894
atp895
a(S'vykonal'
p896
(dp897
S'VERB'
p898
F1.0
s(lp899
(g142
I19
tp900
atp901
a(S'na'
p902
(dp903
g240
F1.1000000000000001e-05
sS'CONJ'
p904
F1.8e-05
sS'ADP'
p905
F0.999968
sS'PRT'
p906
F3e-06
s(lp907
(g135
I20
tp908
atp909
a(S't\xc3\xbdchto'
p910
(dp911
S'PRON'
p912
F1.0
s(lp913
(g151
I21
tp914
atp915
a(S'troch'
p916
(dp917
S'NUM'
p918
F1.0
s(lp919
(g159
I22
tp920
atp921
a(S'spr\xc3\xa1vach'
p922
(dp923
S'NOUN'
p924
F1.0
s(lp925
(g166
I23
tp926
atp927
a(g18
(dp928
g20
F1.0
s(lp929
tp930
a(S'o'
p931
(dp932
g240
F0.00020999999999999998
sS'CONJ'
p933
F0.00254
sS'NOUN'
p934
F1.3000000000000001e-05
sS'ADP'
p935
F0.997237
s(lp936
tp937
a(S'ktor\xc3\xbdch'
p938
(dp939
S'PRON'
p940
F1.0
s(lp941
(g151
I21
tp942
atp943
a(S'sme'
p944
(dp945
g240
F4e-06
sS'VERB'
p946
F0.999996
s(lp947
(g180
I25
tp948
atp949
a(S'diskutovali'
p950
(dp951
S'VERB'
p952
F1.0
s(lp953
tp954
a(S'poobede'
p955
(dp956
S'ADV'
p957
F1.0
s(lp958
(g201
I27
tp959
atp960
a(g20
(dp961
g20
F1.0
s(lp962
(g20
I28
tp963
atp964
asS'pl'
p965
(lp966
(S'tytu\xc5\x82em'
p967
(dp968
S'NOUN'
p969
F1.0
s(lp970
(g217
I1
tp971
atp972
a(S'podsumowania'
p973
(dp974
S'VERB'
p975
F0.652094
sS'NOUN'
p976
F0.347906
s(lp977
(g15
I3
tp978
atp979
a(S'pragn\xc4\x99'
p980
(dp981
S'VERB'
p982
F1.0
s(lp983
(g245
I6
tp984
atp985
a(S'podzi\xc4\x99kowa\xc4\x87'
p986
(dp987
S'VERB'
p988
F1.0
s(lp989
(g42
I9
tp990
atp991
a(S'parlamentowi'
p992
(dp993
S'NOUN'
p994
F1.0
s(lp995
(g55
I10
tp996
atp997
a(S'za'
p998
(dp999
S'PRT'
p1000
F0.035467
sS'VERB'
p1001
F0.000106
sS'NOUN'
p1002
F4.1e-05
sS'ADP'
p1003
F0.964384
sg240
F2e-06
s(lp1004
(g63
I11
tp1005
atp1006
a(S'szeroko'
p1007
(dp1008
S'ADV'
p1009
F1.0
s(lp1010
tp1011
a(S'zakrojon\xc4\x85'
p1012
(dp1013
S'ADV'
p1014
F0.004245
sS'NOUN'
p1015
F0.155564
sS'VERB'
p1016
F0.13952199999999998
sS'ADJ'
p1017
F0.700669
s(lp1018
(g85
I13
tp1019
atp1020
a(g28
(dp1021
S'PRT'
p1022
F0.007167
sS'CONJ'
p1023
F0.852025
sS'PRON'
p1024
F4.8e-05
sS'NOUN'
p1025
F0.14067
sg240
F9.1e-05
s(lp1026
(g92
I14
tp1027
atp1028
a(S'dok\xc5\x82adn\xc4\x85'
p1029
(dp1030
S'ADJ'
p1031
F1.0
s(lp1032
(g99
I15
tp1033
atp1034
a(S'prac\xc4\x99'
p1035
(dp1036
S'NOUN'
p1037
F1.0
s(lp1038
(g78
I16
tp1039
atp1040
a(S'w\xc5\x82o\xc5\xbcon\xc4\x85'
p1041
(dp1042
S'ADV'
p1043
F0.000169
sS'NOUN'
p1044
F0.012346999999999999
sS'VERB'
p1045
F0.7887989999999998
sS'ADJ'
p1046
F0.198683
s(lp1047
(g142
I19
tp1048
atp1049
a(S'w'
p1050
(dp1051
S'ADJ'
p1052
F0.0
sg240
F2.2e-05
sS'NOUN'
p1053
F4e-06
sS'ADP'
p1054
F0.999975
s(lp1055
(g135
I20
tp1056
atp1057
a(S'trzy'
p1058
(dp1059
S'NUM'
p1060
F0.9669800000000001
sS'NOUN'
p1061
F0.03302
s(lp1062
(g159
I22
tp1063
atp1064
a(S'sprawozdania'
p1065
(dp1066
S'NOUN'
p1067
F1.000001
s(lp1068
(g166
I23
tp1069
atp1070
a(S'przed\xc5\x82o\xc5\xbcone'
p1071
(dp1072
S'VERB'
p1073
F1.0
s(lp1074
(g187
I24
tp1075
atp1076
a(S'dzisiejszego'
p1077
(dp1078
S'ADJ'
p1079
F1.0
s(lp1080
tp1081
a(S'popo\xc5\x82udnia'
p1082
(dp1083
S'NOUN'
p1084
F1.0
s(lp1085
(g201
I27
tp1086
atp1087
a(g20
(dp1088
g20
F1.0
s(lp1089
(g20
I28
tp1090
atp1091
asS'sl'
p1092
(lp1093
(S'naj'
p1094
(dp1095
S'PRT'
p1096
F0.893498
sS'CONJ'
p1097
F0.106032
sS'ADJ'
p1098
F0.000469
s(lp1099
tp1100
a(S'zaklju\xc4\x8dim'
p1101
(dp1102
S'ADV'
p1103
F0.00983
sS'ADJ'
p1104
F0.052542
sS'VERB'
p1105
F0.8185540000000001
sS'NOUN'
p1106
F0.119074
s(lp1107
(g15
I3
tp1108
atp1109
a(S'z'
p1110
(dp1111
S'ADP'
p1112
F1.0
s(lp1113
(g258
I8
tp1114
atp1115
a(S'zahvalo'
p1116
(dp1117
S'NOUN'
p1118
F1.0
s(lp1119
(g42
I9
tp1120
atp1121
a(S'parlamentu'
p1122
(dp1123
S'NOUN'
p1124
F1.0
s(lp1125
(g55
I10
tp1126
atp1127
a(S'za'
p1128
(dp1129
S'ADV'
p1130
F3.9e-05
sg240
F1e-06
sS'ADP'
p1131
F0.99996
s(lp1132
(g63
I11
tp1133
atp1134
a(S'obse\xc5\xbeno'
p1135
(dp1136
S'ADJ'
p1137
F1.0
s(lp1138
(g85
I13
tp1139
atp1140
a(S'in'
p1141
(dp1142
S'ADV'
p1143
F2.6e-05
sg240
F2e-06
sS'CONJ'
p1144
F0.999966
sS'NOUN'
p1145
F7e-06
s(lp1146
(g92
I14
tp1147
atp1148
a(S'natan\xc4\x8dno'
p1149
(dp1150
S'ADV'
p1151
F0.10032
sS'ADJ'
p1152
F0.899681
s(lp1153
(g99
I15
tp1154
atp1155
a(S'delo'
p1156
(dp1157
S'NOUN'
p1158
F1.0
s(lp1159
(g78
I16
tp1160
atp1161
a(g18
(dp1162
g20
F1.0
s(lp1163
tp1164
a(S'ki'
p1165
(dp1166
S'CONJ'
p1167
F1.0
s(lp1168
(g113
I17
tp1169
atp1170
a(S'je'
p1171
(dp1172
S'PRON'
p1173
F0.00014
sS'VERB'
p1174
F0.9998600000000001
sg240
F0.0
s(lp1175
(g120
I18
tp1176
atp1177
a(S'bilo'
p1178
(dp1179
S'VERB'
p1180
F1.0
s(lp1181
tp1182
a(S'danes'
p1183
(dp1184
S'ADV'
p1185
F1.0
s(lp1186
tp1187
a(S'popoldne'
p1188
(dp1189
S'ADV'
p1190
F0.986796
sS'NOUN'
p1191
F0.013204
s(lp1192
(g201
I27
tp1193
atp1194
a(S'pred'
p1195
(dp1196
S'ADP'
p1197
F1.0
s(lp1198
(g187
I24
tp1199
atp1200
a(S'nami'
p1201
(dp1202
S'PRON'
p1203
F1.0
s(lp1204
(g180
I25
tp1205
atp1206
a(S'vlo\xc5\xbeeno'
p1207
(dp1208
S'ADJ'
p1209
F1.0
s(lp1210
(g142
I19
tp1211
atp1212
a(S'v'
p1213
(dp1214
S'ADP'
p1215
F1.0
s(lp1216
(g135
I20
tp1217
atp1218
a(S'ta'
p1219
(dp1220
S'PRON'
p1221
F1.0
s(lp1222
(g194
I26
tp1223
atp1224
a(S'tri'
p1225
(dp1226
S'NUM'
p1227
F1.0
s(lp1228
(g159
I22
tp1229
atp1230
a(S'poro\xc4\x8dila'
p1231
(dp1232
S'VERB'
p1233
F0.000347
sS'NOUN'
p1234
F0.999653
s(lp1235
(g166
I23
tp1236
atp1237
a(g20
(dp1238
g20
F1.0
s(lp1239
(g20
I28
tp1240
atp1241
asS'es'
p1242
(lp1243
(S'para'
p1244
(dp1245
S'CONJ'
p1246
F0.990112
sS'ADP'
p1247
F0.009888
s(lp1248
(g8
I0
tp1249
atp1250
a(S'concluir'
p1251
(dp1252
S'VERB'
p1253
F1.0
s(lp1254
(g15
I3
tp1255
atp1256
a(g18
(dp1257
g20
F1.0
s(lp1258
(g18
I4
tp1259
atp1260
a(S'me'
p1261
(dp1262
S'PRON'
p1263
F0.999998
sS'NOUN'
p1264
F2e-06
s(lp1265
(g28
I5
tp1266
atp1267
a(S'gustar\xc3\xada'
p1268
(dp1269
S'VERB'
p1270
F1.0
s(lp1271
(g35
I7
tp1272
atp1273
a(S'expresar'
p1274
(dp1275
S'VERB'
p1276
F1.0
s(lp1277
(g42
I9
tp1278
atp1279
a(S'mi'
p1280
(dp1281
S'PRON'
p1282
F1.0
s(lp1283
(g42
I9
tp1284
atp1285
a(S'agradecimiento'
p1286
(dp1287
S'NOUN'
p1288
F1.0
s(lp1289
tp1290
a(S'al'
p1291
(dp1292
S'CONJ'
p1293
F0.000865
sS'ADP'
p1294
F0.999135
s(lp1295
(g42
I9
tp1296
atp1297
a(S'parlamento'
p1298
(dp1299
S'VERB'
p1300
F1.6e-05
sS'NOUN'
p1301
F0.999984
s(lp1302
(g55
I10
tp1303
atp1304
a(S'por'
p1305
(dp1306
S'ADP'
p1307
F1.0
s(lp1308
(g63
I11
tp1309
atp1310
a(S'el'
p1311
(dp1312
S'PRON'
p1313
F5e-06
sS'DET'
p1314
F0.999995
s(lp1315
(g71
I12
tp1316
atp1317
a(S'trabajo'
p1318
(dp1319
S'NOUN'
p1320
F1.0
s(lp1321
(g78
I16
tp1322
atp1323
a(S'amplio'
p1324
(dp1325
S'ADJ'
p1326
F1.0
s(lp1327
(g85
I13
tp1328
atp1329
a(S'y'
p1330
(dp1331
g240
F0.006891
sS'CONJ'
p1332
F0.993109
s(lp1333
(g92
I14
tp1334
atp1335
a(S'detallado'
p1336
(dp1337
S'VERB'
p1338
F1.0
s(lp1339
(g99
I15
tp1340
atp1341
a(S'que'
p1342
(dp1343
g240
F0.0
sS'CONJ'
p1344
F1.0
s(lp1345
(g113
I17
tp1346
atp1347
a(S'hemos'
p1348
(dp1349
S'VERB'
p1350
F1.0
s(lp1351
(g120
I18
tp1352
atp1353
a(S'podido'
p1354
(dp1355
S'VERB'
p1356
F1.0
s(lp1357
tp1358
a(S'observar'
p1359
(dp1360
S'VERB'
p1361
F1.0
s(lp1362
(g142
I19
tp1363
atp1364
a(S'esta'
p1365
(dp1366
S'PRON'
p1367
F0.999999
sS'VERB'
p1368
F1e-06
s(lp1369
(g194
I26
tp1370
atp1371
a(S'tarde'
p1372
(dp1373
S'ADV'
p1374
F0.017293
sS'NOUN'
p1375
F0.982707
s(lp1376
(g201
I27
tp1377
atp1378
a(S'en'
p1379
(dp1380
g240
F0.0
sS'CONJ'
p1381
F0.0
sS'ADP'
p1382
F1.0
s(lp1383
(g135
I20
tp1384
atp1385
a(S'los'
p1386
(dp1387
S'PRON'
p1388
F0.0
sS'DET'
p1389
F1.0
s(lp1390
(g151
I21
tp1391
atp1392
a(S'tres'
p1393
(dp1394
S'NUM'
p1395
F1.0
s(lp1396
(g159
I22
tp1397
atp1398
a(S'informes'
p1399
(dp1400
S'ADJ'
p1401
F0.000305
sS'NOUN'
p1402
F0.999695
s(lp1403
(g166
I23
tp1404
atp1405
a(S'presentados'
p1406
(dp1407
S'VERB'
p1408
F1.0
s(lp1409
(g187
I24
tp1410
atp1411
a(g20
(dp1412
g20
F1.0
s(lp1413
(g20
I28
tp1414
atp1415
as.