(dp0
S'fr'
p1
(lp2
(S'pour'
p3
(dp4
S'CONJ'
p5
F0.147267
sS'ADP'
p6
F0.852733
s(lp7
(S'to'
p8
I0
tp9
atp10
a(S'\xc3\xaatre'
p11
(dp12
S'VERB'
p13
F0.996493
sS'NOUN'
p14
F0.003507
s(lp15
(S'be'
p16
I1
tp17
atp18
a(S'plus'
p19
(dp20
S'ADV'
p21
F0.99992
sS'VERB'
p22
F7.9e-05
s(lp23
tp24
a(S'pr\xc3\xa9cis'
p25
(dp26
S'NOUN'
p27
F0.027433
sS'ADJ'
p28
F0.972567
s(lp29
(S'precise'
p30
I2
tp31
atp32
a(S','
p33
(dp34
S'.'
p35
F1.0
s(lp36
(g33
I3
tp37
atp38
a(S'je'
p39
(dp40
S'PRON'
p41
F1.0
s(lp42
(S'i'
p43
I4
tp44
atp45
a(S'connais'
p46
(dp47
S'VERB'
p48
F1.0
s(lp49
(S'know'
p50
I5
tp51
atp52
a(S'mon'
p53
(dp54
S'PRON'
p55
F1.0
s(lp56
(S'my'
p57
I6
tp58
atp59
a(S'devoir'
p60
(dp61
S'VERB'
p62
F1.6e-05
sS'NOUN'
p63
F0.999984
s(lp64
tp65
a(S'au'
p66
(dp67
S'ADP'
p68
F1.0
s(lp69
tp70
a(S'regard'
p71
(dp72
S'NOUN'
p73
F1.0
s(lp74
(S'duty'
p75
I8
tp76
atp77
a(S'du'
p78
(dp79
S'ADP'
p80
F1.0
s(lp81
tp82
a(S'trait\xc3\xa9'
p83
(dp84
S'VERB'
p85
F0.006116
sS'NOUN'
p86
F0.993884
s(lp87
(S'treaty'
p88
I7
tp89
atp90
a(S'et'
p91
(dp92
S'CONJ'
p93
F1.0
s(lp94
(S'and'
p95
I10
tp96
atp97
a(S'je'
p98
(dp99
S'PRON'
p100
F1.0
s(lp101
(g43
I11
tp102
atp103
a(S'compte'
p104
(dp105
S'VERB'
p106
F0.99934
sS'NOUN'
p107
F0.00066
s(lp108
(S'intend'
p109
I12
tp110
atp111
a(S'bien'
p112
(dp113
S'ADV'
p114
F0.991336
sS'NOUN'
p115
F0.001218
sS'ADJ'
p116
F0.007446
s(lp117
(S'to'
p118
I13
tp119
atp120
a(S"l'"
p121
(dp122
S'NOUN'
p123
F0.041329
sS'VERB'
p124
F0.7536479999999998
sS'ADJ'
p125
F0.205023
s(lp126
(S'it'
p127
I15
tp128
atp129
a(S'accomplir'
p130
(dp131
S'VERB'
p132
F1.0
s(lp133
(S'do'
p134
I14
tp135
atp136
a(S"jusqu'"
p137
(dp138
S'ADJ'
p139
F0.00225
sS'VERB'
p140
F0.011329
sS'NOUN'
p141
F0.986421
s(lp142
(S'to'
p143
I16
tp144
atp145
a(S'au'
p146
(dp147
S'ADP'
p148
F1.0
s(lp149
(S'the'
p150
I17
tp151
atp152
a(S'bout'
p153
(dp154
S'VERB'
p155
F0.0
sS'NOUN'
p156
F1.0
s(lp157
(S'full'
p158
I18
tp159
atp160
a(g35
(dp161
g35
F1.0
s(lp162
(g35
I19
tp163
atp164
asS'en'
p165
(lp166
(g8
(dp167
S'ADV'
p168
F0.0
sS'PRT'
p169
F1.0
sS'ADP'
p170
F0.0
s(lp171
(g8
I0
tp172
atp173
a(g16
(dp174
S'VERB'
p175
F1.0
s(lp176
(g16
I1
tp177
atp178
a(g30
(dp179
S'ADJ'
p180
F1.0
s(lp181
(g30
I2
tp182
atp183
a(g33
(dp184
g35
F1.0
s(lp185
(g33
I3
tp186
atp187
a(g43
(dp188
S'X'
p189
F0.023083
sS'NOUN'
p190
F0.9769169999999999
s(lp191
(g43
I4
tp192
atp193
a(g50
(dp194
S'VERB'
p195
F1.0
s(lp196
(g50
I5
tp197
atp198
a(g57
(dp199
S'PRON'
p200
F1.0
s(lp201
(g57
I6
tp202
atp203
a(g88
(dp204
S'NOUN'
p205
F1.0
s(lp206
(g88
I7
tp207
atp208
a(g75
(dp209
S'NOUN'
p210
F1.0
s(lp211
(g75
I8
tp212
atp213
a(g33
(dp214
g35
F1.0
s(lp215
(g33
I9
tp216
atp217
a(g95
(dp218
S'CONJ'
p219
F0.999919
sS'NOUN'
p220
F8.1e-05
s(lp221
(g95
I10
tp222
atp223
a(g43
(dp224
g189
F0.001026
sS'NOUN'
p225
F0.998973
s(lp226
(g43
I11
tp227
atp228
a(g109
(dp229
S'VERB'
p230
F1.0
s(lp231
(g109
I12
tp232
atp233
a(g118
(dp234
S'ADV'
p235
F0.0
sS'PRT'
p236
F1.0
sS'ADP'
p237
F0.0
s(lp238
(g118
I13
tp239
atp240
a(g134
(dp241
S'VERB'
p242
F1.0
sS'NOUN'
p243
F0.0
s(lp244
(g134
I14
tp245
atp246
a(g127
(dp247
S'PRON'
p248
F1.0
s(lp249
(g127
I15
tp250
atp251
a(g143
(dp252
S'ADV'
p253
F3.5e-05
sS'PRT'
p254
F0.999961
sS'ADP'
p255
F3e-06
s(lp256
(g143
I16
tp257
atp258
a(g150
(dp259
S'NOUN'
p260
F1e-06
sS'DET'
p261
F0.999999
s(lp262
(g150
I17
tp263
atp264
a(g158
(dp265
S'ADV'
p266
F0.000701
sS'NOUN'
p267
F0.007383
sS'VERB'
p268
F7e-06
sS'ADJ'
p269
F0.991909
s(lp270
(g158
I18
tp271
atp272
a(g35
(dp273
g35
F1.0
s(lp274
(g35
I19
tp275
atp276
asS'nl'
p277
(lp278
(S'om'
p279
(dp280
S'ADV'
p281
F0.014179
sS'CONJ'
p282
F0.886503
sS'ADP'
p283
F0.099319
s(lp284
tp285
a(S'precies'
p286
(dp287
S'ADJ'
p288
F1.0
s(lp289
(g30
I2
tp290
atp291
a(S'te'
p292
(dp293
S'PRT'
p294
F1.0
s(lp295
(g8
I0
tp296
atp297
a(S'zijn'
p298
(dp299
S'PRON'
p300
F0.000953
sS'VERB'
p301
F0.999047
sS'NOUN'
p302
F0.0
s(lp303
(g16
I1
tp304
atp305
a(S':'
p306
(dp307
g35
F1.0
s(lp308
(g33
I3
tp309
atp310
a(S'ik'
p311
(dp312
S'PRON'
p313
F0.999981
sS'NOUN'
p314
F1.9e-05
s(lp315
(g43
I4
tp316
atp317
a(S'ken'
p318
(dp319
S'VERB'
p320
F1.0
s(lp321
(g50
I5
tp322
atp323
a(S'mijn'
p324
(dp325
S'PRON'
p326
F0.999994
sS'NOUN'
p327
F6e-06
s(lp328
(g57
I6
tp329
atp330
a(S'plicht'
p331
(dp332
S'NOUN'
p333
F1.0
s(lp334
(g75
I8
tp335
atp336
a(S'op'
p337
(dp338
S'ADV'
p339
F0.001807
sS'ADJ'
p340
F2e-06
sS'ADP'
p341
F0.998191
s(lp342
(g143
I16
tp343
atp344
a(S'grond'
p345
(dp346
S'VERB'
p347
F2e-06
sS'NOUN'
p348
F0.999998
s(lp349
tp350
a(S'van'
p351
(dp352
S'ADP'
p353
F1.0
s(lp354
tp355
a(S'het'
p356
(dp357
S'PRON'
p358
F0.000927
sS'DET'
p359
F0.999073
s(lp360
(g150
I17
tp361
atp362
a(S'verdrag'
p363
(dp364
S'NOUN'
p365
F1.0
s(lp366
(g88
I7
tp367
atp368
a(S'en'
p369
(dp370
S'CONJ'
p371
F1.0
s(lp372
(g95
I10
tp373
atp374
a(S'ik'
p375
(dp376
S'PRON'
p377
F0.999972
sS'NOUN'
p378
F2.8e-05
s(lp379
(g43
I11
tp380
atp381
a(S'ben'
p382
(dp383
S'VERB'
p384
F1.0
s(lp385
(g109
I12
tp386
atp387
a(S'van'
p388
(dp389
S'ADP'
p390
F1.0
s(lp391
tp392
a(S'plan'
p393
(dp394
S'VERB'
p395
F0.000703
sS'NOUN'
p396
F0.999297
s(lp397
(g109
I12
tp398
atp399
a(S'deze'
p400
(dp401
S'PRON'
p402
F1.0
s(lp403
(g127
I15
tp404
atp405
a(S'volledig'
p406
(dp407
S'ADJ'
p408
F1.0
s(lp409
(g158
I18
tp410
atp411
a(S'te'
p412
(dp413
S'PRT'
p414
F1.0
s(lp415
(g118
I13
tp416
atp417
a(S'vervullen'
p418
(dp419
S'VERB'
p420
F0.999993
sS'NOUN'
p421
F8e-06
s(lp422
(g134
I14
tp423
atp424
a(g35
(dp425
g35
F1.0
s(lp426
(g35
I19
tp427
atp428
asS'de'
p429
(lp430
(S'genau'
p431
(dp432
S'PRT'
p433
F6e-06
sS'ADJ'
p434
F0.999994
s(lp435
(g30
I2
tp436
atp437
a(S'genommen'
p438
(dp439
S'VERB'
p440
F0.82492
sS'ADJ'
p441
F0.17508
s(lp442
(g33
I3
tp443
atp444
a(S'kenne'
p445
(dp446
S'VERB'
p447
F1.0
s(lp448
(g50
I5
tp449
atp450
a(S'ich'
p451
(dp452
S'PRON'
p453
F1.0
s(lp454
(g43
I4
tp455
atp456
a(S'meine'
p457
(dp458
S'PRON'
p459
F0.985601
sS'VERB'
p460
F0.014272
s(lp461
(g57
I6
tp462
atp463
a(S'verpflichtungen'
p464
(dp465
S'ADJ'
p466
F0.000175
sS'NOUN'
p467
F0.999738
s(lp468
(g75
I8
tp469
atp470
a(S'aus'
p471
(dp472
S'PRT'
p473
F0.006913
sS'ADP'
p474
F0.987451
s(lp475
tp476
a(S'dem'
p477
(dp478
S'PRON'
p479
F0.026898
sS'DET'
p480
F0.966936
s(lp481
tp482
a(S'vertrag'
p483
(dp484
S'VERB'
p485
F1.0
s(lp486
(g88
I7
tp487
atp488
a(S'und'
p489
(dp490
S'CONJ'
p491
F1.0
s(lp492
(g95
I10
tp493
atp494
a(S'ich'
p495
(dp496
S'PRON'
p497
F1.0
s(lp498
(g43
I11
tp499
atp500
a(S'habe'
p501
(dp502
S'VERB'
p503
F1.0
s(lp504
tp505
a(S'die'
p506
(dp507
S'PRON'
p508
F0.000714
sS'DET'
p509
F0.999285
s(lp510
(g150
I17
tp511
atp512
a(S'absicht'
p513
(dp514
S'ADJ'
p515
F0.001276
sS'NOUN'
p516
F0.998439
s(lp517
(g109
I12
tp518
atp519
a(g33
(dp520
g35
F1.0
s(lp521
tp522
a(S'sie'
p523
(dp524
S'PRON'
p525
F1.0
s(lp526
(g127
I15
tp527
atp528
a(S'in'
p529
(dp530
S'ADP'
p531
F1.0
s(lp532
(g143
I16
tp533
atp534
a(S'vollem'
p535
(dp536
S'ADJ'
p537
F1.0
s(lp538
tp539
a(S'umfang'
p540
(dp541
S'VERB'
p542
F1.0
s(lp543
(g158
I18
tp544
atp545
a(S'zu'
p546
(dp547
S'PRT'
p548
F0.999958
s(lp549
(g118
I13
tp550
atp551
a(S'erf\xc3\xbcllen'
p552
(dp553
S'VERB'
p554
F1.0
s(lp555
(g134
I14
tp556
atp557
a(g35
(dp558
g35
F1.0
s(lp559
(g35
I19
tp560
atp561
asS'it'
p562
(lp563
(S'per'
p564
(dp565
S'CONJ'
p566
F0.008883
sS'ADP'
p567
F0.991117
s(lp568
(g8
I0
tp569
atp570
a(S'essere'
p571
(dp572
S'VERB'
p573
F0.997868
sS'NOUN'
p574
F0.002132
s(lp575
(g16
I1
tp576
atp577
a(S'precisi'
p578
(dp579
S'VERB'
p580
F0.00024700000000000004
sS'ADJ'
p581
F0.999753
s(lp582
(g30
I2
tp583
atp584
a(g33
(dp585
g35
F1.0
s(lp586
(g33
I3
tp587
atp588
a(S'sono'
p589
(dp590
S'VERB'
p591
F0.995756
sS'NOUN'
p592
F0.004244
s(lp593
(g43
I4
tp594
atp595
a(S'consapevole'
p596
(dp597
S'ADJ'
p598
F1.0
s(lp599
(g50
I5
tp600
atp601
a(S'del'
p602
(dp603
S'DEF'
p604
F0.002138
sS'ADP'
p605
F0.997862
s(lp606
tp607
a(S'compito'
p608
(dp609
S'VERB'
p610
F0.00037
sS'NOUN'
p611
F0.99963
s(lp612
tp613
a(S'che'
p614
(dp615
S'PRON'
p616
F0.954811
sS'CONJ'
p617
F0.045151
sS'ADJ'
p618
F3.9e-05
s(lp619
tp620
a(S'mi'
p621
(dp622
S'PRON'
p623
F1.0
s(lp624
(g43
I11
tp625
atp626
a(S'viene'
p627
(dp628
S'VERB'
p629
F1.0
s(lp630
(g33
I9
tp631
atp632
a(S'assegnato'
p633
(dp634
S'VERB'
p635
F0.997754
sS'ADJ'
p636
F0.002246
s(lp637
(g75
I8
tp638
atp639
a(S'dal'
p640
(dp641
S'ADP'
p642
F1.0
s(lp643
(g57
I6
tp644
atp645
a(S'trattato'
p646
(dp647
S'VERB'
p648
F0.050129
sS'NOUN'
p649
F0.949871
s(lp650
(g88
I7
tp651
atp652
a(S'e'
p653
(dp654
S'CONJ'
p655
F1.0
s(lp656
(g95
I10
tp657
atp658
a(S'intendo'
p659
(dp660
S'VERB'
p661
F1.0
s(lp662
(g109
I12
tp663
atp664
a(S'assolverlo'
p665
(dp666
S'VERB'
p667
F1.0
s(lp668
(g134
I14
tp669
atp670
a(S'pienamente'
p671
(dp672
S'ADV'
p673
F1.0
s(lp674
(g158
I18
tp675
atp676
a(g35
(dp677
g35
F1.0
s(lp678
(g35
I19
tp679
atp680
asS'sk'
p681
(lp682
(S'aby'
p683
(dp684
g189
F0.0031149999999999997
sS'CONJ'
p685
F0.996885
s(lp686
(g8
I0
tp687
atp688
a(S'som'
p689
(dp690
S'VERB'
p691
F1.0
s(lp692
(g43
I4
tp693
atp694
a(S'bol'
p695
(dp696
S'VERB'
p697
F1.0
s(lp698
(g16
I1
tp699
atp700
a(S'presn\xc3\xbd'
p701
(dp702
S'ADJ'
p703
F1.0
s(lp704
(g30
I2
tp705
atp706
a(g33
(dp707
g35
F1.0
s(lp708
(g33
I3
tp709
atp710
a(S'pozn\xc3\xa1m'
p711
(dp712
S'VERB'
p713
F1.0
s(lp714
(g50
I5
tp715
atp716
a(S'svoju'
p717
(dp718
S'PRON'
p719
F1.0
s(lp720
(g57
I6
tp721
atp722
a(S'povinnos\xc5\xa5'
p723
(dp724
S'NOUN'
p725
F1.0
s(lp726
tp727
a(g33
(dp728
g35
F1.0
s(lp729
tp730
a(S'ktor\xc3\xa1'
p731
(dp732
S'PRON'
p733
F1.0
s(lp734
(g143
I16
tp735
atp736
a(S'vypl\xc3\xbdva'
p737
(dp738
S'VERB'
p739
F1.0
s(lp740
(g75
I8
tp741
atp742
a(S'zo'
p743
(dp744
g189
F0.014406
sS'ADP'
p745
F0.985594
s(lp746
(g150
I17
tp747
atp748
a(S'zmluvy'
p749
(dp750
S'NOUN'
p751
F1.0
s(lp752
(g88
I7
tp753
atp754
a(g33
(dp755
g35
F1.0
s(lp756
(g33
I9
tp757
atp758
a(S'a'
p759
(dp760
g189
F0.000125
sS'CONJ'
p761
F0.999872
sS'NOUN'
p762
F0.0
sS'ADP'
p763
F0.0
sS'PRT'
p764
F1e-06
s(lp765
(g95
I10
tp766
atp767
a(S'm\xc3\xa1m'
p768
(dp769
S'VERB'
p770
F0.999949
sS'NOUN'
p771
F5e-05
s(lp772
(g43
I11
tp773
atp774
a(S'v'
p775
(dp776
g189
F8.5e-05
sS'ADP'
p777
F0.999915
s(lp778
tp779
a(S'\xc3\xbamysle'
p780
(dp781
S'NOUN'
p782
F1.0
s(lp783
(g109
I12
tp784
atp785
a(S'plni\xc5\xa5'
p786
(dp787
S'VERB'
p788
F1.0
s(lp789
(g134
I14
tp790
atp791
a(S'ju'
p792
(dp793
S'PRON'
p794
F1.0
s(lp795
(g127
I15
tp796
atp797
a(g775
(dp798
g189
F0.000254
sS'ADP'
p799
F0.999745
s(lp800
(g150
I17
tp801
atp802
a(S'plnej'
p803
(dp804
S'ADJ'
p805
F1.0
s(lp806
tp807
a(S'miere'
p808
(dp809
S'NOUN'
p810
F1.0
s(lp811
(g158
I18
tp812
atp813
a(g35
(dp814
g35
F1.0
s(lp815
(g35
I19
tp816
atp817
asS'pl'
p818
(lp819
(S'\xc5\x9aci\xc5\x9blej'
p820
(dp821
S'ADV'
p822
F1.0
s(lp823
tp824
a(S'm\xc3\xb3wi\xc4\x85c'
p825
(dp826
S'VERB'
p827
F1.0
s(lp828
(g30
I2
tp829
atp830
a(g33
(dp831
g189
F0.0
sg35
F1.0
s(lp832
(g33
I3
tp833
atp834
a(S'znam'
p835
(dp836
S'VERB'
p837
F1.0
s(lp838
(g50
I5
tp839
atp840
a(S'swoje'
p841
(dp842
S'NOUN'
p843
F0.000242
sS'ADJ'
p844
F0.999757
s(lp845
(g57
I6
tp846
atp847
a(S'obowi\xc4\x85zki'
p848
(dp849
S'NOUN'
p850
F0.999999
s(lp851
tp852
a(S'wynikaj\xc4\x85ce'
p853
(dp854
S'VERB'
p855
F0.9999999999999999
s(lp856
(g75
I8
tp857
atp858
a(S'z'
p859
(dp860
S'PRT'
p861
F1.4e-05
sS'VERB'
p862
F0.0
sS'NOUN'
p863
F2e-06
sS'ADP'
p864
F0.9999830000000001
sg189
F1e-06
s(lp865
tp866
a(S'traktatu'
p867
(dp868
S'NOUN'
p869
F1.0
s(lp870
(g88
I7
tp871
atp872
a(g43
(dp873
S'PRT'
p874
F0.011474
sS'CONJ'
p875
F0.988516
sS'PRON'
p876
F0.0
sS'NOUN'
p877
F2e-06
sg189
F7e-06
s(lp878
(g95
I10
tp879
atp880
a(S'zamierzam'
p881
(dp882
S'VERB'
p883
F1.0
s(lp884
(g109
I12
tp885
atp886
a(S'w'
p887
(dp888
S'ADJ'
p889
F0.0
sg189
F1.8e-05
sS'NOUN'
p890
F1e-06
sS'ADP'
p891
F0.99998
s(lp892
(g150
I17
tp893
atp894
a(S'pe\xc5\x82ni'
p895
(dp896
S'ADJ'
p897
F7e-06
sS'VERB'
p898
F0.000239
sS'NOUN'
p899
F0.999755
s(lp900
(g158
I18
tp901
atp902
a(S'si\xc4\x99'
p903
(dp904
S'PRT'
p905
F1.0
s(lp906
(g143
I16
tp907
atp908
a(g859
(dp909
S'PRT'
p910
F0.001739
sS'VERB'
p911
F8e-06
sS'NOUN'
p912
F0.0
sS'ADP'
p913
F0.998253
sg189
F0.0
s(lp914
(g118
I13
tp915
atp916
a(S'nich'
p917
(dp918
S'PRON'
p919
F0.9999989999999999
s(lp920
tp921
a(S'wywi\xc4\x85za\xc4\x87'
p922
(dp923
S'VERB'
p924
F1.0
s(lp925
(g134
I14
tp926
atp927
a(g35
(dp928
g35
F1.0
s(lp929
(g35
I19
tp930
atp931
asS'sl'
p932
(lp933
(S'\xc4\x8ce'
p934
(dp935
S'CONJ'
p936
F1.0
s(lp937
(g8
I0
tp938
atp939
a(S'sem'
p940
(dp941
S'ADV'
p942
F0.103275
sS'PRT'
p943
F0.012859
sS'VERB'
p944
F0.883866
s(lp945
tp946
a(S'natan\xc4\x8dnej\xc5\xa1i'
p947
(dp948
S'ADJ'
p949
F1.0
s(lp950
(g30
I2
tp951
atp952
a(g33
(dp953
g35
F1.0
s(lp954
(g33
I3
tp955
atp956
a(S'poznam'
p957
(dp958
S'VERB'
p959
F1.0
s(lp960
(g50
I5
tp961
atp962
a(S'svojo'
p963
(dp964
S'PRON'
p965
F1.0
s(lp966
(g57
I6
tp967
atp968
a(S'dol\xc5\xbenost'
p969
(dp970
S'NOUN'
p971
F1.0
s(lp972
(g75
I8
tp973
atp974
a(g775
(dp975
S'ADP'
p976
F1.0
s(lp977
(g118
I13
tp978
atp979
a(S'zvezi'
p980
(dp981
S'NOUN'
p982
F1.0
s(lp983
tp984
a(S's'
p985
(dp986
S'VERB'
p987
F1.4e-05
sS'NOUN'
p988
F2.8e-05
sS'ADP'
p989
F0.999958
s(lp990
(g143
I16
tp991
atp992
a(S'pogodbo'
p993
(dp994
S'NOUN'
p995
F1.0
s(lp996
(g88
I7
tp997
atp998
a(S'in'
p999
(dp1000
S'ADV'
p1001
F0.000141
sg189
F3e-06
sS'CONJ'
p1002
F0.999856
sS'NOUN'
p1003
F1e-06
s(lp1004
(g95
I10
tp1005
atp1006
a(S'nameravam'
p1007
(dp1008
S'VERB'
p1009
F1.0
s(lp1010
(g109
I12
tp1011
atp1012
a(S'jo'
p1013
(dp1014
S'PRON'
p1015
F0.996288
sg189
F0.003712
s(lp1016
(g127
I15
tp1017
atp1018
a(g775
(dp1019
S'ADP'
p1020
F1.0
s(lp1021
(g150
I17
tp1022
atp1023
a(S'celoti'
p1024
(dp1025
S'NOUN'
p1026
F1.0
s(lp1027
(g158
I18
tp1028
atp1029
a(S'izpolniti'
p1030
(dp1031
S'VERB'
p1032
F1.0
s(lp1033
(g134
I14
tp1034
atp1035
a(g35
(dp1036
g35
F1.0
s(lp1037
(g35
I19
tp1038
atp1039
asS'es'
p1040
(lp1041
(S'para'
p1042
(dp1043
S'CONJ'
p1044
F0.930397
sS'ADP'
p1045
F0.069603
s(lp1046
(g8
I0
tp1047
atp1048
a(S'ser'
p1049
(dp1050
S'VERB'
p1051
F0.999297
sS'NOUN'
p1052
F0.000703
s(lp1053
(g16
I1
tp1054
atp1055
a(S'preciso'
p1056
(dp1057
S'ADJ'
p1058
F1.0
s(lp1059
(g30
I2
tp1060
atp1061
a(g33
(dp1062
g35
F1.0
s(lp1063
(g33
I3
tp1064
atp1065
a(S'conozco'
p1066
(dp1067
S'VERB'
p1068
F1.0
s(lp1069
(g50
I5
tp1070
atp1071
a(S'mis'
p1072
(dp1073
S'PRON'
p1074
F1.0
s(lp1075
(g57
I6
tp1076
atp1077
a(S'deberes'
p1078
(dp1079
S'NOUN'
p1080
F1.0
s(lp1081
(g75
I8
tp1082
atp1083
a(S'con'
p1084
(dp1085
S'ADP'
p1086
F1.0
s(lp1087
tp1088
a(S'arreglo'
p1089
(dp1090
S'NOUN'
p1091
F1.0
s(lp1092
tp1093
a(S'al'
p1094
(dp1095
S'CONJ'
p1096
F0.026495
sS'ADP'
p1097
F0.973506
s(lp1098
(g118
I13
tp1099
atp1100
a(S'tratado'
p1101
(dp1102
S'VERB'
p1103
F0.85462
sS'NOUN'
p1104
F0.14538
s(lp1105
(g88
I7
tp1106
atp1107
a(g33
(dp1108
g35
F1.0
s(lp1109
(g33
I9
tp1110
atp1111
a(S'y'
p1112
(dp1113
g189
F0.000634
sS'CONJ'
p1114
F0.999366
s(lp1115
(g95
I10
tp1116
atp1117
a(S'pretendo'
p1118
(dp1119
S'VERB'
p1120
F1.0
s(lp1121
tp1122
a(S'llevarlos'
p1123
(dp1124
S'VERB'
p1125
F1.0
s(lp1126
(g109
I12
tp1127
atp1128
a(S'hasta'
p1129
(dp1130
S'ADP'
p1131
F1.0
s(lp1132
(g143
I16
tp1133
atp1134
a(S'el'
p1135
(dp1136
S'PRON'
p1137
F5.7e-05
sS'DET'
p1138
F0.999943
s(lp1139
(g150
I17
tp1140
atp1141
a(S'final'
p1142
(dp1143
S'ADJ'
p1144
F0.341012
sS'NOUN'
p1145
F0.658988
s(lp1146
(g158
I18
tp1147
atp1148
a(g35
(dp1149
g35
F1.0
s(lp1150
(g35
I19
tp1151
atp1152
as.