(dp0
S'fr'
p1
(lp2
(S'('
p3
(dp4
S'.'
p5
F1.0
s(lp6
tp7
a(S'en'
p8
(dp9
S'PRON'
p10
F0.551936
sS'ADP'
p11
F0.448064
s(lp12
tp13
a(S')'
p14
(dp15
g5
F1.0
s(lp16
(S'president'
p17
I1
tp18
atp19
a(S'monsieur'
p20
(dp21
S'NOUN'
p22
F1.0
s(lp23
(S'mr'
p24
I0
tp25
atp26
a(S'le'
p27
(dp28
S'PRON'
p29
F0.000321
sS'DET'
p30
F0.999679
s(lp31
tp32
a(S'pr\xc3\xa9sident'
p33
(dp34
S'VERB'
p35
F4.5e-05
sS'NOUN'
p36
F0.999955
s(lp37
(g17
I1
tp38
atp39
a(S','
p40
(dp41
g5
F1.0
s(lp42
(g40
I2
tp43
atp44
a(S'je'
p45
(dp46
S'PRON'
p47
F1.0
s(lp48
(S'i'
p49
I3
tp50
atp51
a(S'voudrais'
p52
(dp53
S'VERB'
p54
F1.0
s(lp55
(S'like'
p56
I5
tp57
atp58
a(S"qu'"
p59
(dp60
S'NOUN'
p61
F0.043787
sS'VERB'
p62
F0.7697689999999999
sS'ADJ'
p63
F0.186444
s(lp64
(S'consider'
p65
I8
tp66
atp67
a(S'avec'
p68
(dp69
S'ADV'
p70
F0.012557
sS'ADP'
p71
F0.987443
s(lp72
(S'with'
p73
I9
tp74
atp75
a(S'la'
p76
(dp77
S'PRON'
p78
F1.2e-05
sS'DET'
p79
F0.999988
sS'NOUN'
p80
F0.0
s(lp81
(S'the'
p82
I10
tp83
atp84
a(S'conf\xc3\xa9rence'
p85
(dp86
S'NOUN'
p87
F1.0
s(lp88
(S'conference'
p89
I11
tp90
atp91
a(S'des'
p92
(dp93
S'DET'
p94
F2.1e-05
sS'ADP'
p95
F0.999979
s(lp96
(S'of'
p97
I12
tp98
atp99
a(S'pr\xc3\xa9sidents'
p100
(dp101
S'NOUN'
p102
F1.0
s(lp103
(S'presidents'
p104
I13
tp105
atp106
a(S'vous'
p107
(dp108
S'PRON'
p109
F1.0
s(lp110
(S'you'
p111
I6
tp112
atp113
a(S'envisagiez'
p114
(dp115
S'VERB'
p116
F1.0
s(lp117
(S'timetabling'
p118
I14
tp119
atp120
a(S"d'"
p121
(dp122
S'NOUN'
p123
F0.087886
sS'VERB'
p124
F0.7995690000000001
sS'ADJ'
p125
F0.112546
s(lp126
(S'to'
p127
I7
tp128
atp129
a(S'inscrire'
p130
(dp131
S'VERB'
p132
F1.0
s(lp133
tp134
a(S'plus'
p135
(dp136
S'ADV'
p137
F0.999734
sS'VERB'
p138
F0.000265
s(lp139
tp140
a(S't\xc3\xb4t'
p141
(dp142
S'ADV'
p143
F1.0
s(lp144
(S'earlier'
p145
I18
tp146
atp147
a(S'les'
p148
(dp149
S'PRON'
p150
F0.000111
sS'DET'
p151
F0.999847
sS'ADP'
p152
F4.2e-05
s(lp153
(S'the'
p154
I15
tp155
atp156
a(S'interventions'
p157
(dp158
S'NOUN'
p159
F1.0
s(lp160
(S'speeches'
p161
I17
tp162
atp163
a(S"d'"
p164
(dp165
S'NOUN'
p166
F0.032441
sS'VERB'
p167
F0.694014
sS'ADJ'
p168
F0.273544
s(lp169
(S'one-minute'
p170
I16
tp171
atp172
a(S'une'
p173
(dp174
S'NOUN'
p175
F3e-05
sS'NUM'
p176
F0.022062
sS'DET'
p177
F0.977908
s(lp178
tp179
a(S'minute'
p180
(dp181
S'VERB'
p182
F0.000302
sS'NOUN'
p183
F0.999698
s(lp184
(g170
I16
tp185
atp186
a(S'parce'
p187
(dp188
S'CONJ'
p189
F1.0
s(lp190
tp191
a(S"qu'"
p192
(dp193
S'NOUN'
p194
F0.109289
sS'VERB'
p195
F0.472141
sS'ADJ'
p196
F0.418571
s(lp197
(S'because'
p198
I20
tp199
atp200
a(S'au'
p201
(dp202
S'ADP'
p203
F1.0
s(lp204
(S'in'
p205
I21
tp206
atp207
a(S'cours'
p208
(dp209
S'VERB'
p210
F0.0
sS'NOUN'
p211
F1.0
s(lp212
tp213
a(S'des'
p214
(dp215
S'DET'
p216
F3.2e-05
sS'ADP'
p217
F0.999968
s(lp218
(g118
I14
tp219
atp220
a(S'derni\xc3\xa8res'
p221
(dp222
S'NOUN'
p223
F0.054959
sS'ADJ'
p224
F0.945041
s(lp225
(S'last'
p226
I23
tp227
atp228
a(S'sessions'
p229
(dp230
S'NOUN'
p231
F1.0
s(lp232
tp233
a(S'pl\xc3\xa9ni\xc3\xa8res'
p234
(dp235
S'ADJ'
p236
F1.0
s(lp237
(S'part-sessions'
p238
I24
tp239
atp240
a(g40
(dp241
g5
F1.0
s(lp242
(g40
I19
tp243
atp244
a(S'celles-ci'
p245
(dp246
S'PRON'
p247
F1.0
s(lp248
(S'this'
p249
I25
tp250
atp251
a(S'ont'
p252
(dp253
S'VERB'
p254
F1.0
s(lp255
tp256
a(S'\xc3\xa9t\xc3\xa9'
p257
(dp258
S'VERB'
p259
F0.986206
sS'NOUN'
p260
F0.013794
s(lp261
(S'was'
p262
I26
tp263
atp264
a(S'report\xc3\xa9es'
p265
(dp266
S'VERB'
p267
F1.0
s(lp268
(S'pushed'
p269
I27
tp270
atp271
a(S'\xc3\xa0'
p272
(dp273
S'ADP'
p274
F1.0
s(lp275
(S'to'
p276
I29
tp277
atp278
a(S'la'
p279
(dp280
S'PRON'
p281
F3.3e-05
sS'DET'
p282
F0.99995
sS'NOUN'
p283
F1.7e-05
s(lp284
(S'the'
p285
I30
tp286
atp287
a(S'derni\xc3\xa8re'
p288
(dp289
S'NOUN'
p290
F0.008417
sS'ADJ'
p291
F0.991583
s(lp292
(S'last'
p293
I31
tp294
atp295
a(S'heure'
p296
(dp297
S'NOUN'
p298
F1.0
s(lp299
(S'hour'
p300
I32
tp301
atp302
a(S'de'
p303
(dp304
S'ADP'
p305
F1.0
s(lp306
(S'of'
p307
I33
tp308
atp309
a(S'nos'
p310
(dp311
S'PRON'
p312
F1.0
s(lp313
(S'our'
p314
I34
tp315
atp316
a(S'd\xc3\xa9bats'
p317
(dp318
S'VERB'
p319
F0.0
sS'NOUN'
p320
F1.0
s(lp321
(S'discussions'
p322
I35
tp323
atp324
a(g5
(dp325
g5
F1.0
s(lp326
(g5
I36
tp327
atp328
asS'en'
p329
(lp330
(g24
(dp331
S'ADJ'
p332
F0.013311
sS'NOUN'
p333
F0.986689
s(lp334
(g24
I0
tp335
atp336
a(g17
(dp337
S'NOUN'
p338
F1.0
s(lp339
(g17
I1
tp340
atp341
a(g40
(dp342
g5
F1.0
s(lp343
(g40
I2
tp344
atp345
a(g49
(dp346
S'X'
p347
F0.177708
sS'NOUN'
p348
F0.822292
s(lp349
(g49
I3
tp350
atp351
a(S'would'
p352
(dp353
S'VERB'
p354
F1.0
s(lp355
(g352
I4
tp356
atp357
a(g56
(dp358
S'VERB'
p359
F0.998633
sS'ADJ'
p360
F3e-06
sS'ADP'
p361
F0.001363
s(lp362
(g56
I5
tp363
atp364
a(g111
(dp365
S'PRON'
p366
F1.0
s(lp367
(g111
I6
tp368
atp369
a(g127
(dp370
S'ADV'
p371
F1e-06
sS'PRT'
p372
F0.999999
sS'ADP'
p373
F0.0
s(lp374
(g127
I7
tp375
atp376
a(g65
(dp377
S'VERB'
p378
F1.0
s(lp379
(g65
I8
tp380
atp381
a(g73
(dp382
S'ADP'
p383
F1.0
s(lp384
(g73
I9
tp385
atp386
a(g82
(dp387
S'NOUN'
p388
F1e-06
sS'DET'
p389
F0.999999
s(lp390
(g82
I10
tp391
atp392
a(g89
(dp393
S'NOUN'
p394
F1.0
s(lp395
(g89
I11
tp396
atp397
a(g97
(dp398
S'ADP'
p399
F1.0
s(lp400
(g97
I12
tp401
atp402
a(g104
(dp403
S'NOUN'
p404
F1.0
s(lp405
(g104
I13
tp406
atp407
a(g118
(dp408
S'ADJ'
p409
F0.001562
sS'VERB'
p410
F0.988629
sS'NOUN'
p411
F0.009809
s(lp412
(g118
I14
tp413
atp414
a(g154
(dp415
S'NOUN'
p416
F1e-06
sS'DET'
p417
F0.999999
s(lp418
(g154
I15
tp419
atp420
a(g170
(dp421
S'ADJ'
p422
F1.0
s(lp423
(g170
I16
tp424
atp425
a(g161
(dp426
S'NOUN'
p427
F1.0
s(lp428
(g161
I17
tp429
atp430
a(g145
(dp431
S'ADV'
p432
F0.995741
sS'ADJ'
p433
F0.004259
s(lp434
(g145
I18
tp435
atp436
a(g40
(dp437
g5
F1.0
s(lp438
(g40
I19
tp439
atp440
a(g198
(dp441
S'ADV'
p442
F0.111898
sS'ADP'
p443
F0.888102
s(lp444
(g198
I20
tp445
atp446
a(g205
(dp447
S'ADV'
p448
F0.002058
sS'PRT'
p449
F1e-06
sS'ADP'
p450
F0.997941
s(lp451
(g205
I21
tp452
atp453
a(S'the'
p454
(dp455
S'NOUN'
p456
F1e-06
sS'DET'
p457
F0.999999
s(lp458
(g454
I22
tp459
atp460
a(g226
(dp461
S'ADV'
p462
F1.8e-05
sS'NOUN'
p463
F0.000847
sS'VERB'
p464
F1.4999999999999999e-05
sS'ADJ'
p465
F0.99912
s(lp466
(g226
I23
tp467
atp468
a(g238
(dp469
S'NOUN'
p470
F1.0
s(lp471
(g238
I24
tp472
atp473
a(g249
(dp474
S'ADV'
p475
F0.035669
sS'NOUN'
p476
F0.004688
sS'DET'
p477
F0.959644
s(lp478
(g249
I25
tp479
atp480
a(g262
(dp481
S'VERB'
p482
F1.0
s(lp483
(g262
I26
tp484
atp485
a(g269
(dp486
S'VERB'
p487
F0.9995350000000001
sS'ADJ'
p488
F0.000464
s(lp489
(g269
I27
tp490
atp491
a(S'back'
p492
(dp493
S'ADV'
p494
F0.92526
sS'ADJ'
p495
F0.010324
sS'VERB'
p496
F0.004608
sS'NOUN'
p497
F0.059808
s(lp498
(g492
I28
tp499
atp500
a(g276
(dp501
S'ADV'
p502
F6e-06
sS'PRT'
p503
F0.999982
sS'ADP'
p504
F1.3e-05
s(lp505
(g276
I29
tp506
atp507
a(g285
(dp508
S'NOUN'
p509
F1e-06
sS'DET'
p510
F0.999999
s(lp511
(g285
I30
tp512
atp513
a(g293
(dp514
S'ADV'
p515
F6.7e-05
sS'NOUN'
p516
F0.000637
sS'VERB'
p517
F1.7e-05
sS'ADJ'
p518
F0.999279
s(lp519
(g293
I31
tp520
atp521
a(g300
(dp522
S'NOUN'
p523
F1.0
s(lp524
(g300
I32
tp525
atp526
a(g307
(dp527
S'ADP'
p528
F1.0
s(lp529
(g307
I33
tp530
atp531
a(g314
(dp532
S'PRON'
p533
F1.0
s(lp534
(g314
I34
tp535
atp536
a(g322
(dp537
S'NOUN'
p538
F1.0
s(lp539
(g322
I35
tp540
atp541
a(g5
(dp542
g5
F1.0
s(lp543
(g5
I36
tp544
atp545
asS'nl'
p546
(lp547
(g3
(dp548
g5
F1.0
s(lp549
tp550
a(S'en'
p551
(dp552
S'CONJ'
p553
F1.0
s(lp554
(g17
I1
tp555
atp556
a(g14
(dp557
g5
F1.0
s(lp558
(g17
I1
tp559
atp560
a(S'mijnheer'
p561
(dp562
S'NOUN'
p563
F1.0
s(lp564
(g24
I0
tp565
atp566
a(S'de'
p567
(dp568
S'DET'
p569
F1.0
s(lp570
tp571
a(S'voorzitter'
p572
(dp573
S'NOUN'
p574
F1.0
s(lp575
(g17
I1
tp576
atp577
a(g40
(dp578
g5
F1.0
s(lp579
(g40
I2
tp580
atp581
a(S'ik'
p582
(dp583
S'PRON'
p584
F0.999917
sS'NOUN'
p585
F8.3e-05
s(lp586
(g49
I3
tp587
atp588
a(S'wil'
p589
(dp590
S'VERB'
p591
F0.998697
sS'NOUN'
p592
F0.001303
s(lp593
(g352
I4
tp594
atp595
a(S'u'
p596
(dp597
S'PRON'
p598
F0.999193
sS'NOUN'
p599
F0.000807
s(lp600
(g111
I6
tp601
atp602
a(S'vragen'
p603
(dp604
S'VERB'
p605
F0.7774690000000001
sS'NOUN'
p606
F0.22253
s(lp607
(g56
I5
tp608
atp609
a(S'om'
p610
(dp611
S'ADV'
p612
F0.072207
sS'CONJ'
p613
F0.893428
sS'ADP'
p614
F0.034365
s(lp615
(g127
I7
tp616
atp617
a(S'met'
p618
(dp619
S'ADP'
p620
F1.0
s(lp621
(g73
I9
tp622
atp623
a(S'de'
p624
(dp625
S'DET'
p626
F1.0
s(lp627
(g82
I10
tp628
atp629
a(S'conferentie'
p630
(dp631
S'NOUN'
p632
F1.0
s(lp633
(g89
I11
tp634
atp635
a(S'van'
p636
(dp637
S'ADP'
p638
F1.0
s(lp639
(g97
I12
tp640
atp641
a(S'voorzitters'
p642
(dp643
S'NOUN'
p644
F1.0
s(lp645
(g104
I13
tp646
atp647
a(S'te'
p648
(dp649
S'PRT'
p650
F1.0
s(lp651
(g127
I7
tp652
atp653
a(S'overwegen'
p654
(dp655
S'VERB'
p656
F0.996113
sS'NOUN'
p657
F0.0038870000000000003
s(lp658
tp659
a(S'of'
p660
(dp661
S'CONJ'
p662
F1.0
s(lp663
(g65
I8
tp664
atp665
a(S'de'
p666
(dp667
S'DET'
p668
F1.0
s(lp669
(g154
I15
tp670
atp671
a(S'toespraken'
p672
(dp673
S'VERB'
p674
F0.0
sS'NOUN'
p675
F1.0
s(lp676
(g161
I17
tp677
atp678
a(S'van'
p679
(dp680
S'ADP'
p681
F1.0
s(lp682
(g170
I16
tp683
atp684
a(S'\xc3\xa9\xc3\xa9n'
p685
(dp686
S'ADJ'
p687
F0.00768
sS'NUM'
p688
F0.004146
sS'DET'
p689
F0.986629
sS'PRON'
p690
F0.001545
s(lp691
tp692
a(S'minuut'
p693
(dp694
S'NOUN'
p695
F1.0
s(lp696
(g170
I16
tp697
atp698
a(S'niet'
p699
(dp700
S'ADV'
p701
F0.999992
sS'PRON'
p702
F0.0
sS'VERB'
p703
F8e-06
sg347
F0.0
s(lp704
tp705
a(S'vroeger'
p706
(dp707
S'ADJ'
p708
F1.0
s(lp709
tp710
a(S'op'
p711
(dp712
S'ADV'
p713
F0.002555
sS'ADJ'
p714
F0.0
sS'ADP'
p715
F0.997445
s(lp716
tp717
a(S'de'
p718
(dp719
S'DET'
p720
F1.0
s(lp721
tp722
a(S'agenda'
p723
(dp724
S'NOUN'
p725
F1.0
s(lp726
(g118
I14
tp727
atp728
a(S'kunnen'
p729
(dp730
S'VERB'
p731
F0.999992
sS'NOUN'
p732
F8e-06
s(lp733
(g127
I7
tp734
atp735
a(S'worden'
p736
(dp737
S'VERB'
p738
F1.0
sS'NOUN'
p739
F0.0
s(lp740
tp741
a(S'gezet'
p742
(dp743
S'VERB'
p744
F0.999632
sS'ADJ'
p745
F0.000368
s(lp746
(g145
I18
tp747
atp748
a(g40
(dp749
g5
F1.0
s(lp750
(g40
I19
tp751
atp752
a(S'want'
p753
(dp754
S'CONJ'
p755
F0.999149
sS'VERB'
p756
F0.000756
sS'NOUN'
p757
F9.6e-05
s(lp758
(g198
I20
tp759
atp760
a(S'in'
p761
(dp762
S'ADV'
p763
F0.008561
sS'VERB'
p764
F1e-06
sS'ADP'
p765
F0.991438
s(lp766
(g205
I21
tp767
atp768
a(S'de'
p769
(dp770
S'DET'
p771
F1.0
s(lp772
(g454
I22
tp773
atp774
a(S'vorige'
p775
(dp776
S'NOUN'
p777
F1e-06
sS'ADJ'
p778
F0.999999
s(lp779
(g226
I23
tp780
atp781
a(S'vergaderperioden'
p782
(dp783
S'NOUN'
p784
F1.0
s(lp785
(g238
I24
tp786
atp787
a(S'waren'
p788
(dp789
S'VERB'
p790
F0.993896
sS'NOUN'
p791
F0.006104
s(lp792
(g262
I26
tp793
atp794
a(S'die'
p795
(dp796
S'PRON'
p797
F1.0000010000000001
s(lp798
(g249
I25
tp799
atp800
a(S'verplaatst'
p801
(dp802
S'VERB'
p803
F1.0
s(lp804
(g269
I27
tp805
atp806
a(S'naar'
p807
(dp808
S'CONJ'
p809
F0.003224
sS'ADJ'
p810
F0.0
sS'ADP'
p811
F0.996775
s(lp812
(g492
I28
tp813
atp814
a(S'het'
p815
(dp816
S'PRON'
p817
F0.006017
sS'DET'
p818
F0.993984
s(lp819
(g285
I30
tp820
atp821
a(S'laatste'
p822
(dp823
S'NOUN'
p824
F0.014678
sS'ADJ'
p825
F0.985322
s(lp826
(g293
I31
tp827
atp828
a(S'uur'
p829
(dp830
S'NOUN'
p831
F1.0
s(lp832
(g300
I32
tp833
atp834
a(S'van'
p835
(dp836
S'ADP'
p837
F1.0
s(lp838
(g307
I33
tp839
atp840
a(S'onze'
p841
(dp842
S'PRON'
p843
F1.0
s(lp844
(g314
I34
tp845
atp846
a(S'discussies'
p847
(dp848
S'NOUN'
p849
F1.0
s(lp850
(g322
I35
tp851
atp852
a(g5
(dp853
g5
F1.0
s(lp854
(g5
I36
tp855
atp856
asS'de'
p857
(lp858
(S'herr'
p859
(dp860
S'ADJ'
p861
F0.128621
sS'NOUN'
p862
F0.790101
s(lp863
(g24
I0
tp864
atp865
a(S'pr\xc3\xa4sident'
p866
(dp867
S'VERB'
p868
F0.067769
sS'NOUN'
p869
F0.917506
s(lp870
(g17
I1
tp871
atp872
a(g40
(dp873
g5
F1.0
s(lp874
(g40
I2
tp875
atp876
a(S'ich'
p877
(dp878
S'PRON'
p879
F1.0
s(lp880
(g49
I3
tp881
atp882
a(S'm\xc3\xb6chte'
p883
(dp884
S'VERB'
p885
F1.0
s(lp886
(g56
I5
tp887
atp888
a(g40
(dp889
g5
F1.0
s(lp890
tp891
a(S'dass'
p892
(dp893
S'CONJ'
p894
F1.0
s(lp895
tp896
a(S'sie'
p897
(dp898
S'PRON'
p899
F1.0
s(lp900
(g111
I6
tp901
atp902
a(S'bei'
p903
(dp904
S'PRT'
p905
F0.000818
sS'ADP'
p906
F0.999182
s(lp907
(g73
I9
tp908
atp909
a(S'dem'
p910
(dp911
S'PRON'
p912
F0.000102
sS'DET'
p913
F0.999871
s(lp914
(g127
I7
tp915
atp916
a(S'zeitplan'
p917
(dp918
S'ADJ'
p919
F0.012493
sS'NOUN'
p920
F0.975792
s(lp921
(g118
I14
tp922
atp923
a(S'der'
p924
(dp925
S'PRON'
p926
F2.4e-05
sS'DET'
p927
F0.999955
s(lp928
(g82
I10
tp929
atp930
a(S'konferenz'
p931
(dp932
S'ADJ'
p933
F9.3e-05
sS'NOUN'
p934
F0.999849
s(lp935
(g89
I11
tp936
atp937
a(S'der'
p938
(dp939
S'PRON'
p940
F2.1e-05
sS'DET'
p941
F0.999971
s(lp942
(g97
I12
tp943
atp944
a(S'pr\xc3\xa4sidenten'
p945
(dp946
S'ADJ'
p947
F0.006381
sS'NOUN'
p948
F0.993556
s(lp949
(g104
I13
tp950
atp951
a(S'die'
p952
(dp953
S'PRON'
p954
F0.000443
sS'DET'
p955
F0.999508
s(lp956
(g154
I15
tp957
atp958
a(S'einmin\xc3\xbctigen'
p959
(dp960
S'VERB'
p961
F0.000228
sS'ADJ'
p962
F0.999745
s(lp963
(g170
I16
tp964
atp965
a(S'reden'
p966
(dp967
S'VERB'
p968
F1.0
s(lp969
(g161
I17
tp970
atp971
a(S'fr\xc3\xbcher'
p972
(dp973
S'ADV'
p974
F0.669237
sS'ADJ'
p975
F0.330754
s(lp976
(g145
I18
tp977
atp978
a(S'ber\xc3\xbccksichtigen'
p979
(dp980
S'VERB'
p981
F1.0
s(lp982
(g65
I8
tp983
atp984
a(g40
(dp985
g5
F1.0
s(lp986
(g40
I19
tp987
atp988
a(S'weil'
p989
(dp990
S'CONJ'
p991
F0.999999
sS'VERB'
p992
F1e-06
s(lp993
(g198
I20
tp994
atp995
a(S'sie'
p996
(dp997
S'PRON'
p998
F1.0
s(lp999
(g249
I25
tp1000
atp1001
a(S'in'
p1002
(dp1003
S'ADP'
p1004
F1.0
s(lp1005
(g205
I21
tp1006
atp1007
a(S'den'
p1008
(dp1009
S'PRON'
p1010
F0.000112
sS'DET'
p1011
F0.999888
s(lp1012
(g454
I22
tp1013
atp1014
a(S'letzten'
p1015
(dp1016
S'ADJ'
p1017
F1.0
s(lp1018
(g226
I23
tp1019
atp1020
a(S'sitzungsperioden'
p1021
(dp1022
S'ADJ'
p1023
F0.003466
sS'NOUN'
p1024
F0.996534
s(lp1025
(g238
I24
tp1026
atp1027
a(S'auf'
p1028
(dp1029
S'PRT'
p1030
F0.000896
sS'ADP'
p1031
F0.999095
s(lp1032
(g276
I29
tp1033
atp1034
a(S'die'
p1035
(dp1036
S'PRON'
p1037
F0.000219
sS'DET'
p1038
F0.999761
s(lp1039
(g285
I30
tp1040
atp1041
a(S'letzte'
p1042
(dp1043
S'ADJ'
p1044
F1.0
s(lp1045
(g293
I31
tp1046
atp1047
a(S'stunde'
p1048
(dp1049
S'VERB'
p1050
F1.0
s(lp1051
(g300
I32
tp1052
atp1053
a(S'unserer'
p1054
(dp1055
S'PRON'
p1056
F1.0
s(lp1057
(g314
I34
tp1058
atp1059
a(S'diskussionen'
p1060
(dp1061
S'ADJ'
p1062
F0.000102
sS'NOUN'
p1063
F0.999834
s(lp1064
(g322
I35
tp1065
atp1066
a(S'verlegt'
p1067
(dp1068
S'VERB'
p1069
F0.988376
sS'ADJ'
p1070
F0.011209
s(lp1071
(g269
I27
tp1072
atp1073
a(S'wurden'
p1074
(dp1075
S'VERB'
p1076
F1.0
s(lp1077
(g262
I26
tp1078
atp1079
a(g5
(dp1080
g5
F1.0
s(lp1081
(g5
I36
tp1082
atp1083
asS'it'
p1084
(lp1085
(g3
(dp1086
g5
F1.0
s(lp1087
tp1088
a(S'en'
p1089
(dp1090
S'ADJ'
p1091
F0.097599
sS'VERB'
p1092
F0.025145
sS'NOUN'
p1093
F0.877257
s(lp1094
(g17
I1
tp1095
atp1096
a(g14
(dp1097
g5
F1.0
s(lp1098
tp1099
a(S'signor'
p1100
(dp1101
S'NOUN'
p1102
F1.0
s(lp1103
(g24
I0
tp1104
atp1105
a(S'presidente'
p1106
(dp1107
S'NOUN'
p1108
F1.0
s(lp1109
(g17
I1
tp1110
atp1111
a(g40
(dp1112
g5
F1.0
s(lp1113
(g40
I2
tp1114
atp1115
a(S'vorrei'
p1116
(dp1117
S'VERB'
p1118
F1.0
s(lp1119
(g56
I5
tp1120
atp1121
a(S'che'
p1122
(dp1123
S'PRON'
p1124
F0.952104
sS'CONJ'
p1125
F0.047524
sS'ADJ'
p1126
F0.000372
s(lp1127
(g111
I6
tp1128
atp1129
a(S'valutasse'
p1130
(dp1131
S'VERB'
p1132
F1.0
s(lp1133
(g65
I8
tp1134
atp1135
a(S'con'
p1136
(dp1137
S'ADP'
p1138
F1.0
s(lp1139
(g73
I9
tp1140
atp1141
a(S'la'
p1142
(dp1143
S'PRON'
p1144
F0.000199
sS'DET'
p1145
F0.999801
s(lp1146
(g82
I10
tp1147
atp1148
a(S'conferenza'
p1149
(dp1150
S'NOUN'
p1151
F1.0
s(lp1152
(g89
I11
tp1153
atp1154
a(S'dei'
p1155
(dp1156
S'NOUN'
p1157
F1e-06
sS'DEF'
p1158
F0.001164
sS'ADP'
p1159
F0.998835
s(lp1160
(g97
I12
tp1161
atp1162
a(S'presidenti'
p1163
(dp1164
S'NOUN'
p1165
F1.0
s(lp1166
(g104
I13
tp1167
atp1168
a(S'la'
p1169
(dp1170
S'PRON'
p1171
F0.000887
sS'DET'
p1172
F0.999113
s(lp1173
tp1174
a(S'possibilit\xc3\xa0'
p1175
(dp1176
S'NOUN'
p1177
F1.0
s(lp1178
(g118
I14
tp1179
atp1180
a(S'di'
p1181
(dp1182
S'CONJ'
p1183
F6e-06
sS'ADP'
p1184
F0.999994
s(lp1185
tp1186
a(S'anticipare'
p1187
(dp1188
S'VERB'
p1189
F1.0
s(lp1190
(g118
I14
tp1191
atp1192
a(S"nell'"
p1193
(dp1194
S'ADJ'
p1195
F0.005631
sS'VERB'
p1196
F0.01458
sS'NOUN'
p1197
F0.979789
s(lp1198
(g154
I15
tp1199
atp1200
a(S'ordine'
p1201
(dp1202
S'NOUN'
p1203
F1.0
s(lp1204
(g170
I16
tp1205
atp1206
a(S'dei'
p1207
(dp1208
S'NOUN'
p1209
F1e-06
sS'DEF'
p1210
F0.001164
sS'ADP'
p1211
F0.998835
s(lp1212
tp1213
a(S'lavori'
p1214
(dp1215
S'VERB'
p1216
F0.000183
sS'NOUN'
p1217
F0.999817
s(lp1218
(g118
I14
tp1219
atp1220
a(S'gli'
p1221
(dp1222
S'PRON'
p1223
F0.001981
sS'DET'
p1224
F0.998019
s(lp1225
tp1226
a(S'interventi'
p1227
(dp1228
S'NOUN'
p1229
F1.0
s(lp1230
(g161
I17
tp1231
atp1232
a(S'di'
p1233
(dp1234
S'CONJ'
p1235
F1.6e-05
sS'ADP'
p1236
F0.999984
s(lp1237
tp1238
a(S'un'
p1239
(dp1240
S'PRON'
p1241
F0.001669
sS'DEF'
p1242
F0.998331
s(lp1243
tp1244
a(S'minuto'
p1245
(dp1246
S'NOUN'
p1247
F0.340165
sS'ADJ'
p1248
F0.659835
s(lp1249
(g170
I16
tp1250
atp1251
a(g40
(dp1252
g5
F1.0
s(lp1253
(g40
I19
tp1254
atp1255
a(S'in'
p1256
(dp1257
S'ADP'
p1258
F1.0
s(lp1259
(g145
I18
tp1260
atp1261
a(S'quanto'
p1262
(dp1263
S'ADV'
p1264
F0.379606
sS'PRON'
p1265
F0.551724
sS'ADJ'
p1266
F0.062576
sS'NOUN'
p1267
F0.006095
s(lp1268
(g198
I20
tp1269
atp1270
a(S'nelle'
p1271
(dp1272
S'ADP'
p1273
F1.0
s(lp1274
(g205
I21
tp1275
atp1276
a(S'ultime'
p1277
(dp1278
S'NOUN'
p1279
F0.243981
sS'ADJ'
p1280
F0.756019
s(lp1281
(g226
I23
tp1282
atp1283
a(S'tornate'
p1284
(dp1285
S'VERB'
p1286
F0.776458
sS'NOUN'
p1287
F0.223542
s(lp1288
(g238
I24
tp1289
atp1290
a(S'questo'
p1291
(dp1292
S'PRON'
p1293
F1.0
s(lp1294
(g249
I25
tp1295
atp1296
a(S'punto'
p1297
(dp1298
S'ADV'
p1299
F0.006065
sS'ADJ'
p1300
F0.001152
sS'VERB'
p1301
F0.000718
sS'NOUN'
p1302
F0.992064
s(lp1303
tp1304
a(S'\xc3\xa8'
p1305
(dp1306
S'VERB'
p1307
F1.0
s(lp1308
tp1309
a(S'stato'
p1310
(dp1311
S'VERB'
p1312
F0.989146
sS'NOUN'
p1313
F0.010854
s(lp1314
(g262
I26
tp1315
atp1316
a(S'rinviato'
p1317
(dp1318
S'VERB'
p1319
F1.0
s(lp1320
tp1321
a(S'fino'
p1322
(dp1323
S'CONJ'
p1324
F0.005803
sS'ADJ'
p1325
F0.000811
sS'ADP'
p1326
F0.993386
s(lp1327
(g269
I27
tp1328
atp1329
a(S"all'"
p1330
(dp1331
S'ADJ'
p1332
F0.001729
sS'VERB'
p1333
F0.013168999999999998
sS'NOUN'
p1334
F0.985101
s(lp1335
(g276
I29
tp1336
atp1337
a(S'ultima'
p1338
(dp1339
S'NOUN'
p1340
F0.278297
sS'VERB'
p1341
F0.182307
sS'ADJ'
p1342
F0.539396
s(lp1343
(g293
I31
tp1344
atp1345
a(S'ora'
p1346
(dp1347
S'ADV'
p1348
F0.786404
sS'CONJ'
p1349
F0.009623
sS'VERB'
p1350
F0.0061790000000000005
sS'NOUN'
p1351
F0.197794
s(lp1352
(g300
I32
tp1353
atp1354
a(S'delle'
p1355
(dp1356
S'DEF'
p1357
F0.003841
sS'ADP'
p1358
F0.996159
s(lp1359
(g307
I33
tp1360
atp1361
a(S'nostre'
p1362
(dp1363
S'PRON'
p1364
F1.0
s(lp1365
(g314
I34
tp1366
atp1367
a(S'discussioni'
p1368
(dp1369
S'NOUN'
p1370
F1.0
s(lp1371
(g322
I35
tp1372
atp1373
a(g5
(dp1374
g5
F1.0
s(lp1375
(g5
I36
tp1376
atp1377
asS'sk'
p1378
(lp1379
(S'v\xc3\xa1\xc5\xbeen\xc3\xbd'
p1380
(dp1381
S'VERB'
p1382
F0.141074
sS'ADJ'
p1383
F0.858926
s(lp1384
tp1385
a(S'p\xc3\xa1n'
p1386
(dp1387
S'NOUN'
p1388
F1.0
s(lp1389
(g24
I0
tp1390
atp1391
a(S'predseda'
p1392
(dp1393
S'NOUN'
p1394
F1.0
s(lp1395
(g17
I1
tp1396
atp1397
a(g40
(dp1398
g5
F1.0
s(lp1399
(g40
I2
tp1400
atp1401
a(S'bol'
p1402
(dp1403
S'VERB'
p1404
F0.9999999999999999
s(lp1405
tp1406
a(S'by'
p1407
(dp1408
S'PRT'
p1409
F0.999997
sg347
F3e-06
s(lp1410
(g352
I4
tp1411
atp1412
a(S'som'
p1413
(dp1414
S'VERB'
p1415
F1.0
s(lp1416
(g49
I3
tp1417
atp1418
a(S'r\xc3\xa1d'
p1419
(dp1420
S'ADV'
p1421
F0.00463
sS'NOUN'
p1422
F0.21924500000000002
sS'ADJ'
p1423
F0.773705
sg347
F0.00242
s(lp1424
tp1425
a(g40
(dp1426
g5
F1.0
s(lp1427
tp1428
a(S'keby'
p1429
(dp1430
g347
F4e-06
sS'CONJ'
p1431
F0.999996
s(lp1432
(g56
I5
tp1433
atp1434
a(S'ste'
p1435
(dp1436
S'NUM'
p1437
F0.0
sS'VERB'
p1438
F1.0
s(lp1439
(g111
I6
tp1440
atp1441
a(S'spolu'
p1442
(dp1443
S'ADV'
p1444
F0.999923
sg347
F7.7e-05
s(lp1445
tp1446
a(S's'
p1447
(dp1448
g347
F0.000469
sS'CONJ'
p1449
F6e-05
sS'NOUN'
p1450
F4e-06
sS'ADP'
p1451
F0.99932
sS'PRT'
p1452
F0.000148
s(lp1453
(g73
I9
tp1454
atp1455
a(S'konferenciou'
p1456
(dp1457
S'NOUN'
p1458
F1.0
s(lp1459
(g89
I11
tp1460
atp1461
a(S'predsedov'
p1462
(dp1463
S'ADJ'
p1464
F0.007484
sS'NOUN'
p1465
F0.992516
s(lp1466
(g104
I13
tp1467
atp1468
a(S'zv\xc3\xa1\xc5\xbeili'
p1469
(dp1470
S'VERB'
p1471
F1.0
s(lp1472
(g118
I14
tp1473
atp1474
a(S'zaradenie'
p1475
(dp1476
S'NOUN'
p1477
F1.0
s(lp1478
(g118
I14
tp1479
atp1480
a(S'jednomin\xc3\xbatov\xc3\xbdch'
p1481
(dp1482
S'ADJ'
p1483
F1.0
s(lp1484
(g170
I16
tp1485
atp1486
a(S'vyst\xc3\xbapen\xc3\xad'
p1487
(dp1488
S'NOUN'
p1489
F1.0
s(lp1490
(g161
I17
tp1491
atp1492
a(S'na'
p1493
(dp1494
g347
F3.8e-05
sS'CONJ'
p1495
F1.3e-05
sS'ADP'
p1496
F0.999947
sS'PRT'
p1497
F1e-06
s(lp1498
(g154
I15
tp1499
atp1500
a(S'skor\xc5\xa1\xc3\xad'
p1501
(dp1502
S'ADJ'
p1503
F1.0
s(lp1504
tp1505
a(S'\xc4\x8das'
p1506
(dp1507
S'VERB'
p1508
F4.5e-05
sS'NOUN'
p1509
F0.999955
s(lp1510
(g118
I14
tp1511
atp1512
a(g40
(dp1513
g5
F1.0
s(lp1514
(g40
I19
tp1515
atp1516
a(S'preto\xc5\xbee'
p1517
(dp1518
S'CONJ'
p1519
F1.0
s(lp1520
(g198
I20
tp1521
atp1522
a(S'na'
p1523
(dp1524
S'PRT'
p1525
F4.1e-05
sS'CONJ'
p1526
F3.4e-05
sS'ADP'
p1527
F0.999878
sg347
F4.8e-05
s(lp1528
(g205
I21
tp1529
atp1530
a(S'posledn\xc3\xbdch'
p1531
(dp1532
S'NUM'
p1533
F0.323221
sS'ADJ'
p1534
F0.676779
s(lp1535
(g226
I23
tp1536
atp1537
a(S'sch\xc3\xb4dzach'
p1538
(dp1539
S'NOUN'
p1540
F1.0
s(lp1541
(g238
I24
tp1542
atp1543
a(S'boli'
p1544
(dp1545
S'VERB'
p1546
F0.999999
s(lp1547
(g262
I26
tp1548
atp1549
a(S'odsunut\xc3\xa9'
p1550
(dp1551
S'VERB'
p1552
F1.0
s(lp1553
(g269
I27
tp1554
atp1555
a(S'na'
p1556
(dp1557
g347
F0.00031
sS'CONJ'
p1558
F1.6e-05
sS'ADP'
p1559
F0.999668
sS'PRT'
p1560
F5e-06
s(lp1561
(g276
I29
tp1562
atp1563
a(S'z\xc3\xa1ver'
p1564
(dp1565
S'NOUN'
p1566
F1.0
s(lp1567
(g293
I31
tp1568
atp1569
a(S'na\xc5\xa1ich'
p1570
(dp1571
S'PRON'
p1572
F0.998104
sS'NOUN'
p1573
F0.000201
sg347
F0.001695
s(lp1574
(g314
I34
tp1575
atp1576
a(S'rozpr\xc3\xa1v'
p1577
(dp1578
g347
F0.119608
sS'NOUN'
p1579
F0.880392
s(lp1580
(g322
I35
tp1581
atp1582
a(g5
(dp1583
g5
F1.0
s(lp1584
(g5
I36
tp1585
atp1586
asS'pl'
p1587
(lp1588
(S'panie'
p1589
(dp1590
S'NOUN'
p1591
F1.0
s(lp1592
(g24
I0
tp1593
atp1594
a(S'przewodnicz\xc4\x85cy'
p1595
(dp1596
S'VERB'
p1597
F0.000653
sS'NOUN'
p1598
F0.999348
s(lp1599
tp1600
a(S'!'
p1601
(dp1602
g5
F1.0
s(lp1603
(g17
I1
tp1604
atp1605
a(S'chcia\xc5\x82bym'
p1606
(dp1607
S'ADV'
p1608
F0.025285
sS'ADJ'
p1609
F0.07822699999999999
sS'VERB'
p1610
F0.4107159999999998
sS'NOUN'
p1611
F0.4857719999999999
s(lp1612
(g352
I4
tp1613
atp1614
a(g40
(dp1615
g347
F0.0
sg5
F1.0
s(lp1616
tp1617
a(S'aby'
p1618
(dp1619
S'PRT'
p1620
F0.001857
sS'CONJ'
p1621
F0.998143
s(lp1622
(g127
I7
tp1623
atp1624
a(S'wsp\xc3\xb3lnie'
p1625
(dp1626
S'ADV'
p1627
F1.0
s(lp1628
(g65
I8
tp1629
atp1630
a(S'z'
p1631
(dp1632
S'PRT'
p1633
F3.3e-05
sS'VERB'
p1634
F1e-06
sS'NOUN'
p1635
F0.0
sS'ADP'
p1636
F0.999967
sg347
F0.0
s(lp1637
(g73
I9
tp1638
atp1639
a(S'konferencj\xc4\x85'
p1640
(dp1641
S'ADV'
p1642
F1e-06
sS'ADJ'
p1643
F1.2e-05
sS'VERB'
p1644
F1.1000000000000001e-05
sS'NOUN'
p1645
F0.9999750000000004
s(lp1646
(g89
I11
tp1647
atp1648
a(S'przewodnicz\xc4\x85cych'
p1649
(dp1650
S'NOUN'
p1651
F1.0
s(lp1652
(g104
I13
tp1653
atp1654
a(S'rozwa\xc5\xbcy\xc5\x82'
p1655
(dp1656
S'ADV'
p1657
F2.4e-05
sS'ADJ'
p1658
F1e-05
sS'VERB'
p1659
F0.9835
sS'NOUN'
p1660
F0.016465
s(lp1661
(g118
I14
tp1662
atp1663
a(S'pan'
p1664
(dp1665
g347
F5.4e-05
sS'NOUN'
p1666
F0.999946
s(lp1667
(g118
I14
tp1668
atp1669
a(S'umieszczenie'
p1670
(dp1671
S'VERB'
p1672
F1.0
s(lp1673
(g118
I14
tp1674
atp1675
a(S'wyst\xc4\x85pie\xc5\x84'
p1676
(dp1677
S'NOUN'
p1678
F1.0
s(lp1679
(g161
I17
tp1680
atp1681
a(S'jednominutowych'
p1682
(dp1683
S'ADV'
p1684
F0.005268
sS'NOUN'
p1685
F0.07321899999999999
sS'VERB'
p1686
F0.043933999999999994
sS'ADJ'
p1687
F0.877576
s(lp1688
(g170
I16
tp1689
atp1690
a(S'wcze\xc5\x9bniej'
p1691
(dp1692
S'ADV'
p1693
F1.0
s(lp1694
(g145
I18
tp1695
atp1696
a(S'w'
p1697
(dp1698
S'ADJ'
p1699
F0.0
sg347
F0.0
sS'NOUN'
p1700
F0.0
sS'ADP'
p1701
F0.9999999999999999
s(lp1702
(g154
I15
tp1703
atp1704
a(S'porz\xc4\x85dku'
p1705
(dp1706
S'NOUN'
p1707
F1.0
s(lp1708
tp1709
a(S'dziennym'
p1710
(dp1711
S'ADJ'
p1712
F1.0
s(lp1713
(g118
I14
tp1714
atp1715
a(g40
(dp1716
g347
F0.0
sg5
F1.0
s(lp1717
(g40
I19
tp1718
atp1719
a(S'poniewa\xc5\xbc'
p1720
(dp1721
S'CONJ'
p1722
F1.0
s(lp1723
(g198
I20
tp1724
atp1725
a(g1697
(dp1726
S'ADJ'
p1727
F0.0
sg347
F0.0
sS'NOUN'
p1728
F0.0
sS'ADP'
p1729
F1.0
s(lp1730
(g205
I21
tp1731
atp1732
a(S'trakcie'
p1733
(dp1734
S'ADV'
p1735
F0.002602
sS'NOUN'
p1736
F0.997398
s(lp1737
tp1738
a(S'ostatnich'
p1739
(dp1740
S'ADJ'
p1741
F0.9999999999999999
s(lp1742
(g226
I23
tp1743
atp1744
a(S'sesji'
p1745
(dp1746
S'NOUN'
p1747
F1.0
s(lp1748
tp1749
a(S'miesi\xc4\x99cznych'
p1750
(dp1751
S'ADJ'
p1752
F1.0
s(lp1753
(g238
I24
tp1754
atp1755
a(S'by\xc5\x82y'
p1756
(dp1757
S'VERB'
p1758
F0.999937
sS'ADJ'
p1759
F6.4e-05
s(lp1760
(g262
I26
tp1761
atp1762
a(S'one'
p1763
(dp1764
S'PRON'
p1765
F0.9998339999999999
sS'ADJ'
p1766
F0.000152
sg347
F4e-06
sS'NOUN'
p1767
F1e-05
s(lp1768
(g249
I25
tp1769
atp1770
a(S'spychane'
p1771
(dp1772
S'NOUN'
p1773
F0.0052
sS'VERB'
p1774
F0.984757
sS'ADJ'
p1775
F0.010042999999999998
s(lp1776
(g269
I27
tp1777
atp1778
a(S'na'
p1779
(dp1780
S'PRT'
p1781
F8e-06
sS'VERB'
p1782
F9e-06
sS'NOUN'
p1783
F2e-06
sS'ADP'
p1784
F0.9999760000000001
sg347
F6e-06
s(lp1785
(g276
I29
tp1786
atp1787
a(S'ostatni\xc4\x85'
p1788
(dp1789
S'ADJ'
p1790
F1.0
s(lp1791
(g293
I31
tp1792
atp1793
a(S'godzin\xc4\x99'
p1794
(dp1795
S'NOUN'
p1796
F1.0
s(lp1797
(g300
I32
tp1798
atp1799
a(S'naszych'
p1800
(dp1801
S'NOUN'
p1802
F0.00044800000000000005
sS'ADJ'
p1803
F0.9995530000000001
s(lp1804
(g314
I34
tp1805
atp1806
a(S'rozm\xc3\xb3w'
p1807
(dp1808
S'NOUN'
p1809
F1.0
s(lp1810
(g322
I35
tp1811
atp1812
a(g5
(dp1813
g5
F1.0
s(lp1814
(g5
I36
tp1815
atp1816
asS'sl'
p1817
(lp1818
(S'gospod'
p1819
(dp1820
S'NOUN'
p1821
F1.0
s(lp1822
(g24
I0
tp1823
atp1824
a(S'predsednik'
p1825
(dp1826
S'NOUN'
p1827
F1.0
s(lp1828
(g17
I1
tp1829
atp1830
a(g40
(dp1831
g5
F1.0
s(lp1832
(g40
I2
tp1833
atp1834
a(S'prosil'
p1835
(dp1836
S'VERB'
p1837
F1.0
s(lp1838
(g56
I5
tp1839
atp1840
a(S'bi'
p1841
(dp1842
g347
F0.003096
sS'VERB'
p1843
F0.996904
s(lp1844
(g352
I4
tp1845
atp1846
a(g40
(dp1847
g5
F1.0
s(lp1848
tp1849
a(S'da'
p1850
(dp1851
S'PRT'
p1852
F8.4e-05
sS'CONJ'
p1853
F0.999555
sS'VERB'
p1854
F0.000358
sg347
F3e-06
s(lp1855
(g65
I8
tp1856
atp1857
a(S'na'
p1858
(dp1859
S'ADP'
p1860
F1.0
s(lp1861
(g82
I10
tp1862
atp1863
a(S'konferenci'
p1864
(dp1865
S'NOUN'
p1866
F1.0
s(lp1867
(g89
I11
tp1868
atp1869
a(S'predsednikov'
p1870
(dp1871
S'ADJ'
p1872
F0.011118
sS'NOUN'
p1873
F0.9888819999999999
s(lp1874
(g104
I13
tp1875
atp1876
a(S'preu\xc4\x8dite'
p1877
(dp1878
S'VERB'
p1879
F1.0
s(lp1880
(g118
I14
tp1881
atp1882
a(S'\xc4\x8dasovni'
p1883
(dp1884
S'ADJ'
p1885
F1.0
s(lp1886
(g118
I14
tp1887
atp1888
a(S'razpored'
p1889
(dp1890
S'NOUN'
p1891
F1.0
s(lp1892
(g118
I14
tp1893
atp1894
a(S'enominutnih'
p1895
(dp1896
S'ADV'
p1897
F1.3e-05
sS'NOUN'
p1898
F0.000242
sS'ADJ'
p1899
F0.999742
s(lp1900
(g170
I16
tp1901
atp1902
a(S'govorov'
p1903
(dp1904
S'NOUN'
p1905
F1.0
s(lp1906
(g161
I17
tp1907
atp1908
a(g40
(dp1909
g5
F1.0
s(lp1910
(g40
I19
tp1911
atp1912
a(S'saj'
p1913
(dp1914
S'CONJ'
p1915
F1.0
s(lp1916
(g198
I20
tp1917
atp1918
a(S'so'
p1919
(dp1920
g347
F2e-06
sS'VERB'
p1921
F0.999998
s(lp1922
(g154
I15
tp1923
atp1924
a(S'bili'
p1925
(dp1926
S'VERB'
p1927
F1.0
s(lp1928
(g118
I14
tp1929
atp1930
a(S'ti'
p1931
(dp1932
S'PRON'
p1933
F0.994338
sg347
F0.005662
s(lp1934
tp1935
a(S'na'
p1936
(dp1937
S'ADP'
p1938
F1.0
s(lp1939
(g205
I21
tp1940
atp1941
a(S'zadnjih'
p1942
(dp1943
S'ADJ'
p1944
F0.9999999999999999
s(lp1945
(g226
I23
tp1946
atp1947
a(S'delnih'
p1948
(dp1949
S'ADV'
p1950
F2e-06
sS'NOUN'
p1951
F0.025599000000000007
sS'VERB'
p1952
F4.9999999999999996e-06
sS'ADJ'
p1953
F0.9743910000000001
s(lp1954
tp1955
a(S'zasedanjih'
p1956
(dp1957
S'ADV'
p1958
F0.001002
sS'ADJ'
p1959
F0.017152
sS'VERB'
p1960
F0.003647
sS'NOUN'
p1961
F0.978178
sS'PRON'
p1962
F1.7e-05
s(lp1963
(g238
I24
tp1964
atp1965
a(S'prestavljeni'
p1966
(dp1967
S'ADV'
p1968
F0.01275
sS'NOUN'
p1969
F0.1540459999999999
sS'VERB'
p1970
F0.274233
sS'ADJ'
p1971
F0.558974
s(lp1972
(g118
I14
tp1973
atp1974
a(S'na'
p1975
(dp1976
S'ADP'
p1977
F1.0
s(lp1978
(g276
I29
tp1979
atp1980
a(S'zadnjo'
p1981
(dp1982
S'ADJ'
p1983
F1.0
s(lp1984
(g293
I31
tp1985
atp1986
a(S'uro'
p1987
(dp1988
S'NOUN'
p1989
F1.0
s(lp1990
(g300
I32
tp1991
atp1992
a(S'na\xc5\xa1ih'
p1993
(dp1994
S'PRON'
p1995
F1.000001
s(lp1996
(g314
I34
tp1997
atp1998
a(S'razprav'
p1999
(dp2000
S'NOUN'
p2001
F1.0
s(lp2002
(g322
I35
tp2003
atp2004
a(g5
(dp2005
g5
F1.0
s(lp2006
(g5
I36
tp2007
atp2008
asS'es'
p2009
(lp2010
(S'se\xc3\xb1or'
p2011
(dp2012
S'NOUN'
p2013
F1.0
s(lp2014
(g24
I0
tp2015
atp2016
a(S'presidente'
p2017
(dp2018
S'NOUN'
p2019
F1.0
s(lp2020
(g17
I1
tp2021
atp2022
a(g40
(dp2023
g5
F1.0
s(lp2024
(g40
I2
tp2025
atp2026
a(S'quisiera'
p2027
(dp2028
S'VERB'
p2029
F1.0
s(lp2030
(g56
I5
tp2031
atp2032
a(S'que'
p2033
(dp2034
g347
F0.0
sS'CONJ'
p2035
F1.0
s(lp2036
(g127
I7
tp2037
atp2038
a(S'considerase'
p2039
(dp2040
S'VERB'
p2041
F1.0
s(lp2042
(g65
I8
tp2043
atp2044
a(g40
(dp2045
g5
F1.0
s(lp2046
tp2047
a(S'junto'
p2048
(dp2049
S'ADP'
p2050
F1.0
s(lp2051
tp2052
a(S'con'
p2053
(dp2054
S'ADP'
p2055
F1.0
s(lp2056
(g73
I9
tp2057
atp2058
a(S'la'
p2059
(dp2060
S'NOUN'
p2061
F0.0
sS'PRON'
p2062
F0.0
sS'DET'
p2063
F0.999999
sg347
F0.0
s(lp2064
(g82
I10
tp2065
atp2066
a(S'conferencia'
p2067
(dp2068
S'NOUN'
p2069
F1.0
s(lp2070
(g89
I11
tp2071
atp2072
a(S'de'
p2073
(dp2074
g347
F2.9e-05
sS'CONJ'
p2075
F0.000449
sS'ADP'
p2076
F0.999522
s(lp2077
(g97
I12
tp2078
atp2079
a(S'presidentes'
p2080
(dp2081
S'NOUN'
p2082
F1.0
s(lp2083
(g104
I13
tp2084
atp2085
a(g40
(dp2086
g5
F1.0
s(lp2087
tp2088
a(S'la'
p2089
(dp2090
S'PRON'
p2091
F3.5e-05
sS'DET'
p2092
F0.999959
sS'NOUN'
p2093
F0.0
sg347
F5e-06
s(lp2094
tp2095
a(S'posibilidad'
p2096
(dp2097
S'NOUN'
p2098
F1.0
s(lp2099
tp2100
a(S'de'
p2101
(dp2102
g347
F0.0
sS'CONJ'
p2103
F0.345844
sS'ADP'
p2104
F0.654156
s(lp2105
tp2106
a(S'programar'
p2107
(dp2108
S'VERB'
p2109
F1.0
s(lp2110
(g118
I14
tp2111
atp2112
a(S'las'
p2113
(dp2114
S'PRON'
p2115
F2e-06
sS'DET'
p2116
F0.999998
s(lp2117
(g154
I15
tp2118
atp2119
a(S'intervenciones'
p2120
(dp2121
S'NOUN'
p2122
F1.0
s(lp2123
(g161
I17
tp2124
atp2125
a(S'de'
p2126
(dp2127
g347
F0.0
sS'CONJ'
p2128
F1.7e-05
sS'ADP'
p2129
F0.999983
s(lp2130
(g170
I16
tp2131
atp2132
a(S'un'
p2133
(dp2134
g347
F0.0
sS'DET'
p2135
F1.0
s(lp2136
tp2137
a(S'minuto'
p2138
(dp2139
S'NOUN'
p2140
F1.0
s(lp2141
(g170
I16
tp2142
atp2143
a(S'antes'
p2144
(dp2145
S'ADV'
p2146
F0.999962
sS'NOUN'
p2147
F3.8e-05
s(lp2148
(g145
I18
tp2149
atp2150
a(g40
(dp2151
g5
F1.0
s(lp2152
(g40
I19
tp2153
atp2154
a(S'porque'
p2155
(dp2156
S'CONJ'
p2157
F1.0
s(lp2158
(g198
I20
tp2159
atp2160
a(S'en'
p2161
(dp2162
g347
F0.0
sS'CONJ'
p2163
F1e-06
sS'ADP'
p2164
F0.999999
s(lp2165
(g205
I21
tp2166
atp2167
a(S'los'
p2168
(dp2169
S'PRON'
p2170
F0.0
sS'DET'
p2171
F1.0
s(lp2172
(g454
I22
tp2173
atp2174
a(S'dos'
p2175
(dp2176
S'NUM'
p2177
F0.080165
sS'NOUN'
p2178
F0.919835
s(lp2179
tp2180
a(S'\xc3\xbaltimos'
p2181
(dp2182
S'ADJ'
p2183
F1.0
s(lp2184
(g226
I23
tp2185
atp2186
a(S'per\xc3\xadodos'
p2187
(dp2188
S'NOUN'
p2189
F1.0
s(lp2190
(g238
I24
tp2191
atp2192
a(S'parciales'
p2193
(dp2194
S'ADJ'
p2195
F1.0
s(lp2196
tp2197
a(S'de'
p2198
(dp2199
g347
F3.1e-05
sS'CONJ'
p2200
F0.001485
sS'ADP'
p2201
F0.998485
s(lp2202
tp2203
a(S'sesiones'
p2204
(dp2205
S'NOUN'
p2206
F1.0
s(lp2207
(g238
I24
tp2208
atp2209
a(S'se'
p2210
(dp2211
S'PRON'
p2212
F1.0
sS'VERB'
p2213
F0.0
s(lp2214
(g262
I26
tp2215
atp2216
a(S'retrasaron'
p2217
(dp2218
S'VERB'
p2219
F1.0
s(lp2220
(g269
I27
tp2221
atp2222
a(S'hasta'
p2223
(dp2224
S'ADP'
p2225
F1.0
s(lp2226
(g276
I29
tp2227
atp2228
a(S'el'
p2229
(dp2230
S'PRON'
p2231
F1.4e-05
sS'DET'
p2232
F0.999986
s(lp2233
(g285
I30
tp2234
atp2235
a(S'final'
p2236
(dp2237
S'ADJ'
p2238
F0.054554
sS'NOUN'
p2239
F0.945446
s(lp2240
(g293
I31
tp2241
atp2242
a(S'de'
p2243
(dp2244
g347
F0.0
sS'CONJ'
p2245
F0.000325
sS'ADP'
p2246
F0.999675
s(lp2247
(g307
I33
tp2248
atp2249
a(S'nuestros'
p2250
(dp2251
S'PRON'
p2252
F1.0
s(lp2253
(g314
I34
tp2254
atp2255
a(S'debates'
p2256
(dp2257
S'VERB'
p2258
F1.0
s(lp2259
(g322
I35
tp2260
atp2261
a(g5
(dp2262
g5
F1.0
s(lp2263
(g5
I36
tp2264
atp2265
as.