(dp0
S'fr'
p1
(lp2
(S'la'
p3
(dp4
S'PRON'
p5
F8.2e-05
sS'DET'
p6
F0.999918
sS'NOUN'
p7
F0.0
s(lp8
(S'the'
p9
I0
tp10
atp11
a(S'cl\xc3\xa9'
p12
(dp13
S'NOUN'
p14
F1.0
s(lp15
(S'key'
p16
I1
tp17
atp18
a(S'serait'
p19
(dp20
S'VERB'
p21
F1.0
s(lp22
(S'would'
p23
I2
tp24
atp25
a(S'de'
p26
(dp27
S'ADP'
p28
F1.0
s(lp29
(S'to'
p30
I4
tp31
atp32
a(S'diviser'
p33
(dp34
S'VERB'
p35
F1.0
s(lp36
tp37
a(S'\xc3\xa0'
p38
(dp39
S'ADP'
p40
F1.0
s(lp41
(g30
I4
tp42
atp43
a(S'parts'
p44
(dp45
S'NOUN'
p46
F1.0
s(lp47
tp48
a(S'\xc3\xa9gales'
p49
(dp50
S'VERB'
p51
F0.002325
sS'ADJ'
p52
F0.997675
s(lp53
(S'equally'
p54
I11
tp55
atp56
a(S'entre'
p57
(dp58
S'VERB'
p59
F0.000305
sS'ADP'
p60
F0.999694
s(lp61
(S'between'
p62
I12
tp63
atp64
a(S'les'
p65
(dp66
S'PRON'
p67
F5.6e-05
sS'DET'
p68
F0.999943
sS'ADP'
p69
F2e-06
s(lp70
(S'the'
p71
I13
tp72
atp73
a(S'sexes'
p74
(dp75
S'NOUN'
p76
F1.0
s(lp77
(S'sexes'
p78
I14
tp79
atp80
a(S'le'
p81
(dp82
S'PRON'
p83
F0.000277
sS'DET'
p84
F0.999723
s(lp85
tp86
a(S'temps'
p87
(dp88
S'NOUN'
p89
F1.0
s(lp90
(S'time'
p91
I6
tp92
atp93
a(S'\xc3\xa0'
p94
(dp95
S'ADP'
p96
F1.0
s(lp97
(g30
I4
tp98
atp99
a(S'consacrer'
p100
(dp101
S'VERB'
p102
F1.0
s(lp103
(S'divide'
p104
I5
tp105
atp106
a(S'\xc3\xa0'
p107
(dp108
S'ADP'
p109
F1.0
s(lp110
(S'for'
p111
I7
tp112
atp113
a(S'la'
p114
(dp115
S'PRON'
p116
F1.2e-05
sS'DET'
p117
F0.999988
sS'NOUN'
p118
F0.0
s(lp119
tp120
a(S'famille'
p121
(dp122
S'NOUN'
p123
F1.0
s(lp124
(S'family'
p125
I8
tp126
atp127
a(S'et'
p128
(dp129
S'CONJ'
p130
F1.0
s(lp131
(S'and'
p132
I9
tp133
atp134
a(S'\xc3\xa0'
p135
(dp136
S'ADP'
p137
F1.0
s(lp138
tp139
a(S'la'
p140
(dp141
S'PRON'
p142
F1.2e-05
sS'DET'
p143
F0.999988
sS'NOUN'
p144
F0.0
s(lp145
tp146
a(S'carri\xc3\xa8re'
p147
(dp148
S'NOUN'
p149
F1.0
s(lp150
(S'career'
p151
I10
tp152
atp153
a(S';'
p154
(dp155
S'.'
p156
F1.0
s(lp157
(g154
I15
tp158
atp159
a(S'la'
p160
(dp161
S'PRON'
p162
F6.9e-05
sS'DET'
p163
F0.999931
sS'NOUN'
p164
F0.0
s(lp165
(S'the'
p166
I16
tp167
atp168
a(S'fondation'
p169
(dp170
S'NOUN'
p171
F1.0
s(lp172
(S'foundation'
p173
I18
tp174
atp175
a(S'de'
p176
(dp177
S'ADP'
p178
F1.0
s(lp179
(g30
I4
tp180
atp181
a(S'dublin'
p182
(dp183
S'ADJ'
p184
F0.419522
sS'NOUN'
p185
F0.580478
s(lp186
(S'dublin'
p187
I17
tp188
atp189
a(S'a'
p190
(dp191
S'VERB'
p192
F1.0
s(lp193
(S'has'
p194
I19
tp195
atp196
a(S'r\xc3\xa9alis\xc3\xa9'
p197
(dp198
S'VERB'
p199
F1.0
s(lp200
(S'carried'
p201
I20
tp202
atp203
a(S"d'"
p204
(dp205
S'ADJ'
p206
F0.185351
sS'VERB'
p207
F0.35318400000000005
sS'NOUN'
p208
F0.461464
s(lp209
(S'some'
p210
I22
tp211
atp212
a(S'excellentes'
p213
(dp214
S'ADJ'
p215
F1.0
s(lp216
(S'excellent'
p217
I23
tp218
atp219
a(S'recherches'
p220
(dp221
S'VERB'
p222
F0.005663
sS'NOUN'
p223
F0.994337
s(lp224
(S'research'
p225
I24
tp226
atp227
a(S'\xc3\xa0'
p228
(dp229
S'ADP'
p230
F1.0
s(lp231
(S'on'
p232
I25
tp233
atp234
a(S'ce'
p235
(dp236
S'PRON'
p237
F1.0
s(lp238
(S'this'
p239
I26
tp240
atp241
a(S'sujet'
p242
(dp243
S'ADJ'
p244
F0.327523
sS'NOUN'
p245
F0.672477
s(lp246
tp247
a(g156
(dp248
g156
F1.0
s(lp249
(g156
I27
tp250
atp251
asS'en'
p252
(lp253
(g9
(dp254
S'NOUN'
p255
F5e-06
sS'DET'
p256
F0.999995
s(lp257
(g9
I0
tp258
atp259
a(g16
(dp260
S'ADJ'
p261
F0.111065
sS'VERB'
p262
F1.7e-05
sS'NOUN'
p263
F0.888918
s(lp264
(g16
I1
tp265
atp266
a(g23
(dp267
S'VERB'
p268
F1.0
s(lp269
(g23
I2
tp270
atp271
a(S'be'
p272
(dp273
S'VERB'
p274
F1.0
s(lp275
(g272
I3
tp276
atp277
a(g30
(dp278
S'ADV'
p279
F4e-06
sS'PRT'
p280
F0.999995
sS'ADP'
p281
F1e-06
s(lp282
(g30
I4
tp283
atp284
a(g104
(dp285
S'VERB'
p286
F0.955867
sS'NOUN'
p287
F0.044133
s(lp288
(g104
I5
tp289
atp290
a(g91
(dp291
S'VERB'
p292
F0.00029299999999999997
sS'NOUN'
p293
F0.999708
s(lp294
(g91
I6
tp295
atp296
a(g111
(dp297
S'ADP'
p298
F1.0
s(lp299
(g111
I7
tp300
atp301
a(g125
(dp302
S'NOUN'
p303
F1.0
s(lp304
(g125
I8
tp305
atp306
a(g132
(dp307
S'CONJ'
p308
F0.999998
sS'NOUN'
p309
F2e-06
s(lp310
(g132
I9
tp311
atp312
a(g151
(dp313
S'VERB'
p314
F0.078777
sS'NOUN'
p315
F0.921223
s(lp316
(g151
I10
tp317
atp318
a(g54
(dp319
S'ADV'
p320
F1.0
s(lp321
(g54
I11
tp322
atp323
a(g62
(dp324
S'ADV'
p325
F0.0011
sS'ADP'
p326
F0.9989
s(lp327
(g62
I12
tp328
atp329
a(g71
(dp330
S'NOUN'
p331
F1.1e-05
sS'DET'
p332
F0.999989
s(lp333
(g71
I13
tp334
atp335
a(g78
(dp336
S'VERB'
p337
F0.002205
sS'NOUN'
p338
F0.997795
s(lp339
(g78
I14
tp340
atp341
a(g154
(dp342
g156
F1.0
s(lp343
(g154
I15
tp344
atp345
a(g166
(dp346
S'NOUN'
p347
F5e-06
sS'DET'
p348
F0.999995
s(lp349
(g166
I16
tp350
atp351
a(g187
(dp352
S'ADJ'
p353
F0.011007
sS'VERB'
p354
F0.000231
sS'NOUN'
p355
F0.988762
s(lp356
(g187
I17
tp357
atp358
a(g173
(dp359
S'NOUN'
p360
F1.0
s(lp361
(g173
I18
tp362
atp363
a(g194
(dp364
S'VERB'
p365
F1.0
s(lp366
(g194
I19
tp367
atp368
a(g201
(dp369
S'VERB'
p370
F1.0
s(lp371
(g201
I20
tp372
atp373
a(S'out'
p374
(dp375
S'ADV'
p376
F0.018197
sS'NOUN'
p377
F9e-06
sS'ADP'
p378
F0.67561
sS'PRT'
p379
F0.306175
sS'VERB'
p380
F5e-06
sS'ADJ'
p381
F4e-06
s(lp382
(g374
I21
tp383
atp384
a(g210
(dp385
S'ADV'
p386
F0.001608
sS'DET'
p387
F0.998392
s(lp388
(g210
I22
tp389
atp390
a(g217
(dp391
S'ADJ'
p392
F1.0
s(lp393
(g217
I23
tp394
atp395
a(g225
(dp396
S'VERB'
p397
F5e-06
sS'NOUN'
p398
F0.999995
s(lp399
(g225
I24
tp400
atp401
a(g232
(dp402
S'ADV'
p403
F0.000492
sS'PRT'
p404
F0.000525
sS'ADJ'
p405
F0.0
sS'NOUN'
p406
F0.0
sS'ADP'
p407
F0.998983
s(lp408
(g232
I25
tp409
atp410
a(g239
(dp411
S'ADV'
p412
F0.000675
sS'NOUN'
p413
F0.005081
sS'DET'
p414
F0.994244
s(lp415
(g239
I26
tp416
atp417
a(g156
(dp418
g156
F1.0
s(lp419
(g156
I27
tp420
atp421
asS'nl'
p422
(lp423
(S'de'
p424
(dp425
S'DET'
p426
F1.0
s(lp427
(g9
I0
tp428
atp429
a(S'oplossing'
p430
(dp431
S'NOUN'
p432
F1.0
s(lp433
(g16
I1
tp434
atp435
a(S'zou'
p436
(dp437
S'VERB'
p438
F1.0
s(lp439
(g23
I2
tp440
atp441
a(S'zijn'
p442
(dp443
S'PRON'
p444
F0.000181
sS'VERB'
p445
F0.999811
sS'NOUN'
p446
F8e-06
s(lp447
(g272
I3
tp448
atp449
a(S'om'
p450
(dp451
S'ADV'
p452
F9.2e-05
sS'CONJ'
p453
F0.890483
sS'ADP'
p454
F0.109425
s(lp455
tp456
a(S'de'
p457
(dp458
S'DET'
p459
F1.0
s(lp460
tp461
a(S'tijd'
p462
(dp463
S'NOUN'
p464
F1.0
s(lp465
(g91
I6
tp466
atp467
a(S'voor'
p468
(dp469
S'ADV'
p470
F0.001032
sS'CONJ'
p471
F1e-06
sS'NOUN'
p472
F0.0
sS'ADP'
p473
F0.998967
s(lp474
(g111
I7
tp475
atp476
a(S'gezin'
p477
(dp478
S'NOUN'
p479
F1.0
s(lp480
(g125
I8
tp481
atp482
a(S'en'
p483
(dp484
S'CONJ'
p485
F1.0
s(lp486
(g132
I9
tp487
atp488
a(S'carri\xc3\xa8re'
p489
(dp490
S'NOUN'
p491
F1.0
s(lp492
(g151
I10
tp493
atp494
a(S'gelijk'
p495
(dp496
S'ADV'
p497
F0.007034
sS'NOUN'
p498
F0.000438
sS'VERB'
p499
F0.001835
sS'ADJ'
p500
F0.990693
s(lp501
(g54
I11
tp502
atp503
a(S'te'
p504
(dp505
S'PRT'
p506
F1.0
s(lp507
(g30
I4
tp508
atp509
a(S'verdelen'
p510
(dp511
S'VERB'
p512
F1.0
sS'NOUN'
p513
F0.0
s(lp514
(g104
I5
tp515
atp516
a(S'tussen'
p517
(dp518
S'ADP'
p519
F1.0
s(lp520
(g62
I12
tp521
atp522
a(S'de'
p523
(dp524
S'DET'
p525
F1.0
s(lp526
(g71
I13
tp527
atp528
a(S'seksen'
p529
(dp530
S'VERB'
p531
F4.9999999999999996e-06
sS'NOUN'
p532
F0.999995
s(lp533
(g78
I14
tp534
atp535
a(S','
p536
(dp537
g156
F1.0
s(lp538
(g154
I15
tp539
atp540
a(S'de'
p541
(dp542
S'DET'
p543
F1.0
s(lp544
(g166
I16
tp545
atp546
a(S'europese'
p547
(dp548
S'NOUN'
p549
F1.0
s(lp550
(g187
I17
tp551
atp552
a(S'stichting'
p553
(dp554
S'NOUN'
p555
F1.0
s(lp556
(g173
I18
tp557
atp558
a(S'ter'
p559
(dp560
S'ADV'
p561
F1.8e-05
sS'ADP'
p562
F0.999982
s(lp563
(g232
I25
tp564
atp565
a(S'verbetering'
p566
(dp567
S'NOUN'
p568
F1.0
s(lp569
(g173
I18
tp570
atp571
a(S'van'
p572
(dp573
S'ADP'
p574
F1.0
s(lp575
tp576
a(S'de'
p577
(dp578
S'DET'
p579
F1.0
s(lp580
tp581
a(S'leef-'
p582
(dp583
S'ADJ'
p584
F0.089655
sS'NOUN'
p585
F0.9103450000000001
s(lp586
tp587
a(S'en'
p588
(dp589
S'CONJ'
p590
F1.0
s(lp591
(g78
I14
tp592
atp593
a(S'arbeidsomstandigheden'
p594
(dp595
S'NOUN'
p596
F1.0
s(lp597
tp598
a(S'in'
p599
(dp600
S'ADV'
p601
F0.002284
sS'VERB'
p602
F1e-06
sS'ADP'
p603
F0.997715
s(lp604
tp605
a(S'dublin'
p606
(dp607
S'ADV'
p608
F0.000969
sS'ADJ'
p609
F0.006643
sS'NOUN'
p610
F0.992389
s(lp611
(g173
I18
tp612
atp613
a(S'heeft'
p614
(dp615
S'VERB'
p616
F1.0
s(lp617
(g194
I19
tp618
atp619
a(S'hierover'
p620
(dp621
S'ADV'
p622
F1.0
s(lp623
(g239
I26
tp624
atp625
a(S'uitstekend'
p626
(dp627
S'VERB'
p628
F0.281021
sS'ADJ'
p629
F0.718979
s(lp630
(g217
I23
tp631
atp632
a(S'onderzoek'
p633
(dp634
S'VERB'
p635
F0.00057
sS'NOUN'
p636
F0.99943
s(lp637
(g225
I24
tp638
atp639
a(S'uitgevoerd'
p640
(dp641
S'VERB'
p642
F1.0
s(lp643
(g201
I20
tp644
atp645
a(g156
(dp646
g156
F1.0
s(lp647
(g156
I27
tp648
atp649
asS'de'
p650
(lp651
(S'entscheidend'
p652
(dp653
S'ADJ'
p654
F1.0
s(lp655
(g16
I1
tp656
atp657
a(S'w\xc3\xa4re'
p658
(dp659
S'VERB'
p660
F1.0
s(lp661
(g23
I2
tp662
atp663
a(g536
(dp664
g156
F1.0
s(lp665
(g30
I4
tp666
atp667
a(S'einkommen'
p668
(dp669
S'VERB'
p670
F1.0
s(lp671
(g104
I5
tp672
atp673
a(S'und'
p674
(dp675
S'CONJ'
p676
F1.0
s(lp677
tp678
a(S'zeitvolumen'
p679
(dp680
S'ADJ'
p681
F0.350267
sS'NOUN'
p682
F0.525185
s(lp683
tp684
a(S'f\xc3\xbcr'
p685
(dp686
S'ADP'
p687
F1.0
s(lp688
(g111
I7
tp689
atp690
a(S'familie'
p691
(dp692
S'X'
p693
F0.216417
sS'NOUN'
p694
F0.53339
s(lp695
(g125
I8
tp696
atp697
a(S'und'
p698
(dp699
S'CONJ'
p700
F1.0
s(lp701
(g132
I9
tp702
atp703
a(S'karriere'
p704
(dp705
S'NOUN'
p706
F0.359476
sS'ADJ'
p707
F0.625021
s(lp708
(g151
I10
tp709
atp710
a(S'gleichberechtigt'
p711
(dp712
S'VERB'
p713
F1.0
s(lp714
(g54
I11
tp715
atp716
a(S'zwischen'
p717
(dp718
S'PRT'
p719
F1e-06
sS'ADP'
p720
F0.999999
s(lp721
(g62
I12
tp722
atp723
a(S'den'
p724
(dp725
S'PRON'
p726
F3.5e-05
sS'DET'
p727
F0.999964
s(lp728
(g71
I13
tp729
atp730
a(S'geschlechtern'
p731
(dp732
S'ADJ'
p733
F0.002806
sS'NOUN'
p734
F0.997178
s(lp735
(g78
I14
tp736
atp737
a(S'aufzuteilen'
p738
(dp739
S'VERB'
p740
F1.0
s(lp741
(g104
I5
tp742
atp743
a(g154
(dp744
g156
F1.0
s(lp745
(g154
I15
tp746
atp747
a(S'dazu'
p748
(dp749
S'ADV'
p750
F1.0
sS'PRT'
p751
F0.0
s(lp752
(g374
I21
tp753
atp754
a(S'gibt'
p755
(dp756
S'VERB'
p757
F1.0
s(lp758
(g210
I22
tp759
atp760
a(S'es'
p761
(dp762
S'PRON'
p763
F1.0
s(lp764
(g239
I26
tp765
atp766
a(S'hervorragende'
p767
(dp768
S'ADJ'
p769
F1.0
s(lp770
(g217
I23
tp771
atp772
a(S'studien'
p773
(dp774
S'VERB'
p775
F3.9e-05
sS'NOUN'
p776
F0.999944
s(lp777
(g225
I24
tp778
atp779
a(S'der'
p780
(dp781
S'PRON'
p782
F8.7e-05
sS'DET'
p783
F0.999904
s(lp784
(g166
I16
tp785
atp786
a(S'dublin'
p787
(dp788
S'NOUN'
p789
F0.011742
sS'ADJ'
p790
F0.987757
s(lp791
(g187
I17
tp792
atp793
a(S'foundation'
p794
(dp795
S'VERB'
p796
F0.000569
sS'NOUN'
p797
F0.999274
s(lp798
(g173
I18
tp799
atp800
a(g156
(dp801
g156
F1.0
s(lp802
(g156
I27
tp803
atp804
asS'it'
p805
(lp806
(S'la'
p807
(dp808
S'PRON'
p809
F0.001012
sS'DET'
p810
F0.998988
s(lp811
(g9
I0
tp812
atp813
a(S'svolta'
p814
(dp815
S'ADJ'
p816
F0.006313
sS'VERB'
p817
F0.0029000000000000002
sS'NOUN'
p818
F0.990786
s(lp819
(g16
I1
tp820
atp821
a(S'sarebbe'
p822
(dp823
S'VERB'
p824
F1.0
s(lp825
(g23
I2
tp826
atp827
a(S'dividere'
p828
(dp829
S'VERB'
p830
F1.0
s(lp831
(g104
I5
tp832
atp833
a(S'il'
p834
(dp835
S'DET'
p836
F1.0
s(lp837
tp838
a(S'tempo'
p839
(dp840
S'NOUN'
p841
F1.0
s(lp842
(g91
I6
tp843
atp844
a(S'per'
p845
(dp846
S'CONJ'
p847
F0.052962
sS'ADP'
p848
F0.947038
s(lp849
(g111
I7
tp850
atp851
a(S'la'
p852
(dp853
S'PRON'
p854
F0.00021
sS'DET'
p855
F0.99979
s(lp856
tp857
a(S'famiglia'
p858
(dp859
S'NOUN'
p860
F1.0
s(lp861
(g125
I8
tp862
atp863
a(S'e'
p864
(dp865
S'CONJ'
p866
F1.0
s(lp867
(g132
I9
tp868
atp869
a(S'per'
p870
(dp871
S'CONJ'
p872
F0.027538
sS'ADP'
p873
F0.972462
s(lp874
tp875
a(S'la'
p876
(dp877
S'PRON'
p878
F0.000205
sS'DET'
p879
F0.999795
s(lp880
(g71
I13
tp881
atp882
a(S'carriera'
p883
(dp884
S'NOUN'
p885
F1.0
s(lp886
(g151
I10
tp887
atp888
a(S'in'
p889
(dp890
S'ADP'
p891
F1.0
s(lp892
(g54
I11
tp893
atp894
a(S'modo'
p895
(dp896
S'NOUN'
p897
F1.0
s(lp898
tp899
a(S'equo'
p900
(dp901
S'ADJ'
p902
F1.0
s(lp903
(g54
I11
tp904
atp905
a(S'tra'
p906
(dp907
S'CONJ'
p908
F0.001821
sS'ADP'
p909
F0.998179
s(lp910
(g62
I12
tp911
atp912
a(S'i'
p913
(dp914
S'DET'
p915
F1.0
s(lp916
tp917
a(S'sessi'
p918
(dp919
S'NOUN'
p920
F1.0
s(lp921
(g78
I14
tp922
atp923
a(g154
(dp924
g156
F1.0
s(lp925
(g154
I15
tp926
atp927
a(S'la'
p928
(dp929
S'PRON'
p930
F0.778616
sS'DET'
p931
F0.221384
s(lp932
(g166
I16
tp933
atp934
a(S'dublin'
p935
(dp936
S'NOUN'
p937
F0.00342
sS'VERB'
p938
F0.976032
sS'ADJ'
p939
F0.020549
s(lp940
(g187
I17
tp941
atp942
a(S'foundation'
p943
(dp944
S'NOUN'
p945
F1.0
s(lp946
(g173
I18
tp947
atp948
a(S'ha'
p949
(dp950
S'VERB'
p951
F1.0
s(lp952
(g194
I19
tp953
atp954
a(S'condotto'
p955
(dp956
S'NOUN'
p957
F0.007034
sS'VERB'
p958
F0.763383
sS'ADJ'
p959
F0.229583
s(lp960
(g201
I20
tp961
atp962
a(S'alcuni'
p963
(dp964
S'PRON'
p965
F1.0
s(lp966
(g210
I22
tp967
atp968
a(S'studi'
p969
(dp970
S'VERB'
p971
F0.015182000000000001
sS'NOUN'
p972
F0.984817
s(lp973
(g225
I24
tp974
atp975
a(S'eccellenti'
p976
(dp977
S'NOUN'
p978
F0.053576
sS'VERB'
p979
F0.337246
sS'ADJ'
p980
F0.609178
s(lp981
(g217
I23
tp982
atp983
a(S'sul'
p984
(dp985
S'ADP'
p986
F1.0
s(lp987
(g232
I25
tp988
atp989
a(S'tema'
p990
(dp991
S'VERB'
p992
F3e-06
sS'NOUN'
p993
F0.999998
s(lp994
(g239
I26
tp995
atp996
a(g156
(dp997
g156
F1.0
s(lp998
(g156
I27
tp999
atp1000
asS'sk'
p1001
(lp1002
(S'k\xc4\xbe\xc3\xba\xc4\x8dom'
p1003
(dp1004
S'NOUN'
p1005
F1.0
s(lp1006
(g16
I1
tp1007
atp1008
a(S'by'
p1009
(dp1010
S'PRT'
p1011
F0.999925
sg693
F7.6e-05
s(lp1012
(g23
I2
tp1013
atp1014
a(S'bolo'
p1015
(dp1016
S'VERB'
p1017
F1.0
s(lp1018
(g272
I3
tp1019
atp1020
a(S'rovnomern\xc3\xa9'
p1021
(dp1022
S'ADJ'
p1023
F1.0
s(lp1024
tp1025
a(S'rozdelenie'
p1026
(dp1027
S'NOUN'
p1028
F1.0
s(lp1029
(g104
I5
tp1030
atp1031
a(S'\xc4\x8dasu'
p1032
(dp1033
S'NOUN'
p1034
F1.0
s(lp1035
(g91
I6
tp1036
atp1037
a(S'pre'
p1038
(dp1039
g693
F0.000189
sS'ADP'
p1040
F0.999811
s(lp1041
(g111
I7
tp1042
atp1043
a(S'rodinu'
p1044
(dp1045
S'NOUN'
p1046
F1.0
s(lp1047
(g125
I8
tp1048
atp1049
a(g190
(dp1050
g693
F0.0025380000000000003
sS'CONJ'
p1051
F0.996478
sS'NOUN'
p1052
F0.00018700000000000002
sS'ADP'
p1053
F0.00077
sS'PRT'
p1054
F2.7e-05
s(lp1055
(g132
I9
tp1056
atp1057
a(S'kari\xc3\xa9ru'
p1058
(dp1059
S'NOUN'
p1060
F1.0
s(lp1061
(g151
I10
tp1062
atp1063
a(S'medzi'
p1064
(dp1065
S'NOUN'
p1066
F0.000156
sS'ADP'
p1067
F0.999844
s(lp1068
(g62
I12
tp1069
atp1070
a(S'obidve'
p1071
(dp1072
S'NUM'
p1073
F1.0
s(lp1074
tp1075
a(S'pohlavia'
p1076
(dp1077
S'NOUN'
p1078
F1.0
s(lp1079
(g78
I14
tp1080
atp1081
a(g156
(dp1082
g156
F1.0
s(lp1083
(g154
I15
tp1084
atp1085
a(S'dublinsk\xc3\xa1'
p1086
(dp1087
S'NOUN'
p1088
F0.002445
sS'ADJ'
p1089
F0.997555
s(lp1090
(g187
I17
tp1091
atp1092
a(S'nad\xc3\xa1cia'
p1093
(dp1094
S'NOUN'
p1095
F1.0
s(lp1096
(g173
I18
tp1097
atp1098
a(S'uskuto\xc4\x8dnila'
p1099
(dp1100
S'VERB'
p1101
F1.0
s(lp1102
(g201
I20
tp1103
atp1104
a(S'v'
p1105
(dp1106
g693
F3.9999999999999996e-05
sS'ADP'
p1107
F0.99996
s(lp1108
(g232
I25
tp1109
atp1110
a(S'tejto'
p1111
(dp1112
S'PRON'
p1113
F1.0
s(lp1114
(g239
I26
tp1115
atp1116
a(S's\xc3\xbavislosti'
p1117
(dp1118
S'NOUN'
p1119
F1.0
s(lp1120
tp1121
a(S'vynikaj\xc3\xbaci'
p1122
(dp1123
S'VERB'
p1124
F1.0
s(lp1125
(g217
I23
tp1126
atp1127
a(S'v\xc3\xbdskum'
p1128
(dp1129
S'NOUN'
p1130
F1.0
s(lp1131
(g225
I24
tp1132
atp1133
a(g156
(dp1134
g156
F1.0
s(lp1135
(g156
I27
tp1136
atp1137
asS'pl'
p1138
(lp1139
(S'kluczem'
p1140
(dp1141
S'NOUN'
p1142
F1.0
s(lp1143
(g16
I1
tp1144
atp1145
a(S'by\xc5\x82by'
p1146
(dp1147
S'ADV'
p1148
F0.004854
sS'NOUN'
p1149
F0.7448799999999999
sS'PRT'
p1150
F0.018506
sS'VERB'
p1151
F0.09529699999999999
sS'CONJ'
p1152
F0.004335
sS'ADJ'
p1153
F0.13212899999999997
s(lp1154
(g23
I2
tp1155
atp1156
a(S'r\xc3\xb3wny'
p1157
(dp1158
S'ADJ'
p1159
F1.0
s(lp1160
(g54
I11
tp1161
atp1162
a(S'podzia\xc5\x82'
p1163
(dp1164
S'VERB'
p1165
F0.002911
sS'NOUN'
p1166
F0.99709
s(lp1167
tp1168
a(S'mi\xc4\x99dzy'
p1169
(dp1170
S'ADP'
p1171
F1.0
s(lp1172
(g62
I12
tp1173
atp1174
a(S'm\xc4\x99\xc5\xbcczyznami'
p1175
(dp1176
S'NOUN'
p1177
F1.0
s(lp1178
tp1179
a(g913
(dp1180
S'PRT'
p1181
F0.010282
sS'CONJ'
p1182
F0.989634
sS'NOUN'
p1183
F2.5e-05
sg693
F3e-06
sS'PRON'
p1184
F5.5e-05
s(lp1185
tp1186
a(S'kobietami'
p1187
(dp1188
S'NOUN'
p1189
F1.0
s(lp1190
(g78
I14
tp1191
atp1192
a(S'czasu'
p1193
(dp1194
S'NOUN'
p1195
F1.0
s(lp1196
(g91
I6
tp1197
atp1198
a(S'przeznaczonego'
p1199
(dp1200
S'VERB'
p1201
F1.0
s(lp1202
(g104
I5
tp1203
atp1204
a(S'dla'
p1205
(dp1206
S'ADP'
p1207
F1.0
s(lp1208
(g111
I7
tp1209
atp1210
a(S'rodziny'
p1211
(dp1212
S'NOUN'
p1213
F1.000001
s(lp1214
(g125
I8
tp1215
atp1216
a(g913
(dp1217
S'PRT'
p1218
F0.003396
sS'CONJ'
p1219
F0.996553
sS'NOUN'
p1220
F3e-05
sg693
F5e-06
sS'PRON'
p1221
F1.7e-05
s(lp1222
(g132
I9
tp1223
atp1224
a(S'na'
p1225
(dp1226
S'PRT'
p1227
F8e-06
sS'VERB'
p1228
F2.7e-05
sS'NOUN'
p1229
F4e-06
sS'ADP'
p1230
F0.999959
sg693
F2e-06
s(lp1231
tp1232
a(S'karier\xc4\x99'
p1233
(dp1234
S'NOUN'
p1235
F1.0
s(lp1236
(g151
I10
tp1237
atp1238
a(g154
(dp1239
g156
F1.0
s(lp1240
(g154
I15
tp1241
atp1242
a(S'fundacja'
p1243
(dp1244
S'NOUN'
p1245
F1.0
s(lp1246
(g173
I18
tp1247
atp1248
a(S'dubli\xc5\x84ska'
p1249
(dp1250
S'ADJ'
p1251
F0.078975
sS'VERB'
p1252
F4.4e-05
sS'NOUN'
p1253
F0.9209820000000001
s(lp1254
(g187
I17
tp1255
atp1256
a(S'przeprowadzi\xc5\x82a'
p1257
(dp1258
S'VERB'
p1259
F1.0
s(lp1260
(g201
I20
tp1261
atp1262
a(S'wspania\xc5\x82e'
p1263
(dp1264
S'ADJ'
p1265
F0.999999
s(lp1266
(g217
I23
tp1267
atp1268
a(S'badania'
p1269
(dp1270
S'VERB'
p1271
F0.016011
sS'NOUN'
p1272
F0.983989
s(lp1273
(g225
I24
tp1274
atp1275
a(S'na'
p1276
(dp1277
S'PRT'
p1278
F1.4e-05
sS'VERB'
p1279
F4e-06
sS'NOUN'
p1280
F0.0
sS'ADP'
p1281
F0.999974
sg693
F7e-06
s(lp1282
tp1283
a(S'ten'
p1284
(dp1285
g693
F1e-05
sS'ADJ'
p1286
F0.999989
sS'PRT'
p1287
F1e-06
s(lp1288
(g239
I26
tp1289
atp1290
a(S'temat'
p1291
(dp1292
S'NOUN'
p1293
F1.0
s(lp1294
(g232
I25
tp1295
atp1296
a(g156
(dp1297
g156
F1.0
s(lp1298
(g156
I27
tp1299
atp1300
asS'sl'
p1301
(lp1302
(S'bistvena'
p1303
(dp1304
S'ADJ'
p1305
F1.0
s(lp1306
(g16
I1
tp1307
atp1308
a(S'je'
p1309
(dp1310
S'PRON'
p1311
F0.000137
sS'VERB'
p1312
F0.999861
sg693
F2e-06
s(lp1313
(g272
I3
tp1314
atp1315
a(S'enakomerna'
p1316
(dp1317
S'ADJ'
p1318
F1.0
s(lp1319
tp1320
a(S'razdelitev'
p1321
(dp1322
S'NOUN'
p1323
F1.0
s(lp1324
(g104
I5
tp1325
atp1326
a(S'\xc4\x8dasa'
p1327
(dp1328
S'NOUN'
p1329
F1.0
s(lp1330
(g91
I6
tp1331
atp1332
a(S'za'
p1333
(dp1334
S'ADV'
p1335
F8e-06
sg693
F2e-06
sS'ADP'
p1336
F0.999991
s(lp1337
(g111
I7
tp1338
atp1339
a(S'dru\xc5\xbeino'
p1340
(dp1341
S'NOUN'
p1342
F1.0
s(lp1343
(g125
I8
tp1344
atp1345
a(S'in'
p1346
(dp1347
S'ADV'
p1348
F2.4e-05
sg693
F7e-06
sS'CONJ'
p1349
F0.99996
sS'NOUN'
p1350
F1e-05
s(lp1351
(g132
I9
tp1352
atp1353
a(S'kariero'
p1354
(dp1355
S'NOUN'
p1356
F1.0
s(lp1357
(g151
I10
tp1358
atp1359
a(S'med'
p1360
(dp1361
S'NOUN'
p1362
F4e-06
sS'ADP'
p1363
F0.999996
s(lp1364
(g62
I12
tp1365
atp1366
a(S'spoloma'
p1367
(dp1368
S'NOUN'
p1369
F1.0
s(lp1370
(g78
I14
tp1371
atp1372
a(g154
(dp1373
g156
F1.0
s(lp1374
(g154
I15
tp1375
atp1376
a(S'dublinska'
p1377
(dp1378
S'NOUN'
p1379
F0.00039200000000000004
sS'ADJ'
p1380
F0.999608
s(lp1381
(g187
I17
tp1382
atp1383
a(S'fundacija'
p1384
(dp1385
S'NOUN'
p1386
F1.0
s(lp1387
(g173
I18
tp1388
atp1389
a(S'je'
p1390
(dp1391
S'PRON'
p1392
F5.4e-05
sS'VERB'
p1393
F0.999906
sg693
F4e-05
s(lp1394
(g194
I19
tp1395
atp1396
a(g1105
(dp1397
S'ADP'
p1398
F1.0
s(lp1399
(g232
I25
tp1400
atp1401
a(S'zvezi'
p1402
(dp1403
S'NOUN'
p1404
F1.0
s(lp1405
tp1406
a(S's'
p1407
(dp1408
S'VERB'
p1409
F3e-06
sS'NOUN'
p1410
F8e-06
sS'ADP'
p1411
F0.999989
s(lp1412
(g232
I25
tp1413
atp1414
a(S'tem'
p1415
(dp1416
S'ADV'
p1417
F0.000743
sS'PRON'
p1418
F0.9989629999999999
sS'NOUN'
p1419
F0.000294
s(lp1420
(g239
I26
tp1421
atp1422
a(S'opravila'
p1423
(dp1424
S'VERB'
p1425
F0.392841
sS'NOUN'
p1426
F0.6071580000000001
s(lp1427
(g201
I20
tp1428
atp1429
a(S'nekaj'
p1430
(dp1431
S'ADV'
p1432
F0.880126
sS'PRON'
p1433
F0.11987400000000001
s(lp1434
(g210
I22
tp1435
atp1436
a(S'odli\xc4\x8dnih'
p1437
(dp1438
S'ADJ'
p1439
F1.0
s(lp1440
(g217
I23
tp1441
atp1442
a(S'raziskav'
p1443
(dp1444
S'NOUN'
p1445
F1.0
s(lp1446
(g225
I24
tp1447
atp1448
a(g156
(dp1449
g156
F1.0
s(lp1450
(g156
I27
tp1451
atp1452
asS'es'
p1453
(lp1454
(S'la'
p1455
(dp1456
S'PRON'
p1457
F0.001667
sS'DET'
p1458
F0.998113
sS'NOUN'
p1459
F2.1e-05
sg693
F0.0002
s(lp1460
(g9
I0
tp1461
atp1462
a(S'clave'
p1463
(dp1464
S'ADJ'
p1465
F0.338582
sS'VERB'
p1466
F0.00186
sS'NOUN'
p1467
F0.659559
s(lp1468
(g16
I1
tp1469
atp1470
a(S'consistir\xc3\xada'
p1471
(dp1472
S'VERB'
p1473
F1.0
s(lp1474
(g23
I2
tp1475
atp1476
a(S'en'
p1477
(dp1478
g693
F0.0
sS'CONJ'
p1479
F0.016722
sS'ADP'
p1480
F0.983278
s(lp1481
(g30
I4
tp1482
atp1483
a(S'dividir'
p1484
(dp1485
S'VERB'
p1486
F1.0
s(lp1487
(g104
I5
tp1488
atp1489
a(S'el'
p1490
(dp1491
S'PRON'
p1492
F0.0
sS'DET'
p1493
F1.0
s(lp1494
tp1495
a(S'tiempo'
p1496
(dp1497
S'NOUN'
p1498
F1.0
s(lp1499
(g91
I6
tp1500
atp1501
a(S'para'
p1502
(dp1503
S'CONJ'
p1504
F0.000662
sS'ADP'
p1505
F0.999338
s(lp1506
(g111
I7
tp1507
atp1508
a(S'la'
p1509
(dp1510
g693
F0.0
sS'PRON'
p1511
F0.0
sS'DET'
p1512
F0.999999
sS'NOUN'
p1513
F0.0
s(lp1514
tp1515
a(S'familia'
p1516
(dp1517
S'NOUN'
p1518
F1.0
s(lp1519
(g125
I8
tp1520
atp1521
a(S'y'
p1522
(dp1523
g693
F0.000396
sS'CONJ'
p1524
F0.999604
s(lp1525
(g132
I9
tp1526
atp1527
a(S'el'
p1528
(dp1529
S'PRON'
p1530
F2.8e-05
sS'DET'
p1531
F0.999972
s(lp1532
tp1533
a(S'trabajo'
p1534
(dp1535
S'NOUN'
p1536
F1.0
s(lp1537
(g151
I10
tp1538
atp1539
a(S'equitativamente'
p1540
(dp1541
S'ADV'
p1542
F1.0
s(lp1543
(g54
I11
tp1544
atp1545
a(S'entre'
p1546
(dp1547
g693
F0.0
sS'ADP'
p1548
F1.0
s(lp1549
(g62
I12
tp1550
atp1551
a(S'los'
p1552
(dp1553
S'PRON'
p1554
F0.0
sS'DET'
p1555
F1.0
s(lp1556
(g71
I13
tp1557
atp1558
a(S'g\xc3\xa9neros'
p1559
(dp1560
S'NOUN'
p1561
F1.0
s(lp1562
(g78
I14
tp1563
atp1564
a(g154
(dp1565
g156
F1.0
s(lp1566
(g154
I15
tp1567
atp1568
a(S'la'
p1569
(dp1570
g693
F7.7e-05
sS'PRON'
p1571
F0.0
sS'DET'
p1572
F0.999922
sS'NOUN'
p1573
F1e-06
s(lp1574
(g166
I16
tp1575
atp1576
a(S'fundaci\xc3\xb3n'
p1577
(dp1578
S'NOUN'
p1579
F1.0
s(lp1580
(g173
I18
tp1581
atp1582
a(S'de'
p1583
(dp1584
g693
F0.000271
sS'CONJ'
p1585
F0.000854
sS'ADP'
p1586
F0.998875
s(lp1587
tp1588
a(S'dubl\xc3\xadn'
p1589
(dp1590
S'NOUN'
p1591
F0.110989
sS'ADJ'
p1592
F0.88901
s(lp1593
(g187
I17
tp1594
atp1595
a(S'ha'
p1596
(dp1597
S'VERB'
p1598
F1.0
s(lp1599
(g194
I19
tp1600
atp1601
a(S'llevado'
p1602
(dp1603
S'VERB'
p1604
F1.0
s(lp1605
tp1606
a(g190
(dp1607
g693
F3.9e-05
sS'CONJ'
p1608
F9.6e-05
sS'ADP'
p1609
F0.999865
s(lp1610
(g374
I21
tp1611
atp1612
a(S'cabo'
p1613
(dp1614
S'NOUN'
p1615
F1.0
s(lp1616
(g201
I20
tp1617
atp1618
a(S'algunos'
p1619
(dp1620
S'ADJ'
p1621
F1.0
s(lp1622
(g210
I22
tp1623
atp1624
a(S'estudios'
p1625
(dp1626
S'NOUN'
p1627
F1.0
s(lp1628
(g225
I24
tp1629
atp1630
a(S'excelentes'
p1631
(dp1632
S'ADJ'
p1633
F1.0
s(lp1634
(g217
I23
tp1635
atp1636
a(S'sobre'
p1637
(dp1638
S'NOUN'
p1639
F0.0
sS'ADP'
p1640
F1.0
s(lp1641
(g232
I25
tp1642
atp1643
a(S'esta'
p1644
(dp1645
S'PRON'
p1646
F1.0
sS'VERB'
p1647
F0.0
s(lp1648
(g239
I26
tp1649
atp1650
a(S'cuesti\xc3\xb3n'
p1651
(dp1652
S'NOUN'
p1653
F1.0
s(lp1654
tp1655
a(g156
(dp1656
g156
F1.0
s(lp1657
(g156
I27
tp1658
atp1659
as.