(dp0
S'fr'
p1
(lp2
(S'je'
p3
(dp4
S'PRON'
p5
F1.0
s(lp6
(S'i'
p7
I0
tp8
atp9
a(S'pense'
p10
(dp11
S'VERB'
p12
F1.0
s(lp13
(S'believe'
p14
I1
tp15
atp16
a(S'que'
p17
(dp18
S'ADV'
p19
F0.025348
sS'PRON'
p20
F0.118513
sS'CONJ'
p21
F0.856139
s(lp22
(S'that'
p23
I2
tp24
atp25
a(S'nous'
p26
(dp27
S'PRON'
p28
F1.0
s(lp29
(S'we'
p30
I3
tp31
atp32
a(S'ne'
p33
(dp34
S'ADV'
p35
F1.0
s(lp36
(S'cannot'
p37
I4
tp38
atp39
a(S'pouvons'
p40
(dp41
S'VERB'
p42
F1.0
s(lp43
tp44
a(S'pas'
p45
(dp46
S'ADV'
p47
F0.999903
sS'NOUN'
p48
F9.7e-05
s(lp49
(g37
I4
tp50
atp51
a(S'accepter'
p52
(dp53
S'VERB'
p54
F1.0
s(lp55
(S'accept'
p56
I5
tp57
atp58
a(S'de'
p59
(dp60
S'ADP'
p61
F1.0
s(lp62
tp63
a(S'tels'
p64
(dp65
S'PRON'
p66
F0.999689
sS'NOUN'
p67
F0.000311
s(lp68
(S'such'
p69
I6
tp70
atp71
a(S'chiffres'
p72
(dp73
S'VERB'
p74
F0.023767
sS'NOUN'
p75
F0.976233
s(lp76
(S'figures'
p77
I7
tp78
atp79
a(S'et'
p80
(dp81
S'CONJ'
p82
F1.0
s(lp83
(S'and'
p84
I8
tp85
atp86
a(S'la'
p87
(dp88
S'PRON'
p89
F0.000103
sS'DET'
p90
F0.999897
sS'NOUN'
p91
F0.0
s(lp92
(S'the'
p93
I9
tp94
atp95
a(S'r\xc3\xa9alit\xc3\xa9'
p96
(dp97
S'NOUN'
p98
F1.0
s(lp99
(S'reality'
p100
I10
tp101
atp102
a(S'qui'
p103
(dp104
S'PRON'
p105
F1.0
s(lp106
(S'that'
p107
I11
tp108
atp109
a(S'touche'
p110
(dp111
S'VERB'
p112
F0.99792
sS'NOUN'
p113
F0.002081
s(lp114
(S'affects'
p115
I12
tp116
atp117
a(S'plus'
p118
(dp119
S'ADV'
p120
F0.99964
sS'VERB'
p121
F0.00035999999999999997
s(lp122
tp123
a(S'particuli\xc3\xa8rement'
p124
(dp125
S'ADV'
p126
F1.0
s(lp127
(S'especially'
p128
I13
tp129
atp130
a(S'les'
p131
(dp132
S'PRON'
p133
F0.000111
sS'DET'
p134
F0.999847
sS'ADP'
p135
F4.2e-05
s(lp136
tp137
a(S'femmes'
p138
(dp139
S'NOUN'
p140
F1.0
s(lp141
(S'women'
p142
I14
tp143
atp144
a(S'.'
p145
(dp146
g145
F1.0
s(lp147
(g145
I15
tp148
atp149
asS'en'
p150
(lp151
(g7
(dp152
S'X'
p153
F0.005307
sS'NOUN'
p154
F0.994694
s(lp155
(g7
I0
tp156
atp157
a(g14
(dp158
S'VERB'
p159
F1.0
s(lp160
(g14
I1
tp161
atp162
a(g23
(dp163
S'ADV'
p164
F0.000188
sS'DET'
p165
F0.004599
sS'ADP'
p166
F0.995213
s(lp167
(g23
I2
tp168
atp169
a(g30
(dp170
S'PRON'
p171
F1.0
s(lp172
(g30
I3
tp173
atp174
a(g37
(dp175
S'VERB'
p176
F1.0
s(lp177
(g37
I4
tp178
atp179
a(g56
(dp180
S'VERB'
p181
F1.0
s(lp182
(g56
I5
tp183
atp184
a(g69
(dp185
S'ADV'
p186
F4e-06
sS'DET'
p187
F0.000734
sS'ADJ'
p188
F0.999237
sS'ADP'
p189
F2.5e-05
s(lp190
(g69
I6
tp191
atp192
a(g77
(dp193
S'VERB'
p194
F5.5e-05
sS'NOUN'
p195
F0.999945
s(lp196
(g77
I7
tp197
atp198
a(g84
(dp199
S'CONJ'
p200
F1.0
sS'NOUN'
p201
F0.0
s(lp202
(g84
I8
tp203
atp204
a(g93
(dp205
S'NOUN'
p206
F2e-06
sS'DET'
p207
F0.999998
s(lp208
(g93
I9
tp209
atp210
a(g100
(dp211
S'NOUN'
p212
F1.0
s(lp213
(g100
I10
tp214
atp215
a(g107
(dp216
S'ADV'
p217
F0.000339
sS'DET'
p218
F0.98592
sS'ADP'
p219
F0.013741
s(lp220
(g107
I11
tp221
atp222
a(g115
(dp223
S'VERB'
p224
F0.976234
sS'NOUN'
p225
F0.023766
s(lp226
(g115
I12
tp227
atp228
a(g128
(dp229
S'ADV'
p230
F1.0
s(lp231
(g128
I13
tp232
atp233
a(g142
(dp234
S'NOUN'
p235
F1.0
s(lp236
(g142
I14
tp237
atp238
a(g145
(dp239
g145
F1.0
s(lp240
(g145
I15
tp241
atp242
asS'nl'
p243
(lp244
(S'ik'
p245
(dp246
S'PRON'
p247
F0.999981
sS'NOUN'
p248
F1.9e-05
s(lp249
(g7
I0
tp250
atp251
a(S'vind'
p252
(dp253
S'VERB'
p254
F1.0
s(lp255
(g14
I1
tp256
atp257
a(S'dat'
p258
(dp259
S'PRON'
p260
F0.0025970000000000003
sS'CONJ'
p261
F0.997403
s(lp262
(g23
I2
tp263
atp264
a(S'we'
p265
(dp266
S'PRON'
p267
F1.0
s(lp268
(g30
I3
tp269
atp270
a(S'zulke'
p271
(dp272
S'PRON'
p273
F1.0
s(lp274
(g69
I6
tp275
atp276
a(S'cijfers'
p277
(dp278
S'NOUN'
p279
F1.0
s(lp280
(g77
I7
tp281
atp282
a(S'en'
p283
(dp284
S'CONJ'
p285
F1.0
s(lp286
(g84
I8
tp287
atp288
a(S'zo'
p289
(dp290
S'ADV'
p291
F1.0
sg153
F0.0
sS'CONJ'
p292
F0.0
s(lp293
(g69
I6
tp294
atp295
a(S"'"
p296
(dp297
g145
F1.0
s(lp298
tp299
a(S'n'
p300
(dp301
S'NOUN'
p302
F1.0
s(lp303
(g69
I6
tp304
atp305
a(S'realiteit'
p306
(dp307
S'NOUN'
p308
F1.0
s(lp309
(g100
I10
tp310
atp311
a(S'die'
p312
(dp313
S'PRON'
p314
F1.0
s(lp315
(g107
I11
tp316
atp317
a(S'vooral'
p318
(dp319
S'ADV'
p320
F1.0
s(lp321
(g128
I13
tp322
atp323
a(S'vrouwen'
p324
(dp325
S'NOUN'
p326
F1.0
s(lp327
(g142
I14
tp328
atp329
a(S'raakt'
p330
(dp331
S'VERB'
p332
F1.0
s(lp333
(g115
I12
tp334
atp335
a(S','
p336
(dp337
g145
F1.0
s(lp338
tp339
a(S'niet'
p340
(dp341
S'ADV'
p342
F0.999992
sS'PRON'
p343
F4e-06
sS'VERB'
p344
F4e-06
sg153
F0.0
s(lp345
tp346
a(S'mogen'
p347
(dp348
S'VERB'
p349
F0.99994
sS'NOUN'
p350
F6.1e-05
s(lp351
(g37
I4
tp352
atp353
a(S'aanvaarden'
p354
(dp355
S'VERB'
p356
F0.999646
sS'NOUN'
p357
F0.000354
s(lp358
(g56
I5
tp359
atp360
a(g145
(dp361
g145
F1.0
s(lp362
(g145
I15
tp363
atp364
asS'de'
p365
(lp366
(S'ich'
p367
(dp368
S'PRON'
p369
F1.0
s(lp370
(g7
I0
tp371
atp372
a(S'finde'
p373
(dp374
S'VERB'
p375
F1.0
s(lp376
(g14
I1
tp377
atp378
a(g336
(dp379
g145
F1.0
s(lp380
tp381
a(S'dass'
p382
(dp383
S'CONJ'
p384
F1.0
s(lp385
(g23
I2
tp386
atp387
a(S'wir'
p388
(dp389
S'PRON'
p390
F1.0
s(lp391
(g30
I3
tp392
atp393
a(S'derartige'
p394
(dp395
S'ADJ'
p396
F1.0
s(lp397
(g69
I6
tp398
atp399
a(S'zahlen'
p400
(dp401
S'VERB'
p402
F1.0
s(lp403
(g77
I7
tp404
atp405
a(S'und'
p406
(dp407
S'CONJ'
p408
F1.0
s(lp409
(g84
I8
tp410
atp411
a(S'zust\xc3\xa4nde'
p412
(dp413
S'VERB'
p414
F1.0
s(lp415
(g100
I10
tp416
atp417
a(g336
(dp418
g145
F1.0
s(lp419
tp420
a(S'von'
p421
(dp422
S'NOUN'
p423
F2e-06
sS'ADP'
p424
F0.999998
s(lp425
tp426
a(S'denen'
p427
(dp428
S'PRON'
p429
F1.0
s(lp430
(g107
I11
tp431
atp432
a(S'vor'
p433
(dp434
S'ADV'
p435
F0.054456
sS'ADP'
p436
F0.930736
s(lp437
tp438
a(S'allem'
p439
(dp440
S'PRON'
p441
F1.0
s(lp442
(g128
I13
tp443
atp444
a(S'frauen'
p445
(dp446
S'ADJ'
p447
F0.859105
s(lp448
(g142
I14
tp449
atp450
a(S'betroffen'
p451
(dp452
S'VERB'
p453
F0.996078
sS'ADJ'
p454
F0.003922
s(lp455
tp456
a(S'sind'
p457
(dp458
S'VERB'
p459
F1.0
s(lp460
(g115
I12
tp461
atp462
a(g336
(dp463
g145
F1.0
s(lp464
tp465
a(S'nicht'
p466
(dp467
S'PRT'
p468
F1.0
s(lp469
tp470
a(S'hinnehmen'
p471
(dp472
S'VERB'
p473
F1.0
s(lp474
(g56
I5
tp475
atp476
a(S'k\xc3\xb6nnen'
p477
(dp478
S'VERB'
p479
F0.999919
s(lp480
(g37
I4
tp481
atp482
a(g145
(dp483
g145
F1.0
s(lp484
(g145
I15
tp485
atp486
asS'it'
p487
(lp488
(S'ritengo'
p489
(dp490
S'VERB'
p491
F1.0
s(lp492
(g14
I1
tp493
atp494
a(S'che'
p495
(dp496
S'PRON'
p497
F0.958716
sS'CONJ'
p498
F0.040581
sS'ADJ'
p499
F0.000704
s(lp500
(g23
I2
tp501
atp502
a(S'non'
p503
(dp504
S'ADV'
p505
F1.0
s(lp506
tp507
a(S'possiamo'
p508
(dp509
S'VERB'
p510
F0.999999
s(lp511
(g37
I4
tp512
atp513
a(S'accettare'
p514
(dp515
S'VERB'
p516
F1.0
s(lp517
(g56
I5
tp518
atp519
a(S'cifre'
p520
(dp521
S'NOUN'
p522
F1.0
s(lp523
(g77
I7
tp524
atp525
a(S'simili'
p526
(dp527
S'NOUN'
p528
F0.050691
sS'ADJ'
p529
F0.949309
s(lp530
(g69
I6
tp531
atp532
a(S'e'
p533
(dp534
S'CONJ'
p535
F1.0
s(lp536
(g84
I8
tp537
atp538
a(S'una'
p539
(dp540
S'PRON'
p541
F0.000318
sS'DEF'
p542
F0.999682
s(lp543
(g93
I9
tp544
atp545
a(S'realt\xc3\xa0'
p546
(dp547
S'NOUN'
p548
F1.0
s(lp549
(g100
I10
tp550
atp551
a(S'che'
p552
(dp553
S'PRON'
p554
F0.960049
sS'CONJ'
p555
F0.0391
sS'ADJ'
p556
F0.000851
s(lp557
(g107
I11
tp558
atp559
a(S'colpisce'
p560
(dp561
S'VERB'
p562
F1.0
s(lp563
(g115
I12
tp564
atp565
a(S'soprattutto'
p566
(dp567
S'ADV'
p568
F1.0
s(lp569
(g128
I13
tp570
atp571
a(S'le'
p572
(dp573
S'PRON'
p574
F6.4e-05
sS'DET'
p575
F0.999936
s(lp576
tp577
a(S'donne'
p578
(dp579
S'NOUN'
p580
F1.0
s(lp581
(g142
I14
tp582
atp583
a(g145
(dp584
g145
F1.0
s(lp585
(g145
I15
tp586
atp587
asS'sk'
p588
(lp589
(S'mysl\xc3\xadm'
p590
(dp591
S'VERB'
p592
F1.0
s(lp593
(g14
I1
tp594
atp595
a(S'si'
p596
(dp597
S'PRT'
p598
F0.999092
sS'VERB'
p599
F0.000907
sg153
F1e-06
s(lp600
tp601
a(g336
(dp602
g145
F1.0
s(lp603
(g14
I1
tp604
atp605
a(S'\xc5\xbee'
p606
(dp607
g153
F0.00033
sS'CONJ'
p608
F0.99967
s(lp609
(g23
I2
tp610
atp611
a(S'tieto'
p612
(dp613
S'PRON'
p614
F1.0
s(lp615
(g69
I6
tp616
atp617
a(S'\xc4\x8d\xc3\xadsla'
p618
(dp619
S'NOUN'
p620
F1.0
s(lp621
(g77
I7
tp622
atp623
a(S'a'
p624
(dp625
g153
F0.0007610000000000001
sS'CONJ'
p626
F0.998524
sS'NOUN'
p627
F5.5e-05
sS'ADP'
p628
F0.000628
sS'PRT'
p629
F3.2e-05
s(lp630
(g84
I8
tp631
atp632
a(S'realitu'
p633
(dp634
S'NOUN'
p635
F1.0
s(lp636
(g100
I10
tp637
atp638
a(g336
(dp639
g145
F1.0
s(lp640
tp641
a(S'ktor\xc3\xa1'
p642
(dp643
S'PRON'
p644
F1.0
s(lp645
(g107
I11
tp646
atp647
a(S'postihuje'
p648
(dp649
S'VERB'
p650
F1.0
s(lp651
(g115
I12
tp652
atp653
a(S'hlavne'
p654
(dp655
S'ADV'
p656
F0.032988
sg153
F0.958722
sS'NOUN'
p657
F0.008291
s(lp658
(g128
I13
tp659
atp660
a(S'\xc5\xbeeny'
p661
(dp662
S'NOUN'
p663
F1.0
s(lp664
(g142
I14
tp665
atp666
a(g336
(dp667
g145
F1.0
s(lp668
tp669
a(S'nem\xc3\xb4\xc5\xbeeme'
p670
(dp671
S'VERB'
p672
F1.0
s(lp673
(g37
I4
tp674
atp675
a(S'akceptova\xc5\xa5'
p676
(dp677
S'VERB'
p678
F1.0
s(lp679
(g56
I5
tp680
atp681
a(g145
(dp682
g145
F1.0
s(lp683
(g145
I15
tp684
atp685
asS'pl'
p686
(lp687
(S'uwa\xc5\xbcam'
p688
(dp689
S'VERB'
p690
F1.0
s(lp691
(g14
I1
tp692
atp693
a(g336
(dp694
g153
F0.0
sg145
F1.0
s(lp695
tp696
a(S'\xc5\xbce'
p697
(dp698
S'PRT'
p699
F0.000283
sS'CONJ'
p700
F0.9997170000000001
s(lp701
(g23
I2
tp702
atp703
a(S'nie'
p704
(dp705
S'ADV'
p706
F1.7e-05
sS'PRT'
p707
F0.999587
sS'CONJ'
p708
F0.000381
sS'NOUN'
p709
F1.1e-05
sS'PRON'
p710
F4e-06
s(lp711
tp712
a(S'mo\xc5\xbcemy'
p713
(dp714
S'VERB'
p715
F1.0
s(lp716
(g37
I4
tp717
atp718
a(S'akceptowa\xc4\x87'
p719
(dp720
S'VERB'
p721
F1.0
s(lp722
(g56
I5
tp723
atp724
a(S'tych'
p725
(dp726
S'ADJ'
p727
F1.0
s(lp728
(g69
I6
tp729
atp730
a(S'statystyk'
p731
(dp732
S'NOUN'
p733
F1.0
s(lp734
(g77
I7
tp735
atp736
a(g7
(dp737
S'PRT'
p738
F0.00035
sS'CONJ'
p739
F0.99963
sS'PRON'
p740
F1e-06
sS'NOUN'
p741
F1.6e-05
sg153
F3e-06
s(lp742
(g84
I8
tp743
atp744
a(S'rzeczywisto\xc5\x9bci'
p745
(dp746
S'NOUN'
p747
F1.0
s(lp748
(g100
I10
tp749
atp750
a(g336
(dp751
g153
F0.0
sg145
F1.0
s(lp752
tp753
a(S'kt\xc3\xb3ra'
p754
(dp755
S'ADJ'
p756
F1.0
s(lp757
(g107
I11
tp758
atp759
a(S'godzi'
p760
(dp761
S'VERB'
p762
F1.0
s(lp763
(g115
I12
tp764
atp765
a(S'szczeg\xc3\xb3lnie'
p766
(dp767
S'ADV'
p768
F0.393047
sS'PRT'
p769
F0.606953
s(lp770
(g128
I13
tp771
atp772
a(S'w'
p773
(dp774
S'NOUN'
p775
F8e-05
sS'ADJ'
p776
F0.000618
sS'ADP'
p777
F0.9992989999999999
sg153
F3e-06
s(lp778
tp779
a(S'kobiety'
p780
(dp781
S'NOUN'
p782
F1.0
s(lp783
(g142
I14
tp784
atp785
a(g145
(dp786
g145
F1.0
s(lp787
(g145
I15
tp788
atp789
asS'sl'
p790
(lp791
(S'mislim'
p792
(dp793
S'VERB'
p794
F0.991734
sS'NOUN'
p795
F0.008266
s(lp796
(g14
I1
tp797
atp798
a(g336
(dp799
g145
F1.0
s(lp800
tp801
a(S'da'
p802
(dp803
S'PRT'
p804
F8.9e-05
sS'CONJ'
p805
F0.9995
sS'VERB'
p806
F0.000409
sg153
F2e-06
s(lp807
(g23
I2
tp808
atp809
a(S'ne'
p810
(dp811
S'PRT'
p812
F0.998765
sS'CONJ'
p813
F0.001228
sg153
F7e-06
s(lp814
tp815
a(S'moremo'
p816
(dp817
S'VERB'
p818
F1.0
s(lp819
(g37
I4
tp820
atp821
a(S'sprejeti'
p822
(dp823
S'VERB'
p824
F0.953568
sS'ADJ'
p825
F0.046431
s(lp826
(g56
I5
tp827
atp828
a(S'teh'
p829
(dp830
S'PRON'
p831
F0.9999999999999999
s(lp832
(g69
I6
tp833
atp834
a(S'\xc5\xa1tevilk'
p835
(dp836
S'NOUN'
p837
F1.0
s(lp838
(g77
I7
tp839
atp840
a(S'in'
p841
(dp842
S'ADV'
p843
F5.1e-05
sg153
F1.8e-05
sS'CONJ'
p844
F0.999881
sS'NOUN'
p845
F5e-05
s(lp846
(g84
I8
tp847
atp848
a(S'realnosti'
p849
(dp850
S'NOUN'
p851
F1.0
s(lp852
(g100
I10
tp853
atp854
a(g336
(dp855
g145
F1.0
s(lp856
tp857
a(S'katere'
p858
(dp859
S'PRON'
p860
F0.999999
s(lp861
(g107
I11
tp862
atp863
a(S'\xc5\xbertev'
p864
(dp865
S'NOUN'
p866
F1.0
s(lp867
tp868
a(S'so'
p869
(dp870
g153
F0.000191
sS'VERB'
p871
F0.999808
s(lp872
(g115
I12
tp873
atp874
a(S'predvsem'
p875
(dp876
S'PRT'
p877
F1.0
s(lp878
(g128
I13
tp879
atp880
a(S'\xc5\xbeenske'
p881
(dp882
S'ADJ'
p883
F0.033198
sS'NOUN'
p884
F0.9668019999999999
s(lp885
(g142
I14
tp886
atp887
a(g145
(dp888
g145
F1.0
s(lp889
(g145
I15
tp890
atp891
asS'es'
p892
(lp893
(S'considero'
p894
(dp895
S'VERB'
p896
F1.0
s(lp897
(g14
I1
tp898
atp899
a(S'que'
p900
(dp901
g153
F0.0
sS'CONJ'
p902
F1.0
s(lp903
(g23
I2
tp904
atp905
a(S'no'
p906
(dp907
S'ADV'
p908
F1.0
sg153
F0.0
s(lp909
tp910
a(S'podemos'
p911
(dp912
S'VERB'
p913
F1.0
s(lp914
(g37
I4
tp915
atp916
a(S'aceptar'
p917
(dp918
S'VERB'
p919
F1.0
s(lp920
(g56
I5
tp921
atp922
a(S'estas'
p923
(dp924
S'PRON'
p925
F1.0
s(lp926
(g69
I6
tp927
atp928
a(S'cifras'
p929
(dp930
S'NOUN'
p931
F1.0
s(lp932
(g77
I7
tp933
atp934
a(S'y'
p935
(dp936
g153
F0.000396
sS'CONJ'
p937
F0.999604
s(lp938
(g84
I8
tp939
atp940
a(S'la'
p941
(dp942
S'PRON'
p943
F0.000591
sS'DET'
p944
F0.999408
sS'NOUN'
p945
F0.0
sg153
F0.0
s(lp946
(g93
I9
tp947
atp948
a(S'realidad'
p949
(dp950
S'NOUN'
p951
F1.0
s(lp952
(g100
I10
tp953
atp954
a(S'que'
p955
(dp956
g153
F3e-06
sS'CONJ'
p957
F0.999997
s(lp958
(g107
I11
tp959
atp960
a(S'afecta'
p961
(dp962
S'VERB'
p963
F0.999998
sS'ADJ'
p964
F2e-06
s(lp965
tp966
a(S'especialmente'
p967
(dp968
S'ADV'
p969
F1.0
s(lp970
(g128
I13
tp971
atp972
a(g624
(dp973
g153
F0.0021
sS'CONJ'
p974
F1.9e-05
sS'ADP'
p975
F0.997882
s(lp976
(g115
I12
tp977
atp978
a(S'las'
p979
(dp980
S'PRON'
p981
F0.0
sS'DET'
p982
F1.0
s(lp983
tp984
a(S'mujeres'
p985
(dp986
S'NOUN'
p987
F1.0
s(lp988
(g142
I14
tp989
atp990
a(g145
(dp991
g145
F1.0
s(lp992
(g145
I15
tp993
atp994
as.