(dp0
S'fr'
p1
(lp2
(S'par'
p3
(dp4
S'NOUN'
p5
F7.6e-05
sS'ADP'
p6
F0.999924
s(lp7
(S'the'
p8
I0
tp9
atp10
a(S'\xc3\xa9crit'
p11
(dp12
S'VERB'
p13
F0.035327000000000004
sS'NOUN'
p14
F0.964674
s(lp15
tp16
a(S'.'
p17
(dp18
g17
F1.0
s(lp19
(S','
p20
I14
tp21
atp22
a(S'-'
p23
(dp24
g17
F1.0
s(lp25
tp26
a(S"l'"
p27
(dp28
S'ADJ'
p29
F0.13429
sS'VERB'
p30
F0.638201
sS'NOUN'
p31
F0.227509
s(lp32
(g8
I0
tp33
atp34
a(S'\xc3\xa9lection'
p35
(dp36
S'NOUN'
p37
F1.0
s(lp38
(S'election'
p39
I1
tp40
atp41
a(S'du'
p42
(dp43
S'ADP'
p44
F1.0
s(lp45
(S'of'
p46
I2
tp47
atp48
a(S'pr\xc3\xa9sident'
p49
(dp50
S'VERB'
p51
F0.0
sS'NOUN'
p52
F1.0
s(lp53
(S'president'
p54
I4
tp55
atp56
a(S'de'
p57
(dp58
S'ADP'
p59
F1.0
s(lp60
(S'of'
p61
I5
tp62
atp63
a(S'la'
p64
(dp65
S'PRON'
p66
F1.2e-05
sS'DET'
p67
F0.999988
sS'NOUN'
p68
F0.0
s(lp69
(S'the'
p70
I6
tp71
atp72
a(S'commission'
p73
(dp74
S'NOUN'
p75
F1.0
s(lp76
(S'commission'
p77
I8
tp78
atp79
a(S'europ\xc3\xa9enne'
p80
(dp81
S'NOUN'
p82
F0.015245
sS'ADJ'
p83
F0.984755
s(lp84
(S'european'
p85
I7
tp86
atp87
a(S'est'
p88
(dp89
S'VERB'
p90
F0.998511
sS'NOUN'
p91
F0.001489
s(lp92
(S'is'
p93
I9
tp94
atp95
a(S'un'
p96
(dp97
S'NOUN'
p98
F6.6e-05
sS'NUM'
p99
F0.004622
sS'DET'
p100
F0.995312
s(lp101
(S'an'
p102
I10
tp103
atp104
a(S'acte'
p105
(dp106
S'VERB'
p107
F9.9e-05
sS'NOUN'
p108
F0.999901
s(lp109
(S'act'
p110
I13
tp111
atp112
a(S'de'
p113
(dp114
S'ADP'
p115
F1.0
s(lp116
tp117
a(S'premi\xc3\xa8re'
p118
(dp119
S'NUM'
p120
F0.999966
sS'NOUN'
p121
F3.4e-05
s(lp122
(S'extremely'
p123
I11
tp124
atp125
a(S'importance'
p126
(dp127
S'NOUN'
p128
F1.0
s(lp129
(S'important'
p130
I12
tp131
atp132
a(S'et'
p133
(dp134
S'CONJ'
p135
F1.0
s(lp136
(S'and'
p137
I15
tp138
atp139
a(S'les'
p140
(dp141
S'PRON'
p142
F0.000497
sS'DET'
p143
F0.99949
sS'ADP'
p144
F1.3e-05
s(lp145
(S'the'
p146
I16
tp147
atp148
a(S'citoyens'
p149
(dp150
S'NOUN'
p151
F1.0
s(lp152
(S'citizens'
p153
I17
tp154
atp155
a(S'de'
p156
(dp157
S'ADP'
p158
F1.0
s(lp159
(S'of'
p160
I18
tp161
atp162
a(S"l'"
p163
(dp164
S'ADJ'
p165
F0.160704
sS'VERB'
p166
F0.06480800000000002
sS'NOUN'
p167
F0.774488
s(lp168
(S'the'
p169
I19
tp170
atp171
a(S'union'
p172
(dp173
S'NOUN'
p174
F1.0
s(lp175
(S'eu'
p176
I20
tp177
atp178
a(S'devraient'
p179
(dp180
S'VERB'
p181
F1.0
s(lp182
(S'should'
p183
I21
tp184
atp185
a(S'avoir'
p186
(dp187
S'VERB'
p188
F0.999742
sS'NOUN'
p189
F0.000258
s(lp190
(S'have'
p191
I22
tp192
atp193
a(S'le'
p194
(dp195
S'PRON'
p196
F0.0001
sS'DET'
p197
F0.9999
s(lp198
(S'the'
p199
I23
tp200
atp201
a(S'droit'
p202
(dp203
S'ADV'
p204
F0.001608
sS'ADJ'
p205
F0.059996
sS'NOUN'
p206
F0.938396
s(lp207
(S'right'
p208
I24
tp209
atp210
a(S'de'
p211
(dp212
S'ADP'
p213
F1.0
s(lp214
(S'to'
p215
I25
tp216
atp217
a(S'conna\xc3\xaetre'
p218
(dp219
S'VERB'
p220
F1.0
s(lp221
(S'know'
p222
I26
tp223
atp224
a(S'le'
p225
(dp226
S'PRON'
p227
F3.4e-05
sS'DET'
p228
F0.999966
s(lp229
(S"'"
p230
I29
tp231
atp232
a(S'choix'
p233
(dp234
S'NOUN'
p235
F1.0
s(lp236
(S'choice'
p237
I30
tp238
atp239
a(S'de'
p240
(dp241
S'ADP'
p242
F1.0
s(lp243
tp244
a(S'leurs'
p245
(dp246
S'PRON'
p247
F1.0
s(lp248
(S'their'
p249
I27
tp250
atp251
a(S'repr\xc3\xa9sentants'
p252
(dp253
S'NOUN'
p254
F1.0
s(lp255
(S'representatives'
p256
I28
tp257
atp258
a(g17
(dp259
g17
F1.0
s(lp260
(g17
I31
tp261
atp262
asS'en'
p263
(lp264
(g8
(dp265
S'NOUN'
p266
F5e-06
sS'DET'
p267
F0.999995
s(lp268
(g8
I0
tp269
atp270
a(g39
(dp271
S'NOUN'
p272
F1.0
s(lp273
(g39
I1
tp274
atp275
a(g46
(dp276
S'ADP'
p277
F1.0
s(lp278
(g46
I2
tp279
atp280
a(S'the'
p281
(dp282
S'NOUN'
p283
F1e-06
sS'DET'
p284
F0.999999
s(lp285
(g281
I3
tp286
atp287
a(g54
(dp288
S'NOUN'
p289
F1.0
s(lp290
(g54
I4
tp291
atp292
a(g61
(dp293
S'ADP'
p294
F1.0
s(lp295
(g61
I5
tp296
atp297
a(g70
(dp298
S'NOUN'
p299
F1e-06
sS'DET'
p300
F0.999999
s(lp301
(g70
I6
tp302
atp303
a(g85
(dp304
S'NOUN'
p305
F0.108813
sS'VERB'
p306
F1.1e-05
sS'ADJ'
p307
F0.891176
s(lp308
(g85
I7
tp309
atp310
a(g77
(dp311
S'VERB'
p312
F3e-06
sS'NOUN'
p313
F0.999997
s(lp314
(g77
I8
tp315
atp316
a(g93
(dp317
S'VERB'
p318
F1.0
s(lp319
(g93
I9
tp320
atp321
a(g102
(dp322
S'DET'
p323
F1.0
s(lp324
(g102
I10
tp325
atp326
a(g123
(dp327
S'ADV'
p328
F1.0
s(lp329
(g123
I11
tp330
atp331
a(g130
(dp332
S'ADJ'
p333
F1.0
s(lp334
(g130
I12
tp335
atp336
a(g110
(dp337
S'VERB'
p338
F0.000473
sS'NOUN'
p339
F0.999527
s(lp340
(g110
I13
tp341
atp342
a(g20
(dp343
g17
F1.0
s(lp344
(g20
I14
tp345
atp346
a(g137
(dp347
S'CONJ'
p348
F1.0
sS'NOUN'
p349
F0.0
s(lp350
(g137
I15
tp351
atp352
a(g146
(dp353
S'NOUN'
p354
F1.3e-05
sS'DET'
p355
F0.999987
s(lp356
(g146
I16
tp357
atp358
a(g153
(dp359
S'NOUN'
p360
F1.0
s(lp361
(g153
I17
tp362
atp363
a(g160
(dp364
S'ADP'
p365
F1.0
s(lp366
(g160
I18
tp367
atp368
a(g169
(dp369
S'NOUN'
p370
F4e-06
sS'DET'
p371
F0.999996
s(lp372
(g169
I19
tp373
atp374
a(g176
(dp375
S'ADV'
p376
F6.7e-05
sS'ADJ'
p377
F0.000191
sS'VERB'
p378
F4.9999999999999996e-06
sS'NOUN'
p379
F0.9997369999999999
s(lp380
(g176
I20
tp381
atp382
a(g183
(dp383
S'VERB'
p384
F1.0
s(lp385
(g183
I21
tp386
atp387
a(g191
(dp388
S'VERB'
p389
F1.0
s(lp390
(g191
I22
tp391
atp392
a(g199
(dp393
S'NOUN'
p394
F0.0
sS'DET'
p395
F1.0
s(lp396
(g199
I23
tp397
atp398
a(g208
(dp399
S'ADV'
p400
F0.028373
sS'ADJ'
p401
F0.188081
sS'VERB'
p402
F1.6e-05
sS'NOUN'
p403
F0.78353
s(lp404
(g208
I24
tp405
atp406
a(g215
(dp407
S'ADV'
p408
F0.0
sS'PRT'
p409
F1.0
sS'ADP'
p410
F0.0
s(lp411
(g215
I25
tp412
atp413
a(g222
(dp414
S'VERB'
p415
F1.0
s(lp416
(g222
I26
tp417
atp418
a(g249
(dp419
S'PRON'
p420
F1.0
s(lp421
(g249
I27
tp422
atp423
a(g256
(dp424
S'NOUN'
p425
F1.0
s(lp426
(g256
I28
tp427
atp428
a(g230
(dp429
S'PRT'
p430
F0.980171
sg17
F0.019829
s(lp431
(g230
I29
tp432
atp433
a(g237
(dp434
S'ADJ'
p435
F0.016603
sS'NOUN'
p436
F0.983397
s(lp437
(g237
I30
tp438
atp439
a(g17
(dp440
g17
F1.0
s(lp441
(g17
I31
tp442
atp443
asS'nl'
p444
(lp445
(S'de'
p446
(dp447
S'DET'
p448
F1.0
s(lp449
(g8
I0
tp450
atp451
a(S'verkiezing'
p452
(dp453
S'NOUN'
p454
F1.0
s(lp455
(g39
I1
tp456
atp457
a(S'van'
p458
(dp459
S'ADP'
p460
F1.0
s(lp461
(g46
I2
tp462
atp463
a(S'de'
p464
(dp465
S'DET'
p466
F1.0
s(lp467
(g281
I3
tp468
atp469
a(S'voorzitter'
p470
(dp471
S'NOUN'
p472
F1.0
s(lp473
(g54
I4
tp474
atp475
a(S'van'
p476
(dp477
S'ADP'
p478
F1.0
s(lp479
(g61
I5
tp480
atp481
a(S'de'
p482
(dp483
S'DET'
p484
F1.0
s(lp485
(g70
I6
tp486
atp487
a(S'europese'
p488
(dp489
S'NOUN'
p490
F1.0
s(lp491
(g85
I7
tp492
atp493
a(S'commissie'
p494
(dp495
S'NOUN'
p496
F1.0
s(lp497
(g77
I8
tp498
atp499
a(S'is'
p500
(dp501
S'VERB'
p502
F1.0
s(lp503
(g93
I9
tp504
atp505
a(S'een'
p506
(dp507
S'ADJ'
p508
F2e-06
sS'PRON'
p509
F3.6e-05
sS'NUM'
p510
F1e-06
sS'DET'
p511
F0.999962
s(lp512
(g102
I10
tp513
atp514
a(S'zeer'
p515
(dp516
S'NOUN'
p517
F0.000596
sS'ADJ'
p518
F0.999404
s(lp519
(g123
I11
tp520
atp521
a(S'belangrijke'
p522
(dp523
S'NOUN'
p524
F0.000336
sS'ADJ'
p525
F0.999664
s(lp526
(g130
I12
tp527
atp528
a(S'zaak'
p529
(dp530
S'NOUN'
p531
F1.0
s(lp532
(g110
I13
tp533
atp534
a(S'en'
p535
(dp536
S'CONJ'
p537
F1.0
s(lp538
(g137
I15
tp539
atp540
a(S'de'
p541
(dp542
S'DET'
p543
F1.0
s(lp544
(g146
I16
tp545
atp546
a(S'burgers'
p547
(dp548
S'NOUN'
p549
F1.0
s(lp550
(g153
I17
tp551
atp552
a(S'van'
p553
(dp554
S'ADP'
p555
F1.0
s(lp556
(g160
I18
tp557
atp558
a(S'de'
p559
(dp560
S'DET'
p561
F1.0
s(lp562
(g169
I19
tp563
atp564
a(S'europese'
p565
(dp566
S'NOUN'
p567
F1.0
s(lp568
tp569
a(S'unie'
p570
(dp571
S'NOUN'
p572
F1.0
s(lp573
(g176
I20
tp574
atp575
a(S'zouden'
p576
(dp577
S'VERB'
p578
F1.0
s(lp579
(g183
I21
tp580
atp581
a(S'het'
p582
(dp583
S'PRON'
p584
F0.012346999999999999
sS'DET'
p585
F0.987653
s(lp586
(g199
I23
tp587
atp588
a(S'recht'
p589
(dp590
S'ADJ'
p591
F3.9e-05
sS'VERB'
p592
F1e-06
sS'NOUN'
p593
F0.99996
s(lp594
(g208
I24
tp595
atp596
a(S'moeten'
p597
(dp598
S'VERB'
p599
F0.999982
sS'NOUN'
p600
F1.9e-05
s(lp601
(g215
I25
tp602
atp603
a(S'hebben'
p604
(dp605
S'VERB'
p606
F0.999998
sS'NOUN'
p607
F2e-06
s(lp608
(g191
I22
tp609
atp610
a(S'om'
p611
(dp612
S'ADV'
p613
F0.001639
sS'CONJ'
p614
F0.986278
sS'ADP'
p615
F0.012082
s(lp616
(g215
I25
tp617
atp618
a(S'op'
p619
(dp620
S'ADV'
p621
F0.011651
sS'ADJ'
p622
F0.0
sS'ADP'
p623
F0.988349
s(lp624
tp625
a(S'de'
p626
(dp627
S'DET'
p628
F1.0
s(lp629
tp630
a(S'hoogte'
p631
(dp632
S'NOUN'
p633
F1.0
s(lp634
(g222
I26
tp635
atp636
a(S'te'
p637
(dp638
S'PRT'
p639
F1.0
s(lp640
(g215
I25
tp641
atp642
a(S'zijn'
p643
(dp644
S'PRON'
p645
F0.000946
sS'VERB'
p646
F0.999054
sS'NOUN'
p647
F0.0
s(lp648
tp649
a(S'van'
p650
(dp651
S'ADP'
p652
F1.0
s(lp653
tp654
a(S'de'
p655
(dp656
S'DET'
p657
F1.0
s(lp658
(g230
I29
tp659
atp660
a(S'keuze'
p661
(dp662
S'NOUN'
p663
F1.0
s(lp664
(g237
I30
tp665
atp666
a(S'van'
p667
(dp668
S'ADP'
p669
F1.0
s(lp670
tp671
a(S'hun'
p672
(dp673
S'PRON'
p674
F1.0
s(lp675
(g249
I27
tp676
atp677
a(S'vertegenwoordigers'
p678
(dp679
S'NOUN'
p680
F1.0
s(lp681
(g256
I28
tp682
atp683
a(g17
(dp684
g17
F1.0
s(lp685
(g17
I31
tp686
atp687
asS'de'
p688
(lp689
(S'die'
p690
(dp691
S'PRON'
p692
F0.002639
sS'DET'
p693
F0.996664
s(lp694
(g8
I0
tp695
atp696
a(S'wahl'
p697
(dp698
S'ADJ'
p699
F0.013009
sS'NOUN'
p700
F0.97442
s(lp701
(g39
I1
tp702
atp703
a(S'des'
p704
(dp705
S'DET'
p706
F1.0
s(lp707
(g46
I2
tp708
atp709
a(S'pr\xc3\xa4sidenten'
p710
(dp711
S'ADJ'
p712
F0.006362
sS'NOUN'
p713
F0.993577
s(lp714
(g54
I4
tp715
atp716
a(S'der'
p717
(dp718
S'PRON'
p719
F8.7e-05
sS'DET'
p720
F0.999897
s(lp721
(g70
I6
tp722
atp723
a(S'europ\xc3\xa4ischen'
p724
(dp725
S'ADJ'
p726
F1.0
s(lp727
(g85
I7
tp728
atp729
a(S'kommission'
p730
(dp731
S'ADJ'
p732
F0.004452
sS'NOUN'
p733
F0.991693
s(lp734
(g77
I8
tp735
atp736
a(S'ist'
p737
(dp738
S'VERB'
p739
F1.0
s(lp740
(g93
I9
tp741
atp742
a(S'ein'
p743
(dp744
S'NUM'
p745
F0.001056
sS'DET'
p746
F0.998942
s(lp747
(g102
I10
tp748
atp749
a(S'\xc3\xa4u\xc3\x9ferst'
p750
(dp751
S'ADV'
p752
F0.999993
sS'VERB'
p753
F7e-06
s(lp754
(g123
I11
tp755
atp756
a(S'wichtiger'
p757
(dp758
S'ADJ'
p759
F1.0
s(lp760
(g130
I12
tp761
atp762
a(S'vorgang'
p763
(dp764
S'VERB'
p765
F0.449862
sS'NOUN'
p766
F0.441193
s(lp767
(g110
I13
tp768
atp769
a(g20
(dp770
g17
F1.0
s(lp771
(g20
I14
tp772
atp773
a(S'und'
p774
(dp775
S'CONJ'
p776
F1.0
s(lp777
(g137
I15
tp778
atp779
a(S'die'
p780
(dp781
S'PRON'
p782
F0.005103
sS'DET'
p783
F0.989899
s(lp784
(g146
I16
tp785
atp786
a(S'eu-b\xc3\xbcrger'
p787
(dp788
S'ADJ'
p789
F0.010951
sS'NOUN'
p790
F0.98592
s(lp791
(g153
I17
tp792
atp793
a(S'sollten'
p794
(dp795
S'VERB'
p796
F1.0
s(lp797
(g183
I21
tp798
atp799
a(S'das'
p800
(dp801
S'PRON'
p802
F0.522608
sS'DET'
p803
F0.476982
s(lp804
(g199
I23
tp805
atp806
a(S'recht'
p807
(dp808
S'VERB'
p809
F4.7e-05
sS'ADJ'
p810
F0.999931
s(lp811
(g208
I24
tp812
atp813
a(S'haben'
p814
(dp815
S'VERB'
p816
F0.998704
s(lp817
(g191
I22
tp818
atp819
a(g20
(dp820
g17
F1.0
s(lp821
tp822
a(S'die'
p823
(dp824
S'PRON'
p825
F0.117531
sS'DET'
p826
F0.881301
s(lp827
(g169
I19
tp828
atp829
a(S'entscheidung'
p830
(dp831
S'ADJ'
p832
F0.000781
sS'NOUN'
p833
F0.998555
s(lp834
(g237
I30
tp835
atp836
a(S'ihrer'
p837
(dp838
S'PRON'
p839
F1.0
s(lp840
(g249
I27
tp841
atp842
a(S'repr\xc3\xa4sentanten'
p843
(dp844
S'ADJ'
p845
F0.000945
sS'NOUN'
p846
F0.99895
s(lp847
(g256
I28
tp848
atp849
a(S'zu'
p850
(dp851
S'PRT'
p852
F0.999556
s(lp853
(g215
I25
tp854
atp855
a(S'erfahren'
p856
(dp857
S'VERB'
p858
F0.999714
s(lp859
(g222
I26
tp860
atp861
a(g17
(dp862
g17
F1.0
s(lp863
(g17
I31
tp864
atp865
asS'it'
p866
(lp867
(S"l'"
p868
(dp869
S'NOUN'
p870
F0.00259
sS'VERB'
p871
F0.9925710000000001
sS'ADJ'
p872
F0.00484
s(lp873
(g8
I0
tp874
atp875
a(S'elezione'
p876
(dp877
S'NOUN'
p878
F1.0
s(lp879
(g39
I1
tp880
atp881
a(S'del'
p882
(dp883
S'DEF'
p884
F0.001248
sS'ADP'
p885
F0.998752
s(lp886
(g46
I2
tp887
atp888
a(S'presidente'
p889
(dp890
S'NOUN'
p891
F1.0
s(lp892
(g54
I4
tp893
atp894
a(S'della'
p895
(dp896
S'DEF'
p897
F0.001587
sS'ADP'
p898
F0.998413
s(lp899
(g61
I5
tp900
atp901
a(S'commissione'
p902
(dp903
S'NOUN'
p904
F1.0
s(lp905
(g77
I8
tp906
atp907
a(S'europea'
p908
(dp909
S'NOUN'
p910
F0.003863
sS'ADJ'
p911
F0.996137
s(lp912
(g85
I7
tp913
atp914
a(S'\xc3\xa8'
p915
(dp916
S'VERB'
p917
F1.0
s(lp918
(g93
I9
tp919
atp920
a(S'un'
p921
(dp922
S'PRON'
p923
F0.001055
sS'DEF'
p924
F0.998945
s(lp925
(g102
I10
tp926
atp927
a(S'atto'
p928
(dp929
S'ADJ'
p930
F0.156955
sS'NOUN'
p931
F0.843045
s(lp932
(g110
I13
tp933
atp934
a(S'di'
p935
(dp936
S'CONJ'
p937
F1.6e-05
sS'ADP'
p938
F0.999984
s(lp939
tp940
a(S'estrema'
p941
(dp942
S'NOUN'
p943
F0.012882
sS'ADJ'
p944
F0.987118
s(lp945
(g123
I11
tp946
atp947
a(S'importanza'
p948
(dp949
S'NOUN'
p950
F1.0
s(lp951
(g130
I12
tp952
atp953
a(S'e'
p954
(dp955
S'CONJ'
p956
F1.0
s(lp957
(g137
I15
tp958
atp959
a(S'i'
p960
(dp961
S'DET'
p962
F1.0
s(lp963
tp964
a(S'cittadini'
p965
(dp966
S'NOUN'
p967
F0.462734
sS'ADJ'
p968
F0.537266
s(lp969
(g153
I17
tp970
atp971
a(S"dell'"
p972
(dp973
S'ADJ'
p974
F0.019241
sS'VERB'
p975
F0.0030939999999999995
sS'NOUN'
p976
F0.977664
s(lp977
(g160
I18
tp978
atp979
a(S'ue'
p980
(dp981
S'ADJ'
p982
F0.000123
sS'VERB'
p983
F0.019393
sS'NOUN'
p984
F0.980485
s(lp985
(g176
I20
tp986
atp987
a(S'dovrebbero'
p988
(dp989
S'VERB'
p990
F1.0
s(lp991
(g183
I21
tp992
atp993
a(S'avere'
p994
(dp995
S'VERB'
p996
F0.999918
sS'NOUN'
p997
F8.2e-05
s(lp998
(g191
I22
tp999
atp1000
a(S'il'
p1001
(dp1002
S'DET'
p1003
F1.0
s(lp1004
(g199
I23
tp1005
atp1006
a(S'diritto'
p1007
(dp1008
S'ADJ'
p1009
F0.011031
sS'NOUN'
p1010
F0.988969
s(lp1011
(g208
I24
tp1012
atp1013
a(S'di'
p1014
(dp1015
S'CONJ'
p1016
F6e-06
sS'ADP'
p1017
F0.999994
s(lp1018
(g215
I25
tp1019
atp1020
a(S'sapere'
p1021
(dp1022
S'VERB'
p1023
F0.989696
sS'NOUN'
p1024
F0.010304
s(lp1025
tp1026
a(S'quali'
p1027
(dp1028
S'PRON'
p1029
F0.892225
sS'ADJ'
p1030
F0.107775
s(lp1031
(g222
I26
tp1032
atp1033
a(S'scelte'
p1034
(dp1035
S'ADJ'
p1036
F0.120951
sS'VERB'
p1037
F0.021173
sS'NOUN'
p1038
F0.857876
s(lp1039
tp1040
a(S'compiono'
p1041
(dp1042
S'VERB'
p1043
F1.0
s(lp1044
(g237
I30
tp1045
atp1046
a(g960
(dp1047
S'DET'
p1048
F1.0
s(lp1049
tp1050
a(S'loro'
p1051
(dp1052
S'PRON'
p1053
F1.0
s(lp1054
(g249
I27
tp1055
atp1056
a(S'rappresentanti'
p1057
(dp1058
S'ADJ'
p1059
F0.02605
sS'VERB'
p1060
F3e-05
sS'NOUN'
p1061
F0.97392
s(lp1062
(g256
I28
tp1063
atp1064
a(g17
(dp1065
g17
F1.0
s(lp1066
(g17
I31
tp1067
atp1068
asS'sk'
p1069
(lp1070
(S'vo\xc4\xbeba'
p1071
(dp1072
S'NOUN'
p1073
F1.0
s(lp1074
(g39
I1
tp1075
atp1076
a(S'predsedu'
p1077
(dp1078
S'NOUN'
p1079
F1.0
s(lp1080
(g54
I4
tp1081
atp1082
a(S'eur\xc3\xb3pskej'
p1083
(dp1084
S'ADJ'
p1085
F1.0
s(lp1086
(g85
I7
tp1087
atp1088
a(S'komisie'
p1089
(dp1090
S'NOUN'
p1091
F1.0
s(lp1092
(g77
I8
tp1093
atp1094
a(S'je'
p1095
(dp1096
S'X'
p1097
F0.000366
sS'VERB'
p1098
F0.999602
sS'PRON'
p1099
F3.2e-05
s(lp1100
(g93
I9
tp1101
atp1102
a(S'mimoriadne'
p1103
(dp1104
S'ADV'
p1105
F0.735675
sS'ADJ'
p1106
F0.264325
s(lp1107
(g123
I11
tp1108
atp1109
a(S'd\xc3\xb4le\xc5\xbeit\xc3\xbd'
p1110
(dp1111
S'ADJ'
p1112
F1.0
s(lp1113
(g130
I12
tp1114
atp1115
a(S'\xc3\xbakon'
p1116
(dp1117
S'NOUN'
p1118
F1.0
s(lp1119
(g110
I13
tp1120
atp1121
a(S'a'
p1122
(dp1123
g1097
F0.0021
sS'CONJ'
p1124
F0.997071
sS'NOUN'
p1125
F0.00018099999999999998
sS'ADP'
p1126
F0.000594
sS'PRT'
p1127
F5.3e-05
s(lp1128
(g137
I15
tp1129
atp1130
a(S'ob\xc4\x8dania'
p1131
(dp1132
S'NOUN'
p1133
F1.0
s(lp1134
(g153
I17
tp1135
atp1136
a(S'e\xc3\x9a'
p1137
(dp1138
S'ADV'
p1139
F0.042792
sS'NOUN'
p1140
F0.30199600000000004
sS'VERB'
p1141
F0.019296
sS'ADJ'
p1142
F0.632254
sg1097
F0.0036609999999999998
s(lp1143
(g176
I20
tp1144
atp1145
a(S'by'
p1146
(dp1147
S'PRT'
p1148
F0.99909
sg1097
F0.00091
s(lp1149
tp1150
a(S'mali'
p1151
(dp1152
S'VERB'
p1153
F0.999999
s(lp1154
(g183
I21
tp1155
atp1156
a(S'ma\xc5\xa5'
p1157
(dp1158
S'VERB'
p1159
F0.9974
sS'NOUN'
p1160
F0.0026
s(lp1161
(g191
I22
tp1162
atp1163
a(S'pr\xc3\xa1vo'
p1164
(dp1165
S'NOUN'
p1166
F1.0
s(lp1167
(g208
I24
tp1168
atp1169
a(S'pozna\xc5\xa5'
p1170
(dp1171
S'VERB'
p1172
F1.0
s(lp1173
(g222
I26
tp1174
atp1175
a(S'rozhodnutia'
p1176
(dp1177
S'NOUN'
p1178
F1.0
s(lp1179
(g237
I30
tp1180
atp1181
a(S'svojich'
p1182
(dp1183
S'PRON'
p1184
F1.0
s(lp1185
(g249
I27
tp1186
atp1187
a(S'z\xc3\xa1stupcov'
p1188
(dp1189
S'NOUN'
p1190
F1.0
s(lp1191
(g256
I28
tp1192
atp1193
a(g17
(dp1194
g17
F1.0
s(lp1195
(g17
I31
tp1196
atp1197
asS'pl'
p1198
(lp1199
(S'wyb\xc3\xb3r'
p1200
(dp1201
S'NOUN'
p1202
F1.0
s(lp1203
(g39
I1
tp1204
atp1205
a(S'przewodnicz\xc4\x85cego'
p1206
(dp1207
S'NOUN'
p1208
F1.0
s(lp1209
(g54
I4
tp1210
atp1211
a(S'komisji'
p1212
(dp1213
S'NOUN'
p1214
F1.0
s(lp1215
(g77
I8
tp1216
atp1217
a(S'europejskiej'
p1218
(dp1219
S'ADJ'
p1220
F0.9999999999999999
s(lp1221
(g85
I7
tp1222
atp1223
a(S'to'
p1224
(dp1225
S'NOUN'
p1226
F0.069363
sS'ADP'
p1227
F7.3e-05
sS'PRT'
p1228
F0.11706
sg1097
F2e-06
sS'CONJ'
p1229
F0.259348
sS'ADJ'
p1230
F0.5541539999999999
s(lp1231
(g93
I9
tp1232
atp1233
a(S'bardzo'
p1234
(dp1235
S'ADV'
p1236
F1.0
s(lp1237
(g123
I11
tp1238
atp1239
a(S'wa\xc5\xbcne'
p1240
(dp1241
S'ADJ'
p1242
F1.000002
s(lp1243
(g130
I12
tp1244
atp1245
a(S'wydarzenie'
p1246
(dp1247
S'NOUN'
p1248
F1.0
s(lp1249
(g110
I13
tp1250
atp1251
a(g960
(dp1252
S'PRT'
p1253
F0.013354
sS'CONJ'
p1254
F0.986507
sS'PRON'
p1255
F5e-06
sS'NOUN'
p1256
F8e-06
sg1097
F0.000126
s(lp1257
(g137
I15
tp1258
atp1259
a(S'obywatele'
p1260
(dp1261
S'NOUN'
p1262
F1.0
s(lp1263
(g153
I17
tp1264
atp1265
a(S'ue'
p1266
(dp1267
S'ADJ'
p1268
F8.7e-05
sS'VERB'
p1269
F0.000319
sS'NOUN'
p1270
F0.9995919999999999
s(lp1271
(g176
I20
tp1272
atp1273
a(S'powinni'
p1274
(dp1275
S'VERB'
p1276
F1.0
s(lp1277
(g183
I21
tp1278
atp1279
a(S'mie\xc4\x87'
p1280
(dp1281
S'VERB'
p1282
F1.0
s(lp1283
(g191
I22
tp1284
atp1285
a(S'prawo'
p1286
(dp1287
S'ADV'
p1288
F0.005461
sS'ADJ'
p1289
F0.001328
sS'NOUN'
p1290
F0.9932110000000001
s(lp1291
(g208
I24
tp1292
atp1293
a(S'pozna\xc4\x87'
p1294
(dp1295
S'VERB'
p1296
F1.0
s(lp1297
(g222
I26
tp1298
atp1299
a(S'decyzje'
p1300
(dp1301
S'NOUN'
p1302
F1.0
s(lp1303
(g237
I30
tp1304
atp1305
a(S'swoich'
p1306
(dp1307
S'NOUN'
p1308
F0.00052
sS'ADJ'
p1309
F0.9994799999999999
s(lp1310
(g249
I27
tp1311
atp1312
a(S'przedstawicieli'
p1313
(dp1314
S'NOUN'
p1315
F1.0
s(lp1316
(g256
I28
tp1317
atp1318
a(g17
(dp1319
g17
F1.0
s(lp1320
(g17
I31
tp1321
atp1322
asS'sl'
p1323
(lp1324
(S'v'
p1325
(dp1326
S'ADP'
p1327
F1.0
s(lp1328
(g46
I2
tp1329
atp1330
a(S'pisni'
p1331
(dp1332
S'ADJ'
p1333
F1.0
s(lp1334
(g46
I2
tp1335
atp1336
a(S'obliki'
p1337
(dp1338
S'NOUN'
p1339
F1.0
s(lp1340
(g46
I2
tp1341
atp1342
a(g17
(dp1343
g17
F1.0
s(lp1344
(g46
I2
tp1345
atp1346
a(g23
(dp1347
g17
F1.0
s(lp1348
tp1349
a(S'('
p1350
(dp1351
g17
F1.0
s(lp1352
(g54
I4
tp1353
atp1354
a(S'fr'
p1355
(dp1356
S'ADV'
p1357
F0.000568
sg1097
F0.035062
sS'ADJ'
p1358
F8.5e-05
sS'NOUN'
p1359
F0.9642849999999998
s(lp1360
(g46
I2
tp1361
atp1362
a(S')'
p1363
(dp1364
g17
F1.0
s(lp1365
tp1366
a(S'izvolitev'
p1367
(dp1368
S'NOUN'
p1369
F1.0
s(lp1370
(g39
I1
tp1371
atp1372
a(S'predsednika'
p1373
(dp1374
S'NOUN'
p1375
F1.0
s(lp1376
(g54
I4
tp1377
atp1378
a(S'evropske'
p1379
(dp1380
S'ADJ'
p1381
F1.0
s(lp1382
(g85
I7
tp1383
atp1384
a(S'komisije'
p1385
(dp1386
S'NOUN'
p1387
F1.0
s(lp1388
(g77
I8
tp1389
atp1390
a(S'je'
p1391
(dp1392
S'PRON'
p1393
F4.7e-05
sS'VERB'
p1394
F0.999949
sg1097
F4e-06
s(lp1395
(g93
I9
tp1396
atp1397
a(S'izredno'
p1398
(dp1399
S'ADV'
p1400
F0.502621
sS'ADJ'
p1401
F0.497378
s(lp1402
(g123
I11
tp1403
atp1404
a(S'pomembno'
p1405
(dp1406
S'ADV'
p1407
F0.00081
sS'ADJ'
p1408
F0.999191
s(lp1409
(g130
I12
tp1410
atp1411
a(S'dejanje'
p1412
(dp1413
S'NOUN'
p1414
F1.0
s(lp1415
(g110
I13
tp1416
atp1417
a(S'in'
p1418
(dp1419
S'ADV'
p1420
F4.7e-05
sg1097
F1.4e-05
sS'CONJ'
p1421
F0.999929
sS'NOUN'
p1422
F1e-05
s(lp1423
(g137
I15
tp1424
atp1425
a(S'dr\xc5\xbeavljani'
p1426
(dp1427
S'NOUN'
p1428
F1.0
s(lp1429
(g153
I17
tp1430
atp1431
a(S'eu'
p1432
(dp1433
S'ADV'
p1434
F0.022239
sS'ADJ'
p1435
F0.014105
sS'VERB'
p1436
F0.000604
sS'NOUN'
p1437
F0.9630529999999999
s(lp1438
(g176
I20
tp1439
atp1440
a(S'bi'
p1441
(dp1442
g1097
F4.4e-05
sS'VERB'
p1443
F0.999956
s(lp1444
tp1445
a(S'morali'
p1446
(dp1447
S'VERB'
p1448
F1.0
s(lp1449
(g183
I21
tp1450
atp1451
a(S'imeti'
p1452
(dp1453
S'VERB'
p1454
F1.0
s(lp1455
(g191
I22
tp1456
atp1457
a(S'pravico'
p1458
(dp1459
S'NOUN'
p1460
F1.0
s(lp1461
(g208
I24
tp1462
atp1463
a(S'poznati'
p1464
(dp1465
S'VERB'
p1466
F1.0
s(lp1467
(g222
I26
tp1468
atp1469
a(S'izbor'
p1470
(dp1471
S'NOUN'
p1472
F1.0
s(lp1473
(g237
I30
tp1474
atp1475
a(S'njihovih'
p1476
(dp1477
S'PRON'
p1478
F0.9999990000000001
s(lp1479
(g249
I27
tp1480
atp1481
a(S'predstavnikov'
p1482
(dp1483
S'NOUN'
p1484
F1.0
s(lp1485
(g256
I28
tp1486
atp1487
a(g17
(dp1488
g17
F1.0
s(lp1489
(g17
I31
tp1490
atp1491
asS'es'
p1492
(lp1493
(S'por'
p1494
(dp1495
S'ADP'
p1496
F1.0
s(lp1497
(g8
I0
tp1498
atp1499
a(S'escrito'
p1500
(dp1501
S'VERB'
p1502
F0.31338
sS'ADJ'
p1503
F0.68662
s(lp1504
tp1505
a(g17
(dp1506
g17
F1.0
s(lp1507
(g17
I31
tp1508
atp1509
a(g23
(dp1510
g17
F1.0
s(lp1511
(g54
I4
tp1512
atp1513
a(g1350
(dp1514
g17
F1.0
s(lp1515
(g54
I4
tp1516
atp1517
a(S'fr'
p1518
(dp1519
S'ADJ'
p1520
F0.322495
sS'VERB'
p1521
F0.002738
sS'NOUN'
p1522
F0.674767
s(lp1523
(g54
I4
tp1524
atp1525
a(g1363
(dp1526
g17
F1.0
s(lp1527
tp1528
a(S'la'
p1529
(dp1530
g1097
F3.7e-05
sS'PRON'
p1531
F0.0
sS'DET'
p1532
F0.999962
sS'NOUN'
p1533
F1e-06
s(lp1534
(g281
I3
tp1535
atp1536
a(S'elecci\xc3\xb3n'
p1537
(dp1538
S'NOUN'
p1539
F1.0
s(lp1540
(g39
I1
tp1541
atp1542
a(S'del'
p1543
(dp1544
S'ADP'
p1545
F1.0
s(lp1546
(g46
I2
tp1547
atp1548
a(S'presidente'
p1549
(dp1550
S'NOUN'
p1551
F1.0
s(lp1552
(g54
I4
tp1553
atp1554
a(S'de'
p1555
(dp1556
g1097
F0.0
sS'CONJ'
p1557
F1.7e-05
sS'ADP'
p1558
F0.999983
s(lp1559
(g61
I5
tp1560
atp1561
a(S'la'
p1562
(dp1563
g1097
F0.0
sS'PRON'
p1564
F0.0
sS'DET'
p1565
F0.999999
sS'NOUN'
p1566
F0.0
s(lp1567
(g70
I6
tp1568
atp1569
a(S'comisi\xc3\xb3n'
p1570
(dp1571
S'NOUN'
p1572
F1.0
s(lp1573
(g77
I8
tp1574
atp1575
a(S'europea'
p1576
(dp1577
S'ADJ'
p1578
F1.0
s(lp1579
(g85
I7
tp1580
atp1581
a(S'es'
p1582
(dp1583
S'VERB'
p1584
F1.0
s(lp1585
(g93
I9
tp1586
atp1587
a(S'un'
p1588
(dp1589
g1097
F4e-06
sS'DET'
p1590
F0.999996
s(lp1591
(g102
I10
tp1592
atp1593
a(S'acto'
p1594
(dp1595
S'NOUN'
p1596
F1.0
s(lp1597
(g110
I13
tp1598
atp1599
a(S'sumamente'
p1600
(dp1601
S'ADV'
p1602
F1.0
s(lp1603
(g123
I11
tp1604
atp1605
a(S'importante'
p1606
(dp1607
S'VERB'
p1608
F0.114353
sS'ADJ'
p1609
F0.885647
s(lp1610
(g130
I12
tp1611
atp1612
a(S'y'
p1613
(dp1614
g1097
F0.000105
sS'CONJ'
p1615
F0.999895
s(lp1616
(g137
I15
tp1617
atp1618
a(S'los'
p1619
(dp1620
S'PRON'
p1621
F0.000425
sS'DET'
p1622
F0.999575
s(lp1623
(g146
I16
tp1624
atp1625
a(S'ciudadanos'
p1626
(dp1627
S'NOUN'
p1628
F1.0
s(lp1629
(g153
I17
tp1630
atp1631
a(S'de'
p1632
(dp1633
g1097
F0.0
sS'CONJ'
p1634
F1.7e-05
sS'ADP'
p1635
F0.999983
s(lp1636
(g160
I18
tp1637
atp1638
a(S'la'
p1639
(dp1640
g1097
F0.0
sS'PRON'
p1641
F0.0
sS'DET'
p1642
F0.999999
sS'NOUN'
p1643
F0.0
s(lp1644
(g169
I19
tp1645
atp1646
a(S'ue'
p1647
(dp1648
S'VERB'
p1649
F0.0
sS'NOUN'
p1650
F1.0
s(lp1651
(g176
I20
tp1652
atp1653
a(S'deber\xc3\xadan'
p1654
(dp1655
S'VERB'
p1656
F1.0
s(lp1657
(g183
I21
tp1658
atp1659
a(S'tener'
p1660
(dp1661
S'VERB'
p1662
F1.0
s(lp1663
(g191
I22
tp1664
atp1665
a(S'el'
p1666
(dp1667
S'PRON'
p1668
F3e-06
sS'DET'
p1669
F0.999997
s(lp1670
(g199
I23
tp1671
atp1672
a(S'derecho'
p1673
(dp1674
S'ADV'
p1675
F0.002567
sS'ADJ'
p1676
F0.161574
sS'NOUN'
p1677
F0.835859
s(lp1678
(g208
I24
tp1679
atp1680
a(S'de'
p1681
(dp1682
g1097
F0.0
sS'CONJ'
p1683
F0.393877
sS'ADP'
p1684
F0.606122
s(lp1685
(g215
I25
tp1686
atp1687
a(S'conocer'
p1688
(dp1689
S'VERB'
p1690
F1.0
s(lp1691
(g222
I26
tp1692
atp1693
a(S'la'
p1694
(dp1695
S'PRON'
p1696
F4e-06
sS'DET'
p1697
F0.999995
sS'NOUN'
p1698
F0.0
sg1097
F1e-06
s(lp1699
tp1700
a(S'elecci\xc3\xb3n'
p1701
(dp1702
S'NOUN'
p1703
F1.0
s(lp1704
(g237
I30
tp1705
atp1706
a(S'de'
p1707
(dp1708
g1097
F0.0
sS'CONJ'
p1709
F0.000289
sS'ADP'
p1710
F0.999711
s(lp1711
tp1712
a(S'sus'
p1713
(dp1714
S'PRON'
p1715
F1.0
s(lp1716
(g249
I27
tp1717
atp1718
a(S'representantes'
p1719
(dp1720
S'NOUN'
p1721
F1.0
s(lp1722
(g256
I28
tp1723
atp1724
a(g17
(dp1725
g17
F1.0
s(lp1726
(g230
I29
tp1727
atp1728
as.