(dp0
S'fr'
p1
(lp2
(S'pour'
p3
(dp4
S'CONJ'
p5
F0.147666
sS'ADP'
p6
F0.852334
s(lp7
(S'to'
p8
I0
tp9
atp10
a(S'finir'
p11
(dp12
S'VERB'
p13
F1.0
s(lp14
(S'finish'
p15
I1
tp16
atp17
a(S','
p18
(dp19
S'.'
p20
F1.0
s(lp21
(g18
I2
tp22
atp23
a(S'ce'
p24
(dp25
S'PRON'
p26
F1.0
s(lp27
(S'this'
p28
I3
tp29
atp30
a(S'rapport'
p31
(dp32
S'NOUN'
p33
F1.0
s(lp34
(S'report'
p35
I4
tp36
atp37
a(S'consid\xc3\xa8re'
p38
(dp39
S'VERB'
p40
F1.0
s(lp41
(S'considers'
p42
I6
tp43
atp44
a(S'\xc3\xa9galement'
p45
(dp46
S'ADV'
p47
F1.0
s(lp48
(S'also'
p49
I5
tp50
atp51
a(S'que'
p52
(dp53
S'ADV'
p54
F0.05804
sS'PRON'
p55
F0.010026
sS'CONJ'
p56
F0.931934
s(lp57
(S'that'
p58
I7
tp59
atp60
a(S'toute'
p61
(dp62
S'ADV'
p63
F0.000541
sS'PRON'
p64
F0.999459
s(lp65
(S'any'
p66
I8
tp67
atp68
a(S'atteinte'
p69
(dp70
S'VERB'
p71
F0.001597
sS'NOUN'
p72
F0.998403
s(lp73
(S'damage'
p74
I12
tp75
atp76
a(S'volontaire'
p77
(dp78
S'NOUN'
p79
F0.009864
sS'ADJ'
p80
F0.990136
s(lp81
(S'voluntary'
p82
I9
tp83
atp84
a(S'et'
p85
(dp86
S'CONJ'
p87
F1.0
s(lp88
(S'and'
p89
I10
tp90
atp91
a(S'irr\xc3\xa9versible'
p92
(dp93
S'ADJ'
p94
F1.0
s(lp95
(S'irreversible'
p96
I11
tp97
atp98
a(S'\xc3\xa0'
p99
(dp100
S'ADP'
p101
F1.0
s(lp102
(S'to'
p103
I13
tp104
atp105
a(S"l'"
p106
(dp107
S'ADJ'
p108
F0.160704
sS'VERB'
p109
F0.06480800000000002
sS'NOUN'
p110
F0.774488
s(lp111
(S'the'
p112
I14
tp113
atp114
a(S'environnement'
p115
(dp116
S'NOUN'
p117
F1.0
s(lp118
(S'environment'
p119
I15
tp120
atp121
a(S'g\xc3\xa9n\xc3\xa8re'
p122
(dp123
S'VERB'
p124
F1.0
s(lp125
tp126
a(S'de'
p127
(dp128
S'ADP'
p129
F1.0
s(lp130
tp131
a(S'fait'
p132
(dp133
S'ADJ'
p134
F0.029048
sS'VERB'
p135
F0.012865999999999999
sS'NOUN'
p136
F0.958086
s(lp137
(S'generates'
p138
I16
tp139
atp140
a(S'des'
p141
(dp142
S'DET'
p143
F2.4e-05
sS'ADP'
p144
F0.999976
s(lp145
(S'human'
p146
I17
tp147
atp148
a(S'violations'
p149
(dp150
S'NOUN'
p151
F1.0
s(lp152
(S'violations'
p153
I19
tp154
atp155
a(S'des'
p156
(dp157
S'DET'
p158
F2.2e-05
sS'ADP'
p159
F0.999978
s(lp160
(g146
I17
tp161
atp162
a(S'droits'
p163
(dp164
S'ADJ'
p165
F0.011772
sS'NOUN'
p166
F0.988228
s(lp167
(S'rights'
p168
I18
tp169
atp170
a(S'de'
p171
(dp172
S'ADP'
p173
F1.0
s(lp174
tp175
a(S"l'"
p176
(dp177
S'ADJ'
p178
F0.160704
sS'VERB'
p179
F0.06480800000000002
sS'NOUN'
p180
F0.774488
s(lp181
tp182
a(S'homme'
p183
(dp184
S'NOUN'
p185
F1.0
s(lp186
(g146
I17
tp187
atp188
a(S'et'
p189
(dp190
S'CONJ'
p191
F1.0
s(lp192
(S'and'
p193
I20
tp194
atp195
a(S'demande'
p196
(dp197
S'VERB'
p198
F0.9781690000000001
sS'NOUN'
p199
F0.021831
s(lp200
(S'asks'
p201
I23
tp202
atp203
a(S'donc'
p204
(dp205
S'ADV'
p206
F1.0
s(lp207
(S'therefore'
p208
I22
tp209
atp210
a(S'leur'
p211
(dp212
S'PRON'
p213
F1.0
s(lp214
(S'its'
p215
I25
tp216
atp217
a(S'inclusion'
p218
(dp219
S'NOUN'
p220
F1.0
s(lp221
(S'inclusion'
p222
I26
tp223
atp224
a(S'parmi'
p225
(dp226
S'ADP'
p227
F1.0
s(lp228
(S'among'
p229
I27
tp230
atp231
a(S'les'
p232
(dp233
S'PRON'
p234
F5.6e-05
sS'DET'
p235
F0.999943
sS'ADP'
p236
F2e-06
s(lp237
(S'the'
p238
I28
tp239
atp240
a(S'motifs'
p241
(dp242
S'NOUN'
p243
F1.0
s(lp244
(S'reasons'
p245
I29
tp246
atp247
a(S'pouvant'
p248
(dp249
S'VERB'
p250
F1.0
s(lp251
tp252
a(S'conduire'
p253
(dp254
S'VERB'
p255
F1.0
s(lp256
(g96
I11
tp257
atp258
a(S'\xc3\xa0'
p259
(dp260
S'ADP'
p261
F1.0
s(lp262
(S'for'
p263
I30
tp264
atp265
a(S'des'
p266
(dp267
S'DET'
p268
F0.00067
sS'ADP'
p269
F0.99933
s(lp270
tp271
a(S'sanctions'
p272
(dp273
S'NOUN'
p274
F1.0
s(lp275
(S'sanctions'
p276
I32
tp277
atp278
a(g20
(dp279
g20
F1.0
s(lp280
(g20
I33
tp281
atp282
asS'en'
p283
(lp284
(g8
(dp285
S'ADV'
p286
F1e-06
sS'PRT'
p287
F0.999998
sS'ADP'
p288
F1e-06
s(lp289
(g8
I0
tp290
atp291
a(g15
(dp292
S'VERB'
p293
F0.987306
sS'NOUN'
p294
F0.012694
s(lp295
(g15
I1
tp296
atp297
a(g18
(dp298
g20
F1.0
s(lp299
(g18
I2
tp300
atp301
a(g28
(dp302
S'ADV'
p303
F0.000365
sS'NOUN'
p304
F1.7e-05
sS'DET'
p305
F0.999619
s(lp306
(g28
I3
tp307
atp308
a(g35
(dp309
S'VERB'
p310
F0.015369
sS'NOUN'
p311
F0.984631
s(lp312
(g35
I4
tp313
atp314
a(g49
(dp315
S'ADV'
p316
F1.0
s(lp317
(g49
I5
tp318
atp319
a(g42
(dp320
S'VERB'
p321
F1.0
s(lp322
(g42
I6
tp323
atp324
a(g58
(dp325
S'ADV'
p326
F0.000469
sS'DET'
p327
F0.0014880000000000002
sS'ADP'
p328
F0.998043
s(lp329
(g58
I7
tp330
atp331
a(g66
(dp332
S'ADV'
p333
F0.000604
sS'DET'
p334
F0.999396
s(lp335
(g66
I8
tp336
atp337
a(g82
(dp338
S'NOUN'
p339
F0.044661
sS'ADJ'
p340
F0.955339
s(lp341
(g82
I9
tp342
atp343
a(g89
(dp344
S'CONJ'
p345
F0.999998
sS'NOUN'
p346
F2e-06
s(lp347
(g89
I10
tp348
atp349
a(g96
(dp350
S'ADJ'
p351
F1.0
s(lp352
(g96
I11
tp353
atp354
a(g74
(dp355
S'VERB'
p356
F0.00031
sS'NOUN'
p357
F0.99969
s(lp358
(g74
I12
tp359
atp360
a(g103
(dp361
S'ADV'
p362
F1e-06
sS'PRT'
p363
F0.999989
sS'ADP'
p364
F1.1e-05
s(lp365
(g103
I13
tp366
atp367
a(g112
(dp368
S'NOUN'
p369
F2e-06
sS'DET'
p370
F0.999998
s(lp371
(g112
I14
tp372
atp373
a(g119
(dp374
S'NOUN'
p375
F1.0
s(lp376
(g119
I15
tp377
atp378
a(g138
(dp379
S'VERB'
p380
F1.0
s(lp381
(g138
I16
tp382
atp383
a(g146
(dp384
S'NOUN'
p385
F0.010631
sS'ADJ'
p386
F0.989369
s(lp387
(g146
I17
tp388
atp389
a(g168
(dp390
S'VERB'
p391
F3.6e-05
sS'NOUN'
p392
F0.999964
s(lp393
(g168
I18
tp394
atp395
a(g153
(dp396
S'NOUN'
p397
F1.0
s(lp398
(g153
I19
tp399
atp400
a(g193
(dp401
S'CONJ'
p402
F1.0
sS'NOUN'
p403
F0.0
s(lp404
(g193
I20
tp405
atp406
a(S'it'
p407
(dp408
S'PRON'
p409
F1.0
s(lp410
(g407
I21
tp411
atp412
a(g208
(dp413
S'ADV'
p414
F1.0
s(lp415
(g208
I22
tp416
atp417
a(g201
(dp418
S'VERB'
p419
F1.0
s(lp420
(g201
I23
tp421
atp422
a(S'for'
p423
(dp424
S'ADP'
p425
F1.0
s(lp426
(g423
I24
tp427
atp428
a(g215
(dp429
S'PRON'
p430
F1.0
s(lp431
(g215
I25
tp432
atp433
a(g222
(dp434
S'NOUN'
p435
F1.0
s(lp436
(g222
I26
tp437
atp438
a(g229
(dp439
S'ADP'
p440
F1.0
s(lp441
(g229
I27
tp442
atp443
a(g238
(dp444
S'NOUN'
p445
F1.1e-05
sS'DET'
p446
F0.999989
s(lp447
(g238
I28
tp448
atp449
a(g245
(dp450
S'VERB'
p451
F0.001359
sS'NOUN'
p452
F0.998641
s(lp453
(g245
I29
tp454
atp455
a(g263
(dp456
S'ADP'
p457
F1.0
s(lp458
(g263
I30
tp459
atp460
a(S'applying'
p461
(dp462
S'VERB'
p463
F1.0
s(lp464
(g461
I31
tp465
atp466
a(g276
(dp467
S'VERB'
p468
F2e-06
sS'NOUN'
p469
F0.999998
s(lp470
(g276
I32
tp471
atp472
a(g20
(dp473
g20
F1.0
s(lp474
(g20
I33
tp475
atp476
asS'nl'
p477
(lp478
(S'tot'
p479
(dp480
S'CONJ'
p481
F0.000115
sS'ADP'
p482
F0.999885
s(lp483
tp484
a(S'slot'
p485
(dp486
S'NOUN'
p487
F1.0
s(lp488
(g15
I1
tp489
atp490
a(S'wordt'
p491
(dp492
S'VERB'
p493
F1.0
s(lp494
(g18
I2
tp495
atp496
a(S'in'
p497
(dp498
S'ADV'
p499
F0.008672
sS'VERB'
p500
F0.0
sS'ADP'
p501
F0.991328
s(lp502
tp503
a(S'dit'
p504
(dp505
S'PRON'
p506
F1.0
s(lp507
(g28
I3
tp508
atp509
a(S'verslag'
p510
(dp511
S'NOUN'
p512
F1.0
s(lp513
(g35
I4
tp514
atp515
a(S'ook'
p516
(dp517
S'ADV'
p518
F1.0
s(lp519
(g49
I5
tp520
atp521
a(S'benadrukt'
p522
(dp523
S'VERB'
p524
F1.0
s(lp525
(g42
I6
tp526
atp527
a(S'dat'
p528
(dp529
S'PRON'
p530
F0.405282
sS'CONJ'
p531
F0.594717
s(lp532
(g58
I7
tp533
atp534
a(S'elke'
p535
(dp536
S'PRON'
p537
F1.0
s(lp538
(g66
I8
tp539
atp540
a(S'moedwillige'
p541
(dp542
S'NOUN'
p543
F0.097575
sS'ADJ'
p544
F0.902425
s(lp545
(g82
I9
tp546
atp547
a(S'en'
p548
(dp549
S'CONJ'
p550
F1.0
s(lp551
(g89
I10
tp552
atp553
a(S'onomkeerbare'
p554
(dp555
S'NOUN'
p556
F0.001834
sS'ADJ'
p557
F0.998166
s(lp558
(g96
I11
tp559
atp560
a(S'aantasting'
p561
(dp562
S'NOUN'
p563
F1.0
s(lp564
(g74
I12
tp565
atp566
a(S'van'
p567
(dp568
S'ADP'
p569
F1.0
s(lp570
(g103
I13
tp571
atp572
a(S'het'
p573
(dp574
S'PRON'
p575
F0.000927
sS'DET'
p576
F0.999073
s(lp577
(g112
I14
tp578
atp579
a(S'milieu'
p580
(dp581
S'NOUN'
p582
F1.0
s(lp583
(g119
I15
tp584
atp585
a(S'mensenrechtenschendingen'
p586
(dp587
S'NOUN'
p588
F1.0
s(lp589
(g153
I19
tp590
atp591
a(S'tot'
p592
(dp593
S'CONJ'
p594
F1.7e-05
sS'ADP'
p595
F0.999983
s(lp596
(g138
I16
tp597
atp598
a(S'gevolg'
p599
(dp600
S'NOUN'
p601
F1.0
s(lp602
tp603
a(S'heeft'
p604
(dp605
S'VERB'
p606
F1.0
s(lp607
tp608
a(g18
(dp609
g20
F1.0
s(lp610
(g193
I20
tp611
atp612
a(S'en'
p613
(dp614
S'CONJ'
p615
F1.0
s(lp616
tp617
a(S'daarom'
p618
(dp619
S'ADV'
p620
F1.0
s(lp621
(g208
I22
tp622
atp623
a(S'wordt'
p624
(dp625
S'VERB'
p626
F1.0
s(lp627
(g201
I23
tp628
atp629
a(S'de'
p630
(dp631
S'DET'
p632
F1.0
s(lp633
tp634
a(S'raad'
p635
(dp636
S'VERB'
p637
F1e-06
sS'NOUN'
p638
F0.999999
s(lp639
tp640
a(S'en'
p641
(dp642
S'CONJ'
p643
F1.0
s(lp644
(g193
I20
tp645
atp646
a(S'de'
p647
(dp648
S'DET'
p649
F1.0
s(lp650
(g146
I17
tp651
atp652
a(S'commissie'
p653
(dp654
S'NOUN'
p655
F1.0
s(lp656
(g407
I21
tp657
atp658
a(S'verzocht'
p659
(dp660
S'VERB'
p661
F1.0
s(lp662
(g201
I23
tp663
atp664
a(S'dergelijke'
p665
(dp666
S'NOUN'
p667
F0.000369
sS'ADJ'
p668
F0.999631
s(lp669
tp670
a(S'acties'
p671
(dp672
S'NOUN'
p673
F1.0
s(lp674
(g201
I23
tp675
atp676
a(S'op'
p677
(dp678
S'ADV'
p679
F0.996267
sS'ADJ'
p680
F1.8e-05
sS'ADP'
p681
F0.003715
s(lp682
(g423
I24
tp683
atp684
a(S'te'
p685
(dp686
S'PRT'
p687
F1.0
s(lp688
tp689
a(S'nemen'
p690
(dp691
S'VERB'
p692
F0.999992
sS'NOUN'
p693
F8e-06
s(lp694
tp695
a(S'op'
p696
(dp697
S'ADV'
p698
F0.973503
sS'ADJ'
p699
F2.2e-05
sS'ADP'
p700
F0.026475
s(lp701
tp702
a(S'te'
p703
(dp704
S'PRT'
p705
F1.0
s(lp706
tp707
a(S'nemen'
p708
(dp709
S'VERB'
p710
F0.999999
sS'NOUN'
p711
F1e-06
s(lp712
(g222
I26
tp713
atp714
a(S'in'
p715
(dp716
S'ADV'
p717
F0.000473
sS'VERB'
p718
F0.0
sS'ADP'
p719
F0.999527
s(lp720
(g229
I27
tp721
atp722
a(S'de'
p723
(dp724
S'DET'
p725
F1.0
s(lp726
(g238
I28
tp727
atp728
a(S'motieven'
p729
(dp730
S'NOUN'
p731
F1.0
s(lp732
tp733
a(S'die'
p734
(dp735
S'PRON'
p736
F1.0
s(lp737
(g138
I16
tp738
atp739
a(S'aanleiding'
p740
(dp741
S'NOUN'
p742
F1.0
s(lp743
(g245
I29
tp744
atp745
a(S'kunnen'
p746
(dp747
S'VERB'
p748
F0.999992
sS'NOUN'
p749
F8e-06
s(lp750
tp751
a(S'vormen'
p752
(dp753
S'VERB'
p754
F0.976975
sS'NOUN'
p755
F0.023025
s(lp756
(g168
I18
tp757
atp758
a(S'voor'
p759
(dp760
S'ADV'
p761
F0.000792
sS'CONJ'
p762
F8.9e-05
sS'NOUN'
p763
F0.0
sS'ADP'
p764
F0.999119
s(lp765
(g263
I30
tp766
atp767
a(S'het'
p768
(dp769
S'PRON'
p770
F0.24751
sS'DET'
p771
F0.752491
s(lp772
(g461
I31
tp773
atp774
a(S'opleggen'
p775
(dp776
S'VERB'
p777
F0.24690499999999999
sS'NOUN'
p778
F0.753095
s(lp779
tp780
a(S'van'
p781
(dp782
S'ADP'
p783
F1.0
s(lp784
(g461
I31
tp785
atp786
a(S'sancties'
p787
(dp788
S'NOUN'
p789
F1.0
s(lp790
(g276
I32
tp791
atp792
a(g20
(dp793
g20
F1.0
s(lp794
(g20
I33
tp795
atp796
asS'de'
p797
(lp798
(S'abschlie\xc3\x9fend'
p799
(dp800
S'ADJ'
p801
F1.0
s(lp802
(g15
I1
tp803
atp804
a(S'sei'
p805
(dp806
S'VERB'
p807
F1.0
s(lp808
tp809
a(S'gesagt'
p810
(dp811
S'VERB'
p812
F0.977631
sS'ADJ'
p813
F0.022369
s(lp814
(g15
I1
tp815
atp816
a(g18
(dp817
g20
F1.0
s(lp818
(g18
I2
tp819
atp820
a(S'dass'
p821
(dp822
S'CONJ'
p823
F1.0
s(lp824
tp825
a(S'dieser'
p826
(dp827
S'PRON'
p828
F1.0
s(lp829
(g28
I3
tp830
atp831
a(S'bericht'
p832
(dp833
S'VERB'
p834
F0.012969
sS'NOUN'
p835
F0.986744
s(lp836
(g35
I4
tp837
atp838
a(S'auch'
p839
(dp840
S'ADV'
p841
F1.0
s(lp842
(g49
I5
tp843
atp844
a(S'davon'
p845
(dp846
S'ADV'
p847
F0.998643
sS'PRT'
p848
F0.001357
s(lp849
tp850
a(S'ausgeht'
p851
(dp852
S'VERB'
p853
F1.0
s(lp854
(g42
I6
tp855
atp856
a(g18
(dp857
g20
F1.0
s(lp858
tp859
a(S'dass'
p860
(dp861
S'CONJ'
p862
F1.0
s(lp863
(g58
I7
tp864
atp865
a(S'jeder'
p866
(dp867
S'PRON'
p868
F1.0
s(lp869
(g66
I8
tp870
atp871
a(S'vors\xc3\xa4tzliche'
p872
(dp873
S'ADJ'
p874
F1.0
s(lp875
(g82
I9
tp876
atp877
a(S'und'
p878
(dp879
S'CONJ'
p880
F1.0
s(lp881
(g89
I10
tp882
atp883
a(S'unumkehrbare'
p884
(dp885
S'ADJ'
p886
F1.0
s(lp887
tp888
a(S'angriff'
p889
(dp890
S'VERB'
p891
F1.0
s(lp892
(g96
I11
tp893
atp894
a(S'auf'
p895
(dp896
S'PRT'
p897
F0.000686
sS'ADP'
p898
F0.99928
s(lp899
(g103
I13
tp900
atp901
a(S'die'
p902
(dp903
S'PRON'
p904
F0.00029
sS'DET'
p905
F0.999613
s(lp906
(g112
I14
tp907
atp908
a(S'umwelt'
p909
(dp910
S'ADJ'
p911
F0.039656
sS'NOUN'
p912
F0.925984
s(lp913
(g119
I15
tp914
atp915
a(S'faktisch'
p916
(dp917
S'ADJ'
p918
F1.0
s(lp919
(g138
I16
tp920
atp921
a(S'verletzungen'
p922
(dp923
S'VERB'
p924
F0.043633
sS'NOUN'
p925
F0.94275
s(lp926
(g153
I19
tp927
atp928
a(S'der'
p929
(dp930
S'PRON'
p931
F0.000121
sS'DET'
p932
F0.999871
s(lp933
(g168
I18
tp934
atp935
a(S'menschenrechte'
p936
(dp937
S'ADJ'
p938
F1.0
s(lp939
(g146
I17
tp940
atp941
a(S'ausl\xc3\xb6st'
p942
(dp943
S'VERB'
p944
F1.0
s(lp945
tp946
a(S'und'
p947
(dp948
S'CONJ'
p949
F1.0
s(lp950
(g193
I20
tp951
atp952
a(S'deshalb'
p953
(dp954
S'ADV'
p955
F1.0
s(lp956
(g208
I22
tp957
atp958
a(S'unter'
p959
(dp960
S'PRT'
p961
F7e-06
sS'ADP'
p962
F0.999993
s(lp963
(g229
I27
tp964
atp965
a(S'die'
p966
(dp967
S'PRON'
p968
F5.5e-05
sS'DET'
p969
F0.99993
s(lp970
(g238
I28
tp971
atp972
a(S'motive'
p973
(dp974
S'ADJ'
p975
F0.001273
sS'NOUN'
p976
F0.998509
s(lp977
(g245
I29
tp978
atp979
a(g18
(dp980
g20
F1.0
s(lp981
tp982
a(S'die'
p983
(dp984
S'PRON'
p985
F0.118872
sS'DET'
p986
F0.880021
s(lp987
(g461
I31
tp988
atp989
a(S'sanktionen'
p990
(dp991
S'ADJ'
p992
F0.002775
sS'NOUN'
p993
F0.997123
s(lp994
(g276
I32
tp995
atp996
a(S'ausl\xc3\xb6sen'
p997
(dp998
S'VERB'
p999
F1.0
s(lp1000
(g138
I16
tp1001
atp1002
a(S'k\xc3\xb6nnen'
p1003
(dp1004
S'VERB'
p1005
F0.999989
s(lp1006
tp1007
a(g18
(dp1008
g20
F1.0
s(lp1009
tp1010
a(S'aufgenommen'
p1011
(dp1012
S'VERB'
p1013
F0.992059
sS'ADJ'
p1014
F0.007941
s(lp1015
(g222
I26
tp1016
atp1017
a(S'werden'
p1018
(dp1019
S'VERB'
p1020
F0.9999979999999999
s(lp1021
(g201
I23
tp1022
atp1023
a(S'muss'
p1024
(dp1025
S'VERB'
p1026
F1.0
s(lp1027
(g423
I24
tp1028
atp1029
a(g20
(dp1030
g20
F1.0
s(lp1031
(g20
I33
tp1032
atp1033
asS'it'
p1034
(lp1035
(S'per'
p1036
(dp1037
S'CONJ'
p1038
F0.00889
sS'ADP'
p1039
F0.99111
s(lp1040
(g8
I0
tp1041
atp1042
a(S'concludere'
p1043
(dp1044
S'VERB'
p1045
F1.0
s(lp1046
(g15
I1
tp1047
atp1048
a(g18
(dp1049
g20
F1.0
s(lp1050
(g18
I2
tp1051
atp1052
a(S'la'
p1053
(dp1054
S'PRON'
p1055
F0.011129
sS'DET'
p1056
F0.988871
s(lp1057
tp1058
a(S'presente'
p1059
(dp1060
S'NOUN'
p1061
F0.01619
sS'VERB'
p1062
F0.008366
sS'ADJ'
p1063
F0.975443
s(lp1064
(g28
I3
tp1065
atp1066
a(S'relazione'
p1067
(dp1068
S'NOUN'
p1069
F1.0
s(lp1070
(g35
I4
tp1071
atp1072
a(S'ritiene'
p1073
(dp1074
S'VERB'
p1075
F1.0
s(lp1076
(g42
I6
tp1077
atp1078
a(S'inoltre'
p1079
(dp1080
S'ADV'
p1081
F1.0
s(lp1082
(g49
I5
tp1083
atp1084
a(S'che'
p1085
(dp1086
S'PRON'
p1087
F0.612604
sS'CONJ'
p1088
F0.333013
sS'ADJ'
p1089
F0.054383
s(lp1090
(g58
I7
tp1091
atp1092
a(S'qualsiasi'
p1093
(dp1094
S'PRON'
p1095
F0.511945
sS'ADJ'
p1096
F0.488055
s(lp1097
(g66
I8
tp1098
atp1099
a(S'danno'
p1100
(dp1101
S'VERB'
p1102
F0.231672
sS'NOUN'
p1103
F0.768328
s(lp1104
(g74
I12
tp1105
atp1106
a(S'volontario'
p1107
(dp1108
S'NOUN'
p1109
F0.056126
sS'ADJ'
p1110
F0.943874
s(lp1111
(g82
I9
tp1112
atp1113
a(S'e'
p1114
(dp1115
S'CONJ'
p1116
F1.0
s(lp1117
(g89
I10
tp1118
atp1119
a(S'irreversibile'
p1120
(dp1121
S'ADJ'
p1122
F1.0
s(lp1123
(g96
I11
tp1124
atp1125
a(S"all'"
p1126
(dp1127
S'ADJ'
p1128
F0.000775
sS'VERB'
p1129
F0.00011
sS'NOUN'
p1130
F0.999116
s(lp1131
(g103
I13
tp1132
atp1133
a(S'ambiente'
p1134
(dp1135
S'NOUN'
p1136
F1.0
s(lp1137
(g119
I15
tp1138
atp1139
a(S'generi'
p1140
(dp1141
S'VERB'
p1142
F0.23810599999999998
sS'NOUN'
p1143
F0.761894
s(lp1144
(g138
I16
tp1145
atp1146
a(S'violazioni'
p1147
(dp1148
S'NOUN'
p1149
F1.0
s(lp1150
(g153
I19
tp1151
atp1152
a(S'dei'
p1153
(dp1154
S'NOUN'
p1155
F2e-06
sS'DEF'
p1156
F0.001192
sS'ADP'
p1157
F0.998807
s(lp1158
tp1159
a(S'diritti'
p1160
(dp1161
S'ADJ'
p1162
F0.019464
sS'NOUN'
p1163
F0.980536
s(lp1164
(g168
I18
tp1165
atp1166
a(S'umani'
p1167
(dp1168
S'NOUN'
p1169
F0.048784
sS'ADJ'
p1170
F0.951216
s(lp1171
(g146
I17
tp1172
atp1173
a(g1114
(dp1174
S'CONJ'
p1175
F1.0
s(lp1176
(g193
I20
tp1177
atp1178
a(S'pertanto'
p1179
(dp1180
S'ADV'
p1181
F1.0
s(lp1182
(g208
I22
tp1183
atp1184
a(S'chiede'
p1185
(dp1186
S'VERB'
p1187
F1.0
s(lp1188
(g201
I23
tp1189
atp1190
a(S'il'
p1191
(dp1192
S'DET'
p1193
F1.0
s(lp1194
tp1195
a(S'suo'
p1196
(dp1197
S'PRON'
p1198
F1.0
s(lp1199
(g215
I25
tp1200
atp1201
a(S'inserimento'
p1202
(dp1203
S'NOUN'
p1204
F1.0
s(lp1205
(g222
I26
tp1206
atp1207
a(S'tra'
p1208
(dp1209
S'CONJ'
p1210
F0.001569
sS'ADP'
p1211
F0.998431
s(lp1212
(g229
I27
tp1213
atp1214
a(S'la'
p1215
(dp1216
S'PRON'
p1217
F0.00063
sS'DET'
p1218
F0.99937
s(lp1219
(g238
I28
tp1220
atp1221
a(S'ragioni'
p1222
(dp1223
S'VERB'
p1224
F0.0007800000000000001
sS'NOUN'
p1225
F0.999219
s(lp1226
(g245
I29
tp1227
atp1228
a(S'per'
p1229
(dp1230
S'CONJ'
p1231
F0.005325
sS'ADP'
p1232
F0.994675
s(lp1233
(g263
I30
tp1234
atp1235
a(S'applicare'
p1236
(dp1237
S'VERB'
p1238
F1.0
s(lp1239
(g461
I31
tp1240
atp1241
a(S'sanzioni'
p1242
(dp1243
S'VERB'
p1244
F1.6e-05
sS'NOUN'
p1245
F0.999984
s(lp1246
(g276
I32
tp1247
atp1248
a(g20
(dp1249
g20
F1.0
s(lp1250
(g20
I33
tp1251
atp1252
asS'sk'
p1253
(lp1254
(S'na'
p1255
(dp1256
S'X'
p1257
F0.000193
sS'CONJ'
p1258
F1.5e-05
sS'ADP'
p1259
F0.999793
sS'PRT'
p1260
F0.0
s(lp1261
(g8
I0
tp1262
atp1263
a(S'z\xc3\xa1ver'
p1264
(dp1265
S'NOUN'
p1266
F1.0
s(lp1267
(g15
I1
tp1268
atp1269
a(S'mi'
p1270
(dp1271
S'PRON'
p1272
F0.999993
sg1257
F7e-06
s(lp1273
(g15
I1
tp1274
atp1275
a(S'dovo\xc4\xbete'
p1276
(dp1277
S'VERB'
p1278
F1.0
s(lp1279
tp1280
a(S'poveda\xc5\xa5'
p1281
(dp1282
S'VERB'
p1283
F1.0
s(lp1284
(g15
I1
tp1285
atp1286
a(g18
(dp1287
g20
F1.0
s(lp1288
(g18
I2
tp1289
atp1290
a(S'\xc5\xbee'
p1291
(dp1292
g1257
F0.0009
sS'CONJ'
p1293
F0.9991
s(lp1294
(g58
I7
tp1295
atp1296
a(S'pod\xc4\xbea'
p1297
(dp1298
S'ADP'
p1299
F1.0
s(lp1300
(g42
I6
tp1301
atp1302
a(S'tejto'
p1303
(dp1304
S'PRON'
p1305
F1.0
s(lp1306
(g28
I3
tp1307
atp1308
a(S'spr\xc3\xa1vy'
p1309
(dp1310
S'NOUN'
p1311
F1.0
s(lp1312
(g35
I4
tp1313
atp1314
a(S'ka\xc5\xbed\xc3\xa9'
p1315
(dp1316
S'PRON'
p1317
F1.0
s(lp1318
(g66
I8
tp1319
atp1320
a(S'\xc3\xbamyseln\xc3\xa9'
p1321
(dp1322
S'ADJ'
p1323
F1.0
s(lp1324
(g82
I9
tp1325
atp1326
a(S'a'
p1327
(dp1328
g1257
F0.0006090000000000001
sS'CONJ'
p1329
F0.997895
sS'NOUN'
p1330
F0.0013880000000000001
sS'ADP'
p1331
F0.000104
sS'PRT'
p1332
F5e-06
s(lp1333
(g89
I10
tp1334
atp1335
a(S'nezvratn\xc3\xa9'
p1336
(dp1337
S'ADJ'
p1338
F1.0
s(lp1339
(g96
I11
tp1340
atp1341
a(S'po\xc5\xa1kodenie'
p1342
(dp1343
S'NOUN'
p1344
F1.0
s(lp1345
(g74
I12
tp1346
atp1347
a(S'\xc5\xbeivotn\xc3\xa9ho'
p1348
(dp1349
S'ADJ'
p1350
F1.0
s(lp1351
tp1352
a(S'prostredia'
p1353
(dp1354
S'NOUN'
p1355
F1.0
s(lp1356
(g119
I15
tp1357
atp1358
a(S'vedie'
p1359
(dp1360
S'VERB'
p1361
F1.0
s(lp1362
(g138
I16
tp1363
atp1364
a(S'k'
p1365
(dp1366
g1257
F0.000371
sS'NOUN'
p1367
F1.3000000000000001e-05
sS'ADP'
p1368
F0.999616
s(lp1369
(g103
I13
tp1370
atp1371
a(S'poru\xc5\xa1eniam'
p1372
(dp1373
S'NOUN'
p1374
F1.0
s(lp1375
(g153
I19
tp1376
atp1377
a(S'\xc4\xbeudsk\xc3\xbdch'
p1378
(dp1379
S'ADJ'
p1380
F1.0
s(lp1381
(g146
I17
tp1382
atp1383
a(S'pr\xc3\xa1v'
p1384
(dp1385
g1257
F2.2e-05
sS'NOUN'
p1386
F0.999978
s(lp1387
(g168
I18
tp1388
atp1389
a(g18
(dp1390
g20
F1.0
s(lp1391
tp1392
a(g1327
(dp1393
g1257
F0.00028300000000000005
sS'CONJ'
p1394
F0.999713
sS'NOUN'
p1395
F2e-06
sS'ADP'
p1396
F0.0
sS'PRT'
p1397
F3e-06
s(lp1398
(g193
I20
tp1399
atp1400
a(S'preto'
p1401
(dp1402
S'PRON'
p1403
F0.462147
sS'CONJ'
p1404
F0.51755
sg1257
F0.020303
s(lp1405
(g208
I22
tp1406
atp1407
a(S'spr\xc3\xa1va'
p1408
(dp1409
S'VERB'
p1410
F0.002349
sS'NOUN'
p1411
F0.997651
s(lp1412
tp1413
a(S'\xc5\xbeiada'
p1414
(dp1415
S'VERB'
p1416
F1.0
s(lp1417
(g201
I23
tp1418
atp1419
a(S'o'
p1420
(dp1421
g1257
F0.000917
sS'CONJ'
p1422
F1.4e-05
sS'NOUN'
p1423
F1.4e-05
sS'ADP'
p1424
F0.999055
s(lp1425
(g423
I24
tp1426
atp1427
a(S'za\xc4\x8dlenenie'
p1428
(dp1429
S'NOUN'
p1430
F1.0
s(lp1431
tp1432
a(S'tejto'
p1433
(dp1434
S'PRON'
p1435
F1.0
s(lp1436
(g215
I25
tp1437
atp1438
a(S'problematiky'
p1439
(dp1440
S'NOUN'
p1441
F1.0
s(lp1442
(g222
I26
tp1443
atp1444
a(S'medzi'
p1445
(dp1446
S'NOUN'
p1447
F0.000778
sS'ADP'
p1448
F0.999222
s(lp1449
(g229
I27
tp1450
atp1451
a(S'd\xc3\xb4vody'
p1452
(dp1453
S'NOUN'
p1454
F1.0
s(lp1455
(g245
I29
tp1456
atp1457
a(S'na'
p1458
(dp1459
g1257
F2.2e-05
sS'CONJ'
p1460
F1.8e-05
sS'ADP'
p1461
F0.999956
sS'PRT'
p1462
F4e-06
s(lp1463
(g263
I30
tp1464
atp1465
a(S'uplatnenie'
p1466
(dp1467
S'NOUN'
p1468
F1.0
s(lp1469
(g461
I31
tp1470
atp1471
a(S'sankci\xc3\xad'
p1472
(dp1473
S'NOUN'
p1474
F1.0
s(lp1475
(g276
I32
tp1476
atp1477
a(g20
(dp1478
g20
F1.0
s(lp1479
(g20
I33
tp1480
atp1481
asS'pl'
p1482
(lp1483
(S'na'
p1484
(dp1485
g1257
F1.1e-05
sS'VERB'
p1486
F2.2e-05
sS'NOUN'
p1487
F7e-06
sS'ADP'
p1488
F0.999949
sS'PRT'
p1489
F1.1e-05
s(lp1490
(g8
I0
tp1491
atp1492
a(S'zako\xc5\x84czenie'
p1493
(dp1494
S'VERB'
p1495
F0.030570999999999997
sS'NOUN'
p1496
F0.96943
s(lp1497
(g15
I1
tp1498
atp1499
a(S':'
p1500
(dp1501
g20
F1.0
s(lp1502
(g18
I2
tp1503
atp1504
a(S'przedmiotowe'
p1505
(dp1506
S'ADJ'
p1507
F1.0
s(lp1508
(g28
I3
tp1509
atp1510
a(S'sprawozdanie'
p1511
(dp1512
S'NOUN'
p1513
F1.0
s(lp1514
(g35
I4
tp1515
atp1516
a(S'r\xc3\xb3wnie\xc5\xbc'
p1517
(dp1518
S'PRT'
p1519
F0.970197
sS'CONJ'
p1520
F0.029803
s(lp1521
(g49
I5
tp1522
atp1523
a(S'uwzgl\xc4\x99dnia'
p1524
(dp1525
S'VERB'
p1526
F1.0
s(lp1527
tp1528
a(S'fakt'
p1529
(dp1530
S'NOUN'
p1531
F1.0
s(lp1532
(g42
I6
tp1533
atp1534
a(g18
(dp1535
g1257
F0.0
sg20
F1.0
s(lp1536
tp1537
a(S'\xc5\xbce'
p1538
(dp1539
S'PRT'
p1540
F0.000165
sS'CONJ'
p1541
F0.999835
s(lp1542
(g58
I7
tp1543
atp1544
a(S'jakakolwiek'
p1545
(dp1546
S'ADJ'
p1547
F1.0
s(lp1548
(g66
I8
tp1549
atp1550
a(S'dobrowolna'
p1551
(dp1552
S'ADJ'
p1553
F1.0
s(lp1554
(g82
I9
tp1555
atp1556
a(S'i'
p1557
(dp1558
S'PRT'
p1559
F0.00495
sS'CONJ'
p1560
F0.974387
sS'PRON'
p1561
F2e-06
sS'NOUN'
p1562
F0.020654
sg1257
F6e-06
s(lp1563
(g89
I10
tp1564
atp1565
a(S'nieodwracalna'
p1566
(dp1567
S'ADV'
p1568
F7.4e-05
sS'NOUN'
p1569
F1.7e-05
sS'ADJ'
p1570
F0.999909
s(lp1571
(g96
I11
tp1572
atp1573
a(S'szkoda'
p1574
(dp1575
S'ADJ'
p1576
F0.013813
sS'NOUN'
p1577
F0.986187
s(lp1578
(g74
I12
tp1579
atp1580
a(S'dla'
p1581
(dp1582
S'ADP'
p1583
F1.0
s(lp1584
(g103
I13
tp1585
atp1586
a(S'\xc5\x9brodowiska'
p1587
(dp1588
S'NOUN'
p1589
F1.0
s(lp1590
(g119
I15
tp1591
atp1592
a(S'przyczynia'
p1593
(dp1594
S'VERB'
p1595
F1.0
s(lp1596
(g138
I16
tp1597
atp1598
a(S'si\xc4\x99'
p1599
(dp1600
S'PRT'
p1601
F1.0
s(lp1602
tp1603
a(S'do'
p1604
(dp1605
g1257
F0.0
sS'NOUN'
p1606
F5e-06
sS'ADP'
p1607
F0.999995
s(lp1608
tp1609
a(S'\xc5\x82amania'
p1610
(dp1611
S'VERB'
p1612
F1.0
s(lp1613
(g153
I19
tp1614
atp1615
a(S'praw'
p1616
(dp1617
S'NOUN'
p1618
F1.0
s(lp1619
(g168
I18
tp1620
atp1621
a(S'cz\xc5\x82owieka'
p1622
(dp1623
S'NOUN'
p1624
F1.0
s(lp1625
(g146
I17
tp1626
atp1627
a(g1557
(dp1628
S'PRT'
p1629
F0.001225
sS'CONJ'
p1630
F0.998769
sS'PRON'
p1631
F0.0
sS'NOUN'
p1632
F0.0
sg1257
F5e-06
s(lp1633
(g193
I20
tp1634
atp1635
a(S'dlatego'
p1636
(dp1637
S'ADV'
p1638
F1.0
s(lp1639
(g208
I22
tp1640
atp1641
a(S'wymaga'
p1642
(dp1643
S'VERB'
p1644
F1.0
s(lp1645
(g201
I23
tp1646
atp1647
a(S'ona'
p1648
(dp1649
S'PRON'
p1650
F1.0
s(lp1651
(g215
I25
tp1652
atp1653
a(S'umieszczenia'
p1654
(dp1655
S'VERB'
p1656
F1.0
s(lp1657
(g222
I26
tp1658
atp1659
a(S'na'
p1660
(dp1661
S'PRT'
p1662
F8e-06
sS'VERB'
p1663
F1e-06
sS'NOUN'
p1664
F0.0
sS'ADP'
p1665
F0.999989
sg1257
F2e-06
s(lp1666
(g423
I24
tp1667
atp1668
a(S'li\xc5\x9bcie'
p1669
(dp1670
S'NOUN'
p1671
F1.0
s(lp1672
(g229
I27
tp1673
atp1674
a(S'powod\xc3\xb3w'
p1675
(dp1676
S'NOUN'
p1677
F1.0
s(lp1678
(g245
I29
tp1679
atp1680
a(S'stosowania'
p1681
(dp1682
S'VERB'
p1683
F1.0
s(lp1684
(g461
I31
tp1685
atp1686
a(S'sankcji'
p1687
(dp1688
S'NOUN'
p1689
F1.0
s(lp1690
(g276
I32
tp1691
atp1692
a(g20
(dp1693
g20
F1.0
s(lp1694
(g20
I33
tp1695
atp1696
asS'sl'
p1697
(lp1698
(S'za'
p1699
(dp1700
S'ADV'
p1701
F9.2e-05
sg1257
F1.5e-05
sS'ADP'
p1702
F0.999892
s(lp1703
(g8
I0
tp1704
atp1705
a(S'konec'
p1706
(dp1707
S'NOUN'
p1708
F0.999969
sS'ADP'
p1709
F3e-05
s(lp1710
(g15
I1
tp1711
atp1712
a(g18
(dp1713
g20
F1.0
s(lp1714
(g18
I2
tp1715
atp1716
a(S'to'
p1717
(dp1718
S'PRON'
p1719
F0.99996
sg1257
F4e-05
s(lp1720
(g28
I3
tp1721
atp1722
a(S'poro\xc4\x8dilo'
p1723
(dp1724
S'NOUN'
p1725
F1.0
s(lp1726
(g35
I4
tp1727
atp1728
a(S'prav'
p1729
(dp1730
S'ADV'
p1731
F0.070435
sS'PRT'
p1732
F0.927469
sS'VERB'
p1733
F0.002096
s(lp1734
tp1735
a(S'tako'
p1736
(dp1737
S'ADV'
p1738
F0.959725
sS'PRON'
p1739
F0.033209
sS'CONJ'
p1740
F0.007067
s(lp1741
(g49
I5
tp1742
atp1743
a(S'upo\xc5\xa1teva'
p1744
(dp1745
S'VERB'
p1746
F1.0
s(lp1747
(g42
I6
tp1748
atp1749
a(g18
(dp1750
g20
F1.0
s(lp1751
tp1752
a(S'da'
p1753
(dp1754
S'PRT'
p1755
F4.7e-05
sS'CONJ'
p1756
F0.99994
sS'VERB'
p1757
F1.3e-05
sg1257
F0.0
s(lp1758
(g58
I7
tp1759
atp1760
a(S'vsaka'
p1761
(dp1762
S'PRON'
p1763
F1.0
s(lp1764
(g66
I8
tp1765
atp1766
a(S'namerna'
p1767
(dp1768
S'ADJ'
p1769
F1.0
s(lp1770
(g82
I9
tp1771
atp1772
a(S'ali'
p1773
(dp1774
S'ADV'
p1775
F0.0195
sS'CONJ'
p1776
F0.9805
s(lp1777
(g89
I10
tp1778
atp1779
a(S'trajna'
p1780
(dp1781
S'ADJ'
p1782
F1.0
s(lp1783
(g96
I11
tp1784
atp1785
a(S'\xc5\xa1koda'
p1786
(dp1787
S'NOUN'
p1788
F1.0
s(lp1789
(g74
I12
tp1790
atp1791
a(S'okolja'
p1792
(dp1793
S'NOUN'
p1794
F0.9999989999999999
s(lp1795
(g119
I15
tp1796
atp1797
a(S'povzro\xc4\x8di'
p1798
(dp1799
S'VERB'
p1800
F1.0
s(lp1801
(g138
I16
tp1802
atp1803
a(S'kr\xc5\xa1itev'
p1804
(dp1805
S'NOUN'
p1806
F1.0000010000000001
s(lp1807
(g153
I19
tp1808
atp1809
a(S'\xc4\x8dlovekovih'
p1810
(dp1811
S'ADJ'
p1812
F1.0
s(lp1813
(g146
I17
tp1814
atp1815
a(S'pravic'
p1816
(dp1817
S'NOUN'
p1818
F1.0
s(lp1819
(g168
I18
tp1820
atp1821
a(g18
(dp1822
g20
F1.0
s(lp1823
tp1824
a(S'zato'
p1825
(dp1826
S'ADV'
p1827
F0.037323
sS'CONJ'
p1828
F0.962677
s(lp1829
(g208
I22
tp1830
atp1831
a(S'jo'
p1832
(dp1833
S'PRON'
p1834
F0.999792
sg1257
F0.000208
s(lp1835
tp1836
a(S'je'
p1837
(dp1838
S'PRON'
p1839
F2.8e-05
sS'VERB'
p1840
F0.9999720000000001
sg1257
F0.0
s(lp1841
(g407
I21
tp1842
atp1843
a(S'treba'
p1844
(dp1845
S'ADV'
p1846
F1.0
s(lp1847
(g201
I23
tp1848
atp1849
a(S'vklju\xc4\x8diti'
p1850
(dp1851
S'VERB'
p1852
F1.0
s(lp1853
(g222
I26
tp1854
atp1855
a(S'med'
p1856
(dp1857
S'NOUN'
p1858
F0.0008849999999999999
sS'ADP'
p1859
F0.999114
s(lp1860
(g229
I27
tp1861
atp1862
a(S'razloge'
p1863
(dp1864
S'NOUN'
p1865
F1.0
s(lp1866
(g245
I29
tp1867
atp1868
a(S'za'
p1869
(dp1870
S'ADV'
p1871
F7e-06
sg1257
F0.0
sS'ADP'
p1872
F0.9999929999999999
s(lp1873
(g263
I30
tp1874
atp1875
a(S'izvajanje'
p1876
(dp1877
S'NOUN'
p1878
F1.0
s(lp1879
(g461
I31
tp1880
atp1881
a(S'sankcij'
p1882
(dp1883
S'NOUN'
p1884
F1.0
s(lp1885
(g276
I32
tp1886
atp1887
a(g20
(dp1888
g20
F1.0
s(lp1889
(g20
I33
tp1890
atp1891
asS'es'
p1892
(lp1893
(S'para'
p1894
(dp1895
S'CONJ'
p1896
F0.990112
sS'ADP'
p1897
F0.009888
s(lp1898
(g8
I0
tp1899
atp1900
a(S'finalizar'
p1901
(dp1902
S'VERB'
p1903
F1.0
s(lp1904
(g15
I1
tp1905
atp1906
a(g18
(dp1907
g20
F1.0
s(lp1908
(g18
I2
tp1909
atp1910
a(S'este'
p1911
(dp1912
S'PRON'
p1913
F0.999852
sS'NOUN'
p1914
F0.000148
s(lp1915
(g28
I3
tp1916
atp1917
a(S'informe'
p1918
(dp1919
S'VERB'
p1920
F0.036204
sS'NOUN'
p1921
F0.963796
s(lp1922
(g35
I4
tp1923
atp1924
a(S'tambi\xc3\xa9n'
p1925
(dp1926
S'ADV'
p1927
F1.0
s(lp1928
(g49
I5
tp1929
atp1930
a(S'considera'
p1931
(dp1932
S'VERB'
p1933
F1.0
s(lp1934
(g42
I6
tp1935
atp1936
a(S'que'
p1937
(dp1938
g1257
F0.0
sS'CONJ'
p1939
F1.0
s(lp1940
(g58
I7
tp1941
atp1942
a(S'cualquier'
p1943
(dp1944
S'ADJ'
p1945
F1.0
s(lp1946
(g66
I8
tp1947
atp1948
a(S'da\xc3\xb1o'
p1949
(dp1950
S'VERB'
p1951
F0.000528
sS'NOUN'
p1952
F0.999472
s(lp1953
(g74
I12
tp1954
atp1955
a(S'voluntario'
p1956
(dp1957
S'ADJ'
p1958
F1.0
s(lp1959
(g82
I9
tp1960
atp1961
a(g1114
(dp1962
g1257
F0.055141
sS'CONJ'
p1963
F0.943411
sS'ADP'
p1964
F0.001448
s(lp1965
(g89
I10
tp1966
atp1967
a(S'irreversible'
p1968
(dp1969
S'ADJ'
p1970
F1.0
s(lp1971
(g96
I11
tp1972
atp1973
a(S'al'
p1974
(dp1975
S'CONJ'
p1976
F0.000981
sS'ADP'
p1977
F0.999019
s(lp1978
(g112
I14
tp1979
atp1980
a(S'medio'
p1981
(dp1982
S'ADV'
p1983
F0.000815
sS'ADJ'
p1984
F0.036167
sS'NOUN'
p1985
F0.963017
s(lp1986
tp1987
a(S'ambiente'
p1988
(dp1989
S'NOUN'
p1990
F0.010424
sS'VERB'
p1991
F8.7e-05
sS'ADJ'
p1992
F0.989489
s(lp1993
(g119
I15
tp1994
atp1995
a(S'supone'
p1996
(dp1997
S'VERB'
p1998
F1.0
s(lp1999
(g138
I16
tp2000
atp2001
a(S'una'
p2002
(dp2003
S'DET'
p2004
F1.0
s(lp2005
tp2006
a(S'violaci\xc3\xb3n'
p2007
(dp2008
S'NOUN'
p2009
F1.0
s(lp2010
(g153
I19
tp2011
atp2012
a(S'de'
p2013
(dp2014
g1257
F0.0
sS'CONJ'
p2015
F1.7e-05
sS'ADP'
p2016
F0.999983
s(lp2017
tp2018
a(S'los'
p2019
(dp2020
S'PRON'
p2021
F0.0
sS'DET'
p2022
F1.0
s(lp2023
tp2024
a(S'derechos'
p2025
(dp2026
S'NOUN'
p2027
F1.0
s(lp2028
(g168
I18
tp2029
atp2030
a(S'humanos'
p2031
(dp2032
S'NOUN'
p2033
F0.186208
sS'ADJ'
p2034
F0.813792
s(lp2035
(g146
I17
tp2036
atp2037
a(S'y'
p2038
(dp2039
g1257
F0.003831
sS'CONJ'
p2040
F0.996169
s(lp2041
(g193
I20
tp2042
atp2043
a(g18
(dp2044
g20
F1.0
s(lp2045
(g208
I22
tp2046
atp2047
a(S'por'
p2048
(dp2049
S'CONJ'
p2050
F1.0
s(lp2051
(g208
I22
tp2052
atp2053
a(S'tanto'
p2054
(dp2055
S'CONJ'
p2056
F1.0
s(lp2057
tp2058
a(g18
(dp2059
g20
F1.0
s(lp2060
(g208
I22
tp2061
atp2062
a(S'debe'
p2063
(dp2064
S'VERB'
p2065
F1.0
s(lp2066
(g201
I23
tp2067
atp2068
a(S'ser'
p2069
(dp2070
S'VERB'
p2071
F1.0
sS'NOUN'
p2072
F0.0
s(lp2073
(g215
I25
tp2074
atp2075
a(S'incluido'
p2076
(dp2077
S'VERB'
p2078
F1.0
s(lp2079
(g222
I26
tp2080
atp2081
a(S'entre'
p2082
(dp2083
g1257
F0.0
sS'ADP'
p2084
F1.0
s(lp2085
(g229
I27
tp2086
atp2087
a(S'las'
p2088
(dp2089
S'PRON'
p2090
F0.0
sS'DET'
p2091
F1.0
s(lp2092
(g238
I28
tp2093
atp2094
a(S'razones'
p2095
(dp2096
S'NOUN'
p2097
F1.0
s(lp2098
(g245
I29
tp2099
atp2100
a(S'para'
p2101
(dp2102
S'CONJ'
p2103
F0.952807
sS'ADP'
p2104
F0.047193
s(lp2105
(g263
I30
tp2106
atp2107
a(S'aplicar'
p2108
(dp2109
S'VERB'
p2110
F1.0
s(lp2111
(g461
I31
tp2112
atp2113
a(S'sanciones'
p2114
(dp2115
S'VERB'
p2116
F3.5e-05
sS'NOUN'
p2117
F0.999965
s(lp2118
(g276
I32
tp2119
atp2120
a(g20
(dp2121
g20
F1.0
s(lp2122
(g20
I33
tp2123
atp2124
as.