(dp0
S'fr'
p1
(lp2
(S'cela'
p3
(dp4
S'PRON'
p5
F0.999998
sS'VERB'
p6
F2e-06
s(lp7
(S'this'
p8
I0
tp9
atp10
a(S'r\xc3\xa9duira'
p11
(dp12
S'VERB'
p13
F1.0
s(lp14
(S'reduce'
p15
I2
tp16
atp17
a(S"l'"
p18
(dp19
S'NOUN'
p20
F0.087886
sS'VERB'
p21
F0.7995690000000001
sS'ADJ'
p22
F0.112546
s(lp23
(S'the'
p24
I3
tp25
atp26
a(S'importance'
p27
(dp28
S'NOUN'
p29
F1.0
s(lp30
(S'eu-member'
p31
I6
tp32
atp33
a(S'accord\xc3\xa9e'
p34
(dp35
S'VERB'
p36
F0.972455
sS'NOUN'
p37
F0.027545
s(lp38
(g31
I6
tp39
atp40
a(S'aux'
p41
(dp42
S'ADP'
p43
F1.0
s(lp44
(g31
I6
tp45
atp46
a(S'relations'
p47
(dp48
S'VERB'
p49
F0.0
sS'NOUN'
p50
F1.0
s(lp51
tp52
a(S'entre'
p53
(dp54
S'VERB'
p55
F0.0028929999999999997
sS'ADP'
p56
F0.997106
s(lp57
(g31
I6
tp58
atp59
a(S"l'"
p60
(dp61
S'ADJ'
p62
F0.160565
sS'VERB'
p63
F0.06693399999999998
sS'NOUN'
p64
F0.772501
s(lp65
(S'state'
p66
I7
tp67
atp68
a(S'ue'
p69
(dp70
S'VERB'
p71
F0.002353
sS'NOUN'
p72
F0.997647
s(lp73
(g31
I6
tp74
atp75
a(S'et'
p76
(dp77
S'CONJ'
p78
F1.0
s(lp79
(S','
p80
I24
tp81
atp82
a(S'les'
p83
(dp84
S'PRON'
p85
F2.3e-05
sS'DET'
p86
F0.999884
sS'ADP'
p87
F9.3e-05
s(lp88
(S'relations'
p89
I8
tp90
atp91
a(S'\xc3\x89tats'
p92
(dp93
S'NOUN'
p94
F1.0
s(lp95
tp96
a(S'membres'
p97
(dp98
S'VERB'
p99
F0.031169
sS'NOUN'
p100
F0.968831
s(lp101
(g31
I6
tp102
atp103
a(g80
(dp104
S'.'
p105
F1.0
s(lp106
(g80
I9
tp107
atp108
a(S'qui'
p109
(dp110
S'PRON'
p111
F1.0
s(lp112
(S'which'
p113
I10
tp114
atp115
a(S'devraient'
p116
(dp117
S'VERB'
p118
F1.0
s(lp119
(S'should'
p120
I11
tp121
atp122
a(S'continuer'
p123
(dp124
S'VERB'
p125
F1.0
s(lp126
(S'continue'
p127
I12
tp128
atp129
a(S'de'
p130
(dp131
S'ADP'
p132
F1.0
s(lp133
(S'to'
p134
I13
tp135
atp136
a(S'jouer'
p137
(dp138
S'VERB'
p139
F1.0
s(lp140
(S'play'
p141
I14
tp142
atp143
a(S'un'
p144
(dp145
S'NOUN'
p146
F1.9e-05
sS'NUM'
p147
F0.007963
sS'DET'
p148
F0.992018
s(lp149
(S'a'
p150
I15
tp151
atp152
a(S'r\xc3\xb4le'
p153
(dp154
S'NOUN'
p155
F1.0
s(lp156
(S'role'
p157
I16
tp158
atp159
a(g80
(dp160
g105
F1.0
s(lp161
(g80
I17
tp162
atp163
a(S'mais'
p164
(dp165
S'CONJ'
p166
F1.0
s(lp167
(S'but'
p168
I18
tp169
atp170
a(S'pas'
p171
(dp172
S'ADV'
p173
F0.997751
sS'NOUN'
p174
F0.002249
s(lp175
(S'not'
p176
I19
tp177
atp178
a(S'dans'
p179
(dp180
S'NOUN'
p181
F1.3e-05
sS'ADP'
p182
F0.999987
s(lp183
(S'in'
p184
I20
tp185
atp186
a(S'le'
p187
(dp188
S'PRON'
p189
F0.001285
sS'DET'
p190
F0.998715
s(lp191
(S'an'
p192
I21
tp193
atp194
a(S'cadre'
p195
(dp196
S'VERB'
p197
F0.0013130000000000001
sS'NOUN'
p198
F0.998688
s(lp199
tp200
a(S"d'"
p201
(dp202
S'NOUN'
p203
F0.032514
sS'VERB'
p204
F0.694153
sS'ADJ'
p205
F0.273333
s(lp206
tp207
a(S'une'
p208
(dp209
S'NOUN'
p210
F1.5e-05
sS'NUM'
p211
F0.021976
sS'DET'
p212
F0.978009
s(lp213
(g192
I21
tp214
atp215
a(S'relation'
p216
(dp217
S'NOUN'
p218
F1.0
s(lp219
(S'relationship'
p220
I23
tp221
atp222
a(S"d'"
p223
(dp224
S'NOUN'
p225
F0.032441
sS'VERB'
p226
F0.694014
sS'ADJ'
p227
F0.273544
s(lp228
tp229
a(S'exclusivit\xc3\xa9'
p230
(dp231
S'NOUN'
p232
F1.0
s(lp233
(S'exclusive'
p234
I22
tp235
atp236
a(S'comme'
p237
(dp238
S'ADV'
p239
F0.476421
sS'CONJ'
p240
F0.523579
s(lp241
(S'as'
p242
I25
tp243
atp244
a(S"c'"
p245
(dp246
S'NOUN'
p247
F0.044087
sS'VERB'
p248
F0.8272609999999999
sS'ADJ'
p249
F0.128653
s(lp250
(S'it'
p251
I26
tp252
atp253
a(S'\xc3\xa9tait'
p254
(dp255
S'VERB'
p256
F1.0
s(lp257
(S'has'
p258
I27
tp259
atp260
a(S'le'
p261
(dp262
S'PRON'
p263
F0.000137
sS'DET'
p264
F0.999863
s(lp265
(g192
I21
tp266
atp267
a(S'cas'
p268
(dp269
S'NOUN'
p270
F1.0
s(lp271
(S'often'
p272
I28
tp273
atp274
a(S"jusqu'"
p275
(dp276
S'ADJ'
p277
F0.054585
sS'VERB'
p278
F0.014802
sS'NOUN'
p279
F0.930613
s(lp280
tp281
a(S'\xc3\xa0'
p282
(dp283
S'ADP'
p284
F1.0
s(lp285
(S'until'
p286
I32
tp287
atp288
a(S'pr\xc3\xa9sent'
p289
(dp290
S'NOUN'
p291
F0.177273
sS'ADJ'
p292
F0.822727
s(lp293
(S'now'
p294
I33
tp295
atp296
a(g105
(dp297
g105
F1.0
s(lp298
(g105
I34
tp299
atp300
asS'en'
p301
(lp302
(g8
(dp303
S'ADV'
p304
F0.001346
sS'NOUN'
p305
F0.000488
sS'DET'
p306
F0.998166
s(lp307
(g8
I0
tp308
atp309
a(S'will'
p310
(dp311
S'VERB'
p312
F0.999386
sS'NOUN'
p313
F0.000614
s(lp314
(g310
I1
tp315
atp316
a(g15
(dp317
S'VERB'
p318
F1.0
s(lp319
(g15
I2
tp320
atp321
a(g24
(dp322
S'NOUN'
p323
F1e-06
sS'DET'
p324
F0.999999
s(lp325
(g24
I3
tp326
atp327
a(S'focus'
p328
(dp329
S'VERB'
p330
F0.002813
sS'NOUN'
p331
F0.997188
s(lp332
(g328
I4
tp333
atp334
a(S'on'
p335
(dp336
S'ADV'
p337
F0.000637
sS'PRT'
p338
F0.000461
sS'ADJ'
p339
F3e-06
sS'ADP'
p340
F0.998895
sS'NOUN'
p341
F3e-06
s(lp342
(g335
I5
tp343
atp344
a(g31
(dp345
S'ADJ'
p346
F0.252791
sS'VERB'
p347
F5.3e-05
sS'NOUN'
p348
F0.7471559999999999
s(lp349
(g31
I6
tp350
atp351
a(g66
(dp352
S'VERB'
p353
F0.00076
sS'NOUN'
p354
F0.99924
s(lp355
(g66
I7
tp356
atp357
a(g89
(dp358
S'NOUN'
p359
F1.0
s(lp360
(g89
I8
tp361
atp362
a(g80
(dp363
g105
F1.0
s(lp364
(g80
I9
tp365
atp366
a(g113
(dp367
S'DET'
p368
F1.0
s(lp369
(g113
I10
tp370
atp371
a(g120
(dp372
S'VERB'
p373
F1.0
s(lp374
(g120
I11
tp375
atp376
a(g127
(dp377
S'VERB'
p378
F1.0
s(lp379
(g127
I12
tp380
atp381
a(g134
(dp382
S'ADV'
p383
F0.0
sS'PRT'
p384
F1.0
sS'ADP'
p385
F0.0
s(lp386
(g134
I13
tp387
atp388
a(g141
(dp389
S'VERB'
p390
F0.999847
sS'NOUN'
p391
F0.000153
s(lp392
(g141
I14
tp393
atp394
a(g150
(dp395
S'NOUN'
p396
F0.0
sS'DET'
p397
F1.0
s(lp398
(g150
I15
tp399
atp400
a(g157
(dp401
S'NOUN'
p402
F1.0
s(lp403
(g157
I16
tp404
atp405
a(g80
(dp406
g105
F1.0
s(lp407
(g80
I17
tp408
atp409
a(g168
(dp410
S'ADV'
p411
F0.007379
sS'CONJ'
p412
F0.992621
sS'NOUN'
p413
F1e-06
s(lp414
(g168
I18
tp415
atp416
a(g176
(dp417
S'ADV'
p418
F1.0
s(lp419
(g176
I19
tp420
atp421
a(g184
(dp422
S'ADV'
p423
F0.001591
sS'PRT'
p424
F7e-06
sS'ADP'
p425
F0.998402
s(lp426
(g184
I20
tp427
atp428
a(g192
(dp429
S'DET'
p430
F1.0
s(lp431
(g192
I21
tp432
atp433
a(g234
(dp434
S'NOUN'
p435
F0.002578
sS'ADJ'
p436
F0.997422
s(lp437
(g234
I22
tp438
atp439
a(g220
(dp440
S'NOUN'
p441
F1.0
s(lp442
(g220
I23
tp443
atp444
a(g80
(dp445
g105
F1.0
s(lp446
(g80
I24
tp447
atp448
a(g242
(dp449
S'ADV'
p450
F0.222032
sS'ADP'
p451
F0.777968
s(lp452
(g242
I25
tp453
atp454
a(g251
(dp455
S'PRON'
p456
F1.0
s(lp457
(g251
I26
tp458
atp459
a(g258
(dp460
S'VERB'
p461
F1.0
s(lp462
(g258
I27
tp463
atp464
a(g272
(dp465
S'ADV'
p466
F0.999998
sS'ADJ'
p467
F2e-06
s(lp468
(g272
I28
tp469
atp470
a(S'manifested'
p471
(dp472
S'VERB'
p473
F1.0
s(lp474
(g471
I29
tp475
atp476
a(S'itself'
p477
(dp478
S'PRON'
p479
F1.0
s(lp480
(g477
I30
tp481
atp482
a(S'up'
p483
(dp484
S'ADV'
p485
F0.955904
sS'PRT'
p486
F0.042615
sS'NOUN'
p487
F0.0
sS'ADP'
p488
F0.001481
s(lp489
(g483
I31
tp490
atp491
a(g286
(dp492
S'ADP'
p493
F1.0
s(lp494
(g286
I32
tp495
atp496
a(g294
(dp497
S'ADV'
p498
F0.999699
sS'NOUN'
p499
F0.000212
sS'ADP'
p500
F8.8e-05
s(lp501
(g294
I33
tp502
atp503
a(g105
(dp504
g105
F1.0
s(lp505
(g105
I34
tp506
atp507
asS'nl'
p508
(lp509
(S'ook'
p510
(dp511
S'ADV'
p512
F1.0
s(lp513
(g80
I9
tp514
atp515
a(S'die'
p516
(dp517
S'PRON'
p518
F0.9999999999999999
s(lp519
(g113
I10
tp520
atp521
a(S'relaties'
p522
(dp523
S'NOUN'
p524
F1.0
s(lp525
(g89
I8
tp526
atp527
a(S'moeten'
p528
(dp529
S'VERB'
p530
F1.0
sS'NOUN'
p531
F0.0
s(lp532
tp533
a(S'hun'
p534
(dp535
S'PRON'
p536
F1.0
s(lp537
(g150
I15
tp538
atp539
a(S'rol'
p540
(dp541
S'VERB'
p542
F0.000236
sS'NOUN'
p543
F0.999764
s(lp544
(g157
I16
tp545
atp546
a(S'blijven'
p547
(dp548
S'VERB'
p549
F0.9999769999999999
sS'NOUN'
p550
F2.3e-05
s(lp551
(g127
I12
tp552
atp553
a(S'spelen'
p554
(dp555
S'VERB'
p556
F0.98754
sS'NOUN'
p557
F0.012461
s(lp558
(g141
I14
tp559
atp560
a(g80
(dp561
g105
F1.0
s(lp562
(g80
I17
tp563
atp564
a(S'maar'
p565
(dp566
S'ADV'
p567
F0.385224
sS'CONJ'
p568
F0.614684
sS'NOUN'
p569
F9.2e-05
s(lp570
(g168
I18
tp571
atp572
a(S'mogen'
p573
(dp574
S'VERB'
p575
F0.999996
sS'NOUN'
p576
F4e-06
s(lp577
(g120
I11
tp578
atp579
a(S'geen'
p580
(dp581
S'PRON'
p582
F0.999993
sS'DET'
p583
F7e-06
s(lp584
(g176
I19
tp585
atp586
a(S'exclusief'
p587
(dp588
S'ADJ'
p589
F1.0
s(lp590
(g234
I22
tp591
atp592
a(S'karakter'
p593
(dp594
S'NOUN'
p595
F1.0
s(lp596
(g220
I23
tp597
atp598
a(S'hebben'
p599
(dp600
S'VERB'
p601
F0.9999990000000001
sS'NOUN'
p602
F2e-06
s(lp603
tp604
a(g80
(dp605
g105
F1.0
s(lp606
(g80
I24
tp607
atp608
a(S'zoals'
p609
(dp610
S'CONJ'
p611
F1.0
s(lp612
(g242
I25
tp613
atp614
a(S'tot'
p615
(dp616
S'CONJ'
p617
F0.000234
sS'ADP'
p618
F0.999766
s(lp619
(g286
I32
tp620
atp621
a(S'nu'
p622
(dp623
S'ADV'
p624
F0.977023
sS'CONJ'
p625
F0.021807
sS'NOUN'
p626
F0.00117
s(lp627
(g294
I33
tp628
atp629
a(S'toe'
p630
(dp631
S'ADV'
p632
F1.0
sS'X'
p633
F0.0
s(lp634
(g483
I31
tp635
atp636
a(S'vaak'
p637
(dp638
S'ADV'
p639
F0.999985
sS'NOUN'
p640
F1.5e-05
s(lp641
(g272
I28
tp642
atp643
a(S'het'
p644
(dp645
S'PRON'
p646
F0.001792
sS'DET'
p647
F0.998207
s(lp648
(g24
I3
tp649
atp650
a(S'geval'
p651
(dp652
S'NOUN'
p653
F1.0
s(lp654
(g31
I6
tp655
atp656
a(S'was'
p657
(dp658
S'VERB'
p659
F0.99998
sS'NOUN'
p660
F2e-05
s(lp661
(g258
I27
tp662
atp663
a(g105
(dp664
g105
F1.0
s(lp665
(g105
I34
tp666
atp667
asS'de'
p668
(lp669
(S'dadurch'
p670
(dp671
S'ADV'
p672
F1.0
s(lp673
(g8
I0
tp674
atp675
a(S'wird'
p676
(dp677
S'VERB'
p678
F1.0
s(lp679
(g310
I1
tp680
atp681
a(S'das'
p682
(dp683
S'PRON'
p684
F0.019216
sS'DET'
p685
F0.980783
s(lp686
(g24
I3
tp687
atp688
a(S'gewicht'
p689
(dp690
S'VERB'
p691
F0.000983
sS'NOUN'
p692
F0.998742
s(lp693
(g31
I6
tp694
atp695
a(S'der'
p696
(dp697
S'PRON'
p698
F9e-05
sS'DET'
p699
F0.999884
s(lp700
tp701
a(S'beziehungen'
p702
(dp703
S'ADJ'
p704
F0.021152
sS'NOUN'
p705
F0.964291
s(lp706
tp707
a(S'zwischen'
p708
(dp709
S'PRT'
p710
F3e-06
sS'ADP'
p711
F0.999997
s(lp712
(g89
I8
tp713
atp714
a(S'den'
p715
(dp716
S'PRON'
p717
F0.000171
sS'DET'
p718
F0.999823
s(lp719
tp720
a(S'eu-mitgliedstaaten'
p721
(dp722
S'ADJ'
p723
F0.047678
sS'NOUN'
p724
F0.937607
s(lp725
tp726
a(S'relativiert'
p727
(dp728
S'VERB'
p729
F1.0
s(lp730
(g31
I6
tp731
atp732
a(g105
(dp733
g105
F1.0
s(lp734
(g80
I9
tp735
atp736
a(S'diese'
p737
(dp738
S'PRON'
p739
F1.0
s(lp740
(g113
I10
tp741
atp742
a(S'sollen'
p743
(dp744
S'VERB'
p745
F0.999421
s(lp746
(g120
I11
tp747
atp748
a(S'nach'
p749
(dp750
S'ADV'
p751
F0.955656
sS'ADP'
p752
F0.043203
s(lp753
tp754
a(S'wie'
p755
(dp756
S'CONJ'
p757
F0.9999939999999999
s(lp758
(g127
I12
tp759
atp760
a(S'vor'
p761
(dp762
S'ADV'
p763
F0.042575
sS'ADP'
p764
F0.957401
s(lp765
(g134
I13
tp766
atp767
a(S'eine'
p768
(dp769
S'PRON'
p770
F0.941449
sS'DET'
p771
F0.055947
s(lp772
(g150
I15
tp773
atp774
a(S'rolle'
p775
(dp776
S'VERB'
p777
F1.0
s(lp778
(g157
I16
tp779
atp780
a(S'spielen'
p781
(dp782
S'VERB'
p783
F1.0
s(lp784
(g141
I14
tp785
atp786
a(g80
(dp787
g105
F1.0
s(lp788
(g80
I17
tp789
atp790
a(S'jedoch'
p791
(dp792
S'ADV'
p793
F0.959965
sS'CONJ'
p794
F0.040035
s(lp795
(g168
I18
tp796
atp797
a(S'nicht'
p798
(dp799
S'PRT'
p800
F1.0
s(lp801
(g176
I19
tp802
atp803
a(S'in'
p804
(dp805
S'ADP'
p806
F1.0
s(lp807
(g184
I20
tp808
atp809
a(S'einem'
p810
(dp811
S'PRON'
p812
F0.000606
sS'DET'
p813
F0.999245
s(lp814
(g192
I21
tp815
atp816
a(S'ausschlie\xc3\x9flichen'
p817
(dp818
S'ADJ'
p819
F1.0
s(lp820
(g234
I22
tp821
atp822
a(S'sinne'
p823
(dp824
S'VERB'
p825
F1.0
s(lp826
(g220
I23
tp827
atp828
a(g80
(dp829
g105
F1.0
s(lp830
(g80
I24
tp831
atp832
a(S'wie'
p833
(dp834
S'CONJ'
p835
F0.999988
s(lp836
(g242
I25
tp837
atp838
a(S'es'
p839
(dp840
S'PRON'
p841
F1.0
s(lp842
(g251
I26
tp843
atp844
a(S'bislang'
p845
(dp846
S'ADV'
p847
F1.0
s(lp848
(g286
I32
tp849
atp850
a(S'oft'
p851
(dp852
S'ADV'
p853
F1.0
s(lp854
(g272
I28
tp855
atp856
a(S'der'
p857
(dp858
S'PRON'
p859
F0.034513
sS'DET'
p860
F0.965186
s(lp861
tp862
a(S'fall'
p863
(dp864
S'VERB'
p865
F1.0
s(lp866
tp867
a(S'war'
p868
(dp869
S'VERB'
p870
F1.0
s(lp871
(g471
I29
tp872
atp873
a(g105
(dp874
g105
F1.0
s(lp875
(g105
I34
tp876
atp877
asS'it'
p878
(lp879
(S'ci\xc3\xb2'
p880
(dp881
S'PRON'
p882
F1.0
s(lp883
(g8
I0
tp884
atp885
a(S'ridurr\xc3\xa0'
p886
(dp887
S'VERB'
p888
F1.0
s(lp889
(g15
I2
tp890
atp891
a(S"l'"
p892
(dp893
S'NOUN'
p894
F0.00427
sS'VERB'
p895
F0.958229
sS'ADJ'
p896
F0.0375
s(lp897
(g24
I3
tp898
atp899
a(S'attenzione'
p900
(dp901
S'NOUN'
p902
F1.0
s(lp903
(g328
I4
tp904
atp905
a(S'rivolta'
p906
(dp907
S'NOUN'
p908
F0.070641
sS'VERB'
p909
F0.756362
sS'ADJ'
p910
F0.172998
s(lp911
(g31
I6
tp912
atp913
a(S'alle'
p914
(dp915
S'ADP'
p916
F1.0
s(lp917
(g31
I6
tp918
atp919
a(S'relazioni'
p920
(dp921
S'VERB'
p922
F6.1000000000000005e-05
sS'NOUN'
p923
F0.999938
s(lp924
(g89
I8
tp925
atp926
a(S'ue-stati'
p927
(dp928
S'ADJ'
p929
F0.229927
sS'VERB'
p930
F0.11320100000000001
sS'NOUN'
p931
F0.656872
s(lp932
(g31
I6
tp933
atp934
a(S'membri'
p935
(dp936
S'NOUN'
p937
F1.0
s(lp938
(g31
I6
tp939
atp940
a(g80
(dp941
g105
F1.0
s(lp942
(g80
I9
tp943
atp944
a(S'che'
p945
(dp946
S'PRON'
p947
F0.984116
sS'CONJ'
p948
F0.015871
sS'ADJ'
p949
F1.3e-05
s(lp950
(g113
I10
tp951
atp952
a(S'dovrebbero'
p953
(dp954
S'VERB'
p955
F1.0
s(lp956
(g120
I11
tp957
atp958
a(S'continuare'
p959
(dp960
S'VERB'
p961
F1.0
s(lp962
(g127
I12
tp963
atp964
a(g150
(dp965
S'CONJ'
p966
F8.3e-05
sS'ADP'
p967
F0.999917
s(lp968
(g134
I13
tp969
atp970
a(S'svolgere'
p971
(dp972
S'VERB'
p973
F1.0
s(lp974
(g141
I14
tp975
atp976
a(S'un'
p977
(dp978
S'PRON'
p979
F0.001879
sS'DEF'
p980
F0.998121
s(lp981
(g150
I15
tp982
atp983
a(S'ruolo'
p984
(dp985
S'NOUN'
p986
F1.0
s(lp987
(g157
I16
tp988
atp989
a(g80
(dp990
g105
F1.0
s(lp991
(g80
I17
tp992
atp993
a(S'ma'
p994
(dp995
S'CONJ'
p996
F0.999975
sS'NOUN'
p997
F2.5e-05
s(lp998
(g168
I18
tp999
atp1000
a(S'non'
p1001
(dp1002
S'ADV'
p1003
F1.0
s(lp1004
(g176
I19
tp1005
atp1006
a(S"nell'"
p1007
(dp1008
S'ADJ'
p1009
F0.040775
sS'VERB'
p1010
F0.04232400000000001
sS'NOUN'
p1011
F0.916901
s(lp1012
(g184
I20
tp1013
atp1014
a(S'ambito'
p1015
(dp1016
S'ADJ'
p1017
F0.021716
sS'VERB'
p1018
F0.321072
sS'NOUN'
p1019
F0.657212
s(lp1020
tp1021
a(S'di'
p1022
(dp1023
S'CONJ'
p1024
F1.3e-05
sS'ADP'
p1025
F0.999987
s(lp1026
tp1027
a(S'un'
p1028
(dp1029
S'PRON'
p1030
F0.002678
sS'DEF'
p1031
F0.997322
s(lp1032
(g192
I21
tp1033
atp1034
a(S'rapporto'
p1035
(dp1036
S'VERB'
p1037
F1e-05
sS'NOUN'
p1038
F0.99999
s(lp1039
(g220
I23
tp1040
atp1041
a(S'esclusivo'
p1042
(dp1043
S'ADJ'
p1044
F1.0
s(lp1045
(g234
I22
tp1046
atp1047
a(g80
(dp1048
g105
F1.0
s(lp1049
(g80
I24
tp1050
atp1051
a(S'come'
p1052
(dp1053
S'PRON'
p1054
F0.006576
sS'CONJ'
p1055
F0.937163
sS'NOUN'
p1056
F9.8e-05
sS'ADP'
p1057
F0.056163
s(lp1058
(g242
I25
tp1059
atp1060
a(S'sinora'
p1061
(dp1062
S'ADV'
p1063
F1.0
s(lp1064
(g471
I29
tp1065
atp1066
a(S'si'
p1067
(dp1068
S'PRON'
p1069
F0.999995
sS'NOUN'
p1070
F4e-06
s(lp1071
(g251
I26
tp1072
atp1073
a(S'\xc3\xa8'
p1074
(dp1075
S'VERB'
p1076
F1.0
s(lp1077
(g258
I27
tp1078
atp1079
a(S'spesso'
p1080
(dp1081
S'ADV'
p1082
F0.999442
sS'ADJ'
p1083
F0.000558
s(lp1084
(g272
I28
tp1085
atp1086
a(S'verificato'
p1087
(dp1088
S'VERB'
p1089
F1.0
s(lp1090
(g31
I6
tp1091
atp1092
a(g105
(dp1093
g105
F1.0
s(lp1094
(g105
I34
tp1095
atp1096
asS'sk'
p1097
(lp1098
(S'zn\xc3\xad\xc5\xbei'
p1099
(dp1100
S'VERB'
p1101
F1.0
s(lp1102
(g15
I2
tp1103
atp1104
a(S'sa'
p1105
(dp1106
S'PRT'
p1107
F0.998356
sS'ADP'
p1108
F0.00108
sg633
F0.0005639999999999999
s(lp1109
tp1110
a(S't\xc3\xbdm'
p1111
(dp1112
S'PRON'
p1113
F0.9951490000000001
sS'CONJ'
p1114
F0.004851
s(lp1115
(g24
I3
tp1116
atp1117
a(S'd\xc3\xb4raz'
p1118
(dp1119
S'NOUN'
p1120
F1.0
s(lp1121
(g328
I4
tp1122
atp1123
a(S'na'
p1124
(dp1125
g633
F0.00013299999999999998
sS'CONJ'
p1126
F2e-05
sS'ADP'
p1127
F0.999841
sS'PRT'
p1128
F7e-06
s(lp1129
(g335
I5
tp1130
atp1131
a(S'vz\xc5\xa5ahy'
p1132
(dp1133
S'NOUN'
p1134
F1.0
s(lp1135
(g89
I8
tp1136
atp1137
a(S'medzi'
p1138
(dp1139
S'NOUN'
p1140
F0.000247
sS'ADP'
p1141
F0.999753
s(lp1142
(g31
I6
tp1143
atp1144
a(S'e\xc3\x9a'
p1145
(dp1146
S'ADV'
p1147
F0.003036
sS'NOUN'
p1148
F0.259968
sS'VERB'
p1149
F3.1e-05
sS'ADJ'
p1150
F0.736147
sg633
F0.000817
s(lp1151
tp1152
a(g150
(dp1153
g633
F0.00047999999999999996
sS'CONJ'
p1154
F0.998962
sS'NOUN'
p1155
F0.00033200000000000005
sS'ADP'
p1156
F0.000208
sS'PRT'
p1157
F1.8e-05
s(lp1158
tp1159
a(S'\xc4\x8dlensk\xc3\xbdm'
p1160
(dp1161
S'NOUN'
p1162
F0.060722
sS'ADJ'
p1163
F0.9392780000000001
s(lp1164
(g31
I6
tp1165
atp1166
a(S'\xc5\xa1t\xc3\xa1tom'
p1167
(dp1168
S'NOUN'
p1169
F1.0
s(lp1170
(g66
I7
tp1171
atp1172
a(g80
(dp1173
g105
F1.0
s(lp1174
(g80
I9
tp1175
atp1176
a(S'ktor\xc3\xa9'
p1177
(dp1178
S'PRON'
p1179
F1.0
s(lp1180
(g113
I10
tp1181
atp1182
a(S'by'
p1183
(dp1184
S'PRT'
p1185
F0.999993
sg633
F7e-06
s(lp1186
tp1187
a(S'mali'
p1188
(dp1189
S'VERB'
p1190
F1.000001
s(lp1191
(g120
I11
tp1192
atp1193
a(S'na\xc4\x8falej'
p1194
(dp1195
S'ADV'
p1196
F1.0
s(lp1197
(g127
I12
tp1198
atp1199
a(S'zohr\xc3\xa1va\xc5\xa5'
p1200
(dp1201
S'VERB'
p1202
F1.0
s(lp1203
tp1204
a(S'ur\xc4\x8dit\xc3\xba'
p1205
(dp1206
S'ADJ'
p1207
F1.0
s(lp1208
(g141
I14
tp1209
atp1210
a(S'\xc3\xbalohu'
p1211
(dp1212
S'NOUN'
p1213
F1.0
s(lp1214
(g157
I16
tp1215
atp1216
a(g80
(dp1217
g105
F1.0
s(lp1218
(g80
I17
tp1219
atp1220
a(S'no'
p1221
(dp1222
g633
F0.024265000000000002
sS'CONJ'
p1223
F0.975735
s(lp1224
(g168
I18
tp1225
atp1226
a(S'nie'
p1227
(dp1228
g633
F1.0
s(lp1229
(g176
I19
tp1230
atp1231
a(S'vo'
p1232
(dp1233
S'ADP'
p1234
F1.0
s(lp1235
(g184
I20
tp1236
atp1237
a(S'v\xc3\xbdhradnom'
p1238
(dp1239
S'ADJ'
p1240
F1.0
s(lp1241
(g234
I22
tp1242
atp1243
a(S'vz\xc5\xa5ahu'
p1244
(dp1245
S'NOUN'
p1246
F1.0
s(lp1247
(g220
I23
tp1248
atp1249
a(g80
(dp1250
g105
F1.0
s(lp1251
(g80
I24
tp1252
atp1253
a(S'ako'
p1254
(dp1255
S'PRON'
p1256
F0.056568
sS'CONJ'
p1257
F0.943404
sg633
F2.8e-05
s(lp1258
(g242
I25
tp1259
atp1260
a(S'sa'
p1261
(dp1262
S'PRT'
p1263
F0.999876
sS'ADP'
p1264
F7.5e-05
sg633
F4.9e-05
s(lp1265
(g477
I30
tp1266
atp1267
a(S'to'
p1268
(dp1269
S'PRON'
p1270
F0.952535
sS'CONJ'
p1271
F0.003126
sg633
F0.044339
s(lp1272
(g251
I26
tp1273
atp1274
a(S'doteraz'
p1275
(dp1276
S'ADV'
p1277
F1.0
s(lp1278
(g286
I32
tp1279
atp1280
a(S'\xc4\x8dasto'
p1281
(dp1282
S'ADV'
p1283
F1.0
s(lp1284
(g272
I28
tp1285
atp1286
a(S'uk\xc3\xa1zalo'
p1287
(dp1288
S'VERB'
p1289
F1.0
s(lp1290
(g471
I29
tp1291
atp1292
a(g105
(dp1293
g105
F1.0
s(lp1294
(g105
I34
tp1295
atp1296
asS'pl'
p1297
(lp1298
(S'ograniczy'
p1299
(dp1300
S'VERB'
p1301
F1.0
s(lp1302
(g15
I2
tp1303
atp1304
a(S'to'
p1305
(dp1306
S'NOUN'
p1307
F0.195123
sS'ADP'
p1308
F1e-05
sS'PRT'
p1309
F0.344789
sg633
F6e-06
sS'CONJ'
p1310
F0.318373
sS'ADJ'
p1311
F0.141699
s(lp1312
(g8
I0
tp1313
atp1314
a(S'koncentracj\xc4\x99'
p1315
(dp1316
S'NOUN'
p1317
F1.0
s(lp1318
(g31
I6
tp1319
atp1320
a(S'wok\xc3\xb3\xc5\x82'
p1321
(dp1322
S'ADV'
p1323
F0.001265
sS'ADP'
p1324
F0.998735
s(lp1325
(g31
I6
tp1326
atp1327
a(S'stosunk\xc3\xb3w'
p1328
(dp1329
S'NOUN'
p1330
F1.0
s(lp1331
(g89
I8
tp1332
atp1333
a(S'na'
p1334
(dp1335
S'PRT'
p1336
F2e-06
sS'VERB'
p1337
F4e-06
sS'NOUN'
p1338
F3e-06
sS'ADP'
p1339
F0.999988
sg633
F2e-06
s(lp1340
(g335
I5
tp1341
atp1342
a(S'linii'
p1343
(dp1344
S'NOUN'
p1345
F1.0
s(lp1346
(g31
I6
tp1347
atp1348
a(S'ue'
p1349
(dp1350
S'ADJ'
p1351
F0.000552
sS'VERB'
p1352
F0.0022909999999999996
sS'NOUN'
p1353
F0.997158
s(lp1354
(g31
I6
tp1355
atp1356
a(S'-'
p1357
(dp1358
g633
F3.4e-05
sS'NUM'
p1359
F0.0
sS'NOUN'
p1360
F5.2000000000000004e-05
sg105
F0.999915
s(lp1361
tp1362
a(S'pa\xc5\x84stwo'
p1363
(dp1364
S'NOUN'
p1365
F1.0
s(lp1366
(g66
I7
tp1367
atp1368
a(S'cz\xc5\x82onkowskie'
p1369
(dp1370
S'ADJ'
p1371
F1.0
s(lp1372
(g31
I6
tp1373
atp1374
a(g80
(dp1375
g633
F0.0
sg105
F1.0
s(lp1376
(g80
I9
tp1377
atp1378
a(S'kt\xc3\xb3re'
p1379
(dp1380
S'ADJ'
p1381
F1.0000010000000001
s(lp1382
(g113
I10
tp1383
atp1384
a(S'nadal'
p1385
(dp1386
S'ADV'
p1387
F0.999841
sS'VERB'
p1388
F0.000159
s(lp1389
(g127
I12
tp1390
atp1391
a(S'powinny'
p1392
(dp1393
S'VERB'
p1394
F1.0
s(lp1395
(g120
I11
tp1396
atp1397
a(S'odgrywa\xc4\x87'
p1398
(dp1399
S'VERB'
p1400
F1.0
s(lp1401
tp1402
a(S'swoj\xc4\x85'
p1403
(dp1404
S'ADJ'
p1405
F1.0
s(lp1406
(g141
I14
tp1407
atp1408
a(S'rol\xc4\x99'
p1409
(dp1410
S'NOUN'
p1411
F1.0
s(lp1412
(g157
I16
tp1413
atp1414
a(g80
(dp1415
g633
F0.0
sg105
F1.0
s(lp1416
(g80
I17
tp1417
atp1418
a(S'ale'
p1419
(dp1420
S'PRT'
p1421
F0.00291
sS'CONJ'
p1422
F0.996499
sS'NOUN'
p1423
F0.0005909999999999999
s(lp1424
(g168
I18
tp1425
atp1426
a(S'nie'
p1427
(dp1428
S'ADV'
p1429
F0.000155
sS'PRT'
p1430
F0.988376
sS'CONJ'
p1431
F0.010915
sS'NOUN'
p1432
F5.5e-05
sS'PRON'
p1433
F0.000499
s(lp1434
(g176
I19
tp1435
atp1436
a(S'na'
p1437
(dp1438
g633
F2e-06
sS'VERB'
p1439
F9.999999999999999e-06
sS'NOUN'
p1440
F0.0
sS'ADP'
p1441
F0.9999859999999999
sS'PRT'
p1442
F2e-06
s(lp1443
(g184
I20
tp1444
atp1445
a(S'zasadzie'
p1446
(dp1447
S'NOUN'
p1448
F1.0
s(lp1449
(g31
I6
tp1450
atp1451
a(S'wy\xc5\x82\xc4\x85czno\xc5\x9bci'
p1452
(dp1453
S'NOUN'
p1454
F1.0
s(lp1455
(g31
I6
tp1456
atp1457
a(S'we'
p1458
(dp1459
g633
F7e-06
sS'ADP'
p1460
F0.999993
s(lp1461
tp1462
a(S'wzajemnych'
p1463
(dp1464
S'ADJ'
p1465
F1.0
s(lp1466
(g31
I6
tp1467
atp1468
a(S'stosunkach'
p1469
(dp1470
S'NOUN'
p1471
F1.0
s(lp1472
(g220
I23
tp1473
atp1474
a(g80
(dp1475
g633
F0.0
sg105
F1.0
s(lp1476
(g80
I24
tp1477
atp1478
a(S'jak'
p1479
(dp1480
S'ADV'
p1481
F0.676045
sS'PRT'
p1482
F0.003215
sS'CONJ'
p1483
F0.171845
sS'ADP'
p1484
F0.148754
sS'PRON'
p1485
F0.00014
s(lp1486
(g242
I25
tp1487
atp1488
a(S'to'
p1489
(dp1490
S'NOUN'
p1491
F0.316458
sS'ADP'
p1492
F4.9e-05
sS'PRT'
p1493
F0.114539
sg633
F1e-06
sS'CONJ'
p1494
F0.123723
sS'ADJ'
p1495
F0.44523
s(lp1496
(g251
I26
tp1497
atp1498
a(S'cz\xc4\x99sto'
p1499
(dp1500
S'ADV'
p1501
F1.0
s(lp1502
(g272
I28
tp1503
atp1504
a(S'mia\xc5\x82o'
p1505
(dp1506
S'VERB'
p1507
F1.0
s(lp1508
tp1509
a(S'miejsce'
p1510
(dp1511
S'NOUN'
p1512
F1.0
s(lp1513
(g471
I29
tp1514
atp1515
a(S'do'
p1516
(dp1517
g633
F0.0
sS'NOUN'
p1518
F2e-06
sS'ADP'
p1519
F0.9999979999999999
s(lp1520
tp1521
a(S'tej'
p1522
(dp1523
S'PRON'
p1524
F3.5e-05
sS'ADJ'
p1525
F0.999965
sg633
F0.0
s(lp1526
(g286
I32
tp1527
atp1528
a(S'pory'
p1529
(dp1530
S'NOUN'
p1531
F0.9999989999999999
s(lp1532
(g294
I33
tp1533
atp1534
a(g105
(dp1535
g105
F1.0
s(lp1536
(g105
I34
tp1537
atp1538
asS'sl'
p1539
(lp1540
(S's'
p1541
(dp1542
S'VERB'
p1543
F1.6e-05
sS'NOUN'
p1544
F3e-05
sS'ADP'
p1545
F0.999954
s(lp1546
tp1547
a(S'tem'
p1548
(dp1549
S'ADV'
p1550
F0.000162
sS'PRON'
p1551
F0.999537
sS'NOUN'
p1552
F0.0003
s(lp1553
(g8
I0
tp1554
atp1555
a(S'se'
p1556
(dp1557
S'PRON'
p1558
F0.999996
sg633
F4e-06
s(lp1559
tp1560
a(S'bo'
p1561
(dp1562
S'VERB'
p1563
F1.0
s(lp1564
(g310
I1
tp1565
atp1566
a(S'zmanj\xc5\xa1ala'
p1567
(dp1568
S'VERB'
p1569
F1.0
s(lp1570
(g15
I2
tp1571
atp1572
a(S'osredoto\xc4\x8denost'
p1573
(dp1574
S'ADJ'
p1575
F0.000169
sS'NOUN'
p1576
F0.9998319999999999
s(lp1577
(g328
I4
tp1578
atp1579
a(S'na'
p1580
(dp1581
S'ADP'
p1582
F1.0
s(lp1583
(g335
I5
tp1584
atp1585
a(S'odnose'
p1586
(dp1587
S'NOUN'
p1588
F1.0
s(lp1589
(g89
I8
tp1590
atp1591
a(S'med'
p1592
(dp1593
S'NOUN'
p1594
F0.000489
sS'ADP'
p1595
F0.9995109999999999
s(lp1596
(g31
I6
tp1597
atp1598
a(S'eu'
p1599
(dp1600
S'ADV'
p1601
F0.002681
sS'ADJ'
p1602
F0.33456299999999994
sS'VERB'
p1603
F2.5e-05
sS'NOUN'
p1604
F0.6627310000000001
s(lp1605
(g31
I6
tp1606
atp1607
a(S'in'
p1608
(dp1609
S'ADV'
p1610
F4e-06
sg633
F8e-06
sS'CONJ'
p1611
F0.999986
sS'NOUN'
p1612
F2e-06
s(lp1613
(g31
I6
tp1614
atp1615
a(S'dr\xc5\xbeavami'
p1616
(dp1617
S'NOUN'
p1618
F1.0
s(lp1619
(g31
I6
tp1620
atp1621
a(S'\xc4\x8dlanicami'
p1622
(dp1623
S'NOUN'
p1624
F1.0
s(lp1625
(g31
I6
tp1626
atp1627
a(g80
(dp1628
g105
F1.0
s(lp1629
(g80
I9
tp1630
atp1631
a(S'ki'
p1632
(dp1633
S'CONJ'
p1634
F1.0
s(lp1635
(g113
I10
tp1636
atp1637
a(S'morajo'
p1638
(dp1639
S'VERB'
p1640
F1.0
s(lp1641
(g120
I11
tp1642
atp1643
a(S'ostati'
p1644
(dp1645
S'VERB'
p1646
F1.0
s(lp1647
(g127
I12
tp1648
atp1649
a(S'\xc5\xa1e'
p1650
(dp1651
S'PRT'
p1652
F1.0
s(lp1653
tp1654
a(S'naprej'
p1655
(dp1656
S'ADV'
p1657
F1.0
s(lp1658
(g127
I12
tp1659
atp1660
a(S'pomembni'
p1661
(dp1662
S'ADJ'
p1663
F1.0
s(lp1664
(g157
I16
tp1665
atp1666
a(g80
(dp1667
g105
F1.0
s(lp1668
(g80
I17
tp1669
atp1670
a(S'vendar'
p1671
(dp1672
S'ADV'
p1673
F0.015625
sS'CONJ'
p1674
F0.984375
s(lp1675
(g168
I18
tp1676
atp1677
a(S'ne'
p1678
(dp1679
S'PRT'
p1680
F0.998781
sS'CONJ'
p1681
F0.001193
sg633
F2.6000000000000002e-05
s(lp1682
(g176
I19
tp1683
atp1684
a(S'smejo'
p1685
(dp1686
S'VERB'
p1687
F1.0
s(lp1688
(g31
I6
tp1689
atp1690
a(S'biti'
p1691
(dp1692
S'VERB'
p1693
F0.999973
sS'NOUN'
p1694
F2.6000000000000002e-05
s(lp1695
tp1696
a(S'izklju\xc4\x8dna'
p1697
(dp1698
S'ADJ'
p1699
F1.0
s(lp1700
(g234
I22
tp1701
atp1702
a(S'razmerja'
p1703
(dp1704
S'NOUN'
p1705
F1.0
s(lp1706
(g220
I23
tp1707
atp1708
a(g80
(dp1709
g105
F1.0
s(lp1710
(g80
I24
tp1711
atp1712
a(S'kot'
p1713
(dp1714
S'CONJ'
p1715
F0.999989
sS'NOUN'
p1716
F1.1e-05
s(lp1717
(g242
I25
tp1718
atp1719
a(S'se'
p1720
(dp1721
S'PRON'
p1722
F1.0
sg633
F0.0
s(lp1723
(g471
I29
tp1724
atp1725
a(S'je'
p1726
(dp1727
S'PRON'
p1728
F0.003601
sS'VERB'
p1729
F0.996398
sg633
F2e-06
s(lp1730
(g258
I27
tp1731
atp1732
a(S'do'
p1733
(dp1734
g633
F1.2e-05
sS'ADP'
p1735
F0.999988
s(lp1736
(g286
I32
tp1737
atp1738
a(S'zdaj'
p1739
(dp1740
S'ADV'
p1741
F1.0
s(lp1742
(g294
I33
tp1743
atp1744
a(S've\xc4\x8dkrat'
p1745
(dp1746
S'ADV'
p1747
F1.0
s(lp1748
(g272
I28
tp1749
atp1750
a(S'zgodilo'
p1751
(dp1752
S'VERB'
p1753
F1.0
s(lp1754
(g31
I6
tp1755
atp1756
a(g105
(dp1757
g105
F1.0
s(lp1758
(g105
I34
tp1759
atp1760
asS'es'
p1761
(lp1762
(S'esto'
p1763
(dp1764
S'PRON'
p1765
F1.0
s(lp1766
(g8
I0
tp1767
atp1768
a(S'reducir\xc3\xa1'
p1769
(dp1770
S'VERB'
p1771
F1.0
s(lp1772
(g15
I2
tp1773
atp1774
a(S'el'
p1775
(dp1776
S'PRON'
p1777
F1e-06
sS'DET'
p1778
F0.999999
s(lp1779
(g24
I3
tp1780
atp1781
a(S'enfoque'
p1782
(dp1783
S'NOUN'
p1784
F1.0
s(lp1785
(g328
I4
tp1786
atp1787
a(S'en'
p1788
(dp1789
g633
F0.0
sS'CONJ'
p1790
F0.0
sS'ADP'
p1791
F1.0
s(lp1792
(g335
I5
tp1793
atp1794
a(S'las'
p1795
(dp1796
S'PRON'
p1797
F0.0
sS'DET'
p1798
F1.0
s(lp1799
tp1800
a(S'relaciones'
p1801
(dp1802
S'NOUN'
p1803
F1.0
s(lp1804
(g89
I8
tp1805
atp1806
a(S'entre'
p1807
(dp1808
g633
F3e-06
sS'ADP'
p1809
F0.999997
s(lp1810
(g31
I6
tp1811
atp1812
a(S'la'
p1813
(dp1814
S'NOUN'
p1815
F0.0
sS'PRON'
p1816
F0.0
sS'DET'
p1817
F0.999999
sg633
F0.0
s(lp1818
tp1819
a(S'ue'
p1820
(dp1821
S'VERB'
p1822
F4e-06
sS'NOUN'
p1823
F0.999995
s(lp1824
tp1825
a(S'y'
p1826
(dp1827
g633
F0.000395
sS'CONJ'
p1828
F0.999605
s(lp1829
tp1830
a(S'los'
p1831
(dp1832
S'PRON'
p1833
F0.000425
sS'DET'
p1834
F0.999575
s(lp1835
tp1836
a(S'estados'
p1837
(dp1838
S'NOUN'
p1839
F1.0
s(lp1840
(g66
I7
tp1841
atp1842
a(S'miembros'
p1843
(dp1844
S'NOUN'
p1845
F1.0
s(lp1846
(g31
I6
tp1847
atp1848
a(g80
(dp1849
g105
F1.0
s(lp1850
(g80
I9
tp1851
atp1852
a(S'que'
p1853
(dp1854
g633
F0.0
sS'CONJ'
p1855
F1.0
s(lp1856
(g113
I10
tp1857
atp1858
a(S'deben'
p1859
(dp1860
S'VERB'
p1861
F1.0
s(lp1862
(g120
I11
tp1863
atp1864
a(S'seguir'
p1865
(dp1866
S'VERB'
p1867
F1.0
s(lp1868
(g127
I12
tp1869
atp1870
a(S'ejerciendo'
p1871
(dp1872
S'VERB'
p1873
F1.0
s(lp1874
(g141
I14
tp1875
atp1876
a(S'su'
p1877
(dp1878
S'PRON'
p1879
F1.0
s(lp1880
(g150
I15
tp1881
atp1882
a(S'papel'
p1883
(dp1884
S'NOUN'
p1885
F1.0
s(lp1886
(g157
I16
tp1887
atp1888
a(g80
(dp1889
g105
F1.0
s(lp1890
(g80
I17
tp1891
atp1892
a(S'pero'
p1893
(dp1894
S'CONJ'
p1895
F0.999972
sS'NOUN'
p1896
F2.8e-05
s(lp1897
(g168
I18
tp1898
atp1899
a(S'no'
p1900
(dp1901
S'ADV'
p1902
F1.0
sg633
F0.0
s(lp1903
(g176
I19
tp1904
atp1905
a(S'como'
p1906
(dp1907
S'ADV'
p1908
F0.98545
sS'CONJ'
p1909
F0.01455
s(lp1910
(g184
I20
tp1911
atp1912
a(S'una'
p1913
(dp1914
S'DET'
p1915
F1.0
s(lp1916
(g192
I21
tp1917
atp1918
a(S'relaci\xc3\xb3n'
p1919
(dp1920
S'NOUN'
p1921
F1.0
s(lp1922
(g220
I23
tp1923
atp1924
a(S'exclusiva'
p1925
(dp1926
S'ADJ'
p1927
F1.0
s(lp1928
(g234
I22
tp1929
atp1930
a(g80
(dp1931
g105
F1.0
s(lp1932
(g80
I24
tp1933
atp1934
a(S'como'
p1935
(dp1936
S'ADV'
p1937
F0.254026
sS'CONJ'
p1938
F0.745974
s(lp1939
(g242
I25
tp1940
atp1941
a(S'han'
p1942
(dp1943
S'VERB'
p1944
F1.0
s(lp1945
(g258
I27
tp1946
atp1947
a(S'manifestado'
p1948
(dp1949
S'VERB'
p1950
F1.0
s(lp1951
(g471
I29
tp1952
atp1953
a(S'por'
p1954
(dp1955
S'ADP'
p1956
F1.0
s(lp1957
(g477
I30
tp1958
atp1959
a(S's\xc3\xad'
p1960
(dp1961
S'ADV'
p1962
F0.165982
sS'PRON'
p1963
F0.834018
s(lp1964
tp1965
a(S'mismas'
p1966
(dp1967
S'ADJ'
p1968
F1.0
s(lp1969
(g477
I30
tp1970
atp1971
a(S'hasta'
p1972
(dp1973
S'ADV'
p1974
F0.549401
sS'NOUN'
p1975
F0.080394
sS'ADJ'
p1976
F0.370204
s(lp1977
(g286
I32
tp1978
atp1979
a(S'ahora'
p1980
(dp1981
S'ADV'
p1982
F0.549401
sS'NOUN'
p1983
F0.080394
sS'ADJ'
p1984
F0.370204
s(lp1985
(g294
I33
tp1986
atp1987
a(g105
(dp1988
g105
F1.0
s(lp1989
(g105
I34
tp1990
atp1991
as.