(dp0
S'fr'
p1
(lp2
(S'je'
p3
(dp4
S'PRON'
p5
F1.0
s(lp6
(S'i'
p7
I0
tp8
atp9
a(S'serai'
p10
(dp11
S'VERB'
p12
F1.0
s(lp13
(S'am'
p14
I1
tp15
atp16
a(S'heureux'
p17
(dp18
S'NOUN'
p19
F0.06069
sS'ADJ'
p20
F0.93931
s(lp21
(S'happy'
p22
I2
tp23
atp24
a(S'de'
p25
(dp26
S'ADP'
p27
F1.0
s(lp28
(S'to'
p29
I3
tp30
atp31
a(S'mettre'
p32
(dp33
S'VERB'
p34
F1.0
s(lp35
(S'make'
p36
I4
tp37
atp38
a(S'ces'
p39
(dp40
S'PRON'
p41
F1.0
s(lp42
(S'the'
p43
I5
tp44
atp45
a(S'rapports'
p46
(dp47
S'NOUN'
p48
F1.0
s(lp49
(S'reports'
p50
I6
tp51
atp52
a(S'\xc3\xa0'
p53
(dp54
S'ADP'
p55
F1.0
s(lp56
tp57
a(S'disposition'
p58
(dp59
S'NOUN'
p60
F1.0
s(lp61
(S'available'
p62
I7
tp63
atp64
a(S'mais'
p65
(dp66
S'CONJ'
p67
F1.0
s(lp68
(S'but'
p69
I9
tp70
atp71
a(S'je'
p72
(dp73
S'PRON'
p74
F1.0
s(lp75
(g7
I10
tp76
atp77
a(S'ne'
p78
(dp79
S'ADV'
p80
F1.0
s(lp81
(S'cannot'
p82
I11
tp83
atp84
a(S'peux'
p85
(dp86
S'VERB'
p87
F1.0
s(lp88
tp89
a(S'pas'
p90
(dp91
S'ADV'
p92
F0.999903
sS'NOUN'
p93
F9.7e-05
s(lp94
(g82
I11
tp95
atp96
a(S'r\xc3\xa9pondre'
p97
(dp98
S'VERB'
p99
F1.0
s(lp100
tp101
a(S'\xc3\xa0'
p102
(dp103
S'ADP'
p104
F1.0
s(lp105
(S'answer'
p106
I12
tp107
atp108
a(S'cette'
p109
(dp110
S'PRON'
p111
F1.0
s(lp112
(S'the'
p113
I13
tp114
atp115
a(S'question'
p116
(dp117
S'NOUN'
p118
F1.0
s(lp119
(S'question'
p120
I14
tp121
atp122
a(S'de'
p123
(dp124
S'ADP'
p125
F1.0
s(lp126
(S'in'
p127
I15
tp128
atp129
a(S'mani\xc3\xa8re'
p130
(dp131
S'VERB'
p132
F0.002394
sS'NOUN'
p133
F0.997605
s(lp134
tp135
a(S'd\xc3\xa9taill\xc3\xa9e'
p136
(dp137
S'VERB'
p138
F1.0
s(lp139
(S'detail'
p140
I16
tp141
atp142
a(S'en'
p143
(dp144
S'PRON'
p145
F5e-06
sS'ADP'
p146
F0.999995
s(lp147
tp148
a(S'cet'
p149
(dp150
S'PRON'
p151
F1.0
s(lp152
(S'right'
p153
I17
tp154
atp155
a(S'instant'
p156
(dp157
S'ADJ'
p158
F0.103991
sS'NOUN'
p159
F0.896009
s(lp160
(S'now'
p161
I18
tp162
atp163
a(S'.'
p164
(dp165
g164
F1.0
s(lp166
(g164
I19
tp167
atp168
asS'en'
p169
(lp170
(g7
(dp171
S'X'
p172
F0.000587
sS'NOUN'
p173
F0.999413
s(lp174
(g7
I0
tp175
atp176
a(g14
(dp177
S'ADV'
p178
F0.009846
sS'VERB'
p179
F0.990154
s(lp180
(g14
I1
tp181
atp182
a(g22
(dp183
S'ADJ'
p184
F1.0
s(lp185
(g22
I2
tp186
atp187
a(g29
(dp188
S'ADV'
p189
F0.0
sS'PRT'
p190
F1.0
sS'ADP'
p191
F0.0
s(lp192
(g29
I3
tp193
atp194
a(g36
(dp195
S'VERB'
p196
F0.999999
sS'NOUN'
p197
F1e-06
s(lp198
(g36
I4
tp199
atp200
a(g43
(dp201
S'NOUN'
p202
F6e-06
sS'DET'
p203
F0.999994
s(lp204
(g43
I5
tp205
atp206
a(g50
(dp207
S'VERB'
p208
F0.070294
sS'NOUN'
p209
F0.929706
s(lp210
(g50
I6
tp211
atp212
a(g62
(dp213
S'ADJ'
p214
F1.0
s(lp215
(g62
I7
tp216
atp217
a(S','
p218
(dp219
g164
F1.0
s(lp220
(g218
I8
tp221
atp222
a(g69
(dp223
S'ADV'
p224
F0.001359
sS'CONJ'
p225
F0.99864
sS'NOUN'
p226
F1e-06
s(lp227
(g69
I9
tp228
atp229
a(g7
(dp230
g172
F0.00645
sS'NOUN'
p231
F0.993549
s(lp232
(g7
I10
tp233
atp234
a(g82
(dp235
S'VERB'
p236
F1.0
s(lp237
(g82
I11
tp238
atp239
a(g106
(dp240
S'VERB'
p241
F0.999996
sS'NOUN'
p242
F4e-06
s(lp243
(g106
I12
tp244
atp245
a(g113
(dp246
S'NOUN'
p247
F1e-06
sS'DET'
p248
F0.999999
s(lp249
(g113
I13
tp250
atp251
a(g120
(dp252
S'VERB'
p253
F0.001429
sS'NOUN'
p254
F0.998571
s(lp255
(g120
I14
tp256
atp257
a(g127
(dp258
S'ADV'
p259
F0.000131
sS'PRT'
p260
F0.000207
sS'ADP'
p261
F0.999661
s(lp262
(g127
I15
tp263
atp264
a(g140
(dp265
S'VERB'
p266
F0.000435
sS'NOUN'
p267
F0.999566
s(lp268
(g140
I16
tp269
atp270
a(g153
(dp271
S'ADV'
p272
F0.724575
sS'ADJ'
p273
F0.009148
sS'VERB'
p274
F0.000193
sS'NOUN'
p275
F0.266084
s(lp276
(g153
I17
tp277
atp278
a(g161
(dp279
S'ADV'
p280
F0.99955
sS'NOUN'
p281
F9.6e-05
sS'ADP'
p282
F0.000354
s(lp283
(g161
I18
tp284
atp285
a(g164
(dp286
g164
F1.0
s(lp287
(g164
I19
tp288
atp289
asS'nl'
p290
(lp291
(S'ik'
p292
(dp293
S'PRON'
p294
F0.999981
sS'NOUN'
p295
F1.9e-05
s(lp296
(g7
I0
tp297
atp298
a(S'geef'
p299
(dp300
S'VERB'
p301
F1.0
s(lp302
(g14
I1
tp303
atp304
a(S'u'
p305
(dp306
S'PRON'
p307
F0.999991
sS'NOUN'
p308
F9e-06
s(lp309
(g22
I2
tp310
atp311
a(S'graag'
p312
(dp313
S'ADV'
p314
F0.054943
sS'ADJ'
p315
F0.945057
s(lp316
tp317
a(S'inzage'
p318
(dp319
S'NOUN'
p320
F1.0
s(lp321
(g22
I2
tp322
atp323
a(S'in'
p324
(dp325
S'ADV'
p326
F0.001185
sS'VERB'
p327
F1e-06
sS'ADP'
p328
F0.998814
s(lp329
(g127
I15
tp330
atp331
a(S'deze'
p332
(dp333
S'PRON'
p334
F1.0
s(lp335
(g43
I5
tp336
atp337
a(S'rapporten'
p338
(dp339
S'NOUN'
p340
F1.0
s(lp341
(g50
I6
tp342
atp343
a(g218
(dp344
g164
F1.0
s(lp345
(g218
I8
tp346
atp347
a(S'maar'
p348
(dp349
S'ADV'
p350
F0.140069
sS'CONJ'
p351
F0.859873
sS'NOUN'
p352
F5.8e-05
s(lp353
(g69
I9
tp354
atp355
a(S'kan'
p356
(dp357
S'VERB'
p358
F0.999984
sS'NOUN'
p359
F1.6e-05
s(lp360
tp361
a(S'hier'
p362
(dp363
S'ADV'
p364
F1.0
s(lp365
(g161
I18
tp366
atp367
a(S'niet'
p368
(dp369
S'ADV'
p370
F0.999996
sS'PRON'
p371
F3e-06
sS'VERB'
p372
F1e-06
sg172
F0.0
s(lp373
(g82
I11
tp374
atp375
a(S'nader'
p376
(dp377
S'VERB'
p378
F0.022504
sS'ADJ'
p379
F0.977496
s(lp380
tp381
a(S'op'
p382
(dp383
S'ADV'
p384
F0.003031
sS'ADJ'
p385
F0.0
sS'ADP'
p386
F0.996969
s(lp387
(g106
I12
tp388
atp389
a(S'de'
p390
(dp391
S'DET'
p392
F1.0
s(lp393
(g113
I13
tp394
atp395
a(S'vraag'
p396
(dp397
S'VERB'
p398
F0.0
sS'NOUN'
p399
F1.0
s(lp400
(g120
I14
tp401
atp402
a(S'ingaan'
p403
(dp404
S'VERB'
p405
F0.9998
sS'NOUN'
p406
F0.0002
s(lp407
(g140
I16
tp408
atp409
a(g164
(dp410
g164
F1.0
s(lp411
(g164
I19
tp412
atp413
asS'de'
p414
(lp415
(S'ich'
p416
(dp417
S'PRON'
p418
F1.0
s(lp419
(g7
I0
tp420
atp421
a(S'kann'
p422
(dp423
S'VERB'
p424
F1.0
s(lp425
(g14
I1
tp426
atp427
a(S'die'
p428
(dp429
S'PRON'
p430
F0.865787
sS'DET'
p431
F0.133339
s(lp432
(g43
I5
tp433
atp434
a(S'berichte'
p435
(dp436
S'VERB'
p437
F1.0
s(lp438
(g50
I6
tp439
atp440
a(S'gerne'
p441
(dp442
S'ADV'
p443
F1.0
s(lp444
(g22
I2
tp445
atp446
a(S'zur'
p447
(dp448
S'ADP'
p449
F1.0
s(lp450
(g62
I7
tp451
atp452
a(S'verf\xc3\xbcgung'
p453
(dp454
S'ADJ'
p455
F9.3e-05
sS'NOUN'
p456
F0.999865
s(lp457
tp458
a(S'stellen'
p459
(dp460
S'VERB'
p461
F1.0
s(lp462
(g62
I7
tp463
atp464
a(g218
(dp465
g164
F1.0
s(lp466
(g218
I8
tp467
atp468
a(S'die'
p469
(dp470
S'PRON'
p471
F0.992275
s(lp472
(g113
I13
tp473
atp474
a(S'frage'
p475
(dp476
S'VERB'
p477
F1.0
s(lp478
(g120
I14
tp479
atp480
a(S'aber'
p481
(dp482
S'ADV'
p483
F0.836646
sS'CONJ'
p484
F0.163354
s(lp485
(g69
I9
tp486
atp487
a(S'im'
p488
(dp489
S'ADP'
p490
F1.0
s(lp491
(g127
I15
tp492
atp493
a(S'detail'
p494
(dp495
S'ADJ'
p496
F0.02019
sS'NOUN'
p497
F0.972552
s(lp498
(g140
I16
tp499
atp500
a(S'hier'
p501
(dp502
S'ADV'
p503
F0.999875
sS'PRT'
p504
F0.000125
s(lp505
(g161
I18
tp506
atp507
a(S'nicht'
p508
(dp509
S'PRT'
p510
F1.0
s(lp511
(g82
I11
tp512
atp513
a(S'beantworten'
p514
(dp515
S'VERB'
p516
F1.0
s(lp517
(g106
I12
tp518
atp519
a(g164
(dp520
g164
F1.0
s(lp521
(g164
I19
tp522
atp523
asS'it'
p524
(lp525
(S'metto'
p526
(dp527
S'VERB'
p528
F1.0
s(lp529
(g7
I0
tp530
atp531
a(S'volentieri'
p532
(dp533
S'ADV'
p534
F1.0
s(lp535
(g22
I2
tp536
atp537
a(S'a'
p538
(dp539
S'CONJ'
p540
F0.000161
sS'ADP'
p541
F0.999839
s(lp542
(g29
I3
tp543
atp544
a(S'disposizione'
p545
(dp546
S'NOUN'
p547
F1.0
s(lp548
(g62
I7
tp549
atp550
a(S'le'
p551
(dp552
S'PRON'
p553
F0.000549
sS'DET'
p554
F0.999451
s(lp555
(g43
I5
tp556
atp557
a(S'relazioni'
p558
(dp559
S'VERB'
p560
F0.000341
sS'NOUN'
p561
F0.999659
s(lp562
(g50
I6
tp563
atp564
a(g218
(dp565
g164
F1.0
s(lp566
(g218
I8
tp567
atp568
a(S'ma'
p569
(dp570
S'CONJ'
p571
F0.999975
sS'NOUN'
p572
F2.5e-05
s(lp573
(g69
I9
tp574
atp575
a(S'non'
p576
(dp577
S'ADV'
p578
F1.0
s(lp579
tp580
a(S'posso'
p581
(dp582
S'VERB'
p583
F1.0
s(lp584
(g82
I11
tp585
atp586
a(S'rispondere'
p587
(dp588
S'VERB'
p589
F1.0
s(lp590
(g106
I12
tp591
atp592
a(S'alla'
p593
(dp594
S'ADP'
p595
F1.0
s(lp596
(g113
I13
tp597
atp598
a(S'domanda'
p599
(dp600
S'VERB'
p601
F0.006397
sS'NOUN'
p602
F0.993603
s(lp603
(g120
I14
tp604
atp605
a(S'in'
p606
(dp607
S'ADP'
p608
F1.0
s(lp609
(g127
I15
tp610
atp611
a(S'questo'
p612
(dp613
S'PRON'
p614
F1.0
s(lp615
(g153
I17
tp616
atp617
a(S'momento'
p618
(dp619
S'NOUN'
p620
F1.0
s(lp621
(g161
I18
tp622
atp623
a(g164
(dp624
g164
F1.0
s(lp625
(g164
I19
tp626
atp627
asS'sk'
p628
(lp629
(S's'
p630
(dp631
g172
F0.0032180000000000004
sS'CONJ'
p632
F6.3e-05
sS'NOUN'
p633
F1.4e-05
sS'ADP'
p634
F0.996705
sS'PRT'
p635
F0.0
s(lp636
(g14
I1
tp637
atp638
a(S'rados\xc5\xa5ou'
p639
(dp640
S'NOUN'
p641
F1.0
s(lp642
tp643
a(S'v\xc3\xa1m'
p644
(dp645
S'PRON'
p646
F0.999627
sg172
F0.000373
s(lp647
(g22
I2
tp648
atp649
a(S'predlo\xc5\xbe\xc3\xadm'
p650
(dp651
S'VERB'
p652
F1.0
s(lp653
(g36
I4
tp654
atp655
a(S'tieto'
p656
(dp657
S'PRON'
p658
F1.0
s(lp659
(g43
I5
tp660
atp661
a(S'spr\xc3\xa1vy'
p662
(dp663
S'NOUN'
p664
F1.0
s(lp665
(g50
I6
tp666
atp667
a(g218
(dp668
g164
F1.0
s(lp669
(g218
I8
tp670
atp671
a(S'ale'
p672
(dp673
g172
F0.007818
sS'CONJ'
p674
F0.992183
s(lp675
(g69
I9
tp676
atp677
a(S'moment\xc3\xa1lne'
p678
(dp679
S'ADV'
p680
F0.998914
sS'ADJ'
p681
F0.001086
s(lp682
(g161
I18
tp683
atp684
a(S'nem\xc3\xb4\xc5\xbeem'
p685
(dp686
S'VERB'
p687
F1.0
s(lp688
(g82
I11
tp689
atp690
a(S'podrobne'
p691
(dp692
S'ADV'
p693
F1.0
s(lp694
(g140
I16
tp695
atp696
a(S'odpoveda\xc5\xa5'
p697
(dp698
S'VERB'
p699
F1.0
s(lp700
tp701
a(S'na'
p702
(dp703
g172
F1.6e-05
sS'CONJ'
p704
F1.4e-05
sS'ADP'
p705
F0.999956
sS'PRT'
p706
F1.4e-05
s(lp707
(g106
I12
tp708
atp709
a(S't\xc3\xbato'
p710
(dp711
S'PRON'
p712
F1.0
s(lp713
(g113
I13
tp714
atp715
a(S'ot\xc3\xa1zku'
p716
(dp717
S'NOUN'
p718
F1.0
s(lp719
(g120
I14
tp720
atp721
a(g164
(dp722
g164
F1.0
s(lp723
(g164
I19
tp724
atp725
asS'pl'
p726
(lp727
(S'ch\xc4\x99tnie'
p728
(dp729
S'ADV'
p730
F1.0
s(lp731
tp732
a(S'udost\xc4\x99pni\xc4\x99'
p733
(dp734
S'ADJ'
p735
F9.9e-05
sS'VERB'
p736
F0.8984519999999999
sS'NOUN'
p737
F0.10144800000000001
s(lp738
(g22
I2
tp739
atp740
a(S'te'
p741
(dp742
g172
F0.000622
sS'ADJ'
p743
F0.9987969999999999
sS'NOUN'
p744
F0.00058
s(lp745
(g43
I5
tp746
atp747
a(S'sprawozdania'
p748
(dp749
S'NOUN'
p750
F1.0
s(lp751
(g50
I6
tp752
atp753
a(g218
(dp754
g172
F0.0
sg164
F1.0
s(lp755
(g218
I8
tp756
atp757
a(S'ale'
p758
(dp759
S'PRT'
p760
F0.001153
sS'CONJ'
p761
F0.998736
sS'NOUN'
p762
F0.00010999999999999999
s(lp763
(g69
I9
tp764
atp765
a(S'teraz'
p766
(dp767
S'ADV'
p768
F1.0
s(lp769
(g161
I18
tp770
atp771
a(S'nie'
p772
(dp773
S'ADV'
p774
F2.4e-05
sS'PRT'
p775
F0.995344
sS'CONJ'
p776
F0.004614
sS'NOUN'
p777
F7e-06
sS'PRON'
p778
F9.999999999999999e-06
s(lp779
tp780
a(S'mog\xc4\x99'
p781
(dp782
S'VERB'
p783
F1.0
s(lp784
(g82
I11
tp785
atp786
a(S'poda\xc4\x87'
p787
(dp788
S'VERB'
p789
F1.0
s(lp790
(g106
I12
tp791
atp792
a(S'szczeg\xc3\xb3\xc5\x82\xc3\xb3w'
p793
(dp794
S'NOUN'
p795
F1.0
s(lp796
(g140
I16
tp797
atp798
a(g164
(dp799
g164
F1.0
s(lp800
(g164
I19
tp801
atp802
asS'sl'
p803
(lp804
(S'z'
p805
(dp806
S'ADP'
p807
F1.0
s(lp808
(g14
I1
tp809
atp810
a(S'veseljem'
p811
(dp812
S'NOUN'
p813
F1.0
s(lp814
tp815
a(S'vam'
p816
(dp817
S'PRON'
p818
F1.0
s(lp819
(g22
I2
tp820
atp821
a(S'dajem'
p822
(dp823
S'VERB'
p824
F1.0
s(lp825
(g36
I4
tp826
atp827
a(S'ta'
p828
(dp829
S'PRON'
p830
F1.0
s(lp831
(g43
I5
tp832
atp833
a(S'poro\xc4\x8dila'
p834
(dp835
S'VERB'
p836
F0.15428
sS'NOUN'
p837
F0.8457210000000001
s(lp838
(g50
I6
tp839
atp840
a(S'na'
p841
(dp842
S'ADP'
p843
F1.0
s(lp844
tp845
a(S'voljo'
p846
(dp847
S'NOUN'
p848
F1.0
s(lp849
(g62
I7
tp850
atp851
a(g218
(dp852
g164
F1.0
s(lp853
(g218
I8
tp854
atp855
a(S'vendar'
p856
(dp857
S'ADV'
p858
F0.050115
sS'CONJ'
p859
F0.949885
s(lp860
tp861
a(S'pa'
p862
(dp863
g172
F0.000118
sS'CONJ'
p864
F0.999882
s(lp865
(g69
I9
tp866
atp867
a(S'vam'
p868
(dp869
S'PRON'
p870
F1.0
s(lp871
(g7
I10
tp872
atp873
a(S'v'
p874
(dp875
S'ADP'
p876
F1.0
s(lp877
(g127
I15
tp878
atp879
a(S'tem'
p880
(dp881
S'ADV'
p882
F2.2e-05
sS'PRON'
p883
F0.999977
sS'NOUN'
p884
F1e-06
s(lp885
tp886
a(S'trenutku'
p887
(dp888
S'NOUN'
p889
F1.0
s(lp890
(g161
I18
tp891
atp892
a(S'na'
p893
(dp894
S'ADP'
p895
F1.0
s(lp896
(g113
I13
tp897
atp898
a(S'vpra\xc5\xa1anje'
p899
(dp900
S'NOUN'
p901
F1.0
s(lp902
(g120
I14
tp903
atp904
a(S'ne'
p905
(dp906
S'PRT'
p907
F0.981434
sS'CONJ'
p908
F0.018556
sg172
F9e-06
s(lp909
tp910
a(S'morem'
p911
(dp912
S'VERB'
p913
F1.0
s(lp914
(g82
I11
tp915
atp916
a(S'podrobneje'
p917
(dp918
S'ADV'
p919
F1.0
s(lp920
(g140
I16
tp921
atp922
a(S'odgovoriti'
p923
(dp924
S'VERB'
p925
F1.0
s(lp926
(g106
I12
tp927
atp928
a(g164
(dp929
g164
F1.0
s(lp930
(g164
I19
tp931
atp932
asS'es'
p933
(lp934
(S'ser\xc3\xa1'
p935
(dp936
S'VERB'
p937
F1.0
s(lp938
(g14
I1
tp939
atp940
a(S'un'
p941
(dp942
g172
F5.4e-05
sS'DET'
p943
F0.999946
s(lp944
tp945
a(S'placer'
p946
(dp947
S'VERB'
p948
F0.853655
sS'NOUN'
p949
F0.146345
s(lp950
(g22
I2
tp951
atp952
a(S'facilitarle'
p953
(dp954
S'VERB'
p955
F1.0
s(lp956
(g36
I4
tp957
atp958
a(S'los'
p959
(dp960
S'PRON'
p961
F0.0
sS'DET'
p962
F1.0
s(lp963
(g43
I5
tp964
atp965
a(S'informes'
p966
(dp967
S'ADJ'
p968
F0.157982
sS'NOUN'
p969
F0.842018
s(lp970
(g50
I6
tp971
atp972
a(g218
(dp973
g164
F1.0
s(lp974
(g218
I8
tp975
atp976
a(S'pero'
p977
(dp978
S'CONJ'
p979
F0.999972
sS'NOUN'
p980
F2.8e-05
s(lp981
(g69
I9
tp982
atp983
a(S'no'
p984
(dp985
S'ADV'
p986
F1.0
sg172
F0.0
s(lp987
tp988
a(S'puedo'
p989
(dp990
S'VERB'
p991
F1.0
s(lp992
(g82
I11
tp993
atp994
a(S'responder'
p995
(dp996
S'VERB'
p997
F1.0
s(lp998
(g106
I12
tp999
atp1000
a(S'en'
p1001
(dp1002
S'ADV'
p1003
F1.0
s(lp1004
(g127
I15
tp1005
atp1006
a(S'detalle'
p1007
(dp1008
S'ADV'
p1009
F1.0
s(lp1010
(g140
I16
tp1011
atp1012
a(S'ahora'
p1013
(dp1014
S'ADV'
p1015
F1.0
s(lp1016
tp1017
a(S'mismo'
p1018
(dp1019
S'NOUN'
p1020
F0.000806
sS'ADJ'
p1021
F0.999194
s(lp1022
(g161
I18
tp1023
atp1024
a(g164
(dp1025
g164
F1.0
s(lp1026
(g164
I19
tp1027
atp1028
as.