(dp0
S'fr'
p1
(lp2
(S'on'
p3
(dp4
S'PRON'
p5
F1.0
s(lp6
(S'it'
p7
I0
tp8
atp9
a(S'aurait'
p10
(dp11
S'VERB'
p12
F1.0
s(lp13
(S'is'
p14
I1
tp15
atp16
a(S'du'
p17
(dp18
S'ADP'
p19
F1.0
s(lp20
(S'the'
p21
I9
tp22
atp23
a(S'mal'
p24
(dp25
S'ADV'
p26
F0.063698
sS'ADJ'
p27
F0.0808
sS'NOUN'
p28
F0.855503
s(lp29
(S'hard'
p30
I2
tp31
atp32
a(S'\xc3\xa0'
p33
(dp34
S'ADP'
p35
F1.0
s(lp36
(S'to'
p37
I3
tp38
atp39
a(S'imaginer'
p40
(dp41
S'VERB'
p42
F1.0
s(lp43
(S'imagine'
p44
I4
tp45
atp46
a(S'le'
p47
(dp48
S'PRON'
p49
F0.000131
sS'DET'
p50
F0.999869
s(lp51
(S'the'
p52
I5
tp53
atp54
a(S'monde'
p55
(dp56
S'ADJ'
p57
F0.000808
sS'VERB'
p58
F0.000107
sS'NOUN'
p59
F0.999085
s(lp60
(S'world'
p61
I7
tp62
atp63
a(S'contemporain'
p64
(dp65
S'NOUN'
p66
F0.004259
sS'ADJ'
p67
F0.995741
s(lp68
(S'contemporary'
p69
I6
tp70
atp71
a(S'et'
p72
(dp73
S'CONJ'
p74
F1.0
s(lp75
(S'and'
p76
I12
tp77
atp78
a(S'nos'
p79
(dp80
S'PRON'
p81
F1.0
s(lp82
(S'our'
p83
I13
tp84
atp85
a(S'vies'
p86
(dp87
S'NOUN'
p88
F1.0
s(lp89
(S'lives'
p90
I15
tp91
atp92
a(S'professionnelles'
p93
(dp94
S'NOUN'
p95
F0.016609
sS'ADJ'
p96
F0.983391
s(lp97
(S'working'
p98
I14
tp99
atp100
a(S'sans'
p101
(dp102
S'CONJ'
p103
F0.079775
sS'ADP'
p104
F0.920225
s(lp105
(S'without'
p106
I16
tp107
atp108
a(S"l'"
p109
(dp110
S'ADJ'
p111
F0.152514
sS'VERB'
p112
F0.13076200000000002
sS'NOUN'
p113
F0.716723
s(lp114
(S'the'
p115
I17
tp116
atp117
a(S'internet'
p118
(dp119
S'ADJ'
p120
F0.154565
sS'VERB'
p121
F0.001422
sS'NOUN'
p122
F0.844011
s(lp123
(S'internet'
p124
I18
tp125
atp126
a(S','
p127
(dp128
S'.'
p129
F1.0
s(lp130
(g127
I19
tp131
atp132
a(S'mais'
p133
(dp134
S'CONJ'
p135
F1.0
s(lp136
(S'but'
p137
I20
tp138
atp139
a(S'cet'
p140
(dp141
S'PRON'
p142
F1.0
s(lp143
(S'the'
p144
I21
tp145
atp146
a(S'outil'
p147
(dp148
S'NOUN'
p149
F1.0
s(lp150
(S'internet'
p151
I22
tp152
atp153
a(S'est'
p154
(dp155
S'VERB'
p156
F0.999872
sS'NOUN'
p157
F0.000128
s(lp158
(S'is'
p159
I23
tp160
atp161
a(S'aussi'
p162
(dp163
S'ADV'
p164
F0.999845
sS'CONJ'
p165
F0.000155
s(lp166
(S'also'
p167
I24
tp168
atp169
a(S'd\xc3\xa9tourn\xc3\xa9'
p170
(dp171
S'VERB'
p172
F0.989386
sS'NOUN'
p173
F0.010614
s(lp174
tp175
a(S'par'
p176
(dp177
S'NOUN'
p178
F3e-06
sS'ADP'
p179
F0.999997
s(lp180
(S'by'
p181
I29
tp182
atp183
a(S'certains'
p184
(dp185
S'PRON'
p186
F0.439078
sS'ADJ'
p187
F0.560922
s(lp188
(S'abused'
p189
I25
tp190
atp191
a(g127
(dp192
g129
F1.0
s(lp193
(g127
I26
tp194
atp195
a(S'par'
p196
(dp197
S'NOUN'
p198
F1e-06
sS'ADP'
p199
F0.999999
s(lp200
tp201
a(S'exemple'
p202
(dp203
S'NOUN'
p204
F1.0
s(lp205
(S'example'
p206
I28
tp207
atp208
a(S'les'
p209
(dp210
S'PRON'
p211
F0.000481
sS'DET'
p212
F0.999159
sS'ADP'
p213
F0.00036
s(lp214
tp215
a(S'p\xc3\xa9dophiles'
p216
(dp217
S'ADJ'
p218
F0.486973
sS'NOUN'
p219
F0.513027
s(lp220
(S'paedophiles'
p221
I30
tp222
atp223
a(g129
(dp224
g129
F1.0
s(lp225
(g129
I31
tp226
atp227
asS'en'
p228
(lp229
(g7
(dp230
S'PRON'
p231
F1.0
s(lp232
(g7
I0
tp233
atp234
a(g14
(dp235
S'VERB'
p236
F1.0
s(lp237
(g14
I1
tp238
atp239
a(g30
(dp240
S'ADV'
p241
F0.594574
sS'NOUN'
p242
F0.00019
sS'ADJ'
p243
F0.405236
s(lp244
(g30
I2
tp245
atp246
a(g37
(dp247
S'ADV'
p248
F0.0
sS'PRT'
p249
F1.0
sS'ADP'
p250
F0.0
s(lp251
(g37
I3
tp252
atp253
a(g44
(dp254
S'VERB'
p255
F1.0
s(lp256
(g44
I4
tp257
atp258
a(g52
(dp259
S'NOUN'
p260
F0.0
sS'DET'
p261
F1.0
s(lp262
(g52
I5
tp263
atp264
a(g69
(dp265
S'NOUN'
p266
F0.007075
sS'ADJ'
p267
F0.992925
s(lp268
(g69
I6
tp269
atp270
a(g61
(dp271
S'NOUN'
p272
F1.0
s(lp273
(g61
I7
tp274
atp275
a(S'without'
p276
(dp277
S'ADP'
p278
F1.0
s(lp279
(g276
I8
tp280
atp281
a(g21
(dp282
S'NOUN'
p283
F2e-06
sS'DET'
p284
F0.999998
s(lp285
(g21
I9
tp286
atp287
a(S'internet'
p288
(dp289
S'ADJ'
p290
F0.012272
sS'VERB'
p291
F1.4000000000000001e-05
sS'NOUN'
p292
F0.987714
s(lp293
(g288
I10
tp294
atp295
a(g127
(dp296
g129
F1.0
s(lp297
(g127
I11
tp298
atp299
a(g76
(dp300
S'CONJ'
p301
F0.999998
sS'NOUN'
p302
F2e-06
s(lp303
(g76
I12
tp304
atp305
a(g83
(dp306
S'PRON'
p307
F1.0
s(lp308
(g83
I13
tp309
atp310
a(g98
(dp311
S'NOUN'
p312
F0.251176
sS'VERB'
p313
F0.243999
sS'ADJ'
p314
F0.504825
s(lp315
(g98
I14
tp316
atp317
a(g90
(dp318
S'VERB'
p319
F0.021604
sS'NOUN'
p320
F0.978396
s(lp321
(g90
I15
tp322
atp323
a(g106
(dp324
S'ADP'
p325
F1.0
s(lp326
(g106
I16
tp327
atp328
a(g115
(dp329
S'NOUN'
p330
F2e-06
sS'DET'
p331
F0.999998
s(lp332
(g115
I17
tp333
atp334
a(g124
(dp335
S'ADJ'
p336
F0.012272
sS'VERB'
p337
F1.4000000000000001e-05
sS'NOUN'
p338
F0.987714
s(lp339
(g124
I18
tp340
atp341
a(g127
(dp342
g129
F1.0
s(lp343
(g127
I19
tp344
atp345
a(g137
(dp346
S'ADV'
p347
F0.001969
sS'CONJ'
p348
F0.998031
sS'NOUN'
p349
F0.0
s(lp350
(g137
I20
tp351
atp352
a(g144
(dp353
S'NOUN'
p354
F2e-06
sS'DET'
p355
F0.999998
s(lp356
(g144
I21
tp357
atp358
a(g151
(dp359
S'ADJ'
p360
F0.002922
sS'VERB'
p361
F4e-06
sS'NOUN'
p362
F0.997074
s(lp363
(g151
I22
tp364
atp365
a(g159
(dp366
S'VERB'
p367
F1.0
s(lp368
(g159
I23
tp369
atp370
a(g167
(dp371
S'ADV'
p372
F1.0
s(lp373
(g167
I24
tp374
atp375
a(g189
(dp376
S'VERB'
p377
F0.8737229999999999
sS'ADJ'
p378
F0.126277
s(lp379
(g189
I25
tp380
atp381
a(g127
(dp382
g129
F1.0
s(lp383
(g127
I26
tp384
atp385
a(S'for'
p386
(dp387
S'ADP'
p388
F1.0
s(lp389
(g386
I27
tp390
atp391
a(g206
(dp392
S'NOUN'
p393
F1.0
s(lp394
(g206
I28
tp395
atp396
a(g181
(dp397
S'ADV'
p398
F2.2e-05
sS'NOUN'
p399
F5e-06
sS'ADP'
p400
F0.999973
s(lp401
(g181
I29
tp402
atp403
a(g221
(dp404
S'NOUN'
p405
F1.0
s(lp406
(g221
I30
tp407
atp408
a(g129
(dp409
g129
F1.0
s(lp410
(g129
I31
tp411
atp412
asS'nl'
p413
(lp414
(S'ik'
p415
(dp416
S'PRON'
p417
F0.999981
sS'NOUN'
p418
F1.9e-05
s(lp419
(g7
I0
tp420
atp421
a(S'kan'
p422
(dp423
S'VERB'
p424
F1.0
sS'NOUN'
p425
F0.0
s(lp426
(g14
I1
tp427
atp428
a(S'me'
p429
(dp430
S'PRON'
p431
F1.0
s(lp432
tp433
a(S'moeilijk'
p434
(dp435
S'ADJ'
p436
F1.0
s(lp437
(g30
I2
tp438
atp439
a(S'voorstellen'
p440
(dp441
S'VERB'
p442
F0.00739
sS'NOUN'
p443
F0.99261
s(lp444
(g44
I4
tp445
atp446
a(S'hoe'
p447
(dp448
S'ADV'
p449
F0.998367
sS'CONJ'
p450
F0.001633
s(lp451
(g52
I5
tp452
atp453
a(S'de'
p454
(dp455
S'DET'
p456
F1.0
s(lp457
(g21
I9
tp458
atp459
a(S'wereld'
p460
(dp461
S'NOUN'
p462
F1.0
s(lp463
(g61
I7
tp464
atp465
a(S'van'
p466
(dp467
S'ADP'
p468
F1.0
s(lp469
tp470
a(S'vandaag'
p471
(dp472
S'ADV'
p473
F1.0
s(lp474
(g69
I6
tp475
atp476
a(S'en'
p477
(dp478
S'CONJ'
p479
F1.0
s(lp480
(g76
I12
tp481
atp482
a(S'onze'
p483
(dp484
S'PRON'
p485
F1.0
s(lp486
(g83
I13
tp487
atp488
a(S'werkzaamheden'
p489
(dp490
S'NOUN'
p491
F1.0
s(lp492
(g98
I14
tp493
atp494
a(S'er'
p495
(dp496
S'ADV'
p497
F1.0
s(lp498
tp499
a(S'zonder'
p500
(dp501
S'CONJ'
p502
F0.000104
sS'ADP'
p503
F0.999896
s(lp504
(g106
I16
tp505
atp506
a(S'het'
p507
(dp508
S'PRON'
p509
F0.000929
sS'DET'
p510
F0.999071
s(lp511
(g115
I17
tp512
atp513
a(S'internet'
p514
(dp515
S'NOUN'
p516
F1.0
s(lp517
(g124
I18
tp518
atp519
a(S'zouden'
p520
(dp521
S'VERB'
p522
F1.0
s(lp523
(g221
I30
tp524
atp525
a(S'uitzien'
p526
(dp527
S'VERB'
p528
F0.999392
sS'NOUN'
p529
F0.000608
s(lp530
tp531
a(g129
(dp532
g129
F1.0
s(lp533
(g127
I19
tp534
atp535
a(S'het'
p536
(dp537
S'PRON'
p538
F0.01289
sS'DET'
p539
F0.98711
s(lp540
(g144
I21
tp541
atp542
a(S'internet'
p543
(dp544
S'NOUN'
p545
F1.0
s(lp546
(g151
I22
tp547
atp548
a(S'wordt'
p549
(dp550
S'VERB'
p551
F1.0
s(lp552
(g159
I23
tp553
atp554
a(S'echter'
p555
(dp556
S'ADV'
p557
F0.999993
sS'ADJ'
p558
F7e-06
s(lp559
(g137
I20
tp560
atp561
a(S'ook'
p562
(dp563
S'ADV'
p564
F1.0
s(lp565
(g167
I24
tp566
atp567
a(S'misbruikt'
p568
(dp569
S'VERB'
p570
F1.0
s(lp571
(g189
I25
tp572
atp573
a(g127
(dp574
g129
F1.0
s(lp575
(g127
I26
tp576
atp577
a(S'bijvoorbeeld'
p578
(dp579
S'ADV'
p580
F1.0
s(lp581
(g206
I28
tp582
atp583
a(S'door'
p584
(dp585
S'ADV'
p586
F8e-06
sS'CONJ'
p587
F6.4e-05
sS'ADP'
p588
F0.999929
s(lp589
(g181
I29
tp590
atp591
a(S'pedofielen'
p592
(dp593
S'NOUN'
p594
F1.0
s(lp595
(g221
I30
tp596
atp597
a(g129
(dp598
g129
F1.0
s(lp599
(g129
I31
tp600
atp601
asS'de'
p602
(lp603
(S'die'
p604
(dp605
S'PRON'
p606
F0.004888
sS'DET'
p607
F0.994789
s(lp608
(g52
I5
tp609
atp610
a(S'moderne'
p611
(dp612
S'ADJ'
p613
F1.0
s(lp614
(g69
I6
tp615
atp616
a(S'welt'
p617
(dp618
S'ADJ'
p619
F0.042878
sS'NOUN'
p620
F0.955224
s(lp621
(g61
I7
tp622
atp623
a(S'und'
p624
(dp625
S'CONJ'
p626
F1.0
s(lp627
(g76
I12
tp628
atp629
a(S'unser'
p630
(dp631
S'PRON'
p632
F1.0
s(lp633
(g83
I13
tp634
atp635
a(S'arbeitsleben'
p636
(dp637
S'ADJ'
p638
F0.034517
sS'NOUN'
p639
F0.935568
s(lp640
(g98
I14
tp641
atp642
a(S'sind'
p643
(dp644
S'VERB'
p645
F1.0
s(lp646
(g14
I1
tp647
atp648
a(S'ohne'
p649
(dp650
S'CONJ'
p651
F3e-06
sS'ADP'
p652
F0.999997
s(lp653
(g106
I16
tp654
atp655
a(S'das'
p656
(dp657
S'PRON'
p658
F0.039902
sS'DET'
p659
F0.960029
s(lp660
(g115
I17
tp661
atp662
a(S'internet'
p663
(dp664
S'NOUN'
p665
F0.958782
s(lp666
(g124
I18
tp667
atp668
a(S'schwer'
p669
(dp670
S'PRT'
p671
F0.002516
sS'ADJ'
p672
F0.997484
s(lp673
(g30
I2
tp674
atp675
a(S'vorstellbar'
p676
(dp677
S'ADJ'
p678
F1.0
s(lp679
(g44
I4
tp680
atp681
a(g127
(dp682
g129
F1.0
s(lp683
(g127
I19
tp684
atp685
a(S'aber'
p686
(dp687
S'ADV'
p688
F0.368792
sS'CONJ'
p689
F0.631208
s(lp690
(g137
I20
tp691
atp692
a(S'das'
p693
(dp694
S'PRON'
p695
F0.087976
sS'DET'
p696
F0.905948
s(lp697
(g144
I21
tp698
atp699
a(S'internet'
p700
(dp701
S'NOUN'
p702
F0.971212
s(lp703
(g151
I22
tp704
atp705
a(S'wird'
p706
(dp707
S'VERB'
p708
F1.0
s(lp709
(g159
I23
tp710
atp711
a(S'auch'
p712
(dp713
S'ADV'
p714
F1.0
s(lp715
(g167
I24
tp716
atp717
a(S'missbraucht'
p718
(dp719
S'VERB'
p720
F1.0
s(lp721
(g189
I25
tp722
atp723
a(g127
(dp724
g129
F1.0
s(lp725
(g127
I26
tp726
atp727
a(S'beispielsweise'
p728
(dp729
S'ADV'
p730
F0.99997
sS'ADJ'
p731
F3e-05
s(lp732
(g206
I28
tp733
atp734
a(S'von'
p735
(dp736
S'NOUN'
p737
F0.000191
sS'ADP'
p738
F0.999809
s(lp739
(g181
I29
tp740
atp741
a(S'p\xc3\xa4dophilen'
p742
(dp743
S'ADJ'
p744
F0.106083
sS'NOUN'
p745
F0.893917
s(lp746
(g221
I30
tp747
atp748
a(g129
(dp749
g129
F1.0
s(lp750
(g129
I31
tp751
atp752
asS'it'
p753
(lp754
(S'risulta'
p755
(dp756
S'VERB'
p757
F1.0
s(lp758
(g14
I1
tp759
atp760
a(S'difficile'
p761
(dp762
S'ADJ'
p763
F1.0
s(lp764
(g30
I2
tp765
atp766
a(S'immaginare'
p767
(dp768
S'VERB'
p769
F1.0
s(lp770
(g44
I4
tp771
atp772
a(S'il'
p773
(dp774
S'DET'
p775
F1.0
s(lp776
(g52
I5
tp777
atp778
a(S'mondo'
p779
(dp780
S'ADJ'
p781
F0.003919
sS'VERB'
p782
F4e-06
sS'NOUN'
p783
F0.996077
s(lp784
(g61
I7
tp785
atp786
a(S'contemporaneo'
p787
(dp788
S'NOUN'
p789
F0.012179
sS'ADJ'
p790
F0.987821
s(lp791
(g69
I6
tp792
atp793
a(S'senza'
p794
(dp795
S'CONJ'
p796
F0.029358
sS'ADP'
p797
F0.970642
s(lp798
(g276
I8
tp799
atp800
a(S'internet'
p801
(dp802
S'NOUN'
p803
F1.0
s(lp804
(g288
I10
tp805
atp806
a(g127
(dp807
g129
F1.0
s(lp808
(g127
I11
tp809
atp810
a(S'cos\xc3\xac'
p811
(dp812
S'ADV'
p813
F0.807529
sS'CONJ'
p814
F0.192471
s(lp815
tp816
a(S'come'
p817
(dp818
S'PRON'
p819
F0.020656
sS'CONJ'
p820
F0.483352
sS'NOUN'
p821
F3.2e-05
sS'ADP'
p822
F0.49596
s(lp823
(g76
I12
tp824
atp825
a(S'le'
p826
(dp827
S'PRON'
p828
F2.5e-05
sS'DET'
p829
F0.999975
s(lp830
tp831
a(S'nostre'
p832
(dp833
S'PRON'
p834
F1.0
s(lp835
(g83
I13
tp836
atp837
a(S'vite'
p838
(dp839
S'NOUN'
p840
F1.0
s(lp841
(g90
I15
tp842
atp843
a(S'lavorative'
p844
(dp845
S'ADJ'
p846
F1.0
s(lp847
(g98
I14
tp848
atp849
a(g127
(dp850
g129
F1.0
s(lp851
(g127
I19
tp852
atp853
a(S'ma'
p854
(dp855
S'CONJ'
p856
F0.999793
sS'NOUN'
p857
F0.000207
s(lp858
(g137
I20
tp859
atp860
a(S'di'
p861
(dp862
S'CONJ'
p863
F6.2e-05
sS'ADP'
p864
F0.999938
s(lp865
tp866
a(S'esso'
p867
(dp868
S'PRON'
p869
F1.0
s(lp870
(g144
I21
tp871
atp872
a(S'viene'
p873
(dp874
S'VERB'
p875
F1.0
s(lp876
tp877
a(S'fatto'
p878
(dp879
S'VERB'
p880
F0.981925
sS'NOUN'
p881
F0.018075
s(lp882
(g159
I23
tp883
atp884
a(S'anche'
p885
(dp886
S'ADV'
p887
F0.999988
sS'NOUN'
p888
F1.2e-05
s(lp889
(g167
I24
tp890
atp891
a(S'un'
p892
(dp893
S'PRON'
p894
F0.000669
sS'DEF'
p895
F0.999331
s(lp896
tp897
a(S'cattivo'
p898
(dp899
S'NOUN'
p900
F0.349702
sS'VERB'
p901
F5e-06
sS'ADJ'
p902
F0.650293
s(lp903
tp904
a(S'uso'
p905
(dp906
S'ADJ'
p907
F0.306811
sS'VERB'
p908
F0.000358
sS'NOUN'
p909
F0.692832
s(lp910
(g189
I25
tp911
atp912
a(g127
(dp913
g129
F1.0
s(lp914
(g127
I26
tp915
atp916
a(S'ad'
p917
(dp918
S'ADP'
p919
F1.0
s(lp920
tp921
a(S'esempio'
p922
(dp923
S'NOUN'
p924
F1.0
s(lp925
(g206
I28
tp926
atp927
a(S'da'
p928
(dp929
S'ADP'
p930
F1.0
s(lp931
(g181
I29
tp932
atp933
a(S'parte'
p934
(dp935
S'VERB'
p936
F4e-06
sS'NOUN'
p937
F0.999996
s(lp938
(g221
I30
tp939
atp940
a(S'dei'
p941
(dp942
S'NOUN'
p943
F1e-06
sS'DEF'
p944
F0.001165
sS'ADP'
p945
F0.998835
s(lp946
tp947
a(S'pedofili'
p948
(dp949
S'NOUN'
p950
F1.0
s(lp951
(g221
I30
tp952
atp953
a(g129
(dp954
g129
F1.0
s(lp955
(g129
I31
tp956
atp957
asS'sk'
p958
(lp959
(S'nie'
p960
(dp961
S'X'
p962
F1.0
s(lp963
(g7
I0
tp964
atp965
a(S'je'
p966
(dp967
S'PRON'
p968
F4.1e-05
sS'VERB'
p969
F0.999951
sg962
F9e-06
s(lp970
(g14
I1
tp971
atp972
a(S'jednoduch\xc3\xa9'
p973
(dp974
S'ADJ'
p975
F1.0
s(lp976
(g30
I2
tp977
atp978
a(S'predstavi\xc5\xa5'
p979
(dp980
S'VERB'
p981
F1.0
s(lp982
tp983
a(S'si'
p984
(dp985
S'PRT'
p986
F0.998868
sS'VERB'
p987
F0.001126
sg962
F6e-06
s(lp988
(g44
I4
tp989
atp990
a(S's\xc3\xba\xc4\x8dasn\xc3\xbd'
p991
(dp992
S'ADJ'
p993
F1.0
s(lp994
(g69
I6
tp995
atp996
a(S'svet'
p997
(dp998
S'NOUN'
p999
F1.0
s(lp1000
(g61
I7
tp1001
atp1002
a(S'ani'
p1003
(dp1004
g962
F0.352691
sS'CONJ'
p1005
F0.647309
s(lp1006
(g76
I12
tp1007
atp1008
a(S'na\xc5\xa1e'
p1009
(dp1010
S'PRON'
p1011
F0.9999840000000001
sg962
F1.6e-05
s(lp1012
(g83
I13
tp1013
atp1014
a(S'pracovn\xc3\xa9'
p1015
(dp1016
S'ADJ'
p1017
F1.0
s(lp1018
(g98
I14
tp1019
atp1020
a(S'\xc5\xbeivoty'
p1021
(dp1022
S'NOUN'
p1023
F1.0
s(lp1024
(g90
I15
tp1025
atp1026
a(S'bez'
p1027
(dp1028
g962
F1e-05
sS'ADP'
p1029
F0.99999
s(lp1030
(g106
I16
tp1031
atp1032
a(S'internetu'
p1033
(dp1034
S'NOUN'
p1035
F1.0
s(lp1036
(g124
I18
tp1037
atp1038
a(g127
(dp1039
g129
F1.0
s(lp1040
(g127
I19
tp1041
atp1042
a(S'ale'
p1043
(dp1044
g962
F0.01202
sS'CONJ'
p1045
F0.98798
s(lp1046
(g137
I20
tp1047
atp1048
a(S'na'
p1049
(dp1050
g962
F1.4999999999999999e-05
sS'CONJ'
p1051
F8e-05
sS'ADP'
p1052
F0.999901
sS'PRT'
p1053
F5e-06
s(lp1054
(g21
I9
tp1055
atp1056
a(S'druhej'
p1057
(dp1058
S'NUM'
p1059
F1.0
s(lp1060
(g288
I10
tp1061
atp1062
a(S'strane'
p1063
(dp1064
S'NOUN'
p1065
F1.0
s(lp1066
(g127
I11
tp1067
atp1068
a(g127
(dp1069
g129
F1.0
s(lp1070
tp1071
a(S'internet'
p1072
(dp1073
S'NOUN'
p1074
F1.0
s(lp1075
(g151
I22
tp1076
atp1077
a(S'sa'
p1078
(dp1079
S'PRT'
p1080
F0.999873
sS'ADP'
p1081
F7e-06
sg962
F0.00012
s(lp1082
(g159
I23
tp1083
atp1084
a(S'aj'
p1085
(dp1086
g962
F0.989187
sS'CONJ'
p1087
F0.010813
s(lp1088
(g167
I24
tp1089
atp1090
a(S'zneu\xc5\xbe\xc3\xadva'
p1091
(dp1092
S'VERB'
p1093
F1.0
s(lp1094
(g189
I25
tp1095
atp1096
a(g127
(dp1097
g129
F1.0
s(lp1098
(g127
I26
tp1099
atp1100
a(S'napr\xc3\xadklad'
p1101
(dp1102
g962
F1.0
s(lp1103
(g206
I28
tp1104
atp1105
a(S'pedofilmi'
p1106
(dp1107
S'NOUN'
p1108
F1.0
s(lp1109
(g221
I30
tp1110
atp1111
a(g129
(dp1112
g129
F1.0
s(lp1113
(g129
I31
tp1114
atp1115
asS'pl'
p1116
(lp1117
(S'trudno'
p1118
(dp1119
S'ADV'
p1120
F1.0
s(lp1121
(g30
I2
tp1122
atp1123
a(S'sobie'
p1124
(dp1125
S'PRON'
p1126
F1.0
s(lp1127
tp1128
a(S'wyobrazi\xc4\x87'
p1129
(dp1130
S'VERB'
p1131
F1.0
s(lp1132
(g44
I4
tp1133
atp1134
a(S'dzisiejszy'
p1135
(dp1136
S'ADJ'
p1137
F1.0
s(lp1138
(g69
I6
tp1139
atp1140
a(S'\xc5\x9bwiat'
p1141
(dp1142
S'NOUN'
p1143
F1.0
s(lp1144
(g61
I7
tp1145
atp1146
a(S'bez'
p1147
(dp1148
S'NOUN'
p1149
F2.6e-05
sS'ADP'
p1150
F0.999973
s(lp1151
(g276
I8
tp1152
atp1153
a(S'internetu'
p1154
(dp1155
S'NOUN'
p1156
F1.0
s(lp1157
(g288
I10
tp1158
atp1159
a(S'i'
p1160
(dp1161
S'PRT'
p1162
F0.003253
sS'CONJ'
p1163
F0.996622
sS'PRON'
p1164
F2e-06
sS'NOUN'
p1165
F0.000116
sg962
F7e-06
s(lp1166
(g76
I12
tp1167
atp1168
a(S'nasz\xc4\x85'
p1169
(dp1170
S'ADJ'
p1171
F1.0
s(lp1172
(g83
I13
tp1173
atp1174
a(S'dzisiejsz\xc4\x85'
p1175
(dp1176
S'ADJ'
p1177
F1.0
s(lp1178
(g221
I30
tp1179
atp1180
a(S'prac\xc4\x99'
p1181
(dp1182
S'NOUN'
p1183
F1.0
s(lp1184
(g98
I14
tp1185
atp1186
a(S'bez'
p1187
(dp1188
S'NOUN'
p1189
F1.9e-05
sS'ADP'
p1190
F0.9999809999999999
s(lp1191
(g106
I16
tp1192
atp1193
a(S'internetu'
p1194
(dp1195
S'NOUN'
p1196
F1.0
s(lp1197
(g124
I18
tp1198
atp1199
a(g127
(dp1200
g962
F0.0
sg129
F1.0
s(lp1201
(g127
I19
tp1202
atp1203
a(S'ale'
p1204
(dp1205
S'PRT'
p1206
F0.002892
sS'CONJ'
p1207
F0.996511
sS'NOUN'
p1208
F0.000597
s(lp1209
(g137
I20
tp1210
atp1211
a(S'te\xc5\xbc'
p1212
(dp1213
S'PRT'
p1214
F0.974633
sS'CONJ'
p1215
F0.025367
s(lp1216
(g167
I24
tp1217
atp1218
a(S'internet'
p1219
(dp1220
S'NOUN'
p1221
F1.0
s(lp1222
(g151
I22
tp1223
atp1224
a(S'jest'
p1225
(dp1226
S'VERB'
p1227
F1.0
s(lp1228
(g159
I23
tp1229
atp1230
a(S'instrumentem'
p1231
(dp1232
S'NOUN'
p1233
F1.0
s(lp1234
(g221
I30
tp1235
atp1236
a(S'wykorzystywanym'
p1237
(dp1238
S'VERB'
p1239
F1.0
s(lp1240
tp1241
a(g127
(dp1242
g962
F1e-06
sg129
F0.999999
s(lp1243
(g127
I26
tp1244
atp1245
a(S'na'
p1246
(dp1247
g962
F5.2e-05
sS'VERB'
p1248
F2.7000000000000002e-05
sS'NOUN'
p1249
F1e-06
sS'ADP'
p1250
F0.999907
sS'PRT'
p1251
F1.2e-05
s(lp1252
(g386
I27
tp1253
atp1254
a(S'przyk\xc5\x82ad'
p1255
(dp1256
S'NOUN'
p1257
F1.0
s(lp1258
(g206
I28
tp1259
atp1260
a(S'przez'
p1261
(dp1262
S'ADP'
p1263
F1.0
s(lp1264
(g181
I29
tp1265
atp1266
a(S'pedofil\xc3\xb3w'
p1267
(dp1268
S'ADV'
p1269
F0.000384
sS'ADJ'
p1270
F0.005306000000000001
sS'VERB'
p1271
F5e-06
sS'NOUN'
p1272
F0.9943049999999999
s(lp1273
(g221
I30
tp1274
atp1275
a(g129
(dp1276
g129
F1.0
s(lp1277
(g129
I31
tp1278
atp1279
asS'sl'
p1280
(lp1281
(S'sodoben'
p1282
(dp1283
S'ADJ'
p1284
F1.0
s(lp1285
(g69
I6
tp1286
atp1287
a(S'svet'
p1288
(dp1289
S'NOUN'
p1290
F1.0
s(lp1291
(g61
I7
tp1292
atp1293
a(S'si'
p1294
(dp1295
S'PRON'
p1296
F0.972191
sS'VERB'
p1297
F0.027809
s(lp1298
tp1299
a(S'je'
p1300
(dp1301
S'PRON'
p1302
F0.001176
sS'VERB'
p1303
F0.998824
sg962
F1e-06
s(lp1304
(g14
I1
tp1305
atp1306
a(S'te\xc5\xbeko'
p1307
(dp1308
S'ADV'
p1309
F0.28744
sS'ADJ'
p1310
F0.7125600000000001
s(lp1311
(g30
I2
tp1312
atp1313
a(S'zamisliti'
p1314
(dp1315
S'VERB'
p1316
F1.0
s(lp1317
(g44
I4
tp1318
atp1319
a(S'brez'
p1320
(dp1321
S'ADP'
p1322
F1.0
s(lp1323
(g276
I8
tp1324
atp1325
a(S'interneta'
p1326
(dp1327
S'NOUN'
p1328
F1.0
s(lp1329
(g288
I10
tp1330
atp1331
a(g127
(dp1332
g129
F1.0
s(lp1333
(g127
I11
tp1334
atp1335
a(S'prav'
p1336
(dp1337
S'ADV'
p1338
F0.130369
sS'PRT'
p1339
F0.867547
sS'VERB'
p1340
F0.002084
s(lp1341
(g76
I12
tp1342
atp1343
a(S'tako'
p1344
(dp1345
S'ADV'
p1346
F0.82811
sS'PRON'
p1347
F0.123168
sS'CONJ'
p1348
F0.04872
s(lp1349
tp1350
a(S'na\xc5\xa1a'
p1351
(dp1352
S'PRON'
p1353
F0.9999999999999999
s(lp1354
(g83
I13
tp1355
atp1356
a(S'delovna'
p1357
(dp1358
S'ADJ'
p1359
F1.0
s(lp1360
(g98
I14
tp1361
atp1362
a(S'\xc5\xbeivljenja'
p1363
(dp1364
S'NOUN'
p1365
F1.0
s(lp1366
(g90
I15
tp1367
atp1368
a(g127
(dp1369
g129
F1.0
s(lp1370
(g127
I19
tp1371
atp1372
a(S'vendar'
p1373
(dp1374
S'ADV'
p1375
F0.004878
sS'CONJ'
p1376
F0.995122
s(lp1377
(g137
I20
tp1378
atp1379
a(S'se'
p1380
(dp1381
S'PRON'
p1382
F0.999969
sg962
F3.1e-05
s(lp1383
(g159
I23
tp1384
atp1385
a(S'internet'
p1386
(dp1387
S'NOUN'
p1388
F1.0
s(lp1389
(g151
I22
tp1390
atp1391
a(S'tudi'
p1392
(dp1393
S'PRT'
p1394
F1.0
s(lp1395
(g167
I24
tp1396
atp1397
a(S'zlorablja'
p1398
(dp1399
S'VERB'
p1400
F1.0
s(lp1401
(g189
I25
tp1402
atp1403
a(g127
(dp1404
g129
F1.0
s(lp1405
(g127
I26
tp1406
atp1407
a(S'to'
p1408
(dp1409
S'PRON'
p1410
F0.999815
sg962
F0.000186
s(lp1411
(g7
I0
tp1412
atp1413
a(S'po\xc4\x8dnejo'
p1414
(dp1415
S'VERB'
p1416
F1.0
s(lp1417
tp1418
a(S'na'
p1419
(dp1420
S'ADP'
p1421
F1.0
s(lp1422
tp1423
a(S'primer'
p1424
(dp1425
S'NOUN'
p1426
F1.0
s(lp1427
(g206
I28
tp1428
atp1429
a(S'pedofili'
p1430
(dp1431
S'ADV'
p1432
F0.000289
sS'ADJ'
p1433
F0.000271
sS'VERB'
p1434
F0.961622
sS'NOUN'
p1435
F0.037815999999999995
s(lp1436
(g221
I30
tp1437
atp1438
a(g129
(dp1439
g129
F1.0
s(lp1440
(g129
I31
tp1441
atp1442
asS'es'
p1443
(lp1444
(S'no'
p1445
(dp1446
S'ADV'
p1447
F0.999243
sg962
F0.000757
s(lp1448
(g7
I0
tp1449
atp1450
a(S'resulta'
p1451
(dp1452
S'VERB'
p1453
F1.0
s(lp1454
(g14
I1
tp1455
atp1456
a(S'f\xc3\xa1cil'
p1457
(dp1458
S'ADJ'
p1459
F1.0
s(lp1460
(g30
I2
tp1461
atp1462
a(S'imaginar'
p1463
(dp1464
S'VERB'
p1465
F1.0
s(lp1466
(g44
I4
tp1467
atp1468
a(S'el'
p1469
(dp1470
S'PRON'
p1471
F0.0
sS'DET'
p1472
F1.0
s(lp1473
(g52
I5
tp1474
atp1475
a(S'mundo'
p1476
(dp1477
S'NOUN'
p1478
F1.0
s(lp1479
(g61
I7
tp1480
atp1481
a(S'moderno'
p1482
(dp1483
S'ADJ'
p1484
F1.0
s(lp1485
(g69
I6
tp1486
atp1487
a(S'sin'
p1488
(dp1489
S'ADP'
p1490
F1.0
s(lp1491
(g276
I8
tp1492
atp1493
a(S'internet'
p1494
(dp1495
S'NOUN'
p1496
F1.0
s(lp1497
(g288
I10
tp1498
atp1499
a(g127
(dp1500
g129
F1.0
s(lp1501
(g127
I11
tp1502
atp1503
a(S'o'
p1504
(dp1505
g962
F0.000969
sS'CONJ'
p1506
F0.999031
s(lp1507
(g76
I12
tp1508
atp1509
a(S'nuestra'
p1510
(dp1511
S'PRON'
p1512
F0.306398
sS'ADJ'
p1513
F0.693602
s(lp1514
(g83
I13
tp1515
atp1516
a(S'vida'
p1517
(dp1518
S'NOUN'
p1519
F1.0
s(lp1520
(g90
I15
tp1521
atp1522
a(S'laboral'
p1523
(dp1524
S'ADJ'
p1525
F1.0
s(lp1526
(g98
I14
tp1527
atp1528
a(S'sin'
p1529
(dp1530
S'ADP'
p1531
F1.0
s(lp1532
(g106
I16
tp1533
atp1534
a(S'internet'
p1535
(dp1536
S'NOUN'
p1537
F1.0
s(lp1538
(g124
I18
tp1539
atp1540
a(g127
(dp1541
g129
F1.0
s(lp1542
(g127
I19
tp1543
atp1544
a(S'pero'
p1545
(dp1546
S'CONJ'
p1547
F0.999918
sS'NOUN'
p1548
F8.2e-05
s(lp1549
(g137
I20
tp1550
atp1551
a(S'tambi\xc3\xa9n'
p1552
(dp1553
S'ADV'
p1554
F1.0
s(lp1555
(g167
I24
tp1556
atp1557
a(S'se'
p1558
(dp1559
S'PRON'
p1560
F1.0
sS'VERB'
p1561
F0.0
s(lp1562
(g159
I23
tp1563
atp1564
a(S'comenten'
p1565
(dp1566
S'VERB'
p1567
F1.0
s(lp1568
tp1569
a(S'abusos'
p1570
(dp1571
S'NOUN'
p1572
F1.0
s(lp1573
(g189
I25
tp1574
atp1575
a(S'en'
p1576
(dp1577
g962
F1.8e-05
sS'CONJ'
p1578
F1e-05
sS'ADP'
p1579
F0.999972
s(lp1580
tp1581
a(S'internet'
p1582
(dp1583
S'NOUN'
p1584
F1.0
s(lp1585
(g151
I22
tp1586
atp1587
a(g127
(dp1588
g129
F1.0
s(lp1589
(g127
I26
tp1590
atp1591
a(S'como'
p1592
(dp1593
S'ADV'
p1594
F0.196767
sS'CONJ'
p1595
F0.803233
s(lp1596
(g181
I29
tp1597
atp1598
a(S'hacen'
p1599
(dp1600
S'VERB'
p1601
F1.0
s(lp1602
(g221
I30
tp1603
atp1604
a(S'por'
p1605
(dp1606
S'ADV'
p1607
F1.0
s(lp1608
(g386
I27
tp1609
atp1610
a(S'ejemplo'
p1611
(dp1612
S'ADV'
p1613
F1.0
s(lp1614
(g206
I28
tp1615
atp1616
a(S'los'
p1617
(dp1618
S'PRON'
p1619
F0.000642
sS'DET'
p1620
F0.999358
s(lp1621
tp1622
a(S'ped\xc3\xb3filos'
p1623
(dp1624
S'ADJ'
p1625
F0.001894
sS'VERB'
p1626
F0.0004
sS'NOUN'
p1627
F0.997707
s(lp1628
(g221
I30
tp1629
atp1630
a(g129
(dp1631
g129
F1.0
s(lp1632
(g129
I31
tp1633
atp1634
as.