(dp0
S'fr'
p1
(lp2
(S'le'
p3
(dp4
S'PRON'
p5
F0.000438
sS'DET'
p6
F0.999562
s(lp7
(S'the'
p8
I0
tp9
atp10
a(S'bert'
p11
(dp12
S'NOUN'
p13
F1.0
s(lp14
(S'bert'
p15
I1
tp16
atp17
a(S'doit'
p18
(dp19
S'VERB'
p20
F0.99993
sS'NOUN'
p21
F7e-05
s(lp22
(S'should'
p23
I2
tp24
atp25
a(S'\xc3\xaatre'
p26
(dp27
S'VERB'
p28
F0.996626
sS'NOUN'
p29
F0.003374
s(lp30
(S'be'
p31
I3
tp32
atp33
a(S'ouvert'
p34
(dp35
S'VERB'
p36
F0.987692
sS'ADJ'
p37
F0.012308
s(lp38
(S'open'
p39
I4
tp40
atp41
a(S'aux'
p42
(dp43
S'ADP'
p44
F1.0
s(lp45
(S'to'
p46
I5
tp47
atp48
a(S'contacts'
p49
(dp50
S'NOUN'
p51
F1.0
s(lp52
(S'contacts'
p53
I6
tp54
atp55
a(S'non'
p56
(dp57
S'ADV'
p58
F0.999998
sS'X'
p59
F2e-06
s(lp60
(S'not'
p61
I7
tp62
atp63
a(S'seulement'
p64
(dp65
S'ADV'
p66
F1.0
s(lp67
(S'only'
p68
I8
tp69
atp70
a(S'avec'
p71
(dp72
S'ADV'
p73
F0.108172
sS'ADP'
p74
F0.891828
s(lp75
(S'with'
p76
I9
tp77
atp78
a(S"l'"
p79
(dp80
S'ADJ'
p81
F0.165632
sS'VERB'
p82
F0.139639
sS'NOUN'
p83
F0.69473
s(lp84
tp85
a(S'industrie'
p86
(dp87
S'NOUN'
p88
F1.0
s(lp89
(S'industry'
p90
I10
tp91
atp92
a(S'et'
p93
(dp94
S'CONJ'
p95
F1.0
s(lp96
(S'and'
p97
I11
tp98
atp99
a(S'avec'
p100
(dp101
S'ADV'
p102
F0.023088
sS'ADP'
p103
F0.976912
s(lp104
(S'as'
p105
I21
tp106
atp107
a(S'les'
p108
(dp109
S'PRON'
p110
F5.7e-05
sS'DET'
p111
F0.99994
sS'ADP'
p112
F2e-06
s(lp113
(S'the'
p114
I12
tp115
atp116
a(S'associations'
p117
(dp118
S'NOUN'
p119
F1.0
s(lp120
(S'groups'
p121
I14
tp122
atp123
a(S'de'
p124
(dp125
S'ADP'
p126
F1.0
s(lp127
(S'consumer'
p128
I13
tp129
atp130
a(S'consommateurs'
p131
(dp132
S'NOUN'
p133
F1.0
s(lp134
tp135
a(S','
p136
(dp137
S'.'
p138
F1.0
s(lp139
(g136
I15
tp140
atp141
a(S'mais'
p142
(dp143
S'CONJ'
p144
F1.0
s(lp145
(S'but'
p146
I16
tp147
atp148
a(S'\xc3\xa9galement'
p149
(dp150
S'ADV'
p151
F1.0
s(lp152
(S'well'
p153
I22
tp154
atp155
a(S'avec'
p156
(dp157
S'ADV'
p158
F0.018276
sS'ADP'
p159
F0.981724
s(lp160
(S'with'
p161
I17
tp162
atp163
a(S'les'
p164
(dp165
S'PRON'
p166
F0.000352
sS'DET'
p167
F0.999646
sS'ADP'
p168
F2e-06
s(lp169
(g128
I13
tp170
atp171
a(S'groupes'
p172
(dp173
S'VERB'
p174
F0.00031800000000000003
sS'NOUN'
p175
F0.999682
s(lp176
(S'groups'
p177
I20
tp178
atp179
a(S"d'"
p180
(dp181
S'NOUN'
p182
F0.032459
sS'VERB'
p183
F0.694049
sS'ADJ'
p184
F0.273493
s(lp185
tp186
a(S'int\xc3\xa9r\xc3\xaats'
p187
(dp188
S'NOUN'
p189
F1.0
s(lp190
(S'interest'
p191
I19
tp192
atp193
a(S'culturels'
p194
(dp195
S'ADJ'
p196
F1.0
s(lp197
(S'culture'
p198
I18
tp199
atp200
a(g136
(dp201
g138
F1.0
s(lp202
(g136
I23
tp203
atp204
a(S'\xc3\xa9tant'
p205
(dp206
S'VERB'
p207
F0.997958
sS'NOUN'
p208
F0.002042
s(lp209
(S'as'
p210
I24
tp211
atp212
a(S'donn\xc3\xa9'
p213
(dp214
S'NOUN'
p215
F0.036674
sS'VERB'
p216
F0.848602
sS'ADJ'
p217
F0.114724
s(lp218
(g210
I24
tp219
atp220
a(S'que'
p221
(dp222
S'ADV'
p223
F0.015956
sS'PRON'
p224
F0.007982
sS'CONJ'
p225
F0.976062
s(lp226
tp227
a(S'ceux-ci'
p228
(dp229
S'PRON'
p230
F1.0
s(lp231
tp232
a(S'sont'
p233
(dp234
S'VERB'
p235
F1.0
s(lp236
(S'they'
p237
I25
tp238
atp239
a(S'en'
p240
(dp241
S'PRON'
p242
F0.029818
sS'ADP'
p243
F0.970182
s(lp244
(g210
I24
tp245
atp246
a(S'mesure'
p247
(dp248
S'VERB'
p249
F0.029039
sS'NOUN'
p250
F0.970961
s(lp251
(S'can'
p252
I26
tp253
atp254
a(S'de'
p255
(dp256
S'ADP'
p257
F1.0
s(lp258
tp259
a(S'fournir'
p260
(dp261
S'VERB'
p262
F1.0
s(lp263
(S'provide'
p264
I27
tp265
atp266
a(S'des'
p267
(dp268
S'DET'
p269
F0.000198
sS'ADP'
p270
F0.999802
s(lp271
tp272
a(S'informations'
p273
(dp274
S'NOUN'
p275
F1.0
s(lp276
tp277
a(S'utiles'
p278
(dp279
S'NOUN'
p280
F0.009609
sS'ADJ'
p281
F0.990391
s(lp282
(S'useful'
p283
I28
tp284
atp285
a(S'et'
p286
(dp287
S'CONJ'
p288
F1.0
s(lp289
(S'and'
p290
I29
tp291
atp292
a(S'fiables'
p293
(dp294
S'ADJ'
p295
F1.0
s(lp296
(S'reliable'
p297
I30
tp298
atp299
a(S'sur'
p300
(dp301
S'ADP'
p302
F1.0
s(lp303
(S'on'
p304
I32
tp305
atp306
a(S'les'
p307
(dp308
S'PRON'
p309
F5.6e-05
sS'DET'
p310
F0.999943
sS'ADP'
p311
F2e-06
s(lp312
(S'information'
p313
I31
tp314
atp315
a(S'aspects'
p316
(dp317
S'NOUN'
p318
F1.0
s(lp319
(S'aspects'
p320
I34
tp321
atp322
a(S'culturels'
p323
(dp324
S'ADJ'
p325
F1.0
s(lp326
(S'cultural'
p327
I33
tp328
atp329
a(g138
(dp330
g138
F1.0
s(lp331
(g138
I35
tp332
atp333
asS'en'
p334
(lp335
(g8
(dp336
S'NOUN'
p337
F2.5e-05
sS'DET'
p338
F0.999975
s(lp339
(g8
I0
tp340
atp341
a(g15
(dp342
S'ADV'
p343
F0.000131
sS'ADJ'
p344
F0.004827
sS'VERB'
p345
F7.8e-05
sS'NOUN'
p346
F0.994963
s(lp347
(g15
I1
tp348
atp349
a(g23
(dp350
S'VERB'
p351
F1.0
s(lp352
(g23
I2
tp353
atp354
a(g31
(dp355
S'VERB'
p356
F1.0
s(lp357
(g31
I3
tp358
atp359
a(g39
(dp360
S'ADV'
p361
F0.060459
sS'PRT'
p362
F0.008344
sS'VERB'
p363
F0.039901
sS'ADJ'
p364
F0.889072
sS'NOUN'
p365
F0.002225
s(lp366
(g39
I4
tp367
atp368
a(g46
(dp369
S'ADV'
p370
F0.0
sS'PRT'
p371
F0.999994
sS'ADP'
p372
F6e-06
s(lp373
(g46
I5
tp374
atp375
a(g53
(dp376
S'VERB'
p377
F1e-06
sS'NOUN'
p378
F0.999999
s(lp379
(g53
I6
tp380
atp381
a(g61
(dp382
S'ADV'
p383
F1.0
s(lp384
(g61
I7
tp385
atp386
a(g68
(dp387
S'ADV'
p388
F0.969132
sS'NOUN'
p389
F2e-05
sS'ADJ'
p390
F0.030848
s(lp391
(g68
I8
tp392
atp393
a(g76
(dp394
S'ADP'
p395
F1.0
s(lp396
(g76
I9
tp397
atp398
a(g90
(dp399
S'NOUN'
p400
F1.0
s(lp401
(g90
I10
tp402
atp403
a(g97
(dp404
S'CONJ'
p405
F1.0
sS'NOUN'
p406
F0.0
s(lp407
(g97
I11
tp408
atp409
a(g114
(dp410
S'NOUN'
p411
F2e-06
sS'DET'
p412
F0.999998
s(lp413
(g114
I12
tp414
atp415
a(g128
(dp416
S'NOUN'
p417
F1.0
s(lp418
(g128
I13
tp419
atp420
a(g121
(dp421
S'VERB'
p422
F0.000233
sS'NOUN'
p423
F0.999767
s(lp424
(g121
I14
tp425
atp426
a(g136
(dp427
g138
F1.0
s(lp428
(g136
I15
tp429
atp430
a(g146
(dp431
S'ADV'
p432
F0.009284
sS'CONJ'
p433
F0.990709
sS'NOUN'
p434
F7e-06
s(lp435
(g146
I16
tp436
atp437
a(g161
(dp438
S'ADP'
p439
F1.0
s(lp440
(g161
I17
tp441
atp442
a(g198
(dp443
S'VERB'
p444
F2.7e-05
sS'NOUN'
p445
F0.999973
s(lp446
(g198
I18
tp447
atp448
a(g191
(dp449
S'VERB'
p450
F6.6e-05
sS'NOUN'
p451
F0.999934
s(lp452
(g191
I19
tp453
atp454
a(g177
(dp455
S'VERB'
p456
F0.00073
sS'NOUN'
p457
F0.99927
s(lp458
(g177
I20
tp459
atp460
a(g105
(dp461
S'ADV'
p462
F0.210602
sS'ADP'
p463
F0.789398
s(lp464
(g105
I21
tp465
atp466
a(g153
(dp467
S'ADV'
p468
F0.975668
sg59
F7e-06
sS'VERB'
p469
F1.9e-05
sS'NOUN'
p470
F0.024306
s(lp471
(g153
I22
tp472
atp473
a(g136
(dp474
g138
F1.0
s(lp475
(g136
I23
tp476
atp477
a(g210
(dp478
S'ADV'
p479
F0.222032
sS'ADP'
p480
F0.777968
s(lp481
(g210
I24
tp482
atp483
a(g237
(dp484
S'PRON'
p485
F1.0
s(lp486
(g237
I25
tp487
atp488
a(g252
(dp489
S'VERB'
p490
F1.0
sS'NOUN'
p491
F0.0
s(lp492
(g252
I26
tp493
atp494
a(g264
(dp495
S'VERB'
p496
F1.0
s(lp497
(g264
I27
tp498
atp499
a(g283
(dp500
S'ADJ'
p501
F1.0
s(lp502
(g283
I28
tp503
atp504
a(g290
(dp505
S'CONJ'
p506
F0.999998
sS'NOUN'
p507
F2e-06
s(lp508
(g290
I29
tp509
atp510
a(g297
(dp511
S'ADJ'
p512
F1.0
s(lp513
(g297
I30
tp514
atp515
a(g313
(dp516
S'NOUN'
p517
F1.0
s(lp518
(g313
I31
tp519
atp520
a(g304
(dp521
S'ADV'
p522
F0.001649
sS'PRT'
p523
F0.000484
sS'ADJ'
p524
F1e-06
sS'ADP'
p525
F0.997866
sS'NOUN'
p526
F0.0
s(lp527
(g304
I32
tp528
atp529
a(g327
(dp530
S'ADJ'
p531
F1.0
s(lp532
(g327
I33
tp533
atp534
a(g320
(dp535
S'NOUN'
p536
F1.0
s(lp537
(g320
I34
tp538
atp539
a(g138
(dp540
g138
F1.0
s(lp541
(g138
I35
tp542
atp543
asS'nl'
p544
(lp545
(S'bert'
p546
(dp547
S'ADV'
p548
F0.005242
sS'ADJ'
p549
F0.058142
sS'NOUN'
p550
F0.936616
s(lp551
(g15
I1
tp552
atp553
a(S'dient'
p554
(dp555
S'VERB'
p556
F1.0
s(lp557
(g23
I2
tp558
atp559
a(S'niet'
p560
(dp561
S'ADV'
p562
F1.0
sS'PRON'
p563
F0.0
sS'VERB'
p564
F0.0
sg59
F0.0
s(lp565
(g61
I7
tp566
atp567
a(S'alleen'
p568
(dp569
S'ADV'
p570
F0.99228
sS'ADJ'
p571
F0.00772
s(lp572
(g68
I8
tp573
atp574
a(S'open'
p575
(dp576
S'VERB'
p577
F0.325356
sS'ADJ'
p578
F0.674644
s(lp579
(g39
I4
tp580
atp581
a(S'te'
p582
(dp583
S'PRT'
p584
F1.0
s(lp585
tp586
a(S'staan'
p587
(dp588
S'VERB'
p589
F1.0
sS'NOUN'
p590
F0.0
s(lp591
(g31
I3
tp592
atp593
a(S'voor'
p594
(dp595
S'ADV'
p596
F0.000506
sS'CONJ'
p597
F2.9e-05
sS'NOUN'
p598
F0.0
sS'ADP'
p599
F0.999465
s(lp600
(g46
I5
tp601
atp602
a(S'contacten'
p603
(dp604
S'NOUN'
p605
F1.0
s(lp606
(g53
I6
tp607
atp608
a(S'met'
p609
(dp610
S'ADP'
p611
F1.0
s(lp612
(g76
I9
tp613
atp614
a(S'het'
p615
(dp616
S'PRON'
p617
F0.000927
sS'DET'
p618
F0.999073
s(lp619
(g114
I12
tp620
atp621
a(S'bedrijfsleven'
p622
(dp623
S'NOUN'
p624
F1.0
s(lp625
(g90
I10
tp626
atp627
a(S'en'
p628
(dp629
S'CONJ'
p630
F1.0
s(lp631
(g97
I11
tp632
atp633
a(S'consumentengroepen'
p634
(dp635
S'NOUN'
p636
F1.0
s(lp637
(g128
I13
tp638
atp639
a(g136
(dp640
g138
F1.0
s(lp641
(g136
I15
tp642
atp643
a(S'maar'
p644
(dp645
S'ADV'
p646
F0.126721
sS'CONJ'
p647
F0.873271
sS'NOUN'
p648
F8e-06
s(lp649
(g146
I16
tp650
atp651
a(S'ook'
p652
(dp653
S'ADV'
p654
F1.0
s(lp655
(g153
I22
tp656
atp657
a(S'met'
p658
(dp659
S'ADP'
p660
F1.0
s(lp661
(g161
I17
tp662
atp663
a(S'culturele'
p664
(dp665
S'NOUN'
p666
F7e-06
sS'ADJ'
p667
F0.999993
s(lp668
(g198
I18
tp669
atp670
a(S'belangengroepen'
p671
(dp672
S'NOUN'
p673
F1.0
s(lp674
(g191
I19
tp675
atp676
a(g136
(dp677
g138
F1.0
s(lp678
(g136
I23
tp679
atp680
a(S'aangezien'
p681
(dp682
S'CONJ'
p683
F0.99922
sS'VERB'
p684
F0.00078
s(lp685
(g210
I24
tp686
atp687
a(S'deze'
p688
(dp689
S'PRON'
p690
F1.0
s(lp691
tp692
a(S'nuttige'
p693
(dp694
S'NOUN'
p695
F0.026964
sS'ADJ'
p696
F0.973036
s(lp697
(g283
I28
tp698
atp699
a(S'en'
p700
(dp701
S'CONJ'
p702
F1.0
s(lp703
(g290
I29
tp704
atp705
a(S'betrouwbare'
p706
(dp707
S'NOUN'
p708
F0.001834
sS'ADJ'
p709
F0.998166
s(lp710
(g297
I30
tp711
atp712
a(S'informatie'
p713
(dp714
S'NOUN'
p715
F1.0
s(lp716
(g313
I31
tp717
atp718
a(S'kunnen'
p719
(dp720
S'VERB'
p721
F0.999994
sS'NOUN'
p722
F6e-06
s(lp723
(g252
I26
tp724
atp725
a(S'leveren'
p726
(dp727
S'VERB'
p728
F0.9998689999999999
sS'NOUN'
p729
F0.000131
s(lp730
(g264
I27
tp731
atp732
a(S'over'
p733
(dp734
S'ADV'
p735
F0.003513
sS'ADP'
p736
F0.996487
s(lp737
(g304
I32
tp738
atp739
a(S'de'
p740
(dp741
S'DET'
p742
F1.0
s(lp743
tp744
a(S'culturele'
p745
(dp746
S'NOUN'
p747
F5e-06
sS'ADJ'
p748
F0.999995
s(lp749
(g327
I33
tp750
atp751
a(S'aspecten'
p752
(dp753
S'NOUN'
p754
F1.0
s(lp755
tp756
a(S'van'
p757
(dp758
S'ADP'
p759
F1.0
s(lp760
tp761
a(S'het'
p762
(dp763
S'PRON'
p764
F0.0012850000000000001
sS'DET'
p765
F0.998715
s(lp766
(g237
I25
tp767
atp768
a(S'geheel'
p769
(dp770
S'ADJ'
p771
F0.073239
sS'NOUN'
p772
F0.926761
s(lp773
(g320
I34
tp774
atp775
a(g138
(dp776
g138
F1.0
s(lp777
(g138
I35
tp778
atp779
asS'de'
p780
(lp781
(S'das'
p782
(dp783
S'PRON'
p784
F0.711017
sS'DET'
p785
F0.288245
s(lp786
(g8
I0
tp787
atp788
a(S'bert'
p789
(dp790
S'VERB'
p791
F0.655524
sS'NOUN'
p792
F0.23605
s(lp793
(g15
I1
tp794
atp795
a(S'sollte'
p796
(dp797
S'VERB'
p798
F1.0
s(lp799
(g23
I2
tp800
atp801
a(S'f\xc3\xbcr'
p802
(dp803
S'ADP'
p804
F1.0
s(lp805
(g46
I5
tp806
atp807
a(S'kontakte'
p808
(dp809
S'ADJ'
p810
F0.009617
sS'NOUN'
p811
F0.989451
s(lp812
(g53
I6
tp813
atp814
a(S'nicht'
p815
(dp816
S'PRT'
p817
F1.0
s(lp818
(g61
I7
tp819
atp820
a(S'nur'
p821
(dp822
S'ADV'
p823
F1.0
s(lp824
(g68
I8
tp825
atp826
a(S'mit'
p827
(dp828
S'PRT'
p829
F0.000222
sS'ADP'
p830
F0.999778
s(lp831
(g76
I9
tp832
atp833
a(S'der'
p834
(dp835
S'PRON'
p836
F8.8e-05
sS'DET'
p837
F0.999898
s(lp838
(g114
I12
tp839
atp840
a(S'branche'
p841
(dp842
g59
F0.230947
sS'NOUN'
p843
F0.576919
s(lp844
(g90
I10
tp845
atp846
a(S'und'
p847
(dp848
S'CONJ'
p849
F1.0
s(lp850
(g97
I11
tp851
atp852
a(S'verbrauchergruppen'
p853
(dp854
S'VERB'
p855
F0.056243
sS'NOUN'
p856
F0.936211
s(lp857
(g128
I13
tp858
atp859
a(g136
(dp860
g138
F1.0
s(lp861
(g136
I15
tp862
atp863
a(S'sondern'
p864
(dp865
S'CONJ'
p866
F0.999205
sS'VERB'
p867
F0.000795
s(lp868
(g146
I16
tp869
atp870
a(S'auch'
p871
(dp872
S'ADV'
p873
F1.0
s(lp874
(g153
I22
tp875
atp876
a(S'mit'
p877
(dp878
S'PRT'
p879
F0.000447
sS'ADP'
p880
F0.999553
s(lp881
(g161
I17
tp882
atp883
a(S'kulturellen'
p884
(dp885
S'ADJ'
p886
F1.0
s(lp887
(g198
I18
tp888
atp889
a(S'interessengruppen'
p890
(dp891
S'VERB'
p892
F3e-05
sS'NOUN'
p893
F0.999913
s(lp894
(g177
I20
tp895
atp896
a(S'offen'
p897
(dp898
S'PRT'
p899
F0.001369
sS'ADJ'
p900
F0.998631
s(lp901
(g39
I4
tp902
atp903
a(S'stehen'
p904
(dp905
S'VERB'
p906
F1.0
s(lp907
(g31
I3
tp908
atp909
a(g136
(dp910
g138
F1.0
s(lp911
(g136
I23
tp912
atp913
a(S'da'
p914
(dp915
S'ADV'
p916
F0.034133
sS'CONJ'
p917
F0.965852
s(lp918
(g210
I24
tp919
atp920
a(S'diese'
p921
(dp922
S'PRON'
p923
F1.0
s(lp924
(g237
I25
tp925
atp926
a(S'n\xc3\xbctzliche'
p927
(dp928
S'ADJ'
p929
F1.0
s(lp930
(g283
I28
tp931
atp932
a(S'und'
p933
(dp934
S'CONJ'
p935
F1.0
s(lp936
(g290
I29
tp937
atp938
a(S'zuverl\xc3\xa4ssige'
p939
(dp940
S'ADJ'
p941
F1.0
s(lp942
(g297
I30
tp943
atp944
a(S'informationen'
p945
(dp946
S'ADJ'
p947
F0.001464
sS'NOUN'
p948
F0.996019
s(lp949
(g313
I31
tp950
atp951
a(S'zu'
p952
(dp953
S'PRT'
p954
F0.449765
sS'ADP'
p955
F0.52612
s(lp956
(g304
I32
tp957
atp958
a(S'kulturellen'
p959
(dp960
S'ADJ'
p961
F1.0
s(lp962
(g327
I33
tp963
atp964
a(S'aspekten'
p965
(dp966
S'ADJ'
p967
F0.00053
sS'NOUN'
p968
F0.99945
s(lp969
(g320
I34
tp970
atp971
a(S'bereitstellen'
p972
(dp973
S'VERB'
p974
F1.0
s(lp975
(g264
I27
tp976
atp977
a(S'k\xc3\xb6nnen'
p978
(dp979
S'VERB'
p980
F0.99992
s(lp981
(g252
I26
tp982
atp983
a(g138
(dp984
g138
F1.0
s(lp985
(g138
I35
tp986
atp987
asS'it'
p988
(lp989
(S'il'
p990
(dp991
S'DET'
p992
F1.0
s(lp993
(g8
I0
tp994
atp995
a(S'bert'
p996
(dp997
S'ADJ'
p998
F4.3e-05
sS'VERB'
p999
F0.0
sS'NOUN'
p1000
F0.999956
s(lp1001
(g15
I1
tp1002
atp1003
a(S'dovrebbe'
p1004
(dp1005
S'VERB'
p1006
F1.0
s(lp1007
(g23
I2
tp1008
atp1009
a(S'essere'
p1010
(dp1011
S'VERB'
p1012
F0.999993
sS'NOUN'
p1013
F7e-06
s(lp1014
(g31
I3
tp1015
atp1016
a(S'aperto'
p1017
(dp1018
S'VERB'
p1019
F0.9954
sS'ADJ'
p1020
F0.0046
s(lp1021
(g39
I4
tp1022
atp1023
a(S'ai'
p1024
(dp1025
S'NOUN'
p1026
F4e-06
sS'ADP'
p1027
F0.999996
s(lp1028
(g46
I5
tp1029
atp1030
a(S'contatti'
p1031
(dp1032
S'VERB'
p1033
F2.6e-05
sS'NOUN'
p1034
F0.999974
s(lp1035
(g53
I6
tp1036
atp1037
a(S'non'
p1038
(dp1039
S'ADV'
p1040
F1.0
s(lp1041
(g61
I7
tp1042
atp1043
a(S'solo'
p1044
(dp1045
S'ADV'
p1046
F0.704439
sS'NOUN'
p1047
F0.001206
sS'VERB'
p1048
F0.001337
sS'ADJ'
p1049
F0.293017
s(lp1050
(g68
I8
tp1051
atp1052
a(S'con'
p1053
(dp1054
S'ADP'
p1055
F1.0
s(lp1056
(g76
I9
tp1057
atp1058
a(S"l'"
p1059
(dp1060
S'NOUN'
p1061
F0.010333
sS'VERB'
p1062
F0.964772
sS'ADJ'
p1063
F0.024895
s(lp1064
tp1065
a(S'industria'
p1066
(dp1067
S'VERB'
p1068
F0.005272
sS'NOUN'
p1069
F0.994728
s(lp1070
(g90
I10
tp1071
atp1072
a(S'e'
p1073
(dp1074
S'CONJ'
p1075
F1.0
s(lp1076
(g97
I11
tp1077
atp1078
a(S'i'
p1079
(dp1080
S'DET'
p1081
F1.0
s(lp1082
(g114
I12
tp1083
atp1084
a(S'gruppi'
p1085
(dp1086
S'NOUN'
p1087
F1.0
s(lp1088
(g121
I14
tp1089
atp1090
a(S'dei'
p1091
(dp1092
S'NOUN'
p1093
F7e-06
sS'DEF'
p1094
F0.001322
sS'ADP'
p1095
F0.998671
s(lp1096
tp1097
a(S'consumatori'
p1098
(dp1099
S'ADJ'
p1100
F0.113107
sS'NOUN'
p1101
F0.886893
s(lp1102
(g128
I13
tp1103
atp1104
a(g136
(dp1105
g138
F1.0
s(lp1106
(g136
I15
tp1107
atp1108
a(S'ma'
p1109
(dp1110
S'CONJ'
p1111
F0.999975
sS'NOUN'
p1112
F2.5e-05
s(lp1113
(g146
I16
tp1114
atp1115
a(S'anche'
p1116
(dp1117
S'ADV'
p1118
F0.999967
sS'NOUN'
p1119
F3.3e-05
s(lp1120
(g153
I22
tp1121
atp1122
a(S'con'
p1123
(dp1124
S'ADP'
p1125
F1.0
s(lp1126
(g161
I17
tp1127
atp1128
a(g1079
(dp1129
S'DET'
p1130
F1.0
s(lp1131
tp1132
a(S'gruppi'
p1133
(dp1134
S'NOUN'
p1135
F1.0
s(lp1136
(g177
I20
tp1137
atp1138
a(S'di'
p1139
(dp1140
S'CONJ'
p1141
F4e-06
sS'ADP'
p1142
F0.999996
s(lp1143
tp1144
a(S'interesse'
p1145
(dp1146
S'NOUN'
p1147
F1.0
s(lp1148
(g191
I19
tp1149
atp1150
a(S'culturale'
p1151
(dp1152
S'ADJ'
p1153
F1.0
s(lp1154
(g198
I18
tp1155
atp1156
a(g136
(dp1157
g138
F1.0
s(lp1158
(g136
I23
tp1159
atp1160
a(S'poich\xc3\xa9'
p1161
(dp1162
S'CONJ'
p1163
F1.0
s(lp1164
(g210
I24
tp1165
atp1166
a(S'possono'
p1167
(dp1168
S'VERB'
p1169
F1.0
s(lp1170
(g252
I26
tp1171
atp1172
a(S'offrire'
p1173
(dp1174
S'VERB'
p1175
F1.0
s(lp1176
(g264
I27
tp1177
atp1178
a(S'informazioni'
p1179
(dp1180
S'NOUN'
p1181
F1.0
s(lp1182
(g313
I31
tp1183
atp1184
a(S'utili'
p1185
(dp1186
S'NOUN'
p1187
F0.112337
sS'ADJ'
p1188
F0.887663
s(lp1189
(g283
I28
tp1190
atp1191
a(g1073
(dp1192
S'CONJ'
p1193
F1.0
s(lp1194
(g290
I29
tp1195
atp1196
a(S'affidabili'
p1197
(dp1198
S'ADJ'
p1199
F1.0
s(lp1200
(g297
I30
tp1201
atp1202
a(S'sugli'
p1203
(dp1204
S'ADP'
p1205
F1.0
s(lp1206
(g304
I32
tp1207
atp1208
a(S'aspetti'
p1209
(dp1210
S'VERB'
p1211
F1e-05
sS'NOUN'
p1212
F0.999991
s(lp1213
(g320
I34
tp1214
atp1215
a(S'culturali'
p1216
(dp1217
S'ADJ'
p1218
F1.0
s(lp1219
(g327
I33
tp1220
atp1221
a(g138
(dp1222
g138
F1.0
s(lp1223
(g138
I35
tp1224
atp1225
asS'sk'
p1226
(lp1227
(S'oert'
p1228
(dp1229
S'NOUN'
p1230
F1.0
s(lp1231
(g15
I1
tp1232
atp1233
a(S'by'
p1234
(dp1235
S'PRT'
p1236
F0.99992
sg59
F8.1e-05
s(lp1237
tp1238
a(S'mal'
p1239
(dp1240
g59
F0.0
sS'VERB'
p1241
F1.0
s(lp1242
(g23
I2
tp1243
atp1244
a(S'by\xc5\xa5'
p1245
(dp1246
S'VERB'
p1247
F1.0
s(lp1248
(g31
I3
tp1249
atp1250
a(S'pr\xc3\xadstupn\xc3\xbd'
p1251
(dp1252
S'ADJ'
p1253
F1.0
s(lp1254
(g39
I4
tp1255
atp1256
a(S'kontaktom'
p1257
(dp1258
S'NOUN'
p1259
F1.0
s(lp1260
(g53
I6
tp1261
atp1262
a(S'nielen'
p1263
(dp1264
S'CONJ'
p1265
F1.0
s(lp1266
(g68
I8
tp1267
atp1268
a(S's'
p1269
(dp1270
g59
F0.003103
sS'CONJ'
p1271
F0.000164
sS'NOUN'
p1272
F1.8e-05
sS'ADP'
p1273
F0.996522
sS'PRT'
p1274
F0.000195
s(lp1275
(g76
I9
tp1276
atp1277
a(S'priemyslom'
p1278
(dp1279
S'NOUN'
p1280
F1.0
s(lp1281
(g90
I10
tp1282
atp1283
a(S'a'
p1284
(dp1285
g59
F0.004469
sS'CONJ'
p1286
F0.99516
sS'NOUN'
p1287
F0.00021500000000000002
sS'ADP'
p1288
F1e-06
sS'PRT'
p1289
F0.000156
s(lp1290
(g97
I11
tp1291
atp1292
a(S'so'
p1293
(dp1294
g59
F0.00014399999999999998
sS'ADP'
p1295
F0.999856
s(lp1296
(g114
I12
tp1297
atp1298
a(S'skupinami'
p1299
(dp1300
S'NOUN'
p1301
F1.0
s(lp1302
(g121
I14
tp1303
atp1304
a(S'spotrebite\xc4\xbeov'
p1305
(dp1306
S'NOUN'
p1307
F1.0
s(lp1308
(g128
I13
tp1309
atp1310
a(g136
(dp1311
g138
F1.0
s(lp1312
(g136
I15
tp1313
atp1314
a(S'ale'
p1315
(dp1316
g59
F0.008684
sS'CONJ'
p1317
F0.991316
s(lp1318
(g146
I16
tp1319
atp1320
a(S'aj'
p1321
(dp1322
g59
F0.792733
sS'CONJ'
p1323
F0.207267
s(lp1324
(g153
I22
tp1325
atp1326
a(S'so'
p1327
(dp1328
g59
F9.400000000000001e-05
sS'ADP'
p1329
F0.999906
s(lp1330
(g161
I17
tp1331
atp1332
a(S'skupinami'
p1333
(dp1334
S'NOUN'
p1335
F1.0
s(lp1336
(g177
I20
tp1337
atp1338
a(S'kult\xc3\xbarnych'
p1339
(dp1340
S'ADJ'
p1341
F1.0
s(lp1342
(g198
I18
tp1343
atp1344
a(S'z\xc3\xa1ujmov'
p1345
(dp1346
S'NOUN'
p1347
F1.0
s(lp1348
(g191
I19
tp1349
atp1350
a(g136
(dp1351
g138
F1.0
s(lp1352
(g136
I23
tp1353
atp1354
a(S'ke\xc4\x8f\xc5\xbee'
p1355
(dp1356
S'CONJ'
p1357
F1.0
s(lp1358
(g210
I24
tp1359
atp1360
a(S'poskytuj\xc3\xba'
p1361
(dp1362
S'VERB'
p1363
F1.0
s(lp1364
(g264
I27
tp1365
atp1366
a(S'u\xc5\xbeito\xc4\x8dn\xc3\xa9'
p1367
(dp1368
S'ADJ'
p1369
F1.0
s(lp1370
(g283
I28
tp1371
atp1372
a(g1284
(dp1373
g59
F0.0005139999999999999
sS'CONJ'
p1374
F0.998273
sS'NOUN'
p1375
F0.00112
sS'ADP'
p1376
F7.9e-05
sS'PRT'
p1377
F1.5e-05
s(lp1378
(g290
I29
tp1379
atp1380
a(S'spo\xc4\xbeahliv\xc3\xa9'
p1381
(dp1382
S'ADJ'
p1383
F1.0
s(lp1384
(g297
I30
tp1385
atp1386
a(S'inform\xc3\xa1cie'
p1387
(dp1388
S'NOUN'
p1389
F1.0
s(lp1390
(g313
I31
tp1391
atp1392
a(S'o'
p1393
(dp1394
g59
F8.8e-05
sS'CONJ'
p1395
F5.8e-05
sS'NOUN'
p1396
F2.2e-05
sS'ADP'
p1397
F0.999832
s(lp1398
(g304
I32
tp1399
atp1400
a(S'kult\xc3\xbarnych'
p1401
(dp1402
S'ADJ'
p1403
F1.0
s(lp1404
(g327
I33
tp1405
atp1406
a(S'aspektoch'
p1407
(dp1408
S'NOUN'
p1409
F1.0
s(lp1410
(g320
I34
tp1411
atp1412
a(g138
(dp1413
g138
F1.0
s(lp1414
(g138
I35
tp1415
atp1416
asS'pl'
p1417
(lp1418
(S'bert'
p1419
(dp1420
S'ADV'
p1421
F3.8e-05
sS'ADJ'
p1422
F4e-06
sS'VERB'
p1423
F1.7e-05
sS'NOUN'
p1424
F0.999942
s(lp1425
(g15
I1
tp1426
atp1427
a(S'powinien'
p1428
(dp1429
S'VERB'
p1430
F0.9999999999999999
s(lp1431
(g23
I2
tp1432
atp1433
a(S'by\xc4\x87'
p1434
(dp1435
S'VERB'
p1436
F1.0
s(lp1437
(g31
I3
tp1438
atp1439
a(S'otwarty'
p1440
(dp1441
S'VERB'
p1442
F0.8175
sS'ADJ'
p1443
F0.18250099999999997
s(lp1444
(g39
I4
tp1445
atp1446
a(S'na'
p1447
(dp1448
g59
F1.9e-05
sS'VERB'
p1449
F2.9e-05
sS'NOUN'
p1450
F0.0
sS'ADP'
p1451
F0.9999450000000001
sS'PRT'
p1452
F5e-06
s(lp1453
(g46
I5
tp1454
atp1455
a(S'kontakty'
p1456
(dp1457
S'NOUN'
p1458
F1.0
s(lp1459
(g53
I6
tp1460
atp1461
a(S'nie'
p1462
(dp1463
S'ADV'
p1464
F2.9e-05
sS'PRT'
p1465
F0.869953
sS'CONJ'
p1466
F0.129162
sS'NOUN'
p1467
F5e-06
sS'PRON'
p1468
F0.0008489999999999999
s(lp1469
(g61
I7
tp1470
atp1471
a(S'tylko'
p1472
(dp1473
S'PRT'
p1474
F0.89685
sS'CONJ'
p1475
F0.10315
s(lp1476
(g68
I8
tp1477
atp1478
a(S'z'
p1479
(dp1480
S'PRT'
p1481
F0.000924
sS'VERB'
p1482
F4e-06
sS'NOUN'
p1483
F0.0
sS'ADP'
p1484
F0.999072
sg59
F0.0
s(lp1485
tp1486
a(S'grupami'
p1487
(dp1488
S'NOUN'
p1489
F1.0
s(lp1490
tp1491
a(S'konsument\xc3\xb3w'
p1492
(dp1493
S'NOUN'
p1494
F1.0
s(lp1495
(g128
I13
tp1496
atp1497
a(S'oraz'
p1498
(dp1499
S'CONJ'
p1500
F1.0
s(lp1501
(g97
I11
tp1502
atp1503
a(S'grupami'
p1504
(dp1505
S'NOUN'
p1506
F1.0
s(lp1507
(g121
I14
tp1508
atp1509
a(S'zwi\xc4\x85zanymi'
p1510
(dp1511
S'ADJ'
p1512
F1.0
s(lp1513
(g320
I34
tp1514
atp1515
a(g1479
(dp1516
S'PRT'
p1517
F3.3e-05
sS'VERB'
p1518
F2e-06
sS'NOUN'
p1519
F0.0
sS'ADP'
p1520
F0.9999640000000001
sg59
F1e-06
s(lp1521
(g161
I17
tp1522
atp1523
a(S'przemys\xc5\x82em'
p1524
(dp1525
S'ADV'
p1526
F1.3e-05
sS'ADJ'
p1527
F0.000154
sS'VERB'
p1528
F0.040666
sS'NOUN'
p1529
F0.959162
s(lp1530
(g90
I10
tp1531
atp1532
a(g136
(dp1533
g59
F0.0
sg138
F1.0
s(lp1534
(g136
I15
tp1535
atp1536
a(S'ale'
p1537
(dp1538
S'PRT'
p1539
F0.002687
sS'CONJ'
p1540
F0.99665
sS'NOUN'
p1541
F0.0006629999999999999
s(lp1542
(g146
I16
tp1543
atp1544
a(S'tak\xc5\xbce'
p1545
(dp1546
S'PRT'
p1547
F0.816972
sS'CONJ'
p1548
F0.183028
s(lp1549
(g153
I22
tp1550
atp1551
a(g1479
(dp1552
S'PRT'
p1553
F0.000851
sS'VERB'
p1554
F4e-06
sS'NOUN'
p1555
F0.0
sS'ADP'
p1556
F0.9991450000000001
sg59
F0.0
s(lp1557
(g76
I9
tp1558
atp1559
a(S'grupami'
p1560
(dp1561
S'NOUN'
p1562
F1.0
s(lp1563
(g177
I20
tp1564
atp1565
a(S'zajmuj\xc4\x85cymi'
p1566
(dp1567
S'VERB'
p1568
F1.0
s(lp1569
(g191
I19
tp1570
atp1571
a(S'si\xc4\x99'
p1572
(dp1573
S'PRT'
p1574
F1.0
s(lp1575
tp1576
a(S'kultur\xc4\x85'
p1577
(dp1578
S'NOUN'
p1579
F1.0
s(lp1580
(g198
I18
tp1581
atp1582
a(g136
(dp1583
g59
F0.0
sg138
F1.0
s(lp1584
(g136
I23
tp1585
atp1586
a(S'poniewa\xc5\xbc'
p1587
(dp1588
S'CONJ'
p1589
F1.0
s(lp1590
(g210
I24
tp1591
atp1592
a(S'mog\xc4\x85'
p1593
(dp1594
S'VERB'
p1595
F1.0
s(lp1596
(g252
I26
tp1597
atp1598
a(S'one'
p1599
(dp1600
S'PRON'
p1601
F0.9996630000000002
sS'ADJ'
p1602
F0.00033099999999999997
sg59
F0.0
sS'NOUN'
p1603
F6e-06
s(lp1604
(g237
I25
tp1605
atp1606
a(S'by\xc4\x87'
p1607
(dp1608
S'VERB'
p1609
F1.0
s(lp1610
tp1611
a(S'\xc5\xbar\xc3\xb3d\xc5\x82em'
p1612
(dp1613
S'NOUN'
p1614
F1.0
s(lp1615
(g264
I27
tp1616
atp1617
a(S'u\xc5\xbcytecznych'
p1618
(dp1619
S'ADJ'
p1620
F1.0
s(lp1621
(g283
I28
tp1622
atp1623
a(g1079
(dp1624
S'PRT'
p1625
F0.002146
sS'CONJ'
p1626
F0.997549
sS'NOUN'
p1627
F5.9999999999999995e-05
sg59
F1e-05
sS'PRON'
p1628
F0.000235
s(lp1629
(g290
I29
tp1630
atp1631
a(S'rzetelnych'
p1632
(dp1633
S'ADV'
p1634
F1e-05
sS'NOUN'
p1635
F0.001915
sS'VERB'
p1636
F0.0008910000000000001
sS'ADJ'
p1637
F0.997179
s(lp1638
(g297
I30
tp1639
atp1640
a(S'informacji'
p1641
(dp1642
S'NOUN'
p1643
F1.0
s(lp1644
(g313
I31
tp1645
atp1646
a(S'dotycz\xc4\x85cych'
p1647
(dp1648
S'VERB'
p1649
F1.0
s(lp1650
(g304
I32
tp1651
atp1652
a(S'kultury'
p1653
(dp1654
S'NOUN'
p1655
F1.000001
s(lp1656
(g327
I33
tp1657
atp1658
a(g138
(dp1659
g138
F1.0
s(lp1660
(g138
I35
tp1661
atp1662
asS'sl'
p1663
(lp1664
(S'organ'
p1665
(dp1666
S'NOUN'
p1667
F1.0
s(lp1668
tp1669
a(S'bert'
p1670
(dp1671
S'ADV'
p1672
F0.08676
sS'NOUN'
p1673
F0.8792559999999999
sS'NUM'
p1674
F0.0048059999999999995
sg59
F0.003372
sS'ADJ'
p1675
F0.018273
sS'VERB'
p1676
F0.007535000000000001
s(lp1677
(g15
I1
tp1678
atp1679
a(S'bi'
p1680
(dp1681
g59
F0.000186
sS'VERB'
p1682
F0.999814
s(lp1683
tp1684
a(S'moral'
p1685
(dp1686
S'VERB'
p1687
F1.0
s(lp1688
(g23
I2
tp1689
atp1690
a(S'biti'
p1691
(dp1692
S'VERB'
p1693
F0.99998
sS'NOUN'
p1694
F1.9999999999999998e-05
s(lp1695
(g31
I3
tp1696
atp1697
a(S'odprt'
p1698
(dp1699
S'ADJ'
p1700
F1.0
s(lp1701
(g39
I4
tp1702
atp1703
a(S'za'
p1704
(dp1705
S'ADV'
p1706
F1.1e-05
sg59
F1e-06
sS'ADP'
p1707
F0.999988
s(lp1708
(g46
I5
tp1709
atp1710
a(S'stike'
p1711
(dp1712
S'NOUN'
p1713
F1.0
s(lp1714
(g53
I6
tp1715
atp1716
a(S'ne'
p1717
(dp1718
S'PRT'
p1719
F0.883111
sS'CONJ'
p1720
F0.116832
sg59
F5.6999999999999996e-05
s(lp1721
(g61
I7
tp1722
atp1723
a(S'samo'
p1724
(dp1725
S'PRT'
p1726
F0.994435
sS'ADJ'
p1727
F0.005564
s(lp1728
(g68
I8
tp1729
atp1730
a(S'za'
p1731
(dp1732
S'ADV'
p1733
F8e-05
sg59
F1e-06
sS'ADP'
p1734
F0.99992
s(lp1735
(g76
I9
tp1736
atp1737
a(S'industrijo'
p1738
(dp1739
S'NOUN'
p1740
F1.0
s(lp1741
(g90
I10
tp1742
atp1743
a(S'in'
p1744
(dp1745
S'ADV'
p1746
F3.4e-05
sg59
F6e-06
sS'CONJ'
p1747
F0.999903
sS'NOUN'
p1748
F5.7e-05
s(lp1749
(g97
I11
tp1750
atp1751
a(S'skupine'
p1752
(dp1753
S'NOUN'
p1754
F0.999999
s(lp1755
(g121
I14
tp1756
atp1757
a(S'potro\xc5\xa1nikov'
p1758
(dp1759
S'NOUN'
p1760
F1.0
s(lp1761
(g128
I13
tp1762
atp1763
a(g136
(dp1764
g138
F1.0
s(lp1765
(g136
I15
tp1766
atp1767
a(S'temve\xc4\x8d'
p1768
(dp1769
S'CONJ'
p1770
F1.0
s(lp1771
(g146
I16
tp1772
atp1773
a(S'tudi'
p1774
(dp1775
S'PRT'
p1776
F1.0
s(lp1777
(g153
I22
tp1778
atp1779
a(g1269
(dp1780
S'VERB'
p1781
F0.0
sS'NOUN'
p1782
F6e-06
sS'ADP'
p1783
F0.999994
s(lp1784
(g161
I17
tp1785
atp1786
a(S'kulturnimi'
p1787
(dp1788
S'ADJ'
p1789
F1.0
s(lp1790
(g198
I18
tp1791
atp1792
a(S'interesnimi'
p1793
(dp1794
S'ADV'
p1795
F6e-06
sS'NOUN'
p1796
F0.15954400000000007
sS'PRON'
p1797
F2.3e-05
sS'NUM'
p1798
F0.011761
sS'ADJ'
p1799
F0.8286270000000001
sS'VERB'
p1800
F3.6e-05
s(lp1801
(g191
I19
tp1802
atp1803
a(S'zdru\xc5\xbeenji'
p1804
(dp1805
S'NOUN'
p1806
F1.0
s(lp1807
(g177
I20
tp1808
atp1809
a(g136
(dp1810
g138
F1.0
s(lp1811
(g136
I23
tp1812
atp1813
a(S'saj'
p1814
(dp1815
S'CONJ'
p1816
F1.0
s(lp1817
(g210
I24
tp1818
atp1819
a(S'lahko'
p1820
(dp1821
S'ADV'
p1822
F0.999537
sS'ADJ'
p1823
F0.000464
s(lp1824
(g252
I26
tp1825
atp1826
a(S'ti'
p1827
(dp1828
S'PRON'
p1829
F0.9998930000000001
sg59
F0.000108
s(lp1830
(g237
I25
tp1831
atp1832
a(S'zagotovijo'
p1833
(dp1834
S'ADV'
p1835
F0.001052
sg59
F0.000941
sS'ADJ'
p1836
F5.2e-05
sS'VERB'
p1837
F0.991986
sS'NOUN'
p1838
F0.00597
s(lp1839
(g264
I27
tp1840
atp1841
a(S'uporabne'
p1842
(dp1843
S'ADJ'
p1844
F1.0
s(lp1845
(g283
I28
tp1846
atp1847
a(S'in'
p1848
(dp1849
S'ADV'
p1850
F3.5e-05
sg59
F8e-06
sS'CONJ'
p1851
F0.999945
sS'NOUN'
p1852
F1.2e-05
s(lp1853
(g290
I29
tp1854
atp1855
a(S'zanesljive'
p1856
(dp1857
S'ADV'
p1858
F8e-05
sS'NOUN'
p1859
F0.025313
sS'VERB'
p1860
F0.006343
sS'ADJ'
p1861
F0.9682559999999999
sg59
F8e-06
s(lp1862
(g297
I30
tp1863
atp1864
a(S'informacije'
p1865
(dp1866
S'NOUN'
p1867
F1.0
s(lp1868
(g313
I31
tp1869
atp1870
a(g1393
(dp1871
S'NOUN'
p1872
F2.7e-05
sS'ADP'
p1873
F0.999973
s(lp1874
(g304
I32
tp1875
atp1876
a(S'kulturnih'
p1877
(dp1878
S'ADJ'
p1879
F1.0000010000000001
s(lp1880
(g327
I33
tp1881
atp1882
a(S'vidikih'
p1883
(dp1884
S'NOUN'
p1885
F1.0
s(lp1886
(g320
I34
tp1887
atp1888
a(g138
(dp1889
g138
F1.0
s(lp1890
(g138
I35
tp1891
atp1892
asS'es'
p1893
(lp1894
(S'el'
p1895
(dp1896
S'PRON'
p1897
F1e-05
sS'DET'
p1898
F0.99999
s(lp1899
(g8
I0
tp1900
atp1901
a(S'bert'
p1902
(dp1903
S'NOUN'
p1904
F1.0
s(lp1905
(g15
I1
tp1906
atp1907
a(S'deber\xc3\xada'
p1908
(dp1909
S'VERB'
p1910
F1.0
s(lp1911
(g23
I2
tp1912
atp1913
a(S'estar'
p1914
(dp1915
S'VERB'
p1916
F1.0
s(lp1917
(g31
I3
tp1918
atp1919
a(S'abierto'
p1920
(dp1921
S'ADJ'
p1922
F1.0
s(lp1923
(g39
I4
tp1924
atp1925
a(g1284
(dp1926
g59
F0.000623
sS'CONJ'
p1927
F9e-06
sS'ADP'
p1928
F0.999368
s(lp1929
(g46
I5
tp1930
atp1931
a(S'la'
p1932
(dp1933
S'PRON'
p1934
F1e-06
sS'DET'
p1935
F0.999997
sS'NOUN'
p1936
F0.0
sg59
F1e-06
s(lp1937
(g114
I12
tp1938
atp1939
a(S'industria'
p1940
(dp1941
S'VERB'
p1942
F0.000388
sS'NOUN'
p1943
F0.999612
s(lp1944
(g90
I10
tp1945
atp1946
a(S'y'
p1947
(dp1948
g59
F0.000396
sS'CONJ'
p1949
F0.999604
s(lp1950
(g97
I11
tp1951
atp1952
a(S'los'
p1953
(dp1954
S'PRON'
p1955
F0.000425
sS'DET'
p1956
F0.999575
s(lp1957
tp1958
a(S'grupos'
p1959
(dp1960
S'NOUN'
p1961
F1.0
s(lp1962
(g121
I14
tp1963
atp1964
a(S'de'
p1965
(dp1966
g59
F2.9e-05
sS'CONJ'
p1967
F0.000449
sS'ADP'
p1968
F0.999522
s(lp1969
tp1970
a(S'consumidores'
p1971
(dp1972
S'NOUN'
p1973
F1.0
s(lp1974
(g128
I13
tp1975
atp1976
a(g136
(dp1977
g138
F1.0
s(lp1978
(g136
I15
tp1979
atp1980
a(S'as\xc3\xad'
p1981
(dp1982
S'CONJ'
p1983
F1.0
s(lp1984
(g153
I22
tp1985
atp1986
a(S'como'
p1987
(dp1988
S'CONJ'
p1989
F1.0
s(lp1990
(g105
I21
tp1991
atp1992
a(g1284
(dp1993
g59
F3.4e-05
sS'CONJ'
p1994
F2.6e-05
sS'ADP'
p1995
F0.99994
s(lp1996
(g161
I17
tp1997
atp1998
a(S'los'
p1999
(dp2000
S'PRON'
p2001
F0.0
sS'DET'
p2002
F1.0
s(lp2003
tp2004
a(S'grupos'
p2005
(dp2006
S'NOUN'
p2007
F1.0
s(lp2008
(g177
I20
tp2009
atp2010
a(S'de'
p2011
(dp2012
g59
F2.9e-05
sS'CONJ'
p2013
F0.000449
sS'ADP'
p2014
F0.999522
s(lp2015
tp2016
a(S'inter\xc3\xa9s'
p2017
(dp2018
S'NOUN'
p2019
F1.0
s(lp2020
(g191
I19
tp2021
atp2022
a(S'cultural'
p2023
(dp2024
S'ADJ'
p2025
F1.0
s(lp2026
(g198
I18
tp2027
atp2028
a(g136
(dp2029
g138
F1.0
s(lp2030
(g136
I23
tp2031
atp2032
a(S'ya'
p2033
(dp2034
S'CONJ'
p2035
F1.0
s(lp2036
(g210
I24
tp2037
atp2038
a(S'que'
p2039
(dp2040
S'CONJ'
p2041
F1.0
s(lp2042
(g237
I25
tp2043
atp2044
a(S'pueden'
p2045
(dp2046
S'VERB'
p2047
F1.0
s(lp2048
(g252
I26
tp2049
atp2050
a(S'ofrecer'
p2051
(dp2052
S'VERB'
p2053
F1.0
s(lp2054
(g264
I27
tp2055
atp2056
a(S'una'
p2057
(dp2058
S'DET'
p2059
F1.0
s(lp2060
tp2061
a(S'informaci\xc3\xb3n'
p2062
(dp2063
S'NOUN'
p2064
F1.0
s(lp2065
(g313
I31
tp2066
atp2067
a(S'\xc3\xbatil'
p2068
(dp2069
S'ADJ'
p2070
F1.0
s(lp2071
(g283
I28
tp2072
atp2073
a(g1947
(dp2074
g59
F0.000656
sS'CONJ'
p2075
F0.999344
s(lp2076
(g290
I29
tp2077
atp2078
a(S'fiable'
p2079
(dp2080
S'ADJ'
p2081
F1.0
s(lp2082
(g297
I30
tp2083
atp2084
a(S'sobre'
p2085
(dp2086
S'NOUN'
p2087
F1e-06
sS'ADP'
p2088
F0.999999
s(lp2089
(g304
I32
tp2090
atp2091
a(S'ciertos'
p2092
(dp2093
S'ADJ'
p2094
F1.0
s(lp2095
tp2096
a(S'aspectos'
p2097
(dp2098
S'NOUN'
p2099
F1.0
s(lp2100
(g320
I34
tp2101
atp2102
a(S'culturales'
p2103
(dp2104
S'ADJ'
p2105
F1.0
s(lp2106
(g327
I33
tp2107
atp2108
a(g138
(dp2109
g138
F1.0
s(lp2110
(g138
I35
tp2111
atp2112
as.