(dp0
S'fr'
p1
(lp2
(S'un'
p3
(dp4
S'NOUN'
p5
F6.4e-05
sS'NUM'
p6
F0.01295
sS'DET'
p7
F0.986985
s(lp8
(S'this'
p9
I0
tp10
atp11
a(S'gouvernement'
p12
(dp13
S'NOUN'
p14
F1.0
s(lp15
(S'government'
p16
I1
tp17
atp18
a(S'qui'
p19
(dp20
S'PRON'
p21
F1.0
s(lp22
tp23
a(S'a'
p24
(dp25
S'VERB'
p26
F1.0
s(lp27
(S'has'
p28
I6
tp29
atp30
a(S','
p31
(dp32
S'.'
p33
F1.0
s(lp34
(g31
I2
tp35
atp36
a(S'bien'
p37
(dp38
S'ADV'
p39
F0.992399
sS'ADJ'
p40
F0.001773
sS'NOUN'
p41
F0.005828
s(lp42
tp43
a(S's\xc3\xbbr'
p44
(dp45
S'ADJ'
p46
F1.0
s(lp47
(S'course'
p48
I4
tp49
atp50
a(g31
(dp51
g33
F1.0
s(lp52
(g31
I5
tp53
atp54
a(S'pour'
p55
(dp56
S'CONJ'
p57
F0.089517
sS'ADP'
p58
F0.910483
s(lp59
(S'as'
p60
I7
tp61
atp62
a(S'objectif'
p63
(dp64
S'ADJ'
p65
F0.232087
sS'NOUN'
p66
F0.767913
s(lp67
(S'objective'
p68
I10
tp69
atp70
a(S'premier'
p71
(dp72
S'ADV'
p73
F0.018755
sS'NUM'
p74
F0.757051
sS'NOUN'
p75
F0.224194
s(lp76
(S'main'
p77
I9
tp78
atp79
a(S"d'"
p80
(dp81
S'ADJ'
p82
F0.080334
sS'VERB'
p83
F0.20268200000000003
sS'NOUN'
p84
F0.716986
s(lp85
(S'of'
p86
I13
tp87
atp88
a(S'opprimer'
p89
(dp90
S'VERB'
p91
F1.0
s(lp92
(S'suppression'
p93
I12
tp94
atp95
a(S'la'
p96
(dp97
S'PRON'
p98
F6e-06
sS'DET'
p99
F0.999994
sS'NOUN'
p100
F0.0
s(lp101
(S'the'
p102
I11
tp103
atp104
a(S'soci\xc3\xa9t\xc3\xa9'
p105
(dp106
S'NOUN'
p107
F1.0
s(lp108
(S'society'
p109
I15
tp110
atp111
a(S'civile'
p112
(dp113
S'ADJ'
p114
F1.0
s(lp115
(S'civil'
p116
I14
tp117
atp118
a(S'et'
p119
(dp120
S'CONJ'
p121
F1.0
s(lp122
(S'and'
p123
I16
tp124
atp125
a(S'de'
p126
(dp127
S'ADP'
p128
F1.0
s(lp129
(S'of'
p130
I19
tp131
atp132
a(S'promouvoir'
p133
(dp134
S'VERB'
p135
F1.0
s(lp136
(S'promotion'
p137
I18
tp138
atp139
a(S'un'
p140
(dp141
S'NOUN'
p142
F1.9e-05
sS'NUM'
p143
F0.007963
sS'DET'
p144
F0.992018
s(lp145
(g24
I20
tp146
atp147
a(S'syst\xc3\xa8me'
p148
(dp149
S'NOUN'
p150
F1.0
s(lp151
(S'system'
p152
I22
tp153
atp154
a(S'de'
p155
(dp156
S'ADP'
p157
F1.0
s(lp158
tp159
a(S'parti'
p160
(dp161
S'ADJ'
p162
F0.01045
sS'VERB'
p163
F2.6e-05
sS'NOUN'
p164
F0.989524
s(lp165
tp166
a(S'unique'
p167
(dp168
S'ADJ'
p169
F1.0
s(lp170
(S'oneparty'
p171
I21
tp172
atp173
a(g33
(dp174
g33
F1.0
s(lp175
(g33
I23
tp176
atp177
asS'en'
p178
(lp179
(g9
(dp180
S'ADV'
p181
F1.3e-05
sS'NOUN'
p182
F1.1e-05
sS'DET'
p183
F0.999976
s(lp184
(g9
I0
tp185
atp186
a(g16
(dp187
S'NOUN'
p188
F1.0
s(lp189
(g16
I1
tp190
atp191
a(g31
(dp192
g33
F1.0
s(lp193
(g31
I2
tp194
atp195
a(S'of'
p196
(dp197
S'ADP'
p198
F1.0
s(lp199
(g196
I3
tp200
atp201
a(g48
(dp202
S'ADV'
p203
F0.000317
sS'VERB'
p204
F2e-06
sS'NOUN'
p205
F0.99968
s(lp206
(g48
I4
tp207
atp208
a(g31
(dp209
g33
F1.0
s(lp210
(g31
I5
tp211
atp212
a(g28
(dp213
S'VERB'
p214
F1.0
s(lp215
(g28
I6
tp216
atp217
a(g60
(dp218
S'ADV'
p219
F0.623828
sS'ADP'
p220
F0.376172
s(lp221
(g60
I7
tp222
atp223
a(S'its'
p224
(dp225
S'PRON'
p226
F1.0
s(lp227
(g224
I8
tp228
atp229
a(g77
(dp230
S'NOUN'
p231
F0.003239
sS'ADJ'
p232
F0.996761
s(lp233
(g77
I9
tp234
atp235
a(g68
(dp236
S'ADJ'
p237
F0.076841
sS'NOUN'
p238
F0.923159
s(lp239
(g68
I10
tp240
atp241
a(g102
(dp242
S'NOUN'
p243
F8e-06
sS'DET'
p244
F0.999992
s(lp245
(g102
I11
tp246
atp247
a(g93
(dp248
S'NOUN'
p249
F1.0
s(lp250
(g93
I12
tp251
atp252
a(g86
(dp253
S'ADP'
p254
F1.0
s(lp255
(g86
I13
tp256
atp257
a(g116
(dp258
S'ADJ'
p259
F1.0
s(lp260
(g116
I14
tp261
atp262
a(g109
(dp263
S'NOUN'
p264
F1.0
s(lp265
(g109
I15
tp266
atp267
a(g123
(dp268
S'CONJ'
p269
F1.0
sS'NOUN'
p270
F0.0
s(lp271
(g123
I16
tp272
atp273
a(S'the'
p274
(dp275
S'NOUN'
p276
F2e-06
sS'DET'
p277
F0.999998
s(lp278
(g274
I17
tp279
atp280
a(g137
(dp281
S'NOUN'
p282
F1.0
s(lp283
(g137
I18
tp284
atp285
a(g130
(dp286
S'ADP'
p287
F1.0
s(lp288
(g130
I19
tp289
atp290
a(g24
(dp291
S'NOUN'
p292
F0.0
sS'DET'
p293
F1.0
s(lp294
(g24
I20
tp295
atp296
a(g171
(dp297
S'NOUN'
p298
F0.14089700000000002
sS'ADJ'
p299
F0.859103
s(lp300
(g171
I21
tp301
atp302
a(g152
(dp303
S'NOUN'
p304
F1.0
s(lp305
(g152
I22
tp306
atp307
a(g33
(dp308
g33
F1.0
s(lp309
(g33
I23
tp310
atp311
asS'nl'
p312
(lp313
(S'deze'
p314
(dp315
S'PRON'
p316
F1.0
s(lp317
(g9
I0
tp318
atp319
a(S'regering'
p320
(dp321
S'NOUN'
p322
F1.0
s(lp323
(g16
I1
tp324
atp325
a(S'heeft'
p326
(dp327
S'VERB'
p328
F1.0
s(lp329
(g28
I6
tp330
atp331
a(S'natuurlijk'
p332
(dp333
S'ADJ'
p334
F1.0
s(lp335
(g48
I4
tp336
atp337
a(S'de'
p338
(dp339
S'DET'
p340
F1.0
s(lp341
(g102
I11
tp342
atp343
a(S'onderdrukking'
p344
(dp345
S'NOUN'
p346
F1.0
s(lp347
(g93
I12
tp348
atp349
a(S'van'
p350
(dp351
S'ADP'
p352
F1.0
s(lp353
(g86
I13
tp354
atp355
a(S'het'
p356
(dp357
S'PRON'
p358
F0.00582
sS'DET'
p359
F0.994181
s(lp360
(g224
I8
tp361
atp362
a(S'maatschappelijk'
p363
(dp364
S'ADJ'
p365
F1.0
s(lp366
(g116
I14
tp367
atp368
a(S'middenveld'
p369
(dp370
S'NOUN'
p371
F1.0
s(lp372
(g109
I15
tp373
atp374
a(S'en'
p375
(dp376
S'CONJ'
p377
F1.0
s(lp378
(g123
I16
tp379
atp380
a(S'de'
p381
(dp382
S'DET'
p383
F1.0
s(lp384
(g274
I17
tp385
atp386
a(S'bevordering'
p387
(dp388
S'NOUN'
p389
F1.0
s(lp390
(g137
I18
tp391
atp392
a(S'van'
p393
(dp394
S'ADP'
p395
F1.0
s(lp396
(g130
I19
tp397
atp398
a(S'een'
p399
(dp400
S'ADJ'
p401
F1e-06
sS'PRON'
p402
F1.5e-05
sS'NUM'
p403
F0.0
sS'DET'
p404
F0.999984
s(lp405
(g24
I20
tp406
atp407
a(S'eenpartijstelsel'
p408
(dp409
S'ADJ'
p410
F0.002239
sS'NOUN'
p411
F0.997761
s(lp412
(g171
I21
tp413
atp414
a(S'als'
p415
(dp416
S'CONJ'
p417
F1.0
s(lp418
tp419
a(S'hoofddoel'
p420
(dp421
S'NOUN'
p422
F1.0
s(lp423
(g171
I21
tp424
atp425
a(g33
(dp426
g33
F1.0
s(lp427
(g33
I23
tp428
atp429
asS'de'
p430
(lp431
(S'das'
p432
(dp433
S'PRON'
p434
F0.12478
sS'DET'
p435
F0.874129
s(lp436
(g224
I8
tp437
atp438
a(S'hauptziel'
p439
(dp440
S'ADJ'
p441
F0.122142
sS'NOUN'
p442
F0.868776
s(lp443
(g77
I9
tp444
atp445
a(S'dieser'
p446
(dp447
S'PRON'
p448
F1.0
s(lp449
(g9
I0
tp450
atp451
a(S'regierung'
p452
(dp453
S'ADJ'
p454
F0.0001
sS'NOUN'
p455
F0.999843
s(lp456
(g16
I1
tp457
atp458
a(S'besteht'
p459
(dp460
S'VERB'
p461
F1.0
s(lp462
(g68
I10
tp463
atp464
a(S'nat\xc3\xbcrlich'
p465
(dp466
S'ADV'
p467
F0.989907
sS'ADJ'
p468
F0.010093
s(lp469
(g48
I4
tp470
atp471
a(S'in'
p472
(dp473
S'ADP'
p474
F1.0
s(lp475
(g60
I7
tp476
atp477
a(S'der'
p478
(dp479
S'PRON'
p480
F1.6e-05
sS'DET'
p481
F0.999979
s(lp482
(g102
I11
tp483
atp484
a(S'unterdr\xc3\xbcckung'
p485
(dp486
S'ADJ'
p487
F9.3e-05
sS'NOUN'
p488
F0.999849
s(lp489
(g93
I12
tp490
atp491
a(S'der'
p492
(dp493
S'PRON'
p494
F8.7e-05
sS'DET'
p495
F0.9999
s(lp496
(g116
I14
tp497
atp498
a(S'zivilgesellschaft'
p499
(dp500
S'ADJ'
p501
F0.227506
sS'NOUN'
p502
F0.594177
s(lp503
(g109
I15
tp504
atp505
a(S'und'
p506
(dp507
S'CONJ'
p508
F1.0
s(lp509
(g123
I16
tp510
atp511
a(S'der'
p512
(dp513
S'PRON'
p514
F0.001081
sS'DET'
p515
F0.997987
s(lp516
(g274
I17
tp517
atp518
a(S'f\xc3\xb6rderung'
p519
(dp520
S'ADJ'
p521
F0.000184
sS'NOUN'
p522
F0.999649
s(lp523
(g137
I18
tp524
atp525
a(S'eines'
p526
(dp527
S'PRON'
p528
F0.082338
sS'DET'
p529
F0.916099
s(lp530
(g24
I20
tp531
atp532
a(S'einparteiensystems'
p533
(dp534
S'VERB'
p535
F0.04624
sS'NOUN'
p536
F0.916174
s(lp537
(g171
I21
tp538
atp539
a(g33
(dp540
g33
F1.0
s(lp541
(g33
I23
tp542
atp543
asS'it'
p544
(lp545
(S'\xc3\x88'
p546
(dp547
S'VERB'
p548
F1.0
s(lp549
(g171
I21
tp550
atp551
a(S'evidente'
p552
(dp553
S'ADJ'
p554
F1.0
s(lp555
(g171
I21
tp556
atp557
a(S'che'
p558
(dp559
S'PRON'
p560
F0.931008
sS'CONJ'
p561
F0.068574
sS'ADJ'
p562
F0.000418
s(lp563
(g60
I7
tp564
atp565
a(S'il'
p566
(dp567
S'DET'
p568
F1.0
s(lp569
(g224
I8
tp570
atp571
a(S'principale'
p572
(dp573
S'NOUN'
p574
F0.04892
sS'ADJ'
p575
F0.95108
s(lp576
(g77
I9
tp577
atp578
a(S'obiettivo'
p579
(dp580
S'ADJ'
p581
F0.034183
sS'VERB'
p582
F0.000307
sS'NOUN'
p583
F0.96551
s(lp584
(g68
I10
tp585
atp586
a(S'di'
p587
(dp588
S'CONJ'
p589
F2.3e-05
sS'ADP'
p590
F0.999977
s(lp591
tp592
a(S'questo'
p593
(dp594
S'PRON'
p595
F1.0
s(lp596
(g9
I0
tp597
atp598
a(S'governo'
p599
(dp600
S'VERB'
p601
F0.002134
sS'NOUN'
p602
F0.997866
s(lp603
(g16
I1
tp604
atp605
a(S'\xc3\xa8'
p606
(dp607
S'VERB'
p608
F1.0
s(lp609
(g28
I6
tp610
atp611
a(S'di'
p612
(dp613
S'CONJ'
p614
F2e-06
sS'ADP'
p615
F0.999998
s(lp616
(g196
I3
tp617
atp618
a(S'escludere'
p619
(dp620
S'VERB'
p621
F1.0
s(lp622
tp623
a(S'la'
p624
(dp625
S'PRON'
p626
F0.0
sS'DET'
p627
F1.0
s(lp628
(g102
I11
tp629
atp630
a(S'societ\xc3\xa0'
p631
(dp632
S'NOUN'
p633
F1.0
s(lp634
(g109
I15
tp635
atp636
a(S'civile'
p637
(dp638
S'NOUN'
p639
F0.002878
sS'ADJ'
p640
F0.997122
s(lp641
(g116
I14
tp642
atp643
a(S'e'
p644
(dp645
S'CONJ'
p646
F1.0
s(lp647
(g123
I16
tp648
atp649
a(S'promuovere'
p650
(dp651
S'VERB'
p652
F1.0
s(lp653
(g137
I18
tp654
atp655
a(S'un'
p656
(dp657
S'PRON'
p658
F0.001899
sS'DEF'
p659
F0.998101
s(lp660
(g24
I20
tp661
atp662
a(S'sistema'
p663
(dp664
S'VERB'
p665
F2.3e-05
sS'NOUN'
p666
F0.999978
s(lp667
(g152
I22
tp668
atp669
a(S'unipartitico'
p670
(dp671
S'ADJ'
p672
F1.0
s(lp673
(g171
I21
tp674
atp675
a(g33
(dp676
g33
F1.0
s(lp677
(g33
I23
tp678
atp679
asS'sk'
p680
(lp681
(S'prvorad\xc3\xbdm'
p682
(dp683
S'ADJ'
p684
F1.0
s(lp685
(g171
I21
tp686
atp687
a(S'cie\xc4\xbeom'
p688
(dp689
S'NOUN'
p690
F1.0
s(lp691
(g68
I10
tp692
atp693
a(S'tejto'
p694
(dp695
S'PRON'
p696
F1.0
s(lp697
(g9
I0
tp698
atp699
a(S'vl\xc3\xa1dy'
p700
(dp701
S'NOUN'
p702
F1.0
s(lp703
(g16
I1
tp704
atp705
a(S'je'
p706
(dp707
S'X'
p708
F0.000709
sS'VERB'
p709
F0.999261
sS'PRON'
p710
F3.1e-05
s(lp711
(g28
I6
tp712
atp713
a(g31
(dp714
g33
F1.0
s(lp715
(g31
I2
tp716
atp717
a(S'samozrejme'
p718
(dp719
S'ADV'
p720
F0.001025
sg708
F0.994447
sS'ADJ'
p721
F0.004528
s(lp722
(g48
I4
tp723
atp724
a(g31
(dp725
g33
F1.0
s(lp726
(g31
I5
tp727
atp728
a(S'potl\xc3\xa1\xc4\x8danie'
p729
(dp730
S'NOUN'
p731
F1.0
s(lp732
(g93
I12
tp733
atp734
a(S'pr\xc3\xa1v'
p735
(dp736
g708
F0.002312
sS'NOUN'
p737
F0.997688
s(lp738
(g171
I21
tp739
atp740
a(S'ob\xc4\x8dianskej'
p741
(dp742
S'ADJ'
p743
F1.0
s(lp744
(g116
I14
tp745
atp746
a(S'spolo\xc4\x8dnosti'
p747
(dp748
S'NOUN'
p749
F1.0
s(lp750
(g109
I15
tp751
atp752
a(g24
(dp753
g708
F0.002537
sS'CONJ'
p754
F0.99648
sS'NOUN'
p755
F0.00018700000000000002
sS'ADP'
p756
F0.00077
sS'PRT'
p757
F2.7e-05
s(lp758
(g123
I16
tp759
atp760
a(S'podpora'
p761
(dp762
S'NOUN'
p763
F1.0
s(lp764
(g137
I18
tp765
atp766
a(S'syst\xc3\xa9mu'
p767
(dp768
S'NOUN'
p769
F1.0
s(lp770
(g152
I22
tp771
atp772
a(S'jednej'
p773
(dp774
S'NUM'
p775
F1.0
s(lp776
tp777
a(S'strany'
p778
(dp779
S'NOUN'
p780
F1.0
s(lp781
(g171
I21
tp782
atp783
a(g33
(dp784
g33
F1.0
s(lp785
(g33
I23
tp786
atp787
asS'pl'
p788
(lp789
(S'oczywi\xc5\x9bcie'
p790
(dp791
S'PRT'
p792
F1.0
s(lp793
(g48
I4
tp794
atp795
a(S'g\xc5\x82\xc3\xb3wnym'
p796
(dp797
S'ADJ'
p798
F1.0
s(lp799
(g77
I9
tp800
atp801
a(S'celem'
p802
(dp803
S'NOUN'
p804
F0.999659
sS'ADP'
p805
F0.000341
s(lp806
(g68
I10
tp807
atp808
a(S'tego'
p809
(dp810
S'NOUN'
p811
F0.077099
sS'ADJ'
p812
F0.9228439999999999
sS'PRT'
p813
F3e-06
sg708
F5.6e-05
s(lp814
(g9
I0
tp815
atp816
a(S'rz\xc4\x85du'
p817
(dp818
S'NOUN'
p819
F1.0
s(lp820
(g16
I1
tp821
atp822
a(S'jest'
p823
(dp824
S'VERB'
p825
F1.0
s(lp826
(g102
I11
tp827
atp828
a(S'uciskanie'
p829
(dp830
S'ADV'
p831
F0.006004
sS'ADJ'
p832
F0.00033000000000000005
sS'VERB'
p833
F0.9142759999999999
sS'NOUN'
p834
F0.07939500000000003
s(lp835
(g93
I12
tp836
atp837
a(S'spo\xc5\x82ecze\xc5\x84stwa'
p838
(dp839
S'NOUN'
p840
F1.0
s(lp841
(g109
I15
tp842
atp843
a(S'obywatelskiego'
p844
(dp845
S'ADJ'
p846
F1.0
s(lp847
(g116
I14
tp848
atp849
a(S'i'
p850
(dp851
S'PRT'
p852
F0.001369
sS'CONJ'
p853
F0.998626
sS'NOUN'
p854
F1e-06
sg708
F0.0
sS'PRON'
p855
F4e-06
s(lp856
(g123
I16
tp857
atp858
a(S'wspieranie'
p859
(dp860
S'VERB'
p861
F1.0
s(lp862
(g137
I18
tp863
atp864
a(S'systemu'
p865
(dp866
S'NOUN'
p867
F1.0
s(lp868
(g152
I22
tp869
atp870
a(S'jednopartyjnego'
p871
(dp872
S'ADV'
p873
F0.000133
sS'NOUN'
p874
F0.005812
sS'VERB'
p875
F0.001619
sS'ADJ'
p876
F0.9924349999999998
s(lp877
(g171
I21
tp878
atp879
a(g33
(dp880
g33
F1.0
s(lp881
(g33
I23
tp882
atp883
asS'sl'
p884
(lp885
(S'ta'
p886
(dp887
S'PRON'
p888
F1.000001
s(lp889
(g9
I0
tp890
atp891
a(S'vlada'
p892
(dp893
S'VERB'
p894
F0.001206
sS'NOUN'
p895
F0.998794
s(lp896
(g16
I1
tp897
atp898
a(S'ima'
p899
(dp900
S'VERB'
p901
F1.0
s(lp902
(g28
I6
tp903
atp904
a(S'seveda'
p905
(dp906
S'PRT'
p907
F1.0
s(lp908
(g48
I4
tp909
atp910
a(S'za'
p911
(dp912
S'ADV'
p913
F3.2e-05
sg708
F1e-06
sS'ADP'
p914
F0.9999669999999999
s(lp915
(g60
I7
tp916
atp917
a(S'svoj'
p918
(dp919
S'PRON'
p920
F1.0
s(lp921
(g224
I8
tp922
atp923
a(S'glavni'
p924
(dp925
S'ADJ'
p926
F1.000001
s(lp927
(g77
I9
tp928
atp929
a(S'cilj'
p930
(dp931
S'NOUN'
p932
F1.0
s(lp933
(g68
I10
tp934
atp935
a(S'zatiranje'
p936
(dp937
S'NOUN'
p938
F1.0
s(lp939
(g93
I12
tp940
atp941
a(S'civilne'
p942
(dp943
S'ADJ'
p944
F1.0
s(lp945
(g116
I14
tp946
atp947
a(S'dru\xc5\xbebe'
p948
(dp949
S'NOUN'
p950
F1.0
s(lp951
(g109
I15
tp952
atp953
a(S'in'
p954
(dp955
S'ADV'
p956
F2e-05
sg708
F1.8e-05
sS'CONJ'
p957
F0.999957
sS'NOUN'
p958
F4e-06
s(lp959
(g123
I16
tp960
atp961
a(S'spodbujanje'
p962
(dp963
S'NOUN'
p964
F1.0
s(lp965
(g137
I18
tp966
atp967
a(S'enostrankarskega'
p968
(dp969
S'ADJ'
p970
F1.0
s(lp971
(g171
I21
tp972
atp973
a(S'sistema'
p974
(dp975
S'NOUN'
p976
F1.0
s(lp977
(g152
I22
tp978
atp979
a(g33
(dp980
g33
F1.0
s(lp981
(g33
I23
tp982
atp983
asS'es'
p984
(lp985
(S'este'
p986
(dp987
S'PRON'
p988
F0.999951
sS'NOUN'
p989
F4.9e-05
s(lp990
(g9
I0
tp991
atp992
a(S'gobierno'
p993
(dp994
S'VERB'
p995
F0.030433
sS'NOUN'
p996
F0.969567
s(lp997
(g16
I1
tp998
atp999
a(g31
(dp1000
g33
F1.0
s(lp1001
(g31
I2
tp1002
atp1003
a(S'desde'
p1004
(dp1005
S'ADP'
p1006
F1.0
s(lp1007
tp1008
a(S'luego'
p1009
(dp1010
S'ADV'
p1011
F0.995517
sS'CONJ'
p1012
F0.004483
s(lp1013
(g48
I4
tp1014
atp1015
a(g31
(dp1016
g33
F1.0
s(lp1017
(g31
I5
tp1018
atp1019
a(S'tiene'
p1020
(dp1021
S'VERB'
p1022
F1.0
s(lp1023
(g28
I6
tp1024
atp1025
a(S'como'
p1026
(dp1027
S'ADV'
p1028
F0.645191
sS'CONJ'
p1029
F0.354808
s(lp1030
(g60
I7
tp1031
atp1032
a(S'principal'
p1033
(dp1034
g708
F0.000262
sS'ADJ'
p1035
F0.999738
s(lp1036
(g77
I9
tp1037
atp1038
a(S'objetivo'
p1039
(dp1040
S'NOUN'
p1041
F0.489506
sS'ADJ'
p1042
F0.510494
s(lp1043
(g68
I10
tp1044
atp1045
a(S'la'
p1046
(dp1047
S'PRON'
p1048
F0.000216
sS'DET'
p1049
F0.999752
sS'NOUN'
p1050
F3e-06
sg708
F2.9e-05
s(lp1051
(g102
I11
tp1052
atp1053
a(S'supresi\xc3\xb3n'
p1054
(dp1055
S'NOUN'
p1056
F1.0
s(lp1057
(g93
I12
tp1058
atp1059
a(S'de'
p1060
(dp1061
g708
F0.0
sS'CONJ'
p1062
F1.7e-05
sS'ADP'
p1063
F0.999983
s(lp1064
(g86
I13
tp1065
atp1066
a(S'la'
p1067
(dp1068
g708
F0.0
sS'PRON'
p1069
F0.0
sS'DET'
p1070
F0.999999
sS'NOUN'
p1071
F0.0
s(lp1072
tp1073
a(S'sociedad'
p1074
(dp1075
S'NOUN'
p1076
F1.0
s(lp1077
(g109
I15
tp1078
atp1079
a(S'civil'
p1080
(dp1081
S'NOUN'
p1082
F0.015857
sS'ADJ'
p1083
F0.984143
s(lp1084
(g116
I14
tp1085
atp1086
a(S'y'
p1087
(dp1088
g708
F0.000121
sS'CONJ'
p1089
F0.999879
s(lp1090
(g123
I16
tp1091
atp1092
a(S'la'
p1093
(dp1094
S'PRON'
p1095
F0.000591
sS'DET'
p1096
F0.999408
sS'NOUN'
p1097
F0.0
sg708
F0.0
s(lp1098
(g274
I17
tp1099
atp1100
a(S'promoci\xc3\xb3n'
p1101
(dp1102
S'NOUN'
p1103
F1.0
s(lp1104
(g137
I18
tp1105
atp1106
a(S'de'
p1107
(dp1108
g708
F0.0
sS'CONJ'
p1109
F1.7e-05
sS'ADP'
p1110
F0.999982
s(lp1111
(g130
I19
tp1112
atp1113
a(S'un'
p1114
(dp1115
g708
F2e-06
sS'DET'
p1116
F0.999998
s(lp1117
(g24
I20
tp1118
atp1119
a(S'sistema'
p1120
(dp1121
S'NOUN'
p1122
F1.0
s(lp1123
(g152
I22
tp1124
atp1125
a(S'de'
p1126
(dp1127
g708
F2.9e-05
sS'CONJ'
p1128
F0.000449
sS'ADP'
p1129
F0.999522
s(lp1130
tp1131
a(S'partido'
p1132
(dp1133
S'NOUN'
p1134
F1.0
s(lp1135
tp1136
a(S'\xc3\xbanico'
p1137
(dp1138
S'ADJ'
p1139
F1.0
s(lp1140
(g171
I21
tp1141
atp1142
a(g33
(dp1143
g33
F1.0
s(lp1144
(g33
I23
tp1145
atp1146
as.