(dp0
S'fr'
p1
(lp2
(S'il'
p3
(dp4
S'PRON'
p5
F1.0
s(lp6
(S'there'
p7
I0
tp8
atp9
a(S'y'
p10
(dp11
S'PRON'
p12
F1.0
s(lp13
tp14
a(S'a'
p15
(dp16
S'VERB'
p17
F1.0
s(lp18
(g7
I0
tp19
atp20
a(S','
p21
(dp22
S'.'
p23
F1.0
s(lp24
(S'also'
p25
I3
tp26
atp27
a(S'dans'
p28
(dp29
S'NOUN'
p30
F6.1e-05
sS'ADP'
p31
F0.999939
s(lp32
(S'in'
p33
I4
tp34
atp35
a(S'la'
p36
(dp37
S'PRON'
p38
F1.2e-05
sS'DET'
p39
F0.999988
sS'NOUN'
p40
F0.0
s(lp41
(S'the'
p42
I5
tp43
atp44
a(S'strat\xc3\xa9gie'
p45
(dp46
S'NOUN'
p47
F1.0
s(lp48
(S'strategy'
p49
I7
tp50
atp51
a(S'2020'
p52
(dp53
S'X'
p54
F0.004613
sS'NUM'
p55
F0.995387
s(lp56
tp57
a(g21
(dp58
g23
F1.0
s(lp59
tp60
a(S'des'
p61
(dp62
S'DET'
p63
F0.000291
sS'ADP'
p64
F0.999709
s(lp65
(S'are'
p66
I1
tp67
atp68
a(S'notes'
p69
(dp70
S'VERB'
p71
F0.0
sS'NOUN'
p72
F1.0
s(lp73
(S'footnotes'
p74
I2
tp75
atp76
a(S'faisant'
p77
(dp78
S'VERB'
p79
F1.0
s(lp80
tp81
a(S'r\xc3\xa9f\xc3\xa9rence'
p82
(dp83
S'VERB'
p84
F0.0033510000000000002
sS'NOUN'
p85
F0.996649
s(lp86
(S'referring'
p87
I8
tp88
atp89
a(S'aux'
p90
(dp91
S'ADP'
p92
F1.0
s(lp93
(S'to'
p94
I9
tp95
atp96
a(S'politiques'
p97
(dp98
S'NOUN'
p99
F0.151535
sS'VERB'
p100
F0.0
sS'ADJ'
p101
F0.848465
s(lp102
(S'policies'
p103
I10
tp104
atp105
a(S'en'
p106
(dp107
S'PRON'
p108
F0.000295
sS'ADP'
p109
F0.999705
s(lp110
tp111
a(S'vigueur'
p112
(dp113
S'NOUN'
p114
F1.0
s(lp115
(S'hitherto'
p116
I11
tp117
atp118
a(S"jusqu'"
p119
(dp120
S'ADJ'
p121
F0.054585
sS'VERB'
p122
F0.014802
sS'NOUN'
p123
F0.930613
s(lp124
(g116
I11
tp125
atp126
a(S'\xc3\xa0'
p127
(dp128
S'ADP'
p129
F1.0
s(lp130
(g116
I11
tp131
atp132
a(S'pr\xc3\xa9sent'
p133
(dp134
S'NOUN'
p135
F0.169553
sS'ADJ'
p136
F0.830447
s(lp137
tp138
a(g21
(dp139
g23
F1.0
s(lp140
(g21
I12
tp141
atp142
a(S'\xc3\xa0'
p143
(dp144
S'ADP'
p145
F1.0
s(lp146
(g116
I11
tp147
atp148
a(S'savoir'
p149
(dp150
S'VERB'
p151
F0.919429
sS'NOUN'
p152
F0.080571
s(lp153
(S'that'
p154
I13
tp155
atp156
a(S'"'
p157
(dp158
g23
F1.0
s(lp159
(S'2020'
p160
I6
tp161
atp162
a(S'pour'
p163
(dp164
S'CONJ'
p165
F0.491695
sS'ADP'
p166
F0.508305
s(lp167
tp168
a(S'autant'
p169
(dp170
S'ADV'
p171
F1.0
s(lp172
(S'provided'
p173
I16
tp174
atp175
a(S'que'
p176
(dp177
S'ADV'
p178
F0.109671
sS'PRON'
p179
F0.09793
sS'CONJ'
p180
F0.792399
s(lp181
(S'that'
p182
I17
tp183
atp184
a(S"d'"
p185
(dp186
S'NOUN'
p187
F0.046033
sS'VERB'
p188
F0.884714
sS'ADJ'
p189
F0.069252
s(lp190
tp191
a(S'autres'
p192
(dp193
S'ADJ'
p194
F1.0
s(lp195
(S'other'
p196
I18
tp197
atp198
a(S'pays'
p199
(dp200
S'NOUN'
p201
F1.0
s(lp202
(S'nations'
p203
I19
tp204
atp205
a(S'...'
p206
(dp207
g23
F1.0
s(lp208
(S'...'
p209
I20
tp210
atp211
a(g157
(dp212
g23
F1.0
s(lp213
(S'forth'
p214
I26
tp215
atp216
a(S'etc.'
p217
(dp218
g54
F1.0
s(lp219
(g214
I26
tp220
atp221
a(g21
(dp222
g23
F1.0
s(lp223
tp224
a(S'etc.'
p225
(dp226
g54
F1.0
s(lp227
(g214
I26
tp228
atp229
a(g21
(dp230
g23
F1.0
s(lp231
(g21
I27
tp232
atp233
a(S'mais'
p234
(dp235
S'CONJ'
p236
F1.0
s(lp237
(S'but'
p238
I28
tp239
atp240
a(S'je'
p241
(dp242
S'PRON'
p243
F1.0
s(lp244
(S'i'
p245
I29
tp246
atp247
a(S'pense'
p248
(dp249
S'VERB'
p250
F1.0
s(lp251
tp252
a(S'que'
p253
(dp254
S'ADV'
p255
F0.145875
sS'PRON'
p256
F0.005988
sS'CONJ'
p257
F0.848137
s(lp258
(S'think'
p259
I30
tp260
atp261
a(S'si'
p262
(dp263
S'ADV'
p264
F0.243077
sS'CONJ'
p265
F0.756897
sS'NOUN'
p266
F2.6e-05
s(lp267
(S'if'
p268
I31
tp269
atp270
a(S'les'
p271
(dp272
S'PRON'
p273
F0.000403
sS'DET'
p274
F0.999577
sS'ADP'
p275
F2e-05
s(lp276
tp277
a(S'conditions'
p278
(dp279
S'NOUN'
p280
F1.0
s(lp281
(S'conditions'
p282
I32
tp283
atp284
a(S'le'
p285
(dp286
S'PRON'
p287
F0.983701
sS'DET'
p288
F0.016299
s(lp289
tp290
a(S'permettent'
p291
(dp292
S'VERB'
p293
F1.0
s(lp294
(S'are'
p295
I33
tp296
atp297
a(S'et'
p298
(dp299
S'CONJ'
p300
F1.0
s(lp301
(S'and'
p302
I36
tp303
atp304
a(S'si'
p305
(dp306
S'ADV'
p307
F0.403998
sS'CONJ'
p308
F0.59595
sS'NOUN'
p309
F5.2e-05
s(lp310
(S'if'
p311
I38
tp312
atp313
a(S'peut-\xc3\xaatre'
p314
(dp315
S'ADV'
p316
F1.0
s(lp317
(S'maybe'
p318
I37
tp319
atp320
a(S'nous'
p321
(dp322
S'PRON'
p323
F1.0
s(lp324
(S'we'
p325
I39
tp326
atp327
a(S'proc\xc3\xa9dons'
p328
(dp329
S'VERB'
p330
F1.0
s(lp331
tp332
a(S'intelligemment'
p333
(dp334
S'ADV'
p335
F1.0
s(lp336
(S'intelligently'
p337
I42
tp338
atp339
a(g21
(dp340
g23
F1.0
s(lp341
(g21
I43
tp342
atp343
a(S'cela'
p344
(dp345
S'PRON'
p346
F0.968556
sS'VERB'
p347
F0.031444
s(lp348
(S'it'
p349
I44
tp350
atp351
a(S'pourrait'
p352
(dp353
S'VERB'
p354
F1.0
s(lp355
(S'could'
p356
I45
tp357
atp358
a(S'\xc3\xa9galement'
p359
(dp360
S'ADV'
p361
F1.0
s(lp362
(S'also'
p363
I46
tp364
atp365
a(S'profiter'
p366
(dp367
S'VERB'
p368
F1.0
s(lp369
(S'benefit'
p370
I47
tp371
atp372
a(S'\xc3\xa0'
p373
(dp374
S'ADP'
p375
F1.0
s(lp376
tp377
a(S"l'"
p378
(dp379
S'ADJ'
p380
F0.160704
sS'VERB'
p381
F0.06480800000000002
sS'NOUN'
p382
F0.774488
s(lp383
tp384
a(S'europe'
p385
(dp386
S'VERB'
p387
F0.018024000000000002
sS'NOUN'
p388
F0.9819749999999999
s(lp389
(S'europe'
p390
I48
tp391
atp392
a(g23
(dp393
g23
F1.0
s(lp394
(g23
I50
tp395
atp396
asS'en'
p397
(lp398
(g7
(dp399
S'ADV'
p400
F0.001805
sS'ADJ'
p401
F0.0
sS'DET'
p402
F0.998194
sS'ADP'
p403
F0.0
s(lp404
(g7
I0
tp405
atp406
a(g66
(dp407
S'VERB'
p408
F1.0
sS'NOUN'
p409
F0.0
s(lp410
(g66
I1
tp411
atp412
a(g74
(dp413
S'VERB'
p414
F0.000564
sS'NOUN'
p415
F0.999436
s(lp416
(g74
I2
tp417
atp418
a(g25
(dp419
S'ADV'
p420
F1.0
s(lp421
(g25
I3
tp422
atp423
a(g33
(dp424
S'ADV'
p425
F0.001591
sS'PRT'
p426
F7e-06
sS'ADP'
p427
F0.998402
s(lp428
(g33
I4
tp429
atp430
a(g42
(dp431
S'NOUN'
p432
F4.3e-05
sS'DET'
p433
F0.999957
s(lp434
(g42
I5
tp435
atp436
a(g160
(dp437
S'ADV'
p438
F3e-06
sS'NOUN'
p439
F0.000189
sS'NUM'
p440
F0.994559
sS'ADJ'
p441
F0.005249
sg54
F0.0
s(lp442
(g160
I6
tp443
atp444
a(g49
(dp445
S'NOUN'
p446
F1.0
s(lp447
(g49
I7
tp448
atp449
a(g87
(dp450
S'VERB'
p451
F1.0
s(lp452
(g87
I8
tp453
atp454
a(g94
(dp455
S'ADV'
p456
F0.0
sS'PRT'
p457
F0.999997
sS'ADP'
p458
F3e-06
s(lp459
(g94
I9
tp460
atp461
a(g103
(dp462
S'NOUN'
p463
F1.0
s(lp464
(g103
I10
tp465
atp466
a(g116
(dp467
S'ADV'
p468
F1.0
s(lp469
(g116
I11
tp470
atp471
a(g21
(dp472
g23
F1.0
s(lp473
(g21
I12
tp474
atp475
a(g154
(dp476
S'ADV'
p477
F0.001052
sS'DET'
p478
F0.24665099999999998
sS'ADP'
p479
F0.752297
s(lp480
(g154
I13
tp481
atp482
a(S'it'
p483
(dp484
S'PRON'
p485
F1.0
s(lp486
(g483
I14
tp487
atp488
a(S'is'
p489
(dp490
S'VERB'
p491
F1.0
s(lp492
(g489
I15
tp493
atp494
a(g173
(dp495
S'VERB'
p496
F1.0
s(lp497
(g173
I16
tp498
atp499
a(g182
(dp500
S'ADV'
p501
F0.004171
sS'DET'
p502
F0.201609
sS'ADP'
p503
F0.794219
s(lp504
(g182
I17
tp505
atp506
a(g196
(dp507
S'ADV'
p508
F1e-06
sS'NOUN'
p509
F1.7e-05
sS'ADJ'
p510
F0.999983
s(lp511
(g196
I18
tp512
atp513
a(g203
(dp514
S'NOUN'
p515
F1.0
s(lp516
(g203
I19
tp517
atp518
a(g209
(dp519
g23
F1.0
s(lp520
(g209
I20
tp521
atp522
a(S'and'
p523
(dp524
S'CONJ'
p525
F0.999998
sS'NOUN'
p526
F2e-06
s(lp527
(g523
I21
tp528
atp529
a(S'so'
p530
(dp531
S'ADV'
p532
F0.97748
sS'ADJ'
p533
F7.5e-05
sS'CONJ'
p534
F0.000855
sS'NOUN'
p535
F9.9e-05
sS'ADP'
p536
F0.02149
s(lp537
(g530
I22
tp538
atp539
a(S'on'
p540
(dp541
S'ADV'
p542
F0.02518
sS'PRT'
p543
F0.00026
sS'ADJ'
p544
F0.000102
sS'ADP'
p545
F0.974432
sS'NOUN'
p546
F2.6e-05
s(lp547
(g540
I23
tp548
atp549
a(S'and'
p550
(dp551
S'CONJ'
p552
F0.999929
sS'NOUN'
p553
F7.1e-05
s(lp554
(g550
I24
tp555
atp556
a(S'so'
p557
(dp558
S'ADV'
p559
F0.97077
sS'ADJ'
p560
F1.1e-05
sS'CONJ'
p561
F0.001065
sS'NOUN'
p562
F1.2e-05
sS'ADP'
p563
F0.028141
s(lp564
(g557
I25
tp565
atp566
a(g214
(dp567
S'ADV'
p568
F0.996997
sS'ADP'
p569
F0.003003
s(lp570
(g214
I26
tp571
atp572
a(g21
(dp573
g23
F1.0
s(lp574
(g21
I27
tp575
atp576
a(g238
(dp577
S'ADV'
p578
F0.001339
sS'CONJ'
p579
F0.998659
sS'NOUN'
p580
F1e-06
s(lp581
(g238
I28
tp582
atp583
a(g245
(dp584
g54
F0.001091
sS'NOUN'
p585
F0.998909
s(lp586
(g245
I29
tp587
atp588
a(g259
(dp589
S'VERB'
p590
F0.956864
sS'NOUN'
p591
F0.043136
s(lp592
(g259
I30
tp593
atp594
a(g268
(dp595
S'ADP'
p596
F1.0
s(lp597
(g268
I31
tp598
atp599
a(g282
(dp600
S'VERB'
p601
F0.0
sS'NOUN'
p602
F1.0
s(lp603
(g282
I32
tp604
atp605
a(g295
(dp606
S'VERB'
p607
F0.999998
sS'NOUN'
p608
F2e-06
s(lp609
(g295
I33
tp610
atp611
a(S'right'
p612
(dp613
S'ADV'
p614
F0.865278
sS'NOUN'
p615
F0.03404
sS'VERB'
p616
F0.0
sS'ADJ'
p617
F0.100682
s(lp618
(g612
I34
tp619
atp620
a(g21
(dp621
g23
F1.0
s(lp622
(g21
I35
tp623
atp624
a(g302
(dp625
S'CONJ'
p626
F0.999999
sS'NOUN'
p627
F1e-06
s(lp628
(g302
I36
tp629
atp630
a(g318
(dp631
S'ADV'
p632
F1.0
s(lp633
(g318
I37
tp634
atp635
a(g311
(dp636
S'ADP'
p637
F1.0
s(lp638
(g311
I38
tp639
atp640
a(g325
(dp641
S'PRON'
p642
F1.0
s(lp643
(g325
I39
tp644
atp645
a(S'do'
p646
(dp647
S'VERB'
p648
F1.0
sS'NOUN'
p649
F0.0
s(lp650
(g646
I40
tp651
atp652
a(S'this'
p653
(dp654
S'ADV'
p655
F0.006898
sS'NOUN'
p656
F0.000143
sS'DET'
p657
F0.992959
s(lp658
(g653
I41
tp659
atp660
a(g337
(dp661
S'ADV'
p662
F1.0
s(lp663
(g337
I42
tp664
atp665
a(g21
(dp666
g23
F1.0
s(lp667
(g21
I43
tp668
atp669
a(g349
(dp670
S'PRON'
p671
F1.0
s(lp672
(g349
I44
tp673
atp674
a(g356
(dp675
S'VERB'
p676
F1.0
s(lp677
(g356
I45
tp678
atp679
a(g363
(dp680
S'ADV'
p681
F1.0
s(lp682
(g363
I46
tp683
atp684
a(g370
(dp685
S'VERB'
p686
F0.69343
sS'NOUN'
p687
F0.30657
s(lp688
(g370
I47
tp689
atp690
a(g390
(dp691
S'ADV'
p692
F0.053524
sS'ADJ'
p693
F0.0268
sS'VERB'
p694
F0.003554
sS'NOUN'
p695
F0.916121
s(lp696
(g390
I48
tp697
atp698
a(S'itself'
p699
(dp700
S'PRON'
p701
F1.0
s(lp702
(g699
I49
tp703
atp704
a(g23
(dp705
g23
F1.0
s(lp706
(g23
I50
tp707
atp708
asS'nl'
p709
(lp710
(S'er'
p711
(dp712
S'ADV'
p713
F1.0
s(lp714
(g7
I0
tp715
atp716
a(S'staan'
p717
(dp718
S'VERB'
p719
F0.999201
sS'NOUN'
p720
F0.000799
s(lp721
(g66
I1
tp722
atp723
a(S'ook'
p724
(dp725
S'ADV'
p726
F1.0
s(lp727
(g25
I3
tp728
atp729
a(S'voetnoten'
p730
(dp731
S'NOUN'
p732
F1.0
s(lp733
(g74
I2
tp734
atp735
a(S'in'
p736
(dp737
S'ADV'
p738
F0.003438
sS'VERB'
p739
F2e-06
sS'ADP'
p740
F0.99656
s(lp741
(g33
I4
tp742
atp743
a(S'de'
p744
(dp745
S'DET'
p746
F1.0
s(lp747
(g42
I5
tp748
atp749
a(S'eu'
p750
(dp751
S'NOUN'
p752
F1.0
s(lp753
tp754
a(S'2020-strategie'
p755
(dp756
S'NOUN'
p757
F1.0
s(lp758
(g160
I6
tp759
atp760
a(S'over'
p761
(dp762
S'ADV'
p763
F0.015337
sS'ADP'
p764
F0.984663
s(lp765
tp766
a(S'het'
p767
(dp768
S'PRON'
p769
F0.000941
sS'DET'
p770
F0.99906
s(lp771
(g87
I8
tp772
atp773
a(S'beleid'
p774
(dp775
S'NOUN'
p776
F1.0
s(lp777
(g103
I10
tp778
atp779
a(S'dat'
p780
(dp781
S'PRON'
p782
F0.324151
sS'CONJ'
p783
F0.675849
s(lp784
(g94
I9
tp785
atp786
a(S'tot'
p787
(dp788
S'CONJ'
p789
F2.5e-05
sS'ADP'
p790
F0.999975
s(lp791
(g116
I11
tp792
atp793
a(S'dusverre'
p794
(dp795
S'ADJ'
p796
F0.105365
sS'NOUN'
p797
F0.894635
s(lp798
tp799
a(S'is'
p800
(dp801
S'VERB'
p802
F1.0
s(lp803
tp804
a(S'gevoerd'
p805
(dp806
S'VERB'
p807
F0.997785
sS'ADJ'
p808
F0.002215
s(lp809
(g116
I11
tp810
atp811
a(g21
(dp812
g23
F1.0
s(lp813
(g21
I12
tp814
atp815
a(S'dat'
p816
(dp817
S'PRON'
p818
F0.6458710000000001
sS'CONJ'
p819
F0.354129
s(lp820
(g154
I13
tp821
atp822
a(S'wordt'
p823
(dp824
S'VERB'
p825
F1.0
s(lp826
(g489
I15
tp827
atp828
a(S'voorzien'
p829
(dp830
S'NOUN'
p831
F2e-06
sS'VERB'
p832
F0.9999589999999999
sS'ADJ'
p833
F3.9e-05
s(lp834
(g173
I16
tp835
atp836
a(S'dat'
p837
(dp838
S'PRON'
p839
F0.26634
sS'CONJ'
p840
F0.73366
s(lp841
(g182
I17
tp842
atp843
a(S'andere'
p844
(dp845
S'NOUN'
p846
F0.00554
sS'ADJ'
p847
F0.99446
s(lp848
(g196
I18
tp849
atp850
a(S'landen'
p851
(dp852
S'VERB'
p853
F0.020825
sS'NOUN'
p854
F0.979175
s(lp855
(g203
I19
tp856
atp857
a(S'...'
p858
(dp859
g23
F1.0
s(lp860
(g209
I20
tp861
atp862
a(S'enzovoort'
p863
(dp864
S'ADV'
p865
F1.0
s(lp866
(g214
I26
tp867
atp868
a(g23
(dp869
g23
F1.0
s(lp870
(g21
I27
tp871
atp872
a(S'maar'
p873
(dp874
S'ADV'
p875
F0.144508
sS'CONJ'
p876
F0.855488
sS'NOUN'
p877
F4e-06
s(lp878
(g238
I28
tp879
atp880
a(S'ik'
p881
(dp882
S'PRON'
p883
F0.999956
sS'NOUN'
p884
F4.4e-05
s(lp885
(g245
I29
tp886
atp887
a(S'denk'
p888
(dp889
S'VERB'
p890
F1.0
s(lp891
tp892
a(S'dat'
p893
(dp894
S'PRON'
p895
F0.192176
sS'CONJ'
p896
F0.807824
s(lp897
(g259
I30
tp898
atp899
a(S'als'
p900
(dp901
S'CONJ'
p902
F1.0
s(lp903
(g268
I31
tp904
atp905
a(S'de'
p906
(dp907
S'DET'
p908
F1.0
s(lp909
tp910
a(S'omstandigheden'
p911
(dp912
S'NOUN'
p913
F1.0
s(lp914
(g282
I32
tp915
atp916
a(S'gunstig'
p917
(dp918
S'ADJ'
p919
F1.0
s(lp920
(g612
I34
tp921
atp922
a(S'zijn'
p923
(dp924
S'PRON'
p925
F0.000496
sS'VERB'
p926
F0.995128
sS'NOUN'
p927
F0.004375
s(lp928
(g295
I33
tp929
atp930
a(S'en'
p931
(dp932
S'CONJ'
p933
F1.0
s(lp934
(g302
I36
tp935
atp936
a(S'misschien'
p937
(dp938
S'ADV'
p939
F1.0
s(lp940
(g318
I37
tp941
atp942
a(S'als'
p943
(dp944
S'CONJ'
p945
F1.0
s(lp946
(g311
I38
tp947
atp948
a(S'we'
p949
(dp950
S'PRON'
p951
F1.0
s(lp952
(g325
I39
tp953
atp954
a(S'dit'
p955
(dp956
S'PRON'
p957
F1.0
s(lp958
(g653
I41
tp959
atp960
a(S'slim'
p961
(dp962
S'ADJ'
p963
F1.0
s(lp964
tp965
a(S'aanpakken'
p966
(dp967
S'VERB'
p968
F0.872523
sS'NOUN'
p969
F0.127478
s(lp970
(g337
I42
tp971
atp972
a(g21
(dp973
g23
F1.0
s(lp974
(g21
I43
tp975
atp976
a(S'europa'
p977
(dp978
S'NOUN'
p979
F1.0
s(lp980
(g390
I48
tp981
atp982
a(S'daar'
p983
(dp984
S'ADV'
p985
F0.899809
sS'CONJ'
p986
F0.100191
s(lp987
(g349
I44
tp988
atp989
a(S'ook'
p990
(dp991
S'ADV'
p992
F1.0
s(lp993
(g363
I46
tp994
atp995
a(S'zelf'
p996
(dp997
S'PRON'
p998
F1.0
s(lp999
(g699
I49
tp1000
atp1001
a(S'baat'
p1002
(dp1003
S'VERB'
p1004
F0.296169
sS'NOUN'
p1005
F0.703831
s(lp1006
(g370
I47
tp1007
atp1008
a(S'bij'
p1009
(dp1010
S'ADV'
p1011
F0.976866
sS'NOUN'
p1012
F9.4e-05
sS'ADJ'
p1013
F0.000144
sS'ADP'
p1014
F0.022896
s(lp1015
tp1016
a(S'kan'
p1017
(dp1018
S'VERB'
p1019
F0.979148
sS'NOUN'
p1020
F0.020852
s(lp1021
(g356
I45
tp1022
atp1023
a(S'hebben'
p1024
(dp1025
S'VERB'
p1026
F0.999988
sS'NOUN'
p1027
F1.1e-05
s(lp1028
(g370
I47
tp1029
atp1030
a(g23
(dp1031
g23
F1.0
s(lp1032
(g23
I50
tp1033
atp1034
asS'de'
p1035
(lp1036
(S'auch'
p1037
(dp1038
S'ADV'
p1039
F1.0
s(lp1040
(g25
I3
tp1041
atp1042
a(S'die'
p1043
(dp1044
S'PRON'
p1045
F0.000395
sS'DET'
p1046
F0.999599
s(lp1047
(g42
I5
tp1048
atp1049
a(S'strategie'
p1050
(dp1051
S'ADJ'
p1052
F0.022402
sS'NOUN'
p1053
F0.967162
s(lp1054
(g49
I7
tp1055
atp1056
a(S'f\xc3\xbcr'
p1057
(dp1058
S'ADP'
p1059
F1.0
s(lp1060
(g33
I4
tp1061
atp1062
a(S'2020'
p1063
(dp1064
S'NUM'
p1065
F1.0
s(lp1066
(g160
I6
tp1067
atp1068
a(S'enth\xc3\xa4lt'
p1069
(dp1070
S'VERB'
p1071
F1.0
s(lp1072
tp1073
a(S'fu\xc3\x9fnoten'
p1074
(dp1075
S'ADJ'
p1076
F0.018145
sS'NOUN'
p1077
F0.964603
s(lp1078
(g74
I2
tp1079
atp1080
a(g21
(dp1081
g23
F1.0
s(lp1082
tp1083
a(S'die'
p1084
(dp1085
S'PRON'
p1086
F0.993273
sS'DET'
p1087
F0.00405
s(lp1088
(g66
I1
tp1089
atp1090
a(S'sich'
p1091
(dp1092
S'PRON'
p1093
F1.0
s(lp1094
(g87
I8
tp1095
atp1096
a(S'auf'
p1097
(dp1098
S'ADV'
p1099
F2.8e-05
sS'ADP'
p1100
F0.999958
s(lp1101
tp1102
a(S'die'
p1103
(dp1104
S'PRON'
p1105
F0.000218
sS'DET'
p1106
F0.999767
s(lp1107
tp1108
a(S'bisherige'
p1109
(dp1110
S'ADJ'
p1111
F1.0
s(lp1112
(g116
I11
tp1113
atp1114
a(S'politik'
p1115
(dp1116
S'ADJ'
p1117
F0.002277
sS'NOUN'
p1118
F0.995348
s(lp1119
(g103
I10
tp1120
atp1121
a(S'beziehen'
p1122
(dp1123
S'VERB'
p1124
F1.0
s(lp1125
(g87
I8
tp1126
atp1127
a(g21
(dp1128
g23
F1.0
s(lp1129
(g21
I12
tp1130
atp1131
a(S'dass'
p1132
(dp1133
S'CONJ'
p1134
F1.0
s(lp1135
(g154
I13
tp1136
atp1137
a(S'es'
p1138
(dp1139
S'PRON'
p1140
F1.0
s(lp1141
(g483
I14
tp1142
atp1143
a(S'voraussetzung'
p1144
(dp1145
S'ADJ'
p1146
F0.025015
sS'NOUN'
p1147
F0.973245
s(lp1148
(g173
I16
tp1149
atp1150
a(S'ist'
p1151
(dp1152
S'VERB'
p1153
F1.0
s(lp1154
(g489
I15
tp1155
atp1156
a(g21
(dp1157
g23
F1.0
s(lp1158
tp1159
a(S'dass'
p1160
(dp1161
S'CONJ'
p1162
F1.0
s(lp1163
(g182
I17
tp1164
atp1165
a(S'die'
p1166
(dp1167
S'PRON'
p1168
F0.008624
sS'DET'
p1169
F0.986873
s(lp1170
tp1171
a(S'anderen'
p1172
(dp1173
S'PRON'
p1174
F1.0
s(lp1175
(g196
I18
tp1176
atp1177
a(S'l\xc3\xa4nder'
p1178
(dp1179
S'ADJ'
p1180
F0.415484
sS'NOUN'
p1181
F0.56717
s(lp1182
(g203
I19
tp1183
atp1184
a(S'...'
p1185
(dp1186
g23
F1.0
s(lp1187
(g209
I20
tp1188
atp1189
a(S'und'
p1190
(dp1191
S'CONJ'
p1192
F1.0
s(lp1193
(g523
I21
tp1194
atp1195
a(S'so'
p1196
(dp1197
S'ADV'
p1198
F0.999995
sS'PRON'
p1199
F5e-06
s(lp1200
(g530
I22
tp1201
atp1202
a(S'weiter'
p1203
(dp1204
S'ADV'
p1205
F0.305164
sS'ADJ'
p1206
F0.45526
s(lp1207
(g540
I23
tp1208
atp1209
a(S'und'
p1210
(dp1211
S'CONJ'
p1212
F1.0
s(lp1213
(g550
I24
tp1214
atp1215
a(S'so'
p1216
(dp1217
S'ADV'
p1218
F0.999999
sS'PRON'
p1219
F1e-06
s(lp1220
(g557
I25
tp1221
atp1222
a(S'fort'
p1223
(dp1224
S'ADV'
p1225
F0.048222
sS'PRT'
p1226
F0.951778
s(lp1227
(g214
I26
tp1228
atp1229
a(g21
(dp1230
g23
F1.0
s(lp1231
(g21
I27
tp1232
atp1233
a(S'aber'
p1234
(dp1235
S'ADV'
p1236
F0.03871
sS'CONJ'
p1237
F0.96129
s(lp1238
(g238
I28
tp1239
atp1240
a(S'ich'
p1241
(dp1242
S'PRON'
p1243
F1.0
s(lp1244
(g245
I29
tp1245
atp1246
a(S'denke'
p1247
(dp1248
S'VERB'
p1249
F1.0
s(lp1250
(g259
I30
tp1251
atp1252
a(g21
(dp1253
g23
F1.0
s(lp1254
tp1255
a(S'wenn'
p1256
(dp1257
S'CONJ'
p1258
F1.0
s(lp1259
(g268
I31
tp1260
atp1261
a(S'die'
p1262
(dp1263
S'PRON'
p1264
F0.00222
sS'DET'
p1265
F0.997495
s(lp1266
(g295
I33
tp1267
atp1268
a(S'bedingungen'
p1269
(dp1270
S'ADJ'
p1271
F0.014551
sS'NOUN'
p1272
F0.968893
s(lp1273
(g282
I32
tp1274
atp1275
a(S'stimmen'
p1276
(dp1277
S'VERB'
p1278
F1.0
s(lp1279
(g612
I34
tp1280
atp1281
a(g21
(dp1282
g23
F1.0
s(lp1283
(g21
I35
tp1284
atp1285
a(S'und'
p1286
(dp1287
S'CONJ'
p1288
F1.0
s(lp1289
(g302
I36
tp1290
atp1291
a(S'wenn'
p1292
(dp1293
S'CONJ'
p1294
F1.0
s(lp1295
(g311
I38
tp1296
atp1297
a(S'wir'
p1298
(dp1299
S'PRON'
p1300
F1.0
s(lp1301
(g325
I39
tp1302
atp1303
a(S'es'
p1304
(dp1305
S'PRON'
p1306
F1.0
s(lp1307
(g653
I41
tp1308
atp1309
a(S'vern\xc3\xbcnftig'
p1310
(dp1311
S'ADJ'
p1312
F1.0
s(lp1313
(g337
I42
tp1314
atp1315
a(S'machen'
p1316
(dp1317
S'VERB'
p1318
F1.0
s(lp1319
(g646
I40
tp1320
atp1321
a(g21
(dp1322
g23
F1.0
s(lp1323
(g21
I43
tp1324
atp1325
a(S'europa'
p1326
(dp1327
S'VERB'
p1328
F0.311648
sS'ADJ'
p1329
F0.401161
s(lp1330
(g390
I48
tp1331
atp1332
a(S'selbst'
p1333
(dp1334
S'ADV'
p1335
F0.999834
sS'PRT'
p1336
F0.000166
s(lp1337
(g699
I49
tp1338
atp1339
a(S'auch'
p1340
(dp1341
S'ADV'
p1342
F1.0
s(lp1343
(g363
I46
tp1344
atp1345
a(S'davon'
p1346
(dp1347
S'ADV'
p1348
F0.996134
sS'PRT'
p1349
F0.003866
s(lp1350
tp1351
a(S'profitieren'
p1352
(dp1353
S'VERB'
p1354
F1.0
s(lp1355
(g370
I47
tp1356
atp1357
a(S'k\xc3\xb6nnte'
p1358
(dp1359
S'VERB'
p1360
F1.0
s(lp1361
(g356
I45
tp1362
atp1363
a(g23
(dp1364
g23
F1.0
s(lp1365
(g23
I50
tp1366
atp1367
asS'it'
p1368
(lp1369
(S'alcune'
p1370
(dp1371
S'PRON'
p1372
F1.0
s(lp1373
(g7
I0
tp1374
atp1375
a(S'note'
p1376
(dp1377
S'ADJ'
p1378
F0.074365
sS'NOUN'
p1379
F0.925635
s(lp1380
(g74
I2
tp1381
atp1382
a(g15
(dp1383
S'CONJ'
p1384
F0.000218
sS'ADP'
p1385
F0.999782
s(lp1386
(g74
I2
tp1387
atp1388
a(S'pi\xc3\xa8'
p1389
(dp1390
S'NOUN'
p1391
F1.0
s(lp1392
(g74
I2
tp1393
atp1394
a(S'di'
p1395
(dp1396
S'CONJ'
p1397
F4e-06
sS'ADP'
p1398
F0.999996
s(lp1399
tp1400
a(S'pagina'
p1401
(dp1402
S'NOUN'
p1403
F1.0
s(lp1404
(g74
I2
tp1405
atp1406
a(S'nella'
p1407
(dp1408
S'ADP'
p1409
F1.0
s(lp1410
(g33
I4
tp1411
atp1412
a(S'strategia'
p1413
(dp1414
S'NOUN'
p1415
F1.0
s(lp1416
(g49
I7
tp1417
atp1418
a(S'2020'
p1419
(dp1420
S'NUM'
p1421
F0.905649
sg23
F0.094351
s(lp1422
(g160
I6
tp1423
atp1424
a(S'fanno'
p1425
(dp1426
S'VERB'
p1427
F1.0
s(lp1428
tp1429
a(S'riferimento'
p1430
(dp1431
S'NOUN'
p1432
F1.0
s(lp1433
(g87
I8
tp1434
atp1435
a(S'alle'
p1436
(dp1437
S'ADP'
p1438
F1.0
s(lp1439
(g94
I9
tp1440
atp1441
a(S'politiche'
p1442
(dp1443
S'ADJ'
p1444
F0.456872
sS'NOUN'
p1445
F0.543128
s(lp1446
(g103
I10
tp1447
atp1448
a(S'portate'
p1449
(dp1450
S'ADJ'
p1451
F0.176087
sS'VERB'
p1452
F0.582303
sS'NOUN'
p1453
F0.24161
s(lp1454
tp1455
a(S'avanti'
p1456
(dp1457
S'ADV'
p1458
F0.831666
sS'NOUN'
p1459
F0.009352
sS'ADJ'
p1460
F0.155793
sS'ADP'
p1461
F0.003189
s(lp1462
(g74
I2
tp1463
atp1464
a(S'fino'
p1465
(dp1466
S'CONJ'
p1467
F0.701726
sS'ADJ'
p1468
F0.078056
sS'ADP'
p1469
F0.220218
s(lp1470
(g116
I11
tp1471
atp1472
a(g15
(dp1473
S'CONJ'
p1474
F0.006225
sS'ADP'
p1475
F0.993775
s(lp1476
tp1477
a(S'ora'
p1478
(dp1479
S'ADV'
p1480
F0.499561
sS'CONJ'
p1481
F0.000276
sS'VERB'
p1482
F0.008401
sS'NOUN'
p1483
F0.491762
s(lp1484
(g116
I11
tp1485
atp1486
a(g21
(dp1487
g23
F1.0
s(lp1488
(g21
I12
tp1489
atp1490
a(g15
(dp1491
S'CONJ'
p1492
F0.000451
sS'ADP'
p1493
F0.999549
s(lp1494
(g154
I13
tp1495
atp1496
a(S'patto'
p1497
(dp1498
S'NOUN'
p1499
F1.0
s(lp1500
(g173
I16
tp1501
atp1502
a(S'che'
p1503
(dp1504
S'PRON'
p1505
F0.893456
sS'CONJ'
p1506
F0.104577
sS'ADJ'
p1507
F0.001967
s(lp1508
(g182
I17
tp1509
atp1510
a(S'gli'
p1511
(dp1512
S'PRON'
p1513
F0.008165
sS'DET'
p1514
F0.991835
s(lp1515
tp1516
a(S'altri'
p1517
(dp1518
S'PRON'
p1519
F0.490991
sS'ADJ'
p1520
F0.50268
sS'NOUN'
p1521
F0.006328
s(lp1522
(g196
I18
tp1523
atp1524
a(S'paesi'
p1525
(dp1526
S'NOUN'
p1527
F1.0
s(lp1528
(g203
I19
tp1529
atp1530
a(S'...'
p1531
(dp1532
g23
F1.0
s(lp1533
(g209
I20
tp1534
atp1535
a(S'eccetera'
p1536
(dp1537
S'ADV'
p1538
F0.9888
sS'NOUN'
p1539
F0.0112
s(lp1540
tp1541
a(S'eccetera'
p1542
(dp1543
S'ADV'
p1544
F0.965124
sS'NOUN'
p1545
F0.034876
s(lp1546
(g214
I26
tp1547
atp1548
a(g23
(dp1549
g23
F1.0
s(lp1550
(g21
I27
tp1551
atp1552
a(S'se'
p1553
(dp1554
S'PRON'
p1555
F0.000643
sS'CONJ'
p1556
F0.999314
sS'NOUN'
p1557
F4.3e-05
s(lp1558
(g268
I31
tp1559
atp1560
a(S'le'
p1561
(dp1562
S'PRON'
p1563
F0.000163
sS'DET'
p1564
F0.999837
s(lp1565
tp1566
a(S'condizioni'
p1567
(dp1568
S'VERB'
p1569
F2.6000000000000002e-05
sS'NOUN'
p1570
F0.999973
s(lp1571
(g282
I32
tp1572
atp1573
a(S'lo'
p1574
(dp1575
S'PRON'
p1576
F0.999983
sS'DET'
p1577
F1.7e-05
s(lp1578
(g295
I33
tp1579
atp1580
a(S'consentiranno'
p1581
(dp1582
S'VERB'
p1583
F1.0
s(lp1584
(g612
I34
tp1585
atp1586
a(S'e'
p1587
(dp1588
S'CONJ'
p1589
F1.0
s(lp1590
(g302
I36
tp1591
atp1592
a(S'se'
p1593
(dp1594
S'PRON'
p1595
F0.835714
sS'CONJ'
p1596
F0.164252
sS'NOUN'
p1597
F3.5e-05
s(lp1598
(g311
I38
tp1599
atp1600
a(S'agiamo'
p1601
(dp1602
S'VERB'
p1603
F1.0
s(lp1604
(g646
I40
tp1605
atp1606
a(S'in'
p1607
(dp1608
S'ADP'
p1609
F1.0
s(lp1610
(g653
I41
tp1611
atp1612
a(S'modo'
p1613
(dp1614
S'NOUN'
p1615
F1.0
s(lp1616
tp1617
a(S'intelligente'
p1618
(dp1619
S'NOUN'
p1620
F0.002998
sS'ADJ'
p1621
F0.997002
s(lp1622
(g337
I42
tp1623
atp1624
a(g21
(dp1625
g23
F1.0
s(lp1626
(g21
I43
tp1627
atp1628
a(S'potrebbe'
p1629
(dp1630
S'VERB'
p1631
F1.0
s(lp1632
(g356
I45
tp1633
atp1634
a(S'beneficiarne'
p1635
(dp1636
S'VERB'
p1637
F1.0
s(lp1638
(g370
I47
tp1639
atp1640
a(S"l'"
p1641
(dp1642
S'NOUN'
p1643
F0.012178
sS'VERB'
p1644
F0.890187
sS'ADJ'
p1645
F0.097635
s(lp1646
tp1647
a(S'europa'
p1648
(dp1649
S'ADJ'
p1650
F0.306886
sS'VERB'
p1651
F0.111816
sS'NOUN'
p1652
F0.581298
s(lp1653
(g390
I48
tp1654
atp1655
a(S'stessa'
p1656
(dp1657
S'ADJ'
p1658
F1.0
s(lp1659
(g699
I49
tp1660
atp1661
a(g23
(dp1662
g23
F1.0
s(lp1663
(g23
I50
tp1664
atp1665
asS'sk'
p1666
(lp1667
(S'aj'
p1668
(dp1669
g54
F0.902556
sS'CONJ'
p1670
F0.097444
s(lp1671
(g25
I3
tp1672
atp1673
a(S'v'
p1674
(dp1675
g54
F0.00025100000000000003
sS'ADP'
p1676
F0.999748
s(lp1677
(g33
I4
tp1678
atp1679
a(S'strat\xc3\xa9gii'
p1680
(dp1681
S'NOUN'
p1682
F1.0
s(lp1683
(g49
I7
tp1684
atp1685
a(S'2020'
p1686
(dp1687
S'NUM'
p1688
F1.0
s(lp1689
(g160
I6
tp1690
atp1691
a(S's\xc3\xba'
p1692
(dp1693
S'VERB'
p1694
F1.0
s(lp1695
(g66
I1
tp1696
atp1697
a(S'pozn\xc3\xa1mky'
p1698
(dp1699
S'NOUN'
p1700
F1.0
s(lp1701
(g74
I2
tp1702
atp1703
a(S'pod'
p1704
(dp1705
g54
F0.003192
sS'ADP'
p1706
F0.996808
s(lp1707
tp1708
a(S'\xc4\x8diarou'
p1709
(dp1710
S'NOUN'
p1711
F1.0
s(lp1712
(g74
I2
tp1713
atp1714
a(g21
(dp1715
g23
F1.0
s(lp1716
tp1717
a(S'ktor\xc3\xa9'
p1718
(dp1719
S'PRON'
p1720
F1.0
s(lp1721
tp1722
a(S'odkazuj\xc3\xba'
p1723
(dp1724
S'VERB'
p1725
F1.0
s(lp1726
tp1727
a(S'na'
p1728
(dp1729
g54
F8.8e-05
sS'CONJ'
p1730
F9e-06
sS'ADP'
p1731
F0.999898
sS'PRT'
p1732
F5e-06
s(lp1733
(g87
I8
tp1734
atp1735
a(S'doteraj\xc5\xa1ie'
p1736
(dp1737
S'ADJ'
p1738
F1.0
s(lp1739
(g116
I11
tp1740
atp1741
a(S'politiky'
p1742
(dp1743
S'NOUN'
p1744
F1.0
s(lp1745
(g103
I10
tp1746
atp1747
a(g21
(dp1748
g23
F1.0
s(lp1749
(g21
I12
tp1750
atp1751
a(S'\xc5\xbee'
p1752
(dp1753
g54
F0.000113
sS'CONJ'
p1754
F0.999887
s(lp1755
(g154
I13
tp1756
atp1757
a(S'sa'
p1758
(dp1759
S'PRT'
p1760
F0.999969
sS'ADP'
p1761
F0.0
sg54
F3.1e-05
s(lp1762
(g489
I15
tp1763
atp1764
a(S'predpoklad\xc3\xa1'
p1765
(dp1766
S'VERB'
p1767
F1.0
s(lp1768
(g173
I16
tp1769
atp1770
a(g21
(dp1771
g23
F1.0
s(lp1772
tp1773
a(S'\xc5\xbee'
p1774
(dp1775
g54
F0.00033
sS'CONJ'
p1776
F0.999669
s(lp1777
(g182
I17
tp1778
atp1779
a(S'in\xc3\xa9'
p1780
(dp1781
S'PRON'
p1782
F1.0
s(lp1783
(g196
I18
tp1784
atp1785
a(S'n\xc3\xa1rody'
p1786
(dp1787
S'NOUN'
p1788
F1.0
s(lp1789
(g203
I19
tp1790
atp1791
a(S'...'
p1792
(dp1793
g54
F0.9871090000000001
sS'NOUN'
p1794
F0.012891
s(lp1795
(g209
I20
tp1796
atp1797
a(g15
(dp1798
g54
F0.018417000000000003
sS'CONJ'
p1799
F0.981489
sS'NOUN'
p1800
F2e-05
sS'ADP'
p1801
F2e-06
sS'PRT'
p1802
F7.3e-05
s(lp1803
(g523
I21
tp1804
atp1805
a(S'tak'
p1806
(dp1807
S'PRON'
p1808
F0.679735
sS'CONJ'
p1809
F0.148671
sg54
F0.171595
s(lp1810
(g530
I22
tp1811
atp1812
a(S'\xc4\x8falej'
p1813
(dp1814
S'ADV'
p1815
F0.9658180000000001
sg54
F0.034182
s(lp1816
(g214
I26
tp1817
atp1818
a(g21
(dp1819
g23
F1.0
s(lp1820
(g21
I27
tp1821
atp1822
a(S'ale'
p1823
(dp1824
g54
F0.0029219999999999997
sS'CONJ'
p1825
F0.997078
s(lp1826
(g238
I28
tp1827
atp1828
a(S'mysl\xc3\xadm'
p1829
(dp1830
S'VERB'
p1831
F1.0
s(lp1832
(g259
I30
tp1833
atp1834
a(S'si'
p1835
(dp1836
S'PRT'
p1837
F0.999092
sS'VERB'
p1838
F0.000907
sg54
F1e-06
s(lp1839
tp1840
a(g21
(dp1841
g23
F1.0
s(lp1842
tp1843
a(S'\xc5\xbee'
p1844
(dp1845
g54
F0.0009
sS'CONJ'
p1846
F0.9991
s(lp1847
(g259
I30
tp1848
atp1849
a(g1674
(dp1850
g54
F0.000576
sS'ADP'
p1851
F0.999424
s(lp1852
(g295
I33
tp1853
atp1854
a(S'pr\xc3\xadpade'
p1855
(dp1856
S'NOUN'
p1857
F1.0
s(lp1858
(g268
I31
tp1859
atp1860
a(S'vhodn\xc3\xbdch'
p1861
(dp1862
S'ADJ'
p1863
F1.0
s(lp1864
(g612
I34
tp1865
atp1866
a(S'podmienok'
p1867
(dp1868
S'NOUN'
p1869
F1.0
s(lp1870
(g282
I32
tp1871
atp1872
a(g15
(dp1873
g54
F0.0006129999999999999
sS'CONJ'
p1874
F0.999238
sS'NOUN'
p1875
F1.3e-05
sS'ADP'
p1876
F1.2e-05
sS'PRT'
p1877
F0.000123
s(lp1878
(g302
I36
tp1879
atp1880
a(S'mo\xc5\xbeno'
p1881
(dp1882
S'ADV'
p1883
F0.689757
sg54
F0.310243
s(lp1884
(g318
I37
tp1885
atp1886
a(g21
(dp1887
g23
F1.0
s(lp1888
(g21
I35
tp1889
atp1890
a(S'ak'
p1891
(dp1892
g54
F0.001104
sS'CONJ'
p1893
F0.998896
s(lp1894
(g311
I38
tp1895
atp1896
a(S'to'
p1897
(dp1898
S'PRON'
p1899
F0.8645649999999999
sS'CONJ'
p1900
F0.045134
sg54
F0.09030200000000001
s(lp1901
(g653
I41
tp1902
atp1903
a(S'budeme'
p1904
(dp1905
S'VERB'
p1906
F1.0
s(lp1907
(g325
I39
tp1908
atp1909
a(S'robi\xc5\xa5'
p1910
(dp1911
S'VERB'
p1912
F1.0
s(lp1913
(g646
I40
tp1914
atp1915
a(S'rozumne'
p1916
(dp1917
S'ADV'
p1918
F1.0
s(lp1919
(g337
I42
tp1920
atp1921
a(g21
(dp1922
g23
F1.0
s(lp1923
(g21
I43
tp1924
atp1925
a(S'mohlo'
p1926
(dp1927
g54
F0.007655
sS'VERB'
p1928
F0.9923449999999999
s(lp1929
tp1930
a(S'by'
p1931
(dp1932
S'PRT'
p1933
F0.999881
sg54
F0.000119
s(lp1934
(g356
I45
tp1935
atp1936
a(S'to'
p1937
(dp1938
S'PRON'
p1939
F0.991113
sS'CONJ'
p1940
F0.00061
sg54
F0.008277
s(lp1941
(g349
I44
tp1942
atp1943
a(S'prinies\xc5\xa5'
p1944
(dp1945
S'VERB'
p1946
F1.0
s(lp1947
tp1948
a(S'prospech'
p1949
(dp1950
S'NOUN'
p1951
F1.0
s(lp1952
(g370
I47
tp1953
atp1954
a(S'aj'
p1955
(dp1956
g54
F0.486117
sS'CONJ'
p1957
F0.513883
s(lp1958
(g363
I46
tp1959
atp1960
a(S'samotnej'
p1961
(dp1962
S'ADJ'
p1963
F1.0
s(lp1964
(g699
I49
tp1965
atp1966
a(S'eur\xc3\xb3pe'
p1967
(dp1968
S'NOUN'
p1969
F1.0
s(lp1970
(g390
I48
tp1971
atp1972
a(g23
(dp1973
g23
F1.0
s(lp1974
(g23
I50
tp1975
atp1976
asS'pl'
p1977
(lp1978
(S'w'
p1979
(dp1980
S'ADJ'
p1981
F4.2e-05
sS'NOUN'
p1982
F0.000119
sS'ADP'
p1983
F0.999826
sg54
F1.3e-05
s(lp1984
(g33
I4
tp1985
atp1986
a(S'strategii'
p1987
(dp1988
S'NOUN'
p1989
F1.0
s(lp1990
(g49
I7
tp1991
atp1992
a(S'na'
p1993
(dp1994
g54
F0.000117
sS'VERB'
p1995
F0.000316
sS'NOUN'
p1996
F4.8e-05
sS'ADP'
p1997
F0.999438
sS'PRT'
p1998
F8e-05
s(lp1999
(g87
I8
tp2000
atp2001
a(S'2020'
p2002
(dp2003
S'ADV'
p2004
F2.3e-05
sS'NOUN'
p2005
F0.000785
sS'NUM'
p2006
F0.23679000000000008
sS'ADJ'
p2007
F0.7623969999999999
sg54
F4e-06
s(lp2008
tp2009
a(S'rok'
p2010
(dp2011
S'NOUN'
p2012
F1.0
s(lp2013
(g160
I6
tp2014
atp2015
a(S'znalaz\xc5\x82y'
p2016
(dp2017
S'VERB'
p2018
F1.0
s(lp2019
(g74
I2
tp2020
atp2021
a(S'si\xc4\x99'
p2022
(dp2023
S'PRT'
p2024
F1.0
s(lp2025
(g66
I1
tp2026
atp2027
a(S'przypisy'
p2028
(dp2029
S'NOUN'
p2030
F1.0
s(lp2031
(g74
I2
tp2032
atp2033
a(S'nawi\xc4\x85zuj\xc4\x85ce'
p2034
(dp2035
S'VERB'
p2036
F1.0
s(lp2037
(g74
I2
tp2038
atp2039
a(S'do'
p2040
(dp2041
g54
F0.0
sS'NOUN'
p2042
F1e-06
sS'ADP'
p2043
F0.999999
s(lp2044
(g94
I9
tp2045
atp2046
a(S'dotychczasowej'
p2047
(dp2048
S'ADJ'
p2049
F1.0
s(lp2050
tp2051
a(S'polityki'
p2052
(dp2053
S'NOUN'
p2054
F1.0
s(lp2055
(g103
I10
tp2056
atp2057
a(g21
(dp2058
g54
F0.0
sg23
F1.0
s(lp2059
tp2060
a(S'm\xc3\xb3wi\xc4\x85ce'
p2061
(dp2062
S'VERB'
p2063
F1.0
s(lp2064
(g74
I2
tp2065
atp2066
a(g21
(dp2067
g54
F0.0
sg23
F1.0
s(lp2068
(g21
I12
tp2069
atp2070
a(S'i\xc5\xbc'
p2071
(dp2072
S'CONJ'
p2073
F1.0
s(lp2074
(g154
I13
tp2075
atp2076
a(S'pod'
p2077
(dp2078
S'ADV'
p2079
F0.000323
sS'ADP'
p2080
F0.999676
s(lp2081
tp2082
a(S'warunkiem'
p2083
(dp2084
S'NOUN'
p2085
F1.0
s(lp2086
(g173
I16
tp2087
atp2088
a(g21
(dp2089
g54
F0.0
sg23
F1.0
s(lp2090
tp2091
a(S'\xc5\xbce'
p2092
(dp2093
S'PRT'
p2094
F0.000201
sS'CONJ'
p2095
F0.999799
s(lp2096
(g182
I17
tp2097
atp2098
a(S'inne'
p2099
(dp2100
S'ADJ'
p2101
F1.0
s(lp2102
(g196
I18
tp2103
atp2104
a(S'kraje'
p2105
(dp2106
S'NOUN'
p2107
F1.0
s(lp2108
(g203
I19
tp2109
atp2110
a(S'...'
p2111
(dp2112
g23
F1.0
s(lp2113
(g209
I20
tp2114
atp2115
a(g245
(dp2116
S'PRT'
p2117
F0.00743
sS'CONJ'
p2118
F0.992456
sS'PRON'
p2119
F5e-05
sS'NOUN'
p2120
F1.5e-05
sg54
F5e-05
s(lp2121
(g523
I21
tp2122
atp2123
a(S'tak'
p2124
(dp2125
S'ADV'
p2126
F0.851623
sS'NOUN'
p2127
F0.000114
sS'PRT'
p2128
F0.146445
sg54
F1e-06
sS'CONJ'
p2129
F0.001816
sS'ADJ'
p2130
F2e-06
s(lp2131
(g530
I22
tp2132
atp2133
a(S'dalej'
p2134
(dp2135
S'ADV'
p2136
F0.998897
sg54
F0.001103
s(lp2137
(g214
I26
tp2138
atp2139
a(g21
(dp2140
g54
F0.0
sg23
F1.0
s(lp2141
(g21
I27
tp2142
atp2143
a(S'ale'
p2144
(dp2145
S'PRT'
p2146
F0.00731
sS'CONJ'
p2147
F0.992425
sS'NOUN'
p2148
F0.00026599999999999996
s(lp2149
(g238
I28
tp2150
atp2151
a(S'uwa\xc5\xbcam'
p2152
(dp2153
S'VERB'
p2154
F1.0
s(lp2155
tp2156
a(g21
(dp2157
g54
F0.0
sg23
F1.0
s(lp2158
tp2159
a(S'\xc5\xbce'
p2160
(dp2161
S'PRT'
p2162
F0.000244
sS'CONJ'
p2163
F0.999755
s(lp2164
(g259
I30
tp2165
atp2166
a(S'je\xc5\xbceli'
p2167
(dp2168
S'CONJ'
p2169
F1.0
s(lp2170
(g268
I31
tp2171
atp2172
a(S'warunki'
p2173
(dp2174
S'NOUN'
p2175
F0.999999
s(lp2176
(g282
I32
tp2177
atp2178
a(S'b\xc4\x99d\xc4\x85'
p2179
(dp2180
S'VERB'
p2181
F1.0
s(lp2182
(g295
I33
tp2183
atp2184
a(S'odpowiednie'
p2185
(dp2186
S'ADJ'
p2187
F1.0
s(lp2188
(g612
I34
tp2189
atp2190
a(g245
(dp2191
S'PRT'
p2192
F0.009358
sS'CONJ'
p2193
F0.990439
sS'NOUN'
p2194
F1.1000000000000001e-05
sg54
F1.9e-05
sS'PRON'
p2195
F0.000172
s(lp2196
(g302
I36
tp2197
atp2198
a(S'by\xc4\x87'
p2199
(dp2200
S'VERB'
p2201
F1.0
s(lp2202
tp2203
a(S'mo\xc5\xbce'
p2204
(dp2205
S'PRT'
p2206
F0.627497
sS'VERB'
p2207
F0.372503
s(lp2208
(g318
I37
tp2209
atp2210
a(S'je\xc5\xbceli'
p2211
(dp2212
S'CONJ'
p2213
F1.0
s(lp2214
(g311
I38
tp2215
atp2216
a(S'uczynimy'
p2217
(dp2218
S'VERB'
p2219
F1.0
s(lp2220
(g646
I40
tp2221
atp2222
a(S'to'
p2223
(dp2224
S'NOUN'
p2225
F0.556687
sS'ADP'
p2226
F2e-06
sS'PRT'
p2227
F0.391299
sg54
F5e-06
sS'CONJ'
p2228
F0.034731
sS'ADJ'
p2229
F0.017276000000000003
s(lp2230
(g653
I41
tp2231
atp2232
a(g1979
(dp2233
S'ADJ'
p2234
F0.0
sg54
F3e-06
sS'NOUN'
p2235
F1e-06
sS'ADP'
p2236
F0.999995
s(lp2237
(g337
I42
tp2238
atp2239
a(S'spos\xc3\xb3b'
p2240
(dp2241
S'ADJ'
p2242
F3.4e-05
sS'NOUN'
p2243
F0.999965
s(lp2244
tp2245
a(S'inteligentny'
p2246
(dp2247
S'ADJ'
p2248
F1.0
s(lp2249
(g337
I42
tp2250
atp2251
a(g21
(dp2252
g54
F0.0
sg23
F1.0
s(lp2253
(g21
I43
tp2254
atp2255
a(S'to'
p2256
(dp2257
S'NOUN'
p2258
F0.36344299999999996
sS'ADP'
p2259
F0.00094
sS'PRT'
p2260
F0.066406
sg54
F6.1e-05
sS'CONJ'
p2261
F0.339043
sS'ADJ'
p2262
F0.230109
s(lp2263
(g349
I44
tp2264
atp2265
a(S'mog\xc5\x82oby'
p2266
(dp2267
S'ADV'
p2268
F0.005026
sS'NOUN'
p2269
F0.617862
sS'PRT'
p2270
F0.224748
sS'VERB'
p2271
F0.07353
sS'CONJ'
p2272
F0.059619
sS'ADJ'
p2273
F0.019212
s(lp2274
(g356
I45
tp2275
atp2276
a(S'to'
p2277
(dp2278
S'NOUN'
p2279
F0.027275
sS'ADP'
p2280
F0.0
sS'PRT'
p2281
F0.020209
sg54
F0.0
sS'CONJ'
p2282
F0.057092
sS'ADJ'
p2283
F0.895424
s(lp2284
(g363
I46
tp2285
atp2286
a(S'przynie\xc5\x9b\xc4\x87'
p2287
(dp2288
S'VERB'
p2289
F1.0
s(lp2290
tp2291
a(S'korzy\xc5\x9bci'
p2292
(dp2293
S'NOUN'
p2294
F1.0000010000000001
s(lp2295
(g370
I47
tp2296
atp2297
a(S'samej'
p2298
(dp2299
S'ADJ'
p2300
F1.0
s(lp2301
(g699
I49
tp2302
atp2303
a(S'europie'
p2304
(dp2305
S'ADV'
p2306
F6.2e-05
sS'ADJ'
p2307
F0.0015400000000000004
sS'VERB'
p2308
F0.00087
sS'NOUN'
p2309
F0.997528
s(lp2310
(g390
I48
tp2311
atp2312
a(g23
(dp2313
g23
F1.0
s(lp2314
(g23
I50
tp2315
atp2316
asS'sl'
p2317
(lp2318
(S'tudi'
p2319
(dp2320
S'PRT'
p2321
F1.0
s(lp2322
(g25
I3
tp2323
atp2324
a(g1674
(dp2325
S'ADP'
p2326
F1.0
s(lp2327
(g33
I4
tp2328
atp2329
a(S'strategiji'
p2330
(dp2331
S'NOUN'
p2332
F1.0
s(lp2333
(g49
I7
tp2334
atp2335
a(S'za'
p2336
(dp2337
S'ADV'
p2338
F2.2e-05
sg54
F3.1e-05
sS'ADP'
p2339
F0.9999459999999999
s(lp2340
(g42
I5
tp2341
atp2342
a(S'leto'
p2343
(dp2344
S'NOUN'
p2345
F1.0
s(lp2346
tp2347
a(S'2020'
p2348
(dp2349
S'NUM'
p2350
F1.0
s(lp2351
(g160
I6
tp2352
atp2353
a(S'so'
p2354
(dp2355
g54
F0.022813
sS'VERB'
p2356
F0.977187
s(lp2357
(g66
I1
tp2358
atp2359
a(S'opombe'
p2360
(dp2361
S'NOUN'
p2362
F1.0
s(lp2363
(g74
I2
tp2364
atp2365
a(S'pod'
p2366
(dp2367
S'ADP'
p2368
F1.0
s(lp2369
(g74
I2
tp2370
atp2371
a(S'\xc4\x8drto'
p2372
(dp2373
S'NOUN'
p2374
F1.0
s(lp2375
(g74
I2
tp2376
atp2377
a(g21
(dp2378
g23
F1.0
s(lp2379
tp2380
a(S'ki'
p2381
(dp2382
S'CONJ'
p2383
F1.0
s(lp2384
tp2385
a(S'se'
p2386
(dp2387
S'PRON'
p2388
F0.999999
sg54
F1e-06
s(lp2389
(g87
I8
tp2390
atp2391
a(S'nana\xc5\xa1ajo'
p2392
(dp2393
S'VERB'
p2394
F1.0
s(lp2395
tp2396
a(S'na'
p2397
(dp2398
S'ADP'
p2399
F1.0
s(lp2400
(g94
I9
tp2401
atp2402
a(S'dosedanje'
p2403
(dp2404
S'ADJ'
p2405
F1.000001
s(lp2406
(g74
I2
tp2407
atp2408
a(S'politike'
p2409
(dp2410
S'NOUN'
p2411
F0.9999999999999999
s(lp2412
(g103
I10
tp2413
atp2414
a(g21
(dp2415
g23
F1.0
s(lp2416
(g21
I12
tp2417
atp2418
a(S'da'
p2419
(dp2420
S'PRT'
p2421
F4e-06
sS'CONJ'
p2422
F0.999979
sS'VERB'
p2423
F1.7e-05
sg54
F1e-06
s(lp2424
(g154
I13
tp2425
atp2426
a(S'je'
p2427
(dp2428
S'PRON'
p2429
F0.001246
sS'VERB'
p2430
F0.998753
sg54
F0.0
s(lp2431
(g489
I15
tp2432
atp2433
a(S'zagotovljeno'
p2434
(dp2435
S'ADV'
p2436
F0.401275
sS'NOUN'
p2437
F0.019856000000000002
sS'VERB'
p2438
F0.015470000000000001
sS'ADJ'
p2439
F0.5633990000000001
s(lp2440
(g173
I16
tp2441
atp2442
a(g21
(dp2443
g23
F1.0
s(lp2444
tp2445
a(S'da'
p2446
(dp2447
S'PRT'
p2448
F4.3e-05
sS'CONJ'
p2449
F0.999924
sS'VERB'
p2450
F3.2e-05
sg54
F1e-06
s(lp2451
(g182
I17
tp2452
atp2453
a(S'druge'
p2454
(dp2455
S'NUM'
p2456
F1.0
s(lp2457
(g196
I18
tp2458
atp2459
a(S'dr\xc5\xbeave'
p2460
(dp2461
S'NOUN'
p2462
F0.9999999999999999
s(lp2463
(g203
I19
tp2464
atp2465
a(S'...'
p2466
(dp2467
S'ADJ'
p2468
F0.009746
sg54
F0.018375
sS'NUM'
p2469
F0.934247
sS'NOUN'
p2470
F0.037632
s(lp2471
(g209
I20
tp2472
atp2473
a(S'in'
p2474
(dp2475
S'ADV'
p2476
F0.000125
sg54
F3.8e-05
sS'CONJ'
p2477
F0.999273
sS'NOUN'
p2478
F0.000565
s(lp2479
(g523
I21
tp2480
atp2481
a(S'tako'
p2482
(dp2483
S'ADV'
p2484
F0.956542
sS'PRON'
p2485
F0.008213
sS'CONJ'
p2486
F0.035244
s(lp2487
(g530
I22
tp2488
atp2489
a(S'dalje'
p2490
(dp2491
S'ADV'
p2492
F1.0
s(lp2493
(g214
I26
tp2494
atp2495
a(g21
(dp2496
g23
F1.0
s(lp2497
(g21
I27
tp2498
atp2499
a(S'vendar'
p2500
(dp2501
S'ADV'
p2502
F0.050112
sS'CONJ'
p2503
F0.949888
s(lp2504
tp2505
a(S'pa'
p2506
(dp2507
g54
F0.000203
sS'CONJ'
p2508
F0.999797
s(lp2509
(g238
I28
tp2510
atp2511
a(S'menim'
p2512
(dp2513
S'VERB'
p2514
F1.0
s(lp2515
tp2516
a(g21
(dp2517
g23
F1.0
s(lp2518
tp2519
a(S'da'
p2520
(dp2521
S'PRT'
p2522
F0.000137
sS'CONJ'
p2523
F0.999855
sS'VERB'
p2524
F8e-06
sg54
F0.0
s(lp2525
(g259
I30
tp2526
atp2527
a(S'bi'
p2528
(dp2529
g54
F0.000131
sS'VERB'
p2530
F0.999869
s(lp2531
tp2532
a(g21
(dp2533
g23
F1.0
s(lp2534
tp2535
a(S'\xc4\x8de'
p2536
(dp2537
S'CONJ'
p2538
F1.0
s(lp2539
(g268
I31
tp2540
atp2541
a(S'bodo'
p2542
(dp2543
S'VERB'
p2544
F1.0
s(lp2545
(g295
I33
tp2546
atp2547
a(S'pogoji'
p2548
(dp2549
S'NOUN'
p2550
F1.0
s(lp2551
(g282
I32
tp2552
atp2553
a(S'ugodni'
p2554
(dp2555
S'ADJ'
p2556
F1.0
s(lp2557
(g612
I34
tp2558
atp2559
a(S'in'
p2560
(dp2561
S'ADV'
p2562
F3.8e-05
sg54
F5e-06
sS'CONJ'
p2563
F0.999955
sS'NOUN'
p2564
F2e-06
s(lp2565
(g302
I36
tp2566
atp2567
a(S'\xc4\x8de'
p2568
(dp2569
S'CONJ'
p2570
F1.0
s(lp2571
(g311
I38
tp2572
atp2573
a(S'to'
p2574
(dp2575
S'PRON'
p2576
F0.999958
sg54
F4.2e-05
s(lp2577
(g653
I41
tp2578
atp2579
a(S'morda'
p2580
(dp2581
S'PRT'
p2582
F1.0
s(lp2583
(g318
I37
tp2584
atp2585
a(S'storimo'
p2586
(dp2587
S'VERB'
p2588
F1.0
s(lp2589
(g646
I40
tp2590
atp2591
a(S'pametno'
p2592
(dp2593
S'ADV'
p2594
F0.893522
sS'ADJ'
p2595
F0.10647799999999999
s(lp2596
(g337
I42
tp2597
atp2598
a(g21
(dp2599
g23
F1.0
s(lp2600
(g21
I43
tp2601
atp2602
a(S'lahko'
p2603
(dp2604
S'ADV'
p2605
F0.999788
sS'ADJ'
p2606
F0.000212
s(lp2607
(g356
I45
tp2608
atp2609
a(S'koristilo'
p2610
(dp2611
S'VERB'
p2612
F1.0
s(lp2613
(g370
I47
tp2614
atp2615
a(S'tudi'
p2616
(dp2617
S'PRT'
p2618
F1.0
s(lp2619
(g363
I46
tp2620
atp2621
a(S'evropi'
p2622
(dp2623
S'ADV'
p2624
F0.00289
sS'ADJ'
p2625
F0.060849999999999994
sS'VERB'
p2626
F0.13400199999999998
sS'NOUN'
p2627
F0.8022580000000002
s(lp2628
(g390
I48
tp2629
atp2630
a(g23
(dp2631
g23
F1.0
s(lp2632
(g23
I50
tp2633
atp2634
asS'es'
p2635
(lp2636
(S'tambi\xc3\xa9n'
p2637
(dp2638
S'ADV'
p2639
F1.0
s(lp2640
(g25
I3
tp2641
atp2642
a(S'hay'
p2643
(dp2644
S'VERB'
p2645
F1.0
s(lp2646
(g7
I0
tp2647
atp2648
a(S'notas'
p2649
(dp2650
S'NOUN'
p2651
F1.0
s(lp2652
(g74
I2
tp2653
atp2654
a(S'al'
p2655
(dp2656
S'CONJ'
p2657
F0.000852
sS'ADP'
p2658
F0.999148
s(lp2659
tp2660
a(S'pie'
p2661
(dp2662
S'NOUN'
p2663
F1.0
s(lp2664
(g74
I2
tp2665
atp2666
a(S'en'
p2667
(dp2668
g54
F0.0
sS'CONJ'
p2669
F0.0
sS'ADP'
p2670
F1.0
s(lp2671
(g33
I4
tp2672
atp2673
a(S'la'
p2674
(dp2675
S'NOUN'
p2676
F0.0
sS'PRON'
p2677
F0.0
sS'DET'
p2678
F0.999999
sg54
F0.0
s(lp2679
(g42
I5
tp2680
atp2681
a(S'estrategia'
p2682
(dp2683
S'NOUN'
p2684
F1.0
s(lp2685
(g49
I7
tp2686
atp2687
a(S'para'
p2688
(dp2689
S'CONJ'
p2690
F0.003797
sS'ADP'
p2691
F0.996203
s(lp2692
tp2693
a(S'2020'
p2694
(dp2695
g54
F0.058494
sS'NUM'
p2696
F0.941506
s(lp2697
(g160
I6
tp2698
atp2699
a(S'que'
p2700
(dp2701
g54
F4e-06
sS'CONJ'
p2702
F0.999996
s(lp2703
tp2704
a(S'hacen'
p2705
(dp2706
S'VERB'
p2707
F1.0
s(lp2708
tp2709
a(S'referencia'
p2710
(dp2711
S'NOUN'
p2712
F1.0
s(lp2713
(g87
I8
tp2714
atp2715
a(g15
(dp2716
g54
F0.000427
sS'CONJ'
p2717
F3e-06
sS'ADP'
p2718
F0.99957
s(lp2719
(g94
I9
tp2720
atp2721
a(S'las'
p2722
(dp2723
S'PRON'
p2724
F0.0
sS'DET'
p2725
F1.0
s(lp2726
tp2727
a(S'pol\xc3\xadticas'
p2728
(dp2729
S'ADJ'
p2730
F0.085544
sS'NOUN'
p2731
F0.914456
s(lp2732
(g103
I10
tp2733
atp2734
a(S'hasta'
p2735
(dp2736
S'ADP'
p2737
F1.0
s(lp2738
tp2739
a(S'la'
p2740
(dp2741
S'NOUN'
p2742
F0.0
sS'PRON'
p2743
F0.0
sS'DET'
p2744
F0.999999
sg54
F0.0
s(lp2745
tp2746
a(S'fecha'
p2747
(dp2748
S'NOUN'
p2749
F1.0
s(lp2750
(g116
I11
tp2751
atp2752
a(g21
(dp2753
g23
F1.0
s(lp2754
(g21
I12
tp2755
atp2756
a(S'siempre'
p2757
(dp2758
S'CONJ'
p2759
F1.0
s(lp2760
(g173
I16
tp2761
atp2762
a(S'que'
p2763
(dp2764
S'CONJ'
p2765
F1.0
s(lp2766
(g182
I17
tp2767
atp2768
a(S'las'
p2769
(dp2770
S'PRON'
p2771
F0.0
sS'DET'
p2772
F1.0
s(lp2773
tp2774
a(S'dem\xc3\xa1s'
p2775
(dp2776
S'ADJ'
p2777
F1.0
s(lp2778
(g196
I18
tp2779
atp2780
a(S'naciones'
p2781
(dp2782
S'NOUN'
p2783
F1.0
s(lp2784
(g203
I19
tp2785
atp2786
a(S'...'
p2787
(dp2788
g23
F1.0
s(lp2789
(g209
I20
tp2790
atp2791
a(g21
(dp2792
g23
F1.0
s(lp2793
tp2794
a(g10
(dp2795
g54
F1.1e-05
sS'CONJ'
p2796
F0.999989
s(lp2797
(g523
I21
tp2798
atp2799
a(S'as\xc3\xad'
p2800
(dp2801
S'ADV'
p2802
F0.947999
sS'CONJ'
p2803
F0.052001
s(lp2804
(g557
I25
tp2805
atp2806
a(S'sucesivamente'
p2807
(dp2808
S'ADV'
p2809
F1.0
s(lp2810
(g214
I26
tp2811
atp2812
a(g21
(dp2813
g23
F1.0
s(lp2814
(g21
I27
tp2815
atp2816
a(S'pero'
p2817
(dp2818
S'CONJ'
p2819
F0.999611
sS'NOUN'
p2820
F0.000389
s(lp2821
(g238
I28
tp2822
atp2823
a(S'creo'
p2824
(dp2825
S'VERB'
p2826
F1.0
s(lp2827
(g259
I30
tp2828
atp2829
a(S'que'
p2830
(dp2831
g54
F0.0
sS'CONJ'
p2832
F1.0
s(lp2833
(g245
I29
tp2834
atp2835
a(S'si'
p2836
(dp2837
S'CONJ'
p2838
F0.999996
sS'NOUN'
p2839
F4e-06
s(lp2840
(g268
I31
tp2841
atp2842
a(S'se'
p2843
(dp2844
S'PRON'
p2845
F1.0
sS'VERB'
p2846
F0.0
s(lp2847
(g295
I33
tp2848
atp2849
a(S'dan'
p2850
(dp2851
S'VERB'
p2852
F1.0
s(lp2853
(g282
I32
tp2854
atp2855
a(S'las'
p2856
(dp2857
S'PRON'
p2858
F0.0
sS'DET'
p2859
F1.0
s(lp2860
tp2861
a(S'condiciones'
p2862
(dp2863
S'NOUN'
p2864
F1.0
s(lp2865
(g282
I32
tp2866
atp2867
a(S'para'
p2868
(dp2869
S'CONJ'
p2870
F0.000597
sS'ADP'
p2871
F0.999403
s(lp2872
tp2873
a(S'ello'
p2874
(dp2875
S'PRON'
p2876
F1.0
s(lp2877
(g530
I22
tp2878
atp2879
a(g10
(dp2880
g54
F2e-06
sS'CONJ'
p2881
F0.999998
s(lp2882
(g550
I24
tp2883
atp2884
a(S'si'
p2885
(dp2886
S'CONJ'
p2887
F0.993463
sS'NOUN'
p2888
F0.006537
s(lp2889
(g311
I38
tp2890
atp2891
a(g21
(dp2892
g23
F1.0
s(lp2893
(g21
I35
tp2894
atp2895
a(S'tal'
p2896
(dp2897
S'ADV'
p2898
F1.0
s(lp2899
tp2900
a(S'vez'
p2901
(dp2902
S'ADV'
p2903
F1.0
s(lp2904
(g318
I37
tp2905
atp2906
a(g21
(dp2907
g23
F1.0
s(lp2908
tp2909
a(S'lo'
p2910
(dp2911
S'PRON'
p2912
F0.997636
sS'DET'
p2913
F0.002364
s(lp2914
(g325
I39
tp2915
atp2916
a(S'hacemos'
p2917
(dp2918
S'VERB'
p2919
F1.0
s(lp2920
(g646
I40
tp2921
atp2922
a(S'de'
p2923
(dp2924
g54
F1.4e-05
sS'CONJ'
p2925
F0.000683
sS'ADP'
p2926
F0.999302
s(lp2927
tp2928
a(S'forma'
p2929
(dp2930
S'VERB'
p2931
F0.000141
sS'NOUN'
p2932
F0.999859
s(lp2933
tp2934
a(S'inteligente'
p2935
(dp2936
S'ADJ'
p2937
F1.0
s(lp2938
(g337
I42
tp2939
atp2940
a(g21
(dp2941
g23
F1.0
s(lp2942
(g21
I43
tp2943
atp2944
a(S'tambi\xc3\xa9n'
p2945
(dp2946
S'ADV'
p2947
F1.0
s(lp2948
(g363
I46
tp2949
atp2950
a(S'podr\xc3\xadan'
p2951
(dp2952
S'VERB'
p2953
F1.0
s(lp2954
(g356
I45
tp2955
atp2956
a(S'beneficiar'
p2957
(dp2958
S'VERB'
p2959
F1.0
s(lp2960
(g370
I47
tp2961
atp2962
a(g15
(dp2963
g54
F0.000261
sS'CONJ'
p2964
F5e-06
sS'ADP'
p2965
F0.999734
s(lp2966
tp2967
a(S'la'
p2968
(dp2969
S'NOUN'
p2970
F4.9e-05
sS'PRON'
p2971
F1e-06
sS'DET'
p2972
F0.999945
sg54
F5e-06
s(lp2973
tp2974
a(S'propia'
p2975
(dp2976
S'ADJ'
p2977
F1.0
s(lp2978
(g699
I49
tp2979
atp2980
a(S'europa'
p2981
(dp2982
S'NOUN'
p2983
F1.0
s(lp2984
(g390
I48
tp2985
atp2986
a(g23
(dp2987
g23
F1.0
s(lp2988
(g23
I50
tp2989
atp2990
as.