(dp0
S'fr'
p1
(lp2
(S'je'
p3
(dp4
S'PRON'
p5
F1.0
s(lp6
(S'i'
p7
I0
tp8
atp9
a(S'demande'
p10
(dp11
S'VERB'
p12
F0.995164
sS'NOUN'
p13
F0.004836
s(lp14
(S'call'
p15
I1
tp16
atp17
a(S'que'
p18
(dp19
S'ADV'
p20
F0.112277
sS'PRON'
p21
F0.036465
sS'CONJ'
p22
F0.851258
s(lp23
(S'for'
p24
I2
tp25
atp26
a(S'le'
p27
(dp28
S'PRON'
p29
F0.000547
sS'DET'
p30
F0.999453
s(lp31
(S'the'
p32
I3
tp33
atp34
a(S'principe'
p35
(dp36
S'NOUN'
p37
F1.0
s(lp38
(S'principal'
p39
I4
tp40
atp41
a(S"d'"
p42
(dp43
S'NOUN'
p44
F0.032441
sS'VERB'
p45
F0.694014
sS'ADJ'
p46
F0.273544
s(lp47
(S'of'
p48
I5
tp49
atp50
a(S'\xc3\xa9galit\xc3\xa9'
p51
(dp52
S'NOUN'
p53
F1.0
s(lp54
(S'equality'
p55
I6
tp56
atp57
a(S'soit'
p58
(dp59
S'ADV'
p60
F0.031091
sS'CONJ'
p61
F0.196968
sS'VERB'
p62
F0.771941
s(lp63
(S'be'
p64
I8
tp65
atp66
a(S'observ\xc3\xa9'
p67
(dp68
S'VERB'
p69
F1.0
s(lp70
(S'observed'
p71
I9
tp72
atp73
a(S'et'
p74
(dp75
S'CONJ'
p76
F1.0
s(lp77
(S'and'
p78
I10
tp79
atp80
a(S'respect\xc3\xa9'
p81
(dp82
S'VERB'
p83
F1.0
s(lp84
(S'honoured'
p85
I11
tp86
atp87
a(S'.'
p88
(dp89
g88
F1.0
s(lp90
(g88
I12
tp91
atp92
asS'en'
p93
(lp94
(g7
(dp95
S'X'
p96
F0.002673
sS'NOUN'
p97
F0.9973270000000001
s(lp98
(g7
I0
tp99
atp100
a(g15
(dp101
S'ADJ'
p102
F0.007816
sS'VERB'
p103
F0.17519099999999999
sS'NOUN'
p104
F0.816993
s(lp105
(g15
I1
tp106
atp107
a(g24
(dp108
S'ADP'
p109
F1.0
s(lp110
(g24
I2
tp111
atp112
a(g32
(dp113
S'NOUN'
p114
F1e-06
sS'DET'
p115
F0.999999
s(lp116
(g32
I3
tp117
atp118
a(g39
(dp119
S'ADJ'
p120
F0.242225
sS'NOUN'
p121
F0.757775
s(lp122
(g39
I4
tp123
atp124
a(g48
(dp125
S'ADP'
p126
F1.0
s(lp127
(g48
I5
tp128
atp129
a(g55
(dp130
S'NOUN'
p131
F1.0
s(lp132
(g55
I6
tp133
atp134
a(S'to'
p135
(dp136
S'ADV'
p137
F0.0
sS'PRT'
p138
F1.0
sS'ADP'
p139
F0.0
s(lp140
(g135
I7
tp141
atp142
a(g64
(dp143
S'VERB'
p144
F1.0
s(lp145
(g64
I8
tp146
atp147
a(g71
(dp148
S'VERB'
p149
F0.950192
sS'ADJ'
p150
F0.049807
s(lp151
(g71
I9
tp152
atp153
a(g78
(dp154
S'CONJ'
p155
F0.999992
sS'NOUN'
p156
F8e-06
s(lp157
(g78
I10
tp158
atp159
a(g85
(dp160
S'VERB'
p161
F1.0
s(lp162
(g85
I11
tp163
atp164
a(g88
(dp165
g88
F1.0
s(lp166
(g88
I12
tp167
atp168
asS'nl'
p169
(lp170
(S'ik'
p171
(dp172
S'PRON'
p173
F0.99999
sS'NOUN'
p174
F1e-05
s(lp175
(g7
I0
tp176
atp177
a(S'verzoek'
p178
(dp179
S'VERB'
p180
F0.424649
sS'NOUN'
p181
F0.575351
s(lp182
(g15
I1
tp183
atp184
a(S'erom'
p185
(dp186
S'ADV'
p187
F1.0
s(lp188
(g39
I4
tp189
atp190
a(S'dat'
p191
(dp192
S'PRON'
p193
F0.5761
sS'CONJ'
p194
F0.4239
s(lp195
(g24
I2
tp196
atp197
a(S'het'
p198
(dp199
S'PRON'
p200
F0.01887
sS'DET'
p201
F0.98113
s(lp202
(g32
I3
tp203
atp204
a(S'gelijkheidsbeginsel'
p205
(dp206
S'NOUN'
p207
F1.0
s(lp208
(g55
I6
tp209
atp210
a(S'wordt'
p211
(dp212
S'VERB'
p213
F1.0
s(lp214
(g64
I8
tp215
atp216
a(S'nageleefd'
p217
(dp218
S'VERB'
p219
F1.0
s(lp220
(g71
I9
tp221
atp222
a(S'en'
p223
(dp224
S'CONJ'
p225
F1.0
s(lp226
(g78
I10
tp227
atp228
a(S'geacht'
p229
(dp230
S'VERB'
p231
F0.919232
sS'ADJ'
p232
F0.080768
s(lp233
(g85
I11
tp234
atp235
a(g88
(dp236
g88
F1.0
s(lp237
(g88
I12
tp238
atp239
asS'de'
p240
(lp241
(S'ich'
p242
(dp243
S'PRON'
p244
F1.0
s(lp245
(g7
I0
tp246
atp247
a(S'fordere'
p248
(dp249
S'VERB'
p250
F1.0
s(lp251
(g15
I1
tp252
atp253
a(S'die'
p254
(dp255
S'PRON'
p256
F0.005248
sS'DET'
p257
F0.994751
s(lp258
(g32
I3
tp259
atp260
a(S'einhaltung'
p261
(dp262
S'VERB'
p263
F0.002981
sS'NOUN'
p264
F0.992336
s(lp265
(g71
I9
tp266
atp267
a(S'und'
p268
(dp269
S'CONJ'
p270
F1.0
s(lp271
(g78
I10
tp272
atp273
a(S'achtung'
p274
(dp275
S'ADJ'
p276
F0.120333
sS'NOUN'
p277
F0.863005
s(lp278
(g85
I11
tp279
atp280
a(S'des'
p281
(dp282
S'DET'
p283
F1.0
s(lp284
(g48
I5
tp285
atp286
a(S'gleichheitsprinzips'
p287
(dp288
S'ADJ'
p289
F0.00021
sS'NOUN'
p290
F0.999732
s(lp291
(g55
I6
tp292
atp293
a(g88
(dp294
g88
F1.0
s(lp295
(g88
I12
tp296
atp297
asS'it'
p298
(lp299
(S'chiedo'
p300
(dp301
S'VERB'
p302
F1.0
s(lp303
tp304
a(S','
p305
(dp306
g88
F1.0
s(lp307
tp308
a(S'quindi'
p309
(dp310
S'ADV'
p311
F0.996527
sS'NOUN'
p312
F0.003473
s(lp313
(g15
I1
tp314
atp315
a(g305
(dp316
g88
F1.0
s(lp317
tp318
a(S'che'
p319
(dp320
S'PRON'
p321
F0.924214
sS'CONJ'
p322
F0.075556
sS'ADJ'
p323
F0.000231
s(lp324
(g24
I2
tp325
atp326
a(S'il'
p327
(dp328
S'DET'
p329
F1.0
s(lp330
(g32
I3
tp331
atp332
a(S'principio'
p333
(dp334
S'VERB'
p335
F0.000145
sS'NOUN'
p336
F0.999855
s(lp337
(g39
I4
tp338
atp339
a(S'di'
p340
(dp341
S'CONJ'
p342
F4e-06
sS'ADP'
p343
F0.999996
s(lp344
(g48
I5
tp345
atp346
a(S'uguaglianza'
p347
(dp348
S'NOUN'
p349
F1.0
s(lp350
(g55
I6
tp351
atp352
a(S'venga'
p353
(dp354
S'VERB'
p355
F1.0
s(lp356
(g64
I8
tp357
atp358
a(S'osservato'
p359
(dp360
S'VERB'
p361
F1.0
s(lp362
(g71
I9
tp363
atp364
a(S'e'
p365
(dp366
S'CONJ'
p367
F1.0
s(lp368
(g78
I10
tp369
atp370
a(S'onorato'
p371
(dp372
S'VERB'
p373
F0.812761
sS'ADJ'
p374
F0.187239
s(lp375
(g85
I11
tp376
atp377
a(g88
(dp378
g88
F1.0
s(lp379
(g88
I12
tp380
atp381
asS'sk'
p382
(lp383
(S'\xc5\xbdiadam'
p384
(dp385
S'VERB'
p386
F1.0
s(lp387
(g15
I1
tp388
atp389
a(g305
(dp390
g88
F1.0
s(lp391
tp392
a(S'aby'
p393
(dp394
g96
F3.9e-05
sS'CONJ'
p395
F0.999961
s(lp396
(g24
I2
tp397
atp398
a(S't\xc3\xa1to'
p399
(dp400
S'PRON'
p401
F1.0
s(lp402
(g39
I4
tp403
atp404
a(S'rovnos\xc5\xa5'
p405
(dp406
S'NOUN'
p407
F1.0
s(lp408
(g55
I6
tp409
atp410
a(S'bola'
p411
(dp412
S'VERB'
p413
F1.0
s(lp414
(g64
I8
tp415
atp416
a(S're\xc5\xa1pektovan\xc3\xa1'
p417
(dp418
S'VERB'
p419
F1.0
s(lp420
(g71
I9
tp421
atp422
a(S'a'
p423
(dp424
g96
F0.001598
sS'CONJ'
p425
F0.997464
sS'NOUN'
p426
F0.0005830000000000001
sS'ADP'
p427
F0.000337
sS'PRT'
p428
F1.8e-05
s(lp429
(g78
I10
tp430
atp431
a(S'dodr\xc5\xbeiavan\xc3\xa1'
p432
(dp433
S'VERB'
p434
F1.0
s(lp435
(g85
I11
tp436
atp437
a(g88
(dp438
g88
F1.0
s(lp439
(g88
I12
tp440
atp441
asS'pl'
p442
(lp443
(S'apeluj\xc4\x99'
p444
(dp445
S'VERB'
p446
F1.0
s(lp447
(g15
I1
tp448
atp449
a(S'o'
p450
(dp451
g96
F0.000252
sS'VERB'
p452
F1.1e-05
sS'NOUN'
p453
F5e-06
sS'ADP'
p454
F0.999728
sS'PRT'
p455
F3e-06
s(lp456
(g24
I2
tp457
atp458
a(S'przestrzeganie'
p459
(dp460
S'VERB'
p461
F1.0
s(lp462
(g71
I9
tp463
atp464
a(g7
(dp465
S'PRT'
p466
F0.013091
sS'CONJ'
p467
F0.986841
sS'NOUN'
p468
F2.7000000000000002e-05
sg96
F1.2e-05
sS'PRON'
p469
F3.1e-05
s(lp470
(g78
I10
tp471
atp472
a(S'poszanowanie'
p473
(dp474
S'NOUN'
p475
F1.0
s(lp476
(g85
I11
tp477
atp478
a(S'zasady'
p479
(dp480
S'NOUN'
p481
F1.0
s(lp482
(g39
I4
tp483
atp484
a(S'r\xc3\xb3wno\xc5\x9bci'
p485
(dp486
S'NOUN'
p487
F1.0
s(lp488
(g55
I6
tp489
atp490
a(g88
(dp491
g88
F1.0
s(lp492
(g88
I12
tp493
atp494
asS'sl'
p495
(lp496
(S'pozivam'
p497
(dp498
S'ADV'
p499
F0.00653
sS'ADJ'
p500
F0.013131999999999998
sS'VERB'
p501
F0.475532
sS'NOUN'
p502
F0.504808
s(lp503
tp504
a(S'k'
p505
(dp506
S'NOUN'
p507
F0.002649
sS'ADP'
p508
F0.997351
s(lp509
(g15
I1
tp510
atp511
a(S'upo\xc5\xa1tevanju'
p512
(dp513
S'NOUN'
p514
F1.0
s(lp515
(g71
I9
tp516
atp517
a(S'in'
p518
(dp519
S'ADV'
p520
F1.6e-05
sg96
F4e-05
sS'CONJ'
p521
F0.999934
sS'NOUN'
p522
F1e-05
s(lp523
(g78
I10
tp524
atp525
a(S'spo\xc5\xa1tovanju'
p526
(dp527
S'NOUN'
p528
F1.0
s(lp529
(g85
I11
tp530
atp531
a(S'na\xc4\x8dela'
p532
(dp533
S'VERB'
p534
F0.102248
sS'NOUN'
p535
F0.897753
s(lp536
(g39
I4
tp537
atp538
a(S'enakosti'
p539
(dp540
S'NOUN'
p541
F1.0
s(lp542
(g55
I6
tp543
atp544
a(g88
(dp545
g88
F1.0
s(lp546
(g88
I12
tp547
atp548
asS'es'
p549
(lp550
(S'pido'
p551
(dp552
S'VERB'
p553
F1.0
s(lp554
(g15
I1
tp555
atp556
a(S'que'
p557
(dp558
g96
F0.0
sS'CONJ'
p559
F1.0
s(lp560
(g24
I2
tp561
atp562
a(S'se'
p563
(dp564
S'PRON'
p565
F1.0
sS'VERB'
p566
F0.0
s(lp567
(g64
I8
tp568
atp569
a(S'cumpla'
p570
(dp571
S'VERB'
p572
F1.0
s(lp573
(g71
I9
tp574
atp575
a(S'y'
p576
(dp577
g96
F1.7e-05
sS'CONJ'
p578
F0.999983
s(lp579
(g78
I10
tp580
atp581
a(S'se'
p582
(dp583
S'PRON'
p584
F1.0
sS'VERB'
p585
F0.0
s(lp586
tp587
a(S'respete'
p588
(dp589
S'VERB'
p590
F1.0
s(lp591
(g85
I11
tp592
atp593
a(S'el'
p594
(dp595
S'PRON'
p596
F1e-06
sS'DET'
p597
F0.999999
s(lp598
(g32
I3
tp599
atp600
a(S'principio'
p601
(dp602
S'NOUN'
p603
F1.0
s(lp604
(g39
I4
tp605
atp606
a(S'de'
p607
(dp608
g96
F2.9e-05
sS'CONJ'
p609
F0.000449
sS'ADP'
p610
F0.999522
s(lp611
(g48
I5
tp612
atp613
a(S'igualdad'
p614
(dp615
S'NOUN'
p616
F1.0
s(lp617
(g55
I6
tp618
atp619
a(g88
(dp620
g88
F1.0
s(lp621
(g88
I12
tp622
atp623
as.