(dp0
S'fr'
p1
(lp2
(S'les'
p3
(dp4
S'PRON'
p5
F0.000397
sS'DET'
p6
F0.99958
sS'ADP'
p7
F2.3e-05
s(lp8
tp9
a(S'citoyens'
p10
(dp11
S'NOUN'
p12
F1.0
s(lp13
(S'citizens'
p14
I1
tp15
atp16
a(S'tch\xc3\xa8ques'
p17
(dp18
S'NOUN'
p19
F0.025222
sS'ADJ'
p20
F0.974778
s(lp21
(S'czech'
p22
I0
tp23
atp24
a(S'se'
p25
(dp26
S'PRON'
p27
F1.0
s(lp28
tp29
a(S'plaignent'
p30
(dp31
S'VERB'
p32
F1.0
s(lp33
(S'complaining'
p34
I3
tp35
atp36
a(S'de'
p37
(dp38
S'ADP'
p39
F1.0
s(lp40
tp41
a(S'plus'
p42
(dp43
S'ADV'
p44
F1.0
sS'VERB'
p45
F0.0
s(lp46
tp47
a(S'en'
p48
(dp49
S'PRON'
p50
F0.095992
sS'ADP'
p51
F0.904008
s(lp52
(S'ever'
p53
I4
tp54
atp55
a(S'plus'
p56
(dp57
S'ADV'
p58
F0.999827
sS'VERB'
p59
F0.000173
s(lp60
(S'more'
p61
I5
tp62
atp63
a(S'fr\xc3\xa9quemment-'
p64
(dp65
S'NOUN'
p66
F0.233786
sS'VERB'
p67
F0.30802399999999996
sS'ADJ'
p68
F0.458186
sS'X'
p69
F3e-06
s(lp70
(S'czech-german'
p71
I21
tp72
atp73
a(S'aupr\xc3\xa8s'
p74
(dp75
S'ADV'
p76
F1.0
s(lp77
(g71
I21
tp78
atp79
a(S'de'
p80
(dp81
S'ADP'
p82
F1.0
s(lp83
(S'to'
p84
I9
tp85
atp86
a(S'ma'
p87
(dp88
S'PRON'
p89
F1.0
s(lp90
tp91
a(S'personne'
p92
(dp93
S'ADV'
p94
F3e-06
sS'NOUN'
p95
F0.999997
s(lp96
(S'personally'
p97
I11
tp98
atp99
a(S'et'
p100
(dp101
S'CONJ'
p102
F1.0
s(lp103
(S'and'
p104
I15
tp105
atp106
a(S'des'
p107
(dp108
S'DET'
p109
F0.000609
sS'ADP'
p110
F0.999391
s(lp111
tp112
a(S'repr\xc3\xa9sentants'
p113
(dp114
S'NOUN'
p115
F1.0
s(lp116
(S'representatives'
p117
I18
tp118
atp119
a(S"d'"
p120
(dp121
S'NOUN'
p122
F0.032441
sS'VERB'
p123
F0.694014
sS'ADJ'
p124
F0.273544
s(lp125
tp126
a(S'autorit\xc3\xa9s'
p127
(dp128
S'NOUN'
p129
F1.0
s(lp130
(S'authority'
p131
I17
tp132
atp133
a(S'locales'
p134
(dp135
S'NOUN'
p136
F0.003936
sS'ADJ'
p137
F0.996064
s(lp138
(S'local'
p139
I16
tp140
atp141
a(S'et'
p142
(dp143
S'CONJ'
p144
F1.0
s(lp145
(S'and'
p146
I12
tp147
atp148
a(S'r\xc3\xa9gionales'
p149
(dp150
S'ADJ'
p151
F1.0
s(lp152
(S'regional'
p153
I14
tp154
atp155
a(S'de'
p156
(dp157
S'ADP'
p158
F1.0
s(lp159
(S'in'
p160
I19
tp161
atp162
a(S'la'
p163
(dp164
S'PRON'
p165
F1.2e-05
sS'DET'
p166
F0.999988
sS'NOUN'
p167
F0.0
s(lp168
(S'the'
p169
I20
tp170
atp171
a(S'r\xc3\xa9gion'
p172
(dp173
S'NOUN'
p174
F1.0
s(lp175
(S'region'
p176
I23
tp177
atp178
a(S'frontali\xc3\xa8re'
p179
(dp180
S'NOUN'
p181
F0.001511
sS'ADJ'
p182
F0.998489
s(lp183
(S'border'
p184
I22
tp185
atp186
a(S'germano-tch\xc3\xa8que'
p187
(dp188
S'ADJ'
p189
F0.012959
sS'VERB'
p190
F0.005628000000000001
sS'NOUN'
p191
F0.981413
s(lp192
(S'czech-german'
p193
I35
tp194
atp195
a(S'-'
p196
(dp197
S'.'
p198
F1.0
s(lp199
(g196
I24
tp200
atp201
a(S'du'
p202
(dp203
S'ADP'
p204
F1.0
s(lp205
(S'about'
p206
I25
tp207
atp208
a(S'harc\xc3\xa8lement'
p209
(dp210
S'NOUN'
p211
F1.0
s(lp212
(S'harassment'
p213
I26
tp214
atp215
a(S'pratiqu\xc3\xa9'
p216
(dp217
S'VERB'
p218
F1.0
s(lp219
tp220
a(S'par'
p221
(dp222
S'NOUN'
p223
F0.0
sS'ADP'
p224
F1.0
s(lp225
(S'by'
p226
I27
tp227
atp228
a(S'la'
p229
(dp230
S'PRON'
p231
F0.001241
sS'DET'
p232
F0.998758
sS'NOUN'
p233
F1e-06
s(lp234
(S'the'
p235
I28
tp236
atp237
a(S'police'
p238
(dp239
S'VERB'
p240
F0.0017070000000000002
sS'NOUN'
p241
F0.998293
s(lp242
(S'police'
p243
I30
tp244
atp245
a(S'allemande'
p246
(dp247
S'NOUN'
p248
F0.012961
sS'ADJ'
p249
F0.987039
s(lp250
(S'german'
p251
I29
tp252
atp253
a(S"lorsqu'"
p254
(dp255
S'ADJ'
p256
F0.119936
sS'VERB'
p257
F0.20811800000000003
sS'NOUN'
p258
F0.671945
s(lp259
(S'when'
p260
I31
tp261
atp262
a(S'ils'
p263
(dp264
S'PRON'
p265
F1.0
s(lp266
(S'they'
p267
I32
tp268
atp269
a(S'traversent'
p270
(dp271
S'VERB'
p272
F1.0
s(lp273
(S'cross'
p274
I33
tp275
atp276
a(S'la'
p277
(dp278
S'PRON'
p279
F2.7e-05
sS'DET'
p280
F0.999972
sS'NOUN'
p281
F0.0
s(lp282
(S'the'
p283
I34
tp284
atp285
a(S'fronti\xc3\xa8re'
p286
(dp287
S'ADJ'
p288
F0.033751
sS'NOUN'
p289
F0.966249
s(lp290
tp291
a(S'entre'
p292
(dp293
S'VERB'
p294
F0.0005189999999999999
sS'ADP'
p295
F0.999481
s(lp296
(g71
I21
tp297
atp298
a(S'les'
p299
(dp300
S'PRON'
p301
F3e-06
sS'DET'
p302
F0.999981
sS'ADP'
p303
F1.6e-05
s(lp304
(S'border'
p305
I36
tp306
atp307
a(S'deux'
p308
(dp309
S'NUM'
p310
F0.999934
sS'NOUN'
p311
F6.6e-05
s(lp312
(g193
I35
tp313
atp314
a(S'pays'
p315
(dp316
S'NOUN'
p317
F1.0
s(lp318
tp319
a(S','
p320
(dp321
g198
F1.0
s(lp322
(g320
I37
tp323
atp324
a(S"qu'"
p325
(dp326
S'NOUN'
p327
F0.204295
sS'VERB'
p328
F0.394755
sS'ADJ'
p329
F0.400951
s(lp330
tp331
a(S'ils'
p332
(dp333
S'PRON'
p334
F1.0
s(lp335
(S'either'
p336
I38
tp337
atp338
a(S'soient'
p339
(dp340
S'VERB'
p341
F1.0
s(lp342
(g193
I35
tp343
atp344
a(S'en'
p345
(dp346
S'PRON'
p347
F0.004983
sS'ADP'
p348
F0.995017
s(lp349
(S'in'
p350
I39
tp351
atp352
a(S'groupe'
p353
(dp354
S'VERB'
p355
F0.003601
sS'NOUN'
p356
F0.9964
s(lp357
(S'groups'
p358
I40
tp359
atp360
a(S'ou'
p361
(dp362
S'CONJ'
p363
F1.0
s(lp364
(S'or'
p365
I41
tp366
atp367
a(S'dans'
p368
(dp369
S'NOUN'
p370
F0.000614
sS'ADP'
p371
F0.999386
s(lp372
(S'in'
p373
I42
tp374
atp375
a(S'des'
p376
(dp377
S'DET'
p378
F0.00067
sS'ADP'
p379
F0.99933
s(lp380
tp381
a(S'v\xc3\xa9hicules'
p382
(dp383
S'VERB'
p384
F1e-06
sS'NOUN'
p385
F0.999999
s(lp386
(S'vehicles'
p387
I44
tp388
atp389
a(S'priv\xc3\xa9s'
p390
(dp391
S'VERB'
p392
F0.688938
sS'ADJ'
p393
F0.311062
s(lp394
(S'private'
p395
I43
tp396
atp397
a(g198
(dp398
g198
F1.0
s(lp399
(g198
I45
tp400
atp401
asS'en'
p402
(lp403
(g22
(dp404
S'NOUN'
p405
F1.0
s(lp406
(g22
I0
tp407
atp408
a(g14
(dp409
S'NOUN'
p410
F1.0
s(lp411
(g14
I1
tp412
atp413
a(S'are'
p414
(dp415
S'VERB'
p416
F1.0
sS'NOUN'
p417
F0.0
s(lp418
(g414
I2
tp419
atp420
a(g34
(dp421
S'VERB'
p422
F1.0
s(lp423
(g34
I3
tp424
atp425
a(g53
(dp426
S'ADV'
p427
F1.0
s(lp428
(g53
I4
tp429
atp430
a(g61
(dp431
S'ADV'
p432
F0.823004
sS'ADJ'
p433
F0.176996
s(lp434
(g61
I5
tp435
atp436
a(S'frequently'
p437
(dp438
S'ADV'
p439
F1.0
s(lp440
(g437
I6
tp441
atp442
a(g196
(dp443
g198
F1.0
s(lp444
(g196
I7
tp445
atp446
a(S'both'
p447
(dp448
S'CONJ'
p449
F0.93747
sS'DET'
p450
F0.06253
s(lp451
(g447
I8
tp452
atp453
a(g84
(dp454
S'ADV'
p455
F0.000254
sS'PRT'
p456
F0.999573
sS'ADP'
p457
F0.000173
s(lp458
(g84
I9
tp459
atp460
a(S'me'
p461
(dp462
S'PRON'
p463
F0.999865
sg69
F0.000135
s(lp464
(g461
I10
tp465
atp466
a(g97
(dp467
S'ADV'
p468
F1.0
s(lp469
(g97
I11
tp470
atp471
a(g146
(dp472
S'CONJ'
p473
F0.999246
sS'NOUN'
p474
F0.000754
s(lp475
(g146
I12
tp476
atp477
a(S'to'
p478
(dp479
S'ADV'
p480
F0.000183
sS'PRT'
p481
F0.999723
sS'ADP'
p482
F9.4e-05
s(lp483
(g478
I13
tp484
atp485
a(g153
(dp486
S'ADJ'
p487
F1.0
s(lp488
(g153
I14
tp489
atp490
a(g104
(dp491
S'CONJ'
p492
F0.999998
sS'NOUN'
p493
F2e-06
s(lp494
(g104
I15
tp495
atp496
a(g139
(dp497
S'NOUN'
p498
F0.000379
sS'ADJ'
p499
F0.999621
s(lp500
(g139
I16
tp501
atp502
a(g131
(dp503
S'NOUN'
p504
F1.0
s(lp505
(g131
I17
tp506
atp507
a(g117
(dp508
S'NOUN'
p509
F1.0
s(lp510
(g117
I18
tp511
atp512
a(g160
(dp513
S'ADV'
p514
F0.000295
sS'PRT'
p515
F0.000234
sS'ADP'
p516
F0.999471
s(lp517
(g160
I19
tp518
atp519
a(g169
(dp520
S'NOUN'
p521
F2e-06
sS'DET'
p522
F0.999998
s(lp523
(g169
I20
tp524
atp525
a(g71
(dp526
S'NOUN'
p527
F1.0
s(lp528
(g71
I21
tp529
atp530
a(g184
(dp531
S'VERB'
p532
F0.001033
sS'NOUN'
p533
F0.998966
s(lp534
(g184
I22
tp535
atp536
a(g176
(dp537
S'NOUN'
p538
F1.0
s(lp539
(g176
I23
tp540
atp541
a(g196
(dp542
g198
F1.0
s(lp543
(g196
I24
tp544
atp545
a(g206
(dp546
S'ADV'
p547
F0.269159
sS'ADP'
p548
F0.730841
s(lp549
(g206
I25
tp550
atp551
a(g213
(dp552
S'NOUN'
p553
F1.0
s(lp554
(g213
I26
tp555
atp556
a(g226
(dp557
S'ADV'
p558
F7.2e-05
sS'NOUN'
p559
F0.0
sS'ADP'
p560
F0.999928
s(lp561
(g226
I27
tp562
atp563
a(g235
(dp564
S'NOUN'
p565
F1e-06
sS'DET'
p566
F0.999999
s(lp567
(g235
I28
tp568
atp569
a(g251
(dp570
S'NOUN'
p571
F0.157071
sS'ADJ'
p572
F0.842929
s(lp573
(g251
I29
tp574
atp575
a(g243
(dp576
S'VERB'
p577
F0.00222
sS'NOUN'
p578
F0.997779
s(lp579
(g243
I30
tp580
atp581
a(g260
(dp582
S'ADV'
p583
F0.999988
sS'ADP'
p584
F1.2e-05
s(lp585
(g260
I31
tp586
atp587
a(g267
(dp588
S'PRON'
p589
F1.0
s(lp590
(g267
I32
tp591
atp592
a(g274
(dp593
S'VERB'
p594
F0.999998
sS'NOUN'
p595
F2e-06
s(lp596
(g274
I33
tp597
atp598
a(g283
(dp599
S'NOUN'
p600
F1e-06
sS'DET'
p601
F0.999999
s(lp602
(g283
I34
tp603
atp604
a(g193
(dp605
S'NOUN'
p606
F1.0
s(lp607
(g193
I35
tp608
atp609
a(g305
(dp610
S'VERB'
p611
F0.000477
sS'NOUN'
p612
F0.999523
s(lp613
(g305
I36
tp614
atp615
a(g320
(dp616
g198
F1.0
s(lp617
(g320
I37
tp618
atp619
a(g336
(dp620
S'ADV'
p621
F0.196225
sS'CONJ'
p622
F0.796603
sS'DET'
p623
F0.007173
s(lp624
(g336
I38
tp625
atp626
a(g350
(dp627
S'ADV'
p628
F0.000593
sS'PRT'
p629
F2.5e-05
sS'ADP'
p630
F0.999382
s(lp631
(g350
I39
tp632
atp633
a(g358
(dp634
S'VERB'
p635
F3e-06
sS'NOUN'
p636
F0.999997
s(lp637
(g358
I40
tp638
atp639
a(g365
(dp640
S'CONJ'
p641
F0.999998
sS'ADJ'
p642
F2e-06
s(lp643
(g365
I41
tp644
atp645
a(g373
(dp646
S'ADV'
p647
F0.00674
sS'PRT'
p648
F1.9e-05
sS'ADP'
p649
F0.993242
s(lp650
(g373
I42
tp651
atp652
a(g395
(dp653
S'NOUN'
p654
F0.00036
sS'ADJ'
p655
F0.99964
s(lp656
(g395
I43
tp657
atp658
a(g387
(dp659
S'NOUN'
p660
F1.0
s(lp661
(g387
I44
tp662
atp663
a(g198
(dp664
g198
F1.0
s(lp665
(g198
I45
tp666
atp667
asS'nl'
p668
(lp669
(S'niet'
p670
(dp671
S'ADV'
p672
F0.999994
sS'PRON'
p673
F2e-06
sS'VERB'
p674
F3e-06
sg69
F0.0
s(lp675
tp676
a(S'alleen'
p677
(dp678
S'ADV'
p679
F0.711488
sS'ADJ'
p680
F0.288512
s(lp681
(g447
I8
tp682
atp683
a(S'ikzelf'
p684
(dp685
S'NOUN'
p686
F1.0
s(lp687
(g97
I11
tp688
atp689
a(S'maar'
p690
(dp691
S'ADV'
p692
F0.109757
sS'CONJ'
p693
F0.890238
sS'NOUN'
p694
F6e-06
s(lp695
(g146
I12
tp696
atp697
a(S'ook'
p698
(dp699
S'ADV'
p700
F1.0
s(lp701
tp702
a(S'vertegenwoordigers'
p703
(dp704
S'NOUN'
p705
F1.0
s(lp706
(g117
I18
tp707
atp708
a(S'van'
p709
(dp710
S'ADP'
p711
F1.0
s(lp712
(g478
I13
tp713
atp714
a(S'regionale'
p715
(dp716
S'NOUN'
p717
F0.022251
sS'ADJ'
p718
F0.977749
s(lp719
(g153
I14
tp720
atp721
a(S'en'
p722
(dp723
S'CONJ'
p724
F1.0
s(lp725
(g104
I15
tp726
atp727
a(S'gemeentelijke'
p728
(dp729
S'NOUN'
p730
F6.2e-05
sS'ADJ'
p731
F0.999938
s(lp732
(g139
I16
tp733
atp734
a(S'overheidsinstanties'
p735
(dp736
S'NOUN'
p737
F1.0
s(lp738
(g131
I17
tp739
atp740
a(S'in'
p741
(dp742
S'ADV'
p743
F0.003452
sS'VERB'
p744
F2e-06
sS'ADP'
p745
F0.996545
s(lp746
(g160
I19
tp747
atp748
a(S'het'
p749
(dp750
S'PRON'
p751
F0.0052699999999999995
sS'DET'
p752
F0.99473
s(lp753
(g169
I20
tp754
atp755
a(S'tsjechisch-duitse'
p756
(dp757
S'NOUN'
p758
F0.115343
sS'ADJ'
p759
F0.884657
s(lp760
(g71
I21
tp761
atp762
a(S'grensgebied'
p763
(dp764
S'NOUN'
p765
F1.0
s(lp766
(g184
I22
tp767
atp768
a(S'krijgen'
p769
(dp770
S'VERB'
p771
F0.999856
sS'NOUN'
p772
F0.000144
s(lp773
(g71
I21
tp774
atp775
a(S'steeds'
p776
(dp777
S'ADV'
p778
F1.0
s(lp779
(g53
I4
tp780
atp781
a(S'vaker'
p782
(dp783
S'NOUN'
p784
F1.0
s(lp785
(g437
I6
tp786
atp787
a(S'klachten'
p788
(dp789
S'NOUN'
p790
F1.0
s(lp791
(g71
I21
tp792
atp793
a(S'over'
p794
(dp795
S'ADV'
p796
F0.02061
sS'ADP'
p797
F0.97939
s(lp798
(g206
I25
tp799
atp800
a(S'het'
p801
(dp802
S'PRON'
p803
F0.209989
sS'DET'
p804
F0.790011
s(lp805
(g213
I26
tp806
atp807
a(S'soms'
p808
(dp809
S'ADV'
p810
F1.0
s(lp811
(g71
I21
tp812
atp813
a(S'ronduit'
p814
(dp815
S'ADV'
p816
F1.0
s(lp817
(g71
I21
tp818
atp819
a(S'stuitend'
p820
(dp821
S'VERB'
p822
F0.198468
sS'ADJ'
p823
F0.801532
s(lp824
(g71
I21
tp825
atp826
a(S'gedrag'
p827
(dp828
S'NOUN'
p829
F1.0
s(lp830
(g71
I21
tp831
atp832
a(S'van'
p833
(dp834
S'ADP'
p835
F1.0
s(lp836
(g226
I27
tp837
atp838
a(S'duits'
p839
(dp840
S'NOUN'
p841
F1.0
s(lp842
(g251
I29
tp843
atp844
a(S'politiepersoneel'
p845
(dp846
S'ADJ'
p847
F0.104661
sS'NOUN'
p848
F0.895339
s(lp849
tp850
a(S'jegens'
p851
(dp852
S'ADP'
p853
F1.0
s(lp854
(g71
I21
tp855
atp856
a(S'tsjechische'
p857
(dp858
S'NOUN'
p859
F0.004643
sS'ADJ'
p860
F0.995357
s(lp861
(g22
I0
tp862
atp863
a(S'staatsburgers'
p864
(dp865
S'NOUN'
p866
F1.0
s(lp867
(g14
I1
tp868
atp869
a(S'die'
p870
(dp871
S'PRON'
p872
F1.000001
s(lp873
(g414
I2
tp874
atp875
a(S'ofwel'
p876
(dp877
S'CONJ'
p878
F1.0
s(lp879
tp880
a(S'met'
p881
(dp882
S'ADP'
p883
F1.0
s(lp884
(g260
I31
tp885
atp886
a(S'het'
p887
(dp888
S'PRON'
p889
F0.005818
sS'DET'
p890
F0.994181
s(lp891
(g267
I32
tp892
atp893
a(S'openbaar'
p894
(dp895
S'NOUN'
p896
F0.000256
sS'VERB'
p897
F1e-06
sS'ADJ'
p898
F0.999743
s(lp899
tp900
a(S'vervoer'
p901
(dp902
S'VERB'
p903
F0.002025
sS'NOUN'
p904
F0.997975
s(lp905
(g193
I35
tp906
atp907
a(S'ofwel'
p908
(dp909
S'CONJ'
p910
F1.0
s(lp911
(g336
I38
tp912
atp913
a(S'met'
p914
(dp915
S'ADP'
p916
F1.0
s(lp917
(g350
I39
tp918
atp919
a(S'een'
p920
(dp921
S'ADJ'
p922
F1e-06
sS'PRON'
p923
F1.4e-05
sS'NUM'
p924
F0.0
sS'DET'
p925
F0.999985
s(lp926
tp927
a(S'personenauto'
p928
(dp929
S'NOUN'
p930
F1.0
s(lp931
(g395
I43
tp932
atp933
a(S'de'
p934
(dp935
S'DET'
p936
F1.0
s(lp937
(g283
I34
tp938
atp939
a(S'grens'
p940
(dp941
S'VERB'
p942
F3e-06
sS'NOUN'
p943
F0.999997
s(lp944
(g305
I36
tp945
atp946
a(S'oversteken'
p947
(dp948
S'VERB'
p949
F0.9985219999999999
sS'NOUN'
p950
F0.001479
s(lp951
(g274
I33
tp952
atp953
a(g198
(dp954
g198
F1.0
s(lp955
(g198
I45
tp956
atp957
asS'de'
p958
(lp959
(S'tschechische'
p960
(dp961
S'ADJ'
p962
F1.0
s(lp963
(g22
I0
tp964
atp965
a(S'b\xc3\xbcrgerinnen'
p966
(dp967
g69
F0.2182
sS'NOUN'
p968
F0.730956
s(lp969
(g14
I1
tp970
atp971
a(S'und'
p972
(dp973
S'CONJ'
p974
F1.0
s(lp975
tp976
a(S'b\xc3\xbcrger'
p977
(dp978
S'VERB'
p979
F1.0
s(lp980
(g14
I1
tp981
atp982
a(S'beschweren'
p983
(dp984
S'VERB'
p985
F1.0
s(lp986
tp987
a(S'sich'
p988
(dp989
S'PRON'
p990
F1.0
s(lp991
(g34
I3
tp992
atp993
a(S'immer'
p994
(dp995
S'ADV'
p996
F1.0
s(lp997
(g53
I4
tp998
atp999
a(S'h\xc3\xa4ufiger'
p1000
(dp1001
S'ADJ'
p1002
F1.0
s(lp1003
(g437
I6
tp1004
atp1005
a(g196
(dp1006
g198
F1.0
s(lp1007
(g196
I7
tp1008
atp1009
a(S'sowohl'
p1010
(dp1011
S'CONJ'
p1012
F1.0
s(lp1013
(g447
I8
tp1014
atp1015
a(S'bei'
p1016
(dp1017
S'PRT'
p1018
F2e-06
sS'ADP'
p1019
F0.999998
s(lp1020
(g84
I9
tp1021
atp1022
a(S'mir'
p1023
(dp1024
S'PRON'
p1025
F1.0
s(lp1026
(g461
I10
tp1027
atp1028
a(S'pers\xc3\xb6nlich'
p1029
(dp1030
S'ADJ'
p1031
F1.0
s(lp1032
(g97
I11
tp1033
atp1034
a(S'als'
p1035
(dp1036
S'CONJ'
p1037
F0.999985
s(lp1038
(g146
I12
tp1039
atp1040
a(S'auch'
p1041
(dp1042
S'ADV'
p1043
F1.0
s(lp1044
tp1045
a(S'bei'
p1046
(dp1047
S'PRT'
p1048
F0.000245
sS'ADP'
p1049
F0.999755
s(lp1050
(g478
I13
tp1051
atp1052
a(S'regionalen'
p1053
(dp1054
S'ADJ'
p1055
F1.0
s(lp1056
(g153
I14
tp1057
atp1058
a(S'und'
p1059
(dp1060
S'CONJ'
p1061
F1.0
s(lp1062
(g104
I15
tp1063
atp1064
a(S'\xc3\xb6rtlichen'
p1065
(dp1066
S'ADJ'
p1067
F1.0
s(lp1068
(g139
I16
tp1069
atp1070
a(S'beh\xc3\xb6rden'
p1071
(dp1072
S'ADJ'
p1073
F0.002166
sS'NOUN'
p1074
F0.995598
s(lp1075
(g131
I17
tp1076
atp1077
a(S'in'
p1078
(dp1079
S'ADP'
p1080
F1.0
s(lp1081
(g160
I19
tp1082
atp1083
a(S'der'
p1084
(dp1085
S'PRON'
p1086
F6.7e-05
sS'DET'
p1087
F0.999928
s(lp1088
(g169
I20
tp1089
atp1090
a(S'tschechisch-deutschen'
p1091
(dp1092
S'ADJ'
p1093
F1.0
s(lp1094
(g71
I21
tp1095
atp1096
a(S'grenzregion'
p1097
(dp1098
S'ADJ'
p1099
F0.000318
sS'NOUN'
p1100
F0.999656
s(lp1101
(g184
I22
tp1102
atp1103
a(g196
(dp1104
g198
F1.0
s(lp1105
(g196
I24
tp1106
atp1107
a(S'\xc3\xbcber'
p1108
(dp1109
S'PRT'
p1110
F2.2e-05
sS'ADP'
p1111
F0.999978
s(lp1112
(g206
I25
tp1113
atp1114
a(S'schikanierungen'
p1115
(dp1116
S'ADJ'
p1117
F0.000207
sS'NOUN'
p1118
F0.999692
s(lp1119
(g213
I26
tp1120
atp1121
a(S'der'
p1122
(dp1123
S'PRON'
p1124
F8.6e-05
sS'DET'
p1125
F0.999906
s(lp1126
(g235
I28
tp1127
atp1128
a(S'deutschen'
p1129
(dp1130
S'ADJ'
p1131
F1.0
s(lp1132
(g251
I29
tp1133
atp1134
a(S'polizei'
p1135
(dp1136
S'ADJ'
p1137
F0.023983
sS'NOUN'
p1138
F0.954478
s(lp1139
(g243
I30
tp1140
atp1141
a(g320
(dp1142
g198
F1.0
s(lp1143
tp1144
a(S'wenn'
p1145
(dp1146
S'CONJ'
p1147
F1.0
s(lp1148
(g260
I31
tp1149
atp1150
a(S'sie'
p1151
(dp1152
S'PRON'
p1153
F1.0
s(lp1154
(g267
I32
tp1155
atp1156
a(g320
(dp1157
g198
F1.0
s(lp1158
(g320
I37
tp1159
atp1160
a(S'entweder'
p1161
(dp1162
S'CONJ'
p1163
F1.0
s(lp1164
(g336
I38
tp1165
atp1166
a(S'in'
p1167
(dp1168
S'ADP'
p1169
F1.0
s(lp1170
(g350
I39
tp1171
atp1172
a(S'gruppen'
p1173
(dp1174
S'ADJ'
p1175
F0.260246
sS'NOUN'
p1176
F0.703684
s(lp1177
(g358
I40
tp1178
atp1179
a(S'oder'
p1180
(dp1181
S'CONJ'
p1182
F1.0
s(lp1183
(g365
I41
tp1184
atp1185
a(S'in'
p1186
(dp1187
S'ADP'
p1188
F1.0
s(lp1189
(g373
I42
tp1190
atp1191
a(S'privaten'
p1192
(dp1193
S'ADJ'
p1194
F1.0
s(lp1195
(g395
I43
tp1196
atp1197
a(S'fahrzeugen'
p1198
(dp1199
S'ADJ'
p1200
F0.020134
sS'NOUN'
p1201
F0.944677
s(lp1202
(g387
I44
tp1203
atp1204
a(g320
(dp1205
g198
F1.0
s(lp1206
tp1207
a(S'die'
p1208
(dp1209
S'PRON'
p1210
F0.115798
sS'DET'
p1211
F0.879385
s(lp1212
(g283
I34
tp1213
atp1214
a(S'tschechisch-deutsche'
p1215
(dp1216
S'ADJ'
p1217
F1.0
s(lp1218
(g193
I35
tp1219
atp1220
a(S'grenze'
p1221
(dp1222
S'VERB'
p1223
F1.0
s(lp1224
(g305
I36
tp1225
atp1226
a(S'\xc3\xbcberqueren'
p1227
(dp1228
S'VERB'
p1229
F1.0
s(lp1230
(g274
I33
tp1231
atp1232
a(g198
(dp1233
g198
F1.0
s(lp1234
(g198
I45
tp1235
atp1236
asS'it'
p1237
(lp1238
(S'i'
p1239
(dp1240
S'DET'
p1241
F1.0
s(lp1242
tp1243
a(S'cittadini'
p1244
(dp1245
S'ADJ'
p1246
F0.251388
sS'NOUN'
p1247
F0.748612
s(lp1248
(g14
I1
tp1249
atp1250
a(S'cechi'
p1251
(dp1252
S'NOUN'
p1253
F0.435611
sS'ADJ'
p1254
F0.564389
s(lp1255
(g22
I0
tp1256
atp1257
a(S'si'
p1258
(dp1259
S'PRON'
p1260
F0.9996929999999999
sS'NOUN'
p1261
F0.000307
s(lp1262
(g414
I2
tp1263
atp1264
a(S'lamentano'
p1265
(dp1266
S'VERB'
p1267
F1.0
s(lp1268
(g34
I3
tp1269
atp1270
a(S'sempre'
p1271
(dp1272
S'ADV'
p1273
F0.994949
sS'CONJ'
p1274
F0.005051
s(lp1275
(g53
I4
tp1276
atp1277
a(S'pi\xc3\xb9'
p1278
(dp1279
S'ADV'
p1280
F0.994612
sS'NOUN'
p1281
F1e-05
sS'ADJ'
p1282
F0.005208
sS'ADP'
p1283
F0.00017
s(lp1284
(g61
I5
tp1285
atp1286
a(S'frequentemente'
p1287
(dp1288
S'ADV'
p1289
F1.0
s(lp1290
(g437
I6
tp1291
atp1292
a(g196
(dp1293
g69
F7e-06
sg198
F0.999993
s(lp1294
(g196
I7
tp1295
atp1296
a(S'sia'
p1297
(dp1298
S'CONJ'
p1299
F0.824379
sS'VERB'
p1300
F0.175621
s(lp1301
(g447
I8
tp1302
atp1303
a(S'direttamente'
p1304
(dp1305
S'ADV'
p1306
F1.0
s(lp1307
(g71
I21
tp1308
atp1309
a(S'con'
p1310
(dp1311
S'ADP'
p1312
F1.0
s(lp1313
(g71
I21
tp1314
atp1315
a(S'me'
p1316
(dp1317
S'PRON'
p1318
F1.0
s(lp1319
(g461
I10
tp1320
atp1321
a(S'che'
p1322
(dp1323
S'PRON'
p1324
F0.99429
sS'CONJ'
p1325
F0.004086
sS'ADJ'
p1326
F0.001624
s(lp1327
(g478
I13
tp1328
atp1329
a(S'con'
p1330
(dp1331
S'ADP'
p1332
F1.0
s(lp1333
(g71
I21
tp1334
atp1335
a(g1239
(dp1336
S'DET'
p1337
F1.0
s(lp1338
tp1339
a(S'rappresentanti'
p1340
(dp1341
S'ADJ'
p1342
F0.009152
sS'VERB'
p1343
F0.002552
sS'NOUN'
p1344
F0.988296
s(lp1345
(g117
I18
tp1346
atp1347
a(S'delle'
p1348
(dp1349
S'DEF'
p1350
F0.001072
sS'ADP'
p1351
F0.998928
s(lp1352
(g184
I22
tp1353
atp1354
a(S'autorit\xc3\xa0'
p1355
(dp1356
S'NOUN'
p1357
F1.0
s(lp1358
(g131
I17
tp1359
atp1360
a(S'regionali'
p1361
(dp1362
S'ADJ'
p1363
F1.0
s(lp1364
(g153
I14
tp1365
atp1366
a(S'e'
p1367
(dp1368
S'CONJ'
p1369
F1.0
s(lp1370
(g104
I15
tp1371
atp1372
a(S'locali'
p1373
(dp1374
S'NOUN'
p1375
F0.207166
sS'VERB'
p1376
F0.016814
sS'ADJ'
p1377
F0.77602
s(lp1378
(g139
I16
tp1379
atp1380
a(S'nella'
p1381
(dp1382
S'ADP'
p1383
F1.0
s(lp1384
(g160
I19
tp1385
atp1386
a(S'regione'
p1387
(dp1388
S'NOUN'
p1389
F1.0
s(lp1390
(g176
I23
tp1391
atp1392
a(S'al'
p1393
(dp1394
S'ADP'
p1395
F1.0
s(lp1396
(g169
I20
tp1397
atp1398
a(S'confine'
p1399
(dp1400
S'NOUN'
p1401
F1.0
s(lp1402
tp1403
a(S'ceco-tedesco'
p1404
(dp1405
S'NOUN'
p1406
F0.002093
sS'ADJ'
p1407
F0.997907
s(lp1408
(g71
I21
tp1409
atp1410
a(g196
(dp1411
g69
F1e-06
sg198
F0.999999
s(lp1412
(g196
I24
tp1413
atp1414
a(S'di'
p1415
(dp1416
S'CONJ'
p1417
F1.2e-05
sS'ADP'
p1418
F0.999988
s(lp1419
(g206
I25
tp1420
atp1421
a(S'subire'
p1422
(dp1423
S'VERB'
p1424
F1.0
s(lp1425
tp1426
a(S'vessazioni'
p1427
(dp1428
S'NOUN'
p1429
F1.0
s(lp1430
(g213
I26
tp1431
atp1432
a(S'da'
p1433
(dp1434
S'ADP'
p1435
F1.0
s(lp1436
(g226
I27
tp1437
atp1438
a(S'parte'
p1439
(dp1440
S'VERB'
p1441
F4e-06
sS'NOUN'
p1442
F0.999996
s(lp1443
tp1444
a(S'della'
p1445
(dp1446
S'DEF'
p1447
F0.001587
sS'ADP'
p1448
F0.998413
s(lp1449
(g235
I28
tp1450
atp1451
a(S'polizia'
p1452
(dp1453
S'NOUN'
p1454
F1.0
s(lp1455
(g243
I30
tp1456
atp1457
a(S'tedesca'
p1458
(dp1459
S'NOUN'
p1460
F0.006919
sS'ADJ'
p1461
F0.993081
s(lp1462
(g251
I29
tp1463
atp1464
a(S'quando'
p1465
(dp1466
S'ADV'
p1467
F0.075016
sS'PRON'
p1468
F0.000129
sS'CONJ'
p1469
F0.921742
sS'NOUN'
p1470
F0.003113
s(lp1471
(g260
I31
tp1472
atp1473
a(S'attraversano'
p1474
(dp1475
S'VERB'
p1476
F1.0
s(lp1477
(g274
I33
tp1478
atp1479
a(S'il'
p1480
(dp1481
S'DET'
p1482
F1.0
s(lp1483
(g283
I34
tp1484
atp1485
a(S'confine'
p1486
(dp1487
S'NOUN'
p1488
F1.0
s(lp1489
(g193
I35
tp1490
atp1491
a(g320
(dp1492
g198
F1.0
s(lp1493
(g320
I37
tp1494
atp1495
a(S'sia'
p1496
(dp1497
S'CONJ'
p1498
F0.674813
sS'VERB'
p1499
F0.325187
s(lp1500
(g336
I38
tp1501
atp1502
a(S'in'
p1503
(dp1504
S'ADP'
p1505
F1.0
s(lp1506
(g350
I39
tp1507
atp1508
a(S'gruppo'
p1509
(dp1510
S'NOUN'
p1511
F1.0
s(lp1512
(g358
I40
tp1513
atp1514
a(S'che'
p1515
(dp1516
S'PRON'
p1517
F0.764874
sS'CONJ'
p1518
F0.220531
sS'ADJ'
p1519
F0.014595
s(lp1520
(g365
I41
tp1521
atp1522
a(S'su'
p1523
(dp1524
S'ADV'
p1525
F0.044962
sS'ADP'
p1526
F0.955038
s(lp1527
(g373
I42
tp1528
atp1529
a(S'mezzi'
p1530
(dp1531
S'ADJ'
p1532
F0.145856
sS'NOUN'
p1533
F0.854144
s(lp1534
(g387
I44
tp1535
atp1536
a(S'privati'
p1537
(dp1538
S'NOUN'
p1539
F0.176074
sS'VERB'
p1540
F0.077986
sS'ADJ'
p1541
F0.74594
s(lp1542
(g395
I43
tp1543
atp1544
a(g198
(dp1545
g198
F1.0
s(lp1546
(g198
I45
tp1547
atp1548
asS'sk'
p1549
(lp1550
(S'nielen'
p1551
(dp1552
S'CONJ'
p1553
F1.0
s(lp1554
(g447
I8
tp1555
atp1556
a(S'ja'
p1557
(dp1558
S'PRON'
p1559
F0.995846
sS'VERB'
p1560
F0.003488
sS'NOUN'
p1561
F0.0006500000000000001
sg69
F1.6e-05
s(lp1562
(g461
I10
tp1563
atp1564
a(S'osobne'
p1565
(dp1566
S'ADV'
p1567
F1.0
s(lp1568
(g97
I11
tp1569
atp1570
a(g320
(dp1571
g198
F1.0
s(lp1572
tp1573
a(S'ale'
p1574
(dp1575
g69
F0.007277
sS'CONJ'
p1576
F0.992723
s(lp1577
(g146
I12
tp1578
atp1579
a(S'aj'
p1580
(dp1581
g69
F0.644925
sS'CONJ'
p1582
F0.355075
s(lp1583
(g478
I13
tp1584
atp1585
a(S'predstavitelia'
p1586
(dp1587
S'NOUN'
p1588
F1.0
s(lp1589
(g117
I18
tp1590
atp1591
a(S'region\xc3\xa1lnych'
p1592
(dp1593
S'ADJ'
p1594
F1.0
s(lp1595
(g153
I14
tp1596
atp1597
a(S'a'
p1598
(dp1599
g69
F0.00047799999999999996
sS'CONJ'
p1600
F0.998379
sS'NOUN'
p1601
F0.001055
sS'ADP'
p1602
F7.2e-05
sS'PRT'
p1603
F1.6e-05
s(lp1604
(g104
I15
tp1605
atp1606
a(S'komun\xc3\xa1lnych'
p1607
(dp1608
S'ADJ'
p1609
F1.0
s(lp1610
(g139
I16
tp1611
atp1612
a(S'org\xc3\xa1nov'
p1613
(dp1614
S'NOUN'
p1615
F1.0
s(lp1616
(g131
I17
tp1617
atp1618
a(S'v'
p1619
(dp1620
g69
F4.2e-05
sS'ADP'
p1621
F0.999958
s(lp1622
(g160
I19
tp1623
atp1624
a(S'\xc4\x8desko-nemeckom'
p1625
(dp1626
S'NOUN'
p1627
F0.000534
sS'ADJ'
p1628
F0.999466
s(lp1629
(g71
I21
tp1630
atp1631
a(S'pohrani\xc4\x8d\xc3\xad'
p1632
(dp1633
S'NOUN'
p1634
F1.0
s(lp1635
(g71
I21
tp1636
atp1637
a(S's\xc3\xba'
p1638
(dp1639
S'VERB'
p1640
F1.0
s(lp1641
(g414
I2
tp1642
atp1643
a(S'konfrontovan\xc3\xad'
p1644
(dp1645
S'VERB'
p1646
F1.0
s(lp1647
(g71
I21
tp1648
atp1649
a(S'so'
p1650
(dp1651
g69
F0.05478
sS'ADP'
p1652
F0.94522
s(lp1653
(g71
I21
tp1654
atp1655
a(S'st\xc3\xa1le'
p1656
(dp1657
S'ADV'
p1658
F0.97029
sg69
F0.018431
sS'ADJ'
p1659
F0.011278999999999999
s(lp1660
(g71
I21
tp1661
atp1662
a(S'\xc4\x8dastej\xc5\xa1\xc3\xadmi'
p1663
(dp1664
S'ADJ'
p1665
F1.0
s(lp1666
(g71
I21
tp1667
atp1668
a(S's\xc5\xa5a\xc5\xbenos\xc5\xa5ami'
p1669
(dp1670
S'NOUN'
p1671
F1.0
s(lp1672
(g71
I21
tp1673
atp1674
a(S'ob\xc4\x8danov'
p1675
(dp1676
S'NOUN'
p1677
F1.0
s(lp1678
(g14
I1
tp1679
atp1680
a(S'\xc4\x8ceskej'
p1681
(dp1682
S'ADJ'
p1683
F1.0
s(lp1684
(g22
I0
tp1685
atp1686
a(S'republiky'
p1687
(dp1688
S'NOUN'
p1689
F1.0
s(lp1690
tp1691
a(S'na'
p1692
(dp1693
g69
F0.000162
sS'CONJ'
p1694
F1.7e-05
sS'ADP'
p1695
F0.999815
sS'PRT'
p1696
F6e-06
s(lp1697
(g34
I3
tp1698
atp1699
a(S'\xc5\xa1ikanovanie'
p1700
(dp1701
S'VERB'
p1702
F2.2000000000000003e-05
sS'NOUN'
p1703
F0.999978
s(lp1704
(g71
I21
tp1705
atp1706
a(S'nemeckou'
p1707
(dp1708
S'ADJ'
p1709
F1.0
s(lp1710
(g251
I29
tp1711
atp1712
a(S'pol\xc3\xadciou'
p1713
(dp1714
S'NOUN'
p1715
F1.0
s(lp1716
(g243
I30
tp1717
atp1718
a(S'po'
p1719
(dp1720
g69
F0.002826
sS'ADP'
p1721
F0.997174
s(lp1722
(g260
I31
tp1723
atp1724
a(S'tom'
p1725
(dp1726
S'PRON'
p1727
F0.999799
sg69
F0.000201
s(lp1728
(g206
I25
tp1729
atp1730
a(g320
(dp1731
g198
F1.0
s(lp1732
(g267
I32
tp1733
atp1734
a(S'ako'
p1735
(dp1736
S'PRON'
p1737
F0.018408
sS'CONJ'
p1738
F0.981482
sg69
F0.000109
s(lp1739
(g283
I34
tp1740
atp1741
a(S'prostriedkami'
p1742
(dp1743
S'NOUN'
p1744
F1.0
s(lp1745
(g193
I35
tp1746
atp1747
a(S'hromadnej'
p1748
(dp1749
S'ADJ'
p1750
F1.0
s(lp1751
(g193
I35
tp1752
atp1753
a(S'dopravy'
p1754
(dp1755
S'NOUN'
p1756
F1.0
s(lp1757
(g193
I35
tp1758
atp1759
a(S'alebo'
p1760
(dp1761
g69
F8.8e-05
sS'CONJ'
p1762
F0.999912
s(lp1763
(g365
I41
tp1764
atp1765
a(S'osobn\xc3\xbdmi'
p1766
(dp1767
S'ADJ'
p1768
F1.0
s(lp1769
(g193
I35
tp1770
atp1771
a(S'vozidlami'
p1772
(dp1773
S'NOUN'
p1774
F1.0
s(lp1775
(g193
I35
tp1776
atp1777
a(S'prejd\xc3\xba'
p1778
(dp1779
S'VERB'
p1780
F1.0
s(lp1781
tp1782
a(S'\xc4\x8desko-nemeck\xc3\xba'
p1783
(dp1784
S'ADJ'
p1785
F1.0
s(lp1786
(g193
I35
tp1787
atp1788
a(S'hranicu'
p1789
(dp1790
S'NOUN'
p1791
F1.0
s(lp1792
(g184
I22
tp1793
atp1794
a(g198
(dp1795
g198
F1.0
s(lp1796
(g198
I45
tp1797
atp1798
asS'pl'
p1799
(lp1800
(S'obywatele'
p1801
(dp1802
S'NOUN'
p1803
F1.0
s(lp1804
(g14
I1
tp1805
atp1806
a(S'czescy'
p1807
(dp1808
S'ADJ'
p1809
F1.0
s(lp1810
(g22
I0
tp1811
atp1812
a(S'coraz'
p1813
(dp1814
S'ADV'
p1815
F1.0
s(lp1816
(g53
I4
tp1817
atp1818
a(S'cz\xc4\x99\xc5\x9bciej'
p1819
(dp1820
S'ADV'
p1821
F1.0
s(lp1822
(g437
I6
tp1823
atp1824
a(S'skar\xc5\xbc\xc4\x85'
p1825
(dp1826
S'VERB'
p1827
F1.0
s(lp1828
tp1829
a(S'si\xc4\x99'
p1830
(dp1831
S'PRT'
p1832
F1.0
s(lp1833
(g34
I3
tp1834
atp1835
a(g196
(dp1836
g69
F0.001768
sS'NUM'
p1837
F0.002739
sS'NOUN'
p1838
F0.000866
sg198
F0.994628
s(lp1839
(g196
I7
tp1840
atp1841
a(S'mnie'
p1842
(dp1843
S'PRON'
p1844
F0.999999
s(lp1845
(g461
I10
tp1846
atp1847
a(S'osobi\xc5\x9bcie'
p1848
(dp1849
S'ADV'
p1850
F1.0
s(lp1851
(g97
I11
tp1852
atp1853
a(S'oraz'
p1854
(dp1855
S'CONJ'
p1856
F1.0
s(lp1857
(g146
I12
tp1858
atp1859
a(S'przedstawicielom'
p1860
(dp1861
S'NOUN'
p1862
F1.0
s(lp1863
(g117
I18
tp1864
atp1865
a(S'regionalnych'
p1866
(dp1867
S'ADJ'
p1868
F1.000001
s(lp1869
(g153
I14
tp1870
atp1871
a(g1239
(dp1872
S'PRT'
p1873
F0.002132
sS'CONJ'
p1874
F0.997567
sS'NOUN'
p1875
F5.6999999999999996e-05
sg69
F3.9e-05
sS'PRON'
p1876
F0.000206
s(lp1877
(g104
I15
tp1878
atp1879
a(S'lokalnych'
p1880
(dp1881
S'ADJ'
p1882
F1.000001
s(lp1883
(g139
I16
tp1884
atp1885
a(S'w\xc5\x82adz'
p1886
(dp1887
S'NOUN'
p1888
F1.0
s(lp1889
(g71
I21
tp1890
atp1891
a(S'regionu'
p1892
(dp1893
S'NOUN'
p1894
F1.0
s(lp1895
(g176
I23
tp1896
atp1897
a(S'po\xc5\x82o\xc5\xbconego'
p1898
(dp1899
S'VERB'
p1900
F0.079854
sS'ADJ'
p1901
F0.920146
s(lp1902
(g71
I21
tp1903
atp1904
a(S'przy'
p1905
(dp1906
S'VERB'
p1907
F2.8e-05
sS'ADP'
p1908
F0.999972
s(lp1909
tp1910
a(S'granicy'
p1911
(dp1912
S'NOUN'
p1913
F1.0
s(lp1914
(g184
I22
tp1915
atp1916
a(S'czesko-niemieckiej'
p1917
(dp1918
S'ADV'
p1919
F0.0017649999999999999
sS'NOUN'
p1920
F0.13110900000000003
sS'VERB'
p1921
F0.033117999999999995
sS'ADJ'
p1922
F0.83396
sS'PRT'
p1923
F5e-05
s(lp1924
(g71
I21
tp1925
atp1926
a(g196
(dp1927
g69
F1.9e-05
sS'NUM'
p1928
F5e-06
sS'NOUN'
p1929
F2.7e-05
sg198
F0.99995
s(lp1930
(g196
I24
tp1931
atp1932
a(S'na'
p1933
(dp1934
g69
F0.002093
sS'VERB'
p1935
F0.000474
sS'NOUN'
p1936
F0.000903
sS'ADP'
p1937
F0.9953980000000001
sS'PRT'
p1938
F0.001131
s(lp1939
(g206
I25
tp1940
atp1941
a(S'prze\xc5\x9bladowania'
p1942
(dp1943
S'ADV'
p1944
F0.011127
sS'ADJ'
p1945
F0.07874600000000001
sS'VERB'
p1946
F0.14159399999999997
sS'NOUN'
p1947
F0.7685320000000002
s(lp1948
(g213
I26
tp1949
atp1950
a(S'ze'
p1951
(dp1952
S'PRT'
p1953
F0.002262
sS'CONJ'
p1954
F2e-06
sS'ADP'
p1955
F0.9977360000000001
s(lp1956
(g226
I27
tp1957
atp1958
a(S'strony'
p1959
(dp1960
S'NOUN'
p1961
F1.0
s(lp1962
(g235
I28
tp1963
atp1964
a(S'niemieckiej'
p1965
(dp1966
S'ADJ'
p1967
F1.0
s(lp1968
(g251
I29
tp1969
atp1970
a(S'policji'
p1971
(dp1972
S'NOUN'
p1973
F1.0
s(lp1974
(g243
I30
tp1975
atp1976
a(S'przy'
p1977
(dp1978
S'VERB'
p1979
F0.0
sS'ADP'
p1980
F1.0
s(lp1981
(g260
I31
tp1982
atp1983
a(S'przekraczaniu'
p1984
(dp1985
S'VERB'
p1986
F1.0
s(lp1987
(g274
I33
tp1988
atp1989
a(S'przez'
p1990
(dp1991
S'ADP'
p1992
F1.0
s(lp1993
tp1994
a(S'nich'
p1995
(dp1996
S'PRON'
p1997
F1.0000010000000001
s(lp1998
(g193
I35
tp1999
atp2000
a(S'granicy'
p2001
(dp2002
S'NOUN'
p2003
F1.0
s(lp2004
(g305
I36
tp2005
atp2006
a(g320
(dp2007
g69
F0.0
sg198
F1.0
s(lp2008
(g320
I37
tp2009
atp2010
a(S'zar\xc3\xb3wno'
p2011
(dp2012
S'ADV'
p2013
F0.020598
sS'CONJ'
p2014
F0.979402
s(lp2015
(g336
I38
tp2016
atp2017
a(S'w'
p2018
(dp2019
S'ADJ'
p2020
F0.0
sg69
F0.0
sS'NOUN'
p2021
F0.0
sS'ADP'
p2022
F1.0
s(lp2023
(g350
I39
tp2024
atp2025
a(S'grupach'
p2026
(dp2027
S'NOUN'
p2028
F1.0
s(lp2029
(g358
I40
tp2030
atp2031
a(g320
(dp2032
g69
F0.0
sg198
F1.0
s(lp2033
tp2034
a(S'jak'
p2035
(dp2036
S'ADV'
p2037
F0.8469599999999999
sS'PRT'
p2038
F0.000981
sS'CONJ'
p2039
F0.130046
sS'ADP'
p2040
F0.021924
sS'PRON'
p2041
F8.9e-05
s(lp2042
tp2043
a(g1239
(dp2044
S'PRT'
p2045
F0.023375
sS'CONJ'
p2046
F0.976265
sS'NOUN'
p2047
F0.00028700000000000004
sg69
F1.7e-05
sS'PRON'
p2048
F5.7e-05
s(lp2049
(g365
I41
tp2050
atp2051
a(g2018
(dp2052
S'ADJ'
p2053
F0.0
sg69
F0.0
sS'NOUN'
p2054
F0.0
sS'ADP'
p2055
F1.0
s(lp2056
(g373
I42
tp2057
atp2058
a(S'pojazdach'
p2059
(dp2060
S'NOUN'
p2061
F1.0
s(lp2062
(g387
I44
tp2063
atp2064
a(S'prywatnych'
p2065
(dp2066
S'ADJ'
p2067
F1.0000010000000001
s(lp2068
(g395
I43
tp2069
atp2070
a(g198
(dp2071
g198
F1.0
s(lp2072
(g198
I45
tp2073
atp2074
asS'sl'
p2075
(lp2076
(S'\xc4\x8ce\xc5\xa1ki'
p2077
(dp2078
S'ADJ'
p2079
F0.013033
sS'NOUN'
p2080
F0.986967
s(lp2081
(g22
I0
tp2082
atp2083
a(S'dr\xc5\xbeavljani'
p2084
(dp2085
S'NOUN'
p2086
F1.0
s(lp2087
(g14
I1
tp2088
atp2089
a(S'se'
p2090
(dp2091
S'PRON'
p2092
F0.999993
sg69
F7e-06
s(lp2093
tp2094
a(S'vedno'
p2095
(dp2096
S'ADV'
p2097
F1.0
s(lp2098
(g53
I4
tp2099
atp2100
a(S'pogosteje'
p2101
(dp2102
S'ADV'
p2103
F1.0
s(lp2104
(g437
I6
tp2105
atp2106
a(S'prito\xc5\xbeujejo'
p2107
(dp2108
S'VERB'
p2109
F1.0
s(lp2110
(g34
I3
tp2111
atp2112
a(g196
(dp2113
g198
F1.0
s(lp2114
(g196
I7
tp2115
atp2116
a(S'meni'
p2117
(dp2118
S'PRON'
p2119
F0.116353
sS'VERB'
p2120
F0.870695
sS'NOUN'
p2121
F0.012952000000000002
s(lp2122
(g461
I10
tp2123
atp2124
a(S'osebno'
p2125
(dp2126
S'ADV'
p2127
F0.23842
sS'ADJ'
p2128
F0.76158
s(lp2129
(g97
I11
tp2130
atp2131
a(S'in'
p2132
(dp2133
S'ADV'
p2134
F4.1e-05
sg69
F2e-06
sS'CONJ'
p2135
F0.999957
sS'NOUN'
p2136
F1e-06
s(lp2137
(g146
I12
tp2138
atp2139
a(S'regionalnim'
p2140
(dp2141
S'ADJ'
p2142
F1.0
s(lp2143
(g153
I14
tp2144
atp2145
a(S'ter'
p2146
(dp2147
S'CONJ'
p2148
F1.0
s(lp2149
(g104
I15
tp2150
atp2151
a(S'lokalnim'
p2152
(dp2153
S'ADJ'
p2154
F0.9999999999999999
s(lp2155
(g139
I16
tp2156
atp2157
a(S'organom'
p2158
(dp2159
S'NOUN'
p2160
F1.0
s(lp2161
(g131
I17
tp2162
atp2163
a(S'na'
p2164
(dp2165
S'ADP'
p2166
F1.0
s(lp2167
(g160
I19
tp2168
atp2169
a(S'obmo\xc4\x8dju'
p2170
(dp2171
S'NOUN'
p2172
F1.0
s(lp2173
(g71
I21
tp2174
atp2175
a(S'ob'
p2176
(dp2177
g69
F7e-06
sS'ADP'
p2178
F0.999993
s(lp2179
(g71
I21
tp2180
atp2181
a(S'\xc4\x8de\xc5\xa1ko-nem\xc5\xa1ki'
p2182
(dp2183
S'ADV'
p2184
F1e-06
sS'NOUN'
p2185
F0.0011829999999999998
sS'VERB'
p2186
F0.0
sS'ADJ'
p2187
F0.998816
s(lp2188
(g71
I21
tp2189
atp2190
a(S'meji'
p2191
(dp2192
S'VERB'
p2193
F0.000536
sS'NOUN'
p2194
F0.999464
s(lp2195
(g184
I22
tp2196
atp2197
a(g196
(dp2198
g198
F1.0
s(lp2199
(g196
I24
tp2200
atp2201
a(S'o'
p2202
(dp2203
S'NOUN'
p2204
F0.000252
sS'ADP'
p2205
F0.999748
s(lp2206
(g206
I25
tp2207
atp2208
a(S'nadlegovanju'
p2209
(dp2210
S'ADJ'
p2211
F4.8e-05
sS'VERB'
p2212
F8.2e-05
sS'NOUN'
p2213
F0.999869
s(lp2214
(g213
I26
tp2215
atp2216
a(g320
(dp2217
g198
F1.0
s(lp2218
tp2219
a(S'ki'
p2220
(dp2221
S'CONJ'
p2222
F1.0
s(lp2223
tp2224
a(S'ga'
p2225
(dp2226
S'PRON'
p2227
F1.000001
s(lp2228
(g226
I27
tp2229
atp2230
a(S'do\xc5\xbeivljajo'
p2231
(dp2232
S'VERB'
p2233
F1.0
s(lp2234
tp2235
a(S'od'
p2236
(dp2237
S'ADP'
p2238
F1.0
s(lp2239
(g71
I21
tp2240
atp2241
a(S'nem\xc5\xa1ke'
p2242
(dp2243
S'ADJ'
p2244
F0.999999
s(lp2245
(g251
I29
tp2246
atp2247
a(S'policije'
p2248
(dp2249
S'NOUN'
p2250
F1.0
s(lp2251
(g243
I30
tp2252
atp2253
a(S'pri'
p2254
(dp2255
S'ADP'
p2256
F1.0
s(lp2257
(g260
I31
tp2258
atp2259
a(S'pre\xc4\x8dkanju'
p2260
(dp2261
S'ADV'
p2262
F1.8e-05
sS'ADJ'
p2263
F2e-06
sS'VERB'
p2264
F0.0
sS'NOUN'
p2265
F0.999977
s(lp2266
(g274
I33
tp2267
atp2268
a(S'\xc4\x8de\xc5\xa1ko-nem\xc5\xa1ke'
p2269
(dp2270
S'ADV'
p2271
F5.1e-05
sS'NOUN'
p2272
F0.027403
sS'VERB'
p2273
F0.000341
sS'ADJ'
p2274
F0.972205
s(lp2275
(g193
I35
tp2276
atp2277
a(S'meje'
p2278
(dp2279
S'NOUN'
p2280
F1.0
s(lp2281
(g305
I36
tp2282
atp2283
a(g1619
(dp2284
S'ADP'
p2285
F1.0
s(lp2286
(g350
I39
tp2287
atp2288
a(S'skupinah'
p2289
(dp2290
S'NOUN'
p2291
F1.0
s(lp2292
(g358
I40
tp2293
atp2294
a(S'ali'
p2295
(dp2296
S'ADV'
p2297
F0.051614
sS'CONJ'
p2298
F0.948386
s(lp2299
(g365
I41
tp2300
atp2301
a(S'z'
p2302
(dp2303
S'ADP'
p2304
F1.0
s(lp2305
(g373
I42
tp2306
atp2307
a(S'osebnimi'
p2308
(dp2309
S'ADJ'
p2310
F1.0
s(lp2311
(g395
I43
tp2312
atp2313
a(S'vozili'
p2314
(dp2315
S'VERB'
p2316
F0.671408
sS'NOUN'
p2317
F0.328592
s(lp2318
(g387
I44
tp2319
atp2320
a(g198
(dp2321
g198
F1.0
s(lp2322
(g198
I45
tp2323
atp2324
asS'es'
p2325
(lp2326
(S'los'
p2327
(dp2328
S'PRON'
p2329
F2.7e-05
sS'DET'
p2330
F0.999973
s(lp2331
tp2332
a(S'ciudadanos'
p2333
(dp2334
S'NOUN'
p2335
F1.0
s(lp2336
(g14
I1
tp2337
atp2338
a(S'checos'
p2339
(dp2340
S'ADJ'
p2341
F1.0
s(lp2342
(g22
I0
tp2343
atp2344
a(S'se'
p2345
(dp2346
S'PRON'
p2347
F1.0
sS'VERB'
p2348
F0.0
s(lp2349
(g414
I2
tp2350
atp2351
a(S'quejan'
p2352
(dp2353
S'VERB'
p2354
F1.0
s(lp2355
(g34
I3
tp2356
atp2357
a(S'cada'
p2358
(dp2359
S'ADJ'
p2360
F1.0
s(lp2361
tp2362
a(S'vez'
p2363
(dp2364
S'NOUN'
p2365
F1.0
s(lp2366
(g53
I4
tp2367
atp2368
a(S'm\xc3\xa1s'
p2369
(dp2370
S'ADV'
p2371
F0.999992
sS'CONJ'
p2372
F8e-06
s(lp2373
(g61
I5
tp2374
atp2375
a(S'-a'
p2376
(dp2377
S'ADV'
p2378
F0.097817
sS'ADJ'
p2379
F0.000343
sS'VERB'
p2380
F0.873382
sS'NOUN'
p2381
F0.028458
s(lp2382
(g196
I7
tp2383
atp2384
a(S'm\xc3\xad'
p2385
(dp2386
S'PRON'
p2387
F1.0
s(lp2388
(g461
I10
tp2389
atp2390
a(S'personalmente'
p2391
(dp2392
S'ADV'
p2393
F1.0
s(lp2394
(g97
I11
tp2395
atp2396
a(S'y'
p2397
(dp2398
g69
F0.005103
sS'CONJ'
p2399
F0.994897
s(lp2400
(g146
I12
tp2401
atp2402
a(g1598
(dp2403
g69
F5e-06
sS'CONJ'
p2404
F4e-06
sS'ADP'
p2405
F0.999991
s(lp2406
(g478
I13
tp2407
atp2408
a(S'sus'
p2409
(dp2410
S'PRON'
p2411
F1.0
s(lp2412
(g71
I21
tp2413
atp2414
a(S'autoridades'
p2415
(dp2416
S'NOUN'
p2417
F1.0
s(lp2418
(g131
I17
tp2419
atp2420
a(S'locales'
p2421
(dp2422
S'NOUN'
p2423
F0.002917
sS'ADJ'
p2424
F0.997083
s(lp2425
(g139
I16
tp2426
atp2427
a(g2397
(dp2428
g69
F0.00066
sS'CONJ'
p2429
F0.99934
s(lp2430
(g104
I15
tp2431
atp2432
a(S'regionales'
p2433
(dp2434
S'ADJ'
p2435
F1.0
s(lp2436
(g153
I14
tp2437
atp2438
a(S'en'
p2439
(dp2440
g69
F0.0
sS'CONJ'
p2441
F1e-06
sS'ADP'
p2442
F0.999999
s(lp2443
(g160
I19
tp2444
atp2445
a(S'la'
p2446
(dp2447
S'NOUN'
p2448
F0.0
sS'PRON'
p2449
F0.0
sS'DET'
p2450
F0.999999
sg69
F0.0
s(lp2451
(g169
I20
tp2452
atp2453
a(S'zona'
p2454
(dp2455
S'NOUN'
p2456
F1.0
s(lp2457
(g176
I23
tp2458
atp2459
a(S'fronteriza'
p2460
(dp2461
S'ADJ'
p2462
F1.0
s(lp2463
(g184
I22
tp2464
atp2465
a(S'entre'
p2466
(dp2467
g69
F3e-06
sS'ADP'
p2468
F0.999997
s(lp2469
(g71
I21
tp2470
atp2471
a(S'la'
p2472
(dp2473
S'NOUN'
p2474
F1.5e-05
sS'PRON'
p2475
F0.0
sS'DET'
p2476
F0.999984
sg69
F1e-06
s(lp2477
tp2478
a(S'rep\xc3\xbablica'
p2479
(dp2480
S'ADJ'
p2481
F0.29878
sS'NOUN'
p2482
F0.70122
s(lp2483
(g71
I21
tp2484
atp2485
a(S'checa'
p2486
(dp2487
S'NOUN'
p2488
F1.0
s(lp2489
tp2490
a(g2397
(dp2491
g69
F0.001045
sS'CONJ'
p2492
F0.998955
s(lp2493
(g196
I24
tp2494
atp2495
a(S'alemania-'
p2496
(dp2497
S'ADJ'
p2498
F0.002873
sS'NOUN'
p2499
F0.997127
s(lp2500
(g71
I21
tp2501
atp2502
a(S'del'
p2503
(dp2504
S'ADP'
p2505
F1.0
s(lp2506
(g206
I25
tp2507
atp2508
a(S'acoso'
p2509
(dp2510
S'VERB'
p2511
F1e-06
sS'NOUN'
p2512
F0.999999
s(lp2513
(g213
I26
tp2514
atp2515
a(S'de'
p2516
(dp2517
g69
F0.0
sS'CONJ'
p2518
F1.7e-05
sS'ADP'
p2519
F0.999983
s(lp2520
(g226
I27
tp2521
atp2522
a(S'la'
p2523
(dp2524
g69
F0.0
sS'PRON'
p2525
F0.0
sS'DET'
p2526
F0.999999
sS'NOUN'
p2527
F0.0
s(lp2528
(g235
I28
tp2529
atp2530
a(S'polic\xc3\xada'
p2531
(dp2532
S'NOUN'
p2533
F1.0
s(lp2534
(g243
I30
tp2535
atp2536
a(S'alemana'
p2537
(dp2538
S'NOUN'
p2539
F0.078377
sS'ADJ'
p2540
F0.921623
s(lp2541
(g251
I29
tp2542
atp2543
a(S'cuando'
p2544
(dp2545
S'CONJ'
p2546
F1.0
s(lp2547
(g260
I31
tp2548
atp2549
a(S'atraviesan'
p2550
(dp2551
S'VERB'
p2552
F1.0
s(lp2553
(g274
I33
tp2554
atp2555
a(S'la'
p2556
(dp2557
g69
F0.0
sS'PRON'
p2558
F0.0
sS'DET'
p2559
F1.0
sS'NOUN'
p2560
F0.0
s(lp2561
(g283
I34
tp2562
atp2563
a(S'frontera'
p2564
(dp2565
S'NOUN'
p2566
F1.0
s(lp2567
(g305
I36
tp2568
atp2569
a(S'ya'
p2570
(dp2571
S'ADV'
p2572
F1.0
s(lp2573
tp2574
a(S'sea'
p2575
(dp2576
S'VERB'
p2577
F1.0
s(lp2578
(g336
I38
tp2579
atp2580
a(S'en'
p2581
(dp2582
g69
F6.4e-05
sS'CONJ'
p2583
F6e-06
sS'ADP'
p2584
F0.99993
s(lp2585
(g350
I39
tp2586
atp2587
a(S'grupo'
p2588
(dp2589
S'NOUN'
p2590
F1.0
s(lp2591
(g358
I40
tp2592
atp2593
a(g2202
(dp2594
g69
F0.001502
sS'CONJ'
p2595
F0.998498
s(lp2596
(g365
I41
tp2597
atp2598
a(S'en'
p2599
(dp2600
g69
F4e-06
sS'CONJ'
p2601
F1e-06
sS'ADP'
p2602
F0.999995
s(lp2603
(g373
I42
tp2604
atp2605
a(S'veh\xc3\xadculos'
p2606
(dp2607
S'NOUN'
p2608
F1.0
s(lp2609
(g387
I44
tp2610
atp2611
a(S'privados'
p2612
(dp2613
S'ADJ'
p2614
F1.0
s(lp2615
(g395
I43
tp2616
atp2617
a(g198
(dp2618
g198
F1.0
s(lp2619
(g198
I45
tp2620
atp2621
as.