(dp0
S'fr'
p1
(lp2
(S'la'
p3
(dp4
S'PRON'
p5
F0.000119
sS'DET'
p6
F0.999881
sS'NOUN'
p7
F0.0
s(lp8
(S'the'
p9
I0
tp10
atp11
a(S'ccctb'
p12
(dp13
S'VERB'
p14
F3.8e-05
sS'NOUN'
p15
F0.999962
s(lp16
(S'ccctb'
p17
I1
tp18
atp19
a(S','
p20
(dp21
S'.'
p22
F1.0
s(lp23
(g20
I2
tp24
atp25
a(S'la'
p26
(dp27
S'PRON'
p28
F0.000775
sS'DET'
p29
F0.999225
sS'NOUN'
p30
F0.0
s(lp31
(S'the'
p32
I3
tp33
atp34
a(S'base'
p35
(dp36
S'VERB'
p37
F0.000752
sS'NOUN'
p38
F0.999248
s(lp39
(S'base'
p40
I8
tp41
atp42
a(S'imposable'
p43
(dp44
S'ADJ'
p45
F1.0
s(lp46
(S'tax'
p47
I7
tp48
atp49
a(S'consolid\xc3\xa9e'
p50
(dp51
S'ADJ'
p52
F0.026875
sS'VERB'
p53
F0.669121
sS'NOUN'
p54
F0.304004
s(lp55
(S'consolidated'
p56
I5
tp57
atp58
a(S'pour'
p59
(dp60
S'CONJ'
p61
F0.073957
sS'ADP'
p62
F0.926043
s(lp63
(S'corporate'
p64
I6
tp65
atp66
a(S'les'
p67
(dp68
S'PRON'
p69
F0.000318
sS'DET'
p70
F0.99968
sS'ADP'
p71
F2e-06
s(lp72
tp73
a(S'entreprises'
p74
(dp75
S'VERB'
p76
F0.000624
sS'NOUN'
p77
F0.999376
s(lp78
(g64
I6
tp79
atp80
a(g20
(dp81
g22
F1.0
s(lp82
(g20
I9
tp83
atp84
a(S"c'"
p85
(dp86
S'ADJ'
p87
F0.13429
sS'VERB'
p88
F0.638201
sS'NOUN'
p89
F0.227509
s(lp90
tp91
a(S'est'
p92
(dp93
S'VERB'
p94
F0.999314
sS'NOUN'
p95
F0.000686
s(lp96
(S'is'
p97
I10
tp98
atp99
a(S'vraiment'
p100
(dp101
S'ADV'
p102
F1.0
s(lp103
(S'real'
p104
I12
tp105
atp106
a(S'une'
p107
(dp108
S'NOUN'
p109
F8e-06
sS'NUM'
p110
F0.009298
sS'DET'
p111
F0.990694
s(lp112
(S'a'
p113
I11
tp114
atp115
a(S'blague'
p116
(dp117
S'VERB'
p118
F9e-05
sS'NOUN'
p119
F0.99991
s(lp120
(S'joke'
p121
I13
tp122
atp123
a(S'!'
p124
(dp125
g22
F1.0
s(lp126
(g22
I14
tp127
atp128
asS'en'
p129
(lp130
(g9
(dp131
S'NOUN'
p132
F6e-06
sS'DET'
p133
F0.999994
s(lp134
(g9
I0
tp135
atp136
a(g17
(dp137
S'ADJ'
p138
F0.00846
sS'NOUN'
p139
F0.9915400000000001
s(lp140
(g17
I1
tp141
atp142
a(g20
(dp143
g22
F1.0
s(lp144
(g20
I2
tp145
atp146
a(g32
(dp147
S'NOUN'
p148
F2e-06
sS'DET'
p149
F0.999998
s(lp150
(g32
I3
tp151
atp152
a(S'common'
p153
(dp154
S'NOUN'
p155
F0.005483
sS'ADJ'
p156
F0.994517
s(lp157
(g153
I4
tp158
atp159
a(g56
(dp160
S'VERB'
p161
F0.009045
sS'ADJ'
p162
F0.990955
s(lp163
(g56
I5
tp164
atp165
a(g64
(dp166
S'ADJ'
p167
F1.0
s(lp168
(g64
I6
tp169
atp170
a(g47
(dp171
S'VERB'
p172
F5e-06
sS'NOUN'
p173
F0.999995
s(lp174
(g47
I7
tp175
atp176
a(g40
(dp177
S'ADJ'
p178
F0.006809
sS'VERB'
p179
F0.0008849999999999999
sS'NOUN'
p180
F0.992306
s(lp181
(g40
I8
tp182
atp183
a(g20
(dp184
g22
F1.0
s(lp185
(g20
I9
tp186
atp187
a(g97
(dp188
S'VERB'
p189
F1.0
s(lp190
(g97
I10
tp191
atp192
a(g113
(dp193
S'NOUN'
p194
F0.0
sS'DET'
p195
F1.0
s(lp196
(g113
I11
tp197
atp198
a(g104
(dp199
S'ADV'
p200
F0.000109
sS'NOUN'
p201
F0.001774
sS'ADJ'
p202
F0.998117
s(lp203
(g104
I12
tp204
atp205
a(g121
(dp206
S'VERB'
p207
F9.3e-05
sS'NOUN'
p208
F0.999907
s(lp209
(g121
I13
tp210
atp211
a(g22
(dp212
g22
F1.0
s(lp213
(g22
I14
tp214
atp215
asS'nl'
p216
(lp217
(S'de'
p218
(dp219
S'DET'
p220
F1.0
s(lp221
(g32
I3
tp222
atp223
a(S'gemeenschappelijke'
p224
(dp225
S'NOUN'
p226
F0.003651
sS'ADJ'
p227
F0.996349
s(lp228
(g153
I4
tp229
atp230
a(S'geconsolideerde'
p231
(dp232
S'VERB'
p233
F0.972844
sS'NOUN'
p234
F0.027156
s(lp235
(g56
I5
tp236
atp237
a(S'heffingsgrondslag'
p238
(dp239
S'NOUN'
p240
F1.0
s(lp241
(g64
I6
tp242
atp243
a(S'voor'
p244
(dp245
S'ADV'
p246
F0.001935
sS'CONJ'
p247
F3e-06
sS'NOUN'
p248
F0.0
sS'ADP'
p249
F0.998062
s(lp250
(g40
I8
tp251
atp252
a(S'de'
p253
(dp254
S'DET'
p255
F1.0
s(lp256
(g9
I0
tp257
atp258
a(S'vennootschapsbelasting'
p259
(dp260
S'NOUN'
p261
F1.0
s(lp262
(g17
I1
tp263
atp264
a(S'is'
p265
(dp266
S'VERB'
p267
F1.0
s(lp268
(g97
I10
tp269
atp270
a(S'echt'
p271
(dp272
S'ADV'
p273
F0.968809
sS'ADJ'
p274
F0.00602
sS'NOUN'
p275
F0.025171
s(lp276
(g104
I12
tp277
atp278
a(S'een'
p279
(dp280
S'ADJ'
p281
F1.1e-05
sS'PRON'
p282
F2e-05
sS'NUM'
p283
F2e-06
sS'DET'
p284
F0.999967
s(lp285
(g113
I11
tp286
atp287
a(S'lachertje'
p288
(dp289
S'NOUN'
p290
F1.0
s(lp291
(g121
I13
tp292
atp293
a(g124
(dp294
g22
F1.0
s(lp295
(g22
I14
tp296
atp297
asS'de'
p298
(lp299
(S'die'
p300
(dp301
S'PRON'
p302
F0.048552
sS'DET'
p303
F0.949342
s(lp304
(g9
I0
tp305
atp306
a(S'gkkb'
p307
(dp308
S'NOUN'
p309
F0.121016
sS'ADJ'
p310
F0.758036
s(lp311
(g17
I1
tp312
atp313
a(g20
(dp314
g22
F1.0
s(lp315
(g20
I2
tp316
atp317
a(S'die'
p318
(dp319
S'PRON'
p320
F0.115798
sS'DET'
p321
F0.879385
s(lp322
(g32
I3
tp323
atp324
a(S'gemeinsame'
p325
(dp326
S'ADJ'
p327
F1.0
s(lp328
(g153
I4
tp329
atp330
a(S'konsolidierte'
p331
(dp332
S'VERB'
p333
F0.007406
sS'ADJ'
p334
F0.992594
s(lp335
(g56
I5
tp336
atp337
a(S'k\xc3\xb6rperschaftsteuer-bemessungsgrundlage'
p338
(dp339
S'ADJ'
p340
F0.024661
sS'NOUN'
p341
F0.952557
s(lp342
(g64
I6
tp343
atp344
a(g20
(dp345
g22
F1.0
s(lp346
(g20
I9
tp347
atp348
a(S'ist'
p349
(dp350
S'VERB'
p351
F1.0
s(lp352
(g97
I10
tp353
atp354
a(S'ein'
p355
(dp356
S'NUM'
p357
F0.000262
sS'DET'
p358
F0.999738
s(lp359
(g113
I11
tp360
atp361
a(S'echter'
p362
(dp363
S'ADJ'
p364
F1.0
s(lp365
(g104
I12
tp366
atp367
a(S'witz'
p368
(dp369
S'VERB'
p370
F0.161917
sS'NOUN'
p371
F0.67512
s(lp372
(g121
I13
tp373
atp374
a(g22
(dp375
g22
F1.0
s(lp376
(g22
I14
tp377
atp378
asS'it'
p379
(lp380
(S'la'
p381
(dp382
S'PRON'
p383
F0.000408
sS'DET'
p384
F0.999592
s(lp385
(g17
I1
tp386
atp387
a(S'base'
p388
(dp389
S'NOUN'
p390
F1.0
s(lp391
(g17
I1
tp392
atp393
a(S'imponibile'
p394
(dp395
S'NOUN'
p396
F0.130277
sS'ADJ'
p397
F0.869723
s(lp398
(g17
I1
tp399
atp400
a(S'consolidata'
p401
(dp402
S'VERB'
p403
F0.186305
sS'ADJ'
p404
F0.813695
s(lp405
(g17
I1
tp406
atp407
a(S'comune'
p408
(dp409
S'ADJ'
p410
F0.420011
sS'NOUN'
p411
F0.579989
s(lp412
(g153
I4
tp413
atp414
a(S'per'
p415
(dp416
S'CONJ'
p417
F0.060558
sS'ADP'
p418
F0.939442
s(lp419
(g56
I5
tp420
atp421
a(S"l'"
p422
(dp423
S'NOUN'
p424
F0.009743
sS'VERB'
p425
F0.966503
sS'ADJ'
p426
F0.023755
s(lp427
(g17
I1
tp428
atp429
a(S'imposta'
p430
(dp431
S'VERB'
p432
F0.158875
sS'NOUN'
p433
F0.841125
s(lp434
(g47
I7
tp435
atp436
a(S'sulle'
p437
(dp438
S'NOUN'
p439
F8e-06
sS'ADP'
p440
F0.999992
s(lp441
(g64
I6
tp442
atp443
a(S'societ\xc3\xa0'
p444
(dp445
S'NOUN'
p446
F1.0
s(lp447
(g17
I1
tp448
atp449
a(S'('
p450
(dp451
g22
F1.0
s(lp452
(g17
I1
tp453
atp454
a(S'ccctb'
p455
(dp456
S'NOUN'
p457
F1.0
s(lp458
tp459
a(S')'
p460
(dp461
g22
F1.0
s(lp462
(g17
I1
tp463
atp464
a(S'\xc3\xa8'
p465
(dp466
S'VERB'
p467
F1.0
s(lp468
(g97
I10
tp469
atp470
a(S"un'"
p471
(dp472
S'PRON'
p473
F0.004222
sS'DEF'
p474
F0.995778
s(lp475
(g113
I11
tp476
atp477
a(S'autentica'
p478
(dp479
S'VERB'
p480
F0.061196
sS'ADJ'
p481
F0.938804
s(lp482
(g104
I12
tp483
atp484
a(S'barzelletta'
p485
(dp486
S'NOUN'
p487
F1.0
s(lp488
(g121
I13
tp489
atp490
a(g22
(dp491
g22
F1.0
s(lp492
(g22
I14
tp493
atp494
asS'sk'
p495
(lp496
(S'spolo\xc4\x8dn\xc3\xbd'
p497
(dp498
S'ADJ'
p499
F1.0
s(lp500
(g17
I1
tp501
atp502
a(S'konsolidovan\xc3\xbd'
p503
(dp504
S'NOUN'
p505
F0.003357
sS'VERB'
p506
F0.005132
sS'ADJ'
p507
F0.99151
s(lp508
(g17
I1
tp509
atp510
a(S'z\xc3\xa1klad'
p511
(dp512
S'NOUN'
p513
F1.0
s(lp514
(g17
I1
tp515
atp516
a(S'dane'
p517
(dp518
S'NOUN'
p519
F1.0
s(lp520
(g17
I1
tp521
atp522
a(S'z'
p523
(dp524
S'X'
p525
F0.000187
sS'NOUN'
p526
F3.2e-05
sS'ADP'
p527
F0.999781
s(lp528
(g17
I1
tp529
atp530
a(S'pr\xc3\xadjmu'
p531
(dp532
S'VERB'
p533
F9e-06
sS'NOUN'
p534
F0.999991
s(lp535
(g17
I1
tp536
atp537
a(S'pr\xc3\xa1vnick\xc3\xbdch'
p538
(dp539
S'ADJ'
p540
F1.0
s(lp541
tp542
a(S'os\xc3\xb4b'
p543
(dp544
S'NOUN'
p545
F1.0
s(lp546
(g17
I1
tp547
atp548
a(S'je'
p549
(dp550
S'PRON'
p551
F4.3e-05
sS'VERB'
p552
F0.999927
sg525
F2.9e-05
s(lp553
(g97
I10
tp554
atp555
a(S'naozaj'
p556
(dp557
g525
F1.0
s(lp558
(g104
I12
tp559
atp560
a(S'\xc5\xbeart'
p561
(dp562
S'NOUN'
p563
F1.0
s(lp564
(g121
I13
tp565
atp566
a(g22
(dp567
g22
F1.0
s(lp568
(g22
I14
tp569
atp570
asS'pl'
p571
(lp572
(S'wsp\xc3\xb3lna'
p573
(dp574
S'ADJ'
p575
F1.0
s(lp576
(g153
I4
tp577
atp578
a(S'skonsolidowana'
p579
(dp580
S'NOUN'
p581
F0.36134799999999995
sS'VERB'
p582
F0.197262
sS'ADJ'
p583
F0.441388
s(lp584
(g56
I5
tp585
atp586
a(S'podstawa'
p587
(dp588
S'NOUN'
p589
F1.0
s(lp590
(g40
I8
tp591
atp592
a(S'opodatkowania'
p593
(dp594
S'VERB'
p595
F0.827252
sS'NOUN'
p596
F0.172748
s(lp597
(g47
I7
tp598
atp599
a(S'os\xc3\xb3b'
p600
(dp601
S'NOUN'
p602
F1.0
s(lp603
(g64
I6
tp604
atp605
a(S'prawnych'
p606
(dp607
S'ADJ'
p608
F0.999999
s(lp609
(g17
I1
tp610
atp611
a(S'to'
p612
(dp613
S'NOUN'
p614
F0.042839
sS'ADP'
p615
F5e-06
sS'PRT'
p616
F0.03517
sg525
F2e-06
sS'CONJ'
p617
F0.258999
sS'ADJ'
p618
F0.662986
s(lp619
(g97
I10
tp620
atp621
a(S'jeden'
p622
(dp623
S'NUM'
p624
F0.003171
sS'ADJ'
p625
F0.9968289999999999
s(lp626
(g121
I13
tp627
atp628
a(S'wielki'
p629
(dp630
S'NOUN'
p631
F7e-06
sS'ADJ'
p632
F0.9999930000000001
s(lp633
tp634
a(S'\xc5\xbcart'
p635
(dp636
S'NOUN'
p637
F1.0
s(lp638
(g121
I13
tp639
atp640
a(g22
(dp641
g22
F1.0
s(lp642
(g22
I14
tp643
atp644
asS'sl'
p645
(lp646
(S'ccctb'
p647
(dp648
S'ADJ'
p649
F0.000972
sS'NOUN'
p650
F0.997845
sS'ADP'
p651
F0.000658
sg525
F0.000526
s(lp652
(g17
I1
tp653
atp654
a(g20
(dp655
g22
F1.0
s(lp656
(g20
I2
tp657
atp658
a(S'skupna'
p659
(dp660
S'ADJ'
p661
F1.0
s(lp662
(g153
I4
tp663
atp664
a(S'konsolidirana'
p665
(dp666
S'ADV'
p667
F5e-06
sS'NOUN'
p668
F0.36753299999999983
sS'VERB'
p669
F8.8e-05
sS'ADJ'
p670
F0.632372
s(lp671
(g56
I5
tp672
atp673
a(S'dav\xc4\x8dna'
p674
(dp675
S'ADJ'
p676
F1.0
s(lp677
(g47
I7
tp678
atp679
a(S'osnova'
p680
(dp681
S'NOUN'
p682
F1.0
s(lp683
(g40
I8
tp684
atp685
a(S'za'
p686
(dp687
S'ADV'
p688
F0.000141
sg525
F3.1e-05
sS'ADP'
p689
F0.9998279999999999
s(lp690
(g17
I1
tp691
atp692
a(S'pravne'
p693
(dp694
S'ADJ'
p695
F1.0
s(lp696
tp697
a(S'osebe'
p698
(dp699
S'NOUN'
p700
F1.0
s(lp701
(g17
I1
tp702
atp703
a(g20
(dp704
g22
F1.0
s(lp705
(g20
I9
tp706
atp707
a(S'je'
p708
(dp709
S'PRON'
p710
F0.00111
sS'VERB'
p711
F0.9988870000000001
sg525
F3e-06
s(lp712
(g97
I10
tp713
atp714
a(S'prava'
p715
(dp716
S'NOUN'
p717
F7.4e-05
sS'ADJ'
p718
F0.999925
s(lp719
(g104
I12
tp720
atp721
a(S'\xc5\xa1ala'
p722
(dp723
S'NOUN'
p724
F1.0
s(lp725
(g121
I13
tp726
atp727
a(g22
(dp728
g22
F1.0
s(lp729
(g22
I14
tp730
atp731
asS'es'
p732
(lp733
(S'la'
p734
(dp735
S'PRON'
p736
F6.1e-05
sS'DET'
p737
F0.99988
sS'NOUN'
p738
F0.0
sg525
F5.9e-05
s(lp739
(g9
I0
tp740
atp741
a(S'base'
p742
(dp743
S'ADJ'
p744
F0.000318
sS'VERB'
p745
F2.7e-05
sS'NOUN'
p746
F0.999631
sg525
F2.4e-05
s(lp747
(g17
I1
tp748
atp749
a(S'imponible'
p750
(dp751
S'ADJ'
p752
F1.0
s(lp753
(g17
I1
tp754
atp755
a(S'consolidada'
p756
(dp757
S'VERB'
p758
F1.0
s(lp759
(g17
I1
tp760
atp761
a(S'com\xc3\xban'
p762
(dp763
S'ADJ'
p764
F1.0
s(lp765
(g153
I4
tp766
atp767
a(S'del'
p768
(dp769
S'ADP'
p770
F1.0
s(lp771
(g64
I6
tp772
atp773
a(S'impuesto'
p774
(dp775
S'VERB'
p776
F1.0
s(lp777
(g47
I7
tp778
atp779
a(S'sobre'
p780
(dp781
S'NOUN'
p782
F0.0
sS'ADP'
p783
F1.0
s(lp784
tp785
a(S'sociedades'
p786
(dp787
S'NOUN'
p788
F1.0
s(lp789
(g64
I6
tp790
atp791
a(g450
(dp792
g22
F1.0
s(lp793
(g17
I1
tp794
atp795
a(S'biccis'
p796
(dp797
S'ADJ'
p798
F0.050038
sS'NOUN'
p799
F0.949962
s(lp800
tp801
a(g460
(dp802
g22
F1.0
s(lp803
(g17
I1
tp804
atp805
a(S'es'
p806
(dp807
S'VERB'
p808
F1.0
s(lp809
(g97
I10
tp810
atp811
a(S'una'
p812
(dp813
S'DET'
p814
F1.0
s(lp815
(g113
I11
tp816
atp817
a(S'aut\xc3\xa9ntica'
p818
(dp819
S'ADJ'
p820
F1.0
s(lp821
(g104
I12
tp822
atp823
a(S'broma'
p824
(dp825
S'VERB'
p826
F0.134944
sS'NOUN'
p827
F0.865056
s(lp828
(g121
I13
tp829
atp830
a(g22
(dp831
g22
F1.0
s(lp832
(g22
I14
tp833
atp834
as.