(dp0
S'fr'
p1
(lp2
(S'le'
p3
(dp4
S'PRON'
p5
F0.000653
sS'DET'
p6
F0.999347
s(lp7
(S'the'
p8
I0
tp9
atp10
a(S'march\xc3\xa9'
p11
(dp12
S'VERB'
p13
F0.000289
sS'NOUN'
p14
F0.999711
s(lp15
(S'market'
p16
I2
tp17
atp18
a(S'int\xc3\xa9rieur'
p19
(dp20
S'NOUN'
p21
F0.131865
sS'ADJ'
p22
F0.868135
s(lp23
(S'internal'
p24
I1
tp25
atp26
a(S'doit'
p27
(dp28
S'VERB'
p29
F0.995449
sS'NOUN'
p30
F0.004551
s(lp31
(S'must'
p32
I3
tp33
atp34
a(S'\xc3\xa9galement'
p35
(dp36
S'ADV'
p37
F1.0
s(lp38
(S'also'
p39
I4
tp40
atp41
a(S'gagner'
p42
(dp43
S'VERB'
p44
F1.0
s(lp45
(S'gain'
p46
I5
tp47
atp48
a(S'le'
p49
(dp50
S'PRON'
p51
F3.4e-05
sS'DET'
p52
F0.999966
s(lp53
(S'the'
p54
I6
tp55
atp56
a(S'soutien'
p57
(dp58
S'NOUN'
p59
F1.0
s(lp60
(S'support'
p61
I7
tp62
atp63
a(S'de'
p64
(dp65
S'ADP'
p66
F1.0
s(lp67
(S'of'
p68
I8
tp69
atp70
a(S'nos'
p71
(dp72
S'PRON'
p73
F1.0
s(lp74
(S'our'
p75
I9
tp76
atp77
a(S'concitoyens'
p78
(dp79
S'NOUN'
p80
F1.0
s(lp81
(S'citizens'
p82
I10
tp83
atp84
a(S'.'
p85
(dp86
g85
F1.0
s(lp87
(g85
I11
tp88
atp89
asS'en'
p90
(lp91
(g8
(dp92
S'NOUN'
p93
F2e-06
sS'DET'
p94
F0.999998
s(lp95
(g8
I0
tp96
atp97
a(g24
(dp98
S'NOUN'
p99
F0.001176
sS'ADJ'
p100
F0.998824
s(lp101
(g24
I1
tp102
atp103
a(g16
(dp104
S'VERB'
p105
F6e-06
sS'NOUN'
p106
F0.999994
s(lp107
(g16
I2
tp108
atp109
a(g32
(dp110
S'VERB'
p111
F0.999994
sS'NOUN'
p112
F6e-06
s(lp113
(g32
I3
tp114
atp115
a(g39
(dp116
S'ADV'
p117
F1.0
s(lp118
(g39
I4
tp119
atp120
a(g46
(dp121
S'VERB'
p122
F0.970227
sS'NOUN'
p123
F0.029773
s(lp124
(g46
I5
tp125
atp126
a(g54
(dp127
S'NOUN'
p128
F1e-06
sS'DET'
p129
F0.999999
s(lp130
(g54
I6
tp131
atp132
a(g61
(dp133
S'VERB'
p134
F0.0015140000000000002
sS'NOUN'
p135
F0.998486
s(lp136
(g61
I7
tp137
atp138
a(g68
(dp139
S'ADP'
p140
F1.0
s(lp141
(g68
I8
tp142
atp143
a(g75
(dp144
S'PRON'
p145
F1.0
s(lp146
(g75
I9
tp147
atp148
a(g82
(dp149
S'NOUN'
p150
F1.0
s(lp151
(g82
I10
tp152
atp153
a(g85
(dp154
g85
F1.0
s(lp155
(g85
I11
tp156
atp157
asS'nl'
p158
(lp159
(S'de'
p160
(dp161
S'DET'
p162
F1.0
s(lp163
(g8
I0
tp164
atp165
a(S'interne'
p166
(dp167
S'NOUN'
p168
F0.0002
sS'ADJ'
p169
F0.9998
s(lp170
(g24
I1
tp171
atp172
a(S'markt'
p173
(dp174
S'NOUN'
p175
F1.0
s(lp176
(g16
I2
tp177
atp178
a(S'moet'
p179
(dp180
S'VERB'
p181
F1.0
s(lp182
(g32
I3
tp183
atp184
a(S'ook'
p185
(dp186
S'ADV'
p187
F1.0
s(lp188
(g39
I4
tp189
atp190
a(S'steun'
p191
(dp192
S'VERB'
p193
F0.013004
sS'NOUN'
p194
F0.986996
s(lp195
(g61
I7
tp196
atp197
a(S'krijgen'
p198
(dp199
S'VERB'
p200
F0.9997630000000001
sS'NOUN'
p201
F0.000238
s(lp202
(g46
I5
tp203
atp204
a(S'van'
p205
(dp206
S'ADP'
p207
F1.0
s(lp208
(g68
I8
tp209
atp210
a(S'onze'
p211
(dp212
S'PRON'
p213
F1.0
s(lp214
(g75
I9
tp215
atp216
a(S'burgers'
p217
(dp218
S'NOUN'
p219
F1.0
s(lp220
(g82
I10
tp221
atp222
a(g85
(dp223
g85
F1.0
s(lp224
(g85
I11
tp225
atp226
asS'de'
p227
(lp228
(S'der'
p229
(dp230
S'PRON'
p231
F0.000518
sS'DET'
p232
F0.999318
s(lp233
(g8
I0
tp234
atp235
a(S'binnenmarkt'
p236
(dp237
S'ADJ'
p238
F0.004245
sS'NOUN'
p239
F0.988629
s(lp240
(g24
I1
tp241
atp242
a(S'muss'
p243
(dp244
S'VERB'
p245
F1.0
s(lp246
(g32
I3
tp247
atp248
a(S'au\xc3\x9ferdem'
p249
(dp250
S'ADV'
p251
F1.0
s(lp252
(g39
I4
tp253
atp254
a(S'die'
p255
(dp256
S'PRON'
p257
F0.000198
sS'DET'
p258
F0.999746
s(lp259
(g54
I6
tp260
atp261
a(S'unterst\xc3\xbctzung'
p262
(dp263
S'ADJ'
p264
F0.00027
sS'NOUN'
p265
F0.999651
s(lp266
(g61
I7
tp267
atp268
a(S'unserer'
p269
(dp270
S'PRON'
p271
F1.0
s(lp272
(g75
I9
tp273
atp274
a(S'b\xc3\xbcrgerinnen'
p275
(dp276
S'ADJ'
p277
F0.142124
sS'NOUN'
p278
F0.760047
s(lp279
(g82
I10
tp280
atp281
a(S'und'
p282
(dp283
S'CONJ'
p284
F1.0
s(lp285
tp286
a(S'b\xc3\xbcrger'
p287
(dp288
S'VERB'
p289
F1.0
s(lp290
(g82
I10
tp291
atp292
a(S'erhalten'
p293
(dp294
S'VERB'
p295
F0.930095
s(lp296
(g46
I5
tp297
atp298
a(g85
(dp299
g85
F1.0
s(lp300
(g85
I11
tp301
atp302
asS'it'
p303
(lp304
(S'il'
p305
(dp306
S'DET'
p307
F1.0
s(lp308
(g8
I0
tp309
atp310
a(S'mercato'
p311
(dp312
S'NOUN'
p313
F1.0
s(lp314
(g16
I2
tp315
atp316
a(S'interno'
p317
(dp318
S'NOUN'
p319
F0.071284
sS'VERB'
p320
F7.5e-05
sS'ADJ'
p321
F0.928641
s(lp322
(g24
I1
tp323
atp324
a(S'deve'
p325
(dp326
S'VERB'
p327
F1.0
s(lp328
(g32
I3
tp329
atp330
a(S'ottenere'
p331
(dp332
S'VERB'
p333
F1.0
s(lp334
(g46
I5
tp335
atp336
a(S'anche'
p337
(dp338
S'ADV'
p339
F0.999986
sS'NOUN'
p340
F1.4e-05
s(lp341
(g39
I4
tp342
atp343
a(S'il'
p344
(dp345
S'DET'
p346
F1.0
s(lp347
(g54
I6
tp348
atp349
a(S'sostegno'
p350
(dp351
S'NOUN'
p352
F1.0
s(lp353
(g61
I7
tp354
atp355
a(S'dei'
p356
(dp357
S'NOUN'
p358
F1e-06
sS'DEF'
p359
F0.000281
sS'ADP'
p360
F0.999718
s(lp361
(g68
I8
tp362
atp363
a(S'nostri'
p364
(dp365
S'PRON'
p366
F1.0
s(lp367
(g75
I9
tp368
atp369
a(S'cittadini'
p370
(dp371
S'ADJ'
p372
F0.148691
sS'NOUN'
p373
F0.851309
s(lp374
(g82
I10
tp375
atp376
a(g85
(dp377
g85
F1.0
s(lp378
(g85
I11
tp379
atp380
asS'sk'
p381
(lp382
(S'vn\xc3\xbatorn\xc3\xbd'
p383
(dp384
S'ADJ'
p385
F1.0
s(lp386
(g24
I1
tp387
atp388
a(S'trh'
p389
(dp390
S'NOUN'
p391
F1.0
s(lp392
(g16
I2
tp393
atp394
a(S'mus\xc3\xad'
p395
(dp396
S'VERB'
p397
F1.0
s(lp398
(g32
I3
tp399
atp400
a(S'taktie\xc5\xbe'
p401
(dp402
S'X'
p403
F1.0
s(lp404
(g39
I4
tp405
atp406
a(S'z\xc3\xadska\xc5\xa5'
p407
(dp408
S'VERB'
p409
F1.0
s(lp410
(g46
I5
tp411
atp412
a(S'podporu'
p413
(dp414
S'NOUN'
p415
F1.0
s(lp416
(g61
I7
tp417
atp418
a(S'na\xc5\xa1ich'
p419
(dp420
S'PRON'
p421
F0.999787
sS'NOUN'
p422
F9.2e-05
sg403
F0.000121
s(lp423
(g75
I9
tp424
atp425
a(S'ob\xc4\x8danov'
p426
(dp427
S'NOUN'
p428
F1.0
s(lp429
(g82
I10
tp430
atp431
a(g85
(dp432
g85
F1.0
s(lp433
(g85
I11
tp434
atp435
asS'pl'
p436
(lp437
(S'rynek'
p438
(dp439
S'NOUN'
p440
F1.0
s(lp441
(g16
I2
tp442
atp443
a(S'wewn\xc4\x99trzny'
p444
(dp445
S'ADJ'
p446
F1.0
s(lp447
(g24
I1
tp448
atp449
a(S'musi'
p450
(dp451
S'VERB'
p452
F1.0
s(lp453
(g32
I3
tp454
atp455
a(S'tak\xc5\xbce'
p456
(dp457
S'PRT'
p458
F0.938297
sS'CONJ'
p459
F0.061703
s(lp460
(g39
I4
tp461
atp462
a(S'zyska\xc4\x87'
p463
(dp464
S'VERB'
p465
F1.0
s(lp466
(g46
I5
tp467
atp468
a(S'poparcie'
p469
(dp470
S'VERB'
p471
F0.051649
sS'NOUN'
p472
F0.9483509999999999
s(lp473
(g61
I7
tp474
atp475
a(S'naszych'
p476
(dp477
S'NOUN'
p478
F0.000747
sS'ADJ'
p479
F0.999252
s(lp480
(g75
I9
tp481
atp482
a(S'obywateli'
p483
(dp484
S'NOUN'
p485
F1.0
s(lp486
(g82
I10
tp487
atp488
a(g85
(dp489
g85
F1.0
s(lp490
(g85
I11
tp491
atp492
asS'sl'
p493
(lp494
(S'notranji'
p495
(dp496
S'ADJ'
p497
F0.9999999999999999
s(lp498
(g24
I1
tp499
atp500
a(S'trg'
p501
(dp502
S'NOUN'
p503
F1.0
s(lp504
(g16
I2
tp505
atp506
a(S'mora'
p507
(dp508
S'VERB'
p509
F0.999569
sS'NOUN'
p510
F0.000431
s(lp511
(g32
I3
tp512
atp513
a(S'pridobiti'
p514
(dp515
S'VERB'
p516
F1.0
s(lp517
(g46
I5
tp518
atp519
a(S'tudi'
p520
(dp521
S'PRT'
p522
F1.0
s(lp523
(g39
I4
tp524
atp525
a(S'podporo'
p526
(dp527
S'NOUN'
p528
F1.0
s(lp529
(g61
I7
tp530
atp531
a(S'na\xc5\xa1ih'
p532
(dp533
S'PRON'
p534
F1.0
s(lp535
(g75
I9
tp536
atp537
a(S'dr\xc5\xbeavljanov'
p538
(dp539
S'NOUN'
p540
F1.0
s(lp541
(g82
I10
tp542
atp543
a(g85
(dp544
g85
F1.0
s(lp545
(g85
I11
tp546
atp547
asS'es'
p548
(lp549
(S'el'
p550
(dp551
S'PRON'
p552
F1e-05
sS'DET'
p553
F0.99999
s(lp554
(g8
I0
tp555
atp556
a(S'mercado'
p557
(dp558
S'VERB'
p559
F0.00162
sS'NOUN'
p560
F0.99838
s(lp561
(g16
I2
tp562
atp563
a(S'interior'
p564
(dp565
S'NOUN'
p566
F0.118779
sS'ADJ'
p567
F0.881221
s(lp568
(g24
I1
tp569
atp570
a(S'tambi\xc3\xa9n'
p571
(dp572
S'ADV'
p573
F1.0
s(lp574
(g39
I4
tp575
atp576
a(S'debe'
p577
(dp578
S'VERB'
p579
F1.0
s(lp580
(g32
I3
tp581
atp582
a(S'lograr'
p583
(dp584
S'VERB'
p585
F1.0
s(lp586
(g46
I5
tp587
atp588
a(S'el'
p589
(dp590
S'PRON'
p591
F0.0
sS'DET'
p592
F1.0
s(lp593
(g54
I6
tp594
atp595
a(S'apoyo'
p596
(dp597
S'NOUN'
p598
F1.0
s(lp599
(g61
I7
tp600
atp601
a(S'de'
p602
(dp603
g403
F0.0
sS'CONJ'
p604
F0.000289
sS'ADP'
p605
F0.999711
s(lp606
(g68
I8
tp607
atp608
a(S'nuestros'
p609
(dp610
S'PRON'
p611
F1.0
s(lp612
(g75
I9
tp613
atp614
a(S'ciudadanos'
p615
(dp616
S'NOUN'
p617
F1.0
s(lp618
(g82
I10
tp619
atp620
a(g85
(dp621
g85
F1.0
s(lp622
(g85
I11
tp623
atp624
as.