(dp0
S'fr'
p1
(lp2
(S'-'
p3
(dp4
S'.'
p5
F1.0
s(lp6
(g3
I0
tp7
atp8
a(S'('
p9
(dp10
g5
F1.0
s(lp11
(g9
I1
tp12
atp13
a(S'sk'
p14
(dp15
S'ADJ'
p16
F0.148908
sS'VERB'
p17
F0.001517
sS'NOUN'
p18
F0.849575
s(lp19
(S'sk'
p20
I2
tp21
atp22
a(S')'
p23
(dp24
g5
F1.0
s(lp25
(g23
I3
tp26
atp27
a(S'madame'
p28
(dp29
S'NOUN'
p30
F1.0
s(lp31
tp32
a(S'la'
p33
(dp34
S'PRON'
p35
F5.2e-05
sS'DET'
p36
F0.999948
sS'NOUN'
p37
F0.0
s(lp38
(S'madam'
p39
I4
tp40
atp41
a(S'pr\xc3\xa9sidente'
p42
(dp43
S'NOUN'
p44
F1.0
s(lp45
(S'president'
p46
I5
tp47
atp48
a(S','
p49
(dp50
g5
F1.0
s(lp51
(g49
I6
tp52
atp53
a(S'la'
p54
(dp55
S'PRON'
p56
F6.9e-05
sS'DET'
p57
F0.999931
sS'NOUN'
p58
F0.0
s(lp59
tp60
a(S'tuberculose'
p61
(dp62
S'NOUN'
p63
F1.0
s(lp64
(S'tuberculosis'
p65
I7
tp66
atp67
a(g49
(dp68
g5
F1.0
s(lp69
(g49
I8
tp70
atp71
a(S'comme'
p72
(dp73
S'ADV'
p74
F0.382918
sS'CONJ'
p75
F0.617082
s(lp76
(S'like'
p77
I9
tp78
atp79
a(S'le'
p80
(dp81
S'PRON'
p82
F0.000386
sS'DET'
p83
F0.999614
s(lp84
tp85
a(S'paludisme'
p86
(dp87
S'NOUN'
p88
F1.0
s(lp89
(S'malaria'
p90
I10
tp91
atp92
a(S'et'
p93
(dp94
S'CONJ'
p95
F1.0
s(lp96
(S'and'
p97
I11
tp98
atp99
a(S'le'
p100
(dp101
S'PRON'
p102
F0.000549
sS'DET'
p103
F0.999451
s(lp104
tp105
a(S'sida'
p106
(dp107
S'NOUN'
p108
F1.0
s(lp109
(S'aids'
p110
I12
tp111
atp112
a(g49
(dp113
g5
F1.0
s(lp114
(g49
I13
tp115
atp116
a(S'est'
p117
(dp118
S'VERB'
p119
F0.998399
sS'NOUN'
p120
F0.001601
s(lp121
(S'is'
p122
I14
tp123
atp124
a(S'une'
p125
(dp126
S'NOUN'
p127
F0.061038
sS'NUM'
p128
F0.178193
sS'DET'
p129
F0.760769
s(lp130
(S'one'
p131
I15
tp132
atp133
a(S'des'
p134
(dp135
S'DET'
p136
F0.000242
sS'ADP'
p137
F0.999758
s(lp138
(S'of'
p139
I16
tp140
atp141
a(S'grandes'
p142
(dp143
S'ADJ'
p144
F1.0
s(lp145
(S'great'
p146
I18
tp147
atp148
a(S'pand\xc3\xa9mies'
p149
(dp150
S'NOUN'
p151
F1.0
s(lp152
(S'pandemics'
p153
I19
tp154
atp155
a(S'qui'
p156
(dp157
S'PRON'
p158
F1.0
s(lp159
(S'which'
p160
I20
tp161
atp162
a(S'd\xc3\xa9ciment'
p163
(dp164
S'VERB'
p165
F1.0
s(lp166
(S'decimating'
p167
I22
tp168
atp169
a(S'les'
p170
(dp171
S'PRON'
p172
F0.000124
sS'DET'
p173
F0.999843
sS'ADP'
p174
F3.3e-05
s(lp175
(S'the'
p176
I23
tp177
atp178
a(S'populations'
p179
(dp180
S'NOUN'
p181
F1.0
s(lp182
(S'populations'
p183
I24
tp184
atp185
a(S'des'
p186
(dp187
S'DET'
p188
F2.1e-05
sS'ADP'
p189
F0.999979
s(lp190
(S'of'
p191
I25
tp192
atp193
a(S'pays'
p194
(dp195
S'NOUN'
p196
F1.0
s(lp197
(S'countries'
p198
I27
tp199
atp200
a(S'en'
p201
(dp202
S'PRON'
p203
F0.000406
sS'ADP'
p204
F0.999594
s(lp205
tp206
a(S'd\xc3\xa9veloppement'
p207
(dp208
S'NOUN'
p209
F1.0
s(lp210
(S'developing'
p211
I26
tp212
atp213
a(g49
(dp214
g5
F1.0
s(lp215
(g49
I28
tp216
atp217
a(S'particuli\xc3\xa8rement'
p218
(dp219
S'ADV'
p220
F1.0
s(lp221
(S'particularly'
p222
I29
tp223
atp224
a(S'en'
p225
(dp226
S'PRON'
p227
F0.004292
sS'ADP'
p228
F0.995708
s(lp229
(S'in'
p230
I30
tp231
atp232
a(S'afrique'
p233
(dp234
S'NOUN'
p235
F0.213424
sS'VERB'
p236
F0.0029709999999999997
sS'ADJ'
p237
F0.783605
s(lp238
(S'africa'
p239
I31
tp240
atp241
a(S'et'
p242
(dp243
S'CONJ'
p244
F1.0
s(lp245
(S'and'
p246
I32
tp247
atp248
a(S'en'
p249
(dp250
S'PRON'
p251
F0.023602
sS'ADP'
p252
F0.976398
s(lp253
tp254
a(S'asie'
p255
(dp256
S'ADJ'
p257
F0.290716
sS'VERB'
p258
F0.007174
sS'NOUN'
p259
F0.702109
s(lp260
(S'asia'
p261
I33
tp262
atp263
a(g5
(dp264
g5
F1.0
s(lp265
(g5
I34
tp266
atp267
asS'en'
p268
(lp269
(g3
(dp270
g5
F1.0
s(lp271
(g3
I0
tp272
atp273
a(g9
(dp274
g5
F1.0
s(lp275
(g9
I1
tp276
atp277
a(g20
(dp278
S'ADV'
p279
F0.000415
sS'ADJ'
p280
F0.054643
sS'VERB'
p281
F0.005458
sS'NOUN'
p282
F0.939483
s(lp283
(g20
I2
tp284
atp285
a(g23
(dp286
g5
F1.0
s(lp287
(g23
I3
tp288
atp289
a(g39
(dp290
S'NOUN'
p291
F1.0
s(lp292
(g39
I4
tp293
atp294
a(g46
(dp295
S'NOUN'
p296
F1.0
s(lp297
(g46
I5
tp298
atp299
a(g49
(dp300
g5
F1.0
s(lp301
(g49
I6
tp302
atp303
a(g65
(dp304
S'NOUN'
p305
F1.0
s(lp306
(g65
I7
tp307
atp308
a(g49
(dp309
g5
F1.0
s(lp310
(g49
I8
tp311
atp312
a(g77
(dp313
S'VERB'
p314
F0.061238
sS'ADJ'
p315
F0.062028
sS'ADP'
p316
F0.876734
s(lp317
(g77
I9
tp318
atp319
a(g90
(dp320
S'NOUN'
p321
F1.0
s(lp322
(g90
I10
tp323
atp324
a(g97
(dp325
S'CONJ'
p326
F0.999996
sS'NOUN'
p327
F4e-06
s(lp328
(g97
I11
tp329
atp330
a(g110
(dp331
S'VERB'
p332
F0.070347
sS'NOUN'
p333
F0.929653
s(lp334
(g110
I12
tp335
atp336
a(g49
(dp337
g5
F1.0
s(lp338
(g49
I13
tp339
atp340
a(g122
(dp341
S'VERB'
p342
F1.0
s(lp343
(g122
I14
tp344
atp345
a(g131
(dp346
S'PRON'
p347
F0.000657
sS'NUM'
p348
F0.999215
sS'NOUN'
p349
F0.000127
s(lp350
(g131
I15
tp351
atp352
a(g139
(dp353
S'ADP'
p354
F1.0
s(lp355
(g139
I16
tp356
atp357
a(S'the'
p358
(dp359
S'NOUN'
p360
F1e-06
sS'DET'
p361
F0.999999
s(lp362
(g358
I17
tp363
atp364
a(g146
(dp365
S'ADV'
p366
F2.2e-05
sS'NOUN'
p367
F0.000747
sS'ADJ'
p368
F0.999231
s(lp369
(g146
I18
tp370
atp371
a(g153
(dp372
S'NOUN'
p373
F1.0
s(lp374
(g153
I19
tp375
atp376
a(g160
(dp377
S'DET'
p378
F1.0
s(lp379
(g160
I20
tp380
atp381
a(S'are'
p382
(dp383
S'VERB'
p384
F0.999998
sS'NOUN'
p385
F2e-06
s(lp386
(g382
I21
tp387
atp388
a(g167
(dp389
S'VERB'
p390
F1.0
s(lp391
(g167
I22
tp392
atp393
a(g176
(dp394
S'NOUN'
p395
F8e-06
sS'DET'
p396
F0.999992
s(lp397
(g176
I23
tp398
atp399
a(g183
(dp400
S'NOUN'
p401
F1.0
s(lp402
(g183
I24
tp403
atp404
a(g191
(dp405
S'ADP'
p406
F1.0
s(lp407
(g191
I25
tp408
atp409
a(g211
(dp410
S'NOUN'
p411
F0.015453
sS'VERB'
p412
F0.89292
sS'ADJ'
p413
F0.091628
s(lp414
(g211
I26
tp415
atp416
a(g198
(dp417
S'NOUN'
p418
F1.0
s(lp419
(g198
I27
tp420
atp421
a(g49
(dp422
g5
F1.0
s(lp423
(g49
I28
tp424
atp425
a(g222
(dp426
S'ADV'
p427
F1.0
s(lp428
(g222
I29
tp429
atp430
a(g230
(dp431
S'ADV'
p432
F0.000915
sS'PRT'
p433
F5e-06
sS'ADP'
p434
F0.99908
s(lp435
(g230
I30
tp436
atp437
a(g239
(dp438
S'ADV'
p439
F0.000141
sS'ADJ'
p440
F0.002422
sS'VERB'
p441
F0.001142
sS'NOUN'
p442
F0.996295
s(lp443
(g239
I31
tp444
atp445
a(g246
(dp446
S'CONJ'
p447
F0.999916
sS'NOUN'
p448
F8.4e-05
s(lp449
(g246
I32
tp450
atp451
a(g261
(dp452
S'ADJ'
p453
F0.001494
sS'NOUN'
p454
F0.998506
s(lp455
(g261
I33
tp456
atp457
a(g5
(dp458
g5
F1.0
s(lp459
(g5
I34
tp460
atp461
asS'nl'
p462
(lp463
(g9
(dp464
g5
F1.0
s(lp465
(g9
I1
tp466
atp467
a(S'sk'
p468
(dp469
S'ADJ'
p470
F0.009095
sS'NOUN'
p471
F0.990905
s(lp472
(g20
I2
tp473
atp474
a(g23
(dp475
g5
F1.0
s(lp476
(g23
I3
tp477
atp478
a(S'mevrouw'
p479
(dp480
S'NOUN'
p481
F1.0
s(lp482
(g39
I4
tp483
atp484
a(S'de'
p485
(dp486
S'DET'
p487
F1.0
s(lp488
tp489
a(S'voorzitter'
p490
(dp491
S'NOUN'
p492
F1.0
s(lp493
(g46
I5
tp494
atp495
a(g49
(dp496
g5
F1.0
s(lp497
(g49
I6
tp498
atp499
a(S'tuberculose'
p500
(dp501
S'NOUN'
p502
F1.0
s(lp503
(g65
I7
tp504
atp505
a(S'is'
p506
(dp507
S'VERB'
p508
F1.0
s(lp509
(g122
I14
tp510
atp511
a(S'\xc3\xa9\xc3\xa9n'
p512
(dp513
S'ADJ'
p514
F0.032761
sS'PRON'
p515
F0.068154
sS'NUM'
p516
F0.011945
sS'DET'
p517
F0.88714
s(lp518
(g131
I15
tp519
atp520
a(S'van'
p521
(dp522
S'ADP'
p523
F1.0
s(lp524
(g139
I16
tp525
atp526
a(S'de'
p527
(dp528
S'DET'
p529
F1.0
s(lp530
(g358
I17
tp531
atp532
a(S'grote'
p533
(dp534
S'NOUN'
p535
F3e-06
sS'ADJ'
p536
F0.999997
s(lp537
(g146
I18
tp538
atp539
a(S'pandemie\xc3\xabn'
p540
(dp541
S'NOUN'
p542
F1.0
s(lp543
(g153
I19
tp544
atp545
a(S'die'
p546
(dp547
S'PRON'
p548
F1.0
s(lp549
(g160
I20
tp550
atp551
a(S'net'
p552
(dp553
S'ADV'
p554
F0.997385
sS'NOUN'
p555
F0.00028
sS'ADJ'
p556
F0.002334
s(lp557
tp558
a(S'als'
p559
(dp560
S'CONJ'
p561
F1.0
s(lp562
(g77
I9
tp563
atp564
a(S'malaria'
p565
(dp566
S'NOUN'
p567
F1.0
s(lp568
(g90
I10
tp569
atp570
a(S'en'
p571
(dp572
S'CONJ'
p573
F1.0
s(lp574
(g97
I11
tp575
atp576
a(S'aids'
p577
(dp578
S'NOUN'
p579
F1.0
s(lp580
(g110
I12
tp581
atp582
a(S'de'
p583
(dp584
S'DET'
p585
F1.0
s(lp586
(g176
I23
tp587
atp588
a(S'bevolking'
p589
(dp590
S'NOUN'
p591
F1.0
s(lp592
(g183
I24
tp593
atp594
a(S'in'
p595
(dp596
S'ADV'
p597
F0.004906
sS'VERB'
p598
F0.0
sS'ADP'
p599
F0.995094
s(lp600
(g191
I25
tp601
atp602
a(S'ontwikkelingslanden'
p603
(dp604
S'NOUN'
p605
F1.0
s(lp606
(g211
I26
tp607
atp608
a(S'decimeren'
p609
(dp610
S'VERB'
p611
F0.994583
sS'NOUN'
p612
F0.005417
s(lp613
(g167
I22
tp614
atp615
a(g49
(dp616
g5
F1.0
s(lp617
(g49
I28
tp618
atp619
a(S'vooral'
p620
(dp621
S'ADV'
p622
F1.0
s(lp623
(g222
I29
tp624
atp625
a(S'in'
p626
(dp627
S'ADV'
p628
F0.003408
sS'VERB'
p629
F0.0
sS'ADP'
p630
F0.996592
s(lp631
(g230
I30
tp632
atp633
a(S'afrika'
p634
(dp635
S'NOUN'
p636
F1.0
s(lp637
(g239
I31
tp638
atp639
a(S'en'
p640
(dp641
S'CONJ'
p642
F1.0
s(lp643
(g246
I32
tp644
atp645
a(S'azi\xc3\xab'
p646
(dp647
S'ADJ'
p648
F0.144547
sS'NOUN'
p649
F0.855453
s(lp650
(g261
I33
tp651
atp652
a(g5
(dp653
g5
F1.0
s(lp654
(g5
I34
tp655
atp656
asS'de'
p657
(lp658
(g3
(dp659
g5
F1.0
s(lp660
(g3
I0
tp661
atp662
a(g9
(dp663
g5
F1.0
s(lp664
(g9
I1
tp665
atp666
a(S'sk'
p667
(dp668
S'ADJ'
p669
F0.697471
s(lp670
(g20
I2
tp671
atp672
a(g23
(dp673
g5
F1.0
s(lp674
(g23
I3
tp675
atp676
a(S'frau'
p677
(dp678
S'NOUN'
p679
F0.028238
sS'ADJ'
p680
F0.947263
s(lp681
(g39
I4
tp682
atp683
a(S'pr\xc3\xa4sidentin'
p684
(dp685
S'NOUN'
p686
F0.994209
s(lp687
(g46
I5
tp688
atp689
a(g49
(dp690
g5
F1.0
s(lp691
(g49
I6
tp692
atp693
a(S'bei'
p694
(dp695
S'PRT'
p696
F1.6e-05
sS'ADP'
p697
F0.999984
s(lp698
(g382
I21
tp699
atp700
a(S'der'
p701
(dp702
S'PRON'
p703
F6.7e-05
sS'DET'
p704
F0.999928
s(lp705
tp706
a(S'tuberkulose'
p707
(dp708
S'ADJ'
p709
F1.0
s(lp710
(g65
I7
tp711
atp712
a(S'handelt'
p713
(dp714
S'VERB'
p715
F1.0
s(lp716
(g382
I21
tp717
atp718
a(S'es'
p719
(dp720
S'PRON'
p721
F1.0
s(lp722
(g382
I21
tp723
atp724
a(S'sich'
p725
(dp726
S'PRON'
p727
F1.0
s(lp728
tp729
a(S'wie'
p730
(dp731
S'CONJ'
p732
F0.999985
s(lp733
(g77
I9
tp734
atp735
a(S'bei'
p736
(dp737
S'PRT'
p738
F1e-06
sS'ADP'
p739
F0.999999
s(lp740
(g382
I21
tp741
atp742
a(S'malaria'
p743
(dp744
S'ADJ'
p745
F0.132488
sS'NOUN'
p746
F0.861317
s(lp747
(g90
I10
tp748
atp749
a(S'und'
p750
(dp751
S'CONJ'
p752
F1.0
s(lp753
(g97
I11
tp754
atp755
a(S'aids'
p756
(dp757
S'NOUN'
p758
F0.981617
s(lp759
(g110
I12
tp760
atp761
a(S'um'
p762
(dp763
S'PRT'
p764
F0.000803
sS'ADP'
p765
F0.998882
s(lp766
(g122
I14
tp767
atp768
a(S'eine'
p769
(dp770
S'PRON'
p771
F0.746368
sS'DET'
p772
F0.251972
s(lp773
(g131
I15
tp774
atp775
a(S'der'
p776
(dp777
S'PRON'
p778
F0.000279
sS'DET'
p779
F0.999678
s(lp780
(g358
I17
tp781
atp782
a(S'gr\xc3\xb6\xc3\x9ften'
p783
(dp784
S'ADJ'
p785
F1.0
s(lp786
(g146
I18
tp787
atp788
a(S'pandemien'
p789
(dp790
S'NOUN'
p791
F0.999747
s(lp792
(g153
I19
tp793
atp794
a(g49
(dp795
g5
F1.0
s(lp796
tp797
a(S'die'
p798
(dp799
S'PRON'
p800
F0.997413
s(lp801
(g160
I20
tp802
atp803
a(S'die'
p804
(dp805
S'PRON'
p806
F0.001707
sS'DET'
p807
F0.99781
s(lp808
(g176
I23
tp809
atp810
a(S'bev\xc3\xb6lkerungen'
p811
(dp812
S'ADJ'
p813
F0.012262
sS'NOUN'
p814
F0.975214
s(lp815
(g183
I24
tp816
atp817
a(S'der'
p818
(dp819
S'PRON'
p820
F0.000239
sS'DET'
p821
F0.999646
s(lp822
(g191
I25
tp823
atp824
a(S'entwicklungsl\xc3\xa4nder'
p825
(dp826
S'ADJ'
p827
F0.116024
sS'NOUN'
p828
F0.844454
s(lp829
(g211
I26
tp830
atp831
a(g49
(dp832
g5
F1.0
s(lp833
(g49
I28
tp834
atp835
a(S'insbesondere'
p836
(dp837
S'ADV'
p838
F1.0
s(lp839
(g222
I29
tp840
atp841
a(S'in'
p842
(dp843
S'ADP'
p844
F1.0
s(lp845
(g230
I30
tp846
atp847
a(S'afrika'
p848
(dp849
S'ADJ'
p850
F0.116684
sS'NOUN'
p851
F0.866946
s(lp852
(g239
I31
tp853
atp854
a(S'und'
p855
(dp856
S'CONJ'
p857
F1.0
s(lp858
(g246
I32
tp859
atp860
a(S'asien'
p861
(dp862
S'NOUN'
p863
F0.946443
s(lp864
(g261
I33
tp865
atp866
a(g49
(dp867
g5
F1.0
s(lp868
tp869
a(S'dezimieren'
p870
(dp871
S'VERB'
p872
F1.0
s(lp873
(g167
I22
tp874
atp875
a(g5
(dp876
g5
F1.0
s(lp877
(g5
I34
tp878
atp879
asS'it'
p880
(lp881
(g3
(dp882
S'X'
p883
F1.8e-05
sg5
F0.999982
s(lp884
(g3
I0
tp885
atp886
a(g9
(dp887
g5
F1.0
s(lp888
(g9
I1
tp889
atp890
a(S'sk'
p891
(dp892
S'NOUN'
p893
F1.0
s(lp894
(g20
I2
tp895
atp896
a(g23
(dp897
g5
F1.0
s(lp898
(g23
I3
tp899
atp900
a(S'signora'
p901
(dp902
S'NOUN'
p903
F1.0
s(lp904
(g39
I4
tp905
atp906
a(S'presidente'
p907
(dp908
S'NOUN'
p909
F1.0
s(lp910
(g46
I5
tp911
atp912
a(g49
(dp913
g5
F1.0
s(lp914
(g49
I6
tp915
atp916
a(S'la'
p917
(dp918
S'PRON'
p919
F0.00247
sS'DET'
p920
F0.99753
s(lp921
tp922
a(S'tubercolosi'
p923
(dp924
S'NOUN'
p925
F0.480568
sS'ADJ'
p926
F0.519432
s(lp927
(g65
I7
tp928
atp929
a(g49
(dp930
g5
F1.0
s(lp931
(g49
I8
tp932
atp933
a(S'unitamente'
p934
(dp935
S'ADV'
p936
F1.0
s(lp937
(g167
I22
tp938
atp939
a(S'alla'
p940
(dp941
S'ADP'
p942
F1.0
s(lp943
tp944
a(S'malaria'
p945
(dp946
S'NOUN'
p947
F1.0
s(lp948
(g90
I10
tp949
atp950
a(S'e'
p951
(dp952
S'CONJ'
p953
F1.0
s(lp954
(g97
I11
tp955
atp956
a(S"all'"
p957
(dp958
S'ADJ'
p959
F0.006467
sS'VERB'
p960
F0.11863800000000001
sS'NOUN'
p961
F0.874895
s(lp962
tp963
a(S'aids'
p964
(dp965
S'NOUN'
p966
F1.0
s(lp967
(g110
I12
tp968
atp969
a(g49
(dp970
g5
F1.0
s(lp971
(g49
I13
tp972
atp973
a(S'\xc3\xa8'
p974
(dp975
S'VERB'
p976
F1.0
s(lp977
(g122
I14
tp978
atp979
a(S'una'
p980
(dp981
S'PRON'
p982
F0.000588
sS'DEF'
p983
F0.999412
s(lp984
(g131
I15
tp985
atp986
a(S'della'
p987
(dp988
S'DEF'
p989
F0.000161
sS'ADP'
p990
F0.999839
s(lp991
(g139
I16
tp992
atp993
a(S'malattie'
p994
(dp995
S'NOUN'
p996
F1.0
s(lp997
(g167
I22
tp998
atp999
a(S'ad'
p1000
(dp1001
S'ADP'
p1002
F1.0
s(lp1003
(g167
I22
tp1004
atp1005
a(S'ampia'
p1006
(dp1007
S'ADJ'
p1008
F1.0
s(lp1009
(g167
I22
tp1010
atp1011
a(S'diffusione'
p1012
(dp1013
S'NOUN'
p1014
F1.0
s(lp1015
tp1016
a(S'che'
p1017
(dp1018
S'PRON'
p1019
F0.960049
sS'CONJ'
p1020
F0.0391
sS'ADJ'
p1021
F0.000851
s(lp1022
(g160
I20
tp1023
atp1024
a(S'decimano'
p1025
(dp1026
S'VERB'
p1027
F1.0
s(lp1028
(g167
I22
tp1029
atp1030
a(S'le'
p1031
(dp1032
S'PRON'
p1033
F0.0
sS'DET'
p1034
F1.0
s(lp1035
(g176
I23
tp1036
atp1037
a(S'popolazioni'
p1038
(dp1039
S'NOUN'
p1040
F1.0
s(lp1041
(g183
I24
tp1042
atp1043
a(S'dei'
p1044
(dp1045
S'NOUN'
p1046
F1e-06
sS'DEF'
p1047
F0.001164
sS'ADP'
p1048
F0.998835
s(lp1049
(g191
I25
tp1050
atp1051
a(S'paesi'
p1052
(dp1053
S'NOUN'
p1054
F1.0
s(lp1055
(g198
I27
tp1056
atp1057
a(S'in'
p1058
(dp1059
S'ADP'
p1060
F1.0
s(lp1061
(g211
I26
tp1062
atp1063
a(S'via'
p1064
(dp1065
S'ADV'
p1066
F0.101479
sg883
F5e-06
sS'NOUN'
p1067
F0.898517
s(lp1068
tp1069
a(S'di'
p1070
(dp1071
S'CONJ'
p1072
F4e-06
sS'ADP'
p1073
F0.999996
s(lp1074
tp1075
a(S'sviluppo'
p1076
(dp1077
S'VERB'
p1078
F1.6e-05
sS'NOUN'
p1079
F0.999984
s(lp1080
(g211
I26
tp1081
atp1082
a(g49
(dp1083
g5
F1.0
s(lp1084
(g49
I28
tp1085
atp1086
a(S'in'
p1087
(dp1088
S'ADP'
p1089
F1.0
s(lp1090
tp1091
a(S'particolare'
p1092
(dp1093
S'NOUN'
p1094
F0.284643
sS'ADJ'
p1095
F0.715357
s(lp1096
(g222
I29
tp1097
atp1098
a(S'di'
p1099
(dp1100
S'CONJ'
p1101
F1.7e-05
sS'ADP'
p1102
F0.999983
s(lp1103
(g230
I30
tp1104
atp1105
a(S'africa'
p1106
(dp1107
S'ADJ'
p1108
F1.0
s(lp1109
(g239
I31
tp1110
atp1111
a(g951
(dp1112
S'CONJ'
p1113
F1.0
s(lp1114
(g246
I32
tp1115
atp1116
a(S'asia'
p1117
(dp1118
S'ADJ'
p1119
F0.013507
sS'NOUN'
p1120
F0.986493
s(lp1121
(g261
I33
tp1122
atp1123
a(g5
(dp1124
g5
F1.0
s(lp1125
(g5
I34
tp1126
atp1127
asS'sk'
p1128
(lp1129
(g9
(dp1130
g5
F1.0
s(lp1131
(g9
I1
tp1132
atp1133
a(S'sk'
p1134
(dp1135
g883
F1.0
s(lp1136
(g20
I2
tp1137
atp1138
a(g23
(dp1139
g5
F1.0
s(lp1140
(g23
I3
tp1141
atp1142
a(S'tuberkul\xc3\xb3za'
p1143
(dp1144
S'NOUN'
p1145
F1.0
s(lp1146
(g65
I7
tp1147
atp1148
a(S'je'
p1149
(dp1150
g883
F5.5e-05
sS'VERB'
p1151
F0.999923
sS'PRON'
p1152
F2.3e-05
s(lp1153
(g122
I14
tp1154
atp1155
a(S'jedna'
p1156
(dp1157
S'NUM'
p1158
F1.0
s(lp1159
tp1160
a(S'z'
p1161
(dp1162
g883
F6.9e-05
sS'NOUN'
p1163
F0.000139
sS'ADP'
p1164
F0.999792
s(lp1165
(g131
I15
tp1166
atp1167
a(S've\xc4\xbek\xc3\xbdch'
p1168
(dp1169
S'ADJ'
p1170
F1.0
s(lp1171
(g146
I18
tp1172
atp1173
a(S'pand\xc3\xa9mi\xc3\xad'
p1174
(dp1175
S'ADJ'
p1176
F0.0
sS'NOUN'
p1177
F0.999999
s(lp1178
(g153
I19
tp1179
atp1180
a(S'tak'
p1181
(dp1182
S'PRON'
p1183
F0.22628
sS'CONJ'
p1184
F0.739196
sg883
F0.034523
s(lp1185
tp1186
a(S'ako'
p1187
(dp1188
S'PRON'
p1189
F0.04238
sS'CONJ'
p1190
F0.957027
sg883
F0.000593
s(lp1191
(g77
I9
tp1192
atp1193
a(S'mal\xc3\xa1ria'
p1194
(dp1195
S'NOUN'
p1196
F1.0
s(lp1197
(g90
I10
tp1198
atp1199
a(S'a'
p1200
(dp1201
g883
F0.0025380000000000003
sS'CONJ'
p1202
F0.996478
sS'NOUN'
p1203
F0.00018700000000000002
sS'ADP'
p1204
F0.00077
sS'PRT'
p1205
F2.7e-05
s(lp1206
(g97
I11
tp1207
atp1208
a(S'aids'
p1209
(dp1210
S'NOUN'
p1211
F1.0
s(lp1212
(g110
I12
tp1213
atp1214
a(g49
(dp1215
g5
F1.0
s(lp1216
(g49
I13
tp1217
atp1218
a(S'ktor\xc3\xa9'
p1219
(dp1220
S'PRON'
p1221
F1.0
s(lp1222
(g160
I20
tp1223
atp1224
a(S'decimuj\xc3\xba'
p1225
(dp1226
S'VERB'
p1227
F1.0
s(lp1228
(g167
I22
tp1229
atp1230
a(S'popul\xc3\xa1ciu'
p1231
(dp1232
S'NOUN'
p1233
F1.0
s(lp1234
(g183
I24
tp1235
atp1236
a(S'rozvojov\xc3\xbdch'
p1237
(dp1238
S'ADJ'
p1239
F1.0
s(lp1240
(g211
I26
tp1241
atp1242
a(S'kraj\xc3\xadn'
p1243
(dp1244
S'NOUN'
p1245
F1.0
s(lp1246
(g198
I27
tp1247
atp1248
a(g49
(dp1249
g5
F1.0
s(lp1250
(g49
I28
tp1251
atp1252
a(S'hlavne'
p1253
(dp1254
S'ADV'
p1255
F0.040208
sg883
F0.954574
sS'NOUN'
p1256
F0.005217
s(lp1257
(g222
I29
tp1258
atp1259
a(S'afriku'
p1260
(dp1261
S'NOUN'
p1262
F1.0
s(lp1263
(g239
I31
tp1264
atp1265
a(g1200
(dp1266
g883
F0.0025380000000000003
sS'CONJ'
p1267
F0.996478
sS'NOUN'
p1268
F0.00018700000000000002
sS'ADP'
p1269
F0.00077
sS'PRT'
p1270
F2.7e-05
s(lp1271
(g246
I32
tp1272
atp1273
a(S'\xc3\x81ziu'
p1274
(dp1275
S'NOUN'
p1276
F1.0
s(lp1277
(g261
I33
tp1278
atp1279
a(g5
(dp1280
g5
F1.0
s(lp1281
(g5
I34
tp1282
atp1283
asS'pl'
p1284
(lp1285
(g3
(dp1286
g883
F0.001074
sS'NUM'
p1287
F0.0
sS'NOUN'
p1288
F0.001806
sg5
F0.99712
s(lp1289
(g3
I0
tp1290
atp1291
a(g9
(dp1292
S'NOUN'
p1293
F0.000559
sg5
F0.999441
s(lp1294
(g9
I1
tp1295
atp1296
a(S'sk'
p1297
(dp1298
S'ADV'
p1299
F0.002404
sS'ADJ'
p1300
F0.001508
sS'VERB'
p1301
F0.0089
sS'NOUN'
p1302
F0.987186
s(lp1303
(g20
I2
tp1304
atp1305
a(g23
(dp1306
g5
F1.0
s(lp1307
(g23
I3
tp1308
atp1309
a(S'pani'
p1310
(dp1311
S'NOUN'
p1312
F1.000001
s(lp1313
tp1314
a(S'przewodnicz\xc4\x85ca'
p1315
(dp1316
S'NOUN'
p1317
F1.0
s(lp1318
(g39
I4
tp1319
atp1320
a(S'!'
p1321
(dp1322
g5
F1.0
s(lp1323
(g46
I5
tp1324
atp1325
a(S'gru\xc5\xbalica'
p1326
(dp1327
S'NOUN'
p1328
F1.0
s(lp1329
(g65
I7
tp1330
atp1331
a(g49
(dp1332
g883
F0.0
sg5
F1.0
s(lp1333
(g49
I8
tp1334
atp1335
a(S'malaria'
p1336
(dp1337
S'NOUN'
p1338
F1.0
s(lp1339
(g90
I10
tp1340
atp1341
a(S'i'
p1342
(dp1343
S'PRT'
p1344
F0.00548
sS'CONJ'
p1345
F0.993844
sS'PRON'
p1346
F2e-06
sS'NOUN'
p1347
F0.000635
sg883
F3.9e-05
s(lp1348
(g97
I11
tp1349
atp1350
a(S'aids'
p1351
(dp1352
g883
F0.023425
sS'NOUN'
p1353
F0.976575
s(lp1354
(g110
I12
tp1355
atp1356
a(S'to'
p1357
(dp1358
S'NOUN'
p1359
F0.153509
sS'ADP'
p1360
F1e-06
sS'PRT'
p1361
F0.083902
sg883
F0.004062
sS'CONJ'
p1362
F0.340841
sS'ADJ'
p1363
F0.41768500000000003
s(lp1364
(g122
I14
tp1365
atp1366
a(S'jedne'
p1367
(dp1368
S'ADJ'
p1369
F1.000001
s(lp1370
(g131
I15
tp1371
atp1372
a(g1161
(dp1373
S'PRT'
p1374
F6e-06
sS'VERB'
p1375
F1e-06
sS'NOUN'
p1376
F0.0
sS'ADP'
p1377
F0.999991
sg883
F1e-06
s(lp1378
(g139
I16
tp1379
atp1380
a(S'najwi\xc4\x99kszych'
p1381
(dp1382
S'ADJ'
p1383
F0.999999
s(lp1384
(g146
I18
tp1385
atp1386
a(S'pandemii'
p1387
(dp1388
S'VERB'
p1389
F2.3e-05
sS'NOUN'
p1390
F0.999977
s(lp1391
(g153
I19
tp1392
atp1393
a(S'dziesi\xc4\x85tkuj\xc4\x85cych'
p1394
(dp1395
S'ADV'
p1396
F9.1e-05
sS'NOUN'
p1397
F0.0023559999999999996
sS'VERB'
p1398
F0.954308
sS'ADJ'
p1399
F0.04324500000000001
s(lp1400
(g167
I22
tp1401
atp1402
a(S'ludno\xc5\x9b\xc4\x87'
p1403
(dp1404
S'NOUN'
p1405
F1.0
s(lp1406
(g183
I24
tp1407
atp1408
a(S'kraj\xc3\xb3w'
p1409
(dp1410
S'NOUN'
p1411
F1.0
s(lp1412
(g198
I27
tp1413
atp1414
a(S'rozwijaj\xc4\x85cych'
p1415
(dp1416
S'VERB'
p1417
F1.0
s(lp1418
tp1419
a(S'si\xc4\x99'
p1420
(dp1421
S'PRT'
p1422
F1.0
s(lp1423
(g211
I26
tp1424
atp1425
a(S'g\xc5\x82\xc3\xb3wnie'
p1426
(dp1427
S'ADV'
p1428
F0.033891
sS'PRT'
p1429
F0.966109
s(lp1430
(g222
I29
tp1431
atp1432
a(S'w'
p1433
(dp1434
S'ADJ'
p1435
F0.0
sS'NOUN'
p1436
F0.0
sS'ADP'
p1437
F0.9999990000000001
sg883
F0.0
s(lp1438
(g230
I30
tp1439
atp1440
a(S'afryce'
p1441
(dp1442
S'ADJ'
p1443
F0.0
sS'NOUN'
p1444
F0.9999990000000002
s(lp1445
(g239
I31
tp1446
atp1447
a(g1342
(dp1448
S'PRT'
p1449
F0.001665
sS'CONJ'
p1450
F0.998218
sS'PRON'
p1451
F9.999999999999999e-06
sS'NOUN'
p1452
F0.0001
sg883
F7e-06
s(lp1453
(g246
I32
tp1454
atp1455
a(S'azji'
p1456
(dp1457
S'ADJ'
p1458
F0.17757699999999998
sS'NOUN'
p1459
F0.822424
s(lp1460
(g261
I33
tp1461
atp1462
a(g5
(dp1463
g5
F1.0
s(lp1464
(g5
I34
tp1465
atp1466
asS'sl'
p1467
(lp1468
(g3
(dp1469
g5
F1.0
s(lp1470
(g3
I0
tp1471
atp1472
a(g9
(dp1473
g5
F1.0
s(lp1474
(g9
I1
tp1475
atp1476
a(S'sk'
p1477
(dp1478
g883
F1.0
s(lp1479
(g20
I2
tp1480
atp1481
a(g23
(dp1482
g5
F1.0
s(lp1483
(g23
I3
tp1484
atp1485
a(S'gospa'
p1486
(dp1487
S'NOUN'
p1488
F1.0
s(lp1489
(g39
I4
tp1490
atp1491
a(S'predsednica'
p1492
(dp1493
S'NOUN'
p1494
F1.0
s(lp1495
(g46
I5
tp1496
atp1497
a(g49
(dp1498
g5
F1.0
s(lp1499
(g49
I8
tp1500
atp1501
a(S'tako'
p1502
(dp1503
S'ADV'
p1504
F0.635276
sS'PRON'
p1505
F0.006403
sS'CONJ'
p1506
F0.358321
s(lp1507
tp1508
a(S'kot'
p1509
(dp1510
S'CONJ'
p1511
F0.999433
sS'NOUN'
p1512
F0.0005679999999999999
s(lp1513
(g77
I9
tp1514
atp1515
a(S'malarija'
p1516
(dp1517
S'NOUN'
p1518
F1.0
s(lp1519
(g90
I10
tp1520
atp1521
a(S'in'
p1522
(dp1523
S'ADV'
p1524
F4.2e-05
sg883
F0.000242
sS'CONJ'
p1525
F0.999637
sS'NOUN'
p1526
F7.8e-05
s(lp1527
(g97
I11
tp1528
atp1529
a(S'aids'
p1530
(dp1531
S'NOUN'
p1532
F1.0
s(lp1533
(g110
I12
tp1534
atp1535
a(S'je'
p1536
(dp1537
S'PRON'
p1538
F0.001129
sS'VERB'
p1539
F0.998858
sg883
F1.3e-05
s(lp1540
(g122
I14
tp1541
atp1542
a(S'tudi'
p1543
(dp1544
S'PRT'
p1545
F1.0
s(lp1546
(g49
I6
tp1547
atp1548
a(S'tuberkuloza'
p1549
(dp1550
S'NOUN'
p1551
F1.0
s(lp1552
(g65
I7
tp1553
atp1554
a(S'ena'
p1555
(dp1556
S'NUM'
p1557
F1.0
s(lp1558
tp1559
a(S'od'
p1560
(dp1561
S'ADP'
p1562
F1.0
s(lp1563
(g131
I15
tp1564
atp1565
a(S'velikih'
p1566
(dp1567
S'ADJ'
p1568
F0.9999990000000001
s(lp1569
(g146
I18
tp1570
atp1571
a(S'pandemij'
p1572
(dp1573
S'NOUN'
p1574
F1.0
s(lp1575
(g153
I19
tp1576
atp1577
a(g49
(dp1578
g5
F1.0
s(lp1579
tp1580
a(S'ki'
p1581
(dp1582
S'CONJ'
p1583
F1.0
s(lp1584
(g160
I20
tp1585
atp1586
a(S'desetkajo'
p1587
(dp1588
S'ADV'
p1589
F0.000854
sS'ADJ'
p1590
F0.001133
sS'VERB'
p1591
F0.7940339999999999
sS'NOUN'
p1592
F0.20398
s(lp1593
(g167
I22
tp1594
atp1595
a(S'prebivalstva'
p1596
(dp1597
S'NOUN'
p1598
F1.0
s(lp1599
(g183
I24
tp1600
atp1601
a(S'dr\xc5\xbeav'
p1602
(dp1603
S'NOUN'
p1604
F1.0
s(lp1605
(g198
I27
tp1606
atp1607
a(S'v'
p1608
(dp1609
S'ADP'
p1610
F1.0
s(lp1611
tp1612
a(S'razvoju'
p1613
(dp1614
S'NOUN'
p1615
F1.0
s(lp1616
(g211
I26
tp1617
atp1618
a(g49
(dp1619
g5
F1.0
s(lp1620
(g49
I28
tp1621
atp1622
a(S'zlasti'
p1623
(dp1624
S'ADV'
p1625
F0.014168
sS'PRT'
p1626
F0.985832
s(lp1627
(g222
I29
tp1628
atp1629
a(g1608
(dp1630
S'ADP'
p1631
F1.0
s(lp1632
(g230
I30
tp1633
atp1634
a(S'afriki'
p1635
(dp1636
S'NOUN'
p1637
F1.0
s(lp1638
(g239
I31
tp1639
atp1640
a(S'in'
p1641
(dp1642
S'ADV'
p1643
F8.1e-05
sg883
F0.00021
sS'CONJ'
p1644
F0.999692
sS'NOUN'
p1645
F1.8e-05
s(lp1646
(g246
I32
tp1647
atp1648
a(S'aziji'
p1649
(dp1650
S'ADJ'
p1651
F0.08313499999999999
sS'NOUN'
p1652
F0.9168649999999998
s(lp1653
(g261
I33
tp1654
atp1655
a(g5
(dp1656
g5
F1.0
s(lp1657
(g5
I34
tp1658
atp1659
asS'es'
p1660
(lp1661
(g3
(dp1662
g5
F1.0
s(lp1663
(g3
I0
tp1664
atp1665
a(g9
(dp1666
g5
F1.0
s(lp1667
(g9
I1
tp1668
atp1669
a(S'sk'
p1670
(dp1671
S'NOUN'
p1672
F1.0
s(lp1673
(g20
I2
tp1674
atp1675
a(g23
(dp1676
g5
F1.0
s(lp1677
(g23
I3
tp1678
atp1679
a(S'se\xc3\xb1ora'
p1680
(dp1681
S'NOUN'
p1682
F1.0
s(lp1683
(g39
I4
tp1684
atp1685
a(S'presidenta'
p1686
(dp1687
S'NOUN'
p1688
F1.0
s(lp1689
(g46
I5
tp1690
atp1691
a(g49
(dp1692
g5
F1.0
s(lp1693
(g49
I6
tp1694
atp1695
a(S'la'
p1696
(dp1697
S'PRON'
p1698
F3.5e-05
sS'DET'
p1699
F0.999959
sS'NOUN'
p1700
F0.0
sg883
F5e-06
s(lp1701
tp1702
a(S'tuberculosis'
p1703
(dp1704
S'NOUN'
p1705
F1.0
s(lp1706
(g65
I7
tp1707
atp1708
a(g49
(dp1709
g5
F1.0
s(lp1710
(g49
I8
tp1711
atp1712
a(S'al'
p1713
(dp1714
S'CONJ'
p1715
F0.0037
sS'ADP'
p1716
F0.996299
s(lp1717
tp1718
a(S'igual'
p1719
(dp1720
S'ADJ'
p1721
F1.0
s(lp1722
(g77
I9
tp1723
atp1724
a(S'que'
p1725
(dp1726
g883
F0.0
sS'CONJ'
p1727
F1.0
s(lp1728
tp1729
a(S'la'
p1730
(dp1731
S'PRON'
p1732
F0.00027
sS'DET'
p1733
F0.99973
sg883
F0.0
sS'NOUN'
p1734
F0.0
s(lp1735
tp1736
a(S'malaria'
p1737
(dp1738
S'NOUN'
p1739
F1.0
s(lp1740
(g90
I10
tp1741
atp1742
a(S'y'
p1743
(dp1744
g883
F0.000396
sS'CONJ'
p1745
F0.999604
s(lp1746
(g97
I11
tp1747
atp1748
a(S'el'
p1749
(dp1750
S'PRON'
p1751
F2.8e-05
sS'DET'
p1752
F0.999972
s(lp1753
tp1754
a(S'sida'
p1755
(dp1756
S'VERB'
p1757
F3e-06
sS'NOUN'
p1758
F0.999997
s(lp1759
(g110
I12
tp1760
atp1761
a(g49
(dp1762
g5
F1.0
s(lp1763
(g49
I13
tp1764
atp1765
a(S'es'
p1766
(dp1767
S'VERB'
p1768
F1.0
s(lp1769
(g122
I14
tp1770
atp1771
a(S'una'
p1772
(dp1773
S'DET'
p1774
F1.0
s(lp1775
(g131
I15
tp1776
atp1777
a(S'de'
p1778
(dp1779
g883
F1e-06
sS'CONJ'
p1780
F2.6e-05
sS'ADP'
p1781
F0.999972
s(lp1782
(g139
I16
tp1783
atp1784
a(S'las'
p1785
(dp1786
S'PRON'
p1787
F0.0
sS'DET'
p1788
F1.0
s(lp1789
(g358
I17
tp1790
atp1791
a(S'grandes'
p1792
(dp1793
S'ADJ'
p1794
F1.0
s(lp1795
(g146
I18
tp1796
atp1797
a(S'pandemias'
p1798
(dp1799
S'NOUN'
p1800
F1.0
s(lp1801
(g153
I19
tp1802
atp1803
a(S'que'
p1804
(dp1805
g883
F0.0
sS'CONJ'
p1806
F1.0
s(lp1807
(g160
I20
tp1808
atp1809
a(S'est\xc3\xa1n'
p1810
(dp1811
S'VERB'
p1812
F1.0
s(lp1813
(g382
I21
tp1814
atp1815
a(S'diezmando'
p1816
(dp1817
S'VERB'
p1818
F1.0
s(lp1819
(g167
I22
tp1820
atp1821
a(S'las'
p1822
(dp1823
S'PRON'
p1824
F0.0
sS'DET'
p1825
F1.0
s(lp1826
(g176
I23
tp1827
atp1828
a(S'poblaciones'
p1829
(dp1830
S'NOUN'
p1831
F1.0
s(lp1832
(g183
I24
tp1833
atp1834
a(S'de'
p1835
(dp1836
g883
F0.0
sS'CONJ'
p1837
F1.7e-05
sS'ADP'
p1838
F0.999983
s(lp1839
(g191
I25
tp1840
atp1841
a(S'los'
p1842
(dp1843
S'PRON'
p1844
F0.0
sS'DET'
p1845
F1.0
s(lp1846
(g211
I26
tp1847
atp1848
a(S'pa\xc3\xadses'
p1849
(dp1850
S'NOUN'
p1851
F1.0
s(lp1852
(g198
I27
tp1853
atp1854
a(S'en'
p1855
(dp1856
g883
F1.8e-05
sS'CONJ'
p1857
F1e-05
sS'ADP'
p1858
F0.999972
s(lp1859
tp1860
a(S'desarrollo'
p1861
(dp1862
S'NOUN'
p1863
F1.0
s(lp1864
(g211
I26
tp1865
atp1866
a(g49
(dp1867
g5
F1.0
s(lp1868
(g49
I28
tp1869
atp1870
a(S'particularmente'
p1871
(dp1872
S'ADV'
p1873
F1.0
s(lp1874
(g222
I29
tp1875
atp1876
a(S'en'
p1877
(dp1878
g883
F1e-06
sS'CONJ'
p1879
F0.000275
sS'ADP'
p1880
F0.999725
s(lp1881
(g230
I30
tp1882
atp1883
a(S'\xc3\x81frica'
p1884
(dp1885
S'NOUN'
p1886
F1.0
s(lp1887
(g239
I31
tp1888
atp1889
a(g1743
(dp1890
g883
F0.000207
sS'CONJ'
p1891
F0.999793
s(lp1892
(g246
I32
tp1893
atp1894
a(S'asia'
p1895
(dp1896
S'VERB'
p1897
F0.00546
sS'NOUN'
p1898
F0.99454
s(lp1899
(g261
I33
tp1900
atp1901
a(g5
(dp1902
g5
F1.0
s(lp1903
(g5
I34
tp1904
atp1905
as.