(dp0
S'fr'
p1
(lp2
(S'dans'
p3
(dp4
S'NOUN'
p5
F1.8e-05
sS'ADP'
p6
F0.999982
s(lp7
(S'in'
p8
I0
tp9
atp10
a(S'mon'
p11
(dp12
S'PRON'
p13
F1.0
s(lp14
(S'my'
p15
I1
tp16
atp17
a(S'pays'
p18
(dp19
S'NOUN'
p20
F1.0
s(lp21
(S'country'
p22
I2
tp23
atp24
a(S','
p25
(dp26
S'.'
p27
F1.0
s(lp28
(g25
I3
tp29
atp30
a(S'au'
p31
(dp32
S'ADP'
p33
F1.0
s(lp34
(S'in'
p35
I4
tp36
atp37
a(S'royaume-uni'
p38
(dp39
S'ADJ'
p40
F0.131597
sS'VERB'
p41
F5.9e-05
sS'NOUN'
p42
F0.868344
s(lp43
(S'britain'
p44
I5
tp45
atp46
a(g25
(dp47
g27
F1.0
s(lp48
(g25
I6
tp49
atp50
a(S'la'
p51
(dp52
S'PRON'
p53
F0.000199
sS'DET'
p54
F0.999788
sS'NOUN'
p55
F1.3e-05
s(lp56
(S'the'
p57
I7
tp58
atp59
a(S'vaste'
p60
(dp61
S'ADJ'
p62
F1.0
s(lp63
(S'vast'
p64
I8
tp65
atp66
a(S'majorit\xc3\xa9'
p67
(dp68
S'NOUN'
p69
F1.0
s(lp70
(S'majority'
p71
I9
tp72
atp73
a(S'des'
p74
(dp75
S'DET'
p76
F2.1e-05
sS'ADP'
p77
F0.999979
s(lp78
(S'of'
p79
I10
tp80
atp81
a(S'entreprises'
p82
(dp83
S'VERB'
p84
F0.001415
sS'NOUN'
p85
F0.998585
s(lp86
(S'businesses'
p87
I11
tp88
atp89
a(S'sont'
p90
(dp91
S'VERB'
p92
F1.0
s(lp93
(S'are'
p94
I12
tp95
atp96
a(S'petites'
p97
(dp98
S'NOUN'
p99
F0.011765
sS'ADJ'
p100
F0.988235
s(lp101
(S'small'
p102
I13
tp103
atp104
a(S'et'
p105
(dp106
S'CONJ'
p107
F1.0
s(lp108
(S'and'
p109
I15
tp110
atp111
a(S'elles'
p112
(dp113
S'PRON'
p114
F1.0
s(lp115
(S'they'
p116
I16
tp117
atp118
a(S'pourvoient'
p119
(dp120
S'ADJ'
p121
F0.010058
sS'VERB'
p122
F0.925099
sS'NOUN'
p123
F0.064843
s(lp124
(S'provide'
p125
I17
tp126
atp127
a(S'\xc3\xa0'
p128
(dp129
S'ADP'
p130
F1.0
s(lp131
(S'for'
p132
I18
tp133
atp134
a(S'quelque'
p135
(dp136
S'PRON'
p137
F1.0
s(lp138
(S'some'
p139
I19
tp140
atp141
a(S'70'
p142
(dp143
S'X'
p144
F0.002029
sS'NUM'
p145
F0.997971
s(lp146
(S'70'
p147
I20
tp148
atp149
a(S'%'
p150
(dp151
g144
F1.0
s(lp152
(g150
I21
tp153
atp154
a(S'des'
p155
(dp156
S'DET'
p157
F0.000244
sS'ADP'
p158
F0.999756
s(lp159
(S'of'
p160
I22
tp161
atp162
a(S'emplois'
p163
(dp164
S'NOUN'
p165
F1.0
s(lp166
(S'employment'
p167
I23
tp168
atp169
a(g27
(dp170
g27
F1.0
s(lp171
(g27
I24
tp172
atp173
asS'en'
p174
(lp175
(g8
(dp176
S'ADV'
p177
F0.000816
sS'PRT'
p178
F0.0
sS'ADP'
p179
F0.999184
s(lp180
(g8
I0
tp181
atp182
a(g15
(dp183
S'PRON'
p184
F1.0
s(lp185
(g15
I1
tp186
atp187
a(g22
(dp188
S'NOUN'
p189
F1.0
s(lp190
(g22
I2
tp191
atp192
a(g25
(dp193
g27
F1.0
s(lp194
(g25
I3
tp195
atp196
a(g35
(dp197
S'ADV'
p198
F0.001238
sS'PRT'
p199
F0.0
sS'ADP'
p200
F0.998762
s(lp201
(g35
I4
tp202
atp203
a(g44
(dp204
S'ADV'
p205
F0.002592
sS'ADJ'
p206
F0.023904
sS'VERB'
p207
F0.000818
sS'NOUN'
p208
F0.972685
s(lp209
(g44
I5
tp210
atp211
a(g25
(dp212
g27
F1.0
s(lp213
(g25
I6
tp214
atp215
a(g57
(dp216
S'NOUN'
p217
F2e-06
sS'DET'
p218
F0.999998
s(lp219
(g57
I7
tp220
atp221
a(g64
(dp222
S'NOUN'
p223
F0.003161
sS'ADJ'
p224
F0.996839
s(lp225
(g64
I8
tp226
atp227
a(g71
(dp228
S'ADJ'
p229
F0.001807
sS'NOUN'
p230
F0.998193
s(lp231
(g71
I9
tp232
atp233
a(g79
(dp234
S'ADP'
p235
F1.0
s(lp236
(g79
I10
tp237
atp238
a(g87
(dp239
S'NOUN'
p240
F1.0
s(lp241
(g87
I11
tp242
atp243
a(g94
(dp244
S'VERB'
p245
F1.0
sS'NOUN'
p246
F0.0
s(lp247
(g94
I12
tp248
atp249
a(g102
(dp250
S'ADV'
p251
F0.003888
sS'NOUN'
p252
F8.6e-05
sS'ADJ'
p253
F0.996027
s(lp254
(g102
I13
tp255
atp256
a(g25
(dp257
g27
F1.0
s(lp258
(g25
I14
tp259
atp260
a(g109
(dp261
S'CONJ'
p262
F0.999998
sS'NOUN'
p263
F2e-06
s(lp264
(g109
I15
tp265
atp266
a(g116
(dp267
S'PRON'
p268
F1.0
s(lp269
(g116
I16
tp270
atp271
a(g125
(dp272
S'VERB'
p273
F1.0
s(lp274
(g125
I17
tp275
atp276
a(g132
(dp277
S'ADP'
p278
F1.0
s(lp279
(g132
I18
tp280
atp281
a(g139
(dp282
S'ADV'
p283
F0.006278
sS'DET'
p284
F0.993722
s(lp285
(g139
I19
tp286
atp287
a(g147
(dp288
S'ADV'
p289
F3e-06
sS'NOUN'
p290
F0.000187
sS'NUM'
p291
F0.99459
sS'ADJ'
p292
F0.005219
sg144
F0.0
s(lp293
(g147
I20
tp294
atp295
a(g150
(dp296
S'NOUN'
p297
F1.0
s(lp298
(g150
I21
tp299
atp300
a(g160
(dp301
S'ADP'
p302
F1.0
s(lp303
(g160
I22
tp304
atp305
a(g167
(dp306
S'NOUN'
p307
F1.0
s(lp308
(g167
I23
tp309
atp310
a(g27
(dp311
g27
F1.0
s(lp312
(g27
I24
tp313
atp314
asS'nl'
p315
(lp316
(S'in'
p317
(dp318
S'ADV'
p319
F0.008057
sS'VERB'
p320
F0.0
sS'ADP'
p321
F0.991942
s(lp322
(g8
I0
tp323
atp324
a(S'mijn'
p325
(dp326
S'PRON'
p327
F0.999996
sS'NOUN'
p328
F4e-06
s(lp329
(g15
I1
tp330
atp331
a(S'land'
p332
(dp333
S'VERB'
p334
F0.0
sS'NOUN'
p335
F1.0
s(lp336
(g22
I2
tp337
atp338
a(g25
(dp339
g27
F1.0
s(lp340
(g25
I3
tp341
atp342
a(S'in'
p343
(dp344
S'ADV'
p345
F0.000449
sS'VERB'
p346
F0.0
sS'ADP'
p347
F0.99955
s(lp348
(g35
I4
tp349
atp350
a(S'groot-brittanni\xc3\xab'
p351
(dp352
S'ADJ'
p353
F0.001296
sS'NOUN'
p354
F0.998704
s(lp355
(g44
I5
tp356
atp357
a(g25
(dp358
g27
F1.0
s(lp359
(g25
I6
tp360
atp361
a(S'is'
p362
(dp363
S'VERB'
p364
F1.0
s(lp365
tp366
a(S'de'
p367
(dp368
S'DET'
p369
F1.0
s(lp370
(g57
I7
tp371
atp372
a(S'grote'
p373
(dp374
S'NOUN'
p375
F0.000102
sS'ADJ'
p376
F0.999898
s(lp377
(g64
I8
tp378
atp379
a(S'meerderheid'
p380
(dp381
S'NOUN'
p382
F1.0
s(lp383
(g71
I9
tp384
atp385
a(S'van'
p386
(dp387
S'ADP'
p388
F1.0
s(lp389
(g79
I10
tp390
atp391
a(S'bedrijven'
p392
(dp393
S'VERB'
p394
F0.000735
sS'NOUN'
p395
F0.9992650000000001
s(lp396
(g87
I11
tp397
atp398
a(S'klein'
p399
(dp400
S'ADJ'
p401
F1.0
s(lp402
(g102
I13
tp403
atp404
a(S'en'
p405
(dp406
S'CONJ'
p407
F1.0
s(lp408
(g109
I15
tp409
atp410
a(S'leveren'
p411
(dp412
S'VERB'
p413
F0.99995
sS'NOUN'
p414
F5e-05
s(lp415
(g125
I17
tp416
atp417
a(S'zij'
p418
(dp419
S'PRON'
p420
F0.999991
sS'VERB'
p421
F7e-06
sS'NOUN'
p422
F2e-06
s(lp423
(g116
I16
tp424
atp425
a(S'ongeveer'
p426
(dp427
S'ADV'
p428
F1.0
s(lp429
(g139
I19
tp430
atp431
a(S'70'
p432
(dp433
S'NUM'
p434
F1.0
s(lp435
(g147
I20
tp436
atp437
a(S'procent'
p438
(dp439
S'NOUN'
p440
F1.0
s(lp441
(g150
I21
tp442
atp443
a(S'van'
p444
(dp445
S'ADP'
p446
F1.0
s(lp447
(g160
I22
tp448
atp449
a(S'de'
p450
(dp451
S'DET'
p452
F1.0
s(lp453
tp454
a(S'werkgelegenheid'
p455
(dp456
S'NOUN'
p457
F1.0
s(lp458
(g167
I23
tp459
atp460
a(g27
(dp461
g27
F1.0
s(lp462
(g27
I24
tp463
atp464
asS'de'
p465
(lp466
(S'in'
p467
(dp468
S'ADP'
p469
F1.0
s(lp470
(g8
I0
tp471
atp472
a(S'meinem'
p473
(dp474
S'PRON'
p475
F1.0
s(lp476
(g15
I1
tp477
atp478
a(S'heimatland'
p479
(dp480
S'ADJ'
p481
F0.171466
sS'NOUN'
p482
F0.784846
s(lp483
(g22
I2
tp484
atp485
a(g25
(dp486
g27
F1.0
s(lp487
(g25
I3
tp488
atp489
a(S'gro\xc3\x9fbritannien'
p490
(dp491
S'VERB'
p492
F0.182361
sS'NOUN'
p493
F0.800074
s(lp494
(g44
I5
tp495
atp496
a(g25
(dp497
g27
F1.0
s(lp498
(g25
I6
tp499
atp500
a(S'handelt'
p501
(dp502
S'VERB'
p503
F1.0
s(lp504
tp505
a(S'es'
p506
(dp507
S'PRON'
p508
F1.0
s(lp509
(g116
I16
tp510
atp511
a(S'sich'
p512
(dp513
S'PRON'
p514
F1.0
s(lp515
tp516
a(S'bei'
p517
(dp518
S'PRT'
p519
F3e-06
sS'ADP'
p520
F0.999997
s(lp521
(g79
I10
tp522
atp523
a(S'der'
p524
(dp525
S'PRON'
p526
F6.7e-05
sS'DET'
p527
F0.999928
s(lp528
(g57
I7
tp529
atp530
a(S'gro\xc3\x9fen'
p531
(dp532
S'ADJ'
p533
F1.0
s(lp534
(g64
I8
tp535
atp536
a(S'mehrheit'
p537
(dp538
S'ADJ'
p539
F0.002767
sS'NOUN'
p540
F0.995827
s(lp541
(g71
I9
tp542
atp543
a(S'um'
p544
(dp545
S'PRT'
p546
F0.001136
sS'ADP'
p547
F0.99833
s(lp548
(g94
I12
tp549
atp550
a(S'kleine'
p551
(dp552
S'ADJ'
p553
F1.0
s(lp554
(g102
I13
tp555
atp556
a(S'unternehmen'
p557
(dp558
S'VERB'
p559
F1.0
s(lp560
(g87
I11
tp561
atp562
a(g25
(dp563
g27
F1.0
s(lp564
(g25
I14
tp565
atp566
a(S'auf'
p567
(dp568
S'PRT'
p569
F0.000163
sS'ADP'
p570
F0.999794
s(lp571
(g132
I18
tp572
atp573
a(S'die'
p574
(dp575
S'PRON'
p576
F0.006488
sS'DET'
p577
F0.99079
s(lp578
tp579
a(S'etwa'
p580
(dp581
S'ADV'
p582
F1.0
s(lp583
(g139
I19
tp584
atp585
a(S'70'
p586
(dp587
S'NUM'
p588
F1.0
s(lp589
(g147
I20
tp590
atp591
a(g150
(dp592
S'NOUN'
p593
F1.0
s(lp594
tp595
a(S'der'
p596
(dp597
S'PRON'
p598
F0.000113
sS'DET'
p599
F0.999846
s(lp600
(g160
I22
tp601
atp602
a(S'arbeitspl\xc3\xa4tze'
p603
(dp604
S'ADJ'
p605
F0.039446
sS'NOUN'
p606
F0.945912
s(lp607
(g167
I23
tp608
atp609
a(S'entfallen'
p610
(dp611
S'VERB'
p612
F0.978553
s(lp613
(g150
I21
tp614
atp615
a(g27
(dp616
g27
F1.0
s(lp617
(g27
I24
tp618
atp619
asS'it'
p620
(lp621
(S'nel'
p622
(dp623
S'ADP'
p624
F1.0
s(lp625
(g8
I0
tp626
atp627
a(S'mio'
p628
(dp629
S'PRON'
p630
F1.0
s(lp631
(g15
I1
tp632
atp633
a(S'paese'
p634
(dp635
S'NOUN'
p636
F1.0
s(lp637
(g22
I2
tp638
atp639
a(g25
(dp640
g27
F1.0
s(lp641
(g25
I3
tp642
atp643
a(S'la'
p644
(dp645
S'PRON'
p646
F0.00412
sS'DET'
p647
F0.99588
s(lp648
tp649
a(S'gran'
p650
(dp651
S'ADJ'
p652
F1.0
s(lp653
tp654
a(S'bretagna'
p655
(dp656
S'NOUN'
p657
F1.0
s(lp658
(g44
I5
tp659
atp660
a(g25
(dp661
g27
F1.0
s(lp662
(g25
I6
tp663
atp664
a(S'la'
p665
(dp666
S'PRON'
p667
F0.00412
sS'DET'
p668
F0.99588
s(lp669
(g57
I7
tp670
atp671
a(S'maggior'
p672
(dp673
S'ADJ'
p674
F1.0
s(lp675
(g64
I8
tp676
atp677
a(S'parte'
p678
(dp679
S'VERB'
p680
F0.000157
sS'NOUN'
p681
F0.999843
s(lp682
(g71
I9
tp683
atp684
a(S'delle'
p685
(dp686
S'DEF'
p687
F0.001055
sS'ADP'
p688
F0.998945
s(lp689
(g79
I10
tp690
atp691
a(S'imprese'
p692
(dp693
S'VERB'
p694
F1.6e-05
sS'NOUN'
p695
F0.999984
s(lp696
(g87
I11
tp697
atp698
a(S'\xc3\xa8'
p699
(dp700
S'VERB'
p701
F1.0
s(lp702
(g94
I12
tp703
atp704
a(S'di'
p705
(dp706
S'CONJ'
p707
F6e-06
sS'ADP'
p708
F0.999994
s(lp709
tp710
a(S'piccole'
p711
(dp712
S'NOUN'
p713
F0.013013
sS'ADJ'
p714
F0.986987
s(lp715
tp716
a(S'dimensioni'
p717
(dp718
S'VERB'
p719
F0.0026420000000000003
sS'NOUN'
p720
F0.997358
s(lp721
(g102
I13
tp722
atp723
a(S'e'
p724
(dp725
S'CONJ'
p726
F1.0
s(lp727
(g109
I15
tp728
atp729
a(S'garantisce'
p730
(dp731
S'VERB'
p732
F1.0
s(lp733
(g125
I17
tp734
atp735
a(S'circa'
p736
(dp737
S'ADV'
p738
F0.962915
sS'ADP'
p739
F0.037085
s(lp740
(g139
I19
tp741
atp742
a(S'il'
p743
(dp744
S'DET'
p745
F1.0
s(lp746
tp747
a(S'70'
p748
(dp749
S'NUM'
p750
F0.9997860000000001
sg27
F0.000214
s(lp751
(g147
I20
tp752
atp753
a(g150
(dp754
g144
F1.0
s(lp755
(g150
I21
tp756
atp757
a(S"dell'"
p758
(dp759
S'ADJ'
p760
F0.002097
sS'VERB'
p761
F0.005816
sS'NOUN'
p762
F0.992087
s(lp763
(g160
I22
tp764
atp765
a(S'occupazione'
p766
(dp767
S'NOUN'
p768
F1.0
s(lp769
(g167
I23
tp770
atp771
a(g27
(dp772
g27
F1.0
s(lp773
(g27
I24
tp774
atp775
asS'sk'
p776
(lp777
(S'v'
p778
(dp779
g144
F0.000117
sS'ADP'
p780
F0.999883
s(lp781
(g8
I0
tp782
atp783
a(S'mojej'
p784
(dp785
S'PRON'
p786
F1.0
s(lp787
(g15
I1
tp788
atp789
a(S'krajine'
p790
(dp791
S'NOUN'
p792
F1.0
s(lp793
(g22
I2
tp794
atp795
a(g25
(dp796
g27
F1.0
s(lp797
(g25
I3
tp798
atp799
a(g778
(dp800
g144
F0.000753
sS'ADP'
p801
F0.999247
s(lp802
(g35
I4
tp803
atp804
a(S'brit\xc3\xa1nii'
p805
(dp806
S'ADJ'
p807
F0.005169999999999999
sS'NOUN'
p808
F0.994831
s(lp809
(g44
I5
tp810
atp811
a(g25
(dp812
g27
F1.0
s(lp813
(g25
I6
tp814
atp815
a(S'v\xc3\xa4\xc4\x8d\xc5\xa1inu'
p816
(dp817
S'NOUN'
p818
F1.0
s(lp819
(g71
I9
tp820
atp821
a(S'podnikov'
p822
(dp823
S'NOUN'
p824
F1.0
s(lp825
tp826
a(S'tvoria'
p827
(dp828
S'VERB'
p829
F1.0
s(lp830
(g94
I12
tp831
atp832
a(S'mal\xc3\xa9'
p833
(dp834
S'NOUN'
p835
F0.000151
sS'ADJ'
p836
F0.999849
s(lp837
(g102
I13
tp838
atp839
a(S'podniky'
p840
(dp841
S'NOUN'
p842
F1.0
s(lp843
(g87
I11
tp844
atp845
a(g25
(dp846
g27
F1.0
s(lp847
(g25
I14
tp848
atp849
a(S'ktor\xc3\xa9'
p850
(dp851
S'PRON'
p852
F1.0
s(lp853
(g116
I16
tp854
atp855
a(S'vytv\xc3\xa1raj\xc3\xba'
p856
(dp857
S'VERB'
p858
F1.0
s(lp859
(g125
I17
tp860
atp861
a(S'70'
p862
(dp863
S'NUM'
p864
F1.0
s(lp865
(g147
I20
tp866
atp867
a(g150
(dp868
g144
F0.908013
sg27
F0.091987
s(lp869
(g150
I21
tp870
atp871
a(S'pracovn\xc3\xbdch'
p872
(dp873
S'ADJ'
p874
F1.0
s(lp875
tp876
a(S'miest'
p877
(dp878
S'NOUN'
p879
F1.0
s(lp880
(g167
I23
tp881
atp882
a(g27
(dp883
g27
F1.0
s(lp884
(g27
I24
tp885
atp886
asS'pl'
p887
(lp888
(S'w'
p889
(dp890
S'ADJ'
p891
F0.0
sg144
F0.0
sS'NOUN'
p892
F0.0
sS'ADP'
p893
F0.999999
s(lp894
(g8
I0
tp895
atp896
a(S'moim'
p897
(dp898
S'ADJ'
p899
F0.999999
s(lp900
(g15
I1
tp901
atp902
a(S'kraju'
p903
(dp904
S'NOUN'
p905
F1.000001
s(lp906
(g22
I2
tp907
atp908
a(g25
(dp909
g144
F1e-06
sg27
F0.999999
s(lp910
(g25
I3
tp911
atp912
a(S'to'
p913
(dp914
S'NOUN'
p915
F0.395359
sS'ADP'
p916
F0.0
sS'PRT'
p917
F0.23381
sg144
F0.000682
sS'CONJ'
p918
F0.113669
sS'ADJ'
p919
F0.256481
s(lp920
tp921
a(S'jest'
p922
(dp923
S'VERB'
p924
F1.0
s(lp925
tp926
a(g889
(dp927
S'ADJ'
p928
F4.1e-05
sS'NOUN'
p929
F0.000142
sS'ADP'
p930
F0.999815
sg144
F2e-06
s(lp931
(g35
I4
tp932
atp933
a(S'wielkiej'
p934
(dp935
S'ADJ'
p936
F0.999999
s(lp937
tp938
a(S'brytanii'
p939
(dp940
S'VERB'
p941
F1e-05
sS'NOUN'
p942
F0.9999890000000001
s(lp943
(g44
I5
tp944
atp945
a(g25
(dp946
g144
F0.0
sg27
F1.0
s(lp947
(g25
I6
tp948
atp949
a(S'zdecydowan\xc4\x85'
p950
(dp951
S'ADJ'
p952
F1.0
s(lp953
(g64
I8
tp954
atp955
a(S'wi\xc4\x99kszo\xc5\x9b\xc4\x87'
p956
(dp957
S'NOUN'
p958
F1.0
s(lp959
(g71
I9
tp960
atp961
a(S'przedsi\xc4\x99biorstw'
p962
(dp963
S'NOUN'
p964
F1.0
s(lp965
tp966
a(S'stanowi\xc4\x85'
p967
(dp968
S'VERB'
p969
F1.0
s(lp970
(g94
I12
tp971
atp972
a(S'przedsi\xc4\x99biorstwa'
p973
(dp974
S'NOUN'
p975
F1.0
s(lp976
(g87
I11
tp977
atp978
a(S'ma\xc5\x82e'
p979
(dp980
S'NOUN'
p981
F0.004921
sS'ADJ'
p982
F0.995079
s(lp983
(g102
I13
tp984
atp985
a(g25
(dp986
g144
F0.0
sg27
F1.0
s(lp987
(g25
I14
tp988
atp989
a(S'kt\xc3\xb3re'
p990
(dp991
S'ADJ'
p992
F0.9999999999999999
s(lp993
(g116
I16
tp994
atp995
a(S'zapewniaj\xc4\x85'
p996
(dp997
S'VERB'
p998
F1.0
s(lp999
(g125
I17
tp1000
atp1001
a(S'oko\xc5\x82o'
p1002
(dp1003
S'PRT'
p1004
F0.991901
sS'ADP'
p1005
F0.008099
s(lp1006
(g139
I19
tp1007
atp1008
a(S'70'
p1009
(dp1010
S'NUM'
p1011
F0.999608
sS'ADJ'
p1012
F0.00039200000000000004
s(lp1013
(g147
I20
tp1014
atp1015
a(g150
(dp1016
S'NOUN'
p1017
F0.999999
s(lp1018
(g150
I21
tp1019
atp1020
a(S'miejsc'
p1021
(dp1022
S'NOUN'
p1023
F1.0
s(lp1024
tp1025
a(S'pracy'
p1026
(dp1027
S'NOUN'
p1028
F0.9999999999999999
s(lp1029
(g167
I23
tp1030
atp1031
a(g27
(dp1032
g27
F1.0
s(lp1033
(g27
I24
tp1034
atp1035
asS'sl'
p1036
(lp1037
(g778
(dp1038
S'ADP'
p1039
F1.0
s(lp1040
(g8
I0
tp1041
atp1042
a(S'moji'
p1043
(dp1044
S'PRON'
p1045
F0.9999999999999999
s(lp1046
(g15
I1
tp1047
atp1048
a(S'dr\xc5\xbeavi'
p1049
(dp1050
S'NOUN'
p1051
F1.0
s(lp1052
(g22
I2
tp1053
atp1054
a(g25
(dp1055
g27
F1.0
s(lp1056
(g25
I3
tp1057
atp1058
a(S'veliki'
p1059
(dp1060
S'ADJ'
p1061
F0.999999
s(lp1062
tp1063
a(S'britaniji'
p1064
(dp1065
S'ADV'
p1066
F7e-06
sS'ADJ'
p1067
F3e-06
sS'VERB'
p1068
F9.3e-05
sS'NOUN'
p1069
F0.9998979999999997
s(lp1070
(g44
I5
tp1071
atp1072
a(g25
(dp1073
g27
F1.0
s(lp1074
(g25
I6
tp1075
atp1076
a(S'je'
p1077
(dp1078
S'PRON'
p1079
F0.001451
sS'VERB'
p1080
F0.9985470000000001
sg144
F3e-06
s(lp1081
(g57
I7
tp1082
atp1083
a(S've\xc4\x8dina'
p1084
(dp1085
S'NOUN'
p1086
F1.0
s(lp1087
(g71
I9
tp1088
atp1089
a(S'podjetij'
p1090
(dp1091
S'NOUN'
p1092
F1.0
s(lp1093
(g87
I11
tp1094
atp1095
a(S'malih'
p1096
(dp1097
S'ADJ'
p1098
F0.9999999999999999
s(lp1099
(g102
I13
tp1100
atp1101
a(S'ter'
p1102
(dp1103
S'CONJ'
p1104
F1.0
s(lp1105
(g109
I15
tp1106
atp1107
a(S'zagotavljajo'
p1108
(dp1109
S'VERB'
p1110
F1.0
s(lp1111
(g125
I17
tp1112
atp1113
a(S'pribli\xc5\xbeno'
p1114
(dp1115
S'ADV'
p1116
F0.995818
sS'ADJ'
p1117
F0.004182
s(lp1118
(g139
I19
tp1119
atp1120
a(S'70'
p1121
(dp1122
S'NUM'
p1123
F1.0
s(lp1124
(g147
I20
tp1125
atp1126
a(g150
(dp1127
g27
F1.0
s(lp1128
(g150
I21
tp1129
atp1130
a(S'vseh'
p1131
(dp1132
S'PRON'
p1133
F1.0
s(lp1134
(g160
I22
tp1135
atp1136
a(S'delovnih'
p1137
(dp1138
S'ADJ'
p1139
F0.999999
s(lp1140
tp1141
a(S'mest'
p1142
(dp1143
S'NOUN'
p1144
F1.0
s(lp1145
(g167
I23
tp1146
atp1147
a(g27
(dp1148
g27
F1.0
s(lp1149
(g27
I24
tp1150
atp1151
asS'es'
p1152
(lp1153
(S'en'
p1154
(dp1155
g144
F2e-06
sS'CONJ'
p1156
F3e-05
sS'ADP'
p1157
F0.999968
s(lp1158
(g8
I0
tp1159
atp1160
a(S'mi'
p1161
(dp1162
S'PRON'
p1163
F1.0
s(lp1164
(g15
I1
tp1165
atp1166
a(S'pa\xc3\xads'
p1167
(dp1168
S'NOUN'
p1169
F1.0
s(lp1170
(g22
I2
tp1171
atp1172
a(g25
(dp1173
g27
F1.0
s(lp1174
(g25
I3
tp1175
atp1176
a(S'en'
p1177
(dp1178
g144
F0.0
sS'CONJ'
p1179
F1e-06
sS'ADP'
p1180
F0.999998
s(lp1181
(g35
I4
tp1182
atp1183
a(S'el'
p1184
(dp1185
S'PRON'
p1186
F9.5e-05
sS'DET'
p1187
F0.999905
s(lp1188
tp1189
a(S'reino'
p1190
(dp1191
S'ADJ'
p1192
F0.208125
sS'VERB'
p1193
F0.116021
sS'NOUN'
p1194
F0.675854
s(lp1195
tp1196
a(S'unido'
p1197
(dp1198
S'ADJ'
p1199
F0.208125
sS'VERB'
p1200
F0.116021
sS'NOUN'
p1201
F0.675854
s(lp1202
(g44
I5
tp1203
atp1204
a(g25
(dp1205
g27
F1.0
s(lp1206
(g25
I6
tp1207
atp1208
a(S'la'
p1209
(dp1210
S'NOUN'
p1211
F5.3e-05
sS'PRON'
p1212
F1e-05
sS'DET'
p1213
F0.999886
sg144
F5.1e-05
s(lp1214
(g57
I7
tp1215
atp1216
a(S'gran'
p1217
(dp1218
S'ADJ'
p1219
F1.0
s(lp1220
(g64
I8
tp1221
atp1222
a(S'mayor\xc3\xada'
p1223
(dp1224
S'NOUN'
p1225
F1.0
s(lp1226
(g71
I9
tp1227
atp1228
a(S'de'
p1229
(dp1230
g144
F0.0
sS'CONJ'
p1231
F1.7e-05
sS'ADP'
p1232
F0.999983
s(lp1233
(g79
I10
tp1234
atp1235
a(S'las'
p1236
(dp1237
S'PRON'
p1238
F0.0
sS'DET'
p1239
F1.0
s(lp1240
tp1241
a(S'empresas'
p1242
(dp1243
S'NOUN'
p1244
F1.0
s(lp1245
(g87
I11
tp1246
atp1247
a(S'son'
p1248
(dp1249
S'VERB'
p1250
F0.995238
sS'NOUN'
p1251
F0.004762
s(lp1252
(g94
I12
tp1253
atp1254
a(S'peque\xc3\xb1as'
p1255
(dp1256
S'ADJ'
p1257
F1.0
s(lp1258
(g102
I13
tp1259
atp1260
a(S'y'
p1261
(dp1262
g144
F0.000435
sS'CONJ'
p1263
F0.999565
s(lp1264
(g109
I15
tp1265
atp1266
a(S'representan'
p1267
(dp1268
S'VERB'
p1269
F1.0
s(lp1270
(g116
I16
tp1271
atp1272
a(S'aproximadamente'
p1273
(dp1274
S'ADV'
p1275
F1.0
s(lp1276
(g139
I19
tp1277
atp1278
a(S'el'
p1279
(dp1280
S'PRON'
p1281
F0.000344
sS'DET'
p1282
F0.999656
s(lp1283
tp1284
a(S'70'
p1285
(dp1286
g144
F5e-06
sS'NUM'
p1287
F0.999995
s(lp1288
(g147
I20
tp1289
atp1290
a(g150
(dp1291
g27
F1.0
s(lp1292
(g150
I21
tp1293
atp1294
a(S'de'
p1295
(dp1296
g144
F0.0
sS'CONJ'
p1297
F2e-06
sS'ADP'
p1298
F0.999998
s(lp1299
(g160
I22
tp1300
atp1301
a(S'la'
p1302
(dp1303
S'PRON'
p1304
F1e-06
sS'DET'
p1305
F0.999998
sS'NOUN'
p1306
F0.0
sg144
F1e-06
s(lp1307
tp1308
a(S'oferta'
p1309
(dp1310
S'VERB'
p1311
F0.000333
sS'NOUN'
p1312
F0.999667
s(lp1313
(g125
I17
tp1314
atp1315
a(S'de'
p1316
(dp1317
g144
F2.9e-05
sS'CONJ'
p1318
F0.000449
sS'ADP'
p1319
F0.999522
s(lp1320
(g132
I18
tp1321
atp1322
a(S'empleo'
p1323
(dp1324
S'NOUN'
p1325
F1.0
s(lp1326
(g167
I23
tp1327
atp1328
a(g27
(dp1329
g27
F1.0
s(lp1330
(g27
I24
tp1331
atp1332
as.