(dp0
S'fr'
p1
(lp2
(S'il'
p3
(dp4
S'PRON'
p5
F1.0
s(lp6
(S'there'
p7
I0
tp8
atp9
a(S'y'
p10
(dp11
S'PRON'
p12
F1.0
s(lp13
tp14
a(S'a'
p15
(dp16
S'VERB'
p17
F1.0
s(lp18
(g7
I0
tp19
atp20
a(S'un'
p21
(dp22
S'NOUN'
p23
F4.8e-05
sS'NUM'
p24
F0.004554
sS'DET'
p25
F0.995399
s(lp26
(g15
I2
tp27
atp28
a(S'principe'
p29
(dp30
S'NOUN'
p31
F1.0
s(lp32
(S'principle'
p33
I3
tp34
atp35
a(S'qui'
p36
(dp37
S'PRON'
p38
F1.0
s(lp39
(S'which'
p40
I4
tp41
atp42
a(S','
p43
(dp44
S'.'
p45
F1.0
s(lp46
(g43
I12
tp47
atp48
a(S'nous'
p49
(dp50
S'PRON'
p51
F1.0
s(lp52
(S'we'
p53
I5
tp54
atp55
a(S'insistons'
p56
(dp57
S'VERB'
p58
F1.0
s(lp59
tp60
a(S'l\xc3\xa0-dessus'
p61
(dp62
S'ADV'
p63
F1.0
s(lp64
(S'insist'
p65
I6
tp66
atp67
a(g43
(dp68
g45
F1.0
s(lp69
(g43
I10
tp70
atp71
a(S'doit'
p72
(dp73
S'VERB'
p74
F0.999619
sS'NOUN'
p75
F0.000381
s(lp76
(S'must'
p77
I7
tp78
atp79
a(S'\xc3\xaatre'
p80
(dp81
S'VERB'
p82
F0.995228
sS'NOUN'
p83
F0.004772
s(lp84
(S'be'
p85
I8
tp86
atp87
a(S'prot\xc3\xa9g\xc3\xa9'
p88
(dp89
S'ADJ'
p90
F0.042976
sS'VERB'
p91
F0.90121
sS'NOUN'
p92
F0.055813
s(lp93
(S'protected'
p94
I9
tp95
atp96
a(S':'
p97
(dp98
g45
F1.0
s(lp99
(S'namely'
p100
I11
tp101
atp102
a(S'les'
p103
(dp104
S'PRON'
p105
F0.000652
sS'DET'
p106
F0.999318
sS'ADP'
p107
F3e-05
s(lp108
tp109
a(S'nouvelles'
p110
(dp111
S'ADJ'
p112
F0.340429
sS'NOUN'
p113
F0.659571
s(lp114
(S'new'
p115
I13
tp116
atp117
a(S'politiques'
p118
(dp119
S'NOUN'
p120
F0.062443
sS'VERB'
p121
F7.9e-05
sS'ADJ'
p122
F0.937478
s(lp123
(S'policies'
p124
I14
tp125
atp126
a(S'doivent'
p127
(dp128
S'VERB'
p129
F1.0
s(lp130
(S'must'
p131
I15
tp132
atp133
a(S'\xc3\xaatre'
p134
(dp135
S'VERB'
p136
F0.997202
sS'NOUN'
p137
F0.002798
s(lp138
(S'be'
p139
I16
tp140
atp141
a(S'financ\xc3\xa9es'
p142
(dp143
S'VERB'
p144
F1.0
s(lp145
(S'funded'
p146
I17
tp147
atp148
a(S'par'
p149
(dp150
S'NOUN'
p151
F2.1e-05
sS'ADP'
p152
F0.999979
s(lp153
(S'using'
p154
I18
tp155
atp156
a(S'de'
p157
(dp158
S'ADP'
p159
F1.0
s(lp160
tp161
a(S'nouvelles'
p162
(dp163
S'NOUN'
p164
F0.007146
sS'ADJ'
p165
F0.992854
s(lp166
(S'new'
p167
I19
tp168
atp169
a(S'ressources'
p170
(dp171
S'VERB'
p172
F0.002598
sS'NOUN'
p173
F0.997402
s(lp174
(S'resources'
p175
I20
tp176
atp177
a(g45
(dp178
g45
F1.0
s(lp179
(g45
I21
tp180
atp181
asS'en'
p182
(lp183
(g7
(dp184
S'ADV'
p185
F0.001099
sS'ADJ'
p186
F0.0
sS'DET'
p187
F0.998901
sS'ADP'
p188
F0.0
s(lp189
(g7
I0
tp190
atp191
a(S'is'
p192
(dp193
S'VERB'
p194
F1.0
s(lp195
(g192
I1
tp196
atp197
a(g15
(dp198
S'NOUN'
p199
F0.0
sS'DET'
p200
F1.0
s(lp201
(g15
I2
tp202
atp203
a(g33
(dp204
S'NOUN'
p205
F1.0
s(lp206
(g33
I3
tp207
atp208
a(g40
(dp209
S'DET'
p210
F1.0
s(lp211
(g40
I4
tp212
atp213
a(g53
(dp214
S'PRON'
p215
F1.0
s(lp216
(g53
I5
tp217
atp218
a(g65
(dp219
S'VERB'
p220
F1.0
s(lp221
(g65
I6
tp222
atp223
a(g77
(dp224
S'VERB'
p225
F1.0
sS'NOUN'
p226
F0.0
s(lp227
(g77
I7
tp228
atp229
a(g85
(dp230
S'VERB'
p231
F1.0
s(lp232
(g85
I8
tp233
atp234
a(g94
(dp235
S'VERB'
p236
F0.994719
sS'ADJ'
p237
F0.005281
s(lp238
(g94
I9
tp239
atp240
a(g43
(dp241
g45
F1.0
s(lp242
(g43
I10
tp243
atp244
a(g100
(dp245
S'ADV'
p246
F1.0
s(lp247
(g100
I11
tp248
atp249
a(g43
(dp250
g45
F1.0
s(lp251
(g43
I12
tp252
atp253
a(g115
(dp254
S'NOUN'
p255
F1.8e-05
sS'ADJ'
p256
F0.999982
s(lp257
(g115
I13
tp258
atp259
a(g124
(dp260
S'NOUN'
p261
F1.0
s(lp262
(g124
I14
tp263
atp264
a(g131
(dp265
S'VERB'
p266
F1.0
sS'NOUN'
p267
F0.0
s(lp268
(g131
I15
tp269
atp270
a(g139
(dp271
S'VERB'
p272
F1.0
s(lp273
(g139
I16
tp274
atp275
a(g146
(dp276
S'VERB'
p277
F0.988921
sS'ADJ'
p278
F0.01108
s(lp279
(g146
I17
tp280
atp281
a(g154
(dp282
S'VERB'
p283
F1.0
s(lp284
(g154
I18
tp285
atp286
a(g167
(dp287
S'NOUN'
p288
F4.4e-05
sS'ADJ'
p289
F0.999956
s(lp290
(g167
I19
tp291
atp292
a(g175
(dp293
S'NOUN'
p294
F1.0
s(lp295
(g175
I20
tp296
atp297
a(g45
(dp298
g45
F1.0
s(lp299
(g45
I21
tp300
atp301
asS'nl'
p302
(lp303
(S'er'
p304
(dp305
S'ADV'
p306
F1.0
s(lp307
(g7
I0
tp308
atp309
a(S'is'
p310
(dp311
S'VERB'
p312
F1.0
s(lp313
(g192
I1
tp314
atp315
a(S'een'
p316
(dp317
S'ADJ'
p318
F2e-06
sS'NUM'
p319
F0.0
sS'DET'
p320
F0.999997
sS'PRON'
p321
F1e-06
s(lp322
(g15
I2
tp323
atp324
a(S'beginsel'
p325
(dp326
S'NOUN'
p327
F1.0
s(lp328
(g33
I3
tp329
atp330
a(S'dat'
p331
(dp332
S'PRON'
p333
F0.324158
sS'CONJ'
p334
F0.675842
s(lp335
(g40
I4
tp336
atp337
a(S'volgens'
p338
(dp339
S'ADP'
p340
F1.0
s(lp341
(g154
I18
tp342
atp343
a(S'ons'
p344
(dp345
S'PRON'
p346
F0.999879
sS'NOUN'
p347
F0.000121
s(lp348
(g53
I5
tp349
atp350
a(S'absoluut'
p351
(dp352
S'ADJ'
p353
F1.0
s(lp354
(g65
I6
tp355
atp356
a(S'gehandhaafd'
p357
(dp358
S'VERB'
p359
F1.0
s(lp360
(g94
I9
tp361
atp362
a(S'moet'
p363
(dp364
S'VERB'
p365
F1.0
s(lp366
(g77
I7
tp367
atp368
a(S'worden'
p369
(dp370
S'VERB'
p371
F0.999998
sS'NOUN'
p372
F2e-06
s(lp373
(g85
I8
tp374
atp375
a(g43
(dp376
g45
F1.0
s(lp377
(g43
I10
tp378
atp379
a(S'namelijk'
p380
(dp381
S'ADV'
p382
F1.0
s(lp383
(g100
I11
tp384
atp385
a(S'dat'
p386
(dp387
S'PRON'
p388
F0.089226
sS'CONJ'
p389
F0.910774
s(lp390
(g43
I12
tp391
atp392
a(S'nieuwe'
p393
(dp394
S'NOUN'
p395
F0.0
sS'ADJ'
p396
F1.0
s(lp397
(g115
I13
tp398
atp399
a(S'beleidsmaatregelen'
p400
(dp401
S'NOUN'
p402
F1.0
s(lp403
(g124
I14
tp404
atp405
a(S'uit'
p406
(dp407
S'ADV'
p408
F0.493629
sS'VERB'
p409
F3.3e-05
sS'ADP'
p410
F0.506338
s(lp411
(g146
I17
tp412
atp413
a(S'nieuwe'
p414
(dp415
S'NOUN'
p416
F0.0
sS'ADJ'
p417
F1.0
s(lp418
(g167
I19
tp419
atp420
a(S'middelen'
p421
(dp422
S'NOUN'
p423
F1.0
s(lp424
(g175
I20
tp425
atp426
a(S'gefinancierd'
p427
(dp428
S'VERB'
p429
F1.0
s(lp430
tp431
a(S'worden'
p432
(dp433
S'VERB'
p434
F0.999987
sS'NOUN'
p435
F1.2e-05
s(lp436
(g146
I17
tp437
atp438
a(g45
(dp439
g45
F1.0
s(lp440
(g45
I21
tp441
atp442
asS'de'
p443
(lp444
(S'es'
p445
(dp446
S'PRON'
p447
F1.0
s(lp448
tp449
a(S'gibt'
p450
(dp451
S'VERB'
p452
F1.0
s(lp453
(g7
I0
tp454
atp455
a(S'einen'
p456
(dp457
S'PRON'
p458
F0.005369
sS'DET'
p459
F0.992117
s(lp460
(g15
I2
tp461
atp462
a(S'grundsatz'
p463
(dp464
S'ADJ'
p465
F0.137029
sS'NOUN'
p466
F0.812668
s(lp467
(g33
I3
tp468
atp469
a(g43
(dp470
g45
F1.0
s(lp471
tp472
a(S'auf'
p473
(dp474
S'PRT'
p475
F0.000267
sS'ADP'
p476
F0.999645
s(lp477
tp478
a(S'dessen'
p479
(dp480
S'PRON'
p481
F0.997566
s(lp482
(g40
I4
tp483
atp484
a(S'einhaltung'
p485
(dp486
S'VERB'
p487
F0.775664
sS'NOUN'
p488
F0.223505
s(lp489
tp490
a(S'wir'
p491
(dp492
S'PRON'
p493
F1.0
s(lp494
(g53
I5
tp495
atp496
a(S'bestehen'
p497
(dp498
S'PRT'
p499
F0.333577
sS'VERB'
p500
F0.476331
s(lp501
(g65
I6
tp502
atp503
a(g43
(dp504
g45
F1.0
s(lp505
(g43
I10
tp506
atp507
a(S'n\xc3\xa4mlich'
p508
(dp509
S'ADV'
p510
F1.0
s(lp511
(g100
I11
tp512
atp513
a(g97
(dp514
g45
F1.0
s(lp515
(g43
I12
tp516
atp517
a(S'neue'
p518
(dp519
S'ADJ'
p520
F1.0
s(lp521
(g115
I13
tp522
atp523
a(S'politiken'
p524
(dp525
S'ADJ'
p526
F0.008926
sS'NOUN'
p527
F0.990726
s(lp528
(g124
I14
tp529
atp530
a(S'm\xc3\xbcssen'
p531
(dp532
S'VERB'
p533
F0.999838
s(lp534
(g131
I15
tp535
atp536
a(S'durch'
p537
(dp538
S'ADV'
p539
F0.000422
sS'ADP'
p540
F0.999576
s(lp541
(g154
I18
tp542
atp543
a(S'neue'
p544
(dp545
S'ADJ'
p546
F1.0
s(lp547
(g167
I19
tp548
atp549
a(S'mittel'
p550
(dp551
S'VERB'
p552
F1.0
s(lp553
(g175
I20
tp554
atp555
a(S'finanziert'
p556
(dp557
S'VERB'
p558
F0.999999
s(lp559
(g146
I17
tp560
atp561
a(S'werden'
p562
(dp563
S'VERB'
p564
F0.999996
s(lp565
(g139
I16
tp566
atp567
a(g45
(dp568
g45
F1.0
s(lp569
(g45
I21
tp570
atp571
asS'it'
p572
(lp573
(S'insistiamo'
p574
(dp575
S'VERB'
p576
F1.0
s(lp577
(g65
I6
tp578
atp579
a(S'per\xc3\xb2'
p580
(dp581
S'ADV'
p582
F1.0
s(lp583
(g192
I1
tp584
atp585
a(S"sull'"
p586
(dp587
S'ADJ'
p588
F0.040775
sS'VERB'
p589
F0.04232400000000001
sS'NOUN'
p590
F0.916901
s(lp591
tp592
a(S'imprescindibile'
p593
(dp594
S'ADJ'
p595
F1.0
s(lp596
(g65
I6
tp597
atp598
a(S'necessit\xc3\xa0'
p599
(dp600
S'NOUN'
p601
F1.0
s(lp602
(g77
I7
tp603
atp604
a(S'di'
p605
(dp606
S'CONJ'
p607
F6e-06
sS'ADP'
p608
F0.999994
s(lp609
tp610
a(S'tutelare'
p611
(dp612
S'VERB'
p613
F0.993031
sS'ADJ'
p614
F0.006969
s(lp615
(g94
I9
tp616
atp617
a(S'un'
p618
(dp619
S'PRON'
p620
F0.002007
sS'DEF'
p621
F0.997993
s(lp622
(g15
I2
tp623
atp624
a(S'principio'
p625
(dp626
S'VERB'
p627
F8e-06
sS'NOUN'
p628
F0.999992
s(lp629
(g33
I3
tp630
atp631
a(g97
(dp632
g45
F1.0
s(lp633
(g100
I11
tp634
atp635
a(S'le'
p636
(dp637
S'PRON'
p638
F0.000769
sS'DET'
p639
F0.999231
s(lp640
tp641
a(S'nuove'
p642
(dp643
S'NOUN'
p644
F0.163378
sS'ADJ'
p645
F0.836622
s(lp646
(g115
I13
tp647
atp648
a(S'politiche'
p649
(dp650
S'NOUN'
p651
F0.444592
sS'ADJ'
p652
F0.555408
s(lp653
(g124
I14
tp654
atp655
a(S'devono'
p656
(dp657
S'VERB'
p658
F1.0
s(lp659
(g131
I15
tp660
atp661
a(S'essere'
p662
(dp663
S'VERB'
p664
F0.999979
sS'NOUN'
p665
F2.1e-05
s(lp666
(g139
I16
tp667
atp668
a(S'finanziate'
p669
(dp670
S'VERB'
p671
F1.0
s(lp672
(g146
I17
tp673
atp674
a(S'utilizzando'
p675
(dp676
S'VERB'
p677
F1.0
s(lp678
(g154
I18
tp679
atp680
a(S'nuove'
p681
(dp682
S'NOUN'
p683
F0.002401
sS'ADJ'
p684
F0.997599
s(lp685
(g167
I19
tp686
atp687
a(S'risorse'
p688
(dp689
S'VERB'
p690
F0.01528
sS'NOUN'
p691
F0.98472
s(lp692
(g175
I20
tp693
atp694
a(g45
(dp695
g45
F1.0
s(lp696
(g45
I21
tp697
atp698
asS'sk'
p699
(lp700
(S'existuje'
p701
(dp702
S'VERB'
p703
F1.0
s(lp704
(g7
I0
tp705
atp706
a(S'z\xc3\xa1sada'
p707
(dp708
S'NOUN'
p709
F1.0
s(lp710
(g33
I3
tp711
atp712
a(g43
(dp713
g45
F1.0
s(lp714
tp715
a(S'na'
p716
(dp717
S'X'
p718
F0.00033
sS'CONJ'
p719
F0.000293
sS'ADP'
p720
F0.999374
sS'PRT'
p721
F4e-06
s(lp722
tp723
a(S'ochrane'
p724
(dp725
S'NOUN'
p726
F1.0
s(lp727
(g94
I9
tp728
atp729
a(S'ktorej'
p730
(dp731
S'PRON'
p732
F1.0
s(lp733
(g40
I4
tp734
atp735
a(S'trv\xc3\xa1me'
p736
(dp737
S'VERB'
p738
F1.0
s(lp739
(g65
I6
tp740
atp741
a(g43
(dp742
g45
F1.0
s(lp743
tp744
a(g15
(dp745
g718
F0.000231
sS'CONJ'
p746
F0.999744
sS'NOUN'
p747
F2e-06
sS'ADP'
p748
F1.8e-05
sS'PRT'
p749
F5e-06
s(lp750
(g43
I10
tp751
atp752
a(S'to'
p753
(dp754
S'PRON'
p755
F0.9874809999999999
sS'CONJ'
p756
F0.001104
sg718
F0.011415000000000002
s(lp757
(g100
I11
tp758
atp759
a(g43
(dp760
g45
F1.0
s(lp761
(g43
I12
tp762
atp763
a(S'\xc5\xbee'
p764
(dp765
g718
F0.000543
sS'CONJ'
p766
F0.999458
s(lp767
(g53
I5
tp768
atp769
a(S'nov\xc3\xa9'
p770
(dp771
g718
F0.00016
sS'ADJ'
p772
F0.9998400000000001
s(lp773
(g115
I13
tp774
atp775
a(S'politiky'
p776
(dp777
S'NOUN'
p778
F1.0
s(lp779
(g124
I14
tp780
atp781
a(S'musia'
p782
(dp783
S'VERB'
p784
F1.0
s(lp785
(g131
I15
tp786
atp787
a(S'by\xc5\xa5'
p788
(dp789
S'VERB'
p790
F1.0
s(lp791
(g139
I16
tp792
atp793
a(S'financovan\xc3\xa9'
p794
(dp795
S'VERB'
p796
F1.0
s(lp797
(g146
I17
tp798
atp799
a(S'z'
p800
(dp801
g718
F0.000169
sS'NOUN'
p802
F0.000164
sS'ADP'
p803
F0.999667
s(lp804
(g154
I18
tp805
atp806
a(S'nov\xc3\xbdch'
p807
(dp808
S'ADJ'
p809
F1.0
s(lp810
(g167
I19
tp811
atp812
a(S'prostriedkov'
p813
(dp814
S'NOUN'
p815
F1.0
s(lp816
(g175
I20
tp817
atp818
a(g45
(dp819
g45
F1.0
s(lp820
(g45
I21
tp821
atp822
asS'pl'
p823
(lp824
(S'istnieje'
p825
(dp826
S'VERB'
p827
F1.0
s(lp828
(g7
I0
tp829
atp830
a(S'zasada'
p831
(dp832
S'NOUN'
p833
F1.0
s(lp834
(g33
I3
tp835
atp836
a(g43
(dp837
g718
F0.0
sg45
F1.0
s(lp838
tp839
a(S'na'
p840
(dp841
g718
F1.5e-05
sS'VERB'
p842
F0.0
sS'NOUN'
p843
F1e-06
sS'ADP'
p844
F0.999979
sS'PRT'
p845
F3e-06
s(lp846
(g15
I2
tp847
atp848
a(S'kt\xc3\xb3rej'
p849
(dp850
S'ADJ'
p851
F1.0
s(lp852
(g40
I4
tp853
atp854
a(S'poszanowanie'
p855
(dp856
S'NOUN'
p857
F1.0
s(lp858
tp859
a(S'nalegamy'
p860
(dp861
S'ADV'
p862
F0.008863
sS'ADJ'
p863
F0.031663000000000004
sS'VERB'
p864
F0.8033289999999996
sS'NOUN'
p865
F0.15614499999999998
s(lp866
(g65
I6
tp867
atp868
a(g43
(dp869
g718
F0.0
sg45
F1.0
s(lp870
(g43
I10
tp871
atp872
a(S'mianowicie'
p873
(dp874
S'CONJ'
p875
F1.0
s(lp876
(g100
I11
tp877
atp878
a(S'finansowanie'
p879
(dp880
S'VERB'
p881
F1.0
s(lp882
(g146
I17
tp883
atp884
a(S'nowych'
p885
(dp886
S'NOUN'
p887
F0.000572
sS'ADJ'
p888
F0.999429
s(lp889
(g115
I13
tp890
atp891
a(S'polityk'
p892
(dp893
S'NOUN'
p894
F1.0
s(lp895
(g124
I14
tp896
atp897
a(g800
(dp898
S'PRT'
p899
F0.0001
sS'VERB'
p900
F0.0
sS'NOUN'
p901
F0.000146
sS'ADP'
p902
F0.9997510000000001
sg718
F3e-06
s(lp903
(g154
I18
tp904
atp905
a(S'nowych'
p906
(dp907
S'NOUN'
p908
F2e-06
sS'ADJ'
p909
F0.999998
s(lp910
(g167
I19
tp911
atp912
a(S'zasob\xc3\xb3w'
p913
(dp914
S'NOUN'
p915
F1.0
s(lp916
(g175
I20
tp917
atp918
a(g45
(dp919
g45
F1.0
s(lp920
(g45
I21
tp921
atp922
asS'sl'
p923
(lp924
(S'vztrajamo'
p925
(dp926
S'ADV'
p927
F0.001578
sS'ADJ'
p928
F0.0017549999999999998
sS'VERB'
p929
F0.964466
sS'NOUN'
p930
F0.0322
s(lp931
(g65
I6
tp932
atp933
a(S'pri'
p934
(dp935
S'ADP'
p936
F1.0
s(lp937
tp938
a(S'tem'
p939
(dp940
S'ADV'
p941
F4.1e-05
sS'PRON'
p942
F0.999954
sS'NOUN'
p943
F5e-06
s(lp944
(g65
I6
tp945
atp946
a(g43
(dp947
g45
F1.0
s(lp948
tp949
a(S'da'
p950
(dp951
S'PRT'
p952
F4e-06
sS'CONJ'
p953
F0.999979
sS'VERB'
p954
F1.7e-05
sg718
F1e-06
s(lp955
(g7
I0
tp956
atp957
a(S'je'
p958
(dp959
S'PRON'
p960
F0.00154
sS'VERB'
p961
F0.99846
sg718
F0.0
s(lp962
(g77
I7
tp963
atp964
a(S'treba'
p965
(dp966
S'ADV'
p967
F1.0
s(lp968
(g85
I8
tp969
atp970
a(S'za\xc5\xa1\xc4\x8dititi'
p971
(dp972
S'VERB'
p973
F1.0
s(lp974
(g94
I9
tp975
atp976
a(S'na\xc4\x8delo'
p977
(dp978
S'NOUN'
p979
F1.0
s(lp980
(g33
I3
tp981
atp982
a(g43
(dp983
g45
F1.0
s(lp984
(g43
I10
tp985
atp986
a(S'in'
p987
(dp988
S'ADV'
p989
F0.000421
sg718
F1.4e-05
sS'CONJ'
p990
F0.999491
sS'NOUN'
p991
F7.4e-05
s(lp992
tp993
a(S'sicer'
p994
(dp995
S'PRT'
p996
F0.507435
sS'CONJ'
p997
F0.492565
s(lp998
(g100
I11
tp999
atp1000
a(S'je'
p1001
(dp1002
S'PRON'
p1003
F0.00252
sS'VERB'
p1004
F0.9974770000000001
sg718
F3e-06
s(lp1005
(g131
I15
tp1006
atp1007
a(S'treba'
p1008
(dp1009
S'ADV'
p1010
F1.0
s(lp1011
(g139
I16
tp1012
atp1013
a(S'nove'
p1014
(dp1015
g718
F4e-06
sS'ADJ'
p1016
F0.9999970000000001
s(lp1017
(g115
I13
tp1018
atp1019
a(S'politike'
p1020
(dp1021
S'NOUN'
p1022
F0.999999
s(lp1023
(g124
I14
tp1024
atp1025
a(S'financirati'
p1026
(dp1027
S'VERB'
p1028
F1.0
s(lp1029
(g146
I17
tp1030
atp1031
a(S'iz'
p1032
(dp1033
g718
F2.5e-05
sS'ADP'
p1034
F0.999975
s(lp1035
(g154
I18
tp1036
atp1037
a(S'novih'
p1038
(dp1039
S'ADJ'
p1040
F1.0
s(lp1041
(g167
I19
tp1042
atp1043
a(S'virov'
p1044
(dp1045
S'NOUN'
p1046
F1.0
s(lp1047
(g175
I20
tp1048
atp1049
a(g45
(dp1050
g45
F1.0
s(lp1051
(g45
I21
tp1052
atp1053
asS'es'
p1054
(lp1055
(S'existe'
p1056
(dp1057
S'VERB'
p1058
F1.0
s(lp1059
(g7
I0
tp1060
atp1061
a(S'un'
p1062
(dp1063
g718
F1e-06
sS'DET'
p1064
F0.999999
s(lp1065
(g15
I2
tp1066
atp1067
a(S'principio'
p1068
(dp1069
S'NOUN'
p1070
F1.0
s(lp1071
(g33
I3
tp1072
atp1073
a(S'que'
p1074
(dp1075
g718
F8e-06
sS'CONJ'
p1076
F0.999992
s(lp1077
(g40
I4
tp1078
atp1079
a(g43
(dp1080
g45
F1.0
s(lp1081
(g53
I5
tp1082
atp1083
a(S'insistimos'
p1084
(dp1085
S'VERB'
p1086
F1.0
s(lp1087
(g65
I6
tp1088
atp1089
a(g43
(dp1090
g45
F1.0
s(lp1091
tp1092
a(S'debe'
p1093
(dp1094
S'VERB'
p1095
F1.0
s(lp1096
(g77
I7
tp1097
atp1098
a(S'protegerse'
p1099
(dp1100
S'VERB'
p1101
F1.0
s(lp1102
(g94
I9
tp1103
atp1104
a(g43
(dp1105
g45
F1.0
s(lp1106
(g43
I10
tp1107
atp1108
a(S'es'
p1109
(dp1110
S'ADV'
p1111
F1.0
s(lp1112
tp1113
a(S'decir'
p1114
(dp1115
S'ADV'
p1116
F1.0
s(lp1117
(g100
I11
tp1118
atp1119
a(g97
(dp1120
g45
F1.0
s(lp1121
(g43
I12
tp1122
atp1123
a(S'las'
p1124
(dp1125
S'PRON'
p1126
F1.5e-05
sS'DET'
p1127
F0.999985
s(lp1128
tp1129
a(S'pol\xc3\xadticas'
p1130
(dp1131
S'ADJ'
p1132
F0.017276
sS'NOUN'
p1133
F0.982724
s(lp1134
(g124
I14
tp1135
atp1136
a(S'nuevas'
p1137
(dp1138
S'NOUN'
p1139
F0.002323
sS'ADJ'
p1140
F0.997677
s(lp1141
(g115
I13
tp1142
atp1143
a(S'deben'
p1144
(dp1145
S'VERB'
p1146
F1.0
s(lp1147
(g131
I15
tp1148
atp1149
a(S'financiarse'
p1150
(dp1151
S'VERB'
p1152
F1.0
s(lp1153
(g146
I17
tp1154
atp1155
a(S'con'
p1156
(dp1157
S'ADP'
p1158
F1.0
s(lp1159
(g154
I18
tp1160
atp1161
a(S'recursos'
p1162
(dp1163
S'NOUN'
p1164
F1.0
s(lp1165
(g175
I20
tp1166
atp1167
a(S'nuevos'
p1168
(dp1169
S'ADJ'
p1170
F1.0
s(lp1171
(g167
I19
tp1172
atp1173
a(g45
(dp1174
g45
F1.0
s(lp1175
(g45
I21
tp1176
atp1177
as.