(dp0
S'fr'
p1
(lp2
(S"j'"
p3
(dp4
S'ADJ'
p5
F0.10952
sS'X'
p6
F0.13611
sS'VERB'
p7
F0.004198999999999999
sS'NOUN'
p8
F0.750172
s(lp9
(S'i'
p10
I0
tp11
atp12
a(S'ai'
p13
(dp14
S'VERB'
p15
F1.0
s(lp16
tp17
a(S'vot\xc3\xa9'
p18
(dp19
S'VERB'
p20
F1.0
s(lp21
(S'voted'
p22
I1
tp23
atp24
a(S'en'
p25
(dp26
S'PRON'
p27
F0.000403
sS'ADP'
p28
F0.999597
s(lp29
(S'in'
p30
I2
tp31
atp32
a(S'faveur'
p33
(dp34
S'NOUN'
p35
F1.0
s(lp36
(S'favour'
p37
I3
tp38
atp39
a(S'de'
p40
(dp41
S'ADP'
p42
F1.0
s(lp43
(S'of'
p44
I4
tp45
atp46
a(S'la'
p47
(dp48
S'PRON'
p49
F1.2e-05
sS'DET'
p50
F0.999988
sS'NOUN'
p51
F0.0
s(lp52
(S'the'
p53
I5
tp54
atp55
a(S'r\xc3\xa9solution'
p56
(dp57
S'NOUN'
p58
F1.0
s(lp59
(S'resolution'
p60
I7
tp61
atp62
a(S'du'
p63
(dp64
S'ADP'
p65
F1.0
s(lp66
tp67
a(S'parlement'
p68
(dp69
S'NOUN'
p70
F1.0
s(lp71
(S'parliament'
p72
I6
tp73
atp74
a(S'car'
p75
(dp76
S'CONJ'
p77
F0.999345
sS'NOUN'
p78
F0.000655
s(lp79
(S'as'
p80
I8
tp81
atp82
a(S'je'
p83
(dp84
S'PRON'
p85
F1.0
s(lp86
(g10
I9
tp87
atp88
a(S'suis'
p89
(dp90
S'VERB'
p91
F1.0
s(lp92
(S'agree'
p93
I10
tp94
atp95
a(S"d'"
p96
(dp97
S'NOUN'
p98
F0.087886
sS'VERB'
p99
F0.7995690000000001
sS'ADJ'
p100
F0.112546
s(lp101
(g93
I10
tp102
atp103
a(S'accord'
p104
(dp105
S'NOUN'
p106
F1.0
s(lp107
(g93
I10
tp108
atp109
a(S'avec'
p110
(dp111
S'ADV'
p112
F0.004193
sS'ADP'
p113
F0.995807
s(lp114
tp115
a(S'le'
p116
(dp117
S'PRON'
p118
F0.100949
sS'DET'
p119
F0.899051
s(lp120
tp121
a(S'fait'
p122
(dp123
S'ADJ'
p124
F0.007782
sS'VERB'
p125
F0.108805
sS'NOUN'
p126
F0.883413
s(lp127
(g93
I10
tp128
atp129
a(S"qu'"
p130
(dp131
S'NOUN'
p132
F0.032215
sS'VERB'
p133
F0.328131
sS'ADJ'
p134
F0.639654
s(lp135
(S'that'
p136
I11
tp137
atp138
a(S'il'
p139
(dp140
S'PRON'
p141
F1.0
s(lp142
(S'it'
p143
I12
tp144
atp145
a(S'est'
p146
(dp147
S'VERB'
p148
F0.99998
sS'NOUN'
p149
F2e-05
s(lp150
(S'is'
p151
I13
tp152
atp153
a(S'capital'
p154
(dp155
S'NOUN'
p156
F0.085192
sS'ADJ'
p157
F0.914808
s(lp158
(S'vital'
p159
I14
tp160
atp161
a(S'que'
p162
(dp163
S'ADV'
p164
F0.006913
sS'PRON'
p165
F0.261038
sS'CONJ'
p166
F0.732049
s(lp167
(S'that'
p168
I15
tp169
atp170
a(S"l'"
p171
(dp172
S'NOUN'
p173
F0.042556
sS'VERB'
p174
F0.9118219999999999
sS'ADJ'
p175
F0.045622
s(lp176
(S'the'
p177
I16
tp178
atp179
a(S'union'
p180
(dp181
S'NOUN'
p182
F1.0
s(lp183
tp184
a(S'europ\xc3\xa9enne'
p185
(dp186
S'NOUN'
p187
F0.357148
sS'ADJ'
p188
F0.642852
s(lp189
(S'eu'
p190
I17
tp191
atp192
a(S'puisse'
p193
(dp194
S'VERB'
p195
F1.0
s(lp196
(S'able'
p197
I19
tp198
atp199
a(S'd\xc3\xa9ployer'
p200
(dp201
S'VERB'
p202
F1.0
s(lp203
(S'use'
p204
I21
tp205
atp206
a(S'toute'
p207
(dp208
S'ADV'
p209
F0.001397
sS'PRON'
p210
F0.998603
s(lp211
(S'all'
p212
I22
tp213
atp214
a(S'la'
p215
(dp216
S'PRON'
p217
F1.2e-05
sS'DET'
p218
F0.999987
sS'NOUN'
p219
F1e-06
s(lp220
(S'its'
p221
I49
tp222
atp223
a(S'gamme'
p224
(dp225
S'NOUN'
p226
F1.0
s(lp227
(S'initial'
p228
I50
tp229
atp230
a(S'de'
p231
(dp232
S'ADP'
p233
F1.0
s(lp234
(S'of'
p235
I23
tp236
atp237
a(S'ses'
p238
(dp239
S'PRON'
p240
F1.0
s(lp241
(S'its'
p242
I24
tp243
atp244
a(S'instruments'
p245
(dp246
S'NOUN'
p247
F1.0
s(lp248
(S'instruments'
p249
I26
tp250
atp251
a(S'externes'
p252
(dp253
S'NOUN'
p254
F0.017214
sS'ADJ'
p255
F0.982786
s(lp256
(S'external'
p257
I25
tp258
atp259
a(S'dans'
p260
(dp261
S'NOUN'
p262
F8.6e-05
sS'ADP'
p263
F0.999914
s(lp264
(S'within'
p265
I27
tp266
atp267
a(S'une'
p268
(dp269
S'NOUN'
p270
F2.7e-05
sS'NUM'
p271
F0.024746
sS'DET'
p272
F0.975227
s(lp273
(S'a'
p274
I28
tp275
atp276
a(S'structure'
p277
(dp278
S'VERB'
p279
F0.00015
sS'NOUN'
p280
F0.99985
s(lp281
(S'structure'
p282
I30
tp283
atp284
a(S'coh\xc3\xa9rente'
p285
(dp286
S'ADJ'
p287
F1.0
s(lp288
(S'coherent'
p289
I29
tp290
atp291
a(S','
p292
(dp293
S'.'
p294
F1.0
s(lp295
(g292
I31
tp296
atp297
a(S'et'
p298
(dp299
S'CONJ'
p300
F1.0
s(lp301
(S'and'
p302
I32
tp303
atp304
a(S'que'
p305
(dp306
S'ADV'
p307
F0.008059
sS'PRON'
p308
F0.083867
sS'CONJ'
p309
F0.908074
s(lp310
(S'that'
p311
I33
tp312
atp313
a(S'ce'
p314
(dp315
S'PRON'
p316
F1.0
s(lp317
(S'this'
p318
I58
tp319
atp320
a(S'rapport'
p321
(dp322
S'NOUN'
p323
F1.0
s(lp324
(S'report'
p325
I59
tp326
atp327
a(g274
(dp328
S'VERB'
p329
F1.0
s(lp330
(S'is'
p331
I53
tp332
atp333
a(S'pour'
p334
(dp335
S'CONJ'
p336
F0.026771
sS'ADP'
p337
F0.973229
s(lp338
(S'order'
p339
I42
tp340
atp341
a(S'objectif'
p342
(dp343
S'ADJ'
p344
F0.341003
sS'NOUN'
p345
F0.658997
s(lp346
(S'purpose'
p347
I56
tp348
atp349
a(S'politique'
p350
(dp351
S'NOUN'
p352
F0.256736
sS'VERB'
p353
F0.022116
sS'ADJ'
p354
F0.721147
s(lp355
(S'political'
p356
I55
tp357
atp358
a(S"l'"
p359
(dp360
S'ADJ'
p361
F0.094109
sS'VERB'
p362
F0.4647259999999999
sS'NOUN'
p363
F0.441164
s(lp364
(S'the'
p365
I34
tp366
atp367
a(S'affectation'
p368
(dp369
S'NOUN'
p370
F1.0
s(lp371
(S'provision'
p372
I35
tp373
atp374
a(S'de'
p375
(dp376
S'ADP'
p377
F1.0
s(lp378
(S'of'
p379
I36
tp380
atp381
a(S'ressources'
p382
(dp383
S'VERB'
p384
F0.000291
sS'NOUN'
p385
F0.999709
s(lp386
(S'resources'
p387
I38
tp388
atp389
a(S'budg\xc3\xa9taires'
p390
(dp391
S'ADJ'
p392
F1.0
s(lp393
(S'budgetary'
p394
I37
tp395
atp396
a(S'en'
p397
(dp398
S'PRON'
p399
F1e-06
sS'ADP'
p400
F0.999999
s(lp401
(S'in'
p402
I39
tp403
atp404
a(S'2010'
p405
(dp406
g6
F0.001233
sS'NUM'
p407
F0.998767
s(lp408
(S'2010'
p409
I40
tp410
atp411
a(S'\xc3\xa0'
p412
(dp413
S'ADP'
p414
F1.0
s(lp415
(S'in'
p416
I41
tp417
atp418
a(S'la'
p419
(dp420
S'PRON'
p421
F1.2e-05
sS'DET'
p422
F0.999988
sS'NOUN'
p423
F0.0
s(lp424
(S'the'
p425
I54
tp426
atp427
a(S'cr\xc3\xa9ation'
p428
(dp429
S'NOUN'
p430
F1.0
s(lp431
(S'establish'
p432
I44
tp433
atp434
a(S'de'
p435
(dp436
S'ADP'
p437
F1.0
s(lp438
(S'to'
p439
I43
tp440
atp441
a(S'cette'
p442
(dp443
S'PRON'
p444
F1.0
s(lp445
(S'this'
p446
I45
tp447
atp448
a(S'structure'
p449
(dp450
S'VERB'
p451
F0.021447
sS'NOUN'
p452
F0.978554
s(lp453
(S'structure'
p454
I46
tp455
atp456
a(g294
(dp457
g294
F1.0
s(lp458
(g294
I60
tp459
atp460
asS'en'
p461
(lp462
(g10
(dp463
g6
F0.006032
sS'NOUN'
p464
F0.9939680000000001
s(lp465
(g10
I0
tp466
atp467
a(g22
(dp468
S'VERB'
p469
F1.0
s(lp470
(g22
I1
tp471
atp472
a(g30
(dp473
S'ADV'
p474
F0.001642
sS'PRT'
p475
F0.007631
sS'ADP'
p476
F0.990727
s(lp477
(g30
I2
tp478
atp479
a(g37
(dp480
S'VERB'
p481
F0.002253
sS'NOUN'
p482
F0.997747
s(lp483
(g37
I3
tp484
atp485
a(g44
(dp486
S'ADP'
p487
F1.0
s(lp488
(g44
I4
tp489
atp490
a(g53
(dp491
S'NOUN'
p492
F1e-06
sS'DET'
p493
F0.999999
s(lp494
(g53
I5
tp495
atp496
a(g72
(dp497
S'NOUN'
p498
F1.0
s(lp499
(g72
I6
tp500
atp501
a(g60
(dp502
S'NOUN'
p503
F1.0
s(lp504
(g60
I7
tp505
atp506
a(g80
(dp507
S'ADV'
p508
F0.008509
sS'ADP'
p509
F0.991491
s(lp510
(g80
I8
tp511
atp512
a(g10
(dp513
g6
F0.00343
sS'NOUN'
p514
F0.99657
s(lp515
(g10
I9
tp516
atp517
a(g93
(dp518
S'VERB'
p519
F1.0
s(lp520
(g93
I10
tp521
atp522
a(g136
(dp523
S'ADV'
p524
F0.000192
sS'DET'
p525
F0.0063950000000000005
sS'ADP'
p526
F0.993413
s(lp527
(g136
I11
tp528
atp529
a(g143
(dp530
S'PRON'
p531
F1.0
s(lp532
(g143
I12
tp533
atp534
a(g151
(dp535
S'VERB'
p536
F1.0
s(lp537
(g151
I13
tp538
atp539
a(g159
(dp540
S'ADJ'
p541
F1.0
s(lp542
(g159
I14
tp543
atp544
a(g168
(dp545
S'ADV'
p546
F0.000297
sS'DET'
p547
F5.9e-05
sS'ADP'
p548
F0.999644
s(lp549
(g168
I15
tp550
atp551
a(g177
(dp552
S'NOUN'
p553
F4e-06
sS'DET'
p554
F0.999996
s(lp555
(g177
I16
tp556
atp557
a(g190
(dp558
S'ADV'
p559
F6.1e-05
sS'ADJ'
p560
F0.000269
sS'VERB'
p561
F5.599999999999999e-05
sS'NOUN'
p562
F0.999615
s(lp563
(g190
I17
tp564
atp565
a(S'is'
p566
(dp567
S'VERB'
p568
F1.0
s(lp569
(g566
I18
tp570
atp571
a(g197
(dp572
S'ADJ'
p573
F1.0
s(lp574
(g197
I19
tp575
atp576
a(S'to'
p577
(dp578
S'ADV'
p579
F0.0
sS'PRT'
p580
F1.0
sS'ADP'
p581
F0.0
s(lp582
(g577
I20
tp583
atp584
a(g204
(dp585
S'VERB'
p586
F0.998256
sS'NOUN'
p587
F0.001744
s(lp588
(g204
I21
tp589
atp590
a(g212
(dp591
S'ADV'
p592
F0.352355
sS'DET'
p593
F0.647645
s(lp594
(g212
I22
tp595
atp596
a(g235
(dp597
S'ADP'
p598
F1.0
s(lp599
(g235
I23
tp600
atp601
a(g242
(dp602
S'PRON'
p603
F1.0
s(lp604
(g242
I24
tp605
atp606
a(g257
(dp607
S'ADJ'
p608
F1.0
s(lp609
(g257
I25
tp610
atp611
a(g249
(dp612
S'NOUN'
p613
F1.0
s(lp614
(g249
I26
tp615
atp616
a(g265
(dp617
S'ADV'
p618
F0.000102
sS'ADP'
p619
F0.999898
s(lp620
(g265
I27
tp621
atp622
a(g274
(dp623
S'NOUN'
p624
F0.0
sS'DET'
p625
F1.0
s(lp626
(g274
I28
tp627
atp628
a(g289
(dp629
S'ADJ'
p630
F1.0
s(lp631
(g289
I29
tp632
atp633
a(g282
(dp634
S'VERB'
p635
F1.4e-05
sS'NOUN'
p636
F0.999986
s(lp637
(g282
I30
tp638
atp639
a(g292
(dp640
g294
F1.0
s(lp641
(g292
I31
tp642
atp643
a(g302
(dp644
S'CONJ'
p645
F0.999992
sS'NOUN'
p646
F8e-06
s(lp647
(g302
I32
tp648
atp649
a(g311
(dp650
S'ADV'
p651
F0.007031
sS'DET'
p652
F0.021384999999999998
sS'ADP'
p653
F0.971584
s(lp654
(g311
I33
tp655
atp656
a(g365
(dp657
S'NOUN'
p658
F6e-06
sS'DET'
p659
F0.999994
s(lp660
(g365
I34
tp661
atp662
a(g372
(dp663
S'VERB'
p664
F9.999999999999999e-06
sS'NOUN'
p665
F0.99999
s(lp666
(g372
I35
tp667
atp668
a(g379
(dp669
S'ADP'
p670
F1.0
s(lp671
(g379
I36
tp672
atp673
a(g394
(dp674
S'ADJ'
p675
F1.0
s(lp676
(g394
I37
tp677
atp678
a(g387
(dp679
S'NOUN'
p680
F1.0
s(lp681
(g387
I38
tp682
atp683
a(g402
(dp684
S'ADV'
p685
F0.001704
sS'PRT'
p686
F0.000178
sS'ADP'
p687
F0.998118
s(lp688
(g402
I39
tp689
atp690
a(g409
(dp691
S'ADV'
p692
F0.000139
sS'NOUN'
p693
F0.000891
sS'NUM'
p694
F0.997991
sS'ADJ'
p695
F0.000979
sg6
F0.0
s(lp696
(g409
I40
tp697
atp698
a(g416
(dp699
S'ADV'
p700
F0.000234
sS'PRT'
p701
F0.001631
sS'ADP'
p702
F0.998136
s(lp703
(g416
I41
tp704
atp705
a(g339
(dp706
S'VERB'
p707
F0.000682
sS'NOUN'
p708
F0.999318
s(lp709
(g339
I42
tp710
atp711
a(g439
(dp712
S'ADV'
p713
F0.0
sS'PRT'
p714
F1.0
sS'ADP'
p715
F0.0
s(lp716
(g439
I43
tp717
atp718
a(g432
(dp719
S'VERB'
p720
F1.0
s(lp721
(g432
I44
tp722
atp723
a(g446
(dp724
S'ADV'
p725
F1.1e-05
sS'NOUN'
p726
F1.4e-05
sS'DET'
p727
F0.999975
s(lp728
(g446
I45
tp729
atp730
a(g454
(dp731
S'VERB'
p732
F6.4e-05
sS'NOUN'
p733
F0.999936
s(lp734
(g454
I46
tp735
atp736
a(g292
(dp737
g294
F1.0
s(lp738
(g292
I47
tp739
atp740
a(S'in'
p741
(dp742
S'ADV'
p743
F0.000997
sS'PRT'
p744
F1e-06
sS'ADP'
p745
F0.999002
s(lp746
(g741
I48
tp747
atp748
a(g221
(dp749
S'PRON'
p750
F1.0
s(lp751
(g221
I49
tp752
atp753
a(g228
(dp754
S'NOUN'
p755
F0.003742
sS'VERB'
p756
F0.0
sS'ADJ'
p757
F0.996258
s(lp758
(g228
I50
tp759
atp760
a(S'phase'
p761
(dp762
S'VERB'
p763
F6.2e-05
sS'NOUN'
p764
F0.999938
s(lp765
(g761
I51
tp766
atp767
a(g292
(dp768
g294
F1.0
s(lp769
(g292
I52
tp770
atp771
a(g331
(dp772
S'VERB'
p773
F1.0
s(lp774
(g331
I53
tp775
atp776
a(g425
(dp777
S'NOUN'
p778
F0.0
sS'DET'
p779
F1.0
s(lp780
(g425
I54
tp781
atp782
a(g356
(dp783
S'ADJ'
p784
F1.0
s(lp785
(g356
I55
tp786
atp787
a(g347
(dp788
S'VERB'
p789
F1.6e-05
sS'NOUN'
p790
F0.999984
s(lp791
(g347
I56
tp792
atp793
a(S'of'
p794
(dp795
S'ADP'
p796
F1.0
s(lp797
(g794
I57
tp798
atp799
a(g318
(dp800
S'ADV'
p801
F5e-06
sS'NOUN'
p802
F1.9e-05
sS'DET'
p803
F0.999976
s(lp804
(g318
I58
tp805
atp806
a(g325
(dp807
S'VERB'
p808
F0.001074
sS'NOUN'
p809
F0.998926
s(lp810
(g325
I59
tp811
atp812
a(g294
(dp813
g294
F1.0
s(lp814
(g294
I60
tp815
atp816
asS'nl'
p817
(lp818
(S'ik'
p819
(dp820
S'PRON'
p821
F0.999981
sS'NOUN'
p822
F1.9e-05
s(lp823
(g10
I0
tp824
atp825
a(S'heb'
p826
(dp827
S'VERB'
p828
F1.0
s(lp829
tp830
a(S'voor'
p831
(dp832
S'ADV'
p833
F0.013671
sS'CONJ'
p834
F2e-05
sS'NOUN'
p835
F0.0
sS'ADP'
p836
F0.986309
s(lp837
(g37
I3
tp838
atp839
a(S'de'
p840
(dp841
S'DET'
p842
F1.0
s(lp843
(g53
I5
tp844
atp845
a(S'resolutie'
p846
(dp847
S'NOUN'
p848
F1.0
s(lp849
(g60
I7
tp850
atp851
a(S'van'
p852
(dp853
S'ADP'
p854
F1.0
s(lp855
(g44
I4
tp856
atp857
a(S'het'
p858
(dp859
S'PRON'
p860
F0.000927
sS'DET'
p861
F0.999073
s(lp862
tp863
a(S'parlement'
p864
(dp865
S'NOUN'
p866
F1.0
s(lp867
(g72
I6
tp868
atp869
a(S'gestemd'
p870
(dp871
S'VERB'
p872
F0.970571
sS'ADJ'
p873
F0.029429
s(lp874
(g22
I1
tp875
atp876
a(S'omdat'
p877
(dp878
S'CONJ'
p879
F1.0
s(lp880
(g80
I8
tp881
atp882
a(S'ik'
p883
(dp884
S'PRON'
p885
F0.999999
sS'NOUN'
p886
F1e-06
s(lp887
(g10
I9
tp888
atp889
a(S'het'
p890
(dp891
S'PRON'
p892
F0.47475500000000004
sS'DET'
p893
F0.525245
s(lp894
(g93
I10
tp895
atp896
a(S'ermee'
p897
(dp898
S'ADV'
p899
F1.0
s(lp900
(g93
I10
tp901
atp902
a(S'eens'
p903
(dp904
S'ADV'
p905
F0.996284
sS'ADJ'
p906
F0.003716
s(lp907
tp908
a(S'ben'
p909
(dp910
S'VERB'
p911
F1.0
s(lp912
(g93
I10
tp913
atp914
a(S'dat'
p915
(dp916
S'PRON'
p917
F0.042407
sS'CONJ'
p918
F0.957593
s(lp919
(g136
I11
tp920
atp921
a(S'de'
p922
(dp923
S'DET'
p924
F1.0
s(lp925
(g177
I16
tp926
atp927
a(S'eu'
p928
(dp929
S'NOUN'
p930
F1.0
s(lp931
(g190
I17
tp932
atp933
a(S'absoluut'
p934
(dp935
S'ADJ'
p936
F1.0
s(lp937
(g159
I14
tp938
atp939
a(S'in'
p940
(dp941
S'ADV'
p942
F0.001201
sS'VERB'
p943
F3e-06
sS'ADP'
p944
F0.998796
s(lp945
(g30
I2
tp946
atp947
a(S'staat'
p948
(dp949
S'VERB'
p950
F2e-06
sS'NOUN'
p951
F0.999998
s(lp952
(g197
I19
tp953
atp954
a(S'moet'
p955
(dp956
S'VERB'
p957
F1.0
s(lp958
(g566
I18
tp959
atp960
a(S'zijn'
p961
(dp962
S'PRON'
p963
F0.000471
sS'VERB'
p964
F0.999406
sS'NOUN'
p965
F0.000123
s(lp966
(g151
I13
tp967
atp968
a(S'om'
p969
(dp970
S'ADV'
p971
F0.013466
sS'CONJ'
p972
F0.954051
sS'ADP'
p973
F0.032483
s(lp974
tp975
a(S'al'
p976
(dp977
S'ADV'
p978
F0.516088
sS'PRON'
p979
F0.00509
sS'CONJ'
p980
F0.478822
s(lp981
(g212
I22
tp982
atp983
a(S'haar'
p984
(dp985
S'ADV'
p986
F0.000355
sS'PRON'
p987
F0.999615
sS'NOUN'
p988
F3e-05
s(lp989
(g242
I24
tp990
atp991
a(S'externe'
p992
(dp993
S'NOUN'
p994
F0.00029
sS'ADJ'
p995
F0.99971
s(lp996
(g257
I25
tp997
atp998
a(S'instrumenten'
p999
(dp1000
S'NOUN'
p1001
F1.0
s(lp1002
(g249
I26
tp1003
atp1004
a(S'te'
p1005
(dp1006
S'PRT'
p1007
F1.0
s(lp1008
(g577
I20
tp1009
atp1010
a(S'gebruiken'
p1011
(dp1012
S'VERB'
p1013
F0.999977
sS'NOUN'
p1014
F2.2e-05
s(lp1015
(g204
I21
tp1016
atp1017
a(S'binnen'
p1018
(dp1019
S'ADV'
p1020
F7e-06
sS'ADP'
p1021
F0.999993
s(lp1022
(g265
I27
tp1023
atp1024
a(S'een'
p1025
(dp1026
S'ADJ'
p1027
F1e-06
sS'PRON'
p1028
F0.000518
sS'NUM'
p1029
F1e-06
sS'DET'
p1030
F0.999481
s(lp1031
(g274
I28
tp1032
atp1033
a(S'samenhangende'
p1034
(dp1035
S'NOUN'
p1036
F5.9e-05
sS'VERB'
p1037
F0.010696
sS'ADJ'
p1038
F0.989245
s(lp1039
(g289
I29
tp1040
atp1041
a(S'structuur'
p1042
(dp1043
S'NOUN'
p1044
F1.0
s(lp1045
(g282
I30
tp1046
atp1047
a(S'en'
p1048
(dp1049
S'CONJ'
p1050
F1.0
s(lp1051
(g302
I32
tp1052
atp1053
a(S'dat'
p1054
(dp1055
S'PRON'
p1056
F0.209403
sS'CONJ'
p1057
F0.790597
s(lp1058
(g311
I33
tp1059
atp1060
a(S'de'
p1061
(dp1062
S'DET'
p1063
F1.0
s(lp1064
(g365
I34
tp1065
atp1066
a(S'terbeschikkingstelling'
p1067
(dp1068
S'NOUN'
p1069
F1.0
s(lp1070
(g372
I35
tp1071
atp1072
a(S'in'
p1073
(dp1074
S'ADV'
p1075
F0.008398
sS'VERB'
p1076
F2e-06
sS'ADP'
p1077
F0.9916
s(lp1078
(g402
I39
tp1079
atp1080
a(S'2010'
p1081
(dp1082
S'NUM'
p1083
F1.0
s(lp1084
(g409
I40
tp1085
atp1086
a(S'van'
p1087
(dp1088
S'ADP'
p1089
F1.0
s(lp1090
(g379
I36
tp1091
atp1092
a(S'begrotingsmiddelen'
p1093
(dp1094
S'NOUN'
p1095
F1.0
s(lp1096
(g394
I37
tp1097
atp1098
a(S'voor'
p1099
(dp1100
S'ADV'
p1101
F0.002123
sS'CONJ'
p1102
F6e-06
sS'NOUN'
p1103
F0.0
sS'ADP'
p1104
F0.997871
s(lp1105
(g416
I41
tp1106
atp1107
a(S'de'
p1108
(dp1109
S'DET'
p1110
F1.0
s(lp1111
tp1112
a(S'oprichting'
p1113
(dp1114
S'NOUN'
p1115
F1.0
s(lp1116
(g432
I44
tp1117
atp1118
a(S'van'
p1119
(dp1120
S'ADP'
p1121
F1.0
s(lp1122
tp1123
a(S'deze'
p1124
(dp1125
S'PRON'
p1126
F1.0
s(lp1127
(g446
I45
tp1128
atp1129
a(S'structuur'
p1130
(dp1131
S'NOUN'
p1132
F1.0
s(lp1133
(g454
I46
tp1134
atp1135
a(S'in'
p1136
(dp1137
S'ADV'
p1138
F0.002576
sS'VERB'
p1139
F1e-06
sS'ADP'
p1140
F0.997423
s(lp1141
(g741
I48
tp1142
atp1143
a(S'haar'
p1144
(dp1145
S'ADV'
p1146
F0.0
sS'PRON'
p1147
F1.0
sS'NOUN'
p1148
F1e-06
s(lp1149
(g221
I49
tp1150
atp1151
a(S'beginfase'
p1152
(dp1153
S'NOUN'
p1154
F1.0
s(lp1155
(g228
I50
tp1156
atp1157
a(S'het'
p1158
(dp1159
S'PRON'
p1160
F0.004823
sS'DET'
p1161
F0.995177
s(lp1162
(g425
I54
tp1163
atp1164
a(S'politieke'
p1165
(dp1166
S'NOUN'
p1167
F0.000202
sS'ADJ'
p1168
F0.999798
s(lp1169
(g356
I55
tp1170
atp1171
a(S'doel'
p1172
(dp1173
S'VERB'
p1174
F0.000166
sS'NOUN'
p1175
F0.999834
s(lp1176
(g347
I56
tp1177
atp1178
a(S'van'
p1179
(dp1180
S'ADP'
p1181
F1.0
s(lp1182
(g794
I57
tp1183
atp1184
a(S'dit'
p1185
(dp1186
S'PRON'
p1187
F1.0
s(lp1188
(g318
I58
tp1189
atp1190
a(S'verslag'
p1191
(dp1192
S'NOUN'
p1193
F1.0
s(lp1194
(g325
I59
tp1195
atp1196
a(S'is'
p1197
(dp1198
S'VERB'
p1199
F1.0
s(lp1200
(g331
I53
tp1201
atp1202
a(g294
(dp1203
g294
F1.0
s(lp1204
(g294
I60
tp1205
atp1206
asS'de'
p1207
(lp1208
(S'ich'
p1209
(dp1210
S'PRON'
p1211
F1.0
s(lp1212
(g10
I0
tp1213
atp1214
a(S'habe'
p1215
(dp1216
S'VERB'
p1217
F1.0
s(lp1218
tp1219
a(S'f\xc3\xbcr'
p1220
(dp1221
S'ADP'
p1222
F1.0
s(lp1223
(g37
I3
tp1224
atp1225
a(S'die'
p1226
(dp1227
S'PRON'
p1228
F5.2e-05
sS'DET'
p1229
F0.999933
s(lp1230
(g53
I5
tp1231
atp1232
a(S'entschlie\xc3\x9fung'
p1233
(dp1234
S'ADJ'
p1235
F9.3e-05
sS'NOUN'
p1236
F0.999847
s(lp1237
(g60
I7
tp1238
atp1239
a(S'des'
p1240
(dp1241
S'DET'
p1242
F1.0
s(lp1243
(g44
I4
tp1244
atp1245
a(S'parlaments'
p1246
(dp1247
S'ADJ'
p1248
F0.040947
sS'NOUN'
p1249
F0.943301
s(lp1250
(g72
I6
tp1251
atp1252
a(S'gestimmt'
p1253
(dp1254
S'VERB'
p1255
F1.0
s(lp1256
(g22
I1
tp1257
atp1258
a(g292
(dp1259
g294
F1.0
s(lp1260
tp1261
a(S'da'
p1262
(dp1263
S'ADV'
p1264
F0.001925
sS'CONJ'
p1265
F0.998072
s(lp1266
(g80
I8
tp1267
atp1268
a(S'ich'
p1269
(dp1270
S'PRON'
p1271
F1.0
s(lp1272
(g10
I9
tp1273
atp1274
a(S'ebenfalls'
p1275
(dp1276
S'ADV'
p1277
F1.0
s(lp1278
(g93
I10
tp1279
atp1280
a(S'der'
p1281
(dp1282
S'PRON'
p1283
F0.000324
sS'DET'
p1284
F0.99967
s(lp1285
tp1286
a(S'meinung'
p1287
(dp1288
S'ADJ'
p1289
F0.042286
sS'NOUN'
p1290
F0.927614
s(lp1291
tp1292
a(S'bin'
p1293
(dp1294
S'VERB'
p1295
F1.0
s(lp1296
(g93
I10
tp1297
atp1298
a(g292
(dp1299
g294
F1.0
s(lp1300
tp1301
a(S'dass'
p1302
(dp1303
S'CONJ'
p1304
F1.0
s(lp1305
(g136
I11
tp1306
atp1307
a(S'die'
p1308
(dp1309
S'PRON'
p1310
F0.040124
sS'DET'
p1311
F0.958426
s(lp1312
(g177
I16
tp1313
atp1314
a(S'eu'
p1315
(dp1316
S'ADJ'
p1317
F0.331869
sS'NOUN'
p1318
F0.507136
s(lp1319
(g190
I17
tp1320
atp1321
a(S'in'
p1322
(dp1323
S'ADP'
p1324
F1.0
s(lp1325
tp1326
a(S'der'
p1327
(dp1328
S'PRON'
p1329
F1.7e-05
sS'DET'
p1330
F0.999977
s(lp1331
tp1332
a(S'lage'
p1333
(dp1334
S'ADJ'
p1335
F0.001141
sS'NOUN'
p1336
F0.99786
s(lp1337
(g197
I19
tp1338
atp1339
a(S'sein'
p1340
(dp1341
S'VERB'
p1342
F0.99965
s(lp1343
(g143
I12
tp1344
atp1345
a(S'muss'
p1346
(dp1347
S'VERB'
p1348
F1.0
s(lp1349
(g159
I14
tp1350
atp1351
a(g292
(dp1352
g294
F1.0
s(lp1353
(g168
I15
tp1354
atp1355
a(S'all'
p1356
(dp1357
S'PRON'
p1358
F0.998133
sg6
F0.001867
s(lp1359
(g212
I22
tp1360
atp1361
a(S'ihre'
p1362
(dp1363
S'PRON'
p1364
F1.0
s(lp1365
(g242
I24
tp1366
atp1367
a(S'au\xc3\x9fenpolitischen'
p1368
(dp1369
S'ADJ'
p1370
F1.0
s(lp1371
(g257
I25
tp1372
atp1373
a(S'instrumente'
p1374
(dp1375
S'VERB'
p1376
F1.7e-05
sS'NOUN'
p1377
F0.999958
s(lp1378
(g249
I26
tp1379
atp1380
a(S'im'
p1381
(dp1382
S'ADP'
p1383
F1.0
s(lp1384
tp1385
a(S'rahmen'
p1386
(dp1387
S'VERB'
p1388
F1.0
s(lp1389
(g265
I27
tp1390
atp1391
a(S'einer'
p1392
(dp1393
S'PRON'
p1394
F0.005969
sS'DET'
p1395
F0.993833
s(lp1396
(g274
I28
tp1397
atp1398
a(S'koh\xc3\xa4renten'
p1399
(dp1400
S'ADJ'
p1401
F1.0
s(lp1402
(g289
I29
tp1403
atp1404
a(S'struktur'
p1405
(dp1406
S'ADJ'
p1407
F0.002704
sS'NOUN'
p1408
F0.996672
s(lp1409
(g282
I30
tp1410
atp1411
a(S'zu'
p1412
(dp1413
S'PRT'
p1414
F0.999974
s(lp1415
(g577
I20
tp1416
atp1417
a(S'nutzen'
p1418
(dp1419
S'VERB'
p1420
F1.0
s(lp1421
(g204
I21
tp1422
atp1423
a(g292
(dp1424
g294
F1.0
s(lp1425
(g292
I31
tp1426
atp1427
a(S'und'
p1428
(dp1429
S'CONJ'
p1430
F1.0
s(lp1431
(g302
I32
tp1432
atp1433
a(S'dass'
p1434
(dp1435
S'CONJ'
p1436
F1.0
s(lp1437
(g311
I33
tp1438
atp1439
a(S'die'
p1440
(dp1441
S'PRON'
p1442
F0.000849
sS'DET'
p1443
F0.99902
s(lp1444
(g365
I34
tp1445
atp1446
a(S'bereitstellung'
p1447
(dp1448
S'ADJ'
p1449
F0.000138
sS'NOUN'
p1450
F0.99972
s(lp1451
(g372
I35
tp1452
atp1453
a(S'von'
p1454
(dp1455
S'NOUN'
p1456
F0.001101
sS'ADP'
p1457
F0.998899
s(lp1458
(g379
I36
tp1459
atp1460
a(S'haushaltsmitteln'
p1461
(dp1462
S'VERB'
p1463
F0.000549
sS'NOUN'
p1464
F0.998879
s(lp1465
(g394
I37
tp1466
atp1467
a(S'im'
p1468
(dp1469
S'ADP'
p1470
F1.0
s(lp1471
(g402
I39
tp1472
atp1473
a(S'jahre'
p1474
(dp1475
S'ADJ'
p1476
F0.002892
sS'NOUN'
p1477
F0.997033
s(lp1478
tp1479
a(S'2010'
p1480
(dp1481
S'ADV'
p1482
F0.033822
sS'NUM'
p1483
F0.958039
s(lp1484
(g409
I40
tp1485
atp1486
a(S'zur'
p1487
(dp1488
S'ADP'
p1489
F1.0
s(lp1490
(g339
I42
tp1491
atp1492
a(S'errichtung'
p1493
(dp1494
S'ADJ'
p1495
F4e-05
sS'NOUN'
p1496
F0.999914
s(lp1497
(g432
I44
tp1498
atp1499
a(S'dieser'
p1500
(dp1501
S'PRON'
p1502
F1.0
s(lp1503
(g446
I45
tp1504
atp1505
a(S'struktur'
p1506
(dp1507
S'ADJ'
p1508
F0.016688
sS'NOUN'
p1509
F0.975594
s(lp1510
(g454
I46
tp1511
atp1512
a(S'in'
p1513
(dp1514
S'ADP'
p1515
F1.0
s(lp1516
(g741
I48
tp1517
atp1518
a(S'ihrer'
p1519
(dp1520
S'PRON'
p1521
F1.0
s(lp1522
(g221
I49
tp1523
atp1524
a(S'anfangsphase'
p1525
(dp1526
S'ADJ'
p1527
F5.3e-05
sS'NOUN'
p1528
F0.999909
s(lp1529
(g228
I50
tp1530
atp1531
a(S'die'
p1532
(dp1533
S'PRON'
p1534
F0.000281
sS'DET'
p1535
F0.999696
s(lp1536
(g425
I54
tp1537
atp1538
a(S'politische'
p1539
(dp1540
S'ADJ'
p1541
F1.0
s(lp1542
(g356
I55
tp1543
atp1544
a(S'absicht'
p1545
(dp1546
S'VERB'
p1547
F2.8e-05
sS'NOUN'
p1548
F0.999952
s(lp1549
(g347
I56
tp1550
atp1551
a(S'dieses'
p1552
(dp1553
S'PRON'
p1554
F1.0
s(lp1555
(g318
I58
tp1556
atp1557
a(S'berichts'
p1558
(dp1559
S'NOUN'
p1560
F0.9996769999999999
s(lp1561
(g325
I59
tp1562
atp1563
a(S'ist'
p1564
(dp1565
S'VERB'
p1566
F1.0
s(lp1567
(g331
I53
tp1568
atp1569
a(g294
(dp1570
g294
F1.0
s(lp1571
(g294
I60
tp1572
atp1573
asS'it'
p1574
(lp1575
(S'ho'
p1576
(dp1577
S'VERB'
p1578
F1.0
s(lp1579
(g10
I0
tp1580
atp1581
a(S'votato'
p1582
(dp1583
S'VERB'
p1584
F0.990109
sS'ADJ'
p1585
F0.009891
s(lp1586
(g22
I1
tp1587
atp1588
a(g274
(dp1589
S'CONJ'
p1590
F7.6e-05
sS'ADP'
p1591
F0.999924
s(lp1592
(g30
I2
tp1593
atp1594
a(S'favore'
p1595
(dp1596
S'NOUN'
p1597
F1.0
s(lp1598
(g37
I3
tp1599
atp1600
a(S'della'
p1601
(dp1602
S'DEF'
p1603
F0.001587
sS'ADP'
p1604
F0.998413
s(lp1605
(g44
I4
tp1606
atp1607
a(S'risoluzione'
p1608
(dp1609
S'NOUN'
p1610
F1.0
s(lp1611
(g60
I7
tp1612
atp1613
a(S'del'
p1614
(dp1615
S'DEF'
p1616
F0.001247
sS'ADP'
p1617
F0.998753
s(lp1618
(g53
I5
tp1619
atp1620
a(S'parlamento'
p1621
(dp1622
S'VERB'
p1623
F0.000138
sS'NOUN'
p1624
F0.999862
s(lp1625
(g72
I6
tp1626
atp1627
a(S'poich\xc3\xa9'
p1628
(dp1629
S'CONJ'
p1630
F1.0
s(lp1631
(g80
I8
tp1632
atp1633
a(S"anch'"
p1634
(dp1635
S'NOUN'
p1636
F0.159898
sS'VERB'
p1637
F0.036426
sS'ADJ'
p1638
F0.803675
s(lp1639
(g10
I9
tp1640
atp1641
a(S'io'
p1642
(dp1643
S'PRON'
p1644
F1.0
s(lp1645
tp1646
a(S'credo'
p1647
(dp1648
S'VERB'
p1649
F0.992708
sS'NOUN'
p1650
F0.007292
s(lp1651
(g10
I9
tp1652
atp1653
a(S'sia'
p1654
(dp1655
S'CONJ'
p1656
F0.331817
sS'VERB'
p1657
F0.668183
s(lp1658
(g151
I13
tp1659
atp1660
a(S'fondamentale'
p1661
(dp1662
S'ADJ'
p1663
F1.0
s(lp1664
(g159
I14
tp1665
atp1666
a(S'che'
p1667
(dp1668
S'PRON'
p1669
F0.563362
sS'CONJ'
p1670
F0.436448
sS'ADJ'
p1671
F0.00019
s(lp1672
(g168
I15
tp1673
atp1674
a(S"l'"
p1675
(dp1676
S'NOUN'
p1677
F0.001597
sS'VERB'
p1678
F0.990493
sS'ADJ'
p1679
F0.00791
s(lp1680
(g177
I16
tp1681
atp1682
a(S'unione'
p1683
(dp1684
S'NOUN'
p1685
F1.0
s(lp1686
tp1687
a(S'europea'
p1688
(dp1689
S'NOUN'
p1690
F0.001043
sS'ADJ'
p1691
F0.998957
s(lp1692
(g190
I17
tp1693
atp1694
a(S'possa'
p1695
(dp1696
S'VERB'
p1697
F0.999927
sS'NOUN'
p1698
F7.3e-05
s(lp1699
(g197
I19
tp1700
atp1701
a(S'utilizzare'
p1702
(dp1703
S'VERB'
p1704
F1.0
s(lp1705
(g204
I21
tp1706
atp1707
a(S'tutti'
p1708
(dp1709
S'PRON'
p1710
F0.766225
sS'ADJ'
p1711
F0.233775
s(lp1712
(g212
I22
tp1713
atp1714
a(g10
(dp1715
S'DET'
p1716
F1.0
s(lp1717
tp1718
a(S'propri'
p1719
(dp1720
S'ADJ'
p1721
F1.0
s(lp1722
(g242
I24
tp1723
atp1724
a(S'strumenti'
p1725
(dp1726
S'VERB'
p1727
F0.014278
sS'NOUN'
p1728
F0.985721
s(lp1729
(g249
I26
tp1730
atp1731
a(S'esterni'
p1732
(dp1733
S'NOUN'
p1734
F0.002573
sS'VERB'
p1735
F0.022476
sS'ADJ'
p1736
F0.974952
s(lp1737
(g257
I25
tp1738
atp1739
a(S"nell'"
p1740
(dp1741
S'ADJ'
p1742
F0.000997
sS'VERB'
p1743
F0.0011049999999999999
sS'NOUN'
p1744
F0.997898
s(lp1745
tp1746
a(S'ambito'
p1747
(dp1748
S'ADJ'
p1749
F0.021716
sS'VERB'
p1750
F0.321072
sS'NOUN'
p1751
F0.657212
s(lp1752
(g265
I27
tp1753
atp1754
a(S'di'
p1755
(dp1756
S'CONJ'
p1757
F1.3e-05
sS'ADP'
p1758
F0.999987
s(lp1759
tp1760
a(S'una'
p1761
(dp1762
S'PRON'
p1763
F0.000165
sS'DEF'
p1764
F0.999835
s(lp1765
(g274
I28
tp1766
atp1767
a(S'struttura'
p1768
(dp1769
S'VERB'
p1770
F1.3000000000000001e-05
sS'NOUN'
p1771
F0.999987
s(lp1772
(g282
I30
tp1773
atp1774
a(S'coerente'
p1775
(dp1776
S'ADJ'
p1777
F1.0
s(lp1778
(g289
I29
tp1779
atp1780
a(g292
(dp1781
g294
F1.0
s(lp1782
(g292
I31
tp1783
atp1784
a(S'e'
p1785
(dp1786
S'CONJ'
p1787
F1.0
s(lp1788
(g302
I32
tp1789
atp1790
a(S'ritengo'
p1791
(dp1792
S'VERB'
p1793
F1.0
s(lp1794
(g143
I12
tp1795
atp1796
a(S'che'
p1797
(dp1798
S'PRON'
p1799
F0.86208
sS'CONJ'
p1800
F0.137494
sS'ADJ'
p1801
F0.000427
s(lp1802
(g136
I11
tp1803
atp1804
a(S"l'"
p1805
(dp1806
S'NOUN'
p1807
F0.00217
sS'VERB'
p1808
F0.9889040000000001
sS'ADJ'
p1809
F0.008924
s(lp1810
(g425
I54
tp1811
atp1812
a(S'intento'
p1813
(dp1814
S'ADJ'
p1815
F0.199345
sS'VERB'
p1816
F0.015205
sS'NOUN'
p1817
F0.78545
s(lp1818
(g347
I56
tp1819
atp1820
a(S'politico'
p1821
(dp1822
S'NOUN'
p1823
F0.025441
sS'ADJ'
p1824
F0.974559
s(lp1825
(g356
I55
tp1826
atp1827
a(S'della'
p1828
(dp1829
S'DEF'
p1830
F0.005828
sS'ADP'
p1831
F0.994172
s(lp1832
(g794
I57
tp1833
atp1834
a(S'presente'
p1835
(dp1836
S'NOUN'
p1837
F0.019817
sS'VERB'
p1838
F0.00186
sS'ADJ'
p1839
F0.978323
s(lp1840
(g318
I58
tp1841
atp1842
a(S'relazione'
p1843
(dp1844
S'NOUN'
p1845
F1.0
s(lp1846
(g325
I59
tp1847
atp1848
a(S'sia'
p1849
(dp1850
S'CONJ'
p1851
F0.991435
sS'VERB'
p1852
F0.008565
s(lp1853
(g331
I53
tp1854
atp1855
a(S'quello'
p1856
(dp1857
S'PRON'
p1858
F1.0
s(lp1859
(g311
I33
tp1860
atp1861
a(S'di'
p1862
(dp1863
S'CONJ'
p1864
F1e-06
sS'ADP'
p1865
F0.999999
s(lp1866
tp1867
a(S'mettere'
p1868
(dp1869
S'VERB'
p1870
F1.0
s(lp1871
tp1872
a(g274
(dp1873
S'CONJ'
p1874
F5.4e-05
sS'ADP'
p1875
F0.999946
s(lp1876
tp1877
a(S'disposizione'
p1878
(dp1879
S'NOUN'
p1880
F1.0
s(lp1881
(g372
I35
tp1882
atp1883
a(S'le'
p1884
(dp1885
S'PRON'
p1886
F0.000706
sS'DET'
p1887
F0.999294
s(lp1888
tp1889
a(S'risorse'
p1890
(dp1891
S'VERB'
p1892
F0.000385
sS'NOUN'
p1893
F0.999615
s(lp1894
(g387
I38
tp1895
atp1896
a(S'del'
p1897
(dp1898
S'DEF'
p1899
F0.001265
sS'ADP'
p1900
F0.998735
s(lp1901
(g379
I36
tp1902
atp1903
a(S'bilancio'
p1904
(dp1905
S'VERB'
p1906
F2e-06
sS'NOUN'
p1907
F0.999998
s(lp1908
(g394
I37
tp1909
atp1910
a(S'2010'
p1911
(dp1912
S'NUM'
p1913
F0.940449
sg294
F0.059551
s(lp1914
(g409
I40
tp1915
atp1916
a(S'per'
p1917
(dp1918
S'CONJ'
p1919
F0.006681
sS'ADP'
p1920
F0.993319
s(lp1921
(g339
I42
tp1922
atp1923
a(S'istituire'
p1924
(dp1925
S'VERB'
p1926
F1.0
s(lp1927
(g432
I44
tp1928
atp1929
a(S'tale'
p1930
(dp1931
S'PRON'
p1932
F0.998529
sS'CONJ'
p1933
F0.00141
sS'NOUN'
p1934
F6.2e-05
s(lp1935
(g446
I45
tp1936
atp1937
a(S'struttura'
p1938
(dp1939
S'VERB'
p1940
F0.018678
sS'NOUN'
p1941
F0.981323
s(lp1942
(g454
I46
tp1943
atp1944
a(g292
(dp1945
g294
F1.0
s(lp1946
(g292
I47
tp1947
atp1948
a(S'nella'
p1949
(dp1950
S'ADP'
p1951
F1.0
s(lp1952
(g741
I48
tp1953
atp1954
a(S'sua'
p1955
(dp1956
S'PRON'
p1957
F1.0
s(lp1958
(g221
I49
tp1959
atp1960
a(S'fase'
p1961
(dp1962
S'NOUN'
p1963
F1.0
s(lp1964
(g761
I51
tp1965
atp1966
a(S'iniziale'
p1967
(dp1968
S'NOUN'
p1969
F0.002029
sS'VERB'
p1970
F0.0
sS'ADJ'
p1971
F0.997971
s(lp1972
(g228
I50
tp1973
atp1974
a(g294
(dp1975
g294
F1.0
s(lp1976
(g294
I60
tp1977
atp1978
asS'sk'
p1979
(lp1980
(S'hlasovala'
p1981
(dp1982
S'VERB'
p1983
F1.0
s(lp1984
tp1985
a(S'som'
p1986
(dp1987
S'VERB'
p1988
F1.0
s(lp1989
(g22
I1
tp1990
atp1991
a(S'za'
p1992
(dp1993
S'PRT'
p1994
F0.000357
sS'ADP'
p1995
F0.999525
sg6
F0.000118
s(lp1996
(g37
I3
tp1997
atp1998
a(S'uznesenie'
p1999
(dp2000
S'NOUN'
p2001
F1.0
s(lp2002
(g60
I7
tp2003
atp2004
a(S'parlamentu'
p2005
(dp2006
S'NOUN'
p2007
F1.0
s(lp2008
(g72
I6
tp2009
atp2010
a(g292
(dp2011
g294
F1.0
s(lp2012
tp2013
a(S'preto\xc5\xbee'
p2014
(dp2015
S'CONJ'
p2016
F1.0
s(lp2017
(g80
I8
tp2018
atp2019
a(S's\xc3\xbahlas\xc3\xadm'
p2020
(dp2021
S'VERB'
p2022
F1.0
s(lp2023
(g93
I10
tp2024
atp2025
a(S's'
p2026
(dp2027
S'PRT'
p2028
F0.001801
sS'CONJ'
p2029
F2.7e-05
sS'NOUN'
p2030
F3e-06
sS'ADP'
p2031
F0.998118
sg6
F5.1e-05
s(lp2032
tp2033
a(S't\xc3\xbdm'
p2034
(dp2035
S'PRON'
p2036
F0.9999899999999999
sS'CONJ'
p2037
F1e-05
s(lp2038
(g93
I10
tp2039
atp2040
a(g292
(dp2041
g294
F1.0
s(lp2042
(g143
I12
tp2043
atp2044
a(S'\xc5\xbee'
p2045
(dp2046
g6
F0.0009
sS'CONJ'
p2047
F0.9991
s(lp2048
(g136
I11
tp2049
atp2050
a(S'pre'
p2051
(dp2052
g6
F0.000567
sS'ADP'
p2053
F0.999433
s(lp2054
(g177
I16
tp2055
atp2056
a(S'e\xc3\x9a'
p2057
(dp2058
S'ADV'
p2059
F0.011376
sS'ADJ'
p2060
F0.337981
sS'VERB'
p2061
F0.0
sS'NOUN'
p2062
F0.6481250000000001
sg6
F0.002516
s(lp2063
(g190
I17
tp2064
atp2065
a(S'm\xc3\xa1'
p2066
(dp2067
g6
F3.5e-05
sS'VERB'
p2068
F0.999965
s(lp2069
(g151
I13
tp2070
atp2071
a(S'k\xc4\xbe\xc3\xba\xc4\x8dov\xc3\xbd'
p2072
(dp2073
S'ADJ'
p2074
F1.0
s(lp2075
tp2076
a(S'v\xc3\xbdznam'
p2077
(dp2078
S'NOUN'
p2079
F1.0
s(lp2080
(g159
I14
tp2081
atp2082
a(S'to'
p2083
(dp2084
S'PRON'
p2085
F0.98134
sS'CONJ'
p2086
F0.002456
sg6
F0.016205
s(lp2087
(g168
I15
tp2088
atp2089
a(g292
(dp2090
g294
F1.0
s(lp2091
tp2092
a(S'aby'
p2093
(dp2094
g6
F4.9e-05
sS'CONJ'
p2095
F0.999951
s(lp2096
(g577
I20
tp2097
atp2098
a(S'bola'
p2099
(dp2100
S'VERB'
p2101
F0.9999999999999999
s(lp2102
(g566
I18
tp2103
atp2104
a(S'schopn\xc3\xa1'
p2105
(dp2106
S'ADJ'
p2107
F1.0
s(lp2108
(g197
I19
tp2109
atp2110
a(S'vyu\xc5\xbe\xc3\xadva\xc5\xa5'
p2111
(dp2112
S'VERB'
p2113
F1.0
s(lp2114
(g204
I21
tp2115
atp2116
a(S'v\xc5\xa1etky'
p2117
(dp2118
S'PRON'
p2119
F1.0
s(lp2120
(g212
I22
tp2121
atp2122
a(S'svoje'
p2123
(dp2124
S'PRON'
p2125
F1.0
s(lp2126
(g242
I24
tp2127
atp2128
a(S'vonkaj\xc5\xa1ie'
p2129
(dp2130
S'ADJ'
p2131
F1.0
s(lp2132
(g257
I25
tp2133
atp2134
a(S'n\xc3\xa1stroje'
p2135
(dp2136
S'NOUN'
p2137
F1.0
s(lp2138
(g249
I26
tp2139
atp2140
a(S'v'
p2141
(dp2142
g6
F0.000112
sS'ADP'
p2143
F0.999888
s(lp2144
tp2145
a(S'r\xc3\xa1mci'
p2146
(dp2147
S'NOUN'
p2148
F1.0
s(lp2149
(g265
I27
tp2150
atp2151
a(S'kompaktnej'
p2152
(dp2153
S'ADJ'
p2154
F1.0
s(lp2155
(g289
I29
tp2156
atp2157
a(S'\xc5\xa1trukt\xc3\xbary'
p2158
(dp2159
S'NOUN'
p2160
F1.0
s(lp2161
(g282
I30
tp2162
atp2163
a(g292
(dp2164
g294
F1.0
s(lp2165
(g292
I31
tp2166
atp2167
a(g274
(dp2168
g6
F0.00021999999999999998
sS'CONJ'
p2169
F0.999774
sS'NOUN'
p2170
F4.9999999999999996e-06
sS'ADP'
p2171
F0.0
sS'PRT'
p2172
F1e-06
s(lp2173
(g302
I32
tp2174
atp2175
a(S'\xc5\xbee'
p2176
(dp2177
g6
F0.001369
sS'CONJ'
p2178
F0.998631
s(lp2179
(g311
I33
tp2180
atp2181
a(S'poskytnutie'
p2182
(dp2183
S'NOUN'
p2184
F1.0
s(lp2185
(g372
I35
tp2186
atp2187
a(S'rozpo\xc4\x8dtov\xc3\xbdch'
p2188
(dp2189
S'ADJ'
p2190
F1.0
s(lp2191
(g394
I37
tp2192
atp2193
a(S'prostriedkov'
p2194
(dp2195
S'NOUN'
p2196
F1.0
s(lp2197
(g387
I38
tp2198
atp2199
a(S'na'
p2200
(dp2201
g6
F2.2e-05
sS'CONJ'
p2202
F1.8e-05
sS'ADP'
p2203
F0.999956
sS'PRT'
p2204
F4e-06
s(lp2205
(g402
I39
tp2206
atp2207
a(S'rok'
p2208
(dp2209
S'NOUN'
p2210
F1.0
s(lp2211
tp2212
a(S'2010'
p2213
(dp2214
S'NUM'
p2215
F1.0
s(lp2216
(g409
I40
tp2217
atp2218
a(S'na'
p2219
(dp2220
g6
F0.003446
sS'CONJ'
p2221
F4.3e-05
sS'ADP'
p2222
F0.996505
sS'PRT'
p2223
F6e-06
s(lp2224
(g439
I43
tp2225
atp2226
a(S'vytvorenie'
p2227
(dp2228
S'NOUN'
p2229
F1.0
s(lp2230
(g432
I44
tp2231
atp2232
a(S'takejto'
p2233
(dp2234
S'PRON'
p2235
F1.0
s(lp2236
(g446
I45
tp2237
atp2238
a(S'\xc5\xa1trukt\xc3\xbary'
p2239
(dp2240
S'NOUN'
p2241
F1.0
s(lp2242
(g454
I46
tp2243
atp2244
a(g2141
(dp2245
g6
F9.4e-05
sS'ADP'
p2246
F0.999906
s(lp2247
(g741
I48
tp2248
atp2249
a(S'jej'
p2250
(dp2251
S'PRON'
p2252
F1.0
sg6
F0.0
s(lp2253
(g221
I49
tp2254
atp2255
a(S'\xc3\xbavodnej'
p2256
(dp2257
S'ADJ'
p2258
F1.0
s(lp2259
(g228
I50
tp2260
atp2261
a(S'f\xc3\xa1ze'
p2262
(dp2263
S'NOUN'
p2264
F1.0
s(lp2265
(g761
I51
tp2266
atp2267
a(S'je'
p2268
(dp2269
S'PRON'
p2270
F3.7e-05
sS'VERB'
p2271
F0.999923
sg6
F4e-05
s(lp2272
(g331
I53
tp2273
atp2274
a(S'politick\xc3\xbdm'
p2275
(dp2276
S'ADJ'
p2277
F1.0
s(lp2278
(g356
I55
tp2279
atp2280
a(S'\xc3\xba\xc4\x8delom'
p2281
(dp2282
S'NOUN'
p2283
F1.0
s(lp2284
(g347
I56
tp2285
atp2286
a(S'tejto'
p2287
(dp2288
S'PRON'
p2289
F1.0
s(lp2290
(g318
I58
tp2291
atp2292
a(S'spr\xc3\xa1vy'
p2293
(dp2294
S'NOUN'
p2295
F1.0
s(lp2296
(g325
I59
tp2297
atp2298
a(g294
(dp2299
g294
F1.0
s(lp2300
(g294
I60
tp2301
atp2302
asS'pl'
p2303
(lp2304
(S'g\xc5\x82osowa\xc5\x82am'
p2305
(dp2306
S'ADV'
p2307
F0.000422
sS'ADJ'
p2308
F0.0009400000000000002
sS'VERB'
p2309
F0.978853
sS'NOUN'
p2310
F0.019786
s(lp2311
(g22
I1
tp2312
atp2313
a(S'za'
p2314
(dp2315
S'PRT'
p2316
F0.001011
sS'VERB'
p2317
F2.1000000000000002e-05
sS'NOUN'
p2318
F1e-05
sS'ADP'
p2319
F0.9989569999999999
sg6
F0.0
s(lp2320
tp2321
a(S'przyj\xc4\x99ciem'
p2322
(dp2323
S'VERB'
p2324
F0.986921
sS'NOUN'
p2325
F0.013079
s(lp2326
(g37
I3
tp2327
atp2328
a(S'rezolucji'
p2329
(dp2330
S'NOUN'
p2331
F1.0
s(lp2332
(g60
I7
tp2333
atp2334
a(S'parlamentu'
p2335
(dp2336
S'NOUN'
p2337
F1.0
s(lp2338
(g72
I6
tp2339
atp2340
a(g292
(dp2341
g6
F0.0
sg294
F1.0
s(lp2342
tp2343
a(S'poniewa\xc5\xbc'
p2344
(dp2345
S'CONJ'
p2346
F1.0
s(lp2347
(g80
I8
tp2348
atp2349
a(S'zgadzam'
p2350
(dp2351
S'VERB'
p2352
F1.0
s(lp2353
tp2354
a(S'si\xc4\x99'
p2355
(dp2356
S'PRT'
p2357
F1.0
s(lp2358
(g93
I10
tp2359
atp2360
a(g292
(dp2361
g6
F0.0
sg294
F1.0
s(lp2362
tp2363
a(S'\xc5\xbce'
p2364
(dp2365
S'PRT'
p2366
F0.000226
sS'CONJ'
p2367
F0.999774
s(lp2368
(g136
I11
tp2369
atp2370
a(S'kluczowe'
p2371
(dp2372
S'ADJ'
p2373
F1.0
s(lp2374
tp2375
a(S'znaczenie'
p2376
(dp2377
S'VERB'
p2378
F3e-06
sS'NOUN'
p2379
F0.999997
s(lp2380
(g159
I14
tp2381
atp2382
a(S'ma'
p2383
(dp2384
S'VERB'
p2385
F0.99938
sS'NOUN'
p2386
F4e-06
sS'ADP'
p2387
F0.000617
s(lp2388
(g566
I18
tp2389
atp2390
a(S'mo\xc5\xbcliwo\xc5\x9b\xc4\x87'
p2391
(dp2392
S'NOUN'
p2393
F1.0
s(lp2394
(g197
I19
tp2395
atp2396
a(S'wykorzystania'
p2397
(dp2398
S'VERB'
p2399
F0.981759
sS'NOUN'
p2400
F0.018241
s(lp2401
(g204
I21
tp2402
atp2403
a(S'przez'
p2404
(dp2405
S'ADP'
p2406
F1.0
s(lp2407
(g168
I15
tp2408
atp2409
a(S'ue'
p2410
(dp2411
S'ADJ'
p2412
F8e-06
sS'VERB'
p2413
F0.001023
sS'NOUN'
p2414
F0.9989690000000001
s(lp2415
(g190
I17
tp2416
atp2417
a(S'jej'
p2418
(dp2419
S'PRON'
p2420
F0.9999720000000001
sg6
F2.8e-05
s(lp2421
(g242
I24
tp2422
atp2423
a(S'wszystkich'
p2424
(dp2425
S'NOUN'
p2426
F0.065372
sS'ADJ'
p2427
F0.934628
s(lp2428
(g212
I22
tp2429
atp2430
a(S'instrument\xc3\xb3w'
p2431
(dp2432
S'NOUN'
p2433
F1.0
s(lp2434
(g249
I26
tp2435
atp2436
a(S'zewn\xc4\x99trznych'
p2437
(dp2438
S'ADJ'
p2439
F0.999999
s(lp2440
(g257
I25
tp2441
atp2442
a(S'w'
p2443
(dp2444
S'ADJ'
p2445
F0.0
sg6
F0.0
sS'NOUN'
p2446
F0.0
sS'ADP'
p2447
F1.0
s(lp2448
tp2449
a(S'ramach'
p2450
(dp2451
S'NOUN'
p2452
F1.0
s(lp2453
(g265
I27
tp2454
atp2455
a(S'sp\xc3\xb3jnej'
p2456
(dp2457
S'ADJ'
p2458
F1.0
s(lp2459
(g289
I29
tp2460
atp2461
a(S'struktury'
p2462
(dp2463
S'NOUN'
p2464
F1.0
s(lp2465
(g282
I30
tp2466
atp2467
a(g292
(dp2468
g6
F0.0
sg294
F1.0
s(lp2469
(g292
I31
tp2470
atp2471
a(g274
(dp2472
S'ADV'
p2473
F0.000164
sS'NOUN'
p2474
F0.000154
sS'ADP'
p2475
F2.3e-05
sS'PRT'
p2476
F0.003126
sS'VERB'
p2477
F0.00077
sg6
F0.0009400000000000001
sS'CONJ'
p2478
F0.99481
sS'ADJ'
p2479
F1.3e-05
s(lp2480
(g302
I32
tp2481
atp2482
a(S'politycznym'
p2483
(dp2484
S'ADJ'
p2485
F1.0
s(lp2486
(g356
I55
tp2487
atp2488
a(S'celem'
p2489
(dp2490
S'NOUN'
p2491
F0.999792
sS'ADP'
p2492
F0.000208
s(lp2493
(g347
I56
tp2494
atp2495
a(S'przedmiotowego'
p2496
(dp2497
S'ADJ'
p2498
F1.0
s(lp2499
(g318
I58
tp2500
atp2501
a(S'sprawozdania'
p2502
(dp2503
S'NOUN'
p2504
F0.999999
s(lp2505
(g325
I59
tp2506
atp2507
a(S'jest'
p2508
(dp2509
S'VERB'
p2510
F1.0
s(lp2511
(g331
I53
tp2512
atp2513
a(S'zapewnienie'
p2514
(dp2515
S'VERB'
p2516
F0.996451
sS'NOUN'
p2517
F0.003549
s(lp2518
(g372
I35
tp2519
atp2520
a(S'\xc5\x9brodk\xc3\xb3w'
p2521
(dp2522
S'NOUN'
p2523
F1.0
s(lp2524
(g387
I38
tp2525
atp2526
a(S'bud\xc5\xbcetowych'
p2527
(dp2528
S'ADJ'
p2529
F1.0
s(lp2530
(g394
I37
tp2531
atp2532
a(g2443
(dp2533
S'ADJ'
p2534
F0.0
sg6
F2e-06
sS'NOUN'
p2535
F4e-06
sS'ADP'
p2536
F0.999993
s(lp2537
(g402
I39
tp2538
atp2539
a(S'2010'
p2540
(dp2541
S'NUM'
p2542
F0.000192
sS'ADJ'
p2543
F0.9998079999999999
s(lp2544
tp2545
a(S'roku'
p2546
(dp2547
S'NOUN'
p2548
F1.0
s(lp2549
(g409
I40
tp2550
atp2551
a(g292
(dp2552
g6
F0.0
sg294
F1.0
s(lp2553
(g292
I52
tp2554
atp2555
a(S'aby'
p2556
(dp2557
S'PRT'
p2558
F0.002595
sS'CONJ'
p2559
F0.997405
s(lp2560
(g339
I42
tp2561
atp2562
a(S'na'
p2563
(dp2564
g6
F3e-05
sS'VERB'
p2565
F3e-06
sS'NOUN'
p2566
F2e-06
sS'ADP'
p2567
F0.9999480000000001
sS'PRT'
p2568
F1.7e-05
s(lp2569
(g439
I43
tp2570
atp2571
a(S'wst\xc4\x99pnym'
p2572
(dp2573
S'ADV'
p2574
F8e-06
sS'NOUN'
p2575
F0.0009600000000000001
sS'VERB'
p2576
F0.026018999999999997
sS'ADJ'
p2577
F0.9730060000000001
s(lp2578
(g228
I50
tp2579
atp2580
a(S'etapie'
p2581
(dp2582
S'NOUN'
p2583
F1.0
s(lp2584
(g761
I51
tp2585
atp2586
a(S'stworzy\xc4\x87'
p2587
(dp2588
S'VERB'
p2589
F1.0
s(lp2590
(g432
I44
tp2591
atp2592
a(S't\xc4\x99'
p2593
(dp2594
S'ADJ'
p2595
F1.0
s(lp2596
(g446
I45
tp2597
atp2598
a(S'struktur\xc4\x99'
p2599
(dp2600
S'NOUN'
p2601
F1.0
s(lp2602
(g454
I46
tp2603
atp2604
a(g294
(dp2605
g294
F1.0
s(lp2606
(g294
I60
tp2607
atp2608
asS'sl'
p2609
(lp2610
(S'glasovala'
p2611
(dp2612
S'VERB'
p2613
F1.0
s(lp2614
tp2615
a(S'sem'
p2616
(dp2617
S'ADV'
p2618
F0.055228
sS'PRT'
p2619
F0.007528
sS'VERB'
p2620
F0.937244
s(lp2621
(g22
I1
tp2622
atp2623
a(S'za'
p2624
(dp2625
S'ADV'
p2626
F0.000103
sg6
F4e-06
sS'ADP'
p2627
F0.9998929999999999
s(lp2628
(g37
I3
tp2629
atp2630
a(S'resolucijo'
p2631
(dp2632
S'NOUN'
p2633
F1.0
s(lp2634
(g60
I7
tp2635
atp2636
a(S'parlamenta'
p2637
(dp2638
S'NOUN'
p2639
F1.0
s(lp2640
(g72
I6
tp2641
atp2642
a(g292
(dp2643
g294
F1.0
s(lp2644
tp2645
a(S'ker'
p2646
(dp2647
S'CONJ'
p2648
F1.0
s(lp2649
(g80
I8
tp2650
atp2651
a(S'se'
p2652
(dp2653
S'PRON'
p2654
F1.0
sg6
F0.0
s(lp2655
tp2656
a(S'strinjam'
p2657
(dp2658
S'VERB'
p2659
F1.0
s(lp2660
(g93
I10
tp2661
atp2662
a(g292
(dp2663
g294
F1.0
s(lp2664
tp2665
a(S'da'
p2666
(dp2667
S'PRT'
p2668
F4e-06
sS'CONJ'
p2669
F0.999979
sS'VERB'
p2670
F1.7e-05
sg6
F1e-06
s(lp2671
(g136
I11
tp2672
atp2673
a(S'je'
p2674
(dp2675
S'PRON'
p2676
F0.004227
sS'VERB'
p2677
F0.9957710000000001
sg6
F2e-06
s(lp2678
(g151
I13
tp2679
atp2680
a(S'za'
p2681
(dp2682
S'ADV'
p2683
F0.002513
sg6
F1.2e-05
sS'ADP'
p2684
F0.9974749999999999
s(lp2685
(g177
I16
tp2686
atp2687
a(S'eu'
p2688
(dp2689
S'ADV'
p2690
F0.003112
sS'ADJ'
p2691
F0.014694000000000002
sS'VERB'
p2692
F3.3e-05
sS'NOUN'
p2693
F0.982163
s(lp2694
(g190
I17
tp2695
atp2696
a(S'bistvenega'
p2697
(dp2698
S'ADJ'
p2699
F1.0
s(lp2700
tp2701
a(S'pomena'
p2702
(dp2703
S'NOUN'
p2704
F1.0
s(lp2705
(g159
I14
tp2706
atp2707
a(g292
(dp2708
g294
F1.0
s(lp2709
tp2710
a(S'da'
p2711
(dp2712
S'PRT'
p2713
F0.000272
sS'CONJ'
p2714
F0.999224
sS'VERB'
p2715
F0.000501
sg6
F2e-06
s(lp2716
(g168
I15
tp2717
atp2718
a(S'lahko'
p2719
(dp2720
S'ADV'
p2721
F0.999696
sS'ADJ'
p2722
F0.000303
s(lp2723
(g197
I19
tp2724
atp2725
a(S'uporablja'
p2726
(dp2727
S'VERB'
p2728
F1.0
s(lp2729
(g204
I21
tp2730
atp2731
a(S'vse'
p2732
(dp2733
S'ADV'
p2734
F0.280079
sS'PRON'
p2735
F0.7199200000000001
s(lp2736
(g212
I22
tp2737
atp2738
a(S'svoje'
p2739
(dp2740
S'PRON'
p2741
F0.9999990000000001
s(lp2742
(g242
I24
tp2743
atp2744
a(S'zunanje'
p2745
(dp2746
S'ADV'
p2747
F6.7e-05
sS'ADJ'
p2748
F0.9999330000000001
s(lp2749
(g257
I25
tp2750
atp2751
a(S'instrumente'
p2752
(dp2753
S'NOUN'
p2754
F1.0
s(lp2755
(g249
I26
tp2756
atp2757
a(g2141
(dp2758
S'ADP'
p2759
F1.0
s(lp2760
tp2761
a(S'okviru'
p2762
(dp2763
S'NOUN'
p2764
F1.0
s(lp2765
(g265
I27
tp2766
atp2767
a(S'skladne'
p2768
(dp2769
S'ADV'
p2770
F0.000671
sS'NOUN'
p2771
F0.000646
sS'VERB'
p2772
F0.000149
sS'ADJ'
p2773
F0.998535
s(lp2774
(g289
I29
tp2775
atp2776
a(S'strukture'
p2777
(dp2778
S'NOUN'
p2779
F1.0
s(lp2780
(g282
I30
tp2781
atp2782
a(g292
(dp2783
g294
F1.0
s(lp2784
(g292
I31
tp2785
atp2786
a(S'in'
p2787
(dp2788
S'ADV'
p2789
F0.000122
sg6
F1.1e-05
sS'CONJ'
p2790
F0.999858
sS'NOUN'
p2791
F8e-06
s(lp2792
(g302
I32
tp2793
atp2794
a(S'ker'
p2795
(dp2796
S'CONJ'
p2797
F1.0
s(lp2798
(g311
I33
tp2799
atp2800
a(S'je'
p2801
(dp2802
S'PRON'
p2803
F0.001598
sS'VERB'
p2804
F0.998401
sg6
F1e-06
s(lp2805
(g331
I53
tp2806
atp2807
a(S'politi\xc4\x8dni'
p2808
(dp2809
S'ADJ'
p2810
F0.9999989999999999
s(lp2811
(g356
I55
tp2812
atp2813
a(S'namen'
p2814
(dp2815
S'NOUN'
p2816
F1.0
s(lp2817
(g347
I56
tp2818
atp2819
a(S'tega'
p2820
(dp2821
S'PRON'
p2822
F1.0
s(lp2823
(g318
I58
tp2824
atp2825
a(S'poro\xc4\x8dila'
p2826
(dp2827
S'VERB'
p2828
F0.05698400000000001
sS'NOUN'
p2829
F0.943016
s(lp2830
(g325
I59
tp2831
atp2832
a(S'zagotoviti'
p2833
(dp2834
S'VERB'
p2835
F1.0
s(lp2836
(g372
I35
tp2837
atp2838
a(S'prora\xc4\x8dunska'
p2839
(dp2840
S'ADJ'
p2841
F1.0
s(lp2842
(g394
I37
tp2843
atp2844
a(S'sredstva'
p2845
(dp2846
S'NOUN'
p2847
F1.0
s(lp2848
(g387
I38
tp2849
atp2850
a(S'za'
p2851
(dp2852
S'ADV'
p2853
F6e-06
sg6
F1e-06
sS'ADP'
p2854
F0.999993
s(lp2855
(g402
I39
tp2856
atp2857
a(S'leto'
p2858
(dp2859
S'NOUN'
p2860
F1.0
s(lp2861
tp2862
a(S'2010'
p2863
(dp2864
S'NUM'
p2865
F1.0
s(lp2866
(g409
I40
tp2867
atp2868
a(S'za'
p2869
(dp2870
S'ADV'
p2871
F3.7e-05
sg6
F2.5e-05
sS'ADP'
p2872
F0.9999380000000001
s(lp2873
(g439
I43
tp2874
atp2875
a(S'vzpostavitev'
p2876
(dp2877
S'NOUN'
p2878
F1.0
s(lp2879
(g432
I44
tp2880
atp2881
a(S'tak\xc5\xa1ne'
p2882
(dp2883
S'PRON'
p2884
F1.0
s(lp2885
(g446
I45
tp2886
atp2887
a(S'strukture'
p2888
(dp2889
S'NOUN'
p2890
F1.0
s(lp2891
(g454
I46
tp2892
atp2893
a(g2141
(dp2894
S'ADP'
p2895
F1.0
s(lp2896
(g741
I48
tp2897
atp2898
a(S'za\xc4\x8detni'
p2899
(dp2900
S'ADJ'
p2901
F1.0
s(lp2902
(g228
I50
tp2903
atp2904
a(S'fazi'
p2905
(dp2906
S'NOUN'
p2907
F1.0
s(lp2908
(g761
I51
tp2909
atp2910
a(g294
(dp2911
g294
F1.0
s(lp2912
(g294
I60
tp2913
atp2914
asS'es'
p2915
(lp2916
(S'he'
p2917
(dp2918
S'VERB'
p2919
F1.0
s(lp2920
(g10
I0
tp2921
atp2922
a(S'votado'
p2923
(dp2924
S'VERB'
p2925
F1.0
s(lp2926
(g22
I1
tp2927
atp2928
a(g274
(dp2929
g6
F3.9e-05
sS'CONJ'
p2930
F9.6e-05
sS'ADP'
p2931
F0.999865
s(lp2932
(g30
I2
tp2933
atp2934
a(S'favor'
p2935
(dp2936
S'NOUN'
p2937
F1.0
s(lp2938
(g37
I3
tp2939
atp2940
a(S'de'
p2941
(dp2942
g6
F0.0
sS'CONJ'
p2943
F1.7e-05
sS'ADP'
p2944
F0.999983
s(lp2945
(g44
I4
tp2946
atp2947
a(S'la'
p2948
(dp2949
g6
F0.0
sS'PRON'
p2950
F0.0
sS'DET'
p2951
F0.999999
sS'NOUN'
p2952
F0.0
s(lp2953
(g53
I5
tp2954
atp2955
a(S'resoluci\xc3\xb3n'
p2956
(dp2957
S'NOUN'
p2958
F1.0
s(lp2959
(g60
I7
tp2960
atp2961
a(S'del'
p2962
(dp2963
S'ADP'
p2964
F1.0
s(lp2965
tp2966
a(S'parlamento'
p2967
(dp2968
S'VERB'
p2969
F1.7e-05
sS'NOUN'
p2970
F0.999983
s(lp2971
(g72
I6
tp2972
atp2973
a(S'porque'
p2974
(dp2975
S'CONJ'
p2976
F1.0
s(lp2977
(g80
I8
tp2978
atp2979
a(S'estoy'
p2980
(dp2981
S'VERB'
p2982
F1.0
s(lp2983
tp2984
a(S'de'
p2985
(dp2986
g6
F1e-06
sS'CONJ'
p2987
F0.0
sS'ADP'
p2988
F0.999999
s(lp2989
tp2990
a(S'acuerdo'
p2991
(dp2992
S'VERB'
p2993
F0.000219
sS'NOUN'
p2994
F0.999781
s(lp2995
(g93
I10
tp2996
atp2997
a(S'en'
p2998
(dp2999
g6
F2e-06
sS'CONJ'
p3000
F0.00012
sS'ADP'
p3001
F0.999878
s(lp3002
(g143
I12
tp3003
atp3004
a(S'que'
p3005
(dp3006
g6
F3.1e-05
sS'CONJ'
p3007
F0.999969
s(lp3008
(g136
I11
tp3009
atp3010
a(S'para'
p3011
(dp3012
S'CONJ'
p3013
F0.001608
sS'ADP'
p3014
F0.998392
s(lp3015
(g168
I15
tp3016
atp3017
a(S'la'
p3018
(dp3019
g6
F0.0
sS'PRON'
p3020
F0.0
sS'DET'
p3021
F0.999999
sS'NOUN'
p3022
F0.0
s(lp3023
(g177
I16
tp3024
atp3025
a(S'ue'
p3026
(dp3027
S'VERB'
p3028
F1e-06
sS'NOUN'
p3029
F0.9999979999999999
s(lp3030
tp3031
a(S'es'
p3032
(dp3033
S'VERB'
p3034
F1.0
s(lp3035
(g151
I13
tp3036
atp3037
a(S'fundamental'
p3038
(dp3039
S'ADJ'
p3040
F1.0
s(lp3041
(g159
I14
tp3042
atp3043
a(S'poder'
p3044
(dp3045
S'VERB'
p3046
F0.997065
sS'NOUN'
p3047
F0.002935
s(lp3048
(g197
I19
tp3049
atp3050
a(S'utilizar'
p3051
(dp3052
S'VERB'
p3053
F1.0
s(lp3054
(g204
I21
tp3055
atp3056
a(S'la'
p3057
(dp3058
S'PRON'
p3059
F4e-06
sS'DET'
p3060
F0.999995
sS'NOUN'
p3061
F0.0
sg6
F1e-06
s(lp3062
(g190
I17
tp3063
atp3064
a(S'totalidad'
p3065
(dp3066
S'NOUN'
p3067
F1.0
s(lp3068
(g212
I22
tp3069
atp3070
a(S'de'
p3071
(dp3072
g6
F0.0
sS'CONJ'
p3073
F0.000289
sS'ADP'
p3074
F0.999711
s(lp3075
(g235
I23
tp3076
atp3077
a(S'sus'
p3078
(dp3079
S'PRON'
p3080
F1.0
s(lp3081
(g242
I24
tp3082
atp3083
a(S'instrumentos'
p3084
(dp3085
S'NOUN'
p3086
F1.0
s(lp3087
(g249
I26
tp3088
atp3089
a(S'exteriores'
p3090
(dp3091
S'ADJ'
p3092
F1.0
s(lp3093
(g257
I25
tp3094
atp3095
a(S'en'
p3096
(dp3097
g6
F0.0
sS'CONJ'
p3098
F1e-06
sS'ADP'
p3099
F0.999999
s(lp3100
tp3101
a(S'el'
p3102
(dp3103
S'PRON'
p3104
F5e-06
sS'DET'
p3105
F0.999995
s(lp3106
tp3107
a(S'marco'
p3108
(dp3109
S'NOUN'
p3110
F1.0
s(lp3111
(g265
I27
tp3112
atp3113
a(S'de'
p3114
(dp3115
g6
F0.0
sS'CONJ'
p3116
F1.7e-05
sS'ADP'
p3117
F0.999983
s(lp3118
tp3119
a(S'una'
p3120
(dp3121
S'DET'
p3122
F1.0
s(lp3123
(g274
I28
tp3124
atp3125
a(S'estructura'
p3126
(dp3127
S'NOUN'
p3128
F1.0
s(lp3129
(g282
I30
tp3130
atp3131
a(S'coherente'
p3132
(dp3133
S'ADJ'
p3134
F1.0
s(lp3135
(g289
I29
tp3136
atp3137
a(g292
(dp3138
g294
F1.0
s(lp3139
(g292
I31
tp3140
atp3141
a(S'y'
p3142
(dp3143
g6
F0.000442
sS'CONJ'
p3144
F0.999558
s(lp3145
(g302
I32
tp3146
atp3147
a(S'en'
p3148
(dp3149
g6
F0.0
sS'CONJ'
p3150
F1.1e-05
sS'ADP'
p3151
F0.999989
s(lp3152
(g416
I41
tp3153
atp3154
a(S'que'
p3155
(dp3156
g6
F0.0
sS'CONJ'
p3157
F1.0
s(lp3158
(g311
I33
tp3159
atp3160
a(S'la'
p3161
(dp3162
S'PRON'
p3163
F0.00027
sS'DET'
p3164
F0.99973
sg6
F0.0
sS'NOUN'
p3165
F0.0
s(lp3166
(g365
I34
tp3167
atp3168
a(S'provisi\xc3\xb3n'
p3169
(dp3170
S'NOUN'
p3171
F1.0
s(lp3172
(g372
I35
tp3173
atp3174
a(S'de'
p3175
(dp3176
g6
F0.0
sS'CONJ'
p3177
F1.7e-05
sS'ADP'
p3178
F0.999983
s(lp3179
(g379
I36
tp3180
atp3181
a(S'los'
p3182
(dp3183
S'PRON'
p3184
F0.0
sS'DET'
p3185
F1.0
s(lp3186
tp3187
a(S'recursos'
p3188
(dp3189
S'NOUN'
p3190
F1.0
s(lp3191
(g387
I38
tp3192
atp3193
a(S'presupuestarios'
p3194
(dp3195
S'ADJ'
p3196
F1.0
s(lp3197
(g394
I37
tp3198
atp3199
a(S'para'
p3200
(dp3201
S'CONJ'
p3202
F0.056605
sS'ADP'
p3203
F0.943395
s(lp3204
(g402
I39
tp3205
atp3206
a(S'2010'
p3207
(dp3208
g6
F0.533624
sS'NUM'
p3209
F0.466376
s(lp3210
(g409
I40
tp3211
atp3212
a(S'para'
p3213
(dp3214
S'CONJ'
p3215
F0.70873
sS'ADP'
p3216
F0.29127
s(lp3217
(g339
I42
tp3218
atp3219
a(S'establecer'
p3220
(dp3221
S'VERB'
p3222
F1.0
s(lp3223
(g432
I44
tp3224
atp3225
a(S'dicha'
p3226
(dp3227
S'VERB'
p3228
F3.9e-05
sS'ADJ'
p3229
F0.999961
s(lp3230
(g446
I45
tp3231
atp3232
a(S'estructura'
p3233
(dp3234
S'NOUN'
p3235
F1.0
s(lp3236
(g454
I46
tp3237
atp3238
a(g292
(dp3239
g294
F1.0
s(lp3240
(g292
I47
tp3241
atp3242
a(S'en'
p3243
(dp3244
g6
F0.0
sS'CONJ'
p3245
F2.3e-05
sS'ADP'
p3246
F0.999977
s(lp3247
(g741
I48
tp3248
atp3249
a(S'su'
p3250
(dp3251
S'PRON'
p3252
F1.0
s(lp3253
(g221
I49
tp3254
atp3255
a(S'fase'
p3256
(dp3257
S'NOUN'
p3258
F1.0
s(lp3259
(g761
I51
tp3260
atp3261
a(S'inicial'
p3262
(dp3263
S'NOUN'
p3264
F0.00012
sS'ADJ'
p3265
F0.99988
s(lp3266
(g228
I50
tp3267
atp3268
a(g292
(dp3269
g294
F1.0
s(lp3270
(g292
I52
tp3271
atp3272
a(S'constituye'
p3273
(dp3274
S'VERB'
p3275
F1.0
s(lp3276
(g331
I53
tp3277
atp3278
a(S'el'
p3279
(dp3280
S'PRON'
p3281
F2e-06
sS'DET'
p3282
F0.999998
s(lp3283
(g425
I54
tp3284
atp3285
a(S'objetivo'
p3286
(dp3287
S'ADJ'
p3288
F0.009897
sS'NOUN'
p3289
F0.990103
s(lp3290
(g347
I56
tp3291
atp3292
a(S'pol\xc3\xadtico'
p3293
(dp3294
S'NOUN'
p3295
F0.036517
sS'ADJ'
p3296
F0.963483
s(lp3297
(g356
I55
tp3298
atp3299
a(S'del'
p3300
(dp3301
S'ADP'
p3302
F1.0
s(lp3303
(g794
I57
tp3304
atp3305
a(S'presente'
p3306
(dp3307
S'VERB'
p3308
F9e-06
sS'ADJ'
p3309
F0.999991
s(lp3310
(g318
I58
tp3311
atp3312
a(S'informe'
p3313
(dp3314
S'VERB'
p3315
F0.029338
sS'NOUN'
p3316
F0.970662
s(lp3317
(g325
I59
tp3318
atp3319
a(g294
(dp3320
g294
F1.0
s(lp3321
(g294
I60
tp3322
atp3323
as.