(dp0
S'fr'
p1
(lp2
(S'je'
p3
(dp4
S'PRON'
p5
F1.0
s(lp6
(S'i'
p7
I0
tp8
atp9
a(S'pense'
p10
(dp11
S'VERB'
p12
F1.0
s(lp13
(S'believe'
p14
I1
tp15
atp16
a(S"d'"
p17
(dp18
S'NOUN'
p19
F0.087886
sS'VERB'
p20
F0.7995690000000001
sS'ADJ'
p21
F0.112546
s(lp22
(S'in'
p23
I12
tp24
atp25
a(S'ailleurs'
p26
(dp27
S'ADV'
p28
F0.993737
sS'NOUN'
p29
F0.006263
s(lp30
(S'even'
p31
I10
tp32
atp33
a(S'que'
p34
(dp35
S'ADV'
p36
F0.045707
sS'PRON'
p37
F0.031763
sS'CONJ'
p38
F0.922531
s(lp39
tp40
a(S'les'
p41
(dp42
S'PRON'
p43
F0.001032
sS'DET'
p44
F0.998954
sS'ADP'
p45
F1.4e-05
s(lp46
(S'the'
p47
I13
tp48
atp49
a(S'trait\xc3\xa9s'
p50
(dp51
S'VERB'
p52
F0.00067
sS'NOUN'
p53
F0.99933
s(lp54
(S'treaties'
p55
I14
tp56
atp57
a(S'consacrent'
p58
(dp59
S'VERB'
p60
F1.0
s(lp61
(S'enshrined'
p62
I11
tp63
atp64
a(S'ce'
p65
(dp66
S'PRON'
p67
F1.0
s(lp68
(S'our'
p69
I3
tp70
atp71
a(S'droit'
p72
(dp73
S'ADV'
p74
F0.005448
sS'ADJ'
p75
F0.040109
sS'NOUN'
p76
F0.954442
s(lp77
(S'right'
p78
I4
tp79
atp80
a(S'que'
p81
(dp82
S'ADV'
p83
F0.000997
sS'PRON'
p84
F0.435797
sS'CONJ'
p85
F0.563206
s(lp86
(S'that'
p87
I2
tp88
atp89
a(S'nous'
p90
(dp91
S'PRON'
p92
F1.0
s(lp93
(g69
I3
tp94
atp95
a(S'avons'
p96
(dp97
S'VERB'
p98
F1.0
s(lp99
tp100
a(S"d'"
p101
(dp102
S'NOUN'
p103
F0.087886
sS'VERB'
p104
F0.7995690000000001
sS'ADJ'
p105
F0.112546
s(lp106
(S'to'
p107
I5
tp108
atp109
a(S'\xc3\xa9tendre'
p110
(dp111
S'VERB'
p112
F1.0
s(lp113
(S'extend'
p114
I6
tp115
atp116
a(S'le'
p117
(dp118
S'PRON'
p119
F3.4e-05
sS'DET'
p120
F0.999966
s(lp121
(S'the'
p122
I7
tp123
atp124
a(S'mandat'
p125
(dp126
S'NOUN'
p127
F1.0
s(lp128
tp129
a(S'qui'
p130
(dp131
S'PRON'
p132
F1.0
s(lp133
tp134
a(S'nous'
p135
(dp136
S'PRON'
p137
F1.0
s(lp138
(g69
I3
tp139
atp140
a(S'est'
p141
(dp142
S'VERB'
p143
F0.999998
sS'NOUN'
p144
F2e-06
s(lp145
(S'is'
p146
I9
tp147
atp148
a(S'conf\xc3\xa9r\xc3\xa9'
p149
(dp150
S'VERB'
p151
F1.0
s(lp152
(S'mandate'
p153
I8
tp154
atp155
a(S'.'
p156
(dp157
g156
F1.0
s(lp158
(g156
I15
tp159
atp160
asS'en'
p161
(lp162
(g7
(dp163
S'X'
p164
F0.005301
sS'NOUN'
p165
F0.9946989999999999
s(lp166
(g7
I0
tp167
atp168
a(g14
(dp169
S'VERB'
p170
F1.0
s(lp171
(g14
I1
tp172
atp173
a(g87
(dp174
S'ADV'
p175
F0.00032
sS'DET'
p176
F0.008028
sS'ADP'
p177
F0.991651
s(lp178
(g87
I2
tp179
atp180
a(g69
(dp181
S'PRON'
p182
F1.0
s(lp183
(g69
I3
tp184
atp185
a(g78
(dp186
S'ADV'
p187
F0.015462
sS'ADJ'
p188
F0.217008
sS'VERB'
p189
F1e-06
sS'NOUN'
p190
F0.767528
s(lp191
(g78
I4
tp192
atp193
a(g107
(dp194
S'ADV'
p195
F0.0
sS'PRT'
p196
F1.0
sS'ADP'
p197
F0.0
s(lp198
(g107
I5
tp199
atp200
a(g114
(dp201
S'VERB'
p202
F1.0
s(lp203
(g114
I6
tp204
atp205
a(g122
(dp206
S'NOUN'
p207
F1e-06
sS'DET'
p208
F0.999999
s(lp209
(g122
I7
tp210
atp211
a(g153
(dp212
S'VERB'
p213
F0.000109
sS'NOUN'
p214
F0.999891
s(lp215
(g153
I8
tp216
atp217
a(g146
(dp218
S'VERB'
p219
F1.0
s(lp220
(g146
I9
tp221
atp222
a(g31
(dp223
S'ADV'
p224
F0.999671
sS'NOUN'
p225
F5e-06
sS'VERB'
p226
F7e-06
sS'ADJ'
p227
F0.000316
s(lp228
(g31
I10
tp229
atp230
a(g62
(dp231
S'VERB'
p232
F1.0
s(lp233
(g62
I11
tp234
atp235
a(g23
(dp236
S'ADV'
p237
F0.000466
sS'PRT'
p238
F0.004283
sS'ADP'
p239
F0.995251
s(lp240
(g23
I12
tp241
atp242
a(g47
(dp243
S'NOUN'
p244
F1.1e-05
sS'DET'
p245
F0.999989
s(lp246
(g47
I13
tp247
atp248
a(g55
(dp249
S'NOUN'
p250
F1.0
s(lp251
(g55
I14
tp252
atp253
a(g156
(dp254
g156
F1.0
s(lp255
(g156
I15
tp256
atp257
asS'nl'
p258
(lp259
(S'ik'
p260
(dp261
S'PRON'
p262
F0.999981
sS'NOUN'
p263
F1.9e-05
s(lp264
(g7
I0
tp265
atp266
a(S'denk'
p267
(dp268
S'VERB'
p269
F1.0
s(lp270
(g14
I1
tp271
atp272
a(S'dat'
p273
(dp274
S'PRON'
p275
F0.26279399999999997
sS'CONJ'
p276
F0.737206
s(lp277
(g87
I2
tp278
atp279
a(S'ook'
p280
(dp281
S'ADV'
p282
F1.0
s(lp283
(g31
I10
tp284
atp285
a(S'de'
p286
(dp287
S'DET'
p288
F1.0
s(lp289
(g47
I13
tp290
atp291
a(S'verdragen'
p292
(dp293
S'VERB'
p294
F0.002503
sS'NOUN'
p295
F0.997497
s(lp296
(g55
I14
tp297
atp298
a(S'ons'
p299
(dp300
S'PRON'
p301
F0.99363
sS'NOUN'
p302
F0.006371
s(lp303
(g69
I3
tp304
atp305
a(S'hierin'
p306
(dp307
S'ADV'
p308
F1.0
s(lp309
(g62
I11
tp310
atp311
a(S'gelijk'
p312
(dp313
S'ADV'
p314
F0.000946
sS'NOUN'
p315
F0.002502
sS'VERB'
p316
F0.000391
sS'ADJ'
p317
F0.996162
s(lp318
(g78
I4
tp319
atp320
a(S'geven'
p321
(dp322
S'VERB'
p323
F0.998978
sS'NOUN'
p324
F0.001022
s(lp325
tp326
a(S','
p327
(dp328
g156
F1.0
s(lp329
tp330
a(S'in'
p331
(dp332
S'ADV'
p333
F0.012444
sS'VERB'
p334
F1.1e-05
sS'ADP'
p335
F0.987545
s(lp336
(g23
I12
tp337
atp338
a(S'ons'
p339
(dp340
S'PRON'
p341
F0.999985
sS'NOUN'
p342
F1.5e-05
s(lp343
(g146
I9
tp344
atp345
a(S'recht'
p346
(dp347
S'ADJ'
p348
F3.5e-05
sS'VERB'
p349
F1e-05
sS'NOUN'
p350
F0.999955
s(lp351
(g78
I4
tp352
atp353
a(S'om'
p354
(dp355
S'ADV'
p356
F0.001833
sS'CONJ'
p357
F0.426774
sS'ADP'
p358
F0.571393
s(lp359
tp360
a(S'het'
p361
(dp362
S'PRON'
p363
F0.009462
sS'DET'
p364
F0.990539
s(lp365
(g122
I7
tp366
atp367
a(S'mandaat'
p368
(dp369
S'NOUN'
p370
F1.0
s(lp371
(g153
I8
tp372
atp373
a(S'uit'
p374
(dp375
S'ADV'
p376
F0.999651
sS'VERB'
p377
F0.000105
sS'ADP'
p378
F0.000244
s(lp379
tp380
a(S'te'
p381
(dp382
S'PRT'
p383
F1.0
s(lp384
(g107
I5
tp385
atp386
a(S'breiden'
p387
(dp388
S'VERB'
p389
F1.0
s(lp390
(g114
I6
tp391
atp392
a(g156
(dp393
g156
F1.0
s(lp394
(g156
I15
tp395
atp396
asS'de'
p397
(lp398
(S'ich'
p399
(dp400
S'PRON'
p401
F1.0
s(lp402
(g7
I0
tp403
atp404
a(S'glaube'
p405
(dp406
S'VERB'
p407
F1.0
s(lp408
(g14
I1
tp409
atp410
a(S'auch'
p411
(dp412
S'ADV'
p413
F1.0
s(lp414
tp415
a(g327
(dp416
g156
F1.0
s(lp417
tp418
a(S'dass'
p419
(dp420
S'CONJ'
p421
F1.0
s(lp422
(g87
I2
tp423
atp424
a(S'unser'
p425
(dp426
S'PRON'
p427
F1.0
s(lp428
(g69
I3
tp429
atp430
a(S'recht'
p431
(dp432
S'VERB'
p433
F0.023522
sS'ADJ'
p434
F0.97635
s(lp435
(g78
I4
tp436
atp437
a(S'zur'
p438
(dp439
S'ADP'
p440
F1.0
s(lp441
(g122
I7
tp442
atp443
a(S'mandatserweiterung'
p444
(dp445
S'ADJ'
p446
F0.000144
sS'NOUN'
p447
F0.999802
s(lp448
(g153
I8
tp449
atp450
a(S'sogar'
p451
(dp452
S'ADV'
p453
F1.0
s(lp454
(g31
I10
tp455
atp456
a(S'in'
p457
(dp458
S'ADP'
p459
F1.0
s(lp460
(g23
I12
tp461
atp462
a(S'den'
p463
(dp464
S'PRON'
p465
F0.000173
sS'DET'
p466
F0.999823
s(lp467
(g47
I13
tp468
atp469
a(S'vertr\xc3\xa4gen'
p470
(dp471
S'ADJ'
p472
F0.036912
sS'NOUN'
p473
F0.951052
s(lp474
(g55
I14
tp475
atp476
a(S'festgelegt'
p477
(dp478
S'VERB'
p479
F0.997342
sS'ADJ'
p480
F0.002658
s(lp481
(g62
I11
tp482
atp483
a(S'ist'
p484
(dp485
S'VERB'
p486
F1.0
s(lp487
(g146
I9
tp488
atp489
a(g156
(dp490
g156
F1.0
s(lp491
(g156
I15
tp492
atp493
asS'it'
p494
(lp495
(S'credo'
p496
(dp497
S'VERB'
p498
F0.942935
sS'NOUN'
p499
F0.057065
s(lp500
(g14
I1
tp501
atp502
a(S'che'
p503
(dp504
S'PRON'
p505
F0.946882
sS'CONJ'
p506
F0.052348
sS'ADJ'
p507
F0.000769
s(lp508
tp509
a(S'anche'
p510
(dp511
S'ADV'
p512
F0.999996
sS'NOUN'
p513
F4e-06
s(lp514
(g31
I10
tp515
atp516
a(g7
(dp517
S'DET'
p518
F1.0
s(lp519
(g47
I13
tp520
atp521
a(S'trattati'
p522
(dp523
S'VERB'
p524
F0.000714
sS'NOUN'
p525
F0.999286
s(lp526
(g55
I14
tp527
atp528
a(S'ci'
p529
(dp530
S'ADV'
p531
F0.000248
sS'PRON'
p532
F0.999709
sS'NOUN'
p533
F4.4e-05
s(lp534
(g146
I9
tp535
atp536
a(S'diano'
p537
(dp538
S'VERB'
p539
F1.0
s(lp540
tp541
a(S'ragione'
p542
(dp543
S'NOUN'
p544
F1.0
s(lp545
(g62
I11
tp546
atp547
a(S'su'
p548
(dp549
S'ADV'
p550
F0.003964
sS'ADP'
p551
F0.996036
s(lp552
(g23
I12
tp553
atp554
a(S'questo'
p555
(dp556
S'PRON'
p557
F1.0
s(lp558
(g87
I2
tp559
atp560
a(g327
(dp561
g156
F1.0
s(lp562
tp563
a(S'sul'
p564
(dp565
S'ADP'
p566
F1.0
s(lp567
tp568
a(S'nostro'
p569
(dp570
S'PRON'
p571
F1.0
s(lp572
(g69
I3
tp573
atp574
a(S'diritto'
p575
(dp576
S'ADJ'
p577
F0.011722
sS'NOUN'
p578
F0.988278
s(lp579
(g78
I4
tp580
atp581
a(S'di'
p582
(dp583
S'CONJ'
p584
F6e-06
sS'ADP'
p585
F0.999994
s(lp586
(g107
I5
tp587
atp588
a(S'ampliare'
p589
(dp590
S'VERB'
p591
F1.0
s(lp592
(g114
I6
tp593
atp594
a(S'il'
p595
(dp596
S'DET'
p597
F1.0
s(lp598
(g122
I7
tp599
atp600
a(S'mandato'
p601
(dp602
S'VERB'
p603
F0.003212
sS'NOUN'
p604
F0.996788
s(lp605
(g153
I8
tp606
atp607
a(g156
(dp608
g156
F1.0
s(lp609
(g156
I15
tp610
atp611
asS'sk'
p612
(lp613
(S'domnievam'
p614
(dp615
S'VERB'
p616
F1.0
s(lp617
(g14
I1
tp618
atp619
a(S'sa'
p620
(dp621
S'PRT'
p622
F0.999842
sS'ADP'
p623
F0.0
sg164
F0.00015800000000000002
s(lp624
tp625
a(g327
(dp626
g156
F1.0
s(lp627
(g14
I1
tp628
atp629
a(S'\xc5\xbee'
p630
(dp631
g164
F0.00035400000000000004
sS'CONJ'
p632
F0.999646
s(lp633
(g87
I2
tp634
atp635
a(S'na\xc5\xa1e'
p636
(dp637
S'PRON'
p638
F0.9998389999999999
sg164
F0.000161
s(lp639
(g69
I3
tp640
atp641
a(S'pr\xc3\xa1vo'
p642
(dp643
S'NOUN'
p644
F1.0
s(lp645
(g78
I4
tp646
atp647
a(S'roz\xc5\xa1\xc3\xadri\xc5\xa5'
p648
(dp649
S'VERB'
p650
F1.0
s(lp651
(g114
I6
tp652
atp653
a(S'mand\xc3\xa1t'
p654
(dp655
S'NOUN'
p656
F1.0
s(lp657
(g153
I8
tp658
atp659
a(S'je'
p660
(dp661
S'PRON'
p662
F2.8e-05
sS'VERB'
p663
F0.99994
sg164
F3.2e-05
s(lp664
(g146
I9
tp665
atp666
a(S'dokonca'
p667
(dp668
g164
F1.0
s(lp669
(g31
I10
tp670
atp671
a(S'zakotven\xc3\xa9'
p672
(dp673
S'VERB'
p674
F1.0
s(lp675
(g62
I11
tp676
atp677
a(S'v'
p678
(dp679
g164
F0.000317
sS'ADP'
p680
F0.999683
s(lp681
(g23
I12
tp682
atp683
a(S'zmluv\xc3\xa1ch'
p684
(dp685
S'NOUN'
p686
F1.0
s(lp687
(g55
I14
tp688
atp689
a(g156
(dp690
g156
F1.0
s(lp691
(g156
I15
tp692
atp693
asS'pl'
p694
(lp695
(S'uwa\xc5\xbcam'
p696
(dp697
S'VERB'
p698
F1.0
s(lp699
(g14
I1
tp700
atp701
a(g327
(dp702
g164
F0.0
sg156
F1.0
s(lp703
tp704
a(S'\xc5\xbce'
p705
(dp706
S'PRT'
p707
F0.000306
sS'CONJ'
p708
F0.999694
s(lp709
(g87
I2
tp710
atp711
a(S'nasze'
p712
(dp713
g164
F2.1e-05
sS'ADJ'
p714
F0.999979
s(lp715
(g69
I3
tp716
atp717
a(S'prawo'
p718
(dp719
S'ADV'
p720
F5.6e-05
sS'ADJ'
p721
F0.000214
sS'NOUN'
p722
F0.99973
s(lp723
(g78
I4
tp724
atp725
a(S'do'
p726
(dp727
g164
F0.0
sS'NOUN'
p728
F1e-06
sS'ADP'
p729
F0.9999990000000001
s(lp730
(g107
I5
tp731
atp732
a(S'rozszerzenia'
p733
(dp734
S'VERB'
p735
F0.985101
sS'NOUN'
p736
F0.014899
s(lp737
(g114
I6
tp738
atp739
a(S'mandatu'
p740
(dp741
S'NOUN'
p742
F1.0
s(lp743
(g153
I8
tp744
atp745
a(S'jest'
p746
(dp747
S'VERB'
p748
F1.0
s(lp749
(g146
I9
tp750
atp751
a(S'nawet'
p752
(dp753
S'PRT'
p754
F0.999643
sS'CONJ'
p755
F0.000357
s(lp756
(g31
I10
tp757
atp758
a(S'zagwarantowane'
p759
(dp760
S'VERB'
p761
F0.999999
s(lp762
(g62
I11
tp763
atp764
a(S'w'
p765
(dp766
S'ADJ'
p767
F0.0
sg164
F0.0
sS'NOUN'
p768
F0.0
sS'ADP'
p769
F0.999999
s(lp770
(g23
I12
tp771
atp772
a(S'traktatach'
p773
(dp774
S'ADV'
p775
F3.1e-05
sS'ADJ'
p776
F0.0012319999999999998
sS'VERB'
p777
F3e-06
sS'NOUN'
p778
F0.998729
s(lp779
(g55
I14
tp780
atp781
a(g156
(dp782
g156
F1.0
s(lp783
(g156
I15
tp784
atp785
asS'sl'
p786
(lp787
(S'verjamem'
p788
(dp789
S'VERB'
p790
F1.0
s(lp791
(g14
I1
tp792
atp793
a(g327
(dp794
g156
F1.0
s(lp795
tp796
a(S'da'
p797
(dp798
S'PRT'
p799
F4e-06
sS'CONJ'
p800
F0.999979
sS'VERB'
p801
F1.7e-05
sg164
F1e-06
s(lp802
(g87
I2
tp803
atp804
a(S'je'
p805
(dp806
S'PRON'
p807
F0.001234
sS'VERB'
p808
F0.998766
sg164
F0.0
s(lp809
(g146
I9
tp810
atp811
a(S'na\xc5\xa1a'
p812
(dp813
S'PRON'
p814
F1.0
s(lp815
(g69
I3
tp816
atp817
a(S'pravica'
p818
(dp819
S'NOUN'
p820
F1.0
s(lp821
(g78
I4
tp822
atp823
a(S'glede'
p824
(dp825
S'ADV'
p826
F0.028067
sS'ADP'
p827
F0.971933
s(lp828
(g107
I5
tp829
atp830
a(S'podalj\xc5\xa1anja'
p831
(dp832
S'NOUN'
p833
F1.0
s(lp834
(g114
I6
tp835
atp836
a(S'mandata'
p837
(dp838
S'NOUN'
p839
F1.0
s(lp840
(g153
I8
tp841
atp842
a(S'navedena'
p843
(dp844
S'ADJ'
p845
F1.0
s(lp846
(g62
I11
tp847
atp848
a(g678
(dp849
S'ADP'
p850
F1.0
s(lp851
(g23
I12
tp852
atp853
a(S'pogodbah'
p854
(dp855
S'NOUN'
p856
F1.0
s(lp857
(g55
I14
tp858
atp859
a(g156
(dp860
g156
F1.0
s(lp861
(g156
I15
tp862
atp863
asS'es'
p864
(lp865
(S'creo'
p866
(dp867
S'VERB'
p868
F1.0
s(lp869
(g14
I1
tp870
atp871
a(S'que'
p872
(dp873
g164
F2e-06
sS'CONJ'
p874
F0.999998
s(lp875
(g87
I2
tp876
atp877
a(S'nuestro'
p878
(dp879
S'PRON'
p880
F0.99852
sS'ADJ'
p881
F0.00148
s(lp882
(g69
I3
tp883
atp884
a(S'derecho'
p885
(dp886
S'ADV'
p887
F0.002277
sS'ADJ'
p888
F0.180729
sS'NOUN'
p889
F0.816995
s(lp890
(g78
I4
tp891
atp892
a(S'a'
p893
(dp894
g164
F8.9e-05
sS'CONJ'
p895
F0.103404
sS'ADP'
p896
F0.896507
s(lp897
(g107
I5
tp898
atp899
a(S'ampliar'
p900
(dp901
S'VERB'
p902
F1.0
s(lp903
(g114
I6
tp904
atp905
a(S'el'
p906
(dp907
S'PRON'
p908
F0.0
sS'DET'
p909
F1.0
s(lp910
(g122
I7
tp911
atp912
a(S'mandato'
p913
(dp914
S'NOUN'
p915
F1.0
s(lp916
(g153
I8
tp917
atp918
a(S'est\xc3\xa1'
p919
(dp920
S'VERB'
p921
F1.0
s(lp922
(g146
I9
tp923
atp924
a(S'incluso'
p925
(dp926
S'ADV'
p927
F1.0
s(lp928
(g31
I10
tp929
atp930
a(S'establecido'
p931
(dp932
S'VERB'
p933
F0.994582
sS'ADJ'
p934
F0.005418
s(lp935
(g62
I11
tp936
atp937
a(S'en'
p938
(dp939
g164
F0.0
sS'CONJ'
p940
F0.0
sS'ADP'
p941
F1.0
s(lp942
(g23
I12
tp943
atp944
a(S'los'
p945
(dp946
S'PRON'
p947
F0.0
sS'DET'
p948
F1.0
s(lp949
(g47
I13
tp950
atp951
a(S'tratados'
p952
(dp953
S'VERB'
p954
F1.0
s(lp955
(g55
I14
tp956
atp957
a(g156
(dp958
g156
F1.0
s(lp959
(g156
I15
tp960
atp961
as.