(dp0
S'fr'
p1
(lp2
(S"c'"
p3
(dp4
S'ADJ'
p5
F0.079749
sS'VERB'
p6
F0.5393100000000001
sS'NOUN'
p7
F0.380941
s(lp8
(S'that'
p9
I0
tp10
atp11
a(S'est'
p12
(dp13
S'VERB'
p14
F0.99664
sS'NOUN'
p15
F0.00336
s(lp16
(S'is'
p17
I1
tp18
atp19
a(S'ce'
p20
(dp21
S'PRON'
p22
F1.0
s(lp23
(S'it'
p24
I5
tp25
atp26
a(S'que'
p27
(dp28
S'ADV'
p29
F0.050334
sS'PRON'
p30
F0.872197
sS'CONJ'
p31
F0.077468
s(lp32
(S'as'
p33
I2
tp34
atp35
a(S"j'"
p36
(dp37
S'ADJ'
p38
F0.210734
sS'VERB'
p39
F0.10573300000000001
sS'NOUN'
p40
F0.679148
sS'X'
p41
F0.004384
s(lp42
tp43
a(S'en'
p44
(dp45
S'PRON'
p46
F0.994052
sS'ADP'
p47
F0.005948
s(lp48
(S'i'
p49
I3
tp50
atp51
a(S'comprends'
p52
(dp53
S'VERB'
p54
F1.0
s(lp55
(S'understand'
p56
I4
tp57
atp58
a(S'.'
p59
(dp60
g59
F1.0
s(lp61
(g59
I6
tp62
atp63
asS'en'
p64
(lp65
(g9
(dp66
S'ADV'
p67
F0.008261
sS'DET'
p68
F0.991729
sS'ADP'
p69
F9e-06
s(lp70
(g9
I0
tp71
atp72
a(g17
(dp73
S'VERB'
p74
F1.0
s(lp75
(g17
I1
tp76
atp77
a(g33
(dp78
S'ADV'
p79
F0.384966
sS'ADP'
p80
F0.615034
s(lp81
(g33
I2
tp82
atp83
a(g49
(dp84
g41
F0.001451
sS'NOUN'
p85
F0.998549
s(lp86
(g49
I3
tp87
atp88
a(g56
(dp89
S'VERB'
p90
F1.0
s(lp91
(g56
I4
tp92
atp93
a(g24
(dp94
S'PRON'
p95
F1.0
s(lp96
(g24
I5
tp97
atp98
a(g59
(dp99
g59
F1.0
s(lp100
(g59
I6
tp101
atp102
asS'nl'
p103
(lp104
(S'zo'
p105
(dp106
S'ADV'
p107
F0.999948
sg41
F3.2e-05
sS'CONJ'
p108
F2e-05
s(lp109
(g33
I2
tp110
atp111
a(S'heb'
p112
(dp113
S'VERB'
p114
F1.0
s(lp115
tp116
a(S'ik'
p117
(dp118
S'PRON'
p119
F1.0
sS'NOUN'
p120
F0.0
s(lp121
(g49
I3
tp122
atp123
a(S'het'
p124
(dp125
S'PRON'
p126
F0.138535
sS'DET'
p127
F0.861465
s(lp128
(g24
I5
tp129
atp130
a(S'begrepen'
p131
(dp132
S'VERB'
p133
F1.0
s(lp134
(g56
I4
tp135
atp136
a(g59
(dp137
g59
F1.0
s(lp138
(g59
I6
tp139
atp140
asS'de'
p141
(lp142
(S'so'
p143
(dp144
S'ADV'
p145
F0.999995
sS'PRON'
p146
F5e-06
s(lp147
(g33
I2
tp148
atp149
a(S'habe'
p150
(dp151
S'VERB'
p152
F1.0
s(lp153
tp154
a(S'ich'
p155
(dp156
S'PRON'
p157
F1.0
s(lp158
(g49
I3
tp159
atp160
a(S'es'
p161
(dp162
S'PRON'
p163
F1.0
s(lp164
(g24
I5
tp165
atp166
a(S'verstanden'
p167
(dp168
S'VERB'
p169
F0.992256
s(lp170
(g56
I4
tp171
atp172
a(g59
(dp173
g59
F1.0
s(lp174
(g59
I6
tp175
atp176
asS'it'
p177
(lp178
(S'e'
p179
(dp180
S'CONJ'
p181
F1.0
s(lp182
(g9
I0
tp183
atp184
a(S"'"
p185
(dp186
g59
F1.0
s(lp187
(g17
I1
tp188
atp189
a(S'ci\xc3\xb2'
p190
(dp191
S'PRON'
p192
F1.0
s(lp193
(g33
I2
tp194
atp195
a(S'che'
p196
(dp197
S'PRON'
p198
F0.998575
sS'CONJ'
p199
F0.001189
sS'ADJ'
p200
F0.000236
s(lp201
tp202
a(S'ho'
p203
(dp204
S'VERB'
p205
F1.0
s(lp206
(g49
I3
tp207
atp208
a(S'capito'
p209
(dp210
S'VERB'
p211
F1.0
s(lp212
(g56
I4
tp213
atp214
a(g59
(dp215
g59
F1.0
s(lp216
(g59
I6
tp217
atp218
asS'sk'
p219
(lp220
(S'tak'
p221
(dp222
S'PRON'
p223
F0.724732
sS'CONJ'
p224
F0.134708
sg41
F0.140561
s(lp225
(g33
I2
tp226
atp227
a(S'som'
p228
(dp229
S'VERB'
p230
F1.0
s(lp231
(g49
I3
tp232
atp233
a(S'to'
p234
(dp235
S'PRON'
p236
F0.990834
sS'CONJ'
p237
F0.001435
sg41
F0.00773
s(lp238
(g24
I5
tp239
atp240
a(S'pochopil'
p241
(dp242
S'VERB'
p243
F0.9999990000000001
s(lp244
(g56
I4
tp245
atp246
a(g59
(dp247
g59
F1.0
s(lp248
(g59
I6
tp249
atp250
asS'pl'
p251
(lp252
(S'tak'
p253
(dp254
S'ADV'
p255
F0.851305
sS'NOUN'
p256
F4.3e-05
sS'PRT'
p257
F0.13295
sg41
F1.2e-05
sS'CONJ'
p258
F0.001983
sS'ADJ'
p259
F0.013705
s(lp260
(g33
I2
tp261
atp262
a(S'zrozumia\xc5\x82em'
p263
(dp264
S'ADV'
p265
F0.04839
sS'ADJ'
p266
F0.19137
sS'VERB'
p267
F0.286775
sS'NOUN'
p268
F0.473467
s(lp269
tp270
a(S't\xc4\x99'
p271
(dp272
S'ADJ'
p273
F1.0
s(lp274
(g24
I5
tp275
atp276
a(S'wypowied\xc5\xba'
p277
(dp278
S'NOUN'
p279
F1.0
s(lp280
(g56
I4
tp281
atp282
a(g59
(dp283
g59
F1.0
s(lp284
(g59
I6
tp285
atp286
asS'sl'
p287
(lp288
(S'tako'
p289
(dp290
S'ADV'
p291
F0.815504
sS'PRON'
p292
F0.062832
sS'CONJ'
p293
F0.121664
s(lp294
(g33
I2
tp295
atp296
a(S'sem'
p297
(dp298
S'ADV'
p299
F0.020203
sS'PRT'
p300
F0.003999
sS'VERB'
p301
F0.975798
s(lp302
tp303
a(S'to'
p304
(dp305
S'PRON'
p306
F0.999648
sg41
F0.000352
s(lp307
(g24
I5
tp308
atp309
a(S'jaz'
p310
(dp311
S'PRON'
p312
F1.0
s(lp313
(g49
I3
tp314
atp315
a(S'razumel'
p316
(dp317
S'VERB'
p318
F1.0
s(lp319
(g56
I4
tp320
atp321
a(g59
(dp322
g59
F1.0
s(lp323
(g59
I6
tp324
atp325
asS'es'
p326
(lp327
(S'as\xc3\xad'
p328
(dp329
S'ADV'
p330
F0.55689
sS'CONJ'
p331
F0.44311
s(lp332
(g9
I0
tp333
atp334
a(S'lo'
p335
(dp336
S'PRON'
p337
F0.999401
sS'DET'
p338
F0.000599
s(lp339
(g33
I2
tp340
atp341
a(S'he'
p342
(dp343
S'VERB'
p344
F1.0
s(lp345
(g49
I3
tp346
atp347
a(S'entendido'
p348
(dp349
S'VERB'
p350
F0.995846
sS'NOUN'
p351
F0.004154
s(lp352
(g56
I4
tp353
atp354
a(g59
(dp355
g59
F1.0
s(lp356
(g59
I6
tp357
atp358
as.