(dp0
S'fr'
p1
(lp2
(S"l'"
p3
(dp4
S'ADJ'
p5
F0.079749
sS'VERB'
p6
F0.5393100000000001
sS'NOUN'
p7
F0.380941
s(lp8
tp9
a(S'un'
p10
(dp11
S'DET'
p12
F0.127543
sS'NUM'
p13
F0.55688
sS'NOUN'
p14
F0.315577
s(lp15
(S'one'
p16
I0
tp17
atp18
a(S'de'
p19
(dp20
S'ADP'
p21
F1.0
s(lp22
(S'of'
p23
I1
tp24
atp25
a(S'ces'
p26
(dp27
S'PRON'
p28
F1.0
s(lp29
(S'these'
p30
I2
tp31
atp32
a(S'objectifs'
p33
(dp34
S'ADJ'
p35
F0.13006
sS'NOUN'
p36
F0.86994
s(lp37
(S'objectives'
p38
I4
tp39
atp40
a(S'quantifi\xc3\xa9s'
p41
(dp42
S'VERB'
p43
F1.0
s(lp44
(S'quantified'
p45
I3
tp46
atp47
a(S'-'
p48
(dp49
S'.'
p50
F1.0
s(lp51
(g48
I5
tp52
atp53
a(S'et'
p54
(dp55
S'CONJ'
p56
F1.0
s(lp57
(S'and'
p58
I6
tp59
atp60
a(S'nous'
p61
(dp62
S'PRON'
p63
F1.0
s(lp64
(S'we'
p65
I7
tp66
atp67
a(S'verrons'
p68
(dp69
S'VERB'
p70
F1.0
s(lp71
(S'will'
p72
I8
tp73
atp74
a(S'bien'
p75
(dp76
S'ADV'
p77
F0.991366
sS'NOUN'
p78
F0.001218
sS'ADJ'
p79
F0.007416
s(lp80
(S'see'
p81
I9
tp82
atp83
a(S"s'"
p84
(dp85
S'NOUN'
p86
F0.041312
sS'VERB'
p87
F0.7536599999999998
sS'ADJ'
p88
F0.205028
s(lp89
(S'if'
p90
I10
tp91
atp92
a(S'ils'
p93
(dp94
S'PRON'
p95
F1.0
s(lp96
(S'they'
p97
I11
tp98
atp99
a(S'sont'
p100
(dp101
S'VERB'
p102
F1.0
s(lp103
(S'are'
p104
I12
tp105
atp106
a(S'adopt\xc3\xa9s'
p107
(dp108
S'VERB'
p109
F1.0
s(lp110
(S'adopted'
p111
I13
tp112
atp113
a(S'les'
p114
(dp115
S'PRON'
p116
F1e-05
sS'DET'
p117
F0.9979
sS'ADP'
p118
F0.00209
s(lp119
(S'on'
p120
I14
tp121
atp122
a(S'25'
p123
(dp124
S'X'
p125
F0.000419
sS'NUM'
p126
F0.999581
s(lp127
(S'25'
p128
I15
tp129
atp130
a(S'et'
p131
(dp132
S'CONJ'
p133
F1.0
s(lp134
(S'and'
p135
I16
tp136
atp137
a(S'26'
p138
(dp139
g125
F4e-06
sS'NUM'
p140
F0.999996
s(lp141
(S'26'
p142
I17
tp143
atp144
a(S'mars'
p145
(dp146
S'NOUN'
p147
F1.0
s(lp148
tp149
a(S'\xc3\xa0'
p150
(dp151
S'ADP'
p152
F1.0
s(lp153
(S'at'
p154
I19
tp155
atp156
a(S"l'"
p157
(dp158
S'ADJ'
p159
F0.160704
sS'VERB'
p160
F0.06480800000000002
sS'NOUN'
p161
F0.774488
s(lp162
(S'the'
p163
I20
tp164
atp165
a(S'occasion'
p166
(dp167
S'NOUN'
p168
F1.0
s(lp169
(S'march'
p170
I18
tp171
atp172
a(S'du'
p173
(dp174
S'ADP'
p175
F1.0
s(lp176
tp177
a(S'conseil'
p178
(dp179
S'NOUN'
p180
F1.0
s(lp181
(S'council'
p182
I22
tp183
atp184
a(S'europ\xc3\xa9en'
p185
(dp186
S'NOUN'
p187
F0.011161
sS'ADJ'
p188
F0.988839
s(lp189
(S'european'
p190
I21
tp191
atp192
a(S'qui'
p193
(dp194
S'PRON'
p195
F1.0
s(lp196
(S'which'
p197
I24
tp198
atp199
a(S'doit'
p200
(dp201
S'VERB'
p202
F0.999985
sS'NOUN'
p203
F1.5e-05
s(lp204
(S'has'
p205
I25
tp206
atp207
a(S'examiner'
p208
(dp209
S'VERB'
p210
F1.0
s(lp211
(S'examine'
p212
I27
tp213
atp214
a(S'la'
p215
(dp216
S'PRON'
p217
F6e-06
sS'DET'
p218
F0.999994
sS'NOUN'
p219
F0.0
s(lp220
(S'the'
p221
I28
tp222
atp223
a(S'communication'
p224
(dp225
S'NOUN'
p226
F1.0
s(lp227
(S'communication'
p228
I29
tp229
atp230
a(S'de'
p231
(dp232
S'ADP'
p233
F1.0
s(lp234
(S'from'
p235
I30
tp236
atp237
a(S'la'
p238
(dp239
S'PRON'
p240
F1.2e-05
sS'DET'
p241
F0.999988
sS'NOUN'
p242
F0.0
s(lp243
(S'the'
p244
I31
tp245
atp246
a(S'commission'
p247
(dp248
S'NOUN'
p249
F1.0
s(lp250
(S'commission'
p251
I32
tp252
atp253
a(g48
(dp254
g50
F1.0
s(lp255
(g48
I33
tp256
atp257
a(S'est'
p258
(dp259
S'VERB'
p260
F0.999387
sS'NOUN'
p261
F0.000613
s(lp262
(S'is'
p263
I34
tp264
atp265
a(S'une'
p266
(dp267
S'NOUN'
p268
F1.2e-05
sS'NUM'
p269
F0.00393
sS'DET'
p270
F0.996059
s(lp271
(S'a'
p272
I35
tp273
atp274
a(S'r\xc3\xa9duction'
p275
(dp276
S'NOUN'
p277
F1.0
s(lp278
(S'reduction'
p279
I38
tp280
atp281
a(S'de'
p282
(dp283
S'ADP'
p284
F1.0
s(lp285
(S'in'
p286
I39
tp287
atp288
a(S'25'
p289
(dp290
g125
F0.010548
sS'NUM'
p291
F0.989452
s(lp292
(S'25'
p293
I36
tp294
atp295
a(S'%'
p296
(dp297
g125
F1.0
s(lp298
(g296
I37
tp299
atp300
a(S'du'
p301
(dp302
S'ADP'
p303
F1.0
s(lp304
(S'the'
p305
I40
tp306
atp307
a(S'nombre'
p308
(dp309
S'VERB'
p310
F0.0
sS'NOUN'
p311
F1.0
s(lp312
(S'number'
p313
I41
tp314
atp315
a(S'de'
p316
(dp317
S'ADP'
p318
F1.0
s(lp319
(S'of'
p320
I42
tp321
atp322
a(S'personnes'
p323
(dp324
S'NOUN'
p325
F1.0
s(lp326
(S'people'
p327
I43
tp328
atp329
a(S'qui'
p330
(dp331
S'PRON'
p332
F1.0
s(lp333
(S'who'
p334
I44
tp335
atp336
a(S'risquent'
p337
(dp338
S'VERB'
p339
F1.0
s(lp340
(S'risk'
p341
I47
tp342
atp343
a(S'de'
p344
(dp345
S'ADP'
p346
F1.0
s(lp347
(S'of'
p348
I48
tp349
atp350
a(S'tomber'
p351
(dp352
S'VERB'
p353
F0.968482
sS'NOUN'
p354
F0.031518
s(lp355
tp356
a(S'dans'
p357
(dp358
S'NOUN'
p359
F2e-05
sS'ADP'
p360
F0.99998
s(lp361
(S'entering'
p362
I49
tp363
atp364
a(S'la'
p365
(dp366
S'PRON'
p367
F1.2e-05
sS'DET'
p368
F0.999988
sS'NOUN'
p369
F0.0
s(lp370
tp371
a(S'pauvret\xc3\xa9'
p372
(dp373
S'NOUN'
p374
F1.0
s(lp375
(S'poverty'
p376
I50
tp377
atp378
a(g50
(dp379
g50
F1.0
s(lp380
(g50
I51
tp381
atp382
asS'en'
p383
(lp384
(g16
(dp385
S'PRON'
p386
F0.018298
sS'NUM'
p387
F0.981327
sS'NOUN'
p388
F0.000375
s(lp389
(g16
I0
tp390
atp391
a(g23
(dp392
S'ADP'
p393
F1.0
s(lp394
(g23
I1
tp395
atp396
a(g30
(dp397
S'NOUN'
p398
F2.5e-05
sS'DET'
p399
F0.999975
s(lp400
(g30
I2
tp401
atp402
a(g45
(dp403
S'VERB'
p404
F1.0
s(lp405
(g45
I3
tp406
atp407
a(g38
(dp408
S'NOUN'
p409
F1.0
s(lp410
(g38
I4
tp411
atp412
a(g48
(dp413
g50
F1.0
s(lp414
(g48
I5
tp415
atp416
a(g58
(dp417
S'CONJ'
p418
F0.999998
sS'NOUN'
p419
F2e-06
s(lp420
(g58
I6
tp421
atp422
a(g65
(dp423
S'PRON'
p424
F1.0
s(lp425
(g65
I7
tp426
atp427
a(g72
(dp428
S'VERB'
p429
F1.0
sS'NOUN'
p430
F0.0
s(lp431
(g72
I8
tp432
atp433
a(g81
(dp434
S'VERB'
p435
F0.9999990000000001
sS'NOUN'
p436
F2e-06
s(lp437
(g81
I9
tp438
atp439
a(g90
(dp440
S'ADP'
p441
F1.0
s(lp442
(g90
I10
tp443
atp444
a(g97
(dp445
S'PRON'
p446
F1.0
s(lp447
(g97
I11
tp448
atp449
a(g104
(dp450
S'VERB'
p451
F1.0
sS'NOUN'
p452
F0.0
s(lp453
(g104
I12
tp454
atp455
a(g111
(dp456
S'VERB'
p457
F0.999062
sS'ADJ'
p458
F0.000938
s(lp459
(g111
I13
tp460
atp461
a(g120
(dp462
S'ADV'
p463
F0.005381
sS'PRT'
p464
F0.005408
sS'ADJ'
p465
F0.0
sS'ADP'
p466
F0.98921
sS'NOUN'
p467
F0.0
s(lp468
(g120
I14
tp469
atp470
a(g128
(dp471
S'ADV'
p472
F2.8e-05
sS'ADJ'
p473
F0.001621
sS'NUM'
p474
F0.995311
sS'NOUN'
p475
F0.00304
sg125
F0.0
s(lp476
(g128
I15
tp477
atp478
a(g135
(dp479
S'CONJ'
p480
F0.999841
sS'NOUN'
p481
F0.000159
s(lp482
(g135
I16
tp483
atp484
a(g142
(dp485
S'ADV'
p486
F1.5e-05
sS'NOUN'
p487
F0.00012
sS'NUM'
p488
F0.997858
sS'ADJ'
p489
F0.002003
sg125
F3e-06
s(lp490
(g142
I17
tp491
atp492
a(g170
(dp493
S'VERB'
p494
F2.4e-05
sS'NOUN'
p495
F0.999976
s(lp496
(g170
I18
tp497
atp498
a(g154
(dp499
S'NOUN'
p500
F1e-06
sS'ADP'
p501
F0.999999
s(lp502
(g154
I19
tp503
atp504
a(g163
(dp505
S'NOUN'
p506
F1e-06
sS'DET'
p507
F0.999999
s(lp508
(g163
I20
tp509
atp510
a(g190
(dp511
S'NOUN'
p512
F0.10881199999999999
sS'VERB'
p513
F1.1e-05
sS'ADJ'
p514
F0.891178
s(lp515
(g190
I21
tp516
atp517
a(g182
(dp518
S'NOUN'
p519
F1.0
s(lp520
(g182
I22
tp521
atp522
a(S','
p523
(dp524
g50
F1.0
s(lp525
(g523
I23
tp526
atp527
a(g197
(dp528
S'DET'
p529
F1.0
s(lp530
(g197
I24
tp531
atp532
a(g205
(dp533
S'VERB'
p534
F1.0
s(lp535
(g205
I25
tp536
atp537
a(S'to'
p538
(dp539
S'ADV'
p540
F1e-06
sS'PRT'
p541
F0.999999
sS'ADP'
p542
F0.0
s(lp543
(g538
I26
tp544
atp545
a(g212
(dp546
S'VERB'
p547
F1.0
s(lp548
(g212
I27
tp549
atp550
a(g221
(dp551
S'NOUN'
p552
F1e-06
sS'DET'
p553
F0.999999
s(lp554
(g221
I28
tp555
atp556
a(g228
(dp557
S'NOUN'
p558
F1.0
s(lp559
(g228
I29
tp560
atp561
a(g235
(dp562
S'ADP'
p563
F1.0
s(lp564
(g235
I30
tp565
atp566
a(g244
(dp567
S'NOUN'
p568
F1e-06
sS'DET'
p569
F0.999999
s(lp570
(g244
I31
tp571
atp572
a(g251
(dp573
S'VERB'
p574
F9e-06
sS'NOUN'
p575
F0.99999
s(lp576
(g251
I32
tp577
atp578
a(g48
(dp579
g50
F1.0
s(lp580
(g48
I33
tp581
atp582
a(g263
(dp583
S'VERB'
p584
F1.0
s(lp585
(g263
I34
tp586
atp587
a(g272
(dp588
S'NOUN'
p589
F0.0
sS'DET'
p590
F1.0
s(lp591
(g272
I35
tp592
atp593
a(g293
(dp594
S'ADV'
p595
F3e-06
sS'NOUN'
p596
F0.000189
sS'NUM'
p597
F0.994559
sS'ADJ'
p598
F0.00525
sg125
F0.0
s(lp599
(g293
I36
tp600
atp601
a(g296
(dp602
S'NOUN'
p603
F1.0
s(lp604
(g296
I37
tp605
atp606
a(g279
(dp607
S'NOUN'
p608
F1.0
s(lp609
(g279
I38
tp610
atp611
a(g286
(dp612
S'ADV'
p613
F0.000191
sS'PRT'
p614
F0.000279
sS'ADP'
p615
F0.999531
s(lp616
(g286
I39
tp617
atp618
a(g305
(dp619
S'NOUN'
p620
F1e-06
sS'DET'
p621
F0.999999
s(lp622
(g305
I40
tp623
atp624
a(g313
(dp625
S'ADJ'
p626
F0.000161
sS'VERB'
p627
F0.0
sS'NOUN'
p628
F0.999838
s(lp629
(g313
I41
tp630
atp631
a(g320
(dp632
S'ADP'
p633
F1.0
s(lp634
(g320
I42
tp635
atp636
a(g327
(dp637
S'VERB'
p638
F1e-06
sS'NOUN'
p639
F0.999999
s(lp640
(g327
I43
tp641
atp642
a(g334
(dp643
S'PRON'
p644
F1.0
s(lp645
(g334
I44
tp646
atp647
a(S'are'
p648
(dp649
S'VERB'
p650
F0.999879
sS'NOUN'
p651
F0.000121
s(lp652
(g648
I45
tp653
atp654
a(S'at'
p655
(dp656
S'NOUN'
p657
F4.4000000000000006e-05
sS'ADP'
p658
F0.999956
s(lp659
(g655
I46
tp660
atp661
a(g341
(dp662
S'VERB'
p663
F0.00032799999999999995
sS'NOUN'
p664
F0.999673
s(lp665
(g341
I47
tp666
atp667
a(g348
(dp668
S'ADP'
p669
F1.0
s(lp670
(g348
I48
tp671
atp672
a(g362
(dp673
S'VERB'
p674
F1.0
s(lp675
(g362
I49
tp676
atp677
a(g376
(dp678
S'NOUN'
p679
F1.0
s(lp680
(g376
I50
tp681
atp682
a(g50
(dp683
g50
F1.0
s(lp684
(g50
I51
tp685
atp686
asS'nl'
p687
(lp688
(S'het'
p689
(dp690
S'PRON'
p691
F0.962086
sS'DET'
p692
F0.037914
s(lp693
(g30
I2
tp694
atp695
a(S'valt'
p696
(dp697
S'VERB'
p698
F1.0
s(lp699
(g45
I3
tp700
atp701
a(S'nog'
p702
(dp703
S'ADV'
p704
F1.0
s(lp705
(g16
I0
tp706
atp707
a(S'af'
p708
(dp709
S'ADV'
p710
F0.999996
sS'ADP'
p711
F4e-06
s(lp712
tp713
a(S'te'
p714
(dp715
S'PRT'
p716
F1.0
s(lp717
tp718
a(S'wachten'
p719
(dp720
S'VERB'
p721
F0.999752
sS'NOUN'
p722
F0.000248
s(lp723
(g81
I9
tp724
atp725
a(S'of'
p726
(dp727
S'CONJ'
p728
F1.0
s(lp729
(g90
I10
tp730
atp731
a(S'de'
p732
(dp733
S'DET'
p734
F1.0
s(lp735
(g163
I20
tp736
atp737
a(S'europese'
p738
(dp739
S'NOUN'
p740
F1.0
s(lp741
(g190
I21
tp742
atp743
a(S'raad'
p744
(dp745
S'VERB'
p746
F0.012692
sS'NOUN'
p747
F0.987308
s(lp748
(g182
I22
tp749
atp750
a(g523
(dp751
g50
F1.0
s(lp752
(g523
I23
tp753
atp754
a(S'die'
p755
(dp756
S'PRON'
p757
F1.0
s(lp758
(g197
I24
tp759
atp760
a(S'de'
p761
(dp762
S'DET'
p763
F1.0
s(lp764
(g221
I28
tp765
atp766
a(S'mededeling'
p767
(dp768
S'NOUN'
p769
F1.0
s(lp770
(g228
I29
tp771
atp772
a(S'van'
p773
(dp774
S'ADP'
p775
F1.0
s(lp776
(g235
I30
tp777
atp778
a(S'de'
p779
(dp780
S'DET'
p781
F1.0
s(lp782
(g244
I31
tp783
atp784
a(S'commissie'
p785
(dp786
S'NOUN'
p787
F1.0
s(lp788
(g251
I32
tp789
atp790
a(S'moet'
p791
(dp792
S'VERB'
p793
F1.0
s(lp794
(g205
I25
tp795
atp796
a(S'bestuderen'
p797
(dp798
S'VERB'
p799
F0.9947860000000001
sS'NOUN'
p800
F0.005215
s(lp801
(g212
I27
tp802
atp803
a(g523
(dp804
g50
F1.0
s(lp805
(g48
I33
tp806
atp807
a(S'de'
p808
(dp809
S'DET'
p810
F1.0
s(lp811
tp812
a(S'meetbare'
p813
(dp814
S'NOUN'
p815
F0.001574
sS'ADJ'
p816
F0.998426
s(lp817
(g45
I3
tp818
atp819
a(S'streefdoelen'
p820
(dp821
S'NOUN'
p822
F1.0
s(lp823
(g38
I4
tp824
atp825
a(S'op'
p826
(dp827
S'ADV'
p828
F0.010653
sS'ADJ'
p829
F0.0
sS'ADP'
p830
F0.989347
s(lp831
(g120
I14
tp832
atp833
a(S'25'
p834
(dp835
S'NUM'
p836
F1.0
s(lp837
(g128
I15
tp838
atp839
a(S'en'
p840
(dp841
S'CONJ'
p842
F1.0
s(lp843
(g135
I16
tp844
atp845
a(S'26'
p846
(dp847
S'NUM'
p848
F1.0
s(lp849
(g142
I17
tp850
atp851
a(S'maart'
p852
(dp853
S'NOUN'
p854
F1.0
s(lp855
(g170
I18
tp856
atp857
a(S'zal'
p858
(dp859
S'VERB'
p860
F1.0
s(lp861
(g72
I8
tp862
atp863
a(S'aannemen'
p864
(dp865
S'VERB'
p866
F0.999896
sS'NOUN'
p867
F0.000105
s(lp868
(g111
I13
tp869
atp870
a(g523
(dp871
g50
F1.0
s(lp872
(g48
I5
tp873
atp874
a(S'maar'
p875
(dp876
S'ADV'
p877
F0.043147
sS'CONJ'
p878
F0.956852
sS'NOUN'
p879
F1e-06
s(lp880
(g58
I6
tp881
atp882
a(S'een'
p883
(dp884
S'ADJ'
p885
F0.0
sS'PRON'
p886
F0.008375
sS'NUM'
p887
F1e-06
sS'DET'
p888
F0.991623
s(lp889
tp890
a(S'ervan'
p891
(dp892
S'ADV'
p893
F1.0
s(lp894
(g97
I11
tp895
atp896
a(S'is'
p897
(dp898
S'VERB'
p899
F1.0
s(lp900
(g263
I34
tp901
atp902
a(S'de'
p903
(dp904
S'DET'
p905
F1.0
s(lp906
(g272
I35
tp907
atp908
a(S'vermindering'
p909
(dp910
S'NOUN'
p911
F1.0
s(lp912
(g279
I38
tp913
atp914
a(S'met'
p915
(dp916
S'ADP'
p917
F1.0
s(lp918
(g286
I39
tp919
atp920
a(S'25'
p921
(dp922
S'NUM'
p923
F1.0
s(lp924
(g293
I36
tp925
atp926
a(S'procent'
p927
(dp928
S'NOUN'
p929
F1.0
s(lp930
(g296
I37
tp931
atp932
a(S'van'
p933
(dp934
S'ADP'
p935
F1.0
s(lp936
tp937
a(S'het'
p938
(dp939
S'PRON'
p940
F0.000927
sS'DET'
p941
F0.999073
s(lp942
(g305
I40
tp943
atp944
a(S'aantal'
p945
(dp946
S'NOUN'
p947
F1.0
s(lp948
(g313
I41
tp949
atp950
a(S'mensen'
p951
(dp952
S'NOUN'
p953
F1.0
s(lp954
(g327
I43
tp955
atp956
a(S'dat'
p957
(dp958
S'PRON'
p959
F0.366503
sS'CONJ'
p960
F0.633496
s(lp961
(g334
I44
tp962
atp963
a(S'het'
p964
(dp965
S'PRON'
p966
F0.023042
sS'DET'
p967
F0.976958
s(lp968
(g648
I45
tp969
atp970
a(S'risico'
p971
(dp972
S'NOUN'
p973
F1.0
s(lp974
tp975
a(S'loopt'
p976
(dp977
S'VERB'
p978
F1.0
s(lp979
(g341
I47
tp980
atp981
a(S'in'
p982
(dp983
S'ADV'
p984
F0.011246
sS'VERB'
p985
F0.0
sS'ADP'
p986
F0.988754
s(lp987
(g348
I48
tp988
atp989
a(S'armoede'
p990
(dp991
S'NOUN'
p992
F1.0
s(lp993
tp994
a(S'te'
p995
(dp996
S'PRT'
p997
F1.0
s(lp998
tp999
a(S'vervallen'
p1000
(dp1001
S'VERB'
p1002
F0.998195
sS'NOUN'
p1003
F0.0018050000000000002
s(lp1004
(g376
I50
tp1005
atp1006
a(g50
(dp1007
g50
F1.0
s(lp1008
(g50
I51
tp1009
atp1010
asS'de'
p1011
(lp1012
(S'eines'
p1013
(dp1014
S'PRON'
p1015
F0.846986
sS'DET'
p1016
F0.114897
s(lp1017
(g16
I0
tp1018
atp1019
a(S'dieser'
p1020
(dp1021
S'PRON'
p1022
F1.0
s(lp1023
(g30
I2
tp1024
atp1025
a(S'quantifizierbaren'
p1026
(dp1027
S'ADJ'
p1028
F1.0
s(lp1029
(g45
I3
tp1030
atp1031
a(S'ziele'
p1032
(dp1033
S'VERB'
p1034
F1.0
s(lp1035
tp1036
a(S'ist'
p1037
(dp1038
S'VERB'
p1039
F1.0
s(lp1040
(g263
I34
tp1041
atp1042
a(S'die'
p1043
(dp1044
S'PRON'
p1045
F0.000678
sS'DET'
p1046
F0.999321
s(lp1047
(g272
I35
tp1048
atp1049
a(S'verringerung'
p1050
(dp1051
S'ADJ'
p1052
F9.3e-05
sS'NOUN'
p1053
F0.999811
s(lp1054
(g279
I38
tp1055
atp1056
a(S'der'
p1057
(dp1058
S'PRON'
p1059
F0.000344
sS'DET'
p1060
F0.999643
s(lp1061
(g305
I40
tp1062
atp1063
a(S'anzahl'
p1064
(dp1065
S'VERB'
p1066
F0.001126
sS'NOUN'
p1067
F0.998874
s(lp1068
(g313
I41
tp1069
atp1070
a(S'der'
p1071
(dp1072
S'PRON'
p1073
F8.7e-05
sS'DET'
p1074
F0.999905
s(lp1075
(g320
I42
tp1076
atp1077
a(S'menschen'
p1078
(dp1079
S'ADJ'
p1080
F1.0
s(lp1081
(g327
I43
tp1082
atp1083
a(g523
(dp1084
g50
F1.0
s(lp1085
tp1086
a(S'die'
p1087
(dp1088
S'PRON'
p1089
F0.968612
sS'DET'
p1090
F0.026734
s(lp1091
(g334
I44
tp1092
atp1093
a(S'von'
p1094
(dp1095
S'NOUN'
p1096
F0.001471
sS'ADP'
p1097
F0.998529
s(lp1098
(g348
I48
tp1099
atp1100
a(S'armut'
p1101
(dp1102
S'ADJ'
p1103
F0.126977
sS'NOUN'
p1104
F0.806768
s(lp1105
(g376
I50
tp1106
atp1107
a(S'bedroht'
p1108
(dp1109
S'VERB'
p1110
F0.966375
sS'ADJ'
p1111
F0.032569
s(lp1112
(g341
I47
tp1113
atp1114
a(S'sind'
p1115
(dp1116
S'VERB'
p1117
F1.0
s(lp1118
(g648
I45
tp1119
atp1120
a(g523
(dp1121
g50
F1.0
s(lp1122
tp1123
a(S'um'
p1124
(dp1125
S'CONJ'
p1126
F0.525104
sS'ADP'
p1127
F0.47463
s(lp1128
(g655
I46
tp1129
atp1130
a(S'25'
p1131
(dp1132
S'NUM'
p1133
F1.0
s(lp1134
(g293
I36
tp1135
atp1136
a(g296
(dp1137
S'NOUN'
p1138
F1.0
s(lp1139
(g296
I37
tp1140
atp1141
a(g48
(dp1142
g50
F1.0
s(lp1143
(g48
I5
tp1144
atp1145
a(S'wir'
p1146
(dp1147
S'PRON'
p1148
F1.0
s(lp1149
(g65
I7
tp1150
atp1151
a(S'werden'
p1152
(dp1153
S'VERB'
p1154
F0.9963569999999999
s(lp1155
(g72
I8
tp1156
atp1157
a(S'sehen'
p1158
(dp1159
S'VERB'
p1160
F1.0
s(lp1161
(g81
I9
tp1162
atp1163
a(g523
(dp1164
g50
F1.0
s(lp1165
tp1166
a(S'ob'
p1167
(dp1168
S'ADV'
p1169
F0.000238
sS'CONJ'
p1170
F0.999652
s(lp1171
(g90
I10
tp1172
atp1173
a(S'diese'
p1174
(dp1175
S'PRON'
p1176
F1.0
s(lp1177
(g97
I11
tp1178
atp1179
a(S'ziele'
p1180
(dp1181
S'VERB'
p1182
F1.0
s(lp1183
(g38
I4
tp1184
atp1185
a(S'am'
p1186
(dp1187
S'PRT'
p1188
F0.006378
sS'ADP'
p1189
F0.993622
s(lp1190
(g120
I14
tp1191
atp1192
a(S'25.'
p1193
(dp1194
S'NUM'
p1195
F1.0
s(lp1196
(g128
I15
tp1197
atp1198
a(S'und'
p1199
(dp1200
S'CONJ'
p1201
F1.0
s(lp1202
(g135
I16
tp1203
atp1204
a(S'26.'
p1205
(dp1206
S'NUM'
p1207
F1.0
s(lp1208
(g142
I17
tp1209
atp1210
a(S'm\xc3\xa4rz'
p1211
(dp1212
S'ADJ'
p1213
F0.330123
sS'NOUN'
p1214
F0.544284
s(lp1215
(g170
I18
tp1216
atp1217
a(S'durch'
p1218
(dp1219
S'PRT'
p1220
F0.000645
sS'ADP'
p1221
F0.999286
s(lp1222
(g154
I19
tp1223
atp1224
a(S'den'
p1225
(dp1226
S'PRON'
p1227
F0.000112
sS'DET'
p1228
F0.999887
s(lp1229
(g163
I20
tp1230
atp1231
a(S'europ\xc3\xa4ischen'
p1232
(dp1233
S'ADJ'
p1234
F1.0
s(lp1235
(g190
I21
tp1236
atp1237
a(S'rat'
p1238
(dp1239
S'ADJ'
p1240
F0.359626
sS'NOUN'
p1241
F0.450919
s(lp1242
(g182
I22
tp1243
atp1244
a(g523
(dp1245
g50
F1.0
s(lp1246
(g523
I23
tp1247
atp1248
a(S'der'
p1249
(dp1250
S'PRON'
p1251
F0.988503
sS'DET'
p1252
F0.007227
s(lp1253
(g197
I24
tp1254
atp1255
a(S'die'
p1256
(dp1257
S'PRON'
p1258
F0.001342
sS'DET'
p1259
F0.998076
s(lp1260
(g221
I28
tp1261
atp1262
a(S'mitteilung'
p1263
(dp1264
S'ADJ'
p1265
F0.013896
sS'NOUN'
p1266
F0.976018
s(lp1267
(g228
I29
tp1268
atp1269
a(S'der'
p1270
(dp1271
S'PRON'
p1272
F0.000154
sS'DET'
p1273
F0.999706
s(lp1274
(g244
I31
tp1275
atp1276
a(S'kommission'
p1277
(dp1278
S'ADJ'
p1279
F0.049185
sS'NOUN'
p1280
F0.938672
s(lp1281
(g251
I32
tp1282
atp1283
a(S'untersuchen'
p1284
(dp1285
S'VERB'
p1286
F1.0
s(lp1287
(g212
I27
tp1288
atp1289
a(S'muss'
p1290
(dp1291
S'VERB'
p1292
F1.0
s(lp1293
(g205
I25
tp1294
atp1295
a(g523
(dp1296
g50
F1.0
s(lp1297
(g48
I33
tp1298
atp1299
a(S'angenommen'
p1300
(dp1301
S'VERB'
p1302
F0.986447
sS'ADJ'
p1303
F0.013553
s(lp1304
(g111
I13
tp1305
atp1306
a(S'werden'
p1307
(dp1308
S'VERB'
p1309
F0.999992
s(lp1310
(g104
I12
tp1311
atp1312
a(g50
(dp1313
g50
F1.0
s(lp1314
(g50
I51
tp1315
atp1316
asS'it'
p1317
(lp1318
(S'uno'
p1319
(dp1320
S'ADJ'
p1321
F0.14813
sS'NOUN'
p1322
F0.230569
sS'DEF'
p1323
F0.570684
sS'PRON'
p1324
F0.050617
s(lp1325
(g16
I0
tp1326
atp1327
a(S'degli'
p1328
(dp1329
S'DEF'
p1330
F0.001032
sS'ADP'
p1331
F0.998968
s(lp1332
(g23
I1
tp1333
atp1334
a(S'obiettivi'
p1335
(dp1336
S'ADJ'
p1337
F0.010639
sS'VERB'
p1338
F0.000215
sS'NOUN'
p1339
F0.989146
s(lp1340
(g38
I4
tp1341
atp1342
a(S'quantificati'
p1343
(dp1344
S'VERB'
p1345
F1.0
s(lp1346
(g45
I3
tp1347
atp1348
a(g48
(dp1349
g125
F3e-06
sg50
F0.999997
s(lp1350
(g48
I5
tp1351
atp1352
a(S'e'
p1353
(dp1354
S'CONJ'
p1355
F1.0
s(lp1356
(g58
I6
tp1357
atp1358
a(S'vedremo'
p1359
(dp1360
S'VERB'
p1361
F1.0
s(lp1362
(g81
I9
tp1363
atp1364
a(S'se'
p1365
(dp1366
S'PRON'
p1367
F0.128193
sS'CONJ'
p1368
F0.869974
sS'NOUN'
p1369
F0.001833
s(lp1370
(g90
I10
tp1371
atp1372
a(S'saranno'
p1373
(dp1374
S'VERB'
p1375
F1.0
s(lp1376
(g104
I12
tp1377
atp1378
a(S'adottati'
p1379
(dp1380
S'VERB'
p1381
F0.983244
sS'ADJ'
p1382
F0.016756
s(lp1383
(g111
I13
tp1384
atp1385
a(S'il'
p1386
(dp1387
S'DET'
p1388
F1.0
s(lp1389
(g120
I14
tp1390
atp1391
a(S'25'
p1392
(dp1393
S'NUM'
p1394
F0.993984
sg50
F0.006016
s(lp1395
(g128
I15
tp1396
atp1397
a(g1353
(dp1398
S'CONJ'
p1399
F1.0
s(lp1400
(g135
I16
tp1401
atp1402
a(S'26'
p1403
(dp1404
S'NUM'
p1405
F0.964071
sg50
F0.035929
s(lp1406
(g142
I17
tp1407
atp1408
a(S'marzo'
p1409
(dp1410
S'NOUN'
p1411
F1.0
s(lp1412
(g170
I18
tp1413
atp1414
a(S'dal'
p1415
(dp1416
S'ADP'
p1417
F1.0
s(lp1418
(g163
I20
tp1419
atp1420
a(S'consiglio'
p1421
(dp1422
S'VERB'
p1423
F0.000319
sS'NOUN'
p1424
F0.999681
s(lp1425
(g182
I22
tp1426
atp1427
a(S'europeo'
p1428
(dp1429
S'NOUN'
p1430
F0.00149
sS'ADJ'
p1431
F0.99851
s(lp1432
(g190
I21
tp1433
atp1434
a(S'che'
p1435
(dp1436
S'PRON'
p1437
F0.974947
sS'CONJ'
p1438
F0.024877
sS'ADJ'
p1439
F0.000176
s(lp1440
(g197
I24
tp1441
atp1442
a(S'deve'
p1443
(dp1444
S'VERB'
p1445
F1.0
s(lp1446
(g205
I25
tp1447
atp1448
a(S'esaminare'
p1449
(dp1450
S'VERB'
p1451
F1.0
s(lp1452
(g212
I27
tp1453
atp1454
a(S'la'
p1455
(dp1456
S'PRON'
p1457
F0.0
sS'DET'
p1458
F1.0
s(lp1459
(g221
I28
tp1460
atp1461
a(S'comunicazione'
p1462
(dp1463
S'NOUN'
p1464
F1.0
s(lp1465
(g228
I29
tp1466
atp1467
a(S'della'
p1468
(dp1469
S'DEF'
p1470
F0.001587
sS'ADP'
p1471
F0.998413
s(lp1472
(g244
I31
tp1473
atp1474
a(S'commissione'
p1475
(dp1476
S'NOUN'
p1477
F1.0
s(lp1478
(g251
I32
tp1479
atp1480
a(g48
(dp1481
g125
F0.0
sg50
F1.0
s(lp1482
(g48
I33
tp1483
atp1484
a(S'\xc3\xa8'
p1485
(dp1486
S'VERB'
p1487
F1.0
s(lp1488
(g263
I34
tp1489
atp1490
a(S'la'
p1491
(dp1492
S'PRON'
p1493
F0.0
sS'DET'
p1494
F1.0
s(lp1495
(g272
I35
tp1496
atp1497
a(S'riduzione'
p1498
(dp1499
S'NOUN'
p1500
F1.0
s(lp1501
(g279
I38
tp1502
atp1503
a(S'del'
p1504
(dp1505
S'DEF'
p1506
F6.7e-05
sS'ADP'
p1507
F0.999933
s(lp1508
(g296
I37
tp1509
atp1510
a(S'25'
p1511
(dp1512
S'NUM'
p1513
F0.9986
sg50
F0.0014
s(lp1514
(g293
I36
tp1515
atp1516
a(S'per'
p1517
(dp1518
S'CONJ'
p1519
F0.017225
sS'ADP'
p1520
F0.982775
s(lp1521
tp1522
a(S'cento'
p1523
(dp1524
S'NOUN'
p1525
F0.014847
sS'NUM'
p1526
F0.000217
sS'ADJ'
p1527
F0.984937
s(lp1528
(g296
I37
tp1529
atp1530
a(S'del'
p1531
(dp1532
S'DEF'
p1533
F0.002126
sS'ADP'
p1534
F0.997874
s(lp1535
(g305
I40
tp1536
atp1537
a(S'numero'
p1538
(dp1539
S'VERB'
p1540
F3.8e-05
sS'NOUN'
p1541
F0.999962
s(lp1542
(g313
I41
tp1543
atp1544
a(S'di'
p1545
(dp1546
S'CONJ'
p1547
F5e-06
sS'ADP'
p1548
F0.999995
s(lp1549
(g320
I42
tp1550
atp1551
a(S'individui'
p1552
(dp1553
S'VERB'
p1554
F0.0036019999999999997
sS'NOUN'
p1555
F0.996398
s(lp1556
(g327
I43
tp1557
atp1558
a(S'che'
p1559
(dp1560
S'PRON'
p1561
F0.956612
sS'CONJ'
p1562
F0.042538
sS'ADJ'
p1563
F0.000849
s(lp1564
(g334
I44
tp1565
atp1566
a(S'rischia'
p1567
(dp1568
S'VERB'
p1569
F1.0
s(lp1570
(g341
I47
tp1571
atp1572
a(S'di'
p1573
(dp1574
S'CONJ'
p1575
F2e-06
sS'ADP'
p1576
F0.999998
s(lp1577
(g348
I48
tp1578
atp1579
a(S'scivolare'
p1580
(dp1581
S'VERB'
p1582
F1.0
s(lp1583
(g362
I49
tp1584
atp1585
a(S'al'
p1586
(dp1587
S'ADP'
p1588
F1.0
s(lp1589
(g655
I46
tp1590
atp1591
a(S'di'
p1592
(dp1593
S'CONJ'
p1594
F4.2e-05
sS'ADP'
p1595
F0.999958
s(lp1596
tp1597
a(S'sotto'
p1598
(dp1599
S'ADV'
p1600
F0.214356
sS'NOUN'
p1601
F0.012457
sS'ADJ'
p1602
F0.772556
sS'ADP'
p1603
F0.00063
s(lp1604
(g286
I39
tp1605
atp1606
a(S'della'
p1607
(dp1608
S'DEF'
p1609
F0.008619
sS'ADP'
p1610
F0.991381
s(lp1611
(g376
I50
tp1612
atp1613
a(S'soglia'
p1614
(dp1615
S'VERB'
p1616
F0.00036199999999999996
sS'NOUN'
p1617
F0.999637
s(lp1618
tp1619
a(S'di'
p1620
(dp1621
S'CONJ'
p1622
F4e-06
sS'ADP'
p1623
F0.999996
s(lp1624
tp1625
a(S'povert\xc3\xa0'
p1626
(dp1627
S'NOUN'
p1628
F1.0
s(lp1629
(g376
I50
tp1630
atp1631
a(g50
(dp1632
g50
F1.0
s(lp1633
(g50
I51
tp1634
atp1635
asS'sk'
p1636
(lp1637
(S'medzi'
p1638
(dp1639
S'NOUN'
p1640
F0.000326
sS'ADP'
p1641
F0.999674
s(lp1642
(g16
I0
tp1643
atp1644
a(S'tieto'
p1645
(dp1646
S'PRON'
p1647
F1.0
s(lp1648
(g30
I2
tp1649
atp1650
a(S'kvantifikovan\xc3\xa9'
p1651
(dp1652
S'NOUN'
p1653
F0.0050750000000000005
sS'VERB'
p1654
F0.37300900000000003
sS'ADJ'
p1655
F0.621916
s(lp1656
(g45
I3
tp1657
atp1658
a(S'ciele'
p1659
(dp1660
S'NOUN'
p1661
F1.0
s(lp1662
(g38
I4
tp1663
atp1664
a(g48
(dp1665
g50
F1.0
s(lp1666
(g48
I5
tp1667
atp1668
a(g272
(dp1669
g125
F0.0015919999999999999
sS'CONJ'
p1670
F0.998385
sS'NOUN'
p1671
F1e-06
sS'ADP'
p1672
F0.0
sS'PRT'
p1673
F2.2e-05
s(lp1674
(g58
I6
tp1675
atp1676
a(S'uvid\xc3\xadme'
p1677
(dp1678
S'VERB'
p1679
F1.0
s(lp1680
(g81
I9
tp1681
atp1682
a(g523
(dp1683
g50
F1.0
s(lp1684
tp1685
a(S'\xc4\x8di'
p1686
(dp1687
g125
F0.005178
sS'CONJ'
p1688
F0.994822
s(lp1689
(g90
I10
tp1690
atp1691
a(S'bud\xc3\xba'
p1692
(dp1693
g125
F7e-06
sS'VERB'
p1694
F0.999993
s(lp1695
(g97
I11
tp1696
atp1697
a(S'prijat\xc3\xa9'
p1698
(dp1699
S'VERB'
p1700
F1.0
s(lp1701
(g111
I13
tp1702
atp1703
a(S'25.'
p1704
(dp1705
S'NUM'
p1706
F1.0
s(lp1707
(g128
I15
tp1708
atp1709
a(g272
(dp1710
g125
F0.075779
sS'CONJ'
p1711
F0.92048
sS'NOUN'
p1712
F0.001864
sS'ADP'
p1713
F0.001876
sS'PRT'
p1714
F1e-06
s(lp1715
(g135
I16
tp1716
atp1717
a(S'26.'
p1718
(dp1719
S'NUM'
p1720
F1.0
s(lp1721
(g142
I17
tp1722
atp1723
a(S'marca'
p1724
(dp1725
S'NOUN'
p1726
F1.0
s(lp1727
(g170
I18
tp1728
atp1729
a(S'na'
p1730
(dp1731
g125
F0.000155
sS'CONJ'
p1732
F1.5e-05
sS'ADP'
p1733
F0.999827
sS'PRT'
p1734
F3e-06
s(lp1735
tp1736
a(S'zasadnut\xc3\xad'
p1737
(dp1738
S'NOUN'
p1739
F1.0
s(lp1740
(g154
I19
tp1741
atp1742
a(S'eur\xc3\xb3pskej'
p1743
(dp1744
S'ADJ'
p1745
F1.0
s(lp1746
(g190
I21
tp1747
atp1748
a(S'rady'
p1749
(dp1750
S'ADJ'
p1751
F5.9e-05
sS'NOUN'
p1752
F0.999941
s(lp1753
(g182
I22
tp1754
atp1755
a(g523
(dp1756
g50
F1.0
s(lp1757
(g523
I23
tp1758
atp1759
a(S'ktor\xc3\xa9'
p1760
(dp1761
S'PRON'
p1762
F1.0
s(lp1763
(g197
I24
tp1764
atp1765
a(S'mus\xc3\xad'
p1766
(dp1767
S'VERB'
p1768
F1.0
s(lp1769
(g205
I25
tp1770
atp1771
a(S'presk\xc3\xbama\xc5\xa5'
p1772
(dp1773
S'VERB'
p1774
F1.0
s(lp1775
(g212
I27
tp1776
atp1777
a(S'ozn\xc3\xa1menie'
p1778
(dp1779
S'NOUN'
p1780
F1.0
s(lp1781
(g228
I29
tp1782
atp1783
a(S'komisie'
p1784
(dp1785
S'NOUN'
p1786
F1.0
s(lp1787
(g251
I32
tp1788
atp1789
a(g48
(dp1790
g50
F1.0
s(lp1791
(g48
I33
tp1792
atp1793
a(S'patr\xc3\xad'
p1794
(dp1795
S'VERB'
p1796
F1.0
s(lp1797
(g263
I34
tp1798
atp1799
a(S'zn\xc3\xad\xc5\xbeenie'
p1800
(dp1801
S'NOUN'
p1802
F1.0
s(lp1803
(g279
I38
tp1804
atp1805
a(S'po\xc4\x8dtu'
p1806
(dp1807
S'NOUN'
p1808
F1.0
s(lp1809
(g313
I41
tp1810
atp1811
a(S'\xc4\xbeud\xc3\xad'
p1812
(dp1813
S'NOUN'
p1814
F1.0
s(lp1815
(g327
I43
tp1816
atp1817
a(S'ohrozen\xc3\xbdch'
p1818
(dp1819
S'VERB'
p1820
F1.0
s(lp1821
(g341
I47
tp1822
atp1823
a(S'p\xc3\xa1dom'
p1824
(dp1825
S'NOUN'
p1826
F1.0
s(lp1827
tp1828
a(S'do'
p1829
(dp1830
g125
F0.00011
sS'ADP'
p1831
F0.999824
sS'PRON'
p1832
F6.6e-05
s(lp1833
(g362
I49
tp1834
atp1835
a(S'chudoby'
p1836
(dp1837
S'NOUN'
p1838
F1.0
s(lp1839
(g376
I50
tp1840
atp1841
a(S'o'
p1842
(dp1843
g125
F0.006743
sS'CONJ'
p1844
F1.9e-05
sS'NOUN'
p1845
F5.6999999999999996e-05
sS'ADP'
p1846
F0.993181
s(lp1847
(g272
I35
tp1848
atp1849
a(S'25'
p1850
(dp1851
S'NUM'
p1852
F1.0
s(lp1853
(g293
I36
tp1854
atp1855
a(g296
(dp1856
g125
F0.783518
sg50
F0.216482
s(lp1857
(g296
I37
tp1858
atp1859
a(g50
(dp1860
g50
F1.0
s(lp1861
(g50
I51
tp1862
atp1863
asS'pl'
p1864
(lp1865
(S'jednym'
p1866
(dp1867
S'NOUN'
p1868
F1.6e-05
sS'ADJ'
p1869
F0.9999849999999999
s(lp1870
(g16
I0
tp1871
atp1872
a(S'z'
p1873
(dp1874
S'PRT'
p1875
F3e-06
sS'VERB'
p1876
F0.0
sS'NOUN'
p1877
F0.0
sS'ADP'
p1878
F0.9999959999999999
sg125
F0.0
s(lp1879
(g23
I1
tp1880
atp1881
a(S'tych'
p1882
(dp1883
S'ADJ'
p1884
F0.999999
s(lp1885
(g30
I2
tp1886
atp1887
a(S'cel\xc3\xb3w'
p1888
(dp1889
S'NOUN'
p1890
F1.0
s(lp1891
tp1892
a(S'okre\xc5\x9blonych'
p1893
(dp1894
S'VERB'
p1895
F0.7035570000000001
sS'ADJ'
p1896
F0.296443
s(lp1897
tp1898
a(S'ilo\xc5\x9bciowo'
p1899
(dp1900
S'ADV'
p1901
F1.0
s(lp1902
(g45
I3
tp1903
atp1904
a(g48
(dp1905
g125
F1.9e-05
sS'NUM'
p1906
F0.0
sS'NOUN'
p1907
F3.3e-05
sg50
F0.999946
s(lp1908
(g48
I5
tp1909
atp1910
a(S'i'
p1911
(dp1912
S'PRT'
p1913
F0.037017
sS'CONJ'
p1914
F0.962393
sS'PRON'
p1915
F2.4e-05
sS'NOUN'
p1916
F9e-06
sg125
F0.000556
s(lp1917
(g58
I6
tp1918
atp1919
a(S'zobaczymy'
p1920
(dp1921
S'VERB'
p1922
F1.0
s(lp1923
(g81
I9
tp1924
atp1925
a(g523
(dp1926
g125
F0.0
sg50
F1.0
s(lp1927
tp1928
a(S'czy'
p1929
(dp1930
S'PRT'
p1931
F0.200359
sS'CONJ'
p1932
F0.799513
sS'NUM'
p1933
F0.000126
sS'NOUN'
p1934
F2e-06
s(lp1935
(g90
I10
tp1936
atp1937
a(S'cele'
p1938
(dp1939
S'NOUN'
p1940
F1.0
s(lp1941
(g38
I4
tp1942
atp1943
a(S'te'
p1944
(dp1945
g125
F0.000192
sS'ADJ'
p1946
F0.9997570000000001
sS'NOUN'
p1947
F4.9e-05
s(lp1948
(g97
I11
tp1949
atp1950
a(S'zostan\xc4\x85'
p1951
(dp1952
S'VERB'
p1953
F1.0
s(lp1954
(g104
I12
tp1955
atp1956
a(S'przyj\xc4\x99te'
p1957
(dp1958
S'VERB'
p1959
F1.0
s(lp1960
(g111
I13
tp1961
atp1962
a(S'podczas'
p1963
(dp1964
S'ADP'
p1965
F1.0
s(lp1966
(g120
I14
tp1967
atp1968
a(S'posiedzenia'
p1969
(dp1970
S'NOUN'
p1971
F1.0
s(lp1972
(g182
I22
tp1973
atp1974
a(S'rady'
p1975
(dp1976
S'NOUN'
p1977
F1.0
s(lp1978
tp1979
a(S'europejskiej'
p1980
(dp1981
S'ADJ'
p1982
F1.0
s(lp1983
(g190
I21
tp1984
atp1985
a(S'25'
p1986
(dp1987
S'NUM'
p1988
F0.5992289999999999
sS'ADJ'
p1989
F0.4007710000000001
s(lp1990
(g128
I15
tp1991
atp1992
a(g1911
(dp1993
S'PRT'
p1994
F0.004069
sS'CONJ'
p1995
F0.995851
sS'PRON'
p1996
F6e-06
sS'NOUN'
p1997
F4.9e-05
sg125
F2.6e-05
s(lp1998
(g135
I16
tp1999
atp2000
a(S'26'
p2001
(dp2002
S'NUM'
p2003
F0.04133399999999999
sS'ADJ'
p2004
F0.958665
s(lp2005
(g142
I17
tp2006
atp2007
a(S'marca'
p2008
(dp2009
S'NOUN'
p2010
F1.0
s(lp2011
(g170
I18
tp2012
atp2013
a(g523
(dp2014
g125
F0.0
sg50
F1.0
s(lp2015
(g523
I23
tp2016
atp2017
a(S'podczas'
p2018
(dp2019
S'ADP'
p2020
F1.0
s(lp2021
(g154
I19
tp2022
atp2023
a(S'kt\xc3\xb3rego'
p2024
(dp2025
S'ADJ'
p2026
F1.000001
s(lp2027
(g197
I24
tp2028
atp2029
a(S'rada'
p2030
(dp2031
S'ADJ'
p2032
F0.011825
sS'NOUN'
p2033
F0.988175
s(lp2034
(g182
I22
tp2035
atp2036
a(S'ma'
p2037
(dp2038
S'VERB'
p2039
F0.999999
sS'NOUN'
p2040
F2e-06
sS'ADP'
p2041
F0.0
s(lp2042
(g205
I25
tp2043
atp2044
a(S'rozpatrzy\xc4\x87'
p2045
(dp2046
S'VERB'
p2047
F1.0
s(lp2048
(g212
I27
tp2049
atp2050
a(S'komunikat'
p2051
(dp2052
S'NOUN'
p2053
F1.0
s(lp2054
(g228
I29
tp2055
atp2056
a(S'komisji'
p2057
(dp2058
S'NOUN'
p2059
F1.0000010000000001
s(lp2060
(g251
I32
tp2061
atp2062
a(g48
(dp2063
g125
F2.6000000000000002e-05
sS'NUM'
p2064
F1e-06
sS'NOUN'
p2065
F0.00027800000000000004
sg50
F0.999695
s(lp2066
(g48
I33
tp2067
atp2068
a(S'jest'
p2069
(dp2070
S'VERB'
p2071
F1.0
s(lp2072
(g263
I34
tp2073
atp2074
a(S'zmniejszenie'
p2075
(dp2076
S'VERB'
p2077
F0.97715
sS'NOUN'
p2078
F0.02285
s(lp2079
(g279
I38
tp2080
atp2081
a(S'liczby'
p2082
(dp2083
S'NOUN'
p2084
F1.0
s(lp2085
(g313
I41
tp2086
atp2087
a(S'os\xc3\xb3b'
p2088
(dp2089
S'NOUN'
p2090
F1.0
s(lp2091
(g327
I43
tp2092
atp2093
a(S'zagro\xc5\xbconych'
p2094
(dp2095
S'VERB'
p2096
F0.9511989999999999
sS'ADJ'
p2097
F0.048801
s(lp2098
(g341
I47
tp2099
atp2100
a(S'ub\xc3\xb3stwem'
p2101
(dp2102
S'NOUN'
p2103
F1.0
s(lp2104
(g376
I50
tp2105
atp2106
a(g1842
(dp2107
g125
F0.039630000000000006
sS'VERB'
p2108
F0.00028700000000000004
sS'NOUN'
p2109
F3.9e-05
sS'ADP'
p2110
F0.959844
sS'PRT'
p2111
F0.0002
s(lp2112
(g272
I35
tp2113
atp2114
a(S'25'
p2115
(dp2116
S'NUM'
p2117
F0.9915360000000001
sS'ADJ'
p2118
F0.008464000000000001
s(lp2119
(g293
I36
tp2120
atp2121
a(g296
(dp2122
S'NOUN'
p2123
F0.9999990000000001
s(lp2124
(g296
I37
tp2125
atp2126
a(g50
(dp2127
g50
F1.0
s(lp2128
(g50
I51
tp2129
atp2130
asS'sl'
p2131
(lp2132
(S'eden'
p2133
(dp2134
S'NUM'
p2135
F1.0
s(lp2136
tp2137
a(S'od'
p2138
(dp2139
S'ADP'
p2140
F1.0
s(lp2141
(g16
I0
tp2142
atp2143
a(S'koli\xc4\x8dinsko'
p2144
(dp2145
S'ADJ'
p2146
F1.0
s(lp2147
tp2148
a(S'ovrednotenih'
p2149
(dp2150
S'ADV'
p2151
F8.2e-05
sS'ADJ'
p2152
F0.33585299999999985
sS'VERB'
p2153
F0.00013399999999999998
sS'NOUN'
p2154
F0.6639310000000004
s(lp2155
(g45
I3
tp2156
atp2157
a(S'ciljev'
p2158
(dp2159
S'NOUN'
p2160
F1.0
s(lp2161
(g38
I4
tp2162
atp2163
a(g48
(dp2164
g50
F1.0
s(lp2165
(g48
I5
tp2166
atp2167
a(S'ki'
p2168
(dp2169
S'CONJ'
p2170
F1.0
s(lp2171
(g197
I24
tp2172
atp2173
a(S'naj'
p2174
(dp2175
S'PRT'
p2176
F0.976816
sS'CONJ'
p2177
F0.023179
sS'ADJ'
p2178
F4.9999999999999996e-06
s(lp2179
(g538
I26
tp2180
atp2181
a(S'bi'
p2182
(dp2183
g125
F0.0
sS'VERB'
p2184
F1.0
s(lp2185
(g90
I10
tp2186
atp2187
a(S'jih'
p2188
(dp2189
S'PRON'
p2190
F1.0
s(lp2191
(g97
I11
tp2192
atp2193
a(S'sprejel'
p2194
(dp2195
S'VERB'
p2196
F1.0
s(lp2197
(g111
I13
tp2198
atp2199
a(S'evropski'
p2200
(dp2201
S'ADJ'
p2202
F0.9999989999999999
s(lp2203
(g190
I21
tp2204
atp2205
a(S'svet'
p2206
(dp2207
S'NOUN'
p2208
F1.0
s(lp2209
(g182
I22
tp2210
atp2211
a(S'na'
p2212
(dp2213
S'ADP'
p2214
F1.0
s(lp2215
(g120
I14
tp2216
atp2217
a(S'sre\xc4\x8danju'
p2218
(dp2219
S'NOUN'
p2220
F1.0
s(lp2221
tp2222
a(S'25.'
p2223
(dp2224
S'NUM'
p2225
F1.0
s(lp2226
(g128
I15
tp2227
atp2228
a(S'in'
p2229
(dp2230
S'ADV'
p2231
F0.001513
sg125
F0.000326
sS'CONJ'
p2232
F0.997151
sS'NOUN'
p2233
F0.00101
s(lp2234
(g135
I16
tp2235
atp2236
a(S'26.'
p2237
(dp2238
S'NUM'
p2239
F1.0
s(lp2240
(g142
I17
tp2241
atp2242
a(S'marca'
p2243
(dp2244
S'NOUN'
p2245
F1.0
s(lp2246
(g170
I18
tp2247
atp2248
a(S'po'
p2249
(dp2250
g125
F1e-06
sS'ADP'
p2251
F0.999998
s(lp2252
(g154
I19
tp2253
atp2254
a(S'obravnavi'
p2255
(dp2256
S'NOUN'
p2257
F1.0
s(lp2258
(g212
I27
tp2259
atp2260
a(S'sporo\xc4\x8dila'
p2261
(dp2262
S'VERB'
p2263
F0.141465
sS'NOUN'
p2264
F0.858535
s(lp2265
(g228
I29
tp2266
atp2267
a(S'komisije'
p2268
(dp2269
S'NOUN'
p2270
F1.0
s(lp2271
(g251
I32
tp2272
atp2273
a(g48
(dp2274
g50
F1.0
s(lp2275
(g48
I33
tp2276
atp2277
a(S'je'
p2278
(dp2279
S'PRON'
p2280
F0.001645
sS'VERB'
p2281
F0.998028
sg125
F0.000328
s(lp2282
(g263
I34
tp2283
atp2284
a(S'za'
p2285
(dp2286
S'ADV'
p2287
F0.003583
sg125
F9.3e-05
sS'ADP'
p2288
F0.996324
s(lp2289
(g272
I35
tp2290
atp2291
a(S'25'
p2292
(dp2293
S'NUM'
p2294
F1.0
s(lp2295
(g293
I36
tp2296
atp2297
a(g296
(dp2298
g50
F1.0
s(lp2299
(g296
I37
tp2300
atp2301
a(S'zmanj\xc5\xa1ati'
p2302
(dp2303
S'VERB'
p2304
F1.0
s(lp2305
(g279
I38
tp2306
atp2307
a(S'\xc5\xa1tevilo'
p2308
(dp2309
S'NOUN'
p2310
F1.0
s(lp2311
(g313
I41
tp2312
atp2313
a(S'ljudi'
p2314
(dp2315
g125
F7.8e-05
sS'NOUN'
p2316
F0.999922
s(lp2317
(g327
I43
tp2318
atp2319
a(g523
(dp2320
g50
F1.0
s(lp2321
tp2322
a(S'ki'
p2323
(dp2324
S'CONJ'
p2325
F1.0
s(lp2326
(g334
I44
tp2327
atp2328
a(S'jim'
p2329
(dp2330
S'PRON'
p2331
F1.0
s(lp2332
(g648
I45
tp2333
atp2334
a(S'grozi'
p2335
(dp2336
S'VERB'
p2337
F0.98145
sS'NOUN'
p2338
F0.01855
s(lp2339
(g341
I47
tp2340
atp2341
a(S'rev\xc5\xa1\xc4\x8dina'
p2342
(dp2343
S'NOUN'
p2344
F1.0
s(lp2345
(g376
I50
tp2346
atp2347
a(g50
(dp2348
g50
F1.0
s(lp2349
(g50
I51
tp2350
atp2351
asS'es'
p2352
(lp2353
(S'uno'
p2354
(dp2355
S'NUM'
p2356
F1.0
s(lp2357
(g16
I0
tp2358
atp2359
a(S'de'
p2360
(dp2361
g125
F0.0
sS'CONJ'
p2362
F1e-06
sS'ADP'
p2363
F0.999999
s(lp2364
(g23
I1
tp2365
atp2366
a(S'estos'
p2367
(dp2368
S'PRON'
p2369
F1.0
s(lp2370
(g30
I2
tp2371
atp2372
a(S'objetivos'
p2373
(dp2374
S'ADJ'
p2375
F0.004087
sS'NOUN'
p2376
F0.995913
s(lp2377
tp2378
a(S'cuantificados'
p2379
(dp2380
S'VERB'
p2381
F1.0
s(lp2382
tp2383
a(S'-que'
p2384
(dp2385
S'ADJ'
p2386
F0.116085
sS'VERB'
p2387
F0.564255
sS'NOUN'
p2388
F0.31966
s(lp2389
(g48
I5
tp2390
atp2391
a(S'veremos'
p2392
(dp2393
S'VERB'
p2394
F1.0
s(lp2395
(g81
I9
tp2396
atp2397
a(S'si'
p2398
(dp2399
S'CONJ'
p2400
F0.999885
sS'NOUN'
p2401
F0.000115
s(lp2402
(g90
I10
tp2403
atp2404
a(S'son'
p2405
(dp2406
S'VERB'
p2407
F0.999555
sS'NOUN'
p2408
F0.000445
s(lp2409
(g104
I12
tp2410
atp2411
a(S'aprobados'
p2412
(dp2413
S'VERB'
p2414
F1.0
s(lp2415
tp2416
a(S'el'
p2417
(dp2418
S'PRON'
p2419
F1e-06
sS'DET'
p2420
F0.999999
s(lp2421
tp2422
a(S'pr\xc3\xb3ximo'
p2423
(dp2424
S'ADJ'
p2425
F1.0
s(lp2426
(g170
I18
tp2427
atp2428
a(S'd\xc3\xada'
p2429
(dp2430
S'NOUN'
p2431
F1.0
s(lp2432
tp2433
a(S'25'
p2434
(dp2435
g125
F0.221537
sS'NUM'
p2436
F0.778463
s(lp2437
(g128
I15
tp2438
atp2439
a(S'y'
p2440
(dp2441
g125
F0.000225
sS'CONJ'
p2442
F0.999775
s(lp2443
(g135
I16
tp2444
atp2445
a(S'26'
p2446
(dp2447
g125
F0.266672
sS'NUM'
p2448
F0.733328
s(lp2449
(g142
I17
tp2450
atp2451
a(S'de'
p2452
(dp2453
g125
F6e-05
sS'CONJ'
p2454
F0.000144
sS'ADP'
p2455
F0.999796
s(lp2456
tp2457
a(S'marzo'
p2458
(dp2459
S'NOUN'
p2460
F1.0
s(lp2461
(g170
I18
tp2462
atp2463
a(S'en'
p2464
(dp2465
g125
F0.0
sS'CONJ'
p2466
F0.0
sS'ADP'
p2467
F1.0
s(lp2468
(g154
I19
tp2469
atp2470
a(S'el'
p2471
(dp2472
S'PRON'
p2473
F5e-06
sS'DET'
p2474
F0.999995
s(lp2475
(g163
I20
tp2476
atp2477
a(S'consejo'
p2478
(dp2479
S'NOUN'
p2480
F1.0
s(lp2481
(g182
I22
tp2482
atp2483
a(S'europeo'
p2484
(dp2485
S'NOUN'
p2486
F0.00063
sS'ADJ'
p2487
F0.99937
s(lp2488
(g190
I21
tp2489
atp2490
a(g523
(dp2491
g50
F1.0
s(lp2492
(g523
I23
tp2493
atp2494
a(S'que'
p2495
(dp2496
g125
F0.0
sS'CONJ'
p2497
F1.0
s(lp2498
(g197
I24
tp2499
atp2500
a(S'tiene'
p2501
(dp2502
S'VERB'
p2503
F1.0
s(lp2504
(g205
I25
tp2505
atp2506
a(S'que'
p2507
(dp2508
S'VERB'
p2509
F1.0
s(lp2510
(g538
I26
tp2511
atp2512
a(S'examinar'
p2513
(dp2514
S'VERB'
p2515
F1.0
s(lp2516
(g212
I27
tp2517
atp2518
a(S'esa'
p2519
(dp2520
S'PRON'
p2521
F1.0
s(lp2522
(g221
I28
tp2523
atp2524
a(S'comunicaci\xc3\xb3n'
p2525
(dp2526
S'NOUN'
p2527
F1.0
s(lp2528
(g228
I29
tp2529
atp2530
a(S'de'
p2531
(dp2532
g125
F0.0
sS'CONJ'
p2533
F1.7e-05
sS'ADP'
p2534
F0.999983
s(lp2535
(g235
I30
tp2536
atp2537
a(S'la'
p2538
(dp2539
g125
F0.0
sS'PRON'
p2540
F0.0
sS'DET'
p2541
F0.999999
sS'NOUN'
p2542
F0.0
s(lp2543
(g244
I31
tp2544
atp2545
a(S'comisi\xc3\xb3n'
p2546
(dp2547
S'NOUN'
p2548
F1.0
s(lp2549
(g251
I32
tp2550
atp2551
a(g2440
(dp2552
g125
F4.5e-05
sS'CONJ'
p2553
F0.999955
s(lp2554
(g48
I33
tp2555
atp2556
a(S'aprobar'
p2557
(dp2558
S'VERB'
p2559
F1.0
s(lp2560
(g111
I13
tp2561
atp2562
a(S'en'
p2563
(dp2564
g125
F0.0
sS'CONJ'
p2565
F1.2e-05
sS'ADP'
p2566
F0.999988
s(lp2567
(g120
I14
tp2568
atp2569
a(S'su'
p2570
(dp2571
S'PRON'
p2572
F1.0
s(lp2573
(g97
I11
tp2574
atp2575
a(S'caso'
p2576
(dp2577
S'NOUN'
p2578
F1.0
s(lp2579
tp2580
a(S'esos'
p2581
(dp2582
S'PRON'
p2583
F1.0
s(lp2584
(g97
I11
tp2585
atp2586
a(S'objetivos'
p2587
(dp2588
S'ADJ'
p2589
F0.007642
sS'NOUN'
p2590
F0.992358
s(lp2591
(g38
I4
tp2592
atp2593
a(S'cuantificados-'
p2594
(dp2595
S'ADJ'
p2596
F0.327789
sS'VERB'
p2597
F0.12824200000000002
sS'NOUN'
p2598
F0.543968
s(lp2599
(g45
I3
tp2600
atp2601
a(S'es'
p2602
(dp2603
S'VERB'
p2604
F1.0
s(lp2605
(g263
I34
tp2606
atp2607
a(S'la'
p2608
(dp2609
g125
F1e-06
sS'DET'
p2610
F0.999999
sS'NOUN'
p2611
F0.0
sS'PRON'
p2612
F0.0
s(lp2613
(g272
I35
tp2614
atp2615
a(S'reducci\xc3\xb3n'
p2616
(dp2617
S'NOUN'
p2618
F1.0
s(lp2619
(g279
I38
tp2620
atp2621
a(S'en'
p2622
(dp2623
g125
F1.3e-05
sS'CONJ'
p2624
F0.0
sS'ADP'
p2625
F0.999987
s(lp2626
(g286
I39
tp2627
atp2628
a(S'un'
p2629
(dp2630
g125
F0.000207
sS'DET'
p2631
F0.999793
s(lp2632
tp2633
a(S'25'
p2634
(dp2635
g125
F6e-06
sS'NUM'
p2636
F0.999994
s(lp2637
(g293
I36
tp2638
atp2639
a(g296
(dp2640
g50
F1.0
s(lp2641
(g296
I37
tp2642
atp2643
a(S'del'
p2644
(dp2645
S'ADP'
p2646
F1.0
s(lp2647
(g305
I40
tp2648
atp2649
a(S'nivel'
p2650
(dp2651
S'NOUN'
p2652
F1.0
s(lp2653
(g313
I41
tp2654
atp2655
a(S'de'
p2656
(dp2657
g125
F2.9e-05
sS'CONJ'
p2658
F0.000449
sS'ADP'
p2659
F0.999522
s(lp2660
(g320
I42
tp2661
atp2662
a(S'personas'
p2663
(dp2664
S'NOUN'
p2665
F1.0
s(lp2666
(g327
I43
tp2667
atp2668
a(S'con'
p2669
(dp2670
S'ADP'
p2671
F1.0
s(lp2672
(g655
I46
tp2673
atp2674
a(S'riesgo'
p2675
(dp2676
S'NOUN'
p2677
F1.0
s(lp2678
(g341
I47
tp2679
atp2680
a(S'de'
p2681
(dp2682
g125
F0.0
sS'CONJ'
p2683
F0.345844
sS'ADP'
p2684
F0.654156
s(lp2685
(g348
I48
tp2686
atp2687
a(S'entrar'
p2688
(dp2689
S'VERB'
p2690
F1.0
s(lp2691
tp2692
a(S'en'
p2693
(dp2694
g125
F0.0
sS'CONJ'
p2695
F1e-06
sS'ADP'
p2696
F0.999999
s(lp2697
(g362
I49
tp2698
atp2699
a(S'la'
p2700
(dp2701
g125
F0.0
sS'PRON'
p2702
F0.0
sS'DET'
p2703
F0.999999
sS'NOUN'
p2704
F0.0
s(lp2705
tp2706
a(S'pobreza'
p2707
(dp2708
S'NOUN'
p2709
F1.0
s(lp2710
(g376
I50
tp2711
atp2712
a(g50
(dp2713
g50
F1.0
s(lp2714
(g50
I51
tp2715
atp2716
as.