(dp0
S'fr'
p1
(lp2
(S'il'
p3
(dp4
S'PRON'
p5
F1.0
s(lp6
(S'must'
p7
I9
tp8
atp9
a(S'faut'
p10
(dp11
S'VERB'
p12
F1.0
s(lp13
(S'be'
p14
I10
tp15
atp16
a(S'lutter'
p17
(dp18
S'VERB'
p19
F1.0
s(lp20
tp21
a(S'contre'
p22
(dp23
S'VERB'
p24
F9.999999999999999e-05
sS'NOUN'
p25
F1.9e-05
sS'ADP'
p26
F0.99988
s(lp27
(S'combated'
p28
I11
tp29
atp30
a(S'le'
p31
(dp32
S'PRON'
p33
F6.2e-05
sS'DET'
p34
F0.999938
s(lp35
tp36
a(S'racisme'
p37
(dp38
S'NOUN'
p39
F1.0
s(lp40
(S'racism'
p41
I0
tp42
atp43
a(S'et'
p44
(dp45
S'CONJ'
p46
F1.0
s(lp47
(S'and'
p48
I1
tp49
atp50
a(S'la'
p51
(dp52
S'PRON'
p53
F0.000103
sS'DET'
p54
F0.999897
sS'NOUN'
p55
F0.0
s(lp56
tp57
a(S'discrimination'
p58
(dp59
S'NOUN'
p60
F1.0
s(lp61
(S'discrimination'
p62
I3
tp63
atp64
a(S'ethnique'
p65
(dp66
S'ADJ'
p67
F1.0
s(lp68
(S'ethnic'
p69
I2
tp70
atp71
a(S'dans'
p72
(dp73
S'NOUN'
p74
F0.001714
sS'ADP'
p75
F0.998286
s(lp76
(S'in'
p77
I4
tp78
atp79
a(S"l'"
p80
(dp81
S'ADJ'
p82
F0.160898
sS'VERB'
p83
F0.065885
sS'NOUN'
p84
F0.773216
s(lp85
(S'the'
p86
I5
tp87
atp88
a(S'ue'
p89
(dp90
S'VERB'
p91
F0.002353
sS'NOUN'
p92
F0.997647
s(lp93
(S'eu'
p94
I6
tp95
atp96
a(S'et'
p97
(dp98
S'CONJ'
p99
F1.0
s(lp100
(S'and'
p101
I7
tp102
atp103
a(S'en'
p104
(dp105
S'PRON'
p106
F0.095199
sS'ADP'
p107
F0.904801
s(lp108
tp109
a(S'europe'
p110
(dp111
S'VERB'
p112
F0.081891
sS'NOUN'
p113
F0.9181079999999999
s(lp114
(S'europe'
p115
I8
tp116
atp117
a(S'.'
p118
(dp119
g118
F1.0
s(lp120
(g118
I12
tp121
atp122
asS'en'
p123
(lp124
(g41
(dp125
S'NOUN'
p126
F1.0
s(lp127
(g41
I0
tp128
atp129
a(g48
(dp130
S'CONJ'
p131
F1.0
sS'NOUN'
p132
F0.0
s(lp133
(g48
I1
tp134
atp135
a(g69
(dp136
S'ADJ'
p137
F1.0
s(lp138
(g69
I2
tp139
atp140
a(g62
(dp141
S'NOUN'
p142
F1.0
s(lp143
(g62
I3
tp144
atp145
a(g77
(dp146
S'ADV'
p147
F0.000191
sS'PRT'
p148
F0.000279
sS'ADP'
p149
F0.999531
s(lp150
(g77
I4
tp151
atp152
a(g86
(dp153
S'NOUN'
p154
F7e-06
sS'DET'
p155
F0.999993
s(lp156
(g86
I5
tp157
atp158
a(g94
(dp159
S'ADV'
p160
F2.3e-05
sS'ADJ'
p161
F0.001935
sS'VERB'
p162
F0.000194
sS'NOUN'
p163
F0.9978480000000001
s(lp164
(g94
I6
tp165
atp166
a(g101
(dp167
S'CONJ'
p168
F0.999982
sS'NOUN'
p169
F1.8e-05
s(lp170
(g101
I7
tp171
atp172
a(g115
(dp173
S'ADV'
p174
F0.004442
sS'ADJ'
p175
F0.008608
sS'VERB'
p176
F0.000365
sS'NOUN'
p177
F0.986585
s(lp178
(g115
I8
tp179
atp180
a(g7
(dp181
S'VERB'
p182
F1.0
sS'NOUN'
p183
F0.0
s(lp184
(g7
I9
tp185
atp186
a(g14
(dp187
S'VERB'
p188
F1.0
s(lp189
(g14
I10
tp190
atp191
a(g28
(dp192
S'VERB'
p193
F1.0
s(lp194
(g28
I11
tp195
atp196
a(g118
(dp197
g118
F1.0
s(lp198
(g118
I12
tp199
atp200
asS'nl'
p201
(lp202
(S'racisme'
p203
(dp204
S'NOUN'
p205
F1.0
s(lp206
(g41
I0
tp207
atp208
a(S'en'
p209
(dp210
S'CONJ'
p211
F1.0
s(lp212
(g48
I1
tp213
atp214
a(S'etnische'
p215
(dp216
S'NOUN'
p217
F0.001834
sS'ADJ'
p218
F0.998166
s(lp219
(g69
I2
tp220
atp221
a(S'discriminatie'
p222
(dp223
S'NOUN'
p224
F1.0
s(lp225
(g62
I3
tp226
atp227
a(S'in'
p228
(dp229
S'ADV'
p230
F0.002979
sS'VERB'
p231
F2e-06
sS'ADP'
p232
F0.997018
s(lp233
(g77
I4
tp234
atp235
a(S'de'
p236
(dp237
S'DET'
p238
F1.0
s(lp239
(g86
I5
tp240
atp241
a(S'eu'
p242
(dp243
S'NOUN'
p244
F1.0
s(lp245
(g94
I6
tp246
atp247
a(S'en'
p248
(dp249
S'CONJ'
p250
F1.0
s(lp251
(g101
I7
tp252
atp253
a(S'in'
p254
(dp255
S'ADV'
p256
F0.005691
sS'VERB'
p257
F0.0
sS'ADP'
p258
F0.994309
s(lp259
tp260
a(S'europa'
p261
(dp262
S'NOUN'
p263
F1.0
s(lp264
(g115
I8
tp265
atp266
a(S'moeten'
p267
(dp268
S'VERB'
p269
F0.999999
sS'NOUN'
p270
F1e-06
s(lp271
(g7
I9
tp272
atp273
a(S'bestreden'
p274
(dp275
S'VERB'
p276
F1.0
s(lp277
(g28
I11
tp278
atp279
a(S'worden'
p280
(dp281
S'VERB'
p282
F0.999987
sS'NOUN'
p283
F1.2e-05
s(lp284
(g14
I10
tp285
atp286
a(g118
(dp287
g118
F1.0
s(lp288
(g118
I12
tp289
atp290
asS'de'
p291
(lp292
(S'rassismus'
p293
(dp294
S'ADJ'
p295
F0.391223
sS'NOUN'
p296
F0.440459
s(lp297
(g41
I0
tp298
atp299
a(S'und'
p300
(dp301
S'CONJ'
p302
F1.0
s(lp303
(g48
I1
tp304
atp305
a(S'ethnische'
p306
(dp307
S'ADJ'
p308
F1.0
s(lp309
(g69
I2
tp310
atp311
a(S'diskriminierung'
p312
(dp313
S'VERB'
p314
F1.8e-05
sS'NOUN'
p315
F0.999955
s(lp316
(g62
I3
tp317
atp318
a(S'in'
p319
(dp320
S'ADP'
p321
F1.0
s(lp322
(g77
I4
tp323
atp324
a(S'der'
p325
(dp326
S'PRON'
p327
F0.000159
sS'DET'
p328
F0.999827
s(lp329
(g86
I5
tp330
atp331
a(S'eu'
p332
(dp333
S'X'
p334
F0.137428
sS'ADJ'
p335
F0.772954
s(lp336
(g94
I6
tp337
atp338
a(S'und'
p339
(dp340
S'CONJ'
p341
F1.0
s(lp342
(g101
I7
tp343
atp344
a(S'in'
p345
(dp346
S'ADP'
p347
F1.0
s(lp348
tp349
a(S'europa'
p350
(dp351
S'NOUN'
p352
F0.988967
s(lp353
(g115
I8
tp354
atp355
a(S'm\xc3\xbcssen'
p356
(dp357
S'VERB'
p358
F0.999954
s(lp359
(g7
I9
tp360
atp361
a(S'bek\xc3\xa4mpft'
p362
(dp363
S'VERB'
p364
F1.0
s(lp365
(g28
I11
tp366
atp367
a(S'werden'
p368
(dp369
S'VERB'
p370
F0.999996
s(lp371
(g14
I10
tp372
atp373
a(g118
(dp374
g118
F1.0
s(lp375
(g118
I12
tp376
atp377
asS'it'
p378
(lp379
(S"nell'"
p380
(dp381
S'ADJ'
p382
F0.001299
sS'VERB'
p383
F0.029079
sS'NOUN'
p384
F0.969622
s(lp385
(g77
I4
tp386
atp387
a(S'ue'
p388
(dp389
S'ADJ'
p390
F0.000925
sS'VERB'
p391
F0.05558899999999999
sS'NOUN'
p392
F0.943486
s(lp393
(g94
I6
tp394
atp395
a(S'e'
p396
(dp397
S'CONJ'
p398
F1.0
s(lp399
(g101
I7
tp400
atp401
a(S'in'
p402
(dp403
S'ADP'
p404
F1.0
s(lp405
tp406
a(S'europa'
p407
(dp408
S'ADJ'
p409
F0.117094
sS'VERB'
p410
F0.011958
sS'NOUN'
p411
F0.870948
s(lp412
(g115
I8
tp413
atp414
a(S'si'
p415
(dp416
S'PRON'
p417
F0.999933
sS'NOUN'
p418
F6.7e-05
s(lp419
(g14
I10
tp420
atp421
a(S'deve'
p422
(dp423
S'VERB'
p424
F1.0
s(lp425
(g7
I9
tp426
atp427
a(S'combattere'
p428
(dp429
S'VERB'
p430
F1.0
s(lp431
tp432
a(S'contro'
p433
(dp434
S'ADV'
p435
F0.542237
sS'ADP'
p436
F0.457763
s(lp437
(g28
I11
tp438
atp439
a(S'il'
p440
(dp441
S'DET'
p442
F1.0
s(lp443
tp444
a(S'razzismo'
p445
(dp446
S'NOUN'
p447
F1.0
s(lp448
(g41
I0
tp449
atp450
a(g396
(dp451
S'CONJ'
p452
F1.0
s(lp453
(g48
I1
tp454
atp455
a(S'la'
p456
(dp457
S'PRON'
p458
F0.000411
sS'DET'
p459
F0.999589
s(lp460
tp461
a(S'discriminazione'
p462
(dp463
S'NOUN'
p464
F1.0
s(lp465
(g62
I3
tp466
atp467
a(S'etnica'
p468
(dp469
S'ADJ'
p470
F1.0
s(lp471
(g69
I2
tp472
atp473
a(g118
(dp474
g118
F1.0
s(lp475
(g118
I12
tp476
atp477
asS'sk'
p478
(lp479
(S'je'
p480
(dp481
S'PRON'
p482
F0.000104
sS'VERB'
p483
F0.99982
sg334
F7.6e-05
s(lp484
(g7
I9
tp485
atp486
a(S'nutn\xc3\xa9'
p487
(dp488
S'ADJ'
p489
F1.0
s(lp490
(g28
I11
tp491
atp492
a(S'bojova\xc5\xa5'
p493
(dp494
S'VERB'
p495
F1.0
s(lp496
tp497
a(S'proti'
p498
(dp499
S'ADV'
p500
F0.000126
sS'ADP'
p501
F0.999874
s(lp502
(g28
I11
tp503
atp504
a(S'rasizmu'
p505
(dp506
S'NOUN'
p507
F1.0
s(lp508
(g41
I0
tp509
atp510
a(S'a'
p511
(dp512
g334
F0.001131
sS'CONJ'
p513
F0.998072
sS'NOUN'
p514
F0.000173
sS'ADP'
p515
F0.000598
sS'PRT'
p516
F2.6e-05
s(lp517
(g48
I1
tp518
atp519
a(S'etnickej'
p520
(dp521
S'ADJ'
p522
F1.0
s(lp523
(g69
I2
tp524
atp525
a(S'diskrimin\xc3\xa1cii'
p526
(dp527
S'NOUN'
p528
F1.0
s(lp529
(g62
I3
tp530
atp531
a(S'v'
p532
(dp533
g334
F0.00111
sS'ADP'
p534
F0.99889
s(lp535
(g77
I4
tp536
atp537
a(S'e\xc3\x9a'
p538
(dp539
S'ADV'
p540
F0.0030529999999999997
sS'NOUN'
p541
F0.260043
sS'VERB'
p542
F0.000184
sS'ADJ'
p543
F0.735686
sg334
F0.001034
s(lp544
(g94
I6
tp545
atp546
a(g511
(dp547
g334
F0.0013479999999999998
sS'CONJ'
p548
F0.998221
sS'NOUN'
p549
F0.00037099999999999996
sS'ADP'
p550
F0.0
sS'PRT'
p551
F5.9e-05
s(lp552
(g101
I7
tp553
atp554
a(g532
(dp555
g334
F0.000583
sS'ADP'
p556
F0.999417
s(lp557
(g86
I5
tp558
atp559
a(S'eur\xc3\xb3pe'
p560
(dp561
S'NOUN'
p562
F1.0
s(lp563
(g115
I8
tp564
atp565
a(g118
(dp566
g118
F1.0
s(lp567
(g118
I12
tp568
atp569
asS'pl'
p570
(lp571
(S'rasizm'
p572
(dp573
S'NOUN'
p574
F1.0
s(lp575
(g41
I0
tp576
atp577
a(S'i'
p578
(dp579
S'PRT'
p580
F0.005791
sS'CONJ'
p581
F0.994072
sS'PRON'
p582
F8e-06
sS'NOUN'
p583
F0.000112
sg334
F1.6e-05
s(lp584
(g48
I1
tp585
atp586
a(S'dyskryminacja'
p587
(dp588
S'NOUN'
p589
F1.0
s(lp590
(g62
I3
tp591
atp592
a(S'etniczna'
p593
(dp594
S'NOUN'
p595
F0.128539
sS'ADJ'
p596
F0.871462
s(lp597
(g69
I2
tp598
atp599
a(S'w'
p600
(dp601
S'NOUN'
p602
F3.1e-05
sS'ADJ'
p603
F0.000125
sS'ADP'
p604
F0.999836
sg334
F9e-06
s(lp605
(g77
I4
tp606
atp607
a(S'ue'
p608
(dp609
S'ADJ'
p610
F1e-06
sS'VERB'
p611
F3e-06
sS'NOUN'
p612
F0.9999960000000001
s(lp613
(g94
I6
tp614
atp615
a(g578
(dp616
S'PRT'
p617
F0.000703
sS'CONJ'
p618
F0.999271
sS'PRON'
p619
F9.999999999999999e-06
sS'NOUN'
p620
F6.999999999999999e-06
sg334
F9e-06
s(lp621
(g101
I7
tp622
atp623
a(S'ca\xc5\x82ej'
p624
(dp625
S'ADJ'
p626
F1.0
s(lp627
tp628
a(S'europie'
p629
(dp630
S'ADV'
p631
F2.3e-05
sS'ADJ'
p632
F0.000814
sS'VERB'
p633
F9e-06
sS'NOUN'
p634
F0.9991540000000001
s(lp635
(g115
I8
tp636
atp637
a(S'musz\xc4\x85'
p638
(dp639
S'VERB'
p640
F1.0
s(lp641
(g7
I9
tp642
atp643
a(S'zosta\xc4\x87'
p644
(dp645
S'VERB'
p646
F1.0
s(lp647
(g14
I10
tp648
atp649
a(S'wyeliminowane'
p650
(dp651
S'VERB'
p652
F1.0
s(lp653
(g28
I11
tp654
atp655
a(g118
(dp656
g118
F1.0
s(lp657
(g118
I12
tp658
atp659
asS'sl'
p660
(lp661
(S'treba'
p662
(dp663
S'ADV'
p664
F1.0
s(lp665
(g14
I10
tp666
atp667
a(S'se'
p668
(dp669
S'PRON'
p670
F0.999998
sg334
F2e-06
s(lp671
(g28
I11
tp672
atp673
a(S'je'
p674
(dp675
S'PRON'
p676
F0.001888
sS'VERB'
p677
F0.998095
sg334
F1.7e-05
s(lp678
(g7
I9
tp679
atp680
a(S'boriti'
p681
(dp682
S'VERB'
p683
F1.0
s(lp684
tp685
a(S'proti'
p686
(dp687
S'ADV'
p688
F0.000173
sS'ADP'
p689
F0.999827
s(lp690
(g28
I11
tp691
atp692
a(S'rasizmu'
p693
(dp694
S'ADV'
p695
F1.6e-05
sS'ADJ'
p696
F3e-05
sS'VERB'
p697
F8.099999999999999e-05
sS'NOUN'
p698
F0.999873
s(lp699
(g41
I0
tp700
atp701
a(S'in'
p702
(dp703
S'ADV'
p704
F0.000167
sg334
F1.1e-05
sS'CONJ'
p705
F0.999819
sS'NOUN'
p706
F3e-06
s(lp707
(g48
I1
tp708
atp709
a(S'etni\xc4\x8dni'
p710
(dp711
S'ADV'
p712
F5.8e-05
sS'NOUN'
p713
F0.000444
sS'ADJ'
p714
F0.9994959999999998
s(lp715
(g69
I2
tp716
atp717
a(S'diskriminaciji'
p718
(dp719
S'NOUN'
p720
F0.9999999999999999
s(lp721
(g62
I3
tp722
atp723
a(g532
(dp724
S'ADP'
p725
F1.0
s(lp726
(g77
I4
tp727
atp728
a(S'eu'
p729
(dp730
S'ADV'
p731
F7.9e-05
sS'ADJ'
p732
F0.004611000000000001
sS'VERB'
p733
F0.0
sS'NOUN'
p734
F0.9953090000000001
s(lp735
(g94
I6
tp736
atp737
a(S'in'
p738
(dp739
S'ADV'
p740
F8.4e-05
sg334
F3.1e-05
sS'CONJ'
p741
F0.999866
sS'NOUN'
p742
F1.9e-05
s(lp743
(g101
I7
tp744
atp745
a(S'evropi'
p746
(dp747
S'ADV'
p748
F0.001116
sS'ADJ'
p749
F0.033259000000000004
sS'VERB'
p750
F0.025271
sS'NOUN'
p751
F0.9403529999999999
s(lp752
(g115
I8
tp753
atp754
a(g118
(dp755
g118
F1.0
s(lp756
(g118
I12
tp757
atp758
asS'es'
p759
(lp760
(S'tenemos'
p761
(dp762
S'VERB'
p763
F1.0
s(lp764
(g7
I9
tp765
atp766
a(S'que'
p767
(dp768
g334
F0.0
sS'CONJ'
p769
F1.0
s(lp770
(g14
I10
tp771
atp772
a(S'combatir'
p773
(dp774
S'VERB'
p775
F1.0
s(lp776
(g28
I11
tp777
atp778
a(S'el'
p779
(dp780
S'PRON'
p781
F0.0
sS'DET'
p782
F1.0
s(lp783
tp784
a(S'racismo'
p785
(dp786
S'NOUN'
p787
F1.0
s(lp788
(g41
I0
tp789
atp790
a(S'y'
p791
(dp792
g334
F0.000396
sS'CONJ'
p793
F0.999604
s(lp794
(g48
I1
tp795
atp796
a(S'la'
p797
(dp798
S'PRON'
p799
F0.000591
sS'DET'
p800
F0.999408
sS'NOUN'
p801
F0.0
sg334
F0.0
s(lp802
tp803
a(S'discriminaci\xc3\xb3n'
p804
(dp805
S'NOUN'
p806
F1.0
s(lp807
(g62
I3
tp808
atp809
a(S'\xc3\xa9tnica'
p810
(dp811
S'ADJ'
p812
F1.0
s(lp813
(g69
I2
tp814
atp815
a(S'en'
p816
(dp817
g334
F0.0
sS'CONJ'
p818
F1e-06
sS'ADP'
p819
F0.999999
s(lp820
(g77
I4
tp821
atp822
a(S'la'
p823
(dp824
S'NOUN'
p825
F0.0
sS'PRON'
p826
F0.0
sS'DET'
p827
F0.999999
sg334
F0.0
s(lp828
(g86
I5
tp829
atp830
a(S'ue'
p831
(dp832
S'VERB'
p833
F4e-06
sS'NOUN'
p834
F0.999995
s(lp835
(g94
I6
tp836
atp837
a(g791
(dp838
g334
F0.001025
sS'CONJ'
p839
F0.998975
s(lp840
(g101
I7
tp841
atp842
a(S'en'
p843
(dp844
g334
F4e-06
sS'CONJ'
p845
F1e-06
sS'ADP'
p846
F0.999995
s(lp847
tp848
a(S'europa'
p849
(dp850
S'NOUN'
p851
F1.0
s(lp852
(g115
I8
tp853
atp854
a(g118
(dp855
g118
F1.0
s(lp856
(g118
I12
tp857
atp858
as.