(dp0
S'fr'
p1
(lp2
(S'les'
p3
(dp4
S'PRON'
p5
F0.000397
sS'DET'
p6
F0.99958
sS'ADP'
p7
F2.3e-05
s(lp8
tp9
a(S'informations'
p10
(dp11
S'NOUN'
p12
F1.0
s(lp13
(S'information'
p14
I0
tp15
atp16
a(S'relatives'
p17
(dp18
S'NOUN'
p19
F0.017216
sS'ADJ'
p20
F0.982784
s(lp21
tp22
a(S'\xc3\xa0'
p23
(dp24
S'ADP'
p25
F1.0
s(lp26
(S'about'
p27
I1
tp28
atp29
a(S'la'
p30
(dp31
S'PRON'
p32
F1.2e-05
sS'DET'
p33
F0.999988
sS'NOUN'
p34
F0.0
s(lp35
(S'the'
p36
I2
tp37
atp38
a(S'situation'
p39
(dp40
S'NOUN'
p41
F1.0
s(lp42
(S'situation'
p43
I3
tp44
atp45
a(S'en'
p46
(dp47
S'PRON'
p48
F0.000406
sS'ADP'
p49
F0.999594
s(lp50
(S'in'
p51
I4
tp52
atp53
a(S'r\xc3\xa9publique'
p54
(dp55
S'NOUN'
p56
F1.0
s(lp57
(S'republic'
p58
I7
tp59
atp60
a(S'd\xc3\xa9mocratique'
p61
(dp62
S'ADJ'
p63
F1.0
s(lp64
(S'democratic'
p65
I6
tp66
atp67
a(S'du'
p68
(dp69
S'ADP'
p70
F1.0
s(lp71
(S'of'
p72
I8
tp73
atp74
a(S'congo'
p75
(dp76
S'ADJ'
p77
F0.346306
sS'NOUN'
p78
F0.653694
s(lp79
(S'congo'
p80
I9
tp81
atp82
a(S'sont'
p83
(dp84
S'VERB'
p85
F1.0
s(lp86
(S'is'
p87
I10
tp88
atp89
a(S'particuli\xc3\xa8rement'
p90
(dp91
S'ADV'
p92
F1.0
s(lp93
(S'especially'
p94
I11
tp95
atp96
a(S'alarmantes'
p97
(dp98
S'ADJ'
p99
F1.0
s(lp100
(S'alarming'
p101
I12
tp102
atp103
a(S','
p104
(dp105
S'.'
p106
F1.0
s(lp107
tp108
a(S'd\xc3\xa8s'
p109
(dp110
S'ADP'
p111
F1.0
s(lp112
(S'as'
p113
I13
tp114
atp115
a(S'lors'
p116
(dp117
S'ADV'
p118
F1.0
s(lp119
tp120
a(S'que'
p121
(dp122
S'ADV'
p123
F0.022586
sS'PRON'
p124
F0.010615999999999999
sS'CONJ'
p125
F0.966798
s(lp126
(g113
I13
tp127
atp128
a(S'ces'
p129
(dp130
S'PRON'
p131
F1.0
s(lp132
(S'the'
p133
I14
tp134
atp135
a(S'actes'
p136
(dp137
S'VERB'
p138
F0.061762
sS'NOUN'
p139
F0.938238
s(lp140
(S'acts'
p141
I15
tp142
atp143
a(S"d'"
p144
(dp145
S'NOUN'
p146
F0.035866
sS'VERB'
p147
F0.700534
sS'ADJ'
p148
F0.263601
s(lp149
(S'of'
p150
I16
tp151
atp152
a(S'une'
p153
(dp154
S'NOUN'
p155
F0.001217
sS'NUM'
p156
F0.004581
sS'DET'
p157
F0.994203
s(lp158
tp159
a(S'exceptionnelle'
p160
(dp161
S'ADJ'
p162
F1.0
s(lp163
(S'exceptional'
p164
I17
tp165
atp166
a(S'brutalit\xc3\xa9'
p167
(dp168
S'NOUN'
p169
F1.0
s(lp170
(S'brutality'
p171
I18
tp172
atp173
a(S'sont'
p174
(dp175
S'VERB'
p176
F1.0
s(lp177
(S'being'
p178
I19
tp179
atp180
a(S'commis'
p181
(dp182
S'VERB'
p183
F0.991878
sS'NOUN'
p184
F0.008122
s(lp185
(S'committed'
p186
I20
tp187
atp188
a(S'dans'
p189
(dp190
S'NOUN'
p191
F6e-06
sS'ADP'
p192
F0.999994
s(lp193
(S'in'
p194
I24
tp195
atp196
a(S'le'
p197
(dp198
S'PRON'
p199
F6.2e-05
sS'DET'
p200
F0.999938
s(lp201
(S'the'
p202
I25
tp203
atp204
a(S'voisinage'
p205
(dp206
S'NOUN'
p207
F1.0
s(lp208
(S'vicinity'
p209
I26
tp210
atp211
a(S'des'
p212
(dp213
S'DET'
p214
F2.1e-05
sS'ADP'
p215
F0.999979
s(lp216
(S'of'
p217
I27
tp218
atp219
a(S'camps'
p220
(dp221
S'NOUN'
p222
F1.0
s(lp223
(S'camp'
p224
I31
tp225
atp226
a(S'de'
p227
(dp228
S'ADP'
p229
F1.0
s(lp230
(S'peacekeeping'
p231
I30
tp232
atp233
a(S'maintien'
p234
(dp235
S'NOUN'
p236
F1.0
s(lp237
(g231
I30
tp238
atp239
a(S'de'
p240
(dp241
S'ADP'
p242
F1.0
s(lp243
(g231
I30
tp244
atp245
a(S'la'
p246
(dp247
S'PRON'
p248
F1.2e-05
sS'DET'
p249
F0.999988
sS'NOUN'
p250
F0.0
s(lp251
tp252
a(S'paix'
p253
(dp254
S'NOUN'
p255
F1.0
s(lp256
(g231
I30
tp257
atp258
a(S'de'
p259
(dp260
S'ADP'
p261
F1.0
s(lp262
tp263
a(S"l'"
p264
(dp265
S'ADJ'
p266
F0.160704
sS'VERB'
p267
F0.06480800000000002
sS'NOUN'
p268
F0.774488
s(lp269
(S'the'
p270
I28
tp271
atp272
a(S'onu'
p273
(dp274
S'NOUN'
p275
F0.135777
sS'ADJ'
p276
F0.864223
s(lp277
(S'un'
p278
I29
tp279
atp280
a(g106
(dp281
g106
F1.0
s(lp282
(g106
I32
tp283
atp284
asS'en'
p285
(lp286
(g14
(dp287
S'NOUN'
p288
F1.0
s(lp289
(g14
I0
tp290
atp291
a(g27
(dp292
S'ADV'
p293
F0.059355
sS'ADP'
p294
F0.940645
s(lp295
(g27
I1
tp296
atp297
a(g36
(dp298
S'NOUN'
p299
F1e-06
sS'DET'
p300
F0.999999
s(lp301
(g36
I2
tp302
atp303
a(g43
(dp304
S'NOUN'
p305
F1.0
s(lp306
(g43
I3
tp307
atp308
a(g51
(dp309
S'ADV'
p310
F0.000191
sS'PRT'
p311
F0.000279
sS'ADP'
p312
F0.999531
s(lp313
(g51
I4
tp314
atp315
a(S'the'
p316
(dp317
S'NOUN'
p318
F1e-06
sS'DET'
p319
F0.999999
s(lp320
(g316
I5
tp321
atp322
a(g65
(dp323
S'ADJ'
p324
F1.0
s(lp325
(g65
I6
tp326
atp327
a(g58
(dp328
S'NOUN'
p329
F1.0
s(lp330
(g58
I7
tp331
atp332
a(g72
(dp333
S'ADP'
p334
F1.0
s(lp335
(g72
I8
tp336
atp337
a(g80
(dp338
S'NOUN'
p339
F1.0
s(lp340
(g80
I9
tp341
atp342
a(g87
(dp343
S'VERB'
p344
F1.0
s(lp345
(g87
I10
tp346
atp347
a(g94
(dp348
S'ADV'
p349
F1.0
s(lp350
(g94
I11
tp351
atp352
a(g101
(dp353
S'VERB'
p354
F0.626251
sS'ADJ'
p355
F0.373749
s(lp356
(g101
I12
tp357
atp358
a(g113
(dp359
S'ADV'
p360
F0.042521
sS'ADP'
p361
F0.957479
s(lp362
(g113
I13
tp363
atp364
a(g133
(dp365
S'NOUN'
p366
F1.1e-05
sS'DET'
p367
F0.999989
s(lp368
(g133
I14
tp369
atp370
a(g141
(dp371
S'VERB'
p372
F0.018227
sS'NOUN'
p373
F0.981773
s(lp374
(g141
I15
tp375
atp376
a(g150
(dp377
S'ADP'
p378
F1.0
s(lp379
(g150
I16
tp380
atp381
a(g164
(dp382
S'ADJ'
p383
F1.0
s(lp384
(g164
I17
tp385
atp386
a(g171
(dp387
S'NOUN'
p388
F1.0
s(lp389
(g171
I18
tp390
atp391
a(g178
(dp392
S'NOUN'
p393
F0.000162
sS'VERB'
p394
F0.999347
sS'ADJ'
p395
F0.000491
s(lp396
(g178
I19
tp397
atp398
a(g186
(dp399
S'VERB'
p400
F0.682608
sS'ADJ'
p401
F0.317392
s(lp402
(g186
I20
tp403
atp404
a(S'are'
p405
(dp406
S'VERB'
p407
F0.998353
sS'NOUN'
p408
F0.001647
s(lp409
(g405
I21
tp410
atp411
a(S'taking'
p412
(dp413
S'NOUN'
p414
F0.000352
sS'VERB'
p415
F0.998073
sS'ADJ'
p416
F0.001575
s(lp417
(g412
I22
tp418
atp419
a(S'place'
p420
(dp421
S'VERB'
p422
F0.0049700000000000005
sS'NOUN'
p423
F0.99503
s(lp424
(g420
I23
tp425
atp426
a(g194
(dp427
S'ADV'
p428
F0.000199
sS'PRT'
p429
F0.000375
sS'ADP'
p430
F0.999426
s(lp431
(g194
I24
tp432
atp433
a(g202
(dp434
S'NOUN'
p435
F1e-06
sS'DET'
p436
F0.999999
s(lp437
(g202
I25
tp438
atp439
a(g209
(dp440
S'NOUN'
p441
F1.0
s(lp442
(g209
I26
tp443
atp444
a(g217
(dp445
S'ADP'
p446
F1.0
s(lp447
(g217
I27
tp448
atp449
a(g270
(dp450
S'NOUN'
p451
F5e-06
sS'DET'
p452
F0.999995
s(lp453
(g270
I28
tp454
atp455
a(g278
(dp456
S'ADV'
p457
F0.002819
sS'ADJ'
p458
F0.04566
sS'VERB'
p459
F0.003924
sS'NOUN'
p460
F0.947596
s(lp461
(g278
I29
tp462
atp463
a(g231
(dp464
S'VERB'
p465
F1.0
s(lp466
(g231
I30
tp467
atp468
a(g224
(dp469
S'ADJ'
p470
F0.023855
sS'VERB'
p471
F0.000711
sS'NOUN'
p472
F0.975434
s(lp473
(g224
I31
tp474
atp475
a(g106
(dp476
g106
F1.0
s(lp477
(g106
I32
tp478
atp479
asS'nl'
p480
(lp481
(S'de'
p482
(dp483
S'DET'
p484
F1.0
s(lp485
tp486
a(S'informatie'
p487
(dp488
S'NOUN'
p489
F1.0
s(lp490
(g14
I0
tp491
atp492
a(S'over'
p493
(dp494
S'ADV'
p495
F0.015324
sS'ADP'
p496
F0.984676
s(lp497
(g27
I1
tp498
atp499
a(S'de'
p500
(dp501
S'DET'
p502
F1.0
s(lp503
(g36
I2
tp504
atp505
a(S'situatie'
p506
(dp507
S'NOUN'
p508
F1.0
s(lp509
(g43
I3
tp510
atp511
a(S'in'
p512
(dp513
S'ADV'
p514
F0.002979
sS'VERB'
p515
F2e-06
sS'ADP'
p516
F0.997018
s(lp517
(g51
I4
tp518
atp519
a(S'de'
p520
(dp521
S'DET'
p522
F1.0
s(lp523
(g316
I5
tp524
atp525
a(S'democratische'
p526
(dp527
S'NOUN'
p528
F0.006177
sS'ADJ'
p529
F0.993823
s(lp530
(g65
I6
tp531
atp532
a(S'republiek'
p533
(dp534
S'NOUN'
p535
F1.0
s(lp536
(g58
I7
tp537
atp538
a(S'congo'
p539
(dp540
S'NOUN'
p541
F1.0
s(lp542
(g80
I9
tp543
atp544
a(S'is'
p545
(dp546
S'VERB'
p547
F1.0
s(lp548
(g87
I10
tp549
atp550
a(S'des'
p551
(dp552
S'NOUN'
p553
F0.270183
sS'DET'
p554
F0.729817
s(lp555
(g94
I11
tp556
atp557
a(S'te'
p558
(dp559
S'PRT'
p560
F1.0
s(lp561
tp562
a(S'alarmerend'
p563
(dp564
S'VERB'
p565
F1.0
s(lp566
(g101
I12
tp567
atp568
a(S'omdat'
p569
(dp570
S'CONJ'
p571
F1.0
s(lp572
(g113
I13
tp573
atp574
a(S'de'
p575
(dp576
S'DET'
p577
F1.0
s(lp578
(g133
I14
tp579
atp580
a(S'uitzonderlijke'
p581
(dp582
S'NOUN'
p583
F0.001926
sS'ADJ'
p584
F0.998074
s(lp585
(g164
I17
tp586
atp587
a(S'brute'
p588
(dp589
S'NOUN'
p590
F0.00027
sS'ADJ'
p591
F0.99973
s(lp592
tp593
a(S'gewelddaden'
p594
(dp595
S'NOUN'
p596
F1.0
s(lp597
(g171
I18
tp598
atp599
a(S'worden'
p600
(dp601
S'VERB'
p602
F1.0
sS'NOUN'
p603
F0.0
s(lp604
(g178
I19
tp605
atp606
a(S'gepleegd'
p607
(dp608
S'VERB'
p609
F1.0
s(lp610
(g186
I20
tp611
atp612
a(S'in'
p613
(dp614
S'ADV'
p615
F0.000106
sS'VERB'
p616
F1e-06
sS'ADP'
p617
F0.999893
s(lp618
(g194
I24
tp619
atp620
a(S'de'
p621
(dp622
S'DET'
p623
F1.0
s(lp624
(g202
I25
tp625
atp626
a(S'nabijheid'
p627
(dp628
S'NOUN'
p629
F1.0
s(lp630
(g209
I26
tp631
atp632
a(S'van'
p633
(dp634
S'ADP'
p635
F1.0
s(lp636
(g217
I27
tp637
atp638
a(S'het'
p639
(dp640
S'PRON'
p641
F0.001289
sS'DET'
p642
F0.99871
s(lp643
(g270
I28
tp644
atp645
a(S'kamp'
p646
(dp647
S'VERB'
p648
F0.000519
sS'NOUN'
p649
F0.999481
s(lp650
(g224
I31
tp651
atp652
a(S'van'
p653
(dp654
S'ADP'
p655
F1.0
s(lp656
tp657
a(S'de'
p658
(dp659
S'DET'
p660
F1.0
s(lp661
(g278
I29
tp662
atp663
a(S'vn-vredesmacht'
p664
(dp665
S'NOUN'
p666
F1.0
s(lp667
(g231
I30
tp668
atp669
a(g106
(dp670
g106
F1.0
s(lp671
(g106
I32
tp672
atp673
asS'de'
p674
(lp675
(S'die'
p676
(dp677
S'PRON'
p678
F0.003296
sS'DET'
p679
F0.99593
s(lp680
tp681
a(S'informationen'
p682
(dp683
S'ADJ'
p684
F0.019317
sS'NOUN'
p685
F0.964518
s(lp686
(g14
I0
tp687
atp688
a(S'\xc3\xbcber'
p689
(dp690
S'PRT'
p691
F9e-05
sS'ADP'
p692
F0.99991
s(lp693
(g27
I1
tp694
atp695
a(S'die'
p696
(dp697
S'PRON'
p698
F6.4e-05
sS'DET'
p699
F0.999919
s(lp700
(g36
I2
tp701
atp702
a(S'lage'
p703
(dp704
S'ADJ'
p705
F0.000135
sS'NOUN'
p706
F0.999725
s(lp707
(g43
I3
tp708
atp709
a(S'in'
p710
(dp711
S'ADP'
p712
F1.0
s(lp713
(g51
I4
tp714
atp715
a(S'der'
p716
(dp717
S'PRON'
p718
F6.7e-05
sS'DET'
p719
F0.999928
s(lp720
(g316
I5
tp721
atp722
a(S'demokratischen'
p723
(dp724
S'ADJ'
p725
F1.0
s(lp726
(g65
I6
tp727
atp728
a(S'republik'
p729
(dp730
S'ADJ'
p731
F0.184458
sS'NOUN'
p732
F0.810061
s(lp733
(g58
I7
tp734
atp735
a(S'kongo'
p736
(dp737
S'ADJ'
p738
F0.367684
sS'NOUN'
p739
F0.435719
s(lp740
(g80
I9
tp741
atp742
a(S'sind'
p743
(dp744
S'VERB'
p745
F1.0
s(lp746
(g87
I10
tp747
atp748
a(S'besonders'
p749
(dp750
S'ADV'
p751
F1.0
s(lp752
(g94
I11
tp753
atp754
a(S'alarmierend'
p755
(dp756
S'ADJ'
p757
F1.0
s(lp758
(g101
I12
tp759
atp760
a(g104
(dp761
g106
F1.0
s(lp762
tp763
a(S'da'
p764
(dp765
S'ADV'
p766
F0.079542
sS'CONJ'
p767
F0.920432
s(lp768
(g113
I13
tp769
atp770
a(S'die'
p771
(dp772
S'PRON'
p773
F0.004849
sS'DET'
p774
F0.994839
s(lp775
(g133
I14
tp776
atp777
a(S'akte'
p778
(dp779
S'ADJ'
p780
F1.0
s(lp781
(g141
I15
tp782
atp783
a(S'au\xc3\x9fergew\xc3\xb6hnlicher'
p784
(dp785
S'ADJ'
p786
F1.0
s(lp787
(g164
I17
tp788
atp789
a(S'brutalit\xc3\xa4t'
p790
(dp791
S'ADJ'
p792
F0.002587
sS'NOUN'
p793
F0.994357
s(lp794
(g171
I18
tp795
atp796
a(S'in'
p797
(dp798
S'ADP'
p799
F1.0
s(lp800
(g194
I24
tp801
atp802
a(S'der'
p803
(dp804
S'PRON'
p805
F0.239488
sS'DET'
p806
F0.757323
s(lp807
(g202
I25
tp808
atp809
a(S'n\xc3\xa4he'
p810
(dp811
S'VERB'
p812
F1.0
s(lp813
(g209
I26
tp814
atp815
a(S'des'
p816
(dp817
S'DET'
p818
F1.0
s(lp819
(g217
I27
tp820
atp821
a(S'lagers'
p822
(dp823
S'ADJ'
p824
F9.4e-05
sS'NOUN'
p825
F0.999849
s(lp826
(g224
I31
tp827
atp828
a(S'der'
p829
(dp830
S'PRON'
p831
F0.000231
sS'DET'
p832
F0.999685
s(lp833
(g270
I28
tp834
atp835
a(S'un-friedenstruppen'
p836
(dp837
S'ADJ'
p838
F0.090035
sS'NOUN'
p839
F0.902196
s(lp840
(g231
I30
tp841
atp842
a(S'begangen'
p843
(dp844
S'VERB'
p845
F1.0
s(lp846
(g186
I20
tp847
atp848
a(S'werden'
p849
(dp850
S'VERB'
p851
F0.999996
s(lp852
(g178
I19
tp853
atp854
a(g106
(dp855
g106
F1.0
s(lp856
(g106
I32
tp857
atp858
asS'it'
p859
(lp860
(S'le'
p861
(dp862
S'PRON'
p863
F0.000148
sS'DET'
p864
F0.999852
s(lp865
tp866
a(S'informazioni'
p867
(dp868
S'NOUN'
p869
F1.0
s(lp870
(g14
I0
tp871
atp872
a(S'sulla'
p873
(dp874
S'NOUN'
p875
F5e-06
sS'ADP'
p876
F0.999995
s(lp877
(g27
I1
tp878
atp879
a(S'situazione'
p880
(dp881
S'NOUN'
p882
F1.0
s(lp883
(g43
I3
tp884
atp885
a(S'nella'
p886
(dp887
S'ADP'
p888
F1.0
s(lp889
(g51
I4
tp890
atp891
a(S'repubblica'
p892
(dp893
S'NOUN'
p894
F1.0
s(lp895
(g58
I7
tp896
atp897
a(S'democratica'
p898
(dp899
S'NOUN'
p900
F0.016714
sS'ADJ'
p901
F0.983286
s(lp902
(g65
I6
tp903
atp904
a(S'del'
p905
(dp906
S'DEF'
p907
F3.8e-05
sS'ADP'
p908
F0.999962
s(lp909
(g72
I8
tp910
atp911
a(S'congo'
p912
(dp913
S'VERB'
p914
F1.0
s(lp915
(g80
I9
tp916
atp917
a(S'sono'
p918
(dp919
S'VERB'
p920
F0.995121
sS'NOUN'
p921
F0.004879
s(lp922
(g87
I10
tp923
atp924
a(S'particolarmente'
p925
(dp926
S'ADV'
p927
F1.0
s(lp928
(g94
I11
tp929
atp930
a(S'allarmanti'
p931
(dp932
S'VERB'
p933
F0.048755
sS'ADJ'
p934
F0.951245
s(lp935
(g101
I12
tp936
atp937
a(S'in'
p938
(dp939
S'ADP'
p940
F1.0
s(lp941
tp942
a(S'quanto'
p943
(dp944
S'ADV'
p945
F0.518382
sS'PRON'
p946
F0.457042
sS'ADJ'
p947
F0.023842
sS'NOUN'
p948
F0.000734
s(lp949
(g113
I13
tp950
atp951
a(S'gli'
p952
(dp953
S'PRON'
p954
F0.000241
sS'DET'
p955
F0.999759
s(lp956
tp957
a(S'atti'
p958
(dp959
S'ADJ'
p960
F0.018431
sS'NOUN'
p961
F0.981569
s(lp962
(g141
I15
tp963
atp964
a(S'di'
p965
(dp966
S'CONJ'
p967
F1.6e-05
sS'ADP'
p968
F0.999984
s(lp969
(g150
I16
tp970
atp971
a(S'eccezionale'
p972
(dp973
S'ADJ'
p974
F1.0
s(lp975
(g164
I17
tp976
atp977
a(S'brutalit\xc3\xa0'
p978
(dp979
S'NOUN'
p980
F1.0
s(lp981
(g171
I18
tp982
atp983
a(S'perpetrati'
p984
(dp985
S'VERB'
p986
F1.0
s(lp987
(g186
I20
tp988
atp989
a(S'hanno'
p990
(dp991
S'VERB'
p992
F1.0
s(lp993
(g405
I21
tp994
atp995
a(S'luogo'
p996
(dp997
S'NOUN'
p998
F1.0
s(lp999
(g420
I23
tp1000
atp1001
a(S'nelle'
p1002
(dp1003
S'ADP'
p1004
F1.0
s(lp1005
(g194
I24
tp1006
atp1007
a(S'vicinanze'
p1008
(dp1009
S'NOUN'
p1010
F1.0
s(lp1011
(g209
I26
tp1012
atp1013
a(S'del'
p1014
(dp1015
S'DEF'
p1016
F0.001248
sS'ADP'
p1017
F0.998752
s(lp1018
(g217
I27
tp1019
atp1020
a(S'campo'
p1021
(dp1022
S'VERB'
p1023
F7.7e-05
sS'NOUN'
p1024
F0.999923
s(lp1025
(g224
I31
tp1026
atp1027
a(S'della'
p1028
(dp1029
S'DEF'
p1030
F0.001591
sS'ADP'
p1031
F0.998409
s(lp1032
(g231
I30
tp1033
atp1034
a(S'forza'
p1035
(dp1036
S'VERB'
p1037
F0.00022099999999999998
sS'NOUN'
p1038
F0.999779
s(lp1039
(g231
I30
tp1040
atp1041
a(S'di'
p1042
(dp1043
S'CONJ'
p1044
F4e-06
sS'ADP'
p1045
F0.999996
s(lp1046
tp1047
a(S'pace'
p1048
(dp1049
S'NOUN'
p1050
F1.0
s(lp1051
(g231
I30
tp1052
atp1053
a(S"dell'"
p1054
(dp1055
S'ADJ'
p1056
F0.040682
sS'VERB'
p1057
F0.006560999999999999
sS'NOUN'
p1058
F0.952757
s(lp1059
tp1060
a(S'onu'
p1061
(dp1062
S'NOUN'
p1063
F0.00079
sS'ADJ'
p1064
F0.99921
s(lp1065
(g278
I29
tp1066
atp1067
a(g106
(dp1068
g106
F1.0
s(lp1069
(g106
I32
tp1070
atp1071
asS'sk'
p1072
(lp1073
(S'inform\xc3\xa1cie'
p1074
(dp1075
S'NOUN'
p1076
F1.0
s(lp1077
(g14
I0
tp1078
atp1079
a(S'o'
p1080
(dp1081
S'X'
p1082
F0.000323
sS'CONJ'
p1083
F5.8e-05
sS'NOUN'
p1084
F8.000000000000001e-06
sS'ADP'
p1085
F0.99961
s(lp1086
(g27
I1
tp1087
atp1088
a(S'situ\xc3\xa1cii'
p1089
(dp1090
S'NOUN'
p1091
F1.0
s(lp1092
(g43
I3
tp1093
atp1094
a(S'v'
p1095
(dp1096
g1082
F0.00022200000000000003
sS'ADP'
p1097
F0.999777
s(lp1098
(g51
I4
tp1099
atp1100
a(S'kon\xc5\xbeskej'
p1101
(dp1102
S'ADJ'
p1103
F1.0
s(lp1104
(g80
I9
tp1105
atp1106
a(S'demokratickej'
p1107
(dp1108
S'ADJ'
p1109
F1.0
s(lp1110
(g65
I6
tp1111
atp1112
a(S'republike'
p1113
(dp1114
S'NOUN'
p1115
F1.0
s(lp1116
(g58
I7
tp1117
atp1118
a(S's\xc3\xba'
p1119
(dp1120
S'VERB'
p1121
F1.0
s(lp1122
(g87
I10
tp1123
atp1124
a(S'zvl\xc3\xa1\xc5\xa1\xc5\xa5'
p1125
(dp1126
S'ADV'
p1127
F0.889299
sg1082
F0.110701
s(lp1128
(g94
I11
tp1129
atp1130
a(S'alarmuj\xc3\xbace'
p1131
(dp1132
S'NOUN'
p1133
F0.019371
sS'VERB'
p1134
F0.7817049999999998
sS'ADJ'
p1135
F0.19892300000000002
s(lp1136
(g101
I12
tp1137
atp1138
a(g104
(dp1139
g106
F1.0
s(lp1140
tp1141
a(S'preto\xc5\xbee'
p1142
(dp1143
S'CONJ'
p1144
F1.0
s(lp1145
(g113
I13
tp1146
atp1147
a(S'mimoriadne'
p1148
(dp1149
S'ADV'
p1150
F0.908519
sS'ADJ'
p1151
F0.091481
s(lp1152
(g164
I17
tp1153
atp1154
a(S'brut\xc3\xa1lne'
p1155
(dp1156
S'ADV'
p1157
F0.01849
sS'ADJ'
p1158
F0.9815090000000001
s(lp1159
(g171
I18
tp1160
atp1161
a(S'\xc4\x8diny'
p1162
(dp1163
S'NOUN'
p1164
F1.0
s(lp1165
(g141
I15
tp1166
atp1167
a(S'sa'
p1168
(dp1169
S'PRT'
p1170
F0.999979
sS'ADP'
p1171
F0.0
sg1082
F2.1000000000000002e-05
s(lp1172
(g178
I19
tp1173
atp1174
a(S'p\xc3\xa1chaj\xc3\xba'
p1175
(dp1176
S'VERB'
p1177
F1.0
s(lp1178
(g186
I20
tp1179
atp1180
a(g1095
(dp1181
g1082
F0.00040400000000000006
sS'ADP'
p1182
F0.999595
s(lp1183
(g194
I24
tp1184
atp1185
a(S'bl\xc3\xadzkosti'
p1186
(dp1187
S'NOUN'
p1188
F1.0
s(lp1189
(g209
I26
tp1190
atp1191
a(S'mierov\xc3\xa9ho'
p1192
(dp1193
S'ADJ'
p1194
F1.0
s(lp1195
(g231
I30
tp1196
atp1197
a(S't\xc3\xa1bora'
p1198
(dp1199
S'NOUN'
p1200
F1.0
s(lp1201
(g224
I31
tp1202
atp1203
a(S'osn'
p1204
(dp1205
S'ADJ'
p1206
F0.000426
sg1082
F0.002961
sS'VERB'
p1207
F0.009340999999999995
sS'NOUN'
p1208
F0.9872719999999999
s(lp1209
(g278
I29
tp1210
atp1211
a(g106
(dp1212
g106
F1.0
s(lp1213
(g106
I32
tp1214
atp1215
asS'pl'
p1216
(lp1217
(S'informacje'
p1218
(dp1219
S'NOUN'
p1220
F1.0
s(lp1221
(g14
I0
tp1222
atp1223
a(g1080
(dp1224
g1082
F4.6e-05
sS'VERB'
p1225
F0.0
sS'NOUN'
p1226
F5.999999999999999e-06
sS'ADP'
p1227
F0.9999450000000001
sS'PRT'
p1228
F1e-06
s(lp1229
(g27
I1
tp1230
atp1231
a(S'sytuacji'
p1232
(dp1233
S'NOUN'
p1234
F0.999999
s(lp1235
(g43
I3
tp1236
atp1237
a(S'w'
p1238
(dp1239
S'NOUN'
p1240
F0.013592
sS'ADJ'
p1241
F0.113614
sS'ADP'
p1242
F0.8715800000000001
sg1082
F0.0012139999999999998
s(lp1243
(g51
I4
tp1244
atp1245
a(S'demokratycznej'
p1246
(dp1247
S'ADJ'
p1248
F1.0
s(lp1249
(g65
I6
tp1250
atp1251
a(S'republice'
p1252
(dp1253
S'NOUN'
p1254
F1.0
s(lp1255
(g58
I7
tp1256
atp1257
a(S'konga'
p1258
(dp1259
S'ADV'
p1260
F0.001702
sS'ADJ'
p1261
F0.0033029999999999995
sS'VERB'
p1262
F4.9e-05
sS'NOUN'
p1263
F0.9949460000000001
s(lp1264
(g80
I9
tp1265
atp1266
a(S's\xc4\x85'
p1267
(dp1268
S'VERB'
p1269
F1.0
s(lp1270
(g87
I10
tp1271
atp1272
a(S'szczeg\xc3\xb3lnie'
p1273
(dp1274
S'ADV'
p1275
F0.499037
sS'PRT'
p1276
F0.500963
s(lp1277
(g94
I11
tp1278
atp1279
a(S'niepokoj\xc4\x85ce'
p1280
(dp1281
S'ADJ'
p1282
F1.0
s(lp1283
(g101
I12
tp1284
atp1285
a(g104
(dp1286
g1082
F0.0
sg106
F1.0
s(lp1287
tp1288
a(S'bowiem'
p1289
(dp1290
S'PRT'
p1291
F0.000693
sS'CONJ'
p1292
F0.999307
s(lp1293
(g113
I13
tp1294
atp1295
a(S'do'
p1296
(dp1297
g1082
F0.0
sS'NOUN'
p1298
F2.9e-05
sS'ADP'
p1299
F0.9999699999999999
s(lp1300
(g133
I14
tp1301
atp1302
a(S'akt\xc3\xb3w'
p1303
(dp1304
S'NOUN'
p1305
F1.0
s(lp1306
(g141
I15
tp1307
atp1308
a(S'wyj\xc4\x85tkowej'
p1309
(dp1310
S'ADJ'
p1311
F1.0
s(lp1312
(g164
I17
tp1313
atp1314
a(S'przemocy'
p1315
(dp1316
S'NOUN'
p1317
F1.0
s(lp1318
(g171
I18
tp1319
atp1320
a(S'dochodzi'
p1321
(dp1322
S'VERB'
p1323
F1.0
s(lp1324
(g412
I22
tp1325
atp1326
a(g1238
(dp1327
S'ADJ'
p1328
F0.0
sg1082
F0.0
sS'NOUN'
p1329
F0.0
sS'ADP'
p1330
F0.9999999999999999
s(lp1331
(g194
I24
tp1332
atp1333
a(S'pobli\xc5\xbcu'
p1334
(dp1335
S'NOUN'
p1336
F1.0
s(lp1337
(g209
I26
tp1338
atp1339
a(S'obozu'
p1340
(dp1341
S'NOUN'
p1342
F1.0
s(lp1343
(g224
I31
tp1344
atp1345
a(S'oenzetowskich'
p1346
(dp1347
S'ADV'
p1348
F3e-06
sS'NOUN'
p1349
F0.014136
sS'VERB'
p1350
F0.002775
sS'ADJ'
p1351
F0.983086
s(lp1352
(g278
I29
tp1353
atp1354
a(S'si\xc5\x82'
p1355
(dp1356
S'NOUN'
p1357
F1.0
s(lp1358
tp1359
a(S'pokojowych'
p1360
(dp1361
S'ADJ'
p1362
F1.0
s(lp1363
(g231
I30
tp1364
atp1365
a(g106
(dp1366
g106
F1.0
s(lp1367
(g106
I32
tp1368
atp1369
asS'sl'
p1370
(lp1371
(S'informacije'
p1372
(dp1373
S'NOUN'
p1374
F1.0
s(lp1375
(g14
I0
tp1376
atp1377
a(g1080
(dp1378
S'NOUN'
p1379
F1e-06
sS'ADP'
p1380
F0.999999
s(lp1381
(g27
I1
tp1382
atp1383
a(S'razmerah'
p1384
(dp1385
S'NOUN'
p1386
F1.0
s(lp1387
(g43
I3
tp1388
atp1389
a(g1095
(dp1390
S'ADP'
p1391
F1.0
s(lp1392
(g51
I4
tp1393
atp1394
a(S'demokrati\xc4\x8dni'
p1395
(dp1396
S'ADJ'
p1397
F1.0
s(lp1398
(g65
I6
tp1399
atp1400
a(S'republiki'
p1401
(dp1402
S'NOUN'
p1403
F1.0
s(lp1404
(g58
I7
tp1405
atp1406
a(S'kongo'
p1407
(dp1408
S'ADV'
p1409
F0.068632
sg1082
F0.012448
sS'ADJ'
p1410
F0.02419
sS'NOUN'
p1411
F0.89473
s(lp1412
(g80
I9
tp1413
atp1414
a(S'so'
p1415
(dp1416
g1082
F0.000987
sS'VERB'
p1417
F0.999013
s(lp1418
(g87
I10
tp1419
atp1420
a(S'zlasti'
p1421
(dp1422
S'ADV'
p1423
F0.065796
sS'PRT'
p1424
F0.934204
s(lp1425
(g94
I11
tp1426
atp1427
a(S'zaskrbljujo\xc4\x8de'
p1428
(dp1429
S'ADJ'
p1430
F1.0
s(lp1431
(g101
I12
tp1432
atp1433
a(g104
(dp1434
g106
F1.0
s(lp1435
tp1436
a(S'ker'
p1437
(dp1438
S'CONJ'
p1439
F1.0
s(lp1440
(g113
I13
tp1441
atp1442
a(S'se'
p1443
(dp1444
S'PRON'
p1445
F0.999999
sg1082
F1e-06
s(lp1446
(g133
I14
tp1447
atp1448
a(S'izredno'
p1449
(dp1450
S'ADV'
p1451
F0.998998
sS'ADJ'
p1452
F0.001002
s(lp1453
(g164
I17
tp1454
atp1455
a(S'brutalno'
p1456
(dp1457
S'ADV'
p1458
F1.0
s(lp1459
tp1460
a(S'ravnanje'
p1461
(dp1462
S'NOUN'
p1463
F1.0
s(lp1464
(g171
I18
tp1465
atp1466
a(S'dogaja'
p1467
(dp1468
S'VERB'
p1469
F1.0
s(lp1470
(g412
I22
tp1471
atp1472
a(g1095
(dp1473
S'ADP'
p1474
F1.0
s(lp1475
(g194
I24
tp1476
atp1477
a(S'bli\xc5\xbeini'
p1478
(dp1479
S'NOUN'
p1480
F1.0
s(lp1481
(g209
I26
tp1482
atp1483
a(S'tabora'
p1484
(dp1485
S'NOUN'
p1486
F1.0
s(lp1487
(g224
I31
tp1488
atp1489
a(S'mirovnih'
p1490
(dp1491
S'ADJ'
p1492
F1.0
s(lp1493
tp1494
a(S'sil'
p1495
(dp1496
S'NOUN'
p1497
F1.0
s(lp1498
(g231
I30
tp1499
atp1500
a(S'zn'
p1501
(dp1502
S'ADV'
p1503
F0.000928
sS'ADJ'
p1504
F0.035151999999999996
sS'VERB'
p1505
F0.012921
sS'NOUN'
p1506
F0.9500860000000002
sg1082
F0.000912
s(lp1507
(g278
I29
tp1508
atp1509
a(g106
(dp1510
g106
F1.0
s(lp1511
(g106
I32
tp1512
atp1513
asS'es'
p1514
(lp1515
(S'la'
p1516
(dp1517
g1082
F4.5e-05
sS'DET'
p1518
F0.999917
sS'NOUN'
p1519
F0.0
sS'PRON'
p1520
F3.8e-05
s(lp1521
(g270
I28
tp1522
atp1523
a(S'informaci\xc3\xb3n'
p1524
(dp1525
S'NOUN'
p1526
F1.0
s(lp1527
(g14
I0
tp1528
atp1529
a(S'sobre'
p1530
(dp1531
S'NOUN'
p1532
F0.0
sS'ADP'
p1533
F1.0
s(lp1534
(g27
I1
tp1535
atp1536
a(S'la'
p1537
(dp1538
S'NOUN'
p1539
F0.0
sS'PRON'
p1540
F0.0
sS'DET'
p1541
F0.999999
sg1082
F0.0
s(lp1542
(g36
I2
tp1543
atp1544
a(S'situaci\xc3\xb3n'
p1545
(dp1546
S'NOUN'
p1547
F1.0
s(lp1548
(g43
I3
tp1549
atp1550
a(S'en'
p1551
(dp1552
g1082
F0.0
sS'CONJ'
p1553
F0.0
sS'ADP'
p1554
F1.0
s(lp1555
(g51
I4
tp1556
atp1557
a(S'la'
p1558
(dp1559
S'NOUN'
p1560
F1e-06
sS'PRON'
p1561
F0.0
sS'DET'
p1562
F0.999998
sg1082
F0.0
s(lp1563
(g316
I5
tp1564
atp1565
a(S'rep\xc3\xbablica'
p1566
(dp1567
S'ADJ'
p1568
F0.016621
sS'NOUN'
p1569
F0.983379
s(lp1570
(g58
I7
tp1571
atp1572
a(S'democr\xc3\xa1tica'
p1573
(dp1574
S'ADJ'
p1575
F1.0
s(lp1576
(g65
I6
tp1577
atp1578
a(S'del'
p1579
(dp1580
S'ADP'
p1581
F1.0
s(lp1582
(g72
I8
tp1583
atp1584
a(S'congo'
p1585
(dp1586
S'NOUN'
p1587
F1.0
s(lp1588
(g80
I9
tp1589
atp1590
a(S'es'
p1591
(dp1592
S'VERB'
p1593
F1.0
s(lp1594
(g87
I10
tp1595
atp1596
a(S'especialmente'
p1597
(dp1598
S'ADV'
p1599
F1.0
s(lp1600
(g94
I11
tp1601
atp1602
a(S'alarmante'
p1603
(dp1604
S'ADJ'
p1605
F1.0
s(lp1606
(g101
I12
tp1607
atp1608
a(g104
(dp1609
g106
F1.0
s(lp1610
tp1611
a(S'pues'
p1612
(dp1613
S'CONJ'
p1614
F1.0
s(lp1615
(g113
I13
tp1616
atp1617
a(S'los'
p1618
(dp1619
S'PRON'
p1620
F0.0
sS'DET'
p1621
F1.0
s(lp1622
(g133
I14
tp1623
atp1624
a(S'actos'
p1625
(dp1626
S'NOUN'
p1627
F1.0
s(lp1628
(g141
I15
tp1629
atp1630
a(S'de'
p1631
(dp1632
g1082
F0.0
sS'CONJ'
p1633
F1.7e-05
sS'ADP'
p1634
F0.999983
s(lp1635
(g150
I16
tp1636
atp1637
a(S'una'
p1638
(dp1639
S'DET'
p1640
F1.0
s(lp1641
tp1642
a(S'brutalidad'
p1643
(dp1644
S'NOUN'
p1645
F1.0
s(lp1646
(g171
I18
tp1647
atp1648
a(S'excepcional'
p1649
(dp1650
S'ADJ'
p1651
F1.0
s(lp1652
(g164
I17
tp1653
atp1654
a(S'que'
p1655
(dp1656
g1082
F1e-06
sS'CONJ'
p1657
F0.999999
s(lp1658
tp1659
a(S'se'
p1660
(dp1661
S'PRON'
p1662
F1.0
sS'VERB'
p1663
F0.0
s(lp1664
(g178
I19
tp1665
atp1666
a(S'cometen'
p1667
(dp1668
S'VERB'
p1669
F1.0
s(lp1670
(g186
I20
tp1671
atp1672
a(S'est\xc3\xa1n'
p1673
(dp1674
S'VERB'
p1675
F1.0
s(lp1676
(g405
I21
tp1677
atp1678
a(S'teniendo'
p1679
(dp1680
S'VERB'
p1681
F1.0
s(lp1682
(g412
I22
tp1683
atp1684
a(S'lugar'
p1685
(dp1686
S'NOUN'
p1687
F1.0
s(lp1688
(g420
I23
tp1689
atp1690
a(S'en'
p1691
(dp1692
g1082
F0.0
sS'CONJ'
p1693
F0.0
sS'ADP'
p1694
F1.0
s(lp1695
(g194
I24
tp1696
atp1697
a(S'las'
p1698
(dp1699
S'PRON'
p1700
F0.0
sS'DET'
p1701
F1.0
s(lp1702
(g202
I25
tp1703
atp1704
a(S'proximidades'
p1705
(dp1706
S'NOUN'
p1707
F1.0
s(lp1708
(g209
I26
tp1709
atp1710
a(S'del'
p1711
(dp1712
S'ADP'
p1713
F1.0
s(lp1714
(g217
I27
tp1715
atp1716
a(S'campo'
p1717
(dp1718
S'NOUN'
p1719
F1.0
s(lp1720
(g224
I31
tp1721
atp1722
a(S'de'
p1723
(dp1724
g1082
F0.0
sS'CONJ'
p1725
F1.7e-05
sS'ADP'
p1726
F0.999983
s(lp1727
(g217
I27
tp1728
atp1729
a(S'las'
p1730
(dp1731
S'PRON'
p1732
F0.0
sS'DET'
p1733
F1.0
s(lp1734
(g278
I29
tp1735
atp1736
a(S'fuerzas'
p1737
(dp1738
S'VERB'
p1739
F0.000332
sS'NOUN'
p1740
F0.999668
s(lp1741
(g231
I30
tp1742
atp1743
a(S'de'
p1744
(dp1745
g1082
F2.9e-05
sS'CONJ'
p1746
F0.000449
sS'ADP'
p1747
F0.999522
s(lp1748
(g217
I27
tp1749
atp1750
a(S'mantenimiento'
p1751
(dp1752
S'NOUN'
p1753
F1.0
s(lp1754
(g231
I30
tp1755
atp1756
a(S'de'
p1757
(dp1758
g1082
F0.0
sS'CONJ'
p1759
F1.7e-05
sS'ADP'
p1760
F0.999983
s(lp1761
tp1762
a(S'la'
p1763
(dp1764
g1082
F0.0
sS'PRON'
p1765
F0.0
sS'DET'
p1766
F0.999999
sS'NOUN'
p1767
F0.0
s(lp1768
tp1769
a(S'paz'
p1770
(dp1771
S'NOUN'
p1772
F1.0
s(lp1773
(g231
I30
tp1774
atp1775
a(S'de'
p1776
(dp1777
g1082
F0.0
sS'CONJ'
p1778
F1.7e-05
sS'ADP'
p1779
F0.999983
s(lp1780
(g217
I27
tp1781
atp1782
a(S'las'
p1783
(dp1784
S'PRON'
p1785
F0.0
sS'DET'
p1786
F1.0
s(lp1787
(g278
I29
tp1788
atp1789
a(S'naciones'
p1790
(dp1791
S'NOUN'
p1792
F0.357041
sS'VERB'
p1793
F0.21179699999999999
sS'ADJ'
p1794
F0.431163
s(lp1795
tp1796
a(S'unidas'
p1797
(dp1798
S'NOUN'
p1799
F0.357041
sS'VERB'
p1800
F0.21179699999999999
sS'ADJ'
p1801
F0.431163
s(lp1802
(g278
I29
tp1803
atp1804
a(g106
(dp1805
g106
F1.0
s(lp1806
(g106
I32
tp1807
atp1808
as.