(dp0
S'fr'
p1
(lp2
(S'mon'
p3
(dp4
S'PRON'
p5
F1.0
s(lp6
(S'my'
p7
I0
tp8
atp9
a(S'parti'
p10
(dp11
S'ADJ'
p12
F0.025209
sS'VERB'
p13
F7e-06
sS'NOUN'
p14
F0.974784
s(lp15
(S'party'
p16
I1
tp17
atp18
a(S'est'
p19
(dp20
S'VERB'
p21
F0.998752
sS'NOUN'
p22
F0.001248
s(lp23
(S'is'
p24
I2
tp25
atp26
a(S'favorable'
p27
(dp28
S'ADJ'
p29
F1.0
s(lp30
(S'favour'
p31
I4
tp32
atp33
a(S'aux'
p34
(dp35
S'ADP'
p36
F1.0
s(lp37
(S'of'
p38
I5
tp39
atp40
a(S'voitures'
p41
(dp42
S'VERB'
p43
F0.0
sS'NOUN'
p44
F1.0
s(lp45
(S'cars'
p46
I6
tp47
atp48
a(S','
p49
(dp50
S'.'
p51
F1.0
s(lp52
(g49
I7
tp53
atp54
a(S'comme'
p55
(dp56
S'ADV'
p57
F0.124935
sS'CONJ'
p58
F0.875065
s(lp59
(S'as'
p60
I8
tp61
atp62
a(S'le'
p63
(dp64
S'PRON'
p65
F0.988022
sS'DET'
p66
F0.011978
s(lp67
tp68
a(S'sait'
p69
(dp70
S'VERB'
p71
F1.0
s(lp72
(S'aware'
p73
I15
tp74
atp75
a(S'\xc3\xa9galement'
p76
(dp77
S'ADV'
p78
F1.0
s(lp79
(S'too'
p80
I12
tp81
atp82
a(S'm.'
p83
(dp84
S'NOUN'
p85
F0.002242
sS'VERB'
p86
F0.7585420000000002
sS'ADJ'
p87
F0.239056
sS'X'
p88
F0.000159
s(lp89
(S'mr'
p90
I9
tp91
atp92
a(S'verhofstadt'
p93
(dp94
S'ADJ'
p95
F0.012345
sS'NOUN'
p96
F0.9876550000000001
s(lp97
(S'verhofstadt'
p98
I10
tp99
atp100
a(g51
(dp101
g51
F1.0
s(lp102
(g51
I16
tp103
atp104
asS'en'
p105
(lp106
(g7
(dp107
S'PRON'
p108
F1.0
s(lp109
(g7
I0
tp110
atp111
a(g16
(dp112
S'ADJ'
p113
F0.000342
sS'NOUN'
p114
F0.999658
s(lp115
(g16
I1
tp116
atp117
a(g24
(dp118
S'VERB'
p119
F1.0
s(lp120
(g24
I2
tp121
atp122
a(S'in'
p123
(dp124
S'ADV'
p125
F0.011958
sS'PRT'
p126
F0.001985
sS'ADP'
p127
F0.986057
s(lp128
(g123
I3
tp129
atp130
a(g31
(dp131
S'VERB'
p132
F0.006500000000000001
sS'NOUN'
p133
F0.993501
s(lp134
(g31
I4
tp135
atp136
a(g38
(dp137
S'ADP'
p138
F1.0
s(lp139
(g38
I5
tp140
atp141
a(g46
(dp142
S'NOUN'
p143
F1.0
s(lp144
(g46
I6
tp145
atp146
a(g49
(dp147
g51
F1.0
s(lp148
(g49
I7
tp149
atp150
a(g60
(dp151
S'ADV'
p152
F0.080106
sS'ADP'
p153
F0.919894
s(lp154
(g60
I8
tp155
atp156
a(g90
(dp157
S'ADJ'
p158
F0.00395
sS'NOUN'
p159
F0.99605
s(lp160
(g90
I9
tp161
atp162
a(g98
(dp163
S'ADV'
p164
F0.003274
sS'ADJ'
p165
F0.001014
sS'VERB'
p166
F0.008299
sS'NOUN'
p167
F0.987414
s(lp168
(g98
I10
tp169
atp170
a(g49
(dp171
g51
F1.0
s(lp172
(g49
I11
tp173
atp174
a(g80
(dp175
S'ADV'
p176
F1.0
s(lp177
(g80
I12
tp178
atp179
a(g49
(dp180
g51
F1.0
s(lp181
(g49
I13
tp182
atp183
a(S'is'
p184
(dp185
S'VERB'
p186
F1.0
s(lp187
(g184
I14
tp188
atp189
a(g73
(dp190
S'ADJ'
p191
F1.0
s(lp192
(g73
I15
tp193
atp194
a(g51
(dp195
g51
F1.0
s(lp196
(g51
I16
tp197
atp198
asS'nl'
p199
(lp200
(S'mijn'
p201
(dp202
S'PRON'
p203
F0.999924
sS'NOUN'
p204
F7.6e-05
s(lp205
(g7
I0
tp206
atp207
a(S'partij'
p208
(dp209
S'NOUN'
p210
F1.0
s(lp211
(g16
I1
tp212
atp213
a(S'is'
p214
(dp215
S'VERB'
p216
F1.0
s(lp217
(g24
I2
tp218
atp219
a(S'een'
p220
(dp221
S'ADJ'
p222
F2e-06
sS'NUM'
p223
F0.0
sS'DET'
p224
F0.999997
sS'PRON'
p225
F1e-06
s(lp226
tp227
a(S'voorstander'
p228
(dp229
S'NOUN'
p230
F1.0
s(lp231
(g31
I4
tp232
atp233
a(S'van'
p234
(dp235
S'ADP'
p236
F1.0
s(lp237
(g38
I5
tp238
atp239
a(S'de'
p240
(dp241
S'DET'
p242
F1.0
s(lp243
tp244
a(S'auto'
p245
(dp246
S'NOUN'
p247
F1.0
s(lp248
(g46
I6
tp249
atp250
a(g49
(dp251
g51
F1.0
s(lp252
(g49
I7
tp253
atp254
a(S'zoals'
p255
(dp256
S'CONJ'
p257
F1.0
s(lp258
(g60
I8
tp259
atp260
a(S'ook'
p261
(dp262
S'ADV'
p263
F1.0
s(lp264
(g80
I12
tp265
atp266
a(S'de'
p267
(dp268
S'DET'
p269
F1.0
s(lp270
tp271
a(S'heer'
p272
(dp273
S'NOUN'
p274
F1.0
s(lp275
(g90
I9
tp276
atp277
a(S'verhofstadt'
p278
(dp279
S'ADJ'
p280
F0.494651
sS'NOUN'
p281
F0.505349
s(lp282
(g98
I10
tp283
atp284
a(S'weet'
p285
(dp286
S'VERB'
p287
F0.8126399999999999
sS'NOUN'
p288
F0.18736
s(lp289
(g73
I15
tp290
atp291
a(g51
(dp292
g51
F1.0
s(lp293
(g51
I16
tp294
atp295
asS'de'
p296
(lp297
(S'meine'
p298
(dp299
S'PRON'
p300
F0.998662
sS'VERB'
p301
F0.001296
s(lp302
(g7
I0
tp303
atp304
a(S'partei'
p305
(dp306
S'ADJ'
p307
F0.019153
sS'NOUN'
p308
F0.965631
s(lp309
(g16
I1
tp310
atp311
a(S'ist'
p312
(dp313
S'VERB'
p314
F1.0
s(lp315
(g24
I2
tp316
atp317
a(S'autofreundlich'
p318
(dp319
S'ADJ'
p320
F1.0
s(lp321
(g46
I6
tp322
atp323
a(g49
(dp324
g51
F1.0
s(lp325
(g49
I7
tp326
atp327
a(S'wie'
p328
(dp329
S'CONJ'
p330
F0.997471
s(lp331
(g60
I8
tp332
atp333
a(S'auch'
p334
(dp335
S'ADV'
p336
F1.0
s(lp337
(g80
I12
tp338
atp339
a(S'herr'
p340
(dp341
S'ADJ'
p342
F0.326745
sS'NOUN'
p343
F0.633377
s(lp344
(g90
I9
tp345
atp346
a(S'verhofstadt'
p347
(dp348
S'NOUN'
p349
F0.993113
s(lp350
(g98
I10
tp351
atp352
a(S'wei\xc3\x9f'
p353
(dp354
S'VERB'
p355
F0.928889
sS'ADJ'
p356
F0.039642
s(lp357
(g73
I15
tp358
atp359
a(g51
(dp360
g51
F1.0
s(lp361
(g51
I16
tp362
atp363
asS'it'
p364
(lp365
(S'il'
p366
(dp367
S'DET'
p368
F1.0
s(lp369
tp370
a(S'mio'
p371
(dp372
S'PRON'
p373
F1.0
s(lp374
(g7
I0
tp375
atp376
a(S'partito'
p377
(dp378
S'ADJ'
p379
F0.00559
sS'VERB'
p380
F2e-06
sS'NOUN'
p381
F0.994408
s(lp382
(g16
I1
tp383
atp384
a(S'\xc3\xa8'
p385
(dp386
S'VERB'
p387
F1.0
s(lp388
(g24
I2
tp389
atp390
a(S'a'
p391
(dp392
S'CONJ'
p393
F8.4e-05
sS'ADP'
p394
F0.999916
s(lp395
(g123
I3
tp396
atp397
a(S'favore'
p398
(dp399
S'NOUN'
p400
F1.0
s(lp401
(g31
I4
tp402
atp403
a(S'delle'
p404
(dp405
S'DEF'
p406
F0.001637
sS'ADP'
p407
F0.998363
s(lp408
(g38
I5
tp409
atp410
a(S'automobili'
p411
(dp412
S'ADJ'
p413
F0.469193
sS'NOUN'
p414
F0.530807
s(lp415
(g46
I6
tp416
atp417
a(g49
(dp418
g51
F1.0
s(lp419
(g49
I7
tp420
atp421
a(S'come'
p422
(dp423
S'PRON'
p424
F0.006319
sS'CONJ'
p425
F0.754598
sS'NOUN'
p426
F1.8e-05
sS'ADP'
p427
F0.239065
s(lp428
(g60
I8
tp429
atp430
a(S"l'"
p431
(dp432
S'NOUN'
p433
F0.003039
sS'VERB'
p434
F0.9862879999999999
sS'ADJ'
p435
F0.010672
s(lp436
(g90
I9
tp437
atp438
a(S'onorevole'
p439
(dp440
S'NOUN'
p441
F0.110304
sS'ADJ'
p442
F0.889696
s(lp443
tp444
a(S'verhofstadt'
p445
(dp446
S'ADJ'
p447
F0.107908
sS'VERB'
p448
F0.001139
sS'NOUN'
p449
F0.890952
s(lp450
(g98
I10
tp451
atp452
a(S'sa'
p453
(dp454
S'VERB'
p455
F1.0
s(lp456
tp457
a(S'bene'
p458
(dp459
S'ADV'
p460
F0.932505
sg88
F7e-06
sS'NOUN'
p461
F0.067489
s(lp462
(g73
I15
tp463
atp464
a(g51
(dp465
g51
F1.0
s(lp466
(g51
I16
tp467
atp468
asS'sk'
p469
(lp470
(S'na\xc5\xa1a'
p471
(dp472
S'PRON'
p473
F1.0
s(lp474
(g7
I0
tp475
atp476
a(S'strana'
p477
(dp478
S'NOUN'
p479
F1.0
s(lp480
(g16
I1
tp481
atp482
a(S'je'
p483
(dp484
g88
F0.000143
sS'VERB'
p485
F0.999843
sS'PRON'
p486
F1.3e-05
s(lp487
(g24
I2
tp488
atp489
a(S'za'
p490
(dp491
g88
F0.000181
sS'ADP'
p492
F0.999783
sS'PRT'
p493
F3.5e-05
s(lp494
(g31
I4
tp495
atp496
a(S'aut\xc3\xa1'
p497
(dp498
S'NOUN'
p499
F1.0
s(lp500
(g46
I6
tp501
atp502
a(g49
(dp503
g51
F1.0
s(lp504
(g49
I7
tp505
atp506
a(S'\xc4\x8do'
p507
(dp508
S'PRON'
p509
F0.743046
sS'CONJ'
p510
F0.199557
sg88
F0.057398
s(lp511
(g60
I8
tp512
atp513
a(S'vie'
p514
(dp515
g88
F0.000691
sS'VERB'
p516
F0.999309
s(lp517
(g73
I15
tp518
atp519
a(S'aj'
p520
(dp521
g88
F0.916587
sS'CONJ'
p522
F0.083413
s(lp523
(g80
I12
tp524
atp525
a(S'p\xc3\xa1n'
p526
(dp527
S'NOUN'
p528
F1.0
s(lp529
(g90
I9
tp530
atp531
a(S'verhofstadt'
p532
(dp533
S'ADJ'
p534
F0.000434
sg88
F0.008978
sS'NOUN'
p535
F0.9905870000000001
s(lp536
(g98
I10
tp537
atp538
a(g51
(dp539
g51
F1.0
s(lp540
(g51
I16
tp541
atp542
asS'pl'
p543
(lp544
(S'moja'
p545
(dp546
S'NOUN'
p547
F0.001769
sS'ADJ'
p548
F0.998231
s(lp549
(g7
I0
tp550
atp551
a(S'partia'
p552
(dp553
S'NOUN'
p554
F1.0
s(lp555
(g16
I1
tp556
atp557
a(S'popiera'
p558
(dp559
S'VERB'
p560
F1.0
s(lp561
(g31
I4
tp562
atp563
a(S'samochody'
p564
(dp565
S'NOUN'
p566
F1.0
s(lp567
(g46
I6
tp568
atp569
a(g49
(dp570
g88
F0.0
sg51
F1.0
s(lp571
(g49
I7
tp572
atp573
a(S'o'
p574
(dp575
g88
F0.008957000000000001
sS'VERB'
p576
F0.00011
sS'NOUN'
p577
F9.999999999999999e-06
sS'ADP'
p578
F0.9909159999999999
sS'PRT'
p579
F6e-06
s(lp580
(g38
I5
tp581
atp582
a(S'czym'
p583
(dp584
S'CONJ'
p585
F0.002215
sS'NOUN'
p586
F0.9977849999999999
s(lp587
(g60
I8
tp588
atp589
a(S'panu'
p590
(dp591
S'NOUN'
p592
F1.0
s(lp593
(g90
I9
tp594
atp595
a(S'verhofstadtowi'
p596
(dp597
S'ADV'
p598
F0.000525
sg88
F3.8e-05
sS'ADJ'
p599
F2.5e-05
sS'VERB'
p600
F0.000344
sS'NOUN'
p601
F0.9990680000000001
s(lp602
(g98
I10
tp603
atp604
a(S'wiadomo'
p605
(dp606
S'ADV'
p607
F0.057602
sS'ADJ'
p608
F0.942398
s(lp609
(g73
I15
tp610
atp611
a(g51
(dp612
g51
F1.0
s(lp613
(g51
I16
tp614
atp615
asS'sl'
p616
(lp617
(S'moja'
p618
(dp619
S'PRON'
p620
F1.0
s(lp621
(g7
I0
tp622
atp623
a(S'stranka'
p624
(dp625
S'NOUN'
p626
F1.0
s(lp627
(g16
I1
tp628
atp629
a(S'je'
p630
(dp631
S'PRON'
p632
F5.5e-05
sS'VERB'
p633
F0.9999049999999999
sg88
F4e-05
s(lp634
(g24
I2
tp635
atp636
a(S'na'
p637
(dp638
S'ADP'
p639
F1.0
s(lp640
(g123
I3
tp641
atp642
a(S'strani'
p643
(dp644
S'NOUN'
p645
F0.9999989999999999
s(lp646
(g31
I4
tp647
atp648
a(S'avtomobilov'
p649
(dp650
S'NOUN'
p651
F1.0
s(lp652
(g46
I6
tp653
atp654
a(g49
(dp655
g51
F1.0
s(lp656
(g49
I7
tp657
atp658
a(S'\xc4\x8desar'
p659
(dp660
S'PRON'
p661
F1.0
s(lp662
(g60
I8
tp663
atp664
a(S'se'
p665
(dp666
S'PRON'
p667
F0.999993
sg88
F7e-06
s(lp668
tp669
a(S'zaveda'
p670
(dp671
S'VERB'
p672
F1.0
s(lp673
(g73
I15
tp674
atp675
a(S'tudi'
p676
(dp677
S'PRT'
p678
F1.0
s(lp679
(g80
I12
tp680
atp681
a(S'gospod'
p682
(dp683
S'NOUN'
p684
F1.0
s(lp685
(g90
I9
tp686
atp687
a(S'verhofstadt'
p688
(dp689
S'ADV'
p690
F0.025555
sS'NOUN'
p691
F0.9011349999999999
sS'VERB'
p692
F0.012541
sg88
F0.003104
sS'NUM'
p693
F0.001734
sS'ADJ'
p694
F0.055931
s(lp695
(g98
I10
tp696
atp697
a(g51
(dp698
g51
F1.0
s(lp699
(g51
I16
tp700
atp701
asS'es'
p702
(lp703
(S'mi'
p704
(dp705
S'PRON'
p706
F1.0
s(lp707
(g7
I0
tp708
atp709
a(S'partido'
p710
(dp711
S'NOUN'
p712
F1.0
s(lp713
(g16
I1
tp714
atp715
a(S'est\xc3\xa1'
p716
(dp717
S'VERB'
p718
F1.0
s(lp719
(g24
I2
tp720
atp721
a(g391
(dp722
g88
F6e-06
sS'CONJ'
p723
F0.0
sS'ADP'
p724
F0.999994
s(lp725
(g123
I3
tp726
atp727
a(S'favor'
p728
(dp729
S'NOUN'
p730
F1.0
s(lp731
(g31
I4
tp732
atp733
a(S'de'
p734
(dp735
g88
F0.0
sS'CONJ'
p736
F1.7e-05
sS'ADP'
p737
F0.999983
s(lp738
(g38
I5
tp739
atp740
a(S'los'
p741
(dp742
S'PRON'
p743
F0.0
sS'DET'
p744
F1.0
s(lp745
tp746
a(S'coches'
p747
(dp748
S'NOUN'
p749
F1.0
s(lp750
(g46
I6
tp751
atp752
a(g49
(dp753
g51
F1.0
s(lp754
(g49
I7
tp755
atp756
a(S'como'
p757
(dp758
S'ADV'
p759
F0.287055
sS'CONJ'
p760
F0.7129439999999999
s(lp761
(g60
I8
tp762
atp763
a(S'tambi\xc3\xa9n'
p764
(dp765
S'ADV'
p766
F1.0
s(lp767
(g80
I12
tp768
atp769
a(S'sabe'
p770
(dp771
S'VERB'
p772
F1.0
s(lp773
(g73
I15
tp774
atp775
a(S'el'
p776
(dp777
S'PRON'
p778
F1e-06
sS'DET'
p779
F0.999999
s(lp780
tp781
a(S'se\xc3\xb1or'
p782
(dp783
S'NOUN'
p784
F1.0
s(lp785
(g90
I9
tp786
atp787
a(S'verhofstadt'
p788
(dp789
S'ADJ'
p790
F0.164416
sS'VERB'
p791
F0.035049
sS'NOUN'
p792
F0.800535
s(lp793
(g98
I10
tp794
atp795
a(g51
(dp796
g51
F1.0
s(lp797
(g51
I16
tp798
atp799
as.