(dp0
S'fr'
p1
(lp2
(S'cette'
p3
(dp4
S'PRON'
p5
F1.0
s(lp6
(S'this'
p7
I0
tp8
atp9
a(S'vision'
p10
(dp11
S'NOUN'
p12
F1.0
s(lp13
(S'vision'
p14
I1
tp15
atp16
a(S'de'
p17
(dp18
S'ADP'
p19
F1.0
s(lp20
(S'of'
p21
I2
tp22
atp23
a(S"l'"
p24
(dp25
S'ADJ'
p26
F0.160704
sS'VERB'
p27
F0.06480800000000002
sS'NOUN'
p28
F0.774488
s(lp29
(S'the'
p30
I3
tp31
atp32
a(S'avenir'
p33
(dp34
S'NOUN'
p35
F1.0
s(lp36
(S'future'
p37
I4
tp38
atp39
a(S'de'
p40
(dp41
S'ADP'
p42
F1.0
s(lp43
(S'of'
p44
I5
tp45
atp46
a(S"l'"
p47
(dp48
S'ADJ'
p49
F0.160704
sS'VERB'
p50
F0.06480800000000002
sS'NOUN'
p51
F0.774488
s(lp52
tp53
a(S'europe'
p54
(dp55
S'VERB'
p56
F0.012202
sS'NOUN'
p57
F0.987799
s(lp58
(S'europe'
p59
I6
tp60
atp61
a(S'est'
p62
(dp63
S'VERB'
p64
F0.998371
sS'NOUN'
p65
F0.001629
s(lp66
(S'is'
p67
I7
tp68
atp69
a(S'attrayante'
p70
(dp71
S'ADJ'
p72
F1.0
s(lp73
(S'attractive'
p74
I8
tp75
atp76
a(S'pour'
p77
(dp78
S'CONJ'
p79
F0.749971
sS'ADP'
p80
F0.250029
s(lp81
(S'to'
p82
I9
tp83
atp84
a(S'de'
p85
(dp86
S'ADP'
p87
F1.0
s(lp88
tp89
a(S'nombreux'
p90
(dp91
S'ADJ'
p92
F1.0
s(lp93
(S'many'
p94
I11
tp95
atp96
a(S'europ\xc3\xa9ens'
p97
(dp98
S'ADJ'
p99
F0.311411
sS'NOUN'
p100
F0.688589
s(lp101
(S'europeans'
p102
I12
tp103
atp104
a(S'.'
p105
(dp106
g105
F1.0
s(lp107
(g105
I13
tp108
atp109
asS'en'
p110
(lp111
(g7
(dp112
S'ADV'
p113
F1.4e-05
sS'NOUN'
p114
F1.1e-05
sS'DET'
p115
F0.999975
s(lp116
(g7
I0
tp117
atp118
a(g14
(dp119
S'VERB'
p120
F6.400000000000001e-05
sS'NOUN'
p121
F0.999936
s(lp122
(g14
I1
tp123
atp124
a(g21
(dp125
S'ADP'
p126
F1.0
s(lp127
(g21
I2
tp128
atp129
a(g30
(dp130
S'NOUN'
p131
F1e-06
sS'DET'
p132
F0.999999
s(lp133
(g30
I3
tp134
atp135
a(g37
(dp136
S'ADJ'
p137
F0.213052
sS'NOUN'
p138
F0.786948
s(lp139
(g37
I4
tp140
atp141
a(g44
(dp142
S'ADP'
p143
F1.0
s(lp144
(g44
I5
tp145
atp146
a(g59
(dp147
S'ADV'
p148
F0.000659
sS'ADJ'
p149
F0.003666
sS'VERB'
p150
F0.0
sS'NOUN'
p151
F0.9956740000000001
s(lp152
(g59
I6
tp153
atp154
a(g67
(dp155
S'VERB'
p156
F1.0
s(lp157
(g67
I7
tp158
atp159
a(g74
(dp160
S'ADJ'
p161
F1.0
s(lp162
(g74
I8
tp163
atp164
a(g82
(dp165
S'ADV'
p166
F3e-06
sS'PRT'
p167
F0.999993
sS'ADP'
p168
F4e-06
s(lp169
(g82
I9
tp170
atp171
a(S'very'
p172
(dp173
S'ADV'
p174
F0.935834
sS'ADJ'
p175
F0.064166
s(lp176
(g172
I10
tp177
atp178
a(g94
(dp179
S'ADV'
p180
F0.000248
sS'DET'
p181
F0.003634
sS'ADJ'
p182
F0.996118
s(lp183
(g94
I11
tp184
atp185
a(g102
(dp186
S'VERB'
p187
F0.000108
sS'NOUN'
p188
F0.999892
s(lp189
(g102
I12
tp190
atp191
a(g105
(dp192
g105
F1.0
s(lp193
(g105
I13
tp194
atp195
asS'nl'
p196
(lp197
(S'deze'
p198
(dp199
S'PRON'
p200
F1.0
s(lp201
(g7
I0
tp202
atp203
a(S'visie'
p204
(dp205
S'NOUN'
p206
F1.0
s(lp207
(g14
I1
tp208
atp209
a(S'op'
p210
(dp211
S'ADV'
p212
F0.003384
sS'ADJ'
p213
F0.0
sS'ADP'
p214
F0.996616
s(lp215
(g21
I2
tp216
atp217
a(S'de'
p218
(dp219
S'DET'
p220
F1.0
s(lp221
(g30
I3
tp222
atp223
a(S'europese'
p224
(dp225
S'NOUN'
p226
F1.0
s(lp227
(g59
I6
tp228
atp229
a(S'toekomst'
p230
(dp231
S'NOUN'
p232
F1.0
s(lp233
(g37
I4
tp234
atp235
a(S'is'
p236
(dp237
S'VERB'
p238
F1.0
s(lp239
(g67
I7
tp240
atp241
a(S'voor'
p242
(dp243
S'ADV'
p244
F0.431892
sS'CONJ'
p245
F3.6e-05
sS'NOUN'
p246
F4e-06
sS'ADP'
p247
F0.568068
s(lp248
(g82
I9
tp249
atp250
a(S'heel'
p251
(dp252
S'ADV'
p253
F0.984518
sS'VERB'
p254
F0.000174
sS'ADJ'
p255
F0.015308
s(lp256
(g172
I10
tp257
atp258
a(S'veel'
p259
(dp260
S'ADV'
p261
F0.275753
sS'NUM'
p262
F0.724223
sS'VERB'
p263
F2.4e-05
s(lp264
(g94
I11
tp265
atp266
a(S'europeanen'
p267
(dp268
S'NOUN'
p269
F1.0
s(lp270
(g102
I12
tp271
atp272
a(S'aantrekkelijk'
p273
(dp274
S'ADJ'
p275
F1.0
s(lp276
(g74
I8
tp277
atp278
a(g105
(dp279
g105
F1.0
s(lp280
(g105
I13
tp281
atp282
asS'de'
p283
(lp284
(S'die'
p285
(dp286
S'PRON'
p287
F0.002158
sS'DET'
p288
F0.997267
s(lp289
(g7
I0
tp290
atp291
a(S'vision'
p292
(dp293
S'ADJ'
p294
F0.015001
sS'NOUN'
p295
F0.976263
s(lp296
(g14
I1
tp297
atp298
a(S'der'
p299
(dp300
S'PRON'
p301
F0.000628
sS'DET'
p302
F0.998794
s(lp303
(g30
I3
tp304
atp305
a(S'zukunft'
p306
(dp307
S'ADJ'
p308
F0.233006
sS'NOUN'
p309
F0.543596
s(lp310
(g37
I4
tp311
atp312
a(S'europas'
p313
(dp314
S'ADJ'
p315
F0.420179
sS'NOUN'
p316
F0.557694
s(lp317
(g59
I6
tp318
atp319
a(S'ist'
p320
(dp321
S'VERB'
p322
F1.0
s(lp323
(g67
I7
tp324
atp325
a(S'f\xc3\xbcr'
p326
(dp327
S'ADP'
p328
F1.0
s(lp329
(g82
I9
tp330
atp331
a(S'sehr'
p332
(dp333
S'ADV'
p334
F1.0
s(lp335
(g172
I10
tp336
atp337
a(S'viele'
p338
(dp339
S'PRON'
p340
F1.0
s(lp341
(g94
I11
tp342
atp343
a(S'europ\xc3\xa4er'
p344
(dp345
S'ADJ'
p346
F0.061895
sS'NOUN'
p347
F0.920781
s(lp348
(g102
I12
tp349
atp350
a(S'attraktiv'
p351
(dp352
S'ADJ'
p353
F1.0
s(lp354
(g74
I8
tp355
atp356
a(g105
(dp357
g105
F1.0
s(lp358
(g105
I13
tp359
atp360
asS'it'
p361
(lp362
(S'tale'
p363
(dp364
S'PRON'
p365
F0.997792
sS'CONJ'
p366
F0.002188
sS'NOUN'
p367
F2e-05
s(lp368
(g7
I0
tp369
atp370
a(S'visione'
p371
(dp372
S'NOUN'
p373
F1.0
s(lp374
(g14
I1
tp375
atp376
a(S'del'
p377
(dp378
S'DEF'
p379
F0.002113
sS'ADP'
p380
F0.997887
s(lp381
(g21
I2
tp382
atp383
a(S'futuro'
p384
(dp385
S'NOUN'
p386
F0.420659
sS'ADJ'
p387
F0.579341
s(lp388
(g37
I4
tp389
atp390
a(S"dell'"
p391
(dp392
S'ADJ'
p393
F0.017562
sS'VERB'
p394
F0.0028239999999999997
sS'NOUN'
p395
F0.979615
s(lp396
(g44
I5
tp397
atp398
a(S'europa'
p399
(dp400
S'NOUN'
p401
F0.362927
sS'VERB'
p402
F0.063318
sS'ADJ'
p403
F0.573754
s(lp404
(g59
I6
tp405
atp406
a(S'\xc3\xa8'
p407
(dp408
S'VERB'
p409
F1.0
s(lp410
(g67
I7
tp411
atp412
a(S'positiva'
p413
(dp414
S'NOUN'
p415
F0.13822
sS'ADJ'
p416
F0.86178
s(lp417
(g74
I8
tp418
atp419
a(S'per'
p420
(dp421
S'CONJ'
p422
F0.028899
sS'ADP'
p423
F0.971101
s(lp424
(g82
I9
tp425
atp426
a(S'molti'
p427
(dp428
S'PRON'
p429
F0.705365
sS'VERB'
p430
F0.000145
sS'ADJ'
p431
F0.29449
s(lp432
(g94
I11
tp433
atp434
a(S'europei'
p435
(dp436
S'NOUN'
p437
F0.206964
sS'ADJ'
p438
F0.793036
s(lp439
(g102
I12
tp440
atp441
a(g105
(dp442
g105
F1.0
s(lp443
(g105
I13
tp444
atp445
asS'sk'
p446
(lp447
(S'tak\xc3\xa1to'
p448
(dp449
S'PRON'
p450
F1.0
s(lp451
(g7
I0
tp452
atp453
a(S'predstava'
p454
(dp455
S'NOUN'
p456
F1.0
s(lp457
(g14
I1
tp458
atp459
a(S'bud\xc3\xbacnosti'
p460
(dp461
S'NOUN'
p462
F1.0
s(lp463
(g37
I4
tp464
atp465
a(S'eur\xc3\xb3py'
p466
(dp467
S'NOUN'
p468
F1.0
s(lp469
(g59
I6
tp470
atp471
a(S'je'
p472
(dp473
S'PRON'
p474
F3.7e-05
sS'VERB'
p475
F0.999925
sS'X'
p476
F3.8e-05
s(lp477
(g67
I7
tp478
atp479
a(S'atrakt\xc3\xadvna'
p480
(dp481
S'ADJ'
p482
F1.0
s(lp483
(g74
I8
tp484
atp485
a(S'pre'
p486
(dp487
g476
F1.9e-05
sS'ADP'
p488
F0.999981
s(lp489
(g82
I9
tp490
atp491
a(S'mnoh\xc3\xbdch'
p492
(dp493
g476
F5e-06
sS'NUM'
p494
F0.999995
s(lp495
(g94
I11
tp496
atp497
a(S'eur\xc3\xb3panov'
p498
(dp499
S'ADJ'
p500
F6e-06
sS'NOUN'
p501
F0.999994
s(lp502
(g102
I12
tp503
atp504
a(g105
(dp505
g105
F1.0
s(lp506
(g105
I13
tp507
atp508
asS'pl'
p509
(lp510
(S'taka'
p511
(dp512
S'ADJ'
p513
F1.0
s(lp514
(g7
I0
tp515
atp516
a(S'wizja'
p517
(dp518
S'NOUN'
p519
F1.0
s(lp520
(g14
I1
tp521
atp522
a(S'europejskiej'
p523
(dp524
S'ADJ'
p525
F1.0
s(lp526
(g59
I6
tp527
atp528
a(S'przysz\xc5\x82o\xc5\x9bci'
p529
(dp530
S'NOUN'
p531
F1.0
s(lp532
(g37
I4
tp533
atp534
a(S'jest'
p535
(dp536
S'VERB'
p537
F1.0
s(lp538
(g67
I7
tp539
atp540
a(S'atrakcyjna'
p541
(dp542
S'ADJ'
p543
F1.0
s(lp544
(g74
I8
tp545
atp546
a(S'dla'
p547
(dp548
S'ADP'
p549
F1.0
s(lp550
(g82
I9
tp551
atp552
a(S'bardzo'
p553
(dp554
S'ADV'
p555
F1.0
s(lp556
(g172
I10
tp557
atp558
a(S'wielu'
p559
(dp560
S'NUM'
p561
F1.0
s(lp562
(g94
I11
tp563
atp564
a(S'europejczyk\xc3\xb3w'
p565
(dp566
S'ADV'
p567
F1e-05
sS'ADJ'
p568
F5.999999999999999e-06
sS'NOUN'
p569
F0.9999840000000002
s(lp570
(g102
I12
tp571
atp572
a(g105
(dp573
g105
F1.0
s(lp574
(g105
I13
tp575
atp576
asS'sl'
p577
(lp578
(S'ta'
p579
(dp580
S'PRON'
p581
F0.9999989999999999
s(lp582
(g7
I0
tp583
atp584
a(S'vizija'
p585
(dp586
S'NOUN'
p587
F1.0
s(lp588
(g14
I1
tp589
atp590
a(S'prihodnosti'
p591
(dp592
S'NOUN'
p593
F1.0
s(lp594
(g37
I4
tp595
atp596
a(S'evrope'
p597
(dp598
S'ADV'
p599
F0.002501
sg476
F0.006214
sS'ADJ'
p600
F0.0042439999999999995
sS'NOUN'
p601
F0.9870419999999999
s(lp602
(g59
I6
tp603
atp604
a(S'je'
p605
(dp606
S'PRON'
p607
F0.000133
sS'VERB'
p608
F0.999746
sg476
F0.000121
s(lp609
(g67
I7
tp610
atp611
a(S'privla\xc4\x8dna'
p612
(dp613
S'ADJ'
p614
F1.0
s(lp615
(g74
I8
tp616
atp617
a(S'za'
p618
(dp619
S'ADV'
p620
F0.0001
sg476
F1e-06
sS'ADP'
p621
F0.999899
s(lp622
(g82
I9
tp623
atp624
a(S'\xc5\xa1tevilne'
p625
(dp626
S'ADJ'
p627
F1.0
s(lp628
(g94
I11
tp629
atp630
a(S'evropejce'
p631
(dp632
S'ADJ'
p633
F0.0
sS'NOUN'
p634
F0.9999999999999999
s(lp635
(g102
I12
tp636
atp637
a(g105
(dp638
g105
F1.0
s(lp639
(g105
I13
tp640
atp641
asS'es'
p642
(lp643
(S'esta'
p644
(dp645
S'PRON'
p646
F0.999998
sS'VERB'
p647
F2e-06
s(lp648
(g7
I0
tp649
atp650
a(S'visi\xc3\xb3n'
p651
(dp652
S'NOUN'
p653
F1.0
s(lp654
(g14
I1
tp655
atp656
a(S'del'
p657
(dp658
S'ADP'
p659
F1.0
s(lp660
(g21
I2
tp661
atp662
a(S'futuro'
p663
(dp664
S'ADJ'
p665
F0.017071
sS'NOUN'
p666
F0.982929
s(lp667
(g37
I4
tp668
atp669
a(S'de'
p670
(dp671
g476
F2.9e-05
sS'CONJ'
p672
F0.000467
sS'ADP'
p673
F0.999504
s(lp674
(g44
I5
tp675
atp676
a(S'europa'
p677
(dp678
S'NOUN'
p679
F1.0
s(lp680
(g59
I6
tp681
atp682
a(S'es'
p683
(dp684
S'VERB'
p685
F1.0
s(lp686
(g67
I7
tp687
atp688
a(S'atractiva'
p689
(dp690
S'ADJ'
p691
F1.0
s(lp692
(g74
I8
tp693
atp694
a(S'para'
p695
(dp696
S'CONJ'
p697
F0.020985
sS'ADP'
p698
F0.979015
s(lp699
(g82
I9
tp700
atp701
a(S'muchos'
p702
(dp703
S'ADJ'
p704
F1.0
s(lp705
(g94
I11
tp706
atp707
a(S'europeos'
p708
(dp709
S'ADJ'
p710
F0.222881
sS'NOUN'
p711
F0.777119
s(lp712
(g102
I12
tp713
atp714
a(g105
(dp715
g105
F1.0
s(lp716
(g105
I13
tp717
atp718
as.