(dp0
S'fr'
p1
(lp2
(S'\xc3\x80'
p3
(dp4
S'ADP'
p5
F1.0
s(lp6
(S'in'
p7
I0
tp8
atp9
a(S'cet'
p10
(dp11
S'PRON'
p12
F1.0
s(lp13
(S'this'
p14
I1
tp15
atp16
a(S'\xc3\xa9gard'
p17
(dp18
S'NOUN'
p19
F1.0
s(lp20
(S'regard'
p21
I2
tp22
atp23
a(S','
p24
(dp25
S'.'
p26
F1.0
s(lp27
(g24
I3
tp28
atp29
a(S'il'
p30
(dp31
S'PRON'
p32
F1.0
s(lp33
(S'should'
p34
I14
tp35
atp36
a(S'faudrait'
p37
(dp38
S'VERB'
p39
F1.0
s(lp40
(S'be'
p41
I15
tp42
atp43
a(S'analyser'
p44
(dp45
S'VERB'
p46
F1.0
s(lp47
(S'analysed'
p48
I16
tp49
atp50
a(S"l'"
p51
(dp52
S'ADJ'
p53
F0.050629
sS'VERB'
p54
F0.794975
sS'NOUN'
p55
F0.154398
s(lp56
(S'the'
p57
I4
tp58
atp59
a(S'efficience'
p60
(dp61
S'NOUN'
p62
F1.0
s(lp63
(S'efficiency'
p64
I5
tp65
atp66
a(S'et'
p67
(dp68
S'CONJ'
p69
F1.0
s(lp70
(S'and'
p71
I6
tp72
atp73
a(S"l'"
p74
(dp75
S'NOUN'
p76
F0.050387
sS'VERB'
p77
F0.8915730000000001
sS'ADJ'
p78
F0.05804
s(lp79
(S'the'
p80
I9
tp81
atp82
a(S'efficacit\xc3\xa9'
p83
(dp84
S'NOUN'
p85
F1.0
s(lp86
(S'effectiveness'
p87
I7
tp88
atp89
a(S'du'
p90
(dp91
S'ADP'
p92
F1.0
s(lp93
(S'of'
p94
I8
tp95
atp96
a(S'r\xc3\xa9gime'
p97
(dp98
S'NOUN'
p99
F1.0
s(lp100
(S'system'
p101
I13
tp102
atp103
a(S'fiscal'
p104
(dp105
S'ADJ'
p106
F1.0
s(lp107
(S'tax'
p108
I10
tp109
atp110
a(S'et'
p111
(dp112
S'CONJ'
p113
F1.0
s(lp114
(S'and'
p115
I11
tp116
atp117
a(S'de'
p118
(dp119
S'ADP'
p120
F1.0
s(lp121
tp122
a(S'la'
p123
(dp124
S'PRON'
p125
F0.005375
sS'DET'
p126
F0.994621
sS'NOUN'
p127
F4e-06
s(lp128
tp129
a(S'tva'
p130
(dp131
S'VERB'
p132
F0.013713000000000001
sS'NOUN'
p133
F0.986287
s(lp134
(S'vat'
p135
I12
tp136
atp137
a(g26
(dp138
g26
F1.0
s(lp139
(g26
I17
tp140
atp141
asS'en'
p142
(lp143
(g7
(dp144
S'ADV'
p145
F0.001492
sS'PRT'
p146
F0.0
sS'ADP'
p147
F0.998508
s(lp148
(g7
I0
tp149
atp150
a(g14
(dp151
S'ADV'
p152
F8e-06
sS'NOUN'
p153
F2e-05
sS'DET'
p154
F0.999972
s(lp155
(g14
I1
tp156
atp157
a(g21
(dp158
S'VERB'
p159
F0.004979
sS'NOUN'
p160
F0.995022
s(lp161
(g21
I2
tp162
atp163
a(g24
(dp164
g26
F1.0
s(lp165
(g24
I3
tp166
atp167
a(g57
(dp168
S'NOUN'
p169
F4e-06
sS'DET'
p170
F0.999996
s(lp171
(g57
I4
tp172
atp173
a(g64
(dp174
S'NOUN'
p175
F1.0
s(lp176
(g64
I5
tp177
atp178
a(g71
(dp179
S'CONJ'
p180
F0.999998
sS'NOUN'
p181
F2e-06
s(lp182
(g71
I6
tp183
atp184
a(g87
(dp185
S'NOUN'
p186
F1.0
s(lp187
(g87
I7
tp188
atp189
a(g94
(dp190
S'ADP'
p191
F1.0
s(lp192
(g94
I8
tp193
atp194
a(g80
(dp195
S'NOUN'
p196
F1e-06
sS'DET'
p197
F0.999999
s(lp198
(g80
I9
tp199
atp200
a(g108
(dp201
S'VERB'
p202
F6e-06
sS'NOUN'
p203
F0.999994
s(lp204
(g108
I10
tp205
atp206
a(g115
(dp207
S'CONJ'
p208
F0.999999
sS'NOUN'
p209
F1e-06
s(lp210
(g115
I11
tp211
atp212
a(g135
(dp213
S'VERB'
p214
F0.500989
sS'NOUN'
p215
F0.499011
s(lp216
(g135
I12
tp217
atp218
a(g101
(dp219
S'NOUN'
p220
F1.0
s(lp221
(g101
I13
tp222
atp223
a(g34
(dp224
S'VERB'
p225
F1.0
s(lp226
(g34
I14
tp227
atp228
a(g41
(dp229
S'VERB'
p230
F1.0
s(lp231
(g41
I15
tp232
atp233
a(g48
(dp234
S'VERB'
p235
F1.0
s(lp236
(g48
I16
tp237
atp238
a(g26
(dp239
g26
F1.0
s(lp240
(g26
I17
tp241
atp242
asS'nl'
p243
(lp244
(S'in'
p245
(dp246
S'ADV'
p247
F0.003844
sS'VERB'
p248
F1e-06
sS'ADP'
p249
F0.996156
s(lp250
(g7
I0
tp251
atp252
a(S'dit'
p253
(dp254
S'PRON'
p255
F1.0
s(lp256
(g14
I1
tp257
atp258
a(S'kader'
p259
(dp260
S'NOUN'
p261
F1.0
s(lp262
tp263
a(S'moeten'
p264
(dp265
S'VERB'
p266
F0.9999979999999999
sS'NOUN'
p267
F2e-06
s(lp268
(g34
I14
tp269
atp270
a(S'de'
p271
(dp272
S'DET'
p273
F1.0
s(lp274
(g57
I4
tp275
atp276
a(S'doeltreffendheid'
p277
(dp278
S'NOUN'
p279
F1.0
s(lp280
(g64
I5
tp281
atp282
a(S'en'
p283
(dp284
S'CONJ'
p285
F1.0
s(lp286
(g71
I6
tp287
atp288
a(S'effici\xc3\xabntie'
p289
(dp290
S'NOUN'
p291
F1.0
s(lp292
(g87
I7
tp293
atp294
a(S'van'
p295
(dp296
S'ADP'
p297
F1.0
s(lp298
(g94
I8
tp299
atp300
a(S'het'
p301
(dp302
S'PRON'
p303
F0.000927
sS'DET'
p304
F0.999073
s(lp305
(g80
I9
tp306
atp307
a(S'belastingsysteem'
p308
(dp309
S'NOUN'
p310
F1.0
s(lp311
(g108
I10
tp312
atp313
a(S'en'
p314
(dp315
S'CONJ'
p316
F1.0
s(lp317
(g115
I11
tp318
atp319
a(S'de'
p320
(dp321
S'DET'
p322
F1.0
s(lp323
tp324
a(S'belasting'
p325
(dp326
S'NOUN'
p327
F1.0
s(lp328
(g135
I12
tp329
atp330
a(S'over'
p331
(dp332
S'ADV'
p333
F0.015324
sS'ADP'
p334
F0.984676
s(lp335
(g21
I2
tp336
atp337
a(S'de'
p338
(dp339
S'DET'
p340
F1.0
s(lp341
(g80
I9
tp342
atp343
a(S'toegevoegde'
p344
(dp345
S'NOUN'
p346
F0.02133
sS'VERB'
p347
F0.000484
sS'ADJ'
p348
F0.978187
s(lp349
tp350
a(S'waarde'
p351
(dp352
S'NOUN'
p353
F1.0
s(lp354
(g135
I12
tp355
atp356
a(S'aan'
p357
(dp358
S'ADV'
p359
F0.007798
sS'ADP'
p360
F0.992202
s(lp361
tp362
a(S'een'
p363
(dp364
S'ADJ'
p365
F1e-06
sS'PRON'
p366
F0.000522
sS'NUM'
p367
F1e-06
sS'DET'
p368
F0.999477
s(lp369
tp370
a(S'grondige'
p371
(dp372
S'NOUN'
p373
F0.006174
sS'ADJ'
p374
F0.993826
s(lp375
(g48
I16
tp376
atp377
a(S'analyse'
p378
(dp379
S'NOUN'
p380
F1.0
s(lp381
tp382
a(S'onderworpen'
p383
(dp384
S'VERB'
p385
F0.953075
sS'ADJ'
p386
F0.046925
s(lp387
(g48
I16
tp388
atp389
a(S'worden'
p390
(dp391
S'VERB'
p392
F0.999986
sS'NOUN'
p393
F1.4e-05
s(lp394
(g41
I15
tp395
atp396
a(g26
(dp397
g26
F1.0
s(lp398
(g26
I17
tp399
atp400
asS'de'
p401
(lp402
(S'in'
p403
(dp404
S'ADP'
p405
F1.0
s(lp406
(g7
I0
tp407
atp408
a(S'dieser'
p409
(dp410
S'PRON'
p411
F1.0
s(lp412
(g14
I1
tp413
atp414
a(S'hinsicht'
p415
(dp416
S'VERB'
p417
F0.022966
sS'NOUN'
p418
F0.976643
s(lp419
(g21
I2
tp420
atp421
a(S'sollte'
p422
(dp423
S'VERB'
p424
F1.0
s(lp425
(g34
I14
tp426
atp427
a(S'die'
p428
(dp429
S'PRON'
p430
F0.000349
sS'DET'
p431
F0.999642
s(lp432
(g57
I4
tp433
atp434
a(S'effizienz'
p435
(dp436
S'ADJ'
p437
F0.014414
sS'NOUN'
p438
F0.984852
s(lp439
(g64
I5
tp440
atp441
a(S'und'
p442
(dp443
S'CONJ'
p444
F1.0
s(lp445
(g71
I6
tp446
atp447
a(S'effektivit\xc3\xa4t'
p448
(dp449
S'ADJ'
p450
F0.009386
sS'NOUN'
p451
F0.98992
s(lp452
(g87
I7
tp453
atp454
a(S'des'
p455
(dp456
S'DET'
p457
F1.0
s(lp458
(g94
I8
tp459
atp460
a(S'steuer-'
p461
(dp462
S'X'
p463
F1.0
s(lp464
(g108
I10
tp465
atp466
a(S'und'
p467
(dp468
S'CONJ'
p469
F1.0
s(lp470
(g115
I11
tp471
atp472
a(S'mehrwertsteuersystems'
p473
(dp474
S'NOUN'
p475
F0.382242
sS'ADJ'
p476
F0.519255
s(lp477
(g135
I12
tp478
atp479
a(S'analysiert'
p480
(dp481
S'VERB'
p482
F0.971474
sS'ADJ'
p483
F0.028484
s(lp484
(g48
I16
tp485
atp486
a(S'werden'
p487
(dp488
S'VERB'
p489
F0.9999870000000001
s(lp490
(g41
I15
tp491
atp492
a(g26
(dp493
g26
F1.0
s(lp494
(g26
I17
tp495
atp496
asS'it'
p497
(lp498
(S'a'
p499
(dp500
S'CONJ'
p501
F0.002226
sS'ADP'
p502
F0.997774
s(lp503
(g7
I0
tp504
atp505
a(S'tal'
p506
(dp507
S'PRON'
p508
F1.0
s(lp509
(g14
I1
tp510
atp511
a(S'proposito'
p512
(dp513
S'NOUN'
p514
F1.0
s(lp515
(g21
I2
tp516
atp517
a(g24
(dp518
g26
F1.0
s(lp519
(g24
I3
tp520
atp521
a(S'\xc3\xa8'
p522
(dp523
S'VERB'
p524
F1.0
s(lp525
(g41
I15
tp526
atp527
a(S'opportuno'
p528
(dp529
S'ADJ'
p530
F1.0
s(lp531
(g34
I14
tp532
atp533
a(S'analizzare'
p534
(dp535
S'VERB'
p536
F1.0
s(lp537
(g48
I16
tp538
atp539
a(S"l'"
p540
(dp541
S'NOUN'
p542
F0.012178
sS'VERB'
p543
F0.890187
sS'ADJ'
p544
F0.097635
s(lp545
tp546
a(S'efficienza'
p547
(dp548
S'NOUN'
p549
F1.0
s(lp550
(g64
I5
tp551
atp552
a(S'e'
p553
(dp554
S'CONJ'
p555
F1.0
s(lp556
(g71
I6
tp557
atp558
a(S"l'"
p559
(dp560
S'NOUN'
p561
F0.000589
sS'VERB'
p562
F0.9933339999999999
sS'ADJ'
p563
F0.006076
s(lp564
tp565
a(S'efficacia'
p566
(dp567
S'NOUN'
p568
F1.0
s(lp569
(g87
I7
tp570
atp571
a(S'del'
p572
(dp573
S'DEF'
p574
F0.001248
sS'ADP'
p575
F0.998752
s(lp576
(g94
I8
tp577
atp578
a(S'regime'
p579
(dp580
S'NOUN'
p581
F1.0
s(lp582
(g101
I13
tp583
atp584
a(S'fiscale'
p585
(dp586
S'NOUN'
p587
F0.001594
sS'ADJ'
p588
F0.998406
s(lp589
(g108
I10
tp590
atp591
a(g553
(dp592
S'CONJ'
p593
F1.0
s(lp594
(g115
I11
tp595
atp596
a(S"dell'"
p597
(dp598
S'ADJ'
p599
F0.006467
sS'VERB'
p600
F0.11863800000000001
sS'NOUN'
p601
F0.874895
s(lp602
tp603
a(S'iva'
p604
(dp605
S'VERB'
p606
F0.009602
sS'ADJ'
p607
F0.990398
s(lp608
(g135
I12
tp609
atp610
a(g26
(dp611
g26
F1.0
s(lp612
(g26
I17
tp613
atp614
asS'sk'
p615
(lp616
(S'v'
p617
(dp618
g463
F0.000117
sS'ADP'
p619
F0.999883
s(lp620
(g7
I0
tp621
atp622
a(S'tejto'
p623
(dp624
S'PRON'
p625
F1.0
s(lp626
(g14
I1
tp627
atp628
a(S's\xc3\xbavislosti'
p629
(dp630
S'NOUN'
p631
F1.0
s(lp632
(g21
I2
tp633
atp634
a(S'by'
p635
(dp636
S'PRT'
p637
F0.999963
sg463
F3.7e-05
s(lp638
tp639
a(S'sa'
p640
(dp641
S'PRT'
p642
F0.999995
sS'ADP'
p643
F0.0
sg463
F4.9999999999999996e-06
s(lp644
(g41
I15
tp645
atp646
a(S'mala'
p647
(dp648
S'ADV'
p649
F0.001374
sS'VERB'
p650
F0.998626
s(lp651
(g34
I14
tp652
atp653
a(S'analyzova\xc5\xa5'
p654
(dp655
S'VERB'
p656
F1.0
s(lp657
(g48
I16
tp658
atp659
a(S'\xc3\xba\xc4\x8dinnos\xc5\xa5'
p660
(dp661
S'NOUN'
p662
F1.0
s(lp663
(g64
I5
tp664
atp665
a(g499
(dp666
g463
F0.0025380000000000003
sS'CONJ'
p667
F0.996478
sS'NOUN'
p668
F0.00018700000000000002
sS'ADP'
p669
F0.00077
sS'PRT'
p670
F2.7e-05
s(lp671
(g71
I6
tp672
atp673
a(S'efekt\xc3\xadvnos\xc5\xa5'
p674
(dp675
S'NOUN'
p676
F1.0
s(lp677
(g87
I7
tp678
atp679
a(S'da\xc5\x88ov\xc3\xa9ho'
p680
(dp681
S'ADJ'
p682
F1.0
s(lp683
(g108
I10
tp684
atp685
a(S'syst\xc3\xa9mu'
p686
(dp687
S'NOUN'
p688
F1.0
s(lp689
(g101
I13
tp690
atp691
a(g499
(dp692
g463
F0.00551
sS'CONJ'
p693
F0.993512
sS'NOUN'
p694
F0.000189
sS'ADP'
p695
F0.000763
sS'PRT'
p696
F2.6e-05
s(lp697
(g115
I11
tp698
atp699
a(S'dph'
p700
(dp701
S'ADJ'
p702
F0.00045
sg463
F0.013666
sS'NOUN'
p703
F0.985885
s(lp704
(g135
I12
tp705
atp706
a(g26
(dp707
g26
F1.0
s(lp708
(g26
I17
tp709
atp710
asS'pl'
p711
(lp712
(S'w'
p713
(dp714
S'ADJ'
p715
F0.0
sg463
F0.0
sS'NOUN'
p716
F0.0
sS'ADP'
p717
F1.0
s(lp718
(g7
I0
tp719
atp720
a(S'tym'
p721
(dp722
S'ADV'
p723
F0.0
sS'NOUN'
p724
F0.00624
sS'CONJ'
p725
F0.0
sS'ADJ'
p726
F0.9937579999999999
sS'PRT'
p727
F0.0
s(lp728
(g14
I1
tp729
atp730
a(S'kontek\xc5\x9bcie'
p731
(dp732
S'NOUN'
p733
F1.0
s(lp734
tp735
a(S'system'
p736
(dp737
S'NOUN'
p738
F1.0
s(lp739
(g101
I13
tp740
atp741
a(S'podatkowy'
p742
(dp743
S'ADJ'
p744
F1.0
s(lp745
(g108
I10
tp746
atp747
a(S'i'
p748
(dp749
S'PRT'
p750
F0.005381
sS'CONJ'
p751
F0.994551
sS'PRON'
p752
F6e-06
sS'NOUN'
p753
F1e-06
sg463
F6e-05
s(lp754
(g115
I11
tp755
atp756
a(S'podatek'
p757
(dp758
S'NOUN'
p759
F1.0
s(lp760
tp761
a(S'vat'
p762
(dp763
S'ADV'
p764
F0.004536
sg463
F0.000614
sS'NOUN'
p765
F0.9948489999999998
s(lp766
(g135
I12
tp767
atp768
a(S'powinny'
p769
(dp770
S'VERB'
p771
F0.999999
s(lp772
(g34
I14
tp773
atp774
a(S'by\xc4\x87'
p775
(dp776
S'VERB'
p777
F1.0
s(lp778
(g41
I15
tp779
atp780
a(S'poddane'
p781
(dp782
S'VERB'
p783
F1.0
s(lp784
tp785
a(S'analizie'
p786
(dp787
S'NOUN'
p788
F1.0
s(lp789
(g48
I16
tp790
atp791
a(S'co'
p792
(dp793
S'PRT'
p794
F0.014125
sS'CONJ'
p795
F0.061532
sS'NOUN'
p796
F0.923392
sS'ADP'
p797
F0.0009500000000000001
s(lp798
(g21
I2
tp799
atp800
a(S'do'
p801
(dp802
g463
F0.0
sS'NOUN'
p803
F4e-06
sS'ADP'
p804
F0.999997
s(lp805
(g57
I4
tp806
atp807
a(S'skuteczno\xc5\x9bci'
p808
(dp809
S'NOUN'
p810
F1.0
s(lp811
(g64
I5
tp812
atp813
a(g748
(dp814
S'PRT'
p815
F0.000639
sS'CONJ'
p816
F0.99929
sS'NOUN'
p817
F4.6e-05
sg463
F3e-06
sS'PRON'
p818
F2.3e-05
s(lp819
(g71
I6
tp820
atp821
a(S'efektywno\xc5\x9bci'
p822
(dp823
S'NOUN'
p824
F1.0
s(lp825
(g87
I7
tp826
atp827
a(g26
(dp828
g26
F1.0
s(lp829
(g26
I17
tp830
atp831
asS'sl'
p832
(lp833
(g617
(dp834
S'ADP'
p835
F1.0
s(lp836
(g7
I0
tp837
atp838
a(S'tem'
p839
(dp840
S'ADV'
p841
F1.2e-05
sS'PRON'
p842
F0.999988
sS'NOUN'
p843
F0.0
s(lp844
(g14
I1
tp845
atp846
a(S'pogledu'
p847
(dp848
S'NOUN'
p849
F1.0
s(lp850
(g21
I2
tp851
atp852
a(S'je'
p853
(dp854
S'PRON'
p855
F0.000386
sS'VERB'
p856
F0.99961
sg463
F3e-06
s(lp857
(g34
I14
tp858
atp859
a(S'treba'
p860
(dp861
S'ADV'
p862
F1.0
s(lp863
(g41
I15
tp864
atp865
a(S'analizirati'
p866
(dp867
S'VERB'
p868
F1.0
s(lp869
(g48
I16
tp870
atp871
a(S'u\xc4\x8dinkovitost'
p872
(dp873
S'NOUN'
p874
F1.0
s(lp875
(g64
I5
tp876
atp877
a(S'in'
p878
(dp879
S'ADV'
p880
F2.5e-05
sg463
F2.1e-05
sS'CONJ'
p881
F0.999939
sS'NOUN'
p882
F1.4e-05
s(lp883
(g71
I6
tp884
atp885
a(S'uspe\xc5\xa1nost'
p886
(dp887
S'NOUN'
p888
F1.0
s(lp889
(g87
I7
tp890
atp891
a(S'dav\xc4\x8dnega'
p892
(dp893
S'ADJ'
p894
F1.0
s(lp895
(g108
I10
tp896
atp897
a(S'sistema'
p898
(dp899
S'NOUN'
p900
F1.0
s(lp901
tp902
a(S'in'
p903
(dp904
S'ADV'
p905
F0.000108
sg463
F1.6e-05
sS'CONJ'
p906
F0.999741
sS'NOUN'
p907
F0.000135
s(lp908
(g115
I11
tp909
atp910
a(S'sistema'
p911
(dp912
S'NOUN'
p913
F1.0
s(lp914
(g101
I13
tp915
atp916
a(S'ddv'
p917
(dp918
S'ADV'
p919
F0.005765
sS'ADJ'
p920
F0.13411900000000002
sS'CONJ'
p921
F1.5e-05
sS'VERB'
p922
F0.013425999999999999
sS'NOUN'
p923
F0.8466729999999999
s(lp924
(g135
I12
tp925
atp926
a(g26
(dp927
g26
F1.0
s(lp928
(g26
I17
tp929
atp930
asS'es'
p931
(lp932
(S'en'
p933
(dp934
g463
F4e-06
sS'CONJ'
p935
F3e-06
sS'ADP'
p936
F0.999993
s(lp937
(g7
I0
tp938
atp939
a(S'este'
p940
(dp941
S'PRON'
p942
F0.999827
sS'NOUN'
p943
F0.000173
s(lp944
(g14
I1
tp945
atp946
a(S'aspecto'
p947
(dp948
S'NOUN'
p949
F1.0
s(lp950
(g21
I2
tp951
atp952
a(S'debe'
p953
(dp954
S'VERB'
p955
F1.0
s(lp956
(g34
I14
tp957
atp958
a(S'analizarse'
p959
(dp960
S'VERB'
p961
F1.0
s(lp962
(g48
I16
tp963
atp964
a(S'la'
p965
(dp966
g463
F0.0
sS'PRON'
p967
F0.0
sS'DET'
p968
F1.0
sS'NOUN'
p969
F0.0
s(lp970
(g57
I4
tp971
atp972
a(S'eficiencia'
p973
(dp974
S'NOUN'
p975
F1.0
s(lp976
(g64
I5
tp977
atp978
a(S'y'
p979
(dp980
g463
F0.000396
sS'CONJ'
p981
F0.999604
s(lp982
(g71
I6
tp983
atp984
a(S'la'
p985
(dp986
S'PRON'
p987
F0.000591
sS'DET'
p988
F0.999408
sS'NOUN'
p989
F0.0
sg463
F0.0
s(lp990
(g80
I9
tp991
atp992
a(S'efectividad'
p993
(dp994
S'NOUN'
p995
F1.0
s(lp996
(g87
I7
tp997
atp998
a(S'del'
p999
(dp1000
S'ADP'
p1001
F1.0
s(lp1002
(g94
I8
tp1003
atp1004
a(S'sistema'
p1005
(dp1006
S'NOUN'
p1007
F1.0
s(lp1008
(g101
I13
tp1009
atp1010
a(S'fiscal'
p1011
(dp1012
S'NOUN'
p1013
F0.015957
sS'ADJ'
p1014
F0.984043
s(lp1015
(g108
I10
tp1016
atp1017
a(g979
(dp1018
g463
F0.00288
sS'CONJ'
p1019
F0.99712
s(lp1020
(g115
I11
tp1021
atp1022
a(S'del'
p1023
(dp1024
S'ADP'
p1025
F1.0
s(lp1026
tp1027
a(S'iva'
p1028
(dp1029
S'VERB'
p1030
F0.0
sS'NOUN'
p1031
F1.0
s(lp1032
(g135
I12
tp1033
atp1034
a(g26
(dp1035
g26
F1.0
s(lp1036
(g26
I17
tp1037
atp1038
as.