(dp0
S'fr'
p1
(lp2
(S'la'
p3
(dp4
S'PRON'
p5
F8.2e-05
sS'DET'
p6
F0.999918
sS'NOUN'
p7
F0.0
s(lp8
(S'the'
p9
I7
tp10
atp11
a(S'strat\xc3\xa9gie'
p12
(dp13
S'NOUN'
p14
F1.0
s(lp15
(S'strategy'
p16
I9
tp17
atp18
a(S'de'
p19
(dp20
S'ADP'
p21
F1.0
s(lp22
tp23
a(S'lisbonne'
p24
(dp25
S'ADJ'
p26
F0.114812
sS'VERB'
p27
F0.007927
sS'NOUN'
p28
F0.877259
s(lp29
(S'lisbon'
p30
I8
tp31
atp32
a(S'pour'
p33
(dp34
S'CONJ'
p35
F0.172447
sS'ADP'
p36
F0.827553
s(lp37
(S'for'
p38
I10
tp39
atp40
a(S'la'
p41
(dp42
S'PRON'
p43
F2.7e-05
sS'DET'
p44
F0.999973
sS'NOUN'
p45
F0.0
s(lp46
tp47
a(S'croissance'
p48
(dp49
S'NOUN'
p50
F1.0
s(lp51
(S'growth'
p52
I11
tp53
atp54
a(S'et'
p55
(dp56
S'CONJ'
p57
F1.0
s(lp58
(S'and'
p59
I12
tp60
atp61
a(S"l'"
p62
(dp63
S'NOUN'
p64
F0.050387
sS'VERB'
p65
F0.8915730000000001
sS'ADJ'
p66
F0.05804
s(lp67
tp68
a(S'emploi'
p69
(dp70
S'NOUN'
p71
F1.0
s(lp72
(S'employment'
p73
I13
tp74
atp75
a(S'reconna\xc3\xaet'
p76
(dp77
S'VERB'
p78
F1.0
s(lp79
(S'acknowledged'
p80
I16
tp81
atp82
a(S"l'"
p83
(dp84
S'NOUN'
p85
F0.087886
sS'VERB'
p86
F0.7995690000000001
sS'ADJ'
p87
F0.112546
s(lp88
(S'the'
p89
I0
tp90
atp91
a(S'importance'
p92
(dp93
S'NOUN'
p94
F1.0
s(lp95
(S'importance'
p96
I1
tp97
atp98
a(S'de'
p99
(dp100
S'ADP'
p101
F1.0
s(lp102
(S'of'
p103
I2
tp104
atp105
a(S"l'"
p106
(dp107
S'ADJ'
p108
F0.160704
sS'VERB'
p109
F0.06480800000000002
sS'NOUN'
p110
F0.774488
s(lp111
tp112
a(S'\xc3\xa9ducation'
p113
(dp114
S'NOUN'
p115
F1.0
s(lp116
(S'education'
p117
I3
tp118
atp119
a(S'et'
p120
(dp121
S'CONJ'
p122
F1.0
s(lp123
(S'and'
p124
I4
tp125
atp126
a(S'la'
p127
(dp128
S'PRON'
p129
F0.000103
sS'DET'
p130
F0.999897
sS'NOUN'
p131
F0.0
s(lp132
tp133
a(S'formation'
p134
(dp135
S'NOUN'
p136
F1.0
s(lp137
(S'training'
p138
I5
tp139
atp140
a(S','
p141
(dp142
S'.'
p143
F1.0
s(lp144
tp145
a(S'et'
p146
(dp147
S'CONJ'
p148
F1.0
s(lp149
(S'and'
p150
I17
tp151
atp152
a(S'le'
p153
(dp154
S'PRON'
p155
F0.000549
sS'DET'
p156
F0.999451
s(lp157
(S'the'
p158
I18
tp159
atp160
a(S'conseil'
p161
(dp162
S'NOUN'
p163
F1.0
s(lp164
(S'council'
p165
I20
tp166
atp167
a(S'europ\xc3\xa9en'
p168
(dp169
S'NOUN'
p170
F0.006274
sS'ADJ'
p171
F0.993726
s(lp172
(S'european'
p173
I19
tp174
atp175
a(S'a'
p176
(dp177
S'VERB'
p178
F1.0
s(lp179
(S'has'
p180
I21
tp181
atp182
a(S'soulign\xc3\xa9'
p183
(dp184
S'VERB'
p185
F1.0
s(lp186
(S'emphasized'
p187
I23
tp188
atp189
a(S'\xc3\xa0'
p190
(dp191
S'ADP'
p192
F1.0
s(lp193
(S'in'
p194
I6
tp195
atp196
a(S'plusieurs'
p197
(dp198
S'PRON'
p199
F0.999489
sS'NOUN'
p200
F0.000511
s(lp201
tp202
a(S'reprises'
p203
(dp204
S'VERB'
p205
F0.8243050000000001
sS'NOUN'
p206
F0.175695
s(lp207
(S'repeatedly'
p208
I22
tp209
atp210
a(S'le'
p211
(dp212
S'PRON'
p213
F0.000162
sS'DET'
p214
F0.999838
s(lp215
(S'the'
p216
I24
tp217
atp218
a(S'r\xc3\xb4le'
p219
(dp220
S'NOUN'
p221
F1.0
s(lp222
(S'role'
p223
I25
tp224
atp225
a(S'de'
p226
(dp227
S'ADP'
p228
F1.0
s(lp229
(S'of'
p230
I26
tp231
atp232
a(S"l'"
p233
(dp234
S'ADJ'
p235
F0.160704
sS'VERB'
p236
F0.06480800000000002
sS'NOUN'
p237
F0.774488
s(lp238
tp239
a(S'\xc3\xa9ducation'
p240
(dp241
S'NOUN'
p242
F1.0
s(lp243
(S'education'
p244
I27
tp245
atp246
a(S'et'
p247
(dp248
S'CONJ'
p249
F1.0
s(lp250
(S'and'
p251
I28
tp252
atp253
a(S'de'
p254
(dp255
S'ADP'
p256
F1.0
s(lp257
tp258
a(S'la'
p259
(dp260
S'PRON'
p261
F1.2e-05
sS'DET'
p262
F0.999988
sS'NOUN'
p263
F0.0
s(lp264
tp265
a(S'formation'
p266
(dp267
S'NOUN'
p268
F1.0
s(lp269
(S'training'
p270
I29
tp271
atp272
a(S'pour'
p273
(dp274
S'CONJ'
p275
F0.162089
sS'ADP'
p276
F0.837911
s(lp277
(S'in'
p278
I30
tp279
atp280
a(S'la'
p281
(dp282
S'PRON'
p283
F2.6e-05
sS'DET'
p284
F0.999974
sS'NOUN'
p285
F0.0
s(lp286
(S'the'
p287
I31
tp288
atp289
a(S'comp\xc3\xa9titivit\xc3\xa9'
p290
(dp291
S'NOUN'
p292
F1.0
s(lp293
(S'competitiveness'
p294
I36
tp295
atp296
a(S'\xc3\xa0'
p297
(dp298
S'ADP'
p299
F1.0
s(lp300
(S'long-term'
p301
I35
tp302
atp303
a(S'long'
p304
(dp305
S'ADV'
p306
F0.035113
sS'NOUN'
p307
F0.098971
sS'ADJ'
p308
F0.865917
s(lp309
tp310
a(S'terme'
p311
(dp312
S'NOUN'
p313
F1.0
s(lp314
(g301
I35
tp315
atp316
a(S'de'
p317
(dp318
S'ADP'
p319
F1.0
s(lp320
(S"'s"
p321
I34
tp322
atp323
a(S"l'"
p324
(dp325
S'ADJ'
p326
F0.160704
sS'VERB'
p327
F0.06480800000000002
sS'NOUN'
p328
F0.774488
s(lp329
tp330
a(S'union'
p331
(dp332
S'NOUN'
p333
F1.0
s(lp334
(S'union'
p335
I33
tp336
atp337
a(S'europ\xc3\xa9enne'
p338
(dp339
S'NOUN'
p340
F0.012852
sS'ADJ'
p341
F0.987148
s(lp342
(S'european'
p343
I32
tp344
atp345
a(g143
(dp346
g143
F1.0
s(lp347
(g143
I37
tp348
atp349
asS'en'
p350
(lp351
(g89
(dp352
S'NOUN'
p353
F5e-06
sS'DET'
p354
F0.999995
s(lp355
(g89
I0
tp356
atp357
a(g96
(dp358
S'NOUN'
p359
F1.0
s(lp360
(g96
I1
tp361
atp362
a(g103
(dp363
S'ADP'
p364
F1.0
s(lp365
(g103
I2
tp366
atp367
a(g117
(dp368
S'NOUN'
p369
F1.0
s(lp370
(g117
I3
tp371
atp372
a(g124
(dp373
S'CONJ'
p374
F0.999999
sS'NOUN'
p375
F1e-06
s(lp376
(g124
I4
tp377
atp378
a(g138
(dp379
S'VERB'
p380
F0.283157
sS'NOUN'
p381
F0.716843
s(lp382
(g138
I5
tp383
atp384
a(g194
(dp385
S'ADV'
p386
F0.000419
sS'PRT'
p387
F0.004183
sS'ADP'
p388
F0.995398
s(lp389
(g194
I6
tp390
atp391
a(g9
(dp392
S'NOUN'
p393
F2e-06
sS'DET'
p394
F0.999998
s(lp395
(g9
I7
tp396
atp397
a(g30
(dp398
S'ADJ'
p399
F0.101198
sS'VERB'
p400
F3e-05
sS'NOUN'
p401
F0.8987719999999999
s(lp402
(g30
I8
tp403
atp404
a(g16
(dp405
S'NOUN'
p406
F1.0
s(lp407
(g16
I9
tp408
atp409
a(g38
(dp410
S'ADP'
p411
F1.0
s(lp412
(g38
I10
tp413
atp414
a(g52
(dp415
S'NOUN'
p416
F1.0
s(lp417
(g52
I11
tp418
atp419
a(g59
(dp420
S'CONJ'
p421
F0.999998
sS'NOUN'
p422
F2e-06
s(lp423
(g59
I12
tp424
atp425
a(g73
(dp426
S'NOUN'
p427
F1.0
s(lp428
(g73
I13
tp429
atp430
a(S'has'
p431
(dp432
S'VERB'
p433
F1.0
s(lp434
(g431
I14
tp435
atp436
a(S'been'
p437
(dp438
S'VERB'
p439
F1.0
s(lp440
(g437
I15
tp441
atp442
a(g80
(dp443
S'VERB'
p444
F0.9655630000000001
sS'ADJ'
p445
F0.034437
s(lp446
(g80
I16
tp447
atp448
a(g150
(dp449
S'CONJ'
p450
F0.999999
sS'NOUN'
p451
F1e-06
s(lp452
(g150
I17
tp453
atp454
a(g158
(dp455
S'NOUN'
p456
F1e-06
sS'DET'
p457
F0.999999
s(lp458
(g158
I18
tp459
atp460
a(g173
(dp461
S'NOUN'
p462
F0.10881199999999999
sS'VERB'
p463
F1.1e-05
sS'ADJ'
p464
F0.891178
s(lp465
(g173
I19
tp466
atp467
a(g165
(dp468
S'NOUN'
p469
F1.0
s(lp470
(g165
I20
tp471
atp472
a(g180
(dp473
S'VERB'
p474
F1.0
s(lp475
(g180
I21
tp476
atp477
a(g208
(dp478
S'ADV'
p479
F1.0
s(lp480
(g208
I22
tp481
atp482
a(g187
(dp483
S'VERB'
p484
F1.0
s(lp485
(g187
I23
tp486
atp487
a(g216
(dp488
S'NOUN'
p489
F2e-06
sS'DET'
p490
F0.999998
s(lp491
(g216
I24
tp492
atp493
a(g223
(dp494
S'NOUN'
p495
F1.0
s(lp496
(g223
I25
tp497
atp498
a(g230
(dp499
S'ADP'
p500
F1.0
s(lp501
(g230
I26
tp502
atp503
a(g244
(dp504
S'NOUN'
p505
F1.0
s(lp506
(g244
I27
tp507
atp508
a(g251
(dp509
S'CONJ'
p510
F0.999999
sS'NOUN'
p511
F1e-06
s(lp512
(g251
I28
tp513
atp514
a(g270
(dp515
S'VERB'
p516
F0.283157
sS'NOUN'
p517
F0.716843
s(lp518
(g270
I29
tp519
atp520
a(g278
(dp521
S'ADV'
p522
F0.000419
sS'PRT'
p523
F0.004183
sS'ADP'
p524
F0.995398
s(lp525
(g278
I30
tp526
atp527
a(g287
(dp528
S'NOUN'
p529
F1e-06
sS'DET'
p530
F0.999999
s(lp531
(g287
I31
tp532
atp533
a(g343
(dp534
S'NOUN'
p535
F0.10881199999999999
sS'VERB'
p536
F1.1e-05
sS'ADJ'
p537
F0.891178
s(lp538
(g343
I32
tp539
atp540
a(g335
(dp541
S'NOUN'
p542
F1.0
s(lp543
(g335
I33
tp544
atp545
a(g321
(dp546
S'PRT'
p547
F0.978657
sg143
F0.021343
s(lp548
(g321
I34
tp549
atp550
a(g301
(dp551
S'ADV'
p552
F0.000715
sS'NOUN'
p553
F0.013854
sS'ADJ'
p554
F0.985432
s(lp555
(g301
I35
tp556
atp557
a(g294
(dp558
S'NOUN'
p559
F1.0
s(lp560
(g294
I36
tp561
atp562
a(g143
(dp563
g143
F1.0
s(lp564
(g143
I37
tp565
atp566
asS'nl'
p567
(lp568
(S'men'
p569
(dp570
S'PRON'
p571
F1.0
sS'VERB'
p572
F0.0
s(lp573
(g437
I15
tp574
atp575
a(S'onderkent'
p576
(dp577
S'VERB'
p578
F1.0
s(lp579
(g80
I16
tp580
atp581
a(S'het'
p582
(dp583
S'PRON'
p584
F0.049963
sS'DET'
p585
F0.950037
s(lp586
(g89
I0
tp587
atp588
a(S'belang'
p589
(dp590
S'NOUN'
p591
F1.0
s(lp592
(g96
I1
tp593
atp594
a(S'van'
p595
(dp596
S'ADP'
p597
F1.0
s(lp598
(g103
I2
tp599
atp600
a(S'het'
p601
(dp602
S'PRON'
p603
F0.000927
sS'DET'
p604
F0.999073
s(lp605
tp606
a(S'element'
p607
(dp608
S'NOUN'
p609
F1.0
s(lp610
tp611
a(S'onderwijs'
p612
(dp613
S'VERB'
p614
F0.008761
sS'NOUN'
p615
F0.991239
s(lp616
(g117
I3
tp617
atp618
a(S'en'
p619
(dp620
S'CONJ'
p621
F1.0
s(lp622
(g124
I4
tp623
atp624
a(S'opleiding'
p625
(dp626
S'NOUN'
p627
F1.0
s(lp628
(g138
I5
tp629
atp630
a(S'in'
p631
(dp632
S'ADV'
p633
F0.002979
sS'VERB'
p634
F2e-06
sS'ADP'
p635
F0.997018
s(lp636
(g194
I6
tp637
atp638
a(S'de'
p639
(dp640
S'DET'
p641
F1.0
s(lp642
(g9
I7
tp643
atp644
a(S'strategie'
p645
(dp646
S'NOUN'
p647
F1.0
s(lp648
(g16
I9
tp649
atp650
a(S'van'
p651
(dp652
S'ADP'
p653
F1.0
s(lp654
tp655
a(S'lissabon'
p656
(dp657
S'NOUN'
p658
F1.0
s(lp659
(g30
I8
tp660
atp661
a(S'voor'
p662
(dp663
S'ADV'
p664
F0.00175
sS'CONJ'
p665
F1e-06
sS'NOUN'
p666
F0.0
sS'ADP'
p667
F0.998248
s(lp668
(g38
I10
tp669
atp670
a(S'groei'
p671
(dp672
S'VERB'
p673
F0.000722
sS'NOUN'
p674
F0.999278
s(lp675
(g52
I11
tp676
atp677
a(S'en'
p678
(dp679
S'CONJ'
p680
F1.0
s(lp681
(g59
I12
tp682
atp683
a(S'werkgelegenheid'
p684
(dp685
S'NOUN'
p686
F1.0
s(lp687
(g73
I13
tp688
atp689
a(S'en'
p690
(dp691
S'CONJ'
p692
F1.0
s(lp693
(g150
I17
tp694
atp695
a(S'de'
p696
(dp697
S'DET'
p698
F1.0
s(lp699
(g158
I18
tp700
atp701
a(S'europese'
p702
(dp703
S'NOUN'
p704
F1.0
s(lp705
(g173
I19
tp706
atp707
a(S'raad'
p708
(dp709
S'VERB'
p710
F6.2e-05
sS'NOUN'
p711
F0.999938
s(lp712
(g165
I20
tp713
atp714
a(S'heeft'
p715
(dp716
S'VERB'
p717
F1.0
s(lp718
(g180
I21
tp719
atp720
a(S'herhaaldelijk'
p721
(dp722
S'ADV'
p723
F1.0
s(lp724
(g208
I22
tp725
atp726
a(S'de'
p727
(dp728
S'DET'
p729
F1.0
s(lp730
(g216
I24
tp731
atp732
a(S'rol'
p733
(dp734
S'VERB'
p735
F1.9e-05
sS'NOUN'
p736
F0.999981
s(lp737
(g223
I25
tp738
atp739
a(S'van'
p740
(dp741
S'ADP'
p742
F1.0
s(lp743
(g230
I26
tp744
atp745
a(S'onderwijs'
p746
(dp747
S'VERB'
p748
F0.0
sS'NOUN'
p749
F1.0
s(lp750
(g244
I27
tp751
atp752
a(S'en'
p753
(dp754
S'CONJ'
p755
F1.0
s(lp756
(g251
I28
tp757
atp758
a(S'opleiding'
p759
(dp760
S'NOUN'
p761
F1.0
s(lp762
(g270
I29
tp763
atp764
a(S'voor'
p765
(dp766
S'ADV'
p767
F0.001937
sS'CONJ'
p768
F3e-06
sS'NOUN'
p769
F0.0
sS'ADP'
p770
F0.99806
s(lp771
(g278
I30
tp772
atp773
a(S'het'
p774
(dp775
S'PRON'
p776
F0.000929
sS'DET'
p777
F0.999071
s(lp778
tp779
a(S'langetermijnconcurrentievermogen'
p780
(dp781
S'NOUN'
p782
F1.0
s(lp783
tp784
a(S'van'
p785
(dp786
S'ADP'
p787
F1.0
s(lp788
(g321
I34
tp789
atp790
a(S'de'
p791
(dp792
S'DET'
p793
F1.0
s(lp794
(g287
I31
tp795
atp796
a(S'europese'
p797
(dp798
S'NOUN'
p799
F1.0
s(lp800
(g343
I32
tp801
atp802
a(S'unie'
p803
(dp804
S'NOUN'
p805
F1.0
s(lp806
(g335
I33
tp807
atp808
a(S'benadrukt'
p809
(dp810
S'VERB'
p811
F1.0
s(lp812
(g187
I23
tp813
atp814
a(g143
(dp815
g143
F1.0
s(lp816
(g143
I37
tp817
atp818
asS'de'
p819
(lp820
(S'der'
p821
(dp822
S'PRON'
p823
F0.000624
sS'DET'
p824
F0.999178
s(lp825
(g89
I0
tp826
atp827
a(S'stellenwert'
p828
(dp829
S'ADJ'
p830
F0.00714
sS'NOUN'
p831
F0.992705
s(lp832
(g96
I1
tp833
atp834
a(S'von'
p835
(dp836
S'NOUN'
p837
F0.000751
sS'ADP'
p838
F0.999249
s(lp839
(g103
I2
tp840
atp841
a(S'bildung'
p842
(dp843
S'X'
p844
F0.393545
sS'NOUN'
p845
F0.421255
s(lp846
(g117
I3
tp847
atp848
a(S'und'
p849
(dp850
S'CONJ'
p851
F1.0
s(lp852
(g124
I4
tp853
atp854
a(S'ausbildung'
p855
(dp856
S'VERB'
p857
F0.016723
sS'NOUN'
p858
F0.979815
s(lp859
(g138
I5
tp860
atp861
a(S'in'
p862
(dp863
S'ADP'
p864
F1.0
s(lp865
(g194
I6
tp866
atp867
a(S'der'
p868
(dp869
S'PRON'
p870
F1.6e-05
sS'DET'
p871
F0.999979
s(lp872
(g9
I7
tp873
atp874
a(S'lissabon-strategie'
p875
(dp876
S'ADJ'
p877
F0.000133
sS'NOUN'
p878
F0.999757
s(lp879
(g30
I8
tp880
atp881
a(S'f\xc3\xbcr'
p882
(dp883
S'ADP'
p884
F1.0
s(lp885
(g38
I10
tp886
atp887
a(S'wachstum'
p888
(dp889
g844
F0.321567
sS'NOUN'
p890
F0.479699
s(lp891
(g52
I11
tp892
atp893
a(S'und'
p894
(dp895
S'CONJ'
p896
F1.0
s(lp897
(g59
I12
tp898
atp899
a(S'besch\xc3\xa4ftigung'
p900
(dp901
S'ADJ'
p902
F0.006455
sS'NOUN'
p903
F0.992773
s(lp904
(g73
I13
tp905
atp906
a(S'ist'
p907
(dp908
S'VERB'
p909
F1.0
s(lp910
(g431
I14
tp911
atp912
a(S'erkannt'
p913
(dp914
S'VERB'
p915
F0.967957
sS'ADJ'
p916
F0.032043
s(lp917
(g80
I16
tp918
atp919
a(S'worden'
p920
(dp921
S'VERB'
p922
F0.999997
s(lp923
(g437
I15
tp924
atp925
a(g141
(dp926
g143
F1.0
s(lp927
tp928
a(S'und'
p929
(dp930
S'CONJ'
p931
F1.0
s(lp932
(g150
I17
tp933
atp934
a(S'der'
p935
(dp936
S'PRON'
p937
F0.003843
sS'DET'
p938
F0.995095
s(lp939
(g158
I18
tp940
atp941
a(S'europ\xc3\xa4ische'
p942
(dp943
S'ADJ'
p944
F1.0
s(lp945
(g173
I19
tp946
atp947
a(S'rat'
p948
(dp949
S'ADJ'
p950
F0.118798
sS'NOUN'
p951
F0.797148
s(lp952
(g165
I20
tp953
atp954
a(S'hat'
p955
(dp956
S'VERB'
p957
F1.0
s(lp958
(g180
I21
tp959
atp960
a(S'wiederholt'
p961
(dp962
S'VERB'
p963
F0.041602
sS'ADJ'
p964
F0.9583
s(lp965
(g208
I22
tp966
atp967
a(S'die'
p968
(dp969
S'PRON'
p970
F0.781592
sS'DET'
p971
F0.198649
s(lp972
(g216
I24
tp973
atp974
a(S'rolle'
p975
(dp976
S'VERB'
p977
F1.0
s(lp978
(g223
I25
tp979
atp980
a(S'von'
p981
(dp982
S'NOUN'
p983
F0.001231
sS'ADP'
p984
F0.998769
s(lp985
(g230
I26
tp986
atp987
a(S'bildung'
p988
(dp989
g844
F0.393438
sS'NOUN'
p990
F0.4212
s(lp991
(g244
I27
tp992
atp993
a(S'und'
p994
(dp995
S'CONJ'
p996
F1.0
s(lp997
(g251
I28
tp998
atp999
a(S'ausbildung'
p1000
(dp1001
S'VERB'
p1002
F0.016722
sS'NOUN'
p1003
F0.979815
s(lp1004
(g270
I29
tp1005
atp1006
a(S'bei'
p1007
(dp1008
S'PRT'
p1009
F0.000184
sS'ADP'
p1010
F0.999816
s(lp1011
(g278
I30
tp1012
atp1013
a(S'der'
p1014
(dp1015
S'PRON'
p1016
F6.7e-05
sS'DET'
p1017
F0.999927
s(lp1018
(g287
I31
tp1019
atp1020
a(S'langfristigen'
p1021
(dp1022
S'ADJ'
p1023
F1.0
s(lp1024
(g301
I35
tp1025
atp1026
a(S'wettbewerbsf\xc3\xa4higkeit'
p1027
(dp1028
g844
F0.00175
sS'NOUN'
p1029
F0.995423
s(lp1030
(g294
I36
tp1031
atp1032
a(S'der'
p1033
(dp1034
S'PRON'
p1035
F8.7e-05
sS'DET'
p1036
F0.9999
s(lp1037
(g321
I34
tp1038
atp1039
a(S'europ\xc3\xa4ischen'
p1040
(dp1041
S'ADJ'
p1042
F1.0
s(lp1043
(g343
I32
tp1044
atp1045
a(S'union'
p1046
(dp1047
S'NOUN'
p1048
F0.995607
s(lp1049
(g335
I33
tp1050
atp1051
a(S'betont'
p1052
(dp1053
S'VERB'
p1054
F0.9890209999999999
s(lp1055
(g187
I23
tp1056
atp1057
a(g143
(dp1058
g143
F1.0
s(lp1059
(g143
I37
tp1060
atp1061
asS'it'
p1062
(lp1063
(S"l'"
p1064
(dp1065
S'NOUN'
p1066
F0.00259
sS'VERB'
p1067
F0.9925710000000001
sS'ADJ'
p1068
F0.00484
s(lp1069
(g89
I0
tp1070
atp1071
a(S'importanza'
p1072
(dp1073
S'NOUN'
p1074
F1.0
s(lp1075
(g96
I1
tp1076
atp1077
a(S"dell'"
p1078
(dp1079
S'ADJ'
p1080
F0.040682
sS'VERB'
p1081
F0.006560999999999999
sS'NOUN'
p1082
F0.952757
s(lp1083
(g103
I2
tp1084
atp1085
a(S'istruzione'
p1086
(dp1087
S'NOUN'
p1088
F1.0
s(lp1089
(g117
I3
tp1090
atp1091
a(S'e'
p1092
(dp1093
S'CONJ'
p1094
F1.0
s(lp1095
(g124
I4
tp1096
atp1097
a(S'della'
p1098
(dp1099
S'DEF'
p1100
F0.026624
sS'ADP'
p1101
F0.973376
s(lp1102
tp1103
a(S'formazione'
p1104
(dp1105
S'NOUN'
p1106
F1.0
s(lp1107
(g138
I5
tp1108
atp1109
a(S"nell'"
p1110
(dp1111
S'ADJ'
p1112
F0.040682
sS'VERB'
p1113
F0.006560999999999999
sS'NOUN'
p1114
F0.952757
s(lp1115
(g194
I6
tp1116
atp1117
a(S'ambito'
p1118
(dp1119
S'ADJ'
p1120
F0.020283
sS'VERB'
p1121
F0.383414
sS'NOUN'
p1122
F0.596303
s(lp1123
tp1124
a(S'della'
p1125
(dp1126
S'DEF'
p1127
F0.002742
sS'ADP'
p1128
F0.997258
s(lp1129
(g9
I7
tp1130
atp1131
a(S'strategia'
p1132
(dp1133
S'NOUN'
p1134
F1.0
s(lp1135
(g16
I9
tp1136
atp1137
a(S'di'
p1138
(dp1139
S'CONJ'
p1140
F0.000107
sS'ADP'
p1141
F0.999893
s(lp1142
tp1143
a(S'lisbona'
p1144
(dp1145
S'ADJ'
p1146
F0.001786
sS'VERB'
p1147
F0.892667
sS'NOUN'
p1148
F0.105546
s(lp1149
(g30
I8
tp1150
atp1151
a(S'per'
p1152
(dp1153
S'CONJ'
p1154
F0.024844
sS'ADP'
p1155
F0.975156
s(lp1156
(g38
I10
tp1157
atp1158
a(S'la'
p1159
(dp1160
S'PRON'
p1161
F0.000204
sS'DET'
p1162
F0.999796
s(lp1163
tp1164
a(S'crescita'
p1165
(dp1166
S'NOUN'
p1167
F1.0
s(lp1168
(g52
I11
tp1169
atp1170
a(g1092
(dp1171
S'CONJ'
p1172
F1.0
s(lp1173
(g59
I12
tp1174
atp1175
a(S"l'"
p1176
(dp1177
S'NOUN'
p1178
F0.000589
sS'VERB'
p1179
F0.9933339999999999
sS'ADJ'
p1180
F0.006076
s(lp1181
tp1182
a(S'occupazione'
p1183
(dp1184
S'NOUN'
p1185
F1.0
s(lp1186
(g73
I13
tp1187
atp1188
a(S'\xc3\xa8'
p1189
(dp1190
S'VERB'
p1191
F1.0
s(lp1192
(g431
I14
tp1193
atp1194
a(S'stata'
p1195
(dp1196
S'VERB'
p1197
F1.0
s(lp1198
(g437
I15
tp1199
atp1200
a(S'riconosciuta'
p1201
(dp1202
S'VERB'
p1203
F1.0
s(lp1204
(g80
I16
tp1205
atp1206
a(g1092
(dp1207
S'CONJ'
p1208
F1.0
s(lp1209
(g150
I17
tp1210
atp1211
a(S'il'
p1212
(dp1213
S'DET'
p1214
F1.0
s(lp1215
(g158
I18
tp1216
atp1217
a(S'consiglio'
p1218
(dp1219
S'VERB'
p1220
F0.000267
sS'NOUN'
p1221
F0.999733
s(lp1222
(g165
I20
tp1223
atp1224
a(S'europeo'
p1225
(dp1226
S'NOUN'
p1227
F0.002419
sS'ADJ'
p1228
F0.997581
s(lp1229
(g173
I19
tp1230
atp1231
a(S'ha'
p1232
(dp1233
S'VERB'
p1234
F1.0
s(lp1235
(g180
I21
tp1236
atp1237
a(S'continuamente'
p1238
(dp1239
S'ADV'
p1240
F1.0
s(lp1241
(g208
I22
tp1242
atp1243
a(S'sottolineato'
p1244
(dp1245
S'VERB'
p1246
F1.0
s(lp1247
(g187
I23
tp1248
atp1249
a(S'il'
p1250
(dp1251
S'DET'
p1252
F1.0
s(lp1253
(g216
I24
tp1254
atp1255
a(S'ruolo'
p1256
(dp1257
S'NOUN'
p1258
F1.0
s(lp1259
(g223
I25
tp1260
atp1261
a(S"dell'"
p1262
(dp1263
S'ADJ'
p1264
F0.040682
sS'VERB'
p1265
F0.006560999999999999
sS'NOUN'
p1266
F0.952757
s(lp1267
(g230
I26
tp1268
atp1269
a(S'istruzione'
p1270
(dp1271
S'NOUN'
p1272
F1.0
s(lp1273
(g244
I27
tp1274
atp1275
a(g1092
(dp1276
S'CONJ'
p1277
F1.0
s(lp1278
(g251
I28
tp1279
atp1280
a(S'della'
p1281
(dp1282
S'DEF'
p1283
F0.026624
sS'ADP'
p1284
F0.973376
s(lp1285
tp1286
a(S'formazione'
p1287
(dp1288
S'NOUN'
p1289
F1.0
s(lp1290
(g270
I29
tp1291
atp1292
a(S'nella'
p1293
(dp1294
S'ADP'
p1295
F1.0
s(lp1296
(g278
I30
tp1297
atp1298
a(S'competitivit\xc3\xa0'
p1299
(dp1300
S'NOUN'
p1301
F1.0
s(lp1302
(g294
I36
tp1303
atp1304
a(g176
(dp1305
S'CONJ'
p1306
F0.002416
sS'ADP'
p1307
F0.997584
s(lp1308
(g301
I35
tp1309
atp1310
a(S'lungo'
p1311
(dp1312
S'ADJ'
p1313
F0.971662
sS'ADP'
p1314
F0.028338
s(lp1315
tp1316
a(S'termine'
p1317
(dp1318
S'NOUN'
p1319
F1.0
s(lp1320
(g301
I35
tp1321
atp1322
a(S"dell'"
p1323
(dp1324
S'ADJ'
p1325
F0.040682
sS'VERB'
p1326
F0.006560999999999999
sS'NOUN'
p1327
F0.952757
s(lp1328
(g321
I34
tp1329
atp1330
a(S'unione'
p1331
(dp1332
S'NOUN'
p1333
F1.0
s(lp1334
(g335
I33
tp1335
atp1336
a(S'europea'
p1337
(dp1338
S'NOUN'
p1339
F0.001561
sS'ADJ'
p1340
F0.998439
s(lp1341
(g343
I32
tp1342
atp1343
a(g143
(dp1344
g143
F1.0
s(lp1345
(g143
I37
tp1346
atp1347
asS'sk'
p1348
(lp1349
(S'd\xc3\xb4le\xc5\xbeitos\xc5\xa5'
p1350
(dp1351
S'NOUN'
p1352
F1.0
s(lp1353
(g96
I1
tp1354
atp1355
a(S'vzdel\xc3\xa1vania'
p1356
(dp1357
S'NOUN'
p1358
F1.0
s(lp1359
(g117
I3
tp1360
atp1361
a(g176
(dp1362
g844
F0.001126
sS'CONJ'
p1363
F0.998079
sS'NOUN'
p1364
F0.000172
sS'ADP'
p1365
F0.000597
sS'PRT'
p1366
F2.6e-05
s(lp1367
(g124
I4
tp1368
atp1369
a(S'odbornej'
p1370
(dp1371
S'ADJ'
p1372
F1.0
s(lp1373
tp1374
a(S'pr\xc3\xadpravy'
p1375
(dp1376
S'NOUN'
p1377
F1.0
s(lp1378
(g138
I5
tp1379
atp1380
a(S'sa'
p1381
(dp1382
S'PRT'
p1383
F0.999958
sS'ADP'
p1384
F0.0
sg844
F4.1e-05
s(lp1385
(g437
I15
tp1386
atp1387
a(S'uznala'
p1388
(dp1389
S'VERB'
p1390
F0.9999999999999999
s(lp1391
(g80
I16
tp1392
atp1393
a(S'v'
p1394
(dp1395
g844
F0.000109
sS'ADP'
p1396
F0.999891
s(lp1397
(g194
I6
tp1398
atp1399
a(S'lisabonskej'
p1400
(dp1401
S'VERB'
p1402
F0.00027000000000000006
sS'ADJ'
p1403
F0.999731
s(lp1404
(g30
I8
tp1405
atp1406
a(S'strat\xc3\xa9gii'
p1407
(dp1408
S'NOUN'
p1409
F1.0
s(lp1410
(g16
I9
tp1411
atp1412
a(S'pre'
p1413
(dp1414
g844
F0.000189
sS'ADP'
p1415
F0.999811
s(lp1416
(g38
I10
tp1417
atp1418
a(S'rast'
p1419
(dp1420
S'NOUN'
p1421
F1.0
s(lp1422
(g52
I11
tp1423
atp1424
a(g176
(dp1425
g844
F0.0025380000000000003
sS'CONJ'
p1426
F0.996478
sS'NOUN'
p1427
F0.00018700000000000002
sS'ADP'
p1428
F0.00077
sS'PRT'
p1429
F2.7e-05
s(lp1430
(g59
I12
tp1431
atp1432
a(S'zamestnanos\xc5\xa5'
p1433
(dp1434
S'NOUN'
p1435
F1.0
s(lp1436
(g73
I13
tp1437
atp1438
a(g176
(dp1439
g844
F0.001131
sS'CONJ'
p1440
F0.998072
sS'NOUN'
p1441
F0.000173
sS'ADP'
p1442
F0.000598
sS'PRT'
p1443
F2.6e-05
s(lp1444
(g150
I17
tp1445
atp1446
a(S'eur\xc3\xb3pska'
p1447
(dp1448
S'ADJ'
p1449
F1.0
s(lp1450
(g173
I19
tp1451
atp1452
a(S'rada'
p1453
(dp1454
S'ADJ'
p1455
F0.077159
sS'NOUN'
p1456
F0.922841
s(lp1457
(g165
I20
tp1458
atp1459
a(S'opakovane'
p1460
(dp1461
S'ADV'
p1462
F1.0
s(lp1463
(g208
I22
tp1464
atp1465
a(S'zd\xc3\xb4raznila'
p1466
(dp1467
S'VERB'
p1468
F1.0
s(lp1469
(g187
I23
tp1470
atp1471
a(S'\xc3\xbalohu'
p1472
(dp1473
S'NOUN'
p1474
F1.0
s(lp1475
(g223
I25
tp1476
atp1477
a(S'vzdel\xc3\xa1vania'
p1478
(dp1479
S'NOUN'
p1480
F1.0
s(lp1481
(g244
I27
tp1482
atp1483
a(g176
(dp1484
g844
F0.001126
sS'CONJ'
p1485
F0.998079
sS'NOUN'
p1486
F0.000172
sS'ADP'
p1487
F0.000597
sS'PRT'
p1488
F2.6e-05
s(lp1489
(g251
I28
tp1490
atp1491
a(S'odbornej'
p1492
(dp1493
S'ADJ'
p1494
F1.0
s(lp1495
tp1496
a(S'pr\xc3\xadpravy'
p1497
(dp1498
S'NOUN'
p1499
F1.0
s(lp1500
(g270
I29
tp1501
atp1502
a(S'pre'
p1503
(dp1504
g844
F0.000106
sS'ADP'
p1505
F0.999894
s(lp1506
(g287
I31
tp1507
atp1508
a(S'dlhodob\xc3\xba'
p1509
(dp1510
S'ADJ'
p1511
F1.0
s(lp1512
(g301
I35
tp1513
atp1514
a(S'konkurencieschopnos\xc5\xa5'
p1515
(dp1516
S'NOUN'
p1517
F1.0
s(lp1518
(g294
I36
tp1519
atp1520
a(S'eur\xc3\xb3pskej'
p1521
(dp1522
S'ADJ'
p1523
F1.0
s(lp1524
(g343
I32
tp1525
atp1526
a(S'\xc3\xbanie'
p1527
(dp1528
S'NOUN'
p1529
F1.0
s(lp1530
(g335
I33
tp1531
atp1532
a(g143
(dp1533
g143
F1.0
s(lp1534
(g143
I37
tp1535
atp1536
asS'pl'
p1537
(lp1538
(S'znaczenie'
p1539
(dp1540
S'VERB'
p1541
F0.009374
sS'NOUN'
p1542
F0.990626
s(lp1543
(g96
I1
tp1544
atp1545
a(S'kszta\xc5\x82cenia'
p1546
(dp1547
S'NOUN'
p1548
F1.0
s(lp1549
(g117
I3
tp1550
atp1551
a(S'i'
p1552
(dp1553
S'PRT'
p1554
F0.002241
sS'CONJ'
p1555
F0.997633
sS'NOUN'
p1556
F4.2000000000000004e-05
sg844
F1e-06
sS'PRON'
p1557
F8.3e-05
s(lp1558
(g124
I4
tp1559
atp1560
a(S'szkolenia'
p1561
(dp1562
S'VERB'
p1563
F0.320706
sS'NOUN'
p1564
F0.679294
s(lp1565
(g138
I5
tp1566
atp1567
a(S'potwierdzono'
p1568
(dp1569
S'VERB'
p1570
F1.0
s(lp1571
(g80
I16
tp1572
atp1573
a(S'w'
p1574
(dp1575
S'NOUN'
p1576
F2e-06
sS'ADJ'
p1577
F1.2e-05
sS'ADP'
p1578
F0.999985
sg844
F0.0
s(lp1579
(g194
I6
tp1580
atp1581
a(S'lizbo\xc5\x84skiej'
p1582
(dp1583
S'ADV'
p1584
F0.000455
sS'NOUN'
p1585
F0.031739
sS'VERB'
p1586
F0.017363
sS'ADJ'
p1587
F0.950438
sS'PRT'
p1588
F2e-06
s(lp1589
(g30
I8
tp1590
atp1591
a(S'strategii'
p1592
(dp1593
S'NOUN'
p1594
F0.999999
s(lp1595
(g16
I9
tp1596
atp1597
a(S'na'
p1598
(dp1599
g844
F7e-06
sS'VERB'
p1600
F4.3e-05
sS'NOUN'
p1601
F3e-06
sS'ADP'
p1602
F0.999942
sS'PRT'
p1603
F5e-06
s(lp1604
(g38
I10
tp1605
atp1606
a(S'rzecz'
p1607
(dp1608
S'NOUN'
p1609
F1.0
s(lp1610
tp1611
a(S'wzrostu'
p1612
(dp1613
S'NOUN'
p1614
F1.0
s(lp1615
(g52
I11
tp1616
atp1617
a(g1552
(dp1618
S'PRT'
p1619
F0.001955
sS'CONJ'
p1620
F0.997995
sS'PRON'
p1621
F1e-06
sS'NOUN'
p1622
F4.4e-05
sg844
F5e-06
s(lp1623
(g59
I12
tp1624
atp1625
a(S'zatrudnienia'
p1626
(dp1627
S'VERB'
p1628
F0.037243
sS'NOUN'
p1629
F0.962757
s(lp1630
(g73
I13
tp1631
atp1632
a(g141
(dp1633
g844
F0.0
sg143
F1.0
s(lp1634
tp1635
a(S'natomiast'
p1636
(dp1637
S'PRT'
p1638
F0.001099
sS'CONJ'
p1639
F0.998901
s(lp1640
(g150
I17
tp1641
atp1642
a(S'rada'
p1643
(dp1644
S'ADJ'
p1645
F0.022113
sS'NOUN'
p1646
F0.977887
s(lp1647
(g165
I20
tp1648
atp1649
a(S'europejska'
p1650
(dp1651
S'ADJ'
p1652
F1.0
s(lp1653
(g173
I19
tp1654
atp1655
a(S'wielokrotnie'
p1656
(dp1657
S'ADV'
p1658
F1.0
s(lp1659
(g208
I22
tp1660
atp1661
a(S'podkre\xc5\x9bla\xc5\x82a'
p1662
(dp1663
S'VERB'
p1664
F1.0
s(lp1665
tp1666
a(S'rol\xc4\x99'
p1667
(dp1668
S'NOUN'
p1669
F1.0
s(lp1670
(g223
I25
tp1671
atp1672
a(S'kszta\xc5\x82cenia'
p1673
(dp1674
S'NOUN'
p1675
F1.0
s(lp1676
(g244
I27
tp1677
atp1678
a(g1552
(dp1679
S'PRT'
p1680
F0.002425
sS'CONJ'
p1681
F0.997455
sS'NOUN'
p1682
F3.2e-05
sg844
F1e-06
sS'PRON'
p1683
F8.7e-05
s(lp1684
(g251
I28
tp1685
atp1686
a(S'szkolenia'
p1687
(dp1688
S'VERB'
p1689
F0.177503
sS'NOUN'
p1690
F0.822497
s(lp1691
(g270
I29
tp1692
atp1693
a(g1574
(dp1694
S'ADJ'
p1695
F0.0
sg844
F0.0
sS'NOUN'
p1696
F0.0
sS'ADP'
p1697
F0.999999
s(lp1698
(g278
I30
tp1699
atp1700
a(S'kategoriach'
p1701
(dp1702
S'NOUN'
p1703
F1.0
s(lp1704
(g187
I23
tp1705
atp1706
a(S'd\xc5\x82ugoterminowej'
p1707
(dp1708
S'NOUN'
p1709
F0.009746999999999999
sS'VERB'
p1710
F0.000284
sS'ADJ'
p1711
F0.989968
s(lp1712
(g301
I35
tp1713
atp1714
a(S'konkurencyjno\xc5\x9bci'
p1715
(dp1716
S'NOUN'
p1717
F1.0
s(lp1718
(g294
I36
tp1719
atp1720
a(S'unii'
p1721
(dp1722
S'NOUN'
p1723
F1.0
s(lp1724
(g335
I33
tp1725
atp1726
a(S'europejskiej'
p1727
(dp1728
S'ADJ'
p1729
F1.0
s(lp1730
(g343
I32
tp1731
atp1732
a(g143
(dp1733
g143
F1.0
s(lp1734
(g143
I37
tp1735
atp1736
asS'sl'
p1737
(lp1738
(S'evropski'
p1739
(dp1740
S'ADJ'
p1741
F1.0000010000000001
s(lp1742
(g173
I19
tp1743
atp1744
a(S'svet'
p1745
(dp1746
S'NOUN'
p1747
F1.0
s(lp1748
(g165
I20
tp1749
atp1750
a(S'je'
p1751
(dp1752
S'PRON'
p1753
F7.6e-05
sS'VERB'
p1754
F0.999885
sg844
F3.9e-05
s(lp1755
(g180
I21
tp1756
atp1757
a(g1394
(dp1758
S'ADP'
p1759
F1.0
s(lp1760
(g194
I6
tp1761
atp1762
a(S'lizbonski'
p1763
(dp1764
S'ADV'
p1765
F1e-06
sS'NOUN'
p1766
F0.0013889999999999996
sS'VERB'
p1767
F0.0
sS'ADJ'
p1768
F0.99861
s(lp1769
(g30
I8
tp1770
atp1771
a(S'strategiji'
p1772
(dp1773
S'NOUN'
p1774
F1.0
s(lp1775
(g16
I9
tp1776
atp1777
a(S'za'
p1778
(dp1779
S'ADV'
p1780
F3.7e-05
sg844
F3.7e-05
sS'ADP'
p1781
F0.999926
s(lp1782
(g38
I10
tp1783
atp1784
a(S'rast'
p1785
(dp1786
S'NOUN'
p1787
F1.0
s(lp1788
(g52
I11
tp1789
atp1790
a(S'in'
p1791
(dp1792
S'ADV'
p1793
F2.1e-05
sg844
F9e-06
sS'CONJ'
p1794
F0.99993
sS'NOUN'
p1795
F4.1e-05
s(lp1796
(g59
I12
tp1797
atp1798
a(S'razvoj'
p1799
(dp1800
S'NOUN'
p1801
F1.0
s(lp1802
(g73
I13
tp1803
atp1804
a(S'priznal'
p1805
(dp1806
S'VERB'
p1807
F1.0
s(lp1808
(g80
I16
tp1809
atp1810
a(S'pomen'
p1811
(dp1812
S'NOUN'
p1813
F1.0
s(lp1814
(g96
I1
tp1815
atp1816
a(S'izobra\xc5\xbeevanja'
p1817
(dp1818
S'NOUN'
p1819
F1.0
s(lp1820
(g117
I3
tp1821
atp1822
a(S'in'
p1823
(dp1824
S'ADV'
p1825
F4.8e-05
sg844
F1.6e-05
sS'CONJ'
p1826
F0.999917
sS'NOUN'
p1827
F1.9e-05
s(lp1828
(g124
I4
tp1829
atp1830
a(S'usposabljanja'
p1831
(dp1832
S'NOUN'
p1833
F1.0
s(lp1834
(g138
I5
tp1835
atp1836
a(g141
(dp1837
g143
F1.0
s(lp1838
tp1839
a(S'hkrati'
p1840
(dp1841
S'ADV'
p1842
F1.0
s(lp1843
tp1844
a(S'pa'
p1845
(dp1846
g844
F0.0001
sS'CONJ'
p1847
F0.9999
s(lp1848
(g150
I17
tp1849
atp1850
a(S'je'
p1851
(dp1852
S'PRON'
p1853
F0.00476
sS'VERB'
p1854
F0.995239
sg844
F1e-06
s(lp1855
(g158
I18
tp1856
atp1857
a(S've\xc4\x8dkrat'
p1858
(dp1859
S'ADV'
p1860
F1.0
s(lp1861
(g208
I22
tp1862
atp1863
a(S'poudaril'
p1864
(dp1865
S'VERB'
p1866
F1.0
s(lp1867
(g187
I23
tp1868
atp1869
a(S'vlogo'
p1870
(dp1871
S'NOUN'
p1872
F1.0
s(lp1873
(g223
I25
tp1874
atp1875
a(S'izobra\xc5\xbeevanja'
p1876
(dp1877
S'NOUN'
p1878
F1.0
s(lp1879
(g244
I27
tp1880
atp1881
a(S'in'
p1882
(dp1883
S'ADV'
p1884
F4.9e-05
sg844
F1.6e-05
sS'CONJ'
p1885
F0.999914
sS'NOUN'
p1886
F2e-05
s(lp1887
(g251
I28
tp1888
atp1889
a(S'usposabljanja'
p1890
(dp1891
S'NOUN'
p1892
F1.0
s(lp1893
(g270
I29
tp1894
atp1895
a(g1394
(dp1896
S'ADP'
p1897
F1.0
s(lp1898
(g278
I30
tp1899
atp1900
a(S'dolgoro\xc4\x8dni'
p1901
(dp1902
S'ADJ'
p1903
F1.000001
s(lp1904
(g301
I35
tp1905
atp1906
a(S'konkuren\xc4\x8dnosti'
p1907
(dp1908
S'NOUN'
p1909
F1.0
s(lp1910
(g294
I36
tp1911
atp1912
a(S'evropske'
p1913
(dp1914
S'ADJ'
p1915
F1.0
s(lp1916
(g343
I32
tp1917
atp1918
a(S'unije'
p1919
(dp1920
S'NOUN'
p1921
F1.0
s(lp1922
(g335
I33
tp1923
atp1924
a(g143
(dp1925
g143
F1.0
s(lp1926
(g143
I37
tp1927
atp1928
asS'es'
p1929
(lp1930
(S'se'
p1931
(dp1932
S'PRON'
p1933
F1.0
sS'VERB'
p1934
F0.0
s(lp1935
(g437
I15
tp1936
atp1937
a(S'ha'
p1938
(dp1939
S'VERB'
p1940
F1.0
s(lp1941
(g431
I14
tp1942
atp1943
a(S'reconocido'
p1944
(dp1945
S'VERB'
p1946
F1.0
s(lp1947
(g80
I16
tp1948
atp1949
a(S'la'
p1950
(dp1951
S'PRON'
p1952
F1e-06
sS'DET'
p1953
F0.999999
sg844
F0.0
sS'NOUN'
p1954
F0.0
s(lp1955
(g89
I0
tp1956
atp1957
a(S'importancia'
p1958
(dp1959
S'NOUN'
p1960
F1.0
s(lp1961
(g96
I1
tp1962
atp1963
a(S'de'
p1964
(dp1965
g844
F0.0
sS'CONJ'
p1966
F1.7e-05
sS'ADP'
p1967
F0.999983
s(lp1968
(g103
I2
tp1969
atp1970
a(S'la'
p1971
(dp1972
g844
F0.0
sS'PRON'
p1973
F0.0
sS'DET'
p1974
F0.999999
sS'NOUN'
p1975
F0.0
s(lp1976
tp1977
a(S'educaci\xc3\xb3n'
p1978
(dp1979
S'NOUN'
p1980
F1.0
s(lp1981
(g117
I3
tp1982
atp1983
a(S'y'
p1984
(dp1985
g844
F0.000396
sS'CONJ'
p1986
F0.999604
s(lp1987
(g124
I4
tp1988
atp1989
a(S'la'
p1990
(dp1991
S'PRON'
p1992
F0.000591
sS'DET'
p1993
F0.999408
sS'NOUN'
p1994
F0.0
sg844
F0.0
s(lp1995
tp1996
a(S'formaci\xc3\xb3n'
p1997
(dp1998
S'NOUN'
p1999
F1.0
s(lp2000
(g138
I5
tp2001
atp2002
a(S'en'
p2003
(dp2004
g844
F0.0
sS'CONJ'
p2005
F0.0
sS'ADP'
p2006
F1.0
s(lp2007
(g194
I6
tp2008
atp2009
a(S'la'
p2010
(dp2011
S'NOUN'
p2012
F0.0
sS'PRON'
p2013
F0.0
sS'DET'
p2014
F0.999999
sg844
F0.0
s(lp2015
(g9
I7
tp2016
atp2017
a(S'estrategia'
p2018
(dp2019
S'NOUN'
p2020
F1.0
s(lp2021
(g16
I9
tp2022
atp2023
a(S'de'
p2024
(dp2025
g844
F0.000129
sS'CONJ'
p2026
F0.039475
sS'ADP'
p2027
F0.960397
s(lp2028
tp2029
a(S'lisboa'
p2030
(dp2031
S'ADV'
p2032
F0.010051
sS'ADJ'
p2033
F0.033296
sS'VERB'
p2034
F0.191175
sS'NOUN'
p2035
F0.765478
s(lp2036
(g30
I8
tp2037
atp2038
a(S'para'
p2039
(dp2040
S'CONJ'
p2041
F0.001882
sS'ADP'
p2042
F0.998118
s(lp2043
(g38
I10
tp2044
atp2045
a(S'el'
p2046
(dp2047
S'PRON'
p2048
F5e-06
sS'DET'
p2049
F0.999995
s(lp2050
tp2051
a(S'crecimiento'
p2052
(dp2053
S'NOUN'
p2054
F1.0
s(lp2055
(g52
I11
tp2056
atp2057
a(g1984
(dp2058
g844
F0.000396
sS'CONJ'
p2059
F0.999604
s(lp2060
(g59
I12
tp2061
atp2062
a(S'el'
p2063
(dp2064
S'PRON'
p2065
F2.8e-05
sS'DET'
p2066
F0.999972
s(lp2067
tp2068
a(S'empleo'
p2069
(dp2070
S'NOUN'
p2071
F1.0
s(lp2072
(g73
I13
tp2073
atp2074
a(g141
(dp2075
g143
F1.0
s(lp2076
tp2077
a(g1984
(dp2078
g844
F0.00017
sS'CONJ'
p2079
F0.99983
s(lp2080
(g150
I17
tp2081
atp2082
a(S'el'
p2083
(dp2084
S'PRON'
p2085
F2.8e-05
sS'DET'
p2086
F0.999972
s(lp2087
(g158
I18
tp2088
atp2089
a(S'consejo'
p2090
(dp2091
S'NOUN'
p2092
F1.0
s(lp2093
(g165
I20
tp2094
atp2095
a(S'europeo'
p2096
(dp2097
S'NOUN'
p2098
F0.000691
sS'ADJ'
p2099
F0.999309
s(lp2100
(g173
I19
tp2101
atp2102
a(S'ha'
p2103
(dp2104
S'VERB'
p2105
F1.0
s(lp2106
(g180
I21
tp2107
atp2108
a(S'recalcado'
p2109
(dp2110
S'VERB'
p2111
F1.0
s(lp2112
(g187
I23
tp2113
atp2114
a(S'reiteradamente'
p2115
(dp2116
S'ADV'
p2117
F1.0
s(lp2118
(g208
I22
tp2119
atp2120
a(S'el'
p2121
(dp2122
S'PRON'
p2123
F9e-06
sS'DET'
p2124
F0.999991
s(lp2125
(g216
I24
tp2126
atp2127
a(S'papel'
p2128
(dp2129
S'NOUN'
p2130
F1.0
s(lp2131
(g223
I25
tp2132
atp2133
a(S'de'
p2134
(dp2135
g844
F0.0
sS'CONJ'
p2136
F1.7e-05
sS'ADP'
p2137
F0.999983
s(lp2138
(g230
I26
tp2139
atp2140
a(S'la'
p2141
(dp2142
g844
F0.0
sS'PRON'
p2143
F0.0
sS'DET'
p2144
F0.999999
sS'NOUN'
p2145
F0.0
s(lp2146
tp2147
a(S'educaci\xc3\xb3n'
p2148
(dp2149
S'NOUN'
p2150
F1.0
s(lp2151
(g244
I27
tp2152
atp2153
a(g1984
(dp2154
g844
F0.000396
sS'CONJ'
p2155
F0.999604
s(lp2156
(g251
I28
tp2157
atp2158
a(S'la'
p2159
(dp2160
S'PRON'
p2161
F0.000591
sS'DET'
p2162
F0.999408
sS'NOUN'
p2163
F0.0
sg844
F0.0
s(lp2164
tp2165
a(S'formaci\xc3\xb3n'
p2166
(dp2167
S'NOUN'
p2168
F1.0
s(lp2169
(g270
I29
tp2170
atp2171
a(S'en'
p2172
(dp2173
g844
F0.0
sS'CONJ'
p2174
F0.0
sS'ADP'
p2175
F1.0
s(lp2176
(g278
I30
tp2177
atp2178
a(S'la'
p2179
(dp2180
S'NOUN'
p2181
F0.0
sS'PRON'
p2182
F0.0
sS'DET'
p2183
F0.999999
sg844
F0.0
s(lp2184
(g287
I31
tp2185
atp2186
a(S'competitividad'
p2187
(dp2188
S'NOUN'
p2189
F1.0
s(lp2190
(g294
I36
tp2191
atp2192
a(S'de'
p2193
(dp2194
g844
F0.0
sS'CONJ'
p2195
F1.7e-05
sS'ADP'
p2196
F0.999983
s(lp2197
tp2198
a(S'la'
p2199
(dp2200
g844
F0.0
sS'PRON'
p2201
F0.0
sS'DET'
p2202
F0.999999
sS'NOUN'
p2203
F0.0
s(lp2204
(g321
I34
tp2205
atp2206
a(S'uni\xc3\xb3n'
p2207
(dp2208
S'NOUN'
p2209
F1.0
s(lp2210
(g335
I33
tp2211
atp2212
a(S'europea'
p2213
(dp2214
S'ADJ'
p2215
F1.0
s(lp2216
(g343
I32
tp2217
atp2218
a(g176
(dp2219
g844
F0.022253
sS'CONJ'
p2220
F0.000384
sS'ADP'
p2221
F0.977363
s(lp2222
(g301
I35
tp2223
atp2224
a(S'largo'
p2225
(dp2226
S'NOUN'
p2227
F0.17747
sS'ADJ'
p2228
F0.82253
s(lp2229
tp2230
a(S'plazo'
p2231
(dp2232
S'NOUN'
p2233
F1.0
s(lp2234
(g301
I35
tp2235
atp2236
a(g143
(dp2237
g143
F1.0
s(lp2238
(g143
I37
tp2239
atp2240
as.