(dp0
S'fr'
p1
(lp2
(S'cependant'
p3
(dp4
S'ADV'
p5
F1.0
s(lp6
(S'however'
p7
I0
tp8
atp9
a(S','
p10
(dp11
S'.'
p12
F1.0
s(lp13
(g10
I1
tp14
atp15
a(S'derri\xc3\xa8re'
p16
(dp17
S'ADV'
p18
F0.067886
sS'NOUN'
p19
F0.00148
sS'ADP'
p20
F0.930634
s(lp21
(S'behind'
p22
I2
tp23
atp24
a(S'ce'
p25
(dp26
S'PRON'
p27
F1.0
s(lp28
(S'this'
p29
I3
tp30
atp31
a(S'th\xc3\xa9\xc3\xa2tre'
p32
(dp33
S'NOUN'
p34
F1.0
s(lp35
(S'theatre'
p36
I4
tp37
atp38
a(S'se'
p39
(dp40
S'PRON'
p41
F1.0
s(lp42
tp43
a(S'cache'
p44
(dp45
S'VERB'
p46
F0.9988119999999999
sS'NOUN'
p47
F0.001189
s(lp48
(S'lies'
p49
I5
tp50
atp51
a(S'une'
p52
(dp53
S'NOUN'
p54
F1.2e-05
sS'NUM'
p55
F0.00395
sS'DET'
p56
F0.996038
s(lp57
(S'a'
p58
I6
tp59
atp60
a(S'trag\xc3\xa9die'
p61
(dp62
S'NOUN'
p63
F1.0
s(lp64
(S'tragedy'
p65
I7
tp66
atp67
a(g10
(dp68
g12
F1.0
s(lp69
(g10
I8
tp70
atp71
a(S'comme'
p72
(dp73
S'ADV'
p74
F0.121807
sS'CONJ'
p75
F0.878193
s(lp76
(S'as'
p77
I9
tp78
atp79
a(S'nous'
p80
(dp81
S'PRON'
p82
F1.0
s(lp83
tp84
a(S"l'"
p85
(dp86
S'ADJ'
p87
F0.000625
sS'VERB'
p88
F0.9973000000000002
sS'NOUN'
p89
F0.002077
s(lp90
tp91
a(S'avons'
p92
(dp93
S'VERB'
p94
F1.0
s(lp95
(S'we'
p96
I10
tp97
atp98
a(S'dit'
p99
(dp100
S'NOUN'
p101
F0.001074
sS'VERB'
p102
F0.9929080000000001
sS'ADJ'
p103
F0.006018
s(lp104
(S'said'
p105
I11
tp106
atp107
a(S':'
p108
(dp109
g12
F1.0
s(lp110
(S';'
p111
I12
tp112
atp113
a(S'plusieurs'
p114
(dp115
S'PRON'
p116
F0.999993
sS'NOUN'
p117
F7e-06
s(lp118
(S'several'
p119
I13
tp120
atp121
a(S'milliers'
p122
(dp123
S'NOUN'
p124
F1.0
s(lp125
(S'thousand'
p126
I14
tp127
atp128
a(S'de'
p129
(dp130
S'ADP'
p131
F1.0
s(lp132
tp133
a(S'personnes'
p134
(dp135
S'NOUN'
p136
F1.0
s(lp137
(S'people'
p138
I15
tp139
atp140
a(S'qui'
p141
(dp142
S'PRON'
p143
F1.0
s(lp144
(S'who'
p145
I16
tp146
atp147
a(S'restent'
p148
(dp149
S'VERB'
p150
F1.0
s(lp151
(S'still'
p152
I18
tp153
atp154
a(S'en'
p155
(dp156
S'PRON'
p157
F0.001468
sS'ADP'
p158
F0.998532
s(lp159
(S'in'
p160
I19
tp161
atp162
a(S'prison'
p163
(dp164
S'NOUN'
p165
F1.0
s(lp166
(S'prison'
p167
I20
tp168
atp169
a(g12
(dp170
g12
F1.0
s(lp171
(g12
I21
tp172
atp173
asS'en'
p174
(lp175
(g7
(dp176
S'ADV'
p177
F1.0
s(lp178
(g7
I0
tp179
atp180
a(g10
(dp181
g12
F1.0
s(lp182
(g10
I1
tp183
atp184
a(g22
(dp185
S'ADV'
p186
F0.063595
sS'NOUN'
p187
F2e-05
sS'ADP'
p188
F0.936385
s(lp189
(g22
I2
tp190
atp191
a(g29
(dp192
S'ADV'
p193
F5e-06
sS'NOUN'
p194
F1.9e-05
sS'DET'
p195
F0.999976
s(lp196
(g29
I3
tp197
atp198
a(g36
(dp199
S'NOUN'
p200
F1.0
s(lp201
(g36
I4
tp202
atp203
a(g49
(dp204
S'VERB'
p205
F0.992151
sS'NOUN'
p206
F0.007849
s(lp207
(g49
I5
tp208
atp209
a(g58
(dp210
S'NOUN'
p211
F0.0
sS'DET'
p212
F1.0
s(lp213
(g58
I6
tp214
atp215
a(g65
(dp216
S'NOUN'
p217
F1.0
s(lp218
(g65
I7
tp219
atp220
a(g10
(dp221
g12
F1.0
s(lp222
(g10
I8
tp223
atp224
a(g77
(dp225
S'ADV'
p226
F0.222032
sS'ADP'
p227
F0.777968
s(lp228
(g77
I9
tp229
atp230
a(g96
(dp231
S'PRON'
p232
F1.0
s(lp233
(g96
I10
tp234
atp235
a(g105
(dp236
S'ADJ'
p237
F0.0
sS'VERB'
p238
F0.9999990000000001
sS'NOUN'
p239
F0.0
s(lp240
(g105
I11
tp241
atp242
a(g111
(dp243
g12
F1.0
s(lp244
(g111
I12
tp245
atp246
a(g119
(dp247
S'ADJ'
p248
F1.0
s(lp249
(g119
I13
tp250
atp251
a(g126
(dp252
S'NUM'
p253
F1.0
s(lp254
(g126
I14
tp255
atp256
a(g138
(dp257
S'VERB'
p258
F0.0
sS'NOUN'
p259
F1.0
s(lp260
(g138
I15
tp261
atp262
a(g145
(dp263
S'PRON'
p264
F1.0
s(lp265
(g145
I16
tp266
atp267
a(S'are'
p268
(dp269
S'VERB'
p270
F0.999998
sS'NOUN'
p271
F2e-06
s(lp272
(g268
I17
tp273
atp274
a(g152
(dp275
S'ADV'
p276
F0.999466
sS'NOUN'
p277
F1.7e-05
sS'VERB'
p278
F0.0
sS'ADJ'
p279
F0.000517
s(lp280
(g152
I18
tp281
atp282
a(g160
(dp283
S'ADV'
p284
F0.000844
sS'PRT'
p285
F5e-06
sS'ADP'
p286
F0.999152
s(lp287
(g160
I19
tp288
atp289
a(g167
(dp290
S'NOUN'
p291
F1.0
s(lp292
(g167
I20
tp293
atp294
a(g12
(dp295
g12
F1.0
s(lp296
(g12
I21
tp297
atp298
asS'nl'
p299
(lp300
(S'achter'
p301
(dp302
S'ADV'
p303
F0.046265
sS'ADP'
p304
F0.953735
s(lp305
(g22
I2
tp306
atp307
a(S'deze'
p308
(dp309
S'PRON'
p310
F1.0
s(lp311
(g29
I3
tp312
atp313
a(S'voorstelling'
p314
(dp315
S'NOUN'
p316
F1.0
s(lp317
(g36
I4
tp318
atp319
a(S'gaat'
p320
(dp321
S'VERB'
p322
F1.0
s(lp323
tp324
a(S'evenwel'
p325
(dp326
S'ADV'
p327
F1.0
s(lp328
(g7
I0
tp329
atp330
a(S'een'
p331
(dp332
S'ADJ'
p333
F1.1e-05
sS'PRON'
p334
F2e-05
sS'NUM'
p335
F1e-06
sS'DET'
p336
F0.999968
s(lp337
(g58
I6
tp338
atp339
a(S'tragedie'
p340
(dp341
S'NOUN'
p342
F1.0
s(lp343
(g65
I7
tp344
atp345
a(S'schuil'
p346
(dp347
S'ADV'
p348
F0.321729
sS'VERB'
p349
F0.678271
s(lp350
(g49
I5
tp351
atp352
a(g12
(dp353
g12
F1.0
s(lp354
(g10
I8
tp355
atp356
a(S'zoals'
p357
(dp358
S'CONJ'
p359
F1.0
s(lp360
(g77
I9
tp361
atp362
a(S'we'
p363
(dp364
S'PRON'
p365
F1.0
s(lp366
(g96
I10
tp367
atp368
a(S'al'
p369
(dp370
S'ADV'
p371
F0.999896
sS'PRON'
p372
F0.0001
sS'CONJ'
p373
F4e-06
s(lp374
tp375
a(S'opmerkten'
p376
(dp377
S'VERB'
p378
F1.0
s(lp379
(g105
I11
tp380
atp381
a(g10
(dp382
g12
F1.0
s(lp383
(g111
I12
tp384
atp385
a(S'zitten'
p386
(dp387
S'VERB'
p388
F0.985198
sS'NOUN'
p389
F0.014802
s(lp390
(g268
I17
tp391
atp392
a(S'een'
p393
(dp394
S'ADJ'
p395
F6e-06
sS'PRON'
p396
F2.5e-05
sS'NUM'
p397
F0.0
sS'DET'
p398
F0.999968
s(lp399
tp400
a(S'paar'
p401
(dp402
S'ADJ'
p403
F0.002662
sS'VERB'
p404
F2.2e-05
sS'NOUN'
p405
F0.997315
s(lp406
(g119
I13
tp407
atp408
a(S'duizend'
p409
(dp410
S'NUM'
p411
F1.0
s(lp412
(g126
I14
tp413
atp414
a(S'mensen'
p415
(dp416
S'NOUN'
p417
F1.0
s(lp418
(g138
I15
tp419
atp420
a(S'nog'
p421
(dp422
S'ADV'
p423
F1.0
s(lp424
tp425
a(S'steeds'
p426
(dp427
S'ADV'
p428
F1.0
s(lp429
(g152
I18
tp430
atp431
a(S'in'
p432
(dp433
S'ADV'
p434
F0.011905
sS'VERB'
p435
F2e-06
sS'ADP'
p436
F0.988093
s(lp437
(g160
I19
tp438
atp439
a(S'de'
p440
(dp441
S'DET'
p442
F1.0
s(lp443
tp444
a(S'gevangenis'
p445
(dp446
S'NOUN'
p447
F1.0
s(lp448
(g167
I20
tp449
atp450
a(g12
(dp451
g12
F1.0
s(lp452
(g12
I21
tp453
atp454
asS'de'
p455
(lp456
(S'jedoch'
p457
(dp458
S'ADV'
p459
F0.925467
sS'CONJ'
p460
F0.074533
s(lp461
(g7
I0
tp462
atp463
a(S'ist'
p464
(dp465
S'VERB'
p466
F1.0
s(lp467
(g49
I5
tp468
atp469
a(S'dieses'
p470
(dp471
S'PRON'
p472
F1.0
s(lp473
(g29
I3
tp474
atp475
a(S'theater'
p476
(dp477
S'ADJ'
p478
F0.120491
sS'NOUN'
p479
F0.859054
s(lp480
(g36
I4
tp481
atp482
a(S'-'
p483
(dp484
g12
F1.0
s(lp485
(g10
I8
tp486
atp487
a(S'wie'
p488
(dp489
S'CONJ'
p490
F0.999049
s(lp491
(g77
I9
tp492
atp493
a(S'gesagt'
p494
(dp495
S'VERB'
p496
F0.921563
sS'ADJ'
p497
F0.078437
s(lp498
tp499
a(g483
(dp500
g12
F1.0
s(lp501
(g105
I11
tp502
atp503
a(S'eine'
p504
(dp505
S'PRON'
p506
F6.6e-05
sS'DET'
p507
F0.999862
s(lp508
(g58
I6
tp509
atp510
a(S'trag\xc3\xb6die'
p511
(dp512
S'ADJ'
p513
F0.000215
sS'NOUN'
p514
F0.999709
s(lp515
(g65
I7
tp516
atp517
a(g108
(dp518
g12
F1.0
s(lp519
(g111
I12
tp520
atp521
a(S'einige'
p522
(dp523
S'PRON'
p524
F0.9996889999999999
s(lp525
(g119
I13
tp526
atp527
a(S'tausend'
p528
(dp529
S'NUM'
p530
F1.0
s(lp531
(g126
I14
tp532
atp533
a(S'menschen'
p534
(dp535
S'ADJ'
p536
F1.0
s(lp537
(g138
I15
tp538
atp539
a(S'sind'
p540
(dp541
S'VERB'
p542
F1.0
s(lp543
(g268
I17
tp544
atp545
a(S'immer'
p546
(dp547
S'ADV'
p548
F1.0
s(lp549
tp550
a(S'noch'
p551
(dp552
S'ADV'
p553
F0.996931
sS'CONJ'
p554
F0.003069
s(lp555
(g152
I18
tp556
atp557
a(S'im'
p558
(dp559
S'ADP'
p560
F1.0
s(lp561
(g160
I19
tp562
atp563
a(S'gef\xc3\xa4ngnis'
p564
(dp565
S'ADJ'
p566
F5.7e-05
sS'NOUN'
p567
F0.99989
s(lp568
(g167
I20
tp569
atp570
a(g12
(dp571
g12
F1.0
s(lp572
(g12
I21
tp573
atp574
asS'it'
p575
(lp576
(S'dietro'
p577
(dp578
S'ADV'
p579
F0.95398
sS'ADP'
p580
F0.04602
s(lp581
tp582
a(g58
(dp583
S'CONJ'
p584
F0.000999
sS'ADP'
p585
F0.999001
s(lp586
(g22
I2
tp587
atp588
a(S'questa'
p589
(dp590
S'PRON'
p591
F1.0
s(lp592
(g29
I3
tp593
atp594
a(S'messa'
p595
(dp596
S'ADJ'
p597
F0.052815
sS'VERB'
p598
F0.776678
sS'NOUN'
p599
F0.170507
s(lp600
(g36
I4
tp601
atp602
a(S'in'
p603
(dp604
S'ADP'
p605
F1.0
s(lp606
tp607
a(S'scena'
p608
(dp609
S'NOUN'
p610
F1.0
s(lp611
(g36
I4
tp612
atp613
a(S'si'
p614
(dp615
S'PRON'
p616
F0.999997
sS'NOUN'
p617
F3e-06
s(lp618
tp619
a(S'sta'
p620
(dp621
S'VERB'
p622
F1.0
s(lp623
(g49
I5
tp624
atp625
a(S'per\xc3\xb2'
p626
(dp627
S'ADV'
p628
F1.0
s(lp629
(g7
I0
tp630
atp631
a(S'purtroppo'
p632
(dp633
S'ADV'
p634
F1.0
s(lp635
tp636
a(S'svolgendo'
p637
(dp638
S'VERB'
p639
F1.0
s(lp640
(g36
I4
tp641
atp642
a(S'una'
p643
(dp644
S'PRON'
p645
F4.8e-05
sS'DEF'
p646
F0.999952
s(lp647
(g58
I6
tp648
atp649
a(S'tragedia'
p650
(dp651
S'NOUN'
p652
F1.0
s(lp653
(g65
I7
tp654
atp655
a(g108
(dp656
g12
F1.0
s(lp657
(g10
I8
tp658
atp659
a(S'come'
p660
(dp661
S'PRON'
p662
F0.238172
sS'CONJ'
p663
F0.755332
sS'NOUN'
p664
F0.000142
sS'ADP'
p665
F0.006355
s(lp666
(g77
I9
tp667
atp668
a(S'abbiamo'
p669
(dp670
S'VERB'
p671
F1.0
s(lp672
(g96
I10
tp673
atp674
a(S'gi\xc3\xa0'
p675
(dp676
S'ADV'
p677
F1.0
s(lp678
tp679
a(S'detto'
p680
(dp681
S'NOUN'
p682
F0.002529
sS'VERB'
p683
F0.9948699999999999
sS'ADJ'
p684
F0.002601
s(lp685
(g105
I11
tp686
atp687
a(g10
(dp688
g12
F1.0
s(lp689
(g111
I12
tp690
atp691
a(S'molte'
p692
(dp693
S'PRON'
p694
F0.731942
sS'VERB'
p695
F0.001483
sS'ADJ'
p696
F0.266576
s(lp697
(g119
I13
tp698
atp699
a(S'migliaia'
p700
(dp701
S'NOUN'
p702
F1.0
s(lp703
tp704
a(S'di'
p705
(dp706
S'CONJ'
p707
F4e-06
sS'ADP'
p708
F0.999996
s(lp709
(g126
I14
tp710
atp711
a(S'persone'
p712
(dp713
S'NOUN'
p714
F1.0
s(lp715
(g138
I15
tp716
atp717
a(S'sono'
p718
(dp719
S'VERB'
p720
F0.999807
sS'NOUN'
p721
F0.000193
s(lp722
(g268
I17
tp723
atp724
a(S'ancora'
p725
(dp726
S'ADV'
p727
F0.99371
sS'VERB'
p728
F0.005955
sS'NOUN'
p729
F0.000336
s(lp730
(g152
I18
tp731
atp732
a(S'in'
p733
(dp734
S'ADP'
p735
F1.0
s(lp736
(g160
I19
tp737
atp738
a(S'carcere'
p739
(dp740
S'NOUN'
p741
F1.0
s(lp742
(g167
I20
tp743
atp744
a(g12
(dp745
g12
F1.0
s(lp746
(g12
I21
tp747
atp748
asS'sk'
p749
(lp750
(S'za'
p751
(dp752
S'X'
p753
F0.000106
sS'ADP'
p754
F0.999893
sS'PRT'
p755
F1e-06
s(lp756
(g22
I2
tp757
atp758
a(S't\xc3\xbdmto'
p759
(dp760
S'PRON'
p761
F1.0
s(lp762
(g29
I3
tp763
atp764
a(S'divadlom'
p765
(dp766
S'NOUN'
p767
F1.0
s(lp768
(g36
I4
tp769
atp770
a(S'sa'
p771
(dp772
S'PRT'
p773
F0.999872
sS'ADP'
p774
F7e-06
sg753
F0.000121
s(lp775
tp776
a(S'v\xc5\xa1ak'
p777
(dp778
g753
F0.987836
sS'CONJ'
p779
F0.012163
s(lp780
(g7
I0
tp781
atp782
a(S'skr\xc3\xbdva'
p783
(dp784
S'VERB'
p785
F1.0
s(lp786
(g49
I5
tp787
atp788
a(S'trag\xc3\xa9dia'
p789
(dp790
S'NOUN'
p791
F1.0
s(lp792
(g65
I7
tp793
atp794
a(g10
(dp795
g12
F1.0
s(lp796
(g10
I8
tp797
atp798
a(S'ako'
p799
(dp800
S'PRON'
p801
F0.061898
sS'CONJ'
p802
F0.938017
sg753
F8.5e-05
s(lp803
(g77
I9
tp804
atp805
a(S'sme'
p806
(dp807
g753
F0.000219
sS'VERB'
p808
F0.999781
s(lp809
(g96
I10
tp810
atp811
a(S'u\xc5\xbe'
p812
(dp813
S'ADV'
p814
F0.447621
sg753
F0.5522050000000001
sS'CONJ'
p815
F0.000174
s(lp816
tp817
a(S'spomenuli'
p818
(dp819
S'VERB'
p820
F1.0
s(lp821
(g105
I11
tp822
atp823
a(g108
(dp824
g753
F4.8e-05
sg12
F0.999952
s(lp825
(g111
I12
tp826
atp827
a(S'nieko\xc4\xbeko'
p828
(dp829
S'PRON'
p830
F1.0
s(lp831
(g119
I13
tp832
atp833
a(S'tis\xc3\xadc'
p834
(dp835
g753
F0.000118
sS'NUM'
p836
F0.999882
s(lp837
(g126
I14
tp838
atp839
a(S'\xc4\xbeud\xc3\xad'
p840
(dp841
S'NOUN'
p842
F1.0
s(lp843
(g138
I15
tp844
atp845
a(S'je'
p846
(dp847
g753
F8.999999999999999e-05
sS'VERB'
p848
F0.999863
sS'PRON'
p849
F4.8e-05
s(lp850
(g268
I17
tp851
atp852
a(S'st\xc3\xa1le'
p853
(dp854
S'ADV'
p855
F0.997347
sg753
F0.000583
sS'ADJ'
p856
F0.0020700000000000002
s(lp857
(g152
I18
tp858
atp859
a(S'vo'
p860
(dp861
S'ADP'
p862
F1.0
s(lp863
(g160
I19
tp864
atp865
a(S'v\xc3\xa4zen\xc3\xad'
p866
(dp867
S'NOUN'
p868
F1.0
s(lp869
(g167
I20
tp870
atp871
a(g12
(dp872
g12
F1.0
s(lp873
(g12
I21
tp874
atp875
asS'pl'
p876
(lp877
(S'ale'
p878
(dp879
S'PRT'
p880
F0.007558
sS'CONJ'
p881
F0.99061
sS'NOUN'
p882
F0.001832
s(lp883
(g7
I0
tp884
atp885
a(S'za'
p886
(dp887
S'PRT'
p888
F0.020865
sS'VERB'
p889
F0.000419
sS'NOUN'
p890
F9e-06
sS'ADP'
p891
F0.978708
sg753
F1e-06
s(lp892
(g22
I2
tp893
atp894
a(S'tym'
p895
(dp896
S'ADV'
p897
F0.000224
sS'NOUN'
p898
F0.002774
sS'CONJ'
p899
F3.6e-05
sS'ADJ'
p900
F0.996964
sS'PRT'
p901
F3e-06
s(lp902
(g29
I3
tp903
atp904
a(S'teatrem'
p905
(dp906
S'NOUN'
p907
F1.0
s(lp908
tp909
a(S'stoj\xc4\x85'
p910
(dp911
S'VERB'
p912
F1.0
s(lp913
(g36
I4
tp914
atp915
a(S'tragedie'
p916
(dp917
S'NOUN'
p918
F1.0
s(lp919
(g65
I7
tp920
atp921
a(g10
(dp922
g753
F0.0
sg12
F1.0
s(lp923
(g10
I8
tp924
atp925
a(S'jak'
p926
(dp927
S'ADV'
p928
F0.7468049999999999
sS'PRT'
p929
F0.003783
sS'CONJ'
p930
F0.119317
sS'ADP'
p931
F0.130055
sS'PRON'
p932
F4e-05
s(lp933
(g77
I9
tp934
atp935
a(S'powiedzieli\xc5\x9bmy'
p936
(dp937
S'ADV'
p938
F0.006408
sS'ADJ'
p939
F0.05083299999999999
sS'VERB'
p940
F0.727349
sS'NOUN'
p941
F0.215409
s(lp942
(g105
I11
tp943
atp944
a(g10
(dp945
g753
F0.0
sg12
F1.0
s(lp946
(g111
I12
tp947
atp948
a(S'paru'
p949
(dp950
S'NUM'
p951
F1.0
s(lp952
(g119
I13
tp953
atp954
a(S'tysi\xc4\x99cy'
p955
(dp956
S'NOUN'
p957
F1.0
s(lp958
(g126
I14
tp959
atp960
a(S'ludzi'
p961
(dp962
S'NOUN'
p963
F1.0
s(lp964
(g138
I15
tp965
atp966
a(g10
(dp967
g753
F0.0
sg12
F1.0
s(lp968
tp969
a(S'kt\xc3\xb3rzy'
p970
(dp971
S'ADJ'
p972
F1.0
s(lp973
(g145
I16
tp974
atp975
a(S'dalej'
p976
(dp977
S'ADV'
p978
F0.999604
sg753
F0.000396
s(lp979
(g152
I18
tp980
atp981
a(S's\xc4\x85'
p982
(dp983
S'VERB'
p984
F1.0
s(lp985
(g268
I17
tp986
atp987
a(S'w'
p988
(dp989
S'ADJ'
p990
F0.0
sg753
F0.0
sS'NOUN'
p991
F0.0
sS'ADP'
p992
F1.0
s(lp993
(g160
I19
tp994
atp995
a(S'wi\xc4\x99zieniach'
p996
(dp997
S'NOUN'
p998
F1.0
s(lp999
(g167
I20
tp1000
atp1001
a(g12
(dp1002
g12
F1.0
s(lp1003
(g12
I21
tp1004
atp1005
asS'sl'
p1006
(lp1007
(S'vendar'
p1008
(dp1009
S'ADV'
p1010
F0.12075
sS'CONJ'
p1011
F0.87925
s(lp1012
tp1013
a(S'pa'
p1014
(dp1015
g753
F0.000463
sS'CONJ'
p1016
F0.999537
s(lp1017
(g7
I0
tp1018
atp1019
a(S'je'
p1020
(dp1021
S'PRON'
p1022
F0.005971
sS'VERB'
p1023
F0.994026
sg753
F4e-06
s(lp1024
(g49
I5
tp1025
atp1026
a(S'v'
p1027
(dp1028
S'ADP'
p1029
F1.0
s(lp1030
(g58
I6
tp1031
atp1032
a(S'ozadju'
p1033
(dp1034
S'NOUN'
p1035
F1.0
s(lp1036
(g22
I2
tp1037
atp1038
a(S'te'
p1039
(dp1040
S'PRON'
p1041
F1.0
s(lp1042
(g29
I3
tp1043
atp1044
a(S'igre'
p1045
(dp1046
S'NOUN'
p1047
F0.9999999999999999
s(lp1048
(g36
I4
tp1049
atp1050
a(S'tragedija'
p1051
(dp1052
S'NOUN'
p1053
F1.0
s(lp1054
(g65
I7
tp1055
atp1056
a(g10
(dp1057
g12
F1.0
s(lp1058
(g10
I8
tp1059
atp1060
a(S'saj'
p1061
(dp1062
S'CONJ'
p1063
F1.0
s(lp1064
(g77
I9
tp1065
atp1066
a(S'je'
p1067
(dp1068
S'PRON'
p1069
F0.023201
sS'VERB'
p1070
F0.976773
sg753
F2.6e-05
s(lp1071
tp1072
a(g10
(dp1073
g12
F1.0
s(lp1074
tp1075
a(S'kot'
p1076
(dp1077
S'CONJ'
p1078
F0.99999
sS'NOUN'
p1079
F9.999999999999999e-06
s(lp1080
tp1081
a(S'smo'
p1082
(dp1083
g753
F0.0
sS'VERB'
p1084
F1.0
s(lp1085
(g96
I10
tp1086
atp1087
a(S'omenili'
p1088
(dp1089
S'VERB'
p1090
F1.0
s(lp1091
(g105
I11
tp1092
atp1093
a(g10
(dp1094
g12
F1.0
s(lp1095
(g111
I12
tp1096
atp1097
a(S've\xc4\x8d'
p1098
(dp1099
S'ADV'
p1100
F0.819828
sS'PRT'
p1101
F0.180172
s(lp1102
(g119
I13
tp1103
atp1104
a(S'tiso\xc4\x8d'
p1105
(dp1106
S'NUM'
p1107
F1.0
s(lp1108
(g126
I14
tp1109
atp1110
a(S'ljudi'
p1111
(dp1112
g753
F1.1e-05
sS'NOUN'
p1113
F0.999989
s(lp1114
(g138
I15
tp1115
atp1116
a(S'\xc5\xa1e'
p1117
(dp1118
S'PRT'
p1119
F1.0
s(lp1120
tp1121
a(S'vedno'
p1122
(dp1123
S'ADV'
p1124
F1.0
s(lp1125
(g152
I18
tp1126
atp1127
a(S'zaprtih'
p1128
(dp1129
S'ADJ'
p1130
F1.0
s(lp1131
(g167
I20
tp1132
atp1133
a(g12
(dp1134
g12
F1.0
s(lp1135
(g12
I21
tp1136
atp1137
asS'es'
p1138
(lp1139
(S'sin'
p1140
(dp1141
S'ADV'
p1142
F1.0
s(lp1143
tp1144
a(S'embargo'
p1145
(dp1146
S'ADV'
p1147
F1.0
s(lp1148
(g7
I0
tp1149
atp1150
a(g10
(dp1151
g12
F1.0
s(lp1152
(g10
I1
tp1153
atp1154
a(S'detr\xc3\xa1s'
p1155
(dp1156
S'ADV'
p1157
F1.0
s(lp1158
tp1159
a(S'de'
p1160
(dp1161
g753
F0.0
sS'CONJ'
p1162
F0.00017
sS'ADP'
p1163
F0.99983
s(lp1164
(g22
I2
tp1165
atp1166
a(S'esta'
p1167
(dp1168
S'PRON'
p1169
F1.0
sS'VERB'
p1170
F0.0
s(lp1171
(g29
I3
tp1172
atp1173
a(S'obra'
p1174
(dp1175
S'VERB'
p1176
F0.011701
sS'NOUN'
p1177
F0.988299
s(lp1178
(g36
I4
tp1179
atp1180
a(S'de'
p1181
(dp1182
g753
F2.9e-05
sS'CONJ'
p1183
F0.000452
sS'ADP'
p1184
F0.999519
s(lp1185
tp1186
a(S'teatro'
p1187
(dp1188
S'NOUN'
p1189
F1.0
s(lp1190
tp1191
a(S'se'
p1192
(dp1193
S'PRON'
p1194
F1.0
sS'VERB'
p1195
F0.0
s(lp1196
tp1197
a(S'esconde'
p1198
(dp1199
S'VERB'
p1200
F1.0
s(lp1201
(g49
I5
tp1202
atp1203
a(S'una'
p1204
(dp1205
S'DET'
p1206
F1.0
s(lp1207
(g58
I6
tp1208
atp1209
a(S'tragedia'
p1210
(dp1211
S'NOUN'
p1212
F1.0
s(lp1213
(g65
I7
tp1214
atp1215
a(g10
(dp1216
g12
F1.0
s(lp1217
(g10
I8
tp1218
atp1219
a(S'como'
p1220
(dp1221
S'ADV'
p1222
F0.287055
sS'CONJ'
p1223
F0.7129439999999999
s(lp1224
tp1225
a(S'ya'
p1226
(dp1227
S'ADV'
p1228
F1.0
s(lp1229
(g77
I9
tp1230
atp1231
a(S'hemos'
p1232
(dp1233
S'VERB'
p1234
F1.0
s(lp1235
(g96
I10
tp1236
atp1237
a(S'se\xc3\xb1alado'
p1238
(dp1239
S'VERB'
p1240
F1.0
s(lp1241
(g105
I11
tp1242
atp1243
a(g10
(dp1244
g12
F1.0
s(lp1245
(g111
I12
tp1246
atp1247
a(S'que'
p1248
(dp1249
g753
F5e-06
sS'CONJ'
p1250
F0.999995
s(lp1251
tp1252
a(S'afecta'
p1253
(dp1254
S'VERB'
p1255
F0.999992
sS'ADJ'
p1256
F8e-06
s(lp1257
(g36
I4
tp1258
atp1259
a(g58
(dp1260
g753
F3e-06
sS'CONJ'
p1261
F4.1e-05
sS'ADP'
p1262
F0.999956
s(lp1263
tp1264
a(S'varios'
p1265
(dp1266
S'ADJ'
p1267
F1.0
s(lp1268
(g119
I13
tp1269
atp1270
a(S'miles'
p1271
(dp1272
S'NOUN'
p1273
F1.0
s(lp1274
(g126
I14
tp1275
atp1276
a(S'de'
p1277
(dp1278
g753
F2.9e-05
sS'CONJ'
p1279
F0.000449
sS'ADP'
p1280
F0.999522
s(lp1281
tp1282
a(S'personas'
p1283
(dp1284
S'NOUN'
p1285
F1.0
s(lp1286
(g138
I15
tp1287
atp1288
a(S'que'
p1289
(dp1290
g753
F3e-06
sS'CONJ'
p1291
F0.999997
s(lp1292
(g145
I16
tp1293
atp1294
a(S'siguen'
p1295
(dp1296
S'VERB'
p1297
F1.0
s(lp1298
(g152
I18
tp1299
atp1300
a(S'en'
p1301
(dp1302
g753
F8e-06
sS'CONJ'
p1303
F1.4e-05
sS'ADP'
p1304
F0.999977
s(lp1305
(g160
I19
tp1306
atp1307
a(S'prisi\xc3\xb3n'
p1308
(dp1309
S'NOUN'
p1310
F1.0
s(lp1311
(g167
I20
tp1312
atp1313
a(g12
(dp1314
g12
F1.0
s(lp1315
(g12
I21
tp1316
atp1317
as.