(dp0
S'fr'
p1
(lp2
(S'le'
p3
(dp4
S'PRON'
p5
F0.000439
sS'DET'
p6
F0.999561
s(lp7
(S'the'
p8
I0
tp9
atp10
a(S'probl\xc3\xa8me'
p11
(dp12
S'NOUN'
p13
F1.0
s(lp14
(S'issue'
p15
I1
tp16
atp17
a(S'des'
p18
(dp19
S'DET'
p20
F2.1e-05
sS'ADP'
p21
F0.999979
s(lp22
(S'of'
p23
I2
tp24
atp25
a(S'biens'
p26
(dp27
S'NOUN'
p28
F1.0
s(lp29
(S'property'
p30
I6
tp31
atp32
a(S'thraciens'
p33
(dp34
S'ADJ'
p35
F0.311676
sS'NOUN'
p36
F0.688324
s(lp37
(S'thracian'
p38
I5
tp39
atp40
a(S'saisis'
p41
(dp42
S'VERB'
p43
F0.6434
sS'ADJ'
p44
F0.3566
s(lp45
(S'seized'
p46
I4
tp47
atp48
a(S'a'
p49
(dp50
S'VERB'
p51
F1.0
s(lp52
(S'has'
p53
I7
tp54
atp55
a(S'\xc3\xa9t\xc3\xa9'
p56
(dp57
S'VERB'
p58
F0.986206
sS'NOUN'
p59
F0.013794
s(lp60
(S'been'
p61
I8
tp62
atp63
a(S'abord\xc3\xa9'
p64
(dp65
S'VERB'
p66
F1.0
s(lp67
(S'discussed'
p68
I9
tp69
atp70
a(S'en'
p71
(dp72
S'PRON'
p73
F0.001227
sS'ADP'
p74
F0.998773
s(lp75
(S'on'
p76
I10
tp77
atp78
a(S'de'
p79
(dp80
S'ADP'
p81
F1.0
s(lp82
tp83
a(S'nombreuses'
p84
(dp85
S'ADJ'
p86
F1.0
s(lp87
(S'numerous'
p88
I11
tp89
atp90
a(S'occasions'
p91
(dp92
S'NOUN'
p93
F1.0
s(lp94
(S'occasions'
p95
I12
tp96
atp97
a(S'par'
p98
(dp99
S'NOUN'
p100
F0.0
sS'ADP'
p101
F1.0
s(lp102
(S'by'
p103
I13
tp104
atp105
a(S'les'
p106
(dp107
S'PRON'
p108
F3e-06
sS'DET'
p109
F0.999981
sS'ADP'
p110
F1.6e-05
s(lp111
tp112
a(S'deux'
p113
(dp114
S'NUM'
p115
F0.999934
sS'NOUN'
p116
F6.6e-05
s(lp117
(S'both'
p118
I14
tp119
atp120
a(S'pays'
p121
(dp122
S'NOUN'
p123
F1.0
s(lp124
(S'countries'
p125
I15
tp126
atp127
a(S','
p128
(dp129
S'.'
p130
F1.0
s(lp131
(g128
I16
tp132
atp133
a(S'y'
p134
(dp135
S'PRON'
p136
F1.0
s(lp137
tp138
a(S'compris'
p139
(dp140
S'VERB'
p141
F1.0
s(lp142
(S'including'
p143
I17
tp144
atp145
a(S'au'
p146
(dp147
S'ADP'
p148
F1.0
s(lp149
(S'at'
p150
I18
tp151
atp152
a(S'plus'
p153
(dp154
S'ADV'
p155
F0.99998
sS'VERB'
p156
F2e-05
s(lp157
tp158
a(S'haut'
p159
(dp160
S'ADV'
p161
F0.127988
sS'NOUN'
p162
F0.000523
sS'ADJ'
p163
F0.871488
s(lp164
(S'highest'
p165
I20
tp166
atp167
a(S'niveau'
p168
(dp169
S'NOUN'
p170
F1.0
s(lp171
(S'level'
p172
I21
tp173
atp174
a(S'et'
p175
(dp176
S'CONJ'
p177
F1.0
s(lp178
(S'and'
p179
I22
tp180
atp181
a(S'dans'
p182
(dp183
S'NOUN'
p184
F2e-05
sS'ADP'
p185
F0.99998
s(lp186
(S'in'
p187
I23
tp188
atp189
a(S'le'
p190
(dp191
S'PRON'
p192
F0.000663
sS'DET'
p193
F0.999337
s(lp194
(S'the'
p195
I3
tp196
atp197
a(S'cadre'
p198
(dp199
S'VERB'
p200
F0.000645
sS'NOUN'
p201
F0.999355
s(lp202
(S'working'
p203
I24
tp204
atp205
a(S'de'
p206
(dp207
S'ADP'
p208
F1.0
s(lp209
tp210
a(S'groupes'
p211
(dp212
S'VERB'
p213
F8.6e-05
sS'NOUN'
p214
F0.999914
s(lp215
(S'groups'
p216
I25
tp217
atp218
a(S'de'
p219
(dp220
S'ADP'
p221
F1.0
s(lp222
tp223
a(S'travail'
p224
(dp225
S'NOUN'
p226
F1.0
s(lp227
(g203
I24
tp228
atp229
a(g128
(dp230
g130
F1.0
s(lp231
(g128
I26
tp232
atp233
a(S'mais'
p234
(dp235
S'CONJ'
p236
F1.0
s(lp237
(S'but'
p238
I27
tp239
atp240
a(S'sans'
p241
(dp242
S'CONJ'
p243
F0.050064
sS'ADP'
p244
F0.949936
s(lp245
(S'without'
p246
I28
tp247
atp248
a(S'le'
p249
(dp250
S'PRON'
p251
F0.000248
sS'DET'
p252
F0.999752
s(lp253
tp254
a(S'moindre'
p255
(dp256
S'ADJ'
p257
F1.0
s(lp258
(S'any'
p259
I29
tp260
atp261
a(S'r\xc3\xa9sultat'
p262
(dp263
S'NOUN'
p264
F1.0
s(lp265
(S'result'
p266
I30
tp267
atp268
a(g130
(dp269
g130
F1.0
s(lp270
(g130
I31
tp271
atp272
asS'en'
p273
(lp274
(g8
(dp275
S'NOUN'
p276
F5e-06
sS'DET'
p277
F0.999995
s(lp278
(g8
I0
tp279
atp280
a(g15
(dp281
S'VERB'
p282
F0.000203
sS'NOUN'
p283
F0.999797
s(lp284
(g15
I1
tp285
atp286
a(g23
(dp287
S'ADP'
p288
F1.0
s(lp289
(g23
I2
tp290
atp291
a(g195
(dp292
S'NOUN'
p293
F1.9e-05
sS'DET'
p294
F0.999981
s(lp295
(g195
I3
tp296
atp297
a(g46
(dp298
S'VERB'
p299
F1.0
s(lp300
(g46
I4
tp301
atp302
a(g38
(dp303
S'NOUN'
p304
F0.194971
sS'ADJ'
p305
F0.80503
s(lp306
(g38
I5
tp307
atp308
a(g30
(dp309
S'NOUN'
p310
F1.0
s(lp311
(g30
I6
tp312
atp313
a(g53
(dp314
S'VERB'
p315
F1.0
s(lp316
(g53
I7
tp317
atp318
a(g61
(dp319
S'VERB'
p320
F1.0
s(lp321
(g61
I8
tp322
atp323
a(g68
(dp324
S'VERB'
p325
F1.0
s(lp326
(g68
I9
tp327
atp328
a(g76
(dp329
S'ADV'
p330
F0.003157
sS'PRT'
p331
F0.006565
sS'ADJ'
p332
F2e-06
sS'ADP'
p333
F0.990275
sS'NOUN'
p334
F0.0
s(lp335
(g76
I10
tp336
atp337
a(g88
(dp338
S'ADJ'
p339
F1.0
s(lp340
(g88
I11
tp341
atp342
a(g95
(dp343
S'VERB'
p344
F1.8e-05
sS'NOUN'
p345
F0.999982
s(lp346
(g95
I12
tp347
atp348
a(g103
(dp349
S'ADV'
p350
F0.000118
sS'NOUN'
p351
F0.0
sS'ADP'
p352
F0.999882
s(lp353
(g103
I13
tp354
atp355
a(g118
(dp356
S'CONJ'
p357
F0.01111
sS'DET'
p358
F0.98889
s(lp359
(g118
I14
tp360
atp361
a(g125
(dp362
S'NOUN'
p363
F1.0
s(lp364
(g125
I15
tp365
atp366
a(g128
(dp367
g130
F1.0
s(lp368
(g128
I16
tp369
atp370
a(g143
(dp371
S'VERB'
p372
F1.0
s(lp373
(g143
I17
tp374
atp375
a(g150
(dp376
S'NOUN'
p377
F1e-06
sS'ADP'
p378
F0.999998
s(lp379
(g150
I18
tp380
atp381
a(S'the'
p382
(dp383
S'NOUN'
p384
F0.0
sS'DET'
p385
F1.0
s(lp386
(g382
I19
tp387
atp388
a(g165
(dp389
S'ADV'
p390
F0.002586
sS'ADJ'
p391
F0.997414
s(lp392
(g165
I20
tp393
atp394
a(g172
(dp395
S'ADJ'
p396
F0.012322
sS'VERB'
p397
F0.0018700000000000001
sS'NOUN'
p398
F0.985808
s(lp399
(g172
I21
tp400
atp401
a(g179
(dp402
S'CONJ'
p403
F0.999998
sS'NOUN'
p404
F2e-06
s(lp405
(g179
I22
tp406
atp407
a(g187
(dp408
S'ADV'
p409
F0.004866
sS'PRT'
p410
F1.5e-05
sS'ADP'
p411
F0.995119
s(lp412
(g187
I23
tp413
atp414
a(g203
(dp415
S'NOUN'
p416
F0.051149
sS'VERB'
p417
F0.792791
sS'ADJ'
p418
F0.15606
s(lp419
(g203
I24
tp420
atp421
a(g216
(dp422
S'VERB'
p423
F1.2e-05
sS'NOUN'
p424
F0.999988
s(lp425
(g216
I25
tp426
atp427
a(g128
(dp428
g130
F1.0
s(lp429
(g128
I26
tp430
atp431
a(g238
(dp432
S'ADV'
p433
F0.009284
sS'CONJ'
p434
F0.990709
sS'NOUN'
p435
F7e-06
s(lp436
(g238
I27
tp437
atp438
a(g246
(dp439
S'ADP'
p440
F1.0
s(lp441
(g246
I28
tp442
atp443
a(g259
(dp444
S'ADV'
p445
F7.9e-05
sS'DET'
p446
F0.999921
s(lp447
(g259
I29
tp448
atp449
a(g266
(dp450
S'VERB'
p451
F0.0006050000000000001
sS'NOUN'
p452
F0.999395
s(lp453
(g266
I30
tp454
atp455
a(g130
(dp456
g130
F1.0
s(lp457
(g130
I31
tp458
atp459
asS'nl'
p460
(lp461
(S'de'
p462
(dp463
S'DET'
p464
F1.0
s(lp465
(g8
I0
tp466
atp467
a(S'kwestie'
p468
(dp469
S'NOUN'
p470
F1.0
s(lp471
(g15
I1
tp472
atp473
a(S'van'
p474
(dp475
S'ADP'
p476
F1.0
s(lp477
(g23
I2
tp478
atp479
a(S'het'
p480
(dp481
S'PRON'
p482
F0.065903
sS'DET'
p483
F0.934097
s(lp484
(g195
I3
tp485
atp486
a(S'in'
p487
(dp488
S'ADV'
p489
F0.001479
sS'VERB'
p490
F0.0
sS'ADP'
p491
F0.998521
s(lp492
(g46
I4
tp493
atp494
a(S'beslag'
p495
(dp496
S'NOUN'
p497
F1.0
s(lp498
tp499
a(S'genomen'
p500
(dp501
S'VERB'
p502
F0.987044
sS'ADJ'
p503
F0.012956
s(lp504
(g46
I4
tp505
atp506
a(S'thracische'
p507
(dp508
S'ADJ'
p509
F0.073597
sS'NOUN'
p510
F0.926403
s(lp511
tp512
a(S'onroerend'
p513
(dp514
S'ADJ'
p515
F1.0
s(lp516
(g38
I5
tp517
atp518
a(S'goed'
p519
(dp520
S'ADV'
p521
F0.000114
sS'ADJ'
p522
F0.047168
sS'NOUN'
p523
F0.952718
s(lp524
(g30
I6
tp525
atp526
a(S'is'
p527
(dp528
S'VERB'
p529
F1.0
s(lp530
(g53
I7
tp531
atp532
a(S'door'
p533
(dp534
S'ADV'
p535
F8e-06
sS'CONJ'
p536
F6.8e-05
sS'ADP'
p537
F0.999924
s(lp538
(g103
I13
tp539
atp540
a(S'de'
p541
(dp542
S'DET'
p543
F1.0
s(lp544
tp545
a(S'twee'
p546
(dp547
S'NUM'
p548
F1.0
s(lp549
(g118
I14
tp550
atp551
a(S'landen'
p552
(dp553
S'VERB'
p554
F0.00040899999999999997
sS'NOUN'
p555
F0.999591
s(lp556
(g125
I15
tp557
atp558
a(S'bij'
p559
(dp560
S'ADV'
p561
F0.063443
sS'NOUN'
p562
F1e-06
sS'ADJ'
p563
F1.7e-05
sS'ADP'
p564
F0.936539
s(lp565
(g76
I10
tp566
atp567
a(S'talrijke'
p568
(dp569
S'NOUN'
p570
F0.000252
sS'ADJ'
p571
F0.999748
s(lp572
(g88
I11
tp573
atp574
a(S'gelegenheden'
p575
(dp576
S'NOUN'
p577
F1.0
s(lp578
(g95
I12
tp579
atp580
a(S'besproken'
p581
(dp582
S'VERB'
p583
F1.0
s(lp584
(g68
I9
tp585
atp586
a(g128
(dp587
g130
F1.0
s(lp588
(g128
I16
tp589
atp590
a(S'ook'
p591
(dp592
S'ADV'
p593
F1.0
s(lp594
(g143
I17
tp595
atp596
a(S'op'
p597
(dp598
S'ADV'
p599
F0.013568
sS'ADJ'
p600
F0.0
sS'ADP'
p601
F0.986432
s(lp602
(g150
I18
tp603
atp604
a(S'het'
p605
(dp606
S'PRON'
p607
F0.005882
sS'DET'
p608
F0.994119
s(lp609
(g382
I19
tp610
atp611
a(S'hoogste'
p612
(dp613
S'NOUN'
p614
F5.8e-05
sS'ADJ'
p615
F0.999942
s(lp616
(g165
I20
tp617
atp618
a(S'niveau'
p619
(dp620
S'NOUN'
p621
F1.0
s(lp622
(g172
I21
tp623
atp624
a(S'en'
p625
(dp626
S'CONJ'
p627
F1.0
s(lp628
(g179
I22
tp629
atp630
a(S'in'
p631
(dp632
S'ADV'
p633
F0.014033
sS'VERB'
p634
F0.0
sS'ADP'
p635
F0.985967
s(lp636
(g187
I23
tp637
atp638
a(S'werkgroepen'
p639
(dp640
S'NOUN'
p641
F1.0
s(lp642
(g203
I24
tp643
atp644
a(g128
(dp645
g130
F1.0
s(lp646
(g128
I26
tp647
atp648
a(S'maar'
p649
(dp650
S'ADV'
p651
F0.09414
sS'CONJ'
p652
F0.905835
sS'NOUN'
p653
F2.5e-05
s(lp654
(g238
I27
tp655
atp656
a(S'zonder'
p657
(dp658
S'CONJ'
p659
F0.000334
sS'ADP'
p660
F0.999666
s(lp661
(g246
I28
tp662
atp663
a(S'enig'
p664
(dp665
S'PRON'
p666
F0.962096
sS'ADJ'
p667
F0.037904
s(lp668
(g259
I29
tp669
atp670
a(S'resultaat'
p671
(dp672
S'NOUN'
p673
F1.0
s(lp674
(g266
I30
tp675
atp676
a(g130
(dp677
g130
F1.0
s(lp678
(g130
I31
tp679
atp680
asS'de'
p681
(lp682
(S'die'
p683
(dp684
S'PRON'
p685
F0.948899
sS'DET'
p686
F0.040779
s(lp687
(g8
I0
tp688
atp689
a(S'frage'
p690
(dp691
S'VERB'
p692
F1.0
s(lp693
(g15
I1
tp694
atp695
a(S'des'
p696
(dp697
S'DET'
p698
F1.0
s(lp699
(g23
I2
tp700
atp701
a(S'eingezogenen'
p702
(dp703
S'ADJ'
p704
F1.0
s(lp705
(g46
I4
tp706
atp707
a(S'thrakischen'
p708
(dp709
S'ADJ'
p710
F1.0
s(lp711
(g38
I5
tp712
atp713
a(S'eigentums'
p714
(dp715
S'ADJ'
p716
F0.004288
sS'NOUN'
p717
F0.992454
s(lp718
(g30
I6
tp719
atp720
a(S'wurde'
p721
(dp722
S'VERB'
p723
F1.0
s(lp724
(g61
I8
tp725
atp726
a(S'wiederholt'
p727
(dp728
S'VERB'
p729
F0.056177
sS'ADJ'
p730
F0.943815
s(lp731
(g95
I12
tp732
atp733
a(S'von'
p734
(dp735
S'NOUN'
p736
F3e-05
sS'ADP'
p737
F0.99997
s(lp738
(g103
I13
tp739
atp740
a(S'den'
p741
(dp742
S'PRON'
p743
F0.00018
sS'DET'
p744
F0.999798
s(lp745
tp746
a(S'beiden'
p747
(dp748
S'PRON'
p749
F1.0
s(lp750
(g118
I14
tp751
atp752
a(S'l\xc3\xa4ndern'
p753
(dp754
S'ADJ'
p755
F0.181599
sS'NOUN'
p756
F0.808308
s(lp757
(g125
I15
tp758
atp759
a(S'er\xc3\xb6rtert'
p760
(dp761
S'VERB'
p762
F0.9999990000000001
s(lp763
(g68
I9
tp764
atp765
a(g128
(dp766
g130
F1.0
s(lp767
(g128
I16
tp768
atp769
a(S'sowohl'
p770
(dp771
S'CONJ'
p772
F1.0
s(lp773
(g143
I17
tp774
atp775
a(S'auf'
p776
(dp777
S'ADV'
p778
F9.6e-05
sS'ADP'
p779
F0.999903
s(lp780
(g150
I18
tp781
atp782
a(S'h\xc3\xb6chster'
p783
(dp784
S'ADJ'
p785
F1.0
s(lp786
(g165
I20
tp787
atp788
a(S'ebene'
p789
(dp790
S'ADJ'
p791
F1.0
s(lp792
(g172
I21
tp793
atp794
a(S'wie'
p795
(dp796
S'CONJ'
p797
F0.999749
s(lp798
(g179
I22
tp799
atp800
a(S'auch'
p801
(dp802
S'ADV'
p803
F1.0
s(lp804
tp805
a(S'in'
p806
(dp807
S'ADP'
p808
F1.0
s(lp809
(g187
I23
tp810
atp811
a(S'arbeitsgruppen'
p812
(dp813
S'ADJ'
p814
F0.14033
sS'NOUN'
p815
F0.727965
s(lp816
(g203
I24
tp817
atp818
a(g128
(dp819
g130
F1.0
s(lp820
(g128
I26
tp821
atp822
a(S'doch'
p823
(dp824
S'ADV'
p825
F0.001212
sS'CONJ'
p826
F0.998788
s(lp827
(g238
I27
tp828
atp829
a(S'ohne'
p830
(dp831
S'CONJ'
p832
F0.997591
sS'ADP'
p833
F0.002409
s(lp834
(g246
I28
tp835
atp836
a(S'erfolg'
p837
(dp838
S'VERB'
p839
F1.0
s(lp840
(g266
I30
tp841
atp842
a(g130
(dp843
g130
F1.0
s(lp844
(g130
I31
tp845
atp846
asS'it'
p847
(lp848
(S'il'
p849
(dp850
S'DET'
p851
F1.0
s(lp852
(g8
I0
tp853
atp854
a(S'problema'
p855
(dp856
S'NOUN'
p857
F1.0
s(lp858
(g15
I1
tp859
atp860
a(S'dei'
p861
(dp862
S'NOUN'
p863
F1e-06
sS'DEF'
p864
F0.001164
sS'ADP'
p865
F0.998835
s(lp866
(g23
I2
tp867
atp868
a(S'beni'
p869
(dp870
S'NOUN'
p871
F1.0
s(lp872
tp873
a(S'di'
p874
(dp875
S'CONJ'
p876
F4e-06
sS'ADP'
p877
F0.999996
s(lp878
tp879
a(S'propriet\xc3\xa0'
p880
(dp881
S'NOUN'
p882
F1.0
s(lp883
(g30
I6
tp884
atp885
a(S'confiscati'
p886
(dp887
S'VERB'
p888
F1.0
s(lp889
(g46
I4
tp890
atp891
a(S'in'
p892
(dp893
S'ADP'
p894
F1.0
s(lp895
tp896
a(S'tracia'
p897
(dp898
S'VERB'
p899
F0.7252190000000002
sS'NOUN'
p900
F0.27478
s(lp901
(g38
I5
tp902
atp903
a(S'\xc3\xa8'
p904
(dp905
S'VERB'
p906
F1.0
s(lp907
(g53
I7
tp908
atp909
a(S'stato'
p910
(dp911
S'VERB'
p912
F0.989171
sS'NOUN'
p913
F0.010829
s(lp914
(g61
I8
tp915
atp916
a(S'discusso'
p917
(dp918
S'VERB'
p919
F0.93953
sS'ADJ'
p920
F0.06047
s(lp921
(g68
I9
tp922
atp923
a(S'pi\xc3\xb9'
p924
(dp925
S'ADV'
p926
F0.996195
sS'NOUN'
p927
F3.6e-05
sS'ADJ'
p928
F0.002535
sS'ADP'
p929
F0.001234
s(lp930
(g88
I11
tp931
atp932
a(S'volte'
p933
(dp934
S'NOUN'
p935
F0.087373
sS'VERB'
p936
F0.641189
sS'ADJ'
p937
F0.271438
s(lp938
(g95
I12
tp939
atp940
a(S'da'
p941
(dp942
S'ADP'
p943
F1.0
s(lp944
(g103
I13
tp945
atp946
a(S'entrambi'
p947
(dp948
S'PRON'
p949
F0.167716
sS'ADJ'
p950
F0.832284
s(lp951
(g118
I14
tp952
atp953
a(S'i'
p954
(dp955
S'DET'
p956
F1.0
s(lp957
tp958
a(S'paesi'
p959
(dp960
S'NOUN'
p961
F1.0
s(lp962
(g125
I15
tp963
atp964
a(g128
(dp965
g130
F1.0
s(lp966
(g128
I16
tp967
atp968
a(S'anche'
p969
(dp970
S'ADV'
p971
F0.999721
sS'NOUN'
p972
F0.000279
s(lp973
(g143
I17
tp974
atp975
a(S'ai'
p976
(dp977
S'NOUN'
p978
F6e-06
sS'ADP'
p979
F0.999994
s(lp980
(g150
I18
tp981
atp982
a(S'livelli'
p983
(dp984
S'VERB'
p985
F6.6e-05
sS'NOUN'
p986
F0.999935
s(lp987
(g172
I21
tp988
atp989
a(S'pi\xc3\xb9'
p990
(dp991
S'ADV'
p992
F0.984758
sS'NOUN'
p993
F2.3e-05
sS'ADJ'
p994
F0.013843
sS'ADP'
p995
F0.001376
s(lp996
tp997
a(S'alti'
p998
(dp999
S'NOUN'
p1000
F0.044432
sS'ADJ'
p1001
F0.955568
s(lp1002
(g165
I20
tp1003
atp1004
a(S'e'
p1005
(dp1006
S'CONJ'
p1007
F1.0
s(lp1008
(g179
I22
tp1009
atp1010
a(S"all'"
p1011
(dp1012
S'ADJ'
p1013
F0.006467
sS'VERB'
p1014
F0.11863800000000001
sS'NOUN'
p1015
F0.874895
s(lp1016
(g195
I3
tp1017
atp1018
a(S'interno'
p1019
(dp1020
S'ADJ'
p1021
F0.375641
sS'VERB'
p1022
F0.0019
sS'NOUN'
p1023
F0.62246
s(lp1024
(g187
I23
tp1025
atp1026
a(S'di'
p1027
(dp1028
S'CONJ'
p1029
F4e-06
sS'ADP'
p1030
F0.999996
s(lp1031
tp1032
a(S'gruppi'
p1033
(dp1034
S'NOUN'
p1035
F1.0
s(lp1036
(g216
I25
tp1037
atp1038
a(S'di'
p1039
(dp1040
S'CONJ'
p1041
F4e-06
sS'ADP'
p1042
F0.999996
s(lp1043
tp1044
a(S'lavoro'
p1045
(dp1046
S'VERB'
p1047
F6e-06
sS'NOUN'
p1048
F0.999994
s(lp1049
(g203
I24
tp1050
atp1051
a(g128
(dp1052
g130
F1.0
s(lp1053
(g128
I26
tp1054
atp1055
a(S'senza'
p1056
(dp1057
S'CONJ'
p1058
F0.835231
sS'ADP'
p1059
F0.164769
s(lp1060
(g246
I28
tp1061
atp1062
a(S'per\xc3\xb2'
p1063
(dp1064
S'ADV'
p1065
F1.0
s(lp1066
(g238
I27
tp1067
atp1068
a(S'alcun'
p1069
(dp1070
S'PRON'
p1071
F0.791328
sS'ADJ'
p1072
F0.208672
s(lp1073
(g259
I29
tp1074
atp1075
a(S'risultato'
p1076
(dp1077
S'VERB'
p1078
F0.151169
sS'NOUN'
p1079
F0.848831
s(lp1080
(g266
I30
tp1081
atp1082
a(g130
(dp1083
g130
F1.0
s(lp1084
(g130
I31
tp1085
atp1086
asS'sk'
p1087
(lp1088
(S'o'
p1089
(dp1090
S'X'
p1091
F0.001131
sS'CONJ'
p1092
F4.7e-05
sS'NOUN'
p1093
F1.6e-05
sS'ADP'
p1094
F0.998807
s(lp1095
(g8
I0
tp1096
atp1097
a(S'problematike'
p1098
(dp1099
S'NOUN'
p1100
F1.0
s(lp1101
(g15
I1
tp1102
atp1103
a(S'skonfi\xc5\xa1kovan\xc3\xa9ho'
p1104
(dp1105
S'NOUN'
p1106
F0.002933
sS'VERB'
p1107
F0.09369700000000002
sS'ADJ'
p1108
F0.90337
s(lp1109
tp1110
a(S'majetku'
p1111
(dp1112
S'NOUN'
p1113
F1.0
s(lp1114
(g30
I6
tp1115
atp1116
a(S'tr\xc3\xa1kov'
p1117
(dp1118
S'ADJ'
p1119
F0.000154
sS'NOUN'
p1120
F0.999846
s(lp1121
(g38
I5
tp1122
atp1123
a(S'diskutovali'
p1124
(dp1125
S'VERB'
p1126
F1.0
s(lp1127
(g68
I9
tp1128
atp1129
a(S'obe'
p1130
(dp1131
S'NUM'
p1132
F1.0
s(lp1133
(g118
I14
tp1134
atp1135
a(S'krajiny'
p1136
(dp1137
S'NOUN'
p1138
F1.0
s(lp1139
(g125
I15
tp1140
atp1141
a(S'pri'
p1142
(dp1143
g1091
F0.0
sS'VERB'
p1144
F0.0
sS'ADP'
p1145
F1.0
s(lp1146
(g76
I10
tp1147
atp1148
a(S'mnoh\xc3\xbdch'
p1149
(dp1150
g1091
F5e-06
sS'NUM'
p1151
F0.999995
s(lp1152
(g88
I11
tp1153
atp1154
a(S'pr\xc3\xadle\xc5\xbeitostiach'
p1155
(dp1156
S'NOUN'
p1157
F1.0
s(lp1158
(g95
I12
tp1159
atp1160
a(g128
(dp1161
g130
F1.0
s(lp1162
tp1163
a(g49
(dp1164
g1091
F0.000195
sS'CONJ'
p1165
F0.999782
sS'NOUN'
p1166
F2e-06
sS'ADP'
p1167
F1.8e-05
sS'PRT'
p1168
F5e-06
s(lp1169
(g128
I16
tp1170
atp1171
a(S'to'
p1172
(dp1173
S'PRON'
p1174
F0.9675260000000001
sS'CONJ'
p1175
F0.017624
sg1091
F0.014851
s(lp1176
tp1177
a(S'aj'
p1178
(dp1179
g1091
F0.964017
sS'CONJ'
p1180
F0.035983
s(lp1181
(g143
I17
tp1182
atp1183
a(S'na'
p1184
(dp1185
g1091
F3.9e-05
sS'CONJ'
p1186
F3.1e-05
sS'ADP'
p1187
F0.99993
sS'PRT'
p1188
F0.0
s(lp1189
(g150
I18
tp1190
atp1191
a(S'najvy\xc5\xa1\xc5\xa1ej'
p1192
(dp1193
S'ADJ'
p1194
F1.0
s(lp1195
(g165
I20
tp1196
atp1197
a(S'\xc3\xbarovni'
p1198
(dp1199
S'NOUN'
p1200
F1.0
s(lp1201
(g172
I21
tp1202
atp1203
a(g49
(dp1204
g1091
F0.004695
sS'CONJ'
p1205
F0.994925
sS'NOUN'
p1206
F0.00022700000000000002
sS'ADP'
p1207
F1e-06
sS'PRT'
p1208
F0.000154
s(lp1209
(g179
I22
tp1210
atp1211
a(S'v'
p1212
(dp1213
g1091
F0.000216
sS'ADP'
p1214
F0.999784
s(lp1215
(g187
I23
tp1216
atp1217
a(S'pracovn\xc3\xbdch'
p1218
(dp1219
S'ADJ'
p1220
F1.0
s(lp1221
(g203
I24
tp1222
atp1223
a(S'skupin\xc3\xa1ch'
p1224
(dp1225
S'NOUN'
p1226
F1.0
s(lp1227
(g216
I25
tp1228
atp1229
a(g128
(dp1230
g130
F1.0
s(lp1231
(g128
I26
tp1232
atp1233
a(S'av\xc5\xa1ak'
p1234
(dp1235
S'CONJ'
p1236
F1.0
s(lp1237
(g238
I27
tp1238
atp1239
a(S'bez'
p1240
(dp1241
g1091
F0.00053
sS'ADP'
p1242
F0.99947
s(lp1243
(g246
I28
tp1244
atp1245
a(S'v\xc3\xbdsledku'
p1246
(dp1247
S'NOUN'
p1248
F1.0
s(lp1249
(g266
I30
tp1250
atp1251
a(g130
(dp1252
g130
F1.0
s(lp1253
(g130
I31
tp1254
atp1255
asS'pl'
p1256
(lp1257
(S'oba'
p1258
(dp1259
S'NUM'
p1260
F0.9999990000000001
s(lp1261
(g118
I14
tp1262
atp1263
a(S'kraje'
p1264
(dp1265
S'NOUN'
p1266
F1.0
s(lp1267
(g125
I15
tp1268
atp1269
a(S'wielokrotnie'
p1270
(dp1271
S'ADV'
p1272
F1.0
s(lp1273
(g95
I12
tp1274
atp1275
a(S'omawia\xc5\x82y'
p1276
(dp1277
S'ADV'
p1278
F0.015825
sS'NOUN'
p1279
F0.027229
sS'VERB'
p1280
F0.9275560000000002
sS'ADJ'
p1281
F0.029387
s(lp1282
(g38
I5
tp1283
atp1284
a(S'przy'
p1285
(dp1286
S'VERB'
p1287
F0.0
sS'ADP'
p1288
F1.0
s(lp1289
tp1290
a(S'r\xc3\xb3\xc5\xbcnych'
p1291
(dp1292
S'ADJ'
p1293
F0.999999
s(lp1294
(g88
I11
tp1295
atp1296
a(S'okazjach'
p1297
(dp1298
S'NOUN'
p1299
F1.0
s(lp1300
(g95
I12
tp1301
atp1302
a(S'spraw\xc4\x99'
p1303
(dp1304
S'NOUN'
p1305
F1.0
s(lp1306
(g38
I5
tp1307
atp1308
a(S'przej\xc4\x99tego'
p1309
(dp1310
S'ADV'
p1311
F4.9999999999999996e-06
sS'NOUN'
p1312
F0.025572
sS'VERB'
p1313
F0.019721
sS'ADJ'
p1314
F0.954705
s(lp1315
tp1316
a(S'maj\xc4\x85tku'
p1317
(dp1318
S'NOUN'
p1319
F1.0
s(lp1320
(g30
I6
tp1321
atp1322
a(S'tracji'
p1323
(dp1324
S'ADJ'
p1325
F0.00127
sS'VERB'
p1326
F0.137567
sS'NOUN'
p1327
F0.8611639999999999
s(lp1328
(g38
I5
tp1329
atp1330
a(g128
(dp1331
g1091
F0.0
sg130
F1.0
s(lp1332
(g128
I16
tp1333
atp1334
a(S'w'
p1335
(dp1336
S'ADJ'
p1337
F0.0
sg1091
F2e-06
sS'NOUN'
p1338
F1e-06
sS'ADP'
p1339
F0.9999979999999999
s(lp1340
tp1341
a(S'tym'
p1342
(dp1343
S'ADV'
p1344
F0.000299
sS'ADJ'
p1345
F0.30237099999999995
sS'CONJ'
p1346
F8e-06
sS'NOUN'
p1347
F0.697319
sS'PRT'
p1348
F3e-06
s(lp1349
(g143
I17
tp1350
atp1351
a(S'na'
p1352
(dp1353
S'PRT'
p1354
F2e-06
sS'VERB'
p1355
F1e-06
sS'NOUN'
p1356
F0.0
sS'ADP'
p1357
F0.999997
sg1091
F1e-06
s(lp1358
(g150
I18
tp1359
atp1360
a(S'wysokim'
p1361
(dp1362
S'ADJ'
p1363
F1.0
s(lp1364
(g165
I20
tp1365
atp1366
a(S'szczeblu'
p1367
(dp1368
S'NOUN'
p1369
F1.0
s(lp1370
(g172
I21
tp1371
atp1372
a(S'oraz'
p1373
(dp1374
S'CONJ'
p1375
F1.0
s(lp1376
(g179
I22
tp1377
atp1378
a(g1335
(dp1379
S'ADJ'
p1380
F0.0
sg1091
F0.0
sS'NOUN'
p1381
F0.0
sS'ADP'
p1382
F0.999999
s(lp1383
(g187
I23
tp1384
atp1385
a(S'grupach'
p1386
(dp1387
S'NOUN'
p1388
F1.0
s(lp1389
(g216
I25
tp1390
atp1391
a(S'roboczych'
p1392
(dp1393
S'ADJ'
p1394
F1.0
s(lp1395
(g203
I24
tp1396
atp1397
a(g128
(dp1398
g1091
F0.0
sg130
F1.0
s(lp1399
(g128
I26
tp1400
atp1401
a(S'ale'
p1402
(dp1403
S'PRT'
p1404
F0.001841
sS'CONJ'
p1405
F0.997501
sS'NOUN'
p1406
F0.000658
s(lp1407
(g238
I27
tp1408
atp1409
a(S'bez'
p1410
(dp1411
S'NOUN'
p1412
F0.000124
sS'ADP'
p1413
F0.999876
s(lp1414
(g246
I28
tp1415
atp1416
a(S'rezultatu'
p1417
(dp1418
S'NOUN'
p1419
F1.0
s(lp1420
(g266
I30
tp1421
atp1422
a(g130
(dp1423
g130
F1.0
s(lp1424
(g130
I31
tp1425
atp1426
asS'sl'
p1427
(lp1428
(g1089
(dp1429
S'NOUN'
p1430
F3e-05
sS'ADP'
p1431
F0.99997
s(lp1432
(g8
I0
tp1433
atp1434
a(S'vpra\xc5\xa1anju'
p1435
(dp1436
S'NOUN'
p1437
F1.0
s(lp1438
(g15
I1
tp1439
atp1440
a(S'zaplenjene'
p1441
(dp1442
S'ADV'
p1443
F4.4e-05
sS'NOUN'
p1444
F0.022712
sS'VERB'
p1445
F0.0016619999999999998
sS'ADJ'
p1446
F0.9755830000000001
s(lp1447
(g38
I5
tp1448
atp1449
a(S'lastnine'
p1450
(dp1451
S'NOUN'
p1452
F1.0
s(lp1453
(g30
I6
tp1454
atp1455
a(g1212
(dp1456
S'ADP'
p1457
F1.0
s(lp1458
(g53
I7
tp1459
atp1460
a(S'trakiji'
p1461
(dp1462
S'ADJ'
p1463
F0.000294
sS'NOUN'
p1464
F0.9997069999999999
s(lp1465
(g38
I5
tp1466
atp1467
a(S'sta'
p1468
(dp1469
g1091
F0.009258
sS'VERB'
p1470
F0.990742
s(lp1471
(g38
I5
tp1472
atp1473
a(S'dr\xc5\xbeavi'
p1474
(dp1475
S'NOUN'
p1476
F1.0
s(lp1477
tp1478
a(S'razpravljali'
p1479
(dp1480
S'VERB'
p1481
F1.0
s(lp1482
(g68
I9
tp1483
atp1484
a(S'velikokrat'
p1485
(dp1486
S'ADV'
p1487
F1.0
s(lp1488
(g95
I12
tp1489
atp1490
a(g128
(dp1491
g130
F1.0
s(lp1492
(g128
I16
tp1493
atp1494
a(S'tudi'
p1495
(dp1496
S'PRT'
p1497
F1.0
s(lp1498
(g143
I17
tp1499
atp1500
a(S'na'
p1501
(dp1502
S'ADP'
p1503
F1.0
s(lp1504
(g150
I18
tp1505
atp1506
a(S'najvi\xc5\xa1ji'
p1507
(dp1508
S'ADJ'
p1509
F1.000001
s(lp1510
(g165
I20
tp1511
atp1512
a(S'ravni'
p1513
(dp1514
S'ADJ'
p1515
F0.028097
sS'NOUN'
p1516
F0.971904
s(lp1517
(g172
I21
tp1518
atp1519
a(S'in'
p1520
(dp1521
S'ADV'
p1522
F0.000124
sg1091
F0.000207
sS'CONJ'
p1523
F0.999631
sS'NOUN'
p1524
F3.8e-05
s(lp1525
(g179
I22
tp1526
atp1527
a(g1212
(dp1528
S'ADP'
p1529
F1.0
s(lp1530
(g187
I23
tp1531
atp1532
a(S'delovnih'
p1533
(dp1534
S'ADJ'
p1535
F1.000001
s(lp1536
(g203
I24
tp1537
atp1538
a(S'skupinah'
p1539
(dp1540
S'NOUN'
p1541
F1.0
s(lp1542
(g216
I25
tp1543
atp1544
a(g128
(dp1545
g130
F1.0
s(lp1546
(g128
I26
tp1547
atp1548
a(S'vendar'
p1549
(dp1550
S'ADV'
p1551
F0.033676
sS'CONJ'
p1552
F0.966324
s(lp1553
(g238
I27
tp1554
atp1555
a(S'brez'
p1556
(dp1557
S'ADP'
p1558
F1.0
s(lp1559
(g246
I28
tp1560
atp1561
a(S'kakega'
p1562
(dp1563
S'PRON'
p1564
F1.0
s(lp1565
(g38
I5
tp1566
atp1567
a(S'izida'
p1568
(dp1569
S'NOUN'
p1570
F1.0
s(lp1571
(g266
I30
tp1572
atp1573
a(g130
(dp1574
g130
F1.0
s(lp1575
(g130
I31
tp1576
atp1577
asS'es'
p1578
(lp1579
(S'la'
p1580
(dp1581
g1091
F4.5e-05
sS'DET'
p1582
F0.999917
sS'NOUN'
p1583
F0.0
sS'PRON'
p1584
F3.8e-05
s(lp1585
(g8
I0
tp1586
atp1587
a(S'cuesti\xc3\xb3n'
p1588
(dp1589
S'NOUN'
p1590
F1.0
s(lp1591
(g15
I1
tp1592
atp1593
a(S'de'
p1594
(dp1595
g1091
F0.0
sS'CONJ'
p1596
F1.7e-05
sS'ADP'
p1597
F0.999983
s(lp1598
(g23
I2
tp1599
atp1600
a(S'los'
p1601
(dp1602
S'PRON'
p1603
F0.0
sS'DET'
p1604
F1.0
s(lp1605
(g195
I3
tp1606
atp1607
a(S'bienes'
p1608
(dp1609
S'NOUN'
p1610
F1.0
s(lp1611
(g30
I6
tp1612
atp1613
a(S'incautados'
p1614
(dp1615
S'VERB'
p1616
F1.0
s(lp1617
(g46
I4
tp1618
atp1619
a(S'de'
p1620
(dp1621
g1091
F0.0
sS'CONJ'
p1622
F0.000603
sS'ADP'
p1623
F0.999397
s(lp1624
tp1625
a(S'tracia'
p1626
(dp1627
S'NOUN'
p1628
F1.0
s(lp1629
(g38
I5
tp1630
atp1631
a(S'se'
p1632
(dp1633
S'PRON'
p1634
F1.0
sS'VERB'
p1635
F0.0
s(lp1636
(g61
I8
tp1637
atp1638
a(S'ha'
p1639
(dp1640
S'VERB'
p1641
F1.0
s(lp1642
(g53
I7
tp1643
atp1644
a(S'debatido'
p1645
(dp1646
S'VERB'
p1647
F1.0
s(lp1648
(g68
I9
tp1649
atp1650
a(S'en'
p1651
(dp1652
g1091
F0.0
sS'CONJ'
p1653
F2.3e-05
sS'ADP'
p1654
F0.999977
s(lp1655
(g76
I10
tp1656
atp1657
a(S'numerosas'
p1658
(dp1659
S'ADJ'
p1660
F1.0
s(lp1661
(g88
I11
tp1662
atp1663
a(S'ocasiones'
p1664
(dp1665
S'NOUN'
p1666
F1.0
s(lp1667
(g95
I12
tp1668
atp1669
a(S'por'
p1670
(dp1671
S'ADP'
p1672
F1.0
s(lp1673
(g103
I13
tp1674
atp1675
a(S'ambos'
p1676
(dp1677
S'ADJ'
p1678
F1.0
s(lp1679
(g118
I14
tp1680
atp1681
a(S'pa\xc3\xadses'
p1682
(dp1683
S'NOUN'
p1684
F1.0
s(lp1685
(g125
I15
tp1686
atp1687
a(g128
(dp1688
g130
F1.0
s(lp1689
(g128
I16
tp1690
atp1691
a(S'incluso'
p1692
(dp1693
S'ADV'
p1694
F1.0
s(lp1695
(g143
I17
tp1696
atp1697
a(S'al'
p1698
(dp1699
S'CONJ'
p1700
F0.199552
sS'ADP'
p1701
F0.800448
s(lp1702
(g150
I18
tp1703
atp1704
a(S'm\xc3\xa1s'
p1705
(dp1706
S'ADV'
p1707
F0.999962
sS'CONJ'
p1708
F3.8e-05
s(lp1709
tp1710
a(S'alto'
p1711
(dp1712
S'NOUN'
p1713
F0.014861
sS'ADJ'
p1714
F0.985139
s(lp1715
(g165
I20
tp1716
atp1717
a(S'nivel'
p1718
(dp1719
S'NOUN'
p1720
F1.0
s(lp1721
(g172
I21
tp1722
atp1723
a(g134
(dp1724
g1091
F0.001029
sS'CONJ'
p1725
F0.998971
s(lp1726
(g179
I22
tp1727
atp1728
a(S'en'
p1729
(dp1730
g1091
F4e-06
sS'CONJ'
p1731
F1e-06
sS'ADP'
p1732
F0.999995
s(lp1733
(g187
I23
tp1734
atp1735
a(S'grupos'
p1736
(dp1737
S'NOUN'
p1738
F1.0
s(lp1739
(g216
I25
tp1740
atp1741
a(S'de'
p1742
(dp1743
g1091
F2.9e-05
sS'CONJ'
p1744
F0.000449
sS'ADP'
p1745
F0.999522
s(lp1746
tp1747
a(S'trabajo'
p1748
(dp1749
S'NOUN'
p1750
F1.0
s(lp1751
(g203
I24
tp1752
atp1753
a(g128
(dp1754
g130
F1.0
s(lp1755
(g128
I26
tp1756
atp1757
a(S'pero'
p1758
(dp1759
S'CONJ'
p1760
F0.994978
sS'NOUN'
p1761
F0.005022
s(lp1762
(g238
I27
tp1763
atp1764
a(S'sin'
p1765
(dp1766
S'ADP'
p1767
F1.0
s(lp1768
(g246
I28
tp1769
atp1770
a(S'ning\xc3\xban'
p1771
(dp1772
S'ADJ'
p1773
F1.0
s(lp1774
(g259
I29
tp1775
atp1776
a(S'resultado'
p1777
(dp1778
S'VERB'
p1779
F0.005166
sS'NOUN'
p1780
F0.994834
s(lp1781
(g266
I30
tp1782
atp1783
a(g130
(dp1784
g130
F1.0
s(lp1785
(g130
I31
tp1786
atp1787
as.