(dp0
S'fr'
p1
(lp2
(S'la'
p3
(dp4
S'PRON'
p5
F8.2e-05
sS'DET'
p6
F0.999918
sS'NOUN'
p7
F0.0
s(lp8
(S'our'
p9
I0
tp10
atp11
a(S'capacit\xc3\xa9'
p12
(dp13
S'NOUN'
p14
F1.0
s(lp15
(S'ability'
p16
I3
tp17
atp18
a(S'de'
p19
(dp20
S'ADP'
p21
F1.0
s(lp22
(S'to'
p23
I4
tp24
atp25
a(S'prendre'
p26
(dp27
S'VERB'
p28
F1.0
s(lp29
(S'take'
p30
I5
tp31
atp32
a(S'des'
p33
(dp34
S'DET'
p35
F0.000198
sS'ADP'
p36
F0.999802
s(lp37
(S"'"
p38
I2
tp39
atp40
a(S'mesures'
p41
(dp42
S'VERB'
p43
F0.0
sS'NOUN'
p44
F1.0
s(lp45
(S'action'
p46
I6
tp47
atp48
a(S'et'
p49
(dp50
S'CONJ'
p51
F1.0
s(lp52
(S'and'
p53
I7
tp54
atp55
a(S'de'
p56
(dp57
S'ADP'
p58
F1.0
s(lp59
tp60
a(S'soutenir'
p61
(dp62
S'VERB'
p63
F1.0
s(lp64
(S'support'
p65
I8
tp66
atp67
a(S'les'
p68
(dp69
S'PRON'
p70
F3.1e-05
sS'DET'
p71
F0.999948
sS'ADP'
p72
F2.1e-05
s(lp73
(S'leaders'
p74
I1
tp75
atp76
a(S'int\xc3\xa9r\xc3\xaats'
p77
(dp78
S'NOUN'
p79
F1.0
s(lp80
(S'interests'
p81
I10
tp82
atp83
a(S'nationaux'
p84
(dp85
S'NOUN'
p86
F0.015242
sS'ADJ'
p87
F0.984758
s(lp88
(S'national'
p89
I9
tp90
atp91
a(S'est'
p92
(dp93
S'VERB'
p94
F0.998344
sS'NOUN'
p95
F0.001656
s(lp96
(S'is'
p97
I11
tp98
atp99
a(S'particuli\xc3\xa8rement'
p100
(dp101
S'ADV'
p102
F1.0
s(lp103
(S'particularly'
p104
I12
tp105
atp106
a(S'importante'
p107
(dp108
S'ADJ'
p109
F1.0
s(lp110
(S'important'
p111
I13
tp112
atp113
a(S'pour'
p114
(dp115
S'CONJ'
p116
F0.258931
sS'ADP'
p117
F0.741069
s(lp118
tp119
a(S'les'
p120
(dp121
S'PRON'
p122
F0.000174
sS'DET'
p123
F0.999821
sS'ADP'
p124
F5e-06
s(lp125
(g74
I1
tp126
atp127
a(S'dirigeants'
p128
(dp129
S'ADJ'
p130
F0.012485
sS'NOUN'
p131
F0.987515
s(lp132
tp133
a(S'politiques'
p134
(dp135
S'NOUN'
p136
F0.00393
sS'VERB'
p137
F0.000424
sS'ADJ'
p138
F0.995647
s(lp139
(g74
I1
tp140
atp141
a(S'en'
p142
(dp143
S'PRON'
p144
F4e-06
sS'ADP'
p145
F0.999996
s(lp146
(S'in'
p147
I14
tp148
atp149
a(S'cette'
p150
(dp151
S'PRON'
p152
F1.0
s(lp153
tp154
a(S'p\xc3\xa9riode'
p155
(dp156
S'NOUN'
p157
F1.0
s(lp158
(S'times'
p159
I15
tp160
atp161
a(S'de'
p162
(dp163
S'ADP'
p164
F1.0
s(lp165
(S'of'
p166
I16
tp167
atp168
a(S'crise'
p169
(dp170
S'NOUN'
p171
F1.0
s(lp172
(S'crisis'
p173
I17
tp174
atp175
a(S'.'
p176
(dp177
g176
F1.0
s(lp178
(g176
I18
tp179
atp180
asS'en'
p181
(lp182
(g9
(dp183
S'PRON'
p184
F1.0
s(lp185
(g9
I0
tp186
atp187
a(g74
(dp188
S'NOUN'
p189
F1.0
s(lp190
(g74
I1
tp191
atp192
a(g38
(dp193
S'PRT'
p194
F0.979965
sg176
F0.020035
s(lp195
(g38
I2
tp196
atp197
a(g16
(dp198
S'NOUN'
p199
F1.0
s(lp200
(g16
I3
tp201
atp202
a(g23
(dp203
S'ADV'
p204
F0.0
sS'PRT'
p205
F1.0
sS'ADP'
p206
F0.0
s(lp207
(g23
I4
tp208
atp209
a(g30
(dp210
S'VERB'
p211
F0.999881
sS'NOUN'
p212
F0.000119
s(lp213
(g30
I5
tp214
atp215
a(g46
(dp216
S'NOUN'
p217
F1.0
s(lp218
(g46
I6
tp219
atp220
a(g53
(dp221
S'CONJ'
p222
F1.0
sS'NOUN'
p223
F0.0
s(lp224
(g53
I7
tp225
atp226
a(g65
(dp227
S'VERB'
p228
F0.944616
sS'NOUN'
p229
F0.055384
s(lp230
(g65
I8
tp231
atp232
a(g89
(dp233
S'NOUN'
p234
F0.000317
sS'ADJ'
p235
F0.999683
s(lp236
(g89
I9
tp237
atp238
a(g81
(dp239
S'VERB'
p240
F1.5e-05
sS'NOUN'
p241
F0.999985
s(lp242
(g81
I10
tp243
atp244
a(g97
(dp245
S'VERB'
p246
F1.0
s(lp247
(g97
I11
tp248
atp249
a(g104
(dp250
S'ADV'
p251
F1.0
s(lp252
(g104
I12
tp253
atp254
a(g111
(dp255
S'ADJ'
p256
F1.0
s(lp257
(g111
I13
tp258
atp259
a(g147
(dp260
S'ADV'
p261
F7.1e-05
sS'PRT'
p262
F0.000258
sS'ADP'
p263
F0.999672
s(lp264
(g147
I14
tp265
atp266
a(g159
(dp267
S'CONJ'
p268
F0.001161
sS'VERB'
p269
F5e-06
sS'NOUN'
p270
F0.998834
s(lp271
(g159
I15
tp272
atp273
a(g166
(dp274
S'ADP'
p275
F1.0
s(lp276
(g166
I16
tp277
atp278
a(g173
(dp279
S'NOUN'
p280
F1.0
s(lp281
(g173
I17
tp282
atp283
a(g176
(dp284
g176
F1.0
s(lp285
(g176
I18
tp286
atp287
asS'nl'
p288
(lp289
(S'in'
p290
(dp291
S'ADV'
p292
F0.015307
sS'VERB'
p293
F0.0
sS'ADP'
p294
F0.984693
s(lp295
(g147
I14
tp296
atp297
a(S'tijden'
p298
(dp299
S'NOUN'
p300
F1.0
s(lp301
tp302
a(S'van'
p303
(dp304
S'ADP'
p305
F1.0
s(lp306
(g166
I16
tp307
atp308
a(S'crisis'
p309
(dp310
S'NOUN'
p311
F1.0
s(lp312
(g173
I17
tp313
atp314
a(S'is'
p315
(dp316
S'VERB'
p317
F1.0
s(lp318
(g97
I11
tp319
atp320
a(S'het'
p321
(dp322
S'PRON'
p323
F0.920288
sS'DET'
p324
F0.079712
s(lp325
(g104
I12
tp326
atp327
a(S'immers'
p328
(dp329
S'ADV'
p330
F1.0
s(lp331
tp332
a(S'belangrijker'
p333
(dp334
S'ADJ'
p335
F1.0
s(lp336
(g111
I13
tp337
atp338
a(S'dan'
p339
(dp340
S'ADV'
p341
F0.284491
sS'CONJ'
p342
F0.715509
s(lp343
tp344
a(S'ooit'
p345
(dp346
S'ADV'
p347
F1.0
s(lp348
(g159
I15
tp349
atp350
a(S'dat'
p351
(dp352
S'PRON'
p353
F0.003641
sS'CONJ'
p354
F0.996359
s(lp355
(g23
I4
tp356
atp357
a(S'onze'
p358
(dp359
S'PRON'
p360
F1.0
s(lp361
(g9
I0
tp362
atp363
a(S'leiders'
p364
(dp365
S'NOUN'
p366
F1.0
s(lp367
(g74
I1
tp368
atp369
a(S'in'
p370
(dp371
S'ADV'
p372
F0.002213
sS'VERB'
p373
F1e-06
sS'ADP'
p374
F0.997786
s(lp375
(g38
I2
tp376
atp377
a(S'staat'
p378
(dp379
S'VERB'
p380
F0.000381
sS'NOUN'
p381
F0.999619
s(lp382
tp383
a(S'blijken'
p384
(dp385
S'VERB'
p386
F0.9999610000000001
sS'NOUN'
p387
F3.9e-05
s(lp388
(g16
I3
tp389
atp390
a(S'actie'
p391
(dp392
S'NOUN'
p393
F1.0
s(lp394
tp395
a(S'te'
p396
(dp397
S'PRT'
p398
F1.0
s(lp399
tp400
a(S'ondernemen'
p401
(dp402
S'VERB'
p403
F0.9999979999999999
sS'NOUN'
p404
F2e-06
s(lp405
(g46
I6
tp406
atp407
a(S'en'
p408
(dp409
S'CONJ'
p410
F1.0
s(lp411
(g53
I7
tp412
atp413
a(S'de'
p414
(dp415
S'DET'
p416
F1.0
s(lp417
tp418
a(S'nationale'
p419
(dp420
S'NOUN'
p421
F2.5e-05
sS'ADJ'
p422
F0.999975
s(lp423
(g89
I9
tp424
atp425
a(S'belangen'
p426
(dp427
S'NOUN'
p428
F1.0
s(lp429
tp430
a(S'te'
p431
(dp432
S'PRT'
p433
F1.0
s(lp434
(g23
I4
tp435
atp436
a(S'behartigen'
p437
(dp438
S'VERB'
p439
F0.9999990000000001
sS'NOUN'
p440
F1e-06
s(lp441
(g81
I10
tp442
atp443
a(g176
(dp444
g176
F1.0
s(lp445
(g176
I18
tp446
atp447
asS'de'
p448
(lp449
(S'dass'
p450
(dp451
S'CONJ'
p452
F1.0
s(lp453
(g16
I3
tp454
atp455
a(S'unsere'
p456
(dp457
S'PRON'
p458
F1.0
s(lp459
(g9
I0
tp460
atp461
a(S'f\xc3\xbchrenden'
p462
(dp463
S'ADJ'
p464
F1.0
s(lp465
tp466
a(S'politiker'
p467
(dp468
S'ADJ'
p469
F0.002177
sS'NOUN'
p470
F0.995391
s(lp471
(g74
I1
tp472
atp473
a(S'handeln'
p474
(dp475
S'VERB'
p476
F1.0
s(lp477
(g46
I6
tp478
atp479
a(S'und'
p480
(dp481
S'CONJ'
p482
F1.0
s(lp483
(g53
I7
tp484
atp485
a(S'nationale'
p486
(dp487
S'ADJ'
p488
F1.0
s(lp489
(g89
I9
tp490
atp491
a(S'interessen'
p492
(dp493
S'ADJ'
p494
F0.05793
sS'NOUN'
p495
F0.892524
s(lp496
(g81
I10
tp497
atp498
a(S'f\xc3\xb6rdern'
p499
(dp500
S'VERB'
p501
F1.0
s(lp502
(g65
I8
tp503
atp504
a(S','
p505
(dp506
g176
F1.0
s(lp507
(g23
I4
tp508
atp509
a(S'ist'
p510
(dp511
S'VERB'
p512
F1.0
s(lp513
(g97
I11
tp514
atp515
a(S'in'
p516
(dp517
S'ADP'
p518
F1.0
s(lp519
(g147
I14
tp520
atp521
a(S'krisenzeiten'
p522
(dp523
S'ADJ'
p524
F0.007982
sS'NOUN'
p525
F0.991414
s(lp526
(g159
I15
tp527
atp528
a(S'besonders'
p529
(dp530
S'ADV'
p531
F1.0
s(lp532
(g104
I12
tp533
atp534
a(S'wichtig'
p535
(dp536
S'ADJ'
p537
F1.0
s(lp538
(g111
I13
tp539
atp540
a(g176
(dp541
g176
F1.0
s(lp542
(g176
I18
tp543
atp544
asS'it'
p545
(lp546
(S'nei'
p547
(dp548
S'NOUN'
p549
F0.000195
sS'ADP'
p550
F0.999805
s(lp551
(g147
I14
tp552
atp553
a(S'momenti'
p554
(dp555
S'NOUN'
p556
F1.0
s(lp557
(g159
I15
tp558
atp559
a(S'di'
p560
(dp561
S'CONJ'
p562
F4e-06
sS'ADP'
p563
F0.999996
s(lp564
(g166
I16
tp565
atp566
a(S'crisi'
p567
(dp568
S'NOUN'
p569
F1.0
s(lp570
(g173
I17
tp571
atp572
a(g505
(dp573
g176
F1.0
s(lp574
tp575
a(S'la'
p576
(dp577
S'PRON'
p578
F0.000686
sS'DET'
p579
F0.999314
s(lp580
(g38
I2
tp581
atp582
a(S'capacit\xc3\xa0'
p583
(dp584
S'NOUN'
p585
F1.0
s(lp586
(g16
I3
tp587
atp588
a(S'dei'
p589
(dp590
S'NOUN'
p591
F1e-06
sS'DEF'
p592
F0.000281
sS'ADP'
p593
F0.999718
s(lp594
tp595
a(S'nostri'
p596
(dp597
S'PRON'
p598
F1.0
s(lp599
(g9
I0
tp600
atp601
a(S'leader'
p602
(dp603
S'ADJ'
p604
F0.019554
sS'NOUN'
p605
F0.980446
s(lp606
(g74
I1
tp607
atp608
a(S'di'
p609
(dp610
S'CONJ'
p611
F6e-06
sS'ADP'
p612
F0.999994
s(lp613
(g23
I4
tp614
atp615
a(S'agire'
p616
(dp617
S'VERB'
p618
F1.0
s(lp619
(g46
I6
tp620
atp621
a(S'e'
p622
(dp623
S'CONJ'
p624
F1.0
s(lp625
(g53
I7
tp626
atp627
a(S'sostenere'
p628
(dp629
S'VERB'
p630
F1.0
s(lp631
(g65
I8
tp632
atp633
a(S'gli'
p634
(dp635
S'PRON'
p636
F1e-06
sS'DET'
p637
F0.999999
s(lp638
tp639
a(S'interessi'
p640
(dp641
S'VERB'
p642
F6.4e-05
sS'NOUN'
p643
F0.999935
s(lp644
(g81
I10
tp645
atp646
a(S'nazionali'
p647
(dp648
S'NOUN'
p649
F0.037527
sS'ADJ'
p650
F0.962473
s(lp651
(g89
I9
tp652
atp653
a(S'\xc3\xa8'
p654
(dp655
S'VERB'
p656
F1.0
s(lp657
(g97
I11
tp658
atp659
a(S'particolarmente'
p660
(dp661
S'ADV'
p662
F1.0
s(lp663
(g104
I12
tp664
atp665
a(S'importante'
p666
(dp667
S'NOUN'
p668
F0.002053
sS'VERB'
p669
F0.001077
sS'ADJ'
p670
F0.99687
s(lp671
(g111
I13
tp672
atp673
a(g176
(dp674
g176
F1.0
s(lp675
(g176
I18
tp676
atp677
asS'sk'
p678
(lp679
(S'v'
p680
(dp681
S'X'
p682
F0.0005470000000000001
sS'ADP'
p683
F0.999453
s(lp684
(g147
I14
tp685
atp686
a(S'\xc4\x8dasoch'
p687
(dp688
S'NOUN'
p689
F1.0
s(lp690
(g159
I15
tp691
atp692
a(S'kr\xc3\xadzy'
p693
(dp694
S'NOUN'
p695
F1.0
s(lp696
(g173
I17
tp697
atp698
a(S'je'
p699
(dp700
g682
F0.000346
sS'VERB'
p701
F0.999621
sS'PRON'
p702
F3.4e-05
s(lp703
(g97
I11
tp704
atp705
a(S'mimoriadne'
p706
(dp707
S'ADV'
p708
F0.73567
sS'ADJ'
p709
F0.264331
s(lp710
(g104
I12
tp711
atp712
a(S'd\xc3\xb4le\xc5\xbeit\xc3\xa1'
p713
(dp714
S'ADJ'
p715
F1.0
s(lp716
(g111
I13
tp717
atp718
a(S'schopnos\xc5\xa5'
p719
(dp720
S'NOUN'
p721
F1.0
s(lp722
(g16
I3
tp723
atp724
a(S'na\xc5\xa1ich'
p725
(dp726
S'PRON'
p727
F0.999013
sS'NOUN'
p728
F0.000802
sg682
F0.000185
s(lp729
(g9
I0
tp730
atp731
a(S'ved\xc3\xbacich'
p732
(dp733
S'VERB'
p734
F0.853008
sS'NOUN'
p735
F0.146992
s(lp736
tp737
a(S'predstavite\xc4\xbeov'
p738
(dp739
S'NOUN'
p740
F1.0
s(lp741
(g74
I1
tp742
atp743
a(S'prija\xc5\xa5'
p744
(dp745
S'VERB'
p746
F1.0
s(lp747
(g30
I5
tp748
atp749
a(S'opatrenia'
p750
(dp751
S'NOUN'
p752
F1.0
s(lp753
(g46
I6
tp754
atp755
a(S'a'
p756
(dp757
g682
F0.001147
sS'CONJ'
p758
F0.998464
sS'NOUN'
p759
F7.099999999999999e-05
sS'ADP'
p760
F0.0
sS'PRT'
p761
F0.000318
s(lp762
(g53
I7
tp763
atp764
a(S'podpori\xc5\xa5'
p765
(dp766
S'VERB'
p767
F1.0
s(lp768
(g65
I8
tp769
atp770
a(S'z\xc3\xa1ujmy'
p771
(dp772
S'NOUN'
p773
F1.0
s(lp774
(g81
I10
tp775
atp776
a(S'jednotliv\xc3\xbdch'
p777
(dp778
S'ADJ'
p779
F1.0
s(lp780
tp781
a(S'\xc5\xa1t\xc3\xa1tov'
p782
(dp783
S'NOUN'
p784
F1.0
s(lp785
(g89
I9
tp786
atp787
a(g176
(dp788
g176
F1.0
s(lp789
(g176
I18
tp790
atp791
asS'pl'
p792
(lp793
(S'w'
p794
(dp795
S'ADJ'
p796
F0.0
sg682
F0.0
sS'NOUN'
p797
F0.0
sS'ADP'
p798
F0.999999
s(lp799
(g147
I14
tp800
atp801
a(S'czasach'
p802
(dp803
S'NOUN'
p804
F1.0
s(lp805
(g159
I15
tp806
atp807
a(S'kryzysu'
p808
(dp809
S'NOUN'
p810
F1.0
s(lp811
(g173
I17
tp812
atp813
a(S'wyj\xc4\x85tkowe'
p814
(dp815
S'ADJ'
p816
F1.0
s(lp817
(g104
I12
tp818
atp819
a(S'znaczenie'
p820
(dp821
S'VERB'
p822
F0.001939
sS'NOUN'
p823
F0.998061
s(lp824
(g111
I13
tp825
atp826
a(S'ma'
p827
(dp828
S'VERB'
p829
F0.9860199999999999
sS'NOUN'
p830
F2.2e-05
sS'ADP'
p831
F0.013958
s(lp832
(g97
I11
tp833
atp834
a(S'zdolno\xc5\x9b\xc4\x87'
p835
(dp836
S'NOUN'
p837
F1.0
s(lp838
(g16
I3
tp839
atp840
a(S'naszych'
p841
(dp842
S'NOUN'
p843
F0.000385
sS'ADJ'
p844
F0.9996160000000001
s(lp845
(g9
I0
tp846
atp847
a(S'przyw\xc3\xb3dc\xc3\xb3w'
p848
(dp849
S'NOUN'
p850
F1.0
s(lp851
(g74
I1
tp852
atp853
a(S'do'
p854
(dp855
g682
F0.0
sS'NOUN'
p856
F1e-06
sS'ADP'
p857
F0.9999990000000001
s(lp858
(g23
I4
tp859
atp860
a(S'podejmowania'
p861
(dp862
S'VERB'
p863
F1.0
s(lp864
(g30
I5
tp865
atp866
a(S'dzia\xc5\x82ania'
p867
(dp868
S'VERB'
p869
F0.048837
sS'NOUN'
p870
F0.951163
s(lp871
(g46
I6
tp872
atp873
a(S'i'
p874
(dp875
S'PRT'
p876
F0.000344
sS'CONJ'
p877
F0.999579
sS'NOUN'
p878
F6.3e-05
sg682
F0.0
sS'PRON'
p879
F1.3000000000000001e-05
s(lp880
(g53
I7
tp881
atp882
a(S'wspierania'
p883
(dp884
S'VERB'
p885
F1.0
s(lp886
(g65
I8
tp887
atp888
a(S'interes\xc3\xb3w'
p889
(dp890
S'NOUN'
p891
F1.0
s(lp892
(g81
I10
tp893
atp894
a(S'krajowych'
p895
(dp896
S'ADJ'
p897
F0.999999
s(lp898
(g89
I9
tp899
atp900
a(g176
(dp901
g176
F1.0
s(lp902
(g176
I18
tp903
atp904
asS'sl'
p905
(lp906
(S'sposobnost'
p907
(dp908
S'NOUN'
p909
F1.0
s(lp910
(g16
I3
tp911
atp912
a(S'na\xc5\xa1ih'
p913
(dp914
S'PRON'
p915
F0.9999999999999999
s(lp916
(g9
I0
tp917
atp918
a(S'voditeljev'
p919
(dp920
S'NOUN'
p921
F1.0
s(lp922
(g74
I1
tp923
atp924
a(g505
(dp925
g176
F1.0
s(lp926
tp927
a(S'da'
p928
(dp929
S'PRT'
p930
F0.00024
sS'CONJ'
p931
F0.999678
sS'VERB'
p932
F8.1e-05
sg682
F1e-06
s(lp933
(g23
I4
tp934
atp935
a(S'ukrepajo'
p936
(dp937
S'ADV'
p938
F0.000722
sS'ADJ'
p939
F0.00393
sS'VERB'
p940
F0.906457
sS'NOUN'
p941
F0.08889100000000001
s(lp942
(g46
I6
tp943
atp944
a(S'in'
p945
(dp946
S'ADV'
p947
F0.004805
sg682
F1.3e-05
sS'CONJ'
p948
F0.995177
sS'NOUN'
p949
F5e-06
s(lp950
(g53
I7
tp951
atp952
a(S'podprejo'
p953
(dp954
S'VERB'
p955
F1.0
s(lp956
(g65
I8
tp957
atp958
a(S'nacionalne'
p959
(dp960
S'ADJ'
p961
F1.0
s(lp962
(g89
I9
tp963
atp964
a(S'interese'
p965
(dp966
S'NOUN'
p967
F1.0
s(lp968
(g81
I10
tp969
atp970
a(g505
(dp971
g176
F1.0
s(lp972
tp973
a(S'je'
p974
(dp975
S'PRON'
p976
F0.002785
sS'VERB'
p977
F0.997205
sg682
F1e-05
s(lp978
(g97
I11
tp979
atp980
a(g680
(dp981
S'ADP'
p982
F1.0
s(lp983
(g147
I14
tp984
atp985
a(S'\xc4\x8dasu'
p986
(dp987
S'NOUN'
p988
F1.0
s(lp989
(g159
I15
tp990
atp991
a(S'krize'
p992
(dp993
S'NOUN'
p994
F1.0
s(lp995
(g173
I17
tp996
atp997
a(S'\xc5\xa1e'
p998
(dp999
S'PRT'
p1000
F1.0
s(lp1001
tp1002
a(S'posebej'
p1003
(dp1004
S'ADV'
p1005
F1.0
s(lp1006
(g104
I12
tp1007
atp1008
a(S'pomembna'
p1009
(dp1010
S'ADJ'
p1011
F1.0
s(lp1012
(g111
I13
tp1013
atp1014
a(g176
(dp1015
g176
F1.0
s(lp1016
(g176
I18
tp1017
atp1018
asS'es'
p1019
(lp1020
(S'la'
p1021
(dp1022
g682
F4.5e-05
sS'DET'
p1023
F0.999917
sS'NOUN'
p1024
F0.0
sS'PRON'
p1025
F3.8e-05
s(lp1026
(g9
I0
tp1027
atp1028
a(S'capacidad'
p1029
(dp1030
S'NOUN'
p1031
F1.0
s(lp1032
(g16
I3
tp1033
atp1034
a(S'de'
p1035
(dp1036
g682
F0.0
sS'CONJ'
p1037
F0.000289
sS'ADP'
p1038
F0.999711
s(lp1039
(g38
I2
tp1040
atp1041
a(S'nuestros'
p1042
(dp1043
S'PRON'
p1044
F1.0
s(lp1045
tp1046
a(S'l\xc3\xadderes'
p1047
(dp1048
S'NOUN'
p1049
F1.0
s(lp1050
tp1051
a(g756
(dp1052
g682
F0.000427
sS'CONJ'
p1053
F3e-06
sS'ADP'
p1054
F0.99957
s(lp1055
(g23
I4
tp1056
atp1057
a(S'la'
p1058
(dp1059
g682
F0.0
sS'PRON'
p1060
F0.0
sS'DET'
p1061
F0.999999
sS'NOUN'
p1062
F0.0
s(lp1063
(g9
I0
tp1064
atp1065
a(S'hora'
p1066
(dp1067
S'NOUN'
p1068
F1.0
s(lp1069
(g30
I5
tp1070
atp1071
a(S'de'
p1072
(dp1073
g682
F0.0
sS'CONJ'
p1074
F0.345844
sS'ADP'
p1075
F0.654156
s(lp1076
tp1077
a(S'actuar'
p1078
(dp1079
S'VERB'
p1080
F1.0
s(lp1081
(g46
I6
tp1082
atp1083
a(S'y'
p1084
(dp1085
g682
F0.000302
sS'CONJ'
p1086
F0.999698
s(lp1087
(g53
I7
tp1088
atp1089
a(S'de'
p1090
(dp1091
g682
F0.0
sS'CONJ'
p1092
F0.045609
sS'ADP'
p1093
F0.954391
s(lp1094
tp1095
a(S'defender'
p1096
(dp1097
S'VERB'
p1098
F1.0
s(lp1099
(g65
I8
tp1100
atp1101
a(S'los'
p1102
(dp1103
S'PRON'
p1104
F3e-06
sS'DET'
p1105
F0.999997
s(lp1106
(g74
I1
tp1107
atp1108
a(S'intereses'
p1109
(dp1110
S'NOUN'
p1111
F1.0
s(lp1112
(g81
I10
tp1113
atp1114
a(S'nacionales'
p1115
(dp1116
S'ADJ'
p1117
F1.0
s(lp1118
(g89
I9
tp1119
atp1120
a(S'resulta'
p1121
(dp1122
S'VERB'
p1123
F1.0
s(lp1124
(g97
I11
tp1125
atp1126
a(S'particularmente'
p1127
(dp1128
S'ADV'
p1129
F1.0
s(lp1130
(g104
I12
tp1131
atp1132
a(S'importante'
p1133
(dp1134
S'VERB'
p1135
F0.415896
sS'ADJ'
p1136
F0.584104
s(lp1137
(g111
I13
tp1138
atp1139
a(S'en'
p1140
(dp1141
g682
F0.0
sS'CONJ'
p1142
F1e-06
sS'ADP'
p1143
F0.999999
s(lp1144
(g147
I14
tp1145
atp1146
a(S'estos'
p1147
(dp1148
S'PRON'
p1149
F1.0
s(lp1150
tp1151
a(S'momentos'
p1152
(dp1153
S'NOUN'
p1154
F1.0
s(lp1155
(g159
I15
tp1156
atp1157
a(S'de'
p1158
(dp1159
g682
F2.9e-05
sS'CONJ'
p1160
F0.000449
sS'ADP'
p1161
F0.999522
s(lp1162
(g166
I16
tp1163
atp1164
a(S'crisis'
p1165
(dp1166
S'NOUN'
p1167
F1.0
s(lp1168
(g173
I17
tp1169
atp1170
a(g176
(dp1171
g176
F1.0
s(lp1172
(g176
I18
tp1173
atp1174
as.