(dp0
S'fr'
p1
(lp2
(S'il'
p3
(dp4
S'PRON'
p5
F1.0
s(lp6
(S'it'
p7
I0
tp8
atp9
a(S'est'
p10
(dp11
S'VERB'
p12
F0.999997
sS'NOUN'
p13
F3e-06
s(lp14
(S'is'
p15
I1
tp16
atp17
a(S'\xc3\xa9galement'
p18
(dp19
S'ADV'
p20
F1.0
s(lp21
(S'also'
p22
I2
tp23
atp24
a(S'inqui\xc3\xa9tant'
p25
(dp26
S'VERB'
p27
F0.573289
sS'ADJ'
p28
F0.426711
s(lp29
tp30
a(S'de'
p31
(dp32
S'ADP'
p33
F1.0
s(lp34
tp35
a(S'constater'
p36
(dp37
S'VERB'
p38
F1.0
s(lp39
(S'worrying'
p40
I3
tp41
atp42
a(S'que'
p43
(dp44
S'ADV'
p45
F0.011897
sS'PRON'
p46
F0.008825
sS'CONJ'
p47
F0.979279
s(lp48
(S'that'
p49
I4
tp50
atp51
a(S'ce'
p52
(dp53
S'PRON'
p54
F1.0
s(lp55
(S'this'
p56
I5
tp57
atp58
a(S'syst\xc3\xa8me'
p59
(dp60
S'NOUN'
p61
F1.0
s(lp62
(S'system'
p63
I6
tp64
atp65
a(S'donne'
p66
(dp67
S'VERB'
p68
F0.9984069999999999
sS'NOUN'
p69
F0.001592
s(lp70
(S'gives'
p71
I7
tp72
atp73
a(S'lieu'
p74
(dp75
S'NOUN'
p76
F1.0
s(lp77
(S'rise'
p78
I8
tp79
atp80
a(S'\xc3\xa0'
p81
(dp82
S'ADP'
p83
F1.0
s(lp84
(S'to'
p85
I9
tp86
atp87
a(S'des'
p88
(dp89
S'DET'
p90
F0.00067
sS'ADP'
p91
F0.99933
s(lp92
tp93
a(S'formes'
p94
(dp95
S'VERB'
p96
F0.0
sS'NOUN'
p97
F1.0
s(lp98
(S'forms'
p99
I11
tp100
atp101
a(S'complexes'
p102
(dp103
S'NOUN'
p104
F0.010785
sS'VERB'
p105
F0.002961
sS'ADJ'
p106
F0.986254
s(lp107
(S'complex'
p108
I10
tp109
atp110
a(S'de'
p111
(dp112
S'ADP'
p113
F1.0
s(lp114
(S'of'
p115
I12
tp116
atp117
a(S'fraude'
p118
(dp119
S'VERB'
p120
F0.000682
sS'NOUN'
p121
F0.999318
s(lp122
(S'fraud'
p123
I13
tp124
atp125
a(S','
p126
(dp127
S'.'
p128
F1.0
s(lp129
(g126
I14
tp130
atp131
a(S'telle'
p132
(dp133
S'PRON'
p134
F0.996591
sS'NOUN'
p135
F0.003409
s(lp136
(S'such'
p137
I15
tp138
atp139
a(S'que'
p140
(dp141
S'ADV'
p142
F0.010504
sS'PRON'
p143
F0.898244
sS'CONJ'
p144
F0.091253
s(lp145
(S'as'
p146
I16
tp147
atp148
a(S'la'
p149
(dp150
S'PRON'
p151
F0.034839
sS'DET'
p152
F0.965161
sS'NOUN'
p153
F0.0
s(lp154
tp155
a(S'fraude'
p156
(dp157
S'VERB'
p158
F0.035033999999999996
sS'NOUN'
p159
F0.964966
s(lp160
(S'fraud'
p161
I18
tp162
atp163
a(S'tournante'
p164
(dp165
S'NOUN'
p166
F0.031427
sS'ADJ'
p167
F0.968573
s(lp168
(S'carousel'
p169
I17
tp170
atp171
a(S'dont'
p172
(dp173
S'PRON'
p174
F1.0
s(lp175
(S'which'
p176
I20
tp177
atp178
a(S'nous'
p179
(dp180
S'PRON'
p181
F1.0
s(lp182
tp183
a(S'avons'
p184
(dp185
S'VERB'
p186
F1.0
s(lp187
(S'we'
p188
I21
tp189
atp190
a(S'r\xc3\xa9cemment'
p191
(dp192
S'ADV'
p193
F1.0
s(lp194
(S'recently'
p195
I23
tp196
atp197
a(S'discut\xc3\xa9'
p198
(dp199
S'VERB'
p200
F1.0
s(lp201
(S'discussed'
p202
I22
tp203
atp204
a(S'au'
p205
(dp206
S'ADP'
p207
F1.0
s(lp208
tp209
a(S'sein'
p210
(dp211
S'NOUN'
p212
F1.0
s(lp213
(S'within'
p214
I24
tp215
atp216
a(S'de'
p217
(dp218
S'ADP'
p219
F1.0
s(lp220
tp221
a(S'ce'
p222
(dp223
S'PRON'
p224
F1.0
s(lp225
(S'this'
p226
I25
tp227
atp228
a(S'parlement'
p229
(dp230
S'NOUN'
p231
F1.0
s(lp232
(S'parliament'
p233
I27
tp234
atp235
a(g128
(dp236
g128
F1.0
s(lp237
(g128
I28
tp238
atp239
asS'en'
p240
(lp241
(g7
(dp242
S'PRON'
p243
F1.0
s(lp244
(g7
I0
tp245
atp246
a(g15
(dp247
S'VERB'
p248
F1.0
s(lp249
(g15
I1
tp250
atp251
a(g22
(dp252
S'ADV'
p253
F1.0
s(lp254
(g22
I2
tp255
atp256
a(g40
(dp257
S'VERB'
p258
F0.949413
sS'ADJ'
p259
F0.050587
s(lp260
(g40
I3
tp261
atp262
a(g49
(dp263
S'ADV'
p264
F0.000717
sS'DET'
p265
F0.000401
sS'ADP'
p266
F0.998881
s(lp267
(g49
I4
tp268
atp269
a(g56
(dp270
S'ADV'
p271
F3e-06
sS'NOUN'
p272
F2.6e-05
sS'DET'
p273
F0.999971
s(lp274
(g56
I5
tp275
atp276
a(g63
(dp277
S'NOUN'
p278
F1.0
s(lp279
(g63
I6
tp280
atp281
a(g71
(dp282
S'VERB'
p283
F1.0
s(lp284
(g71
I7
tp285
atp286
a(g78
(dp287
S'VERB'
p288
F0.42085100000000003
sS'NOUN'
p289
F0.579149
s(lp290
(g78
I8
tp291
atp292
a(g85
(dp293
S'ADV'
p294
F2e-06
sS'PRT'
p295
F0.999991
sS'ADP'
p296
F6e-06
s(lp297
(g85
I9
tp298
atp299
a(g108
(dp300
S'NOUN'
p301
F0.056882
sS'ADJ'
p302
F0.943118
s(lp303
(g108
I10
tp304
atp305
a(g99
(dp306
S'VERB'
p307
F0.001086
sS'NOUN'
p308
F0.998914
s(lp309
(g99
I11
tp310
atp311
a(g115
(dp312
S'ADP'
p313
F1.0
s(lp314
(g115
I12
tp315
atp316
a(g123
(dp317
S'NOUN'
p318
F1.0
s(lp319
(g123
I13
tp320
atp321
a(g126
(dp322
g128
F1.0
s(lp323
(g126
I14
tp324
atp325
a(g137
(dp326
S'ADV'
p327
F0.001865
sS'DET'
p328
F3.2e-05
sS'ADJ'
p329
F0.99792
sS'ADP'
p330
F0.000183
s(lp331
(g137
I15
tp332
atp333
a(g146
(dp334
S'ADV'
p335
F0.007487
sS'ADP'
p336
F0.992513
s(lp337
(g146
I16
tp338
atp339
a(g169
(dp340
S'NOUN'
p341
F1.0
s(lp342
(g169
I17
tp343
atp344
a(g161
(dp345
S'NOUN'
p346
F1.0
s(lp347
(g161
I18
tp348
atp349
a(g126
(dp350
g128
F1.0
s(lp351
(g126
I19
tp352
atp353
a(g176
(dp354
S'DET'
p355
F1.0
s(lp356
(g176
I20
tp357
atp358
a(g188
(dp359
S'PRON'
p360
F1.0
s(lp361
(g188
I21
tp362
atp363
a(g202
(dp364
S'VERB'
p365
F1.0
s(lp366
(g202
I22
tp367
atp368
a(g195
(dp369
S'ADV'
p370
F1.0
s(lp371
(g195
I23
tp372
atp373
a(g214
(dp374
S'ADV'
p375
F0.000553
sS'ADP'
p376
F0.999447
s(lp377
(g214
I24
tp378
atp379
a(g226
(dp380
S'ADV'
p381
F8e-05
sS'NOUN'
p382
F1.5e-05
sS'DET'
p383
F0.999904
s(lp384
(g226
I25
tp385
atp386
a(S'very'
p387
(dp388
S'ADV'
p389
F0.085418
sS'ADJ'
p390
F0.914582
s(lp391
(g387
I26
tp392
atp393
a(g233
(dp394
S'NOUN'
p395
F1.0
s(lp396
(g233
I27
tp397
atp398
a(g128
(dp399
g128
F1.0
s(lp400
(g128
I28
tp401
atp402
asS'nl'
p403
(lp404
(S'het'
p405
(dp406
S'PRON'
p407
F0.962086
sS'DET'
p408
F0.037914
s(lp409
(g7
I0
tp410
atp411
a(S'is'
p412
(dp413
S'VERB'
p414
F1.0
s(lp415
(g15
I1
tp416
atp417
a(S'ook'
p418
(dp419
S'ADV'
p420
F1.0
s(lp421
(g22
I2
tp422
atp423
a(S'zorgwekkend'
p424
(dp425
S'ADJ'
p426
F1.0
s(lp427
(g40
I3
tp428
atp429
a(S'dat'
p430
(dp431
S'PRON'
p432
F0.000173
sS'CONJ'
p433
F0.999826
s(lp434
(g49
I4
tp435
atp436
a(S'deze'
p437
(dp438
S'PRON'
p439
F1.0
s(lp440
(g56
I5
tp441
atp442
a(S'regeling'
p443
(dp444
S'NOUN'
p445
F1.0
s(lp446
(g63
I6
tp447
atp448
a(S'complexe'
p449
(dp450
S'NOUN'
p451
F0.019341
sS'ADJ'
p452
F0.980659
s(lp453
(g108
I10
tp454
atp455
a(S'vormen'
p456
(dp457
S'VERB'
p458
F0.210582
sS'NOUN'
p459
F0.789418
s(lp460
(g99
I11
tp461
atp462
a(S'van'
p463
(dp464
S'ADP'
p465
F1.0
s(lp466
(g115
I12
tp467
atp468
a(S'fraude'
p469
(dp470
S'NOUN'
p471
F1.0
s(lp472
(g123
I13
tp473
atp474
a(S'in'
p475
(dp476
S'ADV'
p477
F0.002979
sS'VERB'
p478
F2e-06
sS'ADP'
p479
F0.997018
s(lp480
tp481
a(S'de'
p482
(dp483
S'DET'
p484
F1.0
s(lp485
tp486
a(S'hand'
p487
(dp488
S'NOUN'
p489
F1.0
s(lp490
tp491
a(S'werkt'
p492
(dp493
S'VERB'
p494
F1.0
s(lp495
(g123
I13
tp496
atp497
a(g126
(dp498
g128
F1.0
s(lp499
(g126
I14
tp500
atp501
a(S'zoals'
p502
(dp503
S'CONJ'
p504
F1.0
s(lp505
(g137
I15
tp506
atp507
a(S'carrouselfraude'
p508
(dp509
S'NOUN'
p510
F1.0
s(lp511
(g169
I17
tp512
atp513
a(g126
(dp514
g128
F1.0
s(lp515
(g126
I19
tp516
atp517
a(S'die'
p518
(dp519
S'PRON'
p520
F1.0
s(lp521
(g176
I20
tp522
atp523
a(S'we'
p524
(dp525
S'PRON'
p526
F1.0
s(lp527
(g188
I21
tp528
atp529
a(S'onlangs'
p530
(dp531
S'ADV'
p532
F1.0
s(lp533
(g195
I23
tp534
atp535
a(S'hier'
p536
(dp537
S'ADV'
p538
F1.0
s(lp539
(g202
I22
tp540
atp541
a(S'in'
p542
(dp543
S'ADV'
p544
F0.004911
sS'VERB'
p545
F1e-06
sS'ADP'
p546
F0.995088
s(lp547
(g214
I24
tp548
atp549
a(S'dit'
p550
(dp551
S'PRON'
p552
F1.0
s(lp553
(g226
I25
tp554
atp555
a(S'parlement'
p556
(dp557
S'NOUN'
p558
F1.0
s(lp559
(g233
I27
tp560
atp561
a(S'hebben'
p562
(dp563
S'VERB'
p564
F1.0
sS'NOUN'
p565
F0.0
s(lp566
tp567
a(S'besproken'
p568
(dp569
S'VERB'
p570
F1.0
s(lp571
(g202
I22
tp572
atp573
a(g128
(dp574
g128
F1.0
s(lp575
(g128
I28
tp576
atp577
asS'de'
p578
(lp579
(S'besorgnis'
p580
(dp581
S'ADJ'
p582
F0.01261
sS'NOUN'
p583
F0.986297
s(lp584
tp585
a(S'erregend'
p586
(dp587
S'ADJ'
p588
F1.0
s(lp589
(g40
I3
tp590
atp591
a(S'ist'
p592
(dp593
S'VERB'
p594
F1.0
s(lp595
(g15
I1
tp596
atp597
a(S'ferner'
p598
(dp599
S'ADJ'
p600
F1.0
s(lp601
(g22
I2
tp602
atp603
a(g126
(dp604
g128
F1.0
s(lp605
tp606
a(S'dass'
p607
(dp608
S'CONJ'
p609
F1.0
s(lp610
(g49
I4
tp611
atp612
a(S'dieses'
p613
(dp614
S'PRON'
p615
F1.0
s(lp616
(g56
I5
tp617
atp618
a(S'system'
p619
(dp620
S'ADJ'
p621
F0.421499
sS'NOUN'
p622
F0.526573
s(lp623
(g63
I6
tp624
atp625
a(S'komplexe'
p626
(dp627
S'ADJ'
p628
F1.0
s(lp629
(g108
I10
tp630
atp631
a(S'arten'
p632
(dp633
S'VERB'
p634
F1.0
s(lp635
(g99
I11
tp636
atp637
a(S'des'
p638
(dp639
S'DET'
p640
F1.0
s(lp641
(g115
I12
tp642
atp643
a(S'betrugs'
p644
(dp645
S'ADJ'
p646
F0.000168
sS'NOUN'
p647
F0.999698
s(lp648
(g123
I13
tp649
atp650
a(S'erm\xc3\xb6glicht'
p651
(dp652
S'VERB'
p653
F0.9836050000000001
s(lp654
(g71
I7
tp655
atp656
a(g126
(dp657
g128
F1.0
s(lp658
(g126
I14
tp659
atp660
a(S'wie'
p661
(dp662
S'CONJ'
p663
F0.997471
s(lp664
(g146
I16
tp665
atp666
a(S'etwa'
p667
(dp668
S'ADV'
p669
F1.0
s(lp670
(g137
I15
tp671
atp672
a(S'den'
p673
(dp674
S'PRON'
p675
F0.000346
sS'DET'
p676
F0.999654
s(lp677
tp678
a(S'karussellbetrug'
p679
(dp680
S'ADJ'
p681
F0.001315
sS'NOUN'
p682
F0.998071
s(lp683
(g169
I17
tp684
atp685
a(g126
(dp686
g128
F1.0
s(lp687
(g126
I19
tp688
atp689
a(S'\xc3\xbcber'
p690
(dp691
S'PRT'
p692
F0.000112
sS'ADP'
p693
F0.999888
s(lp694
(g202
I22
tp695
atp696
a(S'den'
p697
(dp698
S'PRON'
p699
F0.032813
sS'DET'
p700
F0.950836
s(lp701
(g176
I20
tp702
atp703
a(S'wir'
p704
(dp705
S'PRON'
p706
F1.0
s(lp707
(g188
I21
tp708
atp709
a(S'erst'
p710
(dp711
S'ADV'
p712
F0.999932
sS'ADJ'
p713
F6.8e-05
s(lp714
(g195
I23
tp715
atp716
a(S'vor'
p717
(dp718
S'ADV'
p719
F0.027709
sS'ADP'
p720
F0.967855
s(lp721
(g195
I23
tp722
atp723
a(S'kurzer'
p724
(dp725
S'ADJ'
p726
F1.0
s(lp727
tp728
a(S'zeit'
p729
(dp730
S'ADP'
p731
F1.0
s(lp732
(g195
I23
tp733
atp734
a(S'hier'
p735
(dp736
S'ADV'
p737
F0.999962
sS'PRT'
p738
F3.8e-05
s(lp739
(g226
I25
tp740
atp741
a(S'im'
p742
(dp743
S'ADP'
p744
F1.0
s(lp745
(g214
I24
tp746
atp747
a(S'parlament'
p748
(dp749
S'ADJ'
p750
F0.012071
sS'NOUN'
p751
F0.976516
s(lp752
(g233
I27
tp753
atp754
a(S'diskutiert'
p755
(dp756
S'VERB'
p757
F1.0
s(lp758
tp759
a(S'haben'
p760
(dp761
S'VERB'
p762
F0.9999790000000001
s(lp763
(g202
I22
tp764
atp765
a(g128
(dp766
g128
F1.0
s(lp767
(g128
I28
tp768
atp769
asS'it'
p770
(lp771
(S'inoltre'
p772
(dp773
S'ADV'
p774
F1.0
s(lp775
(g22
I2
tp776
atp777
a(g126
(dp778
g128
F1.0
s(lp779
tp780
a(S'trovo'
p781
(dp782
S'VERB'
p783
F1.0
s(lp784
(g40
I3
tp785
atp786
a(S'preoccupante'
p787
(dp788
S'VERB'
p789
F0.000529
sS'ADJ'
p790
F0.999471
s(lp791
tp792
a(S'il'
p793
(dp794
S'DET'
p795
F1.0
s(lp796
tp797
a(S'fatto'
p798
(dp799
S'VERB'
p800
F0.010537
sS'NOUN'
p801
F0.989463
s(lp802
(g40
I3
tp803
atp804
a(S'che'
p805
(dp806
S'PRON'
p807
F0.853046
sS'CONJ'
p808
F0.145755
sS'ADJ'
p809
F0.001199
s(lp810
(g49
I4
tp811
atp812
a(S'questo'
p813
(dp814
S'PRON'
p815
F1.0
s(lp816
(g56
I5
tp817
atp818
a(S'sistema'
p819
(dp820
S'VERB'
p821
F0.001425
sS'NOUN'
p822
F0.998575
s(lp823
(g63
I6
tp824
atp825
a(S'consente'
p826
(dp827
S'VERB'
p828
F1.0
s(lp829
(g71
I7
tp830
atp831
a(S'forme'
p832
(dp833
S'NOUN'
p834
F1.0
s(lp835
(g99
I11
tp836
atp837
a(S'piuttosto'
p838
(dp839
S'ADV'
p840
F1.0
s(lp841
(g169
I17
tp842
atp843
a(S'complesse'
p844
(dp845
S'ADJ'
p846
F1.0
s(lp847
(g108
I10
tp848
atp849
a(S'di'
p850
(dp851
S'CONJ'
p852
F5e-06
sS'ADP'
p853
F0.999995
s(lp854
(g115
I12
tp855
atp856
a(S'frodi'
p857
(dp858
S'VERB'
p859
F0.00263
sS'NOUN'
p860
F0.997369
s(lp861
(g123
I13
tp862
atp863
a(g126
(dp864
g128
F1.0
s(lp865
(g126
I14
tp866
atp867
a(S'come'
p868
(dp869
S'PRON'
p870
F0.007157
sS'CONJ'
p871
F0.73984
sS'NOUN'
p872
F5.3e-05
sS'ADP'
p873
F0.252951
s(lp874
(g146
I16
tp875
atp876
a(S'le'
p877
(dp878
S'PRON'
p879
F0.000878
sS'DET'
p880
F0.999122
s(lp881
tp882
a(S'cosiddette'
p883
(dp884
S'ADJ'
p885
F1.0
s(lp886
(g169
I17
tp887
atp888
a(S'"'
p889
(dp890
g128
F1.0
s(lp891
(g169
I17
tp892
atp893
a(S'frodi'
p894
(dp895
S'VERB'
p896
F0.274439
sS'NOUN'
p897
F0.725562
s(lp898
(g161
I18
tp899
atp900
a(S'carosello'
p901
(dp902
S'NOUN'
p903
F1.0
s(lp904
tp905
a(S'\xe2\x80\x9d'
p906
(dp907
S'ADJ'
p908
F0.043897
sS'NOUN'
p909
F0.956103
s(lp910
(g169
I17
tp911
atp912
a(g126
(dp913
g128
F1.0
s(lp914
(g126
I19
tp915
atp916
a(S'recentemente'
p917
(dp918
S'ADV'
p919
F1.0
s(lp920
(g195
I23
tp921
atp922
a(S'discusse'
p923
(dp924
S'VERB'
p925
F0.7735690000000001
sS'ADJ'
p926
F0.226431
s(lp927
(g202
I22
tp928
atp929
a(S'in'
p930
(dp931
S'ADP'
p932
F1.0
s(lp933
(g214
I24
tp934
atp935
a(S'questa'
p936
(dp937
S'PRON'
p938
F1.0
s(lp939
(g226
I25
tp940
atp941
a(S'stessa'
p942
(dp943
S'ADJ'
p944
F1.0
s(lp945
(g387
I26
tp946
atp947
a(S'assemblea'
p948
(dp949
S'NOUN'
p950
F1.0
s(lp951
(g233
I27
tp952
atp953
a(g128
(dp954
g128
F1.0
s(lp955
(g128
I28
tp956
atp957
asS'sk'
p958
(lp959
(S'znepokojuje'
p960
(dp961
S'VERB'
p962
F1.0
s(lp963
tp964
a(S'n\xc3\xa1s'
p965
(dp966
S'PRON'
p967
F0.997815
sS'X'
p968
F0.002185
s(lp969
(g40
I3
tp970
atp971
a(S'aj'
p972
(dp973
g968
F0.706643
sS'CONJ'
p974
F0.293357
s(lp975
(g22
I2
tp976
atp977
a(S'to'
p978
(dp979
S'PRON'
p980
F0.977177
sS'CONJ'
p981
F0.000469
sg968
F0.022354
s(lp982
(g7
I0
tp983
atp984
a(g126
(dp985
g128
F1.0
s(lp986
tp987
a(S'\xc5\xbee'
p988
(dp989
g968
F0.000353
sS'CONJ'
p990
F0.999647
s(lp991
(g49
I4
tp992
atp993
a(S'tento'
p994
(dp995
S'PRON'
p996
F0.999982
sg968
F1.8e-05
s(lp997
(g56
I5
tp998
atp999
a(S'syst\xc3\xa9m'
p1000
(dp1001
S'NOUN'
p1002
F1.0
s(lp1003
(g63
I6
tp1004
atp1005
a(S'vedie'
p1006
(dp1007
S'VERB'
p1008
F1.0
s(lp1009
(g71
I7
tp1010
atp1011
a(S'k'
p1012
(dp1013
g968
F0.000147
sS'NOUN'
p1014
F1.4000000000000001e-05
sS'ADP'
p1015
F0.999839
s(lp1016
(g85
I9
tp1017
atp1018
a(S'r\xc3\xb4znym'
p1019
(dp1020
S'ADJ'
p1021
F1.0
s(lp1022
(g99
I11
tp1023
atp1024
a(S'podvodom'
p1025
(dp1026
S'NOUN'
p1027
F1.0
s(lp1028
(g123
I13
tp1029
atp1030
a(g126
(dp1031
g128
F1.0
s(lp1032
(g126
I14
tp1033
atp1034
a(S'ako'
p1035
(dp1036
S'PRON'
p1037
F0.058767
sS'CONJ'
p1038
F0.941089
sg968
F0.000144
s(lp1039
(g146
I16
tp1040
atp1041
a(S's\xc3\xba'
p1042
(dp1043
S'VERB'
p1044
F1.0
s(lp1045
(g137
I15
tp1046
atp1047
a(S'koloto\xc4\x8dov\xc3\xa9'
p1048
(dp1049
S'NOUN'
p1050
F0.018306
sS'ADJ'
p1051
F0.981694
s(lp1052
(g169
I17
tp1053
atp1054
a(S'podvody'
p1055
(dp1056
S'NOUN'
p1057
F1.0
s(lp1058
(g161
I18
tp1059
atp1060
a(g126
(dp1061
g128
F1.0
s(lp1062
(g126
I19
tp1063
atp1064
a(S'o'
p1065
(dp1066
g968
F0.00020999999999999998
sS'CONJ'
p1067
F0.00254
sS'NOUN'
p1068
F1.3000000000000001e-05
sS'ADP'
p1069
F0.997237
s(lp1070
tp1071
a(S'ktor\xc3\xbdch'
p1072
(dp1073
S'PRON'
p1074
F1.0
s(lp1075
(g176
I20
tp1076
atp1077
a(S'sme'
p1078
(dp1079
g968
F4e-06
sS'VERB'
p1080
F0.999996
s(lp1081
(g188
I21
tp1082
atp1083
a(S'v'
p1084
(dp1085
g968
F3.1e-05
sS'ADP'
p1086
F0.999968
s(lp1087
(g214
I24
tp1088
atp1089
a(S'tomto'
p1090
(dp1091
S'PRON'
p1092
F1.0
s(lp1093
(g226
I25
tp1094
atp1095
a(S'parlamente'
p1096
(dp1097
S'NOUN'
p1098
F1.0
s(lp1099
(g233
I27
tp1100
atp1101
a(S'ned\xc3\xa1vno'
p1102
(dp1103
S'ADV'
p1104
F1.0
s(lp1105
(g195
I23
tp1106
atp1107
a(S'hovorili'
p1108
(dp1109
S'VERB'
p1110
F0.9999999999999999
s(lp1111
(g202
I22
tp1112
atp1113
a(g128
(dp1114
g128
F1.0
s(lp1115
(g128
I28
tp1116
atp1117
asS'pl'
p1118
(lp1119
(S'niepokoi'
p1120
(dp1121
S'VERB'
p1122
F1.0
s(lp1123
(g40
I3
tp1124
atp1125
a(S'r\xc3\xb3wnie\xc5\xbc'
p1126
(dp1127
S'PRT'
p1128
F0.983412
sS'CONJ'
p1129
F0.016588
s(lp1130
(g22
I2
tp1131
atp1132
a(S'to'
p1133
(dp1134
S'NOUN'
p1135
F0.430265
sS'ADP'
p1136
F2.5e-05
sS'PRT'
p1137
F0.058864
sg968
F9e-06
sS'CONJ'
p1138
F0.018787
sS'ADJ'
p1139
F0.492052
s(lp1140
(g7
I0
tp1141
atp1142
a(g126
(dp1143
g968
F0.0
sg128
F1.0
s(lp1144
tp1145
a(S'\xc5\xbce'
p1146
(dp1147
S'PRT'
p1148
F0.000145
sS'CONJ'
p1149
F0.999856
s(lp1150
(g49
I4
tp1151
atp1152
a(S'system'
p1153
(dp1154
S'NOUN'
p1155
F1.0
s(lp1156
(g63
I6
tp1157
atp1158
a(S'ten'
p1159
(dp1160
S'PRT'
p1161
F0.001663
sS'ADJ'
p1162
F0.997843
sg968
F0.000493
s(lp1163
(g56
I5
tp1164
atp1165
a(S'powoduje'
p1166
(dp1167
S'VERB'
p1168
F1.0
s(lp1169
(g78
I8
tp1170
atp1171
a(S'wyst\xc4\x99powanie'
p1172
(dp1173
S'VERB'
p1174
F0.673898
sS'NOUN'
p1175
F0.326102
s(lp1176
tp1177
a(S'z\xc5\x82o\xc5\xbconych'
p1178
(dp1179
S'VERB'
p1180
F0.970718
sS'ADJ'
p1181
F0.029282000000000002
s(lp1182
(g108
I10
tp1183
atp1184
a(S'nadu\xc5\xbcy\xc4\x87'
p1185
(dp1186
S'NOUN'
p1187
F1.0
s(lp1188
tp1189
a(S'finansowych'
p1190
(dp1191
S'ADJ'
p1192
F1.0000019999999998
s(lp1193
(g123
I13
tp1194
atp1195
a(g126
(dp1196
g968
F0.0
sg128
F1.0
s(lp1197
(g126
I14
tp1198
atp1199
a(S'takich'
p1200
(dp1201
S'ADJ'
p1202
F1.000001
s(lp1203
(g137
I15
tp1204
atp1205
a(S'jak'
p1206
(dp1207
S'ADV'
p1208
F0.174433
sS'PRT'
p1209
F0.000136
sS'CONJ'
p1210
F0.055385000000000004
sS'ADP'
p1211
F0.770044
sS'PRON'
p1212
F2e-06
s(lp1213
(g146
I16
tp1214
atp1215
a(S'oszustwa'
p1216
(dp1217
S'NOUN'
p1218
F1.0
s(lp1219
(g161
I18
tp1220
atp1221
a(S'karuzelowe'
p1222
(dp1223
S'ADV'
p1224
F0.000584
sS'NOUN'
p1225
F0.016118999999999994
sS'VERB'
p1226
F0.008949
sS'ADJ'
p1227
F0.974347
s(lp1228
(g169
I17
tp1229
atp1230
a(g126
(dp1231
g968
F0.0
sg128
F1.0
s(lp1232
(g126
I19
tp1233
atp1234
a(S'kt\xc3\xb3re'
p1235
(dp1236
S'ADJ'
p1237
F1.0000010000000001
s(lp1238
(g176
I20
tp1239
atp1240
a(S'omawiali\xc5\x9bmy'
p1241
(dp1242
S'ADJ'
p1243
F0.005601
sS'VERB'
p1244
F0.7806960000000002
sS'NOUN'
p1245
F0.213704
s(lp1246
(g202
I22
tp1247
atp1248
a(S'ostatnio'
p1249
(dp1250
S'ADV'
p1251
F1.0
s(lp1252
(g195
I23
tp1253
atp1254
a(S'w'
p1255
(dp1256
S'ADJ'
p1257
F0.0
sg968
F0.0
sS'NOUN'
p1258
F0.0
sS'ADP'
p1259
F0.999999
s(lp1260
(g214
I24
tp1261
atp1262
a(S'parlamencie'
p1263
(dp1264
S'NOUN'
p1265
F1.0
s(lp1266
(g233
I27
tp1267
atp1268
a(g128
(dp1269
g128
F1.0
s(lp1270
(g128
I28
tp1271
atp1272
asS'sl'
p1273
(lp1274
(S'prav'
p1275
(dp1276
S'ADV'
p1277
F0.125324
sS'PRT'
p1278
F0.87255
sS'VERB'
p1279
F0.002125
s(lp1280
tp1281
a(S'tako'
p1282
(dp1283
S'ADV'
p1284
F0.893105
sS'PRON'
p1285
F0.028749999999999998
sS'CONJ'
p1286
F0.078145
s(lp1287
(g22
I2
tp1288
atp1289
a(S'je'
p1290
(dp1291
S'PRON'
p1292
F0.000784
sS'VERB'
p1293
F0.999216
sg968
F0.0
s(lp1294
(g15
I1
tp1295
atp1296
a(S'zaskrbljujo\xc4\x8de'
p1297
(dp1298
S'ADJ'
p1299
F1.0
s(lp1300
(g40
I3
tp1301
atp1302
a(g126
(dp1303
g128
F1.0
s(lp1304
tp1305
a(S'da'
p1306
(dp1307
S'PRT'
p1308
F6.1e-05
sS'CONJ'
p1309
F0.999311
sS'VERB'
p1310
F0.000627
sg968
F1e-06
s(lp1311
(g49
I4
tp1312
atp1313
a(S'ta'
p1314
(dp1315
S'PRON'
p1316
F0.9999999999999999
s(lp1317
(g56
I5
tp1318
atp1319
a(S'sistem'
p1320
(dp1321
S'NOUN'
p1322
F1.0
s(lp1323
(g63
I6
tp1324
atp1325
a(S'prispeva'
p1326
(dp1327
S'VERB'
p1328
F1.0
s(lp1329
(g71
I7
tp1330
atp1331
a(g1012
(dp1332
S'NOUN'
p1333
F0.001045
sS'ADP'
p1334
F0.998955
s(lp1335
(g85
I9
tp1336
atp1337
a(S'\xc5\xa1iritvi'
p1338
(dp1339
S'NOUN'
p1340
F1.0
s(lp1341
(g169
I17
tp1342
atp1343
a(S'zapletenih'
p1344
(dp1345
S'ADJ'
p1346
F1.0
s(lp1347
(g108
I10
tp1348
atp1349
a(S'oblik'
p1350
(dp1351
S'NOUN'
p1352
F1.0
s(lp1353
(g99
I11
tp1354
atp1355
a(S'goljufij'
p1356
(dp1357
S'NOUN'
p1358
F1.0
s(lp1359
(g123
I13
tp1360
atp1361
a(g126
(dp1362
g128
F1.0
s(lp1363
(g126
I14
tp1364
atp1365
a(S'kot'
p1366
(dp1367
S'CONJ'
p1368
F0.999971
sS'NOUN'
p1369
F2.8e-05
s(lp1370
(g146
I16
tp1371
atp1372
a(S'je'
p1373
(dp1374
S'PRON'
p1375
F0.00369
sS'VERB'
p1376
F0.996309
sg968
F1e-06
s(lp1377
(g137
I15
tp1378
atp1379
a(S'dav\xc4\x8dni'
p1380
(dp1381
S'ADJ'
p1382
F0.9999999999999999
s(lp1383
tp1384
a(S'vrtiljak'
p1385
(dp1386
S'NOUN'
p1387
F1.0
s(lp1388
(g169
I17
tp1389
atp1390
a(g126
(dp1391
g128
F1.0
s(lp1392
(g126
I19
tp1393
atp1394
a(g1065
(dp1395
S'NOUN'
p1396
F7.1e-05
sS'ADP'
p1397
F0.999929
s(lp1398
tp1399
a(S'katerih'
p1400
(dp1401
S'PRON'
p1402
F1.0
s(lp1403
(g176
I20
tp1404
atp1405
a(S'smo'
p1406
(dp1407
g968
F8.4e-05
sS'VERB'
p1408
F0.999916
s(lp1409
(g188
I21
tp1410
atp1411
a(S'pred'
p1412
(dp1413
S'ADP'
p1414
F1.0
s(lp1415
tp1416
a(S'kratkim'
p1417
(dp1418
S'ADJ'
p1419
F1.0
s(lp1420
(g195
I23
tp1421
atp1422
a(S'razpravljali'
p1423
(dp1424
S'VERB'
p1425
F1.0
s(lp1426
(g202
I22
tp1427
atp1428
a(g1084
(dp1429
S'ADP'
p1430
F1.0
s(lp1431
(g214
I24
tp1432
atp1433
a(S'parlamentu'
p1434
(dp1435
S'NOUN'
p1436
F1.0
s(lp1437
(g233
I27
tp1438
atp1439
a(g128
(dp1440
g128
F1.0
s(lp1441
(g128
I28
tp1442
atp1443
asS'es'
p1444
(lp1445
(S'adem\xc3\xa1s'
p1446
(dp1447
S'ADV'
p1448
F1.0
s(lp1449
(g22
I2
tp1450
atp1451
a(g126
(dp1452
g128
F1.0
s(lp1453
(g7
I0
tp1454
atp1455
a(S'es'
p1456
(dp1457
S'VERB'
p1458
F1.0
s(lp1459
(g15
I1
tp1460
atp1461
a(S'preocupante'
p1462
(dp1463
S'ADJ'
p1464
F1.0
s(lp1465
(g40
I3
tp1466
atp1467
a(S'que'
p1468
(dp1469
g968
F0.0
sS'CONJ'
p1470
F1.0
s(lp1471
(g49
I4
tp1472
atp1473
a(S'este'
p1474
(dp1475
S'PRON'
p1476
F0.999994
sS'NOUN'
p1477
F6e-06
s(lp1478
(g56
I5
tp1479
atp1480
a(S'sistema'
p1481
(dp1482
S'NOUN'
p1483
F1.0
s(lp1484
(g63
I6
tp1485
atp1486
a(S'suponga'
p1487
(dp1488
S'VERB'
p1489
F1.0
s(lp1490
(g71
I7
tp1491
atp1492
a(S'un'
p1493
(dp1494
g968
F1e-06
sS'DET'
p1495
F0.999999
s(lp1496
tp1497
a(S'incremento'
p1498
(dp1499
S'NOUN'
p1500
F1.0
s(lp1501
(g78
I8
tp1502
atp1503
a(S'de'
p1504
(dp1505
g968
F0.000301
sS'CONJ'
p1506
F0.000813
sS'ADP'
p1507
F0.998886
s(lp1508
(g85
I9
tp1509
atp1510
a(S'complejas'
p1511
(dp1512
S'ADJ'
p1513
F1.0
s(lp1514
(g108
I10
tp1515
atp1516
a(S'formas'
p1517
(dp1518
S'NOUN'
p1519
F1.0
s(lp1520
(g99
I11
tp1521
atp1522
a(S'de'
p1523
(dp1524
g968
F2.9e-05
sS'CONJ'
p1525
F0.000449
sS'ADP'
p1526
F0.999522
s(lp1527
(g115
I12
tp1528
atp1529
a(S'fraude'
p1530
(dp1531
S'NOUN'
p1532
F1.0
s(lp1533
(g123
I13
tp1534
atp1535
a(g126
(dp1536
g128
F1.0
s(lp1537
(g126
I14
tp1538
atp1539
a(S'como'
p1540
(dp1541
S'ADV'
p1542
F0.078829
sS'CONJ'
p1543
F0.921171
s(lp1544
(g137
I15
tp1545
atp1546
a(S'el'
p1547
(dp1548
S'PRON'
p1549
F1.1e-05
sS'DET'
p1550
F0.999989
s(lp1551
tp1552
a(S'fraude'
p1553
(dp1554
S'NOUN'
p1555
F1.0
s(lp1556
(g161
I18
tp1557
atp1558
a(S'en'
p1559
(dp1560
g968
F1.8e-05
sS'CONJ'
p1561
F1e-05
sS'ADP'
p1562
F0.999972
s(lp1563
(g146
I16
tp1564
atp1565
a(S'cascada'
p1566
(dp1567
S'NOUN'
p1568
F1.0
s(lp1569
(g169
I17
tp1570
atp1571
a(g126
(dp1572
g128
F1.0
s(lp1573
(g126
I19
tp1574
atp1575
a(S'que'
p1576
(dp1577
g968
F4e-06
sS'CONJ'
p1578
F0.999996
s(lp1579
(g176
I20
tp1580
atp1581
a(S'debatimos'
p1582
(dp1583
S'VERB'
p1584
F1.0
s(lp1585
(g202
I22
tp1586
atp1587
a(S'recientemente'
p1588
(dp1589
S'ADV'
p1590
F1.0
s(lp1591
(g195
I23
tp1592
atp1593
a(S'en'
p1594
(dp1595
g968
F0.0
sS'CONJ'
p1596
F4e-06
sS'ADP'
p1597
F0.999996
s(lp1598
(g214
I24
tp1599
atp1600
a(S'este'
p1601
(dp1602
S'PRON'
p1603
F0.999806
sS'NOUN'
p1604
F0.000194
s(lp1605
(g226
I25
tp1606
atp1607
a(S'parlamento'
p1608
(dp1609
S'VERB'
p1610
F0.011859
sS'NOUN'
p1611
F0.988141
s(lp1612
(g233
I27
tp1613
atp1614
a(g128
(dp1615
g128
F1.0
s(lp1616
(g128
I28
tp1617
atp1618
as.