(dp0
S'fr'
p1
(lp2
(S'je'
p3
(dp4
S'PRON'
p5
F1.0
s(lp6
(S'i'
p7
I0
tp8
atp9
a(S'crois'
p10
(dp11
S'VERB'
p12
F1.0
s(lp13
(S'thought'
p14
I1
tp15
atp16
a(S"qu'"
p17
(dp18
S'NOUN'
p19
F0.043787
sS'VERB'
p20
F0.7697689999999999
sS'ADJ'
p21
F0.186444
s(lp22
tp23
a(S'il'
p24
(dp25
S'PRON'
p26
F1.0
s(lp27
(S'it'
p28
I2
tp29
atp30
a(S'\xc3\xa9tait'
p31
(dp32
S'VERB'
p33
F1.0
s(lp34
(S'was'
p35
I3
tp36
atp37
a(S'particuli\xc3\xa8rement'
p38
(dp39
S'ADV'
p40
F1.0
s(lp41
(S'particularly'
p42
I4
tp43
atp44
a(S'important'
p45
(dp46
S'VERB'
p47
F0.042912
sS'ADJ'
p48
F0.957088
s(lp49
(S'important'
p50
I5
tp51
atp52
a(S"d'"
p53
(dp54
S'ADJ'
p55
F0.040648
sS'VERB'
p56
F0.376873
sS'NOUN'
p57
F0.58248
s(lp58
(S'that'
p59
I9
tp60
atp61
a(S'insister'
p62
(dp63
S'VERB'
p64
F1.0
s(lp65
tp66
a(S'sur'
p67
(dp68
S'ADP'
p69
F1.0
s(lp70
(S'highlighted'
p71
I11
tp72
atp73
a(S'les'
p74
(dp75
S'PRON'
p76
F5.6e-05
sS'DET'
p77
F0.999943
sS'ADP'
p78
F2e-06
s(lp79
(S'human'
p80
I12
tp81
atp82
a(S'questions'
p83
(dp84
S'NOUN'
p85
F1.0
s(lp86
tp87
a(S'relatives'
p88
(dp89
S'NOUN'
p90
F0.018164
sS'ADJ'
p91
F0.981836
s(lp92
(S'issues'
p93
I14
tp94
atp95
a(S'aux'
p96
(dp97
S'ADP'
p98
F1.0
s(lp99
(g80
I12
tp100
atp101
a(S'droits'
p102
(dp103
S'ADJ'
p104
F0.011772
sS'NOUN'
p105
F0.988228
s(lp106
(S'rights'
p107
I13
tp108
atp109
a(S'de'
p110
(dp111
S'ADP'
p112
F1.0
s(lp113
tp114
a(S"l'"
p115
(dp116
S'ADJ'
p117
F0.160704
sS'VERB'
p118
F0.06480800000000002
sS'NOUN'
p119
F0.774488
s(lp120
tp121
a(S'homme'
p122
(dp123
S'NOUN'
p124
F1.0
s(lp125
(g80
I12
tp126
atp127
a(S'dans'
p128
(dp129
S'NOUN'
p130
F3e-06
sS'ADP'
p131
F0.999997
s(lp132
(S'in'
p133
I6
tp134
atp135
a(S'ce'
p136
(dp137
S'PRON'
p138
F1.0
s(lp139
(S'this'
p140
I7
tp141
atp142
a(S'rapport'
p143
(dp144
S'NOUN'
p145
F1.0
s(lp146
(S'report'
p147
I8
tp148
atp149
a(S'.'
p150
(dp151
g150
F1.0
s(lp152
(g150
I15
tp153
atp154
asS'en'
p155
(lp156
(g7
(dp157
S'X'
p158
F0.000667
sS'NOUN'
p159
F0.999333
s(lp160
(g7
I0
tp161
atp162
a(g14
(dp163
S'VERB'
p164
F0.987665
sS'NOUN'
p165
F0.012335
s(lp166
(g14
I1
tp167
atp168
a(g28
(dp169
S'PRON'
p170
F1.0
s(lp171
(g28
I2
tp172
atp173
a(g35
(dp174
S'VERB'
p175
F1.0
s(lp176
(g35
I3
tp177
atp178
a(g42
(dp179
S'ADV'
p180
F1.0
s(lp181
(g42
I4
tp182
atp183
a(g50
(dp184
S'ADJ'
p185
F1.0
s(lp186
(g50
I5
tp187
atp188
a(g133
(dp189
S'ADV'
p190
F0.000225
sS'PRT'
p191
F0.000213
sS'ADP'
p192
F0.999562
s(lp193
(g133
I6
tp194
atp195
a(g140
(dp196
S'ADV'
p197
F2.7e-05
sS'NOUN'
p198
F2.3e-05
sS'DET'
p199
F0.999951
s(lp200
(g140
I7
tp201
atp202
a(g147
(dp203
S'VERB'
p204
F0.016626000000000002
sS'NOUN'
p205
F0.983374
s(lp206
(g147
I8
tp207
atp208
a(g59
(dp209
S'ADV'
p210
F0.000224
sS'DET'
p211
F0.159759
sS'ADP'
p212
F0.840017
s(lp213
(g59
I9
tp214
atp215
a(S'we'
p216
(dp217
S'PRON'
p218
F1.0
s(lp219
(g216
I10
tp220
atp221
a(g71
(dp222
S'VERB'
p223
F1.0
s(lp224
(g71
I11
tp225
atp226
a(g80
(dp227
S'NOUN'
p228
F0.011602
sS'ADJ'
p229
F0.988398
s(lp230
(g80
I12
tp231
atp232
a(g107
(dp233
S'VERB'
p234
F3.8e-05
sS'NOUN'
p235
F0.999962
s(lp236
(g107
I13
tp237
atp238
a(g93
(dp239
S'VERB'
p240
F0.000935
sS'NOUN'
p241
F0.999065
s(lp242
(g93
I14
tp243
atp244
a(g150
(dp245
g150
F1.0
s(lp246
(g150
I15
tp247
atp248
asS'nl'
p249
(lp250
(S'ik'
p251
(dp252
S'PRON'
p253
F0.99997
sS'NOUN'
p254
F3e-05
s(lp255
(g7
I0
tp256
atp257
a(S'dacht'
p258
(dp259
S'VERB'
p260
F1.0
s(lp261
tp262
a(S'dat'
p263
(dp264
S'PRON'
p265
F0.0038919999999999996
sS'CONJ'
p266
F0.996107
s(lp267
(g14
I1
tp268
atp269
a(S'het'
p270
(dp271
S'PRON'
p272
F0.091154
sS'DET'
p273
F0.908845
s(lp274
(g28
I2
tp275
atp276
a(S'bijzonder'
p277
(dp278
S'ADV'
p279
F0.001711
sS'ADJ'
p280
F0.998289
s(lp281
(g42
I4
tp282
atp283
a(S'belangrijk'
p284
(dp285
S'ADJ'
p286
F1.0
s(lp287
(g50
I5
tp288
atp289
a(S'was'
p290
(dp291
S'VERB'
p292
F0.99914
sS'NOUN'
p293
F0.00086
s(lp294
(g35
I3
tp295
atp296
a(S'in'
p297
(dp298
S'ADV'
p299
F0.002488
sS'VERB'
p300
F0.0
sS'ADP'
p301
F0.997512
s(lp302
(g133
I6
tp303
atp304
a(S'dit'
p305
(dp306
S'PRON'
p307
F1.0
s(lp308
(g140
I7
tp309
atp310
a(S'rapport'
p311
(dp312
S'NOUN'
p313
F1.0
s(lp314
(g147
I8
tp315
atp316
a(S'dat'
p317
(dp318
S'PRON'
p319
F0.052538
sS'CONJ'
p320
F0.947462
s(lp321
(g59
I9
tp322
atp323
a(S'we'
p324
(dp325
S'PRON'
p326
F1.0
s(lp327
(g216
I10
tp328
atp329
a(S'de'
p330
(dp331
S'DET'
p332
F1.0
s(lp333
(g80
I12
tp334
atp335
a(S'kwesties'
p336
(dp337
S'NOUN'
p338
F1.0
s(lp339
(g93
I14
tp340
atp341
a(S'van'
p342
(dp343
S'ADP'
p344
F1.0
s(lp345
(g107
I13
tp346
atp347
a(S'de'
p348
(dp349
S'DET'
p350
F1.0
s(lp351
(g80
I12
tp352
atp353
a(S'mensenrechten'
p354
(dp355
S'NOUN'
p356
F1.0
s(lp357
tp358
a(S'onder'
p359
(dp360
S'ADV'
p361
F1.7e-05
sS'ADP'
p362
F0.999983
s(lp363
(g71
I11
tp364
atp365
a(S'de'
p366
(dp367
S'DET'
p368
F1.0
s(lp369
(g80
I12
tp370
atp371
a(S'aandacht'
p372
(dp373
S'NOUN'
p374
F1.0
s(lp375
tp376
a(S'brachten'
p377
(dp378
S'VERB'
p379
F1.0
s(lp380
(g71
I11
tp381
atp382
a(g150
(dp383
g150
F1.0
s(lp384
(g150
I15
tp385
atp386
asS'de'
p387
(lp388
(S'ich'
p389
(dp390
S'PRON'
p391
F1.0
s(lp392
(g7
I0
tp393
atp394
a(S'halte'
p395
(dp396
S'VERB'
p397
F1.0
s(lp398
(g14
I1
tp399
atp400
a(S'es'
p401
(dp402
S'PRON'
p403
F1.0
s(lp404
(g28
I2
tp405
atp406
a(S'f\xc3\xbcr'
p407
(dp408
S'ADP'
p409
F1.0
s(lp410
(g35
I3
tp411
atp412
a(S'besonders'
p413
(dp414
S'ADV'
p415
F1.0
s(lp416
(g42
I4
tp417
atp418
a(S'wichtig'
p419
(dp420
S'ADJ'
p421
F1.0
s(lp422
(g50
I5
tp423
atp424
a(S','
p425
(dp426
g150
F1.0
s(lp427
tp428
a(S'dass'
p429
(dp430
S'CONJ'
p431
F1.0
s(lp432
(g59
I9
tp433
atp434
a(S'wir'
p435
(dp436
S'PRON'
p437
F1.0
s(lp438
(g216
I10
tp439
atp440
a(S'in'
p441
(dp442
S'ADP'
p443
F1.0
s(lp444
(g133
I6
tp445
atp446
a(S'diesem'
p447
(dp448
S'PRON'
p449
F1.0
s(lp450
(g140
I7
tp451
atp452
a(S'bericht'
p453
(dp454
S'ADJ'
p455
F0.015659
sS'NOUN'
p456
F0.983001
s(lp457
(g147
I8
tp458
atp459
a(S'menschenrechtsfragen'
p460
(dp461
S'NOUN'
p462
F0.207318
sS'ADJ'
p463
F0.705787
s(lp464
(g80
I12
tp465
atp466
a(S'hervorgehoben'
p467
(dp468
S'VERB'
p469
F0.969499
sS'ADJ'
p470
F0.030501
s(lp471
tp472
a(S'haben'
p473
(dp474
S'VERB'
p475
F0.9999309999999999
s(lp476
(g71
I11
tp477
atp478
a(g150
(dp479
g150
F1.0
s(lp480
(g150
I15
tp481
atp482
asS'it'
p483
(lp484
(S'ho'
p485
(dp486
S'VERB'
p487
F1.0
s(lp488
(g7
I0
tp489
atp490
a(S'pensato'
p491
(dp492
S'VERB'
p493
F1.0
s(lp494
(g14
I1
tp495
atp496
a(S'fosse'
p497
(dp498
S'VERB'
p499
F0.668038
sS'NOUN'
p500
F0.331962
s(lp501
(g35
I3
tp502
atp503
a(S'particolarmente'
p504
(dp505
S'ADV'
p506
F1.0
s(lp507
(g42
I4
tp508
atp509
a(S'importante'
p510
(dp511
S'NOUN'
p512
F0.003403
sS'VERB'
p513
F0.000287
sS'ADJ'
p514
F0.99631
s(lp515
(g50
I5
tp516
atp517
a(S'che'
p518
(dp519
S'PRON'
p520
F0.844719
sS'CONJ'
p521
F0.151847
sS'ADJ'
p522
F0.003435
s(lp523
(g59
I9
tp524
atp525
a(S'in'
p526
(dp527
S'ADP'
p528
F1.0
s(lp529
(g133
I6
tp530
atp531
a(S'questa'
p532
(dp533
S'PRON'
p534
F1.0
s(lp535
(g140
I7
tp536
atp537
a(S'relazione'
p538
(dp539
S'NOUN'
p540
F1.0
s(lp541
(g147
I8
tp542
atp543
a(S'abbiamo'
p544
(dp545
S'VERB'
p546
F1.0
s(lp547
(g216
I10
tp548
atp549
a(S'sottolineato'
p550
(dp551
S'VERB'
p552
F1.0
s(lp553
(g71
I11
tp554
atp555
a(S'le'
p556
(dp557
S'PRON'
p558
F1e-06
sS'DET'
p559
F0.999999
s(lp560
(g93
I14
tp561
atp562
a(S'questioni'
p563
(dp564
S'VERB'
p565
F0.000437
sS'NOUN'
p566
F0.999563
s(lp567
tp568
a(S'relative'
p569
(dp570
S'NOUN'
p571
F0.001929
sS'ADJ'
p572
F0.998071
s(lp573
(g93
I14
tp574
atp575
a(S'ai'
p576
(dp577
S'NOUN'
p578
F6.9e-05
sS'ADP'
p579
F0.999931
s(lp580
tp581
a(S'diritti'
p582
(dp583
S'ADJ'
p584
F0.012159
sS'NOUN'
p585
F0.987841
s(lp586
(g107
I13
tp587
atp588
a(S'umani'
p589
(dp590
S'NOUN'
p591
F0.020928
sS'ADJ'
p592
F0.979072
s(lp593
(g80
I12
tp594
atp595
a(g150
(dp596
g150
F1.0
s(lp597
(g150
I15
tp598
atp599
asS'sk'
p600
(lp601
(S'domnievam'
p602
(dp603
S'VERB'
p604
F1.0
s(lp605
(g7
I0
tp606
atp607
a(S'sa'
p608
(dp609
S'PRT'
p610
F0.999842
sS'ADP'
p611
F0.0
sg158
F0.00015800000000000002
s(lp612
tp613
a(g425
(dp614
g150
F1.0
s(lp615
tp616
a(S'\xc5\xbee'
p617
(dp618
g158
F0.0009
sS'CONJ'
p619
F0.9991
s(lp620
(g14
I1
tp621
atp622
a(S'v'
p623
(dp624
g158
F0.000117
sS'ADP'
p625
F0.999884
s(lp626
(g133
I6
tp627
atp628
a(S'tejto'
p629
(dp630
S'PRON'
p631
F1.0
s(lp632
(g140
I7
tp633
atp634
a(S'spr\xc3\xa1ve'
p635
(dp636
S'NOUN'
p637
F1.0
s(lp638
(g147
I8
tp639
atp640
a(S'bolo'
p641
(dp642
S'VERB'
p643
F0.999999
s(lp644
(g35
I3
tp645
atp646
a(S'osobitne'
p647
(dp648
S'ADV'
p649
F1.0
s(lp650
(g42
I4
tp651
atp652
a(S'd\xc3\xb4le\xc5\xbeit\xc3\xa9'
p653
(dp654
S'ADJ'
p655
F1.0
s(lp656
(g50
I5
tp657
atp658
a(g425
(dp659
g150
F1.0
s(lp660
tp661
a(S'\xc5\xbee'
p662
(dp663
g158
F0.000346
sS'CONJ'
p664
F0.999654
s(lp665
(g59
I9
tp666
atp667
a(S'sme'
p668
(dp669
g158
F1.6e-05
sS'VERB'
p670
F0.999984
s(lp671
(g216
I10
tp672
atp673
a(S'zd\xc3\xb4raznili'
p674
(dp675
S'VERB'
p676
F1.0
s(lp677
(g71
I11
tp678
atp679
a(S'ot\xc3\xa1zky'
p680
(dp681
S'NOUN'
p682
F1.0
s(lp683
(g93
I14
tp684
atp685
a(S'\xc4\xbeudsk\xc3\xbdch'
p686
(dp687
S'ADJ'
p688
F1.0
s(lp689
(g80
I12
tp690
atp691
a(S'pr\xc3\xa1v'
p692
(dp693
g158
F0.0002
sS'NOUN'
p694
F0.9998
s(lp695
(g107
I13
tp696
atp697
a(g150
(dp698
g150
F1.0
s(lp699
(g150
I15
tp700
atp701
asS'pl'
p702
(lp703
(S's\xc4\x85dzi\xc5\x82em'
p704
(dp705
S'ADV'
p706
F0.00302
sS'ADJ'
p707
F0.006926
sS'VERB'
p708
F0.015441999999999999
sS'NOUN'
p709
F0.974611
s(lp710
(g14
I1
tp711
atp712
a(g425
(dp713
g158
F0.0
sg150
F1.0
s(lp714
tp715
a(S'\xc5\xbce'
p716
(dp717
S'PRT'
p718
F0.000338
sS'CONJ'
p719
F0.9996619999999999
s(lp720
(g28
I2
tp721
atp722
a(S'szczeg\xc3\xb3lnie'
p723
(dp724
S'ADV'
p725
F0.549478
sS'PRT'
p726
F0.450522
s(lp727
(g42
I4
tp728
atp729
a(S'wa\xc5\xbcny'
p730
(dp731
S'ADJ'
p732
F0.999999
s(lp733
(g50
I5
tp734
atp735
a(S'jest'
p736
(dp737
S'VERB'
p738
F1.0
s(lp739
(g35
I3
tp740
atp741
a(S'fakt'
p742
(dp743
S'NOUN'
p744
F1.0
s(lp745
(g71
I11
tp746
atp747
a(g425
(dp748
g158
F0.0
sg150
F1.0
s(lp749
(g216
I10
tp750
atp751
a(S'\xc5\xbce'
p752
(dp753
S'PRT'
p754
F0.000117
sS'CONJ'
p755
F0.999883
s(lp756
(g59
I9
tp757
atp758
a(S'sprawozdanie'
p759
(dp760
S'NOUN'
p761
F1.0
s(lp762
(g147
I8
tp763
atp764
a(S'to'
p765
(dp766
S'NOUN'
p767
F0.422649
sS'ADP'
p768
F1e-06
sS'PRT'
p769
F0.202726
sg158
F3.3e-05
sS'CONJ'
p770
F0.051772
sS'ADJ'
p771
F0.32282
s(lp772
(g140
I7
tp773
atp774
a(S'zwraca'
p775
(dp776
S'VERB'
p777
F1.0
s(lp778
tp779
a(S'uwag\xc4\x99'
p780
(dp781
S'NOUN'
p782
F1.0
s(lp783
(g71
I11
tp784
atp785
a(S'na'
p786
(dp787
g158
F1.1e-05
sS'VERB'
p788
F4.9999999999999996e-06
sS'NOUN'
p789
F0.0
sS'ADP'
p790
F0.999981
sS'PRT'
p791
F3e-06
s(lp792
(g133
I6
tp793
atp794
a(S'kwestie'
p795
(dp796
S'NOUN'
p797
F1.0
s(lp798
tp799
a(S'dotycz\xc4\x85ce'
p800
(dp801
S'VERB'
p802
F1.000002
s(lp803
(g93
I14
tp804
atp805
a(S'praw'
p806
(dp807
S'NOUN'
p808
F1.0
s(lp809
(g107
I13
tp810
atp811
a(S'cz\xc5\x82owieka'
p812
(dp813
S'NOUN'
p814
F1.0
s(lp815
(g80
I12
tp816
atp817
a(g150
(dp818
g150
F1.0
s(lp819
(g150
I15
tp820
atp821
asS'sl'
p822
(lp823
(S'menim'
p824
(dp825
S'VERB'
p826
F1.0
s(lp827
(g14
I1
tp828
atp829
a(g425
(dp830
g150
F1.0
s(lp831
tp832
a(S'da'
p833
(dp834
S'PRT'
p835
F4e-06
sS'CONJ'
p836
F0.999979
sS'VERB'
p837
F1.7e-05
sg158
F1e-06
s(lp838
(g28
I2
tp839
atp840
a(S'je'
p841
(dp842
S'PRON'
p843
F0.00014
sS'VERB'
p844
F0.9998600000000001
sg158
F0.0
s(lp845
tp846
a(S'bilo'
p847
(dp848
S'VERB'
p849
F1.0
s(lp850
(g35
I3
tp851
atp852
a(g623
(dp853
S'ADP'
p854
F1.0
s(lp855
(g133
I6
tp856
atp857
a(S'tem'
p858
(dp859
S'ADV'
p860
F5e-06
sS'PRON'
p861
F0.999994
sS'NOUN'
p862
F0.0
s(lp863
(g140
I7
tp864
atp865
a(S'poro\xc4\x8dilu'
p866
(dp867
S'NOUN'
p868
F1.0
s(lp869
(g147
I8
tp870
atp871
a(S'zlasti'
p872
(dp873
S'ADV'
p874
F0.017713
sS'PRT'
p875
F0.982287
s(lp876
(g42
I4
tp877
atp878
a(S'pomembno'
p879
(dp880
S'ADV'
p881
F0.290239
sS'ADJ'
p882
F0.709761
s(lp883
(g50
I5
tp884
atp885
a(g425
(dp886
g150
F1.0
s(lp887
tp888
a(S'da'
p889
(dp890
S'PRT'
p891
F2e-06
sS'CONJ'
p892
F0.999989
sS'VERB'
p893
F9e-06
sg158
F0.0
s(lp894
(g59
I9
tp895
atp896
a(S'smo'
p897
(dp898
g158
F0.0
sS'VERB'
p899
F1.0
s(lp900
(g216
I10
tp901
atp902
a(S'poudarili'
p903
(dp904
S'VERB'
p905
F1.0
s(lp906
(g71
I11
tp907
atp908
a(S'vpra\xc5\xa1anje'
p909
(dp910
S'NOUN'
p911
F1.0
s(lp912
(g93
I14
tp913
atp914
a(S'\xc4\x8dlovekovih'
p915
(dp916
S'ADJ'
p917
F1.0
s(lp918
(g80
I12
tp919
atp920
a(S'pravic'
p921
(dp922
S'NOUN'
p923
F1.0
s(lp924
(g107
I13
tp925
atp926
a(g150
(dp927
g150
F1.0
s(lp928
(g150
I15
tp929
atp930
asS'es'
p931
(lp932
(S'cre\xc3\xada'
p933
(dp934
S'VERB'
p935
F1.0
s(lp936
(g14
I1
tp937
atp938
a(S'que'
p939
(dp940
g158
F0.0
sS'CONJ'
p941
F1.0
s(lp942
(g28
I2
tp943
atp944
a(S'era'
p945
(dp946
S'VERB'
p947
F1.0
s(lp948
(g35
I3
tp949
atp950
a(S'particularmente'
p951
(dp952
S'ADV'
p953
F1.0
s(lp954
(g42
I4
tp955
atp956
a(S'importante'
p957
(dp958
S'VERB'
p959
F0.02779
sS'ADJ'
p960
F0.97221
s(lp961
(g50
I5
tp962
atp963
a(S'que'
p964
(dp965
g158
F1e-06
sS'CONJ'
p966
F0.999999
s(lp967
(g59
I9
tp968
atp969
a(S'subray\xc3\xa1semos'
p970
(dp971
S'VERB'
p972
F1.0
s(lp973
(g71
I11
tp974
atp975
a(S'los'
p976
(dp977
S'PRON'
p978
F0.0
sS'DET'
p979
F1.0
s(lp980
tp981
a(S'problemas'
p982
(dp983
S'NOUN'
p984
F1.0
s(lp985
(g93
I14
tp986
atp987
a(S'de'
p988
(dp989
g158
F2.9e-05
sS'CONJ'
p990
F0.000449
sS'ADP'
p991
F0.999522
s(lp992
tp993
a(S'derechos'
p994
(dp995
S'NOUN'
p996
F1.0
s(lp997
(g107
I13
tp998
atp999
a(S'humanos'
p1000
(dp1001
S'ADJ'
p1002
F0.469898
sS'NOUN'
p1003
F0.530102
s(lp1004
(g80
I12
tp1005
atp1006
a(S'en'
p1007
(dp1008
g158
F0.0
sS'CONJ'
p1009
F1e-06
sS'ADP'
p1010
F0.999999
s(lp1011
(g133
I6
tp1012
atp1013
a(S'este'
p1014
(dp1015
S'PRON'
p1016
F0.999823
sS'NOUN'
p1017
F0.000177
s(lp1018
(g140
I7
tp1019
atp1020
a(S'informe'
p1021
(dp1022
S'VERB'
p1023
F0.00232
sS'NOUN'
p1024
F0.99768
s(lp1025
(g147
I8
tp1026
atp1027
a(g150
(dp1028
g150
F1.0
s(lp1029
(g150
I15
tp1030
atp1031
as.