(dp0
S'fr'
p1
(lp2
(S'('
p3
(dp4
S'.'
p5
F1.0
s(lp6
(g3
I0
tp7
atp8
a(S'de'
p9
(dp10
S'ADP'
p11
F1.0
s(lp12
(S'de'
p13
I1
tp14
atp15
a(S')'
p16
(dp17
g5
F1.0
s(lp18
(g16
I2
tp19
atp20
a(S'monsieur'
p21
(dp22
S'NOUN'
p23
F1.0
s(lp24
(S'mr'
p25
I3
tp26
atp27
a(S'le'
p28
(dp29
S'PRON'
p30
F0.000321
sS'DET'
p31
F0.999679
s(lp32
tp33
a(S'pr\xc3\xa9sident'
p34
(dp35
S'VERB'
p36
F4.5e-05
sS'NOUN'
p37
F0.999955
s(lp38
(S'president'
p39
I4
tp40
atp41
a(S','
p42
(dp43
g5
F1.0
s(lp44
(g42
I5
tp45
atp46
a(S'monsieur'
p47
(dp48
S'NOUN'
p49
F1.0
s(lp50
(S'commissioner'
p51
I6
tp52
atp53
a(S'le'
p54
(dp55
S'PRON'
p56
F0.000277
sS'DET'
p57
F0.999723
s(lp58
tp59
a(S'commissaire'
p60
(dp61
S'NOUN'
p62
F1.0
s(lp63
(g51
I6
tp64
atp65
a(g42
(dp66
g5
F1.0
s(lp67
(g42
I7
tp68
atp69
a(S'mesdames'
p70
(dp71
S'NOUN'
p72
F1.0
s(lp73
(S'ladies'
p74
I8
tp75
atp76
a(S'et'
p77
(dp78
S'CONJ'
p79
F1.0
s(lp80
(S'and'
p81
I9
tp82
atp83
a(S'messieurs'
p84
(dp85
S'NOUN'
p86
F1.0
s(lp87
(S'gentlemen'
p88
I10
tp89
atp90
a(g42
(dp91
g5
F1.0
s(lp92
(g42
I11
tp93
atp94
a(S'je'
p95
(dp96
S'PRON'
p97
F1.0
s(lp98
(S'i'
p99
I12
tp100
atp101
a(S'voudrais'
p102
(dp103
S'VERB'
p104
F1.0
s(lp105
(S'like'
p106
I18
tp107
atp108
a(S'moi'
p109
(dp110
S'PRON'
p111
F0.998258
sS'NOUN'
p112
F0.001742
s(lp113
tp114
a(S'aussi'
p115
(dp116
S'ADV'
p117
F0.999796
sS'CONJ'
p118
F0.000204
s(lp119
(S'too'
p120
I14
tp121
atp122
a(S'me'
p123
(dp124
S'PRON'
p125
F1.0
s(lp126
(S'my'
p127
I21
tp128
atp129
a(S'joindre'
p130
(dp131
S'VERB'
p132
F1.0
s(lp133
(S'add'
p134
I20
tp135
atp136
a(S'aux'
p137
(dp138
S'ADP'
p139
F1.0
s(lp140
(S'to'
p141
I19
tp142
atp143
a(S'remerciements'
p144
(dp145
S'NOUN'
p146
F1.0
s(lp147
tp148
a(S'adress\xc3\xa9s'
p149
(dp150
S'VERB'
p151
F1.0
s(lp152
(S'thanks'
p153
I22
tp154
atp155
a(S'\xc3\xa0'
p156
(dp157
S'ADP'
p158
F1.0
s(lp159
(S'to'
p160
I23
tp161
atp162
a(S'la'
p163
(dp164
S'PRON'
p165
F0.000727
sS'DET'
p166
F0.999271
sS'NOUN'
p167
F2e-06
s(lp168
(S'the'
p169
I24
tp170
atp171
a(S'rapporteure'
p172
(dp173
S'ADJ'
p174
F0.083412
sS'VERB'
p175
F0.0008489999999999999
sS'NOUN'
p176
F0.915738
s(lp177
(S'rapporteur'
p178
I25
tp179
atp180
a(g42
(dp181
g5
F1.0
s(lp182
(g42
I26
tp183
atp184
a(S'\xc3\xa0'
p185
(dp186
S'ADP'
p187
F1.0
s(lp188
tp189
a(S'la'
p190
(dp191
S'PRON'
p192
F0.003779
sS'DET'
p193
F0.996219
sS'NOUN'
p194
F2e-06
s(lp195
(S'the'
p196
I27
tp197
atp198
a(S'rapporteure'
p199
(dp200
S'ADJ'
p201
F0.005585
sS'VERB'
p202
F0.004476
sS'NOUN'
p203
F0.989941
s(lp204
(S'rapporteur'
p205
I29
tp206
atp207
a(S'fictive'
p208
(dp209
S'ADJ'
p210
F1.0
s(lp211
(S'shadow'
p212
I28
tp213
atp214
a(S'et'
p215
(dp216
S'CONJ'
p217
F1.0
s(lp218
(S'and'
p219
I30
tp220
atp221
a(g42
(dp222
g5
F1.0
s(lp223
(g42
I31
tp224
atp225
a(S'tout'
p226
(dp227
S'ADV'
p228
F0.933471
sS'PRON'
p229
F0.062227
sS'NOUN'
p230
F0.004302
s(lp231
(S'all'
p232
I33
tp233
atp234
a(S'sp\xc3\xa9cialement'
p235
(dp236
S'ADV'
p237
F1.0
s(lp238
(S'above'
p239
I32
tp240
atp241
a(g42
(dp242
g5
F1.0
s(lp243
(g42
I34
tp244
atp245
a(S'\xc3\xa0'
p246
(dp247
S'ADP'
p248
F1.0
s(lp249
(S'to'
p250
I35
tp251
atp252
a(S'mme'
p253
(dp254
S'ADJ'
p255
F0.219784
sS'VERB'
p256
F0.12472399999999999
sS'NOUN'
p257
F0.655491
s(lp258
(S'mrs'
p259
I36
tp260
atp261
a(S'ple\xc5\xa1tinsk\xc3\xa1'
p262
(dp263
S'NOUN'
p264
F0.397282
sS'VERB'
p265
F0.008996
sS'ADJ'
p266
F0.584244
sS'X'
p267
F0.009477
s(lp268
(S'ple\xc5\xa1tinsk\xc3\xa1'
p269
I37
tp270
atp271
a(g5
(dp272
g5
F1.0
s(lp273
(S'and'
p274
I38
tp275
atp276
a(S'je'
p277
(dp278
S'PRON'
p279
F1.0
s(lp280
(g99
I39
tp281
atp282
a(S'reprendrai'
p283
(dp284
S'VERB'
p285
F1.0
s(lp286
tp287
a(S'l\xc3\xa0'
p288
(dp289
S'ADV'
p290
F1.0
s(lp291
(g269
I37
tp292
atp293
a(S'o\xc3\xb9'
p294
(dp295
S'ADV'
p296
F0.120984
sS'PRON'
p297
F0.879016
s(lp298
(S'where'
p299
I44
tp300
atp301
a(S'mme'
p302
(dp303
S'NOUN'
p304
F0.001678
sS'VERB'
p305
F0.980383
sS'ADJ'
p306
F0.017939
s(lp307
(S'mrs'
p308
I45
tp309
atp310
a(S'fourtou'
p311
(dp312
S'ADJ'
p313
F0.104637
sS'VERB'
p314
F0.004089000000000001
sS'NOUN'
p315
F0.891275
s(lp316
(S'fourtou'
p317
I46
tp318
atp319
a(S'nous'
p320
(dp321
S'PRON'
p322
F1.0
s(lp323
(S'to'
p324
I42
tp325
atp326
a(S'a'
p327
(dp328
S'VERB'
p329
F1.0
s(lp330
tp331
a(S'laiss\xc3\xa9s'
p332
(dp333
S'VERB'
p334
F1.0
s(lp335
(S'left'
p336
I47
tp337
atp338
a(g5
(dp339
g5
F1.0
s(lp340
(g5
I49
tp341
atp342
asS'en'
p343
(lp344
(g3
(dp345
g5
F1.0
s(lp346
(g3
I0
tp347
atp348
a(g13
(dp349
g267
F0.959
sS'NOUN'
p350
F0.041
s(lp351
(g13
I1
tp352
atp353
a(g16
(dp354
g5
F1.0
s(lp355
(g16
I2
tp356
atp357
a(g25
(dp358
S'ADJ'
p359
F0.004952
sS'NOUN'
p360
F0.995048
s(lp361
(g25
I3
tp362
atp363
a(g39
(dp364
S'NOUN'
p365
F1.0
s(lp366
(g39
I4
tp367
atp368
a(g42
(dp369
g5
F1.0
s(lp370
(g42
I5
tp371
atp372
a(g51
(dp373
S'NOUN'
p374
F1.0
s(lp375
(g51
I6
tp376
atp377
a(g42
(dp378
g5
F1.0
s(lp379
(g42
I7
tp380
atp381
a(g74
(dp382
S'NOUN'
p383
F1.0
s(lp384
(g74
I8
tp385
atp386
a(g81
(dp387
S'CONJ'
p388
F0.999998
sS'NOUN'
p389
F2e-06
s(lp390
(g81
I9
tp391
atp392
a(g88
(dp393
S'NOUN'
p394
F1.0
s(lp395
(g88
I10
tp396
atp397
a(g42
(dp398
g5
F1.0
s(lp399
(g42
I11
tp400
atp401
a(g99
(dp402
g267
F0.059509
sS'NOUN'
p403
F0.940491
s(lp404
(g99
I12
tp405
atp406
a(g42
(dp407
g5
F1.0
s(lp408
(g42
I13
tp409
atp410
a(g120
(dp411
S'ADV'
p412
F1.0
s(lp413
(g120
I14
tp414
atp415
a(g42
(dp416
g5
F1.0
s(lp417
(g42
I15
tp418
atp419
a(S'would'
p420
(dp421
S'VERB'
p422
F1.0
s(lp423
(g420
I16
tp424
atp425
a(S'certainly'
p426
(dp427
S'ADV'
p428
F1.0
s(lp429
(g426
I17
tp430
atp431
a(g106
(dp432
S'VERB'
p433
F0.442314
sS'ADJ'
p434
F0.045438
sS'ADP'
p435
F0.512248
s(lp436
(g106
I18
tp437
atp438
a(g141
(dp439
S'ADV'
p440
F0.0
sS'PRT'
p441
F1.0
sS'ADP'
p442
F0.0
s(lp443
(g141
I19
tp444
atp445
a(g134
(dp446
S'VERB'
p447
F1.0
s(lp448
(g134
I20
tp449
atp450
a(g127
(dp451
S'PRON'
p452
F1.0
s(lp453
(g127
I21
tp454
atp455
a(g153
(dp456
S'VERB'
p457
F1.3e-05
sS'NOUN'
p458
F0.9999870000000001
s(lp459
(g153
I22
tp460
atp461
a(g160
(dp462
S'ADV'
p463
F1e-06
sS'PRT'
p464
F0.999988
sS'ADP'
p465
F1.1e-05
s(lp466
(g160
I23
tp467
atp468
a(g169
(dp469
S'NOUN'
p470
F2e-06
sS'DET'
p471
F0.999998
s(lp472
(g169
I24
tp473
atp474
a(g178
(dp475
S'NOUN'
p476
F1.0
s(lp477
(g178
I25
tp478
atp479
a(g42
(dp480
g5
F1.0
s(lp481
(g42
I26
tp482
atp483
a(g196
(dp484
S'NOUN'
p485
F4e-06
sS'DET'
p486
F0.999996
s(lp487
(g196
I27
tp488
atp489
a(g212
(dp490
S'VERB'
p491
F0.000546
sS'NOUN'
p492
F0.999454
s(lp493
(g212
I28
tp494
atp495
a(g205
(dp496
S'NOUN'
p497
F1.0
s(lp498
(g205
I29
tp499
atp500
a(g219
(dp501
S'CONJ'
p502
F0.999994
sS'NOUN'
p503
F6e-06
s(lp504
(g219
I30
tp505
atp506
a(g42
(dp507
g5
F1.0
s(lp508
(g42
I31
tp509
atp510
a(g239
(dp511
S'ADV'
p512
F0.111012
sS'ADJ'
p513
F0.001609
sS'ADP'
p514
F0.887379
s(lp515
(g239
I32
tp516
atp517
a(g232
(dp518
S'ADV'
p519
F0.344099
sS'DET'
p520
F0.6559010000000001
s(lp521
(g232
I33
tp522
atp523
a(g42
(dp524
g5
F1.0
s(lp525
(g42
I34
tp526
atp527
a(g250
(dp528
S'ADV'
p529
F4e-05
sS'PRT'
p530
F0.999927
sS'ADP'
p531
F3.3e-05
s(lp532
(g250
I35
tp533
atp534
a(g259
(dp535
S'ADV'
p536
F0.011807
sS'NOUN'
p537
F0.27270099999999997
sS'VERB'
p538
F0.32759499999999997
sS'ADJ'
p539
F0.387898
s(lp540
(g259
I36
tp541
atp542
a(g269
(dp543
S'ADV'
p544
F0.003486
sS'ADJ'
p545
F0.017291
sS'VERB'
p546
F0.018050000000000004
sS'NOUN'
p547
F0.961173
s(lp548
(g269
I37
tp549
atp550
a(g274
(dp551
S'CONJ'
p552
F0.998881
sS'NOUN'
p553
F0.001119
s(lp554
(g274
I38
tp555
atp556
a(g99
(dp557
g267
F0.006498
sS'NOUN'
p558
F0.993503
s(lp559
(g99
I39
tp560
atp561
a(S'would'
p562
(dp563
S'VERB'
p564
F1.0
s(lp565
(g562
I40
tp566
atp567
a(S'like'
p568
(dp569
S'VERB'
p570
F0.9997360000000001
sS'ADJ'
p571
F3.1e-05
sS'ADP'
p572
F0.000233
s(lp573
(g568
I41
tp574
atp575
a(g324
(dp576
S'ADV'
p577
F0.0
sS'PRT'
p578
F1.0
sS'ADP'
p579
F0.0
s(lp580
(g324
I42
tp581
atp582
a(S'continue'
p583
(dp584
S'VERB'
p585
F1.0
s(lp586
(g583
I43
tp587
atp588
a(g299
(dp589
S'ADV'
p590
F0.999969
sS'ADP'
p591
F3.1e-05
s(lp592
(g299
I44
tp593
atp594
a(g308
(dp595
S'ADV'
p596
F0.003687
sS'NOUN'
p597
F0.200408
sS'VERB'
p598
F0.016291999999999997
sS'ADJ'
p599
F0.779613
s(lp600
(g308
I45
tp601
atp602
a(g317
(dp603
S'ADJ'
p604
F0.000529
sS'NOUN'
p605
F0.999471
s(lp606
(g317
I46
tp607
atp608
a(g336
(dp609
S'ADV'
p610
F0.001088
sS'ADJ'
p611
F0.000325
sS'VERB'
p612
F0.994613
sS'NOUN'
p613
F0.003974
s(lp614
(g336
I47
tp615
atp616
a(S'off'
p617
(dp618
S'ADV'
p619
F0.017737
sS'PRT'
p620
F0.968887
sS'ADJ'
p621
F0.002312
sS'ADP'
p622
F0.011036
sS'NOUN'
p623
F2.8e-05
s(lp624
(g617
I48
tp625
atp626
a(g5
(dp627
g5
F1.0
s(lp628
(g5
I49
tp629
atp630
asS'nl'
p631
(lp632
(g3
(dp633
g5
F1.0
s(lp634
(g3
I0
tp635
atp636
a(S'de'
p637
(dp638
S'DET'
p639
F1.0
s(lp640
(g13
I1
tp641
atp642
a(g16
(dp643
g5
F1.0
s(lp644
(g16
I2
tp645
atp646
a(S'voorzitter'
p647
(dp648
S'NOUN'
p649
F1.0
s(lp650
(g39
I4
tp651
atp652
a(g42
(dp653
g5
F1.0
s(lp654
(g42
I5
tp655
atp656
a(S'commissaris'
p657
(dp658
S'NOUN'
p659
F1.0
s(lp660
(g51
I6
tp661
atp662
a(g42
(dp663
g5
F1.0
s(lp664
(g42
I7
tp665
atp666
a(S'dames'
p667
(dp668
S'NOUN'
p669
F1.0
s(lp670
(g74
I8
tp671
atp672
a(S'en'
p673
(dp674
S'CONJ'
p675
F1.0
s(lp676
(g81
I9
tp677
atp678
a(S'heren'
p679
(dp680
S'NOUN'
p681
F1.0
s(lp682
(g88
I10
tp683
atp684
a(g42
(dp685
g5
F1.0
s(lp686
(g42
I11
tp687
atp688
a(S'ook'
p689
(dp690
S'ADV'
p691
F1.0
s(lp692
(g120
I14
tp693
atp694
a(S'ik'
p695
(dp696
S'PRON'
p697
F0.999862
sS'NOUN'
p698
F0.000138
s(lp699
(g99
I12
tp700
atp701
a(S'sluit'
p702
(dp703
S'VERB'
p704
F1.0
s(lp705
(g134
I20
tp706
atp707
a(S'mij'
p708
(dp709
S'PRON'
p710
F1.0
s(lp711
(g127
I21
tp712
atp713
a(S'uitdrukkelijk'
p714
(dp715
S'ADJ'
p716
F1.0
s(lp717
(g153
I22
tp718
atp719
a(S'aan'
p720
(dp721
S'ADV'
p722
F0.458324
sS'ADP'
p723
F0.541676
s(lp724
tp725
a(S'bij'
p726
(dp727
S'ADV'
p728
F0.030376
sS'ADJ'
p729
F2e-06
sS'NOUN'
p730
F9e-06
sS'ADP'
p731
F0.969613
s(lp732
(g134
I20
tp733
atp734
a(S'de'
p735
(dp736
S'DET'
p737
F1.0
s(lp738
tp739
a(S'woorden'
p740
(dp741
S'NOUN'
p742
F1.0
s(lp743
(g153
I22
tp744
atp745
a(S'van'
p746
(dp747
S'ADP'
p748
F1.0
s(lp749
tp750
a(S'dank'
p751
(dp752
S'VERB'
p753
F0.0
sS'NOUN'
p754
F1.0
s(lp755
tp756
a(S'aan'
p757
(dp758
S'ADV'
p759
F0.007803
sS'ADP'
p760
F0.992197
s(lp761
(g160
I23
tp762
atp763
a(S'het'
p764
(dp765
S'PRON'
p766
F0.000933
sS'DET'
p767
F0.999066
s(lp768
tp769
a(S'adres'
p770
(dp771
S'NOUN'
p772
F1.0
s(lp773
(g153
I22
tp774
atp775
a(S'van'
p776
(dp777
S'ADP'
p778
F1.0
s(lp779
tp780
a(S'de'
p781
(dp782
S'DET'
p783
F1.0
s(lp784
(g169
I24
tp785
atp786
a(S'rapporteur'
p787
(dp788
S'NOUN'
p789
F1.0
s(lp790
(g178
I25
tp791
atp792
a(g42
(dp793
g5
F1.0
s(lp794
(g42
I26
tp795
atp796
a(S'de'
p797
(dp798
S'DET'
p799
F1.0
s(lp800
(g196
I27
tp801
atp802
a(S'schaduwrapporteur'
p803
(dp804
S'ADJ'
p805
F0.00201
sS'NOUN'
p806
F0.99799
s(lp807
(g212
I28
tp808
atp809
a(g42
(dp810
g5
F1.0
s(lp811
(g42
I31
tp812
atp813
a(S'maar'
p814
(dp815
S'ADV'
p816
F0.126721
sS'CONJ'
p817
F0.873271
sS'NOUN'
p818
F8e-06
s(lp819
(g219
I30
tp820
atp821
a(S'bovenal'
p822
(dp823
S'ADV'
p824
F1.0
s(lp825
(g239
I32
tp826
atp827
a(S'van'
p828
(dp829
S'ADP'
p830
F1.0
s(lp831
(g250
I35
tp832
atp833
a(S'collega'
p834
(dp835
S'NOUN'
p836
F1.0
s(lp837
(g259
I36
tp838
atp839
a(S'ple\xc5\xa1tinsk\xc3\xa1'
p840
(dp841
S'NOUN'
p842
F0.47002700000000003
sS'ADJ'
p843
F0.529973
s(lp844
(g269
I37
tp845
atp846
a(S'en'
p847
(dp848
S'CONJ'
p849
F1.0
s(lp850
(g274
I38
tp851
atp852
a(S'ik'
p853
(dp854
S'PRON'
p855
F0.999957
sS'NOUN'
p856
F4.3e-05
s(lp857
(g99
I39
tp858
atp859
a(S'zou'
p860
(dp861
S'VERB'
p862
F1.0
s(lp863
(g562
I40
tp864
atp865
a(S'verder'
p866
(dp867
S'ADV'
p868
F0.111598
sS'ADJ'
p869
F0.888402
s(lp870
tp871
a(S'willen'
p872
(dp873
S'VERB'
p874
F0.93974
sS'NOUN'
p875
F0.06026
s(lp876
(g568
I41
tp877
atp878
a(S'gaan'
p879
(dp880
S'VERB'
p881
F0.998976
sS'NOUN'
p882
F0.001025
s(lp883
(g583
I43
tp884
atp885
a(S'waar'
p886
(dp887
S'ADV'
p888
F0.996775
sS'NOUN'
p889
F0.00011
sS'ADJ'
p890
F0.003115
s(lp891
(g299
I44
tp892
atp893
a(S'mevrouw'
p894
(dp895
S'NOUN'
p896
F1.0
s(lp897
(g308
I45
tp898
atp899
a(S'fourtou'
p900
(dp901
S'ADJ'
p902
F0.173766
sS'NOUN'
p903
F0.826235
s(lp904
(g317
I46
tp905
atp906
a(S'ge\xc3\xabindigd'
p907
(dp908
S'VERB'
p909
F1.0
s(lp910
(g617
I48
tp911
atp912
a(S'is'
p913
(dp914
S'VERB'
p915
F1.0
s(lp916
tp917
a(g5
(dp918
g5
F1.0
s(lp919
(g5
I49
tp920
atp921
asS'de'
p922
(lp923
(g3
(dp924
g5
F1.0
s(lp925
(g3
I0
tp926
atp927
a(S'de'
p928
(dp929
g267
F0.95751
sS'NOUN'
p930
F0.04249
s(lp931
(g13
I1
tp932
atp933
a(g16
(dp934
g5
F1.0
s(lp935
(g16
I2
tp936
atp937
a(S'herr'
p938
(dp939
S'ADJ'
p940
F0.197595
sS'NOUN'
p941
F0.771917
s(lp942
(g25
I3
tp943
atp944
a(S'pr\xc3\xa4sident'
p945
(dp946
S'VERB'
p947
F0.063894
sS'NOUN'
p948
F0.922144
s(lp949
(g39
I4
tp950
atp951
a(g42
(dp952
g5
F1.0
s(lp953
(g42
I5
tp954
atp955
a(S'herr'
p956
(dp957
S'VERB'
p958
F0.07311
sS'NOUN'
p959
F0.858922
s(lp960
tp961
a(S'kommissar'
p962
(dp963
S'NOUN'
p964
F0.201385
sS'ADJ'
p965
F0.726126
s(lp966
(g51
I6
tp967
atp968
a(g42
(dp969
g5
F1.0
s(lp970
(g42
I7
tp971
atp972
a(S'liebe'
p973
(dp974
S'VERB'
p975
F0.995319
sS'ADJ'
p976
F0.004681
s(lp977
tp978
a(S'kolleginnen'
p979
(dp980
S'ADJ'
p981
F1.0
s(lp982
(g74
I8
tp983
atp984
a(S'und'
p985
(dp986
S'CONJ'
p987
F1.0
s(lp988
(g81
I9
tp989
atp990
a(S'kollegen'
p991
(dp992
S'VERB'
p993
F0.634463
sS'NOUN'
p994
F0.139244
s(lp995
tp996
a(S'!'
p997
(dp998
g5
F1.0
s(lp999
(g88
I10
tp1000
atp1001
a(S'auch'
p1002
(dp1003
S'ADV'
p1004
F1.0
s(lp1005
(g42
I11
tp1006
atp1007
a(S'ich'
p1008
(dp1009
S'PRON'
p1010
F1.0
s(lp1011
(g99
I12
tp1012
atp1013
a(S'schlie\xc3\x9fe'
p1014
(dp1015
S'VERB'
p1016
F1.0
s(lp1017
(g120
I14
tp1018
atp1019
a(S'mich'
p1020
(dp1021
S'PRON'
p1022
F1.0
s(lp1023
(g106
I18
tp1024
atp1025
a(S'nat\xc3\xbcrlich'
p1026
(dp1027
S'ADV'
p1028
F0.993738
sS'ADJ'
p1029
F0.006262
s(lp1030
(g426
I17
tp1031
atp1032
a(S'dem'
p1033
(dp1034
S'PRON'
p1035
F0.021806
sS'DET'
p1036
F0.977667
s(lp1037
tp1038
a(S'dank'
p1039
(dp1040
S'VERB'
p1041
F0.002975
sS'ADP'
p1042
F0.994059
s(lp1043
(g153
I22
tp1044
atp1045
a(S'an'
p1046
(dp1047
S'ADV'
p1048
F0.005386
sS'ADP'
p1049
F0.993699
s(lp1050
(g160
I23
tp1051
atp1052
a(S'die'
p1053
(dp1054
S'PRON'
p1055
F5.6e-05
sS'DET'
p1056
F0.999924
s(lp1057
(g169
I24
tp1058
atp1059
a(S'berichterstatterin'
p1060
(dp1061
S'ADJ'
p1062
F0.001273
sS'NOUN'
p1063
F0.998508
s(lp1064
(g178
I25
tp1065
atp1066
a(g42
(dp1067
g5
F1.0
s(lp1068
(g42
I26
tp1069
atp1070
a(S'an'
p1071
(dp1072
S'ADV'
p1073
F0.002036
sS'ADP'
p1074
F0.99768
s(lp1075
tp1076
a(S'den'
p1077
(dp1078
S'PRON'
p1079
F0.000432
sS'DET'
p1080
F0.999556
s(lp1081
(g196
I27
tp1082
atp1083
a(S'schattenberichterstatter'
p1084
(dp1085
S'ADJ'
p1086
F0.900634
s(lp1087
(g212
I28
tp1088
atp1089
a(g42
(dp1090
g5
F1.0
s(lp1091
(g42
I31
tp1092
atp1093
a(S'vor'
p1094
(dp1095
S'ADV'
p1096
F0.058197
sS'ADP'
p1097
F0.941475
s(lp1098
tp1099
a(S'allem'
p1100
(dp1101
S'PRON'
p1102
F1.0
s(lp1103
(g239
I32
tp1104
atp1105
a(S'aber'
p1106
(dp1107
S'ADV'
p1108
F0.695621
sS'CONJ'
p1109
F0.304379
s(lp1110
(g232
I33
tp1111
atp1112
a(S'auch'
p1113
(dp1114
S'ADV'
p1115
F1.0
s(lp1116
tp1117
a(S'an'
p1118
(dp1119
S'ADP'
p1120
F0.997298
s(lp1121
(g141
I19
tp1122
atp1123
a(S'meine'
p1124
(dp1125
S'PRON'
p1126
F0.999907
sS'VERB'
p1127
F9.1e-05
s(lp1128
(g127
I21
tp1129
atp1130
a(S'kollegin'
p1131
(dp1132
S'ADJ'
p1133
F0.003443
sS'NOUN'
p1134
F0.996485
s(lp1135
(g259
I36
tp1136
atp1137
a(S'zita'
p1138
(dp1139
S'ADJ'
p1140
F0.278682
sS'NOUN'
p1141
F0.610375
s(lp1142
(g269
I37
tp1143
atp1144
a(S'ple\xc5\xa1tinsk\xc3\xa1'
p1145
(dp1146
S'VERB'
p1147
F0.433978
sS'ADJ'
p1148
F0.343228
s(lp1149
(g269
I37
tp1150
atp1151
a(S'an'
p1152
(dp1153
S'PRT'
p1154
F0.907176
sS'ADP'
p1155
F0.078231
s(lp1156
(g250
I35
tp1157
atp1158
a(S'und'
p1159
(dp1160
S'CONJ'
p1161
F1.0
s(lp1162
(g274
I38
tp1163
atp1164
a(S'm\xc3\xb6chte'
p1165
(dp1166
S'VERB'
p1167
F1.0
s(lp1168
(g568
I41
tp1169
atp1170
a(S'dort'
p1171
(dp1172
S'ADV'
p1173
F0.999999
sS'PRT'
p1174
F1e-06
s(lp1175
tp1176
a(S'weitermachen'
p1177
(dp1178
S'VERB'
p1179
F1.0
s(lp1180
(g583
I43
tp1181
atp1182
a(g42
(dp1183
g5
F1.0
s(lp1184
(g324
I42
tp1185
atp1186
a(S'wo'
p1187
(dp1188
S'PRON'
p1189
F1.0
s(lp1190
(g299
I44
tp1191
atp1192
a(S'frau'
p1193
(dp1194
S'NOUN'
p1195
F0.230067
sS'ADJ'
p1196
F0.673758
s(lp1197
(g308
I45
tp1198
atp1199
a(S'fourtou'
p1200
(dp1201
S'VERB'
p1202
F0.016201
sS'NOUN'
p1203
F0.96872
s(lp1204
(g317
I46
tp1205
atp1206
a(S'gerade'
p1207
(dp1208
S'ADV'
p1209
F0.982824
sS'ADJ'
p1210
F0.010763
s(lp1211
tp1212
a(S'geendet'
p1213
(dp1214
S'VERB'
p1215
F1.0
s(lp1216
(g269
I37
tp1217
atp1218
a(S'hat'
p1219
(dp1220
S'VERB'
p1221
F1.0
s(lp1222
(g336
I47
tp1223
atp1224
a(g5
(dp1225
g5
F1.0
s(lp1226
(g5
I49
tp1227
atp1228
asS'it'
p1229
(lp1230
(g3
(dp1231
g5
F1.0
s(lp1232
(g3
I0
tp1233
atp1234
a(S'de'
p1235
(dp1236
S'NOUN'
p1237
F1.0
s(lp1238
(g13
I1
tp1239
atp1240
a(g16
(dp1241
g5
F1.0
s(lp1242
(g16
I2
tp1243
atp1244
a(S'signor'
p1245
(dp1246
S'NOUN'
p1247
F1.0
s(lp1248
(g25
I3
tp1249
atp1250
a(S'presidente'
p1251
(dp1252
S'NOUN'
p1253
F1.0
s(lp1254
(g39
I4
tp1255
atp1256
a(g42
(dp1257
g5
F1.0
s(lp1258
(g42
I5
tp1259
atp1260
a(S'signor'
p1261
(dp1262
S'NOUN'
p1263
F1.0
s(lp1264
tp1265
a(S'commissario'
p1266
(dp1267
S'VERB'
p1268
F0.118816
sS'NOUN'
p1269
F0.881184
s(lp1270
(g51
I6
tp1271
atp1272
a(g42
(dp1273
g5
F1.0
s(lp1274
(g42
I7
tp1275
atp1276
a(S'onorevoli'
p1277
(dp1278
S'NOUN'
p1279
F0.040819
sS'ADJ'
p1280
F0.959181
s(lp1281
(g74
I8
tp1282
atp1283
a(S'colleghi'
p1284
(dp1285
S'VERB'
p1286
F0.01303
sS'NOUN'
p1287
F0.986969
s(lp1288
(g88
I10
tp1289
atp1290
a(g42
(dp1291
g5
F1.0
s(lp1292
(g42
I13
tp1293
atp1294
a(S"anch'"
p1295
(dp1296
S'NOUN'
p1297
F0.390789
sS'VERB'
p1298
F0.017922
sS'ADJ'
p1299
F0.59129
s(lp1300
tp1301
a(S'io'
p1302
(dp1303
S'PRON'
p1304
F1.0
s(lp1305
(g120
I14
tp1306
atp1307
a(S'vorrei'
p1308
(dp1309
S'VERB'
p1310
F1.0
s(lp1311
(g106
I18
tp1312
atp1313
a(S'ringraziare'
p1314
(dp1315
S'VERB'
p1316
F1.0
s(lp1317
(g153
I22
tp1318
atp1319
a(S'la'
p1320
(dp1321
S'PRON'
p1322
F0.0
sS'DET'
p1323
F1.0
s(lp1324
(g169
I24
tp1325
atp1326
a(S'relatrice'
p1327
(dp1328
S'NOUN'
p1329
F1.0
s(lp1330
(g178
I25
tp1331
atp1332
a(g42
(dp1333
g5
F1.0
s(lp1334
(g42
I26
tp1335
atp1336
a(S'il'
p1337
(dp1338
S'DET'
p1339
F1.0
s(lp1340
(g196
I27
tp1341
atp1342
a(S'relatore'
p1343
(dp1344
S'NOUN'
p1345
F1.0
s(lp1346
(g205
I29
tp1347
atp1348
a(S'ombra'
p1349
(dp1350
S'VERB'
p1351
F0.211933
sS'NOUN'
p1352
F0.788067
s(lp1353
(g212
I28
tp1354
atp1355
a(S'e'
p1356
(dp1357
S'CONJ'
p1358
F1.0
s(lp1359
(g219
I30
tp1360
atp1361
a(g42
(dp1362
g5
F1.0
s(lp1363
(g42
I31
tp1364
atp1365
a(S'soprattutto'
p1366
(dp1367
S'ADV'
p1368
F1.0
s(lp1369
(g239
I32
tp1370
atp1371
a(g42
(dp1372
g5
F1.0
s(lp1373
(g42
I34
tp1374
atp1375
a(S"l'"
p1376
(dp1377
S'NOUN'
p1378
F0.003774
sS'VERB'
p1379
F0.984512
sS'ADJ'
p1380
F0.011715
s(lp1381
tp1382
a(S'onorevole'
p1383
(dp1384
S'NOUN'
p1385
F0.039914
sS'ADJ'
p1386
F0.960086
s(lp1387
(g259
I36
tp1388
atp1389
a(S'ple\xc5\xa1tinsk\xc3\xa1'
p1390
(dp1391
S'ADJ'
p1392
F0.001246
sS'NOUN'
p1393
F0.998754
s(lp1394
(g269
I37
tp1395
atp1396
a(g1356
(dp1397
S'CONJ'
p1398
F1.0
s(lp1399
(g274
I38
tp1400
atp1401
a(S'vorrei'
p1402
(dp1403
S'VERB'
p1404
F1.0
s(lp1405
(g568
I41
tp1406
atp1407
a(S'riprendere'
p1408
(dp1409
S'VERB'
p1410
F1.0
s(lp1411
(g583
I43
tp1412
atp1413
a(S'da'
p1414
(dp1415
S'ADP'
p1416
F1.0
s(lp1417
tp1418
a(S'dove'
p1419
(dp1420
S'ADV'
p1421
F0.268659
sS'PRON'
p1422
F0.725178
sS'NOUN'
p1423
F0.006163
s(lp1424
(g299
I44
tp1425
atp1426
a(S'ha'
p1427
(dp1428
S'VERB'
p1429
F1.0
s(lp1430
tp1431
a(S'concluso'
p1432
(dp1433
S'VERB'
p1434
F0.998995
sS'ADJ'
p1435
F0.001005
s(lp1436
(g336
I47
tp1437
atp1438
a(S"l'"
p1439
(dp1440
S'NOUN'
p1441
F0.016394
sS'VERB'
p1442
F0.9355919999999999
sS'ADJ'
p1443
F0.048013
s(lp1444
tp1445
a(S'onorevole'
p1446
(dp1447
S'NOUN'
p1448
F0.039101
sS'ADJ'
p1449
F0.960899
s(lp1450
(g308
I45
tp1451
atp1452
a(S'fourtou'
p1453
(dp1454
S'NOUN'
p1455
F1.0
s(lp1456
(g317
I46
tp1457
atp1458
a(g5
(dp1459
g5
F1.0
s(lp1460
(g5
I49
tp1461
atp1462
asS'sk'
p1463
(lp1464
(g3
(dp1465
g5
F1.0
s(lp1466
(g3
I0
tp1467
atp1468
a(S'de'
p1469
(dp1470
g267
F1.0
s(lp1471
(g13
I1
tp1472
atp1473
a(g16
(dp1474
g5
F1.0
s(lp1475
(g16
I2
tp1476
atp1477
a(S'v\xc3\xa1\xc5\xbeen\xc3\xbd'
p1478
(dp1479
S'VERB'
p1480
F0.273237
sS'ADJ'
p1481
F0.726763
s(lp1482
tp1483
a(S'p\xc3\xa1n'
p1484
(dp1485
S'NOUN'
p1486
F1.0
s(lp1487
(g25
I3
tp1488
atp1489
a(S'predsedaj\xc3\xbaci'
p1490
(dp1491
S'VERB'
p1492
F1.0
s(lp1493
(g39
I4
tp1494
atp1495
a(g42
(dp1496
g5
F1.0
s(lp1497
(g42
I5
tp1498
atp1499
a(S'p\xc3\xa1n'
p1500
(dp1501
S'NOUN'
p1502
F1.0
s(lp1503
tp1504
a(S'komis\xc3\xa1r'
p1505
(dp1506
S'NOUN'
p1507
F1.0
s(lp1508
(g51
I6
tp1509
atp1510
a(g42
(dp1511
g5
F1.0
s(lp1512
(g42
I7
tp1513
atp1514
a(S'd\xc3\xa1my'
p1515
(dp1516
S'NOUN'
p1517
F1.0
s(lp1518
(g74
I8
tp1519
atp1520
a(g327
(dp1521
g267
F0.0013250000000000002
sS'CONJ'
p1522
F0.997971
sS'NOUN'
p1523
F0.000112
sS'ADP'
p1524
F0.000533
sS'PRT'
p1525
F5.9e-05
s(lp1526
(g81
I9
tp1527
atp1528
a(S'p\xc3\xa1ni'
p1529
(dp1530
S'NOUN'
p1531
F1.0
s(lp1532
(g88
I10
tp1533
atp1534
a(g42
(dp1535
g5
F1.0
s(lp1536
(g42
I11
tp1537
atp1538
a(S'aj'
p1539
(dp1540
g267
F0.25914099999999995
sS'CONJ'
p1541
F0.740859
s(lp1542
(g120
I14
tp1543
atp1544
a(S'ja'
p1545
(dp1546
S'PRON'
p1547
F0.999905
sS'VERB'
p1548
F1e-06
sS'NOUN'
p1549
F9e-05
sg267
F5e-06
s(lp1550
(g99
I12
tp1551
atp1552
a(S'by'
p1553
(dp1554
S'PRT'
p1555
F1.0
sg267
F0.0
s(lp1556
(g420
I16
tp1557
atp1558
a(S'som'
p1559
(dp1560
S'VERB'
p1561
F1.0
s(lp1562
tp1563
a(S'ur\xc4\x8dite'
p1564
(dp1565
S'ADV'
p1566
F0.000162
sg267
F0.999838
sS'VERB'
p1567
F0.0
s(lp1568
(g426
I17
tp1569
atp1570
a(S'r\xc3\xa1d'
p1571
(dp1572
S'ADV'
p1573
F0.052233
sS'NOUN'
p1574
F0.469487
sS'ADJ'
p1575
F0.448258
sg267
F0.030022
s(lp1576
(g106
I18
tp1577
atp1578
a(S'po\xc4\x8fakoval'
p1579
(dp1580
S'VERB'
p1581
F1.0
s(lp1582
(g153
I22
tp1583
atp1584
a(S'pani'
p1585
(dp1586
S'NOUN'
p1587
F1.0
s(lp1588
tp1589
a(S'spravodajkyni'
p1590
(dp1591
S'NOUN'
p1592
F1.0
s(lp1593
(g178
I25
tp1594
atp1595
a(g42
(dp1596
g5
F1.0
s(lp1597
(g42
I26
tp1598
atp1599
a(S'tie\xc5\x88ov\xc3\xbdm'
p1600
(dp1601
S'ADJ'
p1602
F1.0
s(lp1603
(g212
I28
tp1604
atp1605
a(S'spravodajcom'
p1606
(dp1607
S'NOUN'
p1608
F1.0
s(lp1609
(g205
I29
tp1610
atp1611
a(g42
(dp1612
g5
F1.0
s(lp1613
(g42
I31
tp1614
atp1615
a(S'predov\xc5\xa1etk\xc3\xbdm'
p1616
(dp1617
g267
F1.0
s(lp1618
(g239
I32
tp1619
atp1620
a(S'pani'
p1621
(dp1622
S'NOUN'
p1623
F1.0
s(lp1624
(g259
I36
tp1625
atp1626
a(S'ple\xc5\xa1tinskej'
p1627
(dp1628
S'ADJ'
p1629
F1.0
s(lp1630
(g269
I37
tp1631
atp1632
a(g42
(dp1633
g5
F1.0
s(lp1634
tp1635
a(g327
(dp1636
g267
F0.000241
sS'CONJ'
p1637
F0.999748
sS'NOUN'
p1638
F2e-06
sS'ADP'
p1639
F0.0
sS'PRT'
p1640
F8e-06
s(lp1641
(g274
I38
tp1642
atp1643
a(S'chcel'
p1644
(dp1645
S'VERB'
p1646
F0.999999
s(lp1647
tp1648
a(S'by'
p1649
(dp1650
S'PRT'
p1651
F0.999998
sg267
F2e-06
s(lp1652
(g562
I40
tp1653
atp1654
a(S'som'
p1655
(dp1656
S'VERB'
p1657
F1.0
s(lp1658
(g568
I41
tp1659
atp1660
a(S'pokra\xc4\x8dova\xc5\xa5'
p1661
(dp1662
S'VERB'
p1663
F1.0
s(lp1664
(g583
I43
tp1665
atp1666
a(S'tam'
p1667
(dp1668
S'PRON'
p1669
F0.994442
sg267
F0.005558
s(lp1670
tp1671
a(g42
(dp1672
g5
F1.0
s(lp1673
tp1674
a(S'kde'
p1675
(dp1676
S'PRON'
p1677
F0.9999
sg267
F0.0001
s(lp1678
(g299
I44
tp1679
atp1680
a(S'prestala'
p1681
(dp1682
S'VERB'
p1683
F0.999999
s(lp1684
tp1685
a(S'pani'
p1686
(dp1687
S'NOUN'
p1688
F1.0
s(lp1689
(g308
I45
tp1690
atp1691
a(S'fourtouov\xc3\xa1'
p1692
(dp1693
S'ADJ'
p1694
F0.306489
sS'NOUN'
p1695
F0.570855
sg267
F0.122656
s(lp1696
(g317
I46
tp1697
atp1698
a(g5
(dp1699
g5
F1.0
s(lp1700
(g5
I49
tp1701
atp1702
asS'pl'
p1703
(lp1704
(g3
(dp1705
S'NOUN'
p1706
F0.000436
sg5
F0.999564
s(lp1707
(g3
I0
tp1708
atp1709
a(S'de'
p1710
(dp1711
g267
F0.041959
sS'NOUN'
p1712
F0.922881
sS'PRT'
p1713
F0.03516
s(lp1714
(g13
I1
tp1715
atp1716
a(g16
(dp1717
g5
F1.0
s(lp1718
(g16
I2
tp1719
atp1720
a(S'panie'
p1721
(dp1722
S'NOUN'
p1723
F0.999999
s(lp1724
(g25
I3
tp1725
atp1726
a(S'przewodnicz\xc4\x85cy'
p1727
(dp1728
S'VERB'
p1729
F0.000901
sS'NOUN'
p1730
F0.999099
s(lp1731
(g39
I4
tp1732
atp1733
a(g42
(dp1734
g267
F0.0
sg5
F1.0
s(lp1735
(g42
I5
tp1736
atp1737
a(S'panie'
p1738
(dp1739
S'NOUN'
p1740
F1.0
s(lp1741
tp1742
a(S'komisarzu'
p1743
(dp1744
S'NOUN'
p1745
F1.0
s(lp1746
(g51
I6
tp1747
atp1748
a(g42
(dp1749
g267
F0.0
sg5
F1.0
s(lp1750
(g42
I7
tp1751
atp1752
a(S'panie'
p1753
(dp1754
S'NOUN'
p1755
F1.0000010000000001
s(lp1756
(g74
I8
tp1757
atp1758
a(g99
(dp1759
S'PRT'
p1760
F0.003492
sS'CONJ'
p1761
F0.99649
sS'PRON'
p1762
F6e-06
sS'NOUN'
p1763
F5.999999999999999e-06
sg267
F7e-06
s(lp1764
(g81
I9
tp1765
atp1766
a(S'panowie'
p1767
(dp1768
S'NOUN'
p1769
F1.0
s(lp1770
tp1771
a(g997
(dp1772
g5
F1.0
s(lp1773
(g88
I10
tp1774
atp1775
a(S'ja'
p1776
(dp1777
S'PRON'
p1778
F0.99822
sS'NOUN'
p1779
F0.0014939999999999999
sg267
F8e-05
sS'PRT'
p1780
F0.000205
s(lp1781
(g99
I12
tp1782
atp1783
a(S'tak\xc5\xbce'
p1784
(dp1785
S'PRT'
p1786
F0.971489
sS'CONJ'
p1787
F0.028511
s(lp1788
(g120
I14
tp1789
atp1790
a(S'chcia\xc5\x82bym'
p1791
(dp1792
S'ADV'
p1793
F0.004023
sS'ADJ'
p1794
F0.005207
sS'VERB'
p1795
F0.9742429999999999
sS'NOUN'
p1796
F0.016526999999999997
s(lp1797
(g420
I16
tp1798
atp1799
a(S'si\xc4\x99'
p1800
(dp1801
S'PRT'
p1802
F1.0
s(lp1803
tp1804
a(S'przy\xc5\x82\xc4\x85czy\xc4\x87'
p1805
(dp1806
S'VERB'
p1807
F1.0
s(lp1808
(g134
I20
tp1809
atp1810
a(S'do'
p1811
(dp1812
g267
F0.0
sS'NOUN'
p1813
F1e-06
sS'ADP'
p1814
F0.9999990000000001
s(lp1815
(g141
I19
tp1816
atp1817
a(S'podzi\xc4\x99kowa\xc5\x84'
p1818
(dp1819
S'NOUN'
p1820
F1.0
s(lp1821
(g153
I22
tp1822
atp1823
a(S'dla'
p1824
(dp1825
S'ADP'
p1826
F1.0
s(lp1827
(g160
I23
tp1828
atp1829
a(S'sprawozdawczyni'
p1830
(dp1831
S'ADV'
p1832
F7.5e-05
sS'ADJ'
p1833
F0.001395
sS'VERB'
p1834
F0.00011899999999999998
sS'NOUN'
p1835
F0.9984119999999997
s(lp1836
(g178
I25
tp1837
atp1838
a(g42
(dp1839
g267
F0.0
sg5
F1.0
s(lp1840
(g42
I26
tp1841
atp1842
a(S'kontrsprawozdawcy'
p1843
(dp1844
S'ADV'
p1845
F0.002862
sS'ADJ'
p1846
F0.0033030000000000004
sS'VERB'
p1847
F0.016996999999999998
sS'NOUN'
p1848
F0.9768370000000001
s(lp1849
(g212
I28
tp1850
atp1851
a(g42
(dp1852
g267
F0.0
sg5
F1.0
s(lp1853
(g42
I31
tp1854
atp1855
a(g327
(dp1856
S'ADV'
p1857
F0.000217
sS'NOUN'
p1858
F0.001596
sS'ADP'
p1859
F8e-06
sS'PRT'
p1860
F0.000717
sS'VERB'
p1861
F0.000176
sg267
F0.000537
sS'CONJ'
p1862
F0.99672
sS'ADJ'
p1863
F2.7000000000000002e-05
s(lp1864
(g219
I30
tp1865
atp1866
a(S'przede'
p1867
(dp1868
S'ADP'
p1869
F1.0
s(lp1870
(g239
I32
tp1871
atp1872
a(S'wszystkim'
p1873
(dp1874
S'ADJ'
p1875
F0.00020599999999999997
sS'NOUN'
p1876
F0.999794
s(lp1877
(g232
I33
tp1878
atp1879
a(S'dla'
p1880
(dp1881
S'ADP'
p1882
F1.0
s(lp1883
(g250
I35
tp1884
atp1885
a(S'pani'
p1886
(dp1887
S'NOUN'
p1888
F0.9999990000000001
s(lp1889
(g259
I36
tp1890
atp1891
a(S'ple\xc5\xa1tinskiej'
p1892
(dp1893
S'ADV'
p1894
F0.004182
sS'NOUN'
p1895
F0.228322
sS'VERB'
p1896
F0.09327999999999999
sS'ADJ'
p1897
F0.6741670000000002
sS'PRT'
p1898
F4.9e-05
s(lp1899
(g269
I37
tp1900
atp1901
a(g5
(dp1902
g5
F1.0
s(lp1903
(g5
I49
tp1904
atp1905
asS'sl'
p1906
(lp1907
(g3
(dp1908
g5
F1.0
s(lp1909
(g3
I0
tp1910
atp1911
a(S'de'
p1912
(dp1913
g267
F0.999975
sS'VERB'
p1914
F2.5e-05
s(lp1915
(g13
I1
tp1916
atp1917
a(g16
(dp1918
g5
F1.0
s(lp1919
(g16
I2
tp1920
atp1921
a(S'gospod'
p1922
(dp1923
S'NOUN'
p1924
F1.0
s(lp1925
(g25
I3
tp1926
atp1927
a(S'predsednik'
p1928
(dp1929
S'NOUN'
p1930
F1.0
s(lp1931
(g39
I4
tp1932
atp1933
a(g42
(dp1934
g5
F1.0
s(lp1935
(g42
I5
tp1936
atp1937
a(S'komisar'
p1938
(dp1939
S'NOUN'
p1940
F1.0
s(lp1941
(g51
I6
tp1942
atp1943
a(g42
(dp1944
g5
F1.0
s(lp1945
(g42
I7
tp1946
atp1947
a(S'gospe'
p1948
(dp1949
S'NOUN'
p1950
F1.0
s(lp1951
(g74
I8
tp1952
atp1953
a(S'in'
p1954
(dp1955
S'ADV'
p1956
F2.2e-05
sg267
F1.4e-05
sS'CONJ'
p1957
F0.999957
sS'NOUN'
p1958
F7e-06
s(lp1959
(g81
I9
tp1960
atp1961
a(S'gospodje'
p1962
(dp1963
S'NOUN'
p1964
F1.0
s(lp1965
(g88
I10
tp1966
atp1967
a(g42
(dp1968
g5
F1.0
s(lp1969
(g42
I11
tp1970
atp1971
a(S'tudi'
p1972
(dp1973
S'PRT'
p1974
F1.0
s(lp1975
tp1976
a(S'jaz'
p1977
(dp1978
S'PRON'
p1979
F1.0
s(lp1980
(g120
I14
tp1981
atp1982
a(S'bi'
p1983
(dp1984
g267
F4.3e-05
sS'VERB'
p1985
F0.999957
s(lp1986
(g420
I16
tp1987
atp1988
a(S'se'
p1989
(dp1990
S'PRON'
p1991
F0.999999
sg267
F1e-06
s(lp1992
tp1993
a(S'rad'
p1994
(dp1995
S'ADV'
p1996
F1.0
s(lp1997
(g106
I18
tp1998
atp1999
a(S'zahvalil'
p2000
(dp2001
S'VERB'
p2002
F1.0
s(lp2003
(g153
I22
tp2004
atp2005
a(S'poro\xc4\x8devalki'
p2006
(dp2007
S'ADV'
p2008
F0.002999
sS'NOUN'
p2009
F0.28843500000000005
sS'VERB'
p2010
F0.006104999999999999
sS'ADJ'
p2011
F0.7024599999999999
s(lp2012
(g178
I25
tp2013
atp2014
a(g42
(dp2015
g5
F1.0
s(lp2016
(g42
I26
tp2017
atp2018
a(S'poro\xc4\x8devalcem'
p2019
(dp2020
S'ADV'
p2021
F0.005979
sS'ADJ'
p2022
F0.000762
sS'VERB'
p2023
F0.026541
sS'NOUN'
p2024
F0.9667180000000003
s(lp2025
(g205
I29
tp2026
atp2027
a(S'v'
p2028
(dp2029
S'ADP'
p2030
F1.0
s(lp2031
tp2032
a(S'senci'
p2033
(dp2034
S'NOUN'
p2035
F1.0
s(lp2036
(g212
I28
tp2037
atp2038
a(S'in'
p2039
(dp2040
S'ADV'
p2041
F0.000102
sg267
F5.4e-05
sS'CONJ'
p2042
F0.999837
sS'NOUN'
p2043
F8e-06
s(lp2044
(g219
I30
tp2045
atp2046
a(S'predvsem'
p2047
(dp2048
S'PRT'
p2049
F1.0
s(lp2050
(g239
I32
tp2051
atp2052
a(S'gospe'
p2053
(dp2054
S'NOUN'
p2055
F1.0
s(lp2056
(g259
I36
tp2057
atp2058
a(S'ple\xc5\xa1tinski'
p2059
(dp2060
S'ADV'
p2061
F0.004941
sS'ADJ'
p2062
F0.338515
sS'VERB'
p2063
F0.036005
sS'NOUN'
p2064
F0.620537
s(lp2065
(g269
I37
tp2066
atp2067
a(S'ter'
p2068
(dp2069
S'CONJ'
p2070
F1.0
s(lp2071
(g274
I38
tp2072
atp2073
a(S'bi'
p2074
(dp2075
g267
F8.2e-05
sS'VERB'
p2076
F0.999918
s(lp2077
(g562
I40
tp2078
atp2079
a(S'rad'
p2080
(dp2081
S'ADV'
p2082
F1.0
s(lp2083
(g568
I41
tp2084
atp2085
a(S'nadaljeval'
p2086
(dp2087
S'VERB'
p2088
F1.0
s(lp2089
(g583
I43
tp2090
atp2091
a(g42
(dp2092
g5
F1.0
s(lp2093
tp2094
a(S'kjer'
p2095
(dp2096
S'CONJ'
p2097
F1.0
s(lp2098
(g299
I44
tp2099
atp2100
a(S'je'
p2101
(dp2102
S'PRON'
p2103
F0.000454
sS'VERB'
p2104
F0.999545
sg267
F0.0
s(lp2105
(g617
I48
tp2106
atp2107
a(S'ostala'
p2108
(dp2109
S'VERB'
p2110
F0.802393
sS'ADJ'
p2111
F0.19760700000000003
s(lp2112
(g336
I47
tp2113
atp2114
a(S'gospa'
p2115
(dp2116
S'NOUN'
p2117
F1.0
s(lp2118
(g308
I45
tp2119
atp2120
a(S'fourtou'
p2121
(dp2122
S'ADV'
p2123
F0.001222
sS'ADJ'
p2124
F0.017238000000000003
sS'VERB'
p2125
F0.004866
sS'NOUN'
p2126
F0.9766730000000001
s(lp2127
(g317
I46
tp2128
atp2129
a(g5
(dp2130
g5
F1.0
s(lp2131
(g5
I49
tp2132
atp2133
asS'es'
p2134
(lp2135
(g3
(dp2136
g5
F1.0
s(lp2137
(g3
I0
tp2138
atp2139
a(S'de'
p2140
(dp2141
g267
F0.393369
sS'CONJ'
p2142
F0.00278
sS'ADP'
p2143
F0.603851
s(lp2144
(g13
I1
tp2145
atp2146
a(g16
(dp2147
g5
F1.0
s(lp2148
(g16
I2
tp2149
atp2150
a(S'se\xc3\xb1or'
p2151
(dp2152
S'NOUN'
p2153
F1.0
s(lp2154
(g25
I3
tp2155
atp2156
a(S'presidente'
p2157
(dp2158
S'NOUN'
p2159
F1.0
s(lp2160
(g39
I4
tp2161
atp2162
a(g42
(dp2163
g5
F1.0
s(lp2164
(g42
I5
tp2165
atp2166
a(S'se\xc3\xb1or'
p2167
(dp2168
S'NOUN'
p2169
F1.0
s(lp2170
tp2171
a(S'comisario'
p2172
(dp2173
S'NOUN'
p2174
F1.0
s(lp2175
(g51
I6
tp2176
atp2177
a(g42
(dp2178
g5
F1.0
s(lp2179
(g42
I7
tp2180
atp2181
a(S'se\xc3\xb1or\xc3\xadas'
p2182
(dp2183
S'NOUN'
p2184
F1.0
s(lp2185
(g74
I8
tp2186
atp2187
a(g42
(dp2188
g5
F1.0
s(lp2189
(g42
I11
tp2190
atp2191
a(S'tambi\xc3\xa9n'
p2192
(dp2193
S'ADV'
p2194
F1.0
s(lp2195
(g120
I14
tp2196
atp2197
a(S'yo'
p2198
(dp2199
S'PRON'
p2200
F1.0
s(lp2201
(g99
I12
tp2202
atp2203
a(g42
(dp2204
g5
F1.0
s(lp2205
(g42
I15
tp2206
atp2207
a(S'por'
p2208
(dp2209
S'ADV'
p2210
F1.0
s(lp2211
(g426
I17
tp2212
atp2213
a(S'supuesto'
p2214
(dp2215
S'ADV'
p2216
F1.0
s(lp2217
tp2218
a(g42
(dp2219
g5
F1.0
s(lp2220
(g426
I17
tp2221
atp2222
a(S'quisiera'
p2223
(dp2224
S'VERB'
p2225
F1.0
s(lp2226
(g106
I18
tp2227
atp2228
a(S'agradecer'
p2229
(dp2230
S'VERB'
p2231
F1.0
s(lp2232
(g153
I22
tp2233
atp2234
a(g327
(dp2235
g267
F0.000259
sS'CONJ'
p2236
F5e-06
sS'ADP'
p2237
F0.999736
s(lp2238
(g160
I23
tp2239
atp2240
a(S'la'
p2241
(dp2242
g267
F1e-06
sS'PRON'
p2243
F0.0
sS'DET'
p2244
F0.999999
sS'NOUN'
p2245
F0.0
s(lp2246
(g169
I24
tp2247
atp2248
a(S'ponente'
p2249
(dp2250
S'NOUN'
p2251
F1.0
s(lp2252
(g178
I25
tp2253
atp2254
a(g42
(dp2255
g5
F1.0
s(lp2256
(g42
I26
tp2257
atp2258
a(g327
(dp2259
g267
F0.0018599999999999999
sS'CONJ'
p2260
F1e-05
sS'ADP'
p2261
F0.998129
s(lp2262
tp2263
a(S'los'
p2264
(dp2265
S'PRON'
p2266
F0.0
sS'DET'
p2267
F1.0
s(lp2268
(g196
I27
tp2269
atp2270
a(S'ponentes'
p2271
(dp2272
S'ADJ'
p2273
F2.9e-05
sS'NOUN'
p2274
F0.999971
s(lp2275
(g205
I29
tp2276
atp2277
a(S'alternativos'
p2278
(dp2279
S'ADJ'
p2280
F1.0
s(lp2281
(g212
I28
tp2282
atp2283
a(S'y'
p2284
(dp2285
g267
F0.002655
sS'CONJ'
p2286
F0.997345
s(lp2287
(g219
I30
tp2288
atp2289
a(g42
(dp2290
g5
F1.0
s(lp2291
(g42
I31
tp2292
atp2293
a(S'por'
p2294
(dp2295
S'ADP'
p2296
F1.0
s(lp2297
tp2298
a(S'encima'
p2299
(dp2300
S'ADP'
p2301
F1.0
s(lp2302
(g239
I32
tp2303
atp2304
a(S'de'
p2305
(dp2306
S'ADP'
p2307
F1.0
s(lp2308
tp2309
a(S'todo'
p2310
(dp2311
S'ADJ'
p2312
F1.0
s(lp2313
(g232
I33
tp2314
atp2315
a(g327
(dp2316
g267
F0.000152
sS'CONJ'
p2317
F3e-06
sS'ADP'
p2318
F0.999846
s(lp2319
(g250
I35
tp2320
atp2321
a(S'la'
p2322
(dp2323
S'NOUN'
p2324
F0.0
sS'PRON'
p2325
F0.0
sS'DET'
p2326
F0.999999
sg267
F0.0
s(lp2327
tp2328
a(S'se\xc3\xb1ora'
p2329
(dp2330
S'NOUN'
p2331
F1.0
s(lp2332
(g259
I36
tp2333
atp2334
a(S'ple\xc5\xa1tinsk\xc3\xa1'
p2335
(dp2336
S'VERB'
p2337
F1.0
s(lp2338
(g269
I37
tp2339
atp2340
a(g2284
(dp2341
g267
F0.0
sS'CONJ'
p2342
F1.0
s(lp2343
(g274
I38
tp2344
atp2345
a(S'me'
p2346
(dp2347
S'PRON'
p2348
F1.0
sS'NOUN'
p2349
F0.0
s(lp2350
(g99
I39
tp2351
atp2352
a(S'gustar\xc3\xada'
p2353
(dp2354
S'VERB'
p2355
F1.0
s(lp2356
(g568
I41
tp2357
atp2358
a(S'continuar'
p2359
(dp2360
S'VERB'
p2361
F1.0
s(lp2362
(g583
I43
tp2363
atp2364
a(S'donde'
p2365
(dp2366
S'ADV'
p2367
F1.0
s(lp2368
(g299
I44
tp2369
atp2370
a(S'se'
p2371
(dp2372
S'PRON'
p2373
F1.0
sS'VERB'
p2374
F0.0
s(lp2375
tp2376
a(S'qued\xc3\xb3'
p2377
(dp2378
S'VERB'
p2379
F1.0
s(lp2380
(g336
I47
tp2381
atp2382
a(S'la'
p2383
(dp2384
g267
F0.0
sS'PRON'
p2385
F0.0
sS'DET'
p2386
F1.0
sS'NOUN'
p2387
F0.0
s(lp2388
tp2389
a(S'se\xc3\xb1ora'
p2390
(dp2391
S'NOUN'
p2392
F1.0
s(lp2393
(g308
I45
tp2394
atp2395
a(S'fourtou'
p2396
(dp2397
S'ADJ'
p2398
F0.340216
sS'NOUN'
p2399
F0.659783
s(lp2400
(g317
I46
tp2401
atp2402
a(g5
(dp2403
g5
F1.0
s(lp2404
(g5
I49
tp2405
atp2406
as.