(dp0
S'fr'
p1
(lp2
(S'il'
p3
(dp4
S'PRON'
p5
F1.0
s(lp6
(S'it'
p7
I0
tp8
atp9
a(S'porte'
p10
(dp11
S'ADJ'
p12
F9.6e-05
sS'VERB'
p13
F0.999722
sS'NOUN'
p14
F0.000182
s(lp15
(S'relates'
p16
I1
tp17
atp18
a(S'principalement'
p19
(dp20
S'ADV'
p21
F1.0
s(lp22
(S'principally'
p23
I2
tp24
atp25
a(S'sur'
p26
(dp27
S'ADP'
p28
F1.0
s(lp29
(S'to'
p30
I3
tp31
atp32
a(S'les'
p33
(dp34
S'PRON'
p35
F5.6e-05
sS'DET'
p36
F0.999943
sS'ADP'
p37
F2e-06
s(lp38
tp39
a(S'probl\xc3\xa8mes'
p40
(dp41
S'NOUN'
p42
F1.0
s(lp43
(S'problems'
p44
I4
tp45
atp46
a(S'li\xc3\xa9s'
p47
(dp48
S'VERB'
p49
F0.930039
sS'ADJ'
p50
F0.069961
s(lp51
(S'resulting'
p52
I5
tp53
atp54
a(S'\xc3\xa0'
p55
(dp56
S'ADP'
p57
F1.0
s(lp58
(S'from'
p59
I6
tp60
atp61
a(S"l'"
p62
(dp63
S'ADJ'
p64
F0.160704
sS'VERB'
p65
F0.06480800000000002
sS'NOUN'
p66
F0.774488
s(lp67
(S'the'
p68
I7
tp69
atp70
a(S'ajout'
p71
(dp72
S'NOUN'
p73
F1.0
s(lp74
(S'addition'
p75
I8
tp76
atp77
a(S','
p78
(dp79
S'.'
p80
F1.0
s(lp81
(g78
I9
tp82
atp83
a(S'par'
p84
(dp85
S'NOUN'
p86
F4.8e-05
sS'ADP'
p87
F0.999952
s(lp88
(S'using'
p89
I10
tp90
atp91
a(S'diff\xc3\xa9rents'
p92
(dp93
S'ADJ'
p94
F1.0
s(lp95
(S'number'
p96
I12
tp97
atp98
a(S'moyens'
p99
(dp100
S'ADJ'
p101
F0.060643
sS'NOUN'
p102
F0.939357
s(lp103
(S'means'
p104
I14
tp105
atp106
a(g78
(dp107
g80
F1.0
s(lp108
(g78
I15
tp109
atp110
a(S"d'"
p111
(dp112
S'ADJ'
p113
F0.13429
sS'VERB'
p114
F0.638201
sS'NOUN'
p115
F0.227509
s(lp116
(S'of'
p117
I16
tp118
atp119
a(S'acide'
p120
(dp121
S'ADJ'
p122
F0.492131
sS'NOUN'
p123
F0.507869
s(lp124
(S'acid'
p125
I18
tp126
atp127
a(S'docosahexa\xc3\xa9no\xc3\xafque'
p128
(dp129
S'NOUN'
p130
F0.319754
sS'VERB'
p131
F0.0020169999999999997
sS'ADJ'
p132
F0.678229
s(lp133
(S'docosahexaenoic'
p134
I17
tp135
atp136
a(S'('
p137
(dp138
g80
F1.0
s(lp139
(g137
I19
tp140
atp141
a(S'dha'
p142
(dp143
S'NOUN'
p144
F1.0
s(lp145
(S'dha'
p146
I20
tp147
atp148
a(S')'
p149
(dp150
g80
F1.0
s(lp151
(g149
I21
tp152
atp153
a(S'au'
p154
(dp155
S'ADP'
p156
F1.0
s(lp157
(S'to'
p158
I22
tp159
atp160
a(S'lait'
p161
(dp162
S'NOUN'
p163
F1.0
s(lp164
tp165
a(S'maternel'
p166
(dp167
S'ADJ'
p168
F1.0
s(lp169
(S'milk'
p170
I24
tp171
atp172
a(g78
(dp173
g80
F1.0
s(lp174
(g78
I25
tp175
atp176
a(S'qui'
p177
(dp178
S'PRON'
p179
F1.0
s(lp180
(S'where'
p181
I26
tp182
atp183
a(S'contribue'
p184
(dp185
S'VERB'
p186
F1.000001
s(lp187
(S'contributes'
p188
I28
tp189
atp190
a(S'au'
p191
(dp192
S'ADP'
p193
F1.0
s(lp194
(S'to'
p195
I29
tp196
atp197
a(S'd\xc3\xa9veloppement'
p198
(dp199
S'NOUN'
p200
F1.0
s(lp201
(S'development'
p202
I32
tp203
atp204
a(S'visuel'
p205
(dp206
S'NOUN'
p207
F0.046689
sS'ADJ'
p208
F0.953311
s(lp209
tp210
a(S'normal'
p211
(dp212
S'ADJ'
p213
F0.275994
sS'NOUN'
p214
F0.724006
s(lp215
(S'normal'
p216
I30
tp217
atp218
a(S'des'
p219
(dp220
S'DET'
p221
F2.2e-05
sS'ADP'
p222
F0.999978
s(lp223
(S'children'
p224
I34
tp225
atp226
a(S'nourrissons'
p227
(dp228
S'VERB'
p229
F1e-05
sS'NOUN'
p230
F0.999991
s(lp231
(S'visual'
p232
I31
tp233
atp234
a(S"jusqu'"
p235
(dp236
S'ADJ'
p237
F0.054584
sS'VERB'
p238
F0.014802
sS'NOUN'
p239
F0.930614
s(lp240
(S'up'
p241
I36
tp242
atp243
a(S'\xc3\xa0'
p244
(dp245
S'ADP'
p246
F1.0
s(lp247
(S'to'
p248
I37
tp249
atp250
a(S'12'
p251
(dp252
S'X'
p253
F1.5e-05
sS'NUM'
p254
F0.999985
s(lp255
(S'12'
p256
I38
tp257
atp258
a(S'mois'
p259
(dp260
S'NOUN'
p261
F1.0
s(lp262
(S'months'
p263
I39
tp264
atp265
a(g80
(dp266
g80
F1.0
s(lp267
(g80
I40
tp268
atp269
asS'en'
p270
(lp271
(g7
(dp272
S'PRON'
p273
F1.0
s(lp274
(g7
I0
tp275
atp276
a(g16
(dp277
S'VERB'
p278
F1.0
s(lp279
(g16
I1
tp280
atp281
a(g23
(dp282
S'ADV'
p283
F1.0
s(lp284
(g23
I2
tp285
atp286
a(g30
(dp287
S'ADV'
p288
F2e-06
sS'PRT'
p289
F0.999987
sS'ADP'
p290
F1.1e-05
s(lp291
(g30
I3
tp292
atp293
a(g44
(dp294
S'NOUN'
p295
F1.0
s(lp296
(g44
I4
tp297
atp298
a(g52
(dp299
S'VERB'
p300
F0.996794
sS'ADJ'
p301
F0.003206
s(lp302
(g52
I5
tp303
atp304
a(g59
(dp305
S'ADP'
p306
F1.0
s(lp307
(g59
I6
tp308
atp309
a(g68
(dp310
S'NOUN'
p311
F1e-06
sS'DET'
p312
F0.999999
s(lp313
(g68
I7
tp314
atp315
a(g75
(dp316
S'NOUN'
p317
F1.0
s(lp318
(g75
I8
tp319
atp320
a(g78
(dp321
g80
F1.0
s(lp322
(g78
I9
tp323
atp324
a(g89
(dp325
S'VERB'
p326
F1.0
s(lp327
(g89
I10
tp328
atp329
a(S'a'
p330
(dp331
S'NOUN'
p332
F0.0
sS'DET'
p333
F1.0
s(lp334
(g330
I11
tp335
atp336
a(g96
(dp337
S'ADJ'
p338
F0.000161
sS'VERB'
p339
F0.0
sS'NOUN'
p340
F0.999838
s(lp341
(g96
I12
tp342
atp343
a(S'of'
p344
(dp345
S'ADP'
p346
F1.0
s(lp347
(g344
I13
tp348
atp349
a(g104
(dp350
S'VERB'
p351
F0.022248
sS'NOUN'
p352
F0.977751
s(lp353
(g104
I14
tp354
atp355
a(g78
(dp356
g80
F1.0
s(lp357
(g78
I15
tp358
atp359
a(g117
(dp360
S'ADP'
p361
F1.0
s(lp362
(g117
I16
tp363
atp364
a(g134
(dp365
S'NOUN'
p366
F0.019305
sS'ADJ'
p367
F0.980694
s(lp368
(g134
I17
tp369
atp370
a(g125
(dp371
S'ADJ'
p372
F0.051102
sS'NOUN'
p373
F0.948898
s(lp374
(g125
I18
tp375
atp376
a(g137
(dp377
g80
F1.0
s(lp378
(g137
I19
tp379
atp380
a(g146
(dp381
S'NOUN'
p382
F1.0
s(lp383
(g146
I20
tp384
atp385
a(g149
(dp386
g80
F1.0
s(lp387
(g149
I21
tp388
atp389
a(g158
(dp390
S'ADV'
p391
F1e-06
sS'PRT'
p392
F0.999997
sS'ADP'
p393
F2e-06
s(lp394
(g158
I22
tp395
atp396
a(S'breast'
p397
(dp398
S'VERB'
p399
F0.722634
sS'NOUN'
p400
F0.277366
s(lp401
(g397
I23
tp402
atp403
a(g170
(dp404
S'VERB'
p405
F0.011727
sS'NOUN'
p406
F0.988273
s(lp407
(g170
I24
tp408
atp409
a(g78
(dp410
g80
F1.0
s(lp411
(g78
I25
tp412
atp413
a(g181
(dp414
S'ADV'
p415
F0.999983
sS'ADP'
p416
F1.7e-05
s(lp417
(g181
I26
tp418
atp419
a(S'it'
p420
(dp421
S'PRON'
p422
F1.0
s(lp423
(g420
I27
tp424
atp425
a(g188
(dp426
S'VERB'
p427
F1.0
s(lp428
(g188
I28
tp429
atp430
a(g195
(dp431
S'ADV'
p432
F5e-06
sS'PRT'
p433
F0.999993
sS'ADP'
p434
F2e-06
s(lp435
(g195
I29
tp436
atp437
a(g216
(dp438
S'ADV'
p439
F0.01473
sS'NOUN'
p440
F0.000236
sS'ADJ'
p441
F0.985033
s(lp442
(g216
I30
tp443
atp444
a(g232
(dp445
S'NOUN'
p446
F0.0345
sS'ADJ'
p447
F0.9655
s(lp448
(g232
I31
tp449
atp450
a(g202
(dp451
S'NOUN'
p452
F1.0
s(lp453
(g202
I32
tp454
atp455
a(S'in'
p456
(dp457
S'ADV'
p458
F5.8e-05
sS'PRT'
p459
F0.00033
sS'ADP'
p460
F0.999611
s(lp461
(g456
I33
tp462
atp463
a(g224
(dp464
S'NOUN'
p465
F1.0
s(lp466
(g224
I34
tp467
atp468
a(S'aged'
p469
(dp470
S'ADJ'
p471
F0.00013
sS'VERB'
p472
F0.9996769999999999
sS'NOUN'
p473
F0.000193
s(lp474
(g469
I35
tp475
atp476
a(g241
(dp477
S'ADV'
p478
F0.06639
sS'PRT'
p479
F0.917478
sS'NOUN'
p480
F7e-06
sS'ADP'
p481
F0.016125
s(lp482
(g241
I36
tp483
atp484
a(g248
(dp485
S'ADV'
p486
F7e-06
sS'PRT'
p487
F0.999986
sS'ADP'
p488
F7e-06
s(lp489
(g248
I37
tp490
atp491
a(g256
(dp492
S'ADV'
p493
F2e-06
sS'NOUN'
p494
F0.000211
sS'NUM'
p495
F0.997968
sS'ADJ'
p496
F0.001819
sg253
F0.0
s(lp497
(g256
I38
tp498
atp499
a(g263
(dp500
S'NOUN'
p501
F1.0
s(lp502
(g263
I39
tp503
atp504
a(g80
(dp505
g80
F1.0
s(lp506
(g80
I40
tp507
atp508
asS'nl'
p509
(lp510
(S'in'
p511
(dp512
S'ADV'
p513
F0.00377
sS'VERB'
p514
F0.0
sS'ADP'
p515
F0.996229
s(lp516
(g117
I16
tp517
atp518
a(S'deze'
p519
(dp520
S'PRON'
p521
F1.0
s(lp522
(g7
I0
tp523
atp524
a(S'resolutie'
p525
(dp526
S'NOUN'
p527
F1.0
s(lp528
(g134
I17
tp529
atp530
a(S'wordt'
p531
(dp532
S'VERB'
p533
F1.0
s(lp534
(g104
I14
tp535
atp536
a(S'met'
p537
(dp538
S'ADP'
p539
F1.0
s(lp540
(g16
I1
tp541
atp542
a(S'name'
p543
(dp544
S'NOUN'
p545
F1.0
s(lp546
(g23
I2
tp547
atp548
a(S'gewag'
p549
(dp550
S'NOUN'
p551
F1.0
s(lp552
tp553
a(S'gemaakt'
p554
(dp555
S'VERB'
p556
F0.99826
sS'ADJ'
p557
F0.00174
s(lp558
(g89
I10
tp559
atp560
a(S'van'
p561
(dp562
S'ADP'
p563
F1.0
s(lp564
(g344
I13
tp565
atp566
a(S'de'
p567
(dp568
S'DET'
p569
F1.0
s(lp570
(g330
I11
tp571
atp572
a(S'problemen'
p573
(dp574
S'NOUN'
p575
F1.0
s(lp576
(g44
I4
tp577
atp578
a(S'die'
p579
(dp580
S'PRON'
p581
F1.0
s(lp582
tp583
a(S'verband'
p584
(dp585
S'NOUN'
p586
F1.0
s(lp587
(g52
I5
tp588
atp589
a(S'houden'
p590
(dp591
S'VERB'
p592
F0.999968
sS'NOUN'
p593
F3.2e-05
s(lp594
(g125
I18
tp595
atp596
a(S'met'
p597
(dp598
S'ADP'
p599
F1.0
s(lp600
(g59
I6
tp601
atp602
a(S'de'
p603
(dp604
S'DET'
p605
F1.0
s(lp606
(g68
I7
tp607
atp608
a(S'toevoeging'
p609
(dp610
S'NOUN'
p611
F1.0
s(lp612
(g75
I8
tp613
atp614
a(S'van'
p615
(dp616
S'ADP'
p617
F1.0
s(lp618
tp619
a(S'docosahexaeen-zuur'
p620
(dp621
S'ADJ'
p622
F0.001564
sS'NOUN'
p623
F0.998436
s(lp624
(g134
I17
tp625
atp626
a(g137
(dp627
g80
F1.0
s(lp628
(g137
I19
tp629
atp630
a(S'dha'
p631
(dp632
S'ADJ'
p633
F0.06221
sS'NOUN'
p634
F0.93779
s(lp635
(g146
I20
tp636
atp637
a(g149
(dp638
g80
F1.0
s(lp639
(g149
I21
tp640
atp641
a(S'aan'
p642
(dp643
S'ADV'
p644
F0.019602
sS'ADP'
p645
F0.980398
s(lp646
(g158
I22
tp647
atp648
a(S'moedermelk'
p649
(dp650
S'NOUN'
p651
F1.0
s(lp652
(g397
I23
tp653
atp654
a(g78
(dp655
g80
F1.0
s(lp656
(g78
I25
tp657
atp658
a(S'waar'
p659
(dp660
S'ADV'
p661
F0.999723
sS'NOUN'
p662
F8e-06
sS'ADJ'
p663
F0.000268
s(lp664
(g181
I26
tp665
atp666
a(S'dha'
p667
(dp668
S'ADJ'
p669
F0.174319
sS'NOUN'
p670
F0.8256809999999999
s(lp671
tp672
a(S'zou'
p673
(dp674
S'VERB'
p675
F1.0
s(lp676
(g146
I20
tp677
atp678
a(S'bijdragen'
p679
(dp680
S'VERB'
p681
F0.86456
sS'NOUN'
p682
F0.13544
s(lp683
tp684
a(S'aan'
p685
(dp686
S'ADV'
p687
F0.0023
sS'ADP'
p688
F0.9977
s(lp689
(g188
I28
tp690
atp691
a(S'de'
p692
(dp693
S'DET'
p694
F1.0
s(lp695
tp696
a(S'normale'
p697
(dp698
S'NOUN'
p699
F0.000181
sS'ADJ'
p700
F0.999819
s(lp701
(g216
I30
tp702
atp703
a(S'visuele'
p704
(dp705
S'NOUN'
p706
F0.007836
sS'ADJ'
p707
F0.992164
s(lp708
(g232
I31
tp709
atp710
a(S'ontwikkeling'
p711
(dp712
S'NOUN'
p713
F1.0
s(lp714
(g202
I32
tp715
atp716
a(S'van'
p717
(dp718
S'ADP'
p719
F1.0
s(lp720
(g456
I33
tp721
atp722
a(S'kinderen'
p723
(dp724
S'NOUN'
p725
F1.0
s(lp726
(g224
I34
tp727
atp728
a(S'tot'
p729
(dp730
S'CONJ'
p731
F7e-05
sS'ADP'
p732
F0.99993
s(lp733
(g469
I35
tp734
atp735
a(S'12'
p736
(dp737
S'NUM'
p738
F1.0
s(lp739
(g256
I38
tp740
atp741
a(S'maanden'
p742
(dp743
S'VERB'
p744
F0.0
sS'NOUN'
p745
F1.0
s(lp746
(g263
I39
tp747
atp748
a(g80
(dp749
g80
F1.0
s(lp750
(g80
I40
tp751
atp752
asS'de'
p753
(lp754
(S'es'
p755
(dp756
S'PRON'
p757
F1.0
s(lp758
(g7
I0
tp759
atp760
a(S'befasst'
p761
(dp762
S'VERB'
p763
F0.9999899999999999
s(lp764
tp765
a(S'sich'
p766
(dp767
S'PRON'
p768
F1.0
s(lp769
(g16
I1
tp770
atp771
a(S'haupts\xc3\xa4chlich'
p772
(dp773
S'ADJ'
p774
F1.0
s(lp775
(g23
I2
tp776
atp777
a(S'mit'
p778
(dp779
S'PRT'
p780
F0.00297
sS'ADP'
p781
F0.99703
s(lp782
(g30
I3
tp783
atp784
a(S'problemen'
p785
(dp786
S'ADJ'
p787
F0.129637
sS'NOUN'
p788
F0.727048
s(lp789
(g44
I4
tp790
atp791
a(g78
(dp792
g80
F1.0
s(lp793
tp794
a(S'die'
p795
(dp796
S'PRON'
p797
F0.993332
s(lp798
tp799
a(S'entstehen'
p800
(dp801
S'VERB'
p802
F1.0
s(lp803
(g52
I5
tp804
atp805
a(g78
(dp806
g80
F1.0
s(lp807
(g78
I9
tp808
atp809
a(S'wenn'
p810
(dp811
S'CONJ'
p812
F1.0
s(lp813
(g89
I10
tp814
atp815
a(S'docosahexaens\xc3\xa4ure'
p816
(dp817
S'ADJ'
p818
F0.001746
sS'NOUN'
p819
F0.995684
s(lp820
(g134
I17
tp821
atp822
a(g137
(dp823
g80
F1.0
s(lp824
(g137
I19
tp825
atp826
a(S'dha'
p827
(dp828
S'NOUN'
p829
F1.0
s(lp830
tp831
a(g149
(dp832
g80
F1.0
s(lp833
(g149
I21
tp834
atp835
a(S'auf'
p836
(dp837
S'PRT'
p838
F0.000151
sS'ADP'
p839
F0.999788
s(lp840
(g158
I22
tp841
atp842
a(S'unterschiedliche'
p843
(dp844
S'ADJ'
p845
F1.0
s(lp846
(g134
I17
tp847
atp848
a(S'art'
p849
(dp850
g253
F1.0
s(lp851
(g134
I17
tp852
atp853
a(S'und'
p854
(dp855
S'CONJ'
p856
F1.0
s(lp857
tp858
a(S'weise'
p859
(dp860
S'VERB'
p861
F0.886228
sS'ADJ'
p862
F0.075949
s(lp863
(g134
I17
tp864
atp865
a(S'der'
p866
(dp867
S'PRON'
p868
F0.001023
sS'DET'
p869
F0.998727
s(lp870
(g344
I13
tp871
atp872
a(S'muttermilch'
p873
(dp874
S'ADJ'
p875
F0.041656
sS'NOUN'
p876
F0.942483
s(lp877
(g134
I17
tp878
atp879
a(S'beigef\xc3\xbcgt'
p880
(dp881
S'VERB'
p882
F0.982104
sS'ADJ'
p883
F0.017896
s(lp884
(g134
I17
tp885
atp886
a(S'wird'
p887
(dp888
S'VERB'
p889
F1.0
s(lp890
(g78
I25
tp891
atp892
a(g80
(dp893
g80
F1.0
s(lp894
(g78
I15
tp895
atp896
a(S'in'
p897
(dp898
S'ADP'
p899
F1.0
s(lp900
(g181
I26
tp901
atp902
a(S'der'
p903
(dp904
S'PRON'
p905
F4.4e-05
sS'DET'
p906
F0.999942
s(lp907
(g117
I16
tp908
atp909
a(S'muttermilch'
p910
(dp911
S'ADJ'
p912
F0.019572
sS'NOUN'
p913
F0.958239
s(lp914
(g397
I23
tp915
atp916
a(S'tr\xc3\xa4gt'
p917
(dp918
S'VERB'
p919
F1.0
s(lp920
(g188
I28
tp921
atp922
a(S'dha'
p923
(dp924
S'NOUN'
p925
F1.0
s(lp926
(g146
I20
tp927
atp928
a(S'zur'
p929
(dp930
S'ADP'
p931
F1.0
s(lp932
(g195
I29
tp933
atp934
a(S'normalen'
p935
(dp936
S'ADJ'
p937
F1.0
s(lp938
(g216
I30
tp939
atp940
a(S'entwicklung'
p941
(dp942
S'VERB'
p943
F0.00238
sS'NOUN'
p944
F0.994318
s(lp945
(g202
I32
tp946
atp947
a(S'der'
p948
(dp949
S'PRON'
p950
F0.000109
sS'DET'
p951
F0.99983
s(lp952
(g456
I33
tp953
atp954
a(S'sehkraft'
p955
(dp956
S'NOUN'
p957
F0.943231
s(lp958
(g134
I17
tp959
atp960
a(S'bei'
p961
(dp962
S'PRT'
p963
F0.000935
sS'ADP'
p964
F0.999065
s(lp965
tp966
a(S's\xc3\xa4uglingen'
p967
(dp968
g253
F0.196358
sS'ADJ'
p969
F0.594405
s(lp970
(g134
I17
tp971
atp972
a(S'bis'
p973
(dp974
S'CONJ'
p975
F0.92518
sS'ADP'
p976
F0.074409
s(lp977
(g469
I35
tp978
atp979
a(S'zum'
p980
(dp981
S'ADP'
p982
F1.0
s(lp983
tp984
a(S'alter'
p985
(dp986
S'ADJ'
p987
F1.0
s(lp988
tp989
a(S'von'
p990
(dp991
S'NOUN'
p992
F0.008153
sS'ADP'
p993
F0.991847
s(lp994
(g469
I35
tp995
atp996
a(S'12'
p997
(dp998
S'NUM'
p999
F1.0
s(lp1000
(g256
I38
tp1001
atp1002
a(S'monaten'
p1003
(dp1004
S'ADJ'
p1005
F0.026849
sS'NOUN'
p1006
F0.972673
s(lp1007
(g263
I39
tp1008
atp1009
a(S'bei'
p1010
(dp1011
S'PRT'
p1012
F0.99991
sS'ADP'
p1013
F9e-05
s(lp1014
(g188
I28
tp1015
atp1016
a(g80
(dp1017
g80
F1.0
s(lp1018
(g80
I40
tp1019
atp1020
asS'it'
p1021
(lp1022
(S'riguarda'
p1023
(dp1024
S'VERB'
p1025
F1.0
s(lp1026
(g16
I1
tp1027
atp1028
a(S'principalmente'
p1029
(dp1030
S'ADV'
p1031
F1.0
s(lp1032
(g23
I2
tp1033
atp1034
a(S'i'
p1035
(dp1036
S'DET'
p1037
F1.0
s(lp1038
tp1039
a(S'problemi'
p1040
(dp1041
S'NOUN'
p1042
F1.0
s(lp1043
(g44
I4
tp1044
atp1045
a(S'derivanti'
p1046
(dp1047
S'VERB'
p1048
F1.0
s(lp1049
(g52
I5
tp1050
atp1051
a(S"dall'"
p1052
(dp1053
S'ADJ'
p1054
F0.000785
sS'NOUN'
p1055
F0.999215
s(lp1056
(g59
I6
tp1057
atp1058
a(S'aggiunta'
p1059
(dp1060
S'NOUN'
p1061
F0.211447
sS'VERB'
p1062
F0.450237
sS'ADJ'
p1063
F0.338316
s(lp1064
(g75
I8
tp1065
atp1066
a(g78
(dp1067
g80
F1.0
s(lp1068
(g78
I9
tp1069
atp1070
a(S'con'
p1071
(dp1072
S'ADP'
p1073
F1.0
s(lp1074
(g89
I10
tp1075
atp1076
a(S'vari'
p1077
(dp1078
S'NOUN'
p1079
F0.008946
sS'VERB'
p1080
F0.0019119999999999999
sS'ADJ'
p1081
F0.989143
s(lp1082
(g96
I12
tp1083
atp1084
a(S'metodi'
p1085
(dp1086
S'NOUN'
p1087
F1.0
s(lp1088
(g104
I14
tp1089
atp1090
a(g78
(dp1091
g80
F1.0
s(lp1092
(g78
I15
tp1093
atp1094
a(S'di'
p1095
(dp1096
S'CONJ'
p1097
F1.6e-05
sS'ADP'
p1098
F0.999984
s(lp1099
(g117
I16
tp1100
atp1101
a(S'acido'
p1102
(dp1103
S'ADJ'
p1104
F0.329562
sS'NOUN'
p1105
F0.670438
s(lp1106
tp1107
a(S'docosaesaenoico'
p1108
(dp1109
S'NOUN'
p1110
F0.104231
sS'VERB'
p1111
F0.000186
sS'ADJ'
p1112
F0.895582
s(lp1113
(g134
I17
tp1114
atp1115
a(g137
(dp1116
g80
F1.0
s(lp1117
(g137
I19
tp1118
atp1119
a(S'dha'
p1120
(dp1121
S'ADJ'
p1122
F0.002161
sS'VERB'
p1123
F0.026514
sS'NOUN'
p1124
F0.971324
s(lp1125
(g146
I20
tp1126
atp1127
a(g149
(dp1128
g80
F1.0
s(lp1129
(g149
I21
tp1130
atp1131
a(S'al'
p1132
(dp1133
S'ADP'
p1134
F1.0
s(lp1135
(g158
I22
tp1136
atp1137
a(S'latte'
p1138
(dp1139
S'NOUN'
p1140
F1.0
s(lp1141
(g170
I24
tp1142
atp1143
a(S'materno'
p1144
(dp1145
S'ADJ'
p1146
F1.0
s(lp1147
(g397
I23
tp1148
atp1149
a(g78
(dp1150
g80
F1.0
s(lp1151
(g78
I25
tp1152
atp1153
a(S'nel'
p1154
(dp1155
S'ADP'
p1156
F1.0
s(lp1157
tp1158
a(S'quale'
p1159
(dp1160
S'PRON'
p1161
F0.9949939999999999
sS'ADJ'
p1162
F0.005007
s(lp1163
(g181
I26
tp1164
atp1165
a(S'contribuisce'
p1166
(dp1167
S'VERB'
p1168
F1.0
s(lp1169
(g188
I28
tp1170
atp1171
a(S'allo'
p1172
(dp1173
g253
F3e-06
sS'ADP'
p1174
F0.999997
s(lp1175
tp1176
a(S'sviluppo'
p1177
(dp1178
S'VERB'
p1179
F5.7e-05
sS'NOUN'
p1180
F0.999943
s(lp1181
(g202
I32
tp1182
atp1183
a(S'visivo'
p1184
(dp1185
S'ADJ'
p1186
F1.0
s(lp1187
(g232
I31
tp1188
atp1189
a(S'dei'
p1190
(dp1191
S'NOUN'
p1192
F1.6e-05
sS'DEF'
p1193
F0.001996
sS'ADP'
p1194
F0.997987
s(lp1195
tp1196
a(S'bambini'
p1197
(dp1198
S'NOUN'
p1199
F1.0
s(lp1200
(g224
I34
tp1201
atp1202
a(S'fino'
p1203
(dp1204
S'CONJ'
p1205
F0.64055
sS'ADJ'
p1206
F0.05237
sS'ADP'
p1207
F0.30708
s(lp1208
(g241
I36
tp1209
atp1210
a(S'ai'
p1211
(dp1212
S'NOUN'
p1213
F0.001697
sS'ADP'
p1214
F0.998303
s(lp1215
(g248
I37
tp1216
atp1217
a(S'12'
p1218
(dp1219
S'NUM'
p1220
F0.999783
sg80
F0.000217
s(lp1221
(g256
I38
tp1222
atp1223
a(S'mesi'
p1224
(dp1225
S'NOUN'
p1226
F1.0
s(lp1227
(g263
I39
tp1228
atp1229
a(S'di'
p1230
(dp1231
S'CONJ'
p1232
F4e-06
sS'ADP'
p1233
F0.999996
s(lp1234
tp1235
a(S'et\xc3\xa0'
p1236
(dp1237
S'NOUN'
p1238
F1.0
s(lp1239
(g469
I35
tp1240
atp1241
a(g80
(dp1242
g80
F1.0
s(lp1243
(g80
I40
tp1244
atp1245
asS'sk'
p1246
(lp1247
(S'v'
p1248
(dp1249
g253
F0.000596
sS'ADP'
p1250
F0.999404
s(lp1251
tp1252
a(S'z\xc3\xa1sade'
p1253
(dp1254
S'NOUN'
p1255
F1.0
s(lp1256
(g23
I2
tp1257
atp1258
a(S'sa'
p1259
(dp1260
S'PRT'
p1261
F0.999903
sS'ADP'
p1262
F1e-06
sg253
F9.5e-05
s(lp1263
tp1264
a(S't\xc3\xbdka'
p1265
(dp1266
g253
F0.00282
sS'VERB'
p1267
F0.99718
s(lp1268
(g16
I1
tp1269
atp1270
a(S'probl\xc3\xa9mov'
p1271
(dp1272
S'NOUN'
p1273
F1.0
s(lp1274
(g44
I4
tp1275
atp1276
a(S'vypl\xc3\xbdvaj\xc3\xbacich'
p1277
(dp1278
S'VERB'
p1279
F1.0
s(lp1280
(g52
I5
tp1281
atp1282
a(S'z'
p1283
(dp1284
g253
F0.00058
sS'NOUN'
p1285
F4.9e-05
sS'ADP'
p1286
F0.999371
s(lp1287
(g59
I6
tp1288
atp1289
a(S'prid\xc3\xa1vania'
p1290
(dp1291
S'VERB'
p1292
F2.5000000000000005e-05
sS'NOUN'
p1293
F0.999974
s(lp1294
tp1295
a(S'kyseliny'
p1296
(dp1297
S'NOUN'
p1298
F1.0
s(lp1299
(g134
I17
tp1300
atp1301
a(S'dokosahexaenovej'
p1302
(dp1303
S'NOUN'
p1304
F0.03606
sS'VERB'
p1305
F0.0043690000000000005
sS'ADJ'
p1306
F0.959569
s(lp1307
(g125
I18
tp1308
atp1309
a(g137
(dp1310
g80
F1.0
s(lp1311
(g137
I19
tp1312
atp1313
a(S'dha'
p1314
(dp1315
S'NOUN'
p1316
F1.0
s(lp1317
(g146
I20
tp1318
atp1319
a(g149
(dp1320
g80
F1.0
s(lp1321
(g149
I21
tp1322
atp1323
a(S's'
p1324
(dp1325
g253
F0.002417
sS'CONJ'
p1326
F0.000211
sS'NOUN'
p1327
F8e-06
sS'ADP'
p1328
F0.997308
sS'PRT'
p1329
F5.6e-05
s(lp1330
(g68
I7
tp1331
atp1332
a(S'pou\xc5\xbeit\xc3\xadm'
p1333
(dp1334
S'NOUN'
p1335
F1.0
s(lp1336
(g89
I10
tp1337
atp1338
a(S'mno\xc5\xbestva'
p1339
(dp1340
S'NOUN'
p1341
F1.0
s(lp1342
(g96
I12
tp1343
atp1344
a(S'prostriedkov'
p1345
(dp1346
S'NOUN'
p1347
F1.0
s(lp1348
(g104
I14
tp1349
atp1350
a(S'do'
p1351
(dp1352
S'PRON'
p1353
F4.3e-05
sS'ADP'
p1354
F0.99993
sg253
F2.6000000000000002e-05
s(lp1355
(g158
I22
tp1356
atp1357
a(S'matersk\xc3\xa9ho'
p1358
(dp1359
S'ADJ'
p1360
F1.0
s(lp1361
(g397
I23
tp1362
atp1363
a(S'mlieka'
p1364
(dp1365
S'NOUN'
p1366
F1.0
s(lp1367
(g170
I24
tp1368
atp1369
a(g78
(dp1370
g80
F1.0
s(lp1371
(g78
I25
tp1372
atp1373
a(S'kde'
p1374
(dp1375
S'PRON'
p1376
F0.999869
sg253
F0.000132
s(lp1377
(g181
I26
tp1378
atp1379
a(S'prispieva'
p1380
(dp1381
S'VERB'
p1382
F1.0
s(lp1383
tp1384
a(S'k'
p1385
(dp1386
g253
F0.000161
sS'NOUN'
p1387
F1.1e-05
sS'ADP'
p1388
F0.999828
s(lp1389
(g188
I28
tp1390
atp1391
a(S'norm\xc3\xa1lnemu'
p1392
(dp1393
S'ADJ'
p1394
F1.0
s(lp1395
(g216
I30
tp1396
atp1397
a(S'v\xc3\xbdvoju'
p1398
(dp1399
S'NOUN'
p1400
F1.0
s(lp1401
(g232
I31
tp1402
atp1403
a(S'zraku'
p1404
(dp1405
S'NOUN'
p1406
F1.0
s(lp1407
tp1408
a(S'u'
p1409
(dp1410
g253
F0.002126
sS'NOUN'
p1411
F0.000156
sS'ADP'
p1412
F0.997718
s(lp1413
(g232
I31
tp1414
atp1415
a(S'det\xc3\xad'
p1416
(dp1417
S'NOUN'
p1418
F1.0
s(lp1419
(g224
I34
tp1420
atp1421
a(S'do'
p1422
(dp1423
S'PRON'
p1424
F4.8e-05
sS'ADP'
p1425
F0.999919
sg253
F3.2000000000000005e-05
s(lp1426
tp1427
a(S'veku'
p1428
(dp1429
S'NOUN'
p1430
F1.0
s(lp1431
(g469
I35
tp1432
atp1433
a(S'12'
p1434
(dp1435
S'NUM'
p1436
F1.0
s(lp1437
(g256
I38
tp1438
atp1439
a(S'mesiacov'
p1440
(dp1441
S'NOUN'
p1442
F1.0
s(lp1443
(g263
I39
tp1444
atp1445
a(g80
(dp1446
g80
F1.0
s(lp1447
(g80
I40
tp1448
atp1449
asS'pl'
p1450
(lp1451
(S'w'
p1452
(dp1453
S'ADJ'
p1454
F0.0
sg253
F0.0
sS'NOUN'
p1455
F0.0
sS'ADP'
p1456
F1.0
s(lp1457
(g7
I0
tp1458
atp1459
a(S'dokumencie'
p1460
(dp1461
S'NOUN'
p1462
F1.0
s(lp1463
tp1464
a(S'odniesiono'
p1465
(dp1466
S'ADV'
p1467
F0.000577
sS'NOUN'
p1468
F0.000725
sS'VERB'
p1469
F0.9984369999999997
sS'ADJ'
p1470
F0.000263
s(lp1471
(g134
I17
tp1472
atp1473
a(S'si\xc4\x99'
p1474
(dp1475
S'PRT'
p1476
F1.0
s(lp1477
(g16
I1
tp1478
atp1479
a(S'przede'
p1480
(dp1481
S'ADP'
p1482
F1.0
s(lp1483
tp1484
a(S'wszystkim'
p1485
(dp1486
S'ADJ'
p1487
F0.00020599999999999997
sS'NOUN'
p1488
F0.999794
s(lp1489
(g23
I2
tp1490
atp1491
a(S'do'
p1492
(dp1493
g253
F0.0
sS'NOUN'
p1494
F5e-06
sS'ADP'
p1495
F0.9999950000000001
s(lp1496
(g30
I3
tp1497
atp1498
a(S'problem\xc3\xb3w'
p1499
(dp1500
S'NOUN'
p1501
F1.0
s(lp1502
(g44
I4
tp1503
atp1504
a(S'wynikaj\xc4\x85cych'
p1505
(dp1506
S'VERB'
p1507
F1.000001
s(lp1508
(g52
I5
tp1509
atp1510
a(g1283
(dp1511
S'PRT'
p1512
F4.4e-05
sS'VERB'
p1513
F1e-06
sS'NOUN'
p1514
F2e-06
sS'ADP'
p1515
F0.999951
sg253
F2e-06
s(lp1516
(g59
I6
tp1517
atp1518
a(S'dodawania'
p1519
(dp1520
S'ADV'
p1521
F8.6e-05
sS'ADJ'
p1522
F0.001781
sS'VERB'
p1523
F0.4204749999999999
sS'NOUN'
p1524
F0.5776589999999999
s(lp1525
(g75
I8
tp1526
atp1527
a(g78
(dp1528
g253
F0.0
sg80
F1.0
s(lp1529
(g78
I9
tp1530
atp1531
a(S'przy'
p1532
(dp1533
S'VERB'
p1534
F0.00016
sS'ADP'
p1535
F0.99984
s(lp1536
tp1537
a(S'u\xc5\xbcyciu'
p1538
(dp1539
S'VERB'
p1540
F0.8714620000000001
sS'NOUN'
p1541
F0.128538
s(lp1542
(g89
I10
tp1543
atp1544
a(S'r\xc3\xb3\xc5\xbcnych'
p1545
(dp1546
S'ADJ'
p1547
F1.0000000000000002
s(lp1548
(g96
I12
tp1549
atp1550
a(S'sposob\xc3\xb3w'
p1551
(dp1552
S'NOUN'
p1553
F1.0
s(lp1554
(g104
I14
tp1555
atp1556
a(g78
(dp1557
g253
F0.0
sg80
F1.0
s(lp1558
(g78
I15
tp1559
atp1560
a(S'kwasu'
p1561
(dp1562
S'NOUN'
p1563
F1.0
s(lp1564
tp1565
a(S'dokozaheksaenowego'
p1566
(dp1567
S'ADV'
p1568
F9.7e-05
sS'NOUN'
p1569
F0.0036590000000000004
sS'VERB'
p1570
F0.001292
sS'ADJ'
p1571
F0.9949530000000001
s(lp1572
(g125
I18
tp1573
atp1574
a(g137
(dp1575
S'NOUN'
p1576
F2.1e-05
sg80
F0.999979
s(lp1577
(g137
I19
tp1578
atp1579
a(S'dha'
p1580
(dp1581
S'ADJ'
p1582
F0.035128
sS'VERB'
p1583
F0.17664400000000002
sS'NOUN'
p1584
F0.788228
s(lp1585
(g146
I20
tp1586
atp1587
a(g149
(dp1588
g80
F1.0
s(lp1589
(g149
I21
tp1590
atp1591
a(S'do'
p1592
(dp1593
g253
F1e-06
sS'NOUN'
p1594
F2.7e-05
sS'ADP'
p1595
F0.9999720000000001
s(lp1596
(g158
I22
tp1597
atp1598
a(S'mleka'
p1599
(dp1600
S'NOUN'
p1601
F1.0
s(lp1602
(g170
I24
tp1603
atp1604
a(S'matki'
p1605
(dp1606
S'NOUN'
p1607
F1.0
s(lp1608
(g397
I23
tp1609
atp1610
a(g78
(dp1611
g253
F0.0
sg80
F1.0
s(lp1612
(g78
I25
tp1613
atp1614
a(S'co'
p1615
(dp1616
S'PRT'
p1617
F0.073534
sS'CONJ'
p1618
F0.400162
sS'NOUN'
p1619
F0.5255380000000001
sS'ADP'
p1620
F0.000765
s(lp1621
(g181
I26
tp1622
atp1623
a(S'przyczynia'
p1624
(dp1625
S'VERB'
p1626
F1.0
s(lp1627
tp1628
a(S'si\xc4\x99'
p1629
(dp1630
S'PRT'
p1631
F1.0
s(lp1632
(g188
I28
tp1633
atp1634
a(S'do'
p1635
(dp1636
g253
F0.0
sS'NOUN'
p1637
F4e-06
sS'ADP'
p1638
F0.999997
s(lp1639
(g195
I29
tp1640
atp1641
a(S'normalnego'
p1642
(dp1643
S'ADJ'
p1644
F0.9999999999999999
s(lp1645
(g216
I30
tp1646
atp1647
a(S'rozwoju'
p1648
(dp1649
S'NOUN'
p1650
F1.0
s(lp1651
(g202
I32
tp1652
atp1653
a(S'wzroku'
p1654
(dp1655
S'NOUN'
p1656
F1.0
s(lp1657
(g232
I31
tp1658
atp1659
a(S'niemowl\xc4\x85t'
p1660
(dp1661
S'NOUN'
p1662
F1.0
s(lp1663
(g224
I34
tp1664
atp1665
a(S'do'
p1666
(dp1667
g253
F0.0
sS'NOUN'
p1668
F1.1e-05
sS'ADP'
p1669
F0.999989
s(lp1670
(g248
I37
tp1671
atp1672
a(S'12.'
p1673
(dp1674
S'NUM'
p1675
F0.5277109999999999
sS'ADJ'
p1676
F0.4722929999999999
s(lp1677
(g256
I38
tp1678
atp1679
a(S'miesi\xc4\x85ca'
p1680
(dp1681
S'NOUN'
p1682
F1.0
s(lp1683
(g263
I39
tp1684
atp1685
a(S'\xc5\xbcycia'
p1686
(dp1687
S'VERB'
p1688
F0.010946
sS'NOUN'
p1689
F0.989054
s(lp1690
(g469
I35
tp1691
atp1692
a(g80
(dp1693
g80
F1.0
s(lp1694
(g80
I40
tp1695
atp1696
asS'sl'
p1697
(lp1698
(S'navezuje'
p1699
(dp1700
S'VERB'
p1701
F1.0
s(lp1702
tp1703
a(S'se'
p1704
(dp1705
S'PRON'
p1706
F0.999949
sg253
F5.1e-05
s(lp1707
(g16
I1
tp1708
atp1709
a(S'predvsem'
p1710
(dp1711
S'PRT'
p1712
F1.0
s(lp1713
(g23
I2
tp1714
atp1715
a(S'na'
p1716
(dp1717
S'ADP'
p1718
F1.0
s(lp1719
(g30
I3
tp1720
atp1721
a(S'te\xc5\xbeave'
p1722
(dp1723
S'NOUN'
p1724
F1.0
s(lp1725
(g44
I4
tp1726
atp1727
a(g78
(dp1728
g80
F1.0
s(lp1729
(g78
I15
tp1730
atp1731
a(S'ki'
p1732
(dp1733
S'CONJ'
p1734
F1.0
s(lp1735
(g52
I5
tp1736
atp1737
a(S'so'
p1738
(dp1739
g253
F1.6e-05
sS'VERB'
p1740
F0.999984
s(lp1741
tp1742
a(S'posledica'
p1743
(dp1744
S'NOUN'
p1745
F1.0
s(lp1746
(g52
I5
tp1747
atp1748
a(S'dodajanja'
p1749
(dp1750
S'ADJ'
p1751
F0.003202
sS'VERB'
p1752
F0.007617
sS'NOUN'
p1753
F0.98918
s(lp1754
tp1755
a(S'dokozaheksaenojske'
p1756
(dp1757
S'ADV'
p1758
F5e-06
sS'NOUN'
p1759
F0.0009350000000000002
sS'VERB'
p1760
F5.4000000000000005e-05
sS'ADJ'
p1761
F0.999008
s(lp1762
(g134
I17
tp1763
atp1764
a(S'kisline'
p1765
(dp1766
S'NOUN'
p1767
F0.9999999999999999
s(lp1768
(g125
I18
tp1769
atp1770
a(g137
(dp1771
g80
F1.0
s(lp1772
(g137
I19
tp1773
atp1774
a(S'dha'
p1775
(dp1776
S'ADV'
p1777
F0.000276
sS'ADJ'
p1778
F0.00045400000000000003
sS'VERB'
p1779
F0.0032479999999999996
sS'NOUN'
p1780
F0.99602
s(lp1781
(g146
I20
tp1782
atp1783
a(g149
(dp1784
g80
F1.0
s(lp1785
(g149
I21
tp1786
atp1787
a(g1283
(dp1788
S'ADP'
p1789
F1.0
s(lp1790
(g59
I6
tp1791
atp1792
a(S'uporabo'
p1793
(dp1794
S'NOUN'
p1795
F1.0
s(lp1796
(g89
I10
tp1797
atp1798
a(S'razli\xc4\x8dnih'
p1799
(dp1800
S'ADJ'
p1801
F1.0
s(lp1802
(g96
I12
tp1803
atp1804
a(S'sredstev'
p1805
(dp1806
S'NOUN'
p1807
F1.0
s(lp1808
(g104
I14
tp1809
atp1810
a(S'materinemu'
p1811
(dp1812
S'ADJ'
p1813
F1.0
s(lp1814
(g397
I23
tp1815
atp1816
a(S'mleku'
p1817
(dp1818
S'NOUN'
p1819
F1.0
s(lp1820
(g170
I24
tp1821
atp1822
a(g78
(dp1823
g80
F1.0
s(lp1824
(g78
I25
tp1825
atp1826
a(S'kjer'
p1827
(dp1828
S'CONJ'
p1829
F1.0
s(lp1830
(g181
I26
tp1831
atp1832
a(S'prispeva'
p1833
(dp1834
S'VERB'
p1835
F1.0
s(lp1836
tp1837
a(g1385
(dp1838
S'NOUN'
p1839
F4e-06
sS'ADP'
p1840
F0.999996
s(lp1841
(g188
I28
tp1842
atp1843
a(S'normalnemu'
p1844
(dp1845
S'ADV'
p1846
F0.0
sS'NOUN'
p1847
F5.4e-05
sS'PRON'
p1848
F6.2e-05
sS'NUM'
p1849
F6.4e-05
sS'ADJ'
p1850
F0.9998179999999999
sS'VERB'
p1851
F0.0
s(lp1852
(g216
I30
tp1853
atp1854
a(S'razvoju'
p1855
(dp1856
S'NOUN'
p1857
F1.0
s(lp1858
(g202
I32
tp1859
atp1860
a(S'vida'
p1861
(dp1862
S'NOUN'
p1863
F1.0
s(lp1864
(g232
I31
tp1865
atp1866
a(S'otrok'
p1867
(dp1868
S'NOUN'
p1869
F0.9999999999999999
s(lp1870
(g224
I34
tp1871
atp1872
a(S'do'
p1873
(dp1874
g253
F9.2e-05
sS'ADP'
p1875
F0.999908
s(lp1876
tp1877
a(S'12.'
p1878
(dp1879
S'NUM'
p1880
F1.0
s(lp1881
(g256
I38
tp1882
atp1883
a(S'meseca'
p1884
(dp1885
S'NOUN'
p1886
F1.0000010000000001
s(lp1887
(g263
I39
tp1888
atp1889
a(S'starosti'
p1890
(dp1891
S'NOUN'
p1892
F1.0
s(lp1893
(g469
I35
tp1894
atp1895
a(g80
(dp1896
g80
F1.0
s(lp1897
(g80
I40
tp1898
atp1899
asS'es'
p1900
(lp1901
(S'se'
p1902
(dp1903
S'PRON'
p1904
F1.0
sS'VERB'
p1905
F0.0
s(lp1906
tp1907
a(S'refiere'
p1908
(dp1909
S'VERB'
p1910
F1.0
s(lp1911
(g16
I1
tp1912
atp1913
a(S'principalmente'
p1914
(dp1915
S'ADV'
p1916
F1.0
s(lp1917
(g23
I2
tp1918
atp1919
a(g330
(dp1920
g253
F0.0021
sS'CONJ'
p1921
F1.9e-05
sS'ADP'
p1922
F0.997882
s(lp1923
(g30
I3
tp1924
atp1925
a(S'los'
p1926
(dp1927
S'PRON'
p1928
F0.0
sS'DET'
p1929
F1.0
s(lp1930
tp1931
a(S'problemas'
p1932
(dp1933
S'NOUN'
p1934
F1.0
s(lp1935
(g44
I4
tp1936
atp1937
a(S'derivados'
p1938
(dp1939
S'VERB'
p1940
F0.727223
sS'ADJ'
p1941
F0.272777
s(lp1942
(g52
I5
tp1943
atp1944
a(S'de'
p1945
(dp1946
g253
F0.0
sS'CONJ'
p1947
F3.3e-05
sS'ADP'
p1948
F0.999967
s(lp1949
(g59
I6
tp1950
atp1951
a(S'la'
p1952
(dp1953
S'NOUN'
p1954
F0.0
sS'PRON'
p1955
F0.0
sS'DET'
p1956
F0.999999
sg253
F0.0
s(lp1957
(g68
I7
tp1958
atp1959
a(S'adici\xc3\xb3n'
p1960
(dp1961
S'NOUN'
p1962
F1.0
s(lp1963
(g75
I8
tp1964
atp1965
a(g78
(dp1966
g80
F1.0
s(lp1967
(g78
I9
tp1968
atp1969
a(S'utilizando'
p1970
(dp1971
S'VERB'
p1972
F1.0
s(lp1973
(g89
I10
tp1974
atp1975
a(S'una'
p1976
(dp1977
S'DET'
p1978
F1.0
s(lp1979
(g330
I11
tp1980
atp1981
a(S'serie'
p1982
(dp1983
S'NOUN'
p1984
F1.0
s(lp1985
(g96
I12
tp1986
atp1987
a(S'de'
p1988
(dp1989
g253
F3.1e-05
sS'CONJ'
p1990
F0.000435
sS'ADP'
p1991
F0.999534
s(lp1992
(g344
I13
tp1993
atp1994
a(S'medios'
p1995
(dp1996
S'ADJ'
p1997
F0.080595
sS'NOUN'
p1998
F0.919406
s(lp1999
(g104
I14
tp2000
atp2001
a(g78
(dp2002
g80
F1.0
s(lp2003
(g78
I15
tp2004
atp2005
a(S'de'
p2006
(dp2007
g253
F0.000224
sS'CONJ'
p2008
F0.001716
sS'ADP'
p2009
F0.99806
s(lp2010
(g117
I16
tp2011
atp2012
a(S'\xc3\xa1cido'
p2013
(dp2014
S'ADJ'
p2015
F0.017045
sS'NOUN'
p2016
F0.982955
s(lp2017
(g125
I18
tp2018
atp2019
a(S'docosahexaenoico'
p2020
(dp2021
S'NOUN'
p2022
F0.004126
sS'VERB'
p2023
F8e-06
sS'ADJ'
p2024
F0.995866
s(lp2025
(g134
I17
tp2026
atp2027
a(g137
(dp2028
g80
F1.0
s(lp2029
(g137
I19
tp2030
atp2031
a(S'dha'
p2032
(dp2033
S'ADJ'
p2034
F0.016579
sS'NOUN'
p2035
F0.983421
s(lp2036
(g146
I20
tp2037
atp2038
a(g149
(dp2039
g80
F1.0
s(lp2040
(g149
I21
tp2041
atp2042
a(S'de'
p2043
(dp2044
g253
F1e-06
sS'CONJ'
p2045
F6.7e-05
sS'ADP'
p2046
F0.999932
s(lp2047
(g158
I22
tp2048
atp2049
a(S'la'
p2050
(dp2051
g253
F1e-06
sS'PRON'
p2052
F0.0
sS'DET'
p2053
F0.999998
sS'NOUN'
p2054
F0.0
s(lp2055
tp2056
a(S'leche'
p2057
(dp2058
S'VERB'
p2059
F8.7e-05
sS'NOUN'
p2060
F0.999913
s(lp2061
(g170
I24
tp2062
atp2063
a(S'materna'
p2064
(dp2065
S'ADJ'
p2066
F1.0
s(lp2067
(g397
I23
tp2068
atp2069
a(g78
(dp2070
g80
F1.0
s(lp2071
(g78
I25
tp2072
atp2073
a(S'contribuyendo'
p2074
(dp2075
S'VERB'
p2076
F1.0
s(lp2077
(g188
I28
tp2078
atp2079
a(S'as\xc3\xad'
p2080
(dp2081
S'ADV'
p2082
F0.809925
sS'CONJ'
p2083
F0.190075
s(lp2084
tp2085
a(S'al'
p2086
(dp2087
S'CONJ'
p2088
F0.01698
sS'ADP'
p2089
F0.9830209999999999
s(lp2090
(g195
I29
tp2091
atp2092
a(S'desarrollo'
p2093
(dp2094
S'NOUN'
p2095
F1.0
s(lp2096
(g202
I32
tp2097
atp2098
a(S'visual'
p2099
(dp2100
S'NOUN'
p2101
F0.036121
sS'ADJ'
p2102
F0.963879
s(lp2103
(g232
I31
tp2104
atp2105
a(S'normal'
p2106
(dp2107
g253
F0.001043
sS'ADJ'
p2108
F0.998957
s(lp2109
(g216
I30
tp2110
atp2111
a(S'de'
p2112
(dp2113
g253
F0.0
sS'CONJ'
p2114
F5.7e-05
sS'ADP'
p2115
F0.999943
s(lp2116
(g456
I33
tp2117
atp2118
a(S'los'
p2119
(dp2120
S'PRON'
p2121
F0.0
sS'DET'
p2122
F1.0
s(lp2123
(g224
I34
tp2124
atp2125
a(S'lactantes'
p2126
(dp2127
S'NOUN'
p2128
F1.0
s(lp2129
(g469
I35
tp2130
atp2131
a(S'hasta'
p2132
(dp2133
S'ADP'
p2134
F1.0
s(lp2135
tp2136
a(S'la'
p2137
(dp2138
S'NOUN'
p2139
F0.0
sS'PRON'
p2140
F0.0
sS'DET'
p2141
F0.999999
sg253
F0.0
s(lp2142
tp2143
a(S'edad'
p2144
(dp2145
S'NOUN'
p2146
F1.0
s(lp2147
(g469
I35
tp2148
atp2149
a(S'de'
p2150
(dp2151
g253
F0.000242
sS'CONJ'
p2152
F6e-05
sS'ADP'
p2153
F0.999698
s(lp2154
(g248
I37
tp2155
atp2156
a(S'12'
p2157
(dp2158
g253
F0.008767
sS'NUM'
p2159
F0.991233
s(lp2160
(g256
I38
tp2161
atp2162
a(S'meses'
p2163
(dp2164
S'NOUN'
p2165
F1.0
s(lp2166
(g263
I39
tp2167
atp2168
a(g80
(dp2169
g80
F1.0
s(lp2170
(g80
I40
tp2171
atp2172
as.