(dp0
S'fr'
p1
(lp2
(S'je'
p3
(dp4
S'PRON'
p5
F1.0
s(lp6
(S'i'
p7
I0
tp8
atp9
a(S'pense'
p10
(dp11
S'VERB'
p12
F1.0
s(lp13
tp14
a(S'que'
p15
(dp16
S'ADV'
p17
F0.025348
sS'PRON'
p18
F0.118513
sS'CONJ'
p19
F0.856139
s(lp20
(S'believe'
p21
I1
tp22
atp23
a(S'nous'
p24
(dp25
S'PRON'
p26
F1.0
s(lp27
(S'we'
p28
I2
tp29
atp30
a(S'avons'
p31
(dp32
S'VERB'
p33
F1.0
s(lp34
(S'have'
p35
I3
tp36
atp37
a(S'des'
p38
(dp39
S'DET'
p40
F0.000244
sS'ADP'
p41
F0.999756
s(lp42
(S'direct'
p43
I5
tp44
atp45
a(S'possibilit\xc3\xa9s'
p46
(dp47
S'NOUN'
p48
F1.0
s(lp49
(S'capacity'
p50
I7
tp51
atp52
a(S"d'"
p53
(dp54
S'NOUN'
p55
F0.032441
sS'VERB'
p56
F0.694014
sS'ADJ'
p57
F0.273544
s(lp58
(S'some'
p59
I4
tp60
atp61
a(S'\xc3\xa9conomies'
p62
(dp63
S'NOUN'
p64
F1.0
s(lp65
(S'spare'
p66
I6
tp67
atp68
a(S'dans'
p69
(dp70
S'NOUN'
p71
F0.000115
sS'ADP'
p72
F0.999885
s(lp73
(S'in'
p74
I8
tp75
atp76
a(S"l'"
p77
(dp78
S'ADJ'
p79
F0.160717
sS'VERB'
p80
F0.06488100000000001
sS'NOUN'
p81
F0.774403
s(lp82
(S'the'
p83
I9
tp84
atp85
a(S'organisation'
p86
(dp87
S'NOUN'
p88
F1.0
s(lp89
(S'organise'
p90
I12
tp91
atp92
a(S'de'
p93
(dp94
S'ADP'
p95
F1.0
s(lp96
tp97
a(S'nos'
p98
(dp99
S'PRON'
p100
F1.0
s(lp101
(S'our'
p102
I13
tp103
atp104
a(S'travaux'
p105
(dp106
S'NOUN'
p107
F1.0
s(lp108
(S'work'
p109
I14
tp110
atp111
a(S'.'
p112
(dp113
g112
F1.0
s(lp114
(g112
I15
tp115
atp116
asS'en'
p117
(lp118
(g7
(dp119
S'X'
p120
F0.004614
sS'NOUN'
p121
F0.9953860000000001
s(lp122
(g7
I0
tp123
atp124
a(g21
(dp125
S'VERB'
p126
F1.0
s(lp127
(g21
I1
tp128
atp129
a(g28
(dp130
S'PRON'
p131
F1.0
s(lp132
(g28
I2
tp133
atp134
a(g35
(dp135
S'VERB'
p136
F1.0
s(lp137
(g35
I3
tp138
atp139
a(g59
(dp140
S'ADV'
p141
F0.018089
sS'DET'
p142
F0.981911
s(lp143
(g59
I4
tp144
atp145
a(g43
(dp146
S'ADV'
p147
F0.002073
sS'VERB'
p148
F0.000789
sS'ADJ'
p149
F0.997138
s(lp150
(g43
I5
tp151
atp152
a(g66
(dp153
S'NOUN'
p154
F0.06788
sS'VERB'
p155
F0.001032
sS'ADJ'
p156
F0.931088
s(lp157
(g66
I6
tp158
atp159
a(g50
(dp160
S'NOUN'
p161
F1.0
s(lp162
(g50
I7
tp163
atp164
a(g74
(dp165
S'ADV'
p166
F0.000191
sS'PRT'
p167
F0.000279
sS'ADP'
p168
F0.999531
s(lp169
(g74
I8
tp170
atp171
a(g83
(dp172
S'NOUN'
p173
F2e-06
sS'DET'
p174
F0.999998
s(lp175
(g83
I9
tp176
atp177
a(S'way'
p178
(dp179
S'ADV'
p180
F0.008628
sS'NOUN'
p181
F0.991372
s(lp182
(g178
I10
tp183
atp184
a(S'we'
p185
(dp186
S'PRON'
p187
F1.0
s(lp188
(g185
I11
tp189
atp190
a(g90
(dp191
S'VERB'
p192
F1.0
s(lp193
(g90
I12
tp194
atp195
a(g102
(dp196
S'PRON'
p197
F1.0
s(lp198
(g102
I13
tp199
atp200
a(g109
(dp201
S'VERB'
p202
F0.000147
sS'NOUN'
p203
F0.999853
s(lp204
(g109
I14
tp205
atp206
a(g112
(dp207
g112
F1.0
s(lp208
(g112
I15
tp209
atp210
asS'nl'
p211
(lp212
(S'ik'
p213
(dp214
S'PRON'
p215
F0.999981
sS'NOUN'
p216
F1.9e-05
s(lp217
(g7
I0
tp218
atp219
a(S'denk'
p220
(dp221
S'VERB'
p222
F1.0
s(lp223
tp224
a(S'dat'
p225
(dp226
S'PRON'
p227
F0.0025970000000000003
sS'CONJ'
p228
F0.997403
s(lp229
(g21
I1
tp230
atp231
a(S'we'
p232
(dp233
S'PRON'
p234
F1.0
s(lp235
(g28
I2
tp236
atp237
a(S'direct'
p238
(dp239
S'ADV'
p240
F0.362851
sS'ADJ'
p241
F0.637149
s(lp242
(g43
I5
tp243
atp244
a(S'in'
p245
(dp246
S'ADV'
p247
F0.005753
sS'VERB'
p248
F5e-06
sS'ADP'
p249
F0.994242
s(lp250
(g74
I8
tp251
atp252
a(S'de'
p253
(dp254
S'DET'
p255
F1.0
s(lp256
(g83
I9
tp257
atp258
a(S'organisatie'
p259
(dp260
S'NOUN'
p261
F1.0
s(lp262
(g90
I12
tp263
atp264
a(S'van'
p265
(dp266
S'ADP'
p267
F1.0
s(lp268
tp269
a(S'ons'
p270
(dp271
S'PRON'
p272
F0.9999779999999999
sS'NOUN'
p273
F2.2e-05
s(lp274
(g102
I13
tp275
atp276
a(S'werk'
p277
(dp278
S'VERB'
p279
F0.001517
sS'NOUN'
p280
F0.998483
s(lp281
(g109
I14
tp282
atp283
a(S'bezuinigingsmogelijkheden'
p284
(dp285
S'NOUN'
p286
F1.0
s(lp287
(g66
I6
tp288
atp289
a(S'hebben'
p290
(dp291
S'VERB'
p292
F0.999995
sS'NOUN'
p293
F5e-06
s(lp294
(g35
I3
tp295
atp296
a(g112
(dp297
g112
F1.0
s(lp298
(g112
I15
tp299
atp300
asS'de'
p301
(lp302
(S'ich'
p303
(dp304
S'PRON'
p305
F1.0
s(lp306
(g7
I0
tp307
atp308
a(S'denke'
p309
(dp310
S'VERB'
p311
F1.0
s(lp312
tp313
a(S','
p314
(dp315
g112
F1.0
s(lp316
tp317
a(S'dass'
p318
(dp319
S'CONJ'
p320
F1.0
s(lp321
(g21
I1
tp322
atp323
a(S'bei'
p324
(dp325
S'PRT'
p326
F9e-06
sS'ADP'
p327
F0.999991
s(lp328
(g74
I8
tp329
atp330
a(S'der'
p331
(dp332
S'PRON'
p333
F0.000225
sS'DET'
p334
F0.999744
s(lp335
(g83
I9
tp336
atp337
a(S'art'
p338
(dp339
g120
F1.0
s(lp340
tp341
a(g314
(dp342
g112
F1.0
s(lp343
tp344
a(S'wie'
p345
(dp346
S'CONJ'
p347
F0.999988
s(lp348
(g178
I10
tp349
atp350
a(S'wir'
p351
(dp352
S'PRON'
p353
F1.0
s(lp354
(g185
I11
tp355
atp356
a(S'unsere'
p357
(dp358
S'PRON'
p359
F1.0
s(lp360
(g102
I13
tp361
atp362
a(S'arbeit'
p363
(dp364
S'ADJ'
p365
F0.014629
sS'NOUN'
p366
F0.977135
s(lp367
(g109
I14
tp368
atp369
a(S'organisieren'
p370
(dp371
S'VERB'
p372
F1.0
s(lp373
(g90
I12
tp374
atp375
a(g314
(dp376
g112
F1.0
s(lp377
tp378
a(S'konkretes'
p379
(dp380
S'ADJ'
p381
F1.0
s(lp382
tp383
a(S'einsparpotenzial'
p384
(dp385
S'ADJ'
p386
F2e-05
sS'NOUN'
p387
F0.999973
s(lp388
(g66
I6
tp389
atp390
a(S'besteht'
p391
(dp392
S'VERB'
p393
F1.0
s(lp394
(g35
I3
tp395
atp396
a(g112
(dp397
g112
F1.0
s(lp398
(g112
I15
tp399
atp400
asS'it'
p401
(lp402
(S'ci'
p403
(dp404
S'ADV'
p405
F0.000961
sS'PRON'
p406
F0.999002
sS'NOUN'
p407
F3.7e-05
s(lp408
(g28
I2
tp409
atp410
a(S'resta'
p411
(dp412
S'VERB'
p413
F0.990915
sS'NOUN'
p414
F0.009085
s(lp415
(g66
I6
tp416
atp417
a(g314
(dp418
g112
F1.0
s(lp419
tp420
a(S'a'
p421
(dp422
S'CONJ'
p423
F0.0002
sS'ADP'
p424
F0.9998
s(lp425
tp426
a(S'mio'
p427
(dp428
S'PRON'
p429
F1.0
s(lp430
(g7
I0
tp431
atp432
a(S'avviso'
p433
(dp434
S'VERB'
p435
F2e-06
sS'NOUN'
p436
F0.999998
s(lp437
(g21
I1
tp438
atp439
a(g314
(dp440
g112
F1.0
s(lp441
(g35
I3
tp442
atp443
a(S'un'
p444
(dp445
S'PRON'
p446
F0.00256
sS'DEF'
p447
F0.99744
s(lp448
tp449
a(S'certo'
p450
(dp451
S'ADV'
p452
F0.051886
sS'ADJ'
p453
F0.948114
s(lp454
(g59
I4
tp455
atp456
a(S'spazio'
p457
(dp458
S'VERB'
p459
F0.004751
sS'NOUN'
p460
F0.995249
s(lp461
(g66
I6
tp462
atp463
a(S'di'
p464
(dp465
S'CONJ'
p466
F2.2e-05
sS'ADP'
p467
F0.999978
s(lp468
tp469
a(S'manovra'
p470
(dp471
S'VERB'
p472
F0.010976
sS'NOUN'
p473
F0.989024
s(lp474
(g50
I7
tp475
atp476
a(S'diretto'
p477
(dp478
S'VERB'
p479
F0.397455
sS'ADJ'
p480
F0.602545
s(lp481
(g43
I5
tp482
atp483
a(S'per'
p484
(dp485
S'CONJ'
p486
F0.004458
sS'ADP'
p487
F0.995542
s(lp488
(g74
I8
tp489
atp490
a(S'realizzare'
p491
(dp492
S'VERB'
p493
F1.0
s(lp494
(g66
I6
tp495
atp496
a(S'detti'
p497
(dp498
S'NOUN'
p499
F0.001747
sS'VERB'
p500
F0.993201
sS'ADJ'
p501
F0.005052
s(lp502
(g66
I6
tp503
atp504
a(S'risparmi'
p505
(dp506
S'VERB'
p507
F0.000385
sS'NOUN'
p508
F0.999616
s(lp509
(g66
I6
tp510
atp511
a(g314
(dp512
g112
F1.0
s(lp513
tp514
a(S'intervenendo'
p515
(dp516
S'VERB'
p517
F1.0
s(lp518
tp519
a(S"sull'"
p520
(dp521
S'ADJ'
p522
F0.002437
sS'VERB'
p523
F0.00051
sS'NOUN'
p524
F0.997053
s(lp525
(g83
I9
tp526
atp527
a(S'organizzazione'
p528
(dp529
S'NOUN'
p530
F1.0
s(lp531
(g90
I12
tp532
atp533
a(S'dei'
p534
(dp535
S'NOUN'
p536
F1e-06
sS'DEF'
p537
F0.000281
sS'ADP'
p538
F0.999718
s(lp539
(g66
I6
tp540
atp541
a(S'nostri'
p542
(dp543
S'PRON'
p544
F1.0
s(lp545
(g102
I13
tp546
atp547
a(S'compiti'
p548
(dp549
S'VERB'
p550
F0.00064
sS'NOUN'
p551
F0.99936
s(lp552
(g109
I14
tp553
atp554
a(g112
(dp555
g112
F1.0
s(lp556
(g112
I15
tp557
atp558
asS'sk'
p559
(lp560
(S'ist\xc3\xa9'
p561
(dp562
S'PRON'
p563
F0.396718
sS'ADJ'
p564
F0.603282
s(lp565
(g59
I4
tp566
atp567
a(S'rezervy'
p568
(dp569
S'NOUN'
p570
F1.0
s(lp571
(g66
I6
tp572
atp573
a(g314
(dp574
g112
F1.0
s(lp575
(g21
I1
tp576
atp577
a(S'mysl\xc3\xadm'
p578
(dp579
S'VERB'
p580
F1.0
s(lp581
tp582
a(S'si'
p583
(dp584
S'PRT'
p585
F0.999092
sS'VERB'
p586
F0.000907
sg120
F1e-06
s(lp587
(g21
I1
tp588
atp589
a(g314
(dp590
g112
F1.0
s(lp591
tp592
a(S'm\xc3\xa1me'
p593
(dp594
S'ADV'
p595
F0.018163
sg120
F0.001616
sS'VERB'
p596
F0.980221
s(lp597
(g35
I3
tp598
atp599
a(S'priamo'
p600
(dp601
S'ADV'
p602
F0.983832
sg120
F0.016168
s(lp603
(g43
I5
tp604
atp605
a(S'v'
p606
(dp607
g120
F3.7e-05
sS'ADP'
p608
F0.999964
s(lp609
(g74
I8
tp610
atp611
a(S'na\xc5\xa1ej'
p612
(dp613
S'PRON'
p614
F0.999943
sg120
F5.7e-05
s(lp615
(g102
I13
tp616
atp617
a(S'organiz\xc3\xa1cii'
p618
(dp619
S'NOUN'
p620
F1.0
s(lp621
(g90
I12
tp622
atp623
a(S'pr\xc3\xa1ce'
p624
(dp625
S'NOUN'
p626
F1.0
s(lp627
(g109
I14
tp628
atp629
a(g112
(dp630
g112
F1.0
s(lp631
(g112
I15
tp632
atp633
asS'pl'
p634
(lp635
(S'uwa\xc5\xbcam'
p636
(dp637
S'VERB'
p638
F1.0
s(lp639
(g21
I1
tp640
atp641
a(g314
(dp642
g120
F0.0
sg112
F1.0
s(lp643
tp644
a(S'\xc5\xbce'
p645
(dp646
S'PRT'
p647
F0.000435
sS'CONJ'
p648
F0.9995649999999999
s(lp649
(g28
I2
tp650
atp651
a(S'mamy'
p652
(dp653
S'VERB'
p654
F0.836673
sS'NOUN'
p655
F0.163327
s(lp656
(g35
I3
tp657
atp658
a(S'pewne'
p659
(dp660
S'ADJ'
p661
F1.000001
s(lp662
(g59
I4
tp663
atp664
a(S'wolne'
p665
(dp666
S'NOUN'
p667
F0.009631
sS'ADJ'
p668
F0.990369
s(lp669
(g66
I6
tp670
atp671
a(S'moce'
p672
(dp673
S'NOUN'
p674
F1.0
s(lp675
(g50
I7
tp676
atp677
a(S'w'
p678
(dp679
g120
F0.0
sS'ADJ'
p680
F0.0
sS'ADP'
p681
F1.0
sS'NOUN'
p682
F0.0
s(lp683
(g74
I8
tp684
atp685
a(S'sposobie'
p686
(dp687
S'NOUN'
p688
F1.0
s(lp689
tp690
a(g314
(dp691
g120
F0.0
sg112
F1.0
s(lp692
tp693
a(g678
(dp694
S'ADJ'
p695
F0.0
sg120
F5.4999999999999995e-05
sS'NOUN'
p696
F0.00015
sS'ADP'
p697
F0.9997940000000001
s(lp698
tp699
a(S'jaki'
p700
(dp701
S'ADJ'
p702
F0.9999999999999999
s(lp703
(g178
I10
tp704
atp705
a(S'organizujemy'
p706
(dp707
S'VERB'
p708
F1.0
s(lp709
(g90
I12
tp710
atp711
a(S'nasz\xc4\x85'
p712
(dp713
S'ADJ'
p714
F1.0
s(lp715
(g102
I13
tp716
atp717
a(S'prac\xc4\x99'
p718
(dp719
S'NOUN'
p720
F1.0
s(lp721
(g109
I14
tp722
atp723
a(g112
(dp724
g112
F1.0
s(lp725
(g112
I15
tp726
atp727
asS'sl'
p728
(lp729
(S'mislim'
p730
(dp731
S'VERB'
p732
F0.991734
sS'NOUN'
p733
F0.008266
s(lp734
(g21
I1
tp735
atp736
a(g314
(dp737
g112
F1.0
s(lp738
tp739
a(S'da'
p740
(dp741
S'PRT'
p742
F0.000319
sS'CONJ'
p743
F0.999647
sS'VERB'
p744
F3.2e-05
sg120
F2e-06
s(lp745
(g28
I2
tp746
atp747
a(S'obstaja'
p748
(dp749
S'VERB'
p750
F1.0
s(lp751
(g35
I3
tp752
atp753
a(S'neposredna'
p754
(dp755
S'ADJ'
p756
F1.0
s(lp757
(g43
I5
tp758
atp759
a(S'mo\xc5\xbenost'
p760
(dp761
S'NOUN'
p762
F1.0
s(lp763
(g50
I7
tp764
atp765
a(S'pri'
p766
(dp767
S'ADP'
p768
F1.0
s(lp769
(g74
I8
tp770
atp771
a(S'na\xc4\x8dinu'
p772
(dp773
S'NOUN'
p774
F1.0
s(lp775
(g178
I10
tp776
atp777
a(S'organizacije'
p778
(dp779
S'NOUN'
p780
F1.0
s(lp781
(g90
I12
tp782
atp783
a(S'na\xc5\xa1ega'
p784
(dp785
S'PRON'
p786
F1.000001
s(lp787
(g102
I13
tp788
atp789
a(S'dela'
p790
(dp791
S'VERB'
p792
F0.000928
sS'NOUN'
p793
F0.9990730000000001
s(lp794
(g109
I14
tp795
atp796
a(g112
(dp797
g112
F1.0
s(lp798
(g112
I15
tp799
atp800
asS'es'
p801
(lp802
(S'creo'
p803
(dp804
S'VERB'
p805
F1.0
s(lp806
(g21
I1
tp807
atp808
a(S'que'
p809
(dp810
g120
F0.0
sS'CONJ'
p811
F1.0
s(lp812
(g28
I2
tp813
atp814
a(S'tenemos'
p815
(dp816
S'VERB'
p817
F1.0
s(lp818
(g35
I3
tp819
atp820
a(S'una'
p821
(dp822
S'DET'
p823
F1.0
s(lp824
tp825
a(S'cierta'
p826
(dp827
S'ADJ'
p828
F1.0
s(lp829
(g59
I4
tp830
atp831
a(S'capacidad'
p832
(dp833
S'NOUN'
p834
F1.0
s(lp835
(g50
I7
tp836
atp837
a(S'directa'
p838
(dp839
S'ADJ'
p840
F1.0
s(lp841
(g43
I5
tp842
atp843
a(S'de'
p844
(dp845
g120
F3.1e-05
sS'CONJ'
p846
F0.001485
sS'ADP'
p847
F0.998485
s(lp848
tp849
a(S'ahorro'
p850
(dp851
S'NOUN'
p852
F1.0
s(lp853
(g66
I6
tp854
atp855
a(S'en'
p856
(dp857
g120
F0.0
sS'CONJ'
p858
F0.0
sS'ADP'
p859
F1.0
s(lp860
(g74
I8
tp861
atp862
a(S'la'
p863
(dp864
S'NOUN'
p865
F0.0
sS'PRON'
p866
F0.0
sS'DET'
p867
F0.999999
sg120
F0.0
s(lp868
(g83
I9
tp869
atp870
a(S'manera'
p871
(dp872
S'NOUN'
p873
F1.0
s(lp874
(g178
I10
tp875
atp876
a(S'en'
p877
(dp878
g120
F0.0
sS'CONJ'
p879
F0.00012
sS'ADP'
p880
F0.99988
s(lp881
tp882
a(S'que'
p883
(dp884
g120
F2e-06
sS'CONJ'
p885
F0.999998
s(lp886
(g185
I11
tp887
atp888
a(S'organizamos'
p889
(dp890
S'VERB'
p891
F1.0
s(lp892
(g90
I12
tp893
atp894
a(S'nuestro'
p895
(dp896
S'PRON'
p897
F0.626988
sS'ADJ'
p898
F0.373012
s(lp899
(g102
I13
tp900
atp901
a(S'trabajo'
p902
(dp903
S'NOUN'
p904
F1.0
s(lp905
(g109
I14
tp906
atp907
a(g112
(dp908
g112
F1.0
s(lp909
(g112
I15
tp910
atp911
as.