(dp0
S'fr'
p1
(lp2
(S'dans'
p3
(dp4
S'NOUN'
p5
F1.8e-05
sS'ADP'
p6
F0.999982
s(lp7
(S'in'
p8
I0
tp9
atp10
a(S'sa'
p11
(dp12
S'PRON'
p13
F1.0
s(lp14
(S'the'
p15
I1
tp16
atp17
a(S'proposition'
p18
(dp19
S'NOUN'
p20
F1.0
s(lp21
tp22
a(S'initiale'
p23
(dp24
S'ADJ'
p25
F1.0
s(lp26
(S'original'
p27
I2
tp28
atp29
a(S','
p30
(dp31
S'.'
p32
F1.0
s(lp33
(S'-'
p34
I29
tp35
atp36
a(S'la'
p37
(dp38
S'PRON'
p39
F6.9e-05
sS'DET'
p40
F0.999931
sS'NOUN'
p41
F0.0
s(lp42
(S'the'
p43
I30
tp44
atp45
a(S'commission'
p46
(dp47
S'NOUN'
p48
F1.0
s(lp49
(S'commission'
p50
I31
tp51
atp52
a(S'proposait'
p53
(dp54
S'VERB'
p55
F1.0
s(lp56
(S'proposal'
p57
I3
tp58
atp59
a(S'de'
p60
(dp61
S'ADP'
p62
F1.0
s(lp63
(S'to'
p64
I4
tp65
atp66
a(S'lib\xc3\xa9rer'
p67
(dp68
S'VERB'
p69
F1.0
s(lp70
(S'provide'
p71
I5
tp72
atp73
a(S'cinq'
p74
(dp75
S'NUM'
p76
F0.999914
sS'NOUN'
p77
F8.6e-05
s(lp78
(S'five'
p79
I6
tp80
atp81
a(S'milliards'
p82
(dp83
S'NOUN'
p84
F1.0
s(lp85
(S'billion'
p86
I7
tp87
atp88
a(S'au'
p89
(dp90
S'ADP'
p91
F1.0
s(lp92
tp93
a(S'moyen'
p94
(dp95
S'ADJ'
p96
F0.135354
sS'NOUN'
p97
F0.864646
s(lp98
(S'through'
p99
I8
tp100
atp101
a(S"d'"
p102
(dp103
S'NOUN'
p104
F0.108926
sS'VERB'
p105
F0.6505399999999999
sS'ADJ'
p106
F0.240534
s(lp107
tp108
a(S'une'
p109
(dp110
S'NOUN'
p111
F1.5e-05
sS'NUM'
p112
F0.021976
sS'DET'
p113
F0.978009
s(lp114
(S'a'
p115
I9
tp116
atp117
a(S'r\xc3\xa9vision'
p118
(dp119
S'NOUN'
p120
F1.0
s(lp121
(S'revised'
p122
I10
tp123
atp124
a(S'du'
p125
(dp126
S'ADP'
p127
F1.0
s(lp128
(S'of'
p129
I37
tp130
atp131
a(S'cadre'
p132
(dp133
S'VERB'
p134
F0.0
sS'NOUN'
p135
F1.0
s(lp136
(S'perspective'
p137
I12
tp138
atp139
a(S'financier'
p140
(dp141
S'NOUN'
p142
F0.004999
sS'ADJ'
p143
F0.995001
s(lp144
(S'financial'
p145
I11
tp146
atp147
a(g30
(dp148
g32
F1.0
s(lp149
tp150
a(S'et'
p151
(dp152
S'CONJ'
p153
F1.0
s(lp154
tp155
a(S'ce'
p156
(dp157
S'PRON'
p158
F1.0
s(lp159
(S'split'
p160
I13
tp161
atp162
a(S'en'
p163
(dp164
S'PRON'
p165
F1.8e-05
sS'ADP'
p166
F0.999982
s(lp167
(S'into'
p168
I14
tp169
atp170
a(S'deux'
p171
(dp172
S'NUM'
p173
F0.999993
sS'NOUN'
p174
F7e-06
s(lp175
(S'two'
p176
I15
tp177
atp178
a(S'tranches'
p179
(dp180
S'VERB'
p181
F0.00017
sS'NOUN'
p182
F0.99983
s(lp183
(S'tranches'
p184
I16
tp185
atp186
a(S':'
p187
(dp188
g32
F1.0
s(lp189
(g34
I17
tp190
atp191
a(S'3,5'
p192
(dp193
S'X'
p194
F0.001507
sS'NUM'
p195
F0.998493
s(lp196
(S'3.5'
p197
I19
tp198
atp199
a(S'milliards'
p200
(dp201
S'NOUN'
p202
F1.0
s(lp203
(S'billion'
p204
I20
tp205
atp206
a(S"d'"
p207
(dp208
S'NOUN'
p209
F0.032441
sS'VERB'
p210
F0.694014
sS'ADJ'
p211
F0.273544
s(lp212
tp213
a(S'euros'
p214
(dp215
S'NOUN'
p216
F1.0
s(lp217
(S'eur'
p218
I18
tp219
atp220
a(S'en'
p221
(dp222
S'PRON'
p223
F2e-06
sS'ADP'
p224
F0.999998
s(lp225
(S'in'
p226
I21
tp227
atp228
a(S'2009'
p229
(dp230
g194
F3.7e-05
sS'NUM'
p231
F0.999963
s(lp232
(S'2009'
p233
I22
tp234
atp235
a(S'et'
p236
(dp237
S'CONJ'
p238
F1.0
s(lp239
(S'and'
p240
I23
tp241
atp242
a(S'2,5'
p243
(dp244
g194
F4e-06
sS'NUM'
p245
F0.999996
s(lp246
(S'2.5'
p247
I25
tp248
atp249
a(S'milliards'
p250
(dp251
S'NOUN'
p252
F1.0
s(lp253
(S'billion'
p254
I26
tp255
atp256
a(S"d'"
p257
(dp258
S'NOUN'
p259
F0.032441
sS'VERB'
p260
F0.694014
sS'ADJ'
p261
F0.273544
s(lp262
tp263
a(S'euros'
p264
(dp265
S'NOUN'
p266
F1.0
s(lp267
(S'eur'
p268
I24
tp269
atp270
a(S'en'
p271
(dp272
S'PRON'
p273
F2e-06
sS'ADP'
p274
F0.999998
s(lp275
(S'in'
p276
I27
tp277
atp278
a(S'2010'
p279
(dp280
g194
F0.001053
sS'NUM'
p281
F0.998947
s(lp282
tp283
a(g32
(dp284
g32
F1.0
s(lp285
(S'2010'
p286
I28
tp287
atp288
a(S'ce'
p289
(dp290
S'PRON'
p291
F1.0
s(lp292
tp293
a(S'faisant'
p294
(dp295
S'VERB'
p296
F1.0
s(lp297
(g184
I16
tp298
atp299
a(g30
(dp300
g32
F1.0
s(lp301
tp302
a(S'elle'
p303
(dp304
S'PRON'
p305
F1.0
s(lp306
(g184
I16
tp307
atp308
a(S'montrait'
p309
(dp310
S'VERB'
p311
F1.0
s(lp312
(g184
I16
tp313
atp314
a(S"qu'"
p315
(dp316
S'NOUN'
p317
F0.043787
sS'VERB'
p318
F0.7697689999999999
sS'ADJ'
p319
F0.186444
s(lp320
tp321
a(S'elle'
p322
(dp323
S'PRON'
p324
F1.0
s(lp325
tp326
a(S'avait'
p327
(dp328
S'VERB'
p329
F1.0
s(lp330
(g184
I16
tp331
atp332
a(S'tir\xc3\xa9'
p333
(dp334
S'VERB'
p335
F0.982652
sS'NOUN'
p336
F0.017348
s(lp337
(S'learned'
p338
I32
tp339
atp340
a(S'des'
p341
(dp342
S'DET'
p343
F3.5e-05
sS'ADP'
p344
F0.999965
s(lp345
(S'from'
p346
I33
tp347
atp348
a(S'le\xc3\xa7ons'
p349
(dp350
S'NOUN'
p351
F1.0
s(lp352
(g338
I32
tp353
atp354
a(S'du'
p355
(dp356
S'ADP'
p357
F1.0
s(lp358
(S'the'
p359
I34
tp360
atp361
a(S'fiasco'
p362
(dp363
S'NOUN'
p364
F1.0
s(lp365
(S'disaster'
p366
I36
tp367
atp368
a(S'budg\xc3\xa9taire'
p369
(dp370
S'ADJ'
p371
F1.0
s(lp372
(S'budget'
p373
I35
tp374
atp375
a(S"qu'"
p376
(dp377
S'ADJ'
p378
F0.112319
sS'VERB'
p379
F0.207239
sS'NOUN'
p380
F0.680441
s(lp381
tp382
a(g115
(dp383
S'VERB'
p384
F1.0
s(lp385
tp386
a(S'\xc3\xa9t\xc3\xa9'
p387
(dp388
S'VERB'
p389
F0.998786
sS'NOUN'
p390
F0.001214
s(lp391
(g338
I32
tp392
atp393
a(S'la'
p394
(dp395
S'PRON'
p396
F4.2e-05
sS'DET'
p397
F0.999958
sS'NOUN'
p398
F0.0
s(lp399
(S'the'
p400
I38
tp401
atp402
a(S'proposition'
p403
(dp404
S'NOUN'
p405
F1.0
s(lp406
tp407
a(S'relative'
p408
(dp409
S'NOUN'
p410
F0.017216
sS'ADJ'
p411
F0.982784
s(lp412
(S'proposal'
p413
I39
tp414
atp415
a(S'\xc3\xa0'
p416
(dp417
S'ADP'
p418
F1.0
s(lp419
(S'on'
p420
I40
tp421
atp422
a(S'la'
p423
(dp424
S'PRON'
p425
F3.7e-05
sS'DET'
p426
F0.999963
sS'NOUN'
p427
F1e-06
s(lp428
(S'the'
p429
I41
tp430
atp431
a(S'facilit\xc3\xa9'
p432
(dp433
S'VERB'
p434
F0.000356
sS'NOUN'
p435
F0.999644
s(lp436
tp437
a(S"d'"
p438
(dp439
S'NOUN'
p440
F0.032594
sS'VERB'
p441
F0.6938930000000001
sS'ADJ'
p442
F0.273513
s(lp443
(S'facility'
p444
I44
tp445
atp446
a(S'aide'
p447
(dp448
S'VERB'
p449
F0.23475
sS'NOUN'
p450
F0.76525
s(lp451
(S'aid'
p452
I43
tp453
atp454
a(S'alimentaire'
p455
(dp456
S'ADJ'
p457
F1.0
s(lp458
(S'food'
p459
I42
tp460
atp461
a(g32
(dp462
g32
F1.0
s(lp463
(g32
I45
tp464
atp465
asS'en'
p466
(lp467
(g8
(dp468
S'ADV'
p469
F0.001492
sS'PRT'
p470
F0.0
sS'ADP'
p471
F0.998508
s(lp472
(g8
I0
tp473
atp474
a(g15
(dp475
S'NOUN'
p476
F1e-06
sS'DET'
p477
F0.999999
s(lp478
(g15
I1
tp479
atp480
a(g27
(dp481
S'NOUN'
p482
F0.01251
sS'ADJ'
p483
F0.98749
s(lp484
(g27
I2
tp485
atp486
a(g57
(dp487
S'NOUN'
p488
F1.0
s(lp489
(g57
I3
tp490
atp491
a(g64
(dp492
S'ADV'
p493
F0.0
sS'PRT'
p494
F1.0
sS'ADP'
p495
F0.0
s(lp496
(g64
I4
tp497
atp498
a(g71
(dp499
S'VERB'
p500
F1.0
s(lp501
(g71
I5
tp502
atp503
a(g79
(dp504
S'NUM'
p505
F0.999992
sS'NOUN'
p506
F8e-06
s(lp507
(g79
I6
tp508
atp509
a(g86
(dp510
S'NUM'
p511
F0.999402
sS'NOUN'
p512
F0.000598
s(lp513
(g86
I7
tp514
atp515
a(g99
(dp516
S'ADV'
p517
F0.002661
sS'PRT'
p518
F0.011283
sS'ADJ'
p519
F2.6e-05
sS'ADP'
p520
F0.986031
s(lp521
(g99
I8
tp522
atp523
a(g115
(dp524
S'NOUN'
p525
F1e-06
sS'DET'
p526
F0.999999
s(lp527
(g115
I9
tp528
atp529
a(g122
(dp530
S'VERB'
p531
F0.849808
sS'ADJ'
p532
F0.150192
s(lp533
(g122
I10
tp534
atp535
a(g145
(dp536
S'ADJ'
p537
F1.0
s(lp538
(g145
I11
tp539
atp540
a(g137
(dp541
S'NOUN'
p542
F1.0
s(lp543
(g137
I12
tp544
atp545
a(g160
(dp546
S'ADJ'
p547
F0.00048
sS'VERB'
p548
F0.17114800000000002
sS'NOUN'
p549
F0.828372
s(lp550
(g160
I13
tp551
atp552
a(g168
(dp553
S'ADP'
p554
F1.0
s(lp555
(g168
I14
tp556
atp557
a(g176
(dp558
S'NUM'
p559
F0.999973
sS'NOUN'
p560
F2.7e-05
s(lp561
(g176
I15
tp562
atp563
a(g184
(dp564
S'NOUN'
p565
F1.0
s(lp566
(g184
I16
tp567
atp568
a(g34
(dp569
g32
F1.0
s(lp570
(g34
I17
tp571
atp572
a(g218
(dp573
S'ADJ'
p574
F0.024919
sS'VERB'
p575
F0.00764
sS'NOUN'
p576
F0.9674410000000001
s(lp577
(g218
I18
tp578
atp579
a(g197
(dp580
S'ADV'
p581
F0.00028
sS'ADJ'
p582
F5.4e-05
sS'NUM'
p583
F0.996731
sS'NOUN'
p584
F0.002935
sg194
F0.0
s(lp585
(g197
I19
tp586
atp587
a(g204
(dp588
S'NUM'
p589
F0.999398
sS'NOUN'
p590
F0.000602
s(lp591
(g204
I20
tp592
atp593
a(g226
(dp594
S'ADV'
p595
F0.001921
sS'PRT'
p596
F0.001796
sS'ADP'
p597
F0.996282
s(lp598
(g226
I21
tp599
atp600
a(g233
(dp601
S'ADV'
p602
F2.7e-05
sS'ADJ'
p603
F0.001622
sS'NUM'
p604
F0.9953
sS'NOUN'
p605
F0.003052
sg194
F0.0
s(lp606
(g233
I22
tp607
atp608
a(g240
(dp609
S'CONJ'
p610
F0.999588
sS'NOUN'
p611
F0.000412
s(lp612
(g240
I23
tp613
atp614
a(g268
(dp615
S'ADJ'
p616
F0.072968
sS'VERB'
p617
F0.015947
sS'NOUN'
p618
F0.911085
s(lp619
(g268
I24
tp620
atp621
a(g247
(dp622
S'ADV'
p623
F0.000385
sS'ADJ'
p624
F9.9e-05
sS'NUM'
p625
F0.996898
sS'NOUN'
p626
F0.002617
sg194
F0.0
s(lp627
(g247
I25
tp628
atp629
a(g254
(dp630
S'NUM'
p631
F0.999397
sS'NOUN'
p632
F0.000603
s(lp633
(g254
I26
tp634
atp635
a(g276
(dp636
S'ADV'
p637
F0.001922
sS'PRT'
p638
F0.001798
sS'ADP'
p639
F0.99628
s(lp640
(g276
I27
tp641
atp642
a(g286
(dp643
S'ADV'
p644
F0.000146
sS'ADJ'
p645
F0.001436
sS'NUM'
p646
F0.99566
sS'NOUN'
p647
F0.002758
sg194
F0.0
s(lp648
(g286
I28
tp649
atp650
a(g34
(dp651
g32
F1.0
s(lp652
(g34
I29
tp653
atp654
a(g43
(dp655
S'NOUN'
p656
F3e-06
sS'DET'
p657
F0.999997
s(lp658
(g43
I30
tp659
atp660
a(g50
(dp661
S'VERB'
p662
F1.1e-05
sS'NOUN'
p663
F0.999989
s(lp664
(g50
I31
tp665
atp666
a(g338
(dp667
S'VERB'
p668
F0.998855
sS'ADJ'
p669
F0.001145
s(lp670
(g338
I32
tp671
atp672
a(g346
(dp673
S'ADP'
p674
F1.0
s(lp675
(g346
I33
tp676
atp677
a(g359
(dp678
S'NOUN'
p679
F1e-06
sS'DET'
p680
F0.999999
s(lp681
(g359
I34
tp682
atp683
a(g373
(dp684
S'VERB'
p685
F8.000000000000001e-06
sS'NOUN'
p686
F0.999992
s(lp687
(g373
I35
tp688
atp689
a(g366
(dp690
S'NOUN'
p691
F1.0
s(lp692
(g366
I36
tp693
atp694
a(g129
(dp695
S'ADP'
p696
F1.0
s(lp697
(g129
I37
tp698
atp699
a(g400
(dp700
S'NOUN'
p701
F1e-06
sS'DET'
p702
F0.999999
s(lp703
(g400
I38
tp704
atp705
a(g413
(dp706
S'NOUN'
p707
F1.0
s(lp708
(g413
I39
tp709
atp710
a(g420
(dp711
S'ADV'
p712
F0.000489
sS'PRT'
p713
F0.000523
sS'ADJ'
p714
F0.0
sS'NOUN'
p715
F0.0
sS'ADP'
p716
F0.998988
s(lp717
(g420
I40
tp718
atp719
a(g429
(dp720
S'NOUN'
p721
F1e-06
sS'DET'
p722
F0.999999
s(lp723
(g429
I41
tp724
atp725
a(g459
(dp726
S'NOUN'
p727
F1.0
s(lp728
(g459
I42
tp729
atp730
a(g452
(dp731
S'VERB'
p732
F0.004324000000000001
sS'NOUN'
p733
F0.995676
s(lp734
(g452
I43
tp735
atp736
a(g444
(dp737
S'NOUN'
p738
F1.0
s(lp739
(g444
I44
tp740
atp741
a(g32
(dp742
g32
F1.0
s(lp743
(g32
I45
tp744
atp745
asS'nl'
p746
(lp747
(S'met'
p748
(dp749
S'ADP'
p750
F1.0
s(lp751
(g8
I0
tp752
atp753
a(S'haar'
p754
(dp755
S'ADV'
p756
F1e-05
sS'PRON'
p757
F0.9999849999999999
sS'NOUN'
p758
F5e-06
s(lp759
(g15
I1
tp760
atp761
a(S'oorspronkelijke'
p762
(dp763
S'NOUN'
p764
F0.000189
sS'ADJ'
p765
F0.999811
s(lp766
(g27
I2
tp767
atp768
a(S'voorstel'
p769
(dp770
S'VERB'
p771
F0.000555
sS'NOUN'
p772
F0.999445
s(lp773
(g57
I3
tp774
atp775
a(S'om'
p776
(dp777
S'ADV'
p778
F0.052198
sS'CONJ'
p779
F0.836771
sS'ADP'
p780
F0.111031
s(lp781
tp782
a(S'door'
p783
(dp784
S'ADV'
p785
F3e-06
sS'CONJ'
p786
F2.1e-05
sS'ADP'
p787
F0.999976
s(lp788
tp789
a(S'middel'
p790
(dp791
S'NOUN'
p792
F1.0
s(lp793
(g99
I8
tp794
atp795
a(S'van'
p796
(dp797
S'ADP'
p798
F1.0
s(lp799
tp800
a(S'een'
p801
(dp802
S'ADJ'
p803
F1e-06
sS'PRON'
p804
F1.4e-05
sS'NUM'
p805
F0.0
sS'DET'
p806
F0.999985
s(lp807
(g115
I9
tp808
atp809
a(S'herziening'
p810
(dp811
S'NOUN'
p812
F1.0
s(lp813
(g122
I10
tp814
atp815
a(S'van'
p816
(dp817
S'ADP'
p818
F1.0
s(lp819
tp820
a(S'de'
p821
(dp822
S'DET'
p823
F1.0
s(lp824
tp825
a(S'financi\xc3\xable'
p826
(dp827
S'NOUN'
p828
F0.000209
sS'ADJ'
p829
F0.999791
s(lp830
(g145
I11
tp831
atp832
a(S'vooruitzichten'
p833
(dp834
S'NOUN'
p835
F1.0
s(lp836
(g137
I12
tp837
atp838
a(S'vijf'
p839
(dp840
S'NUM'
p841
F1.0
s(lp842
(g79
I6
tp843
atp844
a(S'miljard'
p845
(dp846
S'NUM'
p847
F0.975633
sS'NOUN'
p848
F0.024367
s(lp849
(g86
I7
tp850
atp851
a(g34
(dp852
g32
F1.0
s(lp853
(g34
I17
tp854
atp855
a(S'opgesplitst'
p856
(dp857
S'VERB'
p858
F1.0
s(lp859
(g160
I13
tp860
atp861
a(S'in'
p862
(dp863
S'ADV'
p864
F0.000299
sS'VERB'
p865
F1e-06
sS'ADP'
p866
F0.9997
s(lp867
(g168
I14
tp868
atp869
a(S'twee'
p870
(dp871
S'NUM'
p872
F1.0
s(lp873
(g176
I15
tp874
atp875
a(S'delen'
p876
(dp877
S'VERB'
p878
F0.011478
sS'NOUN'
p879
F0.9885229999999999
s(lp880
(g184
I16
tp881
atp882
a(g187
(dp883
g32
F1.0
s(lp884
(g218
I18
tp885
atp886
a(S'3,5'
p887
(dp888
S'NUM'
p889
F1.0
s(lp890
(g197
I19
tp891
atp892
a(S'miljard'
p893
(dp894
S'NUM'
p895
F0.6516
sS'NOUN'
p896
F0.3484
s(lp897
(g204
I20
tp898
atp899
a(S'in'
p900
(dp901
S'ADV'
p902
F0.003513
sS'VERB'
p903
F1e-06
sS'ADP'
p904
F0.996486
s(lp905
(g226
I21
tp906
atp907
a(S'2009'
p908
(dp909
S'NUM'
p910
F1.0
s(lp911
(g233
I22
tp912
atp913
a(S'en'
p914
(dp915
S'CONJ'
p916
F1.0
s(lp917
(g240
I23
tp918
atp919
a(S'2,5'
p920
(dp921
S'NUM'
p922
F1.0
s(lp923
(g247
I25
tp924
atp925
a(S'miljard'
p926
(dp927
S'NUM'
p928
F0.77124
sS'NOUN'
p929
F0.22876
s(lp930
(g254
I26
tp931
atp932
a(S'in'
p933
(dp934
S'ADV'
p935
F0.002617
sS'VERB'
p936
F1e-06
sS'ADP'
p937
F0.997382
s(lp938
(g276
I27
tp939
atp940
a(S'2010'
p941
(dp942
S'NUM'
p943
F1.0
s(lp944
(g286
I28
tp945
atp946
a(g34
(dp947
g32
F1.0
s(lp948
(g34
I29
tp949
atp950
a(S'ter'
p951
(dp952
S'ADV'
p953
F8.7e-05
sS'ADP'
p954
F0.999913
s(lp955
(g71
I5
tp956
atp957
a(S'beschikking'
p958
(dp959
S'NOUN'
p960
F1.0
s(lp961
(g71
I5
tp962
atp963
a(S'te'
p964
(dp965
S'PRT'
p966
F1.0
s(lp967
(g64
I4
tp968
atp969
a(S'stellen'
p970
(dp971
S'VERB'
p972
F0.999996
sS'NOUN'
p973
F4e-06
s(lp974
tp975
a(g30
(dp976
g32
F1.0
s(lp977
tp978
a(S'heeft'
p979
(dp980
S'VERB'
p981
F1.0
s(lp982
tp983
a(S'de'
p984
(dp985
S'DET'
p986
F1.0
s(lp987
(g43
I30
tp988
atp989
a(S'commissie'
p990
(dp991
S'NOUN'
p992
F1.0
s(lp993
(g50
I31
tp994
atp995
a(S'een'
p996
(dp997
S'ADJ'
p998
F1.4e-05
sS'NUM'
p999
F1.5e-05
sS'DET'
p1000
F0.999967
sS'PRON'
p1001
F4e-06
s(lp1002
(g71
I5
tp1003
atp1004
a(S'les'
p1005
(dp1006
S'VERB'
p1007
F5.3e-05
sS'NOUN'
p1008
F0.999947
s(lp1009
tp1010
a(S'getrokken'
p1011
(dp1012
S'VERB'
p1013
F0.992609
sS'ADJ'
p1014
F0.007391
s(lp1015
(g338
I32
tp1016
atp1017
a(S'uit'
p1018
(dp1019
S'ADV'
p1020
F0.002412
sS'VERB'
p1021
F1.5e-05
sS'ADP'
p1022
F0.997573
s(lp1023
(g346
I33
tp1024
atp1025
a(S'de'
p1026
(dp1027
S'DET'
p1028
F1.0
s(lp1029
(g359
I34
tp1030
atp1031
a(S'begrotingsramp'
p1032
(dp1033
S'NOUN'
p1034
F1.0
s(lp1035
(g184
I16
tp1036
atp1037
a(S'die'
p1038
(dp1039
S'PRON'
p1040
F1.0
s(lp1041
(g129
I37
tp1042
atp1043
a(S'het'
p1044
(dp1045
S'PRON'
p1046
F0.026652
sS'DET'
p1047
F0.973348
s(lp1048
(g400
I38
tp1049
atp1050
a(S'voorstel'
p1051
(dp1052
S'VERB'
p1053
F3.1e-05
sS'NOUN'
p1054
F0.999969
s(lp1055
(g413
I39
tp1056
atp1057
a(S'betreffende'
p1058
(dp1059
S'NOUN'
p1060
F0.0
sS'VERB'
p1061
F5e-06
sS'ADJ'
p1062
F6.2e-05
sS'ADP'
p1063
F0.999934
s(lp1064
(g420
I40
tp1065
atp1066
a(S'de'
p1067
(dp1068
S'DET'
p1069
F1.0
s(lp1070
(g429
I41
tp1071
atp1072
a(S'voedselhulpfaciliteit'
p1073
(dp1074
S'NOUN'
p1075
F1.0
s(lp1076
(g444
I44
tp1077
atp1078
a(S'teweeg'
p1079
(dp1080
S'NOUN'
p1081
F1.0
s(lp1082
(g184
I16
tp1083
atp1084
a(S'had'
p1085
(dp1086
S'VERB'
p1087
F1.0
s(lp1088
tp1089
a(S'gebracht'
p1090
(dp1091
S'VERB'
p1092
F1.0
s(lp1093
(g184
I16
tp1094
atp1095
a(g32
(dp1096
g32
F1.0
s(lp1097
(g32
I45
tp1098
atp1099
asS'de'
p1100
(lp1101
(S'mit'
p1102
(dp1103
S'PRT'
p1104
F4e-06
sS'ADP'
p1105
F0.999996
s(lp1106
(g8
I0
tp1107
atp1108
a(S'diesem'
p1109
(dp1110
S'PRON'
p1111
F1.0
s(lp1112
(g15
I1
tp1113
atp1114
a(S'ursprungsvorschlag'
p1115
(dp1116
S'ADJ'
p1117
F0.064267
sS'NOUN'
p1118
F0.902241
s(lp1119
(g27
I2
tp1120
atp1121
a(g30
(dp1122
g32
F1.0
s(lp1123
(g64
I4
tp1124
atp1125
a(S'f\xc3\xbcnf'
p1126
(dp1127
S'NUM'
p1128
F1.0
s(lp1129
(g79
I6
tp1130
atp1131
a(S'milliarden'
p1132
(dp1133
S'ADJ'
p1134
F0.014388
sS'NOUN'
p1135
F0.978919
s(lp1136
(g86
I7
tp1137
atp1138
a(S'durch'
p1139
(dp1140
S'PRT'
p1141
F0.000391
sS'ADP'
p1142
F0.999567
s(lp1143
(g99
I8
tp1144
atp1145
a(S'eine'
p1146
(dp1147
S'PRON'
p1148
F0.001586
sS'DET'
p1149
F0.997982
s(lp1150
(g115
I9
tp1151
atp1152
a(S'revision'
p1153
(dp1154
S'ADJ'
p1155
F0.018787
sS'NOUN'
p1156
F0.972008
s(lp1157
(g122
I10
tp1158
atp1159
a(S'der'
p1160
(dp1161
S'PRON'
p1162
F9e-05
sS'DET'
p1163
F0.99989
s(lp1164
tp1165
a(S'finanziellen'
p1166
(dp1167
S'ADJ'
p1168
F1.0
s(lp1169
(g145
I11
tp1170
atp1171
a(S'vorausschau'
p1172
(dp1173
S'NOUN'
p1174
F0.999963
s(lp1175
(g137
I12
tp1176
atp1177
a(S'aufgeteilt'
p1178
(dp1179
S'VERB'
p1180
F1.0
s(lp1181
(g160
I13
tp1182
atp1183
a(S'in'
p1184
(dp1185
S'ADP'
p1186
F1.0
s(lp1187
(g168
I14
tp1188
atp1189
a(S'zwei'
p1190
(dp1191
S'NUM'
p1192
F1.0
s(lp1193
(g176
I15
tp1194
atp1195
a(S'tranchen'
p1196
(dp1197
S'NOUN'
p1198
F0.999311
s(lp1199
tp1200
a(g34
(dp1201
g32
F1.0
s(lp1202
(g34
I17
tp1203
atp1204
a(S'3,5'
p1205
(dp1206
S'NUM'
p1207
F1.0
s(lp1208
(g197
I19
tp1209
atp1210
a(S'milliarden'
p1211
(dp1212
S'ADJ'
p1213
F0.011625
sS'NOUN'
p1214
F0.980854
s(lp1215
(g204
I20
tp1216
atp1217
a(S'im'
p1218
(dp1219
S'ADP'
p1220
F1.0
s(lp1221
(g226
I21
tp1222
atp1223
a(S'jahre'
p1224
(dp1225
S'ADJ'
p1226
F0.003091
sS'NOUN'
p1227
F0.996832
s(lp1228
tp1229
a(S'2009'
p1230
(dp1231
S'NUM'
p1232
F0.979745
sS'ADJ'
p1233
F0.019733
s(lp1234
(g233
I22
tp1235
atp1236
a(S'und'
p1237
(dp1238
S'CONJ'
p1239
F1.0
s(lp1240
(g240
I23
tp1241
atp1242
a(S'2,5'
p1243
(dp1244
S'NUM'
p1245
F1.0
s(lp1246
(g247
I25
tp1247
atp1248
a(S'milliarden'
p1249
(dp1250
S'ADJ'
p1251
F0.011625
sS'NOUN'
p1252
F0.980854
s(lp1253
(g254
I26
tp1254
atp1255
a(S'im'
p1256
(dp1257
S'ADP'
p1258
F1.0
s(lp1259
(g276
I27
tp1260
atp1261
a(S'jahre'
p1262
(dp1263
S'ADJ'
p1264
F0.003107
sS'NOUN'
p1265
F0.996817
s(lp1266
tp1267
a(S'2010'
p1268
(dp1269
S'NUM'
p1270
F0.977076
sS'ADJ'
p1271
F0.021658
s(lp1272
(g286
I28
tp1273
atp1274
a(g34
(dp1275
g32
F1.0
s(lp1276
(g34
I29
tp1277
atp1278
a(S'bereitzustellen'
p1279
(dp1280
S'VERB'
p1281
F1.0
s(lp1282
(g184
I16
tp1283
atp1284
a(g30
(dp1285
g32
F1.0
s(lp1286
tp1287
a(S'hat'
p1288
(dp1289
S'VERB'
p1290
F1.0
s(lp1291
tp1292
a(S'die'
p1293
(dp1294
S'PRON'
p1295
F0.003315
sS'DET'
p1296
F0.996681
s(lp1297
(g43
I30
tp1298
atp1299
a(S'kommission'
p1300
(dp1301
S'ADJ'
p1302
F0.036226
sS'NOUN'
p1303
F0.940343
s(lp1304
(g50
I31
tp1305
atp1306
a(S'auch'
p1307
(dp1308
S'ADV'
p1309
F1.0
s(lp1310
tp1311
a(S'aus'
p1312
(dp1313
S'PRT'
p1314
F0.002278
sS'ADP'
p1315
F0.996433
s(lp1316
(g346
I33
tp1317
atp1318
a(S'dem'
p1319
(dp1320
S'PRON'
p1321
F0.000175
sS'DET'
p1322
F0.999807
s(lp1323
(g359
I34
tp1324
atp1325
a(S'haushaltsrechtlichen'
p1326
(dp1327
S'ADJ'
p1328
F1.0
s(lp1329
(g373
I35
tp1330
atp1331
a(S'desaster'
p1332
(dp1333
S'VERB'
p1334
F3.9e-05
sS'NOUN'
p1335
F0.999944
s(lp1336
(g366
I36
tp1337
atp1338
a(S'des'
p1339
(dp1340
S'DET'
p1341
F1.0
s(lp1342
(g129
I37
tp1343
atp1344
a(S'vorschlags'
p1345
(dp1346
S'ADJ'
p1347
F0.000131
sS'NOUN'
p1348
F0.999781
s(lp1349
(g413
I39
tp1350
atp1351
a(S'zur'
p1352
(dp1353
S'ADP'
p1354
F1.0
s(lp1355
(g420
I40
tp1356
atp1357
a(S'lebensmittelfazilit\xc3\xa4t'
p1358
(dp1359
S'ADJ'
p1360
F0.011925
sS'NOUN'
p1361
F0.976793
s(lp1362
(g444
I44
tp1363
atp1364
a(S'gelernt'
p1365
(dp1366
S'VERB'
p1367
F1.0
s(lp1368
(g338
I32
tp1369
atp1370
a(g32
(dp1371
g32
F1.0
s(lp1372
(g32
I45
tp1373
atp1374
asS'it'
p1375
(lp1376
(S'per'
p1377
(dp1378
S'CONJ'
p1379
F0.1717
sS'ADP'
p1380
F0.8283
s(lp1381
(g8
I0
tp1382
atp1383
a(S'quanto'
p1384
(dp1385
S'ADV'
p1386
F0.410532
sS'PRON'
p1387
F0.579341
sS'ADJ'
p1388
F0.009313
sS'NOUN'
p1389
F0.000814
s(lp1390
tp1391
a(S'riguarda'
p1392
(dp1393
S'VERB'
p1394
F1.0
s(lp1395
tp1396
a(S'la'
p1397
(dp1398
S'PRON'
p1399
F1e-06
sS'DET'
p1400
F0.999999
s(lp1401
(g15
I1
tp1402
atp1403
a(S'proposta'
p1404
(dp1405
S'VERB'
p1406
F0.000866
sS'NOUN'
p1407
F0.999134
s(lp1408
(g57
I3
tp1409
atp1410
a(S'iniziale'
p1411
(dp1412
S'NOUN'
p1413
F0.005725
sS'VERB'
p1414
F0.0
sS'ADJ'
p1415
F0.994275
s(lp1416
(g27
I2
tp1417
atp1418
a(S'di'
p1419
(dp1420
S'CONJ'
p1421
F7e-06
sS'ADP'
p1422
F0.999993
s(lp1423
(g64
I4
tp1424
atp1425
a(S'stanziare'
p1426
(dp1427
S'VERB'
p1428
F1.0
s(lp1429
(g71
I5
tp1430
atp1431
a(S'5'
p1432
(dp1433
S'NUM'
p1434
F0.884352
sg32
F0.115648
s(lp1435
(g79
I6
tp1436
atp1437
a(S'miliardi'
p1438
(dp1439
S'NOUN'
p1440
F1.0
s(lp1441
tp1442
a(S'di'
p1443
(dp1444
S'CONJ'
p1445
F1e-05
sS'ADP'
p1446
F0.99999
s(lp1447
tp1448
a(S'euro'
p1449
(dp1450
S'NOUN'
p1451
F0.486562
sS'ADJ'
p1452
F0.513438
s(lp1453
(g86
I7
tp1454
atp1455
a(S'tramite'
p1456
(dp1457
S'NOUN'
p1458
F0.07146
sS'ADP'
p1459
F0.92854
s(lp1460
(g99
I8
tp1461
atp1462
a(S'le'
p1463
(dp1464
S'PRON'
p1465
F0.00011
sS'DET'
p1466
F0.99989
s(lp1467
(g184
I16
tp1468
atp1469
a(S'prospettive'
p1470
(dp1471
S'ADJ'
p1472
F0.04409
sS'NOUN'
p1473
F0.95591
s(lp1474
(g137
I12
tp1475
atp1476
a(S'finanziarie'
p1477
(dp1478
S'NOUN'
p1479
F0.010651
sS'ADJ'
p1480
F0.989349
s(lp1481
(g145
I11
tp1482
atp1483
a(S'rivedute'
p1484
(dp1485
S'VERB'
p1486
F0.02872
sS'NOUN'
p1487
F0.97128
s(lp1488
(g122
I10
tp1489
atp1490
a(S'suddivise'
p1491
(dp1492
S'VERB'
p1493
F1.0
s(lp1494
(g184
I16
tp1495
atp1496
a(S'in'
p1497
(dp1498
S'ADP'
p1499
F1.0
s(lp1500
(g168
I14
tp1501
atp1502
a(S'due'
p1503
(dp1504
S'NUM'
p1505
F0.004474
sS'ADJ'
p1506
F0.995526
s(lp1507
(g176
I15
tp1508
atp1509
a(S'quote'
p1510
(dp1511
S'NOUN'
p1512
F1.0
s(lp1513
(g184
I16
tp1514
atp1515
a(g34
(dp1516
g194
F0.0
sg32
F1.0
s(lp1517
(g34
I17
tp1518
atp1519
a(S'3,5'
p1520
(dp1521
S'NUM'
p1522
F0.999043
sg32
F0.000957
s(lp1523
(g197
I19
tp1524
atp1525
a(S'miliardi'
p1526
(dp1527
S'NOUN'
p1528
F1.0
s(lp1529
tp1530
a(S'di'
p1531
(dp1532
S'CONJ'
p1533
F9e-06
sS'ADP'
p1534
F0.999991
s(lp1535
(g204
I20
tp1536
atp1537
a(S'euro'
p1538
(dp1539
S'ADJ'
p1540
F0.486787
sS'NOUN'
p1541
F0.513213
s(lp1542
(g218
I18
tp1543
atp1544
a(S'nel'
p1545
(dp1546
S'ADP'
p1547
F1.0
s(lp1548
(g226
I21
tp1549
atp1550
a(S'2009'
p1551
(dp1552
S'NUM'
p1553
F0.997594
sg32
F0.002405
s(lp1554
(g233
I22
tp1555
atp1556
a(S'e'
p1557
(dp1558
S'CONJ'
p1559
F1.0
s(lp1560
(g240
I23
tp1561
atp1562
a(S'2,5'
p1563
(dp1564
S'NUM'
p1565
F0.964071
sg32
F0.035929
s(lp1566
(g247
I25
tp1567
atp1568
a(S'miliardi'
p1569
(dp1570
S'NOUN'
p1571
F1.0
s(lp1572
tp1573
a(S'di'
p1574
(dp1575
S'CONJ'
p1576
F9e-06
sS'ADP'
p1577
F0.999991
s(lp1578
(g254
I26
tp1579
atp1580
a(S'euro'
p1581
(dp1582
S'ADJ'
p1583
F0.486787
sS'NOUN'
p1584
F0.513213
s(lp1585
(g268
I24
tp1586
atp1587
a(S'nel'
p1588
(dp1589
S'ADP'
p1590
F1.0
s(lp1591
(g276
I27
tp1592
atp1593
a(S'2010'
p1594
(dp1595
S'NUM'
p1596
F0.999739
sg32
F0.000261
s(lp1597
(g286
I28
tp1598
atp1599
a(g34
(dp1600
g194
F4e-06
sg32
F0.999996
s(lp1601
(g34
I29
tp1602
atp1603
a(S'la'
p1604
(dp1605
S'PRON'
p1606
F0.000686
sS'DET'
p1607
F0.999314
s(lp1608
(g43
I30
tp1609
atp1610
a(S'commissione'
p1611
(dp1612
S'NOUN'
p1613
F1.0
s(lp1614
(g50
I31
tp1615
atp1616
a(S'si'
p1617
(dp1618
S'PRON'
p1619
F0.999997
sS'NOUN'
p1620
F3e-06
s(lp1621
tp1622
a(S'\xc3\xa8'
p1623
(dp1624
S'VERB'
p1625
F1.0
s(lp1626
tp1627
a(S'resa'
p1628
(dp1629
S'VERB'
p1630
F0.997455
sS'NOUN'
p1631
F0.002545
s(lp1632
(g184
I16
tp1633
atp1634
a(S'conto'
p1635
(dp1636
S'VERB'
p1637
F7.9e-05
sS'NOUN'
p1638
F0.999921
s(lp1639
(g338
I32
tp1640
atp1641
a(S'della'
p1642
(dp1643
S'DEF'
p1644
F0.000384
sS'ADP'
p1645
F0.999616
s(lp1646
(g129
I37
tp1647
atp1648
a(S'sua'
p1649
(dp1650
S'PRON'
p1651
F1.0
s(lp1652
tp1653
a(S'impraticabilit\xc3\xa0'
p1654
(dp1655
S'NOUN'
p1656
F1.0
s(lp1657
(g184
I16
tp1658
atp1659
a(S'sulla'
p1660
(dp1661
S'NOUN'
p1662
F5e-06
sS'ADP'
p1663
F0.999995
s(lp1664
(g400
I38
tp1665
atp1666
a(S'base'
p1667
(dp1668
S'NOUN'
p1669
F1.0
s(lp1670
(g346
I33
tp1671
atp1672
a(S'del'
p1673
(dp1674
S'DEF'
p1675
F0.002741
sS'ADP'
p1676
F0.997259
s(lp1677
(g359
I34
tp1678
atp1679
a(S'disastroso'
p1680
(dp1681
S'ADJ'
p1682
F1.0
s(lp1683
(g366
I36
tp1684
atp1685
a(S'bilancio'
p1686
(dp1687
S'VERB'
p1688
F0.000823
sS'NOUN'
p1689
F0.999177
s(lp1690
(g373
I35
tp1691
atp1692
a(S'sullo'
p1693
(dp1694
S'ADP'
p1695
F1.0
s(lp1696
(g420
I40
tp1697
atp1698
a(S'strumento'
p1699
(dp1700
S'VERB'
p1701
F0.000353
sS'NOUN'
p1702
F0.999647
s(lp1703
tp1704
a(S'di'
p1705
(dp1706
S'CONJ'
p1707
F5e-06
sS'ADP'
p1708
F0.999995
s(lp1709
(g444
I44
tp1710
atp1711
a(S'aiuto'
p1712
(dp1713
S'VERB'
p1714
F0.000406
sS'NOUN'
p1715
F0.999594
s(lp1716
(g452
I43
tp1717
atp1718
a(S'alimentare'
p1719
(dp1720
S'NOUN'
p1721
F0.003724
sS'VERB'
p1722
F0.002075
sS'ADJ'
p1723
F0.994201
s(lp1724
(g459
I42
tp1725
atp1726
a(g32
(dp1727
g32
F1.0
s(lp1728
(g32
I45
tp1729
atp1730
asS'sk'
p1731
(lp1732
(S'v'
p1733
(dp1734
g194
F0.000263
sS'ADP'
p1735
F0.999737
s(lp1736
(g8
I0
tp1737
atp1738
a(S'p\xc3\xb4vodnom'
p1739
(dp1740
S'ADJ'
p1741
F1.0
s(lp1742
(g27
I2
tp1743
atp1744
a(S'n\xc3\xa1vrhu'
p1745
(dp1746
S'NOUN'
p1747
F1.0
s(lp1748
(g57
I3
tp1749
atp1750
a(g30
(dp1751
g32
F1.0
s(lp1752
tp1753
a(S'ktor\xc3\xbdm'
p1754
(dp1755
S'PRON'
p1756
F1.0
s(lp1757
tp1758
a(S'bolo'
p1759
(dp1760
S'VERB'
p1761
F0.9999999999999999
s(lp1762
(g64
I4
tp1763
atp1764
a(S'poskytn\xc3\xba\xc5\xa5'
p1765
(dp1766
S'VERB'
p1767
F1.0
s(lp1768
(g71
I5
tp1769
atp1770
a(S'p\xc3\xa4\xc5\xa5'
p1771
(dp1772
g194
F7e-05
sS'NUM'
p1773
F0.99993
sS'VERB'
p1774
F0.0
s(lp1775
(g79
I6
tp1776
atp1777
a(S'mili\xc3\xa1rd'
p1778
(dp1779
S'NUM'
p1780
F0.923017
sS'NOUN'
p1781
F0.076983
s(lp1782
(g86
I7
tp1783
atp1784
a(S'prostredn\xc3\xadctvom'
p1785
(dp1786
S'NOUN'
p1787
F0.00063
sS'ADP'
p1788
F0.99937
s(lp1789
(g99
I8
tp1790
atp1791
a(S'revidovanej'
p1792
(dp1793
S'NOUN'
p1794
F0.025373
sS'VERB'
p1795
F0.3144379999999999
sS'ADJ'
p1796
F0.660188
s(lp1797
(g122
I10
tp1798
atp1799
a(S'finan\xc4\x8dnej'
p1800
(dp1801
S'ADJ'
p1802
F1.0
s(lp1803
(g145
I11
tp1804
atp1805
a(S'perspekt\xc3\xadvy'
p1806
(dp1807
S'NOUN'
p1808
F1.0
s(lp1809
(g137
I12
tp1810
atp1811
a(S'rozdelenej'
p1812
(dp1813
S'VERB'
p1814
F1.0
s(lp1815
(g160
I13
tp1816
atp1817
a(S'na'
p1818
(dp1819
g194
F9e-06
sS'CONJ'
p1820
F1e-05
sS'ADP'
p1821
F0.99998
sS'PRT'
p1822
F0.0
s(lp1823
(g168
I14
tp1824
atp1825
a(S'dve'
p1826
(dp1827
S'NUM'
p1828
F1.0
s(lp1829
(g176
I15
tp1830
atp1831
a(S'tran\xc5\xbee'
p1832
(dp1833
S'ADJ'
p1834
F0.000719
sS'VERB'
p1835
F0.000221
sS'NOUN'
p1836
F0.999061
s(lp1837
(g184
I16
tp1838
atp1839
a(g34
(dp1840
g32
F1.0
s(lp1841
(g34
I17
tp1842
atp1843
a(S'3,5'
p1844
(dp1845
S'NUM'
p1846
F1.0
s(lp1847
(g197
I19
tp1848
atp1849
a(S'miliardy'
p1850
(dp1851
S'NUM'
p1852
F0.991391
sS'NOUN'
p1853
F0.008609
s(lp1854
(g204
I20
tp1855
atp1856
a(S'eur'
p1857
(dp1858
S'NOUN'
p1859
F1.0
s(lp1860
(g218
I18
tp1861
atp1862
a(S'na'
p1863
(dp1864
g194
F2.2e-05
sS'CONJ'
p1865
F1.8e-05
sS'ADP'
p1866
F0.999956
sS'PRT'
p1867
F4e-06
s(lp1868
(g226
I21
tp1869
atp1870
a(S'rok'
p1871
(dp1872
S'NOUN'
p1873
F1.0
s(lp1874
tp1875
a(S'2009'
p1876
(dp1877
S'NUM'
p1878
F1.0
s(lp1879
(g233
I22
tp1880
atp1881
a(g115
(dp1882
g194
F0.6602520000000001
sS'CONJ'
p1883
F0.338737
sS'NOUN'
p1884
F0.000733
sS'ADP'
p1885
F0.000233
sS'PRT'
p1886
F4.4e-05
s(lp1887
(g240
I23
tp1888
atp1889
a(S'2,5'
p1890
(dp1891
S'NUM'
p1892
F1.0
s(lp1893
(g247
I25
tp1894
atp1895
a(S'miliardy'
p1896
(dp1897
S'NUM'
p1898
F0.991391
sS'NOUN'
p1899
F0.008609
s(lp1900
(g254
I26
tp1901
atp1902
a(S'eur'
p1903
(dp1904
S'NOUN'
p1905
F1.0
s(lp1906
(g268
I24
tp1907
atp1908
a(S'na'
p1909
(dp1910
g194
F2.2e-05
sS'CONJ'
p1911
F1.8e-05
sS'ADP'
p1912
F0.999956
sS'PRT'
p1913
F4e-06
s(lp1914
(g276
I27
tp1915
atp1916
a(S'rok'
p1917
(dp1918
S'NOUN'
p1919
F1.0
s(lp1920
tp1921
a(S'2010'
p1922
(dp1923
S'NUM'
p1924
F1.0
s(lp1925
(g286
I28
tp1926
atp1927
a(g34
(dp1928
g32
F1.0
s(lp1929
(g34
I29
tp1930
atp1931
a(S'sa'
p1932
(dp1933
S'PRT'
p1934
F0.990618
sS'ADP'
p1935
F0.004102
sg194
F0.00528
s(lp1936
(g43
I30
tp1937
atp1938
a(S'komisia'
p1939
(dp1940
S'NOUN'
p1941
F1.0
s(lp1942
(g50
I31
tp1943
atp1944
a(S'pou\xc4\x8dila'
p1945
(dp1946
S'VERB'
p1947
F0.999999
s(lp1948
(g338
I32
tp1949
atp1950
a(S'z'
p1951
(dp1952
g194
F6.3e-05
sS'NOUN'
p1953
F4.1e-05
sS'ADP'
p1954
F0.999897
s(lp1955
(g346
I33
tp1956
atp1957
a(S'rozpo\xc4\x8dtovej'
p1958
(dp1959
S'ADJ'
p1960
F1.0
s(lp1961
(g373
I35
tp1962
atp1963
a(S'katastrofy'
p1964
(dp1965
S'NOUN'
p1966
F1.0
s(lp1967
(g366
I36
tp1968
atp1969
a(S'n\xc3\xa1vrhu'
p1970
(dp1971
S'NOUN'
p1972
F1.0
s(lp1973
(g413
I39
tp1974
atp1975
a(S'o'
p1976
(dp1977
g194
F0.0009609999999999999
sS'CONJ'
p1978
F4.8e-05
sS'NOUN'
p1979
F1.7e-05
sS'ADP'
p1980
F0.998974
s(lp1981
(g420
I40
tp1982
atp1983
a(S'n\xc3\xa1stroji'
p1984
(dp1985
S'NOUN'
p1986
F1.0
s(lp1987
(g444
I44
tp1988
atp1989
a(S'potravinovej'
p1990
(dp1991
S'ADJ'
p1992
F1.0
s(lp1993
(g459
I42
tp1994
atp1995
a(S'pomoci'
p1996
(dp1997
S'NOUN'
p1998
F1.0
s(lp1999
(g452
I43
tp2000
atp2001
a(g32
(dp2002
g32
F1.0
s(lp2003
(g32
I45
tp2004
atp2005
asS'pl'
p2006
(lp2007
(S'w'
p2008
(dp2009
S'ADJ'
p2010
F0.0
sg194
F0.0
sS'NOUN'
p2011
F0.0
sS'ADP'
p2012
F1.0
s(lp2013
(g8
I0
tp2014
atp2015
a(S'pierwotnym'
p2016
(dp2017
S'ADJ'
p2018
F1.0
s(lp2019
(g27
I2
tp2020
atp2021
a(S'wniosku'
p2022
(dp2023
S'NOUN'
p2024
F1.0
s(lp2025
tp2026
a(S'dotycz\xc4\x85cym'
p2027
(dp2028
S'VERB'
p2029
F1.000001
s(lp2030
(g57
I3
tp2031
atp2032
a(S'zapewnienia'
p2033
(dp2034
S'VERB'
p2035
F0.480552
sS'NOUN'
p2036
F0.519448
s(lp2037
(g71
I5
tp2038
atp2039
a(S'pi\xc4\x99ciu'
p2040
(dp2041
S'NUM'
p2042
F0.999999
s(lp2043
(g79
I6
tp2044
atp2045
a(S'miliard\xc3\xb3w'
p2046
(dp2047
S'NOUN'
p2048
F1.0
s(lp2049
(g86
I7
tp2050
atp2051
a(S'poprzez'
p2052
(dp2053
S'ADP'
p2054
F1.0
s(lp2055
(g99
I8
tp2056
atp2057
a(S'zmian\xc4\x99'
p2058
(dp2059
S'NOUN'
p2060
F1.0
s(lp2061
(g122
I10
tp2062
atp2063
a(S'perspektywy'
p2064
(dp2065
S'NOUN'
p2066
F1.000001
s(lp2067
(g137
I12
tp2068
atp2069
a(S'finansowej'
p2070
(dp2071
S'ADJ'
p2072
F0.999999
s(lp2073
(g145
I11
tp2074
atp2075
a(S'i'
p2076
(dp2077
S'PRT'
p2078
F0.006236
sS'CONJ'
p2079
F0.993717
sS'PRON'
p2080
F4.9999999999999996e-06
sS'NOUN'
p2081
F3e-06
sg194
F3.8e-05
s(lp2082
tp2083
a(S'podzia\xc5\x82'
p2084
(dp2085
S'VERB'
p2086
F0.277683
sS'NOUN'
p2087
F0.722317
s(lp2088
(g160
I13
tp2089
atp2090
a(S'na'
p2091
(dp2092
S'PRT'
p2093
F0.000101
sS'VERB'
p2094
F8e-06
sS'NOUN'
p2095
F0.0
sS'ADP'
p2096
F0.9998880000000001
sg194
F2e-06
s(lp2097
(g168
I14
tp2098
atp2099
a(S'dwie'
p2100
(dp2101
S'NUM'
p2102
F1.0
s(lp2103
(g176
I15
tp2104
atp2105
a(S'transze'
p2106
(dp2107
S'ADV'
p2108
F0.000864
sS'ADJ'
p2109
F0.14973999999999993
sS'VERB'
p2110
F0.002612000000000001
sS'NOUN'
p2111
F0.8467849999999995
s(lp2112
(g184
I16
tp2113
atp2114
a(g34
(dp2115
g194
F1.4e-05
sS'NUM'
p2116
F0.000114
sS'NOUN'
p2117
F2.7e-05
sg32
F0.999846
s(lp2118
(g34
I17
tp2119
atp2120
a(S'3,5'
p2121
(dp2122
S'NUM'
p2123
F0.9999990000000001
s(lp2124
(g197
I19
tp2125
atp2126
a(S'miliarda'
p2127
(dp2128
S'NOUN'
p2129
F1.0
s(lp2130
(g204
I20
tp2131
atp2132
a(S'euro'
p2133
(dp2134
S'NOUN'
p2135
F0.9999999999999999
s(lp2136
(g218
I18
tp2137
atp2138
a(g2008
(dp2139
S'ADJ'
p2140
F0.0
sg194
F0.0
sS'NOUN'
p2141
F1e-06
sS'ADP'
p2142
F0.999998
s(lp2143
(g226
I21
tp2144
atp2145
a(S'roku'
p2146
(dp2147
S'NOUN'
p2148
F1.0
s(lp2149
tp2150
a(S'2009'
p2151
(dp2152
S'NUM'
p2153
F0.009647
sS'ADJ'
p2154
F0.990354
s(lp2155
(g233
I22
tp2156
atp2157
a(g2076
(dp2158
S'PRT'
p2159
F0.01311
sS'CONJ'
p2160
F0.986868
sS'NOUN'
p2161
F4e-06
sg194
F1e-06
sS'PRON'
p2162
F1.7e-05
s(lp2163
(g240
I23
tp2164
atp2165
a(S'2,5'
p2166
(dp2167
S'NUM'
p2168
F0.999999
s(lp2169
(g247
I25
tp2170
atp2171
a(S'miliarda'
p2172
(dp2173
S'NOUN'
p2174
F1.0
s(lp2175
(g254
I26
tp2176
atp2177
a(g2008
(dp2178
S'ADJ'
p2179
F0.0
sg194
F0.0
sS'NOUN'
p2180
F2e-06
sS'ADP'
p2181
F0.9999970000000001
s(lp2182
(g276
I27
tp2183
atp2184
a(S'roku'
p2185
(dp2186
S'NOUN'
p2187
F1.0
s(lp2188
tp2189
a(S'2010'
p2190
(dp2191
S'NUM'
p2192
F0.063542
sS'ADJ'
p2193
F0.936458
s(lp2194
(g286
I28
tp2195
atp2196
a(g34
(dp2197
g194
F9e-06
sS'NUM'
p2198
F0.0
sS'NOUN'
p2199
F6e-06
sg32
F0.999984
s(lp2200
(g34
I29
tp2201
atp2202
a(S'komisja'
p2203
(dp2204
S'NOUN'
p2205
F1.0
s(lp2206
(g50
I31
tp2207
atp2208
a(S'odebra\xc5\x82a'
p2209
(dp2210
S'VERB'
p2211
F1.0
s(lp2212
(g184
I16
tp2213
atp2214
a(S'lekcj\xc4\x99'
p2215
(dp2216
S'NOUN'
p2217
F1.0
s(lp2218
tp2219
a(g1951
(dp2220
S'PRT'
p2221
F5e-06
sS'VERB'
p2222
F1e-06
sS'NOUN'
p2223
F0.0
sS'ADP'
p2224
F0.999994
sg194
F0.0
s(lp2225
(g346
I33
tp2226
atp2227
a(S'katastrofalnego'
p2228
(dp2229
S'ADJ'
p2230
F1.0
s(lp2231
(g184
I16
tp2232
atp2233
a(S'wniosku'
p2234
(dp2235
S'NOUN'
p2236
F1.0
s(lp2237
(g413
I39
tp2238
atp2239
a(S'dotycz\xc4\x85cego'
p2240
(dp2241
S'VERB'
p2242
F1.0
s(lp2243
(g420
I40
tp2244
atp2245
a(S'pomocy'
p2246
(dp2247
S'NOUN'
p2248
F1.0
s(lp2249
(g452
I43
tp2250
atp2251
a(S'\xc5\xbcywno\xc5\x9bciowej'
p2252
(dp2253
S'ADJ'
p2254
F1.0
s(lp2255
(g459
I42
tp2256
atp2257
a(g32
(dp2258
g32
F1.0
s(lp2259
(g32
I45
tp2260
atp2261
asS'sl'
p2262
(lp2263
(g1733
(dp2264
S'ADP'
p2265
F1.0
s(lp2266
(g8
I0
tp2267
atp2268
a(S'prvotnem'
p2269
(dp2270
S'ADJ'
p2271
F1.0
s(lp2272
(g27
I2
tp2273
atp2274
a(S'predlogu'
p2275
(dp2276
S'NOUN'
p2277
F1.0
s(lp2278
(g57
I3
tp2279
atp2280
a(g30
(dp2281
g32
F1.0
s(lp2282
tp2283
a(S'ki'
p2284
(dp2285
S'CONJ'
p2286
F1.0
s(lp2287
(g64
I4
tp2288
atp2289
a(S'je'
p2290
(dp2291
S'PRON'
p2292
F0.000444
sS'VERB'
p2293
F0.999556
sg194
F0.0
s(lp2294
tp2295
a(S'predvideval'
p2296
(dp2297
S'VERB'
p2298
F1.0
s(lp2299
(g71
I5
tp2300
atp2301
a(S'pet'
p2302
(dp2303
S'NUM'
p2304
F0.9997419999999999
sS'NOUN'
p2305
F0.000258
s(lp2306
(g79
I6
tp2307
atp2308
a(S'milijard'
p2309
(dp2310
S'NOUN'
p2311
F1.0
s(lp2312
(g86
I7
tp2313
atp2314
a(S'evrov'
p2315
(dp2316
S'NOUN'
p2317
F1.0
s(lp2318
tp2319
a(S'prek'
p2320
(dp2321
S'ADP'
p2322
F1.0
s(lp2323
(g99
I8
tp2324
atp2325
a(S'revidirane'
p2326
(dp2327
S'ADV'
p2328
F2.2e-05
sS'NOUN'
p2329
F0.10736000000000004
sS'VERB'
p2330
F9e-06
sS'ADJ'
p2331
F0.8926080000000001
s(lp2332
(g122
I10
tp2333
atp2334
a(S'finan\xc4\x8dne'
p2335
(dp2336
S'ADJ'
p2337
F1.0
s(lp2338
(g145
I11
tp2339
atp2340
a(S'perspektive'
p2341
(dp2342
S'NOUN'
p2343
F1.0
s(lp2344
(g137
I12
tp2345
atp2346
a(g30
(dp2347
g32
F1.0
s(lp2348
tp2349
a(S'razdeljene'
p2350
(dp2351
S'ADJ'
p2352
F1.0
s(lp2353
(g184
I16
tp2354
atp2355
a(S'na'
p2356
(dp2357
S'ADP'
p2358
F1.0
s(lp2359
(g168
I14
tp2360
atp2361
a(S'dve'
p2362
(dp2363
S'NUM'
p2364
F1.0
s(lp2365
(g176
I15
tp2366
atp2367
a(S'tran\xc5\xa1i'
p2368
(dp2369
S'ADV'
p2370
F0.003953
sS'ADJ'
p2371
F0.27055000000000007
sS'VERB'
p2372
F0.156599
sS'NOUN'
p2373
F0.5688949999999998
s(lp2374
(g184
I16
tp2375
atp2376
a(g34
(dp2377
g32
F1.0
s(lp2378
(g34
I17
tp2379
atp2380
a(S'3,5'
p2381
(dp2382
S'NUM'
p2383
F1.0
s(lp2384
(g197
I19
tp2385
atp2386
a(S'milijarde'
p2387
(dp2388
S'NOUN'
p2389
F1.0
s(lp2390
(g204
I20
tp2391
atp2392
a(S'eur'
p2393
(dp2394
S'ADV'
p2395
F0.036471
sS'ADJ'
p2396
F0.0019799999999999996
sS'NOUN'
p2397
F0.9608499999999999
sg194
F0.000701
s(lp2398
(g218
I18
tp2399
atp2400
a(g1733
(dp2401
S'ADP'
p2402
F1.0
s(lp2403
(g226
I21
tp2404
atp2405
a(S'letu'
p2406
(dp2407
S'NOUN'
p2408
F1.0
s(lp2409
tp2410
a(S'2009'
p2411
(dp2412
S'NUM'
p2413
F1.0
s(lp2414
(g233
I22
tp2415
atp2416
a(S'in'
p2417
(dp2418
S'ADV'
p2419
F0.000167
sg194
F0.00023
sS'CONJ'
p2420
F0.995863
sS'NOUN'
p2421
F0.00374
s(lp2422
(g240
I23
tp2423
atp2424
a(S'2,5'
p2425
(dp2426
S'NUM'
p2427
F1.0
s(lp2428
(g247
I25
tp2429
atp2430
a(S'milijarde'
p2431
(dp2432
S'NOUN'
p2433
F1.0
s(lp2434
(g254
I26
tp2435
atp2436
a(S'eur'
p2437
(dp2438
S'ADV'
p2439
F0.036471
sS'ADJ'
p2440
F0.0019799999999999996
sS'NOUN'
p2441
F0.9608499999999999
sg194
F0.000701
s(lp2442
(g268
I24
tp2443
atp2444
a(g1733
(dp2445
S'ADP'
p2446
F1.0
s(lp2447
(g276
I27
tp2448
atp2449
a(S'letu'
p2450
(dp2451
S'NOUN'
p2452
F1.0
s(lp2453
tp2454
a(S'2010'
p2455
(dp2456
S'NUM'
p2457
F1.0
s(lp2458
(g286
I28
tp2459
atp2460
a(g34
(dp2461
g32
F1.0
s(lp2462
(g34
I29
tp2463
atp2464
a(S'se'
p2465
(dp2466
S'PRON'
p2467
F0.999918
sg194
F8.2e-05
s(lp2468
tp2469
a(S'je'
p2470
(dp2471
S'PRON'
p2472
F0.000697
sS'VERB'
p2473
F0.999302
sg194
F2e-06
s(lp2474
(g43
I30
tp2475
atp2476
a(S'komisija'
p2477
(dp2478
S'NOUN'
p2479
F1.0
s(lp2480
(g50
I31
tp2481
atp2482
a(S'lahko'
p2483
(dp2484
S'ADV'
p2485
F0.999834
sS'ADJ'
p2486
F0.00016600000000000002
s(lp2487
(g338
I32
tp2488
atp2489
a(S'nekaj'
p2490
(dp2491
S'ADV'
p2492
F0.964145
sS'PRON'
p2493
F0.035854
s(lp2494
tp2495
a(S'nau\xc4\x8dila'
p2496
(dp2497
S'VERB'
p2498
F1.0
s(lp2499
(g338
I32
tp2500
atp2501
a(S'iz'
p2502
(dp2503
g194
F7e-06
sS'ADP'
p2504
F0.999993
s(lp2505
(g346
I33
tp2506
atp2507
a(S'prora\xc4\x8dunske'
p2508
(dp2509
S'ADJ'
p2510
F1.0
s(lp2511
(g373
I35
tp2512
atp2513
a(S'katastrofe'
p2514
(dp2515
S'NOUN'
p2516
F1.0
s(lp2517
(g366
I36
tp2518
atp2519
a(g1733
(dp2520
S'ADP'
p2521
F1.0
s(lp2522
(g129
I37
tp2523
atp2524
a(S'zvezi'
p2525
(dp2526
S'NOUN'
p2527
F1.0
s(lp2528
(g420
I40
tp2529
atp2530
a(S's'
p2531
(dp2532
S'VERB'
p2533
F1e-06
sS'NOUN'
p2534
F2e-06
sS'ADP'
p2535
F0.9999969999999999
s(lp2536
(g400
I38
tp2537
atp2538
a(S'predlaganim'
p2539
(dp2540
S'ADJ'
p2541
F1.0
s(lp2542
tp2543
a(S'instrumentom'
p2544
(dp2545
S'ADV'
p2546
F6e-06
sS'ADJ'
p2547
F8e-06
sS'NOUN'
p2548
F0.9999849999999997
s(lp2549
(g184
I16
tp2550
atp2551
a(S'za'
p2552
(dp2553
S'ADV'
p2554
F1.2e-05
sg194
F1e-06
sS'ADP'
p2555
F0.999987
s(lp2556
(g444
I44
tp2557
atp2558
a(S'pomo\xc4\x8d'
p2559
(dp2560
S'NOUN'
p2561
F1.0
s(lp2562
(g452
I43
tp2563
atp2564
a(g1733
(dp2565
S'ADP'
p2566
F1.0
s(lp2567
(g429
I41
tp2568
atp2569
a(S'hrani'
p2570
(dp2571
S'VERB'
p2572
F9.9e-05
sS'NOUN'
p2573
F0.999901
s(lp2574
(g459
I42
tp2575
atp2576
a(g32
(dp2577
g32
F1.0
s(lp2578
(g32
I45
tp2579
atp2580
asS'es'
p2581
(lp2582
(S'en'
p2583
(dp2584
g194
F7e-06
sS'CONJ'
p2585
F2e-06
sS'ADP'
p2586
F0.999992
s(lp2587
(g8
I0
tp2588
atp2589
a(S'la'
p2590
(dp2591
g194
F3e-06
sS'PRON'
p2592
F0.0
sS'DET'
p2593
F0.999997
sS'NOUN'
p2594
F0.0
s(lp2595
(g15
I1
tp2596
atp2597
a(S'propuesta'
p2598
(dp2599
S'VERB'
p2600
F0.000613
sS'NOUN'
p2601
F0.999387
s(lp2602
(g57
I3
tp2603
atp2604
a(S'original'
p2605
(dp2606
S'ADJ'
p2607
F1.0
s(lp2608
(g27
I2
tp2609
atp2610
a(S'que'
p2611
(dp2612
g194
F1e-06
sS'CONJ'
p2613
F0.999999
s(lp2614
(g64
I4
tp2615
atp2616
a(S'pretend\xc3\xada'
p2617
(dp2618
S'VERB'
p2619
F1.0
s(lp2620
(g184
I16
tp2621
atp2622
a(S'asignar'
p2623
(dp2624
S'VERB'
p2625
F1.0
s(lp2626
(g71
I5
tp2627
atp2628
a(g1432
(dp2629
S'NUM'
p2630
F1.0
s(lp2631
(g79
I6
tp2632
atp2633
a(S'000'
p2634
(dp2635
g194
F0.176482
sS'NUM'
p2636
F0.823518
s(lp2637
tp2638
a(S'millones'
p2639
(dp2640
S'NUM'
p2641
F1.0
s(lp2642
(g86
I7
tp2643
atp2644
a(g115
(dp2645
S'ADP'
p2646
F1.0
s(lp2647
tp2648
a(S'trav\xc3\xa9s'
p2649
(dp2650
S'ADP'
p2651
F1.0
s(lp2652
(g99
I8
tp2653
atp2654
a(S'de'
p2655
(dp2656
S'ADP'
p2657
F1.0
s(lp2658
(g218
I18
tp2659
atp2660
a(S'una'
p2661
(dp2662
S'DET'
p2663
F1.0
s(lp2664
(g115
I9
tp2665
atp2666
a(S'perspectiva'
p2667
(dp2668
S'NOUN'
p2669
F1.0
s(lp2670
(g137
I12
tp2671
atp2672
a(S'financiera'
p2673
(dp2674
S'NOUN'
p2675
F0.024453
sS'ADJ'
p2676
F0.975547
s(lp2677
(g145
I11
tp2678
atp2679
a(S'revisada'
p2680
(dp2681
S'VERB'
p2682
F0.19792
sS'NOUN'
p2683
F0.80208
s(lp2684
(g122
I10
tp2685
atp2686
a(S'dividida'
p2687
(dp2688
S'VERB'
p2689
F1.0
s(lp2690
(g160
I13
tp2691
atp2692
a(S'en'
p2693
(dp2694
g194
F0.0
sS'CONJ'
p2695
F1e-06
sS'ADP'
p2696
F0.999998
s(lp2697
(g168
I14
tp2698
atp2699
a(S'dos'
p2700
(dp2701
S'NUM'
p2702
F0.999962
sS'NOUN'
p2703
F3.8e-05
s(lp2704
(g176
I15
tp2705
atp2706
a(S'plazos'
p2707
(dp2708
S'NOUN'
p2709
F1.0
s(lp2710
(g184
I16
tp2711
atp2712
a(S'-3'
p2713
(dp2714
g194
F0.843102
sS'NUM'
p2715
F0.156898
s(lp2716
(g184
I16
tp2717
atp2718
a(S'500'
p2719
(dp2720
g194
F0.493643
sS'NUM'
p2721
F0.506357
s(lp2722
(g197
I19
tp2723
atp2724
a(S'millones'
p2725
(dp2726
S'NUM'
p2727
F1.0
s(lp2728
(g204
I20
tp2729
atp2730
a(S'en'
p2731
(dp2732
g194
F0.000569
sS'CONJ'
p2733
F0.0
sS'ADP'
p2734
F0.999431
s(lp2735
(g226
I21
tp2736
atp2737
a(S'2009'
p2738
(dp2739
g194
F0.024131
sS'NUM'
p2740
F0.975869
s(lp2741
(g233
I22
tp2742
atp2743
a(S'y'
p2744
(dp2745
g194
F9.3e-05
sS'CONJ'
p2746
F0.999907
s(lp2747
(g240
I23
tp2748
atp2749
a(S'2'
p2750
(dp2751
S'NUM'
p2752
F1.0
s(lp2753
tp2754
a(S'500'
p2755
(dp2756
g194
F0.176482
sS'NUM'
p2757
F0.823518
s(lp2758
(g247
I25
tp2759
atp2760
a(S'millones'
p2761
(dp2762
S'NUM'
p2763
F1.0
s(lp2764
(g254
I26
tp2765
atp2766
a(S'en'
p2767
(dp2768
g194
F0.001815
sS'CONJ'
p2769
F0.0
sS'ADP'
p2770
F0.998185
s(lp2771
(g276
I27
tp2772
atp2773
a(S'2010-'
p2774
(dp2775
g194
F0.105452
sS'NUM'
p2776
F0.894548
s(lp2777
(g286
I28
tp2778
atp2779
a(g30
(dp2780
g32
F1.0
s(lp2781
(g34
I29
tp2782
atp2783
a(S'la'
p2784
(dp2785
S'PRON'
p2786
F3.5e-05
sS'DET'
p2787
F0.999959
sS'NOUN'
p2788
F0.0
sg194
F5e-06
s(lp2789
(g43
I30
tp2790
atp2791
a(S'comisi\xc3\xb3n'
p2792
(dp2793
S'NOUN'
p2794
F1.0
s(lp2795
(g50
I31
tp2796
atp2797
a(S'sac\xc3\xb3'
p2798
(dp2799
S'VERB'
p2800
F1.0
s(lp2801
tp2802
a(S'partido'
p2803
(dp2804
S'NOUN'
p2805
F1.0
s(lp2806
(g184
I16
tp2807
atp2808
a(S'del'
p2809
(dp2810
S'ADP'
p2811
F1.0
s(lp2812
(g346
I33
tp2813
atp2814
a(S'desastre'
p2815
(dp2816
S'NOUN'
p2817
F1.0
s(lp2818
(g366
I36
tp2819
atp2820
a(S'presupuestario'
p2821
(dp2822
S'ADJ'
p2823
F1.0
s(lp2824
(g373
I35
tp2825
atp2826
a(S'de'
p2827
(dp2828
g194
F0.0
sS'CONJ'
p2829
F5.7e-05
sS'ADP'
p2830
F0.999943
s(lp2831
(g129
I37
tp2832
atp2833
a(S'la'
p2834
(dp2835
S'NOUN'
p2836
F4e-06
sS'PRON'
p2837
F0.0
sS'DET'
p2838
F0.999996
sg194
F0.0
s(lp2839
(g400
I38
tp2840
atp2841
a(S'propuesta'
p2842
(dp2843
S'VERB'
p2844
F0.026243
sS'NOUN'
p2845
F0.973757
s(lp2846
(g413
I39
tp2847
atp2848
a(S'sobre'
p2849
(dp2850
S'NOUN'
p2851
F0.0
sS'ADP'
p2852
F1.0
s(lp2853
(g420
I40
tp2854
atp2855
a(S'las'
p2856
(dp2857
S'PRON'
p2858
F0.0
sS'DET'
p2859
F1.0
s(lp2860
(g429
I41
tp2861
atp2862
a(S'facilidades'
p2863
(dp2864
S'NOUN'
p2865
F1.0
s(lp2866
(g444
I44
tp2867
atp2868
a(S'de'
p2869
(dp2870
g194
F2.9e-05
sS'CONJ'
p2871
F0.000449
sS'ADP'
p2872
F0.999522
s(lp2873
tp2874
a(S'ayuda'
p2875
(dp2876
S'NOUN'
p2877
F1.0
s(lp2878
(g452
I43
tp2879
atp2880
a(S'alimentaria'
p2881
(dp2882
S'ADJ'
p2883
F1.0
s(lp2884
(g459
I42
tp2885
atp2886
a(g32
(dp2887
g32
F1.0
s(lp2888
(g32
I45
tp2889
atp2890
as.