(dp0
S'fr'
p1
(lp2
(S'en'
p3
(dp4
S'PRON'
p5
F0.572017
sS'ADP'
p6
F0.427983
s(lp7
(S'in'
p8
I0
tp9
atp10
a(S'condamnant'
p11
(dp12
S'VERB'
p13
F1.0
s(lp14
(S'sentencing'
p15
I1
tp16
atp17
a(S'roxana'
p18
(dp19
S'VERB'
p20
F0.60388
sS'NOUN'
p21
F0.396121
s(lp22
(S'roxana'
p23
I2
tp24
atp25
a(S'saberi'
p26
(dp27
S'NOUN'
p28
F1.0
s(lp29
(S'saberi'
p30
I3
tp31
atp32
a(S','
p33
(dp34
S'.'
p35
F1.0
s(lp36
(g33
I4
tp37
atp38
a(S'le'
p39
(dp40
S'PRON'
p41
F0.000368
sS'DET'
p42
F0.999632
s(lp43
(S'the'
p44
I5
tp45
atp46
a(S'r\xc3\xa9gime'
p47
(dp48
S'NOUN'
p49
F1.0
s(lp50
(S'regime'
p51
I7
tp52
atp53
a(S'iranien'
p54
(dp55
S'ADJ'
p56
F1.0
s(lp57
(S'iranian'
p58
I6
tp59
atp60
a(S'a'
p61
(dp62
S'VERB'
p63
F1.0
s(lp64
(S'has'
p65
I8
tp66
atp67
a(S'montr\xc3\xa9'
p68
(dp69
S'VERB'
p70
F1.0
s(lp71
(S'demonstrated'
p72
I9
tp73
atp74
a(S'sa'
p75
(dp76
S'PRON'
p77
F1.0
s(lp78
(S'it'
p79
I11
tp80
atp81
a(S'faiblesse'
p82
(dp83
S'NOUN'
p84
F1.0
s(lp85
(S'weak'
p86
I14
tp87
atp88
a(S'et'
p89
(dp90
S'CONJ'
p91
F1.0
s(lp92
(S'and'
p93
I15
tp94
atp95
a(S'sa'
p96
(dp97
S'PRON'
p98
F1.0
s(lp99
tp100
a(S'l\xc3\xa2chet\xc3\xa9'
p101
(dp102
S'NOUN'
p103
F1.0
s(lp104
(S'cowardly'
p105
I16
tp106
atp107
a(g35
(dp108
g35
F1.0
s(lp109
(g35
I17
tp110
atp111
asS'en'
p112
(lp113
(g8
(dp114
S'ADV'
p115
F0.002156
sS'PRT'
p116
F0.0
sS'ADP'
p117
F0.997844
s(lp118
(g8
I0
tp119
atp120
a(g15
(dp121
S'VERB'
p122
F0.498518
sS'NOUN'
p123
F0.501482
s(lp124
(g15
I1
tp125
atp126
a(g23
(dp127
S'ADV'
p128
F0.000251
sS'ADJ'
p129
F0.010529
sS'VERB'
p130
F0.00165
sS'NOUN'
p131
F0.98757
s(lp132
(g23
I2
tp133
atp134
a(g30
(dp135
S'ADV'
p136
F0.000598
sS'ADJ'
p137
F0.000172
sS'VERB'
p138
F0.0010960000000000002
sS'NOUN'
p139
F0.9981329999999999
s(lp140
(g30
I3
tp141
atp142
a(g33
(dp143
g35
F1.0
s(lp144
(g33
I4
tp145
atp146
a(g44
(dp147
S'NOUN'
p148
F2e-06
sS'DET'
p149
F0.999998
s(lp150
(g44
I5
tp151
atp152
a(g58
(dp153
S'NOUN'
p154
F0.157878
sS'ADJ'
p155
F0.842123
s(lp156
(g58
I6
tp157
atp158
a(g51
(dp159
S'NOUN'
p160
F1.0
s(lp161
(g51
I7
tp162
atp163
a(g65
(dp164
S'VERB'
p165
F1.0
s(lp166
(g65
I8
tp167
atp168
a(g72
(dp169
S'VERB'
p170
F1.0
s(lp171
(g72
I9
tp172
atp173
a(S'that'
p174
(dp175
S'ADV'
p176
F0.000526
sS'DET'
p177
F0.049202
sS'ADP'
p178
F0.950272
s(lp179
(g174
I10
tp180
atp181
a(g79
(dp182
S'PRON'
p183
F1.0
s(lp184
(g79
I11
tp185
atp186
a(S'is'
p187
(dp188
S'VERB'
p189
F1.0
s(lp190
(g187
I12
tp191
atp192
a(S'essentially'
p193
(dp194
S'ADV'
p195
F1.0
s(lp196
(g193
I13
tp197
atp198
a(g86
(dp199
S'ADJ'
p200
F1.0
s(lp201
(g86
I14
tp202
atp203
a(g93
(dp204
S'CONJ'
p205
F0.999998
sS'NOUN'
p206
F2e-06
s(lp207
(g93
I15
tp208
atp209
a(g105
(dp210
S'ADJ'
p211
F1.0
s(lp212
(g105
I16
tp213
atp214
a(g35
(dp215
g35
F1.0
s(lp216
(g35
I17
tp217
atp218
asS'nl'
p219
(lp220
(S'door'
p221
(dp222
S'ADV'
p223
F4e-06
sS'CONJ'
p224
F0.000142
sS'ADP'
p225
F0.999854
s(lp226
(g8
I0
tp227
atp228
a(S'de'
p229
(dp230
S'DET'
p231
F1.0
s(lp232
tp233
a(S'veroordeling'
p234
(dp235
S'NOUN'
p236
F1.0
s(lp237
(g15
I1
tp238
atp239
a(S'van'
p240
(dp241
S'ADP'
p242
F1.0
s(lp243
tp244
a(S'roxane'
p245
(dp246
S'NOUN'
p247
F0.22286899999999998
sS'ADJ'
p248
F0.77713
s(lp249
(g23
I2
tp250
atp251
a(S'saberi'
p252
(dp253
S'NOUN'
p254
F1.0
s(lp255
(g30
I3
tp256
atp257
a(S'heeft'
p258
(dp259
S'VERB'
p260
F1.0
s(lp261
(g33
I4
tp262
atp263
a(S'het'
p264
(dp265
S'PRON'
p266
F0.15445799999999998
sS'DET'
p267
F0.845542
s(lp268
(g44
I5
tp269
atp270
a(S'iraanse'
p271
(dp272
S'NOUN'
p273
F0.269312
sS'ADJ'
p274
F0.730688
s(lp275
(g58
I6
tp276
atp277
a(S'regime'
p278
(dp279
S'NOUN'
p280
F1.0
s(lp281
(g51
I7
tp282
atp283
a(S'aangetoond'
p284
(dp285
S'VERB'
p286
F1.0
s(lp287
(g72
I9
tp288
atp289
a(S'dat'
p290
(dp291
S'PRON'
p292
F0.10489000000000001
sS'CONJ'
p293
F0.89511
s(lp294
(g174
I10
tp295
atp296
a(S'het'
p297
(dp298
S'PRON'
p299
F0.092339
sS'DET'
p300
F0.90766
s(lp301
(g79
I11
tp302
atp303
a(S'eigenlijk'
p304
(dp305
S'ADJ'
p306
F1.0
s(lp307
(g193
I13
tp308
atp309
a(S'zwak'
p310
(dp311
S'NOUN'
p312
F0.160629
sS'ADJ'
p313
F0.839371
s(lp314
(g86
I14
tp315
atp316
a(S'en'
p317
(dp318
S'CONJ'
p319
F1.0
s(lp320
(g93
I15
tp321
atp322
a(S'laf'
p323
(dp324
S'ADJ'
p325
F1.0
s(lp326
(g105
I16
tp327
atp328
a(S'is'
p329
(dp330
S'VERB'
p331
F1.0
s(lp332
(g187
I12
tp333
atp334
a(g35
(dp335
g35
F1.0
s(lp336
(g35
I17
tp337
atp338
asS'de'
p339
(lp340
(S'mit'
p341
(dp342
S'PRT'
p343
F8e-06
sS'ADP'
p344
F0.999992
s(lp345
(g8
I0
tp346
atp347
a(S'der'
p348
(dp349
S'PRON'
p350
F1.6e-05
sS'DET'
p351
F0.999979
s(lp352
tp353
a(S'verurteilung'
p354
(dp355
S'ADJ'
p356
F0.000152
sS'NOUN'
p357
F0.999738
s(lp358
(g15
I1
tp359
atp360
a(S'von'
p361
(dp362
S'NOUN'
p363
F0.004468
sS'ADP'
p364
F0.995532
s(lp365
tp366
a(S'roxana'
p367
(dp368
S'NOUN'
p369
F0.999308
s(lp370
(g23
I2
tp371
atp372
a(S'saberi'
p373
(dp374
S'NOUN'
p375
F0.999236
s(lp376
(g30
I3
tp377
atp378
a(S'hat'
p379
(dp380
S'VERB'
p381
F1.0
s(lp382
(g33
I4
tp383
atp384
a(S'das'
p385
(dp386
S'PRON'
p387
F0.07626
sS'DET'
p388
F0.923739
s(lp389
(g44
I5
tp390
atp391
a(S'iranische'
p392
(dp393
S'ADJ'
p394
F1.0
s(lp395
(g58
I6
tp396
atp397
a(S'regime'
p398
(dp399
S'ADJ'
p400
F0.004419
sS'NOUN'
p401
F0.993584
s(lp402
(g51
I7
tp403
atp404
a(S'bewiesen'
p405
(dp406
S'VERB'
p407
F1.0
s(lp408
(g72
I9
tp409
atp410
a(g33
(dp411
g35
F1.0
s(lp412
tp413
a(S'dass'
p414
(dp415
S'CONJ'
p416
F1.0
s(lp417
(g174
I10
tp418
atp419
a(S'es'
p420
(dp421
S'PRON'
p422
F1.0
s(lp423
(g79
I11
tp424
atp425
a(S'in'
p426
(dp427
S'ADP'
p428
F1.0
s(lp429
tp430
a(S'wirklichkeit'
p431
(dp432
S'ADJ'
p433
F0.193102
sS'NOUN'
p434
F0.779693
s(lp435
(g193
I13
tp436
atp437
a(S'schwach'
p438
(dp439
S'ADJ'
p440
F1.0
s(lp441
(g86
I14
tp442
atp443
a(S'und'
p444
(dp445
S'CONJ'
p446
F1.0
s(lp447
(g93
I15
tp448
atp449
a(S'feige'
p450
(dp451
S'ADJ'
p452
F1.0
s(lp453
(g105
I16
tp454
atp455
a(S'ist'
p456
(dp457
S'VERB'
p458
F1.0
s(lp459
(g187
I12
tp460
atp461
a(g35
(dp462
g35
F1.0
s(lp463
(g35
I17
tp464
atp465
asS'it'
p466
(lp467
(S'nel'
p468
(dp469
S'ADP'
p470
F1.0
s(lp471
(g8
I0
tp472
atp473
a(S'condannare'
p474
(dp475
S'VERB'
p476
F1.0
s(lp477
(g15
I1
tp478
atp479
a(S'roxana'
p480
(dp481
S'NOUN'
p482
F1.0
s(lp483
(g23
I2
tp484
atp485
a(S'saberi'
p486
(dp487
S'NOUN'
p488
F0.062268
sS'VERB'
p489
F0.026152
sS'ADJ'
p490
F0.91158
s(lp491
(g30
I3
tp492
atp493
a(g33
(dp494
g35
F1.0
s(lp495
(g33
I4
tp496
atp497
a(S'il'
p498
(dp499
S'DET'
p500
F1.0
s(lp501
(g44
I5
tp502
atp503
a(S'regime'
p504
(dp505
S'NOUN'
p506
F1.0
s(lp507
(g51
I7
tp508
atp509
a(S'iraniano'
p510
(dp511
S'NOUN'
p512
F0.0153
sS'ADJ'
p513
F0.9847
s(lp514
(g58
I6
tp515
atp516
a(S'ha'
p517
(dp518
S'VERB'
p519
F1.0
s(lp520
(g65
I8
tp521
atp522
a(S'dimostrato'
p523
(dp524
S'VERB'
p525
F1.0
s(lp526
(g72
I9
tp527
atp528
a(S'di'
p529
(dp530
S'CONJ'
p531
F2e-06
sS'ADP'
p532
F0.999998
s(lp533
tp534
a(S'essere'
p535
(dp536
S'VERB'
p537
F0.999696
sS'NOUN'
p538
F0.000304
s(lp539
(g187
I12
tp540
atp541
a(S'essenzialmente'
p542
(dp543
S'ADV'
p544
F1.0
s(lp545
(g193
I13
tp546
atp547
a(S'debole'
p548
(dp549
S'NOUN'
p550
F0.034956
sS'ADJ'
p551
F0.965044
s(lp552
(g86
I14
tp553
atp554
a(S'e'
p555
(dp556
S'CONJ'
p557
F1.0
s(lp558
(g93
I15
tp559
atp560
a(S'codardo'
p561
(dp562
S'NOUN'
p563
F0.083244
sS'ADJ'
p564
F0.916756
s(lp565
(g105
I16
tp566
atp567
a(g35
(dp568
g35
F1.0
s(lp569
(g35
I17
tp570
atp571
asS'sk'
p572
(lp573
(S'ods\xc3\xbaden\xc3\xadm'
p574
(dp575
S'NOUN'
p576
F1.0
s(lp577
(g15
I1
tp578
atp579
a(S'roxany'
p580
(dp581
S'X'
p582
F0.000134
sS'VERB'
p583
F0.023333999999999994
sS'NOUN'
p584
F0.976531
s(lp585
(g23
I2
tp586
atp587
a(S'saberiovej'
p588
(dp589
S'NOUN'
p590
F0.006333
sS'ADJ'
p591
F0.993667
s(lp592
(g30
I3
tp593
atp594
a(S'ir\xc3\xa1nsky'
p595
(dp596
S'ADJ'
p597
F1.0
s(lp598
(g58
I6
tp599
atp600
a(S're\xc5\xbeim'
p601
(dp602
S'NOUN'
p603
F1.0
s(lp604
(g51
I7
tp605
atp606
a(S'dok\xc3\xa1zal'
p607
(dp608
S'VERB'
p609
F0.9999990000000001
s(lp610
(g72
I9
tp611
atp612
a(g33
(dp613
g35
F1.0
s(lp614
(g33
I4
tp615
atp616
a(S'\xc5\xbee'
p617
(dp618
g582
F0.001181
sS'CONJ'
p619
F0.998818
s(lp620
(g174
I10
tp621
atp622
a(S'je'
p623
(dp624
S'PRON'
p625
F5e-05
sS'VERB'
p626
F0.999913
sg582
F3.8e-05
s(lp627
(g187
I12
tp628
atp629
a(S'v'
p630
(dp631
g582
F0.000469
sS'ADP'
p632
F0.99953
s(lp633
tp634
a(S'podstate'
p635
(dp636
S'NOUN'
p637
F1.0
s(lp638
(g193
I13
tp639
atp640
a(S'slab\xc3\xbd'
p641
(dp642
S'ADJ'
p643
F1.0
s(lp644
(g86
I14
tp645
atp646
a(g61
(dp647
g582
F0.000636
sS'CONJ'
p648
F0.997733
sS'NOUN'
p649
F0.001516
sS'ADP'
p650
F0.000109
sS'PRT'
p651
F5e-06
s(lp652
(g93
I15
tp653
atp654
a(S'zbabel\xc3\xbd'
p655
(dp656
S'ADJ'
p657
F1.0
s(lp658
(g105
I16
tp659
atp660
a(g35
(dp661
g35
F1.0
s(lp662
(g35
I17
tp663
atp664
asS'pl'
p665
(lp666
(S'skazuj\xc4\x85c'
p667
(dp668
S'VERB'
p669
F1.0
s(lp670
(g15
I1
tp671
atp672
a(S'roxan\xc4\x99'
p673
(dp674
S'ADJ'
p675
F5e-06
sS'VERB'
p676
F0.00038
sS'NOUN'
p677
F0.999615
s(lp678
tp679
a(S'saberi'
p680
(dp681
S'ADV'
p682
F7.4e-05
sS'ADJ'
p683
F0.00022
sS'VERB'
p684
F0.000637
sS'NOUN'
p685
F0.9990529999999999
sg582
F1.6e-05
s(lp686
(g30
I3
tp687
atp688
a(g33
(dp689
g582
F0.0
sg35
F1.0
s(lp690
(g33
I4
tp691
atp692
a(S're\xc5\xbcim'
p693
(dp694
S'NOUN'
p695
F1.0
s(lp696
(g51
I7
tp697
atp698
a(S'ira\xc5\x84ski'
p699
(dp700
S'ADV'
p701
F0.000255
sS'ADJ'
p702
F0.12971999999999997
sS'VERB'
p703
F6.9e-05
sS'NOUN'
p704
F0.8699519999999998
s(lp705
(g58
I6
tp706
atp707
a(S'zademonstrowa\xc5\x82'
p708
(dp709
S'VERB'
p710
F0.999999
s(lp711
(g72
I9
tp712
atp713
a(S'swoj\xc4\x85'
p714
(dp715
S'ADJ'
p716
F1.0
s(lp717
(g23
I2
tp718
atp719
a(S's\xc5\x82abo\xc5\x9b\xc4\x87'
p720
(dp721
S'NOUN'
p722
F1.0
s(lp723
(g86
I14
tp724
atp725
a(S'i'
p726
(dp727
S'PRT'
p728
F0.001174
sS'CONJ'
p729
F0.998786
sS'PRON'
p730
F2e-06
sS'NOUN'
p731
F3.2e-05
sg582
F6e-06
s(lp732
(g93
I15
tp733
atp734
a(S'boja\xc5\xbaliwo\xc5\x9b\xc4\x87'
p735
(dp736
S'VERB'
p737
F0.49219300000000005
sS'NOUN'
p738
F0.507807
s(lp739
(g105
I16
tp740
atp741
a(g35
(dp742
g35
F1.0
s(lp743
(g35
I17
tp744
atp745
asS'sl'
p746
(lp747
(S'iranski'
p748
(dp749
S'ADJ'
p750
F1.0
s(lp751
(g58
I6
tp752
atp753
a(S're\xc5\xbeim'
p754
(dp755
S'NOUN'
p756
F1.0
s(lp757
(g51
I7
tp758
atp759
a(S'je'
p760
(dp761
S'PRON'
p762
F0.000157
sS'VERB'
p763
F0.999822
sg582
F2.1e-05
s(lp764
(g65
I8
tp765
atp766
a(S'z'
p767
(dp768
S'ADP'
p769
F1.0
s(lp770
(g8
I0
tp771
atp772
a(S'obsodbo'
p773
(dp774
S'ADJ'
p775
F0.0018080000000000001
sS'NOUN'
p776
F0.998192
s(lp777
(g15
I1
tp778
atp779
a(S'roxane'
p780
(dp781
S'ADV'
p782
F0.000683
sS'NOUN'
p783
F0.19301199999999996
sS'VERB'
p784
F0.065408
sS'ADJ'
p785
F0.7408980000000003
s(lp786
(g23
I2
tp787
atp788
a(S'saberi'
p789
(dp790
S'ADV'
p791
F0.071011
sS'ADJ'
p792
F0.00323
sS'VERB'
p793
F0.004248
sS'NOUN'
p794
F0.921378
sS'PRON'
p795
F0.000133
s(lp796
(g30
I3
tp797
atp798
a(S'dokazal'
p799
(dp800
S'VERB'
p801
F1.0
s(lp802
(g72
I9
tp803
atp804
a(g33
(dp805
g35
F1.0
s(lp806
(g33
I4
tp807
atp808
a(S'da'
p809
(dp810
S'PRT'
p811
F4e-06
sS'CONJ'
p812
F0.999979
sS'VERB'
p813
F1.7e-05
sg582
F1e-06
s(lp814
(g174
I10
tp815
atp816
a(S'je'
p817
(dp818
S'PRON'
p819
F0.002422
sS'VERB'
p820
F0.997576
sg582
F1e-06
s(lp821
(g187
I12
tp822
atp823
a(g630
(dp824
S'ADP'
p825
F1.0
s(lp826
tp827
a(S'bistvu'
p828
(dp829
S'NOUN'
p830
F1.0
s(lp831
(g193
I13
tp832
atp833
a(S'\xc5\xa1ibak'
p834
(dp835
S'ADV'
p836
F0.000882
sS'ADJ'
p837
F0.002507
sS'VERB'
p838
F0.001183
sS'NOUN'
p839
F0.9954279999999999
s(lp840
(g86
I14
tp841
atp842
a(S'in'
p843
(dp844
S'ADV'
p845
F0.000275
sg582
F0.000218
sS'CONJ'
p846
F0.999392
sS'NOUN'
p847
F0.000115
s(lp848
(g93
I15
tp849
atp850
a(S'strahopeten'
p851
(dp852
S'ADV'
p853
F0.007468
sS'NOUN'
p854
F0.08927400000000002
sS'VERB'
p855
F0.008111000000000002
sS'ADJ'
p856
F0.8948739999999998
sg582
F0.000277
s(lp857
(g105
I16
tp858
atp859
a(g35
(dp860
g35
F1.0
s(lp861
(g35
I17
tp862
atp863
asS'es'
p864
(lp865
(S'al'
p866
(dp867
S'CONJ'
p868
F0.995231
sS'ADP'
p869
F0.004769
s(lp870
(g8
I0
tp871
atp872
a(S'condenar'
p873
(dp874
S'VERB'
p875
F1.0
s(lp876
(g15
I1
tp877
atp878
a(g61
(dp879
g582
F0.000829
sS'CONJ'
p880
F0.000137
sS'ADP'
p881
F0.999034
s(lp882
tp883
a(S'roxana'
p884
(dp885
S'NOUN'
p886
F1.0
s(lp887
(g23
I2
tp888
atp889
a(S'saberi'
p890
(dp891
S'VERB'
p892
F0.901414
sS'NOUN'
p893
F0.09858499999999999
s(lp894
(g30
I3
tp895
atp896
a(g33
(dp897
g35
F1.0
s(lp898
(g33
I4
tp899
atp900
a(S'el'
p901
(dp902
S'PRON'
p903
F1e-05
sS'DET'
p904
F0.99999
s(lp905
(g44
I5
tp906
atp907
a(S'r\xc3\xa9gimen'
p908
(dp909
S'NOUN'
p910
F1.0
s(lp911
(g51
I7
tp912
atp913
a(S'iran\xc3\xad'
p914
(dp915
S'NOUN'
p916
F0.009964
sS'ADJ'
p917
F0.990036
s(lp918
(g58
I6
tp919
atp920
a(S'ha'
p921
(dp922
S'VERB'
p923
F1.0
s(lp924
(g65
I8
tp925
atp926
a(S'demostrado'
p927
(dp928
S'VERB'
p929
F1.0
s(lp930
(g72
I9
tp931
atp932
a(S'que'
p933
(dp934
g582
F0.0
sS'CONJ'
p935
F1.0
s(lp936
(g174
I10
tp937
atp938
a(S'es'
p939
(dp940
S'VERB'
p941
F1.0
s(lp942
(g187
I12
tp943
atp944
a(S'b\xc3\xa1sicamente'
p945
(dp946
S'ADV'
p947
F1.0
s(lp948
(g193
I13
tp949
atp950
a(S'd\xc3\xa9bil'
p951
(dp952
S'ADJ'
p953
F1.0
s(lp954
(g86
I14
tp955
atp956
a(S'y'
p957
(dp958
g582
F0.000656
sS'CONJ'
p959
F0.999344
s(lp960
(g93
I15
tp961
atp962
a(S'cobarde'
p963
(dp964
S'ADJ'
p965
F1.0
s(lp966
(g105
I16
tp967
atp968
a(g35
(dp969
g35
F1.0
s(lp970
(g35
I17
tp971
atp972
as.