(dp0
S'fr'
p1
(lp2
(S"c'"
p3
(dp4
S'ADJ'
p5
F0.079749
sS'VERB'
p6
F0.5393100000000001
sS'NOUN'
p7
F0.380941
s(lp8
(S'this'
p9
I0
tp10
atp11
a(S'est'
p12
(dp13
S'VERB'
p14
F0.999313
sS'NOUN'
p15
F0.000687
s(lp16
(S'is'
p17
I1
tp18
atp19
a(S'pourquoi'
p20
(dp21
S'ADV'
p22
F0.997324
sS'NOUN'
p23
F0.002676
s(lp24
(S'why'
p25
I2
tp26
atp27
a(S'nous'
p28
(dp29
S'PRON'
p30
F1.0
s(lp31
(S'we'
p32
I3
tp33
atp34
a(S'ne'
p35
(dp36
S'ADV'
p37
F1.0
s(lp38
(S'cannot'
p39
I4
tp40
atp41
a(S'pouvons'
p42
(dp43
S'VERB'
p44
F1.0
s(lp45
tp46
a(S'pas'
p47
(dp48
S'ADV'
p49
F0.999903
sS'NOUN'
p50
F9.7e-05
s(lp51
(g39
I4
tp52
atp53
a(S'soutenir'
p54
(dp55
S'VERB'
p56
F1.0
s(lp57
(S'support'
p58
I5
tp59
atp60
a(S'cette'
p61
(dp62
S'PRON'
p63
F1.0
s(lp64
(S'this'
p65
I6
tp66
atp67
a(S'mesure'
p68
(dp69
S'VERB'
p70
F0.017059
sS'NOUN'
p71
F0.982941
s(lp72
(S'measure'
p73
I7
tp74
atp75
a(S'.'
p76
(dp77
g76
F1.0
s(lp78
(g76
I8
tp79
atp80
asS'en'
p81
(lp82
(g9
(dp83
S'ADV'
p84
F0.000523
sS'NOUN'
p85
F0.000215
sS'DET'
p86
F0.999263
s(lp87
(g9
I0
tp88
atp89
a(g17
(dp90
S'VERB'
p91
F1.0
s(lp92
(g17
I1
tp93
atp94
a(g25
(dp95
S'ADV'
p96
F0.999999
sS'NOUN'
p97
F1e-06
s(lp98
(g25
I2
tp99
atp100
a(g32
(dp101
S'PRON'
p102
F1.0
s(lp103
(g32
I3
tp104
atp105
a(g39
(dp106
S'VERB'
p107
F1.0
s(lp108
(g39
I4
tp109
atp110
a(g58
(dp111
S'VERB'
p112
F0.999993
sS'NOUN'
p113
F7e-06
s(lp114
(g58
I5
tp115
atp116
a(g65
(dp117
S'ADV'
p118
F1.2e-05
sS'NOUN'
p119
F1.4e-05
sS'DET'
p120
F0.999974
s(lp121
(g65
I6
tp122
atp123
a(g73
(dp124
S'VERB'
p125
F0.00018800000000000002
sS'NOUN'
p126
F0.999812
s(lp127
(g73
I7
tp128
atp129
a(g76
(dp130
g76
F1.0
s(lp131
(g76
I8
tp132
atp133
asS'nl'
p134
(lp135
(S'wij'
p136
(dp137
S'PRON'
p138
F1.0
s(lp139
(g32
I3
tp140
atp141
a(S'kunnen'
p142
(dp143
S'VERB'
p144
F1.0
sS'NOUN'
p145
F0.0
s(lp146
tp147
a(S'deze'
p148
(dp149
S'PRON'
p150
F1.0
s(lp151
(g65
I6
tp152
atp153
a(S'maatregel'
p154
(dp155
S'NOUN'
p156
F1.0
s(lp157
(g73
I7
tp158
atp159
a(S'daarom'
p160
(dp161
S'ADV'
p162
F1.0
s(lp163
(g25
I2
tp164
atp165
a(S'niet'
p166
(dp167
S'ADV'
p168
F0.999951
sS'PRON'
p169
F3.5e-05
sS'VERB'
p170
F1.3e-05
sS'X'
p171
F0.0
s(lp172
(g39
I4
tp173
atp174
a(S'steunen'
p175
(dp176
S'VERB'
p177
F0.951607
sS'NOUN'
p178
F0.048392000000000004
s(lp179
(g58
I5
tp180
atp181
a(g76
(dp182
g76
F1.0
s(lp183
(g76
I8
tp184
atp185
asS'de'
p186
(lp187
(S'deshalb'
p188
(dp189
S'ADV'
p190
F1.0
s(lp191
(g25
I2
tp192
atp193
a(S'k\xc3\xb6nnen'
p194
(dp195
S'VERB'
p196
F0.9994500000000001
s(lp197
tp198
a(S'wir'
p199
(dp200
S'PRON'
p201
F1.0
s(lp202
(g32
I3
tp203
atp204
a(S'dieser'
p205
(dp206
S'PRON'
p207
F1.0
s(lp208
(g65
I6
tp209
atp210
a(S'ma\xc3\x9fnahme'
p211
(dp212
S'ADJ'
p213
F0.000313
sS'NOUN'
p214
F0.999361
s(lp215
(g73
I7
tp216
atp217
a(S'nicht'
p218
(dp219
S'PRT'
p220
F1.0
s(lp221
(g39
I4
tp222
atp223
a(S'zustimmen'
p224
(dp225
S'VERB'
p226
F1.0
s(lp227
(g58
I5
tp228
atp229
a(g76
(dp230
g76
F1.0
s(lp231
(g76
I8
tp232
atp233
asS'it'
p234
(lp235
(S'per'
p236
(dp237
S'CONJ'
p238
F0.034452
sS'ADP'
p239
F0.965548
s(lp240
tp241
a(S'questo'
p242
(dp243
S'PRON'
p244
F1.0
s(lp245
(g25
I2
tp246
atp247
a(S'non'
p248
(dp249
S'ADV'
p250
F1.0
s(lp251
tp252
a(S'possiamo'
p253
(dp254
S'VERB'
p255
F0.999999
s(lp256
(g39
I4
tp257
atp258
a(S'appoggiare'
p259
(dp260
S'VERB'
p261
F1.0
s(lp262
(g58
I5
tp263
atp264
a(S'la'
p265
(dp266
S'PRON'
p267
F8e-06
sS'DET'
p268
F0.999992
s(lp269
tp270
a(S'presente'
p271
(dp272
S'NOUN'
p273
F0.016651
sS'VERB'
p274
F0.001294
sS'ADJ'
p275
F0.982055
s(lp276
(g65
I6
tp277
atp278
a(S'misura'
p279
(dp280
S'VERB'
p281
F0.0013399999999999998
sS'NOUN'
p282
F0.99866
s(lp283
(g73
I7
tp284
atp285
a(g76
(dp286
g76
F1.0
s(lp287
(g76
I8
tp288
atp289
asS'sk'
p290
(lp291
(S'preto'
p292
(dp293
S'PRON'
p294
F0.893955
sS'CONJ'
p295
F0.096114
sg171
F0.009931
s(lp296
(g25
I2
tp297
atp298
a(S'nem\xc3\xb4\xc5\xbeeme'
p299
(dp300
S'VERB'
p301
F1.0
s(lp302
(g39
I4
tp303
atp304
a(S'toto'
p305
(dp306
S'PRON'
p307
F0.999998
sg171
F2e-06
s(lp308
(g65
I6
tp309
atp310
a(S'opatrenie'
p311
(dp312
S'NOUN'
p313
F1.0
s(lp314
(g73
I7
tp315
atp316
a(S'podpori\xc5\xa5'
p317
(dp318
S'VERB'
p319
F1.0
s(lp320
(g58
I5
tp321
atp322
a(g76
(dp323
g76
F1.0
s(lp324
(g76
I8
tp325
atp326
asS'pl'
p327
(lp328
(S'dlatego'
p329
(dp330
S'ADV'
p331
F1.0
s(lp332
tp333
a(S'te\xc5\xbc'
p334
(dp335
S'PRT'
p336
F0.991925
sS'CONJ'
p337
F0.008075
s(lp338
(g25
I2
tp339
atp340
a(S'nie'
p341
(dp342
S'ADV'
p343
F2.3e-05
sS'PRT'
p344
F0.997613
sS'CONJ'
p345
F0.002354
sS'NOUN'
p346
F7e-06
sS'PRON'
p347
F1e-06
s(lp348
tp349
a(S'mo\xc5\xbcemy'
p350
(dp351
S'VERB'
p352
F1.0
s(lp353
(g39
I4
tp354
atp355
a(S'poprze\xc4\x87'
p356
(dp357
S'VERB'
p358
F1.0
s(lp359
(g58
I5
tp360
atp361
a(S'tego'
p362
(dp363
S'NOUN'
p364
F0.078197
sS'ADJ'
p365
F0.9211289999999999
sS'PRT'
p366
F2.6e-05
sg171
F0.000648
s(lp367
(g65
I6
tp368
atp369
a(S'\xc5\x9brodka'
p370
(dp371
S'NOUN'
p372
F1.0
s(lp373
(g73
I7
tp374
atp375
a(g76
(dp376
g76
F1.0
s(lp377
(g76
I8
tp378
atp379
asS'sl'
p380
(lp381
(S'zato'
p382
(dp383
S'ADV'
p384
F0.425667
sS'CONJ'
p385
F0.574333
s(lp386
(g25
I2
tp387
atp388
a(S'ne'
p389
(dp390
S'PRT'
p391
F0.998566
sS'CONJ'
p392
F0.001419
sg171
F1.6e-05
s(lp393
tp394
a(S'moremo'
p395
(dp396
S'VERB'
p397
F1.0
s(lp398
(g39
I4
tp399
atp400
a(S'podpreti'
p401
(dp402
S'VERB'
p403
F1.0
s(lp404
(g58
I5
tp405
atp406
a(S'tega'
p407
(dp408
S'PRON'
p409
F1.0
s(lp410
(g65
I6
tp411
atp412
a(S'ukrepa'
p413
(dp414
S'VERB'
p415
F0.035156
sS'NOUN'
p416
F0.964844
s(lp417
(g73
I7
tp418
atp419
a(g76
(dp420
g76
F1.0
s(lp421
(g76
I8
tp422
atp423
asS'es'
p424
(lp425
(S'por'
p426
(dp427
S'ADP'
p428
F1.0
s(lp429
tp430
a(S'eso'
p431
(dp432
S'PRON'
p433
F1.0
s(lp434
(g25
I2
tp435
atp436
a(S'no'
p437
(dp438
S'ADV'
p439
F1.0
sg171
F0.0
s(lp440
tp441
a(S'podemos'
p442
(dp443
S'VERB'
p444
F1.0
s(lp445
(g39
I4
tp446
atp447
a(S'apoyar'
p448
(dp449
S'VERB'
p450
F1.0
s(lp451
(g58
I5
tp452
atp453
a(S'esta'
p454
(dp455
S'PRON'
p456
F0.999998
sS'VERB'
p457
F2e-06
s(lp458
(g65
I6
tp459
atp460
a(S'medida'
p461
(dp462
S'VERB'
p463
F0.003172
sS'NOUN'
p464
F0.996828
s(lp465
(g73
I7
tp466
atp467
a(g76
(dp468
g76
F1.0
s(lp469
(g76
I8
tp470
atp471
as.