(dp0
S'fr'
p1
(lp2
(S'les'
p3
(dp4
S'PRON'
p5
F0.000397
sS'DET'
p6
F0.99958
sS'ADP'
p7
F2.3e-05
s(lp8
tp9
a(S'services'
p10
(dp11
S'NOUN'
p12
F1.0
s(lp13
(S'services'
p14
I0
tp15
atp16
a(S'fournis'
p17
(dp18
S'VERB'
p19
F0.9346479999999999
sS'ADJ'
p20
F0.065351
s(lp21
(S'provided'
p22
I1
tp23
atp24
a(S'par'
p25
(dp26
S'NOUN'
p27
F5e-06
sS'ADP'
p28
F0.999995
s(lp29
(S'by'
p30
I2
tp31
atp32
a(S"l'"
p33
(dp34
S'ADJ'
p35
F0.160705
sS'VERB'
p36
F0.06481199999999998
sS'NOUN'
p37
F0.774484
s(lp38
tp39
a(S'agriculture'
p40
(dp41
S'NOUN'
p42
F1.0
s(lp43
(S'agriculture'
p44
I3
tp45
atp46
a(S'doivent'
p47
(dp48
S'VERB'
p49
F1.0
s(lp50
(S'must'
p51
I4
tp52
atp53
a(S'donc'
p54
(dp55
S'ADV'
p56
F1.0
s(lp57
(S'therefore'
p58
I5
tp59
atp60
a(S'\xc3\xaatre'
p61
(dp62
S'VERB'
p63
F0.998925
sS'NOUN'
p64
F0.001075
s(lp65
(S'be'
p66
I6
tp67
atp68
a(S'r\xc3\xa9compens\xc3\xa9s'
p69
(dp70
S'VERB'
p71
F1.0
s(lp72
(S'recompensed'
p73
I7
tp74
atp75
a(S'par'
p76
(dp77
S'NOUN'
p78
F4e-06
sS'ADP'
p79
F0.999996
s(lp80
(S'by'
p81
I8
tp82
atp83
a(S'des'
p84
(dp85
S'DET'
p86
F0.00067
sS'ADP'
p87
F0.99933
s(lp88
tp89
a(S'prix'
p90
(dp91
S'NOUN'
p92
F1.0
s(lp93
(S'prices'
p94
I11
tp95
atp96
a(S'\xc3\xa9quitables'
p97
(dp98
S'ADJ'
p99
F1.0
s(lp100
tp101
a(S'des'
p102
(dp103
S'DET'
p104
F2.2e-05
sS'ADP'
p105
F0.999978
s(lp106
(S'fair'
p107
I9
tp108
atp109
a(S'produits'
p110
(dp111
S'VERB'
p112
F0.003314
sS'NOUN'
p113
F0.996686
s(lp114
(S'product'
p115
I10
tp116
atp117
a(S'.'
p118
(dp119
g118
F1.0
s(lp120
(g118
I12
tp121
atp122
asS'en'
p123
(lp124
(g14
(dp125
S'VERB'
p126
F0.000315
sS'NOUN'
p127
F0.999685
s(lp128
(g14
I0
tp129
atp130
a(g22
(dp131
S'VERB'
p132
F1.0
s(lp133
(g22
I1
tp134
atp135
a(g30
(dp136
S'ADV'
p137
F0.000141
sS'NOUN'
p138
F1e-06
sS'ADP'
p139
F0.999858
s(lp140
(g30
I2
tp141
atp142
a(g44
(dp143
S'NOUN'
p144
F1.0
s(lp145
(g44
I3
tp146
atp147
a(g51
(dp148
S'VERB'
p149
F0.999994
sS'NOUN'
p150
F6e-06
s(lp151
(g51
I4
tp152
atp153
a(g58
(dp154
S'ADV'
p155
F1.0
s(lp156
(g58
I5
tp157
atp158
a(g66
(dp159
S'VERB'
p160
F1.0
s(lp161
(g66
I6
tp162
atp163
a(g73
(dp164
S'VERB'
p165
F1.0
s(lp166
(g73
I7
tp167
atp168
a(g81
(dp169
S'ADV'
p170
F0.000465
sS'NOUN'
p171
F0.0
sS'ADP'
p172
F0.999535
s(lp173
(g81
I8
tp174
atp175
a(g107
(dp176
S'ADV'
p177
F0.000142
sS'NOUN'
p178
F0.012044
sS'VERB'
p179
F3e-06
sS'ADJ'
p180
F0.987811
s(lp181
(g107
I9
tp182
atp183
a(g115
(dp184
S'NOUN'
p185
F1.0
s(lp186
(g115
I10
tp187
atp188
a(g94
(dp189
S'VERB'
p190
F0.000234
sS'NOUN'
p191
F0.999766
s(lp192
(g94
I11
tp193
atp194
a(g118
(dp195
g118
F1.0
s(lp196
(g118
I12
tp197
atp198
asS'nl'
p199
(lp200
(S'de'
p201
(dp202
S'DET'
p203
F1.0
s(lp204
tp205
a(S'inzet'
p206
(dp207
S'VERB'
p208
F0.000156
sS'NOUN'
p209
F0.999844
s(lp210
tp211
a(S'van'
p212
(dp213
S'ADP'
p214
F1.0
s(lp215
(g30
I2
tp216
atp217
a(S'de'
p218
(dp219
S'DET'
p220
F1.0
s(lp221
tp222
a(S'landbouw'
p223
(dp224
S'NOUN'
p225
F1.0
s(lp226
(g44
I3
tp227
atp228
a(S'moet'
p229
(dp230
S'VERB'
p231
F1.0
s(lp232
(g51
I4
tp233
atp234
a(S'daarom'
p235
(dp236
S'ADV'
p237
F1.0
s(lp238
(g58
I5
tp239
atp240
a(S'worden'
p241
(dp242
S'VERB'
p243
F0.999998
sS'NOUN'
p244
F2e-06
s(lp245
(g66
I6
tp246
atp247
a(S'beloond'
p248
(dp249
S'VERB'
p250
F1.0
s(lp251
(g73
I7
tp252
atp253
a(S'door'
p254
(dp255
S'ADV'
p256
F1e-06
sS'CONJ'
p257
F1.6e-05
sS'ADP'
p258
F0.999984
s(lp259
(g81
I8
tp260
atp261
a(S'eerlijke'
p262
(dp263
S'NOUN'
p264
F0.000505
sS'ADJ'
p265
F0.999495
s(lp266
(g107
I9
tp267
atp268
a(S'productprijzen'
p269
(dp270
S'NOUN'
p271
F1.0
s(lp272
(g115
I10
tp273
atp274
a(g118
(dp275
g118
F1.0
s(lp276
(g118
I12
tp277
atp278
asS'de'
p279
(lp280
(S'leistungen'
p281
(dp282
S'ADJ'
p283
F0.248514
sS'NOUN'
p284
F0.707987
s(lp285
(g14
I0
tp286
atp287
a(S'der'
p288
(dp289
S'PRON'
p290
F0.000141
sS'DET'
p291
F0.999755
s(lp292
(g30
I2
tp293
atp294
a(S'landwirtschaft'
p295
(dp296
S'ADJ'
p297
F0.032875
sS'NOUN'
p298
F0.941685
s(lp299
(g44
I3
tp300
atp301
a(S'sind'
p302
(dp303
S'VERB'
p304
F1.0
s(lp305
(g51
I4
tp306
atp307
a(S'daher'
p308
(dp309
S'ADV'
p310
F1.0
s(lp311
(g58
I5
tp312
atp313
a(S'durch'
p314
(dp315
S'PRT'
p316
F0.003407
sS'ADP'
p317
F0.996297
s(lp318
(g81
I8
tp319
atp320
a(S'faire'
p321
(dp322
S'ADJ'
p323
F1.0
s(lp324
(g107
I9
tp325
atp326
a(S'produktpreise'
p327
(dp328
S'ADJ'
p329
F0.001099
sS'NOUN'
p330
F0.997145
s(lp331
(g115
I10
tp332
atp333
a(S'abzugelten'
p334
(dp335
S'VERB'
p336
F1.0
s(lp337
(g73
I7
tp338
atp339
a(g118
(dp340
g118
F1.0
s(lp341
(g118
I12
tp342
atp343
asS'it'
p344
(lp345
(S'i'
p346
(dp347
S'DET'
p348
F1.0
s(lp349
tp350
a(S'servizi'
p351
(dp352
S'NOUN'
p353
F1.0
s(lp354
(g14
I0
tp355
atp356
a(S'resi'
p357
(dp358
S'VERB'
p359
F1.0
s(lp360
(g22
I1
tp361
atp362
a(S"dall'"
p363
(dp364
S'ADJ'
p365
F0.002695
sS'NOUN'
p366
F0.997305
s(lp367
(g30
I2
tp368
atp369
a(S'agricoltura'
p370
(dp371
S'NOUN'
p372
F1.0
s(lp373
(g44
I3
tp374
atp375
a(S'devono'
p376
(dp377
S'VERB'
p378
F1.0
s(lp379
(g51
I4
tp380
atp381
a(S'pertanto'
p382
(dp383
S'ADV'
p384
F1.0
s(lp385
(g58
I5
tp386
atp387
a(S'essere'
p388
(dp389
S'VERB'
p390
F0.999974
sS'NOUN'
p391
F2.6e-05
s(lp392
(g66
I6
tp393
atp394
a(S'ricompensati'
p395
(dp396
S'VERB'
p397
F1.0
s(lp398
(g73
I7
tp399
atp400
a(S'con'
p401
(dp402
S'ADP'
p403
F1.0
s(lp404
(g81
I8
tp405
atp406
a(S'prezzi'
p407
(dp408
S'NOUN'
p409
F1.0
s(lp410
(g94
I11
tp411
atp412
a(S'equi'
p413
(dp414
S'ADJ'
p415
F1.0
s(lp416
(g107
I9
tp417
atp418
a(S'dei'
p419
(dp420
S'NOUN'
p421
F3.2e-05
sS'DEF'
p422
F0.001989
sS'ADP'
p423
F0.99798
s(lp424
tp425
a(S'prodotti'
p426
(dp427
S'VERB'
p428
F0.00589
sS'NOUN'
p429
F0.99411
s(lp430
(g115
I10
tp431
atp432
a(g118
(dp433
g118
F1.0
s(lp434
(g118
I12
tp435
atp436
asS'sk'
p437
(lp438
(S'slu\xc5\xbeby'
p439
(dp440
S'NOUN'
p441
F1.0
s(lp442
(g14
I0
tp443
atp444
a(S','
p445
(dp446
g118
F1.0
s(lp447
tp448
a(S'ktor\xc3\xa9'
p449
(dp450
S'PRON'
p451
F1.0
s(lp452
tp453
a(S'poskytuje'
p454
(dp455
S'VERB'
p456
F1.0
s(lp457
(g22
I1
tp458
atp459
a(S'po\xc4\xbenohospod\xc3\xa1rstvo'
p460
(dp461
S'NOUN'
p462
F1.0
s(lp463
(g44
I3
tp464
atp465
a(g445
(dp466
g118
F1.0
s(lp467
tp468
a(S'musia'
p469
(dp470
S'VERB'
p471
F1.0
s(lp472
(g51
I4
tp473
atp474
a(S'by\xc5\xa5'
p475
(dp476
S'VERB'
p477
F1.0
s(lp478
(g66
I6
tp479
atp480
a(S'teda'
p481
(dp482
S'X'
p483
F0.897608
sS'CONJ'
p484
F0.102392
s(lp485
(g58
I5
tp486
atp487
a(S'odmenen\xc3\xa9'
p488
(dp489
S'NOUN'
p490
F0.002807
sS'VERB'
p491
F0.039742999999999994
sS'ADJ'
p492
F0.957449
s(lp493
(g73
I7
tp494
atp495
a(S'spravodliv\xc3\xbdmi'
p496
(dp497
S'ADJ'
p498
F1.0
s(lp499
(g107
I9
tp500
atp501
a(S'cenami'
p502
(dp503
S'NOUN'
p504
F1.0
s(lp505
(g94
I11
tp506
atp507
a(S'v\xc3\xbdrobkov'
p508
(dp509
S'NOUN'
p510
F1.0
s(lp511
(g115
I10
tp512
atp513
a(g118
(dp514
g118
F1.0
s(lp515
(g118
I12
tp516
atp517
asS'pl'
p518
(lp519
(S'us\xc5\x82ugi'
p520
(dp521
S'NOUN'
p522
F1.0
s(lp523
(g14
I0
tp524
atp525
a(S'\xc5\x9bwiadczone'
p526
(dp527
S'VERB'
p528
F1.0
s(lp529
(g22
I1
tp530
atp531
a(S'przez'
p532
(dp533
S'ADP'
p534
F1.0
s(lp535
(g30
I2
tp536
atp537
a(S'rolnictwo'
p538
(dp539
S'NOUN'
p540
F1.0
s(lp541
(g44
I3
tp542
atp543
a(S'nale\xc5\xbcy'
p544
(dp545
S'VERB'
p546
F0.9980479999999999
sS'ADJ'
p547
F0.001951
s(lp548
(g51
I4
tp549
atp550
a(S'zatem'
p551
(dp552
S'CONJ'
p553
F1.0
s(lp554
(g58
I5
tp555
atp556
a(S'nagradza\xc4\x87'
p557
(dp558
S'ADJ'
p559
F1.6e-05
sS'VERB'
p560
F0.999874
sS'NOUN'
p561
F0.00011
s(lp562
tp563
a(S'godziwymi'
p564
(dp565
S'ADV'
p566
F5e-05
sS'NOUN'
p567
F0.0007370000000000002
sS'VERB'
p568
F0.0002500000000000001
sS'ADJ'
p569
F0.9989600000000001
s(lp570
(g73
I7
tp571
atp572
a(S'cenami'
p573
(dp574
S'NOUN'
p575
F1.0
s(lp576
(g94
I11
tp577
atp578
a(S'produkt\xc3\xb3w'
p579
(dp580
S'NOUN'
p581
F1.0
s(lp582
(g115
I10
tp583
atp584
a(g118
(dp585
g118
F1.0
s(lp586
(g118
I12
tp587
atp588
asS'sl'
p589
(lp590
(S'storitve'
p591
(dp592
S'NOUN'
p593
F1.0
s(lp594
(g14
I0
tp595
atp596
a(g445
(dp597
g118
F1.0
s(lp598
tp599
a(S'ki'
p600
(dp601
S'CONJ'
p602
F1.0
s(lp603
tp604
a(S'jih'
p605
(dp606
S'PRON'
p607
F1.0
s(lp608
(g30
I2
tp609
atp610
a(S'zagotavlja'
p611
(dp612
S'VERB'
p613
F1.0
s(lp614
(g22
I1
tp615
atp616
a(S'kmetijstvo'
p617
(dp618
S'NOUN'
p619
F1.0
s(lp620
(g44
I3
tp621
atp622
a(g445
(dp623
g118
F1.0
s(lp624
tp625
a(S'morajo'
p626
(dp627
S'VERB'
p628
F1.0
s(lp629
(g51
I4
tp630
atp631
a(S'zato'
p632
(dp633
S'ADV'
p634
F0.811937
sS'CONJ'
p635
F0.188063
s(lp636
(g58
I5
tp637
atp638
a(S'nadomestiti'
p639
(dp640
S'VERB'
p641
F1.0
s(lp642
(g73
I7
tp643
atp644
a(S'pravi\xc4\x8dne'
p645
(dp646
S'ADV'
p647
F9e-06
sS'NOUN'
p648
F0.00037
sS'VERB'
p649
F8.700000000000001e-05
sS'ADJ'
p650
F0.9995320000000001
s(lp651
(g107
I9
tp652
atp653
a(S'cene'
p654
(dp655
S'NOUN'
p656
F1.0
s(lp657
(g94
I11
tp658
atp659
a(S'izdelkov'
p660
(dp661
S'NOUN'
p662
F1.0
s(lp663
(g115
I10
tp664
atp665
a(g118
(dp666
g118
F1.0
s(lp667
(g118
I12
tp668
atp669
asS'es'
p670
(lp671
(S'por'
p672
(dp673
S'CONJ'
p674
F1.0
s(lp675
(g58
I5
tp676
atp677
a(S'lo'
p678
(dp679
S'CONJ'
p680
F1.0
s(lp681
(g58
I5
tp682
atp683
a(S'tanto'
p684
(dp685
S'CONJ'
p686
F1.0
s(lp687
tp688
a(g445
(dp689
g118
F1.0
s(lp690
(g58
I5
tp691
atp692
a(S'los'
p693
(dp694
S'PRON'
p695
F2.5e-05
sS'DET'
p696
F0.999975
s(lp697
tp698
a(S'servicios'
p699
(dp700
S'NOUN'
p701
F1.0
s(lp702
(g14
I0
tp703
atp704
a(S'prestados'
p705
(dp706
S'VERB'
p707
F1.0
s(lp708
(g22
I1
tp709
atp710
a(S'por'
p711
(dp712
S'ADP'
p713
F1.0
s(lp714
(g30
I2
tp715
atp716
a(S'la'
p717
(dp718
S'NOUN'
p719
F0.0
sS'PRON'
p720
F0.0
sS'DET'
p721
F0.999999
sg483
F0.0
s(lp722
tp723
a(S'agricultura'
p724
(dp725
S'NOUN'
p726
F1.0
s(lp727
(g44
I3
tp728
atp729
a(S'se'
p730
(dp731
S'PRON'
p732
F1.0
sS'VERB'
p733
F0.0
s(lp734
(g66
I6
tp735
atp736
a(S'deben'
p737
(dp738
S'VERB'
p739
F1.0
s(lp740
(g51
I4
tp741
atp742
a(S'recompensar'
p743
(dp744
S'VERB'
p745
F1.0
s(lp746
(g73
I7
tp747
atp748
a(S'mediante'
p749
(dp750
S'ADP'
p751
F1.0
s(lp752
(g81
I8
tp753
atp754
a(S'unos'
p755
(dp756
S'DET'
p757
F1.0
s(lp758
(g94
I11
tp759
atp760
a(S'precios'
p761
(dp762
S'NOUN'
p763
F1.0
s(lp764
tp765
a(S'justos'
p766
(dp767
S'ADJ'
p768
F1.0
s(lp769
(g107
I9
tp770
atp771
a(S'de'
p772
(dp773
g483
F0.0
sS'CONJ'
p774
F5.7e-05
sS'ADP'
p775
F0.999943
s(lp776
tp777
a(S'los'
p778
(dp779
S'PRON'
p780
F0.0
sS'DET'
p781
F1.0
s(lp782
(g94
I11
tp783
atp784
a(S'productos'
p785
(dp786
S'NOUN'
p787
F1.0
s(lp788
(g115
I10
tp789
atp790
a(g118
(dp791
g118
F1.0
s(lp792
(g118
I12
tp793
atp794
as.