(dp0
S'fr'
p1
(lp2
(S"c'"
p3
(dp4
S'ADJ'
p5
F0.079749
sS'VERB'
p6
F0.5393100000000001
sS'NOUN'
p7
F0.380941
s(lp8
(S'it'
p9
I0
tp10
atp11
a(S'est'
p12
(dp13
S'VERB'
p14
F0.99664
sS'NOUN'
p15
F0.00336
s(lp16
(S'is'
p17
I1
tp18
atp19
a(S'ce'
p20
(dp21
S'PRON'
p22
F1.0
s(lp23
(S'this'
p24
I2
tp25
atp26
a(S'point-l\xc3\xa0'
p27
(dp28
S'ADJ'
p29
F0.006369
sS'NOUN'
p30
F0.993629
sS'X'
p31
F1e-06
s(lp32
(S'point'
p33
I3
tp34
atp35
a(S'aussi'
p36
(dp37
S'ADV'
p38
F0.955255
sS'CONJ'
p39
F0.044745
s(lp40
(S'also'
p41
I7
tp42
atp43
a(S'que'
p44
(dp45
S'ADV'
p46
F0.009588
sS'PRON'
p47
F0.11439500000000001
sS'CONJ'
p48
F0.876018
s(lp49
(S'that'
p50
I4
tp51
atp52
a(S'nous'
p53
(dp54
S'PRON'
p55
F1.0
s(lp56
(S'we'
p57
I5
tp58
atp59
a(S'sommes'
p60
(dp61
S'VERB'
p62
F0.999665
sS'NOUN'
p63
F0.000335
s(lp64
(S'are'
p65
I6
tp66
atp67
a(S'en'
p68
(dp69
S'PRON'
p70
F0.001467
sS'ADP'
p71
F0.998533
s(lp72
tp73
a(S'train'
p74
(dp75
S'NOUN'
p76
F1.0
s(lp77
(S'currently'
p78
I8
tp79
atp80
a(S"d'"
p81
(dp82
S'NOUN'
p83
F0.032441
sS'VERB'
p84
F0.694014
sS'ADJ'
p85
F0.273544
s(lp86
tp87
a(S'examiner'
p88
(dp89
S'VERB'
p90
F1.0
s(lp91
(S'examining'
p92
I9
tp93
atp94
a(S'\xc3\xa0'
p95
(dp96
S'ADP'
p97
F1.0
s(lp98
(S'at'
p99
I10
tp100
atp101
a(S'la'
p102
(dp103
S'PRON'
p104
F0.00436
sS'DET'
p105
F0.995638
sS'NOUN'
p106
F2e-06
s(lp107
(S'the'
p108
I11
tp109
atp110
a(S'demande'
p111
(dp112
S'VERB'
p113
F0.006109
sS'NOUN'
p114
F0.993892
s(lp115
(S'request'
p116
I12
tp117
atp118
a(S'du'
p119
(dp120
S'ADP'
p121
F1.0
s(lp122
(S'of'
p123
I13
tp124
atp125
a(S'conseil'
p126
(dp127
S'NOUN'
p128
F1.0
s(lp129
(S'council'
p130
I16
tp131
atp132
a(S'europ\xc3\xa9en'
p133
(dp134
S'NOUN'
p135
F0.005274
sS'ADJ'
p136
F0.994726
s(lp137
(S'european'
p138
I15
tp139
atp140
a(S'.'
p141
(dp142
g141
F1.0
s(lp143
(g141
I17
tp144
atp145
asS'en'
p146
(lp147
(g9
(dp148
S'PRON'
p149
F1.0
s(lp150
(g9
I0
tp151
atp152
a(g17
(dp153
S'VERB'
p154
F1.0
s(lp155
(g17
I1
tp156
atp157
a(g24
(dp158
S'ADV'
p159
F0.000431
sS'NOUN'
p160
F1.1e-05
sS'DET'
p161
F0.999558
s(lp162
(g24
I2
tp163
atp164
a(g33
(dp165
S'VERB'
p166
F0.014943
sS'NOUN'
p167
F0.985056
s(lp168
(g33
I3
tp169
atp170
a(g50
(dp171
S'ADV'
p172
F0.000224
sS'DET'
p173
F0.159887
sS'ADP'
p174
F0.839889
s(lp175
(g50
I4
tp176
atp177
a(g57
(dp178
S'PRON'
p179
F1.0
s(lp180
(g57
I5
tp181
atp182
a(g65
(dp183
S'VERB'
p184
F1.0
sS'NOUN'
p185
F0.0
s(lp186
(g65
I6
tp187
atp188
a(g41
(dp189
S'ADV'
p190
F1.0
s(lp191
(g41
I7
tp192
atp193
a(g78
(dp194
S'ADV'
p195
F1.0
s(lp196
(g78
I8
tp197
atp198
a(g92
(dp199
S'VERB'
p200
F1.0
s(lp201
(g92
I9
tp202
atp203
a(g99
(dp204
S'NOUN'
p205
F1e-06
sS'ADP'
p206
F0.999998
s(lp207
(g99
I10
tp208
atp209
a(g108
(dp210
S'NOUN'
p211
F1e-06
sS'DET'
p212
F0.999999
s(lp213
(g108
I11
tp214
atp215
a(g116
(dp216
S'VERB'
p217
F0.00045799999999999997
sS'NOUN'
p218
F0.999542
s(lp219
(g116
I12
tp220
atp221
a(g123
(dp222
S'ADP'
p223
F1.0
s(lp224
(g123
I13
tp225
atp226
a(S'the'
p227
(dp228
S'NOUN'
p229
F1e-06
sS'DET'
p230
F0.999999
s(lp231
(g227
I14
tp232
atp233
a(g138
(dp234
S'NOUN'
p235
F0.10881199999999999
sS'VERB'
p236
F1.1e-05
sS'ADJ'
p237
F0.891178
s(lp238
(g138
I15
tp239
atp240
a(g130
(dp241
S'NOUN'
p242
F1.0
s(lp243
(g130
I16
tp244
atp245
a(g141
(dp246
g141
F1.0
s(lp247
(g141
I17
tp248
atp249
asS'nl'
p250
(lp251
(S'op'
p252
(dp253
S'ADV'
p254
F0.007157
sS'ADJ'
p255
F5e-06
sS'ADP'
p256
F0.992838
s(lp257
(g99
I10
tp258
atp259
a(S'verzoek'
p260
(dp261
S'VERB'
p262
F0.001499
sS'NOUN'
p263
F0.998501
s(lp264
(g116
I12
tp265
atp266
a(S'van'
p267
(dp268
S'ADP'
p269
F1.0
s(lp270
(g123
I13
tp271
atp272
a(S'de'
p273
(dp274
S'DET'
p275
F1.0
s(lp276
(g227
I14
tp277
atp278
a(S'europese'
p279
(dp280
S'NOUN'
p281
F1.0
s(lp282
(g138
I15
tp283
atp284
a(S'raad'
p285
(dp286
S'VERB'
p287
F0.001459
sS'NOUN'
p288
F0.998541
s(lp289
(g130
I16
tp290
atp291
a(S'buigen'
p292
(dp293
S'VERB'
p294
F0.9998360000000001
sS'NOUN'
p295
F0.000164
s(lp296
tp297
a(S'wij'
p298
(dp299
S'PRON'
p300
F1.0
s(lp301
(g57
I5
tp302
atp303
a(S'ons'
p304
(dp305
S'PRON'
p306
F0.999987
sS'NOUN'
p307
F1.3e-05
s(lp308
(g65
I6
tp309
atp310
a(S'momenteel'
p311
(dp312
S'ADJ'
p313
F0.109204
sS'NOUN'
p314
F0.890796
s(lp315
(g78
I8
tp316
atp317
a(S'over'
p318
(dp319
S'ADV'
p320
F0.006165
sS'ADP'
p321
F0.993835
s(lp322
(g92
I9
tp323
atp324
a(S'dit'
p325
(dp326
S'PRON'
p327
F1.0
s(lp328
(g24
I2
tp329
atp330
a(S'punt'
p331
(dp332
S'VERB'
p333
F1e-06
sS'NOUN'
p334
F0.999999
s(lp335
(g33
I3
tp336
atp337
a(g141
(dp338
g141
F1.0
s(lp339
(g141
I17
tp340
atp341
asS'de'
p342
(lp343
(S'diesen'
p344
(dp345
S'PRON'
p346
F1.0
s(lp347
(g24
I2
tp348
atp349
a(S'punkt'
p350
(dp351
S'PRT'
p352
F1.0
s(lp353
(g33
I3
tp354
atp355
a(S'untersuchen'
p356
(dp357
S'VERB'
p358
F1.0
s(lp359
(g92
I9
tp360
atp361
a(S'wir'
p362
(dp363
S'PRON'
p364
F1.0
s(lp365
(g57
I5
tp366
atp367
a(S'ebenfalls'
p368
(dp369
S'ADV'
p370
F1.0
s(lp371
(g41
I7
tp372
atp373
a(S'gegenw\xc3\xa4rtig'
p374
(dp375
S'ADJ'
p376
F1.0
s(lp377
(g78
I8
tp378
atp379
a(S'auf'
p380
(dp381
S'PRT'
p382
F0.005775
sS'ADP'
p383
F0.994186
s(lp384
(g99
I10
tp385
atp386
a(S'wunsch'
p387
(dp388
S'ADJ'
p389
F0.054473
sS'NOUN'
p390
F0.934529
s(lp391
(g116
I12
tp392
atp393
a(S'des'
p394
(dp395
S'DET'
p396
F1.0
s(lp397
(g123
I13
tp398
atp399
a(S'europ\xc3\xa4ischen'
p400
(dp401
S'ADJ'
p402
F1.0
s(lp403
(g138
I15
tp404
atp405
a(S'rates'
p406
(dp407
S'ADJ'
p408
F0.000212
sS'NOUN'
p409
F0.999708
s(lp410
(g130
I16
tp411
atp412
a(g141
(dp413
g141
F1.0
s(lp414
(g141
I17
tp415
atp416
asS'it'
p417
(lp418
(S'questo'
p419
(dp420
S'PRON'
p421
F1.0
s(lp422
(g9
I0
tp423
atp424
a(S'\xc3\xa8'
p425
(dp426
S'VERB'
p427
F1.0
s(lp428
(g17
I1
tp429
atp430
a(S"l'"
p431
(dp432
S'NOUN'
p433
F0.000971
sS'VERB'
p434
F0.9832770000000001
sS'ADJ'
p435
F0.015752
s(lp436
(g24
I2
tp437
atp438
a(S'aspetto'
p439
(dp440
S'VERB'
p441
F0.127259
sS'NOUN'
p442
F0.872741
s(lp443
(g33
I3
tp444
atp445
a(S'che'
p446
(dp447
S'PRON'
p448
F0.971904
sS'CONJ'
p449
F0.02714
sS'ADJ'
p450
F0.000955
s(lp451
(g50
I4
tp452
atp453
a(S'stiamo'
p454
(dp455
S'VERB'
p456
F1.0
s(lp457
(g65
I6
tp458
atp459
a(S'attualmente'
p460
(dp461
S'ADV'
p462
F1.0
s(lp463
(g78
I8
tp464
atp465
a(S'esaminando'
p466
(dp467
S'NOUN'
p468
F0.030013
sS'VERB'
p469
F0.01322
sS'ADJ'
p470
F0.956767
s(lp471
(g92
I9
tp472
atp473
a(S','
p474
(dp475
g141
F1.0
s(lp476
tp477
a(S'su'
p478
(dp479
S'ADV'
p480
F0.082377
sS'ADP'
p481
F0.917623
s(lp482
(g99
I10
tp483
atp484
a(S'richiesta'
p485
(dp486
S'VERB'
p487
F0.11609
sS'NOUN'
p488
F0.88391
s(lp489
(g116
I12
tp490
atp491
a(S'del'
p492
(dp493
S'DEF'
p494
F0.001517
sS'ADP'
p495
F0.998483
s(lp496
(g123
I13
tp497
atp498
a(S'consiglio'
p499
(dp500
S'VERB'
p501
F0.000318
sS'NOUN'
p502
F0.999682
s(lp503
(g130
I16
tp504
atp505
a(S'europeo'
p506
(dp507
S'NOUN'
p508
F0.000977
sS'ADJ'
p509
F0.999023
s(lp510
(g138
I15
tp511
atp512
a(g141
(dp513
g141
F1.0
s(lp514
(g141
I17
tp515
atp516
asS'sk'
p517
(lp518
(S'pr\xc3\xa1ve'
p519
(dp520
S'ADV'
p521
F0.140052
sg31
F0.853666
sS'NOUN'
p522
F0.006282
s(lp523
(g17
I1
tp524
atp525
a(S'tento'
p526
(dp527
S'PRON'
p528
F0.999961
sg31
F3.9e-05
s(lp529
(g24
I2
tp530
atp531
a(S'bod'
p532
(dp533
S'NOUN'
p534
F1.0
s(lp535
(g33
I3
tp536
atp537
a(S'v'
p538
(dp539
g31
F0.000505
sS'ADP'
p540
F0.999495
s(lp541
tp542
a(S's\xc3\xba\xc4\x8dasnosti'
p543
(dp544
S'NOUN'
p545
F1.0
s(lp546
(g78
I8
tp547
atp548
a(S'sk\xc3\xbamame'
p549
(dp550
S'VERB'
p551
F1.0
s(lp552
(g92
I9
tp553
atp554
a(S'na'
p555
(dp556
g31
F6e-05
sS'CONJ'
p557
F5e-06
sS'ADP'
p558
F0.999919
sS'PRT'
p559
F1.6e-05
s(lp560
(g99
I10
tp561
atp562
a(S'\xc5\xbeiados\xc5\xa5'
p563
(dp564
S'NOUN'
p565
F1.0
s(lp566
(g116
I12
tp567
atp568
a(S'eur\xc3\xb3pskej'
p569
(dp570
S'ADJ'
p571
F1.0
s(lp572
(g138
I15
tp573
atp574
a(S'rady'
p575
(dp576
S'ADJ'
p577
F3.8e-05
sS'NOUN'
p578
F0.999962
s(lp579
(g130
I16
tp580
atp581
a(g141
(dp582
g141
F1.0
s(lp583
(g141
I17
tp584
atp585
asS'pl'
p586
(lp587
(S'w\xc5\x82a\xc5\x9bnie'
p588
(dp589
S'ADV'
p590
F0.475086
sS'PRT'
p591
F0.524914
s(lp592
(g17
I1
tp593
atp594
a(S'ten'
p595
(dp596
g31
F0.000497
sS'ADJ'
p597
F0.9993409999999999
sS'PRT'
p598
F0.000162
s(lp599
(g24
I2
tp600
atp601
a(S'punkt'
p602
(dp603
S'NOUN'
p604
F1.0
s(lp605
(g33
I3
tp606
atp607
a(S'obecnie'
p608
(dp609
S'ADV'
p610
F1.0
s(lp611
(g78
I8
tp612
atp613
a(S'badamy'
p614
(dp615
S'ADV'
p616
F0.003171
sS'ADJ'
p617
F0.001572
sS'VERB'
p618
F0.983319
sS'NOUN'
p619
F0.011940000000000001
s(lp620
(g92
I9
tp621
atp622
a(S'na'
p623
(dp624
S'PRT'
p625
F7e-06
sS'VERB'
p626
F1e-06
sS'NOUN'
p627
F0.0
sS'ADP'
p628
F0.999989
sg31
F2e-06
s(lp629
(g99
I10
tp630
atp631
a(S'wniosek'
p632
(dp633
S'NOUN'
p634
F1.0
s(lp635
(g116
I12
tp636
atp637
a(S'rady'
p638
(dp639
S'NOUN'
p640
F0.999999
s(lp641
(g130
I16
tp642
atp643
a(S'europejskiej'
p644
(dp645
S'ADJ'
p646
F1.0
s(lp647
(g138
I15
tp648
atp649
a(g141
(dp650
g141
F1.0
s(lp651
(g141
I17
tp652
atp653
asS'sl'
p654
(lp655
(S'to'
p656
(dp657
S'PRON'
p658
F0.999935
sg31
F6.4e-05
s(lp659
(g9
I0
tp660
atp661
a(S'je'
p662
(dp663
S'PRON'
p664
F0.000292
sS'VERB'
p665
F0.999704
sg31
F5e-06
s(lp666
(g17
I1
tp667
atp668
a(S'zadeva'
p669
(dp670
S'VERB'
p671
F0.004021
sS'NOUN'
p672
F0.995979
s(lp673
(g33
I3
tp674
atp675
a(g474
(dp676
g141
F1.0
s(lp677
tp678
a(S'ki'
p679
(dp680
S'CONJ'
p681
F1.0
s(lp682
(g50
I4
tp683
atp684
a(S'jo'
p685
(dp686
S'PRON'
p687
F0.999958
sg31
F4.2e-05
s(lp688
(g57
I5
tp689
atp690
a(S'trenutno'
p691
(dp692
S'ADV'
p693
F0.999808
sS'ADJ'
p694
F0.000191
s(lp695
(g78
I8
tp696
atp697
a(S'preu\xc4\x8dujemo'
p698
(dp699
S'VERB'
p700
F1.0
s(lp701
(g92
I9
tp702
atp703
a(S'na'
p704
(dp705
S'ADP'
p706
F1.0
s(lp707
(g99
I10
tp708
atp709
a(S'zahtevo'
p710
(dp711
S'NOUN'
p712
F1.0
s(lp713
(g116
I12
tp714
atp715
a(S'evropskega'
p716
(dp717
S'ADJ'
p718
F1.000001
s(lp719
(g138
I15
tp720
atp721
a(S'sveta'
p722
(dp723
S'ADJ'
p724
F3e-06
sS'NOUN'
p725
F0.999997
s(lp726
(g130
I16
tp727
atp728
a(g141
(dp729
g141
F1.0
s(lp730
(g141
I17
tp731
atp732
asS'es'
p733
(lp734
(S'es'
p735
(dp736
S'VERB'
p737
F1.0
s(lp738
(g17
I1
tp739
atp740
a(S'\xc3\xa9ste'
p741
(dp742
S'PRON'
p743
F1.0
s(lp744
(g24
I2
tp745
atp746
a(S'aspecto'
p747
(dp748
S'NOUN'
p749
F1.0
s(lp750
(g33
I3
tp751
atp752
a(S'que'
p753
(dp754
g31
F3e-06
sS'CONJ'
p755
F0.999997
s(lp756
(g50
I4
tp757
atp758
a(S'examinamos'
p759
(dp760
S'VERB'
p761
F1.0
s(lp762
(g92
I9
tp763
atp764
a(S'actualmente'
p765
(dp766
S'ADV'
p767
F1.0
s(lp768
(g78
I8
tp769
atp770
a(S'a'
p771
(dp772
g31
F0.005456
sS'CONJ'
p773
F0.000487
sS'ADP'
p774
F0.994057
s(lp775
(g99
I10
tp776
atp777
a(S'petici\xc3\xb3n'
p778
(dp779
S'NOUN'
p780
F1.0
s(lp781
(g116
I12
tp782
atp783
a(S'del'
p784
(dp785
S'ADP'
p786
F1.0
s(lp787
(g123
I13
tp788
atp789
a(S'consejo'
p790
(dp791
S'NOUN'
p792
F1.0
s(lp793
(g130
I16
tp794
atp795
a(S'europeo'
p796
(dp797
S'NOUN'
p798
F0.000611
sS'ADJ'
p799
F0.999389
s(lp800
(g138
I15
tp801
atp802
a(g141
(dp803
g141
F1.0
s(lp804
(g141
I17
tp805
atp806
as.