(dp0
S'fr'
p1
(lp2
(S'il'
p3
(dp4
S'PRON'
p5
F1.0
s(lp6
(S'we'
p7
I0
tp8
atp9
a(S'a'
p10
(dp11
S'VERB'
p12
F1.0
s(lp13
tp14
a(S'fallu'
p15
(dp16
S'VERB'
p17
F1.0
s(lp18
(S'needed'
p19
I1
tp20
atp21
a(S'proc\xc3\xa9der'
p22
(dp23
S'VERB'
p24
F1.0
s(lp25
(S'carry'
p26
I3
tp27
atp28
a(S'\xc3\xa0'
p29
(dp30
S'ADP'
p31
F1.0
s(lp32
(S'out'
p33
I4
tp34
atp35
a(S'une'
p36
(dp37
S'NOUN'
p38
F0.000631
sS'NUM'
p39
F0.027983
sS'DET'
p40
F0.971386
s(lp41
(g10
I5
tp42
atp43
a(S'analyse'
p44
(dp45
S'VERB'
p46
F0.010747000000000001
sS'NOUN'
p47
F0.989253
s(lp48
(S'assessment'
p49
I9
tp50
atp51
a(S"d'"
p52
(dp53
S'NOUN'
p54
F0.033037
sS'VERB'
p55
F0.6951489999999999
sS'ADJ'
p56
F0.271814
s(lp57
tp58
a(S'impact'
p59
(dp60
S'NOUN'
p61
F1.0
s(lp62
(S'impact'
p63
I8
tp64
atp65
a(S'minutieuse'
p66
(dp67
S'ADJ'
p68
F1.0
s(lp69
(S'thorough'
p70
I7
tp71
atp72
a(S','
p73
(dp74
S'.'
p75
F1.0
s(lp76
tp77
a(S'et'
p78
(dp79
S'CONJ'
p80
F1.0
s(lp81
(S'and'
p82
I10
tp83
atp84
a(S'cette'
p85
(dp86
S'PRON'
p87
F1.0
s(lp88
(S'that'
p89
I11
tp90
atp91
a(S'analyse'
p92
(dp93
S'VERB'
p94
F0.643431
sS'NOUN'
p95
F0.356568
s(lp96
(g49
I9
tp97
atp98
a(S'touche'
p99
(dp100
S'VERB'
p101
F0.47087999999999997
sS'NOUN'
p102
F0.529119
s(lp103
(S'is'
p104
I12
tp105
atp106
a(S'\xc3\xa0'
p107
(dp108
S'ADP'
p109
F1.0
s(lp110
(S'to'
p111
I14
tp112
atp113
a(S'sa'
p114
(dp115
S'PRON'
p116
F1.0
s(lp117
(S'be'
p118
I15
tp119
atp120
a(S'fin'
p121
(dp122
S'ADJ'
p123
F0.020248
sS'NOUN'
p124
F0.979752
s(lp125
(S'concluded'
p126
I16
tp127
atp128
a(g75
(dp129
g75
F1.0
s(lp130
(g75
I17
tp131
atp132
asS'en'
p133
(lp134
(g7
(dp135
S'PRON'
p136
F1.0
s(lp137
(g7
I0
tp138
atp139
a(g19
(dp140
S'VERB'
p141
F0.999989
sS'ADJ'
p142
F1.1e-05
s(lp143
(g19
I1
tp144
atp145
a(S'to'
p146
(dp147
S'ADV'
p148
F0.0
sS'PRT'
p149
F1.0
sS'ADP'
p150
F0.0
s(lp151
(g146
I2
tp152
atp153
a(g26
(dp154
S'VERB'
p155
F0.999611
sS'NOUN'
p156
F0.000388
s(lp157
(g26
I3
tp158
atp159
a(g33
(dp160
S'ADV'
p161
F0.030797
sS'NOUN'
p162
F8e-06
sS'ADP'
p163
F0.27253
sS'PRT'
p164
F0.696647
sS'VERB'
p165
F4.9999999999999996e-06
sS'ADJ'
p166
F1.3e-05
s(lp167
(g33
I4
tp168
atp169
a(g10
(dp170
S'NOUN'
p171
F0.0
sS'DET'
p172
F1.0
s(lp173
(g10
I5
tp174
atp175
a(S'very'
p176
(dp177
S'ADV'
p178
F0.671314
sS'ADJ'
p179
F0.328686
s(lp180
(g176
I6
tp181
atp182
a(g70
(dp183
S'ADJ'
p184
F1.0
s(lp185
(g70
I7
tp186
atp187
a(g63
(dp188
S'VERB'
p189
F1.4e-05
sS'NOUN'
p190
F0.999986
s(lp191
(g63
I8
tp192
atp193
a(g49
(dp194
S'NOUN'
p195
F1.0
s(lp196
(g49
I9
tp197
atp198
a(g82
(dp199
S'CONJ'
p200
F0.999998
sS'NOUN'
p201
F2e-06
s(lp202
(g82
I10
tp203
atp204
a(g89
(dp205
S'ADV'
p206
F0.010371
sS'DET'
p207
F0.989599
sS'ADP'
p208
F3e-05
s(lp209
(g89
I11
tp210
atp211
a(g104
(dp212
S'VERB'
p213
F1.0
s(lp214
(g104
I12
tp215
atp216
a(S'about'
p217
(dp218
S'ADV'
p219
F0.980831
sS'ADP'
p220
F0.019169
s(lp221
(g217
I13
tp222
atp223
a(g111
(dp224
S'ADV'
p225
F0.0
sS'PRT'
p226
F1.0
sS'ADP'
p227
F0.0
s(lp228
(g111
I14
tp229
atp230
a(g118
(dp231
S'VERB'
p232
F1.0
s(lp233
(g118
I15
tp234
atp235
a(g126
(dp236
S'VERB'
p237
F1.0
s(lp238
(g126
I16
tp239
atp240
a(g75
(dp241
g75
F1.0
s(lp242
(g75
I17
tp243
atp244
asS'nl'
p245
(lp246
(S'we'
p247
(dp248
S'PRON'
p249
F1.0
s(lp250
(g7
I0
tp251
atp252
a(S'moesten'
p253
(dp254
S'VERB'
p255
F1.0
s(lp256
(g19
I1
tp257
atp258
a(S'een'
p259
(dp260
S'ADJ'
p261
F1e-06
sS'PRON'
p262
F5e-06
sS'NUM'
p263
F0.0
sS'DET'
p264
F0.999993
s(lp265
(g10
I5
tp266
atp267
a(S'zeer'
p268
(dp269
S'NOUN'
p270
F0.000592
sS'ADJ'
p271
F0.999408
s(lp272
(g176
I6
tp273
atp274
a(S'grondige'
p275
(dp276
S'NOUN'
p277
F0.007833
sS'ADJ'
p278
F0.992167
s(lp279
(g70
I7
tp280
atp281
a(S'effectbeoordeling'
p282
(dp283
S'NOUN'
p284
F1.0
s(lp285
(g63
I8
tp286
atp287
a(S'uitvoeren'
p288
(dp289
S'VERB'
p290
F0.9781279999999999
sS'NOUN'
p291
F0.021872
s(lp292
(g49
I9
tp293
atp294
a(S'en'
p295
(dp296
S'CONJ'
p297
F1.0
s(lp298
(g82
I10
tp299
atp300
a(S'die'
p301
(dp302
S'PRON'
p303
F0.999999
s(lp304
(g89
I11
tp305
atp306
a(S'staat'
p307
(dp308
S'VERB'
p309
F0.054907
sS'NOUN'
p310
F0.945093
s(lp311
(g104
I12
tp312
atp313
a(S'op'
p314
(dp315
S'ADV'
p316
F0.004503
sS'ADJ'
p317
F0.0
sS'ADP'
p318
F0.995497
s(lp319
tp320
a(S'het'
p321
(dp322
S'PRON'
p323
F0.000931
sS'DET'
p324
F0.999069
s(lp325
tp326
a(S'punt'
p327
(dp328
S'VERB'
p329
F0.0
sS'NOUN'
p330
F1.0
s(lp331
(g217
I13
tp332
atp333
a(S'te'
p334
(dp335
S'PRT'
p336
F1.0
s(lp337
(g111
I14
tp338
atp339
a(S'worden'
p340
(dp341
S'VERB'
p342
F1.0
sS'NOUN'
p343
F0.0
s(lp344
(g118
I15
tp345
atp346
a(S'afgesloten'
p347
(dp348
S'VERB'
p349
F0.999995
sS'ADJ'
p350
F5e-06
s(lp351
(g126
I16
tp352
atp353
a(g75
(dp354
g75
F1.0
s(lp355
(g75
I17
tp356
atp357
asS'de'
p358
(lp359
(S'wir'
p360
(dp361
S'PRON'
p362
F1.0
s(lp363
(g7
I0
tp364
atp365
a(S'mussten'
p366
(dp367
S'VERB'
p368
F1.0
s(lp369
(g19
I1
tp370
atp371
a(S'eine'
p372
(dp373
S'PRON'
p374
F0.322562
sS'DET'
p375
F0.677349
s(lp376
(g10
I5
tp377
atp378
a(S'\xc3\xbcberaus'
p379
(dp380
S'ADV'
p381
F1.0
s(lp382
(g176
I6
tp383
atp384
a(S'gr\xc3\xbcndliche'
p385
(dp386
S'ADJ'
p387
F1.0
s(lp388
(g70
I7
tp389
atp390
a(S'folgenabsch\xc3\xa4tzung'
p391
(dp392
S'ADJ'
p393
F1.6e-05
sS'NOUN'
p394
F0.999969
s(lp395
(g63
I8
tp396
atp397
a(S'ausf\xc3\xbchren'
p398
(dp399
S'VERB'
p400
F1.0
s(lp401
(g26
I3
tp402
atp403
a(g73
(dp404
g75
F1.0
s(lp405
tp406
a(S'die'
p407
(dp408
S'PRON'
p409
F0.922221
sS'DET'
p410
F0.067541
s(lp411
(g89
I11
tp412
atp413
a(S'kurz'
p414
(dp415
S'PRT'
p416
F0.000133
sS'ADJ'
p417
F0.999867
s(lp418
(g217
I13
tp419
atp420
a(S'vor'
p421
(dp422
S'PRT'
p423
F0.006931
sS'ADP'
p424
F0.987885
s(lp425
(g111
I14
tp426
atp427
a(S'dem'
p428
(dp429
S'PRON'
p430
F4e-05
sS'DET'
p431
F0.999926
s(lp432
tp433
a(S'abschluss'
p434
(dp435
S'ADJ'
p436
F0.000153
sS'NOUN'
p437
F0.999758
s(lp438
(g126
I16
tp439
atp440
a(S'steht'
p441
(dp442
S'VERB'
p443
F1.0
s(lp444
(g104
I12
tp445
atp446
a(g75
(dp447
g75
F1.0
s(lp448
(g75
I17
tp449
atp450
asS'it'
p451
(lp452
(S'avevamo'
p453
(dp454
S'VERB'
p455
F1.0
s(lp456
(g7
I0
tp457
atp458
a(S'bisogno'
p459
(dp460
S'VERB'
p461
F0.001112
sS'NOUN'
p462
F0.998888
s(lp463
(g19
I1
tp464
atp465
a(S'di'
p466
(dp467
S'CONJ'
p468
F6e-06
sS'ADP'
p469
F0.999994
s(lp470
(g146
I2
tp471
atp472
a(S'svolgere'
p473
(dp474
S'VERB'
p475
F1.0
s(lp476
(g26
I3
tp477
atp478
a(S'una'
p479
(dp480
S'PRON'
p481
F0.000112
sS'DEF'
p482
F0.999888
s(lp483
(g10
I5
tp484
atp485
a(S'valutazione'
p486
(dp487
S'NOUN'
p488
F1.0
s(lp489
(g49
I9
tp490
atp491
a(S'di'
p492
(dp493
S'CONJ'
p494
F7e-06
sS'ADP'
p495
F0.999993
s(lp496
tp497
a(S'impatto'
p498
(dp499
S'VERB'
p500
F0.000656
sS'NOUN'
p501
F0.999344
s(lp502
(g63
I8
tp503
atp504
a(S'molto'
p505
(dp506
S'ADV'
p507
F0.975117
sS'PRON'
p508
F0.000712
sS'VERB'
p509
F0.000329
sS'ADJ'
p510
F0.023841
s(lp511
(g176
I6
tp512
atp513
a(S'approfondita'
p514
(dp515
S'VERB'
p516
F0.743606
sS'ADJ'
p517
F0.256394
s(lp518
(g70
I7
tp519
atp520
a(S'che'
p521
(dp522
S'PRON'
p523
F0.967912
sS'CONJ'
p524
F0.031846
sS'ADJ'
p525
F0.000242
s(lp526
(g89
I11
tp527
atp528
a(S'sta'
p529
(dp530
S'VERB'
p531
F1.0
s(lp532
(g104
I12
tp533
atp534
a(S'per'
p535
(dp536
S'CONJ'
p537
F0.002087
sS'ADP'
p538
F0.997913
s(lp539
(g111
I14
tp540
atp541
a(S'concludersi'
p542
(dp543
S'VERB'
p544
F1.0
s(lp545
(g126
I16
tp546
atp547
a(g75
(dp548
g75
F1.0
s(lp549
(g75
I17
tp550
atp551
asS'sk'
p552
(lp553
(S'museli'
p554
(dp555
S'VERB'
p556
F1.0
s(lp557
(g19
I1
tp558
atp559
a(S'sme'
p560
(dp561
S'X'
p562
F3e-06
sS'VERB'
p563
F0.999997
s(lp564
(g7
I0
tp565
atp566
a(S'vykona\xc5\xa5'
p567
(dp568
S'VERB'
p569
F1.0
s(lp570
(g26
I3
tp571
atp572
a(S've\xc4\xbemi'
p573
(dp574
S'ADV'
p575
F1.0
s(lp576
(g176
I6
tp577
atp578
a(S'd\xc3\xb4kladn\xc3\xa9'
p579
(dp580
S'ADJ'
p581
F1.0
s(lp582
(g70
I7
tp583
atp584
a(S'hodnotenie'
p585
(dp586
S'NOUN'
p587
F1.0
s(lp588
(g49
I9
tp589
atp590
a(S'vplyvu'
p591
(dp592
S'NOUN'
p593
F1.0
s(lp594
(g63
I8
tp595
atp596
a(g73
(dp597
g75
F1.0
s(lp598
tp599
a(S'ktor\xc3\xa9'
p600
(dp601
S'PRON'
p602
F1.0
s(lp603
(g89
I11
tp604
atp605
a(S'sa'
p606
(dp607
S'PRT'
p608
F0.999875
sS'ADP'
p609
F4e-06
sg562
F0.00012099999999999999
s(lp610
(g118
I15
tp611
atp612
a(S'pr\xc3\xa1ve'
p613
(dp614
S'ADV'
p615
F0.23357
sg562
F0.765031
sS'NOUN'
p616
F0.001399
s(lp617
(g104
I12
tp618
atp619
a(S'kon\xc4\x8d\xc3\xad'
p620
(dp621
S'VERB'
p622
F1.0
s(lp623
(g126
I16
tp624
atp625
a(g75
(dp626
g75
F1.0
s(lp627
(g75
I17
tp628
atp629
asS'pl'
p630
(lp631
(S'musimy'
p632
(dp633
S'VERB'
p634
F1.0
s(lp635
(g19
I1
tp636
atp637
a(S'dokona\xc4\x87'
p638
(dp639
S'VERB'
p640
F1.0
s(lp641
(g26
I3
tp642
atp643
a(S'bardzo'
p644
(dp645
S'ADV'
p646
F1.0
s(lp647
(g176
I6
tp648
atp649
a(S'dok\xc5\x82adnej'
p650
(dp651
S'ADJ'
p652
F1.0
s(lp653
(g70
I7
tp654
atp655
a(S'oceny'
p656
(dp657
S'NOUN'
p658
F1.0
s(lp659
(g49
I9
tp660
atp661
a(S'wp\xc5\x82ywu'
p662
(dp663
S'NOUN'
p664
F1.0
s(lp665
(g63
I8
tp666
atp667
a(g73
(dp668
g562
F0.0
sg75
F1.0
s(lp669
(g82
I10
tp670
atp671
a(S'kt\xc3\xb3ra'
p672
(dp673
S'ADJ'
p674
F1.0
s(lp675
(g89
I11
tp676
atp677
a(S'nied\xc5\x82ugo'
p678
(dp679
S'ADV'
p680
F1.0
s(lp681
(g217
I13
tp682
atp683
a(S'ma'
p684
(dp685
S'VERB'
p686
F0.999928
sS'NOUN'
p687
F4.3e-05
sS'ADP'
p688
F2.9e-05
s(lp689
(g104
I12
tp690
atp691
a(S'si\xc4\x99'
p692
(dp693
S'PRT'
p694
F1.0
s(lp695
(g118
I15
tp696
atp697
a(S'zako\xc5\x84czy\xc4\x87'
p698
(dp699
S'VERB'
p700
F1.0
s(lp701
(g126
I16
tp702
atp703
a(g75
(dp704
g75
F1.0
s(lp705
(g75
I17
tp706
atp707
asS'sl'
p708
(lp709
(S'opraviti'
p710
(dp711
S'VERB'
p712
F1.0
s(lp713
(g26
I3
tp714
atp715
a(S'moramo'
p716
(dp717
S'VERB'
p718
F1.0
s(lp719
(g7
I0
tp720
atp721
a(S'zelo'
p722
(dp723
S'ADV'
p724
F1.0
s(lp725
(g176
I6
tp726
atp727
a(S'natan\xc4\x8dno'
p728
(dp729
S'ADV'
p730
F0.090003
sS'ADJ'
p731
F0.909998
s(lp732
(g70
I7
tp733
atp734
a(S'oceno'
p735
(dp736
S'NOUN'
p737
F1.0
s(lp738
(g49
I9
tp739
atp740
a(S'u\xc4\x8dinka'
p741
(dp742
S'NOUN'
p743
F1.0
s(lp744
(g63
I8
tp745
atp746
a(S'in'
p747
(dp748
S'ADV'
p749
F3.5e-05
sg562
F9e-06
sS'CONJ'
p750
F0.999954
sS'NOUN'
p751
F2e-06
s(lp752
(g82
I10
tp753
atp754
a(S'to'
p755
(dp756
S'PRON'
p757
F0.9999500000000001
sg562
F5.1e-05
s(lp758
(g89
I11
tp759
atp760
a(S'bo'
p761
(dp762
S'VERB'
p763
F1.0
s(lp764
(g118
I15
tp765
atp766
a(S'zaklju\xc4\x8deno'
p767
(dp768
S'ADJ'
p769
F1.0
s(lp770
(g126
I16
tp771
atp772
a(g75
(dp773
g75
F1.0
s(lp774
(g75
I17
tp775
atp776
asS'es'
p777
(lp778
(S'necesit\xc3\xa1bamos'
p779
(dp780
S'VERB'
p781
F1.0
s(lp782
(g19
I1
tp783
atp784
a(S'llevar'
p785
(dp786
S'VERB'
p787
F1.0
s(lp788
tp789
a(g10
(dp790
g562
F0.000829
sS'CONJ'
p791
F0.000137
sS'ADP'
p792
F0.999034
s(lp793
(g33
I4
tp794
atp795
a(S'cabo'
p796
(dp797
S'NOUN'
p798
F1.0
s(lp799
(g26
I3
tp800
atp801
a(S'una'
p802
(dp803
S'DET'
p804
F1.0
s(lp805
(g10
I5
tp806
atp807
a(S'evaluaci\xc3\xb3n'
p808
(dp809
S'NOUN'
p810
F1.0
s(lp811
(g49
I9
tp812
atp813
a(S'muy'
p814
(dp815
S'ADV'
p816
F1.0
s(lp817
(g176
I6
tp818
atp819
a(S'minuciosa'
p820
(dp821
S'ADJ'
p822
F1.0
s(lp823
(g70
I7
tp824
atp825
a(S'de'
p826
(dp827
g562
F0.0
sS'CONJ'
p828
F5.7e-05
sS'ADP'
p829
F0.999943
s(lp830
tp831
a(S'las'
p832
(dp833
S'PRON'
p834
F0.0
sS'DET'
p835
F1.0
s(lp836
tp837
a(S'repercusiones'
p838
(dp839
S'NOUN'
p840
F1.0
s(lp841
(g63
I8
tp842
atp843
a(S'y'
p844
(dp845
g562
F5.1e-05
sS'CONJ'
p846
F0.999949
s(lp847
(g82
I10
tp848
atp849
a(S'eso'
p850
(dp851
S'PRON'
p852
F1.0
s(lp853
(g89
I11
tp854
atp855
a(S'est\xc3\xa1'
p856
(dp857
S'VERB'
p858
F1.0
s(lp859
(g104
I12
tp860
atp861
a(g10
(dp862
S'ADP'
p863
F1.0
s(lp864
tp865
a(S'punto'
p866
(dp867
S'ADP'
p868
F1.0
s(lp869
(g217
I13
tp870
atp871
a(S'de'
p872
(dp873
S'ADP'
p874
F1.0
s(lp875
(g111
I14
tp876
atp877
a(S'finalizarse'
p878
(dp879
S'ADJ'
p880
F0.002881
sS'VERB'
p881
F0.986986
sS'NOUN'
p882
F0.010133
s(lp883
(g126
I16
tp884
atp885
a(g75
(dp886
g75
F1.0
s(lp887
(g75
I17
tp888
atp889
as.