(dp0
S'fr'
p1
(lp2
(S'parall\xc3\xa8lement'
p3
(dp4
S'ADV'
p5
F1.0
s(lp6
(S'same'
p7
I2
tp8
atp9
a(S','
p10
(dp11
S'.'
p12
F1.0
s(lp13
(g10
I4
tp14
atp15
a(S'je'
p16
(dp17
S'PRON'
p18
F1.0
s(lp19
(S'i'
p20
I5
tp21
atp22
a(S'pense'
p23
(dp24
S'VERB'
p25
F1.0
s(lp26
tp27
a(S'que'
p28
(dp29
S'ADV'
p30
F0.025348
sS'PRON'
p31
F0.118513
sS'CONJ'
p32
F0.856139
s(lp33
(S'think'
p34
I6
tp35
atp36
a(S'nous'
p37
(dp38
S'PRON'
p39
F1.0
s(lp40
(S'we'
p41
I7
tp42
atp43
a(S'admettons'
p44
(dp45
S'VERB'
p46
F1.0
s(lp47
(S'accept'
p48
I9
tp49
atp50
a(S'tous'
p51
(dp52
S'PRON'
p53
F0.999898
sS'NOUN'
p54
F0.000102
s(lp55
(S'all'
p56
I8
tp57
atp58
a(S"qu'"
p59
(dp60
S'ADJ'
p61
F0.212447
sS'VERB'
p62
F0.005000000000000001
sS'NOUN'
p63
F0.782553
s(lp64
(S'that'
p65
I10
tp66
atp67
a(S'une'
p68
(dp69
S'NOUN'
p70
F1.5e-05
sS'NUM'
p71
F0.021976
sS'DET'
p72
F0.978009
s(lp73
(S'a'
p74
I11
tp75
atp76
a(S'proc\xc3\xa9dure'
p77
(dp78
S'NOUN'
p79
F1.0
s(lp80
(S'procedure'
p81
I14
tp82
atp83
a(S'l\xc3\xa9gislative'
p84
(dp85
S'NOUN'
p86
F0.023775
sS'ADJ'
p87
F0.976225
s(lp88
(S'legislative'
p89
I13
tp90
atp91
a(S'tr\xc3\xa8s'
p92
(dp93
S'ADV'
p94
F1.0
s(lp95
tp96
a(S'longue'
p97
(dp98
S'NOUN'
p99
F0.001204
sS'ADJ'
p100
F0.998796
s(lp101
(S'lengthy'
p102
I12
tp103
atp104
a(g10
(dp105
g12
F1.0
s(lp106
tp107
a(S'impliquant'
p108
(dp109
S'VERB'
p110
F1.0
s(lp111
(S'involving'
p112
I15
tp113
atp114
a(S'un'
p115
(dp116
S'NOUN'
p117
F0.001201
sS'NUM'
p118
F0.009171
sS'DET'
p119
F0.989628
s(lp120
(g74
I16
tp121
atp122
a(S'long'
p123
(dp124
S'ADV'
p125
F0.005659
sS'NOUN'
p126
F0.18737
sS'ADJ'
p127
F0.806971
s(lp128
(S'long'
p129
I17
tp130
atp131
a(S'processus'
p132
(dp133
S'NOUN'
p134
F1.0
s(lp135
(S'process'
p136
I19
tp137
atp138
a(S'it\xc3\xa9ratif'
p139
(dp140
S'ADJ'
p141
F1.0
s(lp142
tp143
a(S'de'
p144
(dp145
S'ADP'
p146
F1.0
s(lp147
tp148
a(S'discussion'
p149
(dp150
S'NOUN'
p151
F1.0
s(lp152
(S'iterative'
p153
I18
tp154
atp155
a(S'entre'
p156
(dp157
S'VERB'
p158
F0.000526
sS'ADP'
p159
F0.999474
s(lp160
(S'between'
p161
I20
tp162
atp163
a(S'les'
p164
(dp165
S'PRON'
p166
F0.000161
sS'DET'
p167
F0.999836
sS'ADP'
p168
F3e-06
s(lp169
(S'the'
p170
I21
tp171
atp172
a(S'diff\xc3\xa9rentes'
p173
(dp174
S'ADJ'
p175
F1.0
s(lp176
(S'various'
p177
I22
tp178
atp179
a(S'institutions'
p180
(dp181
S'NOUN'
p182
F1.0
s(lp183
(S'institutions'
p184
I23
tp185
atp186
a(g10
(dp187
g12
F1.0
s(lp188
tp189
a(S"n'"
p190
(dp191
S'ADJ'
p192
F0.13429
sS'VERB'
p193
F0.638201
sS'NOUN'
p194
F0.227509
s(lp195
tp196
a(S'est'
p197
(dp198
S'VERB'
p199
F0.999314
sS'NOUN'
p200
F0.000686
s(lp201
(S'is'
p202
I24
tp203
atp204
a(S'pas'
p205
(dp206
S'ADV'
p207
F0.999162
sS'NOUN'
p208
F0.000838
s(lp209
(S'not'
p210
I25
tp211
atp212
a(S'adapt\xc3\xa9e'
p213
(dp214
S'VERB'
p215
F1.0
s(lp216
(S'adapted'
p217
I26
tp218
atp219
a(S'\xc3\xa0'
p220
(dp221
S'ADP'
p222
F1.0
s(lp223
(S'to'
p224
I27
tp225
atp226
a(S"l'"
p227
(dp228
S'ADJ'
p229
F0.160704
sS'VERB'
p230
F0.06480800000000002
sS'NOUN'
p231
F0.774488
s(lp232
(S'the'
p233
I28
tp234
atp235
a(S'instrument'
p236
(dp237
S'NOUN'
p238
F1.0
s(lp239
(S'instrument'
p240
I31
tp241
atp242
a(S"d'"
p243
(dp244
S'NOUN'
p245
F0.032441
sS'VERB'
p246
F0.694014
sS'ADJ'
p247
F0.273544
s(lp248
tp249
a(S'assistance'
p250
(dp251
S'NOUN'
p252
F1.0
s(lp253
(S'assistance'
p254
I30
tp255
atp256
a(S'macrofinanci\xc3\xa8re'
p257
(dp258
S'NOUN'
p259
F0.148366
sS'ADJ'
p260
F0.851634
s(lp261
(S'macro-financial'
p262
I29
tp263
atp264
a(S'et'
p265
(dp266
S'CONJ'
p267
F1.0
s(lp268
(S'or'
p269
I32
tp270
atp271
a(S'certainement'
p272
(dp273
S'ADV'
p274
F1.0
s(lp275
tp276
a(S'pas'
p277
(dp278
S'ADV'
p279
F0.998187
sS'NOUN'
p280
F0.001813
s(lp281
(S'indeed'
p282
I34
tp283
atp284
a(S'\xc3\xa0'
p285
(dp286
S'ADP'
p287
F1.0
s(lp288
(S'to'
p289
I36
tp290
atp291
a(S'des'
p292
(dp293
S'DET'
p294
F0.00067
sS'ADP'
p295
F0.99933
s(lp296
tp297
a(S'situations'
p298
(dp299
S'NOUN'
p300
F1.0
s(lp301
(S'situations'
p302
I37
tp303
atp304
a(S'de'
p305
(dp306
S'ADP'
p307
F1.0
s(lp308
(S'of'
p309
I38
tp310
atp311
a(S'crise'
p312
(dp313
S'NOUN'
p314
F1.0
s(lp315
(S'crisis'
p316
I39
tp317
atp318
a(g12
(dp319
g12
F1.0
s(lp320
(g12
I40
tp321
atp322
asS'en'
p323
(lp324
(S'at'
p325
(dp326
S'NOUN'
p327
F1e-06
sS'ADP'
p328
F0.999999
s(lp329
(g325
I0
tp330
atp331
a(S'the'
p332
(dp333
S'NOUN'
p334
F1e-06
sS'DET'
p335
F0.999999
s(lp336
(g332
I1
tp337
atp338
a(g7
(dp339
S'ADV'
p340
F2e-06
sS'NOUN'
p341
F0.000104
sS'ADJ'
p342
F0.999894
s(lp343
(g7
I2
tp344
atp345
a(S'time'
p346
(dp347
S'VERB'
p348
F1e-06
sS'NOUN'
p349
F0.999999
s(lp350
(g346
I3
tp351
atp352
a(g10
(dp353
g12
F1.0
s(lp354
(g10
I4
tp355
atp356
a(g20
(dp357
S'X'
p358
F0.035894
sS'NOUN'
p359
F0.964106
s(lp360
(g20
I5
tp361
atp362
a(g34
(dp363
S'VERB'
p364
F0.999055
sS'NOUN'
p365
F0.000945
s(lp366
(g34
I6
tp367
atp368
a(g41
(dp369
S'PRON'
p370
F1.0
s(lp371
(g41
I7
tp372
atp373
a(g56
(dp374
S'ADV'
p375
F0.968183
sS'DET'
p376
F0.031818
s(lp377
(g56
I8
tp378
atp379
a(g48
(dp380
S'VERB'
p381
F1.0
s(lp382
(g48
I9
tp383
atp384
a(g65
(dp385
S'ADV'
p386
F0.000495
sS'DET'
p387
F0.008847
sS'ADP'
p388
F0.990658
s(lp389
(g65
I10
tp390
atp391
a(g74
(dp392
S'NOUN'
p393
F0.0
sS'DET'
p394
F1.0
s(lp395
(g74
I11
tp396
atp397
a(g102
(dp398
S'ADJ'
p399
F1.0
s(lp400
(g102
I12
tp401
atp402
a(g89
(dp403
S'NOUN'
p404
F0.005147
sS'ADJ'
p405
F0.994853
s(lp406
(g89
I13
tp407
atp408
a(g81
(dp409
S'NOUN'
p410
F1.0
s(lp411
(g81
I14
tp412
atp413
a(g112
(dp414
S'VERB'
p415
F1.0
s(lp416
(g112
I15
tp417
atp418
a(g74
(dp419
S'NOUN'
p420
F0.0
sS'DET'
p421
F1.0
s(lp422
(g74
I16
tp423
atp424
a(g129
(dp425
S'ADV'
p426
F0.083113
sS'NOUN'
p427
F0.000328
sS'VERB'
p428
F0.00013199999999999998
sS'ADJ'
p429
F0.916426
s(lp430
(g129
I17
tp431
atp432
a(g153
(dp433
S'ADJ'
p434
F1.0
s(lp435
(g153
I18
tp436
atp437
a(g136
(dp438
S'VERB'
p439
F0.000143
sS'NOUN'
p440
F0.999857
s(lp441
(g136
I19
tp442
atp443
a(g161
(dp444
S'ADV'
p445
F0.000132
sS'ADP'
p446
F0.999868
s(lp447
(g161
I20
tp448
atp449
a(g170
(dp450
S'NOUN'
p451
F1e-06
sS'DET'
p452
F0.999999
s(lp453
(g170
I21
tp454
atp455
a(g177
(dp456
S'ADJ'
p457
F1.0
s(lp458
(g177
I22
tp459
atp460
a(g184
(dp461
S'NOUN'
p462
F1.0
s(lp463
(g184
I23
tp464
atp465
a(g202
(dp466
S'VERB'
p467
F1.0
s(lp468
(g202
I24
tp469
atp470
a(g210
(dp471
S'ADV'
p472
F1.0
s(lp473
(g210
I25
tp474
atp475
a(g217
(dp476
S'VERB'
p477
F1.0
s(lp478
(g217
I26
tp479
atp480
a(g224
(dp481
S'ADV'
p482
F1e-06
sS'PRT'
p483
F0.999993
sS'ADP'
p484
F6e-06
s(lp485
(g224
I27
tp486
atp487
a(g233
(dp488
S'NOUN'
p489
F1e-06
sS'DET'
p490
F0.999999
s(lp491
(g233
I28
tp492
atp493
a(g262
(dp494
S'NOUN'
p495
F0.081839
sS'ADJ'
p496
F0.91816
s(lp497
(g262
I29
tp498
atp499
a(g254
(dp500
S'NOUN'
p501
F1.0
s(lp502
(g254
I30
tp503
atp504
a(g240
(dp505
S'NOUN'
p506
F1.0
s(lp507
(g240
I31
tp508
atp509
a(g269
(dp510
S'CONJ'
p511
F0.999999
sS'ADJ'
p512
F1e-06
s(lp513
(g269
I32
tp514
atp515
a(g10
(dp516
g12
F1.0
s(lp517
(g10
I33
tp518
atp519
a(g282
(dp520
S'ADV'
p521
F1.0
s(lp522
(g282
I34
tp523
atp524
a(g10
(dp525
g12
F1.0
s(lp526
(g10
I35
tp527
atp528
a(g289
(dp529
S'ADV'
p530
F6e-06
sS'PRT'
p531
F0.999954
sS'ADP'
p532
F3.9e-05
s(lp533
(g289
I36
tp534
atp535
a(g302
(dp536
S'NOUN'
p537
F1.0
s(lp538
(g302
I37
tp539
atp540
a(g309
(dp541
S'ADP'
p542
F1.0
s(lp543
(g309
I38
tp544
atp545
a(g316
(dp546
S'NOUN'
p547
F1.0
s(lp548
(g316
I39
tp549
atp550
a(g12
(dp551
g12
F1.0
s(lp552
(g12
I40
tp553
atp554
asS'nl'
p555
(lp556
(S'tegelijkertijd'
p557
(dp558
S'ADV'
p559
F1.0
s(lp560
(g7
I2
tp561
atp562
a(S'denk'
p563
(dp564
S'VERB'
p565
F1.0
s(lp566
tp567
a(S'ik'
p568
(dp569
S'PRON'
p570
F0.999993
sS'NOUN'
p571
F7e-06
s(lp572
(g20
I5
tp573
atp574
a(S'dat'
p575
(dp576
S'PRON'
p577
F0.08021900000000001
sS'CONJ'
p578
F0.919781
s(lp579
(g34
I6
tp580
atp581
a(S'we'
p582
(dp583
S'PRON'
p584
F1.0
s(lp585
(g41
I7
tp586
atp587
a(S'allemaal'
p588
(dp589
S'PRON'
p590
F1.0
s(lp591
(g56
I8
tp592
atp593
a(S'erkennen'
p594
(dp595
S'VERB'
p596
F0.988241
sS'NOUN'
p597
F0.011759
s(lp598
(g48
I9
tp599
atp600
a(S'dat'
p601
(dp602
S'PRON'
p603
F0.010626
sS'CONJ'
p604
F0.989374
s(lp605
(g65
I10
tp606
atp607
a(S'een'
p608
(dp609
S'ADJ'
p610
F1e-06
sS'PRON'
p611
F0.000609
sS'NUM'
p612
F1e-06
sS'DET'
p613
F0.999389
s(lp614
(g74
I11
tp615
atp616
a(S'langdurige'
p617
(dp618
S'NOUN'
p619
F0.000397
sS'ADJ'
p620
F0.999603
s(lp621
(g102
I12
tp622
atp623
a(S'wetgevingsprocedure'
p624
(dp625
S'ADJ'
p626
F0.003726
sS'NOUN'
p627
F0.996274
s(lp628
(g89
I13
tp629
atp630
a(g10
(dp631
g12
F1.0
s(lp632
(g81
I14
tp633
atp634
a(S'waarbij'
p635
(dp636
S'ADV'
p637
F1.0
s(lp638
(g112
I15
tp639
atp640
a(S'een'
p641
(dp642
S'ADJ'
p643
F1e-06
sS'PRON'
p644
F9e-06
sS'NUM'
p645
F0.0
sS'DET'
p646
F0.999991
s(lp647
(g74
I16
tp648
atp649
a(S'voorstel'
p650
(dp651
S'VERB'
p652
F7.5e-05
sS'NOUN'
p653
F0.999925
s(lp654
(g153
I18
tp655
atp656
a(S'meerdere'
p657
(dp658
S'PRON'
p659
F0.979252
sS'NOUN'
p660
F0.020749
s(lp661
(g153
I18
tp662
atp663
a(S'keren'
p664
(dp665
S'VERB'
p666
F0.027973
sS'NOUN'
p667
F0.972027
s(lp668
(g153
I18
tp669
atp670
a(S'heen'
p671
(dp672
S'ADV'
p673
F1.0
s(lp674
(g153
I18
tp675
atp676
a(S'en'
p677
(dp678
S'CONJ'
p679
F1.0
s(lp680
tp681
a(S'weer'
p682
(dp683
S'ADV'
p684
F0.999795
sS'VERB'
p685
F4e-06
sS'NOUN'
p686
F0.000201
s(lp687
(g153
I18
tp688
atp689
a(S'kan'
p690
(dp691
S'VERB'
p692
F0.999953
sS'NOUN'
p693
F4.7e-05
s(lp694
(g153
I18
tp695
atp696
a(S'gaan'
p697
(dp698
S'VERB'
p699
F0.999831
sS'NOUN'
p700
F0.00017
s(lp701
tp702
a(S'tussen'
p703
(dp704
S'ADP'
p705
F1.0
s(lp706
(g161
I20
tp707
atp708
a(S'de'
p709
(dp710
S'DET'
p711
F1.0
s(lp712
(g170
I21
tp713
atp714
a(S'verschillende'
p715
(dp716
S'PRON'
p717
F3e-06
sS'VERB'
p718
F8e-05
sS'ADJ'
p719
F0.999917
sS'NOUN'
p720
F0.0
s(lp721
(g177
I22
tp722
atp723
a(S'instellingen'
p724
(dp725
S'NOUN'
p726
F1.0
s(lp727
(g184
I23
tp728
atp729
a(g10
(dp730
g12
F1.0
s(lp731
(g202
I24
tp732
atp733
a(S'niet'
p734
(dp735
S'ADV'
p736
F0.999979
sS'PRON'
p737
F9e-06
sS'VERB'
p738
F1.2e-05
sg358
F0.0
s(lp739
(g210
I25
tp740
atp741
a(S'goed'
p742
(dp743
S'ADV'
p744
F0.025438
sS'NOUN'
p745
F0.424071
sS'ADJ'
p746
F0.550491
s(lp747
tp748
a(S'past'
p749
(dp750
S'VERB'
p751
F1.0
s(lp752
(g217
I26
tp753
atp754
a(S'bij'
p755
(dp756
S'ADV'
p757
F0.028847
sS'NOUN'
p758
F0.0
sS'ADJ'
p759
F0.0
sS'ADP'
p760
F0.971153
s(lp761
(g224
I27
tp762
atp763
a(S'het'
p764
(dp765
S'PRON'
p766
F0.000952
sS'DET'
p767
F0.999048
s(lp768
tp769
a(S'instrument'
p770
(dp771
S'NOUN'
p772
F1.0
s(lp773
(g240
I31
tp774
atp775
a(S'van'
p776
(dp777
S'ADP'
p778
F1.0
s(lp779
(g309
I38
tp780
atp781
a(S'de'
p782
(dp783
S'DET'
p784
F1.0
s(lp785
(g233
I28
tp786
atp787
a(S'macrofinanci\xc3\xable'
p788
(dp789
S'NOUN'
p790
F0.107857
sS'ADJ'
p791
F0.892143
s(lp792
(g262
I29
tp793
atp794
a(S'bijstand'
p795
(dp796
S'NOUN'
p797
F1.0
s(lp798
(g254
I30
tp799
atp800
a(g10
(dp801
g12
F1.0
s(lp802
(g10
I33
tp803
atp804
a(S'of'
p805
(dp806
S'CONJ'
p807
F1.0
s(lp808
(g269
I32
tp809
atp810
a(S'bij'
p811
(dp812
S'ADV'
p813
F0.019449
sS'NOUN'
p814
F0.0
sS'ADJ'
p815
F0.000143
sS'ADP'
p816
F0.980408
s(lp817
(g289
I36
tp818
atp819
a(S'crisissituaties'
p820
(dp821
S'NOUN'
p822
F1.0
s(lp823
(g302
I37
tp824
atp825
a(S'in'
p826
(dp827
S'ADV'
p828
F0.003445
sS'VERB'
p829
F2e-06
sS'ADP'
p830
F0.996553
s(lp831
(g325
I0
tp832
atp833
a(S'het'
p834
(dp835
S'PRON'
p836
F0.002502
sS'DET'
p837
F0.997498
s(lp838
(g332
I1
tp839
atp840
a(S'algemeen'
p841
(dp842
S'ADJ'
p843
F0.320438
sS'NOUN'
p844
F0.679562
s(lp845
(g153
I18
tp846
atp847
a(g12
(dp848
g12
F1.0
s(lp849
(g12
I40
tp850
atp851
asS'de'
p852
(lp853
(S'gleichzeitig'
p854
(dp855
S'ADJ'
p856
F1.0
s(lp857
(g7
I2
tp858
atp859
a(S'akzeptieren'
p860
(dp861
S'VERB'
p862
F1.0
s(lp863
(g48
I9
tp864
atp865
a(S'wir'
p866
(dp867
S'PRON'
p868
F1.0
s(lp869
(g41
I7
tp870
atp871
a(S'alle'
p872
(dp873
S'PRON'
p874
F1.0
s(lp875
(g56
I8
tp876
atp877
a(S'wie'
p878
(dp879
S'CONJ'
p880
F0.9999930000000001
s(lp881
tp882
a(S'ich'
p883
(dp884
S'PRON'
p885
F1.0
s(lp886
(g20
I5
tp887
atp888
a(S'denke'
p889
(dp890
S'VERB'
p891
F1.0
s(lp892
(g34
I6
tp893
atp894
a(g10
(dp895
g12
F1.0
s(lp896
(g10
I4
tp897
atp898
a(S'dass'
p899
(dp900
S'CONJ'
p901
F1.0
s(lp902
(g65
I10
tp903
atp904
a(S'ein'
p905
(dp906
S'NUM'
p907
F4.7e-05
sS'DET'
p908
F0.999944
s(lp909
(g74
I11
tp910
atp911
a(S'langwieriges'
p912
(dp913
S'ADJ'
p914
F1.0
s(lp915
(g102
I12
tp916
atp917
a(S'gesetzgebungsverfahren'
p918
(dp919
S'ADJ'
p920
F0.048133
sS'NOUN'
p921
F0.945928
s(lp922
(g89
I13
tp923
atp924
a(S'unter'
p925
(dp926
S'PRT'
p927
F1.5e-05
sS'ADP'
p928
F0.999985
s(lp929
tp930
a(S'einschluss'
p931
(dp932
S'ADJ'
p933
F0.010588
sS'NOUN'
p934
F0.984106
s(lp935
(g112
I15
tp936
atp937
a(S'eines'
p938
(dp939
S'PRON'
p940
F0.002771
sS'DET'
p941
F0.996725
s(lp942
(g74
I16
tp943
atp944
a(S'langen'
p945
(dp946
S'VERB'
p947
F7.5e-05
sS'ADJ'
p948
F0.999925
s(lp949
(g129
I17
tp950
atp951
a(S'iterativen'
p952
(dp953
S'NOUN'
p954
F0.000991
sS'ADJ'
p955
F0.999009
s(lp956
(g153
I18
tp957
atp958
a(S'verfahrens'
p959
(dp960
S'ADJ'
p961
F0.002417
sS'NOUN'
p962
F0.992611
s(lp963
(g136
I19
tp964
atp965
a(S'innerhalb'
p966
(dp967
S'ADJ'
p968
F0.001772
sS'ADP'
p969
F0.998228
s(lp970
(g161
I20
tp971
atp972
a(S'der'
p973
(dp974
S'PRON'
p975
F6.7e-05
sS'DET'
p976
F0.999928
s(lp977
(g170
I21
tp978
atp979
a(S'verschiedenen'
p980
(dp981
S'ADJ'
p982
F1.0
s(lp983
(g177
I22
tp984
atp985
a(S'institutionen'
p986
(dp987
S'ADJ'
p988
F0.010547
sS'NOUN'
p989
F0.984774
s(lp990
(g184
I23
tp991
atp992
a(S'nicht'
p993
(dp994
S'PRT'
p995
F1.0
s(lp996
(g210
I25
tp997
atp998
a(S'wirklich'
p999
(dp1000
S'ADJ'
p1001
F1.0
s(lp1002
(g282
I34
tp1003
atp1004
a(S'an'
p1005
(dp1006
S'PRT'
p1007
F0.00659
sS'ADP'
p1008
F0.992804
s(lp1009
tp1010
a(S'das'
p1011
(dp1012
S'PRON'
p1013
F0.001535
sS'DET'
p1014
F0.99841
s(lp1015
tp1016
a(S'instrument'
p1017
(dp1018
S'ADJ'
p1019
F9.3e-05
sS'NOUN'
p1020
F0.999761
s(lp1021
(g240
I31
tp1022
atp1023
a(S'der'
p1024
(dp1025
S'PRON'
p1026
F2e-05
sS'DET'
p1027
F0.999972
s(lp1028
(g233
I28
tp1029
atp1030
a(S'makrofinanzhilfe'
p1031
(dp1032
S'ADJ'
p1033
F0.002341
sS'NOUN'
p1034
F0.997529
s(lp1035
(g262
I29
tp1036
atp1037
a(S'oder'
p1038
(dp1039
S'CONJ'
p1040
F1.0
s(lp1041
(g269
I32
tp1042
atp1043
a(S'die'
p1044
(dp1045
S'PRON'
p1046
F0.003059
sS'DET'
p1047
F0.994048
s(lp1048
(g289
I36
tp1049
atp1050
a(S'krisensituation'
p1051
(dp1052
S'ADJ'
p1053
F0.000404
sS'NOUN'
p1054
F0.999476
s(lp1055
(g316
I39
tp1056
atp1057
a(S'angepasst'
p1058
(dp1059
S'VERB'
p1060
F0.98261
sS'ADJ'
p1061
F0.01739
s(lp1062
(g217
I26
tp1063
atp1064
a(S'ist'
p1065
(dp1066
S'VERB'
p1067
F1.0
s(lp1068
tp1069
a(g12
(dp1070
g12
F1.0
s(lp1071
(g12
I40
tp1072
atp1073
asS'it'
p1074
(lp1075
(S'al'
p1076
(dp1077
S'ADP'
p1078
F1.0
s(lp1079
(g325
I0
tp1080
atp1081
a(S'contempo'
p1082
(dp1083
S'NOUN'
p1084
F1.0
s(lp1085
(g7
I2
tp1086
atp1087
a(S'mi'
p1088
(dp1089
S'PRON'
p1090
F1.0
s(lp1091
(g20
I5
tp1092
atp1093
a(S'pare'
p1094
(dp1095
S'VERB'
p1096
F0.990917
sS'NOUN'
p1097
F0.009083
s(lp1098
(g34
I6
tp1099
atp1100
a(S'siamo'
p1101
(dp1102
S'VERB'
p1103
F1.0
s(lp1104
(g41
I7
tp1105
atp1106
a(S'tutti'
p1107
(dp1108
S'PRON'
p1109
F0.176849
sS'ADJ'
p1110
F0.823151
s(lp1111
(g56
I8
tp1112
atp1113
a(S"d'"
p1114
(dp1115
g358
F1.0
s(lp1116
(g48
I9
tp1117
atp1118
a(S'accordo'
p1119
(dp1120
S'VERB'
p1121
F0.00403
sS'NOUN'
p1122
F0.99597
s(lp1123
(g48
I9
tp1124
atp1125
a(S'sul'
p1126
(dp1127
S'ADP'
p1128
F1.0
s(lp1129
tp1130
a(S'fatto'
p1131
(dp1132
S'VERB'
p1133
F0.0122
sS'NOUN'
p1134
F0.9878
s(lp1135
(g48
I9
tp1136
atp1137
a(S'che'
p1138
(dp1139
S'PRON'
p1140
F0.671018
sS'CONJ'
p1141
F0.32515
sS'ADJ'
p1142
F0.003832
s(lp1143
(g65
I10
tp1144
atp1145
a(S'una'
p1146
(dp1147
S'PRON'
p1148
F0.000219
sS'DEF'
p1149
F0.999781
s(lp1150
(g74
I11
tp1151
atp1152
a(S'lunga'
p1153
(dp1154
S'ADJ'
p1155
F1.0
s(lp1156
(g102
I12
tp1157
atp1158
a(S'procedura'
p1159
(dp1160
S'NOUN'
p1161
F1.0
s(lp1162
(g81
I14
tp1163
atp1164
a(S'legislativa'
p1165
(dp1166
S'ADJ'
p1167
F1.0
s(lp1168
(g89
I13
tp1169
atp1170
a(S'con'
p1171
(dp1172
S'ADP'
p1173
F1.0
s(lp1174
(g112
I15
tp1175
atp1176
a(S'un'
p1177
(dp1178
S'PRON'
p1179
F0.00172
sS'DEF'
p1180
F0.99828
s(lp1181
(g74
I16
tp1182
atp1183
a(S'lungo'
p1184
(dp1185
S'ADJ'
p1186
F0.9885
sS'ADP'
p1187
F0.0115
s(lp1188
(g129
I17
tp1189
atp1190
a(S'processo'
p1191
(dp1192
S'VERB'
p1193
F0.001429
sS'NOUN'
p1194
F0.998571
s(lp1195
(g136
I19
tp1196
atp1197
a(S'interattivo'
p1198
(dp1199
S'ADJ'
p1200
F1.0
s(lp1201
(g153
I18
tp1202
atp1203
a(S'tra'
p1204
(dp1205
S'CONJ'
p1206
F0.000481
sS'ADP'
p1207
F0.999519
s(lp1208
(g161
I20
tp1209
atp1210
a(S'varie'
p1211
(dp1212
S'ADJ'
p1213
F1.0
s(lp1214
(g177
I22
tp1215
atp1216
a(S'istituzioni'
p1217
(dp1218
S'NOUN'
p1219
F1.0
s(lp1220
(g184
I23
tp1221
atp1222
a(S'non'
p1223
(dp1224
S'ADV'
p1225
F1.0
s(lp1226
(g210
I25
tp1227
atp1228
a(S'sia'
p1229
(dp1230
S'CONJ'
p1231
F0.466627
sS'VERB'
p1232
F0.533373
s(lp1233
(g202
I24
tp1234
atp1235
a(S'idonea'
p1236
(dp1237
S'ADJ'
p1238
F1.0
s(lp1239
(g217
I26
tp1240
atp1241
a(S'per'
p1242
(dp1243
S'CONJ'
p1244
F0.024172
sS'ADP'
p1245
F0.975828
s(lp1246
(g224
I27
tp1247
atp1248
a(S'questo'
p1249
(dp1250
S'PRON'
p1251
F1.0
s(lp1252
(g233
I28
tp1253
atp1254
a(S'strumento'
p1255
(dp1256
S'VERB'
p1257
F0.041105
sS'NOUN'
p1258
F0.958895
s(lp1259
(g240
I31
tp1260
atp1261
a(S'di'
p1262
(dp1263
S'CONJ'
p1264
F4e-06
sS'ADP'
p1265
F0.999996
s(lp1266
tp1267
a(S'assistenza'
p1268
(dp1269
S'NOUN'
p1270
F1.0
s(lp1271
(g254
I30
tp1272
atp1273
a(S'macrofinanziaria'
p1274
(dp1275
S'NOUN'
p1276
F1.0
s(lp1277
tp1278
a(S'e'
p1279
(dp1280
S'CONJ'
p1281
F1.0
s(lp1282
(g269
I32
tp1283
atp1284
a(g10
(dp1285
g12
F1.0
s(lp1286
(g10
I33
tp1287
atp1288
a(S'in'
p1289
(dp1290
S'ADP'
p1291
F1.0
s(lp1292
(g282
I34
tp1293
atp1294
a(S'genere'
p1295
(dp1296
S'NOUN'
p1297
F1.0
s(lp1298
(g262
I29
tp1299
atp1300
a(g10
(dp1301
g12
F1.0
s(lp1302
(g10
I35
tp1303
atp1304
a(S'per'
p1305
(dp1306
S'CONJ'
p1307
F0.104984
sS'ADP'
p1308
F0.895016
s(lp1309
(g289
I36
tp1310
atp1311
a(S'le'
p1312
(dp1313
S'PRON'
p1314
F8e-05
sS'DET'
p1315
F0.99992
s(lp1316
tp1317
a(S'situazioni'
p1318
(dp1319
S'NOUN'
p1320
F1.0
s(lp1321
(g302
I37
tp1322
atp1323
a(S'di'
p1324
(dp1325
S'CONJ'
p1326
F4e-06
sS'ADP'
p1327
F0.999996
s(lp1328
(g309
I38
tp1329
atp1330
a(S'crisi'
p1331
(dp1332
S'NOUN'
p1333
F1.0
s(lp1334
(g316
I39
tp1335
atp1336
a(g12
(dp1337
g12
F1.0
s(lp1338
(g12
I40
tp1339
atp1340
asS'sk'
p1341
(lp1342
(S'z\xc3\xa1rove\xc5\x88'
p1343
(dp1344
S'ADV'
p1345
F1.0
s(lp1346
(g7
I2
tp1347
atp1348
a(S'si'
p1349
(dp1350
S'PRT'
p1351
F0.921966
sS'VERB'
p1352
F0.078033
sg358
F0.0
s(lp1353
(g34
I6
tp1354
atp1355
a(S'v\xc5\xa1ak'
p1356
(dp1357
g358
F0.927775
sS'CONJ'
p1358
F0.072225
s(lp1359
(g346
I3
tp1360
atp1361
a(S'mysl\xc3\xadm'
p1362
(dp1363
S'VERB'
p1364
F1.0
s(lp1365
tp1366
a(g10
(dp1367
g12
F1.0
s(lp1368
(g10
I4
tp1369
atp1370
a(S'\xc5\xbee'
p1371
(dp1372
g358
F0.00033
sS'CONJ'
p1373
F0.99967
s(lp1374
(g34
I6
tp1375
atp1376
a(S'v\xc5\xa1etci'
p1377
(dp1378
S'PRON'
p1379
F1.0
s(lp1380
(g56
I8
tp1381
atp1382
a(S'budeme'
p1383
(dp1384
S'VERB'
p1385
F1.0
s(lp1386
(g41
I7
tp1387
atp1388
a(S's\xc3\xbahlasi\xc5\xa5'
p1389
(dp1390
S'VERB'
p1391
F1.0
s(lp1392
(g48
I9
tp1393
atp1394
a(S's'
p1395
(dp1396
S'PRT'
p1397
F0.000114
sS'CONJ'
p1398
F6.1e-05
sS'NOUN'
p1399
F4e-06
sS'ADP'
p1400
F0.99974
sg358
F8.199999999999999e-05
s(lp1401
tp1402
a(S't\xc3\xbdm'
p1403
(dp1404
S'PRON'
p1405
F0.9999899999999999
sS'CONJ'
p1406
F1e-05
s(lp1407
(g48
I9
tp1408
atp1409
a(g10
(dp1410
g12
F1.0
s(lp1411
tp1412
a(S'\xc5\xbee'
p1413
(dp1414
g358
F0.000496
sS'CONJ'
p1415
F0.999504
s(lp1416
(g65
I10
tp1417
atp1418
a(S'zd\xc4\xbahav\xc3\xbd'
p1419
(dp1420
S'ADJ'
p1421
F1.0
s(lp1422
(g102
I12
tp1423
atp1424
a(S'legislat\xc3\xadvny'
p1425
(dp1426
S'ADJ'
p1427
F1.0
s(lp1428
(g89
I13
tp1429
atp1430
a(S'postup'
p1431
(dp1432
S'NOUN'
p1433
F1.0
s(lp1434
(g81
I14
tp1435
atp1436
a(g1395
(dp1437
g358
F0.001088
sS'CONJ'
p1438
F8.3e-05
sS'NOUN'
p1439
F1.8e-05
sS'ADP'
p1440
F0.998785
sS'PRT'
p1441
F2.6e-05
s(lp1442
(g112
I15
tp1443
atp1444
a(S'dlh\xc3\xbdm'
p1445
(dp1446
S'ADJ'
p1447
F1.0
s(lp1448
(g153
I18
tp1449
atp1450
a(S're\xc5\xa5azen\xc3\xadm'
p1451
(dp1452
S'ADJ'
p1453
F0.0028849999999999995
sS'VERB'
p1454
F5e-06
sS'NOUN'
p1455
F0.99711
s(lp1456
(g153
I18
tp1457
atp1458
a(S'krokov'
p1459
(dp1460
S'NOUN'
p1461
F1.0
s(lp1462
(g153
I18
tp1463
atp1464
a(S'r\xc3\xb4znych'
p1465
(dp1466
S'ADJ'
p1467
F1.0
s(lp1468
(g177
I22
tp1469
atp1470
a(S'in\xc5\xa1tit\xc3\xbaci\xc3\xad'
p1471
(dp1472
S'NOUN'
p1473
F1.0
s(lp1474
(g184
I23
tp1475
atp1476
a(S'nie'
p1477
(dp1478
g358
F1.0
s(lp1479
(g210
I25
tp1480
atp1481
a(S'je'
p1482
(dp1483
S'PRON'
p1484
F9e-06
sS'VERB'
p1485
F0.999983
sg358
F9e-06
s(lp1486
(g202
I24
tp1487
atp1488
a(S'prisp\xc3\xb4soben\xc3\xbd'
p1489
(dp1490
S'VERB'
p1491
F1.0
s(lp1492
(g217
I26
tp1493
atp1494
a(S'n\xc3\xa1stroju'
p1495
(dp1496
S'NOUN'
p1497
F1.0
s(lp1498
(g240
I31
tp1499
atp1500
a(S'makrofinan\xc4\x8dnej'
p1501
(dp1502
S'NOUN'
p1503
F5.7e-05
sS'ADJ'
p1504
F0.999943
s(lp1505
(g262
I29
tp1506
atp1507
a(S'pomoci'
p1508
(dp1509
S'NOUN'
p1510
F1.0
s(lp1511
(g254
I30
tp1512
atp1513
a(g10
(dp1514
g12
F1.0
s(lp1515
(g10
I33
tp1516
atp1517
a(S'nehovoriac'
p1518
(dp1519
S'VERB'
p1520
F1.0
s(lp1521
tp1522
a(S'o'
p1523
(dp1524
g358
F7.1e-05
sS'CONJ'
p1525
F8e-06
sS'NOUN'
p1526
F1.9999999999999998e-05
sS'ADP'
p1527
F0.9999
s(lp1528
(g289
I36
tp1529
atp1530
a(S'stavoch'
p1531
(dp1532
S'NOUN'
p1533
F1.0
s(lp1534
(g153
I18
tp1535
atp1536
a(S'kr\xc3\xadzy'
p1537
(dp1538
S'NOUN'
p1539
F1.0
s(lp1540
(g316
I39
tp1541
atp1542
a(g12
(dp1543
g12
F1.0
s(lp1544
(g12
I40
tp1545
atp1546
asS'pl'
p1547
(lp1548
(S'jednocze\xc5\x9bnie'
p1549
(dp1550
S'ADV'
p1551
F1.0
s(lp1552
(g7
I2
tp1553
atp1554
a(S'wszyscy'
p1555
(dp1556
S'ADJ'
p1557
F0.04975
sS'NOUN'
p1558
F0.95025
s(lp1559
(g56
I8
tp1560
atp1561
a(S'zgodzimy'
p1562
(dp1563
S'VERB'
p1564
F1.0
s(lp1565
(g153
I18
tp1566
atp1567
a(S'si\xc4\x99'
p1568
(dp1569
S'PRT'
p1570
F1.0
s(lp1571
(g48
I9
tp1572
atp1573
a(g10
(dp1574
g358
F0.0
sg12
F1.0
s(lp1575
tp1576
a(S'\xc5\xbce'
p1577
(dp1578
S'PRT'
p1579
F0.000684
sS'CONJ'
p1580
F0.9993150000000001
s(lp1581
(g65
I10
tp1582
atp1583
a(S'przewlek\xc5\x82a'
p1584
(dp1585
S'NOUN'
p1586
F0.024408
sS'VERB'
p1587
F0.793867
sS'ADJ'
p1588
F0.181727
s(lp1589
(g153
I18
tp1590
atp1591
a(S'procedura'
p1592
(dp1593
S'NOUN'
p1594
F1.0
s(lp1595
(g153
I18
tp1596
atp1597
a(S'legislacyjna'
p1598
(dp1599
S'NOUN'
p1600
F0.035351
sS'VERB'
p1601
F0.000521
sS'ADJ'
p1602
F0.964128
s(lp1603
(g153
I18
tp1604
atp1605
a(S'z'
p1606
(dp1607
S'PRT'
p1608
F0.000512
sS'VERB'
p1609
F0.0
sS'NOUN'
p1610
F1e-06
sS'ADP'
p1611
F0.9994870000000001
sg358
F1e-06
s(lp1612
(g112
I15
tp1613
atp1614
a(S'd\xc5\x82ugotrwa\xc5\x82ym'
p1615
(dp1616
S'ADV'
p1617
F0.000319
sS'NOUN'
p1618
F0.49848499999999984
sS'VERB'
p1619
F0.07024699999999999
sS'ADJ'
p1620
F0.43095099999999986
s(lp1621
(g153
I18
tp1622
atp1623
a(g10
(dp1624
g358
F0.0
sg12
F1.0
s(lp1625
tp1626
a(S'powtarzalnym'
p1627
(dp1628
S'ADV'
p1629
F0.000251
sS'NOUN'
p1630
F0.00020799999999999996
sS'VERB'
p1631
F0.002641
sS'ADJ'
p1632
F0.9968960000000001
s(lp1633
tp1634
a(S'procesem'
p1635
(dp1636
S'NOUN'
p1637
F1.0
s(lp1638
(g153
I18
tp1639
atp1640
a(S'mi\xc4\x99dzy'
p1641
(dp1642
S'ADP'
p1643
F1.0
s(lp1644
(g161
I20
tp1645
atp1646
a(S'r\xc3\xb3\xc5\xbcnymi'
p1647
(dp1648
S'ADJ'
p1649
F1.0
s(lp1650
(g177
I22
tp1651
atp1652
a(S'instytucjami'
p1653
(dp1654
S'NOUN'
p1655
F1.0
s(lp1656
(g184
I23
tp1657
atp1658
a(S'nie'
p1659
(dp1660
S'ADV'
p1661
F4.7e-05
sS'PRT'
p1662
F0.977453
sS'CONJ'
p1663
F0.022341
sS'NOUN'
p1664
F7e-06
sS'PRON'
p1665
F0.00015099999999999998
s(lp1666
(g210
I25
tp1667
atp1668
a(S'jest'
p1669
(dp1670
S'VERB'
p1671
F1.0
s(lp1672
(g202
I24
tp1673
atp1674
a(S'dostosowana'
p1675
(dp1676
S'ADV'
p1677
F0.001086
sS'ADJ'
p1678
F0.161198
sS'VERB'
p1679
F0.6310159999999999
sS'NOUN'
p1680
F0.20670100000000002
s(lp1681
(g217
I26
tp1682
atp1683
a(S'do'
p1684
(dp1685
g358
F0.0
sS'NOUN'
p1686
F0.000163
sS'ADP'
p1687
F0.999837
s(lp1688
(g224
I27
tp1689
atp1690
a(S'instrumentu'
p1691
(dp1692
S'NOUN'
p1693
F1.0
s(lp1694
(g240
I31
tp1695
atp1696
a(S'pomocy'
p1697
(dp1698
S'NOUN'
p1699
F0.9999990000000001
s(lp1700
(g254
I30
tp1701
atp1702
a(S'makrofinansowej'
p1703
(dp1704
S'NOUN'
p1705
F0.056470000000000006
sS'VERB'
p1706
F0.000747
sS'ADJ'
p1707
F0.9427829999999998
s(lp1708
(g262
I29
tp1709
atp1710
a(g10
(dp1711
g358
F0.0
sg12
F1.0
s(lp1712
(g10
I33
tp1713
atp1714
a(S'ani'
p1715
(dp1716
S'PRT'
p1717
F0.056306
sS'CONJ'
p1718
F0.943694
s(lp1719
(g269
I32
tp1720
atp1721
a(S'w'
p1722
(dp1723
S'ADJ'
p1724
F0.0
sg358
F0.0
sS'NOUN'
p1725
F0.0
sS'ADP'
p1726
F0.9999999999999999
s(lp1727
tp1728
a(S'istocie'
p1729
(dp1730
S'NOUN'
p1731
F1.0
s(lp1732
(g282
I34
tp1733
atp1734
a(S'do'
p1735
(dp1736
g358
F0.0
sS'NOUN'
p1737
F4.7e-05
sS'ADP'
p1738
F0.999953
s(lp1739
(g289
I36
tp1740
atp1741
a(S'sytuacji'
p1742
(dp1743
S'NOUN'
p1744
F1.0000010000000001
s(lp1745
(g302
I37
tp1746
atp1747
a(S'kryzysowych'
p1748
(dp1749
S'ADJ'
p1750
F1.0
s(lp1751
(g316
I39
tp1752
atp1753
a(g12
(dp1754
g12
F1.0
s(lp1755
(g12
I40
tp1756
atp1757
asS'sl'
p1758
(lp1759
(S'obenem'
p1760
(dp1761
S'ADV'
p1762
F1.0
s(lp1763
(g7
I2
tp1764
atp1765
a(S'menim'
p1766
(dp1767
S'VERB'
p1768
F1.0
s(lp1769
tp1770
a(g10
(dp1771
g12
F1.0
s(lp1772
(g10
I4
tp1773
atp1774
a(S'da'
p1775
(dp1776
S'PRT'
p1777
F5e-06
sS'CONJ'
p1778
F0.99997
sS'VERB'
p1779
F2.4e-05
sg358
F1e-06
s(lp1780
(g34
I6
tp1781
atp1782
a(S'se'
p1783
(dp1784
S'PRON'
p1785
F0.999997
sg358
F3e-06
s(lp1786
(g41
I7
tp1787
atp1788
a(S'vsi'
p1789
(dp1790
S'PRON'
p1791
F1.0
s(lp1792
(g56
I8
tp1793
atp1794
a(S'strinjamo'
p1795
(dp1796
S'VERB'
p1797
F1.0
s(lp1798
(g48
I9
tp1799
atp1800
a(g10
(dp1801
g12
F1.0
s(lp1802
tp1803
a(S'da'
p1804
(dp1805
S'PRT'
p1806
F6e-05
sS'CONJ'
p1807
F0.999718
sS'VERB'
p1808
F0.000221
sg358
F1e-06
s(lp1809
(g65
I10
tp1810
atp1811
a(S'dolgotrajen'
p1812
(dp1813
S'ADJ'
p1814
F1.0
s(lp1815
(g102
I12
tp1816
atp1817
a(S'zakonodajni'
p1818
(dp1819
S'ADV'
p1820
F3.6e-05
sS'NOUN'
p1821
F0.0031049999999999984
sS'VERB'
p1822
F0.002164
sS'ADJ'
p1823
F0.994696
s(lp1824
(g89
I13
tp1825
atp1826
a(S'postopek'
p1827
(dp1828
S'NOUN'
p1829
F1.0
s(lp1830
(g81
I14
tp1831
atp1832
a(g10
(dp1833
g12
F1.0
s(lp1834
(g10
I33
tp1835
atp1836
a(S'ki'
p1837
(dp1838
S'CONJ'
p1839
F1.0
s(lp1840
tp1841
a(S'vklju\xc4\x8duje'
p1842
(dp1843
S'VERB'
p1844
F1.0
s(lp1845
(g112
I15
tp1846
atp1847
a(S'dolg'
p1848
(dp1849
S'NOUN'
p1850
F0.227335
sS'ADJ'
p1851
F0.7726660000000001
s(lp1852
(g129
I17
tp1853
atp1854
a(g10
(dp1855
g12
F1.0
s(lp1856
(g10
I35
tp1857
atp1858
a(S'ponavljajo\xc4\x8d'
p1859
(dp1860
S'ADV'
p1861
F0.58888
sS'ADJ'
p1862
F0.05367500000000001
sS'CONJ'
p1863
F0.050802
sS'VERB'
p1864
F0.0038870000000000003
sS'NOUN'
p1865
F0.302759
s(lp1866
(g153
I18
tp1867
atp1868
a(S'se'
p1869
(dp1870
S'PRON'
p1871
F0.999432
sg358
F0.000568
s(lp1872
(g153
I18
tp1873
atp1874
a(S'proces'
p1875
(dp1876
S'NOUN'
p1877
F1.0
s(lp1878
(g136
I19
tp1879
atp1880
a(S'med'
p1881
(dp1882
S'NOUN'
p1883
F1.2e-05
sS'ADP'
p1884
F0.999988
s(lp1885
(g161
I20
tp1886
atp1887
a(S'razli\xc4\x8dnimi'
p1888
(dp1889
S'ADJ'
p1890
F1.0
s(lp1891
(g177
I22
tp1892
atp1893
a(S'institucijami'
p1894
(dp1895
S'NOUN'
p1896
F1.0
s(lp1897
(g184
I23
tp1898
atp1899
a(g10
(dp1900
g12
F1.0
s(lp1901
tp1902
a(S'ni'
p1903
(dp1904
S'VERB'
p1905
F1.0
s(lp1906
(g210
I25
tp1907
atp1908
a(S'prilagojen'
p1909
(dp1910
S'ADJ'
p1911
F1.0
s(lp1912
(g217
I26
tp1913
atp1914
a(S'instrumentu'
p1915
(dp1916
S'ADV'
p1917
F0.00182
sS'ADJ'
p1918
F0.020127000000000003
sS'VERB'
p1919
F0.000326
sS'NOUN'
p1920
F0.9777250000000001
s(lp1921
(g240
I31
tp1922
atp1923
a(S'makrofinan\xc4\x8dne'
p1924
(dp1925
S'ADV'
p1926
F6e-06
sS'NOUN'
p1927
F0.0008349999999999997
sS'VERB'
p1928
F0.00015200000000000004
sS'ADJ'
p1929
F0.9990079999999999
s(lp1930
(g262
I29
tp1931
atp1932
a(S'pomo\xc4\x8di'
p1933
(dp1934
S'NOUN'
p1935
F1.0
s(lp1936
(g254
I30
tp1937
atp1938
a(S'ali'
p1939
(dp1940
S'ADV'
p1941
F0.013688
sS'CONJ'
p1942
F0.986312
s(lp1943
(g269
I32
tp1944
atp1945
a(S'pravzaprav'
p1946
(dp1947
S'PRT'
p1948
F1.0
s(lp1949
tp1950
a(S'kriznim'
p1951
(dp1952
S'ADJ'
p1953
F1.0
s(lp1954
(g153
I18
tp1955
atp1956
a(S'razmeram'
p1957
(dp1958
S'NOUN'
p1959
F1.0
s(lp1960
(g302
I37
tp1961
atp1962
a(g12
(dp1963
g12
F1.0
s(lp1964
(g12
I40
tp1965
atp1966
asS'es'
p1967
(lp1968
(S'al'
p1969
(dp1970
S'ADV'
p1971
F1.0
s(lp1972
(g325
I0
tp1973
atp1974
a(S'mismo'
p1975
(dp1976
S'ADV'
p1977
F1.0
s(lp1978
(g7
I2
tp1979
atp1980
a(S'tiempo'
p1981
(dp1982
S'ADV'
p1983
F1.0
s(lp1984
(g346
I3
tp1985
atp1986
a(g10
(dp1987
g12
F1.0
s(lp1988
(g10
I4
tp1989
atp1990
a(S'todos'
p1991
(dp1992
S'ADJ'
p1993
F1.0
s(lp1994
(g56
I8
tp1995
atp1996
a(S'estaremos'
p1997
(dp1998
S'VERB'
p1999
F1.0
s(lp2000
(g41
I7
tp2001
atp2002
a(S'de'
p2003
(dp2004
g358
F1e-06
sS'CONJ'
p2005
F0.0
sS'ADP'
p2006
F0.999999
s(lp2007
tp2008
a(S'acuerdo'
p2009
(dp2010
S'VERB'
p2011
F0.000219
sS'NOUN'
p2012
F0.999781
s(lp2013
(g48
I9
tp2014
atp2015
a(S'en'
p2016
(dp2017
g358
F0.0
sS'CONJ'
p2018
F0.00012
sS'ADP'
p2019
F0.99988
s(lp2020
tp2021
a(S'que'
p2022
(dp2023
g358
F0.0
sS'CONJ'
p2024
F1.0
s(lp2025
(g65
I10
tp2026
atp2027
a(S'un'
p2028
(dp2029
g358
F0.0
sS'DET'
p2030
F1.0
s(lp2031
(g74
I11
tp2032
atp2033
a(S'procedimiento'
p2034
(dp2035
S'NOUN'
p2036
F1.0
s(lp2037
(g81
I14
tp2038
atp2039
a(S'legislativo'
p2040
(dp2041
S'ADJ'
p2042
F1.0
s(lp2043
(g89
I13
tp2044
atp2045
a(S'minucioso'
p2046
(dp2047
S'ADJ'
p2048
F1.0
s(lp2049
(g153
I18
tp2050
atp2051
a(S'que'
p2052
(dp2053
g358
F1e-06
sS'CONJ'
p2054
F0.999999
s(lp2055
(g112
I15
tp2056
atp2057
a(S'suponga'
p2058
(dp2059
S'VERB'
p2060
F1.0
s(lp2061
tp2062
a(S'un'
p2063
(dp2064
g358
F9e-06
sS'DET'
p2065
F0.999991
s(lp2066
(g74
I16
tp2067
atp2068
a(S'largo'
p2069
(dp2070
S'NOUN'
p2071
F0.162543
sS'ADJ'
p2072
F0.837457
s(lp2073
(g129
I17
tp2074
atp2075
a(S'y'
p2076
(dp2077
g358
F0.000911
sS'CONJ'
p2078
F0.999089
s(lp2079
tp2080
a(S'repetitivo'
p2081
(dp2082
S'ADJ'
p2083
F1.0
s(lp2084
(g153
I18
tp2085
atp2086
a(S'proceso'
p2087
(dp2088
S'NOUN'
p2089
F1.0
s(lp2090
(g136
I19
tp2091
atp2092
a(S'entre'
p2093
(dp2094
g358
F3e-06
sS'ADP'
p2095
F0.999997
s(lp2096
(g161
I20
tp2097
atp2098
a(S'las'
p2099
(dp2100
S'PRON'
p2101
F0.0
sS'DET'
p2102
F1.0
s(lp2103
(g170
I21
tp2104
atp2105
a(S'diferentes'
p2106
(dp2107
S'ADJ'
p2108
F1.0
s(lp2109
(g177
I22
tp2110
atp2111
a(S'instituciones'
p2112
(dp2113
S'NOUN'
p2114
F1.0
s(lp2115
(g184
I23
tp2116
atp2117
a(S'no'
p2118
(dp2119
S'ADV'
p2120
F0.999956
sg358
F4.4e-05
s(lp2121
(g210
I25
tp2122
atp2123
a(S'se'
p2124
(dp2125
S'PRON'
p2126
F1.0
sS'VERB'
p2127
F0.0
s(lp2128
(g202
I24
tp2129
atp2130
a(S'adapta'
p2131
(dp2132
S'VERB'
p2133
F1.0
s(lp2134
(g217
I26
tp2135
atp2136
a(S'al'
p2137
(dp2138
S'CONJ'
p2139
F0.000159
sS'ADP'
p2140
F0.999841
s(lp2141
(g224
I27
tp2142
atp2143
a(S'instrumento'
p2144
(dp2145
S'NOUN'
p2146
F1.0
s(lp2147
(g240
I31
tp2148
atp2149
a(S'de'
p2150
(dp2151
g358
F2.9e-05
sS'CONJ'
p2152
F0.000449
sS'ADP'
p2153
F0.999522
s(lp2154
(g233
I28
tp2155
atp2156
a(S'ayuda'
p2157
(dp2158
S'NOUN'
p2159
F1.0
s(lp2160
(g254
I30
tp2161
atp2162
a(S'macrofinanciera'
p2163
(dp2164
S'NOUN'
p2165
F0.002383
sS'VERB'
p2166
F0.003343
sS'ADJ'
p2167
F0.994274
s(lp2168
(g262
I29
tp2169
atp2170
a(g1523
(dp2171
g358
F0.003889
sS'CONJ'
p2172
F0.996111
s(lp2173
(g269
I32
tp2174
atp2175
a(g10
(dp2176
g12
F1.0
s(lp2177
(g10
I33
tp2178
atp2179
a(S'realmente'
p2180
(dp2181
S'ADV'
p2182
F1.0
s(lp2183
(g282
I34
tp2184
atp2185
a(g10
(dp2186
g12
F1.0
s(lp2187
(g10
I35
tp2188
atp2189
a(g74
(dp2190
g358
F0.0018599999999999999
sS'CONJ'
p2191
F1e-05
sS'ADP'
p2192
F0.998129
s(lp2193
(g289
I36
tp2194
atp2195
a(S'las'
p2196
(dp2197
S'PRON'
p2198
F0.0
sS'DET'
p2199
F1.0
s(lp2200
tp2201
a(S'situaciones'
p2202
(dp2203
S'NOUN'
p2204
F1.0
s(lp2205
(g302
I37
tp2206
atp2207
a(S'de'
p2208
(dp2209
g358
F2.9e-05
sS'CONJ'
p2210
F0.000449
sS'ADP'
p2211
F0.999522
s(lp2212
(g309
I38
tp2213
atp2214
a(S'crisis'
p2215
(dp2216
S'NOUN'
p2217
F1.0
s(lp2218
(g316
I39
tp2219
atp2220
a(g12
(dp2221
g12
F1.0
s(lp2222
(g12
I40
tp2223
atp2224
as.