(dp0
S'fr'
p1
(lp2
(S'outre'
p3
(dp4
S'ADV'
p5
F0.629198
sS'VERB'
p6
F0.007244
sS'NOUN'
p7
F0.000655
sS'ADP'
p8
F0.362904
s(lp9
(S'addition'
p10
I1
tp11
atp12
a(S'la'
p13
(dp14
S'PRON'
p15
F1.9e-05
sS'DET'
p16
F0.999981
sS'NOUN'
p17
F0.0
s(lp18
(S'the'
p19
I3
tp20
atp21
a(S'justice'
p22
(dp23
S'NOUN'
p24
F1.0
s(lp25
tp26
a(S'des'
p27
(dp28
S'DET'
p29
F2.1e-05
sS'ADP'
p30
F0.999979
s(lp31
(S'of'
p32
I5
tp33
atp34
a(S'tribunaux'
p35
(dp36
S'NOUN'
p37
F1.0
s(lp38
(S'courts'
p39
I7
tp40
atp41
a(S','
p42
(dp43
S'.'
p44
F1.0
s(lp45
(g42
I8
tp46
atp47
a(S'nous'
p48
(dp49
S'PRON'
p50
F1.0
s(lp51
tp52
a(S'avons'
p53
(dp54
S'VERB'
p55
F1.0
s(lp56
(S'we'
p57
I9
tp58
atp59
a(S'la'
p60
(dp61
S'PRON'
p62
F2.6e-05
sS'DET'
p63
F0.999974
sS'NOUN'
p64
F0.0
s(lp65
(S'justice'
p66
I4
tp67
atp68
a(S'possibilit\xc3\xa9'
p69
(dp70
S'NOUN'
p71
F1.0
s(lp72
(S'can'
p73
I10
tp74
atp75
a(S'de'
p76
(dp77
S'ADP'
p78
F1.0
s(lp79
tp80
a(S'rendre'
p81
(dp82
S'VERB'
p83
F1.0
s(lp84
(S'offer'
p85
I11
tp86
atp87
a(S'une'
p88
(dp89
S'NOUN'
p90
F9.6e-05
sS'NUM'
p91
F0.007451
sS'DET'
p92
F0.992452
s(lp93
(S'a'
p94
I12
tp95
atp96
a(S'deuxi\xc3\xa8me'
p97
(dp98
S'NUM'
p99
F0.994855
sS'NOUN'
p100
F0.005145
s(lp101
(S'second'
p102
I13
tp103
atp104
a(S'forme'
p105
(dp106
S'VERB'
p107
F0.028329
sS'NOUN'
p108
F0.971671
s(lp109
(S'form'
p110
I14
tp111
atp112
a(S'de'
p113
(dp114
S'ADP'
p115
F1.0
s(lp116
(S'of'
p117
I15
tp118
atp119
a(S'justice'
p120
(dp121
S'NOUN'
p122
F1.0
s(lp123
(S'justice'
p124
I16
tp125
atp126
a(S'aux'
p127
(dp128
S'ADP'
p129
F1.0
s(lp130
(S'the'
p131
I18
tp132
atp133
a(S'victimes'
p134
(dp135
S'VERB'
p136
F0.0
sS'NOUN'
p137
F1.0
s(lp138
(S'victims'
p139
I19
tp140
atp141
a(S'en'
p142
(dp143
S'PRON'
p144
F0.070851
sS'ADP'
p145
F0.929149
s(lp146
(S'for'
p147
I17
tp148
atp149
a(S'offrant'
p150
(dp151
S'ADJ'
p152
F0.002587
sS'VERB'
p153
F0.974544
sS'NOUN'
p154
F0.022869
s(lp155
(S'and'
p156
I21
tp157
atp158
a(S'un'
p159
(dp160
S'NOUN'
p161
F0.00173
sS'NUM'
p162
F0.005468
sS'DET'
p163
F0.992802
s(lp164
(g94
I24
tp165
atp166
a(S'meilleur'
p167
(dp168
S'ADJ'
p169
F1.0
s(lp170
(S'better'
p171
I25
tp172
atp173
a(S'avenir'
p174
(dp175
S'NOUN'
p176
F1.0
s(lp177
(S'future'
p178
I26
tp179
atp180
a(S'\xc3\xa0'
p181
(dp182
S'ADP'
p183
F1.0
s(lp184
(S'for'
p185
I27
tp186
atp187
a(S'leurs'
p188
(dp189
S'PRON'
p190
F1.0
s(lp191
(S'their'
p192
I28
tp193
atp194
a(S'proches'
p195
(dp196
S'ADJ'
p197
F0.291144
sS'NOUN'
p198
F0.708856
s(lp199
(S'loved'
p200
I29
tp201
atp202
a(S'qui'
p203
(dp204
S'PRON'
p205
F1.0
s(lp206
(S'who'
p207
I31
tp208
atp209
a(S'ont'
p210
(dp211
S'VERB'
p212
F1.0
s(lp213
tp214
a(S'surv\xc3\xa9cu'
p215
(dp216
S'VERB'
p217
F1.0
s(lp218
(S'survived'
p219
I32
tp220
atp221
a(g44
(dp222
g44
F1.0
s(lp223
(g44
I33
tp224
atp225
asS'en'
p226
(lp227
(S'in'
p228
(dp229
S'ADV'
p230
F0.000791
sS'PRT'
p231
F0.0
sS'ADP'
p232
F0.999209
s(lp233
(g228
I0
tp234
atp235
a(g10
(dp236
S'NOUN'
p237
F1.0
s(lp238
(g10
I1
tp239
atp240
a(S'to'
p241
(dp242
S'ADV'
p243
F1e-06
sS'PRT'
p244
F0.999989
sS'ADP'
p245
F1.1e-05
s(lp246
(g241
I2
tp247
atp248
a(g19
(dp249
S'NOUN'
p250
F2e-06
sS'DET'
p251
F0.999998
s(lp252
(g19
I3
tp253
atp254
a(g66
(dp255
S'NOUN'
p256
F1.0
s(lp257
(g66
I4
tp258
atp259
a(g32
(dp260
S'ADP'
p261
F1.0
s(lp262
(g32
I5
tp263
atp264
a(S'the'
p265
(dp266
S'NOUN'
p267
F1.1e-05
sS'DET'
p268
F0.999989
s(lp269
(g265
I6
tp270
atp271
a(g39
(dp272
S'VERB'
p273
F0.000611
sS'NOUN'
p274
F0.999389
s(lp275
(g39
I7
tp276
atp277
a(g42
(dp278
g44
F1.0
s(lp279
(g42
I8
tp280
atp281
a(g57
(dp282
S'PRON'
p283
F1.0
s(lp284
(g57
I9
tp285
atp286
a(g73
(dp287
S'VERB'
p288
F1.0
sS'NOUN'
p289
F0.0
s(lp290
(g73
I10
tp291
atp292
a(g85
(dp293
S'ADJ'
p294
F0.0
sS'VERB'
p295
F0.999988
sS'NOUN'
p296
F1.1e-05
s(lp297
(g85
I11
tp298
atp299
a(g94
(dp300
S'NOUN'
p301
F0.0
sS'DET'
p302
F1.0
s(lp303
(g94
I12
tp304
atp305
a(g102
(dp306
S'ADV'
p307
F0.000105
sS'NOUN'
p308
F0.016801
sS'VERB'
p309
F1e-06
sS'ADJ'
p310
F0.983093
s(lp311
(g102
I13
tp312
atp313
a(g110
(dp314
S'VERB'
p315
F0.000641
sS'NOUN'
p316
F0.999359
s(lp317
(g110
I14
tp318
atp319
a(g117
(dp320
S'ADP'
p321
F1.0
s(lp322
(g117
I15
tp323
atp324
a(g124
(dp325
S'NOUN'
p326
F1.0
s(lp327
(g124
I16
tp328
atp329
a(g147
(dp330
S'ADP'
p331
F1.0
s(lp332
(g147
I17
tp333
atp334
a(g131
(dp335
S'NOUN'
p336
F1.1e-05
sS'DET'
p337
F0.999989
s(lp338
(g131
I18
tp339
atp340
a(g139
(dp341
S'NOUN'
p342
F1.0
s(lp343
(g139
I19
tp344
atp345
a(g42
(dp346
g44
F1.0
s(lp347
(g42
I20
tp348
atp349
a(g156
(dp350
S'CONJ'
p351
F0.999987
sS'NOUN'
p352
F1.3e-05
s(lp353
(g156
I21
tp354
atp355
a(S'that'
p356
(dp357
S'ADV'
p358
F0.010371
sS'DET'
p359
F0.989599
sS'ADP'
p360
F3e-05
s(lp361
(g356
I22
tp362
atp363
a(S'is'
p364
(dp365
S'VERB'
p366
F1.0
s(lp367
(g364
I23
tp368
atp369
a(g94
(dp370
S'NOUN'
p371
F0.0
sS'DET'
p372
F1.0
s(lp373
(g94
I24
tp374
atp375
a(g171
(dp376
S'ADV'
p377
F0.190326
sS'NOUN'
p378
F0.000341
sS'VERB'
p379
F2.4e-05
sS'ADJ'
p380
F0.809309
s(lp381
(g171
I25
tp382
atp383
a(g178
(dp384
S'ADJ'
p385
F0.238346
sS'NOUN'
p386
F0.761654
s(lp387
(g178
I26
tp388
atp389
a(g185
(dp390
S'ADP'
p391
F1.0
s(lp392
(g185
I27
tp393
atp394
a(g192
(dp395
S'PRON'
p396
F1.0
s(lp397
(g192
I28
tp398
atp399
a(g200
(dp400
S'VERB'
p401
F1.0
s(lp402
(g200
I29
tp403
atp404
a(S'ones'
p405
(dp406
S'NOUN'
p407
F1.0
s(lp408
(g405
I30
tp409
atp410
a(g207
(dp411
S'PRON'
p412
F1.0
s(lp413
(g207
I31
tp414
atp415
a(g219
(dp416
S'VERB'
p417
F1.0
s(lp418
(g219
I32
tp419
atp420
a(g44
(dp421
g44
F1.0
s(lp422
(g44
I33
tp423
atp424
asS'nl'
p425
(lp426
(S'in'
p427
(dp428
S'ADV'
p429
F0.004992
sS'VERB'
p430
F0.0
sS'ADP'
p431
F0.995008
s(lp432
(g228
I0
tp433
atp434
a(S'aanvulling'
p435
(dp436
S'NOUN'
p437
F1.0
s(lp438
(g10
I1
tp439
atp440
a(S'op'
p441
(dp442
S'ADV'
p443
F0.003384
sS'ADJ'
p444
F0.0
sS'ADP'
p445
F0.996616
s(lp446
(g241
I2
tp447
atp448
a(S'de'
p449
(dp450
S'DET'
p451
F1.0
s(lp452
(g19
I3
tp453
atp454
a(S'gerechtigheid'
p455
(dp456
S'NOUN'
p457
F1.0
s(lp458
(g66
I4
tp459
atp460
a(S'die'
p461
(dp462
S'PRON'
p463
F1.0
s(lp464
(g207
I31
tp465
atp466
a(S'via'
p467
(dp468
S'ADP'
p469
F1.0
s(lp470
(g32
I5
tp471
atp472
a(S'de'
p473
(dp474
S'DET'
p475
F1.0
s(lp476
(g265
I6
tp477
atp478
a(S'rechtbanken'
p479
(dp480
S'NOUN'
p481
F1.0
s(lp482
(g39
I7
tp483
atp484
a(S'wordt'
p485
(dp486
S'VERB'
p487
F1.0
s(lp488
tp489
a(S'bereikt'
p490
(dp491
S'VERB'
p492
F1.0
s(lp493
(g219
I32
tp494
atp495
a(g42
(dp496
g44
F1.0
s(lp497
(g42
I8
tp498
atp499
a(S'kunnen'
p500
(dp501
S'VERB'
p502
F1.0
sS'NOUN'
p503
F1e-06
s(lp504
(g73
I10
tp505
atp506
a(S'we'
p507
(dp508
S'PRON'
p509
F1.0
s(lp510
(g57
I9
tp511
atp512
a(S'de'
p513
(dp514
S'DET'
p515
F1.0
s(lp516
(g131
I18
tp517
atp518
a(S'slachtoffers'
p519
(dp520
S'NOUN'
p521
F1.0
s(lp522
tp523
a(S'een'
p524
(dp525
S'ADJ'
p526
F1e-05
sS'PRON'
p527
F0.000839
sS'NUM'
p528
F0.0
sS'DET'
p529
F0.999151
s(lp530
(g94
I12
tp531
atp532
a(S'tweede'
p533
(dp534
S'NUM'
p535
F1.0
s(lp536
(g102
I13
tp537
atp538
a(S'vorm'
p539
(dp540
S'VERB'
p541
F7.3e-05
sS'NOUN'
p542
F0.999927
s(lp543
(g110
I14
tp544
atp545
a(S'van'
p546
(dp547
S'ADP'
p548
F1.0
s(lp549
(g117
I15
tp550
atp551
a(S'gerechtigheid'
p552
(dp553
S'NOUN'
p554
F1.0
s(lp555
(g124
I16
tp556
atp557
a(S'bieden'
p558
(dp559
S'VERB'
p560
F0.999884
sS'NOUN'
p561
F0.000116
s(lp562
(g85
I11
tp563
atp564
a(g42
(dp565
g44
F1.0
s(lp566
(g42
I20
tp567
atp568
a(S'namelijk'
p569
(dp570
S'ADV'
p571
F1.0
s(lp572
(g364
I23
tp573
atp574
a(S'een'
p575
(dp576
S'ADJ'
p577
F8e-06
sS'PRON'
p578
F0.000749
sS'NUM'
p579
F2e-06
sS'DET'
p580
F0.99924
s(lp581
(g94
I24
tp582
atp583
a(S'betere'
p584
(dp585
S'NOUN'
p586
F0.006172
sS'ADJ'
p587
F0.993828
s(lp588
(g171
I25
tp589
atp590
a(S'toekomst'
p591
(dp592
S'NOUN'
p593
F1.0
s(lp594
(g178
I26
tp595
atp596
a(S'voor'
p597
(dp598
S'ADV'
p599
F0.001935
sS'CONJ'
p600
F3e-06
sS'NOUN'
p601
F0.0
sS'ADP'
p602
F0.998062
s(lp603
(g185
I27
tp604
atp605
a(S'de'
p606
(dp607
S'DET'
p608
F1.0
s(lp609
(g192
I28
tp610
atp611
a(S'nabestaanden'
p612
(dp613
S'NOUN'
p614
F1.0
s(lp615
(g200
I29
tp616
atp617
a(S'van'
p618
(dp619
S'ADP'
p620
F1.0
s(lp621
tp622
a(S'de'
p623
(dp624
S'DET'
p625
F1.0
s(lp626
tp627
a(S'slachtoffers'
p628
(dp629
S'NOUN'
p630
F1.0
s(lp631
(g139
I19
tp632
atp633
a(g44
(dp634
g44
F1.0
s(lp635
(g44
I33
tp636
atp637
asS'de'
p638
(lp639
(S'neben'
p640
(dp641
S'ADP'
p642
F1.0
s(lp643
(g10
I1
tp644
atp645
a(S'der'
p646
(dp647
S'PRON'
p648
F4.5e-05
sS'DET'
p649
F0.999944
s(lp650
(g19
I3
tp651
atp652
a(S'rechtsprechung'
p653
(dp654
S'ADJ'
p655
F0.012608
sS'NOUN'
p656
F0.976691
s(lp657
(g66
I4
tp658
atp659
a(S'der'
p660
(dp661
S'PRON'
p662
F4.6e-05
sS'DET'
p663
F0.999912
s(lp664
(g265
I6
tp665
atp666
a(S'gerichte'
p667
(dp668
S'ADJ'
p669
F0.164849
sS'NOUN'
p670
F0.829021
s(lp671
(g39
I7
tp672
atp673
a(S'k\xc3\xb6nnen'
p674
(dp675
S'VERB'
p676
F0.9994460000000001
s(lp677
(g73
I10
tp678
atp679
a(S'wir'
p680
(dp681
S'PRON'
p682
F1.0
s(lp683
(g57
I9
tp684
atp685
a(S'den'
p686
(dp687
S'PRON'
p688
F0.838759
sS'DET'
p689
F0.152043
s(lp690
(g131
I18
tp691
atp692
a(S'opfern'
p693
(dp694
S'VERB'
p695
F1.0
s(lp696
(g139
I19
tp697
atp698
a(S'noch'
p699
(dp700
S'ADV'
p701
F0.810636
sS'CONJ'
p702
F0.189364
s(lp703
tp704
a(S'eine'
p705
(dp706
S'PRON'
p707
F0.019765
sS'DET'
p708
F0.979452
s(lp709
(g94
I12
tp710
atp711
a(S'andere'
p712
(dp713
S'PRON'
p714
F1.0
s(lp715
(g102
I13
tp716
atp717
a(S'form'
p718
(dp719
S'VERB'
p720
F1.0
s(lp721
(g110
I14
tp722
atp723
a(S'der'
p724
(dp725
S'PRON'
p726
F0.000995
sS'DET'
p727
F0.998592
s(lp728
(g117
I15
tp729
atp730
a(S'gerechtigkeit'
p731
(dp732
S'ADJ'
p733
F0.017097
sS'NOUN'
p734
F0.970386
s(lp735
(g124
I16
tp736
atp737
a(S'bieten'
p738
(dp739
S'VERB'
p740
F1.0
s(lp741
(g85
I11
tp742
atp743
a(g42
(dp744
g44
F1.0
s(lp745
(g42
I20
tp746
atp747
a(S'n\xc3\xa4mlich'
p748
(dp749
S'ADV'
p750
F1.0
s(lp751
(g364
I23
tp752
atp753
a(S'eine'
p754
(dp755
S'PRON'
p756
F0.006848
sS'DET'
p757
F0.993029
s(lp758
(g94
I24
tp759
atp760
a(S'bessere'
p761
(dp762
S'VERB'
p763
F0.002737
sS'ADJ'
p764
F0.997263
s(lp765
(g171
I25
tp766
atp767
a(S'zukunft'
p768
(dp769
S'ADJ'
p770
F0.02955
sS'NOUN'
p771
F0.967191
s(lp772
(g178
I26
tp773
atp774
a(S'f\xc3\xbcr'
p775
(dp776
S'ADP'
p777
F1.0
s(lp778
(g185
I27
tp779
atp780
a(S'die'
p781
(dp782
S'PRON'
p783
F5.5e-05
sS'DET'
p784
F0.99993
s(lp785
(g207
I31
tp786
atp787
a(S'\xc3\x9cberlebenden'
p788
(dp789
S'ADJ'
p790
F0.037326
sS'NOUN'
p791
F0.962674
s(lp792
(g219
I32
tp793
atp794
a(S'ihrer'
p795
(dp796
S'PRON'
p797
F0.9999990000000001
s(lp798
(g192
I28
tp799
atp800
a(S'familien'
p801
(dp802
S'ADJ'
p803
F0.013584
sS'NOUN'
p804
F0.979757
s(lp805
(g200
I29
tp806
atp807
a(g44
(dp808
g44
F1.0
s(lp809
(g44
I33
tp810
atp811
asS'it'
p812
(lp813
(S'oltre'
p814
(dp815
S'ADV'
p816
F0.836261
sS'CONJ'
p817
F0.160842
sS'ADP'
p818
F0.002897
s(lp819
(g10
I1
tp820
atp821
a(S'alla'
p822
(dp823
S'ADP'
p824
F1.0
s(lp825
(g241
I2
tp826
atp827
a(S'giustizia'
p828
(dp829
S'VERB'
p830
F0.000148
sS'NOUN'
p831
F0.999852
s(lp832
(g66
I4
tp833
atp834
a(S'dei'
p835
(dp836
S'NOUN'
p837
F1e-06
sS'DEF'
p838
F0.00117
sS'ADP'
p839
F0.998829
s(lp840
(g32
I5
tp841
atp842
a(S'tribunali'
p843
(dp844
S'NOUN'
p845
F1.0
s(lp846
(g39
I7
tp847
atp848
a(g42
(dp849
g44
F1.0
s(lp850
(g42
I8
tp851
atp852
a(S'possiamo'
p853
(dp854
S'VERB'
p855
F1.0
s(lp856
(g73
I10
tp857
atp858
a(S'offrire'
p859
(dp860
S'VERB'
p861
F1.0
s(lp862
(g85
I11
tp863
atp864
a(S'anche'
p865
(dp866
S'ADV'
p867
F0.999992
sS'NOUN'
p868
F8e-06
s(lp869
tp870
a(S"un'"
p871
(dp872
S'PRON'
p873
F0.003852
sS'DEF'
p874
F0.996148
s(lp875
(g94
I12
tp876
atp877
a(S'altra'
p878
(dp879
S'PRON'
p880
F0.557757
sS'ADJ'
p881
F0.442243
s(lp882
(g102
I13
tp883
atp884
a(S'forma'
p885
(dp886
S'VERB'
p887
F0.018135
sS'NOUN'
p888
F0.981865
s(lp889
(g110
I14
tp890
atp891
a(S'di'
p892
(dp893
S'CONJ'
p894
F4e-06
sS'ADP'
p895
F0.999996
s(lp896
(g117
I15
tp897
atp898
a(S'giustizia'
p899
(dp900
S'VERB'
p901
F0.0025269999999999997
sS'NOUN'
p902
F0.997473
s(lp903
(g124
I16
tp904
atp905
a(S'per'
p906
(dp907
S'CONJ'
p908
F0.052876
sS'ADP'
p909
F0.947124
s(lp910
(g147
I17
tp911
atp912
a(S'le'
p913
(dp914
S'PRON'
p915
F7.6e-05
sS'DET'
p916
F0.999924
s(lp917
tp918
a(S'vittime'
p919
(dp920
S'NOUN'
p921
F1.0
s(lp922
(g139
I19
tp923
atp924
a(g42
(dp925
g44
F1.0
s(lp926
(g42
I20
tp927
atp928
a(S'ovvero'
p929
(dp930
S'CONJ'
p931
F1.0
s(lp932
(g356
I22
tp933
atp934
a(S'un'
p935
(dp936
S'PRON'
p937
F0.005067
sS'DEF'
p938
F0.994933
s(lp939
(g94
I24
tp940
atp941
a(S'futuro'
p942
(dp943
S'ADJ'
p944
F0.083187
sS'NOUN'
p945
F0.916813
s(lp946
(g178
I26
tp947
atp948
a(S'migliore'
p949
(dp950
S'NOUN'
p951
F0.040871
sS'ADJ'
p952
F0.959129
s(lp953
(g171
I25
tp954
atp955
a(S'per'
p956
(dp957
S'CONJ'
p958
F0.060692
sS'ADP'
p959
F0.939308
s(lp960
(g185
I27
tp961
atp962
a(S'i'
p963
(dp964
S'DET'
p965
F1.0
s(lp966
tp967
a(S'loro'
p968
(dp969
S'PRON'
p970
F1.0
s(lp971
(g192
I28
tp972
atp973
a(S'cari'
p974
(dp975
S'ADJ'
p976
F0.415103
sS'VERB'
p977
F0.011041
sS'NOUN'
p978
F0.573856
s(lp979
(g200
I29
tp980
atp981
a(S'che'
p982
(dp983
S'PRON'
p984
F0.966493
sS'CONJ'
p985
F0.032931
sS'ADJ'
p986
F0.000576
s(lp987
(g207
I31
tp988
atp989
a(S'sono'
p990
(dp991
S'VERB'
p992
F0.999982
sS'NOUN'
p993
F1.8e-05
s(lp994
tp995
a(S'sopravvissuti'
p996
(dp997
S'NOUN'
p998
F0.008186
sS'VERB'
p999
F0.922222
sS'ADJ'
p1000
F0.069591
s(lp1001
(g219
I32
tp1002
atp1003
a(g44
(dp1004
g44
F1.0
s(lp1005
(g44
I33
tp1006
atp1007
asS'sk'
p1008
(lp1009
(S'okrem'
p1010
(dp1011
S'ADP'
p1012
F1.0
s(lp1013
(g10
I1
tp1014
atp1015
a(S'spravodlivosti'
p1016
(dp1017
S'NOUN'
p1018
F1.0
s(lp1019
(g66
I4
tp1020
atp1021
a(S's\xc3\xbadov'
p1022
(dp1023
S'NOUN'
p1024
F1.0
s(lp1025
(g39
I7
tp1026
atp1027
a(S'm\xc3\xb4\xc5\xbeeme'
p1028
(dp1029
S'VERB'
p1030
F1.0
s(lp1031
(g73
I10
tp1032
atp1033
a(S'obetiam'
p1034
(dp1035
S'NOUN'
p1036
F1.0
s(lp1037
(g139
I19
tp1038
atp1039
a(S'pon\xc3\xbaknu\xc5\xa5'
p1040
(dp1041
S'VERB'
p1042
F1.0
s(lp1043
(g85
I11
tp1044
atp1045
a(S'druh\xc3\xba'
p1046
(dp1047
S'NUM'
p1048
F1.0
s(lp1049
(g102
I13
tp1050
atp1051
a(S'formu'
p1052
(dp1053
S'NOUN'
p1054
F1.0
s(lp1055
(g110
I14
tp1056
atp1057
a(S'spravodlivosti'
p1058
(dp1059
S'NOUN'
p1060
F1.0
s(lp1061
(g124
I16
tp1062
atp1063
a(g42
(dp1064
g44
F1.0
s(lp1065
(g42
I20
tp1066
atp1067
a(g94
(dp1068
S'X'
p1069
F0.000188
sS'CONJ'
p1070
F0.999786
sS'NOUN'
p1071
F2e-06
sS'ADP'
p1072
F1.9e-05
sS'PRT'
p1073
F5e-06
s(lp1074
(g156
I21
tp1075
atp1076
a(S'to'
p1077
(dp1078
S'PRON'
p1079
F0.9938480000000001
sS'CONJ'
p1080
F0.001375
sg1069
F0.004777
s(lp1081
(g356
I22
tp1082
atp1083
a(S'lep\xc5\xa1iu'
p1084
(dp1085
S'ADJ'
p1086
F1.0
s(lp1087
(g171
I25
tp1088
atp1089
a(S'bud\xc3\xbacnos\xc5\xa5'
p1090
(dp1091
S'NOUN'
p1092
F1.0
s(lp1093
(g178
I26
tp1094
atp1095
a(S'pre'
p1096
(dp1097
g1069
F4e-05
sS'ADP'
p1098
F0.99996
s(lp1099
(g185
I27
tp1100
atp1101
a(S'ich'
p1102
(dp1103
S'PRON'
p1104
F1.0
s(lp1105
(g192
I28
tp1106
atp1107
a(S'milovan\xc3\xbdch'
p1108
(dp1109
S'VERB'
p1110
F1.0
s(lp1111
(g200
I29
tp1112
atp1113
a(g42
(dp1114
g44
F1.0
s(lp1115
tp1116
a(S'ktor\xc3\xad'
p1117
(dp1118
S'PRON'
p1119
F1.0
s(lp1120
(g207
I31
tp1121
atp1122
a(S'pre\xc5\xbeili'
p1123
(dp1124
S'VERB'
p1125
F0.9999990000000001
s(lp1126
(g219
I32
tp1127
atp1128
a(g44
(dp1129
g44
F1.0
s(lp1130
(g44
I33
tp1131
atp1132
asS'pl'
p1133
(lp1134
(S'opr\xc3\xb3cz'
p1135
(dp1136
S'ADP'
p1137
F1.0
s(lp1138
(g10
I1
tp1139
atp1140
a(S'wymierzenia'
p1141
(dp1142
S'VERB'
p1143
F1.0
s(lp1144
tp1145
a(S'sprawiedliwo\xc5\x9bci'
p1146
(dp1147
S'NOUN'
p1148
F0.9999990000000001
s(lp1149
(g66
I4
tp1150
atp1151
a(S'przez'
p1152
(dp1153
S'ADP'
p1154
F1.0
s(lp1155
(g265
I6
tp1156
atp1157
a(S's\xc4\x85dy'
p1158
(dp1159
S'NOUN'
p1160
F1.0
s(lp1161
(g39
I7
tp1162
atp1163
a(g42
(dp1164
g1069
F0.0
sg44
F1.0
s(lp1165
(g42
I8
tp1166
atp1167
a(S'mo\xc5\xbcemy'
p1168
(dp1169
S'VERB'
p1170
F1.0
s(lp1171
(g73
I10
tp1172
atp1173
a(S'zaproponowa\xc4\x87'
p1174
(dp1175
S'VERB'
p1176
F1.0
s(lp1177
(g85
I11
tp1178
atp1179
a(S'drug\xc4\x85'
p1180
(dp1181
S'ADJ'
p1182
F1.0
s(lp1183
(g102
I13
tp1184
atp1185
a(S'form\xc4\x99'
p1186
(dp1187
S'NOUN'
p1188
F1.0
s(lp1189
(g110
I14
tp1190
atp1191
a(S'sprawiedliwo\xc5\x9bci'
p1192
(dp1193
S'NOUN'
p1194
F1.0
s(lp1195
(g124
I16
tp1196
atp1197
a(S'dla'
p1198
(dp1199
S'ADP'
p1200
F1.0
s(lp1201
(g147
I17
tp1202
atp1203
a(S'ofiar'
p1204
(dp1205
S'NOUN'
p1206
F1.0
s(lp1207
(g139
I19
tp1208
atp1209
a(g42
(dp1210
g1069
F0.0
sg44
F1.0
s(lp1211
(g42
I20
tp1212
atp1213
a(S'to'
p1214
(dp1215
S'NOUN'
p1216
F0.395359
sS'ADP'
p1217
F0.0
sS'PRT'
p1218
F0.23381
sg1069
F0.000681
sS'CONJ'
p1219
F0.113669
sS'ADJ'
p1220
F0.256481
s(lp1221
(g356
I22
tp1222
atp1223
a(S'jest'
p1224
(dp1225
S'VERB'
p1226
F1.0
s(lp1227
(g364
I23
tp1228
atp1229
a(S'lepsz\xc4\x85'
p1230
(dp1231
S'ADJ'
p1232
F1.0
s(lp1233
(g171
I25
tp1234
atp1235
a(S'przysz\xc5\x82o\xc5\x9b\xc4\x87'
p1236
(dp1237
S'NOUN'
p1238
F1.0
s(lp1239
(g178
I26
tp1240
atp1241
a(S'dla'
p1242
(dp1243
S'ADP'
p1244
F1.0
s(lp1245
(g185
I27
tp1246
atp1247
a(S'ich'
p1248
(dp1249
S'PRON'
p1250
F0.999996
sg1069
F3e-06
s(lp1251
(g192
I28
tp1252
atp1253
a(S'bliskich'
p1254
(dp1255
S'ADJ'
p1256
F0.107545
sS'NOUN'
p1257
F0.892455
s(lp1258
(g200
I29
tp1259
atp1260
a(g42
(dp1261
g1069
F0.0
sg44
F1.0
s(lp1262
tp1263
a(S'kt\xc3\xb3rzy'
p1264
(dp1265
S'ADJ'
p1266
F1.0
s(lp1267
(g207
I31
tp1268
atp1269
a(S'prze\xc5\xbcyli'
p1270
(dp1271
S'VERB'
p1272
F1.0
s(lp1273
(g219
I32
tp1274
atp1275
a(g44
(dp1276
g44
F1.0
s(lp1277
(g44
I33
tp1278
atp1279
asS'sl'
p1280
(lp1281
(S'poleg'
p1282
(dp1283
S'ADV'
p1284
F0.00433
sS'ADP'
p1285
F0.99567
s(lp1286
(g10
I1
tp1287
atp1288
a(S'pravice'
p1289
(dp1290
S'NOUN'
p1291
F1.0
s(lp1292
(g66
I4
tp1293
atp1294
a(S'na'
p1295
(dp1296
S'ADP'
p1297
F1.0
s(lp1298
(g265
I6
tp1299
atp1300
a(S'sodi\xc5\xa1\xc4\x8dih'
p1301
(dp1302
S'NOUN'
p1303
F1.0
s(lp1304
(g39
I7
tp1305
atp1306
a(S'lahko'
p1307
(dp1308
S'ADV'
p1309
F0.999518
sS'ADJ'
p1310
F0.000483
s(lp1311
(g73
I10
tp1312
atp1313
a(S'\xc5\xbertvam'
p1314
(dp1315
S'NOUN'
p1316
F1.0
s(lp1317
(g139
I19
tp1318
atp1319
a(S'ponudimo'
p1320
(dp1321
S'VERB'
p1322
F1.0
s(lp1323
(g85
I11
tp1324
atp1325
a(S'\xc5\xa1e'
p1326
(dp1327
S'PRT'
p1328
F1.0
s(lp1329
(g94
I12
tp1330
atp1331
a(S'drugo'
p1332
(dp1333
S'NUM'
p1334
F0.9999990000000001
s(lp1335
(g102
I13
tp1336
atp1337
a(S'obliko'
p1338
(dp1339
S'NOUN'
p1340
F1.0
s(lp1341
(g110
I14
tp1342
atp1343
a(S'pravice'
p1344
(dp1345
S'NOUN'
p1346
F1.0
s(lp1347
(g124
I16
tp1348
atp1349
a(g42
(dp1350
g44
F1.0
s(lp1351
(g42
I20
tp1352
atp1353
a(S'in'
p1354
(dp1355
S'ADV'
p1356
F0.000221
sg1069
F4e-06
sS'CONJ'
p1357
F0.999757
sS'NOUN'
p1358
F1.7e-05
s(lp1359
(g156
I21
tp1360
atp1361
a(S'sicer'
p1362
(dp1363
S'PRT'
p1364
F0.944452
sS'CONJ'
p1365
F0.055548
s(lp1366
(g364
I23
tp1367
atp1368
a(S'bolj\xc5\xa1o'
p1369
(dp1370
S'ADJ'
p1371
F1.0
s(lp1372
(g171
I25
tp1373
atp1374
a(S'prihodnost'
p1375
(dp1376
S'NOUN'
p1377
F1.0
s(lp1378
(g178
I26
tp1379
atp1380
a(S'za'
p1381
(dp1382
S'ADV'
p1383
F2e-06
sg1069
F1e-06
sS'ADP'
p1384
F0.999996
s(lp1385
(g185
I27
tp1386
atp1387
a(S'njihove'
p1388
(dp1389
S'PRON'
p1390
F1.0
s(lp1391
(g192
I28
tp1392
atp1393
a(S'ljubljene'
p1394
(dp1395
S'ADJ'
p1396
F1.0
s(lp1397
(g200
I29
tp1398
atp1399
a(g42
(dp1400
g44
F1.0
s(lp1401
tp1402
a(S'ki'
p1403
(dp1404
S'CONJ'
p1405
F1.0
s(lp1406
(g207
I31
tp1407
atp1408
a(S'so'
p1409
(dp1410
g1069
F0.0
sS'VERB'
p1411
F0.999999
s(lp1412
tp1413
a(S'pre\xc5\xbeiveli'
p1414
(dp1415
S'VERB'
p1416
F1.0
s(lp1417
(g219
I32
tp1418
atp1419
a(g44
(dp1420
g44
F1.0
s(lp1421
(g44
I33
tp1422
atp1423
asS'es'
p1424
(lp1425
(S'adem\xc3\xa1s'
p1426
(dp1427
S'ADV'
p1428
F1.0
s(lp1429
(g10
I1
tp1430
atp1431
a(S'de'
p1432
(dp1433
g1069
F0.0
sS'CONJ'
p1434
F0.000119
sS'ADP'
p1435
F0.999881
s(lp1436
(g241
I2
tp1437
atp1438
a(S'la'
p1439
(dp1440
S'PRON'
p1441
F1e-06
sS'DET'
p1442
F0.999998
sS'NOUN'
p1443
F0.0
sg1069
F1e-06
s(lp1444
(g19
I3
tp1445
atp1446
a(S'justicia'
p1447
(dp1448
S'VERB'
p1449
F0.000333
sS'NOUN'
p1450
F0.999667
s(lp1451
(g66
I4
tp1452
atp1453
a(S'de'
p1454
(dp1455
g1069
F0.0
sS'CONJ'
p1456
F1.7e-05
sS'ADP'
p1457
F0.999983
s(lp1458
(g32
I5
tp1459
atp1460
a(S'los'
p1461
(dp1462
S'PRON'
p1463
F0.0
sS'DET'
p1464
F1.0
s(lp1465
(g265
I6
tp1466
atp1467
a(S'tribunales'
p1468
(dp1469
S'NOUN'
p1470
F1.0
s(lp1471
(g39
I7
tp1472
atp1473
a(g42
(dp1474
g44
F1.0
s(lp1475
(g42
I8
tp1476
atp1477
a(S'nosotros'
p1478
(dp1479
S'PRON'
p1480
F1.0
s(lp1481
(g57
I9
tp1482
atp1483
a(S'podemos'
p1484
(dp1485
S'VERB'
p1486
F1.0
s(lp1487
(g73
I10
tp1488
atp1489
a(S'ofrecer'
p1490
(dp1491
S'VERB'
p1492
F1.0
s(lp1493
(g85
I11
tp1494
atp1495
a(S'una'
p1496
(dp1497
S'DET'
p1498
F1.0
s(lp1499
(g94
I12
tp1500
atp1501
a(S'segunda'
p1502
(dp1503
S'ADJ'
p1504
F1.0
s(lp1505
(g102
I13
tp1506
atp1507
a(S'v\xc3\xada'
p1508
(dp1509
S'NOUN'
p1510
F0.999397
sS'ADP'
p1511
F0.000603
s(lp1512
(g110
I14
tp1513
atp1514
a(S'de'
p1515
(dp1516
g1069
F5.1e-05
sS'CONJ'
p1517
F0.000455
sS'ADP'
p1518
F0.999494
s(lp1519
(g117
I15
tp1520
atp1521
a(S'justicia'
p1522
(dp1523
S'VERB'
p1524
F0.001009
sS'NOUN'
p1525
F0.998991
s(lp1526
(g124
I16
tp1527
atp1528
a(S'para'
p1529
(dp1530
S'CONJ'
p1531
F0.000662
sS'ADP'
p1532
F0.999338
s(lp1533
(g147
I17
tp1534
atp1535
a(S'las'
p1536
(dp1537
S'PRON'
p1538
F0.0
sS'DET'
p1539
F1.0
s(lp1540
(g131
I18
tp1541
atp1542
a(S'v\xc3\xadctimas'
p1543
(dp1544
S'NOUN'
p1545
F1.0
s(lp1546
(g139
I19
tp1547
atp1548
a(S';'
p1549
(dp1550
g44
F1.0
s(lp1551
(g42
I20
tp1552
atp1553
a(S'una'
p1554
(dp1555
S'DET'
p1556
F1.0
s(lp1557
(g94
I24
tp1558
atp1559
a(S'vida'
p1560
(dp1561
S'NOUN'
p1562
F1.0
s(lp1563
(g178
I26
tp1564
atp1565
a(S'mejor'
p1566
(dp1567
S'ADJ'
p1568
F1.0
s(lp1569
(g171
I25
tp1570
atp1571
a(S'para'
p1572
(dp1573
S'CONJ'
p1574
F0.035236
sS'ADP'
p1575
F0.964764
s(lp1576
(g185
I27
tp1577
atp1578
a(S'sus'
p1579
(dp1580
S'PRON'
p1581
F1.0
s(lp1582
(g192
I28
tp1583
atp1584
a(S'seres'
p1585
(dp1586
S'NOUN'
p1587
F1.0
s(lp1588
tp1589
a(S'queridos'
p1590
(dp1591
S'NOUN'
p1592
F0.021096
sS'VERB'
p1593
F0.065965
sS'ADJ'
p1594
F0.91294
s(lp1595
(g200
I29
tp1596
atp1597
a(S'que'
p1598
(dp1599
g1069
F4e-06
sS'CONJ'
p1600
F0.999996
s(lp1601
(g207
I31
tp1602
atp1603
a(S'han'
p1604
(dp1605
S'VERB'
p1606
F1.0
s(lp1607
tp1608
a(S'sobrevivido'
p1609
(dp1610
S'VERB'
p1611
F1.0
s(lp1612
(g219
I32
tp1613
atp1614
a(g44
(dp1615
g44
F1.0
s(lp1616
(g44
I33
tp1617
atp1618
as.