(dp0
S'fr'
p1
(lp2
(S'par'
p3
(dp4
S'NOUN'
p5
F5.1e-05
sS'ADP'
p6
F0.999949
s(lp7
tp8
a(S'cons\xc3\xa9quent'
p9
(dp10
S'ADJ'
p11
F1.0
s(lp12
(S'therefore'
p13
I1
tp14
atp15
a(S','
p16
(dp17
S'.'
p18
F1.0
s(lp19
tp20
a(S"j'"
p21
(dp22
S'ADJ'
p23
F0.280608
sS'VERB'
p24
F0.007367
sS'NOUN'
p25
F0.681695
sS'X'
p26
F0.03033
s(lp27
(S'i'
p28
I0
tp29
atp30
a(S'invite'
p31
(dp32
S'VERB'
p33
F0.922621
sS'NOUN'
p34
F0.077378
s(lp35
(S'call'
p36
I2
tp37
atp38
a(S'mes'
p39
(dp40
S'PRON'
p41
F1.0
s(lp42
(S'my'
p43
I4
tp44
atp45
a(S'coll\xc3\xa8gues'
p46
(dp47
S'NOUN'
p48
F1.0
s(lp49
(S'fellow'
p50
I5
tp51
atp52
a(S'd\xc3\xa9put\xc3\xa9s'
p53
(dp54
S'VERB'
p55
F0.979201
sS'NOUN'
p56
F0.020799
s(lp57
(S'members'
p58
I6
tp59
atp60
a(S'\xc3\xa0'
p61
(dp62
S'ADP'
p63
F1.0
s(lp64
(S'to'
p65
I7
tp66
atp67
a(S'relever'
p68
(dp69
S'VERB'
p70
F1.0
s(lp71
(S'face'
p72
I8
tp73
atp74
a(S'ce'
p75
(dp76
S'PRON'
p77
F1.0
s(lp78
(S'this'
p79
I9
tp80
atp81
a(S'd\xc3\xa9fi'
p82
(dp83
S'NOUN'
p84
F1.0
s(lp85
(S'challenge'
p86
I11
tp87
atp88
a(S'europ\xc3\xa9en'
p89
(dp90
S'NOUN'
p91
F0.003936
sS'ADJ'
p92
F0.996064
s(lp93
(S'european'
p94
I10
tp95
atp96
a(S'et'
p97
(dp98
S'CONJ'
p99
F1.0
s(lp100
(S'and'
p101
I12
tp102
atp103
a(S"d'"
p104
(dp105
S'NOUN'
p106
F0.050387
sS'VERB'
p107
F0.8915730000000001
sS'ADJ'
p108
F0.05804
s(lp109
(S'to'
p110
I13
tp111
atp112
a(S'amorcer'
p113
(dp114
S'VERB'
p115
F1.0
s(lp116
(S'initiate'
p117
I14
tp118
atp119
a(S'de'
p120
(dp121
S'ADP'
p122
F1.0
s(lp123
tp124
a(S'concert'
p125
(dp126
S'NOUN'
p127
F1.0
s(lp128
(S'together'
p129
I19
tp130
atp131
a(S'une'
p132
(dp133
S'NOUN'
p134
F1.5e-05
sS'NUM'
p135
F0.039671
sS'DET'
p136
F0.960314
s(lp137
(S'a'
p138
I15
tp139
atp140
a(S'strat\xc3\xa9gie'
p141
(dp142
S'NOUN'
p143
F1.0
s(lp144
(S'strategy'
p145
I18
tp146
atp147
a(S'europ\xc3\xa9enne'
p148
(dp149
S'NOUN'
p150
F0.018078
sS'ADJ'
p151
F0.981922
s(lp152
(S'european'
p153
I16
tp154
atp155
a(S'vis-\xc3\xa0-vis'
p156
(dp157
S'ADV'
p158
F0.747954
sS'NOUN'
p159
F0.252046
s(lp160
(S'roma'
p161
I17
tp162
atp163
a(S'des'
p164
(dp165
S'DET'
p166
F9.5e-05
sS'ADP'
p167
F0.999905
s(lp168
tp169
a(S'roms'
p170
(dp171
S'NOUN'
p172
F1.0
s(lp173
(g161
I17
tp174
atp175
a(g16
(dp176
g18
F1.0
s(lp177
(g16
I20
tp178
atp179
a(S'avec'
p180
(dp181
S'ADV'
p182
F0.006827
sS'ADP'
p183
F0.993173
s(lp184
(S'with'
p185
I21
tp186
atp187
a(S'notre'
p188
(dp189
S'PRON'
p190
F1.0
s(lp191
(S'our'
p192
I22
tp193
atp194
a(S'vote'
p195
(dp196
S'VERB'
p197
F0.0
sS'NOUN'
p198
F1.0
s(lp199
(S'vote'
p200
I23
tp201
atp202
a(g18
(dp203
g18
F1.0
s(lp204
(g18
I24
tp205
atp206
asS'en'
p207
(lp208
(g28
(dp209
g26
F0.0008
sS'NOUN'
p210
F0.9992
s(lp211
(g28
I0
tp212
atp213
a(g13
(dp214
S'ADV'
p215
F1.0
s(lp216
(g13
I1
tp217
atp218
a(g36
(dp219
S'ADJ'
p220
F0.051129
sS'VERB'
p221
F0.726243
sS'NOUN'
p222
F0.222627
s(lp223
(g36
I2
tp224
atp225
a(S'on'
p226
(dp227
S'ADV'
p228
F0.002798
sS'PRT'
p229
F0.030009
sS'ADJ'
p230
F0.0
sS'ADP'
p231
F0.967193
sS'NOUN'
p232
F0.0
s(lp233
(g226
I3
tp234
atp235
a(g43
(dp236
S'PRON'
p237
F1.0
s(lp238
(g43
I4
tp239
atp240
a(g50
(dp241
S'NOUN'
p242
F0.289759
sS'VERB'
p243
F1e-06
sS'ADJ'
p244
F0.71024
s(lp245
(g50
I5
tp246
atp247
a(g58
(dp248
S'NOUN'
p249
F1.0
s(lp250
(g58
I6
tp251
atp252
a(g65
(dp253
S'ADV'
p254
F0.0
sS'PRT'
p255
F1.0
sS'ADP'
p256
F0.0
s(lp257
(g65
I7
tp258
atp259
a(g72
(dp260
S'VERB'
p261
F0.999287
sS'NOUN'
p262
F0.000713
s(lp263
(g72
I8
tp264
atp265
a(g79
(dp266
S'ADV'
p267
F9.9e-05
sS'NOUN'
p268
F4e-06
sS'DET'
p269
F0.999897
s(lp270
(g79
I9
tp271
atp272
a(g94
(dp273
S'NOUN'
p274
F0.109789
sS'VERB'
p275
F1.2e-05
sS'ADJ'
p276
F0.8902
s(lp277
(g94
I10
tp278
atp279
a(g86
(dp280
S'VERB'
p281
F0.001408
sS'NOUN'
p282
F0.998592
s(lp283
(g86
I11
tp284
atp285
a(g101
(dp286
S'CONJ'
p287
F0.99998
sS'NOUN'
p288
F2e-05
s(lp289
(g101
I12
tp290
atp291
a(g110
(dp292
S'ADV'
p293
F2e-06
sS'PRT'
p294
F0.999998
sS'ADP'
p295
F0.0
s(lp296
(g110
I13
tp297
atp298
a(g117
(dp299
S'ADJ'
p300
F6.3e-05
sS'VERB'
p301
F0.999788
sS'NOUN'
p302
F0.000149
s(lp303
(g117
I14
tp304
atp305
a(g138
(dp306
S'NOUN'
p307
F0.0
sS'DET'
p308
F1.0
s(lp309
(g138
I15
tp310
atp311
a(g153
(dp312
S'NOUN'
p313
F0.108878
sS'VERB'
p314
F1.2e-05
sS'ADJ'
p315
F0.89111
s(lp316
(g153
I16
tp317
atp318
a(g161
(dp319
S'ADJ'
p320
F0.00228
sS'NOUN'
p321
F0.99772
s(lp322
(g161
I17
tp323
atp324
a(g145
(dp325
S'NOUN'
p326
F1.0
s(lp327
(g145
I18
tp328
atp329
a(g129
(dp330
S'ADV'
p331
F1.0
s(lp332
(g129
I19
tp333
atp334
a(g16
(dp335
g18
F1.0
s(lp336
(g16
I20
tp337
atp338
a(g185
(dp339
S'ADP'
p340
F1.0
s(lp341
(g185
I21
tp342
atp343
a(g192
(dp344
S'PRON'
p345
F1.0
s(lp346
(g192
I22
tp347
atp348
a(g200
(dp349
S'VERB'
p350
F0.000133
sS'NOUN'
p351
F0.999867
s(lp352
(g200
I23
tp353
atp354
a(g18
(dp355
g18
F1.0
s(lp356
(g18
I24
tp357
atp358
asS'nl'
p359
(lp360
(S'ik'
p361
(dp362
S'PRON'
p363
F0.999981
sS'NOUN'
p364
F1.9e-05
s(lp365
(g28
I0
tp366
atp367
a(S'doe'
p368
(dp369
S'VERB'
p370
F1.0
s(lp371
(g36
I2
tp372
atp373
a(S'daarom'
p374
(dp375
S'ADV'
p376
F1.0
s(lp377
(g13
I1
tp378
atp379
a(S'een'
p380
(dp381
S'ADJ'
p382
F1e-06
sS'PRON'
p383
F5e-06
sS'NUM'
p384
F0.0
sS'DET'
p385
F0.999995
s(lp386
tp387
a(S'beroep'
p388
(dp389
S'VERB'
p390
F0.0
sS'NOUN'
p391
F1.0
s(lp392
(g36
I2
tp393
atp394
a(S'op'
p395
(dp396
S'ADV'
p397
F0.002919
sS'ADJ'
p398
F0.0
sS'ADP'
p399
F0.997081
s(lp400
(g226
I3
tp401
atp402
a(S'mijn'
p403
(dp404
S'PRON'
p405
F0.999999
sS'NOUN'
p406
F1e-06
s(lp407
(g43
I4
tp408
atp409
a(S'medeparlementari\xc3\xabrs'
p410
(dp411
S'NOUN'
p412
F1.0
s(lp413
(g50
I5
tp414
atp415
a(S'om'
p416
(dp417
S'ADV'
p418
F0.0005
sS'CONJ'
p419
F0.663064
sS'ADP'
p420
F0.336436
s(lp421
tp422
a(S'deze'
p423
(dp424
S'PRON'
p425
F1.0
s(lp426
(g79
I9
tp427
atp428
a(S'europese'
p429
(dp430
S'NOUN'
p431
F1.0
s(lp432
(g94
I10
tp433
atp434
a(S'uitdaging'
p435
(dp436
S'NOUN'
p437
F1.0
s(lp438
(g86
I11
tp439
atp440
a(S'aan'
p441
(dp442
S'ADV'
p443
F0.998144
sS'ADP'
p444
F0.001856
s(lp445
(g65
I7
tp446
atp447
a(S'te'
p448
(dp449
S'PRT'
p450
F1.0
s(lp451
tp452
a(S'gaan'
p453
(dp454
S'VERB'
p455
F1.0
sS'NOUN'
p456
F0.0
s(lp457
(g72
I8
tp458
atp459
a(S'en'
p460
(dp461
S'CONJ'
p462
F1.0
s(lp463
(g101
I12
tp464
atp465
a(S'samen'
p466
(dp467
S'ADV'
p468
F1.0
s(lp469
(g129
I19
tp470
atp471
a(S'het'
p472
(dp473
S'PRON'
p474
F0.001792
sS'DET'
p475
F0.998207
s(lp476
tp477
a(S'initiatief'
p478
(dp479
S'NOUN'
p480
F1.0
s(lp481
(g117
I14
tp482
atp483
a(S'te'
p484
(dp485
S'PRT'
p486
F1.0
s(lp487
(g110
I13
tp488
atp489
a(S'nemen'
p490
(dp491
S'VERB'
p492
F0.999999
sS'NOUN'
p493
F1e-06
s(lp494
tp495
a(S'tot'
p496
(dp497
S'CONJ'
p498
F0.000204
sS'ADP'
p499
F0.999796
s(lp500
(g117
I14
tp501
atp502
a(S'een'
p503
(dp504
S'ADJ'
p505
F1e-06
sS'PRON'
p506
F1.4e-05
sS'NUM'
p507
F0.0
sS'DET'
p508
F0.999985
s(lp509
(g138
I15
tp510
atp511
a(S'europese'
p512
(dp513
S'NOUN'
p514
F1.0
s(lp515
(g153
I16
tp516
atp517
a(S'roma-strategie'
p518
(dp519
S'NOUN'
p520
F1.0
s(lp521
(g161
I17
tp522
atp523
a(g16
(dp524
g18
F1.0
s(lp525
(g16
I20
tp526
atp527
a(S'met'
p528
(dp529
S'ADP'
p530
F1.0
s(lp531
(g185
I21
tp532
atp533
a(S'onze'
p534
(dp535
S'PRON'
p536
F1.0
s(lp537
(g192
I22
tp538
atp539
a(S'stem'
p540
(dp541
S'VERB'
p542
F0.0
sS'NOUN'
p543
F1.0
s(lp544
(g200
I23
tp545
atp546
a(g18
(dp547
g18
F1.0
s(lp548
(g18
I24
tp549
atp550
asS'de'
p551
(lp552
(S'ich'
p553
(dp554
S'PRON'
p555
F1.0
s(lp556
(g28
I0
tp557
atp558
a(S'rufe'
p559
(dp560
S'VERB'
p561
F1.0
s(lp562
(g36
I2
tp563
atp564
a(S'daher'
p565
(dp566
S'ADV'
p567
F0.9999030000000001
s(lp568
(g13
I1
tp569
atp570
a(S'meine'
p571
(dp572
S'PRON'
p573
F0.254318
sS'VERB'
p574
F0.736371
s(lp575
(g43
I4
tp576
atp577
a(S'kolleginnen'
p578
(dp579
S'ADJ'
p580
F1.0
s(lp581
tp582
a(S'und'
p583
(dp584
S'CONJ'
p585
F1.0
s(lp586
(g50
I5
tp587
atp588
a(S'kollegen'
p589
(dp590
S'VERB'
p591
F0.476697
sS'NOUN'
p592
F0.449836
s(lp593
(g58
I6
tp594
atp595
a(S'auf'
p596
(dp597
S'ADV'
p598
F0.000114
sS'PRT'
p599
F0.999847
s(lp600
tp601
a(g16
(dp602
g18
F1.0
s(lp603
tp604
a(S'dieser'
p605
(dp606
S'PRON'
p607
F1.0
s(lp608
(g79
I9
tp609
atp610
a(S'europ\xc3\xa4ischen'
p611
(dp612
S'ADJ'
p613
F1.0
s(lp614
(g94
I10
tp615
atp616
a(S'herausforderung'
p617
(dp618
S'VERB'
p619
F1.7e-05
sS'NOUN'
p620
F0.999958
s(lp621
(g86
I11
tp622
atp623
a(S'ins'
p624
(dp625
S'ADP'
p626
F1.0
s(lp627
(g72
I8
tp628
atp629
a(S'auge'
p630
(dp631
S'ADJ'
p632
F0.011454
sS'NOUN'
p633
F0.986724
s(lp634
tp635
a(S'zu'
p636
(dp637
S'PRT'
p638
F0.999973
s(lp639
(g65
I7
tp640
atp641
a(S'sehen'
p642
(dp643
S'VERB'
p644
F1.0
s(lp645
(g72
I8
tp646
atp647
a(S'und'
p648
(dp649
S'CONJ'
p650
F1.0
s(lp651
(g101
I12
tp652
atp653
a(S'gemeinsam'
p654
(dp655
S'ADJ'
p656
F1.0
s(lp657
(g129
I19
tp658
atp659
a(S'eine'
p660
(dp661
S'PRON'
p662
F0.003692
sS'DET'
p663
F0.996072
s(lp664
(g138
I15
tp665
atp666
a(S'europ\xc3\xa4ische'
p667
(dp668
S'ADJ'
p669
F1.0
s(lp670
(g153
I16
tp671
atp672
a(S'roma-strategie'
p673
(dp674
S'ADJ'
p675
F1.9e-05
sS'NOUN'
p676
F0.999978
s(lp677
(g161
I17
tp678
atp679
a(S'zu'
p680
(dp681
S'PRT'
p682
F0.999974
s(lp683
tp684
a(S'erarbeiten'
p685
(dp686
S'VERB'
p687
F1.0
s(lp688
(g145
I18
tp689
atp690
a(g16
(dp691
g18
F1.0
s(lp692
(g16
I20
tp693
atp694
a(S'indem'
p695
(dp696
S'CONJ'
p697
F1.0
s(lp698
(g185
I21
tp699
atp700
a(S'wir'
p701
(dp702
S'PRON'
p703
F1.0
s(lp704
(g192
I22
tp705
atp706
a(S'daf\xc3\xbcr'
p707
(dp708
S'ADV'
p709
F1.0
s(lp710
(g110
I13
tp711
atp712
a(S'stimmen'
p713
(dp714
S'VERB'
p715
F1.0
s(lp716
(g200
I23
tp717
atp718
a(g18
(dp719
g18
F1.0
s(lp720
(g18
I24
tp721
atp722
asS'it'
p723
(lp724
(S'invito'
p725
(dp726
S'VERB'
p727
F0.376009
sS'NOUN'
p728
F0.623991
s(lp729
(g36
I2
tp730
atp731
a(S'pertanto'
p732
(dp733
S'ADV'
p734
F1.0
s(lp735
(g13
I1
tp736
atp737
a(S'gli'
p738
(dp739
S'PRON'
p740
F0.002116
sS'DET'
p741
F0.997884
s(lp742
(g43
I4
tp743
atp744
a(S'onorevoli'
p745
(dp746
S'NOUN'
p747
F0.122495
sS'ADJ'
p748
F0.877505
s(lp749
(g58
I6
tp750
atp751
a(S'colleghi'
p752
(dp753
S'VERB'
p754
F0.062953
sS'NOUN'
p755
F0.937047
s(lp756
(g50
I5
tp757
atp758
a(S'ad'
p759
(dp760
S'ADP'
p761
F1.0
s(lp762
(g65
I7
tp763
atp764
a(S'affrontare'
p765
(dp766
S'VERB'
p767
F1.0
s(lp768
(g72
I8
tp769
atp770
a(S'questa'
p771
(dp772
S'PRON'
p773
F1.0
s(lp774
(g79
I9
tp775
atp776
a(S'sfida'
p777
(dp778
S'VERB'
p779
F0.028553000000000002
sS'NOUN'
p780
F0.971447
s(lp781
(g86
I11
tp782
atp783
a(S'europea'
p784
(dp785
S'NOUN'
p786
F0.004021
sS'ADJ'
p787
F0.995979
s(lp788
(g94
I10
tp789
atp790
a(S'e'
p791
(dp792
S'CONJ'
p793
F1.0
s(lp794
(g101
I12
tp795
atp796
a(g138
(dp797
S'CONJ'
p798
F0.00017
sS'ADP'
p799
F0.99983
s(lp800
(g110
I13
tp801
atp802
a(S'dar'
p803
(dp804
S'VERB'
p805
F1.0
s(lp806
tp807
a(S'vita'
p808
(dp809
S'NOUN'
p810
F1.0
s(lp811
(g117
I14
tp812
atp813
a(S'insieme'
p814
(dp815
S'ADV'
p816
F0.995854
sS'NOUN'
p817
F0.004146
s(lp818
(g129
I19
tp819
atp820
a(g138
(dp821
S'CONJ'
p822
F0.000725
sS'ADP'
p823
F0.999275
s(lp824
tp825
a(S'una'
p826
(dp827
S'PRON'
p828
F0.000159
sS'DEF'
p829
F0.999841
s(lp830
(g138
I15
tp831
atp832
a(S'strategia'
p833
(dp834
S'NOUN'
p835
F1.0
s(lp836
(g145
I18
tp837
atp838
a(S'europea'
p839
(dp840
S'NOUN'
p841
F0.004307
sS'ADJ'
p842
F0.995693
s(lp843
(g153
I16
tp844
atp845
a(S'per'
p846
(dp847
S'CONJ'
p848
F0.060987
sS'ADP'
p849
F0.939013
s(lp850
(g226
I3
tp851
atp852
a(g28
(dp853
S'DET'
p854
F1.0
s(lp855
tp856
a(S'rom'
p857
(dp858
S'NOUN'
p859
F1.0
s(lp860
(g161
I17
tp861
atp862
a(g16
(dp863
g18
F1.0
s(lp864
(g16
I20
tp865
atp866
a(S'con'
p867
(dp868
S'ADP'
p869
F1.0
s(lp870
(g185
I21
tp871
atp872
a(S'il'
p873
(dp874
S'DET'
p875
F1.0
s(lp876
tp877
a(S'nostro'
p878
(dp879
S'PRON'
p880
F1.0
s(lp881
(g192
I22
tp882
atp883
a(S'voto'
p884
(dp885
S'VERB'
p886
F1e-06
sS'NOUN'
p887
F0.999999
s(lp888
(g200
I23
tp889
atp890
a(g18
(dp891
g18
F1.0
s(lp892
(g18
I24
tp893
atp894
asS'sk'
p895
(lp896
(S'preto'
p897
(dp898
S'PRON'
p899
F0.850196
sS'CONJ'
p900
F0.14013
sg26
F0.009674
s(lp901
(g13
I1
tp902
atp903
a(S'vyz\xc3\xbdvam'
p904
(dp905
S'VERB'
p906
F1.0
s(lp907
(g36
I2
tp908
atp909
a(S'kolegov'
p910
(dp911
S'NOUN'
p912
F1.0
s(lp913
(g50
I5
tp914
atp915
a(S'poslancov'
p916
(dp917
S'NOUN'
p918
F1.0
s(lp919
(g58
I6
tp920
atp921
a(g16
(dp922
g18
F1.0
s(lp923
tp924
a(S'aby'
p925
(dp926
g26
F8.2e-05
sS'CONJ'
p927
F0.999918
s(lp928
(g65
I7
tp929
atp930
a(S'\xc4\x8delili'
p931
(dp932
S'VERB'
p933
F1.0
s(lp934
(g72
I8
tp935
atp936
a(S'tejto'
p937
(dp938
S'PRON'
p939
F1.0
s(lp940
(g79
I9
tp941
atp942
a(S'eur\xc3\xb3pskej'
p943
(dp944
S'ADJ'
p945
F1.0
s(lp946
(g94
I10
tp947
atp948
a(S'v\xc3\xbdzve'
p949
(dp950
S'NOUN'
p951
F1.0
s(lp952
(g86
I11
tp953
atp954
a(g138
(dp955
g26
F7.5e-05
sS'CONJ'
p956
F0.999912
sS'NOUN'
p957
F1.2e-05
sS'ADP'
p958
F0.0
sS'PRT'
p959
F0.0
s(lp960
(g101
I12
tp961
atp962
a(S'aby'
p963
(dp964
g26
F0.000101
sS'CONJ'
p965
F0.999899
s(lp966
tp967
a(S'sme'
p968
(dp969
g26
F0.0
sS'VERB'
p970
F1.0
s(lp971
(g110
I13
tp972
atp973
a(S'svojim'
p974
(dp975
S'PRON'
p976
F1.0
s(lp977
(g192
I22
tp978
atp979
a(S'hlasovan\xc3\xadm'
p980
(dp981
S'NOUN'
p982
F1.0
s(lp983
(g200
I23
tp984
atp985
a(S'spolo\xc4\x8dne'
p986
(dp987
S'ADV'
p988
F1.0
s(lp989
(g129
I19
tp990
atp991
a(S'iniciovali'
p992
(dp993
S'VERB'
p994
F1.0
s(lp995
(g117
I14
tp996
atp997
a(S'eur\xc3\xb3psku'
p998
(dp999
S'ADJ'
p1000
F1.0
s(lp1001
(g153
I16
tp1002
atp1003
a(S'r\xc3\xb3msku'
p1004
(dp1005
S'ADJ'
p1006
F1.0
s(lp1007
(g161
I17
tp1008
atp1009
a(S'strat\xc3\xa9giu'
p1010
(dp1011
S'NOUN'
p1012
F1.0
s(lp1013
(g145
I18
tp1014
atp1015
a(g18
(dp1016
g18
F1.0
s(lp1017
(g18
I24
tp1018
atp1019
asS'pl'
p1020
(lp1021
(S'dlatego'
p1022
(dp1023
S'ADV'
p1024
F1.0
s(lp1025
(g13
I1
tp1026
atp1027
a(S'wzywam'
p1028
(dp1029
S'VERB'
p1030
F1.0
s(lp1031
(g36
I2
tp1032
atp1033
a(S'koleg\xc3\xb3w'
p1034
(dp1035
S'NOUN'
p1036
F1.0
s(lp1037
(g50
I5
tp1038
atp1039
a(S'pos\xc5\x82\xc3\xb3w'
p1040
(dp1041
S'NOUN'
p1042
F1.0
s(lp1043
(g58
I6
tp1044
atp1045
a(S'do'
p1046
(dp1047
g26
F0.0
sS'NOUN'
p1048
F1e-06
sS'ADP'
p1049
F1.0
s(lp1050
(g65
I7
tp1051
atp1052
a(S'stawienia'
p1053
(dp1054
S'VERB'
p1055
F1.0
s(lp1056
tp1057
a(S'czo\xc5\x82a'
p1058
(dp1059
S'NOUN'
p1060
F1.0
s(lp1061
(g72
I8
tp1062
atp1063
a(S'temu'
p1064
(dp1065
S'ADJ'
p1066
F0.140966
sS'NOUN'
p1067
F0.847125
sS'ADP'
p1068
F0.011909
s(lp1069
(g79
I9
tp1070
atp1071
a(S'europejskiemu'
p1072
(dp1073
S'ADV'
p1074
F3.6e-05
sS'NOUN'
p1075
F0.10528900000000001
sS'VERB'
p1076
F0.008044000000000003
sS'ADJ'
p1077
F0.8866330000000001
s(lp1078
(g94
I10
tp1079
atp1080
a(S'wyzwaniu'
p1081
(dp1082
S'ADV'
p1083
F0.000489
sS'ADJ'
p1084
F0.000722
sS'VERB'
p1085
F0.20336100000000001
sS'NOUN'
p1086
F0.7954279999999999
s(lp1087
(g86
I11
tp1088
atp1089
a(g28
(dp1090
S'PRT'
p1091
F0.022957
sS'CONJ'
p1092
F0.97681
sS'NOUN'
p1093
F0.000208
sg26
F5e-06
sS'PRON'
p1094
F2.1000000000000002e-05
s(lp1095
(g101
I12
tp1096
atp1097
a(S'zainicjowania'
p1098
(dp1099
S'ADJ'
p1100
F0.001474
sS'PRT'
p1101
F0.011078
sS'VERB'
p1102
F0.832409
sS'NOUN'
p1103
F0.15503799999999998
s(lp1104
(g117
I14
tp1105
atp1106
a(S'razem'
p1107
(dp1108
S'ADV'
p1109
F0.633372
sS'NOUN'
p1110
F0.366628
s(lp1111
(g129
I19
tp1112
atp1113
a(S'z'
p1114
(dp1115
S'PRT'
p1116
F1e-06
sS'VERB'
p1117
F0.0
sS'NOUN'
p1118
F0.0
sS'ADP'
p1119
F0.9999979999999999
sg26
F0.0
s(lp1120
(g185
I21
tp1121
atp1122
a(S'nami'
p1123
(dp1124
S'PRON'
p1125
F1.0
s(lp1126
(g192
I22
tp1127
atp1128
a(S'europejskiej'
p1129
(dp1130
S'ADJ'
p1131
F1.0
s(lp1132
(g153
I16
tp1133
atp1134
a(S'strategii'
p1135
(dp1136
S'NOUN'
p1137
F0.9999999999999999
s(lp1138
(g145
I18
tp1139
atp1140
a(S'dotycz\xc4\x85cej'
p1141
(dp1142
S'VERB'
p1143
F1.0
s(lp1144
tp1145
a(S'rom\xc3\xb3w'
p1146
(dp1147
S'ADV'
p1148
F0.000791
sS'ADJ'
p1149
F0.0013899999999999995
sS'VERB'
p1150
F0.001587
sS'NOUN'
p1151
F0.9962339999999997
s(lp1152
(g161
I17
tp1153
atp1154
a(g18
(dp1155
g18
F1.0
s(lp1156
(g18
I24
tp1157
atp1158
asS'sl'
p1159
(lp1160
(S'zato'
p1161
(dp1162
S'ADV'
p1163
F0.697552
sS'CONJ'
p1164
F0.302448
s(lp1165
(g13
I1
tp1166
atp1167
a(S'pozivam'
p1168
(dp1169
S'ADV'
p1170
F0.008156
sS'ADJ'
p1171
F0.002815
sS'VERB'
p1172
F0.8113419999999999
sS'NOUN'
p1173
F0.17768699999999998
s(lp1174
(g36
I2
tp1175
atp1176
a(S'svoje'
p1177
(dp1178
S'PRON'
p1179
F1.000001
s(lp1180
(g43
I4
tp1181
atp1182
a(S'kolege'
p1183
(dp1184
S'NOUN'
p1185
F1.0
s(lp1186
(g50
I5
tp1187
atp1188
a(S'poslance'
p1189
(dp1190
S'NOUN'
p1191
F1.0
s(lp1192
(g58
I6
tp1193
atp1194
a(g16
(dp1195
g18
F1.0
s(lp1196
tp1197
a(S'da'
p1198
(dp1199
S'PRT'
p1200
F5e-06
sS'CONJ'
p1201
F0.99997
sS'VERB'
p1202
F2.4e-05
sg26
F0.0
s(lp1203
(g65
I7
tp1204
atp1205
a(S'se'
p1206
(dp1207
S'PRON'
p1208
F1.0
sg26
F0.0
s(lp1209
(g72
I8
tp1210
atp1211
a(S'soo\xc4\x8dijo'
p1212
(dp1213
S'VERB'
p1214
F1.0
s(lp1215
tp1216
a(S's'
p1217
(dp1218
S'VERB'
p1219
F2e-06
sS'NOUN'
p1220
F3e-06
sS'ADP'
p1221
F0.9999950000000001
s(lp1222
(g72
I8
tp1223
atp1224
a(S'tem'
p1225
(dp1226
S'ADV'
p1227
F1.4e-05
sS'PRON'
p1228
F0.999859
sS'NOUN'
p1229
F0.000126
s(lp1230
(g79
I9
tp1231
atp1232
a(S'evropskim'
p1233
(dp1234
S'ADJ'
p1235
F1.0
s(lp1236
(g94
I10
tp1237
atp1238
a(S'izzivom'
p1239
(dp1240
S'NOUN'
p1241
F1.0
s(lp1242
(g86
I11
tp1243
atp1244
a(S'in'
p1245
(dp1246
S'ADV'
p1247
F0.000117
sg26
F3.5e-05
sS'CONJ'
p1248
F0.999838
sS'NOUN'
p1249
F1e-05
s(lp1250
(g101
I12
tp1251
atp1252
a(S'skupaj'
p1253
(dp1254
S'ADV'
p1255
F1.0
s(lp1256
(g129
I19
tp1257
atp1258
a(S'uvedejo'
p1259
(dp1260
S'ADV'
p1261
F0.00018
sS'NOUN'
p1262
F0.0009460000000000001
sS'VERB'
p1263
F0.9150529999999999
sS'ADJ'
p1264
F0.083819
s(lp1265
(g117
I14
tp1266
atp1267
a(S'evropsko'
p1268
(dp1269
S'ADV'
p1270
F0.000564
sS'ADJ'
p1271
F0.9994370000000001
s(lp1272
(g153
I16
tp1273
atp1274
a(S'strategijo'
p1275
(dp1276
S'NOUN'
p1277
F1.0
s(lp1278
(g145
I18
tp1279
atp1280
a(S'za'
p1281
(dp1282
S'ADV'
p1283
F4.9e-05
sg26
F3e-06
sS'ADP'
p1284
F0.9999480000000001
s(lp1285
(g110
I13
tp1286
atp1287
a(S'rome'
p1288
(dp1289
S'ADJ'
p1290
F4e-06
sg26
F3e-05
sS'VERB'
p1291
F0.000182
sS'NOUN'
p1292
F0.999784
s(lp1293
(g161
I17
tp1294
atp1295
a(g16
(dp1296
g18
F1.0
s(lp1297
(g16
I20
tp1298
atp1299
a(g1114
(dp1300
S'ADP'
p1301
F1.0
s(lp1302
(g185
I21
tp1303
atp1304
a(S'na\xc5\xa1im'
p1305
(dp1306
S'PRON'
p1307
F0.9999990000000001
s(lp1308
(g192
I22
tp1309
atp1310
a(S'glasom'
p1311
(dp1312
S'NOUN'
p1313
F1.0
s(lp1314
tp1315
a(S'podpore'
p1316
(dp1317
S'NOUN'
p1318
F1.0
s(lp1319
(g200
I23
tp1320
atp1321
a(g18
(dp1322
g18
F1.0
s(lp1323
(g18
I24
tp1324
atp1325
asS'es'
p1326
(lp1327
(S'pido'
p1328
(dp1329
S'VERB'
p1330
F1.0
s(lp1331
(g36
I2
tp1332
atp1333
a(g16
(dp1334
g18
F1.0
s(lp1335
(g13
I1
tp1336
atp1337
a(S'por'
p1338
(dp1339
S'CONJ'
p1340
F1.0
s(lp1341
(g13
I1
tp1342
atp1343
a(S'tanto'
p1344
(dp1345
S'CONJ'
p1346
F1.0
s(lp1347
tp1348
a(g16
(dp1349
g18
F1.0
s(lp1350
(g13
I1
tp1351
atp1352
a(g138
(dp1353
g26
F8e-06
sS'CONJ'
p1354
F0.000173
sS'ADP'
p1355
F0.999818
s(lp1356
(g226
I3
tp1357
atp1358
a(S'mis'
p1359
(dp1360
S'PRON'
p1361
F1.0
s(lp1362
(g43
I4
tp1363
atp1364
a(S'colegas'
p1365
(dp1366
S'NOUN'
p1367
F1.0
s(lp1368
(g50
I5
tp1369
atp1370
a(S'diputados'
p1371
(dp1372
S'VERB'
p1373
F0.65681
sS'NOUN'
p1374
F0.34319
s(lp1375
(g58
I6
tp1376
atp1377
a(S'que'
p1378
(dp1379
g26
F1e-06
sS'CONJ'
p1380
F0.999999
s(lp1381
(g65
I7
tp1382
atp1383
a(S'afronten'
p1384
(dp1385
S'VERB'
p1386
F1.0
s(lp1387
(g72
I8
tp1388
atp1389
a(S'este'
p1390
(dp1391
S'PRON'
p1392
F0.99981
sS'NOUN'
p1393
F0.00019
s(lp1394
(g79
I9
tp1395
atp1396
a(S'desaf\xc3\xado'
p1397
(dp1398
S'VERB'
p1399
F0.000129
sS'NOUN'
p1400
F0.999871
s(lp1401
(g86
I11
tp1402
atp1403
a(S'europeo'
p1404
(dp1405
S'NOUN'
p1406
F0.00111
sS'ADJ'
p1407
F0.99889
s(lp1408
(g94
I10
tp1409
atp1410
a(S'y'
p1411
(dp1412
g26
F0.0005
sS'CONJ'
p1413
F0.9995
s(lp1414
(g101
I12
tp1415
atp1416
a(S'que'
p1417
(dp1418
g26
F0.0
sS'CONJ'
p1419
F1.0
s(lp1420
(g110
I13
tp1421
atp1422
a(S'pongamos'
p1423
(dp1424
S'VERB'
p1425
F1.0
s(lp1426
tp1427
a(S'en'
p1428
(dp1429
g26
F8e-06
sS'CONJ'
p1430
F1.4e-05
sS'ADP'
p1431
F0.999977
s(lp1432
tp1433
a(S'marcha'
p1434
(dp1435
S'NOUN'
p1436
F1.0
s(lp1437
(g117
I14
tp1438
atp1439
a(S'juntos'
p1440
(dp1441
S'ADJ'
p1442
F1.0
s(lp1443
(g129
I19
tp1444
atp1445
a(S'una'
p1446
(dp1447
S'DET'
p1448
F1.0
s(lp1449
(g138
I15
tp1450
atp1451
a(S'estrategia'
p1452
(dp1453
S'NOUN'
p1454
F1.0
s(lp1455
(g145
I18
tp1456
atp1457
a(S'roman\xc3\xad'
p1458
(dp1459
S'ADJ'
p1460
F0.155633
sS'VERB'
p1461
F0.305825
sS'NOUN'
p1462
F0.538541
s(lp1463
(g161
I17
tp1464
atp1465
a(S'europea'
p1466
(dp1467
S'ADJ'
p1468
F1.0
s(lp1469
(g153
I16
tp1470
atp1471
a(g16
(dp1472
g18
F1.0
s(lp1473
(g16
I20
tp1474
atp1475
a(S'con'
p1476
(dp1477
S'ADP'
p1478
F1.0
s(lp1479
(g185
I21
tp1480
atp1481
a(S'nuestro'
p1482
(dp1483
S'PRON'
p1484
F0.761508
sS'ADJ'
p1485
F0.238492
s(lp1486
(g192
I22
tp1487
atp1488
a(S'voto'
p1489
(dp1490
S'VERB'
p1491
F0.033574
sS'NOUN'
p1492
F0.966426
s(lp1493
(g200
I23
tp1494
atp1495
a(g18
(dp1496
g18
F1.0
s(lp1497
(g18
I24
tp1498
atp1499
as.