(dp0
S'fr'
p1
(lp2
(S'('
p3
(dp4
S'.'
p5
F1.0
s(lp6
(g3
I0
tp7
atp8
a(S'it'
p9
(dp10
S'ADJ'
p11
F0.13429
sS'VERB'
p12
F0.638201
sS'NOUN'
p13
F0.227509
s(lp14
(S'it'
p15
I1
tp16
atp17
a(S')'
p18
(dp19
g5
F1.0
s(lp20
(g18
I2
tp21
atp22
a(S'monsieur'
p23
(dp24
S'NOUN'
p25
F1.0
s(lp26
(S'mr'
p27
I3
tp28
atp29
a(S'le'
p30
(dp31
S'PRON'
p32
F0.000321
sS'DET'
p33
F0.999679
s(lp34
tp35
a(S'pr\xc3\xa9sident'
p36
(dp37
S'VERB'
p38
F4.5e-05
sS'NOUN'
p39
F0.999955
s(lp40
(S'president'
p41
I4
tp42
atp43
a(S','
p44
(dp45
g5
F1.0
s(lp46
(g44
I5
tp47
atp48
a(S'je'
p49
(dp50
S'PRON'
p51
F1.0
s(lp52
tp53
a(S"m'"
p54
(dp55
S'ADJ'
p56
F0.000625
sS'VERB'
p57
F0.9973000000000002
sS'NOUN'
p58
F0.002077
s(lp59
(S'i'
p60
I6
tp61
atp62
a(S'efforcerai'
p63
(dp64
S'VERB'
p65
F1.0
s(lp66
(S'try'
p67
I8
tp68
atp69
a(S'de'
p70
(dp71
S'ADP'
p72
F1.0
s(lp73
(S'to'
p74
I9
tp75
atp76
a(S'respecter'
p77
(dp78
S'VERB'
p79
F1.0
s(lp80
(S'stay'
p81
I10
tp82
atp83
a(S'mon'
p84
(dp85
S'PRON'
p86
F1.0
s(lp87
(S'my'
p88
I12
tp89
atp90
a(S'temps'
p91
(dp92
S'NOUN'
p93
F1.0
s(lp94
(S'time'
p95
I14
tp96
atp97
a(S'de'
p98
(dp99
S'ADP'
p100
F1.0
s(lp101
tp102
a(S'parole'
p103
(dp104
S'NOUN'
p105
F1.0
s(lp106
(S'speaking'
p107
I13
tp108
atp109
a(g5
(dp110
g5
F1.0
s(lp111
(g5
I15
tp112
atp113
asS'en'
p114
(lp115
(g3
(dp116
g5
F1.0
s(lp117
(g3
I0
tp118
atp119
a(g15
(dp120
S'PRON'
p121
F1.0
s(lp122
(g15
I1
tp123
atp124
a(g18
(dp125
g5
F1.0
s(lp126
(g18
I2
tp127
atp128
a(g27
(dp129
S'ADJ'
p130
F0.004952
sS'NOUN'
p131
F0.995048
s(lp132
(g27
I3
tp133
atp134
a(g41
(dp135
S'NOUN'
p136
F1.0
s(lp137
(g41
I4
tp138
atp139
a(g44
(dp140
g5
F1.0
s(lp141
(g44
I5
tp142
atp143
a(g60
(dp144
S'X'
p145
F0.177704
sS'NOUN'
p146
F0.822296
s(lp147
(g60
I6
tp148
atp149
a(S'will'
p150
(dp151
S'VERB'
p152
F0.999974
sS'NOUN'
p153
F2.5e-05
s(lp154
(g150
I7
tp155
atp156
a(g67
(dp157
S'VERB'
p158
F0.999994
sS'NOUN'
p159
F6e-06
s(lp160
(g67
I8
tp161
atp162
a(g74
(dp163
S'ADV'
p164
F0.0
sS'PRT'
p165
F1.0
sS'ADP'
p166
F0.0
s(lp167
(g74
I9
tp168
atp169
a(g81
(dp170
S'VERB'
p171
F0.996409
sS'NOUN'
p172
F0.003591
s(lp173
(g81
I10
tp174
atp175
a(S'within'
p176
(dp177
S'ADV'
p178
F0.000294
sS'ADP'
p179
F0.999706
s(lp180
(g176
I11
tp181
atp182
a(g88
(dp183
S'PRON'
p184
F1.0
s(lp185
(g88
I12
tp186
atp187
a(g107
(dp188
S'ADJ'
p189
F0.21627
sS'VERB'
p190
F0.269373
sS'NOUN'
p191
F0.514357
s(lp192
(g107
I13
tp193
atp194
a(g95
(dp195
S'VERB'
p196
F9.1e-05
sS'NOUN'
p197
F0.99991
s(lp198
(g95
I14
tp199
atp200
a(g5
(dp201
g5
F1.0
s(lp202
(g5
I15
tp203
atp204
asS'nl'
p205
(lp206
(g3
(dp207
g5
F1.0
s(lp208
(g3
I0
tp209
atp210
a(S'it'
p211
(dp212
S'ADJ'
p213
F0.06221
sS'NOUN'
p214
F0.93779
s(lp215
(g15
I1
tp216
atp217
a(g18
(dp218
g5
F1.0
s(lp219
(g18
I2
tp220
atp221
a(S'mijnheer'
p222
(dp223
S'NOUN'
p224
F1.0
s(lp225
(g27
I3
tp226
atp227
a(S'de'
p228
(dp229
S'DET'
p230
F1.0
s(lp231
tp232
a(S'voorzitter'
p233
(dp234
S'NOUN'
p235
F1.0
s(lp236
(g41
I4
tp237
atp238
a(g44
(dp239
g5
F1.0
s(lp240
(g44
I5
tp241
atp242
a(S'ik'
p243
(dp244
S'PRON'
p245
F0.999917
sS'NOUN'
p246
F8.3e-05
s(lp247
(g60
I6
tp248
atp249
a(S'zal'
p250
(dp251
S'VERB'
p252
F1.0
s(lp253
(g150
I7
tp254
atp255
a(S'proberen'
p256
(dp257
S'VERB'
p258
F0.999844
sS'NOUN'
p259
F0.000156
s(lp260
(g67
I8
tp261
atp262
a(S'mij'
p263
(dp264
S'PRON'
p265
F1.0
s(lp266
(g88
I12
tp267
atp268
a(S'aan'
p269
(dp270
S'ADV'
p271
F0.033384
sS'ADP'
p272
F0.966616
s(lp273
tp274
a(S'de'
p275
(dp276
S'DET'
p277
F1.0
s(lp278
tp279
a(S'tijd'
p280
(dp281
S'NOUN'
p282
F1.0
s(lp283
(g95
I14
tp284
atp285
a(S'te'
p286
(dp287
S'PRT'
p288
F1.0
s(lp289
(g74
I9
tp290
atp291
a(S'houden'
p292
(dp293
S'VERB'
p294
F1.0
sS'NOUN'
p295
F0.0
s(lp296
(g81
I10
tp297
atp298
a(g5
(dp299
g5
F1.0
s(lp300
(g5
I15
tp301
atp302
asS'de'
p303
(lp304
(g3
(dp305
g5
F1.0
s(lp306
(g3
I0
tp307
atp308
a(S'it'
p309
(dp310
g145
F1.0
s(lp311
(g15
I1
tp312
atp313
a(g18
(dp314
g5
F1.0
s(lp315
(g18
I2
tp316
atp317
a(S'herr'
p318
(dp319
S'ADJ'
p320
F0.197595
sS'NOUN'
p321
F0.771917
s(lp322
(g27
I3
tp323
atp324
a(S'pr\xc3\xa4sident'
p325
(dp326
S'VERB'
p327
F0.063894
sS'NOUN'
p328
F0.922144
s(lp329
(g41
I4
tp330
atp331
a(g44
(dp332
g5
F1.0
s(lp333
(g44
I5
tp334
atp335
a(S'ich'
p336
(dp337
S'PRON'
p338
F1.0
s(lp339
(g60
I6
tp340
atp341
a(S'werde'
p342
(dp343
S'VERB'
p344
F1.0
s(lp345
(g150
I7
tp346
atp347
a(S'mich'
p348
(dp349
S'PRON'
p350
F1.0
s(lp351
tp352
a(S'bem\xc3\xbchen'
p353
(dp354
S'VERB'
p355
F1.0
s(lp356
(g67
I8
tp357
atp358
a(g44
(dp359
g5
F1.0
s(lp360
(g74
I9
tp361
atp362
a(S'meine'
p363
(dp364
S'PRON'
p365
F0.984507
sS'VERB'
p366
F0.015493
s(lp367
(g88
I12
tp368
atp369
a(S'redezeit'
p370
(dp371
S'ADJ'
p372
F0.000214
sS'NOUN'
p373
F0.999779
s(lp374
(g107
I13
tp375
atp376
a(S'einzuhalten'
p377
(dp378
S'VERB'
p379
F1.0
s(lp380
(g81
I10
tp381
atp382
a(g5
(dp383
g5
F1.0
s(lp384
(g5
I15
tp385
atp386
asS'it'
p387
(lp388
(S'signor'
p389
(dp390
S'NOUN'
p391
F1.0
s(lp392
(g27
I3
tp393
atp394
a(S'presidente'
p395
(dp396
S'NOUN'
p397
F1.0
s(lp398
(g41
I4
tp399
atp400
a(g44
(dp401
g5
F1.0
s(lp402
(g44
I5
tp403
atp404
a(S'cercher\xc3\xb2'
p405
(dp406
S'VERB'
p407
F1.0
s(lp408
(g67
I8
tp409
atp410
a(S'di'
p411
(dp412
S'CONJ'
p413
F1e-06
sS'ADP'
p414
F0.999999
s(lp415
(g74
I9
tp416
atp417
a(S'rispettare'
p418
(dp419
S'VERB'
p420
F1.0
s(lp421
(g81
I10
tp422
atp423
a(g60
(dp424
S'DET'
p425
F1.0
s(lp426
(g88
I12
tp427
atp428
a(S'tempi'
p429
(dp430
S'NOUN'
p431
F1.0
s(lp432
(g95
I14
tp433
atp434
a(g5
(dp435
g5
F1.0
s(lp436
(g5
I15
tp437
atp438
asS'sk'
p439
(lp440
(g3
(dp441
g5
F1.0
s(lp442
(g3
I0
tp443
atp444
a(S'it'
p445
(dp446
g145
F1.0
s(lp447
(g15
I1
tp448
atp449
a(g18
(dp450
g5
F1.0
s(lp451
(g18
I2
tp452
atp453
a(S'v\xc3\xa1\xc5\xbeen\xc3\xbd'
p454
(dp455
S'VERB'
p456
F0.273237
sS'ADJ'
p457
F0.726763
s(lp458
tp459
a(S'p\xc3\xa1n'
p460
(dp461
S'NOUN'
p462
F1.0
s(lp463
(g27
I3
tp464
atp465
a(S'predsedaj\xc3\xbaci'
p466
(dp467
S'VERB'
p468
F1.0
s(lp469
(g41
I4
tp470
atp471
a(g44
(dp472
g5
F1.0
s(lp473
(g44
I5
tp474
atp475
a(S'pok\xc3\xbasim'
p476
(dp477
S'VERB'
p478
F1.0
s(lp479
tp480
a(S'sa'
p481
(dp482
S'PRT'
p483
F0.999987
sS'ADP'
p484
F0.0
sg145
F1.2e-05
s(lp485
(g67
I8
tp486
atp487
a(S'zmesti\xc5\xa5'
p488
(dp489
S'VERB'
p490
F1.0
s(lp491
(g81
I10
tp492
atp493
a(S'do'
p494
(dp495
g145
F8.3e-05
sS'ADP'
p496
F0.999874
sS'PRON'
p497
F4.2e-05
s(lp498
(g176
I11
tp499
atp500
a(S'svojho'
p501
(dp502
S'PRON'
p503
F1.0
s(lp504
(g88
I12
tp505
atp506
a(S're\xc4\x8dn\xc3\xadckeho'
p507
(dp508
S'ADJ'
p509
F1.0
s(lp510
(g107
I13
tp511
atp512
a(S'\xc4\x8dasu'
p513
(dp514
S'NOUN'
p515
F1.0
s(lp516
(g95
I14
tp517
atp518
a(g5
(dp519
g5
F1.0
s(lp520
(g5
I15
tp521
atp522
asS'pl'
p523
(lp524
(g3
(dp525
S'NOUN'
p526
F4.3e-05
sg5
F0.999957
s(lp527
(g3
I0
tp528
atp529
a(S'it'
p530
(dp531
g145
F1.0
s(lp532
(g15
I1
tp533
atp534
a(g18
(dp535
g5
F1.0
s(lp536
(g18
I2
tp537
atp538
a(S'panie'
p539
(dp540
S'NOUN'
p541
F1.0
s(lp542
(g27
I3
tp543
atp544
a(S'przewodnicz\xc4\x85cy'
p545
(dp546
S'VERB'
p547
F0.000602
sS'NOUN'
p548
F0.999398
s(lp549
tp550
a(S'!'
p551
(dp552
g5
F1.0
s(lp553
(g41
I4
tp554
atp555
a(S'spr\xc3\xb3buj\xc4\x99'
p556
(dp557
S'VERB'
p558
F1.0
s(lp559
(g67
I8
tp560
atp561
a(S'zmie\xc5\x9bci\xc4\x87'
p562
(dp563
S'VERB'
p564
F1.0
s(lp565
tp566
a(S'si\xc4\x99'
p567
(dp568
S'PRT'
p569
F1.0
s(lp570
(g81
I10
tp571
atp572
a(S'w'
p573
(dp574
S'ADJ'
p575
F0.0
sg145
F0.0
sS'NOUN'
p576
F0.0
sS'ADP'
p577
F1.0
s(lp578
(g176
I11
tp579
atp580
a(S'czasie'
p581
(dp582
S'NOUN'
p583
F1.0
s(lp584
(g95
I14
tp585
atp586
a(S'przys\xc5\x82uguj\xc4\x85cym'
p587
(dp588
S'ADV'
p589
F0.001234
sS'NOUN'
p590
F0.010280000000000001
sS'VERB'
p591
F0.5849919999999996
sS'ADJ'
p592
F0.4034930000000001
s(lp593
(g107
I13
tp594
atp595
a(S'mi'
p596
(dp597
S'PRON'
p598
F0.999984
sg145
F1.5e-05
s(lp599
(g107
I13
tp600
atp601
a(S'na'
p602
(dp603
S'PRT'
p604
F6.2e-05
sS'VERB'
p605
F8.300000000000001e-05
sS'NOUN'
p606
F9e-06
sS'ADP'
p607
F0.999839
sg145
F9e-06
s(lp608
tp609
a(S'wyst\xc4\x85pienie'
p610
(dp611
S'VERB'
p612
F0.265415
sS'NOUN'
p613
F0.734586
s(lp614
(g107
I13
tp615
atp616
a(g5
(dp617
g5
F1.0
s(lp618
(g5
I15
tp619
atp620
asS'sl'
p621
(lp622
(g3
(dp623
g5
F1.0
s(lp624
(g3
I0
tp625
atp626
a(S'it'
p627
(dp628
S'ADV'
p629
F0.008238
sS'NOUN'
p630
F0.931016
sS'NUM'
p631
F2e-05
sg145
F0.059577
sS'ADJ'
p632
F0.001133
sS'VERB'
p633
F1.5e-05
s(lp634
(g15
I1
tp635
atp636
a(g18
(dp637
g5
F1.0
s(lp638
(g18
I2
tp639
atp640
a(S'gospod'
p641
(dp642
S'NOUN'
p643
F1.0
s(lp644
(g27
I3
tp645
atp646
a(S'predsednik'
p647
(dp648
S'NOUN'
p649
F1.0
s(lp650
(g41
I4
tp651
atp652
a(g44
(dp653
g5
F1.0
s(lp654
(g44
I5
tp655
atp656
a(S'posku\xc5\xa1al'
p657
(dp658
S'VERB'
p659
F1.0
s(lp660
(g67
I8
tp661
atp662
a(S'se'
p663
(dp664
S'PRON'
p665
F0.999913
sg145
F8.7e-05
s(lp666
(g60
I6
tp667
atp668
a(S'bom'
p669
(dp670
S'VERB'
p671
F1.0
s(lp672
(g150
I7
tp673
atp674
a(S'dr\xc5\xbeati'
p675
(dp676
S'VERB'
p677
F1.0
s(lp678
(g81
I10
tp679
atp680
a(S'svojega'
p681
(dp682
S'PRON'
p683
F1.0
s(lp684
(g88
I12
tp685
atp686
a(S'\xc4\x8dasa'
p687
(dp688
S'NOUN'
p689
F1.0
s(lp690
(g95
I14
tp691
atp692
a(S'za'
p693
(dp694
S'ADV'
p695
F1.3e-05
sg145
F3e-06
sS'ADP'
p696
F0.999983
s(lp697
tp698
a(S'govor'
p699
(dp700
S'NOUN'
p701
F1.0
s(lp702
(g107
I13
tp703
atp704
a(g5
(dp705
g5
F1.0
s(lp706
(g5
I15
tp707
atp708
asS'es'
p709
(lp710
(g3
(dp711
g5
F1.0
s(lp712
(g3
I0
tp713
atp714
a(S'it'
p715
(dp716
S'ADJ'
p717
F0.011203
sS'NOUN'
p718
F0.9887980000000001
s(lp719
(g15
I1
tp720
atp721
a(g18
(dp722
g5
F1.0
s(lp723
(g18
I2
tp724
atp725
a(S'se\xc3\xb1or'
p726
(dp727
S'NOUN'
p728
F1.0
s(lp729
(g27
I3
tp730
atp731
a(S'presidente'
p732
(dp733
S'NOUN'
p734
F1.0
s(lp735
(g41
I4
tp736
atp737
a(g44
(dp738
g5
F1.0
s(lp739
(g44
I5
tp740
atp741
a(S'intentar\xc3\xa9'
p742
(dp743
S'VERB'
p744
F1.0
s(lp745
(g67
I8
tp746
atp747
a(S'no'
p748
(dp749
S'ADV'
p750
F0.999999
sg145
F1e-06
s(lp751
tp752
a(S'superar'
p753
(dp754
S'VERB'
p755
F1.0
s(lp756
(g81
I10
tp757
atp758
a(S'mi'
p759
(dp760
S'PRON'
p761
F1.0
s(lp762
(g88
I12
tp763
atp764
a(S'tiempo'
p765
(dp766
S'NOUN'
p767
F1.0
s(lp768
(g95
I14
tp769
atp770
a(S'de'
p771
(dp772
g145
F2.9e-05
sS'CONJ'
p773
F0.000449
sS'ADP'
p774
F0.999522
s(lp775
(g176
I11
tp776
atp777
a(S'intervenci\xc3\xb3n'
p778
(dp779
S'NOUN'
p780
F1.0
s(lp781
(g107
I13
tp782
atp783
a(g5
(dp784
g5
F1.0
s(lp785
(g5
I15
tp786
atp787
as.