(dp0
S'fr'
p1
(lp2
(S'il'
p3
(dp4
S'PRON'
p5
F1.0
s(lp6
(S'it'
p7
I0
tp8
atp9
a(S'a'
p10
(dp11
S'VERB'
p12
F1.0
s(lp13
(S'was'
p14
I1
tp15
atp16
a(S'aussi'
p17
(dp18
S'ADV'
p19
F0.999845
sS'CONJ'
p20
F0.000155
s(lp21
(S'also'
p22
I2
tp23
atp24
a(S'\xc3\xa9t\xc3\xa9'
p25
(dp26
S'VERB'
p27
F0.988794
sS'NOUN'
p28
F0.011206
s(lp29
tp30
a(S'cr\xc3\xa9\xc3\xa9'
p31
(dp32
S'VERB'
p33
F1.0
s(lp34
(S'created'
p35
I3
tp36
atp37
a(S'par'
p38
(dp39
S'NOUN'
p40
F0.0
sS'ADP'
p41
F1.0
s(lp42
(S'by'
p43
I4
tp44
atp45
a(S'les'
p46
(dp47
S'PRON'
p48
F0.003689
sS'DET'
p49
F0.996309
sS'ADP'
p50
F2e-06
s(lp51
(S'non-commercial'
p52
I5
tp53
atp54
a(S'banques'
p55
(dp56
S'VERB'
p57
F0.003925
sS'NOUN'
p58
F0.996074
s(lp59
(S'banks'
p60
I6
tp61
atp62
a(S'non'
p63
(dp64
S'ADV'
p65
F0.999996
sS'X'
p66
F4e-06
s(lp67
tp68
a(S'commerciales'
p69
(dp70
S'NOUN'
p71
F0.018398
sS'ADJ'
p72
F0.981602
s(lp73
(g52
I5
tp74
atp75
a(S','
p76
(dp77
S'.'
p78
F1.0
s(lp79
(g76
I7
tp80
atp81
a(S'par'
p82
(dp83
S'NOUN'
p84
F1e-06
sS'ADP'
p85
F0.999999
s(lp86
(S'by'
p87
I8
tp88
atp89
a(S'les'
p90
(dp91
S'PRON'
p92
F5.6e-05
sS'DET'
p93
F0.999943
sS'ADP'
p94
F2e-06
s(lp95
tp96
a(S'soci\xc3\xa9t\xc3\xa9s'
p97
(dp98
S'NOUN'
p99
F1.0
s(lp100
(S'societies'
p101
I10
tp102
atp103
a(S"d'"
p104
(dp105
S'NOUN'
p106
F0.032441
sS'VERB'
p107
F0.694014
sS'ADJ'
p108
F0.273544
s(lp109
tp110
a(S'investissement'
p111
(dp112
S'NOUN'
p113
F1.0
s(lp114
(S'investment'
p115
I9
tp116
atp117
a(g76
(dp118
g78
F1.0
s(lp119
(g76
I11
tp120
atp121
a(S'ainsi'
p122
(dp123
S'ADV'
p124
F0.450962
sS'CONJ'
p125
F0.549038
s(lp126
(S'well'
p127
I16
tp128
atp129
a(S'que'
p130
(dp131
S'ADV'
p132
F0.090497
sS'PRON'
p133
F0.055715
sS'CONJ'
p134
F0.853788
s(lp135
(S'as'
p136
I15
tp137
atp138
a(S'par'
p139
(dp140
S'NOUN'
p141
F1e-06
sS'ADP'
p142
F0.999999
s(lp143
(S'by'
p144
I12
tp145
atp146
a(S'les'
p147
(dp148
S'PRON'
p149
F0.005008
sS'DET'
p150
F0.994991
sS'ADP'
p151
F2e-06
s(lp152
tp153
a(S'fonds'
p154
(dp155
S'VERB'
p156
F0.005368
sS'NOUN'
p157
F0.994632
s(lp158
(S'funds'
p159
I14
tp160
atp161
a(S'sp\xc3\xa9culatifs'
p162
(dp163
S'ADJ'
p164
F1.0
s(lp165
(S'hedge'
p166
I13
tp167
atp168
a(g78
(dp169
g78
F1.0
s(lp170
(g78
I17
tp171
atp172
asS'en'
p173
(lp174
(g7
(dp175
S'PRON'
p176
F1.0
s(lp177
(g7
I0
tp178
atp179
a(g14
(dp180
S'VERB'
p181
F1.0
s(lp182
(g14
I1
tp183
atp184
a(g22
(dp185
S'ADV'
p186
F1.0
s(lp187
(g22
I2
tp188
atp189
a(g35
(dp190
S'VERB'
p191
F1.0
s(lp192
(g35
I3
tp193
atp194
a(g43
(dp195
S'ADV'
p196
F0.00054
sS'NOUN'
p197
F0.0
sS'ADP'
p198
F0.99946
s(lp199
(g43
I4
tp200
atp201
a(g52
(dp202
S'ADJ'
p203
F1.0
s(lp204
(g52
I5
tp205
atp206
a(g60
(dp207
S'VERB'
p208
F1e-06
sS'NOUN'
p209
F0.999999
s(lp210
(g60
I6
tp211
atp212
a(g76
(dp213
g78
F1.0
s(lp214
(g76
I7
tp215
atp216
a(g87
(dp217
S'ADV'
p218
F0.000365
sS'NOUN'
p219
F1e-06
sS'ADP'
p220
F0.999634
s(lp221
(g87
I8
tp222
atp223
a(g115
(dp224
S'NOUN'
p225
F1.0
s(lp226
(g115
I9
tp227
atp228
a(g101
(dp229
S'NOUN'
p230
F1.0
s(lp231
(g101
I10
tp232
atp233
a(g76
(dp234
g78
F1.0
s(lp235
(g76
I11
tp236
atp237
a(g144
(dp238
S'ADV'
p239
F0.002008
sS'NOUN'
p240
F0.0
sS'ADP'
p241
F0.997992
s(lp242
(g144
I12
tp243
atp244
a(g166
(dp245
S'NOUN'
p246
F0.338412
sS'VERB'
p247
F0.002085
sS'ADJ'
p248
F0.659503
s(lp249
(g166
I13
tp250
atp251
a(g159
(dp252
S'VERB'
p253
F0.000411
sS'NOUN'
p254
F0.9995890000000001
s(lp255
(g159
I14
tp256
atp257
a(g136
(dp258
S'ADV'
p259
F0.195337
sS'ADP'
p260
F0.804663
s(lp261
(g136
I15
tp262
atp263
a(g127
(dp264
S'ADV'
p265
F0.901983
sg66
F6.2e-05
sS'VERB'
p266
F7.099999999999999e-05
sS'NOUN'
p267
F0.097884
s(lp268
(g127
I16
tp269
atp270
a(g78
(dp271
g78
F1.0
s(lp272
(g78
I17
tp273
atp274
asS'nl'
p275
(lp276
(S'het'
p277
(dp278
S'PRON'
p279
F0.9999840000000001
sS'DET'
p280
F1.6e-05
s(lp281
(g7
I0
tp282
atp283
a(S'werd'
p284
(dp285
S'VERB'
p286
F1.0
s(lp287
(g14
I1
tp288
atp289
a(S'ook'
p290
(dp291
S'ADV'
p292
F1.0
s(lp293
(g22
I2
tp294
atp295
a(S'veroorzaakt'
p296
(dp297
S'VERB'
p298
F1.0
s(lp299
(g35
I3
tp300
atp301
a(S'door'
p302
(dp303
S'ADV'
p304
F7e-06
sS'CONJ'
p305
F1.8e-05
sS'ADP'
p306
F0.999975
s(lp307
(g43
I4
tp308
atp309
a(S'niet-commerci\xc3\xable'
p310
(dp311
S'NOUN'
p312
F0.000269
sS'ADJ'
p313
F0.999731
s(lp314
(g52
I5
tp315
atp316
a(S'banken'
p317
(dp318
S'NOUN'
p319
F1.0
s(lp320
(g60
I6
tp321
atp322
a(g76
(dp323
g78
F1.0
s(lp324
(g76
I7
tp325
atp326
a(S'beleggingsmaatschappijen'
p327
(dp328
S'NOUN'
p329
F1.0
s(lp330
(g115
I9
tp331
atp332
a(S'en'
p333
(dp334
S'CONJ'
p335
F1.0
s(lp336
(g76
I11
tp337
atp338
a(S'hedgefondsen'
p339
(dp340
S'ADJ'
p341
F0.004296
sS'NOUN'
p342
F0.9957039999999999
s(lp343
(g166
I13
tp344
atp345
a(g78
(dp346
g78
F1.0
s(lp347
(g78
I17
tp348
atp349
asS'de'
p350
(lp351
(S'es'
p352
(dp353
S'PRON'
p354
F1.0
s(lp355
(g7
I0
tp356
atp357
a(S'ist'
p358
(dp359
S'VERB'
p360
F1.0
s(lp361
(g14
I1
tp362
atp363
a(S'auch'
p364
(dp365
S'ADV'
p366
F1.0
s(lp367
(g22
I2
tp368
atp369
a(S'durch'
p370
(dp371
S'ADV'
p372
F0.042377
sS'ADP'
p373
F0.949341
s(lp374
(g43
I4
tp375
atp376
a(S'nicht'
p377
(dp378
S'PRT'
p379
F1.0
s(lp380
tp381
a(S'kommerzielle'
p382
(dp383
S'ADJ'
p384
F1.0
s(lp385
(g52
I5
tp386
atp387
a(S'banken'
p388
(dp389
S'NOUN'
p390
F0.141964
sS'ADJ'
p391
F0.857561
s(lp392
(g60
I6
tp393
atp394
a(g76
(dp395
g78
F1.0
s(lp396
(g76
I7
tp397
atp398
a(S'investmentgesellschaften'
p399
(dp400
S'ADJ'
p401
F0.215047
sS'NOUN'
p402
F0.748536
s(lp403
(g115
I9
tp404
atp405
a(S'und'
p406
(dp407
S'CONJ'
p408
F1.0
s(lp409
(g76
I11
tp410
atp411
a(S'hedgefonds'
p412
(dp413
S'NOUN'
p414
F0.44147
sS'ADJ'
p415
F0.549236
s(lp416
(g166
I13
tp417
atp418
a(S'erzeugt'
p419
(dp420
S'VERB'
p421
F0.994637
sS'ADJ'
p422
F0.005362
s(lp423
tp424
a(S'worden'
p425
(dp426
S'VERB'
p427
F0.999999
s(lp428
(g35
I3
tp429
atp430
a(g78
(dp431
g78
F1.0
s(lp432
(g78
I17
tp433
atp434
asS'it'
p435
(lp436
(S'e'
p437
(dp438
S'CONJ'
p439
F1.0
s(lp440
(g7
I0
tp441
atp442
a(S"'"
p443
(dp444
g78
F1.0
s(lp445
tp446
a(S'stato'
p447
(dp448
S'VERB'
p449
F0.974846
sS'NOUN'
p450
F0.025154
s(lp451
(g14
I1
tp452
atp453
a(S'creato'
p454
(dp455
S'VERB'
p456
F0.092623
sS'NOUN'
p457
F0.907377
s(lp458
(g35
I3
tp459
atp460
a(S'anche'
p461
(dp462
S'ADV'
p463
F0.999845
sS'NOUN'
p464
F0.000155
s(lp465
(g22
I2
tp466
atp467
a(S'dalle'
p468
(dp469
S'NOUN'
p470
F0.000282
sS'ADP'
p471
F0.999718
s(lp472
(g43
I4
tp473
atp474
a(S'banche'
p475
(dp476
S'NOUN'
p477
F1.0
s(lp478
(g60
I6
tp479
atp480
a(S'non'
p481
(dp482
S'ADV'
p483
F1.0
s(lp484
tp485
a(S'commerciali'
p486
(dp487
S'VERB'
p488
F1.3e-05
sS'ADJ'
p489
F0.999987
s(lp490
(g52
I5
tp491
atp492
a(g76
(dp493
g78
F1.0
s(lp494
(g76
I7
tp495
atp496
a(S'dalle'
p497
(dp498
S'NOUN'
p499
F0.001249
sS'ADP'
p500
F0.998751
s(lp501
(g87
I8
tp502
atp503
a(S'societ\xc3\xa0'
p504
(dp505
S'NOUN'
p506
F1.0
s(lp507
(g101
I10
tp508
atp509
a(S'di'
p510
(dp511
S'CONJ'
p512
F4e-06
sS'ADP'
p513
F0.999996
s(lp514
tp515
a(S'investimento'
p516
(dp517
S'NOUN'
p518
F1.0
s(lp519
(g115
I9
tp520
atp521
a(g76
(dp522
g78
F1.0
s(lp523
(g76
I11
tp524
atp525
a(S'dai'
p526
(dp527
S'VERB'
p528
F0.001021
sS'ADP'
p529
F0.998979
s(lp530
(g144
I12
tp531
atp532
a(S'fondi'
p533
(dp534
S'VERB'
p535
F1.3000000000000001e-05
sS'NOUN'
p536
F0.999986
s(lp537
(g159
I14
tp538
atp539
a(S'hedge'
p540
(dp541
S'NOUN'
p542
F0.051312
sS'ADJ'
p543
F0.948688
s(lp544
(g166
I13
tp545
atp546
a(g78
(dp547
g78
F1.0
s(lp548
(g78
I17
tp549
atp550
asS'sk'
p551
(lp552
(S'sp\xc3\xb4sobili'
p553
(dp554
S'VERB'
p555
F1.0
s(lp556
(g35
I3
tp557
atp558
a(S'ho'
p559
(dp560
S'PRON'
p561
F0.999684
sg66
F0.000317
s(lp562
(g7
I0
tp563
atp564
a(S'aj'
p565
(dp566
g66
F0.965742
sS'CONJ'
p567
F0.034258
s(lp568
(g22
I2
tp569
atp570
a(S'nekomer\xc4\x8dn\xc3\xa9'
p571
(dp572
S'ADJ'
p573
F1.0
s(lp574
(g52
I5
tp575
atp576
a(S'banky'
p577
(dp578
S'NOUN'
p579
F1.0
s(lp580
(g60
I6
tp581
atp582
a(g76
(dp583
g78
F1.0
s(lp584
(g76
I7
tp585
atp586
a(S'investi\xc4\x8dn\xc3\xa9'
p587
(dp588
S'ADJ'
p589
F1.0
s(lp590
(g115
I9
tp591
atp592
a(S'spolo\xc4\x8dnosti'
p593
(dp594
S'NOUN'
p595
F1.0
s(lp596
(g101
I10
tp597
atp598
a(g76
(dp599
g78
F1.0
s(lp600
(g76
I11
tp601
atp602
a(S'ako'
p603
(dp604
S'PRON'
p605
F0.030093
sS'CONJ'
p606
F0.969734
sg66
F0.000173
s(lp607
(g136
I15
tp608
atp609
a(S'aj'
p610
(dp611
g66
F0.788443
sS'CONJ'
p612
F0.211557
s(lp613
(g127
I16
tp614
atp615
a(S'hed\xc5\xbeov\xc3\xa9'
p616
(dp617
S'ADJ'
p618
F1.0
s(lp619
(g166
I13
tp620
atp621
a(S'fondy'
p622
(dp623
S'NOUN'
p624
F1.0
s(lp625
(g159
I14
tp626
atp627
a(g78
(dp628
g78
F1.0
s(lp629
(g78
I17
tp630
atp631
asS'pl'
p632
(lp633
(S'stworzy\xc5\x82y'
p634
(dp635
S'VERB'
p636
F1.0
s(lp637
(g35
I3
tp638
atp639
a(S'go'
p640
(dp641
S'PRON'
p642
F0.9999909999999999
sS'ADP'
p643
F9e-06
s(lp644
(g7
I0
tp645
atp646
a(S'tak\xc5\xbce'
p647
(dp648
S'PRT'
p649
F0.645026
sS'CONJ'
p650
F0.354974
s(lp651
(g22
I2
tp652
atp653
a(S'banki'
p654
(dp655
S'NOUN'
p656
F1.0
s(lp657
(g60
I6
tp658
atp659
a(S'niekomercyjne'
p660
(dp661
S'ADV'
p662
F0.000778
sS'NOUN'
p663
F0.0010530000000000001
sS'ADJ'
p664
F0.9981710000000001
s(lp665
(g52
I5
tp666
atp667
a(g76
(dp668
g66
F0.0
sg78
F1.0
s(lp669
(g76
I7
tp670
atp671
a(S'jak'
p672
(dp673
S'ADV'
p674
F0.766529
sS'PRT'
p675
F0.002329
sS'CONJ'
p676
F0.191931
sS'ADP'
p677
F0.03855
sS'PRON'
p678
F0.00066
s(lp679
(g136
I15
tp680
atp681
a(S'r\xc3\xb3wnie\xc5\xbc'
p682
(dp683
S'PRT'
p684
F0.801493
sS'CONJ'
p685
F0.198507
s(lp686
(g127
I16
tp687
atp688
a(S'towarzystwa'
p689
(dp690
S'NOUN'
p691
F1.0
s(lp692
(g101
I10
tp693
atp694
a(S'inwestycyjne'
p695
(dp696
S'ADJ'
p697
F1.0
s(lp698
(g115
I9
tp699
atp700
a(S'i'
p701
(dp702
S'PRT'
p703
F0.00346
sS'CONJ'
p704
F0.996006
sS'NOUN'
p705
F1e-05
sg66
F1.7e-05
sS'PRON'
p706
F0.000508
s(lp707
(g76
I11
tp708
atp709
a(S'fundusze'
p710
(dp711
S'NOUN'
p712
F1.0
s(lp713
(g159
I14
tp714
atp715
a(S'hedgingowe'
p716
(dp717
S'ADV'
p718
F0.000503
sS'NOUN'
p719
F0.027526
sS'ADJ'
p720
F0.9719700000000001
s(lp721
(g166
I13
tp722
atp723
a(g78
(dp724
g78
F1.0
s(lp725
(g78
I17
tp726
atp727
asS'sl'
p728
(lp729
(S'prav'
p730
(dp731
S'ADV'
p732
F0.127728
sS'PRT'
p733
F0.870121
sS'VERB'
p734
F0.002151
s(lp735
tp736
a(S'tako'
p737
(dp738
S'ADV'
p739
F0.894316
sS'PRON'
p740
F0.021477999999999997
sS'CONJ'
p741
F0.084206
s(lp742
(g22
I2
tp743
atp744
a(S'so'
p745
(dp746
g66
F2.3e-05
sS'VERB'
p747
F0.999977
s(lp748
(g14
I1
tp749
atp750
a(S'jo'
p751
(dp752
S'PRON'
p753
F0.999994
sg66
F6e-06
s(lp754
(g43
I4
tp755
atp756
a(S'ustvarili'
p757
(dp758
S'VERB'
p759
F1.0
s(lp760
(g35
I3
tp761
atp762
a(S'nekomercialne'
p763
(dp764
S'ADV'
p765
F5.9e-05
sS'NOUN'
p766
F2.5e-05
sS'ADJ'
p767
F0.9999159999999999
s(lp768
(g52
I5
tp769
atp770
a(S'banke'
p771
(dp772
S'NOUN'
p773
F0.9999989999999999
s(lp774
(g60
I6
tp775
atp776
a(g76
(dp777
g78
F1.0
s(lp778
(g76
I7
tp779
atp780
a(S'investicijske'
p781
(dp782
S'ADJ'
p783
F1.0
s(lp784
(g115
I9
tp785
atp786
a(S'banke'
p787
(dp788
S'NOUN'
p789
F1.0
s(lp790
(g101
I10
tp791
atp792
a(S'in'
p793
(dp794
S'ADV'
p795
F5.7e-05
sg66
F6e-06
sS'CONJ'
p796
F0.99993
sS'NOUN'
p797
F6e-06
s(lp798
(g76
I11
tp799
atp800
a(S'tudi'
p801
(dp802
S'PRT'
p803
F1.0
s(lp804
(g127
I16
tp805
atp806
a(S'hedge'
p807
(dp808
S'ADV'
p809
F0.005748
sS'NOUN'
p810
F0.281844
sS'ADJ'
p811
F0.6942500000000001
sg66
F0.00396
sS'PRON'
p812
F0.0142
s(lp813
(g166
I13
tp814
atp815
a(S'skladi'
p816
(dp817
S'NOUN'
p818
F1.0
s(lp819
(g159
I14
tp820
atp821
a(g78
(dp822
g78
F1.0
s(lp823
(g78
I17
tp824
atp825
asS'es'
p826
(lp827
(S'tambi\xc3\xa9n'
p828
(dp829
S'ADV'
p830
F1.0
s(lp831
(g22
I2
tp832
atp833
a(S'fue'
p834
(dp835
S'VERB'
p836
F1.0
s(lp837
(g14
I1
tp838
atp839
a(S'creado'
p840
(dp841
S'VERB'
p842
F1.0
s(lp843
(g35
I3
tp844
atp845
a(S'por'
p846
(dp847
S'ADP'
p848
F1.0
s(lp849
(g43
I4
tp850
atp851
a(S'bancos'
p852
(dp853
S'NOUN'
p854
F1.0
s(lp855
(g60
I6
tp856
atp857
a(S'no'
p858
(dp859
S'ADV'
p860
F0.999728
sg66
F0.000272
s(lp861
tp862
a(S'comerciales'
p863
(dp864
S'ADJ'
p865
F1.0
s(lp866
(g52
I5
tp867
atp868
a(g76
(dp869
g78
F1.0
s(lp870
(g76
I7
tp871
atp872
a(S'por'
p873
(dp874
S'ADP'
p875
F1.0
s(lp876
(g87
I8
tp877
atp878
a(S'sociedades'
p879
(dp880
S'NOUN'
p881
F1.0
s(lp882
(g101
I10
tp883
atp884
a(S'de'
p885
(dp886
g66
F2.9e-05
sS'CONJ'
p887
F0.000449
sS'ADP'
p888
F0.999522
s(lp889
tp890
a(S'inversi\xc3\xb3n'
p891
(dp892
S'NOUN'
p893
F1.0
s(lp894
(g115
I9
tp895
atp896
a(S'y'
p897
(dp898
g66
F0.001029
sS'CONJ'
p899
F0.998971
s(lp900
(g76
I11
tp901
atp902
a(S'por'
p903
(dp904
S'ADP'
p905
F1.0
s(lp906
tp907
a(S'fondos'
p908
(dp909
S'NOUN'
p910
F1.0
s(lp911
(g159
I14
tp912
atp913
a(S'de'
p914
(dp915
g66
F0.000237
sS'CONJ'
p916
F0.000727
sS'ADP'
p917
F0.999036
s(lp918
(g144
I12
tp919
atp920
a(S'alto'
p921
(dp922
S'NOUN'
p923
F0.23696
sS'ADJ'
p924
F0.76304
s(lp925
tp926
a(S'riesgo'
p927
(dp928
S'NOUN'
p929
F1.0
s(lp930
(g166
I13
tp931
atp932
a(g78
(dp933
g78
F1.0
s(lp934
(g78
I17
tp935
atp936
as.