(dp0
S'fr'
p1
(lp2
(S'le'
p3
(dp4
S'PRON'
p5
F0.001289
sS'DET'
p6
F0.998711
s(lp7
(S'the'
p8
I0
tp9
atp10
a(S'droit'
p11
(dp12
S'ADV'
p13
F0.002345
sS'ADJ'
p14
F0.059995
sS'NOUN'
p15
F0.93766
s(lp16
(S'right'
p17
I1
tp18
atp19
a(S'de'
p20
(dp21
S'ADP'
p22
F1.0
s(lp23
(S'to'
p24
I2
tp25
atp26
a(S'gr\xc3\xa8ve'
p27
(dp28
S'VERB'
p29
F0.000158
sS'NOUN'
p30
F0.999842
s(lp31
(S'strike'
p32
I3
tp33
atp34
a(S'est'
p35
(dp36
S'VERB'
p37
F0.999872
sS'NOUN'
p38
F0.000128
s(lp39
(S'is'
p40
I4
tp41
atp42
a(S'\xc3\xa9galement'
p43
(dp44
S'ADV'
p45
F1.0
s(lp46
(S'also'
p47
I5
tp48
atp49
a(S'un'
p50
(dp51
S'NOUN'
p52
F4.4e-05
sS'NUM'
p53
F0.010738
sS'DET'
p54
F0.989219
s(lp55
(S'a'
p56
I6
tp57
atp58
a(S'droit'
p59
(dp60
S'ADV'
p61
F0.002304
sS'ADJ'
p62
F0.005541
sS'NOUN'
p63
F0.992155
s(lp64
(S'right'
p65
I8
tp66
atp67
a(S'fondamental'
p68
(dp69
S'ADJ'
p70
F1.0
s(lp71
(S'fundamental'
p72
I7
tp73
atp74
a(S'.'
p75
(dp76
g75
F1.0
s(lp77
(g75
I9
tp78
atp79
asS'en'
p80
(lp81
(g8
(dp82
S'NOUN'
p83
F5e-06
sS'DET'
p84
F0.999995
s(lp85
(g8
I0
tp86
atp87
a(g17
(dp88
S'ADV'
p89
F0.028373
sS'ADJ'
p90
F0.18808
sS'VERB'
p91
F1.6e-05
sS'NOUN'
p92
F0.783531
s(lp93
(g17
I1
tp94
atp95
a(g24
(dp96
S'ADV'
p97
F0.0
sS'PRT'
p98
F0.999993
sS'ADP'
p99
F6e-06
s(lp100
(g24
I2
tp101
atp102
a(g32
(dp103
S'VERB'
p104
F0.43908
sS'NOUN'
p105
F0.56092
s(lp106
(g32
I3
tp107
atp108
a(g40
(dp109
S'VERB'
p110
F1.0
s(lp111
(g40
I4
tp112
atp113
a(g47
(dp114
S'ADV'
p115
F1.0
s(lp116
(g47
I5
tp117
atp118
a(g56
(dp119
S'NOUN'
p120
F0.0
sS'DET'
p121
F1.0
s(lp122
(g56
I6
tp123
atp124
a(g72
(dp125
S'NOUN'
p126
F0.00228
sS'ADJ'
p127
F0.99772
s(lp128
(g72
I7
tp129
atp130
a(g65
(dp131
S'ADV'
p132
F0.005412
sS'ADJ'
p133
F0.075522
sS'VERB'
p134
F1e-06
sS'NOUN'
p135
F0.919065
s(lp136
(g65
I8
tp137
atp138
a(g75
(dp139
g75
F1.0
s(lp140
(g75
I9
tp141
atp142
asS'nl'
p143
(lp144
(S'het'
p145
(dp146
S'PRON'
p147
F0.012907
sS'DET'
p148
F0.987093
s(lp149
(g8
I0
tp150
atp151
a(S'recht'
p152
(dp153
S'ADJ'
p154
F9.2e-05
sS'VERB'
p155
F1.3e-05
sS'NOUN'
p156
F0.999894
s(lp157
(g17
I1
tp158
atp159
a(S'om'
p160
(dp161
S'ADV'
p162
F0.127413
sS'CONJ'
p163
F0.872006
sS'ADP'
p164
F0.000581
s(lp165
tp166
a(S'te'
p167
(dp168
S'PRT'
p169
F1.0
s(lp170
(g24
I2
tp171
atp172
a(S'staken'
p173
(dp174
S'VERB'
p175
F0.985472
sS'NOUN'
p176
F0.014529
s(lp177
(g32
I3
tp178
atp179
a(S'is'
p180
(dp181
S'VERB'
p182
F1.0
s(lp183
(g40
I4
tp184
atp185
a(S'tevens'
p186
(dp187
S'ADV'
p188
F1.0
s(lp189
(g47
I5
tp190
atp191
a(S'een'
p192
(dp193
S'ADJ'
p194
F1.1e-05
sS'PRON'
p195
F2e-05
sS'NUM'
p196
F1e-06
sS'DET'
p197
F0.999968
s(lp198
(g56
I6
tp199
atp200
a(S'grondrecht'
p201
(dp202
S'NOUN'
p203
F1.0
s(lp204
(g72
I7
tp205
atp206
a(g75
(dp207
g75
F1.0
s(lp208
(g75
I9
tp209
atp210
asS'de'
p211
(lp212
(S'das'
p213
(dp214
S'PRON'
p215
F0.791465
sS'DET'
p216
F0.201837
s(lp217
(g8
I0
tp218
atp219
a(S'recht'
p220
(dp221
S'VERB'
p222
F0.000428
sS'ADJ'
p223
F0.999517
s(lp224
(g17
I1
tp225
atp226
a(S'zu'
p227
(dp228
S'PRT'
p229
F0.999985
s(lp230
(g24
I2
tp231
atp232
a(S'streiken'
p233
(dp234
S'VERB'
p235
F1.0
s(lp236
(g32
I3
tp237
atp238
a(S'ist'
p239
(dp240
S'VERB'
p241
F1.0
s(lp242
(g40
I4
tp243
atp244
a(S'auch'
p245
(dp246
S'ADV'
p247
F1.0
s(lp248
(g47
I5
tp249
atp250
a(S'ein'
p251
(dp252
S'NUM'
p253
F0.000768
sS'DET'
p254
F0.998478
s(lp255
(g56
I6
tp256
atp257
a(S'grundlegendes'
p258
(dp259
S'ADJ'
p260
F1.0
s(lp261
(g72
I7
tp262
atp263
a(S'recht'
p264
(dp265
S'VERB'
p266
F0.039779
sS'ADJ'
p267
F0.960107
s(lp268
(g65
I8
tp269
atp270
a(g75
(dp271
g75
F1.0
s(lp272
(g75
I9
tp273
atp274
asS'it'
p275
(lp276
(S'il'
p277
(dp278
S'DET'
p279
F1.0
s(lp280
(g8
I0
tp281
atp282
a(S'diritto'
p283
(dp284
S'ADJ'
p285
F0.011031
sS'NOUN'
p286
F0.988969
s(lp287
(g17
I1
tp288
atp289
a(S'di'
p290
(dp291
S'CONJ'
p292
F4e-06
sS'ADP'
p293
F0.999996
s(lp294
(g24
I2
tp295
atp296
a(S'sciopero'
p297
(dp298
S'VERB'
p299
F3e-06
sS'NOUN'
p300
F0.999997
s(lp301
(g32
I3
tp302
atp303
a(S'\xc3\xa8'
p304
(dp305
S'VERB'
p306
F1.0
s(lp307
(g40
I4
tp308
atp309
a(S"anch'"
p310
(dp311
S'NOUN'
p312
F0.109862
sS'VERB'
p313
F0.021646000000000002
sS'ADJ'
p314
F0.868492
s(lp315
tp316
a(S'esso'
p317
(dp318
S'PRON'
p319
F1.0
s(lp320
(g47
I5
tp321
atp322
a(S'un'
p323
(dp324
S'PRON'
p325
F0.000966
sS'DEF'
p326
F0.999034
s(lp327
(g56
I6
tp328
atp329
a(S'diritto'
p330
(dp331
S'ADJ'
p332
F0.007497
sS'NOUN'
p333
F0.992503
s(lp334
(g65
I8
tp335
atp336
a(S'fondamentale'
p337
(dp338
S'ADJ'
p339
F1.0
s(lp340
(g72
I7
tp341
atp342
a(g75
(dp343
g75
F1.0
s(lp344
(g75
I9
tp345
atp346
asS'sk'
p347
(lp348
(S'aj'
p349
(dp350
S'X'
p351
F0.7684139999999999
sS'CONJ'
p352
F0.231585
s(lp353
(g8
I0
tp354
atp355
a(S'pr\xc3\xa1vo'
p356
(dp357
S'NOUN'
p358
F1.0
s(lp359
(g17
I1
tp360
atp361
a(S'na'
p362
(dp363
g351
F0.000156
sS'CONJ'
p364
F1.5e-05
sS'ADP'
p365
F0.999826
sS'PRT'
p366
F3e-06
s(lp367
(g24
I2
tp368
atp369
a(S'\xc5\xa1trajk'
p370
(dp371
S'NOUN'
p372
F1.0
s(lp373
(g32
I3
tp374
atp375
a(S'je'
p376
(dp377
S'PRON'
p378
F3.7e-05
sS'VERB'
p379
F0.999924
sg351
F3.8e-05
s(lp380
(g40
I4
tp381
atp382
a(S'z\xc3\xa1kladn\xc3\xbdm'
p383
(dp384
S'ADJ'
p385
F1.0
s(lp386
(g72
I7
tp387
atp388
a(S'pr\xc3\xa1vom'
p389
(dp390
S'ADV'
p391
F0.003042
sS'NOUN'
p392
F0.996958
s(lp393
(g65
I8
tp394
atp395
a(g75
(dp396
g75
F1.0
s(lp397
(g75
I9
tp398
atp399
asS'pl'
p400
(lp401
(S'jednym'
p402
(dp403
S'NOUN'
p404
F1.6e-05
sS'ADJ'
p405
F0.9999839999999999
s(lp406
tp407
a(S'z'
p408
(dp409
S'PRT'
p410
F3e-06
sS'VERB'
p411
F0.0
sS'NOUN'
p412
F0.0
sS'ADP'
p413
F0.999997
sg351
F0.0
s(lp414
(g56
I6
tp415
atp416
a(S'podstawowych'
p417
(dp418
S'ADJ'
p419
F0.999999
s(lp420
(g72
I7
tp421
atp422
a(S'praw'
p423
(dp424
S'NOUN'
p425
F1.0
s(lp426
(g65
I8
tp427
atp428
a(S'pracownik\xc3\xb3w'
p429
(dp430
S'NOUN'
p431
F1.0
s(lp432
tp433
a(S'jest'
p434
(dp435
S'VERB'
p436
F1.0
s(lp437
(g40
I4
tp438
atp439
a(S'r\xc3\xb3wnie\xc5\xbc'
p440
(dp441
S'PRT'
p442
F0.975948
sS'CONJ'
p443
F0.024052
s(lp444
(g47
I5
tp445
atp446
a(S'prawo'
p447
(dp448
S'ADV'
p449
F0.008847
sS'ADJ'
p450
F0.003521
sS'NOUN'
p451
F0.9876320000000001
s(lp452
(g17
I1
tp453
atp454
a(S'do'
p455
(dp456
g351
F0.0
sS'NOUN'
p457
F2e-06
sS'ADP'
p458
F0.999997
s(lp459
(g24
I2
tp460
atp461
a(S'strajku'
p462
(dp463
S'NOUN'
p464
F1.0
s(lp465
(g32
I3
tp466
atp467
a(g75
(dp468
g75
F1.0
s(lp469
(g75
I9
tp470
atp471
asS'sl'
p472
(lp473
(S'temeljna'
p474
(dp475
S'ADJ'
p476
F1.0
s(lp477
(g72
I7
tp478
atp479
a(S'pravica'
p480
(dp481
S'NOUN'
p482
F1.0
s(lp483
(g65
I8
tp484
atp485
a(S'je'
p486
(dp487
S'PRON'
p488
F0.000585
sS'VERB'
p489
F0.999402
sg351
F1.3e-05
s(lp490
(g40
I4
tp491
atp492
a(S'tudi'
p493
(dp494
S'PRT'
p495
F1.0
s(lp496
(g47
I5
tp497
atp498
a(S'pravica'
p499
(dp500
S'NOUN'
p501
F1.0
s(lp502
tp503
a(S'do'
p504
(dp505
g351
F6.6e-05
sS'ADP'
p506
F0.999934
s(lp507
(g17
I1
tp508
atp509
a(S'stavke'
p510
(dp511
S'NOUN'
p512
F1.0
s(lp513
(g32
I3
tp514
atp515
a(g75
(dp516
g75
F1.0
s(lp517
(g75
I9
tp518
atp519
asS'es'
p520
(lp521
(S'el'
p522
(dp523
S'PRON'
p524
F5.5e-05
sS'DET'
p525
F0.999945
s(lp526
(g8
I0
tp527
atp528
a(S'derecho'
p529
(dp530
S'ADV'
p531
F0.000933
sS'ADJ'
p532
F0.097027
sS'NOUN'
p533
F0.90204
s(lp534
(g17
I1
tp535
atp536
a(g56
(dp537
g351
F0.00045200000000000004
sS'CONJ'
p538
F4e-06
sS'ADP'
p539
F0.999544
s(lp540
(g24
I2
tp541
atp542
a(S'la'
p543
(dp544
S'PRON'
p545
F2.1e-05
sS'DET'
p546
F0.999972
sS'NOUN'
p547
F1e-06
sg351
F5e-06
s(lp548
tp549
a(S'huelga'
p550
(dp551
S'VERB'
p552
F0.005423
sS'NOUN'
p553
F0.994577
s(lp554
(g32
I3
tp555
atp556
a(S'tambi\xc3\xa9n'
p557
(dp558
S'ADV'
p559
F1.0
s(lp560
(g47
I5
tp561
atp562
a(S'es'
p563
(dp564
S'VERB'
p565
F1.0
s(lp566
(g40
I4
tp567
atp568
a(S'un'
p569
(dp570
g351
F5e-06
sS'DET'
p571
F0.999995
s(lp572
(g56
I6
tp573
atp574
a(S'derecho'
p575
(dp576
S'ADV'
p577
F0.000849
sS'ADJ'
p578
F0.019038
sS'NOUN'
p579
F0.980113
s(lp580
(g65
I8
tp581
atp582
a(S'fundamental'
p583
(dp584
S'ADJ'
p585
F1.0
s(lp586
(g72
I7
tp587
atp588
a(g75
(dp589
g75
F1.0
s(lp590
(g75
I9
tp591
atp592
as.