(dp0
S'fr'
p1
(lp2
(S'il'
p3
(dp4
S'PRON'
p5
F1.0
s(lp6
(S'it'
p7
I2
tp8
atp9
a(S"n'"
p10
(dp11
S'ADJ'
p12
F0.000625
sS'VERB'
p13
F0.9973000000000002
sS'NOUN'
p14
F0.002077
s(lp15
tp16
a(S'appartient'
p17
(dp18
S'VERB'
p19
F1.0
s(lp20
(S'fall'
p21
I5
tp22
atp23
a(S'donc'
p24
(dp25
S'ADV'
p26
F1.0
s(lp27
(S'therefore'
p28
I0
tp29
atp30
a(S'pas'
p31
(dp32
S'ADV'
p33
F0.998187
sS'NOUN'
p34
F0.001813
s(lp35
(S'not'
p36
I4
tp37
atp38
a(S'\xc3\xa0'
p39
(dp40
S'ADP'
p41
F1.0
s(lp42
(S'to'
p43
I6
tp44
atp45
a(S"l'"
p46
(dp47
S'ADJ'
p48
F0.160704
sS'VERB'
p49
F0.06480800000000002
sS'NOUN'
p50
F0.774488
s(lp51
(S'the'
p52
I7
tp53
atp54
a(S'union'
p55
(dp56
S'NOUN'
p57
F1.0
s(lp58
(S'union'
p59
I9
tp60
atp61
a(S'europ\xc3\xa9enne'
p62
(dp63
S'NOUN'
p64
F0.017216
sS'ADJ'
p65
F0.982784
s(lp66
(S'european'
p67
I8
tp68
atp69
a(S'de'
p70
(dp71
S'ADP'
p72
F1.0
s(lp73
(S'to'
p74
I10
tp75
atp76
a(S'promouvoir'
p77
(dp78
S'VERB'
p79
F1.0
s(lp80
tp81
a(S'cette'
p82
(dp83
S'PRON'
p84
F1.0
s(lp85
tp86
a(S'"'
p87
(dp88
S'.'
p89
F1.0
s(lp90
(S"'"
p91
I13
tp92
atp93
a(S'bonne'
p94
(dp95
S'ADV'
p96
F0.003129
sS'NOUN'
p97
F0.001502
sS'ADJ'
p98
F0.995369
s(lp99
(S'good'
p100
I14
tp101
atp102
a(S'gouvernance'
p103
(dp104
S'NOUN'
p105
F1.0
s(lp106
(S'governance'
p107
I15
tp108
atp109
a(S'en'
p110
(dp111
S'PRON'
p112
F0.000406
sS'ADP'
p113
F0.999594
s(lp114
(S'in'
p115
I16
tp116
atp117
a(S'mati\xc3\xa8re'
p118
(dp119
S'NOUN'
p120
F1.0
s(lp121
(S'matters'
p122
I18
tp123
atp124
a(S'fiscale'
p125
(dp126
S'ADJ'
p127
F1.0
s(lp128
(S'tax'
p129
I17
tp130
atp131
a(g87
(dp132
g89
F1.0
s(lp133
(g91
I19
tp134
atp135
a(S','
p136
(dp137
g89
F1.0
s(lp138
(g136
I20
tp139
atp140
a(S'comme'
p141
(dp142
S'ADV'
p143
F0.633027
sS'CONJ'
p144
F0.366973
s(lp145
(S'as'
p146
I21
tp147
atp148
a(S"l'"
p149
(dp150
S'NOUN'
p151
F0.042016
sS'VERB'
p152
F0.806119
sS'ADJ'
p153
F0.151864
s(lp154
(S'export'
p155
I11
tp156
atp157
a(S'a'
p158
(dp159
S'VERB'
p160
F1.0
s(lp161
tp162
a(S'tr\xc3\xa8s'
p163
(dp164
S'ADV'
p165
F1.0
s(lp166
(S'quite'
p167
I24
tp168
atp169
a(S'bien'
p170
(dp171
S'ADV'
p172
F0.996052
sS'NOUN'
p173
F0.000274
sS'ADJ'
p174
F0.003675
s(lp175
(S'rightly'
p176
I25
tp177
atp178
a(S'rappel\xc3\xa9'
p179
(dp180
S'VERB'
p181
F1.0
s(lp182
(S'mentions'
p183
I26
tp184
atp185
a(S'la'
p186
(dp187
S'PRON'
p188
F0.002151
sS'DET'
p189
F0.997848
sS'NOUN'
p190
F1e-06
s(lp191
(S'the'
p192
I22
tp193
atp194
a(S'rapporteure'
p195
(dp196
S'ADJ'
p197
F0.079281
sS'VERB'
p198
F0.0022119999999999996
sS'NOUN'
p199
F0.918506
s(lp200
(S'rapporteur'
p201
I23
tp202
atp203
a(g89
(dp204
g89
F1.0
s(lp205
(g89
I27
tp206
atp207
asS'en'
p208
(lp209
(g28
(dp210
S'ADV'
p211
F1.0
s(lp212
(g28
I0
tp213
atp214
a(g136
(dp215
g89
F1.0
s(lp216
(g136
I1
tp217
atp218
a(g7
(dp219
S'PRON'
p220
F1.0
s(lp221
(g7
I2
tp222
atp223
a(S'does'
p224
(dp225
S'VERB'
p226
F0.999999
sS'NOUN'
p227
F1e-06
s(lp228
(g224
I3
tp229
atp230
a(g36
(dp231
S'ADV'
p232
F1.0
s(lp233
(g36
I4
tp234
atp235
a(g21
(dp236
S'VERB'
p237
F0.8918520000000001
sS'NOUN'
p238
F0.108148
s(lp239
(g21
I5
tp240
atp241
a(g43
(dp242
S'ADV'
p243
F2e-06
sS'PRT'
p244
F0.999995
sS'ADP'
p245
F3e-06
s(lp246
(g43
I6
tp247
atp248
a(g52
(dp249
S'NOUN'
p250
F1e-06
sS'DET'
p251
F0.999999
s(lp252
(g52
I7
tp253
atp254
a(g67
(dp255
S'NOUN'
p256
F0.10881199999999999
sS'VERB'
p257
F1.1e-05
sS'ADJ'
p258
F0.891178
s(lp259
(g67
I8
tp260
atp261
a(g59
(dp262
S'NOUN'
p263
F1.0
s(lp264
(g59
I9
tp265
atp266
a(g74
(dp267
S'ADV'
p268
F0.0
sS'PRT'
p269
F0.999999
sS'ADP'
p270
F1e-06
s(lp271
(g74
I10
tp272
atp273
a(g155
(dp274
S'ADJ'
p275
F0.023518
sS'VERB'
p276
F0.924337
sS'NOUN'
p277
F0.052145
s(lp278
(g155
I11
tp279
atp280
a(S'so-called'
p281
(dp282
S'ADJ'
p283
F0.216567
sS'NOUN'
p284
F0.783433
s(lp285
(g281
I12
tp286
atp287
a(g91
(dp288
S'PRT'
p289
F0.783504
sg89
F0.216496
s(lp290
(g91
I13
tp291
atp292
a(g100
(dp293
S'ADV'
p294
F0.000238
sS'NOUN'
p295
F0.010865
sS'ADJ'
p296
F0.988897
s(lp297
(g100
I14
tp298
atp299
a(g107
(dp300
S'NOUN'
p301
F1.0
s(lp302
(g107
I15
tp303
atp304
a(g115
(dp305
S'ADV'
p306
F0.000102
sS'PRT'
p307
F0.000193
sS'ADP'
p308
F0.999705
s(lp309
(g115
I16
tp310
atp311
a(g129
(dp312
S'VERB'
p313
F1.4e-05
sS'NOUN'
p314
F0.999985
s(lp315
(g129
I17
tp316
atp317
a(g122
(dp318
S'VERB'
p319
F0.001738
sS'NOUN'
p320
F0.998262
s(lp321
(g122
I18
tp322
atp323
a(g91
(dp324
S'PRT'
p325
F0.845168
sg89
F0.154832
s(lp326
(g91
I19
tp327
atp328
a(g136
(dp329
g89
F1.0
s(lp330
(g136
I20
tp331
atp332
a(g146
(dp333
S'ADV'
p334
F0.10247
sS'ADP'
p335
F0.89753
s(lp336
(g146
I21
tp337
atp338
a(g192
(dp339
S'NOUN'
p340
F1e-06
sS'DET'
p341
F0.999999
s(lp342
(g192
I22
tp343
atp344
a(g201
(dp345
S'NOUN'
p346
F1.0
s(lp347
(g201
I23
tp348
atp349
a(g167
(dp350
S'ADV'
p351
F0.999903
sS'DET'
p352
F9.7e-05
s(lp353
(g167
I24
tp354
atp355
a(g176
(dp356
S'ADV'
p357
F1.0
s(lp358
(g176
I25
tp359
atp360
a(g183
(dp361
S'VERB'
p362
F0.876153
sS'NOUN'
p363
F0.123847
s(lp364
(g183
I26
tp365
atp366
a(g89
(dp367
g89
F1.0
s(lp368
(g89
I27
tp369
atp370
asS'nl'
p371
(lp372
(S'bij'
p373
(dp374
S'ADV'
p375
F0.013085
sS'ADJ'
p376
F0.0
sS'NOUN'
p377
F0.0
sS'ADP'
p378
F0.986915
s(lp379
(g28
I0
tp380
atp381
a(S'het'
p382
(dp383
S'PRON'
p384
F0.020525
sS'DET'
p385
F0.979475
s(lp386
(g52
I7
tp387
atp388
a(S'vastleggen'
p389
(dp390
S'VERB'
p391
F0.019611999999999997
sS'NOUN'
p392
F0.980388
s(lp393
(g183
I26
tp394
atp395
a(S'van'
p396
(dp397
S'ADP'
p398
F1.0
s(lp399
tp400
a(S'dat'
p401
(dp402
S'PRON'
p403
F0.980584
sS'CONJ'
p404
F0.019416
s(lp405
tp406
a(S'beleid'
p407
(dp408
S'NOUN'
p409
F1.0
s(lp410
(g183
I26
tp411
atp412
a(S'spelen'
p413
(dp414
S'VERB'
p415
F0.996964
sS'NOUN'
p416
F0.0030369999999999998
s(lp417
(g183
I26
tp418
atp419
a(S'voor'
p420
(dp421
S'ADV'
p422
F0.002079
sS'CONJ'
p423
F3.1e-05
sS'NOUN'
p424
F0.0
sS'ADP'
p425
F0.99789
s(lp426
(g43
I6
tp427
atp428
a(S'de'
p429
(dp430
S'DET'
p431
F1.0
s(lp432
tp433
a(S'hand'
p434
(dp435
S'NOUN'
p436
F1.0
s(lp437
tp438
a(S'liggende'
p439
(dp440
S'NOUN'
p441
F1e-06
sS'VERB'
p442
F0.827524
sS'ADJ'
p443
F0.172476
s(lp444
(g183
I26
tp445
atp446
a(S'criteria'
p447
(dp448
S'NOUN'
p449
F1.0
s(lp450
(g183
I26
tp451
atp452
a(S'en'
p453
(dp454
S'CONJ'
p455
F1.0
s(lp456
tp457
a(S'politieke'
p458
(dp459
S'NOUN'
p460
F0.006247
sS'ADJ'
p461
F0.993753
s(lp462
(g183
I26
tp463
atp464
a(S'oordelen'
p465
(dp466
S'VERB'
p467
F0.805535
sS'NOUN'
p468
F0.194466
s(lp469
(g183
I26
tp470
atp471
a(S'een'
p472
(dp473
S'ADJ'
p474
F1.1e-05
sS'PRON'
p475
F0.000389
sS'NUM'
p476
F1e-06
sS'DET'
p477
F0.999599
s(lp478
tp479
a(S'rol'
p480
(dp481
S'VERB'
p482
F3.8e-05
sS'NOUN'
p483
F0.999962
s(lp484
tp485
a(g89
(dp486
g89
F1.0
s(lp487
(g136
I20
tp488
atp489
a(S'zoals'
p490
(dp491
S'CONJ'
p492
F1.0
s(lp493
(g146
I21
tp494
atp495
a(S'de'
p496
(dp497
S'DET'
p498
F1.0
s(lp499
(g192
I22
tp500
atp501
a(S'rapporteur'
p502
(dp503
S'NOUN'
p504
F1.0
s(lp505
(g201
I23
tp506
atp507
a(S'heel'
p508
(dp509
S'ADV'
p510
F0.875798
sS'VERB'
p511
F0.001167
sS'ADJ'
p512
F0.123035
s(lp513
(g167
I24
tp514
atp515
a(S'terecht'
p516
(dp517
S'ADV'
p518
F0.012951
sS'ADJ'
p519
F0.987049
s(lp520
(g176
I25
tp521
atp522
a(S'stelt'
p523
(dp524
S'VERB'
p525
F0.996327
sS'NOUN'
p526
F0.003673
s(lp527
(g183
I26
tp528
atp529
a(g136
(dp530
g89
F1.0
s(lp531
(g136
I1
tp532
atp533
a(S'is'
p534
(dp535
S'VERB'
p536
F1.0
s(lp537
(g224
I3
tp538
atp539
a(S'het'
p540
(dp541
S'PRON'
p542
F0.909092
sS'DET'
p543
F0.090908
s(lp544
(g7
I2
tp545
atp546
a(S'geen'
p547
(dp548
S'PRON'
p549
F0.999984
sS'DET'
p550
F1.6e-05
s(lp551
(g36
I4
tp552
atp553
a(S'taak'
p554
(dp555
S'NOUN'
p556
F1.0
s(lp557
(g21
I5
tp558
atp559
a(S'van'
p560
(dp561
S'ADP'
p562
F1.0
s(lp563
tp564
a(S'de'
p565
(dp566
S'DET'
p567
F1.0
s(lp568
(g67
I8
tp569
atp570
a(S'commissie'
p571
(dp572
S'NOUN'
p573
F1.0
s(lp574
(g59
I9
tp575
atp576
a(S'het'
p577
(dp578
S'PRON'
p579
F0.004702
sS'DET'
p580
F0.995298
s(lp581
(g52
I7
tp582
atp583
a(S'zogenaamde'
p584
(dp585
S'NOUN'
p586
F0.03191
sS'ADJ'
p587
F0.96809
s(lp588
(g281
I12
tp589
atp590
a(g87
(dp591
g89
F1.0
s(lp592
(g91
I13
tp593
atp594
a(S'goed'
p595
(dp596
S'ADV'
p597
F0.004959
sS'NOUN'
p598
F0.098123
sS'ADJ'
p599
F0.896918
s(lp600
(g100
I14
tp601
atp602
a(S'bestuur'
p603
(dp604
S'VERB'
p605
F0.00286
sS'NOUN'
p606
F0.99714
s(lp607
(g107
I15
tp608
atp609
a(S'in'
p610
(dp611
S'ADV'
p612
F0.004986
sS'VERB'
p613
F0.0
sS'ADP'
p614
F0.995014
s(lp615
(g115
I16
tp616
atp617
a(S'belastingaangelegenheden'
p618
(dp619
S'NOUN'
p620
F1.0
s(lp621
(g129
I17
tp622
atp623
a(S'\xe2\x80\x9d'
p624
(dp625
S'ADJ'
p626
F0.244415
sS'NOUN'
p627
F0.7555850000000001
s(lp628
(g91
I19
tp629
atp630
a(S'te'
p631
(dp632
S'PRT'
p633
F1.0
s(lp634
(g74
I10
tp635
atp636
a(S'exporteren'
p637
(dp638
S'VERB'
p639
F0.9999990000000001
sS'NOUN'
p640
F1e-06
s(lp641
(g155
I11
tp642
atp643
a(g89
(dp644
g89
F1.0
s(lp645
(g89
I27
tp646
atp647
asS'de'
p648
(lp649
(S'daher'
p650
(dp651
S'ADV'
p652
F0.9999979999999999
s(lp653
(g28
I0
tp654
atp655
a(S'steht'
p656
(dp657
S'VERB'
p658
F1.0
s(lp659
(g224
I3
tp660
atp661
a(S'es'
p662
(dp663
S'PRON'
p664
F1.0
s(lp665
(g7
I2
tp666
atp667
a(S'der'
p668
(dp669
S'PRON'
p670
F0.000667
sS'DET'
p671
F0.998895
s(lp672
(g52
I7
tp673
atp674
a(S'europ\xc3\xa4ischen'
p675
(dp676
S'ADJ'
p677
F1.0
s(lp678
(g67
I8
tp679
atp680
a(S'union'
p681
(dp682
S'ADJ'
p683
F0.013819
sS'NOUN'
p684
F0.978903
s(lp685
(g59
I9
tp686
atp687
a(S'nicht'
p688
(dp689
S'PRT'
p690
F1.0
s(lp691
(g36
I4
tp692
atp693
a(S'zu'
p694
(dp695
S'PRT'
p696
F0.9970129999999999
s(lp697
(g43
I6
tp698
atp699
a(g136
(dp700
g89
F1.0
s(lp701
tp702
a(S'sogenanntes'
p703
(dp704
S'ADJ'
p705
F1.0
s(lp706
(g281
I12
tp707
atp708
a(g87
(dp709
g89
F1.0
s(lp710
(g91
I13
tp711
atp712
a(S'verantwortungsvolles'
p713
(dp714
S'ADJ'
p715
F1.0
s(lp716
tp717
a(S'handeln'
p718
(dp719
S'VERB'
p720
F1.0
s(lp721
(g107
I15
tp722
atp723
a(S'im'
p724
(dp725
S'ADP'
p726
F1.0
s(lp727
(g115
I16
tp728
atp729
a(S'steuerbereich'
p730
(dp731
S'ADJ'
p732
F0.340515
sS'NOUN'
p733
F0.514316
s(lp734
(g129
I17
tp735
atp736
a(g87
(dp737
g89
F1.0
s(lp738
(g91
I19
tp739
atp740
a(S'zu'
p741
(dp742
S'ADV'
p743
F0.001377
sS'PRT'
p744
F0.99812
s(lp745
(g74
I10
tp746
atp747
a(S'exportieren'
p748
(dp749
S'VERB'
p750
F1.0
s(lp751
(g155
I11
tp752
atp753
a(g136
(dp754
g89
F1.0
s(lp755
(g136
I20
tp756
atp757
a(S'wie'
p758
(dp759
S'CONJ'
p760
F0.9994810000000001
s(lp761
(g146
I21
tp762
atp763
a(S'die'
p764
(dp765
S'PRON'
p766
F0.000893
sS'DET'
p767
F0.998984
s(lp768
(g192
I22
tp769
atp770
a(S'berichterstatterin'
p771
(dp772
S'ADJ'
p773
F0.000195
sS'NOUN'
p774
F0.999565
s(lp775
(g201
I23
tp776
atp777
a(S'sehr'
p778
(dp779
S'ADV'
p780
F1.0
s(lp781
(g167
I24
tp782
atp783
a(S'richtig'
p784
(dp785
S'PRT'
p786
F6.6e-05
sS'ADJ'
p787
F0.999934
s(lp788
(g176
I25
tp789
atp790
a(S'erw\xc3\xa4hnt'
p791
(dp792
S'VERB'
p793
F0.988366
s(lp794
(g183
I26
tp795
atp796
a(g89
(dp797
g89
F1.0
s(lp798
(g89
I27
tp799
atp800
asS'it'
p801
(lp802
(S'non'
p803
(dp804
S'ADV'
p805
F1.0
s(lp806
(g36
I4
tp807
atp808
a(S'spetta'
p809
(dp810
S'VERB'
p811
F1.0
s(lp812
(g21
I5
tp813
atp814
a(S'pertanto'
p815
(dp816
S'ADV'
p817
F1.0
s(lp818
(g28
I0
tp819
atp820
a(S"all'"
p821
(dp822
S'ADJ'
p823
F0.040775
sS'VERB'
p824
F0.04232400000000001
sS'NOUN'
p825
F0.916901
s(lp826
tp827
a(S'unione'
p828
(dp829
S'NOUN'
p830
F1.0
s(lp831
(g59
I9
tp832
atp833
a(S'europea'
p834
(dp835
S'NOUN'
p836
F0.009248
sS'ADJ'
p837
F0.990752
s(lp838
(g67
I8
tp839
atp840
a(S'esportare'
p841
(dp842
S'VERB'
p843
F1.0
s(lp844
(g155
I11
tp845
atp846
a(S'il'
p847
(dp848
S'DET'
p849
F1.0
s(lp850
(g52
I7
tp851
atp852
a(S'cosiddetto'
p853
(dp854
S'ADJ'
p855
F1.0
s(lp856
(g281
I12
tp857
atp858
a(S'buon'
p859
(dp860
S'ADJ'
p861
F1.0
s(lp862
(g100
I14
tp863
atp864
a(S'governo'
p865
(dp866
S'VERB'
p867
F0.002898
sS'NOUN'
p868
F0.997102
s(lp869
(g107
I15
tp870
atp871
a(S'in'
p872
(dp873
S'ADP'
p874
F1.0
s(lp875
(g115
I16
tp876
atp877
a(S'campo'
p878
(dp879
S'VERB'
p880
F5.3e-05
sS'NOUN'
p881
F0.999947
s(lp882
(g122
I18
tp883
atp884
a(S'fiscale'
p885
(dp886
S'NOUN'
p887
F0.000703
sS'ADJ'
p888
F0.999297
s(lp889
(g129
I17
tp890
atp891
a(g136
(dp892
g89
F1.0
s(lp893
(g136
I20
tp894
atp895
a(S'come'
p896
(dp897
S'PRON'
p898
F0.007104
sS'CONJ'
p899
F0.739831
sS'NOUN'
p900
F5.3e-05
sS'ADP'
p901
F0.253012
s(lp902
(g146
I21
tp903
atp904
a(S'la'
p905
(dp906
S'PRON'
p907
F0.000402
sS'DET'
p908
F0.999598
s(lp909
(g192
I22
tp910
atp911
a(S'relatrice'
p912
(dp913
S'NOUN'
p914
F1.0
s(lp915
(g201
I23
tp916
atp917
a(S'giustamente'
p918
(dp919
S'ADV'
p920
F1.0
s(lp921
(g176
I25
tp922
atp923
a(S'sostiene'
p924
(dp925
S'VERB'
p926
F1.0
s(lp927
(g183
I26
tp928
atp929
a(g89
(dp930
g89
F1.0
s(lp931
(g89
I27
tp932
atp933
asS'sk'
p934
(lp935
(S'preto'
p936
(dp937
S'PRON'
p938
F0.576337
sS'CONJ'
p939
F0.369095
sS'X'
p940
F0.054569
s(lp941
(g28
I0
tp942
atp943
a(S'eur\xc3\xb3pskej'
p944
(dp945
S'ADJ'
p946
F1.0
s(lp947
(g67
I8
tp948
atp949
a(S'\xc3\xbanii'
p950
(dp951
S'NOUN'
p952
F1.0
s(lp953
(g59
I9
tp954
atp955
a(S'neprin\xc3\xa1le\xc5\xbe\xc3\xad'
p956
(dp957
S'VERB'
p958
F1.0
s(lp959
(g21
I5
tp960
atp961
a(S'exportova\xc5\xa5'
p962
(dp963
S'VERB'
p964
F1.0
s(lp965
(g155
I11
tp966
atp967
a(S'takzvan\xc3\xba'
p968
(dp969
S'ADJ'
p970
F1.0
s(lp971
(g281
I12
tp972
atp973
a(g87
(dp974
g89
F1.0
s(lp975
(g91
I13
tp976
atp977
a(S'dobr\xc3\xba'
p978
(dp979
S'ADJ'
p980
F1.0
s(lp981
(g100
I14
tp982
atp983
a(S'spr\xc3\xa1vu'
p984
(dp985
S'NOUN'
p986
F1.0
s(lp987
(g107
I15
tp988
atp989
a(S'v'
p990
(dp991
g940
F0.00022200000000000003
sS'ADP'
p992
F0.999777
s(lp993
(g115
I16
tp994
atp995
a(S'da\xc5\x88ovej'
p996
(dp997
S'ADJ'
p998
F1.0
s(lp999
(g129
I17
tp1000
atp1001
a(S'oblasti'
p1002
(dp1003
S'NOUN'
p1004
F1.0
s(lp1005
(g122
I18
tp1006
atp1007
a(g87
(dp1008
g89
F1.0
s(lp1009
(g91
I19
tp1010
atp1011
a(g136
(dp1012
g89
F1.0
s(lp1013
(g136
I20
tp1014
atp1015
a(S'ako'
p1016
(dp1017
S'PRON'
p1018
F0.007857
sS'CONJ'
p1019
F0.992059
sg940
F8.3e-05
s(lp1020
(g146
I21
tp1021
atp1022
a(S'pani'
p1023
(dp1024
S'NOUN'
p1025
F1.0
s(lp1026
tp1027
a(S'spravodajky\xc5\x88a'
p1028
(dp1029
S'NOUN'
p1030
F1.0
s(lp1031
(g201
I23
tp1032
atp1033
a(S'celkom'
p1034
(dp1035
S'ADV'
p1036
F0.606526
sg940
F0.391392
sS'NOUN'
p1037
F0.002082
s(lp1038
(g167
I24
tp1039
atp1040
a(S'spr\xc3\xa1vne'
p1041
(dp1042
S'ADV'
p1043
F0.971882
sg940
F0.010977
sS'ADJ'
p1044
F0.017141
s(lp1045
(g176
I25
tp1046
atp1047
a(S'uv\xc3\xa1dza'
p1048
(dp1049
S'VERB'
p1050
F1.0
s(lp1051
(g183
I26
tp1052
atp1053
a(g89
(dp1054
g89
F1.0
s(lp1055
(g89
I27
tp1056
atp1057
asS'pl'
p1058
(lp1059
(S'zatem'
p1060
(dp1061
S'CONJ'
p1062
F1.0
s(lp1063
(g28
I0
tp1064
atp1065
a(S'eksportowanie'
p1066
(dp1067
S'ADV'
p1068
F0.737895
sS'ADJ'
p1069
F0.008568
sS'VERB'
p1070
F0.056298
sS'NOUN'
p1071
F0.197239
s(lp1072
(g155
I11
tp1073
atp1074
a(S'tak'
p1075
(dp1076
S'ADV'
p1077
F0.994141
sS'NOUN'
p1078
F0.000136
sS'PRT'
p1079
F0.00483
sg940
F0.0
sS'CONJ'
p1080
F0.000892
sS'ADJ'
p1081
F1e-06
s(lp1082
tp1083
a(S'zwanych'
p1084
(dp1085
S'VERB'
p1086
F1.000001
s(lp1087
(g281
I12
tp1088
atp1089
a(S'dobrych'
p1090
(dp1091
S'NOUN'
p1092
F0.00229
sS'ADJ'
p1093
F0.9977100000000002
s(lp1094
(g100
I14
tp1095
atp1096
a(S'rz\xc4\x85d\xc3\xb3w'
p1097
(dp1098
S'NOUN'
p1099
F1.0
s(lp1100
(g107
I15
tp1101
atp1102
a(S'w'
p1103
(dp1104
S'ADJ'
p1105
F0.0
sg940
F0.0
sS'NOUN'
p1106
F0.0
sS'ADP'
p1107
F1.0
s(lp1108
(g115
I16
tp1109
atp1110
a(S'dziedzinie'
p1111
(dp1112
S'NOUN'
p1113
F1.0
s(lp1114
(g122
I18
tp1115
atp1116
a(S'podatk\xc3\xb3w'
p1117
(dp1118
S'NOUN'
p1119
F1.0
s(lp1120
(g129
I17
tp1121
atp1122
a(S'nie'
p1123
(dp1124
S'ADV'
p1125
F9e-06
sS'PRT'
p1126
F0.995763
sS'CONJ'
p1127
F0.004101
sS'NOUN'
p1128
F4e-06
sS'PRON'
p1129
F0.000122
s(lp1130
(g36
I4
tp1131
atp1132
a(S'powinno'
p1133
(dp1134
S'VERB'
p1135
F1.0
s(lp1136
(g7
I2
tp1137
atp1138
a(S'by\xc4\x87'
p1139
(dp1140
S'VERB'
p1141
F1.0
s(lp1142
(g21
I5
tp1143
atp1144
a(S'zadaniem'
p1145
(dp1146
S'NOUN'
p1147
F1.0
s(lp1148
(g183
I26
tp1149
atp1150
a(S'unii'
p1151
(dp1152
S'NOUN'
p1153
F1.0
s(lp1154
(g59
I9
tp1155
atp1156
a(S'europejskiej'
p1157
(dp1158
S'ADJ'
p1159
F1.0
s(lp1160
(g67
I8
tp1161
atp1162
a(g136
(dp1163
g940
F0.0
sg89
F1.0
s(lp1164
(g136
I20
tp1165
atp1166
a(S'jak'
p1167
(dp1168
S'ADV'
p1169
F0.885242
sS'PRT'
p1170
F0.00094
sS'CONJ'
p1171
F0.089123
sS'ADP'
p1172
F0.024574
sS'PRON'
p1173
F0.000121
s(lp1174
(g146
I21
tp1175
atp1176
a(S's\xc5\x82usznie'
p1177
(dp1178
S'ADV'
p1179
F1.0
s(lp1180
tp1181
a(S'zauwa\xc5\xbca'
p1182
(dp1183
S'VERB'
p1184
F1.0
s(lp1185
(g176
I25
tp1186
atp1187
a(S'sprawozdawczyni'
p1188
(dp1189
S'ADV'
p1190
F0.005832
sS'ADJ'
p1191
F0.10931199999999999
sS'VERB'
p1192
F0.06771100000000001
sS'NOUN'
p1193
F0.817143
s(lp1194
(g201
I23
tp1195
atp1196
a(g89
(dp1197
g89
F1.0
s(lp1198
(g89
I27
tp1199
atp1200
asS'sl'
p1201
(lp1202
(S'zato'
p1203
(dp1204
S'ADV'
p1205
F0.721971
sS'CONJ'
p1206
F0.278029
s(lp1207
(g28
I0
tp1208
atp1209
a(S'ni'
p1210
(dp1211
S'VERB'
p1212
F1.0
s(lp1213
(g36
I4
tp1214
atp1215
a(g990
(dp1216
S'ADP'
p1217
F1.0
s(lp1218
(g7
I2
tp1219
atp1220
a(S'pristojnosti'
p1221
(dp1222
S'NOUN'
p1223
F0.999999
s(lp1224
(g21
I5
tp1225
atp1226
a(S'evropske'
p1227
(dp1228
S'ADJ'
p1229
F1.0
s(lp1230
(g67
I8
tp1231
atp1232
a(S'unije'
p1233
(dp1234
S'NOUN'
p1235
F1.0
s(lp1236
(g59
I9
tp1237
atp1238
a(g136
(dp1239
g89
F1.0
s(lp1240
tp1241
a(S'da'
p1242
(dp1243
S'PRT'
p1244
F0.000319
sS'CONJ'
p1245
F0.999647
sS'VERB'
p1246
F3.2e-05
sg940
F2e-06
s(lp1247
(g74
I10
tp1248
atp1249
a(S'izva\xc5\xbea'
p1250
(dp1251
S'VERB'
p1252
F1.0
s(lp1253
(g155
I11
tp1254
atp1255
a(S'tako'
p1256
(dp1257
S'ADV'
p1258
F0.984482
sS'PRON'
p1259
F0.005959000000000001
sS'CONJ'
p1260
F0.009559
s(lp1261
tp1262
a(S'imenovano'
p1263
(dp1264
S'ADJ'
p1265
F1.0
s(lp1266
(g281
I12
tp1267
atp1268
a(g87
(dp1269
g89
F1.0
s(lp1270
(g91
I13
tp1271
atp1272
a(S'dobro'
p1273
(dp1274
S'ADV'
p1275
F0.029287
sg940
F0.002057
sS'ADJ'
p1276
F0.966918
sS'NOUN'
p1277
F0.0017369999999999998
s(lp1278
(g100
I14
tp1279
atp1280
a(S'upravljanje'
p1281
(dp1282
S'NOUN'
p1283
F1.0
s(lp1284
(g107
I15
tp1285
atp1286
a(g990
(dp1287
S'ADP'
p1288
F1.0
s(lp1289
(g115
I16
tp1290
atp1291
a(S'dav\xc4\x8dnih'
p1292
(dp1293
S'ADJ'
p1294
F1.0
s(lp1295
(g129
I17
tp1296
atp1297
a(S'zadevah'
p1298
(dp1299
S'NOUN'
p1300
F1.0
s(lp1301
(g122
I18
tp1302
atp1303
a(g87
(dp1304
g89
F1.0
s(lp1305
(g91
I19
tp1306
atp1307
a(g136
(dp1308
g89
F1.0
s(lp1309
(g136
I20
tp1310
atp1311
a(S'kot'
p1312
(dp1313
S'CONJ'
p1314
F0.999945
sS'NOUN'
p1315
F5.4999999999999995e-05
s(lp1316
(g146
I21
tp1317
atp1318
a(S'povsem'
p1319
(dp1320
S'ADV'
p1321
F1.0
s(lp1322
(g167
I24
tp1323
atp1324
a(S'pravilno'
p1325
(dp1326
S'ADV'
p1327
F0.996286
sS'ADJ'
p1328
F0.0037140000000000003
s(lp1329
(g176
I25
tp1330
atp1331
a(S'omenja'
p1332
(dp1333
S'VERB'
p1334
F1.0
s(lp1335
(g183
I26
tp1336
atp1337
a(S'poro\xc4\x8devalka'
p1338
(dp1339
S'NOUN'
p1340
F1.0
s(lp1341
(g201
I23
tp1342
atp1343
a(g89
(dp1344
g89
F1.0
s(lp1345
(g89
I27
tp1346
atp1347
asS'es'
p1348
(lp1349
(S'por'
p1350
(dp1351
S'CONJ'
p1352
F1.0
s(lp1353
(g28
I0
tp1354
atp1355
a(S'lo'
p1356
(dp1357
S'CONJ'
p1358
F1.0
s(lp1359
tp1360
a(S'tanto'
p1361
(dp1362
S'CONJ'
p1363
F1.0
s(lp1364
(g28
I0
tp1365
atp1366
a(g136
(dp1367
g89
F1.0
s(lp1368
(g136
I1
tp1369
atp1370
a(S'no'
p1371
(dp1372
S'ADV'
p1373
F0.999956
sg940
F4.4e-05
s(lp1374
(g36
I4
tp1375
atp1376
a(S'compete'
p1377
(dp1378
S'VERB'
p1379
F1.0
s(lp1380
(g21
I5
tp1381
atp1382
a(g158
(dp1383
g940
F6.3e-05
sS'CONJ'
p1384
F4e-06
sS'ADP'
p1385
F0.999933
s(lp1386
(g43
I6
tp1387
atp1388
a(S'la'
p1389
(dp1390
g940
F0.0
sS'PRON'
p1391
F0.0
sS'DET'
p1392
F0.999999
sS'NOUN'
p1393
F0.0
s(lp1394
(g52
I7
tp1395
atp1396
a(S'uni\xc3\xb3n'
p1397
(dp1398
S'NOUN'
p1399
F1.0
s(lp1400
(g59
I9
tp1401
atp1402
a(S'europea'
p1403
(dp1404
S'ADJ'
p1405
F1.0
s(lp1406
(g67
I8
tp1407
atp1408
a(S'exportar'
p1409
(dp1410
S'VERB'
p1411
F1.0
s(lp1412
tp1413
a(S'la'
p1414
(dp1415
S'PRON'
p1416
F0.000562
sS'DET'
p1417
F0.999346
sg940
F0.0
sS'NOUN'
p1418
F9.2e-05
s(lp1419
(g155
I11
tp1420
atp1421
a(S'denominada'
p1422
(dp1423
S'VERB'
p1424
F1.0
s(lp1425
(g281
I12
tp1426
atp1427
a(g87
(dp1428
g89
F1.0
s(lp1429
(g91
I13
tp1430
atp1431
a(S'buena'
p1432
(dp1433
S'ADJ'
p1434
F1.0
s(lp1435
(g100
I14
tp1436
atp1437
a(S'gobernanza'
p1438
(dp1439
S'VERB'
p1440
F0.001191
sS'NOUN'
p1441
F0.998809
s(lp1442
(g107
I15
tp1443
atp1444
a(S'en'
p1445
(dp1446
g940
F1.8e-05
sS'CONJ'
p1447
F1e-05
sS'ADP'
p1448
F0.999972
s(lp1449
(g115
I16
tp1450
atp1451
a(S'asuntos'
p1452
(dp1453
S'NOUN'
p1454
F1.0
s(lp1455
(g122
I18
tp1456
atp1457
a(S'fiscales'
p1458
(dp1459
S'NOUN'
p1460
F0.036538
sS'ADJ'
p1461
F0.963462
s(lp1462
(g129
I17
tp1463
atp1464
a(g87
(dp1465
g89
F1.0
s(lp1466
(g91
I19
tp1467
atp1468
a(g136
(dp1469
g89
F1.0
s(lp1470
(g136
I20
tp1471
atp1472
a(S'como'
p1473
(dp1474
S'ADV'
p1475
F0.286909
sS'CONJ'
p1476
F0.7130909999999999
s(lp1477
(g146
I21
tp1478
atp1479
a(S'bien'
p1480
(dp1481
S'ADV'
p1482
F0.999024
sS'NOUN'
p1483
F0.000976
s(lp1484
(g176
I25
tp1485
atp1486
a(S'menciona'
p1487
(dp1488
S'VERB'
p1489
F1.0
s(lp1490
(g183
I26
tp1491
atp1492
a(S'la'
p1493
(dp1494
g940
F0.0
sS'PRON'
p1495
F0.0
sS'DET'
p1496
F1.0
sS'NOUN'
p1497
F0.0
s(lp1498
(g192
I22
tp1499
atp1500
a(S'ponente'
p1501
(dp1502
S'NOUN'
p1503
F1.0
s(lp1504
(g201
I23
tp1505
atp1506
a(S'de'
p1507
(dp1508
g940
F0.000148
sS'CONJ'
p1509
F0.000489
sS'ADP'
p1510
F0.999363
s(lp1511
tp1512
a(S'forma'
p1513
(dp1514
S'VERB'
p1515
F0.006536
sS'NOUN'
p1516
F0.993464
s(lp1517
tp1518
a(S'bastante'
p1519
(dp1520
S'ADV'
p1521
F0.73777
sS'ADJ'
p1522
F0.26223
s(lp1523
(g167
I24
tp1524
atp1525
a(S'acertada'
p1526
(dp1527
S'VERB'
p1528
F1.0
s(lp1529
(g176
I25
tp1530
atp1531
a(g89
(dp1532
g89
F1.0
s(lp1533
(g89
I27
tp1534
atp1535
as.