(dp0
S'fr'
p1
(lp2
(S'elles'
p3
(dp4
S'PRON'
p5
F1.0
s(lp6
(S'action'
p7
I0
tp8
atp9
a(S'ont'
p10
(dp11
S'VERB'
p12
F1.0
s(lp13
(S'was'
p14
I1
tp15
atp16
a(S'beaucoup'
p17
(dp18
S'ADV'
p19
F1.0
s(lp20
(S'far'
p21
I3
tp22
atp23
a(S'trop'
p24
(dp25
S'ADV'
p26
F0.999875
sS'NOUN'
p27
F0.000125
s(lp28
(S'too'
p29
I4
tp30
atp31
a(S'tard\xc3\xa9'
p32
(dp33
S'VERB'
p34
F1.0
s(lp35
(S'late'
p36
I5
tp37
atp38
a(S'.'
p39
(dp40
g39
F1.0
s(lp41
(g39
I6
tp42
atp43
asS'en'
p44
(lp45
(g7
(dp46
S'NOUN'
p47
F1.0
s(lp48
(g7
I0
tp49
atp50
a(g14
(dp51
S'VERB'
p52
F1.0
s(lp53
(g14
I1
tp54
atp55
a(S'taken'
p56
(dp57
S'VERB'
p58
F0.999986
sS'ADJ'
p59
F1.4e-05
s(lp60
(g56
I2
tp61
atp62
a(g21
(dp63
S'ADV'
p64
F0.99973
sS'ADJ'
p65
F0.00027
s(lp66
(g21
I3
tp67
atp68
a(g29
(dp69
S'ADV'
p70
F1.0
s(lp71
(g29
I4
tp72
atp73
a(g36
(dp74
S'ADV'
p75
F0.361243
sS'ADJ'
p76
F0.638757
s(lp77
(g36
I5
tp78
atp79
a(g39
(dp80
g39
F1.0
s(lp81
(g39
I6
tp82
atp83
asS'nl'
p84
(lp85
(S'men'
p86
(dp87
S'PRON'
p88
F1.0
sS'VERB'
p89
F0.0
s(lp90
(g56
I2
tp91
atp92
a(S'is'
p93
(dp94
S'VERB'
p95
F1.0
s(lp96
(g14
I1
tp97
atp98
a(S'veel'
p99
(dp100
S'ADV'
p101
F0.999851
sS'NUM'
p102
F0.000143
sS'VERB'
p103
F6e-06
s(lp104
(g21
I3
tp105
atp106
a(S'te'
p107
(dp108
S'PRT'
p109
F1.0
s(lp110
(g29
I4
tp111
atp112
a(S'laat'
p113
(dp114
S'VERB'
p115
F0.002597
sS'ADJ'
p116
F0.997403
s(lp117
(g36
I5
tp118
atp119
a(S'opgetreden'
p120
(dp121
S'VERB'
p122
F1.0
s(lp123
(g7
I0
tp124
atp125
a(g39
(dp126
g39
F1.0
s(lp127
(g39
I6
tp128
atp129
asS'de'
p130
(lp131
(S'die'
p132
(dp133
S'PRON'
p134
F0.948899
sS'DET'
p135
F0.040779
s(lp136
tp137
a(S'ma\xc3\x9fnahmen'
p138
(dp139
S'VERB'
p140
F1.0
s(lp141
(g7
I0
tp142
atp143
a(S'wurden'
p144
(dp145
S'VERB'
p146
F1.0
s(lp147
(g14
I1
tp148
atp149
a(S'viel'
p150
(dp151
S'ADV'
p152
F0.98305
sS'PRON'
p153
F0.013651
s(lp154
(g21
I3
tp155
atp156
a(S'zu'
p157
(dp158
S'PRT'
p159
F0.936469
sS'ADP'
p160
F0.057269
s(lp161
(g29
I4
tp162
atp163
a(S'sp\xc3\xa4t'
p164
(dp165
S'ADJ'
p166
F1.0
s(lp167
(g36
I5
tp168
atp169
a(S'ergriffen'
p170
(dp171
S'VERB'
p172
F0.993158
s(lp173
(g56
I2
tp174
atp175
a(g39
(dp176
g39
F1.0
s(lp177
(g39
I6
tp178
atp179
asS'it'
p180
(lp181
(S'sono'
p182
(dp183
S'VERB'
p184
F0.999876
sS'NOUN'
p185
F0.000124
s(lp186
(g14
I1
tp187
atp188
a(S'intervenute'
p189
(dp190
S'NOUN'
p191
F0.002072
sS'VERB'
p192
F0.991602
sS'ADJ'
p193
F0.006326
s(lp194
(g56
I2
tp195
atp196
a(S'con'
p197
(dp198
S'ADP'
p199
F1.0
s(lp200
tp201
a(S'troppo'
p202
(dp203
S'ADV'
p204
F0.087628
sS'PRON'
p205
F0.508346
sS'ADJ'
p206
F0.402483
sS'NOUN'
p207
F0.001543
s(lp208
(g29
I4
tp209
atp210
a(S'ritardo'
p211
(dp212
S'VERB'
p213
F0.000962
sS'NOUN'
p214
F0.999038
s(lp215
(g36
I5
tp216
atp217
a(g39
(dp218
g39
F1.0
s(lp219
(g39
I6
tp220
atp221
asS'sk'
p222
(lp223
(S'kona\xc5\xa5'
p224
(dp225
S'VERB'
p226
F1.0
s(lp227
(g7
I0
tp228
atp229
a(S'sa'
p230
(dp231
S'PRT'
p232
F0.999937
sS'ADP'
p233
F0.0
sS'X'
p234
F6.3e-05
s(lp235
(g14
I1
tp236
atp237
a(S'za\xc4\x8dalo'
p238
(dp239
S'VERB'
p240
F1.000001
s(lp241
(g56
I2
tp242
atp243
a(S'a\xc5\xbe'
p244
(dp245
S'ADV'
p246
F0.003711
sg234
F0.94733
sS'CONJ'
p247
F0.048959
s(lp248
(g21
I3
tp249
atp250
a(S'pr\xc3\xadli\xc5\xa1'
p251
(dp252
S'ADV'
p253
F1.0
s(lp254
(g29
I4
tp255
atp256
a(S'neskoro'
p257
(dp258
S'ADV'
p259
F1.0
s(lp260
(g36
I5
tp261
atp262
a(g39
(dp263
g39
F1.0
s(lp264
(g39
I6
tp265
atp266
asS'pl'
p267
(lp268
(S'dzia\xc5\x82ania'
p269
(dp270
S'VERB'
p271
F0.001442
sS'NOUN'
p272
F0.9985580000000001
s(lp273
(g7
I0
tp274
atp275
a(S'zosta\xc5\x82y'
p276
(dp277
S'VERB'
p278
F1.0000000000000002
s(lp279
(g14
I1
tp280
atp281
a(S'podj\xc4\x99te'
p282
(dp283
S'VERB'
p284
F1.0
s(lp285
(g56
I2
tp286
atp287
a(S'zdecydowanie'
p288
(dp289
S'ADV'
p290
F0.95025
sS'PRT'
p291
F0.038445
sS'NOUN'
p292
F0.011304999999999999
s(lp293
(g21
I3
tp294
atp295
a(S'zbyt'
p296
(dp297
S'ADV'
p298
F0.233351
sS'PRT'
p299
F0.766649
s(lp300
(g29
I4
tp301
atp302
a(S'p\xc3\xb3\xc5\xbano'
p303
(dp304
S'ADV'
p305
F1.0
s(lp306
(g36
I5
tp307
atp308
a(g39
(dp309
g39
F1.0
s(lp310
(g39
I6
tp311
atp312
asS'sl'
p313
(lp314
(S'ukrepale'
p315
(dp316
S'ADV'
p317
F0.005697
sS'ADJ'
p318
F0.025034
sS'VERB'
p319
F0.35074400000000006
sS'NOUN'
p320
F0.617821
sg234
F0.0007
s(lp321
(g7
I0
tp322
atp323
a(S'so'
p324
(dp325
g234
F0.000153
sS'VERB'
p326
F0.999847
s(lp327
(g14
I1
tp328
atp329
a(S'mnogo'
p330
(dp331
S'ADV'
p332
F1.0
s(lp333
(g21
I3
tp334
atp335
a(S'prepozno'
p336
(dp337
S'ADV'
p338
F0.49666
sS'ADJ'
p339
F0.50334
s(lp340
(g36
I5
tp341
atp342
a(g39
(dp343
g39
F1.0
s(lp344
(g39
I6
tp345
atp346
asS'es'
p347
(lp348
(S'se'
p349
(dp350
S'PRON'
p351
F1.0
sS'VERB'
p352
F0.0
s(lp353
(g14
I1
tp354
atp355
a(S'tomaron'
p356
(dp357
S'VERB'
p358
F1.0
s(lp359
(g56
I2
tp360
atp361
a(S'medidas'
p362
(dp363
S'VERB'
p364
F0.660731
sS'NOUN'
p365
F0.339269
s(lp366
(g7
I0
tp367
atp368
a(S'demasiado'
p369
(dp370
S'ADV'
p371
F0.857449
sS'ADJ'
p372
F0.142551
s(lp373
(g29
I4
tp374
atp375
a(S'tarde'
p376
(dp377
S'ADV'
p378
F0.841534
sS'NOUN'
p379
F0.158466
s(lp380
(g36
I5
tp381
atp382
a(g39
(dp383
g39
F1.0
s(lp384
(g39
I6
tp385
atp386
as.