(dp0
S'fr'
p1
(lp2
(S'la'
p3
(dp4
S'PRON'
p5
F8.2e-05
sS'DET'
p6
F0.999918
sS'NOUN'
p7
F0.0
s(lp8
(S'the'
p9
I0
tp10
atp11
a(S'conf\xc3\xa9rence'
p12
(dp13
S'NOUN'
p14
F1.0
s(lp15
(S'conference'
p16
I1
tp17
atp18
a(S'des'
p19
(dp20
S'DET'
p21
F2.1e-05
sS'ADP'
p22
F0.999979
s(lp23
(S'of'
p24
I2
tp25
atp26
a(S'pr\xc3\xa9sidents'
p27
(dp28
S'NOUN'
p29
F1.0
s(lp30
(S'presidents'
p31
I3
tp32
atp33
a(S'a'
p34
(dp35
S'VERB'
p36
F1.0
s(lp37
(S'has'
p38
I4
tp39
atp40
a(S'approuv\xc3\xa9'
p41
(dp42
S'VERB'
p43
F0.989516
sS'NOUN'
p44
F0.010484
s(lp45
(S'approved'
p46
I5
tp47
atp48
a(S'une'
p49
(dp50
S'NOUN'
p51
F1.2e-05
sS'NUM'
p52
F0.057009
sS'DET'
p53
F0.942979
s(lp54
(g34
I6
tp55
atp56
a(S'proposition'
p57
(dp58
S'NOUN'
p59
F1.0
s(lp60
(S'proposal'
p61
I8
tp62
atp63
a(S'de'
p64
(dp65
S'ADP'
p66
F1.0
s(lp67
tp68
a(S'calendrier'
p69
(dp70
S'NOUN'
p71
F1.0
s(lp72
(S'calendar'
p73
I7
tp74
atp75
a(S'pour'
p76
(dp77
S'CONJ'
p78
F0.086655
sS'ADP'
p79
F0.913345
s(lp80
(S'for'
p81
I9
tp82
atp83
a(S'2011'
p84
(dp85
S'X'
p86
F0.000244
sS'NUM'
p87
F0.999756
s(lp88
(S'2011'
p89
I10
tp90
atp91
a(S'incluant'
p92
(dp93
S'VERB'
p94
F0.023289
sS'NOUN'
p95
F0.976711
s(lp96
(S'includes'
p97
I12
tp98
atp99
a(S'une'
p100
(dp101
S'NOUN'
p102
F1.5e-05
sS'NUM'
p103
F0.039264
sS'DET'
p104
F0.960722
s(lp105
(g34
I13
tp106
atp107
a(S'p\xc3\xa9riode'
p108
(dp109
S'NOUN'
p110
F1.0
s(lp111
(S'period'
p112
I15
tp113
atp114
a(S'de'
p115
(dp116
S'ADP'
p117
F1.0
s(lp118
tp119
a(S'session'
p120
(dp121
S'NOUN'
p122
F1.0
s(lp123
(S'part-session'
p124
I14
tp125
atp126
a(S'du'
p127
(dp128
S'ADP'
p129
F1.0
s(lp130
(S'from'
p131
I16
tp132
atp133
a(S'7'
p134
(dp135
g86
F0.000108
sS'NUM'
p136
F0.999892
s(lp137
(g134
I17
tp138
atp139
a(S'au'
p140
(dp141
S'ADP'
p142
F1.0
s(lp143
(S'to'
p144
I18
tp145
atp146
a(S'10'
p147
(dp148
g86
F7.1e-05
sS'NUM'
p149
F0.999929
s(lp150
(S'10'
p151
I19
tp152
atp153
a(S'mars'
p154
(dp155
S'NOUN'
p156
F1.0
s(lp157
(S'march'
p158
I20
tp159
atp160
a(S'et'
p161
(dp162
S'CONJ'
p163
F1.0
s(lp164
(S','
p165
I21
tp166
atp167
a(S'permettant'
p168
(dp169
S'VERB'
p170
F1.0
s(lp171
tp172
a(S'ainsi'
p173
(dp174
S'ADV'
p175
F0.960327
sS'CONJ'
p176
F0.039673
s(lp177
(S'thus'
p178
I22
tp179
atp180
a(S'de'
p181
(dp182
S'ADP'
p183
F1.0
s(lp184
tp185
a(S'respecter'
p186
(dp187
S'VERB'
p188
F1.0
s(lp189
(S'complying'
p190
I23
tp191
atp192
a(S"l'"
p193
(dp194
S'ADJ'
p195
F0.050629
sS'VERB'
p196
F0.794975
sS'NOUN'
p197
F0.154398
s(lp198
tp199
a(S'article'
p200
(dp201
S'VERB'
p202
F0.25624399999999997
sS'NOUN'
p203
F0.743756
s(lp204
(S'article'
p205
I25
tp206
atp207
a(S'229'
p208
(dp209
g86
F0.000206
sS'NUM'
p210
F0.999794
s(lp211
(S'229'
p212
I26
tp213
atp214
a(S'du'
p215
(dp216
S'ADP'
p217
F1.0
s(lp218
(S'of'
p219
I27
tp220
atp221
a(S'trait\xc3\xa9'
p222
(dp223
S'VERB'
p224
F0.04214
sS'NOUN'
p225
F0.95786
s(lp226
(S'treaty'
p227
I29
tp228
atp229
a(S'sur'
p230
(dp231
S'ADP'
p232
F1.0
s(lp233
(S'on'
p234
I30
tp235
atp236
a(S'le'
p237
(dp238
S'PRON'
p239
F6.2e-05
sS'DET'
p240
F0.999938
s(lp241
(S'the'
p242
I31
tp243
atp244
a(S'fonctionnement'
p245
(dp246
S'NOUN'
p247
F1.0
s(lp248
(S'functioning'
p249
I32
tp250
atp251
a(S'de'
p252
(dp253
S'ADP'
p254
F1.0
s(lp255
(S'of'
p256
I33
tp257
atp258
a(S"l'"
p259
(dp260
S'ADJ'
p261
F0.160704
sS'VERB'
p262
F0.06480800000000002
sS'NOUN'
p263
F0.774488
s(lp264
(S'the'
p265
I34
tp266
atp267
a(S'union'
p268
(dp269
S'NOUN'
p270
F1.0
s(lp271
(S'union'
p272
I36
tp273
atp274
a(S'europ\xc3\xa9enne'
p275
(dp276
S'NOUN'
p277
F0.012852
sS'ADJ'
p278
F0.987148
s(lp279
(S'european'
p280
I35
tp281
atp282
a(S'.'
p283
(dp284
g283
F1.0
s(lp285
(g283
I37
tp286
atp287
asS'en'
p288
(lp289
(g9
(dp290
S'NOUN'
p291
F5e-06
sS'DET'
p292
F0.999995
s(lp293
(g9
I0
tp294
atp295
a(g16
(dp296
S'NOUN'
p297
F1.0
s(lp298
(g16
I1
tp299
atp300
a(g24
(dp301
S'ADP'
p302
F1.0
s(lp303
(g24
I2
tp304
atp305
a(g31
(dp306
S'NOUN'
p307
F1.0
s(lp308
(g31
I3
tp309
atp310
a(g38
(dp311
S'VERB'
p312
F1.0
s(lp313
(g38
I4
tp314
atp315
a(g46
(dp316
S'VERB'
p317
F0.999954
sS'ADJ'
p318
F4.6e-05
s(lp319
(g46
I5
tp320
atp321
a(g34
(dp322
S'NOUN'
p323
F1e-06
sS'DET'
p324
F0.999999
s(lp325
(g34
I6
tp326
atp327
a(g73
(dp328
S'VERB'
p329
F0.000157
sS'NOUN'
p330
F0.999843
s(lp331
(g73
I7
tp332
atp333
a(g61
(dp334
S'NOUN'
p335
F1.0
s(lp336
(g61
I8
tp337
atp338
a(g81
(dp339
S'ADP'
p340
F1.0
s(lp341
(g81
I9
tp342
atp343
a(g89
(dp344
S'ADV'
p345
F3e-06
sS'ADJ'
p346
F2e-06
sS'NUM'
p347
F0.999489
sS'NOUN'
p348
F0.000507
sg86
F0.0
s(lp349
(g89
I10
tp350
atp351
a(S'that'
p352
(dp353
S'ADV'
p354
F0.000415
sS'DET'
p355
F0.999584
sS'ADP'
p356
F1e-06
s(lp357
(g352
I11
tp358
atp359
a(g97
(dp360
S'VERB'
p361
F1.0
s(lp362
(g97
I12
tp363
atp364
a(g34
(dp365
S'NOUN'
p366
F0.0
sS'DET'
p367
F1.0
s(lp368
(g34
I13
tp369
atp370
a(g124
(dp371
S'ADJ'
p372
F0.005923
sS'NOUN'
p373
F0.994077
s(lp374
(g124
I14
tp375
atp376
a(g112
(dp377
S'NOUN'
p378
F1.0
s(lp379
(g112
I15
tp380
atp381
a(g131
(dp382
S'ADP'
p383
F1.0
s(lp384
(g131
I16
tp385
atp386
a(g134
(dp387
S'NUM'
p388
F1.0
s(lp389
(g134
I17
tp390
atp391
a(g144
(dp392
S'ADV'
p393
F3e-06
sS'PRT'
p394
F0.999992
sS'ADP'
p395
F5e-06
s(lp396
(g144
I18
tp397
atp398
a(g151
(dp399
S'ADV'
p400
F4e-06
sS'NOUN'
p401
F7.6e-05
sS'NUM'
p402
F0.999184
sS'ADJ'
p403
F0.000736
sg86
F0.0
s(lp404
(g151
I19
tp405
atp406
a(g158
(dp407
S'VERB'
p408
F1.2e-05
sS'NOUN'
p409
F0.999989
s(lp410
(g158
I20
tp411
atp412
a(g165
(dp413
g283
F1.0
s(lp414
(g165
I21
tp415
atp416
a(g178
(dp417
S'ADV'
p418
F1.0
s(lp419
(g178
I22
tp420
atp421
a(g190
(dp422
S'VERB'
p423
F1.0
s(lp424
(g190
I23
tp425
atp426
a(S'with'
p427
(dp428
S'ADP'
p429
F1.0
s(lp430
(g427
I24
tp431
atp432
a(g205
(dp433
S'VERB'
p434
F0.000114
sS'NOUN'
p435
F0.999886
s(lp436
(g205
I25
tp437
atp438
a(g212
(dp439
S'ADV'
p440
F0.002745
sS'NOUN'
p441
F0.000915
sS'NUM'
p442
F0.993713
sS'ADJ'
p443
F0.002628
sg86
F0.0
s(lp444
(g212
I26
tp445
atp446
a(g219
(dp447
S'ADP'
p448
F1.0
s(lp449
(g219
I27
tp450
atp451
a(S'the'
p452
(dp453
S'NOUN'
p454
F1e-06
sS'DET'
p455
F0.999999
s(lp456
(g452
I28
tp457
atp458
a(g227
(dp459
S'NOUN'
p460
F1.0
s(lp461
(g227
I29
tp462
atp463
a(g234
(dp464
S'ADV'
p465
F0.000489
sS'PRT'
p466
F0.000523
sS'ADJ'
p467
F0.0
sS'NOUN'
p468
F0.0
sS'ADP'
p469
F0.998988
s(lp470
(g234
I30
tp471
atp472
a(g242
(dp473
S'NOUN'
p474
F2e-06
sS'DET'
p475
F0.999998
s(lp476
(g242
I31
tp477
atp478
a(g249
(dp479
S'VERB'
p480
F0.199318
sS'NOUN'
p481
F0.800682
s(lp482
(g249
I32
tp483
atp484
a(g256
(dp485
S'ADP'
p486
F1.0
s(lp487
(g256
I33
tp488
atp489
a(g265
(dp490
S'NOUN'
p491
F1e-06
sS'DET'
p492
F0.999999
s(lp493
(g265
I34
tp494
atp495
a(g280
(dp496
S'NOUN'
p497
F0.10881199999999999
sS'VERB'
p498
F1.1e-05
sS'ADJ'
p499
F0.891178
s(lp500
(g280
I35
tp501
atp502
a(g272
(dp503
S'NOUN'
p504
F1.0
s(lp505
(g272
I36
tp506
atp507
a(g283
(dp508
g283
F1.0
s(lp509
(g283
I37
tp510
atp511
asS'nl'
p512
(lp513
(S'de'
p514
(dp515
S'DET'
p516
F1.0
s(lp517
(g9
I0
tp518
atp519
a(S'conferentie'
p520
(dp521
S'NOUN'
p522
F1.0
s(lp523
(g16
I1
tp524
atp525
a(S'van'
p526
(dp527
S'ADP'
p528
F1.0
s(lp529
(g24
I2
tp530
atp531
a(S'voorzitters'
p532
(dp533
S'NOUN'
p534
F1.0
s(lp535
(g31
I3
tp536
atp537
a(S'heeft'
p538
(dp539
S'VERB'
p540
F1.0
s(lp541
(g38
I4
tp542
atp543
a(S'goedkeuring'
p544
(dp545
S'NOUN'
p546
F1.0
s(lp547
tp548
a(S'gehecht'
p549
(dp550
S'VERB'
p551
F0.999153
sS'ADJ'
p552
F0.000847
s(lp553
(g46
I5
tp554
atp555
a(S'aan'
p556
(dp557
S'ADV'
p558
F0.000282
sS'ADP'
p559
F0.999718
s(lp560
(g81
I9
tp561
atp562
a(S'een'
p563
(dp564
S'ADJ'
p565
F1e-06
sS'PRON'
p566
F1.4e-05
sS'NUM'
p567
F0.0
sS'DET'
p568
F0.999985
s(lp569
tp570
a(S'voorstel'
p571
(dp572
S'VERB'
p573
F1e-06
sS'NOUN'
p574
F0.999999
s(lp575
(g61
I8
tp576
atp577
a(S'voor'
p578
(dp579
S'ADV'
p580
F0.001935
sS'CONJ'
p581
F3e-06
sS'NOUN'
p582
F0.0
sS'ADP'
p583
F0.998061
s(lp584
(g81
I9
tp585
atp586
a(S'een'
p587
(dp588
S'ADJ'
p589
F1e-06
sS'PRON'
p590
F2.3e-05
sS'NUM'
p591
F0.0
sS'DET'
p592
F0.999976
s(lp593
(g34
I6
tp594
atp595
a(S'vergaderrooster'
p596
(dp597
S'ADJ'
p598
F0.016696
sS'NOUN'
p599
F0.983304
s(lp600
(g73
I7
tp601
atp602
a(S'voor'
p603
(dp604
S'ADV'
p605
F0.005453
sS'CONJ'
p606
F6e-06
sS'NOUN'
p607
F2e-06
sS'ADP'
p608
F0.994539
s(lp609
tp610
a(S'2011'
p611
(dp612
S'NUM'
p613
F1.0
s(lp614
(g89
I10
tp615
atp616
a(S'dat'
p617
(dp618
S'PRON'
p619
F0.564455
sS'CONJ'
p620
F0.435546
s(lp621
(g352
I11
tp622
atp623
a(S'voorziet'
p624
(dp625
S'VERB'
p626
F1.0
s(lp627
tp628
a(S'in'
p629
(dp630
S'ADV'
p631
F0.020912
sS'VERB'
p632
F0.0
sS'ADP'
p633
F0.979088
s(lp634
(g97
I12
tp635
atp636
a(S'een'
p637
(dp638
S'ADJ'
p639
F1e-06
sS'PRON'
p640
F1.4e-05
sS'NUM'
p641
F0.0
sS'DET'
p642
F0.999984
s(lp643
(g34
I13
tp644
atp645
a(S'vergaderperiode'
p646
(dp647
S'NOUN'
p648
F1.0
s(lp649
(g124
I14
tp650
atp651
a(S'van'
p652
(dp653
S'ADP'
p654
F1.0
s(lp655
(g131
I16
tp656
atp657
a(g134
(dp658
S'NUM'
p659
F1.0
s(lp660
(g134
I17
tp661
atp662
a(S'tot'
p663
(dp664
S'CONJ'
p665
F4e-05
sS'ADP'
p666
F0.99996
s(lp667
(g81
I9
tp668
atp669
a(S'en'
p670
(dp671
S'CONJ'
p672
F1.0
s(lp673
tp674
a(S'met'
p675
(dp676
S'ADP'
p677
F1.0
s(lp678
(g144
I18
tp679
atp680
a(S'10'
p681
(dp682
S'NUM'
p683
F1.0
s(lp684
(g151
I19
tp685
atp686
a(S'maart'
p687
(dp688
S'NOUN'
p689
F1.0
s(lp690
(g158
I20
tp691
atp692
a(g165
(dp693
g283
F1.0
s(lp694
(g165
I21
tp695
atp696
a(S'hetgeen'
p697
(dp698
S'PRON'
p699
F1.0
s(lp700
(g178
I22
tp701
atp702
a(S'in'
p703
(dp704
S'ADV'
p705
F0.004967
sS'VERB'
p706
F1e-06
sS'ADP'
p707
F0.995032
s(lp708
tp709
a(S'overeenstemming'
p710
(dp711
S'NOUN'
p712
F1.0
s(lp713
(g190
I23
tp714
atp715
a(S'is'
p716
(dp717
S'VERB'
p718
F1.0
s(lp719
tp720
a(S'met'
p721
(dp722
S'ADP'
p723
F1.0
s(lp724
(g427
I24
tp725
atp726
a(S'artikel'
p727
(dp728
S'NOUN'
p729
F1.0
s(lp730
(g205
I25
tp731
atp732
a(S'229'
p733
(dp734
S'NUM'
p735
F1.0
s(lp736
(g212
I26
tp737
atp738
a(S'van'
p739
(dp740
S'ADP'
p741
F1.0
s(lp742
(g219
I27
tp743
atp744
a(S'het'
p745
(dp746
S'PRON'
p747
F0.000927
sS'DET'
p748
F0.999073
s(lp749
(g452
I28
tp750
atp751
a(S'verdrag'
p752
(dp753
S'NOUN'
p754
F1.0
s(lp755
(g227
I29
tp756
atp757
a(S'betreffende'
p758
(dp759
S'NOUN'
p760
F0.0
sS'VERB'
p761
F5e-06
sS'ADJ'
p762
F6.2e-05
sS'ADP'
p763
F0.999934
s(lp764
(g234
I30
tp765
atp766
a(S'de'
p767
(dp768
S'DET'
p769
F1.0
s(lp770
(g242
I31
tp771
atp772
a(S'werking'
p773
(dp774
S'NOUN'
p775
F1.0
s(lp776
(g249
I32
tp777
atp778
a(S'van'
p779
(dp780
S'ADP'
p781
F1.0
s(lp782
(g256
I33
tp783
atp784
a(S'de'
p785
(dp786
S'DET'
p787
F1.0
s(lp788
(g265
I34
tp789
atp790
a(S'europese'
p791
(dp792
S'NOUN'
p793
F1.0
s(lp794
(g280
I35
tp795
atp796
a(S'unie'
p797
(dp798
S'NOUN'
p799
F1.0
s(lp800
(g272
I36
tp801
atp802
a(g283
(dp803
g283
F1.0
s(lp804
(g283
I37
tp805
atp806
asS'de'
p807
(lp808
(S'die'
p809
(dp810
S'PRON'
p811
F0.001164
sS'DET'
p812
F0.998507
s(lp813
(g9
I0
tp814
atp815
a(S'konferenz'
p816
(dp817
S'ADJ'
p818
F9.3e-05
sS'NOUN'
p819
F0.99978
s(lp820
(g16
I1
tp821
atp822
a(S'der'
p823
(dp824
S'PRON'
p825
F2.1e-05
sS'DET'
p826
F0.999971
s(lp827
(g24
I2
tp828
atp829
a(S'pr\xc3\xa4sidenten'
p830
(dp831
S'ADJ'
p832
F0.016194
sS'NOUN'
p833
F0.983586
s(lp834
(g31
I3
tp835
atp836
a(S'hat'
p837
(dp838
S'VERB'
p839
F1.0
s(lp840
(g38
I4
tp841
atp842
a(S'einen'
p843
(dp844
S'ADJ'
p845
F0.001821
sS'DET'
p846
F0.997332
s(lp847
(g34
I6
tp848
atp849
a(S'vorschlag'
p850
(dp851
S'ADJ'
p852
F0.000133
sS'NOUN'
p853
F0.999703
s(lp854
(g61
I8
tp855
atp856
a(S'f\xc3\xbcr'
p857
(dp858
S'ADP'
p859
F1.0
s(lp860
tp861
a(S'den'
p862
(dp863
S'PRON'
p864
F0.001275
sS'DET'
p865
F0.998714
s(lp866
tp867
a(S'tagungskalender'
p868
(dp869
S'ADJ'
p870
F0.344553
sS'NOUN'
p871
F0.527967
s(lp872
(g73
I7
tp873
atp874
a(S'f\xc3\xbcr'
p875
(dp876
S'ADP'
p877
F1.0
s(lp878
(g81
I9
tp879
atp880
a(S'2011'
p881
(dp882
S'NUM'
p883
F0.99593
sS'ADJ'
p884
F0.002645
s(lp885
(g89
I10
tp886
atp887
a(S'genehmigt'
p888
(dp889
S'VERB'
p890
F1.0
s(lp891
(g46
I5
tp892
atp893
a(g165
(dp894
g283
F1.0
s(lp895
(g352
I11
tp896
atp897
a(S'der'
p898
(dp899
S'PRON'
p900
F0.926871
sS'DET'
p901
F0.069044
s(lp902
tp903
a(S'einen'
p904
(dp905
S'ADJ'
p906
F0.064744
sS'DET'
p907
F0.93329
s(lp908
(g34
I13
tp909
atp910
a(S'tagungszeitraum'
p911
(dp912
S'ADJ'
p913
F0.002015
sS'NOUN'
p914
F0.99779
s(lp915
(g124
I14
tp916
atp917
a(S'vom'
p918
(dp919
S'ADP'
p920
F1.0
s(lp921
(g131
I16
tp922
atp923
a(S'7.'
p924
(dp925
S'NUM'
p926
F1.0
s(lp927
(g134
I17
tp928
atp929
a(S'bis'
p930
(dp931
S'CONJ'
p932
F0.68997
sS'ADP'
p933
F0.259809
s(lp934
tp935
a(S'zum'
p936
(dp937
S'ADP'
p938
F1.0
s(lp939
(g144
I18
tp940
atp941
a(S'10.'
p942
(dp943
S'NUM'
p944
F1.0
s(lp945
(g151
I19
tp946
atp947
a(S'm\xc3\xa4rz'
p948
(dp949
S'ADJ'
p950
F0.35448
sS'NOUN'
p951
F0.556311
s(lp952
(g158
I20
tp953
atp954
a(S'beinhaltet'
p955
(dp956
S'VERB'
p957
F0.931535
s(lp958
(g97
I12
tp959
atp960
a(S'und'
p961
(dp962
S'CONJ'
p963
F1.0
s(lp964
(g165
I21
tp965
atp966
a(S'damit'
p967
(dp968
S'ADV'
p969
F0.930464
sS'CONJ'
p970
F0.069536
s(lp971
(g178
I22
tp972
atp973
a(S'artikel'
p974
(dp975
S'VERB'
p976
F0.033774
sS'NOUN'
p977
F0.920027
s(lp978
(g205
I25
tp979
atp980
a(S'229'
p981
(dp982
S'ADV'
p983
F0.038511
sS'NUM'
p984
F0.956637
s(lp985
(g212
I26
tp986
atp987
a(S'des'
p988
(dp989
S'DET'
p990
F1.0
s(lp991
(g219
I27
tp992
atp993
a(S'vertrags'
p994
(dp995
S'ADJ'
p996
F0.015682
sS'NOUN'
p997
F0.970283
s(lp998
(g227
I29
tp999
atp1000
a(S'\xc3\xbcber'
p1001
(dp1002
S'PRT'
p1003
F0.00011
sS'ADP'
p1004
F0.99989
s(lp1005
(g234
I30
tp1006
atp1007
a(S'die'
p1008
(dp1009
S'PRON'
p1010
F0.002034
sS'DET'
p1011
F0.997445
s(lp1012
(g242
I31
tp1013
atp1014
a(S'arbeitsweise'
p1015
(dp1016
S'ADJ'
p1017
F1.0
s(lp1018
(g249
I32
tp1019
atp1020
a(S'der'
p1021
(dp1022
S'PRON'
p1023
F0.00087
sS'DET'
p1024
F0.998915
s(lp1025
(g265
I34
tp1026
atp1027
a(S'europ\xc3\xa4ischen'
p1028
(dp1029
S'ADJ'
p1030
F1.0
s(lp1031
(g280
I35
tp1032
atp1033
a(S'union'
p1034
(dp1035
S'NOUN'
p1036
F0.995718
s(lp1037
(g272
I36
tp1038
atp1039
a(S'entspricht'
p1040
(dp1041
S'VERB'
p1042
F1.0
s(lp1043
(g190
I23
tp1044
atp1045
a(g283
(dp1046
g283
F1.0
s(lp1047
(g283
I37
tp1048
atp1049
asS'it'
p1050
(lp1051
(S'la'
p1052
(dp1053
S'PRON'
p1054
F0.000408
sS'DET'
p1055
F0.999592
s(lp1056
(g9
I0
tp1057
atp1058
a(S'conferenza'
p1059
(dp1060
S'NOUN'
p1061
F1.0
s(lp1062
(g16
I1
tp1063
atp1064
a(S'dei'
p1065
(dp1066
S'NOUN'
p1067
F1e-06
sS'DEF'
p1068
F0.001164
sS'ADP'
p1069
F0.998835
s(lp1070
(g24
I2
tp1071
atp1072
a(S'presidenti'
p1073
(dp1074
S'NOUN'
p1075
F1.0
s(lp1076
(g31
I3
tp1077
atp1078
a(S'ha'
p1079
(dp1080
S'VERB'
p1081
F1.0
s(lp1082
(g38
I4
tp1083
atp1084
a(S'approvato'
p1085
(dp1086
S'VERB'
p1087
F1.0
s(lp1088
(g46
I5
tp1089
atp1090
a(S'una'
p1091
(dp1092
S'PRON'
p1093
F1.2e-05
sS'DEF'
p1094
F0.999988
s(lp1095
(g34
I6
tp1096
atp1097
a(S'proposta'
p1098
(dp1099
S'VERB'
p1100
F0.002694
sS'NOUN'
p1101
F0.997306
s(lp1102
(g61
I8
tp1103
atp1104
a(S'di'
p1105
(dp1106
S'CONJ'
p1107
F4e-06
sS'ADP'
p1108
F0.999996
s(lp1109
tp1110
a(S'calendario'
p1111
(dp1112
S'NOUN'
p1113
F1.0
s(lp1114
(g73
I7
tp1115
atp1116
a(S'per'
p1117
(dp1118
S'CONJ'
p1119
F0.052952
sS'ADP'
p1120
F0.947048
s(lp1121
(g81
I9
tp1122
atp1123
a(S'il'
p1124
(dp1125
S'DET'
p1126
F1.0
s(lp1127
tp1128
a(S'2011'
p1129
(dp1130
S'NUM'
p1131
F0.9847779999999999
sg283
F0.015222
s(lp1132
(g89
I10
tp1133
atp1134
a(S'che'
p1135
(dp1136
S'PRON'
p1137
F0.929725
sS'CONJ'
p1138
F0.069617
sS'ADJ'
p1139
F0.000658
s(lp1140
(g352
I11
tp1141
atp1142
a(S'prevede'
p1143
(dp1144
S'VERB'
p1145
F1.0
s(lp1146
(g97
I12
tp1147
atp1148
a(S'una'
p1149
(dp1150
S'PRON'
p1151
F0.000104
sS'DEF'
p1152
F0.999896
s(lp1153
(g34
I13
tp1154
atp1155
a(S'tornata'
p1156
(dp1157
S'VERB'
p1158
F0.018755
sS'NOUN'
p1159
F0.981245
s(lp1160
(g124
I14
tp1161
atp1162
a(S'dal'
p1163
(dp1164
S'ADP'
p1165
F1.0
s(lp1166
(g131
I16
tp1167
atp1168
a(g134
(dp1169
S'NUM'
p1170
F0.99915
sg283
F0.000849
s(lp1171
(g134
I17
tp1172
atp1173
a(S'al'
p1174
(dp1175
S'ADP'
p1176
F1.0
s(lp1177
(g144
I18
tp1178
atp1179
a(S'10'
p1180
(dp1181
S'NUM'
p1182
F0.999798
sg283
F0.000202
s(lp1183
(g151
I19
tp1184
atp1185
a(S'marzo'
p1186
(dp1187
S'NOUN'
p1188
F1.0
s(lp1189
(g158
I20
tp1190
atp1191
a(g165
(dp1192
g283
F1.0
s(lp1193
(g165
I21
tp1194
atp1195
a(S'in'
p1196
(dp1197
S'ADP'
p1198
F1.0
s(lp1199
(g178
I22
tp1200
atp1201
a(S'ottemperanza'
p1202
(dp1203
S'NOUN'
p1204
F1.0
s(lp1205
(g190
I23
tp1206
atp1207
a(S"all'"
p1208
(dp1209
S'ADJ'
p1210
F0.040682
sS'VERB'
p1211
F0.006560999999999999
sS'NOUN'
p1212
F0.952757
s(lp1213
tp1214
a(S'articolo'
p1215
(dp1216
S'VERB'
p1217
F0.000347
sS'NOUN'
p1218
F0.999653
s(lp1219
(g205
I25
tp1220
atp1221
a(S'229'
p1222
(dp1223
S'NUM'
p1224
F0.9623200000000001
sg283
F0.037681
s(lp1225
(g212
I26
tp1226
atp1227
a(S'del'
p1228
(dp1229
S'DEF'
p1230
F0.003698
sS'ADP'
p1231
F0.996302
s(lp1232
(g219
I27
tp1233
atp1234
a(S'trattato'
p1235
(dp1236
S'VERB'
p1237
F0.167624
sS'NOUN'
p1238
F0.832376
s(lp1239
(g227
I29
tp1240
atp1241
a(S'sul'
p1242
(dp1243
S'ADP'
p1244
F1.0
s(lp1245
(g234
I30
tp1246
atp1247
a(S'funzionamento'
p1248
(dp1249
S'NOUN'
p1250
F1.0
s(lp1251
(g249
I32
tp1252
atp1253
a(S"dell'"
p1254
(dp1255
S'ADJ'
p1256
F0.040682
sS'VERB'
p1257
F0.006560999999999999
sS'NOUN'
p1258
F0.952757
s(lp1259
(g256
I33
tp1260
atp1261
a(S'unione'
p1262
(dp1263
S'NOUN'
p1264
F1.0
s(lp1265
(g272
I36
tp1266
atp1267
a(S'europea'
p1268
(dp1269
S'NOUN'
p1270
F0.001561
sS'ADJ'
p1271
F0.998439
s(lp1272
(g280
I35
tp1273
atp1274
a(g283
(dp1275
g283
F1.0
s(lp1276
(g283
I37
tp1277
atp1278
asS'sk'
p1279
(lp1280
(S'konferencia'
p1281
(dp1282
S'NOUN'
p1283
F1.0
s(lp1284
(g16
I1
tp1285
atp1286
a(S'predsedov'
p1287
(dp1288
S'ADJ'
p1289
F0.445281
sS'NOUN'
p1290
F0.554719
s(lp1291
(g31
I3
tp1292
atp1293
a(S'schv\xc3\xa1lila'
p1294
(dp1295
S'VERB'
p1296
F1.0
s(lp1297
(g46
I5
tp1298
atp1299
a(S'n\xc3\xa1vrh'
p1300
(dp1301
S'NOUN'
p1302
F1.0
s(lp1303
(g61
I8
tp1304
atp1305
a(S'kalend\xc3\xa1ra'
p1306
(dp1307
S'NOUN'
p1308
F1.0
s(lp1309
(g73
I7
tp1310
atp1311
a(S'na'
p1312
(dp1313
g86
F0.000156
sS'CONJ'
p1314
F1.5e-05
sS'ADP'
p1315
F0.999826
sS'PRT'
p1316
F3e-06
s(lp1317
(g81
I9
tp1318
atp1319
a(S'rok'
p1320
(dp1321
S'NOUN'
p1322
F1.0
s(lp1323
tp1324
a(S'2011'
p1325
(dp1326
S'NUM'
p1327
F1.0
s(lp1328
(g89
I10
tp1329
atp1330
a(g165
(dp1331
g283
F1.0
s(lp1332
tp1333
a(S'ktor\xc3\xbd'
p1334
(dp1335
S'PRON'
p1336
F1.0
s(lp1337
(g352
I11
tp1338
atp1339
a(S'zah\xc5\x95\xc5\x88a'
p1340
(dp1341
S'VERB'
p1342
F1.0
s(lp1343
(g97
I12
tp1344
atp1345
a(S'sch\xc3\xb4dzu'
p1346
(dp1347
S'NOUN'
p1348
F1.0
s(lp1349
(g124
I14
tp1350
atp1351
a(S'od'
p1352
(dp1353
g86
F0.000489
sS'ADP'
p1354
F0.999511
s(lp1355
(g131
I16
tp1356
atp1357
a(S'7.'
p1358
(dp1359
S'NUM'
p1360
F1.0
s(lp1361
(g134
I17
tp1362
atp1363
a(S'do'
p1364
(dp1365
g86
F0.0008399999999999999
sS'ADP'
p1366
F0.999157
sS'PRON'
p1367
F2e-06
s(lp1368
(g144
I18
tp1369
atp1370
a(S'10.'
p1371
(dp1372
S'NUM'
p1373
F1.0
s(lp1374
(g151
I19
tp1375
atp1376
a(S'marca'
p1377
(dp1378
S'NOUN'
p1379
F1.0
s(lp1380
(g158
I20
tp1381
atp1382
a(g165
(dp1383
g283
F1.0
s(lp1384
tp1385
a(g34
(dp1386
g86
F0.000863
sS'CONJ'
p1387
F0.999107
sS'NOUN'
p1388
F7e-06
sS'ADP'
p1389
F0.0
sS'PRT'
p1390
F2.3e-05
s(lp1391
(g165
I21
tp1392
atp1393
a(S'je'
p1394
(dp1395
S'PRON'
p1396
F0.000102
sS'VERB'
p1397
F0.999882
sg86
F1.5e-05
s(lp1398
tp1399
a(S'teda'
p1400
(dp1401
g86
F0.969212
sS'CONJ'
p1402
F0.030788
s(lp1403
(g178
I22
tp1404
atp1405
a(S'v'
p1406
(dp1407
g86
F0.000227
sS'ADP'
p1408
F0.999772
s(lp1409
tp1410
a(S's\xc3\xbalade'
p1411
(dp1412
S'NOUN'
p1413
F1.0
s(lp1414
(g190
I23
tp1415
atp1416
a(S's'
p1417
(dp1418
g86
F0.0027730000000000003
sS'CONJ'
p1419
F6.5e-05
sS'NOUN'
p1420
F1.4e-05
sS'ADP'
p1421
F0.997125
sS'PRT'
p1422
F2.2e-05
s(lp1423
(g427
I24
tp1424
atp1425
a(S'\xc4\x8dl\xc3\xa1nkom'
p1426
(dp1427
S'NOUN'
p1428
F1.0
s(lp1429
(g205
I25
tp1430
atp1431
a(S'229'
p1432
(dp1433
S'NUM'
p1434
F1.0
s(lp1435
(g212
I26
tp1436
atp1437
a(S'zmluvy'
p1438
(dp1439
S'NOUN'
p1440
F1.0
s(lp1441
(g227
I29
tp1442
atp1443
a(S'o'
p1444
(dp1445
g86
F0.000233
sS'CONJ'
p1446
F6e-05
sS'NOUN'
p1447
F7e-06
sS'ADP'
p1448
F0.999699
s(lp1449
(g234
I30
tp1450
atp1451
a(S'fungovan\xc3\xad'
p1452
(dp1453
S'NOUN'
p1454
F1.0
s(lp1455
(g249
I32
tp1456
atp1457
a(S'eur\xc3\xb3pskej'
p1458
(dp1459
S'ADJ'
p1460
F1.0
s(lp1461
(g280
I35
tp1462
atp1463
a(S'\xc3\xbanie'
p1464
(dp1465
S'NOUN'
p1466
F1.0
s(lp1467
(g272
I36
tp1468
atp1469
a(g283
(dp1470
g283
F1.0
s(lp1471
(g283
I37
tp1472
atp1473
asS'pl'
p1474
(lp1475
(S'konferencja'
p1476
(dp1477
S'NOUN'
p1478
F1.0
s(lp1479
(g16
I1
tp1480
atp1481
a(S'przewodnicz\xc4\x85cych'
p1482
(dp1483
S'NOUN'
p1484
F1.0
s(lp1485
(g31
I3
tp1486
atp1487
a(S'zatwierdzi\xc5\x82a'
p1488
(dp1489
S'ADJ'
p1490
F6.1e-05
sS'VERB'
p1491
F0.9919809999999999
sS'NOUN'
p1492
F0.007957
s(lp1493
(g46
I5
tp1494
atp1495
a(S'projekt'
p1496
(dp1497
S'NOUN'
p1498
F1.0
s(lp1499
(g61
I8
tp1500
atp1501
a(S'harmonogramu'
p1502
(dp1503
S'NOUN'
p1504
F1.0
s(lp1505
(g73
I7
tp1506
atp1507
a(S'na'
p1508
(dp1509
S'PRT'
p1510
F1.6e-05
sS'VERB'
p1511
F7.9e-05
sS'NOUN'
p1512
F1e-05
sS'ADP'
p1513
F0.999883
sg86
F1.2e-05
s(lp1514
(g81
I9
tp1515
atp1516
a(S'2011'
p1517
(dp1518
S'ADV'
p1519
F1.9e-05
sS'NOUN'
p1520
F0.0005520000000000001
sS'NUM'
p1521
F0.08972600000000003
sS'ADJ'
p1522
F0.909698
sg86
F3e-06
s(lp1523
tp1524
a(S'rok'
p1525
(dp1526
S'NOUN'
p1527
F1.0
s(lp1528
(g89
I10
tp1529
atp1530
a(g165
(dp1531
g86
F0.0
sg283
F1.0
s(lp1532
(g352
I11
tp1533
atp1534
a(S'obejmuj\xc4\x85cy'
p1535
(dp1536
S'VERB'
p1537
F1.0
s(lp1538
(g97
I12
tp1539
atp1540
a(S'sesj\xc4\x99'
p1541
(dp1542
S'NOUN'
p1543
F1.0
s(lp1544
(g124
I14
tp1545
atp1546
a(S'od'
p1547
(dp1548
S'VERB'
p1549
F2.3e-05
sS'NOUN'
p1550
F5.3e-05
sS'ADP'
p1551
F0.999924
s(lp1552
(g131
I16
tp1553
atp1554
a(g134
(dp1555
S'NUM'
p1556
F0.7876559999999998
sS'ADJ'
p1557
F0.21234200000000006
s(lp1558
(g134
I17
tp1559
atp1560
a(S'do'
p1561
(dp1562
g86
F0.0
sS'NOUN'
p1563
F2e-06
sS'ADP'
p1564
F0.999998
s(lp1565
(g144
I18
tp1566
atp1567
a(S'10'
p1568
(dp1569
S'NOUN'
p1570
F1e-06
sS'NUM'
p1571
F0.03217300000000001
sS'ADJ'
p1572
F0.967823
s(lp1573
(g151
I19
tp1574
atp1575
a(S'marca'
p1576
(dp1577
S'NOUN'
p1578
F1.0
s(lp1579
(g158
I20
tp1580
atp1581
a(g165
(dp1582
g86
F0.0
sg283
F1.0
s(lp1583
(g165
I21
tp1584
atp1585
a(S'co'
p1586
(dp1587
S'PRT'
p1588
F0.073534
sS'CONJ'
p1589
F0.400162
sS'NOUN'
p1590
F0.5255380000000001
sS'ADP'
p1591
F0.000765
s(lp1592
(g178
I22
tp1593
atp1594
a(S'spe\xc5\x82nia'
p1595
(dp1596
S'VERB'
p1597
F1.0
s(lp1598
(g190
I23
tp1599
atp1600
a(S'wymogi'
p1601
(dp1602
S'NOUN'
p1603
F1.0
s(lp1604
tp1605
a(S'art'
p1606
(dp1607
S'NOUN'
p1608
F1.0
s(lp1609
tp1610
a(g283
(dp1611
g283
F1.0
s(lp1612
(g205
I25
tp1613
atp1614
a(S'229'
p1615
(dp1616
S'ADJ'
p1617
F1.0
s(lp1618
(g212
I26
tp1619
atp1620
a(S'traktatu'
p1621
(dp1622
S'NOUN'
p1623
F1.0
s(lp1624
(g227
I29
tp1625
atp1626
a(g1444
(dp1627
g86
F2e-05
sS'VERB'
p1628
F0.0
sS'NOUN'
p1629
F0.0
sS'ADP'
p1630
F0.999979
sS'PRT'
p1631
F0.0
s(lp1632
(g234
I30
tp1633
atp1634
a(S'funkcjonowaniu'
p1635
(dp1636
S'VERB'
p1637
F0.722645
sS'NOUN'
p1638
F0.277355
s(lp1639
(g249
I32
tp1640
atp1641
a(S'unii'
p1642
(dp1643
S'NOUN'
p1644
F1.0
s(lp1645
(g272
I36
tp1646
atp1647
a(S'europejskiej'
p1648
(dp1649
S'ADJ'
p1650
F1.0
s(lp1651
(g280
I35
tp1652
atp1653
a(g283
(dp1654
g283
F1.0
s(lp1655
(g283
I37
tp1656
atp1657
asS'sl'
p1658
(lp1659
(S'konferenca'
p1660
(dp1661
S'NOUN'
p1662
F1.0
s(lp1663
(g16
I1
tp1664
atp1665
a(S'predsednikov'
p1666
(dp1667
S'ADJ'
p1668
F0.0022849999999999997
sS'NOUN'
p1669
F0.997715
s(lp1670
(g31
I3
tp1671
atp1672
a(S'je'
p1673
(dp1674
S'PRON'
p1675
F1.9e-05
sS'VERB'
p1676
F0.99998
sg86
F1e-06
s(lp1677
(g38
I4
tp1678
atp1679
a(S'odobrila'
p1680
(dp1681
S'VERB'
p1682
F1.0
s(lp1683
(g46
I5
tp1684
atp1685
a(S'predlog'
p1686
(dp1687
S'NOUN'
p1688
F1.0
s(lp1689
(g61
I8
tp1690
atp1691
a(S'koledarja'
p1692
(dp1693
S'NOUN'
p1694
F1.0
s(lp1695
(g73
I7
tp1696
atp1697
a(S'za'
p1698
(dp1699
S'ADV'
p1700
F6e-06
sg86
F1e-06
sS'ADP'
p1701
F0.999993
s(lp1702
(g81
I9
tp1703
atp1704
a(S'leto'
p1705
(dp1706
S'NOUN'
p1707
F1.0
s(lp1708
tp1709
a(S'2011'
p1710
(dp1711
S'NUM'
p1712
F1.0
s(lp1713
(g89
I10
tp1714
atp1715
a(g165
(dp1716
g283
F1.0
s(lp1717
tp1718
a(S'ki'
p1719
(dp1720
S'CONJ'
p1721
F1.0
s(lp1722
(g352
I11
tp1723
atp1724
a(S'vklju\xc4\x8duje'
p1725
(dp1726
S'VERB'
p1727
F1.0
s(lp1728
(g97
I12
tp1729
atp1730
a(S'obdobje'
p1731
(dp1732
S'NOUN'
p1733
F1.0
s(lp1734
(g112
I15
tp1735
atp1736
a(S'delnega'
p1737
(dp1738
S'ADV'
p1739
F1.4e-05
sS'NOUN'
p1740
F0.001197
sS'VERB'
p1741
F0.000331
sS'ADJ'
p1742
F0.998457
s(lp1743
tp1744
a(S'zasedanja'
p1745
(dp1746
S'NOUN'
p1747
F1.0
s(lp1748
(g124
I14
tp1749
atp1750
a(S'od'
p1751
(dp1752
S'ADP'
p1753
F1.0
s(lp1754
(g131
I16
tp1755
atp1756
a(S'7.'
p1757
(dp1758
S'NUM'
p1759
F1.0
s(lp1760
(g134
I17
tp1761
atp1762
a(S'do'
p1763
(dp1764
g86
F0.000128
sS'ADP'
p1765
F0.999872
s(lp1766
(g144
I18
tp1767
atp1768
a(S'10.'
p1769
(dp1770
S'NUM'
p1771
F1.0
s(lp1772
(g151
I19
tp1773
atp1774
a(S'marca'
p1775
(dp1776
S'NOUN'
p1777
F1.0
s(lp1778
(g158
I20
tp1779
atp1780
a(S'in'
p1781
(dp1782
S'ADV'
p1783
F0.000136
sg86
F7e-06
sS'CONJ'
p1784
F0.99984
sS'NOUN'
p1785
F1.7e-05
s(lp1786
(g165
I21
tp1787
atp1788
a(S'tako'
p1789
(dp1790
S'ADV'
p1791
F0.973913
sS'PRON'
p1792
F0.007361
sS'CONJ'
p1793
F0.018727
s(lp1794
(g178
I22
tp1795
atp1796
a(S'ustreza'
p1797
(dp1798
S'VERB'
p1799
F1.0
s(lp1800
(g190
I23
tp1801
atp1802
a(S'\xc4\x8dlenu'
p1803
(dp1804
S'NOUN'
p1805
F1.0
s(lp1806
(g205
I25
tp1807
atp1808
a(S'229'
p1809
(dp1810
S'NUM'
p1811
F1.0
s(lp1812
(g212
I26
tp1813
atp1814
a(S'pogodbe'
p1815
(dp1816
S'NOUN'
p1817
F1.0
s(lp1818
(g227
I29
tp1819
atp1820
a(g1444
(dp1821
S'NOUN'
p1822
F6e-06
sS'ADP'
p1823
F0.999994
s(lp1824
(g234
I30
tp1825
atp1826
a(S'delovanju'
p1827
(dp1828
S'NOUN'
p1829
F1.0
s(lp1830
(g249
I32
tp1831
atp1832
a(S'evropske'
p1833
(dp1834
S'ADJ'
p1835
F1.0
s(lp1836
(g280
I35
tp1837
atp1838
a(S'unije'
p1839
(dp1840
S'NOUN'
p1841
F1.0
s(lp1842
(g272
I36
tp1843
atp1844
a(g283
(dp1845
g283
F1.0
s(lp1846
(g283
I37
tp1847
atp1848
asS'es'
p1849
(lp1850
(S'la'
p1851
(dp1852
g86
F4.5e-05
sS'DET'
p1853
F0.999917
sS'NOUN'
p1854
F0.0
sS'PRON'
p1855
F3.8e-05
s(lp1856
(g9
I0
tp1857
atp1858
a(S'conferencia'
p1859
(dp1860
S'NOUN'
p1861
F1.0
s(lp1862
(g16
I1
tp1863
atp1864
a(S'de'
p1865
(dp1866
g86
F2.9e-05
sS'CONJ'
p1867
F0.000449
sS'ADP'
p1868
F0.999522
s(lp1869
(g24
I2
tp1870
atp1871
a(S'presidentes'
p1872
(dp1873
S'NOUN'
p1874
F1.0
s(lp1875
(g31
I3
tp1876
atp1877
a(S'ha'
p1878
(dp1879
S'VERB'
p1880
F1.0
s(lp1881
(g38
I4
tp1882
atp1883
a(S'aprobado'
p1884
(dp1885
S'VERB'
p1886
F1.0
s(lp1887
(g46
I5
tp1888
atp1889
a(S'la'
p1890
(dp1891
S'PRON'
p1892
F4e-06
sS'DET'
p1893
F0.999994
sg86
F0.0
sS'NOUN'
p1894
F2e-06
s(lp1895
(g34
I6
tp1896
atp1897
a(S'propuesta'
p1898
(dp1899
S'VERB'
p1900
F0.026248
sS'NOUN'
p1901
F0.973752
s(lp1902
(g61
I8
tp1903
atp1904
a(S'de'
p1905
(dp1906
g86
F2.8e-05
sS'CONJ'
p1907
F0.000453
sS'ADP'
p1908
F0.999518
s(lp1909
tp1910
a(S'calendario'
p1911
(dp1912
S'NOUN'
p1913
F1.0
s(lp1914
(g73
I7
tp1915
atp1916
a(S'para'
p1917
(dp1918
S'CONJ'
p1919
F0.003797
sS'ADP'
p1920
F0.996203
s(lp1921
(g81
I9
tp1922
atp1923
a(S'2011'
p1924
(dp1925
g86
F0.058494
sS'NUM'
p1926
F0.941506
s(lp1927
(g89
I10
tp1928
atp1929
a(S'que'
p1930
(dp1931
g86
F4e-06
sS'CONJ'
p1932
F0.999996
s(lp1933
(g352
I11
tp1934
atp1935
a(S'incluye'
p1936
(dp1937
S'VERB'
p1938
F1.0
s(lp1939
(g97
I12
tp1940
atp1941
a(S'un'
p1942
(dp1943
g86
F1e-06
sS'DET'
p1944
F0.999999
s(lp1945
(g34
I13
tp1946
atp1947
a(S'periodo'
p1948
(dp1949
S'NOUN'
p1950
F1.0
s(lp1951
(g112
I15
tp1952
atp1953
a(S'parcial'
p1954
(dp1955
S'ADJ'
p1956
F1.0
s(lp1957
tp1958
a(S'de'
p1959
(dp1960
g86
F3.1e-05
sS'CONJ'
p1961
F0.001485
sS'ADP'
p1962
F0.998485
s(lp1963
tp1964
a(S'sesiones'
p1965
(dp1966
S'NOUN'
p1967
F1.0
s(lp1968
(g124
I14
tp1969
atp1970
a(S'del'
p1971
(dp1972
S'ADP'
p1973
F1.0
s(lp1974
(g131
I16
tp1975
atp1976
a(g134
(dp1977
S'NUM'
p1978
F1.0
s(lp1979
(g134
I17
tp1980
atp1981
a(S'al'
p1982
(dp1983
S'CONJ'
p1984
F0.005545
sS'ADP'
p1985
F0.994455
s(lp1986
(g144
I18
tp1987
atp1988
a(S'10'
p1989
(dp1990
g86
F0.014927
sS'NUM'
p1991
F0.985073
s(lp1992
(g151
I19
tp1993
atp1994
a(S'de'
p1995
(dp1996
g86
F6.2e-05
sS'CONJ'
p1997
F2.4e-05
sS'ADP'
p1998
F0.999914
s(lp1999
(g178
I22
tp2000
atp2001
a(S'marzo'
p2002
(dp2003
S'NOUN'
p2004
F1.0
s(lp2005
(g158
I20
tp2006
atp2007
a(g165
(dp2008
g283
F1.0
s(lp2009
(g165
I21
tp2010
atp2011
a(S'respetando'
p2012
(dp2013
S'VERB'
p2014
F1.0
s(lp2015
(g190
I23
tp2016
atp2017
a(S'de'
p2018
(dp2019
g86
F0.0
sS'CONJ'
p2020
F2.2e-05
sS'ADP'
p2021
F0.999978
s(lp2022
(g427
I24
tp2023
atp2024
a(S'esta'
p2025
(dp2026
S'PRON'
p2027
F1.0
sS'VERB'
p2028
F0.0
s(lp2029
tp2030
a(S'forma'
p2031
(dp2032
S'VERB'
p2033
F0.420698
sS'NOUN'
p2034
F0.579302
s(lp2035
(g178
I22
tp2036
atp2037
a(S'el'
p2038
(dp2039
S'PRON'
p2040
F7e-06
sS'DET'
p2041
F0.999993
s(lp2042
tp2043
a(S'art\xc3\xadculo'
p2044
(dp2045
S'NOUN'
p2046
F1.0
s(lp2047
(g205
I25
tp2048
atp2049
a(S'229'
p2050
(dp2051
g86
F0.885943
sS'NUM'
p2052
F0.114057
s(lp2053
(g212
I26
tp2054
atp2055
a(S'del'
p2056
(dp2057
S'ADP'
p2058
F1.0
s(lp2059
(g219
I27
tp2060
atp2061
a(S'tratado'
p2062
(dp2063
S'VERB'
p2064
F0.785862
sS'NOUN'
p2065
F0.214138
s(lp2066
(g227
I29
tp2067
atp2068
a(S'de'
p2069
(dp2070
g86
F6e-06
sS'CONJ'
p2071
F0.00057
sS'ADP'
p2072
F0.999424
s(lp2073
(g234
I30
tp2074
atp2075
a(S'funcionamiento'
p2076
(dp2077
S'NOUN'
p2078
F1.0
s(lp2079
(g249
I32
tp2080
atp2081
a(S'de'
p2082
(dp2083
g86
F0.0
sS'CONJ'
p2084
F1.7e-05
sS'ADP'
p2085
F0.999983
s(lp2086
(g256
I33
tp2087
atp2088
a(S'la'
p2089
(dp2090
g86
F0.0
sS'PRON'
p2091
F0.0
sS'DET'
p2092
F0.999999
sS'NOUN'
p2093
F0.0
s(lp2094
(g265
I34
tp2095
atp2096
a(S'uni\xc3\xb3n'
p2097
(dp2098
S'NOUN'
p2099
F1.0
s(lp2100
(g272
I36
tp2101
atp2102
a(S'europea'
p2103
(dp2104
S'ADJ'
p2105
F1.0
s(lp2106
(g280
I35
tp2107
atp2108
a(g283
(dp2109
g283
F1.0
s(lp2110
(g283
I37
tp2111
atp2112
as.