(dp0
S'fr'
p1
(lp2
(S'la'
p3
(dp4
S'PRON'
p5
F8.2e-05
sS'DET'
p6
F0.999918
sS'NOUN'
p7
F0.0
s(lp8
(S'the'
p9
I0
tp10
atp11
a(S'commission'
p12
(dp13
S'NOUN'
p14
F1.0
s(lp15
(S'commission'
p16
I1
tp17
atp18
a(S','
p19
(dp20
S'.'
p21
F1.0
s(lp22
(g19
I2
tp23
atp24
a(S'le'
p25
(dp26
S'PRON'
p27
F0.000368
sS'DET'
p28
F0.999632
s(lp29
(S'the'
p30
I3
tp31
atp32
a(S'conseil'
p33
(dp34
S'NOUN'
p35
F1.0
s(lp36
(S'council'
p37
I4
tp38
atp39
a(S'et'
p40
(dp41
S'CONJ'
p42
F1.0
s(lp43
(S'and'
p44
I5
tp45
atp46
a(S'le'
p47
(dp48
S'PRON'
p49
F0.000549
sS'DET'
p50
F0.999451
s(lp51
(S'the'
p52
I6
tp53
atp54
a(S'parlement'
p55
(dp56
S'NOUN'
p57
F1.0
s(lp58
(S'parliament'
p59
I8
tp60
atp61
a(S'europ\xc3\xa9en'
p62
(dp63
S'NOUN'
p64
F0.006274
sS'ADJ'
p65
F0.993726
s(lp66
(S'european'
p67
I7
tp68
atp69
a(S'ont'
p70
(dp71
S'VERB'
p72
F1.0
s(lp73
(S'have'
p74
I9
tp75
atp76
a(S'propos\xc3\xa9'
p77
(dp78
S'VERB'
p79
F1.0
s(lp80
(S'proposed'
p81
I10
tp82
atp83
a(g19
(dp84
g21
F1.0
s(lp85
(g19
I11
tp86
atp87
a(S'examin\xc3\xa9'
p88
(dp89
S'VERB'
p90
F1.0
s(lp91
(S'debated'
p92
I12
tp93
atp94
a(g19
(dp95
g21
F1.0
s(lp96
(g19
I13
tp97
atp98
a(S'n\xc3\xa9goci\xc3\xa9'
p99
(dp100
S'VERB'
p101
F1.0
s(lp102
(S'agreement'
p103
I16
tp104
atp105
a(S'et'
p106
(dp107
S'CONJ'
p108
F1.0
s(lp109
(S'and'
p110
I18
tp111
atp112
a(S'approuv\xc3\xa9'
p113
(dp114
S'VERB'
p115
F0.9583
sS'NOUN'
p116
F0.0417
s(lp117
(S'accepted'
p118
I19
tp119
atp120
a(S'un'
p121
(dp122
S'NOUN'
p123
F4.7e-05
sS'NUM'
p124
F0.065224
sS'DET'
p125
F0.934729
s(lp126
(S'a'
p127
I20
tp128
atp129
a(S'texte'
p130
(dp131
S'NOUN'
p132
F1.0
s(lp133
(S'text'
p134
I21
tp135
atp136
a(S'qui'
p137
(dp138
S'PRON'
p139
F1.0
s(lp140
(S'that'
p141
I22
tp142
atp143
a(S'am\xc3\xa9liore'
p144
(dp145
S'VERB'
p146
F1.0
s(lp147
(S'improves'
p148
I23
tp149
atp150
a(S'la'
p151
(dp152
S'PRON'
p153
F2.6e-05
sS'DET'
p154
F0.999974
sS'NOUN'
p155
F0.0
s(lp156
(S'the'
p157
I24
tp158
atp159
a(S'vie'
p160
(dp161
S'NOUN'
p162
F1.0
s(lp163
(S'lives'
p164
I25
tp165
atp166
a(S'des'
p167
(dp168
S'DET'
p169
F2.1e-05
sS'ADP'
p170
F0.999979
s(lp171
(S'of'
p172
I26
tp173
atp174
a(S'citoyens'
p175
(dp176
S'NOUN'
p177
F1.0
s(lp178
(S'citizens'
p179
I27
tp180
atp181
a(S'et'
p182
(dp183
S'CONJ'
p184
F1.0
s(lp185
(S'and'
p186
I28
tp187
atp188
a(S'des'
p189
(dp190
S'DET'
p191
F0.000607
sS'ADP'
p192
F0.999393
s(lp193
tp194
a(S'entreprises'
p195
(dp196
S'VERB'
p197
F0.003547
sS'NOUN'
p198
F0.996453
s(lp199
(S'businesses'
p200
I29
tp201
atp202
a(g19
(dp203
g21
F1.0
s(lp204
(g19
I30
tp205
atp206
a(S'renforce'
p207
(dp208
S'VERB'
p209
F1.0
s(lp210
(S'promotes'
p211
I31
tp212
atp213
a(S'la'
p214
(dp215
S'PRON'
p216
F2.6e-05
sS'DET'
p217
F0.999974
sS'NOUN'
p218
F0.0
s(lp219
tp220
a(S's\xc3\xa9curit\xc3\xa9'
p221
(dp222
S'NOUN'
p223
F1.0
s(lp224
(S'security'
p225
I33
tp226
atp227
a(S'en'
p228
(dp229
S'PRON'
p230
F0.000406
sS'ADP'
p231
F0.999594
s(lp232
(S'on'
p233
I34
tp234
atp235
a(S'mer'
p236
(dp237
S'NOUN'
p238
F1.0
s(lp239
(S'seas'
p240
I36
tp241
atp242
a(S'et'
p243
(dp244
S'CONJ'
p245
F1.0
s(lp246
(S'and'
p247
I37
tp248
atp249
a(S'dans'
p250
(dp251
S'NOUN'
p252
F2e-05
sS'ADP'
p253
F0.99998
s(lp254
tp255
a(S'les'
p256
(dp257
S'PRON'
p258
F5.6e-05
sS'DET'
p259
F0.999943
sS'ADP'
p260
F2e-06
s(lp261
tp262
a(S'oc\xc3\xa9ans'
p263
(dp264
S'NOUN'
p265
F1.0
s(lp266
(S'oceans'
p267
I38
tp268
atp269
a(S'et'
p270
(dp271
S'CONJ'
p272
F1.0
s(lp273
(S'and'
p274
I39
tp275
atp276
a(S'pr\xc3\xa9pare'
p277
(dp278
S'VERB'
p279
F1.000001
s(lp280
(S'prepares'
p281
I40
tp282
atp283
a(S'notre'
p284
(dp285
S'PRON'
p286
F1.0
s(lp287
(S'our'
p288
I41
tp289
atp290
a(S'avenir'
p291
(dp292
S'NOUN'
p293
F1.0
s(lp294
(S'future'
p295
I42
tp296
atp297
a(g21
(dp298
g21
F1.0
s(lp299
(g21
I43
tp300
atp301
asS'en'
p302
(lp303
(g9
(dp304
S'NOUN'
p305
F5e-06
sS'DET'
p306
F0.999995
s(lp307
(g9
I0
tp308
atp309
a(g16
(dp310
S'VERB'
p311
F8.000000000000001e-06
sS'NOUN'
p312
F0.999992
s(lp313
(g16
I1
tp314
atp315
a(g19
(dp316
g21
F1.0
s(lp317
(g19
I2
tp318
atp319
a(g30
(dp320
S'NOUN'
p321
F4e-06
sS'DET'
p322
F0.999996
s(lp323
(g30
I3
tp324
atp325
a(g37
(dp326
S'NOUN'
p327
F1.0
s(lp328
(g37
I4
tp329
atp330
a(g44
(dp331
S'CONJ'
p332
F1.0
sS'NOUN'
p333
F0.0
s(lp334
(g44
I5
tp335
atp336
a(g52
(dp337
S'NOUN'
p338
F1e-06
sS'DET'
p339
F0.999999
s(lp340
(g52
I6
tp341
atp342
a(g67
(dp343
S'NOUN'
p344
F0.10881199999999999
sS'VERB'
p345
F1.1e-05
sS'ADJ'
p346
F0.891178
s(lp347
(g67
I7
tp348
atp349
a(g59
(dp350
S'NOUN'
p351
F1.0
s(lp352
(g59
I8
tp353
atp354
a(g74
(dp355
S'VERB'
p356
F1.0
s(lp357
(g74
I9
tp358
atp359
a(g81
(dp360
S'VERB'
p361
F0.999984
sS'ADJ'
p362
F1.6e-05
s(lp363
(g81
I10
tp364
atp365
a(g19
(dp366
g21
F1.0
s(lp367
(g19
I11
tp368
atp369
a(g92
(dp370
S'VERB'
p371
F1.0
s(lp372
(g92
I12
tp373
atp374
a(g19
(dp375
g21
F1.0
s(lp376
(g19
I13
tp377
atp378
a(S'come'
p379
(dp380
S'VERB'
p381
F1.0
s(lp382
(g379
I14
tp383
atp384
a(S'to'
p385
(dp386
S'ADV'
p387
F1e-06
sS'PRT'
p388
F0.999995
sS'ADP'
p389
F4e-06
s(lp390
(g385
I15
tp391
atp392
a(g103
(dp393
S'NOUN'
p394
F1.0
s(lp395
(g103
I16
tp396
atp397
a(S'on'
p398
(dp399
S'ADV'
p400
F0.003024
sS'PRT'
p401
F0.011279
sS'ADJ'
p402
F7e-06
sS'NOUN'
p403
F5.3e-05
sS'ADP'
p404
F0.985637
s(lp405
(g398
I17
tp406
atp407
a(g110
(dp408
S'CONJ'
p409
F0.999443
sS'NOUN'
p410
F0.000557
s(lp411
(g110
I18
tp412
atp413
a(g118
(dp414
S'VERB'
p415
F0.990556
sS'ADJ'
p416
F0.009443
s(lp417
(g118
I19
tp418
atp419
a(g127
(dp420
S'NOUN'
p421
F1e-06
sS'DET'
p422
F0.999999
s(lp423
(g127
I20
tp424
atp425
a(g134
(dp426
S'NOUN'
p427
F1.0
s(lp428
(g134
I21
tp429
atp430
a(g141
(dp431
S'ADV'
p432
F0.000345
sS'DET'
p433
F0.999553
sS'ADP'
p434
F0.000102
s(lp435
(g141
I22
tp436
atp437
a(g148
(dp438
S'VERB'
p439
F1.0
s(lp440
(g148
I23
tp441
atp442
a(g157
(dp443
S'NOUN'
p444
F1e-05
sS'DET'
p445
F0.99999
s(lp446
(g157
I24
tp447
atp448
a(g164
(dp449
S'VERB'
p450
F0.012912
sS'NOUN'
p451
F0.987088
s(lp452
(g164
I25
tp453
atp454
a(g172
(dp455
S'ADP'
p456
F1.0
s(lp457
(g172
I26
tp458
atp459
a(g179
(dp460
S'NOUN'
p461
F1.0
s(lp462
(g179
I27
tp463
atp464
a(g186
(dp465
S'CONJ'
p466
F0.999998
sS'NOUN'
p467
F2e-06
s(lp468
(g186
I28
tp469
atp470
a(g200
(dp471
S'NOUN'
p472
F1.0
s(lp473
(g200
I29
tp474
atp475
a(g19
(dp476
g21
F1.0
s(lp477
(g19
I30
tp478
atp479
a(g211
(dp480
S'VERB'
p481
F1.0
s(lp482
(g211
I31
tp483
atp484
a(S'better'
p485
(dp486
S'ADV'
p487
F0.020602
sS'NOUN'
p488
F3.2e-05
sS'VERB'
p489
F0.000144
sS'ADJ'
p490
F0.979222
s(lp491
(g485
I32
tp492
atp493
a(g225
(dp494
S'NOUN'
p495
F1.0
s(lp496
(g225
I33
tp497
atp498
a(g233
(dp499
S'ADV'
p500
F0.000489
sS'PRT'
p501
F0.000523
sS'ADJ'
p502
F0.0
sS'NOUN'
p503
F0.0
sS'ADP'
p504
F0.998988
s(lp505
(g233
I34
tp506
atp507
a(S'the'
p508
(dp509
S'NOUN'
p510
F1.1e-05
sS'DET'
p511
F0.999989
s(lp512
(g508
I35
tp513
atp514
a(g240
(dp515
S'NOUN'
p516
F1.0
s(lp517
(g240
I36
tp518
atp519
a(g247
(dp520
S'CONJ'
p521
F0.999998
sS'NOUN'
p522
F2e-06
s(lp523
(g247
I37
tp524
atp525
a(g267
(dp526
S'NOUN'
p527
F1.0
s(lp528
(g267
I38
tp529
atp530
a(g274
(dp531
S'CONJ'
p532
F0.999999
sS'NOUN'
p533
F1e-06
s(lp534
(g274
I39
tp535
atp536
a(g281
(dp537
S'VERB'
p538
F1.0
s(lp539
(g281
I40
tp540
atp541
a(g288
(dp542
S'PRON'
p543
F1.0
s(lp544
(g288
I41
tp545
atp546
a(g295
(dp547
S'ADJ'
p548
F0.279363
sS'NOUN'
p549
F0.720637
s(lp550
(g295
I42
tp551
atp552
a(g21
(dp553
g21
F1.0
s(lp554
(g21
I43
tp555
atp556
asS'nl'
p557
(lp558
(S'de'
p559
(dp560
S'DET'
p561
F1.0
s(lp562
(g9
I0
tp563
atp564
a(S'commissie'
p565
(dp566
S'NOUN'
p567
F1.0
s(lp568
(g16
I1
tp569
atp570
a(g19
(dp571
g21
F1.0
s(lp572
(g19
I2
tp573
atp574
a(S'de'
p575
(dp576
S'DET'
p577
F1.0
s(lp578
(g30
I3
tp579
atp580
a(S'raad'
p581
(dp582
S'VERB'
p583
F1e-06
sS'NOUN'
p584
F0.999999
s(lp585
(g37
I4
tp586
atp587
a(S'en'
p588
(dp589
S'CONJ'
p590
F1.0
s(lp591
(g44
I5
tp592
atp593
a(S'het'
p594
(dp595
S'PRON'
p596
F0.031394
sS'DET'
p597
F0.968605
s(lp598
(g52
I6
tp599
atp600
a(S'europees'
p601
(dp602
S'NOUN'
p603
F0.046936
sS'ADJ'
p604
F0.953064
s(lp605
(g67
I7
tp606
atp607
a(S'parlement'
p608
(dp609
S'NOUN'
p610
F1.0
s(lp611
(g59
I8
tp612
atp613
a(S'hebben'
p614
(dp615
S'VERB'
p616
F0.999999
sS'NOUN'
p617
F1e-06
s(lp618
(g74
I9
tp619
atp620
a(S'een'
p621
(dp622
S'ADJ'
p623
F6e-06
sS'PRON'
p624
F3.9e-05
sS'NUM'
p625
F0.0
sS'DET'
p626
F0.999955
s(lp627
(g127
I20
tp628
atp629
a(S'tekst'
p630
(dp631
S'NOUN'
p632
F1.0
s(lp633
(g134
I21
tp634
atp635
a(S'voorgesteld'
p636
(dp637
S'VERB'
p638
F1.0
s(lp639
(g81
I10
tp640
atp641
a(g19
(dp642
g21
F1.0
s(lp643
(g19
I11
tp644
atp645
a(S'besproken'
p646
(dp647
S'VERB'
p648
F1.0
s(lp649
tp650
a(g19
(dp651
g21
F1.0
s(lp652
(g19
I13
tp653
atp654
a(S'aangepast'
p655
(dp656
S'VERB'
p657
F0.997523
sS'ADJ'
p658
F0.002477
s(lp659
(g92
I12
tp660
atp661
a(S'en'
p662
(dp663
S'CONJ'
p664
F1.0
s(lp665
(g110
I18
tp666
atp667
a(S'uiteindelijk'
p668
(dp669
S'ADJ'
p670
F1.0
s(lp671
(g379
I14
tp672
atp673
a(S'voor'
p674
(dp675
S'ADV'
p676
F0.002105
sS'CONJ'
p677
F2.6e-05
sS'NOUN'
p678
F0.0
sS'ADP'
p679
F0.997869
s(lp680
tp681
a(S'iedereen'
p682
(dp683
S'PRON'
p684
F1.0
s(lp685
(g118
I19
tp686
atp687
a(S'aanvaardbaar'
p688
(dp689
S'ADJ'
p690
F1.0
s(lp691
tp692
a(S'gemaakt'
p693
(dp694
S'VERB'
p695
F0.999871
sS'ADJ'
p696
F0.000129
s(lp697
(g118
I19
tp698
atp699
a(S'die'
p700
(dp701
S'PRON'
p702
F1.0
s(lp703
(g141
I22
tp704
atp705
a(S'de'
p706
(dp707
S'DET'
p708
F1.0
s(lp709
(g157
I24
tp710
atp711
a(S'levenskwaliteit'
p712
(dp713
S'NOUN'
p714
F1.0
s(lp715
(g164
I25
tp716
atp717
a(S'van'
p718
(dp719
S'ADP'
p720
F1.0
s(lp721
(g172
I26
tp722
atp723
a(S'de'
p724
(dp725
S'DET'
p726
F1.0
s(lp727
tp728
a(S'burgers'
p729
(dp730
S'NOUN'
p731
F1.0
s(lp732
(g179
I27
tp733
atp734
a(S'en'
p735
(dp736
S'CONJ'
p737
F1.0
s(lp738
(g186
I28
tp739
atp740
a(S'de'
p741
(dp742
S'DET'
p743
F1.0
s(lp744
tp745
a(S'bedrijven'
p746
(dp747
S'VERB'
p748
F0.0
sS'NOUN'
p749
F1.0
s(lp750
(g200
I29
tp751
atp752
a(S'verbetert'
p753
(dp754
S'VERB'
p755
F1.0
s(lp756
(g148
I23
tp757
atp758
a(g19
(dp759
g21
F1.0
s(lp760
(g19
I30
tp761
atp762
a(S'de'
p763
(dp764
S'DET'
p765
F1.0
s(lp766
(g485
I32
tp767
atp768
a(S'veiligheid'
p769
(dp770
S'NOUN'
p771
F1.0
s(lp772
(g225
I33
tp773
atp774
a(S'op'
p775
(dp776
S'ADV'
p777
F0.002919
sS'ADJ'
p778
F0.0
sS'ADP'
p779
F0.997081
s(lp780
(g233
I34
tp781
atp782
a(S'onze'
p783
(dp784
S'PRON'
p785
F1.0
s(lp786
(g508
I35
tp787
atp788
a(S'zee\xc3\xabn'
p789
(dp790
S'NOUN'
p791
F1.0
s(lp792
(g240
I36
tp793
atp794
a(S'en'
p795
(dp796
S'CONJ'
p797
F1.0
s(lp798
(g247
I37
tp799
atp800
a(S'oceanen'
p801
(dp802
S'NOUN'
p803
F1.0
s(lp804
tp805
a(S'vergroot'
p806
(dp807
S'VERB'
p808
F0.9288379999999999
sS'ADJ'
p809
F0.071163
s(lp810
(g267
I38
tp811
atp812
a(S'en'
p813
(dp814
S'CONJ'
p815
F1.0
s(lp816
(g274
I39
tp817
atp818
a(S'ons'
p819
(dp820
S'PRON'
p821
F0.999975
sS'NOUN'
p822
F2.5e-05
s(lp823
(g288
I41
tp824
atp825
a(S'de'
p826
(dp827
S'DET'
p828
F1.0
s(lp829
tp830
a(S'weg'
p831
(dp832
S'ADV'
p833
F0.012686
sS'NOUN'
p834
F0.987314
s(lp835
tp836
a(S'naar'
p837
(dp838
S'CONJ'
p839
F0.001785
sS'ADJ'
p840
F0.0
sS'ADP'
p841
F0.998215
s(lp842
(g385
I15
tp843
atp844
a(S'de'
p845
(dp846
S'DET'
p847
F1.0
s(lp848
tp849
a(S'toekomst'
p850
(dp851
S'NOUN'
p852
F1.0
s(lp853
(g295
I42
tp854
atp855
a(S'opent'
p856
(dp857
S'VERB'
p858
F1.0
s(lp859
(g281
I40
tp860
atp861
a(g21
(dp862
g21
F1.0
s(lp863
(g21
I43
tp864
atp865
asS'de'
p866
(lp867
(S'die'
p868
(dp869
S'PRON'
p870
F0.007198
sS'DET'
p871
F0.991087
s(lp872
(g9
I0
tp873
atp874
a(S'kommission'
p875
(dp876
S'ADJ'
p877
F0.133602
sS'NOUN'
p878
F0.817699
s(lp879
(g16
I1
tp880
atp881
a(g19
(dp882
g21
F1.0
s(lp883
(g19
I2
tp884
atp885
a(S'der'
p886
(dp887
S'PRON'
p888
F0.105275
sS'DET'
p889
F0.891155
s(lp890
(g30
I3
tp891
atp892
a(S'rat'
p893
(dp894
S'X'
p895
F0.124211
sS'ADJ'
p896
F0.722422
s(lp897
(g37
I4
tp898
atp899
a(S'und'
p900
(dp901
S'CONJ'
p902
F1.0
s(lp903
(g44
I5
tp904
atp905
a(S'das'
p906
(dp907
S'PRON'
p908
F0.266538
sS'DET'
p909
F0.73131
s(lp910
(g52
I6
tp911
atp912
a(S'europ\xc3\xa4ische'
p913
(dp914
S'ADJ'
p915
F1.0
s(lp916
(g67
I7
tp917
atp918
a(S'parlament'
p919
(dp920
S'ADJ'
p921
F0.004497
sS'NOUN'
p922
F0.992257
s(lp923
(g59
I8
tp924
atp925
a(S'haben'
p926
(dp927
S'VERB'
p928
F0.999563
s(lp929
(g74
I9
tp930
atp931
a(S'einen'
p932
(dp933
S'ADJ'
p934
F0.001825
sS'DET'
p935
F0.997342
s(lp936
(g127
I20
tp937
atp938
a(S'text'
p939
(dp940
S'ADJ'
p941
F0.000283
sS'NOUN'
p942
F0.999603
s(lp943
tp944
a(S'vorgeschlagen'
p945
(dp946
S'VERB'
p947
F0.992118
sS'ADJ'
p948
F0.007882
s(lp949
(g81
I10
tp950
atp951
a(g19
(dp952
g21
F1.0
s(lp953
(g19
I11
tp954
atp955
a(S'\xc3\xbcber'
p956
(dp957
S'PRT'
p958
F3.4e-05
sS'ADP'
p959
F0.999966
s(lp960
(g92
I12
tp961
atp962
a(S'ihn'
p963
(dp964
S'PRON'
p965
F1.0
s(lp966
tp967
a(S'debattiert'
p968
(dp969
S'VERB'
p970
F0.999997
s(lp971
(g92
I12
tp972
atp973
a(g19
(dp974
g21
F1.0
s(lp975
(g19
I13
tp976
atp977
a(S'sind'
p978
(dp979
S'VERB'
p980
F1.0
s(lp981
tp982
a(S'zu'
p983
(dp984
S'ADV'
p985
F0.003043
sS'ADP'
p986
F0.995566
s(lp987
tp988
a(S'einer'
p989
(dp990
S'PRON'
p991
F0.000443
sS'DET'
p992
F0.998757
s(lp993
(g385
I15
tp994
atp995
a(S'einigung'
p996
(dp997
S'ADJ'
p998
F0.000279
sS'NOUN'
p999
F0.999584
s(lp1000
(g103
I16
tp1001
atp1002
a(S'gelangt'
p1003
(dp1004
S'VERB'
p1005
F0.908536
s(lp1006
(g379
I14
tp1007
atp1008
a(S'und'
p1009
(dp1010
S'CONJ'
p1011
F1.0
s(lp1012
(g110
I18
tp1013
atp1014
a(S'haben'
p1015
(dp1016
S'VERB'
p1017
F0.999999
s(lp1018
tp1019
a(S'den'
p1020
(dp1021
S'PRON'
p1022
F0.000337
sS'DET'
p1023
F0.999663
s(lp1024
tp1025
a(S'text'
p1026
(dp1027
S'ADJ'
p1028
F0.000254
sS'NOUN'
p1029
F0.999631
s(lp1030
(g134
I21
tp1031
atp1032
a(S'angenommen'
p1033
(dp1034
S'VERB'
p1035
F0.989389
sS'ADJ'
p1036
F0.010611
s(lp1037
(g118
I19
tp1038
atp1039
a(g19
(dp1040
g21
F1.0
s(lp1041
(g141
I22
tp1042
atp1043
a(S'der'
p1044
(dp1045
S'PRON'
p1046
F0.998252
s(lp1047
tp1048
a(S'das'
p1049
(dp1050
S'PRON'
p1051
F0.995964
sS'DET'
p1052
F0.003321
s(lp1053
(g157
I24
tp1054
atp1055
a(S'leben'
p1056
(dp1057
S'VERB'
p1058
F1.0
s(lp1059
(g164
I25
tp1060
atp1061
a(S'von'
p1062
(dp1063
S'NOUN'
p1064
F0.99585
sS'ADP'
p1065
F0.00415
s(lp1066
(g172
I26
tp1067
atp1068
a(S'b\xc3\xbcrgern'
p1069
(dp1070
S'VERB'
p1071
F1.0
s(lp1072
(g179
I27
tp1073
atp1074
a(S'und'
p1075
(dp1076
S'CONJ'
p1077
F1.0
s(lp1078
(g186
I28
tp1079
atp1080
a(S'unternehmen'
p1081
(dp1082
S'VERB'
p1083
F1.0
s(lp1084
(g200
I29
tp1085
atp1086
a(S'verbessert'
p1087
(dp1088
S'VERB'
p1089
F0.792656
sS'ADJ'
p1090
F0.106324
s(lp1091
(g148
I23
tp1092
atp1093
a(g19
(dp1094
g21
F1.0
s(lp1095
(g19
I30
tp1096
atp1097
a(S'eine'
p1098
(dp1099
S'PRON'
p1100
F0.002838
sS'DET'
p1101
F0.997067
s(lp1102
tp1103
a(S'h\xc3\xb6here'
p1104
(dp1105
S'ADJ'
p1106
F1.0
s(lp1107
(g485
I32
tp1108
atp1109
a(S'sicherheit'
p1110
(dp1111
S'VERB'
p1112
F1.8e-05
sS'NOUN'
p1113
F0.999955
s(lp1114
(g225
I33
tp1115
atp1116
a(S'auf'
p1117
(dp1118
S'PRT'
p1119
F0.000893
sS'ADP'
p1120
F0.999098
s(lp1121
(g233
I34
tp1122
atp1123
a(S'den'
p1124
(dp1125
S'PRON'
p1126
F0.000113
sS'DET'
p1127
F0.999886
s(lp1128
(g508
I35
tp1129
atp1130
a(S'meeren'
p1131
(dp1132
S'NOUN'
p1133
F0.016805
sS'ADJ'
p1134
F0.982369
s(lp1135
(g240
I36
tp1136
atp1137
a(S'und'
p1138
(dp1139
S'CONJ'
p1140
F1.0
s(lp1141
(g247
I37
tp1142
atp1143
a(S'ozeanen'
p1144
(dp1145
S'ADJ'
p1146
F1.0
s(lp1147
(g267
I38
tp1148
atp1149
a(S'f\xc3\xb6rdert'
p1150
(dp1151
S'VERB'
p1152
F1.0
s(lp1153
(g211
I31
tp1154
atp1155
a(S'und'
p1156
(dp1157
S'CONJ'
p1158
F1.0
s(lp1159
(g274
I39
tp1160
atp1161
a(S'unsere'
p1162
(dp1163
S'PRON'
p1164
F1.0
s(lp1165
(g288
I41
tp1166
atp1167
a(S'zukunft'
p1168
(dp1169
S'ADJ'
p1170
F0.210734
sS'NOUN'
p1171
F0.781475
s(lp1172
(g295
I42
tp1173
atp1174
a(S'vorbereitet'
p1175
(dp1176
S'VERB'
p1177
F0.9931920000000001
s(lp1178
(g281
I40
tp1179
atp1180
a(g21
(dp1181
g21
F1.0
s(lp1182
(g21
I43
tp1183
atp1184
asS'it'
p1185
(lp1186
(S'la'
p1187
(dp1188
S'PRON'
p1189
F0.000408
sS'DET'
p1190
F0.999592
s(lp1191
(g9
I0
tp1192
atp1193
a(S'commissione'
p1194
(dp1195
S'NOUN'
p1196
F1.0
s(lp1197
(g16
I1
tp1198
atp1199
a(g19
(dp1200
g21
F1.0
s(lp1201
(g19
I2
tp1202
atp1203
a(S'il'
p1204
(dp1205
S'DET'
p1206
F1.0
s(lp1207
(g30
I3
tp1208
atp1209
a(S'consiglio'
p1210
(dp1211
S'VERB'
p1212
F0.000115
sS'NOUN'
p1213
F0.999885
s(lp1214
(g37
I4
tp1215
atp1216
a(S'e'
p1217
(dp1218
S'CONJ'
p1219
F1.0
s(lp1220
(g44
I5
tp1221
atp1222
a(S'il'
p1223
(dp1224
S'DET'
p1225
F1.0
s(lp1226
(g52
I6
tp1227
atp1228
a(S'parlamento'
p1229
(dp1230
S'VERB'
p1231
F0.000267
sS'NOUN'
p1232
F0.999733
s(lp1233
(g59
I8
tp1234
atp1235
a(S'europeo'
p1236
(dp1237
S'NOUN'
p1238
F0.002419
sS'ADJ'
p1239
F0.997581
s(lp1240
(g67
I7
tp1241
atp1242
a(S'hanno'
p1243
(dp1244
S'VERB'
p1245
F1.0
s(lp1246
(g74
I9
tp1247
atp1248
a(S'proposto'
p1249
(dp1250
S'VERB'
p1251
F1.0
s(lp1252
(g81
I10
tp1253
atp1254
a(g19
(dp1255
g21
F1.0
s(lp1256
(g19
I11
tp1257
atp1258
a(S'discusso'
p1259
(dp1260
S'VERB'
p1261
F0.871215
sS'ADJ'
p1262
F0.128785
s(lp1263
(g92
I12
tp1264
atp1265
a(g19
(dp1266
g21
F1.0
s(lp1267
(g19
I13
tp1268
atp1269
a(S'concordato'
p1270
(dp1271
S'ADJ'
p1272
F0.146241
sS'VERB'
p1273
F0.638025
sS'NOUN'
p1274
F0.215734
s(lp1275
(g103
I16
tp1276
atp1277
a(S'ed'
p1278
(dp1279
S'CONJ'
p1280
F1.0
s(lp1281
(g110
I18
tp1282
atp1283
a(S'accettato'
p1284
(dp1285
S'VERB'
p1286
F1.0
s(lp1287
(g118
I19
tp1288
atp1289
a(S'un'
p1290
(dp1291
S'PRON'
p1292
F0.000196
sS'DEF'
p1293
F0.999804
s(lp1294
(g127
I20
tp1295
atp1296
a(S'testo'
p1297
(dp1298
S'VERB'
p1299
F5e-06
sS'NOUN'
p1300
F0.999995
s(lp1301
(g134
I21
tp1302
atp1303
a(S'che'
p1304
(dp1305
S'PRON'
p1306
F0.947579
sS'CONJ'
p1307
F0.051586
sS'ADJ'
p1308
F0.000835
s(lp1309
(g141
I22
tp1310
atp1311
a(S'migliora'
p1312
(dp1313
S'VERB'
p1314
F1.0
s(lp1315
(g148
I23
tp1316
atp1317
a(S'la'
p1318
(dp1319
S'PRON'
p1320
F1e-06
sS'DET'
p1321
F0.999999
s(lp1322
(g157
I24
tp1323
atp1324
a(S'vita'
p1325
(dp1326
S'NOUN'
p1327
F1.0
s(lp1328
(g164
I25
tp1329
atp1330
a(S'dei'
p1331
(dp1332
S'NOUN'
p1333
F4e-06
sS'DEF'
p1334
F0.001239
sS'ADP'
p1335
F0.998758
s(lp1336
(g172
I26
tp1337
atp1338
a(S'cittadini'
p1339
(dp1340
S'ADJ'
p1341
F0.053185
sS'NOUN'
p1342
F0.946815
s(lp1343
(g179
I27
tp1344
atp1345
a(g1217
(dp1346
S'CONJ'
p1347
F1.0
s(lp1348
(g186
I28
tp1349
atp1350
a(S'delle'
p1351
(dp1352
S'DEF'
p1353
F0.017733
sS'ADP'
p1354
F0.982267
s(lp1355
tp1356
a(S'imprese'
p1357
(dp1358
S'VERB'
p1359
F0.000416
sS'NOUN'
p1360
F0.999584
s(lp1361
(g200
I29
tp1362
atp1363
a(g19
(dp1364
g21
F1.0
s(lp1365
(g19
I30
tp1366
atp1367
a(S'promuove'
p1368
(dp1369
S'VERB'
p1370
F1.0
s(lp1371
(g211
I31
tp1372
atp1373
a(S'una'
p1374
(dp1375
S'PRON'
p1376
F3e-05
sS'DEF'
p1377
F0.99997
s(lp1378
tp1379
a(S'maggiore'
p1380
(dp1381
S'NOUN'
p1382
F0.005002
sS'ADJ'
p1383
F0.994998
s(lp1384
(g485
I32
tp1385
atp1386
a(S'sicurezza'
p1387
(dp1388
S'NOUN'
p1389
F1.0
s(lp1390
(g225
I33
tp1391
atp1392
a(S'nei'
p1393
(dp1394
S'NOUN'
p1395
F2.3e-05
sS'ADP'
p1396
F0.999977
s(lp1397
tp1398
a(S'mari'
p1399
(dp1400
S'NOUN'
p1401
F1.0
s(lp1402
(g240
I36
tp1403
atp1404
a(g1217
(dp1405
S'CONJ'
p1406
F1.0
s(lp1407
(g247
I37
tp1408
atp1409
a(S'negli'
p1410
(dp1411
S'ADP'
p1412
F1.0
s(lp1413
tp1414
a(S'oceani'
p1415
(dp1416
S'NOUN'
p1417
F1.0
s(lp1418
(g267
I38
tp1419
atp1420
a(g1217
(dp1421
S'CONJ'
p1422
F1.0
s(lp1423
(g274
I39
tp1424
atp1425
a(S'pone'
p1426
(dp1427
S'VERB'
p1428
F1.0
s(lp1429
tp1430
a(S'le'
p1431
(dp1432
S'PRON'
p1433
F0.0
sS'DET'
p1434
F1.0
s(lp1435
tp1436
a(S'basi'
p1437
(dp1438
S'VERB'
p1439
F0.000679
sS'NOUN'
p1440
F0.99932
s(lp1441
(g281
I40
tp1442
atp1443
a(S'per'
p1444
(dp1445
S'CONJ'
p1446
F0.052922
sS'ADP'
p1447
F0.947078
s(lp1448
tp1449
a(S'il'
p1450
(dp1451
S'DET'
p1452
F1.0
s(lp1453
tp1454
a(S'nostro'
p1455
(dp1456
S'PRON'
p1457
F1.0
s(lp1458
(g288
I41
tp1459
atp1460
a(S'futuro'
p1461
(dp1462
S'ADJ'
p1463
F0.201539
sS'NOUN'
p1464
F0.798461
s(lp1465
(g295
I42
tp1466
atp1467
a(g21
(dp1468
g21
F1.0
s(lp1469
(g21
I43
tp1470
atp1471
asS'sk'
p1472
(lp1473
(S'komisia'
p1474
(dp1475
S'NOUN'
p1476
F1.0
s(lp1477
(g16
I1
tp1478
atp1479
a(g19
(dp1480
g21
F1.0
s(lp1481
(g19
I2
tp1482
atp1483
a(S'rada'
p1484
(dp1485
S'NOUN'
p1486
F0.343742
sS'ADJ'
p1487
F0.656258
s(lp1488
(g37
I4
tp1489
atp1490
a(g127
(dp1491
g895
F0.000807
sS'CONJ'
p1492
F0.99785
sS'NOUN'
p1493
F0.001054
sS'ADP'
p1494
F0.000277
sS'PRT'
p1495
F1.2e-05
s(lp1496
(g44
I5
tp1497
atp1498
a(S'eur\xc3\xb3psky'
p1499
(dp1500
S'ADJ'
p1501
F1.0
s(lp1502
(g67
I7
tp1503
atp1504
a(S'parlament'
p1505
(dp1506
S'NOUN'
p1507
F1.0
s(lp1508
(g59
I8
tp1509
atp1510
a(S'navrhli'
p1511
(dp1512
S'VERB'
p1513
F1.0
s(lp1514
(g81
I10
tp1515
atp1516
a(g19
(dp1517
g21
F1.0
s(lp1518
(g19
I11
tp1519
atp1520
a(S'prerokovali'
p1521
(dp1522
S'VERB'
p1523
F0.9999990000000001
s(lp1524
(g92
I12
tp1525
atp1526
a(g19
(dp1527
g21
F1.0
s(lp1528
(g19
I13
tp1529
atp1530
a(S'dosiahli'
p1531
(dp1532
S'VERB'
p1533
F1.0
s(lp1534
(g379
I14
tp1535
atp1536
a(S'dohodu'
p1537
(dp1538
S'NOUN'
p1539
F1.0
s(lp1540
(g103
I16
tp1541
atp1542
a(g127
(dp1543
g895
F0.0023380000000000002
sS'CONJ'
p1544
F0.997203
sS'NOUN'
p1545
F8.8e-05
sS'ADP'
p1546
F0.0
sS'PRT'
p1547
F0.000372
s(lp1548
(g110
I18
tp1549
atp1550
a(S'schv\xc3\xa1lili'
p1551
(dp1552
S'VERB'
p1553
F1.0
s(lp1554
(g118
I19
tp1555
atp1556
a(S'text'
p1557
(dp1558
S'NOUN'
p1559
F1.0
s(lp1560
(g134
I21
tp1561
atp1562
a(g19
(dp1563
g21
F1.0
s(lp1564
tp1565
a(S'ktor\xc3\xbd'
p1566
(dp1567
S'PRON'
p1568
F1.0
s(lp1569
(g141
I22
tp1570
atp1571
a(S'zlep\xc5\xa1uje'
p1572
(dp1573
S'VERB'
p1574
F1.0
s(lp1575
(g148
I23
tp1576
atp1577
a(S'\xc5\xbeivoty'
p1578
(dp1579
S'NOUN'
p1580
F1.0
s(lp1581
(g164
I25
tp1582
atp1583
a(S'ob\xc4\x8danov'
p1584
(dp1585
S'NOUN'
p1586
F1.0
s(lp1587
(g179
I27
tp1588
atp1589
a(g127
(dp1590
g895
F0.000697
sS'CONJ'
p1591
F0.998698
sS'NOUN'
p1592
F5.7e-05
sS'ADP'
p1593
F0.000484
sS'PRT'
p1594
F6.4e-05
s(lp1595
(g186
I28
tp1596
atp1597
a(S'podnikov'
p1598
(dp1599
S'NOUN'
p1600
F1.0
s(lp1601
(g200
I29
tp1602
atp1603
a(g19
(dp1604
g21
F1.0
s(lp1605
(g19
I30
tp1606
atp1607
a(S'podporuje'
p1608
(dp1609
S'VERB'
p1610
F1.0
s(lp1611
(g211
I31
tp1612
atp1613
a(S'v\xc3\xa4\xc4\x8d\xc5\xa1iu'
p1614
(dp1615
g895
F0.010885
sS'ADJ'
p1616
F0.989115
s(lp1617
(g485
I32
tp1618
atp1619
a(S'bezpe\xc4\x8dnos\xc5\xa5'
p1620
(dp1621
S'NOUN'
p1622
F1.0
s(lp1623
(g225
I33
tp1624
atp1625
a(S'na'
p1626
(dp1627
g895
F0.00013299999999999998
sS'CONJ'
p1628
F2e-05
sS'ADP'
p1629
F0.999841
sS'PRT'
p1630
F7e-06
s(lp1631
(g233
I34
tp1632
atp1633
a(S'moriach'
p1634
(dp1635
S'NOUN'
p1636
F1.0
s(lp1637
(g240
I36
tp1638
atp1639
a(g127
(dp1640
g895
F0.000697
sS'CONJ'
p1641
F0.998698
sS'NOUN'
p1642
F5.7e-05
sS'ADP'
p1643
F0.000484
sS'PRT'
p1644
F6.4e-05
s(lp1645
(g247
I37
tp1646
atp1647
a(S'oce\xc3\xa1noch'
p1648
(dp1649
S'NOUN'
p1650
F1.0
s(lp1651
(g267
I38
tp1652
atp1653
a(g127
(dp1654
g895
F0.001581
sS'CONJ'
p1655
F0.998013
sS'NOUN'
p1656
F4.2e-05
sS'ADP'
p1657
F0.0
sS'PRT'
p1658
F0.000365
s(lp1659
(g274
I39
tp1660
atp1661
a(S'pripravuje'
p1662
(dp1663
S'VERB'
p1664
F1.0
s(lp1665
(g281
I40
tp1666
atp1667
a(S'na\xc5\xa1u'
p1668
(dp1669
S'PRON'
p1670
F1.0
s(lp1671
(g288
I41
tp1672
atp1673
a(S'bud\xc3\xbacnos\xc5\xa5'
p1674
(dp1675
S'NOUN'
p1676
F1.0
s(lp1677
(g295
I42
tp1678
atp1679
a(g21
(dp1680
g21
F1.0
s(lp1681
(g21
I43
tp1682
atp1683
asS'pl'
p1684
(lp1685
(S'komisja'
p1686
(dp1687
S'NOUN'
p1688
F1.0
s(lp1689
(g16
I1
tp1690
atp1691
a(g19
(dp1692
g895
F0.0
sg21
F1.0
s(lp1693
(g19
I2
tp1694
atp1695
a(S'rada'
p1696
(dp1697
S'ADJ'
p1698
F0.01616
sS'NOUN'
p1699
F0.98384
s(lp1700
(g37
I4
tp1701
atp1702
a(S'i'
p1703
(dp1704
S'PRT'
p1705
F0.004073
sS'CONJ'
p1706
F0.99586
sS'PRON'
p1707
F4.9999999999999996e-06
sS'NOUN'
p1708
F4.2e-05
sg895
F2e-05
s(lp1709
(g44
I5
tp1710
atp1711
a(S'parlament'
p1712
(dp1713
S'NOUN'
p1714
F1.0
s(lp1715
(g59
I8
tp1716
atp1717
a(S'europejski'
p1718
(dp1719
S'ADJ'
p1720
F1.000001
s(lp1721
(g67
I7
tp1722
atp1723
a(S'zaproponowa\xc5\x82y'
p1724
(dp1725
S'VERB'
p1726
F1.0
s(lp1727
(g81
I10
tp1728
atp1729
a(g19
(dp1730
g895
F0.0
sg21
F1.0
s(lp1731
(g19
I11
tp1732
atp1733
a(S'przedyskutowa\xc5\x82y'
p1734
(dp1735
S'VERB'
p1736
F1.0
s(lp1737
(g281
I40
tp1738
atp1739
a(g19
(dp1740
g895
F1e-06
sg21
F0.999999
s(lp1741
(g19
I13
tp1742
atp1743
a(S'uzgodni\xc5\x82y'
p1744
(dp1745
S'VERB'
p1746
F1.0
s(lp1747
(g281
I40
tp1748
atp1749
a(g1703
(dp1750
S'PRT'
p1751
F0.697266
sS'CONJ'
p1752
F0.30264
sS'NOUN'
p1753
F7.8e-05
sg895
F2e-06
sS'PRON'
p1754
F1.4e-05
s(lp1755
(g110
I18
tp1756
atp1757
a(S'przyj\xc4\x99\xc5\x82y'
p1758
(dp1759
S'VERB'
p1760
F1.0000010000000001
s(lp1761
(g118
I19
tp1762
atp1763
a(S'akt'
p1764
(dp1765
S'NOUN'
p1766
F0.9999999999999999
s(lp1767
(g281
I40
tp1768
atp1769
a(S'prawny'
p1770
(dp1771
S'ADJ'
p1772
F1.0
s(lp1773
(g281
I40
tp1774
atp1775
a(g19
(dp1776
g895
F1e-06
sg21
F0.999999
s(lp1777
tp1778
a(S'kt\xc3\xb3ry'
p1779
(dp1780
S'ADJ'
p1781
F0.9999989999999999
s(lp1782
(g134
I21
tp1783
atp1784
a(S'podnosi'
p1785
(dp1786
S'VERB'
p1787
F1.0
s(lp1788
tp1789
a(S'jako\xc5\x9b\xc4\x87'
p1790
(dp1791
S'NOUN'
p1792
F1.0
s(lp1793
(g148
I23
tp1794
atp1795
a(S'\xc5\xbcycia'
p1796
(dp1797
S'VERB'
p1798
F0.231881
sS'NOUN'
p1799
F0.768119
s(lp1800
(g164
I25
tp1801
atp1802
a(S'obywateli'
p1803
(dp1804
S'NOUN'
p1805
F1.0
s(lp1806
(g179
I27
tp1807
atp1808
a(g1703
(dp1809
S'PRT'
p1810
F0.00017
sS'CONJ'
p1811
F0.999775
sS'NOUN'
p1812
F5.3e-05
sg895
F0.0
sS'PRON'
p1813
F1e-06
s(lp1814
(g186
I28
tp1815
atp1816
a(S'funkcjonowania'
p1817
(dp1818
S'VERB'
p1819
F0.963264
sS'NOUN'
p1820
F0.036736
s(lp1821
tp1822
a(S'przedsi\xc4\x99biorstw'
p1823
(dp1824
S'NOUN'
p1825
F1.0
s(lp1826
(g200
I29
tp1827
atp1828
a(g19
(dp1829
g895
F1e-06
sg21
F0.999999
s(lp1830
(g19
I30
tp1831
atp1832
a(S'przyczynia'
p1833
(dp1834
S'VERB'
p1835
F1.0
s(lp1836
(g211
I31
tp1837
atp1838
a(S'si\xc4\x99'
p1839
(dp1840
S'PRT'
p1841
F1.0
s(lp1842
(g379
I14
tp1843
atp1844
a(S'do'
p1845
(dp1846
g895
F0.0
sS'NOUN'
p1847
F0.0
sS'ADP'
p1848
F0.9999990000000001
s(lp1849
(g385
I15
tp1850
atp1851
a(S'wi\xc4\x99kszego'
p1852
(dp1853
S'ADJ'
p1854
F1.0
s(lp1855
(g485
I32
tp1856
atp1857
a(S'bezpiecze\xc5\x84stwa'
p1858
(dp1859
S'NOUN'
p1860
F1.0
s(lp1861
(g225
I33
tp1862
atp1863
a(S'na'
p1864
(dp1865
S'PRT'
p1866
F2e-06
sS'VERB'
p1867
F1e-06
sS'NOUN'
p1868
F0.0
sS'ADP'
p1869
F0.999997
sg895
F0.0
s(lp1870
(g233
I34
tp1871
atp1872
a(S'morzach'
p1873
(dp1874
S'NOUN'
p1875
F1.0
s(lp1876
(g240
I36
tp1877
atp1878
a(g1703
(dp1879
S'PRT'
p1880
F0.002706
sS'CONJ'
p1881
F0.997278
sS'NOUN'
p1882
F3e-06
sg895
F2e-06
sS'PRON'
p1883
F1.1e-05
s(lp1884
(g247
I37
tp1885
atp1886
a(S'oceanach'
p1887
(dp1888
S'NOUN'
p1889
F1.0
s(lp1890
(g267
I38
tp1891
atp1892
a(S'oraz'
p1893
(dp1894
S'CONJ'
p1895
F1.0
s(lp1896
(g274
I39
tp1897
atp1898
a(S'przygotowuje'
p1899
(dp1900
S'VERB'
p1901
F1.0
s(lp1902
(g281
I40
tp1903
atp1904
a(S'nas'
p1905
(dp1906
S'PRON'
p1907
F1.000001
s(lp1908
(g288
I41
tp1909
atp1910
a(S'na'
p1911
(dp1912
S'PRT'
p1913
F7e-06
sS'VERB'
p1914
F4.4e-05
sS'NOUN'
p1915
F1e-06
sS'ADP'
p1916
F0.999945
sg895
F3e-06
s(lp1917
(g398
I17
tp1918
atp1919
a(S'przysz\xc5\x82o\xc5\x9b\xc4\x87'
p1920
(dp1921
S'NOUN'
p1922
F1.0
s(lp1923
(g295
I42
tp1924
atp1925
a(g21
(dp1926
g21
F1.0
s(lp1927
(g21
I43
tp1928
atp1929
asS'sl'
p1930
(lp1931
(S'komisija'
p1932
(dp1933
S'NOUN'
p1934
F1.0
s(lp1935
(g16
I1
tp1936
atp1937
a(g19
(dp1938
g21
F1.0
s(lp1939
(g19
I2
tp1940
atp1941
a(S'svet'
p1942
(dp1943
S'NOUN'
p1944
F1.0
s(lp1945
(g37
I4
tp1946
atp1947
a(S'in'
p1948
(dp1949
S'ADV'
p1950
F7.1e-05
sg895
F8e-05
sS'CONJ'
p1951
F0.999805
sS'NOUN'
p1952
F4.4e-05
s(lp1953
(g44
I5
tp1954
atp1955
a(S'evropski'
p1956
(dp1957
S'ADJ'
p1958
F1.0000010000000001
s(lp1959
(g67
I7
tp1960
atp1961
a(S'parlament'
p1962
(dp1963
S'NOUN'
p1964
F1.0
s(lp1965
(g59
I8
tp1966
atp1967
a(S'so'
p1968
(dp1969
g895
F5.3e-05
sS'VERB'
p1970
F0.999947
s(lp1971
(g74
I9
tp1972
atp1973
a(S'predlagali'
p1974
(dp1975
S'VERB'
p1976
F1.0
s(lp1977
(g81
I10
tp1978
atp1979
a(g19
(dp1980
g21
F1.0
s(lp1981
(g19
I11
tp1982
atp1983
a(S'razpravljali'
p1984
(dp1985
S'VERB'
p1986
F1.0
s(lp1987
(g92
I12
tp1988
atp1989
a(S'in'
p1990
(dp1991
S'ADV'
p1992
F0.003512
sg895
F0.000131
sS'CONJ'
p1993
F0.996339
sS'NOUN'
p1994
F1.8e-05
s(lp1995
(g19
I13
tp1996
atp1997
a(S'dosegli'
p1998
(dp1999
S'VERB'
p2000
F1.0
s(lp2001
(g379
I14
tp2002
atp2003
a(S'sporazum'
p2004
(dp2005
S'NOUN'
p2006
F1.0
s(lp2007
(g103
I16
tp2008
atp2009
a(S'o'
p2010
(dp2011
S'NOUN'
p2012
F0.216283
sS'ADP'
p2013
F0.783717
s(lp2014
(g398
I17
tp2015
atp2016
a(S'in'
p2017
(dp2018
S'ADV'
p2019
F0.051843
sg895
F0.001337
sS'CONJ'
p2020
F0.94624
sS'NOUN'
p2021
F0.000579
s(lp2022
(g110
I18
tp2023
atp2024
a(S'potrdili'
p2025
(dp2026
S'VERB'
p2027
F1.0
s(lp2028
(g118
I19
tp2029
atp2030
a(S'besedilo'
p2031
(dp2032
S'NOUN'
p2033
F1.0
s(lp2034
(g134
I21
tp2035
atp2036
a(g19
(dp2037
g21
F1.0
s(lp2038
tp2039
a(S'ki'
p2040
(dp2041
S'CONJ'
p2042
F1.0
s(lp2043
(g141
I22
tp2044
atp2045
a(S'izbolj\xc5\xa1uje'
p2046
(dp2047
S'VERB'
p2048
F1.0
s(lp2049
(g148
I23
tp2050
atp2051
a(S'\xc5\xbeivljenja'
p2052
(dp2053
S'NOUN'
p2054
F0.9999999999999999
s(lp2055
(g164
I25
tp2056
atp2057
a(S'dr\xc5\xbeavljanov'
p2058
(dp2059
S'NOUN'
p2060
F1.0
s(lp2061
(g179
I27
tp2062
atp2063
a(S'in'
p2064
(dp2065
S'ADV'
p2066
F2e-06
sg895
F5e-06
sS'CONJ'
p2067
F0.999991
sS'NOUN'
p2068
F2e-06
s(lp2069
(g186
I28
tp2070
atp2071
a(S'podjetjem'
p2072
(dp2073
S'NOUN'
p2074
F1.0
s(lp2075
(g200
I29
tp2076
atp2077
a(g19
(dp2078
g21
F1.0
s(lp2079
(g19
I30
tp2080
atp2081
a(S'spodbuja'
p2082
(dp2083
S'VERB'
p2084
F1.0
s(lp2085
(g211
I31
tp2086
atp2087
a(S've\xc4\x8djo'
p2088
(dp2089
S'ADJ'
p2090
F1.0
s(lp2091
(g485
I32
tp2092
atp2093
a(S'varnost'
p2094
(dp2095
S'NOUN'
p2096
F1.0
s(lp2097
(g225
I33
tp2098
atp2099
a(S'na'
p2100
(dp2101
S'ADP'
p2102
F1.0
s(lp2103
(g233
I34
tp2104
atp2105
a(S'morjih'
p2106
(dp2107
S'NOUN'
p2108
F1.0
s(lp2109
(g240
I36
tp2110
atp2111
a(S'in'
p2112
(dp2113
S'ADV'
p2114
F0.000344
sg895
F0.000145
sS'CONJ'
p2115
F0.999494
sS'NOUN'
p2116
F1.8e-05
s(lp2117
(g247
I37
tp2118
atp2119
a(S'oceanih'
p2120
(dp2121
S'NOUN'
p2122
F0.210817
sS'VERB'
p2123
F0.232936
sS'ADJ'
p2124
F0.555263
sg895
F0.000983
s(lp2125
(g267
I38
tp2126
atp2127
a(S'ter'
p2128
(dp2129
S'CONJ'
p2130
F1.0
s(lp2131
(g274
I39
tp2132
atp2133
a(S'oblikuje'
p2134
(dp2135
S'VERB'
p2136
F1.0
s(lp2137
(g281
I40
tp2138
atp2139
a(S'na\xc5\xa1o'
p2140
(dp2141
S'PRON'
p2142
F1.0
s(lp2143
(g288
I41
tp2144
atp2145
a(S'prihodnost'
p2146
(dp2147
S'NOUN'
p2148
F1.0
s(lp2149
(g295
I42
tp2150
atp2151
a(g21
(dp2152
g21
F1.0
s(lp2153
(g21
I43
tp2154
atp2155
asS'es'
p2156
(lp2157
(S'la'
p2158
(dp2159
g895
F4.5e-05
sS'DET'
p2160
F0.999917
sS'NOUN'
p2161
F0.0
sS'PRON'
p2162
F3.8e-05
s(lp2163
(g9
I0
tp2164
atp2165
a(S'comisi\xc3\xb3n'
p2166
(dp2167
S'NOUN'
p2168
F1.0
s(lp2169
(g16
I1
tp2170
atp2171
a(g19
(dp2172
g21
F1.0
s(lp2173
(g19
I2
tp2174
atp2175
a(S'el'
p2176
(dp2177
S'PRON'
p2178
F1e-05
sS'DET'
p2179
F0.99999
s(lp2180
(g30
I3
tp2181
atp2182
a(S'consejo'
p2183
(dp2184
S'NOUN'
p2185
F1.0
s(lp2186
(g37
I4
tp2187
atp2188
a(S'y'
p2189
(dp2190
g895
F0.000396
sS'CONJ'
p2191
F0.999604
s(lp2192
(g44
I5
tp2193
atp2194
a(S'el'
p2195
(dp2196
S'PRON'
p2197
F0.000362
sS'DET'
p2198
F0.999638
s(lp2199
(g52
I6
tp2200
atp2201
a(S'parlamento'
p2202
(dp2203
S'VERB'
p2204
F0.000422
sS'NOUN'
p2205
F0.999578
s(lp2206
(g59
I8
tp2207
atp2208
a(S'europeo'
p2209
(dp2210
S'NOUN'
p2211
F0.000697
sS'ADJ'
p2212
F0.999303
s(lp2213
(g67
I7
tp2214
atp2215
a(S'han'
p2216
(dp2217
S'VERB'
p2218
F1.0
s(lp2219
(g74
I9
tp2220
atp2221
a(S'propuesto'
p2222
(dp2223
S'VERB'
p2224
F1.0
s(lp2225
(g81
I10
tp2226
atp2227
a(g19
(dp2228
g21
F1.0
s(lp2229
(g19
I11
tp2230
atp2231
a(S'debatido'
p2232
(dp2233
S'VERB'
p2234
F1.0
s(lp2235
(g92
I12
tp2236
atp2237
a(g19
(dp2238
g21
F1.0
s(lp2239
(g19
I13
tp2240
atp2241
a(S'acordado'
p2242
(dp2243
S'VERB'
p2244
F0.879076
sS'ADJ'
p2245
F0.120924
s(lp2246
(g103
I16
tp2247
atp2248
a(g2189
(dp2249
g895
F0.001649
sS'CONJ'
p2250
F0.998351
s(lp2251
(g110
I18
tp2252
atp2253
a(S'aceptado'
p2254
(dp2255
S'VERB'
p2256
F1.0
s(lp2257
(g118
I19
tp2258
atp2259
a(S'un'
p2260
(dp2261
g895
F0.0
sS'DET'
p2262
F1.0
s(lp2263
(g127
I20
tp2264
atp2265
a(S'texto'
p2266
(dp2267
S'NOUN'
p2268
F1.0
s(lp2269
(g134
I21
tp2270
atp2271
a(S'que'
p2272
(dp2273
g895
F8e-06
sS'CONJ'
p2274
F0.999992
s(lp2275
(g141
I22
tp2276
atp2277
a(S'mejora'
p2278
(dp2279
S'VERB'
p2280
F0.941986
sS'NOUN'
p2281
F0.058014
s(lp2282
(g148
I23
tp2283
atp2284
a(S'las'
p2285
(dp2286
S'PRON'
p2287
F8e-06
sS'DET'
p2288
F0.999992
s(lp2289
(g157
I24
tp2290
atp2291
a(S'vidas'
p2292
(dp2293
S'NOUN'
p2294
F1.0
s(lp2295
(g164
I25
tp2296
atp2297
a(S'de'
p2298
(dp2299
g895
F0.0
sS'CONJ'
p2300
F1.7e-05
sS'ADP'
p2301
F0.999983
s(lp2302
(g172
I26
tp2303
atp2304
a(S'los'
p2305
(dp2306
S'PRON'
p2307
F0.0
sS'DET'
p2308
F1.0
s(lp2309
tp2310
a(S'ciudadanos'
p2311
(dp2312
S'NOUN'
p2313
F1.0
s(lp2314
(g179
I27
tp2315
atp2316
a(g2189
(dp2317
g895
F0.000396
sS'CONJ'
p2318
F0.999604
s(lp2319
(g186
I28
tp2320
atp2321
a(S'las'
p2322
(dp2323
S'PRON'
p2324
F0.000237
sS'DET'
p2325
F0.999763
s(lp2326
tp2327
a(S'empresas'
p2328
(dp2329
S'NOUN'
p2330
F1.0
s(lp2331
(g200
I29
tp2332
atp2333
a(g19
(dp2334
g21
F1.0
s(lp2335
(g19
I30
tp2336
atp2337
a(S'promueve'
p2338
(dp2339
S'VERB'
p2340
F1.0
s(lp2341
(g211
I31
tp2342
atp2343
a(S'la'
p2344
(dp2345
g895
F0.0
sS'PRON'
p2346
F0.0
sS'DET'
p2347
F1.0
sS'NOUN'
p2348
F0.0
s(lp2349
tp2350
a(S'seguridad'
p2351
(dp2352
S'NOUN'
p2353
F1.0
s(lp2354
(g225
I33
tp2355
atp2356
a(S'en'
p2357
(dp2358
g895
F0.0
sS'CONJ'
p2359
F0.0
sS'ADP'
p2360
F1.0
s(lp2361
(g233
I34
tp2362
atp2363
a(S'los'
p2364
(dp2365
S'PRON'
p2366
F0.0
sS'DET'
p2367
F1.0
s(lp2368
(g508
I35
tp2369
atp2370
a(S'mares'
p2371
(dp2372
S'NOUN'
p2373
F1.0
s(lp2374
(g240
I36
tp2375
atp2376
a(g2189
(dp2377
g895
F0.000396
sS'CONJ'
p2378
F0.999604
s(lp2379
(g247
I37
tp2380
atp2381
a(S'los'
p2382
(dp2383
S'PRON'
p2384
F0.000425
sS'DET'
p2385
F0.999575
s(lp2386
tp2387
a(S'oc\xc3\xa9anos'
p2388
(dp2389
S'NOUN'
p2390
F1.0
s(lp2391
(g267
I38
tp2392
atp2393
a(g2189
(dp2394
g895
F0.001476
sS'CONJ'
p2395
F0.998524
s(lp2396
(g274
I39
tp2397
atp2398
a(S'prepara'
p2399
(dp2400
S'VERB'
p2401
F1.0
s(lp2402
(g281
I40
tp2403
atp2404
a(S'nuestro'
p2405
(dp2406
S'PRON'
p2407
F0.510492
sS'ADJ'
p2408
F0.489508
s(lp2409
(g288
I41
tp2410
atp2411
a(S'futuro'
p2412
(dp2413
S'ADJ'
p2414
F0.429331
sS'NOUN'
p2415
F0.570669
s(lp2416
(g295
I42
tp2417
atp2418
a(g21
(dp2419
g21
F1.0
s(lp2420
(g21
I43
tp2421
atp2422
as.