(dp0
S'fr'
p1
(lp2
(S'comme'
p3
(dp4
S'ADV'
p5
F0.194486
sS'CONJ'
p6
F0.805514
s(lp7
(S'as'
p8
I0
tp9
atp10
a(S'nous'
p11
(dp12
S'PRON'
p13
F1.0
s(lp14
(S'we'
p15
I1
tp16
atp17
a(S'le'
p18
(dp19
S'PRON'
p20
F0.549361
sS'DET'
p21
F0.450639
s(lp22
tp23
a(S'savons'
p24
(dp25
S'VERB'
p26
F0.541876
sS'NOUN'
p27
F0.458124
s(lp28
(S'know'
p29
I2
tp30
atp31
a(S','
p32
(dp33
S'.'
p34
F1.0
s(lp35
(g32
I3
tp36
atp37
a(S"l'"
p38
(dp39
S'ADJ'
p40
F0.13429
sS'VERB'
p41
F0.638201
sS'NOUN'
p42
F0.227509
s(lp43
(S'the'
p44
I4
tp45
atp46
a(S'union'
p47
(dp48
S'NOUN'
p49
F1.0
s(lp50
(S'union'
p51
I6
tp52
atp53
a(S'europ\xc3\xa9enne'
p54
(dp55
S'NOUN'
p56
F0.015092
sS'ADJ'
p57
F0.984908
s(lp58
(S'european'
p59
I5
tp60
atp61
a(S'est'
p62
(dp63
S'VERB'
p64
F0.987667
sS'NOUN'
p65
F0.012333
s(lp66
tp67
a(S'favorable'
p68
(dp69
S'ADJ'
p70
F1.0
s(lp71
(S'supports'
p72
I7
tp73
atp74
a(S'\xc3\xa0'
p75
(dp76
S'ADP'
p77
F1.0
s(lp78
tp79
a(S"l'"
p80
(dp81
S'ADJ'
p82
F0.160704
sS'VERB'
p83
F0.06480800000000002
sS'NOUN'
p84
F0.774488
s(lp85
(S'the'
p86
I8
tp87
atp88
a(S'int\xc3\xa9grit\xc3\xa9'
p89
(dp90
S'NOUN'
p91
F1.0
s(lp92
(S'integrity'
p93
I10
tp94
atp95
a(S'territoriale'
p96
(dp97
S'ADJ'
p98
F1.0
s(lp99
(S'territorial'
p100
I9
tp101
atp102
a(S'de'
p103
(dp104
S'ADP'
p105
F1.0
s(lp106
(S'of'
p107
I11
tp108
atp109
a(S'la'
p110
(dp111
S'PRON'
p112
F0.000247
sS'DET'
p113
F0.999753
sS'NOUN'
p114
F0.0
s(lp115
tp116
a(S'chine'
p117
(dp118
S'VERB'
p119
F0.000326
sS'NOUN'
p120
F0.999673
s(lp121
(S'china'
p122
I12
tp123
atp124
a(g32
(dp125
g34
F1.0
s(lp126
(g32
I13
tp127
atp128
a(S'mais'
p129
(dp130
S'CONJ'
p131
F1.0
s(lp132
(S'but'
p133
I14
tp134
atp135
a(S'elle'
p136
(dp137
S'PRON'
p138
F1.0
s(lp139
(S'it'
p140
I15
tp141
atp142
a(S'recherche'
p143
(dp144
S'VERB'
p145
F0.994403
sS'NOUN'
p146
F0.005598
s(lp147
(S'strives'
p148
I16
tp149
atp150
a(S'une'
p151
(dp152
S'NOUN'
p153
F1.2e-05
sS'NUM'
p154
F0.004108
sS'DET'
p155
F0.99588
s(lp156
tp157
a(S'r\xc3\xa9conciliation'
p158
(dp159
S'NOUN'
p160
F1.0
s(lp161
(S'reconciliation'
p162
I19
tp163
atp164
a(S'pacifique'
p165
(dp166
S'ADJ'
p167
F1.0
s(lp168
(S'peaceful'
p169
I18
tp170
atp171
a(S'entre'
p172
(dp173
S'VERB'
p174
F0.00030599999999999996
sS'ADP'
p175
F0.999693
s(lp176
(S'between'
p177
I20
tp178
atp179
a(S'les'
p180
(dp181
S'PRON'
p182
F5.6e-05
sS'DET'
p183
F0.999943
sS'ADP'
p184
F2e-06
s(lp185
(S'the'
p186
I21
tp187
atp188
a(S'autorit\xc3\xa9s'
p189
(dp190
S'NOUN'
p191
F1.0
s(lp192
(S'authorities'
p193
I23
tp194
atp195
a(S'chinoises'
p196
(dp197
S'NOUN'
p198
F0.016774
sS'VERB'
p199
F0.001715
sS'ADJ'
p200
F0.981512
s(lp201
(S'chinese'
p202
I22
tp203
atp204
a(S'et'
p205
(dp206
S'CONJ'
p207
F1.0
s(lp208
(S'and'
p209
I24
tp210
atp211
a(S'le'
p212
(dp213
S'PRON'
p214
F0.000549
sS'DET'
p215
F0.999451
s(lp216
(S'the'
p217
I25
tp218
atp219
a(S'chef'
p220
(dp221
S'NOUN'
p222
F1.0
s(lp223
(S'leader'
p224
I28
tp225
atp226
a(S'religieux'
p227
(dp228
S'NOUN'
p229
F0.089227
sS'ADJ'
p230
F0.910773
s(lp231
(S'religious'
p232
I27
tp233
atp234
a(S'tib\xc3\xa9tain'
p235
(dp236
S'ADJ'
p237
F0.382388
sS'NOUN'
p238
F0.617612
s(lp239
(S'tibetan'
p240
I26
tp241
atp242
a(g32
(dp243
g34
F1.0
s(lp244
(g32
I29
tp245
atp246
a(S'le'
p247
(dp248
S'PRON'
p249
F0.000368
sS'DET'
p250
F0.999632
s(lp251
(S'the'
p252
I30
tp253
atp254
a(S'dala\xc3\xaf-lama'
p255
(dp256
S'NOUN'
p257
F1.0
s(lp258
(S'dalai'
p259
I31
tp260
atp261
a(g32
(dp262
g34
F1.0
s(lp263
(g32
I33
tp264
atp265
a(S'et'
p266
(dp267
S'CONJ'
p268
F1.0
s(lp269
(S'and'
p270
I34
tp271
atp272
a(S'ses'
p273
(dp274
S'PRON'
p275
F1.0
s(lp276
(S'his'
p277
I35
tp278
atp279
a(S'repr\xc3\xa9sentants'
p280
(dp281
S'NOUN'
p282
F1.0
s(lp283
(S'representatives'
p284
I36
tp285
atp286
a(g34
(dp287
g34
F1.0
s(lp288
(g34
I37
tp289
atp290
asS'en'
p291
(lp292
(g8
(dp293
S'ADV'
p294
F0.189304
sS'ADP'
p295
F0.810696
s(lp296
(g8
I0
tp297
atp298
a(g15
(dp299
S'PRON'
p300
F1.0
s(lp301
(g15
I1
tp302
atp303
a(g29
(dp304
S'VERB'
p305
F1.0
s(lp306
(g29
I2
tp307
atp308
a(g32
(dp309
g34
F1.0
s(lp310
(g32
I3
tp311
atp312
a(g44
(dp313
S'NOUN'
p314
F2e-06
sS'DET'
p315
F0.999998
s(lp316
(g44
I4
tp317
atp318
a(g59
(dp319
S'NOUN'
p320
F0.10881199999999999
sS'VERB'
p321
F1.1e-05
sS'ADJ'
p322
F0.891177
s(lp323
(g59
I5
tp324
atp325
a(g51
(dp326
S'NOUN'
p327
F1.0
s(lp328
(g51
I6
tp329
atp330
a(g72
(dp331
S'VERB'
p332
F0.980421
sS'NOUN'
p333
F0.019579
s(lp334
(g72
I7
tp335
atp336
a(g86
(dp337
S'NOUN'
p338
F1e-06
sS'DET'
p339
F0.999999
s(lp340
(g86
I8
tp341
atp342
a(g100
(dp343
S'ADJ'
p344
F1.0
s(lp345
(g100
I9
tp346
atp347
a(g93
(dp348
S'NOUN'
p349
F1.0
s(lp350
(g93
I10
tp351
atp352
a(g107
(dp353
S'ADP'
p354
F1.0
s(lp355
(g107
I11
tp356
atp357
a(g122
(dp358
S'NOUN'
p359
F1.0
s(lp360
(g122
I12
tp361
atp362
a(g32
(dp363
g34
F1.0
s(lp364
(g32
I13
tp365
atp366
a(g133
(dp367
S'ADV'
p368
F0.017059
sS'CONJ'
p369
F0.98294
sS'NOUN'
p370
F1e-06
s(lp371
(g133
I14
tp372
atp373
a(g140
(dp374
S'PRON'
p375
F1.0
s(lp376
(g140
I15
tp377
atp378
a(g148
(dp379
S'VERB'
p380
F1.0
s(lp381
(g148
I16
tp382
atp383
a(S'for'
p384
(dp385
S'ADP'
p386
F1.0
s(lp387
(g384
I17
tp388
atp389
a(g169
(dp390
S'ADJ'
p391
F1.0
s(lp392
(g169
I18
tp393
atp394
a(g162
(dp395
S'NOUN'
p396
F1.0
s(lp397
(g162
I19
tp398
atp399
a(g177
(dp400
S'ADV'
p401
F0.000132
sS'ADP'
p402
F0.999868
s(lp403
(g177
I20
tp404
atp405
a(g186
(dp406
S'NOUN'
p407
F1e-06
sS'DET'
p408
F0.999999
s(lp409
(g186
I21
tp410
atp411
a(g202
(dp412
S'NOUN'
p413
F0.296122
sS'ADJ'
p414
F0.703878
s(lp415
(g202
I22
tp416
atp417
a(g193
(dp418
S'NOUN'
p419
F1.0
s(lp420
(g193
I23
tp421
atp422
a(g209
(dp423
S'CONJ'
p424
F1.0
sS'NOUN'
p425
F0.0
s(lp426
(g209
I24
tp427
atp428
a(g217
(dp429
S'NOUN'
p430
F1e-06
sS'DET'
p431
F0.999999
s(lp432
(g217
I25
tp433
atp434
a(g240
(dp435
S'NOUN'
p436
F0.329175
sS'ADJ'
p437
F0.670825
s(lp438
(g240
I26
tp439
atp440
a(g232
(dp441
S'NOUN'
p442
F0.049016
sS'ADJ'
p443
F0.950984
s(lp444
(g232
I27
tp445
atp446
a(g224
(dp447
S'NOUN'
p448
F1.0
s(lp449
(g224
I28
tp450
atp451
a(g32
(dp452
g34
F1.0
s(lp453
(g32
I29
tp454
atp455
a(g252
(dp456
S'NOUN'
p457
F2.2e-05
sS'DET'
p458
F0.999978
s(lp459
(g252
I30
tp460
atp461
a(g259
(dp462
S'ADV'
p463
F6.7e-05
sS'ADJ'
p464
F0.038923
sS'VERB'
p465
F0.001204
sS'NOUN'
p466
F0.959806
s(lp467
(g259
I31
tp468
atp469
a(S'lama'
p470
(dp471
S'NOUN'
p472
F1.0
s(lp473
(g470
I32
tp474
atp475
a(g32
(dp476
g34
F1.0
s(lp477
(g32
I33
tp478
atp479
a(g270
(dp480
S'CONJ'
p481
F0.999998
sS'NOUN'
p482
F2e-06
s(lp483
(g270
I34
tp484
atp485
a(g277
(dp486
S'PRON'
p487
F1.0
s(lp488
(g277
I35
tp489
atp490
a(g284
(dp491
S'NOUN'
p492
F1.0
s(lp493
(g284
I36
tp494
atp495
a(g34
(dp496
g34
F1.0
s(lp497
(g34
I37
tp498
atp499
asS'nl'
p500
(lp501
(S'zoals'
p502
(dp503
S'CONJ'
p504
F1.0
s(lp505
(g8
I0
tp506
atp507
a(S'we'
p508
(dp509
S'PRON'
p510
F1.0
s(lp511
(g15
I1
tp512
atp513
a(S'weten'
p514
(dp515
S'VERB'
p516
F0.714758
sS'NOUN'
p517
F0.285242
s(lp518
(g29
I2
tp519
atp520
a(g32
(dp521
g34
F1.0
s(lp522
(g32
I3
tp523
atp524
a(S'steunt'
p525
(dp526
S'VERB'
p527
F1.0
s(lp528
(g72
I7
tp529
atp530
a(S'de'
p531
(dp532
S'DET'
p533
F1.0
s(lp534
(g44
I4
tp535
atp536
a(S'europese'
p537
(dp538
S'NOUN'
p539
F1.0
s(lp540
(g59
I5
tp541
atp542
a(S'unie'
p543
(dp544
S'NOUN'
p545
F1.0
s(lp546
(g51
I6
tp547
atp548
a(S'de'
p549
(dp550
S'DET'
p551
F1.0
s(lp552
(g86
I8
tp553
atp554
a(S'territoriale'
p555
(dp556
S'NOUN'
p557
F0.006177
sS'ADJ'
p558
F0.993823
s(lp559
(g100
I9
tp560
atp561
a(S'integriteit'
p562
(dp563
S'NOUN'
p564
F1.0
s(lp565
(g93
I10
tp566
atp567
a(S'van'
p568
(dp569
S'ADP'
p570
F1.0
s(lp571
(g107
I11
tp572
atp573
a(S'china'
p574
(dp575
S'ADJ'
p576
F7.9e-05
sS'NOUN'
p577
F0.9999210000000001
s(lp578
(g122
I12
tp579
atp580
a(g32
(dp581
g34
F1.0
s(lp582
(g32
I13
tp583
atp584
a(S'maar'
p585
(dp586
S'ADV'
p587
F0.14007
sS'CONJ'
p588
F0.859872
sS'NOUN'
p589
F5.8e-05
s(lp590
(g133
I14
tp591
atp592
a(S'streeft'
p593
(dp594
S'VERB'
p595
F1.0
s(lp596
tp597
a(S'zij'
p598
(dp599
S'PRON'
p600
F0.999999
sS'VERB'
p601
F0.0
sS'NOUN'
p602
F1e-06
s(lp603
(g140
I15
tp604
atp605
a(S'naar'
p606
(dp607
S'CONJ'
p608
F0.000524
sS'ADJ'
p609
F0.000265
sS'ADP'
p610
F0.999211
s(lp611
(g148
I16
tp612
atp613
a(S'vrede'
p614
(dp615
S'NOUN'
p616
F1.0
s(lp617
(g169
I18
tp618
atp619
a(S'en'
p620
(dp621
S'CONJ'
p622
F1.0
s(lp623
tp624
a(S'verzoening'
p625
(dp626
S'NOUN'
p627
F1.0
s(lp628
(g162
I19
tp629
atp630
a(S'tussen'
p631
(dp632
S'ADP'
p633
F1.0
s(lp634
(g177
I20
tp635
atp636
a(S'de'
p637
(dp638
S'DET'
p639
F1.0
s(lp640
(g186
I21
tp641
atp642
a(S'chinese'
p643
(dp644
S'NOUN'
p645
F0.020985
sS'ADJ'
p646
F0.979015
s(lp647
(g202
I22
tp648
atp649
a(S'autoriteiten'
p650
(dp651
S'NOUN'
p652
F1.0
s(lp653
(g193
I23
tp654
atp655
a(S'en'
p656
(dp657
S'CONJ'
p658
F1.0
s(lp659
(g209
I24
tp660
atp661
a(S'de'
p662
(dp663
S'DET'
p664
F1.0
s(lp665
(g217
I25
tp666
atp667
a(S'tibetaanse'
p668
(dp669
S'ADJ'
p670
F0.241096
sS'NOUN'
p671
F0.758904
s(lp672
(g240
I26
tp673
atp674
a(S'religieuze'
p675
(dp676
S'NOUN'
p677
F0.002709
sS'ADJ'
p678
F0.997291
s(lp679
(g232
I27
tp680
atp681
a(S'leider'
p682
(dp683
S'NOUN'
p684
F1.0
s(lp685
(g224
I28
tp686
atp687
a(g32
(dp688
g34
F1.0
s(lp689
(g32
I29
tp690
atp691
a(S'de'
p692
(dp693
S'DET'
p694
F1.0
s(lp695
(g252
I30
tp696
atp697
a(S'dalai'
p698
(dp699
S'NOUN'
p700
F1.0
s(lp701
(g259
I31
tp702
atp703
a(S'lama'
p704
(dp705
S'NOUN'
p706
F1.0
s(lp707
(g470
I32
tp708
atp709
a(g32
(dp710
g34
F1.0
s(lp711
(g32
I33
tp712
atp713
a(S'en'
p714
(dp715
S'CONJ'
p716
F1.0
s(lp717
(g270
I34
tp718
atp719
a(S'zijn'
p720
(dp721
S'PRON'
p722
F0.988309
sS'VERB'
p723
F0.011689
sS'NOUN'
p724
F1e-06
s(lp725
(g277
I35
tp726
atp727
a(S'vertegenwoordigers'
p728
(dp729
S'NOUN'
p730
F1.0
s(lp731
(g284
I36
tp732
atp733
a(g34
(dp734
g34
F1.0
s(lp735
(g34
I37
tp736
atp737
asS'de'
p738
(lp739
(S'bekannterma\xc3\x9fen'
p740
(dp741
S'VERB'
p742
F1.0
s(lp743
(g29
I2
tp744
atp745
a(S'unterst\xc3\xbctzt'
p746
(dp747
S'VERB'
p748
F0.198653
sS'ADJ'
p749
F0.787719
s(lp750
(g72
I7
tp751
atp752
a(S'die'
p753
(dp754
S'PRON'
p755
F0.001203
sS'DET'
p756
F0.998658
s(lp757
(g44
I4
tp758
atp759
a(S'europ\xc3\xa4ische'
p760
(dp761
S'ADJ'
p762
F1.0
s(lp763
(g59
I5
tp764
atp765
a(S'union'
p766
(dp767
S'ADJ'
p768
F0.002189
sS'NOUN'
p769
F0.995886
s(lp770
(g51
I6
tp771
atp772
a(S'die'
p773
(dp774
S'PRON'
p775
F0.000282
sS'DET'
p776
F0.999688
s(lp777
(g86
I8
tp778
atp779
a(S'territoriale'
p780
(dp781
S'ADJ'
p782
F1.0
s(lp783
(g100
I9
tp784
atp785
a(S'integrit\xc3\xa4t'
p786
(dp787
S'ADJ'
p788
F0.15723
sS'NOUN'
p789
F0.841377
s(lp790
(g93
I10
tp791
atp792
a(S'chinas'
p793
(dp794
S'ADJ'
p795
F0.140567
sS'NOUN'
p796
F0.673835
s(lp797
(g122
I12
tp798
atp799
a(g32
(dp800
g34
F1.0
s(lp801
(g32
I13
tp802
atp803
a(S'bem\xc3\xbcht'
p804
(dp805
S'VERB'
p806
F0.990356
sS'ADJ'
p807
F0.00801
s(lp808
tp809
a(S'sich'
p810
(dp811
S'PRON'
p812
F1.0
s(lp813
(g148
I16
tp814
atp815
a(S'aber'
p816
(dp817
S'ADV'
p818
F0.94967
sS'CONJ'
p819
F0.05033
s(lp820
(g133
I14
tp821
atp822
a(S'um'
p823
(dp824
S'CONJ'
p825
F0.003604
sS'ADP'
p826
F0.995753
s(lp827
(g384
I17
tp828
atp829
a(S'die'
p830
(dp831
S'PRON'
p832
F0.000226
sS'DET'
p833
F0.999753
s(lp834
(g140
I15
tp835
atp836
a(S'friedliche'
p837
(dp838
S'ADJ'
p839
F1.0
s(lp840
(g169
I18
tp841
atp842
a(S'auss\xc3\xb6hnung'
p843
(dp844
S'VERB'
p845
F3.9e-05
sS'NOUN'
p846
F0.999944
s(lp847
(g162
I19
tp848
atp849
a(S'des'
p850
(dp851
S'DET'
p852
F1.0
s(lp853
(g186
I21
tp854
atp855
a(S'chinesischen'
p856
(dp857
S'ADJ'
p858
F1.0
s(lp859
(g202
I22
tp860
atp861
a(S'staates'
p862
(dp863
S'X'
p864
F0.133679
sS'NOUN'
p865
F0.827422
s(lp866
(g193
I23
tp867
atp868
a(S'und'
p869
(dp870
S'CONJ'
p871
F1.0
s(lp872
(g209
I24
tp873
atp874
a(S'des'
p875
(dp876
S'DET'
p877
F1.0
s(lp878
(g217
I25
tp879
atp880
a(S'religi\xc3\xb6sen'
p881
(dp882
S'ADJ'
p883
F1.0
s(lp884
(g232
I27
tp885
atp886
a(S'f\xc3\xbchrers'
p887
(dp888
S'VERB'
p889
F3.9e-05
sS'NOUN'
p890
F0.999944
s(lp891
(g224
I28
tp892
atp893
a(S'der'
p894
(dp895
S'PRON'
p896
F0.000101
sS'DET'
p897
F0.999866
s(lp898
tp899
a(S'tibeter'
p900
(dp901
S'ADJ'
p902
F0.154419
sS'NOUN'
p903
F0.815243
s(lp904
(g240
I26
tp905
atp906
a(g32
(dp907
g34
F1.0
s(lp908
(g32
I29
tp909
atp910
a(S'dem'
p911
(dp912
S'PRON'
p913
F0.333788
sS'DET'
p914
F0.662521
s(lp915
(g252
I30
tp916
atp917
a(S'dalai'
p918
(dp919
S'ADJ'
p920
F0.282137
sS'NOUN'
p921
F0.705997
s(lp922
(g259
I31
tp923
atp924
a(S'lama'
p925
(dp926
S'NOUN'
p927
F0.995565
s(lp928
(g470
I32
tp929
atp930
a(g32
(dp931
g34
F1.0
s(lp932
(g32
I33
tp933
atp934
a(S'und'
p935
(dp936
S'CONJ'
p937
F1.0
s(lp938
(g270
I34
tp939
atp940
a(S'seinen'
p941
(dp942
S'PRON'
p943
F1.0
s(lp944
(g277
I35
tp945
atp946
a(S'vertretern'
p947
(dp948
S'ADJ'
p949
F0.012842
sS'NOUN'
p950
F0.98154
s(lp951
(g284
I36
tp952
atp953
a(g34
(dp954
g34
F1.0
s(lp955
(g34
I37
tp956
atp957
asS'it'
p958
(lp959
(S'come'
p960
(dp961
S'PRON'
p962
F0.180362
sS'CONJ'
p963
F0.799309
sS'NOUN'
p964
F0.000135
sS'ADP'
p965
F0.020194
s(lp966
(g8
I0
tp967
atp968
a(S'sappiamo'
p969
(dp970
S'VERB'
p971
F1.0
s(lp972
(g29
I2
tp973
atp974
a(g32
(dp975
g34
F1.0
s(lp976
(g32
I3
tp977
atp978
a(S"l'"
p979
(dp980
S'NOUN'
p981
F0.003774
sS'VERB'
p982
F0.984512
sS'ADJ'
p983
F0.011715
s(lp984
(g44
I4
tp985
atp986
a(S'unione'
p987
(dp988
S'NOUN'
p989
F1.0
s(lp990
(g51
I6
tp991
atp992
a(S'europea'
p993
(dp994
S'NOUN'
p995
F0.003863
sS'ADJ'
p996
F0.996137
s(lp997
(g59
I5
tp998
atp999
a(S'sostiene'
p1000
(dp1001
S'VERB'
p1002
F1.0
s(lp1003
(g72
I7
tp1004
atp1005
a(S"l'"
p1006
(dp1007
S'NOUN'
p1008
F0.000971
sS'VERB'
p1009
F0.9832770000000001
sS'ADJ'
p1010
F0.015752
s(lp1011
(g86
I8
tp1012
atp1013
a(S'integrit\xc3\xa0'
p1014
(dp1015
S'NOUN'
p1016
F1.0
s(lp1017
(g93
I10
tp1018
atp1019
a(S'territoriale'
p1020
(dp1021
S'ADJ'
p1022
F1.0
s(lp1023
(g100
I9
tp1024
atp1025
a(S'della'
p1026
(dp1027
S'DEF'
p1028
F0.002722
sS'ADP'
p1029
F0.997278
s(lp1030
(g107
I11
tp1031
atp1032
a(S'cina'
p1033
(dp1034
S'ADJ'
p1035
F0.000628
sS'VERB'
p1036
F8.5e-05
sS'NOUN'
p1037
F0.999287
s(lp1038
(g122
I12
tp1039
atp1040
a(g32
(dp1041
g34
F1.0
s(lp1042
(g32
I13
tp1043
atp1044
a(S'ma'
p1045
(dp1046
S'CONJ'
p1047
F0.999972
sS'NOUN'
p1048
F2.8e-05
s(lp1049
(g133
I14
tp1050
atp1051
a(S'si'
p1052
(dp1053
S'PRON'
p1054
F0.9999990000000001
sS'NOUN'
p1055
F1e-06
s(lp1056
(g140
I15
tp1057
atp1058
a(S'batte'
p1059
(dp1060
S'VERB'
p1061
F1.0
s(lp1062
(g148
I16
tp1063
atp1064
a(S'per'
p1065
(dp1066
S'CONJ'
p1067
F0.021363
sS'ADP'
p1068
F0.978637
s(lp1069
(g384
I17
tp1070
atp1071
a(S'la'
p1072
(dp1073
S'PRON'
p1074
F0.000204
sS'DET'
p1075
F0.999796
s(lp1076
tp1077
a(S'riconciliazione'
p1078
(dp1079
S'NOUN'
p1080
F1.0
s(lp1081
(g162
I19
tp1082
atp1083
a(S'pacifica'
p1084
(dp1085
S'NOUN'
p1086
F0.017807
sS'VERB'
p1087
F0.008243
sS'ADJ'
p1088
F0.97395
s(lp1089
(g169
I18
tp1090
atp1091
a(S'tra'
p1092
(dp1093
S'CONJ'
p1094
F0.001807
sS'ADP'
p1095
F0.998193
s(lp1096
(g177
I20
tp1097
atp1098
a(S'le'
p1099
(dp1100
S'PRON'
p1101
F7.2e-05
sS'DET'
p1102
F0.999928
s(lp1103
tp1104
a(S'autorit\xc3\xa0'
p1105
(dp1106
S'NOUN'
p1107
F1.0
s(lp1108
(g193
I23
tp1109
atp1110
a(S'cinesi'
p1111
(dp1112
S'NOUN'
p1113
F0.036354
sS'ADJ'
p1114
F0.963646
s(lp1115
(g202
I22
tp1116
atp1117
a(S'e'
p1118
(dp1119
S'CONJ'
p1120
F1.0
s(lp1121
(g209
I24
tp1122
atp1123
a(S'il'
p1124
(dp1125
S'DET'
p1126
F1.0
s(lp1127
(g217
I25
tp1128
atp1129
a(S'leader'
p1130
(dp1131
S'ADJ'
p1132
F0.028436
sS'NOUN'
p1133
F0.971564
s(lp1134
(g224
I28
tp1135
atp1136
a(S'religioso'
p1137
(dp1138
S'NOUN'
p1139
F0.07869
sS'ADJ'
p1140
F0.92131
s(lp1141
(g232
I27
tp1142
atp1143
a(S'tibetano'
p1144
(dp1145
S'NOUN'
p1146
F0.441402
sS'ADJ'
p1147
F0.558598
s(lp1148
(g240
I26
tp1149
atp1150
a(g32
(dp1151
g34
F1.0
s(lp1152
(g32
I29
tp1153
atp1154
a(S'il'
p1155
(dp1156
S'DET'
p1157
F1.0
s(lp1158
(g252
I30
tp1159
atp1160
a(S'dalai'
p1161
(dp1162
S'ADJ'
p1163
F0.108441
sS'VERB'
p1164
F1.4e-05
sS'NOUN'
p1165
F0.891545
s(lp1166
(g259
I31
tp1167
atp1168
a(S'lama'
p1169
(dp1170
S'NOUN'
p1171
F1.0
s(lp1172
(g470
I32
tp1173
atp1174
a(g32
(dp1175
g34
F1.0
s(lp1176
(g32
I33
tp1177
atp1178
a(g1118
(dp1179
S'CONJ'
p1180
F1.0
s(lp1181
(g270
I34
tp1182
atp1183
a(S'i'
p1184
(dp1185
S'DET'
p1186
F1.0
s(lp1187
tp1188
a(S'suoi'
p1189
(dp1190
S'PRON'
p1191
F0.999996
sS'VERB'
p1192
F4e-06
s(lp1193
(g277
I35
tp1194
atp1195
a(S'rappresentanti'
p1196
(dp1197
S'ADJ'
p1198
F0.026
sS'VERB'
p1199
F2.9e-05
sS'NOUN'
p1200
F0.973971
s(lp1201
(g284
I36
tp1202
atp1203
a(g34
(dp1204
g34
F1.0
s(lp1205
(g34
I37
tp1206
atp1207
asS'sk'
p1208
(lp1209
(S'ako'
p1210
(dp1211
S'PRON'
p1212
F0.244399
sS'CONJ'
p1213
F0.754886
sg864
F0.000715
s(lp1214
(g8
I0
tp1215
atp1216
a(S'vieme'
p1217
(dp1218
S'VERB'
p1219
F1.0
s(lp1220
(g29
I2
tp1221
atp1222
a(g32
(dp1223
g34
F1.0
s(lp1224
(g32
I3
tp1225
atp1226
a(S'eur\xc3\xb3pska'
p1227
(dp1228
S'ADJ'
p1229
F1.0
s(lp1230
(g59
I5
tp1231
atp1232
a(S'\xc3\xbania'
p1233
(dp1234
S'NOUN'
p1235
F1.0
s(lp1236
(g51
I6
tp1237
atp1238
a(S'podporuje'
p1239
(dp1240
S'VERB'
p1241
F1.0
s(lp1242
(g72
I7
tp1243
atp1244
a(S'\xc3\xbazemn\xc3\xba'
p1245
(dp1246
S'ADJ'
p1247
F1.0
s(lp1248
(g100
I9
tp1249
atp1250
a(S'integritu'
p1251
(dp1252
S'NOUN'
p1253
F1.0
s(lp1254
(g93
I10
tp1255
atp1256
a(S'\xc4\x8c\xc3\xadny'
p1257
(dp1258
S'NOUN'
p1259
F1.0
s(lp1260
(g122
I12
tp1261
atp1262
a(g32
(dp1263
g34
F1.0
s(lp1264
(g32
I13
tp1265
atp1266
a(S'av\xc5\xa1ak'
p1267
(dp1268
S'CONJ'
p1269
F1.0
s(lp1270
(g133
I14
tp1271
atp1272
a(S'usiluje'
p1273
(dp1274
S'VERB'
p1275
F1.0
s(lp1276
(g148
I16
tp1277
atp1278
a(S'sa'
p1279
(dp1280
S'PRT'
p1281
F0.999343
sS'ADP'
p1282
F1e-06
sg864
F0.000655
s(lp1283
(g148
I16
tp1284
atp1285
a(S'o'
p1286
(dp1287
g864
F0.000141
sS'CONJ'
p1288
F7e-06
sS'NOUN'
p1289
F6e-06
sS'ADP'
p1290
F0.999846
s(lp1291
tp1292
a(S'mierov\xc3\xa9'
p1293
(dp1294
S'ADJ'
p1295
F1.0
s(lp1296
(g169
I18
tp1297
atp1298
a(S'urovnanie'
p1299
(dp1300
S'NOUN'
p1301
F1.0
s(lp1302
(g162
I19
tp1303
atp1304
a(S'sporu'
p1305
(dp1306
S'NOUN'
p1307
F1.0
s(lp1308
(g148
I16
tp1309
atp1310
a(S'medzi'
p1311
(dp1312
S'NOUN'
p1313
F0.000763
sS'ADP'
p1314
F0.999237
s(lp1315
(g177
I20
tp1316
atp1317
a(S'\xc4\x8d\xc3\xadnskymi'
p1318
(dp1319
S'ADJ'
p1320
F1.0
s(lp1321
(g202
I22
tp1322
atp1323
a(S'\xc3\xbaradmi'
p1324
(dp1325
S'NOUN'
p1326
F1.0
s(lp1327
(g193
I23
tp1328
atp1329
a(S'a'
p1330
(dp1331
g864
F0.0006270000000000001
sS'CONJ'
p1332
F0.998652
sS'NOUN'
p1333
F6.9e-05
sS'ADP'
p1334
F0.000585
sS'PRT'
p1335
F6.7e-05
s(lp1336
(g209
I24
tp1337
atp1338
a(S'tibetsk\xc3\xbdm'
p1339
(dp1340
g864
F9.9e-05
sS'ADJ'
p1341
F0.9999009999999999
s(lp1342
(g240
I26
tp1343
atp1344
a(S'n\xc3\xa1bo\xc5\xbeensk\xc3\xbdm'
p1345
(dp1346
S'ADJ'
p1347
F1.0
s(lp1348
(g232
I27
tp1349
atp1350
a(S'vodcom'
p1351
(dp1352
S'NOUN'
p1353
F1.0
s(lp1354
(g224
I28
tp1355
atp1356
a(g32
(dp1357
g34
F1.0
s(lp1358
(g32
I29
tp1359
atp1360
a(S'dalajl\xc3\xa1mom'
p1361
(dp1362
S'NOUN'
p1363
F1.0
s(lp1364
(g470
I32
tp1365
atp1366
a(g32
(dp1367
g34
F1.0
s(lp1368
(g32
I33
tp1369
atp1370
a(g1330
(dp1371
g864
F0.00016999999999999999
sS'CONJ'
p1372
F0.999808
sS'NOUN'
p1373
F2e-06
sS'ADP'
p1374
F1.5e-05
sS'PRT'
p1375
F4e-06
s(lp1376
(g270
I34
tp1377
atp1378
a(S'jeho'
p1379
(dp1380
S'PRON'
p1381
F0.9999960000000001
sg864
F4e-06
s(lp1382
(g277
I35
tp1383
atp1384
a(S'z\xc3\xa1stupcami'
p1385
(dp1386
S'NOUN'
p1387
F1.0
s(lp1388
(g284
I36
tp1389
atp1390
a(g34
(dp1391
g34
F1.0
s(lp1392
(g34
I37
tp1393
atp1394
asS'pl'
p1395
(lp1396
(S'jak'
p1397
(dp1398
S'ADV'
p1399
F0.946523
sS'PRT'
p1400
F0.005607
sS'CONJ'
p1401
F0.045964000000000005
sS'ADP'
p1402
F0.001887
sS'PRON'
p1403
F1.9e-05
s(lp1404
(g8
I0
tp1405
atp1406
a(S'wiemy'
p1407
(dp1408
S'VERB'
p1409
F1.0
s(lp1410
(g29
I2
tp1411
atp1412
a(g32
(dp1413
g864
F0.0
sg34
F1.0
s(lp1414
(g32
I3
tp1415
atp1416
a(S'unia'
p1417
(dp1418
S'ADV'
p1419
F0.00111
sS'ADJ'
p1420
F0.030381
sS'VERB'
p1421
F0.151062
sS'NOUN'
p1422
F0.817449
s(lp1423
(g51
I6
tp1424
atp1425
a(S'europejska'
p1426
(dp1427
S'ADJ'
p1428
F1.0
s(lp1429
(g59
I5
tp1430
atp1431
a(S'popiera'
p1432
(dp1433
S'VERB'
p1434
F1.0
s(lp1435
(g72
I7
tp1436
atp1437
a(S'terytorialn\xc4\x85'
p1438
(dp1439
S'ADJ'
p1440
F1.0
s(lp1441
(g100
I9
tp1442
atp1443
a(S'integralno\xc5\x9b\xc4\x87'
p1444
(dp1445
S'NOUN'
p1446
F1.0
s(lp1447
(g93
I10
tp1448
atp1449
a(S'chin'
p1450
(dp1451
S'ADV'
p1452
F0.000675
sS'ADJ'
p1453
F0.013605
sS'VERB'
p1454
F0.006095000000000001
sS'NOUN'
p1455
F0.9796279999999999
s(lp1456
(g122
I12
tp1457
atp1458
a(g32
(dp1459
g864
F0.0
sg34
F1.0
s(lp1460
(g32
I13
tp1461
atp1462
a(S'ale'
p1463
(dp1464
S'PRT'
p1465
F0.002369
sS'CONJ'
p1466
F0.997309
sS'NOUN'
p1467
F0.00032199999999999997
s(lp1468
(g133
I14
tp1469
atp1470
a(S'usilnie'
p1471
(dp1472
S'ADV'
p1473
F1.0
s(lp1474
tp1475
a(S'd\xc4\x85\xc5\xbcy'
p1476
(dp1477
S'VERB'
p1478
F1.0
s(lp1479
(g148
I16
tp1480
atp1481
a(S'do'
p1482
(dp1483
g864
F0.0
sS'NOUN'
p1484
F2e-05
sS'ADP'
p1485
F0.99998
s(lp1486
(g384
I17
tp1487
atp1488
a(S'pokojowego'
p1489
(dp1490
S'ADJ'
p1491
F1.0
s(lp1492
(g169
I18
tp1493
atp1494
a(S'pojednania'
p1495
(dp1496
S'VERB'
p1497
F0.159163
sS'NOUN'
p1498
F0.840837
s(lp1499
(g162
I19
tp1500
atp1501
a(S'mi\xc4\x99dzy'
p1502
(dp1503
S'ADP'
p1504
F1.0
s(lp1505
(g177
I20
tp1506
atp1507
a(S'w\xc5\x82adzami'
p1508
(dp1509
S'NOUN'
p1510
F1.0
s(lp1511
(g193
I23
tp1512
atp1513
a(S'chi\xc5\x84skimi'
p1514
(dp1515
S'ADV'
p1516
F0.000111
sS'NOUN'
p1517
F0.002692
sS'VERB'
p1518
F0.000921
sS'ADJ'
p1519
F0.9962739999999997
s(lp1520
(g202
I22
tp1521
atp1522
a(g1184
(dp1523
S'PRT'
p1524
F0.005187
sS'CONJ'
p1525
F0.99479
sS'NOUN'
p1526
F1.1e-05
sg864
F3e-06
sS'PRON'
p1527
F7e-06
s(lp1528
(g209
I24
tp1529
atp1530
a(S'tybeta\xc5\x84skim'
p1531
(dp1532
S'ADV'
p1533
F0.003096
sS'NOUN'
p1534
F0.07692199999999998
sS'VERB'
p1535
F0.0026390000000000003
sS'ADJ'
p1536
F0.9173450000000002
s(lp1537
(g240
I26
tp1538
atp1539
a(S'przyw\xc3\xb3dc\xc4\x85'
p1540
(dp1541
S'NOUN'
p1542
F1.0
s(lp1543
(g224
I28
tp1544
atp1545
a(S'religijnym'
p1546
(dp1547
S'ADJ'
p1548
F1.000001
s(lp1549
(g232
I27
tp1550
atp1551
a(g32
(dp1552
g864
F0.0
sg34
F1.0
s(lp1553
(g32
I29
tp1554
atp1555
a(S'dalajlam\xc4\x85'
p1556
(dp1557
S'ADV'
p1558
F0.002436
sS'ADJ'
p1559
F0.095653
sS'VERB'
p1560
F0.12521600000000002
sS'NOUN'
p1561
F0.776697
s(lp1562
(g259
I31
tp1563
atp1564
a(g1184
(dp1565
S'PRT'
p1566
F0.001482
sS'CONJ'
p1567
F0.998425
sS'NOUN'
p1568
F8.4e-05
sg864
F1e-06
sS'PRON'
p1569
F8e-06
s(lp1570
(g270
I34
tp1571
atp1572
a(S'jego'
p1573
(dp1574
S'PRON'
p1575
F1.0
s(lp1576
(g277
I35
tp1577
atp1578
a(S'przedstawicielami'
p1579
(dp1580
S'NOUN'
p1581
F1.0
s(lp1582
(g284
I36
tp1583
atp1584
a(g34
(dp1585
g34
F1.0
s(lp1586
(g34
I37
tp1587
atp1588
asS'sl'
p1589
(lp1590
(S'kot'
p1591
(dp1592
S'CONJ'
p1593
F0.998973
sS'NOUN'
p1594
F0.001027
s(lp1595
(g8
I0
tp1596
atp1597
a(S'je'
p1598
(dp1599
S'PRON'
p1600
F0.000596
sS'VERB'
p1601
F0.9994040000000001
sg864
F0.0
s(lp1602
tp1603
a(S'znano'
p1604
(dp1605
S'ADV'
p1606
F0.015401
sS'ADJ'
p1607
F0.984599
s(lp1608
(g29
I2
tp1609
atp1610
a(g32
(dp1611
g34
F1.0
s(lp1612
(g32
I3
tp1613
atp1614
a(S'evropska'
p1615
(dp1616
S'ADJ'
p1617
F1.0000010000000001
s(lp1618
(g59
I5
tp1619
atp1620
a(S'unija'
p1621
(dp1622
S'NOUN'
p1623
F1.0
s(lp1624
(g51
I6
tp1625
atp1626
a(S'podpira'
p1627
(dp1628
S'VERB'
p1629
F1.0
s(lp1630
(g72
I7
tp1631
atp1632
a(S'ozemeljsko'
p1633
(dp1634
S'ADV'
p1635
F0.002485
sS'NOUN'
p1636
F0.006297000000000002
sS'VERB'
p1637
F1.6e-05
sS'ADJ'
p1638
F0.991201
s(lp1639
(g100
I9
tp1640
atp1641
a(S'celovitost'
p1642
(dp1643
S'ADJ'
p1644
F5e-05
sS'NOUN'
p1645
F0.999951
s(lp1646
(g93
I10
tp1647
atp1648
a(S'kitajske'
p1649
(dp1650
S'ADJ'
p1651
F1.0
s(lp1652
(g122
I12
tp1653
atp1654
a(g32
(dp1655
g34
F1.0
s(lp1656
(g32
I13
tp1657
atp1658
a(S'zavzema'
p1659
(dp1660
S'VERB'
p1661
F1.0
s(lp1662
(g148
I16
tp1663
atp1664
a(S'pa'
p1665
(dp1666
g864
F7e-06
sS'CONJ'
p1667
F0.999993
s(lp1668
(g133
I14
tp1669
atp1670
a(S'se'
p1671
(dp1672
S'PRON'
p1673
F0.999993
sg864
F7e-06
s(lp1674
(g140
I15
tp1675
atp1676
a(S'za'
p1677
(dp1678
S'ADV'
p1679
F0.000409
sg864
F2e-05
sS'ADP'
p1680
F0.99957
s(lp1681
(g384
I17
tp1682
atp1683
a(S'miroljubno'
p1684
(dp1685
S'ADJ'
p1686
F1.0
s(lp1687
(g169
I18
tp1688
atp1689
a(S'spravo'
p1690
(dp1691
S'NOUN'
p1692
F1.0
s(lp1693
(g162
I19
tp1694
atp1695
a(S'med'
p1696
(dp1697
S'NOUN'
p1698
F9e-06
sS'ADP'
p1699
F0.999991
s(lp1700
(g177
I20
tp1701
atp1702
a(S'kitajskimi'
p1703
(dp1704
S'ADJ'
p1705
F1.0
s(lp1706
(g202
I22
tp1707
atp1708
a(S'oblastmi'
p1709
(dp1710
S'NOUN'
p1711
F1.0
s(lp1712
(g193
I23
tp1713
atp1714
a(S'in'
p1715
(dp1716
S'ADV'
p1717
F2.1e-05
sg864
F7e-06
sS'CONJ'
p1718
F0.999972
sS'NOUN'
p1719
F1e-06
s(lp1720
(g209
I24
tp1721
atp1722
a(S'tibetanskim'
p1723
(dp1724
S'ADV'
p1725
F3.6e-05
sS'NOUN'
p1726
F0.00033399999999999993
sS'VERB'
p1727
F0.000271
sS'ADJ'
p1728
F0.9993570000000002
s(lp1729
(g240
I26
tp1730
atp1731
a(S'verskim'
p1732
(dp1733
S'ADV'
p1734
F0.0
sS'NOUN'
p1735
F7.599999999999999e-05
sS'VERB'
p1736
F0.0
sS'ADJ'
p1737
F0.999923
s(lp1738
(g232
I27
tp1739
atp1740
a(S'voditeljem'
p1741
(dp1742
S'NOUN'
p1743
F1.0
s(lp1744
(g224
I28
tp1745
atp1746
a(S'dalajlamo'
p1747
(dp1748
S'ADV'
p1749
F0.000467
sS'ADJ'
p1750
F0.006863
sS'VERB'
p1751
F0.9554279999999999
sS'NOUN'
p1752
F0.037244
s(lp1753
(g259
I31
tp1754
atp1755
a(S'ter'
p1756
(dp1757
S'CONJ'
p1758
F1.0
s(lp1759
(g270
I34
tp1760
atp1761
a(S'njegovimi'
p1762
(dp1763
S'PRON'
p1764
F0.9999999999999999
s(lp1765
(g277
I35
tp1766
atp1767
a(S'predstavniki'
p1768
(dp1769
S'NOUN'
p1770
F1.0
s(lp1771
(g284
I36
tp1772
atp1773
a(g34
(dp1774
g34
F1.0
s(lp1775
(g34
I37
tp1776
atp1777
asS'es'
p1778
(lp1779
(S'como'
p1780
(dp1781
S'ADV'
p1782
F0.143655
sS'CONJ'
p1783
F0.856345
s(lp1784
(g8
I0
tp1785
atp1786
a(S'sabemos'
p1787
(dp1788
S'VERB'
p1789
F1.0
s(lp1790
(g29
I2
tp1791
atp1792
a(g32
(dp1793
g34
F1.0
s(lp1794
(g32
I3
tp1795
atp1796
a(S'la'
p1797
(dp1798
S'PRON'
p1799
F3.5e-05
sS'DET'
p1800
F0.999959
sS'NOUN'
p1801
F0.0
sg864
F5e-06
s(lp1802
(g44
I4
tp1803
atp1804
a(S'uni\xc3\xb3n'
p1805
(dp1806
S'NOUN'
p1807
F1.0
s(lp1808
(g51
I6
tp1809
atp1810
a(S'europea'
p1811
(dp1812
S'ADJ'
p1813
F1.0
s(lp1814
(g59
I5
tp1815
atp1816
a(S'apoya'
p1817
(dp1818
S'VERB'
p1819
F1.0
s(lp1820
(g72
I7
tp1821
atp1822
a(S'la'
p1823
(dp1824
g864
F0.0
sS'PRON'
p1825
F0.0
sS'DET'
p1826
F1.0
sS'NOUN'
p1827
F0.0
s(lp1828
(g86
I8
tp1829
atp1830
a(S'integridad'
p1831
(dp1832
S'NOUN'
p1833
F1.0
s(lp1834
(g93
I10
tp1835
atp1836
a(S'territorial'
p1837
(dp1838
S'ADJ'
p1839
F1.0
s(lp1840
(g100
I9
tp1841
atp1842
a(S'de'
p1843
(dp1844
g864
F0.000262
sS'CONJ'
p1845
F0.002217
sS'ADP'
p1846
F0.997522
s(lp1847
(g107
I11
tp1848
atp1849
a(S'china'
p1850
(dp1851
S'NOUN'
p1852
F0.449299
sS'VERB'
p1853
F0.003843
sS'ADJ'
p1854
F0.546859
s(lp1855
(g122
I12
tp1856
atp1857
a(g32
(dp1858
g34
F1.0
s(lp1859
(g32
I13
tp1860
atp1861
a(S'si'
p1862
(dp1863
S'CONJ'
p1864
F1.0
s(lp1865
(g133
I14
tp1866
atp1867
a(S'bien'
p1868
(dp1869
S'CONJ'
p1870
F1.0
s(lp1871
(g140
I15
tp1872
atp1873
a(S'desea'
p1874
(dp1875
S'VERB'
p1876
F1.0
s(lp1877
tp1878
a(S'que'
p1879
(dp1880
g864
F0.0
sS'CONJ'
p1881
F1.0
s(lp1882
tp1883
a(S'se'
p1884
(dp1885
S'PRON'
p1886
F0.999999
sS'VERB'
p1887
F0.0
s(lp1888
(g140
I15
tp1889
atp1890
a(S'alcance'
p1891
(dp1892
S'VERB'
p1893
F0.999875
sS'NOUN'
p1894
F0.000125
s(lp1895
(g148
I16
tp1896
atp1897
a(S'una'
p1898
(dp1899
S'DET'
p1900
F1.0
s(lp1901
(g384
I17
tp1902
atp1903
a(S'reconciliaci\xc3\xb3n'
p1904
(dp1905
S'NOUN'
p1906
F1.0
s(lp1907
(g162
I19
tp1908
atp1909
a(S'pac\xc3\xadfica'
p1910
(dp1911
S'ADJ'
p1912
F1.0
s(lp1913
(g169
I18
tp1914
atp1915
a(S'entre'
p1916
(dp1917
g864
F3e-06
sS'ADP'
p1918
F0.999997
s(lp1919
(g177
I20
tp1920
atp1921
a(S'las'
p1922
(dp1923
S'PRON'
p1924
F0.0
sS'DET'
p1925
F1.0
s(lp1926
(g186
I21
tp1927
atp1928
a(S'autoridades'
p1929
(dp1930
S'NOUN'
p1931
F1.0
s(lp1932
(g193
I23
tp1933
atp1934
a(S'chinas'
p1935
(dp1936
S'NOUN'
p1937
F0.010146
sS'VERB'
p1938
F0.005243
sS'ADJ'
p1939
F0.984612
s(lp1940
(g202
I22
tp1941
atp1942
a(S'y'
p1943
(dp1944
g864
F0.000119
sS'CONJ'
p1945
F0.999881
s(lp1946
(g209
I24
tp1947
atp1948
a(S'el'
p1949
(dp1950
S'PRON'
p1951
F2.8e-05
sS'DET'
p1952
F0.999972
s(lp1953
(g217
I25
tp1954
atp1955
a(S'l\xc3\xadder'
p1956
(dp1957
S'NOUN'
p1958
F1.0
s(lp1959
(g224
I28
tp1960
atp1961
a(S'religioso'
p1962
(dp1963
S'NOUN'
p1964
F0.266092
sS'ADJ'
p1965
F0.733908
s(lp1966
(g232
I27
tp1967
atp1968
a(S'tibetano'
p1969
(dp1970
S'NOUN'
p1971
F0.140281
sS'ADJ'
p1972
F0.859719
s(lp1973
(g240
I26
tp1974
atp1975
a(g32
(dp1976
g34
F1.0
s(lp1977
(g32
I29
tp1978
atp1979
a(S'el'
p1980
(dp1981
S'PRON'
p1982
F0.043515
sS'DET'
p1983
F0.956485
s(lp1984
(g252
I30
tp1985
atp1986
a(S'dal\xc3\xa1i'
p1987
(dp1988
S'ADV'
p1989
F0.003127
sS'ADJ'
p1990
F0.154519
sS'VERB'
p1991
F0.07534900000000001
sS'NOUN'
p1992
F0.7670049999999999
s(lp1993
(g470
I32
tp1994
atp1995
a(S'lama'
p1996
(dp1997
S'VERB'
p1998
F0.137047
sS'NOUN'
p1999
F0.862953
s(lp2000
(g259
I31
tp2001
atp2002
a(g1943
(dp2003
g864
F1e-06
sS'CONJ'
p2004
F0.999999
s(lp2005
(g270
I34
tp2006
atp2007
a(S'sus'
p2008
(dp2009
S'PRON'
p2010
F1.0
s(lp2011
(g277
I35
tp2012
atp2013
a(S'representantes'
p2014
(dp2015
S'NOUN'
p2016
F1.0
s(lp2017
(g284
I36
tp2018
atp2019
a(g34
(dp2020
g34
F1.0
s(lp2021
(g34
I37
tp2022
atp2023
as.