(dp0
S'fr'
p1
(lp2
(S'je'
p3
(dp4
S'PRON'
p5
F1.0
s(lp6
(S'i'
p7
I0
tp8
atp9
a(S'ne'
p10
(dp11
S'ADV'
p12
F1.0
s(lp13
tp14
a(S'sais'
p15
(dp16
S'VERB'
p17
F1.0
s(lp18
(S'know'
p19
I3
tp20
atp21
a(S'pas'
p22
(dp23
S'ADV'
p24
F0.9963
sS'NOUN'
p25
F0.0037
s(lp26
(S'not'
p27
I2
tp28
atp29
a(S'si'
p30
(dp31
S'ADV'
p32
F0.246883
sS'CONJ'
p33
F0.7531
sS'NOUN'
p34
F1.7e-05
s(lp35
(S'whether'
p36
I4
tp37
atp38
a(S'ce'
p39
(dp40
S'PRON'
p41
F1.0
s(lp42
(S'this'
p43
I5
tp44
atp45
a(S'sera'
p46
(dp47
S'VERB'
p48
F1.0
s(lp49
(S'will'
p50
I6
tp51
atp52
a(S'la'
p53
(dp54
S'PRON'
p55
F7.4e-05
sS'DET'
p56
F0.999916
sS'NOUN'
p57
F1e-05
s(lp58
(S'the'
p59
I8
tp60
atp61
a(S'derni\xc3\xa8re'
p62
(dp63
S'NOUN'
p64
F0.008417
sS'ADJ'
p65
F0.991583
s(lp66
(S'last'
p67
I9
tp68
atp69
a(S'occasion'
p70
(dp71
S'NOUN'
p72
F1.0
s(lp73
(S'opportunity'
p74
I10
tp75
atp76
a(S'de'
p77
(dp78
S'ADP'
p79
F1.0
s(lp80
(S'on'
p81
I11
tp82
atp83
a(S'vous'
p84
(dp85
S'PRON'
p86
F1.0
s(lp87
tp88
a(S'remercier'
p89
(dp90
S'VERB'
p91
F1.0
s(lp92
(S'thank'
p93
I18
tp94
atp95
a(S'en'
p96
(dp97
S'PRON'
p98
F0.000572
sS'ADP'
p99
F0.999428
s(lp100
(S'the'
p101
I12
tp102
atp103
a(S's\xc3\xa9ance'
p104
(dp105
S'NOUN'
p106
F1.0
s(lp107
tp108
a(S'pl\xc3\xa9ni\xc3\xa8re'
p109
(dp110
S'ADJ'
p111
F1.0
s(lp112
(S'house'
p113
I16
tp114
atp115
a(S'pour'
p116
(dp117
S'CONJ'
p118
F0.258936
sS'ADP'
p119
F0.741064
s(lp120
(S'for'
p121
I20
tp122
atp123
a(S'le'
p124
(dp125
S'PRON'
p126
F0.000188
sS'DET'
p127
F0.999812
s(lp128
(S'the'
p129
I21
tp130
atp131
a(S'travail'
p132
(dp133
S'NOUN'
p134
F1.0
s(lp135
(S'work'
p136
I22
tp137
atp138
a(S'que'
p139
(dp140
S'ADV'
p141
F0.000965
sS'PRON'
p142
F0.44677300000000003
sS'CONJ'
p143
F0.552262
s(lp144
(S'you'
p145
I19
tp146
atp147
a(S'vous'
p148
(dp149
S'PRON'
p150
F1.0
s(lp151
tp152
a(S'avez'
p153
(dp154
S'VERB'
p155
F1.0
s(lp156
(S'you'
p157
I23
tp158
atp159
a(S'effectu\xc3\xa9'
p160
(dp161
S'VERB'
p162
F1.0
s(lp163
(S'done'
p164
I25
tp165
atp166
a(S'en'
p167
(dp168
S'PRON'
p169
F0.039896
sS'ADP'
p170
F0.960104
s(lp171
(S'as'
p172
I26
tp173
atp174
a(S'tant'
p175
(dp176
S'ADV'
p177
F1.0
s(lp178
tp179
a(S'que'
p180
(dp181
S'ADV'
p182
F0.088536
sS'PRON'
p183
F0.044118000000000004
sS'CONJ'
p184
F0.867346
s(lp185
(g172
I26
tp186
atp187
a(S'commissaire'
p188
(dp189
S'NOUN'
p190
F1.0
s(lp191
(S'commissioner'
p192
I27
tp193
atp194
a(S'ces'
p195
(dp196
S'PRON'
p197
F1.0
s(lp198
(S'last'
p199
I30
tp200
atp201
a(S'derni\xc3\xa8res'
p202
(dp203
S'NOUN'
p204
F0.070049
sS'ADJ'
p205
F0.929951
s(lp206
(S'few'
p207
I31
tp208
atp209
a(S'ann\xc3\xa9es'
p210
(dp211
S'NOUN'
p212
F1.0
s(lp213
(S'years'
p214
I32
tp215
atp216
a(S','
p217
(dp218
S'.'
p219
F1.0
s(lp220
(g217
I33
tp221
atp222
a(S'mais'
p223
(dp224
S'CONJ'
p225
F1.0
s(lp226
(S'but'
p227
I34
tp228
atp229
a(S'la'
p230
(dp231
S'PRON'
p232
F0.000103
sS'DET'
p233
F0.999897
sS'NOUN'
p234
F0.0
s(lp235
(S'the'
p236
I35
tp237
atp238
a(S'commission'
p239
(dp240
S'NOUN'
p241
F1.0
s(lp242
(S'commission'
p243
I36
tp244
atp245
a(S'a'
p246
(dp247
S'VERB'
p248
F1.0
s(lp249
(S'has'
p250
I37
tp251
atp252
a(S'vraiment'
p253
(dp254
S'ADV'
p255
F1.0
s(lp256
(S'really'
p257
I38
tp258
atp259
a(S'fait'
p260
(dp261
S'ADJ'
p262
F0.013436
sS'VERB'
p263
F0.9699960000000001
sS'NOUN'
p264
F0.016568
s(lp265
(S'done'
p266
I39
tp267
atp268
a(S'du'
p269
(dp270
S'ADP'
p271
F1.0
s(lp272
(g246
I40
tp273
atp274
a(S'tr\xc3\xa8s'
p275
(dp276
S'ADV'
p277
F1.0
s(lp278
(S'very'
p279
I41
tp280
atp281
a(S'bon'
p282
(dp283
S'ADV'
p284
F0.016584
sS'NOUN'
p285
F7.3e-05
sS'ADJ'
p286
F0.983343
s(lp287
(S'good'
p288
I42
tp289
atp290
a(S'travail'
p291
(dp292
S'NOUN'
p293
F1.0
s(lp294
(S'job'
p295
I43
tp296
atp297
a(S'en'
p298
(dp299
S'PRON'
p300
F0.07269
sS'ADP'
p301
F0.92731
s(lp302
(S'in'
p303
I44
tp304
atp305
a(S'conf\xc3\xa9rant'
p306
(dp307
S'VERB'
p308
F1.0
s(lp309
(S'putting'
p310
I45
tp311
atp312
a(S'\xc3\xa0'
p313
(dp314
S'ADP'
p315
F1.0
s(lp316
(S'in'
p317
I47
tp318
atp319
a(S"l'"
p320
(dp321
S'ADJ'
p322
F0.160704
sS'VERB'
p323
F0.06480800000000002
sS'NOUN'
p324
F0.774488
s(lp325
tp326
a(S'europe'
p327
(dp328
S'VERB'
p329
F0.482394
sS'NOUN'
p330
F0.517606
s(lp331
(S'europe'
p332
I46
tp333
atp334
a(S'un'
p335
(dp336
S'NOUN'
p337
F5.4e-05
sS'NUM'
p338
F0.026121
sS'DET'
p339
F0.973824
s(lp340
(S'the'
p341
I48
tp342
atp343
a(S'r\xc3\xb4le'
p344
(dp345
S'NOUN'
p346
F1.0
s(lp347
tp348
a(S'de'
p349
(dp350
S'ADP'
p351
F1.0
s(lp352
tp353
a(S'meneur'
p354
(dp355
S'NOUN'
p356
F1.0
s(lp357
(S'lead'
p358
I49
tp359
atp360
a(g217
(dp361
g219
F1.0
s(lp362
(g217
I50
tp363
atp364
a(S'et'
p365
(dp366
S'CONJ'
p367
F1.0
s(lp368
(S'and'
p369
I51
tp370
atp371
a(S'votre'
p372
(dp373
S'PRON'
p374
F1.0
s(lp375
(S'your'
p376
I52
tp377
atp378
a(S'travail'
p379
(dp380
S'NOUN'
p381
F1.0
s(lp382
(S'work'
p383
I53
tp384
atp385
a(S'doit'
p386
(dp387
S'VERB'
p388
F0.99993
sS'NOUN'
p389
F7e-05
s(lp390
(S'has'
p391
I54
tp392
atp393
a(S'\xc3\xaatre'
p394
(dp395
S'VERB'
p396
F0.997201
sS'NOUN'
p397
F0.002799
s(lp398
(S'be'
p399
I56
tp400
atp401
a(S'salu\xc3\xa9'
p402
(dp403
S'VERB'
p404
F1.0
s(lp405
(S'commended'
p406
I57
tp407
atp408
a(S'par'
p409
(dp410
S'NOUN'
p411
F0.0
sS'ADP'
p412
F1.0
s(lp413
(S'to'
p414
I58
tp415
atp416
a(S'cette'
p417
(dp418
S'PRON'
p419
F1.0
s(lp420
(S'this'
p421
I59
tp422
atp423
a(S'assembl\xc3\xa9e'
p424
(dp425
S'VERB'
p426
F0.006156
sS'NOUN'
p427
F0.993844
s(lp428
(S'house'
p429
I60
tp430
atp431
a(g219
(dp432
g219
F1.0
s(lp433
(g219
I61
tp434
atp435
asS'en'
p436
(lp437
(g7
(dp438
S'X'
p439
F0.00508
sS'NOUN'
p440
F0.994921
s(lp441
(g7
I0
tp442
atp443
a(S'do'
p444
(dp445
S'VERB'
p446
F0.999916
sS'NOUN'
p447
F8.4e-05
s(lp448
(g444
I1
tp449
atp450
a(g27
(dp451
S'ADV'
p452
F1.0
s(lp453
(g27
I2
tp454
atp455
a(g19
(dp456
S'VERB'
p457
F1.0
s(lp458
(g19
I3
tp459
atp460
a(g36
(dp461
S'CONJ'
p462
F0.004636
sS'ADP'
p463
F0.995364
s(lp464
(g36
I4
tp465
atp466
a(g43
(dp467
S'ADV'
p468
F0.00029
sS'NOUN'
p469
F0.00084
sS'DET'
p470
F0.99887
s(lp471
(g43
I5
tp472
atp473
a(g50
(dp474
S'VERB'
p475
F0.999646
sS'NOUN'
p476
F0.000354
s(lp477
(g50
I6
tp478
atp479
a(S'be'
p480
(dp481
S'VERB'
p482
F1.0
s(lp483
(g480
I7
tp484
atp485
a(g59
(dp486
S'NOUN'
p487
F0.0
sS'DET'
p488
F1.0
s(lp489
(g59
I8
tp490
atp491
a(g67
(dp492
S'ADV'
p493
F6.7e-05
sS'NOUN'
p494
F0.000637
sS'VERB'
p495
F1.7e-05
sS'ADJ'
p496
F0.999279
s(lp497
(g67
I9
tp498
atp499
a(g74
(dp500
S'NOUN'
p501
F1.0
s(lp502
(g74
I10
tp503
atp504
a(g81
(dp505
S'ADV'
p506
F0.000489
sS'PRT'
p507
F0.000523
sS'ADJ'
p508
F0.0
sS'NOUN'
p509
F0.0
sS'ADP'
p510
F0.998988
s(lp511
(g81
I11
tp512
atp513
a(g101
(dp514
S'NOUN'
p515
F1e-06
sS'DET'
p516
F0.999999
s(lp517
(g101
I12
tp518
atp519
a(S'floor'
p520
(dp521
S'VERB'
p522
F8.000000000000001e-06
sS'NOUN'
p523
F0.999992
s(lp524
(g520
I13
tp525
atp526
a(S'of'
p527
(dp528
S'ADP'
p529
F1.0
s(lp530
(g527
I14
tp531
atp532
a(S'the'
p533
(dp534
S'NOUN'
p535
F2e-06
sS'DET'
p536
F0.999998
s(lp537
(g533
I15
tp538
atp539
a(g113
(dp540
S'VERB'
p541
F0.0008060000000000001
sS'NOUN'
p542
F0.999193
s(lp543
(g113
I16
tp544
atp545
a(S'to'
p546
(dp547
S'ADV'
p548
F0.0
sS'PRT'
p549
F1.0
sS'ADP'
p550
F0.0
s(lp551
(g546
I17
tp552
atp553
a(g93
(dp554
S'VERB'
p555
F1.0
s(lp556
(g93
I18
tp557
atp558
a(g145
(dp559
S'PRON'
p560
F1.0
s(lp561
(g145
I19
tp562
atp563
a(g121
(dp564
S'ADP'
p565
F1.0
s(lp566
(g121
I20
tp567
atp568
a(g129
(dp569
S'NOUN'
p570
F6e-06
sS'DET'
p571
F0.999994
s(lp572
(g129
I21
tp573
atp574
a(g136
(dp575
S'VERB'
p576
F0.07233600000000001
sS'NOUN'
p577
F0.927665
s(lp578
(g136
I22
tp579
atp580
a(g157
(dp581
S'PRON'
p582
F1.0
s(lp583
(g157
I23
tp584
atp585
a(S'have'
p586
(dp587
S'VERB'
p588
F1.0
s(lp589
(g586
I24
tp590
atp591
a(g164
(dp592
S'VERB'
p593
F0.999993
sS'ADJ'
p594
F7e-06
s(lp595
(g164
I25
tp596
atp597
a(g172
(dp598
S'ADV'
p599
F0.012039
sS'ADP'
p600
F0.987961
s(lp601
(g172
I26
tp602
atp603
a(g192
(dp604
S'NOUN'
p605
F1.0
s(lp606
(g192
I27
tp607
atp608
a(S'over'
p609
(dp610
S'ADV'
p611
F0.002465
sS'PRT'
p612
F0.004091
sS'NOUN'
p613
F1e-06
sS'ADP'
p614
F0.993443
s(lp615
(g609
I28
tp616
atp617
a(S'the'
p618
(dp619
S'NOUN'
p620
F1e-06
sS'DET'
p621
F0.999999
s(lp622
(g618
I29
tp623
atp624
a(g199
(dp625
S'ADV'
p626
F0.001462
sS'NOUN'
p627
F0.000273
sS'VERB'
p628
F9.099999999999999e-05
sS'ADJ'
p629
F0.998174
s(lp630
(g199
I30
tp631
atp632
a(g207
(dp633
S'ADJ'
p634
F1.0
s(lp635
(g207
I31
tp636
atp637
a(g214
(dp638
S'NOUN'
p639
F1.0
s(lp640
(g214
I32
tp641
atp642
a(g217
(dp643
g219
F1.0
s(lp644
(g217
I33
tp645
atp646
a(g227
(dp647
S'ADV'
p648
F0.001969
sS'CONJ'
p649
F0.998031
sS'NOUN'
p650
F0.0
s(lp651
(g227
I34
tp652
atp653
a(g236
(dp654
S'NOUN'
p655
F2e-06
sS'DET'
p656
F0.999998
s(lp657
(g236
I35
tp658
atp659
a(g243
(dp660
S'VERB'
p661
F2e-06
sS'NOUN'
p662
F0.999998
s(lp663
(g243
I36
tp664
atp665
a(g250
(dp666
S'VERB'
p667
F1.0
s(lp668
(g250
I37
tp669
atp670
a(g257
(dp671
S'ADV'
p672
F1.0
s(lp673
(g257
I38
tp674
atp675
a(g266
(dp676
S'VERB'
p677
F0.999779
sS'ADJ'
p678
F0.000221
s(lp679
(g266
I39
tp680
atp681
a(g246
(dp682
S'NOUN'
p683
F7e-06
sS'DET'
p684
F0.999993
s(lp685
(g246
I40
tp686
atp687
a(g279
(dp688
S'ADV'
p689
F0.667806
sS'ADJ'
p690
F0.332194
s(lp691
(g279
I41
tp692
atp693
a(g288
(dp694
S'ADV'
p695
F0.000603
sS'NOUN'
p696
F0.006304
sS'ADJ'
p697
F0.993093
s(lp698
(g288
I42
tp699
atp700
a(g295
(dp701
S'VERB'
p702
F6e-06
sS'NOUN'
p703
F0.999994
s(lp704
(g295
I43
tp705
atp706
a(g303
(dp707
S'ADV'
p708
F0.000452
sS'PRT'
p709
F0.000192
sS'ADP'
p710
F0.999356
s(lp711
(g303
I44
tp712
atp713
a(g310
(dp714
S'VERB'
p715
F1.0
s(lp716
(g310
I45
tp717
atp718
a(g332
(dp719
S'ADV'
p720
F0.003637
sS'ADJ'
p721
F0.013277
sS'VERB'
p722
F3.5e-05
sS'NOUN'
p723
F0.983051
s(lp724
(g332
I46
tp725
atp726
a(g317
(dp727
S'ADV'
p728
F0.0002
sS'PRT'
p729
F0.000277
sS'ADP'
p730
F0.999524
s(lp731
(g317
I47
tp732
atp733
a(g341
(dp734
S'NOUN'
p735
F2e-06
sS'DET'
p736
F0.999998
s(lp737
(g341
I48
tp738
atp739
a(g358
(dp740
S'ADJ'
p741
F0.079575
sS'VERB'
p742
F0.0052049999999999996
sS'NOUN'
p743
F0.91522
s(lp744
(g358
I49
tp745
atp746
a(g217
(dp747
g219
F1.0
s(lp748
(g217
I50
tp749
atp750
a(g369
(dp751
S'CONJ'
p752
F0.999998
sS'NOUN'
p753
F2e-06
s(lp754
(g369
I51
tp755
atp756
a(g376
(dp757
S'PRON'
p758
F1.0
s(lp759
(g376
I52
tp760
atp761
a(g383
(dp762
S'VERB'
p763
F6e-06
sS'NOUN'
p764
F0.999994
s(lp765
(g383
I53
tp766
atp767
a(g391
(dp768
S'VERB'
p769
F1.0
s(lp770
(g391
I54
tp771
atp772
a(S'to'
p773
(dp774
S'ADV'
p775
F0.0
sS'PRT'
p776
F1.0
s(lp777
(g773
I55
tp778
atp779
a(g399
(dp780
S'VERB'
p781
F1.0
s(lp782
(g399
I56
tp783
atp784
a(g406
(dp785
S'VERB'
p786
F1.0
s(lp787
(g406
I57
tp788
atp789
a(g414
(dp790
S'ADV'
p791
F1e-06
sS'PRT'
p792
F0.999992
sS'ADP'
p793
F7e-06
s(lp794
(g414
I58
tp795
atp796
a(g421
(dp797
S'ADV'
p798
F5e-06
sS'NOUN'
p799
F1.7e-05
sS'DET'
p800
F0.999978
s(lp801
(g421
I59
tp802
atp803
a(g429
(dp804
S'VERB'
p805
F0.000126
sS'NOUN'
p806
F0.999874
s(lp807
(g429
I60
tp808
atp809
a(g219
(dp810
g219
F1.0
s(lp811
(g219
I61
tp812
atp813
asS'nl'
p814
(lp815
(S'ik'
p816
(dp817
S'PRON'
p818
F0.999981
sS'NOUN'
p819
F1.9e-05
s(lp820
(g7
I0
tp821
atp822
a(S'weet'
p823
(dp824
S'VERB'
p825
F0.996926
sS'NOUN'
p826
F0.003074
s(lp827
(g19
I3
tp828
atp829
a(S'niet'
p830
(dp831
S'ADV'
p832
F0.999997
sS'PRON'
p833
F3e-06
sS'VERB'
p834
F0.0
sg439
F0.0
s(lp835
(g27
I2
tp836
atp837
a(S'of'
p838
(dp839
S'CONJ'
p840
F1.0
s(lp841
(g36
I4
tp842
atp843
a(S'dit'
p844
(dp845
S'PRON'
p846
F1.0
s(lp847
(g43
I5
tp848
atp849
a(S'de'
p850
(dp851
S'DET'
p852
F1.0
s(lp853
(g59
I8
tp854
atp855
a(S'laatste'
p856
(dp857
S'NOUN'
p858
F0.014752
sS'ADJ'
p859
F0.985248
s(lp860
(g67
I9
tp861
atp862
a(S'gelegenheid'
p863
(dp864
S'NOUN'
p865
F1.0
s(lp866
(g74
I10
tp867
atp868
a(S'in'
p869
(dp870
S'ADV'
p871
F0.001222
sS'VERB'
p872
F1e-06
sS'ADP'
p873
F0.998776
s(lp874
(g81
I11
tp875
atp876
a(S'dit'
p877
(dp878
S'PRON'
p879
F1.0
s(lp880
(g101
I12
tp881
atp882
a(S'parlement'
p883
(dp884
S'NOUN'
p885
F1.0
s(lp886
(g113
I16
tp887
atp888
a(S'zal'
p889
(dp890
S'VERB'
p891
F1.0
s(lp892
(g50
I6
tp893
atp894
a(S'zijn'
p895
(dp896
S'PRON'
p897
F0.00011
sS'VERB'
p898
F0.999795
sS'NOUN'
p899
F9.5e-05
s(lp900
(g480
I7
tp901
atp902
a(S'om'
p903
(dp904
S'ADV'
p905
F5.2e-05
sS'CONJ'
p906
F0.994031
sS'ADP'
p907
F0.005917
s(lp908
tp909
a(S'u'
p910
(dp911
S'PRON'
p912
F0.999807
sS'NOUN'
p913
F0.000194
s(lp914
(g145
I19
tp915
atp916
a(S'te'
p917
(dp918
S'PRT'
p919
F1.0
s(lp920
(g546
I17
tp921
atp922
a(S'bedanken'
p923
(dp924
S'VERB'
p925
F0.999997
sS'NOUN'
p926
F3e-06
s(lp927
(g93
I18
tp928
atp929
a(S'voor'
p930
(dp931
S'ADV'
p932
F0.000307
sS'CONJ'
p933
F3.6e-05
sS'NOUN'
p934
F0.0
sS'ADP'
p935
F0.999657
s(lp936
(g121
I20
tp937
atp938
a(S'het'
p939
(dp940
S'PRON'
p941
F0.0016589999999999999
sS'DET'
p942
F0.998341
s(lp943
(g129
I21
tp944
atp945
a(S'werk'
p946
(dp947
S'VERB'
p948
F0.001046
sS'NOUN'
p949
F0.998954
s(lp950
(g136
I22
tp951
atp952
a(S'dat'
p953
(dp954
S'PRON'
p955
F0.052657
sS'CONJ'
p956
F0.947343
s(lp957
tp958
a(g910
(dp959
S'PRON'
p960
F0.9998940000000001
sS'NOUN'
p961
F0.00010499999999999999
s(lp962
tp963
a(S'gedurende'
p964
(dp965
S'ADP'
p966
F1.0
s(lp967
(g609
I28
tp968
atp969
a(S'de'
p970
(dp971
S'DET'
p972
F1.0
s(lp973
(g618
I29
tp974
atp975
a(S'laatste'
p976
(dp977
S'NOUN'
p978
F0.000504
sS'ADJ'
p979
F0.999496
s(lp980
(g199
I30
tp981
atp982
a(S'jaren'
p983
(dp984
S'NOUN'
p985
F1.0
s(lp986
(g214
I32
tp987
atp988
a(S'als'
p989
(dp990
S'CONJ'
p991
F1.0
s(lp992
(g172
I26
tp993
atp994
a(S'commissaris'
p995
(dp996
S'NOUN'
p997
F1.0
s(lp998
(g192
I27
tp999
atp1000
a(S'hebt'
p1001
(dp1002
S'VERB'
p1003
F1.0
s(lp1004
(g157
I23
tp1005
atp1006
a(S'verricht'
p1007
(dp1008
S'VERB'
p1009
F1.0
s(lp1010
(g164
I25
tp1011
atp1012
a(g217
(dp1013
g219
F1.0
s(lp1014
(g217
I33
tp1015
atp1016
a(S'maar'
p1017
(dp1018
S'ADV'
p1019
F0.043253
sS'CONJ'
p1020
F0.956745
sS'NOUN'
p1021
F1e-06
s(lp1022
(g227
I34
tp1023
atp1024
a(S'de'
p1025
(dp1026
S'DET'
p1027
F1.0
s(lp1028
(g236
I35
tp1029
atp1030
a(S'commissie'
p1031
(dp1032
S'NOUN'
p1033
F1.0
s(lp1034
(g243
I36
tp1035
atp1036
a(S'heeft'
p1037
(dp1038
S'VERB'
p1039
F1.0
s(lp1040
(g250
I37
tp1041
atp1042
a(S'echt'
p1043
(dp1044
S'ADV'
p1045
F0.871187
sS'NOUN'
p1046
F0.032034
sS'ADJ'
p1047
F0.096779
s(lp1048
(g257
I38
tp1049
atp1050
a(S'goed'
p1051
(dp1052
S'ADV'
p1053
F0.002507
sS'NOUN'
p1054
F0.057697
sS'ADJ'
p1055
F0.939796
s(lp1056
(g288
I42
tp1057
atp1058
a(S'werk'
p1059
(dp1060
S'VERB'
p1061
F0.047852
sS'NOUN'
p1062
F0.952148
s(lp1063
(g295
I43
tp1064
atp1065
a(S'verricht'
p1066
(dp1067
S'VERB'
p1068
F1.0
s(lp1069
(g266
I39
tp1070
atp1071
a(S'door'
p1072
(dp1073
S'ADV'
p1074
F1e-06
sS'CONJ'
p1075
F1.1e-05
sS'ADP'
p1076
F0.999988
s(lp1077
(g303
I44
tp1078
atp1079
a(S'europa'
p1080
(dp1081
S'NOUN'
p1082
F0.999999
s(lp1083
(g332
I46
tp1084
atp1085
a(S'het'
p1086
(dp1087
S'PRON'
p1088
F0.010722
sS'DET'
p1089
F0.989278
s(lp1090
(g341
I48
tp1091
atp1092
a(S'voortouw'
p1093
(dp1094
S'NOUN'
p1095
F1.0
s(lp1096
tp1097
a(S'te'
p1098
(dp1099
S'PRT'
p1100
F1.0
s(lp1101
tp1102
a(S'laten'
p1103
(dp1104
S'VERB'
p1105
F0.999999
sS'NOUN'
p1106
F0.0
s(lp1107
tp1108
a(S'nemen'
p1109
(dp1110
S'VERB'
p1111
F0.999399
sS'NOUN'
p1112
F0.000601
s(lp1113
(g358
I49
tp1114
atp1115
a(g217
(dp1116
g219
F1.0
s(lp1117
(g217
I50
tp1118
atp1119
a(S'en'
p1120
(dp1121
S'CONJ'
p1122
F1.0
s(lp1123
(g369
I51
tp1124
atp1125
a(S'uw'
p1126
(dp1127
S'PRON'
p1128
F1.0
s(lp1129
(g376
I52
tp1130
atp1131
a(S'werk'
p1132
(dp1133
S'VERB'
p1134
F0.0
sS'NOUN'
p1135
F1.0
s(lp1136
(g383
I53
tp1137
atp1138
a(S'verdient'
p1139
(dp1140
S'VERB'
p1141
F1.0
s(lp1142
tp1143
a(S'lof'
p1144
(dp1145
S'NOUN'
p1146
F1.0
s(lp1147
(g406
I57
tp1148
atp1149
a(S'in'
p1150
(dp1151
S'ADV'
p1152
F0.001222
sS'VERB'
p1153
F1e-06
sS'ADP'
p1154
F0.998776
s(lp1155
(g414
I58
tp1156
atp1157
a(S'dit'
p1158
(dp1159
S'PRON'
p1160
F1.0
s(lp1161
(g421
I59
tp1162
atp1163
a(S'parlement'
p1164
(dp1165
S'NOUN'
p1166
F1.0
s(lp1167
(g429
I60
tp1168
atp1169
a(g219
(dp1170
g219
F1.0
s(lp1171
(g219
I61
tp1172
atp1173
asS'de'
p1174
(lp1175
(S'ich'
p1176
(dp1177
S'PRON'
p1178
F1.0
s(lp1179
(g7
I0
tp1180
atp1181
a(S'wei\xc3\x9f'
p1182
(dp1183
S'VERB'
p1184
F0.893619
sS'ADJ'
p1185
F0.105436
s(lp1186
(g19
I3
tp1187
atp1188
a(S'nicht'
p1189
(dp1190
S'PRT'
p1191
F1.0
s(lp1192
(g27
I2
tp1193
atp1194
a(g217
(dp1195
g219
F1.0
s(lp1196
tp1197
a(S'ob'
p1198
(dp1199
S'ADV'
p1200
F0.000216
sS'CONJ'
p1201
F0.999746
s(lp1202
(g36
I4
tp1203
atp1204
a(S'dies'
p1205
(dp1206
S'PRON'
p1207
F1.0
s(lp1208
(g43
I5
tp1209
atp1210
a(S'die'
p1211
(dp1212
S'PRON'
p1213
F0.002173
sS'DET'
p1214
F0.996594
s(lp1215
(g59
I8
tp1216
atp1217
a(S'letzte'
p1218
(dp1219
S'ADJ'
p1220
F1.0
s(lp1221
(g67
I9
tp1222
atp1223
a(S'gelegenheit'
p1224
(dp1225
S'ADJ'
p1226
F0.002644
sS'NOUN'
p1227
F0.996409
s(lp1228
(g74
I10
tp1229
atp1230
a(S'vor'
p1231
(dp1232
S'PRT'
p1233
F0.00182
sS'ADP'
p1234
F0.996663
s(lp1235
(g81
I11
tp1236
atp1237
a(S'diesem'
p1238
(dp1239
S'PRON'
p1240
F1.0
s(lp1241
(g101
I12
tp1242
atp1243
a(S'hause'
p1244
(dp1245
S'VERB'
p1246
F1.0
s(lp1247
(g113
I16
tp1248
atp1249
a(S'sein'
p1250
(dp1251
S'PRON'
p1252
F0.993515
sS'VERB'
p1253
F0.00636
s(lp1254
(g480
I7
tp1255
atp1256
a(S'wird'
p1257
(dp1258
S'VERB'
p1259
F1.0
s(lp1260
(g50
I6
tp1261
atp1262
a(g217
(dp1263
g219
F1.0
s(lp1264
(g546
I17
tp1265
atp1266
a(S'um'
p1267
(dp1268
S'CONJ'
p1269
F0.6027
sS'ADP'
p1270
F0.397106
s(lp1271
tp1272
a(S'ihnen'
p1273
(dp1274
S'PRON'
p1275
F1.0
s(lp1276
(g145
I19
tp1277
atp1278
a(S'f\xc3\xbcr'
p1279
(dp1280
S'ADP'
p1281
F1.0
s(lp1282
(g121
I20
tp1283
atp1284
a(S'ihre'
p1285
(dp1286
S'PRON'
p1287
F1.0
s(lp1288
(g129
I21
tp1289
atp1290
a(S'arbeit'
p1291
(dp1292
S'ADJ'
p1293
F0.028907
sS'NOUN'
p1294
F0.953795
s(lp1295
(g136
I22
tp1296
atp1297
a(S'als'
p1298
(dp1299
S'CONJ'
p1300
F0.999707
s(lp1301
(g172
I26
tp1302
atp1303
a(S'kommissar'
p1304
(dp1305
S'ADJ'
p1306
F0.212447
sS'NOUN'
p1307
F0.772799
s(lp1308
(g192
I27
tp1309
atp1310
a(S'der'
p1311
(dp1312
S'PRON'
p1313
F0.000122
sS'DET'
p1314
F0.999859
s(lp1315
(g618
I29
tp1316
atp1317
a(S'letzten'
p1318
(dp1319
S'ADJ'
p1320
F1.0
s(lp1321
(g199
I30
tp1322
atp1323
a(S'jahren'
p1324
(dp1325
S'ADJ'
p1326
F0.000616
sS'NOUN'
p1327
F0.998827
s(lp1328
(g214
I32
tp1329
atp1330
a(S'zu'
p1331
(dp1332
S'PRT'
p1333
F0.999975
s(lp1334
(g546
I17
tp1335
atp1336
a(S'danken'
p1337
(dp1338
S'VERB'
p1339
F1.0
s(lp1340
(g93
I18
tp1341
atp1342
a(g219
(dp1343
g219
F1.0
s(lp1344
(g227
I34
tp1345
atp1346
a(S'die'
p1347
(dp1348
S'PRON'
p1349
F0.007474
sS'DET'
p1350
F0.990644
s(lp1351
(g236
I35
tp1352
atp1353
a(S'kommission'
p1354
(dp1355
S'ADJ'
p1356
F0.054583
sS'NOUN'
p1357
F0.917408
s(lp1358
(g243
I36
tp1359
atp1360
a(S'hat'
p1361
(dp1362
S'VERB'
p1363
F1.0
s(lp1364
(g250
I37
tp1365
atp1366
a(S'eine'
p1367
(dp1368
S'PRON'
p1369
F0.176411
sS'DET'
p1370
F0.823472
s(lp1371
(g246
I40
tp1372
atp1373
a(S'wirklich'
p1374
(dp1375
S'ADJ'
p1376
F1.0
s(lp1377
(g257
I38
tp1378
atp1379
a(S'gute'
p1380
(dp1381
S'ADJ'
p1382
F1.0
s(lp1383
(g288
I42
tp1384
atp1385
a(S'leistung'
p1386
(dp1387
S'ADJ'
p1388
F0.003369
sS'NOUN'
p1389
F0.994376
s(lp1390
(g295
I43
tp1391
atp1392
a(S'vollbracht'
p1393
(dp1394
S'VERB'
p1395
F1.0
s(lp1396
(g266
I39
tp1397
atp1398
a(g217
(dp1399
g219
F1.0
s(lp1400
tp1401
a(S'indem'
p1402
(dp1403
S'CONJ'
p1404
F1.0
s(lp1405
tp1406
a(S'sie'
p1407
(dp1408
S'PRON'
p1409
F1.0
s(lp1410
(g310
I45
tp1411
atp1412
a(S'europa'
p1413
(dp1414
S'NOUN'
p1415
F0.09323
sS'ADJ'
p1416
F0.795919
s(lp1417
(g332
I46
tp1418
atp1419
a(S'an'
p1420
(dp1421
S'PRT'
p1422
F0.005905
sS'ADP'
p1423
F0.993218
s(lp1424
(g317
I47
tp1425
atp1426
a(S'die'
p1427
(dp1428
S'PRON'
p1429
F0.000348
sS'DET'
p1430
F0.999596
s(lp1431
(g341
I48
tp1432
atp1433
a(S'spitze'
p1434
(dp1435
S'VERB'
p1436
F0.000246
sS'ADJ'
p1437
F0.999754
s(lp1438
(g358
I49
tp1439
atp1440
a(S'setzte'
p1441
(dp1442
S'VERB'
p1443
F1.0
s(lp1444
tp1445
a(g217
(dp1446
g219
F1.0
s(lp1447
(g217
I50
tp1448
atp1449
a(S'und'
p1450
(dp1451
S'CONJ'
p1452
F1.0
s(lp1453
(g369
I51
tp1454
atp1455
a(S'ihre'
p1456
(dp1457
S'PRON'
p1458
F1.0
s(lp1459
(g376
I52
tp1460
atp1461
a(S'bem\xc3\xbchungen'
p1462
(dp1463
S'ADJ'
p1464
F0.000332
sS'NOUN'
p1465
F0.999484
s(lp1466
(g383
I53
tp1467
atp1468
a(S'dabei'
p1469
(dp1470
S'ADV'
p1471
F0.998757
sS'PRT'
p1472
F0.001243
s(lp1473
(g391
I54
tp1474
atp1475
a(S'sollten'
p1476
(dp1477
S'VERB'
p1478
F1.0
s(lp1479
tp1480
a(S'vor'
p1481
(dp1482
S'ADV'
p1483
F0.008824
sS'ADP'
p1484
F0.991173
s(lp1485
(g414
I58
tp1486
atp1487
a(S'diesem'
p1488
(dp1489
S'PRON'
p1490
F1.0
s(lp1491
(g421
I59
tp1492
atp1493
a(S'haus'
p1494
(dp1495
S'PRT'
p1496
F0.497104
sS'VERB'
p1497
F0.502896
s(lp1498
(g429
I60
tp1499
atp1500
a(S'gelobt'
p1501
(dp1502
S'VERB'
p1503
F0.9999969999999999
s(lp1504
(g406
I57
tp1505
atp1506
a(S'werden'
p1507
(dp1508
S'VERB'
p1509
F0.999996
s(lp1510
(g399
I56
tp1511
atp1512
a(g219
(dp1513
g219
F1.0
s(lp1514
(g219
I61
tp1515
atp1516
asS'it'
p1517
(lp1518
(S'non'
p1519
(dp1520
S'ADV'
p1521
F1.0
s(lp1522
(g27
I2
tp1523
atp1524
a(S'so'
p1525
(dp1526
S'VERB'
p1527
F1.0
s(lp1528
(g19
I3
tp1529
atp1530
a(S'se'
p1531
(dp1532
S'PRON'
p1533
F6e-06
sS'CONJ'
p1534
F0.999947
sS'NOUN'
p1535
F4.7e-05
s(lp1536
(g36
I4
tp1537
atp1538
a(S'questa'
p1539
(dp1540
S'PRON'
p1541
F1.0
s(lp1542
(g43
I5
tp1543
atp1544
a(S'sar\xc3\xa0'
p1545
(dp1546
S'VERB'
p1547
F1.0
s(lp1548
(g50
I6
tp1549
atp1550
a(S"l'"
p1551
(dp1552
S'NOUN'
p1553
F0.00427
sS'VERB'
p1554
F0.958229
sS'ADJ'
p1555
F0.0375
s(lp1556
(g59
I8
tp1557
atp1558
a(S'ultima'
p1559
(dp1560
S'NOUN'
p1561
F0.031948
sS'VERB'
p1562
F0.01175
sS'ADJ'
p1563
F0.956303
s(lp1564
(g67
I9
tp1565
atp1566
a(S'opportunit\xc3\xa0'
p1567
(dp1568
S'NOUN'
p1569
F1.0
s(lp1570
(g74
I10
tp1571
atp1572
a(S'in'
p1573
(dp1574
S'ADP'
p1575
F1.0
s(lp1576
(g81
I11
tp1577
atp1578
a(S"quest'"
p1579
(dp1580
S'ADJ'
p1581
F0.018253
sS'VERB'
p1582
F0.018786
sS'NOUN'
p1583
F0.962961
s(lp1584
tp1585
a(S'aula'
p1586
(dp1587
S'NOUN'
p1588
F1.0
s(lp1589
(g113
I16
tp1590
atp1591
a(S'per'
p1592
(dp1593
S'CONJ'
p1594
F0.005329
sS'ADP'
p1595
F0.994671
s(lp1596
(g546
I17
tp1597
atp1598
a(S'ringraziarla'
p1599
(dp1600
S'VERB'
p1601
F1.0
s(lp1602
(g93
I18
tp1603
atp1604
a(S"dell'"
p1605
(dp1606
S'ADJ'
p1607
F0.005631
sS'VERB'
p1608
F0.01458
sS'NOUN'
p1609
F0.979789
s(lp1610
(g121
I20
tp1611
atp1612
a(S'operato'
p1613
(dp1614
S'ADJ'
p1615
F0.092
sS'VERB'
p1616
F0.677239
sS'NOUN'
p1617
F0.230761
s(lp1618
(g136
I22
tp1619
atp1620
a(S'svolto'
p1621
(dp1622
S'VERB'
p1623
F0.908963
sS'ADJ'
p1624
F0.091037
s(lp1625
(g164
I25
tp1626
atp1627
a(S'negli'
p1628
(dp1629
S'ADP'
p1630
F1.0
s(lp1631
(g609
I28
tp1632
atp1633
a(S'ultimi'
p1634
(dp1635
S'NOUN'
p1636
F0.0482
sS'VERB'
p1637
F2.1000000000000002e-05
sS'ADJ'
p1638
F0.951779
s(lp1639
(g199
I30
tp1640
atp1641
a(S'anni'
p1642
(dp1643
S'NOUN'
p1644
F1.0
s(lp1645
(g214
I32
tp1646
atp1647
a(S'in'
p1648
(dp1649
S'ADP'
p1650
F1.0
s(lp1651
tp1652
a(S'qualit\xc3\xa0'
p1653
(dp1654
S'NOUN'
p1655
F1.0
s(lp1656
(g172
I26
tp1657
atp1658
a(S'di'
p1659
(dp1660
S'CONJ'
p1661
F4e-06
sS'ADP'
p1662
F0.999996
s(lp1663
tp1664
a(S'commissario'
p1665
(dp1666
S'VERB'
p1667
F0.000181
sS'NOUN'
p1668
F0.999819
s(lp1669
(g192
I27
tp1670
atp1671
a(g217
(dp1672
g219
F1.0
s(lp1673
(g217
I33
tp1674
atp1675
a(S'ma'
p1676
(dp1677
S'CONJ'
p1678
F0.999983
sS'NOUN'
p1679
F1.7e-05
s(lp1680
(g227
I34
tp1681
atp1682
a(S'la'
p1683
(dp1684
S'PRON'
p1685
F0.000411
sS'DET'
p1686
F0.999589
s(lp1687
(g236
I35
tp1688
atp1689
a(S'commissione'
p1690
(dp1691
S'NOUN'
p1692
F1.0
s(lp1693
(g243
I36
tp1694
atp1695
a(S'ha'
p1696
(dp1697
S'VERB'
p1698
F1.0
s(lp1699
(g250
I37
tp1700
atp1701
a(S'ottenuto'
p1702
(dp1703
S'VERB'
p1704
F1.0
s(lp1705
tp1706
a(S'risultati'
p1707
(dp1708
S'VERB'
p1709
F0.026862
sS'NOUN'
p1710
F0.973138
s(lp1711
(g266
I39
tp1712
atp1713
a(S'davvero'
p1714
(dp1715
S'ADV'
p1716
F1.0
s(lp1717
(g279
I41
tp1718
atp1719
a(S'ottimi'
p1720
(dp1721
S'NOUN'
p1722
F0.017128
sS'VERB'
p1723
F0.006297
sS'ADJ'
p1724
F0.976575
s(lp1725
(g288
I42
tp1726
atp1727
a(g217
(dp1728
g219
F1.0
s(lp1729
tp1730
a(S'permettendo'
p1731
(dp1732
S'VERB'
p1733
F1.0
s(lp1734
(g310
I45
tp1735
atp1736
a(S"all'"
p1737
(dp1738
S'ADJ'
p1739
F0.002437
sS'VERB'
p1740
F0.00051
sS'NOUN'
p1741
F0.997053
s(lp1742
tp1743
a(S'europa'
p1744
(dp1745
S'NOUN'
p1746
F0.355938
sS'VERB'
p1747
F0.143853
sS'ADJ'
p1748
F0.500209
s(lp1749
(g332
I46
tp1750
atp1751
a(S'di'
p1752
(dp1753
S'CONJ'
p1754
F6e-06
sS'ADP'
p1755
F0.999994
s(lp1756
(g317
I47
tp1757
atp1758
a(S'assumere'
p1759
(dp1760
S'VERB'
p1761
F1.0
s(lp1762
(g358
I49
tp1763
atp1764
a(S'il'
p1765
(dp1766
S'DET'
p1767
F1.0
s(lp1768
(g341
I48
tp1769
atp1770
a(S'ruolo'
p1771
(dp1772
S'NOUN'
p1773
F1.0
s(lp1774
tp1775
a(S'di'
p1776
(dp1777
S'CONJ'
p1778
F4e-06
sS'ADP'
p1779
F0.999996
s(lp1780
tp1781
a(S'capofila'
p1782
(dp1783
S'NOUN'
p1784
F1.0
s(lp1785
(g358
I49
tp1786
atp1787
a(g217
(dp1788
g219
F1.0
s(lp1789
(g217
I50
tp1790
atp1791
a(S'e'
p1792
(dp1793
S'CONJ'
p1794
F1.0
s(lp1795
(g369
I51
tp1796
atp1797
a(S'pertanto'
p1798
(dp1799
S'ADV'
p1800
F1.0
s(lp1801
(g399
I56
tp1802
atp1803
a(S'desidero'
p1804
(dp1805
S'VERB'
p1806
F1.0
s(lp1807
(g406
I57
tp1808
atp1809
a(g217
(dp1810
g219
F1.0
s(lp1811
tp1812
a(S'in'
p1813
(dp1814
S'ADP'
p1815
F1.0
s(lp1816
(g414
I58
tp1817
atp1818
a(S'questa'
p1819
(dp1820
S'PRON'
p1821
F1.0
s(lp1822
(g421
I59
tp1823
atp1824
a(S'sede'
p1825
(dp1826
S'NOUN'
p1827
F1.0
s(lp1828
(g429
I60
tp1829
atp1830
a(g217
(dp1831
g219
F1.0
s(lp1832
tp1833
a(S'rendere'
p1834
(dp1835
S'VERB'
p1836
F1.0
s(lp1837
tp1838
a(S'omaggio'
p1839
(dp1840
S'NOUN'
p1841
F0.240599
sS'ADJ'
p1842
F0.759401
s(lp1843
(g406
I57
tp1844
atp1845
a(S'al'
p1846
(dp1847
S'ADP'
p1848
F1.0
s(lp1849
(g773
I55
tp1850
atp1851
a(S'suo'
p1852
(dp1853
S'PRON'
p1854
F1.0
s(lp1855
(g376
I52
tp1856
atp1857
a(S'lavoro'
p1858
(dp1859
S'VERB'
p1860
F0.0
sS'NOUN'
p1861
F1.0
s(lp1862
(g383
I53
tp1863
atp1864
a(g219
(dp1865
g219
F1.0
s(lp1866
(g219
I61
tp1867
atp1868
asS'sk'
p1869
(lp1870
(S'neviem'
p1871
(dp1872
g439
F0.030929
sS'VERB'
p1873
F0.969071
s(lp1874
(g444
I1
tp1875
atp1876
a(g217
(dp1877
g219
F1.0
s(lp1878
(g19
I3
tp1879
atp1880
a(S'\xc4\x8di'
p1881
(dp1882
g439
F0.000855
sS'CONJ'
p1883
F0.999145
s(lp1884
(g36
I4
tp1885
atp1886
a(S'toto'
p1887
(dp1888
S'PRON'
p1889
F0.999969
sg439
F3.1e-05
s(lp1890
(g43
I5
tp1891
atp1892
a(S'bude'
p1893
(dp1894
g439
F3.1e-05
sS'VERB'
p1895
F0.999969
s(lp1896
(g50
I6
tp1897
atp1898
a(S'posledn\xc3\xa1'
p1899
(dp1900
S'NUM'
p1901
F0.620569
sS'ADJ'
p1902
F0.379431
s(lp1903
(g67
I9
tp1904
atp1905
a(S'pr\xc3\xadle\xc5\xbeitos\xc5\xa5'
p1906
(dp1907
S'NOUN'
p1908
F1.0
s(lp1909
(g74
I10
tp1910
atp1911
a(S'po\xc4\x8fakova\xc5\xa5'
p1912
(dp1913
S'VERB'
p1914
F1.0
s(lp1915
(g93
I18
tp1916
atp1917
a(S'sa'
p1918
(dp1919
S'PRT'
p1920
F0.99917
sS'ADP'
p1921
F0.000647
sg439
F0.000183
s(lp1922
tp1923
a(S'v\xc3\xa1m'
p1924
(dp1925
S'PRON'
p1926
F0.99999
sg439
F1e-05
s(lp1927
(g145
I19
tp1928
atp1929
a(S'na'
p1930
(dp1931
g439
F1.9999999999999998e-05
sS'CONJ'
p1932
F9e-06
sS'ADP'
p1933
F0.999966
sS'PRT'
p1934
F5e-06
s(lp1935
(g81
I11
tp1936
atp1937
a(S'p\xc3\xb4de'
p1938
(dp1939
S'NOUN'
p1940
F1.0
s(lp1941
(g520
I13
tp1942
atp1943
a(S'parlamentu'
p1944
(dp1945
S'NOUN'
p1946
F1.0
s(lp1947
(g113
I16
tp1948
atp1949
a(S'za'
p1950
(dp1951
g439
F0.000344
sS'ADP'
p1952
F0.999634
sS'PRT'
p1953
F2.2e-05
s(lp1954
(g121
I20
tp1955
atp1956
a(S'pr\xc3\xa1cu'
p1957
(dp1958
S'NOUN'
p1959
F1.0
s(lp1960
(g136
I22
tp1961
atp1962
a(g217
(dp1963
g219
F1.0
s(lp1964
tp1965
a(S'ktor\xc3\xba'
p1966
(dp1967
S'PRON'
p1968
F1.0
s(lp1969
tp1970
a(S'ste'
p1971
(dp1972
S'NUM'
p1973
F0.000402
sS'VERB'
p1974
F0.999598
s(lp1975
(g157
I23
tp1976
atp1977
a(S'za'
p1978
(dp1979
S'PRT'
p1980
F0.000354
sS'ADP'
p1981
F0.999643
sg439
F3e-06
s(lp1982
(g609
I28
tp1983
atp1984
a(S'nieko\xc4\xbeko'
p1985
(dp1986
S'PRON'
p1987
F1.0
s(lp1988
(g207
I31
tp1989
atp1990
a(S'ostatn\xc3\xbdch'
p1991
(dp1992
S'NUM'
p1993
F0.036132
sS'ADJ'
p1994
F0.963868
s(lp1995
(g199
I30
tp1996
atp1997
a(S'rokov'
p1998
(dp1999
S'NOUN'
p2000
F1.0
s(lp2001
(g214
I32
tp2002
atp2003
a(S'ako'
p2004
(dp2005
S'PRON'
p2006
F0.007153
sS'CONJ'
p2007
F0.992741
sg439
F0.000106
s(lp2008
(g172
I26
tp2009
atp2010
a(S'komis\xc3\xa1r'
p2011
(dp2012
S'NOUN'
p2013
F1.0
s(lp2014
(g192
I27
tp2015
atp2016
a(S'vykonali'
p2017
(dp2018
S'VERB'
p2019
F1.0
s(lp2020
(g164
I25
tp2021
atp2022
a(g217
(dp2023
g219
F1.0
s(lp2024
(g217
I33
tp2025
atp2026
a(S'ale'
p2027
(dp2028
g439
F0.0041389999999999995
sS'CONJ'
p2029
F0.995861
s(lp2030
(g227
I34
tp2031
atp2032
a(S'komisia'
p2033
(dp2034
S'NOUN'
p2035
F1.0
s(lp2036
(g243
I36
tp2037
atp2038
a(S'skuto\xc4\x8dne'
p2039
(dp2040
S'ADV'
p2041
F0.830853
sg439
F0.169147
s(lp2042
(g257
I38
tp2043
atp2044
a(S'vykonala'
p2045
(dp2046
S'VERB'
p2047
F1.000001
s(lp2048
(g266
I39
tp2049
atp2050
a(S'dobr\xc3\xba'
p2051
(dp2052
S'ADJ'
p2053
F1.0
s(lp2054
(g288
I42
tp2055
atp2056
a(S'pr\xc3\xa1cu'
p2057
(dp2058
S'NOUN'
p2059
F1.0
s(lp2060
(g295
I43
tp2061
atp2062
a(g217
(dp2063
g219
F1.0
s(lp2064
tp2065
a(S'ke\xc4\x8f'
p2066
(dp2067
g439
F0.000676
sS'CONJ'
p2068
F0.999324
s(lp2069
tp2070
a(S'postavila'
p2071
(dp2072
S'VERB'
p2073
F1.000001
s(lp2074
(g310
I45
tp2075
atp2076
a(S'eur\xc3\xb3pu'
p2077
(dp2078
S'ADJ'
p2079
F0.008648
sS'VERB'
p2080
F3e-06
sS'NOUN'
p2081
F0.991349
s(lp2082
(g332
I46
tp2083
atp2084
a(S'na'
p2085
(dp2086
g439
F0.00016199999999999998
sS'CONJ'
p2087
F1.6e-05
sS'ADP'
p2088
F0.99982
sS'PRT'
p2089
F3e-06
s(lp2090
(g317
I47
tp2091
atp2092
a(S'\xc4\x8delo'
p2093
(dp2094
S'NOUN'
p2095
F1.0
s(lp2096
tp2097
a(S'tohto'
p2098
(dp2099
S'PRON'
p2100
F0.999618
sg439
F0.000382
s(lp2101
(g341
I48
tp2102
atp2103
a(S'procesu'
p2104
(dp2105
S'NOUN'
p2106
F1.0
s(lp2107
(g358
I49
tp2108
atp2109
a(g217
(dp2110
g219
F1.0
s(lp2111
(g217
I50
tp2112
atp2113
a(g246
(dp2114
g439
F0.000185
sS'CONJ'
p2115
F0.999789
sS'NOUN'
p2116
F2e-06
sS'ADP'
p2117
F1.9e-05
sS'PRT'
p2118
F5e-06
s(lp2119
(g369
I51
tp2120
atp2121
a(S'va\xc5\xa1u'
p2122
(dp2123
S'PRON'
p2124
F1.0
s(lp2125
(g376
I52
tp2126
atp2127
a(S'pr\xc3\xa1cu'
p2128
(dp2129
S'NOUN'
p2130
F1.0
s(lp2131
(g383
I53
tp2132
atp2133
a(S'treba'
p2134
(dp2135
S'ADV'
p2136
F1.0
s(lp2137
(g399
I56
tp2138
atp2139
a(S'pred'
p2140
(dp2141
g439
F1.7e-05
sS'ADP'
p2142
F0.999983
s(lp2143
(g406
I57
tp2144
atp2145
a(S't\xc3\xbdmto'
p2146
(dp2147
S'PRON'
p2148
F1.0
s(lp2149
(g421
I59
tp2150
atp2151
a(S'parlamentom'
p2152
(dp2153
S'NOUN'
p2154
F1.0
s(lp2155
(g429
I60
tp2156
atp2157
a(S'naozaj'
p2158
(dp2159
g439
F1.0
s(lp2160
tp2161
a(S'pochv\xc3\xa1li\xc5\xa5'
p2162
(dp2163
S'VERB'
p2164
F1.0
s(lp2165
(g406
I57
tp2166
atp2167
a(g219
(dp2168
g219
F1.0
s(lp2169
(g219
I61
tp2170
atp2171
asS'pl'
p2172
(lp2173
(S'nie'
p2174
(dp2175
S'ADV'
p2176
F2.6e-05
sS'PRT'
p2177
F0.989441
sS'CONJ'
p2178
F0.01053
sS'NOUN'
p2179
F4e-06
sS'PRON'
p2180
F0.0
s(lp2181
(g27
I2
tp2182
atp2183
a(S'wiem'
p2184
(dp2185
S'VERB'
p2186
F1.0
s(lp2187
(g19
I3
tp2188
atp2189
a(g217
(dp2190
g439
F0.0
sg219
F1.0
s(lp2191
tp2192
a(S'czy'
p2193
(dp2194
S'PRT'
p2195
F0.72448
sS'CONJ'
p2196
F0.275452
sS'NUM'
p2197
F6.1e-05
sS'NOUN'
p2198
F6e-06
s(lp2199
(g36
I4
tp2200
atp2201
a(S'jest'
p2202
(dp2203
S'VERB'
p2204
F1.0
s(lp2205
(g480
I7
tp2206
atp2207
a(S'to'
p2208
(dp2209
S'NOUN'
p2210
F0.182085
sS'ADP'
p2211
F1e-06
sS'PRT'
p2212
F0.260814
sg439
F0.0
sS'CONJ'
p2213
F0.077601
sS'ADJ'
p2214
F0.479499
s(lp2215
(g43
I5
tp2216
atp2217
a(S'ostatnia'
p2218
(dp2219
S'ADJ'
p2220
F1.0
s(lp2221
(g67
I9
tp2222
atp2223
a(S'szansa'
p2224
(dp2225
S'NOUN'
p2226
F1.0
s(lp2227
(g74
I10
tp2228
atp2229
a(g217
(dp2230
g439
F0.0
sg219
F1.0
s(lp2231
tp2232
a(S'aby'
p2233
(dp2234
S'PRT'
p2235
F0.002469
sS'CONJ'
p2236
F0.997531
s(lp2237
tp2238
a(S'na'
p2239
(dp2240
g439
F6.4e-05
sS'VERB'
p2241
F2.7e-05
sS'NOUN'
p2242
F2.4e-05
sS'ADP'
p2243
F0.9998619999999999
sS'PRT'
p2244
F2.3e-05
s(lp2245
(g101
I12
tp2246
atp2247
a(S'forum'
p2248
(dp2249
S'NOUN'
p2250
F1.0
s(lp2251
(g520
I13
tp2252
atp2253
a(S'tej'
p2254
(dp2255
S'PRON'
p2256
F6.2e-05
sS'ADJ'
p2257
F0.999935
sg439
F2e-06
s(lp2258
(g533
I15
tp2259
atp2260
a(S'izby'
p2261
(dp2262
S'NOUN'
p2263
F1.0
s(lp2264
(g113
I16
tp2265
atp2266
a(S'podzi\xc4\x99kowa\xc4\x87'
p2267
(dp2268
S'VERB'
p2269
F1.0
s(lp2270
(g93
I18
tp2271
atp2272
a(S'panu'
p2273
(dp2274
S'NOUN'
p2275
F1.0
s(lp2276
(g145
I19
tp2277
atp2278
a(S'za'
p2279
(dp2280
S'PRT'
p2281
F0.031316
sS'VERB'
p2282
F0.00022299999999999997
sS'NOUN'
p2283
F2.6e-05
sS'ADP'
p2284
F0.968428
sg439
F7e-06
s(lp2285
(g121
I20
tp2286
atp2287
a(S'to'
p2288
(dp2289
S'NOUN'
p2290
F0.9525629999999999
sS'ADP'
p2291
F1e-06
sS'PRT'
p2292
F0.002601
sg439
F2e-05
sS'CONJ'
p2293
F0.000659
sS'ADJ'
p2294
F0.04415600000000001
s(lp2295
tp2296
a(g217
(dp2297
g439
F0.0
sg219
F1.0
s(lp2298
tp2299
a(S'czego'
p2300
(dp2301
S'ADV'
p2302
F0.084721
sS'NOUN'
p2303
F0.915279
s(lp2304
tp2305
a(S'w'
p2306
(dp2307
S'ADJ'
p2308
F0.0
sg439
F0.0
sS'NOUN'
p2309
F0.0
sS'ADP'
p2310
F0.9999999999999999
s(lp2311
(g609
I28
tp2312
atp2313
a(S'ostatnich'
p2314
(dp2315
S'ADJ'
p2316
F0.9999990000000001
s(lp2317
(g199
I30
tp2318
atp2319
a(S'latach'
p2320
(dp2321
S'NOUN'
p2322
F1.0
s(lp2323
(g214
I32
tp2324
atp2325
a(S'dokona\xc5\x82'
p2326
(dp2327
S'VERB'
p2328
F1.0
s(lp2329
(g164
I25
tp2330
atp2331
a(S'pan'
p2332
(dp2333
g439
F2e-06
sS'NOUN'
p2334
F0.999998
s(lp2335
tp2336
a(S'jako'
p2337
(dp2338
S'ADV'
p2339
F0.0069299999999999995
sS'CONJ'
p2340
F0.213627
sS'ADP'
p2341
F0.779443
s(lp2342
(g172
I26
tp2343
atp2344
a(S'komisarz'
p2345
(dp2346
S'NOUN'
p2347
F1.0
s(lp2348
(g192
I27
tp2349
atp2350
a(g217
(dp2351
g439
F0.0
sg219
F1.0
s(lp2352
(g217
I33
tp2353
atp2354
a(S'ale'
p2355
(dp2356
S'PRT'
p2357
F0.001455
sS'CONJ'
p2358
F0.998235
sS'NOUN'
p2359
F0.000309
s(lp2360
(g227
I34
tp2361
atp2362
a(S'komisja'
p2363
(dp2364
S'NOUN'
p2365
F1.0
s(lp2366
(g243
I36
tp2367
atp2368
a(S'faktycznie'
p2369
(dp2370
S'ADV'
p2371
F1.0
s(lp2372
(g257
I38
tp2373
atp2374
a(S'wykona\xc5\x82a'
p2375
(dp2376
S'VERB'
p2377
F1.0
s(lp2378
(g266
I39
tp2379
atp2380
a(S'dobr\xc4\x85'
p2381
(dp2382
S'ADJ'
p2383
F1.0
s(lp2384
(g288
I42
tp2385
atp2386
a(S'robot\xc4\x99'
p2387
(dp2388
S'NOUN'
p2389
F1.0
s(lp2390
(g295
I43
tp2391
atp2392
a(g217
(dp2393
g439
F0.0
sg219
F1.0
s(lp2394
tp2395
a(S'sprawiaj\xc4\x85c'
p2396
(dp2397
S'ADV'
p2398
F0.000644
sS'ADJ'
p2399
F0.000404
sS'VERB'
p2400
F0.9971049999999999
sS'NOUN'
p2401
F0.0018470000000000003
s(lp2402
(g310
I45
tp2403
atp2404
a(g217
(dp2405
g439
F0.0
sg219
F1.0
s(lp2406
tp2407
a(S'\xc5\xbce'
p2408
(dp2409
S'PRT'
p2410
F0.0001
sS'CONJ'
p2411
F0.9999
s(lp2412
(g341
I48
tp2413
atp2414
a(S'europa'
p2415
(dp2416
S'ADJ'
p2417
F0.007727
sS'VERB'
p2418
F0.000232
sS'NOUN'
p2419
F0.992042
s(lp2420
(g332
I46
tp2421
atp2422
a(S'sta\xc5\x82a'
p2423
(dp2424
S'NOUN'
p2425
F0.000886
sS'VERB'
p2426
F0.9909840000000001
sS'ADJ'
p2427
F0.00813
s(lp2428
(g317
I47
tp2429
atp2430
a(S'si\xc4\x99'
p2431
(dp2432
S'PRT'
p2433
F1.0
s(lp2434
tp2435
a(S'liderem'
p2436
(dp2437
S'NOUN'
p2438
F1.0
s(lp2439
(g358
I49
tp2440
atp2441
a(g217
(dp2442
g439
F0.0
sg219
F1.0
s(lp2443
(g217
I50
tp2444
atp2445
a(g7
(dp2446
S'PRT'
p2447
F0.004638
sS'CONJ'
p2448
F0.995112
sS'PRON'
p2449
F1.6e-05
sS'NOUN'
p2450
F0.00017800000000000002
sg439
F5.6e-05
s(lp2451
(g369
I51
tp2452
atp2453
a(S'pa\xc5\x84ska'
p2454
(dp2455
S'ADJ'
p2456
F1.0
s(lp2457
(g376
I52
tp2458
atp2459
a(S'praca'
p2460
(dp2461
S'NOUN'
p2462
F1.0
s(lp2463
(g383
I53
tp2464
atp2465
a(S'musi'
p2466
(dp2467
S'VERB'
p2468
F1.0
s(lp2469
(g391
I54
tp2470
atp2471
a(S'zosta\xc4\x87'
p2472
(dp2473
S'VERB'
p2474
F1.0
s(lp2475
(g399
I56
tp2476
atp2477
a(S'pochwalona'
p2478
(dp2479
S'ADJ'
p2480
F0.003304
sS'VERB'
p2481
F0.170592
sS'NOUN'
p2482
F0.826106
s(lp2483
tp2484
a(S'na'
p2485
(dp2486
S'PRT'
p2487
F3e-06
sS'VERB'
p2488
F3e-06
sS'NOUN'
p2489
F2e-06
sS'ADP'
p2490
F0.9999899999999999
sg439
F3e-06
s(lp2491
(g414
I58
tp2492
atp2493
a(S'forum'
p2494
(dp2495
S'NOUN'
p2496
F1.0
s(lp2497
(g406
I57
tp2498
atp2499
a(S'tej'
p2500
(dp2501
S'PRON'
p2502
F6.3e-05
sS'ADJ'
p2503
F0.9999340000000001
sg439
F2e-06
s(lp2504
(g421
I59
tp2505
atp2506
a(S'izby'
p2507
(dp2508
S'NOUN'
p2509
F1.0
s(lp2510
(g429
I60
tp2511
atp2512
a(g219
(dp2513
g219
F1.0
s(lp2514
(g219
I61
tp2515
atp2516
asS'sl'
p2517
(lp2518
(S'ne'
p2519
(dp2520
S'PRT'
p2521
F0.996992
sS'CONJ'
p2522
F0.002997
sg439
F1.1e-05
s(lp2523
(g27
I2
tp2524
atp2525
a(S'vem'
p2526
(dp2527
S'VERB'
p2528
F1.0
s(lp2529
(g19
I3
tp2530
atp2531
a(g217
(dp2532
g219
F1.0
s(lp2533
tp2534
a(S'ali'
p2535
(dp2536
S'ADV'
p2537
F0.018772
sS'CONJ'
p2538
F0.981228
s(lp2539
(g36
I4
tp2540
atp2541
a(S'bo'
p2542
(dp2543
S'VERB'
p2544
F1.0
s(lp2545
(g50
I6
tp2546
atp2547
a(S'to'
p2548
(dp2549
S'PRON'
p2550
F0.9999439999999999
sg439
F5.5e-05
s(lp2551
(g43
I5
tp2552
atp2553
a(S'zadnja'
p2554
(dp2555
S'ADJ'
p2556
F1.000001
s(lp2557
(g67
I9
tp2558
atp2559
a(S'prilo\xc5\xbenost'
p2560
(dp2561
S'NOUN'
p2562
F1.0
s(lp2563
(g74
I10
tp2564
atp2565
a(g217
(dp2566
g219
F1.0
s(lp2567
tp2568
a(S'da'
p2569
(dp2570
S'PRT'
p2571
F5e-06
sS'CONJ'
p2572
F0.99997
sS'VERB'
p2573
F2.4e-05
sg439
F0.0
s(lp2574
(g546
I17
tp2575
atp2576
a(S'se'
p2577
(dp2578
S'PRON'
p2579
F1.0
sg439
F0.0
s(lp2580
tp2581
a(S'vam'
p2582
(dp2583
S'PRON'
p2584
F1.0
s(lp2585
(g145
I19
tp2586
atp2587
a(S'v'
p2588
(dp2589
S'ADP'
p2590
F1.0
s(lp2591
(g81
I11
tp2592
atp2593
a(S'parlamentu'
p2594
(dp2595
S'NOUN'
p2596
F1.0
s(lp2597
(g113
I16
tp2598
atp2599
a(S'zahvalim'
p2600
(dp2601
S'VERB'
p2602
F1.0
s(lp2603
(g93
I18
tp2604
atp2605
a(S'za'
p2606
(dp2607
S'ADV'
p2608
F1.7e-05
sg439
F2e-06
sS'ADP'
p2609
F0.99998
s(lp2610
(g121
I20
tp2611
atp2612
a(S'delo'
p2613
(dp2614
S'NOUN'
p2615
F1.0
s(lp2616
(g136
I22
tp2617
atp2618
a(g217
(dp2619
g219
F1.0
s(lp2620
tp2621
a(S'ki'
p2622
(dp2623
S'CONJ'
p2624
F1.0
s(lp2625
tp2626
a(S'ste'
p2627
(dp2628
S'VERB'
p2629
F1.0
s(lp2630
(g157
I23
tp2631
atp2632
a(S'ga'
p2633
(dp2634
S'PRON'
p2635
F1.0
s(lp2636
(g586
I24
tp2637
atp2638
a(g2588
(dp2639
S'ADP'
p2640
F1.0
s(lp2641
(g609
I28
tp2642
atp2643
a(S'zadnjih'
p2644
(dp2645
S'ADJ'
p2646
F1.0
s(lp2647
(g199
I30
tp2648
atp2649
a(S'nekaj'
p2650
(dp2651
S'ADV'
p2652
F0.125969
sS'PRON'
p2653
F0.874032
s(lp2654
(g207
I31
tp2655
atp2656
a(S'letih'
p2657
(dp2658
S'NOUN'
p2659
F1.0
s(lp2660
(g214
I32
tp2661
atp2662
a(S'opravili'
p2663
(dp2664
S'VERB'
p2665
F0.972082
sS'NOUN'
p2666
F0.027918
s(lp2667
(g164
I25
tp2668
atp2669
a(S'kot'
p2670
(dp2671
S'CONJ'
p2672
F0.990639
sS'NOUN'
p2673
F0.009361
s(lp2674
(g172
I26
tp2675
atp2676
a(S'komisar'
p2677
(dp2678
S'NOUN'
p2679
F1.0
s(lp2680
(g192
I27
tp2681
atp2682
a(g217
(dp2683
g219
F1.0
s(lp2684
(g217
I33
tp2685
atp2686
a(S'toda'
p2687
(dp2688
S'CONJ'
p2689
F1.0
s(lp2690
(g227
I34
tp2691
atp2692
a(S'komisija'
p2693
(dp2694
S'NOUN'
p2695
F1.0
s(lp2696
(g243
I36
tp2697
atp2698
a(S'je'
p2699
(dp2700
S'PRON'
p2701
F3.3e-05
sS'VERB'
p2702
F0.999956
sg439
F1e-05
s(lp2703
(g250
I37
tp2704
atp2705
a(S'resni\xc4\x8dno'
p2706
(dp2707
S'ADV'
p2708
F0.968293
sS'ADJ'
p2709
F0.031706000000000005
s(lp2710
(g257
I38
tp2711
atp2712
a(S'dobro'
p2713
(dp2714
S'ADV'
p2715
F0.982729
sS'ADJ'
p2716
F0.007948
sS'NOUN'
p2717
F0.009308
sg439
F1.4e-05
s(lp2718
(g288
I42
tp2719
atp2720
a(S'opravila'
p2721
(dp2722
S'VERB'
p2723
F0.989182
sS'NOUN'
p2724
F0.010818999999999999
s(lp2725
tp2726
a(S'delo'
p2727
(dp2728
S'NOUN'
p2729
F1.0
s(lp2730
(g295
I43
tp2731
atp2732
a(S's'
p2733
(dp2734
S'VERB'
p2735
F2e-06
sS'NOUN'
p2736
F3e-06
sS'ADP'
p2737
F0.999996
s(lp2738
(g303
I44
tp2739
atp2740
a(S'tem'
p2741
(dp2742
S'ADV'
p2743
F0.000115
sS'PRON'
p2744
F0.9994689999999999
sS'NOUN'
p2745
F0.000416
s(lp2746
(g310
I45
tp2747
atp2748
a(g217
(dp2749
g219
F1.0
s(lp2750
tp2751
a(S'ko'
p2752
(dp2753
S'CONJ'
p2754
F1.0
s(lp2755
tp2756
a(S'je'
p2757
(dp2758
S'PRON'
p2759
F0.00912
sS'VERB'
p2760
F0.990852
sg439
F2.8e-05
s(lp2761
tp2762
a(S'evropo'
p2763
(dp2764
S'ADV'
p2765
F0.106667
sS'ADJ'
p2766
F0.11217999999999999
sS'NOUN'
p2767
F0.7807029999999999
sg439
F0.000448
s(lp2768
(g332
I46
tp2769
atp2770
a(S'postavila'
p2771
(dp2772
S'VERB'
p2773
F1.0
s(lp2774
(g310
I45
tp2775
atp2776
a(S'na'
p2777
(dp2778
S'ADP'
p2779
F1.0
s(lp2780
(g317
I47
tp2781
atp2782
a(S'vodilno'
p2783
(dp2784
S'ADJ'
p2785
F0.9999990000000001
s(lp2786
tp2787
a(S'mesto'
p2788
(dp2789
S'NOUN'
p2790
F1.0
s(lp2791
(g358
I49
tp2792
atp2793
a(g217
(dp2794
g219
F1.0
s(lp2795
(g217
I50
tp2796
atp2797
a(S'in'
p2798
(dp2799
S'ADV'
p2800
F0.000102
sg439
F7.3e-05
sS'CONJ'
p2801
F0.999804
sS'NOUN'
p2802
F2.1e-05
s(lp2803
(g369
I51
tp2804
atp2805
a(S'va\xc5\xa1e'
p2806
(dp2807
S'PRON'
p2808
F1.0000010000000001
s(lp2809
(g376
I52
tp2810
atp2811
a(S'delo'
p2812
(dp2813
S'NOUN'
p2814
F1.0
s(lp2815
(g383
I53
tp2816
atp2817
a(S'je'
p2818
(dp2819
S'PRON'
p2820
F0.000242
sS'VERB'
p2821
F0.999756
sg439
F2e-06
s(lp2822
(g391
I54
tp2823
atp2824
a(S'treba'
p2825
(dp2826
S'ADV'
p2827
F1.0
s(lp2828
(g399
I56
tp2829
atp2830
a(S'pohvaliti'
p2831
(dp2832
S'VERB'
p2833
F1.0
s(lp2834
(g406
I57
tp2835
atp2836
a(S'temu'
p2837
(dp2838
S'PRON'
p2839
F1.0
s(lp2840
(g421
I59
tp2841
atp2842
a(S'parlamentu'
p2843
(dp2844
S'NOUN'
p2845
F1.0
s(lp2846
(g429
I60
tp2847
atp2848
a(g219
(dp2849
g219
F1.0
s(lp2850
(g219
I61
tp2851
atp2852
asS'es'
p2853
(lp2854
(S'ignoro'
p2855
(dp2856
S'VERB'
p2857
F1.0
s(lp2858
(g19
I3
tp2859
atp2860
a(S'si'
p2861
(dp2862
S'CONJ'
p2863
F0.99997
sS'NOUN'
p2864
F3e-05
s(lp2865
(g36
I4
tp2866
atp2867
a(S'\xc3\xa9sta'
p2868
(dp2869
S'PRON'
p2870
F1.0
s(lp2871
(g43
I5
tp2872
atp2873
a(S'ser\xc3\xa1'
p2874
(dp2875
S'VERB'
p2876
F1.0
s(lp2877
(g50
I6
tp2878
atp2879
a(S'la'
p2880
(dp2881
S'NOUN'
p2882
F2.6e-05
sS'PRON'
p2883
F0.0
sS'DET'
p2884
F0.999966
sg439
F8e-06
s(lp2885
(g59
I8
tp2886
atp2887
a(S'\xc3\xbaltima'
p2888
(dp2889
S'ADJ'
p2890
F1.0
s(lp2891
(g67
I9
tp2892
atp2893
a(S'oportunidad'
p2894
(dp2895
S'NOUN'
p2896
F1.0
s(lp2897
(g74
I10
tp2898
atp2899
a(S'para'
p2900
(dp2901
S'CONJ'
p2902
F0.896782
sS'ADP'
p2903
F0.103218
s(lp2904
(g546
I17
tp2905
atp2906
a(S'darle'
p2907
(dp2908
S'VERB'
p2909
F1.0
s(lp2910
(g93
I18
tp2911
atp2912
a(S'las'
p2913
(dp2914
S'PRON'
p2915
F0.0
sS'DET'
p2916
F1.0
s(lp2917
tp2918
a(S'gracias'
p2919
(dp2920
S'NOUN'
p2921
F1.0
s(lp2922
(g93
I18
tp2923
atp2924
a(S'en'
p2925
(dp2926
g439
F0.0
sS'CONJ'
p2927
F1e-06
sS'ADP'
p2928
F0.999999
s(lp2929
(g81
I11
tp2930
atp2931
a(S'esta'
p2932
(dp2933
S'PRON'
p2934
F1.0
sS'VERB'
p2935
F0.0
s(lp2936
(g101
I12
tp2937
atp2938
a(S'c\xc3\xa1mara'
p2939
(dp2940
S'NOUN'
p2941
F1.0
s(lp2942
(g113
I16
tp2943
atp2944
a(S'por'
p2945
(dp2946
S'ADP'
p2947
F1.0
s(lp2948
(g121
I20
tp2949
atp2950
a(S'la'
p2951
(dp2952
S'NOUN'
p2953
F0.0
sS'PRON'
p2954
F0.0
sS'DET'
p2955
F0.999999
sg439
F0.0
s(lp2956
(g129
I21
tp2957
atp2958
a(S'labor'
p2959
(dp2960
S'NOUN'
p2961
F1.0
s(lp2962
(g136
I22
tp2963
atp2964
a(S'que'
p2965
(dp2966
g439
F1.4e-05
sS'CONJ'
p2967
F0.999986
s(lp2968
(g157
I23
tp2969
atp2970
a(S'ha'
p2971
(dp2972
S'VERB'
p2973
F1.0
s(lp2974
(g586
I24
tp2975
atp2976
a(S'realizado'
p2977
(dp2978
S'VERB'
p2979
F1.0
s(lp2980
(g164
I25
tp2981
atp2982
a(S'como'
p2983
(dp2984
S'ADV'
p2985
F0.186437
sS'CONJ'
p2986
F0.8135629999999999
s(lp2987
(g172
I26
tp2988
atp2989
a(S'comisario'
p2990
(dp2991
S'NOUN'
p2992
F1.0
s(lp2993
(g192
I27
tp2994
atp2995
a(S'en'
p2996
(dp2997
g439
F0.0
sS'CONJ'
p2998
F0.0
sS'ADP'
p2999
F1.0
s(lp3000
(g609
I28
tp3001
atp3002
a(S'los'
p3003
(dp3004
S'PRON'
p3005
F0.0
sS'DET'
p3006
F1.0
s(lp3007
(g618
I29
tp3008
atp3009
a(S'\xc3\xbaltimos'
p3010
(dp3011
S'ADJ'
p3012
F1.0
s(lp3013
(g199
I30
tp3014
atp3015
a(S'a\xc3\xb1os'
p3016
(dp3017
S'NOUN'
p3018
F1.0
s(lp3019
(g214
I32
tp3020
atp3021
a(g217
(dp3022
g219
F1.0
s(lp3023
(g217
I33
tp3024
atp3025
a(S'pero'
p3026
(dp3027
S'CONJ'
p3028
F0.99991
sS'NOUN'
p3029
F9e-05
s(lp3030
(g227
I34
tp3031
atp3032
a(S'la'
p3033
(dp3034
S'PRON'
p3035
F0.000187
sS'DET'
p3036
F0.999812
sS'NOUN'
p3037
F0.0
sg439
F0.0
s(lp3038
(g236
I35
tp3039
atp3040
a(S'comisi\xc3\xb3n'
p3041
(dp3042
S'NOUN'
p3043
F1.0
s(lp3044
(g243
I36
tp3045
atp3046
a(S'ha'
p3047
(dp3048
S'VERB'
p3049
F1.0
s(lp3050
(g250
I37
tp3051
atp3052
a(S'llevado'
p3053
(dp3054
S'VERB'
p3055
F1.0
s(lp3056
tp3057
a(g246
(dp3058
g439
F3.9e-05
sS'CONJ'
p3059
F9.6e-05
sS'ADP'
p3060
F0.999865
s(lp3061
tp3062
a(S'cabo'
p3063
(dp3064
S'NOUN'
p3065
F1.0
s(lp3066
(g266
I39
tp3067
atp3068
a(S'un'
p3069
(dp3070
g439
F0.002572
sS'DET'
p3071
F0.997428
s(lp3072
(g246
I40
tp3073
atp3074
a(S'gran'
p3075
(dp3076
S'ADJ'
p3077
F1.0
s(lp3078
(g279
I41
tp3079
atp3080
a(S'trabajo'
p3081
(dp3082
S'NOUN'
p3083
F1.0
s(lp3084
(g295
I43
tp3085
atp3086
a(S'para'
p3087
(dp3088
S'CONJ'
p3089
F0.177259
sS'ADP'
p3090
F0.822741
s(lp3091
(g303
I44
tp3092
atp3093
a(S'que'
p3094
(dp3095
g439
F3.9e-05
sS'CONJ'
p3096
F0.999961
s(lp3097
tp3098
a(S'europa'
p3099
(dp3100
S'NOUN'
p3101
F1.0
s(lp3102
(g332
I46
tp3103
atp3104
a(S'se'
p3105
(dp3106
S'PRON'
p3107
F1.0
sS'VERB'
p3108
F0.0
s(lp3109
tp3110
a(S'sit\xc3\xbae'
p3111
(dp3112
S'VERB'
p3113
F1.0
s(lp3114
(g310
I45
tp3115
atp3116
a(g246
(dp3117
g439
F6.3e-05
sS'CONJ'
p3118
F4e-06
sS'ADP'
p3119
F0.999933
s(lp3120
(g317
I47
tp3121
atp3122
a(S'la'
p3123
(dp3124
g439
F0.0
sS'PRON'
p3125
F0.0
sS'DET'
p3126
F0.999999
sS'NOUN'
p3127
F0.0
s(lp3128
(g341
I48
tp3129
atp3130
a(S'vanguardia'
p3131
(dp3132
S'NOUN'
p3133
F1.0
s(lp3134
(g358
I49
tp3135
atp3136
a(g217
(dp3137
g219
F1.0
s(lp3138
(g217
I50
tp3139
atp3140
a(S'y'
p3141
(dp3142
g439
F2.2e-05
sS'CONJ'
p3143
F0.999978
s(lp3144
(g369
I51
tp3145
atp3146
a(S'esta'
p3147
(dp3148
S'PRON'
p3149
F0.999991
sS'VERB'
p3150
F9e-06
s(lp3151
(g421
I59
tp3152
atp3153
a(S'c\xc3\xa1mara'
p3154
(dp3155
S'NOUN'
p3156
F1.0
s(lp3157
(g429
I60
tp3158
atp3159
a(S'debe'
p3160
(dp3161
S'VERB'
p3162
F1.0
s(lp3163
(g391
I54
tp3164
atp3165
a(S'felicitarle'
p3166
(dp3167
S'VERB'
p3168
F1.0
s(lp3169
(g406
I57
tp3170
atp3171
a(S'por'
p3172
(dp3173
S'ADP'
p3174
F1.0
s(lp3175
(g414
I58
tp3176
atp3177
a(S'dicha'
p3178
(dp3179
S'VERB'
p3180
F7e-06
sS'ADJ'
p3181
F0.999992
s(lp3182
(g376
I52
tp3183
atp3184
a(S'labor'
p3185
(dp3186
S'NOUN'
p3187
F1.0
s(lp3188
(g383
I53
tp3189
atp3190
a(g219
(dp3191
g219
F1.0
s(lp3192
(g219
I61
tp3193
atp3194
as.