(dp0
S'fr'
p1
(lp2
(S'madame'
p3
(dp4
S'NOUN'
p5
F1.0
s(lp6
tp7
a(S'la'
p8
(dp9
S'PRON'
p10
F5.2e-05
sS'DET'
p11
F0.999948
sS'NOUN'
p12
F0.0
s(lp13
(S'madam'
p14
I0
tp15
atp16
a(S'pr\xc3\xa9sidente'
p17
(dp18
S'NOUN'
p19
F1.0
s(lp20
(S'president'
p21
I1
tp22
atp23
a(S','
p24
(dp25
S'.'
p26
F1.0
s(lp27
(g24
I2
tp28
atp29
a(S'monsieur'
p30
(dp31
S'NOUN'
p32
F1.0
s(lp33
(S'mr'
p34
I3
tp35
atp36
a(S'ciolo\xc5\x9f'
p37
(dp38
S'NOUN'
p39
F0.142077
sS'VERB'
p40
F0.011365
sS'ADJ'
p41
F0.83544
sS'X'
p42
F0.011119
s(lp43
(S'ciolo\xc5\x9f'
p44
I4
tp45
atp46
a(g24
(dp47
g26
F1.0
s(lp48
(g24
I5
tp49
atp50
a(S'mesdames'
p51
(dp52
S'NOUN'
p53
F1.0
s(lp54
(S'ladies'
p55
I6
tp56
atp57
a(S'et'
p58
(dp59
S'CONJ'
p60
F1.0
s(lp61
(S'and'
p62
I7
tp63
atp64
a(S'messieurs'
p65
(dp66
S'NOUN'
p67
F1.0
s(lp68
(S'gentlemen'
p69
I8
tp70
atp71
a(g24
(dp72
g26
F1.0
s(lp73
(g24
I9
tp74
atp75
a(S'assurer'
p76
(dp77
S'VERB'
p78
F1.0
s(lp79
tp80
a(S'la'
p81
(dp82
S'PRON'
p83
F6e-06
sS'DET'
p84
F0.999994
sS'NOUN'
p85
F0.0
s(lp86
(S'providing'
p87
I10
tp88
atp89
a(S'protection'
p90
(dp91
S'NOUN'
p92
F1.0
s(lp93
(S'protection'
p94
I11
tp95
atp96
a(S'des'
p97
(dp98
S'DET'
p99
F2.1e-05
sS'ADP'
p100
F0.999979
s(lp101
(S'for'
p102
I12
tp103
atp104
a(S'abeilles'
p105
(dp106
S'NOUN'
p107
F1.0
s(lp108
(S'bees'
p109
I13
tp110
atp111
a(S'est'
p112
(dp113
S'VERB'
p114
F0.999872
sS'NOUN'
p115
F0.000128
s(lp116
(S'is'
p117
I14
tp118
atp119
a(S'tout'
p120
(dp121
S'ADV'
p122
F0.970852
sS'PRON'
p123
F0.023113
sS'NOUN'
p124
F0.006035
s(lp125
tp126
a(S'\xc3\xa0'
p127
(dp128
S'ADP'
p129
F1.0
s(lp130
tp131
a(S'fait'
p132
(dp133
S'ADJ'
p134
F0.03046
sS'VERB'
p135
F0.019784
sS'NOUN'
p136
F0.949756
s(lp137
(g117
I14
tp138
atp139
a(S'dans'
p140
(dp141
S'NOUN'
p142
F0.000174
sS'ADP'
p143
F0.999826
s(lp144
(S'in'
p145
I15
tp146
atp147
a(S"l'"
p148
(dp149
S'ADJ'
p150
F0.160724
sS'VERB'
p151
F0.06491699999999999
sS'NOUN'
p152
F0.774359
s(lp153
(S'the'
p154
I16
tp155
atp156
a(S'int\xc3\xa9r\xc3\xaat'
p157
(dp158
S'NOUN'
p159
F1.0
s(lp160
(S'interests'
p161
I18
tp162
atp163
a(S'du'
p164
(dp165
S'ADP'
p166
F1.0
s(lp167
(S'of'
p168
I19
tp169
atp170
a(S'secteur'
p171
(dp172
S'NOUN'
p173
F1.0
s(lp174
(S'sector'
p175
I22
tp176
atp177
a(S'agricole'
p178
(dp179
S'ADJ'
p180
F1.0
s(lp181
(S'agricultural'
p182
I21
tp183
atp184
a(g24
(dp185
g26
F1.0
s(lp186
tp187
a(S'et'
p188
(dp189
S'CONJ'
p190
F1.0
s(lp191
(S'and'
p192
I23
tp193
atp194
a(S'de'
p195
(dp196
S'ADP'
p197
F1.0
s(lp198
tp199
a(S'nombreux'
p200
(dp201
S'ADJ'
p202
F1.0
s(lp203
(S'many'
p204
I24
tp205
atp206
a(S'agriculteurs'
p207
(dp208
S'NOUN'
p209
F1.0
s(lp210
(S'farmers'
p211
I25
tp212
atp213
a(S'sont'
p214
(dp215
S'VERB'
p216
F1.0
s(lp217
(S'are'
p218
I26
tp219
atp220
a(S'\xc3\xa9galement'
p221
(dp222
S'ADV'
p223
F1.0
s(lp224
(S'also'
p225
I27
tp226
atp227
a(S'apiculteurs'
p228
(dp229
S'NOUN'
p230
F1.0
s(lp231
(S'beekeepers'
p232
I28
tp233
atp234
a(g26
(dp235
g26
F1.0
s(lp236
(g26
I29
tp237
atp238
asS'en'
p239
(lp240
(g14
(dp241
S'NOUN'
p242
F1.0
s(lp243
(g14
I0
tp244
atp245
a(g21
(dp246
S'NOUN'
p247
F1.0
s(lp248
(g21
I1
tp249
atp250
a(g24
(dp251
g26
F1.0
s(lp252
(g24
I2
tp253
atp254
a(g34
(dp255
S'ADJ'
p256
F0.023248
sS'NOUN'
p257
F0.9767529999999999
s(lp258
(g34
I3
tp259
atp260
a(g44
(dp261
S'ADJ'
p262
F0.019667
sS'NOUN'
p263
F0.980333
s(lp264
(g44
I4
tp265
atp266
a(g24
(dp267
g26
F1.0
s(lp268
(g24
I5
tp269
atp270
a(g55
(dp271
S'NOUN'
p272
F1.0
s(lp273
(g55
I6
tp274
atp275
a(g62
(dp276
S'CONJ'
p277
F0.999998
sS'NOUN'
p278
F2e-06
s(lp279
(g62
I7
tp280
atp281
a(g69
(dp282
S'NOUN'
p283
F1.0
s(lp284
(g69
I8
tp285
atp286
a(g24
(dp287
g26
F1.0
s(lp288
(g24
I9
tp289
atp290
a(g87
(dp291
S'VERB'
p292
F1.0
s(lp293
(g87
I10
tp294
atp295
a(g94
(dp296
S'NOUN'
p297
F1.0
s(lp298
(g94
I11
tp299
atp300
a(g102
(dp301
S'ADP'
p302
F1.0
s(lp303
(g102
I12
tp304
atp305
a(g109
(dp306
S'NOUN'
p307
F1.0
s(lp308
(g109
I13
tp309
atp310
a(g117
(dp311
S'VERB'
p312
F1.0
s(lp313
(g117
I14
tp314
atp315
a(g145
(dp316
S'ADV'
p317
F0.012783
sS'PRT'
p318
F0.002758
sS'ADP'
p319
F0.984459
s(lp320
(g145
I15
tp321
atp322
a(g154
(dp323
S'NOUN'
p324
F0.0
sS'DET'
p325
F1.0
s(lp326
(g154
I16
tp327
atp328
a(S'best'
p329
(dp330
S'ADV'
p331
F0.01472
sS'VERB'
p332
F3e-06
sS'ADJ'
p333
F0.985276
s(lp334
(g329
I17
tp335
atp336
a(g161
(dp337
S'VERB'
p338
F3e-06
sS'NOUN'
p339
F0.999997
s(lp340
(g161
I18
tp341
atp342
a(g168
(dp343
S'ADP'
p344
F1.0
s(lp345
(g168
I19
tp346
atp347
a(S'the'
p348
(dp349
S'NOUN'
p350
F1e-06
sS'DET'
p351
F0.999999
s(lp352
(g348
I20
tp353
atp354
a(g182
(dp355
S'ADJ'
p356
F1.0
s(lp357
(g182
I21
tp358
atp359
a(g175
(dp360
S'NOUN'
p361
F1.0
s(lp362
(g175
I22
tp363
atp364
a(g192
(dp365
S'CONJ'
p366
F1.0
sS'NOUN'
p367
F0.0
s(lp368
(g192
I23
tp369
atp370
a(g204
(dp371
S'ADV'
p372
F9.8e-05
sS'DET'
p373
F0.006042
sS'ADJ'
p374
F0.99386
s(lp375
(g204
I24
tp376
atp377
a(g211
(dp378
S'NOUN'
p379
F1.0
s(lp380
(g211
I25
tp381
atp382
a(g218
(dp383
S'VERB'
p384
F1.0
sS'NOUN'
p385
F0.0
s(lp386
(g218
I26
tp387
atp388
a(g225
(dp389
S'ADV'
p390
F1.0
s(lp391
(g225
I27
tp392
atp393
a(g232
(dp394
S'NOUN'
p395
F1.0
s(lp396
(g232
I28
tp397
atp398
a(g26
(dp399
g26
F1.0
s(lp400
(g26
I29
tp401
atp402
asS'nl'
p403
(lp404
(S'namens'
p405
(dp406
S'ADP'
p407
F1.0
s(lp408
(g14
I0
tp409
atp410
a(S'de'
p411
(dp412
S'DET'
p413
F1.0
s(lp414
tp415
a(S'alde-fractie'
p416
(dp417
S'ADV'
p418
F0.009697
sS'NOUN'
p419
F0.990303
s(lp420
(g21
I1
tp421
atp422
a(g26
(dp423
g26
F1.0
s(lp424
tp425
a(S'-'
p426
(dp427
g26
F1.0
s(lp428
(g14
I0
tp429
atp430
a(S'('
p431
(dp432
g26
F1.0
s(lp433
tp434
a(S'de'
p435
(dp436
S'DET'
p437
F1.0
s(lp438
(g21
I1
tp439
atp440
a(S')'
p441
(dp442
g26
F1.0
s(lp443
(g21
I1
tp444
atp445
a(S'mevrouw'
p446
(dp447
S'NOUN'
p448
F1.0
s(lp449
(g14
I0
tp450
atp451
a(S'de'
p452
(dp453
S'DET'
p454
F1.0
s(lp455
(g21
I1
tp456
atp457
a(S'voorzitter'
p458
(dp459
S'NOUN'
p460
F1.0
s(lp461
tp462
a(g24
(dp463
g26
F1.0
s(lp464
(g24
I2
tp465
atp466
a(S'mijnheer'
p467
(dp468
S'NOUN'
p469
F1.0
s(lp470
(g34
I3
tp471
atp472
a(S'ciolo\xc5\x9f'
p473
(dp474
S'ADJ'
p475
F0.199477
sS'NOUN'
p476
F0.8005229999999999
s(lp477
(g44
I4
tp478
atp479
a(g24
(dp480
g26
F1.0
s(lp481
(g24
I5
tp482
atp483
a(S'dames'
p484
(dp485
S'NOUN'
p486
F1.0
s(lp487
(g55
I6
tp488
atp489
a(S'en'
p490
(dp491
S'CONJ'
p492
F1.0
s(lp493
(g62
I7
tp494
atp495
a(S'heren'
p496
(dp497
S'NOUN'
p498
F1.0
s(lp499
(g69
I8
tp500
atp501
a(g24
(dp502
g26
F1.0
s(lp503
(g24
I9
tp504
atp505
a(S'de'
p506
(dp507
S'DET'
p508
F1.0
s(lp509
(g87
I10
tp510
atp511
a(S'bescherming'
p512
(dp513
S'NOUN'
p514
F1.0
s(lp515
(g94
I11
tp516
atp517
a(S'van'
p518
(dp519
S'ADP'
p520
F1.0
s(lp521
(g102
I12
tp522
atp523
a(S'de'
p524
(dp525
S'DET'
p526
F1.0
s(lp527
(g21
I1
tp528
atp529
a(S'bijen'
p530
(dp531
S'NOUN'
p532
F1.0
s(lp533
(g109
I13
tp534
atp535
a(S'is'
p536
(dp537
S'VERB'
p538
F1.0
s(lp539
(g117
I14
tp540
atp541
a(S'van'
p542
(dp543
S'ADP'
p544
F1.0
s(lp545
(g145
I15
tp546
atp547
a(S'het'
p548
(dp549
S'PRON'
p550
F0.005758
sS'DET'
p551
F0.994243
s(lp552
(g154
I16
tp553
atp554
a(S'allergrootste'
p555
(dp556
S'NOUN'
p557
F0.012661
sS'ADJ'
p558
F0.987339
s(lp559
(g329
I17
tp560
atp561
a(S'belang'
p562
(dp563
S'NOUN'
p564
F1.0
s(lp565
(g161
I18
tp566
atp567
a(S'voor'
p568
(dp569
S'ADV'
p570
F0.001935
sS'CONJ'
p571
F3e-06
sS'NOUN'
p572
F0.0
sS'ADP'
p573
F0.998062
s(lp574
(g168
I19
tp575
atp576
a(S'de'
p577
(dp578
S'DET'
p579
F1.0
s(lp580
(g348
I20
tp581
atp582
a(S'landbouw'
p583
(dp584
S'NOUN'
p585
F1.0
s(lp586
(g182
I21
tp587
atp588
a(g26
(dp589
g26
F1.0
s(lp590
(g192
I23
tp591
atp592
a(S'veel'
p593
(dp594
S'ADV'
p595
F0.222056
sS'NUM'
p596
F0.777497
sS'VERB'
p597
F0.000447
s(lp598
(g204
I24
tp599
atp600
a(S'boeren'
p601
(dp602
S'VERB'
p603
F0.10095799999999999
sS'NOUN'
p604
F0.899042
s(lp605
(g211
I25
tp606
atp607
a(S'zijn'
p608
(dp609
S'PRON'
p610
F5e-06
sS'VERB'
p611
F0.999916
sS'NOUN'
p612
F7.9e-05
s(lp613
(g218
I26
tp614
atp615
a(S'ook'
p616
(dp617
S'ADV'
p618
F1.0
s(lp619
(g225
I27
tp620
atp621
a(S'imker'
p622
(dp623
S'NOUN'
p624
F1.0
s(lp625
(g232
I28
tp626
atp627
a(g26
(dp628
g26
F1.0
s(lp629
(g26
I29
tp630
atp631
asS'de'
p632
(lp633
(S'im'
p634
(dp635
S'ADP'
p636
F1.0
s(lp637
(g175
I22
tp638
atp639
a(S'namen'
p640
(dp641
S'ADJ'
p642
F0.000231
sS'NOUN'
p643
F0.999726
s(lp644
(g44
I4
tp645
atp646
a(S'der'
p647
(dp648
S'PRON'
p649
F2.1e-05
sS'DET'
p650
F0.99997
s(lp651
tp652
a(S'alde-fraktion'
p653
(dp654
S'ADJ'
p655
F0.000211
sS'NOUN'
p656
F0.999729
s(lp657
tp658
a(g26
(dp659
g26
F1.0
s(lp660
(g192
I23
tp661
atp662
a(g426
(dp663
g26
F1.0
s(lp664
(g218
I26
tp665
atp666
a(S'frau'
p667
(dp668
S'NOUN'
p669
F0.028238
sS'ADJ'
p670
F0.947263
s(lp671
(g14
I0
tp672
atp673
a(S'pr\xc3\xa4sidentin'
p674
(dp675
S'NOUN'
p676
F0.994209
s(lp677
(g21
I1
tp678
atp679
a(g24
(dp680
g26
F1.0
s(lp681
(g24
I2
tp682
atp683
a(S'herr'
p684
(dp685
S'VERB'
p686
F0.07311
sS'NOUN'
p687
F0.858922
s(lp688
(g34
I3
tp689
atp690
a(S'kommissar'
p691
(dp692
S'NOUN'
p693
F0.201385
sS'ADJ'
p694
F0.726126
s(lp695
(g44
I4
tp696
atp697
a(g24
(dp698
g26
F1.0
s(lp699
(g24
I5
tp700
atp701
a(S'verehrte'
p702
(dp703
S'VERB'
p704
F0.549995
sS'ADJ'
p705
F0.450005
s(lp706
(g55
I6
tp707
atp708
a(S'kollegen'
p709
(dp710
S'ADJ'
p711
F0.127749
sS'NOUN'
p712
F0.749663
s(lp713
tp714
a(S'!'
p715
(dp716
g26
F1.0
s(lp717
(g69
I8
tp718
atp719
a(S'der'
p720
(dp721
S'PRON'
p722
F0.000813
sS'DET'
p723
F0.99894
s(lp724
(g87
I10
tp725
atp726
a(S'schutz'
p727
(dp728
S'ADJ'
p729
F0.011948
sS'NOUN'
p730
F0.972522
s(lp731
(g94
I11
tp732
atp733
a(S'der'
p734
(dp735
S'PRON'
p736
F9.5e-05
sS'DET'
p737
F0.999868
s(lp738
(g102
I12
tp739
atp740
a(S'bienen'
p741
(dp742
S'ADJ'
p743
F1.0
s(lp744
(g109
I13
tp745
atp746
a(S'liegt'
p747
(dp748
S'VERB'
p749
F1.0
s(lp750
(g117
I14
tp751
atp752
a(S'im'
p753
(dp754
S'ADP'
p755
F1.0
s(lp756
(g145
I15
tp757
atp758
a(S'ureigensten'
p759
(dp760
S'ADJ'
p761
F1.0
s(lp762
(g329
I17
tp763
atp764
a(S'interesse'
p765
(dp766
S'VERB'
p767
F0.000461
sS'NOUN'
p768
F0.99952
s(lp769
(g161
I18
tp770
atp771
a(S'der'
p772
(dp773
S'PRON'
p774
F0.000106
sS'DET'
p775
F0.999864
s(lp776
(g348
I20
tp777
atp778
a(S'landwirtschaft'
p779
(dp780
S'ADJ'
p781
F0.024686
sS'NOUN'
p782
F0.966277
s(lp783
(g182
I21
tp784
atp785
a(g26
(dp786
g26
F1.0
s(lp787
(g26
I29
tp788
atp789
asS'it'
p790
(lp791
(S'signora'
p792
(dp793
S'NOUN'
p794
F1.0
s(lp795
(g14
I0
tp796
atp797
a(S'presidente'
p798
(dp799
S'NOUN'
p800
F1.0
s(lp801
(g21
I1
tp802
atp803
a(g24
(dp804
g26
F1.0
s(lp805
(g24
I2
tp806
atp807
a(S'signor'
p808
(dp809
S'NOUN'
p810
F1.0
s(lp811
(g34
I3
tp812
atp813
a(S'commissario'
p814
(dp815
S'VERB'
p816
F0.118816
sS'NOUN'
p817
F0.881184
s(lp818
(g44
I4
tp819
atp820
a(g24
(dp821
g26
F1.0
s(lp822
(g24
I5
tp823
atp824
a(S'onorevoli'
p825
(dp826
S'NOUN'
p827
F0.040819
sS'ADJ'
p828
F0.959181
s(lp829
(g55
I6
tp830
atp831
a(S'colleghi'
p832
(dp833
S'VERB'
p834
F0.01303
sS'NOUN'
p835
F0.986969
s(lp836
(g69
I8
tp837
atp838
a(g24
(dp839
g26
F1.0
s(lp840
(g24
I9
tp841
atp842
a(S'proteggere'
p843
(dp844
S'VERB'
p845
F1.0
s(lp846
(g94
I11
tp847
atp848
a(S'le'
p849
(dp850
S'PRON'
p851
F0.0
sS'DET'
p852
F1.0
s(lp853
tp854
a(S'api'
p855
(dp856
S'NOUN'
p857
F1.0
s(lp858
(g109
I13
tp859
atp860
a(S'\xc3\xa8'
p861
(dp862
S'VERB'
p863
F1.0
s(lp864
(g117
I14
tp865
atp866
a(S"nell'"
p867
(dp868
S'ADJ'
p869
F0.010298
sS'VERB'
p870
F0.103889
sS'NOUN'
p871
F0.885814
s(lp872
(g145
I15
tp873
atp874
a(S'interesse'
p875
(dp876
S'NOUN'
p877
F1.0
s(lp878
(g161
I18
tp879
atp880
a(S'del'
p881
(dp882
S'DEF'
p883
F0.001251
sS'ADP'
p884
F0.998749
s(lp885
(g168
I19
tp886
atp887
a(S'settore'
p888
(dp889
S'ADJ'
p890
F0.002309
sS'NOUN'
p891
F0.997691
s(lp892
(g175
I22
tp893
atp894
a(S'agricolo'
p895
(dp896
S'ADJ'
p897
F1.0
s(lp898
(g182
I21
tp899
atp900
a(g24
(dp901
g26
F1.0
s(lp902
tp903
a(S'considerando'
p904
(dp905
S'VERB'
p906
F1.0
s(lp907
tp908
a(S'poi'
p909
(dp910
S'ADV'
p911
F0.99824
sS'NOUN'
p912
F0.00176
s(lp913
(g44
I4
tp914
atp915
a(S'che'
p916
(dp917
S'PRON'
p918
F0.470501
sS'CONJ'
p919
F0.446205
sS'ADJ'
p920
F0.083294
s(lp921
(g192
I23
tp922
atp923
a(S'numerosi'
p924
(dp925
S'ADJ'
p926
F1.0
s(lp927
(g204
I24
tp928
atp929
a(S'agricoltori'
p930
(dp931
S'NOUN'
p932
F1.0
s(lp933
(g211
I25
tp934
atp935
a(S'sono'
p936
(dp937
S'VERB'
p938
F0.999812
sS'NOUN'
p939
F0.000188
s(lp940
(g218
I26
tp941
atp942
a(S'anche'
p943
(dp944
S'ADV'
p945
F0.999972
sS'NOUN'
p946
F2.8e-05
s(lp947
(g225
I27
tp948
atp949
a(S'apicoltori'
p950
(dp951
S'NOUN'
p952
F1.0
s(lp953
(g232
I28
tp954
atp955
a(g26
(dp956
g26
F1.0
s(lp957
(g26
I29
tp958
atp959
asS'sk'
p960
(lp961
(S'v\xc3\xa1\xc5\xbeen\xc3\xa1'
p962
(dp963
S'VERB'
p964
F0.607185
sS'ADJ'
p965
F0.392815
s(lp966
tp967
a(S'pani'
p968
(dp969
S'NOUN'
p970
F1.0
s(lp971
(g14
I0
tp972
atp973
a(S'predsedaj\xc3\xbaca'
p974
(dp975
S'NOUN'
p976
F0.030061
sS'VERB'
p977
F0.9221390000000002
sS'ADJ'
p978
F0.0478
s(lp979
(g21
I1
tp980
atp981
a(g24
(dp982
g26
F1.0
s(lp983
(g24
I2
tp984
atp985
a(S'p\xc3\xa1n'
p986
(dp987
S'NOUN'
p988
F1.0
s(lp989
(g34
I3
tp990
atp991
a(S'ciolo\xc5\x9f'
p992
(dp993
S'ADJ'
p994
F0.000986
sg42
F0.00942
sS'VERB'
p995
F0.027105
sS'NOUN'
p996
F0.96249
s(lp997
(g44
I4
tp998
atp999
a(g24
(dp1000
g26
F1.0
s(lp1001
(g24
I5
tp1002
atp1003
a(S'd\xc3\xa1my'
p1004
(dp1005
S'NOUN'
p1006
F1.0
s(lp1007
(g55
I6
tp1008
atp1009
a(S'a'
p1010
(dp1011
g42
F0.0013250000000000002
sS'CONJ'
p1012
F0.997971
sS'NOUN'
p1013
F0.000112
sS'ADP'
p1014
F0.000533
sS'PRT'
p1015
F5.9e-05
s(lp1016
(g62
I7
tp1017
atp1018
a(S'p\xc3\xa1ni'
p1019
(dp1020
S'NOUN'
p1021
F1.0
s(lp1022
(g69
I8
tp1023
atp1024
a(g24
(dp1025
g26
F1.0
s(lp1026
(g24
I9
tp1027
atp1028
a(S'poskytnutie'
p1029
(dp1030
S'NOUN'
p1031
F1.0
s(lp1032
(g87
I10
tp1033
atp1034
a(S'ochrany'
p1035
(dp1036
S'NOUN'
p1037
F1.0
s(lp1038
(g94
I11
tp1039
atp1040
a(S'v\xc4\x8del\xc3\xa1m'
p1041
(dp1042
S'NOUN'
p1043
F1.0
s(lp1044
(g109
I13
tp1045
atp1046
a(S'je'
p1047
(dp1048
g42
F0.00014199999999999998
sS'VERB'
p1049
F0.999837
sS'PRON'
p1050
F2.1e-05
s(lp1051
(g117
I14
tp1052
atp1053
a(S'v'
p1054
(dp1055
g42
F0.00012099999999999999
sS'ADP'
p1056
F0.999878
s(lp1057
(g145
I15
tp1058
atp1059
a(S'najlep\xc5\xa1om'
p1060
(dp1061
S'ADJ'
p1062
F1.0
s(lp1063
(g329
I17
tp1064
atp1065
a(S'z\xc3\xa1ujme'
p1066
(dp1067
S'NOUN'
p1068
F1.0
s(lp1069
(g161
I18
tp1070
atp1071
a(S'odvetvia'
p1072
(dp1073
S'NOUN'
p1074
F1.0
s(lp1075
(g175
I22
tp1076
atp1077
a(S'po\xc4\xbenohospod\xc3\xa1rstva'
p1078
(dp1079
S'NOUN'
p1080
F1.0
s(lp1081
(g182
I21
tp1082
atp1083
a(g1010
(dp1084
g42
F0.0021599999999999996
sS'CONJ'
p1085
F0.996693
sS'NOUN'
p1086
F7.099999999999999e-05
sS'ADP'
p1087
F0.00107
sS'PRT'
p1088
F5e-06
s(lp1089
(g192
I23
tp1090
atp1091
a(S'mnoh\xc3\xad'
p1092
(dp1093
S'NUM'
p1094
F1.0
s(lp1095
(g204
I24
tp1096
atp1097
a(S'po\xc4\xbenohospod\xc3\xa1ri'
p1098
(dp1099
S'NOUN'
p1100
F1.0
s(lp1101
(g211
I25
tp1102
atp1103
a(S's\xc3\xba'
p1104
(dp1105
S'VERB'
p1106
F1.0
s(lp1107
(g218
I26
tp1108
atp1109
a(S'aj'
p1110
(dp1111
g42
F0.88843
sS'CONJ'
p1112
F0.11157
s(lp1113
(g225
I27
tp1114
atp1115
a(S'v\xc4\x8del\xc3\xa1ri'
p1116
(dp1117
S'NOUN'
p1118
F1.0
s(lp1119
(g232
I28
tp1120
atp1121
a(g26
(dp1122
g26
F1.0
s(lp1123
(g26
I29
tp1124
atp1125
asS'pl'
p1126
(lp1127
(S'pani'
p1128
(dp1129
S'NOUN'
p1130
F0.999999
s(lp1131
tp1132
a(S'przewodnicz\xc4\x85ca'
p1133
(dp1134
S'NOUN'
p1135
F1.0
s(lp1136
(g14
I0
tp1137
atp1138
a(g24
(dp1139
g42
F0.0
sg26
F1.0
s(lp1140
(g24
I2
tp1141
atp1142
a(S'panie'
p1143
(dp1144
S'NOUN'
p1145
F1.0
s(lp1146
(g34
I3
tp1147
atp1148
a(S'komisarzu'
p1149
(dp1150
S'NOUN'
p1151
F1.0
s(lp1152
tp1153
a(S'ciolo\xc5\x9f'
p1154
(dp1155
S'ADJ'
p1156
F0.0009999999999999998
sS'VERB'
p1157
F0.030236
sS'NOUN'
p1158
F0.968664
sg42
F0.000101
s(lp1159
(g44
I4
tp1160
atp1161
a(g24
(dp1162
g42
F0.0
sg26
F1.0
s(lp1163
(g24
I5
tp1164
atp1165
a(S'panie'
p1166
(dp1167
S'NOUN'
p1168
F1.0000010000000001
s(lp1169
(g55
I6
tp1170
atp1171
a(S'i'
p1172
(dp1173
S'PRT'
p1174
F0.003492
sS'CONJ'
p1175
F0.99649
sS'PRON'
p1176
F6e-06
sS'NOUN'
p1177
F5.999999999999999e-06
sg42
F7e-06
s(lp1178
(g62
I7
tp1179
atp1180
a(S'panowie'
p1181
(dp1182
S'NOUN'
p1183
F1.0
s(lp1184
tp1185
a(g715
(dp1186
g26
F1.0
s(lp1187
(g69
I8
tp1188
atp1189
a(S'zapewnienie'
p1190
(dp1191
S'VERB'
p1192
F0.948733
sS'NOUN'
p1193
F0.051268
s(lp1194
(g87
I10
tp1195
atp1196
a(S'ochrony'
p1197
(dp1198
S'NOUN'
p1199
F1.0
s(lp1200
(g94
I11
tp1201
atp1202
a(S'pszczo\xc5\x82om'
p1203
(dp1204
S'ADV'
p1205
F0.002152
sS'NOUN'
p1206
F0.946738
sS'PRT'
p1207
F0.008611
sS'VERB'
p1208
F0.0008510000000000001
sg42
F0.001738
sS'ADJ'
p1209
F0.039914
s(lp1210
(g109
I13
tp1211
atp1212
a(S'le\xc5\xbcy'
p1213
(dp1214
S'VERB'
p1215
F1.0
s(lp1216
(g117
I14
tp1217
atp1218
a(S'w'
p1219
(dp1220
S'ADJ'
p1221
F0.0
sg42
F0.0
sS'NOUN'
p1222
F0.0
sS'ADP'
p1223
F1.0
s(lp1224
(g145
I15
tp1225
atp1226
a(S'interesie'
p1227
(dp1228
S'NOUN'
p1229
F1.0
s(lp1230
(g161
I18
tp1231
atp1232
a(S'ca\xc5\x82ego'
p1233
(dp1234
S'ADJ'
p1235
F1.0
s(lp1236
(g348
I20
tp1237
atp1238
a(S'sektora'
p1239
(dp1240
S'NOUN'
p1241
F1.0
s(lp1242
(g175
I22
tp1243
atp1244
a(S'rolnego'
p1245
(dp1246
S'ADJ'
p1247
F1.0
s(lp1248
(g182
I21
tp1249
atp1250
a(g24
(dp1251
g42
F0.0
sg26
F1.0
s(lp1252
tp1253
a(g1010
(dp1254
S'ADV'
p1255
F0.000697
sS'NOUN'
p1256
F0.00031
sS'ADP'
p1257
F0.000384
sS'PRT'
p1258
F0.01158
sS'VERB'
p1259
F0.00022400000000000002
sg42
F0.000713
sS'CONJ'
p1260
F0.986075
sS'ADJ'
p1261
F1.6000000000000003e-05
s(lp1262
(g192
I23
tp1263
atp1264
a(S'wielu'
p1265
(dp1266
S'NUM'
p1267
F1.000002
s(lp1268
(g204
I24
tp1269
atp1270
a(S'rolnik\xc3\xb3w'
p1271
(dp1272
S'NOUN'
p1273
F1.0
s(lp1274
(g211
I25
tp1275
atp1276
a(S'jest'
p1277
(dp1278
S'VERB'
p1279
F1.0
s(lp1280
(g218
I26
tp1281
atp1282
a(S'r\xc3\xb3wnie\xc5\xbc'
p1283
(dp1284
S'PRT'
p1285
F0.97956
sS'CONJ'
p1286
F0.02044
s(lp1287
(g225
I27
tp1288
atp1289
a(S'pszczelarzami'
p1290
(dp1291
S'ADV'
p1292
F0.005087
sS'NOUN'
p1293
F0.9548639999999999
sS'PRT'
p1294
F0.001581
sS'VERB'
p1295
F0.020567000000000002
sg42
F0.002413
sS'ADJ'
p1296
F0.015488
s(lp1297
(g232
I28
tp1298
atp1299
a(g26
(dp1300
g26
F1.0
s(lp1301
(g26
I29
tp1302
atp1303
asS'sl'
p1304
(lp1305
(S'gospa'
p1306
(dp1307
S'NOUN'
p1308
F1.0
s(lp1309
(g14
I0
tp1310
atp1311
a(S'predsednica'
p1312
(dp1313
S'NOUN'
p1314
F1.0
s(lp1315
(g21
I1
tp1316
atp1317
a(g24
(dp1318
g26
F1.0
s(lp1319
(g24
I2
tp1320
atp1321
a(S'gospod'
p1322
(dp1323
S'NOUN'
p1324
F1.0
s(lp1325
(g34
I3
tp1326
atp1327
a(S'ciolo\xc5\x9f'
p1328
(dp1329
S'ADV'
p1330
F0.000619
sS'NOUN'
p1331
F0.5314400000000001
sS'NUM'
p1332
F0.062154
sS'VERB'
p1333
F0.15213899999999997
sg42
F0.24721700000000002
sS'ADJ'
p1334
F0.006432000000000001
s(lp1335
(g44
I4
tp1336
atp1337
a(g24
(dp1338
g26
F1.0
s(lp1339
(g24
I5
tp1340
atp1341
a(S'gospe'
p1342
(dp1343
S'NOUN'
p1344
F1.0
s(lp1345
(g55
I6
tp1346
atp1347
a(S'in'
p1348
(dp1349
S'ADV'
p1350
F2.2e-05
sg42
F1.4e-05
sS'CONJ'
p1351
F0.999957
sS'NOUN'
p1352
F7e-06
s(lp1353
(g62
I7
tp1354
atp1355
a(S'gospodje'
p1356
(dp1357
S'NOUN'
p1358
F1.0
s(lp1359
(g69
I8
tp1360
atp1361
a(g24
(dp1362
g26
F1.0
s(lp1363
(g24
I9
tp1364
atp1365
a(S'zagotavljanje'
p1366
(dp1367
S'NOUN'
p1368
F1.0
s(lp1369
(g87
I10
tp1370
atp1371
a(S'za\xc5\xa1\xc4\x8dite'
p1372
(dp1373
S'NOUN'
p1374
F1.0
s(lp1375
(g94
I11
tp1376
atp1377
a(S'za'
p1378
(dp1379
S'ADV'
p1380
F0.000114
sg42
F1.6e-05
sS'ADP'
p1381
F0.9998710000000001
s(lp1382
(g102
I12
tp1383
atp1384
a(S'\xc4\x8debele'
p1385
(dp1386
S'NOUN'
p1387
F1.0000010000000001
s(lp1388
(g109
I13
tp1389
atp1390
a(S'je'
p1391
(dp1392
S'PRON'
p1393
F0.000443
sS'VERB'
p1394
F0.999497
sg42
F6e-05
s(lp1395
(g117
I14
tp1396
atp1397
a(g1054
(dp1398
S'ADP'
p1399
F1.0
s(lp1400
(g145
I15
tp1401
atp1402
a(S'najbolj\xc5\xa1em'
p1403
(dp1404
S'ADJ'
p1405
F1.0
s(lp1406
(g329
I17
tp1407
atp1408
a(S'interesu'
p1409
(dp1410
S'NOUN'
p1411
F1.0
s(lp1412
(g161
I18
tp1413
atp1414
a(S'kmetijskega'
p1415
(dp1416
S'ADJ'
p1417
F1.0
s(lp1418
(g182
I21
tp1419
atp1420
a(S'sektorja'
p1421
(dp1422
S'NOUN'
p1423
F1.0
s(lp1424
(g175
I22
tp1425
atp1426
a(S'in'
p1427
(dp1428
S'ADV'
p1429
F0.000182
sg42
F6e-06
sS'CONJ'
p1430
F0.999809
sS'NOUN'
p1431
F3e-06
s(lp1432
(g192
I23
tp1433
atp1434
a(S'\xc5\xa1tevilni'
p1435
(dp1436
S'ADJ'
p1437
F1.0
s(lp1438
(g204
I24
tp1439
atp1440
a(S'kmetje'
p1441
(dp1442
S'NOUN'
p1443
F1.0
s(lp1444
(g211
I25
tp1445
atp1446
a(S'so'
p1447
(dp1448
g42
F2.5e-05
sS'VERB'
p1449
F0.999974
s(lp1450
(g218
I26
tp1451
atp1452
a(S'tudi'
p1453
(dp1454
S'PRT'
p1455
F1.0
s(lp1456
(g225
I27
tp1457
atp1458
a(S'\xc4\x8debelarji'
p1459
(dp1460
S'NOUN'
p1461
F1.0
s(lp1462
(g232
I28
tp1463
atp1464
a(g26
(dp1465
g26
F1.0
s(lp1466
(g26
I29
tp1467
atp1468
asS'es'
p1469
(lp1470
(S'se\xc3\xb1ora'
p1471
(dp1472
S'NOUN'
p1473
F1.0
s(lp1474
(g14
I0
tp1475
atp1476
a(S'presidenta'
p1477
(dp1478
S'NOUN'
p1479
F1.0
s(lp1480
(g21
I1
tp1481
atp1482
a(g24
(dp1483
g26
F1.0
s(lp1484
(g24
I2
tp1485
atp1486
a(S'se\xc3\xb1or'
p1487
(dp1488
S'NOUN'
p1489
F1.0
s(lp1490
(g34
I3
tp1491
atp1492
a(S'ciolo\xc5\x9f'
p1493
(dp1494
S'ADJ'
p1495
F0.115278
sS'VERB'
p1496
F0.493244
sS'NOUN'
p1497
F0.391478
s(lp1498
(g44
I4
tp1499
atp1500
a(g24
(dp1501
g26
F1.0
s(lp1502
(g24
I5
tp1503
atp1504
a(S'se\xc3\xb1or\xc3\xadas'
p1505
(dp1506
S'NOUN'
p1507
F1.0
s(lp1508
(g55
I6
tp1509
atp1510
a(g24
(dp1511
g26
F1.0
s(lp1512
(g24
I9
tp1513
atp1514
a(S'proporcionar'
p1515
(dp1516
S'VERB'
p1517
F1.0
s(lp1518
(g87
I10
tp1519
atp1520
a(S'protecci\xc3\xb3n'
p1521
(dp1522
S'NOUN'
p1523
F1.0
s(lp1524
(g94
I11
tp1525
atp1526
a(g1010
(dp1527
g42
F0.000427
sS'CONJ'
p1528
F3e-06
sS'ADP'
p1529
F0.99957
s(lp1530
(g102
I12
tp1531
atp1532
a(S'las'
p1533
(dp1534
S'PRON'
p1535
F0.0
sS'DET'
p1536
F1.0
s(lp1537
tp1538
a(S'abejas'
p1539
(dp1540
S'NOUN'
p1541
F1.0
s(lp1542
(g109
I13
tp1543
atp1544
a(S'es'
p1545
(dp1546
S'VERB'
p1547
F1.0
s(lp1548
(g117
I14
tp1549
atp1550
a(S'lo'
p1551
(dp1552
S'PRON'
p1553
F2.2e-05
sS'DET'
p1554
F0.999978
s(lp1555
(g154
I16
tp1556
atp1557
a(S'm\xc3\xa1s'
p1558
(dp1559
S'ADV'
p1560
F0.999991
sS'CONJ'
p1561
F9e-06
s(lp1562
tp1563
a(S'conveniente'
p1564
(dp1565
S'ADJ'
p1566
F1.0
s(lp1567
(g329
I17
tp1568
atp1569
a(S'para'
p1570
(dp1571
S'CONJ'
p1572
F0.002185
sS'ADP'
p1573
F0.997815
s(lp1574
(g168
I19
tp1575
atp1576
a(S'el'
p1577
(dp1578
S'PRON'
p1579
F5e-06
sS'DET'
p1580
F0.999995
s(lp1581
(g348
I20
tp1582
atp1583
a(S'sector'
p1584
(dp1585
S'NOUN'
p1586
F1.0
s(lp1587
(g175
I22
tp1588
atp1589
a(S'agr\xc3\xadcola'
p1590
(dp1591
S'ADJ'
p1592
F1.0
s(lp1593
(g182
I21
tp1594
atp1595
a(S'y'
p1596
(dp1597
g42
F5e-06
sS'CONJ'
p1598
F0.999995
s(lp1599
(g192
I23
tp1600
atp1601
a(S'muchos'
p1602
(dp1603
S'ADJ'
p1604
F1.0
s(lp1605
(g204
I24
tp1606
atp1607
a(S'agricultores'
p1608
(dp1609
S'NOUN'
p1610
F1.0
s(lp1611
(g211
I25
tp1612
atp1613
a(S'son'
p1614
(dp1615
S'VERB'
p1616
F0.99834
sS'NOUN'
p1617
F0.00166
s(lp1618
(g218
I26
tp1619
atp1620
a(S'adem\xc3\xa1s'
p1621
(dp1622
S'ADV'
p1623
F1.0
s(lp1624
(g225
I27
tp1625
atp1626
a(S'apicultores'
p1627
(dp1628
S'NOUN'
p1629
F1.0
s(lp1630
(g232
I28
tp1631
atp1632
a(g26
(dp1633
g26
F1.0
s(lp1634
(g26
I29
tp1635
atp1636
as.