(dp0
S'fr'
p1
(lp2
(S"c'"
p3
(dp4
S'ADJ'
p5
F0.079749
sS'VERB'
p6
F0.5393100000000001
sS'NOUN'
p7
F0.380941
s(lp8
(S'this'
p9
I0
tp10
atp11
a(S'est'
p12
(dp13
S'VERB'
p14
F0.999387
sS'NOUN'
p15
F0.000613
s(lp16
(S'is'
p17
I1
tp18
atp19
a(S'une'
p20
(dp21
S'NOUN'
p22
F1.2e-05
sS'NUM'
p23
F0.00393
sS'DET'
p24
F0.996059
s(lp25
tp26
a(S'question'
p27
(dp28
S'NOUN'
p29
F1.0
s(lp30
(S'something'
p31
I2
tp32
atp33
a(S'que'
p34
(dp35
S'ADV'
p36
F0.000965
sS'PRON'
p37
F0.44677300000000003
sS'CONJ'
p38
F0.552262
s(lp39
tp40
a(S'nous'
p41
(dp42
S'PRON'
p43
F1.0
s(lp44
(S'we'
p45
I3
tp46
atp47
a(S'devons'
p48
(dp49
S'VERB'
p50
F0.999987
sS'NOUN'
p51
F1.3e-05
s(lp52
(S'must'
p53
I4
tp54
atp55
a(S'examiner'
p56
(dp57
S'VERB'
p58
F1.0
s(lp59
(S'look'
p60
I5
tp61
atp62
a(S'avec'
p63
(dp64
S'ADV'
p65
F0.082947
sS'ADP'
p66
F0.917053
s(lp67
(S'carefully'
p68
I8
tp69
atp70
a(S'beaucoup'
p71
(dp72
S'ADV'
p73
F1.0
s(lp74
tp75
a(S"d'"
p76
(dp77
S'NOUN'
p78
F0.037162
sS'VERB'
p79
F0.7565829999999999
sS'ADJ'
p80
F0.206256
s(lp81
tp82
a(S'attention'
p83
(dp84
S'NOUN'
p85
F1.0
s(lp86
(g68
I8
tp87
atp88
a(S','
p89
(dp90
S'.'
p91
F1.0
s(lp92
(g89
I9
tp93
atp94
a(S'car'
p95
(dp96
S'CONJ'
p97
F0.996098
sS'NOUN'
p98
F0.003902
s(lp99
(S'because'
p100
I10
tp101
atp102
a(S'il'
p103
(dp104
S'PRON'
p105
F1.0
s(lp106
(S'there'
p107
I11
tp108
atp109
a(S"n'"
p110
(dp111
S'ADJ'
p112
F0.000625
sS'VERB'
p113
F0.9973000000000002
sS'NOUN'
p114
F0.002077
s(lp115
tp116
a(S'existe'
p117
(dp118
S'VERB'
p119
F1.0
s(lp120
(g107
I11
tp121
atp122
a(S'pas'
p123
(dp124
S'ADV'
p125
F0.996431
sS'NOUN'
p126
F0.003569
s(lp127
(S'no'
p128
I13
tp129
atp130
a(S'de'
p131
(dp132
S'ADP'
p133
F1.0
s(lp134
tp135
a(S'pr\xc3\xa9c\xc3\xa9dent'
p136
(dp137
S'NOUN'
p138
F0.41581
sS'ADJ'
p139
F0.58419
s(lp140
(S'precedents'
p141
I14
tp142
atp143
a(S'dans'
p144
(dp145
S'NOUN'
p146
F5.3e-05
sS'ADP'
p147
F0.999947
s(lp148
(S'in'
p149
I15
tp150
atp151
a(S'le'
p152
(dp153
S'PRON'
p154
F0.000232
sS'DET'
p155
F0.999768
s(lp156
tp157
a(S'droit'
p158
(dp159
S'ADV'
p160
F0.002475
sS'ADJ'
p161
F0.016225
sS'NOUN'
p162
F0.9813
s(lp163
(S'law'
p164
I17
tp165
atp166
a(S'europ\xc3\xa9en'
p167
(dp168
S'NOUN'
p169
F0.02209
sS'ADJ'
p170
F0.97791
s(lp171
(S'european'
p172
I16
tp173
atp174
a(S'fixant'
p175
(dp176
S'VERB'
p177
F1.0
s(lp178
(S'establishing'
p179
I18
tp180
atp181
a(S'le'
p182
(dp183
S'PRON'
p184
F3e-06
sS'DET'
p185
F0.999997
s(lp186
(S'how'
p187
I19
tp188
atp189
a(S'temps'
p190
(dp191
S'NOUN'
p192
F1.0
s(lp193
(S'long'
p194
I20
tp195
atp196
a(S'de'
p197
(dp198
S'ADP'
p199
F1.0
s(lp200
tp201
a(S'travail'
p202
(dp203
S'NOUN'
p204
F1.0
s(lp205
(S'work'
p206
I25
tp207
atp208
a(S"d'"
p209
(dp210
S'NOUN'
p211
F0.032441
sS'VERB'
p212
F0.694014
sS'ADJ'
p213
F0.273544
s(lp214
(S'for'
p215
I26
tp216
atp217
a(S'un'
p218
(dp219
S'NOUN'
p220
F0.003124
sS'NUM'
p221
F0.012793
sS'DET'
p222
F0.984083
s(lp223
(S'a'
p224
I21
tp225
atp226
a(S'ind\xc3\xa9pendant'
p227
(dp228
S'NOUN'
p229
F0.369799
sS'ADJ'
p230
F0.630201
s(lp231
(S'self-employed'
p232
I22
tp233
atp234
a(S'dans'
p235
(dp236
S'NOUN'
p237
F5.8e-05
sS'ADP'
p238
F0.999942
s(lp239
(S'in'
p240
I27
tp241
atp242
a(S'un'
p243
(dp244
S'NOUN'
p245
F7.4e-05
sS'NUM'
p246
F0.028683
sS'DET'
p247
F0.971243
s(lp248
(S'an'
p249
I28
tp250
atp251
a(S'bureau'
p252
(dp253
S'NOUN'
p254
F1.0
s(lp255
(S'office'
p256
I29
tp257
atp258
a(S'ou'
p259
(dp260
S'CONJ'
p261
F1.0
s(lp262
(S'or'
p263
I30
tp264
atp265
a(S'un'
p266
(dp267
S'NOUN'
p268
F1.2e-05
sS'NUM'
p269
F0.014281
sS'DET'
p270
F0.985708
s(lp271
tp272
a(S'laboratoire'
p273
(dp274
S'NOUN'
p275
F1.0
s(lp276
(S'laboratory'
p277
I31
tp278
atp279
a(g91
(dp280
g91
F1.0
s(lp281
(g91
I32
tp282
atp283
asS'en'
p284
(lp285
(g9
(dp286
S'ADV'
p287
F0.000523
sS'NOUN'
p288
F0.000215
sS'DET'
p289
F0.999263
s(lp290
(g9
I0
tp291
atp292
a(g17
(dp293
S'VERB'
p294
F1.0
s(lp295
(g17
I1
tp296
atp297
a(g31
(dp298
S'ADV'
p299
F0.289711
sS'NOUN'
p300
F0.710289
s(lp301
(g31
I2
tp302
atp303
a(g45
(dp304
S'PRON'
p305
F1.0
s(lp306
(g45
I3
tp307
atp308
a(g53
(dp309
S'VERB'
p310
F1.0
sS'NOUN'
p311
F0.0
s(lp312
(g53
I4
tp313
atp314
a(g60
(dp315
S'VERB'
p316
F0.999869
sS'NOUN'
p317
F0.000131
s(lp318
(g60
I5
tp319
atp320
a(S'at'
p321
(dp322
S'NOUN'
p323
F8e-05
sS'ADP'
p324
F0.99992
s(lp325
(g321
I6
tp326
atp327
a(S'very'
p328
(dp329
S'ADV'
p330
F0.994748
sS'ADJ'
p331
F0.005252
s(lp332
(g328
I7
tp333
atp334
a(g68
(dp335
S'ADV'
p336
F1.0
s(lp337
(g68
I8
tp338
atp339
a(g89
(dp340
g91
F1.0
s(lp341
(g89
I9
tp342
atp343
a(g100
(dp344
S'ADV'
p345
F0.046931
sS'ADP'
p346
F0.953069
s(lp347
(g100
I10
tp348
atp349
a(g107
(dp350
S'ADV'
p351
F0.002039
sS'ADJ'
p352
F0.0
sS'DET'
p353
F0.99796
sS'ADP'
p354
F0.0
s(lp355
(g107
I11
tp356
atp357
a(S'are'
p358
(dp359
S'VERB'
p360
F1.0
sS'NOUN'
p361
F0.0
s(lp362
(g358
I12
tp363
atp364
a(g128
(dp365
S'ADV'
p366
F0.076046
sS'NOUN'
p367
F5.9e-05
sS'DET'
p368
F0.923895
sS'X'
p369
F0.0
s(lp370
(g128
I13
tp371
atp372
a(g141
(dp373
S'NOUN'
p374
F1.0
s(lp375
(g141
I14
tp376
atp377
a(g149
(dp378
S'ADV'
p379
F0.000937
sS'PRT'
p380
F0.000212
sS'ADP'
p381
F0.998851
s(lp382
(g149
I15
tp383
atp384
a(g172
(dp385
S'NOUN'
p386
F0.071523
sS'VERB'
p387
F4.9999999999999996e-06
sS'ADJ'
p388
F0.928473
s(lp389
(g172
I16
tp390
atp391
a(g164
(dp392
S'NOUN'
p393
F1.0
s(lp394
(g164
I17
tp395
atp396
a(g179
(dp397
S'VERB'
p398
F1.0
s(lp399
(g179
I18
tp400
atp401
a(g187
(dp402
S'ADV'
p403
F0.999909
sS'ADJ'
p404
F3e-05
sS'NOUN'
p405
F6.1e-05
s(lp406
(g187
I19
tp407
atp408
a(g194
(dp409
S'ADV'
p410
F0.954567
sS'NOUN'
p411
F4.9e-05
sS'VERB'
p412
F0.0023160000000000004
sS'ADJ'
p413
F0.043068
s(lp414
(g194
I20
tp415
atp416
a(g224
(dp417
S'NOUN'
p418
F1e-06
sS'DET'
p419
F0.999999
s(lp420
(g224
I21
tp421
atp422
a(g232
(dp423
S'ADJ'
p424
F1.0
s(lp425
(g232
I22
tp426
atp427
a(S'person'
p428
(dp429
S'NOUN'
p430
F1.0
s(lp431
(g428
I23
tp432
atp433
a(S'can'
p434
(dp435
S'VERB'
p436
F0.999549
sS'NOUN'
p437
F0.000452
s(lp438
(g434
I24
tp439
atp440
a(g206
(dp441
S'VERB'
p442
F0.998926
sS'NOUN'
p443
F0.001074
s(lp444
(g206
I25
tp445
atp446
a(g215
(dp447
S'ADP'
p448
F1.0
s(lp449
(g215
I26
tp450
atp451
a(g240
(dp452
S'ADV'
p453
F0.002117
sS'PRT'
p454
F0.0
sS'ADP'
p455
F0.997883
s(lp456
(g240
I27
tp457
atp458
a(g249
(dp459
S'DET'
p460
F1.0
s(lp461
(g249
I28
tp462
atp463
a(g256
(dp464
S'NOUN'
p465
F1.0
s(lp466
(g256
I29
tp467
atp468
a(g263
(dp469
S'CONJ'
p470
F0.999986
sS'ADJ'
p471
F1.4e-05
s(lp472
(g263
I30
tp473
atp474
a(g277
(dp475
S'NOUN'
p476
F1.0
s(lp477
(g277
I31
tp478
atp479
a(g91
(dp480
g91
F1.0
s(lp481
(g91
I32
tp482
atp483
asS'nl'
p484
(lp485
(S'we'
p486
(dp487
S'PRON'
p488
F1.0
s(lp489
(g45
I3
tp490
atp491
a(S'moeten'
p492
(dp493
S'VERB'
p494
F0.999999
sS'NOUN'
p495
F1e-06
s(lp496
(g53
I4
tp497
atp498
a(S'dit'
p499
(dp500
S'PRON'
p501
F1.0
s(lp502
(g9
I0
tp503
atp504
a(S'zorgvuldig'
p505
(dp506
S'ADJ'
p507
F1.0
s(lp508
(g68
I8
tp509
atp510
a(S'bestuderen'
p511
(dp512
S'VERB'
p513
F0.7651459999999999
sS'NOUN'
p514
F0.234855
s(lp515
(g60
I5
tp516
atp517
a(S'want'
p518
(dp519
S'CONJ'
p520
F0.998796
sS'VERB'
p521
F0.001007
sS'NOUN'
p522
F0.000198
s(lp523
(g100
I10
tp524
atp525
a(S'in'
p526
(dp527
S'ADV'
p528
F0.008563
sS'VERB'
p529
F1e-06
sS'ADP'
p530
F0.991436
s(lp531
(g149
I15
tp532
atp533
a(S'de'
p534
(dp535
S'DET'
p536
F1.0
s(lp537
(g107
I11
tp538
atp539
a(S'europese'
p540
(dp541
S'NOUN'
p542
F1.0
s(lp543
(g172
I16
tp544
atp545
a(S'wetgeving'
p546
(dp547
S'NOUN'
p548
F1.0
s(lp549
(g164
I17
tp550
atp551
a(S'bestaan'
p552
(dp553
S'VERB'
p554
F0.99968
sS'NOUN'
p555
F0.00032
s(lp556
(g358
I12
tp557
atp558
a(S'geen'
p559
(dp560
S'PRON'
p561
F0.999993
sS'DET'
p562
F7e-06
s(lp563
(g128
I13
tp564
atp565
a(S'precedenten'
p566
(dp567
S'NOUN'
p568
F1.0
s(lp569
(g141
I14
tp570
atp571
a(S'die'
p572
(dp573
S'PRON'
p574
F1.0
s(lp575
(g428
I23
tp576
atp577
a(S'bepalen'
p578
(dp579
S'VERB'
p580
F0.800741
sS'NOUN'
p581
F0.199258
s(lp582
(g179
I18
tp583
atp584
a(S'hoe'
p585
(dp586
S'ADV'
p587
F0.998754
sS'CONJ'
p588
F0.001246
s(lp589
(g187
I19
tp590
atp591
a(S'lang'
p592
(dp593
S'ADV'
p594
F0.537235
sS'ADJ'
p595
F0.462765
s(lp596
(g194
I20
tp597
atp598
a(S'een'
p599
(dp600
S'ADJ'
p601
F6.2e-05
sS'NUM'
p602
F1e-06
sS'DET'
p603
F0.999914
sS'PRON'
p604
F2.4e-05
s(lp605
(g224
I21
tp606
atp607
a(S'zelfstandige'
p608
(dp609
S'ADJ'
p610
F0.032914
sS'NOUN'
p611
F0.967086
s(lp612
(g232
I22
tp613
atp614
a(S'in'
p615
(dp616
S'ADV'
p617
F0.002742
sS'VERB'
p618
F1e-06
sS'ADP'
p619
F0.997257
s(lp620
(g240
I27
tp621
atp622
a(S'zijn'
p623
(dp624
S'PRON'
p625
F0.99968
sS'VERB'
p626
F0.000309
sS'NOUN'
p627
F1.1e-05
s(lp628
(g249
I28
tp629
atp630
a(S'kantoor'
p631
(dp632
S'NOUN'
p633
F1.0
s(lp634
(g256
I29
tp635
atp636
a(S'of'
p637
(dp638
S'CONJ'
p639
F1.0
s(lp640
(g263
I30
tp641
atp642
a(S'laboratorium'
p643
(dp644
S'NOUN'
p645
F1.0
s(lp646
(g277
I31
tp647
atp648
a(S'mag'
p649
(dp650
S'VERB'
p651
F1.0
s(lp652
(g434
I24
tp653
atp654
a(S'werken'
p655
(dp656
S'VERB'
p657
F0.9969279999999999
sS'NOUN'
p658
F0.003072
s(lp659
(g206
I25
tp660
atp661
a(g91
(dp662
g91
F1.0
s(lp663
(g91
I32
tp664
atp665
asS'de'
p666
(lp667
(S'\xc3\x9cber'
p668
(dp669
S'PRT'
p670
F5e-06
sS'ADP'
p671
F0.999995
s(lp672
(g321
I6
tp673
atp674
a(S'diesen'
p675
(dp676
S'PRON'
p677
F1.0
s(lp678
(g9
I0
tp679
atp680
a(S'punkt'
p681
(dp682
S'PRT'
p683
F1.0
s(lp684
(g31
I2
tp685
atp686
a(S'm\xc3\xbcssen'
p687
(dp688
S'VERB'
p689
F0.99795
s(lp690
(g53
I4
tp691
atp692
a(S'wir'
p693
(dp694
S'PRON'
p695
F1.0
s(lp696
(g45
I3
tp697
atp698
a(S'sehr'
p699
(dp700
S'ADV'
p701
F1.0
s(lp702
(g328
I7
tp703
atp704
a(S'genau'
p705
(dp706
S'PRT'
p707
F0.000177
sS'ADJ'
p708
F0.999823
s(lp709
(g68
I8
tp710
atp711
a(S'nachdenken'
p712
(dp713
S'VERB'
p714
F1.0
s(lp715
(g60
I5
tp716
atp717
a(g89
(dp718
g91
F1.0
s(lp719
(g89
I9
tp720
atp721
a(S'denn'
p722
(dp723
S'ADV'
p724
F0.185278
sS'CONJ'
p725
F0.814722
s(lp726
(g100
I10
tp727
atp728
a(S'im'
p729
(dp730
S'ADP'
p731
F1.0
s(lp732
(g149
I15
tp733
atp734
a(S'europarecht'
p735
(dp736
S'ADJ'
p737
F0.445474
sS'NOUN'
p738
F0.53192
s(lp739
(g164
I17
tp740
atp741
a(S'gibt'
p742
(dp743
S'VERB'
p744
F1.0
s(lp745
tp746
a(S'es'
p747
(dp748
S'PRON'
p749
F1.0
s(lp750
(g107
I11
tp751
atp752
a(S'keine'
p753
(dp754
S'PRON'
p755
F1.0
s(lp756
(g128
I13
tp757
atp758
a(S'pr\xc3\xa4zedenzf\xc3\xa4lle'
p759
(dp760
S'ADJ'
p761
F0.008719
sS'NOUN'
p762
F0.983929
s(lp763
(g141
I14
tp764
atp765
a(S'zur'
p766
(dp767
S'ADP'
p768
F1.0
s(lp769
tp770
a(S'festlegung'
p771
(dp772
S'ADJ'
p773
F0.005633
sS'NOUN'
p774
F0.992046
s(lp775
(g179
I18
tp776
atp777
a(S'der'
p778
(dp779
S'PRON'
p780
F5.5e-05
sS'DET'
p781
F0.999914
s(lp782
tp783
a(S'arbeitszeit'
p784
(dp785
S'ADJ'
p786
F0.012721
sS'NOUN'
p787
F0.975776
s(lp788
(g187
I19
tp789
atp790
a(S'einer'
p791
(dp792
S'PRON'
p793
F0.001535
sS'DET'
p794
F0.998292
s(lp795
(g224
I21
tp796
atp797
a(S'selbstst\xc3\xa4ndigen'
p798
(dp799
S'ADJ'
p800
F1.0
s(lp801
(g232
I22
tp802
atp803
a(S'person'
p804
(dp805
S'NOUN'
p806
F0.999938
s(lp807
(g428
I23
tp808
atp809
a(S'in'
p810
(dp811
S'ADP'
p812
F1.0
s(lp813
(g240
I27
tp814
atp815
a(S'einem'
p816
(dp817
S'NUM'
p818
F0.000987
sS'DET'
p819
F0.998921
s(lp820
(g249
I28
tp821
atp822
a(S'b\xc3\xbcro'
p823
(dp824
S'ADJ'
p825
F0.00234
sS'NOUN'
p826
F0.997519
s(lp827
(g256
I29
tp828
atp829
a(S'oder'
p830
(dp831
S'CONJ'
p832
F1.0
s(lp833
(g263
I30
tp834
atp835
a(S'labor'
p836
(dp837
S'VERB'
p838
F0.051519
sS'NOUN'
p839
F0.942233
s(lp840
(g277
I31
tp841
atp842
a(g91
(dp843
g91
F1.0
s(lp844
(g91
I32
tp845
atp846
asS'it'
p847
(lp848
(S'si'
p849
(dp850
S'PRON'
p851
F0.999997
sS'NOUN'
p852
F2e-06
s(lp853
(g9
I0
tp854
atp855
a(S'tratta'
p856
(dp857
S'VERB'
p858
F0.999277
sS'NOUN'
p859
F0.000724
s(lp860
(g17
I1
tp861
atp862
a(S'di'
p863
(dp864
S'CONJ'
p865
F6e-06
sS'ADP'
p866
F0.999994
s(lp867
tp868
a(S'un'
p869
(dp870
S'PRON'
p871
F0.002708
sS'DEF'
p872
F0.997292
s(lp873
tp874
a(S'aspetto'
p875
(dp876
S'VERB'
p877
F4.4e-05
sS'NOUN'
p878
F0.999956
s(lp879
(g31
I2
tp880
atp881
a(S'da'
p882
(dp883
S'ADP'
p884
F1.0
s(lp885
(g45
I3
tp886
atp887
a(S'valutare'
p888
(dp889
S'VERB'
p890
F1.0
s(lp891
(g60
I5
tp892
atp893
a(S'con'
p894
(dp895
S'ADP'
p896
F1.0
s(lp897
(g321
I6
tp898
atp899
a(S'grande'
p900
(dp901
S'NOUN'
p902
F0.001602
sS'ADJ'
p903
F0.998398
s(lp904
(g328
I7
tp905
atp906
a(S'attenzione'
p907
(dp908
S'NOUN'
p909
F1.0
s(lp910
(g68
I8
tp911
atp912
a(S'perch\xc3\xa9'
p913
(dp914
S'ADV'
p915
F0.179464
sS'CONJ'
p916
F0.762061
sS'NOUN'
p917
F0.058475
s(lp918
(g100
I10
tp919
atp920
a(S'nella'
p921
(dp922
S'ADP'
p923
F1.0
s(lp924
(g149
I15
tp925
atp926
a(S'legislazione'
p927
(dp928
S'NOUN'
p929
F1.0
s(lp930
(g164
I17
tp931
atp932
a(S'europea'
p933
(dp934
S'NOUN'
p935
F0.004906
sS'ADJ'
p936
F0.995094
s(lp937
(g172
I16
tp938
atp939
a(S'non'
p940
(dp941
S'ADV'
p942
F1.0
s(lp943
(g128
I13
tp944
atp945
a(S'esistono'
p946
(dp947
S'VERB'
p948
F1.0
s(lp949
(g107
I11
tp950
atp951
a(S'precedenti'
p952
(dp953
S'NOUN'
p954
F0.113177
sS'VERB'
p955
F1e-05
sS'ADJ'
p956
F0.886813
s(lp957
tp958
a(S'che'
p959
(dp960
S'PRON'
p961
F0.98467
sS'CONJ'
p962
F0.014964
sS'ADJ'
p963
F0.000366
s(lp964
(g179
I18
tp965
atp966
a(S'stabiliscano'
p967
(dp968
S'VERB'
p969
F1.0
s(lp970
(g141
I14
tp971
atp972
a(S'quanto'
p973
(dp974
S'ADV'
p975
F0.868601
sS'PRON'
p976
F0.111861
sS'ADJ'
p977
F0.019016
sS'NOUN'
p978
F0.000522
s(lp979
(g187
I19
tp980
atp981
a(g224
(dp982
S'CONJ'
p983
F0.000653
sS'ADP'
p984
F0.999347
s(lp985
tp986
a(S'lungo'
p987
(dp988
S'ADJ'
p989
F0.999297
sS'ADP'
p990
F0.000703
s(lp991
(g194
I20
tp992
atp993
a(S'pu\xc3\xb2'
p994
(dp995
S'VERB'
p996
F1.0
s(lp997
(g434
I24
tp998
atp999
a(S'lavorare'
p1000
(dp1001
S'VERB'
p1002
F1.0
s(lp1003
(g206
I25
tp1004
atp1005
a(S'un'
p1006
(dp1007
S'PRON'
p1008
F0.001879
sS'DEF'
p1009
F0.998121
s(lp1010
(g224
I21
tp1011
atp1012
a(S'lavoratore'
p1013
(dp1014
S'NOUN'
p1015
F1.0
s(lp1016
tp1017
a(S'autonomo'
p1018
(dp1019
S'NOUN'
p1020
F0.016715
sS'ADJ'
p1021
F0.983285
s(lp1022
(g232
I22
tp1023
atp1024
a(S'nel'
p1025
(dp1026
S'ADP'
p1027
F1.0
s(lp1028
(g240
I27
tp1029
atp1030
a(S'suo'
p1031
(dp1032
S'PRON'
p1033
F1.0
s(lp1034
(g249
I28
tp1035
atp1036
a(S'ufficio'
p1037
(dp1038
S'VERB'
p1039
F1e-06
sS'NOUN'
p1040
F0.999999
s(lp1041
(g256
I29
tp1042
atp1043
a(S'o'
p1044
(dp1045
g369
F0.0
sS'CONJ'
p1046
F1.0
s(lp1047
(g263
I30
tp1048
atp1049
a(S'nel'
p1050
(dp1051
S'ADP'
p1052
F1.0
s(lp1053
(g215
I26
tp1054
atp1055
a(S'suo'
p1056
(dp1057
S'PRON'
p1058
F1.0
s(lp1059
(g428
I23
tp1060
atp1061
a(S'laboratorio'
p1062
(dp1063
S'NOUN'
p1064
F1.0
s(lp1065
(g277
I31
tp1066
atp1067
a(g91
(dp1068
g91
F1.0
s(lp1069
(g91
I32
tp1070
atp1071
asS'sk'
p1072
(lp1073
(S'toto'
p1074
(dp1075
S'PRON'
p1076
F0.99866
sg369
F0.00134
s(lp1077
(g9
I0
tp1078
atp1079
a(S'je'
p1080
(dp1081
S'PRON'
p1082
F5.7e-05
sS'VERB'
p1083
F0.999893
sg369
F4.9999999999999996e-05
s(lp1084
(g17
I1
tp1085
atp1086
a(S'z\xc3\xa1le\xc5\xbeitos\xc5\xa5'
p1087
(dp1088
S'NOUN'
p1089
F1.0
s(lp1090
tp1091
a(g89
(dp1092
g91
F1.0
s(lp1093
tp1094
a(S'ku'
p1095
(dp1096
g369
F0.00015999999999999999
sS'ADP'
p1097
F0.99984
s(lp1098
(g31
I2
tp1099
atp1100
a(S'ktorej'
p1101
(dp1102
S'PRON'
p1103
F1.0
s(lp1104
(g45
I3
tp1105
atp1106
a(S'mus\xc3\xadme'
p1107
(dp1108
S'VERB'
p1109
F1.0
s(lp1110
(g53
I4
tp1111
atp1112
a(S'pristupova\xc5\xa5'
p1113
(dp1114
S'VERB'
p1115
F1.0
s(lp1116
(g60
I5
tp1117
atp1118
a(S've\xc4\xbemi'
p1119
(dp1120
S'ADV'
p1121
F1.0
s(lp1122
(g328
I7
tp1123
atp1124
a(S'opatrne'
p1125
(dp1126
S'ADV'
p1127
F1.0
s(lp1128
(g68
I8
tp1129
atp1130
a(g89
(dp1131
g91
F1.0
s(lp1132
(g89
I9
tp1133
atp1134
a(S'preto\xc5\xbee'
p1135
(dp1136
S'CONJ'
p1137
F1.0
s(lp1138
(g100
I10
tp1139
atp1140
a(S'v'
p1141
(dp1142
g369
F0.000263
sS'ADP'
p1143
F0.999737
s(lp1144
(g149
I15
tp1145
atp1146
a(S'eur\xc3\xb3pskom'
p1147
(dp1148
S'ADJ'
p1149
F1.0
s(lp1150
(g172
I16
tp1151
atp1152
a(S'pr\xc3\xa1vnom'
p1153
(dp1154
S'ADJ'
p1155
F1.0
s(lp1156
(g164
I17
tp1157
atp1158
a(S'syst\xc3\xa9me'
p1159
(dp1160
S'NOUN'
p1161
F1.0
s(lp1162
tp1163
a(S'neexistuje'
p1164
(dp1165
S'VERB'
p1166
F1.0
s(lp1167
(g128
I13
tp1168
atp1169
a(S'precedens'
p1170
(dp1171
S'NOUN'
p1172
F1.0
s(lp1173
(g141
I14
tp1174
atp1175
a(S'stanovuj\xc3\xbaci'
p1176
(dp1177
S'VERB'
p1178
F1.0
s(lp1179
(g179
I18
tp1180
atp1181
a(g89
(dp1182
g91
F1.0
s(lp1183
tp1184
a(S'ako'
p1185
(dp1186
S'PRON'
p1187
F0.04867
sS'CONJ'
p1188
F0.951175
sg369
F0.000155
s(lp1189
(g187
I19
tp1190
atp1191
a(S'dlho'
p1192
(dp1193
S'ADV'
p1194
F1.0
s(lp1195
(g194
I20
tp1196
atp1197
a(S'm\xc3\xb4\xc5\xbee'
p1198
(dp1199
S'VERB'
p1200
F1.0
s(lp1201
(g434
I24
tp1202
atp1203
a(S'samostatne'
p1204
(dp1205
S'ADV'
p1206
F1.0
s(lp1207
(g232
I22
tp1208
atp1209
a(S'z\xc3\xa1robkovo'
p1210
(dp1211
S'ADV'
p1212
F1.0
s(lp1213
tp1214
a(S'\xc4\x8dinn\xc3\xa1'
p1215
(dp1216
S'ADJ'
p1217
F1.0
s(lp1218
(g232
I22
tp1219
atp1220
a(S'osoba'
p1221
(dp1222
S'NOUN'
p1223
F1.0
s(lp1224
(g428
I23
tp1225
atp1226
a(S'pracova\xc5\xa5'
p1227
(dp1228
S'VERB'
p1229
F1.0
s(lp1230
(g206
I25
tp1231
atp1232
a(g1141
(dp1233
g369
F0.000136
sS'ADP'
p1234
F0.999865
s(lp1235
(g240
I27
tp1236
atp1237
a(S'kancel\xc3\xa1rii'
p1238
(dp1239
S'NOUN'
p1240
F1.0
s(lp1241
(g256
I29
tp1242
atp1243
a(S'alebo'
p1244
(dp1245
g369
F0.000208
sS'CONJ'
p1246
F0.999792
s(lp1247
(g263
I30
tp1248
atp1249
a(g1141
(dp1250
g369
F0.000583
sS'ADP'
p1251
F0.999417
s(lp1252
(g107
I11
tp1253
atp1254
a(S'laborat\xc3\xb3riu'
p1255
(dp1256
S'NOUN'
p1257
F1.0
s(lp1258
(g277
I31
tp1259
atp1260
a(g91
(dp1261
g91
F1.0
s(lp1262
(g91
I32
tp1263
atp1264
asS'pl'
p1265
(lp1266
(S'jest'
p1267
(dp1268
S'VERB'
p1269
F1.0
s(lp1270
(g17
I1
tp1271
atp1272
a(S'to'
p1273
(dp1274
S'NOUN'
p1275
F0.176109
sS'ADP'
p1276
F4e-06
sS'PRT'
p1277
F0.046834
sg369
F0.0
sS'CONJ'
p1278
F0.014495
sS'ADJ'
p1279
F0.762558
s(lp1280
(g9
I0
tp1281
atp1282
a(S'co\xc5\x9b'
p1283
(dp1284
S'PRT'
p1285
F0.003426
sS'NOUN'
p1286
F0.9965740000000001
s(lp1287
tp1288
a(g89
(dp1289
g369
F0.0
sg91
F1.0
s(lp1290
tp1291
a(S'czemu'
p1292
(dp1293
S'ADV'
p1294
F0.436126
sS'CONJ'
p1295
F0.065197
sS'NOUN'
p1296
F0.498676
s(lp1297
(g31
I2
tp1298
atp1299
a(S'musimy'
p1300
(dp1301
S'VERB'
p1302
F1.0
s(lp1303
(g53
I4
tp1304
atp1305
a(S'przyjrze\xc4\x87'
p1306
(dp1307
S'VERB'
p1308
F1.0
s(lp1309
tp1310
a(S'si\xc4\x99'
p1311
(dp1312
S'PRT'
p1313
F1.0
s(lp1314
(g60
I5
tp1315
atp1316
a(S'bardzo'
p1317
(dp1318
S'ADV'
p1319
F1.0
s(lp1320
(g328
I7
tp1321
atp1322
a(S'uwa\xc5\xbcnie'
p1323
(dp1324
S'ADV'
p1325
F1.0
s(lp1326
(g68
I8
tp1327
atp1328
a(g89
(dp1329
g369
F0.0
sg91
F1.0
s(lp1330
(g89
I9
tp1331
atp1332
a(S'poniewa\xc5\xbc'
p1333
(dp1334
S'CONJ'
p1335
F1.0
s(lp1336
(g100
I10
tp1337
atp1338
a(S'nie'
p1339
(dp1340
S'ADV'
p1341
F1.3e-05
sS'PRT'
p1342
F0.99971
sS'CONJ'
p1343
F0.00027
sS'NOUN'
p1344
F3e-06
sS'PRON'
p1345
F4e-06
s(lp1346
tp1347
a(S'ma'
p1348
(dp1349
S'VERB'
p1350
F0.999307
sS'NOUN'
p1351
F0.0005319999999999999
sS'ADP'
p1352
F0.00016199999999999998
s(lp1353
(g128
I13
tp1354
atp1355
a(S'precedens\xc3\xb3w'
p1356
(dp1357
S'ADV'
p1358
F0.010661
sS'ADJ'
p1359
F0.011722
sS'VERB'
p1360
F0.070453
sS'NOUN'
p1361
F0.9071610000000001
s(lp1362
(g141
I14
tp1363
atp1364
a(S'w'
p1365
(dp1366
S'ADJ'
p1367
F0.0
sg369
F2e-06
sS'NOUN'
p1368
F9e-06
sS'ADP'
p1369
F0.999989
s(lp1370
(g149
I15
tp1371
atp1372
a(S'prawie'
p1373
(dp1374
S'PRT'
p1375
F0.003479
sS'NOUN'
p1376
F0.996521
s(lp1377
(g164
I17
tp1378
atp1379
a(S'europejskim'
p1380
(dp1381
S'ADJ'
p1382
F1.0
s(lp1383
(g172
I16
tp1384
atp1385
a(S'ustalaj\xc4\x85cych'
p1386
(dp1387
S'ADV'
p1388
F0.002853
sS'ADJ'
p1389
F0.04660099999999998
sS'VERB'
p1390
F0.148174
sS'NOUN'
p1391
F0.8023710000000003
s(lp1392
(g179
I18
tp1393
atp1394
a(g89
(dp1395
g369
F0.0
sg91
F1.0
s(lp1396
tp1397
a(S'jak'
p1398
(dp1399
S'ADV'
p1400
F0.885242
sS'PRT'
p1401
F0.00094
sS'CONJ'
p1402
F0.089123
sS'ADP'
p1403
F0.024574
sS'PRON'
p1404
F0.000121
s(lp1405
(g187
I19
tp1406
atp1407
a(S'd\xc5\x82ugo'
p1408
(dp1409
S'ADV'
p1410
F1.0
s(lp1411
(g194
I20
tp1412
atp1413
a(S'osoba'
p1414
(dp1415
S'NOUN'
p1416
F1.0
s(lp1417
(g428
I23
tp1418
atp1419
a(S'pracuj\xc4\x85ca'
p1420
(dp1421
S'VERB'
p1422
F1.0
s(lp1423
(g232
I22
tp1424
atp1425
a(S'na'
p1426
(dp1427
S'PRT'
p1428
F1.7e-05
sS'VERB'
p1429
F6e-06
sS'NOUN'
p1430
F0.0
sS'ADP'
p1431
F0.999974
sg369
F3e-06
s(lp1432
(g232
I22
tp1433
atp1434
a(S'w\xc5\x82asny'
p1435
(dp1436
S'ADJ'
p1437
F1.0
s(lp1438
tp1439
a(S'rachunek'
p1440
(dp1441
S'NOUN'
p1442
F1.0
s(lp1443
(g232
I22
tp1444
atp1445
a(S'mo\xc5\xbce'
p1446
(dp1447
S'PRT'
p1448
F0.14546
sS'VERB'
p1449
F0.85454
s(lp1450
(g434
I24
tp1451
atp1452
a(S'pracowa\xc4\x87'
p1453
(dp1454
S'VERB'
p1455
F1.0
s(lp1456
(g206
I25
tp1457
atp1458
a(g1365
(dp1459
S'ADJ'
p1460
F0.0
sg369
F0.0
sS'NOUN'
p1461
F0.0
sS'ADP'
p1462
F0.999999
s(lp1463
(g240
I27
tp1464
atp1465
a(S'biurze'
p1466
(dp1467
S'NOUN'
p1468
F1.0
s(lp1469
(g256
I29
tp1470
atp1471
a(S'czy'
p1472
(dp1473
S'PRT'
p1474
F0.254332
sS'CONJ'
p1475
F0.745322
sS'NUM'
p1476
F5.3e-05
sS'NOUN'
p1477
F0.000293
s(lp1478
(g263
I30
tp1479
atp1480
a(S'laboratorium'
p1481
(dp1482
S'NOUN'
p1483
F0.9999999999999999
s(lp1484
(g277
I31
tp1485
atp1486
a(g91
(dp1487
g91
F1.0
s(lp1488
(g91
I32
tp1489
atp1490
asS'sl'
p1491
(lp1492
(S'to'
p1493
(dp1494
S'PRON'
p1495
F0.999827
sg369
F0.000172
s(lp1496
(g9
I0
tp1497
atp1498
a(S'moramo'
p1499
(dp1500
S'VERB'
p1501
F1.0
s(lp1502
(g53
I4
tp1503
atp1504
a(S'zelo'
p1505
(dp1506
S'ADV'
p1507
F1.0
s(lp1508
(g328
I7
tp1509
atp1510
a(S'skrbno'
p1511
(dp1512
S'ADV'
p1513
F0.999042
sS'ADJ'
p1514
F0.000958
s(lp1515
(g68
I8
tp1516
atp1517
a(S'premisliti'
p1518
(dp1519
S'VERB'
p1520
F1.0
s(lp1521
(g60
I5
tp1522
atp1523
a(g89
(dp1524
g91
F1.0
s(lp1525
(g89
I9
tp1526
atp1527
a(S'saj'
p1528
(dp1529
S'CONJ'
p1530
F1.0
s(lp1531
(g100
I10
tp1532
atp1533
a(g1141
(dp1534
S'ADP'
p1535
F1.0
s(lp1536
(g149
I15
tp1537
atp1538
a(S'evropski'
p1539
(dp1540
S'ADJ'
p1541
F1.0
s(lp1542
(g172
I16
tp1543
atp1544
a(S'zakonodaji'
p1545
(dp1546
S'NOUN'
p1547
F1.0
s(lp1548
(g164
I17
tp1549
atp1550
a(S'ni'
p1551
(dp1552
S'VERB'
p1553
F1.0
s(lp1554
(g128
I13
tp1555
atp1556
a(S'preceden\xc4\x8dnih'
p1557
(dp1558
S'ADV'
p1559
F0.006919
sS'NOUN'
p1560
F0.008121000000000001
sS'VERB'
p1561
F0.0049499999999999995
sS'ADJ'
p1562
F0.980008
s(lp1563
(g141
I14
tp1564
atp1565
a(S'primerov'
p1566
(dp1567
S'NOUN'
p1568
F1.0
s(lp1569
(g141
I14
tp1570
atp1571
a(g89
(dp1572
g91
F1.0
s(lp1573
tp1574
a(S'ki'
p1575
(dp1576
S'CONJ'
p1577
F1.0
s(lp1578
(g358
I12
tp1579
atp1580
a(S'bi'
p1581
(dp1582
g369
F1e-06
sS'VERB'
p1583
F0.999999
s(lp1584
tp1585
a(S'dolo\xc4\x8dali'
p1586
(dp1587
S'VERB'
p1588
F1.0
s(lp1589
(g141
I14
tp1590
atp1591
a(g89
(dp1592
g91
F1.0
s(lp1593
tp1594
a(S'koliko'
p1595
(dp1596
S'ADV'
p1597
F1.0
s(lp1598
(g187
I19
tp1599
atp1600
a(S'\xc4\x8dasa'
p1601
(dp1602
S'NOUN'
p1603
F1.0
s(lp1604
(g194
I20
tp1605
atp1606
a(S'sme'
p1607
(dp1608
S'VERB'
p1609
F1.0
s(lp1610
(g434
I24
tp1611
atp1612
a(S'samozaposlena'
p1613
(dp1614
S'ADV'
p1615
F2e-05
sS'NOUN'
p1616
F0.009482999999999998
sS'ADJ'
p1617
F0.990496
sg369
F3e-06
s(lp1618
(g232
I22
tp1619
atp1620
a(S'oseba'
p1621
(dp1622
S'NOUN'
p1623
F1.0
s(lp1624
(g428
I23
tp1625
atp1626
a(S'delati'
p1627
(dp1628
S'VERB'
p1629
F1.0
s(lp1630
(g206
I25
tp1631
atp1632
a(S'na'
p1633
(dp1634
S'ADP'
p1635
F1.0
s(lp1636
(g240
I27
tp1637
atp1638
a(S'primer'
p1639
(dp1640
S'NOUN'
p1641
F1.0
s(lp1642
tp1643
a(g1141
(dp1644
S'ADP'
p1645
F1.0
s(lp1646
(g249
I28
tp1647
atp1648
a(S'pisarni'
p1649
(dp1650
S'NOUN'
p1651
F1.0
s(lp1652
(g256
I29
tp1653
atp1654
a(S'ali'
p1655
(dp1656
S'ADV'
p1657
F0.008263
sS'CONJ'
p1658
F0.991737
s(lp1659
(g263
I30
tp1660
atp1661
a(S'laboratoriju'
p1662
(dp1663
S'NOUN'
p1664
F1.0
s(lp1665
(g277
I31
tp1666
atp1667
a(g91
(dp1668
g91
F1.0
s(lp1669
(g91
I32
tp1670
atp1671
asS'es'
p1672
(lp1673
(S'esto'
p1674
(dp1675
S'ADV'
p1676
F1.0
s(lp1677
(g9
I0
tp1678
atp1679
a(S'es'
p1680
(dp1681
S'ADV'
p1682
F1.0
s(lp1683
(g17
I1
tp1684
atp1685
a(S'algo'
p1686
(dp1687
S'ADJ'
p1688
F1.0
s(lp1689
(g31
I2
tp1690
atp1691
a(S'que'
p1692
(dp1693
g369
F0.0
sS'CONJ'
p1694
F1.0
s(lp1695
(g45
I3
tp1696
atp1697
a(S'debemos'
p1698
(dp1699
S'VERB'
p1700
F1.0
s(lp1701
(g53
I4
tp1702
atp1703
a(S'estudiar'
p1704
(dp1705
S'VERB'
p1706
F1.0
s(lp1707
(g60
I5
tp1708
atp1709
a(S'muy'
p1710
(dp1711
S'ADV'
p1712
F1.0
s(lp1713
(g328
I7
tp1714
atp1715
a(S'detenidamente'
p1716
(dp1717
S'ADV'
p1718
F1.0
s(lp1719
(g68
I8
tp1720
atp1721
a(g89
(dp1722
g91
F1.0
s(lp1723
(g89
I9
tp1724
atp1725
a(S'porque'
p1726
(dp1727
S'CONJ'
p1728
F1.0
s(lp1729
(g100
I10
tp1730
atp1731
a(S'no'
p1732
(dp1733
S'ADV'
p1734
F0.999999
sg369
F1e-06
s(lp1735
(g128
I13
tp1736
atp1737
a(S'hay'
p1738
(dp1739
S'VERB'
p1740
F1.0
s(lp1741
(g107
I11
tp1742
atp1743
a(S'precedentes'
p1744
(dp1745
S'VERB'
p1746
F0.99006
sS'ADJ'
p1747
F0.00994
s(lp1748
(g141
I14
tp1749
atp1750
a(S'en'
p1751
(dp1752
g369
F0.0
sS'CONJ'
p1753
F1e-06
sS'ADP'
p1754
F0.999999
s(lp1755
(g149
I15
tp1756
atp1757
a(S'la'
p1758
(dp1759
S'NOUN'
p1760
F0.0
sS'PRON'
p1761
F0.0
sS'DET'
p1762
F0.999999
sg369
F0.0
s(lp1763
tp1764
a(S'legislaci\xc3\xb3n'
p1765
(dp1766
S'NOUN'
p1767
F1.0
s(lp1768
(g164
I17
tp1769
atp1770
a(S'europea'
p1771
(dp1772
S'ADJ'
p1773
F1.0
s(lp1774
(g172
I16
tp1775
atp1776
a(S'que'
p1777
(dp1778
g369
F1e-06
sS'CONJ'
p1779
F0.999999
s(lp1780
tp1781
a(S'establezcan'
p1782
(dp1783
S'VERB'
p1784
F1.0
s(lp1785
(g179
I18
tp1786
atp1787
a(S'cu\xc3\xa1nto'
p1788
(dp1789
S'ADV'
p1790
F0.931816
sS'PRON'
p1791
F0.068184
s(lp1792
(g187
I19
tp1793
atp1794
a(S'puede'
p1795
(dp1796
S'VERB'
p1797
F1.0
s(lp1798
(g434
I24
tp1799
atp1800
a(S'trabajar'
p1801
(dp1802
S'VERB'
p1803
F1.0
s(lp1804
(g206
I25
tp1805
atp1806
a(S'un'
p1807
(dp1808
g369
F3.5e-05
sS'DET'
p1809
F0.999965
s(lp1810
(g224
I21
tp1811
atp1812
a(S'aut\xc3\xb3nomo'
p1813
(dp1814
S'ADJ'
p1815
F1.0
s(lp1816
(g232
I22
tp1817
atp1818
a(S'en'
p1819
(dp1820
g369
F0.0
sS'CONJ'
p1821
F2e-05
sS'ADP'
p1822
F0.99998
s(lp1823
(g240
I27
tp1824
atp1825
a(S'su'
p1826
(dp1827
S'PRON'
p1828
F1.0
s(lp1829
(g249
I28
tp1830
atp1831
a(S'oficina'
p1832
(dp1833
S'NOUN'
p1834
F1.0
s(lp1835
(g256
I29
tp1836
atp1837
a(g1044
(dp1838
g369
F0.001502
sS'CONJ'
p1839
F0.998498
s(lp1840
(g263
I30
tp1841
atp1842
a(S'en'
p1843
(dp1844
g369
F0.0
sS'CONJ'
p1845
F1e-06
sS'ADP'
p1846
F0.999999
s(lp1847
(g215
I26
tp1848
atp1849
a(S'su'
p1850
(dp1851
S'PRON'
p1852
F1.0
s(lp1853
tp1854
a(S'laboratorio'
p1855
(dp1856
S'NOUN'
p1857
F1.0
s(lp1858
(g277
I31
tp1859
atp1860
a(g91
(dp1861
g91
F1.0
s(lp1862
(g91
I32
tp1863
atp1864
as.