(dp0
S'fr'
p1
(lp2
(S'par'
p3
(dp4
S'NOUN'
p5
F7.6e-05
sS'ADP'
p6
F0.999924
s(lp7
(S'in'
p8
I0
tp9
atp10
a(S'\xc3\xa9crit'
p11
(dp12
S'VERB'
p13
F0.035327000000000004
sS'NOUN'
p14
F0.964674
s(lp15
(S'writing'
p16
I1
tp17
atp18
a(S'.'
p19
(dp20
g19
F1.0
s(lp21
(g19
I2
tp22
atp23
a(S'-'
p24
(dp25
g19
F1.0
s(lp26
(g24
I3
tp27
atp28
a(S'('
p29
(dp30
g19
F1.0
s(lp31
tp32
a(S'en'
p33
(dp34
S'PRON'
p35
F0.551936
sS'ADP'
p36
F0.448064
s(lp37
tp38
a(S')'
p39
(dp40
g19
F1.0
s(lp41
(g16
I1
tp42
atp43
a(S"j'"
p44
(dp45
S'ADJ'
p46
F0.280608
sS'VERB'
p47
F0.007367
sS'NOUN'
p48
F0.681695
sS'X'
p49
F0.03033
s(lp50
(S'i'
p51
I4
tp52
atp53
a(S'ai'
p54
(dp55
S'VERB'
p56
F1.0
s(lp57
tp58
a(S'vot\xc3\xa9'
p59
(dp60
S'VERB'
p61
F1.0
s(lp62
(S'voted'
p63
I5
tp64
atp65
a(S"l'"
p66
(dp67
S'ADJ'
p68
F0.185351
sS'VERB'
p69
F0.35318400000000005
sS'NOUN'
p70
F0.461464
s(lp71
tp72
a(S'approbation'
p73
(dp74
S'NOUN'
p75
F1.0
s(lp76
(S'approve'
p77
I7
tp78
atp79
a(S'de'
p80
(dp81
S'ADP'
p82
F1.0
s(lp83
(S'to'
p84
I6
tp85
atp86
a(S'la'
p87
(dp88
S'PRON'
p89
F1.2e-05
sS'DET'
p90
F0.999988
sS'NOUN'
p91
F0.0
s(lp92
(S'the'
p93
I8
tp94
atp95
a(S'd\xc3\xa9signation'
p96
(dp97
S'NOUN'
p98
F1.0
s(lp99
(S'appointment'
p100
I9
tp101
atp102
a(S'des'
p103
(dp104
S'DET'
p105
F2.1e-05
sS'ADP'
p106
F0.999979
s(lp107
(S'of'
p108
I10
tp109
atp110
a(S'pr\xc3\xa9sidents'
p111
(dp112
S'NOUN'
p113
F1.0
s(lp114
(S'chairs'
p115
I12
tp116
atp117
a(S'de'
p118
(dp119
S'ADP'
p120
F1.0
s(lp121
(S'of'
p122
I13
tp123
atp124
a(S"l'"
p125
(dp126
S'ADJ'
p127
F0.160704
sS'VERB'
p128
F0.06480800000000002
sS'NOUN'
p129
F0.774488
s(lp130
(S'the'
p131
I14
tp132
atp133
a(S'abe'
p134
(dp135
S'ADJ'
p136
F0.13429
sS'VERB'
p137
F0.638201
sS'NOUN'
p138
F0.227509
s(lp139
(S'eba'
p140
I15
tp141
atp142
a(S','
p143
(dp144
g19
F1.0
s(lp145
(g143
I16
tp146
atp147
a(S'de'
p148
(dp149
S'ADP'
p150
F1.0
s(lp151
tp152
a(S"l'"
p153
(dp154
S'ADJ'
p155
F0.160704
sS'VERB'
p156
F0.06480800000000002
sS'NOUN'
p157
F0.774488
s(lp158
tp159
a(S'aeapp'
p160
(dp161
S'NOUN'
p162
F1.0
s(lp163
(S'eiopa'
p164
I17
tp165
atp166
a(S'et'
p167
(dp168
S'CONJ'
p169
F1.0
s(lp170
(S'and'
p171
I18
tp172
atp173
a(S'de'
p174
(dp175
S'ADP'
p176
F1.0
s(lp177
(S'of'
p178
I32
tp179
atp180
a(S"l'"
p181
(dp182
S'ADJ'
p183
F0.160704
sS'VERB'
p184
F0.06480800000000002
sS'NOUN'
p185
F0.774488
s(lp186
tp187
a(S'aemf'
p188
(dp189
S'NOUN'
p190
F1.0
s(lp191
(S'esma'
p192
I19
tp193
atp194
a(S'car'
p195
(dp196
S'CONJ'
p197
F0.999345
sS'NOUN'
p198
F0.000655
s(lp199
(S'as'
p200
I20
tp201
atp202
a(S'ils'
p203
(dp204
S'PRON'
p205
F1.0
s(lp206
(S'they'
p207
I21
tp208
atp209
a(S'ont'
p210
(dp211
S'VERB'
p212
F1.0
s(lp213
tp214
a(S'd\xc3\xa9montr\xc3\xa9'
p215
(dp216
S'VERB'
p217
F1.0
s(lp218
(S'demonstrated'
p219
I22
tp220
atp221
a(S'durant'
p222
(dp223
S'VERB'
p224
F0.00013
sS'ADP'
p225
F0.99987
s(lp226
(S'during'
p227
I23
tp228
atp229
a(S'leur'
p230
(dp231
S'PRON'
p232
F1.0
s(lp233
(S'their'
p234
I24
tp235
atp236
a(S'audition'
p237
(dp238
S'NOUN'
p239
F1.0
s(lp240
(S'hearings'
p241
I25
tp242
atp243
a(S"qu'"
p244
(dp245
S'NOUN'
p246
F0.024969
sS'VERB'
p247
F0.27500100000000005
sS'ADJ'
p248
F0.700029
s(lp249
(S'that'
p250
I26
tp251
atp252
a(S'ils'
p253
(dp254
S'PRON'
p255
F1.0
s(lp256
(S'they'
p257
I27
tp258
atp259
a(S'\xc3\xa9taient'
p260
(dp261
S'VERB'
p262
F1.0
s(lp263
(S'were'
p264
I28
tp265
atp266
a(S'comp\xc3\xa9tents'
p267
(dp268
S'ADJ'
p269
F1.0
s(lp270
(S'competent'
p271
I29
tp272
atp273
a(S'et'
p274
(dp275
S'CONJ'
p276
F1.0
s(lp277
(S'and'
p278
I30
tp279
atp280
a(S"qu'"
p281
(dp282
S'NOUN'
p283
F0.109289
sS'VERB'
p284
F0.472141
sS'ADJ'
p285
F0.418571
s(lp286
tp287
a(S'ils'
p288
(dp289
S'PRON'
p290
F1.0
s(lp291
(g257
I27
tp292
atp293
a(S'connaissaient'
p294
(dp295
S'VERB'
p296
F1.0
s(lp297
tp298
a(S'les'
p299
(dp300
S'PRON'
p301
F0.000124
sS'DET'
p302
F0.999843
sS'ADP'
p303
F3.3e-05
s(lp304
(S'the'
p305
I33
tp306
atp307
a(S'questions'
p308
(dp309
S'NOUN'
p310
F1.0
s(lp311
(S'issues'
p312
I34
tp313
atp314
a(S'li\xc3\xa9es'
p315
(dp316
S'VERB'
p317
F0.819311
sS'ADJ'
p318
F0.180689
s(lp319
(S'related'
p320
I35
tp321
atp322
a(S'aux'
p323
(dp324
S'ADP'
p325
F1.0
s(lp326
(S'the'
p327
I37
tp328
atp329
a(S't\xc3\xa2ches'
p330
(dp331
S'VERB'
p332
F0.0
sS'NOUN'
p333
F0.999999
s(lp334
(S'tasks'
p335
I38
tp336
atp337
a(S"qu'"
p338
(dp339
S'NOUN'
p340
F0.024969
sS'VERB'
p341
F0.275002
sS'ADJ'
p342
F0.700029
s(lp343
tp344
a(S'ils'
p345
(dp346
S'PRON'
p347
F1.0
s(lp348
(S'they'
p349
I39
tp350
atp351
a(S'ex\xc3\xa9cuteraient'
p352
(dp353
S'VERB'
p354
F1.0
s(lp355
(g164
I17
tp356
atp357
a(g19
(dp358
g19
F1.0
s(lp359
(g19
I42
tp360
atp361
asS'en'
p362
(lp363
(g8
(dp364
S'ADV'
p365
F0.002573
sS'PRT'
p366
F0.0
sS'ADP'
p367
F0.997427
s(lp368
(g8
I0
tp369
atp370
a(g16
(dp371
S'VERB'
p372
F0.650532
sS'NOUN'
p373
F0.349468
s(lp374
(g16
I1
tp375
atp376
a(g19
(dp377
g19
F1.0
s(lp378
(g19
I2
tp379
atp380
a(g24
(dp381
g19
F1.0
s(lp382
(g24
I3
tp383
atp384
a(g51
(dp385
g49
F0.001067
sS'NOUN'
p386
F0.998933
s(lp387
(g51
I4
tp388
atp389
a(g63
(dp390
S'VERB'
p391
F1.0
s(lp392
(g63
I5
tp393
atp394
a(g84
(dp395
S'ADV'
p396
F0.0
sS'PRT'
p397
F1.0
sS'ADP'
p398
F0.0
s(lp399
(g84
I6
tp400
atp401
a(g77
(dp402
S'VERB'
p403
F1.0
s(lp404
(g77
I7
tp405
atp406
a(g93
(dp407
S'NOUN'
p408
F1e-06
sS'DET'
p409
F0.999999
s(lp410
(g93
I8
tp411
atp412
a(g100
(dp413
S'NOUN'
p414
F1.0
s(lp415
(g100
I9
tp416
atp417
a(g108
(dp418
S'ADP'
p419
F1.0
s(lp420
(g108
I10
tp421
atp422
a(S'the'
p423
(dp424
S'NOUN'
p425
F1.1e-05
sS'DET'
p426
F0.999989
s(lp427
(g423
I11
tp428
atp429
a(g115
(dp430
S'VERB'
p431
F0.018038
sS'NOUN'
p432
F0.981962
s(lp433
(g115
I12
tp434
atp435
a(g122
(dp436
S'ADP'
p437
F1.0
s(lp438
(g122
I13
tp439
atp440
a(g131
(dp441
S'NOUN'
p442
F7e-06
sS'DET'
p443
F0.999993
s(lp444
(g131
I14
tp445
atp446
a(g140
(dp447
S'ADV'
p448
F0.000107
sS'ADJ'
p449
F0.001075
sS'VERB'
p450
F8.999999999999999e-05
sS'NOUN'
p451
F0.998728
s(lp452
(g140
I15
tp453
atp454
a(g143
(dp455
g19
F1.0
s(lp456
(g143
I16
tp457
atp458
a(g164
(dp459
S'ADJ'
p460
F0.002516
sS'NOUN'
p461
F0.997484
s(lp462
(g164
I17
tp463
atp464
a(g171
(dp465
S'CONJ'
p466
F0.999811
sS'NOUN'
p467
F0.000189
s(lp468
(g171
I18
tp469
atp470
a(g192
(dp471
S'ADJ'
p472
F0.001673
sS'NOUN'
p473
F0.998327
s(lp474
(g192
I19
tp475
atp476
a(g200
(dp477
S'ADV'
p478
F0.029245
sS'ADP'
p479
F0.970755
s(lp480
(g200
I20
tp481
atp482
a(g207
(dp483
S'PRON'
p484
F1.0
s(lp485
(g207
I21
tp486
atp487
a(g219
(dp488
S'VERB'
p489
F1.0
s(lp490
(g219
I22
tp491
atp492
a(g227
(dp493
S'ADP'
p494
F1.0
s(lp495
(g227
I23
tp496
atp497
a(g234
(dp498
S'PRON'
p499
F1.0
s(lp500
(g234
I24
tp501
atp502
a(g241
(dp503
S'NOUN'
p504
F1.0
s(lp505
(g241
I25
tp506
atp507
a(g250
(dp508
S'ADV'
p509
F0.000211
sS'DET'
p510
F0.26867399999999997
sS'ADP'
p511
F0.731115
s(lp512
(g250
I26
tp513
atp514
a(g257
(dp515
S'PRON'
p516
F1.0
s(lp517
(g257
I27
tp518
atp519
a(g264
(dp520
S'VERB'
p521
F1.0
s(lp522
(g264
I28
tp523
atp524
a(g271
(dp525
S'ADJ'
p526
F1.0
s(lp527
(g271
I29
tp528
atp529
a(g278
(dp530
S'CONJ'
p531
F0.999998
sS'NOUN'
p532
F2e-06
s(lp533
(g278
I30
tp534
atp535
a(S'knowledgeable'
p536
(dp537
S'ADJ'
p538
F1.0
s(lp539
(g536
I31
tp540
atp541
a(g178
(dp542
S'ADP'
p543
F1.0
s(lp544
(g178
I32
tp545
atp546
a(g305
(dp547
S'NOUN'
p548
F1.1e-05
sS'DET'
p549
F0.999989
s(lp550
(g305
I33
tp551
atp552
a(g312
(dp553
S'VERB'
p554
F0.000333
sS'NOUN'
p555
F0.999667
s(lp556
(g312
I34
tp557
atp558
a(g320
(dp559
S'VERB'
p560
F0.979571
sS'ADJ'
p561
F0.020428
s(lp562
(g320
I35
tp563
atp564
a(S'to'
p565
(dp566
S'ADV'
p567
F1e-06
sS'PRT'
p568
F0.999992
sS'ADP'
p569
F7e-06
s(lp570
(g565
I36
tp571
atp572
a(g327
(dp573
S'NOUN'
p574
F1.3e-05
sS'DET'
p575
F0.999987
s(lp576
(g327
I37
tp577
atp578
a(g335
(dp579
S'VERB'
p580
F0.009265
sS'NOUN'
p581
F0.990735
s(lp582
(g335
I38
tp583
atp584
a(g349
(dp585
S'PRON'
p586
F1.0
s(lp587
(g349
I39
tp588
atp589
a(S'would'
p590
(dp591
S'VERB'
p592
F1.0
s(lp593
(g590
I40
tp594
atp595
a(S'face'
p596
(dp597
S'VERB'
p598
F0.9992880000000001
sS'NOUN'
p599
F0.000712
s(lp600
(g596
I41
tp601
atp602
a(g19
(dp603
g19
F1.0
s(lp604
(g19
I42
tp605
atp606
asS'nl'
p607
(lp608
(S'schriftelijk'
p609
(dp610
S'ADJ'
p611
F1.0
s(lp612
(g16
I1
tp613
atp614
a(g19
(dp615
g19
F1.0
s(lp616
(g19
I2
tp617
atp618
a(g24
(dp619
g19
F1.0
s(lp620
(g24
I3
tp621
atp622
a(g29
(dp623
g19
F1.0
s(lp624
(g16
I1
tp625
atp626
a(S'en'
p627
(dp628
S'CONJ'
p629
F1.0
s(lp630
tp631
a(g39
(dp632
g19
F1.0
s(lp633
(g16
I1
tp634
atp635
a(S'ik'
p636
(dp637
S'PRON'
p638
F0.999917
sS'NOUN'
p639
F8.3e-05
s(lp640
(g51
I4
tp641
atp642
a(S'heb'
p643
(dp644
S'VERB'
p645
F1.0
s(lp646
tp647
a(S'gestemd'
p648
(dp649
S'VERB'
p650
F0.990809
sS'ADJ'
p651
F0.009191
s(lp652
(g63
I5
tp653
atp654
a(S'voor'
p655
(dp656
S'ADV'
p657
F4.3e-05
sS'CONJ'
p658
F3e-06
sS'NOUN'
p659
F0.0
sS'ADP'
p660
F0.999954
s(lp661
(g84
I6
tp662
atp663
a(S'goedkeuring'
p664
(dp665
S'NOUN'
p666
F1.0
s(lp667
(g77
I7
tp668
atp669
a(S'van'
p670
(dp671
S'ADP'
p672
F1.0
s(lp673
tp674
a(S'de'
p675
(dp676
S'DET'
p677
F1.0
s(lp678
(g93
I8
tp679
atp680
a(S'benoeming'
p681
(dp682
S'NOUN'
p683
F1.0
s(lp684
(g100
I9
tp685
atp686
a(S'van'
p687
(dp688
S'ADP'
p689
F1.0
s(lp690
(g108
I10
tp691
atp692
a(S'de'
p693
(dp694
S'DET'
p695
F1.0
s(lp696
(g423
I11
tp697
atp698
a(S'voorzitters'
p699
(dp700
S'NOUN'
p701
F1.0
s(lp702
(g115
I12
tp703
atp704
a(S'van'
p705
(dp706
S'ADP'
p707
F1.0
s(lp708
(g122
I13
tp709
atp710
a(S'de'
p711
(dp712
S'DET'
p713
F1.0
s(lp714
(g131
I14
tp715
atp716
a(S'eba'
p717
(dp718
S'ADJ'
p719
F0.027719
sS'NOUN'
p720
F0.972281
s(lp721
(g140
I15
tp722
atp723
a(g143
(dp724
g19
F1.0
s(lp725
(g143
I16
tp726
atp727
a(S'eavb'
p728
(dp729
S'ADJ'
p730
F0.204101
sS'NOUN'
p731
F0.795899
s(lp732
(g164
I17
tp733
atp734
a(S'en'
p735
(dp736
S'CONJ'
p737
F1.0
s(lp738
(g171
I18
tp739
atp740
a(S'eaem'
p741
(dp742
S'ADJ'
p743
F0.050333
sS'NOUN'
p744
F0.949667
s(lp745
(g192
I19
tp746
atp747
a(g143
(dp748
g19
F1.0
s(lp749
tp750
a(S'aangezien'
p751
(dp752
S'CONJ'
p753
F0.999489
sS'VERB'
p754
F0.000511
s(lp755
(g200
I20
tp756
atp757
a(S'zij'
p758
(dp759
S'PRON'
p760
F0.999997
sS'VERB'
p761
F1e-06
sS'NOUN'
p762
F3e-06
s(lp763
(g207
I21
tp764
atp765
a(S'tijdens'
p766
(dp767
S'ADP'
p768
F1.0
s(lp769
(g227
I23
tp770
atp771
a(S'hun'
p772
(dp773
S'PRON'
p774
F1.0
s(lp775
(g234
I24
tp776
atp777
a(S'hoorzittingen'
p778
(dp779
S'NOUN'
p780
F1.0
s(lp781
(g241
I25
tp782
atp783
a(S'hebben'
p784
(dp785
S'VERB'
p786
F0.9999899999999999
sS'NOUN'
p787
F9e-06
s(lp788
(g219
I22
tp789
atp790
a(S'laten'
p791
(dp792
S'VERB'
p793
F0.999907
sS'NOUN'
p794
F9.2e-05
s(lp795
tp796
a(S'blijken'
p797
(dp798
S'VERB'
p799
F0.9998659999999999
sS'NOUN'
p800
F0.000134
s(lp801
(g219
I22
tp802
atp803
a(S'competent'
p804
(dp805
S'ADJ'
p806
F1.0
s(lp807
(g271
I29
tp808
atp809
a(S'te'
p810
(dp811
S'PRT'
p812
F1.0
s(lp813
(g565
I36
tp814
atp815
a(S'zijn'
p816
(dp817
S'PRON'
p818
F0.011826
sS'VERB'
p819
F0.988173
sS'NOUN'
p820
F0.0
s(lp821
(g264
I28
tp822
atp823
a(S'en'
p824
(dp825
S'CONJ'
p826
F1.0
s(lp827
(g278
I30
tp828
atp829
a(S'verstand'
p830
(dp831
S'NOUN'
p832
F1.0
s(lp833
(g536
I31
tp834
atp835
a(S'te'
p836
(dp837
S'PRT'
p838
F1.0
s(lp839
tp840
a(S'hebben'
p841
(dp842
S'VERB'
p843
F1.0
sS'NOUN'
p844
F0.0
s(lp845
tp846
a(S'van'
p847
(dp848
S'ADP'
p849
F1.0
s(lp850
(g178
I32
tp851
atp852
a(S'de'
p853
(dp854
S'DET'
p855
F1.0
s(lp856
(g305
I33
tp857
atp858
a(S'kwesties'
p859
(dp860
S'NOUN'
p861
F1.0
s(lp862
(g312
I34
tp863
atp864
a(S'die'
p865
(dp866
S'PRON'
p867
F1.0
s(lp868
(g320
I35
tp869
atp870
a(S'verband'
p871
(dp872
S'NOUN'
p873
F1.0
s(lp874
(g320
I35
tp875
atp876
a(S'houden'
p877
(dp878
S'VERB'
p879
F0.999968
sS'NOUN'
p880
F3.2e-05
s(lp881
tp882
a(S'met'
p883
(dp884
S'ADP'
p885
F1.0
s(lp886
(g320
I35
tp887
atp888
a(S'de'
p889
(dp890
S'DET'
p891
F1.0
s(lp892
(g327
I37
tp893
atp894
a(S'taken'
p895
(dp896
S'NOUN'
p897
F1.0
s(lp898
(g335
I38
tp899
atp900
a(S'waarmee'
p901
(dp902
S'ADV'
p903
F1.0
s(lp904
(g596
I41
tp905
atp906
a(S'zij'
p907
(dp908
S'PRON'
p909
F0.999993
sS'VERB'
p910
F5e-06
sS'NOUN'
p911
F3e-06
s(lp912
(g349
I39
tp913
atp914
a(S'te'
p915
(dp916
S'PRT'
p917
F1.0
s(lp918
(g565
I36
tp919
atp920
a(S'maken'
p921
(dp922
S'VERB'
p923
F1.0
sS'NOUN'
p924
F0.0
s(lp925
tp926
a(S'zouden'
p927
(dp928
S'VERB'
p929
F1.0
s(lp930
(g590
I40
tp931
atp932
a(S'krijgen'
p933
(dp934
S'VERB'
p935
F0.999965
sS'NOUN'
p936
F3.4e-05
s(lp937
(g596
I41
tp938
atp939
a(g19
(dp940
g19
F1.0
s(lp941
(g19
I42
tp942
atp943
asS'de'
p944
(lp945
(S'schriftlich'
p946
(dp947
S'ADJ'
p948
F1.0
s(lp949
(g16
I1
tp950
atp951
a(g19
(dp952
g19
F1.0
s(lp953
(g19
I2
tp954
atp955
a(g24
(dp956
g19
F1.0
s(lp957
(g24
I3
tp958
atp959
a(S'ich'
p960
(dp961
S'PRON'
p962
F1.0
s(lp963
(g51
I4
tp964
atp965
a(S'habe'
p966
(dp967
S'VERB'
p968
F1.0
s(lp969
tp970
a(S'f\xc3\xbcr'
p971
(dp972
S'ADP'
p973
F1.0
s(lp974
tp975
a(S'die'
p976
(dp977
S'PRON'
p978
F0.000152
sS'DET'
p979
F0.999821
s(lp980
(g84
I6
tp981
atp982
a(S'genehmigung'
p983
(dp984
S'ADJ'
p985
F0.012411
sS'NOUN'
p986
F0.977537
s(lp987
(g77
I7
tp988
atp989
a(S'der'
p990
(dp991
S'PRON'
p992
F2.9e-05
sS'DET'
p993
F0.99995
s(lp994
(g93
I8
tp995
atp996
a(S'ernennung'
p997
(dp998
S'ADJ'
p999
F9.3e-05
sS'NOUN'
p1000
F0.999849
s(lp1001
(g100
I9
tp1002
atp1003
a(S'der'
p1004
(dp1005
S'PRON'
p1006
F8.6e-05
sS'DET'
p1007
F0.999906
s(lp1008
(g423
I11
tp1009
atp1010
a(S'vorsitzenden'
p1011
(dp1012
S'ADJ'
p1013
F1.0
s(lp1014
(g115
I12
tp1015
atp1016
a(S'der'
p1017
(dp1018
S'PRON'
p1019
F0.005842
sS'DET'
p1020
F0.994079
s(lp1021
(g131
I14
tp1022
atp1023
a(S'eba'
p1024
(dp1025
S'NOUN'
p1026
F0.995463
s(lp1027
(g140
I15
tp1028
atp1029
a(g143
(dp1030
g19
F1.0
s(lp1031
(g143
I16
tp1032
atp1033
a(S'eiopa'
p1034
(dp1035
S'VERB'
p1036
F0.032441
sS'NOUN'
p1037
F0.955843
s(lp1038
(g164
I17
tp1039
atp1040
a(S'und'
p1041
(dp1042
S'CONJ'
p1043
F1.0
s(lp1044
(g171
I18
tp1045
atp1046
a(S'esma'
p1047
(dp1048
S'ADJ'
p1049
F0.004878
sS'NOUN'
p1050
F0.994106
s(lp1051
(g192
I19
tp1052
atp1053
a(S'gestimmt'
p1054
(dp1055
S'VERB'
p1056
F1.0
s(lp1057
(g63
I5
tp1058
atp1059
a(g143
(dp1060
g19
F1.0
s(lp1061
tp1062
a(S'da'
p1063
(dp1064
S'ADV'
p1065
F0.001925
sS'CONJ'
p1066
F0.998072
s(lp1067
(g200
I20
tp1068
atp1069
a(S'sie'
p1070
(dp1071
S'PRON'
p1072
F1.0
s(lp1073
(g207
I21
tp1074
atp1075
a(S'in'
p1076
(dp1077
S'ADP'
p1078
F1.0
s(lp1079
(g227
I23
tp1080
atp1081
a(S'ihren'
p1082
(dp1083
S'PRON'
p1084
F1.0
s(lp1085
(g234
I24
tp1086
atp1087
a(S'anh\xc3\xb6rungen'
p1088
(dp1089
S'ADJ'
p1090
F0.001855
sS'NOUN'
p1091
F0.998086
s(lp1092
(g241
I25
tp1093
atp1094
a(S'gezeigt'
p1095
(dp1096
S'VERB'
p1097
F0.998105
sS'ADJ'
p1098
F0.001895
s(lp1099
tp1100
a(S'haben'
p1101
(dp1102
S'VERB'
p1103
F0.999981
s(lp1104
(g219
I22
tp1105
atp1106
a(g143
(dp1107
g19
F1.0
s(lp1108
tp1109
a(S'dass'
p1110
(dp1111
S'CONJ'
p1112
F1.0
s(lp1113
(g250
I26
tp1114
atp1115
a(S'sie'
p1116
(dp1117
S'PRON'
p1118
F1.0
s(lp1119
(g257
I27
tp1120
atp1121
a(S'im'
p1122
(dp1123
S'ADP'
p1124
F1.0
s(lp1125
(g320
I35
tp1126
atp1127
a(S'hinblick'
p1128
(dp1129
S'VERB'
p1130
F0.001253
sS'NOUN'
p1131
F0.998741
s(lp1132
(g320
I35
tp1133
atp1134
a(S'auf'
p1135
(dp1136
S'PRT'
p1137
F0.00243
sS'ADP'
p1138
F0.997561
s(lp1139
(g565
I36
tp1140
atp1141
a(S'die'
p1142
(dp1143
S'PRON'
p1144
F0.007038
sS'DET'
p1145
F0.987234
s(lp1146
(g327
I37
tp1147
atp1148
a(S'mit'
p1149
(dp1150
S'PRT'
p1151
F8e-06
sS'ADP'
p1152
F0.999992
s(lp1153
tp1154
a(S'ihren'
p1155
(dp1156
S'PRON'
p1157
F1.0
s(lp1158
(g349
I39
tp1159
atp1160
a(S'aufgaben'
p1161
(dp1162
S'VERB'
p1163
F1.0
s(lp1164
(g335
I38
tp1165
atp1166
a(S'zusammenh\xc3\xa4ngenden'
p1167
(dp1168
S'ADJ'
p1169
F1.0
s(lp1170
(g320
I35
tp1171
atp1172
a(S'themenbereichen'
p1173
(dp1174
S'ADJ'
p1175
F1.0
s(lp1176
(g312
I34
tp1177
atp1178
a(S'kompetent'
p1179
(dp1180
S'ADJ'
p1181
F1.0
s(lp1182
(g271
I29
tp1183
atp1184
a(S'und'
p1185
(dp1186
S'CONJ'
p1187
F1.0
s(lp1188
(g278
I30
tp1189
atp1190
a(S'erfahren'
p1191
(dp1192
S'VERB'
p1193
F0.993769
s(lp1194
(g536
I31
tp1195
atp1196
a(S'sind'
p1197
(dp1198
S'VERB'
p1199
F1.0
s(lp1200
(g596
I41
tp1201
atp1202
a(g19
(dp1203
g19
F1.0
s(lp1204
(g19
I42
tp1205
atp1206
asS'it'
p1207
(lp1208
(S'per'
p1209
(dp1210
S'CONJ'
p1211
F0.030106
sS'ADP'
p1212
F0.969894
s(lp1213
(g8
I0
tp1214
atp1215
a(S'iscritto'
p1216
(dp1217
S'NOUN'
p1218
F0.123774
sS'VERB'
p1219
F0.030022
sS'ADJ'
p1220
F0.846204
s(lp1221
(g16
I1
tp1222
atp1223
a(g19
(dp1224
g19
F1.0
s(lp1225
(g19
I2
tp1226
atp1227
a(g24
(dp1228
g49
F1.8e-05
sg19
F0.999982
s(lp1229
(g24
I3
tp1230
atp1231
a(g29
(dp1232
g19
F1.0
s(lp1233
(g16
I1
tp1234
atp1235
a(S'en'
p1236
(dp1237
S'ADJ'
p1238
F0.097599
sS'VERB'
p1239
F0.025145
sS'NOUN'
p1240
F0.877257
s(lp1241
tp1242
a(g39
(dp1243
g19
F1.0
s(lp1244
(g16
I1
tp1245
atp1246
a(S'ho'
p1247
(dp1248
S'VERB'
p1249
F1.0
s(lp1250
(g51
I4
tp1251
atp1252
a(S'votato'
p1253
(dp1254
S'VERB'
p1255
F0.990109
sS'ADJ'
p1256
F0.009891
s(lp1257
(g63
I5
tp1258
atp1259
a(S'a'
p1260
(dp1261
S'CONJ'
p1262
F7.6e-05
sS'ADP'
p1263
F0.999924
s(lp1264
(g84
I6
tp1265
atp1266
a(S'favore'
p1267
(dp1268
S'NOUN'
p1269
F1.0
s(lp1270
(g77
I7
tp1271
atp1272
a(S'della'
p1273
(dp1274
S'DEF'
p1275
F0.00156
sS'ADP'
p1276
F0.99844
s(lp1277
(g93
I8
tp1278
atp1279
a(S'nomina'
p1280
(dp1281
S'VERB'
p1282
F0.017821
sS'NOUN'
p1283
F0.98218
s(lp1284
(g100
I9
tp1285
atp1286
a(S'dei'
p1287
(dp1288
S'NOUN'
p1289
F5.7e-05
sS'DEF'
p1290
F0.002659
sS'ADP'
p1291
F0.997284
s(lp1292
(g108
I10
tp1293
atp1294
a(S'tre'
p1295
(dp1296
S'NOUN'
p1297
F0.001963
sS'NUM'
p1298
F0.001539
sS'ADJ'
p1299
F0.996499
s(lp1300
tp1301
a(S'presidenti'
p1302
(dp1303
S'NOUN'
p1304
F1.0
s(lp1305
(g115
I12
tp1306
atp1307
a(S"dell'"
p1308
(dp1309
S'ADJ'
p1310
F0.040682
sS'VERB'
p1311
F0.006560999999999999
sS'NOUN'
p1312
F0.952757
s(lp1313
(g122
I13
tp1314
atp1315
a(S'autorit\xc3\xa0'
p1316
(dp1317
S'NOUN'
p1318
F1.0
s(lp1319
(g140
I15
tp1320
atp1321
a(S'bancaria'
p1322
(dp1323
S'NOUN'
p1324
F0.075403
sS'ADJ'
p1325
F0.924597
s(lp1326
tp1327
a(S'europea'
p1328
(dp1329
S'NOUN'
p1330
F0.07724
sS'ADJ'
p1331
F0.92276
s(lp1332
(g140
I15
tp1333
atp1334
a(g143
(dp1335
g19
F1.0
s(lp1336
(g143
I16
tp1337
atp1338
a(S'di'
p1339
(dp1340
S'CONJ'
p1341
F4.7e-05
sS'ADP'
p1342
F0.999953
s(lp1343
tp1344
a(S'quella'
p1345
(dp1346
S'PRON'
p1347
F1.0
s(lp1348
(g164
I17
tp1349
atp1350
a(S'delle'
p1351
(dp1352
S'DEF'
p1353
F0.000718
sS'ADP'
p1354
F0.999282
s(lp1355
(g164
I17
tp1356
atp1357
a(S'assicurazioni'
p1358
(dp1359
S'NOUN'
p1360
F1.0
s(lp1361
(g164
I17
tp1362
atp1363
a(S'e'
p1364
(dp1365
S'CONJ'
p1366
F1.0
s(lp1367
(g171
I18
tp1368
atp1369
a(S'delle'
p1370
(dp1371
S'DEF'
p1372
F0.017737
sS'ADP'
p1373
F0.982263
s(lp1374
(g164
I17
tp1375
atp1376
a(S'pensioni'
p1377
(dp1378
S'VERB'
p1379
F1.6e-05
sS'NOUN'
p1380
F0.999985
s(lp1381
(g164
I17
tp1382
atp1383
a(S'aziendali'
p1384
(dp1385
S'ADJ'
p1386
F1.0
s(lp1387
(g164
I17
tp1388
atp1389
a(g1364
(dp1390
S'CONJ'
p1391
F1.0
s(lp1392
(g171
I18
tp1393
atp1394
a(S'professionali'
p1395
(dp1396
S'ADJ'
p1397
F1.0
s(lp1398
(g164
I17
tp1399
atp1400
a(g1364
(dp1401
S'CONJ'
p1402
F1.0
s(lp1403
(g171
I18
tp1404
atp1405
a(S'di'
p1406
(dp1407
S'CONJ'
p1408
F1.1e-05
sS'ADP'
p1409
F0.999989
s(lp1410
tp1411
a(S'quella'
p1412
(dp1413
S'PRON'
p1414
F1.0
s(lp1415
(g250
I26
tp1416
atp1417
a(S'degli'
p1418
(dp1419
S'DEF'
p1420
F0.00123
sS'ADP'
p1421
F0.99877
s(lp1422
(g192
I19
tp1423
atp1424
a(S'strumenti'
p1425
(dp1426
S'VERB'
p1427
F2.3e-05
sS'NOUN'
p1428
F0.999977
s(lp1429
(g192
I19
tp1430
atp1431
a(S'finanziari'
p1432
(dp1433
S'ADJ'
p1434
F1.0
s(lp1435
tp1436
a(g1364
(dp1437
S'CONJ'
p1438
F1.0
s(lp1439
tp1440
a(S'dei'
p1441
(dp1442
S'NOUN'
p1443
F3e-06
sS'DEF'
p1444
F0.019666
sS'ADP'
p1445
F0.980331
s(lp1446
tp1447
a(S'mercati'
p1448
(dp1449
S'NOUN'
p1450
F1.0
s(lp1451
(g192
I19
tp1452
atp1453
a(g143
(dp1454
g19
F1.0
s(lp1455
(g171
I18
tp1456
atp1457
a(S'perch\xc3\xa9'
p1458
(dp1459
S'ADV'
p1460
F0.177888
sS'CONJ'
p1461
F0.812437
sS'NOUN'
p1462
F0.009675
s(lp1463
(g200
I20
tp1464
atp1465
a(g51
(dp1466
S'DET'
p1467
F1.0
s(lp1468
(g234
I24
tp1469
atp1470
a(S'candidati'
p1471
(dp1472
S'VERB'
p1473
F8.3e-05
sS'NOUN'
p1474
F0.999917
s(lp1475
(g241
I25
tp1476
atp1477
a(S'hanno'
p1478
(dp1479
S'VERB'
p1480
F1.0
s(lp1481
(g207
I21
tp1482
atp1483
a(S'dimostrato'
p1484
(dp1485
S'VERB'
p1486
F1.0
s(lp1487
(g219
I22
tp1488
atp1489
a(S'durante'
p1490
(dp1491
S'VERB'
p1492
F0.000687
sS'ADP'
p1493
F0.999313
s(lp1494
(g227
I23
tp1495
atp1496
a(S'le'
p1497
(dp1498
S'PRON'
p1499
F7.2e-05
sS'DET'
p1500
F0.999928
s(lp1501
tp1502
a(S'audizioni'
p1503
(dp1504
S'NOUN'
p1505
F1.0
s(lp1506
(g241
I25
tp1507
atp1508
a(S'di'
p1509
(dp1510
S'CONJ'
p1511
F6e-06
sS'ADP'
p1512
F0.999994
s(lp1513
tp1514
a(S'essere'
p1515
(dp1516
S'VERB'
p1517
F0.997725
sS'NOUN'
p1518
F0.002275
s(lp1519
(g257
I27
tp1520
atp1521
a(S'competenti'
p1522
(dp1523
S'VERB'
p1524
F0.000363
sS'ADJ'
p1525
F0.999637
s(lp1526
(g271
I29
tp1527
atp1528
a(S'ed'
p1529
(dp1530
S'CONJ'
p1531
F1.0
s(lp1532
(g278
I30
tp1533
atp1534
a(S'esperti'
p1535
(dp1536
S'ADJ'
p1537
F0.239996
sS'NOUN'
p1538
F0.760004
s(lp1539
(g536
I31
tp1540
atp1541
a(S'delle'
p1542
(dp1543
S'DEF'
p1544
F0.001228
sS'ADP'
p1545
F0.998772
s(lp1546
(g178
I32
tp1547
atp1548
a(S'materie'
p1549
(dp1550
S'NOUN'
p1551
F1.0
s(lp1552
(g312
I34
tp1553
atp1554
a(S'di'
p1555
(dp1556
S'CONJ'
p1557
F0.000108
sS'ADP'
p1558
F0.999892
s(lp1559
(g565
I36
tp1560
atp1561
a(S'cui'
p1562
(dp1563
S'PRON'
p1564
F1.0
s(lp1565
(g349
I39
tp1566
atp1567
a(S'dovranno'
p1568
(dp1569
S'VERB'
p1570
F1.0
s(lp1571
tp1572
a(S'occuparsi'
p1573
(dp1574
S'VERB'
p1575
F1.0
s(lp1576
(g164
I17
tp1577
atp1578
a(g19
(dp1579
g19
F1.0
s(lp1580
(g19
I42
tp1581
atp1582
asS'sk'
p1583
(lp1584
(S'p\xc3\xadsomne'
p1585
(dp1586
S'ADV'
p1587
F1.0
s(lp1588
(g16
I1
tp1589
atp1590
a(g19
(dp1591
g19
F1.0
s(lp1592
(g19
I2
tp1593
atp1594
a(g24
(dp1595
g19
F1.0
s(lp1596
(g24
I3
tp1597
atp1598
a(S'hlasoval'
p1599
(dp1600
S'VERB'
p1601
F0.9999999999999999
s(lp1602
tp1603
a(S'som'
p1604
(dp1605
S'VERB'
p1606
F1.0
s(lp1607
(g63
I5
tp1608
atp1609
a(S'za'
p1610
(dp1611
S'PRT'
p1612
F0.000357
sS'ADP'
p1613
F0.999525
sg49
F0.000118
s(lp1614
(g84
I6
tp1615
atp1616
a(S'schv\xc3\xa1lenie'
p1617
(dp1618
S'NOUN'
p1619
F1.0
s(lp1620
(g77
I7
tp1621
atp1622
a(S'vymenovania'
p1623
(dp1624
S'NOUN'
p1625
F1.0
s(lp1626
(g100
I9
tp1627
atp1628
a(S'predsedov'
p1629
(dp1630
S'ADJ'
p1631
F0.022921
sS'NOUN'
p1632
F0.977079
s(lp1633
(g115
I12
tp1634
atp1635
a(S'eur\xc3\xb3pskych'
p1636
(dp1637
S'ADJ'
p1638
F1.0
s(lp1639
(g164
I17
tp1640
atp1641
a(S'org\xc3\xa1nov'
p1642
(dp1643
S'NOUN'
p1644
F1.0
s(lp1645
tp1646
a(S'eba'
p1647
(dp1648
S'ADJ'
p1649
F0.059347
sS'VERB'
p1650
F0.003084
sS'NOUN'
p1651
F0.937568
s(lp1652
(g140
I15
tp1653
atp1654
a(g143
(dp1655
g19
F1.0
s(lp1656
(g143
I16
tp1657
atp1658
a(S'eiopa'
p1659
(dp1660
S'ADJ'
p1661
F0.16937
sS'VERB'
p1662
F0.005619
sS'NOUN'
p1663
F0.773476
sg49
F0.051535
s(lp1664
(g164
I17
tp1665
atp1666
a(g1260
(dp1667
g49
F0.007889
sS'CONJ'
p1668
F0.991305
sS'NOUN'
p1669
F0.000344
sS'ADP'
p1670
F0.000429
sS'PRT'
p1671
F3.3e-05
s(lp1672
(g171
I18
tp1673
atp1674
a(S'esma'
p1675
(dp1676
S'ADV'
p1677
F0.143364
sS'NOUN'
p1678
F0.052846000000000004
sS'VERB'
p1679
F0.010653
sg49
F0.005484
sS'NUM'
p1680
F0.003841
sS'ADJ'
p1681
F0.783811
s(lp1682
(g192
I19
tp1683
atp1684
a(g143
(dp1685
g19
F1.0
s(lp1686
(g207
I21
tp1687
atp1688
a(S'preto\xc5\xbee'
p1689
(dp1690
S'CONJ'
p1691
F1.0
s(lp1692
(g200
I20
tp1693
atp1694
a(S'pri'
p1695
(dp1696
g49
F7.4e-05
sS'VERB'
p1697
F1.4e-05
sS'ADP'
p1698
F0.999912
s(lp1699
(g227
I23
tp1700
atp1701
a(S'vypo\xc4\x8dut\xc3\xad'
p1702
(dp1703
S'VERB'
p1704
F0.475981
sS'NOUN'
p1705
F0.5240199999999999
s(lp1706
(g241
I25
tp1707
atp1708
a(S'preuk\xc3\xa1zali'
p1709
(dp1710
S'VERB'
p1711
F1.0
s(lp1712
(g219
I22
tp1713
atp1714
a(g143
(dp1715
g19
F1.0
s(lp1716
(g257
I27
tp1717
atp1718
a(S'\xc5\xbee'
p1719
(dp1720
g49
F0.000583
sS'CONJ'
p1721
F0.999417
s(lp1722
(g250
I26
tp1723
atp1724
a(S's\xc3\xba'
p1725
(dp1726
S'VERB'
p1727
F1.0
s(lp1728
(g264
I28
tp1729
atp1730
a(S'kompetentn\xc3\xad'
p1731
(dp1732
S'ADJ'
p1733
F1.0
s(lp1734
(g271
I29
tp1735
atp1736
a(g1260
(dp1737
g49
F0.00077
sS'CONJ'
p1738
F0.998166
sS'NOUN'
p1739
F0.000976
sS'ADP'
p1740
F7.4e-05
sS'PRT'
p1741
F1.3e-05
s(lp1742
(g278
I30
tp1743
atp1744
a(S'obozn\xc3\xa1men\xc3\xad'
p1745
(dp1746
S'VERB'
p1747
F0.192861
sS'NOUN'
p1748
F0.807139
s(lp1749
(g536
I31
tp1750
atp1751
a(S's'
p1752
(dp1753
g49
F0.002591
sS'CONJ'
p1754
F8.5e-05
sS'NOUN'
p1755
F6.8e-05
sS'ADP'
p1756
F0.997192
sS'PRT'
p1757
F6.4e-05
s(lp1758
(g305
I33
tp1759
atp1760
a(S't\xc3\xa9mami'
p1761
(dp1762
S'NOUN'
p1763
F1.0
s(lp1764
(g312
I34
tp1765
atp1766
a(g143
(dp1767
g19
F1.0
s(lp1768
tp1769
a(S'ktor\xc3\xa9'
p1770
(dp1771
S'PRON'
p1772
F1.0
s(lp1773
tp1774
a(S's\xc3\xbavisia'
p1775
(dp1776
S'VERB'
p1777
F1.0
s(lp1778
(g320
I35
tp1779
atp1780
a(g1752
(dp1781
g49
F0.001377
sS'CONJ'
p1782
F4e-05
sS'NOUN'
p1783
F3.5000000000000004e-05
sS'ADP'
p1784
F0.998475
sS'PRT'
p1785
F7.4e-05
s(lp1786
(g565
I36
tp1787
atp1788
a(S'\xc3\xbalohami'
p1789
(dp1790
S'NOUN'
p1791
F1.0
s(lp1792
(g335
I38
tp1793
atp1794
a(g143
(dp1795
g19
F1.0
s(lp1796
tp1797
a(S'ktor\xc3\xbdm'
p1798
(dp1799
S'PRON'
p1800
F1.0
s(lp1801
(g349
I39
tp1802
atp1803
a(S'bud\xc3\xba'
p1804
(dp1805
g49
F0.0
sS'VERB'
p1806
F1.0
s(lp1807
(g590
I40
tp1808
atp1809
a(S'\xc4\x8deli\xc5\xa5'
p1810
(dp1811
S'VERB'
p1812
F1.0
s(lp1813
(g596
I41
tp1814
atp1815
a(g19
(dp1816
g19
F1.0
s(lp1817
(g19
I42
tp1818
atp1819
asS'pl'
p1820
(lp1821
(S'na'
p1822
(dp1823
g49
F1e-06
sS'VERB'
p1824
F0.0
sS'NOUN'
p1825
F0.0
sS'ADP'
p1826
F0.999997
sS'PRT'
p1827
F1e-06
s(lp1828
tp1829
a(S'pi\xc5\x9bmie'
p1830
(dp1831
S'NOUN'
p1832
F1.0
s(lp1833
(g16
I1
tp1834
atp1835
a(g24
(dp1836
g49
F2.1e-05
sS'NUM'
p1837
F1e-06
sS'NOUN'
p1838
F2.4e-05
sg19
F0.999953
s(lp1839
(g24
I3
tp1840
atp1841
a(S'g\xc5\x82osowa\xc5\x82em'
p1842
(dp1843
S'ADV'
p1844
F0.00542
sS'ADJ'
p1845
F0.00607
sS'VERB'
p1846
F0.219952
sS'NOUN'
p1847
F0.7685600000000002
s(lp1848
tp1849
a(S'za'
p1850
(dp1851
S'PRT'
p1852
F0.009792
sS'VERB'
p1853
F0.000239
sS'NOUN'
p1854
F2.2e-05
sS'ADP'
p1855
F0.9899459999999999
sg49
F1e-06
s(lp1856
(g63
I5
tp1857
atp1858
a(S'zatwierdzeniem'
p1859
(dp1860
S'ADV'
p1861
F3.5e-05
sS'ADJ'
p1862
F0.0020139999999999997
sS'VERB'
p1863
F0.17771900000000004
sS'NOUN'
p1864
F0.820232
s(lp1865
(g77
I7
tp1866
atp1867
a(S'nominacji'
p1868
(dp1869
S'NOUN'
p1870
F1.0
s(lp1871
(g100
I9
tp1872
atp1873
a(S'na'
p1874
(dp1875
g49
F0.000205
sS'VERB'
p1876
F0.000631
sS'NOUN'
p1877
F0.001051
sS'ADP'
p1878
F0.9979119999999999
sS'PRT'
p1879
F0.000201
s(lp1880
(g423
I11
tp1881
atp1882
a(S'przewodnicz\xc4\x85cych'
p1883
(dp1884
S'NOUN'
p1885
F1.0
s(lp1886
(g115
I12
tp1887
atp1888
a(S'eba'
p1889
(dp1890
S'ADJ'
p1891
F0.0024089999999999997
sS'VERB'
p1892
F0.036182
sS'NOUN'
p1893
F0.9614100000000001
s(lp1894
(g140
I15
tp1895
atp1896
a(g143
(dp1897
g49
F0.0
sg19
F1.0
s(lp1898
(g143
I16
tp1899
atp1900
a(S'eiopa'
p1901
(dp1902
S'ADJ'
p1903
F0.023493
sS'VERB'
p1904
F0.029183
sS'NOUN'
p1905
F0.9473250000000001
s(lp1906
(g164
I17
tp1907
atp1908
a(g51
(dp1909
S'PRT'
p1910
F0.00872
sS'CONJ'
p1911
F0.990482
sS'PRON'
p1912
F6e-06
sS'NOUN'
p1913
F0.000749
sg49
F4.3e-05
s(lp1914
(g171
I18
tp1915
atp1916
a(S'esma'
p1917
(dp1918
S'ADJ'
p1919
F0.041492
sS'VERB'
p1920
F0.020624
sS'NOUN'
p1921
F0.9378849999999999
s(lp1922
(g192
I19
tp1923
atp1924
a(g143
(dp1925
g49
F0.0
sg19
F1.0
s(lp1926
tp1927
a(S'poniewa\xc5\xbc'
p1928
(dp1929
S'CONJ'
p1930
F1.0
s(lp1931
(g200
I20
tp1932
atp1933
a(S'podczas'
p1934
(dp1935
S'ADP'
p1936
F1.0
s(lp1937
(g227
I23
tp1938
atp1939
a(S'rozm\xc3\xb3w'
p1940
(dp1941
S'NOUN'
p1942
F1.0
s(lp1943
(g164
I17
tp1944
atp1945
a(S'kwalifikacyjnych'
p1946
(dp1947
S'ADJ'
p1948
F1.0
s(lp1949
(g164
I17
tp1950
atp1951
a(S'kandydaci'
p1952
(dp1953
S'NOUN'
p1954
F1.0
s(lp1955
(g164
I17
tp1956
atp1957
a(S'wykazali'
p1958
(dp1959
S'VERB'
p1960
F1.0
s(lp1961
(g164
I17
tp1962
atp1963
a(g143
(dp1964
g49
F0.0
sg19
F1.0
s(lp1965
tp1966
a(S'\xc5\xbce'
p1967
(dp1968
S'PRT'
p1969
F0.00107
sS'CONJ'
p1970
F0.99893
s(lp1971
(g250
I26
tp1972
atp1973
a(S's\xc4\x85'
p1974
(dp1975
S'VERB'
p1976
F1.0
s(lp1977
(g264
I28
tp1978
atp1979
a(S'kompetentni'
p1980
(dp1981
S'ADJ'
p1982
F1.0
s(lp1983
(g271
I29
tp1984
atp1985
a(g51
(dp1986
S'PRT'
p1987
F0.005154
sS'CONJ'
p1988
F0.994828
sS'NOUN'
p1989
F3e-06
sg49
F2e-06
sS'PRON'
p1990
F1.5e-05
s(lp1991
(g278
I30
tp1992
atp1993
a(S'\xc5\x9bwiadomi'
p1994
(dp1995
S'ADJ'
p1996
F1.0
s(lp1997
(g536
I31
tp1998
atp1999
a(S'spraw'
p2000
(dp2001
S'VERB'
p2002
F6.7e-05
sS'NOUN'
p2003
F0.999933
s(lp2004
(g312
I34
tp2005
atp2006
a(S'zwi\xc4\x85zanych'
p2007
(dp2008
S'VERB'
p2009
F0.000325
sS'ADJ'
p2010
F0.999675
s(lp2011
tp2012
a(S'z'
p2013
(dp2014
S'PRT'
p2015
F3e-06
sS'VERB'
p2016
F0.0
sS'NOUN'
p2017
F0.0
sS'ADP'
p2018
F0.999998
sg49
F0.0
s(lp2019
(g320
I35
tp2020
atp2021
a(S'zadaniami'
p2022
(dp2023
S'NOUN'
p2024
F1.0
s(lp2025
(g335
I38
tp2026
atp2027
a(g143
(dp2028
g49
F0.0
sg19
F1.0
s(lp2029
tp2030
a(S'jakie'
p2031
(dp2032
S'ADJ'
p2033
F1.0
s(lp2034
tp2035
a(S'zostan\xc4\x85'
p2036
(dp2037
S'VERB'
p2038
F1.0
s(lp2039
(g349
I39
tp2040
atp2041
a(S'przed'
p2042
(dp2043
S'ADP'
p2044
F1.0
s(lp2045
(g596
I41
tp2046
atp2047
a(S'nimi'
p2048
(dp2049
S'PRON'
p2050
F0.9999989999999997
s(lp2051
tp2052
a(S'postawione'
p2053
(dp2054
S'VERB'
p2055
F0.999999
s(lp2056
(g164
I17
tp2057
atp2058
a(g19
(dp2059
g19
F1.0
s(lp2060
(g19
I42
tp2061
atp2062
asS'sl'
p2063
(lp2064
(S'v'
p2065
(dp2066
S'ADP'
p2067
F1.0
s(lp2068
(g8
I0
tp2069
atp2070
a(S'pisni'
p2071
(dp2072
S'ADJ'
p2073
F1.0
s(lp2074
tp2075
a(S'obliki'
p2076
(dp2077
S'NOUN'
p2078
F1.0
s(lp2079
(g16
I1
tp2080
atp2081
a(g19
(dp2082
g19
F1.0
s(lp2083
(g19
I2
tp2084
atp2085
a(g24
(dp2086
g19
F1.0
s(lp2087
(g24
I3
tp2088
atp2089
a(S'glasoval'
p2090
(dp2091
S'VERB'
p2092
F1.0
s(lp2093
tp2094
a(S'sem'
p2095
(dp2096
S'ADV'
p2097
F0.056213
sS'PRT'
p2098
F0.007679
sS'VERB'
p2099
F0.936108
s(lp2100
(g63
I5
tp2101
atp2102
a(S'za'
p2103
(dp2104
S'ADV'
p2105
F0.0001
sg49
F4e-06
sS'ADP'
p2106
F0.999895
s(lp2107
(g84
I6
tp2108
atp2109
a(S'imenovanje'
p2110
(dp2111
S'NOUN'
p2112
F1.0
s(lp2113
(g100
I9
tp2114
atp2115
a(S'predsednikov'
p2116
(dp2117
S'ADJ'
p2118
F0.001142
sS'NOUN'
p2119
F0.998859
s(lp2120
(g115
I12
tp2121
atp2122
a(S'evropskega'
p2123
(dp2124
S'ADJ'
p2125
F1.0
s(lp2126
(g140
I15
tp2127
atp2128
a(S'ban\xc4\x8dnega'
p2129
(dp2130
S'ADJ'
p2131
F1.0
s(lp2132
(g140
I15
tp2133
atp2134
a(S'organa'
p2135
(dp2136
S'NOUN'
p2137
F1.0
s(lp2138
(g164
I17
tp2139
atp2140
a(g143
(dp2141
g19
F1.0
s(lp2142
(g143
I16
tp2143
atp2144
a(S'evropskega'
p2145
(dp2146
S'ADJ'
p2147
F1.0
s(lp2148
(g140
I15
tp2149
atp2150
a(S'organa'
p2151
(dp2152
S'NOUN'
p2153
F1.0
s(lp2154
tp2155
a(S'za'
p2156
(dp2157
S'ADV'
p2158
F0.000158
sg49
F1.2e-05
sS'ADP'
p2159
F0.99983
s(lp2160
tp2161
a(S'zavarovanja'
p2162
(dp2163
S'NOUN'
p2164
F1.0
s(lp2165
(g140
I15
tp2166
atp2167
a(S'in'
p2168
(dp2169
S'ADV'
p2170
F6.2e-05
sg49
F4e-06
sS'CONJ'
p2171
F0.999895
sS'NOUN'
p2172
F3.9e-05
s(lp2173
(g171
I18
tp2174
atp2175
a(S'poklicne'
p2176
(dp2177
S'ADJ'
p2178
F1.0
s(lp2179
tp2180
a(S'pokojnine'
p2181
(dp2182
S'NOUN'
p2183
F0.999999
s(lp2184
(g164
I17
tp2185
atp2186
a(S'in'
p2187
(dp2188
S'ADV'
p2189
F9.3e-05
sg49
F2.3e-05
sS'CONJ'
p2190
F0.9998
sS'NOUN'
p2191
F8.4e-05
s(lp2192
(g192
I19
tp2193
atp2194
a(S'evropskega'
p2195
(dp2196
S'ADJ'
p2197
F1.0
s(lp2198
(g192
I19
tp2199
atp2200
a(S'organa'
p2201
(dp2202
S'NOUN'
p2203
F1.0
s(lp2204
(g192
I19
tp2205
atp2206
a(S'za'
p2207
(dp2208
S'ADV'
p2209
F4.6e-05
sg49
F1e-06
sS'ADP'
p2210
F0.999953
s(lp2211
(g192
I19
tp2212
atp2213
a(S'vrednostne'
p2214
(dp2215
S'ADJ'
p2216
F1.0
s(lp2217
(g192
I19
tp2218
atp2219
a(S'papirje'
p2220
(dp2221
S'NOUN'
p2222
F1.0
s(lp2223
(g192
I19
tp2224
atp2225
a(S'in'
p2226
(dp2227
S'ADV'
p2228
F5e-05
sg49
F7e-06
sS'CONJ'
p2229
F0.999937
sS'NOUN'
p2230
F5e-06
s(lp2231
tp2232
a(S'trge'
p2233
(dp2234
S'NOUN'
p2235
F1.0
s(lp2236
(g192
I19
tp2237
atp2238
a(g143
(dp2239
g19
F1.0
s(lp2240
tp2241
a(S'saj'
p2242
(dp2243
S'CONJ'
p2244
F1.0
s(lp2245
(g200
I20
tp2246
atp2247
a(S'so'
p2248
(dp2249
g49
F0.000246
sS'VERB'
p2250
F0.999754
s(lp2251
(g207
I21
tp2252
atp2253
a(S'med'
p2254
(dp2255
S'NOUN'
p2256
F0.000221
sS'ADP'
p2257
F0.999779
s(lp2258
(g227
I23
tp2259
atp2260
a(S'zasli\xc5\xa1anji'
p2261
(dp2262
S'ADV'
p2263
F0.000911
sS'ADJ'
p2264
F0.00033500000000000007
sS'VERB'
p2265
F3.1e-05
sS'NOUN'
p2266
F0.9987269999999999
s(lp2267
(g241
I25
tp2268
atp2269
a(S'pokazali'
p2270
(dp2271
S'VERB'
p2272
F1.0
s(lp2273
(g219
I22
tp2274
atp2275
a(g143
(dp2276
g19
F1.0
s(lp2277
tp2278
a(S'da'
p2279
(dp2280
S'PRT'
p2281
F2e-06
sS'CONJ'
p2282
F0.999988
sS'VERB'
p2283
F1e-05
sg49
F0.0
s(lp2284
(g250
I26
tp2285
atp2286
a(S'so'
p2287
(dp2288
g49
F0.0
sS'VERB'
p2289
F0.999999
s(lp2290
(g264
I28
tp2291
atp2292
a(S'usposobljeni'
p2293
(dp2294
S'ADJ'
p2295
F1.0
s(lp2296
(g271
I29
tp2297
atp2298
a(S'in'
p2299
(dp2300
S'ADV'
p2301
F6.8e-05
sg49
F0.000133
sS'CONJ'
p2302
F0.999793
sS'NOUN'
p2303
F6e-06
s(lp2304
(g278
I30
tp2305
atp2306
a(S'da'
p2307
(dp2308
S'PRT'
p2309
F0.010538
sS'CONJ'
p2310
F0.988636
sS'VERB'
p2311
F0.000784
sg49
F4.3e-05
s(lp2312
(g257
I27
tp2313
atp2314
a(S'poznajo'
p2315
(dp2316
S'VERB'
p2317
F1.0
s(lp2318
(g536
I31
tp2319
atp2320
a(S'vpra\xc5\xa1anja'
p2321
(dp2322
S'NOUN'
p2323
F1.0
s(lp2324
(g312
I34
tp2325
atp2326
a(g143
(dp2327
g19
F1.0
s(lp2328
tp2329
a(S'povezana'
p2330
(dp2331
S'ADJ'
p2332
F0.9999990000000001
s(lp2333
tp2334
a(g2013
(dp2335
S'ADP'
p2336
F1.0
s(lp2337
(g320
I35
tp2338
atp2339
a(S'nalogami'
p2340
(dp2341
S'NOUN'
p2342
F1.0
s(lp2343
(g335
I38
tp2344
atp2345
a(g143
(dp2346
g19
F1.0
s(lp2347
tp2348
a(S'ki'
p2349
(dp2350
S'CONJ'
p2351
F1.0
s(lp2352
tp2353
a(S'jih'
p2354
(dp2355
S'PRON'
p2356
F1.0
s(lp2357
(g349
I39
tp2358
atp2359
a(S'bodo'
p2360
(dp2361
S'VERB'
p2362
F1.0
s(lp2363
(g590
I40
tp2364
atp2365
a(S'opravljali'
p2366
(dp2367
S'VERB'
p2368
F1.0
s(lp2369
(g596
I41
tp2370
atp2371
a(g19
(dp2372
g19
F1.0
s(lp2373
(g19
I42
tp2374
atp2375
asS'es'
p2376
(lp2377
(S'por'
p2378
(dp2379
S'ADP'
p2380
F1.0
s(lp2381
tp2382
a(S'escrito'
p2383
(dp2384
S'VERB'
p2385
F0.31338
sS'ADJ'
p2386
F0.68662
s(lp2387
(g16
I1
tp2388
atp2389
a(g19
(dp2390
g19
F1.0
s(lp2391
(g19
I2
tp2392
atp2393
a(g24
(dp2394
g19
F1.0
s(lp2395
(g24
I3
tp2396
atp2397
a(S'he'
p2398
(dp2399
S'VERB'
p2400
F1.0
s(lp2401
(g51
I4
tp2402
atp2403
a(S'votado'
p2404
(dp2405
S'VERB'
p2406
F1.0
s(lp2407
tp2408
a(g1260
(dp2409
g49
F3.9e-05
sS'CONJ'
p2410
F9.6e-05
sS'ADP'
p2411
F0.999865
s(lp2412
(g8
I0
tp2413
atp2414
a(S'favor'
p2415
(dp2416
S'NOUN'
p2417
F1.0
s(lp2418
(g63
I5
tp2419
atp2420
a(S'de'
p2421
(dp2422
g49
F0.0
sS'CONJ'
p2423
F1.7e-05
sS'ADP'
p2424
F0.999983
s(lp2425
(g84
I6
tp2426
atp2427
a(S'la'
p2428
(dp2429
g49
F0.0
sS'PRON'
p2430
F0.0
sS'DET'
p2431
F0.999999
sS'NOUN'
p2432
F0.0
s(lp2433
tp2434
a(S'aprobaci\xc3\xb3n'
p2435
(dp2436
S'NOUN'
p2437
F1.0
s(lp2438
(g77
I7
tp2439
atp2440
a(S'de'
p2441
(dp2442
g49
F0.0
sS'CONJ'
p2443
F1.7e-05
sS'ADP'
p2444
F0.999983
s(lp2445
tp2446
a(S'los'
p2447
(dp2448
S'PRON'
p2449
F0.0
sS'DET'
p2450
F1.0
s(lp2451
(g93
I8
tp2452
atp2453
a(S'nombramientos'
p2454
(dp2455
S'NOUN'
p2456
F1.0
s(lp2457
(g100
I9
tp2458
atp2459
a(S'de'
p2460
(dp2461
g49
F0.0
sS'CONJ'
p2462
F1.7e-05
sS'ADP'
p2463
F0.999983
s(lp2464
(g108
I10
tp2465
atp2466
a(S'los'
p2467
(dp2468
S'PRON'
p2469
F0.0
sS'DET'
p2470
F1.0
s(lp2471
(g423
I11
tp2472
atp2473
a(S'presidentes'
p2474
(dp2475
S'NOUN'
p2476
F1.0
s(lp2477
(g115
I12
tp2478
atp2479
a(S'de'
p2480
(dp2481
g49
F6.6e-05
sS'CONJ'
p2482
F0.000183
sS'ADP'
p2483
F0.999751
s(lp2484
(g122
I13
tp2485
atp2486
a(S'la'
p2487
(dp2488
S'PRON'
p2489
F0.0033520000000000004
sS'DET'
p2490
F0.995781
sS'NOUN'
p2491
F0.000154
sg49
F0.000713
s(lp2492
(g131
I14
tp2493
atp2494
a(S'abe'
p2495
(dp2496
S'VERB'
p2497
F1.0
s(lp2498
(g140
I15
tp2499
atp2500
a(g143
(dp2501
g19
F1.0
s(lp2502
(g143
I16
tp2503
atp2504
a(S'la'
p2505
(dp2506
S'PRON'
p2507
F0.009968999999999999
sS'DET'
p2508
F0.990012
sS'NOUN'
p2509
F1e-06
sg49
F1.8e-05
s(lp2510
tp2511
a(S'aespj'
p2512
(dp2513
S'ADJ'
p2514
F0.001323
sS'VERB'
p2515
F0.011364
sS'NOUN'
p2516
F0.9873120000000001
s(lp2517
(g164
I17
tp2518
atp2519
a(S'y'
p2520
(dp2521
g49
F0.000383
sS'CONJ'
p2522
F0.999617
s(lp2523
(g171
I18
tp2524
atp2525
a(S'la'
p2526
(dp2527
S'PRON'
p2528
F0.002107
sS'DET'
p2529
F0.997892
sg49
F0.0
sS'NOUN'
p2530
F0.0
s(lp2531
tp2532
a(S'aevm'
p2533
(dp2534
S'ADJ'
p2535
F0.000946
sS'VERB'
p2536
F0.0014559999999999998
sS'NOUN'
p2537
F0.997597
s(lp2538
(g192
I19
tp2539
atp2540
a(g143
(dp2541
g19
F1.0
s(lp2542
tp2543
a(S'ya'
p2544
(dp2545
S'CONJ'
p2546
F1.0
s(lp2547
(g200
I20
tp2548
atp2549
a(S'que'
p2550
(dp2551
S'CONJ'
p2552
F1.0
s(lp2553
(g207
I21
tp2554
atp2555
a(S'han'
p2556
(dp2557
S'VERB'
p2558
F1.0
s(lp2559
tp2560
a(S'demostrado'
p2561
(dp2562
S'VERB'
p2563
F1.0
s(lp2564
(g219
I22
tp2565
atp2566
a(S'durante'
p2567
(dp2568
S'ADP'
p2569
F1.0
s(lp2570
(g227
I23
tp2571
atp2572
a(S'sus'
p2573
(dp2574
S'PRON'
p2575
F1.0
s(lp2576
(g234
I24
tp2577
atp2578
a(S'comparecencias'
p2579
(dp2580
S'NOUN'
p2581
F1.0
s(lp2582
(g241
I25
tp2583
atp2584
a(S'que'
p2585
(dp2586
g49
F0.0
sS'CONJ'
p2587
F1.0
s(lp2588
(g250
I26
tp2589
atp2590
a(S'eran'
p2591
(dp2592
S'VERB'
p2593
F1.0
s(lp2594
(g264
I28
tp2595
atp2596
a(S'competentes'
p2597
(dp2598
S'ADJ'
p2599
F1.0
s(lp2600
(g271
I29
tp2601
atp2602
a(g2520
(dp2603
g49
F0.000435
sS'CONJ'
p2604
F0.999565
s(lp2605
(g278
I30
tp2606
atp2607
a(S'conoc\xc3\xadan'
p2608
(dp2609
S'VERB'
p2610
F1.0
s(lp2611
(g536
I31
tp2612
atp2613
a(S'las'
p2614
(dp2615
S'PRON'
p2616
F0.0
sS'DET'
p2617
F1.0
s(lp2618
(g305
I33
tp2619
atp2620
a(S'cuestiones'
p2621
(dp2622
S'NOUN'
p2623
F1.0
s(lp2624
(g312
I34
tp2625
atp2626
a(S'relacionadas'
p2627
(dp2628
S'VERB'
p2629
F1.0
s(lp2630
tp2631
a(S'con'
p2632
(dp2633
S'ADP'
p2634
F1.0
s(lp2635
(g320
I35
tp2636
atp2637
a(S'las'
p2638
(dp2639
S'PRON'
p2640
F0.0
sS'DET'
p2641
F1.0
s(lp2642
(g327
I37
tp2643
atp2644
a(S'tareas'
p2645
(dp2646
S'NOUN'
p2647
F1.0
s(lp2648
(g335
I38
tp2649
atp2650
a(S'que'
p2651
(dp2652
g49
F3e-06
sS'CONJ'
p2653
F0.999997
s(lp2654
(g349
I39
tp2655
atp2656
a(S'tendr\xc3\xadan'
p2657
(dp2658
S'VERB'
p2659
F1.0
s(lp2660
(g590
I40
tp2661
atp2662
a(S'que'
p2663
(dp2664
g49
F0.0
sS'CONJ'
p2665
F1.0
s(lp2666
tp2667
a(S'asumir'
p2668
(dp2669
S'VERB'
p2670
F1.0
s(lp2671
(g596
I41
tp2672
atp2673
a(g19
(dp2674
g19
F1.0
s(lp2675
(g19
I42
tp2676
atp2677
as.