(dp0
S'fr'
p1
(lp2
(S'le'
p3
(dp4
S'PRON'
p5
F0.00077
sS'DET'
p6
F0.99923
s(lp7
(S'the'
p8
I0
tp9
atp10
a(S'sujet'
p11
(dp12
S'ADJ'
p13
F0.400506
sS'NOUN'
p14
F0.599494
s(lp15
(S'topic'
p16
I1
tp17
atp18
a(S'des'
p19
(dp20
S'DET'
p21
F2.2e-05
sS'ADP'
p22
F0.999978
s(lp23
(S'of'
p24
I2
tp25
atp26
a(S'industries'
p27
(dp28
S'NOUN'
p29
F1.0
s(lp30
(S'industries'
p31
I5
tp32
atp33
a(S'culturelles'
p34
(dp35
S'ADJ'
p36
F1.0
s(lp37
(S'cultural'
p38
I4
tp39
atp40
a(S'est'
p41
(dp42
S'VERB'
p43
F0.99832
sS'NOUN'
p44
F0.00168
s(lp45
(S'is'
p46
I6
tp47
atp48
a(S'\xc3\xa9troitement'
p49
(dp50
S'ADV'
p51
F1.0
s(lp52
(S'closely'
p53
I7
tp54
atp55
a(S'li\xc3\xa9'
p56
(dp57
S'VERB'
p58
F0.945157
sS'ADJ'
p59
F0.054843
s(lp60
(S'connected'
p61
I8
tp62
atp63
a(S'\xc3\xa0'
p64
(dp65
S'ADP'
p66
F1.0
s(lp67
(S'to'
p68
I9
tp69
atp70
a(S'celui'
p71
(dp72
S'PRON'
p73
F1.0
s(lp74
(S'topic'
p75
I11
tp76
atp77
a(S'de'
p78
(dp79
S'ADP'
p80
F1.0
s(lp81
(S'of'
p82
I12
tp83
atp84
a(S'la'
p85
(dp86
S'PRON'
p87
F1.2e-05
sS'DET'
p88
F0.999988
sS'NOUN'
p89
F0.0
s(lp90
(S'the'
p91
I13
tp92
atp93
a(S'valeur'
p94
(dp95
S'NOUN'
p96
F1.0
s(lp97
(S'value'
p98
I15
tp99
atp100
a(S'\xc3\xa9conomique'
p101
(dp102
S'NOUN'
p103
F0.004459
sS'ADJ'
p104
F0.995541
s(lp105
(S'economic'
p106
I14
tp107
atp108
a(S'de'
p109
(dp110
S'ADP'
p111
F1.0
s(lp112
(S'of'
p113
I16
tp114
atp115
a(S'la'
p116
(dp117
S'PRON'
p118
F1.2e-05
sS'DET'
p119
F0.999988
sS'NOUN'
p120
F0.0
s(lp121
tp122
a(S'culture'
p123
(dp124
S'NOUN'
p125
F1.0
s(lp126
(S'culture'
p127
I17
tp128
atp129
a(S'.'
p130
(dp131
g130
F1.0
s(lp132
(g130
I18
tp133
atp134
asS'en'
p135
(lp136
(g8
(dp137
S'NOUN'
p138
F5e-06
sS'DET'
p139
F0.999995
s(lp140
(g8
I0
tp141
atp142
a(g16
(dp143
S'NOUN'
p144
F1.0
s(lp145
(g16
I1
tp146
atp147
a(g24
(dp148
S'ADP'
p149
F1.0
s(lp150
(g24
I2
tp151
atp152
a(S'the'
p153
(dp154
S'NOUN'
p155
F1e-06
sS'DET'
p156
F0.999999
s(lp157
(g153
I3
tp158
atp159
a(g38
(dp160
S'ADJ'
p161
F1.0
s(lp162
(g38
I4
tp163
atp164
a(g31
(dp165
S'NOUN'
p166
F1.0
s(lp167
(g31
I5
tp168
atp169
a(g46
(dp170
S'VERB'
p171
F1.0
s(lp172
(g46
I6
tp173
atp174
a(g53
(dp175
S'ADV'
p176
F1.0
s(lp177
(g53
I7
tp178
atp179
a(g61
(dp180
S'VERB'
p181
F0.963249
sS'ADJ'
p182
F0.03675
s(lp183
(g61
I8
tp184
atp185
a(g68
(dp186
S'ADV'
p187
F1e-06
sS'PRT'
p188
F0.999992
sS'ADP'
p189
F7e-06
s(lp190
(g68
I9
tp191
atp192
a(S'the'
p193
(dp194
S'NOUN'
p195
F2e-06
sS'DET'
p196
F0.999998
s(lp197
(g193
I10
tp198
atp199
a(g75
(dp200
S'NOUN'
p201
F1.0
s(lp202
(g75
I11
tp203
atp204
a(g82
(dp205
S'ADP'
p206
F1.0
s(lp207
(g82
I12
tp208
atp209
a(g91
(dp210
S'NOUN'
p211
F1e-06
sS'DET'
p212
F0.999999
s(lp213
(g91
I13
tp214
atp215
a(g106
(dp216
S'ADJ'
p217
F1.0
s(lp218
(g106
I14
tp219
atp220
a(g98
(dp221
S'VERB'
p222
F8.7e-05
sS'NOUN'
p223
F0.999913
s(lp224
(g98
I15
tp225
atp226
a(g113
(dp227
S'ADP'
p228
F1.0
s(lp229
(g113
I16
tp230
atp231
a(g127
(dp232
S'VERB'
p233
F1.6e-05
sS'NOUN'
p234
F0.999984
s(lp235
(g127
I17
tp236
atp237
a(g130
(dp238
g130
F1.0
s(lp239
(g130
I18
tp240
atp241
asS'nl'
p242
(lp243
(S'het'
p244
(dp245
S'PRON'
p246
F0.01289
sS'DET'
p247
F0.98711
s(lp248
(g8
I0
tp249
atp250
a(S'thema'
p251
(dp252
S'NOUN'
p253
F1.0
s(lp254
(g16
I1
tp255
atp256
a(S'van'
p257
(dp258
S'ADP'
p259
F1.0
s(lp260
(g24
I2
tp261
atp262
a(S'de'
p263
(dp264
S'DET'
p265
F1.0
s(lp266
(g153
I3
tp267
atp268
a(S'culturele'
p269
(dp270
S'NOUN'
p271
F5e-06
sS'ADJ'
p272
F0.999995
s(lp273
(g38
I4
tp274
atp275
a(S'industrie\xc3\xabn'
p276
(dp277
S'NOUN'
p278
F1.0
s(lp279
(g31
I5
tp280
atp281
a(S'staat'
p282
(dp283
S'VERB'
p284
F0.228034
sS'NOUN'
p285
F0.771966
s(lp286
(g46
I6
tp287
atp288
a(S'in'
p289
(dp290
S'ADV'
p291
F0.08357
sS'VERB'
p292
F5e-06
sS'ADP'
p293
F0.916425
s(lp294
tp295
a(S'nauw'
p296
(dp297
S'NOUN'
p298
F0.00729
sS'ADJ'
p299
F0.99271
s(lp300
(g53
I7
tp301
atp302
a(S'verband'
p303
(dp304
S'NOUN'
p305
F1.0
s(lp306
tp307
a(S'met'
p308
(dp309
S'ADP'
p310
F1.0
s(lp311
(g61
I8
tp312
atp313
a(S'het'
p314
(dp315
S'PRON'
p316
F0.000927
sS'DET'
p317
F0.999073
s(lp318
(g193
I10
tp319
atp320
a(S'thema'
p321
(dp322
S'NOUN'
p323
F1.0
s(lp324
(g75
I11
tp325
atp326
a(S'van'
p327
(dp328
S'ADP'
p329
F1.0
s(lp330
(g82
I12
tp331
atp332
a(S'de'
p333
(dp334
S'DET'
p335
F1.0
s(lp336
(g91
I13
tp337
atp338
a(S'economische'
p339
(dp340
S'NOUN'
p341
F3.9e-05
sS'ADJ'
p342
F0.999961
s(lp343
(g106
I14
tp344
atp345
a(S'waarde'
p346
(dp347
S'NOUN'
p348
F1.0
s(lp349
(g98
I15
tp350
atp351
a(S'van'
p352
(dp353
S'ADP'
p354
F1.0
s(lp355
(g113
I16
tp356
atp357
a(S'cultuur'
p358
(dp359
S'NOUN'
p360
F1.0
s(lp361
(g127
I17
tp362
atp363
a(g130
(dp364
g130
F1.0
s(lp365
(g130
I18
tp366
atp367
asS'de'
p368
(lp369
(S'das'
p370
(dp371
S'PRON'
p372
F0.032588
sS'DET'
p373
F0.967099
s(lp374
(g8
I0
tp375
atp376
a(S'thema'
p377
(dp378
S'VERB'
p379
F0.001667
sS'NOUN'
p380
F0.997968
s(lp381
(g16
I1
tp382
atp383
a(S'der'
p384
(dp385
S'PRON'
p386
F0.0001
sS'DET'
p387
F0.999864
s(lp388
(g153
I3
tp389
atp390
a(S'kulturwirtschaft'
p391
(dp392
S'ADJ'
p393
F0.032998
sS'NOUN'
p394
F0.933672
s(lp395
(g31
I5
tp396
atp397
a(S'ist'
p398
(dp399
S'VERB'
p400
F1.0
s(lp401
(g46
I6
tp402
atp403
a(S'eng'
p404
(dp405
S'VERB'
p406
F0.0
sS'ADJ'
p407
F1.0
s(lp408
(g53
I7
tp409
atp410
a(S'mit'
p411
(dp412
S'PRT'
p413
F0.002221
sS'ADP'
p414
F0.997779
s(lp415
tp416
a(S'der'
p417
(dp418
S'PRON'
p419
F0.239787
sS'DET'
p420
F0.756156
s(lp421
(g193
I10
tp422
atp423
a(S'frage'
p424
(dp425
S'VERB'
p426
F1.0
s(lp427
(g75
I11
tp428
atp429
a(S'des'
p430
(dp431
S'DET'
p432
F1.0
s(lp433
(g82
I12
tp434
atp435
a(S'wirtschaftlichen'
p436
(dp437
S'ADJ'
p438
F1.0
s(lp439
(g106
I14
tp440
atp441
a(S'mehrwertes'
p442
(dp443
S'ADJ'
p444
F1.0
s(lp445
(g98
I15
tp446
atp447
a(S'der'
p448
(dp449
S'PRON'
p450
F0.00656
sS'DET'
p451
F0.993173
s(lp452
(g113
I16
tp453
atp454
a(S'kultur'
p455
(dp456
S'ADJ'
p457
F0.046111
sS'NOUN'
p458
F0.935054
s(lp459
(g127
I17
tp460
atp461
a(S'verbunden'
p462
(dp463
S'VERB'
p464
F0.815756
sS'ADJ'
p465
F0.184244
s(lp466
(g61
I8
tp467
atp468
a(g130
(dp469
g130
F1.0
s(lp470
(g130
I18
tp471
atp472
asS'it'
p473
(lp474
(S"l'"
p475
(dp476
S'NOUN'
p477
F0.00259
sS'VERB'
p478
F0.9925710000000001
sS'ADJ'
p479
F0.00484
s(lp480
(g8
I0
tp481
atp482
a(S'argomento'
p483
(dp484
S'VERB'
p485
F0.007878
sS'NOUN'
p486
F0.992122
s(lp487
(g16
I1
tp488
atp489
a(S'delle'
p490
(dp491
S'DEF'
p492
F0.001376
sS'ADP'
p493
F0.998624
s(lp494
(g24
I2
tp495
atp496
a(S'industrie'
p497
(dp498
S'NOUN'
p499
F1.0
s(lp500
(g31
I5
tp501
atp502
a(S'culturali'
p503
(dp504
S'ADJ'
p505
F1.0
s(lp506
(g38
I4
tp507
atp508
a(S'\xc3\xa8'
p509
(dp510
S'VERB'
p511
F1.0
s(lp512
(g46
I6
tp513
atp514
a(S'strettamente'
p515
(dp516
S'ADV'
p517
F1.0
s(lp518
(g53
I7
tp519
atp520
a(S'collegato'
p521
(dp522
S'VERB'
p523
F0.957618
sS'NOUN'
p524
F0.042382
s(lp525
(g61
I8
tp526
atp527
a(S'a'
p528
(dp529
S'CONJ'
p530
F0.000494
sS'ADP'
p531
F0.999506
s(lp532
(g68
I9
tp533
atp534
a(S'quello'
p535
(dp536
S'PRON'
p537
F1.0
s(lp538
(g75
I11
tp539
atp540
a(S'del'
p541
(dp542
S'DEF'
p543
F0.000855
sS'ADP'
p544
F0.999145
s(lp545
(g82
I12
tp546
atp547
a(S'valore'
p548
(dp549
S'NOUN'
p550
F1.0
s(lp551
(g98
I15
tp552
atp553
a(S'economico'
p554
(dp555
S'ADJ'
p556
F1.0
s(lp557
(g106
I14
tp558
atp559
a(S'della'
p560
(dp561
S'DEF'
p562
F0.00272
sS'ADP'
p563
F0.99728
s(lp564
(g113
I16
tp565
atp566
a(S'cultura'
p567
(dp568
S'NOUN'
p569
F1.0
s(lp570
(g127
I17
tp571
atp572
a(g130
(dp573
g130
F1.0
s(lp574
(g130
I18
tp575
atp576
asS'sk'
p577
(lp578
(S'\xc3\x9astredn\xc3\xa1'
p579
(dp580
S'ADJ'
p581
F1.0
s(lp582
tp583
a(S'my\xc5\xa1lienka'
p584
(dp585
S'NOUN'
p586
F1.0
s(lp587
(g16
I1
tp588
atp589
a(S'kult\xc3\xbarneho'
p590
(dp591
S'ADJ'
p592
F1.0
s(lp593
(g38
I4
tp594
atp595
a(S'priemyslu'
p596
(dp597
S'NOUN'
p598
F1.0
s(lp599
(g31
I5
tp600
atp601
a(S'je'
p602
(dp603
S'X'
p604
F0.000484
sS'VERB'
p605
F0.999486
sS'PRON'
p606
F3e-05
s(lp607
(g46
I6
tp608
atp609
a(S'\xc3\xbazko'
p610
(dp611
S'ADV'
p612
F1.0
s(lp613
(g53
I7
tp614
atp615
a(S'spojen\xc3\xa1'
p616
(dp617
S'VERB'
p618
F1.0
s(lp619
tp620
a(S's'
p621
(dp622
g604
F0.001053
sS'CONJ'
p623
F6.3e-05
sS'NOUN'
p624
F3.4e-05
sS'ADP'
p625
F0.998832
sS'PRT'
p626
F1.8e-05
s(lp627
(g61
I8
tp628
atp629
a(S'my\xc5\xa1lienkou'
p630
(dp631
S'NOUN'
p632
F1.0
s(lp633
(g75
I11
tp634
atp635
a(S'ekonomick\xc3\xbdch'
p636
(dp637
S'ADJ'
p638
F1.0
s(lp639
(g106
I14
tp640
atp641
a(S'hodn\xc3\xb4t'
p642
(dp643
S'NOUN'
p644
F1.0
s(lp645
(g98
I15
tp646
atp647
a(S'kult\xc3\xbary'
p648
(dp649
S'NOUN'
p650
F1.0
s(lp651
(g127
I17
tp652
atp653
a(g130
(dp654
g130
F1.0
s(lp655
(g130
I18
tp656
atp657
asS'pl'
p658
(lp659
(S'kwestia'
p660
(dp661
S'NOUN'
p662
F1.0
s(lp663
(g16
I1
tp664
atp665
a(S'przemys\xc5\x82u'
p666
(dp667
S'NOUN'
p668
F1.0
s(lp669
(g31
I5
tp670
atp671
a(S'kulturalnego'
p672
(dp673
S'ADJ'
p674
F1.0
s(lp675
(g38
I4
tp676
atp677
a(S'jest'
p678
(dp679
S'VERB'
p680
F1.0
s(lp681
(g46
I6
tp682
atp683
a(S'\xc5\x9bci\xc5\x9ble'
p684
(dp685
S'ADV'
p686
F1.0
s(lp687
(g53
I7
tp688
atp689
a(S'powi\xc4\x85zana'
p690
(dp691
S'VERB'
p692
F1.0
s(lp693
tp694
a(S'z'
p695
(dp696
S'PRT'
p697
F8e-06
sS'VERB'
p698
F0.0
sS'NOUN'
p699
F0.0
sS'ADP'
p700
F0.9999910000000001
sg604
F0.0
s(lp701
(g61
I8
tp702
atp703
a(S'zagadnieniem'
p704
(dp705
S'NOUN'
p706
F1.0
s(lp707
(g75
I11
tp708
atp709
a(S'warto\xc5\x9bci'
p710
(dp711
S'NOUN'
p712
F0.9999990000000001
s(lp713
(g98
I15
tp714
atp715
a(S'ekonomicznej'
p716
(dp717
S'ADJ'
p718
F1.0
s(lp719
(g106
I14
tp720
atp721
a(S'kultury'
p722
(dp723
S'NOUN'
p724
F1.0
s(lp725
(g127
I17
tp726
atp727
a(g130
(dp728
g130
F1.0
s(lp729
(g130
I18
tp730
atp731
asS'sl'
p732
(lp733
(S'tema'
p734
(dp735
S'PRON'
p736
F0.0005
sS'NOUN'
p737
F0.9995
s(lp738
(g16
I1
tp739
atp740
a(S'kulturnih'
p741
(dp742
S'ADJ'
p743
F1.0
s(lp744
(g38
I4
tp745
atp746
a(S'industrij'
p747
(dp748
S'NOUN'
p749
F1.0
s(lp750
(g31
I5
tp751
atp752
a(S'je'
p753
(dp754
S'PRON'
p755
F8.8e-05
sS'VERB'
p756
F0.999907
sg604
F4e-06
s(lp757
(g46
I6
tp758
atp759
a(S'tesno'
p760
(dp761
S'ADV'
p762
F0.999966
sS'ADJ'
p763
F3.4e-05
s(lp764
(g53
I7
tp765
atp766
a(S'povezana'
p767
(dp768
S'ADJ'
p769
F1.000001
s(lp770
(g61
I8
tp771
atp772
a(g621
(dp773
S'VERB'
p774
F0.050011
sS'NOUN'
p775
F0.006305
sS'ADP'
p776
F0.943684
s(lp777
(g68
I9
tp778
atp779
a(S'temo'
p780
(dp781
S'NOUN'
p782
F1.0
s(lp783
(g75
I11
tp784
atp785
a(S'gospodarske'
p786
(dp787
S'ADJ'
p788
F1.0000010000000001
s(lp789
(g106
I14
tp790
atp791
a(S'vrednosti'
p792
(dp793
S'NOUN'
p794
F0.9999990000000001
s(lp795
(g98
I15
tp796
atp797
a(S'kulture'
p798
(dp799
S'NOUN'
p800
F1.0
s(lp801
(g127
I17
tp802
atp803
a(g130
(dp804
g130
F1.0
s(lp805
(g130
I18
tp806
atp807
asS'es'
p808
(lp809
(S'el'
p810
(dp811
S'PRON'
p812
F1e-05
sS'DET'
p813
F0.99999
s(lp814
(g8
I0
tp815
atp816
a(S'tema'
p817
(dp818
S'NOUN'
p819
F1.0
s(lp820
(g16
I1
tp821
atp822
a(S'de'
p823
(dp824
g604
F0.0
sS'CONJ'
p825
F1.7e-05
sS'ADP'
p826
F0.999983
s(lp827
(g24
I2
tp828
atp829
a(S'las'
p830
(dp831
S'PRON'
p832
F0.0
sS'DET'
p833
F1.0
s(lp834
(g153
I3
tp835
atp836
a(S'industrias'
p837
(dp838
S'NOUN'
p839
F1.0
s(lp840
(g31
I5
tp841
atp842
a(S'culturales'
p843
(dp844
S'ADJ'
p845
F1.0
s(lp846
(g38
I4
tp847
atp848
a(S'se'
p849
(dp850
S'PRON'
p851
F1.0
sS'VERB'
p852
F0.0
s(lp853
(g46
I6
tp854
atp855
a(S'vincula'
p856
(dp857
S'VERB'
p858
F1.0
s(lp859
(g61
I8
tp860
atp861
a(S'estrechamente'
p862
(dp863
S'ADV'
p864
F1.0
s(lp865
(g53
I7
tp866
atp867
a(g528
(dp868
g604
F0.0021
sS'CONJ'
p869
F1.9e-05
sS'ADP'
p870
F0.997882
s(lp871
(g68
I9
tp872
atp873
a(S'la'
p874
(dp875
S'NOUN'
p876
F0.0
sS'PRON'
p877
F0.0
sS'DET'
p878
F0.999999
sg604
F0.0
s(lp879
(g193
I10
tp880
atp881
a(S'cuesti\xc3\xb3n'
p882
(dp883
S'NOUN'
p884
F1.0
s(lp885
(g75
I11
tp886
atp887
a(S'del'
p888
(dp889
S'ADP'
p890
F1.0
s(lp891
(g82
I12
tp892
atp893
a(S'valor'
p894
(dp895
S'NOUN'
p896
F1.0
s(lp897
(g98
I15
tp898
atp899
a(S'econ\xc3\xb3mico'
p900
(dp901
S'ADJ'
p902
F1.0
s(lp903
(g106
I14
tp904
atp905
a(S'de'
p906
(dp907
g604
F0.0
sS'CONJ'
p908
F5.8e-05
sS'ADP'
p909
F0.999942
s(lp910
(g113
I16
tp911
atp912
a(S'la'
p913
(dp914
S'PRON'
p915
F1e-06
sS'DET'
p916
F0.999998
sS'NOUN'
p917
F0.0
sg604
F1e-06
s(lp918
(g91
I13
tp919
atp920
a(S'cultura'
p921
(dp922
S'VERB'
p923
F0.000337
sS'NOUN'
p924
F0.999663
s(lp925
(g127
I17
tp926
atp927
a(g130
(dp928
g130
F1.0
s(lp929
(g130
I18
tp930
atp931
as.