(dp0
S'fr'
p1
(lp2
(S"c'"
p3
(dp4
S'ADJ'
p5
F0.079749
sS'VERB'
p6
F0.5393100000000001
sS'NOUN'
p7
F0.380941
s(lp8
(S'this'
p9
I0
tp10
atp11
a(S'est'
p12
(dp13
S'VERB'
p14
F0.999409
sS'NOUN'
p15
F0.000591
s(lp16
(S'is'
p17
I1
tp18
atp19
a(S'la'
p20
(dp21
S'PRON'
p22
F2.6e-05
sS'DET'
p23
F0.999974
sS'NOUN'
p24
F0.0
s(lp25
tp26
a(S'raison'
p27
(dp28
S'NOUN'
p29
F1.0
s(lp30
(S'why'
p31
I2
tp32
atp33
a(S'pour'
p34
(dp35
S'CONJ'
p36
F0.820176
sS'ADP'
p37
F0.179824
s(lp38
tp39
a(S'laquelle'
p40
(dp41
S'PRON'
p42
F1.0
s(lp43
(g31
I2
tp44
atp45
a(S','
p46
(dp47
S'.'
p48
F1.0
s(lp49
tp50
a(S'en'
p51
(dp52
S'PRON'
p53
F7.5e-05
sS'ADP'
p54
F0.999925
s(lp55
(S'i'
p56
I3
tp57
atp58
a(S'ce'
p59
(dp60
S'PRON'
p61
F1.0
s(lp62
(g56
I3
tp63
atp64
a(S'qui'
p65
(dp66
S'PRON'
p67
F1.0
s(lp68
tp69
a(S'me'
p70
(dp71
S'PRON'
p72
F1.0
s(lp73
tp74
a(S'concerne'
p75
(dp76
S'VERB'
p77
F1.0
s(lp78
(S'personally'
p79
I4
tp80
atp81
a(g46
(dp82
g48
F1.0
s(lp83
tp84
a(S'je'
p85
(dp86
S'PRON'
p87
F1.0
s(lp88
(g56
I3
tp89
atp90
a(S'soutiens'
p91
(dp92
S'VERB'
p93
F0.997154
sS'NOUN'
p94
F0.002846
s(lp95
(S'support'
p96
I5
tp97
atp98
a(S'les'
p99
(dp100
S'PRON'
p101
F0.000124
sS'DET'
p102
F0.999842
sS'ADP'
p103
F3.4e-05
s(lp104
(S'the'
p105
I6
tp106
atp107
a(S'prix'
p108
(dp109
S'NOUN'
p110
F1.0
s(lp111
(S'prices'
p112
I7
tp113
atp114
a(S'fix\xc3\xa9s'
p115
(dp116
S'NOUN'
p117
F0.010457
sS'VERB'
p118
F0.832546
sS'ADJ'
p119
F0.156997
s(lp120
(S'set'
p121
I8
tp122
atp123
a(S'pour'
p124
(dp125
S'CONJ'
p126
F0.064289
sS'ADP'
p127
F0.935711
s(lp128
tp129
a(S'les'
p130
(dp131
S'PRON'
p132
F8.4e-05
sS'DET'
p133
F0.999914
sS'ADP'
p134
F2e-06
s(lp135
(S'growers'
p136
I12
tp137
atp138
a(S'planteurs'
p139
(dp140
S'NOUN'
p141
F1.0
s(lp142
tp143
a(S'de'
p144
(dp145
S'ADP'
p146
F1.0
s(lp147
(S'for'
p148
I9
tp149
atp150
a(S'tabac'
p151
(dp152
S'NOUN'
p153
F1.0
s(lp154
(S'tobacco'
p155
I11
tp156
atp157
a(S'europ\xc3\xa9ens'
p158
(dp159
S'NOUN'
p160
F0.012186
sS'ADJ'
p161
F0.987814
s(lp162
(S'european'
p163
I10
tp164
atp165
a(g46
(dp166
g48
F1.0
s(lp167
tp168
a(S'tant'
p169
(dp170
S'ADV'
p171
F1.0
s(lp172
(S'as'
p173
I17
tp174
atp175
a(g46
(dp176
g48
F1.0
s(lp177
(g46
I13
tp178
atp179
a(S'du'
p180
(dp181
S'ADP'
p182
F1.0
s(lp183
(S'at'
p184
I14
tp185
atp186
a(S'moins'
p187
(dp188
S'ADV'
p189
F1.0
s(lp190
(S'least'
p191
I15
tp192
atp193
a(g46
(dp194
g48
F1.0
s(lp195
tp196
a(S"qu'"
p197
(dp198
S'NOUN'
p199
F0.204295
sS'VERB'
p200
F0.394755
sS'ADJ'
p201
F0.400951
s(lp202
(S'as'
p203
I19
tp204
atp205
a(S'il'
p206
(dp207
S'PRON'
p208
F1.0
s(lp209
(S'people'
p210
I20
tp211
atp212
a(S'se'
p213
(dp214
S'PRON'
p215
F1.0
s(lp216
(S'go'
p217
I21
tp218
atp219
a(S'consommera'
p220
(dp221
S'VERB'
p222
F1.0
s(lp223
(g136
I12
tp224
atp225
a(S'du'
p226
(dp227
S'ADP'
p228
F1.0
s(lp229
(S'on'
p230
I22
tp231
atp232
a(S'tabac'
p233
(dp234
S'NOUN'
p235
F1.0
s(lp236
(S'smoking'
p237
I23
tp238
atp239
a(S'en'
p240
(dp241
S'PRON'
p242
F0.002861
sS'ADP'
p243
F0.997139
s(lp244
(S'in'
p245
I24
tp246
atp247
a(S'europe'
p248
(dp249
S'VERB'
p250
F0.0025519999999999996
sS'NOUN'
p251
F0.997449
s(lp252
(S'europe'
p253
I25
tp254
atp255
a(g48
(dp256
g48
F1.0
s(lp257
(g48
I26
tp258
atp259
asS'en'
p260
(lp261
(g9
(dp262
S'ADV'
p263
F0.000523
sS'NOUN'
p264
F0.000215
sS'DET'
p265
F0.999263
s(lp266
(g9
I0
tp267
atp268
a(g17
(dp269
S'VERB'
p270
F1.0
s(lp271
(g17
I1
tp272
atp273
a(g31
(dp274
S'ADV'
p275
F0.9999889999999999
sS'NOUN'
p276
F1.2e-05
s(lp277
(g31
I2
tp278
atp279
a(g56
(dp280
S'X'
p281
F1e-06
sS'NOUN'
p282
F0.999999
s(lp283
(g56
I3
tp284
atp285
a(g79
(dp286
S'ADV'
p287
F1.0
s(lp288
(g79
I4
tp289
atp290
a(g96
(dp291
S'VERB'
p292
F0.987711
sS'NOUN'
p293
F0.012289
s(lp294
(g96
I5
tp295
atp296
a(g105
(dp297
S'NOUN'
p298
F6e-06
sS'DET'
p299
F0.999994
s(lp300
(g105
I6
tp301
atp302
a(g112
(dp303
S'VERB'
p304
F6.1e-05
sS'NOUN'
p305
F0.999939
s(lp306
(g112
I7
tp307
atp308
a(g121
(dp309
S'ADJ'
p310
F0.00039
sS'VERB'
p311
F0.97209
sS'NOUN'
p312
F0.027519
s(lp313
(g121
I8
tp314
atp315
a(g148
(dp316
S'ADP'
p317
F1.0
s(lp318
(g148
I9
tp319
atp320
a(g163
(dp321
S'NOUN'
p322
F0.071582
sS'VERB'
p323
F4e-06
sS'ADJ'
p324
F0.928414
s(lp325
(g163
I10
tp326
atp327
a(g155
(dp328
S'NOUN'
p329
F1.0
s(lp330
(g155
I11
tp331
atp332
a(g136
(dp333
S'NOUN'
p334
F1.0
s(lp335
(g136
I12
tp336
atp337
a(g46
(dp338
g48
F1.0
s(lp339
(g46
I13
tp340
atp341
a(g184
(dp342
S'NOUN'
p343
F0.0
sS'ADP'
p344
F1.0
s(lp345
(g184
I14
tp346
atp347
a(g191
(dp348
S'ADV'
p349
F0.0007
sS'ADJ'
p350
F0.9993
s(lp351
(g191
I15
tp352
atp353
a(S'for'
p354
(dp355
S'ADP'
p356
F1.0
s(lp357
(g354
I16
tp358
atp359
a(g173
(dp360
S'ADV'
p361
F0.561629
sS'ADP'
p362
F0.438371
s(lp363
(g173
I17
tp364
atp365
a(S'long'
p366
(dp367
S'ADV'
p368
F0.712135
sS'NOUN'
p369
F0.001776
sS'VERB'
p370
F0.000865
sS'ADJ'
p371
F0.285224
s(lp372
(g366
I18
tp373
atp374
a(g203
(dp375
S'ADV'
p376
F0.022432
sS'ADP'
p377
F0.977568
s(lp378
(g203
I19
tp379
atp380
a(g210
(dp381
S'VERB'
p382
F1.7e-05
sS'NOUN'
p383
F0.999983
s(lp384
(g210
I20
tp385
atp386
a(g217
(dp387
S'ADJ'
p388
F0.000793
sS'VERB'
p389
F0.9946250000000001
sS'NOUN'
p390
F0.004582
s(lp391
(g217
I21
tp392
atp393
a(g230
(dp394
S'ADV'
p395
F0.006709
sS'PRT'
p396
F0.015573
sS'ADJ'
p397
F6.6e-05
sS'ADP'
p398
F0.977646
sS'NOUN'
p399
F5e-06
s(lp400
(g230
I22
tp401
atp402
a(g237
(dp403
S'VERB'
p404
F0.154095
sS'NOUN'
p405
F0.845905
s(lp406
(g237
I23
tp407
atp408
a(g245
(dp409
S'ADV'
p410
F0.000184
sS'PRT'
p411
F0.001705
sS'ADP'
p412
F0.998111
s(lp413
(g245
I24
tp414
atp415
a(g253
(dp416
S'ADV'
p417
F0.000285
sS'ADJ'
p418
F0.016849
sS'VERB'
p419
F3e-06
sS'NOUN'
p420
F0.982864
s(lp421
(g253
I25
tp422
atp423
a(g48
(dp424
g48
F1.0
s(lp425
(g48
I26
tp426
atp427
asS'nl'
p428
(lp429
(S'daarom'
p430
(dp431
S'ADV'
p432
F1.0
s(lp433
(g31
I2
tp434
atp435
a(S'steun'
p436
(dp437
S'VERB'
p438
F0.76409
sS'NOUN'
p439
F0.23591
s(lp440
(g96
I5
tp441
atp442
a(S'ik'
p443
(dp444
S'PRON'
p445
F0.999975
sS'NOUN'
p446
F2.5e-05
s(lp447
(g56
I3
tp448
atp449
a(S'de'
p450
(dp451
S'DET'
p452
F1.0
s(lp453
(g105
I6
tp454
atp455
a(S'vaste'
p456
(dp457
S'NOUN'
p458
F3e-06
sS'ADJ'
p459
F0.999997
s(lp460
(g121
I8
tp461
atp462
a(S'prijzen'
p463
(dp464
S'VERB'
p465
F0.001127
sS'NOUN'
p466
F0.998873
s(lp467
(g112
I7
tp468
atp469
a(S'voor'
p470
(dp471
S'ADV'
p472
F0.002235
sS'CONJ'
p473
F7e-06
sS'NOUN'
p474
F0.0
sS'ADP'
p475
F0.997757
s(lp476
(g148
I9
tp477
atp478
a(S'de'
p479
(dp480
S'DET'
p481
F1.0
s(lp482
tp483
a(S'europese'
p484
(dp485
S'NOUN'
p486
F1.0
s(lp487
(g163
I10
tp488
atp489
a(S'tabaksproducenten'
p490
(dp491
S'NOUN'
p492
F1.0
s(lp493
(g155
I11
tp494
atp495
a(g46
(dp496
g48
F1.0
s(lp497
(g46
I13
tp498
atp499
a(S'althans'
p500
(dp501
S'ADV'
p502
F0.990237
sS'CONJ'
p503
F0.009763
s(lp504
(g191
I15
tp505
atp506
a(S'zolang'
p507
(dp508
S'ADV'
p509
F0.000502
sS'CONJ'
p510
F0.999498
s(lp511
(g366
I18
tp512
atp513
a(S'er'
p514
(dp515
S'ADV'
p516
F1.0
s(lp517
(g210
I20
tp518
atp519
a(S'in'
p520
(dp521
S'ADV'
p522
F0.005377
sS'VERB'
p523
F0.0
sS'ADP'
p524
F0.994623
s(lp525
(g245
I24
tp526
atp527
a(S'europa'
p528
(dp529
S'NOUN'
p530
F1.0
s(lp531
(g253
I25
tp532
atp533
a(S'gerookt'
p534
(dp535
S'VERB'
p536
F0.862167
sS'ADJ'
p537
F0.137833
s(lp538
(g237
I23
tp539
atp540
a(S'wordt'
p541
(dp542
S'VERB'
p543
F1.0
s(lp544
tp545
a(g48
(dp546
g48
F1.0
s(lp547
(g48
I26
tp548
atp549
asS'de'
p550
(lp551
(S'deshalb'
p552
(dp553
S'ADV'
p554
F1.0
s(lp555
(g31
I2
tp556
atp557
a(S'unterst\xc3\xbctze'
p558
(dp559
S'VERB'
p560
F1.0
s(lp561
(g96
I5
tp562
atp563
a(S'ich'
p564
(dp565
S'PRON'
p566
F1.0
s(lp567
(g56
I3
tp568
atp569
a(S'pers\xc3\xb6nlich'
p570
(dp571
S'ADJ'
p572
F1.0
s(lp573
(g79
I4
tp574
atp575
a(S'die'
p576
(dp577
S'PRON'
p578
F0.0259
sS'DET'
p579
F0.972017
s(lp580
(g105
I6
tp581
atp582
a(S'f\xc3\xbcr'
p583
(dp584
S'ADP'
p585
F1.0
s(lp586
(g148
I9
tp587
atp588
a(S'die'
p589
(dp590
S'PRON'
p591
F0.000218
sS'DET'
p592
F0.999767
s(lp593
(g136
I12
tp594
atp595
a(S'europ\xc3\xa4ische'
p596
(dp597
S'ADJ'
p598
F1.0
s(lp599
(g163
I10
tp600
atp601
a(S'tabakerzeugung'
p602
(dp603
S'ADJ'
p604
F0.00212
sS'NOUN'
p605
F0.997825
s(lp606
(g155
I11
tp607
atp608
a(S'festgelegten'
p609
(dp610
S'ADJ'
p611
F1.0
s(lp612
(g121
I8
tp613
atp614
a(S'preise'
p615
(dp616
S'VERB'
p617
F1.0
s(lp618
(g112
I7
tp619
atp620
a(g46
(dp621
g48
F1.0
s(lp622
(g46
I13
tp623
atp624
a(S'zumindest'
p625
(dp626
S'ADV'
p627
F1.0
s(lp628
(g191
I15
tp629
atp630
a(S'so'
p631
(dp632
S'ADV'
p633
F0.999955
sS'PRON'
p634
F4.5e-05
s(lp635
(g173
I17
tp636
atp637
a(S'lange'
p638
(dp639
S'ADV'
p640
F0.936352
sS'ADJ'
p641
F0.047734
s(lp642
(g366
I18
tp643
atp644
a(g46
(dp645
g48
F1.0
s(lp646
tp647
a(S'wie'
p648
(dp649
S'CONJ'
p650
F0.9994820000000001
s(lp651
(g203
I19
tp652
atp653
a(S'die'
p654
(dp655
S'PRON'
p656
F0.003587
sS'DET'
p657
F0.996292
s(lp658
tp659
a(S'menschen'
p660
(dp661
S'ADJ'
p662
F1.0
s(lp663
(g210
I20
tp664
atp665
a(S'in'
p666
(dp667
S'ADP'
p668
F1.0
s(lp669
(g245
I24
tp670
atp671
a(S'europa'
p672
(dp673
S'ADJ'
p674
F0.028741
sS'NOUN'
p675
F0.954068
s(lp676
(g253
I25
tp677
atp678
a(S'weiterhin'
p679
(dp680
S'ADV'
p681
F1.0
s(lp682
(g217
I21
tp683
atp684
a(S'rauchen'
p685
(dp686
S'VERB'
p687
F1.0
s(lp688
(g237
I23
tp689
atp690
a(g48
(dp691
g48
F1.0
s(lp692
(g48
I26
tp693
atp694
asS'it'
p695
(lp696
(S'ecco'
p697
(dp698
S'ADV'
p699
F0.999944
sg281
F5.6e-05
s(lp700
(g17
I1
tp701
atp702
a(S'perch\xc3\xa9'
p703
(dp704
S'ADV'
p705
F0.445106
sS'CONJ'
p706
F0.536844
sS'NOUN'
p707
F0.01805
s(lp708
(g31
I2
tp709
atp710
a(S'sono'
p711
(dp712
S'VERB'
p713
F0.999152
sS'NOUN'
p714
F0.000848
s(lp715
(g56
I3
tp716
atp717
a(S'favorevole'
p718
(dp719
S'ADJ'
p720
F1.0
s(lp721
tp722
a(S'a'
p723
(dp724
S'CONJ'
p725
F0.000389
sS'ADP'
p726
F0.999611
s(lp727
(g79
I4
tp728
atp729
a(S'sostenere'
p730
(dp731
S'VERB'
p732
F1.0
s(lp733
(g96
I5
tp734
atp735
a(g56
(dp736
S'DET'
p737
F1.0
s(lp738
tp739
a(S'prezzi'
p740
(dp741
S'NOUN'
p742
F1.0
s(lp743
(g112
I7
tp744
atp745
a(S'fissati'
p746
(dp747
S'NOUN'
p748
F0.01506
sS'VERB'
p749
F0.773665
sS'ADJ'
p750
F0.211274
s(lp751
(g121
I8
tp752
atp753
a(S'per'
p754
(dp755
S'CONJ'
p756
F0.028247
sS'ADP'
p757
F0.971753
s(lp758
(g148
I9
tp759
atp760
a(g56
(dp761
S'DET'
p762
F1.0
s(lp763
tp764
a(S'coltivatori'
p765
(dp766
S'NOUN'
p767
F1.0
s(lp768
(g136
I12
tp769
atp770
a(S'di'
p771
(dp772
S'CONJ'
p773
F6e-06
sS'ADP'
p774
F0.999994
s(lp775
tp776
a(S'tabacco'
p777
(dp778
S'ADJ'
p779
F0.175637
sS'VERB'
p780
F5.9e-05
sS'NOUN'
p781
F0.824304
s(lp782
(g155
I11
tp783
atp784
a(S'europei'
p785
(dp786
S'NOUN'
p787
F0.035969
sS'ADJ'
p788
F0.964031
s(lp789
(g163
I10
tp790
atp791
a(g46
(dp792
g48
F1.0
s(lp793
(g46
I13
tp794
atp795
a(S'perlomeno'
p796
(dp797
S'ADV'
p798
F1.0
s(lp799
(g191
I15
tp800
atp801
a(S'finch\xc3\xa9'
p802
(dp803
S'CONJ'
p804
F1.0
s(lp805
(g366
I18
tp806
atp807
a(S'gli'
p808
(dp809
S'PRON'
p810
F0.003782
sS'DET'
p811
F0.996218
s(lp812
(g210
I20
tp813
atp814
a(S'europei'
p815
(dp816
S'NOUN'
p817
F0.377434
sS'ADJ'
p818
F0.622566
s(lp819
(g253
I25
tp820
atp821
a(S'continueranno'
p822
(dp823
S'VERB'
p824
F1.0
s(lp825
(g217
I21
tp826
atp827
a(g723
(dp828
S'CONJ'
p829
F5.5e-05
sS'ADP'
p830
F0.999945
s(lp831
(g230
I22
tp832
atp833
a(S'fumare'
p834
(dp835
S'VERB'
p836
F1.0
s(lp837
(g237
I23
tp838
atp839
a(g48
(dp840
g48
F1.0
s(lp841
(g48
I26
tp842
atp843
asS'sk'
p844
(lp845
(S'z'
p846
(dp847
g281
F8.1e-05
sS'NOUN'
p848
F1.9e-05
sS'ADP'
p849
F0.999899
s(lp850
(g17
I1
tp851
atp852
a(S'tohto'
p853
(dp854
S'PRON'
p855
F0.999971
sg281
F2.9e-05
s(lp856
(g9
I0
tp857
atp858
a(S'd\xc3\xb4vodu'
p859
(dp860
S'NOUN'
p861
F1.0
s(lp862
(g31
I2
tp863
atp864
a(S'osobne'
p865
(dp866
S'ADV'
p867
F1.0
s(lp868
(g79
I4
tp869
atp870
a(S'podporujem'
p871
(dp872
S'VERB'
p873
F1.0
s(lp874
(g96
I5
tp875
atp876
a(S'ceny'
p877
(dp878
S'NOUN'
p879
F1.0
s(lp880
(g112
I7
tp881
atp882
a(S'stanoven\xc3\xa9'
p883
(dp884
S'VERB'
p885
F1.0
s(lp886
(g121
I8
tp887
atp888
a(S'pre'
p889
(dp890
g281
F0.000197
sS'ADP'
p891
F0.999803
s(lp892
(g148
I9
tp893
atp894
a(S'eur\xc3\xb3pskych'
p895
(dp896
S'ADJ'
p897
F1.0
s(lp898
(g163
I10
tp899
atp900
a(S'pestovate\xc4\xbeov'
p901
(dp902
S'NOUN'
p903
F1.0
s(lp904
(g136
I12
tp905
atp906
a(S'tabaku'
p907
(dp908
S'NOUN'
p909
F1.0
s(lp910
(g155
I11
tp911
atp912
a(g46
(dp913
g48
F1.0
s(lp914
(g46
I13
tp915
atp916
a(S'aspo\xc5\x88'
p917
(dp918
g281
F1.0
s(lp919
(g191
I15
tp920
atp921
a(S'dovtedy'
p922
(dp923
S'PRON'
p924
F1.0
s(lp925
tp926
a(g46
(dp927
g48
F1.0
s(lp928
tp929
a(S'k\xc3\xbdm'
p930
(dp931
S'PRON'
p932
F0.007755
sS'CONJ'
p933
F0.992246
s(lp934
(g366
I18
tp935
atp936
a(S'\xc4\xbeudia'
p937
(dp938
S'NOUN'
p939
F1.0
s(lp940
(g210
I20
tp941
atp942
a(S'v'
p943
(dp944
g281
F0.000112
sS'ADP'
p945
F0.999888
s(lp946
(g245
I24
tp947
atp948
a(S'eur\xc3\xb3pe'
p949
(dp950
S'NOUN'
p951
F1.0
s(lp952
(g253
I25
tp953
atp954
a(S'bud\xc3\xba'
p955
(dp956
g281
F9e-06
sS'VERB'
p957
F0.999991
s(lp958
(g217
I21
tp959
atp960
a(S'faj\xc4\x8di\xc5\xa5'
p961
(dp962
S'VERB'
p963
F1.0
s(lp964
(g237
I23
tp965
atp966
a(g48
(dp967
g48
F1.0
s(lp968
(g48
I26
tp969
atp970
asS'pl'
p971
(lp972
(g846
(dp973
g281
F4.9999999999999996e-06
sS'VERB'
p974
F1.1e-05
sS'NOUN'
p975
F6.5e-05
sS'ADP'
p976
F0.9999179999999999
sS'PRT'
p977
F0.0
s(lp978
(g17
I1
tp979
atp980
a(S'tego'
p981
(dp982
S'ADJ'
p983
F0.15207
sS'NOUN'
p984
F0.845495
sS'PRT'
p985
F2.1e-05
sg281
F0.002414
s(lp986
(g9
I0
tp987
atp988
a(S'te\xc5\xbc'
p989
(dp990
S'PRT'
p991
F0.858821
sS'CONJ'
p992
F0.141179
s(lp993
tp994
a(S'powodu'
p995
(dp996
S'NOUN'
p997
F1.0
s(lp998
(g31
I2
tp999
atp1000
a(S'popieram'
p1001
(dp1002
S'VERB'
p1003
F1.0
s(lp1004
(g96
I5
tp1005
atp1006
a(S'sta\xc5\x82e'
p1007
(dp1008
S'NOUN'
p1009
F6.6e-05
sS'ADJ'
p1010
F0.999932
s(lp1011
(g79
I4
tp1012
atp1013
a(S'ceny'
p1014
(dp1015
S'NOUN'
p1016
F1.0
s(lp1017
(g112
I7
tp1018
atp1019
a(S'dla'
p1020
(dp1021
S'ADP'
p1022
F1.0
s(lp1023
(g148
I9
tp1024
atp1025
a(S'europejskich'
p1026
(dp1027
S'ADJ'
p1028
F1.0
s(lp1029
(g163
I10
tp1030
atp1031
a(S'plantator\xc3\xb3w'
p1032
(dp1033
S'NOUN'
p1034
F1.0
s(lp1035
(g136
I12
tp1036
atp1037
a(S'tytoniu'
p1038
(dp1039
S'NOUN'
p1040
F1.0
s(lp1041
(g155
I11
tp1042
atp1043
a(g46
(dp1044
g281
F0.0
sg48
F1.0
s(lp1045
(g46
I13
tp1046
atp1047
a(S'przynajmniej'
p1048
(dp1049
S'PRT'
p1050
F1.0
s(lp1051
(g191
I15
tp1052
atp1053
a(S'na'
p1054
(dp1055
S'PRT'
p1056
F0.000452
sS'VERB'
p1057
F0.00158
sS'NOUN'
p1058
F5.9e-05
sS'ADP'
p1059
F0.997756
sg281
F0.000153
s(lp1060
(g354
I16
tp1061
atp1062
a(S'tak'
p1063
(dp1064
S'ADV'
p1065
F0.986623
sS'NOUN'
p1066
F0.001057
sS'PRT'
p1067
F0.012304
sg281
F1e-06
sS'CONJ'
p1068
F1.5e-05
sS'ADJ'
p1069
F0.0
s(lp1070
(g173
I17
tp1071
atp1072
a(S'd\xc5\x82ugo'
p1073
(dp1074
S'ADV'
p1075
F1.0
s(lp1076
(g366
I18
tp1077
atp1078
a(g46
(dp1079
g281
F0.0
sg48
F1.0
s(lp1080
tp1081
a(S'jak'
p1082
(dp1083
S'ADV'
p1084
F0.362614
sS'PRT'
p1085
F0.000593
sS'CONJ'
p1086
F0.08346300000000001
sS'ADP'
p1087
F0.55332
sS'PRON'
p1088
F1.1e-05
s(lp1089
(g203
I19
tp1090
atp1091
a(S'ludzie'
p1092
(dp1093
S'NOUN'
p1094
F1.0
s(lp1095
(g210
I20
tp1096
atp1097
a(S'w'
p1098
(dp1099
g281
F0.0
sS'ADJ'
p1100
F1e-06
sS'ADP'
p1101
F0.9999990000000001
sS'NOUN'
p1102
F0.0
s(lp1103
(g245
I24
tp1104
atp1105
a(S'europie'
p1106
(dp1107
S'ADV'
p1108
F8e-06
sS'ADJ'
p1109
F4.7999999999999994e-05
sS'VERB'
p1110
F0.0
sS'NOUN'
p1111
F0.999944
s(lp1112
(g253
I25
tp1113
atp1114
a(S'b\xc4\x99d\xc4\x85'
p1115
(dp1116
S'VERB'
p1117
F1.0
s(lp1118
(g217
I21
tp1119
atp1120
a(S'pali\xc4\x87'
p1121
(dp1122
S'VERB'
p1123
F1.0
s(lp1124
(g237
I23
tp1125
atp1126
a(g48
(dp1127
g48
F1.0
s(lp1128
(g48
I26
tp1129
atp1130
asS'sl'
p1131
(lp1132
(S'zato'
p1133
(dp1134
S'ADV'
p1135
F0.580841
sS'CONJ'
p1136
F0.419159
s(lp1137
(g31
I2
tp1138
atp1139
a(S'osebno'
p1140
(dp1141
S'ADV'
p1142
F0.805984
sS'ADJ'
p1143
F0.194016
s(lp1144
(g79
I4
tp1145
atp1146
a(S'podpiram'
p1147
(dp1148
S'ADV'
p1149
F0.001003
sS'NOUN'
p1150
F0.22875600000000007
sS'VERB'
p1151
F0.612728
sS'ADJ'
p1152
F0.15751300000000001
s(lp1153
(g96
I5
tp1154
atp1155
a(S'cene'
p1156
(dp1157
S'NOUN'
p1158
F1.0
s(lp1159
(g112
I7
tp1160
atp1161
a(g46
(dp1162
g48
F1.0
s(lp1163
tp1164
a(S'dolo\xc4\x8dene'
p1165
(dp1166
S'ADJ'
p1167
F0.9999999999999999
s(lp1168
(g121
I8
tp1169
atp1170
a(S'za'
p1171
(dp1172
S'ADV'
p1173
F8.8e-05
sg281
F3e-06
sS'ADP'
p1174
F0.9999089999999999
s(lp1175
(g148
I9
tp1176
atp1177
a(S'evropske'
p1178
(dp1179
S'ADJ'
p1180
F1.0
s(lp1181
(g163
I10
tp1182
atp1183
a(S'pridelovalce'
p1184
(dp1185
S'NOUN'
p1186
F1.0
s(lp1187
(g136
I12
tp1188
atp1189
a(S'tobaka'
p1190
(dp1191
S'NOUN'
p1192
F1.0
s(lp1193
(g155
I11
tp1194
atp1195
a(g46
(dp1196
g48
F1.0
s(lp1197
(g46
I13
tp1198
atp1199
a(S'vsaj'
p1200
(dp1201
S'PRT'
p1202
F1.0
s(lp1203
(g191
I15
tp1204
atp1205
a(S'dokler'
p1206
(dp1207
S'CONJ'
p1208
F1.0
s(lp1209
(g366
I18
tp1210
atp1211
a(S'bodo'
p1212
(dp1213
S'VERB'
p1214
F1.0
s(lp1215
(g217
I21
tp1216
atp1217
a(S'ljudje'
p1218
(dp1219
S'NOUN'
p1220
F1.0
s(lp1221
(g210
I20
tp1222
atp1223
a(g943
(dp1224
S'ADP'
p1225
F1.0
s(lp1226
(g245
I24
tp1227
atp1228
a(S'evropi'
p1229
(dp1230
S'ADV'
p1231
F0.031447
sS'ADJ'
p1232
F0.021026
sS'VERB'
p1233
F0.0030870000000000003
sS'NOUN'
p1234
F0.944438
s(lp1235
(g253
I25
tp1236
atp1237
a(S'kadili'
p1238
(dp1239
S'VERB'
p1240
F1.0
s(lp1241
(g237
I23
tp1242
atp1243
a(g48
(dp1244
g48
F1.0
s(lp1245
(g48
I26
tp1246
atp1247
asS'es'
p1248
(lp1249
(S'por'
p1250
(dp1251
S'ADP'
p1252
F1.0
s(lp1253
tp1254
a(S'esta'
p1255
(dp1256
S'PRON'
p1257
F1.0
sS'VERB'
p1258
F0.0
s(lp1259
(g9
I0
tp1260
atp1261
a(S'raz\xc3\xb3n'
p1262
(dp1263
S'NOUN'
p1264
F1.0
s(lp1265
(g31
I2
tp1266
atp1267
a(g46
(dp1268
g48
F1.0
s(lp1269
(g56
I3
tp1270
atp1271
a(S'personalmente'
p1272
(dp1273
S'ADV'
p1274
F1.0
s(lp1275
(g79
I4
tp1276
atp1277
a(S'apoyo'
p1278
(dp1279
S'NOUN'
p1280
F1.0
s(lp1281
(g96
I5
tp1282
atp1283
a(S'los'
p1284
(dp1285
S'PRON'
p1286
F0.000236
sS'DET'
p1287
F0.999764
s(lp1288
(g105
I6
tp1289
atp1290
a(S'precios'
p1291
(dp1292
S'NOUN'
p1293
F1.0
s(lp1294
(g112
I7
tp1295
atp1296
a(S'establecidos'
p1297
(dp1298
S'VERB'
p1299
F1.0
s(lp1300
(g121
I8
tp1301
atp1302
a(S'para'
p1303
(dp1304
S'CONJ'
p1305
F0.000888
sS'ADP'
p1306
F0.999112
s(lp1307
tp1308
a(S'las'
p1309
(dp1310
S'PRON'
p1311
F0.0
sS'DET'
p1312
F1.0
s(lp1313
tp1314
a(S'plantaciones'
p1315
(dp1316
S'NOUN'
p1317
F1.0
s(lp1318
(g136
I12
tp1319
atp1320
a(S'de'
p1321
(dp1322
g281
F2.9e-05
sS'CONJ'
p1323
F0.000449
sS'ADP'
p1324
F0.999522
s(lp1325
(g148
I9
tp1326
atp1327
a(S'tabaco'
p1328
(dp1329
S'NOUN'
p1330
F1.0
s(lp1331
(g155
I11
tp1332
atp1333
a(S'europeas'
p1334
(dp1335
S'NOUN'
p1336
F0.009092
sS'ADJ'
p1337
F0.990908
s(lp1338
(g163
I10
tp1339
atp1340
a(g46
(dp1341
g48
F1.0
s(lp1342
(g46
I13
tp1343
atp1344
a(S'al'
p1345
(dp1346
S'ADV'
p1347
F1.0
s(lp1348
(g184
I14
tp1349
atp1350
a(S'menos'
p1351
(dp1352
S'ADV'
p1353
F1.0
s(lp1354
(g191
I15
tp1355
atp1356
a(S'mientras'
p1357
(dp1358
S'CONJ'
p1359
F1.0
s(lp1360
(g366
I18
tp1361
atp1362
a(S'se'
p1363
(dp1364
S'PRON'
p1365
F1.0
sS'VERB'
p1366
F0.0
s(lp1367
(g210
I20
tp1368
atp1369
a(S'siga'
p1370
(dp1371
S'VERB'
p1372
F1.0
s(lp1373
(g217
I21
tp1374
atp1375
a(S'consumiendo'
p1376
(dp1377
S'VERB'
p1378
F1.0
s(lp1379
tp1380
a(S'tabaco'
p1381
(dp1382
S'NOUN'
p1383
F1.0
s(lp1384
(g237
I23
tp1385
atp1386
a(g48
(dp1387
g48
F1.0
s(lp1388
(g48
I26
tp1389
atp1390
as.