(dp0
S'fr'
p1
(lp2
(S'il'
p3
(dp4
S'PRON'
p5
F1.0
s(lp6
(S'this'
p7
I0
tp8
atp9
a(S"s'"
p10
(dp11
S'ADJ'
p12
F0.000625
sS'VERB'
p13
F0.9973000000000002
sS'NOUN'
p14
F0.002077
s(lp15
tp16
a(S'agit'
p17
(dp18
S'VERB'
p19
F1.0
s(lp20
(S'is'
p21
I1
tp22
atp23
a(S"d'"
p24
(dp25
S'NOUN'
p26
F0.087886
sS'VERB'
p27
F0.7995690000000001
sS'ADJ'
p28
F0.112546
s(lp29
tp30
a(S'une'
p31
(dp32
S'NOUN'
p33
F0.001197
sS'NUM'
p34
F0.004858
sS'DET'
p35
F0.993944
s(lp36
(S'a'
p37
I2
tp38
atp39
a(S'nouvelle'
p40
(dp41
S'NOUN'
p42
F0.015949
sS'ADJ'
p43
F0.984051
s(lp44
(S'new'
p45
I3
tp46
atp47
a(S'menace'
p48
(dp49
S'VERB'
p50
F0.23959999999999998
sS'NOUN'
p51
F0.7604
s(lp52
(S'threat'
p53
I4
tp54
atp55
a(S'que'
p56
(dp57
S'ADV'
p58
F0.006807
sS'PRON'
p59
F0.368122
sS'CONJ'
p60
F0.625071
s(lp61
(S'which'
p62
I5
tp63
atp64
a(S'nous'
p65
(dp66
S'PRON'
p67
F1.0
s(lp68
(S'us'
p69
I10
tp70
atp71
a(S'ne'
p72
(dp73
S'ADV'
p74
F1.0
s(lp75
(S'not'
p76
I16
tp77
atp78
a(S'connaissions'
p79
(dp80
S'VERB'
p81
F1.0
s(lp82
(S'known'
p83
I8
tp84
atp85
a(S'pas'
p86
(dp87
S'ADV'
p88
F0.995329
sS'NOUN'
p89
F0.004671
s(lp90
(g76
I16
tp91
atp92
a(S'et'
p93
(dp94
S'CONJ'
p95
F1.0
s(lp96
(S'and'
p97
I12
tp98
atp99
a(S'que'
p100
(dp101
S'ADV'
p102
F0.0022
sS'PRON'
p103
F0.477473
sS'CONJ'
p104
F0.520327
s(lp105
(S'which'
p106
I13
tp107
atp108
a(S'nous'
p109
(dp110
S'PRON'
p111
F1.0
s(lp112
(S'we'
p113
I14
tp114
atp115
a(S"n'"
p116
(dp117
S'ADJ'
p118
F0.000625
sS'VERB'
p119
F0.9973000000000002
sS'NOUN'
p120
F0.002077
s(lp121
tp122
a(S'avons'
p123
(dp124
S'VERB'
p125
F1.0
s(lp126
(S'were'
p127
I15
tp128
atp129
a(S'pas'
p130
(dp131
S'ADV'
p132
F0.9981
sS'NOUN'
p133
F0.0019
s(lp134
(g76
I16
tp135
atp136
a(S"l'"
p137
(dp138
S'NOUN'
p139
F0.037153
sS'VERB'
p140
F0.756464
sS'ADJ'
p141
F0.206383
s(lp142
tp143
a(S'habitude'
p144
(dp145
S'NOUN'
p146
F1.0
s(lp147
(S'used'
p148
I17
tp149
atp150
a(S'de'
p151
(dp152
S'ADP'
p153
F1.0
s(lp154
(S'to'
p155
I18
tp156
atp157
a(S'combattre'
p158
(dp159
S'VERB'
p160
F1.0
s(lp161
(S'fighting'
p162
I19
tp163
atp164
a(S'et'
p165
(dp166
S'CONJ'
p167
F1.0
s(lp168
(S'and'
p169
I20
tp170
atp171
a(S"d'"
p172
(dp173
S'NOUN'
p174
F0.050387
sS'VERB'
p175
F0.8915730000000001
sS'ADJ'
p176
F0.05804
s(lp177
tp178
a(S'\xc3\xa9carter'
p179
(dp180
S'VERB'
p181
F1.0
s(lp182
(S'tackling'
p183
I21
tp184
atp185
a(S'.'
p186
(dp187
g186
F1.0
s(lp188
(g186
I22
tp189
atp190
asS'en'
p191
(lp192
(g7
(dp193
S'ADV'
p194
F0.000523
sS'NOUN'
p195
F0.000215
sS'DET'
p196
F0.999263
s(lp197
(g7
I0
tp198
atp199
a(g21
(dp200
S'VERB'
p201
F1.0
s(lp202
(g21
I1
tp203
atp204
a(g37
(dp205
S'NOUN'
p206
F0.0
sS'DET'
p207
F1.0
s(lp208
(g37
I2
tp209
atp210
a(g45
(dp211
S'NOUN'
p212
F5.2e-05
sS'ADJ'
p213
F0.999948
s(lp214
(g45
I3
tp215
atp216
a(g53
(dp217
S'VERB'
p218
F2e-06
sS'NOUN'
p219
F0.999998
s(lp220
(g53
I4
tp221
atp222
a(g62
(dp223
S'DET'
p224
F1.0
s(lp225
(g62
I5
tp226
atp227
a(S'was'
p228
(dp229
S'VERB'
p230
F1.0
s(lp231
(g228
I6
tp232
atp233
a(S'not'
p234
(dp235
S'ADV'
p236
F1.0
s(lp237
(g234
I7
tp238
atp239
a(g83
(dp240
S'NOUN'
p241
F3.1e-05
sS'VERB'
p242
F0.992206
sS'ADJ'
p243
F0.007763
s(lp244
(g83
I8
tp245
atp246
a(S'to'
p247
(dp248
S'ADV'
p249
F3e-06
sS'PRT'
p250
F0.999985
sS'ADP'
p251
F1.2e-05
s(lp252
(g247
I9
tp253
atp254
a(g69
(dp255
S'PRON'
p256
F1.0
s(lp257
(g69
I10
tp258
atp259
a(S'before'
p260
(dp261
S'ADV'
p262
F0.845042
sS'ADP'
p263
F0.154958
s(lp264
(g260
I11
tp265
atp266
a(g97
(dp267
S'CONJ'
p268
F0.99919
sS'NOUN'
p269
F0.00081
s(lp270
(g97
I12
tp271
atp272
a(g106
(dp273
S'DET'
p274
F1.0
s(lp275
(g106
I13
tp276
atp277
a(g113
(dp278
S'PRON'
p279
F1.0
s(lp280
(g113
I14
tp281
atp282
a(g127
(dp283
S'VERB'
p284
F1.0
s(lp285
(g127
I15
tp286
atp287
a(g76
(dp288
S'ADV'
p289
F1.0
s(lp290
(g76
I16
tp291
atp292
a(g148
(dp293
S'VERB'
p294
F0.995483
sS'ADJ'
p295
F0.004517
s(lp296
(g148
I17
tp297
atp298
a(g155
(dp299
S'ADV'
p300
F2e-06
sS'PRT'
p301
F0.999991
sS'ADP'
p302
F8e-06
s(lp303
(g155
I18
tp304
atp305
a(g162
(dp306
S'VERB'
p307
F0.807708
sS'NOUN'
p308
F0.192292
s(lp309
(g162
I19
tp310
atp311
a(g169
(dp312
S'CONJ'
p313
F0.999998
sS'NOUN'
p314
F2e-06
s(lp315
(g169
I20
tp316
atp317
a(g183
(dp318
S'VERB'
p319
F1.0
s(lp320
(g183
I21
tp321
atp322
a(g186
(dp323
g186
F1.0
s(lp324
(g186
I22
tp325
atp326
asS'nl'
p327
(lp328
(S'dit'
p329
(dp330
S'PRON'
p331
F1.0
s(lp332
(g7
I0
tp333
atp334
a(S'is'
p335
(dp336
S'VERB'
p337
F1.0
s(lp338
(g21
I1
tp339
atp340
a(S'een'
p341
(dp342
S'ADJ'
p343
F2e-06
sS'PRON'
p344
F3.6e-05
sS'NUM'
p345
F1e-06
sS'DET'
p346
F0.999962
s(lp347
(g37
I2
tp348
atp349
a(S'nieuwe'
p350
(dp351
S'NOUN'
p352
F1.7e-05
sS'ADJ'
p353
F0.999983
s(lp354
(g45
I3
tp355
atp356
a(S'dreiging'
p357
(dp358
S'NOUN'
p359
F1.0
s(lp360
(g53
I4
tp361
atp362
a(S'die'
p363
(dp364
S'PRON'
p365
F0.9999990000000001
s(lp366
(g62
I5
tp367
atp368
a(S'we'
p369
(dp370
S'PRON'
p371
F1.0
s(lp372
(g69
I10
tp373
atp374
a(S'tevoren'
p375
(dp376
S'ADV'
p377
F1.0
s(lp378
(g260
I11
tp379
atp380
a(S'niet'
p381
(dp382
S'ADV'
p383
F1.0
sS'PRON'
p384
F0.0
sS'VERB'
p385
F0.0
sS'X'
p386
F0.0
s(lp387
(g234
I7
tp388
atp389
a(S'kenden'
p390
(dp391
S'VERB'
p392
F1.0
s(lp393
(g83
I8
tp394
atp395
a(S'en'
p396
(dp397
S'CONJ'
p398
F1.0
s(lp399
(g97
I12
tp400
atp401
a(S'die'
p402
(dp403
S'PRON'
p404
F0.9999999999999999
s(lp405
(g106
I13
tp406
atp407
a(S'we'
p408
(dp409
S'PRON'
p410
F1.0
s(lp411
(g113
I14
tp412
atp413
a(S'niet'
p414
(dp415
S'ADV'
p416
F0.999994
sS'PRON'
p417
F2e-06
sS'VERB'
p418
F3e-06
sg386
F0.0
s(lp419
(g76
I16
tp420
atp421
a(S'gewend'
p422
(dp423
S'VERB'
p424
F0.788546
sS'ADJ'
p425
F0.211454
s(lp426
(g148
I17
tp427
atp428
a(S'waren'
p429
(dp430
S'VERB'
p431
F0.580422
sS'NOUN'
p432
F0.419578
s(lp433
(g127
I15
tp434
atp435
a(S'te'
p436
(dp437
S'PRT'
p438
F1.0
s(lp439
(g155
I18
tp440
atp441
a(S'bestrijden'
p442
(dp443
S'VERB'
p444
F0.9999979999999999
sS'NOUN'
p445
F2e-06
s(lp446
(g162
I19
tp447
atp448
a(S'en'
p449
(dp450
S'CONJ'
p451
F1.0
s(lp452
(g169
I20
tp453
atp454
a(S'aan'
p455
(dp456
S'ADV'
p457
F0.999356
sS'ADP'
p458
F0.000644
s(lp459
(g183
I21
tp460
atp461
a(S'te'
p462
(dp463
S'PRT'
p464
F1.0
s(lp465
tp466
a(S'pakken'
p467
(dp468
S'VERB'
p469
F0.999249
sS'NOUN'
p470
F0.000751
s(lp471
(g183
I21
tp472
atp473
a(g186
(dp474
g186
F1.0
s(lp475
(g186
I22
tp476
atp477
asS'de'
p478
(lp479
(S'das'
p480
(dp481
S'PRON'
p482
F0.99851
sS'DET'
p483
F0.001372
s(lp484
(g7
I0
tp485
atp486
a(S'ist'
p487
(dp488
S'VERB'
p489
F1.0
s(lp490
(g21
I1
tp491
atp492
a(S'eine'
p493
(dp494
S'PRON'
p495
F0.003119
sS'DET'
p496
F0.996857
s(lp497
(g37
I2
tp498
atp499
a(S'neue'
p500
(dp501
S'ADJ'
p502
F1.0
s(lp503
(g45
I3
tp504
atp505
a(S'gefahr'
p506
(dp507
S'ADJ'
p508
F0.022417
sS'NOUN'
p509
F0.97283
s(lp510
(g53
I4
tp511
atp512
a(S','
p513
(dp514
g186
F1.0
s(lp515
(g247
I9
tp516
atp517
a(S'die'
p518
(dp519
S'PRON'
p520
F0.999622
sS'DET'
p521
F0.000205
s(lp522
(g62
I5
tp523
atp524
a(S'wir'
p525
(dp526
S'PRON'
p527
F1.0
s(lp528
(g69
I10
tp529
atp530
a(S'bisher'
p531
(dp532
S'ADV'
p533
F1.0
s(lp534
tp535
a(S'noch'
p536
(dp537
S'ADV'
p538
F0.998605
sS'CONJ'
p539
F0.001395
s(lp540
(g260
I11
tp541
atp542
a(S'nicht'
p543
(dp544
S'PRT'
p545
F1.0
s(lp546
(g234
I7
tp547
atp548
a(S'kannten'
p549
(dp550
S'VERB'
p551
F1.0
s(lp552
(g83
I8
tp553
atp554
a(S'und'
p555
(dp556
S'CONJ'
p557
F1.0
s(lp558
(g97
I12
tp559
atp560
a(S'mit'
p561
(dp562
S'PRT'
p563
F0.0
sS'ADP'
p564
F1.0
s(lp565
(g183
I21
tp566
atp567
a(S'deren'
p568
(dp569
S'PRON'
p570
F0.99818
s(lp571
(g106
I13
tp572
atp573
a(S'bek\xc3\xa4mpfung'
p574
(dp575
S'VERB'
p576
F0.004983
sS'NOUN'
p577
F0.994533
s(lp578
(g162
I19
tp579
atp580
a(S'wir'
p581
(dp582
S'PRON'
p583
F1.0
s(lp584
(g113
I14
tp585
atp586
a(S'noch'
p587
(dp588
S'ADV'
p589
F0.994247
sS'CONJ'
p590
F0.005753
s(lp591
(g127
I15
tp592
atp593
a(S'nicht'
p594
(dp595
S'PRT'
p596
F1.0
s(lp597
(g76
I16
tp598
atp599
a(S'vertraut'
p600
(dp601
S'VERB'
p602
F0.421457
sS'ADJ'
p603
F0.578452
s(lp604
(g148
I17
tp605
atp606
a(S'sind'
p607
(dp608
S'VERB'
p609
F1.0
s(lp610
tp611
a(g186
(dp612
g186
F1.0
s(lp613
(g186
I22
tp614
atp615
asS'it'
p616
(lp617
(S'si'
p618
(dp619
S'PRON'
p620
F0.999997
sS'NOUN'
p621
F2e-06
s(lp622
(g7
I0
tp623
atp624
a(S'tratta'
p625
(dp626
S'VERB'
p627
F0.999277
sS'NOUN'
p628
F0.000724
s(lp629
(g21
I1
tp630
atp631
a(S'di'
p632
(dp633
S'CONJ'
p634
F6e-06
sS'ADP'
p635
F0.999994
s(lp636
tp637
a(S'una'
p638
(dp639
S'PRON'
p640
F7.1e-05
sS'DEF'
p641
F0.999929
s(lp642
(g37
I2
tp643
atp644
a(S'nuova'
p645
(dp646
S'NOUN'
p647
F0.029548
sS'ADJ'
p648
F0.970452
s(lp649
(g45
I3
tp650
atp651
a(S'minaccia'
p652
(dp653
S'VERB'
p654
F0.46621
sS'NOUN'
p655
F0.533789
s(lp656
(g53
I4
tp657
atp658
a(S'che'
p659
(dp660
S'PRON'
p661
F0.848028
sS'CONJ'
p662
F0.150654
sS'ADJ'
p663
F0.001318
s(lp664
(g62
I5
tp665
atp666
a(S'non'
p667
(dp668
S'ADV'
p669
F1.0
s(lp670
(g234
I7
tp671
atp672
a(S'ci'
p673
(dp674
S'ADV'
p675
F0.008779
sS'PRON'
p676
F0.991177
sS'NOUN'
p677
F4.4e-05
s(lp678
(g69
I10
tp679
atp680
a(S'era'
p681
(dp682
S'VERB'
p683
F0.995503
sS'NOUN'
p684
F0.004497
s(lp685
(g228
I6
tp686
atp687
a(S'nota'
p688
(dp689
S'ADJ'
p690
F0.290028
sS'VERB'
p691
F0.00242
sS'NOUN'
p692
F0.707552
s(lp693
(g83
I8
tp694
atp695
a(S'prima'
p696
(dp697
S'ADV'
p698
F0.160454
sS'NOUN'
p699
F0.008277
sS'CONJ'
p700
F0.195486
sS'ADJ'
p701
F0.633258
sS'ADP'
p702
F0.002525
s(lp703
(g260
I11
tp704
atp705
a(S'e'
p706
(dp707
S'CONJ'
p708
F1.0
s(lp709
(g97
I12
tp710
atp711
a(S'che'
p712
(dp713
S'PRON'
p714
F0.941642
sS'CONJ'
p715
F0.058031
sS'ADJ'
p716
F0.000327
s(lp717
(g106
I13
tp718
atp719
a(S'non'
p720
(dp721
S'ADV'
p722
F1.0
s(lp723
(g76
I16
tp724
atp725
a(S'eravamo'
p726
(dp727
S'VERB'
p728
F1.0
s(lp729
(g127
I15
tp730
atp731
a(S'abituati'
p732
(dp733
S'VERB'
p734
F0.967853
sS'ADJ'
p735
F0.032147
s(lp736
(g148
I17
tp737
atp738
a(g37
(dp739
S'CONJ'
p740
F0.000124
sS'ADP'
p741
F0.999876
s(lp742
(g155
I18
tp743
atp744
a(S'combattere'
p745
(dp746
S'VERB'
p747
F1.0
s(lp748
(g162
I19
tp749
atp750
a(g706
(dp751
S'CONJ'
p752
F1.0
s(lp753
(g169
I20
tp754
atp755
a(S'affrontare'
p756
(dp757
S'VERB'
p758
F1.0
s(lp759
(g183
I21
tp760
atp761
a(g186
(dp762
g186
F1.0
s(lp763
(g186
I22
tp764
atp765
asS'sk'
p766
(lp767
(S'ide'
p768
(dp769
S'VERB'
p770
F1.0
s(lp771
(g21
I1
tp772
atp773
a(S'o'
p774
(dp775
g386
F0.00038
sS'CONJ'
p776
F1.8e-05
sS'NOUN'
p777
F1.7e-05
sS'ADP'
p778
F0.999585
s(lp779
(g37
I2
tp780
atp781
a(S'nov\xc3\xba'
p782
(dp783
S'ADJ'
p784
F1.0
s(lp785
(g45
I3
tp786
atp787
a(S'hrozbu'
p788
(dp789
S'NOUN'
p790
F1.0
s(lp791
(g53
I4
tp792
atp793
a(g513
(dp794
g186
F1.0
s(lp795
tp796
a(S's'
p797
(dp798
g386
F0.000741
sS'CONJ'
p799
F0.002658
sS'NOUN'
p800
F7e-06
sS'ADP'
p801
F0.996429
sS'PRT'
p802
F0.000164
s(lp803
(g228
I6
tp804
atp805
a(S'ktorou'
p806
(dp807
S'PRON'
p808
F1.0
s(lp809
(g62
I5
tp810
atp811
a(S'sme'
p812
(dp813
g386
F0.000556
sS'VERB'
p814
F0.999444
s(lp815
(g69
I10
tp816
atp817
a(S'doteraz'
p818
(dp819
S'ADV'
p820
F1.0
s(lp821
(g260
I11
tp822
atp823
a(S'nemali'
p824
(dp825
S'VERB'
p826
F1.0
s(lp827
(g234
I7
tp828
atp829
a(S'sk\xc3\xbasenosti'
p830
(dp831
S'NOUN'
p832
F1.0
s(lp833
(g83
I8
tp834
atp835
a(g37
(dp836
g386
F0.0018780000000000001
sS'CONJ'
p837
F0.997856
sS'NOUN'
p838
F8.5e-05
sS'ADP'
p839
F1e-06
sS'PRT'
p840
F0.00018
s(lp841
(g97
I12
tp842
atp843
a(g797
(dp844
S'PRT'
p845
F0.000931
sS'CONJ'
p846
F0.000341
sS'NOUN'
p847
F9e-06
sS'ADP'
p848
F0.998192
sg386
F0.000528
s(lp849
(g247
I9
tp850
atp851
a(S'ktorou'
p852
(dp853
S'PRON'
p854
F1.0
s(lp855
(g106
I13
tp856
atp857
a(S'sme'
p858
(dp859
g386
F0.000107
sS'VERB'
p860
F0.999893
s(lp861
(g113
I14
tp862
atp863
a(S'neboli'
p864
(dp865
S'VERB'
p866
F1.0
s(lp867
(g76
I16
tp868
atp869
a(S'zvyknut\xc3\xad'
p870
(dp871
S'VERB'
p872
F1.0
s(lp873
tp874
a(S'bojova\xc5\xa5'
p875
(dp876
S'VERB'
p877
F1.0
s(lp878
(g162
I19
tp879
atp880
a(g513
(dp881
g186
F1.0
s(lp882
tp883
a(g774
(dp884
g386
F0.001339
sS'CONJ'
p885
F0.000938
sS'NOUN'
p886
F1.6e-05
sS'ADP'
p887
F0.997706
s(lp888
(g155
I18
tp889
atp890
a(S'ot\xc3\xa1zku'
p891
(dp892
S'NOUN'
p893
F1.0
s(lp894
tp895
a(g513
(dp896
g186
F1.0
s(lp897
tp898
a(S'ktor\xc3\xba'
p899
(dp900
S'PRON'
p901
F1.0
s(lp902
tp903
a(S'sme'
p904
(dp905
g386
F0.000107
sS'VERB'
p906
F0.999893
s(lp907
(g113
I14
tp908
atp909
a(S'neboli'
p910
(dp911
S'VERB'
p912
F1.0
s(lp913
(g127
I15
tp914
atp915
a(S'zvyknut\xc3\xad'
p916
(dp917
S'VERB'
p918
F1.0
s(lp919
(g148
I17
tp920
atp921
a(S'rie\xc5\xa1i\xc5\xa5'
p922
(dp923
S'VERB'
p924
F1.0
s(lp925
(g183
I21
tp926
atp927
a(g186
(dp928
g186
F1.0
s(lp929
(g186
I22
tp930
atp931
asS'pl'
p932
(lp933
(S'to'
p934
(dp935
S'NOUN'
p936
F0.6344879999999999
sS'ADP'
p937
F0.0
sS'PRT'
p938
F0.023591
sg386
F3e-06
sS'CONJ'
p939
F0.053729
sS'ADJ'
p940
F0.28818900000000003
s(lp941
(g7
I0
tp942
atp943
a(S'nowe'
p944
(dp945
S'NOUN'
p946
F0.001654
sS'ADJ'
p947
F0.9983449999999999
s(lp948
(g45
I3
tp949
atp950
a(S'zagro\xc5\xbcenie'
p951
(dp952
S'VERB'
p953
F0.011285
sS'NOUN'
p954
F0.9887140000000001
s(lp955
(g53
I4
tp956
atp957
a(g513
(dp958
g386
F0.0
sg186
F1.0
s(lp959
tp960
a(S'kt\xc3\xb3rego'
p961
(dp962
S'ADJ'
p963
F1.0
s(lp964
(g62
I5
tp965
atp966
a(S'wcze\xc5\x9bniej'
p967
(dp968
S'ADV'
p969
F1.0
s(lp970
(g260
I11
tp971
atp972
a(S'nie'
p973
(dp974
S'ADV'
p975
F8.6e-05
sS'PRT'
p976
F0.959633
sS'CONJ'
p977
F0.039963
sS'NOUN'
p978
F2.8e-05
sS'PRON'
p979
F0.00029099999999999997
s(lp980
(g234
I7
tp981
atp982
a(S'znali\xc5\x9bmy'
p983
(dp984
S'ADJ'
p985
F0.0018449999999999999
sS'VERB'
p986
F0.93196
sS'NOUN'
p987
F0.06619600000000002
s(lp988
(g83
I8
tp989
atp990
a(g513
(dp991
g386
F1e-06
sg186
F0.999999
s(lp992
tp993
a(S'nie'
p994
(dp995
S'ADV'
p996
F3.2e-05
sS'PRT'
p997
F0.979495
sS'CONJ'
p998
F0.020451
sS'NOUN'
p999
F1.8e-05
sS'PRON'
p1000
F4e-06
s(lp1001
(g76
I16
tp1002
atp1003
a(S'byli\xc5\x9bmy'
p1004
(dp1005
S'ADV'
p1006
F0.000576
sS'ADJ'
p1007
F0.001552
sS'VERB'
p1008
F0.9901000000000002
sS'NOUN'
p1009
F0.007778
s(lp1010
(g127
I15
tp1011
atp1012
a(S'te\xc5\xbc'
p1013
(dp1014
S'PRT'
p1015
F0.971495
sS'CONJ'
p1016
F0.028505
s(lp1017
(g113
I14
tp1018
atp1019
a(S'przyzwyczajeni'
p1020
(dp1021
S'VERB'
p1022
F1.0
s(lp1023
(g148
I17
tp1024
atp1025
a(S'do'
p1026
(dp1027
g386
F0.0
sS'NOUN'
p1028
F1e-06
sS'ADP'
p1029
F0.9999990000000001
s(lp1030
(g155
I18
tp1031
atp1032
a(S'zwalczania'
p1033
(dp1034
S'VERB'
p1035
F1.0
s(lp1036
tp1037
a(S'go'
p1038
(dp1039
S'PRON'
p1040
F0.9999900000000002
sS'ADP'
p1041
F1.1e-05
s(lp1042
(g162
I19
tp1043
atp1044
a(S'i'
p1045
(dp1046
S'PRT'
p1047
F0.002927
sS'CONJ'
p1048
F0.994843
sS'NOUN'
p1049
F0.002115
sg386
F3e-06
sS'PRON'
p1050
F0.00011099999999999999
s(lp1051
(g169
I20
tp1052
atp1053
a(S'stawiania'
p1054
(dp1055
S'VERB'
p1056
F1.0
s(lp1057
(g183
I21
tp1058
atp1059
a(S'mu'
p1060
(dp1061
S'PRON'
p1062
F0.99985
sS'VERB'
p1063
F0.00015
s(lp1064
tp1065
a(S'czo\xc5\x82a'
p1066
(dp1067
S'NOUN'
p1068
F1.0
s(lp1069
(g183
I21
tp1070
atp1071
a(g186
(dp1072
g186
F1.0
s(lp1073
(g186
I22
tp1074
atp1075
asS'sl'
p1076
(lp1077
(S'to'
p1078
(dp1079
S'PRON'
p1080
F0.999936
sg386
F6.4e-05
s(lp1081
(g7
I0
tp1082
atp1083
a(S'je'
p1084
(dp1085
S'PRON'
p1086
F8.6e-05
sS'VERB'
p1087
F0.999912
sg386
F3e-06
s(lp1088
(g21
I1
tp1089
atp1090
a(S'nova'
p1091
(dp1092
S'ADJ'
p1093
F1.0
s(lp1094
(g45
I3
tp1095
atp1096
a(S'gro\xc5\xbenja'
p1097
(dp1098
S'NOUN'
p1099
F1.0
s(lp1100
(g53
I4
tp1101
atp1102
a(g513
(dp1103
g186
F1.0
s(lp1104
tp1105
a(S'ki'
p1106
(dp1107
S'CONJ'
p1108
F1.0
s(lp1109
(g62
I5
tp1110
atp1111
a(S'nam'
p1112
(dp1113
S'PRON'
p1114
F0.999246
sg386
F0.000754
s(lp1115
(g69
I10
tp1116
atp1117
a(S'prej'
p1118
(dp1119
S'ADV'
p1120
F1.0
s(lp1121
(g260
I11
tp1122
atp1123
a(S'ni'
p1124
(dp1125
S'VERB'
p1126
F1.0
s(lp1127
(g234
I7
tp1128
atp1129
a(S'bila'
p1130
(dp1131
S'VERB'
p1132
F0.999999
s(lp1133
(g228
I6
tp1134
atp1135
a(S'znana'
p1136
(dp1137
S'ADJ'
p1138
F1.0
s(lp1139
(g83
I8
tp1140
atp1141
a(S'in'
p1142
(dp1143
S'ADV'
p1144
F0.000154
sg386
F6e-06
sS'CONJ'
p1145
F0.999822
sS'NOUN'
p1146
F1.8e-05
s(lp1147
(g97
I12
tp1148
atp1149
a(S'proti'
p1150
(dp1151
S'ADV'
p1152
F0.000919
sS'ADP'
p1153
F0.999081
s(lp1154
tp1155
a(S'kateri'
p1156
(dp1157
S'PRON'
p1158
F0.9999999999999998
s(lp1159
(g106
I13
tp1160
atp1161
a(S'se'
p1162
(dp1163
S'PRON'
p1164
F0.999994
sg386
F6e-06
s(lp1165
tp1166
a(S'nismo'
p1167
(dp1168
S'VERB'
p1169
F1.0
s(lp1170
(g76
I16
tp1171
atp1172
a(S'bili'
p1173
(dp1174
S'VERB'
p1175
F0.9999999999999999
s(lp1176
(g127
I15
tp1177
atp1178
a(S'navajeni'
p1179
(dp1180
S'ADJ'
p1181
F1.0
s(lp1182
(g148
I17
tp1183
atp1184
a(S'boriti'
p1185
(dp1186
S'VERB'
p1187
F1.0
s(lp1188
(g162
I19
tp1189
atp1190
a(S'in'
p1191
(dp1192
S'ADV'
p1193
F4e-05
sg386
F7e-06
sS'CONJ'
p1194
F0.999951
sS'NOUN'
p1195
F2e-06
s(lp1196
(g169
I20
tp1197
atp1198
a(S'jo'
p1199
(dp1200
S'PRON'
p1201
F0.999335
sg386
F0.000665
s(lp1202
(g113
I14
tp1203
atp1204
a(S'odpravljati'
p1205
(dp1206
S'VERB'
p1207
F1.0
s(lp1208
(g183
I21
tp1209
atp1210
a(g186
(dp1211
g186
F1.0
s(lp1212
(g186
I22
tp1213
atp1214
asS'es'
p1215
(lp1216
(S'se'
p1217
(dp1218
S'PRON'
p1219
F1.0
sS'VERB'
p1220
F0.0
s(lp1221
(g7
I0
tp1222
atp1223
a(S'trata'
p1224
(dp1225
S'VERB'
p1226
F0.999781
sS'NOUN'
p1227
F0.000219
s(lp1228
(g21
I1
tp1229
atp1230
a(S'de'
p1231
(dp1232
g386
F0.0
sS'CONJ'
p1233
F2.6e-05
sS'ADP'
p1234
F0.999974
s(lp1235
tp1236
a(S'una'
p1237
(dp1238
S'DET'
p1239
F1.0
s(lp1240
(g37
I2
tp1241
atp1242
a(S'nueva'
p1243
(dp1244
S'NOUN'
p1245
F0.150256
sS'ADJ'
p1246
F0.849744
s(lp1247
(g45
I3
tp1248
atp1249
a(S'amenaza'
p1250
(dp1251
S'VERB'
p1252
F0.211505
sS'NOUN'
p1253
F0.788495
s(lp1254
(g53
I4
tp1255
atp1256
a(S'desconocida'
p1257
(dp1258
S'VERB'
p1259
F0.877433
sS'NOUN'
p1260
F0.122567
s(lp1261
(g83
I8
tp1262
atp1263
a(S'hasta'
p1264
(dp1265
S'ADV'
p1266
F0.791932
sS'NOUN'
p1267
F0.013466
sS'ADJ'
p1268
F0.194602
s(lp1269
(g247
I9
tp1270
atp1271
a(S'ahora'
p1272
(dp1273
S'ADV'
p1274
F0.791932
sS'NOUN'
p1275
F0.013466
sS'ADJ'
p1276
F0.194602
s(lp1277
(g260
I11
tp1278
atp1279
a(S'y'
p1280
(dp1281
g386
F0.002418
sS'CONJ'
p1282
F0.997582
s(lp1283
(g97
I12
tp1284
atp1285
a(g37
(dp1286
S'CONJ'
p1287
F1.0
s(lp1288
tp1289
a(S'la'
p1290
(dp1291
S'CONJ'
p1292
F1.0
s(lp1293
tp1294
a(S'que'
p1295
(dp1296
S'CONJ'
p1297
F1.0
s(lp1298
(g106
I13
tp1299
atp1300
a(S'no'
p1301
(dp1302
S'ADV'
p1303
F1.0
sg386
F0.0
s(lp1304
(g76
I16
tp1305
atp1306
a(S'est\xc3\xa1bamos'
p1307
(dp1308
S'VERB'
p1309
F1.0
s(lp1310
(g127
I15
tp1311
atp1312
a(S'acostumbrados'
p1313
(dp1314
S'VERB'
p1315
F1.0
s(lp1316
(g148
I17
tp1317
atp1318
a(g37
(dp1319
g386
F3e-06
sS'CONJ'
p1320
F0.10127
sS'ADP'
p1321
F0.898727
s(lp1322
(g155
I18
tp1323
atp1324
a(S'combatir'
p1325
(dp1326
S'VERB'
p1327
F1.0
s(lp1328
(g162
I19
tp1329
atp1330
a(g1280
(dp1331
g386
F1.2e-05
sS'CONJ'
p1332
F0.999988
s(lp1333
(g169
I20
tp1334
atp1335
a(S'atacar'
p1336
(dp1337
S'VERB'
p1338
F1.0
s(lp1339
(g183
I21
tp1340
atp1341
a(g186
(dp1342
g186
F1.0
s(lp1343
(g186
I22
tp1344
atp1345
as.