(dp0
S'fr'
p1
(lp2
(S'je'
p3
(dp4
S'PRON'
p5
F1.0
s(lp6
(S'i'
p7
I0
tp8
atp9
a(S'suis'
p10
(dp11
S'VERB'
p12
F1.0
s(lp13
(S'am'
p14
I1
tp15
atp16
a(S'optimiste'
p17
(dp18
S'NOUN'
p19
F0.075125
sS'ADJ'
p20
F0.924875
s(lp21
(S'optimistic'
p22
I2
tp23
atp24
a(S','
p25
(dp26
S'.'
p27
F1.0
s(lp28
(g25
I4
tp29
atp30
a(S'car'
p31
(dp32
S'CONJ'
p33
F0.996098
sS'NOUN'
p34
F0.003902
s(lp35
(S'because'
p36
I3
tp37
atp38
a(S'je'
p39
(dp40
S'PRON'
p41
F1.0
s(lp42
(g7
I10
tp43
atp44
a(S'sens'
p45
(dp46
S'VERB'
p47
F0.8772730000000001
sS'NOUN'
p48
F0.122727
s(lp49
(S'feel'
p50
I11
tp51
atp52
a(S'au'
p53
(dp54
S'ADP'
p55
F1.0
s(lp56
(S'in'
p57
I6
tp58
atp59
a(S'sein'
p60
(dp61
S'NOUN'
p62
F1.0
s(lp63
(S'here'
p64
I5
tp65
atp66
a(S'de'
p67
(dp68
S'ADP'
p69
F1.0
s(lp70
tp71
a(S'ce'
p72
(dp73
S'PRON'
p74
F1.0
s(lp75
(S'this'
p76
I7
tp77
atp78
a(S'parlement'
p79
(dp80
S'NOUN'
p81
F1.0
s(lp82
(S'house'
p83
I8
tp84
atp85
a(S'un'
p86
(dp87
S'NOUN'
p88
F6.1e-05
sS'NUM'
p89
F0.045956
sS'DET'
p90
F0.953984
s(lp91
(S'a'
p92
I12
tp93
atp94
a(S'engagement'
p95
(dp96
S'NOUN'
p97
F1.0
s(lp98
(S'commitment'
p99
I13
tp100
atp101
a(S'et'
p102
(dp103
S'CONJ'
p104
F1.0
s(lp105
(S'and'
p106
I14
tp107
atp108
a(S'un'
p109
(dp110
S'NOUN'
p111
F0.000849
sS'NUM'
p112
F0.004085
sS'DET'
p113
F0.995066
s(lp114
(g92
I15
tp115
atp116
a(S'r\xc3\xa9el'
p117
(dp118
S'NOUN'
p119
F0.099406
sS'ADJ'
p120
F0.900594
s(lp121
(S'real'
p122
I16
tp123
atp124
a(S'sens'
p125
(dp126
S'VERB'
p127
F0.025114
sS'NOUN'
p128
F0.974886
s(lp129
(S'sense'
p130
I17
tp131
atp132
a(S'des'
p133
(dp134
S'DET'
p135
F2.7e-05
sS'ADP'
p136
F0.999973
s(lp137
(S'of'
p138
I18
tp139
atp140
a(S'responsabilit\xc3\xa9s'
p141
(dp142
S'NOUN'
p143
F1.0
s(lp144
(S'ownership'
p145
I19
tp146
atp147
a(S'\xc3\xa0'
p148
(dp149
S'ADP'
p150
F1.0
s(lp151
(S'towards'
p152
I20
tp153
atp154
a(S"l'"
p155
(dp156
S'ADJ'
p157
F0.160704
sS'VERB'
p158
F0.06480800000000002
sS'NOUN'
p159
F0.774488
s(lp160
(g152
I20
tp161
atp162
a(S'\xc3\xa9gard'
p163
(dp164
S'NOUN'
p165
F1.0
s(lp166
tp167
a(S'de'
p168
(dp169
S'ADP'
p170
F1.0
s(lp171
(g152
I20
tp172
atp173
a(S"l'"
p174
(dp175
S'ADJ'
p176
F0.160704
sS'VERB'
p177
F0.06480800000000002
sS'NOUN'
p178
F0.774488
s(lp179
(S'the'
p180
I21
tp181
atp182
a(S'avenir'
p183
(dp184
S'NOUN'
p185
F1.0
s(lp186
(S'future'
p187
I22
tp188
atp189
a(S'de'
p190
(dp191
S'ADP'
p192
F1.0
s(lp193
(S'of'
p194
I23
tp195
atp196
a(S"l'"
p197
(dp198
S'ADJ'
p199
F0.160704
sS'VERB'
p200
F0.06480800000000002
sS'NOUN'
p201
F0.774488
s(lp202
tp203
a(S'europe'
p204
(dp205
S'VERB'
p206
F0.018024000000000002
sS'NOUN'
p207
F0.9819749999999999
s(lp208
(S'europe'
p209
I24
tp210
atp211
a(g27
(dp212
g27
F1.0
s(lp213
(g27
I25
tp214
atp215
asS'en'
p216
(lp217
(g7
(dp218
S'X'
p219
F0.000587
sS'NOUN'
p220
F0.999413
s(lp221
(g7
I0
tp222
atp223
a(g14
(dp224
S'ADV'
p225
F0.009846
sS'VERB'
p226
F0.990154
s(lp227
(g14
I1
tp228
atp229
a(g22
(dp230
S'ADJ'
p231
F1.0
s(lp232
(g22
I2
tp233
atp234
a(g36
(dp235
S'ADV'
p236
F0.034245
sS'ADP'
p237
F0.965755
s(lp238
(g36
I3
tp239
atp240
a(g25
(dp241
g27
F1.0
s(lp242
(g25
I4
tp243
atp244
a(g64
(dp245
S'ADV'
p246
F0.999781
sS'ADP'
p247
F0.000219
s(lp248
(g64
I5
tp249
atp250
a(g57
(dp251
S'ADV'
p252
F0.001592
sS'PRT'
p253
F7e-06
sS'ADP'
p254
F0.998402
s(lp255
(g57
I6
tp256
atp257
a(g76
(dp258
S'ADV'
p259
F3e-06
sS'NOUN'
p260
F1.9e-05
sS'DET'
p261
F0.999978
s(lp262
(g76
I7
tp263
atp264
a(g83
(dp265
S'VERB'
p266
F0.00012100000000000001
sS'NOUN'
p267
F0.999879
s(lp268
(g83
I8
tp269
atp270
a(g25
(dp271
g27
F1.0
s(lp272
(g25
I9
tp273
atp274
a(g7
(dp275
g219
F0.029049
sS'NOUN'
p276
F0.97095
s(lp277
(g7
I10
tp278
atp279
a(g50
(dp280
S'VERB'
p281
F0.995913
sS'NOUN'
p282
F0.004087
s(lp283
(g50
I11
tp284
atp285
a(g92
(dp286
S'NOUN'
p287
F0.0
sS'DET'
p288
F1.0
s(lp289
(g92
I12
tp290
atp291
a(g99
(dp292
S'NOUN'
p293
F1.0
s(lp294
(g99
I13
tp295
atp296
a(g106
(dp297
S'CONJ'
p298
F1.0
sS'NOUN'
p299
F0.0
s(lp300
(g106
I14
tp301
atp302
a(g92
(dp303
S'NOUN'
p304
F0.0
sS'DET'
p305
F1.0
s(lp306
(g92
I15
tp307
atp308
a(g122
(dp309
S'ADV'
p310
F0.000106
sS'NOUN'
p311
F0.001773
sS'ADJ'
p312
F0.998121
s(lp313
(g122
I16
tp314
atp315
a(g130
(dp316
S'VERB'
p317
F0.000522
sS'NOUN'
p318
F0.999478
s(lp319
(g130
I17
tp320
atp321
a(g138
(dp322
S'ADP'
p323
F1.0
s(lp324
(g138
I18
tp325
atp326
a(g145
(dp327
S'NOUN'
p328
F1.0
s(lp329
(g145
I19
tp330
atp331
a(g152
(dp332
S'ADP'
p333
F1.0
s(lp334
(g152
I20
tp335
atp336
a(g180
(dp337
S'NOUN'
p338
F1e-06
sS'DET'
p339
F0.999999
s(lp340
(g180
I21
tp341
atp342
a(g187
(dp343
S'ADJ'
p344
F0.213052
sS'NOUN'
p345
F0.786948
s(lp346
(g187
I22
tp347
atp348
a(g194
(dp349
S'ADP'
p350
F1.0
s(lp351
(g194
I23
tp352
atp353
a(g209
(dp354
S'ADV'
p355
F0.000279
sS'ADJ'
p356
F0.016825
sS'VERB'
p357
F3e-06
sS'NOUN'
p358
F0.982893
s(lp359
(g209
I24
tp360
atp361
a(g27
(dp362
g27
F1.0
s(lp363
(g27
I25
tp364
atp365
asS'nl'
p366
(lp367
(S'ik'
p368
(dp369
S'PRON'
p370
F0.999981
sS'NOUN'
p371
F1.9e-05
s(lp372
(g7
I0
tp373
atp374
a(S'ben'
p375
(dp376
S'VERB'
p377
F1.0
s(lp378
(g14
I1
tp379
atp380
a(S'optimistisch'
p381
(dp382
S'ADJ'
p383
F1.0
s(lp384
(g22
I2
tp385
atp386
a(S'omdat'
p387
(dp388
S'CONJ'
p389
F1.0
s(lp390
(g36
I3
tp391
atp392
a(S'ik'
p393
(dp394
S'PRON'
p395
F0.99999
sS'NOUN'
p396
F1e-05
s(lp397
(g7
I10
tp398
atp399
a(S'voel'
p400
(dp401
S'VERB'
p402
F1.0
s(lp403
tp404
a(S'dat'
p405
(dp406
S'PRON'
p407
F0.135186
sS'CONJ'
p408
F0.864815
s(lp409
(g50
I11
tp410
atp411
a(S'er'
p412
(dp413
S'ADV'
p414
F1.0
s(lp415
(g92
I12
tp416
atp417
a(S'hier'
p418
(dp419
S'ADV'
p420
F1.0
s(lp421
(g64
I5
tp422
atp423
a(S'in'
p424
(dp425
S'ADV'
p426
F0.004911
sS'VERB'
p427
F1e-06
sS'ADP'
p428
F0.995088
s(lp429
(g57
I6
tp430
atp431
a(S'dit'
p432
(dp433
S'PRON'
p434
F1.0
s(lp435
(g76
I7
tp436
atp437
a(S'parlement'
p438
(dp439
S'NOUN'
p440
F1.0
s(lp441
(g83
I8
tp442
atp443
a(S'sprake'
p444
(dp445
S'NOUN'
p446
F1.0
s(lp447
tp448
a(S'is'
p449
(dp450
S'VERB'
p451
F1.0
s(lp452
(g25
I9
tp453
atp454
a(S'van'
p455
(dp456
S'ADP'
p457
F1.0
s(lp458
tp459
a(S'betrokkenheid'
p460
(dp461
S'NOUN'
p462
F1.0
s(lp463
(g99
I13
tp464
atp465
a(S'en'
p466
(dp467
S'CONJ'
p468
F1.0
s(lp469
(g106
I14
tp470
atp471
a(S'een'
p472
(dp473
S'ADJ'
p474
F1e-06
sS'PRON'
p475
F0.000689
sS'NUM'
p476
F2e-06
sS'DET'
p477
F0.999308
s(lp478
(g92
I15
tp479
atp480
a(S'echt'
p481
(dp482
S'ADV'
p483
F0.003011
sS'NOUN'
p484
F0.48074
sS'ADJ'
p485
F0.516249
s(lp486
(g122
I16
tp487
atp488
a(S'gevoel'
p489
(dp490
S'VERB'
p491
F0.326061
sS'NOUN'
p492
F0.673939
s(lp493
(g130
I17
tp494
atp495
a(S'van'
p496
(dp497
S'ADP'
p498
F1.0
s(lp499
(g138
I18
tp500
atp501
a(S'eigenaarschap'
p502
(dp503
S'NOUN'
p504
F1.0
s(lp505
(g145
I19
tp506
atp507
a(S'ten'
p508
(dp509
S'ADP'
p510
F1.0
s(lp511
(g152
I20
tp512
atp513
a(S'aanzien'
p514
(dp515
S'VERB'
p516
F1.4e-05
sS'NOUN'
p517
F0.999986
s(lp518
tp519
a(S'van'
p520
(dp521
S'ADP'
p522
F1.0
s(lp523
(g152
I20
tp524
atp525
a(S'de'
p526
(dp527
S'DET'
p528
F1.0
s(lp529
(g180
I21
tp530
atp531
a(S'toekomst'
p532
(dp533
S'NOUN'
p534
F1.0
s(lp535
(g187
I22
tp536
atp537
a(S'van'
p538
(dp539
S'ADP'
p540
F1.0
s(lp541
(g194
I23
tp542
atp543
a(S'europa'
p544
(dp545
S'NOUN'
p546
F1.0
s(lp547
(g209
I24
tp548
atp549
a(g27
(dp550
g27
F1.0
s(lp551
(g27
I25
tp552
atp553
asS'de'
p554
(lp555
(S'ich'
p556
(dp557
S'PRON'
p558
F1.0
s(lp559
(g7
I0
tp560
atp561
a(S'bin'
p562
(dp563
S'VERB'
p564
F1.0
s(lp565
(g14
I1
tp566
atp567
a(S'optimistisch'
p568
(dp569
S'ADJ'
p570
F1.0
s(lp571
(g22
I2
tp572
atp573
a(g25
(dp574
g27
F1.0
s(lp575
(g25
I4
tp576
atp577
a(S'denn'
p578
(dp579
S'ADV'
p580
F0.008431
sS'CONJ'
p581
F0.991569
s(lp582
(g36
I3
tp583
atp584
a(S'ich'
p585
(dp586
S'PRON'
p587
F1.0
s(lp588
(g7
I10
tp589
atp590
a(S'sp\xc3\xbcre'
p591
(dp592
S'VERB'
p593
F1.0
s(lp594
(g50
I11
tp595
atp596
a(S'hier'
p597
(dp598
S'ADV'
p599
F0.999585
sS'PRT'
p600
F0.000415
s(lp601
(g64
I5
tp602
atp603
a(S'in'
p604
(dp605
S'ADP'
p606
F1.0
s(lp607
(g57
I6
tp608
atp609
a(S'diesem'
p610
(dp611
S'PRON'
p612
F1.0
s(lp613
(g76
I7
tp614
atp615
a(S'parlament'
p616
(dp617
S'ADJ'
p618
F0.010532
sS'NOUN'
p619
F0.984482
s(lp620
(g83
I8
tp621
atp622
a(S'ein'
p623
(dp624
S'PRT'
p625
F0.001584
sS'DET'
p626
F0.998072
s(lp627
(g92
I12
tp628
atp629
a(S'gro\xc3\x9fes'
p630
(dp631
S'ADJ'
p632
F1.0
s(lp633
tp634
a(S'engagement'
p635
(dp636
S'ADJ'
p637
F0.0003
sS'NOUN'
p638
F0.999677
s(lp639
(g99
I13
tp640
atp641
a(S'und'
p642
(dp643
S'CONJ'
p644
F1.0
s(lp645
(g106
I14
tp646
atp647
a(S'ein'
p648
(dp649
S'VERB'
p650
F0.000334
sS'DET'
p651
F0.999511
s(lp652
(g92
I15
tp653
atp654
a(S'wirkliches'
p655
(dp656
S'ADJ'
p657
F1.0
s(lp658
(g122
I16
tp659
atp660
a(S'verantwortungsbewusstsein'
p661
(dp662
S'VERB'
p663
F1.8e-05
sS'NOUN'
p664
F0.999955
s(lp665
(g145
I19
tp666
atp667
a(S'f\xc3\xbcr'
p668
(dp669
S'ADP'
p670
F1.0
s(lp671
(g152
I20
tp672
atp673
a(S'die'
p674
(dp675
S'PRON'
p676
F0.001281
sS'DET'
p677
F0.998393
s(lp678
(g180
I21
tp679
atp680
a(S'zukunft'
p681
(dp682
S'ADJ'
p683
F0.234504
sS'NOUN'
p684
F0.563592
s(lp685
(g187
I22
tp686
atp687
a(S'europas'
p688
(dp689
S'ADJ'
p690
F0.361076
sS'NOUN'
p691
F0.584258
s(lp692
(g209
I24
tp693
atp694
a(g27
(dp695
g27
F1.0
s(lp696
(g27
I25
tp697
atp698
asS'it'
p699
(lp700
(S'sono'
p701
(dp702
S'VERB'
p703
F0.999289
sS'NOUN'
p704
F0.000711
s(lp705
(g14
I1
tp706
atp707
a(S'ottimista'
p708
(dp709
S'NOUN'
p710
F1.0
s(lp711
(g22
I2
tp712
atp713
a(g25
(dp714
g27
F1.0
s(lp715
(g25
I4
tp716
atp717
a(S'in'
p718
(dp719
S'ADP'
p720
F1.0
s(lp721
(g64
I5
tp722
atp723
a(S'quanto'
p724
(dp725
S'ADV'
p726
F0.502404
sS'PRON'
p727
F0.424026
sS'ADJ'
p728
F0.066873
sS'NOUN'
p729
F0.006697
s(lp730
(g36
I3
tp731
atp732
a(S'in'
p733
(dp734
S'ADP'
p735
F1.0
s(lp736
(g57
I6
tp737
atp738
a(S"quest'"
p739
(dp740
S'ADJ'
p741
F0.018253
sS'VERB'
p742
F0.018786
sS'NOUN'
p743
F0.962961
s(lp744
(g76
I7
tp745
atp746
a(S'aula'
p747
(dp748
S'NOUN'
p749
F1.0
s(lp750
(g83
I8
tp751
atp752
a(S'avverto'
p753
(dp754
S'VERB'
p755
F1.0
s(lp756
(g50
I11
tp757
atp758
a(S'un'
p759
(dp760
S'PRON'
p761
F0.001161
sS'DEF'
p762
F0.998839
s(lp763
(g92
I12
tp764
atp765
a(S'impegno'
p766
(dp767
S'VERB'
p768
F3e-06
sS'NOUN'
p769
F0.999997
s(lp770
(g99
I13
tp771
atp772
a(S'e'
p773
(dp774
S'CONJ'
p775
F1.0
s(lp776
(g106
I14
tp777
atp778
a(S'un'
p779
(dp780
S'PRON'
p781
F0.004298
sS'DEF'
p782
F0.995702
s(lp783
(g92
I15
tp784
atp785
a(S'vero'
p786
(dp787
S'ADJ'
p788
F0.338105
sS'NOUN'
p789
F0.661895
s(lp790
(g122
I16
tp791
atp792
a(g773
(dp793
S'CONJ'
p794
F1.0
s(lp795
tp796
a(S'proprio'
p797
(dp798
S'ADV'
p799
F0.670026
sS'NOUN'
p800
F0.000455
sS'ADJ'
p801
F0.329519
s(lp802
(g122
I16
tp803
atp804
a(S'senso'
p805
(dp806
S'NOUN'
p807
F1.0
s(lp808
(g130
I17
tp809
atp810
a(S'di'
p811
(dp812
S'CONJ'
p813
F4e-06
sS'ADP'
p814
F0.999996
s(lp815
(g138
I18
tp816
atp817
a(S'responsabilit\xc3\xa0'
p818
(dp819
S'NOUN'
p820
F1.0
s(lp821
(g145
I19
tp822
atp823
a(S'nei'
p824
(dp825
S'NOUN'
p826
F2.4e-05
sS'ADP'
p827
F0.999976
s(lp828
tp829
a(S'confronti'
p830
(dp831
S'VERB'
p832
F5e-06
sS'NOUN'
p833
F0.999995
s(lp834
(g152
I20
tp835
atp836
a(S'del'
p837
(dp838
S'DEF'
p839
F0.002113
sS'ADP'
p840
F0.997887
s(lp841
(g180
I21
tp842
atp843
a(S'futuro'
p844
(dp845
S'NOUN'
p846
F0.420659
sS'ADJ'
p847
F0.579341
s(lp848
(g187
I22
tp849
atp850
a(S"dell'"
p851
(dp852
S'ADJ'
p853
F0.017562
sS'VERB'
p854
F0.0028239999999999997
sS'NOUN'
p855
F0.979615
s(lp856
(g194
I23
tp857
atp858
a(S'europa'
p859
(dp860
S'NOUN'
p861
F0.200758
sS'VERB'
p862
F0.012209
sS'ADJ'
p863
F0.787033
s(lp864
(g209
I24
tp865
atp866
a(g27
(dp867
g27
F1.0
s(lp868
(g27
I25
tp869
atp870
asS'sk'
p871
(lp872
(S'som'
p873
(dp874
S'VERB'
p875
F1.0
s(lp876
(g7
I0
tp877
atp878
a(S'optimista'
p879
(dp880
S'NOUN'
p881
F1.0
s(lp882
(g22
I2
tp883
atp884
a(g25
(dp885
g27
F1.0
s(lp886
(g25
I4
tp887
atp888
a(S'lebo'
p889
(dp890
g219
F0.000205
sS'CONJ'
p891
F0.999795
s(lp892
(g36
I3
tp893
atp894
a(S'tu'
p895
(dp896
S'PRON'
p897
F0.9920650000000001
sg219
F0.007936
s(lp898
(g64
I5
tp899
atp900
a(S'v'
p901
(dp902
g219
F0.0004930000000000001
sS'ADP'
p903
F0.999507
s(lp904
(g57
I6
tp905
atp906
a(S'parlamente'
p907
(dp908
S'NOUN'
p909
F1.0
s(lp910
(g83
I8
tp911
atp912
a(S'c\xc3\xadtim'
p913
(dp914
S'VERB'
p915
F1.0
s(lp916
(g50
I11
tp917
atp918
a(S'odhodlanie'
p919
(dp920
S'NOUN'
p921
F1.0
s(lp922
(g99
I13
tp923
atp924
a(g92
(dp925
g219
F0.001131
sS'CONJ'
p926
F0.998072
sS'NOUN'
p927
F0.000173
sS'ADP'
p928
F0.000598
sS'PRT'
p929
F2.6e-05
s(lp930
(g106
I14
tp931
atp932
a(S'skuto\xc4\x8dn\xc3\xbd'
p933
(dp934
S'ADJ'
p935
F1.0
s(lp936
(g122
I16
tp937
atp938
a(S'pocit'
p939
(dp940
S'NOUN'
p941
F1.0
s(lp942
(g130
I17
tp943
atp944
a(S'zodpovednosti'
p945
(dp946
S'NOUN'
p947
F1.0
s(lp948
tp949
a(S'za'
p950
(dp951
g219
F0.00034199999999999996
sS'ADP'
p952
F0.999635
sS'PRT'
p953
F2.2e-05
s(lp954
(g145
I19
tp955
atp956
a(S'bud\xc3\xbacnos\xc5\xa5'
p957
(dp958
S'NOUN'
p959
F1.0
s(lp960
(g187
I22
tp961
atp962
a(S'eur\xc3\xb3py'
p963
(dp964
S'NOUN'
p965
F1.0
s(lp966
(g209
I24
tp967
atp968
a(g27
(dp969
g27
F1.0
s(lp970
(g27
I25
tp971
atp972
asS'pl'
p973
(lp974
(S'jestem'
p975
(dp976
S'VERB'
p977
F1.0
s(lp978
(g14
I1
tp979
atp980
a(S'optymist\xc4\x85'
p981
(dp982
S'NOUN'
p983
F1.0
s(lp984
(g22
I2
tp985
atp986
a(g25
(dp987
g219
F0.0
sg27
F1.0
s(lp988
(g25
I4
tp989
atp990
a(S'gdy\xc5\xbc'
p991
(dp992
S'CONJ'
p993
F1.0
s(lp994
(g36
I3
tp995
atp996
a(S'w'
p997
(dp998
S'ADJ'
p999
F0.0
sg219
F0.0
sS'NOUN'
p1000
F0.0
sS'ADP'
p1001
F0.999999
s(lp1002
(g57
I6
tp1003
atp1004
a(S'parlamencie'
p1005
(dp1006
S'NOUN'
p1007
F1.0
s(lp1008
(g83
I8
tp1009
atp1010
a(S'dostrzegam'
p1011
(dp1012
S'VERB'
p1013
F1.0
s(lp1014
(g7
I10
tp1015
atp1016
a(S'zaanga\xc5\xbcowanie'
p1017
(dp1018
S'VERB'
p1019
F0.004413
sS'NOUN'
p1020
F0.995587
s(lp1021
(g99
I13
tp1022
atp1023
a(g7
(dp1024
S'PRT'
p1025
F0.004839
sS'CONJ'
p1026
F0.995125
sS'PRON'
p1027
F1.5e-05
sS'NOUN'
p1028
F2e-06
sg219
F1.9e-05
s(lp1029
(g106
I14
tp1030
atp1031
a(S'prawdziwe'
p1032
(dp1033
S'ADJ'
p1034
F0.9999999999999999
s(lp1035
(g122
I16
tp1036
atp1037
a(S'poczucie'
p1038
(dp1039
S'VERB'
p1040
F0.212565
sS'NOUN'
p1041
F0.787435
s(lp1042
(g130
I17
tp1043
atp1044
a(S'odpowiedzialno\xc5\x9bci'
p1045
(dp1046
S'NOUN'
p1047
F1.0
s(lp1048
tp1049
a(S'za'
p1050
(dp1051
S'PRT'
p1052
F0.000793
sS'VERB'
p1053
F8.4e-05
sS'NOUN'
p1054
F5e-06
sS'ADP'
p1055
F0.9991179999999998
sg219
F0.0
s(lp1056
(g145
I19
tp1057
atp1058
a(S'przysz\xc5\x82o\xc5\x9b\xc4\x87'
p1059
(dp1060
S'NOUN'
p1061
F1.0
s(lp1062
(g187
I22
tp1063
atp1064
a(S'europy'
p1065
(dp1066
S'ADJ'
p1067
F0.000228
sS'NOUN'
p1068
F0.999775
s(lp1069
(g209
I24
tp1070
atp1071
a(g27
(dp1072
g27
F1.0
s(lp1073
(g27
I25
tp1074
atp1075
asS'sl'
p1076
(lp1077
(S'sem'
p1078
(dp1079
S'ADV'
p1080
F0.18688
sS'PRT'
p1081
F0.035335
sS'VERB'
p1082
F0.777785
s(lp1083
(g14
I1
tp1084
atp1085
a(S'optimist'
p1086
(dp1087
S'NOUN'
p1088
F1.0
s(lp1089
(g22
I2
tp1090
atp1091
a(g25
(dp1092
g27
F1.0
s(lp1093
(g25
I4
tp1094
atp1095
a(S'ker'
p1096
(dp1097
S'CONJ'
p1098
F1.0
s(lp1099
(g36
I3
tp1100
atp1101
a(S'tu'
p1102
(dp1103
S'ADV'
p1104
F1.0
s(lp1105
(g64
I5
tp1106
atp1107
a(g901
(dp1108
S'ADP'
p1109
F1.0
s(lp1110
(g57
I6
tp1111
atp1112
a(S'tem'
p1113
(dp1114
S'ADV'
p1115
F1.7e-05
sS'PRON'
p1116
F0.9999819999999999
sS'NOUN'
p1117
F0.0
s(lp1118
(g76
I7
tp1119
atp1120
a(S'parlamentu'
p1121
(dp1122
S'NOUN'
p1123
F1.0
s(lp1124
(g83
I8
tp1125
atp1126
a(S'\xc4\x8dutim'
p1127
(dp1128
S'VERB'
p1129
F1.0
s(lp1130
(g50
I11
tp1131
atp1132
a(S'predanost'
p1133
(dp1134
S'NOUN'
p1135
F1.0
s(lp1136
(g99
I13
tp1137
atp1138
a(S'in'
p1139
(dp1140
S'ADV'
p1141
F6.5e-05
sg219
F1.1e-05
sS'CONJ'
p1142
F0.999909
sS'NOUN'
p1143
F1.6e-05
s(lp1144
(g106
I14
tp1145
atp1146
a(S'pravi'
p1147
(dp1148
S'VERB'
p1149
F0.159132
sS'ADJ'
p1150
F0.840868
s(lp1151
(g122
I16
tp1152
atp1153
a(S'smisel'
p1154
(dp1155
S'NOUN'
p1156
F1.0
s(lp1157
(g130
I17
tp1158
atp1159
a(S'za'
p1160
(dp1161
S'ADV'
p1162
F0.012714
sg219
F0.007476
sS'ADP'
p1163
F0.97981
s(lp1164
(g138
I18
tp1165
atp1166
a(S'lastni\xc5\xa1tvo'
p1167
(dp1168
S'NOUN'
p1169
F1.0
s(lp1170
(g145
I19
tp1171
atp1172
a(S'do'
p1173
(dp1174
g219
F1e-05
sS'ADP'
p1175
F0.99999
s(lp1176
(g152
I20
tp1177
atp1178
a(S'prihodnosti'
p1179
(dp1180
S'NOUN'
p1181
F0.9999999999999999
s(lp1182
(g187
I22
tp1183
atp1184
a(S'evrope'
p1185
(dp1186
S'ADV'
p1187
F0.002117
sg219
F0.01071
sS'ADJ'
p1188
F0.010409999999999999
sS'NOUN'
p1189
F0.97676
s(lp1190
(g209
I24
tp1191
atp1192
a(g27
(dp1193
g27
F1.0
s(lp1194
(g27
I25
tp1195
atp1196
asS'es'
p1197
(lp1198
(S'soy'
p1199
(dp1200
S'VERB'
p1201
F1.0
s(lp1202
(g14
I1
tp1203
atp1204
a(S'optimista'
p1205
(dp1206
S'NOUN'
p1207
F0.006304
sS'ADJ'
p1208
F0.993696
s(lp1209
(g22
I2
tp1210
atp1211
a(S'porque'
p1212
(dp1213
S'CONJ'
p1214
F1.0
s(lp1215
(g36
I3
tp1216
atp1217
a(g25
(dp1218
g27
F1.0
s(lp1219
(g25
I4
tp1220
atp1221
a(S'aqu\xc3\xad'
p1222
(dp1223
S'ADV'
p1224
F1.0
s(lp1225
(g64
I5
tp1226
atp1227
a(S'en'
p1228
(dp1229
g219
F0.0
sS'CONJ'
p1230
F4e-06
sS'ADP'
p1231
F0.999996
s(lp1232
(g57
I6
tp1233
atp1234
a(S'esta'
p1235
(dp1236
S'PRON'
p1237
F1.0
sS'VERB'
p1238
F0.0
s(lp1239
(g76
I7
tp1240
atp1241
a(S'c\xc3\xa1mara'
p1242
(dp1243
S'NOUN'
p1244
F1.0
s(lp1245
(g83
I8
tp1246
atp1247
a(g25
(dp1248
g27
F1.0
s(lp1249
(g25
I9
tp1250
atp1251
a(S'observo'
p1252
(dp1253
S'VERB'
p1254
F1.0
s(lp1255
(g7
I10
tp1256
atp1257
a(S'un'
p1258
(dp1259
g219
F1e-06
sS'DET'
p1260
F0.999999
s(lp1261
(g92
I12
tp1262
atp1263
a(S'compromiso'
p1264
(dp1265
S'NOUN'
p1266
F1.0
s(lp1267
(g99
I13
tp1268
atp1269
a(S'y'
p1270
(dp1271
g219
F0.000396
sS'CONJ'
p1272
F0.999604
s(lp1273
(g106
I14
tp1274
atp1275
a(S'un'
p1276
(dp1277
g219
F2e-06
sS'DET'
p1278
F0.999998
s(lp1279
(g92
I15
tp1280
atp1281
a(S'sentido'
p1282
(dp1283
S'NOUN'
p1284
F1.0
s(lp1285
(g130
I17
tp1286
atp1287
a(S'real'
p1288
(dp1289
S'NOUN'
p1290
F5e-06
sS'ADJ'
p1291
F0.999995
s(lp1292
(g122
I16
tp1293
atp1294
a(S'de'
p1295
(dp1296
g219
F3.1e-05
sS'CONJ'
p1297
F0.001485
sS'ADP'
p1298
F0.998485
s(lp1299
(g138
I18
tp1300
atp1301
a(S'identificaci\xc3\xb3n'
p1302
(dp1303
S'NOUN'
p1304
F1.0
s(lp1305
(g145
I19
tp1306
atp1307
a(S'con'
p1308
(dp1309
S'ADP'
p1310
F1.0
s(lp1311
(g152
I20
tp1312
atp1313
a(S'el'
p1314
(dp1315
S'PRON'
p1316
F9e-06
sS'DET'
p1317
F0.999991
s(lp1318
(g180
I21
tp1319
atp1320
a(S'futuro'
p1321
(dp1322
S'ADJ'
p1323
F0.0266
sS'NOUN'
p1324
F0.9734
s(lp1325
(g187
I22
tp1326
atp1327
a(S'de'
p1328
(dp1329
g219
F2.9e-05
sS'CONJ'
p1330
F0.000477
sS'ADP'
p1331
F0.999494
s(lp1332
(g194
I23
tp1333
atp1334
a(S'europa'
p1335
(dp1336
S'NOUN'
p1337
F1.0
s(lp1338
(g209
I24
tp1339
atp1340
a(g27
(dp1341
g27
F1.0
s(lp1342
(g27
I25
tp1343
atp1344
as.