(dp0
S'fr'
p1
(lp2
(S'la'
p3
(dp4
S'PRON'
p5
F8.2e-05
sS'DET'
p6
F0.999918
sS'NOUN'
p7
F0.0
s(lp8
(S'the'
p9
I0
tp10
atp11
a(S'commission'
p12
(dp13
S'NOUN'
p14
F1.0
s(lp15
(S'commission'
p16
I1
tp17
atp18
a(S'note'
p19
(dp20
S'VERB'
p21
F0.852476
sS'NOUN'
p22
F0.147524
s(lp23
(S'notes'
p24
I2
tp25
atp26
a(S'que'
p27
(dp28
S'ADV'
p29
F0.097079
sS'PRON'
p30
F0.059406
sS'CONJ'
p31
F0.843515
s(lp32
(S'that'
p33
I3
tp34
atp35
a(S'les'
p36
(dp37
S'PRON'
p38
F0.000527
sS'DET'
p39
F0.999458
sS'ADP'
p40
F1.5e-05
s(lp41
(S'the'
p42
I7
tp43
atp44
a(S'r\xc3\xa8glements'
p45
(dp46
S'NOUN'
p47
F1.0
s(lp48
(S'regulations'
p49
I9
tp50
atp51
a(S'communautaires'
p52
(dp53
S'ADJ'
p54
F1.0
s(lp55
(S'community'
p56
I8
tp57
atp58
a(S'relatifs'
p59
(dp60
S'ADJ'
p61
F0.241425
sS'NOUN'
p62
F0.758575
s(lp63
(S'relating'
p64
I10
tp65
atp66
a(S'aux'
p67
(dp68
S'ADP'
p69
F1.0
s(lp70
(S'to'
p71
I11
tp72
atp73
a(S'aides'
p74
(dp75
S'VERB'
p76
F0.0
sS'NOUN'
p77
F1.0
s(lp78
(S'support'
p79
I13
tp80
atp81
a(S"d'"
p82
(dp83
S'NOUN'
p84
F0.032441
sS'VERB'
p85
F0.6940129999999999
sS'ADJ'
p86
F0.273544
s(lp87
(S'of'
p88
I6
tp89
atp90
a(S'\xc3\x89tat'
p91
(dp92
S'NOUN'
p93
F1.0
s(lp94
(S'state'
p95
I12
tp96
atp97
a(S'visent'
p98
(dp99
S'VERB'
p100
F1.0
s(lp101
(S'aim'
p102
I5
tp103
atp104
a(S','
p105
(dp106
S'.'
p107
F1.0
s(lp108
(g105
I15
tp109
atp110
a(S'entre'
p111
(dp112
S'VERB'
p113
F0.003168
sS'ADP'
p114
F0.996831
s(lp115
(S'among'
p116
I16
tp117
atp118
a(S'autres'
p119
(dp120
S'ADJ'
p121
F1.0
s(lp122
(S'other'
p123
I17
tp124
atp125
a(S'choses'
p126
(dp127
S'VERB'
p128
F0.000324
sS'NOUN'
p129
F0.999676
s(lp130
(S'things'
p131
I18
tp132
atp133
a(g105
(dp134
g107
F1.0
s(lp135
(g105
I19
tp136
atp137
a(S'\xc3\xa0'
p138
(dp139
S'ADP'
p140
F1.0
s(lp141
(S'to'
p142
I20
tp143
atp144
a(S'garantir'
p145
(dp146
S'VERB'
p147
F1.0
s(lp148
(S'ensure'
p149
I21
tp150
atp151
a(S'que'
p152
(dp153
S'ADV'
p154
F0.024579
sS'PRON'
p155
F0.025907
sS'CONJ'
p156
F0.949514
s(lp157
(S'that'
p158
I22
tp159
atp160
a(S'les'
p161
(dp162
S'PRON'
p163
F0.000855
sS'DET'
p164
F0.999131
sS'ADP'
p165
F1.4e-05
s(lp166
tp167
a(S'aides'
p168
(dp169
S'VERB'
p170
F0.000342
sS'NOUN'
p171
F0.999658
s(lp172
(S'aid'
p173
I23
tp174
atp175
a(S'dont'
p176
(dp177
S'PRON'
p178
F1.0
s(lp179
tp180
a(S"l'"
p181
(dp182
S'ADJ'
p183
F0.006544
sS'VERB'
p184
F0.9727199999999999
sS'NOUN'
p185
F0.020737
s(lp186
(S'the'
p187
I4
tp188
atp189
a(S'objectif'
p190
(dp191
S'NOUN'
p192
F0.180591
sS'ADJ'
p193
F0.819409
s(lp194
(S'aimed'
p195
I24
tp196
atp197
a(S'est'
p198
(dp199
S'VERB'
p200
F0.995681
sS'NOUN'
p201
F0.004319
s(lp202
(S'is'
p203
I14
tp204
atp205
a(S"d'"
p206
(dp207
S'NOUN'
p208
F0.087646
sS'VERB'
p209
F0.7991120000000002
sS'ADJ'
p210
F0.113241
s(lp211
(S'at'
p212
I25
tp213
atp214
a(S'influencer'
p215
(dp216
S'VERB'
p217
F1.0
s(lp218
(S'influencing'
p219
I26
tp220
atp221
a(S'les'
p222
(dp223
S'PRON'
p224
F3.1e-05
sS'DET'
p225
F0.999948
sS'ADP'
p226
F2.1e-05
s(lp227
(S'the'
p228
I27
tp229
atp230
a(S'd\xc3\xa9cisions'
p231
(dp232
S'NOUN'
p233
F1.0
s(lp234
(S'decisions'
p235
I28
tp236
atp237
a(S'des'
p238
(dp239
S'DET'
p240
F2.1e-05
sS'ADP'
p241
F0.999979
s(lp242
(S'of'
p243
I29
tp244
atp245
a(S'entreprises'
p246
(dp247
S'VERB'
p248
F0.003332
sS'NOUN'
p249
F0.996668
s(lp250
(S'companies'
p251
I30
tp252
atp253
a(S'concernant'
p254
(dp255
S'VERB'
p256
F0.779333
sS'ADP'
p257
F0.220667
s(lp258
(S'concerning'
p259
I31
tp260
atp261
a(S'la'
p262
(dp263
S'PRON'
p264
F3e-06
sS'DET'
p265
F0.999997
sS'NOUN'
p266
F0.0
s(lp267
(S'the'
p268
I32
tp269
atp270
a(S'localisation'
p271
(dp272
S'NOUN'
p273
F1.0
s(lp274
(S'location'
p275
I33
tp276
atp277
a(S'des'
p278
(dp279
S'DET'
p280
F2.1e-05
sS'ADP'
p281
F0.999979
s(lp282
(S'of'
p283
I34
tp284
atp285
a(S'investissements'
p286
(dp287
S'NOUN'
p288
F1.0
s(lp289
(S'investments'
p290
I35
tp291
atp292
a(S'soient'
p293
(dp294
S'VERB'
p295
F1.0
s(lp296
(S'be'
p297
I37
tp298
atp299
a(S'uniquement'
p300
(dp301
S'ADV'
p302
F1.0
s(lp303
(S'only'
p304
I39
tp305
atp306
a(S'affect\xc3\xa9es'
p307
(dp308
S'NOUN'
p309
F0.002553
sS'VERB'
p310
F0.976319
sS'ADJ'
p311
F0.021128
s(lp312
(S'disadvantaged'
p313
I41
tp314
atp315
a(S'aux'
p316
(dp317
S'ADP'
p318
F1.0
s(lp319
tp320
a(S'r\xc3\xa9gions'
p321
(dp322
S'NOUN'
p323
F1.0
s(lp324
(S'regions'
p325
I42
tp326
atp327
a(S'd\xc3\xa9favoris\xc3\xa9es'
p328
(dp329
S'VERB'
p330
F1.0
s(lp331
(g313
I41
tp332
atp333
a(S'et'
p334
(dp335
S'CONJ'
p336
F1.0
s(lp337
(S'and'
p338
I43
tp339
atp340
a(S"qu'"
p341
(dp342
S'NOUN'
p343
F0.109289
sS'VERB'
p344
F0.472141
sS'ADJ'
p345
F0.418571
s(lp346
(S'that'
p347
I44
tp348
atp349
a(S'elles'
p350
(dp351
S'PRON'
p352
F1.0
s(lp353
(S'aid'
p354
I46
tp355
atp356
a(S'ne'
p357
(dp358
S'ADV'
p359
F1.0
s(lp360
tp361
a(S'sont'
p362
(dp363
S'VERB'
p364
F1.0
s(lp365
(S'be'
p366
I49
tp367
atp368
a(S'pas'
p369
(dp370
S'ADV'
p371
F0.999162
sS'NOUN'
p372
F0.000838
s(lp373
(S'not'
p374
I48
tp375
atp376
a(S'utilis\xc3\xa9es'
p377
(dp378
S'VERB'
p379
F1.0
s(lp380
(S'used'
p381
I50
tp382
atp383
a(S'au'
p384
(dp385
S'ADP'
p386
F1.0
s(lp387
tp388
a(S'd\xc3\xa9triment'
p389
(dp390
S'NOUN'
p391
F1.0
s(lp392
(S'detriment'
p393
I53
tp394
atp395
a(S"d'"
p396
(dp397
S'NOUN'
p398
F0.032441
sS'VERB'
p399
F0.694014
sS'ADJ'
p400
F0.273544
s(lp401
(S'of'
p402
I54
tp403
atp404
a(S'autres'
p405
(dp406
S'ADJ'
p407
F1.0
s(lp408
(S'other'
p409
I55
tp410
atp411
a(S'r\xc3\xa9gions'
p412
(dp413
S'NOUN'
p414
F1.0
s(lp415
(S'regions'
p416
I56
tp417
atp418
a(g107
(dp419
g107
F1.0
s(lp420
(g107
I57
tp421
atp422
asS'en'
p423
(lp424
(g9
(dp425
S'NOUN'
p426
F5e-06
sS'DET'
p427
F0.999995
s(lp428
(g9
I0
tp429
atp430
a(g16
(dp431
S'VERB'
p432
F9e-06
sS'NOUN'
p433
F0.999991
s(lp434
(g16
I1
tp435
atp436
a(g24
(dp437
S'VERB'
p438
F0.308949
sS'NOUN'
p439
F0.691051
s(lp440
(g24
I2
tp441
atp442
a(g33
(dp443
S'ADV'
p444
F0.000524
sS'DET'
p445
F0.135934
sS'ADP'
p446
F0.863542
s(lp447
(g33
I3
tp448
atp449
a(g187
(dp450
S'NOUN'
p451
F3e-06
sS'DET'
p452
F0.999997
s(lp453
(g187
I4
tp454
atp455
a(g102
(dp456
S'VERB'
p457
F0.002196
sS'NOUN'
p458
F0.997804
s(lp459
(g102
I5
tp460
atp461
a(g88
(dp462
S'ADP'
p463
F1.0
s(lp464
(g88
I6
tp465
atp466
a(g42
(dp467
S'NOUN'
p468
F1e-06
sS'DET'
p469
F0.999999
s(lp470
(g42
I7
tp471
atp472
a(g56
(dp473
S'NOUN'
p474
F1.0
s(lp475
(g56
I8
tp476
atp477
a(g49
(dp478
S'NOUN'
p479
F1.0
s(lp480
(g49
I9
tp481
atp482
a(g64
(dp483
S'VERB'
p484
F1.0
s(lp485
(g64
I10
tp486
atp487
a(g71
(dp488
S'ADV'
p489
F0.0
sS'PRT'
p490
F0.999997
sS'ADP'
p491
F3e-06
s(lp492
(g71
I11
tp493
atp494
a(g95
(dp495
S'VERB'
p496
F0.246367
sS'NOUN'
p497
F0.753633
s(lp498
(g95
I12
tp499
atp500
a(g79
(dp501
S'VERB'
p502
F0.003188
sS'NOUN'
p503
F0.996812
s(lp504
(g79
I13
tp505
atp506
a(g203
(dp507
S'VERB'
p508
F1.0
s(lp509
(g203
I14
tp510
atp511
a(g105
(dp512
g107
F1.0
s(lp513
(g105
I15
tp514
atp515
a(g116
(dp516
S'ADP'
p517
F1.0
s(lp518
(g116
I16
tp519
atp520
a(g123
(dp521
S'ADV'
p522
F1e-06
sS'NOUN'
p523
F1.9e-05
sS'ADJ'
p524
F0.99998
s(lp525
(g123
I17
tp526
atp527
a(g131
(dp528
S'NOUN'
p529
F1.0
s(lp530
(g131
I18
tp531
atp532
a(g105
(dp533
g107
F1.0
s(lp534
(g105
I19
tp535
atp536
a(g142
(dp537
S'ADV'
p538
F1e-06
sS'PRT'
p539
F0.999999
sS'ADP'
p540
F0.0
s(lp541
(g142
I20
tp542
atp543
a(g149
(dp544
S'VERB'
p545
F1.0
s(lp546
(g149
I21
tp547
atp548
a(g158
(dp549
S'ADV'
p550
F0.00026
sS'DET'
p551
F0.712739
sS'ADP'
p552
F0.287
s(lp553
(g158
I22
tp554
atp555
a(g173
(dp556
S'VERB'
p557
F0.000404
sS'NOUN'
p558
F0.999596
s(lp559
(g173
I23
tp560
atp561
a(g195
(dp562
S'VERB'
p563
F1.0
s(lp564
(g195
I24
tp565
atp566
a(g212
(dp567
S'NOUN'
p568
F1.7e-05
sS'ADP'
p569
F0.999983
s(lp570
(g212
I25
tp571
atp572
a(g219
(dp573
S'VERB'
p574
F1.0
s(lp575
(g219
I26
tp576
atp577
a(g228
(dp578
S'NOUN'
p579
F8e-06
sS'DET'
p580
F0.999992
s(lp581
(g228
I27
tp582
atp583
a(g235
(dp584
S'NOUN'
p585
F1.0
s(lp586
(g235
I28
tp587
atp588
a(g243
(dp589
S'ADP'
p590
F1.0
s(lp591
(g243
I29
tp592
atp593
a(g251
(dp594
S'VERB'
p595
F2e-06
sS'NOUN'
p596
F0.999998
s(lp597
(g251
I30
tp598
atp599
a(g259
(dp600
S'VERB'
p601
F0.991952
sS'ADJ'
p602
F4e-06
sS'ADP'
p603
F0.008044
s(lp604
(g259
I31
tp605
atp606
a(g268
(dp607
S'NOUN'
p608
F1e-06
sS'DET'
p609
F0.999999
s(lp610
(g268
I32
tp611
atp612
a(g275
(dp613
S'NOUN'
p614
F1.0
s(lp615
(g275
I33
tp616
atp617
a(g283
(dp618
S'ADP'
p619
F1.0
s(lp620
(g283
I34
tp621
atp622
a(g290
(dp623
S'NOUN'
p624
F1.0
s(lp625
(g290
I35
tp626
atp627
a(S'should'
p628
(dp629
S'VERB'
p630
F1.0
s(lp631
(g628
I36
tp632
atp633
a(g297
(dp634
S'VERB'
p635
F1.0
s(lp636
(g297
I37
tp637
atp638
a(S'provided'
p639
(dp640
S'VERB'
p641
F1.0
s(lp642
(g639
I38
tp643
atp644
a(g304
(dp645
S'ADV'
p646
F0.956791
sS'NOUN'
p647
F0.000236
sS'ADJ'
p648
F0.042973
s(lp649
(g304
I39
tp650
atp651
a(S'to'
p652
(dp653
S'ADV'
p654
F1.8e-05
sS'PRT'
p655
F0.999971
sS'ADP'
p656
F1.1e-05
s(lp657
(g652
I40
tp658
atp659
a(g313
(dp660
S'VERB'
p661
F0.017492
sS'ADJ'
p662
F0.982508
s(lp663
(g313
I41
tp664
atp665
a(g325
(dp666
S'NOUN'
p667
F1.0
s(lp668
(g325
I42
tp669
atp670
a(g338
(dp671
S'CONJ'
p672
F1.0
sS'NOUN'
p673
F0.0
s(lp674
(g338
I43
tp675
atp676
a(g347
(dp677
S'ADV'
p678
F0.003119
sS'DET'
p679
F0.889111
sS'ADP'
p680
F0.10777
s(lp681
(g347
I44
tp682
atp683
a(S'such'
p684
(dp685
S'ADV'
p686
F1e-06
sS'DET'
p687
F0.000311
sS'ADJ'
p688
F0.999684
sS'ADP'
p689
F4e-06
s(lp690
(g684
I45
tp691
atp692
a(g354
(dp693
S'VERB'
p694
F6e-06
sS'NOUN'
p695
F0.999994
s(lp696
(g354
I46
tp697
atp698
a(S'should'
p699
(dp700
S'VERB'
p701
F1.0
s(lp702
(g699
I47
tp703
atp704
a(g374
(dp705
S'ADV'
p706
F1.0
s(lp707
(g374
I48
tp708
atp709
a(g366
(dp710
S'VERB'
p711
F1.0
s(lp712
(g366
I49
tp713
atp714
a(g381
(dp715
S'VERB'
p716
F0.999404
sS'ADJ'
p717
F0.000596
s(lp718
(g381
I50
tp719
atp720
a(S'to'
p721
(dp722
S'ADV'
p723
F1e-06
sS'PRT'
p724
F0.999992
sS'ADP'
p725
F7e-06
s(lp726
(g721
I51
tp727
atp728
a(S'the'
p729
(dp730
S'NOUN'
p731
F2e-06
sS'DET'
p732
F0.999998
s(lp733
(g729
I52
tp734
atp735
a(g393
(dp736
S'NOUN'
p737
F1.0
s(lp738
(g393
I53
tp739
atp740
a(g402
(dp741
S'ADP'
p742
F1.0
s(lp743
(g402
I54
tp744
atp745
a(g409
(dp746
S'ADV'
p747
F1e-06
sS'NOUN'
p748
F1.9e-05
sS'ADJ'
p749
F0.99998
s(lp750
(g409
I55
tp751
atp752
a(g416
(dp753
S'NOUN'
p754
F1.0
s(lp755
(g416
I56
tp756
atp757
a(g107
(dp758
g107
F1.0
s(lp759
(g107
I57
tp760
atp761
asS'nl'
p762
(lp763
(S'de'
p764
(dp765
S'DET'
p766
F1.0
s(lp767
(g9
I0
tp768
atp769
a(S'commissie'
p770
(dp771
S'NOUN'
p772
F1.0
s(lp773
(g16
I1
tp774
atp775
a(S'wijst'
p776
(dp777
S'VERB'
p778
F0.999999
sS'ADJ'
p779
F1e-06
s(lp780
tp781
a(S'erop'
p782
(dp783
S'ADV'
p784
F1.0
s(lp785
(g24
I2
tp786
atp787
a(S'dat'
p788
(dp789
S'PRON'
p790
F0.576986
sS'CONJ'
p791
F0.423014
s(lp792
(g33
I3
tp793
atp794
a(S'de'
p795
(dp796
S'DET'
p797
F1.0
s(lp798
(g187
I4
tp799
atp800
a(S'regelgeving'
p801
(dp802
S'NOUN'
p803
F1.0
s(lp804
(g49
I9
tp805
atp806
a(S'van'
p807
(dp808
S'ADP'
p809
F1.0
s(lp810
(g88
I6
tp811
atp812
a(S'de'
p813
(dp814
S'DET'
p815
F1.0
s(lp816
(g42
I7
tp817
atp818
a(S'gemeenschap'
p819
(dp820
S'NOUN'
p821
F1.0
s(lp822
(g56
I8
tp823
atp824
a(S'met'
p825
(dp826
S'ADP'
p827
F1.0
s(lp828
tp829
a(S'betrekking'
p830
(dp831
S'NOUN'
p832
F1.0
s(lp833
(g64
I10
tp834
atp835
a(S'tot'
p836
(dp837
S'CONJ'
p838
F8e-06
sS'ADP'
p839
F0.999992
s(lp840
(g71
I11
tp841
atp842
a(S'staatssteun'
p843
(dp844
S'NOUN'
p845
F1.0
s(lp846
(g95
I12
tp847
atp848
a(S'er'
p849
(dp850
S'ADV'
p851
F1.0
s(lp852
tp853
a(S'mede'
p854
(dp855
S'ADV'
p856
F0.999865
sS'NOUN'
p857
F0.000135
s(lp858
tp859
a(S'op'
p860
(dp861
S'ADV'
p862
F0.804104
sS'ADJ'
p863
F2.6e-05
sS'ADP'
p864
F0.19587
s(lp865
(g212
I25
tp866
atp867
a(S'gericht'
p868
(dp869
S'NOUN'
p870
F0.005392
sS'VERB'
p871
F0.929381
sS'ADJ'
p872
F0.065227
s(lp873
(g116
I16
tp874
atp875
a(S'is'
p876
(dp877
S'VERB'
p878
F1.0
s(lp879
(g203
I14
tp880
atp881
a(S'ervoor'
p882
(dp883
S'ADV'
p884
F1.0
s(lp885
tp886
a(S'te'
p887
(dp888
S'PRT'
p889
F1.0
s(lp890
(g142
I20
tp891
atp892
a(S'zorgen'
p893
(dp894
S'VERB'
p895
F0.994042
sS'NOUN'
p896
F0.005958
s(lp897
(g149
I21
tp898
atp899
a(S'dat'
p900
(dp901
S'PRON'
p902
F0.09669599999999999
sS'CONJ'
p903
F0.903305
s(lp904
(g158
I22
tp905
atp906
a(S'dergelijke'
p907
(dp908
S'NOUN'
p909
F0.004019
sS'ADJ'
p910
F0.995981
s(lp911
(g131
I18
tp912
atp913
a(S'steun'
p914
(dp915
S'VERB'
p916
F0.00086
sS'NOUN'
p917
F0.99914
s(lp918
(g173
I23
tp919
atp920
a(S'ter'
p921
(dp922
S'ADV'
p923
F1.8e-05
sS'ADP'
p924
F0.999982
s(lp925
(g195
I24
tp926
atp927
a(S'be\xc3\xafnvloeding'
p928
(dp929
S'NOUN'
p930
F1.0
s(lp931
(g219
I26
tp932
atp933
a(S'van'
p934
(dp935
S'ADP'
p936
F1.0
s(lp937
tp938
a(S'de'
p939
(dp940
S'DET'
p941
F1.0
s(lp942
(g228
I27
tp943
atp944
a(S'besluitvorming'
p945
(dp946
S'NOUN'
p947
F1.0
s(lp948
(g235
I28
tp949
atp950
a(S'van'
p951
(dp952
S'ADP'
p953
F1.0
s(lp954
(g243
I29
tp955
atp956
a(S'ondernemingen'
p957
(dp958
S'NOUN'
p959
F1.0
s(lp960
(g251
I30
tp961
atp962
a(S'over'
p963
(dp964
S'ADV'
p965
F0.907088
sS'ADP'
p966
F0.092912
s(lp967
(g259
I31
tp968
atp969
a(S'waar'
p970
(dp971
S'ADV'
p972
F0.999963
sS'ADJ'
p973
F1e-06
sS'NOUN'
p974
F3.6e-05
s(lp975
(g275
I33
tp976
atp977
a(S'zij'
p978
(dp979
S'PRON'
p980
F0.999999
sS'VERB'
p981
F1e-06
sS'NOUN'
p982
F0.0
s(lp983
(g628
I36
tp984
atp985
a(S'hun'
p986
(dp987
S'PRON'
p988
F1.0
s(lp989
(g268
I32
tp990
atp991
a(S'geld'
p992
(dp993
S'VERB'
p994
F1e-06
sS'NOUN'
p995
F0.999999
s(lp996
tp997
a(S'investeren'
p998
(dp999
S'VERB'
p1000
F0.996259
sS'NOUN'
p1001
F0.003741
s(lp1002
(g290
I35
tp1003
atp1004
a(S'alleen'
p1005
(dp1006
S'ADV'
p1007
F0.998034
sS'ADJ'
p1008
F0.001966
s(lp1009
(g304
I39
tp1010
atp1011
a(S'toegekend'
p1012
(dp1013
S'VERB'
p1014
F1.0
s(lp1015
(g639
I38
tp1016
atp1017
a(S'wordt'
p1018
(dp1019
S'VERB'
p1020
F1.0
s(lp1021
(g297
I37
tp1022
atp1023
a(S'in'
p1024
(dp1025
S'ADV'
p1026
F0.900064
sS'VERB'
p1027
F0.0
sS'ADP'
p1028
F0.099936
s(lp1029
(g652
I40
tp1030
atp1031
a(S'achtergestelde'
p1032
(dp1033
S'VERB'
p1034
F0.998805
sS'NOUN'
p1035
F0.001195
s(lp1036
(g313
I41
tp1037
atp1038
a(S'regio'
p1039
(dp1040
S'NOUN'
p1041
F1.0
s(lp1042
(g325
I42
tp1043
atp1044
a(S"'"
p1045
(dp1046
g107
F1.0
s(lp1047
tp1048
a(S's'
p1049
(dp1050
S'NOUN'
p1051
F1.0
s(lp1052
(g325
I42
tp1053
atp1054
a(S'en'
p1055
(dp1056
S'CONJ'
p1057
F1.0
s(lp1058
(g338
I43
tp1059
atp1060
a(S'dat'
p1061
(dp1062
S'PRON'
p1063
F0.058067
sS'CONJ'
p1064
F0.941933
s(lp1065
(g347
I44
tp1066
atp1067
a(S'deze'
p1068
(dp1069
S'PRON'
p1070
F1.0
s(lp1071
(g684
I45
tp1072
atp1073
a(S'steun'
p1074
(dp1075
S'VERB'
p1076
F0.003881
sS'NOUN'
p1077
F0.996119
s(lp1078
(g354
I46
tp1079
atp1080
a(S'nooit'
p1081
(dp1082
S'ADV'
p1083
F1.0
s(lp1084
(g374
I48
tp1085
atp1086
a(S'ten'
p1087
(dp1088
S'ADP'
p1089
F1.0
s(lp1090
(g393
I53
tp1091
atp1092
a(S'koste'
p1093
(dp1094
S'NOUN'
p1095
F1.0
s(lp1096
(g393
I53
tp1097
atp1098
a(S'mag'
p1099
(dp1100
S'VERB'
p1101
F1.0
s(lp1102
tp1103
a(S'gaan'
p1104
(dp1105
S'VERB'
p1106
F0.99983
sS'NOUN'
p1107
F0.00017
s(lp1108
(g393
I53
tp1109
atp1110
a(S'van'
p1111
(dp1112
S'ADP'
p1113
F1.0
s(lp1114
(g402
I54
tp1115
atp1116
a(S'andere'
p1117
(dp1118
S'NOUN'
p1119
F0.006679
sS'ADJ'
p1120
F0.993321
s(lp1121
(g409
I55
tp1122
atp1123
a(S'regio'
p1124
(dp1125
S'NOUN'
p1126
F1.0
s(lp1127
(g416
I56
tp1128
atp1129
a(g1045
(dp1130
g107
F1.0
s(lp1131
tp1132
a(g1049
(dp1133
S'NOUN'
p1134
F1.0
s(lp1135
(g416
I56
tp1136
atp1137
a(g107
(dp1138
g107
F1.0
s(lp1139
(g107
I57
tp1140
atp1141
asS'de'
p1142
(lp1143
(S'die'
p1144
(dp1145
S'PRON'
p1146
F0.007437
sS'DET'
p1147
F0.990678
s(lp1148
(g9
I0
tp1149
atp1150
a(S'kommission'
p1151
(dp1152
S'ADJ'
p1153
F0.054701
sS'NOUN'
p1154
F0.930703
s(lp1155
(g16
I1
tp1156
atp1157
a(S'bemerkt'
p1158
(dp1159
S'VERB'
p1160
F0.999999
s(lp1161
(g24
I2
tp1162
atp1163
a(g105
(dp1164
g107
F1.0
s(lp1165
tp1166
a(S'dass'
p1167
(dp1168
S'CONJ'
p1169
F1.0
s(lp1170
(g33
I3
tp1171
atp1172
a(S'das'
p1173
(dp1174
S'PRON'
p1175
F0.940309
sS'DET'
p1176
F0.057718
s(lp1177
(g187
I4
tp1178
atp1179
a(S'ziel'
p1180
(dp1181
S'VERB'
p1182
F1.0
s(lp1183
(g102
I5
tp1184
atp1185
a(S'der'
p1186
(dp1187
S'PRON'
p1188
F0.000445
sS'DET'
p1189
F0.999399
s(lp1190
(g42
I7
tp1191
atp1192
a(S'gemeinschaftsverordnungen'
p1193
(dp1194
S'ADJ'
p1195
F0.000138
sS'NOUN'
p1196
F0.999731
s(lp1197
(g49
I9
tp1198
atp1199
a(S'bez\xc3\xbcglich'
p1200
(dp1201
S'ADJ'
p1202
F0.04676
sS'ADP'
p1203
F0.95324
s(lp1204
(g64
I10
tp1205
atp1206
a(S'der'
p1207
(dp1208
S'PRON'
p1209
F5.3e-05
sS'DET'
p1210
F0.999932
s(lp1211
(g56
I8
tp1212
atp1213
a(S'staatshilfen'
p1214
(dp1215
S'ADJ'
p1216
F0.019328
sS'NOUN'
p1217
F0.962913
s(lp1218
(g95
I12
tp1219
atp1220
a(S'unter'
p1221
(dp1222
S'PRT'
p1223
F2e-06
sS'ADP'
p1224
F0.999998
s(lp1225
(g116
I16
tp1226
atp1227
a(S'anderem'
p1228
(dp1229
S'PRON'
p1230
F1.0
s(lp1231
(g131
I18
tp1232
atp1233
a(S'ist'
p1234
(dp1235
S'VERB'
p1236
F1.0
s(lp1237
(g203
I14
tp1238
atp1239
a(g105
(dp1240
g107
F1.0
s(lp1241
(g105
I19
tp1242
atp1243
a(S'sicherzustellen'
p1244
(dp1245
S'VERB'
p1246
F1.0
s(lp1247
(g149
I21
tp1248
atp1249
a(g105
(dp1250
g107
F1.0
s(lp1251
tp1252
a(S'dass'
p1253
(dp1254
S'CONJ'
p1255
F1.0
s(lp1256
(g158
I22
tp1257
atp1258
a(S'hilfe'
p1259
(dp1260
S'VERB'
p1261
F0.00467
sS'NOUN'
p1262
F0.991814
s(lp1263
(g173
I23
tp1264
atp1265
a(g105
(dp1266
g107
F1.0
s(lp1267
(g105
I15
tp1268
atp1269
a(S'die'
p1270
(dp1271
S'PRON'
p1272
F0.416092
sS'DET'
p1273
F0.518589
s(lp1274
(g195
I24
tp1275
atp1276
a(S'darauf'
p1277
(dp1278
S'ADV'
p1279
F0.999925
sS'PRT'
p1280
F7.5e-05
s(lp1281
tp1282
a(S'abzielt'
p1283
(dp1284
S'VERB'
p1285
F1.0
s(lp1286
(g195
I24
tp1287
atp1288
a(g105
(dp1289
g107
F1.0
s(lp1290
tp1291
a(S'die'
p1292
(dp1293
S'PRON'
p1294
F0.116968
sS'DET'
p1295
F0.881889
s(lp1296
(g228
I27
tp1297
atp1298
a(S'entscheidungen'
p1299
(dp1300
S'ADJ'
p1301
F0.004393
sS'NOUN'
p1302
F0.995156
s(lp1303
(g235
I28
tp1304
atp1305
a(S'von'
p1306
(dp1307
S'NOUN'
p1308
F0.995669
sS'ADP'
p1309
F0.004331
s(lp1310
(g243
I29
tp1311
atp1312
a(S'unternehmen'
p1313
(dp1314
S'VERB'
p1315
F1.0
s(lp1316
(g251
I30
tp1317
atp1318
a(S'bez\xc3\xbcglich'
p1319
(dp1320
S'ADJ'
p1321
F0.062282
sS'ADP'
p1322
F0.937718
s(lp1323
(g259
I31
tp1324
atp1325
a(S'des'
p1326
(dp1327
S'DET'
p1328
F1.0
s(lp1329
(g268
I32
tp1330
atp1331
a(S'investitionsorts'
p1332
(dp1333
S'ADJ'
p1334
F0.00022
sS'NOUN'
p1335
F0.999769
s(lp1336
(g275
I33
tp1337
atp1338
a(S'zu'
p1339
(dp1340
S'PRT'
p1341
F0.999974
s(lp1342
(g212
I25
tp1343
atp1344
a(S'beeinflussen'
p1345
(dp1346
S'VERB'
p1347
F1.0
s(lp1348
(g219
I26
tp1349
atp1350
a(g105
(dp1351
g107
F1.0
s(lp1352
tp1353
a(S'nur'
p1354
(dp1355
S'ADV'
p1356
F1.0
s(lp1357
(g304
I39
tp1358
atp1359
a(S'benachteiligten'
p1360
(dp1361
S'VERB'
p1362
F0.039455
sS'ADJ'
p1363
F0.960545
s(lp1364
(g313
I41
tp1365
atp1366
a(S'regionen'
p1367
(dp1368
S'ADJ'
p1369
F0.000295
sS'NOUN'
p1370
F0.999662
s(lp1371
(g325
I42
tp1372
atp1373
a(S'zur'
p1374
(dp1375
S'ADP'
p1376
F1.0
s(lp1377
(g639
I38
tp1378
atp1379
a(S'verf\xc3\xbcgung'
p1380
(dp1381
S'ADJ'
p1382
F8.3e-05
sS'NOUN'
p1383
F0.999851
s(lp1384
tp1385
a(S'gestellt'
p1386
(dp1387
S'VERB'
p1388
F0.996467
sS'ADJ'
p1389
F0.003533
s(lp1390
(g639
I38
tp1391
atp1392
a(S'und'
p1393
(dp1394
S'CONJ'
p1395
F1.0
s(lp1396
(g338
I43
tp1397
atp1398
a(S'solche'
p1399
(dp1400
S'PRON'
p1401
F1.0
s(lp1402
(g684
I45
tp1403
atp1404
a(S'hilfe'
p1405
(dp1406
S'VERB'
p1407
F0.001183
sS'NOUN'
p1408
F0.99772
s(lp1409
(g354
I46
tp1410
atp1411
a(S'nicht'
p1412
(dp1413
S'PRT'
p1414
F1.0
s(lp1415
(g374
I48
tp1416
atp1417
a(S'zum'
p1418
(dp1419
S'ADP'
p1420
F1.0
s(lp1421
tp1422
a(S'nachteil'
p1423
(dp1424
S'ADJ'
p1425
F0.048856
sS'NOUN'
p1426
F0.937392
s(lp1427
(g393
I53
tp1428
atp1429
a(S'anderer'
p1430
(dp1431
S'PRON'
p1432
F1.0
s(lp1433
(g409
I55
tp1434
atp1435
a(S'regionen'
p1436
(dp1437
S'ADJ'
p1438
F0.00157
sS'NOUN'
p1439
F0.998332
s(lp1440
(g416
I56
tp1441
atp1442
a(S'verwendet'
p1443
(dp1444
S'VERB'
p1445
F1.0
s(lp1446
(g381
I50
tp1447
atp1448
a(S'werden'
p1449
(dp1450
S'VERB'
p1451
F0.999998
s(lp1452
(g366
I49
tp1453
atp1454
a(S'sollte'
p1455
(dp1456
S'VERB'
p1457
F1.0
s(lp1458
(g628
I36
tp1459
atp1460
a(g107
(dp1461
g107
F1.0
s(lp1462
(g107
I57
tp1463
atp1464
asS'it'
p1465
(lp1466
(S'la'
p1467
(dp1468
S'PRON'
p1469
F0.000408
sS'DET'
p1470
F0.999592
s(lp1471
(g9
I0
tp1472
atp1473
a(S'commissione'
p1474
(dp1475
S'NOUN'
p1476
F1.0
s(lp1477
(g16
I1
tp1478
atp1479
a(S'osserva'
p1480
(dp1481
S'VERB'
p1482
F1.0
s(lp1483
(g24
I2
tp1484
atp1485
a(S'che'
p1486
(dp1487
S'PRON'
p1488
F0.985018
sS'CONJ'
p1489
F0.014372
sS'ADJ'
p1490
F0.00061
s(lp1491
(g33
I3
tp1492
atp1493
a(S'lo'
p1494
(dp1495
S'PRON'
p1496
F0.062247
sS'DET'
p1497
F0.937753
s(lp1498
tp1499
a(S'scopo'
p1500
(dp1501
S'VERB'
p1502
F0.031881
sS'NOUN'
p1503
F0.968119
s(lp1504
(g102
I5
tp1505
atp1506
a(S'dei'
p1507
(dp1508
S'NOUN'
p1509
F1e-06
sS'DEF'
p1510
F0.002632
sS'ADP'
p1511
F0.997367
s(lp1512
(g88
I6
tp1513
atp1514
a(S'regolamenti'
p1515
(dp1516
S'VERB'
p1517
F5.8e-05
sS'NOUN'
p1518
F0.999942
s(lp1519
(g49
I9
tp1520
atp1521
a(S'comunitari'
p1522
(dp1523
S'ADJ'
p1524
F0.209434
sS'NOUN'
p1525
F0.790566
s(lp1526
(g56
I8
tp1527
atp1528
a(S'concernenti'
p1529
(dp1530
S'VERB'
p1531
F1.0
s(lp1532
(g64
I10
tp1533
atp1534
a(S'gli'
p1535
(dp1536
S'PRON'
p1537
F0.000205
sS'DET'
p1538
F0.999795
s(lp1539
tp1540
a(S'aiuti'
p1541
(dp1542
S'VERB'
p1543
F0.000411
sS'NOUN'
p1544
F0.999589
s(lp1545
(g79
I13
tp1546
atp1547
a(S'di'
p1548
(dp1549
S'CONJ'
p1550
F7e-06
sS'ADP'
p1551
F0.999993
s(lp1552
tp1553
a(S'stato'
p1554
(dp1555
S'VERB'
p1556
F0.012802
sS'NOUN'
p1557
F0.987198
s(lp1558
(g95
I12
tp1559
atp1560
a(S'\xc3\xa8'
p1561
(dp1562
S'VERB'
p1563
F1.0
s(lp1564
(g203
I14
tp1565
atp1566
a(g105
(dp1567
g107
F1.0
s(lp1568
(g105
I15
tp1569
atp1570
a(S'tra'
p1571
(dp1572
S'CONJ'
p1573
F0.003543
sS'ADP'
p1574
F0.996457
s(lp1575
(g116
I16
tp1576
atp1577
a(S"l'"
p1578
(dp1579
S'NOUN'
p1580
F0.010299
sS'VERB'
p1581
F0.964873
sS'ADJ'
p1582
F0.024828
s(lp1583
(g131
I18
tp1584
atp1585
a(S'altro'
p1586
(dp1587
S'ADV'
p1588
F0.11475
sS'PRON'
p1589
F0.329144
sS'ADJ'
p1590
F0.529894
sS'NOUN'
p1591
F0.026213
s(lp1592
(g123
I17
tp1593
atp1594
a(g105
(dp1595
g107
F1.0
s(lp1596
(g105
I19
tp1597
atp1598
a(S'quello'
p1599
(dp1600
S'PRON'
p1601
F1.0
s(lp1602
tp1603
a(S'di'
p1604
(dp1605
S'CONJ'
p1606
F1e-06
sS'ADP'
p1607
F0.999999
s(lp1608
(g142
I20
tp1609
atp1610
a(S'garantire'
p1611
(dp1612
S'VERB'
p1613
F1.0
s(lp1614
(g149
I21
tp1615
atp1616
a(S'che'
p1617
(dp1618
S'PRON'
p1619
F0.993762
sS'CONJ'
p1620
F0.006039
sS'ADJ'
p1621
F0.000199
s(lp1622
(g158
I22
tp1623
atp1624
a(S'gli'
p1625
(dp1626
S'PRON'
p1627
F0.002404
sS'DET'
p1628
F0.997596
s(lp1629
tp1630
a(S'aiuti'
p1631
(dp1632
S'VERB'
p1633
F0.000117
sS'NOUN'
p1634
F0.999884
s(lp1635
(g173
I23
tp1636
atp1637
a(S'miranti'
p1638
(dp1639
S'VERB'
p1640
F1.0
s(lp1641
(g195
I24
tp1642
atp1643
a(S'a'
p1644
(dp1645
S'CONJ'
p1646
F7.1e-05
sS'ADP'
p1647
F0.999929
s(lp1648
(g212
I25
tp1649
atp1650
a(S'influenzare'
p1651
(dp1652
S'VERB'
p1653
F1.0
s(lp1654
(g219
I26
tp1655
atp1656
a(S'le'
p1657
(dp1658
S'PRON'
p1659
F0.0
sS'DET'
p1660
F1.0
s(lp1661
(g228
I27
tp1662
atp1663
a(S'decisioni'
p1664
(dp1665
S'NOUN'
p1666
F1.0
s(lp1667
(g235
I28
tp1668
atp1669
a(S'delle'
p1670
(dp1671
S'DEF'
p1672
F0.001047
sS'ADP'
p1673
F0.998953
s(lp1674
(g243
I29
tp1675
atp1676
a(S'imprese'
p1677
(dp1678
S'VERB'
p1679
F0.001435
sS'NOUN'
p1680
F0.998565
s(lp1681
(g251
I30
tp1682
atp1683
a(S'in'
p1684
(dp1685
S'ADP'
p1686
F1.0
s(lp1687
tp1688
a(S'materia'
p1689
(dp1690
S'NOUN'
p1691
F1.0
s(lp1692
(g259
I31
tp1693
atp1694
a(S'di'
p1695
(dp1696
S'CONJ'
p1697
F4e-06
sS'ADP'
p1698
F0.999996
s(lp1699
tp1700
a(S'destinazione'
p1701
(dp1702
S'NOUN'
p1703
F1.0
s(lp1704
tp1705
a(S'geografica'
p1706
(dp1707
S'ADJ'
p1708
F1.0
s(lp1709
(g275
I33
tp1710
atp1711
a(S'degli'
p1712
(dp1713
S'DEF'
p1714
F0.003077
sS'ADP'
p1715
F0.996923
s(lp1716
tp1717
a(S'investimenti'
p1718
(dp1719
S'NOUN'
p1720
F1.0
s(lp1721
(g290
I35
tp1722
atp1723
a(S'vengano'
p1724
(dp1725
S'VERB'
p1726
F1.0
s(lp1727
(g297
I37
tp1728
atp1729
a(S'indirizzati'
p1730
(dp1731
S'VERB'
p1732
F1.0
s(lp1733
(g639
I38
tp1734
atp1735
a(S'solo'
p1736
(dp1737
S'ADV'
p1738
F0.9408
sS'NOUN'
p1739
F0.00458
sS'VERB'
p1740
F6e-06
sS'ADJ'
p1741
F0.054614
s(lp1742
(g304
I39
tp1743
atp1744
a(S'alle'
p1745
(dp1746
S'ADP'
p1747
F1.0
s(lp1748
(g652
I40
tp1749
atp1750
a(S'regioni'
p1751
(dp1752
S'NOUN'
p1753
F1.0
s(lp1754
(g325
I42
tp1755
atp1756
a(S'svantaggiate'
p1757
(dp1758
S'VERB'
p1759
F0.200594
sS'ADJ'
p1760
F0.799408
s(lp1761
(g313
I41
tp1762
atp1763
a(g105
(dp1764
g107
F1.0
s(lp1765
tp1766
a(S'e'
p1767
(dp1768
S'CONJ'
p1769
F1.0
s(lp1770
(g338
I43
tp1771
atp1772
a(S'non'
p1773
(dp1774
S'ADV'
p1775
F1.0
s(lp1776
(g374
I48
tp1777
atp1778
a(S'vengano'
p1779
(dp1780
S'VERB'
p1781
F1.0
s(lp1782
(g366
I49
tp1783
atp1784
a(S'utilizzati'
p1785
(dp1786
S'VERB'
p1787
F1.0
s(lp1788
(g381
I50
tp1789
atp1790
a(g1644
(dp1791
S'CONJ'
p1792
F7.4e-05
sS'ADP'
p1793
F0.999926
s(lp1794
(g721
I51
tp1795
atp1796
a(S'detrimento'
p1797
(dp1798
S'NOUN'
p1799
F1.0
s(lp1800
(g393
I53
tp1801
atp1802
a(S'di'
p1803
(dp1804
S'CONJ'
p1805
F2.9e-05
sS'ADP'
p1806
F0.999971
s(lp1807
(g402
I54
tp1808
atp1809
a(S'altre'
p1810
(dp1811
S'PRON'
p1812
F0.759469
sS'ADJ'
p1813
F0.240531
s(lp1814
(g409
I55
tp1815
atp1816
a(S'regioni'
p1817
(dp1818
S'NOUN'
p1819
F1.0
s(lp1820
(g416
I56
tp1821
atp1822
a(g107
(dp1823
g107
F1.0
s(lp1824
(g107
I57
tp1825
atp1826
asS'sk'
p1827
(lp1828
(S'komisia'
p1829
(dp1830
S'NOUN'
p1831
F1.0
s(lp1832
(g16
I1
tp1833
atp1834
a(S'upozor\xc5\x88uje'
p1835
(dp1836
S'VERB'
p1837
F1.0
s(lp1838
(g24
I2
tp1839
atp1840
a(g105
(dp1841
g107
F1.0
s(lp1842
tp1843
a(S'\xc5\xbee'
p1844
(dp1845
S'X'
p1846
F0.000328
sS'CONJ'
p1847
F0.999672
s(lp1848
(g33
I3
tp1849
atp1850
a(S'cie\xc4\xbeom'
p1851
(dp1852
S'NOUN'
p1853
F1.0
s(lp1854
(g102
I5
tp1855
atp1856
a(S'nariaden\xc3\xad'
p1857
(dp1858
S'NOUN'
p1859
F1.0
s(lp1860
(g49
I9
tp1861
atp1862
a(S'spolo\xc4\x8denstva'
p1863
(dp1864
S'NOUN'
p1865
F1.0
s(lp1866
(g56
I8
tp1867
atp1868
a(g105
(dp1869
g107
F1.0
s(lp1870
tp1871
a(S'ktor\xc3\xa9'
p1872
(dp1873
S'PRON'
p1874
F1.0
s(lp1875
tp1876
a(S's\xc3\xbavisia'
p1877
(dp1878
S'VERB'
p1879
F1.0
s(lp1880
(g64
I10
tp1881
atp1882
a(S'so'
p1883
(dp1884
g1846
F0.00010599999999999999
sS'ADP'
p1885
F0.999894
s(lp1886
(g71
I11
tp1887
atp1888
a(S'\xc5\xa1t\xc3\xa1tnou'
p1889
(dp1890
S'ADJ'
p1891
F1.0
s(lp1892
(g95
I12
tp1893
atp1894
a(S'podporou'
p1895
(dp1896
S'NOUN'
p1897
F1.0
s(lp1898
(g79
I13
tp1899
atp1900
a(g105
(dp1901
g107
F1.0
s(lp1902
(g105
I15
tp1903
atp1904
a(S'je'
p1905
(dp1906
g1846
F0.000222
sS'VERB'
p1907
F0.999735
sS'PRON'
p1908
F4.3e-05
s(lp1909
(g203
I14
tp1910
atp1911
a(S'okrem'
p1912
(dp1913
S'ADP'
p1914
F1.0
s(lp1915
(g116
I16
tp1916
atp1917
a(S'in\xc3\xa9ho'
p1918
(dp1919
S'PRON'
p1920
F0.998312
sS'NOUN'
p1921
F0.001688
s(lp1922
(g131
I18
tp1923
atp1924
a(S'zabezpe\xc4\x8di\xc5\xa5'
p1925
(dp1926
S'VERB'
p1927
F1.0
s(lp1928
(g149
I21
tp1929
atp1930
a(g105
(dp1931
g107
F1.0
s(lp1932
tp1933
a(S'aby'
p1934
(dp1935
g1846
F0.00025
sS'CONJ'
p1936
F0.99975
s(lp1937
(g158
I22
tp1938
atp1939
a(S'pomoc'
p1940
(dp1941
S'VERB'
p1942
F1.1e-05
sS'NOUN'
p1943
F0.999989
s(lp1944
(g173
I23
tp1945
atp1946
a(g105
(dp1947
g107
F1.0
s(lp1948
tp1949
a(S'ktorej'
p1950
(dp1951
S'PRON'
p1952
F1.0
s(lp1953
(g195
I24
tp1954
atp1955
a(S'cie\xc4\xbeom'
p1956
(dp1957
S'NOUN'
p1958
F1.0
s(lp1959
tp1960
a(S'je'
p1961
(dp1962
S'PRON'
p1963
F1e-05
sS'VERB'
p1964
F0.999982
sg1846
F7e-06
s(lp1965
(g195
I24
tp1966
atp1967
a(S'ovplyvni\xc5\xa5'
p1968
(dp1969
S'VERB'
p1970
F1.0
s(lp1971
(g219
I26
tp1972
atp1973
a(S'rozhodovanie'
p1974
(dp1975
S'NOUN'
p1976
F1.0
s(lp1977
(g235
I28
tp1978
atp1979
a(S'spolo\xc4\x8dnost\xc3\xad'
p1980
(dp1981
S'NOUN'
p1982
F1.0
s(lp1983
(g251
I30
tp1984
atp1985
a(S'o'
p1986
(dp1987
g1846
F0.000232
sS'CONJ'
p1988
F5.1e-05
sS'NOUN'
p1989
F4.3e-05
sS'ADP'
p1990
F0.999674
s(lp1991
(g259
I31
tp1992
atp1993
a(S'umiestnen\xc3\xad'
p1994
(dp1995
S'VERB'
p1996
F0.729031
sS'NOUN'
p1997
F0.270969
s(lp1998
(g275
I33
tp1999
atp2000
a(S'invest\xc3\xadci\xc3\xad'
p2001
(dp2002
S'NOUN'
p2003
F1.0
s(lp2004
(g290
I35
tp2005
atp2006
a(g105
(dp2007
g107
F1.0
s(lp2008
tp2009
a(S'bola'
p2010
(dp2011
S'VERB'
p2012
F0.999999
s(lp2013
(g297
I37
tp2014
atp2015
a(S'poskytovan\xc3\xa1'
p2016
(dp2017
S'VERB'
p2018
F1.0
s(lp2019
(g639
I38
tp2020
atp2021
a(S'len'
p2022
(dp2023
g1846
F0.936712
sS'CONJ'
p2024
F0.063288
s(lp2025
(g304
I39
tp2026
atp2027
a(S'znev\xc3\xbdhodnen\xc3\xbdm'
p2028
(dp2029
S'NOUN'
p2030
F0.004098
sS'VERB'
p2031
F0.396056
sS'ADJ'
p2032
F0.599845
s(lp2033
(g313
I41
tp2034
atp2035
a(S'regi\xc3\xb3nom'
p2036
(dp2037
S'NOUN'
p2038
F1.0
s(lp2039
(g325
I42
tp2040
atp2041
a(g1644
(dp2042
g1846
F4.599999999999999e-05
sS'CONJ'
p2043
F0.999949
sS'NOUN'
p2044
F6e-06
sS'ADP'
p2045
F0.0
sS'PRT'
p2046
F0.0
s(lp2047
(g338
I43
tp2048
atp2049
a(S'aby'
p2050
(dp2051
g1846
F5.4999999999999995e-05
sS'CONJ'
p2052
F0.999945
s(lp2053
(g347
I44
tp2054
atp2055
a(S'tak\xc3\xa1to'
p2056
(dp2057
S'PRON'
p2058
F1.0
s(lp2059
(g684
I45
tp2060
atp2061
a(S'pomoc'
p2062
(dp2063
S'VERB'
p2064
F2e-06
sS'NOUN'
p2065
F0.999998
s(lp2066
(g354
I46
tp2067
atp2068
a(S'nebola'
p2069
(dp2070
S'VERB'
p2071
F0.9999999999999999
s(lp2072
(g374
I48
tp2073
atp2074
a(S'pou\xc5\xbeit\xc3\xa1'
p2075
(dp2076
S'VERB'
p2077
F1.0
s(lp2078
(g381
I50
tp2079
atp2080
a(S'na'
p2081
(dp2082
g1846
F0.000119
sS'CONJ'
p2083
F1.5e-05
sS'ADP'
p2084
F0.999865
sS'PRT'
p2085
F2e-06
s(lp2086
(g721
I51
tp2087
atp2088
a(S'\xc5\xa1kodu'
p2089
(dp2090
S'NOUN'
p2091
F1.0
s(lp2092
(g393
I53
tp2093
atp2094
a(S'in\xc3\xbdch'
p2095
(dp2096
S'PRON'
p2097
F0.999984
sS'NOUN'
p2098
F1.6e-05
s(lp2099
(g409
I55
tp2100
atp2101
a(S'regi\xc3\xb3nov'
p2102
(dp2103
S'NOUN'
p2104
F1.0
s(lp2105
(g416
I56
tp2106
atp2107
a(g107
(dp2108
g107
F1.0
s(lp2109
(g107
I57
tp2110
atp2111
asS'pl'
p2112
(lp2113
(S'komisja'
p2114
(dp2115
S'NOUN'
p2116
F1.0
s(lp2117
(g16
I1
tp2118
atp2119
a(S'odnotowuje'
p2120
(dp2121
S'VERB'
p2122
F1.0
s(lp2123
(g24
I2
tp2124
atp2125
a(g105
(dp2126
g1846
F0.0
sg107
F1.0
s(lp2127
tp2128
a(S'\xc5\xbce'
p2129
(dp2130
S'PRT'
p2131
F0.000709
sS'CONJ'
p2132
F0.9992920000000001
s(lp2133
(g33
I3
tp2134
atp2135
a(S'celem'
p2136
(dp2137
S'NOUN'
p2138
F0.595573
sS'ADP'
p2139
F0.404427
s(lp2140
(g102
I5
tp2141
atp2142
a(S'rozporz\xc4\x85dze\xc5\x84'
p2143
(dp2144
S'NOUN'
p2145
F1.0
s(lp2146
(g49
I9
tp2147
atp2148
a(S'wsp\xc3\xb3lnotowych'
p2149
(dp2150
S'ADV'
p2151
F0.000209
sS'NOUN'
p2152
F0.172913
sS'VERB'
p2153
F0.0010890000000000001
sS'ADJ'
p2154
F0.8257869999999999
s(lp2155
(g56
I8
tp2156
atp2157
a(S'odnosz\xc4\x85cych'
p2158
(dp2159
S'ADV'
p2160
F0.001631
sS'ADJ'
p2161
F0.09120299999999996
sS'VERB'
p2162
F0.6917129999999998
sS'NOUN'
p2163
F0.21545600000000004
s(lp2164
tp2165
a(S'si\xc4\x99'
p2166
(dp2167
S'PRT'
p2168
F1.0
s(lp2169
(g64
I10
tp2170
atp2171
a(S'do'
p2172
(dp2173
g1846
F0.0
sS'NOUN'
p2174
F6e-06
sS'ADP'
p2175
F0.9999939999999999
s(lp2176
(g71
I11
tp2177
atp2178
a(S'pomocy'
p2179
(dp2180
S'NOUN'
p2181
F0.999999
s(lp2182
(g79
I13
tp2183
atp2184
a(S'pa\xc5\x84stwa'
p2185
(dp2186
S'NOUN'
p2187
F0.999999
s(lp2188
(g95
I12
tp2189
atp2190
a(S'jest'
p2191
(dp2192
S'VERB'
p2193
F1.0
s(lp2194
(g203
I14
tp2195
atp2196
a(S'mi\xc4\x99dzy'
p2197
(dp2198
S'ADP'
p2199
F1.0
s(lp2200
(g116
I16
tp2201
atp2202
a(S'innymi'
p2203
(dp2204
S'NOUN'
p2205
F0.046089
sS'ADJ'
p2206
F0.9539120000000001
s(lp2207
(g123
I17
tp2208
atp2209
a(S'zagwarantowanie'
p2210
(dp2211
S'VERB'
p2212
F1.0
s(lp2213
(g149
I21
tp2214
atp2215
a(g105
(dp2216
g1846
F0.0
sg107
F1.0
s(lp2217
tp2218
a(S'\xc5\xbce'
p2219
(dp2220
S'PRT'
p2221
F9.9e-05
sS'CONJ'
p2222
F0.9999009999999999
s(lp2223
(g158
I22
tp2224
atp2225
a(S'pomoc'
p2226
(dp2227
S'NOUN'
p2228
F1.0
s(lp2229
(g173
I23
tp2230
atp2231
a(S'maj\xc4\x85ca'
p2232
(dp2233
S'VERB'
p2234
F1.0
s(lp2235
(g195
I24
tp2236
atp2237
a(S'wp\xc5\x82ywa\xc4\x87'
p2238
(dp2239
S'VERB'
p2240
F1.0
s(lp2241
tp2242
a(S'na'
p2243
(dp2244
g1846
F2.7e-05
sS'VERB'
p2245
F6e-06
sS'NOUN'
p2246
F1e-06
sS'ADP'
p2247
F0.999947
sS'PRT'
p2248
F1.9e-05
s(lp2249
(g219
I26
tp2250
atp2251
a(S'decyzje'
p2252
(dp2253
S'NOUN'
p2254
F1.0
s(lp2255
(g235
I28
tp2256
atp2257
a(S'przedsi\xc4\x99biorstw'
p2258
(dp2259
S'NOUN'
p2260
F1.0
s(lp2261
(g251
I30
tp2262
atp2263
a(S'w'
p2264
(dp2265
S'ADJ'
p2266
F0.0
sg1846
F0.0
sS'NOUN'
p2267
F0.0
sS'ADP'
p2268
F1.0
s(lp2269
tp2270
a(S'sprawie'
p2271
(dp2272
S'NOUN'
p2273
F1.0
s(lp2274
(g259
I31
tp2275
atp2276
a(S'lokalizacji'
p2277
(dp2278
S'NOUN'
p2279
F1.0
s(lp2280
(g275
I33
tp2281
atp2282
a(S'inwestycji'
p2283
(dp2284
S'NOUN'
p2285
F0.9999999999999999
s(lp2286
(g290
I35
tp2287
atp2288
a(S'powinna'
p2289
(dp2290
S'VERB'
p2291
F1.0
s(lp2292
(g628
I36
tp2293
atp2294
a(S'by\xc4\x87'
p2295
(dp2296
S'VERB'
p2297
F1.0
s(lp2298
(g297
I37
tp2299
atp2300
a(S'udzielana'
p2301
(dp2302
S'ADV'
p2303
F0.004849
sS'NOUN'
p2304
F0.26864
sS'VERB'
p2305
F0.524983
sS'ADJ'
p2306
F0.201527
s(lp2307
(g639
I38
tp2308
atp2309
a(S'tylko'
p2310
(dp2311
S'PRT'
p2312
F0.567942
sS'CONJ'
p2313
F0.432058
s(lp2314
(g304
I39
tp2315
atp2316
a(g2264
(dp2317
S'ADJ'
p2318
F0.0
sg1846
F0.0
sS'NOUN'
p2319
F0.0
sS'ADP'
p2320
F0.999999
s(lp2321
(g652
I40
tp2322
atp2323
a(S'regionach'
p2324
(dp2325
S'NOUN'
p2326
F1.0
s(lp2327
(g325
I42
tp2328
atp2329
a(S'b\xc4\x99d\xc4\x85cych'
p2330
(dp2331
S'VERB'
p2332
F1.000001
s(lp2333
(g313
I41
tp2334
atp2335
a(g2264
(dp2336
S'ADJ'
p2337
F0.0
sg1846
F0.0
sS'NOUN'
p2338
F0.0
sS'ADP'
p2339
F1.0
s(lp2340
(g313
I41
tp2341
atp2342
a(S'niekorzystnym'
p2343
(dp2344
S'ADJ'
p2345
F1.0
s(lp2346
tp2347
a(S'po\xc5\x82o\xc5\xbceniu'
p2348
(dp2349
S'VERB'
p2350
F0.004893
sS'NOUN'
p2351
F0.995107
s(lp2352
(g313
I41
tp2353
atp2354
a(S'i'
p2355
(dp2356
S'PRT'
p2357
F0.013925
sS'CONJ'
p2358
F0.986028
sS'NOUN'
p2359
F2.2999999999999997e-05
sg1846
F8e-06
sS'PRON'
p2360
F1.5e-05
s(lp2361
(g338
I43
tp2362
atp2363
a(S'nie'
p2364
(dp2365
S'ADV'
p2366
F9e-06
sS'PRT'
p2367
F0.998541
sS'CONJ'
p2368
F0.001437
sS'NOUN'
p2369
F5e-06
sS'PRON'
p2370
F9e-06
s(lp2371
(g374
I48
tp2372
atp2373
a(S'powinna'
p2374
(dp2375
S'VERB'
p2376
F1.0
s(lp2377
(g699
I47
tp2378
atp2379
a(S'by\xc4\x87'
p2380
(dp2381
S'VERB'
p2382
F1.0
s(lp2383
(g366
I49
tp2384
atp2385
a(S'wykorzystywana'
p2386
(dp2387
S'VERB'
p2388
F1.0
s(lp2389
(g381
I50
tp2390
atp2391
a(S'na'
p2392
(dp2393
S'PRT'
p2394
F1e-06
sS'VERB'
p2395
F7.4e-05
sS'NOUN'
p2396
F0.0
sS'ADP'
p2397
F0.999925
sg1846
F0.0
s(lp2398
(g721
I51
tp2399
atp2400
a(S'niekorzy\xc5\x9b\xc4\x87'
p2401
(dp2402
S'NOUN'
p2403
F1.0
s(lp2404
(g393
I53
tp2405
atp2406
a(S'innych'
p2407
(dp2408
S'NOUN'
p2409
F0.003087
sS'ADJ'
p2410
F0.9969139999999999
s(lp2411
(g409
I55
tp2412
atp2413
a(S'region\xc3\xb3w'
p2414
(dp2415
S'NOUN'
p2416
F1.0
s(lp2417
(g416
I56
tp2418
atp2419
a(g107
(dp2420
g107
F1.0
s(lp2421
(g107
I57
tp2422
atp2423
asS'sl'
p2424
(lp2425
(S'komisija'
p2426
(dp2427
S'NOUN'
p2428
F1.0
s(lp2429
(g16
I1
tp2430
atp2431
a(S'opozarja'
p2432
(dp2433
S'VERB'
p2434
F1.0
s(lp2435
(g24
I2
tp2436
atp2437
a(g105
(dp2438
g107
F1.0
s(lp2439
tp2440
a(S'da'
p2441
(dp2442
S'PRT'
p2443
F4e-06
sS'CONJ'
p2444
F0.999979
sS'VERB'
p2445
F1.7e-05
sg1846
F1e-06
s(lp2446
(g33
I3
tp2447
atp2448
a(S'je'
p2449
(dp2450
S'PRON'
p2451
F0.003459
sS'VERB'
p2452
F0.99654
sg1846
F1e-06
s(lp2453
(g187
I4
tp2454
atp2455
a(S'cilj'
p2456
(dp2457
S'NOUN'
p2458
F1.0
s(lp2459
(g102
I5
tp2460
atp2461
a(S'predpisov'
p2462
(dp2463
S'NOUN'
p2464
F1.0
s(lp2465
(g49
I9
tp2466
atp2467
a(S'skupnosti'
p2468
(dp2469
S'NOUN'
p2470
F1.0
s(lp2471
(g56
I8
tp2472
atp2473
a(g105
(dp2474
g107
F1.0
s(lp2475
tp2476
a(S'ki'
p2477
(dp2478
S'CONJ'
p2479
F1.0
s(lp2480
tp2481
a(S'zadevajo'
p2482
(dp2483
S'VERB'
p2484
F1.0
s(lp2485
(g64
I10
tp2486
atp2487
a(S'dr\xc5\xbeavno'
p2488
(dp2489
S'ADV'
p2490
F0.001597
sS'ADJ'
p2491
F0.998403
s(lp2492
(g95
I12
tp2493
atp2494
a(S'podporo'
p2495
(dp2496
S'NOUN'
p2497
F1.0
s(lp2498
(g79
I13
tp2499
atp2500
a(g105
(dp2501
g107
F1.0
s(lp2502
(g105
I15
tp2503
atp2504
a(S'med'
p2505
(dp2506
S'NOUN'
p2507
F0.000133
sS'ADP'
p2508
F0.999867
s(lp2509
(g116
I16
tp2510
atp2511
a(S'drugim'
p2512
(dp2513
S'NUM'
p2514
F1.000002
s(lp2515
(g123
I17
tp2516
atp2517
a(S'zagotavljanje'
p2518
(dp2519
S'NOUN'
p2520
F1.0
s(lp2521
(g149
I21
tp2522
atp2523
a(g105
(dp2524
g107
F1.0
s(lp2525
tp2526
a(S'da'
p2527
(dp2528
S'PRT'
p2529
F5e-06
sS'CONJ'
p2530
F0.99997
sS'VERB'
p2531
F2.4e-05
sg1846
F1e-06
s(lp2532
(g158
I22
tp2533
atp2534
a(S'se'
p2535
(dp2536
S'PRON'
p2537
F0.999985
sg1846
F1.5e-05
s(lp2538
tp2539
a(S'pomo\xc4\x8d'
p2540
(dp2541
S'NOUN'
p2542
F1.0
s(lp2543
(g173
I23
tp2544
atp2545
a(g105
(dp2546
g107
F1.0
s(lp2547
tp2548
a(S'namenjeno'
p2549
(dp2550
S'ADJ'
p2551
F1.0
s(lp2552
(g195
I24
tp2553
atp2554
a(S'vplivanju'
p2555
(dp2556
S'ADV'
p2557
F0.001019
sS'ADJ'
p2558
F0.000158
sS'VERB'
p2559
F0.004807
sS'NOUN'
p2560
F0.9940170000000002
s(lp2561
tp2562
a(S'na'
p2563
(dp2564
S'ADP'
p2565
F1.0
s(lp2566
(g219
I26
tp2567
atp2568
a(S'odlo\xc4\x8ditve'
p2569
(dp2570
S'NOUN'
p2571
F0.999999
s(lp2572
(g235
I28
tp2573
atp2574
a(S'podjetij'
p2575
(dp2576
S'NOUN'
p2577
F1.0
s(lp2578
(g251
I30
tp2579
atp2580
a(S'glede'
p2581
(dp2582
S'ADV'
p2583
F0.028449
sS'ADP'
p2584
F0.971551
s(lp2585
(g259
I31
tp2586
atp2587
a(S'lokacije'
p2588
(dp2589
S'NOUN'
p2590
F1.0
s(lp2591
(g275
I33
tp2592
atp2593
a(S'nalo\xc5\xbeb'
p2594
(dp2595
S'NOUN'
p2596
F1.0
s(lp2597
(g290
I35
tp2598
atp2599
a(g105
(dp2600
g107
F1.0
s(lp2601
tp2602
a(S'zagotovi'
p2603
(dp2604
S'VERB'
p2605
F1.0
s(lp2606
(g639
I38
tp2607
atp2608
a(S'samo'
p2609
(dp2610
S'PRT'
p2611
F0.990193
sS'ADJ'
p2612
F0.009807999999999999
s(lp2613
(g304
I39
tp2614
atp2615
a(S'prikraj\xc5\xa1anim'
p2616
(dp2617
S'ADV'
p2618
F0.003881
sS'NOUN'
p2619
F0.012449000000000002
sS'VERB'
p2620
F0.124727
sS'ADJ'
p2621
F0.8589429999999998
s(lp2622
(g313
I41
tp2623
atp2624
a(S'regijam'
p2625
(dp2626
S'ADV'
p2627
F0.000252
sS'ADJ'
p2628
F0.0015160000000000002
sS'VERB'
p2629
F0.02314
sS'NOUN'
p2630
F0.9750940000000002
s(lp2631
(g325
I42
tp2632
atp2633
a(g105
(dp2634
g107
F1.0
s(lp2635
tp2636
a(S'in'
p2637
(dp2638
S'ADV'
p2639
F0.000124
sg1846
F1.2e-05
sS'CONJ'
p2640
F0.999856
sS'NOUN'
p2641
F8e-06
s(lp2642
(g338
I43
tp2643
atp2644
a(S'da'
p2645
(dp2646
S'PRT'
p2647
F0.000216
sS'CONJ'
p2648
F0.99901
sS'VERB'
p2649
F0.000759
sg1846
F1.6e-05
s(lp2650
(g347
I44
tp2651
atp2652
a(S'se'
p2653
(dp2654
S'PRON'
p2655
F0.999985
sg1846
F1.5e-05
s(lp2656
(g366
I49
tp2657
atp2658
a(S'tak\xc5\xa1ne'
p2659
(dp2660
S'PRON'
p2661
F1.0
s(lp2662
(g684
I45
tp2663
atp2664
a(S'pomo\xc4\x8di'
p2665
(dp2666
S'NOUN'
p2667
F1.0
s(lp2668
(g354
I46
tp2669
atp2670
a(S'ne'
p2671
(dp2672
S'PRT'
p2673
F0.979495
sS'CONJ'
p2674
F0.020239
sg1846
F0.000266
s(lp2675
(g374
I48
tp2676
atp2677
a(S'sme'
p2678
(dp2679
S'VERB'
p2680
F1.0
s(lp2681
(g699
I47
tp2682
atp2683
a(S'uporabljati'
p2684
(dp2685
S'VERB'
p2686
F1.0
s(lp2687
(g381
I50
tp2688
atp2689
a(S'v'
p2690
(dp2691
S'ADP'
p2692
F1.0
s(lp2693
(g721
I51
tp2694
atp2695
a(S'\xc5\xa1kodo'
p2696
(dp2697
S'NOUN'
p2698
F1.0
s(lp2699
(g393
I53
tp2700
atp2701
a(S'drugih'
p2702
(dp2703
S'NUM'
p2704
F1.0
s(lp2705
(g409
I55
tp2706
atp2707
a(S'regij'
p2708
(dp2709
S'NOUN'
p2710
F1.0
s(lp2711
(g416
I56
tp2712
atp2713
a(g107
(dp2714
g107
F1.0
s(lp2715
(g107
I57
tp2716
atp2717
asS'es'
p2718
(lp2719
(S'la'
p2720
(dp2721
g1846
F4.5e-05
sS'DET'
p2722
F0.999917
sS'NOUN'
p2723
F0.0
sS'PRON'
p2724
F3.8e-05
s(lp2725
(g9
I0
tp2726
atp2727
a(S'comisi\xc3\xb3n'
p2728
(dp2729
S'NOUN'
p2730
F1.0
s(lp2731
(g16
I1
tp2732
atp2733
a(S'quiere'
p2734
(dp2735
S'VERB'
p2736
F1.0
s(lp2737
(g24
I2
tp2738
atp2739
a(S'dejar'
p2740
(dp2741
S'VERB'
p2742
F1.0
s(lp2743
tp2744
a(S'claro'
p2745
(dp2746
S'ADJ'
p2747
F1.0
s(lp2748
(g24
I2
tp2749
atp2750
a(S'que'
p2751
(dp2752
g1846
F0.0
sS'CONJ'
p2753
F1.0
s(lp2754
(g33
I3
tp2755
atp2756
a(S'el'
p2757
(dp2758
S'PRON'
p2759
F7.4e-05
sS'DET'
p2760
F0.999926
s(lp2761
(g187
I4
tp2762
atp2763
a(S'objetivo'
p2764
(dp2765
S'ADJ'
p2766
F0.030142
sS'NOUN'
p2767
F0.969858
s(lp2768
(g102
I5
tp2769
atp2770
a(S'de'
p2771
(dp2772
g1846
F0.0
sS'CONJ'
p2773
F1.9e-05
sS'ADP'
p2774
F0.999981
s(lp2775
(g88
I6
tp2776
atp2777
a(S'los'
p2778
(dp2779
S'PRON'
p2780
F0.0
sS'DET'
p2781
F1.0
s(lp2782
(g42
I7
tp2783
atp2784
a(S'reglamentos'
p2785
(dp2786
S'NOUN'
p2787
F1.0
s(lp2788
(g49
I9
tp2789
atp2790
a(S'comunitarios'
p2791
(dp2792
S'ADJ'
p2793
F1.0
s(lp2794
(g56
I8
tp2795
atp2796
a(S'relativos'
p2797
(dp2798
S'ADJ'
p2799
F1.0
s(lp2800
(g64
I10
tp2801
atp2802
a(g1644
(dp2803
g1846
F0.000622
sS'CONJ'
p2804
F9e-06
sS'ADP'
p2805
F0.999368
s(lp2806
(g71
I11
tp2807
atp2808
a(S'la'
p2809
(dp2810
g1846
F0.0
sS'PRON'
p2811
F0.0
sS'DET'
p2812
F0.999999
sS'NOUN'
p2813
F0.0
s(lp2814
tp2815
a(S'ayuda'
p2816
(dp2817
S'NOUN'
p2818
F1.0
s(lp2819
(g79
I13
tp2820
atp2821
a(S'p\xc3\xbablica'
p2822
(dp2823
S'ADJ'
p2824
F1.0
s(lp2825
(g95
I12
tp2826
atp2827
a(S'es'
p2828
(dp2829
S'VERB'
p2830
F1.0
s(lp2831
(g203
I14
tp2832
atp2833
a(g105
(dp2834
g107
F1.0
s(lp2835
(g105
I15
tp2836
atp2837
a(S'entre'
p2838
(dp2839
g1846
F0.0
sS'ADP'
p2840
F0.999999
s(lp2841
(g116
I16
tp2842
atp2843
a(S'otras'
p2844
(dp2845
S'ADJ'
p2846
F1.0
s(lp2847
(g123
I17
tp2848
atp2849
a(S'cosas'
p2850
(dp2851
S'NOUN'
p2852
F1.0
s(lp2853
(g131
I18
tp2854
atp2855
a(g105
(dp2856
g107
F1.0
s(lp2857
(g105
I19
tp2858
atp2859
a(S'el'
p2860
(dp2861
S'PRON'
p2862
F0.039835
sS'DET'
p2863
F0.960165
s(lp2864
(g142
I20
tp2865
atp2866
a(S'garantizar'
p2867
(dp2868
S'VERB'
p2869
F1.0
s(lp2870
(g149
I21
tp2871
atp2872
a(S'que'
p2873
(dp2874
g1846
F0.0
sS'CONJ'
p2875
F1.0
s(lp2876
(g158
I22
tp2877
atp2878
a(S'la'
p2879
(dp2880
S'PRON'
p2881
F0.00027
sS'DET'
p2882
F0.99973
sg1846
F0.0
sS'NOUN'
p2883
F0.0
s(lp2884
tp2885
a(S'ayuda'
p2886
(dp2887
S'NOUN'
p2888
F1.0
s(lp2889
(g173
I23
tp2890
atp2891
a(S'dirigida'
p2892
(dp2893
S'VERB'
p2894
F1.0
s(lp2895
(g195
I24
tp2896
atp2897
a(g1644
(dp2898
g1846
F3e-06
sS'CONJ'
p2899
F0.10127
sS'ADP'
p2900
F0.898727
s(lp2901
(g212
I25
tp2902
atp2903
a(S'ejercer'
p2904
(dp2905
S'VERB'
p2906
F1.0
s(lp2907
(g219
I26
tp2908
atp2909
a(S'alguna'
p2910
(dp2911
S'ADJ'
p2912
F1.0
s(lp2913
(g219
I26
tp2914
atp2915
a(S'influencia'
p2916
(dp2917
S'NOUN'
p2918
F1.0
s(lp2919
(g219
I26
tp2920
atp2921
a(S'sobre'
p2922
(dp2923
S'NOUN'
p2924
F0.0
sS'ADP'
p2925
F1.0
s(lp2926
tp2927
a(S'las'
p2928
(dp2929
S'PRON'
p2930
F0.0
sS'DET'
p2931
F1.0
s(lp2932
(g228
I27
tp2933
atp2934
a(S'decisiones'
p2935
(dp2936
S'NOUN'
p2937
F1.0
s(lp2938
(g235
I28
tp2939
atp2940
a(S'de'
p2941
(dp2942
g1846
F0.0
sS'CONJ'
p2943
F1.7e-05
sS'ADP'
p2944
F0.999983
s(lp2945
(g243
I29
tp2946
atp2947
a(S'las'
p2948
(dp2949
S'PRON'
p2950
F0.0
sS'DET'
p2951
F1.0
s(lp2952
tp2953
a(S'empresas'
p2954
(dp2955
S'NOUN'
p2956
F1.0
s(lp2957
(g251
I30
tp2958
atp2959
a(S'en'
p2960
(dp2961
g1846
F0.0
sS'CONJ'
p2962
F0.0
sS'ADP'
p2963
F1.0
s(lp2964
(g219
I26
tp2965
atp2966
a(S'lo'
p2967
(dp2968
S'PRON'
p2969
F0.0
sS'DET'
p2970
F1.0
s(lp2971
tp2972
a(S'relativo'
p2973
(dp2974
S'ADJ'
p2975
F1.0
s(lp2976
tp2977
a(g1644
(dp2978
g1846
F0.000622
sS'CONJ'
p2979
F9e-06
sS'ADP'
p2980
F0.999368
s(lp2981
(g259
I31
tp2982
atp2983
a(S'la'
p2984
(dp2985
g1846
F0.0
sS'PRON'
p2986
F0.0
sS'DET'
p2987
F0.999999
sS'NOUN'
p2988
F0.0
s(lp2989
(g268
I32
tp2990
atp2991
a(S'localizaci\xc3\xb3n'
p2992
(dp2993
S'NOUN'
p2994
F1.0
s(lp2995
(g275
I33
tp2996
atp2997
a(S'de'
p2998
(dp2999
g1846
F0.0
sS'CONJ'
p3000
F0.000289
sS'ADP'
p3001
F0.999711
s(lp3002
(g283
I34
tp3003
atp3004
a(S'sus'
p3005
(dp3006
S'PRON'
p3007
F1.0
s(lp3008
tp3009
a(S'inversiones'
p3010
(dp3011
S'NOUN'
p3012
F1.0
s(lp3013
(g290
I35
tp3014
atp3015
a(S'\xc3\xbanicamente'
p3016
(dp3017
S'ADV'
p3018
F1.0
s(lp3019
(g304
I39
tp3020
atp3021
a(S'deber\xc3\xada'
p3022
(dp3023
S'VERB'
p3024
F1.0
s(lp3025
(g628
I36
tp3026
atp3027
a(S'ofrecerse'
p3028
(dp3029
S'VERB'
p3030
F1.0
s(lp3031
(g639
I38
tp3032
atp3033
a(g1644
(dp3034
g1846
F4e-06
sS'CONJ'
p3035
F4e-06
sS'ADP'
p3036
F0.999992
s(lp3037
(g652
I40
tp3038
atp3039
a(S'las'
p3040
(dp3041
S'PRON'
p3042
F0.0
sS'DET'
p3043
F1.0
s(lp3044
tp3045
a(S'regiones'
p3046
(dp3047
S'NOUN'
p3048
F1.0
s(lp3049
(g325
I42
tp3050
atp3051
a(S'desfavorecidas'
p3052
(dp3053
S'VERB'
p3054
F1.0
s(lp3055
(g313
I41
tp3056
atp3057
a(S'y'
p3058
(dp3059
g1846
F0.000356
sS'CONJ'
p3060
F0.999644
s(lp3061
(g338
I43
tp3062
atp3063
a(g105
(dp3064
g107
F1.0
s(lp3065
tp3066
a(S'adem\xc3\xa1s'
p3067
(dp3068
S'ADV'
p3069
F1.0
s(lp3070
(g347
I44
tp3071
atp3072
a(g105
(dp3073
g107
F1.0
s(lp3074
tp3075
a(S'dicha'
p3076
(dp3077
S'VERB'
p3078
F0.000218
sS'ADJ'
p3079
F0.999783
s(lp3080
(g684
I45
tp3081
atp3082
a(S'ayuda'
p3083
(dp3084
S'NOUN'
p3085
F1.0
s(lp3086
(g354
I46
tp3087
atp3088
a(S'no'
p3089
(dp3090
S'ADV'
p3091
F1.0
sg1846
F0.0
s(lp3092
(g374
I48
tp3093
atp3094
a(S'puede'
p3095
(dp3096
S'VERB'
p3097
F1.0
s(lp3098
(g699
I47
tp3099
atp3100
a(S'ser'
p3101
(dp3102
S'VERB'
p3103
F1.0
sS'NOUN'
p3104
F0.0
s(lp3105
(g366
I49
tp3106
atp3107
a(S'usada'
p3108
(dp3109
S'VERB'
p3110
F1.0
s(lp3111
(g381
I50
tp3112
atp3113
a(S'en'
p3114
(dp3115
g1846
F0.0
sS'CONJ'
p3116
F1.3e-05
sS'ADP'
p3117
F0.999987
s(lp3118
(g721
I51
tp3119
atp3120
a(S'detrimento'
p3121
(dp3122
S'NOUN'
p3123
F1.0
s(lp3124
(g393
I53
tp3125
atp3126
a(S'de'
p3127
(dp3128
g1846
F0.0
sS'CONJ'
p3129
F0.00017
sS'ADP'
p3130
F0.99983
s(lp3131
(g402
I54
tp3132
atp3133
a(S'otras'
p3134
(dp3135
S'ADJ'
p3136
F1.0
s(lp3137
(g409
I55
tp3138
atp3139
a(S'regiones'
p3140
(dp3141
S'NOUN'
p3142
F1.0
s(lp3143
(g416
I56
tp3144
atp3145
a(g107
(dp3146
g107
F1.0
s(lp3147
(g107
I57
tp3148
atp3149
as.