(dp0
S'fr'
p1
(lp2
(S'la'
p3
(dp4
S'PRON'
p5
F8.2e-05
sS'DET'
p6
F0.999918
sS'NOUN'
p7
F0.0
s(lp8
(S'the'
p9
I0
tp10
atp11
a(S'perte'
p12
(dp13
S'NOUN'
p14
F1.0
s(lp15
(S'loss'
p16
I4
tp17
atp18
a(S'de'
p19
(dp20
S'ADP'
p21
F1.0
s(lp22
(S'of'
p23
I5
tp24
atp25
a(S's\xc3\xa9curit\xc3\xa9'
p26
(dp27
S'NOUN'
p28
F1.0
s(lp29
tp30
a(S'alimentaire'
p31
(dp32
S'ADJ'
p33
F1.0
s(lp34
(S'food'
p35
I6
tp36
atp37
a(S'de'
p38
(dp39
S'ADP'
p40
F1.0
s(lp41
(S"'s"
p42
I3
tp43
atp44
a(S"l'"
p45
(dp46
S'ADJ'
p47
F0.160704
sS'VERB'
p48
F0.06480800000000002
sS'NOUN'
p49
F0.774488
s(lp50
tp51
a(S'union'
p52
(dp53
S'NOUN'
p54
F1.0
s(lp55
(S'union'
p56
I2
tp57
atp58
a(S'europ\xc3\xa9enne'
p59
(dp60
S'NOUN'
p61
F0.012186
sS'ADJ'
p62
F0.987814
s(lp63
(S'european'
p64
I1
tp65
atp66
a(S','
p67
(dp68
S'.'
p69
F1.0
s(lp70
(g67
I8
tp71
atp72
a(S'les'
p73
(dp74
S'PRON'
p75
F0.000961
sS'DET'
p76
F0.998994
sS'ADP'
p77
F4.5e-05
s(lp78
(S'the'
p79
I9
tp80
atp81
a(S'nombreuses'
p82
(dp83
S'ADJ'
p84
F1.0
s(lp85
(S'numerous'
p86
I10
tp87
atp88
a(S'situations'
p89
(dp90
S'NOUN'
p91
F1.0
s(lp92
(S'situations'
p93
I12
tp94
atp95
a(S'de'
p96
(dp97
S'ADP'
p98
F1.0
s(lp99
(S'security'
p100
I7
tp101
atp102
a(S'crise'
p103
(dp104
S'NOUN'
p105
F1.0
s(lp106
(S'crisis'
p107
I11
tp108
atp109
a(S'et'
p110
(dp111
S'CONJ'
p112
F1.0
s(lp113
(S'and'
p114
I13
tp115
atp116
a(S'le'
p117
(dp118
S'PRON'
p119
F0.133573
sS'DET'
p120
F0.866427
s(lp121
(S'the'
p122
I14
tp123
atp124
a(S'manque'
p125
(dp126
S'ADJ'
p127
F0.059703
sS'VERB'
p128
F0.13412600000000002
sS'NOUN'
p129
F0.806171
s(lp130
(S'lack'
p131
I15
tp132
atp133
a(S'de'
p134
(dp135
S'ADP'
p136
F1.0
s(lp137
(S'of'
p138
I16
tp139
atp140
a(S'd\xc3\xa9cisions'
p141
(dp142
S'NOUN'
p143
F1.0
s(lp144
(S'settlements'
p145
I18
tp146
atp147
a(S'communes'
p148
(dp149
S'NOUN'
p150
F0.38756
sS'ADJ'
p151
F0.61244
s(lp152
(S'common'
p153
I17
tp154
atp155
a(S'satisfaisant'
p156
(dp157
S'VERB'
p158
F0.949246
sS'ADJ'
p159
F0.050754
s(lp160
(S'satisfy'
p161
I20
tp162
atp163
a(S'les'
p164
(dp165
S'PRON'
p166
F1e-06
sS'DET'
p167
F0.999651
sS'ADP'
p168
F0.000349
s(lp169
tp170
a(S'deux'
p171
(dp172
S'NUM'
p173
F0.999186
sS'NOUN'
p174
F0.000814
s(lp175
(S'both'
p176
I21
tp177
atp178
a(S'parties'
p179
(dp180
S'ADJ'
p181
F0.013943
sS'VERB'
p182
F0.012671
sS'NOUN'
p183
F0.973386
s(lp184
(S'sides'
p185
I22
tp186
atp187
a(S'sont'
p188
(dp189
S'VERB'
p190
F1.0
s(lp191
(S'are'
p192
I23
tp193
atp194
a(S'autant'
p195
(dp196
S'ADV'
p197
F1.0
s(lp198
(S'egregious'
p199
I24
tp200
atp201
a(S"d'"
p202
(dp203
S'NOUN'
p204
F0.037162
sS'VERB'
p205
F0.7565829999999999
sS'ADJ'
p206
F0.206256
s(lp207
(S'of'
p208
I26
tp209
atp210
a(S'exemples'
p211
(dp212
S'NOUN'
p213
F1.0
s(lp214
(S'examples'
p215
I25
tp216
atp217
a(S'flagrants'
p218
(dp219
S'ADJ'
p220
F1.0
s(lp221
tp222
a(S'qui'
p223
(dp224
S'PRON'
p225
F1.0
s(lp226
tp227
a(S'en'
p228
(dp229
S'PRON'
p230
F0.999734
sS'ADP'
p231
F0.000266
s(lp232
(S'this'
p233
I27
tp234
atp235
a(S't\xc3\xa9moignent'
p236
(dp237
S'VERB'
p238
F1.0
s(lp239
(g199
I24
tp240
atp241
a(g69
(dp242
g69
F1.0
s(lp243
(g69
I28
tp244
atp245
asS'en'
p246
(lp247
(g9
(dp248
S'NOUN'
p249
F3e-06
sS'DET'
p250
F0.999997
s(lp251
(g9
I0
tp252
atp253
a(g64
(dp254
S'NOUN'
p255
F0.10881199999999999
sS'VERB'
p256
F1.1e-05
sS'ADJ'
p257
F0.891177
s(lp258
(g64
I1
tp259
atp260
a(g56
(dp261
S'NOUN'
p262
F1.0
s(lp263
(g56
I2
tp264
atp265
a(g42
(dp266
S'PRT'
p267
F0.984346
sg69
F0.015654
s(lp268
(g42
I3
tp269
atp270
a(g16
(dp271
S'NOUN'
p272
F1.0
s(lp273
(g16
I4
tp274
atp275
a(g23
(dp276
S'ADP'
p277
F1.0
s(lp278
(g23
I5
tp279
atp280
a(g35
(dp281
S'NOUN'
p282
F1.0
s(lp283
(g35
I6
tp284
atp285
a(g100
(dp286
S'NOUN'
p287
F1.0
s(lp288
(g100
I7
tp289
atp290
a(g67
(dp291
g69
F1.0
s(lp292
(g67
I8
tp293
atp294
a(g79
(dp295
S'NOUN'
p296
F2e-06
sS'DET'
p297
F0.999998
s(lp298
(g79
I9
tp299
atp300
a(g86
(dp301
S'ADJ'
p302
F1.0
s(lp303
(g86
I10
tp304
atp305
a(g107
(dp306
S'NOUN'
p307
F1.0
s(lp308
(g107
I11
tp309
atp310
a(g93
(dp311
S'NOUN'
p312
F1.0
s(lp313
(g93
I12
tp314
atp315
a(g114
(dp316
S'CONJ'
p317
F1.0
sS'NOUN'
p318
F0.0
s(lp319
(g114
I13
tp320
atp321
a(g122
(dp322
S'NOUN'
p323
F2e-06
sS'DET'
p324
F0.999998
s(lp325
(g122
I14
tp326
atp327
a(g131
(dp328
S'VERB'
p329
F0.001741
sS'NOUN'
p330
F0.998259
s(lp331
(g131
I15
tp332
atp333
a(g138
(dp334
S'ADP'
p335
F1.0
s(lp336
(g138
I16
tp337
atp338
a(g153
(dp339
S'NOUN'
p340
F0.007369
sS'ADJ'
p341
F0.992631
s(lp342
(g153
I17
tp343
atp344
a(g145
(dp345
S'NOUN'
p346
F1.0
s(lp347
(g145
I18
tp348
atp349
a(S'that'
p350
(dp351
S'ADV'
p352
F0.032857
sS'DET'
p353
F0.965858
sS'ADP'
p354
F0.001285
s(lp355
(g350
I19
tp356
atp357
a(g161
(dp358
S'VERB'
p359
F1.0
s(lp360
(g161
I20
tp361
atp362
a(g176
(dp363
S'CONJ'
p364
F0.038913
sS'DET'
p365
F0.961087
s(lp366
(g176
I21
tp367
atp368
a(g185
(dp369
S'VERB'
p370
F0.0
sS'NOUN'
p371
F1.0
s(lp372
(g185
I22
tp373
atp374
a(g192
(dp375
S'VERB'
p376
F1.0
sS'NOUN'
p377
F0.0
s(lp378
(g192
I23
tp379
atp380
a(g199
(dp381
S'ADJ'
p382
F1.0
s(lp383
(g199
I24
tp384
atp385
a(g215
(dp386
S'NOUN'
p387
F1.0
s(lp388
(g215
I25
tp389
atp390
a(g208
(dp391
S'ADP'
p392
F1.0
s(lp393
(g208
I26
tp394
atp395
a(g233
(dp396
S'ADV'
p397
F0.000669
sS'NOUN'
p398
F0.005083
sS'DET'
p399
F0.994248
s(lp400
(g233
I27
tp401
atp402
a(g69
(dp403
g69
F1.0
s(lp404
(g69
I28
tp405
atp406
asS'nl'
p407
(lp408
(S'het'
p409
(dp410
S'PRON'
p411
F0.012931
sS'DET'
p412
F0.987069
s(lp413
(g9
I0
tp414
atp415
a(S'verlies'
p416
(dp417
S'VERB'
p418
F4.3e-05
sS'NOUN'
p419
F0.999957
s(lp420
(g16
I4
tp421
atp422
a(S'van'
p423
(dp424
S'ADP'
p425
F1.0
s(lp426
(g23
I5
tp427
atp428
a(S'voedselzekerheid'
p429
(dp430
S'ADJ'
p431
F0.001224
sS'NOUN'
p432
F0.998776
s(lp433
(g35
I6
tp434
atp435
a(S'van'
p436
(dp437
S'ADP'
p438
F1.0
s(lp439
tp440
a(S'de'
p441
(dp442
S'DET'
p443
F1.0
s(lp444
(g42
I3
tp445
atp446
a(S'europese'
p447
(dp448
S'NOUN'
p449
F1.0
s(lp450
(g64
I1
tp451
atp452
a(S'unie'
p453
(dp454
S'NOUN'
p455
F1.0
s(lp456
(g56
I2
tp457
atp458
a(g67
(dp459
g69
F1.0
s(lp460
(g67
I8
tp461
atp462
a(S'de'
p463
(dp464
S'DET'
p465
F1.0
s(lp466
(g79
I9
tp467
atp468
a(S'talrijke'
p469
(dp470
S'NOUN'
p471
F0.000209
sS'ADJ'
p472
F0.999791
s(lp473
(g86
I10
tp474
atp475
a(S'crisissituaties'
p476
(dp477
S'NOUN'
p478
F1.0
s(lp479
(g93
I12
tp480
atp481
a(S'en'
p482
(dp483
S'CONJ'
p484
F1.0
s(lp485
(g114
I13
tp486
atp487
a(S'het'
p488
(dp489
S'PRON'
p490
F0.006637
sS'DET'
p491
F0.993362
s(lp492
(g122
I14
tp493
atp494
a(S'gebrek'
p495
(dp496
S'NOUN'
p497
F1.0
s(lp498
tp499
a(S'aan'
p500
(dp501
S'ADV'
p502
F0.099888
sS'ADP'
p503
F0.900112
s(lp504
(g131
I15
tp505
atp506
a(S'gezamenlijke'
p507
(dp508
S'NOUN'
p509
F8.4e-05
sS'ADJ'
p510
F0.999916
s(lp511
(g153
I17
tp512
atp513
a(S'afspraken'
p514
(dp515
S'VERB'
p516
F0.097837
sS'NOUN'
p517
F0.902163
s(lp518
(g145
I18
tp519
atp520
a(S'waar'
p521
(dp522
S'ADV'
p523
F0.999857
sS'ADJ'
p524
F2e-06
sS'NOUN'
p525
F0.000141
s(lp526
(g350
I19
tp527
atp528
a(S'beide'
p529
(dp530
S'NUM'
p531
F1.0
s(lp532
(g176
I21
tp533
atp534
a(S'partijen'
p535
(dp536
S'NOUN'
p537
F1.0
s(lp538
(g185
I22
tp539
atp540
a(S'tevreden'
p541
(dp542
S'ADJ'
p543
F1.0
s(lp544
(g161
I20
tp545
atp546
a(S'over'
p547
(dp548
S'ADV'
p549
F0.595576
sS'ADP'
p550
F0.404424
s(lp551
tp552
a(S'zijn'
p553
(dp554
S'PRON'
p555
F0.319704
sS'VERB'
p556
F0.672106
sS'NOUN'
p557
F0.00819
s(lp558
tp559
a(g67
(dp560
g69
F1.0
s(lp561
tp562
a(S'zijn'
p563
(dp564
S'PRON'
p565
F7e-06
sS'VERB'
p566
F0.999837
sS'NOUN'
p567
F0.000156
s(lp568
(g192
I23
tp569
atp570
a(S'hier'
p571
(dp572
S'ADV'
p573
F1.0
s(lp574
(g233
I27
tp575
atp576
a(S'uitstekende'
p577
(dp578
S'NOUN'
p579
F1e-06
sS'VERB'
p580
F0.169249
sS'ADJ'
p581
F0.83075
s(lp582
(g199
I24
tp583
atp584
a(S'voorbeelden'
p585
(dp586
S'NOUN'
p587
F1.0
s(lp588
(g215
I25
tp589
atp590
a(S'van'
p591
(dp592
S'ADP'
p593
F1.0
s(lp594
(g208
I26
tp595
atp596
a(g69
(dp597
g69
F1.0
s(lp598
(g69
I28
tp599
atp600
asS'de'
p601
(lp602
(S'als'
p603
(dp604
S'CONJ'
p605
F0.992526
s(lp606
(g9
I0
tp607
atp608
a(S'krasse'
p609
(dp610
S'ADJ'
p611
F1.0
s(lp612
(g199
I24
tp613
atp614
a(S'beispiele'
p615
(dp616
S'VERB'
p617
F1.0
s(lp618
tp619
a(S'k\xc3\xb6nnen'
p620
(dp621
S'VERB'
p622
F0.989336
s(lp623
tp624
a(S'der'
p625
(dp626
S'PRON'
p627
F0.000104
sS'DET'
p628
F0.999855
s(lp629
tp630
a(S'verlust'
p631
(dp632
S'ADJ'
p633
F9.3e-05
sS'NOUN'
p634
F0.999844
s(lp635
(g16
I4
tp636
atp637
a(S'der'
p638
(dp639
S'PRON'
p640
F6.5e-05
sS'DET'
p641
F0.999912
s(lp642
(g23
I5
tp643
atp644
a(S'lebensmittelsicherheit'
p645
(dp646
S'ADJ'
p647
F0.018831
sS'NOUN'
p648
F0.962581
s(lp649
(g35
I6
tp650
atp651
a(S'in'
p652
(dp653
S'ADP'
p654
F1.0
s(lp655
(g42
I3
tp656
atp657
a(S'der'
p658
(dp659
S'PRON'
p660
F0.000695
sS'DET'
p661
F0.999269
s(lp662
(g208
I26
tp663
atp664
a(S'eu'
p665
(dp666
S'NOUN'
p667
F0.127202
sS'ADJ'
p668
F0.793801
s(lp669
(g56
I2
tp670
atp671
a(g67
(dp672
g69
F1.0
s(lp673
(g67
I8
tp674
atp675
a(S'die'
p676
(dp677
S'PRON'
p678
F0.115798
sS'DET'
p679
F0.879385
s(lp680
(g79
I9
tp681
atp682
a(S'zahlreichen'
p683
(dp684
S'ADJ'
p685
F1.0
s(lp686
(g86
I10
tp687
atp688
a(S'krisensituationen'
p689
(dp690
S'ADJ'
p691
F0.0003
sS'NOUN'
p692
F0.999677
s(lp693
(g93
I12
tp694
atp695
a(S'und'
p696
(dp697
S'CONJ'
p698
F1.0
s(lp699
(g114
I13
tp700
atp701
a(S'fehlende'
p702
(dp703
S'ADJ'
p704
F1.0
s(lp705
(g131
I15
tp706
atp707
a(S'gemeinsame'
p708
(dp709
S'ADJ'
p710
F1.0
s(lp711
(g153
I17
tp712
atp713
a(g67
(dp714
g69
F1.0
s(lp715
(g350
I19
tp716
atp717
a(S'beide'
p718
(dp719
S'PRON'
p720
F1.0
s(lp721
(g176
I21
tp722
atp723
a(S'seiten'
p724
(dp725
S'ADP'
p726
F1.0
s(lp727
(g185
I22
tp728
atp729
a(S'zufrieden'
p730
(dp731
S'PRT'
p732
F3.1e-05
sS'ADJ'
p733
F0.999969
s(lp734
(g161
I20
tp735
atp736
a(S'stellende'
p737
(dp738
S'ADJ'
p739
F1.0
s(lp740
tp741
a(S'regelungen'
p742
(dp743
S'ADJ'
p744
F2.1e-05
sS'NOUN'
p745
F0.999964
s(lp746
(g199
I24
tp747
atp748
a(S'genannt'
p749
(dp750
S'VERB'
p751
F1.0
s(lp752
(g215
I25
tp753
atp754
a(S'werden'
p755
(dp756
S'VERB'
p757
F0.999996
s(lp758
(g192
I23
tp759
atp760
a(g69
(dp761
g69
F1.0
s(lp762
(g69
I28
tp763
atp764
asS'it'
p765
(lp766
(S'la'
p767
(dp768
S'PRON'
p769
F0.000408
sS'DET'
p770
F0.999592
s(lp771
(g9
I0
tp772
atp773
a(S'perdita'
p774
(dp775
S'NOUN'
p776
F1.0
s(lp777
(g16
I4
tp778
atp779
a(S'di'
p780
(dp781
S'CONJ'
p782
F4e-06
sS'ADP'
p783
F0.999996
s(lp784
(g23
I5
tp785
atp786
a(S'sicurezza'
p787
(dp788
S'NOUN'
p789
F1.0
s(lp790
(g100
I7
tp791
atp792
a(S'alimentare'
p793
(dp794
S'NOUN'
p795
F0.000527
sS'VERB'
p796
F0.004346
sS'ADJ'
p797
F0.995127
s(lp798
(g35
I6
tp799
atp800
a(S"dell'"
p801
(dp802
S'ADJ'
p803
F0.000817
sS'VERB'
p804
F0.000175
sS'NOUN'
p805
F0.999007
s(lp806
(g42
I3
tp807
atp808
a(S'unione'
p809
(dp810
S'NOUN'
p811
F1.0
s(lp812
(g56
I2
tp813
atp814
a(S'europea'
p815
(dp816
S'NOUN'
p817
F0.00165
sS'ADJ'
p818
F0.99835
s(lp819
(g64
I1
tp820
atp821
a(g67
(dp822
g69
F1.0
s(lp823
(g67
I8
tp824
atp825
a(S'le'
p826
(dp827
S'PRON'
p828
F0.001499
sS'DET'
p829
F0.998501
s(lp830
(g79
I9
tp831
atp832
a(S'molteplici'
p833
(dp834
S'ADJ'
p835
F1.0
s(lp836
(g86
I10
tp837
atp838
a(S'situazioni'
p839
(dp840
S'NOUN'
p841
F1.0
s(lp842
(g93
I12
tp843
atp844
a(S'di'
p845
(dp846
S'CONJ'
p847
F4e-06
sS'ADP'
p848
F0.999996
s(lp849
(g208
I26
tp850
atp851
a(S'crisi'
p852
(dp853
S'NOUN'
p854
F1.0
s(lp855
(g107
I11
tp856
atp857
a(S'e'
p858
(dp859
S'CONJ'
p860
F1.0
s(lp861
(g114
I13
tp862
atp863
a(S'la'
p864
(dp865
S'PRON'
p866
F0.000411
sS'DET'
p867
F0.999589
s(lp868
(g122
I14
tp869
atp870
a(S'mancanza'
p871
(dp872
S'NOUN'
p873
F1.0
s(lp874
(g131
I15
tp875
atp876
a(S'di'
p877
(dp878
S'CONJ'
p879
F4e-06
sS'ADP'
p880
F0.999996
s(lp881
(g138
I16
tp882
atp883
a(S'regole'
p884
(dp885
S'NOUN'
p886
F1.0
s(lp887
(g145
I18
tp888
atp889
a(S'comuni'
p890
(dp891
S'ADJ'
p892
F0.422253
sS'NOUN'
p893
F0.577747
s(lp894
(g153
I17
tp895
atp896
a(S'che'
p897
(dp898
S'PRON'
p899
F0.978719
sS'CONJ'
p900
F0.020457
sS'ADJ'
p901
F0.000825
s(lp902
(g350
I19
tp903
atp904
a(S'soddisfino'
p905
(dp906
S'VERB'
p907
F1.0
s(lp908
(g161
I20
tp909
atp910
a(S'entrambe'
p911
(dp912
S'ADJ'
p913
F1.0
s(lp914
(g176
I21
tp915
atp916
a(S'le'
p917
(dp918
S'PRON'
p919
F1.3e-05
sS'DET'
p920
F0.999987
s(lp921
tp922
a(S'parti'
p923
(dp924
S'VERB'
p925
F0.00011399999999999999
sS'NOUN'
p926
F0.999886
s(lp927
(g185
I22
tp928
atp929
a(g67
(dp930
g69
F1.0
s(lp931
tp932
a(S'ne'
p933
(dp934
S'ADV'
p935
F0.999147
sS'ADP'
p936
F0.000853
s(lp937
(g233
I27
tp938
atp939
a(S'sono'
p940
(dp941
S'VERB'
p942
F0.999944
sS'NOUN'
p943
F5.6e-05
s(lp944
(g192
I23
tp945
atp946
a(S'un'
p947
(dp948
S'PRON'
p949
F0.0005
sS'DEF'
p950
F0.9995
s(lp951
tp952
a(S'notevole'
p953
(dp954
S'ADJ'
p955
F1.0
s(lp956
(g199
I24
tp957
atp958
a(S'esempio'
p959
(dp960
S'NOUN'
p961
F1.0
s(lp962
(g215
I25
tp963
atp964
a(g69
(dp965
g69
F1.0
s(lp966
(g69
I28
tp967
atp968
asS'sk'
p969
(lp970
(S'do'
p971
(dp972
S'X'
p973
F0.000318
sS'ADP'
p974
F0.999505
sS'PRON'
p975
F0.000176
s(lp976
(g9
I0
tp977
atp978
a(S'neba'
p979
(dp980
S'NOUN'
p981
F1.0
s(lp982
tp983
a(S'volaj\xc3\xbacimi'
p984
(dp985
S'VERB'
p986
F1.0
s(lp987
(g199
I24
tp988
atp989
a(S'pr\xc3\xadkladmi'
p990
(dp991
S'NOUN'
p992
F1.0
s(lp993
(g215
I25
tp994
atp995
a(S'toho'
p996
(dp997
S'PRON'
p998
F0.999985
sg973
F1.5e-05
s(lp999
(g233
I27
tp1000
atp1001
a(S's\xc3\xba'
p1002
(dp1003
S'VERB'
p1004
F1.0
s(lp1005
(g192
I23
tp1006
atp1007
a(S'strata'
p1008
(dp1009
S'NOUN'
p1010
F1.0
s(lp1011
(g16
I4
tp1012
atp1013
a(S'potravinovej'
p1014
(dp1015
S'ADJ'
p1016
F1.0
s(lp1017
(g35
I6
tp1018
atp1019
a(S'bezpe\xc4\x8dnosti'
p1020
(dp1021
S'NOUN'
p1022
F1.0
s(lp1023
(g100
I7
tp1024
atp1025
a(S'eur\xc3\xb3pskej'
p1026
(dp1027
S'ADJ'
p1028
F1.0
s(lp1029
(g64
I1
tp1030
atp1031
a(S'\xc3\xbanie'
p1032
(dp1033
S'NOUN'
p1034
F1.0
s(lp1035
(g56
I2
tp1036
atp1037
a(g67
(dp1038
g69
F1.0
s(lp1039
(g67
I8
tp1040
atp1041
a(S'po\xc4\x8detn\xc3\xa9'
p1042
(dp1043
S'ADJ'
p1044
F1.0
s(lp1045
(g86
I10
tp1046
atp1047
a(S'kr\xc3\xadzov\xc3\xa9'
p1048
(dp1049
S'ADJ'
p1050
F1.0
s(lp1051
(g107
I11
tp1052
atp1053
a(S'situ\xc3\xa1cie'
p1054
(dp1055
S'NOUN'
p1056
F1.0
s(lp1057
(g93
I12
tp1058
atp1059
a(S'a'
p1060
(dp1061
g973
F0.000765
sS'CONJ'
p1062
F0.99852
sS'NOUN'
p1063
F5.6e-05
sS'ADP'
p1064
F0.000629
sS'PRT'
p1065
F3.2e-05
s(lp1066
(g114
I13
tp1067
atp1068
a(S'neexistencia'
p1069
(dp1070
S'NOUN'
p1071
F1.0
s(lp1072
(g131
I15
tp1073
atp1074
a(S'doh\xc3\xb4d'
p1075
(dp1076
S'NOUN'
p1077
F1.0
s(lp1078
(g145
I18
tp1079
atp1080
a(g67
(dp1081
g69
F1.0
s(lp1082
tp1083
a(S'ktor\xc3\xa9'
p1084
(dp1085
S'PRON'
p1086
F1.0
s(lp1087
(g350
I19
tp1088
atp1089
a(S'by'
p1090
(dp1091
S'PRT'
p1092
F0.999993
sg973
F7e-06
s(lp1093
tp1094
a(S'uspokojili'
p1095
(dp1096
S'VERB'
p1097
F1.0
s(lp1098
(g161
I20
tp1099
atp1100
a(S'obe'
p1101
(dp1102
S'NUM'
p1103
F1.0
s(lp1104
(g176
I21
tp1105
atp1106
a(S'strany'
p1107
(dp1108
S'NOUN'
p1109
F1.0
s(lp1110
(g185
I22
tp1111
atp1112
a(g69
(dp1113
g69
F1.0
s(lp1114
(g69
I28
tp1115
atp1116
asS'pl'
p1117
(lp1118
(S'utrata'
p1119
(dp1120
S'NOUN'
p1121
F1.0
s(lp1122
(g16
I4
tp1123
atp1124
a(S'bezpiecze\xc5\x84stwa'
p1125
(dp1126
S'NOUN'
p1127
F1.0
s(lp1128
(g100
I7
tp1129
atp1130
a(S'\xc5\xbcywno\xc5\x9bciowego'
p1131
(dp1132
S'ADJ'
p1133
F1.0
s(lp1134
(g35
I6
tp1135
atp1136
a(S'unii'
p1137
(dp1138
S'NOUN'
p1139
F1.0
s(lp1140
(g56
I2
tp1141
atp1142
a(S'europejskiej'
p1143
(dp1144
S'ADJ'
p1145
F0.9999990000000001
s(lp1146
(g64
I1
tp1147
atp1148
a(g67
(dp1149
g973
F0.0
sg69
F1.0
s(lp1150
(g67
I8
tp1151
atp1152
a(S'liczne'
p1153
(dp1154
S'ADJ'
p1155
F0.9999999999999999
s(lp1156
(g86
I10
tp1157
atp1158
a(S'sytuacje'
p1159
(dp1160
S'NOUN'
p1161
F1.0
s(lp1162
(g93
I12
tp1163
atp1164
a(S'kryzysowe'
p1165
(dp1166
S'ADJ'
p1167
F1.0
s(lp1168
(g107
I11
tp1169
atp1170
a(S'i'
p1171
(dp1172
S'PRT'
p1173
F0.006036
sS'CONJ'
p1174
F0.993933
sS'PRON'
p1175
F9.999999999999999e-06
sS'NOUN'
p1176
F2e-06
sg973
F1.9e-05
s(lp1177
(g114
I13
tp1178
atp1179
a(S'brak'
p1180
(dp1181
S'ADJ'
p1182
F0.061813
sS'NOUN'
p1183
F0.938187
s(lp1184
(g131
I15
tp1185
atp1186
a(S'wsp\xc3\xb3lnych'
p1187
(dp1188
S'ADJ'
p1189
F1.0000010000000001
s(lp1190
(g153
I17
tp1191
atp1192
a(g67
(dp1193
g973
F0.0
sg69
F1.0
s(lp1194
(g350
I19
tp1195
atp1196
a(S'satysfakcjonuj\xc4\x85cych'
p1197
(dp1198
S'ADV'
p1199
F0.009297
sS'NOUN'
p1200
F0.015085000000000003
sS'VERB'
p1201
F0.9017600000000001
sS'ADJ'
p1202
F0.07386
s(lp1203
(g199
I24
tp1204
atp1205
a(S'obie'
p1206
(dp1207
S'NUM'
p1208
F1.0
s(lp1209
(g176
I21
tp1210
atp1211
a(S'strony'
p1212
(dp1213
S'NOUN'
p1214
F1.0
s(lp1215
(g185
I22
tp1216
atp1217
a(S'ustale\xc5\x84'
p1218
(dp1219
S'NOUN'
p1220
F1.0
s(lp1221
tp1222
a(S's\xc4\x85'
p1223
(dp1224
S'VERB'
p1225
F1.0
s(lp1226
(g192
I23
tp1227
atp1228
a(S'najlepszym'
p1229
(dp1230
S'ADJ'
p1231
F1.000002
s(lp1232
(g199
I24
tp1233
atp1234
a(S'tego'
p1235
(dp1236
S'ADJ'
p1237
F0.087469
sS'NOUN'
p1238
F0.905234
sS'PRT'
p1239
F0.001693
sg973
F0.005604
s(lp1240
(g233
I27
tp1241
atp1242
a(S'przyk\xc5\x82adem'
p1243
(dp1244
S'NOUN'
p1245
F1.0
s(lp1246
(g215
I25
tp1247
atp1248
a(g69
(dp1249
g69
F1.0
s(lp1250
(g69
I28
tp1251
atp1252
asS'sl'
p1253
(lp1254
(S'izguba'
p1255
(dp1256
S'NOUN'
p1257
F1.0
s(lp1258
(g16
I4
tp1259
atp1260
a(S'varnosti'
p1261
(dp1262
S'NOUN'
p1263
F1.000001
s(lp1264
(g100
I7
tp1265
atp1266
a(S'preskrbe'
p1267
(dp1268
S'ADV'
p1269
F0.0035
sS'ADJ'
p1270
F9.099999999999999e-05
sS'NOUN'
p1271
F0.9964080000000001
s(lp1272
(g35
I6
tp1273
atp1274
a(S's'
p1275
(dp1276
S'VERB'
p1277
F1.7e-05
sS'NOUN'
p1278
F3.8e-05
sS'ADP'
p1279
F0.999945
s(lp1280
tp1281
a(S'hrano'
p1282
(dp1283
S'NOUN'
p1284
F1.0
s(lp1285
(g35
I6
tp1286
atp1287
a(S'v'
p1288
(dp1289
S'ADP'
p1290
F1.0
s(lp1291
(g9
I0
tp1292
atp1293
a(S'evropski'
p1294
(dp1295
S'ADJ'
p1296
F1.0
s(lp1297
(g64
I1
tp1298
atp1299
a(S'uniji'
p1300
(dp1301
S'NOUN'
p1302
F1.0
s(lp1303
(g56
I2
tp1304
atp1305
a(g67
(dp1306
g69
F1.0
s(lp1307
(g67
I8
tp1308
atp1309
a(S'\xc5\xa1tevilne'
p1310
(dp1311
S'ADJ'
p1312
F1.0
s(lp1313
(g86
I10
tp1314
atp1315
a(S'krizne'
p1316
(dp1317
S'ADJ'
p1318
F1.0
s(lp1319
(g107
I11
tp1320
atp1321
a(S'razmere'
p1322
(dp1323
S'NOUN'
p1324
F1.0
s(lp1325
(g93
I12
tp1326
atp1327
a(S'in'
p1328
(dp1329
S'ADV'
p1330
F3.1e-05
sg973
F2.9e-05
sS'CONJ'
p1331
F0.999939
sS'NOUN'
p1332
F1e-06
s(lp1333
(g114
I13
tp1334
atp1335
a(S'pomanjkanje'
p1336
(dp1337
S'NOUN'
p1338
F1.0
s(lp1339
(g131
I15
tp1340
atp1341
a(S'skupnih'
p1342
(dp1343
S'ADJ'
p1344
F1.000001
s(lp1345
(g153
I17
tp1346
atp1347
a(S'dogovorov'
p1348
(dp1349
S'NOUN'
p1350
F1.0
s(lp1351
(g145
I18
tp1352
atp1353
a(g67
(dp1354
g69
F1.0
s(lp1355
tp1356
a(S'ki'
p1357
(dp1358
S'CONJ'
p1359
F1.0
s(lp1360
(g350
I19
tp1361
atp1362
a(S'bi'
p1363
(dp1364
g973
F2e-06
sS'VERB'
p1365
F0.999998
s(lp1366
tp1367
a(S'zadovoljili'
p1368
(dp1369
S'VERB'
p1370
F1.0
s(lp1371
(g161
I20
tp1372
atp1373
a(S'obe'
p1374
(dp1375
S'PRON'
p1376
F0.999999
s(lp1377
(g176
I21
tp1378
atp1379
a(S'strani'
p1380
(dp1381
S'NOUN'
p1382
F1.000001
s(lp1383
(g185
I22
tp1384
atp1385
a(g67
(dp1386
g69
F1.0
s(lp1387
tp1388
a(S'so'
p1389
(dp1390
g973
F0.000241
sS'VERB'
p1391
F0.999758
s(lp1392
(g192
I23
tp1393
atp1394
a(S'najo\xc4\x8ditnej\xc5\xa1i'
p1395
(dp1396
S'ADV'
p1397
F0.005074
sS'NOUN'
p1398
F0.005254
sS'VERB'
p1399
F1.4e-05
sS'ADJ'
p1400
F0.9896579999999998
s(lp1401
(g199
I24
tp1402
atp1403
a(S'primeri'
p1404
(dp1405
S'VERB'
p1406
F0.005346
sS'NOUN'
p1407
F0.994654
s(lp1408
(g215
I25
tp1409
atp1410
a(g69
(dp1411
g69
F1.0
s(lp1412
(g69
I28
tp1413
atp1414
asS'es'
p1415
(lp1416
(S'la'
p1417
(dp1418
g973
F4.5e-05
sS'DET'
p1419
F0.999917
sS'NOUN'
p1420
F0.0
sS'PRON'
p1421
F3.8e-05
s(lp1422
(g9
I0
tp1423
atp1424
a(S'p\xc3\xa9rdida'
p1425
(dp1426
S'NOUN'
p1427
F1.0
s(lp1428
(g16
I4
tp1429
atp1430
a(S'de'
p1431
(dp1432
g973
F2.9e-05
sS'CONJ'
p1433
F0.000449
sS'ADP'
p1434
F0.999522
s(lp1435
(g23
I5
tp1436
atp1437
a(S'seguridad'
p1438
(dp1439
S'NOUN'
p1440
F1.0
s(lp1441
(g100
I7
tp1442
atp1443
a(S'alimentaria'
p1444
(dp1445
S'ADJ'
p1446
F1.0
s(lp1447
(g35
I6
tp1448
atp1449
a(S'en'
p1450
(dp1451
g973
F0.0
sS'CONJ'
p1452
F1e-06
sS'ADP'
p1453
F0.999999
s(lp1454
tp1455
a(S'la'
p1456
(dp1457
S'NOUN'
p1458
F0.0
sS'PRON'
p1459
F0.0
sS'DET'
p1460
F0.999999
sg973
F0.0
s(lp1461
tp1462
a(S'uni\xc3\xb3n'
p1463
(dp1464
S'NOUN'
p1465
F1.0
s(lp1466
(g56
I2
tp1467
atp1468
a(S'europea'
p1469
(dp1470
S'ADJ'
p1471
F1.0
s(lp1472
(g64
I1
tp1473
atp1474
a(g67
(dp1475
g69
F1.0
s(lp1476
(g67
I8
tp1477
atp1478
a(S'las'
p1479
(dp1480
S'PRON'
p1481
F4e-06
sS'DET'
p1482
F0.999996
s(lp1483
(g79
I9
tp1484
atp1485
a(S'numerosas'
p1486
(dp1487
S'ADJ'
p1488
F1.0
s(lp1489
(g86
I10
tp1490
atp1491
a(S'situaciones'
p1492
(dp1493
S'NOUN'
p1494
F1.0
s(lp1495
(g93
I12
tp1496
atp1497
a(S'de'
p1498
(dp1499
g973
F2.9e-05
sS'CONJ'
p1500
F0.000449
sS'ADP'
p1501
F0.999522
s(lp1502
(g42
I3
tp1503
atp1504
a(S'crisis'
p1505
(dp1506
S'NOUN'
p1507
F1.0
s(lp1508
(g107
I11
tp1509
atp1510
a(S'y'
p1511
(dp1512
g973
F0.000371
sS'CONJ'
p1513
F0.999629
s(lp1514
(g114
I13
tp1515
atp1516
a(S'la'
p1517
(dp1518
S'PRON'
p1519
F0.06509699999999999
sS'DET'
p1520
F0.934903
sS'NOUN'
p1521
F0.0
sg973
F1e-06
s(lp1522
(g122
I14
tp1523
atp1524
a(S'falta'
p1525
(dp1526
S'VERB'
p1527
F0.065056
sS'NOUN'
p1528
F0.934944
s(lp1529
(g131
I15
tp1530
atp1531
a(S'de'
p1532
(dp1533
g973
F2.8e-05
sS'CONJ'
p1534
F0.000464
sS'ADP'
p1535
F0.999508
s(lp1536
(g138
I16
tp1537
atp1538
a(S'acuerdos'
p1539
(dp1540
S'NOUN'
p1541
F1.0
s(lp1542
(g145
I18
tp1543
atp1544
a(S'comunes'
p1545
(dp1546
S'ADJ'
p1547
F1.0
s(lp1548
(g153
I17
tp1549
atp1550
a(S'que'
p1551
(dp1552
g973
F1e-06
sS'CONJ'
p1553
F0.999999
s(lp1554
(g350
I19
tp1555
atp1556
a(S'satisfagan'
p1557
(dp1558
S'VERB'
p1559
F1.0
s(lp1560
tp1561
a(g1060
(dp1562
g973
F6.3e-05
sS'CONJ'
p1563
F4e-06
sS'ADP'
p1564
F0.999933
s(lp1565
(g161
I20
tp1566
atp1567
a(S'una'
p1568
(dp1569
S'DET'
p1570
F1.0
s(lp1571
tp1572
a(g1511
(dp1573
g973
F3.8e-05
sS'CONJ'
p1574
F0.999962
s(lp1575
tp1576
a(S'otra'
p1577
(dp1578
S'ADJ'
p1579
F1.0
s(lp1580
(g176
I21
tp1581
atp1582
a(S'parte'
p1583
(dp1584
S'VERB'
p1585
F3e-05
sS'NOUN'
p1586
F0.99997
s(lp1587
(g185
I22
tp1588
atp1589
a(S'son'
p1590
(dp1591
S'VERB'
p1592
F0.995474
sS'NOUN'
p1593
F0.004526
s(lp1594
(g192
I23
tp1595
atp1596
a(S'ejemplos'
p1597
(dp1598
S'NOUN'
p1599
F1.0
s(lp1600
(g215
I25
tp1601
atp1602
a(S'execrables'
p1603
(dp1604
S'ADJ'
p1605
F1.0
s(lp1606
(g199
I24
tp1607
atp1608
a(S'de'
p1609
(dp1610
g973
F0.0
sS'CONJ'
p1611
F5.2e-05
sS'ADP'
p1612
F0.999948
s(lp1613
(g208
I26
tp1614
atp1615
a(S'ello'
p1616
(dp1617
S'PRON'
p1618
F1.0
s(lp1619
(g233
I27
tp1620
atp1621
a(g69
(dp1622
g69
F1.0
s(lp1623
(g69
I28
tp1624
atp1625
as.