(dp0
S'fr'
p1
(lp2
(S'il'
p3
(dp4
S'PRON'
p5
F1.0
s(lp6
(S'will'
p7
I10
tp8
atp9
a(S'faudrait'
p10
(dp11
S'VERB'
p12
F1.0
s(lp13
(S'be'
p14
I13
tp15
atp16
a(S'notamment'
p17
(dp18
S'ADV'
p19
F1.0
s(lp20
(S'particular'
p21
I1
tp22
atp23
a(S'rendre'
p24
(dp25
S'VERB'
p26
F1.0
s(lp27
(S'made'
p28
I14
tp29
atp30
a(S"l'"
p31
(dp32
S'ADJ'
p33
F0.050629
sS'VERB'
p34
F0.794975
sS'NOUN'
p35
F0.154398
s(lp36
(S'the'
p37
I3
tp38
atp39
a(S'objectif'
p40
(dp41
S'NOUN'
p42
F0.200149
sS'ADJ'
p43
F0.799851
s(lp44
(S'objective'
p45
I4
tp46
atp47
a(S'de'
p48
(dp49
S'ADP'
p50
F1.0
s(lp51
(S'of'
p52
I5
tp53
atp54
a(S'20'
p55
(dp56
S'X'
p57
F0.010548
sS'NUM'
p58
F0.989452
s(lp59
(S'20'
p60
I6
tp61
atp62
a(S'%'
p63
(dp64
g57
F1.0
s(lp65
(g63
I7
tp66
atp67
a(S"d'"
p68
(dp69
S'NOUN'
p70
F0.087886
sS'VERB'
p71
F0.7995690000000001
sS'ADJ'
p72
F0.112546
s(lp73
tp74
a(S'efficacit\xc3\xa9'
p75
(dp76
S'NOUN'
p77
F1.0
s(lp78
(S'efficiency'
p79
I9
tp80
atp81
a(S'\xc3\xa9nerg\xc3\xa9tique'
p82
(dp83
S'NOUN'
p84
F0.114273
sS'ADJ'
p85
F0.885727
s(lp86
(S'energy'
p87
I8
tp88
atp89
a(S'contraignant'
p90
(dp91
S'VERB'
p92
F0.374583
sS'ADJ'
p93
F0.625417
s(lp94
(S'binding'
p95
I15
tp96
atp97
a(S'.'
p98
(dp99
g98
F1.0
s(lp100
(g98
I16
tp101
atp102
asS'en'
p103
(lp104
(S'in'
p105
(dp106
S'ADV'
p107
F0.005031
sS'PRT'
p108
F0.0
sS'ADP'
p109
F0.994969
s(lp110
(g105
I0
tp111
atp112
a(g21
(dp113
S'ADV'
p114
F0.023229
sS'NOUN'
p115
F0.089219
sS'ADJ'
p116
F0.887552
s(lp117
(g21
I1
tp118
atp119
a(S','
p120
(dp121
g98
F1.0
s(lp122
(g120
I2
tp123
atp124
a(g37
(dp125
S'NOUN'
p126
F4e-06
sS'DET'
p127
F0.999996
s(lp128
(g37
I3
tp129
atp130
a(g45
(dp131
S'ADJ'
p132
F0.089182
sS'NOUN'
p133
F0.910818
s(lp134
(g45
I4
tp135
atp136
a(g52
(dp137
S'ADP'
p138
F1.0
s(lp139
(g52
I5
tp140
atp141
a(g60
(dp142
S'ADV'
p143
F2e-06
sS'NOUN'
p144
F7.9e-05
sS'NUM'
p145
F0.99915
sS'ADJ'
p146
F0.000769
sg57
F0.0
s(lp147
(g60
I6
tp148
atp149
a(g63
(dp150
S'NOUN'
p151
F1.0
s(lp152
(g63
I7
tp153
atp154
a(g87
(dp155
S'NOUN'
p156
F1.0
s(lp157
(g87
I8
tp158
atp159
a(g79
(dp160
S'NOUN'
p161
F1.0
s(lp162
(g79
I9
tp163
atp164
a(g7
(dp165
S'VERB'
p166
F0.999995
sS'NOUN'
p167
F5e-06
s(lp168
(g7
I10
tp169
atp170
a(S'have'
p171
(dp172
S'VERB'
p173
F1.0
s(lp174
(g171
I11
tp175
atp176
a(S'to'
p177
(dp178
S'ADV'
p179
F0.0
sS'PRT'
p180
F1.0
s(lp181
(g177
I12
tp182
atp183
a(g14
(dp184
S'VERB'
p185
F1.0
s(lp186
(g14
I13
tp187
atp188
a(g28
(dp189
S'VERB'
p190
F0.999719
sS'ADJ'
p191
F0.000281
s(lp192
(g28
I14
tp193
atp194
a(g95
(dp195
S'ADJ'
p196
F0.214208
sS'VERB'
p197
F0.512224
sS'NOUN'
p198
F0.273568
s(lp199
(g95
I15
tp200
atp201
a(g98
(dp202
g98
F1.0
s(lp203
(g98
I16
tp204
atp205
asS'nl'
p206
(lp207
(S'de'
p208
(dp209
S'DET'
p210
F1.0
s(lp211
(g37
I3
tp212
atp213
a(S'doelstelling'
p214
(dp215
S'NOUN'
p216
F1.0
s(lp217
(g45
I4
tp218
atp219
a(S'van'
p220
(dp221
S'ADP'
p222
F1.0
s(lp223
(g52
I5
tp224
atp225
a(S'20'
p226
(dp227
S'NUM'
p228
F1.0
s(lp229
(g60
I6
tp230
atp231
a(S'procent'
p232
(dp233
S'NOUN'
p234
F1.0
s(lp235
(g63
I7
tp236
atp237
a(S'energie-effici\xc3\xabntie'
p238
(dp239
S'NOUN'
p240
F1.0
s(lp241
(g79
I9
tp242
atp243
a(S'zou'
p244
(dp245
S'VERB'
p246
F1.0
s(lp247
(g7
I10
tp248
atp249
a(S'verplicht'
p250
(dp251
S'VERB'
p252
F0.999654
sS'ADJ'
p253
F0.000346
s(lp254
(g95
I15
tp255
atp256
a(S'moeten'
p257
(dp258
S'VERB'
p259
F0.999573
sS'NOUN'
p260
F0.000426
s(lp261
(g171
I11
tp262
atp263
a(S'worden'
p264
(dp265
S'VERB'
p266
F0.999999
sS'NOUN'
p267
F1e-06
s(lp268
(g14
I13
tp269
atp270
a(g98
(dp271
g98
F1.0
s(lp272
(g98
I16
tp273
atp274
asS'de'
p275
(lp276
(S'vor'
p277
(dp278
S'ADV'
p279
F0.050205
sS'ADP'
p280
F0.949702
s(lp281
tp282
a(S'allem'
p283
(dp284
S'PRON'
p285
F1.0
s(lp286
(g21
I1
tp287
atp288
a(S'muss'
p289
(dp290
S'VERB'
p291
F1.0
s(lp292
(g120
I2
tp293
atp294
a(S'das'
p295
(dp296
S'PRON'
p297
F0.892536
sS'DET'
p298
F0.107305
s(lp299
(g37
I3
tp300
atp301
a(S'ziel'
p302
(dp303
S'VERB'
p304
F1.0
s(lp305
(g45
I4
tp306
atp307
a(S'der'
p308
(dp309
S'PRON'
p310
F0.009306
sS'DET'
p311
F0.987654
s(lp312
(g52
I5
tp313
atp314
a(S'20'
p315
(dp316
S'NUM'
p317
F1.0
s(lp318
(g60
I6
tp319
atp320
a(g63
(dp321
S'NOUN'
p322
F1.0
s(lp323
(g63
I7
tp324
atp325
a(S'energieeffizienz'
p326
(dp327
S'NOUN'
p328
F0.1704
sS'ADJ'
p329
F0.786198
s(lp330
(g79
I9
tp331
atp332
a(S'verbindlich'
p333
(dp334
S'ADJ'
p335
F1.0
s(lp336
(g95
I15
tp337
atp338
a(S'werden'
p339
(dp340
S'VERB'
p341
F0.9996879999999999
s(lp342
(g14
I13
tp343
atp344
a(g98
(dp345
g98
F1.0
s(lp346
(g98
I16
tp347
atp348
asS'it'
p349
(lp350
(S'in'
p351
(dp352
S'ADP'
p353
F1.0
s(lp354
(g105
I0
tp355
atp356
a(S'particolare'
p357
(dp358
S'NOUN'
p359
F0.131028
sS'ADJ'
p360
F0.868972
s(lp361
(g21
I1
tp362
atp363
a(g120
(dp364
g98
F1.0
s(lp365
(g120
I2
tp366
atp367
a(S"l'"
p368
(dp369
S'NOUN'
p370
F0.003774
sS'VERB'
p371
F0.984512
sS'ADJ'
p372
F0.011715
s(lp373
(g37
I3
tp374
atp375
a(S'obiettivo'
p376
(dp377
S'ADJ'
p378
F0.039335
sS'VERB'
p379
F0.000859
sS'NOUN'
p380
F0.959807
s(lp381
(g45
I4
tp382
atp383
a(S'del'
p384
(dp385
S'DEF'
p386
F7.1e-05
sS'ADP'
p387
F0.999929
s(lp388
(g52
I5
tp389
atp390
a(S'20'
p391
(dp392
S'NUM'
p393
F0.9986
sg98
F0.0014
s(lp394
(g60
I6
tp395
atp396
a(S'per'
p397
(dp398
S'CONJ'
p399
F0.017219
sS'ADP'
p400
F0.982781
s(lp401
tp402
a(S'cento'
p403
(dp404
S'NOUN'
p405
F0.015273
sS'NUM'
p406
F0.00022
sS'ADJ'
p407
F0.984507
s(lp408
(g63
I7
tp409
atp410
a(S'di'
p411
(dp412
S'CONJ'
p413
F4e-06
sS'ADP'
p414
F0.999996
s(lp415
tp416
a(S'efficienza'
p417
(dp418
S'NOUN'
p419
F1.0
s(lp420
(g79
I9
tp421
atp422
a(S'energetica'
p423
(dp424
S'ADJ'
p425
F1.0
s(lp426
(g87
I8
tp427
atp428
a(S'dovr\xc3\xa0'
p429
(dp430
S'VERB'
p431
F1.0
s(lp432
(g7
I10
tp433
atp434
a(S'diventare'
p435
(dp436
S'VERB'
p437
F1.0
s(lp438
(g14
I13
tp439
atp440
a(S'vincolante'
p441
(dp442
S'VERB'
p443
F0.001009
sS'ADJ'
p444
F0.998991
s(lp445
(g95
I15
tp446
atp447
a(g98
(dp448
g98
F1.0
s(lp449
(g98
I16
tp450
atp451
asS'sk'
p452
(lp453
(S'z\xc3\xa1v\xc3\xa4zn\xc3\xbdm'
p454
(dp455
S'ADJ'
p456
F1.0
s(lp457
(g95
I15
tp458
atp459
a(S'sa'
p460
(dp461
S'PRT'
p462
F0.999825
sS'ADP'
p463
F0.0
sg57
F0.000174
s(lp464
(g7
I10
tp465
atp466
a(S'mus\xc3\xad'
p467
(dp468
S'VERB'
p469
F1.0
s(lp470
(g14
I13
tp471
atp472
a(S'sta\xc5\xa5'
p473
(dp474
S'VERB'
p475
F0.996303
sS'NOUN'
p476
F0.003697
s(lp477
(g28
I14
tp478
atp479
a(S'najm\xc3\xa4'
p480
(dp481
g57
F1.0
s(lp482
(g21
I1
tp483
atp484
a(S'cie\xc4\xbe'
p485
(dp486
S'VERB'
p487
F7.4e-05
sS'NOUN'
p488
F0.999926
s(lp489
(g45
I4
tp490
atp491
a(S'20'
p492
(dp493
S'NUM'
p494
F1.0
s(lp495
(g60
I6
tp496
atp497
a(g63
(dp498
g57
F0.884411
sg98
F0.115589
s(lp499
(g63
I7
tp500
atp501
a(S'energetickej'
p502
(dp503
S'ADJ'
p504
F1.0
s(lp505
(g87
I8
tp506
atp507
a(S'\xc3\xba\xc4\x8dinnosti'
p508
(dp509
S'NOUN'
p510
F1.0
s(lp511
(g79
I9
tp512
atp513
a(g98
(dp514
g98
F1.0
s(lp515
(g98
I16
tp516
atp517
asS'pl'
p518
(lp519
(S'zw\xc5\x82aszcza'
p520
(dp521
S'PRT'
p522
F1.0
s(lp523
(g21
I1
tp524
atp525
a(S'cel'
p526
(dp527
S'NOUN'
p528
F1.0
s(lp529
tp530
a(S'zwi\xc4\x85zany'
p531
(dp532
S'ADJ'
p533
F0.9999990000000001
s(lp534
(g45
I4
tp535
atp536
a(S'ze'
p537
(dp538
S'PRT'
p539
F1.5e-05
sS'CONJ'
p540
F0.0
sS'ADP'
p541
F0.999984
s(lp542
(g52
I5
tp543
atp544
a(S'zwi\xc4\x99kszeniem'
p545
(dp546
S'VERB'
p547
F1.0
s(lp548
(g79
I9
tp549
atp550
a(S'wydajno\xc5\x9bci'
p551
(dp552
S'NOUN'
p553
F1.0
s(lp554
tp555
a(S'energetycznej'
p556
(dp557
S'ADJ'
p558
F1.0
s(lp559
(g87
I8
tp560
atp561
a(S'przynajmniej'
p562
(dp563
S'PRT'
p564
F1.0
s(lp565
(g79
I9
tp566
atp567
a(S'o'
p568
(dp569
g57
F0.022889999999999997
sS'VERB'
p570
F0.000788
sS'NOUN'
p571
F8e-05
sS'ADP'
p572
F0.975613
sS'PRT'
p573
F0.00063
s(lp574
(g177
I12
tp575
atp576
a(S'20'
p577
(dp578
S'NUM'
p579
F0.9928109999999999
sS'ADJ'
p580
F0.007190000000000001
s(lp581
(g60
I6
tp582
atp583
a(g63
(dp584
S'NOUN'
p585
F0.999999
s(lp586
(g63
I7
tp587
atp588
a(S'trzeba'
p589
(dp590
S'ADJ'
p591
F1.0
s(lp592
(g14
I13
tp593
atp594
a(S'b\xc4\x99dzie'
p595
(dp596
S'VERB'
p597
F1.0
s(lp598
(g7
I10
tp599
atp600
a(S'uczyni\xc4\x87'
p601
(dp602
S'VERB'
p603
F1.0
s(lp604
(g28
I14
tp605
atp606
a(S'zadaniem'
p607
(dp608
S'NOUN'
p609
F1.0
s(lp610
tp611
a(S'wi\xc4\x85\xc5\xbc\xc4\x85cym'
p612
(dp613
S'ADV'
p614
F0.001512
sS'NOUN'
p615
F0.05009900000000001
sS'VERB'
p616
F0.179927
sS'ADJ'
p617
F0.7684639999999999
s(lp618
(g95
I15
tp619
atp620
a(g98
(dp621
g98
F1.0
s(lp622
(g98
I16
tp623
atp624
asS'sl'
p625
(lp626
(S'cilj'
p627
(dp628
S'NOUN'
p629
F1.0
s(lp630
(g45
I4
tp631
atp632
a(S'za'
p633
(dp634
S'ADV'
p635
F1.2e-05
sg57
F1.2e-05
sS'ADP'
p636
F0.999976
s(lp637
(g105
I0
tp638
atp639
a(S'doseganje'
p640
(dp641
S'NOUN'
p642
F1.0
s(lp643
(g21
I1
tp644
atp645
a(S'20'
p646
(dp647
S'NUM'
p648
F1.0
s(lp649
(g60
I6
tp650
atp651
a(g63
(dp652
g98
F1.0
s(lp653
(g63
I7
tp654
atp655
a(S'energetske'
p656
(dp657
S'ADJ'
p658
F1.0
s(lp659
(g87
I8
tp660
atp661
a(S'u\xc4\x8dinkovitosti'
p662
(dp663
S'NOUN'
p664
F1.0
s(lp665
(g79
I9
tp666
atp667
a(S'bo'
p668
(dp669
S'VERB'
p670
F1.0
s(lp671
(g7
I10
tp672
atp673
a(S'moral'
p674
(dp675
S'VERB'
p676
F1.0
s(lp677
(g171
I11
tp678
atp679
a(S'postati'
p680
(dp681
S'VERB'
p682
F1.0
s(lp683
(g28
I14
tp684
atp685
a(S'zavezujo\xc4\x8d'
p686
(dp687
S'ADV'
p688
F0.038765
sS'ADJ'
p689
F0.010700999999999997
sS'CONJ'
p690
F0.000123
sS'VERB'
p691
F0.009230999999999998
sS'NOUN'
p692
F0.9411799999999999
s(lp693
(g95
I15
tp694
atp695
a(g98
(dp696
g98
F1.0
s(lp697
(g98
I16
tp698
atp699
asS'es'
p700
(lp701
(S'en'
p702
(dp703
S'ADV'
p704
F1.0
s(lp705
(g105
I0
tp706
atp707
a(S'particular'
p708
(dp709
S'ADV'
p710
F1.0
s(lp711
(g21
I1
tp712
atp713
a(g120
(dp714
g98
F1.0
s(lp715
(g120
I2
tp716
atp717
a(S'el'
p718
(dp719
S'PRON'
p720
F3e-05
sS'DET'
p721
F0.99997
s(lp722
(g37
I3
tp723
atp724
a(S'objetivo'
p725
(dp726
S'ADJ'
p727
F0.069178
sS'NOUN'
p728
F0.930822
s(lp729
(g45
I4
tp730
atp731
a(S'del'
p732
(dp733
S'ADP'
p734
F1.0
s(lp735
(g52
I5
tp736
atp737
a(S'20'
p738
(dp739
g57
F0.0
sS'NUM'
p740
F1.0
s(lp741
(g60
I6
tp742
atp743
a(g63
(dp744
g98
F1.0
s(lp745
(g63
I7
tp746
atp747
a(S'de'
p748
(dp749
g57
F9.4e-05
sS'CONJ'
p750
F4.9e-05
sS'ADP'
p751
F0.999856
s(lp752
tp753
a(S'eficiencia'
p754
(dp755
S'NOUN'
p756
F1.0
s(lp757
(g79
I9
tp758
atp759
a(S'energ\xc3\xa9tica'
p760
(dp761
S'NOUN'
p762
F0.011917
sS'ADJ'
p763
F0.988083
s(lp764
(g87
I8
tp765
atp766
a(S'deber\xc3\xada'
p767
(dp768
S'VERB'
p769
F1.0
s(lp770
(g7
I10
tp771
atp772
a(S'ser'
p773
(dp774
S'VERB'
p775
F0.999999
sS'NOUN'
p776
F1e-06
s(lp777
(g14
I13
tp778
atp779
a(S'vinculante'
p780
(dp781
S'ADJ'
p782
F1.0
s(lp783
(g95
I15
tp784
atp785
a(g98
(dp786
g98
F1.0
s(lp787
(g98
I16
tp788
atp789
as.