(dp0
S'fr'
p1
(lp2
(S'il'
p3
(dp4
S'PRON'
p5
F1.0
s(lp6
(S'we'
p7
I0
tp8
atp9
a(S'faut'
p10
(dp11
S'VERB'
p12
F1.0
s(lp13
(S'need'
p14
I1
tp15
atp16
a(S"qu'"
p17
(dp18
S'NOUN'
p19
F0.043787
sS'VERB'
p20
F0.7697689999999999
sS'ADJ'
p21
F0.186444
s(lp22
(S'as'
p23
I2
tp24
atp25
a(S'autant'
p26
(dp27
S'ADV'
p28
F1.0
s(lp29
tp30
a(S'de'
p31
(dp32
S'ADP'
p33
F1.0
s(lp34
(S'many'
p35
I3
tp36
atp37
a(S'partenaires'
p38
(dp39
S'NOUN'
p40
F1.0
s(lp41
(S'partners'
p42
I5
tp43
atp44
a(S'sociaux'
p45
(dp46
S'ADJ'
p47
F1.0
s(lp48
(S'trading'
p49
I4
tp50
atp51
a(S'que'
p52
(dp53
S'ADV'
p54
F0.028123
sS'PRON'
p55
F0.036434
sS'CONJ'
p56
F0.935443
s(lp57
(S'as'
p58
I6
tp59
atp60
a(S'possible'
p61
(dp62
S'NOUN'
p63
F0.030854
sS'ADJ'
p64
F0.969146
s(lp65
(S'possible'
p66
I7
tp67
atp68
a(S'rejoignent'
p69
(dp70
S'VERB'
p71
F1.0
s(lp72
(S'join'
p73
I9
tp74
atp75
a(S"l'"
p76
(dp77
S'NOUN'
p78
F0.087886
sS'VERB'
p79
F0.7995690000000001
sS'ADJ'
p80
F0.112546
s(lp81
(S'the'
p82
I10
tp83
atp84
a(S'accord'
p85
(dp86
S'NOUN'
p87
F1.0
s(lp88
(S'agreement'
p89
I12
tp90
atp91
a(S'multilat\xc3\xa9ral'
p92
(dp93
S'ADJ'
p94
F1.0
s(lp95
(S'multilateral'
p96
I11
tp97
atp98
a(S'en'
p99
(dp100
S'PRON'
p101
F0.001882
sS'ADP'
p102
F0.998118
s(lp103
tp104
a(S'cours'
p105
(dp106
S'VERB'
p107
F0.001812
sS'NOUN'
p108
F0.998188
s(lp109
(S'being'
p110
I13
tp111
atp112
a(S'de'
p113
(dp114
S'ADP'
p115
F1.0
s(lp116
tp117
a(S'discussion'
p118
(dp119
S'NOUN'
p120
F1.0
s(lp121
(S'discussed'
p122
I14
tp123
atp124
a(S'.'
p125
(dp126
g125
F1.0
s(lp127
(g125
I15
tp128
atp129
asS'en'
p130
(lp131
(g7
(dp132
S'PRON'
p133
F1.0
s(lp134
(g7
I0
tp135
atp136
a(g14
(dp137
S'VERB'
p138
F0.999978
sS'NOUN'
p139
F2.2e-05
s(lp140
(g14
I1
tp141
atp142
a(g23
(dp143
S'ADV'
p144
F0.445317
sS'ADP'
p145
F0.554683
s(lp146
(g23
I2
tp147
atp148
a(g35
(dp149
S'ADV'
p150
F0.000727
sS'DET'
p151
F0.053505
sS'ADJ'
p152
F0.945768
s(lp153
(g35
I3
tp154
atp155
a(g49
(dp156
S'VERB'
p157
F0.005231
sS'NOUN'
p158
F0.994769
s(lp159
(g49
I4
tp160
atp161
a(g42
(dp162
S'VERB'
p163
F0.000652
sS'NOUN'
p164
F0.9993479999999999
s(lp165
(g42
I5
tp166
atp167
a(g58
(dp168
S'ADV'
p169
F0.06049
sS'ADP'
p170
F0.93951
s(lp171
(g58
I6
tp172
atp173
a(g66
(dp174
S'ADV'
p175
F0.010829
sS'NOUN'
p176
F0.001816
sS'ADJ'
p177
F0.987355
s(lp178
(g66
I7
tp179
atp180
a(S'to'
p181
(dp182
S'ADV'
p183
F0.0
sS'PRT'
p184
F1.0
sS'ADP'
p185
F0.0
s(lp186
(g181
I8
tp187
atp188
a(g73
(dp189
S'VERB'
p190
F0.999993
sS'NOUN'
p191
F7e-06
s(lp192
(g73
I9
tp193
atp194
a(g82
(dp195
S'NOUN'
p196
F0.0
sS'DET'
p197
F1.0
s(lp198
(g82
I10
tp199
atp200
a(g96
(dp201
S'ADJ'
p202
F1.0
s(lp203
(g96
I11
tp204
atp205
a(g89
(dp206
S'NOUN'
p207
F1.0
s(lp208
(g89
I12
tp209
atp210
a(g110
(dp211
S'ADJ'
p212
F1e-05
sS'VERB'
p213
F0.999861
sS'NOUN'
p214
F0.000129
s(lp215
(g110
I13
tp216
atp217
a(g122
(dp218
S'VERB'
p219
F1.0
s(lp220
(g122
I14
tp221
atp222
a(g125
(dp223
g125
F1.0
s(lp224
(g125
I15
tp225
atp226
asS'nl'
p227
(lp228
(S'er'
p229
(dp230
S'ADV'
p231
F1.0
s(lp232
(g7
I0
tp233
atp234
a(S'dienen'
p235
(dp236
S'VERB'
p237
F0.99976
sS'NOUN'
p238
F0.00024
s(lp239
(g14
I1
tp240
atp241
a(S'zo'
p242
(dp243
S'ADV'
p244
F0.999966
sS'X'
p245
F0.0
sS'CONJ'
p246
F3.4e-05
s(lp247
(g23
I2
tp248
atp249
a(S'veel'
p250
(dp251
S'ADV'
p252
F0.947736
sS'NUM'
p253
F0.051515
sS'VERB'
p254
F0.000749
s(lp255
(g35
I3
tp256
atp257
a(S'mogelijk'
p258
(dp259
S'ADJ'
p260
F1.0
s(lp261
(g66
I7
tp262
atp263
a(S'handelspartners'
p264
(dp265
S'NOUN'
p266
F1.0
s(lp267
(g49
I4
tp268
atp269
a(S'toe'
p270
(dp271
S'ADV'
p272
F1.0
sg245
F0.0
s(lp273
(g73
I9
tp274
atp275
a(S'te'
p276
(dp277
S'PRT'
p278
F1.0
s(lp279
(g181
I8
tp280
atp281
a(S'treden'
p282
(dp283
S'VERB'
p284
F0.9999600000000001
sS'NOUN'
p285
F4e-05
s(lp286
tp287
a(S'tot'
p288
(dp289
S'CONJ'
p290
F0.000204
sS'ADP'
p291
F0.999796
s(lp292
(g73
I9
tp293
atp294
a(S'de'
p295
(dp296
S'DET'
p297
F1.0
s(lp298
(g82
I10
tp299
atp300
a(S'onderhavige'
p301
(dp302
S'NOUN'
p303
F0.002826
sS'ADJ'
p304
F0.997174
s(lp305
(g122
I14
tp306
atp307
a(S'multilaterale'
p308
(dp309
S'NOUN'
p310
F0.000492
sS'ADJ'
p311
F0.999508
s(lp312
(g96
I11
tp313
atp314
a(S'overeenkomst'
p315
(dp316
S'NOUN'
p317
F1.0
s(lp318
(g89
I12
tp319
atp320
a(g125
(dp321
g125
F1.0
s(lp322
(g125
I15
tp323
atp324
asS'de'
p325
(lp326
(S'es'
p327
(dp328
S'PRON'
p329
F1.0
s(lp330
(g7
I0
tp331
atp332
a(S'ist'
p333
(dp334
S'VERB'
p335
F1.0
s(lp336
tp337
a(S'wichtig'
p338
(dp339
S'ADJ'
p340
F1.0
s(lp341
(g14
I1
tp342
atp343
a(S','
p344
(dp345
g125
F1.0
s(lp346
tp347
a(S'dass'
p348
(dp349
S'CONJ'
p350
F1.0
s(lp351
(g181
I8
tp352
atp353
a(S'so'
p354
(dp355
S'ADV'
p356
F0.999998
sS'PRON'
p357
F2e-06
s(lp358
(g23
I2
tp359
atp360
a(S'viele'
p361
(dp362
S'PRON'
p363
F1.0
s(lp364
(g35
I3
tp365
atp366
a(S'handelspartner'
p367
(dp368
S'ADJ'
p369
F0.000548
sS'NOUN'
p370
F0.998766
s(lp371
(g49
I4
tp372
atp373
a(S'wie'
p374
(dp375
S'CONJ'
p376
F0.999998
s(lp377
(g58
I6
tp378
atp379
a(S'm\xc3\xb6glich'
p380
(dp381
S'ADJ'
p382
F1.0
s(lp383
(g66
I7
tp384
atp385
a(S'dem'
p386
(dp387
S'PRON'
p388
F0.019022
sS'DET'
p389
F0.980217
s(lp390
(g82
I10
tp391
atp392
a(S'hier'
p393
(dp394
S'ADV'
p395
F0.999967
sS'PRT'
p396
F3.3e-05
s(lp397
(g110
I13
tp398
atp399
a(S'er\xc3\xb6rterten'
p400
(dp401
S'VERB'
p402
F0.252319
sS'ADJ'
p403
F0.747681
s(lp404
(g122
I14
tp405
atp406
a(S'multilateralen'
p407
(dp408
S'ADJ'
p409
F1.0
s(lp410
(g96
I11
tp411
atp412
a(S'abkommen'
p413
(dp414
S'VERB'
p415
F1.0
s(lp416
(g89
I12
tp417
atp418
a(S'beitreten'
p419
(dp420
S'VERB'
p421
F1.0
s(lp422
(g73
I9
tp423
atp424
a(g125
(dp425
g125
F1.0
s(lp426
(g125
I15
tp427
atp428
asS'it'
p429
(lp430
(S"c'"
p431
(dp432
S'NOUN'
p433
F1.0
s(lp434
tp435
a(S'\xc3\xa8'
p436
(dp437
S'VERB'
p438
F1.0
s(lp439
(g7
I0
tp440
atp441
a(S'bisogno'
p442
(dp443
S'VERB'
p444
F0.003668
sS'NOUN'
p445
F0.996332
s(lp446
(g14
I1
tp447
atp448
a(S'che'
p449
(dp450
S'PRON'
p451
F0.672598
sS'CONJ'
p452
F0.323505
sS'ADJ'
p453
F0.003897
s(lp454
(g23
I2
tp455
atp456
a(S'un'
p457
(dp458
S'PRON'
p459
F0.00858
sS'DEF'
p460
F0.99142
s(lp461
tp462
a(S'numero'
p463
(dp464
S'VERB'
p465
F0.000101
sS'NOUN'
p466
F0.999899
s(lp467
(g35
I3
tp468
atp469
a(S'pi\xc3\xb9'
p470
(dp471
S'ADV'
p472
F0.994523
sS'NOUN'
p473
F2.3e-05
sS'ADJ'
p474
F0.004709
sS'ADP'
p475
F0.000745
s(lp476
(g58
I6
tp477
atp478
a(S'ampio'
p479
(dp480
S'ADJ'
p481
F1.0
s(lp482
tp483
a(S'possibile'
p484
(dp485
S'NOUN'
p486
F0.112173
sS'ADJ'
p487
F0.887827
s(lp488
(g66
I7
tp489
atp490
a(S'di'
p491
(dp492
S'CONJ'
p493
F4e-06
sS'ADP'
p494
F0.999996
s(lp495
(g181
I8
tp496
atp497
a(S'partner'
p498
(dp499
S'NOUN'
p500
F1.0
s(lp501
(g42
I5
tp502
atp503
a(S'commerciali'
p504
(dp505
S'VERB'
p506
F0.0
sS'ADJ'
p507
F1.0
s(lp508
(g49
I4
tp509
atp510
a(S'aderisca'
p511
(dp512
S'VERB'
p513
F1.0
s(lp514
(g73
I9
tp515
atp516
a(S"all'"
p517
(dp518
S'ADJ'
p519
F0.005993
sS'VERB'
p520
F0.04211
sS'NOUN'
p521
F0.951897
s(lp522
(g82
I10
tp523
atp524
a(S'accordo'
p525
(dp526
S'VERB'
p527
F0.005783
sS'NOUN'
p528
F0.994217
s(lp529
(g89
I12
tp530
atp531
a(S'multilaterale'
p532
(dp533
S'ADJ'
p534
F1.0
s(lp535
(g96
I11
tp536
atp537
a(S'che'
p538
(dp539
S'PRON'
p540
F0.974969
sS'CONJ'
p541
F0.024856
sS'ADJ'
p542
F0.000175
s(lp543
tp544
a(S'viene'
p545
(dp546
S'VERB'
p547
F1.0
s(lp548
(g110
I13
tp549
atp550
a(S'negoziato'
p551
(dp552
S'ADJ'
p553
F0.059452
sS'VERB'
p554
F0.787981
sS'NOUN'
p555
F0.152567
s(lp556
(g122
I14
tp557
atp558
a(g125
(dp559
g125
F1.0
s(lp560
(g125
I15
tp561
atp562
asS'sk'
p563
(lp564
(S'je'
p565
(dp566
S'PRON'
p567
F0.000102
sS'VERB'
p568
F0.999816
sg245
F8.2e-05
s(lp569
(g7
I0
tp570
atp571
a(S'potrebn\xc3\xa9'
p572
(dp573
S'ADJ'
p574
F1.0
s(lp575
(g14
I1
tp576
atp577
a(g344
(dp578
g125
F1.0
s(lp579
tp580
a(S'aby'
p581
(dp582
g245
F0.00014199999999999998
sS'CONJ'
p583
F0.999858
s(lp584
(g181
I8
tp585
atp586
a(S'mnohostrann\xc3\xba'
p587
(dp588
S'ADJ'
p589
F1.0
s(lp590
(g96
I11
tp591
atp592
a(S'dohodu'
p593
(dp594
S'NOUN'
p595
F1.0
s(lp596
(g89
I12
tp597
atp598
a(g344
(dp599
g125
F1.0
s(lp600
tp601
a(S'o'
p602
(dp603
g245
F0.000236
sS'CONJ'
p604
F0.002
sS'NOUN'
p605
F8.000000000000001e-06
sS'ADP'
p606
F0.997755
s(lp607
(g122
I14
tp608
atp609
a(S'ktorej'
p610
(dp611
S'PRON'
p612
F1.0
s(lp613
tp614
a(S'sa'
p615
(dp616
S'PRT'
p617
F0.999956
sS'ADP'
p618
F0.0
sg245
F4.4999999999999996e-05
s(lp619
(g110
I13
tp620
atp621
a(S'rokuje'
p622
(dp623
S'VERB'
p624
F1.0
s(lp625
(g122
I14
tp626
atp627
a(g344
(dp628
g125
F1.0
s(lp629
tp630
a(S'podp\xc3\xadsalo'
p631
(dp632
S'VERB'
p633
F1.0
s(lp634
(g58
I6
tp635
atp636
a(S'\xc4\x8do'
p637
(dp638
S'PRON'
p639
F0.676204
sS'CONJ'
p640
F0.090497
sg245
F0.233299
s(lp641
(g66
I7
tp642
atp643
a(S'najviac'
p644
(dp645
S'ADV'
p646
F0.66086
sg245
F0.023879
sS'NUM'
p647
F0.315261
s(lp648
(g35
I3
tp649
atp650
a(S'obchodn\xc3\xbdch'
p651
(dp652
S'ADJ'
p653
F1.0
s(lp654
(g49
I4
tp655
atp656
a(S'partnerov'
p657
(dp658
S'NOUN'
p659
F1.0
s(lp660
(g42
I5
tp661
atp662
a(g125
(dp663
g125
F1.0
s(lp664
(g125
I15
tp665
atp666
asS'pl'
p667
(lp668
(S'potrzebujemy'
p669
(dp670
S'VERB'
p671
F1.0
s(lp672
(g14
I1
tp673
atp674
a(S'mo\xc5\xbcliwie'
p675
(dp676
S'ADV'
p677
F1.0
s(lp678
(g66
I7
tp679
atp680
a(S'jak'
p681
(dp682
S'ADV'
p683
F0.9317409999999999
sS'PRT'
p684
F0.002276
sS'CONJ'
p685
F0.046730999999999995
sS'ADP'
p686
F0.019228
sS'PRON'
p687
F2.4e-05
s(lp688
(g23
I2
tp689
atp690
a(S'najwi\xc4\x99cej'
p691
(dp692
S'ADV'
p693
F0.067573
sS'NUM'
p694
F0.9324269999999999
s(lp695
(g35
I3
tp696
atp697
a(S'partner\xc3\xb3w'
p698
(dp699
S'NOUN'
p700
F1.0
s(lp701
(g42
I5
tp702
atp703
a(S'handlowych'
p704
(dp705
S'ADJ'
p706
F1.0
s(lp707
(g49
I4
tp708
atp709
a(g344
(dp710
g245
F0.0
sg125
F1.0
s(lp711
tp712
a(S'kt\xc3\xb3rzy'
p713
(dp714
S'ADJ'
p715
F1.0
s(lp716
(g73
I9
tp717
atp718
a(S'przyst\xc4\x85piliby'
p719
(dp720
S'ADV'
p721
F0.002205
sS'NOUN'
p722
F0.8325509999999997
sS'PRT'
p723
F0.023903
sS'VERB'
p724
F0.11624399999999999
sS'CONJ'
p725
F0.019068
sS'ADJ'
p726
F0.006031999999999999
s(lp727
tp728
a(S'do'
p729
(dp730
g245
F0.0
sS'NOUN'
p731
F1e-06
sS'ADP'
p732
F0.999999
s(lp733
(g73
I9
tp734
atp735
a(S'wielostronnej'
p736
(dp737
S'ADV'
p738
F0.0
sS'NOUN'
p739
F0.0019110000000000002
sS'VERB'
p740
F0.015291
sS'ADJ'
p741
F0.982795
s(lp742
(g96
I11
tp743
atp744
a(S'umowy'
p745
(dp746
S'NOUN'
p747
F1.0
s(lp748
(g89
I12
tp749
atp750
a(S'b\xc4\x99d\xc4\x85cej'
p751
(dp752
S'VERB'
p753
F1.0
s(lp754
(g110
I13
tp755
atp756
a(S'przedmiotem'
p757
(dp758
S'NOUN'
p759
F1.0
s(lp760
tp761
a(S'dyskusji'
p762
(dp763
S'NOUN'
p764
F1.0
s(lp765
(g122
I14
tp766
atp767
a(g125
(dp768
g125
F1.0
s(lp769
(g125
I15
tp770
atp771
asS'sl'
p772
(lp773
(S'k'
p774
(dp775
S'NOUN'
p776
F6.5e-05
sS'ADP'
p777
F0.999935
s(lp778
tp779
a(S've\xc4\x8dstranskemu'
p780
(dp781
S'ADV'
p782
F1.1e-05
sS'NOUN'
p783
F0.03923099999999999
sS'PRON'
p784
F0.013508
sS'NUM'
p785
F0.013832
sS'ADJ'
p786
F0.9332129999999996
sS'VERB'
p787
F0.00020600000000000002
s(lp788
(g96
I11
tp789
atp790
a(S'sporazumu'
p791
(dp792
S'NOUN'
p793
F1.0
s(lp794
(g89
I12
tp795
atp796
a(g344
(dp797
g125
F1.0
s(lp798
(g110
I13
tp799
atp800
a(g602
(dp801
S'NOUN'
p802
F2.5e-05
sS'ADP'
p803
F0.999975
s(lp804
(g122
I14
tp805
atp806
a(S'katerem'
p807
(dp808
S'PRON'
p809
F1.0
s(lp810
tp811
a(S'razpravljamo'
p812
(dp813
S'ADV'
p814
F0.002355
sS'ADJ'
p815
F0.0058449999999999995
sS'VERB'
p816
F0.854118
sS'NOUN'
p817
F0.13768200000000005
s(lp818
(g122
I14
tp819
atp820
a(g344
(dp821
g125
F1.0
s(lp822
tp823
a(S'se'
p824
(dp825
S'PRON'
p826
F0.999996
sg245
F4e-06
s(lp827
(g7
I0
tp828
atp829
a(S'mora'
p830
(dp831
S'VERB'
p832
F0.999805
sS'NOUN'
p833
F0.000195
s(lp834
(g14
I1
tp835
atp836
a(S'pridru\xc5\xbeiti'
p837
(dp838
S'ADV'
p839
F0.000924
sS'ADJ'
p840
F0.00068
sS'VERB'
p841
F0.995631
sS'NOUN'
p842
F0.002766
s(lp843
(g73
I9
tp844
atp845
a(S'\xc4\x8dim'
p846
(dp847
S'ADV'
p848
F0.996206
sS'PRON'
p849
F0.003794
s(lp850
(g66
I7
tp851
atp852
a(S've\xc4\x8d'
p853
(dp854
S'ADV'
p855
F0.985633
sS'PRT'
p856
F0.014367
s(lp857
(g35
I3
tp858
atp859
a(S'trgovinskih'
p860
(dp861
S'ADJ'
p862
F1.0
s(lp863
(g49
I4
tp864
atp865
a(S'partnerjev'
p866
(dp867
S'NOUN'
p868
F1.0
s(lp869
(g42
I5
tp870
atp871
a(g125
(dp872
g125
F1.0
s(lp873
(g125
I15
tp874
atp875
asS'es'
p876
(lp877
(S'necesitamos'
p878
(dp879
S'VERB'
p880
F1.0
s(lp881
(g14
I1
tp882
atp883
a(S'la'
p884
(dp885
g245
F0.0
sS'PRON'
p886
F0.0
sS'DET'
p887
F1.0
sS'NOUN'
p888
F0.0
s(lp889
(g82
I10
tp890
atp891
a(S'participaci\xc3\xb3n'
p892
(dp893
S'NOUN'
p894
F1.0
s(lp895
(g73
I9
tp896
atp897
a(S'del'
p898
(dp899
S'ADP'
p900
F1.0
s(lp901
(g82
I10
tp902
atp903
a(S'mayor'
p904
(dp905
S'ADJ'
p906
F1.0
s(lp907
(g23
I2
tp908
atp909
a(S'n\xc3\xbamero'
p910
(dp911
S'NOUN'
p912
F1.0
s(lp913
(g35
I3
tp914
atp915
a(S'posible'
p916
(dp917
S'ADJ'
p918
F1.0
s(lp919
(g66
I7
tp920
atp921
a(S'de'
p922
(dp923
g245
F9e-06
sS'CONJ'
p924
F0.02305
sS'ADP'
p925
F0.976941
s(lp926
tp927
a(S'asociados'
p928
(dp929
S'ADJ'
p930
F0.012742
sS'VERB'
p931
F0.848339
sS'NOUN'
p932
F0.138919
s(lp933
(g42
I5
tp934
atp935
a(S'para'
p936
(dp937
S'CONJ'
p938
F0.000873
sS'ADP'
p939
F0.999127
s(lp940
(g181
I8
tp941
atp942
a(S'el'
p943
(dp944
S'PRON'
p945
F0.000246
sS'DET'
p946
F0.999754
s(lp947
tp948
a(S'comercio'
p949
(dp950
S'VERB'
p951
F0.000572
sS'NOUN'
p952
F0.999428
s(lp953
(g49
I4
tp954
atp955
a(S'en'
p956
(dp957
g245
F0.0
sS'CONJ'
p958
F0.0
sS'ADP'
p959
F1.0
s(lp960
(g58
I6
tp961
atp962
a(S'el'
p963
(dp964
S'PRON'
p965
F1.9e-05
sS'DET'
p966
F0.999981
s(lp967
(g82
I10
tp968
atp969
a(S'acuerdo'
p970
(dp971
S'VERB'
p972
F3.3e-05
sS'NOUN'
p973
F0.999967
s(lp974
(g89
I12
tp975
atp976
a(S'multilateral'
p977
(dp978
S'ADJ'
p979
F1.0
s(lp980
(g96
I11
tp981
atp982
a(S'objeto'
p983
(dp984
S'NOUN'
p985
F1.0
s(lp986
(g110
I13
tp987
atp988
a(S'de'
p989
(dp990
g245
F0.018204
sS'CONJ'
p991
F0.006561
sS'ADP'
p992
F0.975235
s(lp993
tp994
a(S'debate'
p995
(dp996
S'VERB'
p997
F1.0
s(lp998
(g122
I14
tp999
atp1000
a(g125
(dp1001
g125
F1.0
s(lp1002
(g125
I15
tp1003
atp1004
as.