(dp0
S'fr'
p1
(lp2
(S'nous'
p3
(dp4
S'PRON'
p5
F1.0
s(lp6
(S'we'
p7
I0
tp8
atp9
a(S'exportons'
p10
(dp11
S'VERB'
p12
F1.0
s(lp13
(S'exporting'
p14
I2
tp15
atp16
a(S'nos'
p17
(dp18
S'PRON'
p19
F1.0
s(lp20
(S'our'
p21
I3
tp22
atp23
a(S'animaux'
p24
(dp25
S'ADJ'
p26
F0.082191
sS'NOUN'
p27
F0.917809
s(lp28
(S'animals'
p29
I4
tp30
atp31
a(S','
p32
(dp33
S'.'
p34
F1.0
s(lp35
(S'-'
p36
I5
tp37
atp38
a(S'et'
p39
(dp40
S'CONJ'
p41
F1.0
s(lp42
(S'and'
p43
I6
tp44
atp45
a(S'peut-\xc3\xaatre'
p46
(dp47
S'ADV'
p48
F1.0
s(lp49
(S'perhaps'
p50
I7
tp51
atp52
a(S'aussi'
p53
(dp54
S'ADV'
p55
F0.995464
sS'CONJ'
p56
F0.004536
s(lp57
(S'too'
p58
I11
tp59
atp60
a(S'leurs'
p61
(dp62
S'PRON'
p63
F1.0
s(lp64
(S'their'
p65
I8
tp66
atp67
a(S'probl\xc3\xa8mes'
p68
(dp69
S'NOUN'
p70
F1.0
s(lp71
(S'problems'
p72
I10
tp73
atp74
a(S'de'
p75
(dp76
S'ADP'
p77
F1.0
s(lp78
tp79
a(S'sant\xc3\xa9'
p80
(dp81
S'NOUN'
p82
F1.0
s(lp83
(S'health'
p84
I9
tp85
atp86
a(g32
(dp87
g34
F1.0
s(lp88
(g36
I12
tp89
atp90
a(S'et'
p91
(dp92
S'CONJ'
p93
F1.0
s(lp94
(S'and'
p95
I13
tp96
atp97
a(S'il'
p98
(dp99
S'PRON'
p100
F1.0
s(lp101
(S'it'
p102
I14
tp103
atp104
a(S'est'
p105
(dp106
S'VERB'
p107
F0.999985
sS'NOUN'
p108
F1.5e-05
s(lp109
(S'is'
p110
I15
tp111
atp112
a(S'clair'
p113
(dp114
S'ADV'
p115
F0.342263
sS'NOUN'
p116
F0.013486
sS'ADJ'
p117
F0.644251
s(lp118
(S'clear'
p119
I16
tp120
atp121
a(S'que'
p122
(dp123
S'ADV'
p124
F0.003763
sS'PRON'
p125
F0.181462
sS'CONJ'
p126
F0.814775
s(lp127
(S'that'
p128
I17
tp129
atp130
a(S'nous'
p131
(dp132
S'PRON'
p133
F1.0
s(lp134
(S'we'
p135
I18
tp136
atp137
a(S'sommes'
p138
(dp139
S'VERB'
p140
F0.999932
sS'NOUN'
p141
F6.8e-05
s(lp142
(S'are'
p143
I19
tp144
atp145
a(S'tous'
p146
(dp147
S'PRON'
p148
F0.997815
sS'NOUN'
p149
F0.002185
s(lp150
(S'all'
p151
I20
tp152
atp153
a(S'dans'
p154
(dp155
S'NOUN'
p156
F0.003937
sS'ADP'
p157
F0.996063
s(lp158
(S'in'
p159
I21
tp160
atp161
a(S'le'
p162
(dp163
S'PRON'
p164
F0.002154
sS'DET'
p165
F0.997846
s(lp166
(S'this'
p167
I22
tp168
atp169
a(S'm\xc3\xaame'
p170
(dp171
S'ADV'
p172
F0.028759
sS'ADJ'
p173
F0.971241
s(lp174
(S'together'
p175
I23
tp176
atp177
a(S'bateau'
p178
(dp179
S'NOUN'
p180
F1.0
s(lp181
tp182
a(S'en'
p183
(dp184
S'PRON'
p185
F0.000381
sS'ADP'
p186
F0.999619
s(lp187
(g175
I23
tp188
atp189
a(S'la'
p190
(dp191
S'PRON'
p192
F1.3e-05
sS'DET'
p193
F0.999987
sS'NOUN'
p194
F0.0
s(lp195
tp196
a(S'mati\xc3\xa8re'
p197
(dp198
S'NOUN'
p199
F1.0
s(lp200
tp201
a(g34
(dp202
g34
F1.0
s(lp203
(g34
I24
tp204
atp205
asS'en'
p206
(lp207
(g7
(dp208
S'PRON'
p209
F1.0
s(lp210
(g7
I0
tp211
atp212
a(S'are'
p213
(dp214
S'VERB'
p215
F1.0
sS'NOUN'
p216
F0.0
s(lp217
(g213
I1
tp218
atp219
a(g14
(dp220
S'VERB'
p221
F1.0
s(lp222
(g14
I2
tp223
atp224
a(g21
(dp225
S'PRON'
p226
F1.0
s(lp227
(g21
I3
tp228
atp229
a(g29
(dp230
S'NOUN'
p231
F1.0
s(lp232
(g29
I4
tp233
atp234
a(g36
(dp235
g34
F1.0
s(lp236
(g36
I5
tp237
atp238
a(g43
(dp239
S'CONJ'
p240
F0.999999
sS'NOUN'
p241
F1e-06
s(lp242
(g43
I6
tp243
atp244
a(g50
(dp245
S'ADV'
p246
F1.0
s(lp247
(g50
I7
tp248
atp249
a(g65
(dp250
S'PRON'
p251
F1.0
s(lp252
(g65
I8
tp253
atp254
a(g84
(dp255
S'NOUN'
p256
F1.0
s(lp257
(g84
I9
tp258
atp259
a(g72
(dp260
S'NOUN'
p261
F1.0
s(lp262
(g72
I10
tp263
atp264
a(g58
(dp265
S'ADV'
p266
F1.0
s(lp267
(g58
I11
tp268
atp269
a(g36
(dp270
g34
F1.0
s(lp271
(g36
I12
tp272
atp273
a(g95
(dp274
S'CONJ'
p275
F0.999998
sS'NOUN'
p276
F2e-06
s(lp277
(g95
I13
tp278
atp279
a(g102
(dp280
S'PRON'
p281
F1.0
s(lp282
(g102
I14
tp283
atp284
a(g110
(dp285
S'VERB'
p286
F1.0
s(lp287
(g110
I15
tp288
atp289
a(g119
(dp290
S'VERB'
p291
F0.015915
sS'ADJ'
p292
F0.984085
s(lp293
(g119
I16
tp294
atp295
a(g128
(dp296
S'ADV'
p297
F0.000127
sS'DET'
p298
F0.000491
sS'ADP'
p299
F0.999382
s(lp300
(g128
I17
tp301
atp302
a(g135
(dp303
S'PRON'
p304
F1.0
s(lp305
(g135
I18
tp306
atp307
a(g143
(dp308
S'VERB'
p309
F1.0
sS'NOUN'
p310
F0.0
s(lp311
(g143
I19
tp312
atp313
a(g151
(dp314
S'ADV'
p315
F0.878328
sS'DET'
p316
F0.121672
s(lp317
(g151
I20
tp318
atp319
a(g159
(dp320
S'ADV'
p321
F0.001752
sS'PRT'
p322
F6.3e-05
sS'ADP'
p323
F0.998185
s(lp324
(g159
I21
tp325
atp326
a(g167
(dp327
S'ADV'
p328
F0.000634
sS'NOUN'
p329
F0.000138
sS'DET'
p330
F0.999228
s(lp331
(g167
I22
tp332
atp333
a(g175
(dp334
S'ADV'
p335
F1.0
s(lp336
(g175
I23
tp337
atp338
a(g34
(dp339
g34
F1.0
s(lp340
(g34
I24
tp341
atp342
asS'nl'
p343
(lp344
(S'we'
p345
(dp346
S'PRON'
p347
F1.0
s(lp348
(g7
I0
tp349
atp350
a(S'exporteren'
p351
(dp352
S'VERB'
p353
F0.998055
sS'NOUN'
p354
F0.001944
s(lp355
(g14
I2
tp356
atp357
a(S'onze'
p358
(dp359
S'PRON'
p360
F1.0
s(lp361
(g21
I3
tp362
atp363
a(S'dieren'
p364
(dp365
S'NOUN'
p366
F1.0
s(lp367
(g29
I4
tp368
atp369
a(g36
(dp370
g34
F1.0
s(lp371
(g36
I5
tp372
atp373
a(S'en'
p374
(dp375
S'CONJ'
p376
F1.0
s(lp377
(g43
I6
tp378
atp379
a(S'wellicht'
p380
(dp381
S'ADV'
p382
F1.0
s(lp383
(g50
I7
tp384
atp385
a(S'ook'
p386
(dp387
S'ADV'
p388
F1.0
s(lp389
tp390
a(S'hun'
p391
(dp392
S'PRON'
p393
F1.0
s(lp394
(g65
I8
tp395
atp396
a(S'gezondheidsproblemen'
p397
(dp398
S'NOUN'
p399
F1.0
s(lp400
(g84
I9
tp401
atp402
a(g36
(dp403
g34
F1.0
s(lp404
(g36
I12
tp405
atp406
a(S'en'
p407
(dp408
S'CONJ'
p409
F1.0
s(lp410
(g95
I13
tp411
atp412
a(S'het'
p413
(dp414
S'PRON'
p415
F0.933482
sS'DET'
p416
F0.066518
s(lp417
(g102
I14
tp418
atp419
a(S'is'
p420
(dp421
S'VERB'
p422
F1.0
s(lp423
(g110
I15
tp424
atp425
a(S'duidelijk'
p426
(dp427
S'ADJ'
p428
F1.0
s(lp429
(g119
I16
tp430
atp431
a(S'dat'
p432
(dp433
S'PRON'
p434
F0.000673
sS'CONJ'
p435
F0.999327
s(lp436
(g128
I17
tp437
atp438
a(S'we'
p439
(dp440
S'PRON'
p441
F1.0
s(lp442
(g135
I18
tp443
atp444
a(S'hier'
p445
(dp446
S'ADV'
p447
F1.0
s(lp448
(g167
I22
tp449
atp450
a(S'allemaal'
p451
(dp452
S'PRON'
p453
F1.0
s(lp454
(g151
I20
tp455
atp456
a(S'samen'
p457
(dp458
S'ADV'
p459
F1.0
s(lp460
(g175
I23
tp461
atp462
a(S'mee'
p463
(dp464
S'ADV'
p465
F0.99999
sS'NOUN'
p466
F1e-05
s(lp467
(g72
I10
tp468
atp469
a(S'te'
p470
(dp471
S'PRT'
p472
F1.0
s(lp473
(g58
I11
tp474
atp475
a(S'maken'
p476
(dp477
S'VERB'
p478
F1.0
sS'NOUN'
p479
F0.0
s(lp480
tp481
a(S'hebben'
p482
(dp483
S'VERB'
p484
F0.999997
sS'NOUN'
p485
F3e-06
s(lp486
(g143
I19
tp487
atp488
a(g34
(dp489
g34
F1.0
s(lp490
(g34
I24
tp491
atp492
asS'de'
p493
(lp494
(S'wir'
p495
(dp496
S'PRON'
p497
F1.0
s(lp498
(g7
I0
tp499
atp500
a(S'exportieren'
p501
(dp502
S'VERB'
p503
F1.0
s(lp504
(g14
I2
tp505
atp506
a(S'unsere'
p507
(dp508
S'PRON'
p509
F1.0
s(lp510
(g21
I3
tp511
atp512
a(S'tiere'
p513
(dp514
S'NOUN'
p515
F0.161575
sS'ADJ'
p516
F0.835973
s(lp517
(g29
I4
tp518
atp519
a(S'und'
p520
(dp521
S'CONJ'
p522
F1.0
s(lp523
(g43
I6
tp524
atp525
a(S'dabei'
p526
(dp527
S'ADV'
p528
F1.0
sS'PRT'
p529
F0.0
s(lp530
(g102
I14
tp531
atp532
a(S'm\xc3\xb6glicherweise'
p533
(dp534
S'ADV'
p535
F1.0
s(lp536
(g50
I7
tp537
atp538
a(S'auch'
p539
(dp540
S'ADV'
p541
F1.0
s(lp542
(g58
I11
tp543
atp544
a(S'ihre'
p545
(dp546
S'PRON'
p547
F1.0
s(lp548
(g65
I8
tp549
atp550
a(S'gesundheitsprobleme'
p551
(dp552
S'ADJ'
p553
F0.00072
sS'NOUN'
p554
F0.999168
s(lp555
(g84
I9
tp556
atp557
a(g32
(dp558
g34
F1.0
s(lp559
(g36
I12
tp560
atp561
a(S'und'
p562
(dp563
S'CONJ'
p564
F1.0
s(lp565
(g95
I13
tp566
atp567
a(S'wir'
p568
(dp569
S'PRON'
p570
F1.0
s(lp571
(g135
I18
tp572
atp573
a(S'sind'
p574
(dp575
S'VERB'
p576
F1.0
s(lp577
(g143
I19
tp578
atp579
a(S'nat\xc3\xbcrlich'
p580
(dp581
S'ADV'
p582
F0.995043
sS'ADJ'
p583
F0.004957
s(lp584
(g119
I16
tp585
atp586
a(S'alle'
p587
(dp588
S'PRON'
p589
F1.0
s(lp590
(g151
I20
tp591
atp592
a(S'davon'
p593
(dp594
S'ADV'
p595
F0.997079
sS'PRT'
p596
F0.002921
s(lp597
(g167
I22
tp598
atp599
a(S'betroffen'
p600
(dp601
S'VERB'
p602
F0.994898
sS'ADJ'
p603
F0.005102
s(lp604
(g72
I10
tp605
atp606
a(g34
(dp607
g34
F1.0
s(lp608
(g34
I24
tp609
atp610
asS'it'
p611
(lp612
(S'esportiamo'
p613
(dp614
S'VERB'
p615
F1.0
s(lp616
(g14
I2
tp617
atp618
a(S'i'
p619
(dp620
S'DET'
p621
F1.0
s(lp622
tp623
a(S'nostri'
p624
(dp625
S'PRON'
p626
F1.0
s(lp627
(g21
I3
tp628
atp629
a(S'animali'
p630
(dp631
S'NOUN'
p632
F0.434814
sS'VERB'
p633
F3e-06
sS'ADJ'
p634
F0.565184
s(lp635
(g29
I4
tp636
atp637
a(g36
(dp638
S'X'
p639
F0.0
sg34
F1.0
s(lp640
(g36
I5
tp641
atp642
a(S'e'
p643
(dp644
S'CONJ'
p645
F1.0
s(lp646
(g43
I6
tp647
atp648
a(S'forse'
p649
(dp650
S'ADV'
p651
F0.999787
sS'NOUN'
p652
F0.000213
s(lp653
(g50
I7
tp654
atp655
a(S'anche'
p656
(dp657
S'ADV'
p658
F0.999991
sS'NOUN'
p659
F9e-06
s(lp660
(g58
I11
tp661
atp662
a(g619
(dp663
S'DET'
p664
F1.0
s(lp665
tp666
a(S'loro'
p667
(dp668
S'PRON'
p669
F1.0
s(lp670
(g65
I8
tp671
atp672
a(S'problemi'
p673
(dp674
S'NOUN'
p675
F1.0
s(lp676
(g72
I10
tp677
atp678
a(S'di'
p679
(dp680
S'CONJ'
p681
F4e-06
sS'ADP'
p682
F0.999996
s(lp683
tp684
a(S'salute'
p685
(dp686
g639
F7e-06
sS'NOUN'
p687
F0.999993
s(lp688
(g84
I9
tp689
atp690
a(g36
(dp691
g639
F0.0
sg34
F1.0
s(lp692
(g36
I12
tp693
atp694
a(S'ed'
p695
(dp696
S'CONJ'
p697
F1.0
s(lp698
(g95
I13
tp699
atp700
a(S'\xc3\xa8'
p701
(dp702
S'VERB'
p703
F1.0
s(lp704
(g110
I15
tp705
atp706
a(S'palese'
p707
(dp708
S'ADJ'
p709
F1.0
s(lp710
(g119
I16
tp711
atp712
a(S'che'
p713
(dp714
S'PRON'
p715
F0.960758
sS'CONJ'
p716
F0.039222
sS'ADJ'
p717
F2.1e-05
s(lp718
(g128
I17
tp719
atp720
a(S'ci'
p721
(dp722
S'ADV'
p723
F0.000337
sS'PRON'
p724
F0.999659
sS'NOUN'
p725
F4e-06
s(lp726
(g135
I18
tp727
atp728
a(S'siamo'
p729
(dp730
S'VERB'
p731
F0.9999999999999999
s(lp732
(g143
I19
tp733
atp734
a(S'dentro'
p735
(dp736
S'ADV'
p737
F0.830937
sS'ADP'
p738
F0.169063
s(lp739
(g175
I23
tp740
atp741
a(S'tutti'
p742
(dp743
S'PRON'
p744
F0.125501
sS'ADJ'
p745
F0.874499
s(lp746
(g151
I20
tp747
atp748
a(g34
(dp749
g34
F1.0
s(lp750
(g34
I24
tp751
atp752
asS'sk'
p753
(lp754
(S'vyv\xc3\xa1\xc5\xbeame'
p755
(dp756
S'VERB'
p757
F1.0
s(lp758
(g14
I2
tp759
atp760
a(S'na\xc5\xa1e'
p761
(dp762
S'PRON'
p763
F0.99998
sg639
F2e-05
s(lp764
(g21
I3
tp765
atp766
a(S'zvierat\xc3\xa1'
p767
(dp768
S'NOUN'
p769
F1.0
s(lp770
(g29
I4
tp771
atp772
a(g32
(dp773
g34
F1.0
s(lp774
(g36
I5
tp775
atp776
a(S'a'
p777
(dp778
g639
F0.00043499999999999995
sS'CONJ'
p779
F0.999553
sS'NOUN'
p780
F2e-06
sS'ADP'
p781
F1e-06
sS'PRT'
p782
F9e-06
s(lp783
(g43
I6
tp784
atp785
a(S'mo\xc5\xbeno'
p786
(dp787
S'ADV'
p788
F0.303362
sg639
F0.696638
s(lp789
(g50
I7
tp790
atp791
a(S'aj'
p792
(dp793
g639
F0.847285
sS'CONJ'
p794
F0.152715
s(lp795
(g58
I11
tp796
atp797
a(S'ich'
p798
(dp799
S'PRON'
p800
F1.0
s(lp801
(g65
I8
tp802
atp803
a(S'zdravotn\xc3\xa9'
p804
(dp805
S'ADJ'
p806
F1.0
s(lp807
(g84
I9
tp808
atp809
a(S'probl\xc3\xa9my'
p810
(dp811
g639
F2.5e-05
sS'NOUN'
p812
F0.999975
s(lp813
(g72
I10
tp814
atp815
a(g32
(dp816
g34
F1.0
s(lp817
(g36
I12
tp818
atp819
a(g777
(dp820
g639
F0.000862
sS'CONJ'
p821
F0.999107
sS'NOUN'
p822
F7e-06
sS'ADP'
p823
F0.0
sS'PRT'
p824
F2.3e-05
s(lp825
(g95
I13
tp826
atp827
a(S'je'
p828
(dp829
S'PRON'
p830
F0.000136
sS'VERB'
p831
F0.999846
sg639
F1.8e-05
s(lp832
(g110
I15
tp833
atp834
a(S'zrejm\xc3\xa9'
p835
(dp836
S'ADJ'
p837
F1.0
s(lp838
(g119
I16
tp839
atp840
a(g32
(dp841
g34
F1.0
s(lp842
tp843
a(S'\xc5\xbee'
p844
(dp845
g639
F0.000346
sS'CONJ'
p846
F0.999654
s(lp847
(g128
I17
tp848
atp849
a(S'sme'
p850
(dp851
g639
F2.9999999999999997e-05
sS'VERB'
p852
F0.999971
s(lp853
(g135
I18
tp854
atp855
a(S'v'
p856
(dp857
g639
F3.2e-05
sS'ADP'
p858
F0.999967
s(lp859
(g159
I21
tp860
atp861
a(S'tom'
p862
(dp863
S'PRON'
p864
F0.999854
sg639
F0.000146
s(lp865
(g167
I22
tp866
atp867
a(S'v\xc5\xa1etci'
p868
(dp869
S'PRON'
p870
F1.0
s(lp871
(g151
I20
tp872
atp873
a(S'spolo\xc4\x8dne'
p874
(dp875
S'ADV'
p876
F1.0
s(lp877
(g175
I23
tp878
atp879
a(g34
(dp880
g34
F1.0
s(lp881
(g34
I24
tp882
atp883
asS'pl'
p884
(lp885
(S'eksportujemy'
p886
(dp887
S'VERB'
p888
F1.0
s(lp889
(g14
I2
tp890
atp891
a(S'nasze'
p892
(dp893
g639
F1e-06
sS'ADJ'
p894
F0.999998
s(lp895
(g21
I3
tp896
atp897
a(S'zwierz\xc4\x99ta'
p898
(dp899
S'NOUN'
p900
F1.0
s(lp901
(g29
I4
tp902
atp903
a(g36
(dp904
g639
F1.2e-05
sS'NUM'
p905
F0.0
sS'NOUN'
p906
F4e-06
sg34
F0.999984
s(lp907
(g36
I5
tp908
atp909
a(g619
(dp910
S'PRT'
p911
F0.008867
sS'CONJ'
p912
F0.990933
sS'NOUN'
p913
F1.5e-05
sg639
F8.3e-05
sS'PRON'
p914
F0.000103
s(lp915
(g43
I6
tp916
atp917
a(S'zapewne'
p918
(dp919
S'PRT'
p920
F1.0
s(lp921
(g50
I7
tp922
atp923
a(S'ich'
p924
(dp925
S'PRON'
p926
F0.999999
sg639
F2e-06
s(lp927
(g65
I8
tp928
atp929
a(S'problemy'
p930
(dp931
S'NOUN'
p932
F1.0
s(lp933
(g72
I10
tp934
atp935
a(S'zdrowotne'
p936
(dp937
S'ADJ'
p938
F1.0
s(lp939
(g84
I9
tp940
atp941
a(g36
(dp942
g639
F0.00034
sS'NUM'
p943
F0.0
sS'NOUN'
p944
F8.000000000000001e-06
sg34
F0.999652
s(lp945
(g36
I12
tp946
atp947
a(g619
(dp948
S'PRT'
p949
F0.044121
sS'CONJ'
p950
F0.955721
sS'PRON'
p951
F2.1e-05
sS'NOUN'
p952
F8.1e-05
sg639
F5.6e-05
s(lp953
(g95
I13
tp954
atp955
a(S'jest'
p956
(dp957
S'VERB'
p958
F1.0
s(lp959
(g110
I15
tp960
atp961
a(S'jasne'
p962
(dp963
S'ADJ'
p964
F1.0000010000000001
s(lp965
(g119
I16
tp966
atp967
a(g32
(dp968
g639
F0.0
sg34
F1.0
s(lp969
tp970
a(S'\xc5\xbce'
p971
(dp972
S'PRT'
p973
F0.00024
sS'CONJ'
p974
F0.99976
s(lp975
(g128
I17
tp976
atp977
a(S'to'
p978
(dp979
S'NOUN'
p980
F0.34442500000000004
sS'ADP'
p981
F0.0
sS'PRT'
p982
F0.216666
sg639
F0.00012
sS'CONJ'
p983
F0.002102
sS'ADJ'
p984
F0.43668599999999996
s(lp985
(g167
I22
tp986
atp987
a(S'dotyczy'
p988
(dp989
S'VERB'
p990
F1.0
s(lp991
(g143
I19
tp992
atp993
a(S'nas'
p994
(dp995
S'PRON'
p996
F1.0
s(lp997
(g135
I18
tp998
atp999
a(S'wszystkich'
p1000
(dp1001
S'NOUN'
p1002
F0.12327300000000001
sS'ADJ'
p1003
F0.8767260000000002
s(lp1004
(g151
I20
tp1005
atp1006
a(g34
(dp1007
g34
F1.0
s(lp1008
(g34
I24
tp1009
atp1010
asS'sl'
p1011
(lp1012
(S'na\xc5\xa1e'
p1013
(dp1014
S'PRON'
p1015
F1.000001
s(lp1016
(g21
I3
tp1017
atp1018
a(S'\xc5\xbeivali'
p1019
(dp1020
S'NOUN'
p1021
F1.0
s(lp1022
(g29
I4
tp1023
atp1024
a(S'izva\xc5\xbeamo'
p1025
(dp1026
S'VERB'
p1027
F1.0
s(lp1028
(g14
I2
tp1029
atp1030
a(g32
(dp1031
g34
F1.0
s(lp1032
(g36
I5
tp1033
atp1034
a(S'in'
p1035
(dp1036
S'ADV'
p1037
F0.000559
sg639
F7e-06
sS'CONJ'
p1038
F0.999422
sS'NOUN'
p1039
F1.2e-05
s(lp1040
(g43
I6
tp1041
atp1042
a(S'mogo\xc4\x8de'
p1043
(dp1044
S'ADV'
p1045
F0.355109
sS'ADJ'
p1046
F0.644891
s(lp1047
(g50
I7
tp1048
atp1049
a(S's'
p1050
(dp1051
S'VERB'
p1052
F1.3e-05
sS'NOUN'
p1053
F3e-06
sS'ADP'
p1054
F0.999984
s(lp1055
tp1056
a(S'tem'
p1057
(dp1058
S'ADV'
p1059
F0.000211
sS'PRON'
p1060
F0.9995459999999999
sS'NOUN'
p1061
F0.000243
s(lp1062
tp1063
a(S'tudi'
p1064
(dp1065
S'PRT'
p1066
F1.0
s(lp1067
(g58
I11
tp1068
atp1069
a(S'njihove'
p1070
(dp1071
S'PRON'
p1072
F1.0
s(lp1073
(g65
I8
tp1074
atp1075
a(S'zdravstvene'
p1076
(dp1077
S'ADJ'
p1078
F1.0
s(lp1079
(g84
I9
tp1080
atp1081
a(S'te\xc5\xbeave'
p1082
(dp1083
S'NOUN'
p1084
F1.000001
s(lp1085
(g72
I10
tp1086
atp1087
a(g32
(dp1088
g34
F1.0
s(lp1089
(g36
I12
tp1090
atp1091
a(S'zato'
p1092
(dp1093
S'ADV'
p1094
F0.082531
sS'CONJ'
p1095
F0.917469
s(lp1096
(g95
I13
tp1097
atp1098
a(S'je'
p1099
(dp1100
S'PRON'
p1101
F0.002004
sS'VERB'
p1102
F0.997995
sg639
F1e-06
s(lp1103
(g110
I15
tp1104
atp1105
a(S'jasno'
p1106
(dp1107
S'ADV'
p1108
F0.280573
sS'ADJ'
p1109
F0.7194260000000001
s(lp1110
(g119
I16
tp1111
atp1112
a(g32
(dp1113
g34
F1.0
s(lp1114
tp1115
a(S'da'
p1116
(dp1117
S'PRT'
p1118
F2e-06
sS'CONJ'
p1119
F0.999988
sS'VERB'
p1120
F9e-06
sg639
F1e-06
s(lp1121
(g128
I17
tp1122
atp1123
a(S'smo'
p1124
(dp1125
g639
F8e-06
sS'VERB'
p1126
F0.999992
s(lp1127
(g135
I18
tp1128
atp1129
a(g856
(dp1130
S'ADP'
p1131
F1.0
s(lp1132
(g159
I21
tp1133
atp1134
a(S'teh'
p1135
(dp1136
S'PRON'
p1137
F1.0000000000000002
s(lp1138
(g167
I22
tp1139
atp1140
a(S'razmerah'
p1141
(dp1142
S'NOUN'
p1143
F1.0
s(lp1144
tp1145
a(S'skupaj'
p1146
(dp1147
S'ADV'
p1148
F1.0
s(lp1149
(g175
I23
tp1150
atp1151
a(g34
(dp1152
g34
F1.0
s(lp1153
(g34
I24
tp1154
atp1155
asS'es'
p1156
(lp1157
(S'exportamos'
p1158
(dp1159
S'VERB'
p1160
F1.0
s(lp1161
(g14
I2
tp1162
atp1163
a(S'nuestros'
p1164
(dp1165
S'PRON'
p1166
F1.0
s(lp1167
(g21
I3
tp1168
atp1169
a(S'animales'
p1170
(dp1171
S'NOUN'
p1172
F1.0
s(lp1173
(g29
I4
tp1174
atp1175
a(S'-y'
p1176
(dp1177
S'ADV'
p1178
F0.006726
sS'ADJ'
p1179
F0.177311
sS'VERB'
p1180
F0.38372300000000004
sS'NOUN'
p1181
F0.43224
s(lp1182
(g36
I5
tp1183
atp1184
a(S'tambi\xc3\xa9n'
p1185
(dp1186
S'ADV'
p1187
F1.0
s(lp1188
(g50
I7
tp1189
atp1190
a(S'sus'
p1191
(dp1192
S'PRON'
p1193
F1.0
s(lp1194
(g65
I8
tp1195
atp1196
a(S'problemas'
p1197
(dp1198
S'NOUN'
p1199
F1.0
s(lp1200
(g72
I10
tp1201
atp1202
a(S'de'
p1203
(dp1204
g639
F0.000239
sS'CONJ'
p1205
F0.00057
sS'ADP'
p1206
F0.999191
s(lp1207
tp1208
a(S'salud-'
p1209
(dp1210
S'VERB'
p1211
F0.011549
sS'NOUN'
p1212
F0.988451
s(lp1213
(g84
I9
tp1214
atp1215
a(S'y'
p1216
(dp1217
g639
F0.077022
sS'CONJ'
p1218
F0.922978
s(lp1219
(g95
I13
tp1220
atp1221
a(S'es'
p1222
(dp1223
S'VERB'
p1224
F1.0
s(lp1225
(g110
I15
tp1226
atp1227
a(S'evidente'
p1228
(dp1229
S'ADJ'
p1230
F1.0
s(lp1231
(g119
I16
tp1232
atp1233
a(S'que'
p1234
(dp1235
g639
F0.0
sS'CONJ'
p1236
F1.0
s(lp1237
(g128
I17
tp1238
atp1239
a(S'estamos'
p1240
(dp1241
S'VERB'
p1242
F1.0
s(lp1243
(g143
I19
tp1244
atp1245
a(S'en'
p1246
(dp1247
g639
F0.0
sS'CONJ'
p1248
F0.0
sS'ADP'
p1249
F1.0
s(lp1250
(g159
I21
tp1251
atp1252
a(S'el'
p1253
(dp1254
S'PRON'
p1255
F0.000153
sS'DET'
p1256
F0.999847
s(lp1257
(g167
I22
tp1258
atp1259
a(S'mismo'
p1260
(dp1261
S'NOUN'
p1262
F0.030282
sS'ADJ'
p1263
F0.969718
s(lp1264
tp1265
a(S'barco'
p1266
(dp1267
S'NOUN'
p1268
F1.0
s(lp1269
(g175
I23
tp1270
atp1271
a(g34
(dp1272
g34
F1.0
s(lp1273
(g34
I24
tp1274
atp1275
as.