(dp0
S'fr'
p1
(lp2
(S"j'"
p3
(dp4
S'ADJ'
p5
F0.10952
sS'X'
p6
F0.13611
sS'VERB'
p7
F0.004198999999999999
sS'NOUN'
p8
F0.750172
s(lp9
(S'i'
p10
I0
tp11
atp12
a(S'esp\xc3\xa8re'
p13
(dp14
S'VERB'
p15
F0.516527
sS'NOUN'
p16
F0.483473
s(lp17
tp18
a(S'que'
p19
(dp20
S'ADV'
p21
F0.061274
sS'PRON'
p22
F0.11344199999999999
sS'CONJ'
p23
F0.825283
s(lp24
(S'hope'
p25
I1
tp26
atp27
a(S'le'
p28
(dp29
S'PRON'
p30
F0.000665
sS'DET'
p31
F0.999335
s(lp32
tp33
a(S'commissaire'
p34
(dp35
S'NOUN'
p36
F1.0
s(lp37
(S'commissioner'
p38
I2
tp39
atp40
a(S'barrot'
p41
(dp42
S'NOUN'
p43
F1.0
s(lp44
(S'barrot'
p45
I3
tp46
atp47
a(S'nous'
p48
(dp49
S'PRON'
p50
F1.0
s(lp51
(S'us'
p52
I6
tp53
atp54
a(S'fournira'
p55
(dp56
S'VERB'
p57
F1.0
s(lp58
(S'offer'
p59
I5
tp60
atp61
a(S'des'
p62
(dp63
S'DET'
p64
F0.000244
sS'ADP'
p65
F0.999756
s(lp66
tp67
a(S'informations'
p68
(dp69
S'NOUN'
p70
F1.0
s(lp71
(S'details'
p72
I7
tp73
atp74
a(S'sur'
p75
(dp76
S'ADP'
p77
F1.0
s(lp78
(S'regarding'
p79
I8
tp80
atp81
a(S'la'
p82
(dp83
S'PRON'
p84
F0.000202
sS'DET'
p85
F0.999798
sS'NOUN'
p86
F0.0
s(lp87
(S'the'
p88
I9
tp89
atp90
a(S'date'
p91
(dp92
S'VERB'
p93
F0.00026399999999999997
sS'NOUN'
p94
F0.999736
s(lp95
(S'date'
p96
I10
tp97
atp98
a(S'\xc3\xa0'
p99
(dp100
S'ADP'
p101
F1.0
s(lp102
tp103
a(S'laquelle'
p104
(dp105
S'PRON'
p106
F1.0
s(lp107
(S'when'
p108
I11
tp109
atp110
a(S'un'
p111
(dp112
S'NOUN'
p113
F0.001446
sS'NUM'
p114
F0.000183
sS'DET'
p115
F0.99837
s(lp116
(S'a'
p117
I12
tp118
atp119
a(S'nouvel'
p120
(dp121
S'ADJ'
p122
F1.0
s(lp123
(S'new'
p124
I13
tp125
atp126
a(S'amendement'
p127
(dp128
S'NOUN'
p129
F1.0
s(lp130
(S'amendment'
p131
I14
tp132
atp133
a(S'de'
p134
(dp135
S'ADP'
p136
F1.0
s(lp137
(S'of'
p138
I15
tp139
atp140
a(S'la'
p141
(dp142
S'PRON'
p143
F2.1e-05
sS'DET'
p144
F0.999972
sS'NOUN'
p145
F7e-06
s(lp146
(S'the'
p147
I16
tp148
atp149
a(S'directive'
p150
(dp151
S'ADJ'
p152
F0.413486
sS'NOUN'
p153
F0.586514
s(lp154
tp155
a(S'sur'
p156
(dp157
S'ADP'
p158
F1.0
s(lp159
(S'directive'
p160
I18
tp161
atp162
a(S"l'"
p163
(dp164
S'ADJ'
p165
F0.160704
sS'VERB'
p166
F0.06480800000000002
sS'NOUN'
p167
F0.774488
s(lp168
tp169
a(S'eurovignette'
p170
(dp171
S'NOUN'
p172
F1.0
s(lp173
(S'eurovignette'
p174
I17
tp175
atp176
a(S'en'
p177
(dp178
S'PRON'
p179
F0.000406
sS'ADP'
p180
F0.999594
s(lp181
(S'in'
p182
I19
tp183
atp184
a(S'vigueur'
p185
(dp186
S'NOUN'
p187
F1.0
s(lp188
(S'force'
p189
I20
tp190
atp191
a(S'sera'
p192
(dp193
S'VERB'
p194
F1.0
s(lp195
(S'shall'
p196
I21
tp197
atp198
a(S'lanc\xc3\xa9'
p199
(dp200
S'VERB'
p201
F0.995631
sS'NOUN'
p202
F0.004369
s(lp203
(S'launched'
p204
I23
tp205
atp206
a(S'par'
p207
(dp208
S'NOUN'
p209
F0.0
sS'ADP'
p210
F1.0
s(lp211
(S'by'
p212
I24
tp213
atp214
a(S'la'
p215
(dp216
S'PRON'
p217
F1.2e-05
sS'DET'
p218
F0.999988
sS'NOUN'
p219
F0.0
s(lp220
(S'the'
p221
I25
tp222
atp223
a(S'commission'
p224
(dp225
S'NOUN'
p226
F1.0
s(lp227
(S'commission'
p228
I26
tp229
atp230
a(S'.'
p231
(dp232
g231
F1.0
s(lp233
(g231
I27
tp234
atp235
asS'en'
p236
(lp237
(g10
(dp238
g6
F0.003039
sS'NOUN'
p239
F0.996962
s(lp240
(g10
I0
tp241
atp242
a(g25
(dp243
S'VERB'
p244
F0.253266
sS'NOUN'
p245
F0.746734
s(lp246
(g25
I1
tp247
atp248
a(g38
(dp249
S'NOUN'
p250
F1.0
s(lp251
(g38
I2
tp252
atp253
a(g45
(dp254
S'NOUN'
p255
F1.0
s(lp256
(g45
I3
tp257
atp258
a(S'will'
p259
(dp260
S'VERB'
p261
F0.99994
sS'NOUN'
p262
F6e-05
s(lp263
(g259
I4
tp264
atp265
a(g59
(dp266
S'ADJ'
p267
F0.0
sS'VERB'
p268
F0.999938
sS'NOUN'
p269
F6.1e-05
s(lp270
(g59
I5
tp271
atp272
a(g52
(dp273
S'PRON'
p274
F1.0
s(lp275
(g52
I6
tp276
atp277
a(g72
(dp278
S'VERB'
p279
F0.392005
sS'NOUN'
p280
F0.607995
s(lp281
(g72
I7
tp282
atp283
a(g79
(dp284
S'VERB'
p285
F0.99563
sS'ADP'
p286
F0.00437
s(lp287
(g79
I8
tp288
atp289
a(g88
(dp290
S'NOUN'
p291
F1e-06
sS'DET'
p292
F0.999999
s(lp293
(g88
I9
tp294
atp295
a(g96
(dp296
S'VERB'
p297
F0.00258
sS'NOUN'
p298
F0.99742
s(lp299
(g96
I10
tp300
atp301
a(g108
(dp302
S'ADV'
p303
F0.999868
sS'ADP'
p304
F0.000132
s(lp305
(g108
I11
tp306
atp307
a(g117
(dp308
S'NOUN'
p309
F0.0
sS'DET'
p310
F1.0
s(lp311
(g117
I12
tp312
atp313
a(g124
(dp314
S'NOUN'
p315
F5.2e-05
sS'ADJ'
p316
F0.999948
s(lp317
(g124
I13
tp318
atp319
a(g131
(dp320
S'NOUN'
p321
F1.0
s(lp322
(g131
I14
tp323
atp324
a(g138
(dp325
S'ADP'
p326
F1.0
s(lp327
(g138
I15
tp328
atp329
a(g147
(dp330
S'NOUN'
p331
F2e-06
sS'DET'
p332
F0.999998
s(lp333
(g147
I16
tp334
atp335
a(g174
(dp336
S'ADJ'
p337
F0.007459
sS'NOUN'
p338
F0.9925409999999999
s(lp339
(g174
I17
tp340
atp341
a(g160
(dp342
S'ADJ'
p343
F0.00667
sS'NOUN'
p344
F0.99333
s(lp345
(g160
I18
tp346
atp347
a(g182
(dp348
S'ADV'
p349
F0.000116
sS'PRT'
p350
F0.000194
sS'ADP'
p351
F0.99969
s(lp352
(g182
I19
tp353
atp354
a(g189
(dp355
S'VERB'
p356
F0.000263
sS'NOUN'
p357
F0.999737
s(lp358
(g189
I20
tp359
atp360
a(g196
(dp361
S'VERB'
p362
F1.0
s(lp363
(g196
I21
tp364
atp365
a(S'be'
p366
(dp367
S'VERB'
p368
F1.0
s(lp369
(g366
I22
tp370
atp371
a(g204
(dp372
S'VERB'
p373
F1.0
s(lp374
(g204
I23
tp375
atp376
a(g212
(dp377
S'ADV'
p378
F0.000139
sS'NOUN'
p379
F0.0
sS'ADP'
p380
F0.999861
s(lp381
(g212
I24
tp382
atp383
a(g221
(dp384
S'NOUN'
p385
F1e-06
sS'DET'
p386
F0.999999
s(lp387
(g221
I25
tp388
atp389
a(g228
(dp390
S'VERB'
p391
F8e-06
sS'NOUN'
p392
F0.999992
s(lp393
(g228
I26
tp394
atp395
a(g231
(dp396
g231
F1.0
s(lp397
(g231
I27
tp398
atp399
asS'nl'
p400
(lp401
(S'ik'
p402
(dp403
S'PRON'
p404
F0.999985
sS'NOUN'
p405
F1.5e-05
s(lp406
(g10
I0
tp407
atp408
a(S'hoop'
p409
(dp410
S'VERB'
p411
F0.708051
sS'NOUN'
p412
F0.291949
s(lp413
tp414
a(S'dat'
p415
(dp416
S'PRON'
p417
F0.209982
sS'CONJ'
p418
F0.790019
s(lp419
(g25
I1
tp420
atp421
a(S'commissaris'
p422
(dp423
S'NOUN'
p424
F1.0
s(lp425
(g38
I2
tp426
atp427
a(S'barrot'
p428
(dp429
S'NOUN'
p430
F1.0
s(lp431
(g45
I3
tp432
atp433
a(S'ons'
p434
(dp435
S'PRON'
p436
F0.9987
sS'NOUN'
p437
F0.001299
s(lp438
(g52
I6
tp439
atp440
a(S'gedetailleerde'
p441
(dp442
S'NOUN'
p443
F0.004865
sS'ADJ'
p444
F0.995135
s(lp445
tp446
a(S'informatie'
p447
(dp448
S'NOUN'
p449
F1.0
s(lp450
(g72
I7
tp451
atp452
a(S'zal'
p453
(dp454
S'VERB'
p455
F1.0
s(lp456
(g259
I4
tp457
atp458
a(S'verstrekken'
p459
(dp460
S'VERB'
p461
F0.951813
sS'NOUN'
p462
F0.048188
s(lp463
(g59
I5
tp464
atp465
a(S'over'
p466
(dp467
S'ADV'
p468
F0.003651
sS'ADP'
p469
F0.996349
s(lp470
(g79
I8
tp471
atp472
a(S'de'
p473
(dp474
S'DET'
p475
F1.0
s(lp476
(g88
I9
tp477
atp478
a(S'vraag'
p479
(dp480
S'VERB'
p481
F3e-06
sS'NOUN'
p482
F0.999997
s(lp483
(g96
I10
tp484
atp485
a(S'wanneer'
p486
(dp487
S'ADV'
p488
F0.055734
sS'CONJ'
p489
F0.944266
s(lp490
(g108
I11
tp491
atp492
a(S'de'
p493
(dp494
S'DET'
p495
F1.0
s(lp496
(g221
I25
tp497
atp498
a(S'commissie'
p499
(dp500
S'NOUN'
p501
F1.0
s(lp502
(g228
I26
tp503
atp504
a(S'van'
p505
(dp506
S'ADP'
p507
F1.0
s(lp508
(g212
I24
tp509
atp510
a(S'plan'
p511
(dp512
S'VERB'
p513
F0.0
sS'NOUN'
p514
F1.0
s(lp515
(g196
I21
tp516
atp517
a(S'is'
p518
(dp519
S'VERB'
p520
F1.0
s(lp521
(g204
I23
tp522
atp523
a(S'een'
p524
(dp525
S'ADJ'
p526
F2e-06
sS'PRON'
p527
F3.6e-05
sS'NUM'
p528
F1e-06
sS'DET'
p529
F0.999962
s(lp530
(g117
I12
tp531
atp532
a(S'nieuwe'
p533
(dp534
S'NOUN'
p535
F1.7e-05
sS'ADJ'
p536
F0.999983
s(lp537
(g124
I13
tp538
atp539
a(S'wijziging'
p540
(dp541
S'NOUN'
p542
F1.0
s(lp543
(g131
I14
tp544
atp545
a(S'van'
p546
(dp547
S'ADP'
p548
F1.0
s(lp549
(g138
I15
tp550
atp551
a(S'de'
p552
(dp553
S'DET'
p554
F1.0
s(lp555
(g147
I16
tp556
atp557
a(S'eurovignetrichtlijn'
p558
(dp559
S'NOUN'
p560
F1.0
s(lp561
(g174
I17
tp562
atp563
a(S'voor'
p564
(dp565
S'ADV'
p566
F0.992451
sS'CONJ'
p567
F4.7e-05
sS'NOUN'
p568
F2.2e-05
sS'ADP'
p569
F0.007479
s(lp570
(g182
I19
tp571
atp572
a(S'te'
p573
(dp574
S'PRT'
p575
F1.0
s(lp576
tp577
a(S'stellen'
p578
(dp579
S'VERB'
p580
F0.999997
sS'NOUN'
p581
F3e-06
s(lp582
(g189
I20
tp583
atp584
a(g231
(dp585
g231
F1.0
s(lp586
(g231
I27
tp587
atp588
asS'de'
p589
(lp590
(S'ich'
p591
(dp592
S'PRON'
p593
F1.0
s(lp594
(g10
I0
tp595
atp596
a(S'hoffe'
p597
(dp598
S'VERB'
p599
F1.0
s(lp600
(g25
I1
tp601
atp602
a(S','
p603
(dp604
g231
F1.0
s(lp605
tp606
a(S'herr'
p607
(dp608
S'VERB'
p609
F0.075008
sS'NOUN'
p610
F0.867183
s(lp611
tp612
a(S'kommissar'
p613
(dp614
S'NOUN'
p615
F0.148477
sS'ADJ'
p616
F0.827017
s(lp617
(g38
I2
tp618
atp619
a(S'barrot'
p620
(dp621
S'NOUN'
p622
F0.001202
sS'ADJ'
p623
F0.998758
s(lp624
(g45
I3
tp625
atp626
a(S'wird'
p627
(dp628
S'VERB'
p629
F1.0
s(lp630
(g259
I4
tp631
atp632
a(S'uns'
p633
(dp634
S'PRON'
p635
F1.0
s(lp636
(g52
I6
tp637
atp638
a(S'einzelheiten'
p639
(dp640
S'VERB'
p641
F0.108219
sS'NOUN'
p642
F0.830572
s(lp643
tp644
a(S'mitteilen'
p645
(dp646
S'VERB'
p647
F1.0
s(lp648
(g72
I7
tp649
atp650
a(S'k\xc3\xb6nnen'
p651
(dp652
S'VERB'
p653
F0.999989
s(lp654
(g59
I5
tp655
atp656
a(g603
(dp657
g231
F1.0
s(lp658
tp659
a(S'wann'
p660
(dp661
S'PRON'
p662
F1.0
s(lp663
(g108
I11
tp664
atp665
a(S'die'
p666
(dp667
S'PRON'
p668
F0.002876
sS'DET'
p669
F0.995834
s(lp670
(g221
I25
tp671
atp672
a(S'kommission'
p673
(dp674
S'ADJ'
p675
F0.015542
sS'NOUN'
p676
F0.971509
s(lp677
(g228
I26
tp678
atp679
a(S'einen'
p680
(dp681
S'ADJ'
p682
F0.002068
sS'DET'
p683
F0.997188
s(lp684
(g117
I12
tp685
atp686
a(S'neuen'
p687
(dp688
S'ADJ'
p689
F1.0
s(lp690
(g124
I13
tp691
atp692
a(S'\xc3\x84nderungsantrag'
p693
(dp694
S'NOUN'
p695
F1.0
s(lp696
(g131
I14
tp697
atp698
a(S'f\xc3\xbcr'
p699
(dp700
S'ADP'
p701
F1.0
s(lp702
(g138
I15
tp703
atp704
a(S'die'
p705
(dp706
S'PRON'
p707
F0.006486
sS'DET'
p708
F0.990875
s(lp709
(g147
I16
tp710
atp711
a(S'derzeit'
p712
(dp713
S'ADV'
p714
F1.0
s(lp715
(g174
I17
tp716
atp717
a(S'g\xc3\xbcltige'
p718
(dp719
S'ADJ'
p720
F1.0
s(lp721
(g174
I17
tp722
atp723
a(S'eurovignetten-richtlinie'
p724
(dp725
S'ADJ'
p726
F0.003048
sS'NOUN'
p727
F0.99459
s(lp728
tp729
a(S'vorlegen'
p730
(dp731
S'VERB'
p732
F1.0
s(lp733
(g174
I17
tp734
atp735
a(S'wird'
p736
(dp737
S'VERB'
p738
F1.0
s(lp739
(g196
I21
tp740
atp741
a(g231
(dp742
g231
F1.0
s(lp743
(g231
I27
tp744
atp745
asS'it'
p746
(lp747
(S'spero'
p748
(dp749
S'VERB'
p750
F1.0
s(lp751
(g25
I1
tp752
atp753
a(S'che'
p754
(dp755
S'PRON'
p756
F0.984423
sS'CONJ'
p757
F0.014927
sS'ADJ'
p758
F0.00065
s(lp759
(g10
I0
tp760
atp761
a(S'il'
p762
(dp763
S'DET'
p764
F1.0
s(lp765
tp766
a(S'commissario'
p767
(dp768
S'VERB'
p769
F0.001992
sS'NOUN'
p770
F0.998008
s(lp771
(g38
I2
tp772
atp773
a(S'barrot'
p774
(dp775
S'NOUN'
p776
F1.0
s(lp777
(g45
I3
tp778
atp779
a(S'ci'
p780
(dp781
S'ADV'
p782
F0.002454
sS'PRON'
p783
F0.997435
sS'NOUN'
p784
F0.000111
s(lp785
(g52
I6
tp786
atp787
a(S'fornir\xc3\xa0'
p788
(dp789
S'VERB'
p790
F1.0
s(lp791
(g259
I4
tp792
atp793
a(S'informazioni'
p794
(dp795
S'NOUN'
p796
F1.0
s(lp797
tp798
a(S'dettagliate'
p799
(dp800
S'VERB'
p801
F0.336377
sS'ADJ'
p802
F0.663623
s(lp803
(g72
I7
tp804
atp805
a(S'in'
p806
(dp807
S'ADP'
p808
F1.0
s(lp809
tp810
a(S'merito'
p811
(dp812
S'VERB'
p813
F3.7e-05
sS'NOUN'
p814
F0.999963
s(lp815
(g79
I8
tp816
atp817
a(S'alla'
p818
(dp819
S'ADP'
p820
F1.0
s(lp821
(g88
I9
tp822
atp823
a(S'data'
p824
(dp825
S'ADJ'
p826
F0.004934
sS'VERB'
p827
F0.011393
sS'NOUN'
p828
F0.983672
s(lp829
(g96
I10
tp830
atp831
a(S'in'
p832
(dp833
S'ADP'
p834
F1.0
s(lp835
tp836
a(S'cui'
p837
(dp838
S'PRON'
p839
F1.0
s(lp840
(g108
I11
tp841
atp842
a(S'la'
p843
(dp844
S'PRON'
p845
F0.001031
sS'DET'
p846
F0.998969
s(lp847
(g221
I25
tp848
atp849
a(S'commissione'
p850
(dp851
S'NOUN'
p852
F1.0
s(lp853
(g228
I26
tp854
atp855
a(S'proporr\xc3\xa0'
p856
(dp857
S'VERB'
p858
F1.0
s(lp859
(g174
I17
tp860
atp861
a(S'un'
p862
(dp863
S'PRON'
p864
F0.00125
sS'DEF'
p865
F0.99875
s(lp866
(g117
I12
tp867
atp868
a(S'nuovo'
p869
(dp870
S'NOUN'
p871
F0.00142
sS'ADJ'
p872
F0.99858
s(lp873
(g124
I13
tp874
atp875
a(S'emendamento'
p876
(dp877
S'NOUN'
p878
F1.0
s(lp879
(g131
I14
tp880
atp881
a(S'della'
p882
(dp883
S'DEF'
p884
F0.002513
sS'ADP'
p885
F0.997487
s(lp886
(g138
I15
tp887
atp888
a(S'direttiva'
p889
(dp890
S'ADJ'
p891
F0.488071
sS'NOUN'
p892
F0.511929
s(lp893
(g160
I18
tp894
atp895
a(S"sull'"
p896
(dp897
S'ADJ'
p898
F0.021204
sS'VERB'
p899
F0.0034119999999999997
sS'NOUN'
p900
F0.975383
s(lp901
tp902
a(S'eurobollo'
p903
(dp904
S'ADJ'
p905
F0.036311
sS'VERB'
p906
F0.002501
sS'NOUN'
p907
F0.961188
s(lp908
(g174
I17
tp909
atp910
a(S'in'
p911
(dp912
S'ADP'
p913
F1.0
s(lp914
(g182
I19
tp915
atp916
a(S'vigore'
p917
(dp918
S'NOUN'
p919
F1.0
s(lp920
(g189
I20
tp921
atp922
a(g231
(dp923
g231
F1.0
s(lp924
(g231
I27
tp925
atp926
asS'sk'
p927
(lp928
(S'd\xc3\xbafam'
p929
(dp930
S'VERB'
p931
F1.0
s(lp932
tp933
a(g603
(dp934
g231
F1.0
s(lp935
tp936
a(S'\xc5\xbee'
p937
(dp938
g6
F0.00032700000000000003
sS'CONJ'
p939
F0.999673
s(lp940
(g25
I1
tp941
atp942
a(S'n\xc3\xa1m'
p943
(dp944
S'PRON'
p945
F0.978689
sg6
F0.021311
s(lp946
(g52
I6
tp947
atp948
a(S'p\xc3\xa1n'
p949
(dp950
S'NOUN'
p951
F1.0
s(lp952
tp953
a(S'komis\xc3\xa1r'
p954
(dp955
S'NOUN'
p956
F1.0
s(lp957
(g38
I2
tp958
atp959
a(S'barrot'
p960
(dp961
S'ADJ'
p962
F0.000218
sg6
F0.000359
sS'NOUN'
p963
F0.9994230000000001
s(lp964
(g45
I3
tp965
atp966
a(S'povie'
p967
(dp968
S'VERB'
p969
F1.0
s(lp970
tp971
a(S'podrobnosti'
p972
(dp973
S'NOUN'
p974
F1.0
s(lp975
(g72
I7
tp976
atp977
a(S'o'
p978
(dp979
g6
F0.00028700000000000004
sS'CONJ'
p980
F5.8e-05
sS'NOUN'
p981
F8.000000000000001e-06
sS'ADP'
p982
F0.999646
s(lp983
(g79
I8
tp984
atp985
a(S'd\xc3\xa1tume'
p986
(dp987
S'NOUN'
p988
F1.0
s(lp989
(g96
I10
tp990
atp991
a(g603
(dp992
g231
F1.0
s(lp993
tp994
a(S'ke\xc4\x8f'
p995
(dp996
g6
F0.000341
sS'CONJ'
p997
F0.999659
s(lp998
(g108
I11
tp999
atp1000
a(S'komisia'
p1001
(dp1002
S'NOUN'
p1003
F1.0
s(lp1004
(g228
I26
tp1005
atp1006
a(S'predlo\xc5\xbe\xc3\xad'
p1007
(dp1008
S'VERB'
p1009
F1.0
s(lp1010
(g174
I17
tp1011
atp1012
a(S'novelu'
p1013
(dp1014
S'NOUN'
p1015
F1.0
s(lp1016
(g174
I17
tp1017
atp1018
a(S's\xc3\xba\xc4\x8dasnej'
p1019
(dp1020
S'ADJ'
p1021
F1.0
s(lp1022
tp1023
a(S'smernice'
p1024
(dp1025
S'NOUN'
p1026
F1.0
s(lp1027
(g160
I18
tp1028
atp1029
a(S'eurovignette'
p1030
(dp1031
S'ADV'
p1032
F0.000677
sg6
F0.001022
sS'NOUN'
p1033
F0.9983
s(lp1034
(g174
I17
tp1035
atp1036
a(g231
(dp1037
g231
F1.0
s(lp1038
(g231
I27
tp1039
atp1040
asS'pl'
p1041
(lp1042
(S'mam'
p1043
(dp1044
S'VERB'
p1045
F0.999999
sS'NOUN'
p1046
F1e-06
s(lp1047
(g10
I0
tp1048
atp1049
a(S'nadziej\xc4\x99'
p1050
(dp1051
S'NOUN'
p1052
F1.0
s(lp1053
tp1054
a(g603
(dp1055
g6
F0.0
sg231
F1.0
s(lp1056
tp1057
a(S'\xc5\xbce'
p1058
(dp1059
S'PRT'
p1060
F0.000147
sS'CONJ'
p1061
F0.999852
s(lp1062
(g25
I1
tp1063
atp1064
a(S'komisarz'
p1065
(dp1066
S'NOUN'
p1067
F1.0
s(lp1068
(g38
I2
tp1069
atp1070
a(S'barrot'
p1071
(dp1072
S'ADV'
p1073
F6.9e-05
sS'ADJ'
p1074
F7e-06
sS'VERB'
p1075
F4.2e-05
sS'NOUN'
p1076
F0.9998810000000001
s(lp1077
(g45
I3
tp1078
atp1079
a(S'zaproponuje'
p1080
(dp1081
S'VERB'
p1082
F1.0
s(lp1083
(g59
I5
tp1084
atp1085
a(S'nam'
p1086
(dp1087
S'PRON'
p1088
F1.0
s(lp1089
(g52
I6
tp1090
atp1091
a(S'szczeg\xc3\xb3\xc5\x82y'
p1092
(dp1093
S'NOUN'
p1094
F1.0
s(lp1095
(g72
I7
tp1096
atp1097
a(S'zwi\xc4\x85zane'
p1098
(dp1099
S'VERB'
p1100
F0.000472
sS'ADJ'
p1101
F0.9995270000000002
s(lp1102
(g79
I8
tp1103
atp1104
a(S'z'
p1105
(dp1106
S'PRT'
p1107
F8e-06
sS'VERB'
p1108
F2e-06
sS'NOUN'
p1109
F0.0
sS'ADP'
p1110
F0.99999
sg6
F0.0
s(lp1111
(g88
I9
tp1112
atp1113
a(S'dniem'
p1114
(dp1115
S'NOUN'
p1116
F1.0
s(lp1117
(g96
I10
tp1118
atp1119
a(g603
(dp1120
g6
F0.0
sg231
F1.0
s(lp1121
tp1122
a(S'kiedy'
p1123
(dp1124
S'ADV'
p1125
F0.804079
sS'CONJ'
p1126
F0.195921
s(lp1127
(g108
I11
tp1128
atp1129
a(S'nowa'
p1130
(dp1131
S'ADJ'
p1132
F1.0
s(lp1133
(g124
I13
tp1134
atp1135
a(S'poprawka'
p1136
(dp1137
S'NOUN'
p1138
F1.0
s(lp1139
(g131
I14
tp1140
atp1141
a(S'dyrektywy'
p1142
(dp1143
S'NOUN'
p1144
F1.0
s(lp1145
(g160
I18
tp1146
atp1147
a(g978
(dp1148
g6
F0.000122
sS'VERB'
p1149
F4e-06
sS'NOUN'
p1150
F3e-06
sS'ADP'
p1151
F0.99987
sS'PRT'
p1152
F1e-06
s(lp1153
tp1154
a(S'eurowinietach'
p1155
(dp1156
S'ADV'
p1157
F0.000157
sS'ADJ'
p1158
F0.0016849999999999999
sS'NOUN'
p1159
F0.9981560000000003
s(lp1160
(g174
I17
tp1161
atp1162
a(S'b\xc4\x99dzie'
p1163
(dp1164
S'VERB'
p1165
F1.0
s(lp1166
(g196
I21
tp1167
atp1168
a(S'przez'
p1169
(dp1170
S'ADP'
p1171
F1.0
s(lp1172
(g212
I24
tp1173
atp1174
a(S'komisj\xc4\x99'
p1175
(dp1176
S'NOUN'
p1177
F1.0
s(lp1178
(g228
I26
tp1179
atp1180
a(S'wprowadzona'
p1181
(dp1182
S'VERB'
p1183
F1.0
s(lp1184
(g204
I23
tp1185
atp1186
a(S'w'
p1187
(dp1188
S'ADJ'
p1189
F0.0
sg6
F0.0
sS'NOUN'
p1190
F0.0
sS'ADP'
p1191
F0.999999
s(lp1192
(g182
I19
tp1193
atp1194
a(S'\xc5\xbcycie'
p1195
(dp1196
S'VERB'
p1197
F0.0037560000000000002
sS'NOUN'
p1198
F0.9962439999999999
s(lp1199
(g189
I20
tp1200
atp1201
a(g231
(dp1202
g231
F1.0
s(lp1203
(g231
I27
tp1204
atp1205
asS'sl'
p1206
(lp1207
(S'upam'
p1208
(dp1209
S'VERB'
p1210
F1.0
s(lp1211
(g25
I1
tp1212
atp1213
a(g603
(dp1214
g231
F1.0
s(lp1215
tp1216
a(S'da'
p1217
(dp1218
S'PRT'
p1219
F7e-06
sS'CONJ'
p1220
F0.999741
sS'VERB'
p1221
F0.000251
sg6
F1e-06
s(lp1222
(g10
I0
tp1223
atp1224
a(S'nam'
p1225
(dp1226
S'PRON'
p1227
F0.999928
sg6
F7.2e-05
s(lp1228
(g52
I6
tp1229
atp1230
a(S'bo'
p1231
(dp1232
S'VERB'
p1233
F1.0
s(lp1234
(g259
I4
tp1235
atp1236
a(S'komisar'
p1237
(dp1238
S'NOUN'
p1239
F1.0
s(lp1240
(g38
I2
tp1241
atp1242
a(S'barrot'
p1243
(dp1244
S'ADV'
p1245
F0.062445
sS'NOUN'
p1246
F0.9340590000000001
sS'VERB'
p1247
F3.5e-05
sg6
F0.000957
sS'NUM'
p1248
F4e-06
sS'ADJ'
p1249
F0.002502
s(lp1250
(g45
I3
tp1251
atp1252
a(S'ponudil'
p1253
(dp1254
S'VERB'
p1255
F1.0
s(lp1256
(g59
I5
tp1257
atp1258
a(S'podrobnosti'
p1259
(dp1260
S'NOUN'
p1261
F1.0
s(lp1262
(g72
I7
tp1263
atp1264
a(S'v'
p1265
(dp1266
S'ADP'
p1267
F1.0
s(lp1268
tp1269
a(S'zvezi'
p1270
(dp1271
S'NOUN'
p1272
F1.0
s(lp1273
(g79
I8
tp1274
atp1275
a(g1105
(dp1276
S'ADP'
p1277
F1.0
s(lp1278
(g88
I9
tp1279
atp1280
a(S'datumom'
p1281
(dp1282
S'ADV'
p1283
F1.3e-05
sS'ADJ'
p1284
F7e-06
sS'VERB'
p1285
F4.9999999999999996e-06
sS'NOUN'
p1286
F0.9999760000000002
s(lp1287
(g96
I10
tp1288
atp1289
a(g603
(dp1290
g231
F1.0
s(lp1291
tp1292
a(S'ko'
p1293
(dp1294
S'CONJ'
p1295
F1.0
s(lp1296
(g108
I11
tp1297
atp1298
a(S'bo'
p1299
(dp1300
S'VERB'
p1301
F1.0
s(lp1302
(g196
I21
tp1303
atp1304
a(S'komisija'
p1305
(dp1306
S'NOUN'
p1307
F1.0
s(lp1308
(g228
I26
tp1309
atp1310
a(S'izdala'
p1311
(dp1312
S'VERB'
p1313
F1.0
s(lp1314
(g204
I23
tp1315
atp1316
a(S'nov'
p1317
(dp1318
S'ADJ'
p1319
F1.0
s(lp1320
(g124
I13
tp1321
atp1322
a(S'predlog'
p1323
(dp1324
S'NOUN'
p1325
F1.0
s(lp1326
tp1327
a(S'spremembe'
p1328
(dp1329
S'NOUN'
p1330
F1.0000000000000002
s(lp1331
(g131
I14
tp1332
atp1333
a(S'veljavne'
p1334
(dp1335
S'ADJ'
p1336
F1.0
s(lp1337
(g189
I20
tp1338
atp1339
a(S'direktive'
p1340
(dp1341
S'NOUN'
p1342
F1.0
s(lp1343
(g160
I18
tp1344
atp1345
a(g978
(dp1346
S'NOUN'
p1347
F0.00073
sS'ADP'
p1348
F0.99927
s(lp1349
tp1350
a(S'evrovinjeti'
p1351
(dp1352
S'ADV'
p1353
F0.000257
sS'ADJ'
p1354
F9e-06
sS'VERB'
p1355
F9e-06
sS'NOUN'
p1356
F0.9997239999999998
s(lp1357
(g174
I17
tp1358
atp1359
a(g231
(dp1360
g231
F1.0
s(lp1361
(g231
I27
tp1362
atp1363
asS'es'
p1364
(lp1365
(S'espero'
p1366
(dp1367
S'VERB'
p1368
F1.0
s(lp1369
(g25
I1
tp1370
atp1371
a(S'que'
p1372
(dp1373
g6
F0.0
sS'CONJ'
p1374
F1.0
s(lp1375
(g10
I0
tp1376
atp1377
a(S'el'
p1378
(dp1379
S'PRON'
p1380
F4e-05
sS'DET'
p1381
F0.99996
s(lp1382
tp1383
a(S'comisario'
p1384
(dp1385
S'NOUN'
p1386
F1.0
s(lp1387
(g38
I2
tp1388
atp1389
a(S'barrot'
p1390
(dp1391
S'ADJ'
p1392
F0.001048
sS'NOUN'
p1393
F0.9989520000000001
s(lp1394
(g45
I3
tp1395
atp1396
a(S'nos'
p1397
(dp1398
S'PRON'
p1399
F1.0
s(lp1400
(g52
I6
tp1401
atp1402
a(S'proporcione'
p1403
(dp1404
S'VERB'
p1405
F1.0
s(lp1406
(g59
I5
tp1407
atp1408
a(S'detalles'
p1409
(dp1410
S'NOUN'
p1411
F1.0
s(lp1412
(g72
I7
tp1413
atp1414
a(S'de'
p1415
(dp1416
g6
F0.0
sS'CONJ'
p1417
F1.7e-05
sS'ADP'
p1418
F0.999983
s(lp1419
(g79
I8
tp1420
atp1421
a(S'la'
p1422
(dp1423
g6
F0.0
sS'PRON'
p1424
F0.0
sS'DET'
p1425
F0.999999
sS'NOUN'
p1426
F0.0
s(lp1427
(g88
I9
tp1428
atp1429
a(S'fecha'
p1430
(dp1431
S'NOUN'
p1432
F1.0
s(lp1433
(g96
I10
tp1434
atp1435
a(S'en'
p1436
(dp1437
g6
F0.0
sS'CONJ'
p1438
F0.00012
sS'ADP'
p1439
F0.99988
s(lp1440
(g108
I11
tp1441
atp1442
a(S'que'
p1443
(dp1444
g6
F0.0
sS'CONJ'
p1445
F1.0
s(lp1446
(g366
I22
tp1447
atp1448
a(S'la'
p1449
(dp1450
S'PRON'
p1451
F0.00027
sS'DET'
p1452
F0.99973
sg6
F0.0
sS'NOUN'
p1453
F0.0
s(lp1454
(g221
I25
tp1455
atp1456
a(S'comisi\xc3\xb3n'
p1457
(dp1458
S'NOUN'
p1459
F1.0
s(lp1460
(g228
I26
tp1461
atp1462
a(S'aplicar\xc3\xa1'
p1463
(dp1464
S'VERB'
p1465
F1.0
s(lp1466
(g174
I17
tp1467
atp1468
a(S'una'
p1469
(dp1470
S'DET'
p1471
F1.0
s(lp1472
(g117
I12
tp1473
atp1474
a(S'nueva'
p1475
(dp1476
S'NOUN'
p1477
F0.1414
sS'ADJ'
p1478
F0.8586
s(lp1479
(g124
I13
tp1480
atp1481
a(S'enmienda'
p1482
(dp1483
S'VERB'
p1484
F1.0
s(lp1485
(g131
I14
tp1486
atp1487
a(S'de'
p1488
(dp1489
g6
F0.0
sS'CONJ'
p1490
F2.6e-05
sS'ADP'
p1491
F0.999974
s(lp1492
(g138
I15
tp1493
atp1494
a(S'la'
p1495
(dp1496
S'NOUN'
p1497
F1e-06
sS'PRON'
p1498
F0.0
sS'DET'
p1499
F0.999998
sg6
F0.0
s(lp1500
(g147
I16
tp1501
atp1502
a(S'directiva'
p1503
(dp1504
S'ADJ'
p1505
F0.016621
sS'NOUN'
p1506
F0.983379
s(lp1507
(g160
I18
tp1508
atp1509
a(S'vigente'
p1510
(dp1511
S'ADJ'
p1512
F1.0
s(lp1513
(g189
I20
tp1514
atp1515
a(S'sobre'
p1516
(dp1517
S'NOUN'
p1518
F0.0
sS'ADP'
p1519
F1.0
s(lp1520
tp1521
a(S'la'
p1522
(dp1523
S'NOUN'
p1524
F1.3e-05
sS'PRON'
p1525
F0.0
sS'DET'
p1526
F0.999986
sg6
F1e-06
s(lp1527
tp1528
a(S'eurovi\xc3\xb1eta'
p1529
(dp1530
S'ADJ'
p1531
F0.261675
sS'NOUN'
p1532
F0.738325
s(lp1533
(g174
I17
tp1534
atp1535
a(g231
(dp1536
g231
F1.0
s(lp1537
(g231
I27
tp1538
atp1539
as.