(dp0
S'fr'
p1
(lp2
(S'('
p3
(dp4
S'.'
p5
F1.0
s(lp6
(g3
I0
tp7
atp8
a(S'pl'
p9
(dp10
S'ADJ'
p11
F0.197818
sS'VERB'
p12
F0.0012339999999999999
sS'NOUN'
p13
F0.800948
s(lp14
(S'pl'
p15
I1
tp16
atp17
a(S')'
p18
(dp19
g5
F1.0
s(lp20
(g18
I2
tp21
atp22
a(S'monsieur'
p23
(dp24
S'NOUN'
p25
F1.0
s(lp26
(S'mr'
p27
I3
tp28
atp29
a(S'le'
p30
(dp31
S'PRON'
p32
F0.000321
sS'DET'
p33
F0.999679
s(lp34
tp35
a(S'pr\xc3\xa9sident'
p36
(dp37
S'VERB'
p38
F4.5e-05
sS'NOUN'
p39
F0.999955
s(lp40
(S'president'
p41
I4
tp42
atp43
a(S','
p44
(dp45
g5
F1.0
s(lp46
(g44
I5
tp47
atp48
a(S'le'
p49
(dp50
S'PRON'
p51
F0.011961
sS'DET'
p52
F0.988039
s(lp53
(S'the'
p54
I6
tp55
atp56
a(S'trait\xc3\xa9'
p57
(dp58
S'VERB'
p59
F0.016394
sS'NOUN'
p60
F0.983606
s(lp61
(S'treaty'
p62
I8
tp63
atp64
a(S'de'
p65
(dp66
S'ADP'
p67
F1.0
s(lp68
tp69
a(S'lisbonne'
p70
(dp71
S'ADJ'
p72
F0.041421
sS'VERB'
p73
F0.000366
sS'NOUN'
p74
F0.958213
s(lp75
(S'lisbon'
p76
I7
tp77
atp78
a(S'\xc3\xa9tait'
p79
(dp80
S'VERB'
p81
F1.0
s(lp82
(S'was'
p83
I9
tp84
atp85
a(S'un'
p86
(dp87
S'NOUN'
p88
F0.000936
sS'NUM'
p89
F0.004722
sS'DET'
p90
F0.994342
s(lp91
(S'a'
p92
I10
tp93
atp94
a(S'compromis'
p95
(dp96
S'VERB'
p97
F0.003097
sS'NOUN'
p98
F0.996904
s(lp99
tp100
a(g44
(dp101
g5
F1.0
s(lp102
tp103
a(S'conclu'
p104
(dp105
S'VERB'
p106
F1.0
s(lp107
(S'compromise'
p108
I13
tp109
atp110
a(S'avec'
p111
(dp112
S'ADV'
p113
F0.002915
sS'ADP'
p114
F0.997085
s(lp115
(S'very'
p116
I11
tp117
atp118
a(S'les'
p119
(dp120
S'PRON'
p121
F0.062098
sS'DET'
p122
F0.937885
sS'ADP'
p123
F1.8e-05
s(lp124
tp125
a(S'plus'
p126
(dp127
S'ADV'
p128
F0.999909
sS'VERB'
p129
F9.1e-05
s(lp130
tp131
a(S'grandes'
p132
(dp133
S'ADJ'
p134
F1.0
s(lp135
(g116
I11
tp136
atp137
a(S'difficult\xc3\xa9s'
p138
(dp139
S'NOUN'
p140
F1.0
s(lp141
(S'difficult'
p142
I12
tp143
atp144
a(S'pour'
p145
(dp146
S'CONJ'
p147
F0.171131
sS'ADP'
p148
F0.828869
s(lp149
(S'for'
p150
I14
tp151
atp152
a(S'toutes'
p153
(dp154
S'PRON'
p155
F1.0
s(lp156
(S'all'
p157
I15
tp158
atp159
a(S'les'
p160
(dp161
S'PRON'
p162
F0.000317
sS'DET'
p163
F0.999681
sS'ADP'
p164
F2e-06
s(lp165
tp166
a(S'parties'
p167
(dp168
S'ADJ'
p169
F0.024264
sS'VERB'
p170
F0.000949
sS'NOUN'
p171
F0.974787
s(lp172
(S'parties'
p173
I16
tp174
atp175
a(S'impliqu\xc3\xa9es'
p176
(dp177
S'VERB'
p178
F1.0
s(lp179
(S'involved'
p180
I17
tp181
atp182
a(g5
(dp183
g5
F1.0
s(lp184
(g44
I18
tp185
atp186
a(S"c'"
p187
(dp188
S'ADJ'
p189
F0.079749
sS'VERB'
p190
F0.5393100000000001
sS'NOUN'
p191
F0.380941
s(lp192
(S'so'
p193
I19
tp194
atp195
a(S'est'
p196
(dp197
S'VERB'
p198
F0.999313
sS'NOUN'
p199
F0.000687
s(lp200
tp201
a(S'pourquoi'
p202
(dp203
S'ADV'
p204
F0.997324
sS'NOUN'
p205
F0.002676
s(lp206
(g193
I19
tp207
atp208
a(S'je'
p209
(dp210
S'PRON'
p211
F1.0
s(lp212
(S'i'
p213
I20
tp214
atp215
a(S'suis'
p216
(dp217
S'VERB'
p218
F1.0
s(lp219
(S'am'
p220
I21
tp221
atp222
a(S'stup\xc3\xa9fait'
p223
(dp224
S'VERB'
p225
F0.995353
sS'ADJ'
p226
F0.004647
s(lp227
(S'amazed'
p228
I22
tp229
atp230
a(S'de'
p231
(dp232
S'ADP'
p233
F1.0
s(lp234
(S'to'
p235
I23
tp236
atp237
a(S'lire'
p238
(dp239
S'VERB'
p240
F0.968482
sS'NOUN'
p241
F0.031518
s(lp242
(S'read'
p243
I24
tp244
atp245
a(S'dans'
p246
(dp247
S'NOUN'
p248
F1.1e-05
sS'ADP'
p249
F0.999989
s(lp250
(S'in'
p251
I26
tp252
atp253
a(S'ce'
p254
(dp255
S'PRON'
p256
F1.0
s(lp257
(S'this'
p258
I27
tp259
atp260
a(S'rapport'
p261
(dp262
S'NOUN'
p263
F1.0
s(lp264
(S'report'
p265
I28
tp266
atp267
a(S'que'
p268
(dp269
S'ADV'
p270
F0.06487
sS'PRON'
p271
F0.089411
sS'CONJ'
p272
F0.845718
s(lp273
(S'that'
p274
I29
tp275
atp276
a(S'seule'
p277
(dp278
S'NOUN'
p279
F0.010302
sS'ADJ'
p280
F0.989698
s(lp281
(S'nothing'
p282
I31
tp283
atp284
a(S'une'
p285
(dp286
S'NOUN'
p287
F0.000238
sS'NUM'
p288
F0.000601
sS'DET'
p289
F0.999161
s(lp290
(S'less'
p291
I32
tp292
atp293
a(S'pr\xc3\xa9paration'
p294
(dp295
S'NOUN'
p296
F1.0
s(lp297
(S'preparation'
p298
I34
tp299
atp300
a(S'du'
p301
(dp302
S'ADP'
p303
F1.0
s(lp304
(S'of'
p305
I35
tp306
atp307
a(S'fondement'
p308
(dp309
S'NOUN'
p310
F1.0
s(lp311
(S'ground'
p312
I37
tp313
atp314
a(S'des'
p315
(dp316
S'DET'
p317
F2.1e-05
sS'ADP'
p318
F0.999979
s(lp319
(S'for'
p320
I38
tp321
atp322
a(S'campagnes'
p323
(dp324
S'NOUN'
p325
F1.0
s(lp326
(S'campaigns'
p327
I39
tp328
atp329
a(g92
(dp330
S'VERB'
p331
F1.0
s(lp332
tp333
a(S'vis\xc3\xa9'
p334
(dp335
S'VERB'
p336
F0.986934
sS'NOUN'
p337
F0.013066
s(lp338
(S'aimed'
p339
I40
tp340
atp341
a(S'\xc3\xa0'
p342
(dp343
S'ADP'
p344
F1.0
s(lp345
(S'at'
p346
I41
tp347
atp348
a(S'constitutionnaliser'
p349
(dp350
S'VERB'
p351
F1.0
s(lp352
(S'constitutionalising'
p353
I42
tp354
atp355
a(S"l'"
p356
(dp357
S'ADJ'
p358
F0.050629
sS'VERB'
p359
F0.794975
sS'NOUN'
p360
F0.154398
s(lp361
(S'the'
p362
I43
tp363
atp364
a(S'union'
p365
(dp366
S'NOUN'
p367
F1.0
s(lp368
tp369
a(S'europ\xc3\xa9enne'
p370
(dp371
S'NOUN'
p372
F0.012852
sS'ADJ'
p373
F0.987148
s(lp374
(S'eu'
p375
I44
tp376
atp377
a(g5
(dp378
g5
F1.0
s(lp379
(g5
I45
tp380
atp381
asS'en'
p382
(lp383
(g3
(dp384
g5
F1.0
s(lp385
(g3
I0
tp386
atp387
a(g15
(dp388
S'ADJ'
p389
F0.012789
sS'VERB'
p390
F0.0009939999999999999
sS'NOUN'
p391
F0.986217
s(lp392
(g15
I1
tp393
atp394
a(g18
(dp395
g5
F1.0
s(lp396
(g18
I2
tp397
atp398
a(g27
(dp399
S'ADJ'
p400
F0.004952
sS'NOUN'
p401
F0.995048
s(lp402
(g27
I3
tp403
atp404
a(g41
(dp405
S'NOUN'
p406
F1.0
s(lp407
(g41
I4
tp408
atp409
a(g44
(dp410
g5
F1.0
s(lp411
(g44
I5
tp412
atp413
a(g54
(dp414
S'NOUN'
p415
F5e-06
sS'DET'
p416
F0.999995
s(lp417
(g54
I6
tp418
atp419
a(g76
(dp420
S'ADJ'
p421
F0.101197
sS'VERB'
p422
F3e-05
sS'NOUN'
p423
F0.898772
s(lp424
(g76
I7
tp425
atp426
a(g62
(dp427
S'NOUN'
p428
F1.0
s(lp429
(g62
I8
tp430
atp431
a(g83
(dp432
S'VERB'
p433
F1.0
s(lp434
(g83
I9
tp435
atp436
a(g92
(dp437
S'NOUN'
p438
F0.0
sS'DET'
p439
F1.0
s(lp440
(g92
I10
tp441
atp442
a(g116
(dp443
S'ADV'
p444
F0.671314
sS'ADJ'
p445
F0.328686
s(lp446
(g116
I11
tp447
atp448
a(g142
(dp449
S'ADJ'
p450
F1.0
s(lp451
(g142
I12
tp452
atp453
a(g108
(dp454
S'ADJ'
p455
F0.004069
sS'VERB'
p456
F1.6e-05
sS'NOUN'
p457
F0.995915
s(lp458
(g108
I13
tp459
atp460
a(g150
(dp461
S'ADP'
p462
F1.0
s(lp463
(g150
I14
tp464
atp465
a(g157
(dp466
S'ADV'
p467
F0.000707
sS'DET'
p468
F0.999293
s(lp469
(g157
I15
tp470
atp471
a(g173
(dp472
S'VERB'
p473
F0.000798
sS'NOUN'
p474
F0.999202
s(lp475
(g173
I16
tp476
atp477
a(g180
(dp478
S'VERB'
p479
F0.9851890000000001
sS'ADJ'
p480
F0.014811
s(lp481
(g180
I17
tp482
atp483
a(g44
(dp484
g5
F1.0
s(lp485
(g44
I18
tp486
atp487
a(g193
(dp488
S'ADV'
p489
F0.572585
sS'NOUN'
p490
F3.9e-05
sS'CONJ'
p491
F0.035919
sS'ADJ'
p492
F0.000285
sS'ADP'
p493
F0.391171
s(lp494
(g193
I19
tp495
atp496
a(g213
(dp497
S'X'
p498
F0.000206
sS'NOUN'
p499
F0.999794
s(lp500
(g213
I20
tp501
atp502
a(g220
(dp503
S'ADV'
p504
F0.003854
sS'VERB'
p505
F0.996146
s(lp506
(g220
I21
tp507
atp508
a(g228
(dp509
S'VERB'
p510
F0.956229
sS'ADJ'
p511
F0.043771
s(lp512
(g228
I22
tp513
atp514
a(g235
(dp515
S'ADV'
p516
F0.0
sS'PRT'
p517
F1.0
sS'ADP'
p518
F0.0
s(lp519
(g235
I23
tp520
atp521
a(g243
(dp522
S'VERB'
p523
F0.997556
sS'NOUN'
p524
F0.002445
s(lp525
(g243
I24
tp526
atp527
a(S'words'
p528
(dp529
S'VERB'
p530
F2e-06
sS'NOUN'
p531
F0.999998
s(lp532
(g528
I25
tp533
atp534
a(g251
(dp535
S'ADV'
p536
F0.000295
sS'PRT'
p537
F0.000234
sS'ADP'
p538
F0.999471
s(lp539
(g251
I26
tp540
atp541
a(g258
(dp542
S'ADV'
p543
F5e-06
sS'NOUN'
p544
F1.9e-05
sS'DET'
p545
F0.999975
s(lp546
(g258
I27
tp547
atp548
a(g265
(dp549
S'VERB'
p550
F0.001196
sS'NOUN'
p551
F0.998804
s(lp552
(g265
I28
tp553
atp554
a(g274
(dp555
S'ADV'
p556
F0.000439
sS'DET'
p557
F0.999469
sS'ADP'
p558
F9.2e-05
s(lp559
(g274
I29
tp560
atp561
a(S'are'
p562
(dp563
S'VERB'
p564
F0.999756
sS'NOUN'
p565
F0.000244
s(lp566
(g562
I30
tp567
atp568
a(g282
(dp569
S'ADV'
p570
F0.390758
sS'NOUN'
p571
F0.609242
s(lp572
(g282
I31
tp573
atp574
a(g291
(dp575
S'ADV'
p576
F0.419759
sS'CONJ'
p577
F0.035869
sS'ADJ'
p578
F0.544172
sS'ADP'
p579
F0.000199
s(lp580
(g291
I32
tp581
atp582
a(S'than'
p583
(dp584
S'ADP'
p585
F1.0
s(lp586
(g583
I33
tp587
atp588
a(g298
(dp589
S'NOUN'
p590
F1.0
s(lp591
(g298
I34
tp592
atp593
a(g305
(dp594
S'ADP'
p595
F1.0
s(lp596
(g305
I35
tp597
atp598
a(S'the'
p599
(dp600
S'NOUN'
p601
F2e-06
sS'DET'
p602
F0.999998
s(lp603
(g599
I36
tp604
atp605
a(g312
(dp606
S'ADJ'
p607
F0.007587
sS'VERB'
p608
F0.010917
sS'NOUN'
p609
F0.981496
s(lp610
(g312
I37
tp611
atp612
a(g320
(dp613
S'ADP'
p614
F1.0
s(lp615
(g320
I38
tp616
atp617
a(g327
(dp618
S'VERB'
p619
F0.000118
sS'NOUN'
p620
F0.999882
s(lp621
(g327
I39
tp622
atp623
a(g339
(dp624
S'VERB'
p625
F1.0
s(lp626
(g339
I40
tp627
atp628
a(g346
(dp629
S'NOUN'
p630
F1.7e-05
sS'ADP'
p631
F0.999983
s(lp632
(g346
I41
tp633
atp634
a(g353
(dp635
S'ADJ'
p636
F0.000376
sS'VERB'
p637
F0.996635
sS'NOUN'
p638
F0.002989
s(lp639
(g353
I42
tp640
atp641
a(g362
(dp642
S'NOUN'
p643
F4e-06
sS'DET'
p644
F0.999996
s(lp645
(g362
I43
tp646
atp647
a(g375
(dp648
S'ADV'
p649
F2.6e-05
sS'ADJ'
p650
F0.001235
sS'VERB'
p651
F0.000232
sS'NOUN'
p652
F0.998506
s(lp653
(g375
I44
tp654
atp655
a(g5
(dp656
g5
F1.0
s(lp657
(g5
I45
tp658
atp659
asS'nl'
p660
(lp661
(g3
(dp662
g5
F1.0
s(lp663
(g3
I0
tp664
atp665
a(S'pl'
p666
(dp667
S'ADJ'
p668
F0.022827
sS'NOUN'
p669
F0.977173
s(lp670
(g15
I1
tp671
atp672
a(g18
(dp673
g5
F1.0
s(lp674
(g18
I2
tp675
atp676
a(S'mijnheer'
p677
(dp678
S'NOUN'
p679
F1.0
s(lp680
(g27
I3
tp681
atp682
a(S'de'
p683
(dp684
S'DET'
p685
F1.0
s(lp686
tp687
a(S'voorzitter'
p688
(dp689
S'NOUN'
p690
F1.0
s(lp691
(g41
I4
tp692
atp693
a(g5
(dp694
g5
F1.0
s(lp695
(g44
I5
tp696
atp697
a(S'het'
p698
(dp699
S'PRON'
p700
F0.01289
sS'DET'
p701
F0.98711
s(lp702
(g54
I6
tp703
atp704
a(S'verdrag'
p705
(dp706
S'NOUN'
p707
F1.0
s(lp708
(g62
I8
tp709
atp710
a(S'van'
p711
(dp712
S'ADP'
p713
F1.0
s(lp714
tp715
a(S'lissabon'
p716
(dp717
S'NOUN'
p718
F1.0
s(lp719
(g76
I7
tp720
atp721
a(S'was'
p722
(dp723
S'VERB'
p724
F0.9999990000000001
sS'NOUN'
p725
F1e-06
s(lp726
(g83
I9
tp727
atp728
a(S'een'
p729
(dp730
S'ADJ'
p731
F0.0
sS'PRON'
p732
F1e-06
sS'NUM'
p733
F1e-06
sS'DET'
p734
F0.999998
s(lp735
(g92
I10
tp736
atp737
a(S'zeer'
p738
(dp739
S'NOUN'
p740
F0.000597
sS'ADJ'
p741
F0.999403
s(lp742
(g116
I11
tp743
atp744
a(S'moeilijk'
p745
(dp746
S'ADJ'
p747
F1.0
s(lp748
(g142
I12
tp749
atp750
a(S'compromis'
p751
(dp752
S'NOUN'
p753
F1.0
s(lp754
(g108
I13
tp755
atp756
a(S'voor'
p757
(dp758
S'ADV'
p759
F0.002831
sS'CONJ'
p760
F4e-06
sS'NOUN'
p761
F0.0
sS'ADP'
p762
F0.997165
s(lp763
(g150
I14
tp764
atp765
a(S'allen'
p766
(dp767
S'PRON'
p768
F1.0
s(lp769
(g157
I15
tp770
atp771
a(S'die'
p772
(dp773
S'PRON'
p774
F1.0
s(lp775
(g180
I17
tp776
atp777
a(S'ermee'
p778
(dp779
S'ADV'
p780
F1.0
s(lp781
(g180
I17
tp782
atp783
a(S'van'
p784
(dp785
S'ADP'
p786
F1.0
s(lp787
tp788
a(S'doen'
p789
(dp790
S'VERB'
p791
F0.000533
sS'NOUN'
p792
F0.999467
s(lp793
tp794
a(S'hadden'
p795
(dp796
S'VERB'
p797
F1.0
s(lp798
(g180
I17
tp799
atp800
a(g44
(dp801
g5
F1.0
s(lp802
(g44
I18
tp803
atp804
a(S'dus'
p805
(dp806
S'ADV'
p807
F0.97168
sS'CONJ'
p808
F0.02832
s(lp809
(g193
I19
tp810
atp811
a(S'vind'
p812
(dp813
S'VERB'
p814
F1.0
s(lp815
(g220
I21
tp816
atp817
a(S'ik'
p818
(dp819
S'PRON'
p820
F1.0
sS'NOUN'
p821
F0.0
s(lp822
(g213
I20
tp823
atp824
a(S'het'
p825
(dp826
S'PRON'
p827
F0.03945
sS'DET'
p828
F0.96055
s(lp829
tp830
a(S'zeer'
p831
(dp832
S'NOUN'
p833
F0.01497
sS'ADJ'
p834
F0.98503
s(lp835
tp836
a(S'verbazend'
p837
(dp838
S'VERB'
p839
F0.024114
sS'ADJ'
p840
F0.975886
s(lp841
(g228
I22
tp842
atp843
a(S'om'
p844
(dp845
S'ADV'
p846
F0.006207
sS'CONJ'
p847
F0.97572
sS'ADP'
p848
F0.018074
s(lp849
tp850
a(S'in'
p851
(dp852
S'ADV'
p853
F0.004288
sS'VERB'
p854
F0.0
sS'ADP'
p855
F0.995711
s(lp856
(g251
I26
tp857
atp858
a(S'dit'
p859
(dp860
S'PRON'
p861
F1.0
s(lp862
(g258
I27
tp863
atp864
a(S'verslag'
p865
(dp866
S'NOUN'
p867
F1.0
s(lp868
(g265
I28
tp869
atp870
a(S'woorden'
p871
(dp872
S'NOUN'
p873
F1.0
s(lp874
(g528
I25
tp875
atp876
a(S'terug'
p877
(dp878
S'ADV'
p879
F1.0
s(lp880
(g353
I42
tp881
atp882
a(S'te'
p883
(dp884
S'PRT'
p885
F1.0
s(lp886
(g235
I23
tp887
atp888
a(S'vinden'
p889
(dp890
S'VERB'
p891
F1.0
sS'NOUN'
p892
F0.0
s(lp893
(g353
I42
tp894
atp895
a(S'die'
p896
(dp897
S'PRON'
p898
F0.999999
s(lp899
(g274
I29
tp900
atp901
a(S'de'
p902
(dp903
S'DET'
p904
F1.0
s(lp905
(g599
I36
tp906
atp907
a(S'basis'
p908
(dp909
S'NOUN'
p910
F1.0
s(lp911
tp912
a(S'vormen'
p913
(dp914
S'VERB'
p915
F0.996909
sS'NOUN'
p916
F0.003091
s(lp917
(g312
I37
tp918
atp919
a(S'voor'
p920
(dp921
S'ADV'
p922
F0.008013
sS'CONJ'
p923
F2.1e-05
sS'NOUN'
p924
F0.0
sS'ADP'
p925
F0.991966
s(lp926
(g320
I38
tp927
atp928
a(S'campagnes'
p929
(dp930
S'NOUN'
p931
F1.0
s(lp932
(g327
I39
tp933
atp934
a(S'die'
p935
(dp936
S'PRON'
p937
F1.0
s(lp938
(g339
I40
tp939
atp940
a(S'erop'
p941
(dp942
S'ADV'
p943
F1.0
s(lp944
(g339
I40
tp945
atp946
a(S'gericht'
p947
(dp948
S'NOUN'
p949
F0.000499
sS'VERB'
p950
F0.989741
sS'ADJ'
p951
F0.00976
s(lp952
tp953
a(S'zijn'
p954
(dp955
S'PRON'
p956
F1e-06
sS'VERB'
p957
F0.9990730000000001
sS'NOUN'
p958
F0.000926
s(lp959
(g339
I40
tp960
atp961
a(S'om'
p962
(dp963
S'ADV'
p964
F0.003149
sS'CONJ'
p965
F0.797179
sS'ADP'
p966
F0.199672
s(lp967
(g346
I41
tp968
atp969
a(S'de'
p970
(dp971
S'DET'
p972
F1.0
s(lp973
(g362
I43
tp974
atp975
a(S'europese'
p976
(dp977
S'NOUN'
p978
F1.0
s(lp979
tp980
a(S'unie'
p981
(dp982
S'NOUN'
p983
F1.0
s(lp984
(g375
I44
tp985
atp986
a(S'grondwettelijk'
p987
(dp988
S'ADJ'
p989
F1.0
s(lp990
tp991
a(S'te'
p992
(dp993
S'PRT'
p994
F1.0
s(lp995
tp996
a(S'verankeren'
p997
(dp998
S'VERB'
p999
F0.9999990000000001
sS'NOUN'
p1000
F1e-06
s(lp1001
(g353
I42
tp1002
atp1003
a(g5
(dp1004
g5
F1.0
s(lp1005
(g5
I45
tp1006
atp1007
asS'de'
p1008
(lp1009
(S'der'
p1010
(dp1011
S'PRON'
p1012
F0.183578
sS'DET'
p1013
F0.791726
s(lp1014
(g54
I6
tp1015
atp1016
a(S'vertrag'
p1017
(dp1018
S'VERB'
p1019
F1.0
s(lp1020
(g62
I8
tp1021
atp1022
a(S'von'
p1023
(dp1024
S'NOUN'
p1025
F0.000612
sS'ADP'
p1026
F0.999388
s(lp1027
tp1028
a(S'lissabon'
p1029
(dp1030
S'NOUN'
p1031
F0.999197
s(lp1032
(g76
I7
tp1033
atp1034
a(S'war'
p1035
(dp1036
S'VERB'
p1037
F1.0
s(lp1038
(g83
I9
tp1039
atp1040
a(S'ein'
p1041
(dp1042
S'NUM'
p1043
F0.001056
sS'DET'
p1044
F0.998943
s(lp1045
(g92
I10
tp1046
atp1047
a(S'sehr'
p1048
(dp1049
S'ADV'
p1050
F1.0
s(lp1051
(g116
I11
tp1052
atp1053
a(S'schwieriger'
p1054
(dp1055
S'ADJ'
p1056
F1.0
s(lp1057
(g142
I12
tp1058
atp1059
a(S'kompromiss'
p1060
(dp1061
S'ADJ'
p1062
F0.007155
sS'NOUN'
p1063
F0.98693
s(lp1064
(g108
I13
tp1065
atp1066
a(S'f\xc3\xbcr'
p1067
(dp1068
S'ADP'
p1069
F1.0
s(lp1070
(g150
I14
tp1071
atp1072
a(S'alle'
p1073
(dp1074
S'PRON'
p1075
F1.0
s(lp1076
(g157
I15
tp1077
atp1078
a(S'beteiligten'
p1079
(dp1080
S'VERB'
p1081
F0.994843
sS'ADJ'
p1082
F0.005157
s(lp1083
(g173
I16
tp1084
atp1085
a(g5
(dp1086
g5
F1.0
s(lp1087
(g44
I18
tp1088
atp1089
a(S'daher'
p1090
(dp1091
S'ADV'
p1092
F0.9999979999999999
s(lp1093
(g193
I19
tp1094
atp1095
a(S'bin'
p1096
(dp1097
S'VERB'
p1098
F1.0
s(lp1099
(g220
I21
tp1100
atp1101
a(S'ich'
p1102
(dp1103
S'PRON'
p1104
F1.0
s(lp1105
(g213
I20
tp1106
atp1107
a(S'\xc3\xbcberrascht'
p1108
(dp1109
S'VERB'
p1110
F0.907517
s(lp1111
(g228
I22
tp1112
atp1113
a(g44
(dp1114
g5
F1.0
s(lp1115
tp1116
a(S'in'
p1117
(dp1118
S'ADP'
p1119
F1.0
s(lp1120
(g251
I26
tp1121
atp1122
a(S'diesem'
p1123
(dp1124
S'PRON'
p1125
F1.0
s(lp1126
(g258
I27
tp1127
atp1128
a(S'bericht'
p1129
(dp1130
S'ADJ'
p1131
F0.014645
sS'NOUN'
p1132
F0.983931
s(lp1133
(g265
I28
tp1134
atp1135
a(S'worte'
p1136
(dp1137
S'NOUN'
p1138
F0.194264
sS'ADJ'
p1139
F0.79577
s(lp1140
(g528
I25
tp1141
atp1142
a(S'zu'
p1143
(dp1144
S'PRT'
p1145
F0.999972
s(lp1146
(g235
I23
tp1147
atp1148
a(S'lesen'
p1149
(dp1150
S'VERB'
p1151
F1.0
s(lp1152
(g243
I24
tp1153
atp1154
a(g44
(dp1155
g5
F1.0
s(lp1156
tp1157
a(S'die'
p1158
(dp1159
S'PRON'
p1160
F0.416088
sS'DET'
p1161
F0.518594
s(lp1162
(g339
I40
tp1163
atp1164
a(S'dazu'
p1165
(dp1166
S'ADV'
p1167
F0.999936
sS'PRT'
p1168
F6.4e-05
s(lp1169
tp1170
a(S'angetan'
p1171
(dp1172
S'VERB'
p1173
F0.973825
sS'ADJ'
p1174
F0.026175
s(lp1175
(g353
I42
tp1176
atp1177
a(S'sind'
p1178
(dp1179
S'VERB'
p1180
F1.0
s(lp1181
(g562
I30
tp1182
atp1183
a(g44
(dp1184
g5
F1.0
s(lp1185
(g274
I29
tp1186
atp1187
a(S'den'
p1188
(dp1189
S'PRON'
p1190
F0.016077
sS'DET'
p1191
F0.9825
s(lp1192
(g599
I36
tp1193
atp1194
a(S'boden'
p1195
(dp1196
S'ADJ'
p1197
F0.021685
sS'NOUN'
p1198
F0.958155
s(lp1199
(g312
I37
tp1200
atp1201
a(S'f\xc3\xbcr'
p1202
(dp1203
S'ADP'
p1204
F1.0
s(lp1205
(g320
I38
tp1206
atp1207
a(S'weitere'
p1208
(dp1209
S'ADJ'
p1210
F1.0
s(lp1211
(g353
I42
tp1212
atp1213
a(S'kampagnen'
p1214
(dp1215
S'VERB'
p1216
F1.7e-05
sS'NOUN'
p1217
F0.999958
s(lp1218
(g327
I39
tp1219
atp1220
a(S'zur'
p1221
(dp1222
S'ADP'
p1223
F1.0
s(lp1224
(g339
I40
tp1225
atp1226
a(S'konstitutionalisierung'
p1227
(dp1228
S'ADJ'
p1229
F7.1e-05
sS'NOUN'
p1230
F0.999906
s(lp1231
tp1232
a(S'der'
p1233
(dp1234
S'PRON'
p1235
F0.000852
sS'DET'
p1236
F0.998935
s(lp1237
(g362
I43
tp1238
atp1239
a(S'eu'
p1240
(dp1241
S'ADJ'
p1242
F0.233302
sS'NOUN'
p1243
F0.68889
s(lp1244
(g375
I44
tp1245
atp1246
a(S'zu'
p1247
(dp1248
S'PRT'
p1249
F0.999953
s(lp1250
tp1251
a(S'bereiten'
p1252
(dp1253
S'VERB'
p1254
F0.999989
s(lp1255
(g353
I42
tp1256
atp1257
a(g5
(dp1258
g5
F1.0
s(lp1259
(g5
I45
tp1260
atp1261
asS'it'
p1262
(lp1263
(g3
(dp1264
g5
F1.0
s(lp1265
(g3
I0
tp1266
atp1267
a(S'pl'
p1268
(dp1269
S'NOUN'
p1270
F0.003774
sS'VERB'
p1271
F0.984512
sS'ADJ'
p1272
F0.011715
s(lp1273
(g15
I1
tp1274
atp1275
a(g18
(dp1276
g5
F1.0
s(lp1277
(g18
I2
tp1278
atp1279
a(S'signor'
p1280
(dp1281
S'NOUN'
p1282
F1.0
s(lp1283
(g27
I3
tp1284
atp1285
a(S'presidente'
p1286
(dp1287
S'NOUN'
p1288
F1.0
s(lp1289
(g41
I4
tp1290
atp1291
a(g44
(dp1292
g5
F1.0
s(lp1293
(g44
I5
tp1294
atp1295
a(S'il'
p1296
(dp1297
S'DET'
p1298
F1.0
s(lp1299
(g54
I6
tp1300
atp1301
a(S'trattato'
p1302
(dp1303
S'VERB'
p1304
F0.114483
sS'NOUN'
p1305
F0.885517
s(lp1306
(g62
I8
tp1307
atp1308
a(S'di'
p1309
(dp1310
S'CONJ'
p1311
F8.1e-05
sS'ADP'
p1312
F0.999919
s(lp1313
tp1314
a(S'lisbona'
p1315
(dp1316
S'ADJ'
p1317
F0.005037
sS'VERB'
p1318
F0.72813
sS'NOUN'
p1319
F0.266833
s(lp1320
(g76
I7
tp1321
atp1322
a(S'\xc3\xa8'
p1323
(dp1324
S'VERB'
p1325
F1.0
s(lp1326
tp1327
a(S'stato'
p1328
(dp1329
S'VERB'
p1330
F0.999657
sS'NOUN'
p1331
F0.000343
s(lp1332
(g83
I9
tp1333
atp1334
a(S'un'
p1335
(dp1336
S'PRON'
p1337
F0.000216
sS'DEF'
p1338
F0.999784
s(lp1339
(g92
I10
tp1340
atp1341
a(S'compromesso'
p1342
(dp1343
S'VERB'
p1344
F0.003887
sS'NOUN'
p1345
F0.996113
s(lp1346
(g108
I13
tp1347
atp1348
a(S'molto'
p1349
(dp1350
S'ADV'
p1351
F0.963932
sS'PRON'
p1352
F0.000552
sS'VERB'
p1353
F0.000694
sS'ADJ'
p1354
F0.034822
s(lp1355
(g116
I11
tp1356
atp1357
a(S'difficile'
p1358
(dp1359
S'ADJ'
p1360
F1.0
s(lp1361
(g142
I12
tp1362
atp1363
a(S'per'
p1364
(dp1365
S'CONJ'
p1366
F0.017894
sS'ADP'
p1367
F0.982106
s(lp1368
(g150
I14
tp1369
atp1370
a(S'tutte'
p1371
(dp1372
S'PRON'
p1373
F0.059271
sS'ADJ'
p1374
F0.940729
s(lp1375
(g157
I15
tp1376
atp1377
a(S'le'
p1378
(dp1379
S'PRON'
p1380
F0.000268
sS'DET'
p1381
F0.999732
s(lp1382
tp1383
a(S'parti'
p1384
(dp1385
S'VERB'
p1386
F0.005125
sS'NOUN'
p1387
F0.994875
s(lp1388
(g173
I16
tp1389
atp1390
a(S'coinvolte'
p1391
(dp1392
S'VERB'
p1393
F1.0
s(lp1394
(g180
I17
tp1395
atp1396
a(g44
(dp1397
g5
F1.0
s(lp1398
(g44
I18
tp1399
atp1400
a(S'pertanto'
p1401
(dp1402
S'ADV'
p1403
F1.0
s(lp1404
(g193
I19
tp1405
atp1406
a(S'mi'
p1407
(dp1408
S'PRON'
p1409
F1.0
s(lp1410
(g213
I20
tp1411
atp1412
a(S'sorprende'
p1413
(dp1414
S'VERB'
p1415
F1.0
s(lp1416
(g228
I22
tp1417
atp1418
a(S'leggere'
p1419
(dp1420
S'VERB'
p1421
F0.124987
sS'ADJ'
p1422
F0.875013
s(lp1423
(g243
I24
tp1424
atp1425
a(S'parole'
p1426
(dp1427
S'NOUN'
p1428
F1.0
s(lp1429
(g528
I25
tp1430
atp1431
a(S'in'
p1432
(dp1433
S'ADP'
p1434
F1.0
s(lp1435
(g251
I26
tp1436
atp1437
a(S'questa'
p1438
(dp1439
S'PRON'
p1440
F1.0
s(lp1441
(g258
I27
tp1442
atp1443
a(S'relazione'
p1444
(dp1445
S'NOUN'
p1446
F1.0
s(lp1447
(g265
I28
tp1448
atp1449
a(S'che'
p1450
(dp1451
S'PRON'
p1452
F0.751355
sS'CONJ'
p1453
F0.24679
sS'ADJ'
p1454
F0.001855
s(lp1455
(g274
I29
tp1456
atp1457
a(S'non'
p1458
(dp1459
S'ADV'
p1460
F1.0
s(lp1461
tp1462
a(S'sono'
p1463
(dp1464
S'VERB'
p1465
F0.99984
sS'NOUN'
p1466
F0.00016
s(lp1467
(g562
I30
tp1468
atp1469
a(S"nient'"
p1470
(dp1471
S'VERB'
p1472
F0.172534
sS'NOUN'
p1473
F0.827466
s(lp1474
(g282
I31
tp1475
atp1476
a(S'altro'
p1477
(dp1478
S'ADV'
p1479
F0.163299
sS'PRON'
p1480
F0.425871
sS'ADJ'
p1481
F0.382773
sS'NOUN'
p1482
F0.028057
s(lp1483
(g291
I32
tp1484
atp1485
a(S'che'
p1486
(dp1487
S'PRON'
p1488
F0.947557
sS'CONJ'
p1489
F0.050636
sS'ADJ'
p1490
F0.001807
s(lp1491
(g583
I33
tp1492
atp1493
a(S'la'
p1494
(dp1495
S'PRON'
p1496
F0.000998
sS'DET'
p1497
F0.999002
s(lp1498
(g599
I36
tp1499
atp1500
a(S'preparazione'
p1501
(dp1502
S'NOUN'
p1503
F1.0
s(lp1504
(g298
I34
tp1505
atp1506
a(S'del'
p1507
(dp1508
S'DEF'
p1509
F0.001364
sS'ADP'
p1510
F0.998636
s(lp1511
(g305
I35
tp1512
atp1513
a(S'terreno'
p1514
(dp1515
S'ADJ'
p1516
F0.077934
sS'NOUN'
p1517
F0.922066
s(lp1518
(g312
I37
tp1519
atp1520
a(S'per'
p1521
(dp1522
S'CONJ'
p1523
F0.003474
sS'ADP'
p1524
F0.996526
s(lp1525
(g320
I38
tp1526
atp1527
a(S'campagne'
p1528
(dp1529
S'NOUN'
p1530
F1.0
s(lp1531
(g327
I39
tp1532
atp1533
a(S'intese'
p1534
(dp1535
S'NOUN'
p1536
F0.082278
sS'VERB'
p1537
F0.462108
sS'ADJ'
p1538
F0.455614
s(lp1539
(g339
I40
tp1540
atp1541
a(S'alla'
p1542
(dp1543
S'ADP'
p1544
F1.0
s(lp1545
(g346
I41
tp1546
atp1547
a(S'costituzionalizzazione'
p1548
(dp1549
S'ADJ'
p1550
F0.055356
sS'VERB'
p1551
F0.000656
sS'NOUN'
p1552
F0.943989
s(lp1553
(g353
I42
tp1554
atp1555
a(S"dell'"
p1556
(dp1557
S'ADJ'
p1558
F0.038451
sS'VERB'
p1559
F0.006207
sS'NOUN'
p1560
F0.955343
s(lp1561
(g362
I43
tp1562
atp1563
a(S'unione'
p1564
(dp1565
S'NOUN'
p1566
F1.0
s(lp1567
tp1568
a(S'europea'
p1569
(dp1570
S'NOUN'
p1571
F0.001561
sS'ADJ'
p1572
F0.998439
s(lp1573
(g375
I44
tp1574
atp1575
a(g5
(dp1576
g5
F1.0
s(lp1577
(g5
I45
tp1578
atp1579
asS'sk'
p1580
(lp1581
(S'-'
p1582
(dp1583
g5
F1.0
s(lp1584
tp1585
a(g3
(dp1586
g5
F1.0
s(lp1587
(g3
I0
tp1588
atp1589
a(S'pl'
p1590
(dp1591
g498
F1.0
s(lp1592
(g15
I1
tp1593
atp1594
a(g18
(dp1595
g5
F1.0
s(lp1596
(g18
I2
tp1597
atp1598
a(S'v\xc3\xa1\xc5\xbeen\xc3\xbd'
p1599
(dp1600
S'VERB'
p1601
F0.273237
sS'ADJ'
p1602
F0.726763
s(lp1603
tp1604
a(S'p\xc3\xa1n'
p1605
(dp1606
S'NOUN'
p1607
F1.0
s(lp1608
(g27
I3
tp1609
atp1610
a(S'predsedaj\xc3\xbaci'
p1611
(dp1612
S'VERB'
p1613
F1.0
s(lp1614
(g41
I4
tp1615
atp1616
a(g44
(dp1617
g5
F1.0
s(lp1618
(g44
I5
tp1619
atp1620
a(S'lisabonsk\xc3\xa1'
p1621
(dp1622
S'NOUN'
p1623
F0.001145
sS'VERB'
p1624
F0.6732289999999999
sS'ADJ'
p1625
F0.325627
s(lp1626
(g76
I7
tp1627
atp1628
a(S'zmluva'
p1629
(dp1630
S'NOUN'
p1631
F1.0
s(lp1632
(g62
I8
tp1633
atp1634
a(S'bola'
p1635
(dp1636
S'VERB'
p1637
F1.0
s(lp1638
(g83
I9
tp1639
atp1640
a(S've\xc4\xbemi'
p1641
(dp1642
S'ADV'
p1643
F1.0
s(lp1644
(g116
I11
tp1645
atp1646
a(S'zlo\xc5\xbeit\xc3\xbdm'
p1647
(dp1648
S'ADJ'
p1649
F1.0
s(lp1650
(g142
I12
tp1651
atp1652
a(S'kompromisom'
p1653
(dp1654
S'NOUN'
p1655
F1.0
s(lp1656
(g108
I13
tp1657
atp1658
a(S'pre'
p1659
(dp1660
g498
F3.3e-05
sS'ADP'
p1661
F0.999967
s(lp1662
(g150
I14
tp1663
atp1664
a(S'v\xc5\xa1etky'
p1665
(dp1666
S'PRON'
p1667
F1.0
s(lp1668
(g157
I15
tp1669
atp1670
a(S'z\xc3\xba\xc4\x8dastnen\xc3\xa9'
p1671
(dp1672
S'VERB'
p1673
F1.0
s(lp1674
tp1675
a(S'strany'
p1676
(dp1677
S'NOUN'
p1678
F1.0
s(lp1679
(g173
I16
tp1680
atp1681
a(g92
(dp1682
g498
F0.001667
sS'CONJ'
p1683
F0.998075
sS'NOUN'
p1684
F7.500000000000001e-05
sS'ADP'
p1685
F0.0
sS'PRT'
p1686
F0.000183
s(lp1687
(g44
I18
tp1688
atp1689
a(S'z'
p1690
(dp1691
g498
F7.999999999999999e-05
sS'NOUN'
p1692
F2.2e-05
sS'ADP'
p1693
F0.999898
s(lp1694
tp1695
a(S'toho'
p1696
(dp1697
S'PRON'
p1698
F0.999986
sg498
F1.4e-05
s(lp1699
(g220
I21
tp1700
atp1701
a(S'd\xc3\xb4vodu'
p1702
(dp1703
S'NOUN'
p1704
F1.0
s(lp1705
(g193
I19
tp1706
atp1707
a(S'som'
p1708
(dp1709
S'VERB'
p1710
F1.0
s(lp1711
(g213
I20
tp1712
atp1713
a(S's'
p1714
(dp1715
S'PRT'
p1716
F0.00313
sS'CONJ'
p1717
F0.000168
sS'NOUN'
p1718
F9e-06
sS'ADP'
p1719
F0.996267
sg498
F0.000427
s(lp1720
tp1721
a(S'ohromen\xc3\xadm'
p1722
(dp1723
S'VERB'
p1724
F0.0031520000000000007
sS'NOUN'
p1725
F0.996846
s(lp1726
(g228
I22
tp1727
atp1728
a(S'\xc4\x8d\xc3\xadtal'
p1729
(dp1730
S'VERB'
p1731
F1.0
s(lp1732
(g243
I24
tp1733
atp1734
a(S'v'
p1735
(dp1736
g498
F3.7e-05
sS'ADP'
p1737
F0.999962
s(lp1738
(g251
I26
tp1739
atp1740
a(S'tejto'
p1741
(dp1742
S'PRON'
p1743
F1.0
s(lp1744
(g258
I27
tp1745
atp1746
a(S'spr\xc3\xa1ve'
p1747
(dp1748
S'NOUN'
p1749
F1.0
s(lp1750
(g265
I28
tp1751
atp1752
a(S'slov\xc3\xa1'
p1753
(dp1754
S'NOUN'
p1755
F1.0
s(lp1756
(g528
I25
tp1757
atp1758
a(g44
(dp1759
g5
F1.0
s(lp1760
tp1761
a(S'ktor\xc3\xa9'
p1762
(dp1763
S'PRON'
p1764
F1.0
s(lp1765
(g274
I29
tp1766
atp1767
a(S'nie'
p1768
(dp1769
g498
F1.0
s(lp1770
(g282
I31
tp1771
atp1772
a(S's\xc3\xba'
p1773
(dp1774
S'VERB'
p1775
F1.0
s(lp1776
(g562
I30
tp1777
atp1778
a(S'ni\xc4\x8d\xc3\xadm'
p1779
(dp1780
S'PRON'
p1781
F0.999985
sS'VERB'
p1782
F1.6e-05
s(lp1783
tp1784
a(S'in\xc3\xbdm'
p1785
(dp1786
S'PRON'
p1787
F0.977435
sS'NOUN'
p1788
F0.022564
s(lp1789
(g282
I31
tp1790
atp1791
a(g44
(dp1792
g5
F1.0
s(lp1793
tp1794
a(S'ne\xc5\xbe'
p1795
(dp1796
S'CONJ'
p1797
F1.0
s(lp1798
(g583
I33
tp1799
atp1800
a(S'pr\xc3\xadpravou'
p1801
(dp1802
S'NOUN'
p1803
F1.0
s(lp1804
(g298
I34
tp1805
atp1806
a(S'p\xc3\xb4dy'
p1807
(dp1808
S'NOUN'
p1809
F1.0
s(lp1810
(g312
I37
tp1811
atp1812
a(S'na'
p1813
(dp1814
g498
F7.2e-05
sS'CONJ'
p1815
F1.9e-05
sS'ADP'
p1816
F0.999906
sS'PRT'
p1817
F4e-06
s(lp1818
(g320
I38
tp1819
atp1820
a(S'n\xc3\xa1sledn\xc3\xa9'
p1821
(dp1822
S'ADJ'
p1823
F1.0
s(lp1824
(g353
I42
tp1825
atp1826
a(S'kampane'
p1827
(dp1828
S'NOUN'
p1829
F1.0
s(lp1830
(g327
I39
tp1831
atp1832
a(g44
(dp1833
g5
F1.0
s(lp1834
tp1835
a(S'ktor\xc3\xbdch'
p1836
(dp1837
S'PRON'
p1838
F1.0
s(lp1839
tp1840
a(S'cie\xc4\xbeom'
p1841
(dp1842
S'NOUN'
p1843
F1.0
s(lp1844
(g339
I40
tp1845
atp1846
a(S'bude'
p1847
(dp1848
g498
F1.1e-05
sS'VERB'
p1849
F0.999989
s(lp1850
(g353
I42
tp1851
atp1852
a(S'premeni\xc5\xa5'
p1853
(dp1854
S'VERB'
p1855
F1.0
s(lp1856
(g353
I42
tp1857
atp1858
a(S'e\xc3\x9a'
p1859
(dp1860
S'ADJ'
p1861
F0.18063500000000002
sg498
F0.197559
sS'ADV'
p1862
F0.023702
sS'VERB'
p1863
F0.163716
sS'NOUN'
p1864
F0.434388
s(lp1865
(g375
I44
tp1866
atp1867
a(g1735
(dp1868
g498
F0.000166
sS'ADP'
p1869
F0.999834
s(lp1870
(g346
I41
tp1871
atp1872
a(S'\xc3\xbastavn\xc3\xbd'
p1873
(dp1874
S'ADJ'
p1875
F1.0
s(lp1876
tp1877
a(S'\xc5\xa1t\xc3\xa1t'
p1878
(dp1879
S'NOUN'
p1880
F1.0
s(lp1881
(g353
I42
tp1882
atp1883
a(g5
(dp1884
g5
F1.0
s(lp1885
(g5
I45
tp1886
atp1887
asS'pl'
p1888
(lp1889
(S'panie'
p1890
(dp1891
S'NOUN'
p1892
F1.0
s(lp1893
(g27
I3
tp1894
atp1895
a(S'przewodnicz\xc4\x85cy'
p1896
(dp1897
S'VERB'
p1898
F0.000653
sS'NOUN'
p1899
F0.999348
s(lp1900
tp1901
a(S'!'
p1902
(dp1903
g5
F1.0
s(lp1904
(g41
I4
tp1905
atp1906
a(S'traktat'
p1907
(dp1908
S'NOUN'
p1909
F1.0
s(lp1910
(g62
I8
tp1911
atp1912
a(g1690
(dp1913
S'PRT'
p1914
F1.3e-05
sS'VERB'
p1915
F3e-06
sS'NOUN'
p1916
F8e-06
sS'ADP'
p1917
F0.9999680000000001
sg498
F8e-06
s(lp1918
(g54
I6
tp1919
atp1920
a(S'lizbony'
p1921
(dp1922
S'ADJ'
p1923
F0.023556000000000004
sS'VERB'
p1924
F0.098949
sS'NOUN'
p1925
F0.8774940000000001
s(lp1926
(g76
I7
tp1927
atp1928
a(S'by\xc5\x82'
p1929
(dp1930
S'VERB'
p1931
F1.000001
s(lp1932
(g83
I9
tp1933
atp1934
a(S'bardzo'
p1935
(dp1936
S'ADV'
p1937
F1.0
s(lp1938
(g116
I11
tp1939
atp1940
a(S'trudnym'
p1941
(dp1942
S'ADJ'
p1943
F1.000001
s(lp1944
(g142
I12
tp1945
atp1946
a(S'kompromisem'
p1947
(dp1948
S'ADV'
p1949
F6e-06
sS'ADJ'
p1950
F3e-06
sS'VERB'
p1951
F0.06747299999999999
sS'NOUN'
p1952
F0.9325149999999998
s(lp1953
(g108
I13
tp1954
atp1955
a(S'dla'
p1956
(dp1957
S'ADP'
p1958
F1.0
s(lp1959
(g150
I14
tp1960
atp1961
a(S'wszystkich'
p1962
(dp1963
S'NOUN'
p1964
F0.08848
sS'ADJ'
p1965
F0.9115199999999999
s(lp1966
(g157
I15
tp1967
atp1968
a(S'zaanga\xc5\xbcowanych'
p1969
(dp1970
S'VERB'
p1971
F0.53171
sS'ADJ'
p1972
F0.46829
s(lp1973
(g180
I17
tp1974
atp1975
a(S'stron'
p1976
(dp1977
S'NOUN'
p1978
F1.0
s(lp1979
(g173
I16
tp1980
atp1981
a(g44
(dp1982
g498
F0.0
sg5
F1.0
s(lp1983
(g44
I18
tp1984
atp1985
a(S'dlatego'
p1986
(dp1987
S'ADV'
p1988
F1.0
s(lp1989
(g193
I19
tp1990
atp1991
a(S'ze'
p1992
(dp1993
S'PRT'
p1994
F9e-05
sS'CONJ'
p1995
F1e-06
sS'ADP'
p1996
F0.9999089999999999
s(lp1997
(g228
I22
tp1998
atp1999
a(S'zdziwieniem'
p2000
(dp2001
S'NOUN'
p2002
F1.0
s(lp2003
(g353
I42
tp2004
atp2005
a(S'czytam'
p2006
(dp2007
S'VERB'
p2008
F1.0
s(lp2009
(g243
I24
tp2010
atp2011
a(S'w'
p2012
(dp2013
S'ADJ'
p2014
F0.0
sg498
F0.0
sS'NOUN'
p2015
F0.0
sS'ADP'
p2016
F1.000001
s(lp2017
(g251
I26
tp2018
atp2019
a(S'tym'
p2020
(dp2021
S'ADV'
p2022
F3e-06
sS'NOUN'
p2023
F0.025022000000000003
sS'CONJ'
p2024
F0.0
sS'ADJ'
p2025
F0.974974
sS'PRT'
p2026
F0.0
s(lp2027
(g258
I27
tp2028
atp2029
a(S'sprawozdaniu'
p2030
(dp2031
S'NOUN'
p2032
F1.0
s(lp2033
(g265
I28
tp2034
atp2035
a(S's\xc5\x82owa'
p2036
(dp2037
S'NOUN'
p2038
F1.0
s(lp2039
(g528
I25
tp2040
atp2041
a(g44
(dp2042
g498
F0.0
sg5
F1.0
s(lp2043
tp2044
a(S'kt\xc3\xb3re'
p2045
(dp2046
S'ADJ'
p2047
F0.9999999999999999
s(lp2048
(g274
I29
tp2049
atp2050
a(S's\xc4\x85'
p2051
(dp2052
S'VERB'
p2053
F1.0
s(lp2054
(g562
I30
tp2055
atp2056
a(S'niczym'
p2057
(dp2058
S'ADV'
p2059
F0.005473
sS'CONJ'
p2060
F0.088195
sS'NOUN'
p2061
F0.9035529999999999
sS'ADP'
p2062
F0.002779
s(lp2063
(g282
I31
tp2064
atp2065
a(S'innym'
p2066
(dp2067
S'NOUN'
p2068
F0.021876
sS'ADJ'
p2069
F0.9781239999999998
s(lp2070
(g353
I42
tp2071
atp2072
a(S'jak'
p2073
(dp2074
S'ADV'
p2075
F0.223831
sS'PRT'
p2076
F0.002324
sS'CONJ'
p2077
F0.669922
sS'ADP'
p2078
F0.103752
sS'PRON'
p2079
F0.000171
s(lp2080
(g583
I33
tp2081
atp2082
a(S'przygotowaniem'
p2083
(dp2084
S'VERB'
p2085
F0.750641
sS'NOUN'
p2086
F0.249359
s(lp2087
(g298
I34
tp2088
atp2089
a(S'gruntu'
p2090
(dp2091
S'NOUN'
p2092
F1.0
s(lp2093
(g353
I42
tp2094
atp2095
a(S'pod'
p2096
(dp2097
S'ADV'
p2098
F0.000974
sS'ADP'
p2099
F0.999026
s(lp2100
(g353
I42
tp2101
atp2102
a(S'kolejne'
p2103
(dp2104
S'ADJ'
p2105
F0.999998
s(lp2106
(g353
I42
tp2107
atp2108
a(S'kampanie'
p2109
(dp2110
S'NOUN'
p2111
F1.0
s(lp2112
(g327
I39
tp2113
atp2114
a(S'na'
p2115
(dp2116
S'PRT'
p2117
F1e-06
sS'VERB'
p2118
F3e-06
sS'NOUN'
p2119
F0.0
sS'ADP'
p2120
F0.999994
sg498
F1e-06
s(lp2121
(g346
I41
tp2122
atp2123
a(S'rzecz'
p2124
(dp2125
S'NOUN'
p2126
F1.0
s(lp2127
tp2128
a(S'konstytucjonalizacji'
p2129
(dp2130
S'NOUN'
p2131
F1.0
s(lp2132
(g353
I42
tp2133
atp2134
a(S'unii'
p2135
(dp2136
S'NOUN'
p2137
F1.0
s(lp2138
(g375
I44
tp2139
atp2140
a(g5
(dp2141
g5
F1.0
s(lp2142
(g5
I45
tp2143
atp2144
asS'sl'
p2145
(lp2146
(g3
(dp2147
g5
F1.0
s(lp2148
(g3
I0
tp2149
atp2150
a(S'pl'
p2151
(dp2152
S'ADJ'
p2153
F0.0011220000000000002
sg498
F0.115589
sS'ADV'
p2154
F0.000496
sS'VERB'
p2155
F0.061393
sS'NOUN'
p2156
F0.8214009999999999
s(lp2157
(g15
I1
tp2158
atp2159
a(g18
(dp2160
g5
F1.0
s(lp2161
(g18
I2
tp2162
atp2163
a(S'gospod'
p2164
(dp2165
S'NOUN'
p2166
F1.0
s(lp2167
(g27
I3
tp2168
atp2169
a(S'predsednik'
p2170
(dp2171
S'NOUN'
p2172
F1.0
s(lp2173
(g41
I4
tp2174
atp2175
a(g44
(dp2176
g5
F1.0
s(lp2177
(g44
I5
tp2178
atp2179
a(S'lizbonska'
p2180
(dp2181
S'NOUN'
p2182
F0.0007270000000000001
sS'ADJ'
p2183
F0.999274
s(lp2184
(g76
I7
tp2185
atp2186
a(S'pogodba'
p2187
(dp2188
S'NOUN'
p2189
F1.0
s(lp2190
(g62
I8
tp2191
atp2192
a(S'je'
p2193
(dp2194
S'PRON'
p2195
F3e-06
sS'VERB'
p2196
F0.999996
sg498
F1e-06
s(lp2197
tp2198
a(S'bila'
p2199
(dp2200
S'VERB'
p2201
F1.0
s(lp2202
(g83
I9
tp2203
atp2204
a(S'zelo'
p2205
(dp2206
S'ADV'
p2207
F1.0
s(lp2208
(g116
I11
tp2209
atp2210
a(S'te\xc5\xbeak'
p2211
(dp2212
S'ADJ'
p2213
F1.0
s(lp2214
(g142
I12
tp2215
atp2216
a(S'kompromis'
p2217
(dp2218
S'NOUN'
p2219
F1.0
s(lp2220
(g108
I13
tp2221
atp2222
a(S'za'
p2223
(dp2224
S'ADV'
p2225
F3.3e-05
sg498
F2e-06
sS'ADP'
p2226
F0.999964
s(lp2227
(g150
I14
tp2228
atp2229
a(S'vse'
p2230
(dp2231
S'ADV'
p2232
F0.00284
sS'PRON'
p2233
F0.9971609999999999
s(lp2234
(g157
I15
tp2235
atp2236
a(S'vpletene'
p2237
(dp2238
S'ADJ'
p2239
F1.0
s(lp2240
(g180
I17
tp2241
atp2242
a(S'strani'
p2243
(dp2244
S'NOUN'
p2245
F1.0000010000000001
s(lp2246
(g173
I16
tp2247
atp2248
a(g44
(dp2249
g5
F1.0
s(lp2250
(g44
I18
tp2251
atp2252
a(S'zato'
p2253
(dp2254
S'ADV'
p2255
F0.074099
sS'CONJ'
p2256
F0.925901
s(lp2257
(g193
I19
tp2258
atp2259
a(S'me'
p2260
(dp2261
S'PRON'
p2262
F0.999972
sg498
F2.8e-05
s(lp2263
(g220
I21
tp2264
atp2265
a(S'presene\xc4\x8da'
p2266
(dp2267
S'VERB'
p2268
F1.0
s(lp2269
(g228
I22
tp2270
atp2271
a(g44
(dp2272
g5
F1.0
s(lp2273
tp2274
a(S'da'
p2275
(dp2276
S'PRT'
p2277
F8.4e-05
sS'CONJ'
p2278
F0.999555
sS'VERB'
p2279
F0.000358
sg498
F3e-06
s(lp2280
(g235
I23
tp2281
atp2282
a(g1735
(dp2283
S'ADP'
p2284
F1.0
s(lp2285
(g251
I26
tp2286
atp2287
a(S'tem'
p2288
(dp2289
S'ADV'
p2290
F3e-06
sS'PRON'
p2291
F0.9999979999999999
sS'NOUN'
p2292
F0.0
s(lp2293
(g258
I27
tp2294
atp2295
a(S'poro\xc4\x8dilu'
p2296
(dp2297
S'NOUN'
p2298
F1.0
s(lp2299
(g265
I28
tp2300
atp2301
a(S'berem'
p2302
(dp2303
S'VERB'
p2304
F1.0
s(lp2305
(g243
I24
tp2306
atp2307
a(S'besede'
p2308
(dp2309
S'NOUN'
p2310
F1.0
s(lp2311
(g528
I25
tp2312
atp2313
a(g44
(dp2314
g5
F1.0
s(lp2315
tp2316
a(S'ki'
p2317
(dp2318
S'CONJ'
p2319
F1.0
s(lp2320
(g274
I29
tp2321
atp2322
a(S'niso'
p2323
(dp2324
S'VERB'
p2325
F1.0
s(lp2326
tp2327
a(S'ni\xc4\x8d'
p2328
(dp2329
S'ADV'
p2330
F0.52521
sS'PRON'
p2331
F0.474594
sS'NOUN'
p2332
F0.000196
s(lp2333
(g282
I31
tp2334
atp2335
a(S'manj'
p2336
(dp2337
S'ADV'
p2338
F1.0
s(lp2339
(g291
I32
tp2340
atp2341
a(S'kot'
p2342
(dp2343
S'CONJ'
p2344
F0.999949
sS'NOUN'
p2345
F4.9999999999999996e-05
s(lp2346
(g583
I33
tp2347
atp2348
a(S'priprava'
p2349
(dp2350
S'NOUN'
p2351
F1.0
s(lp2352
(g298
I34
tp2353
atp2354
a(S'terena'
p2355
(dp2356
S'NOUN'
p2357
F1.0
s(lp2358
(g312
I37
tp2359
atp2360
a(S'za'
p2361
(dp2362
S'ADV'
p2363
F0.005992
sg498
F0.00042
sS'ADP'
p2364
F0.993589
s(lp2365
(g320
I38
tp2366
atp2367
a(S'kampanje'
p2368
(dp2369
S'NOUN'
p2370
F1.0
s(lp2371
(g327
I39
tp2372
atp2373
a(g44
(dp2374
g5
F1.0
s(lp2375
tp2376
a(S'katerih'
p2377
(dp2378
S'PRON'
p2379
F0.9999990000000001
s(lp2380
tp2381
a(S'namen'
p2382
(dp2383
S'NOUN'
p2384
F1.0
s(lp2385
(g339
I40
tp2386
atp2387
a(S'je'
p2388
(dp2389
S'PRON'
p2390
F7.5e-05
sS'VERB'
p2391
F0.999915
sg498
F1e-05
s(lp2392
(g362
I43
tp2393
atp2394
a(S'konstitucionalizacija'
p2395
(dp2396
S'NOUN'
p2397
F1.0
s(lp2398
(g353
I42
tp2399
atp2400
a(S'eu'
p2401
(dp2402
S'ADV'
p2403
F0.004525
sS'ADJ'
p2404
F0.045428
sS'VERB'
p2405
F0.000528
sS'NOUN'
p2406
F0.9495179999999999
s(lp2407
(g375
I44
tp2408
atp2409
a(g5
(dp2410
g5
F1.0
s(lp2411
(g5
I45
tp2412
atp2413
asS'es'
p2414
(lp2415
(g3
(dp2416
g5
F1.0
s(lp2417
(g3
I0
tp2418
atp2419
a(S'pl'
p2420
(dp2421
S'NOUN'
p2422
F0.37372799999999995
sS'VERB'
p2423
F1.5e-05
sS'ADJ'
p2424
F0.626256
s(lp2425
(g15
I1
tp2426
atp2427
a(g18
(dp2428
g5
F1.0
s(lp2429
(g18
I2
tp2430
atp2431
a(S'se\xc3\xb1or'
p2432
(dp2433
S'NOUN'
p2434
F1.0
s(lp2435
(g27
I3
tp2436
atp2437
a(S'presidente'
p2438
(dp2439
S'NOUN'
p2440
F1.0
s(lp2441
(g41
I4
tp2442
atp2443
a(g44
(dp2444
g5
F1.0
s(lp2445
(g44
I5
tp2446
atp2447
a(S'el'
p2448
(dp2449
S'PRON'
p2450
F8.9e-05
sS'DET'
p2451
F0.999911
s(lp2452
(g54
I6
tp2453
atp2454
a(S'tratado'
p2455
(dp2456
S'VERB'
p2457
F0.750675
sS'NOUN'
p2458
F0.249325
s(lp2459
(g62
I8
tp2460
atp2461
a(S'de'
p2462
(dp2463
g498
F1.1e-05
sS'CONJ'
p2464
F0.010122
sS'ADP'
p2465
F0.989867
s(lp2466
tp2467
a(S'lisboa'
p2468
(dp2469
S'ADV'
p2470
F0.073729
sS'ADJ'
p2471
F0.050015
sS'VERB'
p2472
F0.035532999999999995
sS'NOUN'
p2473
F0.840723
s(lp2474
(g76
I7
tp2475
atp2476
a(S'fue'
p2477
(dp2478
S'VERB'
p2479
F1.0
s(lp2480
(g83
I9
tp2481
atp2482
a(S'un'
p2483
(dp2484
g498
F4e-06
sS'DET'
p2485
F0.999996
s(lp2486
(g92
I10
tp2487
atp2488
a(S'compromiso'
p2489
(dp2490
S'NOUN'
p2491
F1.0
s(lp2492
(g108
I13
tp2493
atp2494
a(S'muy'
p2495
(dp2496
S'ADV'
p2497
F1.0
s(lp2498
(g116
I11
tp2499
atp2500
a(S'dif\xc3\xadcil'
p2501
(dp2502
S'ADJ'
p2503
F1.0
s(lp2504
(g142
I12
tp2505
atp2506
a(S'para'
p2507
(dp2508
S'CONJ'
p2509
F0.020985
sS'ADP'
p2510
F0.979015
s(lp2511
(g150
I14
tp2512
atp2513
a(S'todas'
p2514
(dp2515
S'ADJ'
p2516
F1.0
s(lp2517
(g157
I15
tp2518
atp2519
a(S'las'
p2520
(dp2521
S'PRON'
p2522
F0.0
sS'DET'
p2523
F1.0
s(lp2524
tp2525
a(S'partes'
p2526
(dp2527
S'NOUN'
p2528
F1.0
s(lp2529
(g173
I16
tp2530
atp2531
a(S'interesadas'
p2532
(dp2533
S'NOUN'
p2534
F0.000366
sS'VERB'
p2535
F0.06352
sS'ADJ'
p2536
F0.936114
s(lp2537
(g180
I17
tp2538
atp2539
a(g44
(dp2540
g5
F1.0
s(lp2541
(g44
I18
tp2542
atp2543
a(S'por'
p2544
(dp2545
S'ADP'
p2546
F1.0
s(lp2547
tp2548
a(S'lo'
p2549
(dp2550
S'PRON'
p2551
F0.0
sS'DET'
p2552
F1.0
s(lp2553
(g193
I19
tp2554
atp2555
a(S'que'
p2556
(dp2557
g498
F0.0
sS'CONJ'
p2558
F1.0
s(lp2559
(g213
I20
tp2560
atp2561
a(S'me'
p2562
(dp2563
S'PRON'
p2564
F1.0
sS'NOUN'
p2565
F0.0
s(lp2566
(g220
I21
tp2567
atp2568
a(S'sorprende'
p2569
(dp2570
S'VERB'
p2571
F1.0
s(lp2572
(g228
I22
tp2573
atp2574
a(S'leer'
p2575
(dp2576
S'VERB'
p2577
F1.0
s(lp2578
(g243
I24
tp2579
atp2580
a(S'en'
p2581
(dp2582
g498
F0.0
sS'CONJ'
p2583
F1e-06
sS'ADP'
p2584
F0.999999
s(lp2585
(g251
I26
tp2586
atp2587
a(S'este'
p2588
(dp2589
S'PRON'
p2590
F0.999802
sS'NOUN'
p2591
F0.000198
s(lp2592
(g258
I27
tp2593
atp2594
a(S'informe'
p2595
(dp2596
S'VERB'
p2597
F0.013708
sS'NOUN'
p2598
F0.986292
s(lp2599
(g265
I28
tp2600
atp2601
a(S'palabras'
p2602
(dp2603
S'NOUN'
p2604
F1.0
s(lp2605
(g528
I25
tp2606
atp2607
a(S'que'
p2608
(dp2609
g498
F0.0
sS'CONJ'
p2610
F1.0
s(lp2611
(g274
I29
tp2612
atp2613
a(S'no'
p2614
(dp2615
S'ADV'
p2616
F1.0
sg498
F0.0
s(lp2617
(g282
I31
tp2618
atp2619
a(S'son'
p2620
(dp2621
S'VERB'
p2622
F0.999991
sS'NOUN'
p2623
F9e-06
s(lp2624
(g562
I30
tp2625
atp2626
a(S'm\xc3\xa1s'
p2627
(dp2628
S'ADV'
p2629
F0.999925
sS'CONJ'
p2630
F7.5e-05
s(lp2631
(g291
I32
tp2632
atp2633
a(S'que'
p2634
(dp2635
g498
F0.0
sS'CONJ'
p2636
F1.0
s(lp2637
(g583
I33
tp2638
atp2639
a(S'una'
p2640
(dp2641
S'DET'
p2642
F1.0
s(lp2643
tp2644
a(S'preparaci\xc3\xb3n'
p2645
(dp2646
S'NOUN'
p2647
F1.0
s(lp2648
(g298
I34
tp2649
atp2650
a(S'del'
p2651
(dp2652
S'ADP'
p2653
F1.0
s(lp2654
(g305
I35
tp2655
atp2656
a(S'terreno'
p2657
(dp2658
S'NOUN'
p2659
F1.0
s(lp2660
(g312
I37
tp2661
atp2662
a(S'para'
p2663
(dp2664
S'CONJ'
p2665
F0.016878
sS'ADP'
p2666
F0.983122
s(lp2667
(g320
I38
tp2668
atp2669
a(S'campa\xc3\xb1as'
p2670
(dp2671
S'NOUN'
p2672
F1.0
s(lp2673
(g327
I39
tp2674
atp2675
a(S'dirigidas'
p2676
(dp2677
S'VERB'
p2678
F1.0
s(lp2679
(g339
I40
tp2680
atp2681
a(g92
(dp2682
g498
F0.000207
sS'CONJ'
p2683
F0.100052
sS'ADP'
p2684
F0.89974
s(lp2685
(g346
I41
tp2686
atp2687
a(S'constitucionalizar'
p2688
(dp2689
S'ADJ'
p2690
F3e-05
sS'VERB'
p2691
F0.9998889999999999
sS'NOUN'
p2692
F8.1e-05
s(lp2693
(g353
I42
tp2694
atp2695
a(S'la'
p2696
(dp2697
S'PRON'
p2698
F8e-06
sS'DET'
p2699
F0.999991
sS'NOUN'
p2700
F0.0
sg498
F1e-06
s(lp2701
(g362
I43
tp2702
atp2703
a(S'ue'
p2704
(dp2705
S'VERB'
p2706
F7e-06
sS'NOUN'
p2707
F0.999993
s(lp2708
(g375
I44
tp2709
atp2710
a(g5
(dp2711
g5
F1.0
s(lp2712
(g5
I45
tp2713
atp2714
as.