(dp0
S'fr'
p1
(lp2
(S'('
p3
(dp4
S'.'
p5
F1.0
s(lp6
(g3
I0
tp7
atp8
a(S'pt'
p9
(dp10
S'ADJ'
p11
F0.13429
sS'VERB'
p12
F0.638201
sS'NOUN'
p13
F0.227509
s(lp14
(S'pt'
p15
I1
tp16
atp17
a(S')'
p18
(dp19
g5
F1.0
s(lp20
(g18
I2
tp21
atp22
a(S'monsieur'
p23
(dp24
S'NOUN'
p25
F1.0
s(lp26
(S'mr'
p27
I3
tp28
atp29
a(S'le'
p30
(dp31
S'PRON'
p32
F0.000321
sS'DET'
p33
F0.999679
s(lp34
tp35
a(S'pr\xc3\xa9sident'
p36
(dp37
S'VERB'
p38
F4.5e-05
sS'NOUN'
p39
F0.999955
s(lp40
(S'president'
p41
I4
tp42
atp43
a(S','
p44
(dp45
g5
F1.0
s(lp46
(g44
I5
tp47
atp48
a(S'lorsque'
p49
(dp50
S'CONJ'
p51
F1.0
s(lp52
(S'when'
p53
I6
tp54
atp55
a(S'nous'
p56
(dp57
S'PRON'
p58
F1.0
s(lp59
tp60
a(S'envisageons'
p61
(dp62
S'VERB'
p63
F1.0
s(lp64
(S'considering'
p65
I7
tp66
atp67
a(S'la'
p68
(dp69
S'PRON'
p70
F2.6e-05
sS'DET'
p71
F0.999974
sS'NOUN'
p72
F0.0
s(lp73
(S'the'
p74
I8
tp75
atp76
a(S'cr\xc3\xa9ation'
p77
(dp78
S'NOUN'
p79
F1.0
s(lp80
(S'establishment'
p81
I9
tp82
atp83
a(S"d'"
p84
(dp85
S'NOUN'
p86
F0.032441
sS'VERB'
p87
F0.694014
sS'ADJ'
p88
F0.273544
s(lp89
(S'of'
p90
I10
tp91
atp92
a(S'une'
p93
(dp94
S'NOUN'
p95
F3.3e-05
sS'NUM'
p96
F0.022079
sS'DET'
p97
F0.977889
s(lp98
(S'a'
p99
I11
tp100
atp101
a(S'zone'
p102
(dp103
S'VERB'
p104
F0.00036100000000000005
sS'NOUN'
p105
F0.999639
s(lp106
(S'area'
p107
I15
tp108
atp109
a(S'de'
p110
(dp111
S'ADP'
p112
F1.0
s(lp113
(S'trade'
p114
I14
tp115
atp116
a(S'libre-\xc3\xa9change'
p117
(dp118
S'NOUN'
p119
F1.0
s(lp120
(S'free'
p121
I13
tp122
atp123
a(S'euro-m\xc3\xa9diterran\xc3\xa9enne'
p124
(dp125
S'NOUN'
p126
F0.006091
sS'ADJ'
p127
F0.993909
s(lp128
(S'euro-mediterranean'
p129
I12
tp130
atp131
a(g44
(dp132
g5
F1.0
s(lp133
(g44
I16
tp134
atp135
a(S'nous'
p136
(dp137
S'PRON'
p138
F1.0
s(lp139
(S'we'
p140
I17
tp141
atp142
a(S'devrions'
p143
(dp144
S'VERB'
p145
F1.0
s(lp146
(S'should'
p147
I18
tp148
atp149
a(S'garder'
p150
(dp151
S'VERB'
p152
F1.0
s(lp153
(S'bear'
p154
I21
tp155
atp156
a(S'deux'
p157
(dp158
S'NUM'
p159
F0.999994
sS'NOUN'
p160
F6e-06
s(lp161
(S'two'
p162
I22
tp163
atp164
a(S'choses'
p165
(dp166
S'VERB'
p167
F0.000108
sS'NOUN'
p168
F0.999892
s(lp169
(S'things'
p170
I23
tp171
atp172
a(S'\xc3\xa0'
p173
(dp174
S'ADP'
p175
F1.0
s(lp176
(S'in'
p177
I24
tp178
atp179
a(S"l'"
p180
(dp181
S'ADJ'
p182
F0.160704
sS'VERB'
p183
F0.06480800000000002
sS'NOUN'
p184
F0.774488
s(lp185
tp186
a(S'esprit'
p187
(dp188
S'NOUN'
p189
F1.0
s(lp190
(S'mind'
p191
I25
tp192
atp193
a(g5
(dp194
g5
F1.0
s(lp195
(g5
I26
tp196
atp197
asS'en'
p198
(lp199
(g3
(dp200
g5
F1.0
s(lp201
(g3
I0
tp202
atp203
a(g15
(dp204
S'ADJ'
p205
F0.028724
sS'NOUN'
p206
F0.971276
s(lp207
(g15
I1
tp208
atp209
a(g18
(dp210
g5
F1.0
s(lp211
(g18
I2
tp212
atp213
a(g27
(dp214
S'ADJ'
p215
F0.004952
sS'NOUN'
p216
F0.995048
s(lp217
(g27
I3
tp218
atp219
a(g41
(dp220
S'NOUN'
p221
F1.0
s(lp222
(g41
I4
tp223
atp224
a(g44
(dp225
g5
F1.0
s(lp226
(g44
I5
tp227
atp228
a(g53
(dp229
S'ADV'
p230
F0.99994
sS'ADP'
p231
F6e-05
s(lp232
(g53
I6
tp233
atp234
a(g65
(dp235
S'ADV'
p236
F0.001505
sS'VERB'
p237
F0.998357
sS'ADP'
p238
F0.000138
s(lp239
(g65
I7
tp240
atp241
a(g74
(dp242
S'NOUN'
p243
F1e-06
sS'DET'
p244
F0.999999
s(lp245
(g74
I8
tp246
atp247
a(g81
(dp248
S'NOUN'
p249
F1.0
s(lp250
(g81
I9
tp251
atp252
a(g90
(dp253
S'ADP'
p254
F1.0
s(lp255
(g90
I10
tp256
atp257
a(g99
(dp258
S'NOUN'
p259
F0.0
sS'DET'
p260
F1.0
s(lp261
(g99
I11
tp262
atp263
a(g129
(dp264
S'NOUN'
p265
F0.051195000000000004
sS'VERB'
p266
F6.2e-05
sS'ADJ'
p267
F0.948743
s(lp268
(g129
I12
tp269
atp270
a(g121
(dp271
S'ADV'
p272
F0.000663
sS'NOUN'
p273
F0.003475
sS'VERB'
p274
F0.000318
sS'ADJ'
p275
F0.995544
s(lp276
(g121
I13
tp277
atp278
a(g114
(dp279
S'VERB'
p280
F0.000695
sS'NOUN'
p281
F0.999306
s(lp282
(g114
I14
tp283
atp284
a(g107
(dp285
S'NOUN'
p286
F1.0
s(lp287
(g107
I15
tp288
atp289
a(g44
(dp290
g5
F1.0
s(lp291
(g44
I16
tp292
atp293
a(g140
(dp294
S'PRON'
p295
F1.0
s(lp296
(g140
I17
tp297
atp298
a(g147
(dp299
S'VERB'
p300
F1.0
s(lp301
(g147
I18
tp302
atp303
a(S'remember'
p304
(dp305
S'VERB'
p306
F1.0
s(lp307
(g304
I19
tp308
atp309
a(S'to'
p310
(dp311
S'ADV'
p312
F0.0
sS'PRT'
p313
F1.0
sS'ADP'
p314
F0.0
s(lp315
(g310
I20
tp316
atp317
a(g154
(dp318
S'VERB'
p319
F0.997282
sS'NOUN'
p320
F0.002718
s(lp321
(g154
I21
tp322
atp323
a(g162
(dp324
S'NUM'
p325
F0.999934
sS'NOUN'
p326
F6.6e-05
s(lp327
(g162
I22
tp328
atp329
a(g170
(dp330
S'NOUN'
p331
F1.0
s(lp332
(g170
I23
tp333
atp334
a(g177
(dp335
S'ADV'
p336
F0.000223
sS'PRT'
p337
F0.000162
sS'ADP'
p338
F0.999615
s(lp339
(g177
I24
tp340
atp341
a(g191
(dp342
S'VERB'
p343
F0.000901
sS'NOUN'
p344
F0.999099
s(lp345
(g191
I25
tp346
atp347
a(g5
(dp348
g5
F1.0
s(lp349
(g5
I26
tp350
atp351
asS'nl'
p352
(lp353
(g3
(dp354
g5
F1.0
s(lp355
(g3
I0
tp356
atp357
a(S'pt'
p358
(dp359
S'ADJ'
p360
F0.06221
sS'NOUN'
p361
F0.93779
s(lp362
(g15
I1
tp363
atp364
a(g18
(dp365
g5
F1.0
s(lp366
(g18
I2
tp367
atp368
a(S'mijnheer'
p369
(dp370
S'NOUN'
p371
F1.0
s(lp372
(g27
I3
tp373
atp374
a(S'de'
p375
(dp376
S'DET'
p377
F1.0
s(lp378
tp379
a(S'voorzitter'
p380
(dp381
S'NOUN'
p382
F1.0
s(lp383
(g41
I4
tp384
atp385
a(g44
(dp386
g5
F1.0
s(lp387
(g44
I5
tp388
atp389
a(S'bij'
p390
(dp391
S'ADV'
p392
F0.019453
sS'ADJ'
p393
F0.0
sS'NOUN'
p394
F0.0
sS'ADP'
p395
F0.980547
s(lp396
(g53
I6
tp397
atp398
a(S'de'
p399
(dp400
S'DET'
p401
F1.0
s(lp402
(g74
I8
tp403
atp404
a(S'totstandbrenging'
p405
(dp406
S'NOUN'
p407
F1.0
s(lp408
(g81
I9
tp409
atp410
a(S'van'
p411
(dp412
S'ADP'
p413
F1.0
s(lp414
(g90
I10
tp415
atp416
a(S'een'
p417
(dp418
S'ADJ'
p419
F1e-06
sS'PRON'
p420
F1.4e-05
sS'NUM'
p421
F0.0
sS'DET'
p422
F0.999985
s(lp423
(g99
I11
tp424
atp425
a(S'euromed-vrijhandelszone'
p426
(dp427
S'NOUN'
p428
F1.0
s(lp429
(g129
I12
tp430
atp431
a(S'zijn'
p432
(dp433
S'PRON'
p434
F1e-06
sS'VERB'
p435
F0.999925
sS'NOUN'
p436
F7.4e-05
s(lp437
tp438
a(S'er'
p439
(dp440
S'ADV'
p441
F1.0
s(lp442
(g154
I21
tp443
atp444
a(S'twee'
p445
(dp446
S'NUM'
p447
F1.0
s(lp448
(g162
I22
tp449
atp450
a(S'punten'
p451
(dp452
S'VERB'
p453
F1e-06
sS'NOUN'
p454
F0.999999
s(lp455
(g170
I23
tp456
atp457
a(S'die'
p458
(dp459
S'PRON'
p460
F1.0
s(lp461
tp462
a(S'wij'
p463
(dp464
S'PRON'
p465
F1.0
s(lp466
(g140
I17
tp467
atp468
a(S'goed'
p469
(dp470
S'ADV'
p471
F0.024343
sS'ADJ'
p472
F0.095725
sS'NOUN'
p473
F0.879932
s(lp474
(g304
I19
tp475
atp476
a(S'voor'
p477
(dp478
S'ADV'
p479
F0.017996
sS'CONJ'
p480
F4e-06
sS'NOUN'
p481
F3.9e-05
sS'ADP'
p482
F0.981961
s(lp483
(g177
I24
tp484
atp485
a(S'ogen'
p486
(dp487
S'VERB'
p488
F0.018541
sS'NOUN'
p489
F0.9814590000000001
s(lp490
tp491
a(S'moeten'
p492
(dp493
S'VERB'
p494
F0.999976
sS'NOUN'
p495
F2.4e-05
s(lp496
(g147
I18
tp497
atp498
a(S'houden'
p499
(dp500
S'VERB'
p501
F0.99997
sS'NOUN'
p502
F2.9e-05
s(lp503
(g191
I25
tp504
atp505
a(g5
(dp506
g5
F1.0
s(lp507
(g5
I26
tp508
atp509
asS'de'
p510
(lp511
(g3
(dp512
g5
F1.0
s(lp513
(g3
I0
tp514
atp515
a(S'pt'
p516
(dp517
S'ADJ'
p518
F0.006315
sS'NOUN'
p519
F0.987444
s(lp520
(g15
I1
tp521
atp522
a(g18
(dp523
g5
F1.0
s(lp524
(g18
I2
tp525
atp526
a(S'herr'
p527
(dp528
S'ADJ'
p529
F0.197595
sS'NOUN'
p530
F0.771917
s(lp531
(g27
I3
tp532
atp533
a(S'pr\xc3\xa4sident'
p534
(dp535
S'VERB'
p536
F0.063894
sS'NOUN'
p537
F0.922144
s(lp538
(g41
I4
tp539
atp540
a(g44
(dp541
g5
F1.0
s(lp542
(g44
I5
tp543
atp544
a(S'wenn'
p545
(dp546
S'CONJ'
p547
F1.0
s(lp548
(g53
I6
tp549
atp550
a(S'wir'
p551
(dp552
S'PRON'
p553
F1.0
s(lp554
(g65
I7
tp555
atp556
a(S'dar\xc3\xbcber'
p557
(dp558
S'ADV'
p559
F0.99895
sS'PRT'
p560
F0.00105
s(lp561
tp562
a(S'nachdenken'
p563
(dp564
S'VERB'
p565
F1.0
s(lp566
(g65
I7
tp567
atp568
a(g44
(dp569
g5
F1.0
s(lp570
tp571
a(S'eine'
p572
(dp573
S'PRON'
p574
F0.00708
sS'DET'
p575
F0.99249
s(lp576
(g99
I11
tp577
atp578
a(S'euromed-freihandelszone'
p579
(dp580
S'ADJ'
p581
F0.041311
sS'NOUN'
p582
F0.956787
s(lp583
(g129
I12
tp584
atp585
a(S'zu'
p586
(dp587
S'PRT'
p588
F0.999972
s(lp589
(g310
I20
tp590
atp591
a(S'errichten'
p592
(dp593
S'VERB'
p594
F1.0
s(lp595
(g81
I9
tp596
atp597
a(g44
(dp598
g5
F1.0
s(lp599
(g44
I16
tp600
atp601
a(S'sollten'
p602
(dp603
S'VERB'
p604
F1.0
s(lp605
(g147
I18
tp606
atp607
a(S'wir'
p608
(dp609
S'PRON'
p610
F1.0
s(lp611
(g140
I17
tp612
atp613
a(S'zwei'
p614
(dp615
S'NUM'
p616
F1.0
s(lp617
(g162
I22
tp618
atp619
a(S'punkte'
p620
(dp621
S'VERB'
p622
F1.0
s(lp623
(g170
I23
tp624
atp625
a(S'nicht'
p626
(dp627
S'PRT'
p628
F1.0
s(lp629
(g154
I21
tp630
atp631
a(S'vergessen'
p632
(dp633
S'VERB'
p634
F0.998961
s(lp635
(g191
I25
tp636
atp637
a(g5
(dp638
g5
F1.0
s(lp639
(g5
I26
tp640
atp641
asS'it'
p642
(lp643
(g3
(dp644
g5
F1.0
s(lp645
(g3
I0
tp646
atp647
a(S'pt'
p648
(dp649
S'NOUN'
p650
F1.0
s(lp651
(g15
I1
tp652
atp653
a(g18
(dp654
g5
F1.0
s(lp655
(g18
I2
tp656
atp657
a(S'signor'
p658
(dp659
S'NOUN'
p660
F1.0
s(lp661
(g27
I3
tp662
atp663
a(S'presidente'
p664
(dp665
S'NOUN'
p666
F1.0
s(lp667
(g41
I4
tp668
atp669
a(g44
(dp670
g5
F1.0
s(lp671
(g44
I5
tp672
atp673
a(S'il'
p674
(dp675
S'DET'
p676
F1.0
s(lp677
(g53
I6
tp678
atp679
a(S'dibattito'
p680
(dp681
S'NOUN'
p682
F1.0
s(lp683
(g65
I7
tp684
atp685
a(S"sull'"
p686
(dp687
S'ADJ'
p688
F0.040682
sS'VERB'
p689
F0.006560999999999999
sS'NOUN'
p690
F0.952757
s(lp691
tp692
a(S'opportunit\xc3\xa0'
p693
(dp694
S'NOUN'
p695
F1.0
s(lp696
(g65
I7
tp697
atp698
a(S'di'
p699
(dp700
S'CONJ'
p701
F6e-06
sS'ADP'
p702
F0.999994
s(lp703
tp704
a(S'istituire'
p705
(dp706
S'VERB'
p707
F1.0
s(lp708
(g81
I9
tp709
atp710
a(S"un'"
p711
(dp712
S'PRON'
p713
F0.006833
sS'DEF'
p714
F0.993167
s(lp715
(g99
I11
tp716
atp717
a(S'area'
p718
(dp719
S'NOUN'
p720
F1.0
s(lp721
(g107
I15
tp722
atp723
a(S'di'
p724
(dp725
S'CONJ'
p726
F1.6e-05
sS'ADP'
p727
F0.999984
s(lp728
(g90
I10
tp729
atp730
a(S'libero'
p731
(dp732
S'VERB'
p733
F4e-06
sS'ADJ'
p734
F0.999996
s(lp735
(g121
I13
tp736
atp737
a(S'scambio'
p738
(dp739
S'VERB'
p740
F0.006597
sS'NOUN'
p741
F0.993403
s(lp742
(g114
I14
tp743
atp744
a(S'euromediterranea'
p745
(dp746
S'ADJ'
p747
F1.0
s(lp748
(g129
I12
tp749
atp750
a(S'non'
p751
(dp752
S'ADV'
p753
F1.0
s(lp754
(g140
I17
tp755
atp756
a(S'pu\xc3\xb2'
p757
(dp758
S'VERB'
p759
F1.0
s(lp760
(g147
I18
tp761
atp762
a(S'dimenticare'
p763
(dp764
S'VERB'
p765
F1.0
s(lp766
(g304
I19
tp767
atp768
a(S'due'
p769
(dp770
S'NUM'
p771
F0.00011
sS'ADJ'
p772
F0.99989
s(lp773
(g162
I22
tp774
atp775
a(S'elementi'
p776
(dp777
S'NOUN'
p778
F1.0
s(lp779
(g170
I23
tp780
atp781
a(g5
(dp782
g5
F1.0
s(lp783
(g5
I26
tp784
atp785
asS'sk'
p786
(lp787
(g3
(dp788
g5
F1.0
s(lp789
(g3
I0
tp790
atp791
a(S'pt'
p792
(dp793
S'X'
p794
F1.0
s(lp795
(g15
I1
tp796
atp797
a(g18
(dp798
g5
F1.0
s(lp799
(g18
I2
tp800
atp801
a(S'v\xc3\xa1\xc5\xbeen\xc3\xbd'
p802
(dp803
S'VERB'
p804
F0.273237
sS'ADJ'
p805
F0.726763
s(lp806
tp807
a(S'p\xc3\xa1n'
p808
(dp809
S'NOUN'
p810
F1.0
s(lp811
(g27
I3
tp812
atp813
a(S'predsedaj\xc3\xbaci'
p814
(dp815
S'VERB'
p816
F1.0
s(lp817
(g41
I4
tp818
atp819
a(g44
(dp820
g5
F1.0
s(lp821
(g44
I5
tp822
atp823
a(S'ke\xc4\x8f'
p824
(dp825
g794
F0.000368
sS'CONJ'
p826
F0.999632
s(lp827
(g53
I6
tp828
atp829
a(S'posudzujeme'
p830
(dp831
S'VERB'
p832
F1.0
s(lp833
(g65
I7
tp834
atp835
a(S'vytvorenie'
p836
(dp837
S'NOUN'
p838
F1.0
s(lp839
(g81
I9
tp840
atp841
a(S'euro-stredomorskej'
p842
(dp843
S'NOUN'
p844
F0.000708
sS'ADJ'
p845
F0.999292
s(lp846
tp847
a(S'z\xc3\xb3ny'
p848
(dp849
S'NOUN'
p850
F1.0
s(lp851
(g129
I12
tp852
atp853
a(S'vo\xc4\xben\xc3\xa9ho'
p854
(dp855
S'ADJ'
p856
F1.0
s(lp857
(g121
I13
tp858
atp859
a(S'obchodu'
p860
(dp861
S'NOUN'
p862
F1.0
s(lp863
(g114
I14
tp864
atp865
a(g44
(dp866
g5
F1.0
s(lp867
(g44
I16
tp868
atp869
a(S'mali'
p870
(dp871
S'VERB'
p872
F0.9999999999999999
s(lp873
tp874
a(S'by'
p875
(dp876
S'PRT'
p877
F1.0
sg794
F0.0
s(lp878
(g147
I18
tp879
atp880
a(S'sme'
p881
(dp882
g794
F1e-06
sS'VERB'
p883
F0.999999
s(lp884
tp885
a(S'ma\xc5\xa5'
p886
(dp887
S'VERB'
p888
F0.999593
sS'NOUN'
p889
F0.000407
s(lp890
(g304
I19
tp891
atp892
a(S'na'
p893
(dp894
g794
F6.2e-05
sS'CONJ'
p895
F7e-06
sS'ADP'
p896
F0.999928
sS'PRT'
p897
F3e-06
s(lp898
(g310
I20
tp899
atp900
a(S'pam\xc3\xa4ti'
p901
(dp902
S'NOUN'
p903
F1.0
s(lp904
(g154
I21
tp905
atp906
a(S'dve'
p907
(dp908
S'NUM'
p909
F1.0
s(lp910
(g162
I22
tp911
atp912
a(S'veci'
p913
(dp914
S'NOUN'
p915
F1.0
s(lp916
(g170
I23
tp917
atp918
a(g5
(dp919
g5
F1.0
s(lp920
(g5
I26
tp921
atp922
asS'pl'
p923
(lp924
(g3
(dp925
S'NOUN'
p926
F0.000224
sg5
F0.999776
s(lp927
(g3
I0
tp928
atp929
a(S'pt'
p930
(dp931
g794
F1.0
s(lp932
(g15
I1
tp933
atp934
a(g18
(dp935
g5
F1.0
s(lp936
(g18
I2
tp937
atp938
a(S'panie'
p939
(dp940
S'NOUN'
p941
F1.0
s(lp942
(g27
I3
tp943
atp944
a(S'przewodnicz\xc4\x85cy'
p945
(dp946
S'VERB'
p947
F0.000602
sS'NOUN'
p948
F0.999398
s(lp949
tp950
a(S'!'
p951
(dp952
g5
F1.0
s(lp953
(g41
I4
tp954
atp955
a(S'm\xc3\xb3wi\xc4\x85c'
p956
(dp957
S'VERB'
p958
F1.0
s(lp959
(g53
I6
tp960
atp961
a(S'o'
p962
(dp963
g794
F2e-06
sS'VERB'
p964
F0.0
sS'NOUN'
p965
F0.0
sS'ADP'
p966
F0.9999979999999999
sS'PRT'
p967
F0.0
s(lp968
(g65
I7
tp969
atp970
a(S'ustanowieniu'
p971
(dp972
S'VERB'
p973
F1.0
s(lp974
(g81
I9
tp975
atp976
a(S'euro-\xc5\x9br\xc3\xb3dziemnomorskiego'
p977
(dp978
S'ADV'
p979
F5e-06
sS'NOUN'
p980
F0.053462000000000016
sS'ADJ'
p981
F0.9465349999999999
s(lp982
(g129
I12
tp983
atp984
a(S'obszaru'
p985
(dp986
S'NOUN'
p987
F1.0
s(lp988
(g107
I15
tp989
atp990
a(S'wolnego'
p991
(dp992
S'NOUN'
p993
F0.000172
sS'ADJ'
p994
F0.999828
s(lp995
(g121
I13
tp996
atp997
a(S'handlu'
p998
(dp999
S'NOUN'
p1000
F1.0
s(lp1001
(g114
I14
tp1002
atp1003
a(g44
(dp1004
g794
F0.0
sg5
F1.0
s(lp1005
(g44
I16
tp1006
atp1007
a(S'powinni\xc5\x9bmy'
p1008
(dp1009
S'ADJ'
p1010
F3.5e-05
sS'VERB'
p1011
F0.999184
sS'NOUN'
p1012
F0.000783
s(lp1013
(g147
I18
tp1014
atp1015
a(S'pami\xc4\x99ta\xc4\x87'
p1016
(dp1017
S'VERB'
p1018
F1.0
s(lp1019
(g304
I19
tp1020
atp1021
a(g962
(dp1022
g794
F8.4e-05
sS'VERB'
p1023
F3e-06
sS'NOUN'
p1024
F0.0
sS'ADP'
p1025
F0.9999119999999999
sS'PRT'
p1026
F1e-06
s(lp1027
(g154
I21
tp1028
atp1029
a(S'dw\xc3\xb3ch'
p1030
(dp1031
S'NUM'
p1032
F1.0
s(lp1033
(g162
I22
tp1034
atp1035
a(S'aspektach'
p1036
(dp1037
S'NOUN'
p1038
F1.0
s(lp1039
(g170
I23
tp1040
atp1041
a(g5
(dp1042
g5
F1.0
s(lp1043
(g5
I26
tp1044
atp1045
asS'sl'
p1046
(lp1047
(g3
(dp1048
g5
F1.0
s(lp1049
(g3
I0
tp1050
atp1051
a(S'pt'
p1052
(dp1053
S'NOUN'
p1054
F1.0
s(lp1055
(g15
I1
tp1056
atp1057
a(g18
(dp1058
g5
F1.0
s(lp1059
(g18
I2
tp1060
atp1061
a(S'gospod'
p1062
(dp1063
S'NOUN'
p1064
F1.0
s(lp1065
(g27
I3
tp1066
atp1067
a(S'predsednik'
p1068
(dp1069
S'NOUN'
p1070
F1.0
s(lp1071
(g41
I4
tp1072
atp1073
a(g44
(dp1074
g5
F1.0
s(lp1075
(g44
I5
tp1076
atp1077
a(S'ko'
p1078
(dp1079
S'CONJ'
p1080
F1.0
s(lp1081
(g53
I6
tp1082
atp1083
a(S'obravnavamo'
p1084
(dp1085
S'VERB'
p1086
F1.0
s(lp1087
(g65
I7
tp1088
atp1089
a(S'vzpostavitev'
p1090
(dp1091
S'NOUN'
p1092
F1.0
s(lp1093
(g81
I9
tp1094
atp1095
a(S'evro-sredozemskega'
p1096
(dp1097
S'NOUN'
p1098
F0.000518
sS'ADJ'
p1099
F0.999482
s(lp1100
(g129
I12
tp1101
atp1102
a(S'obmo\xc4\x8dja'
p1103
(dp1104
S'NOUN'
p1105
F1.000001
s(lp1106
(g107
I15
tp1107
atp1108
a(S'proste'
p1109
(dp1110
S'ADJ'
p1111
F1.0
s(lp1112
(g121
I13
tp1113
atp1114
a(S'trgovine'
p1115
(dp1116
S'NOUN'
p1117
F0.999999
s(lp1118
(g114
I14
tp1119
atp1120
a(S'ne'
p1121
(dp1122
S'PRT'
p1123
F0.9842
sS'CONJ'
p1124
F0.01575
sg794
F5.1e-05
s(lp1125
(g304
I19
tp1126
atp1127
a(S'smemo'
p1128
(dp1129
S'VERB'
p1130
F1.0
s(lp1131
tp1132
a(S'pozabiti'
p1133
(dp1134
S'VERB'
p1135
F1.0
s(lp1136
(g304
I19
tp1137
atp1138
a(S'na'
p1139
(dp1140
S'ADP'
p1141
F1.0
s(lp1142
(g310
I20
tp1143
atp1144
a(S'dve'
p1145
(dp1146
S'NUM'
p1147
F0.999999
s(lp1148
(g162
I22
tp1149
atp1150
a(S'stvari'
p1151
(dp1152
S'NOUN'
p1153
F1.000001
s(lp1154
(g170
I23
tp1155
atp1156
a(g5
(dp1157
g5
F1.0
s(lp1158
(g5
I26
tp1159
atp1160
asS'es'
p1161
(lp1162
(g3
(dp1163
g5
F1.0
s(lp1164
(g3
I0
tp1165
atp1166
a(S'pt'
p1167
(dp1168
S'ADJ'
p1169
F0.007217
sS'VERB'
p1170
F0.003829
sS'NOUN'
p1171
F0.988953
s(lp1172
(g15
I1
tp1173
atp1174
a(g18
(dp1175
g5
F1.0
s(lp1176
(g18
I2
tp1177
atp1178
a(S'se\xc3\xb1or'
p1179
(dp1180
S'NOUN'
p1181
F1.0
s(lp1182
(g27
I3
tp1183
atp1184
a(S'presidente'
p1185
(dp1186
S'NOUN'
p1187
F1.0
s(lp1188
(g41
I4
tp1189
atp1190
a(g44
(dp1191
g5
F1.0
s(lp1192
(g44
I5
tp1193
atp1194
a(g99
(dp1195
g794
F0.001861
sS'CONJ'
p1196
F1e-05
sS'ADP'
p1197
F0.998129
s(lp1198
tp1199
a(S'la'
p1200
(dp1201
g794
F1e-06
sS'PRON'
p1202
F0.0
sS'DET'
p1203
F0.999999
sS'NOUN'
p1204
F0.0
s(lp1205
tp1206
a(S'hora'
p1207
(dp1208
S'NOUN'
p1209
F1.0
s(lp1210
(g53
I6
tp1211
atp1212
a(S'de'
p1213
(dp1214
g794
F0.0
sS'CONJ'
p1215
F0.345844
sS'ADP'
p1216
F0.654156
s(lp1217
tp1218
a(S'considerar'
p1219
(dp1220
S'VERB'
p1221
F1.0
s(lp1222
(g65
I7
tp1223
atp1224
a(S'la'
p1225
(dp1226
S'PRON'
p1227
F4e-06
sS'DET'
p1228
F0.999995
sS'NOUN'
p1229
F0.0
sg794
F1e-06
s(lp1230
(g74
I8
tp1231
atp1232
a(S'creaci\xc3\xb3n'
p1233
(dp1234
S'NOUN'
p1235
F1.0
s(lp1236
(g81
I9
tp1237
atp1238
a(S'de'
p1239
(dp1240
g794
F0.0
sS'CONJ'
p1241
F1.7e-05
sS'ADP'
p1242
F0.999983
s(lp1243
(g90
I10
tp1244
atp1245
a(S'una'
p1246
(dp1247
S'DET'
p1248
F1.0
s(lp1249
(g99
I11
tp1250
atp1251
a(S'zona'
p1252
(dp1253
S'NOUN'
p1254
F1.0
s(lp1255
(g107
I15
tp1256
atp1257
a(S'de'
p1258
(dp1259
g794
F0.000503
sS'CONJ'
p1260
F0.000816
sS'ADP'
p1261
F0.998681
s(lp1262
tp1263
a(S'libre'
p1264
(dp1265
g794
F0.002196
sS'ADJ'
p1266
F0.997804
s(lp1267
(g121
I13
tp1268
atp1269
a(S'comercio'
p1270
(dp1271
S'VERB'
p1272
F0.039066
sS'NOUN'
p1273
F0.960934
s(lp1274
(g114
I14
tp1275
atp1276
a(S'euromediterr\xc3\xa1nea'
p1277
(dp1278
S'ADJ'
p1279
F1.0
s(lp1280
(g129
I12
tp1281
atp1282
a(g44
(dp1283
g5
F1.0
s(lp1284
(g44
I16
tp1285
atp1286
a(S'debemos'
p1287
(dp1288
S'VERB'
p1289
F1.0
s(lp1290
(g147
I18
tp1291
atp1292
a(S'acordarnos'
p1293
(dp1294
S'VERB'
p1295
F1.0
s(lp1296
(g304
I19
tp1297
atp1298
a(S'de'
p1299
(dp1300
g794
F0.0
sS'CONJ'
p1301
F0.503693
sS'ADP'
p1302
F0.496306
s(lp1303
(g310
I20
tp1304
atp1305
a(S'tener'
p1306
(dp1307
S'VERB'
p1308
F1.0
s(lp1309
(g154
I21
tp1310
atp1311
a(S'dos'
p1312
(dp1313
S'NUM'
p1314
F0.999922
sS'NOUN'
p1315
F7.8e-05
s(lp1316
(g162
I22
tp1317
atp1318
a(S'cosas'
p1319
(dp1320
S'NOUN'
p1321
F1.0
s(lp1322
(g170
I23
tp1323
atp1324
a(S'en'
p1325
(dp1326
g794
F2e-05
sS'CONJ'
p1327
F1e-05
sS'ADP'
p1328
F0.99997
s(lp1329
(g177
I24
tp1330
atp1331
a(S'cuenta'
p1332
(dp1333
S'VERB'
p1334
F0.000135
sS'NOUN'
p1335
F0.999865
s(lp1336
(g191
I25
tp1337
atp1338
a(g5
(dp1339
g5
F1.0
s(lp1340
(g5
I26
tp1341
atp1342
as.