(dp0
S'fr'
p1
(lp2
(S'nous'
p3
(dp4
S'PRON'
p5
F1.0
s(lp6
(S'we'
p7
I0
tp8
atp9
a(S'gardons'
p10
(dp11
S'VERB'
p12
F0.9985149999999999
sS'NOUN'
p13
F0.001485
s(lp14
(S'realism'
p15
I12
tp16
atp17
a(S'cependant'
p18
(dp19
S'ADV'
p20
F1.0
s(lp21
(S'however'
p22
I8
tp23
atp24
a(S'les'
p25
(dp26
S'PRON'
p27
F0.000111
sS'DET'
p28
F0.999847
sS'ADP'
p29
F4.2e-05
s(lp30
(S'remaining'
p31
I2
tp32
atp33
a(S'pieds'
p34
(dp35
S'NOUN'
p36
F1.0
s(lp37
(S'realistic'
p38
I4
tp39
atp40
a(S'sur'
p41
(dp42
S'ADP'
p43
F1.0
s(lp44
(S'about'
p45
I5
tp46
atp47
a(S'terre'
p48
(dp49
S'VERB'
p50
F2e-05
sS'NOUN'
p51
F0.99998
s(lp52
(S'this'
p53
I6
tp54
atp55
a(S','
p56
(dp57
S'.'
p58
F1.0
s(lp59
(g56
I7
tp60
atp61
a(S"j'"
p62
(dp63
S'ADJ'
p64
F0.280608
sS'VERB'
p65
F0.007367
sS'NOUN'
p66
F0.681695
sS'X'
p67
F0.03033
s(lp68
(S'i'
p69
I18
tp70
atp71
a(S'entends'
p72
(dp73
S'VERB'
p74
F1.0
s(lp75
(S'like'
p76
I20
tp77
atp78
a(S'par'
p79
(dp80
S'NOUN'
p81
F9e-06
sS'ADP'
p82
F0.999991
s(lp83
(S'to'
p84
I21
tp85
atp86
a(S'l\xc3\xa0'
p87
(dp88
S'ADV'
p89
F1.0
s(lp90
(S'here'
p91
I16
tp92
atp93
a(S'que'
p94
(dp95
S'ADV'
p96
F0.045988
sS'PRON'
p97
F0.030662
sS'CONJ'
p98
F0.923351
s(lp99
(S'that'
p100
I23
tp101
atp102
a(S'la'
p103
(dp104
S'PRON'
p105
F0.000106
sS'DET'
p106
F0.999894
sS'NOUN'
p107
F0.0
s(lp108
(S'the'
p109
I24
tp110
atp111
a(S'pr\xc3\xa9sidence'
p112
(dp113
S'NOUN'
p114
F1.0
s(lp115
(S'presidency'
p116
I25
tp117
atp118
a(S'et'
p119
(dp120
S'CONJ'
p121
F1.0
s(lp122
(S'and'
p123
I26
tp124
atp125
a(S'le'
p126
(dp127
S'PRON'
p128
F0.000549
sS'DET'
p129
F0.999451
s(lp130
(S'the'
p131
I27
tp132
atp133
a(S'conseil'
p134
(dp135
S'NOUN'
p136
F1.0
s(lp137
(S'council'
p138
I28
tp139
atp140
a(S'resteront'
p141
(dp142
S'VERB'
p143
F1.0
s(lp144
(S'will'
p145
I29
tp146
atp147
a(S'r\xc3\xa9alistes'
p148
(dp149
S'NOUN'
p150
F0.078954
sS'ADJ'
p151
F0.921046
s(lp152
(S'realistic'
p153
I31
tp154
atp155
a(g58
(dp156
g58
F1.0
s(lp157
(g58
I32
tp158
atp159
asS'en'
p160
(lp161
(g7
(dp162
S'PRON'
p163
F1.0
s(lp164
(g7
I0
tp165
atp166
a(S'are'
p167
(dp168
S'VERB'
p169
F1.0
sS'NOUN'
p170
F0.0
s(lp171
(g167
I1
tp172
atp173
a(g31
(dp174
S'VERB'
p175
F0.999928
sS'ADJ'
p176
F7.2e-05
s(lp177
(g31
I2
tp178
atp179
a(S'totally'
p180
(dp181
S'ADV'
p182
F1.0
s(lp183
(g180
I3
tp184
atp185
a(g38
(dp186
S'ADJ'
p187
F1.0
s(lp188
(g38
I4
tp189
atp190
a(g45
(dp191
S'ADV'
p192
F0.07181
sS'ADP'
p193
F0.92819
s(lp194
(g45
I5
tp195
atp196
a(g53
(dp197
S'ADV'
p198
F0.00599
sS'NOUN'
p199
F0.005164
sS'DET'
p200
F0.988847
s(lp201
(g53
I6
tp202
atp203
a(g56
(dp204
g58
F1.0
s(lp205
(g56
I7
tp206
atp207
a(g22
(dp208
S'ADV'
p209
F1.0
s(lp210
(g22
I8
tp211
atp212
a(S'and'
p213
(dp214
S'CONJ'
p215
F0.993341
sS'NOUN'
p216
F0.006659
s(lp217
(g213
I9
tp218
atp219
a(S'-'
p220
(dp221
g58
F1.0
s(lp222
(g220
I10
tp223
atp224
a(S'since'
p225
(dp226
S'ADV'
p227
F0.00687
sS'ADP'
p228
F0.99313
s(lp229
(g225
I11
tp230
atp231
a(g15
(dp232
S'NOUN'
p233
F1.0
s(lp234
(g15
I12
tp235
atp236
a(S'has'
p237
(dp238
S'VERB'
p239
F1.0
s(lp240
(g237
I13
tp241
atp242
a(S'been'
p243
(dp244
S'VERB'
p245
F1.0
s(lp246
(g243
I14
tp247
atp248
a(S'mentioned'
p249
(dp250
S'VERB'
p251
F1.0
s(lp252
(g249
I15
tp253
atp254
a(g91
(dp255
S'ADV'
p256
F0.999145
sS'ADP'
p257
F0.000855
s(lp258
(g91
I16
tp259
atp260
a(g220
(dp261
g58
F1.0
s(lp262
(g220
I17
tp263
atp264
a(g69
(dp265
g67
F0.010604
sS'NOUN'
p266
F0.9893959999999999
s(lp267
(g69
I18
tp268
atp269
a(S'should'
p270
(dp271
S'VERB'
p272
F1.0
s(lp273
(g270
I19
tp274
atp275
a(g76
(dp276
S'VERB'
p277
F0.9997360000000001
sS'ADJ'
p278
F3.1e-05
sS'ADP'
p279
F0.000233
s(lp280
(g76
I20
tp281
atp282
a(g84
(dp283
S'ADV'
p284
F1e-06
sS'PRT'
p285
F0.999999
sS'ADP'
p286
F0.0
s(lp287
(g84
I21
tp288
atp289
a(S'say'
p290
(dp291
S'ADV'
p292
F0.0
sS'VERB'
p293
F0.999929
sS'NOUN'
p294
F7e-05
s(lp295
(g290
I22
tp296
atp297
a(g100
(dp298
S'ADV'
p299
F0.000569
sS'DET'
p300
F0.01794
sS'ADP'
p301
F0.98149
s(lp302
(g100
I23
tp303
atp304
a(g109
(dp305
S'NOUN'
p306
F3e-06
sS'DET'
p307
F0.999997
s(lp308
(g109
I24
tp309
atp310
a(g116
(dp311
S'NOUN'
p312
F1.0
s(lp313
(g116
I25
tp314
atp315
a(g123
(dp316
S'CONJ'
p317
F1.0
sS'NOUN'
p318
F0.0
s(lp319
(g123
I26
tp320
atp321
a(g131
(dp322
S'NOUN'
p323
F2e-06
sS'DET'
p324
F0.999998
s(lp325
(g131
I27
tp326
atp327
a(g138
(dp328
S'NOUN'
p329
F1.0
s(lp330
(g138
I28
tp331
atp332
a(g145
(dp333
S'VERB'
p334
F0.999992
sS'NOUN'
p335
F8e-06
s(lp336
(g145
I29
tp337
atp338
a(S'be'
p339
(dp340
S'VERB'
p341
F1.0
s(lp342
(g339
I30
tp343
atp344
a(g153
(dp345
S'ADJ'
p346
F1.0
s(lp347
(g153
I31
tp348
atp349
a(g58
(dp350
g58
F1.0
s(lp351
(g58
I32
tp352
atp353
asS'nl'
p354
(lp355
(S'maar'
p356
(dp357
S'ADV'
p358
F0.144494
sS'CONJ'
p359
F0.855502
sS'NOUN'
p360
F4e-06
s(lp361
(g22
I8
tp362
atp363
a(S'we'
p364
(dp365
S'PRON'
p366
F1.0
s(lp367
(g7
I0
tp368
atp369
a(S'blijven'
p370
(dp371
S'VERB'
p372
F0.9999370000000001
sS'NOUN'
p373
F6.3e-05
s(lp374
(g31
I2
tp375
atp376
a(S'hier'
p377
(dp378
S'ADV'
p379
F1.0
s(lp380
(g53
I6
tp381
atp382
a(S'heel'
p383
(dp384
S'ADV'
p385
F0.790366
sS'VERB'
p386
F0.000158
sS'ADJ'
p387
F0.209475
s(lp388
(g180
I3
tp389
atp390
a(S'realistisch'
p391
(dp392
S'ADJ'
p393
F1.0
s(lp394
(g38
I4
tp395
atp396
a(S'over'
p397
(dp398
S'ADV'
p399
F0.198283
sS'ADP'
p400
F0.801717
s(lp401
(g45
I5
tp402
atp403
a(S'en'
p404
(dp405
S'CONJ'
p406
F1.0
s(lp407
(g213
I9
tp408
atp409
a(S'aangezien'
p410
(dp411
S'CONJ'
p412
F0.642713
sS'VERB'
p413
F0.357287
s(lp414
(g225
I11
tp415
atp416
a(S'realisme'
p417
(dp418
S'NOUN'
p419
F1.0
s(lp420
(g15
I12
tp421
atp422
a(S'hier'
p423
(dp424
S'ADV'
p425
F1.0
s(lp426
(g91
I16
tp427
atp428
a(S'is'
p429
(dp430
S'VERB'
p431
F1.0
s(lp432
(g237
I13
tp433
atp434
a(S'genoemd'
p435
(dp436
S'VERB'
p437
F0.856551
sS'ADJ'
p438
F0.143449
s(lp439
(g249
I15
tp440
atp441
a(g56
(dp442
g58
F1.0
s(lp443
(g220
I17
tp444
atp445
a(S'wil'
p446
(dp447
S'VERB'
p448
F0.999469
sS'NOUN'
p449
F0.000531
s(lp450
(g270
I19
tp451
atp452
a(S'ik'
p453
(dp454
S'PRON'
p455
F0.999999
sS'NOUN'
p456
F1e-06
s(lp457
(g69
I18
tp458
atp459
a(S'graag'
p460
(dp461
S'ADV'
p462
F0.591631
sS'ADJ'
p463
F0.408369
s(lp464
(g76
I20
tp465
atp466
a(S'zeggen'
p467
(dp468
S'VERB'
p469
F0.991059
sS'NOUN'
p470
F0.008942
s(lp471
(g290
I22
tp472
atp473
a(S'dat'
p474
(dp475
S'PRON'
p476
F0.098024
sS'CONJ'
p477
F0.901976
s(lp478
(g100
I23
tp479
atp480
a(S'voorzitterschap'
p481
(dp482
S'NOUN'
p483
F1.0
s(lp484
(g116
I25
tp485
atp486
a(S'en'
p487
(dp488
S'CONJ'
p489
F1.0
s(lp490
(g123
I26
tp491
atp492
a(S'de'
p493
(dp494
S'DET'
p495
F1.0
s(lp496
(g131
I27
tp497
atp498
a(S'raad'
p499
(dp500
S'VERB'
p501
F3e-06
sS'NOUN'
p502
F0.999997
s(lp503
(g138
I28
tp504
atp505
a(S'realistisch'
p506
(dp507
S'ADJ'
p508
F1.0
s(lp509
(g153
I31
tp510
atp511
a(S'zullen'
p512
(dp513
S'VERB'
p514
F0.997394
sS'NOUN'
p515
F0.002606
s(lp516
(g145
I29
tp517
atp518
a(S'zijn'
p519
(dp520
S'PRON'
p521
F0.015321
sS'VERB'
p522
F0.984429
sS'NOUN'
p523
F0.00025
s(lp524
(g339
I30
tp525
atp526
a(g58
(dp527
g58
F1.0
s(lp528
(g58
I32
tp529
atp530
asS'de'
p531
(lp532
(S'wir'
p533
(dp534
S'PRON'
p535
F1.0
s(lp536
(g7
I0
tp537
atp538
a(S'sind'
p539
(dp540
S'VERB'
p541
F1.0
s(lp542
(g167
I1
tp543
atp544
a(S'diesbez\xc3\xbcglich'
p545
(dp546
S'ADJ'
p547
F1.0
s(lp548
(g53
I6
tp549
atp550
a(S'allerdings'
p551
(dp552
S'ADV'
p553
F1.0
s(lp554
(g22
I8
tp555
atp556
a(S'vollkommen'
p557
(dp558
S'ADJ'
p559
F1.0
s(lp560
(g180
I3
tp561
atp562
a(S'realistisch'
p563
(dp564
S'ADJ'
p565
F1.0
s(lp566
(g38
I4
tp567
atp568
a(g56
(dp569
g58
F1.0
s(lp570
(g56
I7
tp571
atp572
a(S'und'
p573
(dp574
S'CONJ'
p575
F1.0
s(lp576
(g213
I9
tp577
atp578
a(S'ich'
p579
(dp580
S'PRON'
p581
F1.0
s(lp582
(g69
I18
tp583
atp584
a(S'm\xc3\xb6chte'
p585
(dp586
S'VERB'
p587
F1.0
s(lp588
(g76
I20
tp589
atp590
a(S'feststellen'
p591
(dp592
S'VERB'
p593
F1.0
s(lp594
(g290
I22
tp595
atp596
a(g220
(dp597
g58
F1.0
s(lp598
(g220
I10
tp599
atp600
a(S'da'
p601
(dp602
S'ADV'
p603
F0.544344
sS'CONJ'
p604
F0.455444
s(lp605
(g225
I11
tp606
atp607
a(S'der'
p608
(dp609
S'PRON'
p610
F0.000158
sS'DET'
p611
F0.999819
s(lp612
tp613
a(S'realismus'
p614
(dp615
S'NOUN'
p616
F0.999635
s(lp617
(g15
I12
tp618
atp619
a(S'hier'
p620
(dp621
S'ADV'
p622
F0.998345
sS'PRT'
p623
F0.001655
s(lp624
(g91
I16
tp625
atp626
a(S'angesprochen'
p627
(dp628
S'VERB'
p629
F1.0
s(lp630
(g249
I15
tp631
atp632
a(S'wurde'
p633
(dp634
S'VERB'
p635
F1.0
s(lp636
(g243
I14
tp637
atp638
a(g220
(dp639
g58
F1.0
s(lp640
(g220
I17
tp641
atp642
a(g56
(dp643
g58
F1.0
s(lp644
tp645
a(S'dass'
p646
(dp647
S'CONJ'
p648
F1.0
s(lp649
(g100
I23
tp650
atp651
a(S'die'
p652
(dp653
S'PRON'
p654
F0.00085
sS'DET'
p655
F0.999019
s(lp656
(g109
I24
tp657
atp658
a(S'pr\xc3\xa4sidentschaft'
p659
(dp660
S'ADJ'
p661
F0.002347
sS'NOUN'
p662
F0.997495
s(lp663
(g116
I25
tp664
atp665
a(S'und'
p666
(dp667
S'CONJ'
p668
F1.0
s(lp669
(g123
I26
tp670
atp671
a(S'der'
p672
(dp673
S'PRON'
p674
F0.053375
sS'DET'
p675
F0.925379
s(lp676
(g131
I27
tp677
atp678
a(S'rat'
p679
(dp680
S'NOUN'
p681
F0.340425
sS'ADJ'
p682
F0.380452
s(lp683
(g138
I28
tp684
atp685
a(S'realistisch'
p686
(dp687
S'ADJ'
p688
F1.0
s(lp689
(g153
I31
tp690
atp691
a(S'sein'
p692
(dp693
S'VERB'
p694
F0.984499
s(lp695
(g339
I30
tp696
atp697
a(S'werden'
p698
(dp699
S'VERB'
p700
F0.9978450000000001
s(lp701
(g145
I29
tp702
atp703
a(g58
(dp704
g58
F1.0
s(lp705
(g58
I32
tp706
atp707
asS'it'
p708
(lp709
(S'restiamo'
p710
(dp711
S'VERB'
p712
F1.0
s(lp713
tp714
a(S'con'
p715
(dp716
S'ADP'
p717
F1.0
s(lp718
(g7
I0
tp719
atp720
a(g69
(dp721
S'DET'
p722
F1.0
s(lp723
(g31
I2
tp724
atp725
a(S'piedi'
p726
(dp727
S'NOUN'
p728
F1.0
s(lp729
tp730
a(S'per'
p731
(dp732
S'CONJ'
p733
F0.003431
sS'ADP'
p734
F0.996569
s(lp735
(g45
I5
tp736
atp737
a(S'terra'
p738
(dp739
S'NOUN'
p740
F1.0
s(lp741
(g38
I4
tp742
atp743
a(S'a'
p744
(dp745
S'CONJ'
p746
F0.001331
sS'ADP'
p747
F0.998669
s(lp748
tp749
a(S'questo'
p750
(dp751
S'PRON'
p752
F1.0
s(lp753
(g53
I6
tp754
atp755
a(S'riguardo'
p756
(dp757
S'VERB'
p758
F0.005802
sS'NOUN'
p759
F0.994198
s(lp760
(g45
I5
tp761
atp762
a(g56
(dp763
g58
F1.0
s(lp764
(g56
I7
tp765
atp766
a(S'ma'
p767
(dp768
S'CONJ'
p769
F0.99952
sS'NOUN'
p770
F0.00048
s(lp771
(g22
I8
tp772
atp773
a(g56
(dp774
g58
F1.0
s(lp775
(g220
I10
tp776
atp777
a(S'visto'
p778
(dp779
S'CONJ'
p780
F0.86594
sS'VERB'
p781
F0.129053
sS'NOUN'
p782
F0.005007
s(lp783
tp784
a(S'che'
p785
(dp786
S'PRON'
p787
F0.989908
sS'CONJ'
p788
F0.00994
sS'ADJ'
p789
F0.000151
s(lp790
(g225
I11
tp791
atp792
a(S'abbiamo'
p793
(dp794
S'VERB'
p795
F0.999999
s(lp796
(g237
I13
tp797
atp798
a(S'parlato'
p799
(dp800
S'NOUN'
p801
F0.000808
sS'VERB'
p802
F0.996961
sS'ADJ'
p803
F0.002231
s(lp804
(g249
I15
tp805
atp806
a(S'di'
p807
(dp808
S'CONJ'
p809
F1e-06
sS'ADP'
p810
F0.999999
s(lp811
tp812
a(S'realismo'
p813
(dp814
S'NOUN'
p815
F1.0
s(lp816
tp817
a(g56
(dp818
g58
F1.0
s(lp819
(g220
I17
tp820
atp821
a(S'vorrei'
p822
(dp823
S'VERB'
p824
F1.0
s(lp825
(g76
I20
tp826
atp827
a(S'dire'
p828
(dp829
S'VERB'
p830
F0.999372
sS'ADJ'
p831
F0.000628
s(lp832
(g290
I22
tp833
atp834
a(S'che'
p835
(dp836
S'PRON'
p837
F0.993717
sS'CONJ'
p838
F0.006084
sS'ADJ'
p839
F0.000199
s(lp840
(g100
I23
tp841
atp842
a(S'la'
p843
(dp844
S'PRON'
p845
F0.001027
sS'DET'
p846
F0.998973
s(lp847
(g109
I24
tp848
atp849
a(S'presidenza'
p850
(dp851
S'NOUN'
p852
F1.0
s(lp853
(g116
I25
tp854
atp855
a(S'e'
p856
(dp857
S'CONJ'
p858
F1.0
s(lp859
(g123
I26
tp860
atp861
a(S'il'
p862
(dp863
S'DET'
p864
F1.0
s(lp865
(g131
I27
tp866
atp867
a(S'consiglio'
p868
(dp869
S'VERB'
p870
F2e-06
sS'NOUN'
p871
F0.999998
s(lp872
(g138
I28
tp873
atp874
a(S'si'
p875
(dp876
S'PRON'
p877
F0.999997
sS'NOUN'
p878
F4e-06
s(lp879
(g339
I30
tp880
atp881
a(S'orienteranno'
p882
(dp883
S'VERB'
p884
F1.0
s(lp885
(g153
I31
tp886
atp887
a(S'al'
p888
(dp889
S'ADP'
p890
F1.0
s(lp891
tp892
a(S'realismo'
p893
(dp894
S'NOUN'
p895
F1.0
s(lp896
(g15
I12
tp897
atp898
a(g58
(dp899
g58
F1.0
s(lp900
(g58
I32
tp901
atp902
asS'sk'
p903
(lp904
(S'zost\xc3\xa1vame'
p905
(dp906
S'VERB'
p907
F1.0
s(lp908
(g31
I2
tp909
atp910
a(S'v'
p911
(dp912
g67
F3.1e-05
sS'ADP'
p913
F0.999968
s(lp914
(g45
I5
tp915
atp916
a(S'tomto'
p917
(dp918
S'PRON'
p919
F1.0
s(lp920
(g53
I6
tp921
atp922
a(S'bode'
p923
(dp924
S'NOUN'
p925
F1.0
s(lp926
tp927
a(S'\xc3\xbaplne'
p928
(dp929
S'ADV'
p930
F0.999652
sS'ADJ'
p931
F0.000348
s(lp932
(g180
I3
tp933
atp934
a(S'realistick\xc3\xad'
p935
(dp936
S'ADJ'
p937
F1.0
s(lp938
(g38
I4
tp939
atp940
a(g56
(dp941
g58
F1.0
s(lp942
(g56
I7
tp943
atp944
a(S'hoci'
p945
(dp946
g67
F0.002605
sS'CONJ'
p947
F0.997395
s(lp948
(g22
I8
tp949
atp950
a(g744
(dp951
g67
F0.000937
sS'CONJ'
p952
F0.998995
sS'NOUN'
p953
F4.4000000000000006e-05
sS'ADP'
p954
F0.0
sS'PRT'
p955
F2.3e-05
s(lp956
(g213
I9
tp957
atp958
a(S'ke\xc4\x8f\xc5\xbee'
p959
(dp960
S'CONJ'
p961
F1.0
s(lp962
(g225
I11
tp963
atp964
a(S'sa'
p965
(dp966
S'PRT'
p967
F0.999927
sS'ADP'
p968
F1e-06
sg67
F7.2e-05
s(lp969
tp970
a(S'tu'
p971
(dp972
S'PRON'
p973
F0.991194
sg67
F0.008806
s(lp974
tp975
a(S'dnes'
p976
(dp977
S'ADV'
p978
F0.999978
sg67
F2.2e-05
s(lp979
(g91
I16
tp980
atp981
a(S'realizmus'
p982
(dp983
S'NOUN'
p984
F1.0
s(lp985
(g15
I12
tp986
atp987
a(S'spom\xc3\xadnal'
p988
(dp989
S'VERB'
p990
F1.0000010000000001
s(lp991
(g249
I15
tp992
atp993
a(g56
(dp994
g58
F1.0
s(lp995
(g220
I17
tp996
atp997
a(S'by'
p998
(dp999
S'PRT'
p1000
F0.999957
sg67
F4.3e-05
s(lp1001
(g270
I19
tp1002
atp1003
a(S'som'
p1004
(dp1005
S'VERB'
p1006
F1.0
s(lp1007
tp1008
a(S'chcel'
p1009
(dp1010
S'VERB'
p1011
F1.0
s(lp1012
(g76
I20
tp1013
atp1014
a(S'poveda\xc5\xa5'
p1015
(dp1016
S'VERB'
p1017
F1.0
s(lp1018
(g290
I22
tp1019
atp1020
a(g56
(dp1021
g58
F1.0
s(lp1022
tp1023
a(S'\xc5\xbee'
p1024
(dp1025
g67
F0.00032700000000000003
sS'CONJ'
p1026
F0.999673
s(lp1027
(g100
I23
tp1028
atp1029
a(S'predsedn\xc3\xadctvo'
p1030
(dp1031
S'NOUN'
p1032
F1.0
s(lp1033
(g116
I25
tp1034
atp1035
a(g744
(dp1036
g67
F0.001261
sS'CONJ'
p1037
F0.997925
sS'NOUN'
p1038
F0.000175
sS'ADP'
p1039
F0.000614
sS'PRT'
p1040
F2.6e-05
s(lp1041
(g123
I26
tp1042
atp1043
a(S'rada'
p1044
(dp1045
S'NOUN'
p1046
F0.092112
sS'ADJ'
p1047
F0.907888
s(lp1048
(g138
I28
tp1049
atp1050
a(S'bud\xc3\xba'
p1051
(dp1052
g67
F0.000538
sS'VERB'
p1053
F0.999462
s(lp1054
(g145
I29
tp1055
atp1056
a(S'realistick\xc3\xad'
p1057
(dp1058
S'ADJ'
p1059
F1.0
s(lp1060
(g153
I31
tp1061
atp1062
a(g58
(dp1063
g58
F1.0
s(lp1064
(g58
I32
tp1065
atp1066
asS'pl'
p1067
(lp1068
(S'podchodzimy'
p1069
(dp1070
S'ADV'
p1071
F0.001071
sS'ADJ'
p1072
F0.008988000000000001
sS'VERB'
p1073
F0.972451
sS'NOUN'
p1074
F0.017449999999999997
sS'ADP'
p1075
F3.9e-05
s(lp1076
(g31
I2
tp1077
atp1078
a(S'do'
p1079
(dp1080
g67
F0.0
sS'NOUN'
p1081
F1e-06
sS'ADP'
p1082
F0.999999
s(lp1083
(g45
I5
tp1084
atp1085
a(S'tego'
p1086
(dp1087
S'ADJ'
p1088
F0.249138
sS'NOUN'
p1089
F0.750179
sS'PRT'
p1090
F2.3e-05
sg67
F0.00066
s(lp1091
(g53
I6
tp1092
atp1093
a(S'ca\xc5\x82kowicie'
p1094
(dp1095
S'ADV'
p1096
F1.0
s(lp1097
(g180
I3
tp1098
atp1099
a(S'realistycznie'
p1100
(dp1101
S'ADV'
p1102
F0.990186
sS'NOUN'
p1103
F0.001434
sS'VERB'
p1104
F0.007581
sS'ADJ'
p1105
F0.000694
sS'PRT'
p1106
F0.000106
s(lp1107
(g38
I4
tp1108
atp1109
a(g56
(dp1110
g67
F0.0
sg58
F1.0
s(lp1111
(g56
I7
tp1112
atp1113
a(S'jednak\xc5\xbce'
p1114
(dp1115
S'PRT'
p1116
F0.529211
sS'CONJ'
p1117
F0.470789
s(lp1118
(g22
I8
tp1119
atp1120
a(g56
(dp1121
g67
F0.0
sg58
F1.0
s(lp1122
(g220
I10
tp1123
atp1124
a(S'poniewa\xc5\xbc'
p1125
(dp1126
S'CONJ'
p1127
F1.0
s(lp1128
(g225
I11
tp1129
atp1130
a(S'wspomniano'
p1131
(dp1132
S'VERB'
p1133
F1.0
s(lp1134
tp1135
a(S'o'
p1136
(dp1137
g67
F0.000263
sS'VERB'
p1138
F0.0
sS'NOUN'
p1139
F3e-06
sS'ADP'
p1140
F0.999731
sS'PRT'
p1141
F1e-06
s(lp1142
(g249
I15
tp1143
atp1144
a(S'realizmie'
p1145
(dp1146
S'ADV'
p1147
F0.000134
sS'ADJ'
p1148
F0.000224
sS'VERB'
p1149
F1.2e-05
sS'NOUN'
p1150
F0.999631
s(lp1151
(g15
I12
tp1152
atp1153
a(g56
(dp1154
g67
F0.0
sg58
F1.0
s(lp1155
(g220
I17
tp1156
atp1157
a(S'chcia\xc5\x82bym'
p1158
(dp1159
S'ADV'
p1160
F0.044879
sS'ADJ'
p1161
F0.012896000000000001
sS'VERB'
p1162
F0.9051379999999999
sS'NOUN'
p1163
F0.037084
s(lp1164
(g76
I20
tp1165
atp1166
a(S'powiedzie\xc4\x87'
p1167
(dp1168
S'VERB'
p1169
F1.0
s(lp1170
(g290
I22
tp1171
atp1172
a(g56
(dp1173
g67
F0.0
sg58
F1.0
s(lp1174
tp1175
a(S'\xc5\xbce'
p1176
(dp1177
S'PRT'
p1178
F0.000121
sS'CONJ'
p1179
F0.999879
s(lp1180
(g100
I23
tp1181
atp1182
a(S'prezydencja'
p1183
(dp1184
S'VERB'
p1185
F0.020812
sS'NOUN'
p1186
F0.979187
s(lp1187
(g116
I25
tp1188
atp1189
a(g69
(dp1190
S'PRT'
p1191
F0.007268
sS'CONJ'
p1192
F0.991922
sS'PRON'
p1193
F4e-06
sS'NOUN'
p1194
F0.00076
sg67
F4.5e-05
s(lp1195
(g123
I26
tp1196
atp1197
a(S'rada'
p1198
(dp1199
S'ADJ'
p1200
F0.020984
sS'NOUN'
p1201
F0.979016
s(lp1202
(g138
I28
tp1203
atp1204
a(S'b\xc4\x99d\xc4\x85'
p1205
(dp1206
S'VERB'
p1207
F1.0
s(lp1208
(g145
I29
tp1209
atp1210
a(S'patrzy\xc4\x87'
p1211
(dp1212
S'VERB'
p1213
F1.0
s(lp1214
tp1215
a(S'realistycznie'
p1216
(dp1217
S'ADV'
p1218
F0.987573
sS'PRT'
p1219
F0.000622
sS'ADJ'
p1220
F0.00038399999999999996
sS'VERB'
p1221
F0.004089000000000001
sS'NOUN'
p1222
F0.007333
s(lp1223
(g153
I31
tp1224
atp1225
a(g58
(dp1226
g58
F1.0
s(lp1227
(g58
I32
tp1228
atp1229
asS'sl'
p1230
(lp1231
(g911
(dp1232
S'ADP'
p1233
F1.0
s(lp1234
(g7
I0
tp1235
atp1236
a(S'zvezi'
p1237
(dp1238
S'NOUN'
p1239
F1.0
s(lp1240
tp1241
a(S's'
p1242
(dp1243
S'VERB'
p1244
F3e-06
sS'NOUN'
p1245
F7e-06
sS'ADP'
p1246
F0.999989
s(lp1247
(g45
I5
tp1248
atp1249
a(S'tem'
p1250
(dp1251
S'ADV'
p1252
F0.000388
sS'PRON'
p1253
F0.9993509999999999
sS'NOUN'
p1254
F0.000262
s(lp1255
(g53
I6
tp1256
atp1257
a(S'danes'
p1258
(dp1259
S'ADV'
p1260
F1.0
s(lp1261
(g167
I1
tp1262
atp1263
a(S'ostajamo'
p1264
(dp1265
S'VERB'
p1266
F1.0
s(lp1267
(g31
I2
tp1268
atp1269
a(S'povsem'
p1270
(dp1271
S'ADV'
p1272
F1.0
s(lp1273
(g180
I3
tp1274
atp1275
a(S'realni'
p1276
(dp1277
S'ADJ'
p1278
F1.0000010000000001
s(lp1279
(g38
I4
tp1280
atp1281
a(g56
(dp1282
g58
F1.0
s(lp1283
(g56
I7
tp1284
atp1285
a(S'vendar'
p1286
(dp1287
S'ADV'
p1288
F0.052549
sS'CONJ'
p1289
F0.947451
s(lp1290
(g22
I8
tp1291
atp1292
a(g220
(dp1293
g58
F1.0
s(lp1294
(g220
I10
tp1295
atp1296
a(S'ker'
p1297
(dp1298
S'CONJ'
p1299
F1.0
s(lp1300
(g225
I11
tp1301
atp1302
a(S'je'
p1303
(dp1304
S'PRON'
p1305
F0.000898
sS'VERB'
p1306
F0.999102
sg67
F0.0
s(lp1307
(g237
I13
tp1308
atp1309
a(S'bil'
p1310
(dp1311
S'VERB'
p1312
F1.0
s(lp1313
(g243
I14
tp1314
atp1315
a(S'realizem'
p1316
(dp1317
S'NOUN'
p1318
F1.0
s(lp1319
(g15
I12
tp1320
atp1321
a(S'omenjen'
p1322
(dp1323
S'ADJ'
p1324
F1.0
s(lp1325
(g249
I15
tp1326
atp1327
a(g220
(dp1328
g58
F1.0
s(lp1329
(g220
I17
tp1330
atp1331
a(S'poudarjam'
p1332
(dp1333
S'VERB'
p1334
F1.0
s(lp1335
(g290
I22
tp1336
atp1337
a(g56
(dp1338
g58
F1.0
s(lp1339
tp1340
a(S'da'
p1341
(dp1342
S'PRT'
p1343
F0.00012
sS'CONJ'
p1344
F0.999868
sS'VERB'
p1345
F1.2e-05
sg67
F0.0
s(lp1346
(g100
I23
tp1347
atp1348
a(S'bosta'
p1349
(dp1350
S'VERB'
p1351
F1.0
s(lp1352
(g145
I29
tp1353
atp1354
a(S'predsedstvo'
p1355
(dp1356
S'NOUN'
p1357
F1.0
s(lp1358
(g116
I25
tp1359
atp1360
a(S'in'
p1361
(dp1362
S'ADV'
p1363
F6.5e-05
sg67
F2.1e-05
sS'CONJ'
p1364
F0.999828
sS'NOUN'
p1365
F8.6e-05
s(lp1366
(g123
I26
tp1367
atp1368
a(S'svet'
p1369
(dp1370
S'NOUN'
p1371
F1.0
s(lp1372
(g138
I28
tp1373
atp1374
a(S'realna'
p1375
(dp1376
S'ADJ'
p1377
F1.0
s(lp1378
(g153
I31
tp1379
atp1380
a(g58
(dp1381
g58
F1.0
s(lp1382
(g58
I32
tp1383
atp1384
asS'es'
p1385
(lp1386
(S'sin'
p1387
(dp1388
S'ADV'
p1389
F1.0
s(lp1390
tp1391
a(S'embargo'
p1392
(dp1393
S'ADV'
p1394
F1.0
s(lp1395
(g22
I8
tp1396
atp1397
a(g56
(dp1398
g58
F1.0
s(lp1399
(g56
I7
tp1400
atp1401
a(S'nos'
p1402
(dp1403
S'PRON'
p1404
F1.0
s(lp1405
(g7
I0
tp1406
atp1407
a(S'mantenemos'
p1408
(dp1409
S'VERB'
p1410
F1.0
s(lp1411
tp1412
a(S'en'
p1413
(dp1414
g67
F0.0
sS'CONJ'
p1415
F1e-06
sS'ADP'
p1416
F0.999999
s(lp1417
(g45
I5
tp1418
atp1419
a(S'una'
p1420
(dp1421
S'DET'
p1422
F1.0
s(lp1423
(g53
I6
tp1424
atp1425
a(S'posici\xc3\xb3n'
p1426
(dp1427
S'NOUN'
p1428
F1.0
s(lp1429
(g31
I2
tp1430
atp1431
a(S'totalmente'
p1432
(dp1433
S'ADV'
p1434
F1.0
s(lp1435
(g180
I3
tp1436
atp1437
a(S'realista'
p1438
(dp1439
S'ADJ'
p1440
F1.0
s(lp1441
(g38
I4
tp1442
atp1443
a(S'-ya'
p1444
(dp1445
S'ADJ'
p1446
F0.010284
sS'VERB'
p1447
F0.077873
sS'NOUN'
p1448
F0.911844
s(lp1449
(g220
I10
tp1450
atp1451
a(S'que'
p1452
(dp1453
g67
F4e-06
sS'CONJ'
p1454
F0.999996
s(lp1455
(g225
I11
tp1456
atp1457
a(S'se'
p1458
(dp1459
S'PRON'
p1460
F1.0
sS'VERB'
p1461
F0.0
s(lp1462
(g243
I14
tp1463
atp1464
a(S'ha'
p1465
(dp1466
S'VERB'
p1467
F1.0
s(lp1468
(g237
I13
tp1469
atp1470
a(S'mencionado'
p1471
(dp1472
S'VERB'
p1473
F0.998518
sS'ADJ'
p1474
F0.001482
s(lp1475
(g249
I15
tp1476
atp1477
a(S'aqu\xc3\xad'
p1478
(dp1479
S'ADV'
p1480
F1.0
s(lp1481
(g91
I16
tp1482
atp1483
a(S'el'
p1484
(dp1485
S'PRON'
p1486
F0.003132
sS'DET'
p1487
F0.996868
s(lp1488
tp1489
a(S'realismo-'
p1490
(dp1491
S'VERB'
p1492
F0.005874
sS'NOUN'
p1493
F0.9941249999999999
s(lp1494
(g15
I12
tp1495
atp1496
a(S'y'
p1497
(dp1498
g67
F0.0
sS'CONJ'
p1499
F1.0
s(lp1500
(g213
I9
tp1501
atp1502
a(S'me'
p1503
(dp1504
S'PRON'
p1505
F1.0
sS'NOUN'
p1506
F0.0
s(lp1507
(g69
I18
tp1508
atp1509
a(S'gustar\xc3\xada'
p1510
(dp1511
S'VERB'
p1512
F1.0
s(lp1513
(g76
I20
tp1514
atp1515
a(S'decir'
p1516
(dp1517
S'VERB'
p1518
F1.0
s(lp1519
(g290
I22
tp1520
atp1521
a(S'que'
p1522
(dp1523
g67
F0.0
sS'CONJ'
p1524
F1.0
s(lp1525
(g100
I23
tp1526
atp1527
a(S'la'
p1528
(dp1529
S'PRON'
p1530
F0.00027
sS'DET'
p1531
F0.99973
sg67
F0.0
sS'NOUN'
p1532
F0.0
s(lp1533
(g109
I24
tp1534
atp1535
a(S'presidencia'
p1536
(dp1537
S'NOUN'
p1538
F1.0
s(lp1539
(g116
I25
tp1540
atp1541
a(g1497
(dp1542
g67
F0.000396
sS'CONJ'
p1543
F0.999604
s(lp1544
(g123
I26
tp1545
atp1546
a(S'el'
p1547
(dp1548
S'PRON'
p1549
F2.8e-05
sS'DET'
p1550
F0.999972
s(lp1551
(g131
I27
tp1552
atp1553
a(S'consejo'
p1554
(dp1555
S'NOUN'
p1556
F1.0
s(lp1557
(g138
I28
tp1558
atp1559
a(S'ser\xc3\xa1n'
p1560
(dp1561
S'VERB'
p1562
F1.0
s(lp1563
(g145
I29
tp1564
atp1565
a(S'realistas'
p1566
(dp1567
S'NOUN'
p1568
F0.00929
sS'ADJ'
p1569
F0.99071
s(lp1570
(g153
I31
tp1571
atp1572
a(g58
(dp1573
g58
F1.0
s(lp1574
(g58
I32
tp1575
atp1576
as.