(dp0
S'fr'
p1
(lp2
(S'il'
p3
(dp4
S'PRON'
p5
F1.0
s(lp6
(S'we'
p7
I4
tp8
atp9
a(S'ne'
p10
(dp11
S'ADV'
p12
F1.0
s(lp13
(S'not'
p14
I6
tp15
atp16
a(S'faut'
p17
(dp18
S'VERB'
p19
F1.0
s(lp20
(S'must'
p21
I5
tp22
atp23
a(S'pas'
p24
(dp25
S'ADV'
p26
F0.999264
sS'NOUN'
p27
F0.000736
s(lp28
(g14
I6
tp29
atp30
a(S'non'
p31
(dp32
S'ADV'
p33
F1.0
sS'X'
p34
F0.0
s(lp35
tp36
a(S'plus'
p37
(dp38
S'ADV'
p39
F0.999698
sS'VERB'
p40
F0.000301
s(lp41
(g14
I6
tp42
atp43
a(S'oublier'
p44
(dp45
S'VERB'
p46
F1.0
s(lp47
(S'forget'
p48
I7
tp49
atp50
a(S'les'
p51
(dp52
S'PRON'
p53
F3.1e-05
sS'DET'
p54
F0.999948
sS'ADP'
p55
F2.1e-05
s(lp56
(S'the'
p57
I8
tp58
atp59
a(S'violations'
p60
(dp61
S'NOUN'
p62
F1.0
s(lp63
tp64
a(S'des'
p65
(dp66
S'DET'
p67
F2.2e-05
sS'ADP'
p68
F0.999978
s(lp69
(S'human'
p70
I9
tp71
atp72
a(S'droits'
p73
(dp74
S'ADJ'
p75
F0.011772
sS'NOUN'
p76
F0.988228
s(lp77
(S'rights'
p78
I10
tp79
atp80
a(S'de'
p81
(dp82
S'ADP'
p83
F1.0
s(lp84
tp85
a(S"l'"
p86
(dp87
S'ADJ'
p88
F0.160704
sS'VERB'
p89
F0.06480800000000002
sS'NOUN'
p90
F0.774488
s(lp91
tp92
a(S'homme'
p93
(dp94
S'NOUN'
p95
F1.0
s(lp96
(g70
I9
tp97
atp98
a(S'et'
p99
(dp100
S'CONJ'
p101
F1.0
s(lp102
(S'and'
p103
I12
tp104
atp105
a(S'du'
p106
(dp107
S'ADP'
p108
F1.0
s(lp109
(S'of'
p110
I14
tp111
atp112
a(S'droit'
p113
(dp114
S'ADV'
p115
F0.001445
sS'ADJ'
p116
F0.00372
sS'NOUN'
p117
F0.994835
s(lp118
(S'law'
p119
I16
tp120
atp121
a(S'humanitaire'
p122
(dp123
S'ADJ'
p124
F1.0
s(lp125
(S'humanitarian'
p126
I15
tp127
atp128
a(S'commises'
p129
(dp130
S'VERB'
p131
F0.565542
sS'NOUN'
p132
F0.434458
s(lp133
(S'committed'
p134
I20
tp135
atp136
a(S'dans'
p137
(dp138
S'NOUN'
p139
F6e-06
sS'ADP'
p140
F0.999994
s(lp141
(S'in'
p142
I21
tp143
atp144
a(S'le'
p145
(dp146
S'PRON'
p147
F6.2e-05
sS'DET'
p148
F0.999938
s(lp149
(S'the'
p150
I22
tp151
atp152
a(S'pays'
p153
(dp154
S'NOUN'
p155
F1.0
s(lp156
(S'country'
p157
I23
tp158
atp159
a(S','
p160
(dp161
S'.'
p162
F1.0
s(lp163
(g160
I24
tp164
atp165
a(S'qui'
p166
(dp167
S'PRON'
p168
F1.0
s(lp169
(S'which'
p170
I25
tp171
atp172
a(S'pourraient'
p173
(dp174
S'VERB'
p175
F1.0
s(lp176
(S'may'
p177
I26
tp178
atp179
a(S'constituer'
p180
(dp181
S'VERB'
p182
F1.0
s(lp183
(S'constitute'
p184
I27
tp185
atp186
a(S'des'
p187
(dp188
S'DET'
p189
F0.000198
sS'ADP'
p190
F0.999802
s(lp191
(S'violations'
p192
I11
tp193
atp194
a(S'crimes'
p195
(dp196
S'NOUN'
p197
F1.0
s(lp198
(S'crimes'
p199
I28
tp200
atp201
a(S'contre'
p202
(dp203
S'VERB'
p204
F0.004933
sS'NOUN'
p205
F0.000109
sS'ADP'
p206
F0.994957
s(lp207
(S'against'
p208
I29
tp209
atp210
a(S"l'"
p211
(dp212
S'ADJ'
p213
F0.160479
sS'VERB'
p214
F0.06850000000000002
sS'NOUN'
p215
F0.77102
s(lp216
tp217
a(S'humanit\xc3\xa9'
p218
(dp219
S'NOUN'
p220
F1.0
s(lp221
(S'humanity'
p222
I30
tp223
atp224
a(g162
(dp225
g162
F1.0
s(lp226
(g162
I31
tp227
atp228
asS'en'
p229
(lp230
(S'what'
p231
(dp232
S'PRON'
p233
F0.998585
sS'DET'
p234
F0.001415
s(lp235
(g231
I0
tp236
atp237
a(S'is'
p238
(dp239
S'VERB'
p240
F1.0
s(lp241
(g238
I1
tp242
atp243
a(S'more'
p244
(dp245
S'ADV'
p246
F0.598856
sS'ADJ'
p247
F0.401144
s(lp248
(g244
I2
tp249
atp250
a(g160
(dp251
g162
F1.0
s(lp252
(g160
I3
tp253
atp254
a(g7
(dp255
S'PRON'
p256
F1.0
s(lp257
(g7
I4
tp258
atp259
a(g21
(dp260
S'VERB'
p261
F1.0
sS'NOUN'
p262
F0.0
s(lp263
(g21
I5
tp264
atp265
a(g14
(dp266
S'ADV'
p267
F1.0
s(lp268
(g14
I6
tp269
atp270
a(g48
(dp271
S'VERB'
p272
F1.0
s(lp273
(g48
I7
tp274
atp275
a(g57
(dp276
S'NOUN'
p277
F0.0
sS'DET'
p278
F1.0
s(lp279
(g57
I8
tp280
atp281
a(g70
(dp282
S'NOUN'
p283
F0.029154
sS'ADJ'
p284
F0.970846
s(lp285
(g70
I9
tp286
atp287
a(g78
(dp288
S'VERB'
p289
F7.2e-05
sS'NOUN'
p290
F0.999928
s(lp291
(g78
I10
tp292
atp293
a(g192
(dp294
S'NOUN'
p295
F1.0
s(lp296
(g192
I11
tp297
atp298
a(g103
(dp299
S'CONJ'
p300
F0.999998
sS'NOUN'
p301
F2e-06
s(lp302
(g103
I12
tp303
atp304
a(S'infringements'
p305
(dp306
S'NOUN'
p307
F1.0
s(lp308
(g305
I13
tp309
atp310
a(g110
(dp311
S'ADP'
p312
F1.0
s(lp313
(g110
I14
tp314
atp315
a(g126
(dp316
S'NOUN'
p317
F0.006147
sS'ADJ'
p318
F0.993853
s(lp319
(g126
I15
tp320
atp321
a(g119
(dp322
S'NOUN'
p323
F1.0
s(lp324
(g119
I16
tp325
atp326
a(S'that'
p327
(dp328
S'ADV'
p329
F0.000327
sS'DET'
p330
F0.999655
sS'ADP'
p331
F1.8e-05
s(lp332
(g327
I17
tp333
atp334
a(S'have'
p335
(dp336
S'VERB'
p337
F1.0
s(lp338
(g335
I18
tp339
atp340
a(S'been'
p341
(dp342
S'VERB'
p343
F1.0
s(lp344
(g341
I19
tp345
atp346
a(g134
(dp347
S'VERB'
p348
F0.995107
sS'ADJ'
p349
F0.004893
s(lp350
(g134
I20
tp351
atp352
a(g142
(dp353
S'ADV'
p354
F0.000366
sS'PRT'
p355
F0.003779
sS'ADP'
p356
F0.995856
s(lp357
(g142
I21
tp358
atp359
a(g150
(dp360
S'NOUN'
p361
F1e-06
sS'DET'
p362
F0.999999
s(lp363
(g150
I22
tp364
atp365
a(g157
(dp366
S'NOUN'
p367
F1.0
s(lp368
(g157
I23
tp369
atp370
a(g160
(dp371
g162
F1.0
s(lp372
(g160
I24
tp373
atp374
a(g170
(dp375
S'DET'
p376
F1.0
s(lp377
(g170
I25
tp378
atp379
a(g177
(dp380
S'VERB'
p381
F1.0
sS'NOUN'
p382
F0.0
s(lp383
(g177
I26
tp384
atp385
a(g184
(dp386
S'VERB'
p387
F1.0
s(lp388
(g184
I27
tp389
atp390
a(g199
(dp391
S'NOUN'
p392
F1.0
s(lp393
(g199
I28
tp394
atp395
a(g208
(dp396
S'ADP'
p397
F1.0
s(lp398
(g208
I29
tp399
atp400
a(g222
(dp401
S'NOUN'
p402
F1.0
s(lp403
(g222
I30
tp404
atp405
a(g162
(dp406
g162
F1.0
s(lp407
(g162
I31
tp408
atp409
asS'nl'
p410
(lp411
(S'we'
p412
(dp413
S'PRON'
p414
F1.0
s(lp415
(g7
I4
tp416
atp417
a(S'moeten'
p418
(dp419
S'VERB'
p420
F0.9999830000000001
sS'NOUN'
p421
F1.7e-05
s(lp422
(g21
I5
tp423
atp424
a(S'ook'
p425
(dp426
S'ADV'
p427
F1.0
s(lp428
(g238
I1
tp429
atp430
a(S'niet'
p431
(dp432
S'ADV'
p433
F0.999983
sS'PRON'
p434
F1e-05
sS'VERB'
p435
F7e-06
sg34
F0.0
s(lp436
(g14
I6
tp437
atp438
a(S'vergeten'
p439
(dp440
S'VERB'
p441
F0.9999430000000001
sS'NOUN'
p442
F5.7e-05
s(lp443
(g48
I7
tp444
atp445
a(S'welke'
p446
(dp447
S'PRON'
p448
F1.0
s(lp449
(g231
I0
tp450
atp451
a(S'schendingen'
p452
(dp453
S'NOUN'
p454
F1.0
s(lp455
(g192
I11
tp456
atp457
a(S'van'
p458
(dp459
S'ADP'
p460
F1.0
s(lp461
(g78
I10
tp462
atp463
a(S'de'
p464
(dp465
S'DET'
p466
F1.0
s(lp467
(g57
I8
tp468
atp469
a(S'mensenrechten'
p470
(dp471
S'NOUN'
p472
F1.0
s(lp473
(g70
I9
tp474
atp475
a(S'en'
p476
(dp477
S'CONJ'
p478
F1.0
s(lp479
(g103
I12
tp480
atp481
a(S'van'
p482
(dp483
S'ADP'
p484
F1.0
s(lp485
(g110
I14
tp486
atp487
a(S'het'
p488
(dp489
S'PRON'
p490
F0.00582
sS'DET'
p491
F0.994181
s(lp492
tp493
a(S'humanitair'
p494
(dp495
S'ADJ'
p496
F1.0
s(lp497
(g126
I15
tp498
atp499
a(S'recht'
p500
(dp501
S'ADJ'
p502
F3e-05
sS'VERB'
p503
F6e-06
sS'NOUN'
p504
F0.999965
s(lp505
(g119
I16
tp506
atp507
a(S'zijn'
p508
(dp509
S'PRON'
p510
F0.00019
sS'VERB'
p511
F0.999805
sS'NOUN'
p512
F5e-06
s(lp513
(g335
I18
tp514
atp515
a(S'begaan'
p516
(dp517
S'NOUN'
p518
F1.2e-05
sS'VERB'
p519
F0.999945
sS'ADJ'
p520
F4.3e-05
s(lp521
(g134
I20
tp522
atp523
a(S'in'
p524
(dp525
S'ADV'
p526
F0.000108
sS'VERB'
p527
F1e-06
sS'ADP'
p528
F0.99989
s(lp529
(g142
I21
tp530
atp531
a(S'het'
p532
(dp533
S'PRON'
p534
F0.0009310000000000001
sS'DET'
p535
F0.999069
s(lp536
(g150
I22
tp537
atp538
a(S'land'
p539
(dp540
S'VERB'
p541
F5e-06
sS'NOUN'
p542
F0.999995
s(lp543
(g157
I23
tp544
atp545
a(g160
(dp546
g162
F1.0
s(lp547
(g160
I24
tp548
atp549
a(S'die'
p550
(dp551
S'PRON'
p552
F0.999999
s(lp553
(g170
I25
tp554
atp555
a(S'kunnen'
p556
(dp557
S'VERB'
p558
F0.99978
sS'NOUN'
p559
F0.00022
s(lp560
(g177
I26
tp561
atp562
a(S'neerkomen'
p563
(dp564
S'VERB'
p565
F0.986045
sS'NOUN'
p566
F0.013955
s(lp567
(g184
I27
tp568
atp569
a(S'op'
p570
(dp571
S'ADV'
p572
F0.000961
sS'ADJ'
p573
F4e-06
sS'ADP'
p574
F0.999035
s(lp575
tp576
a(S'misdaden'
p577
(dp578
S'NOUN'
p579
F1.0
s(lp580
(g199
I28
tp581
atp582
a(S'tegen'
p583
(dp584
S'ADV'
p585
F4.7e-05
sS'ADP'
p586
F0.999953
s(lp587
(g208
I29
tp588
atp589
a(S'de'
p590
(dp591
S'DET'
p592
F1.0
s(lp593
tp594
a(S'mensheid'
p595
(dp596
S'NOUN'
p597
F1.0
s(lp598
(g222
I30
tp599
atp600
a(g162
(dp601
g162
F1.0
s(lp602
(g162
I31
tp603
atp604
asS'de'
p605
(lp606
(S'au\xc3\x9ferdem'
p607
(dp608
S'ADV'
p609
F1.0
s(lp610
(g231
I0
tp611
atp612
a(S'd\xc3\xbcrfen'
p613
(dp614
S'VERB'
p615
F0.99832
s(lp616
(g21
I5
tp617
atp618
a(S'wir'
p619
(dp620
S'PRON'
p621
F1.0
s(lp622
(g7
I4
tp623
atp624
a(S'die'
p625
(dp626
S'PRON'
p627
F0.002395
sS'DET'
p628
F0.995265
s(lp629
(g70
I9
tp630
atp631
a(S'menschenrechtsverletzungen'
p632
(dp633
S'ADJ'
p634
F0.215668
sS'NOUN'
p635
F0.592849
s(lp636
(g192
I11
tp637
atp638
a(S'und'
p639
(dp640
S'CONJ'
p641
F1.0
s(lp642
(g103
I12
tp643
atp644
a(S'die'
p645
(dp646
S'PRON'
p647
F0.003019
sS'DET'
p648
F0.994067
s(lp649
tp650
a(S'verst\xc3\xb6\xc3\x9fe'
p651
(dp652
S'ADJ'
p653
F0.000178
sS'NOUN'
p654
F0.999613
s(lp655
tp656
a(S'gegen'
p657
(dp658
S'PRT'
p659
F2e-06
sS'ADP'
p660
F0.999998
s(lp661
(g305
I13
tp662
atp663
a(S'das'
p664
(dp665
S'PRON'
p666
F0.006262
sS'DET'
p667
F0.993723
s(lp668
tp669
a(S'humanit\xc3\xa4re'
p670
(dp671
S'ADJ'
p672
F1.0
s(lp673
(g126
I15
tp674
atp675
a(S'recht'
p676
(dp677
S'VERB'
p678
F0.021373
sS'ADJ'
p679
F0.978016
s(lp680
(g119
I16
tp681
atp682
a(S'nicht'
p683
(dp684
S'PRT'
p685
F1.0
s(lp686
(g14
I6
tp687
atp688
a(S'vergessen'
p689
(dp690
S'VERB'
p691
F0.998089
s(lp692
(g48
I7
tp693
atp694
a(g160
(dp695
g162
F1.0
s(lp696
(g327
I17
tp697
atp698
a(S'die'
p699
(dp700
S'PRON'
p701
F0.969205
sS'DET'
p702
F0.026136
s(lp703
(g57
I8
tp704
atp705
a(S'in'
p706
(dp707
S'ADP'
p708
F1.0
s(lp709
(g142
I21
tp710
atp711
a(S'diesem'
p712
(dp713
S'PRON'
p714
F1.0
s(lp715
(g150
I22
tp716
atp717
a(S'land'
p718
(dp719
S'ADJ'
p720
F0.251184
sS'NOUN'
p721
F0.615342
s(lp722
(g157
I23
tp723
atp724
a(S'begangen'
p725
(dp726
S'VERB'
p727
F1.0
s(lp728
(g134
I20
tp729
atp730
a(S'wurden'
p731
(dp732
S'VERB'
p733
F1.0
s(lp734
(g341
I19
tp735
atp736
a(S'und'
p737
(dp738
S'CONJ'
p739
F1.0
s(lp740
(g160
I24
tp741
atp742
a(S'die'
p743
(dp744
S'PRON'
p745
F0.275589
sS'DET'
p746
F0.525181
s(lp747
(g170
I25
tp748
atp749
a(S'wohl'
p750
(dp751
S'ADV'
p752
F0.997756
sS'ADJ'
p753
F0.001784
s(lp754
(g177
I26
tp755
atp756
a(S'verbrechen'
p757
(dp758
S'VERB'
p759
F1.0
s(lp760
(g199
I28
tp761
atp762
a(S'gegen'
p763
(dp764
S'PRT'
p765
F1e-06
sS'ADP'
p766
F0.999999
s(lp767
(g208
I29
tp768
atp769
a(S'die'
p770
(dp771
S'PRON'
p772
F0.000201
sS'DET'
p773
F0.999745
s(lp774
tp775
a(S'menschlichkeit'
p776
(dp777
S'ADJ'
p778
F0.02512
sS'NOUN'
p779
F0.957473
s(lp780
(g222
I30
tp781
atp782
a(S'darstellen'
p783
(dp784
S'VERB'
p785
F1.0
s(lp786
(g184
I27
tp787
atp788
a(g162
(dp789
g162
F1.0
s(lp790
(g162
I31
tp791
atp792
asS'it'
p793
(lp794
(S'inoltre'
p795
(dp796
S'ADV'
p797
F1.0
s(lp798
(g231
I0
tp799
atp800
a(g160
(dp801
g162
F1.0
s(lp802
(g160
I3
tp803
atp804
a(S'non'
p805
(dp806
S'ADV'
p807
F1.0
s(lp808
(g14
I6
tp809
atp810
a(S'dobbiamo'
p811
(dp812
S'VERB'
p813
F1.0
s(lp814
(g21
I5
tp815
atp816
a(S'dimenticare'
p817
(dp818
S'VERB'
p819
F1.0
s(lp820
(g48
I7
tp821
atp822
a(S'le'
p823
(dp824
S'PRON'
p825
F0.0
sS'DET'
p826
F1.0
s(lp827
(g57
I8
tp828
atp829
a(S'violazioni'
p830
(dp831
S'NOUN'
p832
F1.0
s(lp833
(g192
I11
tp834
atp835
a(S'dei'
p836
(dp837
S'NOUN'
p838
F2e-06
sS'DEF'
p839
F0.001192
sS'ADP'
p840
F0.998807
s(lp841
tp842
a(S'diritti'
p843
(dp844
S'ADJ'
p845
F0.019464
sS'NOUN'
p846
F0.980536
s(lp847
(g78
I10
tp848
atp849
a(S'umani'
p850
(dp851
S'NOUN'
p852
F0.048784
sS'ADJ'
p853
F0.951216
s(lp854
(g70
I9
tp855
atp856
a(S'e'
p857
(dp858
S'CONJ'
p859
F1.0
s(lp860
(g103
I12
tp861
atp862
a(S'del'
p863
(dp864
S'DEF'
p865
F0.021389
sS'ADP'
p866
F0.978611
s(lp867
(g110
I14
tp868
atp869
a(S'diritto'
p870
(dp871
S'ADJ'
p872
F0.014249
sS'NOUN'
p873
F0.985751
s(lp874
(g119
I16
tp875
atp876
a(S'umanitario'
p877
(dp878
S'NOUN'
p879
F0.067618
sS'ADJ'
p880
F0.932382
s(lp881
(g126
I15
tp882
atp883
a(S'perpetrate'
p884
(dp885
S'VERB'
p886
F1.0
s(lp887
(g134
I20
tp888
atp889
a(S'nel'
p890
(dp891
S'ADP'
p892
F1.0
s(lp893
(g142
I21
tp894
atp895
a(S'paese'
p896
(dp897
S'NOUN'
p898
F1.0
s(lp899
(g157
I23
tp900
atp901
a(g160
(dp902
g162
F1.0
s(lp903
(g160
I24
tp904
atp905
a(S'che'
p906
(dp907
S'PRON'
p908
F0.984116
sS'CONJ'
p909
F0.015871
sS'ADJ'
p910
F1.3e-05
s(lp911
(g170
I25
tp912
atp913
a(S'potrebbero'
p914
(dp915
S'VERB'
p916
F1.0
s(lp917
(g177
I26
tp918
atp919
a(S'costituire'
p920
(dp921
S'VERB'
p922
F1.0
s(lp923
(g184
I27
tp924
atp925
a(S'crimini'
p926
(dp927
S'NOUN'
p928
F1.0
s(lp929
(g199
I28
tp930
atp931
a(S'contro'
p932
(dp933
S'ADV'
p934
F0.089451
sS'ADP'
p935
F0.910549
s(lp936
(g208
I29
tp937
atp938
a(S"l'"
p939
(dp940
S'NOUN'
p941
F0.009663
sS'VERB'
p942
F0.9518870000000001
sS'ADJ'
p943
F0.038451
s(lp944
tp945
a(S'umanit\xc3\xa0'
p946
(dp947
S'NOUN'
p948
F1.0
s(lp949
(g222
I30
tp950
atp951
a(g162
(dp952
g162
F1.0
s(lp953
(g162
I31
tp954
atp955
asS'sk'
p956
(lp957
(S'okrem'
p958
(dp959
S'ADP'
p960
F1.0
s(lp961
tp962
a(S'toho'
p963
(dp964
S'PRON'
p965
F0.999994
sg34
F6e-06
s(lp966
(g231
I0
tp967
atp968
a(S'nesmieme'
p969
(dp970
S'VERB'
p971
F1.0
s(lp972
(g21
I5
tp973
atp974
a(S'zabudn\xc3\xba\xc5\xa5'
p975
(dp976
S'VERB'
p977
F1.0
s(lp978
tp979
a(S'na'
p980
(dp981
g34
F6.2e-05
sS'CONJ'
p982
F7e-06
sS'ADP'
p983
F0.999929
sS'PRT'
p984
F3e-06
s(lp985
(g48
I7
tp986
atp987
a(S'poru\xc5\xa1enia'
p988
(dp989
S'NOUN'
p990
F1.0
s(lp991
(g192
I11
tp992
atp993
a(S'\xc4\xbeudsk\xc3\xbdch'
p994
(dp995
S'ADJ'
p996
F1.0
s(lp997
(g70
I9
tp998
atp999
a(S'pr\xc3\xa1v'
p1000
(dp1001
g34
F2.8e-05
sS'NOUN'
p1002
F0.999972
s(lp1003
(g78
I10
tp1004
atp1005
a(S'a'
p1006
(dp1007
g34
F0.000461
sS'CONJ'
p1008
F0.998971
sS'NOUN'
p1009
F5.1e-05
sS'ADP'
p1010
F0.000487
sS'PRT'
p1011
F3.1e-05
s(lp1012
(g103
I12
tp1013
atp1014
a(S'humanit\xc3\xa1rneho'
p1015
(dp1016
S'ADJ'
p1017
F1.0
s(lp1018
(g126
I15
tp1019
atp1020
a(S'pr\xc3\xa1va'
p1021
(dp1022
S'VERB'
p1023
F0.000111
sS'NOUN'
p1024
F0.999889
s(lp1025
(g119
I16
tp1026
atp1027
a(g160
(dp1028
g162
F1.0
s(lp1029
(g327
I17
tp1030
atp1031
a(S'ku'
p1032
(dp1033
g34
F0.000147
sS'ADP'
p1034
F0.999852
s(lp1035
(g134
I20
tp1036
atp1037
a(S'ktor\xc3\xbdm'
p1038
(dp1039
S'PRON'
p1040
F1.0
s(lp1041
tp1042
a(S'v'
p1043
(dp1044
g34
F0.000431
sS'ADP'
p1045
F0.999569
s(lp1046
(g142
I21
tp1047
atp1048
a(S'krajine'
p1049
(dp1050
S'NOUN'
p1051
F1.0
s(lp1052
(g157
I23
tp1053
atp1054
a(S'do\xc5\xa1lo'
p1055
(dp1056
S'VERB'
p1057
F1.0
s(lp1058
(g134
I20
tp1059
atp1060
a(g1006
(dp1061
g34
F0.002163
sS'CONJ'
p1062
F0.996894
sS'NOUN'
p1063
F7.5e-05
sS'ADP'
p1064
F0.000831
sS'PRT'
p1065
F3.7e-05
s(lp1066
(g160
I24
tp1067
atp1068
a(S'ktor\xc3\xa9'
p1069
(dp1070
S'PRON'
p1071
F1.0
s(lp1072
(g170
I25
tp1073
atp1074
a(S'by'
p1075
(dp1076
S'PRT'
p1077
F0.999992
sg34
F8.000000000000001e-06
s(lp1078
tp1079
a(S'mohli'
p1080
(dp1081
g34
F0.0
sS'VERB'
p1082
F1.0
s(lp1083
(g177
I26
tp1084
atp1085
a(S'predstavova\xc5\xa5'
p1086
(dp1087
S'VERB'
p1088
F1.0
s(lp1089
(g184
I27
tp1090
atp1091
a(S'zlo\xc4\x8diny'
p1092
(dp1093
S'NOUN'
p1094
F1.0
s(lp1095
(g199
I28
tp1096
atp1097
a(S'proti'
p1098
(dp1099
S'ADV'
p1100
F8.8e-05
sS'ADP'
p1101
F0.999912
s(lp1102
(g208
I29
tp1103
atp1104
a(S'\xc4\xbeudskosti'
p1105
(dp1106
S'NOUN'
p1107
F1.0
s(lp1108
(g222
I30
tp1109
atp1110
a(g162
(dp1111
g162
F1.0
s(lp1112
(g162
I31
tp1113
atp1114
asS'pl'
p1115
(lp1116
(S'co'
p1117
(dp1118
S'PRT'
p1119
F0.060021
sS'CONJ'
p1120
F0.059728
sS'NOUN'
p1121
F0.81744
sS'ADP'
p1122
F0.06281
s(lp1123
(g231
I0
tp1124
atp1125
a(S'wi\xc4\x99cej'
p1126
(dp1127
S'ADV'
p1128
F0.210758
sS'NUM'
p1129
F0.7892420000000003
s(lp1130
(g244
I2
tp1131
atp1132
a(g160
(dp1133
g34
F1e-06
sg162
F0.999999
s(lp1134
(g160
I3
tp1135
atp1136
a(S'nie'
p1137
(dp1138
S'ADV'
p1139
F3.9e-05
sS'PRT'
p1140
F0.966453
sS'CONJ'
p1141
F0.033496
sS'NOUN'
p1142
F7e-06
sS'PRON'
p1143
F4e-06
s(lp1144
(g14
I6
tp1145
atp1146
a(S'wolno'
p1147
(dp1148
S'ADV'
p1149
F0.04211
sS'ADJ'
p1150
F0.95789
s(lp1151
(g21
I5
tp1152
atp1153
a(S'nam'
p1154
(dp1155
S'PRON'
p1156
F1.0
s(lp1157
(g48
I7
tp1158
atp1159
a(S'zapomina\xc4\x87'
p1160
(dp1161
S'VERB'
p1162
F1.0
s(lp1163
tp1164
a(S'o'
p1165
(dp1166
g34
F6.2e-05
sS'VERB'
p1167
F2e-06
sS'NOUN'
p1168
F0.0
sS'ADP'
p1169
F0.999936
sS'PRT'
p1170
F0.0
s(lp1171
(g48
I7
tp1172
atp1173
a(S'\xc5\x82amaniu'
p1174
(dp1175
S'VERB'
p1176
F1.0
s(lp1177
(g192
I11
tp1178
atp1179
a(S'praw'
p1180
(dp1181
S'NOUN'
p1182
F1.0
s(lp1183
(g78
I10
tp1184
atp1185
a(S'cz\xc5\x82owieka'
p1186
(dp1187
S'NOUN'
p1188
F1.0
s(lp1189
(g70
I9
tp1190
atp1191
a(S'i'
p1192
(dp1193
S'PRT'
p1194
F0.001955
sS'CONJ'
p1195
F0.998039
sS'PRON'
p1196
F1e-06
sS'NOUN'
p1197
F2e-06
sg34
F4e-06
s(lp1198
(g103
I12
tp1199
atp1200
a(S'naruszeniach'
p1201
(dp1202
S'ADV'
p1203
F0.001231
sS'ADJ'
p1204
F0.0013629999999999998
sS'VERB'
p1205
F0.023151999999999992
sS'NOUN'
p1206
F0.974254
s(lp1207
(g305
I13
tp1208
atp1209
a(S'prawa'
p1210
(dp1211
S'ADJ'
p1212
F7e-05
sS'NOUN'
p1213
F0.9999300000000001
s(lp1214
(g119
I16
tp1215
atp1216
a(S'humanitarnego'
p1217
(dp1218
S'ADJ'
p1219
F1.0
s(lp1220
(g126
I15
tp1221
atp1222
a(g160
(dp1223
g34
F0.0
sg162
F1.0
s(lp1224
tp1225
a(S'do'
p1226
(dp1227
g34
F2e-06
sS'NOUN'
p1228
F1.9e-05
sS'ADP'
p1229
F0.99998
s(lp1230
tp1231
a(S'kt\xc3\xb3rych'
p1232
(dp1233
S'ADJ'
p1234
F1.000001
s(lp1235
(g327
I17
tp1236
atp1237
a(S'dosz\xc5\x82o'
p1238
(dp1239
S'VERB'
p1240
F1.0
s(lp1241
(g341
I19
tp1242
atp1243
a(S'w'
p1244
(dp1245
S'ADJ'
p1246
F0.0
sg34
F0.0
sS'NOUN'
p1247
F0.0
sS'ADP'
p1248
F1.000001
s(lp1249
(g142
I21
tp1250
atp1251
a(S'tym'
p1252
(dp1253
S'ADV'
p1254
F6e-06
sS'NOUN'
p1255
F0.100355
sS'CONJ'
p1256
F1e-06
sS'ADJ'
p1257
F0.8996369999999999
sS'PRT'
p1258
F0.0
s(lp1259
(g150
I22
tp1260
atp1261
a(S'kraju'
p1262
(dp1263
S'NOUN'
p1264
F0.999999
s(lp1265
(g157
I23
tp1266
atp1267
a(g1192
(dp1268
S'PRT'
p1269
F0.007196
sS'CONJ'
p1270
F0.992787
sS'PRON'
p1271
F3e-06
sS'NOUN'
p1272
F1e-05
sg34
F6e-06
s(lp1273
(g160
I24
tp1274
atp1275
a(S'kt\xc3\xb3re'
p1276
(dp1277
S'ADJ'
p1278
F1.0
s(lp1279
(g170
I25
tp1280
atp1281
a(S'mog\xc4\x85'
p1282
(dp1283
S'VERB'
p1284
F1.0
s(lp1285
tp1286
a(S'by\xc4\x87'
p1287
(dp1288
S'VERB'
p1289
F1.0
s(lp1290
(g177
I26
tp1291
atp1292
a(S'uznane'
p1293
(dp1294
S'VERB'
p1295
F0.9999999999999999
s(lp1296
tp1297
a(S'za'
p1298
(dp1299
S'PRT'
p1300
F0.003249
sS'VERB'
p1301
F5.6999999999999996e-05
sS'NOUN'
p1302
F2e-06
sS'ADP'
p1303
F0.9966909999999999
sg34
F1e-06
s(lp1304
(g184
I27
tp1305
atp1306
a(S'zbrodnie'
p1307
(dp1308
S'NOUN'
p1309
F1.0
s(lp1310
(g199
I28
tp1311
atp1312
a(S'przeciwko'
p1313
(dp1314
S'ADV'
p1315
F9e-06
sS'ADP'
p1316
F0.999991
s(lp1317
(g208
I29
tp1318
atp1319
a(S'ludzko\xc5\x9bci'
p1320
(dp1321
S'NOUN'
p1322
F1.0
s(lp1323
(g222
I30
tp1324
atp1325
a(g162
(dp1326
g162
F1.0
s(lp1327
(g162
I31
tp1328
atp1329
asS'sl'
p1330
(lp1331
(S'poleg'
p1332
(dp1333
S'ADV'
p1334
F0.001007
sS'ADP'
p1335
F0.998993
s(lp1336
tp1337
a(S'tega'
p1338
(dp1339
S'PRON'
p1340
F0.9999990000000001
s(lp1341
(g231
I0
tp1342
atp1343
a(S'ne'
p1344
(dp1345
S'PRT'
p1346
F0.999374
sS'CONJ'
p1347
F0.000618
sg34
F8.000000000000001e-06
s(lp1348
(g14
I6
tp1349
atp1350
a(S'smemo'
p1351
(dp1352
S'VERB'
p1353
F1.0
s(lp1354
tp1355
a(S'pozabiti'
p1356
(dp1357
S'VERB'
p1358
F1.0
s(lp1359
(g48
I7
tp1360
atp1361
a(S'kr\xc5\xa1itev'
p1362
(dp1363
S'NOUN'
p1364
F1.0000010000000001
s(lp1365
(g192
I11
tp1366
atp1367
a(S'\xc4\x8dlovekovih'
p1368
(dp1369
S'ADJ'
p1370
F1.0
s(lp1371
(g70
I9
tp1372
atp1373
a(S'pravic'
p1374
(dp1375
S'NOUN'
p1376
F1.0
s(lp1377
(g78
I10
tp1378
atp1379
a(S'in'
p1380
(dp1381
S'ADV'
p1382
F9.9e-05
sg34
F1.1e-05
sS'CONJ'
p1383
F0.999854
sS'NOUN'
p1384
F3.7e-05
s(lp1385
(g103
I12
tp1386
atp1387
a(S'humanitarnega'
p1388
(dp1389
S'ADV'
p1390
F0.000409
sS'NOUN'
p1391
F0.002637
sS'VERB'
p1392
F0.000961
sS'ADJ'
p1393
F0.9959919999999999
s(lp1394
(g126
I15
tp1395
atp1396
a(S'prava'
p1397
(dp1398
S'ADJ'
p1399
F0.003955
sS'NOUN'
p1400
F0.996045
s(lp1401
(g119
I16
tp1402
atp1403
a(g160
(dp1404
g162
F1.0
s(lp1405
tp1406
a(S'ki'
p1407
(dp1408
S'CONJ'
p1409
F1.0
s(lp1410
(g327
I17
tp1411
atp1412
a(S'so'
p1413
(dp1414
g34
F0.0
sS'VERB'
p1415
F1.0
s(lp1416
(g335
I18
tp1417
atp1418
a(S'bile'
p1419
(dp1420
S'VERB'
p1421
F1.0
s(lp1422
(g341
I19
tp1423
atp1424
a(S'zagre\xc5\xa1ene'
p1425
(dp1426
S'ADV'
p1427
F0.000126
sS'NOUN'
p1428
F0.016979
sS'VERB'
p1429
F0.0014199999999999998
sS'ADJ'
p1430
F0.9814749999999999
s(lp1431
(g134
I20
tp1432
atp1433
a(g1043
(dp1434
S'ADP'
p1435
F1.0
s(lp1436
(g142
I21
tp1437
atp1438
a(S'dr\xc5\xbeavi'
p1439
(dp1440
S'NOUN'
p1441
F1.0
s(lp1442
(g157
I23
tp1443
atp1444
a(g160
(dp1445
g162
F1.0
s(lp1446
(g160
I24
tp1447
atp1448
a(S'kar'
p1449
(dp1450
S'ADV'
p1451
F0.228555
sS'PRON'
p1452
F0.771444
s(lp1453
(g170
I25
tp1454
atp1455
a(S'lahko'
p1456
(dp1457
S'ADV'
p1458
F0.999877
sS'ADJ'
p1459
F0.000124
s(lp1460
(g177
I26
tp1461
atp1462
a(S'predstavlja'
p1463
(dp1464
S'VERB'
p1465
F1.0
s(lp1466
(g184
I27
tp1467
atp1468
a(S'zlo\xc4\x8dine'
p1469
(dp1470
S'NOUN'
p1471
F1.0
s(lp1472
(g199
I28
tp1473
atp1474
a(S'proti'
p1475
(dp1476
S'ADV'
p1477
F1.4e-05
sS'ADP'
p1478
F0.999986
s(lp1479
(g208
I29
tp1480
atp1481
a(S'\xc4\x8dlove\xc5\xa1tvu'
p1482
(dp1483
S'NOUN'
p1484
F1.0
s(lp1485
(g222
I30
tp1486
atp1487
a(g162
(dp1488
g162
F1.0
s(lp1489
(g162
I31
tp1490
atp1491
asS'es'
p1492
(lp1493
(S'es'
p1494
(dp1495
S'VERB'
p1496
F1.0
s(lp1497
(g238
I1
tp1498
atp1499
a(S'm\xc3\xa1s'
p1500
(dp1501
S'ADV'
p1502
F0.999999
sS'CONJ'
p1503
F1e-06
s(lp1504
(g244
I2
tp1505
atp1506
a(g160
(dp1507
g162
F1.0
s(lp1508
(g160
I3
tp1509
atp1510
a(S'no'
p1511
(dp1512
S'ADV'
p1513
F0.999956
sg34
F4.4e-05
s(lp1514
(g14
I6
tp1515
atp1516
a(S'debemos'
p1517
(dp1518
S'VERB'
p1519
F1.0
s(lp1520
(g21
I5
tp1521
atp1522
a(S'olvidar'
p1523
(dp1524
S'VERB'
p1525
F1.0
s(lp1526
(g48
I7
tp1527
atp1528
a(S'las'
p1529
(dp1530
S'PRON'
p1531
F2e-06
sS'DET'
p1532
F0.999998
s(lp1533
(g57
I8
tp1534
atp1535
a(S'violaciones'
p1536
(dp1537
S'NOUN'
p1538
F1.0
s(lp1539
(g192
I11
tp1540
atp1541
a(S'de'
p1542
(dp1543
g34
F0.0
sS'CONJ'
p1544
F1.7e-05
sS'ADP'
p1545
F0.999983
s(lp1546
tp1547
a(S'los'
p1548
(dp1549
S'PRON'
p1550
F0.0
sS'DET'
p1551
F1.0
s(lp1552
tp1553
a(S'derechos'
p1554
(dp1555
S'NOUN'
p1556
F1.0
s(lp1557
(g78
I10
tp1558
atp1559
a(S'humanos'
p1560
(dp1561
S'NOUN'
p1562
F0.18529
sS'ADJ'
p1563
F0.81471
s(lp1564
(g70
I9
tp1565
atp1566
a(S'y'
p1567
(dp1568
g34
F0.000168
sS'CONJ'
p1569
F0.999832
s(lp1570
(g103
I12
tp1571
atp1572
a(S'las'
p1573
(dp1574
S'PRON'
p1575
F0.000237
sS'DET'
p1576
F0.999763
s(lp1577
tp1578
a(S'infracciones'
p1579
(dp1580
S'NOUN'
p1581
F1.0
s(lp1582
(g305
I13
tp1583
atp1584
a(S'del'
p1585
(dp1586
S'ADP'
p1587
F1.0
s(lp1588
(g110
I14
tp1589
atp1590
a(S'derecho'
p1591
(dp1592
S'ADV'
p1593
F2e-06
sS'ADJ'
p1594
F0.012196
sS'NOUN'
p1595
F0.987802
s(lp1596
(g119
I16
tp1597
atp1598
a(S'humanitario'
p1599
(dp1600
S'ADJ'
p1601
F1.0
s(lp1602
(g126
I15
tp1603
atp1604
a(S'que'
p1605
(dp1606
g34
F1e-06
sS'CONJ'
p1607
F0.999999
s(lp1608
(g327
I17
tp1609
atp1610
a(S'se'
p1611
(dp1612
S'PRON'
p1613
F1.0
sS'VERB'
p1614
F0.0
s(lp1615
(g341
I19
tp1616
atp1617
a(S'han'
p1618
(dp1619
S'VERB'
p1620
F1.0
s(lp1621
(g335
I18
tp1622
atp1623
a(S'cometido'
p1624
(dp1625
S'NOUN'
p1626
F1.0
s(lp1627
(g134
I20
tp1628
atp1629
a(S'en'
p1630
(dp1631
g34
F0.0
sS'CONJ'
p1632
F0.0
sS'ADP'
p1633
F1.0
s(lp1634
(g142
I21
tp1635
atp1636
a(S'el'
p1637
(dp1638
S'PRON'
p1639
F5e-06
sS'DET'
p1640
F0.999995
s(lp1641
(g150
I22
tp1642
atp1643
a(S'pa\xc3\xads'
p1644
(dp1645
S'NOUN'
p1646
F1.0
s(lp1647
(g157
I23
tp1648
atp1649
a(g160
(dp1650
g162
F1.0
s(lp1651
(g160
I24
tp1652
atp1653
a(S'que'
p1654
(dp1655
g34
F0.0
sS'CONJ'
p1656
F1.0
s(lp1657
(g170
I25
tp1658
atp1659
a(S'podr\xc3\xadan'
p1660
(dp1661
S'VERB'
p1662
F1.0
s(lp1663
(g177
I26
tp1664
atp1665
a(S'constituir'
p1666
(dp1667
S'VERB'
p1668
F1.0
s(lp1669
(g184
I27
tp1670
atp1671
a(S'cr\xc3\xadmenes'
p1672
(dp1673
S'NOUN'
p1674
F1.0
s(lp1675
(g199
I28
tp1676
atp1677
a(S'contra'
p1678
(dp1679
S'ADP'
p1680
F1.0
s(lp1681
(g208
I29
tp1682
atp1683
a(S'la'
p1684
(dp1685
S'NOUN'
p1686
F0.0
sS'PRON'
p1687
F0.0
sS'DET'
p1688
F0.999999
sg34
F0.0
s(lp1689
tp1690
a(S'humanidad'
p1691
(dp1692
S'NOUN'
p1693
F1.0
s(lp1694
(g222
I30
tp1695
atp1696
a(g162
(dp1697
g162
F1.0
s(lp1698
(g162
I31
tp1699
atp1700
as.