(dp0
S'fr'
p1
(lp2
(S"j'"
p3
(dp4
S'ADJ'
p5
F0.10952
sS'X'
p6
F0.13611
sS'VERB'
p7
F0.004198999999999999
sS'NOUN'
p8
F0.750172
s(lp9
(S'lol'
p10
I13
tp11
atp12
a(S'ai'
p13
(dp14
S'VERB'
p15
F1.0
s(lp16
(g10
I13
tp17
atp18
a(S'eu'
p19
(dp20
S'VERB'
p21
F1.0
s(lp22
(g10
I13
tp23
atp24
a(S"l'"
p25
(dp26
S'ADJ'
p27
F0.185351
sS'VERB'
p28
F0.35318400000000005
sS'NOUN'
p29
F0.461464
s(lp30
tp31
a(S'occasion'
p32
(dp33
S'NOUN'
p34
F1.0
s(lp35
(g10
I13
tp36
atp37
a(S','
p38
(dp39
S'.'
p40
F1.0
s(lp41
tp42
a(S'lors'
p43
(dp44
S'ADV'
p45
F1.0
s(lp46
(S'at'
p47
I0
tp48
atp49
a(S'de'
p50
(dp51
S'ADP'
p52
F1.0
s(lp53
tp54
a(S'la'
p55
(dp56
S'PRON'
p57
F1.2e-05
sS'DET'
p58
F0.999988
sS'NOUN'
p59
F0.0
s(lp60
(S'my'
p61
I1
tp62
atp63
a(S'r\xc3\xa9union'
p64
(dp65
S'NOUN'
p66
F1.0
s(lp67
(S'meeting'
p68
I2
tp69
atp70
a(S'que'
p71
(dp72
S'ADV'
p73
F0.032146
sS'PRON'
p74
F0.21218599999999999
sS'CONJ'
p75
F0.755668
s(lp76
tp77
a(S"j'"
p78
(dp79
S'ADJ'
p80
F0.383815
sS'VERB'
p81
F0.05012899999999999
sS'NOUN'
p82
F0.563871
sg6
F0.002186
s(lp83
(g10
I13
tp84
atp85
a(S'ai'
p86
(dp87
S'VERB'
p88
F1.0
s(lp89
(g10
I13
tp90
atp91
a(S'eue'
p92
(dp93
S'VERB'
p94
F1.0
s(lp95
tp96
a(S'avec'
p97
(dp98
S'ADV'
p99
F0.002746
sS'ADP'
p100
F0.997254
s(lp101
(S'with'
p102
I3
tp103
atp104
a(S'les'
p105
(dp106
S'PRON'
p107
F5.6e-05
sS'DET'
p108
F0.999942
sS'ADP'
p109
F2e-06
s(lp110
(S'the'
p111
I4
tp112
atp113
a(S'repr\xc3\xa9sentants'
p114
(dp115
S'NOUN'
p116
F1.0
s(lp117
(S'representatives'
p118
I5
tp119
atp120
a(S'de'
p121
(dp122
S'ADP'
p123
F1.0
s(lp124
(S'of'
p125
I6
tp126
atp127
a(S'la'
p128
(dp129
S'PRON'
p130
F1.2e-05
sS'DET'
p131
F0.999988
sS'NOUN'
p132
F0.0
s(lp133
(S'the'
p134
I7
tp135
atp136
a(S'commission'
p137
(dp138
S'NOUN'
p139
F1.0
s(lp140
(S'committee'
p141
I9
tp142
atp143
a(S'de'
p144
(dp145
S'ADP'
p146
F1.0
s(lp147
tp148
a(S'suivi'
p149
(dp150
S'ADJ'
p151
F0.118892
sS'VERB'
p152
F0.000212
sS'NOUN'
p153
F0.880895
s(lp154
(S'monitoring'
p155
I8
tp156
atp157
a(S'pr\xc3\xa9sid\xc3\xa9e'
p158
(dp159
S'VERB'
p160
F1.0
s(lp161
(S'led'
p162
I10
tp163
atp164
a(S'par'
p165
(dp166
S'NOUN'
p167
F6e-06
sS'ADP'
p168
F0.999994
s(lp169
(S'by'
p170
I11
tp171
atp172
a(S'm.'
p173
(dp174
g6
F0.365593
sS'VERB'
p175
F0.27107500000000007
sS'ADJ'
p176
F0.298061
sS'NOUN'
p177
F0.065268
s(lp178
(S'mr'
p179
I12
tp180
atp181
a(S'lol'
p182
(dp183
S'NOUN'
p184
F1.0
s(lp185
(g10
I13
tp186
atp187
a(g38
(dp188
g40
F1.0
s(lp189
(g38
I14
tp190
atp191
a(S'de'
p192
(dp193
S'ADP'
p194
F1.0
s(lp195
(S'to'
p196
I18
tp197
atp198
a(S'leur'
p199
(dp200
S'PRON'
p201
F1.0
s(lp202
(S'them'
p203
I20
tp204
atp205
a(S'dire'
p206
(dp207
S'VERB'
p208
F0.365488
sS'NOUN'
p209
F0.634512
s(lp210
(S'tell'
p211
I19
tp212
atp213
a(S"qu'"
p214
(dp215
S'NOUN'
p216
F0.052372
sS'VERB'
p217
F0.463625
sS'ADJ'
p218
F0.484004
s(lp219
tp220
a(S'il'
p221
(dp222
S'PRON'
p223
F1.0
s(lp224
(S'it'
p225
I21
tp226
atp227
a(S'est'
p228
(dp229
S'VERB'
p230
F0.999997
sS'NOUN'
p231
F3e-06
s(lp232
(S'is'
p233
I22
tp234
atp235
a(S'\xc3\xa9galement'
p236
(dp237
S'ADV'
p238
F1.0
s(lp239
(S'equally'
p240
I23
tp241
atp242
a(S'important'
p243
(dp244
S'VERB'
p245
F0.042912
sS'ADJ'
p246
F0.957088
s(lp247
(S'important'
p248
I24
tp249
atp250
a(S"d'"
p251
(dp252
S'ADJ'
p253
F0.040648
sS'VERB'
p254
F0.376873
sS'NOUN'
p255
F0.58248
s(lp256
(S'that'
p257
I25
tp258
atp259
a(S'associer'
p260
(dp261
S'VERB'
p262
F1.0
s(lp263
(S'involved'
p264
I29
tp265
atp266
a(S'la'
p267
(dp268
S'PRON'
p269
F6e-06
sS'DET'
p270
F0.999994
sS'NOUN'
p271
F0.0
s(lp272
(S'the'
p273
I31
tp274
atp275
a(S'soci\xc3\xa9t\xc3\xa9'
p276
(dp277
S'NOUN'
p278
F1.0
s(lp279
(S'society'
p280
I27
tp281
atp282
a(S'civile'
p283
(dp284
S'ADJ'
p285
F1.0
s(lp286
(S'civil'
p287
I26
tp288
atp289
a(g40
(dp290
g40
F1.0
s(lp291
(g40
I33
tp292
atp293
asS'en'
p294
(lp295
(g47
(dp296
S'NOUN'
p297
F0.0
sS'ADP'
p298
F1.0
s(lp299
(g47
I0
tp300
atp301
a(g61
(dp302
S'PRON'
p303
F1.0
s(lp304
(g61
I1
tp305
atp306
a(g68
(dp307
S'VERB'
p308
F0.011701
sS'NOUN'
p309
F0.988299
s(lp310
(g68
I2
tp311
atp312
a(g102
(dp313
S'ADP'
p314
F1.0
s(lp315
(g102
I3
tp316
atp317
a(g111
(dp318
S'NOUN'
p319
F1.1e-05
sS'DET'
p320
F0.999989
s(lp321
(g111
I4
tp322
atp323
a(g118
(dp324
S'NOUN'
p325
F1.0
s(lp326
(g118
I5
tp327
atp328
a(g125
(dp329
S'ADP'
p330
F1.0
s(lp331
(g125
I6
tp332
atp333
a(g134
(dp334
S'NOUN'
p335
F1e-06
sS'DET'
p336
F0.999999
s(lp337
(g134
I7
tp338
atp339
a(g155
(dp340
S'VERB'
p341
F0.138482
sS'NOUN'
p342
F0.861518
s(lp343
(g155
I8
tp344
atp345
a(g141
(dp346
S'NOUN'
p347
F1.0
s(lp348
(g141
I9
tp349
atp350
a(g162
(dp351
S'VERB'
p352
F1.0
s(lp353
(g162
I10
tp354
atp355
a(g170
(dp356
S'ADV'
p357
F0.000162
sS'NOUN'
p358
F1e-06
sS'ADP'
p359
F0.999837
s(lp360
(g170
I11
tp361
atp362
a(g179
(dp363
S'ADJ'
p364
F0.011337
sS'NOUN'
p365
F0.9886619999999999
s(lp366
(g179
I12
tp367
atp368
a(g10
(dp369
S'ADJ'
p370
F0.00063
sS'NOUN'
p371
F0.99937
s(lp372
(g10
I13
tp373
atp374
a(g38
(dp375
g40
F1.0
s(lp376
(g38
I14
tp377
atp378
a(S'i'
p379
(dp380
g6
F0.253056
sS'NOUN'
p381
F0.746943
s(lp382
(g379
I15
tp383
atp384
a(S'was'
p385
(dp386
S'VERB'
p387
F1.0
s(lp388
(g385
I16
tp389
atp390
a(S'able'
p391
(dp392
S'ADJ'
p393
F1.0
s(lp394
(g391
I17
tp395
atp396
a(g196
(dp397
S'ADV'
p398
F0.0
sS'PRT'
p399
F1.0
sS'ADP'
p400
F0.0
s(lp401
(g196
I18
tp402
atp403
a(g211
(dp404
S'VERB'
p405
F0.999988
sS'NOUN'
p406
F1.2e-05
s(lp407
(g211
I19
tp408
atp409
a(g203
(dp410
S'PRON'
p411
F1.0
s(lp412
(g203
I20
tp413
atp414
a(g225
(dp415
S'PRON'
p416
F1.0
s(lp417
(g225
I21
tp418
atp419
a(g233
(dp420
S'VERB'
p421
F1.0
s(lp422
(g233
I22
tp423
atp424
a(g240
(dp425
S'ADV'
p426
F1.0
s(lp427
(g240
I23
tp428
atp429
a(g248
(dp430
S'ADJ'
p431
F1.0
s(lp432
(g248
I24
tp433
atp434
a(g257
(dp435
S'ADV'
p436
F0.001138
sS'DET'
p437
F0.043927
sS'ADP'
p438
F0.954935
s(lp439
(g257
I25
tp440
atp441
a(g287
(dp442
S'ADJ'
p443
F1.0
s(lp444
(g287
I26
tp445
atp446
a(g280
(dp447
S'NOUN'
p448
F1.0
s(lp449
(g280
I27
tp450
atp451
a(S'be'
p452
(dp453
S'VERB'
p454
F1.0
s(lp455
(g452
I28
tp456
atp457
a(g264
(dp458
S'VERB'
p459
F0.998036
sS'ADJ'
p460
F0.001964
s(lp461
(g264
I29
tp462
atp463
a(S'in'
p464
(dp465
S'ADV'
p466
F0.000366
sS'PRT'
p467
F0.003789
sS'ADP'
p468
F0.995845
s(lp469
(g464
I30
tp470
atp471
a(g273
(dp472
S'NOUN'
p473
F1e-06
sS'DET'
p474
F0.999999
s(lp475
(g273
I31
tp476
atp477
a(S'process'
p478
(dp479
S'VERB'
p480
F0.000147
sS'NOUN'
p481
F0.999853
s(lp482
(g478
I32
tp483
atp484
a(g40
(dp485
g40
F1.0
s(lp486
(g40
I33
tp487
atp488
asS'nl'
p489
(lp490
(S'tijdens'
p491
(dp492
S'ADP'
p493
F1.0
s(lp494
(g47
I0
tp495
atp496
a(S'mijn'
p497
(dp498
S'PRON'
p499
F0.999996
sS'NOUN'
p500
F4e-06
s(lp501
(g61
I1
tp502
atp503
a(S'bijeenkomst'
p504
(dp505
S'NOUN'
p506
F1.0
s(lp507
(g68
I2
tp508
atp509
a(S'met'
p510
(dp511
S'ADP'
p512
F1.0
s(lp513
(g102
I3
tp514
atp515
a(S'de'
p516
(dp517
S'DET'
p518
F1.0
s(lp519
(g111
I4
tp520
atp521
a(S'vertegenwoordigers'
p522
(dp523
S'NOUN'
p524
F1.0
s(lp525
(g118
I5
tp526
atp527
a(S'van'
p528
(dp529
S'ADP'
p530
F1.0
s(lp531
(g125
I6
tp532
atp533
a(S'de'
p534
(dp535
S'DET'
p536
F1.0
s(lp537
(g134
I7
tp538
atp539
a(S'toezichtcommissie'
p540
(dp541
S'NOUN'
p542
F1.0
s(lp543
(g10
I13
tp544
atp545
a(S'onder'
p546
(dp547
S'ADV'
p548
F8e-06
sS'ADP'
p549
F0.999992
s(lp550
(g10
I13
tp551
atp552
a(S'leiding'
p553
(dp554
S'NOUN'
p555
F1.0
s(lp556
(g10
I13
tp557
atp558
a(S'van'
p559
(dp560
S'ADP'
p561
F1.0
s(lp562
(g170
I11
tp563
atp564
a(S'de'
p565
(dp566
S'DET'
p567
F1.0
s(lp568
tp569
a(S'heer'
p570
(dp571
S'NOUN'
p572
F1.0
s(lp573
(g179
I12
tp574
atp575
a(S'lol'
p576
(dp577
S'NOUN'
p578
F1.0
s(lp579
tp580
a(S'heb'
p581
(dp582
S'VERB'
p583
F1.0
s(lp584
(g10
I13
tp585
atp586
a(S'ik'
p587
(dp588
S'PRON'
p589
F1.0
sS'NOUN'
p590
F0.0
s(lp591
(g379
I15
tp592
atp593
a(S'hen'
p594
(dp595
S'PRON'
p596
F0.999824
sS'NOUN'
p597
F0.000176
s(lp598
(g203
I20
tp599
atp600
a(S'kunnen'
p601
(dp602
S'VERB'
p603
F0.9999100000000001
sS'NOUN'
p604
F9e-05
s(lp605
(g391
I17
tp606
atp607
a(S'vertellen'
p608
(dp609
S'VERB'
p610
F0.9987159999999999
sS'NOUN'
p611
F0.001284
s(lp612
(g211
I19
tp613
atp614
a(S'dat'
p615
(dp616
S'PRON'
p617
F0.011381
sS'CONJ'
p618
F0.988618
s(lp619
tp620
a(S'het'
p621
(dp622
S'PRON'
p623
F0.469558
sS'DET'
p624
F0.530443
s(lp625
tp626
a(S'van'
p627
(dp628
S'ADP'
p629
F1.0
s(lp630
tp631
a(S'even'
p632
(dp633
S'ADV'
p634
F0.004352
sS'ADJ'
p635
F0.995648
s(lp636
tp637
a(S'groot'
p638
(dp639
S'ADJ'
p640
F1.0
s(lp641
(g240
I23
tp642
atp643
a(S'belang'
p644
(dp645
S'NOUN'
p646
F1.0
s(lp647
(g248
I24
tp648
atp649
a(S'is'
p650
(dp651
S'VERB'
p652
F1.0
s(lp653
(g233
I22
tp654
atp655
a(S'dat'
p656
(dp657
S'PRON'
p658
F0.038964000000000006
sS'CONJ'
p659
F0.961037
s(lp660
(g257
I25
tp661
atp662
a(S'het'
p663
(dp664
S'PRON'
p665
F0.086835
sS'DET'
p666
F0.913165
s(lp667
(g225
I21
tp668
atp669
a(S'maatschappelijk'
p670
(dp671
S'ADJ'
p672
F1.0
s(lp673
(g287
I26
tp674
atp675
a(S'middenveld'
p676
(dp677
S'NOUN'
p678
F1.0
s(lp679
(g280
I27
tp680
atp681
a(S'bij'
p682
(dp683
S'ADV'
p684
F0.004138
sS'NOUN'
p685
F0.0
sS'ADJ'
p686
F0.0
sS'ADP'
p687
F0.995862
s(lp688
(g464
I30
tp689
atp690
a(S'het'
p691
(dp692
S'PRON'
p693
F0.00093
sS'DET'
p694
F0.999069
s(lp695
(g273
I31
tp696
atp697
a(S'proces'
p698
(dp699
S'NOUN'
p700
F1.0
s(lp701
(g478
I32
tp702
atp703
a(S'wordt'
p704
(dp705
S'VERB'
p706
F1.0
s(lp707
(g452
I28
tp708
atp709
a(S'betrokken'
p710
(dp711
S'VERB'
p712
F0.508156
sS'ADJ'
p713
F0.491845
s(lp714
(g264
I29
tp715
atp716
a(g40
(dp717
g40
F1.0
s(lp718
(g40
I33
tp719
atp720
asS'de'
p721
(lp722
(S'ich'
p723
(dp724
S'PRON'
p725
F1.0
s(lp726
(g379
I15
tp727
atp728
a(S'hatte'
p729
(dp730
S'VERB'
p731
F1.0
s(lp732
(g10
I13
tp733
atp734
a(S'anl\xc3\xa4sslich'
p735
(dp736
S'ADP'
p737
F1.0
s(lp738
(g10
I13
tp739
atp740
a(S'meiner'
p741
(dp742
S'PRON'
p743
F1.0
s(lp744
(g61
I1
tp745
atp746
a(S'zusammenkunft'
p747
(dp748
S'ADJ'
p749
F0.000758
sS'NOUN'
p750
F0.999157
s(lp751
(g68
I2
tp752
atp753
a(S'mit'
p754
(dp755
S'PRT'
p756
F0.000335
sS'ADP'
p757
F0.999665
s(lp758
(g102
I3
tp759
atp760
a(S'den'
p761
(dp762
S'PRON'
p763
F0.000133
sS'DET'
p764
F0.999865
s(lp765
(g111
I4
tp766
atp767
a(S'vertretern'
p768
(dp769
S'ADJ'
p770
F0.009369
sS'NOUN'
p771
F0.981193
s(lp772
(g118
I5
tp773
atp774
a(S'des'
p775
(dp776
S'DET'
p777
F1.0
s(lp778
(g125
I6
tp779
atp780
a(S'\xc3\x9cberwachungsausschusses'
p781
(dp782
S'NOUN'
p783
F1.0
s(lp784
(g10
I13
tp785
atp786
a(S'unter'
p787
(dp788
S'PRT'
p789
F5e-06
sS'ADP'
p790
F0.999995
s(lp791
(g10
I13
tp792
atp793
a(S'vorsitz'
p794
(dp795
S'ADJ'
p796
F0.000407
sS'NOUN'
p797
F0.999445
s(lp798
(g10
I13
tp799
atp800
a(S'von'
p801
(dp802
S'NOUN'
p803
F0.000574
sS'ADP'
p804
F0.999426
s(lp805
(g170
I11
tp806
atp807
a(S'herrn'
p808
(dp809
S'ADJ'
p810
F0.057439
sS'NOUN'
p811
F0.942087
s(lp812
(g179
I12
tp813
atp814
a(S'lol'
p815
(dp816
S'NOUN'
p817
F0.7220880000000001
s(lp818
(g10
I13
tp819
atp820
a(S'gelegenheit'
p821
(dp822
S'VERB'
p823
F0.580598
sS'ADJ'
p824
F0.195109
s(lp825
(g10
I13
tp826
atp827
a(g38
(dp828
g40
F1.0
s(lp829
(g38
I14
tp830
atp831
a(S'darzulegen'
p832
(dp833
S'VERB'
p834
F1.0
s(lp835
tp836
a(g38
(dp837
g40
F1.0
s(lp838
(g196
I18
tp839
atp840
a(S'wie'
p841
(dp842
S'CONJ'
p843
F0.9931800000000001
s(lp844
(g10
I13
tp845
atp846
a(S'wichtig'
p847
(dp848
S'ADJ'
p849
F1.0
s(lp850
(g248
I24
tp851
atp852
a(S'es'
p853
(dp854
S'PRON'
p855
F1.0
s(lp856
(g225
I21
tp857
atp858
a(S'ist'
p859
(dp860
S'VERB'
p861
F1.0
s(lp862
(g233
I22
tp863
atp864
a(g38
(dp865
g40
F1.0
s(lp866
(g257
I25
tp867
atp868
a(S'auch'
p869
(dp870
S'ADV'
p871
F1.0
s(lp872
(g240
I23
tp873
atp874
a(S'die'
p875
(dp876
S'PRON'
p877
F0.000407
sS'DET'
p878
F0.999586
s(lp879
(g287
I26
tp880
atp881
a(S'zivilgesellschaft'
p882
(dp883
S'ADJ'
p884
F0.011257
sS'NOUN'
p885
F0.986689
s(lp886
(g280
I27
tp887
atp888
a(S'einzubeziehen'
p889
(dp890
S'VERB'
p891
F1.0
s(lp892
(g264
I29
tp893
atp894
a(g40
(dp895
g40
F1.0
s(lp896
(g40
I33
tp897
atp898
asS'it'
p899
(lp900
(S'nel'
p901
(dp902
S'ADP'
p903
F1.0
s(lp904
(g47
I0
tp905
atp906
a(S'mio'
p907
(dp908
S'PRON'
p909
F1.0
s(lp910
(g61
I1
tp911
atp912
a(S'incontro'
p913
(dp914
S'ADV'
p915
F0.002015
sS'VERB'
p916
F8e-06
sS'NOUN'
p917
F0.997977
s(lp918
(g68
I2
tp919
atp920
a(S'con'
p921
(dp922
S'ADP'
p923
F1.0
s(lp924
(g102
I3
tp925
atp926
a(g379
(dp927
S'DET'
p928
F1.0
s(lp929
tp930
a(S'rappresentanti'
p931
(dp932
S'ADJ'
p933
F0.009153
sS'VERB'
p934
F0.002555
sS'NOUN'
p935
F0.988292
s(lp936
(g118
I5
tp937
atp938
a(S'del'
p939
(dp940
S'DEF'
p941
F0.001276
sS'ADP'
p942
F0.998724
s(lp943
(g125
I6
tp944
atp945
a(S'comitato'
p946
(dp947
S'NOUN'
p948
F1.0
s(lp949
(g141
I9
tp950
atp951
a(S'di'
p952
(dp953
S'CONJ'
p954
F4e-06
sS'ADP'
p955
F0.999996
s(lp956
tp957
a(S'sorveglianza'
p958
(dp959
S'NOUN'
p960
F1.0
s(lp961
(g10
I13
tp962
atp963
a(S'presieduto'
p964
(dp965
S'VERB'
p966
F1.0
s(lp967
(g10
I13
tp968
atp969
a(S'da'
p970
(dp971
S'ADP'
p972
F1.0
s(lp973
tp974
a(S'lol'
p975
(dp976
S'NOUN'
p977
F1.0
s(lp978
(g10
I13
tp979
atp980
a(g38
(dp981
g40
F1.0
s(lp982
(g38
I14
tp983
atp984
a(S'sono'
p985
(dp986
S'VERB'
p987
F0.999825
sS'NOUN'
p988
F0.000175
s(lp989
(g379
I15
tp990
atp991
a(S'stato'
p992
(dp993
S'VERB'
p994
F0.998711
sS'NOUN'
p995
F0.001289
s(lp996
(g385
I16
tp997
atp998
a(S'in'
p999
(dp1000
S'ADP'
p1001
F1.0
s(lp1002
tp1003
a(S'grado'
p1004
(dp1005
S'NOUN'
p1006
F1.0
s(lp1007
(g391
I17
tp1008
atp1009
a(S'di'
p1010
(dp1011
S'CONJ'
p1012
F6e-06
sS'ADP'
p1013
F0.999994
s(lp1014
(g196
I18
tp1015
atp1016
a(S'dichiarare'
p1017
(dp1018
S'VERB'
p1019
F1.0
s(lp1020
(g211
I19
tp1021
atp1022
a(S'loro'
p1023
(dp1024
S'PRON'
p1025
F1.0
s(lp1026
(g203
I20
tp1027
atp1028
a(S'che'
p1029
(dp1030
S'PRON'
p1031
F0.997631
sS'CONJ'
p1032
F0.001259
sS'ADJ'
p1033
F0.001109
s(lp1034
(g225
I21
tp1035
atp1036
a(S'\xc3\xa8'
p1037
(dp1038
S'VERB'
p1039
F1.0
s(lp1040
(g233
I22
tp1041
atp1042
a(S'ugualmente'
p1043
(dp1044
S'ADV'
p1045
F1.0
s(lp1046
(g240
I23
tp1047
atp1048
a(S'importante'
p1049
(dp1050
S'NOUN'
p1051
F0.012039
sS'VERB'
p1052
F0.008689
sS'ADJ'
p1053
F0.979273
s(lp1054
(g248
I24
tp1055
atp1056
a(S'coinvolgere'
p1057
(dp1058
S'VERB'
p1059
F1.0
s(lp1060
(g264
I29
tp1061
atp1062
a(S'la'
p1063
(dp1064
S'PRON'
p1065
F0.0
sS'DET'
p1066
F1.0
s(lp1067
(g257
I25
tp1068
atp1069
a(S'societ\xc3\xa0'
p1070
(dp1071
S'NOUN'
p1072
F1.0
s(lp1073
(g280
I27
tp1074
atp1075
a(S'civile'
p1076
(dp1077
S'NOUN'
p1078
F0.003252
sS'ADJ'
p1079
F0.996748
s(lp1080
(g287
I26
tp1081
atp1082
a(S'nel'
p1083
(dp1084
S'ADP'
p1085
F1.0
s(lp1086
(g464
I30
tp1087
atp1088
a(S'processo'
p1089
(dp1090
S'VERB'
p1091
F3e-06
sS'NOUN'
p1092
F0.999997
s(lp1093
(g478
I32
tp1094
atp1095
a(g40
(dp1096
g40
F1.0
s(lp1097
(g40
I33
tp1098
atp1099
asS'sk'
p1100
(lp1101
(S'po\xc4\x8das'
p1102
(dp1103
S'ADP'
p1104
F1.0
s(lp1105
(g47
I0
tp1106
atp1107
a(S'svojich'
p1108
(dp1109
S'PRON'
p1110
F1.0
s(lp1111
(g61
I1
tp1112
atp1113
a(S'stretnut\xc3\xad'
p1114
(dp1115
S'NOUN'
p1116
F1.0
s(lp1117
(g68
I2
tp1118
atp1119
a(S's'
p1120
(dp1121
g6
F0.000893
sS'CONJ'
p1122
F0.000102
sS'NOUN'
p1123
F1.4000000000000001e-05
sS'ADP'
p1124
F0.998912
sS'PRT'
p1125
F7.9e-05
s(lp1126
(g102
I3
tp1127
atp1128
a(S'predstavite\xc4\xbemi'
p1129
(dp1130
S'NOUN'
p1131
F1.0
s(lp1132
(g118
I5
tp1133
atp1134
a(S'monitorovacieho'
p1135
(dp1136
S'ADJ'
p1137
F1.0
s(lp1138
(g155
I8
tp1139
atp1140
a(S'v\xc3\xbdboru'
p1141
(dp1142
S'NOUN'
p1143
F1.0
s(lp1144
(g141
I9
tp1145
atp1146
a(S'pod'
p1147
(dp1148
g6
F0.009434
sS'ADP'
p1149
F0.990567
s(lp1150
(g162
I10
tp1151
atp1152
a(S'veden\xc3\xadm'
p1153
(dp1154
S'NOUN'
p1155
F1.0
s(lp1156
(g10
I13
tp1157
atp1158
a(S'p\xc3\xa1na'
p1159
(dp1160
g6
F0.002316
sS'NOUN'
p1161
F0.997683
s(lp1162
(g10
I13
tp1163
atp1164
a(S'lola'
p1165
(dp1166
S'ADV'
p1167
F0.335455
sg6
F0.014733
sS'VERB'
p1168
F0.368523
sS'NOUN'
p1169
F0.28129
s(lp1170
(g10
I13
tp1171
atp1172
a(S'som'
p1173
(dp1174
S'VERB'
p1175
F1.0
s(lp1176
(g379
I15
tp1177
atp1178
a(S'zd\xc3\xb4raz\xc5\x88oval'
p1179
(dp1180
S'VERB'
p1181
F0.9999990000000001
s(lp1182
(g10
I13
tp1183
atp1184
a(g38
(dp1185
g40
F1.0
s(lp1186
(g211
I19
tp1187
atp1188
a(S'\xc5\xbee'
p1189
(dp1190
g6
F0.001181
sS'CONJ'
p1191
F0.998819
s(lp1192
(g196
I18
tp1193
atp1194
a(S'je'
p1195
(dp1196
g6
F0.000314
sS'VERB'
p1197
F0.999571
sS'PRON'
p1198
F0.000115
s(lp1199
(g233
I22
tp1200
atp1201
a(S'nesmierne'
p1202
(dp1203
S'ADV'
p1204
F0.796513
sS'ADJ'
p1205
F0.203487
s(lp1206
tp1207
a(S'd\xc3\xb4le\xc5\xbeit\xc3\xa9'
p1208
(dp1209
S'ADJ'
p1210
F1.0
s(lp1211
(g248
I24
tp1212
atp1213
a(g38
(dp1214
g40
F1.0
s(lp1215
tp1216
a(S'aby'
p1217
(dp1218
g6
F4.9e-05
sS'CONJ'
p1219
F0.999951
s(lp1220
(g257
I25
tp1221
atp1222
a(S'bola'
p1223
(dp1224
S'VERB'
p1225
F1.0
s(lp1226
(g452
I28
tp1227
atp1228
a(S'do'
p1229
(dp1230
g6
F9.099999999999999e-05
sS'ADP'
p1231
F0.999862
sS'PRON'
p1232
F4.6e-05
s(lp1233
tp1234
a(S'tohto'
p1235
(dp1236
S'PRON'
p1237
F0.999974
sg6
F2.6e-05
s(lp1238
(g264
I29
tp1239
atp1240
a(S'procesu'
p1241
(dp1242
S'NOUN'
p1243
F1.0
s(lp1244
(g478
I32
tp1245
atp1246
a(S'zahrnut\xc3\xa1'
p1247
(dp1248
S'VERB'
p1249
F1.0
s(lp1250
(g10
I13
tp1251
atp1252
a(S'aj'
p1253
(dp1254
g6
F0.604447
sS'CONJ'
p1255
F0.395553
s(lp1256
(g240
I23
tp1257
atp1258
a(S'ob\xc4\x8dianska'
p1259
(dp1260
S'ADJ'
p1261
F1.0
s(lp1262
(g287
I26
tp1263
atp1264
a(S'spolo\xc4\x8dnos\xc5\xa5'
p1265
(dp1266
S'NOUN'
p1267
F1.0
s(lp1268
(g280
I27
tp1269
atp1270
a(g40
(dp1271
g40
F1.0
s(lp1272
(g40
I33
tp1273
atp1274
asS'pl'
p1275
(lp1276
(S'na'
p1277
(dp1278
g6
F1e-06
sS'VERB'
p1279
F0.0
sS'NOUN'
p1280
F0.0
sS'ADP'
p1281
F0.999997
sS'PRT'
p1282
F1e-06
s(lp1283
(g47
I0
tp1284
atp1285
a(S'spotkaniu'
p1286
(dp1287
S'VERB'
p1288
F0.080925
sS'NOUN'
p1289
F0.919075
s(lp1290
(g68
I2
tp1291
atp1292
a(S'z'
p1293
(dp1294
S'PRT'
p1295
F5e-06
sS'VERB'
p1296
F0.0
sS'NOUN'
p1297
F0.0
sS'ADP'
p1298
F0.999994
sg6
F0.0
s(lp1299
(g102
I3
tp1300
atp1301
a(S'przedstawicielami'
p1302
(dp1303
S'NOUN'
p1304
F1.0
s(lp1305
(g118
I5
tp1306
atp1307
a(S'komitetu'
p1308
(dp1309
S'NOUN'
p1310
F1.0
s(lp1311
(g141
I9
tp1312
atp1313
a(S'monitoruj\xc4\x85cego'
p1314
(dp1315
S'ADV'
p1316
F0.000303
sS'NOUN'
p1317
F0.09934200000000001
sS'VERB'
p1318
F0.16473000000000002
sS'ADJ'
p1319
F0.735625
s(lp1320
(g10
I13
tp1321
atp1322
a(g38
(dp1323
g6
F0.0
sg40
F1.0
s(lp1324
tp1325
a(S'kt\xc3\xb3remu'
p1326
(dp1327
S'ADJ'
p1328
F0.9999999999999999
s(lp1329
(g10
I13
tp1330
atp1331
a(S'przewodniczy'
p1332
(dp1333
S'VERB'
p1334
F1.0
s(lp1335
(g10
I13
tp1336
atp1337
a(S'pan'
p1338
(dp1339
g6
F0.0
sS'NOUN'
p1340
F1.0
s(lp1341
(g179
I12
tp1342
atp1343
a(S'pose\xc5\x82'
p1344
(dp1345
S'NOUN'
p1346
F0.9999989999999999
s(lp1347
(g10
I13
tp1348
atp1349
a(S'lol'
p1350
(dp1351
S'ADV'
p1352
F0.000345
sS'ADJ'
p1353
F9.7e-05
sS'VERB'
p1354
F0.04925600000000001
sS'NOUN'
p1355
F0.950299
sg6
F2e-06
s(lp1356
(g10
I13
tp1357
atp1358
a(g38
(dp1359
g6
F0.0
sg40
F1.0
s(lp1360
tp1361
a(S'mia\xc5\x82em'
p1362
(dp1363
S'ADV'
p1364
F0.011109
sS'ADJ'
p1365
F0.172089
sS'VERB'
p1366
F0.37668300000000005
sS'NOUN'
p1367
F0.4401210000000001
s(lp1368
(g10
I13
tp1369
atp1370
a(S'okazj\xc4\x99'
p1371
(dp1372
S'NOUN'
p1373
F1.0
s(lp1374
tp1375
a(S'powiedzie\xc4\x87'
p1376
(dp1377
S'VERB'
p1378
F1.0
s(lp1379
(g211
I19
tp1380
atp1381
a(g38
(dp1382
g6
F0.0
sg40
F1.0
s(lp1383
(g38
I14
tp1384
atp1385
a(S'\xc5\xbce'
p1386
(dp1387
S'PRT'
p1388
F0.000384
sS'CONJ'
p1389
F0.999616
s(lp1390
(g225
I21
tp1391
atp1392
a(S'r\xc3\xb3wnie'
p1393
(dp1394
S'ADV'
p1395
F1.0
s(lp1396
(g240
I23
tp1397
atp1398
a(S'wa\xc5\xbcne'
p1399
(dp1400
S'ADJ'
p1401
F1.0
s(lp1402
(g248
I24
tp1403
atp1404
a(S'jest'
p1405
(dp1406
S'VERB'
p1407
F1.0
s(lp1408
(g233
I22
tp1409
atp1410
a(g38
(dp1411
g6
F0.0
sg40
F1.0
s(lp1412
tp1413
a(S'aby'
p1414
(dp1415
S'PRT'
p1416
F0.006364
sS'CONJ'
p1417
F0.993636
s(lp1418
(g257
I25
tp1419
atp1420
a(S'w'
p1421
(dp1422
S'ADJ'
p1423
F0.0
sg6
F2.9e-05
sS'NOUN'
p1424
F0.003573
sS'ADP'
p1425
F0.996399
s(lp1426
(g464
I30
tp1427
atp1428
a(S'ten'
p1429
(dp1430
g6
F0.000139
sS'ADJ'
p1431
F0.999855
sS'PRT'
p1432
F6e-06
s(lp1433
(g273
I31
tp1434
atp1435
a(S'proces'
p1436
(dp1437
S'NOUN'
p1438
F1.0
s(lp1439
(g478
I32
tp1440
atp1441
a(S'w\xc5\x82\xc4\x85czone'
p1442
(dp1443
S'VERB'
p1444
F1.0
s(lp1445
(g10
I13
tp1446
atp1447
a(S'zosta\xc5\x82o'
p1448
(dp1449
S'VERB'
p1450
F1.0
s(lp1451
(g385
I16
tp1452
atp1453
a(S'spo\xc5\x82ecze\xc5\x84stwo'
p1454
(dp1455
S'NOUN'
p1456
F1.0
s(lp1457
(g280
I27
tp1458
atp1459
a(g40
(dp1460
g40
F1.0
s(lp1461
(g40
I33
tp1462
atp1463
asS'sl'
p1464
(lp1465
(S'na'
p1466
(dp1467
S'ADP'
p1468
F1.0
s(lp1469
(g47
I0
tp1470
atp1471
a(S'sre\xc4\x8danju'
p1472
(dp1473
S'NOUN'
p1474
F1.0
s(lp1475
(g68
I2
tp1476
atp1477
a(g1120
(dp1478
S'VERB'
p1479
F1.8e-05
sS'NOUN'
p1480
F0.000151
sS'ADP'
p1481
F0.99983
s(lp1482
(g102
I3
tp1483
atp1484
a(S'predstavniki'
p1485
(dp1486
S'NOUN'
p1487
F1.0
s(lp1488
(g118
I5
tp1489
atp1490
a(S'nadzornega'
p1491
(dp1492
S'ADJ'
p1493
F1.0
s(lp1494
(g155
I8
tp1495
atp1496
a(S'odbora'
p1497
(dp1498
S'NOUN'
p1499
F1.0
s(lp1500
(g141
I9
tp1501
atp1502
a(S'pod'
p1503
(dp1504
S'ADP'
p1505
F1.0
s(lp1506
tp1507
a(S'vodstvom'
p1508
(dp1509
S'NOUN'
p1510
F1.0
s(lp1511
(g162
I10
tp1512
atp1513
a(S'gospoda'
p1514
(dp1515
S'NOUN'
p1516
F1.000001
s(lp1517
(g179
I12
tp1518
atp1519
a(S'lola'
p1520
(dp1521
S'ADV'
p1522
F0.002015
sS'ADJ'
p1523
F0.01071
sS'VERB'
p1524
F0.7527429999999998
sS'NOUN'
p1525
F0.234534
s(lp1526
tp1527
a(S'sem'
p1528
(dp1529
S'ADV'
p1530
F0.004267
sS'PRT'
p1531
F4.3e-05
sS'VERB'
p1532
F0.99569
s(lp1533
(g379
I15
tp1534
atp1535
a(S'jim'
p1536
(dp1537
S'PRON'
p1538
F1.0
s(lp1539
(g203
I20
tp1540
atp1541
a(S'povedal'
p1542
(dp1543
S'VERB'
p1544
F1.0
s(lp1545
(g211
I19
tp1546
atp1547
a(g38
(dp1548
g40
F1.0
s(lp1549
(g38
I14
tp1550
atp1551
a(S'da'
p1552
(dp1553
S'PRT'
p1554
F4e-06
sS'CONJ'
p1555
F0.999979
sS'VERB'
p1556
F1.7e-05
sg6
F1e-06
s(lp1557
(g257
I25
tp1558
atp1559
a(S'je'
p1560
(dp1561
S'PRON'
p1562
F0.002791
sS'VERB'
p1563
F0.997208
sg6
F1e-06
s(lp1564
(g233
I22
tp1565
atp1566
a(S'vklju\xc4\x8ditev'
p1567
(dp1568
S'NOUN'
p1569
F1.0
s(lp1570
(g10
I13
tp1571
atp1572
a(S'civilne'
p1573
(dp1574
S'ADJ'
p1575
F1.0
s(lp1576
(g287
I26
tp1577
atp1578
a(S'dru\xc5\xbebe'
p1579
(dp1580
S'NOUN'
p1581
F1.0
s(lp1582
(g280
I27
tp1583
atp1584
a(S'v'
p1585
(dp1586
S'ADP'
p1587
F1.0
s(lp1588
(g464
I30
tp1589
atp1590
a(S'ta'
p1591
(dp1592
S'PRON'
p1593
F1.0
s(lp1594
(g273
I31
tp1595
atp1596
a(S'proces'
p1597
(dp1598
S'NOUN'
p1599
F1.0
s(lp1600
(g478
I32
tp1601
atp1602
a(S'prav'
p1603
(dp1604
S'ADV'
p1605
F0.069165
sS'PRT'
p1606
F0.928326
sS'VERB'
p1607
F0.002509
s(lp1608
tp1609
a(S'tako'
p1610
(dp1611
S'ADV'
p1612
F0.98684
sS'PRON'
p1613
F0.004829999999999999
sS'CONJ'
p1614
F0.00833
s(lp1615
(g240
I23
tp1616
atp1617
a(S'pomembna'
p1618
(dp1619
S'ADJ'
p1620
F1.0
s(lp1621
(g248
I24
tp1622
atp1623
a(g40
(dp1624
g40
F1.0
s(lp1625
(g40
I33
tp1626
atp1627
asS'es'
p1628
(lp1629
(S'en'
p1630
(dp1631
g6
F2e-06
sS'CONJ'
p1632
F3e-05
sS'ADP'
p1633
F0.999968
s(lp1634
(g47
I0
tp1635
atp1636
a(S'mi'
p1637
(dp1638
S'PRON'
p1639
F1.0
s(lp1640
(g61
I1
tp1641
atp1642
a(S'reuni\xc3\xb3n'
p1643
(dp1644
S'NOUN'
p1645
F1.0
s(lp1646
(g68
I2
tp1647
atp1648
a(S'con'
p1649
(dp1650
S'ADP'
p1651
F1.0
s(lp1652
(g102
I3
tp1653
atp1654
a(S'los'
p1655
(dp1656
S'PRON'
p1657
F0.0
sS'DET'
p1658
F1.0
s(lp1659
(g111
I4
tp1660
atp1661
a(S'representantes'
p1662
(dp1663
S'NOUN'
p1664
F1.0
s(lp1665
(g118
I5
tp1666
atp1667
a(S'del'
p1668
(dp1669
S'ADP'
p1670
F1.0
s(lp1671
(g134
I7
tp1672
atp1673
a(S'comit\xc3\xa9'
p1674
(dp1675
S'NOUN'
p1676
F1.0
s(lp1677
(g141
I9
tp1678
atp1679
a(S'de'
p1680
(dp1681
g6
F2.9e-05
sS'CONJ'
p1682
F0.000449
sS'ADP'
p1683
F0.999522
s(lp1684
(g125
I6
tp1685
atp1686
a(S'seguimiento'
p1687
(dp1688
S'NOUN'
p1689
F1.0
s(lp1690
(g155
I8
tp1691
atp1692
a(g38
(dp1693
g40
F1.0
s(lp1694
tp1695
a(S'encabezados'
p1696
(dp1697
S'VERB'
p1698
F1.0
s(lp1699
(g162
I10
tp1700
atp1701
a(S'por'
p1702
(dp1703
S'ADP'
p1704
F1.0
s(lp1705
(g170
I11
tp1706
atp1707
a(S'el'
p1708
(dp1709
S'PRON'
p1710
F5e-06
sS'DET'
p1711
F0.999995
s(lp1712
tp1713
a(S'se\xc3\xb1or'
p1714
(dp1715
S'NOUN'
p1716
F1.0
s(lp1717
(g179
I12
tp1718
atp1719
a(S'lol'
p1720
(dp1721
S'ADJ'
p1722
F0.477241
sS'VERB'
p1723
F0.001758
sS'NOUN'
p1724
F0.521
s(lp1725
(g10
I13
tp1726
atp1727
a(g38
(dp1728
g40
F1.0
s(lp1729
(g38
I14
tp1730
atp1731
a(S'pude'
p1732
(dp1733
S'VERB'
p1734
F1.0
s(lp1735
(g391
I17
tp1736
atp1737
a(S'decirles'
p1738
(dp1739
S'VERB'
p1740
F1.0
s(lp1741
(g211
I19
tp1742
atp1743
a(S'que'
p1744
(dp1745
g6
F0.0
sS'CONJ'
p1746
F1.0
s(lp1747
(g225
I21
tp1748
atp1749
a(S'es'
p1750
(dp1751
S'VERB'
p1752
F1.0
s(lp1753
(g233
I22
tp1754
atp1755
a(S'igualmente'
p1756
(dp1757
S'ADV'
p1758
F1.0
s(lp1759
(g240
I23
tp1760
atp1761
a(S'importante'
p1762
(dp1763
S'VERB'
p1764
F0.02779
sS'ADJ'
p1765
F0.97221
s(lp1766
(g248
I24
tp1767
atp1768
a(S'que'
p1769
(dp1770
g6
F0.0
sS'CONJ'
p1771
F1.0
s(lp1772
(g257
I25
tp1773
atp1774
a(S'la'
p1775
(dp1776
S'PRON'
p1777
F0.00027
sS'DET'
p1778
F0.99973
sg6
F0.0
sS'NOUN'
p1779
F0.0
s(lp1780
tp1781
a(S'sociedad'
p1782
(dp1783
S'NOUN'
p1784
F1.0
s(lp1785
(g280
I27
tp1786
atp1787
a(S'civil'
p1788
(dp1789
S'NOUN'
p1790
F0.015791
sS'ADJ'
p1791
F0.984209
s(lp1792
(g287
I26
tp1793
atp1794
a(S'participe'
p1795
(dp1796
S'VERB'
p1797
F1.0
s(lp1798
(g264
I29
tp1799
atp1800
a(S'en'
p1801
(dp1802
g6
F0.0
sS'CONJ'
p1803
F1e-06
sS'ADP'
p1804
F0.999999
s(lp1805
(g464
I30
tp1806
atp1807
a(S'el'
p1808
(dp1809
S'PRON'
p1810
F5e-06
sS'DET'
p1811
F0.999995
s(lp1812
(g273
I31
tp1813
atp1814
a(S'proceso'
p1815
(dp1816
S'NOUN'
p1817
F1.0
s(lp1818
(g478
I32
tp1819
atp1820
a(g40
(dp1821
g40
F1.0
s(lp1822
(g40
I33
tp1823
atp1824
as.