(dp0
S'fr'
p1
(lp2
(S'le'
p3
(dp4
S'PRON'
p5
F0.000439
sS'DET'
p6
F0.999561
s(lp7
tp8
a(S'commissaire'
p9
(dp10
S'NOUN'
p11
F1.0
s(lp12
(S'commissioner'
p13
I0
tp14
atp15
a(S'rehn'
p16
(dp17
S'NOUN'
p18
F0.291005
sS'VERB'
p19
F0.01142
sS'ADJ'
p20
F0.697575
s(lp21
(S'rehn'
p22
I1
tp23
atp24
a(S'm\xc3\xa9rite'
p25
(dp26
S'VERB'
p27
F0.870339
sS'NOUN'
p28
F0.129661
s(lp29
(S'deserves'
p30
I2
tp31
atp32
a(S'notre'
p33
(dp34
S'PRON'
p35
F1.0
s(lp36
(S'our'
p37
I3
tp38
atp39
a(S'soutien'
p40
(dp41
S'NOUN'
p42
F1.0
s(lp43
(S'support'
p44
I4
tp45
atp46
a(S','
p47
(dp48
S'.'
p49
F1.0
s(lp50
(g47
I5
tp51
atp52
a(S'et'
p53
(dp54
S'CONJ'
p55
F1.0
s(lp56
(S'and'
p57
I6
tp58
atp59
a(S'je'
p60
(dp61
S'PRON'
p62
F1.0
s(lp63
(S'i'
p64
I7
tp65
atp66
a(S'pense'
p67
(dp68
S'VERB'
p69
F1.0
s(lp70
tp71
a(S"qu'"
p72
(dp73
S'NOUN'
p74
F0.043787
sS'VERB'
p75
F0.7697689999999999
sS'ADJ'
p76
F0.186444
s(lp77
(S'think'
p78
I8
tp79
atp80
a(S'il'
p81
(dp82
S'PRON'
p83
F1.0
s(lp84
(S'it'
p85
I9
tp86
atp87
a(S'est'
p88
(dp89
S'VERB'
p90
F0.999978
sS'NOUN'
p91
F2.2e-05
s(lp92
tp93
a(S'irresponsable'
p94
(dp95
S'ADJ'
p96
F1.0
s(lp97
(S'irresponsible'
p98
I10
tp99
atp100
a(S'que'
p101
(dp102
S'ADV'
p103
F0.002793
sS'PRON'
p104
F0.002152
sS'CONJ'
p105
F0.995055
s(lp106
(S'that'
p107
I11
tp108
atp109
a(S'nos'
p110
(dp111
S'PRON'
p112
F1.0
s(lp113
(S'our'
p114
I12
tp115
atp116
a(S'homologues'
p117
(dp118
S'ADJ'
p119
F0.124544
sS'VERB'
p120
F0.0
sS'NOUN'
p121
F0.875456
s(lp122
(S'fellow'
p123
I13
tp124
atp125
a(S'du'
p126
(dp127
S'ADP'
p128
F1.0
s(lp129
(S'from'
p130
I15
tp131
atp132
a(S'groupe'
p133
(dp134
S'VERB'
p135
F0.0
sS'NOUN'
p136
F1.0
s(lp137
(S'group'
p138
I20
tp139
atp140
a(S's'
p141
(dp142
S'NOUN'
p143
F1.9e-05
sS'VERB'
p144
F0.9991140000000001
sS'ADJ'
p145
F0.000867
s(lp146
tp147
a(S'&'
p148
(dp149
S'X'
p150
F1.0
s(lp151
(g148
I18
tp152
atp153
a(S'd'
p154
(dp155
S'ADJ'
p156
F0.178653
sS'VERB'
p157
F0.6410890000000001
sS'NOUN'
p158
F0.180257
s(lp159
(g154
I19
tp160
atp161
a(S'refusent'
p162
(dp163
S'VERB'
p164
F1.0
s(lp165
tp166
a(S'de'
p167
(dp168
S'ADP'
p169
F1.0
s(lp170
(g141
I17
tp171
atp172
a(S'le'
p173
(dp174
S'PRON'
p175
F0.627519
sS'DET'
p176
F0.372481
s(lp177
(S'the'
p178
I16
tp179
atp180
a(S'lui'
p181
(dp182
S'PRON'
p183
F0.999974
sS'VERB'
p184
F2.6e-05
s(lp185
(S'refusing'
p186
I22
tp187
atp188
a(S'accorder'
p189
(dp190
S'VERB'
p191
F1.0
s(lp192
(S'support'
p193
I24
tp194
atp195
a(g49
(dp196
g49
F1.0
s(lp197
(g49
I25
tp198
atp199
asS'en'
p200
(lp201
(g13
(dp202
S'NOUN'
p203
F1.0
s(lp204
(g13
I0
tp205
atp206
a(g22
(dp207
S'ADV'
p208
F0.001466
sS'ADJ'
p209
F6.9e-05
sS'VERB'
p210
F0.00015299999999999998
sS'NOUN'
p211
F0.998312
s(lp212
(g22
I1
tp213
atp214
a(g30
(dp215
S'VERB'
p216
F1.0
s(lp217
(g30
I2
tp218
atp219
a(g37
(dp220
S'PRON'
p221
F1.0
s(lp222
(g37
I3
tp223
atp224
a(g44
(dp225
S'VERB'
p226
F0.00010999999999999999
sS'NOUN'
p227
F0.999891
s(lp228
(g44
I4
tp229
atp230
a(g47
(dp231
g49
F1.0
s(lp232
(g47
I5
tp233
atp234
a(g57
(dp235
S'CONJ'
p236
F0.99992
sS'NOUN'
p237
F8e-05
s(lp238
(g57
I6
tp239
atp240
a(g64
(dp241
g150
F0.001139
sS'NOUN'
p242
F0.998861
s(lp243
(g64
I7
tp244
atp245
a(g78
(dp246
S'VERB'
p247
F0.999014
sS'NOUN'
p248
F0.000986
s(lp249
(g78
I8
tp250
atp251
a(g85
(dp252
S'PRON'
p253
F1.0
s(lp254
(g85
I9
tp255
atp256
a(g98
(dp257
S'ADJ'
p258
F1.0
s(lp259
(g98
I10
tp260
atp261
a(g107
(dp262
S'ADV'
p263
F0.000214
sS'DET'
p264
F0.0004930000000000001
sS'ADP'
p265
F0.999293
s(lp266
(g107
I11
tp267
atp268
a(g114
(dp269
S'PRON'
p270
F1.0
s(lp271
(g114
I12
tp272
atp273
a(g123
(dp274
S'NOUN'
p275
F0.289759
sS'VERB'
p276
F1e-06
sS'ADJ'
p277
F0.71024
s(lp278
(g123
I13
tp279
atp280
a(S'members'
p281
(dp282
S'NOUN'
p283
F1.0
s(lp284
(g281
I14
tp285
atp286
a(g130
(dp287
S'ADP'
p288
F1.0
s(lp289
(g130
I15
tp290
atp291
a(g178
(dp292
S'NOUN'
p293
F4e-06
sS'DET'
p294
F0.999996
s(lp295
(g178
I16
tp296
atp297
a(g141
(dp298
S'ADV'
p299
F0.00024
sS'ADJ'
p300
F0.063135
sS'VERB'
p301
F0.0024460000000000003
sS'NOUN'
p302
F0.934179
s(lp303
(g141
I17
tp304
atp305
a(g148
(dp306
S'CONJ'
p307
F1.0
s(lp308
(g148
I18
tp309
atp310
a(g154
(dp311
g150
F0.081664
sS'NOUN'
p312
F0.918337
s(lp313
(g154
I19
tp314
atp315
a(g138
(dp316
S'VERB'
p317
F1.1e-05
sS'NOUN'
p318
F0.999988
s(lp319
(g138
I20
tp320
atp321
a(S'are'
p322
(dp323
S'VERB'
p324
F0.999967
sS'NOUN'
p325
F3.3e-05
s(lp326
(g322
I21
tp327
atp328
a(g186
(dp329
S'VERB'
p330
F0.999183
sS'NOUN'
p331
F0.000817
s(lp332
(g186
I22
tp333
atp334
a(S'that'
p335
(dp336
S'ADV'
p337
F0.000505
sS'DET'
p338
F0.6857610000000001
sS'ADP'
p339
F0.313733
s(lp340
(g335
I23
tp341
atp342
a(g193
(dp343
S'VERB'
p344
F0.001062
sS'NOUN'
p345
F0.998937
s(lp346
(g193
I24
tp347
atp348
a(g49
(dp349
g49
F1.0
s(lp350
(g49
I25
tp351
atp352
asS'nl'
p353
(lp354
(S'commissaris'
p355
(dp356
S'NOUN'
p357
F1.0
s(lp358
(g13
I0
tp359
atp360
a(S'rehn'
p361
(dp362
S'ADJ'
p363
F0.158992
sS'NOUN'
p364
F0.841008
s(lp365
(g22
I1
tp366
atp367
a(S'verdient'
p368
(dp369
S'VERB'
p370
F1.0
s(lp371
(g30
I2
tp372
atp373
a(S'onze'
p374
(dp375
S'PRON'
p376
F1.0
s(lp377
(g37
I3
tp378
atp379
a(S'steun'
p380
(dp381
S'VERB'
p382
F0.0
sS'NOUN'
p383
F1.0
s(lp384
(g44
I4
tp385
atp386
a(S'en'
p387
(dp388
S'CONJ'
p389
F1.0
s(lp390
(g57
I6
tp391
atp392
a(S'ik'
p393
(dp394
S'PRON'
p395
F0.999972
sS'NOUN'
p396
F2.8e-05
s(lp397
(g64
I7
tp398
atp399
a(S'vind'
p400
(dp401
S'VERB'
p402
F1.0
s(lp403
(g78
I8
tp404
atp405
a(S'het'
p406
(dp407
S'PRON'
p408
F0.192971
sS'DET'
p409
F0.807028
s(lp410
(g85
I9
tp411
atp412
a(S'onverantwoordelijk'
p413
(dp414
S'ADJ'
p415
F1.0
s(lp416
(g98
I10
tp417
atp418
a(S'dat'
p419
(dp420
S'PRON'
p421
F0.000552
sS'CONJ'
p422
F0.999447
s(lp423
(g107
I11
tp424
atp425
a(S'onze'
p426
(dp427
S'PRON'
p428
F1.0
s(lp429
(g114
I12
tp430
atp431
a(S'socialistische'
p432
(dp433
S'NOUN'
p434
F0.009748
sS'ADJ'
p435
F0.990252
s(lp436
(g138
I20
tp437
atp438
a(S'collega'
p439
(dp440
S'NOUN'
p441
F1.0
s(lp442
tp443
a(S"'"
p444
(dp445
g49
F1.0
s(lp446
(g123
I13
tp447
atp448
a(g141
(dp449
S'NOUN'
p450
F1.0
s(lp451
(g281
I14
tp452
atp453
a(S'die'
p454
(dp455
S'PRON'
p456
F1.0
s(lp457
(g335
I23
tp458
atp459
a(S'steun'
p460
(dp461
S'VERB'
p462
F0.001017
sS'NOUN'
p463
F0.998983
s(lp464
tp465
a(S'weigeren'
p466
(dp467
S'VERB'
p468
F0.997825
sS'NOUN'
p469
F0.002174
s(lp470
tp471
a(S'te'
p472
(dp473
S'PRT'
p474
F1.0
s(lp475
(g186
I22
tp476
atp477
a(S'geven'
p478
(dp479
S'VERB'
p480
F1.0
sS'NOUN'
p481
F0.0
s(lp482
(g193
I24
tp483
atp484
a(g49
(dp485
g49
F1.0
s(lp486
(g49
I25
tp487
atp488
asS'de'
p489
(lp490
(S'kommissar'
p491
(dp492
S'ADJ'
p493
F0.745935
s(lp494
(g13
I0
tp495
atp496
a(S'rehn'
p497
(dp498
S'NOUN'
p499
F0.240958
sS'ADJ'
p500
F0.509113
s(lp501
(g22
I1
tp502
atp503
a(S'verdient'
p504
(dp505
S'VERB'
p506
F0.853302
sS'ADJ'
p507
F0.109815
s(lp508
(g30
I2
tp509
atp510
a(S'unsere'
p511
(dp512
S'PRON'
p513
F1.0
s(lp514
(g37
I3
tp515
atp516
a(S'unterst\xc3\xbctzung'
p517
(dp518
S'ADJ'
p519
F0.001325
sS'NOUN'
p520
F0.998617
s(lp521
(g44
I4
tp522
atp523
a(S'und'
p524
(dp525
S'CONJ'
p526
F1.0
s(lp527
(g57
I6
tp528
atp529
a(S'ich'
p530
(dp531
S'PRON'
p532
F1.0
s(lp533
(g64
I7
tp534
atp535
a(S'finde'
p536
(dp537
S'VERB'
p538
F1.0
s(lp539
(g78
I8
tp540
atp541
a(S'es'
p542
(dp543
S'PRON'
p544
F1.0
s(lp545
(g85
I9
tp546
atp547
a(S'unverantwortlich'
p548
(dp549
S'ADJ'
p550
F1.0
s(lp551
(g98
I10
tp552
atp553
a(g47
(dp554
g49
F1.0
s(lp555
tp556
a(S'dass'
p557
(dp558
S'CONJ'
p559
F1.0
s(lp560
(g107
I11
tp561
atp562
a(S'unsere'
p563
(dp564
S'PRON'
p565
F1.0
s(lp566
(g114
I12
tp567
atp568
a(S'kolleginnen'
p569
(dp570
S'ADJ'
p571
F1.0
s(lp572
tp573
a(S'und'
p574
(dp575
S'CONJ'
p576
F1.0
s(lp577
(g123
I13
tp578
atp579
a(S'kollegen'
p580
(dp581
S'VERB'
p582
F0.744948
sS'NOUN'
p583
F0.244615
s(lp584
(g281
I14
tp585
atp586
a(S'der'
p587
(dp588
S'PRON'
p589
F0.000143
sS'DET'
p590
F0.999853
s(lp591
(g178
I16
tp592
atp593
a(g141
(dp594
S'NOUN'
p595
F1.0
s(lp596
tp597
a(g148
(dp598
S'CONJ'
p599
F1.0
s(lp600
(g148
I18
tp601
atp602
a(S'd-fraktion'
p603
(dp604
S'NOUN'
p605
F1.0
s(lp606
(g154
I19
tp607
atp608
a(S'diese'
p609
(dp610
S'PRON'
p611
F1.0
s(lp612
(g335
I23
tp613
atp614
a(S'unterst\xc3\xbctzung'
p615
(dp616
S'ADJ'
p617
F0.000231
sS'NOUN'
p618
F0.999729
s(lp619
(g193
I24
tp620
atp621
a(S'verweigern'
p622
(dp623
S'VERB'
p624
F1.0
s(lp625
(g186
I22
tp626
atp627
a(g49
(dp628
g49
F1.0
s(lp629
(g49
I25
tp630
atp631
asS'it'
p632
(lp633
(S'il'
p634
(dp635
S'DET'
p636
F1.0
s(lp637
tp638
a(S'commissario'
p639
(dp640
S'VERB'
p641
F0.002203
sS'NOUN'
p642
F0.997797
s(lp643
(g13
I0
tp644
atp645
a(S'rehn'
p646
(dp647
S'ADJ'
p648
F0.017467
sS'VERB'
p649
F0.021673
sS'NOUN'
p650
F0.96086
s(lp651
(g22
I1
tp652
atp653
a(S'merita'
p654
(dp655
S'VERB'
p656
F1.0
s(lp657
(g30
I2
tp658
atp659
a(S'il'
p660
(dp661
S'DET'
p662
F1.0
s(lp663
tp664
a(S'nostro'
p665
(dp666
S'PRON'
p667
F1.0
s(lp668
(g37
I3
tp669
atp670
a(S'sostegno'
p671
(dp672
S'NOUN'
p673
F1.0
s(lp674
(g44
I4
tp675
atp676
a(g47
(dp677
g49
F1.0
s(lp678
(g47
I5
tp679
atp680
a(S'e'
p681
(dp682
S'CONJ'
p683
F1.0
s(lp684
(g57
I6
tp685
atp686
a(S'giudico'
p687
(dp688
S'VERB'
p689
F1.0
s(lp690
(g78
I8
tp691
atp692
a(S'irresponsabile'
p693
(dp694
S'NOUN'
p695
F0.082933
sS'ADJ'
p696
F0.917067
s(lp697
(g98
I10
tp698
atp699
a(S'che'
p700
(dp701
S'PRON'
p702
F0.927852
sS'CONJ'
p703
F0.0716
sS'ADJ'
p704
F0.000548
s(lp705
(g107
I11
tp706
atp707
a(g64
(dp708
S'DET'
p709
F1.0
s(lp710
tp711
a(S'colleghi'
p712
(dp713
S'VERB'
p714
F0.0005340000000000001
sS'NOUN'
p715
F0.999466
s(lp716
(g281
I14
tp717
atp718
a(S'del'
p719
(dp720
S'DEF'
p721
F0.001272
sS'ADP'
p722
F0.998728
s(lp723
(g141
I17
tp724
atp725
a(S'gruppo'
p726
(dp727
S'NOUN'
p728
F1.0
s(lp729
(g138
I20
tp730
atp731
a(g141
(dp732
S'NOUN'
p733
F0.00817
sS'VERB'
p734
F0.5040969999999999
sS'ADJ'
p735
F0.487733
s(lp736
tp737
a(g148
(dp738
g150
F0.172511
sg49
F0.827489
s(lp739
(g148
I18
tp740
atp741
a(g154
(dp742
g150
F1.0
s(lp743
(g154
I19
tp744
atp745
a(S'neghino'
p746
(dp747
S'VERB'
p748
F1.0
s(lp749
(g186
I22
tp750
atp751
a(S'tale'
p752
(dp753
S'PRON'
p754
F0.98346
sS'CONJ'
p755
F0.015244
sS'NOUN'
p756
F0.001296
s(lp757
(g335
I23
tp758
atp759
a(S'sostegno'
p760
(dp761
S'NOUN'
p762
F1.0
s(lp763
(g193
I24
tp764
atp765
a(g49
(dp766
g49
F1.0
s(lp767
(g49
I25
tp768
atp769
asS'sk'
p770
(lp771
(S'p\xc3\xa1n'
p772
(dp773
S'NOUN'
p774
F1.0
s(lp775
tp776
a(S'komis\xc3\xa1r'
p777
(dp778
S'NOUN'
p779
F1.0
s(lp780
(g13
I0
tp781
atp782
a(S'rehn'
p783
(dp784
S'ADJ'
p785
F0.000141
sg150
F0.001954
sS'VERB'
p786
F0.018122
sS'NOUN'
p787
F0.979784
s(lp788
(g22
I1
tp789
atp790
a(S'si'
p791
(dp792
S'PRT'
p793
F0.999818
sS'VERB'
p794
F0.00014
sg150
F4.2e-05
s(lp795
tp796
a(S'zasl\xc3\xba\xc5\xbei'
p797
(dp798
S'VERB'
p799
F1.0
s(lp800
(g30
I2
tp801
atp802
a(S'na\xc5\xa1u'
p803
(dp804
S'PRON'
p805
F1.0
s(lp806
(g37
I3
tp807
atp808
a(S'podporu'
p809
(dp810
S'NOUN'
p811
F1.0
s(lp812
(g44
I4
tp813
atp814
a(S'a'
p815
(dp816
g150
F0.000376
sS'CONJ'
p817
F0.999601
sS'NOUN'
p818
F4.9999999999999996e-06
sS'ADP'
p819
F0.0
sS'PRT'
p820
F1.8e-05
s(lp821
(g57
I6
tp822
atp823
a(S'mysl\xc3\xadm'
p824
(dp825
S'VERB'
p826
F1.0
s(lp827
(g78
I8
tp828
atp829
a(S'si'
p830
(dp831
S'PRT'
p832
F0.999092
sS'VERB'
p833
F0.000907
sg150
F1e-06
s(lp834
tp835
a(g47
(dp836
g49
F1.0
s(lp837
tp838
a(S'\xc5\xbee'
p839
(dp840
g150
F0.001181
sS'CONJ'
p841
F0.998819
s(lp842
(g78
I8
tp843
atp844
a(S'je'
p845
(dp846
S'PRON'
p847
F0.000127
sS'VERB'
p848
F0.999852
sg150
F2.1000000000000002e-05
s(lp849
(g85
I9
tp850
atp851
a(S'nezodpovedn\xc3\xa9'
p852
(dp853
S'ADJ'
p854
F1.0
s(lp855
(g98
I10
tp856
atp857
a(g47
(dp858
g49
F1.0
s(lp859
tp860
a(S'\xc5\xbee'
p861
(dp862
g150
F0.000429
sS'CONJ'
p863
F0.99957
s(lp864
(g107
I11
tp865
atp866
a(S'kolegovia'
p867
(dp868
S'NOUN'
p869
F1.0
s(lp870
(g123
I13
tp871
atp872
a(S'poslanci'
p873
(dp874
S'NOUN'
p875
F1.0
s(lp876
(g281
I14
tp877
atp878
a(S'zo'
p879
(dp880
g150
F0.0023120000000000003
sS'ADP'
p881
F0.997688
s(lp882
(g130
I15
tp883
atp884
a(S'skupiny'
p885
(dp886
S'NOUN'
p887
F1.0
s(lp888
(g138
I20
tp889
atp890
a(g141
(dp891
g150
F0.283636
sS'CONJ'
p892
F3.7e-05
sS'NOUN'
p893
F5.8e-05
sS'ADP'
p894
F0.716236
sS'PRT'
p895
F3.4e-05
s(lp896
(g141
I17
tp897
atp898
a(g148
(dp899
g150
F0.777563
sS'NUM'
p900
F0.069099
sg49
F0.153337
s(lp901
(g148
I18
tp902
atp903
a(g154
(dp904
g150
F0.9055
sS'NOUN'
p905
F0.0945
s(lp906
(g154
I19
tp907
atp908
a(S't\xc3\xbato'
p909
(dp910
S'PRON'
p911
F1.0
s(lp912
(g335
I23
tp913
atp914
a(S'podporu'
p915
(dp916
S'NOUN'
p917
F1.0
s(lp918
(g193
I24
tp919
atp920
a(S'odmietaj\xc3\xba'
p921
(dp922
S'VERB'
p923
F1.0
s(lp924
(g186
I22
tp925
atp926
a(g49
(dp927
g49
F1.0
s(lp928
(g49
I25
tp929
atp930
asS'pl'
p931
(lp932
(S'komisarz'
p933
(dp934
S'NOUN'
p935
F1.0
s(lp936
(g13
I0
tp937
atp938
a(S'rehn'
p939
(dp940
S'ADJ'
p941
F0.007758
sS'VERB'
p942
F0.000527
sS'NOUN'
p943
F0.9916370000000002
sg150
F7.8e-05
s(lp944
(g22
I1
tp945
atp946
a(S'zas\xc5\x82uguje'
p947
(dp948
S'VERB'
p949
F1.0
s(lp950
tp951
a(S'na'
p952
(dp953
S'PRT'
p954
F3.1e-05
sS'VERB'
p955
F1e-06
sS'NOUN'
p956
F2.1e-05
sS'ADP'
p957
F0.999943
sg150
F4e-06
s(lp958
(g30
I2
tp959
atp960
a(S'nasze'
p961
(dp962
g150
F1e-06
sS'ADJ'
p963
F0.999997
s(lp964
(g37
I3
tp965
atp966
a(S'poparcie'
p967
(dp968
S'VERB'
p969
F0.024084
sS'NOUN'
p970
F0.975916
s(lp971
(g44
I4
tp972
atp973
a(g64
(dp974
S'PRT'
p975
F0.023704
sS'CONJ'
p976
F0.976244
sS'NOUN'
p977
F8e-06
sg150
F2.1e-05
sS'PRON'
p978
F2.4e-05
s(lp979
(g57
I6
tp980
atp981
a(S'my\xc5\x9bl\xc4\x99'
p982
(dp983
S'VERB'
p984
F1.0
s(lp985
tp986
a(g47
(dp987
g150
F0.0
sg49
F1.0
s(lp988
(g47
I5
tp989
atp990
a(S'\xc5\xbce'
p991
(dp992
S'PRT'
p993
F0.0051909999999999994
sS'CONJ'
p994
F0.9948089999999999
s(lp995
(g78
I8
tp996
atp997
a(S'nieodpowiedzialne'
p998
(dp999
S'ADJ'
p1000
F1.0
s(lp1001
(g98
I10
tp1002
atp1003
a(S'jest'
p1004
(dp1005
S'VERB'
p1006
F1.0
s(lp1007
(g322
I21
tp1008
atp1009
a(S'to'
p1010
(dp1011
S'NOUN'
p1012
F0.7805820000000001
sS'ADP'
p1013
F1.4e-05
sS'PRT'
p1014
F0.071432
sg150
F2e-06
sS'CONJ'
p1015
F0.011364
sS'ADJ'
p1016
F0.136606
s(lp1017
tp1018
a(g47
(dp1019
g150
F0.0
sg49
F1.0
s(lp1020
tp1021
a(S'\xc5\xbce'
p1022
(dp1023
S'PRT'
p1024
F0.000172
sS'CONJ'
p1025
F0.999828
s(lp1026
(g107
I11
tp1027
atp1028
a(S'nasi'
p1029
(dp1030
S'NOUN'
p1031
F0.00393
sS'ADJ'
p1032
F0.99607
s(lp1033
(g114
I12
tp1034
atp1035
a(S'koledzy'
p1036
(dp1037
S'NOUN'
p1038
F1.0
s(lp1039
(g123
I13
tp1040
atp1041
a(S'pos\xc5\x82owie'
p1042
(dp1043
S'NOUN'
p1044
F1.0
s(lp1045
(g281
I14
tp1046
atp1047
a(S'z'
p1048
(dp1049
S'PRT'
p1050
F3e-06
sS'VERB'
p1051
F0.0
sS'NOUN'
p1052
F2e-06
sS'ADP'
p1053
F0.999995
sg150
F0.0
s(lp1054
(g130
I15
tp1055
atp1056
a(S'grupy'
p1057
(dp1058
S'NOUN'
p1059
F1.0
s(lp1060
(g138
I20
tp1061
atp1062
a(g141
(dp1063
S'ADV'
p1064
F0.131344
sg150
F0.747121
sS'NOUN'
p1065
F0.121536
s(lp1066
(g141
I17
tp1067
atp1068
a(g148
(dp1069
S'CONJ'
p1070
F0.056813
sg49
F0.943187
s(lp1071
(g148
I18
tp1072
atp1073
a(g154
(dp1074
S'ADJ'
p1075
F0.047441
sg150
F0.538078
sS'NOUN'
p1076
F0.414482
s(lp1077
(g154
I19
tp1078
atp1079
a(S'odmawiaj\xc4\x85'
p1080
(dp1081
S'VERB'
p1082
F1.0
s(lp1083
(g186
I22
tp1084
atp1085
a(S'tego'
p1086
(dp1087
S'NOUN'
p1088
F0.061059
sS'ADJ'
p1089
F0.9374190000000001
sS'PRT'
p1090
F0.000322
sg150
F0.001201
s(lp1091
(g335
I23
tp1092
atp1093
a(S'poparcia'
p1094
(dp1095
S'VERB'
p1096
F0.011544
sS'NOUN'
p1097
F0.988456
s(lp1098
(g193
I24
tp1099
atp1100
a(g49
(dp1101
g49
F1.0
s(lp1102
(g49
I25
tp1103
atp1104
asS'sl'
p1105
(lp1106
(S'komisar'
p1107
(dp1108
S'NOUN'
p1109
F1.0
s(lp1110
(g13
I0
tp1111
atp1112
a(S'rehn'
p1113
(dp1114
S'ADV'
p1115
F0.001304
sS'ADJ'
p1116
F0.056244
sS'VERB'
p1117
F0.005889
sS'NOUN'
p1118
F0.9351420000000001
sg150
F0.001418
s(lp1119
(g22
I1
tp1120
atp1121
a(S'si'
p1122
(dp1123
S'PRON'
p1124
F0.997645
sS'VERB'
p1125
F0.002355
s(lp1126
tp1127
a(S'zaslu\xc5\xbei'
p1128
(dp1129
S'VERB'
p1130
F1.0
s(lp1131
(g30
I2
tp1132
atp1133
a(S'na\xc5\xa1o'
p1134
(dp1135
S'PRON'
p1136
F1.0
s(lp1137
(g37
I3
tp1138
atp1139
a(S'podporo'
p1140
(dp1141
S'NOUN'
p1142
F1.0
s(lp1143
(g44
I4
tp1144
atp1145
a(S'in'
p1146
(dp1147
S'ADV'
p1148
F9.7e-05
sg150
F2e-06
sS'CONJ'
p1149
F0.999901
sS'NOUN'
p1150
F1e-06
s(lp1151
(g57
I6
tp1152
atp1153
a(S'mislim'
p1154
(dp1155
S'VERB'
p1156
F0.942351
sS'NOUN'
p1157
F0.057649
s(lp1158
tp1159
a(g47
(dp1160
g49
F1.0
s(lp1161
(g47
I5
tp1162
atp1163
a(S'da'
p1164
(dp1165
S'PRT'
p1166
F4e-06
sS'CONJ'
p1167
F0.999979
sS'VERB'
p1168
F1.7e-05
sg150
F1e-06
s(lp1169
(g78
I8
tp1170
atp1171
a(S'je'
p1172
(dp1173
S'PRON'
p1174
F0.00059
sS'VERB'
p1175
F0.999409
sg150
F0.0
s(lp1176
(g85
I9
tp1177
atp1178
a(S'neodgovorno'
p1179
(dp1180
S'ADJ'
p1181
F1.0
s(lp1182
(g98
I10
tp1183
atp1184
a(g47
(dp1185
g49
F1.0
s(lp1186
tp1187
a(S'da'
p1188
(dp1189
S'PRT'
p1190
F0.000168
sS'CONJ'
p1191
F0.999768
sS'VERB'
p1192
F6.2e-05
sg150
F2e-06
s(lp1193
(g107
I11
tp1194
atp1195
a(S'na\xc5\xa1i'
p1196
(dp1197
S'PRON'
p1198
F1.0
s(lp1199
(g114
I12
tp1200
atp1201
a(S'poslanci'
p1202
(dp1203
S'NOUN'
p1204
F1.0
s(lp1205
(g281
I14
tp1206
atp1207
a(S'iz'
p1208
(dp1209
g150
F0.000171
sS'ADP'
p1210
F0.999829
s(lp1211
(g130
I15
tp1212
atp1213
a(S'skupine'
p1214
(dp1215
S'NOUN'
p1216
F1.0
s(lp1217
(g138
I20
tp1218
atp1219
a(g141
(dp1220
S'VERB'
p1221
F0.000614
sS'NOUN'
p1222
F0.0496
sS'ADP'
p1223
F0.949785
s(lp1224
(g141
I17
tp1225
atp1226
a(g148
(dp1227
g49
F1.0
s(lp1228
(g148
I18
tp1229
atp1230
a(g154
(dp1231
S'NOUN'
p1232
F1.0
s(lp1233
(g154
I19
tp1234
atp1235
a(S'zavra\xc4\x8dajo'
p1236
(dp1237
S'VERB'
p1238
F1.0
s(lp1239
(g186
I22
tp1240
atp1241
a(S'to'
p1242
(dp1243
S'PRON'
p1244
F0.999931
sg150
F6.9e-05
s(lp1245
(g335
I23
tp1246
atp1247
a(S'podporo'
p1248
(dp1249
S'NOUN'
p1250
F1.0
s(lp1251
(g193
I24
tp1252
atp1253
a(g49
(dp1254
g49
F1.0
s(lp1255
(g49
I25
tp1256
atp1257
asS'es'
p1258
(lp1259
(S'el'
p1260
(dp1261
S'PRON'
p1262
F1e-05
sS'DET'
p1263
F0.99999
s(lp1264
tp1265
a(S'comisario'
p1266
(dp1267
S'NOUN'
p1268
F1.0
s(lp1269
(g13
I0
tp1270
atp1271
a(S'rehn'
p1272
(dp1273
S'ADV'
p1274
F0.117123
sS'NOUN'
p1275
F0.106111
sS'VERB'
p1276
F0.0035889999999999997
sS'ADJ'
p1277
F0.773178
s(lp1278
(g22
I1
tp1279
atp1280
a(S'merece'
p1281
(dp1282
S'VERB'
p1283
F1.0
s(lp1284
(g30
I2
tp1285
atp1286
a(S'nuestro'
p1287
(dp1288
S'PRON'
p1289
F0.626988
sS'ADJ'
p1290
F0.373012
s(lp1291
(g37
I3
tp1292
atp1293
a(S'apoyo'
p1294
(dp1295
S'NOUN'
p1296
F1.0
s(lp1297
(g44
I4
tp1298
atp1299
a(S'y'
p1300
(dp1301
g150
F0.001476
sS'CONJ'
p1302
F0.998524
s(lp1303
(g57
I6
tp1304
atp1305
a(S'creo'
p1306
(dp1307
S'VERB'
p1308
F1.0
s(lp1309
(g78
I8
tp1310
atp1311
a(S'que'
p1312
(dp1313
g150
F0.0
sS'CONJ'
p1314
F1.0
s(lp1315
tp1316
a(S'es'
p1317
(dp1318
S'VERB'
p1319
F1.0
s(lp1320
(g85
I9
tp1321
atp1322
a(S'irresponsable'
p1323
(dp1324
S'ADJ'
p1325
F1.0
s(lp1326
(g98
I10
tp1327
atp1328
a(S'que'
p1329
(dp1330
g150
F0.0
sS'CONJ'
p1331
F1.0
s(lp1332
(g107
I11
tp1333
atp1334
a(S'nuestros'
p1335
(dp1336
S'PRON'
p1337
F1.0
s(lp1338
(g114
I12
tp1339
atp1340
a(S'colegas'
p1341
(dp1342
S'NOUN'
p1343
F1.0
s(lp1344
(g123
I13
tp1345
atp1346
a(S'diputados'
p1347
(dp1348
S'VERB'
p1349
F0.835415
sS'NOUN'
p1350
F0.164585
s(lp1351
(g281
I14
tp1352
atp1353
a(S'del'
p1354
(dp1355
S'ADP'
p1356
F1.0
s(lp1357
(g130
I15
tp1358
atp1359
a(S'grupo'
p1360
(dp1361
S'NOUN'
p1362
F1.0
s(lp1363
(g138
I20
tp1364
atp1365
a(g141
(dp1366
g150
F0.9999809999999999
sS'DET'
p1367
F1.9e-05
sS'NOUN'
p1368
F0.0
s(lp1369
(g141
I17
tp1370
atp1371
a(g148
(dp1372
g150
F1.0
s(lp1373
(g148
I18
tp1374
atp1375
a(g154
(dp1376
g150
F1.0
s(lp1377
(g154
I19
tp1378
atp1379
a(S'se'
p1380
(dp1381
S'PRON'
p1382
F0.999999
sS'VERB'
p1383
F1e-06
s(lp1384
(g322
I21
tp1385
atp1386
a(S'nieguen'
p1387
(dp1388
S'VERB'
p1389
F1.0
s(lp1390
tp1391
a(g815
(dp1392
g150
F0.005241
sS'CONJ'
p1393
F0.051733
sS'ADP'
p1394
F0.943025
s(lp1395
tp1396
a(S'darle'
p1397
(dp1398
S'VERB'
p1399
F1.0
s(lp1400
(g186
I22
tp1401
atp1402
a(S'su'
p1403
(dp1404
S'PRON'
p1405
F1.0
s(lp1406
(g335
I23
tp1407
atp1408
a(S'apoyo'
p1409
(dp1410
S'NOUN'
p1411
F1.0
s(lp1412
(g193
I24
tp1413
atp1414
a(g49
(dp1415
g49
F1.0
s(lp1416
(g49
I25
tp1417
atp1418
as.