(dp0
S'fr'
p1
(lp2
(S'ils'
p3
(dp4
S'PRON'
p5
F1.0
s(lp6
(S'are'
p7
I1
tp8
atp9
a(S'pr\xc3\xa9voient'
p10
(dp11
S'VERB'
p12
F1.0
s(lp13
(S'included'
p14
I2
tp15
atp16
a(S'des'
p17
(dp18
S'DET'
p19
F0.000293
sS'ADP'
p20
F0.999707
s(lp21
(S'such'
p22
I3
tp23
atp24
a(S'objectifs'
p25
(dp26
S'ADJ'
p27
F0.399695
sS'NOUN'
p28
F0.600305
s(lp29
(S'targets'
p30
I0
tp31
atp32
a(S','
p33
(dp34
S'.'
p35
F1.0
s(lp36
(g33
I5
tp37
atp38
a(S'comme'
p39
(dp40
S'ADV'
p41
F0.667202
sS'CONJ'
p42
F0.332798
s(lp43
(S'as'
p44
I4
tp45
atp46
a(S'par'
p47
(dp48
S'NOUN'
p49
F0.0
sS'ADP'
p50
F1.0
s(lp51
tp52
a(S'exemple'
p53
(dp54
S'NOUN'
p55
F1.0
s(lp56
(S'example'
p57
I7
tp58
atp59
a(S'pour'
p60
(dp61
S'CONJ'
p62
F0.162139
sS'ADP'
p63
F0.837861
s(lp64
(S'for'
p65
I9
tp66
atp67
a(S'les'
p68
(dp69
S'PRON'
p70
F0.000128
sS'DET'
p71
F0.999869
sS'ADP'
p72
F3e-06
s(lp73
tp74
a(S'biocarburants'
p75
(dp76
S'ADJ'
p77
F0.001333
sS'NOUN'
p78
F0.998667
s(lp79
(S'biofuels'
p80
I10
tp81
atp82
a(g33
(dp83
g35
F1.0
s(lp84
(g33
I11
tp85
atp86
a(S'qui'
p87
(dp88
S'PRON'
p89
F1.0
s(lp90
(S'which'
p91
I12
tp92
atp93
a(S'd\xc3\xa9truisent'
p94
(dp95
S'VERB'
p96
F1.0
s(lp97
(S'destroy'
p98
I13
tp99
atp100
a(S'des'
p101
(dp102
S'DET'
p103
F0.000244
sS'ADP'
p104
F0.999756
s(lp105
(S'huge'
p106
I14
tp107
atp108
a(S'for\xc3\xaats'
p109
(dp110
S'NOUN'
p111
F1.0
s(lp112
tp113
a(S'enti\xc3\xa8res'
p114
(dp115
S'ADJ'
p116
F1.0
s(lp117
(S'forests'
p118
I15
tp119
atp120
a(g35
(dp121
g35
F1.0
s(lp122
(g35
I16
tp123
atp124
asS'en'
p125
(lp126
(g30
(dp127
S'VERB'
p128
F1e-06
sS'NOUN'
p129
F0.999999
s(lp130
(g30
I0
tp131
atp132
a(g7
(dp133
S'VERB'
p134
F0.999997
sS'NOUN'
p135
F3e-06
s(lp136
(g7
I1
tp137
atp138
a(g14
(dp139
S'VERB'
p140
F0.969054
sS'ADJ'
p141
F0.030946
s(lp142
(g14
I2
tp143
atp144
a(g22
(dp145
S'ADV'
p146
F0.004738
sS'DET'
p147
F0.000663
sS'ADJ'
p148
F0.991713
sS'ADP'
p149
F0.002886
s(lp150
(g22
I3
tp151
atp152
a(g44
(dp153
S'ADV'
p154
F0.391995
sS'ADP'
p155
F0.608005
s(lp156
(g44
I4
tp157
atp158
a(g33
(dp159
g35
F1.0
s(lp160
(g33
I5
tp161
atp162
a(S'for'
p163
(dp164
S'ADP'
p165
F1.0
s(lp166
(g163
I6
tp167
atp168
a(g57
(dp169
S'NOUN'
p170
F1.0
s(lp171
(g57
I7
tp172
atp173
a(g33
(dp174
g35
F1.0
s(lp175
(g33
I8
tp176
atp177
a(g65
(dp178
S'ADP'
p179
F1.0
s(lp180
(g65
I9
tp181
atp182
a(g80
(dp183
S'ADJ'
p184
F0.000328
sS'VERB'
p185
F2.1e-05
sS'NOUN'
p186
F0.999651
s(lp187
(g80
I10
tp188
atp189
a(g33
(dp190
g35
F1.0
s(lp191
(g33
I11
tp192
atp193
a(g91
(dp194
S'DET'
p195
F1.0
s(lp196
(g91
I12
tp197
atp198
a(g98
(dp199
S'VERB'
p200
F1.0
s(lp201
(g98
I13
tp202
atp203
a(g106
(dp204
S'ADJ'
p205
F1.0
s(lp206
(g106
I14
tp207
atp208
a(g118
(dp209
S'VERB'
p210
F4.2e-05
sS'NOUN'
p211
F0.999958
s(lp212
(g118
I15
tp213
atp214
a(g35
(dp215
g35
F1.0
s(lp216
(g35
I16
tp217
atp218
asS'nl'
p219
(lp220
(S'er'
p221
(dp222
S'ADV'
p223
F1.0
s(lp224
(g7
I1
tp225
atp226
a(S'worden'
p227
(dp228
S'VERB'
p229
F0.999993
sS'NOUN'
p230
F7e-06
s(lp231
(g7
I1
tp232
atp233
a(S'streefdoelen'
p234
(dp235
S'NOUN'
p236
F1.0
s(lp237
(g30
I0
tp238
atp239
a(S'vastgesteld'
p240
(dp241
S'VERB'
p242
F1.0
s(lp243
(g14
I2
tp244
atp245
a(S'voor'
p246
(dp247
S'ADV'
p248
F0.003808
sS'CONJ'
p249
F1.7e-05
sS'NOUN'
p250
F1.6e-05
sS'ADP'
p251
F0.996159
s(lp252
(g163
I6
tp253
atp254
a(S'bijvoorbeeld'
p255
(dp256
S'ADV'
p257
F1.0
s(lp258
(g57
I7
tp259
atp260
a(S'biobrandstof'
p261
(dp262
S'NOUN'
p263
F1.0
s(lp264
(g80
I10
tp265
atp266
a(g33
(dp267
g35
F1.0
s(lp268
(g33
I11
tp269
atp270
a(S'waarvoor'
p271
(dp272
S'ADV'
p273
F1.0
s(lp274
(g91
I12
tp275
atp276
a(S'uitgestrekte'
p277
(dp278
S'NOUN'
p279
F3.8e-05
sS'VERB'
p280
F0.023953
sS'ADJ'
p281
F0.976009
s(lp282
(g106
I14
tp283
atp284
a(S'bosarealen'
p285
(dp286
S'NOUN'
p287
F1.0
s(lp288
(g118
I15
tp289
atp290
a(S'moeten'
p291
(dp292
S'VERB'
p293
F0.999964
sS'NOUN'
p294
F3.6e-05
s(lp295
tp296
a(S'worden'
p297
(dp298
S'VERB'
p299
F1.0
sS'NOUN'
p300
F0.0
s(lp301
(g7
I1
tp302
atp303
a(S'verwoest'
p304
(dp305
S'VERB'
p306
F1.0
s(lp307
(g98
I13
tp308
atp309
a(g35
(dp310
g35
F1.0
s(lp311
(g35
I16
tp312
atp313
asS'de'
p314
(lp315
(S'gleich'
p316
(dp317
S'ADJ'
p318
F0.726334
sS'ADP'
p319
F0.268613
s(lp320
tp321
a(S'mehrere'
p322
(dp323
S'PRON'
p324
F1.0
s(lp325
(g14
I2
tp326
atp327
a(S'der'
p328
(dp329
S'PRON'
p330
F0.009485
sS'DET'
p331
F0.987265
s(lp332
tp333
a(S'zielvorgaben'
p334
(dp335
S'ADJ'
p336
F0.134387
sS'NOUN'
p337
F0.810323
s(lp338
(g30
I0
tp339
atp340
a(g33
(dp341
g35
F1.0
s(lp342
(g33
I5
tp343
atp344
a(S'beispielsweise'
p345
(dp346
S'ADV'
p347
F0.999971
sS'ADJ'
p348
F2.9e-05
s(lp349
(g57
I7
tp350
atp351
a(S'f\xc3\xbcr'
p352
(dp353
S'ADP'
p354
F1.0
s(lp355
(g65
I9
tp356
atp357
a(S'biokraftstoffe'
p358
(dp359
S'ADJ'
p360
F0.151603
sS'NOUN'
p361
F0.7173
s(lp362
(g80
I10
tp363
atp364
a(g33
(dp365
g35
F1.0
s(lp366
(g33
I11
tp367
atp368
a(S'erfordern'
p369
(dp370
S'VERB'
p371
F1.0
s(lp372
tp373
a(S'die'
p374
(dp375
S'PRON'
p376
F0.000682
sS'DET'
p377
F0.999317
s(lp378
(g91
I12
tp379
atp380
a(S'abholzung'
p381
(dp382
S'ADJ'
p383
F0.016166
sS'NOUN'
p384
F0.983374
s(lp385
(g98
I13
tp386
atp387
a(S'immenser'
p388
(dp389
S'ADJ'
p390
F1.0
s(lp391
(g106
I14
tp392
atp393
a(S'waldbest\xc3\xa4nde'
p394
(dp395
S'VERB'
p396
F0.004423
sS'NOUN'
p397
F0.993534
s(lp398
(g118
I15
tp399
atp400
a(g35
(dp401
g35
F1.0
s(lp402
(g35
I16
tp403
atp404
asS'it'
p405
(lp406
(S'essi'
p407
(dp408
S'PRON'
p409
F1.0
s(lp410
(g7
I1
tp411
atp412
a(S'includono'
p413
(dp414
S'VERB'
p415
F1.0
s(lp416
(g14
I2
tp417
atp418
a(S'obiettivi'
p419
(dp420
S'ADJ'
p421
F0.238763
sS'VERB'
p422
F0.011616
sS'NOUN'
p423
F0.749621
s(lp424
tp425
a(S'come'
p426
(dp427
S'PRON'
p428
F0.00044
sS'CONJ'
p429
F0.801266
sS'NOUN'
p430
F0.002656
sS'ADP'
p431
F0.195639
s(lp432
(g44
I4
tp433
atp434
a(g33
(dp435
g35
F1.0
s(lp436
(g33
I5
tp437
atp438
a(S'ad'
p439
(dp440
S'ADP'
p441
F1.0
s(lp442
tp443
a(S'esempio'
p444
(dp445
S'NOUN'
p446
F1.0
s(lp447
(g57
I7
tp448
atp449
a(g33
(dp450
g35
F1.0
s(lp451
(g33
I8
tp452
atp453
a(S'quelli'
p454
(dp455
S'PRON'
p456
F1.0
s(lp457
(g30
I0
tp458
atp459
a(S'per'
p460
(dp461
S'CONJ'
p462
F0.008989
sS'ADP'
p463
F0.991011
s(lp464
(g65
I9
tp465
atp466
a(S'i'
p467
(dp468
S'DET'
p469
F1.0
s(lp470
tp471
a(S'biocarburanti'
p472
(dp473
S'NOUN'
p474
F1.0
s(lp475
(g80
I10
tp476
atp477
a(g33
(dp478
g35
F1.0
s(lp479
(g33
I11
tp480
atp481
a(S'che'
p482
(dp483
S'PRON'
p484
F0.972388
sS'CONJ'
p485
F0.027515
sS'ADJ'
p486
F9.7e-05
s(lp487
(g91
I12
tp488
atp489
a(S'distruggono'
p490
(dp491
S'VERB'
p492
F1.0
s(lp493
(g98
I13
tp494
atp495
a(S'grandi'
p496
(dp497
S'NOUN'
p498
F0.000534
sS'ADJ'
p499
F0.999466
s(lp500
(g106
I14
tp501
atp502
a(S'estensioni'
p503
(dp504
S'NOUN'
p505
F1.0
s(lp506
tp507
a(S'di'
p508
(dp509
S'CONJ'
p510
F4e-06
sS'ADP'
p511
F0.999996
s(lp512
tp513
a(S'foreste'
p514
(dp515
S'NOUN'
p516
F1.0
s(lp517
(g118
I15
tp518
atp519
a(g35
(dp520
g35
F1.0
s(lp521
(g35
I16
tp522
atp523
asS'sk'
p524
(lp525
(S's\xc3\xba'
p526
(dp527
S'VERB'
p528
F1.0
s(lp529
(g7
I1
tp530
atp531
a(S'do'
p532
(dp533
S'X'
p534
F0.000194
sS'ADP'
p535
F0.999783
sS'PRON'
p536
F2.3e-05
s(lp537
(g14
I2
tp538
atp539
a(S'nich'
p540
(dp541
S'PRON'
p542
F1.0
s(lp543
(g14
I2
tp544
atp545
a(S'zahrnut\xc3\xa9'
p546
(dp547
S'VERB'
p548
F1.0
s(lp549
tp550
a(S'aj'
p551
(dp552
g534
F0.648363
sS'CONJ'
p553
F0.351637
s(lp554
(g14
I2
tp555
atp556
a(S'ciele'
p557
(dp558
S'NOUN'
p559
F1.0
s(lp560
(g30
I0
tp561
atp562
a(g33
(dp563
g35
F1.0
s(lp564
(g33
I5
tp565
atp566
a(S'ako'
p567
(dp568
S'PRON'
p569
F0.034765
sS'CONJ'
p570
F0.96502
sg534
F0.000215
s(lp571
(g44
I4
tp572
atp573
a(S'napr\xc3\xadklad'
p574
(dp575
g534
F1.0
s(lp576
(g57
I7
tp577
atp578
a(S'pre'
p579
(dp580
g534
F0.000146
sS'ADP'
p581
F0.999854
s(lp582
(g65
I9
tp583
atp584
a(S'bionaftu'
p585
(dp586
S'NOUN'
p587
F1.0
s(lp588
(g80
I10
tp589
atp590
a(g33
(dp591
g35
F1.0
s(lp592
(g33
I11
tp593
atp594
a(S'ktor\xc3\xa1'
p595
(dp596
S'PRON'
p597
F1.0
s(lp598
(g91
I12
tp599
atp600
a(S'ni\xc4\x8d\xc3\xad'
p601
(dp602
S'PRON'
p603
F0.015668
sS'VERB'
p604
F0.984332
s(lp605
(g98
I13
tp606
atp607
a(S've\xc4\xbek\xc3\xa9'
p608
(dp609
S'ADJ'
p610
F1.0
s(lp611
(g106
I14
tp612
atp613
a(S'plochy'
p614
(dp615
S'NOUN'
p616
F1.0
s(lp617
tp618
a(S'lesov'
p619
(dp620
S'NOUN'
p621
F1.0
s(lp622
(g118
I15
tp623
atp624
a(g35
(dp625
g35
F1.0
s(lp626
(g35
I16
tp627
atp628
asS'pl'
p629
(lp630
(S'ujmowane'
p631
(dp632
S'ADV'
p633
F0.002382
sS'NOUN'
p634
F0.087385
sS'VERB'
p635
F0.5035920000000002
sS'ADJ'
p636
F0.40663499999999997
s(lp637
tp638
a(S's\xc4\x85'
p639
(dp640
S'VERB'
p641
F1.0
s(lp642
(g7
I1
tp643
atp644
a(S'tu'
p645
(dp646
S'ADV'
p647
F0.997184
sS'PRT'
p648
F0.002816
s(lp649
(g14
I2
tp650
atp651
a(S'cele'
p652
(dp653
S'NOUN'
p654
F0.999999
s(lp655
(g30
I0
tp656
atp657
a(g33
(dp658
g534
F0.0
sg35
F1.0
s(lp659
tp660
a(S'takie'
p661
(dp662
S'ADJ'
p663
F1.0
s(lp664
(g22
I3
tp665
atp666
a(S'jak'
p667
(dp668
S'ADV'
p669
F0.249942
sS'PRT'
p670
F0.000151
sS'CONJ'
p671
F0.030199
sS'ADP'
p672
F0.7197
sS'PRON'
p673
F7e-06
s(lp674
(g44
I4
tp675
atp676
a(S'np.'
p677
(dp678
g534
F1.0
s(lp679
(g57
I7
tp680
atp681
a(S'biopaliwa'
p682
(dp683
S'NOUN'
p684
F1.0
s(lp685
(g80
I10
tp686
atp687
a(g33
(dp688
g534
F0.0
sg35
F1.0
s(lp689
(g33
I11
tp690
atp691
a(S'kt\xc3\xb3re'
p692
(dp693
S'ADJ'
p694
F0.9999999999999999
s(lp695
(g91
I12
tp696
atp697
a(S'powoduj\xc4\x85'
p698
(dp699
S'VERB'
p700
F1.0
s(lp701
tp702
a(S'niszczenie'
p703
(dp704
S'VERB'
p705
F1.0
s(lp706
(g98
I13
tp707
atp708
a(S'ogromnych'
p709
(dp710
S'ADJ'
p711
F1.0
s(lp712
(g106
I14
tp713
atp714
a(S'po\xc5\x82aci'
p715
(dp716
S'ADV'
p717
F3.3e-05
sS'ADJ'
p718
F4.7999999999999994e-05
sS'VERB'
p719
F0.004745999999999999
sS'NOUN'
p720
F0.9951739999999999
s(lp721
tp722
a(S'las\xc3\xb3w'
p723
(dp724
S'NOUN'
p725
F1.0
s(lp726
(g118
I15
tp727
atp728
a(g35
(dp729
g35
F1.0
s(lp730
(g35
I16
tp731
atp732
asS'sl'
p733
(lp734
(S'vsebujejo'
p735
(dp736
S'VERB'
p737
F1.0
s(lp738
(g14
I2
tp739
atp740
a(S'tak\xc5\xa1ne'
p741
(dp742
S'PRON'
p743
F1.0
s(lp744
(g22
I3
tp745
atp746
a(S'cilje'
p747
(dp748
S'NOUN'
p749
F1.0
s(lp750
(g30
I0
tp751
atp752
a(g33
(dp753
g35
F1.0
s(lp754
(g33
I5
tp755
atp756
a(S'kot'
p757
(dp758
S'CONJ'
p759
F0.999993
sS'NOUN'
p760
F8.000000000000001e-06
s(lp761
(g44
I4
tp762
atp763
a(S'so'
p764
(dp765
g534
F9e-06
sS'VERB'
p766
F0.999991
s(lp767
(g7
I1
tp768
atp769
a(S'na'
p770
(dp771
S'ADP'
p772
F1.0
s(lp773
tp774
a(S'primer'
p775
(dp776
S'NOUN'
p777
F1.0
s(lp778
(g57
I7
tp779
atp780
a(S'biogoriva'
p781
(dp782
S'ADV'
p783
F0.003036
sS'ADJ'
p784
F0.012631
sS'VERB'
p785
F0.059589
sS'NOUN'
p786
F0.9247470000000002
s(lp787
(g80
I10
tp788
atp789
a(g33
(dp790
g35
F1.0
s(lp791
(g33
I11
tp792
atp793
a(S'zaradi'
p794
(dp795
S'ADP'
p796
F1.0
s(lp797
(g163
I6
tp798
atp799
a(S'katerih'
p800
(dp801
S'PRON'
p802
F0.9999999999999999
s(lp803
(g91
I12
tp804
atp805
a(S'se'
p806
(dp807
S'PRON'
p808
F0.999988
sg534
F1.2e-05
s(lp809
tp810
a(S'uni\xc4\x8dujejo'
p811
(dp812
S'ADV'
p813
F0.000376
sS'ADJ'
p814
F9e-06
sS'VERB'
p815
F0.999083
sS'NOUN'
p816
F0.0005310000000000002
s(lp817
(g98
I13
tp818
atp819
a(S'veliki'
p820
(dp821
S'ADJ'
p822
F1.0
s(lp823
(g106
I14
tp824
atp825
a(S'gozdovi'
p826
(dp827
S'NOUN'
p828
F1.0
s(lp829
(g118
I15
tp830
atp831
a(g35
(dp832
g35
F1.0
s(lp833
(g35
I16
tp834
atp835
asS'es'
p836
(lp837
(S'se'
p838
(dp839
S'PRON'
p840
F1.0
sS'VERB'
p841
F0.0
s(lp842
(g7
I1
tp843
atp844
a(S'incluyen'
p845
(dp846
S'VERB'
p847
F1.0
s(lp848
(g14
I2
tp849
atp850
a(S'objetivos'
p851
(dp852
S'ADJ'
p853
F0.21017
sS'NOUN'
p854
F0.78983
s(lp855
(g30
I0
tp856
atp857
a(S'como'
p858
(dp859
S'ADV'
p860
F0.783558
sS'CONJ'
p861
F0.216442
s(lp862
(g44
I4
tp863
atp864
a(g33
(dp865
g35
F1.0
s(lp866
(g33
I5
tp867
atp868
a(S'por'
p869
(dp870
S'ADV'
p871
F1.0
s(lp872
(g163
I6
tp873
atp874
a(S'ejemplo'
p875
(dp876
S'ADV'
p877
F1.0
s(lp878
(g57
I7
tp879
atp880
a(g33
(dp881
g35
F1.0
s(lp882
(g33
I8
tp883
atp884
a(S'los'
p885
(dp886
S'PRON'
p887
F7e-06
sS'DET'
p888
F0.999993
s(lp889
tp890
a(S'biocombustibles'
p891
(dp892
S'NOUN'
p893
F0.03971
sS'ADJ'
p894
F0.96029
s(lp895
(g80
I10
tp896
atp897
a(g33
(dp898
g35
F1.0
s(lp899
(g33
I11
tp900
atp901
a(S'que'
p902
(dp903
g534
F4e-06
sS'CONJ'
p904
F0.999996
s(lp905
(g91
I12
tp906
atp907
a(S'destruyen'
p908
(dp909
S'VERB'
p910
F1.0
s(lp911
(g98
I13
tp912
atp913
a(S'enormes'
p914
(dp915
S'ADJ'
p916
F1.0
s(lp917
(g106
I14
tp918
atp919
a(S'bosques'
p920
(dp921
S'NOUN'
p922
F1.0
s(lp923
(g118
I15
tp924
atp925
a(g35
(dp926
g35
F1.0
s(lp927
(g35
I16
tp928
atp929
as.