(dp0
S'fr'
p1
(lp2
(S'par'
p3
(dp4
S'NOUN'
p5
F7.6e-05
sS'ADP'
p6
F0.999924
s(lp7
(S'child'
p8
I0
tp9
atp10
a(S'\xc3\xa9crit'
p11
(dp12
S'VERB'
p13
F0.035327000000000004
sS'NOUN'
p14
F0.964674
s(lp15
tp16
a(S'.'
p17
(dp18
g17
F1.0
s(lp19
tp20
a(S'-'
p21
(dp22
g17
F1.0
s(lp23
tp24
a(S'('
p25
(dp26
g17
F1.0
s(lp27
(S'pornography'
p28
I1
tp29
atp30
a(S'ro'
p31
(dp32
S'ADJ'
p33
F0.13429
sS'VERB'
p34
F0.638201
sS'NOUN'
p35
F0.227509
s(lp36
tp37
a(S')'
p38
(dp39
g17
F1.0
s(lp40
tp41
a(S'la'
p42
(dp43
S'PRON'
p44
F6.9e-05
sS'DET'
p45
F0.999931
sS'NOUN'
p46
F0.0
s(lp47
(g8
I0
tp48
atp49
a(S'p\xc3\xa9dopornographie'
p50
(dp51
S'NOUN'
p52
F1.0
s(lp53
(g28
I1
tp54
atp55
a(S'est'
p56
(dp57
S'VERB'
p58
F0.999886
sS'NOUN'
p59
F0.000114
s(lp60
(S'is'
p61
I2
tp62
atp63
a(S'un'
p64
(dp65
S'NOUN'
p66
F0.00027
sS'NUM'
p67
F0.004347
sS'DET'
p68
F0.995383
s(lp69
(S'a'
p70
I3
tp71
atp72
a(S'sujet'
p73
(dp74
S'ADJ'
p75
F0.058391
sS'NOUN'
p76
F0.941609
s(lp77
(S'subject'
p78
I5
tp79
atp80
a(S'd\xc3\xa9licat'
p81
(dp82
S'ADJ'
p83
F1.0
s(lp84
(S'delicate'
p85
I4
tp86
atp87
a(S','
p88
(dp89
g17
F1.0
s(lp90
tp91
a(S'qui'
p92
(dp93
S'PRON'
p94
F1.0
s(lp95
(S'which'
p96
I6
tp97
atp98
a(S'doit'
p99
(dp100
S'VERB'
p101
F0.999985
sS'NOUN'
p102
F1.5e-05
s(lp103
(S'should'
p104
I7
tp105
atp106
a(S'rester'
p107
(dp108
S'VERB'
p109
F1.0
s(lp110
(S'always'
p111
I8
tp112
atp113
a(S'une'
p114
(dp115
S'NOUN'
p116
F5e-06
sS'NUM'
p117
F0.006837
sS'DET'
p118
F0.993158
s(lp119
(g70
I10
tp120
atp121
a(S'priorit\xc3\xa9'
p122
(dp123
S'NOUN'
p124
F1.0
s(lp125
(S'focus'
p126
I12
tp127
atp128
a(S'pour'
p129
(dp130
S'CONJ'
p131
F0.162139
sS'ADP'
p132
F0.837861
s(lp133
(S'for'
p134
I13
tp135
atp136
a(S'les'
p137
(dp138
S'PRON'
p139
F0.000127
sS'DET'
p140
F0.999869
sS'ADP'
p141
F3e-06
s(lp142
tp143
a(S'autorit\xc3\xa9s'
p144
(dp145
S'NOUN'
p146
F1.0
s(lp147
(S'authorities'
p148
I17
tp149
atp150
a(S'nationales'
p151
(dp152
S'NOUN'
p153
F0.009609
sS'ADJ'
p154
F0.990391
s(lp155
(S'national'
p156
I16
tp157
atp158
a(S'et'
p159
(dp160
S'CONJ'
p161
F1.0
s(lp162
(S'and'
p163
I15
tp164
atp165
a(S'europ\xc3\xa9ennes'
p166
(dp167
S'NOUN'
p168
F0.037364
sS'ADJ'
p169
F0.962636
s(lp170
(S'european'
p171
I14
tp172
atp173
a(g17
(dp174
g17
F1.0
s(lp175
(g17
I18
tp176
atp177
asS'en'
p178
(lp179
(g8
(dp180
S'NOUN'
p181
F1.0
s(lp182
(g8
I0
tp183
atp184
a(g28
(dp185
S'NOUN'
p186
F1.0
s(lp187
(g28
I1
tp188
atp189
a(g61
(dp190
S'VERB'
p191
F1.0
s(lp192
(g61
I2
tp193
atp194
a(g70
(dp195
S'NOUN'
p196
F0.0
sS'DET'
p197
F1.0
s(lp198
(g70
I3
tp199
atp200
a(g85
(dp201
S'NOUN'
p202
F0.011137
sS'ADJ'
p203
F0.988863
s(lp204
(g85
I4
tp205
atp206
a(g78
(dp207
S'ADJ'
p208
F0.0001
sS'VERB'
p209
F2.8e-05
sS'NOUN'
p210
F0.999872
s(lp211
(g78
I5
tp212
atp213
a(g96
(dp214
S'DET'
p215
F1.0
s(lp216
(g96
I6
tp217
atp218
a(g104
(dp219
S'VERB'
p220
F1.0
s(lp221
(g104
I7
tp222
atp223
a(g111
(dp224
S'ADV'
p225
F1.0
s(lp226
(g111
I8
tp227
atp228
a(S'be'
p229
(dp230
S'VERB'
p231
F1.0
s(lp232
(g229
I9
tp233
atp234
a(g70
(dp235
S'NOUN'
p236
F0.0
sS'DET'
p237
F1.0
s(lp238
(g70
I10
tp239
atp240
a(S'main'
p241
(dp242
S'NOUN'
p243
F0.004141
sS'ADJ'
p244
F0.995859
s(lp245
(g241
I11
tp246
atp247
a(g126
(dp248
S'VERB'
p249
F0.001071
sS'NOUN'
p250
F0.998929
s(lp251
(g126
I12
tp252
atp253
a(g134
(dp254
S'ADP'
p255
F1.0
s(lp256
(g134
I13
tp257
atp258
a(g171
(dp259
S'NOUN'
p260
F0.407059
sS'VERB'
p261
F7e-06
sS'ADJ'
p262
F0.592935
s(lp263
(g171
I14
tp264
atp265
a(g163
(dp266
S'CONJ'
p267
F0.999998
sS'NOUN'
p268
F2e-06
s(lp269
(g163
I15
tp270
atp271
a(g156
(dp272
S'NOUN'
p273
F8.9e-05
sS'ADJ'
p274
F0.999911
s(lp275
(g156
I16
tp276
atp277
a(g148
(dp278
S'NOUN'
p279
F1.0
s(lp280
(g148
I17
tp281
atp282
a(g17
(dp283
g17
F1.0
s(lp284
(g17
I18
tp285
atp286
asS'nl'
p287
(lp288
(S'schriftelijk'
p289
(dp290
S'ADJ'
p291
F1.0
s(lp292
(g8
I0
tp293
atp294
a(g17
(dp295
g17
F1.0
s(lp296
tp297
a(g21
(dp298
g17
F1.0
s(lp299
tp300
a(g25
(dp301
g17
F1.0
s(lp302
(g28
I1
tp303
atp304
a(S'ro'
p305
(dp306
S'ADJ'
p307
F0.06221
sS'NOUN'
p308
F0.93779
s(lp309
(g28
I1
tp310
atp311
a(g38
(dp312
g17
F1.0
s(lp313
tp314
a(S'kinderpornografie'
p315
(dp316
S'NOUN'
p317
F1.0
s(lp318
(g28
I1
tp319
atp320
a(S'is'
p321
(dp322
S'VERB'
p323
F1.0
s(lp324
(g61
I2
tp325
atp326
a(S'een'
p327
(dp328
S'ADJ'
p329
F2e-06
sS'PRON'
p330
F3.6e-05
sS'NUM'
p331
F1e-06
sS'DET'
p332
F0.999962
s(lp333
(g70
I3
tp334
atp335
a(S'gevoelig'
p336
(dp337
S'ADJ'
p338
F1.0
s(lp339
(g85
I4
tp340
atp341
a(S'onderwerp'
p342
(dp343
S'VERB'
p344
F0.019873
sS'NOUN'
p345
F0.980127
s(lp346
(g78
I5
tp347
atp348
a(S'dat'
p349
(dp350
S'PRON'
p351
F0.279483
sS'CONJ'
p352
F0.720518
s(lp353
(g96
I6
tp354
atp355
a(S'voortdurend'
p356
(dp357
S'VERB'
p358
F0.154364
sS'ADJ'
p359
F0.845636
s(lp360
(g111
I8
tp361
atp362
a(S'onder'
p363
(dp364
S'ADV'
p365
F1e-05
sS'ADP'
p366
F0.99999
s(lp367
tp368
a(S'de'
p369
(dp370
S'DET'
p371
F1.0
s(lp372
(g70
I10
tp373
atp374
a(S'aandacht'
p375
(dp376
S'NOUN'
p377
F1.0
s(lp378
(g126
I12
tp379
atp380
a(S'van'
p381
(dp382
S'ADP'
p383
F1.0
s(lp384
(g134
I13
tp385
atp386
a(S'de'
p387
(dp388
S'DET'
p389
F1.0
s(lp390
tp391
a(S'europese'
p392
(dp393
S'NOUN'
p394
F1.0
s(lp395
(g171
I14
tp396
atp397
a(S'en'
p398
(dp399
S'CONJ'
p400
F1.0
s(lp401
(g163
I15
tp402
atp403
a(S'nationale'
p404
(dp405
S'NOUN'
p406
F7e-06
sS'ADJ'
p407
F0.999993
s(lp408
(g156
I16
tp409
atp410
a(S'autoriteiten'
p411
(dp412
S'NOUN'
p413
F1.0
s(lp414
(g148
I17
tp415
atp416
a(S'moet'
p417
(dp418
S'VERB'
p419
F1.0
s(lp420
(g104
I7
tp421
atp422
a(S'blijven'
p423
(dp424
S'VERB'
p425
F0.999942
sS'NOUN'
p426
F5.8e-05
s(lp427
(g229
I9
tp428
atp429
a(g17
(dp430
g17
F1.0
s(lp431
(g17
I18
tp432
atp433
asS'de'
p434
(lp435
(S'kinderpornographie'
p436
(dp437
S'NOUN'
p438
F0.411569
sS'ADJ'
p439
F0.576286
s(lp440
(g28
I1
tp441
atp442
a(S'ist'
p443
(dp444
S'VERB'
p445
F1.0
s(lp446
(g61
I2
tp447
atp448
a(S'ein'
p449
(dp450
S'NUM'
p451
F0.000172
sS'DET'
p452
F0.999828
s(lp453
(g70
I3
tp454
atp455
a(S'heikles'
p456
(dp457
S'ADJ'
p458
F1.0
s(lp459
(g85
I4
tp460
atp461
a(S'thema'
p462
(dp463
S'ADJ'
p464
F0.000163
sS'NOUN'
p465
F0.999754
s(lp466
(g78
I5
tp467
atp468
a(g88
(dp469
g17
F1.0
s(lp470
tp471
a(S'das'
p472
(dp473
S'PRON'
p474
F0.9649310000000001
s(lp475
(g96
I6
tp476
atp477
a(S'stets'
p478
(dp479
S'ADV'
p480
F1.0
s(lp481
(g111
I8
tp482
atp483
a(S'besonderer'
p484
(dp485
S'ADJ'
p486
F1.0
s(lp487
(g28
I1
tp488
atp489
a(S'beobachtung'
p490
(dp491
S'ADJ'
p492
F0.002916
sS'NOUN'
p493
F0.997012
s(lp494
tp495
a(S'vonseiten'
p496
(dp497
S'ADV'
p498
F0.847583
sS'NOUN'
p499
F0.10954
s(lp500
(g28
I1
tp501
atp502
a(S'der'
p503
(dp504
S'PRON'
p505
F0.000241
sS'DET'
p506
F0.999756
s(lp507
(g134
I13
tp508
atp509
a(S'europ\xc3\xa4ischen'
p510
(dp511
S'ADJ'
p512
F1.0
s(lp513
(g171
I14
tp514
atp515
a(S'und'
p516
(dp517
S'CONJ'
p518
F1.0
s(lp519
(g163
I15
tp520
atp521
a(S'nationalen'
p522
(dp523
S'ADJ'
p524
F1.0
s(lp525
(g156
I16
tp526
atp527
a(S'beh\xc3\xb6rden'
p528
(dp529
S'ADJ'
p530
F0.002485
sS'NOUN'
p531
F0.995782
s(lp532
(g148
I17
tp533
atp534
a(S'bedarf'
p535
(dp536
S'VERB'
p537
F1.0
s(lp538
(g229
I9
tp539
atp540
a(g17
(dp541
g17
F1.0
s(lp542
(g17
I18
tp543
atp544
asS'it'
p545
(lp546
(S'per'
p547
(dp548
S'CONJ'
p549
F0.030106
sS'ADP'
p550
F0.969894
s(lp551
(g8
I0
tp552
atp553
a(S'iscritto'
p554
(dp555
S'NOUN'
p556
F0.123774
sS'VERB'
p557
F0.030022
sS'ADJ'
p558
F0.846204
s(lp559
(g28
I1
tp560
atp561
a(g17
(dp562
g17
F1.0
s(lp563
tp564
a(g21
(dp565
S'X'
p566
F1.8e-05
sg17
F0.999982
s(lp567
tp568
a(g25
(dp569
g17
F1.0
s(lp570
(g28
I1
tp571
atp572
a(S'ro'
p573
(dp574
S'NOUN'
p575
F0.003774
sS'VERB'
p576
F0.984512
sS'ADJ'
p577
F0.011715
s(lp578
(g28
I1
tp579
atp580
a(g38
(dp581
g17
F1.0
s(lp582
(g28
I1
tp583
atp584
a(S'la'
p585
(dp586
S'PRON'
p587
F0.000686
sS'DET'
p588
F0.999314
s(lp589
(g28
I1
tp590
atp591
a(S'pornografia'
p592
(dp593
S'NOUN'
p594
F1.0
s(lp595
tp596
a(S'infantile'
p597
(dp598
S'ADJ'
p599
F1.0
s(lp600
(g28
I1
tp601
atp602
a(S'\xc3\xa8'
p603
(dp604
S'VERB'
p605
F1.0
s(lp606
(g61
I2
tp607
atp608
a(S'un'
p609
(dp610
S'PRON'
p611
F0.001169
sS'DEF'
p612
F0.998831
s(lp613
(g70
I3
tp614
atp615
a(S'tema'
p616
(dp617
S'VERB'
p618
F2.2e-05
sS'NOUN'
p619
F0.999978
s(lp620
(g78
I5
tp621
atp622
a(S'delicatissimo'
p623
(dp624
S'ADJ'
p625
F1.0
s(lp626
(g85
I4
tp627
atp628
a(g88
(dp629
g17
F1.0
s(lp630
tp631
a(S'che'
p632
(dp633
S'PRON'
p634
F0.984116
sS'CONJ'
p635
F0.015871
sS'ADJ'
p636
F1.3e-05
s(lp637
(g96
I6
tp638
atp639
a(S'dovrebbe'
p640
(dp641
S'VERB'
p642
F1.0
s(lp643
(g104
I7
tp644
atp645
a(S'costituire'
p646
(dp647
S'VERB'
p648
F1.0
s(lp649
(g229
I9
tp650
atp651
a(S'una'
p652
(dp653
S'PRON'
p654
F5e-05
sS'DEF'
p655
F0.99995
s(lp656
(g70
I10
tp657
atp658
a(S'costante'
p659
(dp660
S'NOUN'
p661
F0.02304
sS'VERB'
p662
F1.3e-05
sS'ADJ'
p663
F0.976947
s(lp664
(g241
I11
tp665
atp666
a(S'preoccupazione'
p667
(dp668
S'NOUN'
p669
F1.0
s(lp670
(g126
I12
tp671
atp672
a(S'per'
p673
(dp674
S'CONJ'
p675
F0.052955
sS'ADP'
p676
F0.947045
s(lp677
(g134
I13
tp678
atp679
a(S'le'
p680
(dp681
S'PRON'
p682
F7.6e-05
sS'DET'
p683
F0.999924
s(lp684
tp685
a(S'autorit\xc3\xa0'
p686
(dp687
S'NOUN'
p688
F1.0
s(lp689
(g148
I17
tp690
atp691
a(S'europee'
p692
(dp693
S'NOUN'
p694
F0.036354
sS'ADJ'
p695
F0.963646
s(lp696
(g171
I14
tp697
atp698
a(S'e'
p699
(dp700
S'CONJ'
p701
F1.0
s(lp702
(g163
I15
tp703
atp704
a(S'nazionali'
p705
(dp706
S'NOUN'
p707
F0.083244
sS'ADJ'
p708
F0.916756
s(lp709
(g156
I16
tp710
atp711
a(g17
(dp712
g17
F1.0
s(lp713
(g17
I18
tp714
atp715
asS'sk'
p716
(lp717
(S'detsk\xc3\xa1'
p718
(dp719
S'NOUN'
p720
F0.008962
sS'ADJ'
p721
F0.991038
s(lp722
(g8
I0
tp723
atp724
a(S'pornografia'
p725
(dp726
S'NOUN'
p727
F1.0
s(lp728
(g28
I1
tp729
atp730
a(S'je'
p731
(dp732
S'PRON'
p733
F3.7e-05
sS'VERB'
p734
F0.999925
sg566
F3.8e-05
s(lp735
(g61
I2
tp736
atp737
a(S'citlivou'
p738
(dp739
S'ADJ'
p740
F1.0
s(lp741
(g85
I4
tp742
atp743
a(S't\xc3\xa9mou'
p744
(dp745
S'NOUN'
p746
F1.0
s(lp747
(g78
I5
tp748
atp749
a(g88
(dp750
g17
F1.0
s(lp751
tp752
a(S'ktor\xc3\xa1'
p753
(dp754
S'PRON'
p755
F1.0
s(lp756
(g96
I6
tp757
atp758
a(S'by'
p759
(dp760
S'PRT'
p761
F0.999996
sg566
F4e-06
s(lp762
tp763
a(S'mala'
p764
(dp765
S'ADV'
p766
F0.000176
sS'VERB'
p767
F0.999824
s(lp768
(g104
I7
tp769
atp770
a(S'by\xc5\xa5'
p771
(dp772
S'VERB'
p773
F1.0
s(lp774
(g229
I9
tp775
atp776
a(S'v\xc5\xbedy'
p777
(dp778
S'PRON'
p779
F1.0
s(lp780
(g111
I8
tp781
atp782
a(S'v'
p783
(dp784
g566
F0.000495
sS'ADP'
p785
F0.999505
s(lp786
(g70
I10
tp787
atp788
a(S'centre'
p789
(dp790
S'NOUN'
p791
F1.0
s(lp792
(g241
I11
tp793
atp794
a(S'pozornosti'
p795
(dp796
S'NOUN'
p797
F1.0
s(lp798
(g126
I12
tp799
atp800
a(S'eur\xc3\xb3pskych'
p801
(dp802
S'ADJ'
p803
F1.0
s(lp804
(g171
I14
tp805
atp806
a(g70
(dp807
g566
F0.00047799999999999996
sS'CONJ'
p808
F0.998379
sS'NOUN'
p809
F0.001055
sS'ADP'
p810
F7.2e-05
sS'PRT'
p811
F1.6e-05
s(lp812
(g163
I15
tp813
atp814
a(S'vn\xc3\xbatro\xc5\xa1t\xc3\xa1tnych'
p815
(dp816
S'ADJ'
p817
F1.0
s(lp818
(g156
I16
tp819
atp820
a(S'org\xc3\xa1nov'
p821
(dp822
S'NOUN'
p823
F1.0
s(lp824
(g148
I17
tp825
atp826
a(g17
(dp827
g17
F1.0
s(lp828
(g17
I18
tp829
atp830
asS'pl'
p831
(lp832
(S'pornografia'
p833
(dp834
S'NOUN'
p835
F1.0
s(lp836
tp837
a(S'dzieci\xc4\x99ca'
p838
(dp839
S'ADJ'
p840
F1.0
s(lp841
(g28
I1
tp842
atp843
a(S'jest'
p844
(dp845
S'VERB'
p846
F1.0
s(lp847
(g61
I2
tp848
atp849
a(S'delikatnym'
p850
(dp851
S'ADJ'
p852
F1.0000010000000001
s(lp853
(g85
I4
tp854
atp855
a(S'tematem'
p856
(dp857
S'NOUN'
p858
F1.0
s(lp859
(g78
I5
tp860
atp861
a(g88
(dp862
g566
F0.0
sg17
F1.0
s(lp863
tp864
a(S'kt\xc3\xb3ry'
p865
(dp866
S'ADJ'
p867
F1.0
s(lp868
(g96
I6
tp869
atp870
a(S'powinien'
p871
(dp872
S'VERB'
p873
F1.0
s(lp874
(g104
I7
tp875
atp876
a(S'zawsze'
p877
(dp878
S'ADV'
p879
F1.0
s(lp880
(g111
I8
tp881
atp882
a(S'znajdowa\xc4\x87'
p883
(dp884
S'VERB'
p885
F1.0
s(lp886
(g229
I9
tp887
atp888
a(S'si\xc4\x99'
p889
(dp890
S'PRT'
p891
F1.0
s(lp892
tp893
a(S'w'
p894
(dp895
S'ADJ'
p896
F0.0
sg566
F0.0
sS'NOUN'
p897
F5e-06
sS'ADP'
p898
F0.9999939999999999
s(lp899
(g70
I10
tp900
atp901
a(S'centrum'
p902
(dp903
S'NOUN'
p904
F0.999999
s(lp905
tp906
a(S'zainteresowania'
p907
(dp908
S'VERB'
p909
F0.005001
sS'NOUN'
p910
F0.994999
s(lp911
(g126
I12
tp912
atp913
a(S'przedstawicieli'
p914
(dp915
S'NOUN'
p916
F1.0
s(lp917
(g241
I11
tp918
atp919
a(S'w\xc5\x82adz'
p920
(dp921
S'NOUN'
p922
F1.0
s(lp923
(g148
I17
tp924
atp925
a(S'europejskich'
p926
(dp927
S'ADJ'
p928
F1.0
s(lp929
(g171
I14
tp930
atp931
a(S'i'
p932
(dp933
S'PRT'
p934
F0.001695
sS'CONJ'
p935
F0.998049
sS'NOUN'
p936
F3.4e-05
sg566
F5e-06
sS'PRON'
p937
F0.00021799999999999999
s(lp938
(g163
I15
tp939
atp940
a(S'krajowych'
p941
(dp942
S'ADJ'
p943
F1.0
s(lp944
(g156
I16
tp945
atp946
a(g17
(dp947
g17
F1.0
s(lp948
(g17
I18
tp949
atp950
asS'sl'
p951
(lp952
(g783
(dp953
S'ADP'
p954
F1.0
s(lp955
(g70
I10
tp956
atp957
a(S'pisni'
p958
(dp959
S'ADJ'
p960
F1.0
s(lp961
(g70
I10
tp962
atp963
a(S'obliki'
p964
(dp965
S'NOUN'
p966
F1.0
s(lp967
(g70
I10
tp968
atp969
a(g17
(dp970
g17
F1.0
s(lp971
tp972
a(g21
(dp973
g17
F1.0
s(lp974
(g70
I10
tp975
atp976
a(g25
(dp977
g17
F1.0
s(lp978
tp979
a(S'ro'
p980
(dp981
S'ADV'
p982
F0.011352
sS'ADJ'
p983
F0.001443
sS'VERB'
p984
F0.000136
sS'NOUN'
p985
F0.9870689999999999
s(lp986
(g241
I11
tp987
atp988
a(g38
(dp989
g17
F1.0
s(lp990
(g70
I10
tp991
atp992
a(S'otro\xc5\xa1ka'
p993
(dp994
S'ADJ'
p995
F1.0
s(lp996
(g8
I0
tp997
atp998
a(S'pornografija'
p999
(dp1000
S'ADJ'
p1001
F4.2e-05
sS'VERB'
p1002
F5e-06
sS'NOUN'
p1003
F0.9999520000000001
s(lp1004
(g28
I1
tp1005
atp1006
a(S'je'
p1007
(dp1008
S'PRON'
p1009
F2.2e-05
sS'VERB'
p1010
F0.9999659999999999
sg566
F1.2e-05
s(lp1011
(g61
I2
tp1012
atp1013
a(S'ob\xc4\x8dutljiva'
p1014
(dp1015
S'ADJ'
p1016
F1.0
s(lp1017
(g85
I4
tp1018
atp1019
a(S'tema'
p1020
(dp1021
S'PRON'
p1022
F0.000203
sS'NOUN'
p1023
F0.999797
s(lp1024
(g78
I5
tp1025
atp1026
a(g88
(dp1027
g17
F1.0
s(lp1028
tp1029
a(S'ki'
p1030
(dp1031
S'CONJ'
p1032
F1.0
s(lp1033
(g96
I6
tp1034
atp1035
a(S'bi'
p1036
(dp1037
g566
F1e-06
sS'VERB'
p1038
F0.999999
s(lp1039
tp1040
a(S'morala'
p1041
(dp1042
S'VERB'
p1043
F0.998178
sS'NOUN'
p1044
F0.001823
s(lp1045
(g104
I7
tp1046
atp1047
a(S'vedno'
p1048
(dp1049
S'ADV'
p1050
F1.0
s(lp1051
(g111
I8
tp1052
atp1053
a(S'biti'
p1054
(dp1055
S'VERB'
p1056
F0.986632
sS'NOUN'
p1057
F0.013368
s(lp1058
(g229
I9
tp1059
atp1060
a(g783
(dp1061
S'ADP'
p1062
F1.0
s(lp1063
(g134
I13
tp1064
atp1065
a(S'sredi\xc5\xa1\xc4\x8du'
p1066
(dp1067
S'NOUN'
p1068
F1.0
s(lp1069
tp1070
a(S'pozornosti'
p1071
(dp1072
S'NOUN'
p1073
F1.0
s(lp1074
(g126
I12
tp1075
atp1076
a(S'evropskih'
p1077
(dp1078
S'ADJ'
p1079
F1.000001
s(lp1080
(g171
I14
tp1081
atp1082
a(S'in'
p1083
(dp1084
S'ADV'
p1085
F5.8e-05
sg566
F1e-06
sS'CONJ'
p1086
F0.999922
sS'NOUN'
p1087
F1.8e-05
s(lp1088
(g163
I15
tp1089
atp1090
a(S'nacionalnih'
p1091
(dp1092
S'ADJ'
p1093
F1.0
s(lp1094
(g156
I16
tp1095
atp1096
a(S'organov'
p1097
(dp1098
S'NOUN'
p1099
F1.0
s(lp1100
tp1101
a(S'oblasti'
p1102
(dp1103
S'NOUN'
p1104
F0.9999990000000001
s(lp1105
(g148
I17
tp1106
atp1107
a(g17
(dp1108
g17
F1.0
s(lp1109
(g17
I18
tp1110
atp1111
asS'es'
p1112
(lp1113
(S'la'
p1114
(dp1115
S'PRON'
p1116
F0.000288
sS'DET'
p1117
F0.999655
sS'NOUN'
p1118
F2e-06
sg566
F5.5e-05
s(lp1119
tp1120
a(S'pornograf\xc3\xada'
p1121
(dp1122
S'ADJ'
p1123
F0.018812
sS'VERB'
p1124
F0.00028
sS'NOUN'
p1125
F0.980909
s(lp1126
(g28
I1
tp1127
atp1128
a(S'infantil'
p1129
(dp1130
S'ADJ'
p1131
F1.0
s(lp1132
(g8
I0
tp1133
atp1134
a(S'es'
p1135
(dp1136
S'VERB'
p1137
F1.0
s(lp1138
(g61
I2
tp1139
atp1140
a(S'un'
p1141
(dp1142
g566
F4e-06
sS'DET'
p1143
F0.999996
s(lp1144
(g70
I3
tp1145
atp1146
a(S'tema'
p1147
(dp1148
S'NOUN'
p1149
F1.0
s(lp1150
(g78
I5
tp1151
atp1152
a(S'delicado'
p1153
(dp1154
S'ADJ'
p1155
F1.0
s(lp1156
(g85
I4
tp1157
atp1158
a(S'que'
p1159
(dp1160
g566
F0.0
sS'CONJ'
p1161
F1.0
s(lp1162
(g96
I6
tp1163
atp1164
a(S'deber\xc3\xada'
p1165
(dp1166
S'VERB'
p1167
F1.0
s(lp1168
(g104
I7
tp1169
atp1170
a(S'ser'
p1171
(dp1172
S'VERB'
p1173
F1.0
sS'NOUN'
p1174
F0.0
s(lp1175
(g229
I9
tp1176
atp1177
a(S'siempre'
p1178
(dp1179
S'ADV'
p1180
F1.0
s(lp1181
(g111
I8
tp1182
atp1183
a(S'el'
p1184
(dp1185
S'PRON'
p1186
F9e-06
sS'DET'
p1187
F0.999991
s(lp1188
(g70
I10
tp1189
atp1190
a(S'centro'
p1191
(dp1192
S'NOUN'
p1193
F1.0
s(lp1194
(g126
I12
tp1195
atp1196
a(S'principal'
p1197
(dp1198
g566
F0.000184
sS'ADJ'
p1199
F0.999816
s(lp1200
(g241
I11
tp1201
atp1202
a(S'de'
p1203
(dp1204
g566
F0.0
sS'CONJ'
p1205
F5.7e-05
sS'ADP'
p1206
F0.999943
s(lp1207
(g134
I13
tp1208
atp1209
a(S'las'
p1210
(dp1211
S'PRON'
p1212
F0.0
sS'DET'
p1213
F1.0
s(lp1214
tp1215
a(S'autoridades'
p1216
(dp1217
S'NOUN'
p1218
F1.0
s(lp1219
(g148
I17
tp1220
atp1221
a(S'nacionales'
p1222
(dp1223
S'ADJ'
p1224
F1.0
s(lp1225
(g156
I16
tp1226
atp1227
a(S'y'
p1228
(dp1229
g566
F0.000604
sS'CONJ'
p1230
F0.999396
s(lp1231
(g163
I15
tp1232
atp1233
a(S'europeas'
p1234
(dp1235
S'NOUN'
p1236
F0.144611
sS'ADJ'
p1237
F0.855389
s(lp1238
(g171
I14
tp1239
atp1240
a(g17
(dp1241
g17
F1.0
s(lp1242
(g17
I18
tp1243
atp1244
as.